ccollections
defaultdict
p1
(c__builtin__
float
p2
tRp3
Vall
p4
F3
sVconsider
p5
F1
sVhath
p6
F4
sV(if
p7
F2
sVhelpe
p8
F2
sVpresente
p9
F1
sV(for
p10
F1
sVto
p11
F27
sVcharge
p12
F1
sVlord
p13
F2
sVhyndred
p14
F1
sVshortly.
p15
F1
sVdelt
p16
F1
sVfall
p17
F2
sVwaueryng
p18
F1
sVcontinued
p19
F1
sVentended
p20
F1
sVhym
p21
F1
sVslyppery
p22
F1
sV(whom
p23
F1
sVmalice
p24
F1
sVallowed,
p25
F1
sVhonourable
p26
F1
sVothers,
p27
F1
sVgraunted,
p28
F1
sVenterpryse,
p29
F1
sVestablished
p30
F1
sVwhat
p31
F1
sVsum
p32
F2
sVenuied
p33
F1
sVhim.
p34
F1
sVstande
p35
F1
sVtherof,
p36
F1
sVwhan
p37
F2
sVdyuers
p38
F1
sVgathered
p39
F1
sVnever
p40
F1
sVhere
p41
F3
sVskarce
p42
F1
sValone
p43
F1
sVdivyls?
p44
F1
sVaffayres,
p45
F1
sVsooner:
p46
F1
sVshift
p47
F1
sVpunishment
p48
F1
sVnamed
p49
F1
sVglas,
p50
F1
sVprinte
p51
F1
sVmeddle
p52
F1
sV.iiii.
p53
F1
sVskape
p54
F1
sVlady,
p55
F1
sVfrom
p56
F2
sV&
F7
sVvertuous,
p57
F1
sVwield
p58
F1
sVfew
p59
F1
sVcall
p60
F1
sVfaine
p61
F1
sVmore
p62
F1
sVeternall
p63
F1
sVname,
p64
F2
sVit
p65
F15
sVlefte,
p66
F1
sVme
p67
F1
sVylande:
p68
F1
sVshame
p69
F1
sVthis
p70
F5
sVcan
p71
F2
sVmy
p72
F4
sVlords
p73
F1
sVmeanes
p74
F1
sVaccept
p75
F1
sVescaped
p76
F1
sVbene
p77
F1
sVother,
p78
F1
sVpurposed
p79
F1
sVpatarne,
p80
F1
sVheaven,
p81
F1
sVstorye
p82
F1
sVrather
p83
F1
sVestymacion
p84
F1
sVgaineful
p85
F1
sVtill
p86
F1
sVprocured
p87
F1
sVattayne.
p88
F2
sVrude
p89
F1
sVmay
p90
F6
sVmen
p91
F1
sVend
p92
F1
sVthereto,
p93
F1
sVfauourably
p94
F1
sVlacked
p95
F1
sVa
F7
sVchiefly
p96
F1
sVplage
p97
F1
sVperused
p98
F1
sVchief
p99
F1
sVso
p100
F9
sVboldly,
p101
F1
sVbeseching
p102
F1
sVoffice
p103
F1
sVhand,
p104
F1
sVmove
p105
F1
sViustice,
p106
F1
sVgraunt
p107
F1
sViustice.
p108
F1
sVthrough
p109
F1
sVyeare
p110
F1
sVsuffer
p111
F1
sVbut
p112
F6
sVchiefest
p113
F3
sVsuffreth
p114
F1
sVselves
p115
F1
sVcountreymen
p116
F1
sVready:
p117
F1
sVministracion
p118
F2
sVmight
p119
F2
sVit.
p120
F1
sVthen
p121
F1
sVthem
p122
F5
sVgood
p123
F2
sVworshipfull,
p124
F1
sVye
p125
F2
sVfurnysh
p126
F1
sViustices
p127
F1
sVshameful
p128
F1
sVthey
p129
F2
sVnot
p130
F5
sVende,
p131
F1
sVnow
p132
F1
sVname
p133
F1
sVtheim,
p134
F1
sVdoinges
p135
F1
sVthankles
p136
F1
sVvertue,
p137
F1
sVprinces,
p138
F2
sVbooke
p139
F3
sVaduyse
p140
F1
sVnamely,
p141
F1
sVour
p142
F1
sVshewe
p143
F1
sVchiefe
p144
F1
sVgod
p145
F6
sVbad
p146
F1
sVtime,
p147
F3
sVoffre
p148
F1
sVvnpunished,
p149
F1
sVbesides
p150
F1
sVselfe
p151
F1
sVfurth,
p152
F1
sVfirst
p153
F1
sVeuen
p154
F1
sVkinges,
p155
F1
sVsuch
p156
F2
sVeuill
p157
F1
sVexcepte
p158
F1
sVtheir
p159
F3
sVbeare
p160
F1
sVsundrye
p161
F1
sVthat
p162
F8
sVbaldvvin.
p163
F1
sVpaynes
p164
F1
sVmagistrates,
p165
F1
sVpart
p166
F1
sVwas,
p167
F1
sVgrace
p168
F1
sVben
p169
F1
sVplaged
p170
F1
sVmatter
p171
F1
sVplages
p172
F1
sVtherfore
p173
F3
sVsoner
p174
F1
sVwere
p175
F1
sVpreuayle,
p176
F1
sVand
p177
F23
sVvertue
p178
F1
sVnacions,
p179
F1
sVwell,
p180
F1
sVhave
p181
F6
sVoccupied
p182
F1
sVany
p183
F3
sVdo,
p184
F1
sVgoverners
p185
F1
sVable
p186
F1
sVofficers
p187
F1
sVtake
p188
F2
sVwhich
p189
F4
sVpunish
p190
F1
sVvttermost:
p191
F1
sVprinter
p192
F1
sVshall
p193
F5
sVhowe
p194
F3
sVprocure
p195
F1
sVmost
p196
F2
sVprinted
p197
F1
sVinfamy.
p198
F1
sVcovet
p199
F1
sVinfamy,
p200
F1
sVdeceytes
p201
F1
sVoccasion
p202
F1
sVrewarde
p203
F1
sVdiseases,
p204
F1
sVfauorably.
p205
F1
sV(whose
p206
F1
sVvpon
p207
F1
sVmyrrour
p208
F2
sVbeseche
p209
F2
sVthan
p210
F2
sVvndertake
p211
F1
sVordeyner
p212
F1
sVscripture
p213
F1
sVdo
p214
F1
sVhis
p215
F3
sVmyrrour,
p216
F1
sVlydgate:
p217
F1
sVmeane
p218
F1
sVhim
p219
F1
sVcalling
p220
F1
sVoffred
p221
F1
sVcontynewed
p222
F1
sVwhere
p223
F1
sVset
p224
F2
sVrenowme,
p225
F1
sVsee
p226
F2
sVare
p227
F2
sVmaries
p228
F1
sVpassyng
p229
F1
sVapte,
p230
F1
sVpriuye
p231
F1
sVhorrible
p232
F1
sVsuche,
p233
F1
sVselues
p234
F1
sVhandes.
p235
F1
sVvnder
p236
F1
sVboth
p237
F3
sVvices.
p238
F1
sVmany
p239
F3
sVfinde
p240
F1
sVhonering
p241
F1
sVagoe,
p242
F1
sVheretofore,
p243
F1
sVlearning
p244
F1
sVtrust
p245
F1
sVchauncellour
p246
F1
sVquene
p247
F1
sVamen.
p248
F1
sVdue
p249
F1
sVbeen
p250
F1
sVauncestors,
p251
F1
sVmuch
p252
F1
sVpunished
p253
F1
sVhipocrisy,
p254
F1
sVathlas
p255
F1
sVowne
p256
F1
sVdiligent
p257
F1
sVwill
p258
F1
sVwhile
p259
F1
sVhiparrites)
p260
F1
sVis
p261
F5
sVit,
p262
F2
sVrulers
p263
F1
sVin
p264
F17
sVmayntayne
p265
F1
sVif
p266
F1
sVintituled
p267
F1
sVlidgates
p268
F1
sVnevertheles,
p269
F1
sVwhiche
p270
F2
sVenglishe
p271
F1
sVshal
p272
F1
sVnoble
p273
F1
sVfowle
p274
F1
sVhelpe)
p275
F1
sVloking
p276
F1
sVwyt
p277
F2
sVwhereby
p278
F1
sVi
F13
sVwell
p279
F1
sVbegun,
p280
F1
sVhumbly
p281
F2
sVthe
p282
F25
sVyours
p283
F1
sVshameles
p284
F1
sVskyll,
p285
F1
sVyea
p286
F1
sVgods
p287
F3
sVvvilliam
p288
F1
sVrest
p289
F1
sVsum,
p290
F1
sVcease
p291
F1
sVyet
p292
F4
sVvices
p293
F1
sVpresumption
p294
F1
sVoffice,
p295
F2
sVhad
p296
F4
sVwer
p297
F1
sVoffices)
p298
F1
sVanye
p299
F1
sVoffice:
p300
F1
sVread
p301
F1
sVearnest
p302
F1
sVgod,
p303
F1
sVfortune
p304
F1
sVhaue
p305
F3
sVperfourmed,
p306
F1
sVlicenced.
p307
F1
sVany:
p308
F1
sVlike
p309
F1
sVwurke
p310
F1
sVoffices
p311
F1
sVboccas
p312
F1
sVtranslated
p313
F1
sVtooke
p314
F1
sViudasses,
p315
F1
sVbecause
p316
F2
sVoften
p317
F1
sVpeople
p318
F1
sVshew
p319
F1
sVleft,
p320
F1
sVkinde
p321
F1
sVtherin:
p322
F1
sVfor
p323
F12
sVshewe:
p324
F1
sVsuche
p325
F1
sVhonors,
p326
F1
sVgood,
p327
F1
sViustice
p328
F1
sVbe
p329
F9
sVwhych
p330
F1
sVrefused
p331
F1
sVthinkyng
p332
F1
sValthough
p333
F2
sVby
p334
F4
sVdeserved
p335
F1
sVtoylers
p336
F1
sVof
p337
F23
sVadmonished,
p338
F1
sVvtterly
p339
F1
sVaccepte
p340
F1
sVor
p341
F3
sVsuch,
p342
F1
sVeyther
p343
F1
sVinto
p344
F1
sVvnto
p345
F2
sVsinne
p346
F1
sVyour
p347
F7
sV(the
p348
F1
sVabuse.
p349
F1
sVmurdered,
p350
F1
sVhumble,
p351
F1
sVlyked
p352
F1
sVwas
p353
F3
sVyou,
p354
F2
sVyou)
p355
F2
sVlieutenauntes
p356
F1
sVgods.
p357
F1
sVso,
p358
F1
sVgods,
p359
F1
sVhear
p360
F1
sVwith
p361
F6
sVhe
p362
F7
sVmade
p363
F1
sVdalyed
p364
F1
sVglory
p365
F1
sVcalleth
p366
F1
sVare)
p367
F1
sVwhye
p368
F1
sVdiligently
p369
F1
sVal
p370
F1
sVan
p371
F1
sVas
p372
F13
sVbochas
p373
F1
sVno
p374
F1
sVcounsailed
p375
F1
sVlately
p376
F1
sVwher
p377
F1
sVother
p378
F2
sVyou
p379
F8
sVspoilers
p380
F1
sVin,
p381
F1
sVdishonour
p382
F1
sViudgemente
p383
F1
sVdeath,
p384
F1
sVstafford,
p385
F1
sVvice
p386
F1
sVrequired
p387
F1
sVtime
p388
F1
sVweighty
p389
F1
sVamendment.
p390
F1
s.