ccollections
defaultdict
p1
(c__builtin__
float
p2
tRp3
Vdiscribe,
p4
F1
sVconsidered,
p5
F3
sVforgone
p6
F1
sVthornes,
p7
F1
sVreprehension,
p8
F1
sVhath
p9
F20
sVwoorse
p10
F1
sVsuffring
p11
F1
sVmansion
p12
F1
sVappetite
p13
F2
sVhate
p14
F2
sVassembled
p15
F4
sVnourishe,
p16
F1
sVadmiration,
p17
F1
sVwhose
p18
F12
sVgrace,
p19
F2
sVpedro
p20
F17
sVeuery
p21
F1
sVinheritance.
p22
F1
sVnourished,
p23
F1
sVswam
p24
F1
sV(for
p25
F1
sVvntimelye
p26
F1
sVplutarch
p27
F4
sVvenom
p28
F1
sVdeclareth
p29
F1
sVcompanie.
p30
F1
sVcompanie,
p31
F1
sVwhatsoeuer
p32
F1
sVskill,
p33
F2
sVpride
p34
F1
sVforbidden
p35
F1
sVchastitie,
p36
F1
sVreforme
p37
F2
sVchastitie.
p38
F1
sVlack
p39
F2
sVotherwise,
p40
F3
sVconsist,
p41
F1
sVgualter,
p42
F8
sVrise
p43
F1
sVcondemne,
p44
F1
sVmacedon,
p45
F1
sVgyue
p46
F1
sVmanie
p47
F1
sVsuperioritie
p48
F1
sVteares,
p49
F1
sVbringing
p50
F1
sVcommonlye
p51
F1
sVgoodes
p52
F1
sVvnable
p53
F1
sVspeede.
p54
F1
sVruthfully,
p55
F1
sVsorrowe,
p56
F1
sVdeuise
p57
F2
sVeuer,
p58
F1
sVcontemne,
p59
F1
sVancres,
p60
F1
sVverie
p61
F8
sVrefraine
p62
F1
sVfriendshyp.
p63
F1
sVmatrimonie,
p64
F4
sVcommaund
p65
F2
sVforce
p66
F4
sVwherby
p67
F1
sVbooteth
p68
F1
sVbewtified?
p69
F1
sVme,
p70
F2
sVme.
p71
F1
sVothers:
p72
F2
sVlikely
p73
F1
sVallowed,
p74
F1
sVriches,
p75
F4
sVraigne
p76
F1
sVglasse,
p77
F1
sVothers,
p78
F5
sVgouerning
p79
F1
sVothers.
p80
F1
sVbewitcheth
p81
F1
sVvsurping
p82
F1
sVcasteth
p83
F1
sVspouses
p84
F1
sVchrist
p85
F2
sVnature,
p86
F4
sVlesse
p87
F7
sVchildren
p88
F2
sVrest,
p89
F2
sVconsequentlye
p90
F1
sVmee
p91
F1
sV(good)
p92
F1
sVfathers,
p93
F1
sVfriendship,
p94
F9
sVfriendship.
p95
F3
sVauthour
p96
F1
sVreasons,
p97
F1
sVparte,
p98
F2
sVmen
p99
F16
sVkindred
p100
F1
sVhere
p101
F4
sVreported
p102
F2
sVenioyed
p103
F1
sVbattayle
p104
F1
sVkissing
p105
F1
sVsiculus,
p106
F1
sVprofitable,
p107
F1
sVtherfore
p108
F1
sVvnfortunate
p109
F1
sVsubstance
p110
F1
sVdaughter
p111
F2
sVworse,
p112
F1
sVlight,
p113
F1
sVtolerating
p114
F1
sVhitherto,
p115
F1
sVcredit
p116
F1
sVbenefactors.
p117
F1
sVexhort
p118
F1
sVreapeth
p119
F1
sVnatures
p120
F1
sVspouse,
p121
F2
sVrewardes,
p122
F1
sVspouse.
p123
F1
sVcompany.
p124
F3
sVrecounteth
p125
F1
sVmaydens
p126
F1
sVdubble
p127
F1
sVbaptista
p128
F2
sVchyding
p129
F1
sVgentleman,
p130
F2
sVoctauius
p131
F1
sVvnknowne
p132
F2
sVhighly
p133
F1
sVbrought
p134
F3
sVwyse
p135
F3
sVcircumstance:
p136
F1
sVvp,
p137
F5
sVgraue
p138
F1
sVfame,
p139
F1
sVwoordes
p140
F1
sVwould
p141
F8
sVimbrued
p142
F1
sVconfirme
p143
F2
sVdeepely
p144
F2
sVm.
p145
F6
sVintreate
p146
F1
sVwyfes
p147
F9
sVnoting
p148
F2
sVtherefore
p149
F15
sVcounterpeise
p150
F1
sVvenetians,
p151
F2
sVbarke
p152
F1
sVtell
p153
F3
sVreclayme
p154
F1
sVgreene
p155
F2
sVcompanye
p156
F2
sVhereby
p157
F1
sVgreatnesse
p158
F1
sVexcellent
p159
F6
sVneedeth
p160
F1
sVware
p161
F1
sVoff,
p162
F3
sVnobilitie
p163
F1
sVmust
p164
F50
sVme
p165
F4
sVbedding,
p166
F1
sVma
p167
F1
sVsoueraignesse
p168
F1
sVbodye,
p169
F1
sVlooued
p170
F1
sVkeepeth
p171
F1
sVknowne,
p172
F1
sVwyfe,
p173
F18
sVchoose,
p174
F2
sVkinsfolkes,
p175
F1
sVhenry
p176
F1
sVhousholde
p177
F1
sValtering
p178
F1
sVglorie
p179
F1
sVspeaketh
p180
F2
sVmy
p181
F25
sVexample
p182
F4
sVtherwithal
p183
F1
sVfoode
p184
F1
sVestate
p185
F2
sVcause,
p186
F1
sVantonius.
p187
F1
sVcurtesie,
p188
F1
sVsayde,
p189
F5
sVboccace
p190
F1
sVwholye
p191
F1
sVcause.
p192
F2
sVcaused
p193
F1
sVwant
p194
F11
sVcommaund.
p195
F1
sVmouth,
p196
F1
sVrovve,
p197
F1
sVindifferent
p198
F2
sVworse
p199
F1
sVsought
p200
F1
sVend
p201
F1
sVhonestie,
p202
F2
sVdysorder
p203
F1
sVmyste
p204
F1
sVsobernes,
p205
F1
sVhow
p206
F9
sVloueth
p207
F3
sVenquire
p208
F1
sVsate
p209
F2
sVseperated,
p210
F1
sVgate
p211
F1
sVdiscoursed
p212
F1
sVhast,
p213
F1
sVchiefely
p214
F1
sVlaide
p215
F1
sVpaste
p216
F1
sVafter
p217
F20
sVvicious
p218
F1
sVcomplextion,
p219
F1
sVwoulde,
p220
F1
sVlaugh,
p221
F1
sVwyfes,
p222
F6
sVlay
p223
F1
sVwyfes.
p224
F1
sVconceyue
p225
F1
sVcustome
p226
F3
sVlaw
p227
F2
sVcommaunde
p228
F1
sVnoone.
p229
F1
sVbirdes,
p230
F1
sVkeepe
p231
F10
sVcaptiues,
p232
F1
sVstomack,
p233
F1
sVthird
p234
F1
sVthink
p235
F1
sVhaste
p236
F1
sVvnborne,
p237
F1
sVbeginneth
p238
F2
sVluxan,
p239
F1
sVexecuted
p240
F1
sVoffice
p241
F11
sVbeareth
p242
F1
sVconsent
p243
F3
sVcherished,
p244
F1
sVsatisfied
p245
F1
sVfittest,
p246
F2
sVreproche
p247
F1
sVhusbad
p248
F1
sVlondon
p249
F1
sVpillers,
p250
F1
sVtruely.
p251
F1
sVteares.
p252
F1
sVdwelling
p253
F1
sVrewarded
p254
F1
sVwrought
p255
F1
sVbefore
p256
F14
sVdisease,
p257
F2
sVthen,
p258
F3
sVrepete
p259
F1
sVlikelyhood
p260
F1
sVdiscourse
p261
F1
sVwriting
p262
F1
sVbetter
p263
F13
sVsoldiours
p264
F1
sVgoodnesse
p265
F1
sVhee,
p266
F1
sVreformed
p267
F1
sVbriefely
p268
F1
sVthen
p269
F25
sVthem
p270
F39
sVaffected
p271
F1
sVencountred
p272
F1
sVmalice.
p273
F1
sVthee
p274
F3
sVexecute,
p275
F1
sVwithin,
p276
F1
sVfayrest
p277
F3
sVrewarde.
p278
F1
sV9
F1
sVsorte
p279
F1
sVfortunate,
p280
F1
sVthey
p281
F64
sVdowne
p282
F3
sVmanners,
p283
F1
sVeasie,
p284
F1
sVsuffiseth
p285
F1
sVobtayned
p286
F1
sVfeede
p287
F1
sVsuppresse
p288
F1
sVdropsie,
p289
F1
sVherbes,
p290
F4
sVfacilitye,
p291
F1
sVreasonable
p292
F1
sVwent
p293
F6
sVpaines,
p294
F1
sVside
p295
F2
sVbone
p296
F1
sVentermeddle
p297
F1
sVconcord
p298
F1
sVcondicion,
p299
F1
sVlist
p300
F1
sVgrape.
p301
F1
sVmayntaine
p302
F1
sVcelebrating
p303
F1
sVcommodities.
p304
F1
sVbabilonians.
p305
F1
sVreceyued
p306
F3
sVanacharsis
p307
F2
sVborne
p308
F2
sVself.
p309
F1
sVselfe,
p310
F8
sVgod
p311
F5
sVfinished,
p312
F1
sVeuer.
p313
F1
sVsonnes.
p314
F1
sVday.
p315
F1
sVcherishe
p316
F3
sVday,
p317
F3
sVhousholde,
p318
F1
sVsute,
p319
F1
sVis,
p320
F19
sVsufficeth
p321
F1
sVnewly
p322
F3
sVforth
p323
F1
sVdeclaring
p324
F1
sVlodouie
p325
F1
sVturning
p326
F3
sVassured
p327
F2
sVdoore.
p328
F1
sVpriuat
p329
F1
sVninth,
p330
F1
sVeternal
p331
F1
sVtwo,
p332
F1
sVfree
p333
F1
sVmourning
p334
F1
sVtemperatelye,
p335
F2
sVforswearing.
p336
F1
sVcloth,
p337
F1
sVwilte
p338
F1
sVwoe.
p339
F1
sVknit
p340
F2
sVgo,
p341
F1
sVgo.
p342
F1
sVboldely
p343
F1
sVpersons,
p344
F4
sVselfe
p345
F7
sVbewtie,
p346
F4
sVcraue,
p347
F1
sVtale,
p348
F2
sVindued
p349
F1
sVsoueraigne
p350
F1
sVdaye
p351
F3
sVloue
p352
F35
sVdiscourse.
p353
F1
sVrecite
p354
F2
sValready
p355
F1
sVprouide
p356
F1
sVrender
p357
F1
sVynough.
p358
F1
sVsecrecie,
p359
F1
sVynough,
p360
F1
sVgoodes,
p361
F1
sVpedro,
p362
F19
sVinstruct
p363
F4
sVhinderance
p364
F1
sVinequalitie
p365
F2
sVanother
p366
F5
sVgarlande,
p367
F2
sVtoo?
p368
F1
sVlamentable
p369
F1
sVsecrecie;
p370
F1
sVforsomuch,
p371
F1
sVshoulders.
p372
F1
sVdiligently
p373
F1
sVexamples,
p374
F1
sVpower,
p375
F1
sVknight,
p376
F1
sVmarry,
p377
F5
sVpoint,
p378
F1
sVparthians,
p379
F3
sVtop
p380
F2
sVabhorre
p381
F1
sVromaines.
p382
F1
sVromaines,
p383
F1
sVkindes
p384
F2
sVperill,
p385
F1
sVolde
p386
F7
sVwooll,
p387
F1
sVconioyned
p388
F2
sVdogs
p389
F1
sVfreshlye
p390
F1
sVtroubled
p391
F1
sVland,
p392
F1
sVlydians.
p393
F1
sVexpend
p394
F1
sVexecution,
p395
F2
sVnaught.
p396
F2
sVwas,
p397
F6
sVsomewhat
p398
F4
sVfriendes,
p399
F2
sVrequisite
p400
F1
sVgadding
p401
F1
sVwhereby
p402
F2
sVhusbandes
p403
F7
sVgreater,
p404
F1
sVworthinesse,
p405
F1
sVbody,
p406
F2
sVxenophon
p407
F2
sVrate,
p408
F1
sVtree
p409
F1
sVsecond
p410
F1
sVperills
p411
F1
sVnations
p412
F1
sVmatter
p413
F6
sVparthians
p414
F1
sVknights
p415
F1
sVsuffise
p416
F2
sVold,
p417
F1
sVmaruelling,
p418
F1
sVgossiper,
p419
F1
sVexercise,
p420
F2
sVheads,
p421
F1
sVcompareth
p422
F1
sVglorifie
p423
F1
sVpittie,
p424
F1
sVwell.
p425
F3
sVmannes
p426
F1
sVharmonie,
p427
F1
sVforced
p428
F1
sVponder
p429
F1
sVstrength
p430
F1
sVdo,
p431
F1
sVoften,
p432
F1
sVrailings,
p433
F1
sVreputatio,
p434
F1
sVcausing
p435
F1
sVfayning
p436
F1
sViudgement
p437
F3
sVvpwardes
p438
F1
sVappease,
p439
F1
sVaccesse
p440
F1
sVcontent,
p441
F3
sVdayes.
p442
F1
sVdelectable,
p443
F2
sVqualities
p444
F3
sVdisgest
p445
F1
sVthough
p446
F11
sVfidelitie
p447
F1
sVmoued,
p448
F1
sVieolousie
p449
F1
sVexcelling
p450
F1
sVconuersasion.
p451
F1
sVdefence
p452
F1
sVmuch.
p453
F1
sVchambers,
p454
F2
sValmightie
p455
F1
sVattire,
p456
F1
sVpittied
p457
F1
sVmarie
p458
F1
sVphilosophie
p459
F1
sVshalt
p460
F1
sVpacience
p461
F5
sVaunswered
p462
F2
sVwasters,
p463
F1
sVhaunteth
p464
F1
sVinstruct,
p465
F1
sVdoe
p466
F16
sVcircumstaunce,
p467
F1
sVseeke
p468
F5
sVorderly
p469
F2
sVaccounted
p470
F3
sVaunt
p471
F1
sValmyghtie:
p472
F1
sVenioye
p473
F3
sVcame
p474
F8
sVsaying
p475
F1
sVmaister,
p476
F1
sVdames
p477
F1
sVthirde
p478
F3
sVslaue
p479
F1
sVcommonlie
p480
F1
sVending
p481
F1
sVthanke
p482
F2
sVconceyueth,
p483
F1
sVperswade
p484
F1
sVlyon,
p485
F2
sVment
p486
F1
sVxenophon.
p487
F1
sVdissolute
p488
F1
sVmens
p489
F1
sVgodlines,
p490
F1
sVmatters
p491
F4
sVplaces.
p492
F1
sVcountrie,
p493
F1
sVimmortalitie.
p494
F1
sVvoyd
p495
F1
sVbriefe,
p496
F1
sVanger,
p497
F3
sVsecrete,
p498
F1
sVdo
p499
F6
sVtrayning,
p500
F1
sVdi
p501
F1
sVplato
p502
F1
sVimprotunities
p503
F1
sVpreferred
p504
F2
sVmeate,
p505
F1
sVgored
p506
F1
sVdeede.
p507
F1
sVreport
p508
F1
sVcotemned
p509
F1
sVmaisters
p510
F2
sVcirces
p511
F1
sVmeate.
p512
F1
sVknockt
p513
F1
sVangers
p514
F1
sVmen?
p515
F1
sVreproofe
p516
F1
sVstraunge
p517
F2
sVfields
p518
F1
sVcoate
p519
F1
sVdionysius.
p520
F1
sVspeeche,
p521
F1
sVmen,
p522
F9
sVcloystred
p523
F1
sVmen.
p524
F3
sVfauorde
p525
F1
sVsaue
p526
F1
sVrelease
p527
F1
sVthem.
p528
F12
sVgaue
p529
F10
sVthem,
p530
F20
sVlerned,
p531
F1
sVgroweth
p532
F1
sVhighnesse,
p533
F1
sVfragrant
p534
F2
sVcommauded,
p535
F1
sVswept
p536
F1
sVliquor
p537
F1
sVprety
p538
F1
sVknoweth,
p539
F1
sVimbracings,
p540
F1
sVbed
p541
F1
sVwomen:
p542
F1
sVleauing
p543
F3
sVlucius
p544
F1
sVbest
p545
F13
sVmatters.
p546
F2
sVrequest,
p547
F1
sVmatters,
p548
F3
sVface,
p549
F1
sVestate.
p550
F1
sVaway
p551
F5
sVestate,
p552
F3
sVpreseruatio
p553
F1
sVsolicitude
p554
F1
sVestate)
p555
F1
sVyet
p556
F22
sVloth
p557
F1
sVwiues
p558
F3
sVherb
p559
F1
sVcommauded
p560
F1
sVcourteous,
p561
F1
sVsorts
p562
F1
sVgoddes,
p563
F1
sVinuincible,
p564
F1
sVchoise,
p565
F1
sVprofitable
p566
F2
sVwe
p567
F51
sVnature
p568
F4
sVsilla
p569
F1
sVcurstnesse,
p570
F1
sVfruits
p571
F1
sVreprehende
p572
F3
sVmisshaps
p573
F1
sVnewe
p574
F3
sVcommaunded
p575
F7
sValteration,
p576
F1
sVwt
p577
F1
sVconserue
p578
F1
sVfaults,
p579
F1
sVhandes,
p580
F1
sVmainteyned.
p581
F1
sVcandia,
p582
F1
sVsayth,
p583
F4
sVladies.
p584
F3
sVthirtie,
p585
F1
sVsort,
p586
F2
sVfault
p587
F2
sVill
p588
F1
sVmatrimony
p589
F1
sVequall
p590
F1
sVagainst
p591
F6
sVcouetous
p592
F1
sVsoueraigne.
p593
F1
sVsoueraigne,
p594
F1
sVvariance
p595
F1
sVmelody,
p596
F1
sVasked
p597
F1
sVlouinglye.
p598
F1
sVscotlande
p599
F1
sVvexed
p600
F1
sVdoubt,
p601
F1
sVnamed
p602
F1
sVmoney.
p603
F2
sVmoney,
p604
F4
sVmaster
p605
F1
sVtrust
p606
F7
sVperfite
p607
F4
sVbestowe
p608
F1
sVnow,
p609
F1
sVachaians.
p610
F1
sVachaians,
p611
F1
sVproceeded
p612
F1
sVcondemned
p613
F2
sVfro
p614
F1
sVthree
p615
F7
sVlesse,
p616
F1
sVvnfayned
p617
F1
sVwere,
p618
F3
sVwere.
p619
F1
sVmuch
p620
F23
sVknowne
p621
F1
sVnumidians,
p622
F1
sVaduoyding
p623
F1
sVcompanie
p624
F4
sVgaming,
p625
F1
sVextreeme
p626
F1
sVspring.
p627
F1
sVryches,
p628
F1
sVprosperous
p629
F1
sVconcerning
p630
F1
sVdiligence,
p631
F1
sVworkes
p632
F1
sVdiligence.
p633
F1
sVvexe,
p634
F1
sVmaisters,
p635
F1
sVnettles,
p636
F1
sVsaide,
p637
F2
sVdoth
p638
F11
sVspanishe
p639
F1
sVathoritie.
p640
F1
sVnourishers
p641
F1
sVmaner
p642
F4
sVpossesse
p643
F1
sVlacedomonians,
p644
F1
sVtried.
p645
F1
sVnowe
p646
F7
sVproceede.
p647
F1
sVspaniell,
p648
F1
sVentreated
p649
F1
sVblaspheming.
p650
F1
sVsuppose
p651
F1
sVplinie.
p652
F1
sVfoolishnesse
p653
F1
sVis
p654
F120
sVtrees,
p655
F3
sVit
p656
F84
sVlibertie,
p657
F2
sVcomplayned
p658
F1
sVshame
p659
F2
sVin
p660
F291
sVexile
p661
F1
sVladye,
p662
F1
sVsaid,
p663
F1
sVif
p664
F60
sVattyre,
p665
F1
sVwaging
p666
F1
sVprincipall
p667
F2
sVmeanes,
p668
F1
sVheart,
p669
F1
sVthings
p670
F11
sVmake
p671
F6
sVgrowe
p672
F2
sVlearne,
p673
F1
sVbeside
p674
F2
sVlyke
p675
F15
sVmonarch
p676
F2
sVwhiche
p677
F1
sVvngentle
p678
F1
sVpersonage,
p679
F1
sVincreased,
p680
F1
sVbaltizar
p681
F1
sVlincked
p682
F2
sVspringing
p683
F1
sVcan,
p684
F2
sVpermit
p685
F3
sVkept
p686
F3
sVfraunce,
p687
F1
sVsaide
p688
F2
sVmeete
p689
F3
sVparadise,
p690
F2
sVparadise.
p691
F1
sVcleaue
p692
F2
sVmade,
p693
F1
sVprescribed
p694
F1
sVperfiting
p695
F1
sVkyll
p696
F1
sVaboundantlye,
p697
F1
sVthy
p698
F10
sValreadie
p699
F1
sVryches
p700
F1
sVhumble
p701
F1
sVsuffering
p702
F1
sVreplied,
p703
F1
sVwhich,
p704
F6
sVgreatest
p705
F9
sVthing,
p706
F1
sVmother
p707
F2
sVthe
p708
F767
sVtyraunt,
p709
F1
sVseene,
p710
F1
sVanacleon
p711
F2
sVleft
p712
F3
sVsouldiour,
p713
F1
sVraging,
p714
F1
sVtransforme
p715
F1
sVstarre.
p716
F1
sVment.
p717
F1
sVgolden
p718
F1
sVyea
p719
F2
sVmay,
p720
F1
sVstatelye
p721
F1
sVyee
p722
F4
sVmeate
p723
F1
sVmaketh
p724
F3
sVthanks
p725
F1
sVblasphemer.
p726
F1
sValoisa
p727
F3
sVpoyson
p728
F1
sVvices
p729
F1
sVguise
p730
F1
sVkinde,
p731
F1
sVprowde,
p732
F1
sVdearer
p733
F1
sVregarded
p734
F1
sVoffice,
p735
F2
sVhad
p736
F40
sVcurteous,
p737
F1
sVobedient
p738
F2
sVriotous
p739
F1
sVprison
p740
F2
sVhap
p741
F1
sVanye
p742
F5
sVconserne
p743
F1
sVmaye
p744
F15
sVstately,
p745
F1
sVcorrupteth
p746
F1
sVapplie
p747
F2
sVdressing,
p748
F1
sVprofiteth
p749
F1
sVfortie
p750
F2
sVrequired,
p751
F4
sVpossible
p752
F1
sVgod.
p753
F1
sVwashed,
p754
F2
sVgod,
p755
F3
sVbad.
p756
F2
sVopinion.
p757
F1
sVeuil
p758
F2
sVregarde,
p759
F1
sVthereat,
p760
F1
sVgift
p761
F1
sVsteps
p762
F1
sVhung
p763
F1
sVgiftes
p764
F1
sVhelpeth
p765
F2
sVseneca,
p766
F2
sVright
p767
F1
sVold
p768
F3
sVgyuing
p769
F2
sVsixt
p770
F1
sVflatter
p771
F1
sVrecreatio
p772
F1
sViulia.
p773
F4
sVdaye,
p774
F3
sVelection
p775
F1
sVdaye.
p776
F1
sVescape
p777
F1
sVreuerence
p778
F2
sVsubstance.
p779
F1
sVsister
p780
F1
sVfor
p781
F178
sVsoueraignetie
p782
F1
sVerasmus.
p783
F1
sVrehearse
p784
F1
sVglasse
p785
F1
sVgentle,
p786
F1
sVnegligence.
p787
F1
sVcontinue
p788
F1
sVhonoured
p789
F1
sVextirped
p790
F1
sVserpents
p791
F1
sVstory,
p792
F1
sVenimies
p793
F1
sVreconcilementes,
p794
F1
sVdiscord
p795
F1
sVvtter
p796
F1
sVdayes
p797
F3
sVfalleth
p798
F2
sVmaintainers
p799
F1
sVdelite
p800
F1
sVouerseene,
p801
F1
sVrecouted
p802
F1
sVpost
p803
F1
sVwryteth,
p804
F1
sVpermitted
p805
F1
sVgarnished
p806
F1
sVchaunce
p807
F4
sVserpent.
p808
F1
sVeuening
p809
F1
sVserpent,
p810
F2
sVtheirs
p811
F1
sVlyking
p812
F1
sVperchaunce,
p813
F1
sVcommoditie
p814
F1
sVo
F2
sVliues
p815
F1
sVsweete,
p816
F3
sVdinner
p817
F1
sVpoeme,
p818
F1
sVliued
p819
F2
sVworthily
p820
F2
sVmeddle
p821
F1
sVtheire
p822
F3
sVpresence
p823
F1
sVitalie,
p824
F1
sVnought
p825
F1
sVneedle,
p826
F1
sVdelighted
p827
F3
sVgentlenesse,
p828
F1
sVtrustie,
p829
F1
sVsustaine,
p830
F1
sVcookerie.
p831
F1
sVhonored
p832
F2
sVcommaundementes
p833
F1
sVtwentie
p834
F1
sVflagrat
p835
F1
sVwhy?
p836
F1
sVprepared:
p837
F1
sVlay,
p838
F1
sVsenate
p839
F1
sVaccordingly
p840
F1
sVhoushold.
p841
F1
sVsundrie
p842
F3
sVway
p843
F2
sVspring
p844
F2
sVnaught
p845
F1
sVquickeneth
p846
F1
sVwas
p847
F75
sVfathers
p848
F1
sVvenetians.
p849
F1
sViourney,
p850
F1
sVhead
p851
F1
sVwythout
p852
F1
sVsame?
p853
F1
sVinuiolable,
p854
F1
sVoffer
p855
F1
sVso,
p856
F6
sVso.
p857
F1
sVconioyning
p858
F1
sVsame.
p859
F1
sVarbour
p860
F2
sVgreyhounde,
p861
F1
sVsurrender
p862
F1
sVtrue
p863
F6
sVmarrie
p864
F2
sVcontinuance
p865
F3
sVlaye
p866
F1
sVtolde
p867
F1
sVignorance,
p868
F1
sVbeaten,
p869
F1
sVstories,
p870
F2
sVmaximus
p871
F1
sVvnhappie
p872
F3
sVvicious?
p873
F1
sVwhye
p874
F1
sVlouely
p875
F1
sVcurious,
p876
F1
sVexamples
p877
F4
sVwyll
p878
F4
sVseneca
p879
F1
sVrefrayne
p880
F1
sVauthoritie,
p881
F5
sVsauers,
p882
F1
sVsubtiltie,
p883
F2
sVdronke
p884
F1
sVsuspicions
p885
F1
sVdisease
p886
F1
sVlydians,
p887
F1
sVsometime
p888
F1
sVpromised
p889
F2
sVmooued,
p890
F1
sVesteeme
p891
F1
sVhartes
p892
F1
sVspecially
p893
F1
sVnumidians
p894
F2
sVno
p895
F36
sVwhereas
p896
F1
sVlacketh
p897
F1
sVwhen
p898
F39
sVhusbands,
p899
F2
sVhusbands.
p900
F1
sVtrickes.
p901
F1
sVdesireth
p902
F1
sVhandes
p903
F1
sVrecyte
p904
F1
sVsmell
p905
F1
sVgrudging,
p906
F1
sVconsecrated?
p907
F1
sVmary,
p908
F1
sVdeale,
p909
F1
sVcaptaine,
p910
F1
sVgarland
p911
F1
sVsolon,
p912
F1
sVisablla,
p913
F1
sVsolon.
p914
F1
sVfell
p915
F3
sVintent
p916
F2
sVauthorities
p917
F1
sVonely
p918
F15
sVpromise,
p919
F1
sValwayes
p920
F9
sVsteede
p921
F2
sVlonger
p922
F1
sVhande,
p923
F1
sVmarriage,
p924
F1
sVscots.
p925
F1
sVbewaile
p926
F1
sVconsull.
p927
F1
sVtime
p928
F6
sVfasten
p929
F1
sVfeareth,
p930
F1
sVsaincts,
p931
F1
sVeuerye
p932
F3
sVapte
p933
F1
sVdauncing,
p934
F1
sVydlely,
p935
F1
sValthough
p936
F1
sVperceyue
p937
F2
sVchilde
p938
F3
sVdowries
p939
F1
sVbehauiour,
p940
F1
sVaduise
p941
F1
sVpriuilegio.
p942
F1
sVbloude,
p943
F1
sVequallye
p944
F1
sVreporteth,
p945
F1
sVpoore
p946
F7
sVcamamile,
p947
F1
sVcharge
p948
F2
sVtush
p949
F1
sVface
p950
F2
sVoff.
p951
F1
sVgentlewoma.
p952
F1
sVfarre,
p953
F1
sVdisobey.
p954
F1
sVexalted
p955
F1
sVone,
p956
F1
sVaduenture
p957
F1
sVdowrie.
p958
F1
sVkeeping
p959
F2
sVharme.
p960
F1
sVequalitie,
p961
F2
sVchauge
p962
F1
sVfrenchmen.
p963
F1
sVredinesse,
p964
F1
sVwordes,
p965
F1
sVmarried,
p966
F1
sVmarried.
p967
F1
sVdeiotarus,
p968
F1
sVwyues
p969
F4
sVbanished
p970
F2
sVpresented
p971
F2
sVdid
p972
F16
sVdie
p973
F4
sVdetermination.
p974
F1
sVdeserued
p975
F1
sVhartily
p976
F1
sVpresentes
p977
F1
sVwheron
p978
F1
sVtheyr
p979
F1
sVdisorder,
p980
F1
sVpraise,
p981
F1
sVmo
p982
F1
sVwaye,
p983
F1
sVelse,
p984
F1
sVdrinke
p985
F4
sVsakes.
p986
F1
sVvnaduised
p987
F1
sVsakes,
p988
F1
sVwherefore
p989
F5
sVappetite,
p990
F1
sVdeceyued
p991
F1
sVmenander
p992
F1
sVgraunted,
p993
F1
sVhousband
p994
F2
sVrepeated,
p995
F1
sVwyfe.
p996
F3
sVabroade:
p997
F1
sVdeere,
p998
F1
sVouergrowe
p999
F1
sVcurst
p1000
F1
sVstande
p1001
F1
sVdiscouraged,
p1002
F1
sVgouerned,
p1003
F1
sVabroade.
p1004
F1
sVground
p1005
F2
sVdrewe
p1006
F1
sVtiberius
p1007
F2
sVsawe,
p1008
F1
sVsoothsayers
p1009
F1
sVhonour
p1010
F1
sVtalke,
p1011
F3
sVthinke,
p1012
F1
sVthinke.
p1013
F1
sVredresse
p1014
F1
sVperswaded
p1015
F2
sVnothing,
p1016
F1
sValone
p1017
F2
sVplantes
p1018
F1
sV[
F111
sVsay,
p1019
F5
sVpresumption.
p1020
F1
sVcrustes,
p1021
F1
sVconsisteth
p1022
F1
sVcursing,
p1023
F2
sVdailye
p1024
F1
sVmale
p1025
F2
sVboast
p1026
F1
sVbewayled
p1027
F2
sVgoe,
p1028
F1
sVstudied
p1029
F1
sVcommonly
p1030
F3
sVwyllingly
p1031
F2
sVgodlye,
p1032
F1
sVhere.
p1033
F1
sVperceyuing
p1034
F1
sVabounded
p1035
F1
sVrichest,
p1036
F1
sVsawe
p1037
F1
sVcausers
p1038
F1
sVtiraunt
p1039
F1
sVcase,
p1040
F4
sVkinsman
p1041
F1
sVprouoketh
p1042
F1
sVfor,
p1043
F1
sVvice,
p1044
F1
sVnero
p1045
F2
sVdiuine,
p1046
F1
sVlacedemonians,
p1047
F1
sVrarely
p1048
F1
sVisles
p1049
F2
sVeuill,
p1050
F2
sVsuffise.
p1051
F1
sVhoure,
p1052
F1
sVcherisher
p1053
F1
sVdetermyneth
p1054
F1
sVhignesse
p1055
F1
sVchristmas:
p1056
F1
sVtrusted.
p1057
F1
sVtrusted,
p1058
F1
sVwyt,
p1059
F1
sVdissemble,
p1060
F2
sVbrawlings,
p1061
F1
sVriotousnesse
p1062
F1
sVbabilonians
p1063
F1
sVsayth
p1064
F2
sVresigne
p1065
F1
sVedmunde
p1066
F1
sVantonius,
p1067
F1
sVwicked
p1068
F1
sVpedro.
p1069
F5
sVpeere.
p1070
F1
sVentrance
p1071
F1
sVlaught
p1072
F1
sVthratians.
p1073
F1
sVphilippes
p1074
F1
sVassent
p1075
F1
sVrayes,
p1076
F1
sVconsumeth
p1077
F1
sVgentlemen,
p1078
F3
sVcleopatra,
p1079
F1
sVblowes.
p1080
F1
sVthree,
p1081
F2
sVignorant
p1082
F2
sVdrowned.
p1083
F1
sVsporte,
p1084
F3
sVblood,
p1085
F1
sVtogither,
p1086
F3
sVshooting,
p1087
F1
sVand,
p1088
F3
sVamongest
p1089
F2
sVdeformed
p1090
F2
sVcan
p1091
F19
sVmaking
p1092
F1
sVrecordeth,
p1093
F1
sVneere
p1094
F3
sVstoode
p1095
F2
sVsaith
p1096
F2
sVattribute
p1097
F1
sVmusitions,
p1098
F1
sVaduance
p1099
F1
sVheare
p1100
F6
sVheard
p1101
F3
sVeasinesse,
p1102
F1
sVlockt
p1103
F1
sVlorde
p1104
F4
sVwylling
p1105
F1
sVperchaunce
p1106
F1
sVinheritance
p1107
F1
sVspeake
p1108
F6
sV1
F2
sVtill
p1109
F6
sVgreeued
p1110
F1
sVcommaundement.
p1111
F1
sVs.
p1112
F1
sVpure
p1113
F1
sVconseruing
p1114
F1
sVdreameth
p1115
F1
sVabsolute
p1116
F1
sVspreade
p1117
F1
sVtherby
p1118
F1
sVuine
p1119
F1
sVinforme
p1120
F1
sVmay
p1121
F7
sVhym,
p1122
F2
sVrites
p1123
F2
sVfortune.
p1124
F1
sVstable,
p1125
F1
sVmad
p1126
F1
sVsuch
p1127
F31
sVstoute
p1128
F1
sVyll
p1129
F3
sVfruite,
p1130
F1
sVman
p1131
F60
sVfulgosa.
p1132
F1
sVvtterance.
p1133
F1
sVmaydens,
p1134
F1
sVgarlande
p1135
F2
sVtale
p1136
F1
sVcraft,
p1137
F1
sVladyes
p1138
F2
sVconuersation,
p1139
F4
sVso
p1140
F89
sVfoule
p1141
F1
sVincrease
p1142
F2
sVperfection
p1143
F1
sVmatrones,
p1144
F2
sVwealth,
p1145
F1
sVsonnes
p1146
F1
sVslaine,
p1147
F2
sVwishing
p1148
F1
sVenlarge
p1149
F1
sVsoone,
p1150
F1
sVcourse
p1151
F1
sVsorte.
p1152
F1
sVthemistocles
p1153
F1
sVneuer,
p1154
F1
sVshake
p1155
F1
sVsampsons
p1156
F1
sVstill
p1157
F4
sVpointes
p1158
F1
sVvertues
p1159
F5
sVhonesty,
p1160
F1
sVgrapes,
p1161
F1
sVchiefest
p1162
F8
sVhazardeth
p1163
F1
sVkeping
p1164
F2
sVprosper,
p1165
F2
sVraigneth
p1166
F1
sVhusbandes,
p1167
F8
sVoure
p1168
F13
sVfruites,
p1169
F1
sVscrapte
p1170
F1
sVsoone
p1171
F4
sVwisely,
p1172
F1
sVconquest
p1173
F1
sVdoores,
p1174
F1
sVgenerallye
p1175
F1
sVtruest
p1176
F1
sVpleasaunt
p1177
F9
sVthereby
p1178
F3
sV3
F1
sVobedience.
p1179
F2
sVnoe
p1180
F4
sVmaner.
p1181
F1
sVprisons,
p1182
F1
sVsortes
p1183
F1
sVcruell
p1184
F3
sVtouching
p1185
F4
sVcompelled
p1186
F1
sVnot
p1187
F118
sVseauen
p1188
F2
sVnow
p1189
F5
sVgarnishings
p1190
F1
sVkilled
p1191
F1
sVnor
p1192
F11
sVmatched
p1193
F4
sVlouingly
p1194
F3
sVimprisoned,
p1195
F1
sVname
p1196
F4
sVvnburdened
p1197
F1
sVieolous.
p1198
F1
sVdispite
p1199
F1
sVincreaseth
p1200
F3
sVmarueyled
p1201
F1
sVeache
p1202
F1
sVreprehending
p1203
F1
sVvexation
p1204
F1
sVgrieuous
p1205
F1
sVvertue,
p1206
F4
sVromaine,
p1207
F1
sVbeautie,
p1208
F1
sVmarried
p1209
F25
sVperceiue
p1210
F1
sVraygne
p1211
F1
sVbeside,
p1212
F1
sVcares,
p1213
F1
sVranne
p1214
F1
sVtherefore,
p1215
F2
sVcoulde,
p1216
F1
sVperdition.
p1217
F1
sVshewe
p1218
F6
sVlandes,
p1219
F1
sVcountenaunce.
p1220
F1
sVcondemne
p1221
F3
sVshowe
p1222
F1
sVbounde
p1223
F3
sVantiquitie
p1224
F1
sVabide
p1225
F1
sVlooking
p1226
F3
sVepistle
p1227
F1
sValleage
p1228
F1
sVgrecian
p1229
F1
sVtrustie
p1230
F1
sVheartes,
p1231
F1
sVmacedon
p1232
F1
sVgreeke
p1233
F1
sVcontinuance,
p1234
F1
sVyea,
p1235
F4
sVpeace:
p1236
F1
sVadmetes,
p1237
F1
sVbesides
p1238
F3
sVwiues,
p1239
F1
sVsodaine
p1240
F2
sVsoyle,
p1241
F2
sVsoyle.
p1242
F1
sVcare
p1243
F3
sVimportance,
p1244
F1
sVsquare,
p1245
F1
sVycanus,
p1246
F1
sVprayeth
p1247
F1
sVperfection:
p1248
F1
sVcontented
p1249
F3
sVcoulde
p1250
F7
sVhonest
p1251
F7
sVthing
p1252
F14
sVcerteyne
p1253
F1
sVplace
p1254
F7
sVmarying.
p1255
F1
sVwaxe
p1256
F1
sVpleaseth
p1257
F1
sVfirst
p1258
F28
sVmorrowe
p1259
F2
sVhurtfull
p1260
F1
sVgentlye
p1261
F1
sVflower,
p1262
F8
sVmuche
p1263
F3
sVflower.
p1264
F4
sVschooles.
p1265
F1
sVremayneth
p1266
F2
sVone
p1267
F26
sVfoole,
p1268
F2
sVflower:
p1269
F1
sVabrode
p1270
F3
sVchide
p1271
F1
sVymportunities
p1272
F1
sVgiueth
p1273
F3
sVrome
p1274
F1
sVcity
p1275
F1
sVlittle
p1276
F8
sVreturne
p1277
F1
sVsilent
p1278
F1
sVfruitelesse
p1279
F1
sVlewde
p1280
F1
sVmainteine
p1281
F1
sVbound,
p1282
F1
sVdeale
p1283
F1
sV2
F1
sVgoddesse.
p1284
F1
sVframe
p1285
F1
sVfriend
p1286
F1
sVcirce
p1287
F1
sVeyes
p1288
F1
sVlabors
p1289
F1
sVsound,
p1290
F1
sVthat
p1291
F257
sVseason
p1292
F1
sVmuch,
p1293
F2
sVsente
p1294
F1
sVcheered,
p1295
F1
sVremembring
p1296
F1
sVtaketh
p1297
F3
sVthan
p1298
F46
sVlouingly,
p1299
F1
sVbraine
p1300
F1
sVredoubted
p1301
F1
sVachaia.
p1302
F1
sVelected
p1303
F1
sVcommende
p1304
F1
sVsaye,
p1305
F5
sVtherein,
p1306
F3
sVtherein.
p1307
F1
sVwere
p1308
F60
sVsaye?
p1309
F1
sVbooteh
p1310
F1
sVshee,
p1311
F5
sVmalincholy
p1312
F1
sVand
p1313
F428
sVtroublesome
p1314
F1
sVcomming
p1315
F1
sVslay
p1316
F1
sVbabling,
p1317
F1
sVintreaties,
p1318
F1
sVturned
p1319
F1
sVsolon
p1320
F2
sVvnicorne,
p1321
F1
sVsay
p1322
F5
sVblabbeth
p1323
F1
sVburied
p1324
F2
sVoccupied
p1325
F1
sVany
p1326
F12
sVsat
p1327
F1
sVlaw,
p1328
F3
sVfantasticall
p1329
F1
sVvppon
p1330
F2
sVlamented,
p1331
F1
sVwasters
p1332
F1
sVchoyse
p1333
F1
sVnote
p1334
F1
sVtake
p1335
F9
sVaffirme,
p1336
F1
sVfill,
p1337
F1
sVwanting
p1338
F1
sVsoeuer
p1339
F2
sVfoureteene,
p1340
F1
sVflattered
p1341
F1
sVsure
p1342
F3
sVsought,
p1343
F1
sVcountenance.
p1344
F2
sVmate,
p1345
F2
sVmate.
p1346
F1
sVobtayned,
p1347
F1
sVentertainement
p1348
F1
sVheare,
p1349
F1
sVpleasure
p1350
F3
sVfurniture,
p1351
F1
sVmate:
p1352
F1
sVspente
p1353
F1
sV]
F111
sVbrutus
p1354
F1
sVinuenter
p1355
F2
sVvaynes,
p1356
F1
sVmerilye
p1357
F1
sVstrength,
p1358
F3
sVespecially
p1359
F1
sVdiscription
p1360
F1
sVconsidered
p1361
F3
sVlawe
p1362
F5
sVwreathed
p1363
F1
sVlater
p1364
F1
sVscience,
p1365
F1
sVlaunce,
p1366
F1
sVwhy,
p1367
F2
sVdefended.
p1368
F1
sVinuented
p1369
F1
sVliue
p1370
F2
sVnot,
p1371
F8
sVvicious,
p1372
F1
sVnot.
p1373
F5
sVouergrow
p1374
F1
sVprisoner,
p1375
F1
sVpleasaunt,
p1376
F2
sVpleasaunt.
p1377
F1
sVbitter,
p1378
F1
sVhonour,
p1379
F1
sVmarshalled
p1380
F1
sVtimothe.
p1381
F1
sVtimothe,
p1382
F1
sVsame,
p1383
F1
sVquietnesse
p1384
F1
sVinstruction.
p1385
F1
sVarbour,
p1386
F2
sVydle,
p1387
F1
sVvalerius
p1388
F1
sVsecretly,
p1389
F1
sVmerie
p1390
F3
sVvpon
p1391
F10
sVslaues,
p1392
F1
sVdisplease
p1393
F1
sVmoneth
p1394
F1
sVieolous
p1395
F3
sVonly
p1396
F3
sVgoing
p1397
F2
sVperfite,
p1398
F1
sVdissembling
p1399
F2
sVperfite.
p1400
F1
sVdebating
p1401
F1
sVfroward
p1402
F1
sVcancred
p1403
F1
sVget
p1404
F3
sVbawdes.
p1405
F1
sVhangings,
p1406
F1
sVspace,
p1407
F1
sVreputation,
p1408
F2
sVwhiles
p1409
F1
sVconuersation.
p1410
F1
sVcannot
p1411
F7
sVprocreation
p1412
F2
sVreclaymed
p1413
F1
sVdyd
p1414
F3
sVfift,
p1415
F1
sVprime
p1416
F1
sVpriest
p1417
F2
sVman.
p1418
F4
sVwhere
p1419
F22
sVhusband
p1420
F11
sVsalomon
p1421
F3
sVdeclared
p1422
F1
sVfriende,
p1423
F2
sVgreate
p1424
F2
sVdiodorus
p1425
F1
sVouer
p1426
F6
sVlyfe
p1427
F4
sVhorse
p1428
F1
sVdeclares
p1429
F1
sVbynde
p1430
F1
sVsawcie
p1431
F1
sVinsoluble
p1432
F1
sVpurest
p1433
F1
sVcarefull
p1434
F6
sVdaungerous,
p1435
F1
sVdriueth
p1436
F1
sVwhome,
p1437
F1
sVconuert
p1438
F1
sVsigne
p1439
F3
sVladie
p1440
F19
sVman,
p1441
F19
sVforsake
p1442
F2
sVhateth,
p1443
F1
sVmouthes
p1444
F1
sVmeates,
p1445
F1
sVgarde
p1446
F1
sVmimian
p1447
F1
sVdoing,
p1448
F3
sVdoing.
p1449
F1
sVblame
p1450
F3
sVable,
p1451
F1
sVwelbeloued
p1452
F3
sVsea,
p1453
F2
sVwhereof,
p1454
F2
sVcome
p1455
F5
sVhonest,
p1456
F1
sVmans
p1457
F8
sVvices,
p1458
F1
sVthemselues,
p1459
F2
sVtractable
p1460
F1
sVhis,
p1461
F1
sVmany
p1462
F11
sVcreture,
p1463
F1
sVaduoyded
p1464
F1
sVaccording
p1465
F4
sVcolour,
p1466
F1
sVrouers,
p1467
F1
sVheade,
p1468
F2
sVeuerie
p1469
F2
sVindangered
p1470
F1
sVheretofore
p1471
F1
sVweedes.
p1472
F1
sVsuspect,
p1473
F3
sVamong
p1474
F3
sVpastimes
p1475
F2
sVafterwards
p1476
F1
sVpratling
p1477
F1
sVauncient
p1478
F6
sVallies,
p1479
F1
sVmisdoing,
p1480
F1
sVpartakers,
p1481
F1
sVconsidering
p1482
F1
sVpeople.
p1483
F1
sVvsed
p1484
F4
sVmetamorphosis,
p1485
F1
sVsufferable
p1486
F3
sVisabell,
p1487
F1
sVdiscotent,
p1488
F1
sVfierce,
p1489
F1
sViob,
p1490
F1
sVpractised
p1491
F1
sVmayster,
p1492
F1
sVwilled
p1493
F2
sVvnderstanding
p1494
F4
sVhardly
p1495
F1
sVmary
p1496
F1
sVassemblie,
p1497
F1
sVamity,
p1498
F1
sVconsider,
p1499
F3
sVdisclosing
p1500
F1
sVaffirmed.
p1501
F1
sVoffered
p1502
F1
sVgracchus
p1503
F1
sVgamester,
p1504
F1
sVthemselues.
p1505
F1
sVmaintaine,
p1506
F1
sVvoluntarie
p1507
F1
sVfoure
p1508
F4
sVpastime,
p1509
F1
sVthose
p1510
F16
sVpastime.
p1511
F2
sVpaying
p1512
F2
sVpreseruation
p1513
F2
sVpreuenting
p1514
F1
sVthese
p1515
F20
sVgouernement,
p1516
F1
sVvnlearned
p1517
F1
sV1568\u005c.
p1518
F1
sVthankefull
p1519
F1
sVpromising
p1520
F1
sVhys,
p1521
F1
sVlife.
p1522
F2
sVfayrest,
p1523
F1
sVpanthea,
p1524
F1
sVpanthea.
p1525
F1
sVtyme,
p1526
F2
sVtyme.
p1527
F1
sVfinis.
p1528
F1
sVreiect
p1529
F1
sVdeuided,
p1530
F1
sVhalowed,
p1531
F1
sVquiet
p1532
F2
sValleaged
p1533
F1
sVembrace
p1534
F1
sVsupper.
p1535
F1
sVbeene
p1536
F10
sVscorne.
p1537
F1
sVastonied,
p1538
F1
sVauthor
p1539
F2
sVinquire
p1540
F1
sVpay
p1541
F1
sVestemed
p1542
F1
sVseeking
p1543
F1
sVsayd,
p1544
F3
sVpitachus
p1545
F2
sVsame
p1546
F9
sVdiscretion,
p1547
F1
sVbraunches
p1548
F2
sVserueth,
p1549
F1
sVcharge.
p1550
F1
sVdiscouer
p1551
F1
sVcharge,
p1552
F4
sVworlde,
p1553
F1
sVworlde.
p1554
F1
sVtorments,
p1555
F1
sVmalice,
p1556
F1
sVdeerest
p1557
F1
sVnoble
p1558
F8
sVcheere
p1559
F1
sVpangues
p1560
F1
sVthrewe
p1561
F1
sVstripes,
p1562
F1
sVpersons
p1563
F3
sVdoctors,
p1564
F1
sVdelicate
p1565
F4
sVyeelde
p1566
F1
sVcircumspect.
p1567
F1
sVapparell
p1568
F2
sVcircumspect,
p1569
F1
sVinfamie,
p1570
F2
sVhuswifery,
p1571
F1
sVtymes
p1572
F1
sVestimation
p1573
F1
sVsayde
p1574
F4
sVlargely
p1575
F1
sVdelectable
p1576
F1
sVacquaintance,
p1577
F2
sVdaintilye
p1578
F1
sVbeasts,
p1579
F1
sVwithout
p1580
F12
sVeares.
p1581
F2
sVeares,
p1582
F2
sVshut,
p1583
F2
sVbodies
p1584
F1
sVtilney.
p1585
F1
sVbeing
p1586
F46
sVmoney
p1587
F4
sVrest
p1588
F4
sVwhereat
p1589
F2
sVenformed
p1590
F1
sVarbor,
p1591
F1
sVcontayneth
p1592
F1
sVkill
p1593
F1
sVsnowie
p1594
F1
sVfounde
p1595
F5
sVtouch
p1596
F1
sVbed,
p1597
F4
sVmariages,
p1598
F1
sVwifes
p1599
F1
sVmalicious,
p1600
F1
sVdeath
p1601
F3
sVcounsaile
p1602
F1
sVgrounded
p1603
F1
sVwomans
p1604
F4
sVrose
p1605
F1
sVpossible,
p1606
F1
sViudge
p1607
F1
sVdepriued
p1608
F2
sVinterlarde
p1609
F1
sVhastilye,
p1610
F1
sVastraye,
p1611
F1
sVyeres.
p1612
F1
sV4
F1
sVadam.
p1613
F1
sVseeme
p1614
F1
sVguestes
p1615
F1
sVbones,
p1616
F1
sVonelye
p1617
F6
sVwife.
p1618
F7
sVprowde
p1619
F2
sVtoyle
p1620
F1
sVcertaine
p1621
F10
sVinforce
p1622
F1
sVforwarde,
p1623
F1
sVbathed
p1624
F1
sVsause
p1625
F1
sVneuer
p1626
F10
sVvnderstand
p1627
F1
sVsight,
p1628
F1
sVsorte,
p1629
F1
sVworld
p1630
F1
sVexecution
p1631
F1
sVlady
p1632
F27
sVseruants,
p1633
F1
sVfurniture
p1634
F1
sVfelicitie.
p1635
F1
sVsuffer,
p1636
F2
sVcato.
p1637
F1
sVpaintings,
p1638
F1
sVmayde
p1639
F1
sVeither
p1640
F1
sVbewitched
p1641
F1
sVoccasions
p1642
F1
sVwoman,
p1643
F19
sVwisdome
p1644
F1
sVwoman.
p1645
F4
sVtooke
p1646
F8
sVcommaundement
p1647
F1
sVmaruaile,
p1648
F1
sVdaylie
p1649
F3
sVall,
p1650
F12
sVdice,
p1651
F1
sVthinke
p1652
F4
sVcredit,
p1653
F1
sVseruantes
p1654
F1
sVrespect
p1655
F2
sVcaytife.
p1656
F1
sVpeace,
p1657
F1
sVthemselues
p1658
F6
sVconuayde
p1659
F1
sVdelyuered,
p1660
F1
sVobey.
p1661
F1
sVobey,
p1662
F1
sVsauage
p1663
F1
sVcorrection,
p1664
F2
sVperaduenture
p1665
F1
sVioyfull,
p1666
F1
sVfarre
p1667
F8
sVsuche
p1668
F13
sVleaue
p1669
F6
sVlibertye.
p1670
F1
sVpleasantnesse,
p1671
F2
sVassembly
p1672
F1
sVcaesar.
p1673
F1
sVimage,
p1674
F1
sVtogither
p1675
F1
sVseing
p1676
F4
sVnotable
p1677
F3
sVmarueylous
p1678
F1
sVsubiection
p1679
F1
sVroyall
p1680
F1
sVteares
p1681
F2
sVdestroye
p1682
F1
sVrigorous
p1683
F2
sVseconde
p1684
F5
sVfrowardly
p1685
F1
sVon
p1686
F15
sVshrewdnesse.
p1687
F1
sVfree?
p1688
F1
sVof
p1689
F431
sVcountenance,
p1690
F1
sVslender
p1691
F1
sVnecessaries,
p1692
F3
sVplinie,
p1693
F1
sVgreatly
p1694
F3
sVfree,
p1695
F1
sVwithout,
p1696
F1
sVpayned,
p1697
F1
sVout,
p1698
F2
sVor
p1699
F47
sVdronken,
p1700
F1
sVcontrariwise
p1701
F1
sVladies
p1702
F7
sVoccasions.
p1703
F1
sVeyther
p1704
F11
sVoccasions,
p1705
F2
sVphilosopher.
p1706
F1
sVplutarch.
p1707
F1
sVphilosopher,
p1708
F1
sViulia
p1709
F15
sVparties
p1710
F1
sVmariage
p1711
F2
sVvnto
p1712
F24
sVmorning,
p1713
F2
sVyour
p1714
F22
sVyeares,
p1715
F4
sVprepare
p1716
F1
sVsatisfied.
p1717
F1
sVhir.
p1718
F7
sVeuen
p1719
F5
sVbrute
p1720
F1
sVhaste,
p1721
F1
sVcato
p1722
F1
sVhee
p1723
F17
sVoccasioned,
p1724
F1
sVlot
p1725
F1
sVeuer
p1726
F8
sVmatrimonie
p1727
F3
sValoisa,
p1728
F9
sVmatrimoniall
p1729
F5
sVhir:
p1730
F1
sVphilosophers,
p1731
F3
sVyou.
p1732
F2
sVdeparted,
p1733
F1
sVyou,
p1734
F9
sVhouse.
p1735
F6
sVvertuous
p1736
F4
sVamongst
p1737
F8
sVphilosophers
p1738
F3
sVwherto
p1739
F1
sVcuriously
p1740
F1
sVhath.
p1741
F1
sVignoraunce
p1742
F1
sVwoorse.
p1743
F1
sVanother,
p1744
F1
sVhande.
p1745
F2
sVwith
p1746
F98
sVladie,
p1747
F1
sVdaungers
p1748
F1
sVdowne,
p1749
F1
sVhouswyfes.
p1750
F1
sVshrewes
p1751
F1
sVreiecting
p1752
F1
sVhome.
p1753
F2
sVare,
p1754
F1
sVvice
p1755
F1
sVlo.
p1756
F1
sVyonger,
p1757
F1
sVextreemelye,
p1758
F1
sVtaught
p1759
F1
sVhe,
p1760
F11
sVapollo,
p1761
F1
sVagree
p1762
F1
sVgone
p1763
F4
sVtarry.
p1764
F1
sVindeuor
p1765
F2
sVdescribe
p1766
F2
sVam
p1767
F2
sVgone.
p1768
F1
sVan
p1769
F21
sVas
p1770
F133
sVsenses
p1771
F2
sVat
p1772
F49
sVspeeche.
p1773
F2
sVconspiracie,
p1774
F1
sVqualities,
p1775
F2
sVdooing
p1776
F1
sVtedious
p1777
F3
sVresistance.
p1778
F1
sVsometyme
p1779
F2
sVdenyed
p1780
F1
sVhonestly,
p1781
F1
sVment,
p1782
F1
sVweeded
p1783
F1
sVdeceyue
p1784
F1
sVroses
p1785
F1
sV5
F1
sVweedes
p1786
F2
sVyou
p1787
F60
sVsometymes
p1788
F1
sVprospereth
p1789
F1
sVthousand
p1790
F1
sVbriefly
p1791
F1
sVherbe
p1792
F3
sVtarrye
p1793
F1
sVordayned
p1794
F1
sVdishonour
p1795
F1
sVspouse
p1796
F2
sVcounsaile,
p1797
F2
sVcounsaile.
p1798
F1
sVhuske
p1799
F1
sVwife
p1800
F12
sVauthoritie
p1801
F2
sVmaruellous
p1802
F1
sVfinished
p1803
F1
sVlouing
p1804
F6
sVadam
p1805
F2
sVdoubted
p1806
F2
sVonce
p1807
F6
sVreceyued?
p1808
F1
sVwoma,
p1809
F1
sVall
p1810
F67
sVuirgins,
p1811
F1
sVshortlye
p1812
F1
sVconsider
p1813
F1
sVfounder
p1814
F1
sVvppe
p1815
F1
sVbeware
p1816
F2
sVchauced,
p1817
F1
sVmaiestie,
p1818
F1
sVreturne,
p1819
F1
sVtalke
p1820
F1
sVaunswering
p1821
F1
sVgraues,
p1822
F1
sVwitte,
p1823
F2
sVreceyued,
p1824
F1
sVbosome
p1825
F1
sVmayster
p1826
F17
sVminde,
p1827
F4
sVcontent
p1828
F5
sVhunting
p1829
F1
sVrule,
p1830
F2
sVlanguaged,
p1831
F1
sVtrauaile.
p1832
F1
sVto
p1833
F434
sVreuiue
p1834
F1
sVdressing
p1835
F1
sVmother,
p1836
F2
sVequalities
p1837
F2
sVis.
p1838
F1
sVapeere
p1839
F1
sVcase
p1840
F2
sVtrim
p1841
F1
sVwoman
p1842
F45
sVwynne,
p1843
F2
sVvery
p1844
F3
sVcome,
p1845
F1
sVenioying
p1846
F1
sVantoninus
p1847
F2
sVmaiesties
p1848
F3
sVabrode,
p1849
F2
sVminded
p1850
F1
sVfall
p1851
F3
sVbeloued,
p1852
F1
sVchildre,
p1853
F1
sVmothers
p1854
F1
sVwrethed
p1855
F1
sVshould,
p1856
F1
sVstoike
p1857
F1
sVfoulenesse.
p1858
F1
sVhym
p1859
F3
sVafeard
p1860
F1
sVhumblye
p1861
F1
sVhys
p1862
F26
sVcosidering
p1863
F1
sVsmall
p1864
F5
sVtender
p1865
F1
sVnoblest.
p1866
F1
sVopen
p1867
F2
sVexpectations,
p1868
F1
sVweathers.
p1869
F1
sVpast
p1870
F2
sVquiet,
p1871
F1
sVconuersatio
p1872
F1
sVchaunge
p1873
F1
sVabroad
p1874
F1
sVlying,
p1875
F1
sVcherisheth,
p1876
F1
sVreturned
p1877
F2
sVbeweene
p1878
F1
sVwhat
p1879
F47
sVnecessary.
p1880
F1
sVaffections,
p1881
F1
sVaboundantly.
p1882
F1
sVhim.
p1883
F5
sVmuste
p1884
F3
sVhim,
p1885
F11
sVwome
p1886
F2
sVfaunus
p1887
F1
sVlearned
p1888
F5
sVwoma
p1889
F4
sVfyre,
p1890
F1
sVgualter
p1891
F2
sVquenched
p1892
F1
sVcreature.
p1893
F1
sVchristian
p1894
F2
sVpractised:
p1895
F1
sVhusbande.
p1896
F2
sVhusbande,
p1897
F12
sVoutwarde
p1898
F1
sVdischarge
p1899
F1
sVshoulde
p1900
F17
sVnumidians.
p1901
F1
sVdronkennesse,
p1902
F4
sVinhumaine,
p1903
F1
sVdarius
p1904
F1
sVdeuill
p1905
F1
sVheades,
p1906
F1
sVpartaker
p1907
F1
sVbanished.
p1908
F1
sVexperience
p1909
F1
sVthereof.
p1910
F2
sVcreepe
p1911
F1
sVwent,
p1912
F1
sVhaue.
p1913
F1
sVpublished
p1914
F1
sVmust,
p1915
F2
sVallowe
p1916
F1
sVmariage.
p1917
F3
sVmariage,
p1918
F1
sVbycause
p1919
F2
sVbenches,
p1920
F1
sVforasmuch
p1921
F1
sVfamily
p1922
F1
sVreclaimed
p1923
F1
sVfather
p1924
F7
sVhereby,
p1925
F1
sVintirely
p1926
F1
sVchydeth,
p1927
F1
sVbrowne.
p1928
F1
sVwoe,
p1929
F1
sVsubstance,
p1930
F4
sViulia,
p1931
F19
sVneere,
p1932
F1
sVbeames,
p1933
F2
sVerasmus,
p1934
F1
sVthinges
p1935
F3
sVlady,
p1936
F1
sVwanted
p1937
F2
sVthereby,
p1938
F3
sVtwo
p1939
F10
sVgentlenesse.
p1940
F1
sVflowers,
p1941
F3
sVresident
p1942
F2
sVabroade
p1943
F1
sVshrewe,
p1944
F1
sValicarnasseus,
p1945
F1
sVdissent
p1946
F1
sVtaken
p1947
F9
sVoffende,
p1948
F1
sVfaine
p1949
F1
sVmore
p1950
F39
sVsheweth
p1951
F3
sVdeuill,
p1952
F1
sViulias
p1953
F1
sVsad,
p1954
F1
sVcompany
p1955
F1
sVcorrected
p1956
F1
sVsuperiour,
p1957
F1
sVfonde
p1958
F1
sVexcuse
p1959
F1
sVknowe
p1960
F2
sVperson,
p1961
F1
sVreiected?
p1962
F1
sVglad
p1963
F1
sVcunning
p1964
F1
sVnone
p1965
F3
sVangrie,
p1966
F2
sVplaintes
p1967
F1
sVdoolefull
p1968
F1
sVbrawling,
p1969
F2
sVladye
p1970
F10
sVspeake,
p1971
F3
sVtherebye
p1972
F1
sVtollerable.
p1973
F1
sVstande,
p1974
F1
sVwherfore
p1975
F3
sVlawes,
p1976
F1
sVhorses,
p1977
F1
sVholdeth
p1978
F1
sVlyketh,
p1979
F1
sVdiscribe
p1980
F1
sVyonger.
p1981
F1
sVvonchsafed
p1982
F1
sVsufferable,
p1983
F1
sVmeaner
p1984
F1
sVmeanes
p1985
F2
sVwyt.
p1986
F1
sVintende,
p1987
F1
sVaccept
p1988
F1
sVharted,
p1989
F1
sVdrest
p1990
F1
sVslaunderous
p1991
F1
sVpresently
p1992
F1
sVterrestrial
p1993
F1
sVagaine,
p1994
F2
sVflax,
p1995
F1
sVmoue
p1996
F1
sVcrueltie.
p1997
F1
sVrather
p1998
F8
sVprofite,
p1999
F2
sVcourtise
p2000
F1
sVmaintayne
p2001
F1
sVbattayle,
p2002
F1
sVsignified,
p2003
F1
sVfoote,
p2004
F2
sVcreature
p2005
F2
sVplant
p2006
F2
sVwylde
p2007
F1
sVtried
p2008
F1
sVwyth
p2009
F14
sVmeane.
p2010
F1
sVmeane,
p2011
F1
sVconsenting
p2012
F1
sVmedea
p2013
F1
sVsurer,
p2014
F1
sVa
F212
sVconfirmed,
p2015
F1
sVredressed,
p2016
F1
sVforesee,
p2017
F1
sVcounsell.
p2018
F1
sVsouereignetie,
p2019
F1
sVforesaide
p2020
F1
sVtriara.
p2021
F1
sVtriara,
p2022
F1
sVamitie
p2023
F3
sVeate
p2024
F2
sVplaying
p2025
F1
sVmarkets,
p2026
F1
sVwould.
p2027
F1
sVadorned
p2028
F2
sVwould,
p2029
F1
sVinferiour,
p2030
F2
sVclemencie
p2031
F1
sVwherfore,
p2032
F2
sVroote
p2033
F4
sVgraunt
p2034
F2
sVnightes
p2035
F2
sVlacedemonian
p2036
F1
sVvnsauerie,
p2037
F1
sVposteritie,
p2038
F1
sVworthie,
p2039
F1
sVcommitted
p2040
F1
sVsuffer
p2041
F4
sVvtterlye.
p2042
F1
sVdronkennesse
p2043
F1
sVdyd,
p2044
F2
sVpray
p2045
F6
sVinward
p2046
F1
sVdeuise,
p2047
F1
sVlate
p2048
F1
sVtruth,
p2049
F4
sVcustomes,
p2050
F1
sVdiogenes:
p2051
F1
sVdeede
p2052
F1
sVmight
p2053
F16
sVtempestuous
p2054
F1
sVit.
p2055
F5
sVweede
p2056
F3
sVit,
p2057
F14
sVgood
p2058
F38
sVlittle.
p2059
F1
sVlittle,
p2060
F2
sVwoulde
p2061
F18
sVye
p2062
F32
sVchaldeans,
p2063
F1
sVchaldeans.
p2064
F1
sVymagining
p2065
F1
sVbetrayed,
p2066
F1
sVdowrye,
p2067
F1
sVidols
p2068
F1
sVarbor.
p2069
F2
sVsoueraignetie,
p2070
F1
sVyt
p2071
F7
sVgreat,
p2072
F1
sVmarcus
p2073
F1
sVdeuised
p2074
F3
sVsixtene
p2075
F2
sVfaire
p2076
F2
sVall.
p2077
F2
sVtaried
p2078
F1
sVdeserue
p2079
F2
sVeglantyne,
p2080
F1
sVsawces
p2081
F1
sVstopped
p2082
F1
sVdeuises
p2083
F1
sValso,
p2084
F6
sVfriendship
p2085
F8
sVbetweene
p2086
F6
sVfilona
p2087
F1
sVlaugheth
p2088
F1
sVpirates
p2089
F2
sVseldome,
p2090
F2
sVdenham,
p2091
F1
sVhouse
p2092
F4
sVhare
p2093
F1
sVhard
p2094
F2
sVreames,
p2095
F1
sVhouse,
p2096
F13
sVporcia.
p2097
F1
sVporcia,
p2098
F1
sVdoings,
p2099
F1
sVchastitie
p2100
F1
sVhart
p2101
F3
sVinquired
p2102
F1
sVflower
p2103
F21
sVgracchus.
p2104
F1
sVbibber
p2105
F1
sVoportunitie
p2106
F1
sVsicke,
p2107
F2
sVdeare
p2108
F1
sVleaue,
p2109
F1
sV7
F1
sVincrease.
p2110
F1
sVconquerours
p2111
F1
sVdisobedience
p2112
F4
sVsuperfluous.
p2113
F1
sVgamester
p2114
F1
sVhunter,
p2115
F1
sVdiffer
p2116
F1
sVnourisheth
p2117
F1
sVpleasant
p2118
F3
sVworthye
p2119
F2
sVreason
p2120
F4
sVbase
p2121
F1
sVconferre
p2122
F1
sVpraise.
p2123
F1
sVput
p2124
F10
sVteach
p2125
F1
sVbeginning
p2126
F1
sVpassingly,
p2127
F1
sVvnsauerye
p2128
F1
sVbeleue
p2129
F1
sVsauour
p2130
F1
sVeare
p2131
F1
sVthoughts,
p2132
F1
sVtrust,
p2133
F1
sVcheering
p2134
F1
sVagaine.
p2135
F4
sVdiffamed
p2136
F1
sVtelleth
p2137
F2
sVfayre
p2138
F3
sVpawse
p2139
F1
sVflowe.
p2140
F1
sVsayde.
p2141
F1
sVshrewde
p2142
F1
sVrooted
p2143
F2
sVtreasure,
p2144
F1
sVnumber
p2145
F4
sVbarbarian
p2146
F2
sVelder
p2147
F1
sVrootes
p2148
F1
sVdone
p2149
F4
sVleast
p2150
F5
sVclosely,
p2151
F1
sVleaue.
p2152
F1
sVfortifieth
p2153
F1
sVpaine
p2154
F1
sVremember,
p2155
F1
sVthracians
p2156
F1
sVlong,
p2157
F1
sVdiscribed.
p2158
F1
sVvnlyke
p2159
F1
sVmoment,
p2160
F1
sVobedience
p2161
F2
sVsouereigne
p2162
F1
sVmislyked,
p2163
F1
sVvnto,
p2164
F2
sVsaint
p2165
F1
sVdetermine.
p2166
F1
sVagreeth
p2167
F1
sVstore
p2168
F1
sVwisdome,
p2169
F1
sVleaues
p2170
F2
sVfirst,
p2171
F7
sVpoints.
p2172
F1
sVryche
p2173
F1
sVwyues.
p2174
F1
sVroote,
p2175
F2
sVwysedome
p2176
F2
sVpart
p2177
F3
sVdissemble
p2178
F1
sVslayne
p2179
F1
sVauthors
p2180
F1
sVverily,
p2181
F1
sVrecourse
p2182
F1
sVimportunate
p2183
F2
sVgrace
p2184
F2
sVking
p2185
F5
sVremembred
p2186
F2
sVbloude
p2187
F2
sVdefende
p2188
F1
sVgotten
p2189
F3
sVsaye
p2190
F1
sVrecording
p2191
F1
sVspeake.
p2192
F1
sVorderlye
p2193
F2
sVdetermined
p2194
F3
sVcardes
p2195
F1
sVhead.
p2196
F1
sVhead,
p2197
F2
sVdeclare
p2198
F2
sVpasse,
p2199
F3
sVtongues
p2200
F1
sVvertue
p2201
F7
sVseason,
p2202
F1
sVpart,
p2203
F1
sVbeast.
p2204
F1
sVaunswere
p2205
F1
sVcheerefull
p2206
F1
sVwyles
p2207
F1
sVamitie.
p2208
F1
sVamitie,
p2209
F4
sVabused,
p2210
F1
sVorders
p2211
F1
sVlynage,
p2212
F1
sVnights
p2213
F1
sVharlot,
p2214
F1
sVofficers
p2215
F2
sVfriende
p2216
F3
sValso
p2217
F26
sVlabour
p2218
F3
sVfinding
p2219
F2
sVwythin
p2220
F1
sVqueenes,
p2221
F1
sVfellowes
p2222
F1
sVplay
p2223
F2
sVtowards
p2224
F3
sVquoth
p2225
F73
sVhomely,
p2226
F1
sVshrew.
p2227
F2
sVsentence,
p2228
F1
sVbreedeth
p2229
F1
sVmaister
p2230
F33
sVexempted
p2231
F1
sVimprinted
p2232
F1
sVemperor,
p2233
F1
sVmost
p2234
F20
sVfilona,
p2235
F1
sVage,
p2236
F3
sVvertues.
p2237
F2
sVtowarde
p2238
F1
sVvertues,
p2239
F8
sVnothing
p2240
F8
sVaccepting
p2241
F1
sVnothing.
p2242
F2
sVtongue.
p2243
F1
sVtongue,
p2244
F2
sVfeede,
p2245
F1
sVhuswyfery.
p2246
F1
sVsometimes
p2247
F3
sVobserued,
p2248
F1
sVharlots
p2249
F1
sVcomprehende,
p2250
F1
sVauayleth
p2251
F2
sVdespise
p2252
F1
sVobeyed.
p2253
F1
sVsepulchre,
p2254
F1
sVbeard.
p2255
F1
sVfairest,
p2256
F1
sVseuen
p2257
F1
sVdeade,
p2258
F1
sVnations,
p2259
F1
sVwith,
p2260
F2
sVpartlye
p2261
F1
sVgotten,
p2262
F1
sVbarcina
p2263
F1
sVsecretes,
p2264
F1
sVworthy
p2265
F1
sVpleasure.
p2266
F1
sVpleasure,
p2267
F3
sV8
F1
sVdiscreete,
p2268
F1
sVegipt,
p2269
F1
sVrepelled,
p2270
F1
sVvndiscrete
p2271
F1
sVhumilitie
p2272
F1
sVhir
p2273
F158
sVhis
p2274
F135
sValbeit
p2275
F1
sVtherof
p2276
F1
sVcarefull,
p2277
F1
sVsunne
p2278
F4
sVabroade,
p2279
F2
sVcourage
p2280
F2
sVcrauing
p2281
F1
sVduring
p2282
F4
sVgoodnesse,
p2283
F1
sVdutie
p2284
F1
sVhim
p2285
F29
sValexander
p2286
F9
sVvirginitie
p2287
F1
sVspitefull,
p2288
F1
sVmates,
p2289
F2
sVpleasures
p2290
F1
sVthemistocles.
p2291
F1
sVvrine,
p2292
F1
sVcommon
p2293
F4
sVdelayed.
p2294
F1
sVdelayed,
p2295
F2
sVset
p2296
F6
sVart
p2297
F1
sVcreator
p2298
F2
sVrare,
p2299
F1
sVbewaylings,
p2300
F1
sVstronger.
p2301
F1
sVweaklye
p2302
F1
sVsee
p2303
F11
sVreputation
p2304
F1
sVbare
p2305
F2
sVare
p2306
F34
sVsea
p2307
F2
sVthys
p2308
F18
sVimbrasing,
p2309
F1
sVcomaundement.
p2310
F1
sVoutward
p2311
F1
sVbanqueting,
p2312
F2
sVcountye
p2313
F1
sVyouth
p2314
F1
sVgriefe,
p2315
F1
sVioy,
p2316
F1
sVplease
p2317
F5
sVdaylye
p2318
F1
sVlearne
p2319
F1
sVpreseruing
p2320
F1
sVsecret,
p2321
F1
sVchilde,
p2322
F1
sVcontrary
p2323
F1
sVweake,
p2324
F1
sVconditions
p2325
F1
sVlamenting
p2326
F2
sVknowing
p2327
F1
sVafter.
p2328
F2
sVdaungerous
p2329
F1
sVdosen
p2330
F1
sVintending
p2331
F1
sVserue
p2332
F1
sVsold
p2333
F1
sViaylors,
p2334
F1
sVwhere,
p2335
F3
sVwaman,
p2336
F1
sVeyghtene.
p2337
F1
sVnecessarie
p2338
F1
sVwholy
p2339
F2
sVboth
p2340
F19
sVhot,
p2341
F1
sVlast
p2342
F4
sVdiogenes
p2343
F1
sVexcesse
p2344
F1
sVthou
p2345
F5
sVfinde
p2346
F2
sVvirginitie,
p2347
F1
sVseconde,
p2348
F1
sVlouing,
p2349
F2
sVthose,
p2350
F2
sVwhole
p2351
F19
sVsecrete
p2352
F2
sVliked
p2353
F1
sVpleasures.
p2354
F1
sVconsume
p2355
F2
sVpleasures,
p2356
F1
sVpoint
p2357
F1
sVsimple
p2358
F4
sVioyes,
p2359
F1
sVharbour
p2360
F1
sVexcept
p2361
F2
sVappointed.
p2362
F1
sVordinaunce
p2363
F1
sVharlots,
p2364
F1
sVvillage
p2365
F1
sVwel
p2366
F4
sVsuppressing
p2367
F1
sVappointed,
p2368
F1
sVlot,
p2369
F1
sVthere,
p2370
F2
sVaunswerable
p2371
F2
sVconsuming
p2372
F2
sVheauenly
p2373
F1
sVmartiall
p2374
F1
sVthither,
p2375
F2
sVwell:
p2376
F1
sVdue
p2377
F4
sVwhom
p2378
F2
sVelection,
p2379
F1
sVestimation,
p2380
F1
sVmaintenance
p2381
F1
sVplant,
p2382
F1
sVsuspicious
p2383
F1
sVpartly
p2384
F1
sVsending
p2385
F1
sVknewe
p2386
F2
sVtowardes
p2387
F7
sVprying,
p2388
F1
sVhusbad,
p2389
F3
sVexchaunged
p2390
F2
sVreason,
p2391
F4
sVlyketh
p2392
F1
sVadam,
p2393
F1
sVappertayneth
p2394
F1
sVwell,
p2395
F8
sVdescribe.
p2396
F1
sVsalomon.
p2397
F1
sVought
p2398
F15
sVmeruellous
p2399
F1
sVeate,
p2400
F1
sVful
p2401
F1
sVparents,
p2402
F2
sVfurther,
p2403
F1
sVwife,
p2404
F18
sVreade
p2405
F1
sVtamed,
p2406
F1
sVpedros
p2407
F1
sVmoth
p2408
F1
sVstoppeth
p2409
F1
sVgentlewoma,
p2410
F1
sVhusband.
p2411
F3
sVchast
p2412
F1
sVhusband,
p2413
F4
sVsilence
p2414
F1
sVfasten,
p2415
F1
sVvre,
p2416
F1
sVready
p2417
F1
sVrib
p2418
F1
sVpacience,
p2419
F1
sVaunswered,
p2420
F7
sVaway.
p2421
F1
sVmarieth
p2422
F1
sVgroues,
p2423
F1
sVnoone,
p2424
F2
sVfeasting,
p2425
F1
sVfye
p2426
F1
sVwherein
p2427
F15
sVshorter
p2428
F1
sVfoulest,
p2429
F1
sVesteemed
p2430
F3
sVword
p2431
F1
sVshal
p2432
F3
sVhigher
p2433
F1
sVtragedies
p2434
F1
sVhusbande
p2435
F19
sVlie
p2436
F1
sVwanteth
p2437
F1
sVaccordingly,
p2438
F1
sVread,
p2439
F1
sVsoberly
p2440
F1
sVhusbands
p2441
F3
sVyearely
p2442
F1
sVfyre
p2443
F3
sVieopardie,
p2444
F1
sVpredecessors
p2445
F1
sVdaughter,
p2446
F4
sVlower
p2447
F1
sVbeautye,
p2448
F1
sVherewith
p2449
F1
sVpeople,
p2450
F2
sVcured,
p2451
F1
sVabhorring
p2452
F1
sVhonor
p2453
F1
sVmorrow
p2454
F1
sVperson
p2455
F3
sVhowe
p2456
F9
sVpearle
p2457
F1
sVspend
p2458
F1
sVawhile,
p2459
F1
sVvnburden
p2460
F1
sVpresume
p2461
F1
sVwise,
p2462
F5
sVwise.
p2463
F2
sVmatter.
p2464
F3
sVchaste
p2465
F1
sVmatter,
p2466
F6
sVhousbands.
p2467
F1
sVstormes,
p2468
F1
sVpardoning
p2469
F1
sVfaythfull
p2470
F1
sVhumaine
p2471
F1
sVdiminished,
p2472
F1
sVaccomplishe,
p2473
F1
sVequalitie
p2474
F5
sVconiectures,
p2475
F1
sVbreath,
p2476
F1
sVdoores
p2477
F1
sVfeared,
p2478
F1
sVfeared.
p2479
F1
sVcut
p2480
F1
sVreceiue
p2481
F1
sVladies,
p2482
F7
sVscholes,
p2483
F1
sVgodlynesse
p2484
F1
sVlooue
p2485
F2
sVskilfull
p2486
F2
sVherbes
p2487
F1
sVparents
p2488
F1
sVtushe,
p2489
F1
sVcum
p2490
F1
sVwherefore,
p2491
F1
sVthee.
p2492
F1
sVlonger,
p2493
F1
sVwil
p2494
F1
sVlacking
p2495
F1
sVmaryed
p2496
F1
sVsafelye
p2497
F1
sVcouple
p2498
F1
sVsaluted
p2499
F1
sVtrauaile
p2500
F1
sVsanctifie
p2501
F1
sVgame
p2502
F2
sVtruely
p2503
F1
sViason.
p2504
F1
sValcesta,
p2505
F1
sVadmetes
p2506
F1
sVhate,
p2507
F2
sVhate.
p2508
F1
sVbed.
p2509
F1
sVresorted
p2510
F1
sVdaies,
p2511
F2
sVcauseth
p2512
F4
sVlucretia
p2513
F2
sVeche
p2514
F1
sVchydings
p2515
F1
sVpompei,
p2516
F2
sVfamiliarly,
p2517
F1
sVhappinesse
p2518
F2
sVdayes,
p2519
F6
sVcanst
p2520
F1
sVinchaunters
p2521
F1
sVoften
p2522
F4
sVprincelye
p2523
F1
sVmityleneus
p2524
F2
sVanaxagoras,
p2525
F2
sVlast,
p2526
F2
sVanaxagoras.
p2527
F1
sVsome
p2528
F31
sVorder,
p2529
F1
sVmetres
p2530
F1
sVexampler
p2531
F1
sVvalour.
p2532
F1
sVbesides,
p2533
F1
sVcualter,
p2534
F1
sVcurious
p2535
F1
sVplaystering,
p2536
F1
sVprouiding
p2537
F4
sVwisedome.
p2538
F1
sVwisedome,
p2539
F2
sVstratomacha.
p2540
F1
sVnourishe
p2541
F1
sVwomen,
p2542
F8
sVwomen.
p2543
F3
sVshall
p2544
F25
sVexceeding
p2545
F1
sVanno
p2546
F1
sVreligion
p2547
F1
sVthirtie
p2548
F1
sVsprong
p2549
F1
sVrecite,
p2550
F1
sVgood,
p2551
F3
sVtemple
p2552
F1
sVwhome
p2553
F16
sVlaste
p2554
F1
sVbe
p2555
F150
sVexample.
p2556
F2
sVgreene,
p2557
F1
sVlose
p2558
F1
sVrefused
p2559
F1
sVnecessarie,
p2560
F1
sVfather,
p2561
F2
sVfrom
p2562
F18
sVdasies,
p2563
F1
sVby
p2564
F60
sVaswell
p2565
F2
sVvnderstoode
p2566
F2
sVincouragement
p2567
F1
sVdurable,
p2568
F1
sVanything
p2569
F1
sVescaped,
p2570
F1
sVaxamples,
p2571
F1
sVrange
p2572
F1
sVwench,
p2573
F1
sVforbeare
p2574
F1
sVhatred
p2575
F1
sVwomens
p2576
F1
sVvertuous,
p2577
F5
sVprosecute,
p2578
F1
sVlong.
p2579
F1
sVmiracles
p2580
F1
sVholye,
p2581
F1
sVinterrupteth
p2582
F1
sVbledde
p2583
F1
sVinto
p2584
F11
sVwithin
p2585
F2
sVfiue
p2586
F2
sVblisfull
p2587
F1
sVbecause
p2588
F2
sVscorne
p2589
F1
sVwherof,
p2590
F2
sVsee.
p2591
F1
sVwofull
p2592
F1
sVspringeth
p2593
F1
sVfamous
p2594
F1
sVwarres,
p2595
F1
sVchaunced
p2596
F1
sVlong
p2597
F5
sVcareful,
p2598
F1
sVboren
p2599
F1
sVblissefull
p2600
F1
sVwhereto
p2601
F6
sVerasmus
p2602
F1
sVreceiued
p2603
F1
sVsonne
p2604
F3
sVnoted.
p2605
F1
sVcommaundeth
p2606
F1
sVhimself
p2607
F1
sVknitteth
p2608
F1
sVcarding,
p2609
F1
sVbarraine,
p2610
F1
sVbelike
p2611
F1
sVmedea,
p2612
F1
sVneighbours.
p2613
F1
sVfulgosa
p2614
F1
sVcloth
p2615
F1
sVhap,
p2616
F1
sVneighbours,
p2617
F1
sVhonestie
p2618
F1
sVdemeanour,
p2619
F1
sVpast)
p2620
F1
sVamended,
p2621
F1
sVfourth,
p2622
F1
sVaduenturing
p2623
F1
sVconsist
p2624
F1
sVlyfe.
p2625
F2
sVlyfe,
p2626
F5
sVnegligent,
p2627
F1
sVotherlike,
p2628
F1
sVioyned
p2629
F3
sVfayth
p2630
F1
sVaccustomed
p2631
F1
sVcustome,
p2632
F1
sVcharmes
p2633
F1
sVforce,
p2634
F1
sVvanitie
p2635
F1
sVcalled
p2636
F12
sVpast,
p2637
F1
sVside.
p2638
F1
sVcowpled
p2639
F1
sVside,
p2640
F1
sVspinning,
p2641
F1
sVconditions,
p2642
F1
sVtyed,
p2643
F1
sVlikewise
p2644
F3
sVinquisitiue.
p2645
F1
sVdronke,
p2646
F2
sVgowte,
p2647
F1
sVbeginning:
p2648
F1
sVlye
p2649
F1
sVcure
p2650
F1
sVreuerence,
p2651
F1
sVbeginning,
p2652
F2
sVwaye
p2653
F1
sVreast
p2654
F2
sVknowledge,
p2655
F1
sVvenimous
p2656
F1
sVwalke,
p2657
F2
sVware.
p2658
F1
sVthrifte,
p2659
F1
sVpowdred
p2660
F1
sVforgo
p2661
F1
sVfooles,
p2662
F1
sVenquired
p2663
F2
sVhappie.
p2664
F1
sVcooke,
p2665
F1
sVfeare
p2666
F3
sVreaso
p2667
F1
sVexcellent,
p2668
F1
sVname,
p2669
F1
sVsuffer.
p2670
F1
sVvnderstande
p2671
F2
sVbodies,
p2672
F1
sVpacient.
p2673
F1
sVprepared
p2674
F1
sVhelping
p2675
F1
sVmeaning
p2676
F2
sVvisite
p2677
F1
sVmauritanians.
p2678
F1
sVrenuing
p2679
F1
sVtrimly
p2680
F1
sVago
p2681
F1
sVheate
p2682
F2
sVdeparte
p2683
F1
sVplinie
p2684
F1
sVsilence,
p2685
F1
sVintrapped
p2686
F1
sVrequired
p2687
F3
sVfayned
p2688
F1
sVdeuises.
p2689
F1
sVdeuises,
p2690
F2
sVintollerable
p2691
F2
sVvnderstand,
p2692
F2
sVoracle
p2693
F1
sVsuperioritye
p2694
F1
sVromaynes,
p2695
F1
sVstomacke,
p2696
F2
sVindignation,
p2697
F1
sVcrying:
p2698
F1
sVgoodlye
p2699
F1
sVgladly
p2700
F1
sVgo
p2701
F5
sVhimselfe.
p2702
F1
sVhelpe
p2703
F3
sVholye
p2704
F2
sVmelodie,
p2705
F1
sVeducation,
p2706
F1
sVdeparting
p2707
F1
sVappointed
p2708
F2
sVpromised,
p2709
F1
sVfriendly
p2710
F5
sVsent
p2711
F4
sVoute
p2712
F1
sVpublished,
p2713
F1
sVtogithers,
p2714
F2
sVexpressing
p2715
F1
sVadulterie
p2716
F1
sVcustomes
p2717
F1
sVthundereth
p2718
F1
sVgentlewoman.
p2719
F1
sVdriuen
p2720
F1
sVhappye
p2721
F1
sVbeloued
p2722
F5
sVfelicity
p2723
F1
sVhusbaude
p2724
F1
sVouercome
p2725
F4
sVmore,
p2726
F6
sVvoyde
p2727
F2
sVcustomes.
p2728
F1
sVkindled
p2729
F1
sVmauritania
p2730
F1
sVcommauding
p2731
F1
sVcompanye,
p2732
F1
sVeua,
p2733
F1
sVnecessitee
p2734
F1
sVmarry
p2735
F3
sVinclinations
p2736
F1
sVholy,
p2737
F1
sVmooue
p2738
F1
sVsayeth,
p2739
F1
sVconuenient
p2740
F1
sVwomanlye
p2741
F1
sVsorrowfull
p2742
F1
sVenforce
p2743
F1
sVconcluded
p2744
F1
sVthence,
p2745
F1
sVother.
p2746
F2
sVromaine
p2747
F2
sVcertayne
p2748
F1
sVnotwithstanding
p2749
F3
sVshamfastnesse.
p2750
F1
sVcanaria.
p2751
F1
sVladyship
p2752
F1
sVcanaria,
p2753
F1
sVthat,
p2754
F6
sVvyce,
p2755
F1
sVimportaunce,
p2756
F1
sVhelper,
p2757
F1
sVmatrimonye,
p2758
F1
sVhaunt,
p2759
F1
sVdyuers
p2760
F1
sVshe,
p2761
F4
sVexercise
p2762
F1
sVciuill
p2763
F1
sVhonor,
p2764
F2
sVcontrarying,
p2765
F1
sVchose
p2766
F2
sVstandeth
p2767
F1
sVconclude,
p2768
F3
sVgathered
p2769
F1
sVobteyned
p2770
F1
sVanswered,
p2771
F1
sVspake
p2772
F2
sVdesired
p2773
F1
sVhabilitie
p2774
F1
sVlet
p2775
F16
sVreceyue
p2776
F1
sVdissolute:
p2777
F1
sVothers
p2778
F4
sVdiscouereth
p2779
F1
sVdissembled
p2780
F1
sVbetwene
p2781
F4
sVgreat
p2782
F34
sVsouereigne.
p2783
F1
sVspousall
p2784
F1
sVkylled
p2785
F2
sVprincipally
p2786
F1
sVopinion
p2787
F3
sVmaker
p2788
F1
sVloue.
p2789
F4
sVloue,
p2790
F9
sVeuerlasting,
p2791
F1
sVforesee
p2792
F1
sVwasteth
p2793
F1
sVsomwhat
p2794
F1
sVcounsell
p2795
F1
sVharde
p2796
F4
sVapt
p2797
F2
sVseuenth
p2798
F1
sVwit
p2799
F1
sVwarie
p2800
F1
sVbrier,
p2801
F1
sVdesiring
p2802
F2
sVstanding
p2803
F4
sVmee,
p2804
F2
sVmee.
p2805
F2
sVisabella,
p2806
F5
sVisabella.
p2807
F1
sV&
F43
sVmarcus.
p2808
F1
sVobedient:
p2809
F1
sVlawe.
p2810
F1
sVnext
p2811
F5
sViourney
p2812
F1
sVlaying
p2813
F1
sVdoubt
p2814
F8
sVcaptiuitie,
p2815
F1
sVbitterly
p2816
F1
sVagreeable
p2817
F1
sViust
p2818
F1
sVcustome.
p2819
F1
sVwryteth
p2820
F1
sVsort
p2821
F2
sVperfitlye
p2822
F1
sVhard,
p2823
F1
sVworthie
p2824
F7
sVname.
p2825
F1
sVloued
p2826
F6
sVimportunities
p2827
F1
sVhied
p2828
F1
sVsir,
p2829
F1
sVlyked,
p2830
F1
sVsore
p2831
F3
sVdenye
p2832
F1
sViust,
p2833
F1
sVashamed
p2834
F1
sVdiscommodities
p2835
F3
sVmerie,
p2836
F3
sVfurnished,
p2837
F1
sVsharpelye,
p2838
F1
sVwomen
p2839
F16
sVlowre
p2840
F1
sVaccount
p2841
F1
sVvncurtesly,
p2842
F1
sVsupposing
p2843
F2
sVthis
p2844
F54
sVcheere,
p2845
F1
sVfiue.
p2846
F1
sVpraise
p2847
F2
sVvntractable
p2848
F1
sVherein,
p2849
F1
sVhastilye
p2850
F1
sVedict
p2851
F1
sVviues,
p2852
F1
sVdeede:
p2853
F1
sVvnthriftinesse.
p2854
F1
sVhigh
p2855
F3
sVobedient,
p2856
F1
sVbeastes,
p2857
F2
sVbene
p2858
F3
sVwater,
p2859
F1
sVfriendshippe,
p2860
F1
sVlordship.
p2861
F1
sVfoule,
p2862
F1
sVparentage,
p2863
F7
sVlacedemonians
p2864
F1
sVdecaying
p2865
F1
sVsit
p2866
F3
sVkeepe.
p2867
F1
sVcourtesie
p2868
F1
sVfarewell.
p2869
F1
sVdiscretio.
p2870
F1
sVswearing,
p2871
F2
sVholde
p2872
F2
sVleaues,
p2873
F1
sVstrengthneth
p2874
F1
sVentred
p2875
F1
sVcompanies.
p2876
F1
sVprayse
p2877
F1
sVmaydes
p2878
F1
sVshamefastnesse.
p2879
F1
sVhazard
p2880
F1
sVpreuayled.
p2881
F1
sVpurpose.
p2882
F2
sVlines,
p2883
F1
sVpurpose,
p2884
F3
sVmaried.
p2885
F1
sVcourage,
p2886
F1
sVenioye.
p2887
F1
sVwithout.
p2888
F1
sVtrifling
p2889
F1
sV(setting
p2890
F1
sVselues.
p2891
F1
sVgone,
p2892
F2
sVshippe,
p2893
F1
sVgarland,
p2894
F1
sVinterrupted
p2895
F1
sVordinarie,
p2896
F1
sVcarding
p2897
F1
sVspeeche
p2898
F2
sVallow
p2899
F1
sVdinner,
p2900
F3
sVgreatnesse.
p2901
F1
sVgraffed
p2902
F1
sVwhensoeuer
p2903
F1
sVbarraine
p2904
F1
sVboldened
p2905
F1
sVspeakest.
p2906
F1
sVwarres
p2907
F3
sVlooke
p2908
F4
sVaccompany,
p2909
F1
sVfauoure
p2910
F1
sVcounsayleth
p2911
F1
sVdisembling,
p2912
F1
sVnonne,
p2913
F1
sVfoolishs
p2914
F1
sVhouswife
p2915
F1
sVtreade
p2916
F1
sVvntaught.
p2917
F1
sVfauna.
p2918
F1
sVfauna,
p2919
F1
sVfertile
p2920
F1
sVscriching
p2921
F1
sVfretteth
p2922
F1
sVnourishers,
p2923
F1
sVgrownded
p2924
F1
sVmauritania,
p2925
F1
sVthence
p2926
F1
sVchosen
p2927
F2
sVryding
p2928
F1
sVdarius.
p2929
F1
sVshewed
p2930
F4
sVwhereof
p2931
F8
sVlabor
p2932
F1
sVwilling
p2933
F1
sVdegrees
p2934
F1
sVchoose
p2935
F5
sVwyfe
p2936
F16
sVworld,
p2937
F1
sVenioy
p2938
F2
sVfauour,
p2939
F1
sVprosper
p2940
F1
sVgreater
p2941
F6
sVsweete
p2942
F8
sVsocrates.
p2943
F5
sVdeuised,
p2944
F1
sVcommended
p2945
F1
sVoffence,
p2946
F1
sVblessed
p2947
F1
sVfoolish,
p2948
F1
sVcutting
p2949
F1
sVcontemne
p2950
F1
sVmaisterly
p2951
F1
sVfriendlynesse.
p2952
F2
sVconquerour
p2953
F1
sVwithall,
p2954
F2
sVchoyse,
p2955
F1
sVsoueraigntie,
p2956
F3
sVl,
p2957
F1
sVhonored,
p2958
F1
sVsufficiently
p2959
F3
sVby,
p2960
F1
sVbeareth.
p2961
F1
sVaborigines,
p2962
F1
sVworlde
p2963
F2
sVpromise
p2964
F1
sVdisobedience.
p2965
F1
sVaboundeth,
p2966
F1
sVsubiect,
p2967
F1
sVprinces,
p2968
F2
sVhunting,
p2969
F1
sVmaker,
p2970
F1
sVthere
p2971
F36
sVwine:
p2972
F1
sVhouswyfes,
p2973
F1
sVexceeded
p2974
F1
sVwine,
p2975
F6
sVour
p2976
F26
sVwine.
p2977
F3
sVphoebus
p2978
F1
sVout
p2979
F15
sVperforme
p2980
F1
sVrespects
p2981
F2
sVattend
p2982
F1
sVassured,
p2983
F2
sVcalling,
p2984
F1
sVsabellicus,
p2985
F1
sVsecrecie
p2986
F1
sVpersons.
p2987
F1
sVtime,
p2988
F7
sVtime.
p2989
F3
sVromain
p2990
F1
sVhonorable
p2991
F1
sVcause
p2992
F3
sVwrite,
p2993
F1
sVcopany
p2994
F1
sVsaith,
p2995
F1
sVliuelye
p2996
F1
sVearly
p2997
F1
sVgouernaunce
p2998
F1
sVmaintaine
p2999
F2
sVpoure
p3000
F1
sVmoste
p3001
F1
sVthrift,
p3002
F1
sVsupport.
p3003
F1
sVsuffice,
p3004
F1
sVdelicate:
p3005
F1
sVthings,
p3006
F5
sVmaried,
p3007
F2
sVcould
p3008
F5
sVtimes
p3009
F4
sVabuse
p3010
F1
sVdronkenesse.
p3011
F1
sValreadye
p3012
F1
sVtollerable
p3013
F1
sVsocrates
p3014
F4
sVforbeare.
p3015
F1
sVhir,
p3016
F20
sVyong
p3017
F3
sVshamefastnesse,
p3018
F2
sVsower,
p3019
F1
sVeuill
p3020
F4
sVserueth
p3021
F3
sVbe.
p3022
F2
sVbe,
p3023
F6
sVfoorthwith
p3024
F2
sVgrow
p3025
F1
sVconceyued
p3026
F1
sVtheir
p3027
F64
sVriche,
p3028
F1
sVtwo:
p3029
F1
sVintelligence
p3030
F1
sVioyfull
p3031
F2
sVhearde
p3032
F1
sVlowring,
p3033
F1
sVdionysius
p3034
F1
sVbeare
p3035
F2
sVdicing,
p3036
F1
sVmainteyning
p3037
F2
sVaccompany
p3038
F2
sVregarde
p3039
F3
sVdrinke,
p3040
F1
sVsayeth
p3041
F5
sVperforce
p3042
F1
sVinstituted
p3043
F1
sVpraye
p3044
F2
sVgayneth
p3045
F1
sVexpences
p3046
F1
sVhapneth
p3047
F3
sVtreatise
p3048
F1
sVslaine
p3049
F1
sVsteed
p3050
F1
sVcommendation:
p3051
F1
sVgaye
p3052
F1
sVbee
p3053
F30
sVbowling,
p3054
F1
sVcircumspect
p3055
F5
sVcommaunded,
p3056
F1
sVmanly
p3057
F1
sVbraynde
p3058
F1
sVrepented
p3059
F2
sVbehinde
p3060
F1
sVcommendation,
p3061
F1
sVaccusing
p3062
F1
sVverye
p3063
F3
sVdiuers
p3064
F6
sVgently
p3065
F1
sVcounsayle
p3066
F2
sVcomfortable
p3067
F1
sVgentle
p3068
F4
sVmornings
p3069
F1
sVconstrained
p3070
F1
sVviewed
p3071
F1
sVrysing
p3072
F1
sVintirelye
p3073
F1
sVawaye,
p3074
F3
sVshamelesse
p3075
F1
sVtherewith
p3076
F3
sVable
p3077
F2
sVsoules
p3078
F1
sViudgement,
p3079
F2
sVfayre,
p3080
F4
sVabserue
p3081
F1
sVsorrowes,
p3082
F2
sVwhich
p3083
F84
sVgory
p3084
F1
sVtrauayle,
p3085
F1
sVaduised
p3086
F3
sVrare:
p3087
F1
sVinheritaunce,
p3088
F1
sVreciting
p3089
F1
sVwhe
p3090
F2
sVappeereth
p3091
F1
sVrepaye
p3092
F2
sVriotousnesse.
p3093
F1
sVvppe,
p3094
F1
sVwho
p3095
F23
sVprocure
p3096
F1
sVdelayed
p3097
F2
sVhesiodus
p3098
F1
sVydell.
p3099
F1
sVlayde
p3100
F1
sVeight
p3101
F1
sVgods,
p3102
F3
sVsuspected,
p3103
F1
sVshamefastnes,
p3104
F1
sVgreece,
p3105
F1
sVcapacity
p3106
F1
sVawe
p3107
F1
sVwhy
p3108
F2
sVhatred,
p3109
F1
sVcosisteth
p3110
F1
sVpossessions,
p3111
F2
sVwherewith
p3112
F3
sVnecessitie:
p3113
F1
sVfayrer
p3114
F1
sVprisoners,
p3115
F1
sVsoule,
p3116
F1
sVfolye
p3117
F2
sVpaulina.
p3118
F1
sVsaying,
p3119
F2
sVdore,
p3120
F1
sVno,
p3121
F2
sVaffection.
p3122
F1
sVgentleman
p3123
F3
sVsupported
p3124
F1
sVequalnesse
p3125
F2
sVnaturall
p3126
F2
sVliuelyhoode,
p3127
F1
sVbring
p3128
F4
sVcouered,
p3129
F1
sVbewraye
p3130
F1
sVtryed
p3131
F1
sVmatch.
p3132
F1
sVpasse
p3133
F1
sVmolest
p3134
F2
sVcontinually
p3135
F1
sVgasping
p3136
F1
sVdebate
p3137
F1
sVtrue,
p3138
F3
sVfaithfull
p3139
F1
sVdefamed
p3140
F1
sVexcesse.
p3141
F1
sVknowledge
p3142
F1
sViniurie
p3143
F3
sVpartakers
p3144
F1
sVshould
p3145
F16
sVprolong
p3146
F1
sVplanted
p3147
F1
sVbanket,
p3148
F1
sVabsteyne
p3149
F1
sVhonorable,
p3150
F2
sVcontrole
p3151
F1
sVdisherited.
p3152
F1
sVthey,
p3153
F1
sVhope
p3154
F2
sVsecret.
p3155
F1
sVworde
p3156
F4
sVplato.
p3157
F1
sVphisition,
p3158
F1
sVwydowes
p3159
F1
sVcommendation
p3160
F2
sVwonderfull
p3161
F2
sVpaternoster
p3162
F1
sVsimplest
p3163
F1
sVbicause
p3164
F9
sVlettyng
p3165
F1
sVmeane
p3166
F4
sVplease,
p3167
F2
sVwords
p3168
F1
sVchristians.
p3169
F1
sVwythdrewe
p3170
F1
sVchristians,
p3171
F1
sVascended
p3172
F1
sVdissehabling
p3173
F1
sVlyues,
p3174
F1
sVcontentation
p3175
F1
sVmanye
p3176
F5
sVathens,
p3177
F1
sVcicero
p3178
F1
sVhouses,
p3179
F2
sVvitellus,
p3180
F1
sVloueth,
p3181
F1
sVshe
p3182
F61
sVfewe
p3183
F4
sVnightingale
p3184
F1
sVspotted
p3185
F1
sVgentlewomen,
p3186
F1
sVauoyde
p3187
F1
sVlawfully
p3188
F1
sVneyther
p3189
F8
sVcountrie
p3190
F5
sVeyes:
p3191
F1
sVvnderstood,
p3192
F1
sVchirurgion,
p3193
F1
sVaccused
p3194
F1
sVdisanulled,
p3195
F1
sVfoolishe
p3196
F1
sVabhorred
p3197
F1
sVyeeld
p3198
F1
sVbehalfe,
p3199
F2
sVplaced
p3200
F2
sVsinowes,
p3201
F1
sVprophane,
p3202
F1
sVmonstrous
p3203
F1
sVfinally
p3204
F1
sValwaies
p3205
F2
sVstate
p3206
F1
sVgiuen
p3207
F5
sVneither
p3208
F2
sVdisolute.
p3209
F1
sVdaughters.
p3210
F1
sVcomparable
p3211
F1
sVdaughters,
p3212
F1
sVbound
p3213
F1
sVwyne,
p3214
F1
sVcheereth
p3215
F1
sVspeciallye
p3216
F1
sVletted
p3217
F1
sVlyke.
p3218
F1
sVaside,
p3219
F2
sVende
p3220
F8
sVweedes,
p3221
F2
sVvexatio
p3222
F1
sVprecious
p3223
F1
sVauoyd
p3224
F1
sVtaken,
p3225
F1
sVpurposed
p3226
F1
sVhundreth
p3227
F1
sVdiligent
p3228
F1
sVtrifles,
p3229
F1
sVmithridates,
p3230
F1
sVgouerne
p3231
F1
sVprouoke
p3232
F1
sVassure
p3233
F1
sVbargaine
p3234
F1
sVcurst,
p3235
F1
sVrunneth
p3236
F1
sVminde
p3237
F1
sVhandes.
p3238
F1
sVpassing
p3239
F3
sVgiue,
p3240
F1
sVmaides,
p3241
F1
sVthys,
p3242
F1
sVotherwise
p3243
F2
sVshameles,
p3244
F1
sVdenie
p3245
F2
sVdid.
p3246
F1
sVconclude
p3247
F2
sVeua
p3248
F1
sVnaye,
p3249
F1
sVdelightfull
p3250
F1
sVvnder
p3251
F2
sVyeelded
p3252
F1
sVtogether,
p3253
F1
sVtable
p3254
F1
sVhusbandes.
p3255
F3
sVmockerie
p3256
F1
sVgiuen,
p3257
F1
sVyeares
p3258
F5
sVtread
p3259
F2
sVlicurgus.
p3260
F3
sVfishers
p3261
F2
sVfriended,
p3262
F1
sVliberall
p3263
F1
sVwriteth
p3264
F1
sVimbrace
p3265
F2
sVpoured
p3266
F1
sVbondman.
p3267
F1
sVphilosophers.
p3268
F1
sVpoet
p3269
F1
sVelecting
p3270
F1
sVdemaunded
p3271
F4
sVhome,
p3272
F8
sVgraunted
p3273
F1
sVspende
p3274
F3
sVking,
p3275
F1
sVpainted
p3276
F1
sVordeyned,
p3277
F1
sVsufficient
p3278
F1
sVfamilye,
p3279
F1
sVbrother,
p3280
F1
sVal
p3281
F3
sVhartily,
p3282
F1
sVcondition,
p3283
F1
sVshortnesse
p3284
F1
sVoccupie
p3285
F2
sVtorment,
p3286
F1
sVpresent
p3287
F1
sVowne
p3288
F17
sVcommaundeth,
p3289
F1
sVbugges,
p3290
F1
sVpirro,
p3291
F1
sVroming
p3292
F2
sVprayse,
p3293
F2
sVoweth
p3294
F1
sVwill
p3295
F42
sVgiuing
p3296
F3
sVwill,
p3297
F4
sVriche
p3298
F2
sVwill.
p3299
F1
sVhappened
p3300
F2
sVmenander.
p3301
F1
sVyeare,
p3302
F1
sVthereof,
p3303
F7
sVcurteouslye
p3304
F1
sVreadie
p3305
F1
sVapparell,
p3306
F2
sVwastfully
p3307
F1
sVsister,
p3308
F1
sValmost
p3309
F1
sVpreserue
p3310
F3
sVpenne
p3311
F1
sVthus
p3312
F4
sVdiscerned.
p3313
F1
sVsustenance
p3314
F1
sVvp
p3315
F11
sVfolloweth,
p3316
F1
sVvs
p3317
F11
sVgiuers
p3318
F1
sVshame,
p3319
F2
sVgods
p3320
F1
sVsecrets
p3321
F1
sVparte
p3322
F6
sVset,
p3323
F1
sVbegan
p3324
F2
sVpoysoned
p3325
F2
sVof,
p3326
F1
sVthese.
p3327
F1
sVbegat
p3328
F1
sVyeres
p3329
F2
sVhart,
p3330
F6
sVgamning,
p3331
F1
sVhart.
p3332
F3
sVgamning.
p3333
F1
sVintirelye,
p3334
F1
sVnotwithstanding,
p3335
F1
sVpaule
p3336
F2
sVpastimes,
p3337
F2
sVlot.
p3338
F1
sVgarden.
p3339
F2
sVmayntayner
p3340
F1
sVxviij.
p3341
F1
sVsteale
p3342
F2
sVfaces
p3343
F1
sVhonestye,
p3344
F1
sVconspired
p3345
F1
sVdisprayse
p3346
F1
sVsooner
p3347
F2
sVpriuate
p3348
F1
sVlaye,
p3349
F1
sVdestruction
p3350
F1
sVthoughe
p3351
F1
sVoff
p3352
F3
sVfully
p3353
F1
sVi
F100
sVpestiferous
p3354
F1
sVcolour
p3355
F2
sVharts
p3356
F1
sVwell
p3357
F40
sViewell
p3358
F1
sVpart.
p3359
F1
sVobeysance.
p3360
F1
sVthought
p3361
F3
sVvnskilfull
p3362
F3
sVenglish
p3363
F1
sVpompeius
p3364
F1
sVconcluded,
p3365
F1
sVcontinuall
p3366
F1
sVsonne,
p3367
F3
sVcompanions,
p3368
F1
sVieolous,
p3369
F1
sVflesh
p3370
F1
sVhappie
p3371
F3
sVonly.
p3372
F1
sVdronkarde.
p3373
F1
sVdronkarde,
p3374
F1
sVlosse
p3375
F2
sVlunis,
p3376
F1
sVarbaces,
p3377
F1
sVdyed.
p3378
F1
sVende,
p3379
F2
sVmaruellously
p3380
F1
sVerrors,
p3381
F1
sVaduenture,
p3382
F2
sVwisedome
p3383
F2
sVende.
p3384
F1
sVqueene,
p3385
F1
sVwee
p3386
F7
sVentire
p3387
F1
sVstratomacha
p3388
F1
sVday
p3389
F6
sVlose,
p3390
F2
sVappertaineth
p3391
F1
sVother
p3392
F18
sVchyding,
p3393
F1
sVfriendshippe
p3394
F1
sVsauing
p3395
F2
sVmatch
p3396
F2
sVloe,
p3397
F1
sVcame,
p3398
F1
sVpretie
p3399
F1
sVprincipalitie
p3400
F1
sVknow
p3401
F1
sVknot
p3402
F1
sVdowries,
p3403
F1
sVvaines
p3404
F2
sVimmediately
p3405
F1
sVskil,
p3406
F1
sVhaue
p3407
F72
sVsworde
p3408
F1
sVrocke,
p3409
F2
sVlike
p3410
F9
sVlost
p3411
F1
sVlongnesse
p3412
F1
sVworke
p3413
F1
sVsages
p3414
F1
sVsoueraigntie
p3415
F3
sVcounsellors
p3416
F1
sVbecome
p3417
F1
sVblamed,
p3418
F1
sVblindeth
p3419
F2
sVtherein
p3420
F2
sVshee
p3421
F27
sVcontinuallye
p3422
F1
sVeasie
p3423
F2
sVoftentimes
p3424
F1
sVflagrant
p3425
F1
sVproofe
p3426
F1
sVdiscorde
p3427
F1
sVthankes,
p3428
F2
sVshew
p3429
F4
sVvse
p3430
F3
sVpast.
p3431
F1
sVproper
p3432
F1
sVhome
p3433
F7
sVpoet,
p3434
F1
sVbefore,
p3435
F5
sVhimselfe
p3436
F7
sVbefore.
p3437
F3
sValexander,
p3438
F2
sVmadam,
p3439
F2
sVflesh,
p3440
F1
sVsake,
p3441
F3
sVphilosopher
p3442
F2
sVappeere
p3443
F1
sVdiscretion
p3444
F1
sVhearted,
p3445
F1
sVother,
p3446
F4
sVchestes,
p3447
F1
sV?
F1
sVobey
p3448
F4
sVwarme,
p3449
F1
sVfaythfullye,
p3450
F1
sVthere.
p3451
F1
sVcraue
p3452
F2
sVgentlema
p3453
F1
sVassureth
p3454
F1
sVfoloweth
p3455
F1
sVaccompanied
p3456
F1
sVinstinct
p3457
F1
sVhauing
p3458
F4
sVchoked
p3459
F1
sVapointed,
p3460
F1
sVvs,
p3461
F7
sVvs.
p3462
F2
sVabout
p3463
F2
sVrare
p3464
F1
sVgetting
p3465
F1
sVdoe,
p3466
F5
sVdoe.
p3467
F1
sVmadame
p3468
F2
sVdepelled,
p3469
F1
sVmine,
p3470
F1
sVaboue
p3471
F5
sVnatures,
p3472
F1
sVvtterly
p3473
F5
sVsayling
p3474
F1
sVgaines
p3475
F1
sVtongue
p3476
F3
sVbeneuolence,
p3477
F1
sVaduoided,
p3478
F1
sVhumilitie,
p3479
F1
sVdeuiseth
p3480
F1
sVmery
p3481
F1
sVwelth,
p3482
F3
sVown
p3483
F1
sVchaunces,
p3484
F1
sVlicurgus
p3485
F4
sVcourt,
p3486
F1
sVcanaan
p3487
F1
sVvpper
p3488
F1
sVweather
p3489
F1
sVtimes,
p3490
F1
sVfemale
p3491
F1
sVduetie
p3492
F7
sVattaine
p3493
F1
sVpaulina
p3494
F1
sVvlysses,
p3495
F1
sVfriends,
p3496
F2
sVmatrone,
p3497
F1
sVaske
p3498
F1
sVholpen
p3499
F1
sVsiely
p3500
F1
sVbyndeth
p3501
F1
sVmad,
p3502
F1
sVstorie,
p3503
F1
sValcesta
p3504
F1
sVsecret
p3505
F3
sVdoing
p3506
F3
sVlyked
p3507
F1
sVcounselleth
p3508
F1
sVadulterie.
p3509
F3
sVplace,
p3510
F6
sVbreeding
p3511
F1
sVplace.
p3512
F1
sVnaturally
p3513
F2
sVtherewith.
p3514
F1
sVestimation.
p3515
F1
sVpardon,
p3516
F1
sVforthwith
p3517
F1
sVaccompanye
p3518
F1
sVinuincible
p3519
F1
sVbut
p3520
F103
sVexpresse
p3521
F1
sVhastie
p3522
F1
sVequall.
p3523
F1
sVcourts
p3524
F1
sVserued,
p3525
F1
sVchildren.
p3526
F5
sVought.
p3527
F1
sVchildren,
p3528
F5
sVmatch,
p3529
F1
sVentered
p3530
F1
sVhe
p3531
F94
sVmade
p3532
F8
sVwise
p3533
F13
sVreigne.
p3534
F1
sVplaces
p3535
F1
sVwhether
p3536
F2
sVaduentured
p3537
F1
sVthis,
p3538
F5
sVlinage,
p3539
F2
sVfestiuall
p3540
F1
sVbride,
p3541
F1
sVmaried
p3542
F12
sVlyke,
p3543
F2
sVeyes,
p3544
F6
sVbewtie
p3545
F1
sVmatrones
p3546
F1
sVbearing
p3547
F1
sVwhyle
p3548
F1
sVfriend,
p3549
F2
sVbeate
p3550
F1
sVdeaths
p3551
F1
sVproceede
p3552
F1
sVdomini
p3553
F1
sVleysure.
p3554
F1
sVcawne,
p3555
F1
sVagaine
p3556
F4
sVtempered
p3557
F2
sVdeclined,
p3558
F1
sVapparell.
p3559
F1
sVmysterye,
p3560
F1
sVaristotle
p3561
F1
sVfumeth
p3562
F1
sVeducation
p3563
F3
sVaduaile.
p3564
F1
sVbarcina,
p3565
F2
sVgarden,
p3566
F5
sVtyme
p3567
F5
sVfieldes,
p3568
F2
sVmimians,
p3569
F1
sVfriendlye
p3570
F3
sVhasardeth
p3571
F1
sVbranch
p3572
F1
sVsuspiciously
p3573
F1
sVwithstood
p3574
F1
sVgiue
p3575
F12
sVsicke
p3576
F2
sVsecretly
p3577
F1
sVtold.
p3578
F1
sVfowlest.
p3579
F1
sVprodigalitie,
p3580
F1
sVcruelty
p3581
F1
sVin,
p3582
F1
sVkinde
p3583
F5
sVdeath,
p3584
F5
sVdeath.
p3585
F1
sVelse
p3586
F3
sVdone,
p3587
F4
sVdelightes,
p3588
F1
sVagayne,
p3589
F1
sVfretteth,
p3590
F1
sVlodouic,
p3591
F1
sVrule
p3592
F3
sVafterwardes
p3593
F2
sVmelodye,
p3594
F1
sVgoodly
p3595
F1
s.