ccollections
defaultdict
p1
(c__builtin__
float
p2
tRp3
Vall
p4
F12
sVsalerne,
p5
F1
sVcaried
p6
F1
sVtalke
p7
F1
sVhath
p8
F10
sVwillyng
p9
F1
sVfollow
p10
F1
sVvpo
p11
F1
sVcauses
p12
F1
sVmarke
p13
F2
sVpost:
p14
F1
sVselfe:
p15
F1
sVtoung
p16
F2
sVwrityng,
p17
F1
sVsene
p18
F2
sVto
p19
F42
sVedward
p20
F1
sVissue,
p21
F1
sVwished
p22
F1
sVpresently
p23
F1
sVvery
p24
F1
sVcomines
p25
F1
sVwittes
p26
F1
sVma
p27
F1
sVdecimonono
p28
F1
sVwordes,
p29
F1
sVtoung,
p30
F1
sVhetherto
p31
F1
sVbloud,
p32
F1
sVnotes
p33
F1
sVhym
p34
F4
sVhys
p35
F3
sValbert,
p36
F1
sVagentes
p37
F1
sVwordes
p38
F1
sVtalked
p39
F1
sVwherby
p40
F1
sVme,
p41
F2
sVme.
p42
F1
sVvnaduised
p43
F1
sVpast
p44
F1
sVothers,
p45
F1
sVme:
p46
F1
sVwhat
p47
F5
sVseeke
p48
F1
sVlesse
p49
F1
sVissues
p50
F1
sVlearned
p51
F1
sVchristo
p52
F1
sVfull
p53
F1
sVworkyng
p54
F1
sVreasonyng
p55
F1
sVfrench
p56
F1
sVlet
p57
F1
sVwayes
p58
F1
sVryse
p59
F1
sVeuery
p60
F1
sVhym.
p61
F1
sVgreat
p62
F6
sVtroth
p63
F3
sVpartaker
p64
F1
sVcommonly
p65
F1
sVsurely
p66
F1
sVgenerall
p67
F1
sVhonor
p68
F1
sVcounsell
p69
F1
sV(yet
p70
F1
sVmarked
p71
F3
sVhistories
p72
F1
sVwyse
p73
F1
sVwieke
p74
F1
sVimmediatly
p75
F1
sVfrom
p76
F4
sVwould
p77
F4
sV&
F7
sVangry
p78
F1
sVm.
p79
F1
sVtwo
p80
F3
sVfew
p81
F1
sVremembraunce
p82
F1
sVthyrd,
p83
F1
sVtherefore
p84
F1
sVinuasion
p85
F1
sVworthely:
p86
F1
sVtell
p87
F1
sVmore
p88
F2
sVflat
p89
F1
sVopinio
p90
F1
sVit
p91
F5
sVexcuse
p92
F1
sVcarieth
p93
F1
sVplayne
p94
F1
sVfredly
p95
F1
sVward
p96
F1
sVemperour
p97
F1
sVmust
p98
F2
sVme
p99
F5
sVamongest
p100
F1
sVthis
p101
F3
sVphillip
p102
F2
sVabroad:
p103
F1
sVcan
p104
F2
sVpraise
p105
F2
sVmy
p106
F7
sVselfe
p107
F1
sVhistory
p108
F1
sVtrimme
p109
F1
sVcompare
p110
F1
sVdeede:
p111
F1
sVbondes
p112
F1
sVpurposes
p113
F1
sVheard
p114
F2
sVbene
p115
F3
sVperformed
p116
F1
sVbrest
p117
F1
sVpurposed
p118
F1
sVindifferent
p119
F2
sVcousels,
p120
F2
sVcourt
p121
F1
sVselues.
p122
F1
sVprofite,
p123
F1
sV1
F1
sVhow
p124
F1
sVwriters
p125
F1
sVchaucer
p126
F1
sVmislike
p127
F1
sVprayse
p128
F3
sVmay
p129
F4
sVafter
p130
F1
sVlay
p131
F1
sVsuch
p132
F10
sVliuie
p133
F2
sVman
p134
F1
sVa
F10
sVkeepe
p135
F1
sVno
p136
F5
sVchiefly
p137
F1
sVmynde
p138
F1
sVparcialitie,
p139
F1
sVaesar
p140
F1
sVdescribyng
p141
F1
sVattemptes:
p142
F1
sVtrouth,
p143
F1
sVtrouth.
p144
F1
sVworkeman
p145
F1
sVdoyng,
p146
F1
sVfurnish
p147
F1
sVlooke
p148
F2
sVfurnished
p149
F1
sVhand,
p150
F1
sVborne
p151
F1
sVspeakyng
p152
F1
sVturky,
p153
F1
sVstile
p154
F1
sVd'arras
p155
F1
sVkepyng
p156
F1
sVpointes
p157
F2
sVbefore
p158
F1
sVwrite
p159
F2
sVloyaltie,
p160
F1
sVfor,
p161
F1
sVlate
p162
F1
sVabsence
p163
F1
sVtruth,
p164
F1
sVpriuy
p165
F1
sVneede
p166
F1
sVwriters.
p167
F1
sVmight
p168
F3
sVthen
p169
F6
sVthem
p170
F2
sVgood
p171
F1
sVpleasaunt
p172
F1
sVgreater
p173
F1
sVye
p174
F4
sVthey
p175
F3
sVnot
p176
F15
sVreproch.
p177
F1
sVhistory:
p178
F1
sVnow
p179
F3
sVdowne
p180
F1
sVday
p181
F1
sVnor
p182
F4
sVwont
p183
F1
sVaduisedly
p184
F1
sVkyng
p185
F1
sVby,
p186
F1
sVdone
p187
F2
sVside
p188
F2
sVleysure
p189
F1
sVoctob.
p190
F1
sVperceiue,
p191
F1
sVengland
p192
F1
sVdeserued
p193
F1
sVrashly:
p194
F1
sVthincke
p195
F1
sVour
p196
F8
sVout
p197
F2
sVperforme
p198
F1
sVgod
p199
F1
sVthynges
p200
F2
sVcontent
p201
F2
sVfellowship
p202
F1
sVselues,
p203
F1
sVis,
p204
F1
sVreportyng
p205
F1
sVcause
p206
F2
sVgreeke
p207
F1
sVbaron
p208
F1
sVfayntly:
p209
F1
sVstory
p210
F1
sVpleasant
p211
F1
sVconferre
p212
F1
sVdoyng
p213
F2
sVdisorderly)
p214
F1
sVknit
p215
F1
sVwarines,
p216
F1
sVbeleue
p217
F1
sVgo.
p218
F1
sVcould
p219
F2
sVtimes
p220
F1
sVthing
p221
F1
sVplace
p222
F1
sVaesar,
p223
F1
sVfirst
p224
F3
sVrudely
p225
F1
sVeuen
p226
F1
sVitaly,
p227
F2
sVone
p228
F5
sVbenefites
p229
F2
sVopen
p230
F1
sVoportunitie
p231
F1
sVremember,
p232
F1
sVleast
p233
F1
sVtheir
p234
F3
sV2
F1
sVperfectly
p235
F2
sVsuppose.
p236
F1
sVfirst,
p237
F1
sVon,
p238
F1
sVbehind
p239
F1
sValbert
p240
F1
sVforward
p241
F1
sVpart
p242
F6
sVwas,
p243
F1
sVwrityng
p244
F3
sVlyue
p245
F1
sVmatter
p246
F2
sVidle
p247
F1
sVbody:
p248
F1
sVwere
p249
F6
sVand
p250
F44
sVfall:
p251
F1
sVpersos
p252
F1
sVdiuers
p253
F1
sVmine
p254
F2
sVsay
p255
F2
sVsentences
p256
F1
sVany
p257
F5
sVlaw,
p258
F1
sVrenewing
p259
F1
sVbrechesse
p260
F1
sVthat
p261
F16
sVwish,
p262
F1
sVnote
p263
F1
sValso
p264
F2
sVcaesar
p265
F1
sVtake
p266
F1
sVwhich
p267
F8
sVconteineth
p268
F1
sVwish:
p269
F1
sVso
p270
F16
sVgreatest
p271
F1
sVaffinitie,
p272
F1
sVshall
p273
F4
sVwho
p274
F1
sVmost
p275
F4
sVsoddeyne
p276
F1
sVgermany
p277
F1
sVplenty
p278
F1
sVnothing
p279
F1
sVmyne
p280
F1
sVaunswered
p281
F1
sVabsence,
p282
F1
sVlooker
p283
F1
sVnothyng
p284
F2
sVhatfield,
p285
F1
sVgather
p286
F1
sVrequest
p287
F2
sVorder
p288
F2
sVlooked
p289
F1
sVinhaunsed
p290
F1
sVprecise
p291
F1
sVquyet,
p292
F1
sVparticularly
p293
F1
sVagreed
p294
F1
sVnaturall
p295
F1
sVfrech,
p296
F1
sVlacke
p297
F1
sVtrue.
p298
F1
sVxenophon,
p299
F1
sVtrue
p300
F1
sVwriter
p301
F1
sVemperour,
p302
F1
sVcicels
p303
F1
sVshould
p304
F2
sVenriched
p305
F1
sVpleasure,
p306
F1
sVemperour:
p307
F1
sVsaw,
p308
F1
sVdo
p309
F4
sVhis
p310
F7
sVtruly
p311
F1
sVmeane
p312
F3
sVmade
p313
F1
sVhid
p314
F1
sVdeede.
p315
F1
sValtogether
p316
F2
sVreport
p317
F1
sVhim
p318
F2
sVwynne
p319
F1
sVvpo.
p320
F1
sVwrite:
p321
F1
sVhad,
p322
F1
sVnext,
p323
F1
sVthem:
p324
F1
sVmen,
p325
F1
sVemperours
p326
F1
sVcommon
p327
F1
sVwrote
p328
F1
sVsecretary
p329
F1
sVenglad
p330
F3
sVset
p331
F1
sVmaurice
p332
F3
sVcomines:
p333
F1
sVsee
p334
F1
sVare
p335
F1
sVconcernyng
p336
F1
sVoutward
p337
F1
sVbehalfe.
p338
F1
sVmatters.
p339
F1
sVrequest,
p340
F2
sVaway
p341
F1
sVplurimam
p342
F1
sVlyuely
p343
F1
sV3
F1
sVneither
p344
F2
sVreading
p345
F1
sVbryng
p346
F1
sVwe
p347
F5
sVvprightly
p348
F1
sVchamber,
p349
F1
sVnature
p350
F1
sVfull,
p351
F1
sVvniust:
p352
F1
sVaffaires.
p353
F1
sVwilling
p354
F1
sVhere
p355
F3
sVvnder
p356
F1
sVthen.
p357
F1
sVcome
p358
F4
sVboth
p359
F4
sVc
F1
sVfalse,
p360
F1
sVassure
p361
F1
sVfalse:
p362
F1
sVcosent
p363
F1
sVpoint
p364
F1
sVdoubt,
p365
F1
sVsturres
p366
F1
sVambassadors
p367
F1
sVheades
p368
F1
sVhauyng
p369
F1
sVtogether,
p370
F1
sVdone,
p371
F1
sVcomoditie
p372
F1
sVdone.
p373
F1
sVwhosoeuer
p374
F1
sVactes
p375
F1
sVconference
p376
F1
sVyeares
p377
F1
sVvsed
p378
F1
sVencrease
p379
F1
sVprince
p380
F2
sVthree
p381
F1
sVwriteth
p382
F1
sV.
F1
sVwhom
p383
F1
sVsecret
p384
F1
sVmuch
p385
F6
sVdispleasure.
p386
F1
sVexpresse
p387
F1
sVsturre
p388
F1
sVduties
p389
F1
sVexcellently,
p390
F1
sVproudest
p391
F1
sVhym,
p392
F2
sVhomely
p393
F1
sVtowardes
p394
F1
sVimperiall
p395
F1
sVdoth
p396
F3
sViouius
p397
F1
sVpresent
p398
F1
sVwisely,
p399
F1
sVowne
p400
F1
sVactes,
p401
F2
sVturke:
p402
F1
sVmaner
p403
F2
sVthese
p404
F7
sVprayse.
p405
F1
sVcouragiously
p406
F1
sVprayse,
p407
F1
sVwill
p408
F5
sVafrayd
p409
F1
sVcosider
p410
F1
sVvnfrendly
p411
F1
sVwonted
p412
F1
sValmost
p413
F1
sVkynsman,
p414
F1
sVis
p415
F12
sVfraunces
p416
F1
sVthus
p417
F1
sVherein
p418
F1
sVvp
p419
F3
sVbrake
p420
F2
sVtyme:
p421
F1
sVin
p422
F42
sVready
p423
F1
sVwisely
p424
F1
sVif
p425
F7
sVobseruation
p426
F1
sVothers:
p427
F1
sVbeside
p428
F1
sVlyke
p429
F2
sVwhiche
p430
F1
sVshal
p431
F1
sVhigher
p432
F1
sVnoble
p433
F1
sVlyst.
p434
F1
sVmarches
p435
F2
sVhand
p436
F2
sVpersons
p437
F1
sVfraunce,
p438
F2
sVpurpose
p439
F2
sVopinion
p440
F2
sVlower
p441
F1
sVi
F22
sVoctauio
p442
F1
sVwell
p443
F5
sVthought
p444
F1
sVwithout
p445
F1
sVperadueture
p446
F1
sVenglish
p447
F1
sVthe
p448
F53
sVbungle
p449
F1
sVyours
p450
F1
sVlesu
p451
F1
sVthanke
p452
F1
sVbeing
p453
F1
sVgenerally
p454
F1
sVobserue
p455
F1
sVmatter,
p456
F2
sVshape
p457
F1
sV(i
p458
F1
sVfarther
p459
F1
sVmatter:
p460
F1
sVrest
p461
F1
sVyet
p462
F4
sVgermany.
p463
F2
sVwisedome
p464
F1
sVcoprehendeth
p465
F1
sVlatine
p466
F1
sViudge
p467
F1
sVhad
p468
F3
sVexcept
p469
F1
sVhandlyng
p470
F1
sV4
F1
sVcommunication:
p471
F1
sVplaying
p472
F1
sVsalutem
p473
F1
sVread
p474
F3
sVspires
p475
F1
sVmatters
p476
F2
sVgod)
p477
F1
sVknow
p478
F4
sVseyng
p479
F1
sVnede
p480
F1
sVhaue
p481
F9
sVfeare
p482
F1
sVcocluded
p483
F1
sVcauses,
p484
F2
sVlike
p485
F3
sVchamber
p486
F1
sVeither
p487
F1
sVnight
p488
F1
sVitalian
p489
F1
sVstuffe
p490
F1
sVold
p491
F1
sVflatter
p492
F1
sVsome
p493
F3
sVproper
p494
F1
sVhome
p495
F1
sVabilitie
p496
F1
sVonely
p497
F5
sVfor
p498
F18
sVpleasant,
p499
F1
sVwitty
p500
F1
sVsprong
p501
F1
sVleaue
p502
F1
sVtrouth
p503
F2
sVbe
p504
F10
sVfelt
p505
F1
sVoctauio,
p506
F1
sVbold
p507
F1
sVnotable
p508
F1
sVworthy
p509
F3
sVdispositio
p510
F1
sVby
p511
F9
sVon
p512
F4
sVcommendations,
p513
F1
sVof
p514
F46
sVdeclaryng
p515
F1
sVtroublesome,
p516
F1
sVor
p517
F9
sVduke
p518
F5
sVletters
p519
F2
sVhandlyng.
p520
F1
sVhope,
p521
F1
sVcourt.
p522
F1
sVlesson
p523
F1
sVvnto
p524
F3
sVyour
p525
F9
sVcountrey
p526
F1
sVthere
p527
F1
sVfast
p528
F1
sVwhy
p529
F1
sVhee
p530
F1
sVway
p531
F1
sVeuer
p532
F1
sVletter
p533
F1
sVprince,
p534
F1
sVwas
p535
F5
sVsonne
p536
F1
sVyou.
p537
F1
sVhead
p538
F1
sVyou,
p539
F1
sVdiligence
p540
F1
sVattempted
p541
F1
sVmemory
p542
F1
sVwittie
p543
F1
sVbut
p544
F9
sVsame.
p545
F1
sVsame,
p546
F1
sVletter,
p547
F1
sVwith
p548
F13
sVhe
p549
F3
sViust
p550
F2
sVplaces
p551
F1
sVaffaires
p552
F2
sVpriuately
p553
F2
sVsuspicion
p554
F1
sVioyned
p555
F1
sVthyrd
p556
F1
sVopen:
p557
F1
sVsite
p558
F1
sVhadeck
p559
F1
sVcountrey:
p560
F1
sVdiligently
p561
F1
sVside,
p562
F3
sVlyuely,
p563
F1
sVam
p564
F2
sVan
p565
F1
sVas
p566
F25
sVsometime
p567
F1
sVat
p568
F2
sVsittyng
p569
F1
sVthyngs
p570
F1
sVwilles
p571
F1
sVthyng
p572
F1
sVmonsieur
p573
F1
sVtyme
p574
F1
sVwhen
p575
F3
sVother
p576
F7
sV5
F1
sVbetter
p577
F1
sVhandes
p578
F1
sVyou
p579
F9
sVbacke
p580
F1
sVthucidides
p581
F1
sVreadyng
p582
F1
sValwayes
p583
F1
sVprofite
p584
F1
sVtogether
p585
F2
sVtime
p586
F1
sVwinne
p587
F2
sVconferred
p588
F2
sVhungary,
p589
F1
s.