ccollections
defaultdict
p1
(c__builtin__
float
p2
tRp3
Vo'the
p4
F1
sVarrested!
p5
F1
sVpardon
p6
F1
sVwhoever
p7
F1
sVstay,
p8
F1
sVrob
p9
F2
sVcloath
p10
F1
sVall
p11
F13
sVfoul
p12
F1
sVfoul-ill
p13
F1
sVhath
p14
F1
sVscullion,
p15
F1
sVper
p16
F1
sVgo
p17
F10
sVfollow
p18
F1
sVmill
p19
F2
sVcaptain
p20
F1
sVchildren
p21
F1
sVprovided,
p22
F1
sVwhose
p23
F1
sVcomfort.
p24
F1
sVbuy
p25
F1
sVfray.
p26
F1
sVfather
p27
F1
sVday,
p28
F2
sVfrenchman
p29
F1
sVappointed
p30
F1
sVanswered
p31
F1
sVcharge
p32
F1
sVpost,
p33
F1
sVfray?
p34
F1
sVbeforehand.
p35
F1
sVwomen
p36
F1
sVsent
p37
F4
sVtown
p38
F1
sVespies
p39
F1
sVreturned
p40
F1
sVsong
p41
F1
sVvery
p42
F1
sVfrown,
p43
F1
sVplease.---so
p44
F1
sVfees
p45
F2
sVevery
p46
F1
sVhat,
p47
F1
sVvast
p48
F1
sVfour
p49
F1
sVmarried.
p50
F1
sVknave.---
p51
F1
sVdid
p52
F5
sVhelp,
p53
F1
sVlaying
p54
F1
sVfellow-servant
p55
F1
sVpresent,
p56
F1
sVtry
p57
F2
sVpursue
p58
F1
sVharry
p59
F1
sVround
p60
F1
sVi'll
p61
F9
sVsmock
p62
F1
sVus,
p63
F1
sVsays
p64
F2
sVher.
p65
F1
sVten
p66
F2
sVher,
p67
F7
sVother,
p68
F1
sVme,
p69
F7
sVother.
p70
F1
sVraised
p71
F1
sV---and
p72
F1
sVwrung
p73
F1
sVher?
p74
F2
sVhair,
p75
F1
sVvaliant
p76
F1
sVsoldiers
p77
F2
sVmanner
p78
F1
sVlaws.
p79
F1
sVtarried
p80
F1
sVputting
p81
F1
sVrope
p82
F2
sVwhat
p83
F11
sVstood
p84
F1
sVgiving
p85
F1
sVchin
p86
F1
sVman's
p87
F2
sVhim.
p88
F4
sVwaiting
p89
F1
sVexperiment
p90
F1
sVchace.
p91
F1
sVgoes
p92
F1
sVleave.
p93
F1
sVcudgelled
p94
F1
sVever
p95
F1
sVmethod
p96
F1
sVexercise
p97
F1
sVtold
p98
F7
sVmeg
p99
F26
sVexchange
p100
F1
sVout.---what
p101
F1
sVmistress's
p102
F2
sVnever
p103
F6
sVhere
p104
F1
sVbehaviour
p105
F1
sVdesired
p106
F4
sVmistress,
p107
F2
sVstreet,
p108
F1
sVothers
p109
F1
sVhast
p110
F1
sValong
p111
F1
sVsay,
p112
F1
sVwait
p113
F1
sVbox
p114
F4
sVsending
p115
F1
sVgreat
p116
F3
sVlife,
p117
F1
sV5\u005c.
p118
F1
sVpressed;
p119
F1
sVwent.
p120
F1
sVreceive
p121
F1
sVshift
p122
F1
sVothers,
p123
F1
sVyourself,
p124
F1
sVsoldier
p125
F1
sVi'd
p126
F1
sVhere,
p127
F1
sVrequite
p128
F1
sVsurely
p129
F1
sVi'm
p130
F1
sVjohn's
p131
F2
sVears.---the
p132
F1
sVking
p133
F2
sVlubbers
p134
F1
sVmyself.
p135
F1
sVgentleman,
p136
F2
sVyoung
p137
F2
sVbrought
p138
F1
sVfastening
p139
F1
sVdauphin
p140
F2
sVknow,
p141
F1
sVpress-money
p142
F1
sVconstable?
p143
F1
sVdrank;
p144
F1
sVstaid
p145
F1
sVuse
p146
F1
sVprisoner.
p147
F1
sVbeswinged
p148
F1
sVwould
p149
F12
sVto
p150
F74
sVmargaret,
p151
F1
sVangry
p152
F1
sVmarks;
p153
F1
sVresolutely;
p154
F1
sVtwo
p155
F3
sVabroad
p156
F1
sVwatch,
p157
F1
sVwatch.
p158
F1
sVfame:
p159
F1
sVtherefore
p160
F2
sVtaken
p161
F1
sVthemselves
p162
F1
sVuntil
p163
F1
sVmarks.
p164
F2
sVmore
p165
F1
sVbrewing,
p166
F1
sVroared
p167
F1
sVusher,
p168
F1
sVfaith
p169
F1
sVpurse
p170
F1
sVcompany
p171
F2
sVmarks
p172
F1
sVit,
p173
F3
sVsir,
p174
F2
sVit
p175
F18
sVovertake
p176
F1
sVstick
p177
F1
sVshrove-tuesday,
p178
F1
sVshift,
p179
F1
sVhim?
p180
F1
sVhold
p181
F5
sVname;
p182
F1
sVmirth,
p183
F1
sVmust
p184
F2
sVme
p185
F9
sVbrows,
p186
F1
sVkeeping
p187
F2
sVangel,
p188
F1
sVhawled
p189
F1
sVthis
p190
F17
sVboy
p191
F2
sVwork
p192
F1
sVlaundress
p193
F1
sVarm,
p194
F1
sVcan
p195
F3
sVshroving,
p196
F1
sVlearn
p197
F1
sVknocked
p198
F1
sVmaking
p199
F2
sVbelaboured
p200
F1
sVmy
p201
F8
sVfetch
p202
F1
sVgive
p203
F5
sVheard
p204
F1
sVwoman
p205
F1
sVpulling
p206
F2
sVperformed
p207
F1
sVwant
p208
F2
sVallowed
p209
F1
sVfashions,
p210
F1
sVmouth,
p211
F1
sVwalls,
p212
F1
sVlasses.
p213
F1
sVsir
p214
F11
sVneeds
p215
F2
sVlame
p216
F1
sVshe,
p217
F20
sVsix
p218
F1
sVparlour
p219
F1
sVstayed
p220
F1
sVcudgel,
p221
F1
sVhow
p222
F6
sVswear
p223
F2
sVsword
p224
F1
sVcudgel;
p225
F1
sVass.---so
p226
F1
sVmeat,
p227
F1
sVhands,
p228
F3
sVdisgraced
p229
F1
sVafter
p230
F2
sVlasses,
p231
F1
sVlasses
p232
F2
sVpiece,
p233
F1
sVobstinate,
p234
F1
sVhereupon
p235
F1
sVlay
p236
F1
sVcoming
p237
F5
sVsuch
p238
F7
sVcourage.
p239
F1
sVforemost
p240
F1
sVman
p241
F2
sVa
F66
sVpike
p242
F1
sVendeavoured
p243
F1
sVgrant
p244
F1
sVconditions.---upon
p245
F1
sVor
p246
F6
sVso
p247
F21
sVtavern;
p248
F1
sVcarrier,
p249
F3
sVtall
p250
F1
sVlooking
p251
F1
sVpulled
p252
F1
sVbegan
p253
F2
sVthou?
p254
F1
sVreplied
p255
F1
sVnicholas's
p256
F1
sV---pho!
p257
F1
sVperswade
p258
F1
sVtales
p259
F1
sVhand,
p260
F2
sVcastile,
p261
F2
sVsoon
p262
F2
sVyears
p263
F1
sVended
p264
F1
sVdown,
p265
F1
sVbanged
p266
F1
sVears,
p267
F2
sVgoods.
p268
F1
sVbefore
p269
F5
sVshorter
p270
F1
sVthey,
p271
F2
sVthumb
p272
F1
sVtill
p273
F1
sVpray
p274
F2
sVdid,
p275
F3
sVcudgel
p276
F2
sVtorn
p277
F1
sVhabit,
p278
F1
sVabbey
p279
F1
sVale,
p280
F1
sVretook
p281
F1
sVsattin
p282
F1
sVcorner,
p283
F1
sVmight
p284
F1
sVyeoman
p285
F1
sVit.
p286
F2
sVthen
p287
F12
sVthem
p288
F12
sVgood
p289
F6
sVhostess,
p290
F2
sVfields---well,
p291
F1
sVknightsbridge,
p292
F1
sVthee
p293
F5
sVmasters,
p294
F1
sVquarrel,
p295
F1
sVcommended
p296
F1
sVwalls
p297
F1
sVit;
p298
F1
sVthey
p299
F18
sVhalf
p300
F1
sVnot
p301
F18
sVnow
p302
F2
sVday
p303
F2
sVnor
p304
F1
sVgrowing
p305
F1
sVservant
p306
F1
sVjames
p307
F4
sVarrested
p308
F1
sVjames,
p309
F2
sVby.
p310
F1
sVlabour,
p311
F1
sVfields
p312
F1
sVfound
p313
F1
sVwent
p314
F4
sVall;
p315
F1
sVside
p316
F1
sVesteem.
p317
F1
sVhouse!
p318
F1
sVdrum,
p319
F1
sVhouse
p320
F3
sVhard
p321
F1
sVhouse,
p322
F5
sVchandler's
p323
F1
sVthem,
p324
F4
sVwestminster.---
p325
F1
sVour
p326
F5
sVbeyond
p327
F1
sVadvantage;
p328
F1
sVout
p329
F10
sVgallant
p330
F1
sVleave
p331
F1
sVengage.---nay,
p332
F1
sVyes,
p333
F1
sVcreditor
p334
F3
sVwondered
p335
F1
sVthus:
p336
F1
sVconfess
p337
F1
sVsince
p338
F2
sVtoo;
p339
F1
sVcontent
p340
F2
sVlaid
p341
F2
sVgot
p342
F2
sVmistresses.
p343
F1
sVsalute
p344
F1
sVfriends,
p345
F1
sV1\u005c.
p346
F1
sV"domine;
p347
F1
sVturning
p348
F1
sVlove
p349
F2
sVjames?---marry,
p350
F1
sVturned
p351
F1
sVrevenge
p352
F1
sVfire.
p353
F1
sVquart
p354
F1
sVcarcase
p355
F1
sVbestow
p356
F1
sVbase
p357
F1
sVwhereupon
p358
F6
sVput
p359
F5
sVknight.
p360
F1
sVmistress
p361
F3
sVpress-money,
p362
F1
sVcare
p363
F1
sVgo,
p364
F2
sVgo.
p365
F1
sVgoest
p366
F1
sVcorn
p367
F1
sVcould
p368
F3
sVwoman's
p369
F2
sVkeep
p370
F1
sVfellow,
p371
F1
sVlicked
p372
F1
sVher;
p373
F1
sVplace
p374
F2
sVsecondly,
p375
F1
sVgo;
p376
F1
sVlove,
p377
F1
sVthink
p378
F1
sVmanhood,
p379
F1
sVfirst
p380
F1
sVscalding
p381
F1
sVwronged
p382
F1
sVtoo.
p383
F1
sVmeet
p384
F1
sVme.---where
p385
F1
sVnumber
p386
F1
sVone
p387
F12
sVjuncture
p388
F1
sVdone
p389
F1
sVspanish
p390
F1
sVcarry
p391
F1
sVhim.---on
p392
F1
sVdrove
p393
F1
sVprison,
p394
F1
sVhave,
p395
F1
sVfriend.
p396
F1
sVlittle
p397
F2
sVbe.
p398
F1
sVbeating
p399
F2
sVknight,
p400
F1
sVmarry,
p401
F2
sVtwenty
p402
F1
sVst.
p403
F6
sVtwo-pence.
p404
F1
sVtheir
p405
F11
sVdoors.
p406
F1
sVpurpose.
p407
F1
sVtoo
p408
F1
sVpassed
p409
F1
sVclean.---thou
p410
F1
sVmaster
p411
F1
sVwhite
p412
F1
sVjohn
p413
F2
sVbehaved
p414
F2
sVgod's
p415
F1
sVpurses,
p416
F1
sVfirst,
p417
F1
sVblow,
p418
F1
sVfeast;
p419
F1
sVthat
p420
F20
sVenough,
p421
F1
sVserve
p422
F1
sVtook
p423
F6
sVmuch.
p424
F1
sVbehoves
p425
F1
sVhut
p426
F1
sVpart
p427
F2
sVdischarge,
p428
F1
sVwas.
p429
F1
sVblows,
p430
F1
sVherself
p431
F1
sVthan
p432
F2
sVbologne;
p433
F1
sVthree-pence.
p434
F1
sVopinions.---as
p435
F1
sVhundred
p436
F5
sVshe.---nay,
p437
F1
sVpain,
p438
F1
sVwind-mill.
p439
F1
sVhead;
p440
F1
sVlaughing,
p441
F1
sVnevertheless
p442
F1
sVpot,
p443
F1
sVto,
p444
F2
sVwere
p445
F2
sVhead.
p446
F2
sVmisreckon
p447
F1
sVhead,
p448
F3
sVislington
p449
F1
sVall.---content,
p450
F1
sVand
p451
F131
sVservice.
p452
F1
sVangel
p453
F1
sVrobbed,
p454
F1
sVfeet.---by
p455
F1
sVfights
p456
F1
sVmind
p457
F1
sVwhole.---but
p458
F1
sVwell,
p459
F2
sVsay
p460
F1
sVmajesty.---thus
p461
F1
sVhappened.
p462
F1
sVpage;
p463
F1
sVhave
p464
F11
sVfoiled
p465
F1
sVmiller
p466
F4
sVseem
p467
F1
sVthieves
p468
F1
sVany
p469
F7
sVsat
p470
F1
sVforced
p471
F1
sVhand.---not
p472
F1
sVstrength
p473
F2
sVon,
p474
F2
sVdo,
p475
F1
sVreplied,
p476
F1
sVimpotent
p477
F1
sV---marry,
p478
F1
sVendangered
p479
F1
sVmr.
p480
F1
sVcaesar
p481
F1
sVgrew
p482
F1
sVtake
p483
F6
sVwhich
p484
F11
sVthieves,
p485
F2
sVhanging.
p486
F1
sVday.
p487
F1
sVdexterity,
p488
F1
sVbravado,
p489
F1
sVquoth
p490
F10
sValleviate
p491
F1
sVwestminster;
p492
F1
sVshall
p493
F9
sVwho
p494
F9
sVgowns
p495
F3
sVpaid
p496
F1
sVwestminster,
p497
F3
sVwench,
p498
F1
sVwelcome.
p499
F1
sVstrikes
p500
F1
sVlong,
p501
F2
sVpart.
p502
F1
sVsally
p503
F1
sVwhy
p504
F1
sVhusband's
p505
F1
sVjeeringly,
p506
F1
sVbred
p507
F1
sVconstable
p508
F5
sVspill
p509
F1
sVstrength;
p510
F1
sVowed?
p511
F1
sVgentlewoman's
p512
F1
sVkilled,
p513
F1
sVleft
p514
F1
sVlancashire
p515
F1
sVdragged
p516
F1
sVcame
p517
F12
sVlandlady
p518
F1
sVstones
p519
F1
sVthomas
p520
F1
sVknock.
p521
F1
sVinvited
p522
F1
sVknock,
p523
F1
sVword,
p524
F1
sVagreed
p525
F1
sVmemorandum
p526
F1
sVone,
p527
F1
sVpride,
p528
F1
sVbring
p529
F1
sVcannot,
p530
F1
sVpurses
p531
F1
sVstepping
p532
F1
sVluck,
p533
F1
sVcorner
p534
F1
sVafter,
p535
F1
sVdetermined
p536
F1
sVfine
p537
F1
sVso;
p538
F1
sVstaff
p539
F1
sVear,
p540
F2
sVtrue,
p541
F1
sVwear
p542
F1
sVunkind
p543
F1
sVnotice
p544
F1
sVwith
p545
F30
sVbehind
p546
F1
sVshould
p547
F4
sVox,
p548
F1
sVheld
p549
F1
sVgoing
p550
F1
sVcompter.---she
p551
F1
sVmoney
p552
F3
sVheartily
p553
F1
sVdomine.
p554
F1
sVmaster;
p555
F1
sVdo
p556
F3
sVhis
p557
F28
sVhit
p558
F1
sVundone.
p559
F1
sVsoldier,
p560
F1
sVget
p561
F2
sVbeat
p562
F3
sVde
p563
F1
sVyielded
p564
F1
sVloath
p565
F1
sVcourage
p566
F1
sVmisfortune
p567
F1
sVplease,
p568
F1
sVcommission,
p569
F1
sVreport
p570
F1
sVgeorge's
p571
F2
sVhim
p572
F28
sVdrew,
p573
F1
sVreveal
p574
F1
sVpressed
p575
F1
sVmeg;
p576
F1
sVtossing
p577
F1
sVviee
p578
F1
sVcalling
p579
F1
sVbook
p580
F1
sVmen.
p581
F2
sVshe
p582
F47
sVfriends.
p583
F1
sVthem.
p584
F1
sVrapped
p585
F1
sVcounted
p586
F1
sVwhere
p587
F1
sVdoublet
p588
F1
sVears
p589
F2
sVpumel
p590
F1
sVset
p591
F4
sVsignify
p592
F1
sVmelancholy
p593
F1
sV4\u005c.
p594
F1
sVtail?
p595
F1
sVsee
p596
F3
sVare
p597
F3
sVmatter;
p598
F1
sVthey.---now
p599
F1
sVrewarded
p600
F1
sVbones.---marry,
p601
F1
sVvicars
p602
F1
sVcome,
p603
F2
sVground.
p604
F1
sVsaid
p605
F40
sVbastinadoes,
p606
F1
sVaway
p607
F2
sVmeg,
p608
F5
sVgentleman
p609
F3
sVmiddle,
p610
F1
sVstate
p611
F1
sVthere's
p612
F2
sVbetween
p613
F1
sVailed
p614
F1
sVdurst
p615
F1
sVman,
p616
F2
sVyou.---marry,
p617
F1
sVwe
p618
F3
sVmen
p619
F1
sVcavalier
p620
F1
sVhowever
p621
F1
sVcut
p622
F1
sVspare
p623
F2
sVdrew
p624
F1
sVcome
p625
F2
sVboth
p626
F1
sV3\u005c.
p627
F1
sVcondition,
p628
F1
sVlast
p629
F1
sVrepeating
p630
F1
sVmet
p631
F2
sVthou
p632
F3
sVtaking
p633
F4
sVaccording
p634
F1
sVdemanded
p635
F2
sVold,
p636
F1
sVentered,
p637
F1
sVcaps.---and
p638
F1
sVway,
p639
F1
sVpate
p640
F2
sVasked
p641
F9
sVvicar,
p642
F1
sVnay,
p643
F2
sVcurry,
p644
F1
sVchampion,
p645
F1
sVtown,
p646
F1
sVgone
p647
F2
sVpot
p648
F2
sVmoney.
p649
F1
sVmoney,
p650
F1
sVactive
p651
F1
sVfrosty
p652
F1
sVimportunate
p653
F1
sVcuthbert
p654
F1
sVquit
p655
F1
sVwere?
p656
F1
sVshop,
p657
F1
sVasks
p658
F1
sVthing.---let
p659
F1
sVthree
p660
F4
sVhe.---so
p661
F1
sVwhom
p662
F1
sVchoice.
p663
F1
sVmuch
p664
F5
sVthere;
p665
F1
sVyonder,
p666
F1
sVmeeting
p667
F1
sVempty
p668
F1
sVthrew
p669
F1
sVlife
p670
F1
sVlancashire,
p671
F1
sVking,
p672
F1
sVlustily
p673
F1
sVgiven
p674
F1
sVsearch
p675
F1
sVwhatever
p676
F1
sVfellow
p677
F2
sVsave
p678
F2
sVthese
p679
F4
sVplain
p680
F1
sVagreement,
p681
F1
sVbuckled
p682
F1
sVjoyful
p683
F1
sVwill
p684
F12
sV2\u005c.
p685
F1
sVwill,
p686
F1
sVlife.
p687
F2
sVgave
p688
F6
sVart,
p689
F1
sVpromised
p690
F2
sVowed
p691
F1
sVfaith,
p692
F1
sVis
p693
F11
sVspectacle
p694
F1
sVthus
p695
F1
sVbaking,
p696
F1
sVhim.---at
p697
F1
sVagainst
p698
F2
sVin
p699
F27
sVcommanded
p700
F1
sVsaid,
p701
F7
sVjames's
p702
F2
sVif
p703
F17
sVfourteen
p704
F1
sVbailiff
p705
F5
sVcontaining
p706
F1
sVaway,
p707
F1
sVlet
p708
F3
sVdoctor
p709
F1
sVpay
p710
F6
sVmake
p711
F8
sVcame,
p712
F1
sVinsomuch,
p713
F1
sVgentlemen
p714
F1
sVmiller,
p715
F1
sVswore,
p716
F1
sVroom,
p717
F1
sVlusty
p718
F1
sVfairly
p719
F1
sVforsooth,
p720
F1
sVknitting
p721
F1
sVfrenchmen
p722
F3
sVbald
p723
F1
sVupon
p724
F4
sVcatch-poles;
p725
F1
sVhand
p726
F1
sVdriven
p727
F1
sVpersons
p728
F1
sVdesiring
p729
F2
sVi,
p730
F1
sVsupper
p731
F1
sVsupper-time,
p732
F1
sVnobleman,
p733
F1
sVknights,
p734
F1
sVcomplained
p735
F1
sVthey.---then
p736
F1
sVoff
p737
F6
sVentreated
p738
F1
sVthy
p739
F1
sVi
F28
sVmakes
p740
F1
sVweapon
p741
F1
sVwell
p742
F2
sVspent
p743
F1
sVfighting
p744
F2
sVwithout
p745
F1
sVthought
p746
F2
sVperson
p747
F1
sVamends
p748
F1
sVdoors,
p749
F1
sVmaid,
p750
F1
sVenglish
p751
F3
sVthe
p752
F121
sVcharged
p753
F1
sVpenny,
p754
F1
sVrestore
p755
F1
sVsoldiers,
p756
F1
sVcried
p757
F1
sVexploits,
p758
F1
sVbeing
p759
F12
sVplaces.
p760
F1
sVmatter.
p761
F1
sVdrummer
p762
F1
sVany?---aye,
p763
F1
sVwenches
p764
F2
sVknaves,
p765
F1
sVpenny;
p766
F2
sVdepart
p767
F1
sVgoing?
p768
F1
sVmatter?
p769
F1
sVunto
p770
F4
sVafterwards
p771
F1
sVblow
p772
F2
sVreckoning
p773
F1
sVinjures
p774
F1
sVtester.
p775
F1
sVhad
p776
F14
sVjeered
p777
F1
sVarrest
p778
F2
sVshout
p779
F1
sVknave,
p780
F1
sVobedient
p781
F1
sVbeloved
p782
F1
sVwin
p783
F1
sVusage
p784
F4
sVstruck
p785
F2
sVhas
p786
F3
sVhat
p787
F1
sVrope,
p788
F1
sVpond,
p789
F1
sVdo?
p790
F1
sVthee.
p791
F1
sVsurprised,
p792
F1
sVdoors
p793
F1
sValso;
p794
F1
sVbriskly.
p795
F1
sVbid
p796
F2
sVsack,
p797
F1
sVsorrow,
p798
F1
sVfive
p799
F1
sVknow
p800
F1
sVpress
p801
F1
sVimmediately
p802
F2
sVpate.
p803
F1
sVgroat,
p804
F1
sVblood.---wer't
p805
F1
sVgranted,
p806
F1
sVlike
p807
F4
sVsubmission
p808
F1
sVhim,
p809
F5
sVafter.
p810
F1
sVengland,
p811
F1
sVvalour.
p812
F1
sVfrench
p813
F1
sVobeyed.---marry,
p814
F1
sVsteps
p815
F1
sVnight
p816
F2
sVwoman,
p817
F2
sVserved
p818
F1
sVwoman.
p819
F1
sVtable,
p820
F1
sVislington,
p821
F1
sVbecause
p822
F1
sVold
p823
F2
sVoften
p824
F4
sVshillings
p825
F3
sVwhither
p826
F1
sVsome
p827
F3
sVback
p828
F2
sVhair
p829
F2
sVbroke,
p830
F1
sVusher
p831
F1
sVconstables
p832
F1
sVproper
p833
F2
sVunless
p834
F2
sVmeg's
p835
F7
sVbones,
p836
F1
sVlondon.
p837
F1
sVnobleman
p838
F4
sVpeace.
p839
F1
sVcombat
p840
F1
sVfor
p841
F27
sVwillis
p842
F5
sVlend
p843
F1
sVsake,
p844
F2
sVbest
p845
F2
sVangel.
p846
F1
sVthief's
p847
F1
sVconquering
p848
F1
sVeight-pence
p849
F2
sVcrying,
p850
F1
sVdrink
p851
F1
sVanswers,
p852
F1
sVmight,
p853
F1
sVknew
p854
F1
sVcry
p855
F1
sVknees,
p856
F1
sVshe.
p857
F1
sVconstable,
p858
F2
sVoriginem."
p859
F1
sVpetticoat,
p860
F1
sVquarrelled
p861
F1
sVhim.---o
p862
F1
sVhung
p863
F1
sVfather,
p864
F1
sVcalve's
p865
F1
sVfrom
p866
F4
sVpost
p867
F1
sVby
p868
F9
sVconstable;
p869
F1
sVhearing
p870
F1
sVon
p871
F16
sVabout
p872
F6
sVworld
p873
F1
sVmost
p874
F1
sVof
p875
F49
sVshaved,
p876
F1
sVin.
p877
F1
sVo
F2
sVmine,
p878
F1
sVcarrier
p879
F6
sVknave
p880
F2
sVact
p881
F1
sVout,
p882
F5
sVmeddle
p883
F1
sVout.
p884
F1
sVseeing
p885
F5
sVvicar
p886
F2
sVdistressed.
p887
F1
sVfor,
p888
F1
sVowe
p889
F2
sVinto
p890
F6
sVneedle,
p891
F1
sVblessed
p892
F1
sVagreed,
p893
F1
sVdown
p894
F7
sVbeen
p895
F2
sVfemale
p896
F1
sVstrip
p897
F1
sVextraordinary
p898
F1
sVmorning,
p899
F1
sVyour
p900
F9
sVblows;
p901
F1
sVvicar's
p902
F1
sVstrand,
p903
F1
sVher
p904
F77
sVmeg.---with
p905
F1
sVthere
p906
F4
sVdisposed
p907
F1
sVlong
p908
F6
sVlost
p909
F1
sVaccordingly
p910
F1
sVbeen.---the
p911
F1
sVlaughed,
p912
F1
sVprevent,
p913
F1
sVobliged
p914
F1
sVcall
p915
F1
sVplace.
p916
F1
sVwas
p917
F26
sVinnocents.
p918
F1
sVdeparted.
p919
F1
sVyou.
p920
F1
sVhead
p921
F3
sVhimself
p922
F2
sVhands;
p923
F1
sVbut
p924
F22
sVlives.---i
p925
F1
sVreckoning.
p926
F1
sVdecorum,
p927
F1
sVyou;
p928
F1
sVhalberd
p929
F2
sVpay,
p930
F2
sVanother,
p931
F2
sVbe
p932
F11
sVear
p933
F2
sVreel
p934
F1
sVhe
p935
F35
sVabused
p936
F1
sVmade
p937
F2
sVprinciples:
p938
F1
sVsmiling,
p939
F1
sVname?---she
p940
F1
sVare,
p941
F1
sVhe?
p942
F1
sVup
p943
F9
sVus
p944
F3
sVtell
p945
F1
sVcaptain,
p946
F1
sVplaced
p947
F1
sVears.---with
p948
F1
sVhe,
p949
F4
sVcalled
p950
F2
sVears.
p951
F1
sVlandlady,
p952
F1
sVe'er
p953
F1
sVdoor.
p954
F1
sVhouse;
p955
F1
sVwestminster.---so
p956
F1
sVscore.
p957
F1
sVam
p958
F4
sVan
p959
F14
sVarms.
p960
F1
sVas
p961
F13
sVassociates
p962
F1
sVfriend;
p963
F1
sVat
p964
F18
sVconditions?
p965
F1
sVwalks
p966
F1
sVdeed
p967
F1
sVagain
p968
F2
sVknave;
p969
F1
sVno
p970
F10
sVwhen
p971
F1
sVcrowns
p972
F1
sVclubs,
p973
F1
sVwestminster
p974
F2
sVknave.
p975
F1
sVother
p976
F3
sVenquired
p977
F1
sVseverely;
p978
F1
sVprey,
p979
F1
sVyou
p980
F31
sVname,
p981
F2
sVpoor
p982
F2
sVagain.
p983
F1
sVin;
p984
F1
sVfelt
p985
F3
sVwashing,
p986
F1
sVstay
p987
F1
sVin,
p988
F2
sVpurses.
p989
F1
sVdishonour
p990
F1
sVfell
p991
F7
sVlent
p992
F2
sVbologne.
p993
F3
sVovercame
p994
F1
sVhurt
p995
F5
sVfriends
p996
F2
sVwater
p997
F1
sVher.---but
p998
F1
sVstirred
p999
F1
sVarrested.---
p1000
F1
sVcalls
p1001
F1
sVwife
p1002
F1
sVnight,
p1003
F1
sVtogether
p1004
F2
sVback.
p1005
F1
sVrepay
p1006
F1
sVsword,
p1007
F1
sVsaying,
p1008
F1
sVtime
p1009
F1
sVpush
p1010
F1
sVfresh
p1011
F1
sVhiw
p1012
F1
sVhaving
p1013
F5
sVonce
p1014
F1
s.