ccollections
defaultdict
p1
(c__builtin__
float
p2
tRp3
Vall
p4
F1
sVcynthia
p5
F1
sVhistoriographer.
p6
F1
sVseemed
p7
F1
sVwhose
p8
F1
sVcontayn
p9
F1
sVfather
p10
F1
sVto
p11
F11
sVpleasing
p12
F1
sVarthure
p13
F2
sVtimon
p14
F1
sVpresently
p15
F1
sVpresented
p16
F1
sVknight
p17
F3
sVdeuise
p18
F1
sVthis
p19
F1
sVdonne,
p20
F1
sVher.
p21
F1
sV(according
p22
F1
sVbe
p23
F2
sVthroughly
p24
F1
sVdesire.
p25
F1
sVgraunted,
p26
F1
sVholynes:
p27
F1
sVseeke
p28
F2
sVhim,
p29
F1
sVabrupte
p30
F1
sVrest,
p31
F1
sVfalling
p32
F2
sVbeautifull
p33
F1
sVtold
p34
F2
sVchristian
p35
F1
sVexployt.
p36
F1
sVdesired
p37
F2
sVmy
p38
F3
sVhistorical
p39
F1
sVclownishe
p40
F1
sVgenerall
p41
F1
sVcompany,
p42
F1
sVbesought
p43
F1
sVarmes
p44
F1
sVnames
p45
F1
sVthinges
p46
F2
sVlady,
p47
F1
sVor
p48
F1
sVhandled
p49
F1
sVwould
p50
F1
sVtwo
p51
F1
sVaebe
p52
F1
sVtherefore
p53
F3
sVresolued
p54
F1
sVmore
p55
F1
sVthree.
p56
F1
sVparticular
p57
F1
sVwondering,
p58
F1
sVcomplayned
p59
F1
sVhistoriographer
p60
F2
sVladye
p61
F1
sVasse,
p62
F1
sVbene
p63
F1
sVconsidering
p64
F1
sVselfe
p65
F1
sVassygne
p66
F1
sVserue
p67
F1
sVhuge
p68
F1
sVneeds
p69
F1
sVend
p70
F1
sVwrite
p71
F1
sVsuffred
p72
F1
sVentred
p73
F1
sVbeauty
p74
F1
sVsir
p75
F1
sVafter
p76
F1
sVrusticity
p77
F1
sVdwarfes
p78
F1
sVman
p79
F2
sVa
F17
sVthird
p80
F1
sVdragon
p81
F1
sVso
p82
F2
sVtall
p83
F1
sVspeare
p84
F1
sVhand.
p85
F1
sVyears
p86
F1
sVcourse
p87
F1
sVthrough
p88
F1
sVtemperaunce:
p89
F1
sVplayne.
p90
F1
sVaffayres
p91
F1
sVbefore
p92
F2
sVdwarfe
p93
F1
sVconceiue
p94
F1
sVforthwith
p95
F1
sVbetter
p96
F1
sVstrange
p97
F1
sVsoone
p98
F1
sVmight
p99
F2
sVthen
p100
F1
sVthem
p101
F2
sVgainesaying,
p102
F1
sVaduentures.
p103
F1
sVhistory,
p104
F1
sVmention
p105
F1
sVthey
p106
F1
sVnot
p107
F4
sVhistory:
p108
F1
sVone
p109
F2
sVname
p110
F1
sVfaire
p111
F1
sVoccasions
p112
F1
sVall,
p113
F1
sVfeast
p114
F1
sVwent
p115
F2
sVvertue,
p116
F1
sVbooke
p117
F1
sVbooks
p118
F1
sVour
p119
F1
sVdiuining
p120
F1
sVdiana.)
p121
F1
sVforth
p122
F4
sV(that
p123
F1
sVshut
p124
F1
sVezpresse
p125
F1
sVmourning
p126
F1
sVchastity.
p127
F1
sVput
p128
F1
sVbeginning
p129
F3
sVpersons,
p130
F1
sVcould
p131
F1
sVtimes
p132
F1
sVleading
p133
F1
sVkingdome
p134
F1
sV(as
p135
F1
sVfirst
p136
F3
sVcynthia,
p137
F1
sVcourser,
p138
F1
sVeuen
p139
F1
sVhapned,
p140
F1
sVfeaste
p141
F2
sVancient
p142
F1
sVknight,
p143
F2
sVxii
p144
F1
sVsaint
p145
F1
sVwhite
p146
F1
sVconcerneth
p147
F1
sVexcellent
p148
F3
sVthat
p149
F22
sVfeast,
p150
F1
sVpart
p151
F1
sVking
p152
F1
sVantecedents,
p153
F1
sVwere
p154
F2
sVknights
p155
F2
sVapplyable
p156
F1
sVand
p157
F21
sVbritomartis
p158
F1
sVawaking
p159
F1
sVintention,
p160
F1
sVgentle
p161
F1
sVmanner
p162
F1
sVhave
p163
F1
sVany
p164
F1
sVarmed,
p165
F1
sVdepending
p166
F1
sVlatter
p167
F1
sVdiscourseth
p168
F1
sVtake
p169
F1
sVwhich
p170
F10
sVconteineth
p171
F1
sVdayes,
p172
F2
sVqueene
p173
F6
sVwho
p174
F2
sVvndertaken
p175
F1
sVmost
p176
F4
sVvertues,
p177
F1
sVbeginneth
p178
F1
sVforepaste,
p179
F1
sVpatrones,
p180
F1
sVorderly
p181
F1
sVbrasen
p182
F1
sVoccasion
p183
F1
sVconceipt
p184
F1
sVwas)which
p185
F1
sVempresse,
p186
F1
sVdeedes
p187
F1
sVqueen
p188
F1
sVvpon
p189
F2
sVmerlin
p190
F1
sVwith
p191
F4
sVrest)
p192
F1
sVshould
p193
F2
sVinstructed,
p194
F1
sVseemeth
p195
F1
sVriding
p196
F1
sVhis
p197
F3
sVmeane
p198
F1
sVperfection
p199
F1
sVduring
p200
F2
sVhim
p201
F7
sVplaces
p202
F2
sVeftesoones
p203
F1
sVannuall
p204
F1
sV(ph
p205
F1
sVshe
p206
F3
sVwhere
p207
F3
sVvnfitte
p208
F1
sVrauished,
p209
F1
sVrecoursing
p210
F1
sVare
p211
F1
sVvppon
p212
F1
sVpricking
p213
F1
sVcome,
p214
F1
sVyounge
p215
F1
sVfaeries,
p216
F1
sVprince
p217
F1
sVbehind
p218
F1
sVman,
p219
F1
sVredcrosse,
p220
F1
sVsucceed
p221
F1
sVweedes,
p222
F1
sVboth
p223
F1
sVmany
p224
F1
sVtaking
p225
F1
sVthence
p226
F1
sVaccording
p227
F1
sVgoodliest
p228
F1
sVfurnitures
p229
F1
sVwhole
p230
F2
sVglorious
p231
F1
sVotherwise
p232
F1
sVliked
p233
F1
sVels,
p234
F1
sVvertue
p235
F1
sVenterprise,
p236
F1
sVbeareth
p237
F1
sVmounting
p238
F1
sVthree
p239
F2
sVmuch
p240
F2
sVpoet
p241
F2
sVfaerye
p242
F1
sVknighthood,
p243
F1
sVowne
p244
F1
sVthese
p245
F3
sVparticular,
p246
F1
sVis
p247
F4
sVit
p248
F5
sVvp
p249
F1
sVsoueraine
p250
F1
sVin
p251
F24
sVif
p252
F1
sVmake
p253
F1
sVfashioning
p254
F1
sVseuerally
p255
F1
sVtwelfth
p256
F1
sVye
p257
F1
sVv.
p258
F1
sVknights,
p259
F1
sVkept
p260
F1
sVi
F12
sVwell
p261
F2
sVanalysis
p262
F1
sVperson
p263
F3
sVmother
p264
F1
sVthe
p265
F53
sVbeing
p266
F5
sVarmour
p267
F2
sVsteed,
p268
F1
sVmaketh
p269
F1
sVpaul
p270
F1
sVyet
p271
F2
sVqueene,
p272
F2
sVhad
p273
F1
sVearnestly
p274
F1
sVmiddest,
p275
F1
sVknow
p276
F1
sVshadow
p277
F1
sVlady
p278
F3
sVyssew:
p279
F1
sVworke
p280
F1
sVall.
p281
F1
sVthrusteth
p282
F1
sVthereunto,
p283
F1
sVactions,
p284
F1
sVfaries
p285
F1
sVbecause
p286
F1
sVseuerall
p287
F4
sVsome
p288
F3
sVrefuse:
p289
F1
sVmethode
p290
F1
sVatchieuement
p291
F1
sVspecified
p292
F1
sVbore
p293
F1
sVfor
p294
F6
sVsette
p295
F2
sVwhome
p296
F3
sVclownish
p297
F1
sVguyon,
p298
F1
sVfaery
p299
F4
sVroyall
p300
F1
sVlady.
p301
F1
sVby
p302
F6
sVseconde
p303
F1
sVon
p304
F7
sVvz.
p305
F1
sVof
p306
F33
sVout,
p307
F1
sVvpstarting,
p308
F1
sVsuch,
p309
F1
sVhappen,
p310
F1
sVinto
p311
F1
sVbelphoebe,
p312
F1
sVshee
p313
F1
sVyour
p314
F1
sVbrought,
p315
F1
sVdewe
p316
F1
sVher
p317
F10
sVthere
p318
F2
sVhee
p319
F1
sVlast,
p320
F1
sVplace.
p321
F1
sVwas
p322
F4
sVvertuous
p323
F1
sVbut
p324
F4
sVwarlike
p325
F1
sVland.
p326
F2
sVhe
p327
F7
sVglory
p328
F1
sVthis.
p329
F1
sVexpresse
p330
F1
sVal
p331
F1
sVan
p332
F5
sVas
p333
F5
sVaristotle
p334
F1
sVaccounting
p335
F1
sVdoe
p336
F2
sVunlesse
p337
F1
sVvariety
p338
F1
sVbooke.
p339
F1
sVbooke,
p340
F1
sVwhereat
p341
F1
sVaduenture,
p342
F1
sVother
p343
F4
sVaduenture:
p344
F2
sVimportuned
p345
F1
sVpicture
p346
F1
sVephes.)
p347
F1
sVrested
p348
F1
sVxii.
p349
F6
sVmagnificence
p350
F1
sVdiscoursed.
p351
F1
sV&c.
p352
F1
sVcastle,
p353
F1
sVfloore,
p354
F1
sVaduentures
p355
F1
sVbookes
p356
F1
sVboone
p357
F1
s.