ccollections
defaultdict
p1
(c__builtin__
float
p2
tRp3
Vall
p4
F9
sVhimselfe:
p5
F1
sVdissolution
p6
F1
sVexpence
p7
F1
sVperuse
p8
F2
sVhorded
p9
F1
sVhath
p10
F5
sVtranslation,
p11
F1
sVtranslation)
p12
F1
sVimpudencie;
p13
F1
sVgouernement;
p14
F1
sVfollow
p15
F1
sVsoule
p16
F3
sV(which
p17
F1
sVcomfort,
p18
F1
sVwhose
p19
F5
sVemptie
p20
F1
sVhelpe
p21
F1
sVeuery
p22
F2
sVrenown'de
p23
F1
sVprophecie
p24
F1
sVpoore
p25
F1
sVto
p26
F42
sVthose
p27
F2
sVbreach
p28
F1
sVtreades
p29
F1
sVworth
p30
F1
sVhomer
p31
F2
sVfeuered
p32
F1
sVhorror
p33
F1
sVstomackes
p34
F1
sVwitted
p35
F1
sVexact
p36
F1
sVwriting.
p37
F1
sVnectar
p38
F1
sVdid
p39
F1
sVlanguage,
p40
F1
sVbest:
p41
F1
sVrace
p42
F1
sVexcellence
p43
F1
sVquick
p44
F1
sVesteemde
p45
F1
sVturne
p46
F2
sVsentences,
p47
F1
sVdisciplines
p48
F1
sVdirection,
p49
F1
sV(whom
p50
F1
sVme,
p51
F1
sVhonord
p52
F2
sVadorne
p53
F1
sVsecond
p54
F1
sVriches,
p55
F1
sVothers,
p56
F1
sVthat,
p57
F1
sVwhat
p58
F1
sVabundant
p59
F1
sVconstitution
p60
F1
sVnatiue
p61
F2
sVlesse
p62
F2
sVfirme
p63
F1
sVrest.
p64
F1
sVarrogancie,
p65
F1
sVdoting
p66
F1
sVhonor,
p67
F1
sVbeasts
p68
F1
sVmen
p69
F1
sVdisdaine
p70
F1
sVbacks,
p71
F1
sVdisordred
p72
F1
sVlet
p73
F1
sVdetraction:
p74
F1
sVsay,
p75
F1
sVperseuerance
p76
F1
sVgreat
p77
F2
sVsubstance
p78
F1
sVryme,
p79
F1
sVcommandement,
p80
F1
sVinuention
p81
F1
sVhere,
p82
F1
sVgenerall
p83
F1
sVhonor
p84
F3
sVeternall.
p85
F1
sVloue,
p86
F1
sVwar;
p87
F1
sVlaborde
p88
F2
sVwil
p89
F1
sVput
p90
F2
sVintellection
p91
F2
sVgraue
p92
F2
sVengrauen
p93
F1
sVthinges
p94
F2
sVstanding
p95
F1
sVfame,
p96
F4
sVfrom
p97
F7
sVwould
p98
F4
sV&
F8
sVconfounded
p99
F1
sVscepters,
p100
F1
sVtwo
p101
F1
sVnext
p102
F1
sVfew
p103
F1
sVdoubt
p104
F1
sVtherefore
p105
F3
sVtaken
p106
F1
sVfainting
p107
F1
sVcare
p108
F1
sViustice,
p109
F1
sVmore
p110
F7
sVbarbarous
p111
F1
sVeternall
p112
F1
sVholy
p113
F1
sVworthie
p114
F1
sVtumultuous
p115
F1
sVseruile
p116
F1
sVvtterlie
p117
F1
sVexcuse
p118
F1
sVignorant
p119
F1
sVexcellent
p120
F2
sVmagnific
p121
F1
sVobiections,
p122
F2
sVgreeuously
p123
F1
sVmust
p124
F3
sVme
p125
F1
sVviz.
p126
F1
sVthis
p127
F11
sVchallenge
p128
F1
sVcan
p129
F5
sVlawes,
p130
F1
sVmy
p131
F11
sVexample
p132
F2
sVdutifully
p133
F1
sVvanities
p134
F1
sV(with
p135
F2
sVproportions
p136
F1
sVfeare
p137
F1
sVheare
p138
F1
sVpessant-
p139
F1
sVeternizer
p140
F2
sVwant
p141
F2
sVmerited
p142
F1
sVcontempt
p143
F1
sVbereft
p144
F1
sVpompe
p145
F1
sVportage
p146
F1
sVbosome:
p147
F2
sVcomfort
p148
F1
sVwhence
p149
F1
sVsensualities,
p150
F2
sVhow
p151
F1
sVselues;
p152
F1
sVnone)
p153
F1
sVsacred
p154
F3
sVexcellencie
p155
F1
sVfoote,
p156
F2
sVconsecrate:
p157
F1
sVfigures,
p158
F1
sVapprehensiue
p159
F1
sVarmies
p160
F1
sVvouchsafte
p161
F1
sVmay
p162
F3
sVfortune,
p163
F1
sVsuch
p164
F3
sVman
p165
F1
sVa
F5
sVmeane
p166
F1
sVvnworthy
p167
F2
sVconsecrates
p168
F1
sVso
p169
F6
sVbenifite
p170
F1
sVdisposition,
p171
F1
sVworthily,
p172
F1
sVfirst
p173
F2
sVwing
p174
F1
sVessence
p175
F1
sVperuiall
p176
F1
sVcourse
p177
F1
sVown
p178
F1
sVthrough
p179
F1
sVrubbish.
p180
F1
sViliades,
p181
F1
sVphebus
p182
F1
sVwrought
p183
F1
sVvertues
p184
F3
sV(being
p185
F1
sVfit
p186
F1
sVheretofore
p187
F1
sVpolities
p188
F1
sVlikelyhood
p189
F1
sV,
F2
sVhim
p190
F4
sVonelie
p191
F2
sVadmirable
p192
F1
sVworld,
p193
F2
sVbraines
p194
F1
sVthen
p195
F11
sVit,
p196
F2
sVskipped
p197
F1
sVfiue
p198
F1
sVcombination
p199
F1
sVdumbnes
p200
F1
sVdeduction,
p201
F1
sVfower
p202
F1
sVexpect,
p203
F1
sVit:
p204
F1
sVthey
p205
F3
sVnot
p206
F8
sVnow
p207
F1
sVsweetenes
p208
F2
sVnor
p209
F1
sVpursute
p210
F1
sVsoules,
p211
F1
sVhabite
p212
F1
sVdiuine
p213
F4
sVspeech,
p214
F1
sVsoule-infused
p215
F1
sVtruth
p216
F1
sVmuse,
p217
F1
sVaccompanied
p218
F1
sVout
p219
F1
sVvertue,
p220
F2
sVlifted
p221
F1
sVpamper
p222
F1
sVwilbe
p223
F2
sVattribution.
p224
F1
sVperaduenture
p225
F1
sVprinces:
p226
F1
sVexpect
p227
F1
sVexceeded
p228
F1
sVour
p229
F5
sVparts?
p230
F1
sVrefinde,
p231
F1
sVborne
p232
F1
sVbookes:
p233
F1
sVtime;
p234
F1
sVdefend
p235
F1
sVsince
p236
F4
sVgeorge
p237
F1
sVvanitie:
p238
F1
sVencourage
p239
F1
sVhonorable
p240
F1
sVgreeke
p241
F2
sVhomericall
p242
F1
sVlittle
p243
F2
sVfree
p244
F2
sVbringing
p245
F1
sVbase
p246
F1
sVfaculties
p247
F1
sVbesides
p248
F1
sVassentfull
p249
F1
sVmight
p250
F1
sVliberally
p251
F1
sVimportance,
p252
F1
sVprophet
p253
F1
sVcould
p254
F1
sVreade.
p255
F1
sVeta:
p256
F1
sVquintessence
p257
F1
sVplace
p258
F2
sVbulwarkes
p259
F1
sVionia
p260
F1
sV(as
p261
F1
sVproiect:
p262
F1
sVloue
p263
F2
sVlearning,
p264
F1
sVhabilitie;
p265
F1
sVhomere
p266
F1
sVone
p267
F1
sValphabet:
p268
F1
sVgreatest,
p269
F1
sVconsecrate
p270
F1
sVsafron-guilded
p271
F1
sVdefects
p272
F1
sVpresident
p273
F2
sVeminence
p274
F1
sVoportunitie
p275
F1
sVauthor:
p276
F1
sVincitement,
p277
F1
sVpower.
p278
F1
sVpouertie,
p279
F1
sVancient
p280
F1
sV(according
p281
F1
sVneedes
p282
F1
sVvulgar
p283
F1
sVtheir
p284
F12
sVtoo
p285
F1
sV(honorably
p286
F1
sVconceipt,
p287
F1
sVgoddesse,
p288
F1
sVbeare
p289
F1
sVcontaynes
p290
F1
sVdisposition;
p291
F1
sVeyes
p292
F1
sVpiety,
p293
F1
sVfirst,
p294
F1
sVthat
p295
F21
sVmorrow,
p296
F1
sVeternitie:
p297
F1
sVattraction)
p298
F1
sVthawing
p299
F1
sVassaye
p300
F1
sVthudering:
p301
F1
sVheight,
p302
F1
sVaffinitie
p303
F1
sVfuture
p304
F1
sVstore
p305
F1
sVprincelie
p306
F1
sVwere
p307
F2
sVbraueries,
p308
F1
sVfeeling
p309
F1
sVblamelesse
p310
F1
sVearth,
p311
F1
sVand
p312
F69
sVhumblie
p313
F1
sVenforced
p314
F1
sVseason)
p315
F1
sVprefigure
p316
F1
sVremaines
p317
F1
sVsay
p318
F1
sVspeller
p319
F1
sVany
p320
F1
sVportraite
p321
F1
sVstrength
p322
F2
sVadamantine
p323
F1
sVvnfashionable
p324
F1
sViudgement:
p325
F1
sVsoules
p326
F1
sVnote
p327
F1
sVpoesies
p328
F1
sVwhich
p329
F11
sVbrains
p330
F1
sVwish:
p331
F1
sViudgement
p332
F2
sVfilthie
p333
F1
sVreacknowledgement
p334
F1
sVchristall,
p335
F1
sVthough
p336
F1
sVdistracts
p337
F1
sVorations,
p338
F1
sVwho
p339
F2
sVmost
p340
F6
sVvertues.
p341
F1
sVnothing
p342
F1
sVachilles
p343
F3
sVthe
p344
F68
sVespecially
p345
F2
sVtranslated:
p346
F1
sVsoule,
p347
F4
sVsomething,
p348
F1
sVhomer:
p349
F1
sVsoule)
p350
F1
sVpreferre
p351
F1
sVfitted
p352
F1
sVstones
p353
F1
sVimpression
p354
F1
sVset
p355
F1
sVgoldwormes?.
p356
F1
sVattempts
p357
F2
sVsocietie:
p358
F1
sVchapman.
p359
F1
sVearth
p360
F2
sVmaine
p361
F1
sVfield:
p362
F1
sVvpon
p363
F1
sVheapes:
p364
F1
sVknowledge
p365
F2
sVtrue
p366
F9
sVtreasure
p367
F1
sVshould
p368
F1
sVcounsailes,
p369
F1
sVhope
p370
F1
sVoration
p371
F1
sVgodlike
p372
F1
sVdirected
p373
F1
sVhis
p374
F12
sVadmirde
p375
F1
sVwishing
p376
F1
sVbeam
p377
F1
sVexhalde,
p378
F1
sVsepulchres
p379
F1
sVdeserued:
p380
F1
sVeternizde
p381
F1
sVdrounde
p382
F1
sVwrite:
p383
F1
sVspondanus
p384
F1
sVpardoning
p385
F1
sVobiection
p386
F1
sVpaper
p387
F1
sVcommon
p388
F2
sVpoisoned
p389
F1
sVencouragement,
p390
F1
sVburying
p391
F1
sVlabors
p392
F2
sVsee
p393
F1
sVglad
p394
F1
sVare
p395
F4
sVlordship
p396
F1
sVpenurie
p397
F1
sVcanentem
p398
F1
sVvppon
p399
F1
sVreputed
p400
F1
sVpowre
p401
F1
sVmatter
p402
F1
sVchecke
p403
F1
sVconsequentlie
p404
F1
sVspirite
p405
F1
sVdurst
p406
F1
sVwe
p407
F1
sVconceipte,
p408
F1
sVignorance
p409
F1
sVdiuinest
p410
F1
sVcountenance
p411
F1
sVlabor,
p412
F1
sVnecessarie
p413
F1
sVaffaires:
p414
F1
sVhumaine,
p415
F1
sVcondition.
p416
F1
sVc
F1
sVendlesly
p417
F1
sVmany
p418
F1
sVfinde
p419
F1
sVsoulelesse
p420
F1
sVaccording
p421
F2
sVagainst
p422
F2
sVassure
p423
F1
sVadmit
p424
F1
sVfigures
p425
F2
sVfaces
p426
F1
sV(most
p427
F2
sVconstitutions,
p428
F1
sVthose,
p429
F1
sVwhole
p430
F4
sVcomes
p431
F1
sVvertue
p432
F1
sVnoblesse)
p433
F1
sVheight
p434
F1
sVworke.
p435
F1
sVsences
p436
F1
sVforme;
p437
F1
sVtogether.
p438
F1
sVkings
p439
F1
sVwriting
p440
F1
sVpursude,
p441
F1
sVmuddie
p442
F1
sVpoem
p443
F1
sVhauing
p444
F2
sVdue
p445
F2
sVdignities
p446
F1
sVaske
p447
F1
sVextraction
p448
F1
sVmuch
p449
F3
sVknowne
p450
F1
sVsay)
p451
F1
sVvnderstanding
p452
F2
sVconquests,
p453
F1
sVdamd
p454
F1
sVlife
p455
F1
sVenable
p456
F1
sVaffectionatlie
p457
F1
sVinterrupts
p458
F1
sVwhatsoeuer
p459
F4
sVtoombe
p460
F1
sVyou
p461
F3
sVimperiall
p462
F1
sVhote-spirited
p463
F1
sVdrawne
p464
F1
sVprophanation:
p465
F1
sVdoth
p466
F1
sVformes
p467
F2
sVpresent
p468
F1
sVsound
p469
F1
sVowne
p470
F1
sVvitious
p471
F1
sVthese
p472
F3
sVmucpits
p473
F1
sVvse,
p474
F1
sVwill
p475
F3
sVcast
p476
F1
sVdignitie.
p477
F1
sVsuppose
p478
F1
sVshall
p479
F1
sVfreely
p480
F1
sVreade
p481
F1
sVis
p482
F10
sV(inferior
p483
F1
sVthus
p484
F1
sVit
p485
F7
sVstirre
p486
F1
sVvp
p487
F1
sVgood
p488
F1
sVinherite
p489
F1
sVin
p490
F30
sVtheta
p491
F1
sVbeene
p492
F1
sVif
p493
F5
sVobiects
p494
F2
sVcensors,
p495
F1
sVsence
p496
F1
sVthings
p497
F2
sVsame
p498
F1
sVwherein
p499
F1
sVdiscourse
p500
F1
sVfurie
p501
F1
sVdescend
p502
F1
sVpropose
p503
F1
sVheire
p504
F1
sVmonarch
p505
F1
sVshal
p506
F2
sVworthilie
p507
F1
sVeffected
p508
F2
sVhumanitie
p509
F1
sVinuention,
p510
F1
sVgladlie
p511
F1
sVcomplementes
p512
F1
sVwholesome
p513
F1
sVpriuate
p514
F1
sVeternitie
p515
F1
sVi
F12
sVfreshest
p516
F1
sVvariety
p517
F1
sVsmokes
p518
F1
sVpunishment
p519
F1
sVgratulate
p520
F1
sVwithout
p521
F4
sVenglish
p522
F2
sVobiect)
p523
F1
sVseene,
p524
F1
sVbodies
p525
F1
sVexploits
p526
F1
sVrecompence
p527
F1
sVproposed
p528
F2
sVpronouncst
p529
F1
sVbeing
p530
F6
sVobserue
p531
F1
sVactions
p532
F1
sVdissolue,
p533
F1
sVhumaine
p534
F1
sVquestions
p535
F1
sVgraces.
p536
F1
sVgrounded,
p537
F1
sVcongealde
p538
F1
sVyet
p539
F3
sVdeserues,
p540
F1
sVaccounted?
p541
F1
sVzeale
p542
F2
sVtranslator,
p543
F1
sViudge
p544
F1
sVeager
p545
F1
sVskilfull
p546
F1
sVslighted
p547
F1
sVeternally
p548
F1
sVgod?
p549
F1
sVcondemnation
p550
F1
sVverse.
p551
F1
sVneuer
p552
F1
sVfinding
p553
F1
sVturnde
p554
F1
sVsences,
p555
F1
sVbarbarisme
p556
F1
sVliue
p557
F1
sVhaue
p558
F8
sVvniuersall
p559
F1
sVhereafter
p560
F1
sVtempers,
p561
F1
sVlike
p562
F1
sVvalour,
p563
F2
sVmanifest
p564
F1
sVfoote
p565
F1
sVanswerde
p566
F1
sVreader,
p567
F2
sVfault
p568
F1
sVacceptation
p569
F1
sVdifferencing
p570
F1
sVdiuinely
p571
F1
sVshee
p572
F3
sVeasie
p573
F2
sVfathers
p574
F1
sVsome
p575
F1
sVmeare
p576
F1
sVsimple:
p577
F1
sVspleanes.
p578
F1
sVpoet,
p579
F1
sVbosomes:
p580
F1
sVatrides
p581
F1
sVonely
p582
F1
sVfor
p583
F6
sVvnhappie
p584
F1
sVmerite?
p585
F1
sVbe
p586
F12
sVrun
p587
F1
sVslight
p588
F1
sVpietie:
p589
F1
sVlakes
p590
F1
sVfome
p591
F1
sVroyall
p592
F1
sVdedication)
p593
F1
sVworthy
p594
F2
sVby
p595
F6
sVretaine
p596
F1
sVon
p597
F2
sVrare
p598
F1
sVof
p599
F72
sVindustry
p600
F1
sVliues
p601
F1
sVcarries
p602
F1
sVtongue
p603
F1
sVout,
p604
F1
sVor
p605
F2
sVgamma
p606
F1
sVtreade
p607
F1
sVinclusion
p608
F1
sVlicurgus
p609
F1
sVimage
p610
F2
sVblessed
p611
F1
sVintellectual
p612
F1
sVarms
p613
F1
sVshyne
p614
F1
sVvnmatched
p615
F1
sVphilosopher:
p616
F1
sV.
F1
sVyour
p617
F13
sVroyaltie,
p618
F1
sVeternitie.
p619
F1
sVeternitie)
p620
F1
sVher
p621
F5
sVeuen
p622
F1
sVvictorious
p623
F1
sVearle)
p624
F1
sVeuer
p625
F3
sVcharitie
p626
F1
sV:
F2
sVdisorder
p627
F2
sVtedious
p628
F1
sVbut
p629
F4
sVpoet
p630
F1
sVdelta
p631
F1
sVe
F1
sVhighest
p632
F1
sVwith
p633
F15
sVconsideration,
p634
F1
sVcount
p635
F1
sVstratagems
p636
F1
sVadmiration
p637
F1
sVmade
p638
F1
sVedition.
p639
F1
sVwish
p640
F1
sVmists
p641
F1
sVtriumphant
p642
F1
sVshew,
p643
F1
sVqueasie
p644
F1
sVoriginall,
p645
F1
sVinduction)
p646
F1
sVtemper
p647
F1
sVwalke
p648
F1
sVselfe
p649
F1
sVal
p650
F3
sVan
p651
F4
sVcontinued
p652
F1
sVas
p653
F7
sVat
p654
F3
sVidlenes
p655
F1
sVpallat
p656
F1
sVknowledge.
p657
F1
sVhart
p658
F1
sVno
p659
F6
sVwhen
p660
F2
sVflood
p661
F1
sVother
p662
F1
sVdreadlesse
p663
F1
sVhomere.
p664
F1
sVcrowne
p665
F1
sVhappie,
p666
F1
sVbacke
p667
F1
sVeternity
p668
F1
sVdraw
p669
F1
sVintend
p670
F1
sVbashfull
p671
F1
sVvnseruiceable
p672
F1
sVnourishment
p673
F1
sVkinde
p674
F1
sVdesert
p675
F1
sVinspiration
p676
F1
sV(euen
p677
F1
sVfaculties?.
p678
F1
sVauthoritie
p679
F1
sVshining,
p680
F1
sVtogether
p681
F1
sVthem
p682
F2
sVinuentions.
p683
F1
sVbookes
p684
F2
sVvolumes
p685
F1
sVtime
p686
F2
sVserious
p687
F1
sVhumanitie.
p688
F1
s.