ccollections
defaultdict
p1
(c__builtin__
float
p2
tRp3
Vall
p4
F1
sVarguments:
p5
F1
sVcongruities
p6
F1
sVhath
p7
F2
sVdeoru,
p8
F1
sVminde,
p9
F1
sVissues
p10
F1
sVvigor,
p11
F1
sVpollicy,
p12
F1
sVchronicles,
p13
F1
sVto
p14
F17
sVvnexpected,
p15
F1
sVaide,
p16
F1
sVfall
p17
F1
sVsubiects,
p18
F1
sVmightie
p19
F1
sVforth
p20
F2
sVpresent,
p21
F1
sVrepresenteth
p22
F1
sVbeast,
p23
F1
sVlesse
p24
F1
sVrest)
p25
F1
sVingenuously,
p26
F1
sVreuealed
p27
F1
sVregions,
p28
F1
sVpropoundeth
p29
F1
sVdesires
p30
F1
sVmen
p31
F1
sVgreat
p32
F1
sVparabolical
p33
F1
sVremaineth
p34
F1
sVfaines
p35
F1
sVordinarie
p36
F1
sVbrought
p37
F2
sVvisible
p38
F1
sVloue;
p39
F1
sVdeliuered,
p40
F1
sVrarely
p41
F1
sVfained
p42
F4
sVfame.
p43
F1
sV&
F4
sVirritata
p44
F1
sVtherefore
p45
F3
sViust
p46
F1
sVmore
p47
F9
sVbarbarous
p48
F1
sVactuall
p49
F1
sVmeere
p50
F1
sVknowe
p51
F1
sVmirth.
p52
F1
sVconsort
p53
F1
sVthis
p54
F2
sVcomonly
p55
F1
sVinterchanged,
p56
F1
sViustice.
p57
F1
sVhistory
p58
F2
sVfit.
p59
F1
sVhis
p60
F2
sVimitation
p61
F1
sVappedices
p62
F1
sVrather
p63
F1
sVacts
p64
F1
sVhow
p65
F1
sVneede
p66
F1
sVif
p67
F1
sVrude
p68
F1
sVmay
p69
F1
sVstate,
p70
F1
sVman
p71
F1
sVa
F5
sVkeepe
p72
F1
sVagreable
p73
F1
sVwarrs,
p74
F1
sVso
p75
F7
sVpleasure
p76
F1
sVmachiauell,
p77
F1
sVsubiect
p78
F1
sVperhibent,
p79
F1
sVfable
p80
F3
sVbefore
p81
F3
sVillam
p82
F1
sVpoesie
p83
F6
sV,
F3
sVshewes
p84
F1
sVmisteries
p85
F1
sVthen
p86
F3
sVthem
p87
F2
sVgreater
p88
F1
sVmaner,
p89
F1
sVdeuised,
p90
F1
sVhistory,
p91
F2
sVit:
p92
F1
sVthey
p93
F4
sVhands
p94
F1
sVnot
p95
F3
sVhistory:
p96
F1
sVnow
p97
F1
sVnor
p98
F1
sVcorruptly
p99
F1
sVgyants
p100
F1
sVtimes,
p101
F2
sVprinces,
p102
F1
sVtaught
p103
F1
sVspeciall
p104
F1
sVout
p105
F1
sVmagnitude,
p106
F1
sVcentaure
p107
F1
sVsubtile
p108
F1
sVcause
p109
F1
sVcoeo
p110
F1
sVreason
p111
F2
sVserueth
p112
F1
sVwanted
p113
F1
sVmagnanimitie,
p114
F1
sVrebels,
p115
F1
sVthings.
p116
F1
sVtimes
p117
F2
sVthink
p118
F1
sVdiuisios
p119
F1
sVthereof
p120
F1
sVdiuine
p121
F1
sVliues,
p122
F1
sVanother
p123
F1
sVopen
p124
F1
sVillustrate
p125
F1
sVancient
p126
F1
sVvulgar
p127
F1
sVtheir
p128
F4
sVnecessitie
p129
F1
sVfirst,
p130
F1
sVthat
p131
F17
sVnarrative;
p132
F1
sVviolence,
p133
F1
sVappeareth
p134
F1
sVpart
p135
F3
sVtaxatios
p136
F1
sVlyon,
p137
F1
sVsatisfieth
p138
F1
sVreuenge
p139
F1
sVbinde
p140
F1
sVmonarchies
p141
F2
sVbee
p142
F1
sVi
F1
sVwere
p143
F3
sVvarietie
p144
F1
sVseuen,
p145
F1
sVand
p146
F43
sVvertue
p147
F2
sVmind
p148
F1
sVsentences
p149
F1
sVbriefe
p150
F1
sVany
p151
F2
sVsensible,
p152
F1
sVauthorised.
p153
F1
sViupiter,
p154
F1
sVparabolicall,
p155
F1
sVprogenuit.
p156
F1
sValso
p157
F1
sVwhich
p158
F9
sVsharpe
p159
F1
sVaccesse
p160
F1
sVplay
p161
F1
sVsure
p162
F1
sVopposite
p163
F1
sVorations,
p164
F1
sVwho
p165
F2
sVepistles,
p166
F1
sVbut
p167
F3
sVachilles
p168
F1
sVlater
p169
F1
sVpoesie,
p170
F2
sVletters,
p171
F1
sVdoe
p172
F2
sV(besides
p173
F1
sVouerthrowne
p174
F1
sVretire
p175
F1
sVpoesy
p176
F1
sVbring
p177
F1
sVearth
p178
F1
sVexcluded.
p179
F1
sVtrue
p180
F3
sVsubtiltie
p181
F1
sVpleasure,
p182
F1
sVguile,
p183
F1
sVstoode
p184
F1
sVnarrtion
p185
F1
sVmentioned:
p186
F1
sVneuerthelesse
p187
F2
sVkind
p188
F2
sVreligion,
p189
F1
sVcannot
p190
F1
sVrest
p191
F1
sVbelongeth
p192
F1
sVchyron
p193
F1
sVabsolutenesse
p194
F1
sVlibels
p195
F1
sVparables.
p196
F1
sVexcesses
p197
F1
sVobscure
p198
F1
sVwhere
p199
F1
sVsee
p200
F3
sVmerits
p201
F1
sVare
p202
F2
sVmind;
p203
F1
sVconceit.
p204
F1
sVyet
p205
F1
sVcourbing
p206
F1
sVira
p207
F1
sVman,
p208
F2
sVconceit:
p209
F1
sVparens
p210
F1
sVwe
p211
F2
sVnature
p212
F3
sVdelectation.
p213
F1
sVvnder
p214
F1
sVexpounded,
p215
F1
sVcome
p216
F1
sVbriareus
p217
F1
sVslanders,
p218
F1
sVmans
p219
F1
sVlast
p220
F1
sVsuccesses
p221
F1
sVmany
p222
F1
sVaccording
p223
F1
sVagainst
p224
F1
sVrepresentative,
p225
F1
sVminde
p226
F1
sVestimation
p227
F1
sVpoint
p228
F1
sVlearning
p229
F1
sVdiuinesse,
p230
F1
sVhauing
p231
F1
sVraise
p232
F1
sVsuppressed
p233
F1
sVerect
p234
F1
sVexamples,
p235
F1
sVmuch
p236
F2
sVappeare.
p237
F1
sVpallas
p238
F1
sVboth
p239
F1
sVparabolical,
p240
F1
sValternatiue
p241
F1
sVrepresentative
p242
F1
sVreason,
p243
F1
sVhundreth
p244
F1
sVdoth
p245
F4
sVhierogliphikes
p246
F1
sVthose
p247
F2
sVapplied
p248
F1
sVthese
p249
F1
sVwill
p250
F1
sVsecrets
p251
F1
sVis
p252
F13
sVvariations.
p253
F1
sVit
p254
F8
sVvp
p255
F1
sVincounters,
p256
F1
sVsororem
p257
F1
sVvt
p258
F1
sVin
p259
F21
sVeuents
p260
F2
sVaesope
p261
F1
sVretribution,
p262
F1
sVeducation
p263
F1
sVbowe
p264
F1
sVthings
p265
F1
sVfoxe
p266
F1
sVhieroglyphikes
p267
F1
sVsame
p268
F1
sVwarre
p269
F1
sVprouidence,
p270
F1
sVheroicall;
p271
F1
sVpurpose
p272
F1
sVexpounded
p273
F2
sVpeople,
p274
F2
sVtendeth
p275
F1
sVwell
p276
F1
sVthought
p277
F1
sVmother
p278
F2
sVhearts
p279
F1
sVthe
p280
F49
sVgods
p281
F1
sVtherof
p282
F1
sVactions
p283
F3
sVbeeing
p284
F1
sVdiscipline
p285
F1
sVwisedome
p286
F2
sVwee
p287
F2
sVhad
p288
F1
sVendueth
p289
F1
sVvice,
p290
F1
sVrebellion,
p291
F2
sVhistorie
p292
F3
sVhaue
p293
F3
sVlike
p294
F1
sVstates,
p295
F1
sVfelicitie,
p296
F1
sVaptest
p297
F1
sVmoralitie,
p298
F1
sVfeminine:
p299
F1
sVactions,
p300
F1
sVpast;
p301
F1
sVbecause
p302
F5
sVsome
p303
F2
sVexamples
p304
F1
sVchoosing
p305
F1
sVextremam,
p306
F1
sVfable,
p307
F1
sVcomon
p308
F1
sVonely
p309
F1
sVfor
p310
F3
sVexposition
p311
F2
sVparticipation
p312
F1
sVbe
p313
F1
sVfables
p314
F3
sVagreement
p315
F1
sVby
p316
F6
sVretaine
p317
F1
sVon
p318
F1
sVeuents,
p319
F1
sVinsinuations
p320
F1
sVof
p321
F35
sVdemonstrate,
p322
F1
sVor
p323
F8
sVmusicke,
p324
F1
sVinto
p325
F1
sVenceladoque
p326
F1
sVparables
p327
F1
sVvnto
p328
F2
sVbuckle
p329
F1
sVthere
p330
F1
sVlong
p331
F1
sVfaineth
p332
F1
sVeuer
p333
F1
sVwas
p334
F8
sVgods,
p335
F1
sVwith
p336
F9
sVprinces
p337
F1
sVare,
p338
F1
sVioyned
p339
F1
sVsubmitting
p340
F1
sVcalled
p341
F1
sVallvsive
p342
F1
sVvse
p343
F4
sVsometimes
p344
F2
sVexpresse
p345
F2
sVlife
p346
F1
sVan
p347
F1
sVas
p348
F14
sVside:
p349
F1
sVat
p350
F1
sVinuolued
p351
F1
sVconspired
p352
F1
sVphilosophy,
p353
F1
sVwhereas
p354
F1
sVwhen
p355
F2
sVother
p356
F2
sVremembred;
p357
F1
sVmalignitie
p358
F1
sVheathen
p359
F1
sVfeare
p360
F1
sVrarenesse,
p361
F1
sVconferreth
p362
F1
sVallvsive.
p363
F1
sVterra
p364
F1
sVproprietie
p365
F1
sVimage
p366
F1
sVnarrative
p367
F1
sVdiuisio
p368
F1
s.