ccollections
defaultdict
p1
(c__builtin__
float
p2
tRp3
Vconsidered.
p4
F1
sVfunerall,
p5
F1
sVfamiliarly,
p6
F1
sVwoma,
p7
F1
sVbetter,
p8
F1
sVreason,
p9
F4
sVfoul
p10
F1
sViuda
p11
F1
sVhath
p12
F35
sVgriefe,
p13
F1
sVsleep
p14
F1
sVresisted
p15
F1
sV(which
p16
F4
sVsurpasse
p17
F2
sVforget
p18
F4
sVwhose
p19
F13
sVgrace,
p20
F1
sVinheritance,
p21
F1
sVeuery
p22
F12
sVbelonged)
p23
F1
sVkingdom,
p24
F1
sV(for
p25
F2
sVintreat
p26
F1
sVansweres,
p27
F2
sVdeuoid
p28
F1
sVneighbours
p29
F1
sVonelie,
p30
F1
sVstragers,
p31
F1
sVlord
p32
F12
sVsorry
p33
F2
sVpride
p34
F1
sVtullius
p35
F2
sVparsonage,
p36
F1
sVknowne.
p37
F1
sVchastitie,
p38
F1
sVcherished:
p39
F1
sVchastitie.
p40
F1
sVsubtilty:
p41
F1
sVotherwise,
p42
F1
sVdrunkards,
p43
F1
sVdutie,
p44
F1
sVcompassion
p45
F2
sVmaiestie,
p46
F1
sVvoid
p47
F1
sVacknowledge,
p48
F1
sVwood,
p49
F1
sVcalumniator
p50
F1
sVmoysture,
p51
F1
sVworkes
p52
F1
sVrace.
p53
F1
sVrudenes
p54
F1
sVasia.
p55
F1
sVnourished
p56
F2
sVsubtilty.
p57
F1
sVliuing
p58
F3
sVaffect
p59
F1
sVfuneralls
p60
F1
sVbringing
p61
F1
sViniury,
p62
F3
sVioy,
p63
F1
sVeuer?
p64
F1
sVsampson
p65
F1
sVperceiued,
p66
F2
sVstrayed
p67
F2
sVslewe
p68
F3
sVyeeldeth
p69
F1
sVdeuise
p70
F2
sVpresent,
p71
F1
sVfruites
p72
F1
sVbrutish
p73
F1
sVsaturnists
p74
F1
sVguiding
p75
F2
sVzenobia
p76
F1
sVrepenting
p77
F1
sVabolishing
p78
F1
sVparents;
p79
F1
sVmurdred,
p80
F1
sVambassage,
p81
F1
sVaethyopia
p82
F1
sVbeholding,
p83
F1
sVforce
p84
F8
sVspecially
p85
F6
sVher,
p86
F10
sVme,
p87
F11
sVvsurper
p88
F1
sVgouernours
p89
F2
sVsurmounting
p90
F1
sVseas,
p91
F2
sVshoulders;
p92
F1
sVher:
p93
F1
sVsecond
p94
F1
sVriches,
p95
F3
sVvaliant
p96
F13
sVdrunkenes
p97
F1
sVothers,
p98
F2
sVserue,
p99
F1
sVseas:
p100
F1
sVesteem
p101
F1
sVshining
p102
F2
sVestablished
p103
F1
sVloyns
p104
F1
sVchrist
p105
F1
sVfellonie
p106
F1
sVlighte
p107
F1
sVdesirous
p108
F6
sVlesse
p109
F10
sVbeaten
p110
F1
sV(how
p111
F2
sVassembled
p112
F1
sVexcellency
p113
F1
sVreport.
p114
F1
sVrest,
p115
F5
sVnew
p116
F2
sVmurther
p117
F6
sVreproaching
p118
F1
sVmee
p119
F13
sVconceiued
p120
F2
sVgouernour:
p121
F1
sVfathers,
p122
F2
sVgentiles
p123
F1
sVinheritance)
p124
F1
sVmen
p125
F20
sVkindred
p126
F1
sVhere
p127
F2
sVchine
p128
F1
sVreported
p129
F1
sVenioyed
p130
F2
sVreceiued,
p131
F1
sVmes
p132
F1
sVseruants
p133
F1
sVvnpunished,
p134
F1
sVobtained
p135
F7
sVdaughter
p136
F12
sVwiglere
p137
F3
sVspotte
p138
F1
sVincestuously
p139
F3
sVworse,
p140
F1
sVfamous,
p141
F1
sVknown,
p142
F1
sVplato
p143
F1
sVearls,
p144
F1
sVignominious
p145
F1
sVtraiterous
p146
F2
sVspouse,
p147
F5
sVpunishment
p148
F3
sVdeserueth
p149
F1
sVventured
p150
F1
sVfeete
p151
F1
sVswearing
p152
F1
sVcompany,
p153
F4
sVnorway,
p154
F2
sVsorrowe
p155
F1
sVnorway.
p156
F1
sVqualities
p157
F1
sVmire,
p158
F1
sVbrought
p159
F10
sVthrust
p160
F1
sVvp,
p161
F1
sVspeeches,
p162
F2
sVfained
p163
F2
sVpresents
p164
F1
sVfame,
p165
F1
sVaffirme:
p166
F1
sVspoke
p167
F2
sVwould
p168
F53
sVdetesting
p169
F1
sVintreate
p170
F1
sVright:
p171
F1
sVgrieue
p172
F1
sVbeawtie,
p173
F2
sVcall
p174
F3
sVtherefore
p175
F1
sVshed
p176
F2
sVinfranchised,
p177
F1
sVstrike
p178
F1
sVsauoureth
p179
F1
sVtell
p180
F3
sVtyrat
p181
F1
sVperson.)
p182
F1
sVrauished
p183
F2
sVbarbarous
p184
F4
sVholy
p185
F7
sVbinding
p186
F1
sVexpose
p187
F2
sVoff:
p188
F2
sVportraiture
p189
F1
sVhurt
p190
F1
sVmeere
p191
F3
sVsupport,
p192
F1
sVrenouned
p193
F1
sVtying
p194
F1
sVexcellent
p195
F3
sVvpo
p196
F2
sVhold
p197
F4
sVnobilitie
p198
F3
sVmust
p199
F11
sVme
p200
F24
sVword
p201
F1
sVmolified
p202
F1
sVstriue
p203
F1
sVwills,
p204
F1
sVpursue
p205
F2
sVrodericke
p206
F5
sVaduatage
p207
F1
sVrefusing
p208
F1
sVentertained
p209
F1
sVleaped
p210
F1
sVlaughter,
p211
F1
sVglorie
p212
F4
sVendow
p213
F1
sVexample
p214
F5
sVquarrel
p215
F1
sVmisfortunes
p216
F1
sVdefile
p217
F3
sVfoode
p218
F1
sVestate
p219
F1
sVoath,
p220
F1
sVloosed
p221
F1
sVcurtesie,
p222
F1
sVcontented,
p223
F1
sVvaulte
p224
F1
sVreceiuing
p225
F1
sVcontinencie
p226
F1
sVfrieds
p227
F1
sV(madame)
p228
F2
sVsolemnely
p229
F1
sVwant
p230
F1
sVpolitike
p231
F1
sVheauie
p232
F1
sVtoyes,
p233
F1
sVworse
p234
F1
sVwherby
p235
F2
sVend
p236
F18
sVshortning
p237
F1
sVseest
p238
F1
sVcomplaining
p239
F1
sVsaid,
p240
F3
sV(mother
p241
F1
sVreioyce
p242
F2
sVhow
p243
F35
sVteares,
p244
F1
sVyeere
p245
F3
sVsate
p246
F2
sVordinary
p247
F2
sVoutragious
p248
F1
sVcharging
p249
F2
sVcouragious,
p250
F1
sVstorehouse
p251
F1
sVboth,
p252
F1
sVafter
p253
F20
sVvicious
p254
F1
sVwrong
p255
F5
sV(nay
p256
F1
sVlay
p257
F6
sVsholdst
p258
F1
sVcustome
p259
F1
sVlaw
p260
F4
sVgrew,
p261
F1
sVmisfortune,
p262
F1
sVkeepe
p263
F3
sVexecrable
p264
F1
sVattempt
p265
F1
sVheart,
p266
F2
sVthird
p267
F2
sVharken,
p268
F1
sVprudence,
p269
F2
sVacknowledged
p270
F2
sV(accustomed
p271
F1
sVvnworthy
p272
F1
sVcrafty,
p273
F1
sVaduersarie,
p274
F1
sVmaiesties
p275
F1
sVqualitie,
p276
F1
sVbeginneth
p277
F1
sVempire,
p278
F4
sVlord)
p279
F1
sVsubtilty,
p280
F2
sVvsurping
p281
F1
sVadulteresse,
p282
F1
sVaffairs,
p283
F1
sVlibertie
p284
F2
sVeffect.
p285
F2
sVconsent
p286
F3
sVeffect,
p287
F1
sVmanie
p288
F2
sVsatisfied
p289
F1
sVsubiect
p290
F3
sVdidde
p291
F1
sVhusbad
p292
F2
sVaduersary,
p293
F1
sVfeedeth
p294
F1
sVashamed,
p295
F1
sVthrone,
p296
F1
sVrewarded
p297
F1
sVwherein
p298
F10
sVnets
p299
F1
sVwrought
p300
F1
sVbefore
p301
F24
sV(being
p302
F2
sValmaines
p303
F1
sVfit
p304
F6
sVconceiue
p305
F1
sVvictorie)
p306
F1
sVsharpned,
p307
F1
sVdeceitfull
p308
F1
sVmembers,
p309
F1
sV,
F108
sVbetter
p310
F5
sVloyaltie:
p311
F1
sVperiured
p312
F1
sVvalor
p313
F3
sVhidden
p314
F3
sVadmirable
p315
F3
sVeasier
p316
F1
sVenemie
p317
F2
sVthen
p318
F84
sVthem
p319
F47
sVperswasions
p320
F1
sVvillanies,
p321
F1
sVaduentures,
p322
F1
sVthee
p323
F8
sVanie
p324
F2
sVariuall,
p325
F1
sVfayrest
p326
F1
sVschoole
p327
F1
sVbreak
p328
F1
sVrunne
p329
F1
sVrewarde,
p330
F1
sVswords
p331
F1
sVeffects
p332
F2
sVthey
p333
F59
sVwickednes:
p334
F1
sVdowne
p335
F6
sVther
p336
F2
sVglutted
p337
F1
sVbread
p338
F2
sVcoronation
p339
F1
sVmeat
p340
F1
sVvnknown
p341
F1
sVdesirous,
p342
F1
sVwickednesse,
p343
F1
sVweary
p344
F1
sVpossession,
p345
F1
sVexpectation,
p346
F1
sVvictories
p347
F2
sVreasonable
p348
F5
sVeach
p349
F4
sVsame.
p350
F1
sVwent
p351
F7
sVside
p352
F3
sVconfiscations
p353
F1
sVmean
p354
F1
sVransommings,
p355
F1
sValiue,
p356
F1
sVlifted
p357
F1
sVhabitation
p358
F1
sV(leauing
p359
F1
sVhamblets
p360
F6
sVneighbour,
p361
F1
sVreiecting
p362
F2
sVdebonaire,
p363
F1
sVpractising
p364
F1
sVhanged
p365
F1
sVprouoked
p366
F5
sValliance,
p367
F1
sVextract
p368
F1
sVslew
p369
F2
sVborne
p370
F2
sVkingdo,
p371
F1
sVmisfortune
p372
F1
sVself,
p373
F2
sVselfe.
p374
F1
sVselfe,
p375
F3
sVgoe
p376
F1
sVgod
p377
F5
sVparricide,
p378
F4
sVwashed
p379
F1
sVcontent
p380
F7
sVmessage,
p381
F1
sVcondemnation,
p382
F1
sVforth
p383
F1
sVprinciple:
p384
F1
sVassured
p385
F5
sVdeceipt.
p386
F1
sVhang
p387
F2
sVvncle
p388
F5
sVeternal
p389
F1
sVfree
p390
F1
sVprophane
p391
F1
sVpesons
p392
F1
sVchilde,
p393
F1
sVhamblet.
p394
F1
sVchilde)
p395
F1
sVordring
p396
F1
sVreturne
p397
F3
sVentrap
p398
F1
sVwanted
p399
F2
sVwordes
p400
F1
sVdauids
p401
F1
sVvertues,
p402
F1
sVmurthered,
p403
F1
sVhogs
p404
F3
sVboldely
p405
F1
sVshippes
p406
F1
sVparricide
p407
F5
sVoppressed,
p408
F1
sVselfe
p409
F24
sVarrogat
p410
F1
sVoppressed)
p411
F1
sVstranger,
p412
F3
sVrenew
p413
F1
sVrinde
p414
F2
sVvncleannesse,
p415
F1
sVsoueraigne
p416
F3
sV(as
p417
F13
sV(at
p418
F1
sVloue
p419
F19
sV(imitation
p420
F1
sVrecite
p421
F1
sVliues:
p422
F1
sValready
p423
F6
sVboldnesse
p424
F2
sVvntruth)
p425
F1
sVsupposing
p426
F2
sVthereof
p427
F7
sVhearing
p428
F5
sVheeretofore
p429
F1
sVliues,
p430
F3
sVgrief,
p431
F1
sVlawfull
p432
F9
sVslain,
p433
F1
sVlight
p434
F1
sVillustrate
p435
F1
sVdiligently
p436
F1
sVnorway.)
p437
F1
sVcombate
p438
F1
sVten
p439
F1
sVinticements
p440
F1
sVricher,
p441
F1
sVinfancy
p442
F1
sVfailed
p443
F1
sVcruell,
p444
F2
sVpoynards
p445
F1
sVtoo
p446
F2
sVbitter
p447
F1
sVtraiterously
p448
F3
sVwas:
p449
F2
sVsathans
p450
F1
sVhappily
p451
F1
sVeuidet,
p452
F1
sVgriefs
p453
F1
sVvitious,
p454
F1
sVtook
p455
F2
sVwisdom
p456
F3
sVtokens
p457
F1
sVvsage
p458
F1
sVrewarde
p459
F1
sVsomewhat
p460
F5
sValliace,
p461
F1
sVrequisite
p462
F2
sVmayest
p463
F1
sVgriefe
p464
F3
sVher;
p465
F1
sVobserue
p466
F1
sVhateth
p467
F1
sVbody,
p468
F4
sVcontry,
p469
F1
sVspacke
p470
F1
sVlyons,
p471
F1
sVadmonitions
p472
F1
sVnations
p473
F2
sVmatter
p474
F5
sVworthinesse;
p475
F1
sVfriend
p476
F3
sVtrueth)
p477
F1
sVfeeling
p478
F3
sVold,
p479
F1
sVperpetually,
p480
F1
sVanguishes,
p481
F1
sVraigne
p482
F1
sVpalace
p483
F2
sVwhereat
p484
F4
sVquench
p485
F1
sVrunnes
p486
F1
sVcorne
p487
F1
sVlasciuious
p488
F2
sVmind
p489
F5
sVmine
p490
F11
sVouerthrowe
p491
F1
sVparts
p492
F3
sVwell,
p493
F3
sVrat
p494
F1
sVcounterfetting
p495
F1
sVchristall
p496
F1
sVmanner
p497
F8
sVvviglere
p498
F1
sVseen
p499
F2
sVocean
p500
F1
sVseek
p501
F2
sVothers.
p502
F1
sVfallen,
p503
F1
sVforced
p504
F3
sVsauored
p505
F1
sVvnruly:
p506
F1
sVdo,
p507
F1
sVpreuaile
p508
F1
sVinterprises,
p509
F2
sVtourne
p510
F1
sVhangings,
p511
F3
sVdomitian
p512
F1
sVfeates
p513
F1
sVgladnesse,
p514
F1
sVinfelicitie,
p515
F1
sVtears,
p516
F1
sVnature,
p517
F2
sVgreatest
p518
F12
sVdayes,
p519
F3
sVvniuersal
p520
F1
sVdayes.
p521
F1
sVextinguishing
p522
F1
sVdayes)
p523
F1
sVshall
p524
F16
sVtormenting
p525
F2
sVdestructions,
p526
F1
sVplesed
p527
F1
sVdebonair
p528
F1
sVloyall
p529
F5
sVmadde
p530
F3
sVsodainely
p531
F1
sVgermany
p532
F1
sVdayes:
p533
F1
sVcommanding
p534
F2
sVhide
p535
F2
sVsee,
p536
F1
sVshalt
p537
F2
sVconstancy
p538
F1
sVtutors,
p539
F1
sVfitter
p540
F2
sVforce,
p541
F2
sVvnpossible
p542
F1
sVimpudently
p543
F1
sVletters,
p544
F3
sVsober
p545
F1
sVdoe
p546
F9
sVseeke
p547
F4
sVreputation
p548
F3
sVministred
p549
F1
sVenterprise
p550
F2
sVentertaining
p551
F1
sVpeople;
p552
F1
sVpurged
p553
F2
sVcame
p554
F6
sVsaying
p555
F3
sVrenewed
p556
F1
sVcelebrated.
p557
F1
sVdames
p558
F1
sVqueen
p559
F4
sVslaue
p560
F2
sVambiguously
p561
F1
sVhonester
p562
F2
sVabstain
p563
F1
sVdiscourteous
p564
F1
sVincest,
p565
F1
sVearth
p566
F2
sVtempted
p567
F1
sVgold,
p568
F1
sVrecompence
p569
F3
sVhim.
p570
F2
sVwickedest,
p571
F1
sVcarie
p572
F1
sVlightnesse,
p573
F1
sVconstancy,
p574
F2
sVcupid
p575
F1
sVmens
p576
F3
sViniuryes
p577
F1
sVrich
p578
F1
sVpursuing
p579
F1
sVfoolishly
p580
F1
sVdispence
p581
F1
sVvoyd
p582
F1
sVbriefe,
p583
F1
sVanger,
p584
F2
sVborrowed
p585
F1
sVdo
p586
F9
sVdistribute
p587
F1
sVcouered
p588
F2
sVconduct
p589
F1
sVright,
p590
F2
sVcoast
p591
F1
sVnext
p592
F3
sVamazon
p593
F1
sVrepose
p594
F1
sVdy
p595
F2
sVreport
p596
F3
sVhappiest
p597
F1
sVappetites,
p598
F1
sVnet
p599
F1
sVbeakes,
p600
F1
sVparricides.
p601
F1
sVhall
p602
F3
sVmen:
p603
F2
sVcountries
p604
F3
sVeare
p605
F1
sVruine
p606
F6
sVcontagion,
p607
F1
sVthem:
p608
F1
sVtownes
p609
F1
sVmen,
p610
F10
sVhercules
p611
F1
sVesteeming
p612
F11
sVfitly
p613
F1
sVsaue
p614
F4
sVthem.
p615
F1
sVgaue
p616
F10
sVthem,
p617
F12
sVsaul
p618
F1
sVsearching
p619
F1
sVbattaile,
p620
F3
sVdolour
p621
F1
sVcotinuance,
p622
F1
sVtrayterous
p623
F2
sV(he
p624
F2
sVoffended,
p625
F1
sVabundace
p626
F1
sVresist
p627
F1
sVallure
p628
F1
sVsubmitted
p629
F1
sVbattaile:
p630
F1
sVmiserable
p631
F8
sVleauing
p632
F2
sVdigged
p633
F1
sVbest
p634
F6
sVpricking
p635
F1
sVwits,
p636
F2
sVvoyage
p637
F3
sVwits.
p638
F1
sVsaid
p639
F13
sVdriue
p640
F1
sVcruellest
p641
F1
sVface,
p642
F1
sVconceit,
p643
F1
sVaway
p644
F4
sVestate,
p645
F2
sVhauens
p646
F1
sVcontinually
p647
F1
sVtherein.
p648
F1
sV(by
p649
F2
sVsimplest
p650
F1
sVobtaine,
p651
F1
sVpirate
p652
F1
sVintrap
p653
F5
sVraigning
p654
F2
sVwe
p655
F5
sVsinguler
p656
F1
sVmastiffes:
p657
F1
sVcarouse,
p658
F1
sVnature
p659
F6
sVdeposed
p660
F3
sVconceaued.
p661
F1
sVaffaires,
p662
F2
sVotherwise
p663
F3
sVcommaunded
p664
F1
sVwt
p665
F13
sVprophets,
p666
F1
sVhandes,
p667
F2
sVgalliard,
p668
F1
sVouerwhelmed
p669
F1
sVburning
p670
F1
sVtyranny
p671
F1
sVprotect
p672
F1
sVinstant,
p673
F1
sVsort,
p674
F13
sVfault
p675
F3
sVill
p676
F1
sVcountries,
p677
F2
sVserued
p678
F5
sVagainst
p679
F15
sVsort;
p680
F1
sVmagitias
p681
F1
sVbrag
p682
F1
sVsoueraigne,
p683
F2
sV(most
p684
F1
sVasked
p685
F6
sVqueen,
p686
F4
sVreuenged
p687
F6
sVgentlewoman,
p688
F1
sVhonouring
p689
F2
sVburthen
p690
F2
sVheale
p691
F1
sVhast
p692
F2
sVenterprise.
p693
F2
sVfriends.
p694
F1
sVreuenger
p695
F3
sVimbolden
p696
F1
sVtrust
p697
F5
sVhelde
p698
F2
sVconference
p699
F1
sVenglads
p700
F1
sVhadde
p701
F1
sVproceeded
p702
F3
sVfearefull
p703
F4
sVdeliberation;
p704
F1
sVfro
p705
F3
sVthree
p706
F2
sVbeen
p707
F10
sV.
F11
sVaske
p708
F1
sVcommission
p709
F1
sVbeer
p710
F1
sVmuch
p711
F52
sVcimbrians,
p712
F1
sVwere)
p713
F1
sVinterest
p714
F1
sVcoronation,
p715
F1
sVcompanie
p716
F1
sVimbracemtes
p717
F1
sViniquitie
p718
F1
sVreuenewe
p719
F1
sVtrauell
p720
F3
sVenuie
p721
F1
sVlife
p722
F12
sVdeeper
p723
F1
sVprosperous
p724
F1
sVnobility,
p725
F1
sV(to
p726
F2
sVreuenge.
p727
F2
sVconcerning
p728
F4
sVreuenge,
p729
F2
sVwhatsoeuer
p730
F3
sVancestors:
p731
F1
sVplaces
p732
F1
sVcouetousnesse
p733
F1
sVcraft
p734
F2
sVdote
p735
F1
sVchild
p736
F4
sVancestors,
p737
F2
sVancestors.
p738
F1
sVdoth
p739
F5
sVimbasing
p740
F2
sVentertaine
p741
F1
sValiance,
p742
F1
sVpossesse
p743
F1
sVremebring
p744
F1
sVapprehension
p745
F1
sVnowe
p746
F1
sVproceede,
p747
F1
sVreuege
p748
F3
sVreligion
p749
F2
sVbee:
p750
F1
sVproperty
p751
F1
sVshunneth
p752
F1
sVspouse:
p753
F1
sVdeepe
p754
F2
sVrent
p755
F1
sVgod:
p756
F1
sVworking.
p757
F1
sVplayed
p758
F2
sVdiscourses
p759
F1
sVis
p760
F90
sVspectacle
p761
F3
sVit
p762
F107
sVsuruiued
p763
F1
sVhonestie?
p764
F1
sVshame
p765
F1
sVcomonly
p766
F1
sVmocked
p767
F3
sVrigorous,
p768
F1
sVexterior
p769
F1
sVin
p770
F306
sVoppression
p771
F1
sVwitnesse,
p772
F1
sVaccepted,
p773
F1
sVvoyage,
p774
F2
sVif
p775
F49
sVyourself,
p776
F1
sVprincipall
p777
F1
sVdefence
p778
F2
sVlords,
p779
F2
sVthings
p780
F19
sVmake
p781
F30
sVdiuelish
p782
F2
sVheeles,
p783
F1
sVheart:
p784
F1
sVtarquinius
p785
F3
sVadd
p786
F1
sVwarre
p787
F1
sVdestruction:
p788
F1
sVingraff
p789
F1
sVmemorie
p790
F7
sVpreachn
p791
F1
sVhumanitie
p792
F1
sVgiftes,
p793
F1
sVintillegencer,
p794
F1
sVpermit
p795
F1
sVdisloyall
p796
F2
sVbodyes
p797
F2
sVhand
p798
F6
sVliberties
p799
F1
sVgeruendile
p800
F1
sVsaide
p801
F2
sVdiscourse,
p802
F3
sVpractises,
p803
F4
sVdisloyaly
p804
F1
sVmade,
p805
F1
sVgreedily
p806
F1
sVcouetous,
p807
F1
sVcompared
p808
F1
sVsuccessors
p809
F1
sVendeauour.
p810
F1
sVwhereby
p811
F6
sVthy
p812
F27
sVcommon-wealth,
p813
F2
sVblud
p814
F2
sVpossessed
p815
F1
sVyoure
p816
F1
sVfilicitie,
p817
F1
sVhearte
p818
F1
sVrome
p819
F4
sVabudace
p820
F1
sVfumish
p821
F1
sVincapable
p822
F1
sVmother
p823
F10
sVhearts
p824
F2
sVthe
p825
F1129
sVseene,
p826
F3
sVleft
p827
F8
sVexposing
p828
F1
sVopinions
p829
F1
sVanswering
p830
F1
sVappease
p831
F2
sVbeholde
p832
F3
sVpots
p833
F1
sVyea
p834
F2
sVgods
p835
F4
sVgouernment
p836
F1
sVbastard,
p837
F1
sVforsaken
p838
F2
sVgeuare.
p839
F1
sVassigned
p840
F1
sVroderick
p841
F4
sVmeate
p842
F1
sVmaketh
p843
F3
sVpersonages
p844
F2
sVelder,
p845
F1
sVpersonage?
p846
F1
sViestures
p847
F1
sVyet
p848
F31
sVvices
p849
F1
sVditmarsse
p850
F1
sVaccomplished,
p851
F1
sVhal
p852
F1
sVwelcomed,
p853
F1
sVaboundance
p854
F1
sVease
p855
F1
sVhad
p856
F111
sVgrossely
p857
F1
sVthereabouts,
p858
F1
sVspread
p859
F1
sVinnocent
p860
F3
sVels
p861
F1
sVpitiful
p862
F1
sVeast
p863
F1
sVaffectionate
p864
F1
sVvice,
p865
F1
sVcouet
p866
F1
sVabashed
p867
F7
sVcouer
p868
F4
sVdreame
p869
F1
sVbands
p870
F1
sVpersonage,
p871
F2
sVrat,
p872
F1
sVpossible
p873
F1
sVchuse
p874
F4
sVgod.
p875
F1
sVvnknowne
p876
F1
sVbirth
p877
F1
sVdanish
p878
F6
sVtroden
p879
F1
sVcape
p880
F1
sVshadow
p881
F1
sVburnt
p882
F6
sVeuil
p883
F1
sVopinion,
p884
F1
sVapart
p885
F1
sVdesire
p886
F18
sVcolour
p887
F2
sVquickly
p888
F1
sVcauses,
p889
F1
sVtheselues
p890
F4
sVfreedome,
p891
F1
sVsimplicitie,
p892
F1
sVconstrayned
p893
F1
sVcountry,
p894
F1
sVpolicie
p895
F2
sVsteps
p896
F1
sVsatisfaction,
p897
F1
sVnight
p898
F2
sVnotorious
p899
F1
sVcruelty,
p900
F1
sVbecommeth
p901
F1
sValtereth
p902
F1
sVeffusion
p903
F1
sVright
p904
F4
sVhonored
p905
F4
sVpeople
p906
F9
sVbegiule
p907
F1
sVmeaning:
p908
F1
sVdead
p909
F8
sVborn
p910
F1
sVoffer
p911
F1
sVconfesse,
p912
F1
sVtraine,
p913
F1
sVdispleasure
p914
F1
sVescape
p915
F5
sVdear
p916
F1
sVmeaning,
p917
F1
sVdemerits,
p918
F1
sVsubtil
p919
F1
sVenemies
p920
F2
sVdeeper,
p921
F1
sVproceeding
p922
F1
sVfor
p923
F169
sVraced
p924
F1
sVvnciuill.
p925
F1
sVvnciuill,
p926
F1
sVwitte
p927
F1
sVvaliantest
p928
F2
sVoffences,
p929
F2
sVpolluted
p930
F3
sVliue,
p931
F1
sVsubtilties,
p932
F1
sVhonoured
p933
F3
sVdenied
p934
F1
sVgraued
p935
F1
sVspoiled,
p936
F1
sVbeating
p937
F1
sVbeawty,
p938
F1
sVenemie,
p939
F2
sVequitie
p940
F1
sVbold
p941
F3
sVcapacity,
p942
F1
sVdayes
p943
F4
sVgathereth
p944
F1
sVdisdaine
p945
F3
sValiace
p946
F1
sVhss
p947
F1
sVyoke
p948
F1
sVenemie:
p949
F1
sVcommendations,
p950
F1
sVlosing
p951
F1
sVwisdome.
p952
F1
sVwisdome,
p953
F1
sVchapter
p954
F1
sVcraftie
p955
F4
sVoffensiue
p956
F1
sVgraue:
p957
F1
sVbarbarians
p958
F4
sVcommoditie
p959
F1
sVo
F5
sVliues
p960
F2
sVwhilest
p961
F1
sVcompanion,
p962
F1
sVtable,
p963
F4
sVmeaneth
p964
F1
sVliued
p965
F6
sVcommit
p966
F1
sVaccepte
p967
F1
sVmeddle
p968
F1
sVtheire
p969
F7
sVperuerted
p970
F1
sVfor,
p971
F2
sVnought
p972
F1
sVbound
p973
F3
sVromulus
p974
F2
sVgestures,
p975
F2
sVaccomplishments
p976
F1
sVmatter)
p977
F1
sVkisse
p978
F2
sVold
p979
F1
sVsinne
p980
F2
sVcommendable,
p981
F1
sVwan
p982
F1
sVdespised
p983
F1
sVruine,
p984
F3
sVassayling
p985
F1
sVsupport
p986
F1
sVgasing
p987
F1
sVpunishable:
p988
F1
sVfight
p989
F2
sVstuck
p990
F1
sVprepared.
p991
F1
sVvictorious
p992
F1
sVway
p993
F7
sVassaulted
p994
F1
sVwas
p995
F97
sVdeparture,
p996
F1
sVpurposely
p997
F3
sVhappy
p998
F3
sVhead
p999
F2
sVlowe
p1000
F1
sViourney)
p1001
F1
sVwarriour,
p1002
F1
sVdiligence
p1003
F2
sVhother
p1004
F3
sVattempted
p1005
F2
sVgod,
p1006
F2
sVso,
p1007
F4
sVfore
p1008
F1
sVneitherlanders
p1009
F1
sVtaken
p1010
F8
sVhear
p1011
F1
sVlow
p1012
F1
sVsame,
p1013
F4
sV(wil
p1014
F1
sVso:
p1015
F1
sVtrue
p1016
F5
sVmarrie
p1017
F1
sVinheritaces,
p1018
F1
sVadmiration
p1019
F1
sVcomest
p1020
F1
sVvniustly
p1021
F2
sVbounds
p1022
F1
sVprouocations
p1023
F1
sVrestraineth
p1024
F1
sVruines
p1025
F1
sVinquiring
p1026
F1
sVadorn
p1027
F1
sVsticks
p1028
F1
sVvnfortunate,
p1029
F1
sVauthoritie,
p1030
F3
sVfury
p1031
F1
sVsubtiltie,
p1032
F1
sVathes.
p1033
F1
sVpoysoned,
p1034
F1
sVbalder
p1035
F1
sVauthoritie:
p1036
F1
sVpermitteth,
p1037
F1
sVsometime
p1038
F1
sVpromised
p1039
F3
sVbrother.
p1040
F4
sVaccounting
p1041
F1
sVbrother,
p1042
F9
sVprisoners,
p1043
F1
sVdukes,
p1044
F1
sVeternall
p1045
F1
sVwillingly
p1046
F2
sVprofit,
p1047
F2
sVdiuination
p1048
F2
sVhystorie
p1049
F1
sVdying
p1050
F1
sVno
p1051
F33
sVshake,
p1052
F1
sVinioying
p1053
F1
sVdisloyal
p1054
F1
sVwhen
p1055
F24
sVbed.
p1056
F1
sVvanquished
p1057
F5
sVbed,
p1058
F2
sVbrued,
p1059
F1
sVdespising
p1060
F1
sVdepriued
p1061
F4
sVambitious
p1062
F1
sVvanquisher
p1063
F1
sVhandes
p1064
F4
sVboorded,
p1065
F1
sVsmell
p1066
F1
sVruinating
p1067
F1
sVsubiection:
p1068
F1
sVdiuided
p1069
F1
sVincestuous
p1070
F3
sVfunerall
p1071
F2
sVintend
p1072
F1
sVbrothers
p1073
F1
sVvanquished,
p1074
F1
sVstinketh
p1075
F1
sVkilleth
p1076
F1
sVtransported
p1077
F3
sVcrowne
p1078
F2
sVintent
p1079
F3
sVsubtilties
p1080
F6
sVvaliant,
p1081
F2
sVvariable
p1082
F1
sVonely
p1083
F17
sVsects,
p1084
F1
sVsorrow,
p1085
F1
sVcareful
p1086
F1
sVconueyed
p1087
F1
sVnobilitie,
p1088
F1
sVsteede
p1089
F1
sVlonger
p1090
F1
sVbestowed
p1091
F1
sVconfused,
p1092
F1
sVsiluer,
p1093
F1
sVtogether
p1094
F4
sVwayes,
p1095
F1
sVvictory.
p1096
F1
sVknowe
p1097
F2
sVcholler
p1098
F2
sVtime
p1099
F23
sVpush
p1100
F1
sVserueth
p1101
F1
sVbeames
p1102
F1
sVprecedent
p1103
F1
sVcuriositie,
p1104
F1
sVneighbors
p1105
F2
sVcompanions
p1106
F9
sVcruelly
p1107
F1
sVleade
p1108
F1
sVdance
p1109
F1
sVperuse
p1110
F1
sVperuert:
p1111
F1
sVouerthrowne
p1112
F1
sVgentle,
p1113
F1
sVextreamitie
p1114
F1
sVbehauiour,
p1115
F1
sVabundant
p1116
F1
sVfilthy,
p1117
F1
sVprickes,
p1118
F2
sVpollicy,
p1119
F1
sVcherished
p1120
F1
sVfather
p1121
F18
sVterritories
p1122
F1
sVwisely,
p1123
F1
sVhamlets
p1124
F6
sVanswered
p1125
F3
sVcharge
p1126
F3
sVhereof
p1127
F1
sVneerest
p1128
F3
sVseeketh
p1129
F2
sVsharpning
p1130
F1
sVgrowe
p1131
F1
sVwhelpes,
p1132
F1
sVstayd
p1133
F1
sVimpostures
p1134
F1
sVdistresse
p1135
F1
sVinciting
p1136
F1
sVreputation,
p1137
F1
sVblase
p1138
F1
sVsubiects:
p1139
F1
sVarriuing
p1140
F2
sVdissimulation,
p1141
F5
sVsoul,
p1142
F1
sVfarre
p1143
F3
sVtrouble
p1144
F3
sVfretting
p1145
F1
sVchild,
p1146
F1
sVsubiects,
p1147
F7
sVoftentimes
p1148
F1
sVbanished
p1149
F1
sVwitnesse
p1150
F1
sVpresented
p1151
F1
sVdid
p1152
F2
sVdie
p1153
F1
sVrights
p1154
F1
sVbrother
p1155
F11
sVfoundation:
p1156
F1
sVwiglerus
p1157
F2
sVcontemptible
p1158
F1
sVthinke
p1159
F4
sVsodainly,
p1160
F1
sVanswers,
p1161
F1
sVgentlewoman
p1162
F1
sVdoeth
p1163
F1
sVturne
p1164
F1
sVaccomplishment
p1165
F1
sVfearing
p1166
F5
sVbodie
p1167
F3
sVsigh
p1168
F1
sVhowe
p1169
F2
sVliquor,
p1170
F1
sVwherefore
p1171
F2
sVsayd
p1172
F4
sVdelight
p1173
F1
sVpaliardize,
p1174
F1
sVkinsman,
p1175
F1
sVbeseeching
p1176
F3
sVsayd,
p1177
F1
sVobaye,
p1178
F1
sVcurse
p1179
F2
sVsweetnesse
p1180
F1
sVpreferre
p1181
F1
sVcelebrated
p1182
F2
sVimbraceth
p1183
F1
sVgeruthe
p1184
F3
sVadde
p1185
F1
sVsuspect
p1186
F2
sVvillany
p1187
F1
sVemperie,
p1188
F1
sVinsolencies
p1189
F1
sVguilt,
p1190
F1
sVfalling
p1191
F1
sVexample,
p1192
F1
sVfilled
p1193
F3
sVzelin
p1194
F2
sVdeserts,
p1195
F1
sVbereaue
p1196
F4
sVblemished
p1197
F1
sVmeeke
p1198
F1
sVmadnesse,
p1199
F1
sVhonour
p1200
F10
sVdrinking,
p1201
F1
sVlearn
p1202
F1
sVthinke,
p1203
F1
sVfrench
p1204
F1
sVpresence)
p1205
F1
sVmadame,
p1206
F1
sVwitch
p1207
F1
sVmayd
p1208
F1
sVwayes
p1209
F1
sVslaughter;
p1210
F1
sV[
F46
sVsay,
p1211
F1
sVthither,
p1212
F3
sVchange
p1213
F1
sVconiecture
p1214
F1
sVsending
p1215
F2
sVvtter
p1216
F4
sVdesired,
p1217
F1
sVenuie,
p1218
F1
sVvnthankefull,
p1219
F1
sVmy
p1220
F107
sVtitle
p1221
F3
sVinuention
p1222
F2
sVdeliuered
p1223
F1
sVcommonly
p1224
F1
sVaccomplished
p1225
F2
sVbecometh
p1226
F1
sVconsumed)
p1227
F1
sVconcealed
p1228
F1
sVindustry,
p1229
F1
sVcase,
p1230
F2
sVvntractable,
p1231
F1
sVpretence,
p1232
F4
sVspoyle
p1233
F1
sVgrecians
p1234
F1
sVacknowledge
p1235
F1
sVbloody
p1236
F5
sVwithal
p1237
F1
sVfelt:
p1238
F1
sVboyled
p1239
F1
sVbeholde,
p1240
F1
sVbondage,
p1241
F1
sVswallowed
p1242
F1
sVwhereunto
p1243
F2
sVstrooke
p1244
F1
sVwings,
p1245
F2
sVlamented,
p1246
F1
sVdisfigured,
p1247
F1
sVsake
p1248
F2
sVconfounded
p1249
F1
sVvertuous,
p1250
F1
sVvisit
p1251
F1
sVmarryed.
p1252
F1
sVfrance
p1253
F2
sVwrongs
p1254
F2
sVmeaner
p1255
F1
sVdissemble,
p1256
F1
sVadict
p1257
F1
sVmarry
p1258
F2
sVwondering
p1259
F2
sVblacke,
p1260
F1
sVshed.
p1261
F1
sVstoope
p1262
F1
sVwicked
p1263
F13
sVwept
p1264
F1
sVson
p1265
F4
sVincensed,
p1266
F1
sVfierce
p1267
F1
sVwrath,
p1268
F2
sVbereauers
p1269
F1
sVhardie,
p1270
F1
sVmemorie,
p1271
F1
sVaugmented:
p1272
F1
sVcourtyers
p1273
F2
sVignorant
p1274
F2
sVorator
p1275
F1
sVblood,
p1276
F8
sVbeheld
p1277
F2
sVblood)
p1278
F1
sVand,
p1279
F1
sVdeclared,
p1280
F1
sVsathan
p1281
F1
sVchersonnese
p1282
F1
sVincited
p1283
F2
sVpretend
p1284
F1
sVmeans,
p1285
F1
sVwrong,
p1286
F1
sVpurge
p1287
F1
sVhardest
p1288
F1
sVcan
p1289
F16
sVfollowing
p1290
F4
sVwrong:
p1291
F1
sVdissembled
p1292
F2
sVq.
p1293
F1
sVdeceased
p1294
F3
sVheart
p1295
F6
sVburne
p1296
F1
sVdoubteth
p1297
F1
sVcorrupted
p1298
F1
sVattribute
p1299
F2
sVbondage?
p1300
F1
sVinterprise,
p1301
F2
sVconfused
p1302
F1
sVaduance
p1303
F1
sVheare
p1304
F7
sVheard
p1305
F2
sVvillanous
p1306
F1
sVserue
p1307
F8
sVstoln
p1308
F1
sVinterprise:
p1309
F1
sVprudent,
p1310
F1
sVtreasons)
p1311
F1
sVpages,
p1312
F1
sVcommendation
p1313
F1
sViuno
p1314
F1
sVmeans
p1315
F5
sVhystories;
p1316
F1
sVgouernement
p1317
F1
sVleaueth
p1318
F1
sV1
F1
sVtill
p1319
F2
sVsword
p1320
F5
sVaccurrences
p1321
F1
sVfellonie:
p1322
F1
sVnose-
p1323
F1
sVdeserued,
p1324
F1
sVbelongs
p1325
F1
sVconstancie,
p1326
F2
sVstaying
p1327
F1
sVstood
p1328
F2
sVtherby
p1329
F1
sVswayed
p1330
F2
sVmay
p1331
F18
sVheere
p1332
F2
sVcherish
p1333
F1
sVspot
p1334
F1
sVmurtherer
p1335
F7
sViniuring
p1336
F1
sVmad
p1337
F7
sVsuch
p1338
F70
sVcallumniators,
p1339
F1
sVmurthered
p1340
F5
sVfilthy
p1341
F1
sVperforme,
p1342
F1
sVlord,
p1343
F2
sVman
p1344
F56
sVjutie
p1345
F2
sVnatural
p1346
F2
sVremember
p1347
F3
sVsucceeded
p1348
F1
sVmindes,
p1349
F1
sVfayne
p1350
F1
sVfaulte
p1351
F1
sVenemies,
p1352
F1
sVordinarily
p1353
F2
sVenemies.
p1354
F1
sVayded
p1355
F1
sVcraft,
p1356
F1
sVladyes
p1357
F2
sVdishonoured
p1358
F1
sVso
p1359
F152
sVgorged
p1360
F1
sVoffend
p1361
F1
sVconquests
p1362
F1
sVapprehensions,
p1363
F1
sVwealth.
p1364
F1
sVaffirme
p1365
F1
sVvsing
p1366
F3
sV(taking
p1367
F1
sVsonnes
p1368
F1
sVcountenances,
p1369
F1
sVcounsellor
p1370
F3
sVslaine,
p1371
F2
sVended
p1372
F1
sVentreth
p1373
F1
sVdye
p1374
F1
sVgoods,
p1375
F3
sVstill
p1376
F3
sVtyrant:
p1377
F2
sVbirds
p1378
F1
sVreliques
p1379
F1
sVtore
p1380
F1
sVvertues
p1381
F8
sVcontented
p1382
F1
sVhaughty
p1383
F1
sVfaults
p1384
F2
sVmurthers,
p1385
F2
sVpresence
p1386
F2
sVtroubles
p1387
F1
sVsorrie
p1388
F2
sVgroud
p1389
F1
sVmaid
p1390
F1
sVdead)
p1391
F2
sVouermuch
p1392
F1
sVdead,
p1393
F1
sVneede
p1394
F2
sVtroubled
p1395
F2
sVnorway
p1396
F4
sVconquest
p1397
F1
sVhappened
p1398
F1
sVliuely
p1399
F1
sVspirits,
p1400
F3
sVwithin
p1401
F7
sVvaile
p1402
F2
sVcomelines,
p1403
F1
sVthereby
p1404
F18
sVhydeous
p1405
F1
sVbeseech
p1406
F1
sVsooner
p1407
F2
sVnation
p1408
F3
sVtouching
p1409
F10
sVcourse
p1410
F1
sVerre
p1411
F2
sVdartes,
p1412
F1
sVhalf
p1413
F2
sVnot
p1414
F170
sVende,
p1415
F2
sVleopards
p1416
F1
sVnow
p1417
F16
sVkilled
p1418
F5
sVnor
p1419
F38
sVexecute
p1420
F2
sVname
p1421
F4
sVcorners
p1422
F1
sViealousye
p1423
F1
sVpartie
p1424
F1
sVhast,
p1425
F1
sVemperors,
p1426
F1
sVtyrrany
p1427
F1
sVauoyde
p1428
F1
sVvndoubted
p1429
F1
sVgrieuous
p1430
F1
sVvertue,
p1431
F6
sVcoutenance
p1432
F1
sVbeautie,
p1433
F1
sVperceiue
p1434
F2
sVsworde
p1435
F1
sVsuperior:
p1436
F1
sVdirecting
p1437
F2
sVadored,
p1438
F1
sVdrewe
p1439
F1
sVhabitatio
p1440
F1
sVmeruailous
p1441
F1
sVbefell
p1442
F1
sVnaming
p1443
F1
sVenterprised.
p1444
F1
sVshewe
p1445
F9
sVdespight
p1446
F1
sVnaked
p1447
F1
sVaccomplish
p1448
F2
sVielousie)
p1449
F1
sVcould,
p1450
F2
sVshowe
p1451
F1
sValiance
p1452
F1
sVpalace,
p1453
F3
sVantiquitie
p1454
F2
sVturkes,
p1455
F1
sVthus,
p1456
F1
sVcontained
p1457
F1
sVsubtile
p1458
F3
sVpredecessors
p1459
F1
sVinstructions
p1460
F1
sVsubtill
p1461
F6
sVvnderstading
p1462
F1
sVassurance
p1463
F1
sVbordering
p1464
F2
sVguimon
p1465
F2
sVpill,
p1466
F1
sVattended
p1467
F1
sVashes,
p1468
F2
sVdispatched
p1469
F1
sVfire,
p1470
F1
sVcoffers
p1471
F1
sVromans
p1472
F2
sVinwardly
p1473
F1
sVsodaine
p1474
F3
sVobligation
p1475
F1
sVbelongeth
p1476
F1
sVcare
p1477
F2
sVchose
p1478
F1
sVcrueltie
p1479
F1
sVbassa
p1480
F1
sVfidelitie
p1481
F1
sVmodest
p1482
F1
sVowe
p1483
F1
sVhonest
p1484
F5
sVmotion
p1485
F1
sVthing
p1486
F12
sVthine
p1487
F3
sVplace
p1488
F8
sVpreiudiciall
p1489
F1
sVkingdome
p1490
F2
sVmisused
p1491
F1
sVthink
p1492
F4
sVdelighted
p1493
F1
sVfirst
p1494
F5
sVblind
p1495
F1
sVhurtfull
p1496
F1
sVcurtesies
p1497
F1
sVspoken
p1498
F1
sVomitted
p1499
F1
sVmurthers
p1500
F1
sVknoweth
p1501
F2
sVone
p1502
F40
sVfoole,
p1503
F6
sVfoole.
p1504
F1
sVtiranny
p1505
F1
sVfast
p1506
F2
sVfauor
p1507
F1
sVshadowed
p1508
F1
sVimpossible
p1509
F3
sVvnbridled
p1510
F3
sVopen
p1511
F5
sVmassacred
p1512
F1
sVintegritie
p1513
F2
sVlittle
p1514
F4
sVnecessarily
p1515
F1
sVpersons.
p1516
F2
sVpersons,
p1517
F1
sVplaine
p1518
F1
sVmaiestie
p1519
F3
sVimmortall
p1520
F1
sVfought
p1521
F1
sVproclaimed
p1522
F2
sVdeliuer
p1523
F2
sVwelfare
p1524
F4
sVdefie
p1525
F1
sVspeaking
p1526
F3
sVholden
p1527
F1
sVsire,
p1528
F1
sVeyes
p1529
F3
sVknowledg
p1530
F1
sVmurther:
p1531
F1
sVbraue
p1532
F2
sVthat
p1533
F489
sVvncomparable
p1534
F1
sVseason
p1535
F1
sVbetraid
p1536
F1
sVdisputations.
p1537
F1
sVseruice
p1538
F3
sVrefuse
p1539
F2
sVfooles
p1540
F2
sVholdeth,
p1541
F1
sVmurther.
p1542
F1
sVmurther,
p1543
F4
sVremembring
p1544
F2
sVkindreds
p1545
F1
sVtaketh
p1546
F1
sVrepresenting
p1547
F2
sVwauering
p1548
F1
sVorder,
p1549
F1
sVreuenge
p1550
F9
sVforces,
p1551
F1
sVmassacring
p1552
F4
sVtherein:
p1553
F2
sVearth:
p1554
F1
sVfolly
p1555
F3
sVearth?
p1556
F1
sVdistill
p1557
F1
sVtherein,
p1558
F2
sVtherfore
p1559
F2
sVconceaued,
p1560
F1
sVventure
p1561
F1
sVwere
p1562
F54
sVfoolishnesse,
p1563
F1
sVoath
p1564
F2
sVand
p1565
F701
sVtroublesome
p1566
F1
sVmarrying
p1567
F2
sVdewty
p1568
F1
sVskinne,
p1569
F1
sVargument
p1570
F1
sVreprooued
p1571
F1
sV(and
p1572
F2
sVsay
p1573
F3
sVburied
p1574
F1
sVgouerned
p1575
F1
sVsame?
p1576
F1
sVsaw
p1577
F1
sVany
p1578
F64
sVlaw,
p1579
F4
sVsplendure
p1580
F1
sVlaw.
p1581
F2
sVscoured
p1582
F1
sVtreasons
p1583
F6
sVmassacre,
p1584
F2
sVmassacre.
p1585
F1
sVinstructed
p1586
F1
sVtake
p1587
F18
sVprooued
p1588
F1
sVsoeuer
p1589
F6
sVflattered
p1590
F1
sVaccompanieth
p1591
F1
sVhunt
p1592
F1
sVturne,
p1593
F1
sVtrace
p1594
F1
sVrather,
p1595
F1
sVqueene
p1596
F9
sVprice
p1597
F2
sVknew
p1598
F6
sVdifference
p1599
F1
sVcanxot
p1600
F1
sVassault
p1601
F1
sVimbracing
p1602
F1
sVheare,
p1603
F1
sVpleasure
p1604
F14
sVcomplaints
p1605
F1
sVobseques
p1606
F1
sVhoped
p1607
F1
sV]
F46
sVbrutus
p1608
F4
sVimpossible,
p1609
F1
sVqueens
p1610
F1
sVinuenter
p1611
F1
sVcruelties
p1612
F1
sVstrength,
p1613
F1
sVespecially
p1614
F1
sVabashed,
p1615
F2
sVlawe
p1616
F1
sVfarmers
p1617
F1
sVscience,
p1618
F1
sVnot:
p1619
F1
sVtreason)
p1620
F1
sVmassacres
p1621
F1
sVtreason,
p1622
F10
sVfraile
p1623
F1
sVliue
p1624
F6
sVuncle
p1625
F1
sVcoffers,
p1626
F1
sVwine
p1627
F1
sValone,
p1628
F3
sVaffirmed
p1629
F2
sVtherunto
p1630
F2
sVthether
p1631
F1
sV(saith
p1632
F1
sVsurplus
p1633
F1
sVhonour,
p1634
F1
sVshow
p1635
F2
sVinconstancy,
p1636
F2
sVdiuell
p1637
F2
sVadorned
p1638
F1
sVuncle:
p1639
F1
sVpride,
p1640
F1
sVbright
p1641
F1
sVexecuted
p1642
F1
sVcelebrating
p1643
F2
sVcorner
p1644
F1
sVtrueth
p1645
F4
sVwithholdeth
p1646
F1
sVground
p1647
F4
sVchristian,
p1648
F1
sVvpon
p1649
F54
sVslow
p1650
F1
sVmadnesse)
p1651
F1
sVliuius,
p1652
F1
sVgulf
p1653
F1
sVmonarches
p1654
F1
sVhands,
p1655
F1
sVtreasure
p1656
F1
sVcloak
p1657
F1
sVcrime
p1658
F2
sVtry,
p1659
F1
sVonly
p1660
F9
sVgoing
p1661
F3
sVconsideration,
p1662
F3
sVdissembling
p1663
F6
sVpreuented
p1664
F1
sVoutrage
p1665
F2
sVrecommendeth
p1666
F1
sVboyle
p1667
F1
sVbrittain
p1668
F1
sV(beeing
p1669
F1
sVget
p1670
F1
sVassistant
p1671
F1
sVscepter,
p1672
F1
sVprocurement)
p1673
F1
sVend:
p1674
F1
sVlayd
p1675
F2
sVgraunt
p1676
F1
sVcomend
p1677
F1
sVcannot
p1678
F6
sVimagine,
p1679
F2
sVoperations,
p1680
F1
sVhonours
p1681
F1
sVditmarsse.
p1682
F1
sVcelebrate
p1683
F2
sVvnderstood
p1684
F3
sVregarding
p1685
F1
sVaduertise
p1686
F1
sVmorning
p1687
F1
sVreuengeth
p1688
F1
sVrob,
p1689
F1
sVfriends,
p1690
F4
sVneithward
p1691
F1
sVwhere
p1692
F13
sVhusband
p1693
F6
sVsalomon
p1694
F2
sVdeclared
p1695
F1
sVgouernors
p1696
F1
sVbeholding
p1697
F4
sVlayne
p1698
F1
sVhurt,
p1699
F1
sVviolated
p1700
F1
sVcomparable
p1701
F1
sVbabler
p1702
F2
sVinioy,
p1703
F2
sVouer
p1704
F17
sVsplendor,
p1705
F1
sVhastened
p1706
F1
sVsport
p1707
F3
sVreputed
p1708
F1
sVpoints
p1709
F1
sVstad
p1710
F1
sVcome,
p1711
F1
sVprayses.
p1712
F1
sVcome.
p1713
F1
sVdenmarke
p1714
F12
sVthreatning
p1715
F1
sVeffect:
p1716
F1
sVman:
p1717
F1
sVenough
p1718
F2
sVherself,
p1719
F1
sVfaile
p1720
F1
sVeuident
p1721
F2
sVabuses,
p1722
F1
sVrespecteth
p1723
F1
sVreading
p1724
F2
sVman,
p1725
F16
sVman.
p1726
F1
sVopportunitie,
p1727
F1
sVcrueltie,
p1728
F3
sVpassions,
p1729
F1
sVkilling
p1730
F3
sVblame
p1731
F3
sVsea)
p1732
F1
sVsacked
p1733
F1
sVspare
p1734
F2
sVsea,
p1735
F1
sVcontemplation,
p1736
F1
sVfriendes
p1737
F1
sViutie,
p1738
F1
sVcalamitie:
p1739
F1
sVmans
p1740
F2
sVvices,
p1741
F1
sVthen,
p1742
F4
sVthemselues,
p1743
F3
sVmany
p1744
F18
sVdenmark.
p1745
F1
sVaccording
p1746
F9
sVyt,
p1747
F1
sVwherin
p1748
F3
sVfortunes,
p1749
F1
sVamong
p1750
F17
sVcosent
p1751
F1
sVcountrie
p1752
F2
sVvictorie,
p1753
F1
sVcomforted
p1754
F1
sVauncient
p1755
F5
sVside,
p1756
F1
sVsatisfaction
p1757
F1
sVslain
p1758
F1
sVnecke
p1759
F1
sVlearning
p1760
F1
sVmeate,
p1761
F1
sVcaring
p1762
F3
sVmare
p1763
F1
sVvsed
p1764
F16
sVpractises
p1765
F6
sVpolicie,
p1766
F2
sVturkes
p1767
F1
sVinformed
p1768
F2
sVaccomplish,
p1769
F1
sVtaken,
p1770
F1
sVcomitted,
p1771
F1
sVendure,
p1772
F1
sVpunished
p1773
F3
sVwilled
p1774
F1
sVvnderstanding
p1775
F1
sVpromises,
p1776
F1
sVhardly
p1777
F2
sVstraying
p1778
F1
sVaffirmed,
p1779
F1
sVyeer
p1780
F1
sVoffered
p1781
F3
sVmadnes:
p1782
F1
sVabuseth
p1783
F1
sVmocking
p1784
F1
sVburied,
p1785
F1
sVwilles,
p1786
F1
sVodiously
p1787
F1
sVminister
p1788
F2
sVsuspected
p1789
F1
sVextant
p1790
F1
sVmadnes,
p1791
F1
sVfoure
p1792
F1
sVspirit
p1793
F7
sVthose
p1794
F35
sVcase
p1795
F1
sVmassacres?
p1796
F1
sVconfession,
p1797
F1
sVcourtisie
p1798
F1
sVgallant,
p1799
F1
sVthese
p1800
F8
sVvse,
p1801
F2
sVimbracings
p1802
F1
sVpretence
p1803
F1
sVlife:
p1804
F5
sVready,
p1805
F1
sVsweathlanders
p1806
F1
sVcast
p1807
F6
sVtragedy
p1808
F1
sVthankefull
p1809
F1
sVriuer
p1810
F1
sVlife.
p1811
F2
sVtapestrie
p1812
F1
sVlife,
p1813
F15
sVpractise,
p1814
F1
sVart,
p1815
F1
sVlife)
p1816
F1
sVdanger;
p1817
F1
sVamitye,
p1818
F1
sVfool
p1819
F1
sVduties,
p1820
F1
sVreiect
p1821
F1
sVperson.
p1822
F1
sVperson,
p1823
F1
sVcommander
p1824
F1
sVpetie
p1825
F1
sVembrace
p1826
F1
sVwisely
p1827
F2
sVreceptacle
p1828
F1
sVmooued,
p1829
F1
sVbeene
p1830
F13
sVyeeld,
p1831
F1
sVrecouer
p1832
F1
sVbodie,
p1833
F3
sVesteeme
p1834
F4
sVmadnesse
p1835
F3
sVbowe
p1836
F1
sVassure
p1837
F2
sVpay
p1838
F1
sVlittle,
p1839
F1
sVperpetually
p1840
F1
sVsteppes
p1841
F1
sVsame
p1842
F14
sVcharitie
p1843
F4
sVdiscouer
p1844
F6
sVsaued
p1845
F1
sVheire
p1846
F3
sVsayd:
p1847
F2
sVgardens,
p1848
F1
sVkingdome,
p1849
F4
sVnoble
p1850
F5
sVinuenters
p1851
F1
sVmultitude,
p1852
F1
sVweight,
p1853
F1
sVcompanion
p1854
F2
sVpersons
p1855
F1
sVrunning
p1856
F1
sVfruit
p1857
F2
sVdelicate
p1858
F2
sVinfamie,
p1859
F1
sVruffling
p1860
F1
sVhermetrude
p1861
F9
sVcontenting
p1862
F1
sVprouided
p1863
F1
sVmagical
p1864
F1
sVathenian
p1865
F1
sVwithout
p1866
F38
sVglorious
p1867
F1
sVvery
p1868
F4
sVreward
p1869
F4
sVargument:
p1870
F1
sVwhereas
p1871
F2
sVbodies
p1872
F1
sVcarefully,
p1873
F1
sVinheriters
p1874
F1
sVfollowed.
p1875
F6
sVeuidently
p1876
F2
sVhogs,
p1877
F1
sVslowe
p1878
F1
sVbeing
p1879
F45
sVonely,
p1880
F2
sVguided
p1881
F2
sVshameles
p1882
F1
sVdiscoursing
p1883
F1
sVactions
p1884
F5
sVlasciuiousnesse,
p1885
F1
sVransome
p1886
F1
sVresons
p1887
F1
sVviolent
p1888
F4
sVkill
p1889
F2
sVimpressions,
p1890
F1
sVweake
p1891
F1
sVkill,
p1892
F1
sVchance,
p1893
F1
sVlegerdemane,
p1894
F1
sVspeed
p1895
F1
sVbetrayeth
p1896
F1
sVpunishments,
p1897
F1
sVdeath
p1898
F22
sVrepentance,
p1899
F1
sVgrounded
p1900
F2
sVthinking
p1901
F2
sVpossible,
p1902
F1
sViudge
p1903
F1
sVdesireth
p1904
F1
sVapperteined
p1905
F1
sVdeceit,
p1906
F1
sVdaughter,
p1907
F3
sVtrespasses
p1908
F1
sVastonishment
p1909
F1
sVseeme
p1910
F4
sVancius
p1911
F1
sVsurmounted
p1912
F2
sVbones.
p1913
F1
sVkingdom
p1914
F2
sVwife)
p1915
F1
sVcertaine
p1916
F6
sVread
p1917
F7
sVvnsensible
p1918
F1
sVneuer
p1919
F31
sVaction,
p1920
F3
sVaction.
p1921
F1
sVsences,
p1922
F3
sVcoutry,
p1923
F1
sVdetract
p1924
F1
sVinchanters,
p1925
F1
sVworld
p1926
F2
sVhonestie
p1927
F1
sVlady
p1928
F5
sVseruants,
p1929
F1
sVdare
p1930
F2
sVhereafter
p1931
F1
sVacquainted
p1932
F1
sVfortune
p1933
F11
sVnoble,
p1934
F1
sVstranger
p1935
F1
sVvnfortunate
p1936
F1
sVfelicitie,
p1937
F1
sVpiece
p1938
F1
sVconiecture)
p1939
F1
sVchamber
p1940
F2
sVbenefit
p1941
F5
sVyeelded
p1942
F1
sVmiraculous
p1943
F1
sVeither
p1944
F9
sVnephews
p1945
F1
sVwoman,
p1946
F6
sVwisdome
p1947
F1
sVtooke
p1948
F3
sVwoman)
p1949
F1
sVtragicall
p1950
F1
sVfengon
p1951
F32
sVperpetuall
p1952
F2
sVsadde,
p1953
F1
sVexposed
p1954
F1
sVgospell,
p1955
F2
sVreceiued
p1956
F8
sVtragedies
p1957
F2
sVdeceiue,
p1958
F1
sVmurtherous
p1959
F2
sVseruantes
p1960
F1
sVhaynous
p1961
F1
sVkings
p1962
F13
sVimages
p1963
F1
sVreuenged,
p1964
F1
sVsommer
p1965
F1
sVreasons
p1966
F1
sVwhoremongers,
p1967
F1
sVthemselues
p1968
F6
sVbones
p1969
F2
sVashes
p1970
F2
sVmemories
p1971
F2
sVyron,
p1972
F1
sVcountenances
p1973
F2
sVgrose
p1974
F1
sVseuerely
p1975
F1
sVleaue
p1976
F11
sVlastly,
p1977
F1
sVrefer
p1978
F1
sVsurpasseth
p1979
F2
sVconsidering
p1980
F2
sVfelt
p1981
F1
sVdeceiued
p1982
F3
sVpower
p1983
F4
sVquit
p1984
F1
sValmighty.
p1985
F1
sVvaine
p1986
F2
sVnotable
p1987
F3
sVphilosophie,
p1988
F1
sVsubiection
p1989
F1
sVroyall
p1990
F3
sVdeceiuer
p1991
F1
sVtragedie,
p1992
F1
sVgallants
p1993
F1
sVteares
p1994
F1
sVeuristheus
p1995
F1
sVsubtilty
p1996
F3
sVvilain
p1997
F1
sVstrangled
p1998
F1
sVinticing
p1999
F2
sVon
p2000
F11
sVreceaued,
p2001
F2
sVconsequence,
p2002
F1
sVaforesaide
p2003
F1
sVof
p2004
F813
sVcountenance,
p2005
F1
sVslender
p2006
F1
sVwhence
p2007
F3
sVfell
p2008
F1
sVstand
p2009
F3
sVwold
p2010
F3
sVact
p2011
F2
sVout,
p2012
F2
sVor
p2013
F74
sVroad
p2014
F1
sVhony,
p2015
F2
sVladies
p2016
F2
sVshowne
p2017
F1
sVsubtiltyes
p2018
F1
sVspreading
p2019
F1
sVdeposing
p2020
F1
sVblessed
p2021
F1
sVenioy
p2022
F2
sVabandoneth
p2023
F1
sVverily
p2024
F1
sVwit,
p2025
F1
sVmariage
p2026
F1
sVvnto
p2027
F32
sVyour
p2028
F67
sValuremets
p2029
F1
sVcared
p2030
F1
sVlog
p2031
F1
sVprepare
p2032
F2
sVcountrey
p2033
F8
sVabuse,
p2034
F1
sVsatisfied,
p2035
F1
sVthere
p2036
F25
sVhazards
p2037
F1
sVwithal,
p2038
F1
sVseeth,
p2039
F1
sVhee
p2040
F73
sVinuent
p2041
F2
sVeuer
p2042
F16
sVpractised
p2043
F2
sVincouraged
p2044
F1
sVsadnes?
p2045
F1
sVlyes
p2046
F1
sVyou,
p2047
F20
sVyou)
p2048
F2
sVtroubles,
p2049
F1
sVregard
p2050
F3
sVclothes,
p2051
F2
sVvertuous
p2052
F8
sVgods,
p2053
F3
sVyou?
p2054
F1
sVcuriously
p2055
F1
sVyou;
p2056
F1
sVrestfull
p2057
F1
sVanother,
p2058
F1
sVaide
p2059
F1
sVland,
p2060
F1
sVpallace
p2061
F2
sVheadlog
p2062
F1
sVabused
p2063
F3
sVpull
p2064
F1
sVrage
p2065
F1
sVare,
p2066
F1
sVcrown:
p2067
F1
sVwithall
p2068
F2
sVfaithfulnesse
p2069
F1
sVtaught
p2070
F1
sVimpute
p2071
F1
sVvnited
p2072
F1
sVdowne:
p2073
F1
sVhe,
p2074
F2
sVhaughtie
p2075
F3
sVhe)
p2076
F1
sVaffection
p2077
F4
sVposterity,
p2078
F1
sVhearts;
p2079
F1
sVintents
p2080
F1
sVcariage
p2081
F1
sVpity,
p2082
F2
sVremembrances
p2083
F1
sVcourtiers,
p2084
F3
sVcertain
p2085
F2
sVprocured,
p2086
F1
sVam
p2087
F18
sVal
p2088
F16
sVdeep
p2089
F1
sVan
p2090
F39
sVas
p2091
F197
sVwords,
p2092
F1
sVhearts.
p2093
F1
sVat
p2094
F49
sVhearts,
p2095
F1
sVshut
p2096
F2
sVcommons,
p2097
F1
sVarriued
p2098
F1
sVfollyes.
p2099
F1
sVcourtiers:
p2100
F1
sVtedious
p2101
F1
sVyon
p2102
F1
sVstring,
p2103
F1
sVmanaging
p2104
F1
sVwhatsoeuer:
p2105
F1
sVslaundered
p2106
F1
sVdye,
p2107
F2
sVyog
p2108
F1
sVdiscouering
p2109
F1
sVconsciences,
p2110
F1
sVfoole
p2111
F2
sVresistance,
p2112
F1
sVthither
p2113
F4
sVfield
p2114
F2
sVwhatsoeuer,
p2115
F7
sVdeuotion
p2116
F1
sVparts:
p2117
F1
sVdiuinatio
p2118
F1
sVprise
p2119
F1
sVthousand
p2120
F2
sVbordereth
p2121
F1
sVpresenting
p2122
F1
sVrenowned
p2123
F1
sVsuspitio
p2124
F1
sVperils
p2125
F1
sVforgot
p2126
F3
sVgifts
p2127
F2
sVdishonour
p2128
F2
sVprincesse
p2129
F4
sVbrands
p2130
F2
sVremembrance,
p2131
F1
sVprudent
p2132
F2
sV(laden
p2133
F1
sVintent,
p2134
F2
sVbounden
p2135
F1
sVhistories,)
p2136
F1
sVouerthrowe?
p2137
F1
sVwife
p2138
F9
sVfauour
p2139
F1
sVdenmarke.
p2140
F1
sVtreasor
p2141
F1
sVdyed
p2142
F1
sVinferiour
p2143
F1
sVdiscreet
p2144
F2
sVquarrell
p2145
F1
sVdoubted
p2146
F3
sVtreason
p2147
F7
sVseruitude.
p2148
F2
sVinfranchise
p2149
F1
sVpietie
p2150
F1
sVstarting
p2151
F1
sVbanishment
p2152
F1
sVambassadors:
p2153
F1
sVall
p2154
F79
sVindiscretion
p2155
F1
sVconsider
p2156
F2
sVvile
p2157
F2
sVcaused
p2158
F16
sVhapned
p2159
F2
sVmisfortunes:
p2160
F1
sVson,
p2161
F2
sVmaiestie.
p2162
F1
sVceased
p2163
F3
sVfalsifie
p2164
F1
sV(if
p2165
F2
sVobscuring
p2166
F1
sVbasenes
p2167
F4
sVfollow
p2168
F8
sVseazed
p2169
F1
sVminde,
p2170
F3
sV(in
p2171
F4
sVcauser
p2172
F1
sVconsaguinitie.
p2173
F1
sVwanton
p2174
F4
sVworde,
p2175
F1
sVnorth,
p2176
F3
sVpronouncers,
p2177
F1
sVbookes,
p2178
F1
sVmother:
p2179
F1
sVprouince,
p2180
F1
sVto
p2181
F749
sVprouince.
p2182
F2
sVdrinke.
p2183
F1
sVrothere
p2184
F1
sVmother,
p2185
F11
sVsafety
p2186
F1
sVloyallie
p2187
F1
sVdelighteth
p2188
F1
sVafraide
p2189
F1
sVdeceiue
p2190
F1
sVcause,
p2191
F2
sVmindes
p2192
F1
sVwoman
p2193
F9
sVreturned
p2194
F2
sVreturning
p2195
F1
sVfar
p2196
F5
sVintertainment),
p2197
F1
sVshortly,
p2198
F1
sVwill:
p2199
F2
sVarras,
p2200
F2
sVfall
p2201
F5
sVounces,
p2202
F1
sVconscience,
p2203
F2
sVmurtherers,
p2204
F1
sVintertainment
p2205
F1
sVcunningly
p2206
F1
sVcondition
p2207
F1
sVdiscommoditie
p2208
F1
sVloyaltie
p2209
F2
sVmothers
p2210
F1
sVingratitude
p2211
F1
sVarts
p2212
F2
sVlarge
p2213
F2
sVdanger,
p2214
F3
sVfellonious
p2215
F1
sVcan)
p2216
F1
sVsmall
p2217
F13
sVvoyage.
p2218
F1
sVperswaded,
p2219
F1
sVmens.
p2220
F1
sVvanquish
p2221
F1
sVthought,
p2222
F3
sVsoeuer)
p2223
F1
sV(whom
p2224
F2
sVhonourably
p2225
F1
sVstreets
p2226
F1
sVhystory
p2227
F1
sVpast
p2228
F7
sVson)
p2229
F1
sVhonourable
p2230
F3
sVcourtezans
p2231
F1
sVbehaued
p2232
F2
sVcup,
p2233
F1
sVfurther
p2234
F2
sVlying,
p2235
F1
sVcompasse
p2236
F1
sVconscience
p2237
F4
sVwhat
p2238
F62
sVtherof:
p2239
F1
sVsuccessor,
p2240
F2
sVaffections,
p2241
F1
sVsuccessor.
p2242
F1
sVsun
p2243
F1
sVsum
p2244
F1
sVdames,
p2245
F1
sVinsteed
p2246
F1
sVwitnesses
p2247
F2
sVmuste
p2248
F1
sVhim,
p2249
F47
sVlosse,
p2250
F1
sVtherof,
p2251
F2
sVhim)
p2252
F2
sVprostrated
p2253
F2
sVconcubine
p2254
F1
sVreporters,
p2255
F1
sVaduised,
p2256
F1
sVmultitude
p2257
F4
sVcreature,
p2258
F1
sVquenched
p2259
F2
sVfull
p2260
F6
sVchristian
p2261
F1
sVhoure
p2262
F1
sVliuelinesse
p2263
F1
sVma
p2264
F1
sVloose
p2265
F9
sVpittifull
p2266
F2
sVanswers
p2267
F1
sVvomiting
p2268
F2
sVbehoulding
p2269
F1
sVfuly
p2270
F1
sVanswere
p2271
F4
sVshoulde
p2272
F1
sVdeuiners,
p2273
F1
sVstrong
p2274
F1
sVtable
p2275
F2
sVquicke,
p2276
F1
sVfantasies
p2277
F2
sVsterne
p2278
F1
sVspeeches
p2279
F5
sVbible
p2280
F1
sVactios
p2281
F1
sVmeates
p2282
F1
sVmariage:
p2283
F1
sVimbraced
p2284
F3
sVinspired
p2285
F1
sVyoung,
p2286
F1
sVexperience
p2287
F2
sVthereof.
p2288
F1
sVinfringe
p2289
F1
sVimbase
p2290
F2
sVsorowfull
p2291
F1
sVmisery
p2292
F2
sVaction
p2293
F3
sVdeuils
p2294
F2
sVnarrow
p2295
F1
sVmooued
p2296
F5
sVdistraught,
p2297
F1
sVbycause
p2298
F1
sVbarbarous,
p2299
F1
sVrelent
p2300
F1
sVfoundation,
p2301
F1
sVpoore
p2302
F3
sVarmes
p2303
F2
sViustly
p2304
F3
sViewes
p2305
F1
sVpirate.
p2306
F1
sVbanquets,
p2307
F1
sVreiected
p2308
F3
sVshee
p2309
F18
sVamazement
p2310
F1
sVcontrarye
p2311
F1
sVknow,
p2312
F4
sVdedesires
p2313
F1
sVarmed
p2314
F2
sVdecyded
p2315
F1
sVthinges
p2316
F4
sVsubiects
p2317
F2
sVlady,
p2318
F2
sVsubtill,
p2319
F1
sVlady.
p2320
F1
sVpollitike
p2321
F1
sVproceed
p2322
F5
sVthereby,
p2323
F1
sVsuperstition,
p2324
F1
sVsparkes
p2325
F1
sVloued,
p2326
F1
sVtwo
p2327
F13
sVbaits,
p2328
F1
sVrustie
p2329
F1
sVmisery,
p2330
F1
sVmore
p2331
F50
sVsheweth
p2332
F1
sVreiected,
p2333
F1
sVturn,
p2334
F1
sVcontrary:
p2335
F1
sVcompany
p2336
F3
sVcaptiuity
p2337
F1
sVfollowe,
p2338
F1
sVsoliman
p2339
F2
sVpossession
p2340
F1
sVexcuse
p2341
F1
sVgentleman
p2342
F4
sVknown
p2343
F3
sVfoundations
p2344
F1
sVgrudging;
p2345
F1
sVglad
p2346
F1
sVcunning
p2347
F1
sVfolloweth.
p2348
F1
sVnone
p2349
F1
sVcloud,
p2350
F1
sVbereaued
p2351
F5
sVmiddle
p2352
F1
sVreape
p2353
F1
sVmodesty,
p2354
F1
sVbritaine
p2355
F1
sVdiscomforted
p2356
F1
sVsoule
p2357
F1
sVoffended
p2358
F7
sVceasing
p2359
F1
sVparents,
p2360
F3
sVlawes,
p2361
F2
sVsuperstitions
p2362
F1
sVnothing,
p2363
F3
sVhistory
p2364
F1
sVbeautiful
p2365
F1
sVdisgrace,
p2366
F1
sVcompare
p2367
F2
sVprompt
p2368
F1
sV(with
p2369
F2
sVshamefast
p2370
F1
sVcourtesies
p2371
F1
sVmeanes
p2372
F31
sVfunctions
p2373
F1
sVtreasons,
p2374
F2
sVfury,
p2375
F1
sVaccept
p2376
F2
sV(halfe
p2377
F1
sVmetamorphosis
p2378
F1
sVnumbers
p2379
F1
sVsharp
p2380
F2
sVdisliked
p2381
F1
sVcousels,
p2382
F1
sVstrangely,
p2383
F1
sVdelights,
p2384
F1
sVagaine,
p2385
F1
sVneeds
p2386
F1
sVcourt
p2387
F4
sVrather
p2388
F18
sVstayed
p2389
F4
sVfame
p2390
F1
sVcondemne
p2391
F1
sVfeareth
p2392
F2
sVswethland,
p2393
F1
sVsacred
p2394
F2
sVextinguished
p2395
F1
sVsteps,
p2396
F1
sV(here
p2397
F1
sV(sayd
p2398
F1
sVtyed
p2399
F1
sVcreature
p2400
F1
sVacknowledging
p2401
F1
sVcourtesie:
p2402
F1
sVplant
p2403
F1
sVgeuare
p2404
F1
sVrude
p2405
F2
sVdishonor,
p2406
F2
sVemperour
p2407
F1
sVrash,
p2408
F1
sVdrunkennesse
p2409
F1
sVhardyest
p2410
F1
sVblood
p2411
F11
sVcourtesie,
p2412
F3
sV(who
p2413
F2
sVconsenting
p2414
F1
sVmadnes.
p2415
F1
sVa
F265
sVexployt
p2416
F1
sVdaye
p2417
F1
sVchiefly
p2418
F2
sVresemble
p2419
F2
sVwoods,
p2420
F1
sVsence
p2421
F4
sVdeparture
p2422
F1
sVarrowes,
p2423
F1
sVact,
p2424
F1
sVequitie,
p2425
F1
sV(besotted
p2426
F1
sVperuersenes
p2427
F1
sViutie
p2428
F3
sVeate
p2429
F1
sVcrafty
p2430
F1
sVwould.
p2431
F1
sVheires
p2432
F1
sVvalour
p2433
F1
sVouerthrowing
p2434
F1
sVclemencie
p2435
F2
sVreiecteth)
p2436
F1
sVcounsellour
p2437
F1
sVflowers
p2438
F1
sVgrandfather,
p2439
F2
sVshunne
p2440
F3
sVslept,
p2441
F2
sVheld
p2442
F2
sVfictions
p2443
F1
sVthrough
p2444
F4
sVgreate
p2445
F9
sVcommitted
p2446
F6
sVtyrant.
p2447
F1
sVsmiling
p2448
F1
sVtyrant,
p2449
F9
sVdayly
p2450
F1
sVfindeth
p2451
F1
sVoccasion:
p2452
F1
sViudgment
p2453
F1
sVpeeces,
p2454
F1
sVpray
p2455
F7
sVinward
p2456
F1
sVwars,
p2457
F1
sVcourse.
p2458
F1
sVcourse,
p2459
F2
sVfair,
p2460
F1
sVlate
p2461
F2
sVgouernment:
p2462
F1
sVstrange
p2463
F7
sVoccasion,
p2464
F2
sVcodemned
p2465
F1
sVhart,
p2466
F1
sVmight
p2467
F13
sVit.
p2468
F2
sVit,
p2469
F8
sVgood
p2470
F44
sVtyrants
p2471
F1
sV(appointed
p2472
F1
sVseeking
p2473
F7
sVhoping
p2474
F1
sVtreaso
p2475
F1
sVwoulde
p2476
F1
sVye
p2477
F28
sVhel:
p2478
F1
sVhanged.
p2479
F1
sVestate:
p2480
F1
sVdeuine,
p2481
F1
sVme.
p2482
F1
sVmaiesty
p2483
F2
sVaduertisement,
p2484
F1
sVmelancholy
p2485
F1
sVconuerted,
p2486
F1
sVcourtyers;
p2487
F1
sVyt
p2488
F42
sVgreat,
p2489
F1
sVeasily
p2490
F5
sVdeuised
p2491
F4
sVpractitioners,
p2492
F1
sVrustain
p2493
F1
sVpregnant
p2494
F1
sVelected
p2495
F1
sVoccasions
p2496
F1
sVall,
p2497
F1
sVdeserue
p2498
F1
sVreceaued:
p2499
F1
sVreioycing,
p2500
F1
sValreadye
p2501
F1
sVcourses
p2502
F1
sVdisdaining
p2503
F1
sVreprooued,
p2504
F1
sValso,
p2505
F1
sVintefernall
p2506
F1
sVfound
p2507
F5
sVlikelihoods
p2508
F1
sVdifficult
p2509
F1
sVbetweene
p2510
F5
sVarmes,
p2511
F4
sV(but
p2512
F1
sVflattring
p2513
F1
sVobtaine
p2514
F1
sVengland
p2515
F33
sVparts,
p2516
F1
sVhouse
p2517
F3
sVhard
p2518
F8
sVvnfained
p2519
F1
sVhouse,
p2520
F2
sVpraise:
p2521
F1
sVenquirie
p2522
F1
sViustifie
p2523
F1
sVexpect
p2524
F2
sVsuspecting
p2525
F1
sVseditious
p2526
F1
sVmooue
p2527
F1
sVflower
p2528
F2
sVhonor:
p2529
F1
sVsince
p2530
F6
sVprogenitors,
p2531
F1
sVparticipants
p2532
F1
sVdeare
p2533
F2
sV(solicited
p2534
F1
sVinduced
p2535
F1
sVissue
p2536
F2
sVraigning,
p2537
F1
sVdispised
p2538
F1
sVstead
p2539
F3
sVcomandements
p2540
F1
sVwent,
p2541
F1
sVremember,
p2542
F3
sVeffect
p2543
F16
sVpleasant
p2544
F2
sVquick
p2545
F1
sVreason
p2546
F13
sVbase
p2547
F4
sVquicke
p2548
F1
sVmadman,
p2549
F3
sVmembers
p2550
F1
sVwherof
p2551
F1
sVput
p2552
F14
sVpatrimony,
p2553
F1
sVshoulders,
p2554
F2
sVconcupiscence:
p2555
F1
sVbellyes.
p2556
F1
sVsauour
p2557
F2
sVconstraineth
p2558
F1
sVwittes:
p2559
F1
sVomit
p2560
F1
sVtrust,
p2561
F1
sVexpecting
p2562
F1
sVcontry
p2563
F1
sVonelye
p2564
F1
sVfallen
p2565
F1
sV(incited
p2566
F1
sVinfamy
p2567
F2
sVsimply
p2568
F3
sVrelate
p2569
F1
sVpledges,
p2570
F1
sVtreasure,
p2571
F2
sVbarbarian
p2572
F1
sVfeet
p2573
F1
sVelder
p2574
F1
sVdone
p2575
F22
sVseas;
p2576
F1
sVguard
p2577
F1
sVexecutioners
p2578
F1
sVoccurrence
p2579
F1
sVhorse
p2580
F1
sVvneuitable
p2581
F1
sVheads
p2582
F1
sVleading
p2583
F1
sVslanderers
p2584
F1
sVleast
p2585
F3
sVthreatned
p2586
F1
sVother,
p2587
F3
sVcoutesie,
p2588
F1
sVdrinke
p2589
F3
sVpoints,
p2590
F2
sVhundred
p2591
F1
sVstore
p2592
F2
sVexecutioner,
p2593
F1
sVnecessitie
p2594
F1
sVimperfect
p2595
F1
sVdemerit,
p2596
F1
sVstayeth
p2597
F1
sVmartinus
p2598
F1
sVimprinted
p2599
F1
sVcitizens.
p2600
F1
sVwickednesse
p2601
F1
sVtreasures
p2602
F5
sVdissemble
p2603
F1
sVauthors
p2604
F1
sVdesire:
p2605
F2
sVgrace
p2606
F1
sVking
p2607
F88
sVattentiue,
p2608
F1
sVripe,
p2609
F1
sVlament
p2610
F2
sV(seeing
p2611
F2
sVdouble
p2612
F2
sVyong,
p2613
F1
sVcitty.
p2614
F1
sVdispensed
p2615
F1
sVthinkes
p2616
F1
sVmarriage
p2617
F11
sVsupposed
p2618
F2
sVvigelant,
p2619
F1
sVdane
p2620
F4
sVcourtesie
p2621
F2
sVpasse.
p2622
F1
sVdeclare
p2623
F2
sVbeast,
p2624
F2
sVexecutioner
p2625
F1
sVvertue
p2626
F12
sVgeruthes
p2627
F1
sVouerthrow,
p2628
F4
sVpart,
p2629
F1
sVtowardes
p2630
F2
sValledged
p2631
F1
sVcontrary
p2632
F2
sVamitie,
p2633
F1
sVchoaked
p2634
F1
sVfirst,
p2635
F2
sVbehoofe
p2636
F1
sVaduenture
p2637
F1
sVroyaltie
p2638
F1
sVwoman!
p2639
F1
sVself
p2640
F4
sVeasilie
p2641
F2
sVscotland
p2642
F3
sVk.
p2643
F3
sValso
p2644
F16
sVfertiler
p2645
F1
sVsharpe
p2646
F3
sVfinding
p2647
F4
sVvnskilfull
p2648
F1
sVother;
p2649
F3
sVvnexpected
p2650
F1
sVdistresse,
p2651
F1
sVplay
p2652
F2
sVtowards
p2653
F1
sVweepeth
p2654
F1
sVage:
p2655
F1
sVflatttering
p2656
F1
sVrecompence,
p2657
F2
sVenglish
p2658
F3
sVeffecting
p2659
F3
sVmost
p2660
F26
sVcharm
p2661
F1
sVadonis
p2662
F1
sVeaten
p2663
F1
sVnothing
p2664
F10
sVaccepting
p2665
F1
sVmeasured
p2666
F1
sVbridle,
p2667
F1
sVsaile
p2668
F1
sVayding
p2669
F1
sVswethlanders
p2670
F1
sVdemand
p2671
F1
sVthiefe
p2672
F2
sVage
p2673
F1
sVwishe
p2674
F1
sVsimplicitye,
p2675
F1
sV(specially
p2676
F1
sVpart
p2677
F17
sVouerthrowes
p2678
F1
sVarmours:
p2679
F1
sVcharged
p2680
F2
sVassisted
p2681
F3
sVlying
p2682
F5
sVbeawtifull
p2683
F1
sVdespise
p2684
F2
sVcobwebs,
p2685
F1
sVaccout
p2686
F2
sVfond
p2687
F1
sVdefended
p2688
F2
sVvertue.)
p2689
F1
sVwelfare)
p2690
F2
sVwounded
p2691
F1
sVforcible
p2692
F1
sVsurpassed
p2693
F1
sVarming
p2694
F2
sVvpper
p2695
F2
sVintreating
p2696
F1
sVfine
p2697
F2
sVfind
p2698
F2
sVdefeders,
p2699
F1
sVyoak
p2700
F1
sVvigour
p2701
F3
sVwaiting
p2702
F1
sVditmarse
p2703
F1
sVdiscouered
p2704
F3
sVbetray
p2705
F2
sVpleasure,
p2706
F1
sVstoutest
p2707
F1
sVnecke,
p2708
F1
sVrequired:
p2709
F1
sVpolluting
p2710
F1
sVordained
p2711
F1
sVhir
p2712
F7
sVhis
p2713
F389
sVfeele
p2714
F1
sVbeams
p2715
F1
sVbattel
p2716
F1
sVneuerthelesse
p2717
F4
sVdry
p2718
F1
sVfunerals:
p2719
F1
sVfamous
p2720
F3
sVeies
p2721
F1
sVcourage
p2722
F1
sVilands,
p2723
F2
sVrest
p2724
F4
sVgeruths
p2725
F1
sVduring
p2726
F3
sVmarryed
p2727
F5
sVdutie
p2728
F2
sVbanquet
p2729
F5
sVtyranous
p2730
F1
sVmolten
p2731
F1
sVtourned
p2732
F1
sVenemy
p2733
F1
sVpleasures
p2734
F9
sVdelayed:
p2735
F1
sValteration
p2736
F1
sVpertinent
p2737
F1
sVwheat
p2738
F1
sVcommon
p2739
F8
sVcollere
p2740
F4
sVcease
p2741
F1
sVobscure
p2742
F1
sVfield,
p2743
F1
sVcourteous
p2744
F2
sVwrote
p2745
F1
sVset
p2746
F11
sVart
p2747
F4
sVkist,
p2748
F1
sVtheeues
p2749
F1
sVheauen
p2750
F1
sVintelligence
p2751
F1
sVheapes
p2752
F1
sVouercasteth:
p2753
F1
sVsee
p2754
F33
sVbare
p2755
F4
sVare
p2756
F36
sVoutwardly
p2757
F1
sVled
p2758
F2
sVoutward
p2759
F2
sVfeared
p2760
F4
sVspider,
p2761
F1
sV(a
p2762
F1
sVspirits
p2763
F3
sVentereth
p2764
F1
sVnailed
p2765
F2
sVplease
p2766
F3
sVrulers,
p2767
F1
sVmassacrers
p2768
F1
sVspirite
p2769
F4
sVliuing)
p2770
F1
sVpreseruing
p2771
F2
sVsecret,
p2772
F1
sVdurst
p2773
F9
sVliberty,
p2774
F2
sVconditions
p2775
F2
sVcorruption
p2776
F1
sVlamenting
p2777
F1
sVknowing
p2778
F10
sVappeare
p2779
F1
sVchamber,
p2780
F8
sVtemerity
p2781
F1
sVapprooue
p2782
F1
sVattention
p2783
F1
sVconiectured
p2784
F1
sVchamber:
p2785
F1
sVfoote
p2786
F1
sVcontrole.
p2787
F1
sVscriptures,
p2788
F1
sVmarqueses,
p2789
F1
sVwaie
p2790
F3
sVouer,
p2791
F1
sVfeare,
p2792
F1
sVvnder
p2793
F17
sVdisloyall,
p2794
F1
sVsuffred
p2795
F1
sVwholy
p2796
F8
sVboth
p2797
F14
sVhead,
p2798
F1
sVlast
p2799
F6
sVrepentance.
p2800
F1
sViniurious
p2801
F1
sVsultan
p2802
F2
sVthou
p2803
F16
sVfinde
p2804
F11
sVvengeance,
p2805
F3
sVbecame
p2806
F2
sVforgotten
p2807
F1
sVcouragious
p2808
F1
sVspirit,
p2809
F1
sVtrueth,
p2810
F1
sVwhole
p2811
F3
sVscaberd,
p2812
F1
sVwelfare,
p2813
F1
sVliked
p2814
F1
sVoffered,
p2815
F1
sVsupt,
p2816
F1
sVcoceaue
p2817
F1
sVqueene,
p2818
F7
sVpoint
p2819
F9
sVsimple
p2820
F2
sVsweet
p2821
F1
sVacted
p2822
F1
sVothers
p2823
F6
sVrace,
p2824
F3
sVdespising,
p2825
F1
sVhollow
p2826
F2
sVresiste,
p2827
F1
sVvnworthie
p2828
F1
sVspotting
p2829
F1
sVscottish
p2830
F1
sVbitch,
p2831
F1
sVdistrusting
p2832
F2
sVwisdom,
p2833
F2
sVintyced
p2834
F1
sVpublishing
p2835
F2
sVinstrument
p2836
F1
sVwhot
p2837
F1
sVconfesse
p2838
F3
sVintangle
p2839
F1
sVdue
p2840
F2
sVwhom
p2841
F31
sVsecret
p2842
F11
sVcompleate
p2843
F1
sVthreaten
p2844
F1
sVerected,
p2845
F1
sVhumours,
p2846
F1
sVempty
p2847
F1
sVfelicities
p2848
F1
sVrealme
p2849
F2
sVreason:
p2850
F1
sVmanner:
p2851
F1
sVgay
p2852
F1
sVdiuersitie
p2853
F2
sVfire
p2854
F8
sVlike,
p2855
F1
sVwet
p2856
F1
sVknewe
p2857
F2
sVelse
p2858
F3
sVmanner.
p2859
F1
sVmanner,
p2860
F2
sVmisdeedes,
p2861
F1
sVhusbad,
p2862
F2
sVdrawne
p2863
F1
sVprotested,
p2864
F1
sVqueenes
p2865
F3
sVdespite
p2866
F1
sVwaies
p2867
F1
sVflames
p2868
F3
sVaffabilitie,
p2869
F1
sV(paraduenture
p2870
F1
sVstraight
p2871
F1
sVvndertake,
p2872
F1
sVhusband.
p2873
F2
sVindignation
p2874
F1
sVwho,
p2875
F1
sVforgetting
p2876
F2
sVwhile
p2877
F5
sVpressed
p2878
F1
sVforbiddeth
p2879
F1
sVful
p2880
F5
sVcompleat,
p2881
F1
sVguide
p2882
F1
sVfurther,
p2883
F3
sVdestruction,
p2884
F2
sVwife,
p2885
F11
sVreade
p2886
F3
sVreddy
p2887
F1
sVmoment:
p2888
F1
sVconstancy:
p2889
F2
sVtraytors,
p2890
F1
sVdanes
p2891
F12
sVherein
p2892
F2
sVchast
p2893
F1
sVhusband,
p2894
F4
sVrulers
p2895
F1
sVintelligence,
p2896
F3
sVvnderstood,
p2897
F1
sVready
p2898
F5
sVhusband:
p2899
F2
sVrid
p2900
F2
sVdisplease;
p2901
F1
sValone
p2902
F2
sVrising,
p2903
F1
sVcraftie:
p2904
F1
sVgone
p2905
F3
sVcounterfeited
p2906
F7
sVaway,
p2907
F1
sVtwofold
p2908
F1
sVinamored:
p2909
F1
sVgrant
p2910
F1
sVprosperitie,
p2911
F1
sVbelong
p2912
F1
sVremedie
p2913
F1
sVfoorth:
p2914
F1
sVsome,
p2915
F2
sVdiscourse
p2916
F5
sVcruelty
p2917
F2
sVesteemed
p2918
F10
sVolde,
p2919
F1
sVthence,
p2920
F1
sVinioy
p2921
F3
sVshal
p2922
F2
sVfaire,
p2923
F1
sVdispleased
p2924
F1
sVdissebleth
p2925
F1
sVimagin
p2926
F1
sVwepte
p2927
F1
sVdepriue
p2928
F6
sVseruing
p2929
F1
sVsolicited
p2930
F1
sVhusbands
p2931
F2
sVmoment
p2932
F1
sVpurpose
p2933
F2
sVinough
p2934
F1
sVwouldest
p2935
F1
sVfatte
p2936
F1
sVinfamous
p2937
F3
sVpricke
p2938
F1
sVgestures
p2939
F1
sVvnderstand
p2940
F2
sVpeople,
p2941
F6
sVgolde,
p2942
F1
sVladen
p2943
F3
sVcleare
p2944
F1
sVseruitude
p2945
F2
sVperson
p2946
F2
sVpraise,
p2947
F1
sVgroud,
p2948
F1
sVwithdraw
p2949
F1
sVknowes
p2950
F1
sVpeople?
p2951
F1
sVtast
p2952
F1
sVpeople:
p2953
F1
sVawhile,
p2954
F1
sVarrowes
p2955
F1
sVouerthrowe,
p2956
F2
sVdone,
p2957
F3
sVburden
p2958
F1
sVmemories,
p2959
F2
sVcocke
p2960
F1
sVwise,
p2961
F8
sVplaces,
p2962
F1
sVloue,
p2963
F4
sVmatter,
p2964
F4
sVopenly
p2965
F1
sVhumaine
p2966
F1
sVwonld
p2967
F1
sVcopare
p2968
F1
sVbehind
p2969
F3
sVmatter:
p2970
F1
sVsensible
p2971
F1
sVconiectures,
p2972
F1
sVprince
p2973
F31
sVsworde,
p2974
F1
sVtamed
p2975
F1
sVcommander:
p2976
F1
sVcut
p2977
F3
sVghests
p2978
F1
sVreceiue
p2979
F1
sVcup
p2980
F1
sV(&
p2981
F1
sVdanger
p2982
F5
sVafter,
p2983
F1
sVexercising
p2984
F1
sVmurtherers
p2985
F1
sVthroate
p2986
F1
sVtormented
p2987
F1
sVimpunitie,
p2988
F1
sVbin
p2989
F18
sVheer
p2990
F1
sVthee,
p2991
F2
sVrespecte,
p2992
F1
sVmeanes,
p2993
F6
sVspoyled
p2994
F1
sVmassacres,
p2995
F2
sVquestion,
p2996
F1
sVcouple
p2997
F3
sVcondemnation
p2998
F1
sVnayles
p2999
F1
sVwarre,
p3000
F1
sValreadie
p3001
F1
sVsuffering
p3002
F1
sVthee:
p3003
F1
sVpreuaile,
p3004
F1
sVonelie
p3005
F1
sVnayled
p3006
F1
sVbit
p3007
F1
sVsharpened
p3008
F1
sVabilitie,
p3009
F1
sVhastie,
p3010
F1
sViudgement
p3011
F3
sVboes:
p3012
F1
sVhardy
p3013
F3
sVmurtherer,
p3014
F3
sVcommanders
p3015
F1
sVabhominable
p3016
F8
sVdaies,
p3017
F2
sVmolten,
p3018
F1
sVcauseth
p3019
F1
sVaffecteth
p3020
F1
sVfinde:
p3021
F1
sVthereunto;
p3022
F1
sVfoolish
p3023
F6
sVkings.
p3024
F1
sVabsolon
p3025
F1
sVkings,
p3026
F1
sVfollowe
p3027
F2
sVcarryon
p3028
F1
sVcanst
p3029
F1
sVoften
p3030
F4
sVrefuse,
p3031
F1
sVmighte
p3032
F4
sVfathers
p3033
F13
sVsome
p3034
F26
sVvrias
p3035
F1
sVimpeach
p3036
F1
sVliegerdemaine,
p3037
F1
sVwombe
p3038
F1
sVprouinces,
p3039
F2
sVexamples
p3040
F2
sVsight
p3041
F1
sVsurmount
p3042
F1
sVhazarded
p3043
F1
sVad
p3044
F1
sVimposturious
p3045
F1
sVwisedome,
p3046
F2
sVpronounced
p3047
F1
sVacquaintance
p3048
F1
sVwomen,
p3049
F2
sVwomen.
p3050
F2
sVdegenerating
p3051
F1
sVaboue,
p3052
F1
sVthough
p3053
F3
sVexceeding
p3054
F2
sVdarkened
p3055
F2
sVwomen:
p3056
F1
sVariobatus
p3057
F1
sVconspiracie
p3058
F2
sVvntill
p3059
F2
sVgood,
p3060
F1
sVwhome
p3061
F11
sVbe
p3062
F80
sVfather:
p3063
F4
sVeyes)
p3064
F1
sVdiuersities
p3065
F1
sVmassacred,
p3066
F2
sVpresence,
p3067
F1
sViudgements.
p3068
F1
sVbread,
p3069
F1
sVcontinuing
p3070
F1
sVfed
p3071
F1
sVrefused
p3072
F3
sVfather)
p3073
F2
sVotherside
p3074
F3
sVcomplot
p3075
F1
sVfather,
p3076
F13
sVfather.
p3077
F2
sVintertained;
p3078
F1
sVpitie,
p3079
F1
sVby
p3080
F150
sVaswell
p3081
F2
sVwhom:
p3082
F1
sVfaith
p3083
F5
sVforget,
p3084
F1
sVthereunto)
p3085
F1
sVshewing
p3086
F1
sVscepter
p3087
F1
sVage.
p3088
F2
sVconcupiscece.
p3089
F1
sV(hauing
p3090
F1
sVpreset
p3091
F1
sVbaiazeth
p3092
F2
sVvertues.
p3093
F1
sVhatred
p3094
F2
sVnourished,
p3095
F1
sVfantasie
p3096
F1
sVseeing
p3097
F15
sVwickednes
p3098
F2
sVdispoiling
p3099
F1
sVtraiterously,
p3100
F2
sVhope,
p3101
F1
sVinto
p3102
F51
sVhoruendile
p3103
F30
sVhumors
p3104
F1
sVfrenzie,
p3105
F1
sVensue
p3106
F1
sVcittie
p3107
F2
sVbutler,
p3108
F1
sVilands
p3109
F2
sVingendred
p3110
F1
sVdiuels,
p3111
F1
sVremembrance
p3112
F3
sVgouernour
p3113
F1
sVrenowne
p3114
F2
sVyou.
p3115
F1
sVcraftiest
p3116
F2
sVconcubine:
p3117
F1
sVwarres.
p3118
F1
sVtumult,
p3119
F1
sVperceiuing
p3120
F9
sVvnlawfull
p3121
F1
sVplacing
p3122
F1
sVlayden
p3123
F1
sVlong
p3124
F17
sVwarres:
p3125
F1
sVconcubine,
p3126
F1
sVinfected
p3127
F1
sVseuerall
p3128
F1
sVforward
p3129
F4
sV:
F6
sVsonne
p3130
F17
sVdeceiued,
p3131
F1
sVhimself
p3132
F7
sVimpudent
p3133
F1
sVneckes,
p3134
F1
sVmemory
p3135
F4
sVdipt
p3136
F1
sVtryumph
p3137
F1
sVintercepted,
p3138
F1
sVinclose
p3139
F1
sVfamilie
p3140
F1
sVnewes
p3141
F1
sVhopes
p3142
F1
sVseene
p3143
F1
sVwarlike
p3144
F2
sVdull
p3145
F1
sViealous
p3146
F1
sVnatiue
p3147
F1
sVaduenturing
p3148
F1
sVconsist
p3149
F1
sVcountrey,
p3150
F3
sVaffaires
p3151
F2
sVliberty
p3152
F1
sVcarefull
p3153
F3
sVslander
p3154
F1
sVaccustomed
p3155
F2
sVmature
p3156
F1
sVcalled
p3157
F4
sVcountrey:
p3158
F1
sVlessen,
p3159
F1
sVbeguiling
p3160
F1
sVcorrupted,
p3161
F1
sVaduertiseth
p3162
F1
sVconstant
p3163
F1
sVconditions,
p3164
F2
sVgoodly
p3165
F1
sVlikewise
p3166
F3
sVsecond,
p3167
F1
sVsurpassing
p3168
F1
sVvpon:
p3169
F1
sVmithridates
p3170
F1
sVreuerence.
p3171
F1
sVfrance)
p3172
F1
sVslownesse
p3173
F1
sVatractiue:
p3174
F1
sVheauinesse
p3175
F1
sValike,
p3176
F1
sVvncles
p3177
F2
sVbrethren
p3178
F1
sVcomplots
p3179
F1
sVknowledge,
p3180
F1
sVrequire,
p3181
F1
sVtarquin
p3182
F2
sVsorte,
p3183
F1
sVpeace
p3184
F1
sVwater
p3185
F1
sVdepart,
p3186
F1
sVaccounted
p3187
F3
sVvnbrideled
p3188
F1
sVfeare
p3189
F4
sVnay
p3190
F1
sVacceptable
p3191
F1
sVhell,
p3192
F1
sVvncle,
p3193
F7
sVvncle.
p3194
F2
sVbodies,
p3195
F2
sVvehement
p3196
F1
sVemperours,
p3197
F1
sVpassions
p3198
F1
sVprepared
p3199
F4
sVmeaning
p3200
F1
sVamazed;
p3201
F1
sV(honor
p3202
F1
sVlent
p3203
F1
sVpeaceable,
p3204
F1
sVdeuice,
p3205
F1
sVmerlins
p3206
F1
sVpuntshed,
p3207
F1
sVland
p3208
F2
sVreproached
p3209
F2
sVvice
p3210
F2
sVpurposes,
p3211
F1
sVrequired
p3212
F1
sVexcuse,
p3213
F1
sVadmiring
p3214
F5
sVimpatient
p3215
F1
sVdepth
p3216
F1
sVinuentions,
p3217
F1
sVlibertie,
p3218
F1
sVnobility
p3219
F2
sVvnderstand,
p3220
F1
sVfresh
p3221
F2
sVenterprse
p3222
F1
sVlunacie,
p3223
F1
sVonce
p3224
F19
sVfoorth
p3225
F1
sVashamed
p3226
F1
sVissued
p3227
F1
sVrenown
p3228
F1
sVwas,
p3229
F1
sVshafts
p3230
F1
sVgo
p3231
F1
sVtombe
p3232
F2
sVhimselfe)
p3233
F1
sVhimselfe,
p3234
F7
sVseemed
p3235
F7
sVcomfort,
p3236
F1
sVparadoxes.
p3237
F1
sVconcerned
p3238
F1
sVkind,
p3239
F1
sVyoung
p3240
F1
sVsend
p3241
F4
sVcontentment,
p3242
F1
sVplucarch
p3243
F1
sVbiarmy
p3244
F1
sVsialandie
p3245
F1
sVforgotte
p3246
F1
sVperaduenture
p3247
F1
sVpersonages,
p3248
F3
sVpleasing
p3249
F1
sVseruile
p3250
F1
sVfriendly
p3251
F1
sVsent
p3252
F10
sVproceedings,
p3253
F1
sVseuere,
p3254
F1
sVpresently
p3255
F12
sVmoue
p3256
F2
sVgrand-child
p3257
F1
sVdriuen
p3258
F1
sVprudence
p3259
F1
sVsware
p3260
F1
sVmore:
p3261
F1
sVbeloued
p3262
F2
sVrayneth
p3263
F1
sVcaptiuitie
p3264
F1
sVpittie
p3265
F1
sVaccuse
p3266
F2
sVouercome
p3267
F3
sVmore,
p3268
F2
sVcholler,
p3269
F1
sVinnocencie.
p3270
F1
sVmore)
p3271
F2
sVbusied
p3272
F1
sVfilthynesse
p3273
F1
sVmeant
p3274
F1
sVknight
p3275
F1
sVcounselled
p3276
F2
sVheertofore
p3277
F1
sVrodericke.
p3278
F1
sVtry
p3279
F1
sVrace
p3280
F2
sVkinsmen
p3281
F1
sVsolicite
p3282
F1
sVconuenient
p3283
F3
sVsorrowfull
p3284
F1
sViniury
p3285
F2
sVwalles,
p3286
F1
sVnoted
p3287
F2
sVaboutes,
p3288
F1
sVayre;
p3289
F1
sVdefiling
p3290
F1
sVbattaile
p3291
F2
sVtoucheth
p3292
F1
sVmischiefe
p3293
F2
sVworkes,
p3294
F1
sVperceiue:
p3295
F1
sVmalice
p3296
F3
sVforwards,
p3297
F1
sVhyde
p3298
F1
sVproceedeth
p3299
F1
sVnephew
p3300
F1
sVdesire,
p3301
F6
sVvictorious,
p3302
F1
sVmischiefs
p3303
F1
sVthence;
p3304
F1
sVthat,
p3305
F2
sVbloody,
p3306
F1
sVmake,
p3307
F1
sVappeased
p3308
F1
sVhereticke
p3309
F1
sVsecrets,
p3310
F1
sVpallace,
p3311
F1
sVfirme
p3312
F1
sVdruken
p3313
F1
sVlicentiousnes
p3314
F1
sVlaws
p3315
F1
sVinuetion
p3316
F1
sVplaye
p3317
F2
sVplayd
p3318
F1
sVfriend.
p3319
F1
sVoration
p3320
F2
sVthat:
p3321
F1
sV;
F4
sVbelleropho
p3322
F1
sVvnfit
p3323
F1
sVshe,
p3324
F1
sVhonours,
p3325
F1
sVswoore
p3326
F1
sVbody
p3327
F11
sVconsanguinitie,
p3328
F1
sVhonor,
p3329
F3
sVamitie
p3330
F1
sVwritings,
p3331
F1
sVpraise
p3332
F1
sVdesires
p3333
F4
sVconclude,
p3334
F4
sVbeasts
p3335
F1
sVsins
p3336
F1
sVspake
p3337
F4
sVdesired
p3338
F6
sVlet
p3339
F9
sVlicence
p3340
F1
sVmaking
p3341
F6
sVinuiting
p3342
F1
sVaffayres,
p3343
F1
sVeffected,
p3344
F2
sValwaies
p3345
F1
sVgreat
p3346
F77
sVaffectio
p3347
F1
sVvaile.)
p3348
F1
sVones,
p3349
F1
sVmaruel
p3350
F1
sVbanquet,
p3351
F2
sVopinion
p3352
F2
sVincestuous,
p3353
F1
sVcommendable
p3354
F1
sVhonor
p3355
F8
sVouerthrow
p3356
F3
sVscanie
p3357
F1
sVnorthren
p3358
F1
sV(my
p3359
F6
sVadmired
p3360
F1
sVscornfully
p3361
F1
sVwin
p3362
F3
sVredy
p3363
F1
sVcounsell
p3364
F2
sVmessengers
p3365
F3
sVreuenging
p3366
F6
sVcounsels
p3367
F1
sVnames
p3368
F1
sVcertifie
p3369
F1
sVwil
p3370
F3
sViuste
p3371
F1
sVdesiring
p3372
F8
sVstanding
p3373
F2
sVmee,
p3374
F3
sVconfidence
p3375
F3
sVfrom
p3376
F49
sVcontrarieth
p3377
F1
sV&
F267
sVwantonlie)
p3378
F1
sVministers
p3379
F2
sVlawe,
p3380
F2
sVaduancement,
p3381
F2
sVassuring
p3382
F5
sVdoubt
p3383
F2
sVcontentment
p3384
F3
sVweeping
p3385
F1
sVmassacred:
p3386
F1
sViust
p3387
F17
sVburst
p3388
F1
sVremaine
p3389
F1
sVsort
p3390
F14
sVreceaued
p3391
F2
sVassailed
p3392
F4
sVdefiled
p3393
F4
sVmeruaile
p3394
F1
sVknowne
p3395
F6
sVqualitie
p3396
F1
sVloued
p3397
F9
sVabout
p3398
F2
sVinfection
p3399
F1
sVsore
p3400
F1
sV(shewing
p3401
F1
sVinterprise.
p3402
F1
sVsharply
p3403
F1
sVbitterly,
p3404
F1
sVgladly
p3405
F1
sVherein:
p3406
F1
sVappointed
p3407
F3
sVmurthering
p3408
F1
sVimbrace
p3409
F5
sVaccount
p3410
F11
sVcrosses
p3411
F1
sVmockery,
p3412
F1
sVaugment
p3413
F1
sVthis
p3414
F102
sVslewest)
p3415
F1
sVoh
p3416
F1
sVdemaund
p3417
F1
sVpast,
p3418
F4
sVlawes
p3419
F3
sVminister,
p3420
F1
sVinduse
p3421
F1
sVcollere.
p3422
F1
sVexecutor
p3423
F1
sVdespighting
p3424
F1
sVherein,
p3425
F1
sVfetch
p3426
F1
sVmeer
p3427
F1
sVthralled
p3428
F1
sVviolence
p3429
F1
sVpawn
p3430
F1
sVfianced
p3431
F1
sVtherin
p3432
F3
sVfashions;
p3433
F1
sVescaped
p3434
F5
sVsought
p3435
F15
sVvillain
p3436
F2
sVwoma
p3437
F1
sVsomething
p3438
F2
sVdulled,
p3439
F1
sVfashions,
p3440
F1
sVpurposed
p3441
F1
sViesus
p3442
F1
sVparentage,
p3443
F1
sVcounterfeit
p3444
F2
sVdaring
p3445
F1
sVsit
p3446
F1
sVequall
p3447
F3
sVchambermaid,
p3448
F1
sVboldly
p3449
F1
sVdelay
p3450
F1
sVprocured
p3451
F3
sVcourtiers
p3452
F5
sVresolution,
p3453
F1
sVheauy
p3454
F1
sVayde
p3455
F1
sVsin
p3456
F1
sVgreatly
p3457
F3
sVentred
p3458
F8
sVhangings
p3459
F2
sVshaken
p3460
F1
sVattend
p3461
F1
sVsaith,
p3462
F1
sVcomitted
p3463
F1
sVpurpose.
p3464
F1
sVpurpose,
p3465
F2
sV(fortune
p3466
F1
sVcorruption:
p3467
F1
sVcounterfeite
p3468
F1
sVminding
p3469
F2
sVdespight)
p3470
F1
sVrotherick
p3471
F1
sVfolly,
p3472
F4
sVpraye
p3473
F1
sVking?
p3474
F1
sVbind
p3475
F1
sVcommitted:
p3476
F1
sVintents,
p3477
F2
sVliberties,
p3478
F1
sVdeade,
p3479
F1
sVpassion,
p3480
F1
sVgone:
p3481
F1
sVchief
p3482
F1
sVaduised
p3483
F1
sVfurious
p3484
F1
sVhid
p3485
F1
sVcommitted,
p3486
F3
sVgall,
p3487
F1
sVcommitted.
p3488
F1
sVsinner,
p3489
F1
sVpayeth
p3490
F1
sVcoplection
p3491
F1
sVlooke
p3492
F1
sVbeauties
p3493
F1
sVimitated
p3494
F1
sVhand,
p3495
F6
sValtogether
p3496
F2
sViustice,
p3497
F2
sVspeake
p3498
F7
sVmaruelous
p3499
F1
sVvnchristned,
p3500
F1
sVown
p3501
F5
sVtyrant
p3502
F10
sVfunerals,
p3503
F1
sVflattering
p3504
F2
sViustice:
p3505
F1
sVaffayres
p3506
F2
sVdistrusteth
p3507
F1
sVoutrages?
p3508
F1
sVtables,
p3509
F1
sVcontaminated
p3510
F1
sVperfect
p3511
F6
sVwrite
p3512
F1
sVleaste
p3513
F1
sVease,
p3514
F2
sVauthour,
p3515
F1
sVstaues
p3516
F2
sV(bought
p3517
F1
sVmemorye
p3518
F1
sVprincesse,
p3519
F3
sVshold
p3520
F2
sVseperation
p3521
F1
sVshewed
p3522
F3
sVimperfection
p3523
F1
sVhim
p3524
F165
sVfitte
p3525
F2
sVwilling
p3526
F3
sVdegrees
p3527
F1
sVease:
p3528
F1
sVcontinued
p3529
F1
sVshewes
p3530
F1
sVworld.
p3531
F5
sVimage
p3532
F2
sVworld,
p3533
F9
sVobserued
p3534
F1
sVhappened)
p3535
F1
sVsweete
p3536
F1
sVdeuised,
p3537
F1
sVinteressed,
p3538
F1
sVoffence,
p3539
F2
sVpalmira
p3540
F1
sVmention
p3541
F1
sVhands
p3542
F8
sVfront
p3543
F1
sVimpaired
p3544
F1
sVbeeing
p3545
F25
sVinteressed:
p3546
F1
sVaffections
p3547
F1
sVday
p3548
F9
sVwithall,
p3549
F1
sVwallowing
p3550
F1
sVmen;
p3551
F2
sVwhither
p3552
F1
sVhonored,
p3553
F1
sVleast)
p3554
F1
sVholde
p3555
F1
sVneuerthelesse,
p3556
F1
sVsufficiently
p3557
F1
sVeternize
p3558
F1
sVship,
p3559
F1
sVwretch,
p3560
F1
sVtruth
p3561
F4
sVworlde
p3562
F2
sVconsanguinitie
p3563
F1
sVaccompanied
p3564
F4
sVimbased
p3565
F1
sVdesires,
p3566
F1
sVleysure
p3567
F1
sVsubiect,
p3568
F2
sVsober,
p3569
F1
sVkepte
p3570
F1
sVprinces,
p3571
F2
sVperceiue.
p3572
F1
sVabadon
p3573
F1
sV(the
p3574
F1
sVpitty
p3575
F2
sVdoing
p3576
F1
sVadulterie,
p3577
F1
sVcontinueth
p3578
F1
sVsuccession,
p3579
F1
sVprinces:
p3580
F1
sVhistories
p3581
F2
sVagainste
p3582
F1
sVmeasure
p3583
F2
sVwine,
p3584
F2
sVour
p3585
F25
sVwonne
p3586
F1
sVpitte
p3587
F1
sVout
p3588
F29
sVgallant
p3589
F6
sVsecretly
p3590
F8
sVcowardize
p3591
F1
sVchiefe
p3592
F1
sVrigorus
p3593
F1
sVassured,
p3594
F1
sVarmor
p3595
F1
sVdefend
p3596
F3
sVcoutry
p3597
F1
sVwholly
p3598
F4
sVtime,
p3599
F14
sVlord:
p3600
F1
sVtime.
p3601
F1
sVabsented
p3602
F1
sVwondrous
p3603
F1
sVdiuerteth
p3604
F1
sVhonorable
p3605
F3
sVaduertised
p3606
F2
sVcause
p3607
F31
sVruning
p3608
F1
sV(that
p3609
F6
sVcarkasse
p3610
F1
sVyours,
p3611
F2
sVcareth
p3612
F1
sVreuerencing
p3613
F1
sVtyrannie
p3614
F1
sVperceiued
p3615
F4
sVstone,
p3616
F1
sVtirant,
p3617
F2
sVdecay,
p3618
F1
sVgreedy
p3619
F1
sVprouince
p3620
F1
sVattending
p3621
F1
sVenglands
p3622
F2
sVsurely
p3623
F5
sVhomages
p3624
F1
sVpiracie
p3625
F1
sVvnpunished:
p3626
F2
sVmagnanimitie,
p3627
F1
sVmaintaine
p3628
F1
sVindureth
p3629
F1
sVher
p3630
F126
sVthings,
p3631
F6
sVspill
p3632
F1
sVpredecessors.
p3633
F1
sVcould
p3634
F18
sVtimes
p3635
F10
sVworld?
p3636
F1
sVthings;
p3637
F1
sVcurtious
p3638
F1
sVmortal
p3639
F2
sVhence
p3640
F1
sVbiting
p3641
F1
sVsuccessor
p3642
F1
sVrespect)
p3643
F1
sVcounterfet
p3644
F2
sVliking,
p3645
F1
sVdegree
p3646
F2
sVeuen
p3647
F1
sVyong
p3648
F13
sVdiuel
p3649
F1
sVprince:
p3650
F1
sVpredecessors,
p3651
F1
sVblowe
p3652
F1
sVhitherto
p3653
F1
sVcourage,
p3654
F2
sVdiuine
p3655
F2
sVlightnes,
p3656
F1
sVdrinkes
p3657
F1
sVblows
p3658
F1
sVsad
p3659
F1
sVquality
p3660
F1
sVdeade
p3661
F1
sVcommendations
p3662
F1
sVeuill
p3663
F4
sVancient
p3664
F2
sVslipperie
p3665
F1
sVproude
p3666
F1
sVneedfull
p3667
F1
sVreueging
p3668
F1
sVhering
p3669
F1
sVlamentable
p3670
F1
sVbe:
p3671
F1
sVtheir
p3672
F67
sViudges,
p3673
F1
sVenough,
p3674
F1
sVwrltings
p3675
F1
sVioyfull
p3676
F1
sVpalestina
p3677
F1
sVliquor
p3678
F1
sVbeare
p3679
F9
sVrequireth,
p3680
F2
sVchastest
p3681
F1
sVowne)
p3682
F1
sVaccompany
p3683
F3
sVpunish
p3684
F4
sVmischiefes,
p3685
F1
sVkingdom:
p3686
F1
sVbrother?
p3687
F1
sVintice
p3688
F1
sVbrauest
p3689
F1
sVlawfull,
p3690
F1
sVfortune,
p3691
F3
sVinstitution
p3692
F1
sVgreiued
p3693
F1
sVclearnes
p3694
F1
sVproud,
p3695
F1
sVburnt,
p3696
F2
sVeuil,
p3697
F1
sVmatrimoniall
p3698
F1
sVslaine
p3699
F13
sVsteed
p3700
F2
sVriches
p3701
F6
sVbed
p3702
F2
sVbee
p3703
F52
sVcalamity
p3704
F1
sVhumours
p3705
F1
sVhospitality,
p3706
F1
sVpunishmet,
p3707
F1
sVwhoremonger
p3708
F1
sVvayle
p3709
F1
sVabolished
p3710
F1
sVnaturally
p3711
F1
sVdauid
p3712
F6
sVgreater
p3713
F3
sVaccusing
p3714
F1
sVmodestie,
p3715
F1
sVfalse
p3716
F3
sVopuscules,
p3717
F1
sVdiuers
p3718
F12
sVneer
p3719
F1
sVwil,
p3720
F1
sVvillaine
p3721
F2
sVtorment
p3722
F1
sVblemish
p3723
F1
sVfengon:
p3724
F1
sVneed
p3725
F1
sVconstrained
p3726
F4
sVabsalon
p3727
F1
sVher.
p3728
F1
sVbastard
p3729
F1
sVtirant
p3730
F2
sVinhabiting
p3731
F1
sVpursued
p3732
F3
sVbrother:
p3733
F1
sVtherewith
p3734
F1
sVable
p3735
F1
sVthereat:
p3736
F1
sViudgement,
p3737
F2
sVmustapha
p3738
F2
sVtraytors
p3739
F3
sVissuing
p3740
F2
sVwhich
p3741
F93
sVamisse
p3742
F1
sVconsequence.
p3743
F1
sVrauishments
p3744
F1
sVwicked,
p3745
F2
sVgods)
p3746
F1
sVwicked)
p3747
F1
sVcompanions,)
p3748
F1
sVwho
p3749
F55
sVprocure
p3750
F2
sVboldnes
p3751
F1
sVvengeance
p3752
F6
sVaduancement
p3753
F1
sVnatios,
p3754
F1
sVwhy
p3755
F7
sVfengons
p3756
F5
sValledging
p3757
F1
sViudged
p3758
F3
sVsoule:
p3759
F1
sVbereauing
p3760
F2
sVwherewith
p3761
F1
sVpulled
p3762
F1
sVfier
p3763
F1
sVgather
p3764
F3
sVtraytor,
p3765
F1
sVthroane
p3766
F1
sVface
p3767
F3
sVlooked
p3768
F1
sVcomendation,
p3769
F1
sVconseted
p3770
F1
sVoccasion
p3771
F5
sVboldned
p3772
F1
sVsaying.
p3773
F1
sVsuspition,
p3774
F1
sVsaying,
p3775
F4
sVyou:
p3776
F1
sVdeface
p3777
F3
sVpermission,
p3778
F1
sVcommendatio,
p3779
F1
sVsorte
p3780
F1
sVagreed
p3781
F2
sVpuisant
p3782
F1
sVone,
p3783
F3
sVnaturall
p3784
F7
sVmarriage,
p3785
F3
sVhamlet
p3786
F42
sVbring
p3787
F4
sVvoluptuousnesse,
p3788
F1
sV(vnworthy
p3789
F1
sVsuffer
p3790
F1
sVsignes,
p3791
F1
sVdeuinitie
p3792
F1
sVhazarding
p3793
F1
sVfear
p3794
F1
sVdetermined
p3795
F8
sVmaiesty,
p3796
F1
sVpleased
p3797
F1
sVentring
p3798
F1
sVchanced
p3799
F1
sVtrue,
p3800
F2
sVfaithfull
p3801
F2
sVknowledge
p3802
F2
sViniurie
p3803
F3
sVwith
p3804
F130
sVsubtiltie
p3805
F2
sVmany,
p3806
F2
sVshould
p3807
F49
sVcontroll
p3808
F1
sVshuttting
p3809
F1
sVseemeth
p3810
F3
sVderiuation,
p3811
F1
sVcountryes
p3812
F1
sVattained
p3813
F4
sVwiues
p3814
F1
sVinuented,
p3815
F1
sVhystories
p3816
F3
sVhope
p3817
F8
sVpoets,
p3818
F1
sVvigor
p3819
F1
sVdoubting
p3820
F1
sVrauish
p3821
F1
sVwhoremaster,
p3822
F1
sVvntasted,
p3823
F1
sVfamiliar
p3824
F1
sVministers,
p3825
F1
sVmassacre
p3826
F3
sVchalenged
p3827
F1
sVplease)
p3828
F1
sVmeane
p3829
F7
sVmade
p3830
F47
sVhencefoorth
p3831
F1
sVperfection
p3832
F1
sVwords
p3833
F2
sVdistraught
p3834
F1
sVbuyes
p3835
F1
sVchristians,
p3836
F1
sVdeserued:
p3837
F1
sVmahomet
p3838
F1
sVhystorie.
p3839
F2
sVaffection?
p3840
F1
sVhystorie,
p3841
F2
sVcourteous.
p3842
F1
sVcredite,
p3843
F1
sVhad,
p3844
F2
sVchiden,
p3845
F1
sVcontents,
p3846
F1
sVdenmark
p3847
F6
sVtitus
p3848
F2
sVcicero
p3849
F1
sVgrat
p3850
F1
sVdeuine:
p3851
F1
sVhouses,
p3852
F1
sVcalling
p3853
F2
sVvengeace
p3854
F3
sVattaine.
p3855
F1
sVshe
p3856
F41
sVsound,
p3857
F1
sVfewe
p3858
F2
sVwiues,
p3859
F2
sVfixed
p3860
F1
sVimbrue
p3861
F1
sVdetestable.
p3862
F1
sVpartes
p3863
F1
sVeurope
p3864
F2
sVseditions,
p3865
F1
sV(before
p3866
F1
sVseditions.
p3867
F1
sVclaws
p3868
F1
sVcertaine,
p3869
F1
sVend;
p3870
F1
sVcombate,
p3871
F1
sVorphan
p3872
F1
sVaccord
p3873
F1
sVcombate)
p3874
F1
sVselues
p3875
F1
sVdistract
p3876
F1
sVviolet
p3877
F1
sVafflicted
p3878
F1
sVhumane
p3879
F2
sVallured
p3880
F2
sVend,
p3881
F1
sVbehalfe.
p3882
F1
sVyeeld
p3883
F1
sVpromised,
p3884
F1
sVbeseeming
p3885
F1
sVneerly
p3886
F1
sVstraightly
p3887
F1
sVhoruendiles
p3888
F4
sVtrayterously
p3889
F2
sVwritten
p3890
F1
sVimpietie,
p3891
F1
sVbeawty
p3892
F1
sVfauours
p3893
F1
sVclosed
p3894
F1
sVfelony
p3895
F1
sVgiuen
p3896
F6
sVneither
p3897
F19
sVhalicarnassus.
p3898
F1
sVends
p3899
F1
sVhim:
p3900
F2
sV(whatsoeuer
p3901
F1
sVsolitary
p3902
F1
sVimportance
p3903
F1
sVsorrow
p3904
F2
sVdiscouered,
p3905
F1
sValthogh
p3906
F1
sVende
p3907
F8
sVmerry
p3908
F1
sVcaring,
p3909
F1
sVcounterfeiting
p3910
F5
sVnewe
p3911
F1
sVsoueraign
p3912
F1
sVpiersing
p3913
F1
sValloweth
p3914
F2
sVkingdome:
p3915
F1
sVinstant
p3916
F1
sVlimits
p3917
F1
sVdeliuerance,
p3918
F1
sVtaking
p3919
F3
sVthence
p3920
F1
sVequal
p3921
F1
sVminds
p3922
F1
sVchosen
p3923
F2
sVhoruendile.
p3924
F1
sVweare
p3925
F1
sVfrustrate,
p3926
F1
sVrust
p3927
F1
sVkingdome.
p3928
F1
sVminde
p3929
F4
sVtydings
p3930
F1
sVfortune:
p3931
F1
sVgrounds
p3932
F2
sVcome
p3933
F2
sVheauen,
p3934
F1
sVstaues,
p3935
F2
sVauthor
p3936
F2
sVfauoured
p3937
F5
sVfielde
p3938
F1
sVwonder
p3939
F2
sVawaye,)
p3940
F1
sVwhereof
p3941
F4
sVbetrayed
p3942
F5
sVincest
p3943
F1
sVscullea,
p3944
F1
sVtogether,
p3945
F1
sVrespect
p3946
F8
sVdone)
p3947
F1
sVwithdrawn
p3948
F1
sVaccursed
p3949
F1
sVtygers,
p3950
F1
sVmaie
p3951
F4
sVmoued
p3952
F4
sVliberall
p3953
F1
sVbeleeue
p3954
F2
sVbraynes
p3955
F1
sVioyning
p3956
F1
sVtaste
p3957
F1
sVtouched,
p3958
F1
sVgaze
p3959
F1
sVprayses
p3960
F1
sVphilosophers,
p3961
F1
sVrestrain
p3962
F1
sVtruer,
p3963
F1
sVsauoring
p3964
F1
sVpity
p3965
F3
sVking)
p3966
F1
sVking.
p3967
F1
sVdispoyled
p3968
F1
sVking,
p3969
F14
sVdeer
p3970
F1
sVsufficient
p3971
F6
sVioyfully
p3972
F1
sVsouldiers,
p3973
F1
sVambushe,
p3974
F1
sVking:
p3975
F1
sVsuccesse
p3976
F1
sVsubuersion
p3977
F1
sVpoysons,
p3978
F1
sVseruius
p3979
F2
sVknighthood,
p3980
F1
sVpresent
p3981
F9
sVsacrificing
p3982
F1
sVowne
p3983
F26
sVplaid
p3984
F1
sVabandoned
p3985
F2
sVwilt
p3986
F1
sVadulterer?
p3987
F1
sVgreatect
p3988
F1
sVthereof?
p3989
F1
sVremembring,
p3990
F1
sVwill
p3991
F27
sVgiuing
p3992
F4
sVcosider
p3993
F1
sVcountry
p3994
F1
sVlasciuiousnes
p3995
F2
sVdid:
p3996
F1
sVadulterer
p3997
F2
sVthereof,
p3998
F9
sVname,)
p3999
F1
sVoffending
p4000
F1
sVreadie
p4001
F1
sVsister,
p4002
F1
sValmost
p4003
F5
sVpreserue
p4004
F6
sVthus
p4005
F2
sVrome.
p4006
F2
sVvp
p4007
F9
sVabound,
p4008
F1
sVvs
p4009
F9
sVvillainously
p4010
F1
sVerror,
p4011
F1
sVadultery
p4012
F1
sVinuadeth
p4013
F1
sVsecrets
p4014
F2
sVcomparison)
p4015
F1
sVparte
p4016
F2
sVdilate
p4017
F1
sV)
F8
sVbegan
p4018
F5
sVpoysoned
p4019
F1
sVwel,
p4020
F1
sVof,
p4021
F3
sVmember
p4022
F1
sVdanes.
p4023
F1
sVworke,
p4024
F2
sVsomewhat,
p4025
F1
sVprophesies
p4026
F1
sVgoblets
p4027
F1
sVhydeous,
p4028
F1
sVioy
p4029
F1
sVwisest
p4030
F5
sVconspired
p4031
F3
sVfauourites
p4032
F1
sVplaide
p4033
F1
sVblisse,
p4034
F1
sVplesant
p4035
F2
sVprophesied
p4036
F1
sVinfinite
p4037
F1
sV(good
p4038
F1
sVcruell
p4039
F8
sVdestruction
p4040
F1
sVbehauiour
p4041
F1
sVoff
p4042
F2
sVkisses,
p4043
F1
sVfully
p4044
F1
sVi
F147
sVsleeping,
p4045
F1
sVspeake,
p4046
F3
sVharts
p4047
F3
sVwell
p4048
F15
sV(although
p4049
F4
sVthought
p4050
F5
sVbegun,
p4051
F1
sVcommand
p4052
F1
sVdesert,
p4053
F1
sVdeadly
p4054
F1
sVtasted
p4055
F2
sVprospering
p4056
F1
sVdrawing
p4057
F2
sVprincely,
p4058
F1
sVlest
p4059
F1
sVrestore
p4060
F3
sVcompanions,
p4061
F2
sVpretious
p4062
F1
sVcried
p4063
F1
sVflesh
p4064
F3
sVspeedilie
p4065
F1
sVdaie
p4066
F1
sVtherof
p4067
F4
sVlosse
p4068
F2
sVpollicy
p4069
F1
sVvoluntarie,
p4070
F1
sVsonne.
p4071
F1
sVwhole,
p4072
F1
sVpurified
p4073
F1
sVaduenture,
p4074
F1
sVrecouered
p4075
F1
sVwether
p4076
F1
sVcongealed,
p4077
F1
sVwisedome
p4078
F7
sVgenerous
p4079
F1
sVsonne,
p4080
F3
sVwee
p4081
F6
sVpolitique
p4082
F1
sVsatisfie
p4083
F4
sVsuperfluities
p4084
F1
sVvengeance.
p4085
F1
sVtrample
p4086
F1
sVwel
p4087
F8
sVvail
p4088
F1
sVslaue,
p4089
F4
sVcounsellor?
p4090
F1
sVsonne)
p4091
F2
sVbedfellow,
p4092
F1
sVcouereth
p4093
F2
sVdestroy
p4094
F1
sVtoyes
p4095
F1
sVpractise
p4096
F6
sVmercilesse
p4097
F1
sVought
p4098
F11
sVinnocents
p4099
F1
sVsoone
p4100
F6
sVsomtime
p4101
F1
sVincreased
p4102
F1
sVcame,
p4103
F1
sVconclude
p4104
F3
sVthrowne
p4105
F2
sVextremities,
p4106
F1
sVknow
p4107
F16
sVknot
p4108
F1
sVmoment,
p4109
F1
sVtrue:
p4110
F1
sVhaue
p4111
F108
sVyou
p4112
F90
sVhamblet
p4113
F31
sVnecessary
p4114
F2
sVlike
p4115
F31
sVlost
p4116
F2
sVwisedom,
p4117
F1
sVwisedom.
p4118
F1
sVspots,
p4119
F1
sVtractable,
p4120
F1
sVworke
p4121
F2
sVdoctrin
p4122
F1
sVpreseruation,
p4123
F1
sVvanquishing
p4124
F1
sVsences
p4125
F5
sV(or
p4126
F1
sVcounsellors
p4127
F2
sVbecome
p4128
F6
sVactions)
p4129
F2
sVactions.
p4130
F1
sVactions,
p4131
F4
sVtherein
p4132
F9
sVsimple,
p4133
F1
sVtraitors
p4134
F1
sVbecause
p4135
F5
sVmind,
p4136
F1
sVeasie
p4137
F2
sVfriends)
p4138
F4
sVbelonged
p4139
F2
sVpresents,
p4140
F1
sVdeed
p4141
F1
sVneighbours,
p4142
F2
sVpast)
p4143
F1
sVshew
p4144
F14
sVreioyced
p4145
F4
sVvse
p4146
F12
sVchoosing
p4147
F1
sVpast.
p4148
F1
sVproper
p4149
F2
sVhome
p4150
F1
sVempire
p4151
F2
sVcomon
p4152
F3
sVvsury
p4153
F1
sVbefore,
p4154
F2
sVhimselfe
p4155
F39
sVamased
p4156
F1
sVbefore)
p4157
F2
sVcheare,
p4158
F2
sVeies,
p4159
F2
sVflesh,
p4160
F2
sVsake,
p4161
F2
sVaffectioned
p4162
F1
sVdone:
p4163
F1
sVpassion
p4164
F1
sVspeak
p4165
F4
sVslaine:
p4166
F2
sVfriende
p4167
F1
sV?
F3
sViustice
p4168
F2
sVhinder
p4169
F2
sVconuenient,
p4170
F1
sVvsurper,
p4171
F1
sVexecuted,
p4172
F1
sVdisinherited,
p4173
F1
sVvs:
p4174
F1
sVcraue
p4175
F1
sVscots
p4176
F2
sVpersia
p4177
F1
sVsubtillest
p4178
F1
sValthough
p4179
F18
sVworthy
p4180
F11
sViniuries
p4181
F2
sVhauing
p4182
F31
sVpursueth
p4183
F1
sVvs,
p4184
F1
sVfresh,
p4185
F1
sVthrone
p4186
F1
sVdamnable
p4187
F1
sVsister
p4188
F2
sVrare
p4189
F2
sVgetting
p4190
F1
sVhimself,
p4191
F2
sVwithdrew
p4192
F1
sVvnderstanding:
p4193
F1
sVdoe,
p4194
F1
sVkinde
p4195
F3
sVmadame
p4196
F1
sVaboue
p4197
F6
sVslaueans
p4198
F1
sVvtterly
p4199
F2
sVmine)
p4200
F1
sVcleane
p4201
F3
sVhetherto
p4202
F1
sVvnderstanding,
p4203
F1
sVhappen,
p4204
F1
sValliance
p4205
F1
sVletters
p4206
F6
sVgrieued
p4207
F3
sVcountenance
p4208
F2
sVcourt,
p4209
F2
sVpremeditable
p4210
F1
sVreceiuest
p4211
F1
sVdeserued
p4212
F1
sVfidelities
p4213
F1
sVgothland
p4214
F2
sVcockes
p4215
F1
sVpromise
p4216
F5
sVerect
p4217
F1
sVlawful
p4218
F1
sVduetie
p4219
F1
sVattaine
p4220
F3
sVthroane)
p4221
F1
sVparentage
p4222
F1
sVspouse
p4223
F2
sVburthe
p4224
F1
sVgreatnes
p4225
F1
sVrighteous
p4226
F1
sVmad,
p4227
F1
sVadiacent,
p4228
F1
sVelection,
p4229
F1
sVdiscontinued,
p4230
F1
sVtyrrannous
p4231
F1
sVhercules,
p4232
F1
sVforrest,
p4233
F1
sVprince.
p4234
F2
sVplace,
p4235
F5
sVprince,
p4236
F20
sVweepe
p4237
F2
sVprince)
p4238
F2
sV(during
p4239
F1
sVnorth
p4240
F5
sVingrauen
p4241
F3
sVbut
p4242
F116
sVfidelitie,
p4243
F1
sVvnderminde
p4244
F1
sVpollitick
p4245
F1
sVbeginne
p4246
F2
sVincourage
p4247
F1
sVtrayterously,
p4248
F1
sVordinances
p4249
F1
sVhighest
p4250
F1
sVeat
p4251
F1
sVhe
p4252
F131
sVdetestable
p4253
F6
sVwise
p4254
F7
sVprinces
p4255
F8
sVglory
p4256
F3
sVgrieued,
p4257
F1
sVwhether
p4258
F5
sVmeeting
p4259
F1
sVthis,
p4260
F1
sVvalt:
p4261
F1
sVplaced
p4262
F2
sVcruel
p4263
F1
sV(through
p4264
F1
sVlimit
p4265
F1
sVdangerous
p4266
F1
sVsignes
p4267
F3
sVeyes,
p4268
F1
sVvnconstant
p4269
F1
sVstirring
p4270
F2
sVbearing
p4271
F4
sVfriend,
p4272
F1
sVrightly
p4273
F1
sVdoubte
p4274
F1
sVhusbands,
p4275
F1
sVproceede
p4276
F1
sVagaine
p4277
F7
sVinfamie
p4278
F2
sVbloud
p4279
F1
sVindiscretion,
p4280
F1
sVgouerne
p4281
F1
sVpartly
p4282
F1
sVobiect
p4283
F1
sVdurt
p4284
F1
sVhappen
p4285
F1
sVeffected
p4286
F2
sVdeuining
p4287
F1
sVbeastlinesse
p4288
F1
sVpursuite
p4289
F1
sVaccident,
p4290
F1
sVefficacy
p4291
F1
sVgeruth
p4292
F5
sVlouing
p4293
F1
sVother
p4294
F32
sVbehold
p4295
F6
sVperuerse
p4296
F1
sVhistories,
p4297
F1
sVgiue
p4298
F14
sVancestors?
p4299
F1
sVforward;
p4300
F1
sVbruite
p4301
F2
sVscaberd
p4302
F1
sVdisanulling
p4303
F1
sVmollifieth
p4304
F1
sVimbraceings.
p4305
F1
sVlamentations
p4306
F1
sVdeath:
p4307
F3
sVstay
p4308
F1
sVsenteth
p4309
F1
sVapparel
p4310
F1
sVchance
p4311
F2
sVpollitique,
p4312
F1
sVtirannies,
p4313
F1
sVpriuie,
p4314
F2
sVdeath,
p4315
F17
sVdeath.
p4316
F3
sVfriends
p4317
F4
sVseruitude,
p4318
F1
sVopened
p4319
F1
sVdomestical
p4320
F1
sVstirred
p4321
F1
sVwondring
p4322
F1
sVyoake
p4323
F1
sVhogges,
p4324
F1
sVtricke
p4325
F2
sVrenowne,
p4326
F1
sVingraued
p4327
F1
sVbaket
p4328
F1
sVtirany
p4329
F1
sVrule
p4330
F2
sVexcellencie:
p4331
F1
sVyeeres
p4332
F1
sVlift
p4333
F1
sVvillainous
p4334
F1
sVsearched
p4335
F1
sVreache
p4336
F1
sVdetermination
p4337
F2
sVsayle
p4338
F1
sVranke
p4339
F1
s.