ccollections
defaultdict
p1
(c__builtin__
float
p2
tRp3
Vconsidered,
p4
F1
sVwritings
p5
F1
sVcommon-weales
p6
F1
sVnunnery
p7
F3
sVyellow
p8
F1
sVclugny:
p9
F1
sVwoods
p10
F2
sVlaments,
p11
F1
sVhanging
p12
F1
sVincrease
p13
F1
sVemptie
p14
F1
sVeuery
p15
F26
sVsmoothered:
p16
F1
sVreuisite
p17
F1
sVsuperficially
p18
F1
sVreclayme
p19
F3
sVpreferment,
p20
F2
sVlord
p21
F13
sVinualiditie
p22
F1
sVpreferment.
p23
F1
sVrashly
p24
F4
sVspider,
p25
F1
sVwood,
p26
F6
sVbreake-necke
p27
F1
sVstabbed
p28
F1
sVbringing
p29
F3
sVwiddowes
p30
F2
sVaccidents;
p31
F1
sVaccidents,
p32
F1
sVbrutish
p33
F2
sVmonsier
p34
F2
sVspoken,
p35
F1
sVher)
p36
F1
sVcoye,
p37
F1
sVher,
p38
F139
sVmonethes
p39
F1
sVher;
p40
F33
sVher:
p41
F32
sVsecond
p42
F23
sVvehemency;
p43
F1
sVadmitted.
p44
F1
sVvaliant
p45
F3
sVconsenting
p46
F2
sVglasse
p47
F1
sVsighes:
p48
F1
sVerrors
p49
F3
sVprouiso
p50
F1
sVbuissye
p51
F3
sVnature,
p52
F6
sV(sith
p53
F2
sVnature)
p54
F1
sVdecre
p55
F1
sVdeseruing
p56
F1
sVreport,
p57
F1
sVsighes,
p58
F6
sVimpossibilities.
p59
F1
sVnature:
p60
F1
sVnature;
p61
F1
sVcull
p62
F1
sVinsinuation
p63
F2
sVhero
p64
F1
sVserues
p65
F2
sVgroueling
p66
F2
sVreasons,
p67
F4
sVinterrupting
p68
F3
sVhere
p69
F19
sVchallenge.
p70
F2
sVrhetoricke
p71
F1
sVreported
p72
F1
sVserued
p73
F3
sVtitles,
p74
F1
sVhers
p75
F10
sVfire.
p76
F1
sVgiglet,
p77
F1
sVenteriecting,
p78
F1
sVinsinuating,
p79
F1
sVreports
p80
F1
sVfinger.
p81
F1
sVfinger,
p82
F2
sVxiv.
p83
F1
sVnatures
p84
F1
sVspanyards
p85
F2
sVcircumstance,
p86
F1
sVpardon,
p87
F3
sVspeeches:
p88
F2
sVexcuse
p89
F3
sVbrought
p90
F17
sVsodaine
p91
F1
sVsubuersion)
p92
F1
sVcriminell
p93
F4
sVspeeches,
p94
F13
sVspeeches)
p95
F1
sVpresents
p96
F1
sVfame,
p97
F3
sVfiesco
p98
F8
sVfrosty
p99
F1
sVexhort
p100
F1
sVgrieue
p101
F12
sVfame:
p102
F1
sVtherefore
p103
F53
sVstrike
p104
F5
sVsermons
p105
F1
sVcamelion
p106
F1
sVleuity
p107
F1
sVarraignment:
p108
F1
sVrauished
p109
F4
sVfemales
p110
F1
sVholy
p111
F4
sVgallows,
p112
F1
sVbrings
p113
F5
sVcaptiuated
p114
F2
sVaduancing
p115
F1
sVdifficultie
p116
F1
sVmotiue
p117
F1
sVtrunks,
p118
F1
sVhole
p119
F1
sVhold
p120
F9
sVexhorbitant
p121
F1
sVmirth,
p122
F1
sVcircumstances
p123
F3
sVleapes
p124
F1
sVsermon,
p125
F2
sVpursue
p126
F2
sVsweeten
p127
F1
sVplunged
p128
F1
sVlaughter;
p129
F1
sVpriuatly
p130
F1
sVsweeter
p131
F2
sVbrauery)
p132
F1
sVbrauery,
p133
F2
sVexample
p134
F6
sVaprooue
p135
F1
sVdisparagement
p136
F2
sVadoption.
p137
F1
sVwant
p138
F11
sVpolitike
p139
F1
sVmurtheresse
p140
F1
sVabsolute
p141
F1
sVyouth;
p142
F3
sVyouth:
p143
F4
sVfeature
p144
F3
sVhow
p145
F77
sVhot
p146
F1
sVvnfriendly
p147
F1
sVyouth,
p148
F19
sVyouth.
p149
F3
sVoutragious
p150
F2
sVbeauty
p151
F5
sVblossomes,
p152
F1
sVmisfortune;
p153
F2
sVheld;
p154
F1
sVmodest
p155
F3
sVpondered,
p156
F1
sVprayers,
p157
F7
sVaccustomed,
p158
F1
sVkeepe
p159
F5
sValbucurque
p160
F1
sVscourge
p161
F1
sVho.
p162
F2
sVretired,
p163
F1
sVgroane,
p164
F1
sVgaolers,
p165
F1
sVwind
p166
F3
sVwine
p167
F5
sVended:
p168
F1
sVre-visits
p169
F1
sVeffect.
p170
F1
sVeffect,
p171
F4
sVteares)
p172
F1
sVsubiect
p173
F8
sVauerre
p174
F1
sVenquiring
p175
F1
sVfidelity
p176
F1
sVwherein
p177
F21
sVeffect:
p178
F1
sVhorse-backe
p179
F1
sVdreames
p180
F2
sVwelcomes
p181
F3
sVfit
p182
F12
sVecclipse,
p183
F1
sVheretofore
p184
F7
sVready;
p185
F1
sVfie
p186
F1
sVfurie
p187
F1
sVready,
p188
F3
sVwelcome,
p189
F1
sVdreame,
p190
F3
sVschoole
p191
F2
sVeffects
p192
F13
sVwelcome:
p193
F2
sVmayds)
p194
F1
sVmayds,
p195
F2
sVeasie,
p196
F3
sVnoble,
p197
F1
sVblushes
p198
F1
sVecclipsed
p199
F1
sVarrow
p200
F1
sVaddicted
p201
F5
sVpresent)
p202
F1
sVstrugling
p203
F1
sVbright
p204
F1
sVended,
p205
F1
sVcommodities:
p206
F1
sV(so
p207
F4
sVcontracting
p208
F1
sVaccused,
p209
F1
sVallay
p210
F2
sVactiue
p211
F1
sVborne
p212
F3
sVponyard,
p213
F2
sVself,
p214
F1
sVindiscretion
p215
F2
sVeare,
p216
F3
sVpriuileges
p217
F1
sVvillette
p218
F16
sVmusician:
p219
F1
sVvniust
p220
F2
sVimpetuous
p221
F2
sVassured
p222
F6
sVarraigned
p223
F1
sVtriumphe
p224
F1
sVleopard
p225
F1
sVdiuell,
p226
F3
sVcrownes
p227
F7
sVprophane
p228
F7
sVcrowned
p229
F1
sVpresidiall
p230
F4
sVvnarmed
p231
F1
sVdiscretion.
p232
F1
sVdisturber
p233
F1
sVselfe
p234
F93
sVfront,
p235
F1
sVeares
p236
F2
sVleapt
p237
F1
sVspeedy
p238
F2
sVmotiues,
p239
F1
sVstreight
p240
F1
sVsea)
p241
F1
sVreciprocally
p242
F4
sVwash
p243
F1
sVinstruct
p244
F3
sVprophanely.
p245
F1
sVsathan,
p246
F1
sVlikes,
p247
F1
sVsuperfluity
p248
F1
sVher.
p249
F18
sVbitten
p250
F1
sVmarry,
p251
F2
sVhay:
p252
F2
sVabhorre
p253
F3
sVreuiues
p254
F2
sVstormes,
p255
F1
sVcheckes
p256
F2
sVmaster
p257
F29
sVme,
p258
F17
sVexclaime,
p259
F1
sVbitter
p260
F13
sVranging
p261
F1
sVlisten
p262
F1
sVkindnesse,
p263
F1
sVmodena
p264
F19
sVwas,
p265
F9
sVvnfaithfull
p266
F1
sVspreads
p267
F1
sVhays
p268
F1
sVaddicted;
p269
F2
sVaddicted:
p270
F1
sVleg.
p271
F1
sVingraue
p272
F1
sVsycamore
p273
F1
sVtree
p274
F1
sVxi.
p275
F1
sVnations
p276
F1
sVfeeling
p277
F1
sVold,
p278
F5
sVaduantage,
p279
F3
sVdeuoure
p280
F1
sVwell;
p281
F1
sVwell:
p282
F2
sVrunner
p283
F1
sVrunnes
p284
F7
sVimpious,
p285
F1
sVplantinus
p286
F9
sVwell-
p287
F1
sVwell,
p288
F18
sVpittie,
p289
F2
sVwell.
p290
F1
sVbreuity
p291
F1
sVimpious;
p292
F1
sVheads;
p293
F1
sVdoore
p294
F8
sVwholesome
p295
F2
sVextreamely
p296
F13
sVpreuaile
p297
F8
sVsildome
p298
F1
sVcausing
p299
F2
sVlong:
p300
F1
sVcommitting
p301
F3
sVshall
p302
F129
sVloudouici
p303
F1
sVimpouerisheth
p304
F1
sVdiminishing
p305
F1
sVpitties
p306
F1
sVtragidie
p307
F1
sVaffirmation
p308
F1
sVmouth
p309
F2
sVletter
p310
F45
sVlong,
p311
F4
sVpittied
p312
F1
sVshalt
p313
F4
sVdrunke
p314
F1
sVdeluded,
p315
F1
sVcamp
p316
F1
sVthunder
p317
F3
sVvnnaturall,
p318
F3
sVreueales
p319
F5
sVcame
p320
F9
sVroseat
p321
F2
sVcannot:
p322
F2
sVcannot;
p323
F3
sVsafetie
p324
F2
sVheerein,
p325
F2
sVbeloued
p326
F3
sVnominated
p327
F1
sVcholler,
p328
F10
sVterror,
p329
F1
sVcannot,
p330
F8
sV(how
p331
F1
sVcannot.
p332
F1
sVcholler;
p333
F2
sVcholler:
p334
F1
sVsighes)
p335
F1
sVmens
p336
F4
sVtouched
p337
F1
sVrich
p338
F33
sVheartily
p339
F4
sVterrors
p340
F1
sVpocket
p341
F2
sVmeeting,
p342
F1
sVsathan
p343
F7
sVsurfets
p344
F1
sVinthronize
p345
F1
sVrelish
p346
F4
sVwatred
p347
F1
sVmen;
p348
F1
sVthem?
p349
F2
sVthem;
p350
F13
sVthem:
p351
F19
sVvexation;
p352
F1
sVmen,
p353
F3
sVesteeming
p354
F1
sVexclamations
p355
F2
sVsaue
p356
F3
sVcapeable
p357
F3
sVthem.
p358
F15
sVthem,
p359
F45
sVthem)
p360
F1
sVsubtilly
p361
F1
sVbegger:
p362
F1
sVchirurgery
p363
F1
sVflagge
p364
F1
sVwayted
p365
F1
sVflaxen
p366
F1
sVleauing
p367
F8
sVbest
p368
F26
sVstampe
p369
F1
sVambitions
p370
F1
sVdishonesty
p371
F1
sVsuspition,
p372
F6
sVestate,
p373
F5
sVrings
p374
F4
sVestate)
p375
F1
sVpresaging,
p376
F1
sVsheltred
p377
F1
sVestate;
p378
F1
sVestate:
p379
F1
sVcontained:
p380
F1
sVbeggery
p381
F1
sVbrethren:
p382
F1
sVextend
p383
F1
sVnature
p384
F40
sVfruits
p385
F3
sVparalleld
p386
F1
sVrecent
p387
F1
sVvnder-gaolor
p388
F1
sVaelestina's
p389
F2
sVextinguish
p390
F1
sVpity
p391
F1
sVdore
p392
F1
sVaccident
p393
F4
sVsacrificing
p394
F1
sVearth.
p395
F1
sVreaders
p396
F2
sVsaile,
p397
F1
sVincense
p398
F1
sVpith
p399
F1
sVring,
p400
F1
sVestates
p401
F3
sVintermixeth
p402
F1
sVhated
p403
F2
sVstealth,
p404
F1
sVdirectly,
p405
F1
sVvoyce,
p406
F2
sVpre
p407
F1
sVreuenged
p408
F4
sVdoubt,
p409
F4
sVvnthinke
p410
F1
sVmoney)
p411
F1
sVmoney,
p412
F11
sVworke,
p413
F1
sVwritten
p414
F1
sVreuenger
p415
F1
sVdeferre
p416
F1
sVmoney;
p417
F1
sVintitle
p418
F1
sVcommands,
p419
F1
sVvnprofitable
p420
F1
sVseruant,
p421
F2
sVbilling
p422
F1
sVobscenitie
p423
F1
sVslay
p424
F1
sVfro
p425
F1
sVhospitall:
p426
F1
sVdignities
p427
F1
sVextraction
p428
F3
sVmuch
p429
F116
sVseruant:
p430
F1
sVseruant;
p431
F1
sVhospitall,
p432
F4
sVreasons:
p433
F1
sVderogate,
p434
F1
sVenuie
p435
F5
sVlife
p436
F45
sVspeedie
p437
F1
sVgentrie
p438
F1
sVbed-pan
p439
F1
sVreuenge.
p440
F1
sVreuenge,
p441
F10
sVreuenge)
p442
F2
sVpunctually
p443
F2
sVpresage,
p444
F1
sVlift
p445
F1
sVchild
p446
F4
sVreuenge?
p447
F1
sVdoth
p448
F79
sVreuenge;
p449
F2
sV(consenting
p450
F1
sVdeliuereth
p451
F1
sVmaner
p452
F1
sVchests,
p453
F2
sVemploy
p454
F1
sVwayting-maid
p455
F1
sVseruants
p456
F9
sVskirts
p457
F1
sVplayed
p458
F3
sVtrees,
p459
F1
sVconsent,
p460
F3
sVeighteen
p461
F1
sVlight,
p462
F2
sVconsent:
p463
F1
sVsaid)
p464
F1
sVprison;
p465
F2
sVsaid,
p466
F1
sVprincipall
p467
F1
sVthings
p468
F10
sVliuer,
p469
F2
sVducketons
p470
F1
sVdiuulged,
p471
F1
sVharmony
p472
F2
sVhony
p473
F1
sVmarsy,
p474
F1
sVrendeuous,
p475
F1
sVsupped
p476
F1
sViacabine
p477
F1
sVpiercing,
p478
F1
sVexacting
p479
F1
sVmeerely
p480
F1
sVwiddow
p481
F6
sVout-braued
p482
F1
sVsupper
p483
F2
sVseruice,
p484
F4
sVconfusedly
p485
F1
sVreasoneth
p486
F2
sVhaggard
p487
F1
sVdifferences,
p488
F1
sVcouetous,
p489
F1
sVattempted,
p490
F2
sVperemptory
p491
F1
sVdebaushing
p492
F1
sValas,
p493
F6
sVwhich,
p494
F5
sVspunne:
p495
F1
sVthing,
p496
F1
sVacademie
p497
F1
sVdeafe
p498
F1
sVseene)
p499
F1
sVseene,
p500
F2
sVhorsebacke
p501
F1
sVfittest
p502
F1
sVabound
p503
F1
sVopinions
p504
F2
sVdiabolicall
p505
F3
sVhoushold-stuffe,
p506
F1
sVforsaken
p507
F1
sVsleepe
p508
F5
sVdisguise
p509
F1
sVspurres
p510
F1
sVexigent,
p511
F1
sVrushing
p512
F2
sVenters
p513
F3
sVpistols,
p514
F1
sVease
p515
F2
sVinclinations,
p516
F1
sVcarrowsing
p517
F1
sVthereabouts,
p518
F1
sVhay
p519
F66
sVdisparity
p520
F1
sVcurteous,
p521
F1
sVobedient
p522
F3
sVinnocent
p523
F22
sVprison
p524
F9
sVmonethes,
p525
F1
sVtriumphes:
p526
F1
sVespoused
p527
F1
sVprofiteth
p528
F1
sVfortie
p529
F1
sVpossible
p530
F11
sVfirmes
p531
F1
sVfirmer
p532
F1
sVpresumption,
p533
F1
sVpossibly
p534
F2
sVgrauely:
p535
F1
sVbirth
p536
F1
sVshadow
p537
F1
sVsleep)
p538
F1
sVtennants
p539
F1
sVdesire
p540
F14
sVburyed
p541
F1
sVspectacle;
p542
F2
sVstept
p543
F1
sVsteps
p544
F3
sVprologue
p545
F1
sVspectacle,
p546
F3
sVspectacle.
p547
F1
sVeffusion
p548
F1
sVright
p549
F17
sVold
p550
F53
sVcrowd
p551
F1
sVpeople
p552
F8
sV(whiles
p553
F1
sVdetract,
p554
F1
sVaccompanieth
p555
F1
sVaffirming,
p556
F1
sVinexpressable
p557
F1
sVleft,
p558
F1
sVshake,
p559
F1
sVenemies
p560
F1
sVperchance
p561
F4
sVfor
p562
F685
sVmurdring
p563
F1
sVpolluted
p564
F2
sVsurueying
p565
F1
sVwayts
p566
F1
sVpluckes
p567
F1
sVwitts
p568
F1
sVinsinuation,
p569
F1
sVbleared
p570
F1
sVshakes
p571
F1
sVbremay
p572
F6
sVdisdaine
p573
F3
sVpreoccupate
p574
F1
sVbindes
p575
F1
sVshaked
p576
F1
sVmaintaine,
p577
F1
sVaccostomed:
p578
F1
sVinsinuations
p579
F1
sVlackey
p580
F1
sVattempts.
p581
F1
sVhoast
p582
F3
sVo
F17
sVshaddow,
p583
F1
sVperspectiue,
p584
F1
sVeuaporating
p585
F1
sVshaddow)
p586
F1
sVfleeringly
p587
F1
sVconsulting
p588
F1
sVfetc'd
p589
F1
sViealous,
p590
F2
sVmarshall
p591
F1
sVdrinke-drunke,
p592
F1
sVsom
p593
F1
sVilliterature
p594
F1
sVconsummated
p595
F3
sVkisse
p596
F3
sVmeats,
p597
F1
sVtwentie
p598
F3
sVdue,
p599
F1
sVsupport
p600
F3
sVconstantly
p601
F1
sVhumble,
p602
F2
sVdesperatly
p603
F1
sVdeclares,
p604
F1
sVauthorized
p605
F3
sVthorow
p606
F8
sVhappy
p607
F9
sViourney,
p608
F3
sVoffer
p609
F3
sVso,
p610
F1
sVgripes
p611
F1
sVremarking
p612
F1
sVperfumed
p613
F1
sViourney;
p614
F1
sViourney:
p615
F1
sVcarpi's:
p616
F1
sVbarke
p617
F2
sVlayd
p618
F2
sVextremity
p619
F1
sVvmpier
p620
F1
sVpriuately
p621
F4
sVperplexities,
p622
F1
sVexamples
p623
F1
sVdisgrace
p624
F2
sVrefrayne
p625
F1
sVmersons:
p626
F1
sVdeuoures
p627
F2
sVmenaces
p628
F1
sVdeparture?
p629
F1
sVlearned,
p630
F1
sVdeales
p631
F3
sVordain'd
p632
F1
sVprotested
p633
F1
sVunlesse
p634
F1
sVcuckowes
p635
F1
sVperiode.
p636
F1
sVinquisitiue
p637
F1
sVcrowns
p638
F1
sVambitious
p639
F3
sVconferring
p640
F1
sVcrowne
p641
F6
sVheadstrong
p642
F1
sVdiuinitie
p643
F1
sVperiode:
p644
F1
sVintend
p645
F1
sVtransported
p646
F5
sVsubstract
p647
F1
sVeminent
p648
F1
sVmournefull
p649
F17
sVintent
p650
F7
sVvariable
p651
F1
sVentrust
p652
F1
sVhurt
p653
F3
sVbegan
p654
F6
sVseconded,
p655
F1
sVconferres
p656
F1
sVtime
p657
F72
sVconferred
p658
F1
sVbanners
p659
F1
sVbeames
p660
F5
sVconsumed,
p661
F1
sVcorps
p662
F3
sVprofits.
p663
F1
sVcrocodile
p664
F1
sVchilde
p665
F2
sVmidst
p666
F2
sVstay:
p667
F1
sVvenice
p668
F2
sVver
p669
F1
sVsuppressed,
p670
F2
sVclossely
p671
F1
sVpoore
p672
F30
sVthirtie
p673
F1
sVmelancholie;
p674
F1
sVtransgresse
p675
F1
sVneerest
p676
F2
sViewellers
p677
F1
sVexcepted,
p678
F1
sVdowrie,
p679
F1
sVinundations,
p680
F1
sVdissimulation,
p681
F1
sVmourn
p682
F1
sVfarre
p683
F67
sVexact
p684
F3
sVminute
p685
F2
sVwordes,
p686
F3
sVreformation,
p687
F2
sVweddings,
p688
F1
sVphrases,
p689
F1
sVwatch-word
p690
F1
sVanswers,
p691
F1
sVreformation:
p692
F1
sVreformation;
p693
F2
sVpenall
p694
F1
sVgnawes
p695
F1
sVbyrth
p696
F1
sVbe
p697
F278
sVsigh
p698
F1
sVadorne
p699
F2
sVstudie,
p700
F2
sVcelebrated
p701
F1
sVmelt
p702
F1
sVcurrent
p703
F4
sVstudie;
p704
F1
sVsaw.
p705
F1
sVfalling
p706
F2
sVdust,
p707
F1
sVsister,
p708
F2
sVmadnesse,
p709
F2
sVhonour
p710
F36
sVshirt,
p711
F1
sVdespaired,
p712
F1
sVfalsly)
p713
F1
sVredresse
p714
F4
sVmadnesse.
p715
F2
sValone
p716
F5
sVrent,
p717
F1
sVperseuerance
p718
F1
sVvtter
p719
F5
sVbewayled
p720
F1
sVinuention
p721
F3
sVcommonly
p722
F3
sVfames
p723
F1
sVseen:
p724
F1
sVaccomplished
p725
F2
sVcharybdis
p726
F1
sVstudies
p727
F3
sVrespite
p728
F1
sVbeauties,
p729
F2
sVielous
p730
F2
sVraise
p731
F1
sVmelodious
p732
F1
sVdefer
p733
F1
sVprefer
p734
F1
sVbloody
p735
F91
sVdivulged
p736
F1
sVaigue-mortes
p737
F1
sVred
p738
F1
sVinflame,
p739
F1
sVdearely,
p740
F1
sVactions;
p741
F4
sVvertuous,
p742
F4
sVpredictions
p743
F1
sVcharletans
p744
F1
sVopposed
p745
F1
sVwondering
p746
F1
sVapulia
p747
F3
sVwicked
p748
F1
sVverball,
p749
F1
sVintemperancy
p750
F1
sVapparent
p751
F3
sVblood:
p752
F3
sVblood;
p753
F2
sVodious
p754
F8
sVignorant
p755
F6
sVcontraries,
p756
F1
sVblood.
p757
F1
sVblood,
p758
F21
sVblood)
p759
F2
sVsanctified
p760
F3
sVpretend
p761
F1
sVinflamed
p762
F1
sVexteriour
p763
F3
sVassureth,
p764
F1
sVstature
p765
F1
sVfollowing
p766
F3
sVinflames
p767
F1
sVinhumanity
p768
F1
sVremitted
p769
F1
sVacceptance,
p770
F1
sVcandeur
p771
F4
sVlocke
p772
F1
sVentituled
p773
F1
sVapparelled,
p774
F1
sVheard,
p775
F2
sVallowed
p776
F1
sVconstancies
p777
F1
sVmilde
p778
F2
sVwinter
p779
F4
sViustly)
p780
F1
sVvnattempted)
p781
F1
sVvnattempted,
p782
F1
sVs.
p783
F1
sVinstant,
p784
F1
sVcoruption
p785
F1
sVconstancie,
p786
F1
sVinfalibly
p787
F1
sVwhom,
p788
F3
sVheriditary
p789
F1
sVpreuayle
p790
F2
sVsuch
p791
F65
sVfilthy
p792
F1
sVtemperate
p793
F3
sVvnfinished;
p794
F1
sVspeakest
p795
F1
sVthunders
p796
F1
sVconuersation,
p797
F2
sVso
p798
F712
sVtruce
p799
F4
sVyears
p800
F1
sVsmocke)
p801
F1
sVcourse
p802
F9
sVgoods,
p803
F2
sVyeare
p804
F8
sVadding,
p805
F1
sVcontriued,
p806
F2
sVdead;
p807
F2
sVvertues
p808
F20
sVlimbs
p809
F1
sVdwarfe
p810
F4
sVdead?
p811
F2
sVsolace
p812
F1
sVnymph
p813
F1
sVdid.
p814
F2
sVlimbe
p815
F3
sVdead.
p816
F1
sVdead,
p817
F5
sVtroubled
p818
F1
sVendeauour
p819
F3
sVinstantly
p820
F15
sVhencefoorth
p821
F5
sVmodestly
p822
F3
sVdrunke,
p823
F1
sVequipage
p824
F1
sVthereby
p825
F22
sVfrequent,
p826
F3
sVthine,
p827
F9
sVthine.
p828
F3
sVfrenzie,
p829
F1
sVconfessor,
p830
F1
sVreaders:
p831
F1
sVcompelled
p832
F1
sVpassions,
p833
F2
sVthine:
p834
F1
sVthine;
p835
F2
sVimprisoned.
p836
F1
sVimprisoned,
p837
F3
sVbeldame
p838
F1
sVtongues:
p839
F1
sVreuerend
p840
F1
sVloynes,
p841
F1
sVrepaires
p842
F2
sVveine
p843
F1
sVdiuorced
p844
F1
sVimprisoned:
p845
F1
sVquarter
p846
F1
sVvertue,
p847
F7
sVturtle
p848
F1
sVsquare
p849
F1
sVsequell,
p850
F1
sV(within
p851
F1
sVscarre,
p852
F1
sVecclips.
p853
F1
sVentering
p854
F2
sVpaling
p855
F1
sVsmall,
p856
F2
sVdebaushed
p857
F4
sVotranto:
p858
F1
sVcontaines
p859
F1
sVtwo-fold
p860
F1
sVcontained
p861
F2
sVsubtile
p862
F1
sVmisseth
p863
F1
sVbarbarie
p864
F1
sVsubtill
p865
F8
sVouerpassing
p866
F1
sVdisaster,
p867
F3
sVsiege
p868
F3
sVmillion
p869
F1
sVcoulder
p870
F1
sVquite
p871
F3
sVprostituted
p872
F1
sV(two
p873
F2
sVdisaster:
p874
F1
sVemulation
p875
F1
sVbesides
p876
F3
sVinferiours,
p877
F1
sVscarred
p878
F1
sVremainder
p879
F2
sVecclipse
p880
F2
sVliberally
p881
F1
sVcrueltie
p882
F10
sVdisguised
p883
F1
sVhereat;
p884
F3
sVlearning;
p885
F1
sVfidelitie
p886
F1
sVcurtesie
p887
F1
sVwrong
p888
F4
sVhereat,
p889
F10
sVrecompense
p890
F2
sVsubtil,
p891
F1
sVneglect
p892
F4
sVlearning,
p893
F7
sVyerely,
p894
F1
sVmercy,
p895
F3
sVspoken
p896
F2
sVone
p897
F77
sVfoole,
p898
F3
sVgenerosity)
p899
F1
sVspanish
p900
F1
sVvote
p901
F1
sVirresolute,
p902
F2
sVopen
p903
F6
sVbaylife
p904
F1
sVaffords
p905
F2
sVcity
p906
F1
sVstifles
p907
F1
sVphenix
p908
F2
sVpoynt,
p909
F1
sVbite
p910
F2
sVinwardly,
p911
F1
sVstifled
p912
F1
sVvnsheathes
p913
F1
sVstuffed
p914
F1
sVdiuines,
p915
F3
sVon,
p916
F4
sVmuch,
p917
F2
sVmuch.
p918
F1
sVridiculous
p919
F1
sVfribourg;
p920
F1
sVremembring
p921
F6
sVmuch:
p922
F1
sVmuch;
p923
F2
sVreuenge
p924
F34
sVexacted
p925
F1
sVfolly
p926
F15
sVtwentie,
p927
F1
sVrecouereth
p928
F1
sVendeauourest
p929
F1
sVfuture
p930
F5
sVlillies
p931
F2
sVstuffe,
p932
F2
sVdisasterous
p933
F6
sVburies
p934
F1
sVbenevente's
p935
F1
sVremark,
p936
F1
sVfearefull,
p937
F2
sVturned
p938
F6
sVargument
p939
F5
sVsad
p940
F2
sVculpable
p941
F1
sVsay
p942
F9
sVwinter:
p943
F1
sVburied
p944
F6
sVturnes
p945
F3
sVsaw
p946
F19
sVwell
p947
F70
sVlaw,
p948
F5
sVlaw.
p949
F1
sVsport
p950
F1
sVaside
p951
F2
sVinstructed
p952
F2
sVmasse
p953
F1
sVintends
p954
F6
sVtremble,
p955
F2
sVaffirme,
p956
F2
sVlaw;
p957
F1
sVdestroy
p958
F5
sVrusheth
p959
F2
sVthere:)
p960
F1
sVmodena:
p961
F2
sVruffe
p962
F1
sVheynously
p963
F1
sVopposite
p964
F2
sVknew
p965
F16
sVvice-roy
p966
F1
sVsainted
p967
F1
sVingulphed
p968
F1
sVinequallity
p969
F1
sVqueane
p970
F1
sVexchangeth
p971
F1
sVvnspotted
p972
F2
sVsale
p973
F2
sVnot;
p974
F5
sVnot:
p975
F6
sVsecond.
p976
F5
sVpreuayling
p977
F1
sVbade
p978
F1
sVingulphes
p979
F1
sVsubsequent
p980
F1
sVerreparable
p981
F1
sVnot,
p982
F12
sVnot.
p983
F6
sVnot)
p984
F1
sVaffirmed
p985
F5
sVlaws
p986
F1
sVwalking
p987
F6
sVmarshalled
p988
F1
sVinconstancy,
p989
F1
sVduckatons,
p990
F4
sVmurmure
p991
F1
sVmarrieth
p992
F1
sVscarce
p993
F3
sVduckatons:
p994
F1
sVteare
p995
F2
sVconduction
p996
F1
sVgoing
p997
F2
sVwilfully
p998
F1
sVstandarts
p999
F1
sVinfallibly
p1000
F7
sVcondemning
p1001
F1
sVtilting
p1002
F1
sVcursing
p1003
F1
sVinfallible
p1004
F5
sVinueigle
p1005
F1
sVsubmerge
p1006
F2
sVierusalem
p1007
F1
sVinfringed
p1008
F1
sVintermixed
p1009
F1
sVhalsenorse
p1010
F1
sVvnderstood
p1011
F2
sVcertified,
p1012
F1
sVfortunes.
p1013
F2
sVdisparage
p1014
F1
sVwhere
p1015
F84
sVtemperance
p1016
F1
sVdeuine
p1017
F1
sVthreats)
p1018
F1
sVout-spread
p1019
F1
sVthreats.
p1020
F2
sVespy
p1021
F3
sVsuppresse,
p1022
F1
sVexpiate
p1023
F1
sVgracefull
p1024
F1
sVtemperancy
p1025
F1
sVimpressions
p1026
F1
sVrewarded
p1027
F1
sVioyned
p1028
F1
sVfortifie
p1029
F4
sVpractiseth
p1030
F1
sVtrophee
p1031
F1
sV(both
p1032
F1
sVman:
p1033
F3
sVman;
p1034
F1
sVwrought
p1035
F4
sVfurnishing
p1036
F1
sVrefreshed
p1037
F1
sVdeckt
p1038
F1
sVouerpast
p1039
F1
sVman,
p1040
F9
sVforsake
p1041
F10
sVcrownes,
p1042
F2
sVrage,
p1043
F4
sVpritty
p1044
F1
sVdomo
p1045
F3
sVlorenzoes
p1046
F1
sVrage:
p1047
F1
sVrage;
p1048
F1
sVfat
p1049
F1
sVspark
p1050
F2
sVsuppressed
p1051
F2
sVdeliciously
p1052
F1
sVcircumference
p1053
F1
sVmans
p1054
F17
sVmany
p1055
F112
sValphonsus
p1056
F1
sVdisdayne
p1057
F1
sVoutbraue
p1058
F1
sVsequestred
p1059
F1
sVforme)
p1060
F1
sVoathes
p1061
F5
sVdistatefull,
p1062
F1
sVtrimmed
p1063
F1
sVpunshments,
p1064
F1
sVwhereof,
p1065
F4
sVwant,
p1066
F2
sVcaring
p1067
F3
sVtax
p1068
F1
sVleander
p1069
F1
sVremoue
p1070
F1
sVpolicie,
p1071
F1
sVbreath
p1072
F5
sVsutors,
p1073
F2
sVpractised
p1074
F3
sVvnderstanding
p1075
F4
sVwants
p1076
F6
sVconsider,
p1077
F6
sVway:
p1078
F1
sVioyes
p1079
F7
sVthousand
p1080
F18
sVresolus
p1081
F1
sVhaunt
p1082
F2
sVaffirmed:
p1083
F1
sVswords,
p1084
F1
sVresolue
p1085
F16
sVcomming
p1086
F4
sVformer
p1087
F22
sVstandard
p1088
F1
sVscarlet
p1089
F3
sVpretence
p1090
F3
sVsingle
p1091
F3
sVhayes
p1092
F7
sVvnlearned
p1093
F1
sVerrynnis
p1094
F1
sVciuilitie
p1095
F1
sVerrours,
p1096
F1
sVwritten,
p1097
F1
sVpractise,
p1098
F2
sVpractise.
p1099
F1
sVingratitude,
p1100
F3
sVapproues
p1101
F1
sVpurse
p1102
F6
sVingratitude;
p1103
F1
sVbirth,
p1104
F2
sVmonte-leone
p1105
F14
sVsayles
p1106
F2
sVmercies
p1107
F1
sVsaues
p1108
F1
sVshuts
p1109
F1
sVlunacy,
p1110
F1
sVnuptials
p1111
F2
sVthreatens
p1112
F4
sVmaruaile,
p1113
F1
sVapprocheth
p1114
F1
sVoretaken
p1115
F1
sVseuerally
p1116
F2
sVdiscouer
p1117
F7
sVmotioned
p1118
F1
sVsayle,
p1119
F1
sVvices?
p1120
F1
sVgracelesse
p1121
F6
sVassignd
p1122
F1
sVpoynt
p1123
F5
sVapparell
p1124
F6
sVwiddowers,
p1125
F1
sVtraine
p1126
F2
sVswisserland
p1127
F1
sVsuspect,
p1128
F2
sVdrunkennesse
p1129
F14
sVshut,
p1130
F4
sVflocke
p1131
F1
sVprocesse
p1132
F3
sVsummer
p1133
F2
sVyouthfull
p1134
F6
sVbeing
p1135
F107
sVdiuell
p1136
F3
sVrest
p1137
F18
sVsaile
p1138
F2
sVransome
p1139
F1
sV(o
p1140
F2
sV(a
p1141
F2
sVpunishments.
p1142
F1
sVrepentance)
p1143
F1
sVpunishments,
p1144
F4
sVrepentance,
p1145
F7
sVrepentance.
p1146
F3
sVdowne
p1147
F20
sVstrange:
p1148
F1
sVharmelesse,
p1149
F1
sVinstrument
p1150
F1
sVrepentance:
p1151
F2
sVrepentance;
p1152
F3
sVcaualier,
p1153
F1
sVstrange,
p1154
F3
sVdepraued
p1155
F1
sVrefusall,
p1156
F3
sVskies
p1157
F1
sVaspects
p1158
F2
sVbernardo
p1159
F1
sVguiltie
p1160
F8
sVobserued,
p1161
F1
sVneuer
p1162
F60
sVenteruiew
p1163
F1
sVdenounceth
p1164
F1
sVsences,
p1165
F1
sVhatefull
p1166
F2
sVworld
p1167
F35
sVapprehending
p1168
F1
sVdare
p1169
F4
sVsumme,
p1170
F1
sVprosper,
p1171
F2
sVhell)
p1172
F1
sVstranger
p1173
F1
sVcaualiers
p1174
F5
sVoffenders
p1175
F1
sVclap
p1176
F1
sVmembers;
p1177
F1
sVmembers:
p1178
F1
sVpunishment,
p1179
F4
sVseuerall
p1180
F10
sVthinke
p1181
F21
sVmurtherous
p1182
F9
sVcompassionate,
p1183
F1
sVpunishment:
p1184
F1
sVmembers.
p1185
F1
sVmembers,
p1186
F1
sVthinks
p1187
F10
sVwanting,
p1188
F3
sVconscionable
p1189
F1
sVcountenanced
p1190
F1
sVmemories
p1191
F1
sVlend
p1192
F1
sVvnkind,
p1193
F1
sVsins,
p1194
F1
sVlastly,
p1195
F2
sVscandall
p1196
F1
sVpower
p1197
F30
sVintimate
p1198
F1
sVsubiection
p1199
F1
sVmadamoyselle
p1200
F4
sVluxurious
p1201
F1
sV(either
p1202
F1
sVpunishments
p1203
F6
sVretaine
p1204
F4
sVvnchast
p1205
F2
sVvnkinde
p1206
F2
sVindustry
p1207
F3
sVcountenance,
p1208
F3
sVslender
p1209
F1
sVvillany,
p1210
F1
sVbone
p1211
F1
sVact
p1212
F8
sVcountenance;
p1213
F1
sVpoysoned
p1214
F3
sVsuch,
p1215
F4
sVeyther
p1216
F9
sVburning
p1217
F5
sVinformed
p1218
F7
sVimage
p1219
F4
sVforehead,
p1220
F1
sVagreed,
p1221
F1
sVassemblies:
p1222
F1
sVparties
p1223
F3
sVwit,
p1224
F3
sVmariage
p1225
F3
sVvnto
p1226
F13
sV(harmelesse
p1227
F1
sVobsceane
p1228
F4
sVseales
p1229
F1
sVher
p1230
F1364
sVmisse
p1231
F1
sVshipwrack
p1232
F2
sVitalie
p1233
F1
sVhee
p1234
F298
sVtorrents,
p1235
F1
sVsealed
p1236
F1
sVdeparts.
p1237
F1
sVmatrimoniall
p1238
F1
sVanother;
p1239
F1
sVlyes
p1240
F2
sVreioyceth,
p1241
F2
sVverbatim
p1242
F1
sVwits
p1243
F7
sVinflaming
p1244
F1
sVmourne
p1245
F1
sVmaiesty,
p1246
F1
sVplucks
p1247
F1
sVanother.
p1248
F1
sVhath,
p1249
F1
sVanother,
p1250
F6
sVwith
p1251
F641
sVvsing
p1252
F1
sVpull
p1253
F1
sVrush
p1254
F1
sVbillet
p1255
F1
sVrage
p1256
F3
sVpuld
p1257
F1
sVwithall
p1258
F16
sVhe;
p1259
F1
sVhight,
p1260
F1
sVrequests,
p1261
F6
sVimpute
p1262
F1
sVincloystered
p1263
F1
sVhe,
p1264
F7
sVfurie,
p1265
F2
sVcaptiuate
p1266
F2
sVhe)
p1267
F2
sVseale,
p1268
F1
sVgone
p1269
F3
sVfrustrated,
p1270
F1
sVah
p1271
F2
sVprouoked
p1272
F3
sVam
p1273
F12
sVal
p1274
F3
sVgift,
p1275
F1
sVas
p1276
F876
sVneopolitanes
p1277
F1
sVensuing
p1278
F6
sVat
p1279
F224
sVay
p1280
F2
sVqualities,
p1281
F1
sVtremble
p1282
F2
sVsayest
p1283
F1
sVremembred)
p1284
F1
sVdye,
p1285
F4
sVvsher
p1286
F1
sVsanguine
p1287
F1
sVdye:
p1288
F1
sVwhatsoeuer,
p1289
F2
sVemulation)
p1290
F1
sVis;
p1291
F2
sVwalk,
p1292
F1
sVdamnably
p1293
F1
sVdecree
p1294
F2
sVdamnable
p1295
F15
sVsuperintendant
p1296
F1
sVpurses,
p1297
F1
sVgayest
p1298
F2
sVwalkes
p1299
F1
sVoueruaile
p1300
F6
sVadminister,
p1301
F1
sVmaliciously
p1302
F1
sVperforming:
p1303
F1
sVdyed
p1304
F3
sVfoyle,
p1305
F2
sVneece
p1306
F1
sVdisdaines
p1307
F3
sVdyes
p1308
F2
sVmatchlesse
p1309
F1
sVconsider
p1310
F10
sVcaused
p1311
F13
sVbeware
p1312
F4
sVwhorish
p1313
F1
sVimportune
p1314
F1
sVreturne.
p1315
F2
sVfrier,
p1316
F1
sVswallow,
p1317
F1
sVtours
p1318
F1
sV(if
p1319
F2
sVreturne;
p1320
F1
sVreturne:
p1321
F1
sV(in
p1322
F22
sVconceiued
p1323
F4
sVreceiued,
p1324
F1
sVhunting
p1325
F1
sVhereunto,
p1326
F1
sVwoorth
p1327
F1
sVspirit
p1328
F3
sVto
p1329
F2536
sVdead:
p1330
F1
sVconceiues
p1331
F2
sVdeceiue
p1332
F13
sVferia
p1333
F1
sVoath,
p1334
F3
sVcause.
p1335
F1
sVreturned
p1336
F6
sVreader
p1337
F11
sVfriers
p1338
F3
sVconscience;
p1339
F3
sVconscience:
p1340
F1
sVreturnes
p1341
F29
sVcandid
p1342
F1
sVcause:
p1343
F1
sVconscience,
p1344
F8
sVcunningly
p1345
F6
sVingratitude
p1346
F5
sVlaying
p1347
F1
sVbroken,
p1348
F1
sVlarge
p1349
F2
sVdanger,
p1350
F11
sVsmall
p1351
F14
sVvse,
p1352
F1
sVconceiue:
p1353
F1
sVbehaues
p1354
F1
sVinfuseth
p1355
F4
sVpast
p1356
F8
sVprooue
p1357
F13
sVchirurgions
p1358
F1
sVhonourable
p1359
F5
sVdestitute
p1360
F1
sVrob'd,
p1361
F1
sVdescretion,
p1362
F1
sVequipage,
p1363
F1
sVsodainely
p1364
F1
sVrefractory
p1365
F1
sVespie
p1366
F1
sVrequitall
p1367
F4
sVerrours
p1368
F1
sVaduanced
p1369
F1
sVfull
p1370
F10
sVhoure
p1371
F7
sVcarriage,
p1372
F4
sVpittifull
p1373
F1
sVleaping
p1374
F1
sVdisburthened
p1375
F1
sVhanded,
p1376
F1
sVhast
p1377
F4
sVvnreuenged,
p1378
F1
sVdiuell)
p1379
F1
sVquicke,
p1380
F3
sVcherish:
p1381
F2
sVdeuill
p1382
F24
sVexperience
p1383
F7
sVaction
p1384
F1
sVdeuils
p1385
F5
sVdanger;
p1386
F1
sVraze
p1387
F3
sVfollowed
p1388
F6
sVfoundation,
p1389
F1
sViustly
p1390
F16
sVmarriages
p1391
F3
sVyoung
p1392
F47
sVexcellently
p1393
F1
sVregiment
p1394
F1
sVsubstance,
p1395
F1
sVcasket
p1396
F2
sVdepaynts
p1397
F1
sVtraueller,
p1398
F2
sVknocke,
p1399
F1
sVvnparaleld
p1400
F1
sVherselfe,
p1401
F1
sVmore
p1402
F167
sVdranke
p1403
F1
sVneerer
p1404
F1
sVmarriage;
p1405
F3
sVcompany
p1406
F10
sVsuperiour,
p1407
F2
sVmarriage,
p1408
F6
sVmarriage.
p1409
F3
sVperson,
p1410
F1
sVfoundations
p1411
F2
sVcunning
p1412
F1
sVtutrix
p1413
F1
sVreuengeful
p1414
F1
sVdisingaging,
p1415
F1
sVlunaticke,
p1416
F1
sV(with
p1417
F19
sVgallop
p1418
F1
sVmeanes
p1419
F16
sVneglected
p1420
F1
sVaccept
p1421
F8
sVprompe
p1422
F1
sVsense
p1423
F1
sVseuere,
p1424
F2
sVribbes,
p1425
F1
sVdrest
p1426
F1
sVarriued,
p1427
F1
sVhuge
p1428
F1
sVdisconsolate
p1429
F1
sVallarum
p1430
F1
sVimplacably
p1431
F1
sVfruition
p1432
F1
sVbrowne
p1433
F1
sVdotard
p1434
F1
sVmarriages,
p1435
F1
sVtreacherously
p1436
F3
sVcreature
p1437
F2
sVwiles
p1438
F1
sVplant
p1439
F2
sVintended
p1440
F3
sVdisgraced
p1441
F1
sVsympathize
p1442
F3
sVfelicitie
p1443
F6
sVstate,
p1444
F1
sVabscence:
p1445
F1
sVstrucke
p1446
F1
sVpleaded
p1447
F2
sVmaligne
p1448
F3
sVreuolution
p1449
F1
sVcourteously
p1450
F2
sVtempered,
p1451
F1
sVgennets,
p1452
F1
sVsecresie
p1453
F3
sVirreligious
p1454
F1
sVchristall
p1455
F1
sVvnbind
p1456
F1
sV(after
p1457
F2
sVsigne
p1458
F3
sVadorned
p1459
F3
sVpassages
p1460
F1
sVaccuse
p1461
F7
sVdrosse
p1462
F1
sVspirituall
p1463
F3
sVincessantly
p1464
F2
sVliues;
p1465
F1
sVreplies
p1466
F3
sVits
p1467
F9
sVreleeue
p1468
F2
sVtermed
p1469
F1
sVcourse)
p1470
F1
sVcourse,
p1471
F2
sVtermes
p1472
F1
sVtruth,
p1473
F12
sVlicke
p1474
F1
sVtruth)
p1475
F1
sVcourse:
p1476
F1
sVinquiry
p1477
F2
sVstrikes,
p1478
F1
sVit.
p1479
F26
sVrapier
p1480
F3
sVit,
p1481
F51
sVit)
p1482
F3
sVpropose
p1483
F1
sVreplie.
p1484
F1
sVabandone
p1485
F2
sVit?
p1486
F2
sVtatling
p1487
F1
sVit;
p1488
F24
sVweeds
p1489
F1
sVarbor,
p1490
F1
sVblowes
p1491
F2
sVheire,
p1492
F3
sVgreat,
p1493
F6
sVimmoueably
p1494
F1
sVdocument
p1495
F2
sVscarlet,
p1496
F1
sVpensiue
p1497
F5
sVall.
p1498
F2
sVall,
p1499
F6
sVall)
p1500
F1
sVcourses
p1501
F1
sVconvulsions,
p1502
F1
sVfound
p1503
F19
sVall;
p1504
F1
sVbetweene
p1505
F6
sVinequalitie
p1506
F2
sV(but
p1507
F1
sVengland
p1508
F1
sVparts,
p1509
F1
sVresolute
p1510
F11
sVreduce
p1511
F3
sVexorbitant
p1512
F1
sVruminated
p1513
F1
sVemilia,
p1514
F1
sVaffections)
p1515
F1
sVoperation
p1516
F1
sViudgment,
p1517
F2
sVreally
p1518
F2
sVexclamations:
p1519
F1
sVaffliction:
p1520
F1
sVfeasable,
p1521
F1
sVcompanions:)
p1522
F1
sVresearch
p1523
F3
sVblacke
p1524
F4
sVdregs
p1525
F2
sVsicke,
p1526
F1
sVexpiation
p1527
F4
sVdarling
p1528
F1
sVsilke
p1529
F1
sVsalute
p1530
F3
sVgrieuing,
p1531
F1
sVstature.
p1532
F1
sVserpent
p1533
F2
sVgrandmother:
p1534
F2
sVoutbraued
p1535
F1
sVemilias
p1536
F1
sVquicke
p1537
F1
sVimagine
p1538
F3
sVreall;
p1539
F1
sVoutbraues
p1540
F1
sVsauour
p1541
F1
sVagaine;
p1542
F2
sVafflictions
p1543
F7
sVagaine,
p1544
F20
sVagaine.
p1545
F2
sVretaines
p1546
F2
sVpaire
p1547
F2
sVblack,
p1548
F1
sVcastle
p1549
F3
sVgazed
p1550
F1
sVrooted
p1551
F1
sVdespaire.)
p1552
F1
sVnumber
p1553
F4
sVsequester
p1554
F1
sVbedew,
p1555
F1
sVwrest
p1556
F1
sVdestinctly
p1557
F1
sVcontended
p1558
F1
sVdiffer
p1559
F1
sVfuller
p1560
F2
sVsuddenly,
p1561
F2
sVmarry:
p1562
F2
sVaduocate,
p1563
F1
sVpreuayled
p1564
F1
sVhote
p1565
F3
sVflings
p1566
F1
sVsaint
p1567
F18
sVolde
p1568
F7
sVdistracted,
p1569
F2
sVaduocate:
p1570
F1
sVmalicious,
p1571
F2
sVleaues
p1572
F16
sVnecessitie
p1573
F3
sVfirst,
p1574
F16
sVfirst.
p1575
F2
sValbemare's
p1576
F1
sVroote,
p1577
F1
sVimmediate
p1578
F2
sVserpent,
p1579
F1
sVrayning
p1580
F2
sVfirst;
p1581
F1
sVconsult
p1582
F11
sVgrace
p1583
F32
sVsure,
p1584
F1
sVdiuerted
p1585
F1
sVhead;
p1586
F1
sVveluet,
p1587
F1
sVdetermined
p1588
F1
sVmarriage
p1589
F6
sVaduertising
p1590
F1
sVhead.
p1591
F2
sVhead,
p1592
F5
sVremembers
p1593
F1
sVobseruation,
p1594
F1
sVfights
p1595
F2
sVdefect
p1596
F1
sVincomputable
p1597
F1
sVsingle,
p1598
F3
sVvnderstood.
p1599
F1
sVvnderstood)
p1600
F1
sVsell
p1601
F3
sVself
p1602
F1
sVwish.
p1603
F1
sVwish,
p1604
F1
sVfornication
p1605
F1
sValso
p1606
F50
sVsteppe
p1607
F1
sVsharpe
p1608
F11
sVbrace
p1609
F2
sVsels
p1610
F1
sVfellowes
p1611
F1
sVplay
p1612
F7
sVsiluer
p1613
F2
sVswiftly
p1614
F2
sVingender
p1615
F1
sVfight,
p1616
F4
sVwedded
p1617
F4
sVwas)
p1618
F2
sVreward
p1619
F4
sVprosperitie
p1620
F1
sVendeauours
p1621
F1
sVseize
p1622
F3
sVobserued)
p1623
F1
sVsometimes
p1624
F7
sVends;
p1625
F1
sVtimbred
p1626
F1
sVparting,
p1627
F1
sVdispaire;
p1628
F2
sVmountebanks
p1629
F1
sVsaftie
p1630
F1
sVends,
p1631
F2
sVstrawberries,
p1632
F1
sVinueigled
p1633
F1
sVoathes:
p1634
F1
sVdiseases,
p1635
F1
sVblushing,
p1636
F3
sVgold
p1637
F8
sVreformed,
p1638
F2
sVvncontroleable
p1639
F1
sVoathes,
p1640
F1
sVseuen
p1641
F2
sVfeature,
p1642
F1
sVgospell
p1643
F1
sVtholouse:
p1644
F1
sVpleasure;
p1645
F4
sVwraps
p1646
F2
sVinchanting
p1647
F1
sVreprobation.
p1648
F1
sVwrites
p1649
F9
sVwriter
p1650
F1
sVinuest
p1651
F1
sVpleasure,
p1652
F7
sVfactor
p1653
F1
sVfraughted
p1654
F1
sVordained
p1655
F3
sVbody)
p1656
F4
sVdissembleth
p1657
F1
sVproffer
p1658
F1
sVfatall
p1659
F14
sVremedy
p1660
F10
sVpreparing
p1661
F1
sVclosely
p1662
F2
sVgifts
p1663
F2
sVresend
p1664
F1
sVenemy
p1665
F4
sVpleasures
p1666
F11
sVcry
p1667
F4
sVcareere)
p1668
F1
sVpensiuely
p1669
F1
sVwrite,
p1670
F1
sVobscure
p1671
F6
sVcoward
p1672
F1
sVapproaching
p1673
F2
sVciuill
p1674
F1
sVset
p1675
F12
sVcreator
p1676
F3
sVheauen
p1677
F45
sVounces
p1678
F1
sVinstituted
p1679
F2
sVpotent
p1680
F1
sVsex
p1681
F1
sVfetches,
p1682
F1
sVsee
p1683
F134
sVoutwardly
p1684
F2
sVbulke
p1685
F1
sVoutward
p1686
F11
sVdiscouer,
p1687
F1
sVpreuailed
p1688
F2
sVspirits
p1689
F2
sVmatter
p1690
F4
sVkneeling
p1691
F1
sVsoftly,
p1692
F1
sVpreseruing
p1693
F1
sVpreuailes
p1694
F1
sVprodigally
p1695
F2
sVmonsters
p1696
F3
sVknowing
p1697
F15
sVambiguities,
p1698
F1
sVpremises
p1699
F1
sVdiscouery
p1700
F9
sVrackt,
p1701
F1
sVstarke
p1702
F3
sVincident
p1703
F3
sVvnder
p1704
F25
sVceller,
p1705
F1
sVaduantage)
p1706
F1
sVlast
p1707
F36
sVthou
p1708
F121
sVpreuaile.
p1709
F1
sVmistris;
p1710
F1
sVseauen.
p1711
F1
sVlet
p1712
F23
sVwhole
p1713
F21
sVhumane,
p1714
F1
sVclara's
p1715
F5
sVpleasures,
p1716
F4
sVacted
p1717
F9
sVsilence.
p1718
F2
sVheretofore,
p1719
F1
sVsilence,
p1720
F3
sVpleasures;
p1721
F1
sVtown;
p1722
F2
sVaddresseth
p1723
F1
sVagents
p1724
F5
sVwheele,
p1725
F2
sVchurch
p1726
F8
sVsilence;
p1727
F2
sVsilence:
p1728
F2
sVwhosoeuer
p1729
F2
sV(stil
p1730
F1
sVremoued,
p1731
F2
sVcheekes
p1732
F5
sVresting
p1733
F1
sVchampion
p1734
F1
sVsilenced
p1735
F1
sVfire
p1736
F12
sVdrawen,
p1737
F1
sVtowne
p1738
F3
sVgreat
p1739
F39
sVdespite
p1740
F1
sVcarpi.
p1741
F2
sVvitious
p1742
F7
sVstraight
p1743
F1
sVadmire
p1744
F6
sVforgetting
p1745
F12
sVpressed
p1746
F1
sVlynceus
p1747
F1
sVerror
p1748
F2
sVkissing
p1749
F3
sVhoping
p1750
F10
sV(briefly)
p1751
F1
sVsprinkled,
p1752
F1
sVchast
p1753
F9
sVvow
p1754
F2
sVowes
p1755
F1
sVrenounced
p1756
F1
sVyarde,
p1757
F1
sVmannors
p1758
F1
sVfeasting,
p1759
F1
sVprosperitie,
p1760
F1
sVordayned,
p1761
F1
sVinuent
p1762
F1
sVshorter
p1763
F1
sVrules
p1764
F2
sValledged
p1765
F1
sVsecured,
p1766
F1
sVexamined,
p1767
F1
sVprouing
p1768
F1
sVlosanna,
p1769
F1
sVhabite,
p1770
F1
sVdispleased
p1771
F1
sVpoysoning
p1772
F7
sVdeformity
p1773
F2
sVdepriue
p1774
F3
sVcontrition
p1775
F6
sVingratefull,
p1776
F1
sVnecessity
p1777
F3
sVthreatneth
p1778
F1
sVsaile.
p1779
F1
sVinfamous
p1780
F5
sVannunciation
p1781
F1
sVplessis
p1782
F3
sVhymen
p1783
F1
sVastonished,
p1784
F1
sVothers.
p1785
F2
sVloathsome
p1786
F1
sVperson
p1787
F2
sVyet,
p1788
F3
sVconsolation,
p1789
F2
sVcourting
p1790
F3
sVexcessiuely,
p1791
F1
sVleone
p1792
F2
sVembraceth
p1793
F1
sVshalbe
p1794
F2
sVadioyning,
p1795
F1
sVchartres:
p1796
F1
sVdauncers,
p1797
F1
sVfeared,
p1798
F1
sVladies,
p1799
F4
sVlady
p1800
F33
sVflintiest
p1801
F1
sVsottishnesse,
p1802
F1
sVparents
p1803
F15
sVtestimonies
p1804
F1
sVcrying
p1805
F11
sVswinish
p1806
F3
sVsurprised
p1807
F3
sVthee.
p1808
F3
sVthee,
p1809
F24
sVcouple
p1810
F4
sVthee?
p1811
F3
sVsanctifie
p1812
F1
sVvictime
p1813
F1
sVthee;
p1814
F3
sVthee:
p1815
F5
sVfeuer:
p1816
F2
sVimposed
p1817
F1
sVtestimonie,
p1818
F1
sVreader:
p1819
F1
sVfancie
p1820
F1
sVcontinue
p1821
F4
sVexquisitely
p1822
F1
sVreader,
p1823
F3
sVcanst
p1824
F5
sVharmlesse
p1825
F2
sVsenate
p1826
F2
sVspring
p1827
F3
sVdeparture,
p1828
F5
sVsighs
p1829
F5
sVmethode
p1830
F1
sVmighty
p1831
F1
sVsight
p1832
F25
sVcurious
p1833
F13
sVpale
p1834
F6
sVcaptiue,
p1835
F1
sVwresting
p1836
F1
sVonely
p1837
F190
sVcuppes
p1838
F2
sVprogression,
p1839
F1
sVreligion
p1840
F10
sVbed-chamber,
p1841
F1
sVfirmely
p1842
F1
sVtemple
p1843
F3
sVrapier,
p1844
F3
sVinclination
p1845
F3
sVmight,
p1846
F1
sVreioyceth
p1847
F6
sVvitall
p1848
F1
sVdictates
p1849
F1
sVconsiderations,
p1850
F1
sVgodlines
p1851
F1
sVrequitall.
p1852
F2
sVmight;
p1853
F1
sVrequitall,
p1854
F2
sVby
p1855
F245
sVaswell
p1856
F9
sVtennants,
p1857
F1
sVdiscontented
p1858
F7
sVcaueat
p1859
F1
sVsoulanges
p1860
F4
sVembrue
p1861
F2
sVwoman)
p1862
F1
sVabortiue
p1863
F1
sVambush
p1864
F1
sVstable,
p1865
F1
sVfoule
p1866
F31
sVpappes
p1867
F1
sVinclination;
p1868
F1
sVinto
p1869
F103
sVrecreate
p1870
F1
sVstatures,
p1871
F1
sVdisconsolately,
p1872
F1
sVwherof,
p1873
F1
sVwofull
p1874
F6
sVtall,
p1875
F2
sVouerprise
p1876
F1
sVtraduce
p1877
F1
sVrepayre
p1878
F3
sVrespect;
p1879
F1
sVbowels,
p1880
F1
sVaddicting
p1881
F2
sVredoubled
p1882
F1
sV:
F12
sVopens
p1883
F1
sVimmodestly
p1884
F1
sVworme-wood
p1885
F1
sVimpudent
p1886
F2
sVvowing
p1887
F8
sVhookes,
p1888
F1
sVline
p1889
F1
sVacquainted,
p1890
F1
sVopen,
p1891
F4
sVimmured
p1892
F1
sVredeemed
p1893
F1
sVinhumane
p1894
F22
sVfortunes,
p1895
F4
sVredeemer
p1896
F2
sVzealously
p1897
F1
sVpestilence:
p1898
F1
sVfortunes:
p1899
F1
sVstincke,
p1900
F1
sVside,
p1901
F4
sVreconcile
p1902
F3
sVlikewise
p1903
F40
sVflocked
p1904
F1
sVinfluence
p1905
F3
sVpreuent,
p1906
F2
sVlost,
p1907
F2
sVreuerence,
p1908
F1
sVbeginning,
p1909
F2
sVpresidet
p1910
F1
sVengender
p1911
F1
sVhell:
p1912
F2
sVseruants:
p1913
F1
sVcontemplations:
p1914
F1
sVnill,
p1915
F1
sVactors
p1916
F2
sVgrauity
p1917
F1
sVseruants,
p1918
F4
sVcontemplations,
p1919
F2
sVhell.
p1920
F2
sVherein,
p1921
F5
sVhell,
p1922
F8
sVseruants)
p1923
F1
sVdefine,
p1924
F3
sVelements
p1925
F1
sVbeginnings
p1926
F1
sVoblige
p1927
F1
sVfaintly
p1928
F1
sV(made
p1929
F1
sVname)
p1930
F1
sVsides
p1931
F2
sVhalsenorfe
p1932
F3
sVage
p1933
F25
sVactor,
p1934
F1
sVarriued
p1935
F8
sVsleepe;
p1936
F1
sVarriues
p1937
F1
sVfresh
p1938
F7
sVfoorth
p1939
F14
sValmost)
p1940
F1
sVpresident,
p1941
F2
sVseemes
p1942
F13
sVguerdon
p1943
F1
sVimpatient,
p1944
F1
sVreference](images/xref.gif)](/searchfulltext.do?id=80023001&idtype=xref&divlevel=0&trailid=15edfdc6b66&area=prose&forward=textsft)
p1945
F17
sVgriefes,
p1946
F1
sVconiure
p1947
F4
sVseemed
p1948
F7
sVotranto
p1949
F15
sVrests,
p1950
F1
sVsend
p1951
F28
sVcredulitie,
p1952
F1
sVhandkercher,
p1953
F5
sV(not
p1954
F2
sVdislike
p1955
F1
sVconcernes
p1956
F2
sVsent
p1957
F27
sVgarden
p1958
F6
sVcleered
p1959
F1
sVretayning
p1960
F3
sVinformed,
p1961
F2
sVcontinues
p1962
F1
sV(niece
p1963
F1
sVpetitions
p1964
F1
sVtimely
p1965
F3
sVdetested
p1966
F2
sVgulfe)
p1967
F1
sVharbor
p1968
F1
sVobey:
p1969
F1
sVmarry
p1970
F38
sVpersonating
p1971
F1
sVremediy:
p1972
F1
sVhonourably,
p1973
F1
sVsleeping,
p1974
F2
sViniury
p1975
F1
sVwalles,
p1976
F1
sVleonardo
p1977
F21
sVchallenge
p1978
F2
sVlombardy
p1979
F4
sVpledge
p1980
F2
sVdyning
p1981
F1
sVforwards,
p1982
F1
sVinueagle
p1983
F1
sVdeceiued
p1984
F2
sVthat,
p1985
F4
sVmake,
p1986
F1
sVcitie;
p1987
F1
sVthirds
p1988
F1
sVfirme
p1989
F4
sVexpressed
p1990
F1
sVhereditary
p1991
F2
sVhenceforth
p1992
F1
sVmiles,
p1993
F1
sVthat;
p1994
F1
sVcitie
p1995
F11
sVled
p1996
F2
sVeffected:
p1997
F1
sVspake
p1998
F5
sVconueyance
p1999
F1
sVconsideration
p2000
F10
sVfifteen
p2001
F1
sVgrowen
p2002
F3
sVvnshut
p2003
F1
sVindiscreetly
p2004
F1
sVawayting
p2005
F1
sVcomforting,
p2006
F1
sVopinion
p2007
F7
sVsweat,
p2008
F1
sVmakes
p2009
F52
sVgrowes
p2010
F1
sV(wishing
p2011
F1
sVcounsell
p2012
F4
sVrack,
p2013
F1
sVresolutions.
p2014
F1
sVreuenging
p2015
F3
sVbeautie
p2016
F19
sVstreamed
p2017
F1
sVdearly,
p2018
F2
sVdesiring
p2019
F5
sVstanding
p2020
F1
sVconfidence
p2021
F1
sVfrownes:
p2022
F1
sVcustome;
p2023
F1
sVwhipping
p2024
F1
sVnext
p2025
F31
sVsuspecting,
p2026
F1
sVassuring
p2027
F2
sVdoubt
p2028
F5
sVsuspecting)
p2029
F1
sVinfamy
p2030
F4
sVcounsel,
p2031
F1
sVsir,
p2032
F1
sVferue
p2033
F1
sVfoolishly
p2034
F1
sVsharply
p2035
F2
sVsentenells
p2036
F1
sVwreches,
p2037
F1
sVcharity
p2038
F5
sVthis
p2039
F537
sVsingularitie
p2040
F1
sVcheere,
p2041
F1
sVweaknesse
p2042
F2
sVprompts
p2043
F1
sVreuealed,
p2044
F1
sVaffectio
p2045
F1
sVtokens
p2046
F2
sV(yet
p2047
F2
sVslie
p2048
F1
sVdispayre:
p2049
F1
sVbent
p2050
F1
sVvniuersities
p2051
F2
sVfit,
p2052
F2
sVvineyard,
p2053
F2
sVinchanteth
p2054
F1
sVpieces
p2055
F1
sVhigh
p2056
F8
sVstreames
p2057
F2
sV(yea
p2058
F2
sVnone,
p2059
F3
sVamend
p2060
F1
sVprocurer
p2061
F1
sVprocures
p2062
F1
sVgrieues;
p2063
F1
sVvnpunished
p2064
F1
sVdelay
p2065
F2
sVprocured
p2066
F2
sVbeseeched
p2067
F1
sVmysteries
p2068
F1
sVfith
p2069
F4
sVsixtie
p2070
F2
sVrod,
p2071
F1
sVhalter
p2072
F2
sVsingular
p2073
F3
sVgrowne
p2074
F1
sVracke
p2075
F1
sVvniuersitie:
p2076
F1
sVpurpose.
p2077
F1
sVlines,
p2078
F2
sVpurpose,
p2079
F1
sVdoubtlesse
p2080
F2
sVpreferring
p2081
F4
sVfits
p2082
F1
sVbecom
p2083
F1
sVvnthriftie
p2084
F1
sVorginall
p2085
F1
sV(resoluing
p2086
F1
sVresolute)
p2087
F1
sVresolute,
p2088
F1
sVperused
p2089
F1
sVingaged
p2090
F2
sVacquitted
p2091
F1
sVwrit
p2092
F1
sVallot
p2093
F1
sVpale;
p2094
F1
sVnogent
p2095
F5
sVrelish,
p2096
F1
sVkniues
p2097
F1
sVwarres
p2098
F2
sVdeseruest
p2099
F1
sVphysicke
p2100
F1
sValtogether
p2101
F1
sVdetestation:
p2102
F1
sVproduced
p2103
F1
sVtippleth
p2104
F1
sVperfect
p2105
F8
sVputrifies
p2106
F1
sVdecay
p2107
F1
sVchosen
p2108
F1
sVryding
p2109
F1
sVdispose
p2110
F3
sVouerflow
p2111
F1
sVdegrees
p2112
F5
sVbolting
p2113
F3
sVphysicians
p2114
F1
sVsounded,
p2115
F1
sVburghers
p2116
F1
sVvnprouided
p2117
F1
sVflourish;
p2118
F1
sVflourish:
p2119
F2
sVpeeces;
p2120
F1
sVdesigne
p2121
F2
sVcontinuall
p2122
F3
sVproduce,
p2123
F2
sVflourish,
p2124
F1
sVwithall,
p2125
F14
sVprouiding,
p2126
F2
sVdependances;
p2127
F1
sVtraced
p2128
F1
sVwhither
p2129
F2
sVaccompanies
p2130
F2
sVsweetnesse
p2131
F4
sVtruth
p2132
F13
sVeare
p2133
F4
sVaccompanied
p2134
F5
sVgaoler
p2135
F1
sVscorch
p2136
F1
sVsuitors
p2137
F1
sVbooke
p2138
F2
sVbeginnes
p2139
F5
sVdoing
p2140
F2
sV(eyther
p2141
F1
sVhermite,
p2142
F1
sVproduced,
p2143
F1
sVdefiance:
p2144
F1
sVpurpose:
p2145
F1
sVwonne
p2146
F1
sVtenth
p2147
F1
sVpurpose;
p2148
F1
sVlastly
p2149
F1
sVbasenesse
p2150
F1
sVlines:
p2151
F2
sVhonny
p2152
F1
sVfrowns
p2153
F1
sV(that
p2154
F1
sVshut
p2155
F6
sVgodly
p2156
F1
sVbook,
p2157
F1
sVprouince
p2158
F2
sVatchieued
p2159
F1
sVvexation,
p2160
F3
sVthrust
p2161
F1
sVsteering
p2162
F1
sVshortest
p2163
F2
sVhasten
p2164
F3
sVthings.
p2165
F1
sVapprehend,
p2166
F1
sVthings,
p2167
F2
sVcould
p2168
F58
sVloe
p2169
F5
sVlength
p2170
F3
sVvnspent,
p2171
F1
sVopposeth
p2172
F2
sVcurseth
p2173
F1
sVpurgatory,
p2174
F3
sVendowments
p2175
F3
sVspeaking,
p2176
F1
sVinterest;
p2177
F1
sVapplaud,
p2178
F1
sVpallate,
p2179
F1
sVdiuing
p2180
F1
sVhonoured,
p2181
F1
sVdiuine
p2182
F4
sVoccurrences
p2183
F1
sVaffliction
p2184
F10
sVshort,
p2185
F3
sVpallate:
p2186
F1
sVvasselay
p2187
F41
sVdares,
p2188
F1
sVtwo,
p2189
F4
sViudges;
p2190
F1
sVslips,
p2191
F1
sVconuerts
p2192
F1
sVcourted
p2193
F1
sVtwo:
p2194
F1
sVtwo;
p2195
F2
sVangry
p2196
F2
sVmalady
p2197
F1
sVaccompany
p2198
F1
sVdarest
p2199
F1
sVowne,
p2200
F2
sVpale,
p2201
F1
sVowne:
p2202
F3
sVowne;
p2203
F2
sVfeast.
p2204
F1
sVapplauds
p2205
F1
sVfraunce
p2206
F1
sVdetaine
p2207
F1
sVbeseecheth
p2208
F1
sVpouertie
p2209
F3
sVfayrely
p2210
F1
sVvrgent
p2211
F1
sVbroths;
p2212
F1
sVheyre
p2213
F1
sVsatisfied:
p2214
F1
sVtortures
p2215
F2
sVstricter
p2216
F1
sVrepented
p2217
F4
sVtorrent
p2218
F1
sVingenious
p2219
F3
sVfalse
p2220
F15
sVintemperancy:
p2221
F1
sVdiuert
p2222
F14
sVdiuers
p2223
F13
sVtacite
p2224
F1
sVcoyne
p2225
F1
sVgentle
p2226
F1
sVmisterie:
p2227
F1
sVsorrowes;
p2228
F3
sVsorrowes:
p2229
F3
sVgallowes,
p2230
F2
sVtherewith
p2231
F1
sVchief
p2232
F1
sVsoules
p2233
F4
sVsorrowes,
p2234
F3
sVaduised
p2235
F1
sVlaquay;
p2236
F1
sVriuolets
p2237
F1
sVshauen:
p2238
F1
sVlaquay,
p2239
F6
sVhatred,
p2240
F1
sVhypocrite
p2241
F2
sVsoule:
p2242
F2
sVsoule;
p2243
F8
sVbred
p2244
F2
sVstronger
p2245
F1
sV(from
p2246
F1
sVface
p2247
F13
sVpossessions;
p2248
F1
sVsoule.
p2249
F3
sVfurnish
p2250
F1
sVwounded
p2251
F2
sVinfamy;
p2252
F1
sVcholler
p2253
F11
sVnecessitie,
p2254
F1
sVexchange,
p2255
F1
sVlauall
p2256
F2
sVexchange.
p2257
F1
sVnaturall
p2258
F3
sVbring
p2259
F18
sVsullen,
p2260
F1
sVmooueables)
p2261
F1
sVmarchants
p2262
F1
sVsubtiltie
p2263
F2
sVshould
p2264
F52
sVchristina:
p2265
F1
sVgascogny
p2266
F1
sVcommaunds:
p2267
F1
sVhope
p2268
F28
sVexchanged
p2269
F2
sVcapeable)
p2270
F1
sVcapeable,
p2271
F1
sVbonds
p2272
F3
sVfamiliar
p2273
F2
sVtrain'd
p2274
F1
sVnatural,
p2275
F1
sVprohibition
p2276
F2
sVmeane
p2277
F14
sVtolerate.
p2278
F1
sVliuely
p2279
F2
sVscene
p2280
F1
sVstarue
p2281
F1
sVbottomlesse
p2282
F2
sVgentlewomen,
p2283
F1
sVapollo;
p2284
F1
sVrefell
p2285
F1
sVpackes
p2286
F2
sVframe
p2287
F1
sVend:
p2288
F2
sVvtmost
p2289
F1
sVonce:
p2290
F1
sVcatastrophie
p2291
F1
sVincurable
p2292
F1
sVend,
p2293
F17
sVend.
p2294
F1
sVinnocent,
p2295
F1
sVrather,
p2296
F2
sVdeuided
p2297
F1
sVinsulting
p2298
F1
sVtauerne,
p2299
F1
sVbehalfe:
p2300
F1
sVends
p2301
F7
sVinterchangeably
p2302
F2
sVtenter
p2303
F1
sValiue
p2304
F1
sVauoyd
p2305
F1
sVwhereon
p2306
F9
sVstreame
p2307
F2
sVthirsted
p2308
F1
sVperfidious
p2309
F2
sVhood-wink'd,
p2310
F1
sVdrug
p2311
F1
sVkingdome)
p2312
F1
sVventadour
p2313
F1
sVstrewed
p2314
F1
sVstrongly
p2315
F2
sVconclude
p2316
F6
sVfedge
p2317
F1
sVangiers
p2318
F2
sVprosperities.
p2319
F1
sVinckling
p2320
F1
sVdebility
p2321
F1
sVlewes
p2322
F1
sVdescents
p2323
F1
sVaccursed
p2324
F3
sVmoued
p2325
F1
sVbeleeue
p2326
F16
sVsickenesse
p2327
F2
sVfury
p2328
F4
sVfeather
p2329
F1
sVdefloration
p2330
F1
sVdescent,
p2331
F1
sVexcellencies:
p2332
F1
sVgastly,
p2333
F1
sVneighbour
p2334
F2
sVbanish
p2335
F1
sVwearied
p2336
F1
sVwords.
p2337
F3
sVwast,
p2338
F1
sVcountry
p2339
F3
sViustification)
p2340
F1
sVbeleeues,
p2341
F4
sVcoale
p2342
F1
sVoutliue
p2343
F1
sVdissolutenesse,
p2344
F1
sVtickled
p2345
F1
sVargus
p2346
F1
sVvp
p2347
F60
sVvs
p2348
F37
sVdemanded
p2349
F1
sVsearched,
p2350
F2
sVvalour
p2351
F5
sVof.
p2352
F1
sVof,
p2353
F3
sVof:
p2354
F1
sVof;
p2355
F2
sVsit,
p2356
F2
sVaffirmes,
p2357
F5
sVxv.
p2358
F1
sVv.
p2359
F1
sVhangman
p2360
F1
sVuniust
p2361
F1
sVinfinite
p2362
F8
sVpeacockes
p2363
F1
sVinsultation,
p2364
F1
sVoff
p2365
F14
sVcolour
p2366
F6
sVpurilitie,
p2367
F1
sVcommand
p2368
F9
sVentermixe
p2369
F1
sVdrawing
p2370
F4
sVsnake
p2371
F1
sVnay,
p2372
F4
sVroome
p2373
F3
sVclocke
p2374
F3
sVsimplicity,
p2375
F2
sVsanguin
p2376
F1
sVsurpriseth
p2377
F1
sVenemy:
p2378
F1
sVgouernor
p2379
F1
sVemelia
p2380
F4
sVpaul
p2381
F1
sVafflicted
p2382
F7
sVgenerous
p2383
F7
sVwee
p2384
F56
sVwed
p2385
F4
sVsatisfie
p2386
F3
sVhim.
p2387
F26
sVstagge,
p2388
F1
sVreputed,
p2389
F2
sVexempt
p2390
F6
sVpractise
p2391
F7
sVskilfull,
p2392
F1
sVloe,
p2393
F2
sVhalfes:
p2394
F1
sVantithises
p2395
F1
sVnewes;
p2396
F1
sVgull,
p2397
F1
sVslauish
p2398
F1
sVblemish
p2399
F1
sVrobberie
p2400
F1
sVhumors
p2401
F1
sVknaues
p2402
F1
sVhaue
p2403
F169
sVnewes,
p2404
F9
sV(of
p2405
F2
sVinroule
p2406
F1
sVcontempt,
p2407
F3
sV(on
p2408
F1
sVransomed
p2409
F1
sV(oh
p2410
F1
sVsymptomes
p2411
F3
sVgrieuing
p2412
F5
sVplayster,
p2413
F1
sV(or
p2414
F13
sVmoralitie,
p2415
F1
sVingage
p2416
F2
sVbecome
p2417
F20
sVactions,
p2418
F7
sVbewrayes
p2419
F1
sVinconstant
p2420
F2
sVresidence,
p2421
F1
sVcouncellors
p2422
F2
sVexpell
p2423
F3
sVsuspition
p2424
F4
sVentertaine
p2425
F3
sVresidence;
p2426
F2
sVreioyced
p2427
F4
sVbewrayed
p2428
F1
sVchoosing
p2429
F1
sVtransport
p2430
F1
sVbretheren:
p2431
F1
sVfoulely
p2432
F1
sVimpregnable,
p2433
F1
sVextreame
p2434
F8
sVpassion
p2435
F7
sViustice
p2436
F17
sVregarded,
p2437
F1
sVvoluptuous
p2438
F1
sVvnkindnesse,
p2439
F2
sVvs:
p2440
F1
sVvs;
p2441
F2
sVdeboshd;
p2442
F1
sVrecompensed
p2443
F1
sVsecrecy,
p2444
F3
sVcouncellor,
p2445
F1
sVreioyce,
p2446
F2
sVimportunately
p2447
F1
sVvs.
p2448
F3
sVstage
p2449
F1
sVbeneuente
p2450
F1
sVsister
p2451
F19
sVfarewell:
p2452
F1
sVprodigalitie
p2453
F2
sVdoe,
p2454
F4
sVdoe.
p2455
F1
sVfarewell,
p2456
F1
sVfurred
p2457
F2
sVvtterly
p2458
F2
sVmerites
p2459
F1
sVdoe;
p2460
F1
sVdiabolical
p2461
F1
sVvnderstanding,
p2462
F1
sVswimming
p2463
F1
sVletters
p2464
F13
sVstrumpet
p2465
F14
sVbackwards:
p2466
F1
sVvnnaturall
p2467
F4
sVduetie
p2468
F1
sV.
F55
sVmallan
p2469
F1
sVcommission
p2470
F1
sVwhordome
p2471
F1
sVcoactiue
p2472
F1
sVvnchastitie
p2473
F2
sVterminates
p2474
F1
sVplace,
p2475
F5
sVindoctrinated
p2476
F1
sVnaturally
p2477
F1
sVthey:
p2478
F1
sVdiscourtesie
p2479
F1
sVletter;
p2480
F1
sVletter:
p2481
F5
sVneither,
p2482
F1
sVrelucent
p2483
F1
sVsword;
p2484
F1
sV(much
p2485
F1
sVletter,
p2486
F23
sVconsidereth
p2487
F3
sVthey,
p2488
F2
sVcount
p2489
F3
sVdetestable
p2490
F1
sVwretchedly
p2491
F3
sVplaces
p2492
F1
sVdeuasting
p2493
F1
sVterminate,
p2494
F1
sVnaturall,
p2495
F1
sVimpietie,
p2496
F3
sVchurch,
p2497
F5
sVproserpina
p2498
F1
sVwinding-sheet.
p2499
F1
sVbearing
p2500
F1
sVrightly
p2501
F3
sVdelightest
p2502
F1
sVnurses
p2503
F1
sVagaine
p2504
F62
sVprodigalities
p2505
F1
sVlaciuious
p2506
F8
sVrecrucifie
p2507
F1
sVgarden.
p2508
F1
sVgarden,
p2509
F6
sVconfirmation;
p2510
F1
sVsince)
p2511
F1
sVexcellencies
p2512
F4
sVdidst
p2513
F1
sVdilatory
p2514
F1
sVdeadly
p2515
F3
sVlately
p2516
F4
sVslumbers
p2517
F1
sVgarden;
p2518
F2
sVtriall
p2519
F1
sVbehold
p2520
F4
sVratleth
p2521
F2
sVpredominant
p2522
F1
sVgrones,
p2523
F1
sVprosperously,
p2524
F1
sVsemblance
p2525
F1
sVhereof.
p2526
F1
sVagain,
p2527
F1
sVin;
p2528
F1
sVwinding-sheete
p2529
F1
sVprodigalitie,
p2530
F2
sVin,
p2531
F7
sVchance
p2532
F4
sVhard-hearted
p2533
F1
sVlippes,
p2534
F4
sVghost
p2535
F1
sVobuious
p2536
F1
sVcompare,
p2537
F1
sVhypocriticall
p2538
F4
sVmatch't
p2539
F1
sVpension
p2540
F1
sVdandles
p2541
F1
sVwritest
p2542
F2
sVgardens
p2543
F1
sVarithmatique
p2544
F1
sVdoubts
p2545
F2
sVmansion
p2546
F1
sVpedro
p2547
F23
sVeffectually
p2548
F5
sVweltring
p2549
F4
sVmoneths,
p2550
F3
sVstinke
p2551
F1
sVknowes,
p2552
F7
sVvnlooked-
p2553
F1
sVkissed,
p2554
F2
sVworth
p2555
F3
sVreceiuing
p2556
F3
sVamorous
p2557
F4
sVinhumane,
p2558
F2
sVcompassion
p2559
F1
sVstudient
p2560
F1
sVdisobedient
p2561
F1
sVknowest
p2562
F1
sVprogression
p2563
F2
sVmerson
p2564
F49
sVfurrowes
p2565
F2
sVlicenciously
p2566
F1
sVtriumph
p2567
F11
sVoccasioned
p2568
F3
sVothers:
p2569
F1
sVothers;
p2570
F1
sVsouldier
p2571
F1
sVseale
p2572
F4
sVothers,
p2573
F10
sVgondyes
p2574
F1
sVhangd,
p2575
F1
sVestablished
p2576
F1
sVnatiue
p2577
F1
sVlesse
p2578
F51
sV(all
p2579
F1
sVchurches
p2580
F1
sVmurther
p2581
F51
sVdirected.
p2582
F1
sVclockes
p2583
F1
sVobtaine:
p2584
F1
sVtold
p2585
F7
sVbrianson
p2586
F2
sVgroanes,
p2587
F1
sVfathers,
p2588
F2
sVclymactericall
p2589
F1
sVrichest
p2590
F5
sVpluto
p2591
F1
sVdeformitie
p2592
F2
sVequall
p2593
F3
sVdelicts
p2594
F1
sVobtained
p2595
F2
sVdaughter
p2596
F28
sVfuturely
p2597
F5
sVstudy
p2598
F2
sVostentation,
p2599
F1
sVfamous,
p2600
F1
sVostentation:
p2601
F1
sVglittering
p2602
F1
sVshee-deuill
p2603
F1
sVmaydens
p2604
F2
sVsecure
p2605
F7
sVgentleman,
p2606
F8
sVburgemaster
p2607
F1
sVauthenticall,
p2608
F1
sVhighly
p2609
F4
sVend;
p2610
F1
sVwisheth
p2611
F10
sVplot
p2612
F3
sVcommonweales
p2613
F1
sVdeepely
p2614
F8
sVpermit;
p2615
F1
sVhoushold-
p2616
F1
sVpermit,
p2617
F1
sVinciuill,
p2618
F1
sVdifficultly:
p2619
F2
sVdrinking,
p2620
F1
sVgentlemans
p2621
F2
sVvnstopped
p2622
F1
sVword
p2623
F9
sVwore
p2624
F1
sVstriue
p2625
F2
sVpermits
p2626
F2
sVempresse
p2627
F1
sVinform'd
p2628
F1
sVwork
p2629
F2
sVere
p2630
F12
sVglorie
p2631
F1
sVlorenzo's
p2632
F1
sVpollute
p2633
F1
sVcurtesie,
p2634
F1
sVinscrutable
p2635
F1
sVmortality,
p2636
F1
sVexecutioners,
p2637
F1
sVindifferent
p2638
F2
sVpreserue:
p2639
F1
sVagony
p2640
F1
sVstomacke
p2641
F1
sVboate
p2642
F1
sVreioyce
p2643
F8
sVfar
p2644
F13
sVapprehend:
p2645
F1
sVfoulest
p2646
F1
sVegge;
p2647
F1
sVordinary
p2648
F1
sV(true
p2649
F1
sVladder
p2650
F2
sVafter
p2651
F31
sVlay
p2652
F12
sVcustome
p2653
F1
sVceleritie,
p2654
F1
sVlaw
p2655
F8
sVcheekes,
p2656
F1
sVaustere
p2657
F1
sVboat,
p2658
F1
sVaccepteth
p2659
F1
sVegged
p2660
F1
sVquarry,
p2661
F2
sVgreet
p2662
F1
sVhaste
p2663
F1
sVcumbred
p2664
F1
sVorder
p2665
F2
sVreuert
p2666
F1
sVmodesty
p2667
F5
sVadolescency
p2668
F1
sVoffice
p2669
F2
sVconsent
p2670
F9
sVsatisfied
p2671
F2
sVmercifull
p2672
F2
sVtrickes
p2673
F1
sVwesterne
p2674
F1
sVqueanes
p2675
F1
sVintemperate,
p2676
F2
sVconceiue
p2677
F6
sVbefallen
p2678
F1
sVascend,
p2679
F1
sVgoodnesse
p2680
F1
sVhospitall;
p2681
F1
sVhorseback,
p2682
F1
sVwondring
p2683
F1
sVsplit
p2684
F1
sVthen
p2685
F302
sVthem
p2686
F146
sVaffected
p2687
F11
sVtormets,
p2688
F1
sVthee
p2689
F62
sVsafe
p2690
F2
sVwherupon
p2691
F4
sVvnspotted,
p2692
F1
sVyoung.
p2693
F1
sVyoung,
p2694
F1
sVfortunate,
p2695
F5
sVthey
p2696
F361
sVmodest,
p2697
F3
sVcomelinesse
p2698
F2
sVbread
p2699
F2
sVbolted
p2700
F1
sVapparrell,
p2701
F1
sVaffianced
p2702
F1
sVcarrouseth
p2703
F1
sVascends
p2704
F3
sVgracelesse,
p2705
F1
sVrocks
p2706
F2
sVmoneyes
p2707
F3
sVrocke
p2708
F1
sVcloke
p2709
F3
sVasseuerations
p2710
F1
sVcrimes
p2711
F12
sVintoxicateth
p2712
F1
sVmangled
p2713
F1
sVadmit,
p2714
F1
sVdegenerates,
p2715
F1
sVdeflouration,
p2716
F1
sValcasero:
p2717
F1
sVreceyued
p2718
F1
sVrefuge,
p2719
F1
sVenuiting
p2720
F1
sVinteriected
p2721
F1
sVforth
p2722
F7
sVcrime:
p2723
F2
sVcrime;
p2724
F3
sVdancing,
p2725
F1
sVflasheth
p2726
F2
sVdeuillishly
p2727
F2
sVcrime,
p2728
F11
sVayre
p2729
F5
sVcrime.
p2730
F1
sVfixe
p2731
F1
sVhooke,
p2732
F1
sV(an
p2733
F1
sVconsents
p2734
F1
sVtempests,
p2735
F2
sVstranger,
p2736
F2
sVhooke;
p2737
F1
sVoppose
p2738
F1
sVstranger:
p2739
F1
sV(as
p2740
F38
sV(at
p2741
F2
sVhappinesse)
p2742
F1
sVprouide
p2743
F9
sVhappinesse,
p2744
F7
sVsecrecie.
p2745
F1
sVsecrecie,
p2746
F1
sVpreseruation
p2747
F3
sVsecrecie)
p2748
F1
sVhappinesse;
p2749
F3
sVhappinesse:
p2750
F1
sVfears)
p2751
F1
sVblossomed
p2752
F1
sVdelicious
p2753
F4
sVperemptorily,
p2754
F1
sVlawfull
p2755
F1
sVcondole
p2756
F3
sVpouertie.
p2757
F2
sVpower.
p2758
F1
sVpouertie,
p2759
F2
sVpower,
p2760
F4
sVaire
p2761
F3
sVpower)
p2762
F2
sVpuritie
p2763
F3
sVaeus:
p2764
F1
sVimmodest
p2765
F1
sVfeasts,
p2766
F1
sVpouertie:
p2767
F1
sVpouertie;
p2768
F1
sViudges,
p2769
F2
sValas!
p2770
F1
sValonso
p2771
F1
sVvitious,
p2772
F2
sVmagistrates,
p2773
F1
sVgadding
p2774
F1
sVmercy
p2775
F8
sVglorified
p2776
F1
sVrate,
p2777
F2
sVmonarchies
p2778
F1
sVbinds
p2779
F1
sVman-foole
p2780
F1
sVapparantly
p2781
F5
sVsolely
p2782
F4
sVreintegrate
p2783
F2
sVselues;
p2784
F1
sVexercise,
p2785
F2
sVrauenous
p2786
F1
sVmanner
p2787
F14
sVowne.
p2788
F6
sVcontents
p2789
F3
sVout-cries,
p2790
F1
sVstrength
p2791
F3
sVreall
p2792
F3
sVattemptedst
p2793
F1
sVlatter
p2794
F1
sVaptly
p2795
F1
sVrealy
p2796
F1
sVrome
p2797
F2
sViudgement
p2798
F20
sVaccesse
p2799
F1
sVcontent,
p2800
F12
sVhim?
p2801
F1
sVdistraction
p2802
F1
sVsue
p2803
F1
sVprofunditie
p2804
F1
sVtherof:
p2805
F2
sVgermany
p2806
F1
sVcontent;
p2807
F2
sVleueleth
p2808
F1
sVmaides
p2809
F2
sVdisconsolatly
p2810
F1
sVmanifested
p2811
F1
sVhim;
p2812
F42
sVinuite
p2813
F2
sVconuict
p2814
F1
sVpretended
p2815
F4
sVforce,
p2816
F2
sVknows,
p2817
F1
sVaunt
p2818
F7
sVcouetousnesse,
p2819
F1
sVdisturbe
p2820
F2
sVdames
p2821
F1
sVmaruell
p2822
F2
sVhaires,
p2823
F1
sVparracide
p2824
F1
sVtherof)
p2825
F2
sVrighteousnesse,
p2826
F1
sVresemblance
p2827
F1
sVvittry
p2828
F2
sVtriumpheth:
p2829
F1
sVhim,
p2830
F184
sVtriumpheth,
p2831
F1
sVvndertake
p2832
F3
sVroses,
p2833
F2
sVpursuing
p2834
F2
sVhem'd
p2835
F1
sV(fasly)
p2836
F1
sVmanfrelle:
p2837
F1
sVdo
p2838
F3
sVvniuersity
p2839
F1
sVde
p2840
F221
sVreligion,
p2841
F8
sVcardinall
p2842
F1
sVgored
p2843
F1
sVtrauelling
p2844
F1
sVpreferres
p2845
F2
sVforsakes
p2846
F1
sVruns
p2847
F2
sVslaine
p2848
F2
sVprouidently
p2849
F1
sVstead
p2850
F4
sVmultitude
p2851
F1
sVrung
p2852
F1
sVgaue
p2853
F10
sVabhorring
p2854
F1
sVdeuoted
p2855
F3
sVtriumphed
p2856
F2
sVelsewhere,
p2857
F1
sVoffended,
p2858
F1
sVinne
p2859
F1
sVchyrurgion
p2860
F1
sVargentier,
p2861
F1
sVdiscontents
p2862
F5
sVplight
p2863
F1
sVawas
p2864
F1
sVdraws
p2865
F1
sVrequest,
p2866
F3
sVbecause,
p2867
F1
sVaway
p2868
F57
sVgentleman
p2869
F31
sVdrawe
p2870
F4
sVciuilitie)
p2871
F1
sVessentiall,
p2872
F1
sVdeputies
p2873
F2
sVbehold,
p2874
F3
sVwe
p2875
F92
sVdiscontent,
p2876
F2
sVgrounds,
p2877
F1
sVindignitie
p2878
F2
sVterme
p2879
F1
sVseem'd
p2880
F1
sVimaginations,
p2881
F2
sVdistant,
p2882
F1
sVdeuoyd
p2883
F2
sVleonardo.
p2884
F1
sVvillaines,
p2885
F1
sVill
p2886
F4
sVcapon,
p2887
F1
sVmelody.
p2888
F1
sVinnocet
p2889
F1
sVexceeds
p2890
F4
sVrequests
p2891
F6
sVgentlewoman,
p2892
F2
sVhad
p2893
F202
sVdazle
p2894
F1
sVvniuersitie
p2895
F3
sVbeheaded
p2896
F1
sVfroyset
p2897
F1
sVfidelia.
p2898
F2
sVcondemned
p2899
F5
sVexamples,
p2900
F2
sVknowne
p2901
F1
sVmoneths
p2902
F11
sVfidelia:
p2903
F1
sVsorrowes
p2904
F9
sVflexible
p2905
F2
sVthrice
p2906
F3
sVduties
p2907
F2
sVsunne-shine
p2908
F3
sVfamilies
p2909
F1
sVbeastly
p2910
F21
sVcontinency,
p2911
F2
sVwhatsoeuer
p2912
F6
sVsignior
p2913
F6
sVcouetousnesse
p2914
F3
sVoutcries
p2915
F2
sVgentlewomans
p2916
F2
sVgracious
p2917
F1
sVphysician
p2918
F1
sVfayle
p2919
F2
sVpossesse
p2920
F1
sVreioycing
p2921
F3
sVhat
p2922
F2
sVmoneth,
p2923
F1
sVmeates
p2924
F1
sVwretches,
p2925
F2
sVdutie;
p2926
F1
sVloseth
p2927
F1
sVfaith,
p2928
F2
sVdictate
p2929
F1
sVsting
p2930
F1
sVlibertie,
p2931
F1
sVblame,
p2932
F1
sVexile
p2933
F1
sVfact.
p2934
F1
sVdescent
p2935
F1
sVvnfold
p2936
F1
sVauthorise
p2937
F1
sVcentre)
p2938
F1
sVindigence
p2939
F1
sVgrapple
p2940
F1
sVdescend
p2941
F2
sVwarre
p2942
F2
sVoutter
p2943
F1
sValiue.
p2944
F1
sVpalpably
p2945
F1
sVdeceased,
p2946
F2
sVblames
p2947
F1
sVhang
p2948
F4
sVendued
p2949
F1
sVbodyes
p2950
F1
sVhand
p2951
F25
sVingraft
p2952
F1
sValiue:
p2953
F1
sValiue;
p2954
F2
sVfaiths
p2955
F1
sVnip
p2956
F1
sVblamed
p2957
F1
sVpillowes;
p2958
F1
sVprescribed
p2959
F1
sVkept
p2960
F3
sVwhereby
p2961
F2
sVthy
p2962
F217
sVpeacocks
p2963
F1
sVhumble
p2964
F3
sVexclayming,
p2965
F1
sVpriuiledged,
p2966
F1
sVprescribes
p2967
F1
sVhumbly
p2968
F3
sVdrie
p2969
F1
sVthe
p2970
F2431
sVsweare
p2971
F2
sVthanke
p2972
F3
sVclowne,
p2973
F1
sVmay,
p2974
F4
sVwooll-gathering
p2975
F1
sVrepose
p2976
F1
sV(notwithstanding
p2977
F2
sVchessnut
p2978
F1
sVouerfuming
p2979
F1
sVthanks
p2980
F4
sVaelestiana
p2981
F1
sVdetermineth
p2982
F1
sVpoyson
p2983
F23
sVmay:
p2984
F1
sVadding
p2985
F6
sVdeboshed,
p2986
F1
sVzeale
p2987
F16
sVauersnesse:
p2988
F1
sVpermanent,
p2989
F1
sVbelongs
p2990
F2
sVvndertooke
p2991
F1
sVexpelled
p2992
F2
sVgod:
p2993
F3
sVgod;
p2994
F4
sVindigence;
p2995
F1
sVgod)
p2996
F1
sVgod.
p2997
F4
sVgod,
p2998
F24
sVserenitie
p2999
F1
sVcountry,
p3000
F1
sVnight
p3001
F25
sVhill,
p3002
F1
sVdispleasing,
p3003
F1
sVrefused.
p3004
F1
sVwebb
p3005
F1
sVsends
p3006
F28
sVflatter
p3007
F3
sVold;
p3008
F1
sVsixe
p3009
F12
sVbore
p3010
F4
sVvndecency
p3011
F1
sVdenies
p3012
F2
sVcongratulate
p3013
F2
sVeccho,
p3014
F1
sV(together
p3015
F1
sVchastitie
p3016
F7
sVoffences.
p3017
F1
sVstedfastly
p3018
F1
sVhonoured
p3019
F5
sVbeatina
p3020
F1
sVrighteousnesse
p3021
F1
sVwisdome;
p3022
F1
sVdayes
p3023
F32
sVconformation
p3024
F1
sVmine;
p3025
F1
sVhould
p3026
F1
sVecclips
p3027
F2
sVsend,
p3028
F1
sVvnfortunately
p3029
F2
sVengenger
p3030
F1
sVwisdome,
p3031
F4
sVthereby.
p3032
F1
sVdamaske
p3033
F1
sVgraue?
p3034
F2
sVgraue:
p3035
F2
sVtheirs
p3036
F7
sVgraue,
p3037
F10
sVfauour:
p3038
F1
sVgraue.
p3039
F2
sVcherish
p3040
F2
sVpropagate
p3041
F1
sVdenie,
p3042
F2
sVcries:
p3043
F1
sVconsiderations
p3044
F3
sVperuersnesse
p3045
F1
sVtherfrom;
p3046
F1
sVwasting
p3047
F1
sVprofession
p3048
F6
sVdelighted
p3049
F5
sVindigence,
p3050
F2
sVprisoner
p3051
F2
sVsnow,
p3052
F1
sVsnow-
p3053
F1
sVtemporizing,
p3054
F1
sV(when
p3055
F2
sVcries,
p3056
F1
sVcasket,
p3057
F2
sVlewd
p3058
F4
sVasseuerations;
p3059
F1
sVconfessed,
p3060
F2
sVamidst
p3061
F1
sVderiued
p3062
F2
sVsuffice
p3063
F1
sVgarrone:
p3064
F1
sVfight
p3065
F16
sVwhy,
p3066
F4
sVway
p3067
F62
sVpredominance
p3068
F1
sVlimmits
p3069
F1
sVwas
p3070
F239
sVwar
p3071
F1
sVsame;
p3072
F3
sVpay;
p3073
F1
sVprisoner:
p3074
F1
sVdiligence
p3075
F1
sVreliques
p3076
F1
sVprisoner,
p3077
F2
sVsame,
p3078
F2
sVastonished
p3079
F2
sVsteppes,
p3080
F1
sVtrue
p3081
F39
sVconsideration,
p3082
F2
sVabsent
p3083
F2
sVdowry
p3084
F1
sVparisian
p3085
F1
sVgenerosity
p3086
F1
sVgrosse
p3087
F2
sVcontriue
p3088
F1
sVprayed
p3089
F2
sVinfamy,
p3090
F4
sVhotter
p3091
F1
sVvnfortunate,
p3092
F3
sVdalying
p3093
F1
sVexpresse
p3094
F2
sVagents;
p3095
F1
sVreligiously
p3096
F3
sVwretched
p3097
F34
sVguessed
p3098
F1
sVsubsist
p3099
F1
sVpromised
p3100
F1
sVprayes
p3101
F15
sVprayer
p3102
F3
sVbrother,
p3103
F2
sVgiouan
p3104
F1
sVagents,
p3105
F1
sVresolutions:
p3106
F3
sVsoule,
p3107
F27
sVdying
p3108
F2
sVconuersation
p3109
F2
sVbed.
p3110
F2
sVbed,
p3111
F15
sVdesireth
p3112
F1
sVshrine
p3113
F1
sVholding
p3114
F2
sVbed;
p3115
F2
sVbed:
p3116
F3
sVhusbands;
p3117
F1
sVhusbands:
p3118
F2
sVdistribution,
p3119
F1
sVreuenged,
p3120
F2
sVreuenged.
p3121
F1
sVwelcome
p3122
F2
sVxii.
p3123
F1
sVpromise,
p3124
F5
sVpromise.
p3125
F2
sVvictory;
p3126
F1
sVbestowed
p3127
F1
sVpaces
p3128
F1
sVtogether
p3129
F4
sVdeuotion
p3130
F1
sVfact
p3131
F5
sVvnseene,
p3132
F1
sVcuriositie,
p3133
F2
sVwanting
p3134
F1
sVdauncing,
p3135
F3
sValacrity,
p3136
F1
sVsanctified,
p3137
F1
sVextoll
p3138
F1
sVzone
p3139
F1
sVflash
p3140
F1
sVaelestina
p3141
F22
sVhereof
p3142
F2
sVwots
p3143
F1
sVterror
p3144
F1
sVseuerly
p3145
F1
sVhereon
p3146
F1
sVwherfore
p3147
F4
sVgaspe
p3148
F1
sVdisdainefully
p3149
F1
sVtrouble
p3150
F3
sVmargarita
p3151
F1
sVpoyson,
p3152
F6
sVobtayned
p3153
F1
sVpoyson;
p3154
F1
sVpoyson:
p3155
F1
sVsouldier-like
p3156
F1
sVturne
p3157
F4
sVmiserably,
p3158
F1
sVrepents
p3159
F4
sVimportunity
p3160
F3
sVgoalor
p3161
F1
sVcost
p3162
F6
sVmiserably;
p3163
F1
sVperusing
p3164
F1
sVhousholdstuffe;
p3165
F1
sVpreferre
p3166
F4
sVassistance
p3167
F1
sVthereabouts
p3168
F1
sVsafety,
p3169
F4
sVcarrowse
p3170
F1
sVdeserts,
p3171
F1
sVrepent;
p3172
F1
sVlanguedoc
p3173
F2
sVprofesseth:
p3174
F1
sVdeserts)
p3175
F1
sVlanguages,
p3176
F1
sVrepent.
p3177
F1
sVmellifluous
p3178
F1
sVrepent,
p3179
F4
sVmaintenance,
p3180
F2
sVchange
p3181
F4
sVclugny
p3182
F15
sVsending
p3183
F2
sVcontrary:
p3184
F2
sVinfecteth
p3185
F1
sVflames
p3186
F6
sVplotter
p3187
F1
sVindowments,
p3188
F1
sVtippling
p3189
F1
sVhomeward
p3190
F1
sVindustry,
p3191
F2
sVretired
p3192
F1
sVsowre
p3193
F1
sViocond
p3194
F1
sVpraiseth
p3195
F1
sVparagon
p3196
F1
sVgentlemens
p3197
F1
sVretires
p3198
F1
sVcredulity;
p3199
F1
sVtower,
p3200
F1
sVimmediatly
p3201
F5
sVcoynesse
p3202
F1
sVwhereunto
p3203
F7
sVhoure,
p3204
F4
sVconcurres
p3205
F2
sVpietie.
p3206
F1
sVwonderfully
p3207
F1
sVscaffold
p3208
F1
sVsayth
p3209
F1
sVenforced,
p3210
F1
sVdiabolicall,
p3211
F1
sVentrance
p3212
F1
sVcredulity
p3213
F2
sVgentlemen)
p3214
F1
sVrepentance
p3215
F10
sVretire,
p3216
F2
sVgentlemen,
p3217
F1
sVriding
p3218
F7
sVimmured:
p3219
F1
sVfortified
p3220
F1
sVshaddow;
p3221
F1
sVenuy;
p3222
F1
sVsuruiue
p3223
F3
sVcan
p3224
F59
sVslumbering
p3225
F1
sVhoures
p3226
F3
sVneere
p3227
F27
sVheart
p3228
F57
sVdecember
p3229
F1
sVchristina's
p3230
F1
sVburialls,
p3231
F1
sVheare
p3232
F9
sVheard
p3233
F10
sVfortunes
p3234
F2
sVdeerer
p3235
F1
sVserue
p3236
F5
sV-like
p3237
F1
sVobseruant
p3238
F4
sVfuture;
p3239
F1
sVgreeues
p3240
F1
sVdispositions
p3241
F2
sV,,
p3242
F1
sVmeans
p3243
F1
sVbombasted
p3244
F1
sV,)
p3245
F2
sVwrite
p3246
F14
sVpassionate,
p3247
F1
sVrobbery,
p3248
F2
sVornaments,
p3249
F1
sVtherby
p3250
F4
sVweeping,
p3251
F1
sVsacrifice
p3252
F5
sVfortune,
p3253
F4
sVbrazen
p3254
F1
sVproduce
p3255
F7
sVemilia
p3256
F6
sVcrueltie,
p3257
F2
sVflourish
p3258
F1
sVlifting
p3259
F1
sVindifferently
p3260
F1
sVvomited
p3261
F1
sVremember
p3262
F11
sVsolemne
p3263
F2
sVdisposition,
p3264
F1
sVmemory,
p3265
F3
sVgreeue,
p3266
F1
sVperfection
p3267
F2
sVno,
p3268
F3
sVaffirme
p3269
F8
sVwealth,
p3270
F12
sVbreaking
p3271
F3
sVindeed
p3272
F38
sVcounsellor
p3273
F1
sVneigbouring
p3274
F1
sVbewitching
p3275
F1
sVneuer)
p3276
F1
sVended
p3277
F2
sVspurning
p3278
F1
sVwealth:
p3279
F1
sVstayed
p3280
F2
sVno;
p3281
F1
sVcold
p3282
F8
sVstill
p3283
F48
sVantipathy,
p3284
F1
sVbirds
p3285
F1
sVtending
p3286
F2
sVpowerfull,
p3287
F1
sVharuest:
p3288
F1
sVmurthers,
p3289
F5
sVreaping
p3290
F1
sVtheefe)
p3291
F1
sVwindow
p3292
F1
sVaccording
p3293
F10
sVspacious
p3294
F1
sVaffraid
p3295
F1
sVredoubled.
p3296
F1
sVwon.
p3297
F1
sVcorpes
p3298
F1
sVmurthers;
p3299
F1
sVcorrespondence
p3300
F1
sVbarron
p3301
F8
sVspirits)
p3302
F1
sVayme
p3303
F1
sVobedience,
p3304
F2
sVintroduce
p3305
F1
sV(loe)
p3306
F1
sVdigest,
p3307
F1
sVpassionat
p3308
F1
sVhalf
p3309
F1
sVnot
p3310
F544
sVnow
p3311
F202
sVcorrespondency
p3312
F1
sVobedience;
p3313
F1
sVnor
p3314
F94
sVwont
p3315
F1
sVdown
p3316
F2
sV(resembling
p3317
F3
sVshipwracke,
p3318
F3
sVchanced,
p3319
F1
sVdischargeth
p3320
F1
sVvexation
p3321
F2
sVshipwracke:
p3322
F1
sVdelacerated)
p3323
F1
sVprompted
p3324
F2
sVchallenged
p3325
F1
sVperdition:
p3326
F1
sVwardrope,
p3327
F1
sVdirecting
p3328
F1
sVchallenger
p3329
F1
sVsupplant
p3330
F1
sVhappen
p3331
F1
sVperdition,
p3332
F1
sVpills
p3333
F1
sVperdition.
p3334
F1
sVielousie,
p3335
F14
sVcryme)
p3336
F1
sVaccomplish
p3337
F1
sVperfections
p3338
F3
sVspace
p3339
F3
sVsees,
p3340
F2
sVpalace,
p3341
F1
sVthirst
p3342
F4
sVhastily
p3343
F5
sVlooking
p3344
F8
sVielousie:
p3345
F3
sVielousie;
p3346
F1
sVhabilements,
p3347
F1
sVyea,
p3348
F99
sVsubuersion:
p3349
F1
sVfire,
p3350
F1
sVchallenge,
p3351
F2
sVsugar,
p3352
F1
sVmarina
p3353
F1
sVchallenge:
p3354
F2
sVominous
p3355
F1
sVcard
p3356
F2
sVcare
p3357
F24
sVcontemplation
p3358
F1
sVkingdoms
p3359
F1
sVhonest
p3360
F4
sVfetters
p3361
F1
sVkingdome
p3362
F2
sVreported;
p3363
F1
sVperfection,
p3364
F1
sVmillaneses:
p3365
F1
sVwaxe
p3366
F1
sVblind
p3367
F3
sVimpossibly
p3368
F1
sVcomprised
p3369
F1
sVdirectly
p3370
F3
sVimpossible
p3371
F19
sVring
p3372
F2
sVintegritie
p3373
F5
sVchecked
p3374
F1
sVsilent
p3375
F1
sVfields;
p3376
F1
sVbreed
p3377
F1
sVignorant,
p3378
F1
sVignorant.
p3379
F1
sVdeliuer
p3380
F3
sVwest
p3381
F1
sVfriend
p3382
F4
sVduckats
p3383
F1
sVcarriedst
p3384
F1
sVresoundeth
p3385
F1
sVorchyards,
p3386
F1
sVthat
p3387
F891
sVmilder
p3388
F1
sVviolence,
p3389
F3
sVend?
p3390
F1
sVferuently
p3391
F1
sVmankinde,
p3392
F1
sVtherein:
p3393
F1
sVsiluer,
p3394
F1
sVfoggie
p3395
F1
sVexpostulation,
p3396
F1
sVtherein,
p3397
F3
sVtherfore
p3398
F10
sVtranscendant
p3399
F1
sVshee)
p3400
F2
sVexpostulation;
p3401
F1
sVshee,
p3402
F1
sVvarietie
p3403
F3
sVdeedes,
p3404
F1
sVfoote,
p3405
F1
sVremained
p3406
F4
sVexhortations
p3407
F1
sVcaterpillars,
p3408
F1
sVeloquent,
p3409
F1
sVsymptomes,
p3410
F1
sV(and
p3411
F11
sVremaines
p3412
F1
sVgouerned
p3413
F1
sVanger
p3414
F2
sVinsatiable
p3415
F3
sVheeles.
p3416
F1
sVarmed,
p3417
F1
sVdespayre
p3418
F1
sVlaunces
p3419
F1
sVterrifie
p3420
F3
sVerre,
p3421
F1
sVsoeuer
p3422
F4
sVimploy
p3423
F3
sVberne
p3424
F1
sVdespayre,
p3425
F2
sVbegin
p3426
F6
sVcommends,
p3427
F1
sVimpossible;
p3428
F1
sVprice
p3429
F5
sV(conuerted
p3430
F1
sVroquelaure
p3431
F2
sVfauor,
p3432
F1
sVcheeks:
p3433
F1
sVimpossible.
p3434
F1
sVimpossible,
p3435
F3
sVinke,
p3436
F2
sVverball
p3437
F3
sVcoffers;
p3438
F1
sVvnsatiable
p3439
F2
sVthousands,
p3440
F1
sVdispersed
p3441
F2
sVhonour,
p3442
F8
sVrespects:
p3443
F1
sVbracelet,
p3444
F1
sVimmodest,
p3445
F2
sVfifty
p3446
F2
sVpride,
p3447
F1
sVquelled
p3448
F1
sVmaine
p3449
F8
sVrespects,
p3450
F1
sVground
p3451
F4
sVbusily
p3452
F1
sVtitle
p3453
F1
sVsorrowfull:
p3454
F2
sVsaints
p3455
F2
sVmoneth
p3456
F3
sVonly
p3457
F38
sVenriched
p3458
F1
sVresoluing
p3459
F3
sVsorrowfull,
p3460
F7
sVtruly
p3461
F4
sVwhiles
p3462
F20
sVcannot
p3463
F60
sVapparrelling
p3464
F1
sVyard,
p3465
F1
sVhonours
p3466
F2
sVsoeuer,
p3467
F1
sVcelebrate
p3468
F1
sVfriends:
p3469
F2
sVdisolute,
p3470
F1
sVsorrowfully
p3471
F5
sVfriends)
p3472
F1
sVfriends,
p3473
F4
sVcarnall
p3474
F1
sVseene
p3475
F17
sVhusband
p3476
F35
sVpodigality
p3477
F1
sVmiserie
p3478
F1
sVstrictnesse
p3479
F2
sVburst
p3480
F1
sVreputes
p3481
F2
sVhurt.
p3482
F1
sVchayre,
p3483
F1
sVvice-gerents
p3484
F1
sVcounsellour
p3485
F1
sVreputed
p3486
F6
sVcome,
p3487
F2
sVsuspects
p3488
F1
sVleaning
p3489
F1
sVwearing:
p3490
F1
sVcolours
p3491
F1
sVcomplexion
p3492
F5
sVcome:
p3493
F3
sVladie
p3494
F1
sVimport
p3495
F1
sVnotice
p3496
F6
sVblame
p3497
F1
sVcastres
p3498
F1
sVimpiously,
p3499
F1
sVcastiana
p3500
F10
sVthemselues)
p3501
F2
sVthemselues.
p3502
F1
sVthemselues,
p3503
F9
sVtutors
p3504
F1
sVdelict
p3505
F1
sVhypocrisie:
p3506
F1
sVhypocrisie;
p3507
F1
sVcolour,
p3508
F1
sVthemselues:
p3509
F1
sVtrinkets,
p3510
F1
sVcomes
p3511
F18
sVharbouring
p3512
F1
sVpestilent
p3513
F1
sVconuey
p3514
F5
sVdispatch
p3515
F8
sVwound,
p3516
F2
sVlearning
p3517
F2
sVcarowsing
p3518
F1
sVbrats
p3519
F1
sVvsed
p3520
F2
sVlaquayes,
p3521
F2
sVpursute,
p3522
F1
sVpunished
p3523
F3
sVdangers
p3524
F2
sVthreescore
p3525
F2
sVinformes
p3526
F4
sVaphorismes
p3527
F1
sVbrat,
p3528
F1
sVmonsieur
p3529
F16
sVpoysoned,
p3530
F1
sVhaule
p3531
F1
sVwounds
p3532
F6
sVeuidence,
p3533
F1
sVobscuring
p3534
F1
sVfoure
p3535
F11
sVprefixe
p3536
F1
sVroauing
p3537
F1
sVthese
p3538
F130
sVdanger.
p3539
F2
sVballadine
p3540
F1
sVtaffata
p3541
F2
sVcare;
p3542
F1
sVcare,
p3543
F5
sVwinke
p3544
F2
sVimplacable
p3545
F5
sVnoblemans
p3546
F1
sVconsults
p3547
F1
sVequal
p3548
F1
sVembrace
p3549
F4
sVdilitious
p3550
F1
sVcommanded
p3551
F5
sVmatracidious
p3552
F1
sVouer-heard
p3553
F1
sVparacydious
p3554
F1
sVpurse,
p3555
F3
sVprouidence:
p3556
F1
sVgentlemen
p3557
F20
sVfollowers
p3558
F1
sVcharitie
p3559
F8
sVsickenesse,
p3560
F1
sVprouidence,
p3561
F7
sVpure,
p3562
F1
sVnoble
p3563
F16
sVfinish
p3564
F13
sVbodies,
p3565
F7
sVcenturies
p3566
F1
sVprofit,
p3567
F2
sVwringing
p3568
F2
sVanxietie,
p3569
F1
sVnon-sense
p3570
F1
sVfruit
p3571
F1
sVconsult,
p3572
F1
sVincredulous,
p3573
F1
sVnobleman.
p3574
F1
sVworldes
p3575
F1
sVprouided
p3576
F4
sVdeliuers
p3577
F9
sVhanged,
p3578
F3
sVpunishment;
p3579
F1
sVeares,
p3580
F2
sVcomplaines
p3581
F1
sVpittifully
p3582
F2
sVprouides
p3583
F2
sVcharged
p3584
F1
sVenvites
p3585
F1
sVvnkind
p3586
F4
sVam,
p3587
F1
sVproppe,
p3588
F1
sVam:
p3589
F1
sVstorming
p3590
F2
sVimprisoneth
p3591
F1
sVtouch
p3592
F2
sVspeed
p3593
F4
sVliued,
p3594
F1
sVdeath
p3595
F27
sVeither:
p3596
F1
sVthinking
p3597
F19
sVvolubility
p3598
F1
sVeither,
p3599
F1
sVdoubted,
p3600
F2
sVcomplements
p3601
F2
sVmournful
p3602
F1
sVmartyr,
p3603
F1
sVinuiolable
p3604
F1
sVcertaine
p3605
F1
sVread
p3606
F8
sVoffence
p3607
F4
sVwatcheth
p3608
F1
sVadioyning;
p3609
F1
sVearly
p3610
F2
sVearnest
p3611
F2
sVstoole
p3612
F1
sVexecution
p3613
F4
sVentertainment,
p3614
F1
sVfryer
p3615
F1
sVwhoredome,
p3616
F1
sVfortune
p3617
F7
sVimprisoned
p3618
F3
sVfelicitie.
p3619
F1
sVfelicitie,
p3620
F4
sVpayes
p3621
F1
sVwast-coate;
p3622
F1
sVfaigning
p3623
F1
sVthrowen
p3624
F5
sVbenefit
p3625
F1
sVthrowes
p3626
F8
sVwisdome
p3627
F5
sVfelicitie:
p3628
F2
sVfelicitie;
p3629
F1
sVfidelity;
p3630
F1
sVbaretanos
p3631
F1
sVexposed
p3632
F1
sVcredit,
p3633
F2
sVfidelity,
p3634
F1
sVopened:
p3635
F1
sVbusines,
p3636
F2
sVpeace,
p3637
F2
sVpassions
p3638
F8
sVperemptorily
p3639
F5
sVpeace)
p3640
F1
sVpunctually,
p3641
F1
sVperaduenture
p3642
F4
sVreckonings
p3643
F1
sVendeauoreth
p3644
F1
sVthereunto
p3645
F1
sVassembly
p3646
F1
sVknees,
p3647
F3
sVyeares
p3648
F21
sVinnocency
p3649
F1
sVbaretano:
p3650
F3
sVforgiuing
p3651
F1
sVseducing
p3652
F2
sVteares
p3653
F33
sVbaretano,
p3654
F1
sVrigorous
p3655
F1
sVbaretano.
p3656
F2
sVthrow
p3657
F3
sVconceale
p3658
F11
sVadriana:
p3659
F1
sVpiety
p3660
F2
sValighted,
p3661
F1
sVenquiry,
p3662
F1
sVpleased,
p3663
F1
sVcryminall
p3664
F2
sVnecessaries,
p3665
F1
sVboldly
p3666
F1
sVcomely
p3667
F3
sVwold
p3668
F1
sVtestimony
p3669
F4
sVpassion)
p3670
F1
sVcoleagues
p3671
F1
sVeighteene,
p3672
F1
sVpassion,
p3673
F5
sVstratagem
p3674
F1
sVobserued
p3675
F3
sVintermission,
p3676
F2
sVattentiue
p3677
F1
sVverily
p3678
F2
sVsottish
p3679
F2
sVrecouered,
p3680
F1
sVobserues
p3681
F2
sVyour
p3682
F19
sVwhereunto,
p3683
F1
sVprepare
p3684
F6
sVcountrey
p3685
F6
sVeuen
p3686
F3
sVfortunate.
p3687
F1
sVesteemed
p3688
F1
sVdissolute
p3689
F5
sVstealth
p3690
F1
sVsatisfied,
p3691
F2
sVeuer
p3692
F25
sVlawfull,
p3693
F2
sValwayes
p3694
F3
sVleggs,
p3695
F1
sVcrossed,
p3696
F1
sVassumes
p3697
F6
sVmeritorious,
p3698
F1
sVdiuersity
p3699
F1
sVdefaced.
p3700
F1
sVdefaced,
p3701
F1
sVcuriously
p3702
F1
sVdelayes
p3703
F1
sVhottest
p3704
F1
sVassume,
p3705
F1
sVhire
p3706
F2
sVbloody?
p3707
F1
sVbraynes
p3708
F1
sVcooke-maid,
p3709
F1
sVintermission
p3710
F1
sVare,
p3711
F4
sVbeliefe
p3712
F5
sVbloody,
p3713
F6
sVayles
p3714
F1
sVare;
p3715
F1
sVthicke
p3716
F1
sVintents
p3717
F1
sVsalez
p3718
F92
sVworthy,
p3719
F3
sVcommons,
p3720
F1
sVcircumstances,
p3721
F1
sVnobly,
p3722
F1
sVbeyond
p3723
F15
sVfoole
p3724
F5
sVthither
p3725
F6
sVgallantly.
p3726
F1
sVyou
p3727
F8
sVpedro's
p3728
F2
sVgenerall,
p3729
F1
sVperill
p3730
F6
sVremembrance,
p3731
F1
sVintent,
p3732
F1
sVbuilding
p3733
F2
sVhereof:
p3734
F1
sVactor
p3735
F1
sVauthoritie
p3736
F1
sVhereof,
p3737
F5
sVbirths,
p3738
F1
sVdoubted
p3739
F1
sVmourner
p3740
F1
sVintangled
p3741
F3
sVespies
p3742
F1
sVgraues,
p3743
F1
sVminde)
p3744
F1
sVreligious
p3745
F12
sVobsc
p3746
F1
sVbewayle
p3747
F2
sVcontrariwise,
p3748
F2
sVreferring
p3749
F1
sVdeare
p3750
F21
sVsecresie,
p3751
F1
sVimpiety,
p3752
F1
sVvery
p3753
F114
sVhorror
p3754
F1
sVexhibition;
p3755
F1
sVenioying
p3756
F1
sVexhibition,
p3757
F1
sVassembly,
p3758
F1
sVsleeue,
p3759
F1
sVexclaymeth
p3760
F1
sVyeare;
p3761
F1
sVimpatiency,
p3762
F1
sVvanquish
p3763
F1
sVexpectations,
p3764
F1
sVstarue,
p3765
F1
sVanswer:
p3766
F5
sVrepenteth
p3767
F1
sVstreets
p3768
F2
sVanswer,
p3769
F1
sVstarue;
p3770
F1
sVanswer.
p3771
F1
sVexpectations;
p3772
F1
sVlitter,
p3773
F2
sVconscience
p3774
F18
sVmariages
p3775
F1
sVtherof;
p3776
F1
sVaduise
p3777
F8
sVhim:
p3778
F35
sVaffections,
p3779
F8
sVaffections.
p3780
F1
sVinterpose,
p3781
F1
sVwitnesses
p3782
F3
sVaffections;
p3783
F3
sVaffections:
p3784
F2
sVlosse,
p3785
F1
sVtherof,
p3786
F1
sVhim)
p3787
F5
sVcomplotting
p3788
F1
sVlearned
p3789
F1
sVrepugnant
p3790
F4
sVsetled,
p3791
F1
sVimpudent,
p3792
F1
sVstreet:
p3793
F1
sVwil-full
p3794
F1
sVscoffing
p3795
F1
sVloose
p3796
F2
sVanswers
p3797
F2
sVmaurice's
p3798
F1
sVfixed,
p3799
F1
sVpractised,
p3800
F1
sVmalicious;
p3801
F1
sVstreet,
p3802
F3
sVanswere
p3803
F15
sVstrong
p3804
F8
sVtrivmphs
p3805
F5
sVmariage:
p3806
F2
sVmariage;
p3807
F2
sVinspired
p3808
F2
sVsalez.
p3809
F1
sVerronius
p3810
F1
sVamount
p3811
F1
sVcourtezans,
p3812
F1
sVsealing
p3813
F2
sVmariage.
p3814
F2
sVmariage,
p3815
F1
sVsalez:
p3816
F2
sVsith
p3817
F58
sVlurkes
p3818
F3
sVvirgine
p3819
F1
sVimpiety
p3820
F6
sVbrowne,
p3821
F1
sVmerchants
p3822
F1
sVcountreys,
p3823
F1
sVdowager
p3824
F1
sVtakes
p3825
F44
sVamaze
p3826
F1
sVprobabilities
p3827
F1
sVweighes
p3828
F1
sVmorgages,
p3829
F1
sVgodlinesse
p3830
F1
sVvayne)
p3831
F1
sVdissent
p3832
F1
sVtaken
p3833
F13
sVcontaine
p3834
F2
sVbushes
p3835
F2
sVresolutions;
p3836
F2
sVeternall
p3837
F1
sVvirgin,
p3838
F3
sVconcurre
p3839
F2
sVagilitie
p3840
F1
sVresolutions,
p3841
F8
sVirreligious,
p3842
F2
sVmounted
p3843
F2
sVirreligious)
p3844
F1
sVlust
p3845
F9
sViealousie
p3846
F1
sVbereaued
p3847
F1
sVpoysoning,
p3848
F1
sVmodesty,
p3849
F2
sVsentinells
p3850
F1
sVoffended
p3851
F3
sVdeliuered
p3852
F8
sVingraffe
p3853
F1
sVhorses,
p3854
F3
sVhistory
p3855
F25
sVmiserable:
p3856
F3
sVmiserable;
p3857
F2
sVshame,
p3858
F7
sVcomplexion;
p3859
F2
sVfury,
p3860
F3
sVcomplexion?
p3861
F1
sVmiserable.
p3862
F6
sVmiserable,
p3863
F6
sVfuentes
p3864
F1
sVbitternesse
p3865
F2
sVcomplexion,
p3866
F8
sVfirmly
p3867
F1
sVforgiue,
p3868
F1
sVoratory
p3869
F5
sVterribly
p3870
F1
sVclarke
p3871
F4
sVdeodatus
p3872
F1
sVgratiana's
p3873
F9
sVinundation,
p3874
F1
sVcalme
p3875
F2
sVinundation:
p3876
F1
sVlye
p3877
F3
sVcomplexions
p3878
F1
sVobstinate;
p3879
F1
sVtriumphs
p3880
F3
sVcourtesie,
p3881
F1
sVa
F828
sV(thinking
p3882
F2
sVdeluge
p3883
F3
sVstayres,
p3884
F2
sVwoods,
p3885
F1
sVboldly,
p3886
F1
sVfreshnesse
p3887
F1
sVof)
p3888
F1
sVheld
p3889
F8
sVoftner
p3890
F2
sVcommitted
p3891
F9
sVhell
p3892
F13
sVloues,
p3893
F1
sVsurprized
p3894
F1
sVriuer,
p3895
F1
sVriuer.
p3896
F1
sVdisparage:
p3897
F1
sVlabours
p3898
F1
sVfrugality
p3899
F1
sVactually
p3900
F1
sVabsence
p3901
F13
sVprouideence,
p3902
F1
sVsunday,
p3903
F2
sVfiner
p3904
F1
sVperformeth.
p3905
F2
sVpleads
p3906
F2
sVhanged:
p3907
F1
sVye
p3908
F2
sVhanged.
p3909
F3
sVcharitie,
p3910
F2
sVhypocrisie
p3911
F4
sVcharitie)
p3912
F1
sVfoot
p3913
F4
sViudicious
p3914
F1
sVspeechlesse
p3915
F1
sVlabour:
p3916
F1
sVfaire
p3917
F28
sVelder
p3918
F2
sVreferres
p3919
F1
sVfully
p3920
F15
sVdeserue
p3921
F7
sVdid
p3922
F28
sVwhomsoeuer
p3923
F1
sVreprooued,
p3924
F1
sVstopped
p3925
F1
sVvillage,
p3926
F2
sVriuers
p3927
F2
sVreferred
p3928
F1
sVwherwith
p3929
F1
sVexasperated
p3930
F2
sVbethinks
p3931
F2
sVhouse,
p3932
F27
sVhouse:
p3933
F2
sVworthy.
p3934
F1
sVcrosse
p3935
F2
sVsteered
p3936
F1
sVdispatched,
p3937
F2
sVtrusty
p3938
F1
sVpresumptuous
p3939
F1
sVsince
p3940
F13
sVraued
p3941
F1
sVsafety
p3942
F2
sVissue
p3943
F5
sVcloset,
p3944
F2
sVrude
p3945
F1
sVsholdest
p3946
F1
sVreason
p3947
F23
sVbase
p3948
F5
sVconferre
p3949
F3
sVbrightest
p3950
F1
sVput
p3951
F6
sVplace.
p3952
F1
sVsaftie)
p3953
F1
sVpraise-
p3954
F1
sVexecrate
p3955
F1
sVrots,
p3956
F1
sVthoughts,
p3957
F35
sVcoach-man,
p3958
F1
sVexpecting
p3959
F2
sVsympathize,
p3960
F1
sVfayre
p3961
F10
sVsympathize.
p3962
F1
sVsexes,
p3963
F1
sVblush
p3964
F1
sVfiliall
p3965
F2
sVprobability
p3966
F2
sVauthor,
p3967
F1
sVsisters
p3968
F5
sVinterrupted,
p3969
F1
sVbreakes,
p3970
F1
sVquarry
p3971
F1
sVclosely,
p3972
F1
sVhorse
p3973
F10
sVperturbation
p3974
F1
sVsighes;
p3975
F1
sVpoints)
p3976
F1
sVwhoredomes,
p3977
F1
sVobedience
p3978
F11
sVdisparitie
p3979
F2
sVseasoning
p3980
F1
sVaspersion
p3981
F1
sVphisicions
p3982
F1
sVhundred
p3983
F13
sVwhoredomes:
p3984
F1
sVfrancks
p3985
F1
sVvision,
p3986
F1
sVmusicke
p3987
F1
sVdeparts,
p3988
F2
sVbower
p3989
F1
sVdissemble
p3990
F1
sVauthors
p3991
F2
sVflattery
p3992
F1
sVgallowes
p3993
F1
sVgrew
p3994
F2
sVremembred
p3995
F1
sVkindly
p3996
F1
sVlament
p3997
F11
sVmiseries
p3998
F5
sVanticipate
p3999
F2
sVstore
p4000
F3
sVtoward
p4001
F3
sVwithered
p4002
F2
sVpromiseth
p4003
F13
sVbeleeue:
p4004
F1
sVexperience;
p4005
F1
sVhappie
p4006
F2
sVbeleeue,
p4007
F1
sVlynage)
p4008
F1
sVvnsupportable,
p4009
F1
sVflaming
p4010
F2
sVofficers
p4011
F1
sVconcealed,
p4012
F2
sVlabour
p4013
F2
sVlip
p4014
F1
sVapplauded
p4015
F1
sVhearkened
p4016
F1
sVpitie
p4017
F9
sVbeleeues
p4018
F1
sVtowards
p4019
F70
sVquoth
p4020
F18
sVyee,
p4021
F1
sVsentence,
p4022
F2
sVexempted
p4023
F2
sVproues
p4024
F1
sVhired
p4025
F4
sVencrease;
p4026
F1
sVscandalous:
p4027
F1
sVamazeth
p4028
F1
sVhead-springs
p4029
F1
sVsentence:
p4030
F1
sVeyther,
p4031
F1
sVdishonesty,
p4032
F1
sVviciously
p4033
F2
sVayming
p4034
F1
sVindignation.
p4035
F1
sVtincture
p4036
F2
sVdescended,
p4037
F2
sVindignation:
p4038
F1
sVdismall
p4039
F1
sVgaudie,
p4040
F1
sVwith,
p4041
F2
sVpitty,
p4042
F2
sVsacrifice.
p4043
F1
sVfatnesse,
p4044
F1
sVwith;
p4045
F1
sVdebts;
p4046
F2
sVmessengers;
p4047
F1
sVhumilitie
p4048
F3
sVnegatiuely
p4049
F1
sVfeele
p4050
F4
sValbeit
p4051
F6
sVretorts
p4052
F1
sVneuerthelesse
p4053
F2
sVgoodnesse;
p4054
F1
sVtemptation.
p4055
F1
sVtrees
p4056
F1
sVfamous
p4057
F8
sVassaulted
p4058
F4
sVmartingue
p4059
F1
sVgoodnesse.
p4060
F1
sVmarryed
p4061
F1
sVdutie
p4062
F6
sVariued
p4063
F1
sVway,
p4064
F6
sVsacrificed
p4065
F1
sVadhering
p4066
F1
sValteration
p4067
F1
sVfollies,
p4068
F1
sVflight.
p4069
F1
sVbehoofe
p4070
F1
sVchaster
p4071
F1
sVpoisoned
p4072
F1
sVcourteous
p4073
F2
sVyong,
p4074
F2
sVpetitioneth
p4075
F1
sVsurfeiting
p4076
F1
sVmaurice
p4077
F30
sVthrowing
p4078
F3
sVconcurring
p4079
F1
sVformerly,
p4080
F1
sVforgiue
p4081
F8
sVpoore,
p4082
F3
sVclose
p4083
F8
sVranke,
p4084
F2
sVconuenient
p4085
F1
sVranke)
p4086
F1
sVgriefe,
p4087
F17
sVfamiliarity
p4088
F3
sVterrified
p4089
F1
sVappoynt
p4090
F1
sVgriefe;
p4091
F1
sVwon
p4092
F1
sVsecret,
p4093
F1
sVhumor:
p4094
F1
sVconditions
p4095
F1
sVthither;
p4096
F2
sVnotoriously
p4097
F2
sVintending
p4098
F1
sVremooued
p4099
F1
sVcolourable
p4100
F1
sVranked
p4101
F1
sVespy,
p4102
F1
sVboth
p4103
F138
sVcondition,
p4104
F2
sVarbours,
p4105
F1
sVadores
p4106
F2
sVknowest,
p4107
F1
sVsecrets
p4108
F1
sVreformer
p4109
F1
sVanon
p4110
F2
sVforgotten
p4111
F5
sVvault
p4112
F1
sVgriefes
p4113
F1
sVprotector
p4114
F1
sVcapello
p4115
F13
sVextrauagancies
p4116
F1
sVexecutioner
p4117
F3
sVyards;
p4118
F1
sVmanners
p4119
F1
sVshipwracke
p4120
F3
sVhipocriticall
p4121
F1
sVlikes
p4122
F5
sVprophanely
p4123
F1
sVwel
p4124
F3
sVdeliciously,
p4125
F1
sVkisses;
p4126
F1
sVrauings.
p4127
F1
sVchaire,
p4128
F1
sVkisses,
p4129
F12
sVkisses.
p4130
F2
sVcollected
p4131
F1
sVthreaten
p4132
F2
sVdelights
p4133
F3
sVpartly
p4134
F2
sVpacks
p4135
F1
sVhew,
p4136
F1
sVlike,
p4137
F1
sVfuries,
p4138
F3
sVelse
p4139
F4
sVmanner.
p4140
F2
sVmanner,
p4141
F4
sVrecalled
p4142
F1
sVbidding
p4143
F1
sVmanner)
p4144
F1
sVshelues
p4145
F2
sVdelight,
p4146
F8
sVpilgrim
p4147
F1
sVirrigular
p4148
F2
sVpouerty;
p4149
F1
sVbooke,
p4150
F1
sVwhile
p4151
F3
sVmatch
p4152
F11
sVcommisserate
p4153
F1
sVfortifying
p4154
F1
sVanimated
p4155
F3
sVpouerty,
p4156
F1
sVreade
p4157
F2
sVseruant
p4158
F12
sVmiscreants,
p4159
F1
sVfunerall',
p4160
F1
sVtemperat
p4161
F1
sVherein
p4162
F2
sVcaualier
p4163
F1
sVconfound
p4164
F3
sVreads
p4165
F4
sVready
p4166
F18
sVmillaneses
p4167
F2
sVgrant
p4168
F2
sVviciously,
p4169
F1
sVolde;
p4170
F1
sVdined,
p4171
F1
sVvicinitie
p4172
F1
sVincensed,
p4173
F2
sVimpious
p4174
F17
sVshal
p4175
F8
sVbagage,
p4176
F1
sVfaire,
p4177
F5
sVtemporary
p4178
F1
sVlauall,
p4179
F1
sVwanteth
p4180
F1
sVcensure
p4181
F2
sVfaire;
p4182
F2
sVbreathlesse
p4183
F4
sVdecency
p4184
F1
sVfelicity:
p4185
F2
sVfiesco's
p4186
F1
sVrelapsed
p4187
F1
sVcleare
p4188
F3
sVfelicity,
p4189
F4
sVdiscontents:
p4190
F1
sVpistollets
p4191
F1
sVbeares
p4192
F3
sVwise,
p4193
F3
sVheereof,
p4194
F1
sVpistoll,
p4195
F3
sVignoble
p4196
F2
sVdangerous:
p4197
F1
sVdangerous;
p4198
F1
sV(because
p4199
F5
sVdiscontents,
p4200
F4
sVpraying
p4201
F2
sVheereof:
p4202
F1
sVlimbs,
p4203
F1
sVpassable
p4204
F1
sVdecayed
p4205
F3
sVdrosse,
p4206
F1
sVcherries
p4207
F1
sVthroate
p4208
F2
sVcompleat
p4209
F1
sVswordes
p4210
F1
sVmadest
p4211
F1
sVmarch
p4212
F2
sVlasses
p4213
F1
sVvnsheathing
p4214
F1
sVquarter,
p4215
F1
sVdearly
p4216
F1
sVwings
p4217
F3
sVpainted
p4218
F2
sVthroat;
p4219
F1
sVvexations.
p4220
F1
sVresorted
p4221
F1
sVsuitors,
p4222
F1
sVtearmes
p4223
F6
sVthroat,
p4224
F3
sVcauseth
p4225
F9
sVlucretia
p4226
F1
sVtearmed
p4227
F17
sVvowed,
p4228
F1
sVsylla
p4229
F1
sVdomincan
p4230
F1
sVplot,
p4231
F1
sVlast,
p4232
F4
sVfathers
p4233
F40
sVsome
p4234
F84
sVwombe
p4235
F1
sVlake,
p4236
F1
sVbesides,
p4237
F2
sVwisedome,
p4238
F1
sVembarque
p4239
F1
sVexceeding
p4240
F6
sVconditionally
p4241
F1
sVforgets
p4242
F1
sVharmes;
p4243
F1
sVfather;
p4244
F9
sVfather:
p4245
F2
sVrun
p4246
F2
sViudgements,
p4247
F1
sViudgements.
p4248
F1
sVimprison
p4249
F1
sVspectators,
p4250
F1
sVchollerick
p4251
F1
sVpeeuish,
p4252
F1
sVstep
p4253
F3
sVfather,
p4254
F50
sVfather.
p4255
F4
sVplots
p4256
F1
sVlip:
p4257
F1
sVabroad
p4258
F9
sViudgements:
p4259
F1
sVshine
p4260
F3
sVfaith
p4261
F5
sVshewing
p4262
F2
sVsoft
p4263
F1
sVaye
p4264
F1
sVlouely;
p4265
F2
sVdearely.
p4266
F1
sVsilence
p4267
F1
sVseeing
p4268
F39
sVtragicall,
p4269
F1
sVwithin
p4270
F28
sVensue
p4271
F1
sVreioyces
p4272
F1
sVwhore,
p4273
F1
sVworth)
p4274
F1
sVconsultation
p4275
F3
sVhimsele
p4276
F1
sVhimself
p4277
F1
sVsensuality!
p4278
F1
sVtryumph
p4279
F1
sVproperly
p4280
F3
sVnewes
p4281
F21
sVbrook,
p4282
F1
sVwarlike
p4283
F2
sVthrowen.
p4284
F1
sVskull
p4285
F1
sVvasselay's
p4286
F7
sVimmure
p4287
F1
sVaccustomed
p4288
F6
sVvanitie
p4289
F17
sVnecessity,
p4290
F3
sVvse
p4291
F13
sVordered
p4292
F1
sVconditions,
p4293
F2
sVconditions;
p4294
F1
sVemperickes
p4295
F1
sVprofesse
p4296
F4
sVsmile,
p4297
F1
sVenquires
p4298
F2
sVrequire,
p4299
F1
sVsmiling:
p4300
F1
sVcreepes
p4301
F1
sVdashed
p4302
F1
sVbetakes
p4303
F6
sVnap
p4304
F1
sVsmiling,
p4305
F1
sVinglorious
p4306
F1
sVfeare
p4307
F36
sVnay
p4308
F4
sVexcellent,
p4309
F1
sVvnwished
p4310
F2
sVsmiles
p4311
F1
sVdraw
p4312
F19
sVvenerable
p4313
F1
sVspectators
p4314
F2
sVreuealing
p4315
F1
sVsinnes)
p4316
F2
sVwonders,
p4317
F2
sVvisits
p4318
F3
sVdrag
p4319
F3
sVbodies;
p4320
F1
sVreadinesse
p4321
F1
sVvndeserued
p4322
F2
sVempericke:
p4323
F1
sVheate
p4324
F3
sVdepth
p4325
F1
sVstuffes
p4326
F1
sVnight.
p4327
F2
sVbanishing
p4328
F1
sVresistance)
p4329
F1
sVhimselfe:
p4330
F9
sVhimselfe;
p4331
F8
sVproposition
p4332
F1
sVtendeth,
p4333
F1
sVassigned
p4334
F1
sVgo
p4335
F3
sVhimselfe)
p4336
F3
sVhimselfe.
p4337
F4
sVproiect
p4338
F1
sVhimselfe,
p4339
F30
sVcomfort,
p4340
F4
sVmarchant
p4341
F1
sVbaron
p4342
F19
sVtalke
p4343
F2
sVcomfort;
p4344
F1
sVsuite
p4345
F3
sVmore;
p4346
F1
sVvmbragious;
p4347
F1
sVfelicity
p4348
F2
sVmore,
p4349
F11
sVmore.
p4350
F2
sVmore)
p4351
F1
sVtree,
p4352
F1
sVpositions
p4353
F1
sVcrowes
p4354
F1
sVattire,
p4355
F4
sVdescended)
p4356
F2
sVbetwixt
p4357
F29
sVenforce
p4358
F2
sVioyne
p4359
F2
sVgrauelle
p4360
F1
sVthence,
p4361
F2
sVthence.
p4362
F1
sVwaking
p4363
F1
sVsecrecy;
p4364
F1
sVnotwithstanding
p4365
F7
sVsharpe;
p4366
F1
sVterrour
p4367
F1
sVcomming:
p4368
F1
sVgoalor,
p4369
F1
sVrotten
p4370
F2
sV;
F101
sVcomming,
p4371
F1
sVcomming.
p4372
F2
sVdebts,
p4373
F5
sVmontefiore
p4374
F2
sVconceited
p4375
F1
sVgenerous,
p4376
F2
sVsaphyrs
p4377
F1
sVhaunts
p4378
F1
sVcontemning
p4379
F2
sVvanities,
p4380
F1
sVloue.
p4381
F1
sVloue,
p4382
F15
sVforesee
p4383
F1
sVdanger
p4384
F4
sVattempting
p4385
F2
sVmanage
p4386
F2
sVclara
p4387
F65
sVdistinguish;
p4388
F1
sVwit
p4389
F5
sVloue:
p4390
F1
sVloue;
p4391
F2
sVvilette
p4392
F2
sVsinging
p4393
F1
sVvntill
p4394
F1
sVmee,
p4395
F3
sVmee.
p4396
F1
sVbaretano's
p4397
F16
sVthorow,
p4398
F2
sVinciuilitie
p4399
F1
sVlawe,
p4400
F1
sVvrgent,
p4401
F2
sVtherat,
p4402
F1
sVmee;
p4403
F1
sVmee:
p4404
F4
sVagreeable
p4405
F1
sVbrundusium
p4406
F2
sVremaine
p4407
F3
sVbroath,
p4408
F1
sVpurenesse
p4409
F3
sVbecomes
p4410
F2
sVloued
p4411
F8
sVconfused
p4412
F1
sVagent
p4413
F3
sVpriuiledge
p4414
F1
sVgreenest
p4415
F1
sVlouer
p4416
F3
sVappointed
p4417
F2
sVdrawes
p4418
F4
sVcrosses
p4419
F2
sVride
p4420
F6
sVridd
p4421
F1
sVlawes
p4422
F5
sVirreparable
p4423
F1
sVlouers
p4424
F2
sVdoe)
p4425
F1
sVmeet
p4426
F5
sVre-establish
p4427
F1
sVglaunced
p4428
F1
sVadmires
p4429
F3
sVcourages
p4430
F1
sVanswerable,
p4431
F1
sVafflictions,
p4432
F4
sVafflictions.
p4433
F1
sVescaped
p4434
F4
sVpulling
p4435
F1
sVharmelesse
p4436
F11
sVsought
p4437
F9
sVafflictions:
p4438
F1
sVfoule,
p4439
F1
sViesus
p4440
F1
sVcontrouerted
p4441
F1
sVphysicions
p4442
F1
sVrents,
p4443
F1
sVverified
p4444
F4
sVpray,
p4445
F2
sVdespaire
p4446
F2
sVblessings
p4447
F5
sVingrateful
p4448
F1
sVfickle,
p4449
F1
sVpray;
p4450
F1
sVpray:
p4451
F1
sVspeech,
p4452
F3
sVfare
p4453
F1
sVsun-shine
p4454
F1
sVentred
p4455
F2
sVfuriously
p4456
F3
sVfouler
p4457
F1
sVchiefe
p4458
F3
sVsaith,
p4459
F1
sVcanker
p4460
F2
sVimparted
p4461
F2
sVcourage,
p4462
F7
sVgulph
p4463
F2
sVobdurated
p4464
F1
sVpresumptuously
p4465
F1
sVambassadours
p4466
F1
sVpublique
p4467
F1
sVhand,
p4468
F16
sVmountbanckes
p4469
F1
sVhand)
p4470
F1
sVrebellious
p4471
F5
sVoffences
p4472
F1
sVduring
p4473
F3
sVsweet:
p4474
F1
sVinfidelitie
p4475
F2
sVwayting
p4476
F6
sVtruest,
p4477
F1
sVshewen
p4478
F2
sVthence
p4479
F4
sVlanes,
p4480
F1
sVmaster:
p4481
F2
sVbrook
p4482
F1
sVmaster)
p4483
F3
sVshewes
p4484
F7
sVmaster,
p4485
F20
sVcontemns
p4486
F1
sVpure
p4487
F6
sVsweete
p4488
F5
sVresolueth
p4489
F1
sVoffence,
p4490
F1
sVpriuate
p4491
F1
sVcontemne
p4492
F3
sVhands
p4493
F17
sVoffence;
p4494
F1
sVvineyards;
p4495
F2
sVmasters
p4496
F16
sVwherevpon
p4497
F1
sVrennee
p4498
F1
sVlearnedst
p4499
F1
sVconueniency
p4500
F1
sVcrossing
p4501
F3
sVdisobedience,
p4502
F4
sVwretched,
p4503
F2
sVesteem
p4504
F1
sVprinces,
p4505
F1
sV(the
p4506
F8
sVhunting,
p4507
F1
sVflye
p4508
F1
sVwine;
p4509
F3
sVmeasure
p4510
F2
sVseparating
p4511
F1
sVgraced,
p4512
F1
sVgallant
p4513
F5
sVsecretly
p4514
F15
sVadioyning
p4515
F1
sVtime:
p4516
F1
sVentertainment
p4517
F1
sVborowed
p4518
F1
sVtime,
p4519
F27
sVstrokes
p4520
F1
sVtime)
p4521
F2
sVcrook-backt,
p4522
F2
sVlands.
p4523
F1
sVcause
p4524
F32
sVdispenced
p4525
F1
sVprosperous,
p4526
F1
sVvnpunished.
p4527
F1
sVattending
p4528
F5
sVill,
p4529
F1
sVnipt,
p4530
F1
sVprosperous:
p4531
F1
sVvnpunished;
p4532
F1
sVgrones
p4533
F1
sVdrowning
p4534
F4
sVpenknife
p4535
F1
sVdetermining
p4536
F1
sVtimes
p4537
F34
sVfoolishly)
p4538
F1
sVreioyced,
p4539
F1
sVbusines
p4540
F1
sVloue,)
p4541
F1
sVvnworthy
p4542
F3
sVincarnate
p4543
F1
sVyong
p4544
F11
sVpowerful
p4545
F1
sVhagge,
p4546
F1
sVpygmey
p4547
F1
sVgloried
p4548
F1
sVdrinkes
p4549
F1
sVquality
p4550
F2
sVpities
p4551
F1
sVwatermen
p4552
F1
sVbe,
p4553
F4
sVweakenesse
p4554
F1
sVwiddower,
p4555
F1
sVadopted
p4556
F1
sVbe:
p4557
F1
sVbe;
p4558
F1
sVbe?
p4559
F1
sVrare,
p4560
F1
sVioyfull
p4561
F3
sVieasted
p4562
F1
sVperfectly
p4563
F2
sVbeare
p4564
F14
sVbeard
p4565
F1
sVpitie,
p4566
F4
sVpitie.
p4567
F1
sVdrinke.
p4568
F1
sVembleming
p4569
F1
sVpunish
p4570
F7
sVexactly
p4571
F1
sVvnkindly
p4572
F1
sVpitie:
p4573
F1
sVbaretano
p4574
F89
sVcymment
p4575
F1
sVglorie,
p4576
F1
sVplausible
p4577
F1
sVburnt.
p4578
F1
sVpublicke,
p4579
F1
sVgirdle
p4580
F1
sVbeg
p4581
F1
sVbed
p4582
F6
sVbee
p4583
F94
sVrelation,
p4584
F1
sVrelation.
p4585
F1
sVburnt;
p4586
F1
sVburnt:
p4587
F1
sVbare
p4588
F1
sVpleasing,
p4589
F1
sVdistinguished
p4590
F1
sVenforced
p4591
F9
sVtincture,
p4592
F1
sVvillaine
p4593
F6
sVtorment
p4594
F4
sVneed
p4595
F3
sVconstrained
p4596
F2
sVsings
p4597
F1
sVable
p4598
F5
sViudgement,
p4599
F9
sVinstance
p4600
F1
sViudgement.
p4601
F2
sVbutcherly
p4602
F1
sVgrounding
p4603
F2
sVwitches,
p4604
F1
sVsimplicitie)
p4605
F1
sVforwardnesse
p4606
F1
sVsimplicitie,
p4607
F2
sVsimplicitie.
p4608
F1
sVgratefull
p4609
F1
sVlectures
p4610
F1
sVpassionately
p4611
F1
sVchildren:
p4612
F2
sVhorror,
p4613
F2
sVvengeance
p4614
F4
sVassurance;
p4615
F2
sVlearnt
p4616
F1
sVduell
p4617
F1
sVgallery
p4618
F1
sVprobable
p4619
F1
sVfilthily
p4620
F1
sViudgements
p4621
F5
sVpertinently
p4622
F2
sVbedewes
p4623
F2
sVhastie
p4624
F1
sVdeface
p4625
F6
sVvoluptuousnesse:
p4626
F1
sVraysing
p4627
F1
sVextreames
p4628
F2
sVtryed
p4629
F2
sVletter.
p4630
F2
sVpasse
p4631
F16
sV(whose
p4632
F1
sVconceiues,
p4633
F1
sVinherites
p4634
F1
sVabettor
p4635
F1
sVmonteleone:
p4636
F1
sVinseperably
p4637
F1
sVtune,
p4638
F1
sV(
F2
sVsoone;
p4639
F1
sVrash
p4640
F5
sVbud
p4641
F1
sVaduertised,
p4642
F2
sVattained
p4643
F1
sVpetticote,
p4644
F2
sVmortality
p4645
F1
sVgeneua
p4646
F1
sVdoubting
p4647
F2
sVequiuocating
p4648
F1
sVrauish
p4649
F1
sVimpaciency
p4650
F1
sVextreame,
p4651
F1
sVwolues
p4652
F1
sVamazement,
p4653
F1
sVbuyes
p4654
F2
sVleases
p4655
F1
sVparke,
p4656
F4
sVimpietie:
p4657
F1
sVeuphemias
p4658
F1
sVgray
p4659
F1
sVseuere
p4660
F4
sVhad,
p4661
F2
sVimperious
p4662
F2
sVhouses,
p4663
F3
sVshe
p4664
F432
sVfore-
p4665
F1
sVdishonour,
p4666
F2
sVtunes
p4667
F1
sVmannage
p4668
F1
sVwidow
p4669
F2
sVferuency
p4670
F3
sVprayers
p4671
F5
sVdearer,
p4672
F1
sVcuts
p4673
F5
sVstrumpet,
p4674
F8
sVaccused
p4675
F3
sVstrumpet;
p4676
F1
sVstrumpet:
p4677
F1
sVhumane
p4678
F6
sVdiscrased
p4679
F1
sVinfinitely.
p4680
F1
sVmind;
p4681
F1
sVstudy,
p4682
F2
sVhospitalitie,
p4683
F1
sVaccusations,
p4684
F1
sVtend
p4685
F2
sVmind,
p4686
F5
sVstate
p4687
F2
sVtosses
p4688
F1
sVhorrible
p4689
F4
sVneither
p4690
F49
sVpanicke
p4691
F1
sV(though
p4692
F12
sVepithites:
p4693
F1
sVcomparable
p4694
F1
sVsolitary
p4695
F2
sVimportance
p4696
F2
sVpilgrime
p4697
F2
sVdelectation,
p4698
F2
sVextolling
p4699
F1
sVkey
p4700
F3
sVimpolished
p4701
F1
sVdelectation:
p4702
F1
sVdelectation;
p4703
F1
sVentertainement
p4704
F1
sVlearne
p4705
F2
sVsericants
p4706
F1
sVlimits
p4707
F1
sVbetaking
p4708
F1
sVadmit
p4709
F1
sVvnderstand
p4710
F5
sVsteeds,
p4711
F1
sVminde
p4712
F1
sVproclamed
p4713
F1
sVfeares,
p4714
F4
sVspewed
p4715
F1
sVafter:
p4716
F1
sViudge
p4717
F3
sVsoly
p4718
F1
sVcommet
p4719
F1
sVinuent,
p4720
F1
sVbetrayed
p4721
F2
sVfeares;
p4722
F1
sVtogether,
p4723
F2
sVkings
p4724
F4
sVcyment
p4725
F1
sVsense,
p4726
F1
sVshoulder,
p4727
F1
sVsense.
p4728
F1
sVaccomplishing
p4729
F2
sVtread
p4730
F1
sVmaid
p4731
F2
sVtragedy.
p4732
F1
sVwills
p4733
F2
sVthanked
p4734
F2
sVintire
p4735
F3
sVthankes
p4736
F2
sVtruer,
p4737
F2
sVtragedy;
p4738
F1
sVarmies,
p4739
F1
sVsenses
p4740
F2
sVking,
p4741
F1
sVilluminated,
p4742
F1
sVcogitations
p4743
F1
sVinuents
p4744
F1
sVgermanes
p4745
F1
sVauoyded
p4746
F1
sVowne
p4747
F67
sVdebtor
p4748
F1
sVwill:
p4749
F3
sVwithdrawes
p4750
F3
sVslept
p4751
F1
sVhalter,
p4752
F1
sVcoward.
p4753
F1
sVcoward,
p4754
F1
sVriper
p4755
F1
sVwill,
p4756
F8
sVwill.
p4757
F2
sVdeuillish
p4758
F7
sVcomplements,
p4759
F1
sVbraines
p4760
F3
sVrenewes,
p4761
F1
sVhalles
p4762
F1
sVscourge,
p4763
F1
sVresident
p4764
F2
sVpreserue
p4765
F5
sVchristian:
p4766
F1
sVtriuially
p4767
F2
sV(againe)
p4768
F1
sVappearance,
p4769
F2
sVclaps
p4770
F3
sVfayling
p4771
F1
sVclapt
p4772
F1
sVvexe
p4773
F1
sVwhoredoms.
p4774
F1
sVrefetch
p4775
F4
sVyeres
p4776
F3
sVmaurice:
p4777
F1
sVparts
p4778
F6
sVspeakes
p4779
F3
sVnotwithstanding,
p4780
F4
sVinraged,
p4781
F2
sVnotwithstanding)
p4782
F1
sVsince,
p4783
F1
sVrepaires,
p4784
F1
sVeffect
p4785
F17
sVdestruction
p4786
F1
sVdrowne
p4787
F10
sVthose,
p4788
F3
sVpleaseth:
p4789
F1
sVi
F231
sVpart)
p4790
F2
sVspeake,
p4791
F2
sVvariety
p4792
F1
sVpart,
p4793
F6
sVpart.
p4794
F3
sVextream
p4795
F1
sVdisolute
p4796
F2
sVnarbone
p4797
F1
sVforfeited,
p4798
F1
sVrestore
p4799
F2
sVlustfully
p4800
F2
sVinsinuating
p4801
F3
sVmerits:
p4802
F1
sVmistaken
p4803
F1
sVcondemned,
p4804
F2
sVdistant
p4805
F4
sVmerits)
p4806
F1
sVskill
p4807
F2
sVvasselay.
p4808
F3
sVlaughture,
p4809
F1
sVdost
p4810
F1
sVreckoning
p4811
F1
sVstepdame)
p4812
F1
sVdeuour,
p4813
F1
sVhung,
p4814
F1
sVknowing,
p4815
F2
sVreueiled
p4816
F1
sVgudgin,
p4817
F1
sVought
p4818
F5
sVwarrant
p4819
F3
sVdelighted;
p4820
F1
sVbottome
p4821
F1
sVvasselays
p4822
F2
sVlouingly
p4823
F1
sVdiuines
p4824
F4
sVdirefull
p4825
F1
sVfidelia's
p4826
F3
sVhistorie
p4827
F2
sVimmediately
p4828
F4
sVnecessary
p4829
F1
sVprofesseth
p4830
F1
sVlost
p4831
F7
sVkill'd
p4832
F2
sVrots
p4833
F1
sVextend,
p4834
F1
sVlure:
p4835
F1
sVconuersing,
p4836
F1
sVstarre
p4837
F1
sVtraytour
p4838
F1
sVlose
p4839
F5
sVlure,
p4840
F1
sVpage
p4841
F1
sVtherein
p4842
F12
sVshee
p4843
F244
sVwherunto
p4844
F1
sVoh!
p4845
F1
sVpresents,
p4846
F2
sVshew
p4847
F21
sVfingers,
p4848
F1
sVhome
p4849
F18
sVguiltie,
p4850
F1
sVstake,
p4851
F1
sVfanne
p4852
F1
sVbefore.
p4853
F2
sVbefore)
p4854
F2
sVsolicits
p4855
F1
sVfiftie
p4856
F2
sVsolicite
p4857
F2
sVhinder
p4858
F2
sVbraine:
p4859
F1
sVshe,
p4860
F8
sVsinnefull
p4861
F2
sVmotiues
p4862
F1
sVshe)
p4863
F1
sVwayting-gentlewoman,
p4864
F1
sVinstinct
p4865
F2
sVsunnes,
p4866
F1
sVimmortality:
p4867
F1
sVrefuge
p4868
F3
sVcataracts
p4869
F1
sVdiuellish
p4870
F1
sVmatron,
p4871
F1
sVremooue
p4872
F2
sVsinister
p4873
F2
sVatracts,
p4874
F1
sVvshered
p4875
F1
sVdelicacies
p4876
F1
sVmatron:
p4877
F1
sVincertaine,
p4878
F1
sVtongue
p4879
F5
sVobduratest
p4880
F1
sVequally
p4881
F1
sVpistols
p4882
F1
sVcourt,
p4883
F2
sVcourt.
p4884
F2
sVcourt)
p4885
F1
sVtimes,
p4886
F1
sVpetitions,
p4887
F1
sVfighting,
p4888
F4
sVdrowning.
p4889
F1
sVpistoll
p4890
F4
sVtabernacle
p4891
F1
sVprognosticate,
p4892
F1
sVcourt:
p4893
F1
sVcups;
p4894
F1
sVimpatience
p4895
F1
sVinconstancy
p4896
F2
sVweeps
p4897
F1
sVassociates,
p4898
F1
sVcups,
p4899
F1
sVinner
p4900
F1
sVequall;
p4901
F1
sVeffects;
p4902
F1
sVtreacherous
p4903
F8
sVrioted
p4904
F1
sVblaming
p4905
F1
sVeffects,
p4906
F2
sVho
p4907
F1
sVordinances
p4908
F1
sVhighest
p4909
F3
sVpilles
p4910
F1
sVclara:
p4911
F4
sVeyes:
p4912
F3
sVprotector,
p4913
F1
sVclara,
p4914
F1
sVcarriage
p4915
F3
sVclara.
p4916
F2
sVsignes
p4917
F4
sVreuoke,
p4918
F1
sVeyes,
p4919
F14
sVdisplay
p4920
F1
sVdrawes,
p4921
F1
sVfriend.
p4922
F1
sVfriend,
p4923
F3
sVaffectionate
p4924
F3
sVbottles)
p4925
F1
sVkisses
p4926
F3
sVindiscretion,
p4927
F2
sVfriend:
p4928
F1
sVpenne
p4929
F1
sVmanner:
p4930
F2
sVprodigality
p4931
F2
sVredeeme
p4932
F5
sVarriuall
p4933
F2
sVcontest
p4934
F1
sV'twixt
p4935
F1
sVdisasters
p4936
F1
sVaverre
p4937
F1
sVgermaine
p4938
F1
sVdissolue
p4939
F1
sVdigesteth
p4940
F1
sVperuerse
p4941
F2
sVkisse:
p4942
F1
sVinclining,
p4943
F1
sVflinty
p4944
F1
sVsearched
p4945
F1
sVstay
p4946
F8
sVkisse,
p4947
F1
sVstab
p4948
F1
sVyours;
p4949
F1
sVdeter
p4950
F1
sVfriends
p4951
F13
sVatheist
p4952
F1
sVdepaint
p4953
F2
sVlustfull,
p4954
F1
sVfunerall,
p4955
F1
sVpardon
p4956
F12
sVbetter,
p4957
F2
sVimpayled
p4958
F1
sVpowders
p4959
F1
sVpart.)
p4960
F1
sVconsists
p4961
F1
sVcaptain
p4962
F2
sV(which
p4963
F15
sVbetter;
p4964
F1
sVbetter:
p4965
F1
sVwhose
p4966
F31
sVgrace,
p4967
F5
sVfrange
p4968
F48
sVaud
p4969
F1
sVbrittaine,
p4970
F1
sVpardon.
p4971
F2
sVswan
p4972
F1
sVsweetest
p4973
F2
sVseriously
p4974
F2
sVansweres,
p4975
F2
sVodious,
p4976
F4
sVbayt
p4977
F1
sVgrace;
p4978
F1
sVskill,
p4979
F1
sVreforme
p4980
F4
sVtenent
p4981
F1
sVpractique
p4982
F1
sVcompassion,
p4983
F3
sVleonardo's
p4984
F1
sVhadst
p4985
F4
sVauerse
p4986
F2
sVsubtilty,
p4987
F2
sVaffect
p4988
F22
sVvast
p4989
F1
sVlook
p4990
F1
sVinclined,
p4991
F1
sVgraced
p4992
F1
sVcompanies
p4993
F1
sVpresent,
p4994
F4
sVrefraine
p4995
F11
sVpresent:
p4996
F1
sVdeplorable
p4997
F5
sVgraces
p4998
F2
sVclothes
p4999
F2
sVforce
p5000
F1
sVwherby
p5001
F1
sVstrikes
p5002
F1
sVlustre
p5003
F4
sVme.
p5004
F1
sVlikely
p5005
F3
sVme;
p5006
F2
sVdeplorable,
p5007
F2
sVpander
p5008
F1
sVrest:
p5009
F2
sVdisdained,
p5010
F1
sVdesirous
p5011
F8
sVgold)
p5012
F2
sVvintage,
p5013
F2
sVgold,
p5014
F7
sVrest,
p5015
F2
sVnew
p5016
F17
sVtips
p5017
F1
sVbills,
p5018
F1
sVreuealed
p5019
F5
sVmee
p5020
F23
sVdeemed
p5021
F1
sVdelight;
p5022
F1
sVmen
p5023
F15
sVdrew
p5024
F5
sVmet
p5025
F5
sVequiualent;
p5026
F1
sVshowers,
p5027
F1
sVtearme
p5028
F7
sVinnocency,
p5029
F6
sVcurbe
p5030
F1
sVapprehended,
p5031
F4
sVinnocency)
p5032
F1
sVgolde
p5033
F2
sVdeaths,
p5034
F1
sVtyred,
p5035
F1
sVpiercing
p5036
F1
sVprison:
p5037
F2
sVbeauty:
p5038
F1
sVconiures
p5039
F1
sVcredit
p5040
F2
sVshew)
p5041
F1
sVpermit
p5042
F13
sVprison,
p5043
F12
sVimmoderate,
p5044
F1
sVdeaths;
p5045
F3
sVdrownes
p5046
F2
sVeternall,
p5047
F1
sVfix
p5048
F1
sValcasero
p5049
F42
sVshelter,
p5050
F1
sVvnknowne
p5051
F1
sVsusanna
p5052
F2
sVheeles
p5053
F3
sVdrowned
p5054
F6
sVaffirming
p5055
F1
sVtels
p5056
F3
sVcough
p5057
F1
sVspaniards
p5058
F2
sVneighbours
p5059
F5
sVtrot;
p5060
F1
sVcall
p5061
F6
sVintreats
p5062
F1
sVarme
p5063
F6
sVcriminall
p5064
F2
sVtell
p5065
F5
sVby-wayes,
p5066
F1
sVpeeping
p5067
F1
sVvseth
p5068
F2
sVmeere
p5069
F7
sVbewray
p5070
F2
sVeternally
p5071
F1
sVnobilitie
p5072
F3
sVbeliefe,
p5073
F1
sVhereat:
p5074
F1
sVconniuency,
p5075
F1
sVknowne,
p5076
F1
sVroot
p5077
F5
sVhagg,
p5078
F1
sVpoynts
p5079
F1
sVbondage,
p5080
F1
sVassemble;
p5081
F1
sVcold;
p5082
F1
sVsolemnely
p5083
F1
sVexercises,
p5084
F2
sVdegenerate
p5085
F2
sVinflamed,
p5086
F1
sVinhumanely
p5087
F3
sVsweares
p5088
F7
sVinfancy,
p5089
F1
sVvanquished
p5090
F3
sVspreading
p5091
F2
sVenormious
p5092
F1
sVfaults
p5093
F2
sVsate
p5094
F3
sVsixteene,
p5095
F1
sVanswer
p5096
F5
sVinfinitly
p5097
F2
sVcouragious,
p5098
F1
sVfauourable
p5099
F2
sVleasure
p5100
F1
sVvncloth
p5101
F1
sVteares;
p5102
F7
sVreconciled
p5103
F1
sVvicious
p5104
F1
sVslumber,
p5105
F1
sVcuriosity
p5106
F5
sVpresident
p5107
F16
sVhereon,
p5108
F1
sValbeit,
p5109
F1
sVpurchase
p5110
F4
sVexecrable
p5111
F43
sVattempt
p5112
F14
sVthird
p5113
F8
sVdescends
p5114
F1
sVassuredly
p5115
F12
sVdefaced
p5116
F2
sVoperate
p5117
F2
sVensigne
p5118
F1
sVafter-noone
p5119
F1
sVexecrably
p5120
F1
sVhat,
p5121
F3
sVdeterminate
p5122
F1
sVperplexity:
p5123
F1
sVrobery,
p5124
F1
sVpetitioners
p5125
F1
sVbefall
p5126
F7
sVvndetected
p5127
F1
sVfumes,
p5128
F1
sVbefore
p5129
F76
sVdaunce
p5130
F1
sVfoole;
p5131
F1
sVthen,
p5132
F1
sVbegge
p5133
F1
sVprotaction,
p5134
F1
sV,
F1005
sVterrour,
p5135
F1
sVbetter
p5136
F42
sVweighed
p5137
F2
sVhester
p5138
F3
sVdifferently
p5139
F1
sVcrie
p5140
F3
sVleane)
p5141
F1
sVpoorely
p5142
F1
sVconfidently
p5143
F3
sVsimplicitie
p5144
F1
sVboale,
p5145
F1
sVsoleure,
p5146
F1
sVshe-deuill
p5147
F1
sVfinite;
p5148
F1
sVwithin,
p5149
F1
sVrunne
p5150
F9
sVbut,
p5151
F2
sVargentier
p5152
F20
sVleanes
p5153
F1
sVinioy
p5154
F1
sVgrammar
p5155
F1
sVmercy;
p5156
F1
sVcouncellors,
p5157
F1
sVpauia:
p5158
F1
sVbryers,
p5159
F1
sVterrours
p5160
F1
sVvictories
p5161
F1
sVconflict
p5162
F1
sVwent
p5163
F3
sVside
p5164
F4
sViurisdiction
p5165
F2
sVbond
p5166
F1
sVinherite
p5167
F1
sVprinciples
p5168
F1
sVprodigality,
p5169
F2
sVreiecting
p5170
F1
sVmilan
p5171
F6
sVtaught
p5172
F4
sVstealing
p5173
F2
sViealousie,
p5174
F3
sVconspicuous)
p5175
F1
sVvsurer,
p5176
F1
sVcontend
p5177
F2
sVdeboshed
p5178
F10
sVinferiour
p5179
F1
sVtales
p5180
F1
sVcraues
p5181
F1
sVconiuring
p5182
F1
sVcontent
p5183
F32
sVis)
p5184
F2
sVprofession,
p5185
F5
sVreades
p5186
F5
sVis,
p5187
F15
sVsurprisd
p5188
F1
sVsurprise
p5189
F5
sVroundly,
p5190
F1
sVexpired,
p5191
F5
sVturning
p5192
F1
sViealousies
p5193
F1
sVhowre
p5194
F1
sVrevenge
p5195
F5
sVascending
p5196
F2
sVskin,
p5197
F1
sVbestow
p5198
F1
sVstayes,
p5199
F1
sVproduceth
p5200
F2
sVweepes,
p5201
F1
sVdeeme
p5202
F2
sVstarts
p5203
F1
sVstagge
p5204
F1
sVredresse.
p5205
F2
sVmankind,
p5206
F1
sVredresse,
p5207
F1
sVbegan;
p5208
F1
sVpoysoneth
p5209
F1
sVsatan,
p5210
F1
sVsoueraigne
p5211
F7
sVloud
p5212
F1
sVloue
p5213
F70
sVsugred
p5214
F6
sVreade:
p5215
F1
sVenraged
p5216
F1
sVwronged
p5217
F3
sVthereon
p5218
F2
sVliues?
p5219
F1
sVthereof
p5220
F26
sVrequisit,
p5221
F1
sVliues,
p5222
F6
sVliues.
p5223
F2
sVhood
p5224
F1
sVdwelt
p5225
F5
sVwants,
p5226
F1
sVacquaint
p5227
F6
sVcruell;
p5228
F2
sVcruell,
p5229
F9
sVvasselayes
p5230
F1
sVcruell)
p5231
F1
sVrashnes,
p5232
F1
sVsolemnly
p5233
F1
sVimagine,
p5234
F2
sVlustre,
p5235
F1
sVexecution;
p5236
F2
sVmysterie
p5237
F2
sVacknowledgeth
p5238
F1
sVrepentant,
p5239
F2
sVexecution,
p5240
F4
sVsomewhat
p5241
F6
sVrequisite
p5242
F3
sVbegins
p5243
F7
sV(withall)
p5244
F2
sVbody,
p5245
F22
sVsoonest
p5246
F1
sVrespectfull
p5247
F1
sVpreparation
p5248
F1
sVmurthering
p5249
F21
sVbody;
p5250
F5
sVbody:
p5251
F2
sVbody?
p5252
F1
sVespouse
p5253
F1
sVforesaid
p5254
F1
sVvncouth
p5255
F1
sVmesdamoyselles
p5256
F1
sVsees
p5257
F24
sVquench
p5258
F10
sVcontemptible:
p5259
F1
sVmought
p5260
F1
sVprosperitie;
p5261
F1
sVmind
p5262
F4
sVmine
p5263
F12
sVglorifie
p5264
F1
sVpiety,
p5265
F1
sVseek
p5266
F3
sVtells
p5267
F11
sVreiecteth
p5268
F1
sVreclaime
p5269
F3
sVhangings,
p5270
F1
sVenioy,
p5271
F1
sVniece
p5272
F1
sVsleepes
p5273
F1
sVblessed,
p5274
F2
sVretyre
p5275
F1
sVdistaine
p5276
F1
sVdayes,
p5277
F2
sVnouice
p5278
F1
sVsequell
p5279
F1
sVmoueables:
p5280
F1
sVsee:
p5281
F1
sVapparant,
p5282
F1
sVfooles
p5283
F2
sVexpedition:
p5284
F1
sVsee.
p5285
F1
sVsee,
p5286
F12
sVmaria
p5287
F1
sVassisting
p5288
F1
sVdon
p5289
F1
sVprosperity,
p5290
F3
sVquallities
p5291
F1
sVconsumed
p5292
F2
sVmuses,
p5293
F1
sVbreathes
p5294
F1
sVdoe
p5295
F25
sVsolemn
p5296
F1
sVcompetitors
p5297
F1
sVamourous
p5298
F2
sVmuses:
p5299
F1
sVconsumer
p5300
F1
sVmalta:
p5301
F1
sVreprinted
p5302
F1
sVsleepe:
p5303
F1
sVriuall,
p5304
F2
sVdiscontent
p5305
F5
sVlenity,
p5306
F1
sVfidelia
p5307
F33
sVriuall)
p5308
F1
sVhunger
p5309
F1
sVretire
p5310
F3
sVslaue
p5311
F1
sVattempts
p5312
F1
sVliberty
p5313
F3
sVstepping
p5314
F2
sVcruelly
p5315
F9
sVdefensiue
p5316
F1
sVtreachery)
p5317
F1
sVprophanenesse,
p5318
F2
sVperswade
p5319
F10
sVacquit
p5320
F1
sVpledg
p5321
F1
sVdebts
p5322
F8
sVdificultly
p5323
F2
sVcharacters,
p5324
F1
sVsyreen
p5325
F1
sVthird)
p5326
F1
sVstop
p5327
F2
sVattempt,
p5328
F4
sVmeditate
p5329
F1
sVthird:
p5330
F1
sVadministred
p5331
F1
sVattempt;
p5332
F1
sVquarters
p5333
F1
sVattempt?
p5334
F1
sVriualls
p5335
F1
sVdebt;
p5336
F1
sVbremay.
p5337
F1
sVthrusts
p5338
F1
sVbad
p5339
F3
sVsoftly
p5340
F2
sVdebt,
p5341
F1
sVinhumanitie
p5342
F1
sVsinkes
p5343
F1
sVlaborinth
p5344
F2
sVbrothers.
p5345
F1
sVvenetians
p5346
F1
sVsaluations)
p5347
F1
sVreference
p5348
F1
sVventer
p5349
F1
sVforelocke,
p5350
F1
sVbrothers:
p5351
F1
sVnauell:
p5352
F1
sVvow,
p5353
F3
sVvented
p5354
F1
sVmournfully
p5355
F2
sVwits,
p5356
F2
sVsaid
p5357
F4
sVdissimulation
p5358
F2
sVpernitious,
p5359
F1
sVsorts
p5360
F1
sVpublike
p5361
F1
sVinsinuated
p5362
F1
sVprofitable
p5363
F1
sVmournfull,
p5364
F1
sVmorgage
p5365
F1
sVignorance
p5366
F5
sVweary
p5367
F3
sVstrangled,
p5368
F1
sVvowe
p5369
F1
sVweare
p5370
F5
sVhimsefe
p5371
F1
sVgentry
p5372
F1
sVcousin
p5373
F2
sVmournfull;
p5374
F1
sVsuggested
p5375
F2
sVsort,
p5376
F1
sVfalsly
p5377
F3
sVpensiuely,
p5378
F1
sV(about
p5379
F1
sVmichaelle
p5380
F3
sVagainst
p5381
F44
sVsophia
p5382
F1
sVinwardly
p5383
F4
sVtwentie?
p5384
F1
sVpistolling
p5385
F1
sVperplexed,
p5386
F2
sVappeared
p5387
F1
sVineuitably
p5388
F1
sVheight
p5389
F4
sVloaden
p5390
F1
sVfeeds,
p5391
F1
sVrighteousnes
p5392
F1
sVapprehended
p5393
F3
sVappeares
p5394
F1
sVnow,
p5395
F8
sVtrauels
p5396
F1
sVproceeded
p5397
F1
sVputs
p5398
F5
sVremisse
p5399
F1
sVthree
p5400
F37
sVerect
p5401
F2
sVillustrated,
p5402
F1
sVpronouncing
p5403
F1
sVaffrights
p5404
F1
sVinterest
p5405
F2
sVentered
p5406
F1
sVheares
p5407
F3
sVtrauell
p5408
F1
sVthrew
p5409
F4
sVappeare,
p5410
F1
sVdeeper
p5411
F1
sVprosperous
p5412
F2
sV(to
p5413
F6
sVsuccour.
p5414
F1
sVplaysters
p5415
F1
sVexcessiue
p5416
F4
sVwhoore
p5417
F1
sVminded,
p5418
F1
sVparticular,
p5419
F1
sVneat
p5420
F1
sVouershadow
p5421
F1
sVfreenesse
p5422
F2
sVthought,
p5423
F2
sVthought)
p5424
F1
sVioyntly
p5425
F5
sVmeet;
p5426
F1
sVis
p5427
F563
sVblackes,
p5428
F1
sVit
p5429
F417
sVmought,
p5430
F1
sVshame
p5431
F6
sVin
p5432
F1108
sVplaceth
p5433
F1
sVmeet.
p5434
F1
sVif
p5435
F208
sVafternoone
p5436
F1
sVbottles
p5437
F1
sVqualitie,
p5438
F1
sVmake
p5439
F100
sVdiuelish
p5440
F1
sVbeene:
p5441
F1
sVcoole
p5442
F2
sVbelly
p5443
F2
sVcoach,
p5444
F6
sVbeene,
p5445
F1
sVmaks
p5446
F1
sVmeets
p5447
F2
sVhumanitie
p5448
F2
sVtempests:
p5449
F1
sVoratory,
p5450
F2
sVourselues.
p5451
F1
sVcan,
p5452
F2
sVatheists,
p5453
F1
sVfidelea
p5454
F3
sVdelight
p5455
F15
sVrepyning
p5456
F1
sVscarfe
p5457
F1
sVi,
p5458
F1
sVmeete
p5459
F2
sVsottishnesse
p5460
F1
sVopportunity
p5461
F2
sVthoughts
p5462
F42
sVbeautifullest
p5463
F1
sVgrow,
p5464
F1
sVhandmaid.
p5465
F2
sVhandmaid,
p5466
F1
sVsettled
p5467
F1
sVhandmaid:
p5468
F1
sVapprobation
p5469
F1
sVcomplaine
p5470
F1
sVqualities
p5471
F1
sVflattereth
p5472
F1
sVparis:
p5473
F4
sVyours
p5474
F2
sVleft
p5475
F22
sVprouided,
p5476
F1
sVfalshood
p5477
F1
sVsentence
p5478
F3
sVyea
p5479
F21
sVobserue
p5480
F10
sVwiser
p5481
F1
sVyee
p5482
F2
sVberne,
p5483
F1
sVsequestration
p5484
F2
sVargentier:
p5485
F1
sVexcusable,
p5486
F1
sVcraueth
p5487
F1
sVreformation
p5488
F2
sVfeet,
p5489
F1
sV(lifting
p5490
F1
sVemeliars
p5491
F1
sVargentier.
p5492
F1
sVyet
p5493
F214
sVvnckle,
p5494
F1
sVtranquilitie
p5495
F1
sVautumne
p5496
F1
sVinuenting
p5497
F1
sVinfinitely
p5498
F17
sVbrambles,
p5499
F1
sVfooorth
p5500
F1
sVmagistrates
p5501
F3
sVlaquay
p5502
F18
sVfumes
p5503
F5
sVtake
p5504
F45
sVfact)
p5505
F1
sVmanfrelles
p5506
F1
sVlaw:
p5507
F1
sVargentiers
p5508
F3
sVfact,
p5509
F9
sVdreame
p5510
F4
sVpersonage,
p5511
F5
sVthiopian
p5512
F1
sVfact;
p5513
F2
sVfact:
p5514
F1
sVdiscreet
p5515
F4
sVrebellion,
p5516
F1
sVprooued
p5517
F3
sVdreamt
p5518
F4
sVerected
p5519
F1
sVpersonage;
p5520
F1
sVvanity
p5521
F3
sVpolicie
p5522
F1
sVperforming
p5523
F1
sVsatisfaction,
p5524
F1
sVelianora
p5525
F1
sVnotorious
p5526
F3
sVleases,
p5527
F1
sVflattered
p5528
F1
sVdead
p5529
F21
sVduckets
p5530
F1
sVthinkes,
p5531
F2
sVreuerence
p5532
F4
sViocund
p5533
F1
sVdropsie
p5534
F1
sVphrensie,
p5535
F1
sVwhiles,
p5536
F1
sVrib,
p5537
F1
sVvngratefull
p5538
F1
sVthinkest
p5539
F1
sVequitie
p5540
F3
sVbold
p5541
F1
sVpietie;
p5542
F1
sVpietie:
p5543
F1
sVpietie?
p5544
F1
sVremarke
p5545
F1
sVkeepes
p5546
F1
sVbury
p5547
F2
sVsauing
p5548
F1
sVpietie,
p5549
F7
sVwept
p5550
F1
sVeuents,
p5551
F1
sVmaubert
p5552
F1
sVcrucifie
p5553
F1
sVassault
p5554
F1
sVapologie
p5555
F4
sVhowlings,
p5556
F1
sVtyred
p5557
F2
sVcommit
p5558
F6
sVmusicke,
p5559
F3
sVformerly
p5560
F37
sVfor,
p5561
F4
sVrefiner
p5562
F2
sVworst:
p5563
F1
sVeducation,
p5564
F1
sVlies
p5565
F3
sVcaelestina
p5566
F1
sVskrewing
p5567
F1
sVcoyfe
p5568
F1
sVdoctrine
p5569
F2
sVnarration
p5570
F1
sVinterim,
p5571
F1
sVworst,
p5572
F1
sVrefined
p5573
F1
sVcondeigne
p5574
F1
sV(since
p5575
F1
sVcryes
p5576
F1
sVleuelled
p5577
F1
sVflying
p5578
F1
sVvehemency
p5579
F1
sVprepared,
p5580
F1
sVbound,
p5581
F2
sVmorne,
p5582
F4
sVbodies
p5583
F2
sVvillete
p5584
F2
sVobiected
p5585
F1
sVassist,
p5586
F1
sVheyre,
p5587
F1
sVfeminine
p5588
F1
sVpowerfully
p5589
F5
sVpenned
p5590
F2
sVwheras
p5591
F1
sVafflicted,
p5592
F4
sVthencefoorth
p5593
F1
sVbuilds
p5594
F1
sVbounds
p5595
F4
sVfrequenting
p5596
F1
sVlawe
p5597
F1
sVrack'd:
p5598
F1
sVdie:
p5599
F1
sVdie;
p5600
F1
sVvillettes
p5601
F2
sVauthoritie,
p5602
F2
sVdiscretion;
p5603
F2
sVoueruayle
p5604
F1
sVingrediens,
p5605
F1
sVhereat
p5606
F1
sVdie.
p5607
F3
sVinlargement
p5608
F1
sVdie,
p5609
F5
sVdifficultly
p5610
F5
sVesteeme
p5611
F5
sVdiscretion,
p5612
F11
sVielousie
p5613
F18
sVcourtesan
p5614
F1
sVprofit)
p5615
F1
sVdepriues
p5616
F1
sVaunts
p5617
F1
sVinioying
p5618
F1
sVgenerally
p5619
F3
sVsomething,
p5620
F1
sVanswerable
p5621
F5
sVdepriued
p5622
F4
sVfetherbed,
p5623
F1
sVgowne:
p5624
F1
sVfelt
p5625
F2
sVkilleth
p5626
F1
sVpartiality
p5627
F1
sVfell
p5628
F2
sVgowne,
p5629
F3
sVdied
p5630
F3
sVconueyed
p5631
F2
sVparcell
p5632
F1
sVassume
p5633
F2
sVblushing
p5634
F3
sVgenerall:
p5635
F1
sVbitter-sweet
p5636
F1
sVconueyes
p5637
F1
sVaunt,
p5638
F2
sVrestored
p5639
F1
sVrecouering
p5640
F1
sVmanaged
p5641
F1
sVbusie
p5642
F2
sVsenses,)
p5643
F1
sVperuse
p5644
F3
sVeldest
p5645
F2
sVmild
p5646
F2
sVredouble
p5647
F6
sVsoule
p5648
F39
sVskie
p5649
F1
sVextasies
p5650
F1
sVreceit
p5651
F1
sVmarke
p5652
F3
sVentreats
p5653
F1
sVdeserue,
p5654
F1
sVansweres
p5655
F2
sVfancies
p5656
F1
sVtaxeth
p5657
F1
sVfather
p5658
F92
sVanswered
p5659
F2
sVdeserue;
p5660
F1
sVsuffered
p5661
F3
sVmust
p5662
F59
sVforth,
p5663
F2
sVstring
p5664
F2
sVanon.
p5665
F1
sVtends
p5666
F1
sVobtayuing
p5667
F1
sVforked
p5668
F1
sVpious
p5669
F2
sVconsidering,
p5670
F2
sVbanished
p5671
F2
sVexcellency
p5672
F2
sVdie
p5673
F13
sVdeserued
p5674
F12
sVanswere;
p5675
F1
sVanswere:
p5676
F2
sVanswere,
p5677
F4
sVdeserues
p5678
F3
sVanswere.
p5679
F3
sVgentlewoman
p5680
F22
sVfearing
p5681
F3
sV(according
p5682
F1
sVelse,
p5683
F3
sVelse.
p5684
F1
sVpendants
p5685
F2
sVinconsiderately
p5686
F2
sVwherefore
p5687
F6
sVappetite,
p5688
F1
sVcurrant
p5689
F2
sVhazzard
p5690
F1
sVassaulted,
p5691
F1
sVembrewed
p5692
F1
sVsteales
p5693
F3
sVbehinde
p5694
F1
sVmindfull
p5695
F1
sVdoues,
p5696
F1
sVadde
p5697
F10
sVsuspect
p5698
F5
sVaduaunce,
p5699
F1
sVthinks,
p5700
F2
sVfilled
p5701
F1
sVsawe,
p5702
F1
sVtalke.
p5703
F1
sVdescends,
p5704
F1
sVtalke,
p5705
F3
sVfrench
p5706
F2
sVdetest
p5707
F4
sVmonies
p5708
F1
sVdesembling
p5709
F4
sVthither,
p5710
F3
sVwait
p5711
F2
sVboy
p5712
F1
sVtoleration,
p5713
F1
sVhere)
p5714
F1
sVhere.
p5715
F1
sVredoubling
p5716
F2
sVdauncer,
p5717
F1
sVhither
p5718
F1
sVelect
p5719
F1
sVeuill:
p5720
F2
sVguilty,
p5721
F1
sVguilty.
p5722
F1
sVextolls
p5723
F1
sVsurmount
p5724
F1
sVspectators:
p5725
F1
sVdennies
p5726
F1
sVwealth
p5727
F15
sVsake
p5728
F2
sVvisit
p5729
F2
sVfrance
p5730
F9
sVsuffered,
p5731
F1
sVlorenzo
p5732
F9
sVstoope
p5733
F1
sVvnwillingnesse)
p5734
F1
sVaelestina.
p5735
F1
sVrepayring
p5736
F1
sVchellor
p5737
F1
sVcaptiue
p5738
F1
sVexamin
p5739
F1
sVdispaires,
p5740
F1
sVforsweare
p5741
F1
sVfly
p5742
F3
sVsmallnesse
p5743
F1
sVdeformed
p5744
F4
sVapparant
p5745
F10
sVwalles
p5746
F1
sVgrowing
p5747
F1
sVmaking
p5748
F18
sVbites
p5749
F2
sVdeceased
p5750
F3
sVlords
p5751
F1
sVvnstrippe
p5752
F1
sVscandalls
p5753
F1
sVringing
p5754
F2
sVdesigne:
p5755
F1
sVdrawen
p5756
F8
sVaduance
p5757
F6
sVcomtemplations
p5758
F1
sVforerunners
p5759
F1
sVdesigne,
p5760
F3
sVtilt
p5761
F1
sVvnthought
p5762
F2
sVtill
p5763
F20
sVsword
p5764
F10
sVtrunks:
p5765
F1
sVobloquy
p5766
F1
sVdesignes
p5767
F3
sVswayed
p5768
F1
sVmay
p5769
F103
sVknauishly
p5770
F1
sVmurtherer
p5771
F3
sVmocke
p5772
F2
sVmad
p5773
F1
sVyouthfully
p5774
F2
sVmurthered
p5775
F12
sVgrow
p5776
F3
sVlord,
p5777
F3
sVman
p5778
F32
sVwindowes
p5779
F1
sVdraper,
p5780
F1
sVtall
p5781
F1
sVapprehensions,
p5782
F1
sVfayled
p5783
F1
sVimagine.
p5784
F1
sVbetters:
p5785
F1
sVwishing
p5786
F1
sVtrunkes
p5787
F1
sVsoone,
p5788
F1
sVrings,
p5789
F1
sVrapiers,
p5790
F1
sVshake
p5791
F4
sVirresolute
p5792
F2
sVchiefest
p5793
F13
sVcheerefully
p5794
F5
sVdoores:
p5795
F1
sVgroue
p5796
F1
sVpolicy
p5797
F3
sVtryumph,
p5798
F1
sVprime
p5799
F2
sVtruest
p5800
F3
sVpleaseth,
p5801
F3
sVcut,
p5802
F1
sVsooner
p5803
F30
sVcruell
p5804
F14
sVvncut
p5805
F1
sVtrunke,
p5806
F2
sVkilled
p5807
F1
sVfields
p5808
F1
sVledd
p5809
F1
sV(nobly
p5810
F1
sVgrieuous
p5811
F1
sVforsooke
p5812
F1
sVsurfeit
p5813
F1
sVsaluation;
p5814
F1
sVmiscreant,
p5815
F1
sVrichly
p5816
F3
sVtherefore,
p5817
F2
sVbefell
p5818
F2
sVrequesting
p5819
F2
sVshewe
p5820
F1
sVcondemne
p5821
F5
sVboys-daulphin
p5822
F1
sVreprehension,
p5823
F1
sVxiii.
p5824
F1
sVlynes
p5825
F1
sVcommaunds
p5826
F2
sVassurance
p5827
F2
sVtransmigration
p5828
F2
sVmonster
p5829
F3
sVcured,
p5830
F2
sVchastity,
p5831
F3
sVdeplorable:
p5832
F1
sVshew,
p5833
F1
sVbrooke
p5834
F2
sVore
p5835
F8
sVcured;
p5836
F1
sVimmodestie;
p5837
F1
sVlanguage
p5838
F1
sVassistance:
p5839
F1
sVrefuseth
p5840
F1
sVbetides
p5841
F1
sVcontracts.
p5842
F1
sVcontented
p5843
F2
sVpaces,
p5844
F1
sVthing
p5845
F7
sVproffered
p5846
F1
sVthine
p5847
F10
sVdisdaining
p5848
F3
sVthink
p5849
F4
sVfrequent
p5850
F11
sVfirst
p5851
F79
sVdwelling
p5852
F1
sVmerson:
p5853
F3
sVplumes
p5854
F2
sVindiuidually
p5855
F1
sVscandalized
p5856
F1
sVmurthers
p5857
F5
sVbeware,
p5858
F2
sVmerson.
p5859
F2
sVlong
p5860
F21
sVcarry
p5861
F5
sVquantitie
p5862
F1
sVeye,
p5863
F5
sVenioyneth
p5864
F1
sVpockets:
p5865
F1
sVlittle
p5866
F19
sVplaine
p5867
F1
sVimportunitie
p5868
F2
sVimmortall
p5869
F2
sVpallas;
p5870
F1
sVfiery
p5871
F4
sVgoddesse,
p5872
F1
sVspeaking
p5873
F3
sVeyes
p5874
F33
sVmaximes
p5875
F1
sVmurther;
p5876
F6
sVmurther:
p5877
F7
sVindescretion.
p5878
F1
sVmersons
p5879
F6
sVmurther.
p5880
F7
sVmurther,
p5881
F21
sVconfesseth
p5882
F10
sVpiety:
p5883
F1
sVdischarge,
p5884
F1
sVwert
p5885
F3
sVthereon,
p5886
F1
sVfifteene
p5887
F5
sVrespectiue
p5888
F1
sVthereon;
p5889
F2
sVthereon:
p5890
F1
sVwere
p5891
F117
sVcommends
p5892
F3
sVgathering
p5893
F1
sVcordeliers
p5894
F1
sVtauernes,
p5895
F1
sVpistolls:
p5896
F1
sVspectacle
p5897
F1
sVineuitable
p5898
F2
sVbolted)
p5899
F1
sVprooues
p5900
F6
sVfairely
p5901
F3
sVwretch
p5902
F3
sVinterior
p5903
F1
sVperformance
p5904
F2
sVpranks
p5905
F1
sVryots
p5906
F1
sVmillan:
p5907
F4
sVaudacious
p5908
F1
sVamiable
p5909
F1
sVtheatre
p5910
F4
sVqueene
p5911
F3
sVvoice,
p5912
F1
sVsottishly
p5913
F3
sVcathedrall
p5914
F1
sVequallize,
p5915
F1
sVfastned
p5916
F1
sVconspicuous
p5917
F2
sVespecially
p5918
F15
sVsurprising
p5919
F1
sVfills
p5920
F1
sVlouely
p5921
F2
sVpernicious
p5922
F1
sVdeportment
p5923
F4
sVinuented
p5924
F3
sValone,
p5925
F4
sVshot
p5926
F5
sVbitter,
p5927
F1
sVourselues
p5928
F1
sVcontract)
p5929
F1
sVbitter:
p5930
F1
sVcontract,
p5931
F3
sVcorner
p5932
F1
sVranging;
p5933
F1
sVbearing;
p5934
F1
sVpraneau
p5935
F1
sVdesired,
p5936
F1
sVhistories
p5937
F2
sVquestioneth
p5938
F1
sVdesired;
p5939
F1
sVblack
p5940
F1
sVdissembling
p5941
F1
sVstorme
p5942
F2
sVweekely
p5943
F1
sVfalsely)
p5944
F1
sVdeniall
p5945
F3
sVdishonourable
p5946
F1
sVget
p5947
F5
sVcontracts
p5948
F1
sVaffecting
p5949
F1
sVdistinctly
p5950
F1
sVgibbet
p5951
F1
sVdisinherit
p5952
F1
sVbeseech
p5953
F5
sVharbinger
p5954
F1
sVpresage
p5955
F2
sVmorning
p5956
F11
sVmiles
p5957
F2
sVfinishing
p5958
F3
sVstreets,
p5959
F1
sVsinger,
p5960
F1
sVeighteenth
p5961
F1
sVseat
p5962
F1
sVstreets:
p5963
F1
sVhorison
p5964
F1
sV(like
p5965
F9
sVdisease,
p5966
F1
sVwonder
p5967
F9
sVinfinit
p5968
F1
sVfamiliaritie,
p5969
F2
sVkindnesse;
p5970
F1
sVlimbes
p5971
F1
sVchecke
p5972
F1
sVornament
p5973
F1
sVearnest;
p5974
F1
sVbehind
p5975
F5
sVrepines
p5976
F1
sVdiamonds
p5977
F1
sVreading
p5978
F3
sVwherewithall
p5979
F1
sVapprehention
p5980
F1
sVimbraced,
p5981
F1
sVwheresoeuer
p5982
F1
sVdoing,
p5983
F1
sVkilling
p5984
F2
sVhonest,
p5985
F1
sVcountenance
p5986
F2
sVsea,
p5987
F1
sVcontemplation,
p5988
F1
sVpaines
p5989
F1
sVtractable
p5990
F1
sVappoynted
p5991
F1
sVrushing;
p5992
F1
sVviceroyes
p5993
F3
sVamong
p5994
F6
sVmaintaines
p5995
F1
sVcrueltie.
p5996
F2
sVswich,
p5997
F1
sVpratling
p5998
F1
sV'its
p5999
F1
sVassembled:
p6000
F1
sVinraged
p6001
F2
sVaccusation
p6002
F1
sVgrants
p6003
F2
sVintegretie
p6004
F1
sVvnparalell'd
p6005
F1
sVcloysters
p6006
F1
sVimportunate
p6007
F3
sVeminentst
p6008
F1
sVrepayres
p6009
F1
sVconsidering
p6010
F13
sVsensible
p6011
F1
sVarts
p6012
F1
sVcapable
p6013
F12
sVfriendes
p6014
F1
sVenforceth
p6015
F1
sVbarre
p6016
F1
sVmars
p6017
F1
sVmary
p6018
F3
sVdeformitie;
p6019
F1
sVoffered
p6020
F3
sVdespaire,
p6021
F2
sVdangerous
p6022
F6
sVsort
p6023
F3
sVrecouery;
p6024
F1
sVdespaire:
p6025
F2
sValledging
p6026
F1
sVgrant;
p6027
F1
sVchastice
p6028
F1
sVthose
p6029
F60
sVsleeue
p6030
F1
sVsound
p6031
F1
sVeuaporated
p6032
F1
sVpreuenting
p6033
F1
sVvillaine,
p6034
F4
sVvillaine)
p6035
F1
sVsollid
p6036
F1
sVresidence
p6037
F3
sVdoest
p6038
F1
sVconcludes,
p6039
F1
sVart,
p6040
F2
sVfetcht,
p6041
F1
sVwades,
p6042
F1
sVdespayring,
p6043
F1
sVqueane,
p6044
F1
sVsleeping
p6045
F1
sVbrauely
p6046
F1
sVsudden
p6047
F5
sVdangerously
p6048
F2
sVpreseruatiue,
p6049
F1
sVbeene
p6050
F16
sVdifferent
p6051
F6
sV(who
p6052
F6
sVremission
p6053
F2
sVdoctor
p6054
F4
sVpay
p6055
F4
sVtorments;
p6056
F2
sVsame
p6057
F17
sVspeech
p6058
F4
sVperseuered
p6059
F1
sVheire
p6060
F4
sVstruggling
p6061
F1
sVtorments,
p6062
F2
sVbeen:
p6063
F1
sVextended
p6064
F1
sVtheologie
p6065
F1
sVassist
p6066
F1
sVcompanion
p6067
F1
sVrunning
p6068
F5
sVsullen
p6069
F1
sVin-lands,
p6070
F1
sVextrauagant,
p6071
F1
sVbane
p6072
F2
sVratiotination
p6073
F1
sVacquaintance,
p6074
F2
sVaccountable
p6075
F1
sVadmonishing
p6076
F1
sVacquaintance:
p6077
F1
sVlasciuious
p6078
F6
sVamazed
p6079
F11
sVconsisted
p6080
F1
sVgates
p6081
F1
sVpeace
p6082
F9
sVnights,
p6083
F1
sVsuitor
p6084
F1
sVmariages:
p6085
F1
sVmoney
p6086
F7
sVbacks
p6087
F1
sVimprint
p6088
F1
sVmariages,
p6089
F1
sVwifes
p6090
F1
sVreuenew:
p6091
F1
sVextreamely,
p6092
F1
sVmayd,
p6093
F2
sVfructified
p6094
F1
sVwife,
p6095
F27
sVwife.
p6096
F1
sVsight:
p6097
F1
sVfound:
p6098
F1
sVgate;
p6099
F1
sVlosanna
p6100
F16
sVseuerally,
p6101
F1
sVsight,
p6102
F2
sVwife:
p6103
F8
sVwife;
p6104
F5
sVcouncellor
p6105
F3
sVfound.
p6106
F1
sVpenned,
p6107
F1
sVfound,
p6108
F1
sVchristina
p6109
F8
sVacquainted
p6110
F4
sVthereunto:
p6111
F1
sVthereunto;
p6112
F1
sVlightning
p6113
F3
sVthorowe
p6114
F1
sVchamber
p6115
F7
sVruminating
p6116
F1
sVeither
p6117
F82
sVmayds
p6118
F1
sVvoluntarily
p6119
F1
sVtooke
p6120
F4
sVbehalfe
p6121
F1
sVtragicall
p6122
F7
sVsecond;
p6123
F1
sVsecond:
p6124
F3
sVdispaire,
p6125
F6
sVafflict
p6126
F4
sVperpretrated;
p6127
F1
sVreceiued
p6128
F20
sVimprisonment
p6129
F1
sVascend
p6130
F3
sVpunished,
p6131
F3
sVsecond)
p6132
F1
sVsinnes,
p6133
F5
sVgraunts
p6134
F1
sVsecond,
p6135
F9
sVdiscontented,
p6136
F1
sVincertaine
p6137
F1
sVreceiues
p6138
F10
sVthemselues
p6139
F19
sVtheirs.
p6140
F1
sVtheirs,
p6141
F7
sVpocket,
p6142
F3
sVstaffe
p6143
F1
sVseuerely
p6144
F6
sVleaue
p6145
F35
sVknife
p6146
F1
sVpocket:
p6147
F1
sVenter,
p6148
F1
sVreceiue,
p6149
F1
sVlackey,
p6150
F3
sVgraunt,
p6151
F2
sVbroken
p6152
F7
sVhoures;
p6153
F1
sVreceiue:
p6154
F1
sVreceiue;
p6155
F1
sVsubtilty
p6156
F1
sVroaming
p6157
F1
sVconducting
p6158
F1
sVaffrayd
p6159
F1
sVstations
p6160
F1
sVviolence
p6161
F9
sVpockets
p6162
F1
sVpartizan
p6163
F1
sVsudden,
p6164
F1
sVout,
p6165
F14
sVcontrariwise
p6166
F2
sVdeparture:
p6167
F1
sVlands
p6168
F10
sVtearmest
p6169
F1
sVmorning:
p6170
F1
sVmorning;
p6171
F1
sVblessed
p6172
F8
sVenioy
p6173
F8
sVsoules,
p6174
F8
sVsoules.
p6175
F3
sVwilde
p6176
F1
sVabandoneth
p6177
F1
sVdreaming
p6178
F2
sVmorning,
p6179
F5
sVperquisition;
p6180
F1
sVsleightly
p6181
F2
sVvnperformed?
p6182
F1
sVvoyding
p6183
F1
sVdistracted
p6184
F3
sVfates
p6185
F2
sVsolitations
p6186
F1
sVclamorous,
p6187
F3
sVpretends
p6188
F1
sVwhite;
p6189
F1
sVemeralds
p6190
F1
sVblesse,
p6191
F1
sVenough
p6192
F8
sVwounded:
p6193
F1
sVclothes,
p6194
F1
sVvertuous
p6195
F11
sVclothes.
p6196
F1
sValcasero.
p6197
F1
sVshroud
p6198
F3
sVtearmes)
p6199
F1
sVland,
p6200
F2
sVtearmes.
p6201
F1
sVwounded,
p6202
F3
sVtearmes,
p6203
F3
sVdowne,
p6204
F2
sVdowne.
p6205
F1
sVcurses,
p6206
F2
sVangell
p6207
F1
sVimbrue
p6208
F1
sVore-shadowed
p6209
F1
sVscorning
p6210
F1
sVadriana
p6211
F7
sVeschew
p6212
F2
sVaffection
p6213
F87
sVpalate
p6214
F1
sVcarpi
p6215
F56
sVcombining
p6216
F1
sVfellow
p6217
F1
sVexamine
p6218
F1
sVimportunate,
p6219
F1
sVdeed
p6220
F2
sVranckes,
p6221
F1
sVchoyce
p6222
F4
sVagain
p6223
F1
sVincontinent
p6224
F3
sVrepent
p6225
F8
sVfield
p6226
F1
sVintollerable
p6227
F1
sVdecrees,
p6228
F3
sVprise
p6229
F3
sVsecurer
p6230
F1
sVsick,
p6231
F1
sVstudents
p6232
F1
sVsecuritie
p6233
F1
sVexposeth
p6234
F1
sVimportant
p6235
F1
sVday;
p6236
F1
sVpitifully
p6237
F1
sVfloore,
p6238
F2
sVremote
p6239
F1
sVrecapitulation
p6240
F1
sVcasts
p6241
F5
sVlouing
p6242
F6
sVfloore;
p6243
F1
sVonce
p6244
F21
sVresolution
p6245
F27
sVrepresent
p6246
F2
sVforget
p6247
F9
sVvild
p6248
F1
sVbower;
p6249
F1
sVbower,
p6250
F7
sVexpressions
p6251
F1
sVbosome
p6252
F1
sVchildren
p6253
F10
sVday.
p6254
F1
sVprefixed
p6255
F1
sVrule,
p6256
F1
sVday,
p6257
F9
sVmother:
p6258
F4
sVmother;
p6259
F5
sVcallumny:
p6260
F1
sVlustfull
p6261
F5
sVsanctitie
p6262
F1
sVmother,
p6263
F23
sVvnexpected.
p6264
F1
sVmother.
p6265
F4
sVhideous
p6266
F1
sVallowance,
p6267
F1
sVsitting
p6268
F2
sVdowry,
p6269
F1
sVmurtherers;
p6270
F2
sVfall
p6271
F14
sVeminent,
p6272
F1
sVdifference
p6273
F2
sVvouchsafe
p6274
F3
sVredoubliug
p6275
F1
sVhye
p6276
F1
sVmothers
p6277
F9
sVsauiour
p6278
F4
sVsought,
p6279
F1
sVveines
p6280
F2
sVenoble
p6281
F1
sVdrugges
p6282
F1
sVrefetched
p6283
F1
sVwithheld
p6284
F1
sVreputing
p6285
F1
sVlending
p6286
F1
sVmayest
p6287
F1
sVburger
p6288
F1
sVlawyer
p6289
F1
sVfurther
p6290
F6
sVsinnes;
p6291
F1
sVghost,
p6292
F1
sVgrauitie
p6293
F1
sVimployments)
p6294
F1
sVdefence
p6295
F3
sVstood
p6296
F1
sVpoluted
p6297
F2
sVmercer
p6298
F2
sViacobins
p6299
F1
sVapproching,
p6300
F1
sVpubliquely
p6301
F2
sVdoting
p6302
F1
sVpriuie
p6303
F1
sVbasely
p6304
F1
sVvall
p6305
F1
sVsurfet
p6306
F1
sVpromising
p6307
F2
sVfiamento
p6308
F14
sVoperating
p6309
F1
sVweekes
p6310
F2
sVaffectionately
p6311
F1
sVcreature;
p6312
F1
sVsolicitation,
p6313
F1
sVknife,
p6314
F2
sVsolicitation)
p6315
F1
sVsatisfies.
p6316
F1
sVfantasies
p6317
F1
sVspeeches
p6318
F16
sVapprooued
p6319
F1
sVtemperately
p6320
F1
sVnarrow
p6321
F1
sVpriuate,
p6322
F1
sVauthorize
p6323
F1
sVmerry:
p6324
F1
sVvpright,
p6325
F1
sVclapping
p6326
F1
sVarmes
p6327
F7
sVapprehension,
p6328
F1
sVthickets,
p6329
F1
sVmerry,
p6330
F1
sVentertainement,
p6331
F1
sVarmed
p6332
F4
sVdeeming
p6333
F1
sVlady,
p6334
F4
sVfryer,
p6335
F1
sVeye
p6336
F12
sVfeare-clothes
p6337
F1
sVwiped
p6338
F1
sVtwo
p6339
F96
sVmisery:
p6340
F1
sVguard,
p6341
F4
sVcomparing
p6342
F1
sVbellona
p6343
F1
sVlady:
p6344
F3
sVtriumpheth
p6345
F2
sVguard:
p6346
F1
sVmisery.
p6347
F9
sVheereof
p6348
F1
sVgentlewomen
p6349
F4
sVdiamond
p6350
F3
sVcontrary;
p6351
F1
sV(no
p6352
F1
sVrauing
p6353
F1
sVcontrary,
p6354
F6
sVcontrary.
p6355
F1
sVcontrary)
p6356
F2
sVpriuiledges,
p6357
F1
sVparticular
p6358
F3
sVreueale
p6359
F11
sVmagnifie
p6360
F2
sVnone
p6361
F29
sVmiddle
p6362
F2
sVreape
p6363
F2
sVrecall
p6364
F2
sVabroad;
p6365
F2
sVdew
p6366
F1
sVpruneau
p6367
F9
sVthereat
p6368
F1
sVdiuulged
p6369
F3
sVendeauors
p6370
F2
sVabandon
p6371
F1
sVnothing,
p6372
F1
sVabroad,
p6373
F3
sVnothing.
p6374
F2
sVmarble
p6375
F1
sVquintus
p6376
F1
sVconuerted
p6377
F2
sVblacke,
p6378
F1
sVtraduced
p6379
F1
sVgalleries
p6380
F2
sVshare
p6381
F3
sVconfirmation
p6382
F1
sVpurchased
p6383
F4
sVstrangely,
p6384
F1
sVpompe
p6385
F5
sVneeds
p6386
F11
sVkinsefolkes
p6387
F1
sVcomfort
p6388
F19
sVfame
p6389
F7
sVdeportments,
p6390
F1
sVsacred
p6391
F14
sVacte
p6392
F1
sVtyed
p6393
F1
sVcharms
p6394
F1
sVnumber,
p6395
F1
sVquestioning
p6396
F1
sVcharme
p6397
F1
sV(beyond
p6398
F2
sVblood
p6399
F17
sVblackes
p6400
F2
sVpreuent
p6401
F16
sVconformitie
p6402
F3
sVcranies
p6403
F1
sVparagons
p6404
F1
sVcounsell,
p6405
F5
sVkindred,
p6406
F1
sVsayd)
p6407
F1
sVpleasure
p6408
F17
sVissue:
p6409
F1
sVeate
p6410
F2
sVplaying
p6411
F2
sVdisplease
p6412
F2
sVcost,
p6413
F1
sVcupboard:
p6414
F1
sVgraunt
p6415
F2
sVtelling
p6416
F2
sVthrough
p6417
F15
sVsharpenesse
p6418
F1
sVsuffer
p6419
F10
sVdayly
p6420
F1
sViudgment
p6421
F1
sVpent
p6422
F2
sVhabit,
p6423
F2
sVcharity.
p6424
F2
sVlate
p6425
F8
sVdetected
p6426
F2
sVtrecherous
p6427
F3
sVmightest
p6428
F1
sVapproue
p6429
F1
sVcharity;
p6430
F1
sVsquint-eyed,
p6431
F2
sVexile,
p6432
F1
sVback-
p6433
F1
sVgood
p6434
F38
sVseeking
p6435
F7
sVgardens,
p6436
F6
sVmasters,
p6437
F2
sVobeyed
p6438
F1
sVnuptiall
p6439
F2
sVeasily
p6440
F1
sVashes
p6441
F4
sVtoken
p6442
F1
sVexiled
p6443
F1
sVindure
p6444
F1
sVrepeating
p6445
F1
sVpen,
p6446
F3
sVexquisite
p6447
F4
sVarmes,
p6448
F10
sVdeboshednesse,
p6449
F1
sVobtaine
p6450
F14
sVdifficult,
p6451
F1
sVanother
p6452
F20
sVhouse
p6453
F24
sVhard
p6454
F3
sVcowardise,
p6455
F1
sVbacke,
p6456
F2
sVdeeds.
p6457
F1
sVarmes:
p6458
F1
sVsuspecting
p6459
F3
sVremember,
p6460
F3
sVflowes
p6461
F2
sVomit,
p6462
F1
sVacting
p6463
F2
sVfortitude
p6464
F6
sVperseruerance
p6465
F1
sVsutor,
p6466
F1
sVenclining
p6467
F1
sVlombardy,
p6468
F1
sVrashnes
p6469
F1
sVpleasant
p6470
F3
sVdifficulty
p6471
F2
sVreciprocall
p6472
F1
sVmembers
p6473
F1
sVleaues.
p6474
F1
sVbeginning
p6475
F10
sVsafetie,
p6476
F4
sVsafetie.
p6477
F1
sVconducted
p6478
F1
sVsafetie;
p6479
F3
sVindebted
p6480
F1
sVembraces
p6481
F1
sVdona
p6482
F3
sVinstances
p6483
F1
sVdone
p6484
F9
sVcups
p6485
F2
sVdoctor:
p6486
F1
sVpaine
p6487
F1
sVflesh,
p6488
F2
sVsenses,
p6489
F7
sVindulgent
p6490
F2
sVsenerall
p6491
F1
sVtwenty
p6492
F2
sVrendeuous
p6493
F1
sViewels,
p6494
F1
sVleast
p6495
F42
sVsenses;
p6496
F2
sVfoulenesse
p6497
F9
sVrates
p6498
F1
sVquenchlesse
p6499
F1
sVcitizens,
p6500
F1
sVexcell
p6501
F1
sVpart
p6502
F28
sVprodigious
p6503
F5
sVdecreed
p6504
F2
sV(gracelessely
p6505
F1
sVembrace,
p6506
F1
sVouertaken,
p6507
F1
sVcommiserate
p6508
F2
sVgotten
p6509
F2
sVyouth
p6510
F28
sVcontrary
p6511
F15
sVsupposed
p6512
F3
sVfrange,
p6513
F1
sVabsence;
p6514
F1
sVconcludes
p6515
F1
sVages
p6516
F1
sVconfirme
p6517
F5
sVdepth,
p6518
F1
sVdecrees
p6519
F1
sVfrange:
p6520
F6
sVincluded:
p6521
F1
sVshowers
p6522
F3
sVaged
p6523
F2
sVfading
p6524
F2
sVveynes
p6525
F1
sVrowes
p6526
F1
sVrefute
p6527
F1
sVgaolors
p6528
F1
sVbuild
p6529
F2
sVespeciall
p6530
F1
sVvnexpected
p6531
F11
sVorder,
p6532
F1
sVage;
p6533
F4
sVprouident
p6534
F1
sVmost
p6535
F67
sVage,
p6536
F26
sVorder;
p6537
F1
sVchargeth
p6538
F2
sVfranges
p6539
F11
sVextremely
p6540
F1
sVappeased
p6541
F1
sVinuited
p6542
F1
sVabsence,
p6543
F5
sVmotion,
p6544
F1
sVfeasting
p6545
F2
sVbloodie
p6546
F2
sVveyne;
p6547
F1
sVcharitably
p6548
F1
sVcompetency:
p6549
F1
sVcharitable
p6550
F3
sVaduerse
p6551
F1
sVinuites
p6552
F2
sVweigh
p6553
F2
sVnobility
p6554
F2
sVrefusall
p6555
F3
sVsummes
p6556
F2
sVfiamata
p6557
F3
sVruffians:
p6558
F1
sValpiata
p6559
F4
sVnoblest
p6560
F1
sVesperia
p6561
F2
sVsanctity
p6562
F1
sVwelfare,
p6563
F1
sVmalignant
p6564
F1
sVcarefully
p6565
F2
sVrebell
p6566
F1
sVfine
p6567
F1
sVfind
p6568
F28
sVabandoning
p6569
F2
sVfreedome
p6570
F3
sVepicure
p6571
F1
sVrelent
p6572
F1
sVhymeneus
p6573
F1
sVtempests
p6574
F2
sVdefiled
p6575
F1
sVcrauen,
p6576
F1
sVdust
p6577
F2
sVbusinesse.
p6578
F5
sVbusinesse,
p6579
F8
sVcarefull,
p6580
F1
sVvowes,
p6581
F2
sVverte
p6582
F2
sVobligation,
p6583
F1
sVbusinesse?
p6584
F1
sVbusinesse;
p6585
F1
sVbusinesse:
p6586
F3
sVcontagious
p6587
F2
sVexecutions,
p6588
F1
sVtempest,
p6589
F1
sVcommon
p6590
F7
sVaffoord
p6591
F1
sVvnseene
p6592
F1
sVfeares
p6593
F7
sVintemperate
p6594
F3
sVhonor,
p6595
F2
sVtended
p6596
F2
sVvaresius
p6597
F9
sVappoynted.
p6598
F1
sVtender
p6599
F13
sVexcusable
p6600
F1
sVfeared
p6601
F2
sVbarromeo
p6602
F1
sVdegree
p6603
F5
sVexpert
p6604
F3
sVioy,
p6605
F20
sVplease
p6606
F9
sVburnes
p6607
F1
sVioy;
p6608
F2
sVrepaire
p6609
F6
sVfeasted
p6610
F1
sVfeare;
p6611
F2
sVfeare:
p6612
F5
sVselues
p6613
F7
sVvolleys
p6614
F1
sVcomplement
p6615
F2
sVouer.
p6616
F1
sVrayse
p6617
F1
sVouer,
p6618
F3
sVfeare,
p6619
F14
sVresplendancy
p6620
F1
sVbeads,
p6621
F1
sVchappels,
p6622
F1
sVgrounded
p6623
F2
sVthraldome,
p6624
F1
sVdispatcht
p6625
F1
sVsurfetting
p6626
F1
sVimpietie
p6627
F2
sVvnfolding
p6628
F1
sVpoint
p6629
F3
sVsimple
p6630
F4
sVpiece-meale,
p6631
F1
sVioyes.
p6632
F1
sVmodestie
p6633
F2
sVdancer
p6634
F1
sVsimply
p6635
F1
sVforgetting,
p6636
F1
sVthroughout
p6637
F2
sVpatiently
p6638
F1
sVgratiana
p6639
F38
sVheauenly
p6640
F3
sVhopefull
p6641
F1
sVmartiall
p6642
F2
sVsecret
p6643
F18
sVhelme
p6644
F1
sVdispleasure,
p6645
F1
sVvavmartin.
p6646
F2
sVsuperficicially
p6647
F1
sVmeeting
p6648
F5
sVcords;
p6649
F1
sVgay
p6650
F2
sVslipt
p6651
F2
sVkill'd,
p6652
F2
sVindures
p6653
F1
sVcruelty
p6654
F12
sVsoulange
p6655
F1
sVcapacitie
p6656
F1
sVplainely
p6657
F1
sVpierce
p6658
F1
sVaffabilitie,
p6659
F1
sVstriuing
p6660
F2
sVtolerate
p6661
F1
sVeclipsed
p6662
F1
sVfrolike
p6663
F1
sVbils
p6664
F2
sVfurther,
p6665
F2
sVlull
p6666
F1
sVfilliall
p6667
F1
sVcon-contemplation
p6668
F1
sVviolently
p6669
F2
sVhusband.
p6670
F1
sVprie
p6671
F2
sVhusband,
p6672
F22
sVswisses
p6673
F1
sVhusband;
p6674
F13
sVhusband:
p6675
F5
sVhusband?
p6676
F1
sVitaly
p6677
F6
sVseduce
p6678
F2
sVmadnesse
p6679
F5
sVrauings
p6680
F1
sVhellishly
p6681
F2
sVcomplaints
p6682
F3
sVfound;
p6683
F1
sVfoorth,
p6684
F5
sVdamnable:
p6685
F1
sVhow.
p6686
F3
sVhow,
p6687
F1
sVpaines,
p6688
F1
sVaduantage
p6689
F1
sVinuironeth
p6690
F1
sVchirurgion
p6691
F2
sVdispaire
p6692
F3
sVresounds
p6693
F2
sVblessednesse
p6694
F1
sVsolicited
p6695
F1
sVhusbands
p6696
F9
sVmoment
p6697
F1
sVadiudge
p6698
F4
sVpurpose
p6699
F1
sVyearely
p6700
F1
sVinfused
p6701
F1
sVpredecessors
p6702
F1
sVexpences,
p6703
F2
sVwhores
p6704
F1
sVknowen
p6705
F10
sVindanger
p6706
F1
sVspent
p6707
F8
sVtutularie
p6708
F1
sVmorrow
p6709
F4
sVwife?
p6710
F1
sVwithdraw
p6711
F1
sVknowes
p6712
F28
sVchappell
p6713
F1
sVoften,
p6714
F1
sVmemories,
p6715
F1
sVsecrecy
p6716
F2
sVmatter,
p6717
F1
sVshape
p6718
F2
sVshrewdly
p6719
F1
sVmatter:
p6720
F1
sVapes,
p6721
F1
sVeuny
p6722
F1
sVhearaulds
p6723
F1
sVcut
p6724
F14
sVreceiue
p6725
F16
sVmarrying
p6726
F1
sVloue)
p6727
F1
sVmurtherers
p6728
F4
sVconiecturall
p6729
F1
sVhates
p6730
F2
sVbin
p6731
F1
sVwil
p6732
F8
sVdishonest,
p6733
F1
sVbid
p6734
F2
sVdestruction;
p6735
F1
sVdestruction?
p6736
F1
sVmatters
p6737
F3
sVtruely
p6738
F13
sVguiltinesse
p6739
F1
sVsalutes
p6740
F2
sVsilkes
p6741
F1
sVdestruction.
p6742
F2
sVhate,
p6743
F1
sVambrose
p6744
F1
sVpistoll'd;
p6745
F1
sVproffers
p6746
F3
sVmurtherer)
p6747
F1
sVsuperiour
p6748
F1
sVdungeon,
p6749
F3
sVsixteene
p6750
F1
sVfoolish
p6751
F12
sVfamiliarly)
p6752
F1
sVsleighted
p6753
F1
sVoften
p6754
F11
sVabsolutely
p6755
F3
sVobliged
p6756
F1
sVback
p6757
F2
sVredeemer,
p6758
F2
sVtriumphing
p6759
F3
sVornaments
p6760
F3
sVvnlook'd
p6761
F1
sVendures,
p6762
F1
sVhazarded
p6763
F1
sVenuited,
p6764
F1
sVacquaintance
p6765
F4
sVexecrable.
p6766
F1
sVdegenerating
p6767
F1
sVaffects
p6768
F2
sVgood:
p6769
F1
sVproficient
p6770
F1
sVmetamorphosed
p6771
F6
sVexecrable:
p6772
F1
sVpen
p6773
F10
sVgallops
p6774
F1
sVmiraculous
p6775
F1
sVaccusers,
p6776
F1
sVgood,
p6777
F2
sVgood.
p6778
F2
sVwhome
p6779
F1
sVpatient
p6780
F1
sVhyes
p6781
F1
sVtaxing
p6782
F1
sVpresence,
p6783
F8
sVpresence.
p6784
F3
sVdispatcheth
p6785
F1
sVtherat:
p6786
F1
sVdepriuation
p6787
F1
sVexample;
p6788
F1
sVpresence:
p6789
F1
sVpresence;
p6790
F1
sVaffect:
p6791
F1
sVfeigning
p6792
F2
sVpassionate
p6793
F2
sVgallop,
p6794
F1
sVlayis:
p6795
F1
sVtriuiall
p6796
F1
sVthereunto,
p6797
F1
sVaffect,
p6798
F2
sVconsequently
p6799
F12
sVaccessary,
p6800
F1
sVpunishment.
p6801
F1
sVhope)
p6802
F1
sVhope,
p6803
F9
sVpupill
p6804
F2
sVgenerositie,
p6805
F1
sVfiue
p6806
F13
sVboy,
p6807
F1
sVframed
p6808
F1
sVhope;
p6809
F1
sVhope:
p6810
F1
sVbenevente
p6811
F11
sVingendred
p6812
F1
sVremembrance
p6813
F18
sVlesson
p6814
F2
sVwatchfull
p6815
F2
sVparts:
p6816
F1
sV(out
p6817
F2
sVingaging,
p6818
F1
sValleadging
p6819
F1
sVwarres,
p6820
F1
sVabscence
p6821
F2
sV(forsooth)
p6822
F2
sVimmortality
p6823
F2
sVinfected
p6824
F2
sVwanting;
p6825
F1
sVadriaticke
p6826
F1
sVdeceiued)
p6827
F1
sVaright,
p6828
F2
sVtherat.
p6829
F1
sVhoped
p6830
F2
sVboys
p6831
F1
sVdelighting
p6832
F2
sVhopes
p6833
F25
sVearnestnes
p6834
F1
sVdirected
p6835
F2
sVfrequented:
p6836
F1
sViust
p6837
F20
sVioynes
p6838
F2
sVmeetings.
p6839
F1
sVhopes:
p6840
F2
sVcarefull
p6841
F5
sVfitter
p6842
F3
sVpauia
p6843
F2
sVmorges:
p6844
F1
sVhopes,
p6845
F10
sVprecipitated
p6846
F2
sVgifts,
p6847
F2
sVrepulse
p6848
F2
sVnecke
p6849
F5
sVconstant
p6850
F11
sVcounsells,
p6851
F1
sVlikely,
p6852
F1
sVrarities
p6853
F1
sVcoyne,
p6854
F1
sVcure
p6855
F2
sVdeminish,
p6856
F1
sVbrethren
p6857
F1
sVvnderstands
p6858
F3
sVswynish
p6859
F1
sVwreath'd
p6860
F1
sVmatching
p6861
F4
sVtreate
p6862
F1
sVhonourable,
p6863
F2
sVinclined
p6864
F1
sVperpetuall
p6865
F1
sVwarrantable
p6866
F1
sViaques
p6867
F1
sVamazed,
p6868
F5
sVtormented;
p6869
F1
sVprepared
p6870
F1
sVfoorthwith
p6871
F2
sVcottage,
p6872
F1
sVprepares
p6873
F1
sVneck:
p6874
F1
sVletters:
p6875
F3
sVwards
p6876
F1
sVexcuse,
p6877
F1
sVadmiring
p6878
F1
sVmynion,
p6879
F1
sVvnderstand,
p6880
F11
sVexcuse:
p6881
F1
sVhappy,
p6882
F11
sVendeuour
p6883
F1
sVhappy.
p6884
F1
sVstomacke,
p6885
F1
sVdebosht
p6886
F1
sVhappy;
p6887
F1
sVincombrances
p6888
F1
sVintricate
p6889
F2
sVtombe
p6890
F1
sVgraceth
p6891
F1
sVstomacke:
p6892
F1
sVvigilancy,
p6893
F1
sVhelpe
p6894
F1
sVloues
p6895
F13
sVslips
p6896
F1
sVpleasing
p6897
F9
sVferuent
p6898
F9
sVassay
p6899
F1
sVpresently
p6900
F12
sVputting
p6901
F2
sVpittie
p6902
F2
sVequalliz'd
p6903
F1
sVouercome
p6904
F1
sVcontriuing
p6905
F1
sVclement
p6906
F1
sVrecreation
p6907
F1
sViniquity
p6908
F2
sVknight
p6909
F5
sVbecomming
p6910
F1
sVstature,
p6911
F4
sVvoyces:
p6912
F1
sVboyling
p6913
F1
sVsafe,
p6914
F1
sVsin;
p6915
F1
sVother,
p6916
F16
sVother.
p6917
F6
sVremission,
p6918
F1
sVmourning)
p6919
F1
sVother)
p6920
F2
sVdemonstrations
p6921
F3
sVbeast,
p6922
F1
sVidaea
p6923
F1
sVother:
p6924
F7
sVother;
p6925
F5
sVbraue,
p6926
F1
sVdutchie)
p6927
F1
sVassisted
p6928
F2
sVdutchie,
p6929
F1
sVseconds
p6930
F1
sVforgaue
p6931
F2
sVcrossed
p6932
F1
sVvnfit
p6933
F1
sVassoone
p6934
F3
sVbody
p6935
F25
sVquintescence
p6936
F1
sVwritings,
p6937
F1
sVexchange
p6938
F2
sVgot
p6939
F1
sVnimble
p6940
F1
sVbachelor
p6941
F1
sVothers
p6942
F22
sVimperfections
p6943
F1
sVextreme
p6944
F1
sVcomforted:
p6945
F1
sVconceit
p6946
F4
sVbraues
p6947
F1
sVhonor
p6948
F1
sVdoctrine,
p6949
F1
sVcomposed
p6950
F1
sVdiddest
p6951
F2
sVnamed
p6952
F9
sVpresidents
p6953
F4
sVprecipitates
p6954
F1
sVdelights:
p6955
F1
sVdecrease
p6956
F1
sVnames
p6957
F3
sVresolutions
p6958
F12
sVrepriues
p6959
F1
sVprincesse
p6960
F1
sVescapes
p6961
F1
sVpush,
p6962
F1
sViourney
p6963
F5
sVheere,
p6964
F2
sVheere)
p6965
F1
sVinclination,
p6966
F1
sVshamefully,
p6967
F1
sVresolution,
p6968
F14
sVsnatching
p6969
F1
sVresolution.
p6970
F2
sVherein.
p6971
F3
sVconuicted
p6972
F1
sVname,
p6973
F2
sV(preferring
p6974
F1
sVresolution;
p6975
F1
sVresolution:
p6976
F1
sVashamed
p6977
F2
sVprocuring
p6978
F3
sVherein;
p6979
F1
sVinclinations
p6980
F3
sVprogresse
p6981
F2
sVfetch
p6982
F3
sVfarwels
p6983
F1
sVpyramides
p6984
F1
sVwater;
p6985
F2
sVimmoderate
p6986
F1
sVduckatons
p6987
F2
sVtherin
p6988
F1
sVchangeth
p6989
F2
sVwater,
p6990
F4
sVwater.
p6991
F1
sVdeparteth.
p6992
F1
sVcontempt
p6993
F4
sVafflictions;
p6994
F2
sVlame
p6995
F1
sVholds
p6996
F9
sVrasor
p6997
F1
sV(thereby
p6998
F2
sVcourtesie
p6999
F8
sVreeking
p7000
F1
sVaduise,
p7001
F2
sVcalamities,
p7002
F3
sVinfectious:
p7003
F1
sVslights
p7004
F1
sVhight
p7005
F1
sVmaried,
p7006
F1
sVmaried.
p7007
F1
sVreuengefull
p7008
F2
sVminding
p7009
F1
sVout-cryes;
p7010
F1
sVfolly,
p7011
F9
sVfolly)
p7012
F1
sVbayliffe
p7013
F7
sVbind
p7014
F1
sVwanted:
p7015
F1
sVwanted;
p7016
F1
sVlines
p7017
F3
sVcorrespond
p7018
F2
sVincessant
p7019
F2
sVwhereupon,
p7020
F1
sVdinner)
p7021
F1
sVhold,
p7022
F2
sVdinner,
p7023
F2
sVfurious
p7024
F2
sVaddiction
p7025
F1
sVcommitted,
p7026
F1
sVearely
p7027
F2
sVherauld,
p7028
F1
sVchildren;
p7029
F1
sVwedding
p7030
F1
sVquietly
p7031
F1
sVembers
p7032
F1
sVrepentant
p7033
F3
sVsoules?
p7034
F1
sVreplies,
p7035
F2
sVflattering
p7036
F5
sVaccuser.
p7037
F1
sVindustrious
p7038
F2
sVle
p7039
F1
sVmarsy
p7040
F2
sVla
p7041
F226
sVdecorum
p7042
F3
sVwhereof
p7043
F22
sVwilling
p7044
F4
sVstopped,
p7045
F1
sVantient
p7046
F1
sVtoppe
p7047
F2
sVgreater
p7048
F7
sVpangs
p7049
F1
sVcutting
p7050
F3
sVheauy
p7051
F1
sVappaleth
p7052
F1
sVday
p7053
F24
sVheraulds
p7054
F1
sVradiant
p7055
F1
sVleast,
p7056
F6
sVmichaele
p7057
F15
sVcourtisans,
p7058
F1
sVslipping
p7059
F1
sVlodging,
p7060
F1
sVlicentiously
p7061
F1
sVaccusers
p7062
F1
sVsubiect,
p7063
F1
sVdiceiued
p7064
F1
sVdescrying
p7065
F1
sVlouers,
p7066
F5
sVpitty
p7067
F4
sVhomage,
p7068
F1
sViniust,
p7069
F1
sVincensed
p7070
F8
sVingratefull
p7071
F3
sVboundlesse,
p7072
F1
sVcittie
p7073
F1
sVperpetrated:
p7074
F1
sVdecrepit,
p7075
F1
sVpreserued
p7076
F2
sVwholly
p7077
F21
sVmessenger
p7078
F2
sVlecture
p7079
F1
sVcure;
p7080
F1
sVperpetrated,
p7081
F1
sVshots
p7082
F1
sVsubtiller
p7083
F1
sVperceiues
p7084
F4
sVyard
p7085
F1
sVfuries
p7086
F1
sVcrookbackt
p7087
F1
sVcredulously
p7088
F1
sVallied
p7089
F1
sVhedge,
p7090
F1
sVsecretary
p7091
F1
sVsorrowful
p7092
F1
sVpredominate
p7093
F1
sVtruncke
p7094
F1
sVapensall
p7095
F1
sVchild,
p7096
F1
sVferte
p7097
F1
sVinueterate
p7098
F3
sVancient
p7099
F4
sVlamentable
p7100
F9
sVvisite,
p7101
F1
sVlamentably
p7102
F2
sVcloathes,
p7103
F3
sVreputations;
p7104
F1
sVinsuing
p7105
F1
sVvnskrewes
p7106
F1
sVlaquayes
p7107
F3
sVrapyer
p7108
F1
sVintice
p7109
F1
sVtribute,
p7110
F2
sVhoushold
p7111
F1
sV(three
p7112
F1
sVtheorie
p7113
F1
sVperuseth
p7114
F2
sVexpences
p7115
F1
sVattempting,
p7116
F1
sVimprisonment;
p7117
F1
sVvanity)
p7118
F1
sVvisites
p7119
F1
sVfacilitie
p7120
F2
sVimprisonment,
p7121
F5
sVinrich
p7122
F3
sVflashes
p7123
F1
sVmaydens,
p7124
F1
sVdoubting,
p7125
F2
sVlaciuiousnesse
p7126
F1
sV(quoth
p7127
F8
sVmodestie,
p7128
F3
sVintermixing,
p7129
F1
sVbusinesse
p7130
F11
sVanother:
p7131
F3
sVgratiana:
p7132
F2
sVcourtezan
p7133
F1
sVdeparted,
p7134
F1
sVsublunary
p7135
F1
sVmornings
p7136
F1
sVmiserable
p7137
F23
sVthroat
p7138
F2
sVapparently
p7139
F1
sVmelancholly
p7140
F1
sVpatience,
p7141
F5
sVexpected)
p7142
F1
sVblessings,
p7143
F1
sVexpected,
p7144
F2
sVparke
p7145
F2
sVterrible,
p7146
F1
sVprocure
p7147
F7
sVeight
p7148
F7
sVpellion
p7149
F1
sVvnspeakable
p7150
F2
sVbusiness;
p7151
F1
sVafresh
p7152
F3
sVinexorable
p7153
F3
sVperformed:
p7154
F1
sVskinne
p7155
F1
sVwherewith
p7156
F3
sVgather
p7157
F5
sVrequest
p7158
F14
sVdisease
p7159
F1
sVperformed.
p7160
F1
sVperformed,
p7161
F1
sVartificially
p7162
F1
sVrendezvous
p7163
F1
sVoccasion
p7164
F10
sVsaying,
p7165
F1
sVriuall
p7166
F2
sVstrayning
p7167
F1
sVcharles
p7168
F2
sVreputation,
p7169
F6
sVaffection,
p7170
F35
sVreputation;
p7171
F1
sVborromeos
p7172
F1
sVcupboards,
p7173
F1
sVknowledge
p7174
F6
sVspaine
p7175
F4
sVfeastes;
p7176
F1
sVsatan
p7177
F2
sVwiues
p7178
F8
sVspice
p7179
F1
sVsparke
p7180
F1
sVcommaunding
p7181
F2
sVrichardo
p7182
F1
sVwonderfull
p7183
F4
sVpromiseth,
p7184
F1
sVreputations
p7185
F1
sVadiudged
p7186
F4
sVcourteous,
p7187
F2
sVdisdayneth
p7188
F1
sVall-seeing,
p7189
F1
sVarme;
p7190
F1
sVbankets
p7191
F1
sVlookt
p7192
F1
sVcalling
p7193
F5
sVface:
p7194
F1
sVfixed
p7195
F5
sVlooks
p7196
F1
sVfarthest
p7197
F2
sVshelfe
p7198
F1
sVneyther
p7199
F1
sVbraines,
p7200
F4
sVdignitie
p7201
F4
sVstraight:
p7202
F1
sVsisters:
p7203
F1
sVallured
p7204
F2
sVdesires)
p7205
F1
sVpleasing'st
p7206
F1
sVdesires.
p7207
F6
sVdesires,
p7208
F12
sVsexe,
p7209
F1
sVdesires;
p7210
F9
sVdesires:
p7211
F1
sVreserue
p7212
F2
sVdegrees,
p7213
F1
sVdisrespect
p7214
F1
sVadmiration
p7215
F1
sVsanctified:
p7216
F1
sVracke,
p7217
F5
sVstoutly
p7218
F1
sVaffaires,
p7219
F2
sVsorrow
p7220
F10
sVprotesting,
p7221
F1
sVaside,
p7222
F2
sVsisters,
p7223
F3
sVvrge
p7224
F1
sVencrease
p7225
F1
sVeffeminacy
p7226
F1
sVbeds;
p7227
F1
sVinstant
p7228
F2
sVfreely
p7229
F1
sVtaking
p7230
F17
sVoccasioning
p7231
F3
sVobdurated,
p7232
F1
sVattributed
p7233
F1
sVtrips
p7234
F6
sVassure
p7235
F2
sVbeds,
p7236
F2
sVbuissie
p7237
F1
sVattributes
p7238
F1
sVpassing
p7239
F1
sV(contrary
p7240
F1
sVglorious
p7241
F4
sVotherwise
p7242
F3
sVsorrowfully,
p7243
F1
sVdenie
p7244
F5
sVshewed
p7245
F1
sVcommend
p7246
F1
sVcolledge
p7247
F2
sVyeelded
p7248
F1
sVdone,
p7249
F1
sVdegenerat
p7250
F1
sVflourishing
p7251
F4
sVcrooke-back'd,
p7252
F1
sVhome:
p7253
F1
sVhome;
p7254
F1
sVdemaunding
p7255
F2
sVgaze
p7256
F3
sVattends
p7257
F3
sVhome,
p7258
F5
sVdefine
p7259
F2
sV(aged
p7260
F1
sVperplexed
p7261
F4
sVtheefe
p7262
F1
sVstatue:
p7263
F1
sVwhoredomes
p7264
F2
sVridden
p7265
F1
sVfinished
p7266
F1
sVtenderly
p7267
F5
sVfoureteene
p7268
F1
sVwealth.
p7269
F1
sV(pronounced
p7270
F1
sVan
p7271
F90
sVmourning
p7272
F7
sVthereof;
p7273
F7
sVthereof:
p7274
F9
sVappearance
p7275
F3
sVgiuing
p7276
F5
sVmaintained;
p7277
F1
sVthereof)
p7278
F2
sVthereof.
p7279
F9
sVyeare,
p7280
F4
sVthereof,
p7281
F33
sVshame;
p7282
F1
sVsister.
p7283
F3
sVloued,
p7284
F2
sValmost
p7285
F17
sVfurnished)
p7286
F1
sVrespected
p7287
F3
sVcommending
p7288
F1
sVinuentions
p7289
F4
sVfurnished:
p7290
F1
sVimpetuous,
p7291
F1
sVimpetuous.
p7292
F1
sVpreuenting,
p7293
F1
sV)
F38
sVallurements
p7294
F1
sVwretched.
p7295
F1
sVchirurgeon
p7296
F4
sVfill
p7297
F2
sVset:
p7298
F1
sVset;
p7299
F1
sVconceits
p7300
F8
sVioy
p7301
F21
sVinuention,
p7302
F1
sVreporting
p7303
F1
sVdethronize
p7304
F1
sVcommended
p7305
F1
sVeuidence
p7306
F3
sViustification
p7307
F1
sVabsent,
p7308
F1
sVbehauiour
p7309
F2
sVrecourse
p7310
F1
sVquittance
p7311
F1
sVmortally)
p7312
F1
sVproued
p7313
F2
sVthought
p7314
F12
sVexceedingly
p7315
F15
sVflexible,
p7316
F1
sVsets
p7317
F1
sVconcluded)
p7318
F1
sVposition
p7319
F2
sVconcluded,
p7320
F2
sVcompanions,
p7321
F2
sVvaine,
p7322
F6
sVall-seeing
p7323
F2
sVtherof
p7324
F2
sVhoped-for
p7325
F1
sVlosse
p7326
F4
sVvaine;
p7327
F1
sVvaine:
p7328
F1
sVinterim
p7329
F2
sVcolledge,
p7330
F1
sVsupreame
p7331
F1
sVseats
p7332
F1
sVliberty)
p7333
F1
sVvnspeakeable
p7334
F2
sVwisedome
p7335
F6
sVvengeance,
p7336
F1
sVlake
p7337
F1
sVrecommending
p7338
F2
sVslaue,
p7339
F1
sValbemares
p7340
F8
sVdeceitfulnesse
p7341
F1
sVhee,
p7342
F3
sVhelpe,
p7343
F1
sVthrowne
p7344
F3
sVimperfections,
p7345
F3
sVparalell
p7346
F1
sVimpugned
p7347
F1
sVparaleld
p7348
F1
sVvnspared,
p7349
F1
sVinsert
p7350
F1
sVsolicitor
p7351
F1
sVconfusion.
p7352
F1
sVlike
p7353
F47
sVarme,
p7354
F4
sVvalour,
p7355
F1
sVworke
p7356
F2
sVadmitted
p7357
F1
sVgigglet;
p7358
F1
sVsute
p7359
F2
sVheed
p7360
F1
sVworks
p7361
F1
sVresolued,
p7362
F5
sVitalian
p7363
F2
sVdecease
p7364
F1
sVoutragious,
p7365
F1
sVeasie
p7366
F2
sVsolitarie
p7367
F1
sVauthority
p7368
F1
sVneighbours,
p7369
F2
sVeye-sore
p7370
F1
sVproper
p7371
F6
sVperswasiue
p7372
F2
sVglad,
p7373
F2
sVblessing,
p7374
F3
sVdiscretion
p7375
F8
sVmasked
p7376
F1
sVwrongs,
p7377
F2
sVcomplices
p7378
F1
sVslight
p7379
F1
sVcontriues
p7380
F1
sVlieutenant
p7381
F4
sValthough
p7382
F77
sVworthy
p7383
F6
sVdeerely,
p7384
F1
sVincomparable
p7385
F1
sVtunes,
p7386
F1
sVinconsiderate
p7387
F6
sVabout
p7388
F8
sVcommited
p7389
F1
sVaccuseth
p7390
F7
sVstrumpets,
p7391
F1
sVaboue
p7392
F6
sVrule
p7393
F2
sVstrumpets;
p7394
F1
sVblesse
p7395
F1
sVordained,
p7396
F2
sVhead-long
p7397
F1
sVchildrens
p7398
F1
sVdepart
p7399
F1
sVhaddest
p7400
F1
sVvnsought
p7401
F1
sVbeen
p7402
F24
sVdiscent
p7403
F2
sVminute,
p7404
F1
sVgreatnes
p7405
F1
sVquarrell,
p7406
F1
sVnylus
p7407
F1
sVlonged,
p7408
F1
sVtragidy:
p7409
F1
sVimpetuositie,
p7410
F1
sVbuy
p7411
F2
sVbeginns
p7412
F1
sVfidelitie)
p7413
F1
sVmatch;
p7414
F1
sVmatch:
p7415
F1
sVbut
p7416
F721
sVfidelitie,
p7417
F3
sVexpected
p7418
F2
sVplague
p7419
F3
sVimpetuositie;
p7420
F2
sVchildren.
p7421
F1
sVchildren,
p7422
F2
sVmatch,
p7423
F4
sVout-cry
p7424
F1
sVstratagems
p7425
F1
sVwise
p7426
F6
sVglory
p7427
F12
sVwish
p7428
F5
sVmists
p7429
F1
sVcondemnes
p7430
F1
sVdelayes,
p7431
F2
sVstratageme
p7432
F1
sVflie
p7433
F7
sVminutes
p7434
F1
sVbleere
p7435
F1
sVexceeded
p7436
F1
sVindeede
p7437
F1
sVwine,
p7438
F8
sVgiouani
p7439
F1
sVour
p7440
F158
sVinconsideratly
p7441
F1
sVobiect
p7442
F3
sViniustly
p7443
F3
sVproceeds
p7444
F3
sVaccident)
p7445
F1
sVaccident,
p7446
F4
sVaccident.
p7447
F1
sVaccident:
p7448
F1
sVaccident;
p7449
F1
sVmorn,
p7450
F1
sVparracide,
p7451
F1
sVhusbands.
p7452
F3
sVindeed,
p7453
F2
sVinsupportable
p7454
F1
sVperiod,
p7455
F1
sVdeath?
p7456
F1
sVdeath:
p7457
F6
sVdeath;
p7458
F7
sVindeed:
p7459
F1
sVguiltie:
p7460
F1
sVsayes,
p7461
F2
sVdeath,
p7462
F33
sVdeath.
p7463
F7
sVacquits
p7464
F1
sVperiod:
p7465
F1
sVchristians
p7466
F8
sVstirred
p7467
F1
sVcounsellours:
p7468
F1
sVmorne
p7469
F7
sVdiscreet,
p7470
F2
sVstudies,
p7471
F1
sVpraise-worthy,
p7472
F1
sVaccidents
p7473
F6
sVsayle
p7474
F1
sVmonte-
p7475
F2
sVsafegard
p7476
F1
sVtrembles,
p7477
F1
sVhagge
p7478
F2
sVhath
p7479
F137
sVhating
p7480
F2
sVappetite
p7481
F1
sVlands;
p7482
F1
sVhate
p7483
F15
sVadmiration,
p7484
F3
sVfeeding
p7485
F1
sVviolate
p7486
F4
sVparis
p7487
F15
sV(for
p7488
F9
sVtheorique
p7489
F1
sVconfidence.
p7490
F1
sVfiamata's
p7491
F1
sVwither,
p7492
F1
sVpride
p7493
F5
sVdisswade
p7494
F1
sVchastitie,
p7495
F3
sVderogate
p7496
F1
sVchastitie.
p7497
F1
sVhat:
p7498
F1
sVremy
p7499
F2
sVteares?
p7500
F1
sVhireling
p7501
F1
sVbethinkes
p7502
F2
sVteares:
p7503
F1
sVreturne,
p7504
F3
sVlands,
p7505
F1
sVassemble,
p7506
F1
sVchastitie;
p7507
F2
sVliuing
p7508
F5
sVteares.
p7509
F4
sVteares,
p7510
F25
sVwaues
p7511
F1
sVaduertised
p7512
F5
sVencounter
p7513
F2
sVthenceforth
p7514
F2
sVweepes;
p7515
F1
sVverie
p7516
F1
sVdemolutions
p7517
F1
sVscy
p7518
F1
sVvenus
p7519
F4
sVparted
p7520
F1
sVexcuses,
p7521
F1
sVshoulders,
p7522
F1
sVbee,
p7523
F1
sVheart-killing
p7524
F2
sVdirect
p7525
F3
sVexcuses:
p7526
F1
sVshoulders:
p7527
F1
sVstreet
p7528
F1
sVfiascoes
p7529
F1
sVfriendships
p7530
F1
sVchange.
p7531
F1
sVhide
p7532
F1
sVchrist
p7533
F5
sVconduce
p7534
F2
sVseeke
p7535
F21
sVbeaten
p7536
F3
sVimpugne
p7537
F1
sVinsinuate
p7538
F2
sVaged,
p7539
F1
sVbeates
p7540
F1
sVconduct
p7541
F6
sVcompunction:
p7542
F1
sVseeks
p7543
F1
sVfriendship,
p7544
F1
sVprauncing
p7545
F1
sVacted,
p7546
F1
sVcounsellours
p7547
F2
sVmetamorphose
p7548
F1
sVcelestiall
p7549
F1
sVrepresented
p7550
F1
sVcompasse,
p7551
F1
sVdisclaime
p7552
F1
sV(neere
p7553
F1
sVworse,
p7554
F2
sVchayre
p7555
F1
sVdiuorce
p7556
F5
sVdeere
p7557
F9
sVadulteries
p7558
F1
sVconioyne
p7559
F1
sVgenerall
p7560
F9
sVpunishment
p7561
F7
sVcompany.
p7562
F2
sVswearing
p7563
F4
sVcompany,
p7564
F4
sVsorrowe
p7565
F2
sVstraw
p7566
F1
sVbreath,
p7567
F3
sVcoffin;
p7568
F1
sVvp;
p7569
F1
sVpasseth
p7570
F5
sVpatience
p7571
F4
sVvaumartins
p7572
F7
sVsympathise
p7573
F1
sVvp,
p7574
F2
sVcoffin,
p7575
F2
sVgraue
p7576
F5
sVreply.
p7577
F1
sVreceiues,
p7578
F1
sVperswasions,
p7579
F2
sVbreath:
p7580
F1
sVwould
p7581
F74
sVtransitory,
p7582
F1
sVvngoldly
p7583
F1
sVfainting
p7584
F1
sViuster
p7585
F1
sVobscenity,
p7586
F1
sVbreathe
p7587
F1
sVbarbarous
p7588
F4
sVoff;
p7589
F2
sVsorrow.
p7590
F1
sVsorrow,
p7591
F17
sVcrimson
p7592
F1
sVardently
p7593
F1
sVgreatnesse
p7594
F4
sVexcellent
p7595
F7
sVsorrow:
p7596
F2
sVoff,
p7597
F9
sVoff.
p7598
F3
sVme
p7599
F29
sVdisdayning
p7600
F2
sVmeate
p7601
F1
sVentertained
p7602
F2
sVkinsfolkes,
p7603
F1
sVhenry
p7604
F1
sVentertaines
p7605
F6
sVmy
p7606
F155
sVdefile
p7607
F2
sVestate
p7608
F15
sVcause,
p7609
F3
sVmouth;
p7610
F1
sVlibertie;
p7611
F2
sVvnavoydable
p7612
F1
sVmournfully,
p7613
F2
sVend
p7614
F50
sVdetayned
p7615
F1
sVenquiry
p7616
F1
sVobseruing
p7617
F2
sVreturning
p7618
F4
sVdeerely
p7619
F1
sVoccurrents
p7620
F1
sVenquire
p7621
F3
sVapparrant
p7622
F1
sVgate
p7623
F1
sVcharging
p7624
F1
sVcolours,
p7625
F2
sVcolours.
p7626
F1
sVboth,
p7627
F4
sVassistance,
p7628
F4
sVsweetnesse)
p7629
F1
sVdetention
p7630
F1
sVboth:
p7631
F2
sVboth;
p7632
F3
sVsaluation.
p7633
F1
sVsmoake
p7634
F2
sVremorse,
p7635
F1
sV(desembling
p7636
F1
sVrespect,
p7637
F1
sVenter
p7638
F3
sValoud
p7639
F1
sVaccusation;
p7640
F1
sVvtters
p7641
F1
sVexecuted
p7642
F4
sVover
p7643
F5
sVsickly
p7644
F1
sVsleighting
p7645
F1
sVstrangle
p7646
F2
sVmurtherers,
p7647
F3
sVdigest
p7648
F3
sVfasteneth
p7649
F1
sV(being
p7650
F4
sV(more
p7651
F1
sVexpectations
p7652
F2
sVbesotted
p7653
F2
sVperfectly,
p7654
F1
sVreynes,
p7655
F1
sVdistained
p7656
F1
sVfade
p7657
F3
sVcondemneth
p7658
F1
sVconfirmes
p7659
F3
sVmonstrous,
p7660
F1
sVdiseases
p7661
F3
sVfoure,
p7662
F1
sVmalice.
p7663
F1
sVmalice,
p7664
F10
sVhistory,
p7665
F5
sVdispatching
p7666
F2
sVhistory.
p7667
F1
sVexpect,
p7668
F1
sVhistory:
p7669
F2
sVhistory;
p7670
F1
sVstinking
p7671
F2
sVborne,
p7672
F2
sVexpectation;
p7673
F1
sVborne.
p7674
F1
sVwhip,
p7675
F1
sVentrance;
p7676
F1
sVaduertise
p7677
F3
sVexpectation,
p7678
F6
sVvictory
p7679
F2
sVeach
p7680
F27
sVsuperiors,
p7681
F1
sVseiz'd
p7682
F1
sVdiana
p7683
F2
sVvipers,
p7684
F1
sVweeke,
p7685
F1
sVpurified,
p7686
F1
sVhanged
p7687
F3
sVdefences
p7688
F1
sVshaddow
p7689
F3
sVselfe)
p7690
F3
sVthundring
p7691
F1
sVselfe.
p7692
F3
sVselfe,
p7693
F48
sVgoe
p7694
F12
sVgod
p7695
F119
sVsighing
p7696
F1
sVselfe;
p7697
F5
sVselfe:
p7698
F13
sVlaid
p7699
F3
sVproiects
p7700
F2
sVday)
p7701
F1
sVmompellier:
p7702
F1
sVnewly
p7703
F2
sVwashes
p7704
F1
sVsaints;
p7705
F1
sVexpert,
p7706
F1
sVdefloured
p7707
F1
sVadiacent
p7708
F1
sVinfusing
p7709
F1
sVfree
p7710
F11
sVaforesaid
p7711
F2
sVwhereupon
p7712
F19
sVsaints,
p7713
F1
sVcloth,
p7714
F1
sVwanted
p7715
F1
sVanselmo
p7716
F8
sVhaire,
p7717
F2
sVwithdrawen:
p7718
F1
sVproiect:
p7719
F1
sValready
p7720
F25
sVthiefe:
p7721
F1
sVmen-seruants
p7722
F2
sVhearing
p7723
F11
sVgrief,
p7724
F1
sVpalpable
p7725
F1
sVvncontroulable
p7726
F1
sVcombate
p7727
F1
sVariued,
p7728
F1
sVtheir
p7729
F410
sVgowne
p7730
F3
sVtoo
p7731
F53
sVmercifull,
p7732
F1
sVcouncell
p7733
F4
sVtragical
p7734
F1
sVilliterate
p7735
F2
sVmarriageable;
p7736
F1
sVpondering
p7737
F1
sVembellish
p7738
F1
sVcastiana:
p7739
F1
sVvsage
p7740
F1
sVcastiana,
p7741
F1
sVdepriuing
p7742
F1
sVpreposterous
p7743
F5
sVgriefe
p7744
F28
sVmarriageable,
p7745
F1
sVvncharitable
p7746
F1
sVplate,
p7747
F6
sVkinde,
p7748
F1
sVcurrenter,
p7749
F1
sVremissenesse
p7750
F1
sVclasses
p7751
F1
sVflame
p7752
F3
sVmirth
p7753
F2
sVviceroy:
p7754
F1
sVpossessed
p7755
F1
sVwanton,
p7756
F1
sVtalking
p7757
F1
sVprotract
p7758
F1
sVlaughes
p7759
F1
sVantidote
p7760
F2
sVdegenerates
p7761
F1
sVsnow
p7762
F1
sVconsulted,
p7763
F1
sVrides
p7764
F9
sVpropitious
p7765
F3
sVchymera
p7766
F1
sVthough
p7767
F30
sVvndefiled
p7768
F1
sVvnlook't
p7769
F1
sVreuenewes,
p7770
F1
sVchambers,
p7771
F3
sVcommanding
p7772
F2
sVconceyt,
p7773
F1
sVgrieuances
p7774
F1
sVprostitute
p7775
F1
sVconstancy
p7776
F4
sVsweetly
p7777
F6
sVhides
p7778
F2
sVletters)
p7779
F1
sVletters,
p7780
F15
sVorderly
p7781
F3
sVreputation
p7782
F6
sValbemare
p7783
F82
sVenterprise
p7784
F1
sVdesignes.
p7785
F1
sVletters;
p7786
F4
sVdesignes,
p7787
F3
sVprettie
p7788
F2
sVendeere
p7789
F1
sVpope
p7790
F1
sVblemish,
p7791
F1
sVmoaths
p7792
F1
sVnotice,
p7793
F1
sVearth
p7794
F26
sVducatons,
p7795
F1
sVdeuil;
p7796
F1
sVtowne,
p7797
F3
sVgods
p7798
F28
sVlodge
p7799
F1
sVanger,
p7800
F3
sVreserued
p7801
F6
sVburnt,
p7802
F2
sVwatch
p7803
F4
sVdisinherite
p7804
F1
sVintimations,
p7805
F1
sVconuersing
p7806
F1
sVreport
p7807
F7
sVsauiour,
p7808
F1
sV(incouraged
p7809
F1
sVruine
p7810
F10
sVtownes
p7811
F2
sVtwice
p7812
F6
sVdelay,
p7813
F1
sVblanquettelle
p7814
F2
sVwedlocke,
p7815
F1
sVfarther
p7816
F8
sVfragrant
p7817
F2
sVhabit
p7818
F2
sVlamentable,
p7819
F1
sVdetection
p7820
F7
sVproclaime
p7821
F1
sValcasero's
p7822
F4
sVface,
p7823
F7
sVconceit,
p7824
F1
sVcontinually
p7825
F5
sVcatalogue
p7826
F1
sV(by
p7827
F5
sVfinger
p7828
F4
sVperusall
p7829
F4
sVhopefully
p7830
F1
sVpaynts
p7831
F1
sVapproach
p7832
F1
sVvnwelcomed
p7833
F1
sVface;
p7834
F1
sVcrimes!
p7835
F1
sVconfusion
p7836
F4
sVcalamity,
p7837
F1
sVcrimes,
p7838
F8
sVmayne
p7839
F1
sVcrimes.
p7840
F5
sVnewe
p7841
F2
sVbargaine
p7842
F2
sVtrauels,
p7843
F1
sVhills
p7844
F1
sVconceite
p7845
F1
sVprotect
p7846
F1
sVirregular
p7847
F2
sVoughtest
p7848
F1
sVfault
p7849
F2
sVwines,
p7850
F1
sVdisastrous
p7851
F1
sVtenderly,
p7852
F2
sVpacified,
p7853
F1
sVentertaines,
p7854
F1
sVfaces
p7855
F3
sVsnuytsaren
p7856
F1
sValbemare?
p7857
F1
sVfoot:
p7858
F1
sValbemare:
p7859
F3
sVenterprise:
p7860
F1
sVbleeuing,
p7861
F1
sVbeldame,
p7862
F1
sVenterprise,
p7863
F1
sValbemare,
p7864
F1
sVconsenteth;
p7865
F1
sVtrust
p7866
F2
sVendeuours
p7867
F1
sVconference
p7868
F1
sVextrauagant
p7869
F3
sVhauing
p7870
F87
sVfearefull
p7871
F11
sVhayre,
p7872
F2
sVlesse,
p7873
F4
sVquickly
p7874
F1
sVwere,
p7875
F3
sVconfident
p7876
F11
sVblowen
p7877
F4
sVcommunion
p7878
F1
sVwere)
p7879
F1
sVmiraculously
p7880
F2
sVlesse:
p7881
F1
sVlesse;
p7882
F2
sVdutchie
p7883
F1
sVfleeting
p7884
F1
sVvnlocke
p7885
F1
sVsearch
p7886
F4
sVvulcan
p7887
F1
sVlewdly,
p7888
F1
sVcatch
p7889
F1
sVvanity,
p7890
F3
sVchurch)
p7891
F1
sVconfidence,
p7892
F1
sVvpright
p7893
F1
sVapprehension
p7894
F2
sVinterprets
p7895
F1
sVwayting-mayd,
p7896
F1
sVtemporall)
p7897
F1
sVbandying
p7898
F1
sVteachers
p7899
F1
sVstopping
p7900
F2
sVdeepe
p7901
F8
sVvisard;
p7902
F1
sVdying,
p7903
F1
sVmayd
p7904
F2
sVexpenses
p7905
F1
sVlust)
p7906
F1
sVlust,
p7907
F8
sVlust.
p7908
F1
sVcasting
p7909
F4
sVasleepe,
p7910
F1
sVeuents
p7911
F1
sVheart.
p7912
F2
sVheart,
p7913
F32
sVduels,
p7914
F1
sVcopie
p7915
F2
sVwound
p7916
F2
sVhated,
p7917
F1
sVheart:
p7918
F3
sVouervalue
p7919
F1
sVhated;
p7920
F1
sVforsaking
p7921
F3
sVapplauds,
p7922
F1
sVcomforted
p7923
F1
sVmisery
p7924
F9
sVburiall,
p7925
F1
sVpaternall
p7926
F1
sVpurchace
p7927
F1
sVafraid
p7928
F2
sVinsisted
p7929
F1
sVmade,
p7930
F2
sVcensures
p7931
F1
sVdoth:
p7932
F3
sVdoth;
p7933
F4
sVshortly
p7934
F22
sVincredulity
p7935
F1
sVreprooue
p7936
F1
sVvilified
p7937
F1
sVocean
p7938
F1
sVdoth,
p7939
F2
sVgreatest
p7940
F13
sVmother
p7941
F31
sVhearts
p7942
F15
sVleagues
p7943
F2
sVrubies
p7944
F1
sVappease
p7945
F3
sVdeparted
p7946
F2
sVproposed
p7947
F1
sViudge,
p7948
F2
sVtransporting
p7949
F1
sVresigning
p7950
F1
sVvices
p7951
F12
sVaraigne
p7952
F1
sVdearer
p7953
F5
sVburnt
p7954
F5
sVoffice,
p7955
F3
sVfoot-
p7956
F1
sVfoot,
p7957
F2
sVfoot.
p7958
F1
sVvice,
p7959
F2
sVvice.
p7960
F1
sVscaffold,
p7961
F1
sVperfecty
p7962
F1
sVbands
p7963
F1
sVbreaks
p7964
F1
sVvulture
p7965
F2
sVburne
p7966
F1
sVordaine
p7967
F1
sVdescending
p7968
F2
sVinitiate,
p7969
F1
sVvice:
p7970
F2
sVvice;
p7971
F1
sVvalewe
p7972
F1
sVbreake
p7973
F5
sVscruple
p7974
F2
sVleague,
p7975
F1
sVmelting
p7976
F1
sVcauses,
p7977
F1
sVany:
p7978
F1
sVswill
p7979
F1
sVcontradict
p7980
F1
sVhunt
p7981
F1
sVdishonest
p7982
F1
sVcruelty;
p7983
F1
sVany.
p7984
F2
sVany,
p7985
F3
sVneedest
p7986
F1
sVfoote
p7987
F2
sVpursues
p7988
F1
sVpublikely
p7989
F2
sVdeare,
p7990
F2
sVcruelty,
p7991
F2
sVdeare.
p7992
F1
sVteaster
p7993
F1
sVaffront,
p7994
F1
sVrefused;
p7995
F1
sVdetraction
p7996
F1
sVwatching,
p7997
F1
sVchests
p7998
F1
sVbeheld
p7999
F1
sVescape
p8000
F1
sVnobleman
p8001
F3
sVproceeding
p8002
F1
sVliue:
p8003
F1
sVdressed,
p8004
F1
sVliue,
p8005
F6
sV(aforesaid)
p8006
F1
sVfauours:
p8007
F1
sVseruices,
p8008
F1
sVlampe
p8009
F1
sVdasle
p8010
F1
sVkinsfolkes
p8011
F2
sVlamps
p8012
F1
sVfooth
p8013
F1
sV(where
p8014
F1
sVpouerty
p8015
F5
sVpermitted
p8016
F1
sVhomewards
p8017
F1
sVeuening
p8018
F1
sVawaked,
p8019
F1
sVliues
p8020
F7
sVdinner
p8021
F3
sVliued
p8022
F9
sVwisheth,
p8023
F1
sVviands,
p8024
F1
sVduke
p8025
F4
sVpresence
p8026
F12
sVcruelly,
p8027
F1
sVmoath
p8028
F1
sVrotte
p8029
F1
sVsinne
p8030
F23
sVrounds
p8031
F1
sVrely
p8032
F1
sVruine,
p8033
F6
sVcruelly)
p8034
F1
sVposession
p8035
F1
sVweepes
p8036
F2
sVvirgin
p8037
F2
sVseekes
p8038
F11
sVfought
p8039
F2
sVsmiles)
p8040
F1
sVpurposely
p8041
F31
sVhead
p8042
F11
sVimpossiblities
p8043
F1
sVattempted
p8044
F3
sVmisery,
p8045
F22
sVheat
p8046
F5
sVconueyances,
p8047
F1
sVhands,
p8048
F6
sVdeepest
p8049
F1
sVhoping,
p8050
F1
sVbids
p8051
F13
sVseeke,
p8052
F1
sVgenerositie
p8053
F1
sVadore
p8054
F4
sVruines
p8055
F1
sVseeke;
p8056
F1
sVharmeles
p8057
F1
sVtrie
p8058
F1
sVsubtiltie,
p8059
F4
sVdrunkennesse;
p8060
F1
sVimplackable
p8061
F1
sVgallant,
p8062
F1
sVsometime
p8063
F2
sVsupper,
p8064
F4
sVdrunkennesse)
p8065
F2
sVshines
p8066
F1
sVdrunkennesse,
p8067
F10
sVvespres
p8068
F3
sVwillingly
p8069
F3
sVno
p8070
F181
sVwhereas
p8071
F10
sVportend;
p8072
F1
sVwhen
p8073
F178
sVwhereat
p8074
F26
sVblesseth
p8075
F1
sVtis
p8076
F1
sVtil
p8077
F1
sVsetting
p8078
F2
sVsoundly
p8079
F1
sVvanished
p8080
F1
sViudiciously
p8081
F1
sVeternity
p8082
F1
sVpicture
p8083
F3
sVpermitting
p8084
F1
sVshine,
p8085
F1
sVphoenix
p8086
F1
sVvanquished,
p8087
F1
sVgallants
p8088
F3
sVsubtilties
p8089
F1
sVdischarge
p8090
F3
sVmoueables
p8091
F1
sVyounger
p8092
F4
sVportends
p8093
F1
sVlonger
p8094
F14
sVroomes
p8095
F1
sVpaper,
p8096
F3
sVexigent
p8097
F1
sVbewaile
p8098
F1
sVremarked
p8099
F1
sVserious
p8100
F1
sVpremeditated
p8101
F2
sVwishes:
p8102
F1
sVcoach
p8103
F2
sVleade
p8104
F1
sVpompe;
p8105
F1
sVwishes,
p8106
F3
sVice
p8107
F1
sVwishes.
p8108
F1
sVbehauiour,
p8109
F2
sVextremities
p8110
F1
sVpost;
p8111
F1
sVmourning;
p8112
F2
sVscarse
p8113
F1
sVliue.
p8114
F1
sVpassage
p8115
F2
sVmourning,
p8116
F1
sVcharge
p8117
F6
sVaccept,
p8118
F1
sVaduertisement
p8119
F1
sVdrowing
p8120
F1
sVprofers
p8121
F2
sVmonth,
p8122
F1
sVessentiall
p8123
F1
sVprouidence
p8124
F18
sVreserued,
p8125
F1
sVextremitie,
p8126
F1
sVsubiects;
p8127
F1
sVkeeping
p8128
F1
sVdeprauing
p8129
F1
sVlaquaies,
p8130
F1
sVoftentimes
p8131
F3
sVmightie
p8132
F1
sVwitnesse
p8133
F4
sVpurely
p8134
F1
sVcarbunkles;
p8135
F1
sVbrother
p8136
F13
sVcloudy
p8137
F1
sVbest:
p8138
F1
sVcouched
p8139
F1
sVsighes
p8140
F14
sVwhore
p8141
F1
sVenow
p8142
F1
sVwherof
p8143
F3
sVpeepe
p8144
F1
sVdoeth
p8145
F1
sVsunne,
p8146
F2
sVdrinke
p8147
F2
sVsakes,
p8148
F1
sVsayd
p8149
F1
sVpedlers
p8150
F1
sVbeseeching
p8151
F3
sVmolest
p8152
F1
sVdrinks
p8153
F1
sVappearing,
p8154
F1
sVstands
p8155
F4
sVaccomplish,
p8156
F1
sVcontracted
p8157
F6
sVremain
p8158
F1
sVagrees
p8159
F1
sVferuent,
p8160
F2
sVaffoords
p8161
F1
sVloden
p8162
F1
sVgoes
p8163
F10
sVtormentor
p8164
F1
sVbeautifull
p8165
F2
sVperswades
p8166
F1
sVbereaue
p8167
F2
sVnearer
p8168
F1
sVfaithfull
p8169
F4
sVwater
p8170
F2
sVafternoone,
p8171
F2
sVwayes
p8172
F3
sVsay,
p8173
F14
sVhaire
p8174
F4
sVsay)
p8175
F3
sVbearer,
p8176
F1
sVenuie.
p8177
F1
sVlikewise,
p8178
F1
sVdistast,
p8179
F1
sVgoe,
p8180
F1
sVguilty
p8181
F5
sVhearkens
p8182
F1
sVfryers
p8183
F1
sVdepaynted
p8184
F1
sVdescended
p8185
F4
sVdreamt,
p8186
F1
sVstand,
p8187
F3
sVdistast:
p8188
F1
sVpearle
p8189
F2
sVhatefull,
p8190
F1
sVhumour
p8191
F3
sVbesought
p8192
F4
sVsharpely
p8193
F2
sVstraineth
p8194
F1
sVdyes,
p8195
F1
sVdisparagement)
p8196
F1
sVdisparagement,
p8197
F1
sVhandled
p8198
F1
sVrasing
p8199
F1
sVfortunacy
p8200
F1
sVmemory
p8201
F6
sVvnheard
p8202
F1
sVdrowned;
p8203
F1
sVblacke.
p8204
F1
sVthree:
p8205
F1
sVthree;
p8206
F1
sVvenice,
p8207
F1
sVthundred
p8208
F1
sVribbes:
p8209
F1
sVparlor,
p8210
F1
sVthree,
p8211
F6
sVdrown
p8212
F1
sVdrowned,
p8213
F2
sVdenies,
p8214
F1
sVpre-
p8215
F1
sVsheds
p8216
F1
sVbonds,
p8217
F1
sVwrong,
p8218
F1
sVsauoured
p8219
F3
sVmalitious
p8220
F1
sVpopulous,
p8221
F1
sVdenie:
p8222
F1
sVwrong;
p8223
F1
sVlaughter
p8224
F2
sVfruites
p8225
F1
sVperformes
p8226
F3
sVviceroy
p8227
F2
sVcorrupted
p8228
F1
sVendowing
p8229
F1
sVplentifull
p8230
F1
sVvnpolluted
p8231
F1
sVstroke
p8232
F1
sVledde
p8233
F1
sVperformed
p8234
F2
sVbuissyes
p8235
F1
sVbleare
p8236
F3
sVbloud-hounds)
p8237
F1
sVsecured
p8238
F2
sVwinds:
p8239
F1
sVspeake
p8240
F17
sVaffirmes
p8241
F1
sVforgetfulnesse,
p8242
F1
sVfourth
p8243
F2
sVspeaks
p8244
F1
sVvarennes
p8245
F1
sVnarrowly
p8246
F1
sVinforme
p8247
F8
sVdeuils;
p8248
F1
sVnaples:
p8249
F1
sVperforme;
p8250
F2
sVconcupiscence,
p8251
F3
sVtrickling
p8252
F1
sVperforme,
p8253
F5
sVmounsieur
p8254
F1
sVdeuils,
p8255
F3
sVwounds?
p8256
F1
sVsecure,
p8257
F1
sVwounds;
p8258
F1
sVinstruments,
p8259
F1
sVsucceeded
p8260
F1
sVdifferent,
p8261
F2
sVinfidell
p8262
F1
sVhumanity;
p8263
F1
sVenemies.
p8264
F1
sVwounds,
p8265
F8
sVsecure;
p8266
F3
sVstriues
p8267
F3
sVlamented
p8268
F1
sVleuitie
p8269
F1
sVmarguerita
p8270
F1
sVinteruiew,
p8271
F1
sVsonnes
p8272
F11
sVplaced,
p8273
F1
sVpolicy,
p8274
F2
sVpolicy)
p8275
F1
sVcourtisan
p8276
F3
sVhence.
p8277
F1
sVvnquenchable
p8278
F1
sVchristians,
p8279
F1
sVabhorred
p8280
F1
sVascended
p8281
F1
sVsoone
p8282
F41
sVmeridian
p8283
F2
sVdimme
p8284
F1
sVvaile
p8285
F2
sVconceits;
p8286
F1
sV(her
p8287
F3
sVouertaken
p8288
F1
sVsonne;
p8289
F1
sVbound
p8290
F7
sVqualified
p8291
F1
sVouertakes
p8292
F1
sVsonne.
p8293
F3
sVsonne,
p8294
F26
sVconceits,
p8295
F2
sVreseruation
p8296
F1
sVname
p8297
F15
sVpierceth
p8298
F1
sVcorners
p8299
F1
sVprofficiency
p8300
F1
sVpangue
p8301
F1
sVweekes,
p8302
F1
sVcuriositie
p8303
F14
sVprayses,
p8304
F1
sVvmbragious
p8305
F1
sVtrunks
p8306
F1
sVaffected,
p8307
F3
sVcatching
p8308
F1
sVfarewell
p8309
F2
sVdishartened
p8310
F1
sVapothecary
p8311
F1
sVflye;
p8312
F1
sVthus:
p8313
F6
sVprofit
p8314
F1
sVtheeues
p8315
F8
sVimpalled
p8316
F1
sVthus,
p8317
F2
sVthus.
p8318
F2
sVsustaine
p8319
F1
sVvincennes
p8320
F1
sVstrangely
p8321
F1
sVwhereinto
p8322
F1
sVattended
p8323
F3
sVbolts
p8324
F1
sVdispatched
p8325
F1
sVrepentance:)
p8326
F1
sVflyes
p8327
F2
sVbrowes
p8328
F1
sVinterring
p8329
F1
sVdelude
p8330
F3
sVstayres
p8331
F2
sVmind.
p8332
F1
sVduell;
p8333
F1
sVmotion
p8334
F5
sVgusts
p8335
F1
sVplace
p8336
F21
sVbroached
p8337
F1
sVtruer
p8338
F3
sVconducing
p8339
F2
sVvnkindnesse:
p8340
F1
sVfetched
p8341
F3
sVmeane,
p8342
F1
sVequals,
p8343
F1
sVincongruous
p8344
F1
sVgreatest,
p8345
F1
sVmistresse
p8346
F2
sVtemper,
p8347
F1
sVscattereth
p8348
F1
sVitaly:
p8349
F1
sVreturne
p8350
F15
sVrayes
p8351
F1
sVpersons,
p8352
F2
sVapproues:
p8353
F1
sVmaiestie
p8354
F2
sVwindowes,
p8355
F2
sVcooling
p8356
F2
sVchastity
p8357
F3
sVbounty
p8358
F1
sVwhite
p8359
F5
sVeasier
p8360
F1
sVseduced
p8361
F4
sVcombate,
p8362
F1
sVbraue
p8363
F5
sVmorrow,
p8364
F3
sVrefuse
p8365
F5
sValas
p8366
F9
sVmilitarie
p8367
F1
sVschooles
p8368
F2
sVwide
p8369
F1
sVearth:
p8370
F2
sVearth;
p8371
F2
sVrequire
p8372
F1
sVfeafull
p8373
F1
sVsmiles,
p8374
F1
sVoath
p8375
F6
sVearth,
p8376
F15
sVand
p8377
F4384
sVfall;
p8378
F2
sVconfessed
p8379
F1
sVfall,
p8380
F1
sVoperated
p8381
F1
sVfall.
p8382
F1
sVseane
p8383
F1
sVpastime
p8384
F1
sVhearers,
p8385
F1
sVany
p8386
F103
sVoutragiously
p8387
F1
sVprosperity
p8388
F2
sVseedes
p8389
F1
sVfantasticall
p8390
F1
sVcaptaines
p8391
F3
sVseruice;
p8392
F1
sVlate,
p8393
F1
sVresembling
p8394
F2
sVinfernall
p8395
F13
sVstormes
p8396
F7
sVconfesse,
p8397
F2
sVhopping,
p8398
F1
sVgrauitie;
p8399
F1
sVfalls
p8400
F8
sVconfesse;
p8401
F1
sVtholouse
p8402
F20
sVfornication:
p8403
F1
sVcleared
p8404
F2
sVinke
p8405
F2
sVconsidered
p8406
F1
sVproue
p8407
F11
sVsteere
p8408
F2
sVpores
p8409
F1
sVbehooues
p8410
F2
sVidea,
p8411
F1
sVliue
p8412
F35
sVprophane,
p8413
F1
sVsame.
p8414
F3
sVperpetrated
p8415
F3
sVcaualeir
p8416
F1
sVsecretly:
p8417
F1
sVapplauding
p8418
F1
sVvncontrouleable
p8419
F1
sVaene
p8420
F1
sVmortall,
p8421
F2
sVsecretly,
p8422
F1
sVdistempered
p8423
F1
sVvpon
p8424
F43
sVbeleagred,
p8425
F1
sVplentifully
p8426
F1
sVobstinacy
p8427
F1
sVcrime
p8428
F14
sVroote
p8429
F1
sVwood
p8430
F1
sVstreetes
p8431
F1
sVmadnesse;
p8432
F3
sVpreuented
p8433
F2
sVossa
p8434
F1
sVfatherly
p8435
F1
sVperpetrate,
p8436
F2
sVsillables
p8437
F1
sVbegging
p8438
F1
sVexpectation
p8439
F4
sVcommand)
p8440
F1
sVgracing
p8441
F1
sVprophanenesse
p8442
F1
sVdye
p8443
F15
sVsuggest
p8444
F3
sVtreachery
p8445
F3
sVmistresse,
p8446
F1
sVmewed
p8447
F2
sVimpetuositie
p8448
F2
sVnaked
p8449
F4
sVhoped,
p8450
F3
sVbye,
p8451
F1
sVcitie,
p8452
F12
sVcaractered
p8453
F1
sVoutcryes
p8454
F1
sVhenceforth,
p8455
F1
sVvoyce
p8456
F2
sVouer
p8457
F18
sVcitie:
p8458
F3
sVdaughters,
p8459
F9
sVprofessed
p8460
F5
sVencouraged
p8461
F2
sVsuccesse;
p8462
F1
sVdetect
p8463
F4
sVsalepin
p8464
F3
sVmanaging
p8465
F1
sVdisloyall,
p8466
F1
sVsiknesse,
p8467
F1
sVwayt
p8468
F1
sVweapons
p8469
F1
sVfaile
p8470
F4
sVstaine
p8471
F1
sVeschew,
p8472
F1
sVanew
p8473
F1
sVhonnoryes
p8474
F1
sVinseparable
p8475
F1
sVarteries
p8476
F1
sVviolate:
p8477
F1
sVvniust,
p8478
F2
sVcome
p8479
F25
sVway;
p8480
F1
sVrecourse,
p8481
F1
sVsumme
p8482
F1
sVvices,
p8483
F2
sVfountaines,
p8484
F1
sVhis,
p8485
F27
sVhis.
p8486
F2
sVcontract
p8487
F1
sVpropagation
p8488
F1
sVvices;
p8489
F1
sVway.
p8490
F1
sVwherin
p8491
F7
sVtwelue
p8492
F2
sVhis:
p8493
F4
sVhis;
p8494
F4
sVsobriety,
p8495
F1
sVmerry
p8496
F3
sVcharity,
p8497
F1
sVhereunto
p8498
F2
sVperiod
p8499
F1
sVparracyde
p8500
F1
sVsatisfaction
p8501
F5
sVprayer,
p8502
F4
sVaccordingly
p8503
F5
sVprecious
p8504
F1
sVaccuse,
p8505
F3
sVshop,
p8506
F2
sVscandalous
p8507
F1
sVerrour,
p8508
F1
sVsubscribes
p8509
F1
sVfolkes
p8510
F1
sVsympathie
p8511
F1
sVcords
p8512
F1
sVpromises,
p8513
F3
sVhardly
p8514
F11
sVdissasterous
p8515
F1
sVdirection
p8516
F2
sVcertainly
p8517
F1
sVexasperate
p8518
F1
sVrobbed
p8519
F5
sVblessing
p8520
F3
sVbrother;
p8521
F1
sVtaffety
p8522
F1
sVmocking
p8523
F1
sVburied,
p8524
F2
sVinfinite,
p8525
F4
sVchampions
p8526
F1
sVpilot
p8527
F2
sVpaying
p8528
F1
sVconfession)
p8529
F1
sVfiends
p8530
F2
sVattyre,
p8531
F1
sVmount
p8532
F3
sVlaughters,
p8533
F1
sVlife;
p8534
F5
sVlife:
p8535
F3
sVcast
p8536
F9
sVnetled
p8537
F1
sVxiii
p8538
F1
sVmoddest
p8539
F1
sVlife.
p8540
F8
sVlife,
p8541
F32
sVvainely
p8542
F2
sVlife)
p8543
F3
sVcourteously,
p8544
F1
sVcrook-backt
p8545
F1
sVvnessayed,
p8546
F1
sVpalliate
p8547
F1
sVconfident,
p8548
F4
sVaffrighted
p8549
F3
sVcourteously;
p8550
F1
sVyeeld,
p8551
F1
sVsinne,
p8552
F9
sVsides,
p8553
F2
sVsinne)
p8554
F1
sVauthor
p8555
F3
sVgranted
p8556
F3
sVlocking
p8557
F1
sVyongest
p8558
F1
sVsides?
p8559
F2
sVattributing
p8560
F1
sVpriuiledge,
p8561
F1
sVsinne;
p8562
F1
sVsinne:
p8563
F1
sVfrequented
p8564
F3
sVyeelds
p8565
F1
sVlookes,
p8566
F7
sVvowes
p8567
F31
sVsinceritie
p8568
F1
sVcouple,
p8569
F1
sVpersons
p8570
F2
sVdelicate
p8571
F1
sVstatue
p8572
F1
sVmuffles
p8573
F1
sVproceeds,
p8574
F1
sVvowed
p8575
F4
sVlookes;
p8576
F1
sVfasting
p8577
F1
sVpreverte
p8578
F1
sVfiftie:
p8579
F1
sVtournelles
p8580
F1
sVpriuiledges
p8581
F2
sVwithout
p8582
F35
sVit:
p8583
F26
sVpriuiledged
p8584
F1
sVeighteene
p8585
F2
sVsinnes
p8586
F8
sVguided
p8587
F1
sVactions
p8588
F9
sVhusbands,
p8589
F4
sVclou
p8590
F1
sVviolent
p8591
F4
sVclow
p8592
F1
sVkill
p8593
F15
sVbelongs:
p8594
F1
sVimpressions,
p8595
F1
sVinquifitiue
p8596
F1
sVkild
p8597
F1
sVguides
p8598
F1
sVquality;
p8599
F1
sVspeedyer
p8600
F1
sVdiscerne
p8601
F1
sVrose
p8602
F1
sVpossible,
p8603
F2
sVregent
p8604
F2
sVexcept
p8605
F7
sVgiddinesse
p8606
F1
sVlets
p8607
F1
sVinterested
p8608
F1
sVquality,
p8609
F1
sVhind
p8610
F1
sVseeme
p8611
F13
sVreformed
p8612
F1
sVpossible:
p8613
F1
sVrendred
p8614
F1
sVshoulder:
p8615
F1
sVkills
p8616
F1
sVfauour
p8617
F6
sVinforce
p8618
F2
sVmans:
p8619
F1
sVinordinate
p8620
F1
sVcourages)
p8621
F1
sVaction,
p8622
F3
sVguide:
p8623
F1
sVstyled
p8624
F1
sVconfined
p8625
F1
sVaccepted
p8626
F2
sVmans,
p8627
F1
sVvniuersall
p8628
F2
sVreuelling
p8629
F2
sVpremises,
p8630
F1
sVvnfortunate
p8631
F8
sVhappinesse
p8632
F2
sVbracelet
p8633
F1
sVwoman,
p8634
F5
sVreduced
p8635
F6
sVbatchelorship
p8636
F1
sVfreed,
p8637
F1
sVworldly
p8638
F1
sVseruice
p8639
F3
sVpacifie
p8640
F2
sVenormities
p8641
F1
sVfunerall
p8642
F1
sVtable
p8643
F1
sVeuenings
p8644
F1
sVperuse;
p8645
F1
sVo,
p8646
F2
sVswaps
p8647
F2
sVobey.
p8648
F1
sVobey,
p8649
F1
sVbrauest
p8650
F1
sVcorespond
p8651
F1
sVremedie,
p8652
F1
sVcouncellour
p8653
F2
sVobey;
p8654
F1
sVfreed
p8655
F3
sVterrifies
p8656
F1
sVinuectiue,
p8657
F1
sVeuening,
p8658
F1
sVcryminell
p8659
F2
sVvaine
p8660
F10
sVroyall
p8661
F1
sVcalmes
p8662
F1
sVcaptiuitie)
p8663
F1
sVcaptiuitie,
p8664
F1
sVon
p8665
F179
sVgrieues,
p8666
F2
sVoh
p8667
F4
sVof
p8668
F2207
sVinforming
p8669
F1
sVmutually
p8670
F3
sVwhence
p8671
F6
sVstand
p8672
F5
sVequalize
p8673
F1
sVfree,
p8674
F1
sVrecompenced,
p8675
F1
sVirksomnesse
p8676
F1
sVor
p8677
F384
sVinnocency;
p8678
F1
sVaccedent,
p8679
F1
sVladies
p8680
F16
sVdetestation;
p8681
F1
sVclugny's
p8682
F2
sVoccasions,
p8683
F4
sVcurses
p8684
F1
sVyeares:
p8685
F1
sVinstruments
p8686
F2
sViniustice,
p8687
F1
sVcursed
p8688
F1
sVdetestation,
p8689
F4
sVdetestation.
p8690
F1
sVrise,
p8691
F1
sVnames,
p8692
F2
sVyeares)
p8693
F2
sVyeares,
p8694
F8
sVwhatsoeuer.
p8695
F1
sVcalamities
p8696
F1
sVstrictly
p8697
F1
sVthere
p8698
F97
sVstrict
p8699
F3
sVextolled
p8700
F1
sVvalley
p8701
F1
sVtranquilitie,
p8702
F2
sVeuasions
p8703
F1
sVcousummation
p8704
F1
sVrelie
p8705
F2
sVregard
p8706
F12
sVskies:
p8707
F1
sV(ioyntly)
p8708
F1
sVbaggage:
p8709
F1
sVcomforter.
p8710
F1
sVcurse.
p8711
F1
sVweeds,
p8712
F1
sVtouch't
p8713
F1
sVhearkeneth
p8714
F1
sVmultiplicity
p8715
F1
sVexhaled,
p8716
F1
sVhazard,
p8717
F1
sVvnited
p8718
F3
sVcalamitie,
p8719
F2
sVmortall
p8720
F2
sVcastles
p8721
F2
sVremedies
p8722
F1
sVwords:
p8723
F6
sViustification:
p8724
F1
sVtaste
p8725
F1
sVmonteleone
p8726
F4
sVpillow;
p8727
F1
sVbullet)
p8728
F1
sVresearch,
p8729
F1
sViustification,
p8730
F1
sVwords,
p8731
F5
sVhearts.
p8732
F1
sVhearts,
p8733
F8
sVorchards
p8734
F1
sVspends
p8735
F2
sVtransport,
p8736
F1
sVdenyed
p8737
F1
sVlamentation,
p8738
F1
sVdiscerned
p8739
F1
sVswords
p8740
F1
sVdenyes
p8741
F2
sVroses
p8742
F3
sVnoblemen
p8743
F2
sVstumbles
p8744
F1
sVrequested
p8745
F3
sVbriefly
p8746
F6
sVmeritorious
p8747
F1
sVwinking
p8748
F1
sVconspiracies
p8749
F1
sVpraier
p8750
F1
sVcontradicted
p8751
F3
sVstocke
p8752
F1
sVdishonour
p8753
F1
sVcourtly
p8754
F1
sVbullets
p8755
F1
sVchristian-like
p8756
F1
sVinscrutable:
p8757
F1
sVpoynts,
p8758
F1
sVcalls
p8759
F3
sVwife
p8760
F31
sVsword,
p8761
F1
sVbookes
p8762
F3
sVtreason
p8763
F1
sVpietie
p8764
F7
sVdeiecting
p8765
F2
sVtransports
p8766
F1
sVneighbors
p8767
F1
sVall
p8768
F220
sVdisconsolation,
p8769
F1
sVexecuting
p8770
F1
sVwishes;
p8771
F1
sVbarons
p8772
F1
sVfollow
p8773
F10
sVmeditation
p8774
F2
sVbeats,
p8775
F1
sVreluctation
p8776
F1
sVaffliction,
p8777
F5
sVwanton
p8778
F1
sVcatastrophe
p8779
F1
sVhomage
p8780
F2
sVopportunities
p8781
F1
sVreuiue
p8782
F1
sVsuperiours,
p8783
F2
sVweake
p8784
F9
sVbloudy
p8785
F3
sVsetled
p8786
F3
sVwoman
p8787
F1
sVworse
p8788
F2
sVinhumanly
p8789
F4
sVstifleth
p8790
F1
sVinduce
p8791
F2
sVladder,
p8792
F3
sVworst
p8793
F2
sVmichaeles
p8794
F1
sVretrou
p8795
F1
sVmayne:
p8796
F1
sVlillie
p8797
F1
sVregiments
p8798
F1
sVopportunitie,
p8799
F1
sVrods,
p8800
F1
sVsignifie
p8801
F3
sVperswaded,
p8802
F1
sVfamiliarly
p8803
F2
sVtel
p8804
F1
sVten
p8805
F9
sVdirection,
p8806
F1
sVdirection;
p8807
F1
sVrate
p8808
F1
sVcourtezans
p8809
F2
sVseuenteene,
p8810
F1
sVcompasse
p8811
F5
sVbartholomeo
p8812
F1
sVwhat
p8813
F79
sVimported
p8814
F1
sVfreely,
p8815
F2
sVperswasion:
p8816
F1
sVdeeply
p8817
F5
sVlambe-skin
p8818
F1
sVinsteed
p8819
F1
sVnuptials,
p8820
F1
sVcrush
p8821
F2
sVfaltered
p8822
F1
sVsup
p8823
F1
sVnuptials:
p8824
F1
sVdames:
p8825
F1
sVperswasion,
p8826
F1
sVgull'd
p8827
F1
sVchristian
p8828
F20
sVpen.
p8829
F1
sVfollowes
p8830
F2
sVathiest
p8831
F1
sVgastly
p8832
F1
sVraked
p8833
F1
sVvarnish
p8834
F2
sVwhen,
p8835
F5
sVtragedy
p8836
F5
sVperswasions
p8837
F1
sVespying
p8838
F1
sVextraordinary
p8839
F1
sVlightned
p8840
F1
sVinfringe
p8841
F3
sVhaue)
p8842
F1
sVhaue,
p8843
F3
sVmust,
p8844
F3
sVexamineth
p8845
F2
sVsuddenly
p8846
F8
sVknow:
p8847
F1
sValcumists
p8848
F1
sVschoole-master,
p8849
F1
sVknow.
p8850
F1
sVexamines
p8851
F1
sVknow,
p8852
F9
sVdeuills
p8853
F1
sVhorse,
p8854
F11
sVleuity,
p8855
F1
sVproceed
p8856
F7
sVthereby,
p8857
F1
sVpensiue,
p8858
F1
sVenteruiew,
p8859
F1
sVvrania
p8860
F1
sVthereby:
p8861
F1
sVconspiring
p8862
F1
sVpost,
p8863
F1
sVrustie
p8864
F1
sVobtayning
p8865
F1
sVsinging,
p8866
F2
sVdeuill,
p8867
F16
sVfearfull,
p8868
F1
sVdeuill)
p8869
F1
sVknowe
p8870
F2
sVdeuill:
p8871
F2
sVdeuill;
p8872
F1
sVknown
p8873
F1
sVglad
p8874
F3
sVdegree,
p8875
F1
sVacquaints
p8876
F9
sVfarre,
p8877
F4
sVlawes,
p8878
F1
sVexpell,
p8879
F1
sVduety
p8880
F2
sVpont
p8881
F1
sVconspire
p8882
F2
sVrankes,
p8883
F1
sVhearted
p8884
F1
sVweaknesse,
p8885
F1
sVarise
p8886
F1
sVdighted
p8887
F2
sVpond
p8888
F1
sVinstigation
p8889
F2
sVstore,
p8890
F1
sVcourt
p8891
F10
sVratiocynation,
p8892
F1
sVdesperation
p8893
F1
sVrather
p8894
F86
sVhers;
p8895
F4
sVhers:
p8896
F6
sVbrittish
p8897
F1
sVfeareth
p8898
F1
sVpublikely,
p8899
F3
sVhers)
p8900
F1
sVsencible;
p8901
F1
sVbelly,
p8902
F1
sVhers,
p8903
F11
sVmusick
p8904
F1
sVhers.
p8905
F5
sVdeuil
p8906
F1
sVsimplicity
p8907
F1
sVproclaimes
p8908
F1
sVconsolations,
p8909
F2
sVreflect
p8910
F2
sVioynter
p8911
F1
sVcarelesnesse
p8912
F1
sVconsolations:
p8913
F1
sVshort
p8914
F12
sVchiefly
p8915
F6
sVinfluence,
p8916
F2
sVveines:
p8917
F1
sVdeparture
p8918
F5
sVwhence,
p8919
F1
sVespecially,
p8920
F3
sVinfluence;
p8921
F1
sVinstruction,
p8922
F1
sVempericke
p8923
F8
sVessence
p8924
F1
sVquarrell
p8925
F1
sVempericks
p8926
F1
sVpretext
p8927
F1
sVtheeues;
p8928
F2
sVpray
p8929
F15
sVinward
p8930
F5
sVstrange
p8931
F7
sVnephew.
p8932
F1
sVtheeues,
p8933
F2
sVtheeues.
p8934
F1
sVlippes
p8935
F2
sVmight
p8936
F29
sValter
p8937
F1
sVanguish,
p8938
F1
sVriuer
p8939
F2
sVcantons
p8940
F2
sVmiddest
p8941
F3
sVmorges
p8942
F18
sVwitnesses,
p8943
F1
sVmaiesty
p8944
F3
sVauersnesse
p8945
F1
sVhunted
p8946
F1
sVexample,
p8947
F2
sVbest,
p8948
F2
sVinequality
p8949
F1
sVletting
p8950
F1
sVinherent
p8951
F1
sVgospell:
p8952
F1
sVfriendship
p8953
F3
sVouerblowen,
p8954
F2
sVrashly,
p8955
F1
sVintemperat
p8956
F1
sVcolder
p8957
F1
sVcouer
p8958
F1
sVsurprize
p8959
F1
sVexpect
p8960
F7
sVinflict
p8961
F2
sVbookes;
p8962
F2
sVcleared,
p8963
F1
sVbookes,
p8964
F5
sVhealth
p8965
F3
sVhearken
p8966
F6
sVinduced
p8967
F1
sVconge
p8968
F1
sVprouiding
p8969
F3
sVsecurity,
p8970
F1
sVheads
p8971
F7
sVteach
p8972
F6
sVguest
p8973
F1
sVthrown
p8974
F2
sVfalles
p8975
F5
sVexecration
p8976
F1
sVl'avall,
p8977
F1
sVthreefold
p8978
F1
sVthreatnes
p8979
F1
sVbeleeuing
p8980
F1
sVdislikes
p8981
F1
sVfallen
p8982
F2
sVfeed
p8983
F3
sVinformations
p8984
F1
sVdine
p8985
F2
sVfamily,
p8986
F1
sVseeming
p8987
F3
sVrelate
p8988
F1
sVfancy
p8989
F1
sVfeet
p8990
F1
sVsympathy
p8991
F1
sVdefects
p8992
F2
sVcorporall
p8993
F1
sVvnto?
p8994
F1
sVswart
p8995
F1
sVhangs
p8996
F3
sVenormitie
p8997
F3
sVthoughts;
p8998
F1
sVthoughts:
p8999
F2
sVlegges,
p9000
F1
sVhange
p9001
F2
sVhangd
p9002
F1
sV(his
p9003
F3
sVimmediat
p9004
F1
sVtemptations
p9005
F1
sVreposed
p9006
F1
sVbedeawe
p9007
F1
sVimbrew
p9008
F1
sVimprinted
p9009
F4
sVadonis
p9010
F1
sVvindication
p9011
F1
sVking
p9012
F7
sVkind
p9013
F10
sVplainly,
p9014
F1
sVdouble
p9015
F5
sVadamants
p9016
F1
sVatumne
p9017
F1
sVharping
p9018
F1
sVthinkes
p9019
F18
sVreproued
p9020
F1
sVcontemned)
p9021
F1
sVpasse.
p9022
F1
sVpasse,
p9023
F2
sVtongues
p9024
F1
sVvertue
p9025
F29
sVvizard
p9026
F1
sVassaults,
p9027
F1
sVdainties
p9028
F1
sValleaging
p9029
F1
sVdetestation
p9030
F4
sVgall
p9031
F3
sV(although
p9032
F2
sVwindow:
p9033
F1
sVgriese
p9034
F1
sVrichly,
p9035
F1
sVport
p9036
F1
sVget;
p9037
F1
sVwindow,
p9038
F4
sVfinding
p9039
F7
sVvertues:
p9040
F2
sVvertues;
p9041
F2
sVinstigator
p9042
F1
sVadded
p9043
F3
sVdistaste
p9044
F2
sVtongue:
p9045
F2
sVvndertakes
p9046
F1
sVinflam'd
p9047
F2
sVmay-game
p9048
F1
sVaddes
p9049
F2
sVvertues,
p9050
F3
sVnothing
p9051
F25
sVdispierce
p9052
F1
sVtongue.
p9053
F1
sVtongue,
p9054
F7
sVfriuolous:
p9055
F1
sVpart;
p9056
F1
sVimitation:
p9057
F1
sVwindows
p9058
F2
sVnight:
p9059
F1
sVnight;
p9060
F2
sVgangreene
p9061
F1
sVhyena
p9062
F1
sVforerunner
p9063
F1
sVgrennelles
p9064
F1
sVdisturbed
p9065
F1
sVdesemble
p9066
F1
sVnight,
p9067
F14
sVsafety;
p9068
F1
sVlying
p9069
F2
sVstones
p9070
F1
sVkniues,
p9071
F1
sVhealth:
p9072
F1
sVbeard,
p9073
F1
sVdeformed,
p9074
F1
sVfond
p9075
F2
sVvigilency
p9076
F1
sVdeformed;
p9077
F1
sVretyred
p9078
F1
sVmelody
p9079
F1
sVvncapeable
p9080
F1
sVdilation
p9081
F1
sVdeserts
p9082
F1
sVdecently,
p9083
F1
sVdiscouered
p9084
F3
sVbetray
p9085
F6
sVnecke,
p9086
F2
sVsure
p9087
F10
sVhis
p9088
F1781
sVmiseries,
p9089
F2
sVlament,
p9090
F1
sVfountaines
p9091
F1
sVmiseries:
p9092
F2
sVgaine
p9093
F1
sVlongest
p9094
F1
sVdistastfull;
p9095
F1
sVvasselay:
p9096
F2
sVretyre,
p9097
F1
sVhim
p9098
F431
sVdeceiued,
p9099
F1
sVstone,
p9100
F1
sVlouer,
p9101
F5
sVinsensibly
p9102
F1
sVcries
p9103
F6
sVauarice,
p9104
F1
sVhealth,
p9105
F1
sVheaping
p9106
F1
sVinsensible
p9107
F1
sVinteruening
p9108
F1
sVart
p9109
F26
sVcity,
p9110
F4
sVintelligence
p9111
F5
sVaffection)
p9112
F1
sVvayle
p9113
F1
sVare
p9114
F182
sVcommaund
p9115
F3
sVcompacted
p9116
F1
sVfind.
p9117
F1
sVfind,
p9118
F3
sVthreats
p9119
F4
sVmerits,
p9120
F1
sVliuing,
p9121
F1
sVfind;
p9122
F1
sVcorruption
p9123
F1
sVafter,
p9124
F2
sVafter.
p9125
F2
sVafter)
p9126
F1
sVchamber,
p9127
F19
sVchamber-
p9128
F1
sVapprooue
p9129
F1
sVsole
p9130
F9
sVwonder.
p9131
F1
sVcondigne
p9132
F4
sVopposition
p9133
F1
sVafter;
p9134
F1
sVcompetent
p9135
F2
sVgrauity,
p9136
F1
sVanswereth
p9137
F6
sVrelying
p9138
F3
sVsuffred
p9139
F1
sVc
F26
sVsubuersion
p9140
F1
sVexcesse
p9141
F7
sVfalse,
p9142
F4
sVfinde
p9143
F14
sVformer:
p9144
F1
sVballance
p9145
F1
sVbecame
p9146
F3
sVformer.
p9147
F1
sVcouragious
p9148
F1
sVformer,
p9149
F2
sVfinds
p9150
F25
sVcomforts,
p9151
F1
sVflies
p9152
F5
sVreasons
p9153
F14
sVsweet
p9154
F42
sVopposite)
p9155
F1
sVharbour
p9156
F1
sVnipping
p9157
F1
sVvillage
p9158
F2
sVthere,
p9159
F4
sVagree
p9160
F2
sVmarch,
p9161
F1
sVconfesse
p9162
F2
sVdue
p9163
F7
sVwhom
p9164
F65
sVrerepents
p9165
F1
sVplant,
p9166
F1
sVreason;
p9167
F2
sVreason:
p9168
F2
sVdebasing
p9169
F1
sVflight
p9170
F3
sVforeseeing
p9171
F1
sVshoots
p9172
F1
sVmanfrelle
p9173
F7
sVsence,
p9174
F1
sVrebanded
p9175
F1
sVdemand
p9176
F2
sVingrayne
p9177
F1
sVdustie,
p9178
F1
sVenuy,
p9179
F3
sVfrozen
p9180
F6
sVbeauty.
p9181
F1
sVbeauty,
p9182
F4
sVindignation
p9183
F4
sVwho,
p9184
F1
sVmaruell,
p9185
F1
sVcompassion;
p9186
F1
sVprotestations,
p9187
F1
sVparents)
p9188
F2
sVbeauty;
p9189
F1
sVparents,
p9190
F17
sVintermixing
p9191
F2
sVenriching
p9192
F1
sVstand;
p9193
F1
sVobstacle
p9194
F2
sV(affection
p9195
F1
sVrid
p9196
F3
sVconstancy.
p9197
F1
sVconstancy,
p9198
F2
sVaway.
p9199
F1
sVaway,
p9200
F6
sVshirt
p9201
F1
sVconfesseth;
p9202
F1
sVtempted;
p9203
F1
sVobseruation
p9204
F1
sVesteemes
p9205
F1
sVlieunant,
p9206
F1
sVaway;
p9207
F2
sVaway:
p9208
F2
sVconfesseth)
p9209
F1
sVmanners,
p9210
F2
sVproposeth
p9211
F3
sVconfesseth,
p9212
F4
sVdaughters
p9213
F12
sVmanners)
p9214
F1
sVmurthered:
p9215
F1
sVmurthered;
p9216
F1
sVfastens
p9217
F1
sVmurthered,
p9218
F1
sVmurthered.
p9219
F1
sVrestraine
p9220
F2
sVbuilt
p9221
F2
sVdaughter,
p9222
F12
sVdaughter.
p9223
F2
sVdaughter)
p9224
F2
sVdeterre
p9225
F3
sVsolemnity
p9226
F1
sVpeople,
p9227
F5
sVrequesteth
p9228
F1
sVesteeme,
p9229
F1
sVedge
p9230
F1
sV(some
p9231
F2
sVdaughter;
p9232
F2
sVdaughter:
p9233
F2
sVdares
p9234
F3
sVplotted
p9235
F2
sVpeople;
p9236
F1
sV(replyed
p9237
F1
sVbedde
p9238
F2
sVplaces,
p9239
F2
sVpropension
p9240
F1
sVprince
p9241
F3
sVdistaste,
p9242
F3
sVimpaire
p9243
F1
sVwilfull
p9244
F1
sVoffices;
p9245
F1
sVspeedily
p9246
F15
sVpreuented:
p9247
F1
sVexhibition
p9248
F1
sVtormented
p9249
F1
sVoffices,
p9250
F1
sVfindes
p9251
F4
sVbedd,
p9252
F1
sVmeanes,
p9253
F11
sVquestion,
p9254
F2
sVsomtimes
p9255
F1
sVmeanes:
p9256
F1
sVmeanes;
p9257
F1
sVresplendant
p9258
F3
sVpate,
p9259
F1
sVdispayring
p9260
F1
sVquestion;
p9261
F1
sVfinde,
p9262
F2
sVanimositie
p9263
F1
sVheereat,
p9264
F2
sVciuility
p9265
F1
sVcollect
p9266
F2
sVitalians
p9267
F1
sVcapitall
p9268
F3
sVbreedes
p9269
F2
sVviolent,
p9270
F1
sVheereat:
p9271
F1
sVtable,
p9272
F5
sVadiew
p9273
F1
sVpestered
p9274
F1
sVcomely,
p9275
F1
sVage:
p9276
F3
sVwomen,
p9277
F2
sVquenched:
p9278
F1
sVprop
p9279
F1
sVdisguising
p9280
F1
sVcitties
p9281
F1
sVwomen?
p9282
F1
sVpreseruation)
p9283
F1
sVvs,
p9284
F12
sVmartin
p9285
F2
sVrefused
p9286
F1
sVwayting-mayd
p9287
F1
sVconsolation
p9288
F3
sVsuppe
p9289
F1
sVseueritie
p9290
F1
sVcautious
p9291
F4
sVage.
p9292
F1
sVgreets
p9293
F1
sVauxilary
p9294
F1
sVdebarred,
p9295
F1
sVhatred
p9296
F4
sVconquest
p9297
F2
sVsilk-man)
p9298
F1
sVsonns
p9299
F1
sVquestion
p9300
F1
sVfast
p9301
F4
sVcooke-mayd,
p9302
F1
sVeuent
p9303
F3
sVsonne
p9304
F42
sVlasciuiously
p9305
F2
sVsolidity
p9306
F1
sVproofe
p9307
F3
sVcloth
p9308
F1
sVattribute
p9309
F1
sVfled,
p9310
F1
sViealous
p9311
F4
sVcountrey,
p9312
F1
sVcalles
p9313
F8
sVfrier
p9314
F1
sVweares
p9315
F1
sVcalled
p9316
F1
sVadministreth
p9317
F4
sVcatulus
p9318
F1
sVbreast,
p9319
F1
sVassociates
p9320
F1
sVlaciuiously
p9321
F1
sVdecency,
p9322
F1
sVmanfully
p9323
F1
sVmillan
p9324
F39
sVvaliantly:
p9325
F1
sVknowledge,
p9326
F1
sVmalicious
p9327
F6
sVhappie;
p9328
F2
sVdepart.
p9329
F1
sVknowledge:
p9330
F1
sVhappie,
p9331
F2
sVbacke
p9332
F11
sVsuffer,
p9333
F1
sVcarpi's
p9334
F5
sVhappie)
p9335
F1
sVbefore,
p9336
F4
sValarum
p9337
F1
sVinflame
p9338
F1
sVallowing
p9339
F2
sVreason,
p9340
F11
sVsuffers
p9341
F1
sVhappier
p9342
F1
sVvice
p9343
F24
sVvndoubtedly
p9344
F4
sVimpatient
p9345
F3
sVdeparts
p9346
F1
sVgripes,
p9347
F1
sVsicknesse,
p9348
F2
sVpurposes:
p9349
F1
sVremie
p9350
F1
sV(sonne
p9351
F1
sVdespise
p9352
F1
sVwinde
p9353
F2
sVcurtesan
p9354
F1
sVmurmures.
p9355
F1
sVfeet)
p9356
F1
sVdiscordant
p9357
F1
sVhooke
p9358
F1
sVvarlet
p9359
F2
sVfortified,
p9360
F1
sVseldome
p9361
F8
sVhesters
p9362
F1
sVespyed
p9363
F1
sVcouldest
p9364
F1
sVshamefull
p9365
F5
sVconstituted
p9366
F1
sVdebaush'd
p9367
F1
sVqualitie.
p9368
F1
sVpernitious
p9369
F3
sVcupboard,
p9370
F3
sVbreathing
p9371
F1
sVwished
p9372
F3
sVwind,
p9373
F1
sVstumbles,
p9374
F1
sVwishes
p9375
F2
sVdriues
p9376
F2
sVcapello's
p9377
F1
sVhang'd
p9378
F3
sVvassetay
p9379
F1
sVdeale
p9380
F1
sVscholler,
p9381
F5
sVlanguage,
p9382
F1
sVdemonstrated
p9383
F1
sVdealt
p9384
F2
sVsorrowfull
p9385
F17
sVconcluded
p9386
F2
sVvnlooked
p9387
F2
sVcap
p9388
F1
sVfolds
p9389
F1
sVcursorily
p9390
F1
sVsex,
p9391
F1
sVmalice
p9392
F21
sVdesire;
p9393
F3
sV(without
p9394
F4
sVenamoured
p9395
F2
sVplead
p9396
F1
sVdesire,
p9397
F6
sVappertaine
p9398
F1
sVobey
p9399
F1
sVblood-hounds,
p9400
F1
sV(running
p9401
F1
sVdeckes
p9402
F1
sVsecrets.
p9403
F1
sVsuggest.
p9404
F1
sVwaiting
p9405
F2
sVattire
p9406
F2
sVpleasure:
p9407
F1
sVsexe
p9408
F1
sVdesires
p9409
F31
sVconclude,
p9410
F2
sVslender:
p9411
F1
sVdesired
p9412
F6
sVkindly:
p9413
F1
sVseparation
p9414
F1
sV(wherein
p9415
F2
sVarriuall,
p9416
F1
sVslender,
p9417
F1
sVsinewes
p9418
F1
sVproouing
p9419
F2
sVauoid
p9420
F3
sVones,
p9421
F1
sVmompellier
p9422
F1
sVsuggests
p9423
F1
sVrequite
p9424
F3
sVenuites
p9425
F1
sVrelation
p9426
F7
sVmock
p9427
F1
sVchaste
p9428
F5
sVhyred
p9429
F1
sVmiscreant
p9430
F2
sVegypt
p9431
F1
sVconfession
p9432
F6
sVapt
p9433
F1
sVlodging
p9434
F2
sVapply
p9435
F1
sVpassionatly
p9436
F1
sVdetected;
p9437
F1
sVanswereth,
p9438
F1
sVfed
p9439
F1
sVfrom
p9440
F277
sVconsumption
p9441
F1
sV&
F172
sVresolues
p9442
F24
sVfew
p9443
F13
sVfauors,
p9444
F1
sVbitterly
p9445
F2
sVresolued
p9446
F18
sVpossession
p9447
F1
sVperseuere
p9448
F2
sVparliament
p9449
F7
sVporch
p9450
F1
sVpriuately,
p9451
F1
sVvntimely
p9452
F11
sVequity
p9453
F1
sVinfection
p9454
F1
sViust,
p9455
F1
sVpriuately;
p9456
F1
sVwomen
p9457
F4
sVspunge,)
p9458
F1
sVaugment
p9459
F3
sVswils
p9460
F1
sVbeautifull,
p9461
F1
sVresolue,
p9462
F2
sVpurity
p9463
F1
sVseigneor
p9464
F1
sVfamiliaritie
p9465
F3
sVrapt
p9466
F1
sVsomething
p9467
F2
sVcounterfeit,
p9468
F1
sVcounterfeit
p9469
F2
sVselues,
p9470
F3
sVheaue
p9471
F1
sVsix
p9472
F4
sVcarries
p9473
F1
sVfortunate
p9474
F3
sVselues:
p9475
F1
sVswear
p9476
F2
sVinstead
p9477
F3
sVsin
p9478
F2
sVsaued.
p9479
F1
sVcupboard
p9480
F2
sVattend
p9481
F7
sVshould;
p9482
F1
sVprotesteth
p9483
F1
sVhazard
p9484
F6
sVextinguished,
p9485
F1
sVthirst.
p9486
F1
sVabuse
p9487
F1
sVremedy.
p9488
F2
sVremedy,
p9489
F3
sVmaske
p9490
F5
sVhalfe
p9491
F5
sVmountaines,
p9492
F1
sVcleane
p9493
F1
sVsunne
p9494
F5
sVmountaines
p9495
F2
sVamorous,
p9496
F2
sVlight
p9497
F5
sVgall:
p9498
F1
sVquartell;
p9499
F1
sVconsents,
p9500
F1
sVtaylor:
p9501
F1
sVcourage
p9502
F7
sVswollen,
p9503
F1
sVhinder,
p9504
F1
sVgall,
p9505
F1
sVsummer,
p9506
F1
sVlooke
p9507
F28
sVbeauties
p9508
F4
sVextraction,
p9509
F2
sVinforced
p9510
F6
sVreeling
p9511
F2
sViustice)
p9512
F1
sViustice,
p9513
F6
sVmeager
p9514
F1
sVstampes
p9515
F1
sVdearest
p9516
F1
sVaffection;
p9517
F4
sVaffection:
p9518
F1
sViustice;
p9519
F1
sVraw
p9520
F1
sVpistoll;
p9521
F1
sVgrieued
p9522
F3
sVworld:
p9523
F5
sVworld;
p9524
F3
sVpretendest,
p9525
F1
sVworld?
p9526
F1
sVsouldier,
p9527
F3
sVouer-hearing,
p9528
F1
sVconioyned,
p9529
F1
sVpermanent
p9530
F1
sVease;
p9531
F1
sVchoose
p9532
F1
sVseeth
p9533
F1
sVworld)
p9534
F5
sVworld.
p9535
F4
sVworld,
p9536
F42
sVfauour,
p9537
F6
sVpractice
p9538
F1
sVbeautie;
p9539
F3
sVbeautie:
p9540
F1
sVannuntiation
p9541
F1
sVforeseene,
p9542
F1
sVambition
p9543
F4
sVbeautie,
p9544
F13
sVaffections
p9545
F13
sVfled
p9546
F2
sVprofound
p9547
F2
sVpowerfull
p9548
F7
sVfeast
p9549
F2
sVsouldiers
p9550
F1
sVby-
p9551
F1
sVwretch,
p9552
F4
sVmetamorphised
p9553
F1
sViudgments,
p9554
F1
sVtryumphes
p9555
F1
sVpitying
p9556
F1
sVrelated
p9557
F1
sVshowre.
p9558
F1
sVmatches
p9559
F1
sVrelates
p9560
F3
sVvertuously
p9561
F1
sVout
p9562
F74
sVperforme
p9563
F12
sVrespects
p9564
F3
sVassured.
p9565
F1
sVassured,
p9566
F6
sVdisguised,
p9567
F1
sVmachinations,
p9568
F1
sVimpart
p9569
F1
sVhonorable
p9570
F1
sVsolemnized
p9571
F1
sVrelate)
p9572
F2
sVdemaunds
p9573
F2
sVrites
p9574
F1
sVensignes
p9575
F1
sVfitts,
p9576
F1
sVrelate:
p9577
F1
sVdispleasing
p9578
F5
sVphilip
p9579
F1
sVscruteny
p9580
F1
sVmaintaine
p9581
F10
sVsuffice,
p9582
F1
sVphrases
p9583
F1
sVarraigned,
p9584
F1
sVwalls,
p9585
F1
sVvnkindnesse
p9586
F2
sVsuffice;
p9587
F1
sVsuffice:
p9588
F1
sVhence
p9589
F2
sVprecepts
p9590
F1
sVimportunatlie
p9591
F1
sVplainly
p9592
F1
sVhellish
p9593
F24
sVmaydseruant
p9594
F1
sVsleight)
p9595
F1
sVregard,
p9596
F3
sVhitherto
p9597
F1
sVenormity
p9598
F1
sVenough;
p9599
F1
sVinuisible
p9600
F1
sVswoone,
p9601
F1
sVmurdrous
p9602
F1
sVheart-piercing
p9603
F1
sVhumour,
p9604
F1
sVwondreth,
p9605
F1
sVpatient,
p9606
F1
sVgalled
p9607
F1
sVenough,
p9608
F3
sVperforme.
p9609
F1
sVgod's
p9610
F1
sVsicknesse
p9611
F2
sVoueruay
p9612
F1
sVsleights
p9613
F1
sVreflecting
p9614
F1
sVcaptaine
p9615
F30
sVinstitution
p9616
F1
sVdeuilish
p9617
F2
sVendlesse
p9618
F2
sVsolitarinesse,
p9619
F1
sVinfectious
p9620
F3
sVmournfull
p9621
F9
sVhumours
p9622
F3
sVmatched
p9623
F1
sVcreditors
p9624
F2
sVfaints
p9625
F1
sVpeales
p9626
F1
sVweepe,
p9627
F1
sVsea
p9628
F1
sVkisseth
p9629
F1
sVmony;
p9630
F1
sVpitifull
p9631
F1
sVchirurgeons
p9632
F1
sVcomes,
p9633
F1
sVlinked
p9634
F1
sVensue;
p9635
F1
sVfayre;
p9636
F1
sVreturnes,
p9637
F1
sVaduanceth
p9638
F1
sVthereat:
p9639
F2
sVadmittance
p9640
F2
sVprankes,
p9641
F1
sVfayre,
p9642
F4
sVwhich
p9643
F368
sVlooke,
p9644
F1
sVthereat.
p9645
F1
sViudge:
p9646
F1
sVthereat,
p9647
F8
sVcloake,
p9648
F2
sVwhe
p9649
F2
sVdungeon
p9650
F1
sVwho
p9651
F194
sVoffend
p9652
F1
sVslumbers,
p9653
F1
sVbesotted,
p9654
F1
sVwhy
p9655
F9
sVioy.
p9656
F1
sVdeny
p9657
F6
sVlookes
p9658
F6
sVvisiting
p9659
F1
sVfayrer
p9660
F1
sVprisoners,
p9661
F1
sVlooked
p9662
F3
sViudges
p9663
F14
sVimagining
p9664
F1
sViest,
p9665
F2
sVword,
p9666
F7
sVagreed
p9667
F3
sVone,
p9668
F19
sVneuer;
p9669
F1
sVsanctitie?
p9670
F1
sVresoluest
p9671
F1
sV(taking
p9672
F1
sVbetake
p9673
F3
sVcancell
p9674
F1
sVone:
p9675
F1
sVone;
p9676
F2
sVpleased
p9677
F5
sVentring
p9678
F1
sVpoasting
p9679
F1
sVtrue,
p9680
F2
sVexercise
p9681
F2
sVglistering
p9682
F1
sVmany.
p9683
F1
sVmany,
p9684
F1
sVtrue:
p9685
F2
sVmany:
p9686
F1
sVhe
p9687
F809
sVapplieth
p9688
F1
sVwatching
p9689
F1
sVdeserued.
p9690
F1
sVresolues,
p9691
F1
sVheere
p9692
F21
sVdeserued)
p9693
F2
sVones
p9694
F4
sVsues
p9695
F1
sVplease,
p9696
F3
sVwords
p9697
F8
sVnaples,
p9698
F1
sVspur
p9699
F1
sVanatomize
p9700
F1
sVcontents,
p9701
F1
sVadultery:
p9702
F1
sVmarried
p9703
F7
sVcarrowsing,
p9704
F1
sVcontents;
p9705
F1
sVthis)
p9706
F1
sVashes,
p9707
F3
sVwiues,
p9708
F1
sVmarries
p9709
F4
sVadultery,
p9710
F1
sVshedding
p9711
F1
sVinhumanity,
p9712
F1
sVzeale,
p9713
F2
sVaffirms
p9714
F1
sVmerits
p9715
F1
sVcombate;
p9716
F1
sVground,
p9717
F2
sVground.
p9718
F1
sVgiues
p9719
F25
sVgiuer
p9720
F3
sVcontrition,
p9721
F3
sVdeformity,
p9722
F1
sVcommand;
p9723
F1
sVmonstrous
p9724
F3
sVbullets,
p9725
F1
sVforwarne
p9726
F1
sV(through
p9727
F2
sVground:
p9728
F2
sVconceyt
p9729
F1
sVgiuen
p9730
F15
sVglory.
p9731
F5
sVglory,
p9732
F8
sVweighing
p9733
F2
sVopening
p9734
F2
sVstunge
p9735
F1
sVmaried
p9736
F2
sVglory;
p9737
F2
sVeyes.
p9738
F1
sVplainely,
p9739
F2
sVarts,
p9740
F1
sVswift
p9741
F2
sVsuccesful
p9742
F1
sVcommands
p9743
F9
sVretaynes
p9744
F1
sVrheume,
p9745
F1
sVvaliantly
p9746
F1
sVprouoke
p9747
F1
sVpittied,
p9748
F1
sVendeauoring
p9749
F1
sVgiue,
p9750
F2
sVsafely
p9751
F4
sVclose,
p9752
F2
sVgrounds
p9753
F5
sVheauen,
p9754
F17
sVtorments
p9755
F3
sVheauen.
p9756
F3
sVheauen)
p9757
F1
sVimbathe
p9758
F1
sVsworne
p9759
F1
sVbedde.
p9760
F1
sVacertained,
p9761
F1
sVphrensie
p9762
F3
sVheauen;
p9763
F5
sVheauen:
p9764
F5
sVrespect
p9765
F23
sVioyfull.
p9766
F1
sVsuruey
p9767
F1
sVdecent
p9768
F1
sVhunters
p9769
F2
sVcourtisans
p9770
F1
sVvndictiue,
p9771
F1
sVtutor
p9772
F6
sVnaples
p9773
F16
sVrich,
p9774
F6
sVbutchers
p9775
F1
sVwholy
p9776
F4
sVcommanders,
p9777
F1
sVtryumphing
p9778
F1
sVdrugsters
p9779
F1
sVsufficient
p9780
F4
sVioyfully
p9781
F3
sVsouldiers,
p9782
F1
sVscrutiny
p9783
F1
sVrepetition
p9784
F2
sVpresent
p9785
F13
sVabandoned
p9786
F2
sVwilt
p9787
F26
sVrashnesse
p9788
F1
sVagreement,
p9789
F2
sVwished,
p9790
F1
sVwill
p9791
F269
sVpreuaile,
p9792
F1
sVcourtisan,
p9793
F1
sVinclynations.
p9794
F1
sVhinderance
p9795
F2
sVsocietie
p9796
F1
sVlayes
p9797
F4
sVerrecting
p9798
F1
sV[![cross
p9799
F16
sVapprehend
p9800
F3
sVthus
p9801
F40
sVno.
p9802
F1
sVvnadmired:
p9803
F1
sVpoast
p9804
F7
sVinciuility
p9805
F1
sVlayen
p9806
F2
sVapart)
p9807
F1
sVapart,
p9808
F3
sVperhaps
p9809
F1
sVcrost
p9810
F1
sVthese,
p9811
F5
sVaffirm,
p9812
F1
sVmaner,
p9813
F1
sVthese;
p9814
F2
sVgets
p9815
F3
sVdisciple
p9816
F1
sVdifficult
p9817
F7
sVfirmament
p9818
F1
sVrnnnes
p9819
F1
sVcondes
p9820
F1
sVparacide
p9821
F2
sVcoaches
p9822
F1
sVmistris,
p9823
F3
sVprospectiue
p9824
F2
sVlillies,
p9825
F3
sVprodigalities:
p9826
F1
sVcorrespondent
p9827
F1
sVbanded
p9828
F1
sVfighting
p9829
F1
sVvalerio
p9830
F25
sVperpetrate
p9831
F2
sVinrolled
p9832
F2
sVwhitsonday
p9833
F1
sVbreakes
p9834
F6
sVspirit)
p9835
F1
sVconfidently,
p9836
F1
sVbending
p9837
F1
sVrockes
p9838
F2
sVcreditors,
p9839
F1
sVdoore,
p9840
F6
sVcried
p9841
F1
sVauthour
p9842
F5
sVseconds,
p9843
F2
sVcherishing
p9844
F1
sVobtain
p9845
F2
sVwiddows
p9846
F1
sVreplenish
p9847
F1
sVmistris
p9848
F17
sVfishing
p9849
F1
sVpuppill
p9850
F1
sVcloake
p9851
F3
sVwonder,
p9852
F1
sVfearing,
p9853
F3
sVpanther
p9854
F1
sVstudients
p9855
F1
sVprice,
p9856
F1
sVhall
p9857
F2
sVearnestly
p9858
F2
sVnicke
p9859
F1
sVhappines,
p9860
F1
sVcame)
p9861
F1
sVimpiously
p9862
F4
sVwiddow;
p9863
F1
sVcame,
p9864
F2
sVioyes,
p9865
F1
sVwiddow,
p9866
F2
sVwiddow.
p9867
F1
sVknow
p9868
F36
sVpresume
p9869
F2
sVdoores
p9870
F2
sVrocke,
p9871
F2
sVgeorges
p9872
F3
sVvninforced
p9873
F1
sVstarres
p9874
F1
sVbacchus
p9875
F1
sVfeigned
p9876
F4
sVpeircing
p9877
F1
sVcounsellors
p9878
F1
sVwonders
p9879
F7
sVdistastfull
p9880
F1
sVexceed
p9881
F4
sVbecause
p9882
F60
sVliuery.
p9883
F1
sVford,
p9884
F1
sVayre:
p9885
F1
sVpromontory
p9886
F1
sVpast,
p9887
F5
sVencloystred
p9888
F1
sVayre,
p9889
F8
sVneglecting
p9890
F2
sVinteriour
p9891
F1
sVhimselfe
p9892
F109
sVlead
p9893
F3
sVfatall,
p9894
F2
sVpotions;
p9895
F1
sVsake,
p9896
F9
sVvayled,
p9897
F1
sVbandetti
p9898
F1
sVdreames;
p9899
F1
sVsake:
p9900
F3
sVherselfe
p9901
F1
sVflaunts
p9902
F1
sVbanke,
p9903
F1
sVexecuted,
p9904
F1
sVwherat
p9905
F2
sVcraue
p9906
F1
sVexecuted:
p9907
F2
sVconfined,
p9908
F1
sVenuy
p9909
F12
sVpike
p9910
F1
sVthrong
p9911
F1
sVgathered,
p9912
F1
sVmine:
p9913
F4
sVcarried
p9914
F3
sVhimself,
p9915
F1
sVmine.
p9916
F3
sVmine,
p9917
F5
sVcarrier
p9918
F1
sVyours:
p9919
F1
sVfatally
p9920
F1
sVconcealing
p9921
F3
sVown
p9922
F2
sVshouldest
p9923
F7
sVgrieues
p9924
F12
sVpolisher
p9925
F1
sVweather
p9926
F2
sVpromise
p9927
F14
sVdrownd,
p9928
F1
sVlanguishing,
p9929
F1
sVfaithfully
p9930
F2
sVimplacable;
p9931
F1
sVpreferment
p9932
F1
sVrelent,
p9933
F1
sVimplacable,
p9934
F3
sVchristianly:
p9935
F1
sVtherewith,
p9936
F4
sVtherewith.
p9937
F1
sVperdition;
p9938
F1
sVpreceptor
p9939
F2
sVswinishly
p9940
F1
sVmirrour
p9941
F1
sVgrieue,
p9942
F4
sVperform'd
p9943
F1
sVtherewith;
p9944
F3
sVreligious,
p9945
F1
sVblossomes
p9946
F1
sVbreathlesse,
p9947
F1
sVmade
p9948
F62
sVdesolation.
p9949
F1
sVgrieued,
p9950
F1
sVwhether
p9951
F26
sVprotesting
p9952
F2
sVvaumartin
p9953
F19
sVthis,
p9954
F13
sVthis.
p9955
F5
sVbelow
p9956
F2
sVseignior
p9957
F3
sVthis;
p9958
F1
sVtrunke
p9959
F1
sVapparell;
p9960
F2
sVbegun
p9961
F1
sVpiombino
p9962
F1
sVkind:
p9963
F2
sVprodigall
p9964
F2
sVapparell,
p9965
F6
sVbrooking
p9966
F1
sVerrected
p9967
F1
sVother
p9968
F80
sVbranch
p9969
F1
sVrepute
p9970
F4
sVimportuned
p9971
F2
sVconclusion
p9972
F5
sVdespight
p9973
F5
sVgiue
p9974
F62
sVliuery,
p9975
F1
sVscholler
p9976
F5
sVbrauery
p9977
F2
sVkinde
p9978
F1
sVearthly
p9979
F4
sVielousie)
p9980
F1
sVingrauen
p9981
F4
sVburchen
p9982
F1
sVswound,
p9983
F1
sVbenevente,
p9984
F1
sVconspire,
p9985
F1
sVmournefull,
p9986
F3
sVsubstract,
p9987
F1
sVshall.
p9988
F2
sVcourtsie,
p9989
F1
sVreneweth
p9990
F1
sVranke
p9991
F5
s.