ccollections
defaultdict
p1
(c__builtin__
float
p2
tRp3
Vall
p4
F29
sVliues-acts
p5
F1
sVgant
p6
F1
sVhe's
p7
F1
sVpowre,
p8
F1
sVhath
p9
F1
sVsunn
p10
F1
sVspiders
p11
F1
sVsoule
p12
F1
sVhimselfe,
p13
F1
sVminde.
p14
F1
sVskill;
p15
F1
sVwhose
p16
F4
sVvile
p17
F1
sV(for
p18
F1
sVknowne;
p19
F1
sVveine,
p20
F1
sVpoore
p21
F2
sVsquirrels
p22
F1
sVpallas;
p23
F1
sVto
p24
F28
sVcharge
p25
F2
sVgreat'st
p26
F1
sVpresent
p27
F1
sVskill,
p28
F1
sVworth
p29
F1
sVvlcerous
p30
F1
sVlabor,
p31
F1
sVworse
p32
F2
sVemptiest
p33
F1
sVfar
p34
F1
sVknow's
p35
F1
sVnought
p36
F1
sVrise
p37
F1
sVmore:
p38
F1
sVchoice
p39
F1
sVbattaillons
p40
F2
sVal:
p41
F1
sVfall
p42
F2
sVbounding
p43
F1
sVall's
p44
F1
sVblast
p45
F1
sVvast
p46
F1
sVscholler,
p47
F1
sVknees;)
p48
F1
sVbest;
p49
F1
sVeuer.
p50
F1
sVround
p51
F1
sVflowe;
p52
F1
sVturne
p53
F1
sVforce
p54
F1
sVascription,
p55
F1
sVbe
p56
F2
sVelse,
p57
F1
sVme.
p58
F1
sVadorne
p59
F1
sVmonsters;
p60
F1
sVpast
p61
F1
sVflanck,
p62
F1
sViliue
p63
F1
sVme;
p64
F2
sVglasse
p65
F1
sVthat,
p66
F2
sVsubdude
p67
F1
sVwhat
p68
F3
sVmake,
p69
F1
sVstood
p70
F1
sViudiciall
p71
F1
sVuncheckt,
p72
F1
sVgiuing
p73
F1
sVretir'd;
p74
F1
sVbounties
p75
F1
sVsphere)
p76
F1
sVlearnings,
p77
F1
sVlights
p78
F1
sVhim,
p79
F2
sV;
F4
sVcobwebs;
p80
F1
sVsleepes.
p81
F1
sVdistaffs
p82
F1
sVsawe,
p83
F1
sVheadstrong,
p84
F1
sVfull
p85
F2
sVwings.
p86
F1
sVentire;
p87
F1
sVmen
p88
F2
sVdiscipline;
p89
F1
sVsaile.
p90
F1
sVproue
p91
F1
sVequall
p92
F1
sVlet
p93
F3
sVmedcine
p94
F1
sVsing
p95
F1
sVquite
p96
F1
sVeuery
p97
F1
sVgreat
p98
F1
sVforc't
p99
F1
sVlearne;
p100
F1
sVenuie,
p101
F2
sVaverse
p102
F1
sVwrought,
p103
F1
sVsettles
p104
F1
sVostentation,
p105
F2
sVcorke:
p106
F1
sVatoms,
p107
F1
sVnarrow
p108
F1
sVgenerall
p109
F1
sVbursten
p110
F1
sVeternall)
p111
F1
sVpermanent,
p112
F1
sVsweetest
p113
F1
sVmanage
p114
F1
sVknow;
p115
F1
sVparma
p116
F1
sVvapors
p117
F1
sVtill
p118
F2
sVstings
p119
F1
sVeternall;
p120
F1
sVknow.
p121
F2
sVvp,
p122
F1
sVknow,
p123
F1
sVope-warr
p124
F1
sVhorse,
p125
F1
sVstanding
p126
F2
sVfame,
p127
F2
sVfrom
p128
F10
sVwealth
p129
F1
sVwould
p130
F2
sV&
F1
sVflanckers
p131
F1
sVcrusted
p132
F1
sVlawe.
p133
F1
sVretreate,
p134
F1
sVsentinell.
p135
F1
sVfew
p136
F1
sVliu'd
p137
F1
sVdoubt
p138
F1
sVtheames)
p139
F1
sVstuff:
p140
F1
sVfaine
p141
F1
sViust
p142
F1
sVbelgian
p143
F1
sVshine
p144
F1
sVeternall
p145
F1
sVlungs
p146
F1
sVname.
p147
F1
sVbrings
p148
F1
sVoff:
p149
F1
sVabout
p150
F1
sVmuse
p151
F1
sVmeere
p152
F1
sV(had
p153
F1
sVvirtue
p154
F1
sVbroke
p155
F1
sVfashionists,
p156
F1
sVhold
p157
F1
sVmust
p158
F2
sVme
p159
F4
sVand,
p160
F1
sVnone
p161
F1
sVthis
p162
F2
sVdegrees;
p163
F1
sVnothing;
p164
F1
sVguards
p165
F1
sVcan
p166
F4
sVsupercilious
p167
F1
sVmy
p168
F10
sVfames
p169
F1
sVhall.
p170
F1
sVhumilitie
p171
F1
sVingenuities,
p172
F1
sVlaid,
p173
F1
sVshore,
p174
F1
sVheare
p175
F1
sVsphere
p176
F1
sVfortunes
p177
F1
sVtongues,
p178
F1
sVlordship,
p179
F1
sVrescue
p180
F1
sVend
p181
F1
sVvaried
p182
F1
sVsale-muse
p183
F1
sVmens
p184
F2
sVacts
p185
F2
sV1
F1
sVhow
p186
F2
sVneede
p187
F1
sVsacred
p188
F2
sVornaments,
p189
F1
sVfree;
p190
F1
sVfoggs;
p191
F1
sVarmies
p192
F1
sVcimmerian
p193
F1
sVpeece
p194
F1
sVmay
p195
F2
sVstreame,
p196
F1
sVimmortall,
p197
F1
sVth'enimies
p198
F1
sVdiscoueries,
p199
F1
sVfarr
p200
F1
sVfits
p201
F1
sVsuch
p202
F5
sVlord,
p203
F2
sVa
F11
sVwrie
p204
F1
sVstill:
p205
F1
sVlight
p206
F1
sVprime;
p207
F1
sVstill,
p208
F1
sVperhaps
p209
F1
sVstill.
p210
F1
sVso
p211
F8
sVshade
p212
F1
sVrandging
p213
F1
sVverminous
p214
F1
sVgall.
p215
F1
sVwould,
p216
F1
sVlaw-learning,
p217
F1
sVhand,
p218
F1
sVconfederate
p219
F1
sVwall,
p220
F1
sVthrough
p221
F5
sVdisease,
p222
F1
sVstill
p223
F3
sVinfelicities.
p224
F1
sVrepaire:
p225
F1
sV(being
p226
F1
sVtruth;
p227
F2
sVthen,
p228
F7
sVreacht;
p229
F1
sVmuses
p230
F1
sVled;
p231
F1
sV,
F3
sVthen;
p232
F1
sVtruth,
p233
F1
sVlicke
p234
F1
sVextreamest
p235
F1
sVwondring
p236
F1
sVthen
p237
F9
sVthem
p238
F2
sVgood
p239
F1
sV(blinde)
p240
F1
sVhills,
p241
F1
sVmuse,
p242
F1
sVye
p243
F2
sVconcomitant.
p244
F1
sVhigh-fixt
p245
F1
sVthey
p246
F2
sVnot
p247
F8
sVnow
p248
F2
sVdowne
p249
F1
sVday
p250
F1
sVnor
p251
F5
sVname
p252
F1
sVall.
p253
F1
sVall,
p254
F3
sVtruths
p255
F2
sVvent;
p256
F1
sVadiuncts
p257
F1
sVlabour,
p258
F1
sVshadowe
p259
F1
sVidioms
p260
F1
sVfound
p261
F1
sVswounes
p262
F1
sVall;
p263
F3
sVdisclose.
p264
F1
sVcall'd
p265
F1
sVdoing
p266
F1
sVt'house
p267
F1
sVfenn?
p268
F1
sVfires
p269
F1
sVtaught
p270
F1
sVwatrie
p271
F1
sVcalmes,
p272
F1
sVour
p273
F6
sVloome,
p274
F1
sVout
p275
F1
sVlength,
p276
F1
sVopen
p277
F1
sVsince
p278
F3
sVlaid
p279
F1
sVdeare
p280
F1
sVborne
p281
F1
sVgreeke
p282
F1
sVt'informe
p283
F1
sVstincking
p284
F1
sVrere,
p285
F1
sVvnenuied,
p286
F1
sVsuff'rance,
p287
F1
sVfixt
p288
F1
sVfire,
p289
F1
sVpleades
p290
F1
sVill.
p291
F1
sVprepar'd;
p292
F1
sVput
p293
F1
sVteach
p294
F1
sVbeginning
p295
F1
sVleprosies;
p296
F1
sVhaire.
p297
F1
sVretreate
p298
F3
sVthings,
p299
F2
sVtrust;
p300
F1
sVselfe
p301
F1
sVtimes
p302
F1
sVlength
p303
F1
sVhaggs;
p304
F1
sVbeggars
p305
F1
sVthem)
p306
F1
sVstone
p307
F1
sVneptunes
p308
F1
sV(as
p309
F1
sVsprings.
p310
F1
sVloue
p311
F1
sVmad
p312
F1
sVglories
p313
F1
sVrudely
p314
F1
sVdarknesse
p315
F1
sVwildes
p316
F1
sVstill-trembling
p317
F1
sVcoming
p318
F1
sVone
p319
F3
sVscandalls
p320
F1
sVfrowne;
p321
F1
sVliues,
p322
F1
sVplace;
p323
F1
sVhomers
p324
F1
sVdiuision
p325
F1
sVgeorge
p326
F1
sVeye.
p327
F1
sVearths
p328
F2
sVhorse
p329
F1
sVabstract,
p330
F1
sVneedes
p331
F1
sVtheir
p332
F14
sVleading
p333
F1
sVcasher'de
p334
F1
sVleast
p335
F2
sVgates;
p336
F1
sV(sole
p337
F1
sV2
F1
sVstormes)
p338
F1
sVtoo
p339
F1
sVshow
p340
F2
sVmaster
p341
F1
sVbeare
p342
F2
sVbehind.
p343
F1
sVwisdome,
p344
F1
sVherde
p345
F1
sVfirst,
p346
F1
sVthat
p347
F23
sVvtmost
p348
F1
sVperspectiue
p349
F1
sVsound?
p350
F1
sVshowe;
p351
F1
sVrender'd
p352
F1
sVneuer-numberd
p353
F1
sVwhat's
p354
F1
sVgrace
p355
F2
sVlife-enclining
p356
F1
sVmeteors
p357
F1
sVspaines
p358
F1
sVwas
p359
F2
sVeternities;
p360
F1
sVbee
p361
F1
sVsonne
p362
F1
sVcandles
p363
F1
sVadopts
p364
F1
sVtorrents
p365
F1
sVand
p366
F68
sVanadem.
p367
F1
sV&thunderd
p368
F1
sVdrousie
p369
F1
sVignorant;
p370
F1
sVaduice,
p371
F1
sVothers,
p372
F1
sVknowledges;
p373
F1
sVhumane
p374
F1
sVheads:
p375
F1
sVbastard
p376
F1
sVstrength
p377
F4
sVpore;
p378
F1
sVraie.
p379
F1
sVcharges,
p380
F1
sVwish,
p381
F1
sVsoules
p382
F1
sVlatine
p383
F1
sVpoesies
p384
F3
sVhigh-waies
p385
F1
sVwhich
p386
F4
sVeares.
p387
F1
sVstrengths
p388
F1
sVhisses.
p389
F1
sVyew,
p390
F1
sVbeggs,
p391
F1
sVsell,
p392
F1
sVcomforts
p393
F1
sVshall
p394
F4
sVany
p395
F2
sV(dead
p396
F1
sVwhere's
p397
F1
sVmost
p398
F6
sVpropagate
p399
F1
sVlie,
p400
F1
sVnothing
p401
F2
sVdantlesse
p402
F1
sVstrength,
p403
F3
sVhood,
p404
F1
sVaffirmes
p405
F1
sVstrong:
p406
F1
sVflow
p407
F1
sV(from
p408
F1
sVnot;
p409
F3
sVsoule,
p410
F3
sVstrength:
p411
F1
sVstrength;
p412
F1
sVimmane,
p413
F1
sVnight,
p414
F1
sVforce;
p415
F1
sVthem,
p416
F1
sVlearn'd,
p417
F1
sVlarded
p418
F1
sVopinions
p419
F1
sVretire
p420
F3
sVnoblest
p421
F1
sVchapman.
p422
F1
sVpasse
p423
F1
sV(whose
p424
F1
sVcall.
p425
F1
sVvpon
p426
F2
sVambient
p427
F1
sVwrapt
p428
F1
sVlordships
p429
F1
sVwith
p430
F16
sVblinde
p431
F1
sVenough
p432
F1
sVmany,
p433
F1
sVshould
p434
F1
sVbeing
p435
F2
sVbetray
p436
F1
sVflood,
p437
F1
sVhe
p438
F3
sVdischardg'd
p439
F1
sVrepulsing
p440
F1
sV(english
p441
F1
sVlies;
p442
F1
sV&home)
p443
F1
sVhis
p444
F11
sVsunns
p445
F1
sVstarriest
p446
F1
sVbayes;
p447
F1
sVfatall
p448
F1
sVcannot
p449
F1
sVlighter
p450
F1
sVimpietie;
p451
F1
sVsoeuer,
p452
F1
sVhim
p453
F3
sVprime
p454
F1
sVmen:
p455
F1
sVmen;
p456
F1
sVcommand
p457
F1
sVthem;
p458
F1
sVgloomie
p459
F1
sVmonsters
p460
F1
sVmen,
p461
F5
sVmiles
p462
F1
sVshe
p463
F2
sVgaue
p464
F1
sVbought
p465
F1
sVwhere
p466
F1
sVchime,
p467
F1
sVarachnean
p468
F1
sVpriuie
p469
F1
sVoutliuing
p470
F1
sVheauen
p471
F1
sVrootes,
p472
F1
sVretreates,
p473
F1
sVpoore,
p474
F1
sVsee
p475
F3
sVare
p476
F5
sVretreates;
p477
F1
sV(like
p478
F2
sVbest
p479
F4
sVknowe;
p480
F1
sVyeeld
p481
F1
sVsaid
p482
F1
sVpit?
p483
F1
sVthreatning
p484
F1
sVsuborne
p485
F1
sVman;
p486
F1
sVwrought
p487
F1
sVgainst
p488
F1
sVhowre.
p489
F1
sVlearne
p490
F1
sVcheckt
p491
F1
sVman,
p492
F1
sVthinck
p493
F1
sV(though
p494
F1
sVchuse;
p495
F1
sVknowing
p496
F1
sVwe
p497
F2
sVheyring,
p498
F1
sVmouthes
p499
F1
sVextend
p500
F1
sVvvithout
p501
F1
sVsole
p502
F1
sVloues,
p503
F1
sVreigns
p504
F1
sVhere
p505
F1
sVprayer,
p506
F1
sVpaines
p507
F1
sVcome
p508
F4
sVdreadfull
p509
F1
sVfoes
p510
F2
sVfought;
p511
F1
sVpreuaile,
p512
F1
sVfinde
p513
F1
sVcouetous
p514
F1
sVten;
p515
F1
sVbristl'd
p516
F1
sVfaces
p517
F1
sVminde
p518
F1
sVcrownes,
p519
F1
sVwhole
p520
F1
sVglorious
p521
F1
sVflies
p522
F1
sVreading?
p523
F1
sViudge
p524
F1
sVfome,
p525
F1
sV(defeates.
p526
F1
sVdroun'd;
p527
F1
sVlearn'd
p528
F3
sVworke,
p529
F1
sVforme;
p530
F1
sVworldly
p531
F1
sVvntoucht
p532
F1
sVbrode-beaten
p533
F1
sVkings
p534
F1
sVdone.
p535
F1
sVwant,
p536
F1
sVpouring
p537
F1
sVarts
p538
F1
sVlifes
p539
F1
sVretriue
p540
F1
sVconfesse
p541
F1
sVthred
p542
F1
sVthree
p543
F1
sVexamples,
p544
F1
sVmuch
p545
F2
sVknowne
p546
F1
sVbattailes
p547
F1
sVinterest
p548
F1
sVvows;
p549
F1
sVthrice
p550
F1
sVcommanders)
p551
F1
sVlife
p552
F4
sVitches?
p553
F1
sVspit
p554
F1
sVboth
p555
F1
sVfire
p556
F1
sVthousand
p557
F1
sVthrusting
p558
F1
sVbody
p559
F1
sVmans
p560
F1
sVodysses
p561
F2
sVcapacitie
p562
F1
sVspirit
p563
F1
sVthose
p564
F1
sVgracious
p565
F1
sVhomer
p566
F1
sVowne
p567
F1
sVflames
p568
F1
sVthought:
p569
F1
sVthese
p570
F1
sVorbe
p571
F1
sVth'ancient
p572
F1
sVlife:
p573
F1
sVcare;
p574
F1
sVwho,
p575
F1
sVcast
p576
F2
sVwhile
p577
F1
sVvaineglorious
p578
F1
sVcelestiall
p579
F1
sVvoice
p580
F1
sVextuberance,
p581
F1
sV(sweet
p582
F1
sVaffects,
p583
F1
sVis
p584
F5
sVstrait
p585
F1
sVit
p586
F2
sVdoctor,
p587
F1
sVvp
p588
F1
sVshame
p589
F1
sVdefies.
p590
F1
sVin
p591
F32
sVstarrs,
p592
F1
sVif
p593
F3
sVierre,
p594
F1
sVset,
p595
F2
sVthings
p596
F7
sVmake
p597
F3
sVthese,
p598
F2
sVsame
p599
F1
sVstings,
p600
F1
sVattractions;
p601
F1
sVcharge,
p602
F1
sVth'
p603
F1
sVhaue,
p604
F1
sVpaines,
p605
F1
sVsince,
p606
F1
sVgrace.
p607
F1
sVlast,
p608
F1
sVwisest
p609
F1
sVprophane
p610
F1
sVcensure
p611
F1
sVi)
p612
F1
sVrunning
p613
F1
sVarm'd
p614
F1
sVinfinite
p615
F1
sVrelies
p616
F1
sVgrow,
p617
F1
sVwhich;
p618
F1
sVembroderie
p619
F1
sVi
F4
sVmakes
p620
F1
sVhumble
p621
F1
sVsmokes
p622
F1
sVspent
p623
F1
sVwithout
p624
F2
sVyet,
p625
F2
sVwhich,
p626
F2
sVforetell,
p627
F1
sVgreatest
p628
F1
sVthence
p629
F1
sVenglish
p630
F2
sVthe
p631
F48
sVpikes,
p632
F1
sVdiuine:
p633
F1
sVdeliuerance,
p634
F1
sVgod,
p635
F1
sVtrue
p636
F1
sVgods
p637
F1
sVrest
p638
F1
sVpossest
p639
F1
sVstorming
p640
F1
sVabhorr'd
p641
F1
sVapprou'd
p642
F1
sVshowes;
p643
F1
sVskill
p644
F1
sVrandge
p645
F1
sVyet
p646
F5
sVonely;
p647
F1
sVletting
p648
F1
sVstore,
p649
F1
sVspring's
p650
F1
sVaffections
p651
F1
sVstarr;
p652
F1
sVhad
p653
F1
sVwizerds
p654
F1
sV(reres
p655
F1
sVlets
p656
F1
sVdreggs)
p657
F1
sVsharpe-browd
p658
F1
sVherculean
p659
F1
sVforraine
p660
F1
sVguide,
p661
F1
sVcasting
p662
F1
sVforces
p663
F1
sVsubmitteth
p664
F1
sVhate,
p665
F1
sVneuer
p666
F4
sVtruely
p667
F1
sVknow
p668
F2
sVhumors
p669
F1
sVinfelicitie,
p670
F1
sVbeare.
p671
F1
sVhaue
p672
F3
sVbewraies
p673
F1
sVfinde,
p674
F1
sVskie,
p675
F2
sVspinn
p676
F1
sVmoule.
p677
F1
sVlike
p678
F7
sVlost
p679
F1
sVworke
p680
F1
sVlet.
p681
F1
sVmere-learn'd
p682
F1
sVhosts
p683
F1
sVperdue
p684
F1
sVwisdome
p685
F1
sVtooke
p686
F1
sVshades,
p687
F1
sVtherein
p688
F1
sVbecause
p689
F1
sVsleight
p690
F2
sVbraineles
p691
F1
sVsome
p692
F2
sVayre;
p693
F1
sVdead
p694
F1
sVobscure,
p695
F1
sVpast,
p696
F1
sVcrown'd
p697
F1
sVascent
p698
F1
sVayre)
p699
F1
sVpeace,
p700
F1
sVblister'd
p701
F1
sVonely
p702
F1
sVfor
p703
F11
sVliue;
p704
F1
sVthough
p705
F4
sVman.
p706
F1
sVborne;)
p707
F1
sVpen
p708
F1
sVpeace;
p709
F1
sVleaue
p710
F1
sVtrine,
p711
F1
sVskorn'd
p712
F1
sVflanck't
p713
F1
sVwid'st
p714
F1
sVwither'd
p715
F1
sVtruth
p716
F1
sVapplaud's,
p717
F1
sVfresh:
p718
F1
sVvaine
p719
F2
sVfir'd
p720
F1
sVwings,
p721
F1
sVretir'd
p722
F2
sVenimie
p723
F1
sVworthy
p724
F1
sVmonsiour
p725
F1
sVenemies
p726
F1
sVby
p727
F7
sVrefuge
p728
F1
sVth'aduicefull
p729
F1
sVon
p730
F5
sVthrong
p731
F1
sVrare
p732
F1
sVof
p733
F38
sVout;
p734
F1
sVdoe,
p735
F1
sVbasely,
p736
F1
sVo
F1
sVliues
p737
F3
sVmine.
p738
F1
sVambush
p739
F1
sVaboue
p740
F1
sVfieriest
p741
F1
sVtongue
p742
F1
sVout,
p743
F1
sVor
p744
F4
sVflies,
p745
F1
sVright?
p746
F1
sVbraggart
p747
F1
sVequalls
p748
F1
sVfro
p749
F1
sVinto
p750
F4
sVwithin
p751
F1
sVfiue
p752
F1
sVdoctrine
p753
F1
sVworst,
p754
F1
sVwit.
p755
F1
sVguard,
p756
F1
sVscumm
p757
F1
sVyour
p758
F37
sVher
p759
F5
sVeuen
p760
F2
sVeclipse;
p761
F1
sVcorporeal
p762
F1
sVfight
p763
F1
sVhee
p764
F1
sVfought
p765
F1
sVearle)
p766
F1
sVway
p767
F1
sVeuer
p768
F3
sVwings:
p769
F1
sVranck;
p770
F1
sVvalor,
p771
F1
sVerrant
p772
F1
sVarise
p773
F1
sVauant
p774
F1
sVland;
p775
F1
sVskies;
p776
F1
sVso,
p777
F1
sVbut
p778
F14
sVso.
p779
F1
sVgallick
p780
F1
sVheat
p781
F1
sVfalne
p782
F1
sVredeemer,
p783
F1
sVlearned
p784
F1
sVdrones,
p785
F1
sVheate)
p786
F1
sVhates,
p787
F1
sVhands,
p788
F1
sVheate,
p789
F1
sV(still
p790
F1
sVdowne,
p791
F1
sVrush
p792
F1
sVmade
p793
F2
sVwise
p794
F1
sVglory
p795
F1
sV&modern
p796
F1
sVare,
p797
F1
sVthis,
p798
F1
sVtwixt
p799
F1
sV(through
p800
F1
sVvnited
p801
F1
sVgroues
p802
F1
sVpyed
p803
F1
sVmore
p804
F6
sVerymanthian
p805
F1
sVpalme,
p806
F1
sVrepulse
p807
F1
sVprease
p808
F1
sVfriend,
p809
F1
sVconstant
p810
F1
sVimpartiall
p811
F1
sVtaste
p812
F1
sVkisses
p813
F1
sVal
p814
F3
sVan
p815
F3
sVsoothe
p816
F1
sVas
p817
F8
sVat
p818
F3
sVobiect
p819
F1
sVperpendiculare;
p820
F1
sVsteepes
p821
F1
sVhece)
p822
F1
sVspight
p823
F1
sVwalke,
p824
F1
sVno
p825
F8
sVretiring
p826
F1
sVstake
p827
F1
sVwhen
p828
F1
sVtis
p829
F1
sVafford
p830
F1
sVroring
p831
F1
sVyou
p832
F9
sVforcing
p833
F1
sVflowre
p834
F1
sVcounsailes
p835
F1
sVconclusion
p836
F1
sVgiue
p837
F3
sVbecome
p838
F1
sVlernean
p839
F1
sVexpos'd,
p840
F1
sVin,
p841
F1
sVfell
p842
F1
sVy'are
p843
F1
sVhumor
p844
F1
sVfriends
p845
F1
sVgaspt
p846
F1
sVrich
p847
F1
sVodds
p848
F1
sVtime;
p849
F1
sVtogether
p850
F1
sVexcretion
p851
F1
sVpath,
p852
F1
sVgod
p853
F1
sVfresh
p854
F2
sVmatchlesse
p855
F1
s.