ccollections
defaultdict
p1
(c__builtin__
float
p2
tRp3
Vour
p4
F1
sVall
p5
F6
sVwritings
p6
F1
sVindeed.
p7
F1
sVoffice
p8
F1
sVgods
p9
F2
sVover
p10
F2
sVboth
p11
F1
sVsoon
p12
F1
sVsublime,
p13
F1
sVautority
p14
F1
sVthrough
p15
F2
sViohn
p16
F1
sVyet
p17
F1
sVlyrick
p18
F1
sVnow
p19
F1
sVjust
p20
F1
sVmind,
p21
F1
sVjustice
p22
F1
sVtrue
p23
F1
sVdeeds
p24
F1
sVamiable,
p25
F1
sVto
p26
F14
sVpoesy,
p27
F1
sVcelebrate
p28
F1
sVwhatsoever
p29
F2
sVindeed
p30
F1
sVvictorious
p31
F1
sVmain
p32
F1
sVthen
p33
F1
sVhis
p34
F1
sVintermingling
p35
F1
sVequipage
p36
F1
sVvery
p37
F1
sVfaulty:
p38
F1
sVwithin,
p39
F1
sVcallimachus
p40
F1
sVbane
p41
F1
sVshutting
p42
F1
sVevery
p43
F1
sVknow
p44
F1
sVthey
p45
F6
sVnot
p46
F2
sVrefluxes
p47
F1
sVaffections
p48
F1
sVpious
p49
F1
sVfound,
p50
F1
sVlook
p51
F1
sVeasily
p52
F1
sVmartyrs
p53
F1
sVfortune
p54
F1
sVhath
p55
F1
sVever
p56
F1
sVcorruption
p57
F1
sVchorus
p58
F1
sVthese
p59
F2
sVbenefit
p60
F1
sVjudicious,
p61
F1
sVtruth
p62
F1
sVprovidence
p63
F1
sVthough
p64
F2
sVgrave,
p65
F1
sVsoft
p66
F1
sVlofty
p67
F1
sVchrist,
p68
F1
sVset
p69
F1
sVart
p70
F1
sVbooke
p71
F1
sVpeople
p72
F1
sVdoing
p73
F1
sVframe
p74
F1
sVinterludes
p75
F1
sVsome
p76
F2
sVscenes
p77
F1
sVsee
p78
F1
sVdelight
p79
F1
sVare
p80
F3
sVworthy,
p81
F1
sValmightinesse,
p82
F1
sVhymns
p83
F2
sVdivine
p84
F1
sVpublick
p85
F1
sVenemies
p86
F1
sVdrest,
p87
F1
sVwhat
p88
F4
sVrarely
p89
F1
sVsanctity
p90
F1
sVstately
p91
F1
sVlead
p92
F1
sVsolemn
p93
F1
sVgod
p94
F1
sVsmoothnesse
p95
F1
sVpleasant,
p96
F1
sVwrought
p97
F1
sVmay
p98
F2
sVcritical
p99
F1
sVpassion
p100
F1
sVdayly
p101
F1
sVabilities,
p102
F1
sVlastly,
p103
F1
sVpulpit,
p104
F1
sV(though
p105
F1
sVbe
p106
F7
sVwe
p107
F1
sVmen
p108
F1
sVpower
p109
F1
sVappeare
p110
F1
sVcivility,
p111
F1
sVworks,
p112
F1
sVsaints,
p113
F1
sVothers
p114
F1
sVsing
p115
F1
sVsolid
p116
F1
sVelegantly
p117
F1
sVthrone
p118
F1
sVfaith
p119
F1
sVgreat
p120
F1
sVcommenting
p121
F1
sVnation:
p122
F1
sVguift
p123
F1
sVtreatable
p124
F1
sVworship.
p125
F1
sVof
p126
F25
sVinspired
p127
F1
sVtune,
p128
F1
sVvaliantly
p129
F1
sVagainst
p130
F1
sVtemper
p131
F1
sVseeds
p132
F1
sVcherish
p133
F1
sVwithout,
p134
F1
sVopinion
p135
F1
sVchanges
p136
F1
sVor
p137
F4
sVfrequent
p138
F1
sVsevenfold
p139
F1
sVimage
p140
F1
sVabuse)
p141
F1
sVinstances
p142
F1
sVright
p143
F1
sVvertu,
p144
F1
sVdelicious
p145
F1
sVdifficult,
p146
F1
sVthroughout
p147
F1
sVwheresoever
p148
F1
sVrelapses
p149
F1
sVhonesty
p150
F1
sVlibidinous
p151
F1
sVhalleluja's
p152
F1
sVpoetasters,
p153
F1
sVfrom
p154
F4
sVguest
p155
F1
sVher
p156
F2
sVprophets
p157
F1
sVdarus
p158
F1
sVtragedy,
p159
F1
sVcall'd
p160
F1
sVsymphonies:
p161
F1
sVodes
p162
F1
sVby
p163
F1
sVtheir
p164
F3
sVagonies
p165
F1
sVperturbations
p166
F1
sVthoughts
p167
F1
sVsaint
p168
F1
sVherselfe,
p169
F1
sVpareus
p170
F1
sVlife
p171
F1
sVeasy
p172
F2
sVholy
p173
F1
sVthat
p174
F4
sVsufficient
p175
F1
sVbut
p176
F3
sVmajestick
p177
F1
sVmans
p178
F1
sVignorant
p179
F1
sVteaching
p180
F1
sVchurch,
p181
F1
sVgeneral
p182
F1
sVwith
p183
F4
sVthose
p184
F3
sVhe
p185
F2
sVstates
p186
F1
sVadmiration
p187
F1
sVmade
p188
F1
sVrugged
p189
F2
sVwily
p190
F1
sVheard
p191
F1
sVthis
p192
F2
sVscars
p193
F1
sVup
p194
F1
sVdescribe.
p195
F1
sVnations
p196
F1
sVwill
p197
F1
sVmatter
p198
F1
sVharping
p199
F1
sVvertu
p200
F2
sVpleasant
p201
F1
sVwere
p202
F1
sVreligion
p203
F1
sVbestow'd,
p204
F1
sVunlesse
p205
F1
sVmy
p206
F1
sVexample
p207
F1
sVand
p208
F38
sVwould
p209
F2
sVpaint
p210
F1
sVis
p211
F5
sVargument
p212
F1
sVan
p213
F1
sVhigh
p214
F2
sVgentry,
p215
F1
sVmagnifick
p216
F1
sVgood
p217
F1
sVkingdoms
p218
F1
sVin
p219
F14
sVincomparable.
p220
F1
sVallay
p221
F1
sVas
p222
F1
sVif
p223
F1
sVpaths
p224
F1
sVpini
p225
F1
sVbeyond
p226
F1
sVend
p227
F1
sVthings
p228
F2
sVwhereas
p229
F1
sVacts
p230
F1
sVthese,
p231
F1
sVwherein
p232
F1
sVbeside
p233
F1
sVbook
p234
F1
sVwhich
p235
F3
sVout
p236
F1
sVdeplore
p237
F1
sVcomposition
p238
F1
sVdifficult
p239
F1
sVyouth
p240
F1
sVkinds
p241
F1
sVconfirm.
p242
F1
sVshall
p243
F1
sVimitat
p244
F1
sVwho
p245
F2
sVupon
p246
F1
sVmuch
p247
F1
sVtriumphs
p248
F1
sVmost
p249
F3
sVinbreed
p250
F1
sVapocalyps
p251
F1
sVsuch
p252
F1
sVsuck
p253
F1
sVlaw
p254
F1
sVgrave
p255
F1
sVappear
p256
F2
sVa
F6
sVsuffers
p257
F1
sVespecially
p258
F1
sVwhole
p259
F1
sVconsistence
p260
F1
sVhaving
p261
F1
sVso
p262
F1
sVglorious
p263
F1
sVoccasion
p264
F1
sVthe
p265
F25
sVsuttleties
p266
F1
sValone,
p267
F1
sVsongs
p268
F1
s.