ccollections
defaultdict
p1
(c__builtin__
float
p2
tRp3
Vconsidered,
p4
F1
sVall
p5
F6
sV(it
p6
F1
sVbusie
p7
F1
sVvile
p8
F1
sVsouls
p9
F1
sVthemes
p10
F2
sVhath
p11
F2
sV(if
p12
F3
sVgo
p13
F1
sVsung
p14
F1
sVwhose
p15
F2
sVversare
p16
F1
sVmallet
p17
F1
sV(for
p18
F1
sVspirit
p19
F2
sVodious,
p20
F1
sVto
p21
F37
sVexecrations
p22
F1
sV(were
p23
F1
sVunder
p24
F1
sVundenyable
p25
F1
sVpleasing
p26
F1
sVwoman
p27
F1
sVotherwise,
p28
F1
sVsoul;
p29
F1
sVsinful,
p30
F1
sVglorious,
p31
F1
sVvery
p32
F5
sVnone
p33
F1
sVlanguished
p34
F1
sVmore;
p35
F1
sVsoul,
p36
F1
sVsons
p37
F1
sValiter,
p38
F1
sVfall
p39
F1
sVmore,
p40
F1
sVwriting,
p41
F1
sVpious
p42
F4
sVvast
p43
F1
sVeminent)
p44
F1
sVvouchsafe
p45
F1
sVinclinable
p46
F1
sVdid
p47
F3
sVcause
p48
F1
sVherbert
p49
F2
sVleave
p50
F1
sVweak,
p51
F1
sVdesertion
p52
F1
sVsmall
p53
F2
sVnearer
p54
F1
sVhierotheus
p55
F1
sVprevent
p56
F1
sVforce
p57
F1
sVinterlined
p58
F1
sVnigh
p59
F1
sVaeterno
p60
F1
sVtranslating
p61
F1
sVcharitable,
p62
F1
sVfurther
p63
F1
sVsink,
p64
F1
sVeven
p65
F1
sVcasteth
p66
F1
sVgold!
p67
F1
sVhim:
p68
F1
sVdarkness
p69
F1
sVchurch
p70
F1
sVsolemn
p71
F1
sVsun
p72
F1
sVassistance
p73
F1
sVeminent
p74
F1
sV(which
p75
F1
sVhim,
p76
F1
sVsuspect
p77
F1
sVflowing
p78
F1
sV;
F18
sVever
p79
F4
sVbody
p80
F3
sVfulgeatauro
p81
F1
sVdesires
p82
F1
sVexchange
p83
F1
sVheavily
p84
F1
sVbosoms,
p85
F1
sVnever
p86
F2
sVsins
p87
F1
sVhere
p88
F3
sVirreverendly
p89
F1
sVprotection
p90
F1
sVmaker:
p91
F1
sVothers
p92
F1
sValong
p93
F1
sVlegend
p94
F1
sVgreat
p95
F3
sVforaign
p96
F1
sVtalent
p97
F1
sVstudy
p98
F1
sVstudied
p99
F1
sVgod!)
p100
F1
sVaccomplished
p101
F1
sVhere,
p102
F1
sVbooks;
p103
F1
sVmakes
p104
F1
sVhonor
p105
F1
sVreckoned
p106
F1
sVprints
p107
F1
sVlove
p108
F1
sVdanger
p109
F1
sVconfession
p110
F1
sVprivate
p111
F2
sVsorrows
p112
F1
sVput
p113
F1
sVwit
p114
F3
sVaimed
p115
F1
sVcomposer
p116
F1
sVimmediatly
p117
F1
sV(with
p118
F1
sVprevented)
p119
F1
sVuse
p120
F2
sVfrom
p121
F8
sVproceed
p122
F1
sVwould
p123
F5
sV&
F1
sVstationers
p124
F1
sVfrance
p125
F1
sVvanities
p126
F1
sVlive
p127
F1
sVtherefore
p128
F1
sVtaken
p129
F1
sVangels
p130
F1
sVmore
p131
F4
sVgained
p132
F1
sVdoor
p133
F1
sVholy
p134
F4
sVtranscends
p135
F1
sVposthume;
p136
F1
sVhurt
p137
F2
sVgrief
p138
F1
sVeffect
p139
F2
sVaccept
p140
F1
sVware
p141
F1
sVmust
p142
F5
sVme
p143
F6
sVaccount
p144
F1
sVword
p145
F1
sVaugment
p146
F1
sVthis
p147
F16
sVmeans)
p148
F1
sVwork
p149
F2
sVprov.
p150
F1
sVsoul
p151
F2
sVinveterate
p152
F1
sVobvious
p153
F1
sVcan
p154
F2
sVpraise
p155
F2
sVfollies
p156
F1
sVabroad,
p157
F1
sVmy
p158
F11
sVmeer
p159
F1
sValowed
p160
F1
sVconstant,
p161
F1
sVreserved
p162
F1
sVcorrupted
p163
F3
sVstream
p164
F1
sVgive
p165
F3
sVsome-measure;
p166
F1
sVnow
p167
F3
sVpieces
p168
F1
sVescaped
p169
F1
sVrefine
p170
F1
sVwant
p171
F2
sVphrase
p172
F1
sVnone,
p173
F2
sVyet
p174
F1
sV!
F1
sVindifferent
p175
F1
sVadvantage
p176
F2
sVdress
p177
F1
sVcleansing
p178
F1
sVwrite
p179
F2
sVhow
p180
F1
sVpassibus
p181
F1
sVwriters
p182
F1
sVsacred
p183
F3
sVquod
p184
F1
sVanswer
p185
F1
sVinstead
p186
F1
sVordinary
p187
F1
sVstir
p188
F1
sVsin
p189
F4
sVcreature
p190
F1
sVassistance)
p191
F1
sVintended
p192
F1
sVmouths
p193
F1
sVmay
p194
F7
sVit!)
p195
F1
sVafter
p196
F2
sVthem
p197
F3
sVhence
p198
F1
sVmad
p199
F1
sVcuriosity
p200
F1
sVdate
p201
F1
sVflourish
p202
F1
sVman
p203
F2
sVa
F30
sVdissolving
p204
F1
sVcorrupting
p205
F1
sVconscious
p206
F1
sVlight
p207
F1
sVgrant
p208
F1
sVor
p209
F8
sVsi
p210
F1
sVso
p211
F12
sVevery
p212
F1
sVgranted
p213
F1
sV(after
p214
F2
sVpassages
p215
F1
sVhelp
p216
F1
sVfurnished
p217
F1
sVdiverse,---
p218
F1
sVmagistrate
p219
F1
sVyears
p220
F2
sVstile
p221
F1
sValready
p222
F1
sVprelibation
p223
F1
sVdisease.
p224
F1
sVstill
p225
F1
sVdesign,
p226
F1
sVcontemplations
p227
F1
sVbefore
p228
F2
sVperfect
p229
F1
sVtruth;
p230
F1
sVdispose
p231
F1
sV,
F68
sVhim
p232
F4
sVavit
p233
F1
sVpersist
p234
F1
sVlatitude
p235
F1
sVmight
p236
F1
sVinto
p237
F1
sVworld,
p238
F1
sVthen
p239
F12
sVit,
p240
F3
sVgood
p241
F1
sVpractick
p242
F1
sVit)
p243
F2
sVconceits;
p244
F1
sVtemer
p245
F1
sVheaven
p246
F1
sVit:
p247
F1
sVit;
p248
F1
sVthey
p249
F11
sVreaders?
p250
F1
sVnot
p251
F10
sVreckoning
p252
F1
sVday
p253
F1
sVnor
p254
F1
sVstrive
p255
F1
sVeasily
p256
F2
sVterm
p257
F1
sVwallowing
p258
F1
sVlies
p259
F3
sVfancies,
p260
F1
sVarrows
p261
F1
sVleast)
p262
F1
sVdifficult
p263
F1
sVlewdness
p264
F1
sVprevailing
p265
F1
sVbegged
p266
F1
sVdeum:
p267
F1
sVcommunication
p268
F1
sV(so
p269
F1
sVbooks
p270
F2
sVmeasure
p271
F1
sVour
p272
F2
sVseldom,
p273
F1
sVseditious
p274
F1
sVout
p275
F3
sVmisfortune
p276
F1
sVopened
p277
F1
sVentertainment
p278
F1
sVpublique
p279
F1
sVgod
p280
F3
sVsince
p281
F1
sVeffectual
p282
F1
sVpublish
p283
F1
sVwholly
p284
F1
sVtime,
p285
F2
sVthus,
p286
F1
sVtime.
p287
F1
sVkingdom.
p288
F1
sVreader
p289
F1
sVheavenly
p290
F1
sVissue
p291
F1
sVoverflowing
p292
F1
sVill:
p293
F1
sVpamphlets.
p294
F1
sVfree
p295
F1
sVdiffering
p296
F1
sVattending
p297
F1
sVreason
p298
F4
sVill,
p299
F1
sVcensure
p300
F1
sVbesides
p301
F1
sVthem.
p302
F2
sVqui
p303
F1
sVpoems
p304
F1
sVcompositions
p305
F1
sVbe,
p306
F1
sVturn
p307
F1
sVimpure
p308
F1
sVrecompense
p309
F1
sV(peradventure)
p310
F1
sVconsequence
p311
F1
sVcuisordida
p312
F1
sV(as
p313
F3
sVfrequent
p314
F1
sVfirst
p315
F1
sVfictions
p316
F1
sVsaving
p317
F1
sVplainly
p318
F1
sVantiquity
p319
F1
sVdone
p320
F1
sVfast
p321
F1
sVanother
p322
F2
sVimpossible
p323
F1
sVmessage
p324
F1
sVwickedness,
p325
F1
sVtoo;
p326
F1
sVhave,
p327
F1
sVremember,
p328
F1
sVbe)
p329
F1
sVsadly
p330
F1
sVpublication
p331
F1
sVpersons,
p332
F1
sVbe;
p333
F1
sVtheir
p334
F10
sVtoo
p335
F1
sVstuffed
p336
F1
sVme,
p337
F1
sVvolutation
p338
F1
sVmalady
p339
F1
sVpolish'd
p340
F1
sVpiety,
p341
F1
sVfirst,
p342
F2
sVthat
p343
F37
sVrefuse
p344
F1
sVauthors
p345
F1
sVinnoxious,
p346
F1
sVmuch;
p347
F1
sVgrace
p348
F1
sV(every
p349
F1
sVdistance
p350
F2
sVedition
p351
F1
sVrev.
p352
F1
sVinfectious
p353
F1
sVsolomon
p354
F1
sVauthority,
p355
F1
sVto.
p356
F1
sVwere
p357
F3
sVbehinde
p358
F1
sV1.
p359
F1
sVand
p360
F81
sVfashion
p361
F1
sVmine
p362
F1
sVdash
p363
F1
sVseed
p364
F1
sVhave
p365
F6
sVseen
p366
F1
sV(said
p367
F1
sVany
p368
F3
sVsensual
p369
F2
sVabroad
p370
F1
sV(indeed)
p371
F1
sVscriptures
p372
F1
sVebullitions
p373
F1
sVself
p374
F2
sVsparingly,
p375
F1
sVrelatives
p376
F1
sVsubjects
p377
F1
sVexpected,
p378
F1
sVwhich
p379
F15
sVburnis
p380
F1
sVdivers
p381
F1
sVconscience
p382
F1
sVaccount,
p383
F1
sVfatherless
p384
F1
sVinference
p385
F1
sVshall
p386
F2
sVwho
p387
F7
sVwhat
p388
F1
sVmost
p389
F10
sVamongst
p390
F1
sVdevice
p391
F1
sVpages
p392
F1
sVinexcusable
p393
F1
sVspirits
p394
F4
sV(perhaps)
p395
F1
sVreward
p396
F1
sVapposite
p397
F1
sVliquidam
p398
F1
sVobserved)
p399
F1
sVlater
p400
F1
sVsubject,
p401
F1
sVhagiography
p402
F1
sVpenitent
p403
F1
sVaccounted
p404
F1
sV(blessed
p405
F1
sVcame
p406
F1
sVimpression
p407
F2
sVgold
p408
F2
sVwilful
p409
F1
sVable
p410
F1
sVone,
p411
F1
sVsanctity
p412
F1
sVtryed
p413
F1
sVoathes,
p414
F1
sVcarefully
p415
F1
sVscarce
p416
F1
sVprincipal
p417
F1
sVtrue,
p418
F1
sVplentifully
p419
F1
sVwith
p420
F16
sVwrites
p421
F1
sVsentence
p422
F1
sVscurrilous
p423
F1
sVtentate
p424
F1
sVshould
p425
F3
sVhand,
p426
F1
sVprint.
p427
F1
sVhands.
p428
F1
sVhumor,
p429
F1
sV(by
p430
F2
sVhope
p431
F2
sVdo
p432
F2
sVhis
p433
F14
sVadventurers
p434
F1
sVconduct
p435
F1
sVendamage
p436
F1
sVremedy
p437
F1
sVcannot
p438
F2
sVperfection
p439
F3
sValtogether
p440
F1
sVbuyer
p441
F1
sVmanuscripts
p442
F1
sVsolum,
p443
F1
sVbeseech
p444
F2
sVqu
p445
F1
sVnumerous
p446
F1
sVexcel
p447
F1
sVcontents;
p448
F1
sVbook
p449
F1
sVbad
p450
F2
sVwrite,
p451
F1
sVhistory
p452
F1
sVgathered
p453
F1
sVforbear,
p454
F1
sVthem,
p455
F6
sVwhere
p456
F1
sVcommunicated
p457
F1
sVrastris
p458
F1
sVonely,
p459
F1
sVfair
p460
F1
sVbrought
p461
F1
sValso;
p462
F1
sVdefile
p463
F1
sVbeg
p464
F1
sVflourishing
p465
F1
sVview,
p466
F1
sVsed
p467
F1
sVare
p468
F7
sVdesperate
p469
F2
sVcorrupt
p470
F1
sVend,
p471
F1
sVsubject
p472
F1
sVfails
p473
F1
sVsaid
p474
F2
sVswines
p475
F1
sVhorrid
p476
F1
sVgenius
p477
F2
sVidle
p478
F4
sVrequest,
p479
F1
sVfavor
p480
F1
sVstate
p481
F1
sVvarious
p482
F1
sVpoyson
p483
F1
sVguilt
p484
F1
sVneither
p485
F1
sVman,
p486
F1
sVfilthiness
p487
F1
sV(though
p488
F2
sVnotice
p489
F1
sVmen
p490
F2
sVgeorge
p491
F1
sVnotoriously
p492
F1
sVdeliver
p493
F1
sVascribed
p494
F1
sVcommunicable
p495
F1
sVexhortations
p496
F1
sVfaults,
p497
F1
sVlet
p498
F2
sVcome
p499
F1
sVpity
p500
F1
sVboth
p501
F3
sVcondition,
p502
F1
sVlast
p503
F1
sVmany
p504
F6
sVfinde
p505
F1
sVquiet
p506
F1
sVagainst
p507
F2
sVdevotion
p508
F2
sVconceits
p509
F1
sVfoe
p510
F1
sVspirit,
p511
F1
sVglorious
p512
F1
sVnay,
p513
F1
sVleafe
p514
F1
sVvermine
p515
F1
sVcharacter
p516
F1
sVvain
p517
F1
sVholyness
p518
F2
sVcelestial
p519
F1
sVnon
p520
F1
sVlearning
p521
F1
sVtogether,
p522
F1
sVprophanely
p523
F1
sVunclean
p524
F1
sVpr
p525
F1
sVhome;
p526
F1
sVdead)
p527
F1
sVbeen
p528
F2
sV.
F15
sVwhom
p529
F3
sVmuch
p530
F5
sVpeaceful
p531
F1
sVvirtuous,
p532
F1
sVrich,
p533
F1
sVrecovered.
p534
F1
sVlife
p535
F6
sVsobriety
p536
F1
sVprosperous
p537
F1
sVsuccess,
p538
F1
sVsufficient
p539
F1
sVdead,
p540
F1
sVexposed
p541
F1
sVsupprest
p542
F1
sVobserve
p543
F1
sVlives
p544
F1
sVminister
p545
F1
sVearnestly
p546
F1
sVthose
p547
F7
sVvitious
p548
F2
sVlook
p549
F1
sVthese
p550
F1
sVwill
p551
F13
sVwhile
p552
F1
sVreformed
p553
F1
sVerror
p554
F1
sVfirebrands,
p555
F1
sVfurther,
p556
F1
sVmistake
p557
F2
sVivybush
p558
F1
sVis
p559
F31
sVit
p560
F20
sVlascivious
p561
F2
sVconverts
p562
F1
sVin
p563
F36
sVimpieties,
p564
F1
sVwisely
p565
F1
sVseem
p566
F1
sVif
p567
F7
sVheart)
p568
F1
sVitaly
p569
F1
sVauthor
p570
F1
sV)
F8
sVthings
p571
F1
sVmake
p572
F1
sVromance
p573
F1
sVaetulit,
p574
F1
sVdescend
p575
F1
sVimpious
p576
F1
sVivory,
p577
F1
sVreceives
p578
F1
sVsickness
p579
F1
sVflesh
p580
F1
sVassist
p581
F1
sVupon
p582
F3
sVread,
p583
F1
sVevil
p584
F4
sVpersons
p585
F2
sVdiversion
p586
F1
sVfruit
p587
F1
sVauthors,
p588
F1
sVfrequently
p589
F1
sVthoughts
p590
F2
sVi
F31
sVdoleful
p591
F1
sVpunishment
p592
F1
sVcanosum
p593
F1
sVyet,
p594
F1
sVwithout
p595
F3
sVgreatest
p596
F1
sVthing,
p597
F1
sVenglish
p598
F3
sVthe
p599
F64
sV\u005c---
p600
F1
sVadmired
p601
F1
sVleft
p602
F1
sVlest
p603
F3
sVaequis
p604
F1
sVpretious
p605
F1
sVjust
p606
F1
sVdung-bill
p607
F1
sVbeing
p608
F3
sVgods
p609
F1
sVjudge
p610
F1
sV(i
p611
F4
sV(o
p612
F1
sVpreferr'd
p613
F1
sVqualifications
p614
F1
sVexpiated
p615
F1
sVunto
p616
F4
sVsprang
p617
F1
sVdeath
p618
F6
sVinfinitely
p619
F1
sVcommon
p620
F1
sVhad
p621
F4
sVmr.
p622
F1
sVsubversion
p623
F1
sVverse
p624
F5
sVmonstra
p625
F1
sVobedient
p626
F1
sVcontrary
p627
F1
sVcum
p628
F1
sVought
p629
F1
sVgave
p630
F1
sVsoul:
p631
F1
sVdesire
p632
F2
sVcomplaint
p633
F1
sVcrimine
p634
F1
sVloss
p635
F1
sVread
p636
F3
sVdistractions,
p637
F1
sVearnest
p638
F1
sVeasie,
p639
F1
sVknow
p640
F1
sVperformance
p641
F1
sVpress
p642
F1
sVworld
p643
F1
sVhaud
p644
F1
sVvanity
p645
F1
sV(of
p646
F1
sVacute
p647
F1
sVnecessary
p648
F1
sVlike
p649
F3
sVsuccess
p650
F1
sVfollows
p651
F1
sVgifted
p652
F1
sVcontinue
p653
F2
sValways
p654
F2
sVhumbly
p655
F2
sVfoolish
p656
F1
sVtowards
p657
F1
sVvocem;
p658
F1
sVpieties
p659
F1
sVeffusion
p660
F1
sVbecause
p661
F5
sVpeople
p662
F1
sV11.
p663
F1
sVsome
p664
F9
sVimmortal
p665
F1
sVproductions
p666
F1
sVbesides,
p667
F1
sVredeemer:
p668
F1
sVdivine
p669
F2
sVpublick
p670
F1
sVtinctum
p671
F1
sV&c.---
p672
F1
sVacquaintance
p673
F1
sVonely
p674
F1
sVfor
p675
F25
sVsake)
p676
F1
sVbold,
p677
F1
sVlean
p678
F1
sVsake,
p679
F1
sVmarr'd
p680
F1
sVpen
p681
F1
sVdrudge
p682
F1
sVspeak
p683
F2
sVfreed
p684
F1
sVbe
p685
F16
sVextenuation
p686
F1
sVpower
p687
F1
sVthink)
p688
F2
sVexample,
p689
F1
sVcommunicate
p690
F1
sVsprung
p691
F2
sVprocure
p692
F1
sVstep
p693
F1
sVworthy
p694
F1
sVmixtures.
p695
F1
sVby
p696
F14
sVtakes
p697
F2
sVshine
p698
F1
sVcomparison
p699
F1
sVrare
p700
F1
sVpiety
p701
F1
sVof
p702
F57
sVprove
p703
F1
sVin.
p704
F1
sVgreater
p705
F1
sVdeserves
p706
F1
sVwhence
p707
F1
sVblackness
p708
F1
sVos
p709
F1
sVmeddle
p710
F1
sVfulfil
p711
F1
sVown
p712
F3
sVfollowed
p713
F1
sVinstruments
p714
F1
sVantidote
p715
F1
sVblessed
p716
F1
sVnaturalized
p717
F1
sVnothing
p718
F3
sVlaudare
p719
F1
sVlewd
p720
F2
sVyour
p721
F3
sVher
p722
F1
sValmighty
p723
F1
sVthere
p724
F2
sVlong
p725
F2
sVhymn
p726
F1
sVobscene,
p727
F1
sVvein
p728
F1
sVstars
p729
F1
sV:
F9
sVwas
p730
F6
sV22.
p731
F1
sVhead
p732
F1
sVhimself
p733
F1
sVyou)
p734
F1
sVsomething
p735
F1
sVattempted
p736
F1
sVsnowt
p737
F1
sVregard
p738
F1
sVbut
p739
F12
sVpiously
p740
F1
sVgain
p741
F1
sVlearned
p742
F1
sVrighteousness,
p743
F1
sVtrue
p744
F5
sVconsideration,
p745
F2
sVhe
p746
F14
sVproverbs
p747
F1
sVmade
p748
F2
sVwise
p749
F1
sVglory
p750
F1
sVup
p751
F1
sVus
p752
F1
sVrecord
p753
F1
sVdirty
p754
F1
sVflie
p755
F1
sVloving
p756
F2
sVhe)
p757
F1
sVschismatical
p758
F1
sVgone
p759
F1
sVensues
p760
F1
sVrightly
p761
F1
sVcertain
p762
F1
sVam
p763
F5
sVan
p764
F7
sVdear
p765
F1
sVas
p766
F18
sVat
p767
F6
sVdiscretion)
p768
F1
sVcheck
p769
F1
sVwide,
p770
F1
sVno
p771
F9
sVwhen
p772
F3
sVlately
p773
F1
sV4.
p774
F1
sVdespising
p775
F1
sVconceptions
p776
F1
sVother
p777
F2
sVconduce
p778
F1
sVspecial
p779
F1
sVyou
p780
F4
sVpoor
p781
F2
sVperusal
p782
F1
sVshine,
p783
F1
sVindeed,
p784
F1
sVgross
p785
F1
sVnourishment
p786
F1
sVdignum
p787
F1
sVprepared
p788
F1
sVrefreshments
p789
F1
sVkinde
p790
F1
sVsuppression
p791
F1
sV&c.
p792
F1
sVremote
p793
F1
sVlonger
p794
F1
sVapology
p795
F1
sVjewel
p796
F1
sVuseful
p797
F1
sVtime
p798
F1
sVhaving
p799
F1
s.