ccollections
defaultdict
p1
(c__builtin__
float
p2
tRp3
Vall
p4
F2
sVcaput
p5
F1
sVless
p6
F1
sVbeing
p7
F5
sVfools-coat
p8
F1
sVvary
p9
F1
sVyoung
p10
F1
sVdisguise
p11
F1
sVtranslation,
p12
F1
sVsubtle
p13
F1
sVexpressions
p14
F1
sVyet
p15
F1
sVdeformed,
p16
F1
sVear,
p17
F1
sV(being
p18
F1
sVfit
p19
F1
sVtimes;
p20
F1
sVpoesie
p21
F1
sVpoesic
p22
F1
sVgrace
p23
F2
sVbetter
p24
F2
sVto
p25
F8
sVoffers
p26
F1
sVlate
p27
F1
sVsuspect
p28
F1
sVmust
p29
F1
sVimpressions
p30
F1
sVeye;
p31
F1
sVthen
p32
F5
sVhis
p33
F5
sVworse
p34
F1
sVeasily
p35
F1
sVtemporis
p36
F1
sVresults
p37
F1
sVmade
p38
F2
sVevery
p39
F2
sVit;
p40
F1
sVmortuum
p41
F1
sVwch
p42
F2
sVnot
p43
F8
sVhim
p44
F4
sVbigger
p45
F1
sVnaturally
p46
F1
sVreading
p47
F1
sVlost
p48
F2
sVtransfusion,
p49
F1
sVpresented
p50
F1
sVdid
p51
F1
sVleast,
p52
F1
sVthem;
p53
F1
sVlanguage,
p54
F3
sV(i
p55
F2
sVeither
p56
F1
sVbecome
p57
F1
sVwhere
p58
F3
sVgraces
p59
F1
sVclothes
p60
F1
sV(but
p61
F1
sVart
p62
F1
sVoften
p63
F1
sVverbal
p64
F1
sVwhosoever
p65
F1
sVtacitus
p66
F1
sVtraveller,
p67
F1
sVenergy
p68
F1
sVenormously
p69
F1
sVare
p70
F6
sVfollow
p71
F2
sVour
p72
F4
sVout
p73
F1
sVappear
p74
F1
sVmisfortune
p75
F1
sVonely
p76
F1
sVhim;
p77
F1
sVfor
p78
F1
sVmine
p79
F1
sVhim,
p80
F2
sVphrase.
p81
F1
sVnew
p82
F1
sV;
F1
sVprincipal
p83
F1
sVauribus
p84
F1
sVbe
p85
F2
sVfull
p86
F1
sVnature
p87
F1
sVfrench
p88
F1
sValteration,
p89
F1
sVput
p90
F1
sVfuller
p91
F1
sVby
p92
F4
sVchange
p93
F1
sVcare
p94
F1
sVon
p95
F1
sVlife,
p96
F1
sVlanguage
p97
F3
sVhis,
p98
F2
sVof
p99
F19
sVcould
p100
F1
sV&
F1
sVso
p101
F5
sVmine,
p102
F1
sVspirit,
p103
F1
sVitalian
p104
F1
sVthink
p105
F1
sVviolence
p106
F1
sVaccommodatum
p107
F1
sVown
p108
F2
sVhath
p109
F1
sVspeaking,
p110
F1
sVinto
p111
F5
sVone
p112
F1
sVbrought
p113
F1
sVcals
p114
F1
sVshould
p115
F1
sVsense,
p116
F1
sVspeak
p117
F3
sVpouring
p118
F1
sVevaporate;
p119
F1
sVthoughts,
p120
F1
sVthere
p121
F3
sVthey
p122
F3
sVdue
p123
F1
sVleast
p124
F1
sVnation,
p125
F1
sVvirgil
p126
F1
sVtherefore
p127
F1
sVthoughts;
p128
F1
sVtranslate
p129
F1
sVgives
p130
F1
sVself;)
p131
F1
sV,
F1
sVthat
p132
F6
sVspirit
p133
F1
sVconceptions,
p134
F1
sVbut
p135
F5
sVname)
p136
F1
sVpart
p137
F1
sVanother,
p138
F1
sVhappinesses
p139
F1
sVwith
p140
F1
sVpeculiar
p141
F1
sVhe
p142
F4
sVistius
p143
F1
sVproportions)
p144
F1
sVthis
p145
F4
sVwish
p146
F1
sVmeans,
p147
F1
sVgarbs
p148
F1
sVwill
p149
F4
sVi
F6
sVremain
p150
F1
sVwere
p151
F2
sVmaking
p152
F2
sVabroad,
p153
F1
sVmore
p154
F1
sVmy
p155
F5
sVhis.
p156
F1
sVand
p157
F15
sVfashion
p158
F1
sVwords;
p159
F2
sVgive
p160
F1
sValmost
p161
F1
sVcertain
p162
F2
sVis
p163
F2
sVturned
p164
F2
sVit
p165
F8
sVperson,
p166
F1
sVhope,
p167
F1
sVas
p168
F8
sVat
p169
F3
sVhave
p170
F4
sVin
p171
F4
sVseem
p172
F1
sVany
p173
F2
sVif
p174
F5
sVneeds
p175
F1
sVdefective
p176
F1
sVno
p177
F1
sVrather
p178
F1
sVmake
p179
F2
sVspeech:
p180
F1
sVwherein
p181
F1
sVlatine
p182
F2
sVother
p183
F1
sVspeech
p184
F1
sVwhich
p185
F2
sVneither
p186
F1
sVinstead
p187
F1
sVsubject
p188
F1
sVoffered
p189
F1
sVadded
p190
F1
sVage;
p191
F1
sVshall
p192
F1
sVmay
p193
F1
sVwho
p194
F1
sVupon
p195
F2
sVsermonem
p196
F1
sVdelight
p197
F1
sVcuriosity
p198
F1
sVnothing
p199
F1
sVsuch
p200
F1
sVgrave
p201
F1
sVman
p202
F2
sVa
F7
sVmodes
p203
F1
sVconscious
p204
F1
sVhome
p205
F1
sVsit
p206
F1
sVlife
p207
F1
sVor
p208
F2
sVenglish,
p209
F2
sVenglish
p210
F1
sVapparel
p211
F1
sVthe
p212
F20
sVpoesie;
p213
F1
sVhaving
p214
F1
sVleft
p215
F1
s.