ccollections
defaultdict
p1
(c__builtin__
float
p2
tRp3
Vdearely
p4
F1
sVfig,
p5
F1
sVfoul
p6
F2
sVfour
p7
F9
sVwoods
p8
F2
sVocean,
p9
F3
sVthirst
p10
F1
sVconjuring
p11
F1
sVconjure
p12
F3
sVlooking
p13
F10
sVkingdom,
p14
F1
sVbattalions,
p15
F1
sVcontrast,
p16
F1
sVlord
p17
F5
sVsinking
p18
F2
sVvassal,
p19
F1
sVexpence
p20
F2
sVrashly
p21
F5
sVoceans
p22
F1
sVwood,
p23
F7
sVfaithfull)
p24
F1
sVadvice,
p25
F5
sVbringing
p26
F2
sVmedling
p27
F1
sVdisturb
p28
F2
sVuttering
p29
F2
sVprize
p30
F13
sVstars,
p31
F1
sVfeigned,
p32
F1
sVcane,
p33
F1
sVher)
p34
F2
sVher.
p35
F6
sVnigh
p36
F5
sVtired
p37
F3
sVher!
p38
F1
sVgallies
p39
F5
sVher;
p40
F10
sVher:
p41
F1
sVsecond
p42
F17
sVher?
p43
F2
sVvaliant
p44
F22
sVchin,
p45
F1
sVinanimate
p46
F2
sVescaped,
p47
F3
sVflorence.
p48
F1
sVnature,
p49
F5
sVthunder
p50
F1
sVhector,
p51
F1
sVreport,
p52
F2
sVadmiral
p53
F4
sVexclamations
p54
F2
sVhero
p55
F1
sVavert
p56
F1
sVinterrupting
p57
F6
sVfronts
p58
F1
sVhere
p59
F33
sVchallenge.
p60
F1
sVreported
p61
F2
sVsaile,
p62
F2
sVglass,
p63
F1
sVhers
p64
F2
sVreasons;
p65
F1
sVshock,
p66
F1
sVfurther.
p67
F1
sVerror:
p68
F1
sVreports
p69
F2
sVfinger,
p70
F2
sVnatures
p71
F1
sVmilitary
p72
F1
sVerror,
p73
F1
sVferrareses,
p74
F1
sVgolden
p75
F2
sVcivilities
p76
F1
sVbrought
p77
F31
sVtop-sail
p78
F1
sVspeeches,
p79
F1
sVfire;
p80
F1
sVcontentement
p81
F1
sVcommon.
p82
F1
sVcherishing
p83
F1
sVspoke
p84
F3
sVincamped
p85
F1
sVtherefore
p86
F77
sVstrike
p87
F2
sV(knowing
p88
F1
sVscimatar
p89
F1
sVhigher,
p90
F1
sVholy
p91
F1
sVthousaud
p92
F1
sVbinding
p93
F1
sVhereby
p94
F1
sVwhirling
p95
F1
sVclouds,
p96
F1
sVmidst
p97
F4
sVhold
p98
F4
sVmirth,
p99
F1
sVblustering
p100
F1
sVleapes
p101
F1
sVbrows,
p102
F1
sVpursue
p103
F10
sVpardon;
p104
F2
sVfamed
p105
F1
sVreverence:
p106
F1
sViacamo
p107
F1
sVleaped
p108
F1
sVlaughter,
p109
F2
sVmisfortunes
p110
F3
sVconstant,
p111
F1
sVsun-set
p112
F1
sVunjust
p113
F7
sVartillery
p114
F3
sVintreaty,
p115
F1
sVshore,
p116
F8
sVwant
p117
F11
sVaddressing
p118
F3
sVabsolute
p119
F4
sVparralel
p120
F1
sVtravel
p121
F4
sVcavaliers
p122
F2
sVdamage
p123
F1
sVsurrendred
p124
F1
sVhow
p125
F84
sVhot
p126
F3
sVyouth,
p127
F2
sVunbarqued;
p128
F1
sVdisgrace
p129
F2
sVbeauty
p130
F16
sVmisfortune;
p131
F1
sVmisfortune:
p132
F1
sVcabbin
p133
F1
sVenterprize;
p134
F1
sVmodest
p135
F3
sVdestined
p136
F1
sVimmur'd
p137
F1
sVgrew,
p138
F1
sVmisfortune.
p139
F1
sVmisfortune,
p140
F4
sVsuspitious
p141
F1
sVhectors,
p142
F1
sVendeavoured
p143
F16
sVretired,
p144
F1
sVleaguer,
p145
F1
sVwing
p146
F10
sVsquint
p147
F1
sVwine
p148
F1
sVpearle,
p149
F1
sVpreferments
p150
F1
sVeffect.
p151
F2
sVpaines?
p152
F1
sVeffect,
p153
F3
sVthrone,
p154
F6
sVfidelity
p155
F1
sVwrought
p156
F6
sVbentivoglio,
p157
F1
sVmaturer
p158
F1
sVfit
p159
F22
sVdied,
p160
F1
sVrescued
p161
F3
sVvast
p162
F6
sVfie
p163
F1
sVwales
p164
F1
sVadmirable
p165
F3
sVeasier
p166
F2
sVunresistable
p167
F2
sVgrievous
p168
F2
sVdiligence.
p169
F1
sVeffects
p170
F3
sVinterrupt
p171
F1
sVneoptolomus,
p172
F1
sVsixteen
p173
F2
sVsenator,
p174
F1
sVeasie,
p175
F1
sVnoble,
p176
F7
sVintranced,
p177
F1
sVblushes
p178
F1
sVdumps
p179
F1
sVnoble;
p180
F1
sVincontinency,
p181
F2
sVfancies?
p182
F1
sVpresent)
p183
F1
sVobdurate
p184
F2
sVburial
p185
F1
sVhonorers
p186
F1
sVbrain,
p187
F1
sVfrigat
p188
F2
sVgyant-like
p189
F1
sVintended:
p190
F1
sVfortnight
p191
F1
sVshore.
p192
F2
sVmessage
p193
F2
sVborne
p194
F1
sVspeed,
p195
F5
sVmisfortune
p196
F1
sVself,
p197
F29
sVpotion.
p198
F1
sVself?
p199
F1
sVencourage
p200
F4
sVself;
p201
F2
sVleaped,
p202
F1
sVbate,
p203
F1
sVfoundation
p204
F1
sVvvound,
p205
F1
sVassured
p206
F14
sValbemquel,
p207
F1
sVchilde,
p208
F1
sVfaculties
p209
F2
sVpersons.
p210
F1
sVreproaches,
p211
F1
sVheavy,
p212
F1
sVselfe
p213
F30
sVostend
p214
F1
sVconversing,
p215
F1
sVeares
p216
F2
sVspindle
p217
F1
sVdisturbed
p218
F3
sVspeedy
p219
F8
sVsenate,
p220
F2
sVreward;
p221
F1
sVmerandola
p222
F1
sVme!
p223
F2
sVscepters,
p224
F1
sVreward,
p225
F1
sVinfringed
p226
F1
sVbetrothed
p227
F2
sVmarry,
p228
F1
sVpale-fear
p229
F1
sVher,
p230
F72
sVnation,
p231
F4
sVneeded
p232
F2
sVnation.
p233
F2
sVmaster
p234
F8
sVlisted
p235
F3
sVlustre
p236
F1
sVbethought
p237
F2
sVbitter
p238
F1
sVwas;
p239
F1
sVrewards
p240
F1
sVwas?
p241
F2
sValcade-beigh,
p242
F1
sVwisdom
p243
F1
sVwas)
p244
F3
sVfaithless,
p245
F1
sVwas,
p246
F19
sVconceded
p247
F1
sVfrownes
p248
F1
sVspreads
p249
F1
sVshowed
p250
F4
sVcoward
p251
F9
sVtree
p252
F2
sVlikely
p253
F1
sVnations
p254
F1
sVidle
p255
F2
sVinsnared
p256
F1
sVendure
p257
F6
sVfeeling
p258
F1
sVwillingness
p259
F1
sVwell:
p260
F1
sVheads,
p261
F2
sVloathsome
p262
F1
sVwell,
p263
F5
sVwell.
p264
F1
sVguessed,
p265
F1
sV(said
p266
F75
sVaffairs
p267
F2
sVknells,
p268
F1
sVaboard;
p269
F3
sVcope
p270
F1
sVeagerly
p271
F1
sVrecommended
p272
F6
sVmorrow,
p273
F1
sVdexterity.
p274
F1
sVdexterity,
p275
F1
sVvvithin
p276
F1
sVseemed,
p277
F2
sVcommitting
p278
F1
sVshall
p279
F85
sVmouth
p280
F3
sVletter
p281
F5
sVfast,
p282
F1
sVbrood,
p283
F1
sVredressing
p284
F1
sVshalt
p285
F10
sVstupid
p286
F1
sVdoor,
p287
F2
sVcamp
p288
F3
sVconsummate
p289
F1
sVpretty
p290
F3
sVcame
p291
F62
sVsaying
p292
F4
sVoaths
p293
F2
sVdispatcht,
p294
F1
sVparticipate
p295
F1
sVtempted
p296
F2
sVrepose;
p297
F1
sVskirmishes
p298
F1
sVboysterous
p299
F5
sVmens
p300
F3
sVextasie
p301
F4
sVrepose,
p302
F1
sVbliss
p303
F1
sVrich
p304
F6
sVheartily
p305
F2
sVhaste,
p306
F1
sVlivelyhood
p307
F1
sVlady,)
p308
F1
sVterrors
p309
F1
sVpocket
p310
F1
sVmeeting,
p311
F1
sValarum'd
p312
F1
sValtogether
p313
F3
sVmen;
p314
F1
sVthem;
p315
F9
sVthem:
p316
F2
sVmen,
p317
F10
sVmen.
p318
F2
sVrelease
p319
F3
sVthem.
p320
F8
sVthem,
p321
F51
sVboarded
p322
F1
sVthem)
p323
F2
sVfair
p324
F32
sVtrayterous
p325
F1
sVwilt,
p326
F1
sVlamentations,
p327
F1
sVbled
p328
F1
sVfail
p329
F3
sVbess
p330
F2
sVbest
p331
F11
sVlots
p332
F1
sVestate,
p333
F5
sVlodgings,
p334
F2
sVadventure,
p335
F8
sVscore
p336
F3
sVunto
p337
F21
sVscorn
p338
F4
sVpreserve
p339
F8
sVheightned
p340
F1
sVnature
p341
F4
sVtwinkling
p342
F1
sVpardoned;
p343
F1
sVtearms
p344
F1
sVseriously,
p345
F1
sVdexterously
p346
F1
sVdebt
p347
F2
sVpity
p348
F4
sVaccident
p349
F12
sVring;
p350
F1
sVsacrificing
p351
F1
sVdisdain
p352
F1
sVcountry
p353
F15
sVconstitutions;
p354
F1
sVdemanded
p355
F7
sVclambring
p356
F1
sVring.
p357
F1
sVre-entrance,
p358
F1
sVring,
p359
F6
sVpirat,
p360
F1
sVcloyster
p361
F1
sVadventured
p362
F6
sVasked
p363
F1
sVnay,
p364
F4
sVchains
p365
F1
sVvail
p366
F2
sVvain
p367
F13
sVcommands;
p368
F2
sVthred?
p369
F1
sVmoney,
p370
F1
sVjulietta;
p371
F1
sVdeferre
p372
F1
sVclutches,
p373
F1
sVfriuli,
p374
F1
sVcommands,
p375
F2
sVembassadors
p376
F1
sVfam'd
p377
F2
sVremained
p378
F3
sV.
F1
sVmuch
p379
F116
sVports.
p380
F1
sVlife
p381
F42
sVstern;
p382
F1
sVproffer.
p383
F1
sVso,)
p384
F1
sVmoneys
p385
F1
sVlift
p386
F1
sVdote
p387
F1
sVdoubts
p388
F2
sVunexperienced
p389
F1
sVdoth
p390
F9
sVchill
p391
F1
sVmaner
p392
F4
sVwrought.
p393
F1
sVbrideled
p394
F1
sVwonted
p395
F3
sVprostrate
p396
F1
sVspouse;
p397
F2
sVplayed
p398
F2
sVfelt;
p399
F1
sVconsent,
p400
F3
sVenrolled;
p401
F1
sVclutches
p402
F1
sVsaid)
p403
F1
sVvoyage)
p404
F1
sVsaid,
p405
F3
sVtrusted
p406
F2
sVdevoured,
p407
F1
sVglories,
p408
F1
sVthings
p409
F25
sVfletcher.
p410
F1
sVhorseback,
p411
F3
sVharmony
p412
F2
sVbid
p413
F7
sVincreased,
p414
F1
sVdestruction;
p415
F1
sVmarches
p416
F1
sVunexpressible
p417
F2
sVbeloved,
p418
F1
sVtops
p419
F2
sVfaroll,
p420
F1
sVconfusedly
p421
F2
sVdifferences,
p422
F1
sValas!
p423
F21
sVwhich;
p424
F1
sVreplied;
p425
F1
sVexpressions.
p426
F1
sVadventures,
p427
F1
sVthunder-thumping
p428
F1
sVreplied,
p429
F2
sVwhich,
p430
F6
sVthing.
p431
F1
sVthing,
p432
F4
sVdeaths;
p433
F1
sVfittest
p434
F2
sVthee:
p435
F1
sVkingdoms;
p436
F2
sVopinions
p437
F1
sVspurred
p438
F3
sVtherewithall
p439
F5
sVforsaken
p440
F1
sVfirme,
p441
F1
sVprognosticate
p442
F1
sVbrandish
p443
F1
sVsucceeding
p444
F2
sVease
p445
F5
sVhad
p446
F538
sVthereabouts,
p447
F2
sVdisparity
p448
F1
sVinnocent
p449
F2
sVfalter
p450
F1
sVhas
p451
F13
sVmantel,
p452
F1
sVransomeless
p453
F1
sVosman
p454
F1
sVpossible
p455
F31
sVsleep;
p456
F1
sVpossibly
p457
F3
sVchuse
p458
F1
sVbirth
p459
F12
sVsleep,
p460
F1
sVbarbery?
p461
F1
sVopinion,
p462
F2
sVdesire
p463
F27
sVcomportment
p464
F2
sVnew-found
p465
F1
sVoraisons
p466
F4
sVstept
p467
F2
sVsteps
p468
F2
sVexcellency
p469
F1
sVeffusion
p470
F4
sVright
p471
F13
sVold
p472
F20
sVeasy
p473
F1
sVcrown
p474
F2
sVpitch?
p475
F1
sVcaptive
p476
F1
sVbasilikes,
p477
F1
sVinexpressable
p478
F1
sVleft,
p479
F1
sVmaosolean
p480
F1
sVpitch,
p481
F1
sVenemies
p482
F15
sVperchance
p483
F2
sVfor
p484
F546
sVbottom
p485
F1
sVfox
p486
F1
sVfoy
p487
F1
sVfencing,
p488
F2
sVrepleat
p489
F1
sVsummoned
p490
F1
sVfame,
p491
F4
sVforcet,
p492
F4
sVdefendants,
p493
F1
sVcitizens
p494
F1
sVgrandezza,
p495
F1
sVsycophant
p496
F1
sVdespair
p497
F2
sVworthily
p498
F3
sVraised
p499
F5
sVsol
p500
F1
sVson
p501
F10
sVthankful
p502
F1
sVfurnishing
p503
F1
sVkisse
p504
F2
sVforfect,
p505
F1
sVfields,
p506
F1
sVsuffice
p507
F6
sVconstantly
p508
F1
sVwaite
p509
F3
sVspring
p510
F4
sVacquainting
p511
F1
sVhappy
p512
F21
sVoffer
p513
F8
sVraise.
p514
F1
sVxeriff
p515
F2
sVso,
p516
F19
sVso.
p517
F2
sVjourny
p518
F1
sVso;
p519
F1
sVconsummate,
p520
F1
sVcongratulations
p521
F1
sVignorance.
p522
F1
sVrejoyce
p523
F3
sVleagure,
p524
F1
sVproved
p525
F5
sVencounters,
p526
F1
sVextenuates
p527
F1
sVaccounting
p528
F1
sVeloquence;
p529
F1
sVprotested
p530
F4
sVunlesse
p531
F2
sVus
p532
F77
sVperfections.
p533
F1
sVwithstand;
p534
F1
sVaccomodating
p535
F1
sVcrowns
p536
F2
sVuttered
p537
F2
sVflood
p538
F1
sVdrowsinesses:
p539
F1
sVambitious
p540
F1
sVbrings
p541
F1
sVcranter,
p542
F1
sVguest,
p543
F10
sVlook't
p544
F1
sV't
p545
F5
sVvaliant?
p546
F1
sVdevotarist
p547
F1
sVprove.
p548
F3
sVtransported
p549
F4
sVvaliant)
p550
F1
sVcomely
p551
F1
sVintent
p552
F2
sVvaliant,
p553
F3
sVentrust
p554
F1
sValwayes
p555
F6
sVcogitations,
p556
F1
sVcrown?
p557
F1
sVhighness
p558
F24
sVconfused,
p559
F1
sVtime
p560
F93
sVconferred
p561
F3
sVchivalry,
p562
F1
sVcorps
p563
F4
sVwhoever
p564
F1
sVstay,
p565
F6
sVponderousness
p566
F1
sVchilde
p567
F3
sVjarring
p568
F1
sVdoted
p569
F1
sVchair
p570
F4
sVjust,
p571
F2
sVbribes
p572
F1
sVweild
p573
F1
sVallarum'd,
p574
F1
sVbalme
p575
F1
sVguest;
p576
F2
sVsupplies
p577
F1
sVexcepted)
p578
F1
sVcircumstances
p579
F3
sVseparated,
p580
F1
sVstayd
p581
F1
sVlevell'd
p582
F1
sVcheap
p583
F1
sVchoice
p584
F5
sVunparrarel'd
p585
F1
sVbustle
p586
F1
sVmantouese;
p587
F1
sVwhile,
p588
F1
sVexact
p589
F2
sVminute
p590
F3
sVarm;
p591
F1
sVpoor,
p592
F1
sVtear
p593
F4
sVmajesty,
p594
F1
sVleave
p595
F41
sVsettle
p596
F1
sVinclination
p597
F1
sVunworthy,
p598
F1
sVecchoing
p599
F1
sVyard,
p600
F1
sVadorne
p601
F1
sVsign
p602
F1
sVsurgions
p603
F3
sVsaw;
p604
F1
sVcelebrated
p605
F1
sVmelt
p606
F1
sVintreating
p607
F1
sVcurrent
p608
F1
sVremembered
p609
F1
sVsaw,
p610
F2
sVfalling
p611
F9
sVbadge
p612
F1
sVexample,
p613
F1
sVjoyntly
p614
F1
sVvisit,
p615
F1
sVblushes,
p616
F1
sVhonour
p617
F30
sVin't;
p618
F1
sVunderstanding
p619
F1
sVaddrest
p620
F1
sVflouts,
p621
F1
sVyards
p622
F2
sVaddress
p623
F3
sValone
p624
F11
sValong
p625
F4
sVpresumption.
p626
F1
sVpresumption,
p627
F1
sVmerchants,
p628
F1
sVladiships
p629
F1
sVravelling
p630
F1
sVdebonair,
p631
F1
sVstudies
p632
F2
sVrespite
p633
F1
sVbeauties,
p634
F1
sVlove
p635
F56
sVbloods
p636
F1
sVship-board,
p637
F1
sVbloody
p638
F8
sVvvinning
p639
F1
sVraking
p640
F1
sVmarble,
p641
F1
sVabase
p642
F1
sVundergone
p643
F2
sVbelieve;
p644
F1
sVperished
p645
F1
sVangry
p646
F6
sVvalue,
p647
F1
sVit,)
p648
F1
sVcontexture
p649
F1
sVbelieve,
p650
F2
sVimaginations
p651
F1
sVopposed
p652
F1
sVdefiring
p653
F1
sVwicked
p654
F1
sVafford
p655
F2
sVwonders,
p656
F4
sVrefrain
p657
F3
sVapproving
p658
F1
sVignorant
p659
F4
sVvirtue
p660
F6
sVlove-ill
p661
F1
sVblood.
p662
F2
sVblood,
p663
F14
sVintreaty.
p664
F1
sVgain'd
p665
F1
sVsun-burnt
p666
F1
sVvalued
p667
F2
sVincited
p668
F1
sVphysitians:
p669
F1
sVoriginally
p670
F1
sVpretend
p671
F1
sVprivy
p672
F1
sVinflamed
p673
F1
sVimportunities,
p674
F1
sVstature
p675
F1
sVbelieved
p676
F5
sVphysitians)
p677
F1
sVadmired
p678
F1
sVkindness:
p679
F1
sVlocks
p680
F1
sVheard.
p681
F2
sVheard,
p682
F5
sVallowed
p683
F1
sVrigor,
p684
F1
sVkindness,
p685
F1
sVnight-gown,
p686
F1
sVmilde
p687
F1
sVsavoy
p688
F3
sVqualified,
p689
F1
sVdivided
p690
F5
sVvainly
p691
F2
sVthunder,
p692
F3
sVrudenesse
p693
F1
sVgoodlake
p694
F52
sVthunder;
p695
F1
sVundertook
p696
F1
sVlisten,
p697
F1
sVfosse,
p698
F1
sVadmire,
p699
F1
sVexpectation
p700
F2
sVtraffick,
p701
F1
sVimproving
p702
F1
sVsuch
p703
F140
sVsuck
p704
F1
sVenvy,
p705
F1
sVrevealed
p706
F2
sVuncomfortlesse,
p707
F1
sVdoom;
p708
F1
sVhearkned
p709
F1
sVvarieties
p710
F1
sVconscious
p711
F1
sVyielding
p712
F3
sVsu
p713
F1
sVrudeness;
p714
F1
sVso
p715
F469
sVfavourites,
p716
F1
sVrudeness,
p717
F1
sVimbarqued,
p718
F1
sVpulled
p719
F1
sVhardly,
p720
F1
sVdifferences
p721
F1
sVaugury
p722
F1
sVyears
p723
F17
sVcourse
p724
F10
sVgyant
p725
F1
sVstrowed
p726
F1
sVearly,
p727
F1
sVgoods,
p728
F4
sVgoods.
p729
F1
sVdead;
p730
F3
sVvertues
p731
F3
sVhonesty,
p732
F2
sVrepaire;
p733
F1
sVdead?
p734
F4
sVsolace
p735
F2
sVmuses
p736
F3
sVdid,
p737
F3
sVbeldam,
p738
F1
sVdead)
p739
F1
sVdead.
p740
F2
sVdead,
p741
F7
sVvvhich
p742
F6
sVtroubled
p743
F3
sVsannazzaro,
p744
F1
sVthereby
p745
F8
sVthine,
p746
F1
sVpassions;
p747
F1
sVnation
p748
F6
sVyear,
p749
F2
sVoblieged,
p750
F1
sVarriving
p751
F1
sVpassions,
p752
F2
sVthine;
p753
F1
sVimprisoned.
p754
F1
sVenmity.
p755
F1
sVbeldame
p756
F1
sVvertue:
p757
F1
sVwithdrew
p758
F1
sVreleased,
p759
F3
sVdecrease,
p760
F1
sVtrouble,
p761
F2
sVprivately)
p762
F1
sVveins
p763
F1
sVvertue,
p764
F6
sVsquare
p765
F1
sVindisposition,
p766
F1
sVwhosoever
p767
F1
sVmorning-star
p768
F1
sVremembrance
p769
F8
sVdisarmed,
p770
F1
sVobeisance,
p771
F1
sVnaked
p772
F2
sVnat'ral
p773
F1
sVsaint.
p774
F2
sVbriefly,
p775
F1
sVdisguise,
p776
F1
sVseriously
p777
F3
sVdisaster.
p778
F1
sVdisaster,
p779
F1
sVprostitutes
p780
F1
sVhague,
p781
F1
sVmillion
p782
F1
sVpossibility
p783
F1
sVquite
p784
F2
sVallarm'd
p785
F1
sVinwardly
p786
F2
sVemulation
p787
F1
sVbesides
p788
F9
sVpoems
p789
F1
sVremainder
p790
F1
sVfavente
p791
F1
sVbassa
p792
F26
sVbackside
p793
F1
sVwrong
p794
F5
sVrouted
p795
F2
sVjealousie
p796
F1
sVhunger-starved
p797
F1
sVflanders
p798
F1
sVhamet
p799
F2
sVaboard
p800
F10
sVneglect
p801
F1
sVlearning,
p802
F1
sVsaving
p803
F4
sVstollen
p804
F1
sVmercy,
p805
F2
sVspoken
p806
F2
sVone
p807
F124
sVvveak
p808
F1
sVmercy;
p809
F1
sVgenerosity,
p810
F3
sVhabitation
p811
F1
sVbefore-broken
p812
F1
sVaffords
p813
F1
sVlanguish
p814
F1
sVcity
p815
F10
sVsolitarily
p816
F1
sVjosina,
p817
F7
sVburst
p818
F1
sVcoat,
p819
F1
sV2
F1
sVsayes
p820
F3
sVcharm'd
p821
F1
sVstructures
p822
F1
sVafford,
p823
F3
sVcentaures
p824
F1
sVon,
p825
F7
sVblows,
p826
F2
sVmuch,
p827
F2
sVridiculous
p828
F1
sVafford;
p829
F1
sVgrimaldi's
p830
F1
sVmeteors
p831
F1
sVfavors
p832
F2
sVfolly
p833
F2
sVjudgement,
p834
F2
sVjudgement.
p835
F1
sVfuture
p836
F5
sVvvearing
p837
F1
sVcavalier
p838
F7
sVintire,
p839
F1
sVdamned
p840
F2
sVpage,
p841
F1
sVtasted
p842
F1
sVenriched;
p843
F1
sVsumptuous
p844
F4
sVintreaties,
p845
F1
sVturned
p846
F8
sVargument
p847
F1
sVjewels
p848
F1
sVsad
p849
F6
sVjewell
p850
F2
sVsay
p851
F10
sVretrogade
p852
F1
sVburied
p853
F7
sVsaw
p854
F7
sVsat
p855
F4
sVlaw,
p856
F2
sVmodena,
p857
F1
sVaside
p858
F6
sVinstructed
p859
F2
sVmasse
p860
F1
sVlaw?
p861
F1
sVtake
p862
F46
sVwanting
p863
F3
sVselfe;
p864
F2
sVopposite
p865
F2
sVknew
p866
F35
sVvice-roy
p867
F4
sVaurora,
p868
F1
sVjewel,
p869
F1
sVstrucken
p870
F1
sVpages
p871
F1
sVgentleman-like
p872
F1
sVpeice
p873
F1
sVafflicted,
p874
F1
sVsale
p875
F1
sVways
p876
F2
sVventring
p877
F1
sVnot,
p878
F19
sVnot.
p879
F1
sVnot)
p880
F1
sVaffirmed
p881
F1
sVlaws
p882
F1
sVwalking
p883
F3
sVusuall
p884
F1
sVcherry
p885
F1
sVbounties,
p886
F2
sVmarshalled
p887
F1
sVclimas's.
p888
F1
sVmerit
p889
F3
sVinvinsible
p890
F1
sVbright
p891
F3
sVequipage;
p892
F1
sVarbour,
p893
F1
sVscarce
p894
F21
sVimagined
p895
F2
sVslow
p896
F1
sVunkind
p897
F2
sVreconciling
p898
F2
sVblinde
p899
F2
sVwelcomed
p900
F1
sVtears
p901
F12
sVgoing
p902
F9
sVoutrage
p903
F1
sVdispute
p904
F1
sVsignet,
p905
F1
sVrejoiced
p906
F2
sVinfallibly
p907
F1
sVfavour,
p908
F4
sVimagine,
p909
F1
sVforraigne
p910
F1
sVprime
p911
F1
sVblind,
p912
F1
sVsurrendring
p913
F1
sVinhumane
p914
F2
sVwhere
p915
F73
sVdown,
p916
F7
sVgratefull,
p917
F1
sVthreats,
p918
F1
sVespy
p919
F3
sVsplendor,
p920
F1
sVexpiate
p921
F3
sVoverflowed
p922
F2
sVhastened
p923
F4
sVescapes.
p924
F1
sVenjoyn
p925
F1
sVhaughty
p926
F1
sVknees,
p927
F6
sVfierceness
p928
F2
sVtherewithal
p929
F3
sVsable
p930
F6
sVman,
p931
F9
sVman.
p932
F1
sVflatteries,
p933
F1
sVinjoy
p934
F1
sVspare
p935
F5
sVtrembling
p936
F1
sVdeck,
p937
F1
sVmans
p938
F4
sVconversed
p939
F2
sVenjoy,
p940
F1
sVmany
p941
F61
sVwest)
p942
F1
sVlamentatitions
p943
F1
sVexpended
p944
F1
sVwest;
p945
F1
sVexpression
p946
F2
sVwaste,
p947
F1
sVyearly
p948
F1
sVpastimes
p949
F1
sVconquerors.
p950
F1
sVconsiders
p951
F1
sVboat
p952
F5
sVwant,
p953
F1
sVwest
p954
F1
sVagility,
p955
F1
sVbreath
p956
F2
sVpractised
p957
F1
sVmotives
p958
F1
sVcosino
p959
F1
sVvirtuous,
p960
F2
sVendeavoring
p961
F1
sVwants
p962
F2
sVconsider,
p963
F3
sVenable
p964
F1
sVthousand
p965
F31
sVconsigned
p966
F1
sVobserve
p967
F3
sVswords,
p968
F6
sVpastime,
p969
F1
sVisabella
p970
F3
sVgirts
p971
F1
sVreceived;
p972
F1
sVheliodorus
p973
F1
sVconsulted
p974
F1
sVready,
p975
F1
sVconfidently
p976
F2
sVsituation
p977
F1
sVendured
p978
F3
sVchanges,
p979
F1
sVbirth;
p980
F1
sVingratitude,
p981
F1
sVpurse
p982
F2
sVingratitude;
p983
F1
sVbirth,
p984
F5
sVapparel,
p985
F1
sVtrophees
p986
F1
sVprevalency
p987
F1
sVfame
p988
F15
sVmasques,
p989
F1
sVnuptials
p990
F1
sVresided
p991
F1
sVtrain,
p992
F1
sVconcealment
p993
F1
sVskittish,
p994
F1
sVrescue.
p995
F2
sVsickness
p996
F1
sVordred
p997
F1
sVway,
p998
F3
sVbirths
p999
F1
sVappareld
p1000
F1
sVdomineering
p1001
F2
sVsayle;
p1002
F1
sVapparell
p1003
F1
sVdisown
p1004
F2
sVlading
p1005
F1
sVbonaventuro,
p1006
F1
sVgilberto,
p1007
F3
sVmadness.
p1008
F1
sVactors;
p1009
F1
sVfollowed,
p1010
F1
sVbiscaia
p1011
F1
sVbeing
p1012
F165
sVrest
p1013
F26
sVsum,
p1014
F6
sVsummed
p1015
F1
sVaspect,
p1016
F1
sVpunishments,
p1017
F1
sVretinue
p1018
F1
sVbeautous
p1019
F7
sVroved
p1020
F1
sVstrange,
p1021
F1
sVjoyful
p1022
F2
sVskies
p1023
F3
sVstarving
p1024
F1
sVrecited,
p1025
F1
sVunprovided,
p1026
F1
sVmamorah
p1027
F1
sVdart
p1028
F3
sVdark
p1029
F2
sVheart-room
p1030
F1
sVdissipated,
p1031
F1
sVworld
p1032
F15
sVsnare
p1033
F1
sVhonourable,
p1034
F2
sVdare
p1035
F14
sVsumme,
p1036
F3
sVstranger
p1037
F18
sVhunger,
p1038
F1
sVclad
p1039
F2
sVtortures,
p1040
F1
sVclay
p1041
F1
sVobstruct
p1042
F1
sVpunishment:
p1043
F1
sVgifts,
p1044
F1
sVdivine
p1045
F7
sVthinks
p1046
F2
sVslight,
p1047
F1
sVdeath-threatning
p1048
F1
sVnoon
p1049
F1
sVfright,
p1050
F1
sVpartiall
p1051
F1
sVrevenged
p1052
F5
sVcountenances
p1053
F1
sVlastly,
p1054
F2
sVrestoring
p1055
F1
sVthink,
p1056
F2
sVbarbarians,
p1057
F1
sVpower
p1058
F26
sVintimate
p1059
F3
sVrefortified
p1060
F1
sVsprung
p1061
F1
sVpunishments
p1062
F1
sVmyriads
p1063
F1
sVjoyfully
p1064
F2
sVrevenge?
p1065
F1
sVindustry
p1066
F1
sVcountenance,
p1067
F3
sVrevenge:
p1068
F1
sVrevenge;
p1069
F1
sVslender
p1070
F2
sVgenona,
p1071
F1
sVunseasonable
p1072
F1
sVneighbor
p1073
F1
sVact
p1074
F9
sVrevenge.
p1075
F6
sVrevenge,
p1076
F8
sVbond
p1077
F1
sVyielded,
p1078
F1
sVjoyned
p1079
F7
sVsuch,
p1080
F1
sVunpractised
p1081
F1
sVburning
p1082
F3
sVanothers
p1083
F2
sVirrational,
p1084
F1
sVessex
p1085
F4
sVillustrissimo
p1086
F1
sVwit;
p1087
F1
sVsenazzaro,
p1088
F1
sVlively
p1089
F1
sVparties
p1090
F1
sVwit,
p1091
F4
sVgnashing
p1092
F1
sVbuoy'd
p1093
F1
sVperverse,
p1094
F1
sVappeared,
p1095
F1
sVher
p1096
F507
sVendeavouring
p1097
F5
sVabuse,
p1098
F1
sVshipwrack
p1099
F2
sVmake's
p1100
F1
sVsealed
p1101
F1
sVhem
p1102
F1
sVanother;
p1103
F3
sVanother:
p1104
F1
sVdeparted,
p1105
F1
sVanother?
p1106
F1
sVmourns
p1107
F1
sVwits
p1108
F5
sVdivorc'd;
p1109
F1
sVassayled
p1110
F1
sVanother.
p1111
F1
sVhath,
p1112
F1
sVanother,
p1113
F4
sVanother!
p1114
F1
sVwith
p1115
F542
sVabused
p1116
F2
sVrescuing
p1117
F1
sVrage
p1118
F5
sVhe?
p1119
F1
sVwithall
p1120
F24
sVtaught
p1121
F2
sVhe,
p1122
F71
sVhe)
p1123
F29
sVdarker
p1124
F1
sVgone
p1125
F5
sVad
p1126
F2
sVcertain
p1127
F4
sVaccents
p1128
F2
sVstealing
p1129
F3
sVam
p1130
F54
sVal
p1131
F1
sVan
p1132
F175
sVas
p1133
F400
sVensuing
p1134
F2
sVat
p1135
F338
sVwatched
p1136
F1
sVtremble
p1137
F1
sVfiall
p1138
F1
sVview'd
p1139
F1
sVdye,
p1140
F1
sVdisdaine.
p1141
F1
sVdoublets,
p1142
F1
sVroughman
p1143
F2
sVspyes
p1144
F1
sVovertook:
p1145
F1
sVsubjects;
p1146
F1
sVmorocco,
p1147
F2
sVself.
p1148
F8
sVwalk,
p1149
F1
sVsuper-abundant
p1150
F2
sVaccosted
p1151
F5
sVoh!
p1152
F14
sVgifts
p1153
F4
sVmorocco;
p1154
F2
sVspeed.
p1155
F1
sVsubjects,
p1156
F6
sVsubjects.
p1157
F1
sVtravayled
p1158
F2
sVcreet's
p1159
F1
sVfial,
p1160
F2
sVdyed
p1161
F1
sVimpossibility
p1162
F1
sVmast
p1163
F1
sVsayes)
p1164
F1
sVconsider
p1165
F8
sVcaused
p1166
F11
sV(if
p1167
F2
sVcauses
p1168
F2
sVduty,
p1169
F2
sVport-town
p1170
F1
sVchampions
p1171
F3
sVto
p1172
F2358
sVsmile
p1173
F1
sVoath,
p1174
F2
sVoath.
p1175
F1
sVcause)
p1176
F1
sVreturned
p1177
F26
sVis,
p1178
F5
sVreturnes
p1179
F1
sVcause;
p1180
F1
sVabundance,
p1181
F1
sVcondition
p1182
F3
sVenmities
p1183
F1
sVaccompanying
p1184
F1
sVlaying
p1185
F4
sVbroken,
p1186
F3
sVlarge
p1187
F9
sVthese
p1188
F88
sVsmall
p1189
F26
sVlamb-like
p1190
F1
sVcouragiously
p1191
F1
sVquicker
p1192
F1
sV(whom
p1193
F3
sVhonourably
p1194
F2
sVpenalties
p1195
F1
sVhour.
p1196
F1
sVhour-
p1197
F1
sVhour,
p1198
F1
sVpast
p1199
F18
sVcarriages
p1200
F1
sVhonourable
p1201
F3
sVpass
p1202
F8
sVhour:
p1203
F1
sVdestitute
p1204
F3
sVelce
p1205
F2
sVunkle
p1206
F6
sVclock
p1207
F1
sVsavagest
p1208
F1
sVespie
p1209
F2
sVfull
p1210
F11
sVescaping
p1211
F2
sVcarriage,
p1212
F3
sVpittifull
p1213
F2
sVleaping
p1214
F1
sVhours
p1215
F12
sVconcluding
p1216
F5
sVenglish-man
p1217
F1
sVexperience
p1218
F10
sVspake,
p1219
F1
sVfewell
p1220
F2
sVaction
p1221
F8
sVprevaile,
p1222
F1
sVstorms,
p1223
F1
sVfollowed
p1224
F9
sVvie
p1225
F1
sVmarriages
p1226
F1
sVrests,
p1227
F1
sVbeclouded
p1228
F1
sVparties,
p1229
F1
sVyound
p1230
F1
sVnetherlands,
p1231
F2
sVunwillingness,
p1232
F1
sVentrap
p1233
F1
sVselect
p1234
F4
sVguess,
p1235
F1
sVcasket
p1236
F1
sVwatch,
p1237
F1
sVgorgeous
p1238
F1
sVunder,
p1239
F2
sVmore
p1240
F117
sVdoor
p1241
F2
sVneerer
p1242
F1
sVwhose,
p1243
F1
sVcompany
p1244
F10
sVmarriage,
p1245
F2
sVpursuers
p1246
F1
sVjulietta
p1247
F1
sVperson,
p1248
F18
sVguesse
p1249
F1
sVrudeness
p1250
F1
sVdejectednesse
p1251
F1
sVvailed
p1252
F1
sVkeeping
p1253
F2
sVpleasing
p1254
F2
sVthickest
p1255
F4
sVmantoua
p1256
F2
sVsent
p1257
F19
sVoppressed,
p1258
F1
sVknocked
p1259
F1
sVbeautiful
p1260
F2
sVdisgrace.
p1261
F1
sV(with
p1262
F1
sVturbant,
p1263
F1
sVmeanes
p1264
F5
sVconvenience,
p1265
F1
sVaccept
p1266
F17
sVheels
p1267
F1
sVfiercely
p1268
F1
sVdisgrace;
p1269
F2
sVnigher
p1270
F1
sVcondemn
p1271
F2
sVinformation
p1272
F1
sVbestowed,
p1273
F1
sVdismissed
p1274
F1
sVcreature
p1275
F1
sVwaved
p1276
F1
sVintended
p1277
F9
sVdisgraced
p1278
F1
sVstate,
p1279
F5
sVmended
p1280
F1
sVaffected;
p1281
F1
sVwaves
p1282
F3
sVstate;
p1283
F1
sVconfesses,
p1284
F1
sVrefuse
p1285
F7
sVloud
p1286
F5
sVcourteously
p1287
F1
sVaesar
p1288
F1
sVsvveet
p1289
F1
sVreplied
p1290
F38
sVadorned
p1291
F4
sVpassages
p1292
F4
sVout;
p1293
F3
sVincessantly
p1294
F1
sVspaniards,
p1295
F9
sVarmy;
p1296
F1
sVsmiling
p1297
F1
sVtyrant,
p1298
F2
sVits
p1299
F15
sVtermed
p1300
F2
sVsublimated
p1301
F1
sVdeeds
p1302
F3
sVspencers,
p1303
F1
sVcourse,
p1304
F8
sVencountred;
p1305
F1
sVtruth,
p1306
F2
sVtruth)
p1307
F1
sVcourse;
p1308
F1
sVwronged;
p1309
F1
sVit.
p1310
F16
sVroot,
p1311
F1
sVit,
p1312
F86
sVit)
p1313
F3
sVpropose
p1314
F1
sVit?
p1315
F4
sVit:
p1316
F4
sVit;
p1317
F21
sVfarewel
p1318
F1
sVcittadel,
p1319
F1
sVgreat)
p1320
F1
sVpassage,
p1321
F1
sVgreat,
p1322
F2
sVhereafter
p1323
F1
sVall.
p1324
F1
sVall,
p1325
F6
sVcourses
p1326
F2
sVfound
p1327
F63
sVschiarri,
p1328
F1
sVall;
p1329
F1
sVall:
p1330
F1
sV(but
p1331
F2
sVengland
p1332
F4
sVsavoyards;
p1333
F1
sVparts,
p1334
F1
sVresolute
p1335
F6
sVgilberto
p1336
F3
sVsavoyards,
p1337
F3
sVreally
p1338
F4
sVblackt
p1339
F1
sVmissed
p1340
F2
sVhe,)
p1341
F3
sVenjoyment
p1342
F8
sVexclamations,
p1343
F1
sVdenoted
p1344
F2
sVdarling
p1345
F1
sVimpudence
p1346
F1
sVsalute
p1347
F4
sVsteering
p1348
F1
sVparticularize
p1349
F1
sVbelief
p1350
F2
sVrisen
p1351
F1
sVimagine
p1352
F9
sVreproach
p1353
F2
sVreplyed,
p1354
F3
sVowners
p1355
F1
sVreared
p1356
F2
sVservice
p1357
F8
sVstatua
p1358
F2
sVafflictions
p1359
F1
sVagaine,
p1360
F2
sVpaire
p1361
F1
sVblack,
p1362
F3
sVcastle
p1363
F9
sVaboard,
p1364
F7
sVasunder,
p1365
F1
sVasunder)
p1366
F1
sVnumber
p1367
F12
sVpreservation
p1368
F2
sVmurmured
p1369
F1
sVsearch't
p1370
F1
sVexecutioners
p1371
F1
sVdisordered
p1372
F1
sVguess
p1373
F5
sVheads
p1374
F2
sVguest
p1375
F4
sVintroduction
p1376
F2
sVthreatned
p1377
F1
sVflings
p1378
F1
sVrawleigh
p1379
F2
sVjustly
p1380
F10
sVexecutioner.
p1381
F1
sVfirst,
p1382
F10
sVimmediate
p1383
F1
sVconsult
p1384
F7
sVforward,
p1385
F1
sVjustle
p1386
F1
sVpersuing
p1387
F1
sVsubmissively
p1388
F1
sVdetermined
p1389
F6
sVmarriage
p1390
F7
sVsummon'd
p1391
F1
sVhead.
p1392
F1
sVhead,
p1393
F5
sVrecompenced
p1394
F2
sVbernardi,
p1395
F1
sVdart,
p1396
F2
sVwaft
p1397
F1
sVguarding
p1398
F1
sVsupposed,
p1399
F2
sVwas:
p1400
F1
sVsingle,
p1401
F3
sVsell
p1402
F3
sVexecution:
p1403
F1
sVfeild;
p1404
F1
sVself
p1405
F95
sVenterprize
p1406
F2
sVwish,
p1407
F1
sValso
p1408
F1
sVwish;
p1409
F1
sVunderstand,
p1410
F1
sVfeild,
p1411
F2
sVsupported,
p1412
F1
sVplay
p1413
F1
sVfight;
p1414
F1
sVswiftly
p1415
F1
sVeffecting
p1416
F2
sVconfluence
p1417
F1
sVfight,
p1418
F6
sVrecompence;
p1419
F1
sVsingled
p1420
F1
sVunequal
p1421
F1
sVseize
p1422
F3
sVtelamon,
p1423
F1
sVsometimes
p1424
F1
sVcover
p1425
F3
sVexcelling,
p1426
F1
sVbandetties,
p1427
F4
sVamorous
p1428
F1
sVpallace,
p1429
F1
sVdespise
p1430
F1
sVgold
p1431
F4
sVdefended
p1432
F3
sVdemanded,
p1433
F1
sVdefender
p1434
F1
sVoverwhelmed
p1435
F3
sVpleasure;
p1436
F1
sVout-
p1437
F1
sVshouldst
p1438
F1
sVwrapt
p1439
F1
sVfailed
p1440
F1
sVpleasure.
p1441
F1
sVpleasure,
p1442
F4
sVheretique,
p1443
F1
sVgiants
p1444
F1
sVniggard
p1445
F1
sVdependent
p1446
F1
sVbeams
p1447
F2
sValive,
p1448
F4
sVimpregnable
p1449
F2
sVfatall
p1450
F1
sVremedy
p1451
F4
sVstartled,
p1452
F1
sVpreparing
p1453
F1
sVclosely
p1454
F2
sVcreatures,
p1455
F1
sValive;
p1456
F1
sVaffront
p1457
F3
sVenemy
p1458
F12
sVdevoured
p1459
F1
sVheretiques
p1460
F1
sVpleasures
p1461
F2
sVcry
p1462
F4
sVproclaim
p1463
F1
sVdevourer
p1464
F1
sVwrite,
p1465
F1
sVcease
p1466
F1
sVobscure
p1467
F1
sVsecondly,
p1468
F1
sVapproaching
p1469
F2
sVset
p1470
F24
sVovervalue
p1471
F1
sVpotent
p1472
F6
sVsex
p1473
F1
sVsee
p1474
F43
sVsea
p1475
F9
sVpetruchio
p1476
F2
sVoutward
p1477
F2
sVknees
p1478
F3
sVspirits
p1479
F9
sVpearls,
p1480
F1
sVseconded
p1481
F9
sVecclipse,
p1482
F1
sVdisgustfull,
p1483
F1
sVperilous
p1484
F1
sVjewels,
p1485
F2
sVasswaged
p1486
F2
sVribband,
p1487
F1
sVkneel
p1488
F1
sVknowing
p1489
F12
sVblow
p1490
F2
sVbody?
p1491
F1
sVallarms
p1492
F1
sVgriefs.
p1493
F1
sVsins
p1494
F1
sVincident
p1495
F1
sVrenewed
p1496
F2
sVcatharina
p1497
F1
sVspake
p1498
F1
sVadressing
p1499
F2
sVmute,
p1500
F1
sVlast
p1501
F29
sVthou
p1502
F101
sVemnity
p1503
F1
sVwomans
p1504
F2
sVspirit;
p1505
F2
sVweary,
p1506
F1
sVgirl!
p1507
F1
sVspirit.
p1508
F1
sVmistris,
p1509
F4
sVspirit,
p1510
F5
sVwhole
p1511
F56
sVspirit)
p1512
F1
sVload
p1513
F2
sVoffered,
p1514
F1
sVtown,
p1515
F18
sVmajesty
p1516
F9
sVbell
p1517
F4
sVbazar,
p1518
F1
sVmercilesse
p1519
F1
sVsilence,
p1520
F2
sVrevengefull
p1521
F1
sVsing
p1522
F1
sVassented,
p1523
F1
sVloves;
p1524
F1
sVloves:
p1525
F1
sVmeerly
p1526
F1
sVacceptance
p1527
F1
sVranks,
p1528
F2
sVloves.
p1529
F1
sVloves,
p1530
F6
sVextravagant
p1531
F2
sVfirm
p1532
F3
sVchampion
p1533
F4
sVfire
p1534
F4
sVwhat's
p1535
F2
sVmildness
p1536
F1
sVdisputing
p1537
F2
sVmoderation
p1538
F1
sVwheeled
p1539
F1
sVdallyed
p1540
F1
sVhandling
p1541
F1
sVvallor,
p1542
F1
sVadmire
p1543
F5
sVpressed
p1544
F6
sVleaning
p1545
F1
sVkissing
p1546
F3
sVowed
p1547
F1
sVpound
p1548
F4
sVhoping
p1549
F10
sVflorelia
p1550
F8
sVcomport
p1551
F1
sVchast
p1552
F4
sVvow
p1553
F6
sVchase
p1554
F1
sVacquired,
p1555
F1
sVfetching
p1556
F3
sVmaids
p1557
F2
sVshorten
p1558
F1
sVtells
p1559
F3
sVrules
p1560
F3
sValledged
p1561
F1
sVjosina
p1562
F8
sVsadness,
p1563
F1
sVmaide
p1564
F1
sVdispleased
p1565
F2
sVdistractions,
p1566
F1
sVprophane
p1567
F1
sVbestred
p1568
F1
sVfaught
p1569
F1
sVviewing
p1570
F2
sVleapt
p1571
F2
sVnecessity
p1572
F5
sVdo.
p1573
F1
sVprodigious
p1574
F1
sVinfamous
p1575
F2
sVowe:
p1576
F1
sVmaid;
p1577
F1
sVmanned,
p1578
F1
sVprofering
p1579
F1
sVyet.
p1580
F1
sVperson
p1581
F52
sVyet,
p1582
F4
sVmaid)
p1583
F2
sVmaid,
p1584
F8
sVclasped
p1585
F2
sVbrakes,
p1586
F1
sVdejected,
p1587
F1
sVstyled
p1588
F1
sVsalve
p1589
F1
sVhercules
p1590
F1
sVdemand,
p1591
F1
sVgraces,
p1592
F1
sVforrest
p1593
F1
sVdown
p1594
F32
sVchristendom
p1595
F1
sVladies,
p1596
F4
sVdastard
p1597
F1
sVentertainment,
p1598
F1
sVdesist
p1599
F8
sVsignall
p1600
F1
sVpillars
p1601
F1
sVcrying
p1602
F4
sVherculean
p1603
F1
sVyield:
p1604
F1
sVsurprised
p1605
F1
sVthee.
p1606
F6
sVscroule
p1607
F1
sVthee,
p1608
F14
sVdukedome;
p1609
F1
sVdemands
p1610
F1
sVtampered
p1611
F1
sVthee!
p1612
F1
sVvictime
p1613
F2
sVthee;
p1614
F2
sVabound
p1615
F1
sVchristans
p1616
F1
sVshading
p1617
F1
sVunwearied
p1618
F1
sV(your
p1619
F1
sVshattered
p1620
F1
sVinfidelity,
p1621
F1
sVbruit
p1622
F1
sVmorrocco
p1623
F1
sVhue,
p1624
F1
sVcontinue
p1625
F7
sValexandro
p1626
F1
sVreader,
p1627
F1
sVappartment:
p1628
F1
sVexpedition,
p1629
F2
sVcanst
p1630
F5
sVsenate
p1631
F5
sVacknowledg
p1632
F1
sVdeparture,
p1633
F1
sVnecessaries
p1634
F2
sVsmith.
p1635
F1
sVmighty
p1636
F21
sVsight
p1637
F24
sVcurious
p1638
F5
sVmomentary
p1639
F1
sVonely
p1640
F44
sVmoyety
p1641
F1
sVattending,
p1642
F1
sVreligion
p1643
F1
sVladen
p1644
F1
sVprosecuted
p1645
F1
sVgiven,
p1646
F3
sVanswers,
p1647
F1
sVbe
p1648
F368
sVrequiem
p1649
F1
sVsigh)
p1650
F1
sVagreement
p1651
F2
sVsigh,
p1652
F1
sVtristamara,
p1653
F2
sVconcealed
p1654
F3
sVrelating
p1655
F2
sVby
p1656
F480
sVscepter
p1657
F1
sVdeserved
p1658
F8
sVsynod,
p1659
F1
sVbears,
p1660
F1
sVdeserves
p1661
F3
sVrepair
p1662
F3
sVreverence
p1663
F1
sVinto
p1664
F150
sVrecreate
p1665
F1
sVdaign
p1666
F1
sVawaited
p1667
F1
sVbassas,
p1668
F1
sVtestament;
p1669
F1
sVsubmit
p1670
F1
sVcustom
p1671
F2
sVthirdly
p1672
F1
sVjosina.
p1673
F2
sVsuit
p1674
F1
sVredoubled
p1675
F1
sVperplex
p1676
F1
sValcade-beigh
p1677
F2
sVundeserving
p1678
F1
sVlegs,
p1679
F1
sVcarping
p1680
F1
sVline
p1681
F1
sVconsiderable
p1682
F2
sVposted
p1683
F4
sVstrive,
p1684
F1
sVopen,
p1685
F3
sVimmured
p1686
F1
sVredeemed
p1687
F1
sVfortunes.
p1688
F1
sVfortunes,
p1689
F9
sVup
p1690
F73
sVwondred
p1691
F2
sVmorocco
p1692
F1
sVoblations
p1693
F1
sVzealously
p1694
F1
sVcharmes
p1695
F2
sVfortunes;
p1696
F2
sVside,
p1697
F9
sVreconcile
p1698
F1
sVraging
p1699
F1
sVlikewise
p1700
F31
sVinfluence
p1701
F1
sVlost.
p1702
F1
sVlost,
p1703
F5
sVcontrarieties,
p1704
F1
sVside;
p1705
F1
sViacomo
p1706
F1
sVsurveying
p1707
F1
sVlost;
p1708
F1
sVgraceful
p1709
F1
sVliving)
p1710
F1
sVlost?
p1711
F1
sVliving,
p1712
F3
sVvvife,
p1713
F1
sVnakedness,
p1714
F1
sVfixing
p1715
F1
sVuncapable
p1716
F1
sVpreventing
p1717
F1
sVactors
p1718
F1
sVscraps
p1719
F1
sVsails
p1720
F2
sVhell.
p1721
F1
sVsir)
p1722
F1
sVprovided
p1723
F11
sVoblige
p1724
F1
sVking)
p1725
F3
sVprosecution
p1726
F1
sVsides
p1727
F4
sVpresumed.
p1728
F1
sVland
p1729
F4
sVsail,
p1730
F2
sVage
p1731
F6
sVactor,
p1732
F1
sVwalked
p1733
F4
sVcarrying
p1734
F3
sVaffair,
p1735
F1
sVstopt
p1736
F1
sVfresh
p1737
F9
sVblest,
p1738
F1
sVhaving
p1739
F120
sVmagnanimous
p1740
F17
sVlearn'd,
p1741
F1
sVseemes
p1742
F1
sVrecorded
p1743
F1
sVseveral,
p1744
F1
sVrenown
p1745
F1
sVcontinue,
p1746
F1
sVseemed
p1747
F35
sVdesperation,
p1748
F2
sVturkish
p1749
F2
sVconcerned
p1750
F5
sVyoung
p1751
F6
sVsend
p1752
F11
sVname;
p1753
F1
sV(not
p1754
F1
sVdebarred
p1755
F1
sVsurgion
p1756
F1
sVmantoveses
p1757
F1
sVtorture
p1758
F1
sVseverall
p1759
F3
sVcontinued
p1760
F25
sVbemoane
p1761
F1
sVharbor
p1762
F1
sVmarry
p1763
F4
sVcertainly,
p1764
F1
sVanxious
p1765
F2
sVsevered
p1766
F1
sVpledge
p1767
F2
sVsupplyes
p1768
F2
sVods
p1769
F1
sVunprofitable
p1770
F1
sVvictor
p1771
F1
sVthat,
p1772
F7
sVindex
p1773
F1
sVthat.
p1774
F1
sVthat)
p1775
F1
sVfirme
p1776
F5
sVexpressed
p1777
F7
sVmake?
p1778
F1
sVpaying
p1779
F1
sVundone,
p1780
F1
sVproffer
p1781
F3
sVtunis,
p1782
F2
sVled
p1783
F4
sVleg
p1784
F1
sVanswered)
p1785
F1
sVjudges
p1786
F3
sVsuccouring
p1787
F1
sVdelivering
p1788
F1
sVlet
p1789
F79
sVconsideration
p1790
F1
sVinvented
p1791
F3
sVfifteen
p1792
F1
sVeffected,
p1793
F5
sVvinegar
p1794
F1
sVgreat
p1795
F110
sVengage
p1796
F3
sVfirm,
p1797
F1
sVexpresse,
p1798
F1
sVreceive
p1799
F14
sVinvolved
p1800
F4
sVhiss.
p1801
F1
sVdefeat
p1802
F2
sVopinion
p1803
F8
sVmakes
p1804
F14
sVdissolute
p1805
F2
sV(my
p1806
F3
sVcomplying
p1807
F1
sVcounsell
p1808
F1
sVmariners
p1809
F2
sVdesiring
p1810
F8
sVstanding
p1811
F5
sVconfidence
p1812
F7
sVisabella,
p1813
F3
sVweakness,
p1814
F1
sVrejoyce?
p1815
F1
sVnext
p1816
F23
sVassuring
p1817
F5
sVdoubt
p1818
F26
sVsavoyards
p1819
F7
sVmariana?
p1820
F1
sVjudged
p1821
F2
sV(scarce
p1822
F1
sVlaboured
p1823
F2
sVsir!
p1824
F3
sVresounding
p1825
F1
sVvvhere
p1826
F2
sVcounsel,
p1827
F2
sV(hoping
p1828
F1
sVsir,
p1829
F48
sVdisarming
p1830
F1
sVopposing
p1831
F2
sVextinction,
p1832
F1
sVcharity
p1833
F3
sVcustomes
p1834
F1
sVgallantry,
p1835
F2
sVretreated
p1836
F1
sVthis
p1837
F325
sVchallenge
p1838
F4
sVprompts
p1839
F1
sVethiopians,
p1840
F1
sVbeighs
p1841
F1
sVrejoyced
p1842
F9
sVunruliness,
p1843
F1
sVisabellas
p1844
F1
sVhigh,
p1845
F1
sVmurmuring
p1846
F1
sVbent
p1847
F1
sVfit,
p1848
F1
sVpieces
p1849
F5
sVhigh
p1850
F7
sVslip
p1851
F1
sVtrumpet
p1852
F1
sVformost,
p1853
F1
sVrespect,
p1854
F1
sVmutually
p1855
F1
sVdelay
p1856
F6
sVprocured
p1857
F1
sVoverswiftly,
p1858
F1
sVincircling
p1859
F1
sVclasping
p1860
F2
sVpiece?
p1861
F1
sVpurpose;
p1862
F1
sVawait
p1863
F1
sVtied
p1864
F4
sVattempt,
p1865
F1
sVpurpose.
p1866
F1
sVpurpose,
p1867
F7
sVsubmitted,
p1868
F1
sVdemonstrating
p1869
F2
sVforcett,
p1870
F3
sVties
p1871
F3
sVresolute)
p1872
F1
sVresolute,
p1873
F3
sVbasenesse,
p1874
F1
sVperused
p1875
F1
sVcommodities
p1876
F1
sVacquitted
p1877
F1
sVwrit
p1878
F2
sVcounted
p1879
F1
sVwhole,
p1880
F1
sVmove
p1881
F5
sVdoubtful
p1882
F5
sVdesign,
p1883
F2
sVioffer-bassa,
p1884
F1
sVperfect
p1885
F5
sVregaine
p1886
F1
sVadmirals
p1887
F1
sVrecreating
p1888
F1
sVchosen
p1889
F2
sVundervalue
p1890
F1
sVgenoueses
p1891
F1
sVdegrees
p1892
F2
sVvastnesse
p1893
F1
sVprofessed:
p1894
F1
sVdesigns
p1895
F1
sVsensless
p1896
F1
sVover-powred
p1897
F1
sVcontinuall
p1898
F1
sVsoldiers,
p1899
F5
sVtransparent
p1900
F2
sVwithall,
p1901
F2
sVcomplexions,
p1902
F1
sVtraced
p1903
F1
sVconcave
p1904
F1
sVsweetnesse
p1905
F1
sVsufficiently
p1906
F10
sVdelightful
p1907
F1
sVtruth
p1908
F3
sVaccounts
p1909
F1
sVbeneath
p1910
F6
sVeffuse
p1911
F1
sVsuitors
p1912
F3
sVfarther;
p1913
F1
sVjoyes
p1914
F2
sVdoing
p1915
F2
sVsafeties,
p1916
F2
sVsociety
p1917
F1
sVfarther,
p1918
F3
sVbooks
p1919
F1
sVlascicious
p1920
F1
sVwander
p1921
F1
sVwitness
p1922
F5
sVfollowing;
p1923
F1
sVlading,
p1924
F1
sVapproch
p1925
F1
sVschool-boy,
p1926
F1
sVcruciate
p1927
F1
sVfavours
p1928
F6
sVdeceived;
p1929
F1
sVshut
p1930
F3
sVperish
p1931
F1
sVbook.
p1932
F2
sVsurely
p1933
F4
sVtempt
p1934
F4
sVthrust
p1935
F5
sVcraving
p1936
F1
sVgenoveses
p1937
F4
sVhasten
p1938
F1
sVfavour.
p1939
F1
sVbashaw
p1940
F2
sVcould
p1941
F180
sVlovly
p1942
F1
sVlength
p1943
F41
sVserenity
p1944
F1
sVslapery
p1945
F1
sVfavour:
p1946
F1
sVstrictly
p1947
F1
sVscarf
p1948
F1
sVmorrocco,
p1949
F1
sVblown
p1950
F1
sVscene
p1951
F2
sVtakest
p1952
F1
sVaffliction
p1953
F2
sVowner
p1954
F3
sVblows
p1955
F2
sVhave,
p1956
F5
sVcoaches,
p1957
F1
sVtorture,
p1958
F1
sVyeilded
p1959
F2
sVcourted
p1960
F1
sVbehaved
p1961
F3
sVaccompany
p1962
F11
sVstars
p1963
F11
sVvve,
p1964
F1
sVtuscan
p1965
F2
sVkingdomes,
p1966
F1
sVhaven
p1967
F2
sVsteel
p1968
F1
sVher),
p1969
F1
sVslaine
p1970
F1
sVdower
p1971
F1
sVpossibly,
p1972
F2
sVgoale,
p1973
F1
sVsteep
p1974
F1
sVtorrent
p1975
F1
sVingenious
p1976
F3
sVfalse
p1977
F2
sVliberties,
p1978
F1
sVgentle
p1979
F5
sVdefending
p1980
F1
sVdevotions
p1981
F1
sVdaies
p1982
F6
sVclearly
p1983
F2
sVviewed
p1984
F1
sVnecessities
p1985
F1
sVfoy,
p1986
F6
sVoverthrew
p1987
F1
sVstudying
p1988
F1
sVtherewith
p1989
F8
sVsoules
p1990
F1
sVsorrowes,
p1991
F1
sVinjunctions
p1992
F2
sVtyrannical
p1993
F1
sVnoise,
p1994
F3
sVcourtesy
p1995
F1
sVascents,
p1996
F1
sVdevice
p1997
F1
sVswor'st
p1998
F1
sVfervent
p1999
F1
sVadjutants
p2000
F1
sV(her
p2001
F1
sVbred
p2002
F5
sVface
p2003
F2
sVsoule,
p2004
F1
sVperceiving
p2005
F7
sVwanted.
p2006
F1
sVcaptivity
p2007
F1
sVwounded
p2008
F3
sVnaturall
p2009
F1
sVbring
p2010
F14
sVbond,
p2011
F1
sVrough
p2012
F2
sVdelayes
p2013
F3
sVcauselesse
p2014
F1
sVtransfix
p2015
F1
sVshould
p2016
F184
sVriding
p2017
F4
sVfew,
p2018
F1
sVmeant
p2019
F1
sVpegasean
p2020
F1
sVbonds
p2021
F1
sVmeane
p2022
F2
sVvictuals
p2023
F1
sVare.
p2024
F1
sVfrench,
p2025
F1
sVtaxed
p2026
F1
sVare,
p2027
F2
sVstrengthened
p2028
F1
sVcheare
p2029
F1
sVinterred?
p2030
F1
sVonce,
p2031
F1
sVmisprizing
p2032
F1
sVend,
p2033
F1
sVprised
p2034
F1
sVunacquainted,
p2035
F1
sVinsulting
p2036
F1
sVkingdomes
p2037
F1
sVordnance,
p2038
F1
sVquickest
p2039
F1
sVinjustice
p2040
F3
sVchallenger,
p2041
F1
sVattaqued
p2042
F1
sVinterchangeably
p2043
F1
sVtaken;
p2044
F1
sVrest;
p2045
F1
sVdamosell
p2046
F1
sVrelating,
p2047
F1
sVinjury,
p2048
F2
sVtaken,
p2049
F1
sVhim;
p2050
F24
sVhebrew
p2051
F1
sVperfidious
p2052
F3
sVinvited
p2053
F1
sVsuddainly
p2054
F2
sVinspired
p2055
F2
sVinvites
p2056
F1
sVquitted
p2057
F1
sVquantity,
p2058
F1
sVconclude
p2059
F2
sVbassa,
p2060
F18
sVbassa.
p2061
F1
sVwhereof
p2062
F4
sVmariana's
p2063
F5
sVjocundly
p2064
F1
sVthemselvs
p2065
F1
sVoutsides
p2066
F1
sVpoured
p2067
F5
sVfeather
p2068
F1
sVgarrison,
p2069
F4
sV(meaning
p2070
F1
sVchastised
p2071
F1
sVneighbour
p2072
F2
sVnobleness
p2073
F11
sVsweetness,
p2074
F1
sVexcellencies.
p2075
F1
sVbanish
p2076
F2
sVwearied
p2077
F5
sVwast;
p2078
F1
sVcorrasives
p2079
F1
sVquantity:
p2080
F1
sVadventures
p2081
F4
sVfolloweth.
p2082
F2
sVexcessively
p2083
F1
sVnecova,
p2084
F1
sVsits
p2085
F1
sVconserve
p2086
F1
sVransom
p2087
F1
sVvalour
p2088
F8
sVof.
p2089
F4
sVof,
p2090
F14
sVdoubtfull
p2091
F2
sVof;
p2092
F3
sVof?
p2093
F1
sVobliged,
p2094
F1
sVinfinity
p2095
F1
sVdusk
p2096
F2
sVupon
p2097
F165
sVdumbe
p2098
F1
sVcapt.
p2099
F1
sVboding
p2100
F1
sVinfinite
p2101
F6
sVbring'st
p2102
F1
sVdelivered.
p2103
F1
sVoff
p2104
F13
sVpatterne
p2105
F1
sVcolour
p2106
F4
sVstatues.
p2107
F2
sVdoubtful,
p2108
F2
sVcommand
p2109
F35
sVcaptives,
p2110
F3
sVdrawing
p2111
F6
sVlest
p2112
F11
sVreturned,
p2113
F5
sVenemy.
p2114
F1
sVnegligence
p2115
F2
sVenemy,
p2116
F4
sVflesh
p2117
F1
sVgoing,
p2118
F1
sVhumor,
p2119
F2
sVdejection,
p2120
F1
sVenemy?
p2121
F1
sVafflicted
p2122
F4
sVingenous
p2123
F1
sVransome,
p2124
F2
sVgenerous
p2125
F68
sVwed
p2126
F1
sVsatisfie
p2127
F4
sVpostern,
p2128
F1
sVdoubt,
p2129
F2
sVchair,
p2130
F3
sVcourser,
p2131
F1
sVincreased
p2132
F6
sVgovernment
p2133
F2
sVroom,
p2134
F1
sVclock,
p2135
F1
sVwhispers
p2136
F1
sVfive
p2137
F9
sVmoment.
p2138
F1
sVhumors
p2139
F1
sVsuper-excellent
p2140
F1
sVyou
p2141
F355
sV(on
p2142
F1
sVransomed
p2143
F1
sVengland,
p2144
F9
sVgarments,
p2145
F1
sVwe,
p2146
F2
sVsymptomes
p2147
F2
sValtogether)
p2148
F1
sVbecome
p2149
F9
sVengland;
p2150
F1
sVengland:
p2151
F2
sVoverslipped
p2152
F1
sVactions.
p2153
F1
sVactions,
p2154
F7
sVpoor
p2155
F13
sVdegree,
p2156
F2
sVwhither
p2157
F4
sVsuspition
p2158
F1
sVchoosing
p2159
F1
sVtransport
p2160
F1
sVground,
p2161
F9
sVmultitudes;
p2162
F1
sVintranced
p2163
F1
sVextreame
p2164
F1
sVdoes
p2165
F2
sVpassion
p2166
F13
sVvantguard
p2167
F1
sVselecting
p2168
F1
sVaccompanied
p2169
F14
sVmurder,
p2170
F4
sVimaginary
p2171
F1
sVadversary
p2172
F1
sVimportunately
p2173
F1
sVeasily,
p2174
F1
sVstage
p2175
F3
sVgained
p2176
F17
sVfarewell?
p2177
F1
sVfarewell;
p2178
F1
sVdoe)
p2179
F1
sVdoe,
p2180
F3
sVfarewell,
p2181
F3
sVfarewell.
p2182
F1
sVblackness
p2183
F1
sVconcession
p2184
F1
sVencamp
p2185
F1
sVletters
p2186
F6
sVdeliver,
p2187
F1
sVstrumpet
p2188
F3
sVmiscarried
p2189
F1
sVroade
p2190
F1
sVbrass
p2191
F1
sVprivater
p2192
F1
sVinjunctions,
p2193
F1
sVstartled
p2194
F5
sVencouragements
p2195
F1
sVplace,
p2196
F8
sVhopton,
p2197
F1
sVbegg'd
p2198
F1
sVnow:
p2199
F1
sVroad,
p2200
F2
sVdiscourtesie
p2201
F1
sVdelivery
p2202
F1
sVletter.
p2203
F3
sVletter,
p2204
F8
sVcount
p2205
F7
sVlovely
p2206
F4
sVcompute
p2207
F1
sVmarquis
p2208
F2
sVchained
p2209
F1
sVsmooth
p2210
F1
sVtriumphant
p2211
F1
sVplaced
p2212
F2
sVconvince
p2213
F2
sVmonument
p2214
F1
sVdistribution
p2215
F1
sVprivate,
p2216
F1
sVcordial
p2217
F1
sVrightly
p2218
F1
sVarms;
p2219
F1
sVcontribute
p2220
F1
sVfaintness
p2221
F1
sVdenote
p2222
F1
sVarms,
p2223
F5
sVqueen's
p2224
F1
sVconditions.
p2225
F1
sVeffected
p2226
F3
sVrenowned
p2227
F19
sVasumptious
p2228
F1
sVvariety
p2229
F4
sVcustody)
p2230
F1
sVcustody,
p2231
F1
sVtriall
p2232
F2
sVbehold
p2233
F11
sVgallantly
p2234
F4
sVvirtues
p2235
F1
sVrepeat
p2236
F1
sVagain,
p2237
F3
sVin;
p2238
F1
sVunparraleld
p2239
F1
sVin,
p2240
F12
sVchance
p2241
F7
sV[illeg.]
p2242
F1
sVveil
p2243
F2
sVforest;
p2244
F1
sVusefull
p2245
F1
sVslumber,
p2246
F1
sVvillainous
p2247
F1
sVunreasonableness
p2248
F1
sVmelancholly,
p2249
F6
sVunspeakable
p2250
F1
sVpapacy
p2251
F1
sVmansion
p2252
F1
sVenglishmen,
p2253
F1
sVsaved
p2254
F3
sVparty,
p2255
F1
sVvotes
p2256
F1
sVpedro
p2257
F4
sVeffectually
p2258
F1
sVmoneths,
p2259
F1
sVorpheus
p2260
F1
sVdesist,
p2261
F2
sVbanisht
p2262
F1
sVtyrannies
p2263
F1
sVworth
p2264
F12
sVpyrates
p2265
F1
sVdespisable
p2266
F1
sVlack
p2267
F1
sVcompassion
p2268
F3
sVrenumerate
p2269
F2
sVthomaso
p2270
F1
sVmantoua,
p2271
F1
sVencountred
p2272
F6
sVpinch
p2273
F1
sVgirolamo
p2274
F1
sVexpired,
p2275
F2
sVintentions,
p2276
F1
sVtriumph
p2277
F1
sVriches;
p2278
F1
sVschiarra's
p2279
F3
sVseas,
p2280
F7
sVsouldier
p2281
F1
sVdelicatest
p2282
F1
sVriches,
p2283
F1
sVraigne
p2284
F1
sVriches.
p2285
F1
sVothers,
p2286
F6
sVothers.
p2287
F2
sVseas?
p2288
F1
sVpiemontese
p2289
F1
sVlesse
p2290
F5
sVdejection
p2291
F2
sVabove
p2292
F40
sVmajesties
p2293
F2
sVmurther
p2294
F1
sVconsisting
p2295
F2
sVtold
p2296
F42
sVmistress;
p2297
F2
sVequaly
p2298
F1
sVyielding,
p2299
F1
sVkindred
p2300
F2
sVrichest
p2301
F3
sVequall
p2302
F1
sVmistress,
p2303
F11
sVpursuit
p2304
F2
sVraign)
p2305
F1
sValmerigho
p2306
F1
sVproportionable
p2307
F1
sVraign,
p2308
F1
sVobtained
p2309
F3
sVdaughter
p2310
F4
sVpalsie
p2311
F1
sVbefore-wearied
p2312
F1
sVignominious
p2313
F2
sVenvious
p2314
F2
sVsecure
p2315
F4
sV(continued
p2316
F8
sVgentleman,
p2317
F9
sVhighly
p2318
F9
sVshun
p2319
F2
sVcane
p2320
F1
sVassasinated
p2321
F1
sVglance
p2322
F2
sVplot
p2323
F2
sVproove
p2324
F1
sVpermit,
p2325
F1
sVgiovanne
p2326
F2
sVgiovanni
p2327
F1
sVpierced
p2328
F3
sVdrinking,
p2329
F1
sV(happy
p2330
F1
sVcontinual
p2331
F9
sVtota,
p2332
F2
sVstriving
p2333
F3
sVword
p2334
F14
sVwore
p2335
F1
sVsociety,
p2336
F1
sVwork
p2337
F5
sVeclipse
p2338
F1
sVere
p2339
F4
sVgroves
p2340
F1
sVnoyse
p2341
F2
sVperswasive
p2342
F2
sVlorenzo's
p2343
F1
sVcurtesie,
p2344
F2
sVrevived,
p2345
F4
sVhyperbolized,
p2346
F1
sVmindes
p2347
F2
sVcustom,
p2348
F1
sVconsent;
p2349
F1
sVdumb,
p2350
F1
sVrevived;
p2351
F1
sVenvenomed
p2352
F1
sVrecovery
p2353
F2
sVprovide
p2354
F4
sVagony
p2355
F1
sVnew's
p2356
F1
sVvoyage,
p2357
F3
sVinterview
p2358
F2
sVordinary
p2359
F1
sVhast,
p2360
F1
sVless
p2361
F30
sVafter
p2362
F60
sVproffers,
p2363
F1
sVwals,
p2364
F1
sVlay
p2365
F22
sVcustome
p2366
F5
sVlaw
p2367
F2
sVcomplacent
p2368
F1
sVseymour,
p2369
F1
sVboat,
p2370
F3
sVhasty
p2371
F2
sVrecover,
p2372
F1
sVhaste
p2373
F7
sVcarrier,
p2374
F1
sVorder
p2375
F9
sVenterprize,
p2376
F2
sVmodesty
p2377
F5
sVinfested
p2378
F1
sVaccustomary
p2379
F1
sVdevote
p2380
F1
sVconsent
p2381
F6
sVapproached,
p2382
F2
sVconstrained
p2383
F3
sVsatisfied
p2384
F6
sVmercifull
p2385
F1
sVears,
p2386
F2
sVapproached;
p2387
F2
sVestrange
p2388
F1
sVdis-
p2389
F1
sVsecurely
p2390
F4
sVgoodnesse
p2391
F3
sVvalor
p2392
F6
sVwondring
p2393
F2
sVthen
p2394
F243
sVthem
p2395
F106
sVaffected
p2396
F4
sVthee
p2397
F35
sVsafe
p2398
F6
sVshooe
p2399
F1
sVextasy
p2400
F1
sVmerciful,
p2401
F1
sVshameful
p2402
F1
sVthey
p2403
F223
sVthet
p2404
F1
sVmedices,
p2405
F1
sVgoodness;
p2406
F1
sVplayes,
p2407
F1
sVslavery
p2408
F2
sVrocks
p2409
F3
sVgoodness!
p2410
F1
sVgoodness.
p2411
F1
sVvessel
p2412
F1
sVgoodness,
p2413
F2
sVlifted
p2414
F1
sVunparaleld
p2415
F1
sVferrarian
p2416
F1
sVcouncill
p2417
F1
sVhave)
p2418
F1
sVvvas
p2419
F13
sV(a)
p2420
F1
sVdefeate,
p2421
F1
sVrefuge)
p2422
F1
sVvvay
p2423
F1
sVforty
p2424
F6
sVfellows
p2425
F3
sVtanners
p2426
F2
sVvessell
p2427
F1
sVsafety
p2428
F4
sVgigantick
p2429
F1
sVover-hearing
p2430
F1
sVimbarqued
p2431
F3
sVopportune
p2432
F1
sVforth
p2433
F19
sVcarry,
p2434
F1
sVhumblest
p2435
F1
sVdancing,
p2436
F1
sVfixt
p2437
F3
sVmourning
p2438
F2
sVcarried
p2439
F7
sVcrime,
p2440
F1
sVcouncil,
p2441
F1
sVamazement
p2442
F7
sVi)
p2443
F20
sVadmirall,
p2444
F1
sVmarched
p2445
F1
sVstranger)
p2446
F1
sVstranger,
p2447
F6
sVfellow,
p2448
F2
sVvessel,
p2449
F3
sVrenew
p2450
F1
sVoppose
p2451
F5
sVdialect,
p2452
F1
sV(unable
p2453
F1
sV(as
p2454
F11
sV(at
p2455
F1
sVthuscan,
p2456
F1
sVvulgar
p2457
F1
sVrender
p2458
F5
sVhappinesse,
p2459
F1
sVhappinesse;
p2460
F1
sVfears,
p2461
F2
sVanother
p2462
F18
sVthick
p2463
F4
sVslain,
p2464
F2
sVpower,
p2465
F4
sVaire
p2466
F1
sVscene,
p2467
F1
sVfacitly
p2468
F1
sVpower:
p2469
F1
sVairy
p2470
F1
sVboldness,
p2471
F1
sVhappily
p2472
F5
sVperished;
p2473
F1
sVblossome.
p2474
F1
sVmercy
p2475
F4
sVdog,
p2476
F1
sVtavern
p2477
F3
sVrate,
p2478
F1
sVair,
p2479
F1
sVseated
p2480
F6
sVguilt
p2481
F2
sVair:
p2482
F1
sVpowers
p2483
F1
sValledged,
p2484
F1
sVarrivall,
p2485
F1
sVmanner
p2486
F11
sVcontents
p2487
F1
sVdarest
p2488
F6
sVforced
p2489
F34
sVstrength
p2490
F8
sVreall
p2491
F2
sVdeities.
p2492
F2
sVconvenient
p2493
F3
sVlatter
p2494
F1
sVforcet
p2495
F7
sVovertook
p2496
F5
sVchoisest
p2497
F1
sVforces
p2498
F7
sVcloystered
p2499
F1
sVpresumest
p2500
F1
sVunchast,
p2501
F1
sVcontent,
p2502
F6
sVmaiden
p2503
F1
sVadmittance,
p2504
F1
sVwhat
p2505
F173
sVassenting
p2506
F1
sVextending
p2507
F1
sVunchast;
p2508
F1
sVexercises
p2509
F1
sVmanifested
p2510
F1
sVdarkness
p2511
F4
sVfitter
p2512
F6
sVforce,
p2513
F3
sVsubject,
p2514
F2
sVsubject.
p2515
F1
sVchargest
p2516
F1
sVaccounted
p2517
F8
sVfitted
p2518
F3
sVd.
p2519
F4
sVspencers
p2520
F12
sVsubtle
p2521
F1
sVgore,
p2522
F1
sVenjoyed
p2523
F9
sVresemblance
p2524
F2
sVhither,
p2525
F2
sVaffections;
p2526
F1
sVdeepest
p2527
F1
sVpursuing
p2528
F4
sVbelching
p2529
F1
sVrun,
p2530
F1
sVmaster-piece
p2531
F1
sVdo
p2532
F75
sVloved
p2533
F5
sVspencer.
p2534
F3
sVspencer,
p2535
F59
sVde
p2536
F4
sVpreferred
p2537
F1
sVyielded
p2538
F4
sVschiarra.
p2539
F1
sVschiarra,
p2540
F31
sVhaunted
p2541
F1
sVunworthily
p2542
F1
sVheadlong
p2543
F1
sVspencer;
p2544
F5
sVschiarra!
p2545
F1
sVcleanly
p2546
F1
sVdisguise
p2547
F3
sVcalender?
p2548
F1
sVcatife;
p2549
F1
sVsky;
p2550
F1
sVstead
p2551
F2
sVrung
p2552
F1
sVsquadron
p2553
F4
sVpersonages
p2554
F2
sVinto,
p2555
F1
sVmiserably
p2556
F1
sVadmiral.
p2557
F1
sVadmiral,
p2558
F2
sVoffended,
p2559
F1
sVobserved
p2560
F8
sVinne
p2561
F3
sVscoure
p2562
F1
sVchyrurgion
p2563
F1
sVdebating,
p2564
F1
sVmiserable
p2565
F11
sVe're
p2566
F3
sVrequest,
p2567
F4
sVbecause,
p2568
F1
sVreceive,
p2569
F1
sVaway
p2570
F32
sVgentleman
p2571
F25
sVrushing
p2572
F1
sVrequest;
p2573
F2
sVunable
p2574
F1
sVdrawn
p2575
F6
sVmisguided
p2576
F1
sVfoe,
p2577
F1
sVwe
p2578
F276
sVterms
p2579
F4
sVhospitality,
p2580
F1
sVdepend)
p2581
F1
sVfalmouth
p2582
F1
sVdiana,
p2583
F1
sVtortures
p2584
F6
sVseem'd
p2585
F3
sVimaginations,
p2586
F2
sVinn,
p2587
F2
sVdistant,
p2588
F4
sVfailing,
p2589
F1
sVreceived
p2590
F32
sVile
p2591
F2
sVcombating
p2592
F1
sVdraw?
p2593
F1
sVill
p2594
F14
sVcountries,
p2595
F6
sVheavens!
p2596
F10
sVencounter;
p2597
F1
sVseal'd
p2598
F1
sVdraw,
p2599
F3
sVtone
p2600
F2
sVgentlewoman,
p2601
F1
sVtimerous
p2602
F1
sVspinala,
p2603
F1
sVroyal
p2604
F10
sVpoynard,
p2605
F1
sVspeak
p2606
F13
sVgratitude
p2607
F4
sVcondemned
p2608
F2
sVshreike;
p2609
F1
sVsorrowes
p2610
F1
sVharm,
p2611
F1
sVwarmth
p2612
F1
sVbaud
p2613
F1
sVrepelled
p2614
F1
sVfamilies
p2615
F1
sVbeloved
p2616
F40
sVbeastly
p2617
F2
sVconcerning
p2618
F1
sVfaint-hearted
p2619
F2
sVsignior
p2620
F4
sVhap
p2621
F1
sVfess
p2622
F2
sVdeterred
p2623
F2
sVgracious
p2624
F2
sVvvithall
p2625
F1
sVeast
p2626
F1
sVpossesse
p2627
F1
sVreciprocal
p2628
F1
sVconfinement,
p2629
F1
sVvoice
p2630
F5
sVovertaking
p2631
F1
sVknown,
p2632
F1
sVmistake
p2633
F3
sVfaith.
p2634
F2
sVfaith,
p2635
F6
sVcowardize;
p2636
F1
sVdiscourses
p2637
F3
sVdeities
p2638
F1
sVsting
p2639
F1
sVbrake
p2640
F1
sVtruths,
p2641
F1
sVcong
p2642
F1
sVvvhich,
p2643
F1
sVconfirmed
p2644
F13
sVcamp,
p2645
F4
sVdescent
p2646
F1
sVcamp.
p2647
F1
sVbetraied.
p2648
F1
sVperform
p2649
F5
sVdemonstration
p2650
F1
sVreach't
p2651
F1
sVupwards,
p2652
F1
sVwarrs
p2653
F2
sVdescend
p2654
F1
sVth'
p2655
F1
sVmonarch
p2656
F2
sVvipers,
p2657
F1
sVhang
p2658
F1
sVevil
p2659
F2
sVhand
p2660
F8
sVliberties
p2661
F1
sVcaus'd
p2662
F1
sVdiscourse,
p2663
F2
sVgenoua
p2664
F5
sVgreedily
p2665
F1
sVwindward,
p2666
F1
sVkept
p2667
F7
sVwhereby
p2668
F4
sVthy
p2669
F84
sVhumble
p2670
F2
sVvoluntier;
p2671
F1
sVwarr.
p2672
F1
sVhumbly
p2673
F2
sVthe
p2674
F2784
sVpallavicini
p2675
F1
sVgods
p2676
F13
sVrepose
p2677
F2
sV(notwithstanding
p2678
F3
sVthanks
p2679
F14
sVadding
p2680
F1
sVexalt
p2681
F1
sVtrampled
p2682
F1
sVnether-lands,
p2683
F1
sVboard
p2684
F1
sVfesse
p2685
F7
sVthere-upon
p2686
F1
sVretreat
p2687
F2
sVentred,
p2688
F3
sVcooler
p2689
F1
sVcountry)
p2690
F1
sVcountry.
p2691
F3
sVcountry,
p2692
F14
sVconjugall
p2693
F1
sVnight
p2694
F33
sVcountry;
p2695
F4
sVsecurity
p2696
F1
sVrefused,
p2697
F1
sVhonored
p2698
F1
sVflatter
p2699
F5
sVodours
p2700
F1
sVborn
p2701
F2
sVbore
p2702
F7
sVdamask,
p2703
F1
sVdeigne,
p2704
F1
sVaccept,
p2705
F1
sVhonoured
p2706
F3
sVdenied
p2707
F1
sVbeating
p2708
F1
sVdispersed,
p2709
F1
sVinspir'd,
p2710
F1
sVdayes
p2711
F15
sVconfer
p2712
F2
sVprovocations
p2713
F1
sVsend,
p2714
F1
sVpost
p2715
F5
sVmaze,
p2716
F1
sVtakes
p2717
F1
sVtrophy
p2718
F1
sVrallying
p2719
F1
sVtheirs
p2720
F1
sVenjoyed,
p2721
F1
sVmonths
p2722
F1
sVbasely.
p2723
F1
sVcherish
p2724
F1
sVajax
p2725
F1
sVtraytor
p2726
F1
sVprisoners
p2727
F4
sVsparing
p2728
F2
sVdelighted
p2729
F4
sVprisoner
p2730
F3
sV(when
p2731
F2
sVcasket,
p2732
F1
sVbeheld
p2733
F7
sVstrangely
p2734
F6
sVtendring;
p2735
F1
sVmantua;
p2736
F1
sVtrukled
p2737
F1
sVfight
p2738
F11
sVmantua,
p2739
F9
sVwhy,
p2740
F1
sVosmans
p2741
F1
sVhyperbolies,
p2742
F1
sVdewy
p2743
F2
sVlovesick
p2744
F1
sV(c)
p2745
F1
sVwas
p2746
F565
sVwar
p2747
F3
sVjustiniano,
p2748
F2
sVprisoner;
p2749
F1
sVoverjoyed
p2750
F1
sVmurders;
p2751
F1
sVbecoming
p2752
F1
sVconverse
p2753
F1
sVmenssenger
p2754
F1
sVprisoner,
p2755
F9
sVpay,
p2756
F1
sVastonished
p2757
F4
sVtrue
p2758
F13
sVjoy's
p2759
F1
sVpiemontese,
p2760
F1
sVabsent
p2761
F3
sVinvincible
p2762
F2
sVosman,
p2763
F1
sVmantuas
p2764
F1
sVgenerosity
p2765
F5
sVplymouth
p2766
F1
sVmantuan
p2767
F2
sVodds;
p2768
F1
sVanew
p2769
F1
sVruthfullest
p2770
F1
sVembraces:
p2771
F1
sVpromises
p2772
F7
sVfuneral,
p2773
F1
sVforcett
p2774
F5
sVexpresse
p2775
F5
sVbrother:
p2776
F1
sVdarting
p2777
F1
sVbattell
p2778
F2
sVguessed
p2779
F2
sVpromised
p2780
F8
sVbrother.
p2781
F1
sVbrother,
p2782
F7
sVincursion
p2783
F1
sVmold
p2784
F1
sVagents,
p2785
F1
sVsong,
p2786
F1
sVdying
p2787
F6
sVbed)
p2788
F1
sVdisloyal
p2789
F1
sVbed.
p2790
F1
sVbed,
p2791
F10
sVshrine
p2792
F1
sVbed:
p2793
F1
sVunwilling
p2794
F5
sVshrink
p2795
F1
sVexpress,
p2796
F1
sVfunerall
p2797
F1
sVbrothers
p2798
F12
sVpromise;
p2799
F1
sVwelcome
p2800
F3
sVconvincing
p2801
F1
sVbattel.
p2802
F3
sVpromise?
p2803
F1
sVbattel,
p2804
F4
sVlions,
p2805
F1
sVbattel;
p2806
F2
sVbattel:
p2807
F1
sVmoor:
p2808
F2
sVmoor;
p2809
F3
sVpromise,
p2810
F3
sVours,
p2811
F5
sVvictory;
p2812
F1
sVbestowed
p2813
F3
sVpaces
p2814
F1
sVoutwent
p2815
F1
sVtogether
p2816
F12
sVbeds
p2817
F1
sVvictory,
p2818
F10
sVvowing,
p2819
F1
sVbanquets
p2820
F1
sVreception
p2821
F1
sVbruitish
p2822
F1
sVgratificatory
p2823
F1
sValonzo,
p2824
F4
sVgrateful
p2825
F1
sV(sayes
p2826
F5
sVcertainly
p2827
F14
sVsomthing
p2828
F1
sVdeciphered,
p2829
F1
sVterror
p2830
F1
sVhellen
p2831
F1
sVcompleated,
p2832
F1
sVtrouble
p2833
F11
sVblast
p2834
F3
sV(says
p2835
F1
sVperceived
p2836
F10
sVpresented
p2837
F7
sVturns
p2838
F1
sVguy
p2839
F1
sVturne
p2840
F1
sVwoman-like
p2841
F1
sVupper
p2842
F1
sVappear,
p2843
F1
sVbrave
p2844
F8
sVregret
p2845
F2
sVregained
p2846
F1
sVdiscover
p2847
F4
sVunkles
p2848
F2
sVcost
p2849
F2
sVperplexity
p2850
F1
sVtempest
p2851
F1
sVmortal
p2852
F4
sVappear
p2853
F3
sVassistance
p2854
F11
sVsafety:
p2855
F1
sVsharer
p2856
F1
sVnine
p2857
F4
sVoaks
p2858
F1
sVsafety,
p2859
F13
sVsafety.
p2860
F3
sVdeserts.
p2861
F1
sVdeserts,
p2862
F1
sVadressed
p2863
F2
sVdisdaine
p2864
F1
sVunkle,
p2865
F1
sVavvay
p2866
F1
sVdeserts:
p2867
F1
sVdeserts;
p2868
F1
sVappointed,
p2869
F3
sVroaring
p2870
F2
sVchange
p2871
F7
sVsending
p2872
F1
sVflames
p2873
F1
sVpetitioner
p2874
F1
sVtrial
p2875
F2
sVburdensome
p2876
F1
sVpluto.
p2877
F1
sVusually
p2878
F2
sVpetitioned
p2879
F1
sVcausers
p2880
F2
sVretired
p2881
F8
sVembarqued
p2882
F4
sVsowre
p2883
F1
sVparagon
p2884
F1
sVstraitly
p2885
F1
sVitalians
p2886
F1
sVcredulity;
p2887
F1
sVimmediatly
p2888
F8
sVmarket
p2889
F1
sVphysitian
p2890
F1
sVmouse,
p2891
F1
sVangell
p2892
F1
sVprove
p2893
F11
sVterritories
p2894
F1
sVlive
p2895
F12
sVamazament
p2896
F1
sVvvitness)
p2897
F1
sVhoysed
p2898
F1
sVnoblenesse
p2899
F3
sVresigne
p2900
F1
sVangels
p2901
F2
sVentrance
p2902
F2
sVitalian,
p2903
F1
sVcommissioned
p2904
F1
sVgioseppe,
p2905
F1
sVwitt,
p2906
F1
sVangel,
p2907
F1
sVeleven,
p2908
F1
sVproviso,
p2909
F1
sVswounding
p2910
F1
sVmirandola,
p2911
F1
sVnobleness,
p2912
F2
sVhardest
p2913
F1
sVnobleness.
p2914
F1
sVangel;
p2915
F1
sVcan
p2916
F60
sVmirandola;
p2917
F2
sVhoures
p2918
F3
sVheart
p2919
F19
sVdedicated
p2920
F1
sVfortuned
p2921
F1
sVrecalled
p2922
F1
sVheare
p2923
F2
sVheard
p2924
F20
sVfortunes
p2925
F9
sVo
F6
sVlocks,
p2926
F1
sVconquest,
p2927
F1
sVbleeding,
p2928
F1
sVfortunately
p2929
F1
sVflorelia,
p2930
F10
sVmeans
p2931
F17
sVtrophies
p2932
F1
sVwrite
p2933
F3
sVflank
p2934
F1
sVfuture,
p2935
F1
sVcandle,
p2936
F1
sVarmies
p2937
F8
sVdeviated
p2938
F1
sVpeerless
p2939
F1
sVsacrifice
p2940
F11
sVfortune,
p2941
F6
sVproduce
p2942
F3
sVgale,
p2943
F3
sVfortune;
p2944
F1
sVhear.
p2945
F1
sVflourish
p2946
F1
sVlifting
p2947
F2
sVcalms
p2948
F1
sVremember
p2949
F4
sVsolemne
p2950
F1
sVoverpowred,
p2951
F1
sVtrumpets
p2952
F4
sVtaking,
p2953
F1
sVgavest
p2954
F1
sVflorelias
p2955
F4
sVdisposition,
p2956
F1
sVmemory,
p2957
F3
sVmemory.
p2958
F3
sVno,
p2959
F6
sVserenest
p2960
F1
sVtroops,
p2961
F7
sV(taking
p2962
F2
sVindeed
p2963
F34
sVforfeit
p2964
F10
sVdisplayed
p2965
F1
sVconsulting
p2966
F1
sVbewitching
p2967
F1
sVended
p2968
F4
sVstile
p2969
F3
sVaffirms
p2970
F1
sVjustiniani
p2971
F3
sVcold
p2972
F1
sVstill
p2973
F40
sVremovall
p2974
F1
sVbullets,
p2975
F1
sVacknowledge
p2976
F3
sVselves
p2977
F20
sVchristendom,
p2978
F4
sVdesigns,
p2979
F3
sVhewed
p2980
F1
sVinflicted
p2981
F1
sVwindow
p2982
F4
sVspacious
p2983
F2
sVwon,
p2984
F1
sVblazons
p2985
F1
sVspirits.
p2986
F1
sVspirits,
p2987
F9
sVrecal
p2988
F2
sVobedience,
p2989
F1
sVspirits:
p2990
F1
sVspirits;
p2991
F1
sVhalf
p2992
F12
sVmistris
p2993
F2
sVcourtship
p2994
F3
sVnow
p2995
F142
sVhall
p2996
F2
sVnor
p2997
F104
sVwont
p2998
F1
sVrecruting
p2999
F1
sVhereafter,
p3000
F2
sVservant
p3001
F8
sVmantoves
p3002
F1
sVcovetize
p3003
F1
sVburdned
p3004
F1
sVconqueror,
p3005
F1
sVvexation
p3006
F2
sVprompted
p3007
F4
sVintirely
p3008
F2
sVchallenged
p3009
F1
sVadvantage,
p3010
F1
sVhurried
p3011
F2
sVyear
p3012
F3
sVhappen
p3013
F2
sVdeserved,
p3014
F1
sVadvantage:
p3015
F1
sVdespight
p3016
F1
sVcerimonies
p3017
F1
sVaccomplish
p3018
F3
sVopened
p3019
F1
sVcould,
p3020
F2
sVpalace,
p3021
F5
sVblackamoore,
p3022
F1
sVhastily
p3023
F2
sVincrease
p3024
F4
sVcould:
p3025
F1
sVconfines.
p3026
F1
sVrational
p3027
F2
sVreceiving
p3028
F1
sVpalace;
p3029
F3
sVshows
p3030
F1
sVfancy,
p3031
F1
sVbemoanings
p3032
F1
sVyea,
p3033
F1
sVfire,
p3034
F1
sVchallenge,
p3035
F1
sVrebel
p3036
F1
sVchallenge;
p3037
F1
sVobligation
p3038
F3
sVinevitable
p3039
F3
sVcare
p3040
F30
sVrhodomontado's
p3041
F1
sVcleer
p3042
F1
sVkingdoms
p3043
F1
sVhonest
p3044
F1
sVprophesied,
p3045
F1
sVinjoyn
p3046
F2
sVentrusted
p3047
F1
sVunfound-out
p3048
F1
sVblind
p3049
F1
sVlovers,
p3050
F6
sVlovers.
p3051
F4
sVguessing
p3052
F2
sVpicolhomini,
p3053
F1
sVjealousy
p3054
F1
sVaffict
p3055
F1
sVyourself
p3056
F1
sVlovers:
p3057
F5
sVlovers;
p3058
F1
sVended,
p3059
F3
sVimpossible
p3060
F16
sVring
p3061
F8
sVchecked
p3062
F1
sVsilent
p3063
F1
sVdesperatly
p3064
F1
sVbreed
p3065
F2
sVignorant,
p3066
F2
sVfriend
p3067
F39
sVsimilitude
p3068
F1
sVlarks
p3069
F1
sVpomp
p3070
F1
sVthat
p3071
F1142
sVbrains
p3072
F1
sVgreatness
p3073
F2
sVviolence,
p3074
F1
sVduke's
p3075
F2
sVshort
p3076
F16
sVflowers
p3077
F1
sVthan
p3078
F12
sVchiefly
p3079
F1
sVartifices
p3080
F1
sVargiers:
p3081
F1
sVtransferred
p3082
F1
sVtherfore
p3083
F1
sVfruits
p3084
F1
sVprofuse
p3085
F1
sVsublime
p3086
F1
sVtroublesome
p3087
F1
sVcontentious
p3088
F1
sVangel
p3089
F1
sVaspersion
p3090
F1
sVmirandola
p3091
F1
sVdeparting,
p3092
F1
sVpunctually
p3093
F1
sVdebauchedness,
p3094
F1
sV(and
p3095
F7
sVremaines
p3096
F1
sVbribes;
p3097
F1
sVanger
p3098
F1
sVrecover
p3099
F2
sVarmed,
p3100
F1
sVbroad-side)
p3101
F1
sVslave,
p3102
F4
sVveteran
p3103
F1
sVso)
p3104
F1
sVmr.
p3105
F10
sVimploy
p3106
F1
sVwell-worded
p3107
F1
sVslave;
p3108
F1
sVcheeks,
p3109
F1
sVbegin
p3110
F3
sVprice
p3111
F2
sVbeing,
p3112
F1
sVlie,
p3113
F1
sVimpossible.
p3114
F1
sVimpossible,
p3115
F1
sVabashed,
p3116
F1
sVattempting
p3117
F4
sVunconquerable
p3118
F1
sVslaves
p3119
F2
sVdispersed
p3120
F1
sVferrara
p3121
F13
sVhonour.
p3122
F1
sVhonour,
p3123
F14
sVfortification,
p3124
F1
sVfifty
p3125
F4
sVdiscovered
p3126
F7
sVhonour;
p3127
F1
sVoverswaied
p3128
F1
sVmaine
p3129
F1
sVground
p3130
F7
sVhoratio,
p3131
F1
sVwhat,
p3132
F1
sVnoblenesse;
p3133
F1
sVproclamation
p3134
F1
sVstained
p3135
F1
sVsaints
p3136
F1
sVtrojan
p3137
F2
sVstaid
p3138
F2
sVonly
p3139
F58
sVstain
p3140
F1
sVshrill
p3141
F1
sVseen,
p3142
F1
sVidlenesse,
p3143
F1
sVoverswayed
p3144
F1
sVmain?
p3145
F1
sVjovially
p3146
F1
sV'tis
p3147
F24
sVtruly
p3148
F7
sVloath
p3149
F2
sVcannot
p3150
F35
sVmain,
p3151
F1
sVcelebrate
p3152
F1
sVfriends;
p3153
F1
sVsaint:
p3154
F1
sVnext,
p3155
F2
sVseldom
p3156
F2
sVsorrowfully
p3157
F1
sVsplender;
p3158
F1
sVfriends)
p3159
F1
sVextremity
p3160
F2
sVfriends,
p3161
F16
sVfriends.
p3162
F1
sVhusband
p3163
F4
sVlook,
p3164
F1
sVchurch's
p3165
F1
sVseverely
p3166
F1
sVprotestations
p3167
F1
sVdismissed,
p3168
F1
sVasleep
p3169
F1
sVvvitnesses,
p3170
F1
sVsport
p3171
F4
sVconcern
p3172
F3
sVcome,
p3173
F7
sVforcetts,
p3174
F1
sVincite
p3175
F1
sV3
F1
sVcomplexion
p3176
F1
sVbetween
p3177
F30
sVreside,
p3178
F1
sVnotice
p3179
F7
sVtaken:
p3180
F1
sVout-lasted
p3181
F1
sVblame
p3182
F4
sVdreadfull
p3183
F2
sVresides
p3184
F1
sVaboard-ship
p3185
F1
sVthreatningly
p3186
F1
sVthanks,
p3187
F2
sVcolour,
p3188
F2
sVpray
p3189
F2
sVfought,
p3190
F1
sVfeud,
p3191
F1
sVassaulting
p3192
F2
sVcomet
p3193
F1
sVsuspect,
p3194
F1
sVcomes
p3195
F3
sVmony
p3196
F1
sVwound?
p3197
F1
sVmadness
p3198
F1
sVsence
p3199
F2
sVwound;
p3200
F2
sVmoisture:
p3201
F1
sVwound,
p3202
F3
sVlearning
p3203
F3
sVliberal
p3204
F1
sVhighness,
p3205
F11
sV(beleeved
p3206
F1
sVinformed
p3207
F8
sVdangers
p3208
F5
sVabating
p3209
F1
sVoaths,
p3210
F1
sVvirago,
p3211
F1
sVwounds
p3212
F6
sVdanger,
p3213
F3
sVdiscords,
p3214
F1
sVdanger.
p3215
F1
sVremediless-fate?
p3216
F1
sVtrick
p3217
F1
sVcare,
p3218
F5
sVdanger;
p3219
F1
sVvillains,
p3220
F3
sVtilling
p3221
F1
sVlapithites,
p3222
F1
sVsoil
p3223
F1
sVbevis
p3224
F1
sVcommander
p3225
F2
sVembrace
p3226
F8
sVabominable.
p3227
F1
sVspunges
p3228
F1
sVcommanded
p3229
F22
sVship
p3230
F29
sVcharge;
p3231
F1
sVinquire
p3232
F1
sVsigr.
p3233
F1
sVgentlemen
p3234
F1
sVcharge)
p3235
F1
sVcharge,
p3236
F8
sVpure,
p3237
F1
sVnoble
p3238
F91
sVthunderbolt
p3239
F1
sVnoyse,
p3240
F1
sVrapture,
p3241
F1
sVfruit
p3242
F1
sVnobly
p3243
F2
sVcomplained
p3244
F1
sVpurer
p3245
F1
sVtwelvemoneth,
p3246
F1
sVsevere
p3247
F3
sVeares,
p3248
F1
sVcharged
p3249
F1
sVentertainments
p3250
F1
sVam,
p3251
F3
sVgenerally
p3252
F4
sVarmour
p3253
F1
sVshouts
p3254
F2
sVstorming
p3255
F1
sVrule,
p3256
F3
sVtouch
p3257
F1
sVspeed
p3258
F19
sVdeath
p3259
F36
sVgallies.
p3260
F1
sVwatcht,
p3261
F1
sVthinking
p3262
F5
sVwisdom,
p3263
F1
sVparts
p3264
F4
sVdiamond)
p3265
F1
sVdoubted,
p3266
F1
sVcomplements
p3267
F5
sVstruck
p3268
F6
sVreal
p3269
F4
sVsacrified
p3270
F2
sVfrown
p3271
F1
sVspeechlesse
p3272
F1
sVread
p3273
F5
sVcorrespondence,
p3274
F1
sVearle
p3275
F1
sVbasest
p3276
F1
sVearnest
p3277
F10
sVusing
p3278
F2
sVexecution
p3279
F4
sVlady
p3280
F23
sVentertainment.
p3281
F1
sVjuyce
p3282
F1
sVfortune
p3283
F27
sVhazards,
p3284
F1
sVpounds
p3285
F1
sVconducts
p3286
F1
sVmiracle
p3287
F1
sVthrowes
p3288
F1
sVoccasions
p3289
F1
sVtwelve
p3290
F5
sVopened,
p3291
F1
sVverbal
p3292
F1
sVhackt
p3293
F1
sVservile
p3294
F2
sVburthen,
p3295
F1
sVfidelity,
p3296
F2
sVbrightned
p3297
F1
sVdone,
p3298
F9
sVpeace,
p3299
F2
sVpassions
p3300
F5
sVperverse
p3301
F3
sVcrying;
p3302
F1
sVcouncel
p3303
F2
sVpeace;
p3304
F1
sVcrying,
p3305
F4
sVconceal;
p3306
F1
sVcredit,
p3307
F1
sVbusiness
p3308
F4
sVyeares
p3309
F3
sVsixth
p3310
F2
sVtuition
p3311
F1
sVburthens
p3312
F1
sVboaded
p3313
F1
sVincircle
p3314
F1
sVteares
p3315
F1
sVinherent
p3316
F1
sVsadder
p3317
F1
sVguides
p3318
F1
sVthrow
p3319
F2
sVforset
p3320
F2
sVpiety
p3321
F1
sVpleased,
p3322
F1
sVnecessaries,
p3323
F1
sVboldly
p3324
F1
sVjourney
p3325
F2
sV(replied
p3326
F8
sVpassion)
p3327
F2
sVnecessaries:
p3328
F1
sVdapple-gray
p3329
F1
sVpassion,
p3330
F13
sVliked,
p3331
F1
sVstratagem
p3332
F1
sVprotests
p3333
F1
sVlong-lived
p3334
F1
sVbandetties
p3335
F1
sVsmelling
p3336
F1
sVintermission,
p3337
F1
sVcommodious
p3338
F1
sVbedtime
p3339
F1
sVyour
p3340
F312
sVbelief,
p3341
F2
sVprepare
p3342
F2
sVcountrey
p3343
F1
sVposture,
p3344
F2
sVstealth
p3345
F1
sVcats
p3346
F1
sVlow
p3347
F7
sVlot
p3348
F2
sVhellish
p3349
F1
sVservants,
p3350
F1
sVmdclxi.
p3351
F1
sVyou.
p3352
F5
sVyou,
p3353
F48
sVmetrapolitan
p3354
F1
sVdelayed
p3355
F2
sVyou?
p3356
F2
sVyou;
p3357
F5
sVturn'd;
p3358
F1
sVpitched
p3359
F1
sVcommander?)
p3360
F1
sVromances,
p3361
F1
sVdefault
p3362
F1
sVspecies,
p3363
F1
sV(rising
p3364
F1
sVannuity,
p3365
F1
sVbloody.
p3366
F1
sVpostures
p3367
F1
sVbesse
p3368
F6
sVdisimulation;
p3369
F1
sVdispair
p3370
F1
sVapollo,
p3371
F1
sVinflict
p3372
F2
sVprocured,
p3373
F1
sVmoved
p3374
F6
sVsheath
p3375
F2
sVmantona,
p3376
F1
sVsuite,
p3377
F2
sVthere-vvithall
p3378
F1
sVdivinity,
p3379
F1
sVenglishman
p3380
F1
sVgreen
p3381
F4
sVthither
p3382
F6
sVfools
p3383
F1
sVforcing
p3384
F2
sVgaining
p3385
F7
sVreformadoes
p3386
F1
sVsacrifices,
p3387
F1
sVendeavors
p3388
F2
sVinsomuch
p3389
F2
sVmove;
p3390
F1
sVintent,
p3391
F1
sVbuilding
p3392
F1
sVcatholique
p3393
F1
sVfool,
p3394
F1
sVevening,
p3395
F2
sVsun-set,
p3396
F1
sVrepay
p3397
F1
sVmountains,
p3398
F2
sVdoubted
p3399
F6
sVembracing
p3400
F13
sVbounty,
p3401
F2
sVbanishment
p3402
F1
sVgiorgio
p3403
F2
sVsince
p3404
F52
sVapparent,
p3405
F1
sVhapned
p3406
F2
sVminde?
p3407
F1
sVship-boyes
p3408
F1
sVjeast
p3409
F1
sVespied
p3410
F6
sVdreadful
p3411
F1
sV(pointing
p3412
F2
sVsustain
p3413
F1
sVpowred
p3414
F1
sVelizabeth,
p3415
F2
sVrelieve
p3416
F1
sVvery
p3417
F67
sVhorror
p3418
F1
sVeldest
p3419
F1
sVresided:
p3420
F1
sVminded
p3421
F1
sVdecide
p3422
F1
sVbegot
p3423
F1
sVheaven
p3424
F15
sVruffman,
p3425
F8
sVinestimable,
p3426
F1
sVaspes,
p3427
F1
sVexpectations,
p3428
F2
sVi'le
p3429
F10
sVsig.
p3430
F1
sVanswer,
p3431
F14
sVimpieties;
p3432
F1
sVports,
p3433
F1
sVconscience
p3434
F1
sVhim?
p3435
F2
sVcontinued.
p3436
F1
sVhim:
p3437
F4
sVaffections,
p3438
F1
sVaffections.
p3439
F1
sVpyracies;
p3440
F1
sVthickness
p3441
F1
sVhim.
p3442
F13
sVhim,
p3443
F155
sVbestrid
p3444
F1
sVhim)
p3445
F4
sVpriming
p3446
F1
sVlearned
p3447
F2
sVherald,
p3448
F1
sVsegr.
p3449
F1
sVloose
p3450
F5
sVrecruite
p3451
F1
sVstreet,
p3452
F1
sVexcess
p3453
F3
sVpraises
p3454
F1
sVstrong
p3455
F4
sVentire,
p3456
F1
sVpartaker
p3457
F3
sVsoldier
p3458
F2
sVamount
p3459
F2
sVbase
p3460
F5
sVadieu,
p3461
F2
sVrawleigh,
p3462
F1
sV(what
p3463
F1
sV'twas
p3464
F14
sVfamily
p3465
F5
sVshame;
p3466
F1
sVstory;
p3467
F1
sVrequiring
p3468
F2
sVcourtier
p3469
F1
sVput
p3470
F47
sVlistning,
p3471
F1
sVstory.
p3472
F1
sVstory,
p3473
F9
sVsanazzaro,
p3474
F3
sVinjure
p3475
F2
sVtransported,
p3476
F1
sVsoldiery,
p3477
F2
sVtaken
p3478
F30
sVinjury
p3479
F2
sVcontaine
p3480
F1
sVtax'd
p3481
F1
sVeternall
p3482
F3
sVvirgin)
p3483
F1
sVvirgin.
p3484
F1
sVvirgin,
p3485
F7
sVinstrumental
p3486
F1
sVexcuse
p3487
F12
sVresolutions,
p3488
F3
sVbroke
p3489
F6
sVmounted
p3490
F7
sVlust
p3491
F7
sVcoolnesse
p3492
F1
sVoffended
p3493
F2
sVcontain,
p3494
F1
sVtake.
p3495
F1
sVhorses,
p3496
F1
sVtake,
p3497
F1
sVhistory
p3498
F2
sVvisage
p3499
F3
sVmantoveses,
p3500
F1
sVforth,
p3501
F5
sVfury,
p3502
F7
sVtriumph,
p3503
F1
sVforth.
p3504
F1
sVmiserable,
p3505
F1
sVcomplexion,
p3506
F1
sVvigilancy
p3507
F1
sVstayed
p3508
F2
sVreject
p3509
F1
sVsurpasses
p3510
F1
sVcourtesie;
p3511
F1
sVtried
p3512
F1
sVfoes,
p3513
F3
sVrecived
p3514
F1
sVtriumphs
p3515
F1
sVacquaintance
p3516
F3
sVcourtesie,
p3517
F1
sVa
F909
sVboldly:
p3518
F1
sVrenewing
p3519
F4
sVrepossessing
p3520
F1
sVdread
p3521
F2
sVperjured
p3522
F3
sVbanks
p3523
F1
sVcalm,
p3524
F2
sVdream
p3525
F2
sVhelp
p3526
F11
sVadvised
p3527
F13
sVsoon
p3528
F53
sVheld
p3529
F1
sVcommitted
p3530
F8
sVhell
p3531
F4
sVthreatnings
p3532
F1
sVfourthly
p3533
F1
sVoccasion;
p3534
F1
sVsurprized
p3535
F6
sVloved,
p3536
F1
sVfined
p3537
F1
sVfair,
p3538
F4
sVabsence
p3539
F8
sVdisclosed
p3540
F1
sVoccasion,
p3541
F1
sVforbear
p3542
F1
sVguns,
p3543
F1
sVevening
p3544
F3
sVindefatigable
p3545
F1
sVye
p3546
F2
sVboistrous
p3547
F3
sVfoot
p3548
F11
sVslighted
p3549
F1
sVdesperately
p3550
F3
sVfaire
p3551
F6
sVfully
p3552
F9
sVsurprize,
p3553
F2
sVfomented.
p3554
F1
sVunmerciful
p3555
F1
sVmusitians,
p3556
F1
sVbless
p3557
F3
sVmoors,
p3558
F1
sVrecommanding
p3559
F1
sVstopped
p3560
F3
sVblest
p3561
F2
sVingraven
p3562
F1
sVheavy
p3563
F1
sVjaws
p3564
F1
sVhouse)
p3565
F1
sVhouse,
p3566
F8
sVsails,
p3567
F1
sVderide
p3568
F1
sVworthy,
p3569
F2
sVsit,
p3570
F1
sVbeyond
p3571
F6
sVbuffers
p3572
F1
sVsteered
p3573
F1
sVgoodlake's
p3574
F2
sVdisrobed,
p3575
F1
sVtrusty
p3576
F3
sVpresumptuous
p3577
F1
sVrobert
p3578
F1
sVsurrounded
p3579
F1
sVmeditating
p3580
F1
sVdeare
p3581
F12
sVissue
p3582
F3
sVuttered,
p3583
F1
sVsuperfluous,
p3584
F1
sVdirt
p3585
F1
sVreason
p3586
F33
sVpoints;
p3587
F1
sVdire
p3588
F1
sVask
p3589
F2
sVimpertinency
p3590
F1
sVhapless
p3591
F1
sVwell-biassed
p3592
F1
sVplayed,
p3593
F1
sVunvoluntary
p3594
F1
sVterrible
p3595
F4
sVcheering
p3596
F1
sVship-board
p3597
F1
sVexpecting
p3598
F5
sVconquered,
p3599
F2
sVscouts
p3600
F1
sVblush
p3601
F2
sVtryal
p3602
F2
sVirons,
p3603
F1
sVprobability
p3604
F2
sVprevent
p3605
F1
sVknocking
p3606
F1
sVblemishing
p3607
F1
sVelder
p3608
F2
sVclosely,
p3609
F1
sVpretence
p3610
F1
sVmist
p3611
F2
sVmiss
p3612
F1
sVwillingly,
p3613
F2
sVvilla
p3614
F1
sVsoveraign
p3615
F1
sVhorse
p3616
F19
sVgates;
p3617
F1
sVst.
p3618
F1
sVobedience
p3619
F3
sVwonderful
p3620
F1
sVsannazzaro's
p3621
F2
sVhundred
p3622
F11
sVmerciless
p3623
F2
sVbowed
p3624
F1
sVpassed
p3625
F18
sVunkinde
p3626
F2
sVdissemble
p3627
F1
sVauthors
p3628
F1
sVinventing
p3629
F1
sVserious,
p3630
F1
sVassaulted
p3631
F6
sVremembred
p3632
F1
sVkindly
p3633
F1
sVlament
p3634
F10
sVseat,
p3635
F1
sVmiseries
p3636
F6
sVanticipate
p3637
F1
sVinfantry,
p3638
F1
sVbride
p3639
F1
sVtunis
p3640
F1
sVstore
p3641
F1
sVbattering
p3642
F1
sVbarberous
p3643
F1
sVkirkman.
p3644
F1
sVaire,
p3645
F1
sVexperience,
p3646
F1
sVbandetti,
p3647
F1
sVjuice
p3648
F1
sVbandetti.
p3649
F1
sVapprove,
p3650
F1
sVmagnamous
p3651
F1
sVlie
p3652
F7
sVnoon,
p3653
F1
sVflaming
p3654
F1
sVofficers
p3655
F6
sVtargets
p3656
F1
sVdangers)
p3657
F1
sVdangers,
p3658
F4
sVapplauded
p3659
F1
sVgrac't
p3660
F1
sVtowards
p3661
F38
sVeaten
p3662
F1
sVapproved
p3663
F4
sVchronicle
p3664
F1
sVclear
p3665
F5
sVillustrissimo,
p3666
F1
sVprecise,
p3667
F1
sVsuccor
p3668
F1
sVinconveniences,
p3669
F1
sVforehead,
p3670
F1
sVtincture
p3671
F1
sVfiercest
p3672
F1
sVleague
p3673
F2
sVtree,
p3674
F3
sVliveth,
p3675
F1
sVheavens
p3676
F3
sVsooth'd
p3677
F1
sVdebts,
p3678
F3
sVwith,
p3679
F9
sVheavenly:
p3680
F1
sVwith)
p3681
F1
sVjustice
p3682
F3
sVhope
p3683
F10
sVpitty,
p3684
F2
sVsacrifice.
p3685
F2
sVdarted
p3686
F1
sV(such
p3687
F2
sVliberty;
p3688
F1
sVsoveraign,
p3689
F1
sVwith;
p3690
F2
sVheaven,
p3691
F8
sVheaven-
p3692
F1
sVsadnesse,
p3693
F1
sVimparted
p3694
F1
sVfamous
p3695
F12
sVgrew
p3696
F3
sVpretending
p3697
F2
sVbayes.
p3698
F1
sVduring
p3699
F15
sVgoodnesse,
p3700
F3
sVpromis'd
p3701
F1
sVsacrificed
p3702
F1
sValteration
p3703
F2
sVflight.
p3704
F1
sVcourteous
p3705
F1
sVvvhose
p3706
F2
sVseventeen
p3707
F1
sVthrowing
p3708
F3
sVseats
p3709
F1
sVjustiniani,
p3710
F1
sVformerly,
p3711
F2
sVmanning
p3712
F1
sVclose
p3713
F10
sVprodigious,
p3714
F1
sVyears;
p3715
F1
sVgriefe,
p3716
F4
sVhorrid
p3717
F3
sVfesse,
p3718
F1
sVlove,)
p3719
F1
sVpisa
p3720
F1
sVdecaying,
p3721
F1
sVwon
p3722
F1
sVyears,
p3723
F4
sVsecret,
p3724
F1
sVwoe
p3725
F1
sVadore,
p3726
F2
sVadore.
p3727
F1
sVconditions
p3728
F3
sVfuneral
p3729
F1
sVintending
p3730
F4
sVinfidels,
p3731
F1
sVdistinguish
p3732
F1
sVwork,
p3733
F1
sVsurgion,
p3734
F1
sVkneeled
p3735
F1
sVboth
p3736
F112
sVcondition,
p3737
F6
sV(whither
p3738
F1
sVcondition?
p3739
F1
sVcondition;
p3740
F1
sVpicture,
p3741
F6
sVthose,
p3742
F1
sVdivells,
p3743
F1
sVliked
p3744
F1
sVlive!
p3745
F1
sVsprung,
p3746
F1
sVlive,
p3747
F7
sVsurbated
p3748
F1
sVforset's
p3749
F1
sVwhatever
p3750
F4
sVlive?
p3751
F2
sVthuscan
p3752
F1
sVlive;
p3753
F3
sVlive:
p3754
F1
sVflee,
p3755
F1
sVimpute,
p3756
F1
sVinstilled
p3757
F1
sVchariot,
p3758
F1
sVplymouth;
p3759
F1
sVdamp
p3760
F1
sVblow's,
p3761
F1
sVkisses,
p3762
F1
sVthreaten
p3763
F1
sVsea-coast
p3764
F1
sVempty
p3765
F3
sVwalter
p3766
F1
sVhere;
p3767
F1
sVlived
p3768
F4
sVsuccess,
p3769
F3
sVhew,
p3770
F2
sVlike,
p3771
F1
sVvictors,
p3772
F1
sVuses;
p3773
F1
sVelse
p3774
F13
sVmanner,
p3775
F5
sVlives
p3776
F6
sVdelight,
p3777
F1
sVutmost
p3778
F10
sVlook
p3779
F9
sVwhile
p3780
F13
sVmatch
p3781
F1
sVendanger
p3782
F4
sVfleet
p3783
F16
sVanimated
p3784
F1
sVguide
p3785
F2
sVpack
p3786
F1
sVcostly
p3787
F1
sVbrings,
p3788
F1
sVuse,
p3789
F2
sVconfound
p3790
F2
sVready
p3791
F39
sVreception,
p3792
F2
sVkings
p3793
F17
sVcautious,
p3794
F1
sVspeechlesnesse
p3795
F1
sVgrant
p3796
F15
sVbelong
p3797
F2
sVordinary.
p3798
F1
sVgrand
p3799
F27
sVimpious
p3800
F3
sVcovetous
p3801
F1
sVfaire,
p3802
F2
sVmedico,
p3803
F1
sVcensure
p3804
F3
sVchronicled
p3805
F1
sVherewith
p3806
F6
sVleaves,
p3807
F2
sVwing,
p3808
F6
sVdangerous,
p3809
F2
sVhither
p3810
F4
sVquarters
p3811
F1
sViohn
p3812
F2
sVgoods;
p3813
F1
sVinsolent
p3814
F3
sVbeigh,
p3815
F4
sVwounding
p3816
F1
sVconjurer
p3817
F1
sVconjures
p3818
F1
sVcompleat
p3819
F2
sVremaining
p3820
F2
sVlonger,
p3821
F3
sVmarch
p3822
F4
sVshowing
p3823
F1
sVpeirced
p3824
F1
sVquarter.
p3825
F1
sVbreach,
p3826
F1
sVdearly
p3827
F1
sVwings
p3828
F5
sVdistance,
p3829
F3
sVconfusion,
p3830
F1
sVbaseness
p3831
F1
sVsignal
p3832
F3
sVsuitors,
p3833
F2
sVstrife
p3834
F1
sVjacomo
p3835
F1
sVmiscarriages;
p3836
F1
sVrelations,
p3837
F1
sVprovoking
p3838
F1
sVvexation,
p3839
F1
sVkings,
p3840
F1
sValps,
p3841
F1
sVlast,
p3842
F2
sVfathers
p3843
F11
sVdeterminations,
p3844
F1
sVsome
p3845
F165
sVurgent
p3846
F2
sVlips
p3847
F1
sVexperienced
p3848
F1
sVbesides,
p3849
F1
sVlast?
p3850
F1
sVengland.
p3851
F1
sVlast;
p3852
F1
sVdelivered
p3853
F4
sVexceeding
p3854
F1
sVprovidence
p3855
F1
sVnurse,
p3856
F1
sVclownish
p3857
F1
sVrun
p3858
F11
sVvvhilest
p3859
F1
sVtuscany.
p3860
F1
sVspectators,
p3861
F3
sVspectators.
p3862
F2
sVuniverse;
p3863
F2
sVworks.
p3864
F1
sVfather,
p3865
F7
sVfather.
p3866
F1
sVhebrew,
p3867
F1
sVplots
p3868
F1
sVabroad
p3869
F1
sVtroops
p3870
F1
sVshine
p3871
F4
sVfaith
p3872
F12
sVproffering
p3873
F1
sVworks
p3874
F1
sVentailed
p3875
F1
sVcompetition,
p3876
F1
sVbeheld,
p3877
F1
sVitalian
p3878
F2
sVsilence
p3879
F3
sVseeing
p3880
F22
sVenduring
p3881
F2
sVmollineaux,
p3882
F1
sVwithin
p3883
F15
sVhorse,
p3884
F19
sVyower
p3885
F1
sVmain-top
p3886
F1
sVwalks,
p3887
F1
sVbrought,
p3888
F2
sVinnate
p3889
F1
sVplacing
p3890
F1
sVoverclouded
p3891
F1
sVworshipped
p3892
F1
sVfalceness
p3893
F2
sVcomport,
p3894
F1
sVforces,
p3895
F9
sVforces)
p3896
F1
sVconfessing
p3897
F1
sVhimself
p3898
F48
sVpuzzel
p3899
F1
sVauthority
p3900
F1
sVnewes
p3901
F1
sVdull
p3902
F7
sVceremonies
p3903
F2
sVmiracle,
p3904
F1
sVpannick
p3905
F1
sVaccustomed
p3906
F1
sVnecessity,
p3907
F1
sVcorrupted,
p3908
F1
sVsyal
p3909
F1
sVordered
p3910
F3
sVconditions,
p3911
F1
sVunperformed.
p3912
F1
sVblot
p3913
F3
sVlanguishing
p3914
F1
sVdistracted?
p3915
F1
sVprofesse
p3916
F1
sVreadiness,
p3917
F1
sVthemselves;
p3918
F2
sVheat!
p3919
F1
sVobjection
p3920
F1
sVheat,
p3921
F1
sVfears
p3922
F4
sVthemselves)
p3923
F1
sVbassa's,
p3924
F1
sVenquired
p3925
F2
sVthemselves,
p3926
F2
sVfeare
p3927
F2
sVnay
p3928
F5
sVwished
p3929
F4
sVdraw
p3930
F11
sVbodies,
p3931
F1
sVspectators
p3932
F1
sVblood:
p3933
F2
sVresign
p3934
F1
sVresigo
p3935
F1
sVwilliam
p3936
F1
sVwonders.
p3937
F1
sVsmiled
p3938
F1
sVreadinesse
p3939
F1
sVdram
p3940
F1
sVrestrained
p3941
F4
sVe
F1
sVresistance;
p3942
F3
sVindissoluble
p3943
F2
sVrequired
p3944
F1
sVresolving
p3945
F8
sVresistance,
p3946
F8
sVneighbouring
p3947
F1
sVlying
p3948
F2
sVsounded
p3949
F3
sVgr
p3950
F1
sVhimselfe;
p3951
F1
sVeradicated
p3952
F1
sVproposition
p3953
F1
sVgo
p3954
F25
sVhimselfe,
p3955
F2
sVcomfort,
p3956
F3
sVcontroule.
p3957
F1
sVarrogance
p3958
F1
sVattired
p3959
F1
sVcomfort;
p3960
F1
sVsuite
p3961
F3
sVvirtuous
p3962
F4
sVsummoning
p3963
F1
sVduelling
p3964
F1
sVmore;
p3965
F1
sVmore,
p3966
F4
sVg.
p3967
F1
sVmore.
p3968
F1
sVmore)
p3969
F1
sVkindled
p3970
F2
sVvalorous
p3971
F1
sVbarbary
p3972
F1
sVinsuperable
p3973
F1
sVcompassionate
p3974
F1
sVwatered
p3975
F1
sVsuit,
p3976
F1
sVammunition,
p3977
F1
sVbetwixt
p3978
F2
sVteeth,
p3979
F1
sVenforce
p3980
F1
sVferrara;
p3981
F1
sVioffer,
p3982
F1
sVthence,
p3983
F3
sVclouded,
p3984
F1
sVunnecessary,
p3985
F1
sVferrara,
p3986
F15
sVferrara.
p3987
F1
sVardent
p3988
F2
sVhonors
p3989
F4
sVmischiefs
p3990
F2
sVthence;
p3991
F1
sVobeyed,
p3992
F1
sVsenceless
p3993
F1
sVhonor,
p3994
F4
sVferraras
p3995
F1
sVgenerous;
p3996
F1
sVfaintnesse
p3997
F1
sVfollowing
p3998
F5
sVhonor;
p3999
F1
sVgenerous,
p4000
F1
sVconvert
p4001
F1
sVfeaver,
p4002
F3
sVrepel
p4003
F1
sVplay.
p4004
F1
sVsalvation
p4005
F1
sVexamining
p4006
F1
sVaddresses
p4007
F2
sVdanger
p4008
F7
sVwin
p4009
F1
sVsomwhat
p4010
F5
sVwil
p4011
F1
sVunwillingly
p4012
F3
sVaddressed
p4013
F7
sVwit
p4014
F3
sVinfest
p4015
F1
sValms,
p4016
F1
sVremains
p4017
F4
sVservant,
p4018
F1
sVmoorish
p4019
F14
sVservant.
p4020
F1
sVchristendome,
p4021
F1
sVcongratulated
p4022
F1
sVcheeks
p4023
F1
sVprivacy,
p4024
F4
sVbeauteous
p4025
F9
sVprivacy.
p4026
F1
sVstarted
p4027
F2
sVtestified
p4028
F1
sVsister
p4029
F8
sVconfused
p4030
F1
sVappointed
p4031
F10
sVimbrace
p4032
F1
sVbay's,
p4033
F1
sVride
p4034
F1
sVforc'd
p4035
F1
sVlawes
p4036
F1
sVservants
p4037
F3
sVmeet
p4038
F17
sVeternity,
p4039
F1
sVmeer
p4040
F3
sVpoint
p4041
F6
sVfuruiture,
p4042
F1
sVfar,
p4043
F2
sVstoln
p4044
F2
sVchief,
p4045
F1
sVescaped
p4046
F6
sVpulling
p4047
F2
sVpromted
p4048
F1
sVsought
p4049
F4
sVundeceive
p4050
F2
sVstole
p4051
F2
sVpray,
p4052
F1
sVingrateful
p4053
F1
sVdemenour
p4054
F1
sVpray;
p4055
F1
sVspeech,
p4056
F2
sVembellished
p4057
F1
sVentred
p4058
F11
sVunserviceable
p4059
F1
sVchiefe
p4060
F2
sVbillows
p4061
F1
sVescape:
p4062
F1
sVescape;
p4063
F1
sVcourage,
p4064
F10
sVcourage.
p4065
F1
sVcourage)
p4066
F1
sV(six
p4067
F1
sVfrontier,
p4068
F1
sVsavor
p4069
F1
sVdespair,
p4070
F1
sVmiseries?
p4071
F1
sVpublique
p4072
F3
sVhand,
p4073
F9
sVsweet.
p4074
F1
sVhand)
p4075
F1
sVsweet,
p4076
F2
sVargo's,
p4077
F1
sVhand:
p4078
F1
sVhand;
p4079
F3
sVthence
p4080
F4
sVmaster;
p4081
F1
sVshewed
p4082
F6
sVjealousies,
p4083
F1
sVexiled,
p4084
F1
sVdiscord;
p4085
F1
sVxeriff,
p4086
F1
sVhigh-flown
p4087
F1
sVmaster,
p4088
F5
sVsword
p4089
F32
sVcures,
p4090
F1
sVoffence,
p4091
F2
sVpair,
p4092
F1
sVstout
p4093
F1
sVhands
p4094
F10
sVfront
p4095
F1
sVpursuite,
p4096
F1
sVtragick-history
p4097
F1
sVmasters
p4098
F1
sVgrumbling
p4099
F1
sVshaking
p4100
F2
sVprinces.
p4101
F1
sVprinces,
p4102
F3
sVilluminate
p4103
F1
sV(the
p4104
F5
sVhunting,
p4105
F1
sVcounties,
p4106
F1
sVnegro,
p4107
F4
sVprinces;
p4108
F1
sVexceeded
p4109
F7
sVpursuite
p4110
F2
sVnegro:
p4111
F2
sVspecial
p4112
F1
sVgallant
p4113
F34
sVrout,
p4114
F2
sVlance,
p4115
F2
sVentertainment
p4116
F6
sVconfess
p4117
F14
sVcloser
p4118
F1
sVtime,
p4119
F10
sVstrokes
p4120
F1
sVneglects,
p4121
F1
sVscimitar
p4122
F1
sVlands,
p4123
F1
sVcause
p4124
F22
sVdispenced
p4125
F1
sVprosperous,
p4126
F1
sVterminated
p4127
F1
sVsand.
p4128
F1
sVsand,
p4129
F1
sVdarkly
p4130
F1
sValmerigho,
p4131
F1
sVattending
p4132
F3
sVill,
p4133
F1
sVreceived.
p4134
F1
sVprincess
p4135
F2
sVreceived,
p4136
F4
sVsafty
p4137
F1
sVscorch't
p4138
F1
sVkiss
p4139
F3
sVtimes
p4140
F10
sVwee'l
p4141
F1
sVbliss,
p4142
F4
sVlances
p4143
F2
sVglories
p4144
F1
sVyong
p4145
F3
sVpitied
p4146
F1
sVhesitating,
p4147
F1
sVgloried
p4148
F1
sVconge
p4149
F2
sVquality
p4150
F1
sVmanagement
p4151
F1
sVbe.
p4152
F1
sVbe,
p4153
F8
sVprivacy
p4154
F2
sVbears
p4155
F2
sVdurable
p4156
F1
sVsommerset,
p4157
F1
sVgennerous
p4158
F1
sVcontrouled,
p4159
F1
sVbe?
p4160
F1
sVwrapped
p4161
F1
sVreallity,
p4162
F1
sVperfectly
p4163
F2
sVfairest
p4164
F4
sVbeare
p4165
F1
sVprone
p4166
F1
sVmariana
p4167
F7
sVmusicians,
p4168
F1
sVpunish
p4169
F1
sVdallying
p4170
F1
sVexactly
p4171
F1
sVvvith
p4172
F14
sVformerly.
p4173
F1
sVmakest
p4174
F1
sVplough
p4175
F1
sVthere-withall
p4176
F1
sVdisturbed;
p4177
F1
sVgainest
p4178
F1
sVburnt,
p4179
F1
sVvisage,
p4180
F2
sVrelation;
p4181
F1
sVgirdle
p4182
F1
sVfell,
p4183
F3
sVbeg
p4184
F21
sVsubmitted
p4185
F1
sVbee
p4186
F1
sVimbroydered
p4187
F1
sVrelation,
p4188
F5
sVrelation.
p4189
F1
sVbear,
p4190
F1
sVconfirm'd
p4191
F1
sVfell;
p4192
F1
sVspurs
p4193
F3
sVenforced
p4194
F1
sVvillains
p4195
F1
sVflorelias;
p4196
F1
sVneer
p4197
F6
sVrerevenge
p4198
F1
sVtorment
p4199
F2
sVbravo;
p4200
F1
sVneed
p4201
F14
sVrude,
p4202
F2
sVroad.
p4203
F1
sVenjoyment,
p4204
F1
sVarrogate
p4205
F1
sVgallies,
p4206
F2
sVable
p4207
F33
sVpursued
p4208
F13
sVissuing
p4209
F1
sVdeclined
p4210
F1
sVpursues
p4211
F1
sVm[illeg.]
p4212
F1
sVnegligence,
p4213
F1
sVresplendent
p4214
F1
sVskirmish
p4215
F1
sVvengeance
p4216
F2
sVpreparations
p4217
F1
sVvillain,
p4218
F4
sVexpired
p4219
F1
sVbehavior,
p4220
F1
sVblade,
p4221
F1
sVundeniable
p4222
F1
sVcloathed
p4223
F1
sV(besides
p4224
F1
sVproceedings
p4225
F1
sVdominions;
p4226
F1
sVafforded,
p4227
F2
sVgrateful,
p4228
F1
sVimpression
p4229
F1
sVwilful
p4230
F1
sVviolation
p4231
F1
sVcouldst
p4232
F1
sVarrived;
p4233
F1
sVrob'd
p4234
F2
sVsoldiers
p4235
F4
sVobsequious
p4236
F1
sVarrived,
p4237
F4
sVfaithfull
p4238
F2
sVuntimely
p4239
F2
sVrash
p4240
F3
sVobstinately
p4241
F1
sVhector
p4242
F1
sVinherited
p4243
F1
sVemployed
p4244
F1
sVinfernal
p4245
F1
sVdoubting
p4246
F3
sVrecollecting
p4247
F8
sVsoldier,
p4248
F2
sVchristians;
p4249
F2
sVpass,
p4250
F3
sVcould;
p4251
F1
sVamazement,
p4252
F1
sVprobably
p4253
F1
sVchristians,
p4254
F2
sVchristians)
p4255
F1
sVendless
p4256
F1
sVgray
p4257
F1
sVfaithful,
p4258
F1
sVnimbleness
p4259
F1
sVhad,
p4260
F3
sVimperious
p4261
F2
sVdejected
p4262
F1
sVcorta,
p4263
F1
sVcounterfeit
p4264
F1
sVshe
p4265
F225
sVcontain
p4266
F5
sVbeleived
p4267
F7
sVmoors
p4268
F8
sV"that
p4269
F1
sVdecline;
p4270
F1
sVshake
p4271
F3
sVportend
p4272
F1
sVaccused
p4273
F2
sVdesperate
p4274
F8
sVstrumpet;
p4275
F1
sVhumane
p4276
F2
sVdeity
p4277
F1
sVstudy,
p4278
F1
sVjoys
p4279
F2
sVmissing
p4280
F2
sVstrain,
p4281
F1
sVmind,
p4282
F4
sVstate
p4283
F4
sVjoyn
p4284
F4
sVsouthampton,
p4285
F1
sVhorrible
p4286
F1
sVneither
p4287
F17
sV(though
p4288
F8
sVsolitary
p4289
F3
sVall-most
p4290
F1
sVstrumpets
p4291
F1
sVspared
p4292
F1
sVpowers;
p4293
F1
sVmerry
p4294
F1
sVprecious
p4295
F3
sVdeliverance,
p4296
F1
sVthank
p4297
F2
sVjoy:
p4298
F1
sVdiligent
p4299
F1
sVadmit
p4300
F6
sVjoy.
p4301
F1
sVjoy,
p4302
F6
sVminde
p4303
F3
sVflocking
p4304
F1
sVfierce,
p4305
F1
sVtogether;
p4306
F1
sVexploits,
p4307
F1
sVtogether?
p4308
F1
sVbearing
p4309
F1
sVbetrayed
p4310
F7
sVtogether,
p4311
F7
sVrepresented,
p4312
F1
sVtogether!
p4313
F1
sVquit
p4314
F3
sVcloathing
p4315
F1
sVdally
p4316
F2
sVtread
p4317
F1
sVaddition
p4318
F2
sVwills
p4319
F1
sVdrudgery,
p4320
F1
sVthanked
p4321
F1
sVoverthrowing
p4322
F1
sVrelying
p4323
F1
sVquil
p4324
F1
sVtragedy;
p4325
F1
sVarmies,
p4326
F4
sVown;
p4327
F1
sVmisfortunes,
p4328
F3
sVsenses
p4329
F2
sVdiversity
p4330
F1
sVking,
p4331
F21
sVproceeded,
p4332
F1
sVcogitations
p4333
F3
sVking;
p4334
F3
sValemquel;
p4335
F1
sVmain
p4336
F7
sVlearn'd
p4337
F1
sVriper
p4338
F1
sVwill,
p4339
F5
sVcoward;
p4340
F1
sVcomplements,
p4341
F1
sVcomets
p4342
F1
sVchristian:
p4343
F1
sVsea-side,
p4344
F1
sVquires
p4345
F1
sVexamined
p4346
F1
sVappearance,
p4347
F1
sVclapt
p4348
F4
sVaccepted.
p4349
F1
sVsuddain
p4350
F11
sVbegan
p4351
F47
sVballance
p4352
F1
sVbegat
p4353
F1
sVstrange
p4354
F32
sVnorthwest
p4355
F1
sVconcernes.
p4356
F1
sVparty
p4357
F11
sVsince,
p4358
F1
sVpersuers,
p4359
F1
sVsteale
p4360
F1
sVguards,
p4361
F3
sVeffect
p4362
F8
sVcolouring
p4363
F1
sVdiscouraged
p4364
F1
sVfierce
p4365
F3
sVfrequently
p4366
F2
sVdestruction
p4367
F1
sVscarcely
p4368
F2
sVreflection
p4369
F1
sVi
F1042
sVdidst
p4370
F2
sVpart,
p4371
F6
sVpart.
p4372
F3
sVextream
p4373
F2
sVsadder)
p4374
F1
sVrestore
p4375
F1
sVgreedy
p4376
F1
sVmerits;
p4377
F1
sVterritories.
p4378
F1
sVterritories,
p4379
F2
sVassailers,
p4380
F1
sVangels;
p4381
F1
sVdistant
p4382
F2
sVintercessors
p4383
F1
sVreportde
p4384
F1
sVskill
p4385
F4
sVlately
p4386
F7
sVcowrses,
p4387
F1
sVdost
p4388
F3
sVimparts
p4389
F1
sVinchanted;
p4390
F1
sVdefeated.
p4391
F1
sVdefeated,
p4392
F1
sVvvorthy
p4393
F1
sVwandring
p4394
F1
sVclouded
p4395
F1
sVdover,
p4396
F1
sVfate
p4397
F7
sVenmity,
p4398
F1
sVdevised
p4399
F1
sVmistake,
p4400
F2
sVfurnisht
p4401
F1
sVimmediately
p4402
F36
sVtendernesse
p4403
F1
sVloss
p4404
F16
sVnecessary
p4405
F5
sVlost
p4406
F23
sVfernando
p4407
F1
sVriddle
p4408
F2
sVlose
p4409
F3
sVhero's
p4410
F1
sVshed
p4411
F1
sVsleight
p4412
F1
sVproofe
p4413
F1
sVshew
p4414
F6
sVfrancisco
p4415
F1
sVhome
p4416
F6
sVferraresse
p4417
F1
sVbefore,
p4418
F8
sVmadam,
p4419
F21
sVbroad
p4420
F1
sVmadam!
p4421
F2
sVrode,
p4422
F1
sVbeldams
p4423
F1
sVdemonstrated
p4424
F2
sVhinder
p4425
F5
sVblacks,
p4426
F1
sVreaching
p4427
F1
sVshe,
p4428
F51
sVcivility,
p4429
F2
sVshe)
p4430
F7
sVwilde
p4431
F1
sVshe?
p4432
F1
sVcivility;
p4433
F1
sVshe:
p4434
F1
sVshe;
p4435
F1
sVdiscovered,
p4436
F3
sVsinister
p4437
F1
sVcoasts,
p4438
F1
sVin.
p4439
F1
sVbeigh
p4440
F6
sVtongue
p4441
F2
sVcoasts;
p4442
F1
sVproceed;
p4443
F1
sVequally
p4444
F4
sVcourt,
p4445
F15
sVoportunity
p4446
F1
sVsandy
p4447
F1
sVtimes,
p4448
F1
sVincountred
p4449
F1
sVcowardize
p4450
F1
sVmomus's,
p4451
F1
sVendeavours
p4452
F3
sVrejoice
p4453
F1
sVimpatience
p4454
F1
sVrobes,
p4455
F1
sVinconstancy
p4456
F2
sVimperial
p4457
F2
sVforrest,
p4458
F1
sVhercules.
p4459
F1
sVeffects:
p4460
F1
sVclear,
p4461
F1
sVhazardous
p4462
F2
sVgeneralship
p4463
F1
sVfountains
p4464
F2
sVdresses,
p4465
F1
sVpoorness
p4466
F1
sVendeavour;
p4467
F1
sVequall,
p4468
F1
sVdiscourst,
p4469
F1
sVear
p4470
F1
sVhe
p4471
F718
sVembassie
p4472
F1
sVoportunity.
p4473
F1
sVships,
p4474
F2
sVeyes?
p4475
F1
sVinne.
p4476
F1
sVgrieve
p4477
F1
sVdelusion.
p4478
F1
sVspinola's
p4479
F6
sVcruel
p4480
F10
sVlimit
p4481
F1
sVdelights
p4482
F1
sVheiress
p4483
F2
sVeyes.
p4484
F1
sVeyes,
p4485
F5
sVdisplay
p4486
F1
sVsignet
p4487
F2
sVfriend,
p4488
F40
sVbefell
p4489
F1
sVlasted
p4490
F2
sVresolved,
p4491
F2
sVfriend;
p4492
F3
sVrule
p4493
F1
sVresented
p4494
F1
sVdisburthen
p4495
F1
sVkissed
p4496
F4
sVebon
p4497
F1
sVoffensive
p4498
F2
sVdisasters
p4499
F1
sVonwards
p4500
F1
sVintercession)
p4501
F1
sVdisposing
p4502
F1
sVyours.
p4503
F2
sVyours,
p4504
F5
sVstar
p4505
F1
sVcontentedly.
p4506
F1
sVstay
p4507
F17
sVpotions,
p4508
F1
sVfriends
p4509
F18
sVappoint
p4510
F1
sVportion
p4511
F2
sVdetermination
p4512
F2
sVsecondly
p4513
F1
sVovercome.
p4514
F1
sVpardon
p4515
F7
sVbetter,
p4516
F2
sVdissolution
p4517
F1
sVreason,
p4518
F1
sVflorence;
p4519
F2
sVprotest
p4520
F4
sVrobbers,
p4521
F1
sVflorence,
p4522
F7
sVcaptain
p4523
F48
sV(which
p4524
F9
sVwas,)
p4525
F1
sVswoon,
p4526
F1
sVwhose
p4527
F56
sVup,
p4528
F5
sVredeemed,
p4529
F1
sVpardon.
p4530
F2
sVpardon,
p4531
F3
sVcontained
p4532
F2
sVpresents
p4533
F2
sVskill.
p4534
F1
sVdukes
p4535
F18
sVsorry
p4536
F4
sVsway
p4537
F3
sVmournful
p4538
F1
sVotherwise,
p4539
F1
sVrescue
p4540
F5
sVglorious,
p4541
F1
sVbehind,
p4542
F2
sVaffairs,
p4543
F2
sVaffect
p4544
F1
sVvvent
p4545
F2
sVopportunity,
p4546
F1
sVduke)
p4547
F4
sVduke.
p4548
F2
sVduke,
p4549
F21
sVswoond
p4550
F1
sVgraced
p4551
F2
sVcompanies
p4552
F1
sVpresent.
p4553
F1
sVpresent,
p4554
F2
sVduke:
p4555
F2
sVduke;
p4556
F1
sVpension,
p4557
F1
sVgraces
p4558
F1
sVclothes
p4559
F2
sVfavoured
p4560
F1
sVlips,
p4561
F3
sVforce
p4562
F29
sVme,
p4563
F144
sVme.
p4564
F7
sVme)
p4565
F5
sVorifices
p4566
F1
sVcrave
p4567
F3
sVwindes
p4568
F1
sVbeauty)
p4569
F1
sVme?
p4570
F7
sVme;
p4571
F9
sVme:
p4572
F2
sVeven
p4573
F14
sVgold.
p4574
F1
sVgold,
p4575
F3
sVrest.
p4576
F2
sVrest,
p4577
F9
sVnew
p4578
F9
sVever
p4579
F51
sVstrongly,
p4580
F1
sVplighted,
p4581
F1
sVhelmets
p4582
F1
sVdistipated,
p4583
F1
sVnever
p4584
F53
sVdrew
p4585
F14
sVmet
p4586
F8
sVactive
p4587
F1
sVtaper
p4588
F1
sVdeaths,
p4589
F2
sVspouse:
p4590
F1
sVtainted:
p4591
F1
sVpiercing
p4592
F2
sVlight,
p4593
F3
sVbeauty:
p4594
F1
sVboot's
p4595
F1
sVpermit
p4596
F14
sVprison,
p4597
F1
sVlight;
p4598
F1
sVsuitable
p4599
F8
sVspouse,
p4600
F10
sVtainted,
p4601
F1
sVspouse.
p4602
F4
sVmusing
p4603
F1
sVscepter,
p4604
F1
sVwar;
p4605
F2
sVshelter,
p4606
F1
sVcounty
p4607
F1
sVwar,
p4608
F10
sVmoral
p4609
F1
sVguests
p4610
F2
sVunluckly
p4611
F1
sVtels
p4612
F1
sVarmy
p4613
F24
sVspaniards
p4614
F4
sVarms
p4615
F7
sVintreaty
p4616
F3
sVcall
p4617
F12
sVcalm
p4618
F1
sVintrust
p4619
F2
sVrecommend
p4620
F1
sVright,
p4621
F4
sVright.
p4622
F1
sVarme
p4623
F2
sVtell
p4624
F48
sVposting
p4625
F1
sVexpose
p4626
F2
sVwarr
p4627
F1
sVwars
p4628
F1
sVfrenzy
p4629
F2
sVsubsist,
p4630
F1
sVroom
p4631
F2
sVrights
p4632
F2
sVarm,
p4633
F11
sVbrigades,
p4634
F1
sVspaniard,
p4635
F1
sVdefer
p4636
F1
sVgive
p4637
F54
sVstrangness
p4638
F1
sVinvolve
p4639
F1
sVbondage;
p4640
F1
sVexercises,
p4641
F1
sVbrest
p4642
F1
sVadvancing
p4643
F3
sVdescend:
p4644
F1
sVperils,
p4645
F1
sVconstancy.
p4646
F2
sVspreading
p4647
F2
sVsate
p4648
F8
sVanswer
p4649
F23
sVsurvived,
p4650
F1
sVhere-withall
p4651
F1
sVperceiving,
p4652
F2
sVsaver;
p4653
F1
sVcuriosity
p4654
F3
sVpurchase
p4655
F1
sVattempt
p4656
F13
sVthird
p4657
F4
sVhatton's
p4658
F2
sVprudence,
p4659
F1
sVfault)
p4660
F1
sVfault,
p4661
F1
sVassuredly
p4662
F10
sVmaintain
p4663
F1
sVfrequent
p4664
F1
sVeast,
p4665
F1
sVdown;
p4666
F1
sVsuiter
p4667
F1
sVbefals
p4668
F1
sVbefall
p4669
F1
sVghastly
p4670
F2
sVdisaffection
p4671
F1
sVwickedness
p4672
F1
sVbefore
p4673
F111
sVthen,
p4674
F9
sVpersonal
p4675
F2
sVajax,
p4676
F1
sV,
F1
sVbetter
p4677
F22
sVpersist
p4678
F1
sVbisquet,
p4679
F1
sVweeks
p4680
F1
sVovercome
p4681
F4
sVvictimes
p4682
F1
sVweakness
p4683
F2
sVrufman
p4684
F1
sVgenovese
p4685
F2
sVhelplesse
p4686
F1
sVadvise
p4687
F1
sVjoynt
p4688
F3
sVmistrust
p4689
F1
sVembraces."
p4690
F1
sVjoyne
p4691
F1
sVmounts
p4692
F1
sVwent
p4693
F13
sVside
p4694
F12
sVmean
p4695
F18
sVafforded
p4696
F1
sVsun-like
p4697
F1
sVforgoe
p4698
F1
sVspanish
p4699
F7
sVskins
p4700
F2
sVused
p4701
F13
sVforgot
p4702
F2
sVassault.
p4703
F1
sVassault,
p4704
F3
sVcontend
p4705
F1
sVmerchants
p4706
F3
sVunbound
p4707
F1
sVinferiour
p4708
F2
sVopen
p4709
F10
sVplenty,
p4710
F1
sVdispleasant
p4711
F1
sVcontent
p4712
F12
sVmessage,
p4713
F1
sVreader
p4714
F1
sVturning
p4715
F14
sVskin;
p4716
F1
sVrevenge
p4717
F19
sVbestow
p4718
F1
sVstruggle
p4719
F1
sVabate
p4720
F3
sV(answered
p4721
F21
sVmistress
p4722
F6
sVsandys.
p4723
F1
sVrebels,
p4724
F1
sVbegan.
p4725
F4
sVobligations,
p4726
F2
sVchecqueens
p4727
F1
sVsteward
p4728
F2
sVjustnesse
p4729
F2
sVprodigal
p4730
F2
sVmoving
p4731
F1
sVinbred
p4732
F1
sVmerchant,
p4733
F1
sVenraged
p4734
F5
sVwronged
p4735
F5
sVfeatures
p4736
F1
sVhastned
p4737
F2
sVcomforted
p4738
F3
sVobliged;
p4739
F1
sVtravell,
p4740
F1
sVdebase
p4741
F1
sVacquaint
p4742
F13
sVjulietta,
p4743
F2
sVapproach,
p4744
F2
sVsolemnly
p4745
F3
sVlustre,
p4746
F1
sVvampt,
p4747
F1
sVsomewhat
p4748
F40
sVbragadochio,
p4749
F1
sVdurst
p4750
F16
sVfeature,
p4751
F1
sVpeculiar
p4752
F1
sVdistance
p4753
F4
sVdown's
p4754
F1
sVbody,
p4755
F3
sVface;
p4756
F1
sVravisher
p4757
F1
sVferaresses,
p4758
F1
sVmatter
p4759
F1
sVbody;
p4760
F2
sVdeserving
p4761
F7
sVwoodside,
p4762
F1
sVravished
p4763
F2
sVpalace
p4764
F6
sVquench
p4765
F2
sVmind
p4766
F6
sVmine
p4767
F13
sVseen
p4768
F11
sVseem
p4769
F15
sVseek
p4770
F8
sVmistresse
p4771
F2
sVreprieve
p4772
F1
sVdo)
p4773
F1
sVunrewarded:
p4774
F1
sVdo,
p4775
F16
sVblessed?
p4776
F1
sVthieves?
p4777
F1
sVpoint,
p4778
F2
sV(answerd
p4779
F2
sVthieves;
p4780
F1
sVunrewarded.
p4781
F1
sVdo;
p4782
F2
sVfitting
p4783
F2
sVblessed.
p4784
F1
sVdayes,
p4785
F3
sVtell,
p4786
F2
sVtye
p4787
F1
sVhide
p4788
F1
sVpromising,
p4789
F1
sVmaria
p4790
F8
sVfinshed
p4791
F1
sVassisting
p4792
F2
sVblasphemy.
p4793
F1
sValarm
p4794
F1
sVdoe
p4795
F3
sVgilberto's
p4796
F1
sVirrevocably
p4797
F1
sVbreathed
p4798
F1
sVconsumes
p4799
F1
sVdiscontent
p4800
F2
sVselected
p4801
F2
sVhunger
p4802
F4
sVretire
p4803
F6
sVtreachery;
p4804
F2
sVattempts
p4805
F2
sVsupplied
p4806
F1
sVtreachery,
p4807
F1
sVcapitulate
p4808
F1
sVperswade
p4809
F8
sVear.
p4810
F1
sVacquit
p4811
F1
sVdivinity
p4812
F1
sVmariana,
p4813
F18
sVdebts
p4814
F2
sVpyrates,
p4815
F1
sVfield.
p4816
F1
sV-souldiers
p4817
F1
sVfield,
p4818
F6
sVremained,
p4819
F1
sVconduct
p4820
F5
sVstop
p4821
F3
sVperceive
p4822
F12
sVcoast
p4823
F1
sVadministred
p4824
F1
sVcomply
p4825
F3
sVearl
p4826
F2
sVtraverses
p4827
F1
sVsailing
p4828
F1
sVbay
p4829
F1
sVbad
p4830
F3
sVterms;
p4831
F2
sVjudge,
p4832
F1
sVears
p4833
F2
sVbrothers,
p4834
F2
sVturks,
p4835
F1
sVunworthy
p4836
F7
sVbrothers)
p4837
F1
sVbeaten
p4838
F3
sVsailors,
p4839
F1
sVlaughing,
p4840
F1
sVbrothers;
p4841
F1
sVmeaness
p4842
F1
sVvow,
p4843
F2
sVperrils
p4844
F1
sVsubject
p4845
F5
sVvoyage
p4846
F2
sVsaid
p4847
F142
sVdiscourteous,
p4848
F1
sVsail
p4849
F4
sVthere's
p4850
F1
sVsorts
p4851
F2
sVvows
p4852
F2
sVignorance
p4853
F2
sVweary
p4854
F2
sVgentry
p4855
F3
sVchampions,
p4856
F1
sVvvell
p4857
F2
sVjudgement;
p4858
F1
sVfiall,
p4859
F4
sVsort,
p4860
F1
sVfalsly
p4861
F1
sVresounded
p4862
F1
sVagainst
p4863
F31
sVjoffer
p4864
F2
sVflow'd,
p4865
F1
sVappeared
p4866
F10
sVliving.
p4867
F1
sVinjoyned
p4868
F2
sVheight
p4869
F3
sVofferings
p4870
F1
sVinquisitive
p4871
F6
sVloaden
p4872
F1
sVdiscipline,
p4873
F1
sVloaded
p4874
F1
sVdurst,
p4875
F1
sVnow,
p4876
F6
sVproceeded
p4877
F7
sVmurder.
p4878
F1
sVmajor
p4879
F1
sVdislodged,
p4880
F1
sVthred
p4881
F1
sVthree
p4882
F28
sVerect
p4883
F1
sVparticulars
p4884
F1
sVcommission
p4885
F1
sVvillany
p4886
F1
sVinterest
p4887
F2
sVentered
p4888
F4
sVlorenso
p4889
F1
sVthrew
p4890
F4
sVless,
p4891
F1
sVdeeper
p4892
F1
sVprosperous
p4893
F7
sV(to
p4894
F3
sVsuppress
p4895
F1
sVsuccour.
p4896
F1
sVvillan.
p4897
F1
sVattacqued
p4898
F4
sVparticular:
p4899
F1
sVaffirm
p4900
F2
sVspender
p4901
F1
sVugly
p4902
F1
sVnear
p4903
F8
sVsuppose
p4904
F6
sVcargazoon
p4905
F1
sVask,
p4906
F1
sVmurders
p4907
F1
sVstudy
p4908
F3
sVlizari
p4909
F1
sVthought,
p4910
F1
sVseven
p4911
F5
sVover,
p4912
F4
sVconcomitant
p4913
F1
sVsoile
p4914
F1
sVis
p4915
F112
sVit
p4916
F366
sVdefeated
p4917
F1
sVindangering
p4918
F1
sVshame
p4919
F5
sVover:
p4920
F1
sVjest
p4921
F1
sVin
p4922
F790
sVscarf,
p4923
F1
sVaccepted,
p4924
F3
sVmeet,
p4925
F1
sVif
p4926
F171
sVgrown
p4927
F2
sVmake
p4928
F133
sVunfortunate
p4929
F6
sVcoach,
p4930
F4
sVi?
p4931
F1
sVcan,
p4932
F1
sVdelight
p4933
F7
sVundaunted
p4934
F1
sVscarfe
p4935
F1
sVjoviall
p4936
F1
sVi,
p4937
F46
sVi.
p4938
F4
sVjealous
p4939
F1
sVopportunity
p4940
F16
sVthoughts
p4941
F18
sVneptuno
p4942
F1
sVgenerall
p4943
F3
sVpressings
p4944
F1
sVpunishment
p4945
F2
sVdirectly
p4946
F5
sVseige,
p4947
F2
sVqualities
p4948
F4
sVvirile
p4949
F1
sVyours
p4950
F7
sVleft
p4951
F46
sVdream,
p4952
F1
sVfeet:
p4953
F2
sVjust
p4954
F36
sVrebellions
p4955
F1
sVmisery;
p4956
F1
sVprivy-
p4957
F1
sVfeet,
p4958
F3
sVfeet.
p4959
F2
sVdoubts,
p4960
F1
sVyes
p4961
F2
sVbonaventuro
p4962
F1
sVyet
p4963
F227
sVnote
p4964
F1
sVstray
p4965
F1
sVunaffronted,
p4966
F1
sVfairely
p4967
F1
sVtrojan,
p4968
F1
sVcharacter
p4969
F1
sVarrival,
p4970
F1
sVlong-lost
p4971
F1
sVdefray
p4972
F1
sVsave
p4973
F10
sVadress
p4974
F2
sVamazonian
p4975
F1
sVtremble,
p4976
F1
sVunjust,
p4977
F2
sVboasted
p4978
F1
sVsailors
p4979
F1
sVcoffin;
p4980
F1
sVsoveraigne
p4981
F2
sVrebellion,
p4982
F1
sVdestroy
p4983
F3
sVvanity
p4984
F1
sVbad,
p4985
F1
sVsnatcht
p4986
F1
sVjustice,
p4987
F3
sVperforming
p4988
F3
sVarrivall
p4989
F1
sVwatry
p4990
F1
sVjustice:
p4991
F1
sVcowardice
p4992
F1
sVdeal
p4993
F1
sVdeaf
p4994
F1
sVdead
p4995
F15
sVdear
p4996
F54
sVunfit
p4997
F1
sVstrangeness
p4998
F2
sVperswasions,
p4999
F3
sVhonors,
p5000
F1
sVbeget
p5001
F1
sVbold
p5002
F3
sVburn
p5003
F3
sVbafilisco's,
p5004
F1
sVtold,
p5005
F1
sVconceal
p5006
F4
sVbarbarians
p5007
F1
sVassault
p5008
F6
sVwhilest
p5009
F27
sVafternoon
p5010
F1
sVcommit
p5011
F2
sVshakespear,
p5012
F1
sVprinted
p5013
F1
sVjustiniano
p5014
F1
sVnestors
p5015
F1
sVflaminij
p5016
F1
sVformerly
p5017
F5
sVfor,
p5018
F13
sVeducation,
p5019
F1
sVlies
p5020
F5
sVspy,
p5021
F2
sVrefined
p5022
F1
sVstage,
p5023
F1
sVbounds,
p5024
F1
sVflying
p5025
F3
sVillustrious
p5026
F4
sVprepared,
p5027
F1
sVbound,
p5028
F1
sVvictorious
p5029
F7
sVcryed
p5030
F2
sVguides.
p5031
F1
sV(son
p5032
F1
sVcreation
p5033
F1
sVwholsom
p5034
F1
sVlanding
p5035
F1
sVfeminine
p5036
F2
sVmurderer;
p5037
F1
sVarbour
p5038
F2
sVsurrender
p5039
F3
sVassented
p5040
F10
sVcontinuance
p5041
F2
sVprotestant
p5042
F1
sVemboldened
p5043
F1
sVminotaure
p5044
F1
sVbounds
p5045
F2
sVwhil'st
p5046
F1
sVtotter,
p5047
F1
sVperisht
p5048
F1
sVtemper
p5049
F1
sVdiscovery,
p5050
F1
sVdie?
p5051
F1
sVbusying
p5052
F1
sVdie,
p5053
F2
sVinamoured
p5054
F1
sVfloating
p5055
F1
sVdukes,
p5056
F6
sVdiscretion.
p5057
F1
sVmistaken:
p5058
F1
sVsherborn.
p5059
F1
sVsherborn,
p5060
F1
sVtossing
p5061
F1
sVsteed,
p5062
F4
sVmagnificence,
p5063
F1
sVmistaken,
p5064
F1
sVhabitation,
p5065
F1
sVwidow,
p5066
F1
sVsavage
p5067
F1
sVfelt
p5068
F5
sVcover,
p5069
F1
sVfell
p5070
F23
sVmagnificence
p5071
F1
sVmilk-white
p5072
F1
sVdied
p5073
F5
sVparcell
p5074
F2
sVdecayed,
p5075
F1
sVsufficient,
p5076
F1
sVassume
p5077
F1
sVannuity
p5078
F1
sVblushing
p5079
F1
sVdaily
p5080
F2
sVgraecian
p5081
F1
sVsteeds
p5082
F2
sVgenerall,
p5083
F4
sVgenerall)
p5084
F1
sVrestored
p5085
F1
sVfear'd
p5086
F1
sVinestimable;
p5087
F1
sVextasied
p5088
F1
sVjarrs
p5089
F1
sVsouls
p5090
F5
sVinvent
p5091
F3
sVsorrow;
p5092
F1
sVmile
p5093
F2
sVskil
p5094
F1
sVmurmurs
p5095
F1
sVvvant
p5096
F1
sVsoule
p5097
F4
sVcontinued)
p5098
F1
sVrecite;
p5099
F1
sVdepend
p5100
F1
sVfancies
p5101
F1
sVfather
p5102
F20
sVtorne
p5103
F1
sVtravel,
p5104
F1
sVanswered
p5105
F31
sVmarks
p5106
F1
sVsuffered
p5107
F2
sVfancied
p5108
F1
sVme
p5109
F412
sVblazoned
p5110
F1
sVsoul;
p5111
F2
sVprime!
p5112
F1
sVrhodomontado
p5113
F2
sVstrangers,
p5114
F4
sVsoul,
p5115
F13
sVforth:
p5116
F1
sVpious
p5117
F3
sVtestimony.
p5118
F1
sVbanished
p5119
F2
sVdid
p5120
F99
sVdie
p5121
F7
sVtravels
p5122
F1
sVdisorder,
p5123
F1
sVpraise,
p5124
F2
sVgentlewoman
p5125
F2
sVround
p5126
F2
sVunexpected
p5127
F3
sVdecks,
p5128
F1
sVfearing
p5129
F9
sVelse,
p5130
F1
sVdealing
p5131
F1
sVelse.
p5132
F1
sVwherefore
p5133
F3
sVhazzard
p5134
F1
sVassaulted,
p5135
F1
sVravenous
p5136
F1
sVrunning,
p5137
F3
sVsordid
p5138
F1
sVbehinde
p5139
F1
sVsociety;
p5140
F1
sVcalumnies
p5141
F1
sVfavour
p5142
F5
sVhee'd
p5143
F1
sVsuspect
p5144
F2
sVinsolencies
p5145
F1
sVfilled
p5146
F1
sVproclaiming
p5147
F1
sVdisolate
p5148
F1
sVguardian
p5149
F1
sVplymouth,
p5150
F2
sVfrench
p5151
F4
sVdesired.
p5152
F1
sVthither,
p5153
F6
sVearthquake
p5154
F1
sVwait
p5155
F4
sVbox
p5156
F1
sVboy
p5157
F2
sVstormy
p5158
F1
sVbow
p5159
F2
sVhere,
p5160
F7
sVperjuries,
p5161
F1
sVguilty;
p5162
F1
sVattended,
p5163
F1
sVingarrisoned
p5164
F1
sVguilty)
p5165
F1
sVwithal
p5166
F11
sVfeild
p5167
F1
sVwealth
p5168
F1
sVsake
p5169
F18
sVvisit
p5170
F11
sVdecease,
p5171
F1
sVblack
p5172
F12
sVlessened
p5173
F1
sVrepast
p5174
F2
sVlabyrinth
p5175
F1
sVacceptable
p5176
F2
sVrigid
p5177
F1
sVpretences
p5178
F1
sVambrogio
p5179
F1
sVfly
p5180
F7
sVdeformed
p5181
F2
sVsoul
p5182
F15
sVlieutenant,
p5183
F3
sVgrowing
p5184
F1
sVmaking
p5185
F14
sVarrive
p5186
F6
sVclaim
p5187
F1
sVmoresco
p5188
F3
sVprethee
p5189
F1
sVinconveniencies
p5190
F1
sVagent
p5191
F1
sVculpable)
p5192
F1
sVjustness
p5193
F1
sVdukedome
p5194
F2
sVafrica;
p5195
F1
sVcabbin;
p5196
F1
sVfansied
p5197
F1
sVcabbin,
p5198
F1
sVtill
p5199
F60
sVcabbin)
p5200
F1
sVpure
p5201
F3
sVswore
p5202
F2
sVsworn
p5203
F2
sVstaying
p5204
F1
sVswayed
p5205
F1
sVdukedom;
p5206
F1
sVdukedom:
p5207
F1
sVmay
p5208
F55
sVhum'd
p5209
F1
sVfed
p5210
F2
sVdukedom,
p5211
F1
sVlord!
p5212
F1
sVruffmans
p5213
F2
sVacknowledge,
p5214
F1
sVdestructive
p5215
F2
sVgrow
p5216
F1
sVlord,
p5217
F5
sVman
p5218
F11
sVrelinquish
p5219
F2
sVcatif-conscience
p5220
F1
sVneck
p5221
F2
sVinhabitants
p5222
F2
sVdeceive
p5223
F1
sVjudgment-seat,
p5224
F1
sVinfallible
p5225
F2
sVapprehensions)
p5226
F1
sVtalk
p5227
F5
sVannexion
p5228
F1
sVproffer;
p5229
F1
sVcountenances,
p5230
F1
sVwishing
p5231
F1
sVcruel,
p5232
F1
sVpitch
p5233
F1
sVargued
p5234
F1
sVfor;
p5235
F1
sVchiefest
p5236
F2
sVapollo's
p5237
F1
sVmaid
p5238
F19
sVpolicy
p5239
F3
sVours
p5240
F1
sVencompassed
p5241
F2
sVwisely,
p5242
F1
sVcaptivated
p5243
F3
sVsooner
p5244
F28
sVcruell
p5245
F4
sVviewd
p5246
F1
sVpossest
p5247
F3
sVkilled
p5248
F1
sVpossess
p5249
F1
sV(noble
p5250
F3
sVriviera,
p5251
F3
sVcharging
p5252
F2
sVcareless
p5253
F1
sVrock
p5254
F2
sVgot,
p5255
F1
sVtreacherous
p5256
F10
sVthirst,
p5257
F1
sVrichly
p5258
F3
sVtherefore,
p5259
F2
sVpatroness,
p5260
F2
sVrandevouze,
p5261
F1
sVliving
p5262
F6
sVneerer,
p5263
F1
sVhemmed
p5264
F1
sVparted,
p5265
F3
sVrenownd
p5266
F1
sVmiles
p5267
F6
sVacts,
p5268
F1
sVassurance
p5269
F5
sVdammage
p5270
F1
sVcaparisoned,
p5271
F1
sVspies
p5272
F1
sVchastity.
p5273
F1
sVchastity,
p5274
F4
sVbayes
p5275
F2
sVcontracts,
p5276
F1
sVadvance
p5277
F4
sVlanguage
p5278
F5
sVvirtues:
p5279
F1
sVvirtues;
p5280
F1
sVthing
p5281
F21
sVproffered
p5282
F3
sVthine
p5283
F4
sVvirtues,
p5284
F2
sVthink
p5285
F54
sVwaited
p5286
F4
sVfirst
p5287
F96
sVbe'est,
p5288
F1
sVsent,
p5289
F2
sVeye;
p5290
F1
sVscandalized
p5291
F1
sVbut,
p5292
F6
sVlong
p5293
F31
sVcarry
p5294
F8
sVsheathed
p5295
F2
sVfourscore
p5296
F1
sVchalked
p5297
F1
sVdischarged
p5298
F1
sVlittle
p5299
F22
sVplaine
p5300
F1
sVslept
p5301
F1
sVplains
p5302
F5
sVfiery
p5303
F2
sVdaunt
p5304
F1
sVspeaking
p5305
F3
sVcaresses
p5306
F1
sVbloods.
p5307
F1
sVeyes
p5308
F21
sVsound,
p5309
F2
sVannum;
p5310
F1
sVmurther,
p5311
F2
sVdischarge.
p5312
F1
sVundoubtedly
p5313
F1
sVannum.
p5314
F1
sVdukedom
p5315
F1
sV12
p5316
F1
sVwert
p5317
F3
sVplain,
p5318
F1
sVresolvedly
p5319
F1
sVimmortal.
p5320
F1
sVventure
p5321
F3
sVwere
p5322
F244
sVventuro
p5323
F3
sVcommends
p5324
F1
sVqueen,
p5325
F6
sVgathering
p5326
F2
sVtantalize
p5327
F1
sVspent,
p5328
F2
sVqueen;
p5329
F1
sVcoming,
p5330
F4
sVcoming.
p5331
F1
sVhenceforth
p5332
F1
sVendangered
p5333
F1
sVperformance
p5334
F2
sVmutiny,
p5335
F1
sVflattered
p5336
F2
sVpain
p5337
F1
sVpaid
p5338
F2
sVblackest
p5339
F2
sVvoice,
p5340
F1
sVbrief,
p5341
F1
sVentreaty
p5342
F1
sVpair
p5343
F2
sVcoveted
p5344
F1
sVqueens,
p5345
F1
sVespecially
p5346
F12
sValone;
p5347
F2
sVloyalty;
p5348
F1
sVdeportment
p5349
F1
sVvicious,
p5350
F1
sValone,
p5351
F1
sVpatron,
p5352
F2
sVshot
p5353
F1
sVshow
p5354
F16
sVbegged
p5355
F1
sVdenial;
p5356
F1
sVcontract,
p5357
F3
sVpropicious
p5358
F1
sVslaughter;
p5359
F1
sVoffice
p5360
F1
sVdesired,
p5361
F3
sVcarara
p5362
F1
sVtreasure
p5363
F2
sVstorms
p5364
F4
sVbehind
p5365
F2
sVdesired;
p5366
F1
sVlorenzo
p5367
F6
sVfleet,
p5368
F11
sVdispise
p5369
F1
sVstorme
p5370
F1
sVdishonourable
p5371
F1
sVget
p5372
F6
sVcontracts
p5373
F1
sV(repli'd
p5374
F2
sVconjunction
p5375
F2
sVstorm;
p5376
F1
sVcordials
p5377
F1
sVcommunicates
p5378
F1
sVitention
p5379
F1
sVyield
p5380
F10
sVmorning
p5381
F20
sVstorm,
p5382
F2
sVforsake
p5383
F4
sVdonati,
p5384
F4
sVcommunicated
p5385
F1
sVsilently
p5386
F2
sVdeclared
p5387
F3
sVpriz'd
p5388
F1
sVseas
p5389
F7
sVj.
p5390
F1
sV(like
p5391
F1
sVwonder
p5392
F17
sVsatisfying
p5393
F1
sVguardian,
p5394
F1
sVdeparture.
p5395
F1
sVmoanes
p5396
F1
sVornament
p5397
F1
sVmayor
p5398
F1
sVenough
p5399
F10
sVweer'e
p5400
F1
sVtrade,
p5401
F1
sVfeaver
p5402
F1
sVreading
p5403
F3
sVsignieur
p5404
F1
sVsea;
p5405
F1
sVkilling
p5406
F1
sVstatelyest
p5407
F1
sVcountenance
p5408
F14
sVsea.
p5409
F3
sVsea,
p5410
F15
sVpetruchio,
p5411
F6
sVpaines
p5412
F1
sVdiamond,
p5413
F1
sVdedicate
p5414
F1
sVrepine.
p5415
F1
sVsumptiousness
p5416
F1
sVsums,
p5417
F1
sVapplause;
p5418
F1
sVamong
p5419
F7
sVdespaired
p5420
F1
sVinraged
p5421
F1
sVmaintained
p5422
F7
sVstretched
p5423
F1
sVcontemplation,
p5424
F1
sVcancel
p5425
F1
sVimportunate
p5426
F1
sVvvrite,
p5427
F1
sVconsidering
p5428
F3
sVsensible
p5429
F18
sVunusual
p5430
F3
sVcapable
p5431
F2
sVrepine
p5432
F3
sVmark
p5433
F1
sVvillaines
p5434
F1
sVborders
p5435
F1
sVdivine,
p5436
F2
sVdivine.
p5437
F1
sVoffered
p5438
F7
sVdespaire.
p5439
F1
sVdangerous
p5440
F3
sVvvill
p5441
F7
sVvenue,
p5442
F1
sValledging
p5443
F1
sVgrant;
p5444
F1
sVtruce-breaking
p5445
F1
sVthose
p5446
F163
sVsound
p5447
F8
sVemployment,
p5448
F3
sVadoration,
p5449
F1
sVpromising
p5450
F3
sVcancelled
p5451
F1
sVawakened
p5452
F1
sVfalsified
p5453
F1
sVart,
p5454
F3
sVdametas
p5455
F1
sVendowed
p5456
F2
sVsincere
p5457
F1
sVswound
p5458
F1
sVaccording
p5459
F20
sVmiddle
p5460
F1
sVsudden
p5461
F4
sV(who
p5462
F5
sVharsh
p5463
F3
sVpay
p5464
F5
sVs
F1
sVsame
p5465
F25
sVspeech
p5466
F2
sVarguments
p5467
F8
sVtorments.
p5468
F1
sVstepped
p5469
F2
sVtorments,
p5470
F1
sVwaves:
p5471
F1
sVassist
p5472
F16
sVinventions,
p5473
F1
sVrunning
p5474
F7
sVscorned
p5475
F2
sVbeen,
p5476
F1
sVconference,
p5477
F1
sVtotally
p5478
F2
sVbreak
p5479
F8
sVheir:
p5480
F1
sVacquaintance,
p5481
F1
sVroughly
p5482
F1
sV(answerred
p5483
F1
sVabsence,
p5484
F5
sVamazed
p5485
F12
sVgates
p5486
F3
sVpeace
p5487
F5
sVnights,
p5488
F1
sVriding,
p5489
F1
sVmoney
p5490
F5
sVdiscoursing
p5491
F1
sVbacks
p5492
F1
sVfamiles,
p5493
F1
sVvvho
p5494
F4
sVbelow,
p5495
F1
sVasleep,
p5496
F1
sVcountenance:
p5497
F1
sVforgo
p5498
F1
sVastonishment
p5499
F2
sVthemselves.
p5500
F1
sVwife.
p5501
F1
sVfound;
p5502
F1
sVappaled
p5503
F1
sVcaparison
p5504
F1
sVsight,
p5505
F4
sV(he
p5506
F1
sVill.
p5507
F1
sVfound,
p5508
F2
sVgranted,
p5509
F4
sVassunder
p5510
F1
sVslain
p5511
F8
sVlightning
p5512
F2
sVchamber
p5513
F3
sVaudience
p5514
F1
sVeither
p5515
F47
sVbewitched
p5516
F1
sVmerciful.
p5517
F1
sVserved
p5518
F1
sVinsolence,
p5519
F1
sVpassionate
p5520
F2
sVinterest,
p5521
F2
sVafflict
p5522
F3
sVascend
p5523
F1
sVsecond)
p5524
F1
sVbroke,
p5525
F2
sVsecond,
p5526
F1
sVlondon,
p5527
F1
sVtheirs.
p5528
F1
sVtheirs,
p5529
F4
sVconfirm
p5530
F3
sValonzo
p5531
F8
sVdumps,
p5532
F1
sVdeclension
p5533
F1
sVhoures,
p5534
F1
sVarts
p5535
F2
sVmute
p5536
F1
sVbroken
p5537
F6
sVdespicable
p5538
F1
sVvisits
p5539
F2
sVdrums
p5540
F4
sVpreserver,
p5541
F2
sVjew,
p5542
F1
sVthicker,
p5543
F1
sVviolence
p5544
F3
sVmeaning
p5545
F1
sVpractical
p5546
F1
sVvirtuous;
p5547
F1
sVbesse,
p5548
F1
sVmocks,
p5549
F1
sVout.
p5550
F3
sVlands
p5551
F2
sVachilles's,
p5552
F1
sVbountiful
p5553
F1
sVseiz'd
p5554
F1
sVlodging,
p5555
F2
sVstrip
p5556
F1
sVearly
p5557
F1
sVmorning,
p5558
F5
sVrotterdam,
p5559
F1
sVdistracted
p5560
F2
sVfates
p5561
F11
sVesculapius
p5562
F1
sVbreast-plate
p5563
F1
sVimagination,
p5564
F1
sVmerandola,
p5565
F1
sVgods!
p5566
F4
sVlodgings
p5567
F1
sVclothes,
p5568
F1
sVvertuous
p5569
F8
sVgods,
p5570
F3
sVshroud
p5571
F1
sVgore
p5572
F1
sVwhite,
p5573
F1
sVoverlong
p5574
F1
sVland,
p5575
F4
sVwounded,
p5576
F2
sVtreacherous?
p5577
F1
sVunspotted,
p5578
F1
sVfate,
p5579
F7
sVfate;
p5580
F1
sVfaces,
p5581
F1
sVaffection
p5582
F14
sVcelestial
p5583
F1
sVamity.
p5584
F2
sVdeep
p5585
F4
sVgeneral
p5586
F14
sVimagination
p5587
F2
sVexamine
p5588
F1
sVdeem
p5589
F1
sVrevengfull
p5590
F1
sVplanets
p5591
F1
sVprincess.
p5592
F1
sVdeed
p5593
F1
sVtedious
p5594
F11
sVagain
p5595
F54
sVpensive
p5596
F1
sVretiring
p5597
F2
sVdepth
p5598
F2
sVrepent
p5599
F2
sVfield
p5600
F4
sVfear,
p5601
F1
sVembraces.
p5602
F1
sVembraces,
p5603
F2
sVboon,
p5604
F3
sVshelter
p5605
F2
sVdisgust,
p5606
F1
sVprostrating
p5607
F1
sVimpenitrable
p5608
F1
sVimportant
p5609
F1
sVtroyas
p5610
F1
sVresembled
p5611
F3
sVremote
p5612
F1
sVfraught
p5613
F2
sVcontinued;
p5614
F1
sVinconstant?
p5615
F1
sVassureing
p5616
F1
sVtradegies,
p5617
F1
sVlacivious
p5618
F2
sVoversight,
p5619
F1
sVinconstant,
p5620
F1
sVamendment.
p5621
F1
sVsilent,
p5622
F2
sVforget
p5623
F7
sVvile
p5624
F1
sVroman
p5625
F1
sVbower;
p5626
F1
sVbravest
p5627
F1
sVarguments,
p5628
F2
sVexpressions
p5629
F5
sVbosome
p5630
F1
sVchildren
p5631
F1
sVproferred
p5632
F1
sVpreserver
p5633
F1
sVprefixed
p5634
F1
sVlaid
p5635
F10
sVformer
p5636
F13
sVterritory,
p5637
F1
sV'twill
p5638
F4
sVpreserved
p5639
F7
sVmother,
p5640
F1
sV(again
p5641
F1
sVenjoying
p5642
F1
sVhideous
p5643
F2
sVreturning
p5644
F6
sVmurtherers;
p5645
F1
sVtigers,
p5646
F1
sVrules,
p5647
F1
sVheavenly
p5648
F1
sVbosom,
p5649
F1
sVsun.
p5650
F1
sVfaln
p5651
F1
sVsun,
p5652
F4
sVfall
p5653
F17
sVcalisto,
p5654
F1
sVdifference
p5655
F3
sVspanjards
p5656
F1
sVmothers
p5657
F3
sVpreserve;
p5658
F1
sVincreasing,
p5659
F1
sValong,
p5660
F2
sVmistaking
p5661
F1
sVshades.
p5662
F1
sVwithheld
p5663
F3
sVsolicitations
p5664
F1
sVmerchant-man
p5665
F1
sVireful
p5666
F1
sVquiet,
p5667
F1
sVlightning,
p5668
F1
sVdisputed
p5669
F1
sVaffable
p5670
F1
sVown,
p5671
F10
sVmilk,
p5672
F1
sVdefence
p5673
F1
sVstood
p5674
F21
sVyoungest,
p5675
F1
sVrepining
p5676
F1
sVeverlasting
p5677
F2
sVcreature.
p5678
F1
sVbasely
p5679
F2
sVsolemnization
p5680
F1
sVdispleased,
p5681
F1
sVfavourable
p5682
F3
sVcrowns,
p5683
F3
sVaffectionately
p5684
F1
sVown.
p5685
F1
sVconte
p5686
F1
sVsearch
p5687
F8
sVmedici
p5688
F1
sVprostrate,
p5689
F1
sVfatted
p5690
F1
sVmisery
p5691
F8
sVnarrow
p5692
F1
sVincorrupted
p5693
F1
sVapprehension)
p5694
F1
sVtottered
p5695
F1
sVclapping
p5696
F2
sVarmes
p5697
F3
sVmerry,
p5698
F1
sVbright,
p5699
F1
sVsaylors
p5700
F1
sVimagined,
p5701
F1
sVarmed
p5702
F5
sVreadily
p5703
F16
sVlady,
p5704
F12
sVlady.
p5705
F2
sVeye
p5706
F7
sVdistinct
p5707
F1
sVmisery?
p5708
F1
sVtwo
p5709
F129
sVguard,
p5710
F6
sVbellona
p5711
F1
sVchilde-bed,
p5712
F1
sVlady;
p5713
F1
sVmisery,
p5714
F4
sVtorre
p5715
F1
sVpardarisme.
p5716
F1
sVengaged
p5717
F5
sVcontrary,
p5718
F1
sVlanded
p5719
F1
sVfalmouth,
p5720
F2
sVbenumedness
p5721
F1
sVpleases:
p5722
F1
sVparticular
p5723
F6
sVsleeping
p5724
F1
sVtown
p5725
F12
sVspencer's
p5726
F3
sVnone
p5727
F20
sVhour
p5728
F1
sVcorrespondent,
p5729
F1
sVcreated
p5730
F2
sVnothing;
p5731
F1
sVremain
p5732
F1
sVpressing
p5733
F1
sVdel
p5734
F2
sVnothing,
p5735
F2
sVabroad,
p5736
F1
sVtroubled,
p5737
F1
sV(attended
p5738
F1
sVcarreir,
p5739
F2
sVhours;
p5740
F1
sVbravely
p5741
F3
sVshare
p5742
F1
sVinstructions;
p5743
F1
sVnumbers
p5744
F7
sVpurchased
p5745
F1
sVsharp
p5746
F4
sVnarrowly
p5747
F1
sVnotwithstanding,
p5748
F1
sVneeds
p5749
F8
sVapparel.
p5750
F1
sVneedy
p5751
F1
sVcomfort
p5752
F10
sV(mighty
p5753
F2
sVsacred
p5754
F1
sVshun'd
p5755
F1
sVstir
p5756
F1
sVtyed
p5757
F1
sVchaptain
p5758
F1
sVcarreire
p5759
F1
sVadvice
p5760
F13
sVpluckst
p5761
F1
sVgenius,
p5762
F3
sVdeportment,
p5763
F1
sVblood
p5764
F18
sVcoming
p5765
F18
sVcounsell,
p5766
F1
sVthou,
p5767
F1
sVdeserted
p5768
F6
sVhatton
p5769
F2
sVusurped
p5770
F1
sVcollours,
p5771
F1
sVpleasure
p5772
F2
sVthat's
p5773
F1
sVinfant
p5774
F1
sVdisplease
p5775
F2
sVcivill
p5776
F1
sVtelling
p5777
F21
sVacquainted
p5778
F6
sVthrough
p5779
F22
sVheirs
p5780
F1
sVsuffer
p5781
F7
sVdayly
p5782
F5
sVdestructively
p5783
F1
sVport,
p5784
F1
sVenglishman,
p5785
F2
sVintercession
p5786
F2
sVpossessions
p5787
F1
sVhabit)
p5788
F1
sVhabit,
p5789
F4
sVbosom
p5790
F2
sVlate
p5791
F3
sVenglishman;
p5792
F1
sVcustomes,
p5793
F1
sVresentments
p5794
F1
sVjostled
p5795
F2
sVgood
p5796
F46
sVseeking
p5797
F1
sVserenad,
p5798
F1
sVsmothering
p5799
F1
sVcivil,
p5800
F1
sVobeyed
p5801
F2
sVwalls
p5802
F1
sVladies;
p5803
F1
sVsavoy,
p5804
F1
sVhearing
p5805
F8
sVeasily
p5806
F35
sVashes
p5807
F3
sVtoken
p5808
F4
sVexiled
p5809
F1
sVpen,
p5810
F1
sVexquisite
p5811
F1
sVarmes,
p5812
F5
sVlistned
p5813
F3
sVhouse
p5814
F8
sVhard
p5815
F7
sVidea
p5816
F1
sVdeeds,
p5817
F2
sVfurtherance
p5818
F1
sVremember,
p5819
F2
sVorient
p5820
F1
sVlovers
p5821
F8
sVomit,
p5822
F1
sVsharpest
p5823
F1
sVdespicable;
p5824
F1
sVbenefit.
p5825
F1
sVcircumstance
p5826
F1
sVobtain,
p5827
F2
sVpleasant
p5828
F9
sVextraordinary
p5829
F4
sVterm
p5830
F1
sVbeginning
p5831
F2
sVprophet
p5832
F2
sVomit
p5833
F2
sVconducted
p5834
F3
sVtiresom,
p5835
F1
sVlessened,
p5836
F1
sVlover,
p5837
F1
sVlover.
p5838
F1
sVbeen.
p5839
F1
sVindebted
p5840
F3
sVembraces
p5841
F6
sVtrembling,
p5842
F2
sVembraced
p5843
F2
sVmarandola,
p5844
F1
sVphysiognomy,
p5845
F1
sVmagnamious
p5846
F1
sVhatches,
p5847
F1
sVunacquainted
p5848
F1
sVsenses,
p5849
F3
sVtwenty
p5850
F4
sVfamily,
p5851
F8
sVleast
p5852
F51
sVsenses;
p5853
F1
sVmantova.
p5854
F1
sVhorizon,
p5855
F1
sVconspirators
p5856
F1
sVfamily;
p5857
F2
sVadamant,
p5858
F1
sVneglect,
p5859
F2
sVmustapha,
p5860
F1
sVpart
p5861
F34
sVkinsman,
p5862
F1
sVfavorable
p5863
F3
sV(whilest
p5864
F2
sVobstructed
p5865
F2
sVbelieve
p5866
F29
sVtransmugrated
p5867
F1
sVyouth
p5868
F5
sVcontrary
p5869
F2
sVsupposed
p5870
F14
sVdeclare
p5871
F4
sVdisburdner
p5872
F1
sVilustrious
p5873
F1
sVambitiously
p5874
F1
sVservice.
p5875
F5
sVcurtains
p5876
F1
sVconfirme
p5877
F1
sVservice;
p5878
F1
sVnotwithstanding
p5879
F6
sVmurder
p5880
F1
sVaged
p5881
F1
sVorders
p5882
F4
sVinhabitants;
p5883
F2
sVblanck
p5884
F1
sVhomer's
p5885
F1
sVprowess,
p5886
F1
sVdisdain,
p5887
F1
sVschiarra
p5888
F31
sVschiarri
p5889
F1
sVserene
p5890
F1
sVconfirm,
p5891
F1
sVmost
p5892
F82
sVage,
p5893
F5
sVservices
p5894
F5
sVnecessities,
p5895
F1
sVinterceded
p5896
F1
sVprowesse
p5897
F1
sVfeasting
p5898
F1
sVmediation
p5899
F1
sVfaithless
p5900
F1
sVsicknesse)
p5901
F1
sVnobility
p5902
F5
sVintreated
p5903
F2
sVparticularly
p5904
F1
sVobligations
p5905
F4
sVscattered
p5906
F6
sVrelation
p5907
F23
sVcarefully
p5908
F1
sVfind
p5909
F27
sVpiedro
p5910
F1
sVgiant
p5911
F1
sVruin
p5912
F1
sVdistributed
p5913
F1
sVunhappy
p5914
F7
sVfainting,
p5915
F1
sVmarquesses
p5916
F1
sV(things
p5917
F1
sVbegone
p5918
F1
sVdust
p5919
F1
sVbattel
p5920
F4
sVexpress
p5921
F1
sVblush,
p5922
F1
sVcourage
p5923
F10
sVbatter
p5924
F2
sVgovernour,
p5925
F1
sVnobles,
p5926
F4
sVforset,
p5927
F1
sVresolve
p5928
F5
sVmarquesse,
p5929
F1
sVtempest,
p5930
F1
sVremove
p5931
F6
sV(i
p5932
F1
sVcommon
p5933
F5
sVaffrighted,
p5934
F1
sVdevils
p5935
F2
sVintemperate
p5936
F1
sVmelancholy
p5937
F6
sVtended
p5938
F1
sVvvhom
p5939
F5
sVmanly
p5940
F3
sVtender
p5941
F7
sVfeared
p5942
F6
sVdegree
p5943
F2
sVuncivill
p5944
F1
sVplease
p5945
F8
sVbriarius's
p5946
F1
sVrepaire
p5947
F1
sVrosie
p5948
F1
sVprescribe
p5949
F1
sVinvincible,
p5950
F1
sVmarriners
p5951
F2
sVfeare,
p5952
F1
sVencouraged,
p5953
F1
sVgraves;
p5954
F1
sVtyrannous
p5955
F1
sVjourneyed
p5956
F1
sVsoever,
p5957
F2
sVsons,
p5958
F1
sVconsume
p5959
F1
sVprice,
p5960
F1
sVprosecuting
p5961
F1
sVsmother
p5962
F2
sVcaptains,
p5963
F1
sVthroughout
p5964
F1
sVvan,
p5965
F1
sVpatiently
p5966
F1
sVbecom
p5967
F1
sVweaving
p5968
F1
sVraise
p5969
F5
sVruffman
p5970
F6
sVsmote
p5971
F1
sVdevouring
p5972
F2
sVsummons;
p5973
F1
sVfaithfully
p5974
F2
sVireland
p5975
F1
sVdeferre,
p5976
F1
sVmeeting
p5977
F4
sVrecovered,
p5978
F3
sVslipt
p5979
F1
sV(whilst
p5980
F1
sVinstant,
p5981
F1
sVfelucca
p5982
F1
sVbeasts,
p5983
F2
sVunlookt
p5984
F1
sVcorner
p5985
F2
sVpierce
p5986
F1
sVtalk't
p5987
F1
sVrival,
p5988
F1
sVenjoyned
p5989
F2
sVful
p5990
F1
sVcompleat,
p5991
F2
sVfurther,
p5992
F3
sVlull
p5993
F1
sVviolently
p5994
F3
sVdispair,
p5995
F1
sVhusband.
p5996
F1
sVhusband,
p5997
F3
sVrocks,
p5998
F2
sVrocks.
p5999
F1
sVperverseness
p6000
F1
sVslavery,
p6001
F1
sVitaly
p6002
F2
sVjewells,
p6003
F1
sVdishonor
p6004
F2
sVwherein
p6005
F8
sVsome,
p6006
F3
sVdiscourse
p6007
F9
sVmessenger,)
p6008
F1
sVfurie
p6009
F1
sVflag:
p6010
F1
sVhow,
p6011
F1
sVwindmill
p6012
F1
sVunassaulted,
p6013
F1
sVvictorious,
p6014
F1
sVyesterday
p6015
F1
sVfoster-father,
p6016
F1
sVsolicited
p6017
F1
sVmoment
p6018
F1
sVpurpose
p6019
F4
sVinfused
p6020
F1
sVmagnifience
p6021
F1
sVsignor
p6022
F2
sVtask
p6023
F1
sVcraved
p6024
F2
sVforfeited
p6025
F7
sVspent
p6026
F9
sVreare
p6027
F1
sVmorrow
p6028
F2
sVenglish.
p6029
F1
sVcharges,
p6030
F1
sVspend
p6031
F3
sVsalute,
p6032
F2
sVlives:
p6033
F1
sVlives,
p6034
F4
sVperfidiousness,
p6035
F1
sVprmoising
p6036
F1
sVdiscipline
p6037
F1
sVfollow;
p6038
F2
sVcut
p6039
F4
sVvvith:
p6040
F1
sVmarrying
p6041
F1
sVsubjects
p6042
F8
sVgate,
p6043
F2
sVfollow,
p6044
F1
sVdungeon.
p6045
F1
sVquieted
p6046
F1
sVbin
p6047
F1
sVmanage
p6048
F1
sVadversaries
p6049
F1
sVchambermaid
p6050
F1
sVdestruction:
p6051
F2
sVsaluted
p6052
F4
sVtyranny,
p6053
F3
sVredeem
p6054
F8
sVexpressions,
p6055
F4
sVdestruction,
p6056
F1
sVblemish
p6057
F2
sVtortures?
p6058
F1
sVmurdered,
p6059
F1
sVfoolish
p6060
F2
sVhatton.
p6061
F1
sVvirtue?
p6062
F1
sVoften
p6063
F27
sVinured
p6064
F1
sVabsolutely
p6065
F12
sVobliged
p6066
F8
sVhostage.
p6067
F1
sVmagnificent
p6068
F3
sVback
p6069
F7
sVmartial
p6070
F2
sVvirtue,
p6071
F3
sVmirror
p6072
F2
sVhazarded
p6073
F1
sVpublick
p6074
F2
sVobliges
p6075
F1
sVscale
p6076
F2
sVsycomores.
p6077
F1
sVper
p6078
F3
sVcast
p6079
F13
sVpen
p6080
F2
sVaccusers,
p6081
F1
sVgood,
p6082
F2
sVresolutely
p6083
F6
sVlaughing
p6084
F1
sVpresence,
p6085
F9
sVpresence.
p6086
F3
sVcontinuing
p6087
F1
sVpresence)
p6088
F1
sVchanting
p6089
F1
sVhostages
p6090
F2
sVpurport,
p6091
F1
sVpresence;
p6092
F1
sVover-pressing
p6093
F1
sVgoods
p6094
F3
sVinhumanity
p6095
F1
sVbrunt,
p6096
F1
sVmrs.
p6097
F1
sVmoores
p6098
F1
sVwhom,
p6099
F2
sVblasted?
p6100
F1
sVasswage
p6101
F1
sVfulfil
p6102
F1
sVhope,
p6103
F1
sVconcerned,
p6104
F2
sVchristendome.
p6105
F1
sVbuffetting
p6106
F1
sVconcerned;
p6107
F1
sVcould'st
p6108
F1
sV(out
p6109
F1
sVsorrows,
p6110
F2
sVdarknesse
p6111
F1
sVoriginal:
p6112
F1
sVforward
p6113
F3
sVvalor,
p6114
F8
sVvalor.
p6115
F1
sVrelapse,
p6116
F1
sVpiazza,
p6117
F1
sVinvite
p6118
F2
sVhoped
p6119
F4
sVboys
p6120
F1
sVdelighting
p6121
F1
sVhopes
p6122
F34
sVhap,
p6123
F1
sVdirected
p6124
F1
sVvalors
p6125
F1
sVaffaires
p6126
F3
sVnativity.
p6127
F1
sVcarefull
p6128
F1
sVgibralter,
p6129
F1
sVhopes,
p6130
F3
sVconstant
p6131
F11
sVexpedition
p6132
F3
sVesteemed,)
p6133
F1
sVpossessor
p6134
F1
sVdeprive
p6135
F14
sVlye
p6136
F2
sVsingle
p6137
F5
sVcure
p6138
F2
sVcurb
p6139
F1
sVprevail
p6140
F4
sVexcused
p6141
F2
sVcountess
p6142
F1
sVsucceeded,
p6143
F1
sVexcuses
p6144
F2
sVmantova
p6145
F1
sVhonourable.
p6146
F1
sVorders,
p6147
F1
sVconfine
p6148
F1
sVeternally,
p6149
F1
sVbrushing
p6150
F1
sVamazed,
p6151
F2
sVlend
p6152
F1
sVneck,
p6153
F3
sVprepared
p6154
F4
sV\u005c---i
p6155
F1
sVrestoration
p6156
F1
sVutterly
p6157
F16
sVlent
p6158
F1
sVdesert
p6159
F3
sVmantel
p6160
F1
sVbrest.
p6161
F1
sVexcuse,
p6162
F1
sVadmiring
p6163
F2
sVpresenting
p6164
F2
sVswifter
p6165
F1
sVhappy,
p6166
F4
sVhappy.
p6167
F1
sVpossible!
p6168
F1
sVstore-houses
p6169
F1
sVamplifies
p6170
F1
sVhaven,
p6171
F2
sVcompose
p6172
F1
sVendear
p6173
F1
sVthreaten'd
p6174
F1
sVpromised,
p6175
F1
sVblaze
p6176
F2
sVpersonages,
p6177
F4
sVfatal
p6178
F6
sVcannons,
p6179
F1
sVbrigade
p6180
F1
sVpresently
p6181
F5
sVroughman,
p6182
F1
sVtomb,
p6183
F1
sVputting
p6184
F3
sVaccuse
p6185
F1
sVentire
p6186
F1
sVbusied
p6187
F1
sViniquity
p6188
F1
sVknight
p6189
F1
sVhelp,
p6190
F1
sVspinola
p6191
F41
sVbecomming
p6192
F1
sVrearing
p6193
F1
sVbelieved,
p6194
F1
sVus.
p6195
F4
sVgrave.
p6196
F1
sVgrave,
p6197
F3
sVbeast;
p6198
F1
sVsafe,
p6199
F2
sVsin;
p6200
F1
sVother,
p6201
F16
sVother.
p6202
F1
sVobject,
p6203
F2
sVdemonstrations
p6204
F1
sVcivita
p6205
F1
sVbeast,
p6206
F2
sVlaws,
p6207
F3
sVmanlike
p6208
F1
sVvvast
p6209
F1
sVother;
p6210
F3
sVabsolute,
p6211
F1
sVsaved,
p6212
F2
sVpalpable
p6213
F1
sVslighted,
p6214
F2
sVgiving
p6215
F14
sVassisted
p6216
F2
sVthink)
p6217
F1
sVasps
p6218
F1
sVslaughtered,
p6219
F1
sVarbory,
p6220
F1
sVhonours,
p6221
F2
sVbody
p6222
F21
sVjustification
p6223
F1
sVexchange
p6224
F3
sVbeasts
p6225
F5
sVnimbly
p6226
F2
sVriver,
p6227
F1
sVpacking
p6228
F1
sVobjects
p6229
F1
sVsink
p6230
F1
sVothers
p6231
F20
sVmantouse,
p6232
F1
sVcretan
p6233
F1
sVconceit
p6234
F1
sVrefrained,
p6235
F1
sVintreaties
p6236
F2
sVcomforted,
p6237
F1
sVadded,
p6238
F2
sVwouldest
p6239
F1
sVvaunt
p6240
F1
sVhonor
p6241
F13
sVcourting
p6242
F1
sVcomposed
p6243
F4
sVnamed
p6244
F2
sVappartment,
p6245
F4
sVdelights,
p6246
F1
sVprivate
p6247
F13
sVhindred
p6248
F5
sVdelights;
p6249
F1
sVnoyses,
p6250
F1
sVegress
p6251
F1
sVprivately
p6252
F2
sVscandal
p6253
F2
sVresolutions
p6254
F2
sVii.
p6255
F3
sVthrones,
p6256
F1
sVowners,
p6257
F1
sVthemselves
p6258
F31
sVinclination,
p6259
F1
sVprized
p6260
F5
sVresolution,
p6261
F6
sVsnatching
p6262
F6
sVname,
p6263
F3
sValgiers,
p6264
F2
sVname)
p6265
F1
sVtrain
p6266
F2
sVprizes
p6267
F1
sVashamed
p6268
F3
sVdebtors
p6269
F1
sVtearing
p6270
F2
sVafflicting
p6271
F1
sVaccount
p6272
F13
sVpraise
p6273
F3
sVclosing
p6274
F1
sVanger.
p6275
F1
sVfetch
p6276
F5
sVimmoderate
p6277
F2
sVreserved
p6278
F2
sVfra.
p6279
F1
sVinfantry
p6280
F4
sVwater)
p6281
F1
sVscorn'd
p6282
F1
sVwater,
p6283
F6
sVspruce
p6284
F1
sVcontempt
p6285
F1
sVnative
p6286
F9
sVdaring
p6287
F7
sVassailants,
p6288
F1
sVcourtesie
p6289
F1
sVforest
p6290
F1
sVsealed,
p6291
F1
sVstock
p6292
F3
sVaccorded
p6293
F1
sVsnatch't
p6294
F1
sVunited
p6295
F2
sVproportion,
p6296
F1
sVillustrissimo's,
p6297
F1
sVfolly,
p6298
F2
sVchamber'd
p6299
F1
sVdrop
p6300
F1
sVgone,
p6301
F4
sVhero,
p6302
F1
sVout,
p6303
F21
sVlines
p6304
F1
sVregion.
p6305
F1
sVregion,
p6306
F1
sVtenent;
p6307
F1
sVchief
p6308
F6
sVhold,
p6309
F2
sVroad
p6310
F1
sVfolly;
p6311
F1
sVfurious
p6312
F4
sVremedies,
p6313
F1
sVfurnish
p6314
F5
sVepidemical
p6315
F1
sVchildren;
p6316
F1
sVembers
p6317
F1
sVunadvisedly
p6318
F1
sValacrity
p6319
F2
sVpensivenesse
p6320
F1
sVcittadell,
p6321
F1
sVpssible
p6322
F1
sVroughness
p6323
F1
sVbridges
p6324
F4
sVrevived
p6325
F7
sVbeleive
p6326
F6
sVwhereon
p6327
F2
sVspencer:
p6328
F2
sValtered,
p6329
F1
sVwinning
p6330
F1
sVseige
p6331
F2
sVwilling
p6332
F9
sVazine
p6333
F1
sVstopped,
p6334
F1
sVsycomore,
p6335
F1
sVantient
p6336
F3
sVmorning;
p6337
F1
sVgreater
p6338
F19
sVsomersetshire,
p6339
F1
sVhorn,
p6340
F1
sVblessed
p6341
F7
sVreplyed
p6342
F1
sVmention
p6343
F7
sVeffectuall
p6344
F1
sVagreed,
p6345
F1
sVday
p6346
F34
sVstrive
p6347
F6
sVmauritanian
p6348
F1
sVwell-fixt
p6349
F1
sVl.
p6350
F1
sVblazing
p6351
F1
sVimpregnable.
p6352
F1
sVgiants,
p6353
F1
sVbridge,
p6354
F1
sVweariness,
p6355
F1
sVpitty
p6356
F6
sVadmirations
p6357
F1
sValcade
p6358
F13
sVdreaming
p6359
F3
sVtutelar
p6360
F1
sVfuriously
p6361
F2
sVmost,
p6362
F1
sVincensed
p6363
F2
sVdefend
p6364
F5
sVcure,
p6365
F1
sVwholly
p6366
F6
sVmessenger
p6367
F25
sVcure:
p6368
F1
sVbackward,
p6369
F1
sVaffirming
p6370
F1
sVthereupon
p6371
F3
sVfamilies,
p6372
F1
sVfourteen
p6373
F1
sVheretick
p6374
F1
sVdramatick's,
p6375
F1
sVsounder
p6376
F1
sVyard
p6377
F2
sVfuries
p6378
F3
sVdeprived
p6379
F11
sVmariners,
p6380
F2
sVallied
p6381
F1
sV(having
p6382
F2
sVhedge,
p6383
F3
sV(only
p6384
F1
sVfacilitate
p6385
F2
sVempire.
p6386
F1
sVempire,
p6387
F1
sVrudely
p6388
F1
sVforfeite
p6389
F1
sVthunderbolt,
p6390
F1
sVescape,
p6391
F4
sVpuppet
p6392
F1
sVreached
p6393
F2
sVcommendations
p6394
F1
sVvvorld,
p6395
F1
sVancient
p6396
F5
sVsadly
p6397
F1
sVlove,
p6398
F21
sVlove.
p6399
F3
sVscortching
p6400
F1
sVlamentably
p6401
F1
sVlove;
p6402
F4
sVlove:
p6403
F1
sVforfeit.
p6404
F1
sVforfeit,
p6405
F1
sVrenewed,
p6406
F1
sVnegro
p6407
F5
sVexcercises
p6408
F1
sVinto!
p6409
F1
sVinestimable
p6410
F1
sVstaires
p6411
F1
sVfeete.
p6412
F1
sVslack
p6413
F1
sVelizabetha,
p6414
F1
sVdepends
p6415
F1
sVupon,
p6416
F6
sVhospitality.
p6417
F1
sVloves
p6418
F14
sVlover
p6419
F5
sVflashes
p6420
F1
sVout:
p6421
F3
sVcountrymen,
p6422
F1
sVdeparted.
p6423
F1
sVoverpowred
p6424
F2
sVbusinesse
p6425
F4
sVcomfortable
p6426
F2
sVtide
p6427
F1
sVpetruchio's,
p6428
F1
sVmornings
p6429
F1
sValcade,
p6430
F1
sVhave
p6431
F333
sVdiscontents
p6432
F1
sVcountryman
p6433
F1
sVapparently
p6434
F1
sVexpected;
p6435
F1
sVmelancholly
p6436
F4
sVpatience,
p6437
F6
sVmix
p6438
F1
sVexpected,
p6439
F6
sVprovoked
p6440
F1
sVdesperate,
p6441
F1
sVunless
p6442
F2
sVprocure
p6443
F11
sVbusiness,
p6444
F2
sVeight
p6445
F2
sVsedan
p6446
F1
sVdishonour,
p6447
F2
sVpayment
p6448
F1
sVafresh
p6449
F1
sVwherewith
p6450
F5
sVgather
p6451
F1
sVrequest
p6452
F6
sVperformed.
p6453
F1
sVperformed,
p6454
F2
sVfoe;
p6455
F1
sVoccasion
p6456
F16
sVoutlive
p6457
F3
sVsaying,
p6458
F1
sVdeparted;
p6459
F1
sVioffer-bassa
p6460
F1
sVsurvived
p6461
F1
sVsupported
p6462
F1
sVhazarding
p6463
F2
sVfoine
p6464
F1
sVknowledge
p6465
F9
sVbegged,
p6466
F1
sVaffrica
p6467
F1
sVinferior
p6468
F2
sVfecht
p6469
F1
sVyours!
p6470
F1
sVbear
p6471
F6
sVaccrue
p6472
F2
sVpredicted,
p6473
F1
sVrebellious
p6474
F2
sVspotlesse
p6475
F1
sVunprejudiced
p6476
F1
sVstrove
p6477
F11
sVcalling
p6478
F8
sVextravagancies,
p6479
F1
sVfixed
p6480
F6
sVconform
p6481
F2
sV(cried
p6482
F1
sVravisht
p6483
F1
sVheightend
p6484
F1
sVdesires)
p6485
F1
sVattribute)
p6486
F1
sVdesires.
p6487
F5
sVturks
p6488
F1
sVdesires,
p6489
F15
sVpattern
p6490
F1
sVdesires;
p6491
F1
sVbetrayedst
p6492
F1
sVencamped
p6493
F1
sVprolix,
p6494
F1
sVstoutly
p6495
F1
sVliest,
p6496
F4
sVbed
p6497
F2
sVfellucca,
p6498
F2
sVsorrow
p6499
F9
sVdeliver
p6500
F7
sVseverally
p6501
F2
sVaside,
p6502
F1
sVantick
p6503
F1
sVinstant
p6504
F3
sVfreely
p6505
F12
sVtaking
p6506
F26
sVequal
p6507
F9
sVagree
p6508
F1
sVfulfilled
p6509
F1
sVassure
p6510
F8
sVattributes
p6511
F2
sVpassing
p6512
F3
sV(contrary
p6513
F1
sVglorious
p6514
F6
sVotherwise
p6515
F11
sVvent
p6516
F1
sVtravellers
p6517
F1
sVdefensory
p6518
F1
sVbrook
p6519
F1
sVunty,
p6520
F1
sVdone;
p6521
F1
sVdone:
p6522
F2
sVcommend
p6523
F1
sVlaugh
p6524
F1
sVa-cross
p6525
F1
sVfrustrated,
p6526
F1
sVpouring
p6527
F2
sVdeath-bed
p6528
F1
sVunassayed
p6529
F1
sVit's
p6530
F9
sVcomposed:
p6531
F1
sVgaze
p6532
F1
sVattends
p6533
F1
sVwarwick
p6534
F1
sVhome,
p6535
F7
sVyesterdays
p6536
F1
sVperplexed
p6537
F2
sVencounter.
p6538
F1
sVgoddess
p6539
F4
sVplains,
p6540
F1
sVdelightful,
p6541
F1
sVfinished
p6542
F3
sVcovvardice,
p6543
F1
sVfellow
p6544
F1
sVvenny
p6545
F1
sVingrafted
p6546
F1
sVplain
p6547
F2
sVattend,
p6548
F1
sVappearance
p6549
F2
sVpity;
p6550
F1
sVgenouese,
p6551
F1
sVsister.
p6552
F1
sVsister,
p6553
F2
sValmost
p6554
F31
sVdraw;
p6555
F1
sVweighed
p6556
F1
sVshame.
p6557
F1
sVprose
p6558
F1
sVpartner
p6559
F1
sVmullishegs
p6560
F1
sV)
F67
sVallurements
p6561
F1
sVhills.
p6562
F1
sVtravellers,
p6563
F1
sVtumbling
p6564
F2
sVbattalias
p6565
F1
sVcatechized,
p6566
F1
sVinjured
p6567
F1
sVpawn'd
p6568
F1
sVslightly
p6569
F1
sVcloset,
p6570
F1
sVexceeds
p6571
F1
sVjesture
p6572
F1
sVarm'd
p6573
F1
sVsisters
p6574
F4
sVmountanious
p6575
F1
sVjudgment
p6576
F3
sVcast?
p6577
F1
sVcenter
p6578
F2
sVweapon
p6579
F2
sVmullisheg;
p6580
F3
sVovershadowed
p6581
F2
sVmullisheg?
p6582
F1
sVthought
p6583
F66
sVovershadowes
p6584
F1
sVmullisheg,
p6585
F13
sVconcluded,
p6586
F2
sVusual
p6587
F3
sVcompanions,
p6588
F1
sVderived,
p6589
F1
sVresolve,
p6590
F2
sVvaine!
p6591
F1
sVlosse
p6592
F5
sVvaine;
p6593
F1
sVinterim
p6594
F1
sVmullisheg
p6595
F26
sVliberty.
p6596
F1
sVliberty,
p6597
F4
sVmiraneula,
p6598
F1
sVfondly
p6599
F1
sVbragging
p6600
F1
sVostend,
p6601
F2
sVrecommending
p6602
F2
sVconquerour
p6603
F1
sVadd
p6604
F3
sVostend;
p6605
F1
sVought
p6606
F4
sVresolved
p6607
F43
sVbeautious
p6608
F4
sVstarrs,
p6609
F1
sVloss,
p6610
F2
sVarticles
p6611
F2
sVaccounted,
p6612
F1
sVloss!
p6613
F1
sVloss?
p6614
F1
sVresolves
p6615
F2
sVplimouth,
p6616
F2
sVduckets,
p6617
F1
sVother!
p6618
F1
sVlike
p6619
F56
sVsuccess
p6620
F4
sVpublick.
p6621
F1
sVvalour)
p6622
F1
sVvalour,
p6623
F5
sVadmitted
p6624
F1
sVsute
p6625
F1
sVligue;
p6626
F1
sVblamed,
p6627
F1
sVsick,
p6628
F1
sVsoft
p6629
F1
sVproposition;
p6630
F1
sVworth.
p6631
F1
sVworth,
p6632
F4
sVeasie
p6633
F6
sVsubjects:
p6634
F1
sValive
p6635
F2
sVhair
p6636
F1
sVsolemnize
p6637
F2
sVconvey
p6638
F2
sVinterment
p6639
F1
sValike,
p6640
F3
sVship.
p6641
F1
sVpleasant,
p6642
F1
sVboard,
p6643
F1
sVwrongs,
p6644
F1
sVregain
p6645
F2
sVconference
p6646
F1
sVnoise
p6647
F3
sVslight
p6648
F3
sVlieutenant
p6649
F9
sVexpire
p6650
F1
sValthough
p6651
F1
sVworthy
p6652
F57
sVceremony,
p6653
F2
sVinconsiderate
p6654
F2
sVabout
p6655
F59
sVcorps,
p6656
F1
sVdistilling
p6657
F1
sVcertainty
p6658
F3
sVcorps!
p6659
F1
sVomphale's
p6660
F1
sVblessings
p6661
F3
sVbumbast
p6662
F1
sVhappen,
p6663
F1
sVvallues
p6664
F1
sVguard
p6665
F12
sVesteem
p6666
F3
sVfemale
p6667
F1
sVwheresoever
p6668
F1
sVterming
p6669
F1
sVminute,
p6670
F2
sVminute;
p6671
F2
sVprince.
p6672
F2
sVpersued
p6673
F1
sVprince,
p6674
F10
sVprince)
p6675
F3
sVivory
p6676
F1
sVhearse?
p6677
F1
sVamity
p6678
F2
sVmatch:
p6679
F1
sVbut
p6680
F664
sVplague
p6681
F2
sVchildren,
p6682
F1
sVbride;
p6683
F1
sVwise
p6684
F2
sVprinces
p6685
F11
sVglory
p6686
F7
sVwish
p6687
F2
sVthrice
p6688
F11
sVpityfull;
p6689
F1
sVbride.
p6690
F1
sVwist
p6691
F1
sVbride,
p6692
F2
sVcerulean
p6693
F1
sVflie
p6694
F4
sVminutes
p6695
F2
sVchristian,
p6696
F3
sVchristian.
p6697
F1
sVdeaths
p6698
F2
sVwhisper
p6699
F1
sVmeasure
p6700
F4
sVjudgements,
p6701
F1
sVstrengthned
p6702
F1
sVproceeds
p6703
F3
sVaccident,
p6704
F4
sVdressed
p6705
F2
sVdetain
p6706
F2
sVkuowing
p6707
F1
sVuttermost
p6708
F1
sVproceed,
p6709
F1
sVindeed)
p6710
F1
sVindeed,
p6711
F4
sVdeath?
p6712
F1
sVbundle
p6713
F2
sVdeath;
p6714
F6
sVindeed;
p6715
F1
sVdeath!
p6716
F2
sVdeath,
p6717
F27
sVgloriously
p6718
F2
sVdeath.
p6719
F4
sVdeath)
p6720
F1
sVchristians
p6721
F2
sVstirred
p6722
F1
sVdevils,
p6723
F2
sVresolution
p6724
F9
sVtime;
p6725
F1
sVstirrer
p6726
F1
sVslaves,
p6727
F1
sVnews.
p6728
F1
sVsayle
p6729
F1
sVnews,
p6730
F5
sVmonte,
p6731
F2
sVever)
p6732
F1
sVadmiration:
p6733
F1
sVhath
p6734
F27
sVever?
p6735
F1
sVsleep
p6736
F1
sVhate
p6737
F4
sVadmiration,
p6738
F1
sVembraced.
p6739
F1
sVfeeding
p6740
F1
sVviolate
p6741
F2
sVparis
p6742
F1
sV(for
p6743
F27
sVgiovanni,
p6744
F1
sVintreat
p6745
F1
sVwhatsoever
p6746
F3
sVunder
p6747
F22
sVpride
p6748
F1
sVmerchant
p6749
F7
sVmerchans
p6750
F1
sVrise
p6751
F3
sVtears,
p6752
F1
sVevery
p6753
F14
sVhat,
p6754
F1
sVencounter
p6755
F6
sVfancies,
p6756
F1
sVconceive
p6757
F1
sVenjoy
p6758
F21
sVparted
p6759
F5
sVtignor
p6760
F1
sVexcuses,
p6761
F1
sVmollifie,
p6762
F1
sVcontention,
p6763
F2
sVdirect
p6764
F1
sVhundred,
p6765
F1
sVstreet
p6766
F1
sVfriendships
p6767
F2
sVshining
p6768
F1
sVcaerulian
p6769
F1
sVloyns
p6770
F1
sVsolemn
p6771
F5
sVterms,
p6772
F3
sVgeneral;
p6773
F1
sVliberty
p6774
F8
sVfavours,
p6775
F1
sVleave,
p6776
F3
sVblur
p6777
F1
sVgeneral)
p6778
F1
sVgeneral,
p6779
F5
sVseeks
p6780
F1
sVfriendship,
p6781
F10
sVfriendship.
p6782
F3
sVaftervvards
p6783
F1
sVfriendship;
p6784
F2
sVwedding,
p6785
F1
sVhumility
p6786
F1
sVrepresented
p6787
F2
sVpath
p6788
F1
sVgenerals
p6789
F3
sVdisclaime
p6790
F1
sVravish
p6791
F1
sVventures
p6792
F1
sVleaves
p6793
F4
sVchanged
p6794
F6
sVproportioned
p6795
F1
sVfriuli
p6796
F1
sVvvould
p6797
F9
sVchanges
p6798
F1
sVrefortifie
p6799
F1
sVventured
p6800
F2
sVverdure
p6801
F1
sVcompany,
p6802
F7
sVcompany)
p6803
F1
sVvisibly
p6804
F1
sVsorrows
p6805
F1
sVpatience
p6806
F6
sVimagniable:
p6807
F1
sVgreatness,
p6808
F2
sVreply,
p6809
F2
sVfained
p6810
F1
sVwould
p6811
F231
sVdevills
p6812
F1
sVdistributing
p6813
F1
sVlustfull
p6814
F1
sVfainting
p6815
F2
sVbarbarous
p6816
F6
sVoff;
p6817
F1
sVmuse
p6818
F4
sVsorrow,
p6819
F3
sVgrief
p6820
F3
sVgreatnesse
p6821
F3
sVexcellent
p6822
F9
sVrobbing
p6823
F3
sVsorrow?
p6824
F1
sVoff,
p6825
F4
sVmust
p6826
F93
sVabundance
p6827
F1
sVfoile
p6828
F1
sVentertainemnts
p6829
F1
sVbrandishing
p6830
F1
sVentertained
p6831
F5
sVtender,
p6832
F1
sVtender.
p6833
F1
sVentertainer
p6834
F1
sVmy
p6835
F709
sVfortress
p6836
F1
sVquarrel
p6837
F4
sVrealmes.
p6838
F1
sVestate
p6839
F13
sVcause,
p6840
F5
sVcontented,
p6841
F2
sVpreserving
p6842
F1
sVoverheard
p6843
F2
sVappointment
p6844
F1
sVkeep
p6845
F10
sVoppressing
p6846
F1
sVend
p6847
F17
sVenquiry
p6848
F2
sVsitting
p6849
F2
sVforraign
p6850
F1
sVadjacent
p6851
F1
sVdiscoursed
p6852
F1
sVswiftness
p6853
F2
sVplighted
p6854
F1
sVcolours,
p6855
F1
sVferraresses,
p6856
F1
sVboth.
p6857
F2
sVassistance,
p6858
F8
sVimaginable
p6859
F4
sVdemanding
p6860
F1
sVhereupon
p6861
F1
sVheart)
p6862
F1
sVcolours;
p6863
F2
sVimposed;
p6864
F1
sVmiscarriages,
p6865
F1
sVfellows,
p6866
F1
sVparallel
p6867
F1
sVboystrous
p6868
F1
sVvow'd
p6869
F6
sVcasement
p6870
F1
sVacknowledged
p6871
F1
sVprosperously
p6872
F1
sVvow's
p6873
F1
sVoughtst
p6874
F1
sVenter
p6875
F2
sVroused
p6876
F1
sVscour
p6877
F2
sVexecuted
p6878
F3
sVravisher.
p6879
F2
sVover
p6880
F35
sVdisease.
p6881
F1
sVdisease,
p6882
F1
sV(being
p6883
F1
sVperfectly:
p6884
F1
sVshadow?
p6885
F1
sVexpectations
p6886
F1
sVentranced
p6887
F1
sVislands,
p6888
F1
sVshadow,
p6889
F2
sVdiseases
p6890
F1
sVprevented
p6891
F5
sVexpect,
p6892
F3
sVravishers
p6893
F1
sVmantuas,
p6894
F1
sVstinking
p6895
F1
sVnetherlands
p6896
F1
sVtryall
p6897
F6
sVherald
p6898
F3
sVvictory
p6899
F10
sVeach
p6900
F21
sVwaving
p6901
F1
sVentrance.
p6902
F1
sVfitting,
p6903
F1
sVlasting
p6904
F4
sVimployment
p6905
F1
sVwish'd
p6906
F1
sVcloths
p6907
F1
sVwish't
p6908
F1
sVdulnesse
p6909
F2
sVforced,
p6910
F1
sVselfe)
p6911
F2
sVgon
p6912
F1
sVthundring
p6913
F2
sVdriving
p6914
F1
sVselfe,
p6915
F6
sVgoe
p6916
F4
sVgod
p6917
F3
sVwashed
p6918
F2
sVmantouese
p6919
F1
sVday,
p6920
F12
sVlain
p6921
F2
sVgot
p6922
F12
sVnewly
p6923
F5
sVstretch't
p6924
F1
sVghost,
p6925
F4
sVdefence,
p6926
F1
sVeternal
p6927
F6
sVfree
p6928
F15
sVbe)
p6929
F1
sVwhereupon
p6930
F4
sVcloth,
p6931
F1
sVwanted
p6932
F7
sVvvhen
p6933
F1
sVgo,
p6934
F2
sVgo.
p6935
F1
sVrewards,
p6936
F1
sVdays
p6937
F21
sVemployed,
p6938
F1
sVgo:
p6939
F1
sVaspire
p6940
F1
sVwatches,
p6941
F1
sVrecite
p6942
F1
sVrang
p6943
F1
sValready
p6944
F17
sVofficious
p6945
F1
sVtoo.
p6946
F1
sVaccent
p6947
F1
sVtoo,
p6948
F2
sVencouraging
p6949
F4
sVrank
p6950
F1
sVtoo)
p6951
F2
sVgrief,
p6952
F10
sVabate)
p6953
F1
sVgrief.
p6954
F1
sVtraitorous
p6955
F1
sVcurtain,
p6956
F1
sVcombate
p6957
F3
sVgalled
p6958
F1
sVtop
p6959
F1
sVsemele,
p6960
F1
sVtoo
p6961
F45
sVbethink
p6962
F3
sVhour)
p6963
F1
sVconsented
p6964
F4
sVtragical
p6965
F1
sVilliterate
p6966
F3
sVgriefs
p6967
F2
sVsorrow's,
p6968
F1
sVserve
p6969
F6
sVtook
p6970
F23
sVladyships
p6971
F1
sVwestern
p6972
F3
sVwardrobe
p6973
F1
sVshortly
p6974
F1
sVabated
p6975
F2
sVgriefe
p6976
F3
sVto:
p6977
F1
sVto;
p6978
F4
sVto?
p6979
F1
sVnominate
p6980
F1
sVfinal
p6981
F1
sVheight,
p6982
F2
sVflame
p6983
F1
sVto,
p6984
F10
sVmirth
p6985
F3
sVcouncel,
p6986
F1
sVcombat;
p6987
F1
sVvvoman,
p6988
F1
sVbridge
p6989
F1
sVrad
p6990
F1
sVfashion
p6991
F1
sVran
p6992
F18
sVraw
p6993
F1
sVadvising
p6994
F1
sVfurther
p6995
F24
sV(making
p6996
F1
sVepethites,
p6997
F1
sVrelapse
p6998
F1
sVinterposed,
p6999
F1
sVunawares,
p7000
F1
sVfeins
p7001
F1
sVlaughed
p7002
F1
sVcleft
p7003
F1
sVcreatures
p7004
F1
sVrides
p7005
F1
sVpropitious
p7006
F2
sVpredommant
p7007
F1
sVbridges;
p7008
F1
sVdetained
p7009
F1
sVthough
p7010
F113
sV(mounted
p7011
F1
sVexcelling
p7012
F4
sVbridges,
p7013
F3
sVcommanding
p7014
F4
sVparting
p7015
F5
sVconstancy
p7016
F4
sVmixt
p7017
F1
sVflow
p7018
F1
sVletters,
p7019
F3
sVmamorrah,
p7020
F1
sVswerved
p7021
F1
sVreputation
p7022
F2
sVvalliant
p7023
F1
sVprevaile
p7024
F1
sVlevying
p7025
F1
sVaccomodations,
p7026
F1
sVrelated,
p7027
F1
sVwild
p7028
F6
sVcontracted,
p7029
F1
sVcontracted.
p7030
F1
sVleagues
p7031
F3
sVqueen
p7032
F9
sVcloaths,
p7033
F1
sVearth
p7034
F6
sVrecompence
p7035
F3
sVshot,
p7036
F1
sVdelays
p7037
F2
sVstanza
p7038
F1
sVmay,
p7039
F1
sVlodge
p7040
F1
sVanger,
p7041
F5
sVprogresse
p7042
F2
sVabout;
p7043
F1
sVwatch
p7044
F5
sVamazon
p7045
F1
sVdespite
p7046
F2
sVreport
p7047
F6
sVabout,
p7048
F5
sVdelay;
p7049
F1
sVcountries
p7050
F5
sVruine
p7051
F1
sVaffability,
p7052
F1
sVtwice
p7053
F4
sVsarum
p7054
F1
sVecchoes,
p7055
F1
sVforraigners
p7056
F1
sVsunset,
p7057
F1
sVfarther
p7058
F19
sVpresuming
p7059
F4
sVpittying
p7060
F1
sVhabit
p7061
F3
sVsaddle
p7062
F1
sVresist
p7063
F3
sVjoys,
p7064
F1
sVgentility
p7065
F1
sVvillanies,
p7066
F1
sVcapacity
p7067
F1
sVtemptation
p7068
F1
sVface,
p7069
F6
sVconceit,
p7070
F1
sVcontinually
p7071
F1
sVstartle
p7072
F1
sV(by
p7073
F1
sVextract,
p7074
F1
sVcourteous,
p7075
F3
sVbellowing
p7076
F1
sVapproach
p7077
F3
sVdiscovery
p7078
F6
sVwean
p7079
F1
sVsidney,
p7080
F1
sVweak
p7081
F4
sVhowever
p7082
F6
sVwear
p7083
F2
sVnews
p7084
F10
sVmen-of-war,
p7085
F1
sVfaced
p7086
F4
sVdaunted
p7087
F2
sVover-civil
p7088
F1
sVcuriosity,
p7089
F3
sV(b)
p7090
F1
sVirregular
p7091
F1
sVfault
p7092
F3
sVextracts
p7093
F1
sVmuly
p7094
F3
sVfates,
p7095
F1
sVfaces
p7096
F1
sVfates!
p7097
F1
sVvexed
p7098
F2
sVenterprise,
p7099
F1
sVhast
p7100
F22
sVtrust
p7101
F3
sVinvented,
p7102
F3
sVulishing,
p7103
F1
sVapplause,
p7104
F2
sVincomparable
p7105
F1
sVcountrys
p7106
F1
sVropes
p7107
F1
sVbeen
p7108
F114
sVquickly
p7109
F6
sVwere,
p7110
F6
sVconfident
p7111
F9
sVimaginable,
p7112
F5
sVspread
p7113
F3
sVwere)
p7114
F1
sVmiraculously
p7115
F1
sVexpected
p7116
F12
sVcaptives
p7117
F2
sVdeliberation,
p7118
F1
sVnobility,
p7119
F1
sVinforc'd
p7120
F1
sVlept
p7121
F1
sVspeeches
p7122
F1
sV(worthy
p7123
F1
sVlevant,
p7124
F1
sVchurch,
p7125
F3
sVancestors)
p7126
F1
sVvallour
p7127
F3
sVlessen
p7128
F1
sVinviolable
p7129
F3
sVstrangest
p7130
F1
sVinviolably
p7131
F1
sVparched
p7132
F1
sVstopping
p7133
F1
sVapplauses
p7134
F1
sVlust;
p7135
F2
sVdying,
p7136
F1
sVdescant
p7137
F1
sVcharacter.
p7138
F2
sVlasciviously
p7139
F1
sVlust,
p7140
F4
sVwels;
p7141
F1
sVtent,
p7142
F1
sVheart.
p7143
F2
sVheart,
p7144
F9
sVwound
p7145
F8
sVhated,
p7146
F1
sVheart:
p7147
F1
sVseveral
p7148
F18
sVpublished
p7149
F1
sVopticks
p7150
F1
sVvve
p7151
F11
sVmade,
p7152
F6
sVvvords,
p7153
F1
sVmentioning
p7154
F1
sVtuscany
p7155
F1
sVpossessed
p7156
F3
sVhearty
p7157
F1
sVgreatest
p7158
F25
sVincapable
p7159
F2
sVmother
p7160
F3
sVhearts
p7161
F2
sVspencer
p7162
F81
sVgarden,
p7163
F3
sVleaguer
p7164
F1
sVadvance;
p7165
F1
sVappease
p7166
F2
sVdeparted
p7167
F6
sVstarting
p7168
F1
sVnovelties)
p7169
F1
sVmortals;
p7170
F1
sVbreak,
p7171
F1
sVdepart
p7172
F4
sVselves,
p7173
F4
sVforfeiture
p7174
F2
sVdearer
p7175
F1
sVmeanly
p7176
F1
sVleague.
p7177
F1
sValtred
p7178
F1
sVmansion,
p7179
F1
sVbeauty,
p7180
F14
sVfoot,
p7181
F5
sVgave
p7182
F32
sVvice-
p7183
F1
sVfeatures,
p7184
F1
sVstatelinesse
p7185
F1
sVleague;
p7186
F1
sVrivulet:
p7187
F1
sVdescending
p7188
F1
sVbando
p7189
F1
sVjudge
p7190
F2
sVburnt
p7191
F2
sVbefit
p7192
F1
sVadvanced
p7193
F5
sVlayest
p7194
F1
sVappearing
p7195
F1
sVany;
p7196
F1
sVgift
p7197
F2
sVzeal
p7198
F3
sVany.
p7199
F1
sVany,
p7200
F2
sVsplendor
p7201
F2
sVhung
p7202
F4
sVcruelty,
p7203
F3
sVaffront,
p7204
F2
sVgenouese
p7205
F3
sVtedious,
p7206
F2
sVadieu
p7207
F1
sVpublickly
p7208
F5
sVescape
p7209
F13
sVregress.
p7210
F1
sVnobleman
p7211
F1
sVanciently
p7212
F1
sVproceeding
p7213
F2
sVcompanions
p7214
F2
sVtotall
p7215
F1
sVtht
p7216
F1
sVrepulsed,
p7217
F1
sVcorn
p7218
F1
sVclub,
p7219
F1
sVcombatants,
p7220
F1
sVpermitted
p7221
F4
sVintentions
p7222
F3
sVbeldam
p7223
F1
sVawaked,
p7224
F1
sVcompanion,
p7225
F1
sVdistressed,
p7226
F1
sVprimitive
p7227
F1
sVpresence
p7228
F19
sVcivil
p7229
F3
sVobtaining
p7230
F1
sVpraises,
p7231
F1
sVguard.
p7232
F1
sVdifference,
p7233
F3
sVsalutiferous
p7234
F1
sVpraises:
p7235
F1
sVruine,
p7236
F5
sVomen
p7237
F1
sVruine;
p7238
F1
sVvirgin
p7239
F7
sVfought
p7240
F1
sVpurposely
p7241
F3
sVhead
p7242
F13
sVah!
p7243
F1
sVtravel'd
p7244
F1
sVattempted
p7245
F5
sVhands:
p7246
F1
sVhands;
p7247
F1
sVheat
p7248
F1
sVhear
p7249
F27
sVheap
p7250
F1
sVremoved
p7251
F2
sVhands,
p7252
F7
sV(still
p7253
F1
sVcounsel
p7254
F4
sVportions
p7255
F1
sVingagement
p7256
F1
sVbeaten,
p7257
F1
sVbargain
p7258
F1
sVruined
p7259
F1
sVadore
p7260
F2
sVgenoua,
p7261
F7
sVruines
p7262
F1
sVincounter
p7263
F1
sVfury
p7264
F22
sVgallant,
p7265
F3
sVsometime
p7266
F2
sVsaddles,
p7267
F1
sVlevity
p7268
F1
sVbefitting
p7269
F1
sVwillingly
p7270
F16
sVno
p7271
F156
sVforgoe,
p7272
F1
sVwhen
p7273
F108
sVvanquished
p7274
F1
sVtil
p7275
F1
sVsetting
p7276
F2
sV(fame
p7277
F1
sVpapers
p7278
F1
sVtie
p7279
F1
sVvanished
p7280
F1
sVprey.
p7281
F1
sVpicture
p7282
F3
sVpermitting
p7283
F3
sVshine,
p7284
F3
sVgallants
p7285
F2
sVdark,
p7286
F1
sVyounger
p7287
F1
sVlonger
p7288
F23
sVpaper,
p7289
F2
sVcontrary.
p7290
F1
sVserious
p7291
F4
sVbackward
p7292
F2
sVcoach
p7293
F2
sVrob
p7294
F8
sVleads
p7295
F1
sVroy
p7296
F1
sVsigned,
p7297
F1
sVdeserving,
p7298
F1
sVscandals,
p7299
F1
sVdiscern
p7300
F5
sVproxie
p7301
F1
sVscarse
p7302
F1
sVlosses.
p7303
F1
sVpassage
p7304
F6
sVcharge
p7305
F14
sVstedfastly
p7306
F3
sVsinging,
p7307
F1
sVdiscovering
p7308
F2
sVcloud,
p7309
F1
sVtidings
p7310
F2
sVadvantage
p7311
F5
sVlance-prizado
p7312
F1
sVcool
p7313
F1
sVextreamly
p7314
F16
sVclouds
p7315
F1
sVwitnesse
p7316
F1
sVbest,
p7317
F1
sVposts
p7318
F1
sVbrother
p7319
F3
sVcloudy
p7320
F1
sVquick
p7321
F2
sVwherof
p7322
F1
sVsays
p7323
F3
sVinvaded
p7324
F1
sVpasse
p7325
F3
sVrequite.
p7326
F1
sVangelical
p7327
F2
sVsung.
p7328
F1
sVdarest,
p7329
F1
sVstately
p7330
F3
sVdeluded
p7331
F1
sVdisheartned
p7332
F1
sVcontracted
p7333
F8
sVguilt;
p7334
F1
sVgoes
p7335
F2
sVguilt,
p7336
F2
sVstoopedst
p7337
F1
sVone?
p7338
F1
sVbattell,
p7339
F2
sVhealth,
p7340
F3
sVnearer
p7341
F1
sVsay?
p7342
F1
sVhairs
p7343
F1
sVlearn
p7344
F3
sVsay;
p7345
F1
sVenvy
p7346
F5
sVwater
p7347
F1
sVrequited
p7348
F1
sVentertain
p7349
F12
sVperswaded
p7350
F7
sVsay,
p7351
F9
sVsupplying
p7352
F1
sVhealing
p7353
F1
sVthirty
p7354
F1
sVguilty
p7355
F9
sVcontarini,
p7356
F1
sVdescended
p7357
F5
sVabounded
p7358
F1
sVstand,
p7359
F3
sVbeautiful,
p7360
F1
sVstand)
p7361
F1
sVhumour
p7362
F3
sVfellucca
p7363
F1
sVpersued;
p7364
F1
sVcontinved
p7365
F1
sVfool
p7366
F1
sVhorsing,
p7367
F1
sVartillery,
p7368
F1
sVconfounded
p7369
F2
sValarums
p7370
F1
sVsports
p7371
F3
sVwrongs
p7372
F1
sVprey
p7373
F7
sVmemory
p7374
F2
sVhermit,
p7375
F1
sVchaire,
p7376
F1
sVvalors,
p7377
F1
sVriot
p7378
F1
sVthundred
p7379
F1
sVthree.
p7380
F1
sVdismal
p7381
F2
sVcases
p7382
F1
sVafright,
p7383
F1
sVand,
p7384
F1
sVjudg
p7385
F1
sVwrong,
p7386
F2
sVsport,
p7387
F2
sValarum,
p7388
F1
sVunruly
p7389
F1
sVhours,
p7390
F1
sVsuddaine
p7391
F1
sVrepresentation,
p7392
F2
sVsmilingly
p7393
F1
sVplentifull
p7394
F1
sVstroke
p7395
F1
sVperformed
p7396
F13
sVprovoke
p7397
F4
sVcommendation
p7398
F1
sVinclosed
p7399
F1
sVsecured
p7400
F1
sVinnumerable
p7401
F3
sV1
F1
sVwinds,
p7402
F1
sVchaos:
p7403
F1
sVimpartial
p7404
F1
sVstil
p7405
F1
sVdepriving
p7406
F3
sVtrickling
p7407
F1
sVamazon,
p7408
F1
sVself-conceit,
p7409
F1
sVsecure,
p7410
F1
sVspeak,
p7411
F3
sVsucceeded
p7412
F1
sVenemies,
p7413
F9
sVenemies.
p7414
F1
sVroarings
p7415
F1
sVinform
p7416
F2
sVwounds,
p7417
F5
sVhumanity,
p7418
F1
sVenemies;
p7419
F2
sVlamented
p7420
F1
sVimagining
p7421
F2
sVacts
p7422
F2
sVappartment
p7423
F1
sVduke
p7424
F90
sVhence;
p7425
F1
sVsevered,
p7426
F1
sVvail,
p7427
F1
sVmotions
p7428
F1
sVweather,
p7429
F2
sVinvent?
p7430
F1
sVabhorred
p7431
F1
sVsouls,
p7432
F3
sVinvent,
p7433
F1
sVaboardship,
p7434
F1
sVsuperlative.
p7435
F1
sVhappened
p7436
F6
sVmerchant-man,
p7437
F1
sVmotion,
p7438
F4
sVbound
p7439
F10
sVendeavored
p7440
F6
sVlustful
p7441
F3
sVrecovery,
p7442
F1
sVname
p7443
F13
sVoffer,
p7444
F1
sVsoon,
p7445
F1
sVinslave
p7446
F1
sVtrunks
p7447
F1
sVcall'd
p7448
F1
sVnation:
p7449
F1
sVfarewell
p7450
F1
sVbegun
p7451
F1
sVparchment,
p7452
F1
sVconstitution
p7453
F1
sVthus;
p7454
F1
sVprofit
p7455
F1
sVthus,
p7456
F3
sVthus.
p7457
F1
sVunvvorthy,
p7458
F1
sVnumber,
p7459
F3
sVgush
p7460
F1
sVsimile
p7461
F1
sVfarewel:
p7462
F1
sVattended
p7463
F7
sVtheory
p7464
F1
sVcaptaines,
p7465
F2
sVhull
p7466
F2
sVdispatched
p7467
F3
sVfarewel,
p7468
F1
sVfarewel!
p7469
F1
sVeccho
p7470
F5
sVoutway'd
p7471
F1
sVimportance,
p7472
F1
sVfamiliar,
p7473
F1
sVblotted
p7474
F1
sVbrest,
p7475
F2
sVmotion
p7476
F1
sVturn
p7477
F7
sVplace
p7478
F26
sVenvied
p7479
F1
sVexcusing
p7480
F1
sVview
p7481
F3
sVchildhood
p7482
F1
sVfeign
p7483
F2
sVsuspend
p7484
F2
sVrevenue
p7485
F2
sVitaly,
p7486
F4
sVblacker
p7487
F2
sVprosecuted.
p7488
F1
sVrelease,
p7489
F1
sVtemper,
p7490
F2
sVgeorge
p7491
F1
sVmillions
p7492
F1
sVgiven
p7493
F22
sVnecessarily
p7494
F3
sVreturne
p7495
F3
sVrayes
p7496
F3
sVpersons,
p7497
F3
sVstuck
p7498
F1
sVprayers
p7499
F4
sVaccordingly
p7500
F1
sVpersons;
p7501
F1
sVchastity
p7502
F5
sVbounty
p7503
F2
sVwhite
p7504
F3
sVseduced
p7505
F1
sVhue
p7506
F1
sVway
p7507
F39
sVsuperexcellent
p7508
F1
sVseason
p7509
F2
sVinexpressible
p7510
F2
sVreleased
p7511
F5
sValas
p7512
F8
sVcrouded
p7513
F1
sVgive,
p7514
F1
sVwide
p7515
F1
sVunfortunately
p7516
F1
sVearth;
p7517
F1
sVrequire
p7518
F1
sVreturn,
p7519
F8
sVreturn.
p7520
F1
sValcade's
p7521
F1
sVlegacy
p7522
F1
sVdiscovering,
p7523
F1
sVreturn;
p7524
F1
sVreturn:
p7525
F1
sVoath
p7526
F3
sVearth,
p7527
F7
sVand
p7528
F1641
sVfall?
p7529
F1
sVaecian
p7530
F1
sVconfessed
p7531
F5
sVfall,
p7532
F3
sVink,
p7533
F2
sVany
p7534
F116
sVmarquesse
p7535
F2
sVlate;
p7536
F1
sVcaptaines
p7537
F2
sVlate,
p7538
F3
sVresembling
p7539
F1
sVact,
p7540
F1
sVrhetrick
p7541
F1
sVbravado,
p7542
F1
sVurge
p7543
F3
sVsure
p7544
F8
sVadversities
p7545
F1
sVindelible
p7546
F1
sVneed)
p7547
F1
sVimbracing
p7548
F4
sVannum
p7549
F1
sVstrength,
p7550
F1
sVvvhat
p7551
F9
sVconsidered
p7552
F1
sVproud
p7553
F4
sVhungry
p7554
F1
sVstrength;
p7555
F1
sVneerly
p7556
F1
sVuncle
p7557
F2
sVwayes,
p7558
F1
sVmistresses
p7559
F1
sVarmy,
p7560
F14
sVposible,
p7561
F1
sVjuyce,
p7562
F2
sVpursuant
p7563
F1
sVuncle,
p7564
F3
sVgulf
p7565
F1
sVwritten
p7566
F2
sVcrime
p7567
F3
sVwooe
p7568
F1
sVwood
p7569
F1
sVbelieving
p7570
F3
sVjusts,
p7571
F1
sVfatherly
p7572
F1
sVallotted
p7573
F3
sVbegging
p7574
F2
sVadmiration
p7575
F4
sVwall,
p7576
F1
sVgracing
p7577
F1
sVdye
p7578
F3
sVhedge
p7579
F1
sVtreachery
p7580
F2
sVmistresse,
p7581
F2
sVreveal
p7582
F2
sVmedusas
p7583
F1
sVfainted
p7584
F1
sVransoms;
p7585
F1
sVpains.
p7586
F1
sVspaniard
p7587
F1
sVbought
p7588
F1
sVmelancholy,
p7589
F5
sVbeholding
p7590
F3
sVbids
p7591
F1
sVviolated
p7592
F1
sVlabors
p7593
F1
sVdaughters,
p7594
F1
sVobliging
p7595
F5
sVdisasters,
p7596
F2
sVobtained,
p7597
F1
sVprofessed
p7598
F2
sVencouraged
p7599
F2
sVsuccesse;
p7600
F1
sVvoluntary
p7601
F3
sVthreatning
p7602
F1
sVweapons
p7603
F1
sVrelief,
p7604
F1
sVfaile
p7605
F2
sVsuccesse.
p7606
F1
sVsuccesse,
p7607
F1
sVsuccesse!
p7608
F1
sVyieldedst
p7609
F1
sVarrival
p7610
F4
sVport.
p7611
F3
sVlabor;
p7612
F1
sVgrieves
p7613
F1
sVrouted,
p7614
F1
sVlabor,
p7615
F1
sVrouted)
p7616
F1
sVharshly
p7617
F2
sVcome
p7618
F57
sVgrieved
p7619
F2
sVsumme
p7620
F1
sVchampayne
p7621
F1
sVhis,
p7622
F5
sVhis.
p7623
F3
sVquiet
p7624
F3
sVcontract
p7625
F2
sVway)
p7626
F1
sVwherin
p7627
F1
sVreliefe
p7628
F1
sVhis;
p7629
F1
sVchampion.
p7630
F1
sVchampion,
p7631
F5
sVdelatory
p7632
F1
sVafterwards
p7633
F6
sVvvere
p7634
F3
sVperiod
p7635
F5
sVresentment
p7636
F1
sVsatisfaction
p7637
F4
sVmockeries?
p7638
F1
sVendeavor
p7639
F8
sVsubscribed
p7640
F1
sVentertainement
p7641
F1
sVtrie
p7642
F1
sVpromises,
p7643
F1
sVhardly
p7644
F6
sVrobbed
p7645
F1
sVblessing
p7646
F3
sVminister
p7647
F2
sVspirit
p7648
F5
sVcase
p7649
F1
sVladeing
p7650
F1
sVbereft
p7651
F1
sVclearly,
p7652
F1
sVlife;
p7653
F5
sVlife:
p7654
F1
sVgenious
p7655
F1
sVwhatsoever,
p7656
F2
sVfurthermost
p7657
F1
sVlife.
p7658
F1
sVlife,
p7659
F44
sVlife)
p7660
F1
sVfuneral:
p7661
F1
sVcordage
p7662
F1
sVperson.
p7663
F1
sVconfident,
p7664
F2
sVperson:
p7665
F2
sVperson?
p7666
F1
sVtreacherously
p7667
F1
sVhelmet
p7668
F1
sVsides,
p7669
F6
sVauthor
p7670
F2
sVgranted
p7671
F6
sVbowl
p7672
F1
sVattributing
p7673
F1
sVfantasm:
p7674
F1
sVfrequented
p7675
F1
sVmusters
p7676
F1
sVbeleif
p7677
F1
sVfortress,
p7678
F1
sVapplaud
p7679
F3
sVvowes
p7680
F1
sVdriven
p7681
F4
sVpersons
p7682
F11
sVguests,
p7683
F1
sVarose
p7684
F1
sVstatue
p7685
F1
sVchanging
p7686
F1
sVweep
p7687
F1
sVperson,)
p7688
F1
sVvowed
p7689
F1
sVoverwhelmed.
p7690
F1
sVevent,
p7691
F1
sVbow,
p7692
F1
sVrecital
p7693
F2
sVthunder-bolts,
p7694
F1
sVwithout
p7695
F39
sVevent:
p7696
F1
sVrelief
p7697
F2
sVbreasts,
p7698
F1
sVreward
p7699
F5
sVbodies
p7700
F4
sVstammering
p7701
F1
sVflowrs
p7702
F1
sVguided
p7703
F2
sVactions
p7704
F9
sVviolent
p7705
F14
sVkill
p7706
F2
sVkill,
p7707
F1
sVreality
p7708
F1
sVkneeling
p7709
F5
sVpurposly
p7710
F1
sVendeare
p7711
F2
sVhappiness,
p7712
F2
sVhint
p7713
F1
sVrose
p7714
F1
sVpossible,
p7715
F9
sVexcept
p7716
F4
sVhappiness;
p7717
F1
sVquality,
p7718
F3
sVkingdom
p7719
F6
sVrendred
p7720
F2
sVbespotted
p7721
F1
sVspreding
p7722
F1
sVaction,
p7723
F4
sVscarfe.
p7724
F1
sVprey,
p7725
F3
sVaccepted
p7726
F2
sVcorrecting
p7727
F1
sVmans.
p7728
F1
sVfurniture
p7729
F1
sVnumbers.
p7730
F1
sVsavior
p7731
F1
sVhappinesse
p7732
F2
sVwoman;
p7733
F1
sVintomb
p7734
F1
sValways
p7735
F1
sVwoman,
p7736
F4
sVreduced
p7737
F2
sVvain,
p7738
F5
sVpacifie
p7739
F1
sVcalme.
p7740
F1
sVcompetition
p7741
F1
sVvain;
p7742
F1
sVsnatched
p7743
F1
sVmiscarriage,
p7744
F1
sVredeeming
p7745
F1
sVo.
p7746
F1
sVseverer
p7747
F2
sVhighest
p7748
F1
sVstops
p7749
F1
sVmoor
p7750
F2
sVobey;
p7751
F1
sVfreed
p7752
F3
sVfables
p7753
F1
sVmoor,
p7754
F6
sVvaine
p7755
F4
sVcommunicate
p7756
F1
sVsherborn
p7757
F1
sVslaughter
p7758
F6
sVbeams,
p7759
F1
sVterrified
p7760
F2
sVmightily
p7761
F1
sVgioseppe
p7762
F1
sVon
p7763
F123
sVoh
p7764
F15
sVzealous
p7765
F1
sVof
p7766
F1990
sVinfidells.
p7767
F1
sVstop,
p7768
F2
sVwhence
p7769
F10
sVstand
p7770
F5
sVow
p7771
F2
sVor
p7772
F202
sVladies
p7773
F7
sVadders
p7774
F1
sVoccasions,
p7775
F2
sVcurses
p7776
F2
sVinstruments
p7777
F1
sVgarb
p7778
F2
sVcursed
p7779
F1
sVvvithholds
p7780
F1
sVrising
p7781
F5
sVrise,
p7782
F5
sVnames,
p7783
F1
sVripe,
p7784
F1
sVshires
p7785
F1
sVsatisfied,
p7786
F1
sVthere
p7787
F87
sVhazards
p7788
F1
sVdisposed
p7789
F2
sVmortal:
p7790
F1
sVmortal;
p7791
F1
sVstrict
p7792
F4
sVmortal,
p7793
F3
sVsatisfied;
p7794
F1
sVmischief
p7795
F1
sVvested
p7796
F1
sVregard
p7797
F1
sVskies:
p7798
F1
sVamongst
p7799
F24
sVcabinet
p7800
F1
sVcatholick
p7801
F1
sVjoyful,
p7802
F1
sVskies,
p7803
F1
sVweeds,
p7804
F1
sVfaster
p7805
F1
sVhazard,
p7806
F1
sVmerit.
p7807
F1
sVstrongly
p7808
F4
sVwords.
p7809
F2
sVwords,
p7810
F7
sVhearts,
p7811
F2
sVking.
p7812
F1
sVvvay.
p7813
F1
sVdenyed
p7814
F1
sVbooke.
p7815
F1
sVdeserve
p7816
F5
sVdiscerned
p7817
F1
sVswords
p7818
F7
sVdisloyalty,
p7819
F1
sVbriefly
p7820
F1
sVthrusting
p7821
F1
sVseparate
p7822
F2
sVdishonour
p7823
F2
sVbullets
p7824
F1
sVyeild
p7825
F10
sVcastle)
p7826
F1
sVspouse
p7827
F4
sVcastle,
p7828
F1
sVapplause
p7829
F1
sVcalls
p7830
F1
sVgood-lake
p7831
F1
sVstumble,
p7832
F1
sVsurgions,
p7833
F1
sVsword.
p7834
F1
sVsword,
p7835
F18
sVlamentations
p7836
F2
sVamazedly
p7837
F2
sVall
p7838
F336
sVwreath
p7839
F2
sVson,
p7840
F5
sV'gainst
p7841
F1
sVfollow
p7842
F16
sVson;
p7843
F2
sVseazed
p7844
F1
sVwakened
p7845
F2
sVbegirt
p7846
F1
sVhomage
p7847
F1
sVrevengeful
p7848
F2
sVfollowes.
p7849
F1
sVsetled
p7850
F3
sVbelonging
p7851
F6
sVwoman
p7852
F1
sVworse
p7853
F6
sVsong
p7854
F5
sVfar
p7855
F30
sVinduce
p7856
F1
sVoblation
p7857
F1
sVsons
p7858
F1
sVpiazza;
p7859
F1
sVgainsay
p7860
F1
sVmadam
p7861
F6
sVranting
p7862
F1
sVlist
p7863
F1
sVowner,
p7864
F1
sVwilt
p7865
F7
sVperswaded,
p7866
F1
sVfamiliarly
p7867
F1
sVtyger
p7868
F1
sVdexterity
p7869
F1
sVrats
p7870
F1
sVten
p7871
F14
sVjusting.
p7872
F1
sVshould,
p7873
F1
sVtoul,
p7874
F1
sVrate
p7875
F2
sVdesign
p7876
F2
sVaptly
p7877
F1
sVsue
p7878
F1
sVfreely,
p7879
F2
sVgiasparo
p7880
F2
sVsun
p7881
F12
sVsum
p7882
F3
sVbrief
p7883
F4
sVnuptials;
p7884
F1
sVpreparing;
p7885
F1
sVchristian
p7886
F10
sVacquir'd
p7887
F1
sVexigencies)
p7888
F1
sVbehaviour
p7889
F1
sVvillaines,
p7890
F1
sVbrill,
p7891
F1
sVlanded,
p7892
F1
sVdirections
p7893
F1
sVtould
p7894
F1
sVobserving
p7895
F1
sVperswasions
p7896
F4
sVespying
p7897
F1
sV'twere
p7898
F1
sVboded
p7899
F1
sVpresented,
p7900
F1
sVmust,
p7901
F1
sVenlivener
p7902
F1
sVthankfully
p7903
F1
sVexcused,
p7904
F1
sVsuddenly
p7905
F3
sVsolitude
p7906
F1
sVlyest;
p7907
F1
sVfearfully
p7908
F1
sVpresume,
p7909
F1
sVknow,
p7910
F7
sVflorence
p7911
F7
sVhorse.
p7912
F1
sVsmal
p7913
F1
sVproceed
p7914
F7
sValways,
p7915
F2
sVsparkes
p7916
F1
sVfaint
p7917
F2
sVwars,
p7918
F6
sVpost,
p7919
F3
sVdebate,
p7920
F1
sVhorses
p7921
F6
sVwretched
p7922
F1
sVknows
p7923
F2
sVwaterworks,
p7924
F1
sVinjuries;
p7925
F1
sVdesparate.
p7926
F1
sVstreits
p7927
F1
sVknown
p7928
F8
sVinjuries,
p7929
F1
sVglad
p7930
F6
sVdomineer
p7931
F1
sVduty
p7932
F4
sVdebated
p7933
F1
sVwherfore
p7934
F1
sVexcursion
p7935
F1
sVlover;
p7936
F2
sVchallenging
p7937
F1
sVconspire
p7938
F3
sVfalshood,
p7939
F1
sVimitation
p7940
F1
sVindies,
p7941
F1
sVpeirce
p7942
F1
sVtreasons?
p7943
F1
sVcourt
p7944
F18
sVdesperation
p7945
F4
sVrather
p7946
F60
sVbreaking
p7947
F6
sVcleansing
p7948
F1
sVloving
p7949
F3
sVredoubled.
p7950
F1
sVinfluences
p7951
F1
sVextinguished
p7952
F1
sVhers)
p7953
F1
sVsilk,
p7954
F1
sVbosome,
p7955
F2
sVhers,
p7956
F1
sVmusick
p7957
F5
sVemulate
p7958
F1
sVgoddess,
p7959
F3
sVgoddess)
p7960
F1
sVunwillingly,
p7961
F2
sVadventure
p7962
F7
sVcashired
p7963
F1
sVgoddess;
p7964
F1
sVproclaimed
p7965
F1
sVbosomes
p7966
F1
sVtalkst
p7967
F1
sVargiers;
p7968
F1
sVconfirmed,
p7969
F1
sVwarrs.
p7970
F1
sVwarrs,
p7971
F1
sVdeparture
p7972
F6
sVjove
p7973
F1
sVconfirmed;
p7974
F1
sVargiers,
p7975
F3
sVshore
p7976
F6
sVargiers.
p7977
F1
sVshade
p7978
F5
sVsunck
p7979
F1
sVcruelties
p7980
F1
sVveines,
p7981
F1
sVmagnanimity
p7982
F2
sVstir,
p7983
F1
sVessence
p7984
F1
sVquarrell
p7985
F1
sVdons
p7986
F1
sV'tis,
p7987
F1
sVoverpressed
p7988
F2
sVstyle
p7989
F1
sVadverse
p7990
F8
sValready,
p7991
F2
sVinward
p7992
F5
sVfrigat,
p7993
F1
sVharmless
p7994
F1
sVdisaproving
p7995
F1
sVthreescore
p7996
F2
sVmight
p7997
F143
sValter
p7998
F4
sVoftentimes
p7999
F2
sVreturn
p8000
F33
sVgenerously
p8001
F1
sVlittle,
p8002
F1
sVmiddest
p8003
F1
sVunrefined
p8004
F1
sVextravagantly)
p8005
F1
sVoutrage,
p8006
F1
sVdancings,
p8007
F1
sVadventurous
p8008
F1
sVinstructions
p8009
F1
sVstiled
p8010
F3
sVfearfull
p8011
F1
sVgally,
p8012
F1
sVdone
p8013
F25
sVdifficult
p8014
F1
sVfriendship
p8015
F23
sVpirates
p8016
F4
sVweight
p8017
F2
sVoppressed
p8018
F1
sVrashly;
p8019
F1
sVsurprize
p8020
F1
sVexpect
p8021
F3
sVundertake
p8022
F2
sVturine:
p8023
F1
sVreverent
p8024
F1
sVrepast,
p8025
F1
sVwondered
p8026
F1
sVinclining
p8027
F1
sVhealth
p8028
F1
sVhill
p8029
F1
sVinduced
p8030
F2
sVconquerours
p8031
F1
sVtrophyes
p8032
F1
sVconceived
p8033
F1
sVboldness
p8034
F2
sVpirate;
p8035
F1
sViohnson,
p8036
F1
sVreguarding
p8037
F1
sVoraizons
p8038
F1
sVattendant
p8039
F1
sVpractize
p8040
F1
sVjew
p8041
F2
sVthrown
p8042
F7
sVbeast
p8043
F1
sVconsequence
p8044
F1
sVfallen
p8045
F3
sVfeed
p8046
F3
sVseeming
p8047
F7
sVfeel
p8048
F3
sVrelate
p8049
F10
sVtreasure,
p8050
F2
sVfancy
p8051
F7
sVfeet
p8052
F7
sVencreased
p8053
F1
sVseas;
p8054
F1
sVtreasure;
p8055
F1
sVpasses
p8056
F1
sVstory
p8057
F20
sVbreathless
p8058
F2
sVthoughts.
p8059
F1
sVgates,
p8060
F6
sVthoughts,
p8061
F5
sVleading
p8062
F1
sVcoasts
p8063
F1
sVhangs
p8064
F1
sVthoughts;
p8065
F1
sVthoughts:
p8066
F1
sVaffable,
p8067
F1
sVpoints,
p8068
F1
sVstorm
p8069
F4
sVrecovered
p8070
F6
sVattendants
p8071
F2
sVpains
p8072
F2
sVi'me
p8073
F1
sVfrom.
p8074
F1
sVimportunity
p8075
F2
sVconvinced
p8076
F1
sVfrom;
p8077
F1
sVking
p8078
F49
sVkind
p8079
F1
sVplainly,
p8080
F1
sV(seeing
p8081
F1
sVdouble
p8082
F3
sVgrimaldi's,
p8083
F1
sVsuperfluity
p8084
F1
sVcoast,
p8085
F3
sVcoast.
p8086
F1
sVvertue
p8087
F2
sVwrongest
p8088
F1
sVwell
p8089
F44
sVpreist
p8090
F1
sVgale
p8091
F2
sVamadei,
p8092
F1
sVwide-stretching
p8093
F1
sVfreeing
p8094
F1
sVrevested
p8095
F1
sVnights
p8096
F4
sVport
p8097
F3
sV(hast
p8098
F1
sVwindow,
p8099
F9
sVfinding
p8100
F18
sVopposites,
p8101
F3
sVadded
p8102
F5
sVchildless,
p8103
F1
sVreach
p8104
F6
sVmari-a-na
p8105
F1
sVvertues.
p8106
F1
sVadder
p8107
F1
sVvertues,
p8108
F2
sVnothing
p8109
F34
sVtongue.
p8110
F1
sVtongue,
p8111
F2
sVnight;
p8112
F3
sVsecurity,
p8113
F1
sVcourtships,
p8114
F1
sVnight,
p8115
F10
sVsafety;
p8116
F3
sVnight.
p8117
F2
sVbeard,
p8118
F2
sVrevels,
p8119
F1
sVvisages,
p8120
F1
sVfond
p8121
F3
sVnocency
p8122
F1
sVlaments
p8123
F1
sVdeserts
p8124
F5
sVgrace
p8125
F8
sVbetray
p8126
F8
sVrepulse,
p8127
F1
sVpersistest
p8128
F1
sVprospered;
p8129
F1
sVhir
p8130
F2
sVhis
p8131
F886
sVpearl,
p8132
F1
sVmiseries,
p8133
F4
sVjourney:
p8134
F1
sVjourney;
p8135
F1
sVmiseries:
p8136
F1
sVgaine
p8137
F1
sVhid
p8138
F1
sVmistaken
p8139
F1
sVflame,
p8140
F2
sVjourney,
p8141
F1
sVdauncey.
p8142
F1
sVhim
p8143
F364
sVcries
p8144
F4
sVrepulses
p8145
F3
sVbeautifull
p8146
F1
sVdesert,
p8147
F2
sVinsensible
p8148
F1
sVsatisfy
p8149
F1
sVcity)
p8150
F1
sVart
p8151
F17
sVcity,
p8152
F7
sVfastnesses;
p8153
F1
sVdumb
p8154
F1
sVare
p8155
F72
sVchambers
p8156
F2
sVarm
p8157
F7
sVromances
p8158
F2
sVthreats
p8159
F3
sVadvanced,
p8160
F1
sVanatomists
p8161
F1
sVvarious
p8162
F6
sVenglish-woman,
p8163
F1
sVvillanous
p8164
F1
sVnumerous
p8165
F1
sVafterwards,
p8166
F1
sVlamenting
p8167
F4
sVafter,
p8168
F2
sVromance,
p8169
F1
sVromance.
p8170
F4
sVchamber.
p8171
F1
sVchamber,
p8172
F13
sVsold
p8173
F2
sVsole
p8174
F7
sVdays.
p8175
F2
sVdays,
p8176
F2
sVsurprized,
p8177
F1
sVwhiteness
p8178
F1
sVintire
p8179
F1
sVc
F1
sVignominy
p8180
F1
sVlicense
p8181
F3
sVexcesse
p8182
F2
sVfinde
p8183
F23
sVo'th
p8184
F2
sVbecame
p8185
F9
sVcouragious
p8186
F1
sVunion:
p8187
F1
sVthem,)
p8188
F1
sVreside
p8189
F2
sVflies
p8190
F1
sVcourtesy,
p8191
F1
sVknew,
p8192
F1
sVby-ways:
p8193
F1
sVreasons
p8194
F8
sVsweet
p8195
F11
sVsences
p8196
F3
sVperformest
p8197
F1
sVthere,
p8198
F12
sVthere.
p8199
F1
sVmarch,
p8200
F1
sVconfesse
p8201
F8
sVservice,
p8202
F3
sVdue
p8203
F13
sVwhom
p8204
F81
sVundauntedly
p8205
F1
sVthere;
p8206
F2
sVaffectionate
p8207
F1
sVflight
p8208
F2
sVdemand
p8209
F2
sVflie,
p8210
F1
sVfight:
p8211
F1
sVconfess,
p8212
F7
sVboast
p8213
F5
sVbeauty.
p8214
F1
sVcivility
p8215
F7
sVgeorgio
p8216
F1
sVseamen,
p8217
F2
sVparents)
p8218
F1
sVseamen;
p8219
F1
sVparents,
p8220
F2
sVarras,
p8221
F1
sVlodges
p8222
F1
sVlodged
p8223
F2
sVrid
p8224
F4
sVarrive,
p8225
F1
sVconstancy,
p8226
F4
sVcame.
p8227
F1
sVaway,
p8228
F8
sVample
p8229
F2
sVblustring
p8230
F1
sVexordium,
p8231
F1
sVshire
p8232
F1
sVesteemed
p8233
F4
sVmanners,
p8234
F2
sVstrangers
p8235
F2
sVdaughters
p8236
F1
sVporzcachy
p8237
F1
sVdebonaire,
p8238
F1
sVflows
p8239
F3
sVflown
p8240
F1
sVarrived
p8241
F28
sVdaughter,
p8242
F2
sVsoul?
p8243
F1
sVsolemnity
p8244
F2
sVtry
p8245
F4
sVpeople.
p8246
F1
sVmeridian:
p8247
F1
sVcheer
p8248
F1
sVoffers,
p8249
F1
sVstarved
p8250
F1
sVlength,
p8251
F1
sVdares
p8252
F4
sVrequital
p8253
F4
sVmurthered
p8254
F1
sVabilities
p8255
F3
sVendeavour
p8256
F11
sVknot
p8257
F1
sV(replyed
p8258
F11
sVwore?
p8259
F1
sVawake,
p8260
F2
sVcomplain,
p8261
F1
sVprince
p8262
F11
sVmeanest
p8263
F1
sVloading
p8264
F1
sVmaria,
p8265
F5
sVmaria.
p8266
F1
sVspeedily
p8267
F1
sVcommander,
p8268
F2
sVcommander.
p8269
F1
sVtormented
p8270
F1
sVcaitife,
p8271
F1
sVfindes
p8272
F1
sVcustomers
p8273
F1
sVquestion,
p8274
F1
sVawaked
p8275
F2
sVresplendant
p8276
F2
sVforeet,
p8277
F1
sVcommanders
p8278
F9
sVviolation;
p8279
F1
sVrhodomontado,
p8280
F1
sVcampagna
p8281
F1
sVrefuse.
p8282
F1
sVorder,
p8283
F4
sVunderstood
p8284
F4
sVage;
p8285
F1
sVeffecting,
p8286
F1
sVdragons;
p8287
F1
sVjewell,
p8288
F1
sVwomen;
p8289
F1
sVvindicate.
p8290
F1
sVflaminii,
p8291
F2
sVturn'd
p8292
F1
sVrefused
p8293
F4
sVvulgar.
p8294
F1
sVjewells
p8295
F2
sVhatred
p8296
F3
sVyouthful
p8297
F1
sVtherein
p8298
F5
sVdeafness
p8299
F1
sVconquest
p8300
F4
sVtyrhene
p8301
F1
sVscorne
p8302
F1
sVventuro,
p8303
F2
sVartifice
p8304
F1
sVioffer
p8305
F8
sVcongue)
p8306
F1
sVfast
p8307
F3
sVbatteries,
p8308
F1
sVscouts,
p8309
F2
sVseasonable,
p8310
F1
sVscouts)
p8311
F1
sVcounterpoise
p8312
F1
sVmountains
p8313
F1
sVplunge
p8314
F1
sVpease:
p8315
F1
sVaudacious
p8316
F1
sVgave;
p8317
F1
sVdefeat,
p8318
F1
sVgave.
p8319
F1
sVraising
p8320
F4
sVprivacies,
p8321
F1
sVgallantry
p8322
F6
sVcountrey,
p8323
F1
sVcalled
p8324
F14
sVburial,
p8325
F1
sVcountrey;
p8326
F1
sVassociated
p8327
F1
sVallayed
p8328
F1
sVbreast.
p8329
F1
sVbreast,
p8330
F1
sVrally
p8331
F1
sVspinola,
p8332
F28
sVloyal
p8333
F4
sVknowledge,
p8334
F1
sVproofs
p8335
F1
sVmalicious
p8336
F1
sVdepart,
p8337
F4
sVpoet,
p8338
F1
sVnick
p8339
F1
sVevill
p8340
F1
sVdepart;
p8341
F1
sVfights,
p8342
F1
sValarum
p8343
F1
sVhelping
p8344
F2
sVlascivious
p8345
F2
sVsanative
p8346
F1
sVassociate;
p8347
F1
sVback:
p8348
F1
sVmamoroh
p8349
F1
sVvice
p8350
F2
sVremit
p8351
F1
sVimpatient
p8352
F2
sVback,
p8353
F3
sVgripes,
p8354
F1
sVscrole
p8355
F1
sVevil,
p8356
F1
sVcities,
p8357
F1
sVweighty
p8358
F2
sVonce
p8359
F26
sVfilled,
p8360
F1
sVwilfulness
p8361
F1
sVissued
p8362
F3
sVresistance
p8363
F4
sVvalient
p8364
F3
sVwinds
p8365
F2
sValied
p8366
F1
sVdiscomposure,
p8367
F3
sVparadoxes,
p8368
F1
sVespyed
p8369
F2
sVbefal
p8370
F1
sVobstinate
p8371
F2
sVbreach
p8372
F3
sVsorrowful)
p8373
F1
sVissue,
p8374
F2
sVbreathing
p8375
F3
sVseized
p8376
F6
sVconfronted,
p8377
F1
sVwind,
p8378
F1
sVposture
p8379
F3
sVdeale
p8380
F1
sVnotes
p8381
F1
sVlanguage,
p8382
F1
sVsolicite
p8383
F1
sVdealt
p8384
F2
sVpoles,
p8385
F1
sVconcluded
p8386
F7
sVmeans,
p8387
F2
sVsex,
p8388
F2
sVmalice
p8389
F2
sVenamoured
p8390
F2
sVvveeks
p8391
F1
sVplead
p8392
F1
sVusually,
p8393
F1
sVabominable
p8394
F1
sVdesire.
p8395
F2
sVveins,
p8396
F2
sVladyship
p8397
F1
sVinticements
p8398
F1
sVsecrets,
p8399
F1
sVrelent
p8400
F1
sVsecrets?
p8401
F1
sVimbellished
p8402
F2
sVdesires
p8403
F14
sVdesired
p8404
F20
sVseparation
p8405
F1
sVtragedy,
p8406
F3
sVdistressed
p8407
F6
sVleaving
p8408
F7
sVarival
p8409
F1
sVsable,
p8410
F1
sVrequite
p8411
F1
sVchaste
p8412
F1
sVrobb'd
p8413
F3
sVdeservedly
p8414
F2
sVapt
p8415
F1
sVdroopt
p8416
F1
sVlodging
p8417
F2
sVpassionatly
p8418
F1
sVboasts
p8419
F1
sVgalloped
p8420
F1
sVuse
p8421
F9
sVbishoprick.
p8422
F1
sVfrom
p8423
F266
sV&
F21
sVfew
p8424
F23
sVpossession
p8425
F2
sVparliament
p8426
F1
sVo're
p8427
F1
sVmessenger;
p8428
F1
sVchast.
p8429
F1
sVinclined
p8430
F5
sVchast,
p8431
F2
sVheir
p8432
F1
sVmessenger,
p8433
F12
sVmessenger)
p8434
F1
sVrecount
p8435
F3
sVrare
p8436
F2
sVwomen
p8437
F2
sVannoy
p8438
F1
sVaugment
p8439
F2
sVdisaprove,
p8440
F1
sVus,
p8441
F51
sVforreign
p8442
F1
sVfreedom
p8443
F1
sVus;
p8444
F8
sVproof
p8445
F1
sVthirsty
p8446
F1
sVvillain
p8447
F6
sVheaving
p8448
F1
sVsomething
p8449
F3
sVprowess
p8450
F1
sVrape
p8451
F1
sVcourtship,
p8452
F1
sVsir
p8453
F17
sVlabours.
p8454
F1
sVlavishly,
p8455
F1
sVsit
p8456
F2
sVsix
p8457
F7
sVcheif
p8458
F1
sVfortunate
p8459
F3
sVdismissing
p8460
F2
sVinstead
p8461
F3
sVsin
p8462
F1
sVremedy;
p8463
F1
sVcounterfeits
p8464
F1
sVattend
p8465
F15
sVhazard
p8466
F6
sVthirst.
p8467
F1
sVabuse
p8468
F2
sVmen
p8469
F14
sVremedy,
p8470
F2
sVhalfe
p8471
F1
sVdistraction,
p8472
F1
sVreadiness
p8473
F5
sVprythee?
p8474
F1
sVvillan
p8475
F1
sVlight
p8476
F4
sVinterrupted
p8477
F5
sVaffection,
p8478
F12
sVbeauties
p8479
F8
sVtheft
p8480
F1
sVinforced
p8481
F5
sVinterpreted
p8482
F1
sVspeedily,
p8483
F1
sVwhilst
p8484
F29
sVlookt
p8485
F2
sVdearest
p8486
F9
sVlooks
p8487
F4
sVtyrant
p8488
F5
sVtherevvithall
p8489
F1
sVcovered,
p8490
F1
sVwilderness
p8491
F1
sVworld:
p8492
F1
sVworld;
p8493
F1
sVindisposed,
p8494
F1
sVships
p8495
F4
sVsouldier,
p8496
F2
sVtopmast-head
p8497
F1
sVrestrain
p8498
F7
sVchoose
p8499
F4
sVcovered
p8500
F4
sVdistraction
p8501
F2
sVworld.
p8502
F2
sVworld,
p8503
F8
sVhappened,
p8504
F4
sVsailes,
p8505
F1
sVpractice
p8506
F2
sVreligion,
p8507
F7
sVimployed
p8508
F1
sVflew
p8509
F4
sVinvitations
p8510
F1
sVambition
p8511
F2
sVaffections
p8512
F3
sVfled
p8513
F13
sVworlds
p8514
F2
sVship;
p8515
F1
sVwretch?
p8516
F1
sVgrisly
p8517
F1
sVpowerfull
p8518
F1
sVfeast
p8519
F1
sVsouldiers
p8520
F5
sVby,
p8521
F3
sVship,
p8522
F12
sVship)
p8523
F1
sVhead-long
p8524
F2
sVconflict,
p8525
F2
sVrelated
p8526
F4
sVconflict;
p8527
F1
sVmaintain,
p8528
F1
sVour
p8529
F265
sVout
p8530
F116
sVperforme
p8531
F3
sVshaken,
p8532
F1
sVacknowledgment
p8533
F1
sVassured,
p8534
F1
sVsufficed
p8535
F1
sVpursued,
p8536
F2
sVfiery,
p8537
F1
sVcourt;
p8538
F1
sVimpart
p8539
F5
sVhonorable
p8540
F1
sVattentively
p8541
F1
sVseverino
p8542
F1
sVdisclose
p8543
F2
sVrelate,
p8544
F2
sVshowres
p8545
F1
sVdishes,
p8546
F1
sVi'ts
p8547
F1
sVhorace
p8548
F1
sVconversation
p8549
F1
sVregaining
p8550
F2
sVhence
p8551
F1
sVwalls:
p8552
F1
sVperform;
p8553
F1
sVtacked
p8554
F1
sVplainly
p8555
F2
sVrudenesse,
p8556
F1
sVhitherto
p8557
F5
sVtwas
p8558
F1
sVcalled,
p8559
F1
sVcalled)
p8560
F3
sVuniting
p8561
F1
sV65.
p8562
F1
sVunknown
p8563
F6
sVhumour,
p8564
F1
sVgalley
p8565
F1
sVproved,
p8566
F1
sVrejoycing?
p8567
F1
sVwel-being,
p8568
F1
sVtheir
p8569
F296
sVenough,
p8570
F2
sVferrara's
p8571
F14
sVbadness
p8572
F1
sVgod's
p8573
F1
sVagility
p8574
F1
sVrover;
p8575
F1
sVhamet,
p8576
F1
sVunfortunate;
p8577
F1
sVdiminish
p8578
F1
sVstragling
p8579
F1
sVmuley
p8580
F4
sVholland
p8581
F1
sVriches
p8582
F8
sVsupream
p8583
F2
sVretreat,
p8584
F2
sVfrugal
p8585
F1
sVabated,
p8586
F1
sVpacified,
p8587
F1
sVpeales
p8588
F1
sVoutwardly
p8589
F1
sValfonso
p8590
F1
sVadversary,
p8591
F1
sVlinked
p8592
F1
sVsharp-witted
p8593
F1
sVattain;
p8594
F1
sVrout
p8595
F1
sVadmittance
p8596
F1
sVprison)
p8597
F1
sVfie,
p8598
F3
sVwhich
p8599
F491
sVdivert
p8600
F4
sVcloake,
p8601
F1
sVcombat
p8602
F2
sVwho
p8603
F237
sVoffend
p8604
F1
sVmantua
p8605
F11
sVwhy
p8606
F13
sVdeny
p8607
F15
sVlookes
p8608
F2
sVencamped,
p8609
F1
sVprisoners,
p8610
F6
sVlooked
p8611
F1
sVmunitioned
p8612
F1
sVeurope,
p8613
F2
sVgain
p8614
F9
sVcourts
p8615
F2
sVchances
p8616
F2
sVword,
p8617
F3
sVagreed
p8618
F5
sVdistresse
p8619
F1
sVone,
p8620
F11
sVwealth,
p8621
F1
sVaccknowledge
p8622
F1
sV(sir)
p8623
F1
sVserving
p8624
F1
sVmonument,
p8625
F2
sVutter
p8626
F2
sVfear
p8627
F24
sVone;
p8628
F1
sVpleased
p8629
F19
sVentring
p8630
F2
sVchanced
p8631
F2
sVtrue,
p8632
F13
sVpirates,
p8633
F1
sVsuccour
p8634
F1
sVfurnished
p8635
F3
sVmany,
p8636
F3
sVjoy's;
p8637
F1
sVtrue;
p8638
F1
sVsolemnized,
p8639
F1
sVthousands
p8640
F2
sVspun
p8641
F1
sVprosecute
p8642
F2
sVsued
p8643
F2
sVdonati
p8644
F4
sVno!
p8645
F1
sVones
p8646
F1
sVcircumstances,
p8647
F2
sVwords
p8648
F33
sVchance,
p8649
F2
sVspur
p8650
F2
sVmahomet
p8651
F1
sVmombaza,
p8652
F1
sVundergone,
p8653
F1
sVmarried
p8654
F1
sVgenerations
p8655
F1
sVdeceived
p8656
F1
sVeurope
p8657
F2
sVshedding
p8658
F1
sVconversation,
p8659
F1
sVmilder
p8660
F1
sVno;
p8661
F1
sVturbulent
p8662
F1
sVmerits
p8663
F1
sVcomeliness
p8664
F1
sVbrightness,
p8665
F1
sVendeavours,
p8666
F1
sVground)
p8667
F1
sVcommand;
p8668
F1
sVmonstrous
p8669
F2
sVcarriage
p8670
F3
sValwaies
p8671
F2
sVfavor
p8672
F6
sVground:
p8673
F1
sVground;
p8674
F1
sVboughs
p8675
F2
sVcommand,
p8676
F5
sVcommand.
p8677
F2
sVglory,
p8678
F5
sVtheeves,
p8679
F1
sVability
p8680
F1
sVopening
p8681
F3
sVjoy
p8682
F21
sVmerit,
p8683
F1
sVspoil
p8684
F1
sVswift
p8685
F2
sVdeclining
p8686
F2
sVcommands
p8687
F7
sVpiece
p8688
F3
sVdireful
p8689
F1
sVunto,
p8690
F1
sVperceived,
p8691
F2
sVvaliantly
p8692
F2
sVchristendom.
p8693
F1
sVeyes)
p8694
F1
sVcanopy
p8695
F1
sVsafely
p8696
F5
sVgrounds
p8697
F1
sVtorments
p8698
F1
sVprosper,
p8699
F1
sVsworne
p8700
F1
sVwalk
p8701
F4
sVcriticks;
p8702
F1
sVnumbers,
p8703
F7
sVcloaths
p8704
F2
sVworldly
p8705
F1
sVrespect
p8706
F2
sVbutcher,
p8707
F1
sVchoice,
p8708
F1
sVoffers
p8709
F1
sVwolves,
p8710
F1
sVremedies
p8711
F1
sVwholy
p8712
F2
sVgoodlake,
p8713
F29
sVcommanders,
p8714
F1
sVproudest
p8715
F2
sVsufficient
p8716
F11
sVsouldiers)
p8717
F1
sVsouldiers,
p8718
F3
sVunmoved
p8719
F1
sVrepetition
p8720
F1
sVtorment,
p8721
F2
sVpresent
p8722
F35
sVuncivil,
p8723
F1
sVfearful
p8724
F3
sVrashnesse
p8725
F1
sVwill
p8726
F125
sVlived,
p8727
F2
sVhatton's,
p8728
F1
sVapprehend
p8729
F1
sVthus
p8730
F61
sVno.
p8731
F1
sVcarelesly
p8732
F1
sVmerrited
p8733
F1
sVlayen
p8734
F1
sVbrandished
p8735
F1
sVeducation
p8736
F1
sVperhaps
p8737
F10
sVunite
p8738
F1
sVthese.
p8739
F1
sVpropensity
p8740
F1
sVcunning
p8741
F2
sVexuberance
p8742
F1
sVmerciful
p8743
F1
sVmaner,
p8744
F2
sVcrissippus
p8745
F1
sVundertake,
p8746
F1
sVresiding
p8747
F1
sVglisten,
p8748
F1
sVslave
p8749
F3
sVaudience.
p8750
F1
sVaudience,
p8751
F1
sVconspired
p8752
F1
sVreliefe,
p8753
F1
sVget,
p8754
F1
sVobeysance,
p8755
F1
sVvechia,
p8756
F1
sVspectator
p8757
F1
sVenglish
p8758
F36
sVcried
p8759
F10
sVnot
p8760
F533
sVprovision,
p8761
F2
sVhappiness
p8762
F10
sVwonder,
p8763
F1
sVsupply
p8764
F8
sVsky
p8765
F2
sVcovetise
p8766
F1
sVother
p8767
F84
sVusage
p8768
F1
sVearnestly
p8769
F9
sVjarr
p8770
F1
sVacted
p8771
F2
sVsick
p8772
F1
sVprovisions
p8773
F2
sVcame,
p8774
F2
sVdanae,
p8775
F1
sVexecute
p8776
F3
sVknow
p8777
F78
sVpresume
p8778
F4
sVpress
p8779
F2
sVhollow
p8780
F1
sVinslaved
p8781
F1
sVself-guiltiness,
p8782
F1
sVtestimony
p8783
F3
sVavaile
p8784
F1
sVhosts
p8785
F1
sVwonders
p8786
F3
sVredeem;
p8787
F1
sVexceed
p8788
F9
sVbecause
p8789
F27
sVtown?
p8790
F1
sVchurch
p8791
F1
sVmantua's
p8792
F1
sVunattempted
p8793
F1
sVpast,
p8794
F4
sVneglecting
p8795
F1
sVscythian
p8796
F1
sVwhisprings
p8797
F1
sVhimselfe
p8798
F17
sVlead
p8799
F2
sVsake,
p8800
F3
sVbandetti
p8801
F1
sVleap
p8802
F1
sVsake;
p8803
F2
sVchellabee
p8804
F1
sVpoets
p8805
F1
sVobey
p8806
F4
sVhewne
p8807
F1
sVmurdered
p8808
F2
sVconveyed
p8809
F1
sVfrustrate
p8810
F1
sVthrone
p8811
F2
sVheroick
p8812
F9
sVmine;
p8813
F1
sVgetting
p8814
F5
sVhimself,
p8815
F16
sVpommel
p8816
F1
sVurged
p8817
F1
sVmine.
p8818
F2
sVmine,
p8819
F18
sVswear
p8820
F2
sVhimself;
p8821
F2
sVown
p8822
F78
sVthirdly,
p8823
F1
sVowe
p8824
F6
sVpromise
p8825
F10
sVcompleating
p8826
F1
sVeffeminate
p8827
F1
sVlanguishing,
p8828
F1
sVsecret
p8829
F2
sVhamet;
p8830
F1
sVcaptains
p8831
F3
sVintention
p8832
F3
sVessex,
p8833
F1
sVrelent,
p8834
F1
sVcaptaine
p8835
F2
sV(during
p8836
F2
sVbarque,
p8837
F1
sVferrarese,
p8838
F1
sVvolume
p8839
F1
sVbarque:
p8840
F1
sVmade
p8841
F178
sVcaptain;
p8842
F1
sVwhether
p8843
F23
sVprotesting
p8844
F3
sVinfanta
p8845
F2
sVthis,
p8846
F9
sVdistract
p8847
F1
sVthis.
p8848
F2
sVcaptain,
p8849
F8
sVbelow
p8850
F1
sVdemonstrate
p8851
F2
sVthis;
p8852
F1
sVfavorites,
p8853
F1
sVcombatants
p8854
F2
sVeagerness
p8855
F1
sVcoward-souls.
p8856
F1
sVgoodlake!
p8857
F1
sVgoodlake.
p8858
F1
sVsquadrons?
p8859
F1
sVlegions,
p8860
F1
sV---
p8861
F1
sVgoodness
p8862
F4
sVwell-manned
p8863
F1
sVgoodlake;
p8864
F2
sVmutual
p8865
F2
sVavoided
p8866
F1
sVincredible
p8867
F4
sVbook
p8868
F4
sVconspirer
p8869
F1
sVboon
p8870
F2
sVimportuned
p8871
F1
sVconclusion
p8872
F1
sVlance
p8873
F3
sVirons
p8874
F1
sVrouling
p8875
F2
sVcruelty
p8876
F5
sVkinde
p8877
F7
sVgoodlakes
p8878
F1
sVearthly
p8879
F2
sVthreatnest,
p8880
F1
sVswound,
p8881
F3
sVadvantagious
p8882
F2
sVspace
p8883
F5
sVjewel
p8884
F8
sVillustrissimo's
p8885
F1
sVunderstand
p8886
F2
s.