ccollections
defaultdict
p1
(c__builtin__
float
p2
tRp3
Vgovernment,
p4
F1
sVcoelestial
p5
F1
sVall
p6
F9
sVcompanions
p7
F1
sVstored.
p8
F2
sVmagalan;
p9
F1
sVfretum
p10
F5
sVdieu,
p11
F1
sVcaused
p12
F2
sVboth
p13
F5
sVson,
p14
F1
sVeldest
p15
F3
sVmonth
p16
F1
sVfour
p17
F6
sVdelightful;
p18
F1
sVstature
p19
F1
sVmile
p20
F1
sVcomputation
p21
F2
sVgovernment;
p22
F1
sVgo
p23
F1
sVcacique,
p24
F2
sVexpressions
p25
F1
sVsacrifices
p26
F2
sVespied
p27
F4
sV(which
p28
F1
sVnunc
p29
F1
sVseemed
p30
F1
sVshattered
p31
F1
sVup,
p32
F1
sVdoth
p33
F1
sVsmooth,
p34
F1
sVpointing
p35
F2
sVisland;
p36
F1
sV(for
p37
F2
sVfather
p38
F3
sVthence);
p39
F1
sVsend
p40
F2
sVtime;
p41
F1
sVto
p42
F106
sVaccording
p43
F2
sVcacique's
p44
F1
sVgovernment
p45
F3
sVcloud,
p46
F1
sVassist
p47
F1
sVagreed,
p48
F1
sVtown
p49
F7
sVsaunders,
p50
F1
sVreturned
p51
F2
sVcaciques
p52
F1
sVwind,
p53
F1
sVvery
p54
F16
sVislands;
p55
F1
sVdesired
p56
F3
sVsixteen
p57
F1
sVguarda
p58
F1
sVfloated
p59
F1
sVchoice
p60
F1
sVwind;
p61
F1
sVevery
p62
F1
sVgood-night,
p63
F1
sVtelling
p64
F3
sVmine,
p65
F1
sVtrouble
p66
F1
sVcontinued
p67
F1
sVabundance,
p68
F1
sVislands,
p69
F1
sVmarried,
p70
F1
sVseverely
p71
F1
sVmarried.
p72
F1
sVpudor---
p73
F1
sVvos
p74
F1
sVamber,
p75
F1
sVhath
p76
F1
sVdid
p77
F9
sVmarry
p78
F1
sVaccidentally
p79
F1
sVasked
p80
F1
sVlanguage,
p81
F2
sVlarge
p82
F3
sVfearful
p83
F2
sVjack-flag,
p84
F3
sVstature.
p85
F1
sVsmall
p86
F2
sVwoven
p87
F1
sVfather-in-
p88
F1
sVclothes
p89
F1
sVenjoy
p90
F1
sVupper
p91
F1
sVtwelve
p92
F2
sVchecker'd
p93
F1
sVpeopled;
p94
F1
sVmortalia
p95
F1
sVme,
p96
F7
sVadorning
p97
F1
sVme.
p98
F1
sVdiscover
p99
F2
sVconducted:
p100
F1
sVencreasing,
p101
F1
sVsecond
p102
F5
sVnoise
p103
F1
sVdesign
p104
F1
sVvalue
p105
F2
sV1670;
p106
F1
sVearth
p107
F1
sVgrowing
p108
F1
sVliquor:
p109
F1
sVsailed
p110
F3
sVmovyle
p111
F2
sVfear
p112
F2
sVme;
p113
F2
sVother;
p114
F1
sVwhat
p115
F9
sVstands
p116
F1
sVecclesiastical
p117
F1
sVgiving
p118
F2
sVsun
p119
F1
sVchildren
p120
F3
sVdeer,
p121
F1
sVhim,
p122
F1
sVleave,
p123
F3
sVabove
p124
F5
sVrest,
p125
F1
sVgold;
p126
F1
sVnine
p127
F1
sVtribute
p128
F1
sVthereabouts
p129
F1
sVgeneral,
p130
F1
sVexcept
p131
F2
sVtold
p132
F3
sVglass:
p133
F1
sVship's
p134
F1
sVfull
p135
F2
sVintelligent,
p136
F1
sVwhose
p137
F3
sVnever
p138
F2
sVhere
p139
F9
sVfire,
p140
F1
sVstreights
p141
F1
sVmet
p142
F1
sVriver.
p143
F1
sVthem
p144
F13
sVtwentieth
p145
F1
sVdrink:
p146
F1
sVothers
p147
F1
sValong
p148
F5
sVfared
p149
F1
sVobserving
p150
F1
sVappears
p151
F2
sVgoats,
p152
F1
sVhere;
p153
F1
sVpleasant
p154
F4
sVgreat
p155
F8
sVlikewise.
p156
F1
sVthirty
p157
F1
sVhouses
p158
F2
sVreceive
p159
F2
sVpearls
p160
F1
sVcocotonuch,
p161
F1
sVthrough
p162
F1
sVanchor
p163
F2
sVwomen
p164
F3
sVawakened,
p165
F1
sVhere,
p166
F1
sVancient
p167
F1
sVnatives
p168
F2
sVfathom:
p169
F1
sVventured
p170
F3
sVkindly
p171
F1
sVcompany.
p172
F1
sVverdure
p173
F1
sVcompany,
p174
F1
sVsecure
p175
F1
sVfamily
p176
F2
sVlords
p177
F1
sVunto
p178
F1
sVcrosswise.
p179
F1
sVhigh,
p180
F1
sVprivate
p181
F1
sVerected
p182
F1
sVbrought
p183
F2
sVtill
p184
F3
sVamsterdam,
p185
F1
sVdiversions,
p186
F1
sVcloud
p187
F1
sVreadily
p188
F1
sVslept,
p189
F1
sVscelerata
p190
F1
sVpermitted
p191
F1
sVfrom
p192
F15
sVproceed
p193
F2
sVfuega,
p194
F1
sVrepose.
p195
F1
sVremains
p196
F1
sVhermanos;
p197
F1
sVwiped
p198
F1
sVbehind
p199
F2
sVvisit
p200
F1
sVtwo
p201
F9
sVcornelius
p202
F1
sVnext
p203
F3
sVearnestly
p204
F1
sVeleven
p205
F1
sVlive
p206
F3
sVdoubt
p207
F1
sVgreensads,
p208
F1
sVtherefore
p209
F3
sVtaken
p210
F4
sVways;
p211
F1
sVflying-faulcon:
p212
F1
sVpermit)
p213
F1
sVrefusal
p214
F1
sVmore
p215
F8
sVpossession
p216
F1
sVpencil
p217
F1
sVentrance
p218
F2
sVrich
p219
F2
sVdeath;
p220
F1
sVcomparison
p221
F1
sVname.
p222
F2
sVthus
p223
F4
sVcompany
p224
F3
sVdiscovered,
p225
F3
sVcanoo
p226
F2
sVgo.
p227
F1
sVdiscoursed,
p228
F1
sVdrowned.
p229
F1
sVbroke
p230
F1
sVparticular
p231
F3
sVdecember.
p232
F1
sVhole
p233
F2
sVshore,
p234
F1
sVsorts,
p235
F3
sVcunning
p236
F1
sVme
p237
F10
sVnone
p238
F1
sVvalued
p239
F1
sVleft
p240
F2
sVstore.
p241
F1
sVthis
p242
F45
sVus.
p243
F1
sVus,
p244
F6
sVjudg
p245
F2
sVwater-side
p246
F1
sVlongitude
p247
F1
sVhairy-
p248
F1
sVdel
p249
F3
sVservants
p250
F1
sVhenry
p251
F3
sVfollowing
p252
F4
sVmaking
p253
F2
sVmy
p254
F33
sVus:
p255
F1
sVperformed
p256
F1
sVspy
p257
F1
sVhigh;
p258
F1
sVtap
p259
F1
sVtrump
p260
F1
sVgive
p261
F4
sVcomplexion;
p262
F1
sVin
p263
F78
sVaccept
p264
F1
sVdays
p265
F2
sVhigh
p266
F1
sVshore;
p267
F1
sVsomething
p268
F2
sVwant
p269
F1
sVallowed
p270
F1
sVinstructions,
p271
F1
sVpectora
p272
F1
sVnone)
p273
F1
sVabsolute
p274
F1
sVsought
p275
F1
sVend
p276
F4
sVsurrounded
p277
F1
sVyounger,
p278
F1
sVbank,
p279
F1
sVbestowed,
p280
F1
sVaccepted,
p281
F1
sVsecured
p282
F2
sVsix
p283
F1
sVapprehend;
p284
F1
sVfar
p285
F1
sVbrain,
p286
F1
sVbread;
p287
F1
sVindifferently
p288
F1
sVsate
p289
F1
sVfourth
p290
F1
sVdowry,
p291
F1
sVstones,
p292
F1
sVdiscoursed
p293
F1
sVspiritous,
p294
F1
sVabundance;
p295
F1
sVsuffer
p296
F1
sVdios
p297
F1
sVsince,
p298
F2
sVboth,
p299
F1
sVdinner,
p300
F1
sVmay
p301
F6
sVlurk
p302
F1
sVsacrifice
p303
F1
sVafter
p304
F12
sVsouthern
p305
F2
sVmemorial
p306
F1
sVcustoms
p307
F2
sVtraffick.
p308
F1
sVgrass.
p309
F1
sVaway,
p310
F1
sVtrees
p311
F2
sVmen
p312
F5
sVcoming
p313
F3
sVsuch
p314
F5
sVlaw
p315
F1
sVlifting
p316
F1
sVpurpose!
p317
F1
sVa
F67
sVplanting
p318
F1
sVpriests.
p319
F1
sVshort
p320
F2
sVcommodity
p321
F1
sVtogether
p322
F1
sVwoods,
p323
F1
sVlight
p324
F1
sVfourty
p325
F1
sVstately
p326
F1
sVknives,
p327
F1
sVcommodities
p328
F2
sVnullusve
p329
F1
sVshore
p330
F1
sVcold,
p331
F1
sVso
p332
F12
sVentertained
p333
F3
sVpyramids
p334
F1
sVmemory,
p335
F1
sVliking,
p336
F1
sVtravel
p337
F3
sVwind
p338
F1
sVwine
p339
F4
sVkindness
p340
F1
sVtapistry
p341
F1
sVneglect
p342
F1
sVtheft
p343
F1
sVfurnished
p344
F1
sVseptember
p345
F3
sVover
p346
F6
sVsoon
p347
F6
sVking's
p348
F1
sVpresence
p349
F1
sVgranted,
p350
F1
sVenclose
p351
F1
sVof,
p352
F1
sVthither;
p353
F1
sVcommitted
p354
F1
sVgovernour
p355
F2
sVcold
p356
F1
sVomnes
p357
F1
sVworship
p358
F1
sVsitis,
p359
F1
sVbefore
p360
F6
sVthirtieth
p361
F1
sVconstituted
p362
F1
sVle
p363
F2
sVfit
p364
F2
sVmair
p365
F1
sVselves
p366
F2
sVtorn
p367
F1
sVships
p368
F1
sVexpectations
p369
F1
sVhim
p370
F4
sVbetter
p371
F1
sVmaid
p372
F1
sVparts
p373
F2
sVdegrees
p374
F3
sVdead,
p375
F1
sVlatitude
p376
F2
sVcovered
p377
F3
sVmight
p378
F6
sVnoises.
p379
F1
sVworld,
p380
F1
sVmaster.
p381
F1
sVfames.
p382
F1
sVthen
p383
F9
sVnon
p384
F1
sVevening
p385
F1
sVrunning
p386
F1
sVgreater
p387
F1
sVpearl
p388
F1
sVwithall;
p389
F1
sVsafe
p390
F1
sVreligion,
p391
F1
sVship
p392
F3
sVinvitation
p393
F2
sVit:
p394
F1
sVit;
p395
F1
sVthey
p396
F35
sVhalf
p397
F1
sVnot
p398
F16
sVuttering
p399
F1
sVnow
p400
F4
sVprovision
p401
F1
sVsilver
p402
F1
sVpagna.
p403
F1
sVhereafter.
p404
F1
sVeasily
p405
F1
sVweather.
p406
F1
sVlabour;
p407
F1
sVship;
p408
F2
sVname
p409
F3
sVlonger
p410
F1
sVfretum,
p411
F3
sVhim)
p412
F1
sVtemperate
p413
F1
sVsupposed
p414
F1
sVcoma,
p415
F1
sVbless
p416
F1
sVsufficiently
p417
F1
sVtoken
p418
F1
sVship,
p419
F5
sVman
p420
F2
sVeach
p421
F1
sVfound
p422
F6
sVwent
p423
F2
sVentrance,
p424
F1
sVports
p425
F1
sVcall
p426
F3
sVmean
p427
F2
sVfew
p428
F1
sVanother
p429
F2
sVweight
p430
F1
sVnoble
p431
F1
sVhomage,
p432
F1
sVhouse
p433
F3
sVadventure
p434
F1
sVhouse,
p435
F4
sVsails,
p436
F1
sVcommodities.
p437
F1
sVresolving
p438
F1
sVthirteen
p439
F1
sVyear
p440
F2
sVwine,
p441
F2
sVour
p442
F37
sVhappen
p443
F2
sVpalm-trees,
p444
F1
sVtenth
p445
F1
sVfright,
p446
F1
sVout
p447
F7
sVtimber,
p448
F1
sVleave
p449
F3
sVmisfortune
p450
F1
sVentertainment
p451
F2
sVgod
p452
F5
sVsince
p453
F3
sVwholly
p454
F1
sVtime,
p455
F1
sVencourage
p456
F1
sVabounding
p457
F1
sVfollowing.
p458
F2
sVlands,
p459
F1
sVgot
p460
F1
sVdieu
p461
F1
sVred
p462
F1
sV1671.
p463
F1
sVfoundation
p464
F1
sVinhabitants
p465
F3
sVassured
p466
F1
sVbuilt.
p467
F1
sVrites
p468
F1
sVsand,
p469
F1
sVsceleratus
p470
F1
sVfourteen
p471
F1
sVextraordinary
p472
F2
sVreason
p473
F4
sVcarried
p474
F3
sVbesides
p475
F1
sVthem.
p476
F2
sVput
p477
F4
sVreturning
p478
F1
sVremainder
p479
F1
sVseventy
p480
F1
sVreceived,
p481
F1
sVcare
p482
F1
sVpults
p483
F1
sVthem,
p484
F4
sVretained
p485
F1
sVfields,
p486
F1
sVlanguage
p487
F1
sVperform,
p488
F1
sVcould
p489
F11
sVcountrey
p490
F2
sVsuccess
p491
F1
sVtimes
p492
F2
sVthing
p493
F3
sVlength
p494
F5
sVplace
p495
F5
sVretreating
p496
F1
sVshow;
p497
F1
sVconducted
p498
F5
sV(as
p499
F3
sVthink
p500
F2
sVfirst
p501
F10
sVability
p502
F1
sVremarkable,
p503
F1
sVstreight
p504
F1
sVsickness,
p505
F1
sVpetendi,
p506
F1
sVtreating
p507
F1
sVwelcome
p508
F1
sVone
p509
F6
sVmercy;
p510
F1
sVdone
p511
F2
sVminutes,
p512
F1
sVdirectly
p513
F1
sVminutes.
p514
F2
sVmorning's-draught,
p515
F1
sV(if
p516
F1
sVmarsh,
p517
F1
sVcolumbina,
p518
F1
sVlittle
p519
F2
sVround
p520
F1
sVten
p521
F5
sVacquaint
p522
F1
sVthoughts,
p523
F1
sVbears
p524
F1
sVtwenty
p525
F2
sVtop
p526
F1
sVslept
p527
F1
sVriver,
p528
F1
sVnight,
p529
F1
sVleast
p530
F3
sVtheir
p531
F32
sVreturns
p532
F1
sVfritazeer
p533
F1
sVchastity
p534
F1
sVpains
p535
F1
sVship-side,
p536
F1
sVgrass-coverings;
p537
F1
sVhundred
p538
F6
sVliquor
p539
F1
sVfriend
p540
F1
sVgives
p541
F2
sVpriests,
p542
F1
sVeyes
p543
F3
sVmurder
p544
F1
sVinhabitants:
p545
F1
sVpassed
p546
F2
sVthat
p547
F41
sVhappily
p548
F1
sVmantles
p549
F1
sVserve
p550
F2
sVtook
p551
F7
sVchannel,
p552
F1
sVchildren.
p553
F1
sVpossession,
p554
F1
sVpart
p555
F3
sVtaught
p556
F1
sVwas,
p557
F1
sVafford;
p558
F1
sVzur:
p559
F1
sVbelieve
p560
F2
sVthan
p561
F5
sVambush,
p562
F1
sVking
p563
F2
sVkind
p564
F1
sVagain:
p565
F1
sVtreatise
p566
F1
sVupon;
p567
F1
sVhammocks
p568
F2
sVacquainted
p569
F1
sVnight.
p570
F1
sVobservation,
p571
F2
sVtree
p572
F3
sVdomestick
p573
F1
sVrelation,
p574
F2
sVheight.
p575
F1
sVrelation.
p576
F1
sVmarriage
p577
F2
sVwitty,
p578
F1
sVventure
p579
F1
sVwere
p580
F16
sVcacique
p581
F1
sVcountry
p582
F2
sVtreated
p583
F1
sVdeclare
p584
F2
sVmonths,
p585
F1
sVand
p586
F154
sVrecesses
p587
F1
sVpalace
p588
F1
sVfowl
p589
F2
sVinhabitants,
p590
F1
sVinhabitants.
p591
F1
sVmind
p592
F1
sVwas;
p593
F1
sVbisket
p594
F1
sVhappens,
p595
F1
sVpieces
p596
F1
sVmanner
p597
F7
sVhave
p598
F8
sVpyramids,
p599
F1
sVseen
p600
F1
sVcomes,
p601
F1
sVsaw
p602
F1
sVsacra
p603
F1
sVinhabitants;
p604
F1
sV30\u005c.
p605
F1
sVhitherto
p606
F1
sVmountain
p607
F1
sVpretty
p608
F2
sVbuilt
p609
F2
sVlaws
p610
F2
sVconvenient
p611
F1
sVself
p612
F6
sVoffer
p613
F1
sVchief
p614
F1
sVschooten.
p615
F4
sValso
p616
F1
sVrowed
p617
F1
sVwhich,
p618
F1
sVtake
p619
F2
sVwhich
p620
F45
sVwrit
p621
F1
sVintoxicating
p622
F1
sVlong;
p623
F1
sVpresently,
p624
F1
sVtowards
p625
F2
sVage:
p626
F1
sVshall
p627
F4
sVany
p628
F8
sVvvith
p629
F1
sVshewed
p630
F1
sVwho
p631
F7
sVmate,
p632
F1
sVsaw;
p633
F1
sVacres
p634
F1
sVimprinted
p635
F1
sVmost
p636
F3
sVage,
p637
F3
sVamongst
p638
F2
sVplenty
p639
F1
sVfast,
p640
F1
sVnothing
p641
F1
sVlearnt
p642
F1
sVsee,
p643
F1
sVher,
p644
F1
sVcountenanced:
p645
F1
sVmoss,
p646
F2
sVcommandments
p647
F1
sVespecially
p648
F1
sVcloth
p649
F1
sVgrove
p650
F1
sVeuropean
p651
F3
sVwreathed
p652
F1
sVnight;
p653
F1
sVeuropean,
p654
F1
sVeurope;
p655
F3
sVorder
p656
F1
sVdeluded
p657
F1
sVslaves
p658
F1
sVeurope,
p659
F2
sVbarrel
p660
F1
sVeurope.
p661
F2
sVfeatured;
p662
F1
sVcame
p663
F11
sVquantity
p664
F1
sVwalking
p665
F3
sVgold
p666
F3
sVjurisdiction
p667
F2
sVsee;
p668
F1
sVfifty
p669
F3
sVdiscovered
p670
F8
sVtree,
p671
F4
sVwinter
p672
F1
sVkonock
p673
F1
sVrelation
p674
F3
sVheighth.
p675
F1
sVarbour,
p676
F1
sVcorner
p677
F1
sVgain,
p678
F1
sVheavens
p679
F2
sVfind
p680
F1
sVhermano,
p681
F1
sVgod;
p682
F1
sVear,
p683
F1
sVnearer
p684
F1
sVflowers
p685
F1
sVbounds
p686
F1
sVplentifully
p687
F2
sVwith
p688
F53
sVthetis!
p689
F1
sVmile,
p690
F1
sVbien
p691
F1
sVshould
p692
F3
sVbrighter
p693
F1
sVplanted
p694
F1
sVincredulous
p695
F1
sVdesiring
p696
F1
sVvenison,
p697
F1
sVmovyles
p698
F1
sVnear,
p699
F1
sVlarge,
p700
F1
sVexchanged
p701
F1
sVdo
p702
F7
sVhis
p703
F35
sVheaven,
p704
F2
sVportuguese,
p705
F1
sVmercy
p706
F1
sVabout;
p707
F1
sVde
p708
F4
sVoker,
p709
F1
sVaccount
p710
F4
sVbear
p711
F1
sVsatisfied
p712
F3
sVabundance
p713
F1
sVmade
p714
F8
sVcassanack
p715
F1
sVlives;
p716
F1
sVwords
p717
F3
sVcompass
p718
F1
sVjourney,
p719
F1
sVduring
p720
F1
sVyears
p721
F5
sVascended
p722
F1
sVunfortunately
p723
F1
sVruns
p724
F1
sVyearly.
p725
F1
sVtwenty,
p726
F1
sVvictuals
p727
F1
sVbisket,
p728
F2
sVmarried
p729
F1
sVthem;
p730
F1
sVstranger
p731
F1
sVhouses,
p732
F4
sVmorning
p733
F5
sVmen,
p734
F2
sVrain,
p735
F1
sVpriest
p736
F1
sVdeputies.
p737
F1
sVshe
p738
F1
sVharbour:
p739
F1
sVhatchets,
p740
F1
sVgospel
p741
F1
sVriver
p742
F4
sVwhere
p743
F8
sVbengangois:
p744
F1
sVfarther
p745
F2
sVsea;
p746
F1
sVtemperance
p747
F1
sVmiserably
p748
F1
sVfair
p749
F1
sVhabit
p750
F1
sVkings):
p751
F1
sVroasted
p752
F1
sVeighteenth
p753
F1
sVthis,
p754
F3
sVespy
p755
F1
sVsee
p756
F4
sVcogit
p757
F1
sVlanched
p758
F1
sVare
p759
F16
sVdesperate
p760
F1
sVlisbon
p761
F1
sVsalutation
p762
F1
sVmiserable
p763
F1
sVbark
p764
F1
sVoutward
p765
F1
sVbest
p766
F2
sVencouraged
p767
F1
sVvoyage
p768
F3
sVstill
p769
F2
sVdamosel
p770
F1
sVhabendi.
p771
F1
sVpearls,
p772
F1
sVface,
p773
F1
sVaway
p774
F1
sVsail
p775
F1
sVinjuries
p776
F1
sVmatters;
p777
F1
sVadventure,
p778
F2
sVcomplexion
p779
F1
sVextract,
p780
F1
sVpriest.
p781
F1
sVdiamonds
p782
F1
sVboughs
p783
F3
sVsorts
p784
F1
sVbehold,
p785
F1
sVdiscovery
p786
F3
sVeurope
p787
F4
sVwe
p788
F62
sVbrethren:
p789
F1
sVaugust
p790
F1
sVnature
p791
F3
sVhowever
p792
F1
sVreligious
p793
F1
sVtortures
p794
F1
sVdays,
p795
F2
sVsea.
p796
F1
sVespy,
p797
F1
sVsitting
p798
F1
sVdevil,
p799
F1
sVprecious
p800
F1
sVhundreds
p801
F1
sVcome
p802
F3
sVprosper
p803
F1
sVleague
p804
F1
sVwest!
p805
F1
sVgygantick
p806
F1
sVpeople,
p807
F2
sVlimits
p808
F1
sVtrifles,
p809
F1
sVmany
p810
F8
sVinvited
p811
F1
sVdied,
p812
F1
sVvirgin-rivers
p813
F1
sVequal
p814
F2
sVassure
p815
F1
sVmonarch
p816
F1
sVjoy,
p817
F1
sVfaces
p818
F1
sVcolour;
p819
F1
sVlet
p820
F2
sVpassing
p821
F2
sVburied
p822
F1
sVwhole
p823
F2
sVauri
p824
F1
sVmade;
p825
F1
sVhumane,
p826
F1
sVmair,
p827
F1
sVtown,
p828
F4
sVconclude
p829
F1
sVwall
p830
F1
sVseems
p831
F1
sVreposed
p832
F1
sVhollow
p833
F3
sVmain-ocean
p834
F1
sVguns,
p835
F1
sVerrors:
p836
F1
sVsignifies,
p837
F1
sVenquiries
p838
F1
sVchurch
p839
F1
sVvessel
p840
F2
sVarms:
p841
F1
sVanchor,
p842
F1
sVdone.
p843
F1
sVveni
p844
F1
sVnovember
p845
F2
sVspent;
p846
F1
sVmare
p847
F1
sVcloathing
p848
F1
sVpetty
p849
F1
sVwell;
p850
F1
sVinjury,
p851
F1
sVacceptance
p852
F1
sVinformed
p853
F1
sVthree
p854
F8
sVbeen
p855
F2
sVgallon);
p856
F1
sVwere,
p857
F1
sVwhom
p858
F1
sVmuch
p859
F7
sVpunished
p860
F1
sVwherein
p861
F1
sVcontained
p862
F1
sVliving
p863
F1
sVharm,
p864
F1
sVsenses
p865
F1
sVmanner:
p866
F2
sVcogendive
p867
F1
sVpainted
p868
F1
sVgiven
p869
F2
sVthousand
p870
F2
sVpunctually
p871
F1
sVsuccess;
p872
F1
sVoffers
p873
F3
sVaccident
p874
F1
sVunderstand
p875
F1
sVcatch
p876
F2
sVdaughter
p877
F4
sVtowns
p878
F2
sVcareful
p879
F1
sVformer
p880
F2
sVthose
p881
F2
sVcivil:
p882
F1
sVwill;
p883
F1
sVsave
p884
F2
sVlook
p885
F2
sVcubugnello,
p886
F1
sVthese
p887
F11
sVplain
p888
F1
sVmumbling
p889
F1
sVfamily.
p890
F1
sVseamen,
p891
F1
sVwill
p892
F3
sVcast
p893
F1
sVnear
p894
F8
sVsometime
p895
F1
sVsuppose
p896
F1
sVought
p897
F1
sVshift
p898
F1
sVcare,
p899
F1
sVawakened
p900
F1
sVdiscoveries
p901
F1
sVfurther,
p902
F1
sVpromised
p903
F1
sVwife,
p904
F1
sVseven
p905
F2
sVpriests
p906
F1
sVabound:
p907
F1
sVportugal
p908
F2
sVeastward
p909
F1
sValmost
p910
F2
sVcanoo's
p911
F2
sVis
p912
F21
sVtrees,
p913
F1
sVsouth;
p914
F2
sVit
p915
F26
sVencouragement
p916
F3
sVadventures
p917
F2
sVweighed
p918
F1
sVgood
p919
F2
sVlodged
p920
F1
sVsloathful
p921
F1
sVready
p922
F3
sVreturn
p923
F2
sVrid
p924
F1
sVmultitudes
p925
F1
sVfame
p926
F1
sVif
p927
F8
sVconfirmed
p928
F1
sVsounding
p929
F1
sVprayers,
p930
F1
sVhairy,
p931
F1
sVgrant
p932
F1
sVpay
p933
F1
sVmake
p934
F6
sVtravelled
p935
F1
sVof.
p936
F1
sVsame
p937
F4
sVclearly
p938
F1
sVhills.
p939
F1
sVdiscourse
p940
F2
sVhairy:
p941
F1
sVbreadth.
p942
F1
sVsplit
p943
F1
sVof;
p944
F1
sVseveral
p945
F11
sVbid
p946
F2
sVbeneficial,
p947
F1
sVwillingly
p948
F1
sVcomforted
p949
F1
sVforty-six,
p950
F1
sVyoung-man,
p951
F2
sVisland
p952
F8
sVupon
p953
F9
sVsoil,
p954
F1
sVhand
p955
F1
sVdriven
p956
F1
sVseamen
p957
F1
sVmines,
p958
F3
sVinhabit,
p959
F1
sVarrived
p960
F1
sVthings
p961
F1
sVsupposing
p962
F1
sVbuild
p963
F1
sVmade,
p964
F1
sVweave
p965
F1
sVdaughter,
p966
F1
sVotters
p967
F1
sVi
F52
sVsafely
p968
F2
sVpeople.
p969
F1
sVisland-shocks.
p970
F1
sVwell
p971
F9
sVspent
p972
F1
sVresolved,
p973
F1
sVthought
p974
F2
sVperson
p975
F1
sVchuse
p976
F1
sVwithout
p977
F2
sVfloating
p978
F1
sVthe
p979
F206
sVgrounds
p980
F1
sVmeat
p981
F1
sVdrawing
p982
F3
sVbodies
p983
F1
sVconsisted
p984
F1
sVleagues
p985
F2
sVcompanions,
p986
F1
sVbeing
p987
F18
sVgods
p988
F1
sVwife;
p989
F1
sVrest
p990
F2
sVfruitful,
p991
F1
sVfoot
p992
F3
sVcoasted
p993
F3
sVthanks
p994
F1
sVaspect
p995
F1
sVimmediately
p996
F3
sVprovision,
p997
F1
sVyet
p998
F3
sVhappiness
p999
F1
sVafflicted
p1000
F1
sVselves,
p1001
F1
sVgenerous
p1002
F1
sVcabin,
p1003
F1
sVhills
p1004
F3
sVlady
p1005
F4
sVfoot;
p1006
F2
sVdanger
p1007
F1
sVhad
p1008
F17
sVpagna
p1009
F2
sVhonouring
p1010
F1
sVvenison
p1011
F2
sVparents
p1012
F2
sVcontinuation
p1013
F2
sVsize,
p1014
F1
sVstruck
p1015
F2
sVeast
p1016
F1
sVfoot,
p1017
F1
sVsea
p1018
F1
sVgave
p1019
F8
sVresolved
p1020
F1
sVhairy
p1021
F4
sVcasting
p1022
F1
sVwife)
p1023
F1
sVsmoak
p1024
F1
sVcame,
p1025
F1
sVbig
p1026
F2
sVroom,
p1027
F3
sVsaluted
p1028
F1
sVpossible
p1029
F1
sVearly
p1030
F1
sVpossibly
p1031
F1
sVadventures,
p1032
F2
sVvasques
p1033
F3
sVfive
p1034
F1
sVknow
p1035
F2
sVconumbro
p1036
F1
sVworld
p1037
F3
sVgolden-age
p1038
F1
sV1646,
p1039
F1
sVship:
p1040
F1
sVdinner
p1041
F1
sVsoever
p1042
F1
sVhours
p1043
F3
sVinstead
p1044
F1
sVlike
p1045
F6
sVlost
p1046
F1
sVentred,
p1047
F1
sVafter.
p1048
F1
sVcountry.
p1049
F1
sVtown;
p1050
F1
sVcountry,
p1051
F3
sVfritazeers,
p1052
F1
sVviz.
p1053
F1
sVtrue
p1054
F1
sVeither
p1055
F3
sVundiscovered;
p1056
F1
sVcountry:
p1057
F1
sVamor
p1058
F1
sVingratiating
p1059
F1
sVkings.
p1060
F1
sVreduced
p1061
F1
sVventured,
p1062
F1
sVportuguese
p1063
F5
sVbeneficial
p1064
F1
sVbecause
p1065
F1
sVoften
p1066
F1
sVdeal
p1067
F1
sVpeople
p1068
F4
sVit,
p1069
F2
sVcreed
p1070
F1
sVsome
p1071
F12
sVnecessaries
p1072
F1
sVleft;
p1073
F1
sVcertain
p1074
F1
sVcane,
p1075
F1
sVin?
p1076
F1
sVcomely,
p1077
F1
sVserves
p1078
F1
sVsight
p1079
F3
sVkings
p1080
F1
sVcurious
p1081
F1
sVliking
p1082
F1
sVdivine
p1083
F1
sVsigns,
p1084
F1
sVbedeck't
p1085
F1
sVamours,
p1086
F1
sVprovided
p1087
F3
sV\u005c---quid
p1088
F1
sVfor
p1089
F23
sVgangois,
p1090
F1
sVthough
p1091
F1
sVaforesaid.
p1092
F1
sVbenganga.
p1093
F3
sVgoats
p1094
F1
sVisland:
p1095
F1
sVprovidence
p1096
F1
sVasking
p1097
F1
sVpaint,
p1098
F2
sVgoing
p1099
F1
sVspeak
p1100
F1
sVdrink
p1101
F2
sVbeevers
p1102
F1
sVhinder
p1103
F1
sVbe
p1104
F16
sVcolumbus
p1105
F1
sVknew
p1106
F1
sVrun
p1107
F1
sVobey
p1108
F1
sVdaughters,
p1109
F1
sVbigger.
p1110
F1
sVsaluting
p1111
F1
sVsixth
p1112
F2
sVnight
p1113
F1
sVuse
p1114
F2
sVpagna,
p1115
F2
sVhow
p1116
F1
sVmate.
p1117
F1
sVcountry;
p1118
F1
sVcelebrated.
p1119
F1
sVstay
p1120
F1
sVby
p1121
F28
sVon
p1122
F8
sVabout
p1123
F14
sVrare
p1124
F1
sVwould
p1125
F7
sVjoyfully
p1126
F1
sVage.
p1127
F1
sVhimself,
p1128
F1
sVof
p1129
F142
sVmonths
p1130
F2
sVyearly
p1131
F1
sVunwillingly
p1132
F1
sVecclesiastical:
p1133
F1
sVsacrificing;
p1134
F1
sVwhence
p1135
F1
sVagreement;
p1136
F1
sVrule
p1137
F2
sVcompanion.
p1138
F1
sVtestimony
p1139
F1
sVislands
p1140
F2
sVentertainment,
p1141
F1
sVor
p1142
F22
sVurget
p1143
F1
sVseeing
p1144
F1
sVown
p1145
F5
sVformerly
p1146
F2
sVcrouding
p1147
F1
sVcivil
p1148
F1
sVinto
p1149
F22
sVwithin
p1150
F1
sVcould,
p1151
F1
sVson
p1152
F4
sVdown
p1153
F1
sVlisbon,
p1154
F1
sVblack-lead
p1155
F1
sVpromise
p1156
F1
sVparties
p1157
F1
sVamsterdam
p1158
F3
sVhang
p1159
F1
sVyour
p1160
F2
sVgroot.
p1161
F1
sVheu
p1162
F1
sVbelief,
p1163
F1
sVregarded
p1164
F1
sVher
p1165
F5
sVendeavouring
p1166
F1
sVgoverned
p1167
F1
sVsatisfied,
p1168
F1
sVthere
p1169
F7
sVcustom
p1170
F1
sVcondition,
p1171
F1
sVaccordingly
p1172
F1
sVdrank
p1173
F1
sVpromontaries.
p1174
F1
sVway
p1175
F2
sVcolder
p1176
F2
sVrapes
p1177
F1
sVplace,
p1178
F4
sVashore,
p1179
F1
sVwas
p1180
F32
sVfish
p1181
F1
sVdeparted,
p1182
F1
sVhimself
p1183
F2
sVcheckered
p1184
F1
sVenough
p1185
F1
sVsigns
p1186
F1
sVland:
p1187
F1
sVland;
p1188
F1
sVchildren;
p1189
F1
sVbut
p1190
F26
sVhoped
p1191
F2
sVwinter-solstice,
p1192
F1
sVcuriously
p1193
F2
sVhear
p1194
F1
sVrelated
p1195
F2
sVhopes
p1196
F1
sVplenty,
p1197
F1
sVland,
p1198
F2
sVthemselves
p1199
F1
sVhe
p1200
F27
sVmisty
p1201
F1
sVhoping,
p1202
F1
sVoctober
p1203
F1
sVeuropeans,
p1204
F1
sVplaces
p1205
F2
sVwhether
p1206
F2
sVare,
p1207
F1
sVcommit
p1208
F1
sVsmooth
p1209
F1
sVup
p1210
F6
sVus
p1211
F28
sVplaced
p1212
F1
sVcruel
p1213
F1
sVconverted
p1214
F1
sVadore
p1215
F2
sVferme
p1216
F1
sVpiece
p1217
F1
sVcustoms,
p1218
F1
sVcalled
p1219
F4
sVcountrey;
p1220
F1
sVchurch,
p1221
F1
sVsort
p1222
F2
sVsometimes
p1223
F1
sVdiscovery,
p1224
F2
sVdiscovery.
p1225
F3
sVexhausted
p1226
F1
sVlikewise
p1227
F5
sVlived
p1228
F2
sVreceived
p1229
F1
sVstore
p1230
F1
sVbrother;
p1231
F1
sVcoasting
p1232
F1
sVan
p1233
F11
sVdeprive
p1234
F1
sVlye
p1235
F2
sVas
p1236
F30
sVwords,
p1237
F1
sVchast
p1238
F1
sVat
p1239
F23
sVdie,
p1240
F1
sVprayer
p1241
F1
sVcrescit
p1242
F1
sVadmiring
p1243
F2
sVbore
p1244
F1
sVleagues:
p1245
F1
sVagain
p1246
F3
sVhoised
p1247
F1
sVno
p1248
F6
sVfruitful
p1249
F1
sVwhen
p1250
F1
sVdepart,
p1251
F1
sVdevotion:
p1252
F1
sVpalm-wine,
p1253
F1
sVother
p1254
F9
sVsick
p1255
F1
sVbrings
p1256
F1
sVgallon;
p1257
F1
sVyou
p1258
F8
sVas,
p1259
F1
sVconcerning
p1260
F3
sVmentioned);
p1261
F1
sVis;
p1262
F1
sVrepeat
p1263
F1
sVjurisdiction.
p1264
F1
sVagain,
p1265
F1
sVseparate
p1266
F1
sVshelter
p1267
F1
sVprying
p1268
F1
sVjune
p1269
F1
sVterra
p1270
F2
sVin,
p1271
F1
sVagain;
p1272
F1
sVfell
p1273
F1
sVground
p1274
F1
sVbaptized
p1275
F1
sVlent
p1276
F1
sVdeath,
p1277
F1
sV&c.
p1278
F1
sVservants,
p1279
F1
sVmanner.
p1280
F1
sVland
p1281
F2
sVbanks,
p1282
F1
sVisland,
p1283
F2
sVwife
p1284
F1
sVgenerality
p1285
F1
sVspace
p1286
F1
sVrather
p1287
F3
sVlasted
p1288
F1
sVtogether;
p1289
F1
sVhaving
p1290
F12
sVseat
p1291
F2
sVrough
p1292
F1
sVsaying,
p1293
F1
sVtime
p1294
F12
sVslaves,
p1295
F2
sVsounded
p1296
F1
s.