ccollections
defaultdict
p1
(c__builtin__
float
p2
tRp3
Vall
p4
F13
sVkettle
p5
F1
sVvile
p6
F1
sVcaused
p7
F2
sVbeware
p8
F2
sVchild
p9
F2
sVfelt
p10
F4
sVhath
p11
F1
sVgladly
p12
F1
sVgo
p13
F28
sVfollow
p14
F1
sVmoneyless,
p15
F1
sVhimselfe.
p16
F1
sVsung
p17
F2
sVlooking
p18
F1
sVrequested
p19
F1
sVone
p20
F18
sVprefixed
p21
F1
sVscarse
p22
F1
sVpoore
p23
F2
sVyoung
p24
F8
sVsend
p25
F1
sVanswered
p26
F2
sVtush
p27
F1
sVsince,
p28
F1
sVlord
p29
F2
sVworth
p30
F2
sVsent
p31
F1
sVfolkes.
p32
F1
sVabode
p33
F1
sVcuckold.
p34
F1
sVwoman
p35
F1
sVotherwise,
p36
F1
sVgarden
p37
F1
sVwind,
p38
F1
sVfar
p39
F3
sVhadst
p40
F1
sVchoice
p41
F2
sVplaid
p42
F1
sVevery
p43
F3
sVminded
p44
F1
sVfall
p45
F1
sVmore,
p46
F6
sVdrinking
p47
F2
sVfaine
p48
F1
sVlook
p49
F2
sVperceived
p50
F4
sVheaven
p51
F5
sVnorfolk
p52
F1
sVgrains
p53
F1
sVdeale
p54
F1
sVsped.
p55
F1
sVdid
p56
F19
sVcheapside
p57
F1
sVmarry
p58
F5
sVlarge
p59
F1
sVthese
p60
F1
sVget.
p61
F1
sVanother.
p62
F1
sVresorting
p63
F1
sVsmall
p64
F1
sVgentlewoman
p65
F5
sVslack,
p66
F1
sVquicker
p67
F1
sVtel
p68
F1
sVten
p69
F1
sVher,
p70
F8
sVother,
p71
F3
sVmiller
p72
F1
sVother.
p73
F1
sVme.
p74
F3
sVother)
p75
F3
sVher;
p76
F1
sVdish
p77
F1
sVwherefore
p78
F3
sVhose
p79
F1
sVbooth
p80
F1
sVmistresse
p81
F6
sVagaine
p82
F1
sVreturned
p83
F1
sVglasse
p84
F1
sVeven
p85
F1
sVwhat
p86
F19
sVhim:
p87
F1
sVknees,
p88
F1
sVdevill,
p89
F1
sVgiving
p90
F1
sVfind
p91
F3
sVhim.
p92
F2
sVhim,
p93
F12
sVpulpit
p94
F2
sVrest.
p95
F1
sVabove
p96
F1
sVhim)
p97
F2
sVnew
p98
F1
sV;
F1
sVever
p99
F4
sVbird
p100
F1
sVtold
p101
F3
sVbody
p102
F2
sVkitchan,
p103
F1
sVfull
p104
F2
sVled
p105
F1
sVmistress:
p106
F1
sVsoft
p107
F1
sVbeasts
p108
F1
sVnever
p109
F9
sVup,
p110
F1
sVanswered,
p111
F1
sVfalleth
p112
F1
sVwater
p113
F1
sVmet
p114
F1
sVmistress,
p115
F1
sVlet
p116
F8
sVmorrow
p117
F2
sVdwelling
p118
F2
sVsame
p119
F2
sVhast
p120
F3
sValong
p121
F2
sVsay,
p122
F1
sVboy
p123
F10
sVgreat
p124
F7
sVsallet
p125
F3
sVtroth
p126
F5
sVespyed
p127
F2
sV(bringing
p128
F1
sVwouldest
p129
F2
sVstand,
p130
F1
sVthereof,
p131
F1
sVcheese.
p132
F1
sVsticking
p133
F1
sVhither
p134
F1
sVcompany,
p135
F1
sVheartily,
p136
F1
sVsecure
p137
F1
sVclark
p138
F1
sVthought,
p139
F1
sVqd.
p140
F17
sVknow?
p141
F1
sVqd,
p142
F1
sVbaskets
p143
F5
sVbrought
p144
F7
sVhogs
p145
F1
sVmocked
p146
F1
sVmerry,
p147
F1
sVguests
p148
F1
sVknow,
p149
F1
sVmens
p150
F1
sVsinging
p151
F1
sVwoulb
p152
F1
sVfryer,
p153
F3
sValways.
p154
F1
sVwould
p155
F19
sVto
p156
F106
sVsake
p157
F1
sVshooes
p158
F2
sVangry
p159
F2
sVtwo
p160
F2
sVshite
p161
F2
sVways.
p162
F2
sVgoeth
p163
F1
sVcall
p164
F1
sVtherefore
p165
F2
sVlady:
p166
F1
sVstrike
p167
F2
sVthemselves
p168
F2
sVcoales,
p169
F1
sVtell
p170
F2
sVcalf
p171
F2
sVmore
p172
F6
sVhorses
p173
F1
sVood
p174
F1
sVhard,
p175
F1
sVbasket:
p176
F1
sVmeat.
p177
F2
sVcompany
p178
F4
sV(not
p179
F1
sVflay
p180
F1
sVsir,
p181
F3
sVmeant
p182
F2
sVsore
p183
F1
sVdrinking,
p184
F1
sVstick
p185
F1
sVescape
p186
F1
sVknown
p187
F1
sVsaidst,
p188
F2
sVhole
p189
F2
sVhold
p190
F2
sVquickly,
p191
F1
sVlooketh
p192
F1
sVmust
p193
F2
sVme
p194
F14
sVnone
p195
F1
sVthis
p196
F9
sVus.
p197
F1
sVnothing?
p198
F1
sVcap
p199
F3
sVbethought
p200
F1
sVere
p201
F1
sVcan
p202
F4
sVmeet
p203
F4
sVabroad,
p204
F1
sVmy
p205
F35
sVfetch
p206
F8
sVwater,
p207
F3
sVlords
p208
F1
sVgraines
p209
F1
sVgive
p210
F3
sVwater.
p211
F1
sVdays
p212
F1
sVheard
p213
F6
sVway
p214
F2
sVo
F3
sVheard,
p215
F1
sVnone.
p216
F1
sVsought
p217
F2
sVassay
p218
F1
sVpurposed
p219
F1
sVhonest
p220
F1
sVfire.
p221
F1
sVpresently
p222
F2
sVimmagined
p223
F1
sVsummers
p224
F1
sVstil
p225
F1
sVhob
p226
F1
sVspoyling
p227
F1
sVsand,
p228
F1
sVwhorson
p229
F2
sVbuttered
p230
F1
sVget
p231
F4
sVaffords.
p232
F1
sVdivil
p233
F1
sVhow
p234
F7
sVpair
p235
F1
sVsaid.
p236
F1
sVcandle,
p237
F1
sVanswer
p238
F1
sVplace
p239
F2
sVstir
p240
F1
sVstand
p241
F3
sVsimplicity
p242
F1
sVrest,
p243
F1
sVchild;
p244
F1
sVsallets
p245
F1
sVhog
p246
F1
sVmay
p247
F5
sVafter
p248
F5
sVstumbleth
p249
F1
sVpurpose.
p250
F1
sVfart
p251
F2
sVpurpose,
p252
F1
sVabuse
p253
F1
sVlay
p254
F7
sVchid
p255
F1
sVcoming
p256
F2
sVsuch
p257
F4
sVgrow
p258
F1
sVlord,
p259
F1
sVman
p260
F29
sVa
F103
sVdinner:
p261
F1
sVawakned
p262
F1
sVlight
p263
F1
sVsirs,
p264
F2
sVmeddle
p265
F1
sVherbs)
p266
F1
sVso
p267
F34
sValoud
p268
F1
sVpleasure
p269
F1
sVeate
p270
F1
sVcrafty
p271
F1
sVwind
p272
F3
sVno,
p273
F2
sVwould,
p274
F1
sVhelp
p275
F2
sVfattest
p276
F1
sVhand,
p277
F2
sVindeed
p278
F1
sVover
p279
F6
sV(qd.
p280
F13
sVmidnight
p281
F1
sVwall,
p282
F1
sVmaking
p283
F1
sVyears
p284
F1
sVheld
p285
F1
sVlondon
p286
F7
sVdown,
p287
F1
sVashamed,
p288
F1
sVweather,
p289
F1
sVhell
p290
F2
sVfetcht
p291
F2
sVstill
p292
F3
sVmayor
p293
F1
sVbefore
p294
F7
sVwilt
p295
F1
sVtill
p296
F3
sVpray
p297
F4
sVlo
p298
F1
sVcudgel
p299
F1
sVlyeth
p300
F1
sVships
p301
F1
sV,
F5
sVmaster?
p302
F2
sVfair,
p303
F1
sVbetter
p304
F1
sVmaid
p305
F3
sVsunday.
p306
F2
sVmightest
p307
F1
sVmaster)
p308
F4
sVpennie
p309
F2
sVswine?
p310
F1
sVmight
p311
F2
sVmaster,
p312
F8
sVworld,
p313
F2
sVhappened
p314
F1
sVit.
p315
F3
sVthen
p316
F24
sVthem
p317
F17
sVgood
p318
F22
sVthan
p319
F2
sVseeking
p320
F1
sVboy.
p321
F1
sVthee
p322
F7
sVmasters,
p323
F2
sVye
p324
F1
sVmeadow,
p325
F1
sVessex
p326
F3
sVit?
p327
F1
sVhogs)
p328
F1
sVit:
p329
F3
sVthey
p330
F35
sVhands
p331
F1
sVnot
p332
F31
sVdid:
p333
F1
sVnow
p334
F7
sVpan.
p335
F2
sVnor
p336
F2
sVpan,
p337
F1
sV&
F37
sVmasters
p338
F1
sVchappel,
p339
F1
sVmeat
p340
F5
sVman.
p341
F2
sVservant
p342
F14
sVall.
p343
F1
sVreasonably
p344
F1
sVall,
p345
F1
sVmistrust
p346
F1
sVwhetstone.
p347
F2
sVsufficiently
p348
F1
sVby,
p349
F1
sValso.
p350
F1
sVmasse,
p351
F2
sValso,
p352
F1
sVeach
p353
F1
sVfound
p354
F3
sVwent
p355
F24
sVsires
p356
F1
sVside
p357
F1
sVwhetstone?
p358
F1
sVbuttocks
p359
F1
sVlifted
p360
F1
sVrise,
p361
F1
sVsore,
p362
F1
sVmeets
p363
F1
sVdoing
p364
F1
sVhouse
p365
F4
sVhouse.
p366
F1
sVhouse,
p367
F3
sVnevertheless.
p368
F1
sVhonesties
p369
F1
sVforgot
p370
F3
sVour
p371
F3
sVworthy.
p372
F1
sVmothers
p373
F1
sVout
p374
F7
sVliving
p375
F1
sVmerchants
p376
F1
sVwager
p377
F2
sVcellar,
p378
F1
sVwon
p379
F1
sVmorning,
p380
F2
sVbrewhouse,
p381
F1
sVfellows
p382
F3
sVcontent
p383
F1
sVlaid
p384
F5
sVmiles
p385
F1
sVmarvell
p386
F1
sVcause
p387
F2
sVshe
p388
F42
sVass
p389
F3
sVeggs,
p390
F2
sVyea,
p391
F1
sVdeceived
p392
F1
sVcensing
p393
F1
sVfire,
p394
F3
sVquite
p395
F1
sVwent,
p396
F1
sVwhereupon
p397
F3
sVgraines.
p398
F2
sVcloth,
p399
F1
sVthem.
p400
F3
sVput
p401
F10
sVmistress
p402
F1
sVfire:
p403
F1
sVafterward
p404
F1
sVgo,
p405
F1
sVuntying
p406
F1
sVfrankincense?
p407
F1
sVwhinging
p408
F1
sVdeprived
p409
F1
sVcould
p410
F8
sVmad,
p411
F1
sVcontented
p412
F1
sVkeep
p413
F1
sVthing
p414
F2
sVlength
p415
F1
sVthine
p416
F2
sVfrankincense.
p417
F1
sVswine
p418
F3
sVfrankincense,
p419
F1
sVhence
p420
F1
sV(as
p421
F1
sVloud
p422
F1
sVthink
p423
F1
sVpleaseth
p424
F1
sVfirst
p425
F2
sVcheese
p426
F2
sVmercy.
p427
F1
sVtoo.
p428
F1
sVplow
p429
F3
sVhooks,
p430
F1
sVbut,
p431
F1
sVfeet
p432
F1
sVawaked,
p433
F1
sVdone
p434
F1
sVchide
p435
F1
sVanother
p436
F3
sVthereto.
p437
F1
sVhear
p438
F2
sVring
p439
F2
sVditch
p440
F1
sVbetween
p441
F1
sVhave,
p442
F2
sVsheep
p443
F6
sVdwelt
p444
F4
sVlittle
p445
F2
sVpowred
p446
F1
sVsheet
p447
F1
sVpreached
p448
F1
sVbe,
p449
F1
sVseventh:
p450
F1
sVwants.)
p451
F1
sVslept
p452
F1
sVtheir
p453
F5
sVmaster
p454
F8
sVtoo
p455
F1
sVpassed
p456
F1
sVsayling,
p457
F1
sVboy.)
p458
F1
sVwhite
p459
F1
sVjohn
p460
F2
sVchristned
p461
F2
sVenough.
p462
F1
sVconsented
p463
F2
sVlaughed.
p464
F1
sVmiller,
p465
F3
sVthat
p466
F76
sVbreakest
p467
F1
sVtook
p468
F8
sVhour.
p469
F1
sVwhetstone
p470
F1
sVlearned,
p471
F1
sVdwell
p472
F1
sVbelieve
p473
F1
sVgrace
p474
F1
sVmorrow;
p475
F1
sVbidden
p476
F1
sVburnt,
p477
F1
sVgrew
p478
F1
sVbody,
p479
F2
sVtherein;
p480
F1
sVgirdle
p481
F2
sVlaughing,
p482
F1
sVbed
p483
F4
sVtrustiest
p484
F1
sVtherein.
p485
F2
sVwere
p486
F13
sVchurle,
p487
F1
sVstripes,
p488
F1
sVcountry
p489
F2
sVtwelve.
p490
F1
sVbehinde
p491
F1
sV(quoth
p492
F1
sVand
p493
F205
sVholden
p494
F1
sVfalse
p495
F1
sVcomplaint.
p496
F1
sVran
p497
F2
sValas,
p498
F1
sVthat,
p499
F1
sVturned
p500
F1
sVmine
p501
F4
sVneer
p502
F1
sVwell,
p503
F5
sVsay
p504
F3
sVhimself
p505
F4
sV(qd.)
p506
F1
sVhave
p507
F33
sVseen
p508
F2
sV(said
p509
F4
sVsaw
p510
F6
sVany
p511
F4
sVsat
p512
F1
sVdoore
p513
F5
sVenticeing
p514
F1
sVhogs:
p515
F1
sVself
p516
F1
sVdamnation:
p517
F1
sValso
p518
F2
sVtake
p519
F7
sVwhich
p520
F17
sVlaughed
p521
F5
sVgreen
p522
F1
sVbishop,
p523
F1
sVeasterday,
p524
F1
sVbishop)
p525
F1
sVcontent,
p526
F2
sVcomest
p527
F1
sVquoth
p528
F1
sVsheep;
p529
F1
sVshall
p530
F6
sVshitten
p531
F1
sVeggs
p532
F2
sVwho
p533
F9
sVsung,
p534
F1
sVmashed
p535
F1
sVbusiness,
p536
F1
sVvoice,
p537
F1
sVmost
p538
F4
sVsaid
p539
F26
sVeight
p540
F1
sVamongst
p541
F1
sVeaten
p542
F2
sVfast,
p543
F1
sVdevice
p544
F1
sVstood
p545
F2
sVoil
p546
F2
sVsee,
p547
F1
sVwhy
p548
F10
sVshalt
p549
F2
sVprove
p550
F3
sVhood,
p551
F1
sVdoor,
p552
F1
sVnot?
p553
F1
sVcover
p554
F1
sVdrive
p555
F1
sVlooked
p556
F2
sVperceiving
p557
F2
sVcoleworts
p558
F6
sVnot,
p559
F2
sVdoor?
p560
F1
sVnot.
p561
F1
sVnight,
p562
F3
sVcloathes
p563
F2
sVcame
p564
F19
sValone.
p565
F1
sVstones
p566
F1
sVsaying
p567
F2
sVbeard.
p568
F1
sVrosting
p569
F1
sVselfe.
p570
F1
sVbring
p571
F4
sVrebuke
p572
F1
sVcloaths,
p573
F1
sVmelody
p574
F1
sVfine
p575
F2
sVpleased
p576
F3
sVstaff
p577
F1
sVpleasure:
p578
F1
sVtrue,
p579
F1
sVbasket
p580
F4
sVburn.
p581
F1
sVgirdle,
p582
F2
sVhither,
p583
F1
sVhogs,
p584
F2
sVrotten
p585
F1
sVshould
p586
F5
sVenow,
p587
F1
sVbeing
p588
F7
sVonly
p589
F2
sVgoing
p590
F3
sVblack
p591
F1
sVjudged
p592
F1
sVtrue;
p593
F2
sVdreamed
p594
F3
sVkitchin,
p595
F1
sVtrade,
p596
F1
sVthey,
p597
F1
sVburned:
p598
F1
sVbasket,
p599
F1
sVhope
p600
F1
sVsaw,
p601
F1
sVlighted
p602
F2
sVdo
p603
F15
sVhis
p604
F81
sVheaven,
p605
F1
sV(knowing
p606
F1
sVbeat
p607
F2
sVdrousie,
p608
F1
sVheartily.
p609
F2
sVpass,
p610
F1
sVremedy
p611
F1
sVcannot
p612
F3
sVhid
p613
F1
sVherbs,
p614
F1
sVus;
p615
F1
sVhedge
p616
F1
sVhim
p617
F44
sVcruelly
p618
F1
sVsallet.
p619
F1
sValoud,
p620
F1
sV(meaning
p621
F1
sVhad.
p622
F1
sVplatter
p623
F1
sVmischief,
p624
F1
sVcalling
p625
F1
sVsheet,
p626
F1
sVpains.
p627
F1
sVbad
p628
F8
sVpriest
p629
F10
sVqd
p630
F4
sVthrough
p631
F4
sVthem,
p632
F3
sVwhere
p633
F12
sVhusband
p634
F3
sVfeet,
p635
F2
sVsubtilly
p636
F1
sVset
p637
F8
sVart
p638
F2
sVsheep,
p639
F4
sVfair
p640
F2
sVsheep.
p641
F2
sVtraveller,
p642
F1
sVashamed.
p643
F1
sVplough
p644
F2
sVsee
p645
F5
sVstreets?
p646
F1
sVare
p647
F5
sVsheep?
p648
F1
sVfellow
p649
F4
sVsport
p650
F1
sVgrains:
p651
F1
sVpriest;
p652
F1
sVapothecaries
p653
F2
sVmatter
p654
F1
sVofter
p655
F1
sVnailed
p656
F1
sVaway
p657
F1
sVman;
p658
F1
sVdutchman
p659
F1
sVmiddle,
p660
F1
sVenough
p661
F2
sVloth
p662
F1
sVpriest,
p663
F2
sVunto
p664
F5
sVpriest.
p665
F1
sVsecret,
p666
F1
sVunderstood
p667
F1
sVman)
p668
F3
sVneither
p669
F1
sVman,
p670
F3
sVface:
p671
F1
sVbought
p672
F2
sVknowing
p673
F1
sVwe
p674
F6
sVmen
p675
F3
sVchamber,
p676
F3
sVthem)
p677
F1
sVsold
p678
F1
sVspoiled
p679
F1
sVback
p680
F1
sVchamber:
p681
F1
sVbryers
p682
F1
sVhere
p683
F3
sVdevil,
p684
F2
sVcome
p685
F4
sVholds
p686
F1
sVkneeled
p687
F1
sVceller,
p688
F1
sVboth
p689
F6
sVhead,
p690
F2
sVlast
p691
F8
sVpeople,
p692
F1
sVcow
p693
F1
sValways
p694
F1
sVthou
p695
F29
sVthot
p696
F1
sVperceived,
p697
F1
sVswine:
p698
F1
sVquiet
p699
F2
sVagainst
p700
F5
sValready,
p701
F1
sVbecame
p702
F1
sVapothecaries)
p703
F1
sVway,
p704
F4
sVswine.
p705
F1
sVswine,
p706
F2
sVasked
p707
F5
sVcomes
p708
F1
sVotherwise
p709
F1
sVamong
p710
F1
sVnay.
p711
F1
sVdid.
p712
F1
sVafterwards
p713
F1
sVdrunk
p714
F1
sVlegs
p715
F1
sVothers
p716
F1
sVmoney,
p717
F3
sVfared
p718
F1
sValone
p719
F1
sVbeguiled
p720
F1
sVplatter?
p721
F1
sVchurch
p722
F8
sVdone,
p723
F1
sVshitten?
p724
F1
sVtrust
p725
F1
sVmoney?
p726
F1
sVthere,
p727
F2
sVquit
p728
F1
sVdevil
p729
F1
sVcoleworts,
p730
F1
sVrusty
p731
F1
sVhome:
p732
F1
sVhome;
p733
F1
sVcorn.
p734
F1
sVthanked
p735
F1
sVthree
p736
F2
sVbeen
p737
F11
sVwere,
p738
F1
sVwhom
p739
F2
sVwere.
p740
F1
sVmuch
p741
F5
sVwink,
p742
F1
sVlikewise
p743
F2
sValready.
p744
F1
sVmeeting
p745
F1
sVmary
p746
F1
sVhome,
p747
F5
sVshoulders
p748
F1
sVsteel,
p749
F1
sVfire
p750
F3
sVlooked,
p751
F1
sVdead,
p752
F1
sVchurch:
p753
F1
sVyou
p754
F28
sVsort
p755
F1
sVbidding
p756
F1
sVdemand
p757
F1
sVchurch,
p758
F5
sVarose,
p759
F1
sVan
p760
F6
sVthose
p761
F2
sVfrying-pan.
p762
F1
sVholiday
p763
F1
sVfollowed
p764
F1
sVorgans,
p765
F1
sVshooes,
p766
F3
sVamend
p767
F1
sVcoals
p768
F1
sVdanger.
p769
F1
sVready,
p770
F1
sVwill
p771
F28
sVcast
p772
F2
sVwhile
p773
F1
sVwill,
p774
F3
sVmany
p775
F3
sVslacketh;
p776
F1
sVgave
p777
F1
sVcock
p778
F1
sVthereof.
p779
F1
sVfurther,
p780
F1
sVdanger;
p781
F1
sVfool
p782
F2
sVseven
p783
F2
sVblame:
p784
F1
sVfoolishnesse
p785
F1
sVsister,
p786
F1
sValmost
p787
F2
sVme,
p788
F3
sVis
p789
F13
sVthus
p790
F4
sVit
p791
F40
sV'man
p792
F1
sVthee,
p793
F2
sVshame.
p794
F1
sVdemanded
p795
F4
sVin
p796
F51
sVapparel,
p797
F1
sVcometh
p798
F1
sVwisely
p799
F1
sVsaid,
p800
F10
sVwhore
p801
F2
sVif
p802
F16
sVaway,
p803
F2
sVthereby
p804
F1
sVfools.
p805
F1
sVparish
p806
F2
sVmake
p807
F9
sVpauls
p808
F2
sVbutcher
p809
F1
sVfading
p810
F1
sVwhore,
p811
F2
sVbid
p812
F1
sVpan
p813
F5
sVhere.
p814
F1
sVsong,
p815
F1
sVconstrayned
p816
F1
sVlie
p817
F2
sVcan.
p818
F1
sVmade:
p819
F1
sVdrink
p820
F2
sVupon
p821
F15
sVlambeth
p822
F1
sVhusbands
p823
F1
sVoverlabored
p824
F1
sVguests,
p825
F1
sVleapt
p826
F1
sVi,
p827
F1
sVlap:
p828
F1
sVcaps
p829
F3
sVknees:
p830
F1
sVsix
p831
F6
sVbutter
p832
F3
sVcountry.
p833
F1
sVoff
p834
F1
sVthy
p835
F8
sVi
F92
sVsleeping,
p836
F1
sVorgans
p837
F1
sVwell
p838
F16
sVfart,
p839
F1
sVshift,
p840
F2
sVthought
p841
F9
sVwithout
p842
F2
sVcommand
p843
F1
sVoft
p844
F1
sVmother
p845
F2
sVvery
p846
F7
sVhogs.
p847
F1
sVthe
p848
F251
sVrung.
p849
F1
sVleft
p850
F1
sVlest
p851
F1
sVsimplicity.
p852
F1
sVdeparted
p853
F1
sVcap:
p854
F1
sVnails,
p855
F1
sVyea
p856
F3
sVfoole
p857
F4
sVwife;
p858
F2
sVliked
p859
F1
sVrest
p860
F2
sVburn;
p861
F1
sVthanks
p862
F1
sVimmediately
p863
F1
sVlives,
p864
F1
sVyes
p865
F1
sVthither
p866
F2
sVyet
p867
F3
sVcocks
p868
F3
sVblow
p869
F1
sVdo;
p870
F1
sVthinking
p871
F3
sVlady
p872
F4
sVbell
p873
F1
sVhad
p874
F62
sVexcept
p875
F1
sVdost
p876
F1
sVother
p877
F6
sVbeloved
p878
F1
sVrequiring
p879
F1
sVborn
p880
F2
sVstruck
p881
F1
sVwithall,
p882
F1
sVwhanging
p883
F1
sVwife,
p884
F2
sVthee.
p885
F3
sVcomplaint
p886
F1
sVwooed
p887
F1
sVstunk
p888
F1
sVcame,
p889
F2
sVwidow
p890
F1
sVdevised
p891
F2
sVrejoyced
p892
F1
sVwindow,
p893
F1
sVsleep;
p894
F1
sVwives
p895
F3
sVearly
p896
F1
sVtruely
p897
F1
sVthee;
p898
F1
sVknow
p899
F6
sVgod,
p900
F3
sVwiser
p901
F2
sVworld
p902
F1
sV(&
p903
F1
sVfryer
p904
F3
sVweek,
p905
F1
sVsails
p906
F1
sVlike
p907
F3
sVperpetual
p908
F1
sVyonder
p909
F2
sVcountry,
p910
F3
sVfrench
p911
F2
sVchamber
p912
F2
sVany,
p913
F1
sVcloaths
p914
F1
sVeither
p915
F1
sVheed
p916
F2
sVnight
p917
F2
sVwoman,
p918
F2
sVserved
p919
F1
sValready;
p920
F1
sVfoolish
p921
F1
sVtable.
p922
F1
sVwoman)
p923
F1
sVtable,
p924
F1
sVitalian
p925
F1
sVcanst
p926
F2
sVbecause
p927
F5
sVold
p928
F13
sVoften
p929
F1
sVpeople
p930
F6
sVit,
p931
F8
sVmistresse,
p932
F2
sVtogether,
p933
F2
sVsome
p934
F9
sV(supposing
p935
F2
sVfeel
p936
F1
sVseparated
p937
F1
sVshew
p938
F1
sVtowards
p939
F1
sVrise
p940
F1
sVflaying
p941
F1
sVhome
p942
F5
sVsaidst
p943
F1
sVagain,
p944
F3
sVfor
p945
F31
sVsaying,
p946
F1
sVthough
p947
F3
sVexceeding
p948
F1
sVaforesaid,
p949
F1
sVmoon
p950
F2
sV(i
p951
F1
sVclean.
p952
F1
sVloved
p953
F1
sVmeer
p954
F1
sVwherefore,
p955
F1
sVlabour,
p956
F1
sVbeating
p957
F2
sVgood.
p958
F1
sVlaughing
p959
F1
sVbe
p960
F23
sVknew
p961
F6
sVgrievously.
p962
F1
sVthis,
p963
F1
sVshe,
p964
F5
sVburn
p965
F3
sVnotable
p966
F1
sVuse
p967
F3
sVplatter,
p968
F1
sVwere?
p969
F1
sVfather,
p970
F1
sVfrom
p971
F10
sVprepared
p972
F1
sVby
p973
F24
sVon
p974
F28
sVabout
p975
F5
sVcommanded
p976
F1
sVstaff,
p977
F1
sVcarried
p978
F3
sVpresently?
p979
F1
sVof
p980
F54
sVhimself.
p981
F1
sVfryer)
p982
F1
sVurged
p983
F1
sVbridge,
p984
F1
sVknave
p985
F2
sVservant,
p986
F1
sVtell:
p987
F1
sVout,
p988
F1
sVor
p989
F5
sVcorn:
p990
F1
sVarmes,
p991
F1
sVown
p992
F3
sVshouldest
p993
F2
sVinto
p994
F19
sVlien
p995
F1
sVcruelly,
p996
F1
sVboy,
p997
F1
sVdown
p998
F3
sVnothing
p999
F1
sVcry.
p1000
F1
sVweather
p1001
F2
sVfor?
p1002
F1
sVbidden.
p1003
F1
sVbutter,
p1004
F2
sVnext
p1005
F2
sVhang
p1006
F4
sVyour
p1007
F6
sVcountry-man,
p1008
F1
sVlob
p1009
F1
sVfast
p1010
F5
sVher
p1011
F27
sVcountrey
p1012
F4
sVnails
p1013
F1
sVlay,
p1014
F1
sVthere
p1015
F28
sVwithal.
p1016
F1
sVlong
p1017
F4
sVtongue.
p1018
F1
sVstuck
p1019
F2
sVdrank
p1020
F1
sVlaughed,
p1021
F1
sVcryed
p1022
F2
sVplace,
p1023
F1
sVsale
p1024
F1
sV:
F1
sVwas
p1025
F55
sVwithal?
p1026
F1
sVpurposely
p1027
F1
sVcarryed
p1028
F1
sVdeparted.
p1029
F1
sVtherewith.
p1030
F2
sVyou,
p1031
F2
sVnorth
p1032
F1
sVoffer
p1033
F1
sVthey:
p1034
F1
sVso,
p1035
F2
sVbut
p1036
F47
sVso.
p1037
F1
sVtaken
p1038
F1
sVtherewith?
p1039
F1
sVyou;
p1040
F1
sVyou:
p1041
F1
sVtherewith:
p1042
F2
sVsustained
p1043
F1
sVremoved
p1044
F1
sVwith
p1045
F37
sVeat
p1046
F3
sVcandle
p1047
F5
sVhe
p1048
F142
sVpull
p1049
F2
sVmade
p1050
F11
sVburning,
p1051
F1
sVwhether
p1052
F3
sVbaskets:
p1053
F1
sVbeaten,
p1054
F1
sVup
p1055
F3
sVhe:
p1056
F1
sVfather
p1057
F1
sVgreatly
p1058
F1
sVaccustomed
p1059
F1
sVhe,
p1060
F8
sVready.
p1061
F1
sVhe.
p1062
F1
sVservant:
p1063
F1
sVhe)
p1064
F5
sVbaskets,
p1065
F2
sVwas)
p1066
F1
sVgone
p1067
F2
sVside,
p1068
F3
sVcertain
p1069
F4
sVpenny
p1070
F1
sVam
p1071
F6
sVshined
p1072
F1
sVwilt,
p1073
F1
sVlost,
p1074
F1
sVknave,
p1075
F3
sVas
p1076
F28
sVsometime
p1077
F1
sVright
p1078
F1
sVat
p1079
F24
sVdie,
p1080
F1
sVfoxed
p1081
F1
sVhorse
p1082
F1
sVbishop
p1083
F1
sVgarden.
p1084
F1
sVagain
p1085
F2
sVgarden,
p1086
F2
sVcoales
p1087
F1
sVtree,
p1088
F2
sVfaithful
p1089
F1
sVno
p1090
F10
sVdeserve
p1091
F1
sVwhereas
p1092
F1
sVgirdles
p1093
F1
sVwhen
p1094
F27
sVwhereat
p1095
F7
sVbed,
p1096
F2
sVhole,
p1097
F1
sVdreame,
p1098
F1
sVfeare
p1099
F1
sVnay
p1100
F2
sVchurch.
p1101
F1
sVbefore,
p1102
F4
sVagain.
p1103
F3
sVindeed,
p1104
F1
sVbenefice
p1105
F1
sVpretended
p1106
F1
sVmasterless
p1107
F1
sVagain:
p1108
F1
sVsure
p1109
F1
sVuinegar
p1110
F2
sVfell
p1111
F3
sVtryed?
p1112
F1
sVtarryed
p1113
F1
sVmass,
p1114
F1
sVbegan
p1115
F1
sVcoat
p1116
F3
sVsail,
p1117
F1
sVfaster
p1118
F1
sVwife
p1119
F8
sVback,
p1120
F2
sVmass
p1121
F2
sVlying
p1122
F3
sVfool?
p1123
F1
sVtime
p1124
F14
sVcometh,
p1125
F1
sVhaving
p1126
F3
sVonce
p1127
F3
s.