ccollections
defaultdict
p1
(c__builtin__
float
p2
tRp3
Vd.
p4
F1
sVjust
p5
F3
sV$1.00.
p6
F3
sVpt/pageturner.pl?id=eaf413&image=413edgb.jpg)
p7
F1
sVcorner
p8
F1
sVestray.
p9
F1
sVlongfellow's
p10
F9
sVvolumes,
p11
F1
sV\u005c-
p12
F8
sVboston.
p13
F1
sVpt/pageturner.pl?id=eaf413&image=413-003.jpg)
p14
F1
sVfront
p15
F2
sVpublished.
p16
F1
sVpt/pageturner.pl?id=eaf413&image=413bcov.jpg)
p17
F1
sVschool
p18
F1
sVjanuary
p19
F1
sVmodern
p20
F1
sV50
p21
F1
sVpt/pageturner.pl?id=eaf413&image=413edgf.jpg)
p22
F1
sVstreets,
p23
F1
sVlongfellow
p24
F2
sVback
p25
F1
sVtennyson.
p26
F2
sV$1.50.
p27
F1
sVminstrelsy,
p28
F1
sVbeyond
p29
F1
sVbottom
p30
F1
sVspine.
p31
F1
sVwaif.
p32
F1
sVpt/pageturner.pl?id=eaf413&image=413-001.jpg)
p33
F1
sVnew
p34
F10
sVholmes.
p35
F1
sVprice
p36
F13
sVedited
p37
F2
sVrecently
p38
F1
sVbruges
p39
F1
sVpt/pageturner.pl?id=eaf413&image=413-002.jpg)
p40
F1
sVancient
p41
F1
sVpt/pageturner.pl?id=eaf413&image=413fcov.jpg)
p42
F1
sVacadie
p43
F1
sVpoems
p44
F4
sV[
F8
sVpt/pageturner.pl?id=eaf413&image=413spin.jpg)
p45
F1
sVby
p46
F3
sVbarrett
p47
F1
sV16mo.
p48
F1
sV1849
p49
F1
sVworks
p50
F1
sVacts.
p51
F1
sVof
p52
F6
sVimage](http://etext.virginia.edu/cgi-local/chad-
p53
F8
sV75
p54
F8
sVpublished
p55
F1
sVcollection
p56
F2
sVout.
p57
F2
sVsea.
p58
F1
sVcompany,
p59
F1
sVticknor
p60
F1
sVwashington
p61
F1
sVone
p62
F12
sVoutre-mer.
p63
F1
sVspanish
p64
F1
sVii.
p65
F3
sVoliver
p66
F1
sV&
F1
sVintroduction
p67
F1
sVballads
p68
F1
sVthree
p69
F1
sV.
F14
sVvii.
p70
F1
sValfred
p71
F2
sVmotherwell.
p72
F2
sV[page
p73
F8
sVwendell
p74
F1
sVvi.
p75
F1
sVlink
p76
F8
sVexternal
p77
F8
sVan
p78
F1
sVwith
p79
F1
sVedition.
p80
F8
sVedition,
p81
F2
sVmedley
p82
F1
sVhistorical
p83
F1
sV1,
p84
F1
sVand
p85
F6
sVcents
p86
F1
sVevangeline;
p87
F1
sVin
p88
F14
sVedge.
p89
F2
sVvoices
p90
F1
sVprincess.
p91
F1
sVlyrical
p92
F1
sVstudent.
p93
F1
sVbookplate.
p94
F1
sVprose
p95
F1
sV001.
p96
F1
sV002.
p97
F1
sVvolume,
p98
F12
sV-
F8
sVpoetry
p99
F1
sVromance
p100
F1
sVother
p101
F2
sVpilgrimage
p102
F1
sVpoems.
p103
F3
sVpoems,
p104
F1
sVplay
p105
F1
sVhyperion.
p106
F1
sVbelfry
p107
F1
sViv.
p108
F2
sVnarrative
p109
F1
sVv.
p110
F2
sVcents.
p111
F8
sVwilliam
p112
F3
sV16mo,
p113
F12
sVcover.
p114
F2
sVtwo
p115
F1
sVadvertisement
p116
F2
sVi.
p117
F3
sV]
F8
sVa
F16
sVenlarged.
p118
F3
sVtale
p119
F1
sViii.
p120
F2
sVthe
p121
F5
sVnight.
p122
F1
s.