ccollections
defaultdict
p1
(c__builtin__
float
p2
tRp3
Vall
p4
F9
sVwritings
p5
F2
sVgr
p6
F1
sVimmaginable:
p7
F1
sVexpence
p8
F1
sVson,
p9
F1
sVpervert
p10
F1
sVgrateful
p11
F1
sV(in
p12
F1
sVtranslation:
p13
F1
sVwhose
p14
F2
sVcertainly
p15
F1
sVpraises
p16
F1
sVplutarch
p17
F2
sVspirit
p18
F1
sVlanguages
p19
F2
sVto
p20
F40
sVcommon,
p21
F2
sVcritical
p22
F2
sVromanes
p23
F1
sVcharm'd
p24
F1
sVunder
p25
F1
sVpleasing
p26
F1
sVattempts
p27
F1
sVvery
p28
F1
sV![](/images/inline/ggr.gif)
p29
F1
sVtranslations
p30
F5
sVrend'red
p31
F1
sVevery
p32
F3
sVvastly
p33
F1
sVtrouble
p34
F1
sVnewly
p35
F1
sVand
p36
F87
sVdid
p37
F1
sVlanguage.
p38
F1
sV\u005c---has
p39
F1
sVlanguage,
p40
F1
sVcheap,
p41
F1
sVtranslation,
p42
F2
sVlanguage;
p43
F1
sV![](/images/inline/egr.gif)
p44
F5
sVcoxcombs
p45
F1
sVfamiliarly
p46
F1
sVi'll
p47
F1
sVcorrect
p48
F1
sV(if
p49
F1
sVtranslating
p50
F1
sVents
p51
F1
sVdesign
p52
F1
sVtully's
p53
F1
sVothers,
p54
F2
sVothers.
p55
F1
sV![](/images/inline/sbigr.gif)
p56
F1
sVeven
p57
F3
sVwill
p58
F6
sVwhat
p59
F5
sVcurse
p60
F1
sVhim;
p61
F1
sVnature,
p62
F1
sV![](/images/inline/aacgr.gif)
p63
F2
sVnature.
p64
F1
sVeminent
p65
F1
sVhim,
p66
F1
sVlearned
p67
F3
sVguilt.
p68
F1
sVever
p69
F2
sVfilled
p70
F1
sVlanguages!
p71
F1
sVnotions
p72
F1
sVmen
p73
F6
sVcommunicable
p74
F1
sVhere
p75
F1
sVunderstanding
p76
F1
sVmet
p77
F1
sVlet
p78
F1
sVconceited
p79
F2
sVothers
p80
F1
sVwrapt
p81
F1
sVdry
p82
F1
sVtranslations,
p83
F1
sVgreat
p84
F2
sVtranslations.
p85
F1
sVpearls
p86
F1
sVstudy
p87
F1
sVhierocles
p88
F1
sVpieces,
p89
F1
sVi'm
p90
F1
sVnarrow
p91
F1
sVcommendable
p92
F1
sV![](/images/inline/bgk.gif)
p93
F2
sV![](/images/inline/agvgr.gif)
p94
F4
sVuseful
p95
F1
sV![](/images/inline/rbogr.gif)
p96
F2
sVimagine
p97
F1
sVbrought
p98
F1
sVqualified
p99
F1
sVwit
p100
F1
sVon't
p101
F1
sVshould
p102
F1
sVuse
p103
F2
sVfrom
p104
F4
sVmight
p105
F1
sV&
F6
sVcharge
p106
F1
sVabroad
p107
F1
sVtherefore
p108
F2
sVtaken
p109
F1
sVagreeable
p110
F1
sVthemselves
p111
F2
sVsacred,
p112
F1
sVcriticks
p113
F1
sVmore
p114
F11
sV![](/images/inline/mgr.gif)
p115
F7
sVbarbarous
p116
F2
sVknows
p117
F1
sVholy
p118
F1
sVennius
p119
F1
sV(not
p120
F1
sVknown
p121
F1
sVignorant.
p122
F1
sVfrenchman,
p123
F1
sVmust
p124
F1
sVme
p125
F2
sVnone
p126
F2
sV![](/images/inline/bgr.gif)
p127
F2
sVthis
p128
F6
sV![](/images/inline/phgr.gif)
p129
F1
sVpretend
p130
F1
sVpr
p131
F1
sVcan
p132
F3
sVmy
p133
F2
sVus:
p134
F1
sVmeer
p135
F1
sVwant
p136
F1
sVgive
p137
F1
sVvulgar,
p138
F1
sVpieces
p139
F1
sVfin:
p140
F1
sVimitation
p141
F1
sVtab
p142
F1
sVamend
p143
F1
sVneeds
p144
F1
sV![](/images/inline/ohgr.gif)
p145
F2
sVspeech:
p146
F1
sVinnumerable
p147
F1
sVwrite
p148
F2
sVhow
p149
F2
sVsentiments
p150
F1
sVsacred
p151
F1
sVmysteries
p152
F1
sVretorted
p153
F1
sVswine
p154
F1
sVprefaces
p155
F1
sVmay
p156
F13
sVwaters
p157
F1
sVfancy,
p158
F1
sVschollars.
p159
F1
sVpiece,
p160
F1
sVabuse
p161
F1
sVbear
p162
F1
sV14.
p163
F1
sVsuch
p164
F3
sVgrow
p165
F1
sVman
p166
F3
sVa
F17
sVshort
p167
F1
sVremember
p168
F1
sV![](/images/inline/thgr.gif)
p169
F1
sVlight
p170
F1
sVknow,
p171
F1
sVsence
p172
F1
sVlines
p173
F1
sVthink
p174
F4
sVgreek
p175
F5
sVso
p176
F8
sVwrit,
p177
F1
sVlearning,
p178
F1
sVtalk
p179
F1
sVrabble;
p180
F1
sVdon't
p181
F2
sVover
p182
F1
sVyears
p183
F1
sVsymbols
p184
F1
sVwon't
p185
F1
sVlooks
p186
F1
sVantients,
p187
F1
sVview.
p188
F1
sVits
p189
F1
sVtendency
p190
F1
sVbefore
p191
F2
sV1
F2
sV,
F2
sVmeasures.
p192
F1
sVreluctancy
p193
F1
sVpass
p194
F1
sVit.
p195
F2
sVthem
p196
F1
sVgreater
p197
F2
sVtabellas
p198
F1
sVconceitedness
p199
F1
sVleisure
p200
F1
sV![](/images/inline/sbegr.gif)
p201
F1
sVilleterate
p202
F1
sVwou'd
p203
F3
sVthey
p204
F19
sVhalf
p205
F1
sVpossest
p206
F1
sVnow
p207
F8
sVordinary
p208
F1
sVnor
p209
F1
sVlucian's
p210
F1
sVl.
p211
F1
sValways
p212
F2
sVtraced
p213
F1
sVlongsome
p214
F1
sVtruth
p215
F1
sVdulness
p216
F1
sVwent
p217
F1
sVverbum
p218
F1
sVmean
p219
F1
sVeo
p220
F1
sVconfin'd
p221
F1
sVaurengezebe
p222
F1
sVor,
p223
F1
sVbooks
p224
F2
sVtransported.
p225
F1
sVmeasure
p226
F2
sVour
p227
F4
sVremov'd
p228
F1
sVout
p229
F1
sVgreeks
p230
F1
sVconfess
p231
F1
sVtime,
p232
F1
sVobstructions
p233
F1
sV![](/images/inline/sbugr.gif)
p234
F1
sVis,
p235
F3
sVgot
p236
F1
sVwaller.
p237
F1
sVcan,
p238
F1
sV1\u005c.
p239
F1
sVprofessions.
p240
F1
sVbelief
p241
F1
sV24.
p242
F1
sVanimals,
p243
F1
sVsmall
p244
F1
sVreason
p245
F2
sVegyptians
p246
F1
sVput
p247
F1
sVadvance
p248
F1
sVunally'd
p249
F1
sVlanguage
p250
F1
sVenglish
p251
F1
sVjust
p252
F1
sVhorace
p253
F1
sV![](/images/inline/agr.gif)
p254
F18
sVturn
p255
F1
sVlength
p256
F1
sVproduce
p257
F1
sVheav'n's
p258
F1
sVtrifling
p259
F1
sVgramarians.
p260
F1
sV(as
p261
F1
sVunlock'd
p262
F1
sVdelicate
p263
F2
sVfinest
p264
F1
sVsaies
p265
F1
sVrender
p266
F1
sVauthor,
p267
F2
sVtoo,
p268
F1
sVfancy
p269
F1
sVone
p270
F5
sVinstances
p271
F1
sVdone
p272
F1
sVpriests,
p273
F1
sVanother
p274
F1
sVmontaigne
p275
F1
sV'em
p276
F4
sVgiven
p277
F1
sVread:
p278
F1
sVhumour.
p279
F1
sVvulgar
p280
F2
sVleast
p281
F1
sVfaults,
p282
F1
sVtheir
p283
F13
sVwonderful
p284
F1
sVtoo
p285
F1
sVpains
p286
F2
sVhist.
p287
F1
sVtheocritus,
p288
F1
sVspeaking
p289
F2
sVennius,
p290
F1
sV\u005c---nihil
p291
F1
sVthat
p292
F26
sVserve
p293
F1
sVtook
p294
F2
sVsciences,
p295
F1
sVtreasures
p296
F2
sVauthors
p297
F2
sVyours
p298
F1
sVtranslation
p299
F1
sVbelieve
p300
F1
sVthan
p301
F7
sVungrateful
p302
F1
sVkind
p303
F1
sV12
p304
F1
sVlikely
p305
F1
sVunanswerable;
p306
F1
sVwere
p307
F3
sVearth.
p308
F1
sV1.
p309
F1
sVingenious
p310
F4
sVundertaking.
p311
F1
sVborrowing
p312
F1
sV![](/images/inline/igr.gif)
p313
F8
sVmind
p314
F1
sVargument
p315
F1
sV![](/images/inline/khgr.gif)
p316
F2
sVant
p317
F1
sVnotwithstanding
p318
F1
sVsay
p319
F3
sVrent
p320
F1
sVhave
p321
F17
sV![](/images/inline/ogk.gif)
p322
F1
sVcontemptible,
p323
F2
sVlie
p324
F1
sVafraid
p325
F1
sVdo,
p326
F1
sVyet)
p327
F1
sVstudying
p328
F2
sVable
p329
F1
sVsophocles;
p330
F1
sVlatine
p331
F2
sVmr.
p332
F1
sVlate,
p333
F1
sVwhich
p334
F6
sVwrit
p335
F2
sVmany
p336
F3
sVunderstand,
p337
F2
sVflourish'd
p338
F1
sVsure
p339
F2
sVunless
p340
F1
sVshall
p341
F1
sVprice
p342
F1
sVidle,
p343
F1
sVtongue?
p344
F1
sVbarrenness
p345
F1
sVsaid
p346
F1
sVentertain'd
p347
F1
sVbut
p348
F18
sVpleasure
p349
F1
sVnothing
p350
F5
sVwhy
p351
F2
sVcover
p352
F1
sVface
p353
F1
sVpart
p354
F1
sVfurnish
p355
F1
sVdispersed
p356
F1
sVpacuvius,
p357
F1
sVdespise
p358
F2
sVscattered
p359
F1
sVbring
p360
F1
sVexpressas,
p361
F1
sVearth
p362
F2
sVfear
p363
F1
sVfind
p364
F3
sVresemblance
p365
F1
sVknowledge
p366
F4
sVtitle
p367
F1
sV(
F1
sVdevines
p368
F1
sVonly
p369
F5
sVrich
p370
F2
sV![](/images/inline/egvgr.gif)
p371
F2
sVdesign,
p372
F1
sVhope
p373
F1
sVpoets,
p374
F1
sVdo
p375
F2
sVhis
p376
F11
sVheaven,
p377
F1
sV![](/images/inline/utigr.gif)
p378
F1
sV10
p379
F1
sV'tis
p380
F1
sVde
p381
F2
sVshou'd
p382
F3
sVtruly
p383
F1
sVplease)
p384
F1
sVones
p385
F1
sVwords
p386
F3
sVourselves.
p387
F1
sVhim
p388
F1
sV![](/images/inline/eeacgr.gif)
p389
F1
sVeverlasting
p390
F1
sVqu
p391
F1
sVsyllables:
p392
F1
sVyield
p393
F1
sV![](/images/inline/rgr.gif)
p394
F6
sVceb.
p395
F1
sVthem,
p396
F2
sVsteal
p397
F1
sVthis,
p398
F1
sVsee
p399
F2
sVare
p400
F14
sVgreece
p401
F1
sVcorrupt
p402
F1
sVfain
p403
F1
sV![](/images/inline/dgr.gif)
p404
F2
sVbest
p405
F2
sVconcern
p406
F1
sVthreatned)
p407
F1
sVexpert
p408
F1
sVdebar
p409
F1
sVhieroglyphicks
p410
F1
sVaecilius,
p411
F1
sVtutor,
p412
F1
sVpromised
p413
F1
sVneither
p414
F2
sVsea:
p415
F1
sVwe
p416
F4
sVnever
p417
F2
sVgod
p418
F2
sVhappiness.
p419
F1
sV![](/images/inline/sfgr.gif)
p420
F3
sVignorance
p421
F1
sVprophets,
p422
F1
sVcome
p423
F2
sVc
F1
sVlimits
p424
F1
sVhis,
p425
F1
sVcountry
p426
F1
sVtaking
p427
F1
sVtully,
p428
F2
sVminds
p429
F1
sVanon
p430
F1
sVvirgil,
p431
F1
sVwhole
p432
F3
sVtogether;
p433
F1
sVamong
p434
F2
sVhad
p435
F1
sVsatisfaction
p436
F1
sVgeneral,
p437
F1
sVlearning
p438
F10
sVsense)
p439
F1
sVconsidering
p440
F1
sVbetter
p441
F3
sVlock'd
p442
F1
sVdiscourses.
p443
F1
sVuniversities,
p444
F1
sVown,
p445
F1
sVown.
p446
F2
sVbeen
p447
F2
sV.
F5
sVmuch
p448
F4
sVmelius;
p449
F1
sVuniversities?
p450
F1
sVcurtain
p451
F1
sVhome.
p452
F1
sVlife
p453
F1
sVextravagant;
p454
F1
sVblessing
p455
F1
sVexcite
p456
F1
sVelse
p457
F1
sVpo.
p458
F1
sV![](/images/inline/ogr.gif)
p459
F6
sVobserve
p460
F2
sVlives
p461
F1
sVvanity
p462
F1
sVlike;
p463
F1
sVthose
p464
F7
sVhomer
p465
F2
sVwill;
p466
F1
sVlatines,
p467
F1
sV![](/images/inline/igvgr.gif)
p468
F3
sVtheoritus,
p469
F1
sVmeans
p470
F1
sVvalue
p471
F1
sVemploy
p472
F1
sVcast
p473
F1
sVlucretius
p474
F1
sVmescel
p475
F1
sVmenander,
p476
F1
sVfool
p477
F1
sVthought.
p478
F1
sVapprehend
p479
F1
sVis
p480
F5
sVrome,
p481
F1
sVit
p482
F16
sVitself
p483
F1
sVagainst
p484
F2
sVin
p485
F34
sVif
p486
F4
sVphil.
p487
F1
sVauthor
p488
F1
sVperhaps
p489
F2
sVthings
p490
F2
sVmake
p491
F4
sVof)
p492
F1
sVcost,
p493
F1
sVlatinas
p494
F1
sVsame
p495
F3
sVany
p496
F2
sVseveral
p497
F1
sVexcell'd
p498
F1
sVnoble
p499
F1
sVdeclaring
p500
F1
sVbald
p501
F1
sVupon
p502
F2
sVdelight
p503
F1
sVpersons
p504
F1
sVdebasement.
p505
F1
sVauthors,
p506
F3
sVpurpose
p507
F2
sVbonum
p508
F1
sVsupposing
p509
F2
sVcurst:
p510
F1
sVlaborious
p511
F1
sVenglish:
p512
F1
sVsuitable
p513
F1
sVi
F17
sVess.
p514
F1
sVwell
p515
F3
sVspent
p516
F1
sVpart.
p517
F1
sVthought
p518
F1
sVthese
p519
F1
sVwithout
p520
F2
sVgreatest
p521
F1
sVenglish.
p522
F1
sVmother
p523
F1
sVtoil
p524
F1
sVthe
p525
F62
sVwhereas
p526
F2
sVlib.
p527
F1
sVjudgments
p528
F1
sVless
p529
F2
sVmatter.
p530
F1
sVrest
p531
F1
sVnot
p532
F12
sVfeet,
p533
F1
sVaecis
p534
F1
sVyet
p535
F6
sVpresumption
p536
F1
sVscriptures,
p537
F1
sVdialogues
p538
F1
sV![](/images/inline/kgr.gif)
p539
F4
sVregarded
p540
F1
sVseems
p541
F1
sVtrample
p542
F1
sVtranslate,
p543
F1
sVbeloved
p544
F1
sVhas
p545
F5
sVought
p546
F1
sVtake
p547
F1
sVkingdom
p548
F1
sVmakes
p549
F1
sVranslations
p550
F1
sVread
p551
F5
sVcapacities
p552
F2
sVknow
p553
F2
sVworld
p554
F2
sVshadow
p555
F1
sVfince
p556
F1
sVopinion,
p557
F1
sVdisadvantage
p558
F1
sVdesire
p559
F1
sVacquainted
p560
F1
sVlike
p561
F1
sVeither
p562
F1
sVjudea,
p563
F1
sVworks
p564
F1
sVobstruct
p565
F1
sVbecause
p566
F1
sVexposed
p567
F1
sVit,
p568
F1
sVcor.
p569
F1
sV11.
p570
F1
sVsome
p571
F7
sVthro'
p572
F1
sVapostles,
p573
F1
sV![](/images/inline/ohtigr.gif)
p574
F2
sVtedious,
p575
F1
sVproductions
p576
F1
sV\u1f14![](/images/inline/sgr.gif)
p577
F1
sVkings
p578
F1
sVproper
p579
F1
sVhome
p580
F1
sVpublick
p581
F1
sVeuripides,
p582
F1
sVfor
p583
F13
sVcommunius
p584
F1
sVbabel
p585
F1
sVtranslating.
p586
F1
sVdiscerning
p587
F1
sV?
F1
sVhorat.
p588
F1
sVbe
p589
F11
sVwho
p590
F5
sVlate
p591
F1
sV![](/images/inline/oacgr.gif)
p592
F1
sVlatine,
p593
F2
sVvulgus.
p594
F1
sVby
p595
F4
sVfragment,
p596
F1
sVmost
p597
F2
sVconceal
p598
F1
sVof
p599
F51
sV![](/images/inline/tgr.gif)
p600
F8
sVovid,
p601
F1
sVo
F1
sVovid.
p602
F1
sVpractical
p603
F1
sVprofanum
p604
F1
sVtongue
p605
F1
sVor
p606
F4
sVtherein
p607
F1
sVhands,
p608
F1
sVown
p609
F6
sV![](/images/inline/lgr.gif)
p610
F5
sVfor,
p611
F2
sVinto
p612
F1
sVblessed
p613
F1
sVaugustus
p614
F1
sV'em.
p615
F1
sVwit,
p616
F1
sVworst,
p617
F1
sVyour
p618
F6
sVadmirable
p619
F1
sVthere
p620
F2
sVpages
p621
F1
sVvirgil
p622
F1
sVway
p623
F2
sVoriginal.
p624
F2
sV![](/images/inline/uacgr.gif)
p625
F1
sVtranslate
p626
F1
sVwas
p627
F2
sVfathers
p628
F1
sVhimself
p629
F2
sVmischief
p630
F1
sVwits
p631
F1
sVsomething
p632
F1
sVconverse
p633
F1
sVamongst
p634
F1
sVeffects,
p635
F1
sVperform'd
p636
F1
sVhear
p637
F1
sVcurse,
p638
F1
sVintegrity,
p639
F1
sVwith
p640
F10
sVhe
p641
F4
sVmade
p642
F2
sVwise
p643
F2
sVshew
p644
F1
sVup
p645
F2
sVus
p646
F1
sVfirst
p647
F1
sVgone
p648
F1
sVpalate
p649
F1
sVinsipid,
p650
F1
sVad
p651
F1
sVesent
p652
F1
sVlost.
p653
F1
sVan
p654
F1
sV![](/images/inline/pgr.gif)
p655
F1
sVas
p656
F20
sVmogul.
p657
F1
sVat
p658
F5
sVmechanick
p659
F1
sVwillingly
p660
F1
sVagain
p661
F1
sVknowledge,
p662
F1
sVunintelligible
p663
F1
sVno
p664
F5
sVobjection
p665
F2
sVminds.
p666
F1
sV![](/images/inline/ngr.gif)
p667
F8
sVpeace
p668
F1
sVwhen
p669
F10
sVperuse
p670
F1
sVcommoness
p671
F1
sVconceptions
p672
F1
sVother
p673
F4
sVyou
p674
F18
sVnay
p675
F3
sVnice
p676
F1
sVindeed,
p677
F1
sVsbiacgr;
p678
F1
sVadvancement.
p679
F1
sVimportant
p680
F1
sV[illeg.]
p681
F1
sVdelightful,
p682
F1
sVvivum,
p683
F1
sVghost
p684
F1
sVlonger
p685
F1
sVtime
p686
F4
sVunderstand
p687
F3
sV2d.
p688
F1
sV![](/images/inline/eacgr.gif)
p689
F1
sVoriginal
p690
F1
sVequal'd
p691
F1
sVonce
p692
F2
s.