ccollections
defaultdict
p1
(c__builtin__
float
p2
tRp3
Vspeaks,
p4
F1
sVaemulari
p5
F1
sVall
p6
F3
sVwritings
p7
F1
sVbeauties
p8
F2
sVdetract
p9
F1
sVabsurdities
p10
F1
sVplays,
p11
F1
sVaccurate
p12
F1
sVlaziness
p13
F1
sVnoblest
p14
F1
sVproduced
p15
F2
sVoccasions.
p16
F1
sVstatuary,
p17
F1
sVscrupulously
p18
F1
sVnegligence
p19
F1
sVone
p20
F2
sVsecundum
p21
F1
sVenvy
p22
F1
sVshakspeare
p23
F1
sVgenius
p24
F1
sVmuses
p25
F1
sVexact
p26
F1
sVgusto
p27
F1
sVhad
p28
F1
sV,
F1
sVviolated!
p29
F1
sVto
p30
F10
sVonly
p31
F1
sVproduction
p32
F1
sVnegligentiam
p33
F1
sVchoose
p34
F1
sVancients,
p35
F1
sVhas
p36
F1
sVdeviating
p37
F1
sVdo
p38
F1
sVthem
p39
F2
sVgood
p40
F1
sVgreater
p41
F1
sVdescendants
p42
F1
sVvery
p43
F3
sVmasters,
p44
F1
sVnext
p45
F1
sVsons
p46
F1
sVnox
p47
F1
sVknow
p48
F1
sVthey
p49
F3
sVnot
p50
F8
sVhe
p51
F1
sVsleep.
p52
F1
sVwriting,
p53
F1
sVkilled
p54
F1
sVwriting.
p55
F1
sVacquainted
p56
F1
sVlike
p57
F1
sVsuccess
p58
F1
sVill
p59
F1
sVadhering
p60
F1
sVistorum
p61
F1
sVmen,
p62
F1
sVthis
p63
F2
sVarchitecture
p64
F1
sVcritic,
p65
F1
sVveins
p66
F1
sVthem.
p67
F2
sVobscure
p68
F1
sVworks
p69
F5
sVwhere
p70
F2
sVhelp
p71
F1
sVpyrrhus's
p72
F1
sVus,
p73
F1
sVold
p74
F1
sVoften
p75
F3
sVobserves
p76
F2
sVimitate
p77
F1
sVthem;
p78
F1
sVnotice
p79
F1
sVothers;
p80
F1
sVshewn
p81
F2
sVare
p82
F8
sVnotwithstanding
p83
F1
sVour
p84
F3
sVsubject
p85
F1
sVthat,
p86
F1
sVestablished
p87
F1
sVwhat
p88
F2
sVsaid
p89
F1
sVproceeding
p90
F1
sVsophists
p91
F1
sVfor
p92
F1
sVnature,
p93
F1
sVcelebrated
p94
F2
sVboth
p95
F1
sVartificial
p96
F1
sVcritics
p97
F1
sVdecry
p98
F1
sVdr.
p99
F1
sVprobably
p100
F1
sVnumerous
p101
F1
sVbe
p102
F1
sVwe
p103
F2
sVled
p104
F1
sVmen
p105
F3
sVextraordinary
p106
F1
sVreason
p107
F1
sV"
F1
sVrules
p108
F4
sVobscuram
p109
F1
sVopposition
p110
F1
sVdistinguish
p111
F1
sVinimitable
p112
F1
sVarts,
p113
F1
sVby
p114
F2
sVstage
p115
F1
sVon
p116
F1
sVgreat
p117
F2
sVpiece
p118
F1
sVzdly,
p119
F1
sVdiligence."
p120
F1
sVdiscover.
p121
F1
sVmany
p122
F1
sVcould
p123
F2
sVdrama,
p124
F1
sVart,
p125
F2
sVring,
p126
F1
sVrule
p127
F3
sVcavillers
p128
F1
sV.
F1
sVwhole
p129
F1
sVor
p130
F1
sVfrequent
p131
F1
sVtribe
p132
F1
sVdepart
p133
F1
sVconsolation
p134
F1
sVerrors.
p135
F1
sV"whose
p136
F1
sVcritics,
p137
F1
sVinto
p138
F1
sVcritics.
p139
F1
sVexoptat
p140
F1
sVapt
p141
F1
sVson
p142
F1
sVinstances
p143
F1
sVinstruct
p144
F1
sVitalians
p145
F1
sVit,
p146
F1
sVpliny
p147
F1
sVshort,
p148
F1
sVart
p149
F2
sVdone.
p150
F1
sVconsidering
p151
F1
sVsensible
p152
F1
sVlittle
p153
F3
sVancient
p154
F1
sVfrom
p155
F7
sVwould
p156
F3
sVmomus
p157
F1
sVnine
p158
F1
sVthere
p159
F6
sVillustrious
p160
F1
sVtwo
p161
F1
sVbeen
p162
F1
sVreceded
p163
F1
sVtheir
p164
F1
sVmuch
p165
F2
sVtragic
p166
F1
sVpains
p167
F1
sVphilosophers.
p168
F1
sVcall
p169
F2
sVperfectly
p170
F1
sVwas
p171
F1
sVpurposely
p172
F1
sVmore
p173
F3
sVeyes
p174
F1
sVarises
p175
F1
sVfirst,
p176
F2
sVknows
p177
F2
sVthat
p178
F5
sVmen's
p179
F1
sVstone
p180
F1
sVbut
p181
F1
sVtime:
p182
F1
sVquam
p183
F1
sVnobler
p184
F1
sVfruits
p185
F1
sVignorant
p186
F3
sVplace,
p187
F1
sVancestors.
p188
F1
sVpieces
p189
F1
sVwith
p190
F3
sVthan
p191
F7
sVthose
p192
F6
sVquorum
p193
F1
sVantiquity
p194
F1
sVand,
p195
F1
sVmade
p196
F1
sVparticular;
p197
F1
sVthese
p198
F6
sVwork
p199
F1
sVcritic
p200
F1
sVi
F1
sVidle
p201
F1
sVgrande
p202
F1
sVof
p203
F40
sVstumbling-block
p204
F1
sVmythology
p205
F1
sVspontaneous
p206
F1
sVignorance;
p207
F1
sVsublime
p208
F1
sVart.
p209
F1
sVand
p210
F12
sVhis
p211
F3
sVfigure
p212
F1
sVgive
p213
F1
sVis
p214
F11
sVmodern
p215
F1
sVit
p216
F2
sVan
p217
F1
sVas
p218
F3
sVway
p219
F2
sVat
p220
F1
sVhave
p221
F8
sVin
p222
F20
sVseem
p223
F1
sVpotius
p224
F1
sVany
p225
F3
sVcompared
p226
F3
sVrather
p227
F2
sVapollo
p228
F1
sVwhen
p229
F1
sVsame
p230
F1
sVtells
p231
F1
sVterence
p232
F1
sVfaults
p233
F1
sVwriters
p234
F1
sVread
p235
F1
sVtake
p236
F1
sVwhich
p237
F5
sVthemselves,
p238
F1
sVheathen
p239
F1
sVout
p240
F1
sVdiligentiam."
p241
F1
sVhigher
p242
F1
sVcavil
p243
F1
sVsomnus
p244
F1
sVplay
p245
F1
sVbeauty
p246
F3
sVmay
p247
F2
sVwho
p248
F9
sVmodern,
p249
F1
sVeffect
p250
F1
sVgenius,
p251
F4
sVhand
p252
F1
sVaccomplish
p253
F1
sVbeen.
p254
F1
sVsuch
p255
F1
sV1
F1
sVjudgment
p256
F2
sVsurveyed
p257
F1
sVsingle
p258
F1
sVdarkness
p259
F1
sVa
F14
sVdeviations
p260
F1
sVnatural
p261
F1
sVobservation
p262
F1
sVpeople,
p263
F1
sVsometimes
p264
F1
sVwell
p265
F1
sVobserved,
p266
F1
sVdaily
p267
F1
sVwithout
p268
F1
sVwhich,
p269
F1
sVgreatest
p270
F1
sVartem
p271
F1
sVrigid
p272
F1
sVthe
p273
F38
s.