ccollections
defaultdict
p1
(c__builtin__
float
p2
tRp3
Vbe-spread
p4
F1
sVimitation,
p5
F1
sVall
p6
F4
sVthink
p7
F1
sVparticularly
p8
F1
sVsayings,
p9
F1
sVdeftly
p10
F1
sVfrom
p11
F3
sVbeing
p12
F3
sVjoin.
p13
F1
sVmoon-light
p14
F1
sVrest
p15
F1
sVshould
p16
F1
sVcheerful
p17
F1
sVhath
p18
F1
sVyearn
p19
F1
sVthrough
p20
F1
sVcircling
p21
F1
sV(if
p22
F1
sVancients
p23
F1
sVlaurel
p24
F1
sVintroduced
p25
F1
sVshepherds.
p26
F1
sVits
p27
F2
sValbino's
p28
F1
sVground
p29
F1
sVadown
p30
F1
sVwanton
p31
F1
sVlovingly
p32
F1
sVfeet?
p33
F1
sVtill
p34
F1
sVlo
p35
F1
sVhad
p36
F1
sV,
F3
sVupraise
p37
F1
sVfair,
p38
F1
sVbetter
p39
F1
sVto
p40
F11
sVonly
p41
F1
sVoaten
p42
F1
sVmedly'd
p43
F1
sVdance
p44
F2
sVreason
p45
F1
sVgreen,
p46
F2
sVpleasing
p47
F1
sVelves
p48
F1
sVpoets,
p49
F1
sVdeceives
p50
F1
sVwont
p51
F1
sVhis
p52
F1
sVendive
p53
F1
sVsong
p54
F1
sVvery
p55
F3
sVdevised
p56
F1
sVfairies
p57
F1
sVleisure
p58
F1
sVheedless
p59
F1
sVsweets
p60
F1
sVevery
p61
F1
sVit;
p62
F1
sVthey
p63
F4
sVdapper
p64
F1
sVdifference
p65
F1
sVnor
p66
F1
sVway,
p67
F1
sVextreamly
p68
F1
sVfollowing
p69
F1
sVvine,
p70
F1
sVcame.
p71
F1
sVsky.
p72
F1
sVdid
p73
F1
sVever
p74
F1
sVwhilome
p75
F1
sVlingring
p76
F1
sVmantling
p77
F1
sVthese
p78
F1
sV'mong
p79
F1
sVcowslip
p80
F1
sVwarblings
p81
F1
sVentirely
p82
F1
sVgarden
p83
F1
sVold
p84
F1
sVmeadow
p85
F1
sVdeal
p86
F1
sVgambol'd
p87
F1
sVspring
p88
F1
sVgambols
p89
F1
sVsome
p90
F1
sVthro'
p91
F1
sVaround
p92
F1
sVare
p93
F3
sVnamely,
p94
F1
sVtender
p95
F1
sVour
p96
F3
sVpublick
p97
F1
sVbeneath!
p98
F1
sVout
p99
F1
sVblue
p100
F1
sVstrew,
p101
F1
sVwhat
p102
F1
sVsaid
p103
F1
sVwoodbine,
p104
F1
sVfor
p105
F3
sVsun
p106
F1
sVtales
p107
F1
sVplease
p108
F1
sVpope.
p109
F1
sVbalmy
p110
F1
sVbirds
p111
F1
sVday.
p112
F1
sVshade.
p113
F2
sVfountain
p114
F1
sVvarious
p115
F1
sVore:
p116
F1
sVflowing
p117
F1
sVharp,
p118
F1
sVpretty,
p119
F1
sVgame;
p120
F1
sVbe
p121
F3
sVwho
p122
F1
sVthrush
p123
F1
sVking-cup
p124
F1
sVclimbs
p125
F1
sVhamlets
p126
F1
sVhere
p127
F1
sVsuperstition
p128
F1
sVsports
p129
F3
sVmoulin
p130
F1
sVgoblins
p131
F1
sVif
p132
F1
sVmerry
p133
F2
sVtempt
p134
F1
sVpastoral
p135
F2
sVarts,
p136
F1
sVuniversally
p137
F1
sVchange
p138
F1
sVgoblet
p139
F1
sVpity
p140
F1
sVon
p141
F2
sVabout
p142
F2
sVhead,
p143
F1
sVretained
p144
F1
sVwould
p145
F1
sVof
p146
F12
sVcould
p147
F1
sVrustical
p148
F1
sVknown,
p149
F1
sVring,
p150
F1
sVplace
p151
F1
sVhob-thrushes,
p152
F1
sVantick
p153
F1
sVplay.
p154
F1
sVrouts
p155
F1
sVdaisies
p156
F1
sVbeautiful.
p157
F1
sVgolden
p158
F1
sVgrows,
p159
F1
sVown
p160
F1
sVbramble-bush
p161
F1
sVimitation
p162
F1
sVwin
p163
F1
sVsmelling
p164
F1
sVwhile
p165
F1
sVreaches
p166
F1
sVnow!
p167
F1
sVdances
p168
F1
sVconsecrate
p169
F1
sVsuch
p170
F1
sVdone,
p171
F1
sVelms
p172
F1
sVyour
p173
F1
sVhearts?
p174
F1
sVdress,
p175
F1
sVlittle
p176
F2
sVancient
p177
F2
sVdescribed
p178
F1
sVpersons,
p179
F1
sVcapable
p180
F1
sVobvious;
p181
F1
sVthere
p182
F1
sVpoplar
p183
F1
sVbeen
p184
F1
sVby
p185
F2
sVlobbin
p186
F1
sVtheir
p187
F4
sVwhich
p188
F3
sVairy
p189
F1
sVproverbial
p190
F1
sVwas
p191
F1
sVbreathe
p192
F1
sVgaudy
p193
F1
sVking,
p194
F1
sVthat
p195
F6
sVtuneful
p196
F2
sVbut
p197
F1
sVmine
p198
F1
sVtheology,
p199
F1
sVhobbinol
p200
F1
sVpart
p201
F1
sVchase
p202
F1
sVwhite,
p203
F1
sVbranches
p204
F1
sVwith
p205
F3
sVthan
p206
F1
sVlads,
p207
F1
sVme
p208
F1
sVshepherds
p209
F2
sVqueen,
p210
F1
sVmade
p211
F3
sVround
p212
F1
sVconsort
p213
F2
sVthis
p214
F3
sVup
p215
F1
sVus
p216
F1
sVwill
p217
F1
sVgoldfinch,
p218
F1
sVsprights
p219
F1
sVyoung
p220
F1
sVwere
p221
F1
sVwarbled
p222
F1
sVhead.
p223
F1
sVsweet,
p224
F1
sVgrass
p225
F1
sVmy
p226
F3
sVcombine,
p227
F1
sVsay
p228
F1
sVexamples
p229
F1
sVand
p230
F21
sVcare,
p231
F1
sVfairies,
p232
F1
sVhue
p233
F1
sVbest
p234
F1
sVsoil
p235
F1
sVis
p236
F4
sVflow'r
p237
F1
sVit
p238
F2
sVas
p239
F2
sVrustick
p240
F1
sVup-rears
p241
F1
sVin
p242
F5
sVseen
p243
F1
sVseem
p244
F1
sVshift
p245
F1
sVfame
p246
F1
sVfill
p247
F1
sV!
F2
sVstore,
p248
F1
sVeglantine,
p249
F1
sVhark,
p250
F1
sVmake
p251
F1
sVwhen
p252
F1
sVpoetry
p253
F1
sVunite
p254
F1
sVlearn?
p255
F1
sVhow
p256
F4
sVmr.
p257
F1
sVwitches.
p258
F1
sVambitious
p259
F1
sVth'
p260
F1
sVso
p261
F3
sVseveral
p262
F1
sVbring
p263
F1
sVmusick
p264
F1
sVlavish
p265
F1
sVcuddy
p266
F1
sVshall
p267
F1
sVmay
p268
F1
sVwhy
p269
F1
sVclimate,
p270
F1
sVupon
p271
F2
sVadmist
p272
F1
sVlasses
p273
F1
sVcustoms
p274
F1
sVdevoid
p275
F1
sVi,
p276
F2
sV\u005c---o
p277
F1
sVviolet,
p278
F1
sVreed,
p279
F1
sVmade,
p280
F1
sVentertaining
p281
F1
sVa
F2
sVmico
p282
F1
sVpursue.
p283
F1
sVmirth
p284
F2
sVfairy
p285
F1
sVpigmy
p286
F1
sVi
F2
sVchanges
p287
F1
sVmany
p288
F1
sVwell
p289
F1
sVdewy
p290
F1
sVtheology
p291
F1
sVtale
p292
F1
sVchief
p293
F1
sVgreen
p294
F2
sVsing,
p295
F1
sVrose:
p296
F1
sVthe
p297
F35
sVtrue)
p298
F1
sVself
p299
F1
sVspringing
p300
F1
sVsongs
p301
F1
s.