ccollections
defaultdict
p1
(c__builtin__
float
p2
tRp3
Vall
p4
F7
sVremarkable
p5
F1
sVconceiv'd
p6
F1
sVmonth
p7
F1
sVfour
p8
F2
sVconsists
p9
F1
sVundisputed
p10
F1
sVcertainly
p11
F1
sVday,
p12
F1
sVto
p13
F46
sVpresent
p14
F1
sVdivision
p15
F1
sVevident,
p16
F1
sVfar
p17
F1
sVwriting;
p18
F1
sVevery
p19
F3
sVinference;
p20
F1
sVdifference
p21
F1
sVexact
p22
F1
sVrecreation
p23
F1
sVpresented
p24
F1
sVturns
p25
F1
sVlanguage.
p26
F1
sVpassions
p27
F1
sVbetwixt
p28
F1
sVwork
p29
F1
sVconcise
p30
F1
sVelegant
p31
F1
sVtitles
p32
F1
sVpass
p33
F1
sVnotwithstanding
p34
F1
sVwill
p35
F1
sVwhat
p36
F2
sVnarrations
p37
F1
sVappear
p38
F1
sVnature,
p39
F1
sVforegoing
p40
F1
sVhim.
p41
F1
sVhim,
p42
F1
sVcharacters,
p43
F1
sVflowing
p44
F1
sVnew
p45
F1
sV;
F1
sVprincipal
p46
F1
sVever
p47
F2
sVnotions
p48
F1
sVdegree
p49
F1
sVmen
p50
F1
sVobjects
p51
F1
sVothers
p52
F2
sValone
p53
F1
sVconsideration
p54
F1
sValong
p55
F1
sVoutdone
p56
F1
sVappears
p57
F2
sVgreat
p58
F2
sVemploy'd
p59
F1
sVstudy
p60
F1
sVbeautiful:
p61
F1
sVreason
p62
F2
sVdoric
p63
F1
sVchanges
p64
F1
sVgolden
p65
F1
sVuseful
p66
F1
sVvisibly
p67
F1
sVapt
p68
F1
sVsmoothest,
p69
F1
sVmoral
p70
F1
sVuse
p71
F1
sVfrom
p72
F6
sVwould
p73
F2
sVallegorical,
p74
F1
sVfew
p75
F1
sVcall
p76
F1
sVtherefore
p77
F2
sVagreeable
p78
F1
sVcriticks
p79
F1
sVmore
p80
F2
sVsort
p81
F2
sVname,
p82
F1
sVparticular
p83
F2
sVgiven
p84
F1
sVmust
p85
F3
sVshepherds
p86
F3
sVthis
p87
F11
sVus,
p88
F1
sVsuch;
p89
F1
sVfollowing
p90
F1
sVbeautiful
p91
F1
sVcompare
p92
F1
sVmonths
p93
F1
sVsense
p94
F1
sVhis
p95
F23
sVnumbers
p96
F2
sVhours.
p97
F1
sVconcise.
p98
F1
sVrather
p99
F1
sVpoetry
p100
F2
sVaspects.
p101
F1
sVdiscover'd.
p102
F1
sVfourth
p103
F1
sVloose,
p104
F1
sVsimplicity
p105
F2
sVbeauty
p106
F2
sVoblig'd
p107
F2
sVmay
p108
F6
sVlines,
p109
F1
sVdigressions,
p110
F1
sVsuch
p111
F1
sVa
F21
sVshort
p112
F1
sVpropriety
p113
F2
sVso
p114
F8
sVallow
p115
F1
sVdeliver'd
p116
F1
sVorder
p117
F1
sVfurnish
p118
F1
sVlyric
p119
F1
sVancients
p120
F1
sVview,
p121
F1
sVstill
p122
F1
sVdesign,
p123
F1
sVbefore
p124
F1
sVsuperior
p125
F1
sVstyle
p126
F1
sVfit
p127
F1
sVmonths,
p128
F1
sV,
F6
sVhim
p129
F4
sVspoken
p130
F1
sVobserv'd,
p131
F1
sVpastoral:
p132
F1
sVwriters,
p133
F1
sVimage
p134
F1
sVmaster.
p135
F1
sVit.
p136
F1
sVthen
p137
F1
sVthem
p138
F3
sVpractice
p139
F2
sVintroduce
p140
F1
sVscene
p141
F1
sVit:
p142
F1
sVthey
p143
F7
sVnot
p144
F11
sVinsisting
p145
F1
sVone
p146
F1
sVday
p147
F2
sVnor
p148
F2
sVinstructions
p149
F1
sVidyllia
p150
F2
sValways
p151
F1
sVcomparisons,
p152
F1
sVeach
p153
F3
sVentirely
p154
F2
sVside
p155
F1
sV(the
p156
F1
sVpoem,
p157
F2
sVdialect
p158
F1
sVidea
p159
F1
sVeclogues
p160
F4
sVshort,
p161
F1
sVfarther,
p162
F1
sVshewn
p163
F1
sVyear
p164
F1
sVour
p165
F3
sVtenth
p166
F1
sVreally
p167
F1
sVmouths
p168
F1
sVsince
p169
F3
sVcritics
p170
F1
sVgierusalemme
p171
F1
sVfontenelle
p172
F1
sVshepherd's
p173
F1
sVeclogue.
p174
F1
sVbesides
p175
F1
sVheroic
p176
F1
sVcare
p177
F1
sVdialect:
p178
F1
sVrusticity;
p179
F1
sVexposing
p180
F1
sVphrases
p181
F1
sVcould
p182
F1
sVomit
p183
F1
sVsuccess
p184
F1
sVtimes
p185
F1
sVlength
p186
F1
sVrusticity,
p187
F1
sVperfection,
p188
F1
sV(as
p189
F2
sVfrequent
p190
F2
sVfirst
p191
F2
sVrender
p192
F2
sVtoo.
p193
F1
sVtranquillity.
p194
F1
sVshort;
p195
F1
sVdone
p196
F2
sVconfin'd
p197
F1
sVcarry
p198
F1
sVquality
p199
F1
sVenough:
p200
F1
sVlittle
p201
F3
sVancient
p202
F1
sVbe.
p203
F1
sVpersons,
p204
F1
sVthoughts,
p205
F1
sVtheir
p206
F6
sVwonderful
p207
F1
sVtoo
p208
F4
sVpoints.
p209
F1
sVimperfect
p210
F1
sVthat
p211
F20
sVseason
p212
F1
sVinstance.
p213
F1
sVinstance,
p214
F1
sVpart
p215
F1
sVsomewhat
p216
F1
sVauthors
p217
F2
sVcopy
p218
F2
sVthan
p219
F2
sVkind
p220
F1
sVscenes
p221
F1
sVplain,
p222
F1
sVvariety.
p223
F1
sVinanimate;
p224
F1
sVto.
p225
F1
sVwere
p226
F1
sVfishermen
p227
F1
sVpleasing.
p228
F1
sVdescriptions
p229
F1
sVand
p230
F39
sVvacant
p231
F1
sVseason.
p232
F1
sVpart,
p233
F1
sVages
p234
F1
sVpeculiar
p235
F1
sVmeasure,
p236
F2
sVhave
p237
F10
sVsentences
p238
F1
sVmoderns,
p239
F1
sVseem
p240
F2
sVany
p241
F2
sVaffairs
p242
F1
sVeighth,
p243
F1
sVgreek
p244
F1
sVmr.
p245
F1
sVsubjects
p246
F3
sVtake
p247
F1
sVwhich
p248
F12
sVdestroy
p249
F1
sVmany
p250
F1
sVshall
p251
F1
sVwho
p252
F2
sVfalls
p253
F1
sVmost
p254
F5
sVbrief,
p255
F1
sVage,
p256
F2
sVcharm
p257
F1
sVsixth,
p258
F1
sVlong,
p259
F1
sVnothing
p260
F3
sVextremely
p261
F1
sVtreats
p262
F1
sVinto
p263
F1
sVsometimes
p264
F5
sVpoints
p265
F1
sVsubject;
p266
F1
sVnotion
p267
F1
sVimmodest,
p268
F1
sVpurely
p269
F1
sVfifth
p270
F1
sVdesign'd
p271
F1
sVpastoral
p272
F7
sVknowledge
p273
F1
sVinterrogations
p274
F1
sVstanza
p275
F1
sVshould
p276
F6
sVonly
p277
F6
sVscrupulous
p278
F1
sVancients.
p279
F2
sVpoets.
p280
F1
sVinferior
p281
F1
sVcircumstances;
p282
F1
sVmiseries.
p283
F1
sV'tis
p284
F2
sVnatural,
p285
F2
sVfamous
p286
F1
sVcannot
p287
F2
sVclosely
p288
F1
sVconduces
p289
F1
sVrelish
p290
F1
sVclownish.
p291
F1
sVstranger
p292
F1
sVcommon
p293
F1
sVcontain
p294
F1
sVthem.
p295
F1
sVwhere
p296
F1
sVbrevity,
p297
F1
sVview
p298
F1
sVart
p299
F2
sVconnections
p300
F1
sVare
p301
F8
sVcouplet.
p302
F1
sVgreece
p303
F1
sVcalendar
p304
F1
sVbest
p305
F3
sVseems
p306
F2
sVits
p307
F4
sVgenius
p308
F1
sVenough
p309
F2
sVvarious
p310
F1
sVdrawn
p311
F2
sVtho'
p312
F3
sVman,
p313
F1
sVtheocritus
p314
F6
sVpreserve
p315
F1
sVwe
p316
F7
sVextend
p317
F1
sVnature
p318
F1
sVdescription,
p319
F3
sVdistinguish
p320
F1
sVtaken,
p321
F1
sVcondition.
p322
F1
sVlast
p323
F2
sVfault
p324
F1
sVobsolete,
p325
F1
sVreaders
p326
F1
sVdryden
p327
F1
sVexceeds
p328
F1
sVwhole
p329
F1
sVcomes
p330
F2
sVtogether;
p331
F1
sVamong
p332
F1
sVinclining
p333
F1
sVsimple
p334
F1
sVsweet
p335
F1
sVmanners
p336
F1
sVtogether,
p337
F1
sVrespect
p338
F2
sVcomprehend
p339
F1
sVsay,
p340
F1
sVaddition
p341
F1
sVcopies
p342
F1
sVbeen
p343
F4
sV.
F3
sVimaginable.
p344
F1
sVwhom
p345
F1
sVsecret
p346
F1
sVmuch
p347
F5
sVcomposures
p348
F1
sVemployments
p349
F1
sVfollow'd
p350
F1
sVconcerning
p351
F1
sVdelightful;
p352
F1
sVgeneral
p353
F1
sVthose
p354
F2
sVprospect
p355
F1
sVdelight.
p356
F1
sVemployment.
p357
F1
sVthese
p358
F4
sVreapers
p359
F1
sVair
p360
F1
sVlearn'd
p361
F1
sVnear
p362
F1
sVsuppose
p363
F1
sVcountry
p364
F2
sVlife,
p365
F1
sVat
p366
F3
sVannex'd
p367
F1
sV's:
p368
F1
sVis
p369
F25
sVit
p370
F15
sVregularity
p371
F1
sVcalender
p372
F1
sVin
p373
F42
sVif
p374
F2
sVdifferent
p375
F2
sVitaly
p376
F1
sVperhaps
p377
F2
sVthings
p378
F1
sVmake
p379
F2
sVconcealing
p380
F1
sVpattern.
p381
F1
sVsame
p382
F1
sVendeavour'd
p383
F1
sVexcells
p384
F1
sVmanners,
p385
F1
sVseveral
p386
F4
sVobtain'd
p387
F1
sVbeen;
p388
F1
sVused
p389
F1
sVupon
p390
F2
sVspenser
p391
F4
sVnecessity
p392
F1
sVnation
p393
F1
sVjudgment
p394
F1
sVthoughts
p395
F1
sVemployments;
p396
F1
sVi
F1
sVexpression
p397
F2
sVvariety
p398
F4
sVwell
p399
F3
sVthought
p400
F1
sVwithout
p401
F1
sVgreatest
p402
F2
sVenglish
p403
F1
sVvery
p404
F1
sVthe
p405
F86
sVlest
p406
F1
sVsimplicity.
p407
F1
sVsimplicity,
p408
F1
sVstyle;
p409
F1
sVgods
p410
F1
sVdiscoursing
p411
F1
sVhuman
p412
F1
sVshepherds.
p413
F1
sVyet
p414
F3
sVshepherds,
p415
F1
sVchosen.
p416
F1
sVtetrastic
p417
F1
sVcup
p418
F1
sVdescriptions,
p419
F1
sVhad
p420
F3
sVproduc'd
p421
F1
sVadd
p422
F1
sVeasy
p423
F1
sVcontrary
p424
F1
sVhas
p425
F13
sVought
p426
F2
sVrules
p427
F1
sVexcell'd
p428
F1
sVthemselves,
p429
F2
sVbasest
p430
F1
sVmatters
p431
F1
sVjudge
p432
F1
sVcomedy,
p433
F1
sVopinion,
p434
F1
sVlike
p435
F1
sVinviting
p436
F1
sVcountry.
p437
F1
sVeither
p438
F2
sVcountry;
p439
F1
sVworks
p440
F1
sVbecause
p441
F1
sVold
p442
F3
sVpeople
p443
F1
sVsome
p444
F8
sVthro'
p445
F1
sVexposes
p446
F1
sVderiv'd
p447
F1
sVbesides,
p448
F1
sVproper
p449
F2
sVbefore,
p450
F1
sVacknowledg'd
p451
F1
sVfor
p452
F11
sVreligion
p453
F1
sVepic
p454
F1
sVbe
p455
F19
sVpoets
p456
F1
sVvariety,
p457
F1
sVbusiness
p458
F1
sVexample)
p459
F1
sVinnocence
p460
F1
sVaminta
p461
F1
sVby
p462
F11
sVworlds,
p463
F1
sVshine
p464
F1
sVon
p465
F3
sVpiety
p466
F1
sVage.
p467
F2
sVof
p468
F57
sVdefective,
p469
F1
sVwhence
p470
F1
sVintroduced
p471
F1
sVor
p472
F5
sVhimself;
p473
F2
sVabusive
p474
F1
sVrefines
p475
F1
sVthree
p476
F1
sVlastly
p477
F1
sVpersons;
p478
F1
sVthere
p479
F1
sVoriginal:
p480
F1
sVlong
p481
F1
sVvirgil
p482
F4
sVway
p483
F1
sVwas
p484
F5
sVseasons,
p485
F2
sVcomplete
p486
F1
sVregard
p487
F2
sVobserves)
p488
F1
sVbut
p489
F13
sVattain.
p490
F1
sVproperly
p491
F1
sVsame,
p492
F1
sVwith
p493
F4
sVconsiderable
p494
F1
sVhe
p495
F14
sVmade
p496
F2
sVplaces
p497
F1
sVare,
p498
F1
sVthis,
p499
F1
sVmantuan
p500
F1
sVpiece
p501
F1
sVresemblance
p502
F1
sVexhausted
p503
F1
sVlikewise
p504
F1
sVdescribe
p505
F1
sVlife
p506
F2
sVan
p507
F1
sVas
p508
F16
sVwords,
p509
F2
sVperiods
p510
F1
sVproceeds
p511
F1
sVpastoral,
p512
F2
sVpastoral.
p513
F1
sVpastoral)
p514
F1
sVexcellencies
p515
F1
sVno
p516
F1
sVwhereas
p517
F1
sVwhen
p518
F3
sVconsider'd
p519
F1
sVother
p520
F3
sVcompares
p521
F1
sVswains
p522
F1
sVillusion
p523
F1
sVrepeat
p524
F1
sV's
p525
F2
sVantiquity:
p526
F1
sVchance
p527
F1
sVitself,
p528
F2
sVtasso
p529
F2
sVeclogue
p530
F1
sVsufficient,
p531
F1
sVoriginal
p532
F1
sVtime
p533
F3
sVrural
p534
F3
sVhaving
p535
F1
sVpastorals
p536
F1
sVonce
p537
F1
s.