ccollections
defaultdict
p1
(c__builtin__
float
p2
tRp3
Vfoul
p4
F1
sVfour
p5
F2
sVthreaten'd,
p6
F1
sVconjure
p7
F7
sVlooking
p8
F14
sVinnocence;
p9
F1
sVlord
p10
F2
sVinnocence.
p11
F1
sVbetter.
p12
F1
sVdiscribed
p13
F1
sVdell
p14
F3
sVadvice,
p15
F1
sVvoice.)
p16
F1
sVimagin'd
p17
F14
sVbringing
p18
F5
sVdisturb
p19
F3
sVwooden
p20
F1
sVout-live
p21
F1
sVgrated.
p22
F1
sVdisburden
p23
F1
sVher)
p24
F2
sVinform'd,
p25
F1
sVher.
p26
F31
sVnigh
p27
F1
sVher,
p28
F136
sVher!
p29
F1
sVaffronting,
p30
F1
sVher;
p31
F27
sVher:
p32
F9
sVsecond
p33
F14
sVsooth
p34
F3
sVerrors
p35
F1
sVnature,
p36
F12
sVthunder
p37
F1
sV\u005c----hold,
p38
F1
sVcontributed
p39
F2
sVbestowing
p40
F2
sVreport,
p41
F2
sVescaped;
p42
F1
sVdesigning
p43
F2
sVfruits,
p44
F1
sVnature:
p45
F2
sVup.
p46
F1
sVhero
p47
F1
sVreasons,
p48
F3
sVinterrupting
p49
F3
sVgrace,
p50
F2
sVhere
p51
F21
sVreported
p52
F1
sVglass,
p53
F1
sVhers
p54
F1
sVshriek
p55
F1
sVshock,
p56
F1
sVdarkness
p57
F1
sVunwillingness
p58
F1
sVpretensions
p59
F1
sVerror;
p60
F1
sVfinger,
p61
F1
sVi'd
p62
F1
sVerror,
p63
F2
sVcircumstance.
p64
F1
sVcivilities
p65
F4
sVbrought
p66
F45
sVbring,
p67
F1
sVstern
p68
F1
sVspeeches,
p69
F1
sVforbore
p70
F2
sVpresents
p71
F1
sVfame,
p72
F4
sVme:----he
p73
F1
sVspoke
p74
F23
sV\u005c----alas,
p75
F1
sVtherefore
p76
F18
sVpassport
p77
F1
sVstrike
p78
F2
sVdeclin'd
p79
F1
sVsurmount;
p80
F1
sVholy
p81
F2
sVrelax
p82
F1
sVsuccessful
p83
F2
sVanother's,
p84
F1
sVglass
p85
F2
sVdistraction,)
p86
F1
sVtying
p87
F2
sVmidst
p88
F8
sVhold
p89
F7
sVcircumstances
p90
F4
sVidalia!
p91
F7
sVenflamed
p92
F2
sVpursue
p93
F2
sVaccomplishment
p94
F1
sVplunged
p95
F1
sVidalia,
p96
F43
sVidalia.
p97
F8
sVenflames
p98
F1
sVidalia;
p99
F8
sVidalia:
p100
F4
sVimitated,
p101
F1
sVsupply;
p102
F1
sVmisfortunes
p103
F15
sVsun-set
p104
F2
sVwane
p105
F1
sVunjust
p106
F2
sVshore.
p107
F1
sVshore,
p108
F1
sVcaution
p109
F3
sVwant
p110
F3
sVshore:
p111
F1
sVshore?
p112
F1
sVyouth;
p113
F1
sVenjoy'd:
p114
F1
sVcomplaining
p115
F2
sVtravel
p116
F3
sVenjoy'd,
p117
F1
sVhow
p118
F58
sVhot
p119
F2
sVyouth,
p120
F2
sVyouth.
p121
F1
sVpreferable
p122
F1
sVbeauty
p123
F8
sVmisfortune;
p124
F1
sVmisfortune:
p125
F1
sVwrong
p126
F1
sVengag'd
p127
F4
sVprayers,
p128
F2
sVmisfortune.
p129
F1
sVmisfortune,
p130
F5
sVendeavoured
p131
F1
sVwind
p132
F1
sVwine
p133
F1
sVbeings;
p134
F1
sVjoyn'd
p135
F1
sVrudder,
p136
F1
sVapprobation,
p137
F1
sVthither;
p138
F1
sVenquiring
p139
F4
sVwrought
p140
F4
sVdesign:
p141
F1
sVfit
p142
F4
sVdied,
p143
F1
sVunforeseen
p144
F1
sVfix
p145
F1
sVstriking
p146
F1
sVdistinguishing
p147
F1
sVeasier
p148
F1
sVrepresent,
p149
F2
sVready.
p150
F1
sVenrich
p151
F1
sVeffects
p152
F3
sVinterrupt
p153
F2
sVsilver
p154
F1
sVsenator,
p155
F1
sVcharmer;
p156
F1
sVdisorders,
p157
F1
sVnoble?
p158
F1
sVaverse
p159
F1
sVfantastickness
p160
F1
sVbrain,
p161
F1
sVcontinu'd
p162
F5
sVgarment
p163
F1
sVsolution
p164
F1
sVallay
p165
F2
sVopen'd
p166
F1
sVblinded
p167
F1
sVmisfortune
p168
F12
sVself,
p169
F1
sVat,
p170
F8
sVindiscretion
p171
F2
sVpropensity
p172
F1
sVencourage
p173
F1
sVat;
p174
F2
sVfoundation
p175
F1
sVprofessions,
p176
F1
sVassured
p177
F14
sVwritten
p178
F1
sVreproaches.
p179
F1
sVwoe!
p180
F1
sVwoe,
p181
F2
sVwoe.
p182
F1
sVexposing
p183
F3
sVperhaps,
p184
F11
sVabsolved
p185
F1
sVtempting
p186
F1
sVundisputable
p187
F1
sVbetray'd,
p188
F2
sVardour
p189
F2
sVmeadows,
p190
F2
sVgather'd
p191
F1
sVwash
p192
F1
sVinstruct
p193
F1
sVconfin'd
p194
F3
sVo'ercome
p195
F1
sVme!
p196
F5
sVremain'd,
p197
F1
sVrebel-thought
p198
F1
sVservice
p199
F6
sVengagement
p200
F1
sVneeded
p201
F2
sVperturbations
p202
F1
sVmaster
p203
F12
sVlustre
p204
F2
sVdisdain'd
p205
F1
sVbethought
p206
F3
sVbitter
p207
F2
sVranging
p208
F1
sVlisten
p209
F6
sVwas;
p210
F2
sVwisdom
p211
F1
sVwas)
p212
F1
sVemulative
p213
F1
sVfalling,
p214
F1
sVwas,
p215
F36
sVwas.
p216
F5
sVembrac'd,
p217
F1
sVelegant
p218
F4
sVtree
p219
F1
sVshower
p220
F1
sVidle
p221
F3
sVendure
p222
F16
sVher?
p223
F1
sVfeeling
p224
F2
sVwillingness
p225
F2
sVentain
p226
F1
sVcontroversy,
p227
F1
sVwell-
p228
F1
sVwell,
p229
F8
sVwell.
p230
F1
sVtransaction,
p231
F1
sVfiends,
p232
F2
sV(said
p233
F25
sVaffairs
p234
F2
sVperson
p235
F54
sVjoin'd
p236
F7
sVhands,)
p237
F1
sVcorn,
p238
F1
sVshall
p239
F56
sVobject
p240
F3
sVescaped.
p241
F1
sVmouth
p242
F1
sVevasions,
p243
F1
sVletter
p244
F17
sVlong,
p245
F5
sVretaining
p246
F1
sVshalt
p247
F1
sVgrove
p248
F1
sVdoor,
p249
F5
sVdoor.
p250
F1
sVconsummate
p251
F1
sVdetriment
p252
F1
sVaffair.
p253
F3
sVcame
p254
F36
sVdoor:
p255
F1
sVsaying
p256
F5
sVdeparting
p257
F1
sVnominated
p258
F1
sVfather's.
p259
F1
sVterror,
p260
F2
sVcannot,
p261
F1
sVbusy
p262
F1
sVvexations
p263
F1
sVmens
p264
F1
sVrepose.
p265
F1
sVrepose,
p266
F5
sVamazement,)
p267
F1
sVheartily
p268
F1
sVhaste,
p269
F3
sVrica
p270
F1
sVrest,
p271
F3
sVterrors
p272
F4
sVpocket
p273
F2
sVdispatch'd.
p274
F1
sVmeeting,
p275
F1
sValtogether
p276
F4
sVrelish
p277
F1
sVidailia,
p278
F1
sVunmatch'd
p279
F1
sVthem?
p280
F1
sVthem;
p281
F6
sVthem:
p282
F5
sVmen,
p283
F4
sVhasted
p284
F1
sVexclamations
p285
F2
sVcousin,
p286
F3
sVrelease
p287
F1
sVthem.
p288
F9
sVthem,
p289
F54
sVmien,
p290
F1
sVfair
p291
F13
sVconsummation
p292
F1
sVsapless
p293
F1
sVunexpectedly
p294
F2
sVfail
p295
F6
sVfain
p296
F5
sVbest
p297
F15
sVadventure:
p298
F1
sVbehav'd.
p299
F1
sVdistress'd
p300
F1
sVadventure.
p301
F1
sVprincess's
p302
F2
sVadventure,
p303
F3
sVloth
p304
F1
sVscorn
p305
F2
sV\u005c----no,
p306
F4
sVgodlike!
p307
F1
sVextravagancies
p308
F2
sVpreserve
p309
F4
sVletting
p310
F5
sVmen
p311
F5
sVnature
p312
F14
sVprevail'd
p313
F3
sVpity
p314
F9
sVaccident
p315
F11
sV\u005c----nor
p316
F1
sVdisdain
p317
F4
sVcountry
p318
F11
sVadventurer
p319
F1
sVadventures
p320
F5
sVdemanded
p321
F5
sVspires,
p322
F1
sVreturn?
p323
F1
sVdescribed;
p324
F1
sVlot,
p325
F1
sVpressure:
p326
F1
sVargue
p327
F1
sVsaphirs,
p328
F1
sVasked
p329
F2
sVnay,
p330
F6
sValternate
p331
F1
sVdoubt,
p332
F1
sVvain
p333
F11
sVmoney,
p334
F2
sVcommands,
p335
F4
sVremained
p336
F2
sVvoice,)
p337
F2
sVadvances:
p338
F1
sVmuch
p339
F132
sVtears,)
p340
F1
sVprivilege
p341
F1
sVsorrows;----in
p342
F1
sVlife
p343
F22
sVforming,
p344
F1
sVwish
p345
F14
sVplaces
p346
F3
sVconfinement
p347
F1
sVchild
p348
F1
sVuntruth,
p349
F1
sVspin
p350
F1
sVloftiness
p351
F1
sVchill
p352
F1
sVdiscern'd
p353
F1
sVunfelt
p354
F1
sVwonted
p355
F4
sVremembering
p356
F1
sVtrees,
p357
F1
sVconsent.
p358
F3
sVconsent,
p359
F3
sVto-morrow
p360
F1
sVconsent:
p361
F1
sVsaid,
p362
F12
sVbounteous
p363
F1
sVvoyage,
p364
F1
sVtrustee
p365
F1
sVforce,)
p366
F1
sVseverity
p367
F5
sVthings
p368
F6
sVharmony
p369
F1
sVdisclos'd.
p370
F1
sVsnare,
p371
F2
sVprison,
p372
F1
sVthing:
p373
F1
sValas!
p374
F17
sVqualifications,
p375
F2
sVexpressions.
p376
F1
sVwhich,
p377
F33
sVthing.
p378
F2
sVthing,
p379
F2
sVforsaken
p380
F1
sVideas
p381
F3
sVdisguise
p382
F9
sVmisdemeanor,
p383
F1
sVenflam'd,
p384
F1
sVretain'd
p385
F1
sVeas'd
p386
F1
sVease
p387
F5
sVhad
p388
F815
sVcomplainings.
p389
F1
sVinclinations.
p390
F3
sVinnocent
p391
F6
sVprison
p392
F1
sVhas
p393
F61
sVelevation
p394
F1
sVstagger'd
p395
F1
sVlass;
p396
F1
sVpossible
p397
F9
sVpossibly
p398
F3
sVchuse
p399
F1
sVbirth
p400
F4
sVruin;----then
p401
F1
sVshadow
p402
F1
sVopinion.
p403
F1
sVopinion,
p404
F3
sVdesire
p405
F20
sVseaside)
p406
F1
sVresolv'd,
p407
F1
sVremind
p408
F2
sVsteps
p409
F1
sVright
p410
F1
sVdisdain,
p411
F1
sVcrowd
p412
F2
sVpeople
p413
F11
sVlavish'd
p414
F1
sVeasy
p415
F11
sVribb'd
p416
F1
sVcaptive
p417
F1
sVwarring
p418
F2
sVleft,
p419
F1
sV\u005c----pardon
p420
F1
sVdemerits,
p421
F1
sVenemies
p422
F2
sV\u005c----hell,
p423
F1
sVgloss'd
p424
F1
sVfor
p425
F438
sVinhuman
p426
F3
sVpolluted
p427
F1
sVwitty
p428
F1
sVcontinue
p429
F15
sVsummoned
p430
F1
sVinsinuation,
p431
F1
sVbanno,
p432
F1
sVvariety,
p433
F1
sVsurprise,
p434
F2
sVundiscovered;
p435
F1
sVshifting
p436
F1
sVlosing
p437
F3
sVdisdains
p438
F1
sVinsinuations
p439
F3
sV\u005c----he
p440
F5
sVo
F13
sVdespair
p441
F6
sVcover'd
p442
F2
sV\u005c---the
p443
F4
sVimperfect,
p444
F1
sVraised
p445
F2
sVfacility
p446
F1
sVnought
p447
F2
sVson
p448
F2
sVthankful
p449
F1
sVfurnishing
p450
F1
sVprosecution;
p451
F1
sVfields,
p452
F1
sVsuffice
p453
F1
sVconstantly
p454
F1
sVtame
p455
F1
sVavail
p456
F2
sVdespises
p457
F1
sV\u005c---was
p458
F1
sVrapes
p459
F1
sVlay:
p460
F1
sVhappy
p461
F18
sVpass'd,
p462
F1
sVoffer
p463
F12
sVraise,
p464
F1
sVso,
p465
F19
sVso.
p466
F5
sVemotions,
p467
F3
sVbeing;
p468
F1
sVso:
p469
F1
sVtranquillity,
p470
F1
sVvirtue.
p471
F2
sVduel
p472
F1
sVagreeble
p473
F1
sVextremity
p474
F3
sVtell
p475
F19
sVinfluenc'd
p476
F3
sVsuffocated
p477
F1
sVdisgrace
p478
F1
sVdisclosing
p479
F2
sVeloquence,
p480
F1
sVsomebody
p481
F1
sVproves
p482
F1
sVordain'd
p483
F2
sVprotested
p484
F2
sVfloor
p485
F1
sVperfections.
p486
F1
sVperfections,
p487
F2
sVlook'd
p488
F9
sVourselves
p489
F1
sVflood
p490
F1
sVobliges
p491
F4
sVambitious
p492
F2
sVconferring
p493
F1
sVensu'd
p494
F1
sVexpose
p495
F1
sVo'ertakes
p496
F1
sV's
p497
F1
sVservants;
p498
F1
sVprove)
p499
F1
sVvexatious:
p500
F1
sVtransported
p501
F9
sVtoo-long
p502
F1
sVintent
p503
F1
sVpersecution
p504
F1
sVvexatious,
p505
F1
sVservants,
p506
F5
sVheap'd
p507
F1
sVcrown,
p508
F1
sVcrown.
p509
F1
sVtime
p510
F83
sVgood:
p511
F1
sVwhoever
p512
F4
sVstay,
p513
F2
sVprovided;
p514
F1
sVumbrage
p515
F1
sVfatigue,
p516
F1
sVimprov'd
p517
F1
sVbribes
p518
F1
sVlosing,
p519
F1
sVbribed
p520
F2
sVpalliated,
p521
F1
sVchoice
p522
F5
sVdissimulation,
p523
F1
sVrapturous
p524
F2
sVfatigued
p525
F1
sVstays
p526
F1
sVfifty
p527
F1
sVchild,
p528
F3
sVdiscovered
p529
F2
sVleave
p530
F39
sVinclination
p531
F5
sVprevent
p532
F13
sVmeadow
p533
F1
sVmight,
p534
F5
sVredress;
p535
F1
sVredress,
p536
F1
sVme;---should
p537
F1
sVmelt
p538
F3
sVcurrent
p539
F1
sVsaw,
p540
F1
sVfalling
p541
F8
sVperform'd;
p542
F1
sVprovidence;
p543
F1
sVhere;----but
p544
F1
sVhonour
p545
F14
sVfuneral
p546
F2
sVplucking
p547
F1
sVcontemplate
p548
F1
sVprovidence,
p549
F2
sVaddress
p550
F3
sValone
p551
F16
sVpersecuted
p552
F1
sVpleas'd
p553
F7
sVpresumption.
p554
F1
sVpassengers
p555
F1
sVreverence,
p556
F1
sVmerchants.
p557
F1
sVcriminal,
p558
F1
sVwherever
p559
F1
sVperpetrated
p560
F1
sVdesparation,
p561
F1
sVrecover'd
p562
F4
sVidalia?
p563
F2
sVpass'd
p564
F13
sVill-fated
p565
F1
sVlove
p566
F49
sVsaints
p567
F2
sVprefer
p568
F2
sVbloody
p569
F1
sVseem'd,
p570
F1
sVrelations,
p571
F3
sVdictatea
p572
F1
sVslept,
p573
F1
sVcontroul'd
p574
F1
sVworking
p575
F4
sVperished
p576
F4
sVpositive
p577
F3
sVangry
p578
F2
sVvalue,
p579
F1
sVit,)
p580
F1
sVbelieve,
p581
F7
sVbelieve)
p582
F1
sV----he
p583
F1
sVloving
p584
F1
sVafford
p585
F11
sVwonders,
p586
F1
sVrefrain
p587
F1
sVodious
p588
F1
sVignorant
p589
F15
sVvirtue
p590
F4
sVblood.
p591
F1
sVblood,
p592
F2
sVgain'd
p593
F3
sVcables,
p594
F1
sVpretend
p595
F3
sVbelieved
p596
F7
sVcoldly,
p597
F1
sVadmired
p598
F3
sVproof:----
p599
F1
sVacceptance.
p600
F1
sVacceptance!
p601
F1
sVkindness;
p602
F2
sVapplication,
p603
F1
sVbetray'd
p604
F4
sVadmirer
p605
F1
sVkindness,
p606
F2
sVdivided
p607
F2
sVvainly
p608
F3
sVthanking
p609
F2
sVpains,----
p610
F1
sVblaz'd
p611
F2
sVs.
p612
F5
sVinstant,
p613
F1
sVundertook
p614
F1
sVcausless
p615
F1
sVabsenting
p616
F1
sVstrictness
p617
F1
sVadmire,
p618
F1
sVblasting
p619
F1
sVimproving
p620
F1
sVsuch
p621
F111
sVtemperate
p622
F1
sVnatural
p623
F7
sVconscious
p624
F6
sVordinarily
p625
F1
sVdoom'd
p626
F1
sVso
p627
F347
sVcondemnation;---
p628
F1
sVrudeness,
p629
F1
sVyears
p630
F2
sVcourse
p631
F3
sVconceal'd
p632
F5
sVlife;----she
p633
F1
sVearly.
p634
F1
sVdeity
p635
F1
sVtore
p636
F4
sVlimbs
p637
F1
sVhaughty
p638
F3
sVdid,
p639
F7
sVdid.
p640
F1
sVtroubles
p641
F2
sVsuspicion
p642
F4
sVdead,
p643
F1
sVtroubled
p644
F5
sVdid;
p645
F1
sVdid:
p646
F1
sVequipage
p647
F2
sVentreated.
p648
F1
sVentreated,
p649
F1
sVpassions;
p650
F1
sVnation
p651
F1
sVyear,
p652
F1
sVunpitying
p653
F1
sVpassions,
p654
F1
sVhastily,)
p655
F1
sVmaintaining
p656
F1
sVparade,
p657
F1
sVtrouble,
p658
F1
sVinstability
p659
F2
sVnurse's
p660
F1
sVquarter
p661
F3
sVsquare
p662
F1
sVretrieve
p663
F1
sVbursting
p664
F3
sVbeside,
p665
F1
sVreceipt
p666
F1
sVadored,
p667
F1
sVowing
p668
F4
sVprostitute,
p669
F1
sVneighbourhood
p670
F1
sVmov'd;---he
p671
F1
sVdesires,---the
p672
F1
sVwanderer.
p673
F1
sVdisguise,
p674
F1
sVequall'd
p675
F1
sVmillion
p676
F2
sVpossibility
p677
F6
sVquite
p678
F1
sVdisrespect
p679
F2
sVbesides
p680
F1
sV\u005c----a
p681
F3
sV\u005c----o
p682
F7
sVremainder
p683
F3
sVreassuming
p684
F1
sV\u005c----i
p685
F12
sVprotection,
p686
F2
sVmodest
p687
F1
sVprotection.
p688
F1
sVripen'd
p689
F2
sVneglect
p690
F2
sVemotion
p691
F1
sVmercy.
p692
F1
sVone
p693
F91
sVgenerosity,
p694
F2
sVopen
p695
F7
sVaffords
p696
F1
sVlanguish
p697
F2
sVcity
p698
F1
sVcomplying,
p699
F1
sVchurch's
p700
F1
sVstifled
p701
F2
sVdissipate
p702
F1
sVdeny'd,
p703
F1
sVcharm'd
p704
F2
sVafford,
p705
F1
sVon.
p706
F1
sVon,
p707
F7
sVspoke!
p708
F1
sVspoke,
p709
F6
sVmuch,
p710
F6
sVsnatch
p711
F2
sVremembring
p712
F3
sVspoke;
p713
F1
sVroyal
p714
F3
sVpenitence.
p715
F1
sVfolly
p716
F1
sVfuture
p717
F8
sVprospect
p718
F3
sVpage,
p719
F2
sVtarry'd
p720
F1
sVlanguish'd
p721
F1
sVturned
p722
F1
sVjewels
p723
F1
sVsad
p724
F1
sVsay
p725
F22
sVburied
p726
F1
sVlurking
p727
F1
sVdecrees
p728
F1
sVsaw
p729
F36
sVwell
p730
F42
sVsat
p731
F9
sVlaw,
p732
F1
sVunextinguishable
p733
F1
sVsollicitous
p734
F1
sVunsuitable
p735
F1
sVcold,
p736
F1
sVtake
p737
F40
sVwanting
p738
F2
sVunintermitting
p739
F1
sVshe,)
p740
F11
sVopposite
p741
F1
sVsyllable
p742
F2
sVknew
p743
F44
sVremiss,
p744
F1
sVunkindness
p745
F1
sVunpolluted,
p746
F1
sV(reply'd
p747
F6
sVdrive
p748
F2
sVnot;
p749
F1
sVoccasion'd
p750
F14
sV'without
p751
F1
sVnot,
p752
F12
sVlaws
p753
F2
sVdelay'd,
p754
F1
sVwalking
p755
F3
sVmurmurs
p756
F1
sVnearer;
p757
F1
sVmerit
p758
F2
sVbright
p759
F1
sVinconsistent
p760
F2
sVscarce
p761
F16
sVentring,
p762
F1
sVimagined
p763
F4
sVnearer,
p764
F1
sVslow
p765
F3
sVtremblings,
p766
F2
sVremember'd,
p767
F1
sVtry,
p768
F1
sVtears
p769
F4
sVgoing
p770
F13
sVuppermost
p771
F1
sVstupid,
p772
F1
sVentreaties
p773
F1
sVwilfully
p774
F1
sVgodlike
p775
F1
sVresenting
p776
F1
sVinfallibly
p777
F1
sV(continu'd
p778
F9
sVcursing
p779
F1
sVinfallible
p780
F1
sVimagine.
p781
F1
sVawkwardly,
p782
F1
sVprime
p783
F1
sVblind.
p784
F1
sVrejoin'd
p785
F1
sVmaps,
p786
F1
sVliable
p787
F5
sVneat,
p788
F1
sVwhere
p789
F53
sVhonorius:
p790
F1
sVraged
p791
F1
sVthreats,
p792
F1
sVfortune's
p793
F1
sVexpiate
p794
F2
sVhonorius,
p795
F4
sVcried,
p796
F1
sVman;
p797
F1
sVman?
p798
F1
sVfierceness
p799
F3
sVtestimonials
p800
F1
sVfrequented,
p801
F1
sVman,
p802
F7
sVforsake
p803
F4
sVpitiless
p804
F1
sVrage,
p805
F4
sVrage.
p806
F2
sVimpression,
p807
F1
sVscreen
p808
F1
sVspare
p809
F4
sVbaucis
p810
F1
sVrage;
p811
F1
sVdeck,
p812
F1
sVexhortations
p813
F1
sVmany
p814
F32
sVtreasur'd,
p815
F1
sVavail,
p816
F1
sVdeck;
p817
F1
sVfulfill'd,
p818
F1
sVinclining
p819
F1
sVgaiety
p820
F3
sVfavour,---
p821
F1
sVwant,
p822
F1
sVlock'd
p823
F1
sVmounting
p824
F1
sVexpedition
p825
F5
sVbreath
p826
F1
sValmighty
p827
F2
sVcombined
p828
F1
sVvariance,
p829
F1
sVendure!
p830
F1
sVtir'd
p831
F2
sVconsider,
p832
F1
sVenable
p833
F1
sVinfluence
p834
F7
sVthousand
p835
F27
sVsurpassing
p836
F2
sVswords,
p837
F1
sVformer
p838
F10
sVardella's,
p839
F1
sVpretence
p840
F5
sVready,
p841
F1
sVinvoking
p842
F1
sVendured
p843
F7
sVbirth:
p844
F1
sVingratitude,
p845
F1
sVengaged
p846
F4
sVbirth,
p847
F2
sVbeginning,
p848
F1
sVdestin'd
p849
F1
sVmanagement,
p850
F2
sVfame
p851
F1
sVnuptials
p852
F3
sVtrain,
p853
F1
sVthreatens
p854
F1
sVendeavour'd
p855
F13
sVendanger
p856
F1
sVsickness
p857
F1
sVunfold;
p858
F1
sVdefy
p859
F1
sVmotionless;
p860
F1
sVtwist,
p861
F1
sVadvertisement
p862
F1
sVrevilings,
p863
F1
sVtransgression,
p864
F1
sVimpatiently.
p865
F1
sVmadness.
p866
F2
sVthreaten,
p867
F1
sVknees;
p868
F1
sVadoring
p869
F1
sVbeing
p870
F115
sVsense-enslav'd
p871
F1
sVrest
p872
F8
sVbassaw;
p873
F1
sVpresumption
p874
F2
sVrepentance,
p875
F2
sVoffender,
p876
F1
sVhypocrisy,
p877
F1
sVbernardo
p878
F11
sVgestures
p879
F2
sVenamour'd
p880
F5
sVpreference
p881
F1
sVdissipated,
p882
F1
sVworld
p883
F17
sVorders,
p884
F2
sVdare
p885
F7
sVstranger
p886
F5
sVtortures,
p887
F2
sVclap
p888
F1
sVsatisfactory
p889
F2
sVdivine
p890
F5
sVthinks
p891
F2
sVdestroy,
p892
F1
sVtittle,
p893
F1
sVslight,
p894
F1
sVnoon
p895
F1
sVvicenza
p896
F3
sVoblige
p897
F12
sVthreaten'd
p898
F5
sVcountenances
p899
F1
sVdisturb'd
p900
F2
sVunlook'd
p901
F1
sVlastly,
p902
F1
sVattacks;
p903
F1
sVthink,
p904
F1
sVcharmer.
p905
F1
sVpower
p906
F61
sVintimate
p907
F3
sVsprung
p908
F2
sVimpossibility,)
p909
F1
sVdenied.
p910
F1
sVjoyfully
p911
F1
sVfavorite
p912
F1
sVrevenge;
p913
F2
sVslender
p914
F1
sV(interrupted
p915
F10
sVfrights
p916
F2
sVact
p917
F8
sVrevenge.
p918
F1
sVrevenge,
p919
F1
sVbond
p920
F1
sVsuch,
p921
F1
sVtidings,
p922
F1
sVtreated;
p923
F1
sVburning
p924
F7
sVcry'd,
p925
F3
sVtidings?
p926
F1
sVlively
p927
F1
sVlonging,
p928
F1
sVtreated.
p929
F1
sVwit,
p930
F5
sVlonging!
p931
F1
sVlye,
p932
F1
sVwoes
p933
F1
sVher
p934
F1026
sVendeavouring
p935
F8
sVreceiv'd
p936
F12
sVwithal,
p937
F1
sVclosed
p938
F1
sVanother;
p939
F1
sVhonour:
p940
F1
sVchild's
p941
F1
sVanswering!
p942
F1
sVwelt'ring
p943
F1
sVbrain
p944
F1
sVservices,
p945
F2
sVsurvived
p946
F1
sVanother,
p947
F7
sVanother!
p948
F1
sV\u005c---you
p949
F1
sVwith
p950
F499
sVbuying
p951
F1
sVhandsome
p952
F1
sVendurings
p953
F1
sVname,---
p954
F1
sVrage
p955
F11
sVhardly
p956
F1
sVhe;
p957
F1
sVtravell'd
p958
F1
sVimpute
p959
F2
sVhe,
p960
F49
sVagree
p961
F2
sV)
F9
sVgone
p962
F7
sVpity,
p963
F5
sVfright
p964
F4
sVopportunity,
p965
F3
sVcertain
p966
F8
sVstealing
p967
F2
sVam
p968
F57
sVan
p969
F196
sVas
p970
F482
sVensuing
p971
F1
sVat
p972
F311
sVwalks
p973
F1
sVtranquil
p974
F1
sVtremble
p975
F2
sVview'd
p976
F1
sVprospects,
p977
F1
sV\u005c----i'll
p978
F1
sV----the
p979
F1
sVloveliness,
p980
F1
sVmorocco,
p981
F1
sVmine:---i
p982
F1
sVtriumph'd
p983
F2
sVaccosted
p984
F3
sVoh!
p985
F12
sVaccent,
p986
F1
sVimminently
p987
F2
sVopen'd,
p988
F1
sVvisits
p989
F1
sVmask
p990
F1
sVfinery,
p991
F1
sVaw'd
p992
F1
sVfraudulent
p993
F1
sVmass
p994
F1
sVsensibility
p995
F1
sVconsider
p996
F8
sVcaused
p997
F1
sVreconcileable.
p998
F1
sVme:----may
p999
F1
sVelements:
p1000
F1
sVwelfare
p1001
F1
sV(in
p1002
F1
sVdesign'd,
p1003
F1
sVdesign'd.
p1004
F1
sVduty,
p1005
F1
sVpart:----no,
p1006
F1
sVto
p1007
F2245
sVdressing
p1008
F1
sVsmile
p1009
F1
sVunmeaning
p1010
F1
sVoath,
p1011
F1
sVcause.
p1012
F2
sVreturned
p1013
F3
sVpuzzled
p1014
F2
sVdetestation
p1015
F1
sVdecay'd,
p1016
F1
sVcause:
p1017
F1
sVcondition
p1018
F15
sVzatilda's
p1019
F5
sVingratitude
p1020
F5
sVtransported,
p1021
F1
sVjoined
p1022
F1
sVlarge
p1023
F2
sVdanger,
p1024
F6
sVsolemniz'd
p1025
F1
sVsmall
p1026
F12
sVendur'd,
p1027
F3
sVhour.
p1028
F1
sVhour,
p1029
F3
sVpast
p1030
F11
sVsighs.
p1031
F2
sVhonourable
p1032
F1
sVsighs,
p1033
F7
sVpass
p1034
F8
sVhour;
p1035
F1
sVturning
p1036
F2
sVdestitute
p1037
F1
sVsituated
p1038
F1
sVequipage,
p1039
F1
sVprevailed
p1040
F3
sVentreaties,
p1041
F1
sVnurse
p1042
F2
sVmethod
p1043
F3
sVdwells
p1044
F2
sVfull
p1045
F18
sVescaping
p1046
F3
sV(who,
p1047
F2
sVleaping
p1048
F1
sVhours
p1049
F7
sVhast
p1050
F3
sVbranches,
p1051
F1
sValmost
p1052
F27
sVcomplain'd
p1053
F2
sVyourself;
p1054
F1
sVcompliance
p1055
F3
sVexperience
p1056
F2
sVyourself,
p1057
F7
sVcessation
p1058
F2
sVluck
p1059
F1
sVsweetness
p1060
F5
sVday's
p1061
F1
sVcontrivers
p1062
F2
sVstamping,
p1063
F2
sV\u005c---but
p1064
F5
sVrefuses
p1065
F1
sVfoundation;
p1066
F1
sVbedside,
p1067
F2
sVdependance.
p1068
F1
sVguess.
p1069
F1
sVunder:
p1070
F1
sVtrackless
p1071
F1
sVflowers,
p1072
F1
sVunder,
p1073
F1
sVopinion?
p1074
F1
sVmore
p1075
F149
sVdoor
p1076
F2
sVmarriage;
p1077
F1
sVmarriage:
p1078
F1
sVcontrive
p1079
F2
sVcompany
p1080
F9
sVmarriage,
p1081
F3
sVmarriage.
p1082
F2
sVconfident,
p1083
F1
sVrudeness
p1084
F1
sVobjections
p1085
F1
sVdoom
p1086
F1
sVsweetest:
p1087
F1
sVkeeping
p1088
F2
sVfatal
p1089
F23
sValter'd;
p1090
F1
sVvicissitudes
p1091
F1
sVlearn
p1092
F4
sVbiterness
p1093
F1
sVbeautiful
p1094
F5
sVprompt
p1095
F1
sV(with
p1096
F1
sVmeaner
p1097
F1
sVaccept
p1098
F6
sVtreatment,
p1099
F1
sVfiercely
p1100
F2
sVconduct,)
p1101
F1
sVsense
p1102
F3
sVdress
p1103
F7
sVtapestry
p1104
F1
sVcondemn
p1105
F5
sVinformation
p1106
F2
sVyou,----and
p1107
F1
sVdisconsolate
p1108
F1
sVimminent
p1109
F3
sVspar'd;
p1110
F1
sVflorez?
p1111
F1
sVmingle
p1112
F2
sVglowing
p1113
F2
sVcreature
p1114
F3
sVnever,
p1115
F3
sVintended
p1116
F7
sVoccasion'd,
p1117
F1
sVblotted
p1118
F1
sVaffected;
p1119
F1
sVwaves
p1120
F1
sVstate;
p1121
F2
sVmalevolent
p1122
F1
sVrefuse
p1123
F7
sVsincerity:
p1124
F1
sVprotestation
p1125
F2
sVsincerity,
p1126
F1
sVreplied
p1127
F4
sVarmy.
p1128
F1
sVpassages
p1129
F1
sVsurpris'd;)
p1130
F1
sVout;
p1131
F1
sVpaper
p1132
F2
sVpang
p1133
F1
sVreplies
p1134
F2
sVsmiling
p1135
F1
sVundertaking:----why
p1136
F1
sVsaucy
p1137
F1
sVtruth;
p1138
F1
sVembelishments
p1139
F1
sVmeasures,
p1140
F1
sVcourse,
p1141
F1
sVtruth,
p1142
F8
sVtravelling
p1143
F1
sVit.
p1144
F42
sVit,
p1145
F102
sVit)
p1146
F1
sVgreat;
p1147
F1
sVpatience;----she
p1148
F1
sVwelcom'd.
p1149
F1
sVacquiesc'd,
p1150
F1
sVit!
p1151
F5
sVgovern'd
p1152
F1
sVit?
p1153
F4
sVit:
p1154
F12
sVit;
p1155
F20
sVweeds
p1156
F1
sVpassage,
p1157
F2
sVgreat,
p1158
F1
sVhereafter
p1159
F3
sVall.
p1160
F2
sVdespond,
p1161
F1
sVdeed.
p1162
F1
sVdeed,
p1163
F4
sVunguarded,
p1164
F1
sVclos'd
p1165
F2
sVfound
p1166
F67
sVshocking
p1167
F3
sVimagining,
p1168
F2
sV\u005c----what
p1169
F6
sVrise,
p1170
F2
sVresolute
p1171
F3
sVreduce
p1172
F1
sVhaughtiness,
p1173
F1
sVrise:
p1174
F1
sVtreasonable
p1175
F1
sVreally
p1176
F14
sVnew-made
p1177
F3
sVaffliction,
p1178
F1
sVentreaty,
p1179
F1
sVaffliction.
p1180
F1
sVrace
p1181
F4
sVexclamations,
p1182
F1
sVexpiation
p1183
F1
sVdarling
p1184
F2
sVplac'd
p1185
F1
sVnobleman;
p1186
F1
sVinquietudes,
p1187
F1
sVcandles:
p1188
F1
sVviol
p1189
F1
sVrefusal
p1190
F1
sVbelief
p1191
F8
sVrisen
p1192
F1
sV----and
p1193
F1
sVqualify
p1194
F1
sVinquietudes;
p1195
F1
sVreproach
p1196
F2
sVintrinsick
p1197
F1
sVmarry.
p1198
F1
sVoccur,
p1199
F1
sVwoman's
p1200
F1
sVbelov'd
p1201
F2
sVchearfulness
p1202
F2
sVcastle
p1203
F1
sVrooted
p1204
F1
sVentreating,
p1205
F1
sVnumber
p1206
F6
sVpreservation
p1207
F1
sVexecutioners
p1208
F1
sVcomply.
p1209
F1
sVremember,
p1210
F2
sVcomply,
p1211
F2
sVguest
p1212
F2
sVunmeaniug
p1213
F1
sVother,
p1214
F16
sVfeign'd
p1215
F4
sVsaint
p1216
F1
sVaver
p1217
F1
sVjustly
p1218
F4
sVfirst,
p1219
F4
sVfirst.
p1220
F1
sVimmediate
p1221
F6
sVstifle
p1222
F1
sVungrateful
p1223
F2
sVdiscerning,
p1224
F1
sVpalace-garden,
p1225
F1
sVsure,
p1226
F1
sV\u005c----till
p1227
F2
sVdetermined
p1228
F3
sVmarriage
p1229
F3
sVsummon'd
p1230
F1
sVhead,
p1231
F7
sVcomprehend:----for
p1232
F1
sVdelays:----swiftly
p1233
F1
sVsell
p1234
F1
sV\u005c----you
p1235
F2
sVfashion,
p1236
F1
sVself
p1237
F2
sVwish.
p1238
F1
sVwish,
p1239
F3
sVsentiments,
p1240
F6
sValso
p1241
F36
sVjudging.
p1242
F1
sVwish:
p1243
F1
sVwish;
p1244
F2
sVsentiments.
p1245
F1
sVplay
p1246
F1
sVmonastery
p1247
F3
sVcares,
p1248
F3
sVundone;
p1249
F1
sVfight,
p1250
F1
sVcapuchins,
p1251
F1
sVdemand
p1252
F4
sVpalace-garden
p1253
F1
sVunequal
p1254
F2
sVseize
p1255
F2
sVcovet
p1256
F1
sVsometimes
p1257
F9
sVbarren
p1258
F1
sVsilver,
p1259
F3
sVrung,
p1260
F1
sVblushing,
p1261
F1
sVgold
p1262
F3
sVindecorum
p1263
F1
sVrecover'd,
p1264
F1
sVseated,
p1265
F1
sVair,)
p1266
F1
sVpleasure;
p1267
F1
sVpleasure,
p1268
F5
sVundone,
p1269
F1
sVindifference
p1270
F1
sVrepelled,
p1271
F1
sVprov'd
p1272
F1
sVbeams
p1273
F1
sVproffer
p1274
F1
sVresent
p1275
F3
sVremedy
p1276
F3
sVpreparing
p1277
F2
sVextraction,
p1278
F1
sVcompass
p1279
F1
sVdistraction
p1280
F3
sVenemy
p1281
F3
sVsleeve
p1282
F2
sVskreened
p1283
F1
sVpleasures
p1284
F3
sVproclaim
p1285
F1
sVyour's
p1286
F1
sV\u005c----no
p1287
F2
sVwrite,
p1288
F1
sVkill
p1289
F2
sVriver
p1290
F2
sVset
p1291
F14
sVit;----and
p1292
F2
sVpotent
p1293
F2
sVsex
p1294
F16
sVsee
p1295
F54
sVsea
p1296
F1
sVimpationt
p1297
F1
sVknees
p1298
F3
sVspirits
p1299
F1
sVjewels.
p1300
F1
sVjewels,
p1301
F1
sVtho'
p1302
F66
sVcompliment
p1303
F1
sVknowing
p1304
F14
sVmilder
p1305
F1
sVrestless,
p1306
F1
sVdeath
p1307
F21
sV\u005c----there
p1308
F3
sVdelivering
p1309
F1
sVmonster,
p1310
F1
sVlast
p1311
F53
sVthou
p1312
F17
sVmonster!
p1313
F1
sVweary,
p1314
F1
sVwhole
p1315
F33
sVload
p1316
F2
sVtown,
p1317
F3
sVpleasures,
p1318
F2
sVbell
p1319
F1
sVacted
p1320
F2
sVpast:----i
p1321
F1
sVrace.
p1322
F1
sVsilence,
p1323
F2
sVtown;
p1324
F2
sVadjoining
p1325
F4
sVsleeve;
p1326
F1
sVdrawn,
p1327
F1
sVdevil
p1328
F1
sVpublishing
p1329
F2
sVmeerly
p1330
F2
sVacceptance
p1331
F1
sVextravagant
p1332
F1
sVeyebrows,
p1333
F1
sVsilenced
p1334
F3
sVfire
p1335
F2
sVwhat's
p1336
F1
sVsleeves
p1337
F1
sVsea-skirmishes,
p1338
F1
sVutterance,
p1339
F1
sVtowns
p1340
F1
sVstruck
p1341
F2
sVuncertain
p1342
F2
sVreceiv'd,
p1343
F1
sVlovest
p1344
F1
sVadmire
p1345
F1
sVforgetting
p1346
F2
sVhinder'd
p1347
F1
sVerror
p1348
F1
sVconspir'd
p1349
F2
sVkissing
p1350
F2
sVowed
p1351
F3
sVseizes
p1352
F1
sVagitation
p1353
F3
sVvow
p1354
F4
sVverona,
p1355
F5
sVmaids
p1356
F1
sVverona.
p1357
F2
sVhe,----'tis
p1358
F1
sVelevated
p1359
F1
sVseverest
p1360
F2
sValledged
p1361
F1
sVbe:---
p1362
F1
sVpull'd
p1363
F1
sVforgiveness
p1364
F1
sVverona;
p1365
F1
sVunreasonable.
p1366
F1
sVmortifying
p1367
F1
sVdispleased
p1368
F1
sVunbyass'd
p1369
F1
sVcontrition
p1370
F1
sVunreasonable;
p1371
F1
sVnecessity
p1372
F7
sVconcern'd,
p1373
F2
sVowe:
p1374
F1
sVconsolation;
p1375
F3
sVconsolation:
p1376
F1
sVlargeness,
p1377
F1
sVregretting
p1378
F1
sVyet,
p1379
F7
sVmaid,
p1380
F4
sVconsolation,
p1381
F2
sVcomposed
p1382
F2
sVplagues
p1383
F1
sVwithdrew.
p1384
F1
sVlawra
p1385
F3
sVgraces,
p1386
F2
sVfeared.
p1387
F1
sVconfinement,
p1388
F2
sVorbs
p1389
F1
sVeager
p1390
F4
sVparents
p1391
F1
sVtestimonies
p1392
F1
sVcrying
p1393
F2
sVsurprised
p1394
F1
sVthee.
p1395
F1
sVthee,
p1396
F3
sVvictims
p1397
F2
sVdemands
p1398
F3
sVthee!
p1399
F1
sVthee?
p1400
F1
sVsuffering
p1401
F4
sVexpress'd
p1402
F10
sVcabin,
p1403
F4
sVheightened
p1404
F1
sVseverity.
p1405
F1
sVsurprise;
p1406
F1
sVtempers,
p1407
F2
sVpromising
p1408
F1
sVimposed
p1409
F1
sVd
F1
sVinfidelity,
p1410
F4
sVme:----i
p1411
F1
sVeyes,
p1412
F14
sVresemblance,
p1413
F1
sVadvertisement,
p1414
F1
sVyields
p1415
F1
sV\u005c---his
p1416
F1
sVconclusion,
p1417
F1
sVmethought
p1418
F1
sVdisorder
p1419
F3
sVdeferr'd.
p1420
F1
sVdeparture,
p1421
F1
sVresenting,
p1422
F1
sVsighs
p1423
F2
sVmighty
p1424
F2
sVsight
p1425
F16
sVpale
p1426
F1
sVenraged;
p1427
F1
sVwresting
p1428
F1
sVreligion
p1429
F2
sVtemple
p1430
F1
sVshading,
p1431
F1
sVanswers,
p1432
F1
sVbe
p1433
F405
sVdictates
p1434
F2
sVsigh,
p1435
F1
sVrespite
p1436
F1
sVconjuring
p1437
F1
sVconsiderations;
p1438
F1
sVrelating
p1439
F2
sVdictated
p1440
F1
sVby
p1441
F343
sVoiling
p1442
F1
sVvoices,
p1443
F1
sVglobes,
p1444
F1
sVmeetting,
p1445
F1
sVforgave
p1446
F1
sVbears?
p1447
F1
sVsternly,
p1448
F2
sVprideful
p1449
F1
sVinto
p1450
F105
sVretrieving
p1451
F1
sVknow,)
p1452
F1
sVsubmit
p1453
F1
sVcustom
p1454
F2
sVsuit
p1455
F3
sValways:---
p1456
F1
sVconsiderably
p1457
F1
sVperplex
p1458
F1
sVkeeping,
p1459
F1
sVblandishments
p1460
F1
sVline
p1461
F1
sVconsiderable
p1462
F1
sVposted
p1463
F1
sVcharmed
p1464
F1
sVocsion'd
p1465
F1
sVher;---my
p1466
F1
sVup
p1467
F32
sVus
p1468
F31
sVopen;
p1469
F2
sVcharmer
p1470
F4
sVside,
p1471
F4
sVraging
p1472
F3
sVunsafe
p1473
F1
sVis,
p1474
F7
sVlost,
p1475
F2
sVside;
p1476
F1
sVlost;
p1477
F1
sVgraceful
p1478
F4
sVelement,
p1479
F1
sVliving,
p1480
F1
sVaffirm'd
p1481
F1
sVhell!
p1482
F2
sVhell,
p1483
F3
sVbutton'd,
p1484
F1
sVparticulors
p1485
F1
sVbe:----my
p1486
F1
sVprosecution
p1487
F1
sVlinnen
p1488
F1
sVsuppression
p1489
F2
sVpresumed,
p1490
F1
sVage
p1491
F1
sVopposing
p1492
F1
sVaffair,
p1493
F7
sVmenace
p1494
F1
sVblest,
p1495
F2
sVhaving
p1496
F67
sVunbelieving
p1497
F1
sVbernardo.
p1498
F1
sVbernardo,
p1499
F5
sVimpatient,
p1500
F1
sVrejoic'd
p1501
F4
sVbernardo?
p1502
F1
sVsofter
p1503
F2
sVbernardo;
p1504
F1
sVgladly
p1505
F1
sVseemed
p1506
F4
sVdesperation,
p1507
F2
sVadorations;
p1508
F1
sVappartments
p1509
F1
sVconcerned
p1510
F1
sVyoung
p1511
F24
sVsend
p1512
F4
sVadorations,
p1513
F1
sVdesperation:
p1514
F1
sVsent
p1515
F27
sVgarden
p1516
F2
sVtorture
p1517
F2
sVstrenuously,
p1518
F1
sVcontinued
p1519
F10
sVprofess'd?
p1520
F1
sVmarry
p1521
F5
sVtry
p1522
F2
sVprofess'd,
p1523
F1
sVprofess'd.
p1524
F1
sVrack
p1525
F1
sVmelting;
p1526
F1
sVmention'd,
p1527
F1
sVarmy,
p1528
F1
sV----in
p1529
F1
sVodd
p1530
F2
sVunhappy.
p1531
F2
sVunhappy,
p1532
F3
sVthat,
p1533
F12
sVmake,
p1534
F4
sVknees,
p1535
F1
sVunbated
p1536
F1
sVobserv'd
p1537
F6
sVinterrogatories
p1538
F1
sVthat?
p1539
F1
sVmake;
p1540
F2
sVthat:
p1541
F1
sVthat;
p1542
F3
sVundone!
p1543
F1
sVled
p1544
F10
sVspake
p1545
F1
sVbenedictines
p1546
F1
sVlet
p1547
F41
sVdevotions,
p1548
F1
sVconsideration
p1549
F8
sVinvented
p1550
F3
sVeffected,
p1551
F1
sVgreat
p1552
F56
sVengage
p1553
F11
sV(cry'd
p1554
F15
sVreceive
p1555
F20
sVforgiveness.
p1556
F1
sVfetch
p1557
F3
sVtheresa.
p1558
F1
sVopinion
p1559
F12
sVmakes
p1560
F5
sVenquir'd,
p1561
F2
sVform'd
p1562
F9
sVcomplying
p1563
F1
sVdisobey
p1564
F1
sVneice
p1565
F1
sVdealing,
p1566
F1
sVdesiring
p1567
F4
sVstanding
p1568
F3
sVconfidence
p1569
F4
sVdreams,
p1570
F1
sVweakness,
p1571
F2
sVunknown,
p1572
F2
sVnext
p1573
F17
sVassuring
p1574
F10
sVdoubt
p1575
F9
sVrepos'd
p1576
F2
sVinfamy
p1577
F1
sVbaffled
p1578
F1
sVsir,
p1579
F4
sVbodily
p1580
F1
sVcarrying
p1581
F1
sVignorant.
p1582
F1
sVcharity
p1583
F1
sVgallantry,
p1584
F1
sVmight,)
p1585
F1
sVrack?
p1586
F1
sVthis
p1587
F276
sVpour
p1588
F4
sVendearments
p1589
F1
sVreserves
p1590
F1
sVdisappointed,
p1591
F1
sVpassion;
p1592
F4
sVmurmuring
p1593
F1
sVslid
p1594
F1
sVask'd
p1595
F4
sVbent
p1596
F6
sVfit,
p1597
F1
sVrode
p1598
F1
sVpieces
p1599
F1
sVhigh
p1600
F6
sVobedient,
p1601
F1
sVnone,
p1602
F1
sVdiscover'd;
p1603
F1
sVdiscover'd:
p1604
F1
sVking's
p1605
F3
sVdelay
p1606
F3
sVdiscover'd,
p1607
F4
sVpurpose;
p1608
F1
sVlines:
p1609
F2
sVnear.
p1610
F1
sVtestimony
p1611
F1
sVtied
p1612
F1
sVperceive
p1613
F2
sVpurpose.
p1614
F2
sVlines,
p1615
F1
sVpurpose,
p1616
F4
sVlines.
p1617
F1
sVracks
p1618
F2
sVgratitude;----and
p1619
F1
sVforg'd,
p1620
F1
sVcleans'd
p1621
F1
sVwrit
p1622
F15
sVallow
p1623
F6
sVperswasion
p1624
F1
sVmeeting.
p1625
F1
sVdetestation:
p1626
F1
sVproduced
p1627
F2
sVearth
p1628
F8
sVphysician.
p1629
F1
sVdesign,
p1630
F8
sVphysician,
p1631
F1
sVwife's
p1632
F2
sVperfect
p1633
F6
sVsuspence,
p1634
F1
sVsuspence.
p1635
F1
sVdispose
p1636
F1
sVcourtiers
p1637
F1
sVdegrees
p1638
F8
sVbeseeching,
p1639
F1
sVsweetness,
p1640
F1
sVforfeiting
p1641
F1
sVphysicians
p1642
F3
sVdesigns
p1643
F5
sVkiss
p1644
F1
sVassum'd
p1645
F1
sVdegree,
p1646
F4
sVwhither
p1647
F4
sVsufficiently
p1648
F7
sVdelightful
p1649
F4
sVtruth
p1650
F12
sVever:----but
p1651
F1
sVrising
p1652
F3
sVbeneath
p1653
F1
sVrouze
p1654
F3
sVdetermine
p1655
F1
sVdoing
p1656
F3
sVsupp'd
p1657
F1
sVbless'd.
p1658
F2
sVsociety
p1659
F4
sVwitness
p1660
F11
sVfollowing:
p1661
F1
sVexacted
p1662
F2
sVrepeat;
p1663
F1
sVfrowns
p1664
F2
sVshut
p1665
F1
sVunwieldy
p1666
F1
sVsuggested;
p1667
F1
sVvicenza.
p1668
F3
sVgreedy
p1669
F1
sVvexation,
p1670
F2
sVmet,
p1671
F1
sVreposed
p1672
F1
sVthings,
p1673
F3
sVfavour,
p1674
F2
sVcompulsive
p1675
F1
sVthings;
p1676
F1
sVhonour'd
p1677
F2
sVoffer'd.
p1678
F1
sValighted
p1679
F3
sVinterpos'd.
p1680
F1
sVenquir'd
p1681
F2
sVfavour:
p1682
F1
sVsatisfied,
p1683
F1
sVspeaking,
p1684
F3
sVscene
p1685
F5
sV\u005c---my
p1686
F1
sVspeaking;
p1687
F1
sVcountryman,
p1688
F1
sVgood,----
p1689
F1
sVoccurrences
p1690
F1
sVsurviv'd
p1691
F1
sVinterest.
p1692
F2
sVinterest,
p1693
F4
sVtwo,
p1694
F1
sVhurricane
p1695
F1
sVgay,
p1696
F3
sVordering
p1697
F1
sVtorture!
p1698
F2
sVtearing,
p1699
F1
sVtravelled
p1700
F1
sVbehaved
p1701
F2
sVsufferings,
p1702
F1
sVaccompany
p1703
F5
sVvicenza:
p1704
F1
sVchagrin
p1705
F2
sVappear'd,
p1706
F1
sVblow;
p1707
F1
sVlater,
p1708
F1
sVlamentations,
p1709
F1
sVbehave:
p1710
F1
sVblam'd
p1711
F1
sVproud;
p1712
F1
sVtortures
p1713
F2
sVtorrent
p1714
F1
sVdevotion
p1715
F1
sVaccusing
p1716
F3
sVfalse
p1717
F3
sVpoisons
p1718
F1
sVgently
p1719
F1
sVgentle
p1720
F3
sVnoise;
p1721
F1
sVsweetness,----the
p1722
F1
sVstudying
p1723
F1
sVhesitations
p1724
F1
sVhandy-work
p1725
F1
sVaccount.
p1726
F1
sVperceiv'd
p1727
F8
sVsubject
p1728
F2
sVthrillings
p1729
F1
sVnoise!
p1730
F1
sVaccount,
p1731
F6
sVpoison;
p1732
F1
sVdevotion.
p1733
F1
sVdevotion,
p1734
F2
sVdevotion;
p1735
F1
sVpoison,
p1736
F5
sVguess'd
p1737
F1
sVhatred.
p1738
F1
sVadventure;
p1739
F2
sVbred
p1740
F2
sVface
p1741
F13
sVperceiving
p1742
F11
sVdon,
p1743
F1
sVwanted.
p1744
F1
sVcaptivity
p1745
F3
sV\u005c----the
p1746
F11
sVstood,
p1747
F3
sVexchange.
p1748
F1
sVterminate
p1749
F1
sVreturn'd
p1750
F5
sVbring
p1751
F15
sVmean,
p1752
F3
sVasylum
p1753
F1
sVtrivial
p1754
F3
sVpause
p1755
F1
sVbernardo's;
p1756
F1
sVshould
p1757
F157
sVservitude,
p1758
F1
sVwretchedness
p1759
F1
sVhope
p1760
F29
sVmeant
p1761
F5
sVmove
p1762
F4
sVhandle
p1763
F1
sVmeans
p1764
F33
sVfamiliar
p1765
F1
sVlucky
p1766
F1
sVdaughter's,
p1767
F1
sVcharmful
p1768
F1
sVantagonist
p1769
F1
sVsummon
p1770
F1
sVremark'd;
p1771
F1
sVwithstand
p1772
F2
sVframe
p1773
F1
sVonce?
p1774
F1
sVonce:
p1775
F1
sVend!
p1776
F1
sVonce!
p1777
F2
sVonce,
p1778
F3
sVend,
p1779
F1
sVend.
p1780
F2
sVrather,
p1781
F1
sVdestiny
p1782
F2
sVdeny'd
p1783
F3
sVunravel
p1784
F1
sVinjustice
p1785
F4
sVrais'd
p1786
F2
sV\u005c---yet
p1787
F1
sVabhorr'd;
p1788
F1
sVlov'd,
p1789
F4
sVbaste,
p1790
F1
sVinjury,
p1791
F1
sVtaken,
p1792
F2
sVtaken.
p1793
F1
sVtrifles,
p1794
F1
sVperfidious
p1795
F4
sVrest:
p1796
F1
sVvotary,
p1797
F1
sVinspired
p1798
F6
sVconcern;----or
p1799
F1
sVconclude
p1800
F1
sVsurgeons
p1801
F1
sVreposited
p1802
F1
sVjudge.
p1803
F2
sVcousin
p1804
F3
sVaffording
p1805
F1
sVdazzling
p1806
F2
sVwhate'er
p1807
F1
sVentitle
p1808
F1
sVanswer'd,
p1809
F2
sVlanguor,----a
p1810
F1
sV\u005c----not
p1811
F1
sVhateful
p1812
F4
sVexcellencies,
p1813
F1
sVundescribable
p1814
F1
sVutter'd
p1815
F3
sVbellraizia!
p1816
F4
sVbellraizia.
p1817
F1
sVbellraizia,
p1818
F10
sVdelaying
p1819
F3
sVexcessively
p1820
F1
sVadultery
p1821
F1
sVof!
p1822
F2
sVstooping
p1823
F1
sVardency
p1824
F2
sVconcealing
p1825
F2
sVof.
p1826
F15
sVof,
p1827
F34
sVtempestuous
p1828
F1
sVof:
p1829
F5
sVof;
p1830
F1
sVcongratulations
p1831
F1
sVball
p1832
F1
sVinfinity
p1833
F7
sVupon
p1834
F25
sVlights,
p1835
F1
sVambition,
p1836
F1
sVappris'd
p1837
F2
sVboding
p1838
F1
sVinfinite
p1839
F6
sVoblivion;
p1840
F1
sVpleasantly
p1841
F1
sVoff
p1842
F19
sV\u005c----fancy
p1843
F1
sVcolour
p1844
F2
sVcommand
p1845
F10
sVdrawing
p1846
F4
sVlest
p1847
F9
sVperjury:---i
p1848
F1
sVnegligence
p1849
F1
sVsoftening
p1850
F1
sVapprov'd
p1851
F1
sVgoing,
p1852
F5
sVrambled
p1853
F1
sVafflicted
p1854
F3
sVgenerous
p1855
F6
sV\u005c----heard
p1856
F1
sVintermitting
p1857
F1
sVmonstrous,----your
p1858
F1
sVcrack
p1859
F1
sVpractise
p1860
F1
sVmoment;
p1861
F1
sVroom.
p1862
F1
sVroom,
p1863
F10
sVdeserving,)
p1864
F1
sVmoment,
p1865
F6
sVincessant
p1866
F2
sVroom:
p1867
F1
sVfools
p1868
F1
sV\u005c----'twas
p1869
F1
sVdescendant
p1870
F1
sVcontempt,
p1871
F1
sVactions;
p1872
F2
sVactions:
p1873
F1
sVwe.
p1874
F1
sVgarments,
p1875
F1
sVovertake
p1876
F1
sVbecome
p1877
F9
sVactions.
p1878
F1
sVactions,
p1879
F7
sVpoor
p1880
F6
sVinconstant
p1881
F1
sVrifled;
p1882
F1
sV\u005c----have
p1883
F1
sVimmortal
p1884
F1
sVtransport
p1885
F7
sVextreams
p1886
F1
sVeraze
p1887
F4
sVavoid
p1888
F10
sVshone
p1889
F1
sVprudent,
p1890
F1
sVdoes
p1891
F3
sVpassion
p1892
F60
sVforgiven
p1893
F2
sVvows,
p1894
F2
sVsecrecy;
p1895
F1
sVdisappointed;
p1896
F1
sVfir'd
p1897
F1
sVpressure
p1898
F1
sVsecrecy,
p1899
F2
sVwhistling
p1900
F1
sVaccompanied
p1901
F4
sVswift,
p1902
F1
sVsister
p1903
F6
sVmerited
p1904
F1
sVfarewell,
p1905
F1
sVshou'd,
p1906
F1
sVadorn'd
p1907
F2
sVinsufficient
p1908
F1
sVorbs,----her
p1909
F1
sVswimming
p1910
F1
sValliance
p1911
F1
sVletters
p1912
F3
sVincens'd,
p1913
F1
sVsharpness
p1914
F1
sVoften,
p1915
F1
sVratify
p1916
F1
sVplace?
p1917
F1
sVplace;
p1918
F5
sVplace:
p1919
F1
sVinjunctions,
p1920
F1
sVgarb,
p1921
F1
sVstartled
p1922
F1
sV\u005c----this
p1923
F1
sVdetermin'd
p1924
F2
sVrepair'd
p1925
F1
sVplace.
p1926
F2
sVnaturally
p1927
F1
sVbegg'd
p1928
F6
sVroad,
p1929
F3
sVmurder?
p1930
F1
sVletter;
p1931
F1
sVasses,
p1932
F1
sVdelivery
p1933
F1
sVroad:
p1934
F1
sVneither,
p1935
F1
sVconditions,
p1936
F1
sV(much
p1937
F1
sVletter,
p1938
F8
sVthey,
p1939
F2
sVcount
p1940
F9
sVevident
p1941
F2
sVtriumphant
p1942
F1
sVplaced
p1943
F2
sVconvince
p1944
F5
sVdeliverance.
p1945
F1
sVchurch,
p1946
F1
sVarms?
p1947
F1
sVout-lived
p1948
F1
sVarms;
p1949
F1
sVcontribute
p1950
F1
sVfollow'd
p1951
F4
sVfellow's
p1952
F2
sVarms.
p1953
F1
sVarms,
p1954
F6
sVplundered
p1955
F1
sVsince,
p1956
F2
sVgarden,
p1957
F2
sVvariety
p1958
F4
sVlately
p1959
F7
sV\u005c---besides,
p1960
F1
sVreach,
p1961
F1
sVgarden;
p1962
F1
sVcustody;
p1963
F1
sVbehold
p1964
F2
sVdisguis'd
p1965
F1
sVrepeat
p1966
F3
sVagain.
p1967
F1
sVagain,
p1968
F5
sVin;
p1969
F6
sVagain!
p1970
F1
sVin,
p1971
F24
sVagain;
p1972
F2
sVin.
p1973
F8
sVreasons.
p1974
F1
sVtraveller's
p1975
F1
sVlasted
p1976
F1
sVslumber,
p1977
F1
sVmercenary
p1978
F1
sVforest,
p1979
F4
sVsearched
p1980
F1
sVrural
p1981
F3
sVgaz'd
p1982
F3
sVdesirable
p1983
F2
sVall
p1984
F295
sV\u005c----she
p1985
F4
sVhurry'd
p1986
F1
sVsaved
p1987
F1
sVparty,
p1988
F1
sVgrief-attracting
p1989
F1
sVsky-coloured
p1990
F1
sVsuch-like
p1991
F1
sVraillery
p1992
F1
sVdiverted
p1993
F1
sVworth
p1994
F7
sVchearfulness,
p1995
F1
sVfavours
p1996
F2
sVamorous
p1997
F6
sVcontain'd
p1998
F2
sVreturning,
p1999
F1
sVsave,
p2000
F1
sVintentions;
p2001
F1
sVwe'll
p2002
F1
sVabhorrence
p2003
F1
sVexchang'd
p2004
F1
sVintentions,
p2005
F1
sVtriumph
p2006
F2
sVlethargy,
p2007
F1
sVdiverting
p2008
F1
sVpray'd,
p2009
F2
sVothers:
p2010
F2
sVothers;
p2011
F1
sVequal.
p2012
F1
sVothers,
p2013
F3
sVsink,
p2014
F1
sVothers)
p2015
F1
sVvines,
p2016
F2
sVbrent;
p2017
F1
sVabove
p2018
F17
sVunable,
p2019
F2
sVvines;
p2020
F1
sVtold
p2021
F68
sVoverwhelm'd
p2022
F1
sVnotions
p2023
F1
sVrevels
p2024
F1
sVrichest
p2025
F1
sVmistress.
p2026
F4
sVmistress,
p2027
F3
sVfathers;
p2028
F1
sVpursuit
p2029
F2
sVdisagreeble
p2030
F1
sVcelebration
p2031
F2
sVobtained
p2032
F1
sVdaughter
p2033
F8
sVstudy
p2034
F5
sVlov'd
p2035
F12
sVminion,
p2036
F1
sVantonia,)
p2037
F1
sVdoleful
p2038
F1
sVsecure
p2039
F6
sV(continued
p2040
F8
sVgentleman,
p2041
F2
sVgentleman.
p2042
F1
sVinflicting
p2043
F1
sVhighly
p2044
F6
sVsoever
p2045
F2
sVover,
p2046
F7
sVsparkling
p2047
F1
sVtotal
p2048
F1
sVheart-strings,
p2049
F1
sVworld's
p2050
F1
sVpress'd
p2051
F3
sV(added
p2052
F2
sV\u005c---'s
p2053
F1
sVseparated
p2054
F1
sVsaid;
p2055
F3
sVgroans.
p2056
F1
sVcompassion.
p2057
F1
sVinterpos'd;
p2058
F1
sVword
p2059
F8
sVwore
p2060
F2
sVsociety,
p2061
F3
sVbooks,
p2062
F1
sVinform'd
p2063
F18
sVwork
p2064
F7
sVrefusing
p2065
F1
sVeraze.
p2066
F1
sVgroves
p2067
F1
sVblooming
p2068
F1
sVeraze;
p2069
F1
sVperswasive
p2070
F1
sVenter'd,
p2071
F2
sVradiance
p2072
F1
sVquivering
p2073
F1
sVfrom:----why
p2074
F1
sVindifferent
p2075
F1
sVrage,)
p2076
F1
sVoffer'd,
p2077
F1
sVprovide
p2078
F2
sVagony
p2079
F3
sVforc'd,
p2080
F2
sVlength
p2081
F11
sVotherwise,)
p2082
F1
sVtrusted
p2083
F2
sVinterview
p2084
F1
sVdisappoint
p2085
F4
sVordinary
p2086
F6
sVresignation
p2087
F1
sVafter
p2088
F51
sVwaits,
p2089
F1
sVlay
p2090
F8
sVlaw
p2091
F3
sVblottings-out,
p2092
F1
sVrackings
p2093
F1
sValienate
p2094
F1
sVcall'd,
p2095
F2
sVfacilitate
p2096
F1
sVfavour;
p2097
F1
sVboat;
p2098
F1
sVchagrin;
p2099
F1
sVhaste
p2100
F3
sVaffecting
p2101
F1
sVorder
p2102
F6
sVmodesty
p2103
F4
sVoffice
p2104
F1
sVconsent
p2105
F14
sVsatisfied
p2106
F5
sVears,
p2107
F3
sVfor-sook
p2108
F1
sVbehalf,
p2109
F1
sVother;)
p2110
F1
sVchamber-door
p2111
F1
sVblown
p2112
F1
sVbefallen
p2113
F4
sVrock,
p2114
F2
sVthen
p2115
F50
sVthem
p2116
F70
sVaffected
p2117
F2
sVineffectual,
p2118
F2
sVthee
p2119
F2
sVsafe
p2120
F3
sVbreak
p2121
F8
sVyoung,
p2122
F2
sVwou'd
p2123
F19
sVpenetration
p2124
F1
sVshameful
p2125
F5
sVthey
p2126
F136
sVsoothing
p2127
F1
sVhumanity
p2128
F1
sVspeaking:
p2129
F1
sVrenounc'd
p2130
F1
sValternately
p2131
F1
sVslavery
p2132
F1
sVflight,
p2133
F1
sVbrooks,
p2134
F1
sVow'd
p2135
F3
sVgoodness,
p2136
F3
sVtrain
p2137
F1
sVcrimes
p2138
F3
sVshort,
p2139
F2
sVfix,
p2140
F1
sVwhining
p2141
F1
sVweak,
p2142
F1
sVacknowledgments,
p2143
F1
sVforty
p2144
F1
sVfellows
p2145
F1
sVstrangers
p2146
F1
sVhave,
p2147
F1
sVforth
p2148
F5
sVacknowledgments;
p2149
F1
sVexpos'd
p2150
F2
sVmourning
p2151
F1
sVdesolate;
p2152
F1
sVcrime,
p2153
F1
sVcrime.
p2154
F1
sVcouncil,
p2155
F1
sVcollation
p2156
F2
sVamazement
p2157
F3
sVdetecting
p2158
F1
sVi)
p2159
F3
sVstranger!
p2160
F1
sVcreated
p2161
F2
sVstranger,
p2162
F3
sVfellow,
p2163
F3
sVrenew
p2164
F2
sVoppose
p2165
F10
sVlove,
p2166
F26
sV(as
p2167
F12
sVfellow!
p2168
F1
sVrender
p2169
F7
sVdiscernment,
p2170
F1
sVwaste,
p2171
F1
sVfears,
p2172
F5
sVanother
p2173
F27
sVthick
p2174
F1
sVpower.
p2175
F4
sVpower,
p2176
F14
sVdoge
p2177
F4
sVprotracted
p2178
F1
sVimmodest
p2179
F1
sVpower;
p2180
F1
sVpower:
p2181
F1
sVperished,
p2182
F1
sVmagistrates,
p2183
F1
sVover.
p2184
F1
sVsuited,
p2185
F1
sVgreater.
p2186
F1
sVmercy
p2187
F1
sVgreater,
p2188
F2
sVasseverations
p2189
F1
sVair)
p2190
F1
sVadmonitions
p2191
F1
sVrate,
p2192
F1
sVair,
p2193
F8
sVguilt
p2194
F3
sVlove;
p2195
F2
sVpowers
p2196
F1
sVobservation;
p2197
F1
sVi.)
p2198
F1
sVnostrils,
p2199
F1
sVunchaste
p2200
F1
sVseignior,
p2201
F1
sVmanner
p2202
F44
sVvigorous
p2203
F1
sVcontents
p2204
F4
sVblow,
p2205
F2
sVstrength
p2206
F5
sVconvenient
p2207
F1
sVlatter
p2208
F3
sVchrystal
p2209
F1
sVpilgrimage
p2210
F1
sV----would
p2211
F1
sVconducive
p2212
F1
sVcontent,
p2213
F1
sVlawra,
p2214
F3
sVinspire,
p2215
F2
sVassenting
p2216
F1
sVadmittance:
p2217
F1
sVgrave
p2218
F2
sVhim;
p2219
F16
sVaccord
p2220
F1
sVforce,
p2221
F3
sVforce.
p2222
F2
sVinferred
p2223
F1
sVreturn'd,
p2224
F1
sVreturn'd.
p2225
F2
sVaccounted
p2226
F2
sVdeeply
p2227
F2
sVnotion
p2228
F6
sVdestroy'd,---expos'd,---betray'd
p2229
F1
sV\u005c---it
p2230
F1
sVaversion;
p2231
F1
sVrailing,
p2232
F1
sVnephew
p2233
F1
sVpope,
p2234
F1
sV\u005c---if
p2235
F1
sVhim.
p2236
F26
sVjust
p2237
F27
sVadequate
p2238
F5
sVinterpos'd
p2239
F1
sVrun,
p2240
F1
sVdo
p2241
F47
sVidalia
p2242
F67
sVardor
p2243
F1
sVde
p2244
F7
sVreligion,
p2245
F3
sVyielded
p2246
F4
sVexulting
p2247
F1
sVmotions,
p2248
F3
sV'twould
p2249
F3
sVwrested
p2250
F2
sVcovering
p2251
F1
sVexchanged
p2252
F1
sVlasted;
p2253
F1
sVstead
p2254
F2
sVbefore:----and
p2255
F1
sVinto,
p2256
F3
sVmiserably
p2257
F1
sVobserver
p2258
F1
sVobserved
p2259
F1
sVdepends
p2260
F1
sVdamnation
p2261
F1
sVmiserable
p2262
F8
sVgroan,
p2263
F1
sVrequest,
p2264
F3
sVrequest.
p2265
F1
sVreceive,
p2266
F1
sVaway
p2267
F9
sVgentleman
p2268
F7
sVcompensation
p2269
F1
sVunable
p2270
F7
sVdrawn
p2271
F3
sVfoe,
p2272
F1
sVwe
p2273
F39
sVreality;
p2274
F1
sVterms
p2275
F10
sVdiscontent,
p2276
F1
sV\u005c----hear
p2277
F1
sVlover
p2278
F9
sVinn;
p2279
F1
sVinvolv'd
p2280
F3
sVseem'd
p2281
F38
sVobserve,
p2282
F1
sVfailing,
p2283
F2
sVreceived
p2284
F8
sVclimate
p2285
F1
sVdebarr'd
p2286
F1
sVgrotto,
p2287
F2
sVill
p2288
F18
sVtravels.
p2289
F1
sVlabour'd
p2290
F2
sVinclinations,
p2291
F8
sVgo,)
p2292
F1
sVperjur'd
p2293
F2
sVspeak
p2294
F13
sVgratitude
p2295
F4
sVstrong
p2296
F3
sVunhappily
p2297
F1
sVwarmth
p2298
F1
sVduties
p2299
F1
sVmention'd
p2300
F6
sVfamilies
p2301
F3
sVbeloved
p2302
F6
sVwide,
p2303
F2
sVconcerning
p2304
F6
sVequivocation
p2305
F1
sVexcite
p2306
F2
sVamusements;
p2307
F1
sVbestow.
p2308
F2
sVbestow,
p2309
F1
sVaim'd
p2310
F4
sVphysician
p2311
F2
sVinclinations;
p2312
F1
sVair
p2313
F9
sVaim
p2314
F2
sVaid
p2315
F2
sVvoice
p2316
F9
sVknown,
p2317
F3
sVmistake
p2318
F1
sVfaith,
p2319
F2
sVdiscourses
p2320
F1
sVtruce,
p2321
F1
sVdesist:----prayers,----
p2322
F1
sVrecounted;
p2323
F1
sVconfinement.
p2324
F1
sVperform
p2325
F2
sVinvoluntary
p2326
F2
sVeminent
p2327
F1
sVth'
p2328
F1
sVmonarch
p2329
F1
sVdiscourse;
p2330
F1
sVswell
p2331
F2
sVhang
p2332
F1
sVevil
p2333
F1
sVhand
p2334
F10
sVliberties
p2335
F2
sVcaus'd
p2336
F1
sVdiscourse,
p2337
F2
sVdenoted,
p2338
F1
sVtalking,
p2339
F1
sVkept
p2340
F6
sVavoid.
p2341
F1
sVthy
p2342
F13
sVextreams.
p2343
F1
sVhumble
p2344
F6
sVstay'd
p2345
F3
sValready-charm'd
p2346
F1
sVhumbly
p2347
F1
sVimpertinent
p2348
F2
sVamasing
p2349
F1
sVthe
p2350
F2434
sVproceed,)
p2351
F1
sVimpression
p2352
F2
sVgods
p2353
F3
sVrepose
p2354
F7
sVcap,
p2355
F2
sVfarther
p2356
F11
sVvictim
p2357
F2
sVadding
p2358
F3
sVspread
p2359
F2
sVdraught,
p2360
F1
sVswear,
p2361
F1
sVrequired;
p2362
F1
sVcrowd,
p2363
F1
sVdisadvantage
p2364
F1
sVbrutality,
p2365
F1
sVopening,
p2366
F1
sVcountry.
p2367
F1
sVzeal,
p2368
F2
sVcountry,
p2369
F3
sVnight
p2370
F14
sVsecurity
p2371
F4
sVrefused,
p2372
F1
sVjustice.
p2373
F1
sVflatter
p2374
F3
sVprovocation,
p2375
F1
sVborn
p2376
F4
sVbore
p2377
F6
sVcongratulate
p2378
F1
sVransacked
p2379
F1
sVunavoidable
p2380
F1
sVaccept.
p2381
F1
sVasking
p2382
F3
sVmonth,
p2383
F2
sVdenied
p2384
F1
sVadorable
p2385
F7
sVconfer
p2386
F2
sVprocure
p2387
F1
sVprince,)
p2388
F2
sVsend,
p2389
F1
sVpost
p2390
F2
sVindispos'd,
p2391
F1
sVpursu'd
p2392
F1
sVtheirs
p2393
F1
sVmonths
p2394
F2
sVbethinking
p2395
F1
sVeight
p2396
F1
sVtreble
p2397
F1
sVconsiderations
p2398
F5
sVtraytor
p2399
F3
sVunconceivable
p2400
F2
sVprisoners
p2401
F1
sVprofession
p2402
F2
sVbound
p2403
F4
sVrendering
p2404
F1
sVcries,
p2405
F1
sVold
p2406
F7
sVlewd
p2407
F1
sVexperienc'd
p2408
F1
sVstrangely
p2409
F4
sVsovereign
p2410
F1
sVfight
p2411
F1
sVhim.)
p2412
F1
sVaccordingly
p2413
F2
sVway
p2414
F34
sVhatred,
p2415
F1
sVwas
p2416
F797
sVwar
p2417
F2
sVlowest
p2418
F2
sVdiligence
p2419
F1
sVmeaning;
p2420
F1
sVbecoming
p2421
F4
sVconverse
p2422
F1
sV\u005c---nothing
p2423
F1
sVmurders,
p2424
F1
sVmysterious
p2425
F2
sVsame.
p2426
F3
sVsame,
p2427
F1
sVtrue
p2428
F4
sVabsent
p2429
F1
sVimpatience!
p2430
F1
sVimpatience,
p2431
F1
sVgenerosity
p2432
F6
sVinadvertencies
p2433
F1
sVpromises
p2434
F2
sVinfamy,
p2435
F1
sVscore,
p2436
F5
sVrequest
p2437
F6
sVevidence
p2438
F2
sVpromised
p2439
F5
sVbrother.
p2440
F1
sVbrother,
p2441
F4
sVmarry'd
p2442
F1
sVscore;
p2443
F1
sVcuriosities
p2444
F1
sVdying
p2445
F3
sVmeanness
p2446
F1
sVbed,
p2447
F9
sVhurry,
p2448
F1
sVshrine
p2449
F1
sVpace,
p2450
F1
sVbed;
p2451
F1
sVbed:
p2452
F1
sVunwilling
p2453
F2
sVhorrors,
p2454
F1
sVpromise;
p2455
F1
sVwelcome
p2456
F5
sValmighty.
p2457
F1
sVassiduous
p2458
F1
sVpromise,
p2459
F2
sVours,
p2460
F1
sVtogether
p2461
F2
sVvictory.
p2462
F1
sVresvery
p2463
F1
sVvictory,
p2464
F1
sVstick
p2465
F2
sVlisten'd
p2466
F5
sVknown
p2467
F9
sVgrateful
p2468
F2
sVrecluse
p2469
F1
sVdevoted
p2470
F2
sV\u005c----nor,----nor
p2471
F1
sVcertainly
p2472
F9
sVsloth,
p2473
F1
sVperceive,
p2474
F3
sVterror
p2475
F4
sVador'd
p2476
F4
sVcould
p2477
F208
sVadditional
p2478
F3
sVtrouble
p2479
F11
sVblast
p2480
F2
sVfeeble
p2481
F2
sVsoul's
p2482
F1
sVperceived
p2483
F3
sVevaded
p2484
F3
sVpresented
p2485
F2
sVturns
p2486
F1
sVassiduity,
p2487
F1
sVmiss'd
p2488
F1
sVupper
p2489
F1
sVappear,
p2490
F3
sVbrave
p2491
F1
sVregret
p2492
F3
sVchevalier,
p2493
F1
sVdiscover
p2494
F20
sVprincesses,
p2495
F1
sVcost
p2496
F1
sVappear:
p2497
F1
sVperplexity
p2498
F2
sVtempest
p2499
F3
sVoppress'd,
p2500
F2
sVappear
p2501
F19
sVrepeated.
p2502
F1
sVsafety;
p2503
F2
sVavowing
p2504
F1
sVit:---did
p2505
F1
sVindifference,
p2506
F1
sVillustrations
p2507
F1
sVappeal
p2508
F1
sVsafety,
p2509
F2
sVsafety.
p2510
F1
sVsatisfy
p2511
F7
sVappointed;
p2512
F1
sVfair:---
p2513
F1
sVappointed.
p2514
F1
sVappears
p2515
F2
sVchange
p2516
F4
sVcursing,
p2517
F1
sVmerriment
p2518
F1
sVshare:
p2519
F1
sVshare,
p2520
F1
sVusually
p2521
F1
sVrichest,
p2522
F1
sVcredulity,
p2523
F1
sVmatrimonial
p2524
F1
sVfelt,
p2525
F1
sVsign
p2526
F1
sVitalians
p2527
F1
sVrarely
p2528
F1
sVdisguising
p2529
F3
sVprove
p2530
F5
sVlive
p2531
F10
sVangels
p2532
F1
sVsoft,
p2533
F4
sVestranged.
p2534
F1
sVlik'd
p2535
F1
sVsting,
p2536
F1
sVitalian,
p2537
F1
sVgentlemen,
p2538
F2
sVretire.
p2539
F1
sVfury,
p2540
F1
sVitalian;
p2541
F1
sVdeclared,
p2542
F1
sVchastise
p2543
F1
sVvisits,
p2544
F2
sVincidents
p2545
F2
sVfew,
p2546
F1
sVdissembled
p2547
F2
sVdistinguishably
p2548
F1
sVheart
p2549
F26
sVkept,
p2550
F1
sVheard
p2551
F20
sVrecollect
p2552
F2
sVobserving,
p2553
F1
sVchid
p2554
F3
sVconquest,
p2555
F1
sVwatchfulness,
p2556
F1
sVbleeding,
p2557
F1
sVfortunately
p2558
F1
sVwrite
p2559
F5
sVfuture,
p2560
F1
sVsacrifice
p2561
F2
sVfortune,
p2562
F5
sVpause;
p2563
F1
sVgrass,
p2564
F1
sVproduce
p2565
F2
sVcommit
p2566
F1
sVpause,
p2567
F3
sVlifting
p2568
F2
sVdisposition:
p2569
F1
sVaffronting
p2570
F1
sVremember
p2571
F2
sVwhenever
p2572
F10
sVdesperation
p2573
F2
sVcrept
p2574
F1
sVdisposition,
p2575
F7
sVoffend
p2576
F1
sVwrit,
p2577
F1
sVwrit.
p2578
F1
sVno,
p2579
F15
sVwealth,
p2580
F1
sVserving
p2581
F3
sV\u005c----yet
p2582
F1
sVindeed
p2583
F20
sVforfeit
p2584
F2
sVstoop'd
p2585
F1
sVno!
p2586
F1
sVbewitching
p2587
F1
sVembolden'd
p2588
F1
sVcouncil-chamber,
p2589
F2
sVended
p2590
F1
sV\u005c---snatch,---snatch
p2591
F1
sVlanguors,----
p2592
F1
sVcold
p2593
F2
sVstill
p2594
F30
sVassiduity
p2595
F2
sVacknowledge
p2596
F3
sVselves
p2597
F1
sVdesigns.
p2598
F1
sVinflicted
p2599
F6
sVspacious
p2600
F1
sV\u005c---humanity
p2601
F1
sVcorrespondence
p2602
F2
sVspirits,
p2603
F1
sVrecal
p2604
F1
sVobedience,
p2605
F1
sVagoniz'd
p2606
F1
sVfetter'd
p2607
F1
sVdeliver'd;
p2608
F1
sVhalf
p2609
F10
sVnot
p2610
F514
sVcourtship
p2611
F1
sVnow
p2612
F84
sVnor
p2613
F47
sVwont
p2614
F1
sVfor;
p2615
F2
sVhereafter,
p2616
F1
sVservant
p2617
F11
sVdrop
p2618
F1
sVform,
p2619
F1
sVconqueror)
p2620
F1
sVthen,----adieu.
p2621
F1
sVconqueror,
p2622
F1
sVform;
p2623
F1
sVentirely
p2624
F21
sVvexation
p2625
F1
sVclasp'd
p2626
F1
sVprompted
p2627
F2
sVvex'd
p2628
F2
sVee
p2629
F1
sVadvantage.
p2630
F1
sVadvantage,
p2631
F2
sVadvantage)
p2632
F1
sVcar,
p2633
F1
sVhappen
p2634
F3
sVavoided
p2635
F1
sVadvantage;
p2636
F1
sVirons
p2637
F1
sVperfections
p2638
F5
sVcould,
p2639
F9
sVtransporting.
p2640
F1
sVpalace,
p2641
F2
sVhastily
p2642
F5
sVincrease
p2643
F1
sVepistle
p2644
F2
sVreceiving
p2645
F7
sVinevitably
p2646
F2
sVresolving,
p2647
F2
sVastonishment,
p2648
F1
sVdue,
p2649
F1
sVdirections,
p2650
F1
sVobligation
p2651
F2
sVfire:
p2652
F1
sVcare
p2653
F22
sVhappening,
p2654
F2
sVcontemplation
p2655
F1
sVperfection;
p2656
F1
sVhonest
p2657
F2
sVinvitation
p2658
F1
sVentrusted
p2659
F2
sVsupport
p2660
F2
sVdeliver'd
p2661
F5
sVblind
p2662
F2
sVlovers,
p2663
F1
sVguessing
p2664
F3
sVchevalier
p2665
F5
sVpeace;----remov'd
p2666
F1
sVyourself
p2667
F3
sVdirectly
p2668
F3
sVimpossible
p2669
F22
sVnature:---
p2670
F1
sVdrove
p2671
F1
sV'em
p2672
F10
sVrequir'd
p2673
F2
sVsilent
p2674
F1
sVignorant;
p2675
F1
sVcaught
p2676
F1
sVfalsity;
p2677
F1
sVworst:----she
p2678
F1
sVfriend
p2679
F10
sVwed,
p2680
F1
sVthat
p2681
F738
sVviolence,
p2682
F1
sV(cried
p2683
F3
sVwronging
p2684
F2
sVskreen
p2685
F1
sVviolence;
p2686
F1
sVthan
p2687
F187
sVaffronted
p2688
F2
sVmonastery,
p2689
F4
sVartifices
p2690
F1
sVtruly,
p2691
F1
sVtroublesome
p2692
F1
sVgrotto
p2693
F4
sVpunctually
p2694
F1
sV(and
p2695
F1
sVundertaking;
p2696
F3
sVanger
p2697
F1
sVoffering
p2698
F2
sVkindest,
p2699
F1
sVslave,
p2700
F1
sVsuborn'd
p2701
F1
sVbegin
p2702
F1
sVprice
p2703
F2
sVbeing,
p2704
F2
sVimpossible!
p2705
F2
sVrickamboll,
p2706
F4
sVcaptivity,
p2707
F1
sVcruel,----barbarous,
p2708
F1
sVmalignity
p2709
F2
sVunconquerable
p2710
F2
sVdash'd
p2711
F4
sVsurpris'd
p2712
F11
sVslaves
p2713
F3
sVhonour.
p2714
F3
sVhonour,
p2715
F12
sVunfading
p2716
F1
sVremote,
p2717
F1
sVpressures,
p2718
F2
sVwhile,
p2719
F2
sVpride,
p2720
F5
sVhonour;
p2721
F2
sVso;
p2722
F3
sVfifth
p2723
F1
sVground
p2724
F4
sVwhat,
p2725
F2
sVtitle
p2726
F3
sVseen:
p2727
F1
sVseen;
p2728
F2
sVproportion
p2729
F1
sVembittered
p2730
F1
sVstaid
p2731
F1
sVonly
p2732
F70
sVinventions
p2733
F2
sVstain
p2734
F1
sVaffronts
p2735
F1
sV'tis
p2736
F38
sVdrown'd
p2737
F4
sVhall,
p2738
F1
sVtruly
p2739
F6
sVcannot
p2740
F22
sVbracelets
p2741
F1
sVinvention,
p2742
F2
sVseldom
p2743
F1
sVpassionately,
p2744
F1
sVeffectual
p2745
F5
sVfriends,
p2746
F3
sVhusband
p2747
F9
sVraptures,
p2748
F2
sVburst
p2749
F5
sVprotestations
p2750
F3
sVunfit
p2751
F4
sVsport
p2752
F1
sVconcern
p2753
F9
sVcome.
p2754
F1
sVher's.
p2755
F2
sVher's,
p2756
F4
sVwalk'd
p2757
F3
sVcomplexion
p2758
F1
sVcome;
p2759
F1
sVbetween
p2760
F27
sVnotice
p2761
F5
sVpluck
p2762
F1
sVblame
p2763
F2
sVsav'd
p2764
F1
sVarticle
p2765
F1
sVsight:----that
p2766
F1
sVassaulting
p2767
F1
sVshamefully
p2768
F1
sVmadness
p2769
F2
sVharbouring
p2770
F1
sVof;---
p2771
F1
sVdispatch
p2772
F1
sVwound,
p2773
F1
sVwound.
p2774
F1
sVproved
p2775
F2
sVfruitful
p2776
F1
sVolives
p2777
F1
sVmagnify,
p2778
F1
sVabsented
p2779
F1
sVinformed
p2780
F4
sVdangers
p2781
F4
sVunfix'd,
p2782
F1
sVinformer
p2783
F1
sVsuspected
p2784
F6
sVcoquetry
p2785
F1
sVthese
p2786
F66
sVo'er-joy'd
p2787
F1
sVdanger.
p2788
F1
sVoff,----those
p2789
F1
sVcare:
p2790
F1
sVcare;
p2791
F1
sVcare,
p2792
F2
sVdie.
p2793
F1
sVtaking
p2794
F14
sVdanger;
p2795
F1
sVcalmness.----
p2796
F1
sVanxieties
p2797
F1
sVembrace
p2798
F1
sVdrug
p2799
F1
sVcommanded
p2800
F3
sVfloating
p2801
F1
sVmore:----
p2802
F1
sVgentlemen
p2803
F2
sVcharge,
p2804
F1
sVyou,)
p2805
F1
sVladies
p2806
F1
sVby,)
p2807
F1
sVpure,
p2808
F1
sVnoble
p2809
F13
sVrapture!
p2810
F1
sVenjoyment
p2811
F4
sVrapture,
p2812
F1
sVimprecations
p2813
F2
sVrapture.
p2814
F1
sVinstigations
p2815
F2
sVdespis'd
p2816
F1
sVpassing
p2817
F1
sVenchanting
p2818
F3
sVconcern'd
p2819
F4
sVsevere
p2820
F6
sValleviate
p2821
F2
sVeffacing
p2822
F1
sVam,
p2823
F4
sVtossing
p2824
F1
sVunspeakable!----
p2825
F1
sVvaluable
p2826
F2
sVrule,
p2827
F1
sVtouch
p2828
F2
sVidalia.)
p2829
F1
sVspeed
p2830
F2
sVmingling
p2831
F1
sVeither;
p2832
F1
sVthinking
p2833
F12
sVresum'd
p2834
F8
sVlatter,
p2835
F5
sVeither.
p2836
F1
sVeither,
p2837
F4
sVconduct!
p2838
F1
sVmournful
p2839
F2
sVreal
p2840
F3
sVexult
p2841
F1
sVread
p2842
F13
sVoffence
p2843
F1
sVincognita.
p2844
F1
sVsalutations
p2845
F2
sVearly
p2846
F2
sVearnest
p2847
F6
sVlistening
p2848
F1
sVexecution
p2849
F3
sVlady
p2850
F31
sVfortune
p2851
F12
sVvelago.
p2852
F3
sVvelago,
p2853
F1
sVbenefit
p2854
F1
sVfully
p2855
F6
sVardella
p2856
F3
sVenrag'd
p2857
F2
sVopened.
p2858
F1
sVthro'
p2859
F20
sVout-done
p2860
F1
sVsays:----but
p2861
F1
sVpassions
p2862
F3
sVconceal,
p2863
F1
sVconceal.
p2864
F1
sVdistinguish'd
p2865
F2
sVcrying.
p2866
F1
sVassembly
p2867
F1
sVbusiness
p2868
F7
sVapartment;
p2869
F1
sVuneasy
p2870
F3
sVcaresses,
p2871
F1
sVcalumny,
p2872
F1
sVinnocence
p2873
F4
sVapartment,
p2874
F2
sVthrow
p2875
F8
sVfondness
p2876
F1
sVcomparison
p2877
F3
sVpiety
p2878
F1
sValighted,
p2879
F1
sVpleased,
p2880
F1
sVpassion!
p2881
F3
sVboldly
p2882
F3
sVjourney
p2883
F8
sV(replied
p2884
F2
sVpassion,
p2885
F30
sVpassion.
p2886
F4
sVstratagem
p2887
F2
sVunbounded
p2888
F3
sVverily
p2889
F1
sVuninjur'd,
p2890
F1
sVyour
p2891
F157
sVdisdains.
p2892
F1
sVvicenza,
p2893
F13
sVbelief,
p2894
F3
sVviterbo,
p2895
F1
sVprepare
p2896
F2
sVarea
p2897
F1
sVremoving
p2898
F2
sVauthority,
p2899
F2
sVposture,
p2900
F1
sVstart
p2901
F2
sVdrank
p2902
F2
sVlow
p2903
F7
sVlot
p2904
F1
sVvicenza;
p2905
F3
sVyou.
p2906
F14
sVyou,
p2907
F52
sVyou!
p2908
F2
sVyou?
p2909
F1
sVyou;
p2910
F6
sVyou:
p2911
F2
sVheart-akings,
p2912
F1
sVcottage
p2913
F1
sVintermission
p2914
F1
sVare,
p2915
F1
sVare?
p2916
F1
sVposterity,
p2917
F1
sVinflict
p2918
F2
sVmoved
p2919
F2
sVhouse;
p2920
F6
sVgreen
p2921
F2
sVthither
p2922
F2
sVtended,
p2923
F1
sVyou
p2924
F355
sVidalia,)
p2925
F3
sVgaining
p2926
F3
sVsale:
p2927
F1
sVremembrance;
p2928
F1
sVconstrain'd
p2929
F1
sVremembrance,
p2930
F2
sVremembrance.
p2931
F1
sVintent,
p2932
F4
sVwell-counterfeited
p2933
F3
sVrepay
p2934
F1
sVdoubted
p2935
F3
sV\u005c----then,
p2936
F1
sVcabinet,
p2937
F1
sVstrings
p2938
F1
sValleviation
p2939
F1
sVmeditating
p2940
F1
sVspar'd
p2941
F1
sVreligious
p2942
F2
sVdirected,
p2943
F1
sVdreadful
p2944
F21
sVmeant,
p2945
F3
sVdistasteful;
p2946
F1
sV(pointing
p2947
F1
sVenchantress,
p2948
F1
sVsafety
p2949
F1
sVbanish
p2950
F2
sVvery
p2951
F63
sVhorror
p2952
F8
sVtuscany,
p2953
F1
sVme
p2954
F288
sVheaven
p2955
F26
sVmulyzeden's?
p2956
F1
sVuneasy,
p2957
F1
sVthrobbing
p2958
F2
sVvanquish
p2959
F3
sVi'll
p2960
F6
sVexpectations,
p2961
F1
sVanswer;
p2962
F2
sVanswer:
p2963
F1
sVanswer,
p2964
F3
sVexpectations;
p2965
F1
sVlitter,
p2966
F2
sVaddition
p2967
F4
sVhim?
p2968
F2
sVher:----that
p2969
F1
sVhim:
p2970
F3
sVaffections,
p2971
F4
sVaffections.
p2972
F1
sVtone,)
p2973
F1
sVemotions
p2974
F9
sVinspire!
p2975
F1
sVwitnesses
p2976
F3
sVhim,
p2977
F92
sVinspire;
p2978
F1
sVacknowledgments
p2979
F1
sVhim!
p2980
F2
sVbehav'd
p2981
F2
sVreality:
p2982
F1
sVloose
p2983
F2
sVvenice
p2984
F7
sVanswers
p2985
F2
sVforgive
p2986
F6
sVaccus'd
p2987
F2
sVo'erflowing
p2988
F1
sVdepend
p2989
F3
sVenjoy'd
p2990
F1
sVreality,
p2991
F1
sVreality.
p2992
F1
sVpartaker
p2993
F2
sVinspires
p2994
F1
sVsubstantial;
p2995
F1
sV'twas
p2996
F23
sVfamily
p2997
F6
sVrequiring
p2998
F1
sVthrong'd
p2999
F1
sVput
p3000
F33
sVslavish
p3001
F1
sV\u005c----that
p3002
F2
sVstanders-by
p3003
F1
sVcoolness,
p3004
F1
sVinjure
p3005
F2
sVrequir'd:
p3006
F1
sVtaken
p3007
F17
sVinjury
p3008
F4
sVtax'd
p3009
F1
sVexcuse
p3010
F8
sVbroke
p3011
F4
sVhurry
p3012
F1
sVvirgin?
p3013
F1
sVresolutions!
p3014
F1
sVmodesty,
p3015
F2
sVoffended
p3016
F1
sVmodesty?
p3017
F1
sVhorses,
p3018
F1
sVtake,
p3019
F1
sVhistory
p3020
F9
sVfury!
p3021
F1
sVdissatisfy'd,
p3022
F1
sVadviser
p3023
F1
sVstinging
p3024
F1
sVclimates
p3025
F1
sVpartner
p3026
F1
sVfury:
p3027
F3
sVspecies
p3028
F1
sVfirmly
p3029
F1
sVcontrive,
p3030
F1
sVdagger,
p3031
F5
sVunlucky
p3032
F1
sVreject
p3033
F1
sVhating
p3034
F1
sVfoes.
p3035
F1
sVrude
p3036
F2
sVcommunicating
p3037
F2
sVtriumphs
p3038
F2
sVobstinate,
p3039
F1
sVclimate;
p3040
F1
sVa
F1006
sVestranging
p3041
F1
sVvotary
p3042
F1
sVcalm:
p3043
F1
sVspectre
p3044
F1
sVrenewing
p3045
F2
sVdread
p3046
F2
sVcontriver
p3047
F2
sVof)
p3048
F1
sVhelp
p3049
F8
sVsoon
p3050
F43
sVtempt
p3051
F1
sVheld
p3052
F3
sVminutes:
p3053
F1
sVothers.
p3054
F1
sVhell
p3055
F2
sVoccasion;
p3056
F1
sVloved,
p3057
F1
sVcontents;---
p3058
F1
sVreluctance
p3059
F2
sVfair,
p3060
F5
sVabsence
p3061
F5
sV\u005c----since
p3062
F1
sVoccasion,
p3063
F2
sVfair;
p3064
F1
sVfull,
p3065
F1
sVforbear
p3066
F8
sVevening
p3067
F5
sVfood
p3068
F1
sVknocking
p3069
F1
sVreigning
p3070
F1
sVfollowers,
p3071
F1
sVus,
p3072
F7
sVslighted
p3073
F1
sVfine,
p3074
F6
sVhero,
p3075
F1
sVof?
p3076
F1
sVbless
p3077
F1
sVdisdaining
p3078
F1
sVblest
p3079
F3
sVhouse!
p3080
F1
sVrestless
p3081
F2
sVhouse.
p3082
F3
sVhouse,
p3083
F24
sVmyrtano's
p3084
F10
sVenflamed.
p3085
F1
sVbeyond
p3086
F14
sVas,
p3087
F2
sVtrusty
p3088
F1
sVsince
p3089
F46
sVaffections;----nor
p3090
F1
sVtestify
p3091
F3
sVundoing.
p3092
F3
sVundoing,
p3093
F2
sVcloset.
p3094
F1
sVissue
p3095
F3
sVreason
p3096
F28
sVbase
p3097
F3
sVthreat'nings,
p3098
F1
sVuttered:
p3099
F1
sVask
p3100
F11
sVunbecoming
p3101
F1
sV\u005c----perceiving
p3102
F1
sVterrible
p3103
F3
sVtrust,
p3104
F2
sVexpecting
p3105
F1
sVdear,
p3106
F5
sVdear.
p3107
F1
sVtryal
p3108
F1
sVminutes;
p3109
F1
sVincreas'd
p3110
F2
sVloved.
p3111
F2
sVprobability
p3112
F7
sVauthor,
p3113
F1
sVunfeigned
p3114
F1
sVldalia
p3115
F1
sVtranscendency
p3116
F1
sVreflected
p3117
F3
sVunaccompanied
p3118
F2
sVloved;
p3119
F1
sVscruples,
p3120
F1
sVminutes,
p3121
F1
sVmiss
p3122
F1
sVastonish'd
p3123
F2
sVfearing
p3124
F4
sVhorse
p3125
F5
sVinterwoven
p3126
F1
sVhymeneal
p3127
F1
sVcontain'd;
p3128
F1
sVstation
p3129
F2
sVhundred
p3130
F4
sVshifted
p3131
F1
sVstorm
p3132
F3
sVantonia
p3133
F24
sVauthors
p3134
F1
sVbanditti,
p3135
F2
sVconsonant
p3136
F1
sVflattery
p3137
F5
sVgrew
p3138
F12
sVlament
p3139
F2
sVmiseries
p3140
F3
sVanticipate
p3141
F1
sVbride
p3142
F1
sVstore
p3143
F1
sVanswer'd
p3144
F8
sVsuffer'd
p3145
F10
sVbrains,
p3146
F1
sVapprove,
p3147
F1
sVhire,
p3148
F1
sVlie
p3149
F2
sVconstructions
p3150
F1
sVmeditations,
p3151
F3
sVofficers
p3152
F1
sVdangers,
p3153
F5
sVperformance,
p3154
F1
sVzatilda:
p3155
F1
sVhope:---'tis
p3156
F1
sVtowards
p3157
F1
sVhired
p3158
F1
sVdeclaring
p3159
F1
sVsignior,
p3160
F2
sVdecorum,
p3161
F1
sVclear
p3162
F3
sVunreasonable
p3163
F1
sVher's
p3164
F2
sV\u005c----'s
p3165
F1
sVsignior?
p3166
F1
sVprotracting,
p3167
F1
sVclean
p3168
F1
sVfuriously,
p3169
F1
sVindignation.
p3170
F1
sVmeaner,
p3171
F1
sVindignation,
p3172
F2
sVtree.
p3173
F1
sVheavens
p3174
F2
sVdesign'd
p3175
F14
sVwith,
p3176
F17
sVwith.
p3177
F2
sVwith)
p3178
F1
sVenemy,
p3179
F1
sVdenials;
p3180
F1
sVjustice
p3181
F5
sVless
p3182
F25
sVwith!
p3183
F1
sVdarted
p3184
F1
sVmoments
p3185
F3
sVfatague,
p3186
F1
sVpretty
p3187
F6
sVwith:
p3188
F2
sVheaven,
p3189
F7
sVheaven!
p3190
F1
sVtrees
p3191
F1
sVpilot's
p3192
F1
sVfamous
p3193
F1
sVfeels
p3194
F1
sVpretending
p3195
F4
sVpromis'd
p3196
F8
sVrepent:----where,
p3197
F1
sVaccomplishments,
p3198
F1
sValteration
p3199
F7
sVflight.
p3200
F1
sVpoisoned
p3201
F1
sV----entreaties,
p3202
F1
sVthrowing
p3203
F1
sVplausible
p3204
F3
sVclose
p3205
F8
sVconstellation
p3206
F1
sVsecret;
p3207
F2
sVprobable
p3208
F7
sVhorrid
p3209
F5
sVfirmest
p3210
F1
sVfamiliarity
p3211
F2
sV\u005c----soon
p3212
F1
sVwon
p3213
F5
sVsecret.
p3214
F2
sVyears.
p3215
F1
sVsecret,
p3216
F3
sVdurst
p3217
F5
sVgoing;
p3218
F1
sVguards,)
p3219
F1
sVmissing
p3220
F1
sVdescription,
p3221
F1
sVtemples,
p3222
F1
sVinfidels,
p3223
F1
sVdescription;
p3224
F1
sVboth
p3225
F49
sVcondition,
p3226
F6
sVadores
p3227
F1
sVadorer
p3228
F1
sVabove,
p3229
F1
sVcondition;
p3230
F2
sVenchantments
p3231
F1
sVthose,
p3232
F1
sVlive!
p3233
F1
sVsprung.
p3234
F1
sVlive,
p3235
F2
sVdeserves.
p3236
F1
sVwhatever
p3237
F15
sVtedious,
p3238
F1
sVvessel
p3239
F1
sValong
p3240
F1
sVdescribed
p3241
F1
sVmasts,
p3242
F1
sVexert
p3243
F1
sVdescribes
p3244
F1
sVdamn
p3245
F1
sVkisses,
p3246
F1
sVcollected
p3247
F1
sVdisquiet:
p3248
F1
sVchariot;
p3249
F1
sVlived
p3250
F5
sVmanner:
p3251
F13
sVsuccess.
p3252
F1
sVlike,
p3253
F1
sVexempt
p3254
F1
sVelse
p3255
F7
sVsuccess;
p3256
F1
sVmanner,
p3257
F6
sVdetermination
p3258
F1
sVbidding
p3259
F4
sVmanner!
p3260
F1
sVrelation's
p3261
F1
sVdelight,
p3262
F1
sVdelight.
p3263
F1
sVutmost
p3264
F18
sVinspiring.
p3265
F1
sVoblig'd.
p3266
F1
sVgovernor
p3267
F1
sVi,)
p3268
F3
sVopportunity;
p3269
F2
sVvengeance:
p3270
F1
sVeclips'd,
p3271
F1
sVdescribe:
p3272
F1
sVguide
p3273
F1
sVi!
p3274
F1
sVwell-acted
p3275
F1
sVuse,
p3276
F2
sVuncapable.
p3277
F1
sVconfound
p3278
F1
sVready
p3279
F13
sVrising.
p3280
F1
sVgrant
p3281
F7
sVordinary.
p3282
F1
sVgrand
p3283
F2
sVobtain'd
p3284
F4
sVcovetous
p3285
F1
sVused
p3286
F4
sVread,
p3287
F1
sVcensure
p3288
F1
sVspiritless,
p3289
F1
sVdecency
p3290
F3
sVolder
p3291
F1
sVleaves,
p3292
F2
sVfelicity,
p3293
F2
sVsoul-enchanting
p3294
F1
sVexploits
p3295
F1
sVbearer
p3296
F2
sVflatter'd
p3297
F5
sVguilty;
p3298
F2
sV(because
p3299
F1
sVdissimulation
p3300
F2
sVconjured
p3301
F2
sVviolently)
p3302
F1
sVplausible,
p3303
F1
sVee,
p3304
F1
sVremaining
p3305
F1
sVcapacities
p3306
F1
sVsharers
p3307
F1
sVdischarg'd,
p3308
F1
sVlonger:
p3309
F1
sVbreach,
p3310
F1
sVdearly
p3311
F1
sVjudgment,
p3312
F4
sVdistance,
p3313
F3
sVbaseness
p3314
F4
sVnever-to-be-forgotten
p3315
F1
sVstagnate
p3316
F1
sVresorted
p3317
F1
sVenervate,
p3318
F1
sVdonna
p3319
F9
sVsoftness
p3320
F5
sVlast,
p3321
F11
sVsome
p3322
F143
sVlips
p3323
F3
sVbesides.
p3324
F1
sVbesides,
p3325
F7
sVlast;
p3326
F1
sVdelivered
p3327
F1
sVwell-dress'd
p3328
F1
sVwarnings
p3329
F1
sVexceeding
p3330
F5
sVjoy-mingled
p3331
F1
sVprovidence
p3332
F2
sVdeliverer
p3333
F1
sV\u005c----at
p3334
F1
sVchargin
p3335
F1
sVcomplaisance,
p3336
F1
sVwhere,----where
p3337
F1
sVrun
p3338
F10
sVuniverse,
p3339
F1
sV\u005c----as
p3340
F1
sVfather,
p3341
F16
sVemploy'd.
p3342
F1
sVancestors
p3343
F1
sVshine
p3344
F2
sVforget,
p3345
F2
sVshewing
p3346
F2
sVdecrees,
p3347
F1
sVeraz'd
p3348
F1
sVhush'd
p3349
F1
sVtroublesome,
p3350
F2
sVsilence
p3351
F3
sVseeing
p3352
F10
sVwhisper'd
p3353
F1
sVwithin
p3354
F6
sVbrought,
p3355
F2
sVplacing
p3356
F1
sVforces;
p3357
F1
sVconsultation
p3358
F1
sV\u005c----your
p3359
F1
sVconfessing
p3360
F1
sVhimself
p3361
F32
sValive
p3362
F2
sVnewer
p3363
F1
sVdull
p3364
F3
sVmiracle,
p3365
F1
sVpersisting
p3366
F1
sVbe,---
p3367
F1
sVlimpid
p3368
F1
sVcommiseration
p3369
F1
sVprinciples,
p3370
F1
sVaccustomed
p3371
F2
sVnecessity!
p3372
F1
sVenvenom'd
p3373
F1
sVnecessity,
p3374
F1
sVinsipid,
p3375
F1
sVconvey
p3376
F1
sVdistracted.
p3377
F1
sVvisit,
p3378
F2
sVsmile,
p3379
F2
sVrequire.
p3380
F1
sVrequire,
p3381
F1
sVfears
p3382
F4
sVcondescension
p3383
F2
sVthemselves)
p3384
F1
sVenquired
p3385
F1
sVsmiling)
p3386
F1
sVthemselves,
p3387
F5
sVsmiles
p3388
F4
sVdraw
p3389
F3
sVbodies,
p3390
F1
sVdeclar'd
p3391
F2
sVear;---for
p3392
F1
sVresign
p3393
F2
sVdrag
p3394
F2
sVsudden,
p3395
F1
sVinterrogatories;
p3396
F1
sVformal
p3397
F1
sVresistance;
p3398
F1
sVindissoluble
p3399
F1
sVrequired
p3400
F3
sVresolving
p3401
F3
sVshe'd
p3402
F1
sVfear,
p3403
F3
sVwhiteness,
p3404
F1
sVlying
p3405
F4
sVenquire,
p3406
F1
sVhere:----pledge
p3407
F1
sVblessing,
p3408
F5
sVart:---
p3409
F1
sVnuns
p3410
F2
sVgo
p3411
F26
sVruminate
p3412
F1
sVcomfort,
p3413
F3
sVcomfort.
p3414
F1
sVcompliance;
p3415
F1
sVway.----
p3416
F1
sVfriendly
p3417
F2
sVgravely)
p3418
F1
sVflinging
p3419
F1
sVkindles
p3420
F1
sVmore?
p3421
F1
sVprudence
p3422
F1
sVmore:
p3423
F1
sVmore;
p3424
F2
sVfelicity
p3425
F7
sVmore,
p3426
F20
sVmore.
p3427
F5
sV\u005c---fool
p3428
F1
sV\u005c----pity
p3429
F1
sVrecollected
p3430
F2
sVbarbary
p3431
F6
sVcompassionate
p3432
F2
sV\u005c----can
p3433
F2
sVcannot,---must
p3434
F1
sVverdict
p3435
F1
sVenforce
p3436
F1
sVlived,
p3437
F1
sVthence,
p3438
F1
sVthence.
p3439
F1
sVdecreed
p3440
F4
sVardent
p3441
F3
sVindissoluble,
p3442
F1
sVmelancholy
p3443
F7
sVdecree,
p3444
F2
sVfelt,---'twould
p3445
F1
sVcompensate.
p3446
F1
sVfollowing
p3447
F1
sVdid,---
p3448
F1
sVdiscover'd
p3449
F11
sVgenerous,
p3450
F1
sVconvert
p3451
F2
sVchagrin,)
p3452
F1
sVmystery,
p3453
F1
sVabdomar
p3454
F32
sVrepel
p3455
F5
sVnameless
p3456
F3
sVcommendable
p3457
F1
sVexamining
p3458
F2
sVpreferr'd
p3459
F2
sVaddresses
p3460
F2
sVdanger
p3461
F13
sVwin
p3462
F2
sVabdomar:
p3463
F1
sVabdomar;
p3464
F2
sVhappen'd,
p3465
F4
sVwit
p3466
F5
sVdeny!
p3467
F1
sVabdomar.
p3468
F4
sVdistinguish,
p3469
F1
sVabdomar,
p3470
F26
sVdistinguish.
p3471
F1
sVabdomar)
p3472
F2
sVagreeably
p3473
F1
sVremains
p3474
F1
sVservant,
p3475
F4
sVmoorish
p3476
F1
sVservant.
p3477
F1
sV\u005c----some
p3478
F1
sVmix'd
p3479
F3
sVcontentment
p3480
F4
sVagreeable
p3481
F8
sVnoisy
p3482
F1
sVservant;
p3483
F1
sVcheeks
p3484
F1
sVimagin'd;
p3485
F1
sVwith;
p3486
F1
sVappear'd
p3487
F15
sVstarted
p3488
F3
sVimportunities
p3489
F1
sVtestified
p3490
F7
sVcharming
p3491
F5
sVimagin'd.
p3492
F1
sVimagin'd,
p3493
F1
sVtransports?
p3494
F1
sVviolent.
p3495
F1
sVviolent,
p3496
F2
sVappointed
p3497
F12
sVwhene'er
p3498
F1
sVmeek
p3499
F1
sVforc'd
p3500
F3
sVirreparable
p3501
F1
sVservants
p3502
F9
sVmeet
p3503
F9
sVmiramont.
p3504
F1
sVheard,
p3505
F3
sVfar,
p3506
F2
sVdeed;----in
p3507
F1
sVescaped
p3508
F1
sVsought
p3509
F1
sVwonderful
p3510
F1
sVcomprehend:
p3511
F2
sVundeceive
p3512
F1
sVhesitate
p3513
F2
sVfavourite.
p3514
F1
sVstole
p3515
F1
sVpray,
p3516
F1
sVsentiments
p3517
F14
sVferdinand
p3518
F22
sVprisoner's
p3519
F1
sVstreams,
p3520
F1
sValledg'd;
p3521
F1
sVescape?
p3522
F1
sVimagine
p3523
F18
sVescape;
p3524
F1
sV\u005c----but,
p3525
F3
sVfatigue
p3526
F3
sVcourage,
p3527
F1
sVinnocent;
p3528
F1
sVdespair?
p3529
F1
sVheaven:
p3530
F1
sVdespair:
p3531
F1
sVdespair;
p3532
F1
sV\u005c----oh!
p3533
F2
sVdespair,
p3534
F6
sVdespair.
p3535
F2
sVartifices;
p3536
F1
sVbathing
p3537
F1
sVhand,
p3538
F7
sVsweet,
p3539
F1
sVoffences
p3540
F2
sVaffectation,
p3541
F1
sVthence
p3542
F1
sVshewed
p3543
F1
sVask'd;
p3544
F1
sVgallantry!---all
p3545
F1
sVhappily;---for
p3546
F1
sVmaster,
p3547
F4
sVmaster.
p3548
F1
sVbless'd
p3549
F7
sVoffence,
p3550
F1
sVsweets
p3551
F1
sVhands
p3552
F5
sVrevealed.
p3553
F1
sVvineyards;
p3554
F1
sVuninterr'd,
p3555
F1
sVit!----ruin'd
p3556
F1
sVsoftnesses,----those
p3557
F1
sVcrossing
p3558
F1
sVwretched.
p3559
F1
sVwretched,
p3560
F2
sVprevailing
p3561
F1
sVscorn!---
p3562
F1
sV(the
p3563
F1
sVills
p3564
F1
sVsegonadica.
p3565
F1
sVpoisoner
p3566
F1
sVhereafter.----
p3567
F1
sVseparating
p3568
F1
sVwine.
p3569
F1
sVgallant
p3570
F1
sVtime:
p3571
F1
sVtime;
p3572
F3
sVconfess
p3573
F10
sVunlawful
p3574
F1
sVtime,
p3575
F20
sVtime.
p3576
F1
sVoppos'd
p3577
F2
sVcause
p3578
F22
sV\u005c----why
p3579
F1
sVreceived:
p3580
F1
sVundo
p3581
F1
sVill,
p3582
F2
sVfellow-travellers
p3583
F1
sVprincess
p3584
F15
sVresumed
p3585
F2
sVstain:----but
p3586
F1
sVdetermining
p3587
F1
sVgalling
p3588
F1
sVkeep
p3589
F6
sVo'erpowering
p3590
F1
sVdiminishes
p3591
F1
sVmankind
p3592
F2
sVglories
p3593
F1
sVferdinand's
p3594
F2
sVsoft'ning
p3595
F1
sVdelay'd
p3596
F2
sVpowerful
p3597
F2
sVpretendest
p3598
F1
sVprince;
p3599
F1
sVdate
p3600
F1
sVcity.
p3601
F1
sVquality
p3602
F9
sVlong
p3603
F36
sVbe.
p3604
F1
sVbe,
p3605
F8
sVrubies,
p3606
F1
sVbe;
p3607
F3
sVflashing,
p3608
F1
sVassent.
p3609
F1
sVperfectly
p3610
F10
sVprone
p3611
F1
sVdisagreeable
p3612
F1
sVbravery:----blest
p3613
F1
sVpunish
p3614
F1
sVless,
p3615
F1
sVsucceed:
p3616
F1
sVformalities
p3617
F1
sVplace,
p3618
F5
sVherself
p3619
F70
sVnature,---'tis
p3620
F1
sVrelation?
p3621
F1
sVrelation;
p3622
F1
sVbed
p3623
F3
sVclaim
p3624
F1
sVrelation,
p3625
F2
sVlasted,
p3626
F1
sVconfirm'd
p3627
F3
sVbare
p3628
F2
sVcuriosity,
p3629
F2
sVcry'd
p3630
F11
sVheighten'd
p3631
F1
sVenforced
p3632
F1
sVmulyzeden
p3633
F20
sVlightly
p3634
F2
sVindignation,)
p3635
F1
sVyielding
p3636
F2
sVtaint.
p3637
F1
sVbuy
p3638
F1
sVtorment
p3639
F2
sVneed
p3640
F10
sVassurances
p3641
F5
sVable
p3642
F23
sVproceeding,
p3643
F2
sVcausing,---to
p3644
F1
sVconsequence,
p3645
F1
sVhorror!
p3646
F1
sVassurance,
p3647
F2
sVpassionately
p3648
F2
sVhorror)
p3649
F1
sVhorror.
p3650
F1
sVtransform'd
p3651
F1
sVhorror,
p3652
F5
sVintentions
p3653
F5
sVungrateful,
p3654
F2
sVbut
p3655
F499
sVtall
p3656
F1
sVawe
p3657
F1
sVtoo-late
p3658
F1
sVhorror?
p3659
F1
sVconsequences
p3660
F1
sVdominions,
p3661
F1
sVredeem'd;
p3662
F1
sVpenitent
p3663
F1
sVstaid,
p3664
F1
sVenjoyments
p3665
F1
sVafforded.
p3666
F1
sVafforded,
p3667
F1
sVdwelling,
p3668
F2
sVviolation
p3669
F1
sVback:----i
p3670
F1
sVsoldiers
p3671
F1
sVarrived.
p3672
F1
sVenvy
p3673
F1
sVuntimely
p3674
F1
sVtire
p3675
F2
sV(
F5
sVrash
p3676
F3
sVunsuccessful,
p3677
F1
sVemployed
p3678
F1
sVaccommpany'd
p3679
F1
sVinterested
p3680
F6
sVgratify
p3681
F3
sVdoubting
p3682
F5
sVpass:
p3683
F1
sVseizing
p3684
F1
sVbrother's,
p3685
F1
sVpass,
p3686
F1
sVamazement,
p3687
F1
sVprobably
p3688
F4
sVchristians,
p3689
F1
sVdishonour;
p3690
F1
sVgray
p3691
F1
sVintroduc'd.
p3692
F1
sVhad,
p3693
F7
sVintroduc'd,
p3694
F1
sVimperious
p3695
F1
sVbase,
p3696
F2
sVknees,)
p3697
F1
sVincapacity
p3698
F1
sVdishonour.
p3699
F1
sVcontain
p3700
F2
sVconduct
p3701
F4
sVbase?
p3702
F1
sVaccuses
p3703
F1
sVprayers
p3704
F1
sVshake
p3705
F1
sVutmost,
p3706
F1
sVobey'd
p3707
F1
sVfictitious
p3708
F1
sVthreaten'd;
p3709
F2
sVdesperate
p3710
F4
sVoperated
p3711
F1
sVspare,
p3712
F1
sVjoys
p3713
F4
sVinspir'd
p3714
F6
sVmind,
p3715
F3
sVstate
p3716
F3
sVmind.
p3717
F2
sVcorrectly
p3718
F1
sVhorrible
p3719
F1
sVneither
p3720
F20
sV(though
p3721
F1
sVfill'd
p3722
F7
sVsole
p3723
F2
sVpowers,
p3724
F1
sVfreedoms,
p3725
F1
sVkey
p3726
F2
sVprecious
p3727
F2
sVchiefest
p3728
F1
sVdays.
p3729
F2
sVsuffer'd.
p3730
F1
sVwish'd:---
p3731
F1
sVassignation,
p3732
F3
sVadmit
p3733
F2
sVsea-port
p3734
F1
sVjoy,
p3735
F4
sVty'd
p3736
F1
sVassignation;
p3737
F1
sVtogether;
p3738
F3
sVtorn
p3739
F2
sVbearing
p3740
F1
sVsway'd
p3741
F1
sVsense!
p3742
F1
sVtogether.
p3743
F3
sVtogether,
p3744
F6
sVrepresented,
p3745
F3
sVsense,
p3746
F1
sVquit
p3747
F9
sVaccomplishing
p3748
F1
sVdar'd?---what
p3749
F1
sVview,
p3750
F2
sVown,
p3751
F4
sVconjurations
p3752
F1
sVown.
p3753
F5
sVdeaths
p3754
F1
sVcowards
p3755
F1
sVtreat
p3756
F2
sVpoet
p3757
F1
sVown:
p3758
F2
sVown;
p3759
F1
sVmisfortunes,
p3760
F3
sVking,
p3761
F5
sVproceeded,
p3762
F1
sVcogitations
p3763
F1
sVswoon'd,
p3764
F1
sVking;
p3765
F1
sVwill;
p3766
F1
sVwill:
p3767
F1
sVcoward.
p3768
F1
sVaccompany'd
p3769
F7
sVlearn'd
p3770
F1
sVperfidiousness
p3771
F2
sVwill,
p3772
F3
sVowns
p3773
F1
sVwill!
p3774
F1
sVinstantly
p3775
F2
sVname,)
p3776
F1
sVexaminer
p3777
F1
sVsea-side.
p3778
F1
sVappearance,
p3779
F2
sVanguish:
p3780
F1
sVbegan
p3781
F24
sVstrange
p3782
F3
sVanguish,
p3783
F1
sVparty
p3784
F2
sVsuppos'd
p3785
F1
sVguards,
p3786
F2
sVplain-dealing.
p3787
F1
sVeffect
p3788
F7
sVfierce
p3789
F2
sVfrequently
p3790
F4
sVexamine,
p3791
F1
sVhowever,
p3792
F18
sVcomet,
p3793
F1
sVdestruction
p3794
F2
sVpart!
p3795
F1
sVreflection
p3796
F6
sVi
F813
sVobstacles
p3797
F1
sVpart,
p3798
F8
sVpart.
p3799
F2
sVamends
p3800
F1
sVpart:
p3801
F1
sVpart;
p3802
F2
sVforfeited,
p3803
F1
sVrestore
p3804
F1
sVmyself,----my
p3805
F1
sVinsinuating
p3806
F1
sVmistaken
p3807
F4
sVdose
p3808
F1
sVdistant
p3809
F9
sVidalia's,
p3810
F1
sVtenderness,
p3811
F6
sVskill
p3812
F3
sVdost
p3813
F3
sVgrappling
p3814
F1
sVknowing;
p3815
F1
sVdeprived
p3816
F4
sVknowing,
p3817
F1
sVlured
p3818
F1
sVunhappy;----think
p3819
F1
sVsweet
p3820
F2
sVwandring
p3821
F1
sVindignation
p3822
F10
sVshar'd
p3823
F1
sVample
p3824
F1
sVwore,
p3825
F1
sVmistake,
p3826
F1
sVmistake.
p3827
F1
sVunseen
p3828
F1
sVimmediately
p3829
F45
sVamply
p3830
F1
sVcharacter:----he
p3831
F1
sVwore;
p3832
F1
sVloss
p3833
F12
sVnecessary
p3834
F9
sVlost
p3835
F11
sVsuspicions;
p3836
F1
sVring
p3837
F1
sVrenegado
p3838
F1
sVinclinations;----yet
p3839
F1
sVextinguish.
p3840
F1
sVlose
p3841
F8
sVsentences,
p3842
F2
sVpage
p3843
F2
sVstranger's
p3844
F1
sVglare
p3845
F1
sVhe.)
p3846
F1
sVlimitation;
p3847
F1
sVmotive
p3848
F3
sVshew
p3849
F1
sVdeliverance
p3850
F2
sVhome
p3851
F3
sVliking
p3852
F1
sVproofs
p3853
F2
sVretirement.
p3854
F1
sVbefore,
p3855
F10
sVbefore.
p3856
F2
sVheaven's
p3857
F3
sVdreadful!
p3858
F1
sVin:
p3859
F2
sVmadam,
p3860
F26
sVbroad
p3861
F1
sVmadam!
p3862
F2
sVdraught
p3863
F1
sVbefore:
p3864
F1
sVafrighted
p3865
F1
sVhinder
p3866
F2
sVproof,
p3867
F2
sVproof.
p3868
F2
sVshe.
p3869
F1
sVshe,
p3870
F55
sVretir'd
p3871
F1
sVshe)
p3872
F2
sVtalk,
p3873
F1
sVshe;
p3874
F1
sVwrong'd,
p3875
F1
sVhemm'd
p3876
F1
sVfreedom
p3877
F3
sVcommission'd
p3878
F1
sVchance
p3879
F4
sVoversway'd
p3880
F1
sVtongue
p3881
F3
sVproceed;
p3882
F1
sVequally
p3883
F1
sVunprepossessed,
p3884
F1
sVcourt,
p3885
F4
sVtaper,
p3886
F1
sVtimes,
p3887
F3
sVindisposition,
p3888
F2
sVgoal:
p3889
F1
sVcourt;
p3890
F1
sVdoubtless
p3891
F5
sVindisposition.
p3892
F1
sVstill;
p3893
F1
sVinconstancy
p3894
F1
sVonce.----
p3895
F1
sVdelusions
p3896
F1
sVmulyzeden's
p3897
F4
sVally'd
p3898
F1
sVghost
p3899
F1
sVtread,
p3900
F1
sVrioted
p3901
F1
sVher:----
p3902
F1
sVtapers
p3903
F1
sVgain
p3904
F2
sVhours,)
p3905
F1
sVdischarg'd
p3906
F1
sVhighest
p3907
F8
sVeat
p3908
F1
sVhe
p3909
F661
sVlanguishments,
p3910
F2
sVartfully,
p3911
F1
sVmyrtano
p3912
F30
sVtherefore,
p3913
F4
sVnotice;
p3914
F1
sVcruel
p3915
F9
sVconverted
p3916
F1
sVlimit
p3917
F1
sV\u005c----sometimes,
p3918
F1
sVeyes!
p3919
F1
sVeyes.
p3920
F1
sVpiece
p3921
F4
sVfriend.
p3922
F2
sVfriend,
p3923
F7
sVsavila:
p3924
F1
sVartless,
p3925
F1
sVfriend!
p3926
F1
sVsavila,
p3927
F1
sVbeats
p3928
F1
sVeducation
p3929
F2
sVmanner;
p3930
F3
sVfillar
p3931
F1
sVingredients
p3932
F2
sVwind-bent,
p3933
F1
sVperdition
p3934
F1
sVyours,
p3935
F4
sVstar
p3936
F3
sVstay
p3937
F4
sVmethinks
p3938
F1
sVstab
p3939
F1
sVdeter
p3940
F1
sVfriends
p3941
F2
sVmanner.
p3942
F2
sVshuns
p3943
F1
sVaccidents
p3944
F1
sVferdinand;
p3945
F4
sVferdinand:
p3946
F1
sVportion
p3947
F4
sVferdinand.
p3948
F5
sVferdinand,
p3949
F14
sVrobbers:
p3950
F1
sVdeservest
p3951
F1
sVpardon
p3952
F14
sVbetter,
p3953
F2
sVungovern'd
p3954
F1
sVexpence
p3955
F3
sVprotest
p3956
F2
sVrobbers,
p3957
F1
sVconsists
p3958
F1
sVflorence,
p3959
F1
sVcaptain
p3960
F2
sV(which
p3961
F1
sVwas,)
p3962
F1
sVskill;
p3963
F1
sVwhose
p3964
F37
sVup,
p3965
F4
sVsolliciting
p3966
F2
sVaud
p3967
F1
sVodious;
p3968
F1
sVpardon.
p3969
F1
sVodious,
p3970
F1
sVlongings;
p3971
F1
sVcatch'd
p3972
F2
sVforbore,
p3973
F2
sVsorry
p3974
F1
sVsway
p3975
F1
sVotherwise,
p3976
F1
sVotherwise.
p3977
F1
sVglorious,
p3978
F1
sVglorious!
p3979
F2
sVhadst
p3980
F1
sVprobabability,
p3981
F1
sVpowder,
p3982
F1
sVagitations
p3983
F3
sVaffairs,
p3984
F4
sVgovern
p3985
F1
sVoblig'd,
p3986
F3
sVvast
p3987
F6
sVlook
p3988
F18
sVcompanies
p3989
F1
sVpresent.
p3990
F1
sVpresent,
p3991
F4
sVpresent;
p3992
F1
sVattendants,
p3993
F3
sVgraces
p3994
F1
sVclothes
p3995
F2
sVfavoured
p3996
F1
sVbeauty,
p3997
F9
sVforce
p3998
F27
sVme,
p3999
F96
sVme.
p4000
F14
sVme)
p4001
F1
sVlikely
p4002
F3
sVcauseless
p4003
F1
sVme?
p4004
F5
sVme;
p4005
F6
sVme:
p4006
F7
sVeven
p4007
F22
sVexpress'd,
p4008
F2
sVne'er
p4009
F2
sVwreck
p4010
F2
sVdesirous
p4011
F3
sVwhile
p4012
F43
sVgold,
p4013
F2
sVlights
p4014
F1
sVexpress'd;
p4015
F1
sVexpress'd:
p4016
F1
sVnew
p4017
F12
sVever
p4018
F57
sVstrongly,
p4019
F1
sVretir'd,
p4020
F1
sVnever
p4021
F81
sVdrew
p4022
F3
sVchirurgeons,
p4023
F1
sVmet
p4024
F11
sVresolution:
p4025
F1
sVlandlord,
p4026
F1
sVbeloved;
p4027
F1
sVbills,
p4028
F1
sVapprehended,
p4029
F1
sVharden'd
p4030
F2
sVdeaths,
p4031
F1
sVp.
p4032
F5
sVcheck'd
p4033
F1
sVcredit
p4034
F3
sVbeloved.
p4035
F1
sVpermit
p4036
F12
sVheighten'd,
p4037
F1
sVsuitable
p4038
F8
sVremember'd
p4039
F1
sVelude
p4040
F1
sVgod-like
p4041
F1
sVexception,
p4042
F1
sVarms
p4043
F3
sVcall
p4044
F8
sVcalm
p4045
F2
sVrecommend
p4046
F2
sVinterruption
p4047
F1
sVright.
p4048
F1
sVsacred,
p4049
F1
sVliv'd
p4050
F4
sVguest,
p4051
F2
sVwarm
p4052
F2
sVfrenzy
p4053
F1
sVward
p4054
F2
sVguest:
p4055
F1
sVremain'd
p4056
F3
sVroom
p4057
F16
sVmajesty,
p4058
F1
sVadjur'd
p4059
F1
sVi;)
p4060
F1
sVroof
p4061
F2
sVfolly,----each
p4062
F1
sVarm,
p4063
F1
sVroot
p4064
F1
sVendured?
p4065
F1
sVdefer
p4066
F2
sVserv'd
p4067
F3
sVgive
p4068
F46
sVassent
p4069
F1
sVendured.
p4070
F1
sVendured,
p4071
F2
sV\u005c----'tis
p4072
F2
sVdegenerate
p4073
F1
sVarrive,
p4074
F1
sVfaults
p4075
F5
sVamazing
p4076
F1
sVhell!---it
p4077
F1
sVanswer
p4078
F20
sVaboard
p4079
F1
sVoblig'd
p4080
F23
sVreconciled
p4081
F2
sVindignity
p4082
F2
sVvicious
p4083
F1
sVperceiving,
p4084
F5
sVcuriosity
p4085
F8
sVador'd.
p4086
F1
sVpurchase
p4087
F1
sVexecrable
p4088
F1
sVattempt
p4089
F3
sVthird
p4090
F1
sVembitter'd
p4091
F1
sVcomplaining.
p4092
F1
sVfault,
p4093
F1
sVmisconstruing,
p4094
F1
sVstill,
p4095
F1
sVstill.
p4096
F1
sVmaintain
p4097
F2
sVunperceiv'd
p4098
F3
sVsoftest,
p4099
F1
sVhat,
p4100
F1
sVforesaw
p4101
F1
sVdown:
p4102
F1
sVwedlock,
p4103
F1
sVbefall
p4104
F1
sVdown,
p4105
F5
sVsaving
p4106
F1
sVbefore
p4107
F68
sVindispensible
p4108
F1
sVthen,
p4109
F10
sVbetter
p4110
F11
sVpersist
p4111
F1
sVweeks
p4112
F1
sVovercome
p4113
F5
sVweakness
p4114
F2
sVwithin,
p4115
F1
sVindulge
p4116
F5
sVslack'ning,
p4117
F1
sVbrightness
p4118
F1
sVweek;
p4119
F1
sVwent
p4120
F24
sVhigher
p4121
F4
sVside
p4122
F2
sVmean
p4123
F8
sVafforded
p4124
F6
sVprinciples
p4125
F1
sVtaught
p4126
F3
sV\u005c---that
p4127
F1
sVforgot
p4128
F3
sVaids
p4129
F1
sVseats,
p4130
F1
sVconspicuous.
p4131
F1
sVconjectures
p4132
F2
sV'em;
p4133
F1
sV'em:
p4134
F1
sVcontent
p4135
F2
sVreader
p4136
F2
sVsurprise
p4137
F9
sV'em.
p4138
F1
sV'em,
p4139
F4
sVprepar'd.
p4140
F1
sVmandate;
p4141
F1
sVassaults
p4142
F1
sVresume
p4143
F1
sVdeceived
p4144
F1
sVrevenge
p4145
F13
sVbestow
p4146
F3
sVmandate,
p4147
F1
sVstruggle
p4148
F2
sV(answered
p4149
F2
sVmistress
p4150
F12
sVunprepossess'd,
p4151
F1
sVme!----and
p4152
F1
sVconvent
p4153
F4
sVbegan,
p4154
F1
sVconjecture;
p4155
F1
sVprofessions
p4156
F2
sVmessages
p4157
F1
sVmoved.
p4158
F1
sVinflict;----but
p4159
F1
sVarrived
p4160
F1
sVloud
p4161
F2
sVconjecture,
p4162
F1
sVenraged
p4163
F2
sVfeatures
p4164
F1
sVtwitches
p4165
F1
sVobliged,
p4166
F1
sVcomforter
p4167
F1
sVhe,)
p4168
F9
sVdebase
p4169
F1
sVvain----i
p4170
F1
sVacquaint
p4171
F6
sVshoulders,
p4172
F2
sVtwisted
p4173
F1
sVapproach;
p4174
F1
sVapproach,
p4175
F2
sVbegin,
p4176
F1
sVlustre,
p4177
F2
sVexecution;
p4178
F1
sVoccasioned
p4179
F4
sVskill'd
p4180
F1
sVfloor.
p4181
F1
sVsomewhat
p4182
F2
sVme!----to
p4183
F1
sVrequisite
p4184
F1
sVpeculiar
p4185
F1
sVdistance
p4186
F3
sVbody,
p4187
F4
sVsolemnity
p4188
F1
sVenabled
p4189
F2
sVbitterness
p4190
F3
sVmatter
p4191
F5
sVdeserving
p4192
F1
sVespouse
p4193
F1
sVgirl!
p4194
F1
sVmind
p4195
F11
sVmine
p4196
F3
sVinjurious.
p4197
F1
sVseen
p4198
F22
sVseem
p4199
F12
sVsounding
p4200
F1
sVseek
p4201
F3
sVtells
p4202
F1
sVsensible,
p4203
F2
sVdo.
p4204
F1
sVmyrtano!----
p4205
F1
sVdo,
p4206
F15
sVpoint,
p4207
F1
sVdo;
p4208
F1
sVniece
p4209
F5
sVdesires,---
p4210
F1
sVexpedition.
p4211
F1
sVchange,
p4212
F2
sVexpedition;
p4213
F1
sVhide
p4214
F1
sVsee,
p4215
F4
sVusage,
p4216
F2
sVreliet;
p4217
F1
sVdon
p4218
F63
sVobservation
p4219
F5
sValarm
p4220
F5
sVme:----in
p4221
F1
sVobserved,
p4222
F1
sVdiscontent
p4223
F2
sVrapture
p4224
F3
sVdeliberated,
p4225
F1
sVretire
p4226
F6
sVuneasiness
p4227
F3
sVpoison
p4228
F2
sVstepping
p4229
F2
sVperswade
p4230
F10
sVjudges
p4231
F1
sVresisting
p4232
F2
sVingloriously
p4233
F1
sVdissolute
p4234
F1
sVfolded
p4235
F1
sVit:----what
p4236
F1
sVfield,
p4237
F1
sVear;
p4238
F1
sVlodg'd
p4239
F2
sVleave,
p4240
F2
sVthird,
p4241
F1
sVleave.
p4242
F2
sVstop
p4243
F2
sVattempt,
p4244
F4
sVattempt.
p4245
F1
sVadministred
p4246
F1
sVcomply
p4247
F1
sVassurances,
p4248
F1
sVtravelled;
p4249
F1
sVfields
p4250
F1
sVsearch'd,
p4251
F2
sVhenriquez
p4252
F25
sVjudge!
p4253
F1
sVbad
p4254
F1
sVpreserv'd
p4255
F1
sVrival
p4256
F4
sVshatter'd
p4257
F1
sVunworthy
p4258
F7
sVherself,)
p4259
F1
sVwear;
p4260
F2
sVvow,
p4261
F3
sVwear,
p4262
F3
sVvented
p4263
F3
sVsinks
p4264
F1
sVvoyage
p4265
F1
sVsaid
p4266
F59
sVstairs,
p4267
F2
sVsail
p4268
F1
sVthere's
p4269
F3
sVsorts
p4270
F1
sVridicul'd!
p4271
F1
sValteration;
p4272
F2
sVvows
p4273
F12
sVignorance
p4274
F1
sVweary
p4275
F4
sVservant-maid
p4276
F1
sVsuggested
p4277
F1
sVfalsly
p4278
F1
sVuncertainty
p4279
F3
sVagainst
p4280
F28
sVperplexed,
p4281
F1
sVcolour'd
p4282
F1
sVappeared
p4283
F11
sVaddressing
p4284
F1
sVheight
p4285
F5
sVinquisitive
p4286
F1
sVfaults;
p4287
F1
sVloaded
p4288
F4
sVdiminish'd,
p4289
F1
sVnow,
p4290
F4
sVvows.
p4291
F1
sVproceeded
p4292
F3
sVmurder.
p4293
F1
sVproportionable
p4294
F1
sVthree
p4295
F9
sVparticulars
p4296
F6
sVme;----the
p4297
F1
sVvillany
p4298
F3
sVinterest
p4299
F11
sVvows;
p4300
F1
sVlovely
p4301
F21
sVthrew
p4302
F7
sVpromis'd,
p4303
F1
sV(to
p4304
F2
sVsuppress
p4305
F1
sVfriendless,
p4306
F1
sVoffering,
p4307
F1
sValley
p4308
F1
sVregretted
p4309
F1
sVexception
p4310
F1
sVcannot,----must
p4311
F1
sVferdinand's:
p4312
F1
sVnear
p4313
F23
sVsuppose
p4314
F2
sVmurders
p4315
F1
sVthought-
p4316
F1
sVthought,
p4317
F8
sVseven
p4318
F1
sVthought.
p4319
F3
sVis
p4320
F152
sVit
p4321
F465
sVproportioned
p4322
F1
sVshame
p4323
F4
sVclinging
p4324
F2
sVjest
p4325
F1
sVin
p4326
F883
sVamour
p4327
F1
sVif
p4328
F149
sVgrown
p4329
F3
sVclaim,
p4330
F1
sVdelivering,
p4331
F1
sVmake
p4332
F96
sVaraidne's
p4333
F1
sVunfortunate
p4334
F7
sVentitled
p4335
F1
sVmeets
p4336
F1
sVcan.
p4337
F1
sVcan,
p4338
F2
sVdiffering
p4339
F1
sVdelight
p4340
F1
sVundaunted
p4341
F2
sVi,
p4342
F20
sVpopulace:----i
p4343
F1
sVjealous
p4344
F6
sVceas'd
p4345
F1
sVopportunity
p4346
F22
sVthoughts
p4347
F19
sVfailing
p4348
F1
sVapprobation
p4349
F3
sVrome
p4350
F5
sVqualities
p4351
F1
sVyours
p4352
F2
sVleft
p4353
F37
sVdream,
p4354
F1
sVfeet:
p4355
F1
sVperpetration
p4356
F1
sVfalshood
p4357
F3
sVsentence
p4358
F4
sVfeet,
p4359
F4
sVhuman
p4360
F2
sVyet
p4361
F54
sVextacy
p4362
F1
sVinfinitely
p4363
F24
sVregarded
p4364
F3
sVcharacter
p4365
F4
sVmoderation,
p4366
F1
sVarrival,
p4367
F1
sVlong-lost
p4368
F1
sVdefray
p4369
F2
sVsave
p4370
F3
sVye,
p4371
F1
sVfact,
p4372
F1
sVsailors
p4373
F1
sVauspicious
p4374
F1
sVreach'd
p4375
F3
sVvanity
p4376
F8
sV\u005c----believe
p4377
F1
sVdignity
p4378
F1
sVsatisfaction;
p4379
F1
sVpatience
p4380
F1
sVjustice,
p4381
F4
sVperforming
p4382
F1
sVmagistrate,
p4383
F1
sVwatry
p4384
F1
sVsatisfaction,
p4385
F3
sVsatisfaction.
p4386
F3
sVjustice?
p4387
F1
sVuncertainty,
p4388
F1
sVcoldness;
p4389
F1
sVdeal
p4390
F7
sVdeaf
p4391
F2
sVdead
p4392
F3
sVcoldness,
p4393
F2
sVcoldness.
p4394
F2
sVdear
p4395
F14
sVpain
p4396
F5
sVmeaning,
p4397
F1
sVtake,----thus
p4398
F1
sVreply.
p4399
F1
sVfix'd
p4400
F5
sVbarbarian.
p4401
F1
sVchrysolites,
p4402
F1
sVcontriv'd
p4403
F3
sVdiscord
p4404
F1
sVtold,
p4405
F2
sVconceal
p4406
F10
sVshew'd
p4407
F11
sVentertain'd
p4408
F2
sVhumour:---she
p4409
F1
sVfor.
p4410
F1
sVformerly
p4411
F5
sVfor,
p4412
F8
sVlow,
p4413
F1
sVcloyster-gardens:
p4414
F1
sVdown
p4415
F15
sVfor:
p4416
F1
sVfor?
p4417
F1
sVnarration
p4418
F1
sVworst,
p4419
F1
sVinsensibly,
p4420
F1
sV(since
p4421
F1
sVcontinuance,
p4422
F1
sVperish,
p4423
F1
sVflying
p4424
F1
sVjealousy
p4425
F8
sVprepared,
p4426
F1
sVvehemence
p4427
F4
sVcontinuance;
p4428
F1
sVcontinuance:
p4429
F1
sVstopp'd
p4430
F2
sVform
p4431
F12
sV\u005c----here,
p4432
F2
sVpermit,
p4433
F3
sVpowerfully
p4434
F1
sVwhat!
p4435
F1
sVmurderer:
p4436
F1
sVobsequies
p4437
F1
sVcontinuance
p4438
F4
sVsprigs
p4439
F1
sVunderstood
p4440
F1
sVtemper
p4441
F3
sVmonastick
p4442
F1
sVdie;
p4443
F1
sVdiscovery,
p4444
F1
sVexerting
p4445
F1
sVtost
p4446
F1
sVdiscovery;
p4447
F1
sVfinish'd
p4448
F3
sVdie,
p4449
F3
sVship
p4450
F5
sVhighrais'd
p4451
F1
sVmistaken;
p4452
F1
sVmistaken:
p4453
F1
sVsuspence
p4454
F1
sVleafless
p4455
F1
sVgenerally
p4456
F5
sVsomething,
p4457
F1
sVmistaken,
p4458
F2
sVtardy
p4459
F1
sVesteem:
p4460
F1
sVrack'd
p4461
F1
sVdies
p4462
F2
sVfelt
p4463
F16
sVextremest
p4464
F2
sVbarbary,
p4465
F5
sVbarbary.
p4466
F1
sVesteem.
p4467
F3
sVesteem,
p4468
F1
sVfell
p4469
F10
sVabettors
p4470
F1
sVaccent,)
p4471
F1
sVmagnificence
p4472
F2
sVbarbary;
p4473
F1
sVdied
p4474
F2
sVmeritorious,
p4475
F1
sVhappening
p4476
F7
sVapology
p4477
F1
sVblushing
p4478
F1
sVwords:----
p4479
F1
sVdaily
p4480
F6
sVjacket
p4481
F1
sVteeth
p4482
F1
sVparcels
p4483
F1
sVpassion's
p4484
F2
sVrevoke
p4485
F1
sVsenses,)
p4486
F1
sVrelieve
p4487
F3
sVsouls
p4488
F3
sVinvent
p4489
F2
sVshot
p4490
F1
sVpraises
p4491
F1
sVdisorders
p4492
F2
sVreader's
p4493
F1
sVswoon
p4494
F1
sVfather
p4495
F18
sVanswered
p4496
F7
sVsuffered
p4497
F3
sVoff.
p4498
F3
sVfancied
p4499
F3
sVabundance
p4500
F1
sVsoul;
p4501
F2
sVpalliated
p4502
F1
sVtheme,
p4503
F2
sVsoul.
p4504
F5
sVsoul,
p4505
F14
sVperswasions.
p4506
F1
sVsoul)
p4507
F1
sVtestimony,
p4508
F1
sVpious
p4509
F2
sVsoul!
p4510
F3
sVdim
p4511
F1
sVdid
p4512
F75
sVdie
p4513
F10
sVproposals
p4514
F1
sVeraze)
p4515
F1
sVexcellence
p4516
F1
sVbernardo's
p4517
F5
sVpraise,
p4518
F1
sVdisorder)
p4519
F1
sVround
p4520
F6
sVswimming,
p4521
F1
sVunexpected
p4522
F3
sVvilla
p4523
F3
sVzatilda,
p4524
F6
sVzatilda.
p4525
F1
sVfather;
p4526
F2
sVappetite.
p4527
F1
sVappetite,
p4528
F1
sVdisquiets
p4529
F1
sVsordid
p4530
F3
sVelse;
p4531
F1
sV\u005c----in
p4532
F2
sV\u005c----if
p4533
F2
sVfavour
p4534
F11
sVfillet
p4535
F2
sVhonse,
p4536
F1
sVsuspect
p4537
F2
sV\u005c----it
p4538
F3
sVproclaiming
p4539
F1
sVdisquiet,
p4540
F1
sVthither:
p4541
F1
sVdisquiet.
p4542
F1
sVunknowing
p4543
F1
sVdeceit
p4544
F1
sVthither,
p4545
F2
sVthither.
p4546
F1
sVwait
p4547
F7
sVboy
p4548
F1
sVemploy'd
p4549
F8
sVhere?
p4550
F1
sVdesired,
p4551
F1
sVshift
p4552
F2
sVbow
p4553
F2
sVgondula
p4554
F2
sVcountenance;)
p4555
F1
sVhere.
p4556
F3
sVhere,
p4557
F6
sVhere!
p4558
F1
sVshook
p4559
F1
sVhither
p4560
F1
sVother,)
p4561
F1
sVwithal
p4562
F3
sVguilty.
p4563
F1
sVsake
p4564
F7
sVstoops
p4565
F1
sVcustom;
p4566
F2
sVvisit
p4567
F10
sVvineyard
p4568
F1
sVpoison'd
p4569
F2
sVdone:----
p4570
F1
sVdextrously
p4571
F1
sVrepast
p4572
F1
sVlabyrinth
p4573
F1
sVacceptable
p4574
F1
sV----
p4575
F1
sV\u005c----prepare
p4576
F1
sVfly
p4577
F7
sVay,
p4578
F3
sVduellists.
p4579
F1
sVagitations,
p4580
F1
sVsoul
p4581
F30
sVoverheard
p4582
F1
sVgrowing
p4583
F5
sVmaking
p4584
F15
sVarrive
p4585
F1
sVnearest
p4586
F2
sVconfused
p4587
F1
sV---the
p4588
F1
sVremanded
p4589
F1
sVrush'd
p4590
F1
sVcontented:
p4591
F1
sVplanted;
p4592
F1
sVtill
p4593
F72
sVsword
p4594
F4
sVswore
p4595
F5
sVamiss,
p4596
F1
sVfailings,
p4597
F1
sVstaying
p4598
F1
sVmay
p4599
F56
sVlord;
p4600
F1
sVperfidy
p4601
F1
sVdesigned
p4602
F2
sVdestructive
p4603
F3
sVgrow
p4604
F5
sVlord,
p4605
F6
sVman
p4606
F34
sVomen
p4607
F1
sVundetermined.
p4608
F1
sVtale
p4609
F1
sVdeceive
p4610
F4
sVimagine,
p4611
F1
sVallay'd,
p4612
F1
sVtalk
p4613
F3
sVshield
p4614
F1
sVwishing
p4615
F2
sVview:
p4616
F1
sVcruel,
p4617
F1
sVview!
p4618
F1
sVcuts
p4619
F2
sVitself,)
p4620
F1
sVirresolute
p4621
F1
sVthank
p4622
F4
sVmaid
p4623
F2
sVmuch----
p4624
F1
sVlisting
p4625
F1
sVsooner
p4626
F9
sVboats
p4627
F2
sVdetestable,
p4628
F1
sVaccustom'd
p4629
F2
sVpossess
p4630
F2
sVkneel'd
p4631
F1
sVthan,
p4632
F1
sVbecoming,
p4633
F1
sVnuptials;----and
p4634
F1
sVarrows
p4635
F1
sVaware,
p4636
F1
sVdefensive,
p4637
F1
sVus'd
p4638
F6
sVproselyte,)
p4639
F1
sVor,
p4640
F4
sVshewn
p4641
F1
sVgirl
p4642
F2
sVrequesting
p4643
F1
sVcoldly;)
p4644
F1
sVliving
p4645
F5
sVyes,
p4646
F2
sVstorm,
p4647
F3
sVassurance
p4648
F3
sVearlier
p4649
F1
sVmonster
p4650
F2
sVrags;----these
p4651
F1
sVdemanding
p4652
F1
sVencreas'd.
p4653
F1
sVadvance
p4654
F1
sVlanguage
p4655
F2
sVdress'd
p4656
F3
sVcontented
p4657
F1
sVpaces,
p4658
F1
sVthing
p4659
F47
sVperplex'd,
p4660
F1
sVloretto
p4661
F1
sVsufferance
p4662
F1
sVthink
p4663
F35
sVwaited
p4664
F8
sVfirst
p4665
F44
sVsent,
p4666
F1
sVbut,
p4667
F20
sVfast
p4668
F10
sVsuspended
p4669
F1
sVcarry
p4670
F5
sVtransport,)
p4671
F1
sVamaz'd,)
p4672
F1
sVsingling
p4673
F1
sVlittle
p4674
F124
sVnot,----dare
p4675
F1
sVtestify'd
p4676
F2
sVtraytor's
p4677
F1
sVfiery
p4678
F1
sVpockets,
p4679
F1
sVtrembled,
p4680
F1
sVspeaking
p4681
F9
sVeyes
p4682
F21
sVsound,
p4683
F1
sVsound.
p4684
F1
sVembroider'd
p4685
F1
sVbelong'd
p4686
F1
sVvow'd
p4687
F1
sVformal,
p4688
F1
sVplain,
p4689
F1
sVsway'd,
p4690
F1
sVhasty
p4691
F1
sVprotected
p4692
F1
sVventure
p4693
F2
sVwere
p4694
F181
sVplain;
p4695
F1
sVgathering
p4696
F1
sVimprobability
p4697
F1
sVwinding
p4698
F1
sVspent,
p4699
F1
sVinviter,
p4700
F1
sVcoming,
p4701
F1
sVpadua,
p4702
F9
sVcoming.
p4703
F2
sVpadua.
p4704
F1
sVgratitude,
p4705
F3
sVrecover,
p4706
F1
sVanswering
p4707
F3
sVshocked
p4708
F1
sVcharming,
p4709
F2
sVcharming.
p4710
F1
sVwretch
p4711
F1
sVperformance
p4712
F4
sVflattered
p4713
F1
sVfops
p4714
F1
sVamiable
p4715
F1
sVverona
p4716
F1
sViii.
p4717
F1
sVpaid
p4718
F3
sVvoice,
p4719
F4
sVentreaty
p4720
F2
sVcomplaints
p4721
F2
sVsupremely
p4722
F1
sVvorseny.
p4723
F3
sVwoman's,
p4724
F1
sVconjur'd
p4725
F4
sVespecially
p4726
F11
sVsurprising
p4727
F4
sVthis----
p4728
F1
sValone;
p4729
F1
sVpernicious
p4730
F1
sVdeportment
p4731
F1
sValone,
p4732
F6
sVdenial,
p4733
F2
sVbegged
p4734
F1
sVcontract,
p4735
F1
sVcorner
p4736
F2
sVstormy
p4737
F2
sVman!
p4738
F2
sVtreasure
p4739
F1
sVbehind
p4740
F7
sVblack
p4741
F5
sVdishonourable
p4742
F1
sVget
p4743
F7
sVkiss'd
p4744
F2
sVexigence,
p4745
F1
sVnearly
p4746
F2
sVbeseech
p4747
F2
sVyield
p4748
F7
sVmorning
p4749
F9
sVmiles
p4750
F6
sVman.
p4751
F1
sVreproach'd
p4752
F1
sVcommunicated
p4753
F2
sVdeclared
p4754
F3
sVlethargy
p4755
F3
sVcloyster,
p4756
F1
sVseat
p4757
F1
sVwonder
p4758
F9
sVearnest,
p4759
F2
sVpatron,
p4760
F1
sVfather's
p4761
F20
sVmethought,
p4762
F1
sVenough
p4763
F41
sVdiamonds
p4764
F1
sVreading
p4765
F2
sVbetwen
p4766
F1
sVdeclare,
p4767
F1
sVdoing,
p4768
F1
sVkilling
p4769
F1
sVcountenance
p4770
F10
sVsea.
p4771
F1
sVsea,
p4772
F4
sVcontemplation,
p4773
F1
sVcontemplation:
p4774
F1
sVinto:----but
p4775
F1
sVaccording
p4776
F5
sVdisappointment
p4777
F4
sVguardians
p4778
F1
sVamong
p4779
F14
sVstretched
p4780
F1
sVdistracted,
p4781
F2
sVcomprehend
p4782
F2
sVlaudable
p4783
F1
sVpreserved;
p4784
F1
sVconsidering
p4785
F4
sVsensible
p4786
F19
sVunusual
p4787
F2
sVcounsell'd
p4788
F1
sV\u005c----earth
p4789
F1
sVcapable
p4790
F11
sVmark
p4791
F2
sVaimable
p4792
F1
sVjudging
p4793
F1
sVborders
p4794
F1
sVsensibly
p4795
F2
sVeducated
p4796
F1
sVnam'd
p4797
F2
sVoffered
p4798
F1
sVgrant,
p4799
F1
sVgrant.
p4800
F1
sVwake
p4801
F1
sVdeclaration
p4802
F4
sVthose
p4803
F84
sVincur'd
p4804
F1
sVsound
p4805
F4
sVstamp'd,
p4806
F1
sVresidence
p4807
F1
sVdestroy'd
p4808
F1
sVart,
p4809
F2
sVart.
p4810
F1
sVdevotees
p4811
F2
sVsincere
p4812
F5
sVsleeping
p4813
F1
sVstrain
p4814
F1
sVsudden
p4815
F14
sVadorers,
p4816
F1
sVchoicest
p4817
F4
sVreply'd
p4818
F3
sVwisely
p4819
F1
sVinadvertency
p4820
F2
sVsubdued;
p4821
F1
sVdifferent
p4822
F19
sVopposition;
p4823
F2
sVpay
p4824
F2
sVsame
p4825
F36
sVprevented
p4826
F15
sVarguments
p4827
F4
sVdeference
p4828
F1
sVstruggling
p4829
F2
sVtorments,
p4830
F1
sVbeen:
p4831
F1
sVreserv'd
p4832
F1
sVassist
p4833
F1
sVforgot;
p4834
F1
sVinventions,
p4835
F1
sVrunning
p4836
F7
sVsullen
p4837
F1
sVdeclarations,
p4838
F1
sVbeen,
p4839
F8
sVforgot.
p4840
F1
sVwaves,
p4841
F1
sVwaves.
p4842
F1
sV\u005c---no
p4843
F1
sVabsence;
p4844
F1
sVimagin'd:----
p4845
F1
sVabsence.
p4846
F1
sVcould;
p4847
F1
sVunexpected,
p4848
F2
sVmalicious
p4849
F1
sVstoutest
p4850
F1
sVbelow,
p4851
F1
sVapproach'd
p4852
F1
sVanguish:----
p4853
F1
sVapplication
p4854
F1
sVunkindness,
p4855
F1
sVabjur'd.
p4856
F1
sVdeceit,
p4857
F1
sVtook,
p4858
F2
sVdeceit.
p4859
F1
sVastonishment
p4860
F4
sVconducter;
p4861
F1
sVextensive
p4862
F2
sVconsented,
p4863
F1
sVunkindness;
p4864
F1
sVwife,
p4865
F14
sVwife.
p4866
F2
sVsight:
p4867
F1
sVgate:
p4868
F1
sVwife!
p4869
F2
sVsight,
p4870
F3
sVhugg'd
p4871
F1
sVwife:
p4872
F1
sVsecrecy
p4873
F3
sVaiming
p4874
F1
sVdisappointed
p4875
F8
sVfound,
p4876
F1
sVgranted,
p4877
F2
sVemeralds,
p4878
F1
sVchamber
p4879
F7
sVgranted;
p4880
F1
sVeither
p4881
F48
sVserved
p4882
F1
sVpassionate
p4883
F2
sV(answer'd
p4884
F7
sVafflict
p4885
F2
sVgoodness?
p4886
F1
sVdictator,
p4887
F1
sVimages
p4888
F1
sVtheirs,
p4889
F1
sVaddress'd
p4890
F3
sVincens'd
p4891
F1
sVstation;
p4892
F1
sVexpressing
p4893
F3
sVmoderate
p4894
F1
sVdisguises.
p4895
F1
sVarts
p4896
F1
sVdone:----but
p4897
F1
sVbroken
p4898
F4
sVpenitence
p4899
F2
sVpretended
p4900
F6
sVdiversions;
p4901
F1
sVcomplection,
p4902
F1
sVconducting
p4903
F1
sVunderstanding,
p4904
F1
sVroar
p4905
F2
sVviolence
p4906
F17
sVsustain
p4907
F1
sVprofess.
p4908
F1
sVmixed
p4909
F2
sVconcerns,
p4910
F1
sVout,
p4911
F13
sVroad
p4912
F2
sVallowing
p4913
F2
sVdagger
p4914
F2
sVconcerns.
p4915
F1
sVmorning:
p4916
F1
sVmorning;
p4917
F1
sVseiz'd
p4918
F6
sVstrike,
p4919
F1
sVlodging,
p4920
F1
sVblesses
p4921
F1
sVmorning,
p4922
F5
sVmorning.
p4923
F1
sVravish'd
p4924
F1
sVshells
p4925
F1
sVdistracted
p4926
F4
sVpretends
p4927
F1
sVgods!
p4928
F4
sVmotives
p4929
F1
sVblessings.
p4930
F1
sVclothes,
p4931
F4
sVstrikes
p4932
F1
sVstrife.
p4933
F1
sVweaker,
p4934
F1
sVescap'd
p4935
F1
sVclothes;
p4936
F2
sVland,
p4937
F3
sVwild,
p4938
F2
sVwild.
p4939
F1
sVbellraizia's
p4940
F3
sVfate!
p4941
F2
sVcurses,
p4942
F2
sVsailor's
p4943
F1
sVacquiesce,
p4944
F1
sVindisposition
p4945
F4
sVbrother's
p4946
F1
sVfate;
p4947
F1
sVaffection
p4948
F6
sVcurses;
p4949
F1
sVhated
p4950
F5
sVprincess;
p4951
F2
sVdeep
p4952
F3
sVgeneral
p4953
F3
sVimagination
p4954
F11
sVexamine
p4955
F2
sVlandlady:
p4956
F1
sVprincess!
p4957
F2
sVbegone,
p4958
F1
sVprincess,
p4959
F6
sVdeliverer,
p4960
F1
sVtedious
p4961
F1
sVagain
p4962
F10
sVretiring
p4963
F1
sVembraces;
p4964
F1
sVback,
p4965
F1
sVrepent
p4966
F1
sVabsence;----tho'
p4967
F1
sVfield
p4968
F1
sVunconnect
p4969
F1
sVembraces,
p4970
F1
sVsick,
p4971
F1
sVfruitless
p4972
F1
sVdeterr'd
p4973
F1
sVme:---or
p4974
F1
sVitself,
p4975
F1
sVorder'd
p4976
F9
sVdistinguishing.
p4977
F1
sVconsternation
p4978
F3
sVscroll
p4979
F1
sVstarting
p4980
F3
sVmeditating,
p4981
F1
sVrepresent
p4982
F5
sVsilent,
p4983
F4
sVforget
p4984
F3
sVvile
p4985
F4
sVlong-expected
p4986
F1
sVsunk
p4987
F2
sVexpressions
p4988
F5
sVallowances
p4989
F1
sVher;----and
p4990
F1
sVlaid
p4991
F4
sV'twill
p4992
F1
sV\u005c----but
p4993
F11
sVtranquillity
p4994
F1
sVdetain'd
p4995
F3
sVcrimsom
p4996
F1
sVsex's
p4997
F1
sVscorn,----driven
p4998
F1
sVexpression,
p4999
F1
sVreturning
p5000
F4
sVbosom,
p5001
F2
sVrascal,
p5002
F1
sVsun,
p5003
F1
sVfall
p5004
F9
sVdifference
p5005
F2
sVheedfully
p5006
F1
sVtrue,----that
p5007
F1
sVrouz'd
p5008
F2
sVme,---nor
p5009
F1
sV\u005c---there
p5010
F1
sVgay;
p5011
F1
sVadvanc'd
p5012
F1
sVwithheld
p5013
F1
sVquiet,
p5014
F1
sVcaus'd,
p5015
F2
sVfurther
p5016
F7
sVresidue
p5017
F1
sVdefence
p5018
F2
sVstood
p5019
F10
sVwish'd,
p5020
F1
sVprostrated
p5021
F1
sVtribute
p5022
F1
sVeverlasting
p5023
F5
sVcreature,
p5024
F1
sVbasely
p5025
F1
sVlightnings
p5026
F1
sVingratiate
p5027
F1
sVfavourable
p5028
F2
sVinconsiderable
p5029
F1
sVcreature:
p5030
F1
sVcreature;
p5031
F3
sVfeigning,
p5032
F1
sVmisfortunes,----
p5033
F1
sVsearch
p5034
F5
sVexhausted,
p5035
F2
sVbanished,
p5036
F2
sVdashing
p5037
F1
sVmisery
p5038
F5
sVunfelt,
p5039
F1
sVfeign,
p5040
F2
sVwhimsical
p5041
F1
sVapprehension,
p5042
F1
sVimagined;
p5043
F1
sVforcibly
p5044
F1
sVsanction
p5045
F1
sVimagined,
p5046
F1
sVapprehension;
p5047
F1
sVsuits
p5048
F1
sVimagined)
p5049
F2
sVlog,
p5050
F1
sVreadily
p5051
F3
sVlady,
p5052
F8
sVbear:----she
p5053
F1
sVeye
p5054
F9
sVtwo
p5055
F20
sVmisery:
p5056
F1
sVguard,
p5057
F1
sVlady?
p5058
F1
sVlady;
p5059
F3
sVlady:
p5060
F1
sVmisery,
p5061
F1
sVrubbing
p5062
F2
sVroar'd
p5063
F1
sVpropos'd
p5064
F1
sVpurse
p5065
F1
sVcontrary,
p5066
F1
sVapprehensions
p5067
F8
sVcontrary.
p5068
F1
sVparticular
p5069
F7
sVtown
p5070
F3
sVnone
p5071
F7
sVrestraint)
p5072
F1
sVhour
p5073
F7
sVmiddle
p5074
F1
sVrecall
p5075
F1
sVremain
p5076
F7
sVpressing
p5077
F3
sVnothing,
p5078
F3
sVabroad,
p5079
F1
sVnothing.
p5080
F1
sVtroubled,
p5081
F1
sVpoisoned!----the
p5082
F1
sVstubborn
p5083
F1
sVwonder'd,
p5084
F1
sVshare
p5085
F12
sVcharm:
p5086
F1
sVcontradicts
p5087
F1
sVbreathing
p5088
F1
sVhours,
p5089
F2
sVresolv'd
p5090
F7
sVnarrowly
p5091
F1
sVneeds
p5092
F2
sVruin'd
p5093
F4
sV\u005c----my
p5094
F3
sVacts
p5095
F2
sVdy'd,
p5096
F2
sVdy'd.
p5097
F2
sVsacred
p5098
F1
sVstir
p5099
F1
sVcharms
p5100
F16
sVnumber,
p5101
F1
sVdeportment,
p5102
F1
sVfever,
p5103
F2
sVpadua
p5104
F7
sVblood
p5105
F1
sVcoming
p5106
F17
sV(who
p5107
F4
sVjoy;----i
p5108
F1
sVupbraidings,----swore
p5109
F1
sVcrowded
p5110
F2
sVthou,
p5111
F3
sVenter'd
p5112
F7
sVfondest
p5113
F1
sVnun.
p5114
F1
sVact,
p5115
F2
sVskilful
p5116
F1
sVpleasure
p5117
F13
sVneed,
p5118
F1
sVthat's
p5119
F2
sVprejudice;
p5120
F2
sVtelling
p5121
F8
sVacquainted
p5122
F18
sVthrough
p5123
F9
sVdeterring
p5124
F1
sV\u005c----these
p5125
F3
sVunwholsome
p5126
F1
sVthrilling
p5127
F1
sVfears;
p5128
F2
sVpossessions
p5129
F2
sVforthwith
p5130
F1
sVhabit)
p5131
F2
sVhabit,
p5132
F3
sVbosom
p5133
F3
sVlate
p5134
F18
sVhop'd
p5135
F2
sVexile,
p5136
F1
sVdisquieted
p5137
F1
sVgood
p5138
F41
sVthinking,
p5139
F1
sVseeking
p5140
F1
sVfavourite's
p5141
F1
sVunbless'd
p5142
F1
sVstain,
p5143
F1
sVcrowed
p5144
F1
sVdesir'd
p5145
F6
sVcomplain
p5146
F1
sVeasily
p5147
F22
sVresentment,
p5148
F1
sValso.
p5149
F1
sValso,
p5150
F2
sVboisterous
p5151
F1
sVpossession,
p5152
F2
sVrepeating
p5153
F2
sV\u005c----fate
p5154
F1
sVexquisite
p5155
F1
sVhark
p5156
F1
sVlistned
p5157
F1
sVdifficult.
p5158
F1
sVgrandeur,
p5159
F1
sVhouse
p5160
F29
sVhard
p5161
F3
sVidea
p5162
F12
sVengaging
p5163
F4
sVcommit,
p5164
F1
sVsuspecting
p5165
F3
sVgraspings.
p5166
F1
sVlovers
p5167
F1
sVchildish
p5168
F1
sVfancy'd
p5169
F3
sVtiresome
p5170
F1
sVhenceforward
p5171
F1
sVpitied,
p5172
F1
sVcircumstance
p5173
F4
sVobtain.
p5174
F1
sVme!----
p5175
F1
sVpleasant
p5176
F1
sVextraordinary
p5177
F6
sVcontrivance
p5178
F4
sVdisposition
p5179
F8
sVcompanion
p5180
F3
sVbeginning
p5181
F14
sVconducter
p5182
F1
sVomit
p5183
F1
sVconducted
p5184
F7
sVthank'd
p5185
F1
sVlover,
p5186
F5
sVvers'd
p5187
F1
sVlover.
p5188
F1
sVindebted
p5189
F7
sVmother-in-law,
p5190
F1
sVgiddy,
p5191
F1
sVjuncture
p5192
F2
sVtrembling,
p5193
F3
sVembraced
p5194
F1
sVdiscontents
p5195
F1
sVhatches,
p5196
F1
sVabating,
p5197
F1
sVcaptain,
p5198
F1
sVsenses,
p5199
F1
sVindulgent
p5200
F1
sVexamin'd
p5201
F3
sVfamily,
p5202
F5
sVscene,
p5203
F1
sVleast
p5204
F39
sVpaint
p5205
F1
sVsated
p5206
F1
sVquarrels,
p5207
F1
sVpains
p5208
F7
sVfamily;
p5209
F1
sVcup,
p5210
F2
sVneglect,
p5211
F1
sVtremblings
p5212
F2
sVpart
p5213
F45
sVsex.
p5214
F1
sVprodigious
p5215
F10
sVmore:----too
p5216
F1
sVunpardonable
p5217
F2
sVdoge,
p5218
F2
sVdoge.
p5219
F1
sVpain,
p5220
F5
sVpain.
p5221
F1
sVyouth
p5222
F5
sVdoge:
p5223
F1
sVcontrary
p5224
F13
sVsupposed
p5225
F1
sVtreated
p5226
F7
sVdeclare
p5227
F2
sVacquaintance,
p5228
F2
sVnotwithstanding
p5229
F4
sVabused,
p5230
F1
sVorders
p5231
F8
sVmein,
p5232
F2
sVpaths
p5233
F1
sVreflection,
p5234
F2
sVcouch
p5235
F1
sVpostscript,
p5236
F1
sVprovince
p5237
F1
sVorder,
p5238
F2
sVdiamonds;
p5239
F1
sVmost
p5240
F98
sVage,
p5241
F3
sVcharm
p5242
F6
sVdiamonds,
p5243
F1
sVengagements
p5244
F5
sVextremely
p5245
F11
sVabsence,
p5246
F1
sVterrify'd
p5247
F1
sVfaithless
p5248
F1
sVcharitable
p5249
F1
sVreflections
p5250
F4
sVnobility
p5251
F1
sVpityable
p5252
F1
sVobligations
p5253
F7
sVplays,
p5254
F1
sVpeace:----she
p5255
F1
sVnoblest
p5256
F1
sVthunders!
p5257
F1
sVrelation
p5258
F6
sVmalignant
p5259
F1
sVbellraizai,
p5260
F1
sVfine
p5261
F6
sVfind
p5262
F26
sVdepended
p5263
F2
sVdividing
p5264
F1
sVbanish'd
p5265
F1
sVruin
p5266
F9
sVchang'd
p5267
F3
sVunhappy
p5268
F34
sVfreedoms
p5269
F1
sVfainting,
p5270
F1
sVmoney
p5271
F4
sVrefusal,
p5272
F1
sVstandish,
p5273
F1
sVpermission
p5274
F3
sVrepel,
p5275
F1
sVexpress
p5276
F7
sVshou'd
p5277
F10
sVcourage
p5278
F5
sVbreast
p5279
F2
sVtheft
p5280
F1
sVobligation,
p5281
F1
sVswallow'd
p5282
F1
sVresolve
p5283
F6
sVphysician's
p5284
F1
sVrecall'd,
p5285
F1
sVremove
p5286
F3
sVcommon
p5287
F11
sVpromoted.
p5288
F1
sVobservation,
p5289
F1
sVvillain!----the
p5290
F1
sVcreates,
p5291
F1
sVfellow,)
p5292
F1
sVrumour'd
p5293
F1
sVmanly
p5294
F2
sVtender
p5295
F20
sVexcusable
p5296
F1
sVflattery,
p5297
F1
sVdegree
p5298
F5
sVexpert
p5299
F1
sVvisiting
p5300
F1
sVdebar
p5301
F1
sVplease
p5302
F4
sVsmallest
p5303
F1
sVburned
p5304
F1
sVbefore:----my
p5305
F1
sVrover
p5306
F2
sVdropp'd
p5307
F1
sVbeads,
p5308
F1
sVobservation:
p5309
F1
sVannual
p5310
F1
sVforeign
p5311
F1
sVstarting,
p5312
F1
sVair?
p5313
F1
sVafar
p5314
F1
sVprice.
p5315
F1
sVpoint
p5316
F5
sVslip;
p5317
F1
sVprosecuting
p5318
F1
sVpurposed.
p5319
F1
sVperturbations!
p5320
F1
sVslip.
p5321
F1
sVdispleasure;
p5322
F1
sVdiscourses,
p5323
F1
sVconsuming
p5324
F1
sVraise
p5325
F2
sVdispatch'd
p5326
F2
sVsecret
p5327
F26
sVpity-moving
p5328
F1
sVdispleasure.
p5329
F1
sValledged.
p5330
F1
sVwish'd,----i
p5331
F1
sVmeeting
p5332
F5
sVgay
p5333
F4
sVkill'd,
p5334
F1
sVfurnish'd
p5335
F1
sVcruelty
p5336
F1
sVbeasts,
p5337
F1
sVunderstand
p5338
F4
sVrecovered:
p5339
F1
sVprotested,
p5340
F1
sVpierce
p5341
F1
sVstrictest
p5342
F5
sV\u005c----without
p5343
F1
sVrival.
p5344
F1
sVimproper,
p5345
F1
sVrival,
p5346
F5
sVaffair;
p5347
F1
sVcompassion
p5348
F9
sVtalk'd
p5349
F2
sVrival?
p5350
F1
sVindulging
p5351
F1
sVkey:
p5352
F1
sVwept,
p5353
F4
sVhusband.
p5354
F3
sVhusband,
p5355
F3
sVitself
p5356
F10
sVkey,
p5357
F1
sVdisbelieving
p5358
F1
sVshunning
p5359
F1
sVcounterfeited
p5360
F1
sVitaly
p5361
F1
sVfound:
p5362
F1
sVdiscourse
p5363
F10
sVhow!
p5364
F2
sV\u005c----and
p5365
F3
sVhow,
p5366
F3
sVoffer;
p5367
F1
sVvictorious,
p5368
F1
sVyesterday
p5369
F1
sVreproaches,
p5370
F2
sVpre-eminence.
p5371
F1
sVmoment
p5372
F39
sVpre-eminence,
p5373
F1
sVpurpose
p5374
F8
sVcircumvented
p5375
F1
sVtask
p5376
F2
sVhalf-broken
p5377
F1
sVspent
p5378
F1
sVclaps'd,
p5379
F1
sVspend
p5380
F1
sVvindictive
p5381
F1
sVsawcy
p5382
F1
sVwife;
p5383
F1
sVmatter,
p5384
F1
sVdistracting
p5385
F1
sVlives,
p5386
F1
sVperfidiousness.
p5387
F1
sVtimber
p5388
F1
sVancona;
p5389
F1
sVfollow;
p5390
F1
sVcut
p5391
F3
sVcup
p5392
F3
sVdiversions
p5393
F1
sVmarrying
p5394
F4
sVfalsity
p5395
F1
sV\u005c----him
p5396
F1
sVsource
p5397
F1
sVfollow,
p5398
F1
sVancona,
p5399
F1
sV\u005c----of
p5400
F1
sVconfession
p5401
F1
sVexpressions:
p5402
F1
sVpass'd;
p5403
F1
sVbid
p5404
F1
sVsaluted
p5405
F1
sVdestruction!
p5406
F1
sVexpressions,
p5407
F1
sVfavour'd
p5408
F6
sVhate!
p5409
F1
sVaddressed
p5410
F1
sVconfus'd
p5411
F2
sVextasy
p5412
F4
sVfoolish
p5413
F1
sVoften
p5414
F12
sVabsolutely
p5415
F3
sVobliged
p5416
F18
sVmagnificent
p5417
F1
sVback
p5418
F10
sVmulberry-leaves
p5419
F1
sVmartial
p5420
F1
sVvirtue,
p5421
F4
sVexamples
p5422
F1
sVornaments
p5423
F1
sVcandle
p5424
F1
sVendures,
p5425
F1
sVhazarded
p5426
F3
sVpublick
p5427
F1
sVbrent
p5428
F1
sVpronounced
p5429
F2
sVacquaintance
p5430
F4
sVdecision
p5431
F1
sV(resumed
p5432
F2
sVmildness,
p5433
F1
sVjust.
p5434
F1
sVpen
p5435
F1
sVjust:
p5436
F1
sVgood,
p5437
F2
sVgood.
p5438
F1
sVoblige,
p5439
F1
sVpatient
p5440
F1
sVpresence,
p5441
F5
sVcontinuing
p5442
F2
sVuse
p5443
F26
sVhopes:----she
p5444
F1
sVpresence;
p5445
F2
sVfeigning
p5446
F2
sVconstraint
p5447
F3
sVinhumanity
p5448
F1
sVblasted,
p5449
F1
sVwhom,
p5450
F1
sVhimself,---
p5451
F1
sVbeloved,
p5452
F1
sVasswage
p5453
F2
sVhope.
p5454
F1
sVhope,
p5455
F6
sVomitting
p5456
F1
sV\u005c---and
p5457
F1
sVon,----
p5458
F1
sVhope;
p5459
F2
sVremembrance
p5460
F4
sVcould'st
p5461
F1
sV(resum'd
p5462
F15
sVsorrows.
p5463
F2
sVundress'd
p5464
F1
sVsorrows;
p5465
F1
sVforward
p5466
F2
sVassembly,
p5467
F2
sVhoped
p5468
F1
sVrav'd,
p5469
F2
sVepithets,
p5470
F1
sVhopes
p5471
F9
sVprince's
p5472
F3
sVchancing
p5473
F2
sVdirected
p5474
F1
sVfrequented:
p5475
F1
sVhusband's,
p5476
F1
sVeuropeans,
p5477
F1
sVlover's
p5478
F4
sVhopes:
p5479
F2
sVplanet
p5480
F1
sVdarkness?
p5481
F1
sVhusband's;
p5482
F1
sVaversion
p5483
F1
sVhopes,
p5484
F2
sVwell-known
p5485
F1
sVhopes.
p5486
F1
sVsort
p5487
F4
sVconstant
p5488
F3
sVprepare,
p5489
F1
sVdeprive
p5490
F4
sVsingle
p5491
F2
sV\u005c----
p5492
F36
sVprevail
p5493
F4
sVdenying
p5494
F1
sVagreeable;
p5495
F1
sVprivacy.
p5496
F1
sVexcused
p5497
F1
sVsucceeded,
p5498
F1
sVorders:
p5499
F1
sVhonourable,
p5500
F1
sVamazed,
p5501
F1
sVprepared
p5502
F1
sV\u005c---i
p5503
F6
sVutterly
p5504
F6
sVneglectful
p5505
F1
sVblacken'd
p5506
F1
sVexcuse.
p5507
F1
sVadmiring
p5508
F1
sVpresenting
p5509
F1
sVreserve
p5510
F1
sVfright,
p5511
F2
sVhappy,
p5512
F2
sVhappy.
p5513
F3
sVrecount
p5514
F1
sVhappy;
p5515
F1
sVtestifies
p5516
F1
sVvillian,
p5517
F1
sVenjoined
p5518
F1
sVinclines
p5519
F1
sVproceedings.
p5520
F1
sVpleasing
p5521
F6
sVpresently
p5522
F19
sVconfounding
p5523
F1
sVhuddled
p5524
F1
sVputting
p5525
F4
sVaccuse
p5526
F3
sVfathom'd
p5527
F1
sVentire
p5528
F3
sVshock'd
p5529
F2
sVrespectful
p5530
F1
sVregardless
p5531
F2
sVshock
p5532
F1
sVstature,
p5533
F1
sVbrevity
p5534
F1
sVhumility,
p5535
F2
sVgrave.
p5536
F2
sVobject!
p5537
F2
sVtransgressed
p5538
F1
sVsafe,
p5539
F1
sVbleeding
p5540
F2
sVother.
p5541
F4
sVobject,
p5542
F1
sVdemonstrations
p5543
F1
sV----i
p5544
F1
sVsubtle
p5545
F1
sVother:
p5546
F1
sVother;
p5547
F2
sVabsolute,
p5548
F1
sVwhiter,
p5549
F1
sVgiving
p5550
F16
sVrelented
p5551
F1
sVpresumptious
p5552
F1
sVpleading
p5553
F1
sVbody
p5554
F6
sVwrong'd
p5555
F3
sVexchange
p5556
F2
sVadorer,
p5557
F3
sVnimble
p5558
F1
sVunthinking
p5559
F2
sVsink
p5560
F3
sVothers
p5561
F7
sVlovely,
p5562
F2
sVextreme
p5563
F1
sVruin)
p5564
F1
sVhearing,
p5565
F1
sVconceal'd,
p5566
F2
sVinconvenience.
p5567
F2
sVcomforted,
p5568
F1
sVadded,
p5569
F1
sVoffer'd
p5570
F5
sVappartment.
p5571
F1
sVappartment,
p5572
F3
sVconvuls'd
p5573
F1
sVprize.
p5574
F1
sVears
p5575
F5
sVaccompany'd,
p5576
F1
sVhindred
p5577
F1
sVextravagance
p5578
F1
sVappartment;
p5579
F1
sVnames
p5580
F2
sVlimb
p5581
F1
sVii.
p5582
F1
sVwherries
p5583
F1
sVpossess'd
p5584
F18
sV\u005c----to
p5585
F1
sVnerve:----sure
p5586
F1
sVwish'd:----he
p5587
F1
sVadmirers,
p5588
F2
sVpunishments
p5589
F1
sVconversing
p5590
F1
sVthemselves
p5591
F5
sVinclination,
p5592
F1
sVdisjointing
p5593
F1
sVresolution,
p5594
F4
sVsnatching
p5595
F5
sVresolution.
p5596
F1
sVname,
p5597
F6
sVname)
p5598
F1
sVtransient
p5599
F1
sVprizes
p5600
F1
sVtearing
p5601
F1
sVname:
p5602
F2
sVafflicting
p5603
F1
sVaccount
p5604
F15
sVinclinations
p5605
F3
sVpraise
p5606
F1
sVclosing
p5607
F1
sVentertain'd,
p5608
F1
sVtoils,
p5609
F1
sVimmoderate
p5610
F2
sVreserved
p5611
F1
sVscorn'd
p5612
F3
sVcreate,
p5613
F1
sVcontempt
p5614
F4
sVnative
p5615
F1
sVprofessed,
p5616
F1
sVseparation;
p5617
F1
sVdaring
p5618
F1
sVfar;
p5619
F1
sVcourtship,
p5620
F1
sVmeditated
p5621
F2
sVstock
p5622
F3
sVbless'd,
p5623
F2
sVrelapsing
p5624
F1
sVendeavour'd,
p5625
F1
sVtresses
p5626
F1
sVproportion,
p5627
F1
sVbless'd;
p5628
F1
sVsnatch'd
p5629
F2
sVemploy:
p5630
F1
sVfolly.
p5631
F2
sVgone.
p5632
F1
sVgone,
p5633
F4
sVbind
p5634
F1
sVwanted;
p5635
F1
sVtrembling
p5636
F3
sVgone:
p5637
F2
sVchief
p5638
F1
sVhold,
p5639
F3
sVout.
p5640
F1
sVfurious
p5641
F2
sVfurnish
p5642
F3
sVextacy,---
p5643
F1
sVdisarm
p5644
F1
sVflattering
p5645
F1
sVthyself
p5646
F1
sVdivert.
p5647
F1
sVindustrious
p5648
F1
sVwhereon
p5649
F1
sVwilling
p5650
F15
sV\u005c----all
p5651
F6
sVbountiful
p5652
F1
sVgreater
p5653
F19
sVpangs
p5654
F3
sVblessed
p5655
F1
sVmention
p5656
F5
sVkindness
p5657
F2
sVday
p5658
F22
sVleast,
p5659
F1
sVspeech,
p5660
F2
sVstepp'd
p5661
F2
sVgazing
p5662
F3
sVsenators,
p5663
F1
sVparties
p5664
F1
sVextremely;
p5665
F1
sVmost,
p5666
F1
sVsocieting
p5667
F1
sVmourn.
p5668
F1
sVdefend
p5669
F4
sVwholly
p5670
F13
sVinvective
p5671
F1
sVmessenger
p5672
F2
sVmeanest;
p5673
F1
sVchang'd;
p5674
F1
sVupbraid
p5675
F2
sVcourage:
p5676
F1
sVlikelihood
p5677
F1
sVafterward
p5678
F1
sVaffections!----no,
p5679
F1
sVfuries
p5680
F1
sVform'd;
p5681
F1
sVmariners,
p5682
F1
sVdisgust,
p5683
F1
sVretain
p5684
F1
sVsorrowful
p5685
F1
sVbeliev'd;
p5686
F1
sVfinest
p5687
F1
sVescape,
p5688
F3
sVcou'd
p5689
F22
sVlove!
p5690
F2
sVdistraction,
p5691
F2
sVlove.
p5692
F5
sVgaiety,
p5693
F1
sVlove?
p5694
F3
sVcabin
p5695
F4
sVlove:
p5696
F3
sVangelick,
p5697
F1
sVagonies
p5698
F6
sVexplanation
p5699
F2
sVnegro
p5700
F1
sVcertainty,
p5701
F1
sVvouchsafed
p5702
F1
sVinestimable
p5703
F2
sVexpences
p5704
F1
sVvanity,
p5705
F4
sVloved
p5706
F4
sVpedigree,
p5707
F1
sVo'er
p5708
F5
sVcannot,----will
p5709
F1
sVcalamity
p5710
F1
sVloves
p5711
F3
sVlight
p5712
F5
sVvisited
p5713
F3
sVheavens!
p5714
F2
sVpresum'd
p5715
F2
sV\u005c----yes,
p5716
F2
sVsavage:
p5717
F1
sVardella.
p5718
F1
sVardella,
p5719
F4
sVtide
p5720
F1
sVhave
p5721
F295
sVhabitable
p5722
F1
sVardella;
p5723
F1
sVdemonstration
p5724
F1
sVmelancholly
p5725
F1
sVpossess'd,
p5726
F1
sVardea,
p5727
F1
sVmatch,
p5728
F1
sVdecreed;
p5729
F1
sVpatience,
p5730
F3
sVmix
p5731
F1
sVexpected,
p5732
F2
sV\u005c---and,
p5733
F1
sV\u005c----interrogatories
p5734
F1
sVunless
p5735
F3
sVterrible,
p5736
F2
sVdisappointments
p5737
F1
sVconversation,----
p5738
F1
sVmortal
p5739
F5
sVwhere's
p5740
F1
sVbernado's
p5741
F2
sVgods,
p5742
F1
sVprisoner
p5743
F1
sVsally
p5744
F1
sVafresh
p5745
F1
sVinexorable
p5746
F1
sVdebilitated,
p5747
F1
sVgather
p5748
F3
sVconcern,
p5749
F5
sVdisease
p5750
F2
sVconcern.
p5751
F1
sVoccasion
p5752
F12
sVconcern;
p5753
F1
sVsaying,
p5754
F2
sVanother.
p5755
F2
sV\u005c----how
p5756
F2
sVsupported
p5757
F1
sVreputation,
p5758
F5
sVreputation.
p5759
F1
sVardour,
p5760
F1
sVperishing
p5761
F1
sVcontinually
p5762
F1
sVsupporter
p5763
F1
sVinspiring
p5764
F2
sVknowledge
p5765
F11
sVcaution,
p5766
F1
sVprolong
p5767
F1
sVcurt'sying
p5768
F1
sVinferior
p5769
F2
sVunknown,----and
p5770
F1
sVdelirious
p5771
F1
sVbear
p5772
F14
sVrecollect.
p5773
F1
sVreputations
p5774
F1
sVdeserved.
p5775
F1
sVcalling
p5776
F3
sVcomforted;---and
p5777
F1
sVaffection:
p5778
F1
sVfarthest
p5779
F1
sVinfidel
p5780
F1
sVdiscontent.
p5781
F1
sVfate,
p5782
F10
sVjaquez
p5783
F1
sVimposition
p5784
F1
sVdesires,
p5785
F7
sVmaster's
p5786
F1
sVbrunt
p5787
F1
sVdesires;
p5788
F2
sVdifficulties
p5789
F2
sVprogress
p5790
F1
sVeasy,
p5791
F2
sVease.
p5792
F1
sVcrimes,
p5793
F1
sVsorrow
p5794
F1
sVdeliver
p5795
F4
sVus'd,
p5796
F1
sVthanks.
p5797
F1
sVforgiveness;
p5798
F1
sVencrease
p5799
F2
sVinstant
p5800
F3
sVfreely
p5801
F1
sVsoul,)
p5802
F1
sVequal
p5803
F10
sVhe)
p5804
F3
sVfulfilled
p5805
F1
sVassure
p5806
F6
sVunexcusable
p5807
F1
sVindulg'd,
p5808
F2
sVsexes
p5809
F1
sVtormentor
p5810
F1
sVswallow
p5811
F1
sVtydings
p5812
F1
sVglorious
p5813
F4
sVotherwise
p5814
F2
sVvent
p5815
F2
sVe'er
p5816
F3
sVcunning,
p5817
F1
sVdone;
p5818
F1
sVdone:
p5819
F1
sVdone!
p5820
F2
sVdone,
p5821
F17
sVdone.
p5822
F4
sVpouring
p5823
F2
sVgaze
p5824
F2
sVlady's
p5825
F1
sVrestrain
p5826
F2
sVproposal
p5827
F1
sVcomposed,
p5828
F1
sVhome,
p5829
F5
sVattendance;
p5830
F1
sVqualities;
p5831
F1
sVfinished
p5832
F1
sVtenderly
p5833
F3
sVfellow
p5834
F4
sVplain
p5835
F6
sVappearance
p5836
F3
sVfrustrated;
p5837
F1
sVvalue
p5838
F4
sVgrotto.
p5839
F1
sVconvinc'd
p5840
F1
sVinflicts
p5841
F1
sVwretch?----why
p5842
F1
sVrespected
p5843
F1
sVshame.
p5844
F1
sVshame,
p5845
F4
sVcounterballance
p5846
F1
sVrequir'd.
p5847
F1
sVdeed
p5848
F1
sVwhirl
p5849
F1
sVwatchful
p5850
F2
sVset,
p5851
F1
sVinfer
p5852
F1
sVinjured
p5853
F1
sVabsent;
p5854
F1
sVcloset,
p5855
F1
sVsatire,
p5856
F1
sVsubtil
p5857
F1
sVjudgment
p5858
F5
sVabsent,
p5859
F1
sVbloom,
p5860
F1
sVrecourse
p5861
F1
sVwonder'd
p5862
F2
sVweapon
p5863
F3
sVwond'rous
p5864
F1
sVthought
p5865
F68
sVsufferings
p5866
F4
sVexceedingly
p5867
F1
sV\u005c----surprising
p5868
F1
sV\u005c---
p5869
F22
sVconcluded,
p5870
F1
sVusual
p5871
F4
sVunequal'd
p5872
F1
sVresolve,
p5873
F1
sVcompanions!
p5874
F1
sVresolve.
p5875
F2
sVall-seeing
p5876
F1
sVseats
p5877
F2
sVidalia's
p5878
F8
sVtone
p5879
F1
sVliberty,
p5880
F4
sVoddness
p5881
F1
sV\u005c----villain,
p5882
F1
sVvengeance,
p5883
F1
sVvengeance.
p5884
F2
sVrecommending
p5885
F1
sVinforce?
p5886
F1
sVadd
p5887
F5
sVdestroy
p5888
F1
sVought
p5889
F11
sVresolved
p5890
F16
sVwords,----
p5891
F1
sVfiercely,)
p5892
F1
sVresolves
p5893
F1
sVstring
p5894
F1
sVliquors,
p5895
F1
sVconfusion.
p5896
F1
sVlike
p5897
F27
sVconfusion,
p5898
F3
sVhousekeeper
p5899
F1
sVpublick,
p5900
F1
sVadmitted
p5901
F1
sVsoft
p5902
F14
sVrave,
p5903
F1
sVworth,
p5904
F1
sVauthority
p5905
F1
sVhair
p5906
F6
sVfear'd,
p5907
F1
sVhasten
p5908
F1
sVback'd
p5909
F1
sVproper
p5910
F9
sVrival's
p5911
F4
sVglad,
p5912
F2
sVflesh,
p5913
F1
sVboard;
p5914
F1
sVboard,
p5915
F2
sVeffeminacy;
p5916
F1
sVnoise
p5917
F8
sVslight
p5918
F2
sVceremony;
p5919
F1
sVwould'st
p5920
F2
sVhost
p5921
F1
sVexpire
p5922
F1
sVworthy
p5923
F9
sVvivacity
p5924
F1
sVceremony,
p5925
F2
sVimaginable;
p5926
F2
sVretribution
p5927
F1
sVinconsiderate
p5928
F3
sVabout
p5929
F49
sVmiramont,
p5930
F5
sVfollies
p5931
F1
sVcertainty
p5932
F2
sVserviceable
p5933
F2
sVsatisfy'd,
p5934
F1
sVblessings
p5935
F1
sVtomb
p5936
F1
sVmiramont:
p5937
F1
sVmiramont;
p5938
F2
sVantonia;
p5939
F2
sVrendered
p5940
F1
sVantonia?
p5941
F1
sVesteem
p5942
F7
sVantonia,
p5943
F11
sVunfashionable
p5944
F1
sValoud.
p5945
F1
sVimaginable.
p5946
F1
sVvows;----which,
p5947
F1
sVmazy
p5948
F1
sVstratagem;
p5949
F1
sVimaginable,
p5950
F4
sVrushes
p5951
F1
sVfasted,
p5952
F1
sVwalk:
p5953
F1
sVglimmer
p5954
F1
sVprince!
p5955
F2
sVprince,
p5956
F18
sVstratagem,
p5957
F1
sVprince)
p5958
F1
sVtrue;----how
p5959
F1
sVenchantment
p5960
F1
sVpreparations
p5961
F3
sVrepeated
p5962
F2
sVremote
p5963
F2
sVought,
p5964
F1
sVstratagems
p5965
F1
sVglory
p5966
F2
sVdangerous
p5967
F4
sVsuffer'd,
p5968
F2
sVsatisfy'd
p5969
F5
sVchristian,
p5970
F1
sVsupreme
p5971
F1
sVveiling
p5972
F1
sV\u005c----there's
p5973
F1
sVwine,
p5974
F1
sVamusements,
p5975
F1
sVit,----one
p5976
F1
sVdressed
p5977
F1
sVovertaken,
p5978
F1
sVimpossibility
p5979
F4
sVdetain
p5980
F2
sVproceed.
p5981
F1
sVproceed,
p5982
F2
sVindeed,
p5983
F16
sVinsupportable
p5984
F1
sVpreserv'd,
p5985
F1
sVdeath:
p5986
F2
sVdeath;
p5987
F3
sVdeath!
p5988
F4
sVdeath,
p5989
F9
sVdeath.
p5990
F1
sVpreserv'd:
p5991
F1
sVprevalent
p5992
F1
sVresolution
p5993
F8
sVdiminish'd
p5994
F1
sVentreat
p5995
F8
sVencompass'd
p5996
F1
sVslaves,
p5997
F1
sVnews,
p5998
F1
sVever,
p5999
F4
sVever.
p6000
F5
sVunited,
p6001
F1
sVadmiration;
p6002
F1
sVdaughter's
p6003
F1
sVancestors,
p6004
F1
sVsleep
p6005
F3
sVever:
p6006
F1
sVsignalizd
p6007
F1
sVhate
p6008
F6
sVassembled
p6009
F1
sVdisoblige
p6010
F2
sV(for
p6011
F11
sVintreat
p6012
F1
sVaffections:---he
p6013
F1
sVunder
p6014
F11
sVpride
p6015
F6
sVcarried
p6016
F1
sVelegance:
p6017
F1
sVconjecture
p6018
F3
sVhaughtiness
p6019
F2
sVdispense
p6020
F1
sVrise
p6021
F3
sVtears,
p6022
F9
sVevery
p6023
F50
sVgratification
p6024
F6
sVelegance,
p6025
F2
sVtears;
p6026
F3
sVconceive
p6027
F2
sVpitiful,)
p6028
F1
sVenjoy
p6029
F3
sVparted
p6030
F5
sVungenerous
p6031
F2
sVexcuses,
p6032
F3
sVinfancy
p6033
F2
sVconsistent
p6034
F3
sVlicence,
p6035
F1
sVshining
p6036
F2
sVlesser
p6037
F1
sVleave;
p6038
F1
sVleave:
p6039
F2
sVcharacters;
p6040
F1
sVviolently,
p6041
F1
sVsolemn
p6042
F5
sVterms,
p6043
F2
sVliberty
p6044
F16
sVrisques
p6045
F1
sVfavours.
p6046
F1
sVsinking,
p6047
F1
sVfavours,
p6048
F2
sVoaths
p6049
F1
sVventure,
p6050
F1
sVanother,---the
p6051
F1
sVthere,----the
p6052
F1
sVzealousness
p6053
F1
sVfriendship,
p6054
F4
sVfriendship.
p6055
F2
sVthrough;
p6056
F1
sVfaults,
p6057
F1
sVcharms?
p6058
F1
sVfriendship;
p6059
F1
sVpath
p6060
F1
sVflorez
p6061
F12
sVthrough,
p6062
F2
sVwastecoat,
p6063
F1
sVseek,
p6064
F1
sVworse,
p6065
F1
sVridicule
p6066
F1
sVhid,
p6067
F1
sVrisque.
p6068
F1
sVentreating
p6069
F6
sVsettled
p6070
F3
sVpunishment
p6071
F8
sVcompany.
p6072
F2
sVcompany,
p6073
F4
sVreply:
p6074
F1
sVreply;
p6075
F1
sVsorrows
p6076
F1
sVvisible
p6077
F4
sVcompany;
p6078
F1
sVcompany:
p6079
F1
sVconfus'd,
p6080
F2
sVfalse!----stupid!----blind!----ungrateful
p6081
F1
sVdaphne,
p6082
F1
sVperswasions,
p6083
F1
sVwould
p6084
F261
sVdetesting
p6085
F1
sVspy,
p6086
F1
sVasses
p6087
F1
sVfainting
p6088
F1
sVdeferr'd
p6089
F1
sVravishing
p6090
F1
sVpreserved
p6091
F2
sVcondemn'd
p6092
F1
sVbarbarous
p6093
F5
sVengaged,
p6094
F1
sVensnared
p6095
F1
sVoff;
p6096
F2
sVsorrow,
p6097
F1
sVgrief
p6098
F11
sVmother,
p6099
F1
sV(had
p6100
F1
sVexcellent
p6101
F3
sVoff,
p6102
F4
sVmust
p6103
F57
sVshoot
p6104
F1
sVjoin
p6105
F5
sVdecent,
p6106
F1
sVentertained
p6107
F1
sVwit's
p6108
F1
sVtender)
p6109
F1
sVperceiv'd,
p6110
F1
sVmight'st
p6111
F1
sVmy
p6112
F415
sVquarrel
p6113
F2
sVestate
p6114
F1
sVcause,
p6115
F7
sVpreserving
p6116
F3
sVshrieks,
p6117
F1
sVpain'd
p6118
F1
sVchesnuts,
p6119
F1
sVtimes
p6120
F12
sVattract
p6121
F1
sVceremony
p6122
F3
sVend
p6123
F16
sVpluck'd
p6124
F1
sVsitting
p6125
F5
sVills,
p6126
F1
sVills.
p6127
F1
sVenquire
p6128
F3
sVgate
p6129
F1
sVcharging
p6130
F1
sVcolours,
p6131
F1
sVboth.
p6132
F1
sVdescription
p6133
F5
sVboth,
p6134
F4
sVnunnery,
p6135
F1
sVdelicacy
p6136
F2
sVimaginable
p6137
F6
sVsparkled
p6138
F3
sVassistance;
p6139
F1
sVboth;
p6140
F4
sVunguarded
p6141
F6
sVheart.
p6142
F5
sVagonies,
p6143
F4
sVforth,
p6144
F1
sVaccusation,
p6145
F1
sVacknowledged
p6146
F1
sVto----hold,
p6147
F1
sVprecepts
p6148
F1
sVenter
p6149
F4
sVexecuted
p6150
F1
sVravisher!
p6151
F1
sVover
p6152
F19
sVdescribe;----
p6153
F1
sVdisease,
p6154
F1
sVbeside
p6155
F2
sVinsensibles
p6156
F1
sV(more
p6157
F1
sVexpectations
p6158
F2
sVwriting
p6159
F1
sVdestroyed
p6160
F1
sVmalice.
p6161
F3
sVhistory,
p6162
F1
sVexpect.
p6163
F1
sVavoids
p6164
F1
sVhitherto
p6165
F1
sVmalice;
p6166
F1
sVobligingly
p6167
F2
sVvictory
p6168
F2
sVeach
p6169
F22
sVlasting
p6170
F2
sVamaz'd
p6171
F1
sVwish'd
p6172
F7
sVpractising
p6173
F1
sVday;
p6174
F1
sVdriving
p6175
F1
sVgod
p6176
F4
sV\u005c----snatch,
p6177
F1
sVday.
p6178
F1
sVday,
p6179
F8
sVheavenly
p6180
F1
sVgot
p6181
F9
sVwent;
p6182
F1
sVcarcass
p6183
F1
sVdefence,
p6184
F1
sVeternal
p6185
F7
sVfree
p6186
F9
sVwent,
p6187
F3
sVwanted
p6188
F4
sVgo,
p6189
F4
sVdays
p6190
F11
sVfever;
p6191
F1
sVhopeless
p6192
F2
sVemployed,
p6193
F1
sVaspire
p6194
F1
sVscheme
p6195
F1
sValready
p6196
F17
sVabate;
p6197
F1
sVtoo!
p6198
F1
sVtoo.
p6199
F1
sVattractions
p6200
F2
sVtoo,
p6201
F1
sVencouraging
p6202
F1
sVrank
p6203
F5
sVhearing
p6204
F9
sVgrief,
p6205
F4
sVgrief.
p6206
F2
sVgrief!
p6207
F2
sVthem;----and
p6208
F1
sVtoo;
p6209
F2
sVunvanquishable
p6210
F1
sVtop
p6211
F1
sVquick-sighted
p6212
F1
sVheighth
p6213
F1
sVtoo
p6214
F86
sVordered
p6215
F4
sVconsented
p6216
F4
sVreparation
p6217
F2
sVmurder
p6218
F6
sVindiscreet
p6219
F1
sVgriefs
p6220
F2
sVserve
p6221
F3
sVtook
p6222
F40
sVjessamine,
p6223
F1
sVabated
p6224
F3
sVwhereby
p6225
F2
sVto;
p6226
F4
sVprobable,
p6227
F5
sVto?
p6228
F1
sVgown,
p6229
F1
sVhumour;
p6230
F1
sVheight,
p6231
F1
sVflame
p6232
F2
sVholiness:
p6233
F1
sVto,
p6234
F6
sVmirth
p6235
F1
sVto!
p6236
F1
sVcombat:
p6237
F1
sVboast!----a
p6238
F1
sVruin'd,
p6239
F2
sVfashion
p6240
F2
sVran
p6241
F8
sVinclin'd
p6242
F2
sVtalking
p6243
F2
sVaffectation
p6244
F1
sVrelapse
p6245
F2
sVthorough
p6246
F1
sVliable,
p6247
F1
sVdegenerated
p6248
F1
sVincapable
p6249
F2
sVthough
p6250
F15
sVtormenting
p6251
F1
sVcommanding
p6252
F2
sVdawn,----this
p6253
F1
sVconstancy
p6254
F2
sVletters,
p6255
F2
sVabdomar's
p6256
F1
sVreputation
p6257
F2
sVforsook
p6258
F4
sVentertaining
p6259
F6
sVchariot
p6260
F2
sVbait
p6261
F1
sVinspire
p6262
F5
sVpope
p6263
F1
sVenduring:---weigh
p6264
F1
sValight
p6265
F1
sVproceedings,
p6266
F2
sVchamber:
p6267
F1
sVruminating
p6268
F1
sVtoying;
p6269
F1
sVcloaths,
p6270
F1
sVaspired
p6271
F1
sVdeparted
p6272
F1
sVruin.
p6273
F2
sVadoration
p6274
F1
sVruin,
p6275
F2
sVspite
p6276
F17
sVbernardo's,
p6277
F1
sVruin!
p6278
F1
sVdisgust
p6279
F1
sVmay,
p6280
F2
sVmixture
p6281
F2
sVabout;
p6282
F1
sVwatch
p6283
F3
sVconveniency.
p6284
F1
sVconveniency,
p6285
F1
sVwedding
p6286
F1
sVreport
p6287
F1
sVrowing
p6288
F1
sVtwice
p6289
F3
sVstripp'd
p6290
F1
sVprogress.
p6291
F1
sVshipwreck,
p6292
F1
sVruins
p6293
F1
sVthanks
p6294
F3
sVelopement
p6295
F1
sVhabit
p6296
F3
sVwrest
p6297
F1
sVresist
p6298
F1
sVreply,
p6299
F2
sVsilent,)
p6300
F1
sVresigning
p6301
F1
sVcrowns;
p6302
F1
sVstrenuously
p6303
F1
sVcapacity
p6304
F6
sVface,
p6305
F5
sVpaternal
p6306
F1
sVcatalogue
p6307
F1
sVbestows,
p6308
F1
sVapproach
p6309
F4
sVdiscovery
p6310
F5
sVdeath:----to
p6311
F1
sVconfusion
p6312
F15
sVliest,
p6313
F1
sVweak
p6314
F2
sVhowever
p6315
F3
sVcrimes.
p6316
F1
sVwear
p6317
F4
sVnews
p6318
F3
sVdaunted
p6319
F1
sVprotect
p6320
F2
sVshe;)
p6321
F1
sVdiscover,
p6322
F1
sVwines,
p6323
F1
sVwhichsoever
p6324
F1
sVdisengage
p6325
F1
sVfaces
p6326
F1
sV(perceiving
p6327
F1
sVmisfortunes,)
p6328
F1
sVasham'd
p6329
F3
sVdrug.
p6330
F1
sVtrust
p6331
F5
sVcomical
p6332
F1
sVnative,
p6333
F1
sVall,
p6334
F4
sVimaginable:
p6335
F1
sVincomparable
p6336
F1
sVwere;
p6337
F2
sVbeen
p6338
F196
sVwere,
p6339
F8
sVconfident
p6340
F2
sVsoftning
p6341
F1
sVmiraculously
p6342
F2
sVexpected
p6343
F15
sVappears;
p6344
F1
sVnobility,
p6345
F1
sVairs,
p6346
F1
sVuncommon
p6347
F1
sVintention,
p6348
F1
sVmajesty's
p6349
F1
sVcatch
p6350
F1
sVenquires,
p6351
F1
sV\u005c----both
p6352
F2
sVstanding,
p6353
F1
sVhorrors
p6354
F1
sVcaptive,
p6355
F1
sVapprehension
p6356
F5
sVcharms.
p6357
F3
sVcharms,
p6358
F5
sVlessen
p6359
F2
sVtolerable
p6360
F1
sVstrangest
p6361
F1
sVstopping
p6362
F1
sVgood-morrow,
p6363
F1
sVcharms;
p6364
F1
sVcharms:
p6365
F1
sVdying,
p6366
F1
sVsubmissive
p6367
F1
sVbrutal
p6368
F7
sVcasting
p6369
F2
sVinitiated;
p6370
F1
sVcharacter;
p6371
F1
sVswoon'd
p6372
F1
sVheart,
p6373
F12
sVheart!
p6374
F1
sVwound
p6375
F5
sVhated,
p6376
F1
sVheart:
p6377
F1
sVadvances
p6378
F1
sVseveral
p6379
F16
sVcomforted
p6380
F1
sV---what
p6381
F1
sVmade:
p6382
F1
sVmade;
p6383
F1
sVaction
p6384
F5
sVcharacters
p6385
F1
sVinsisted
p6386
F1
sVmade,
p6387
F8
sVmade.
p6388
F4
sVmentioning
p6389
F1
sVhearty
p6390
F1
sVgreatest
p6391
F20
sVdetained
p6392
F2
sVhearts
p6393
F1
sVsustain?----why
p6394
F1
sVdeclin'd,
p6395
F1
sVburn,
p6396
F1
sVrecompence
p6397
F4
sVproposed
p6398
F2
sVperfect,
p6399
F1
sVdepart
p6400
F1
sVrivulets
p6401
F1
sVvices
p6402
F1
sVcoward-like
p6403
F1
sVdearer
p6404
F2
sVmeanly
p6405
F1
sVfoot:
p6406
F1
sVfoot,
p6407
F2
sVgave
p6408
F42
sVfeatures,
p6409
F2
sVjealousy!
p6410
F1
sVensue.
p6411
F1
sVensued.
p6412
F1
sVjealousy,
p6413
F1
sVjealousy.
p6414
F1
sVjudge
p6415
F3
sVscruple
p6416
F7
sVmelting
p6417
F2
sVappearing
p6418
F2
sVzeal
p6419
F2
sVcontradict
p6420
F1
sVunsuspecting
p6421
F1
sVany,
p6422
F2
sVoffices
p6423
F4
sVsplendor
p6424
F2
sVarbitrary
p6425
F1
sVhung
p6426
F3
sVoutworks:
p6427
F1
sVbeheld
p6428
F6
sVdispleasure
p6429
F1
sVescape
p6430
F8
sVsister's
p6431
F1
sVnobleman
p6432
F2
sVany.
p6433
F1
sVproceeding
p6434
F1
sVcompanions
p6435
F2
sVapprov'd,
p6436
F1
sVcontest,
p6437
F1
sVdepriv'd
p6438
F4
sVlady)
p6439
F1
sVmedicines,
p6440
F1
sV\u005c---he
p6441
F1
sVhill,
p6442
F1
sVexperienc'd.
p6443
F1
sVhalf-distracted
p6444
F2
sVexperienc'd!
p6445
F1
sVvengeance
p6446
F3
sVefforts
p6447
F4
sVinduc'd
p6448
F1
sVduke
p6449
F1
sVpity'd
p6450
F3
sVpresence
p6451
F12
sVdissolv'd
p6452
F2
sVremove.
p6453
F1
sVaccomplishments
p6454
F2
sVdifference.
p6455
F1
sVvirtue's
p6456
F1
sVsmiles?
p6457
F1
sVforbad
p6458
F2
sVpretended,
p6459
F4
sVportion,
p6460
F1
sVunpolite
p6461
F1
sVhead
p6462
F7
sVmedium
p6463
F2
sVattempted
p6464
F6
sVuncle
p6465
F6
sVsollicite
p6466
F1
sVremoved
p6467
F1
sVhands.
p6468
F1
sVadmiration
p6469
F6
sVseems,
p6470
F2
sV\u005c----every
p6471
F1
sVadore
p6472
F2
sV\u005c---believe
p6473
F1
sVpublickly
p6474
F1
sVfury
p6475
F10
sVsuspicions
p6476
F1
sVpetition
p6477
F1
sVlevity
p6478
F2
sVwillingly
p6479
F4
sVfaithful
p6480
F4
sVno
p6481
F184
sVmoment's
p6482
F1
sVwhen
p6483
F96
sVtis
p6484
F1
sVdespising
p6485
F1
sVobey'd,
p6486
F2
sVceasing,
p6487
F1
sVpermitting
p6488
F1
sVbeams,
p6489
F1
sVsuspicion,
p6490
F1
sVsuspicion.
p6491
F1
sVembraces
p6492
F1
sVdischarge
p6493
F3
sVconstrain
p6494
F1
sVlonger
p6495
F23
sVpaper,
p6496
F2
sVwithhold
p6497
F1
sVlonged
p6498
F1
sVserious
p6499
F3
sVintimacy
p6500
F3
sVpaper;
p6501
F1
sV\u005c----sollicited
p6502
F1
sVremarkable
p6503
F1
sVaffair
p6504
F8
sV\u005c----innocence,
p6505
F1
sVrob
p6506
F2
sVconceiv'd
p6507
F3
sVleads
p6508
F1
sVlingring
p6509
F1
sVaim---that's
p6510
F1
sVwishes,
p6511
F14
sVwishes.
p6512
F1
sVremarkably
p6513
F1
sVdiscern
p6514
F2
sVprejudicial
p6515
F1
sVcontemplating
p6516
F2
sVpassage
p6517
F1
sVcharge
p6518
F3
sVpromoting
p6519
F1
sVforgiven.
p6520
F1
sVdiscovering
p6521
F5
sVhonoured
p6522
F1
sVcunning
p6523
F2
sVvirgin's
p6524
F1
sVit:----she
p6525
F1
sVadvantage
p6526
F9
sVexalted
p6527
F2
sVhim;---think
p6528
F1
sVo'crcame
p6529
F1
sVone.
p6530
F3
sVroving
p6531
F1
sVcool
p6532
F1
sV\u005c----with
p6533
F1
sV\u005c---she
p6534
F3
sVrestraint,
p6535
F3
sVbrother
p6536
F13
sVbloody,----
p6537
F1
sVquick
p6538
F4
sVpresuming,
p6539
F1
sVsays
p6540
F1
sVinjunction
p6541
F1
sVinvaded
p6542
F2
sVhair,
p6543
F5
sVcomforting
p6544
F1
sVprescription,
p6545
F1
sVone:
p6546
F1
sVdeluded
p6547
F1
sVcontracted
p6548
F2
sVgoes
p6549
F1
sVguilt,
p6550
F2
sVhealth.
p6551
F1
sVdrink,
p6552
F3
sVsubmitted
p6553
F2
sVnearer
p6554
F4
sVafterwards,
p6555
F2
sVattainment
p6556
F1
sVentertain
p6557
F5
sVperswaded
p6558
F2
sVdissipated
p6559
F3
sVsay,
p6560
F13
sVafterwards;
p6561
F1
sVhand;)
p6562
F1
sVcentinels
p6563
F1
sVboast
p6564
F4
sVguilty
p6565
F31
sVbeautiful!
p6566
F1
sVdescended
p6567
F1
sVshook'd
p6568
F1
sVbeautiful,
p6569
F1
sVshootings
p6570
F1
sVmyself.
p6571
F2
sVhumour
p6572
F11
sVmyself,
p6573
F9
sVbowing,)
p6574
F3
sVmyself!
p6575
F1
sVperplex'd
p6576
F2
sVmyself?
p6577
F1
sVtreatment:
p6578
F1
sVarriv'd
p6579
F2
sVconfounded
p6580
F2
sVpermitted
p6581
F2
sVwrongs
p6582
F1
sVmemory
p6583
F3
sVvenice.
p6584
F3
sVriot
p6585
F1
sVvenice,
p6586
F10
sVvenice;
p6587
F1
sVvenice:
p6588
F1
sVthis:----
p6589
F1
sVchapel,
p6590
F2
sVand,
p6591
F20
sVmeans,
p6592
F7
sVwrong.
p6593
F1
sVmeans.
p6594
F1
sVinveterate
p6595
F1
sVunruly
p6596
F1
sVmeans;
p6597
F1
sVnumbers
p6598
F4
sVchance;
p6599
F1
sVfigure
p6600
F2
sVupbraidings!
p6601
F1
sVbigot
p6602
F1
sVmov'd
p6603
F1
sVupbraidings,
p6604
F1
sVmismanagement
p6605
F2
sVstones:
p6606
F1
sVspeaks
p6607
F1
sVwinds.
p6608
F1
sVardours,----those
p6609
F1
sVunawares
p6610
F2
sVinforms
p6611
F1
sVdepriving
p6612
F4
sVoversway
p6613
F1
sVdistress!
p6614
F1
sVbranches
p6615
F1
sVsucceeded
p6616
F1
sVspeak!
p6617
F1
sVamuse
p6618
F1
sVenemies.
p6619
F2
sVinform
p6620
F11
sVwounds,
p6621
F1
sVinfidels
p6622
F1
sVsecure;
p6623
F1
sVlamented
p6624
F1
sVimagining
p6625
F10
sVconversation;
p6626
F1
sVpermission.
p6627
F1
sVcomfort
p6628
F1
sVpope's
p6629
F2
sVappartment
p6630
F2
sVfurnished
p6631
F1
sVhence;
p6632
F1
sVclairs,
p6633
F2
sVconversation.
p6634
F1
sVconversation,
p6635
F4
sVweather,
p6636
F1
sVpolicy!
p6637
F1
sVinvent:
p6638
F1
sVhe'd
p6639
F1
sVcivil
p6640
F1
sVoffers
p6641
F1
sVhappened
p6642
F3
sVmotion,
p6643
F1
sVhelp'd
p6644
F2
sVconquer
p6645
F1
sVexecute
p6646
F2
sVname
p6647
F14
sVcontents,
p6648
F1
sVoffer,
p6649
F1
sVintroduc'd:---but,
p6650
F1
sVsoon,
p6651
F2
sVrecovery;
p6652
F1
sVflorez,
p6653
F19
sV\u005c----her
p6654
F3
sVodium,
p6655
F1
sVcall'd
p6656
F9
sVdejected
p6657
F1
sVcrime!
p6658
F1
sVtorch
p6659
F1
sVparent's
p6660
F2
sVcatching
p6661
F3
sVbegun
p6662
F1
sVtumultuous
p6663
F3
sVdisposition:----how
p6664
F1
sVwith:----the
p6665
F1
sVthus,
p6666
F9
sVunlovely,
p6667
F1
sVlove;---this
p6668
F1
sVshe
p6669
F886
sVconfessed,
p6670
F1
sVhaughty,
p6671
F1
sVattended
p6672
F6
sVinfidelity
p6673
F2
sVdispatched
p6674
F1
sV\u005c----you'll
p6675
F1
sVstate,
p6676
F3
sVdelude
p6677
F1
sVspleen,
p6678
F1
sVimpose
p6679
F1
sVturn
p6680
F12
sVplace
p6681
F39
sVwidow
p6682
F1
sVfeign
p6683
F2
sVanxiety,
p6684
F1
sVitaly,
p6685
F1
sVwave
p6686
F1
sVfaculty
p6687
F1
sVtemper.
p6688
F1
sVtemper,
p6689
F3
sVgiven
p6690
F27
sVpersons,
p6691
F2
sVenclosed,
p6692
F1
sVfought
p6693
F1
sVgives
p6694
F1
sVis!---how
p6695
F1
sVseason
p6696
F1
sVmen's
p6697
F2
sVinexpressible
p6698
F3
sVreleased
p6699
F1
sVgive,
p6700
F2
sVgive.
p6701
F2
sVsuspended,
p6702
F1
sVearth:
p6703
F1
sVearth;
p6704
F1
sVrequire
p6705
F1
sVreturn,
p6706
F2
sVreturn.
p6707
F1
sVpoisoning
p6708
F1
sVreturn;
p6709
F2
sVoath
p6710
F1
sVearth,
p6711
F2
sVand
p6712
F1278
sVchequer'd
p6713
F1
sVrend
p6714
F2
sVconfessed
p6715
F1
sVfall,
p6716
F1
sVah!
p6717
F1
sVrent
p6718
F1
sVany
p6719
F204
sVconversion
p6720
F1
sVpassengers.
p6721
F1
sVwanderer
p6722
F2
sVleap'd
p6723
F1
sVobliging;
p6724
F1
sVwere.
p6725
F1
sVunavailing
p6726
F2
sVlate,
p6727
F2
sVacknowledg'd;
p6728
F1
sVurge
p6729
F4
sVgood-nature
p6730
F1
sVsure
p6731
F6
sVsell,
p6732
F1
sVapprize
p6733
F1
sVrevolving
p6734
F1
sVrustick's
p6735
F1
sVreluctance,
p6736
F4
sVstrength,
p6737
F3
sVrickamball,
p6738
F1
sVproud
p6739
F2
sVidea,
p6740
F1
sVcruelly
p6741
F1
sVhear
p6742
F27
sVquantity
p6743
F1
sVbawling
p6744
F1
sVcheat
p6745
F1
sVcondition.
p6746
F1
sVindulgence,
p6747
F1
sVtrod
p6748
F1
sVspaces
p6749
F1
sVsoften'd
p6750
F1
sVuncle,
p6751
F5
sVhim,----
p6752
F1
sVbenedictine
p6753
F1
sVfulsome
p6754
F1
sVobstinacy
p6755
F2
sVcrime
p6756
F12
sVbelieving
p6757
F10
sVpartake
p6758
F1
sVlighted
p6759
F1
sVbeliev'd
p6760
F11
sVexpectation
p6761
F1
sVtreachery
p6762
F2
sVreveal
p6763
F7
sVregarding
p6764
F1
sVprejudice,
p6765
F2
sVmelancholy;
p6766
F1
sVfainted
p6767
F1
sVhoped,
p6768
F2
sVof;----for
p6769
F1
sVpronounc'd
p6770
F1
sVunlicensed
p6771
F1
sVpains!
p6772
F1
sVmelancholy,
p6773
F3
sVprepar'd
p6774
F2
sVobliging
p6775
F9
sVprofessed
p6776
F1
sVsuffer
p6777
F14
sVrelief;
p6778
F1
sVways
p6779
F1
sVmission;
p6780
F1
sVits
p6781
F13
sVrelief,
p6782
F2
sVpriest,
p6783
F1
sVsaid.
p6784
F1
sVmerit.
p6785
F1
sVarrival
p6786
F3
sVable;
p6787
F1
sVneedst
p6788
F1
sVreveal;
p6789
F1
sVinseparable
p6790
F2
sVable,
p6791
F2
sVdisdainful
p6792
F2
sVproportion'd
p6793
F2
sVdutiful
p6794
F1
sVcome
p6795
F24
sVreveal,
p6796
F1
sVtruth:
p6797
F2
sVway;
p6798
F2
sVway:
p6799
F1
sVvices,
p6800
F1
sVhis,
p6801
F4
sVhis.
p6802
F2
sVquiet
p6803
F1
sVcontract
p6804
F2
sVweapon,
p6805
F1
sVway.
p6806
F1
sVrecourse;
p6807
F1
sVway,
p6808
F6
sVo'erwhelm'd
p6809
F2
sVfail.
p6810
F1
sVduty
p6811
F3
sVafterwards
p6812
F7
sVdeeds
p6813
F1
sVunquiet
p6814
F1
sVresentment
p6815
F2
sVsatisfaction
p6816
F11
sV\u005c----daggers
p6817
F1
sVfeel;---but
p6818
F1
sVmerit:
p6819
F1
sVfierce,
p6820
F1
sVgazer;
p6821
F1
sVtittle
p6822
F1
sVassur'd
p6823
F8
sVjoy;
p6824
F1
sVblessing
p6825
F6
sVtaffety
p6826
F2
sVperforming?
p6827
F1
sVafterward,
p6828
F1
sVcareful
p6829
F1
sVspirit
p6830
F5
sVcase
p6831
F4
sVmyself
p6832
F34
sVlife?
p6833
F2
sVtwigs
p6834
F1
sVlife;
p6835
F7
sVlife:
p6836
F2
sVcast
p6837
F5
sVdeplorable,
p6838
F1
sVlife!
p6839
F2
sVlife.
p6840
F6
sVshrieks
p6841
F1
sVlife,
p6842
F22
sV\u005c----none
p6843
F1
sVmorning,---i
p6844
F1
sVpalliate
p6845
F1
sV(far
p6846
F1
sVperson.
p6847
F1
sVcontemn'd,
p6848
F1
sVperson,
p6849
F7
sVaffrighted
p6850
F1
sVrecounted
p6851
F3
sVpruning
p6852
F1
sVsides,
p6853
F3
sVrevolutions
p6854
F1
sVbred.
p6855
F1
sVauthor
p6856
F2
sVgranted
p6857
F2
sVreminded
p6858
F1
sVinjurious
p6859
F3
sVagitated
p6860
F1
sVspy'd
p6861
F1
sVconvert,
p6862
F1
sVmuffled
p6863
F1
sVpersons
p6864
F8
sVdelicate
p6865
F1
sVchanging
p6866
F1
sVconvert;
p6867
F1
sVevent.
p6868
F1
sVbow,
p6869
F2
sVresolved,
p6870
F1
sVwithout
p6871
F80
sVrelief
p6872
F3
sVreward
p6873
F5
sVbodies
p6874
F1
sVjustify
p6875
F1
sVto-morrow's
p6876
F2
sVguided
p6877
F1
sVactions
p6878
F3
sVlavish
p6879
F1
sVviolent
p6880
F11
sVcease
p6881
F3
sVimpressions,
p6882
F1
sVreality
p6883
F8
sVblow
p6884
F3
sVhappiness,
p6885
F3
sVlabyrinth,
p6886
F1
sVpossible.
p6887
F1
sVrose
p6888
F5
sVpossible,
p6889
F6
sVseems
p6890
F1
sVexcept
p6891
F2
sVluscious
p6892
F2
sVhappiness;
p6893
F1
sVquality,
p6894
F4
sVpossible;
p6895
F1
sVguide,
p6896
F4
sVholding
p6897
F2
sVastonished,
p6898
F1
sVaddress,
p6899
F2
sVaccepted
p6900
F1
sVdull,
p6901
F1
sVwoman!
p6902
F1
sValways
p6903
F10
sVwoman,
p6904
F11
sVfriar
p6905
F1
sVwoman.
p6906
F1
sVreduced
p6907
F2
sVseem!
p6908
F1
sVvain,
p6909
F3
sVvain!
p6910
F1
sVvain:
p6911
F1
sVrespect
p6912
F3
sVfear:
p6913
F1
sVprovided
p6914
F7
sVobey,
p6915
F2
sVimputed
p6916
F1
sVquitting
p6917
F5
sVguiltless
p6918
F1
sVconvincing
p6919
F3
sVmiles.
p6920
F1
sVcommunicate
p6921
F3
sVclapp'd
p6922
F1
sVterrified
p6923
F2
sVindulg'd
p6924
F2
sVburden,
p6925
F1
sVcompos'd
p6926
F2
sVon
p6927
F252
sVpen,
p6928
F1
sVzealous
p6929
F3
sVof
p6930
F1804
sVtatter'd
p6931
F1
sVinforming
p6932
F1
sVstop,
p6933
F2
sVwhence
p6934
F4
sVstand
p6935
F3
sVbaffles
p6936
F1
sVor
p6937
F147
sVvespers,
p6938
F1
sVoccasions.
p6939
F1
sVoccasions,
p6940
F3
sVcurses
p6941
F2
sVgarb
p6942
F3
sVoccasions;
p6943
F1
sVaccounts
p6944
F2
sVdetestation.
p6945
F1
sVreparation.
p6946
F1
sVcertain,
p6947
F1
sValarm'd
p6948
F4
sVlull'd
p6949
F1
sVsoftly
p6950
F1
sVstrictly
p6951
F2
sVthere
p6952
F121
sVhazards
p6953
F1
sVdisposed
p6954
F3
sVchristianity
p6955
F1
sVstrict
p6956
F3
sVmortal,
p6957
F1
sV\u005c----plainly
p6958
F1
sVmischief
p6959
F4
sVtore,
p6960
F1
sVlost.
p6961
F1
sVtroubles,
p6962
F1
sVregard
p6963
F11
sVamongst
p6964
F2
sVbefel
p6965
F1
sVinveteracy,
p6966
F1
sVcurse,
p6967
F1
sVskies,
p6968
F1
sVaccount;
p6969
F1
sVtroubles;
p6970
F1
sVapplying
p6971
F2
sVmultiplicity
p6972
F2
sVtouch'd
p6973
F4
sVstrongly
p6974
F1
sVfrighted
p6975
F4
sVwords;
p6976
F3
sVwords:
p6977
F6
sVtaste
p6978
F2
sVyou:---there's
p6979
F1
sVwords,
p6980
F27
sVdeserve
p6981
F2
sVnoblemen
p6982
F2
sVdeceiv'd
p6983
F2
sVmulyzeden,
p6984
F24
sVmulyzeden.
p6985
F2
sVmulyzeden)
p6986
F1
sVpillows
p6987
F1
sVseparate
p6988
F3
sVmulyzeden!
p6989
F1
sVdishonour
p6990
F2
sVmulyzeden;
p6991
F1
sVmulyzeden:
p6992
F1
sVcastle,
p6993
F1
sVcalls
p6994
F4
sVwife
p6995
F11
sVsword.
p6996
F1
sVsword,
p6997
F1
sVlamentations
p6998
F1
sVtransports
p6999
F1
sVamour,
p7000
F1
sVperswasive,
p7001
F1
sVtarry
p7002
F1
sVexecuting
p7003
F2
sVfollow
p7004
F2
sVfar.
p7005
F1
sVglimpse
p7006
F1
sVhomage
p7007
F1
sVburden'd
p7008
F1
sVopportunities
p7009
F3
sVremoval
p7010
F1
sVdance
p7011
F1
sVadvice
p7012
F1
sVwoman
p7013
F21
sVhenriquez!
p7014
F1
sVworse
p7015
F9
sVfar
p7016
F48
sVhenriquez,
p7017
F14
sVhenriquez.
p7018
F1
sVinduce
p7019
F1
sVseal,
p7020
F1
sVworst
p7021
F3
sVawful
p7022
F1
sVhenriquez;
p7023
F3
sVhenriquez:
p7024
F1
sVtreating
p7025
F2
sVlist
p7026
F1
sVsay,)
p7027
F1
sVundone
p7028
F3
sVten
p7029
F1
sVshould,
p7030
F2
sVlanguishment
p7031
F1
sVdesign
p7032
F21
sVnecessary,
p7033
F1
sVwhat
p7034
F282
sVabandon'd
p7035
F1
sVhesitation
p7036
F1
sVfreely,
p7037
F1
sVsun
p7038
F1
sVsum
p7039
F1
sVgoodnatur'd
p7040
F1
sVbrief
p7041
F2
sVnuptials,
p7042
F1
sVcrush
p7043
F1
sVallow,
p7044
F2
sVnuptials;
p7045
F1
sVguns
p7046
F1
sVmultitude
p7047
F3
sVchristian
p7048
F3
sVturn;
p7049
F1
sVcourtezan,
p7050
F1
sVwill.
p7051
F1
sVextinguish'd,
p7052
F1
sVo'erthrown!----how,
p7053
F1
sVbehaviour
p7054
F16
sVwhen,
p7055
F4
sVdirections
p7056
F1
sVobserving
p7057
F2
sVperswasions
p7058
F2
sVdisagreeable,
p7059
F1
sVdifficulty
p7060
F4
sVextremes
p7061
F2
sVmust,
p7062
F1
sVrespectfully,)
p7063
F1
sVknow?
p7064
F1
sVsolitude
p7065
F3
sVexcused;
p7066
F1
sVknow,
p7067
F7
sVwitness,
p7068
F1
sVhorse,
p7069
F3
sVfaint
p7070
F3
sVconspiring
p7071
F2
sVterrors,
p7072
F1
sVwretched
p7073
F8
sVrome,
p7074
F7
sVmad
p7075
F2
sVwretches
p7076
F1
sVself-poiz'd,
p7077
F1
sVglad
p7078
F5
sVmyrtano,
p7079
F33
sVmyrtano.
p7080
F2
sVquestions,
p7081
F1
sVmyrtano)
p7082
F2
sVowing,
p7083
F2
sVmyrtano!
p7084
F1
sVineffectual
p7085
F4
sVmyrtano:
p7086
F1
sVmyrtano;
p7087
F3
sVutter'd,
p7088
F2
sVballs,
p7089
F1
sVfalshood:
p7090
F1
sVinfluenced
p7091
F1
sVcourt
p7092
F11
sVmiramont
p7093
F2
sVrather
p7094
F14
sVbreaking
p7095
F4
sVhers?
p7096
F1
sVstemming
p7097
F1
sVinfluences
p7098
F1
sVacknowledging
p7099
F1
sVsimplicity
p7100
F2
sV(pursued
p7101
F1
sVreflect
p7102
F4
sVadventure
p7103
F1
sVdissolving
p7104
F1
sVshort
p7105
F8
sVinfluence!
p7106
F1
sVhad,----the
p7107
F1
sVinfluence,
p7108
F1
sVinfluence.
p7109
F1
sVdeparture
p7110
F5
sVartful
p7111
F3
sVhandsome?
p7112
F1
sVinfluence:
p7113
F1
sVwould.
p7114
F1
sVwould,
p7115
F6
sVmission
p7116
F1
sVwould!
p7117
F1
sVthese,
p7118
F1
sVstyle
p7119
F2
sVseverely
p7120
F1
sValready,
p7121
F1
sVinward
p7122
F5
sVsigh;
p7123
F1
sVrickamboll
p7124
F2
sVmight
p7125
F75
sVreturn
p7126
F35
sVpersecutions
p7127
F1
sVlittle,
p7128
F2
sVzatilda
p7129
F15
sVinsensibility
p7130
F2
sVquarrel,
p7131
F1
sVquarrel.
p7132
F1
sVadventurous
p7133
F1
sVmyrtano's,
p7134
F1
sVintricacy
p7135
F2
sVwas!---what
p7136
F1
sVdone
p7137
F23
sVfriendship
p7138
F13
sVmanner;----and
p7139
F1
sVroof;
p7140
F1
sVweight
p7141
F2
sVneedless
p7142
F2
sVinjur'd
p7143
F4
sVexpect
p7144
F6
sVundertake
p7145
F1
sVhenriquez's
p7146
F4
sVwondered
p7147
F2
sVbeguil'd
p7148
F1
sVdisquiet
p7149
F2
sVimploring
p7150
F1
sVhealth
p7151
F1
sV\u005c----those
p7152
F2
sVaudience,
p7153
F1
sVboldness
p7154
F3
sVhonorius's
p7155
F1
sVguess
p7156
F8
sVfoible
p7157
F1
sVinexpressible,
p7158
F1
sVtenderest
p7159
F5
sVsuddenly,
p7160
F1
sVthrown
p7161
F6
sVring,----by
p7162
F1
sVconvey'd
p7163
F2
sVprejudice
p7164
F2
sVfamily.
p7165
F1
sVconsequence
p7166
F5
sVfallen
p7167
F7
sVfeed
p7168
F1
sVinformations
p7169
F1
sVdine
p7170
F1
sVseeming
p7171
F7
sVdistasteful
p7172
F1
sVfeel
p7173
F7
sVrelate
p7174
F4
sVfancy
p7175
F1
sVentreated
p7176
F12
sVfeet
p7177
F2
sVwench
p7178
F2
sVstory
p7179
F9
sVbreathless
p7180
F1
sVgates,
p7181
F1
sVthoughts,
p7182
F6
sVinterviews
p7183
F1
sVthoughts;
p7184
F1
sVaim,
p7185
F1
sVaim.
p7186
F1
sVendearing
p7187
F2
sVpassed
p7188
F4
sVaccomplish'd
p7189
F4
sVrecovered
p7190
F1
sVattendants
p7191
F1
sVimperfect
p7192
F1
sVrelieved
p7193
F1
sVfrom,
p7194
F2
sVfrom.
p7195
F2
sVimprinted
p7196
F1
sVencrease;
p7197
F1
sVimmediately.
p7198
F3
sVimmediately,
p7199
F6
sVvindication
p7200
F1
sVweigh'd
p7201
F2
sVconvinced
p7202
F1
sVking
p7203
F11
sVkind
p7204
F9
sVdouble
p7205
F1
sVaims
p7206
F3
sVbrib'd
p7207
F3
sVdoubly
p7208
F1
sVpilgrimage;
p7209
F1
sVtongues
p7210
F1
sVseason,
p7211
F1
sVsearch,
p7212
F1
sVcomplaining,
p7213
F1
sVwarning?
p7214
F1
sVsearch;
p7215
F1
sVexcess,
p7216
F1
sVbefore,)
p7217
F1
sValike
p7218
F1
sVafflicton,
p7219
F1
sVracks,
p7220
F1
sVnights
p7221
F3
sVcheck
p7222
F1
sVlong'd
p7223
F4
sVarriv'd,
p7224
F3
sVwindow,
p7225
F3
sVfinding
p7226
F13
sVadded
p7227
F8
sVencounter,
p7228
F1
sVmeasures
p7229
F5
sVreach
p7230
F11
sVcurse
p7231
F4
sVcomplainings
p7232
F1
sVnothing
p7233
F51
sVwindows
p7234
F2
sVnight:
p7235
F1
sVsecurity.
p7236
F1
sVsecurity,
p7237
F1
sVnight)
p7238
F1
sVnight,
p7239
F2
sVassistance
p7240
F1
sVnight.
p7241
F3
sVfond
p7242
F10
sVrender'd
p7243
F6
sVsigh'd
p7244
F1
sVbelieve
p7245
F22
sVsecuring
p7246
F2
sVadvantages:
p7247
F1
sVembrace,
p7248
F1
sVpenalty
p7249
F1
sVlawful:----but
p7250
F1
sVbetray
p7251
F3
sVaffrontive,
p7252
F1
sVadvantages,
p7253
F1
sVpassion,)
p7254
F1
sVhis
p7255
F540
sVhit
p7256
F1
sVpearl,
p7257
F1
sVinvoke
p7258
F1
sVlament,
p7259
F1
sVwarmth:
p7260
F1
sVfancying
p7261
F1
sVesteem:----i
p7262
F1
sVlist'ning
p7263
F4
sVlongest
p7264
F1
sVreply
p7265
F2
sVjourney,
p7266
F6
sVjourney.
p7267
F1
sVhim
p7268
F247
sVcommiserated
p7269
F1
sVrepulses
p7270
F1
sVmedicines
p7271
F1
sVinsensibility,
p7272
F1
sVcarry'd
p7273
F8
sVtill,
p7274
F1
sVearnestness,
p7275
F1
sVrelentless
p7276
F1
sVinsensible
p7277
F5
sVforego
p7278
F1
sVart
p7279
F8
sVcity,
p7280
F1
sVintelligence
p7281
F3
sVdumb
p7282
F1
sVare
p7283
F70
sVdesire:----
p7284
F1
sVheaped
p7285
F1
sVarm
p7286
F1
sVcompell'd
p7287
F2
sVforlorn
p7288
F1
sVsurmounted
p7289
F2
sVriddle:
p7290
F1
sVvarious
p7291
F8
sVplung'd
p7292
F2
sVblaze.
p7293
F2
sVavow'd
p7294
F1
sVother's
p7295
F4
sVafter,
p7296
F2
sVchamber.
p7297
F1
sVchamber,
p7298
F6
sVframe,----convulsing
p7299
F1
sVattention
p7300
F3
sVfearing,
p7301
F1
sVsilk-worms,
p7302
F1
sVexcellence!
p7303
F1
sVchamber;
p7304
F2
sVdays,
p7305
F3
sVsucceed
p7306
F2
sVunexpectly
p7307
F1
sVfalse!
p7308
F1
sVwished)
p7309
F1
sVfalse,
p7310
F3
sVhowever;
p7311
F1
sVunion.
p7312
F1
sVbecame
p7313
F9
sVformer.
p7314
F1
sVformer,
p7315
F4
sVlearn,
p7316
F1
sVadmir'd
p7317
F2
sVnettled
p7318
F1
sVknew,
p7319
F1
sVdistress
p7320
F2
sVreasons
p7321
F9
sVwrongs,
p7322
F3
sVharbour
p7323
F1
sVimproper
p7324
F1
sVknew;
p7325
F1
sVceremony.
p7326
F1
sVthere,
p7327
F19
sVthere.
p7328
F5
sVdue
p7329
F1
sVwhom
p7330
F54
sVhumours,
p7331
F1
sVflight
p7332
F3
sVavenging
p7333
F1
sVswoonings,
p7334
F1
sVorisons
p7335
F1
sVreason.
p7336
F1
sVreason,
p7337
F8
sVjars
p7338
F1
sVconfess.
p7339
F1
sVconfess,
p7340
F4
sVthirty
p7341
F1
sVparents;
p7342
F1
sVimpatiently
p7343
F4
sVdelighted;
p7344
F1
sVwho,
p7345
F21
sVcurs'd,
p7346
F1
sVbeauty;
p7347
F1
sVbeauty:
p7348
F1
sVbespoke
p7349
F1
sVwhere,
p7350
F2
sVobstacle
p7351
F2
sVanguish
p7352
F6
sVconstancy,
p7353
F1
sVaway.
p7354
F1
sVaway,
p7355
F6
sVfate
p7356
F6
sVtrial
p7357
F1
sVlengths
p7358
F1
sVwindows,
p7359
F1
sVenamour'd.
p7360
F1
sVwindows.
p7361
F2
sVaway;
p7362
F3
sVwidely
p7363
F1
sVesteemed
p7364
F2
sVadvise
p7365
F1
sVornament:---no,
p7366
F1
sVrestor'd
p7367
F1
sVmimick'd
p7368
F1
sVmankind.
p7369
F2
sVmankind,
p7370
F1
sVmoving
p7371
F5
sVmankind)
p7372
F1
sVhigh-rais'd
p7373
F1
sVdaughter,
p7374
F3
sVlower
p7375
F2
sVdaughter.
p7376
F1
sVsoul?
p7377
F1
sVequalled
p7378
F1
sVpeople,
p7379
F3
sVcloak,
p7380
F1
sVapprized
p7381
F1
sVfinish'd,
p7382
F1
sVdaughter;
p7383
F3
sVlength,
p7384
F2
sVdares
p7385
F2
sVfriars,
p7386
F1
sVendeavour
p7387
F11
sVburden
p7388
F2
sVscrupulous
p7389
F1
sVconstitution:
p7390
F1
sVpardoning
p7391
F1
sVdistemper
p7392
F2
sVquestions
p7393
F3
sVabhorr'd
p7394
F1
sVretired
p7395
F2
sVfires,
p7396
F1
sVprince
p7397
F28
sVmeanest
p7398
F1
sVcase,
p7399
F2
sVshape,
p7400
F1
sVcommander,
p7401
F1
sVtormented
p7402
F1
sVcomplaint
p7403
F1
sVwelcom'd
p7404
F1
sVquestion,
p7405
F2
sVhumour;)
p7406
F1
sVfires:
p7407
F1
sVadviser:
p7408
F1
sVmessage
p7409
F3
sVadviser.
p7410
F1
sVsubtil-working
p7411
F1
sVdisguis'd,
p7412
F1
sVessential
p7413
F1
sV\u005c----while
p7414
F1
sVstreaming
p7415
F1
sVbleed,
p7416
F1
sVwomen,
p7417
F3
sVprop
p7418
F1
sVforbear,
p7419
F3
sVvalago,
p7420
F1
sVloud,
p7421
F1
sVturn'd
p7422
F7
sVrefused
p7423
F3
sVunpity'd,
p7424
F1
sVconsolation
p7425
F4
sVbillet;
p7426
F1
sVcautious
p7427
F1
sVmingled
p7428
F7
sVorder:
p7429
F1
sVundoing
p7430
F2
sVscorns
p7431
F1
sVconquest
p7432
F5
sVservices
p7433
F2
sVpiteous
p7434
F1
sVcorsair
p7435
F1
sVartifice
p7436
F8
sVquestion
p7437
F2
sVcondescension,
p7438
F1
sVamidst
p7439
F2
sVdeclaration,
p7440
F1
sVplunge
p7441
F3
sVperplexing
p7442
F1
sVattract,
p7443
F1
sVreflections!
p7444
F1
sVgave,
p7445
F1
sVreflections,
p7446
F1
sVraising
p7447
F5
sVpausing,
p7448
F1
sVgallantry
p7449
F2
sVfulfilling
p7450
F1
sVdeclarations
p7451
F1
sVgratifying
p7452
F1
sVcondescensions
p7453
F1
sVtumults
p7454
F1
sVcalled
p7455
F5
sV\u005c---in
p7456
F1
sVdecency;
p7457
F1
sVbreast;
p7458
F1
sVbreast.
p7459
F1
sVbreast,
p7460
F6
sVreconciliation,
p7461
F1
sVtravell'd;
p7462
F1
sVknowledge.
p7463
F1
sVrains
p7464
F1
sVpeace
p7465
F1
sVconsider'd
p7466
F4
sVendur'd
p7467
F7
sVnice
p7468
F1
sVdictating
p7469
F1
sVrepentance
p7470
F3
sVretire,
p7471
F1
sVmeaning
p7472
F5
sVtoo-lovely,
p7473
F1
sVlanguishments
p7474
F1
sVback:
p7475
F1
sVback;
p7476
F3
sVvice
p7477
F1
sVnun
p7478
F1
sVimpatient
p7479
F17
sVreproaches
p7480
F5
sVflorentine,
p7481
F1
sVonce
p7482
F23
sVsometimes,
p7483
F1
sVrules,
p7484
F1
sVwinds
p7485
F1
sVparticularly
p7486
F2
sVmagnifying
p7487
F1
sVfenced
p7488
F1
sVbefal
p7489
F1
sVme,)
p7490
F1
sVswelling
p7491
F2
sVbreach
p7492
F4
sVabode
p7493
F1
sVconfirmation
p7494
F3
sVwished
p7495
F1
sVdeceiv'd;
p7496
F1
sVnotice----i
p7497
F1
sVbefore;
p7498
F4
sVconfess'd
p7499
F2
sVwishes
p7500
F13
sVrevenging
p7501
F1
sVposture
p7502
F6
sVanother's,----
p7503
F1
sVfence?
p7504
F1
sVtenderness
p7505
F11
sVweek's
p7506
F1
sVconcluded
p7507
F5
sVyou'd
p7508
F1
sVsex)
p7509
F1
sVsex,
p7510
F7
sVmalice
p7511
F3
sVdesire;
p7512
F2
sVdesire:
p7513
F1
sVenamoured
p7514
F1
sVplead
p7515
F2
sVdesire,
p7516
F4
sVsex:
p7517
F1
sVdesire.
p7518
F1
sVwork'd
p7519
F1
sVveins,
p7520
F1
sVsex?
p7521
F1
sVinflicts,
p7522
F1
sVsuggest.
p7523
F1
sVlarge,
p7524
F1
sVsuggest:
p7525
F1
sVsuggest;
p7526
F1
sVcan
p7527
F67
sVunsatisfy'd,
p7528
F1
sVchose
p7529
F2
sVdesires
p7530
F9
sVdesired
p7531
F5
sVoars
p7532
F1
sVseparation
p7533
F1
sVagonies,)
p7534
F1
sVcountermanded
p7535
F1
sVleaving
p7536
F7
sVevading
p7537
F2
sVrequite
p7538
F1
sVshaded
p7539
F1
sVhandsomely
p7540
F1
sVspy
p7541
F1
sVforbid
p7542
F3
sVdetected,
p7543
F1
sVapt
p7544
F1
sVimprobable
p7545
F2
sVlodging
p7546
F1
sVboasts
p7547
F1
sVit;---the
p7548
F1
sVfed
p7549
F1
sVfrom
p7550
F256
sVstream
p7551
F2
sVfew
p7552
F18
sVexamination
p7553
F1
sVfez
p7554
F4
sVsun's
p7555
F2
sVpossession
p7556
F4
sVfez;
p7557
F1
sVboast,
p7558
F2
sVbellraizia
p7559
F11
sVcredulous
p7560
F1
sVheir
p7561
F1
sVmessenger,
p7562
F1
sVmessenger.
p7563
F1
sVfez,
p7564
F5
sVfez.
p7565
F1
sVscale,
p7566
F1
sVexamination,
p7567
F1
sVwomen
p7568
F4
sVfro,
p7569
F1
sVus.
p7570
F3
sVlinger
p7571
F2
sVupbraidings
p7572
F1
sVdiscovered,
p7573
F1
sVaccrued
p7574
F1
sVlaugh'd
p7575
F1
sVobligation;---that
p7576
F1
sVus;
p7577
F2
sVus:
p7578
F1
sVproof
p7579
F6
sVindulgence
p7580
F1
sVpatron
p7581
F1
sVearnestness
p7582
F2
sVcou'd;
p7583
F1
sVvillain
p7584
F4
sVsomething
p7585
F40
sVperplexities
p7586
F2
sVcounterfeit
p7587
F4
sVherself)
p7588
F2
sVunited
p7589
F3
sVsit
p7590
F1
sVvilla,
p7591
F2
sVmein
p7592
F1
sVbury'd
p7593
F1
sVinstead
p7594
F2
sVstruggled
p7595
F2
sVsin
p7596
F4
sVremedy:
p7597
F1
sVattend
p7598
F12
sVdistraction:
p7599
F1
sVhim:)
p7600
F1
sVhazard
p7601
F3
sVdistraction!
p7602
F1
sVmulberry-leaves.
p7603
F1
sVhastily)
p7604
F1
sVhastily,
p7605
F1
sVmoving,
p7606
F2
sVabus'd
p7607
F1
sVreadiness
p7608
F1
sVruffian.
p7609
F1
sVinterrupted
p7610
F4
sVstruggle,
p7611
F2
sVreveng'd
p7612
F2
sVamorous:
p7613
F1
sVaffection,
p7614
F3
sVbeauties
p7615
F1
sVspeak,)
p7616
F1
sVinnumerable
p7617
F1
sVstrove
p7618
F1
sVbeguile
p7619
F1
sVdearest
p7620
F4
sVlooks
p7621
F5
sVsuperior
p7622
F6
sVease,
p7623
F2
sVdy'd
p7624
F3
sVworld;
p7625
F3
sVcontemplative
p7626
F1
sVreduc'd
p7627
F1
sVworld.
p7628
F3
sVworld,
p7629
F16
sVhappened,
p7630
F1
sVpulse,
p7631
F1
sVleisure
p7632
F2
sVflew
p7633
F5
sVambition
p7634
F1
sVaffections
p7635
F4
sVfled
p7636
F5
sVpush,
p7637
F1
sVwretch;
p7638
F1
sVby;
p7639
F1
sVeased
p7640
F1
sVby,
p7641
F1
sVship,
p7642
F6
sVtransmitted
p7643
F1
sVpitying
p7644
F1
sVobtain'd.
p7645
F1
sVobtain'd,
p7646
F1
sVrelated
p7647
F4
sVcomposition:
p7648
F1
sVfreedom,
p7649
F1
sVour
p7650
F51
sVindulged
p7651
F1
sVherself.)
p7652
F1
sVout
p7653
F50
sVacknowledgment
p7654
F2
sVsentiment
p7655
F1
sVendeavours
p7656
F9
sVuncontroll'd,
p7657
F1
sVdive
p7658
F3
sVdespairing
p7659
F1
sVdisclose
p7660
F4
sVworld!----a
p7661
F1
sVpredominant,
p7662
F1
sVmaintains
p7663
F1
sVwatch'd
p7664
F6
sVimpatience
p7665
F7
sVsupport,
p7666
F2
sVrespect;
p7667
F1
sVperform.
p7668
F2
sVbehaviour,
p7669
F5
sVconversation
p7670
F11
sVriding-coat.
p7671
F1
sVbarbarity
p7672
F1
sVunpunish'd.
p7673
F1
sVbehaviour:
p7674
F1
sVrespect.
p7675
F2
sVrespect,
p7676
F1
sVabsence:----or
p7677
F1
sVplainly
p7678
F4
sVcaprice,
p7679
F1
sVregard.
p7680
F1
sVfelicitous
p7681
F2
sVmusing,
p7682
F1
sVproposing
p7683
F1
sVdispos'd
p7684
F1
sVenough;
p7685
F1
sVmyself,)
p7686
F1
sVfasten'd
p7687
F2
sVunknown
p7688
F16
sVdesir'd:
p7689
F1
sVhumour,
p7690
F6
sVaccent
p7691
F4
sVtheir
p7692
F82
sVenough,
p7693
F3
sVdesir'd,
p7694
F2
sVgod's
p7695
F1
sVdesir'd.
p7696
F3
sVunceasing
p7697
F1
sVreflecting
p7698
F4
sVspeak,
p7699
F1
sVhereabouts:
p7700
F1
sVsummoning
p7701
F1
sVretreat,
p7702
F1
sVback-door
p7703
F2
sVabated,
p7704
F2
sVcharms,---
p7705
F1
sVunaccountable
p7706
F2
sVlateness
p7707
F1
sVendeavour,
p7708
F2
sVsincerity
p7709
F1
sVsedateness
p7710
F1
sVensue,
p7711
F1
sVwhich
p7712
F501
sVdivert
p7713
F4
sVcombat
p7714
F1
sVwho
p7715
F187
sVcurs'd
p7716
F5
sVconfided,
p7717
F1
sVcomplaints.
p7718
F1
sVsuspected.
p7719
F1
sVsuspected,
p7720
F2
sValarmed
p7721
F1
sVwhy
p7722
F8
sVhusband's
p7723
F1
sVtraytor!
p7724
F2
sVhim,----in
p7725
F1
sVdeny
p7726
F7
sVrefreshing
p7727
F1
sVdilemma,
p7728
F2
sVlooked
p7729
F1
sVaddition:
p7730
F1
sVbenedictines,
p7731
F1
sVdeceiv'd:----
p7732
F1
sVpermission,
p7733
F2
sVbulging
p7734
F1
sVagreed
p7735
F5
sVone,
p7736
F12
sVartfully
p7737
F2
sVreceiv'd.
p7738
F1
sVutter
p7739
F7
sVfear
p7740
F15
sVone;
p7741
F1
sVpleased
p7742
F3
sVentring
p7743
F4
sVchanced
p7744
F1
sVtrue,
p7745
F2
sVsollicitations
p7746
F3
sVindignant
p7747
F1
sVspun
p7748
F1
sVchance:
p7749
F1
sVribband
p7750
F1
sVmade
p7751
F127
sVsues
p7752
F1
sVplease,
p7753
F4
sVwords
p7754
F28
sVchance,
p7755
F1
sVpenetrate
p7756
F2
sVnaples,
p7757
F3
sVthousand,
p7758
F5
sVhappen'd;
p7759
F1
sVundergone,
p7760
F1
sVmarried
p7761
F1
sVabout;----
p7762
F1
sVashes,
p7763
F1
sVview
p7764
F9
sVhumiliation
p7765
F1
sVexpel
p7766
F2
sVmerits
p7767
F4
sVsuck'd
p7768
F1
sVcloser
p7769
F1
sVdesolation;
p7770
F1
sVcontrition,
p7771
F1
sVcommand;
p7772
F1
sVmonstrous
p7773
F3
sVgenius
p7774
F2
sVbrightness:
p7775
F1
sVcommand,
p7776
F3
sVbought
p7777
F3
sVopening
p7778
F4
sVjoy
p7779
F11
sVchristen'd,
p7780
F1
sVmerit,
p7781
F2
sVideas,
p7782
F1
sVrules
p7783
F2
sVhonorius
p7784
F5
sVcounterfeiting
p7785
F1
sVenvy'd
p7786
F3
sVconversion,
p7787
F1
sVcommands
p7788
F1
sVfatigues,
p7789
F1
sVtorments
p7790
F4
sVwalk
p7791
F6
sVinjustice.
p7792
F2
sVtable
p7793
F2
sVstuff;
p7794
F1
sVunhappiness
p7795
F1
sVgovern'd,
p7796
F1
sVtenacious,
p7797
F1
sVrich,
p7798
F1
sVdivinely
p7799
F2
sVpainted
p7800
F1
sVkisses
p7801
F1
sVsufficient
p7802
F15
sVmeritorious
p7803
F1
sVyeild
p7804
F1
sVoverture
p7805
F1
sVtenderness,---the
p7806
F1
sVremonstrances
p7807
F1
sVrepetition
p7808
F1
sVtorment,
p7809
F3
sVpresent
p7810
F15
sVabandoned
p7811
F1
sVunlike
p7812
F1
sVfearful
p7813
F1
sVwill
p7814
F84
sVwild
p7815
F16
sVwhirlpool
p7816
F1
sVprovince,
p7817
F1
sVthus
p7818
F8
sVrome:
p7819
F1
sVrome;
p7820
F2
sVgiddy:---she
p7821
F1
sVprodigality
p7822
F1
sVperhaps
p7823
F11
sVcross
p7824
F1
sVunite
p7825
F1
sV(pursu'd
p7826
F4
sVadverse
p7827
F2
sVthese:
p7828
F3
sVgrandeur
p7829
F1
sVdifficult
p7830
F6
sVsincerest
p7831
F1
sVslave
p7832
F3
sVmaster's.
p7833
F1
sVfiercest,
p7834
F1
sVconceived
p7835
F2
sVbeast
p7836
F1
sVallow'd
p7837
F2
sVinstigations.
p7838
F1
sVapprove
p7839
F4
sVunlamented.
p7840
F1
sVperpetrate
p7841
F1
sVundertaken
p7842
F2
sVexcessive
p7843
F2
sVcried
p7844
F5
sVonly,
p7845
F1
sVobtain
p7846
F6
sVcondescended
p7847
F1
sVmyrtano,)
p7848
F1
sVrooms,
p7849
F1
sVhappiness
p7850
F7
sVensu'd,
p7851
F1
sVwonder,
p7852
F3
sVtemerity
p7853
F1
sVwonder.
p7854
F1
sVdisturbance
p7855
F2
sVconsole
p7856
F1
sVmajesty
p7857
F3
sVremonstrances,
p7858
F1
sVsupply
p7859
F2
sVother
p7860
F111
sVearnestly
p7861
F5
sVsurprised,
p7862
F1
sVvouch'd
p7863
F1
sVcame,
p7864
F2
sVrecovery,
p7865
F2
sVinducement
p7866
F2
sVunsatiated
p7867
F1
sVknow
p7868
F72
sVpresume
p7869
F1
sVpress
p7870
F5
sVthem,----
p7871
F1
sVimportuned
p7872
F1
sVhosts
p7873
F1
sVmistortune;
p7874
F1
sVher;---the
p7875
F1
sVwonders
p7876
F2
sVbecause
p7877
F27
sVdamn'd
p7878
F3
sVsearching
p7879
F2
sVgrowth
p7880
F1
sVpast,
p7881
F2
sVpast.
p7882
F1
sVracking
p7883
F5
sVempire
p7884
F1
sVsake!
p7885
F1
sVlead
p7886
F1
sVsake,
p7887
F1
sVsake.
p7888
F1
sVsake;
p7889
F1
sVpoets
p7890
F1
sVmurderer
p7891
F1
sVobey
p7892
F2
sVdeath's
p7893
F2
sVmurdered
p7894
F1
sVdisoblige.
p7895
F1
sVinsults
p7896
F2
sVreigns,
p7897
F1
sVmine?
p7898
F2
sVherself;
p7899
F5
sVherself:
p7900
F2
sVmine:
p7901
F2
sVmine;
p7902
F1
sVuntasted
p7903
F1
sVgetting
p7904
F3
sVhimself,
p7905
F7
sVuniverse
p7906
F1
sVhimself.
p7907
F1
sVcomplaisance
p7908
F5
sVblushes,
p7909
F1
sVpassion:----and
p7910
F1
sVmine.
p7911
F1
sVmine,
p7912
F7
sVswear
p7913
F1
sVherself,
p7914
F12
sVherself.
p7915
F2
sVemperor
p7916
F1
sVfatally
p7917
F1
sVhimself:
p7918
F1
sVantonia's,
p7919
F1
sVown
p7920
F65
sVowe
p7921
F1
sVpromise
p7922
F14
sVantonia's;
p7923
F1
sVzatilda:----
p7924
F1
sVmytano's
p7925
F1
sVagonizing
p7926
F1
sVrivals
p7927
F2
sVfaithfully
p7928
F2
sVintention
p7929
F3
sVlooks,---
p7930
F1
sVef
p7931
F1
sVperform'd
p7932
F1
sVcontradictory
p7933
F2
sVcaptain?
p7934
F1
sVwhether
p7935
F12
sVprotesting
p7936
F1
sVthis,
p7937
F19
sVthis.
p7938
F2
sVvenetian
p7939
F1
sVbelow
p7940
F1
sVoppress'd
p7941
F2
sVthis;
p7942
F1
sVthis:
p7943
F2
sVeagerness
p7944
F1
sV---
p7945
F1
sVgoodness
p7946
F4
sVkind.
p7947
F1
sVkind,
p7948
F3
sVnaming
p7949
F1
sVmutual
p7950
F3
sVferdinand!
p7951
F2
sVappease
p7952
F1
sVbating
p7953
F1
sVbook
p7954
F2
sVdisobliging
p7955
F1
sVdisquiets,
p7956
F1
sVsetting
p7957
F2
sV\u005c----why,
p7958
F1
sVmelancholy:----i
p7959
F1
sVcould.
p7960
F1
sVineffectual,)
p7961
F1
sVphilemon:
p7962
F1
sVspace
p7963
F4
sVshall,
p7964
F3
sVentirely.
p7965
F1
sVweariness,
p7966
F1
sVhappen'd
p7967
F12
sVgondula,
p7968
F2
sVit:----but
p7969
F1
sVstruggled,
p7970
F1
s.