ccollections
defaultdict
p1
(c__builtin__
float
p2
tRp3
Vconsidered,
p4
F2
sVwritings
p5
F3
sVyellow
p6
F1
sVfour
p7
F14
sVgag
p8
F1
sVwoods
p9
F2
sVfriend's
p10
F7
sVpreface
p11
F1
sVprotestant,
p12
F4
sVwhither,
p13
F1
sVwhither.
p14
F2
sVkingdom.
p15
F1
sVindured
p16
F1
sVbetter,
p17
F1
sVlord
p18
F12
sVplaced
p19
F17
sVwriting;
p20
F1
sVwood,
p21
F9
sVadvice.
p22
F1
sVwood.
p23
F1
sVadvice,
p24
F1
sVfur
p25
F1
sVstabbed
p26
F2
sVwood;
p27
F1
sVwriting,
p28
F1
sVnight-clothes,
p29
F2
sVdisturb
p30
F1
sVprize
p31
F1
sVwooden
p32
F1
sVwednesday
p33
F1
sVbroiled
p34
F1
sVbrutish
p35
F3
sVher)
p36
F1
sVher.
p37
F61
sVher,
p38
F162
sVhanging
p39
F5
sVher;
p40
F40
sVher:
p41
F20
sVsecond
p42
F4
sVher?
p43
F1
sVrhetorick,
p44
F1
sVoars,
p45
F4
sVescaped,
p46
F1
sVnature,
p47
F3
sVthunder
p48
F1
sVreport,
p49
F1
sVover-joyed
p50
F4
sVdesigning
p51
F4
sVfruits,
p52
F1
sVconjure
p53
F1
sVswoon,
p54
F6
sVhere
p55
F57
sVresignation:
p56
F1
sVhers
p57
F1
sVnatured
p58
F1
sVclimbed
p59
F1
sVpieces,
p60
F2
sVnatures
p61
F1
sVcircumstance,
p62
F1
sVcircumstance.
p63
F1
sVfisherman's.
p64
F1
sVdivide
p65
F1
sVowed
p66
F2
sVexplained
p67
F1
sVcivilities
p68
F3
sVhardships;
p69
F1
sVbrought
p70
F77
sV'hush
p71
F1
sVspeeches,
p72
F1
sVfame.
p73
F1
sVwithin-side
p74
F1
sVspoke
p75
F20
sVglimmering
p76
F2
sVcannibal
p77
F1
sVtherefore
p78
F14
sVexpiring
p79
F1
sVholy
p80
F3
sVbrings
p81
F2
sVsea-fowls
p82
F1
sVhurt
p83
F1
sVglass
p84
F2
sVtying
p85
F1
sVdry:
p86
F1
sVmidst
p87
F1
sVhold
p88
F17
sVcircumstances
p89
F4
sVenflamed
p90
F1
sVcaptain's
p91
F8
sVlocked
p92
F3
sVfrenchmen,
p93
F1
sVpursue
p94
F3
sVadorned,
p95
F1
sVlocker
p96
F1
sVleaped
p97
F4
sVsport.'
p98
F1
sVmisfortunes
p99
F6
sVconstant,
p100
F1
sVvineville,
p101
F1
sVconstant.
p102
F1
sVunjust
p103
F2
sVintreaty,
p104
F1
sVshore,
p105
F26
sVslavery.
p106
F1
sVexpressed,
p107
F1
sVcaution
p108
F1
sVwant
p109
F8
sVshore;
p110
F7
sVotherwise,
p111
F3
sVcomplaining
p112
F1
sVtravel
p113
F2
sVhow
p114
F57
sVhot
p115
F2
sVyouth,
p116
F5
sVyouth.
p117
F1
sVpreferable
p118
F1
sVhoy
p119
F1
sVsomebody,
p120
F1
sVsupplied
p121
F2
sVbeauty
p122
F8
sVenvied
p123
F1
sVmisfortune?
p124
F1
sVcabbin
p125
F1
sVmodest
p126
F1
sVdestined
p127
F1
sVmisfortune.
p128
F2
sVcautiously.
p129
F1
sVendeavoured
p130
F4
sVchaplain,
p131
F1
sVretired,
p132
F2
sVkeeps
p133
F2
sVmount-espaigne,
p134
F1
sVwind
p135
F9
sVwine
p136
F10
sVaffairs,
p137
F1
sVschool,
p138
F1
sVwelcomed
p139
F7
sVdreamed
p140
F1
sVeffect,
p141
F1
sVsharply,
p142
F1
sVflower,
p143
F1
sVfidelity
p144
F1
sValmighty's
p145
F2
sVgermains,
p146
F1
sVstockings;
p147
F1
sVwickedly
p148
F1
sVfit
p149
F12
sVdied,
p150
F1
sVbringing
p151
F4
sVdied;
p152
F1
sVdied:
p153
F1
sVstockings,
p154
F1
sVadmirable
p155
F1
sVready,
p156
F7
sVbarbadoes,
p157
F2
sVgrievous
p158
F1
sVenrich
p159
F1
sVpeasant's
p160
F5
sVfaults.'
p161
F1
sVreviere
p162
F1
sVsilver
p163
F2
sVvipers
p164
F1
sVnoble,
p165
F2
sVblushes
p166
F1
sV'nephew,
p167
F1
sVaverse
p168
F4
sVaddicted
p169
F1
sVblushed
p170
F1
sVobdurate
p171
F2
sVdirectly
p172
F5
sVgarment
p173
F1
sVbowls
p174
F1
sVhardships,
p175
F1
sVintended;
p176
F1
sVill-used
p177
F1
sVcathedral
p178
F1
sVmessage
p179
F1
sVspeed,
p180
F1
sVmisfortune
p181
F8
sVself,
p182
F11
sVat,
p183
F3
sVexcepting
p184
F1
sVpersisted
p185
F2
sVself?
p186
F1
sVencourage
p187
F1
sVself;
p188
F2
sVself:
p189
F1
sVat:
p190
F1
sV'madam,
p191
F8
sVassured
p192
F11
sVwronged.'
p193
F1
sVthreatened
p194
F1
sVborn.
p195
F2
sVfaculties
p196
F1
sVborn,
p197
F2
sVattendants,
p198
F1
sVcanes;
p199
F1
sVguardians;
p200
F2
sVenormous
p201
F1
sVdorinda
p202
F17
sVexposing
p203
F1
sVheavy.
p204
F1
sVperhaps,
p205
F2
sVdisturbed
p206
F1
sVguardians,
p207
F2
sVmoated
p208
F1
sVmademoiselle
p209
F1
sVwash
p210
F2
sVinstruct
p211
F2
sVforthwith,
p212
F1
sVservice
p213
F3
sVmarry,
p214
F2
sVtired
p215
F4
sVnation,
p216
F1
sVneeded
p217
F1
sVnation.
p218
F1
sVmaster
p219
F10
sVvault,
p220
F4
sVlegs
p221
F3
sVbitter
p222
F2
sVeasy.
p223
F1
sVeasy,
p224
F2
sVwas;
p225
F2
sVwas:
p226
F1
sVjanetone
p227
F3
sVwas?
p228
F1
sVwisdom
p229
F2
sVwas)
p230
F1
sVwas,
p231
F29
sVa-bed
p232
F1
sVwas.
p233
F5
sVcrawl
p234
F1
sVleg,
p235
F1
sVmanned.
p236
F1
sVleg.
p237
F1
sVold;
p238
F4
sVtree
p239
F2
sVshower
p240
F2
sVendure
p241
F1
sVold,
p242
F7
sVold.
p243
F2
sVwell,
p244
F7
sVwell.
p245
F2
sV(said
p246
F16
sVsailed
p247
F1
sVaffairs
p248
F2
sVaboard;
p249
F1
sVdexterity;
p250
F1
sVgripe
p251
F2
sVaboard,
p252
F4
sVdoors
p253
F3
sVbowing,
p254
F1
sVrest;
p255
F1
sVcommitting
p256
F1
sVshall
p257
F54
sVperu,
p258
F2
sVobject
p259
F2
sVdiminishing
p260
F1
sVaunt's
p261
F1
sVhutts
p262
F1
sVmouth
p263
F5
sVlong-
p264
F1
sVlong,
p265
F6
sVgrove
p266
F3
sVdoor,
p267
F17
sVdoor.
p268
F2
sVconsummate
p269
F2
sVcame
p270
F91
sVdoor:
p271
F1
sVsaying
p272
F10
sVtoo."
p273
F1
sVdeparting
p274
F1
sVteresa
p275
F17
sVfather's,
p276
F7
sVfather's.
p277
F1
sVparticipate
p278
F2
sVmaid-servant
p279
F1
sVtempted
p280
F1
sVlouisa
p281
F9
sVrepose:
p282
F1
sVmaids,
p283
F1
sVrepose.
p284
F1
sVrepose,
p285
F5
sVbliss
p286
F1
sVtouched
p287
F4
sVrich
p288
F31
sVheartily
p289
F3
sV'no
p290
F1
sVplate
p291
F1
sVmeeting;
p292
F1
sVmathematicks,
p293
F1
sVterrors
p294
F2
sVforemost
p295
F1
sVmatter,
p296
F2
sValtogether
p297
F3
sVrelish
p298
F2
sVcousin;
p299
F1
sVboarder
p300
F1
sVpassing
p301
F4
sVthem;
p302
F14
sVthem:
p303
F3
sVmen,
p304
F5
sVhasted
p305
F7
sVmen.
p306
F1
sVrelease
p307
F4
sVthem.
p308
F25
sVthem,
p309
F75
sVboarded
p310
F2
sVthem)
p311
F1
sVmien.
p312
F2
sVfair
p313
F21
sVisabinda
p314
F15
sVhusband;)
p315
F1
sVfail
p316
F2
sVfain
p317
F5
sVresigned
p318
F4
sVskulls
p319
F1
sVbest
p320
F14
sVestate.
p321
F1
sVestate,
p322
F8
sVrings
p323
F2
sVlodgings.
p324
F1
sVadventure,
p325
F1
sVpit,
p326
F1
sVscorn
p327
F3
sVlodgings:
p328
F1
sVestate;
p329
F3
sVpirate
p330
F15
sVextravagancies
p331
F1
sVpreserve
p332
F5
sVmen
p333
F16
sVnature
p334
F6
sVjucatan
p335
F1
sVsancho
p336
F17
sVpity
p337
F5
sVdescribed,
p338
F1
sVaccident
p339
F3
sVdisdain
p340
F1
sVcountry
p341
F19
sVladies,
p342
F6
sVadventures
p343
F7
sVdemanded
p344
F2
sVring,
p345
F1
sVnormandy
p346
F1
sVhated
p347
F4
sVambition,
p348
F1
sVbetrayed
p349
F2
sVasked
p350
F19
sVnay,
p351
F10
sVdoubt,
p352
F5
sVvain
p353
F11
sVmoney.
p354
F2
sVmoney,
p355
F19
sVspanish,
p356
F1
sVmoney;
p357
F2
sVcommands,
p358
F2
sVangel
p359
F1
sV.
F64
sVstartled
p360
F1
sVlife
p361
F43
sVlift
p362
F5
sVchild
p363
F11
sVunexperienced
p364
F2
sVchests,
p365
F2
sVemploy
p366
F5
sVprostrate
p367
F1
sVproject
p368
F1
sVtrees.
p369
F1
sVtrees,
p370
F3
sVconsent.
p371
F2
sVconsent,
p372
F6
sVanger
p373
F3
sVto-morrow
p374
F1
sVconsent:
p375
F1
sVtrees;
p376
F2
sVvoyage,
p377
F7
sVstrange-fashioned
p378
F1
sVthings
p379
F22
sVshipwrecked
p380
F1
sVsplit
p381
F1
sVpassed,
p382
F3
sVeuropean
p383
F5
sVvoyages
p384
F1
sVincreased,
p385
F1
sVboiled
p386
F2
sVseamen
p387
F1
sVincreased;
p388
F2
sVsupper
p389
F6
sValas!
p390
F7
sVdanced,
p391
F2
sVwanderer
p392
F1
sVattempted,
p393
F1
sVreplied:
p394
F1
sVdamage.
p395
F1
sValas,
p396
F10
sVredeem
p397
F1
sVreplied,
p398
F3
sVcoldness
p399
F2
sVthing.
p400
F1
sVthing,
p401
F3
sVdistribute
p402
F1
sVdisguise
p403
F7
sVenters
p404
F1
sVhad
p405
F625
sVhag
p406
F3
sVthereabouts,
p407
F1
sVobedient
p408
F1
sVinnocent
p409
F10
sVprison
p410
F8
sVhas
p411
F42
sVhat
p412
F1
sVopinion;
p413
F1
sVpossible
p414
F7
sVpossibly
p415
F2
sVbirth
p416
F6
sVsleep,
p417
F1
sVdesire
p418
F5
sVenter;
p419
F1
sVremind
p420
F1
sVbaskets
p421
F2
sVenter,
p422
F1
sVpower.'
p423
F1
sVeffusion
p424
F1
sVright
p425
F5
sVold
p426
F74
sVjackets
p427
F1
sVcrowd
p428
F1
sVpeople
p429
F9
sVcarolina,
p430
F2
sVcrown
p431
F1
sVleft,
p432
F4
sVleft.
p433
F2
sVshake,
p434
F1
sVcreep
p435
F1
sVenemies
p436
F3
sVindians,
p437
F1
sVhorrors,
p438
F1
sVfor
p439
F512
sVbottom
p440
F3
sVinconsolable.
p441
F1
sVwitty
p442
F2
sVfellow-creatures,
p443
F1
sVfob
p444
F1
sVpinched
p445
F1
sVsea-ports
p446
F1
sVmosque,
p447
F2
sVlosing
p448
F3
sVbowing
p449
F2
sVforever;
p450
F1
sVingenious;
p451
F1
sVgrievously
p452
F2
sVrecollect
p453
F2
sVdespair
p454
F7
sVbone-setter
p455
F1
sVmajestick,
p456
F1
sVemilia
p457
F3
sVingenious,
p458
F1
sVraised
p459
F2
sVarms
p460
F13
sVthankful
p461
F2
sVfurnishing
p462
F1
sVwrap
p463
F1
sVsun-setting
p464
F1
sVoften
p465
F23
sVdue.
p466
F1
sVfields.
p467
F1
sVfields,
p468
F1
sVlay,
p469
F1
sVhumble,
p470
F1
sVtame
p471
F1
sVavail
p472
F1
sVgreatness
p473
F2
sVacquainting
p474
F3
sVlaunching
p475
F2
sVhappy
p476
F17
sVwaistcoat
p477
F1
sVoffer
p478
F4
sVso,
p479
F5
sVbeing.
p480
F1
sV1692,
p481
F1
sVso;
p482
F1
sVchamber-door,
p483
F1
sVextremity
p484
F1
sVignorance;
p485
F1
sVexamples
p486
F1
sVpassenger
p487
F2
sVliberal
p488
F1
sVmeagre
p489
F2
sVreserved?
p490
F1
sVprotested
p491
F1
sVweaknesses,
p492
F1
sVsuccour
p493
F1
sVourselves
p494
F10
sVuttered
p495
F1
sVflood
p496
F5
sVambitious
p497
F6
sVanother's.
p498
F1
sVgaming-house,
p499
F1
sValighted;
p500
F1
sVservants;
p501
F1
sVtransported
p502
F11
sV'a
p503
F1
sVmiranda
p504
F3
sVsilvia
p505
F11
sVservants.
p506
F1
sV'i
p507
F9
sVservants,
p508
F13
sVfastened
p509
F6
sVwarm,
p510
F1
sVcrown,
p511
F1
sVtime
p512
F113
sVdisappointments,
p513
F1
sVshrieking
p514
F1
sVconsumed.
p515
F1
sVdoted
p516
F1
sVchair
p517
F3
sVhole
p518
F4
sVprovided,
p519
F2
sVhappy.'
p520
F3
sVsanterell
p521
F9
sVvenice
p522
F1
sVseparated:
p523
F1
sVseparated?
p524
F1
sVcopse
p525
F1
sVoversight
p526
F1
sVseparated,
p527
F1
sVchild:
p528
F3
sVchild;
p529
F4
sVchoice
p530
F5
sVfatigued
p531
F1
sVmanifested.
p532
F1
sVwhile,
p533
F1
sVchild,
p534
F16
sVchild.
p535
F5
sVhenrietta
p536
F1
sVpoor,
p537
F2
sVpoor.
p538
F1
sVtear
p539
F1
sVleave
p540
F41
sVsettle
p541
F9
sVloads
p542
F1
sVson's
p543
F4
sVreformation;
p544
F1
sVprevent
p545
F9
sVspiritual
p546
F2
sVmight,
p547
F1
sVsister.
p548
F1
sVsigh
p549
F2
sVsign
p550
F2
sVshipwrecked,
p551
F1
sVcarpet,
p552
F1
sVeducate
p553
F1
sVmother-in-law's
p554
F1
sVintreating
p555
F1
sVremembered
p556
F1
sVbefought
p557
F1
sVsaw,
p558
F2
sVfalling
p559
F5
sVpassenger,
p560
F1
sVprovidence:
p561
F1
sVapartments.
p562
F1
sVblushes,
p563
F1
sVhonour
p564
F16
sVunderstanding
p565
F1
sVconsult
p566
F1
sVprovidence.
p567
F1
sVprovidence,
p568
F5
sValone
p569
F8
sValong
p570
F21
sVcoutance
p571
F1
sVpassengers
p572
F3
sVconjectures.
p573
F1
sVmerchants.
p574
F1
sVmerchants,
p575
F5
sVbrilliant
p576
F1
sVstudied
p577
F2
sVwherever
p578
F1
sVaccomplished
p579
F5
sVvitiated
p580
F1
sVstudies
p581
F1
sVreclaim
p582
F1
sVbeauties,
p583
F1
sVlove
p584
F40
sVprefer
p585
F3
sVbloody
p586
F2
sVrelations.
p587
F1
sVrelations,
p588
F2
sVred
p589
F1
sVperished
p590
F4
sVpositive
p591
F1
sVvalue,
p592
F2
sVbelieve,
p593
F3
sVpirate-captain,
p594
F1
sVopposed
p595
F2
sVfourth,
p596
F1
sVvalue;
p597
F2
sVbribed,
p598
F1
sVwicked
p599
F14
sVintroducing
p600
F1
sVdampness
p601
F1
sVheathens;
p602
F1
sVwonders,
p603
F2
sVhaul'd
p604
F1
sVrefrain
p605
F1
sVshore.
p606
F7
sVignorant
p607
F1
sVvirtue
p608
F10
sVblood,
p609
F4
sVbehalf
p610
F1
sVvalued
p611
F4
sVpretend
p612
F2
sVprivy
p613
F1
sVinflamed
p614
F5
sVimportunities,
p615
F2
sVvalues
p616
F1
sVbelieved
p617
F4
sVwaggon,
p618
F2
sVadmired
p619
F2
sVremitted
p620
F3
sVacceptance.
p621
F1
sVkindness:
p622
F1
sVmeddle;
p623
F1
sVapplication,
p624
F1
sVlocks
p625
F1
sVshore:
p626
F1
sVstole
p627
F2
sVnight-gown,
p628
F1
sVdivided
p629
F3
sVvainly
p630
F2
sVlying-in,
p631
F2
sV(addressing
p632
F1
sVbrother-in-
p633
F1
sVunderneath;
p634
F1
sVunderneath:
p635
F1
sVdate
p636
F1
sVsuch
p637
F104
sVrevealed
p638
F1
sVconscious
p639
F2
sVescalado,
p640
F1
sVdarkened
p641
F1
sVso
p642
F395
sVpulled
p643
F3
sVstage-coach,
p644
F1
sVconfounded.
p645
F1
sVconfounded,
p646
F1
sVyears
p647
F30
sVcourse
p648
F11
sVin-law;
p649
F1
sVin-law:
p650
F1
sVearly,
p651
F1
sVbelow:
p652
F1
sVdead;
p653
F4
sVsolitary
p654
F4
sVhonesty,
p655
F1
sVdead?
p656
F1
sVhaughty
p657
F1
sVrites,
p658
F1
sVdid,
p659
F5
sVtorn
p660
F2
sVdid)
p661
F1
sVdescend,
p662
F1
sVdead.
p663
F1
sVadmired,
p664
F1
sVdead,
p665
F20
sVtroubled
p666
F2
sVdid;
p667
F2
sVdid:
p668
F1
sVmodestly
p669
F2
sVyear;
p670
F1
sVnation
p671
F3
sVyear,
p672
F2
sVanswer
p673
F6
sVyear.
p674
F1
sVcompelled
p675
F2
sVsubscribers
p676
F1
sVreckoning
p677
F1
sVmaintaining
p678
F2
sVmatched
p679
F1
sVheart?
p680
F1
sVwrote
p681
F1
sVprivately,
p682
F4
sVtrouble,
p683
F1
sVfisherman
p684
F10
sVarms:
p685
F4
sVturtle
p686
F1
sVsquare
p687
F1
sVindisposition.
p688
F1
sVbed-side
p689
F2
sVbeside,
p690
F1
sVbeloved
p691
F2
sVadored,
p692
F1
sVships,
p693
F2
sVowing
p694
F1
sVwood:
p695
F1
sVentering
p696
F1
sVprudently
p697
F2
sVsmall,
p698
F2
sVmolotta
p699
F1
sVcanvas
p700
F2
sVrounding
p701
F1
sVdisguise,
p702
F2
sVseriously
p703
F1
sVsubtile
p704
F2
sVdisguise:
p705
F1
sVcomplimented
p706
F1
sVpossibility
p707
F2
sVquite
p708
F14
sVinwardly
p709
F1
sVbesides
p710
F6
sVremainder
p711
F5
sVsquare,
p712
F1
sVdisguised
p713
F9
sVbassa
p714
F3
sVaboard
p715
F16
sVneglect
p716
F1
sVspeech."
p717
F1
sVsaving
p718
F2
sVcatholick,
p719
F3
sVmercy,
p720
F1
sVone
p721
F136
sVchide
p722
F1
sVgenerosity,
p723
F1
sVspanish
p724
F26
sVopen
p725
F12
sVturtle,
p726
F1
sVcity
p727
F5
sVconvent
p728
F9
sVcoat,
p729
F3
sVstifled
p730
F1
sVstuffed
p731
F1
sVcousin-german,
p732
F1
sVcousin-german.
p733
F1
sVmisfortune,
p734
F2
sVvapours
p735
F1
sVon.
p736
F3
sVon,
p737
F15
sVspoke,
p738
F2
sVmuch,
p739
F1
sVon:
p740
F1
sVon;
p741
F4
sVafford;
p742
F1
sVmuch;
p743
F1
sVrival
p744
F7
sVfolly
p745
F2
sVcoals,
p746
F1
sVcoats
p747
F1
sVdismissed,
p748
F1
sVcavalier
p749
F2
sVwandering
p750
F1
sVprospect
p751
F7
sVpage,
p752
F3
sVillness
p753
F2
sVtasted
p754
F1
sVsumptuous
p755
F1
sVintreaties.
p756
F1
sVintreaties,
p757
F2
sVturned
p758
F8
sVargument
p759
F1
sVjewels
p760
F16
sVsad
p761
F18
sVcordelier
p762
F1
sVsay
p763
F6
sVwinter:
p764
F1
sVburied
p765
F5
sVsaw
p766
F67
sVintreaties:
p767
F1
sVsat
p768
F27
sVlaw,
p769
F1
sVfashionable
p770
F1
sVillness,
p771
F3
sVbad:
p772
F1
sVnote
p773
F2
sVcold,
p774
F1
sVtake
p775
F65
sVdestroy
p776
F5
sVconcern
p777
F6
sValtered
p778
F3
sVjew's
p779
F1
sVknew
p780
F49
sVvice-roy
p781
F2
sVforthwith.
p782
F1
sVgentleman-like
p783
F1
sVsomething;
p784
F1
sVfarmers
p785
F1
sVdrive
p786
F5
sVnot;
p787
F1
sVsomething.
p788
F1
sVcrooked
p789
F1
sVsomething,
p790
F1
sVnot,
p791
F5
sVnot.
p792
F1
sVsalt
p793
F2
sVtrembled
p794
F2
sVlaws
p795
F1
sVwalking
p796
F9
sVdown;
p797
F2
sVmerit
p798
F8
sVhopes
p799
F21
sVbright
p800
F2
sVinconsistent
p801
F1
sVscarce
p802
F15
sVimagined
p803
F1
sVnearer,
p804
F1
sVrelief.
p805
F1
sVslow
p806
F1
sVunkind
p807
F2
sVschooling,
p808
F1
sVcloak
p809
F2
sVeffect.
p810
F1
sVtears
p811
F11
sVgoing
p812
F45
sVequipped
p813
F1
sVuppermost
p814
F1
sVcarolina
p815
F2
sVimagine:
p816
F1
sVguarded
p817
F1
sVusual,
p818
F5
sVrejoiced
p819
F1
sVusual.
p820
F1
sVopen,
p821
F2
sVcondemning
p822
F2
sV'thence
p823
F1
sVcursing
p824
F1
sVimagine)
p825
F1
sVusual;
p826
F1
sVimagine.
p827
F1
sVbrandy,
p828
F1
sVblind,
p829
F1
sVdisabled,
p830
F1
sVpriest
p831
F1
sVwhere
p832
F162
sVthreats,
p833
F2
sVespy
p834
F1
sVexpiate
p835
F1
sVimpressions
p836
F1
sVhastened
p837
F2
sVrewarded
p838
F2
sVfurniture,
p839
F3
sVman;
p840
F2
sVwrought
p841
F1
sVdormitory
p842
F1
sVpetty-prince,
p843
F1
sVfurniture;
p844
F1
sVnaked,
p845
F1
sVrefreshed
p846
F3
sVloaf,
p847
F1
sVman,
p848
F16
sVforsake
p849
F1
sVrage,
p850
F1
sVscreen
p851
F1
sVspare
p852
F3
sVcurate's,
p853
F1
sVrage;
p854
F1
sVspark
p855
F1
sVdeck,
p856
F3
sVconversed
p857
F2
sVmany
p858
F51
sVloudly
p859
F2
sVshivered.
p860
F1
sVshivered,
p861
F2
sVallowance
p862
F2
sVreading:
p863
F1
sVwant:
p864
F1
sVwant.
p865
F1
sVboat
p866
F35
sVwant,
p867
F1
sVvariance:
p868
F1
sVdress,
p869
F6
sVlock'd
p870
F1
sVdress.
p871
F1
sVleander
p872
F10
sVsancho,
p873
F1
sVmounting
p874
F1
sVbreath
p875
F1
sValmighty
p876
F2
sVlikewise
p877
F9
sVvirtuous,
p878
F4
sVconsciences,
p879
F2
sVthousand
p880
F16
sVformed
p881
F1
sVobserve
p882
F2
sVswords,
p883
F1
sVbruised;
p884
F1
sVlye
p885
F11
sVpretence
p886
F5
sVtally-man,
p887
F1
sVendured
p888
F3
sVingratitude,
p889
F1
sVcanoe
p890
F1
sVmussulmen
p891
F1
sVwrapper:
p892
F1
sVengaged
p893
F11
sVarragon
p894
F1
sVbirth.
p895
F2
sVbirth,
p896
F3
sVmarvellous;
p897
F1
sVfame
p898
F1
sVwales,
p899
F1
sVmercies
p900
F1
sVmedenta,
p901
F13
sVresided
p902
F2
sVit.'
p903
F1
sVperpetually
p904
F1
sVdervise,
p905
F2
sVendeavour'd
p906
F1
sVthief,
p907
F1
sVafloat;
p908
F1
sVsickness
p909
F2
sVwidow-woman's
p910
F1
sVdisown
p911
F1
sVmotionless,
p912
F2
sVmadness,
p913
F2
sVshut,
p914
F2
sVeffects
p915
F4
sVsummer
p916
F2
sVfollowed.
p917
F1
sVelvira's,
p918
F2
sVbeing
p919
F335
sVofficers,
p920
F1
sVrest
p921
F19
sVfamished,
p922
F2
sV(i
p923
F1
sV(a
p924
F1
sVrepentance,
p925
F1
sVrepentance.
p926
F1
sVhuts,
p927
F1
sVhereabouts
p928
F1
sVinstrument
p929
F1
sVrepentance;
p930
F2
sVpunishments;
p931
F1
sVjoyful
p932
F5
sVintreated,
p933
F1
sVdark
p934
F4
sVstraw-ware,
p935
F1
sVworld
p936
F14
sVboats,
p937
F2
sVbravery
p938
F2
sVmeat
p939
F3
sVstranger
p940
F14
sVhunger,
p941
F1
sVweek.
p942
F1
sVdespair.'
p943
F1
sVirish,
p944
F1
sVholland,
p945
F2
sVconfide,
p946
F1
sVdivine
p947
F7
sVwanting,
p948
F2
sVmemories
p949
F1
sVnoon
p950
F2
sVfright,
p951
F1
sVrevenged
p952
F2
sVlastly,
p953
F1
sVwaited,
p954
F1
sVbarbarians,
p955
F2
sVpower
p956
F10
sVintimate
p957
F6
sVquarrelled
p958
F2
sVsprung
p959
F3
sVfrenchman
p960
F1
sVstone
p961
F4
sVjoyfully
p962
F4
sVcountenance,
p963
F1
sVapostate
p964
F1
sVapplications,
p965
F1
sVact
p966
F1
sVrevenge.
p967
F1
sVrevenge,
p968
F3
sVbond
p969
F1
sVyielded,
p970
F1
sVsuch,
p971
F3
sVtidings,
p972
F1
sVburning
p973
F3
sVinformed
p974
F24
sVimage
p975
F1
sVwit;
p976
F1
sVtreated,
p977
F3
sVfasting,
p978
F1
sVparties
p979
F1
sVwit,
p980
F2
sVvaluable
p981
F1
sVappeared,
p982
F2
sVher
p983
F1079
sVendeavouring
p984
F2
sVdraw-bridge,
p985
F2
sVphilena
p986
F4
sVwithal.
p987
F4
sVbetrays
p988
F1
sVwithal,
p989
F5
sVneck;
p990
F1
sVappeared;
p991
F3
sVsealed
p992
F1
sVwithal;
p993
F2
sVanother;
p994
F3
sVanother:
p995
F1
sVcomplete
p996
F1
sVchild's
p997
F2
sVshrunk
p998
F1
sVanother.
p999
F1
sVanother,
p1000
F13
sVemeticks
p1001
F1
sVwith
p1002
F834
sVhandsome
p1003
F13
sVpull
p1004
F1
sVswoln
p1005
F1
sVrage
p1006
F2
sVin-law
p1007
F2
sVhe;
p1008
F1
sVhe,
p1009
F35
sVbreathing.
p1010
F2
sValgerines,
p1011
F1
sVagree
p1012
F2
sVgone
p1013
F35
sVpity,
p1014
F2
sVfright
p1015
F4
sVcertain
p1016
F6
sVstealing
p1017
F1
sVam
p1018
F75
sVherb,
p1019
F1
sVreproofs,
p1020
F1
sVdaughter-in-law,
p1021
F2
sVfrustrated;
p1022
F1
sVpity:
p1023
F1
sVat
p1024
F450
sVmidwife
p1025
F3
sVcervantes,
p1026
F1
sVwatched
p1027
F7
sVjargon
p1028
F1
sVangelick
p1029
F1
sVblinded
p1030
F1
sVseats.
p1031
F1
sVindemnify
p1032
F1
sVself.
p1033
F2
sVwalk,
p1034
F2
sVprofession;
p1035
F2
sVherbs
p1036
F2
sVundeceived,
p1037
F1
sVintimation
p1038
F1
sVunbound
p1039
F2
sVuneasiness;
p1040
F1
sVdyed
p1041
F1
sVimpossibility
p1042
F1
sVmass
p1043
F3
sVconsider
p1044
F11
sVcaused
p1045
F7
sVfrier,
p1046
F1
sV(if
p1047
F1
sVsubjects
p1048
F1
sVoaths
p1049
F3
sVdusk,
p1050
F1
sVattentive
p1051
F1
sVduty,
p1052
F3
sVduty.
p1053
F1
sVto
p1054
F2804
sVdressing
p1055
F1
sVsmile
p1056
F1
sValvares
p1057
F1
sVprofession,
p1058
F3
sVpaying
p1059
F1
sVreturned
p1060
F27
sVislands:
p1061
F1
sVislands;
p1062
F1
sVconscience;
p1063
F1
sVconscience:
p1064
F2
sVconscience,
p1065
F4
sVcunningly
p1066
F1
sVislands,
p1067
F4
sVingratitude
p1068
F3
sVlaying
p1069
F4
sVjoined
p1070
F8
sVtransported.
p1071
F1
sVlarge
p1072
F5
sVdanger,
p1073
F1
sVsand
p1074
F1
sVsmall
p1075
F15
sVwealthiest
p1076
F1
sVhas,
p1077
F4
sVeducated,
p1078
F1
sVhonourably
p1079
F2
sVhealed
p1080
F1
sVpast
p1081
F13
sVhonourable
p1082
F5
sVpass
p1083
F10
sVcanvass
p1084
F1
sVdestitute
p1085
F3
sVfisher-boy;
p1086
F1
sVclock
p1087
F2
sVprevailed
p1088
F13
sVdestroyed
p1089
F2
sVnurse
p1090
F1
sVdwells
p1091
F1
sVfull
p1092
F13
sVescaping
p1093
F1
sVleaping
p1094
F1
sVhours
p1095
F11
sVconcluding
p1096
F5
sVferry-boat
p1097
F1
sVcompliance
p1098
F1
sVriviere
p1099
F3
sVexperience
p1100
F1
sVmouldy
p1101
F1
sVprior
p1102
F1
sVsavages,
p1103
F17
sVbravoes
p1104
F1
sVaction
p1105
F4
sVmurdering
p1106
F1
sVearnestly,
p1107
F1
sVsweetness
p1108
F2
sVdepart
p1109
F4
sVgrapes
p1110
F1
sVvie
p1111
F1
sVdrank,
p1112
F1
sVopportunity;
p1113
F1
sVbedside,
p1114
F1
sVheadclothes,
p1115
F1
sVguess,
p1116
F1
sVrudder
p1117
F1
sVattendance
p1118
F2
sVwatch;
p1119
F1
sVwatch:
p1120
F1
sVpearl
p1121
F1
sVmore
p1122
F81
sVdoor
p1123
F19
sVmarriage;
p1124
F2
sVmarriage:
p1125
F1
sVperson.
p1126
F1
sVcompany
p1127
F10
sVspoils
p1128
F2
sVmarriage,
p1129
F8
sVmarriage.
p1130
F2
sVmarriage)
p1131
F1
sVrudeness
p1132
F1
sVcunning
p1133
F3
sVkeeping
p1134
F3
sVgenivive
p1135
F1
sVvicissitudes
p1136
F1
sVthickest
p1137
F1
sVlearn
p1138
F3
sVknocked
p1139
F4
sVclinched;
p1140
F1
sVforesaw;
p1141
F1
sVbeautiful
p1142
F11
sVtreatment:
p1143
F1
sV(with
p1144
F1
sVmeaner
p1145
F1
sVneglected
p1146
F2
sVaccept
p1147
F5
sVdisgrace;
p1148
F1
sVsense
p1149
F12
sVdrest
p1150
F2
sVdress
p1151
F7
sVcondemn
p1152
F1
sVinformation
p1153
F2
sVinstruments,
p1154
F1
sV(then
p1155
F1
sVdismissed
p1156
F1
sVfiercely,
p1157
F2
sVpanting
p1158
F1
sVcreature
p1159
F8
sVnever,
p1160
F1
sVthicket,
p1161
F1
sVnever.
p1162
F1
sVdislike;
p1163
F1
sVintended
p1164
F2
sVpinnace
p1165
F1
sVpont,
p1166
F14
sVstate,
p1167
F5
sVdislike,
p1168
F1
sVwaves
p1169
F3
sVpleaded
p1170
F2
sVplank
p1171
F1
sVrefuse
p1172
F4
sVbrown,
p1173
F1
sVstraw-hats.
p1174
F1
sVsincerity,
p1175
F2
sVreplied
p1176
F3
sVadorned
p1177
F1
sVwaistcoat,
p1178
F2
sVreminded
p1179
F1
sVlooks;
p1180
F1
sVspaniards,
p1181
F3
sVsigns
p1182
F5
sVlooks,
p1183
F1
sVits
p1184
F1
sVcleft,
p1185
F1
sVsaucy
p1186
F1
sVlaced
p1187
F2
sVtruth:
p1188
F1
sVtermed
p1189
F1
sVmeasures,
p1190
F1
sVtruth,
p1191
F3
sVruining
p1192
F1
sVtravelling
p1193
F1
sVit.
p1194
F22
sVit,
p1195
F68
sVabandons
p1196
F1
sVgreat;
p1197
F1
sVpropose
p1198
F2
sVit:
p1199
F5
sVit;
p1200
F16
sVpassage,
p1201
F1
sVgreat,
p1202
F4
sValways
p1203
F19
sVassemblies
p1204
F1
sVcabin-door,
p1205
F2
sVinflexible,
p1206
F1
sVeloquence
p1207
F1
sVfound
p1208
F67
sVall;
p1209
F1
sVall:
p1210
F1
sVbegged
p1211
F15
sVrise.
p1212
F2
sVparts,
p1213
F3
sVresolute
p1214
F1
sVparts.
p1215
F1
sVdoutless
p1216
F1
sVreduce
p1217
F2
sVrise;
p1218
F2
sVemilia,
p1219
F2
sVlanthorn
p1220
F1
sVreally
p1221
F3
sVanxious
p1222
F1
sVdarling
p1223
F1
sVimagine
p1224
F2
sVdenial,
p1225
F1
sVreplyed,
p1226
F1
sVretained
p1227
F1
sVloaf
p1228
F1
sVguests,
p1229
F1
sVafflictions
p1230
F1
sVsilk.
p1231
F1
sVexpedient
p1232
F1
sVblack,
p1233
F3
sVcastle
p1234
F5
sVarose
p1235
F2
sVgazed
p1236
F3
sVnumber
p1237
F1
sVpreservation
p1238
F1
sVasunder;
p1239
F1
sVpledge
p1240
F1
sVguess
p1241
F2
sVcastle-dungeon,
p1242
F1
sVjew
p1243
F7
sVmoderately
p1244
F1
sVmoney-affair,
p1245
F1
sVthreatned
p1246
F1
sVsaint
p1247
F1
sVjustly
p1248
F2
sVfirst,
p1249
F3
sVfirst.
p1250
F1
sVferry;
p1251
F1
sVconceived.
p1252
F1
sVmajestick
p1253
F2
sVfirst;
p1254
F1
sVspunging-house,
p1255
F1
sVapproach,
p1256
F1
sVmedenta's
p1257
F13
sVstifle
p1258
F1
sVstairs
p1259
F4
sVgrace
p1260
F2
sVplay-houses.
p1261
F1
sVsure,
p1262
F1
sVhead:
p1263
F1
sVdetermined
p1264
F7
sVmarriage
p1265
F12
sVfishermen
p1266
F1
sVhead,
p1267
F5
sVwants.'
p1268
F1
sVsupposed.
p1269
F1
sVsupposed,
p1270
F4
sVshift,
p1271
F3
sVsingle,
p1272
F1
sVmend,
p1273
F1
sVsell
p1274
F11
sVfashion,
p1275
F2
sVself
p1276
F43
sVwish,
p1277
F1
sValso
p1278
F12
sVhour's
p1279
F1
sVfrail
p1280
F1
sVwish;
p1281
F1
sVfashion;
p1282
F1
sVpoorly,
p1283
F1
sVplay
p1284
F3
sVfight;
p1285
F1
sVmonastery
p1286
F6
sVeffecting
p1287
F1
sVunused
p1288
F1
sVwedded
p1289
F2
sVfight.
p1290
F1
sVdemand
p1291
F1
sVseize
p1292
F5
sVsometimes
p1293
F6
sVcover
p1294
F1
sVsilver;
p1295
F1
sVparting,
p1296
F1
sVparting;
p1297
F1
sVbarrel
p1298
F1
sVdragged
p1299
F4
sVblushing,
p1300
F1
sVgold
p1301
F11
sVreformed,
p1302
F1
sVhoisted
p1303
F1
sVseated,
p1304
F1
sVbaneful
p1305
F1
sVfault."
p1306
F1
sVoverwhelmed
p1307
F5
sVfrequently,
p1308
F2
sVpleasure:
p1309
F1
sVball
p1310
F1
sVfailed
p1311
F3
sVunjustly
p1312
F1
sVpleasure.
p1313
F3
sVpleasure,
p1314
F3
sVstartled;
p1315
F2
sVthat:
p1316
F1
sValive.
p1317
F2
sValive,
p1318
F4
sValive)
p1319
F1
sVresent
p1320
F1
sVmentioned,
p1321
F1
sVcompass
p1322
F1
sValive?
p1323
F1
sValive;
p1324
F1
sVdistraction
p1325
F4
sVenemy
p1326
F1
sVdevoured
p1327
F5
sVpleasures
p1328
F1
sVcry
p1329
F1
sVwrite,
p1330
F2
sVobscure
p1331
F1
sVriver
p1332
F6
sVlove-letters
p1333
F1
sVapproaching
p1334
F1
sVdelicately
p1335
F1
sVset
p1336
F51
sVsee
p1337
F51
sVsea
p1338
F16
sVwrong'd
p1339
F1
sVknees
p1340
F2
sVjewels;
p1341
F1
sVspirits
p1342
F1
sVseconded
p1343
F1
sVjewels,
p1344
F7
sVsoftly,
p1345
F1
sVsoftly.
p1346
F1
sVtho'
p1347
F50
sVeffected;
p1348
F1
sVeurope
p1349
F2
sVgriefs,
p1350
F2
sVincident
p1351
F1
sVrenewed
p1352
F1
sVcatharina
p1353
F10
sVspake
p1354
F1
sVpagan
p1355
F1
sVlast
p1356
F84
sVobjects
p1357
F1
sVweary,
p1358
F3
sVpoverty
p1359
F1
sVspirit,
p1360
F2
sVwhole
p1361
F27
sVload
p1362
F3
sVstone's
p1363
F1
sVtown,
p1364
F11
sVpleasures,
p1365
F3
sVtown.
p1366
F1
sVacted
p1367
F4
sVhollow
p1368
F1
sVtown;
p1369
F7
sVtown:
p1370
F1
sVchurch
p1371
F4
sVsilence:
p1372
F1
sVdevil
p1373
F2
sVpublishing
p1374
F1
sVloves,
p1375
F1
sVextravagant
p1376
F2
sVbrocade,
p1377
F1
sVrevengeful:
p1378
F1
sVsilenced
p1379
F1
sVfire
p1380
F6
sVawake
p1381
F1
sVexquisite
p1382
F1
sVvitious
p1383
F1
sVuncertain
p1384
F1
sVbones,
p1385
F3
sVadmire
p1386
F1
sVover-spread
p1387
F1
sVpressed
p1388
F3
sVkissing
p1389
F3
sVdominic
p1390
F2
sVstains,
p1391
F1
sVcharlotta,
p1392
F47
sVhoping
p1393
F7
sVconsummated:
p1394
F1
sVwaist,
p1395
F1
sVincidents.
p1396
F1
sVmahometan
p1397
F2
sVwaist;
p1398
F1
sVrenounced
p1399
F1
sVastonished;
p1400
F1
sVfetching
p1401
F2
sVmaids
p1402
F1
sVfeasting.
p1403
F1
sVexamined,
p1404
F1
sVforgiveness
p1405
F1
sVswoln;
p1406
F1
sVfraternity.
p1407
F1
sVviewing
p1408
F2
sVnecessity
p1409
F6
sVmaid;
p1410
F2
sVmanned,
p1411
F1
sVhorace's
p1412
F1
sVperson
p1413
F29
sVyet,
p1414
F2
sVmaid,
p1415
F16
sVmaid-
p1416
F1
sVclasped
p1417
F1
sVhint,
p1418
F1
sVdownwards,
p1419
F1
sVinstructed.
p1420
F1
sVtwenty-six
p1421
F1
sVsalve
p1422
F1
sVfishing-boat
p1423
F3
sVconfinement,
p1424
F1
sVyield.
p1425
F2
sVrecommended
p1426
F2
sVladies;
p1427
F1
sVeager
p1428
F3
sVparents
p1429
F3
sVpublished.
p1430
F1
sVcrying
p1431
F2
sVsurprised
p1432
F1
sVthee,
p1433
F1
sVseventeen,
p1434
F1
sVdomingo,
p1435
F19
sVsuffering
p1436
F1
sVprivate
p1437
F8
sVcabin.
p1438
F1
sVcabin-
p1439
F2
sVcabin,
p1440
F8
sVflannel
p1441
F2
sVsubmission,
p1442
F1
sVshattered
p1443
F1
sVresemblance,
p1444
F1
sVresemblance.
p1445
F1
sVcontinue
p1446
F12
sVimprudent
p1447
F4
sVdisorder
p1448
F6
sVmornings,
p1449
F1
sVmethods
p1450
F1
sVroots,
p1451
F1
sVdeparture,
p1452
F1
sVadores,
p1453
F1
sVnecessaries
p1454
F2
sVfate;
p1455
F1
sVobscure,
p1456
F1
sVmighty
p1457
F9
sVsight
p1458
F23
sVcurious
p1459
F1
sVpale
p1460
F7
sVbenefactor,
p1461
F1
sVreligion
p1462
F6
sVbehave
p1463
F2
sVenraged,
p1464
F3
sVjudgments.
p1465
F1
sVbed-chamber,
p1466
F1
sVattending;
p1467
F1
sVconvulsions
p1468
F1
sVinclination
p1469
F1
sVmen.'
p1470
F1
sVbe
p1471
F313
sVglows
p1472
F1
sVagreement
p1473
F1
sVsigh,
p1474
F4
sVconcealed
p1475
F18
sVrelating
p1476
F2
sVby
p1477
F371
sVdeserved
p1478
F3
sVangelina's
p1479
F2
sVvoices,
p1480
F1
sVdeserves
p1481
F1
sVbelanger,
p1482
F50
sVrepair
p1483
F4
sVletter
p1484
F22
sVinto
p1485
F200
sVfast,
p1486
F2
sVsea-captain,
p1487
F1
sVtall,
p1488
F3
sVsee,
p1489
F1
sVtraduce
p1490
F1
sVtasting
p1491
F1
sVpromising,
p1492
F1
sVexposed
p1493
F8
sVniece;
p1494
F1
sVsubmit
p1495
F5
sVcustom
p1496
F4
sVatheists
p1497
F1
sVsuit
p1498
F3
sVniece,
p1499
F2
sV:
F17
sVjewish
p1500
F1
sVbey's
p1501
F2
sVlegs,
p1502
F2
sVline
p1503
F1
sVconsiderable
p1504
F6
sVposted
p1505
F1
sVcharmed
p1506
F9
sVup
p1507
F110
sVus
p1508
F79
sVmorocco
p1509
F1
sVside.
p1510
F1
sVside,
p1511
F6
sVreconcile
p1512
F4
sVraging
p1513
F1
sVliving;
p1514
F2
sVunsafe
p1515
F1
sVlost,
p1516
F4
sVside:
p1517
F1
sVside;
p1518
F1
sVsettled.
p1519
F1
sVliving.
p1520
F5
sVliving,
p1521
F4
sVhedges,
p1522
F1
sVhedges.
p1523
F1
sVscraps
p1524
F2
sVsails
p1525
F2
sVinstep,
p1526
F1
sVoblige
p1527
F9
sVhome.'
p1528
F1
sVsides
p1529
F1
sVhackney
p1530
F1
sVland
p1531
F6
sVsail,
p1532
F6
sVsail.
p1533
F1
sVreasoned
p1534
F3
sVresign
p1535
F2
sVage
p1536
F6
sVholes
p1537
F2
sVwalked
p1538
F6
sVsail;
p1539
F1
sVdoor;
p1540
F2
sVstopt
p1541
F1
sVfresh
p1542
F6
sVhaving
p1543
F169
sVblest.
p1544
F1
sVpartial
p1545
F1
sVdiscontent
p1546
F1
sVseveral,
p1547
F2
sV'no,
p1548
F1
sVdainty
p1549
F1
sVseemed
p1550
F45
sVturkish
p1551
F6
sVconcerned
p1552
F8
sVyoung
p1553
F90
sVsend
p1554
F24
sVdislike
p1555
F1
sVsent
p1556
F67
sVgarden
p1557
F5
sV'now
p1558
F2
sVresigned:
p1559
F1
sVlanguished
p1560
F3
sVcontinued
p1561
F19
sVmarry
p1562
F44
sVropes,
p1563
F1
sVfewel
p1564
F1
sVdisordered
p1565
F4
sVbenedictine,
p1566
F1
sVodd
p1567
F1
sVthat,
p1568
F4
sVundone:
p1569
F1
sVbusiness
p1570
F6
sVexpressed
p1571
F5
sVhenceforth
p1572
F1
sVindian
p1573
F2
sVundone,
p1574
F1
sVundone.
p1575
F2
sVthat;
p1576
F2
sVtunis,
p1577
F9
sVled
p1578
F9
sVleg
p1579
F3
sVgathered
p1580
F1
sVeffected:
p1581
F2
sVanswered,
p1582
F11
sVdelivering
p1583
F1
sVbusy
p1584
F2
sVlet
p1585
F37
sVconsideration
p1586
F1
sVinvented
p1587
F1
sVfifteen
p1588
F3
sVeffected.
p1589
F1
sVgreat
p1590
F127
sVengage
p1591
F1
sVuneasy
p1592
F4
sVreceive
p1593
F5
sVinvolved
p1594
F2
sVscreech
p1595
F1
sV'for
p1596
F3
sVopinion
p1597
F1
sVmakes
p1598
F4
sVmaker
p1599
F1
sVwithdrew.
p1600
F1
sVdisobey
p1601
F1
sVslid
p1602
F2
sVdearly,
p1603
F1
sVtools
p1604
F1
sVdesiring
p1605
F7
sVstanding
p1606
F10
sVconfidence
p1607
F1
sVisabella,
p1608
F1
sVweakness,
p1609
F3
sVmendoza
p1610
F1
sVball;
p1611
F1
sVnext
p1612
F55
sVweakness;
p1613
F1
sVassuring
p1614
F1
sVdoubt
p1615
F12
sVdebauched
p1616
F2
sVbox,
p1617
F3
sVinfamy
p1618
F1
sVcounsel,
p1619
F1
sVsir,
p1620
F8
sVbodily
p1621
F1
sVgreen-
p1622
F1
sVtraded;
p1623
F1
sVcarrying
p1624
F13
sVgladly
p1625
F14
sVcharity
p1626
F6
sVhigh
p1627
F4
sVretreated
p1628
F1
sVthis
p1629
F388
sVmended,
p1630
F1
sVpleased,
p1631
F1
sVwater,
p1632
F7
sVrack,
p1633
F4
sVstreamed
p1634
F1
sVfit,
p1635
F2
sVprocess
p1636
F1
sVlock
p1637
F1
sVpieces
p1638
F7
sVcaves,
p1639
F1
sVday-break
p1640
F2
sVassistance:
p1641
F1
sVrack;
p1642
F1
sVslip
p1643
F1
sVvineyard:
p1644
F1
sVdoubtless,
p1645
F7
sVvolunteer,
p1646
F1
sVmutually
p1647
F1
sVmitigated,
p1648
F1
sVmasked,
p1649
F1
sVdelay
p1650
F3
sVprocured
p1651
F7
sVclasping
p1652
F2
sVpurpose:
p1653
F1
sVpurpose;
p1654
F3
sVaspiring
p1655
F1
sVnear,
p1656
F3
sVtied
p1657
F4
sVperceive
p1658
F2
sVpurpose.
p1659
F2
sVlines,
p1660
F1
sVpurpose,
p1661
F5
sVties
p1662
F1
sVattempt.
p1663
F1
sVnear:
p1664
F1
sVpale,
p1665
F1
sVresolute,
p1666
F3
sVcourtier,
p1667
F2
sVor
p1668
F167
sVingaged
p1669
F1
sVwrit
p1670
F5
sVallow
p1671
F3
sVliked,
p1672
F1
sVmeeting,
p1673
F1
sVthigh
p1674
F2
sVdesign;
p1675
F4
sVmove
p1676
F1
sVdoubtful
p1677
F1
sVproduced
p1678
F1
sVdesign,
p1679
F12
sVwife's
p1680
F7
sVperfect
p1681
F2
sVsuspence,
p1682
F1
sVchosen
p1683
F2
sVdispose
p1684
F5
sVulcers,
p1685
F1
sVcolonel's
p1686
F3
sVphysicians
p1687
F5
sVdesigns
p1688
F5
sVphysick,
p1689
F1
sVsoldiers,
p1690
F1
sVbundles,
p1691
F1
sVcursed
p1692
F5
sVdegree,
p1693
F2
sVwhither
p1694
F3
sVdelightful
p1695
F1
sVsurgeon,
p1696
F6
sVaccompanied
p1697
F4
sVbeneath
p1698
F1
sVglasses
p1699
F1
sVlinen-draper,
p1700
F1
sVfootmen
p1701
F1
sVfarther:
p1702
F1
sVtents
p1703
F1
sVdoing
p1704
F4
sVproduced,
p1705
F1
sVfarther.
p1706
F1
sVfarther,
p1707
F3
sVthirteen
p1708
F3
sVus.'
p1709
F2
sVwitness
p1710
F1
sVjilts:
p1711
F1
sVsingular
p1712
F1
sVfollowing,
p1713
F2
sV'was
p1714
F1
sVgonzalo
p1715
F5
sVperish
p1716
F1
sVagainst?
p1717
F1
sVsurely
p1718
F5
sVtempt
p1719
F1
sVtent,
p1720
F2
sVtent.
p1721
F1
sVcraving
p1722
F1
sVmet,
p1723
F1
sVagainst,
p1724
F1
sVthings.
p1725
F2
sVthings,
p1726
F6
sVfavour.
p1727
F5
sVbashaw
p1728
F2
sVfavour,
p1729
F2
sVput
p1730
F57
sVbaseness.
p1731
F1
sVbaseness,
p1732
F1
sVthings:
p1733
F1
sVthings;
p1734
F1
sVlength
p1735
F4
sVtravelled,
p1736
F1
sVnamed.
p1737
F1
sVspilt
p1738
F2
sVimportuning
p1739
F1
sVdesist
p1740
F2
sVgoverness,
p1741
F2
sVblown
p1742
F3
sVinterest;
p1743
F2
sVhave?
p1744
F1
sVscene
p1745
F1
sVowned
p1746
F1
sVspeaking;
p1747
F1
sVaffliction
p1748
F1
sVshort,
p1749
F19
sVchristianity
p1750
F2
sVscent
p1751
F1
sVhave,
p1752
F4
sVtwo,
p1753
F2
sVhurricane
p1754
F1
sVgoaler
p1755
F2
sVfestival
p1756
F1
sVcourted
p1757
F6
sVabhorrence?
p1758
F1
sVtravelled
p1759
F3
sVbehaved
p1760
F8
sVinterests
p1761
F1
sVdinner;
p1762
F1
sVstomach
p1763
F3
sVblow,
p1764
F1
sVpre-engaged
p1765
F1
sVpeasant's,
p1766
F1
sVstander-by
p1767
F1
sVtortures
p1768
F3
sVbravely;
p1769
F1
sVrepented
p1770
F5
sVsteer
p1771
F2
sVingenious
p1772
F1
sVfalse
p1773
F3
sVhappily,
p1774
F1
sVtrusting
p1775
F2
sVhappily.
p1776
F1
sVgently
p1777
F5
sVgentle
p1778
F2
sVviewed
p1779
F7
sVcommodities
p1780
F1
sVgone;
p1781
F3
sVstudying
p1782
F2
sVslavery.'
p1783
F1
sVashore
p1784
F6
sVtroubles,
p1785
F1
sVinjunctions
p1786
F2
sVtyrannical
p1787
F1
sVloving,
p1788
F1
sVregard
p1789
F2
sVpoison;
p1790
F1
sVdevotion,
p1791
F1
sVweeping,
p1792
F1
sVfurious
p1793
F2
sVpoison,
p1794
F1
sVcurse:
p1795
F1
sVrisques,
p1796
F1
sVhatred,
p1797
F1
sVinjunction,
p1798
F1
sVdeeply,
p1799
F1
sVinfamy.
p1800
F1
sVbred
p1801
F9
sVface
p1802
F19
sVyou'll
p1803
F1
sVdarkned,
p1804
F1
sVwounded
p1805
F5
sVsweetly,
p1806
F1
sVexchange,
p1807
F3
sVlodgings,
p1808
F1
sVexchange.
p1809
F1
sVmean;
p1810
F1
sVbring
p1811
F21
sVcatholick
p1812
F1
sVmean,
p1813
F1
sVrough
p1814
F1
sVtrivial
p1815
F1
sVprincipal
p1816
F4
sVshould
p1817
F105
sVbuttons
p1818
F1
sVriding
p1819
F1
sVhope
p1820
F17
sVexchanged
p1821
F1
sVdesign:
p1822
F1
sVmeans
p1823
F26
sVlucky
p1824
F2
sVwring
p1825
F1
sVvictuals
p1826
F1
sVwelch,
p1827
F1
sVfrench,
p1828
F6
sVend;
p1829
F3
sVpacket
p1830
F1
sVquebeck,
p1831
F1
sVpacked
p1832
F5
sVend.
p1833
F1
sVdungeon
p1834
F2
sVcreditors
p1835
F2
sVmien
p1836
F2
sVinjustice
p1837
F1
sVdesign.
p1838
F3
sVexecutrix's
p1839
F1
sVends
p1840
F1
sVtaken;
p1841
F1
sVbarbarously
p1842
F1
sVtaken,
p1843
F3
sVinjury.
p1844
F1
sVstaring
p1845
F1
sVinvited
p1846
F5
sVbristol
p1847
F6
sVquitted
p1848
F4
sVcountries.'
p1849
F1
sVconclude
p1850
F2
sVbassa,
p1851
F1
sVgenteely,
p1852
F2
sVdrank
p1853
F5
sVfarnaze
p1854
F1
sVbelly,
p1855
F1
sVgarrison,
p1856
F2
sVgarrison.
p1857
F1
sVspain
p1858
F9
sVbanish
p1859
F3
sVwearied
p1860
F4
sVloathed
p1861
F1
sVcoals
p1862
F1
sVexpiration
p1863
F1
sV'far
p1864
F1
sVsenseless,
p1865
F3
sVdelaying
p1866
F1
sVprosper
p1867
F1
sVlust
p1868
F2
sVexcessively
p1869
F1
sVgirl,
p1870
F2
sVhers:
p1871
F1
sVsenseless:
p1872
F1
sVransom
p1873
F2
sVconcealing
p1874
F1
sVof.
p1875
F9
sVof,
p1876
F9
sVof:
p1877
F2
sVof;
p1878
F11
sVwardrobe:
p1879
F1
sVsit,
p1880
F1
sVdusk
p1881
F3
sVdrink
p1882
F7
sVupon
p1883
F106
sVlights,
p1884
F1
sVwardrobe,
p1885
F2
sVinfinite
p1886
F1
sVpleasantly
p1887
F1
sV'but
p1888
F2
sVoff
p1889
F34
sVcolour
p1890
F2
sVdoors.
p1891
F1
sVdoors,
p1892
F1
sVhearkened
p1893
F1
sVlest
p1894
F9
sVreturned,
p1895
F2
sVlover's,
p1896
F1
sVkiss
p1897
F2
sVenemy,
p1898
F2
sVflesh
p1899
F3
sVgoing,
p1900
F3
sVgoing.
p1901
F2
sVrooms
p1902
F5
sVafflicted
p1903
F9
sVchair;
p1904
F1
sVgenerous
p1905
F15
sVpleasure-boat,
p1906
F1
sVintermitting
p1907
F2
sVwet
p1908
F2
sVdoubt.
p1909
F1
sVmoment;
p1910
F1
sVtauny
p1911
F1
sVincreased
p1912
F3
sVgovernment
p1913
F1
sVdined,
p1914
F1
sVroom,
p1915
F9
sVbelhash,
p1916
F1
sVclock,
p1917
F1
sVstooped
p1918
F1
sVfive
p1919
F13
sVmoment.
p1920
F1
sVmoment,
p1921
F3
sVroom;
p1922
F2
sVbermudas
p1923
F1
sVchairs
p1924
F1
sVengland,
p1925
F8
sVwe,
p1926
F1
sVpeople's,
p1927
F1
sVbecome
p1928
F9
sVactions.
p1929
F3
sVactions,
p1930
F2
sVgaining
p1931
F1
sVinconstant
p1932
F1
sVbed's
p1933
F1
sVcommands.
p1934
F1
sVtransport
p1935
F7
sVresolve.'
p1936
F1
sVavoid
p1937
F4
sVprudent,
p1938
F1
sVdoes
p1939
F5
sVpassion
p1940
F14
sVlambs,
p1941
F1
sVforgiven
p1942
F2
sVpirate-ship,
p1943
F4
sVnow,
p1944
F10
sVblowing
p1945
F1
sVeasily;
p1946
F1
sVregarded;
p1947
F1
sVcost.
p1948
F1
sVposterity
p1949
F1
sVgaoler
p1950
F1
sVhiding
p1951
F1
sVgained
p1952
F11
sVswift,
p1953
F1
sVsister
p1954
F7
sVputs
p1955
F1
sVsurprizing
p1956
F3
sVforgive,
p1957
F1
sVletters
p1958
F7
sVstrumpet
p1959
F1
sVscreamed
p1960
F1
sVpious,
p1961
F1
sVpensioners;
p1962
F1
sVplace?
p1963
F1
sVplace;
p1964
F5
sVplace:
p1965
F2
sVmuch
p1966
F103
sVplace,
p1967
F30
sVplace.
p1968
F12
sVkinswoman,
p1969
F3
sVroad,
p1970
F1
sVerrand,
p1971
F1
sVdelivers
p1972
F1
sVletter,
p1973
F5
sVcount
p1974
F1
sVfavourable;
p1975
F1
sVtossed
p1976
F2
sVmarquis
p1977
F1
sVplaces
p1978
F2
sVchained
p1979
F1
sVprivate:
p1980
F1
sVencouragement,
p1981
F1
sVdeliverance:
p1982
F1
sVspot,
p1983
F1
sVconvince
p1984
F7
sVtertian
p1985
F1
sVcordial
p1986
F2
sVirish
p1987
F1
sVrightly
p1988
F1
sVarms;
p1989
F2
sVgovernor's
p1990
F7
sVnurses
p1991
F1
sVcontribute
p1992
F1
sVfollow'd
p1993
F1
sVarms.
p1994
F1
sVarms,
p1995
F18
sVfather-in-law
p1996
F1
sVrose,
p1997
F1
sVwaked,
p1998
F1
sVplundered
p1999
F2
sVgarden.
p2000
F2
sVsince.
p2001
F2
sVspring,
p2002
F1
sVexcellencies
p2003
F1
sVvariety
p2004
F3
sVtrials
p2005
F2
sVsuspicions,
p2006
F1
sVuseful,
p2007
F1
sVsaviour
p2008
F1
sVskies
p2009
F1
sVrepeat
p2010
F3
sVagain.
p2011
F4
sVbashaw,
p2012
F1
sVagain,
p2013
F18
sVin;
p2014
F3
sVagain:
p2015
F1
sVagain;
p2016
F6
sVin.
p2017
F4
sVwrenching
p2018
F1
sVagain?
p2019
F2
sV'
F4
sVtransports
p2020
F3
sVlasted
p2021
F1
sVslumber,
p2022
F1
sVpension
p2023
F1
sVsearched
p2024
F4
sVgardens
p2025
F5
sVintegrity
p2026
F2
sVworked
p2027
F1
sVdesist;
p2028
F1
sVweltring
p2029
F1
sVleeward
p2030
F1
sVneighbours
p2031
F2
sVserpents,
p2032
F1
sVworth
p2033
F8
sVfavours
p2034
F1
sVamorous
p2035
F3
sVadvocates,
p2036
F1
sVreturning,
p2037
F1
sVdisobedient
p2038
F1
sVmonth
p2039
F5
sVchapel
p2040
F3
sVexpired;
p2041
F1
sVexpired,
p2042
F1
sVexpired.
p2043
F1
sVjamaica
p2044
F3
sVdiverting
p2045
F1
sVpreached
p2046
F1
sVoccasioned
p2047
F5
sVlocked,
p2048
F3
sVothers;
p2049
F1
sVequal,
p2050
F1
sVothers,
p2051
F3
sVothers.
p2052
F2
sVseas:
p2053
F1
sV'dear
p2054
F1
sVangry;
p2055
F1
sVsettlement
p2056
F3
sV(all
p2057
F1
sVabove
p2058
F14
sVneat
p2059
F2
sVtold
p2060
F74
sVfathers,
p2061
F1
sVmistress:
p2062
F2
sVdecay,
p2063
F2
sVrichest
p2064
F2
sVmistress.
p2065
F1
sVprotection
p2066
F2
sVpursuit
p2067
F3
sVobtained
p2068
F7
sVless.
p2069
F1
sVdaughter
p2070
F23
sVstudy
p2071
F1
sVfool's
p2072
F1
sVbettered
p2073
F1
sVevening's
p2074
F1
sVrudely,
p2075
F1
sVsecure
p2076
F13
sVgentleman,
p2077
F19
sVgentleman.
p2078
F3
sVhighly
p2079
F12
sVgentleman;
p2080
F1
sVindians
p2081
F7
sVgrove,
p2082
F2
sVuncle's,
p2083
F1
sVpermit,
p2084
F1
sVbundled
p2085
F2
sVsaid;
p2086
F1
sVgroans,
p2087
F1
sVinfusion
p2088
F1
sVpierced
p2089
F1
sVdarling,
p2090
F2
sVcontinual
p2091
F3
sVmountains
p2092
F2
sVword
p2093
F2
sVwore
p2094
F1
sVwork
p2095
F6
sVrefusing
p2096
F1
sVere
p2097
F1
sVbundle,
p2098
F1
sVcould
p2099
F211
sVoverspread
p2100
F1
sVquiver
p2101
F1
sVrevived,
p2102
F3
sVcustom,
p2103
F1
sVindies
p2104
F1
sVdumb,
p2105
F1
sVindifferent
p2106
F2
sVprovide
p2107
F17
sVsaid,
p2108
F20
sVagone
p2109
F1
sVboats
p2110
F3
sVresignation
p2111
F1
sVdiscoveries,
p2112
F1
sVfever
p2113
F2
sVgrandee:
p2114
F1
sVladder
p2115
F3
sVafter
p2116
F71
sVcustoms
p2117
F1
sVlay
p2118
F51
sVtavern,
p2119
F2
sVaustere
p2120
F1
sVboat.
p2121
F1
sVboat,
p2122
F25
sVrecover,
p2123
F2
sVboat:
p2124
F1
sVhaste
p2125
F5
sVthrives.
p2126
F1
sVorder
p2127
F19
sVmodesty
p2128
F2
sVoffice
p2129
F2
sVrudely
p2130
F1
sVconsent
p2131
F20
sVsatisfied
p2132
F4
sVhopeless,
p2133
F1
sVsea-shore
p2134
F1
sVears.
p2135
F1
sVrock:
p2136
F2
sVrock;
p2137
F1
sVsomewhere
p2138
F1
sVbefallen
p2139
F4
sVrock,
p2140
F8
sVrock.
p2141
F1
sVbehalf;
p2142
F1
sVenough.'
p2143
F1
sVthen
p2144
F107
sVthem
p2145
F196
sVnet,
p2146
F1
sVruined;
p2147
F2
sVthee
p2148
F2
sVsafe
p2149
F17
sVbreak
p2150
F15
sVband
p2151
F1
sVyoung,
p2152
F3
sVheaven
p2153
F8
sVnet;
p2154
F1
sVthey
p2155
F514
sVmodest,
p2156
F1
sVbank
p2157
F2
sVbread
p2158
F11
sVdivided)
p2159
F1
sVgoodness;
p2160
F1
sVabsolve
p2161
F1
sVrocks
p2162
F4
sVmiranda's
p2163
F1
sVgoodness,
p2164
F3
sVlifted
p2165
F2
sVcrimes
p2166
F2
sVdispute,
p2167
F2
sVfishing.
p2168
F1
sVfishing,
p2169
F1
sVappointment;
p2170
F1
sVspoon-meat;
p2171
F1
sVmoon-shine
p2172
F1
sVacknowledgments,
p2173
F1
sVforty
p2174
F3
sVfellows
p2175
F2
sVstrangers
p2176
F5
sVremorse
p2177
F2
sVteresa,
p2178
F12
sVinterest,
p2179
F1
sVforth
p2180
F2
sVdisputed
p2181
F1
sVcrime?
p2182
F1
sVstirred,
p2183
F1
sVcarried
p2184
F52
sVcrime,
p2185
F4
sVcrime.
p2186
F1
sVfastening
p2187
F2
sVi)
p2188
F1
sVrecovering
p2189
F3
sV(attended
p2190
F1
sVstranger.
p2191
F1
sVstranger,
p2192
F4
sVvessel,
p2193
F5
sVvessel.
p2194
F1
sVoppose
p2195
F1
sV(as
p2196
F6
sVknives,
p2197
F1
sVlitter;
p2198
F1
sVvulgar
p2199
F1
sVrender
p2200
F7
sVparadise,
p2201
F2
sVanother
p2202
F23
sVthick
p2203
F2
sVpower.
p2204
F2
sVpower,
p2205
F5
sVmounted,
p2206
F1
sVpower;
p2207
F1
sVobservations
p2208
F1
sVairy
p2209
F1
sVperished,
p2210
F1
sVhappily
p2211
F9
sVrejected
p2212
F2
sVperished;
p2213
F1
sVmercy
p2214
F5
sVtavern
p2215
F1
sVobservation,
p2216
F1
sVrate,
p2217
F1
sVair,
p2218
F3
sVseated
p2219
F5
sVguilt
p2220
F5
sVlove;
p2221
F1
sVdeliverance.'
p2222
F1
sVsufferings,
p2223
F2
sVreturn
p2224
F49
sVmanner
p2225
F18
sVaccompany
p2226
F2
sVcontents
p2227
F1
sVpraising
p2228
F1
sVstrength
p2229
F7
sVladen
p2230
F2
sVconvenient
p2231
F2
sVoften,
p2232
F1
sVwhich,
p2233
F11
sVcontent,
p2234
F1
sVadmittance,
p2235
F1
sVwhat
p2236
F144
sVexercised
p2237
F1
sVcontent;
p2238
F1
sVmanifested
p2239
F1
sVbashaw's
p2240
F1
sVforce,
p2241
F4
sVsubject,
p2242
F2
sVaccounted
p2243
F1
sVaunt
p2244
F8
sVsun
p2245
F3
sVopprest
p2246
F1
sVnotion
p2247
F3
sVforce;
p2248
F3
sVforce:
p2249
F1
sVlewis
p2250
F2
sVprecarious
p2251
F1
sVbrief
p2252
F1
sVrespectfully
p2253
F2
sVwrung
p2254
F1
sVsubtle
p2255
F1
sVenjoyed
p2256
F1
sVcoloured,
p2257
F1
sVhither,
p2258
F2
sVhither;
p2259
F1
sVpursuing
p2260
F3
sVdo
p2261
F66
sVloved
p2262
F15
sVhangings
p2263
F1
sVleisure
p2264
F3
sVyielded
p2265
F2
sVthem.'
p2266
F1
sVeffected
p2267
F2
sVferryman
p2268
F1
sVreligion;
p2269
F1
sVdu
p2270
F66
sVcreep,
p2271
F1
sVcovering
p2272
F2
sVchildren's
p2273
F1
sVsteal
p2274
F2
sVdo?'
p2275
F1
sVmiserably
p2276
F1
sVuninhabited
p2277
F1
sVsailor,
p2278
F1
sVrivulet
p2279
F1
sVdies,
p2280
F1
sVobserved
p2281
F4
sVmiserable
p2282
F10
sVe're
p2283
F1
sVgroan,
p2284
F1
sVrequest,
p2285
F1
sVrequest.
p2286
F1
sVbecause,
p2287
F1
sVaway
p2288
F52
sVgentleman
p2289
F34
sVrequest;
p2290
F1
sVrequest:
p2291
F2
sVdrawn
p2292
F5
sVcaves
p2293
F1
sVwe
p2294
F222
sVterms
p2295
F4
sVsweatmeats,
p2296
F1
sVdiana,
p2297
F1
sVvictualled,
p2298
F1
sVinn,
p2299
F1
sVdistant,
p2300
F1
sVreceived
p2301
F46
sVcave,
p2302
F4
sVill
p2303
F20
sVtrance:
p2304
F1
sVreceives
p2305
F1
sVspain,
p2306
F7
sVgentlewoman,
p2307
F4
sVspeak
p2308
F25
sVgratitude
p2309
F3
sVgenivive,
p2310
F2
sVcondemned
p2311
F2
sVharm;
p2312
F1
sVpossess.
p2313
F1
sVexamples.
p2314
F1
sVexamples,
p2315
F1
sVpont's
p2316
F4
sVinclemency
p2317
F1
sVduties
p2318
F2
sVpossess?
p2319
F1
sVfamilies
p2320
F3
sVeasy
p2321
F3
sVattacked
p2322
F1
sVpounds,
p2323
F3
sVexcite
p2324
F1
sVinconsolable
p2325
F1
sVmiss'd.
p2326
F1
sVhoist
p2327
F1
sVoutcries
p2328
F1
sVpounds;
p2329
F1
sVapplied
p2330
F9
sVphysician
p2331
F4
sVknown;
p2332
F1
sVair
p2333
F6
sVaim
p2334
F2
sVdifficulty.
p2335
F1
sVdifficulty,
p2336
F2
sVentertains
p2337
F1
sVaid
p2338
F1
sVvoice
p2339
F5
sVknown,
p2340
F1
sVunlikely
p2341
F1
sVmorine
p2342
F1
sVfaith.
p2343
F3
sVblame?
p2344
F1
sVdiscourses
p2345
F1
sVsink;
p2346
F1
sVdandin
p2347
F4
sVdiscoursed
p2348
F1
sVconfirmed
p2349
F4
sVperform
p2350
F3
sVcountry-seat
p2351
F2
sVsheltered
p2352
F1
sVprovisions.
p2353
F1
sVprovisions,
p2354
F4
sVpistoles
p2355
F4
sVhand
p2356
F13
sVliberties
p2357
F1
sVprovisions;
p2358
F1
sVdiscourse.
p2359
F1
sVdiscourse,
p2360
F2
sVgreedily
p2361
F1
sVmelancholly
p2362
F1
sVkept
p2363
F33
sVthy
p2364
F6
sVhumble
p2365
F4
sVstay'd
p2366
F1
sVtormenting
p2367
F1
sVimpertinent
p2368
F1
sVthe
p2369
F2580
sVinsupportable.
p2370
F1
sVmay,
p2371
F2
sVrepose
p2372
F5
sVcap,
p2373
F1
sVfarther
p2374
F16
sVvictim
p2375
F1
sVmaloes
p2376
F2
sVdoated
p2377
F1
sVvirginia,
p2378
F33
sVtired,
p2379
F1
sVspread
p2380
F2
sVboard
p2381
F20
sVstory:
p2382
F1
sVfares
p2383
F1
sVgod;
p2384
F2
sVknow:
p2385
F1
sVinjuring
p2386
F1
sVgod,
p2387
F21
sVpatience;
p2388
F1
sVgod!
p2389
F1
sVretreat
p2390
F3
sVopening,
p2391
F1
sVrefused;
p2392
F1
sVcountry.
p2393
F3
sVzeal,
p2394
F1
sVcountry,
p2395
F17
sVevidence,
p2396
F1
sVroared,
p2397
F1
sVnight
p2398
F37
sVcountry;
p2399
F4
sVhill,
p2400
F3
sVrefused,
p2401
F1
sVrefused.
p2402
F3
sVprovocation.
p2403
F1
sVflatter
p2404
F1
sVborn
p2405
F9
sVbore
p2406
F3
sVhermit's
p2407
F1
sVcongratulate
p2408
F2
sVransacked
p2409
F1
sVlight-headed,
p2410
F2
sVasking
p2411
F6
sVmonth,
p2412
F3
sVdenied
p2413
F6
sVbeating
p2414
F1
sValtar.
p2415
F1
sValtar,
p2416
F2
sVpost
p2417
F7
sVtrepaned
p2418
F3
sVtheirs
p2419
F1
sVenjoyed,
p2420
F1
sVmonths
p2421
F21
sVdined
p2422
F1
sVconsiderations
p2423
F1
sVdilemma
p2424
F1
sVprisoners
p2425
F3
sVprofession
p2426
F1
sVdelighted
p2427
F1
sVcry,
p2428
F1
sVcry.
p2429
F1
sVcreek
p2430
F2
sVstrangely
p2431
F1
sVdisdain.
p2432
F1
sVundiscovered
p2433
F2
sVsuffice
p2434
F1
sVtarts,
p2435
F1
sVhelp.]'
p2436
F1
sVfight
p2437
F2
sVimportunity.
p2438
F1
sVaccordingly
p2439
F11
sVway
p2440
F48
sVwax
p2441
F1
sVbrave,
p2442
F1
sVwas
p2443
F1083
sVwar
p2444
F3
sVhim.'
p2445
F1
sVprisoner;
p2446
F1
sVoverjoyed
p2447
F1
sVconverse
p2448
F5
sVmurders,
p2449
F1
sVleads,
p2450
F1
sVleads.
p2451
F1
sVastonished
p2452
F2
sVtrue
p2453
F11
sVconsideration,
p2454
F1
sVdeliberate,
p2455
F2
sVabsent
p2456
F3
sVinvincible
p2457
F1
sVgenerosity
p2458
F3
sVcurious,
p2459
F1
sVprayed
p2460
F2
sVpromises
p2461
F4
sVinfamy,
p2462
F3
sVrequest
p2463
F2
sVguessed
p2464
F5
sVsubsist
p2465
F1
sVpromised
p2466
F34
sVbrother.
p2467
F1
sVbrother,
p2468
F7
sVwidow's
p2469
F4
sVhastily,
p2470
F1
sVdying
p2471
F5
sVpark,
p2472
F1
sVpitch,
p2473
F1
sVbed.
p2474
F5
sVbed,
p2475
F26
sVfainted;
p2476
F3
sVjesus,
p2477
F1
sVholding
p2478
F3
sVfainted:
p2479
F3
sVbed;
p2480
F5
sVbed:
p2481
F1
sVfriendships;
p2482
F1
sVo'clock
p2483
F1
sVwelcome
p2484
F3
sVconvincing
p2485
F1
sVfire-place
p2486
F1
sVpromise,
p2487
F1
sVcheated
p2488
F1
sVtogether
p2489
F19
sVoutlive
p2490
F1
sVbeds
p2491
F2
sVreception
p2492
F2
sVnecessitated
p2493
F1
sVstick
p2494
F1
sVdiminish;
p2495
F1
sVdebauch
p2496
F3
sVwholesom
p2497
F2
sValonzo,
p2498
F2
sVgrateful
p2499
F7
sVvictualled
p2500
F1
sVdevoted
p2501
F2
sVcertainly
p2502
F5
sVcelerity.
p2503
F1
sVperceive,
p2504
F1
sVchristianity,
p2505
F1
sV'yet
p2506
F1
sVglad
p2507
F16
sVcontrivances)
p2508
F1
sVnumber,
p2509
F3
sVcharles
p2510
F1
sVvalet-
p2511
F1
sVtrouble
p2512
F2
sV(says
p2513
F2
sVsoul's
p2514
F1
sVperceived
p2515
F13
sVdismalness
p2516
F1
sVpresented
p2517
F13
sVassiduity,
p2518
F1
sVgun
p2519
F1
sVdiscomposed.
p2520
F1
sVdead?'
p2521
F1
sVbrave
p2522
F8
sVpenknife,
p2523
F1
sVdiscover
p2524
F19
sVcost
p2525
F1
sVappear;
p2526
F1
sVsufficiently,
p2527
F1
sVhelpless
p2528
F3
sVwheedled
p2529
F1
sVappear
p2530
F4
sVassistance
p2531
F4
sVflame,
p2532
F1
sVchristianity;
p2533
F1
sVsafety,
p2534
F1
sVsafety.
p2535
F1
sVsatisfy
p2536
F3
sVdeserts,
p2537
F1
sVunbosom
p2538
F1
sVpeeled
p2539
F1
sVlanguages,
p2540
F1
sVragonian
p2541
F1
sVrepent,
p2542
F1
sVappointed,
p2543
F1
sVchange
p2544
F4
sVplease.'
p2545
F1
sVsending
p2546
F7
sVdar'd
p2547
F1
sVmerchandize
p2548
F1
sVstripped,
p2549
F1
sVtrial
p2550
F1
sVawakened,
p2551
F1
sVplotted
p2552
F1
sVretired
p2553
F15
sVmarked
p2554
F2
sVsincerely
p2555
F2
sVover-joyed,
p2556
F1
sVstings
p2557
F1
sVrarely
p2558
F3
sVprove
p2559
F2
sVyou.'
p2560
F6
sVlive
p2561
F45
sVangels
p2562
F1
sVentrance
p2563
F5
sVnecessaries.
p2564
F1
sVrepentance
p2565
F3
sVitalian,
p2566
F1
sVgentlemen,
p2567
F8
sVretire.
p2568
F1
sVangel,
p2569
F9
sVcap
p2570
F2
sVangel!
p2571
F1
sVmirandola,
p2572
F1
sVvisits.
p2573
F1
sVvisits,
p2574
F3
sVcan
p2575
F44
sVgroves,
p2576
F1
sVspy
p2577
F1
sVkept,
p2578
F1
sVheard
p2579
F22
sVfortunes
p2580
F3
sVwrite
p2581
F7
sVvoluntarily.
p2582
F1
sVguardian's,
p2583
F1
sVbawd
p2584
F4
sVfortune)
p2585
F1
sVsacrifice
p2586
F2
sVhorn
p2587
F1
sVfortune,
p2588
F19
sVfortune.
p2589
F8
sVislands
p2590
F3
sV?'
p2591
F1
sVfortune;
p2592
F4
sVventurous,
p2593
F1
sVlifting
p2594
F9
sVremember
p2595
F4
sVwhenever
p2596
F1
sVcandles
p2597
F1
sVdishonoured
p2598
F1
sVcrept
p2599
F4
sVdisposition,
p2600
F1
sVmemory,
p2601
F1
sV'come,
p2602
F1
sVno,
p2603
F4
sVwealth,
p2604
F2
sVserving
p2605
F2
sVfurley's
p2606
F1
sVindeed
p2607
F21
sVconsulting
p2608
F5
sVbewitching
p2609
F1
sVended
p2610
F6
sVcolonel,
p2611
F7
sVno;
p2612
F1
sVcold
p2613
F8
sVstill
p2614
F24
sVtrifle
p2615
F1
sVtending
p2616
F1
sVacknowledge
p2617
F1
sVselves
p2618
F3
sVchristendom,
p2619
F1
sVdesigns,
p2620
F2
sVcurls
p2621
F1
sVinflicted
p2622
F1
sVyears.'
p2623
F1
sVwindow
p2624
F5
sVatonement
p2625
F1
sVintrigue,
p2626
F2
sVspirits.
p2627
F1
sVspirits,
p2628
F3
sV'certainly,
p2629
F1
sVobedience.
p2630
F1
sVhalf
p2631
F19
sVnot
p2632
F358
sVcourtship
p2633
F2
sVson
p2634
F14
sVprovision
p2635
F4
sVnor
p2636
F42
sVdown
p2637
F81
sVhereafter,
p2638
F1
sVhereafter)
p2639
F1
sVservant
p2640
F18
sVjames
p2641
F2
sVdrop
p2642
F1
sVentirely
p2643
F1
sVvexation
p2644
F1
sVmiranda's,
p2645
F1
sVfired
p2646
F2
sVintirely
p2647
F2
sVchallenged
p2648
F1
sVadvantage.
p2649
F2
sVhurried
p2650
F1
sVyear
p2651
F10
sVdefense,
p2652
F1
sVadvantage;
p2653
F1
sVirons
p2654
F3
sVaccomplish
p2655
F2
sVopened
p2656
F9
sVkingdom;
p2657
F1
sVcould,
p2658
F6
sVpalace,
p2659
F1
sVhastily
p2660
F1
sVlooking
p2661
F11
sVsmall-pox,
p2662
F1
sVruinous
p2663
F3
sVreceiving
p2664
F2
sVinevitably
p2665
F1
sVmonitor,
p2666
F1
sVthong
p2667
F1
sVfire-
p2668
F1
sVfire,
p2669
F2
sVquart
p2670
F1
sVdirections.
p2671
F1
sVadvantages
p2672
F1
sVobligation
p2673
F3
sVcare
p2674
F28
sVfixed
p2675
F5
sVhonest
p2676
F13
sVfetters
p2677
F2
sVprofess
p2678
F2
sVsupport
p2679
F5
sVdigression.
p2680
F1
sVlovers,
p2681
F1
sVstriking
p2682
F1
sVillustrious
p2683
F1
sVenjoining
p2684
F1
sVended,
p2685
F2
sVrencounters;
p2686
F1
sVgenteel,
p2687
F1
sVimpossible
p2688
F12
sVgenteel.
p2689
F1
sVdrove
p2690
F18
sVchecked
p2691
F1
sVsilent
p2692
F4
sVcaught
p2693
F7
sVbreed
p2694
F1
sVignorant,
p2695
F1
sVother?"
p2696
F1
sVreturns,
p2697
F1
sVfriend
p2698
F38
sVthat
p2699
F871
sVviolence,
p2700
F1
sVlodged.
p2701
F1
sVlodged,
p2702
F1
sVmiranda,
p2703
F5
sVthan
p2704
F72
sVmonastery,
p2705
F2
sVblackamoor
p2706
F2
sVfruits
p2707
F2
sVturbants,
p2708
F1
sVwretched.'
p2709
F2
sVcottage-door;
p2710
F1
sVremained
p2711
F6
sVpunctually
p2712
F1
sVmodishly,
p2713
F1
sVundertaking;
p2714
F1
sVsea-port,
p2715
F1
sValms-deeds,
p2716
F1
sVfrighted,
p2717
F1
sVbreakfast
p2718
F2
sVrecover
p2719
F3
sVarmed,
p2720
F2
sVexposed,
p2721
F1
sVform
p2722
F1
sVbroad-side,
p2723
F1
sVcatharina's
p2724
F1
sVslave,
p2725
F6
sVslave.
p2726
F1
sVmr.
p2727
F4
sVpunishment,
p2728
F1
sVstead,
p2729
F1
sVcheeks,
p2730
F1
sVbegin
p2731
F1
sVprice
p2732
F1
sVneatly
p2733
F1
sVbeing,
p2734
F2
sVcheeks;
p2735
F1
sVso.
p2736
F1
sVimpossible.
p2737
F1
sVexpected;
p2738
F1
sVacceptable,
p2739
F1
sVassisting,
p2740
F1
sVslaves
p2741
F8
sVvisitors:
p2742
F1
sVhonour.
p2743
F2
sVhonour,
p2744
F6
sVfifty
p2745
F1
sVdiscovered
p2746
F14
sVhonour;
p2747
F1
sVground
p2748
F5
sVwhat,
p2749
F1
sVtitle
p2750
F2
sVangola,
p2751
F1
sVstaid
p2752
F11
sVonly
p2753
F40
sVseen.
p2754
F3
sVfriend.'
p2755
F1
sV(here
p2756
F1
sV'tis
p2757
F13
sVtruly
p2758
F5
sVcannot
p2759
F18
sVbracelets
p2760
F1
sVhonours
p2761
F1
sVamours
p2762
F1
sVfriends;
p2763
F3
sVpistol
p2764
F2
sVseldom
p2765
F2
sVemboldened
p2766
F1
sVpassionately,
p2767
F2
sVfriends,
p2768
F16
sVspot.
p2769
F1
sVhusband
p2770
F20
sVprotestations
p2771
F1
sVfamine
p2772
F1
sVunfit
p2773
F2
sVculpable
p2774
F1
sVwidow-lady
p2775
F1
sVrescued
p2776
F1
sVthis.'
p2777
F1
sVcome,
p2778
F3
sVcome.
p2779
F1
sVvalleys,
p2780
F1
sVpistoles,
p2781
F4
sVcolours
p2782
F1
sVpresumed
p2783
F1
sVcomplexion
p2784
F1
sVtutor,
p2785
F2
sVbetween
p2786
F21
sVreside,
p2787
F1
sVher's;
p2788
F1
sVeuropean,
p2789
F2
sVnotice
p2790
F7
sVpluck
p2791
F1
sVblame
p2792
F1
sVbroil
p2793
F1
sVconsumptive,
p2794
F1
sVmonk
p2795
F17
sVcolour,
p2796
F1
sVpray
p2797
F1
sVstools,
p2798
F1
sVcomes
p2799
F3
sVreserved,
p2800
F1
sVlearning
p2801
F2
sVproved
p2802
F3
sVlong-boat
p2803
F2
sVcared
p2804
F2
sVpunished
p2805
F4
sVesteemed,
p2806
F1
sVdangers
p2807
F3
sVmonsieur
p2808
F73
sVwounds
p2809
F6
sVsuspected
p2810
F6
sVtawny;
p2811
F1
sVthese
p2812
F107
sVdanger.
p2813
F1
sVfowls,
p2814
F1
sVgreatly.
p2815
F1
sVtawny,
p2816
F1
sVcare,
p2817
F4
sVperson's
p2818
F1
sVdanger;
p2819
F1
sVimplacable
p2820
F1
sVvillains,
p2821
F4
sVill-looked
p2822
F1
sVvillains.
p2823
F1
sVdie,
p2824
F4
sVinstigation,
p2825
F1
sVembrace
p2826
F2
sValone?'
p2827
F1
sVcommanded
p2828
F5
sVfloating
p2829
F2
sVgenerously
p2830
F1
sVinquire
p2831
F4
sVfontain
p2832
F1
sVgentlemen
p2833
F16
sVinquiry
p2834
F4
sVsaluted,
p2835
F1
sVnoble
p2836
F14
sVfinish
p2837
F1
sVcupid's
p2838
F1
sVfisherman's
p2839
F3
sVrapture,
p2840
F1
sVfruit
p2841
F2
sVnobly
p2842
F7
sVarms.'
p2843
F1
sVcharges
p2844
F2
sVsevere
p2845
F2
sVcharged
p2846
F3
sVam,
p2847
F6
sVcertain,
p2848
F1
sVspeed
p2849
F1
sVdeath
p2850
F28
sVeither;
p2851
F1
sVthinking
p2852
F10
sVsenseless
p2853
F1
sVbreeding.
p2854
F1
sVbreeding,
p2855
F1
sVtreatment
p2856
F4
sVstruck
p2857
F7
sVread
p2858
F6
sVstung
p2859
F2
sVstools
p2860
F1
sVearly
p2861
F2
sVearnest
p2862
F2
sVhugonot,
p2863
F1
sVusing
p2864
F2
sVexecution
p2865
F1
sVlady
p2866
F43
sVentertainment.
p2867
F1
sVfortune
p2868
F31
sVpounds
p2869
F3
sVhazards;
p2870
F1
sVtwelve
p2871
F3
sVopened,
p2872
F1
sVapartments
p2873
F1
sVthro'
p2874
F10
sVdone,
p2875
F9
sVbigger
p2876
F1
sVrival.'
p2877
F1
sVpeace,
p2878
F3
sVpeace.
p2879
F2
sVwell-shaped,
p2880
F1
sVdrops:
p2881
F1
sVunlocked
p2882
F1
sVconceal,
p2883
F1
sVrecorded
p2884
F1
sVpaint,
p2885
F1
sVlabour,
p2886
F2
sVrifling
p2887
F1
sVcleansed
p2888
F1
sVknees,
p2889
F3
sV"if,
p2890
F1
sVdrag'd
p2891
F1
sVcredits
p2892
F1
sVapartment,
p2893
F3
sVapartment.
p2894
F2
sVhandsomest
p2895
F1
sVthrow
p2896
F4
sVpiety
p2897
F4
sVpleased.
p2898
F3
sVenquiry,
p2899
F1
sVpassion;
p2900
F2
sVpassion:
p2901
F1
sVwidow:
p2902
F1
sVpassion?
p2903
F1
sVnecessaries,
p2904
F1
sVboldly
p2905
F4
sVjourney
p2906
F1
sVgreatly
p2907
F7
sVwithout,
p2908
F1
sVpleased:
p2909
F1
sVpassion,
p2910
F8
sVpassion.
p2911
F2
sVstratagem
p2912
F3
sVcommodious
p2913
F1
sVducatoons
p2914
F1
sVyour
p2915
F153
sVgrates
p2916
F1
sVrisen,
p2917
F1
sVprepare
p2918
F3
sVhearth,
p2919
F1
sVposture,
p2920
F1
sVduante
p2921
F4
sVstart
p2922
F1
sVpoured
p2923
F7
sVlow
p2924
F3
sVfishing-tackle
p2925
F1
sVyou.
p2926
F13
sVyou,
p2927
F55
sVdelayed
p2928
F1
sVyou?
p2929
F3
sVsquare.
p2930
F1
sVyou;
p2931
F11
sVyou:
p2932
F4
sVcottage
p2933
F6
sVdomingo
p2934
F19
sVpitched
p2935
F1
sVhire
p2936
F2
sVburning,
p2937
F1
sVare,
p2938
F3
sVlawfully
p2939
F1
sVmountains:
p2940
F1
sVsupposition:
p2941
F1
sVare;
p2942
F1
sVdisposal?
p2943
F1
sVintents
p2944
F1
sVdescribe
p2945
F1
sVmoved
p2946
F5
sVtrickled
p2947
F1
sVsea-captain
p2948
F1
sVprocured;
p2949
F1
sVmaid's
p2950
F2
sVnobly,
p2951
F3
sVthither
p2952
F12
sVnobly;
p2953
F2
sVevenings
p2954
F2
sVmilking
p2955
F1
sVyou
p2956
F307
sVforcing
p2957
F1
sVpoor
p2958
F64
sVmove,
p2959
F1
sVquickset
p2960
F1
sVproduces,
p2961
F1
sValledge
p2962
F1
sVinsomuch
p2963
F1
sVmove:
p2964
F1
sVsuited
p2965
F1
sVbuilding
p2966
F1
sVmourned
p2967
F1
sVevening,
p2968
F14
sVevening.
p2969
F1
sVrepay
p2970
F1
sVmountains,
p2971
F3
sVdoubted
p2972
F6
sVembracing
p2973
F2
sVgown
p2974
F2
sVdirected:
p2975
F1
sVdovegna
p2976
F1
sVhopes?'
p2977
F1
sVmanaged
p2978
F2
sVreligious
p2979
F2
sVdirected,
p2980
F2
sVreproaching
p2981
F1
sVdreadful
p2982
F25
sVbrachman
p2983
F1
sVsustain
p2984
F1
sVdistasteful,
p2985
F1
sVvery
p2986
F124
sVchurch-door
p2987
F1
sVhorror
p2988
F2
sVpossessed.
p2989
F1
sVminded
p2990
F1
sVcalibash-shells,
p2991
F1
sVuneasy,
p2992
F2
sVuneasy;
p2993
F1
sVi'll
p2994
F10
sVexpectations,
p2995
F1
sVanswer:
p2996
F1
sVanswer,
p2997
F5
sVconscience
p2998
F7
sVails
p2999
F1
sVhim:
p3000
F12
sVhim;
p3001
F20
sV'too
p3002
F1
sVhim.
p3003
F38
sVhim,
p3004
F132
sVlearned
p3005
F11
sVignatius,
p3006
F1
sVacknowledgments
p3007
F1
sVeldest,
p3008
F1
sVloose
p3009
F1
sVfish-ponds,
p3010
F1
sVanswers
p3011
F1
sVstreet,
p3012
F1
sVtrunk
p3013
F1
sVproposal;
p3014
F1
sVstrong
p3015
F7
sVreality,
p3016
F2
sVinspired
p3017
F2
sVfamily
p3018
F15
sVstory;
p3019
F3
sVnorth-side
p3020
F1
sVvirgins
p3021
F1
sVbelanger
p3022
F89
sVguns.
p3023
F1
sVtravel,
p3024
F3
sVstory.
p3025
F2
sVstory,
p3026
F12
sVcapacity,
p3027
F1
sVgrieved,
p3028
F1
sVcontains
p3029
F1
sVpraised
p3030
F2
sVtaken
p3031
F42
sVinjury
p3032
F2
sVthrown
p3033
F6
sVresolutions;
p3034
F1
sVvirgin,
p3035
F4
sVinstrumental
p3036
F1
sVbroke
p3037
F18
sVmounted
p3038
F2
sVrespected
p3039
F3
sVbrothers,
p3040
F1
sVmodesty,
p3041
F3
sVtake:
p3042
F2
sVhermits.
p3043
F1
sVoffended
p3044
F4
sVhorses,
p3045
F4
sVtake,
p3046
F3
sVobtain
p3047
F3
sVhistory
p3048
F1
sVforth,
p3049
F3
sVfury,
p3050
F1
sVpushed
p3051
F2
sVmiserable.
p3052
F1
sVcomplexion,
p3053
F1
sVoratory
p3054
F1
sVbread,
p3055
F6
sVbread.
p3056
F2
sVcolonel.
p3057
F1
sVpassionately?
p3058
F1
sVstayed
p3059
F3
sVunlucky
p3060
F1
sVshrouds
p3061
F1
sVreject
p3062
F1
sVdagger;
p3063
F1
sVwell-drest
p3064
F1
sVkinds;
p3065
F1
sVcomplexions
p3066
F1
sVtried
p3067
F3
sVrude
p3068
F1
sVdesisted
p3069
F1
sVobstinate,
p3070
F1
sVtwenty-nine
p3071
F1
sVa
F1402
sVcontrived
p3072
F6
sVwoods,
p3073
F3
sVshroud,
p3074
F1
sVthough,
p3075
F1
sVboldly,
p3076
F1
sVbanks
p3077
F2
sVcalm,
p3078
F2
sVdream
p3079
F1
sVhelp
p3080
F17
sVmusick.
p3081
F1
sVforth:
p3082
F1
sVcomplimented,
p3083
F1
sVsoon
p3084
F100
sVheld
p3085
F5
sV'fair
p3086
F1
sVcommitted
p3087
F6
sVhell
p3088
F1
sVsurprized
p3089
F16
sVprobability
p3090
F2
sVfair,
p3091
F3
sVabsence
p3092
F1
sVoccasion.
p3093
F1
sVminute
p3094
F1
sVoccasion,
p3095
F2
sVin:
p3096
F1
sVfiner
p3097
F1
sVforbear
p3098
F2
sVguns,
p3099
F2
sVevening
p3100
F13
sVgroping
p3101
F1
sVfood
p3102
F13
sVcoverlids:
p3103
F1
sVfaltered,
p3104
F1
sVtreasure.
p3105
F1
sVfoot
p3106
F7
sVslighted
p3107
F1
sVcoverlids,
p3108
F1
sVfine,
p3109
F32
sVlabour:
p3110
F1
sVimprisoned
p3111
F1
sVsurprize,
p3112
F3
sVenlarged
p3113
F1
sVbless
p3114
F4
sVstopped
p3115
F2
sVblest
p3116
F3
sVtragick
p3117
F1
sVunkind;
p3118
F1
sVheavy
p3119
F2
sVjaws
p3120
F1
sVexasperated
p3121
F1
sVhouse.
p3122
F1
sVhouse,
p3123
F42
sVsails,
p3124
F2
sVscraps,
p3125
F1
sVdistemper,
p3126
F1
sVhouse:
p3127
F1
sVhouse;
p3128
F1
sVbeyond
p3129
F5
sVsteered
p3130
F4
sVveneration
p3131
F2
sVdispatched,
p3132
F1
sVtrusty
p3133
F1
sVdispatched.
p3134
F1
sVsince
p3135
F44
sVmeditating
p3136
F1
sVpublish
p3137
F1
sVstoups
p3138
F1
sVtable-book,
p3139
F1
sVsafety
p3140
F2
sVundoing,
p3141
F1
sV'must
p3142
F1
sVgardener
p3143
F1
sVreason
p3144
F20
sVbase
p3145
F8
sVask
p3146
F14
sVheroic
p3147
F1
sVmerrily,
p3148
F1
sVlaunch
p3149
F1
sVpersists
p3150
F1
sVpersuading
p3151
F1
sVterrible
p3152
F5
sVtrust,
p3153
F1
sVgentleman's
p3154
F2
sVexpecting
p3155
F3
sVconquered,
p3156
F1
sVblush
p3157
F1
sVdear,
p3158
F2
sVday-break,
p3159
F3
sVloved.
p3160
F1
sVirons,
p3161
F5
sVloved,
p3162
F4
sVknocking
p3163
F1
sVroots:
p3164
F1
sVelder
p3165
F3
sVscruples,
p3166
F1
sVminutes,
p3167
F1
sVmoat,
p3168
F1
sVraw,
p3169
F1
sVsweetmeats,
p3170
F1
sVhorse
p3171
F8
sVst.
p3172
F39
sVobedience
p3173
F1
sVwonderful
p3174
F1
sVhindered
p3175
F1
sVhundred
p3176
F8
sVmerciless
p3177
F5
sVshifted
p3178
F1
sVdisputed,
p3179
F1
sVvision,
p3180
F1
sVpassed
p3181
F29
sVbehind
p3182
F9
sVpendants
p3183
F1
sVbower
p3184
F1
sVdissemble
p3185
F1
sVauthors
p3186
F2
sVgrew
p3187
F20
sVkindly
p3188
F5
sVmiseries
p3189
F6
sVbride
p3190
F2
sVtunis
p3191
F2
sVrecovered
p3192
F6
sVgarrison
p3193
F2
sVwithered
p3194
F1
sVcharlotta
p3195
F107
sVheaviest
p3196
F1
sVjuice
p3197
F2
sVselling
p3198
F2
sVravenous
p3199
F1
sVfraud,
p3200
F1
sVblissful
p3201
F1
sVcreek,
p3202
F2
sVflaming
p3203
F1
sVofficers
p3204
F4
sVconcealed.
p3205
F2
sVlabour
p3206
F2
sVdangers,
p3207
F1
sVcomprehended
p3208
F2
sVsummer-
p3209
F2
sVaggravating
p3210
F1
sVcommand
p3211
F3
sVtowards
p3212
F25
sVrigged,
p3213
F1
sVhired
p3214
F8
sVunsearchable,
p3215
F1
sVapproved
p3216
F1
sVlips,
p3217
F1
sVclimates:
p3218
F1
sVher's
p3219
F3
sVofficer.
p3220
F1
sVclimates,
p3221
F1
sVofficer,
p3222
F2
sVclean
p3223
F5
sVgentlewoman's
p3224
F2
sVindignation.
p3225
F1
sVleague
p3226
F1
sVdescended,
p3227
F2
sVdescended.
p3228
F1
sVsacrifice.'
p3229
F1
sVwith,
p3230
F2
sVwith.
p3231
F2
sVjustice
p3232
F8
sVless
p3233
F10
sVunwillingly
p3234
F1
sValms,
p3235
F1
sVmoments
p3236
F2
sVpretty
p3237
F4
sVwith:
p3238
F1
sVhardened
p3239
F2
sVreap
p3240
F1
sVheaven,
p3241
F8
sVheaven.
p3242
F1
sVolder,
p3243
F1
sVvelvet,
p3244
F1
sVtrees
p3245
F7
sVfamous
p3246
F1
sVbelemante,
p3247
F1
sVpretending
p3248
F12
sVboils
p3249
F1
sVduring
p3250
F10
sVimitating
p3251
F1
sVdismal,
p3252
F1
sVbirds,
p3253
F1
sVfollies.
p3254
F1
sValteration
p3255
F1
sVfollies,
p3256
F1
sVflight.
p3257
F1
sVgloves
p3258
F1
sVcatched
p3259
F12
sVflight;
p3260
F1
sVpoisoned
p3261
F2
sVthrowing
p3262
F1
sVdiscovered.'
p3263
F1
sVclose
p3264
F7
sVyears:
p3265
F2
sVyears;
p3266
F1
sVunmolested,
p3267
F1
sVhorrid
p3268
F3
sVpictures
p3269
F1
sVliberty.
p3270
F2
sVmatress,
p3271
F1
sVyears,
p3272
F12
sVsecret.
p3273
F3
sVyears.
p3274
F3
sVsecret,
p3275
F4
sVuncivilly,
p3276
F1
sVmissing
p3277
F1
sVtemples,
p3278
F1
sVinfidels.
p3279
F1
sVcondition.
p3280
F2
sVcondition,
p3281
F12
sVadores
p3282
F1
sVburthens,
p3283
F1
sVcondition?
p3284
F1
sVabove,
p3285
F2
sVcondition;
p3286
F2
sVcondition:
p3287
F1
sVpicture,
p3288
F1
sVvault
p3289
F4
sVliked
p3290
F2
sVyards
p3291
F1
sVlive.
p3292
F5
sVlive,
p3293
F5
sVwhatever
p3294
F7
sVheathens,
p3295
F1
sVmontandre,
p3296
F14
sVvessel
p3297
F9
sVfears,
p3298
F1
sVpersecuted
p3299
F2
sVarrest
p3300
F1
sVdamp
p3301
F1
sVdamn
p3302
F1
sVcoarse
p3303
F2
sVmaintenance
p3304
F2
sVbristol,
p3305
F4
sVthreaten
p3306
F3
sVinstructing
p3307
F1
sVdelights
p3308
F1
sVbox
p3309
F6
sVlived
p3310
F49
sVpartly
p3311
F1
sVmanner;
p3312
F2
sVsuccess,
p3313
F1
sVchair,
p3314
F2
sVdeter
p3315
F4
sVmanner.
p3316
F5
sVmanner,
p3317
F16
sVlives
p3318
F8
sVbidding
p3319
F6
sVuses.
p3320
F1
sVlike:
p3321
F1
sVrelation's
p3322
F1
sVutmost
p3323
F9
sVopportunity,
p3324
F6
sVgale
p3325
F1
sVgovernor
p3326
F23
sVrope
p3327
F1
sVwhile
p3328
F7
sVsubstantial
p3329
F1
sVsmart
p3330
F1
sVfleet
p3331
F1
sVkinswomen
p3332
F1
sVguide
p3333
F8
sVpack
p3334
F1
sVbailiffs
p3335
F1
sVlisten
p3336
F1
sVuse,
p3337
F2
sVembroidered
p3338
F1
sVboarding-school
p3339
F1
sVloosened
p3340
F1
sVready
p3341
F28
sVreception.
p3342
F1
sVlawyer,
p3343
F2
sVfairer
p3344
F1
sVpleading,
p3345
F1
sVuncertain,
p3346
F1
sVbelong
p3347
F1
sVrags,
p3348
F1
sVincensed,
p3349
F1
sVfernando,
p3350
F1
sVcovetous
p3351
F1
sVused
p3352
F46
sVsands;
p3353
F1
sVsoberly
p3354
F1
sVdecency
p3355
F1
sVceremonious
p3356
F1
sVsands,
p3357
F3
sVsands.
p3358
F1
sVchanged,
p3359
F1
sVolder
p3360
F1
sVfelicity,
p3361
F1
sVchanged;
p3362
F1
sVinsolent,
p3363
F1
sVcave
p3364
F1
sVdangerous,
p3365
F1
sVlimbs;
p3366
F1
sVwise,
p3367
F2
sVmorsel
p3368
F1
sV'now,
p3369
F1
sVdiminished,
p3370
F1
sVgoods;
p3371
F1
sVinsolent
p3372
F2
sVpraying
p3373
F1
sVlimbs,
p3374
F2
sVconjured
p3375
F1
sVpetticoats
p3376
F1
sVschool-fellow
p3377
F1
sVremaining
p3378
F1
sVlonger.
p3379
F3
sVlonger,
p3380
F2
sVsharers
p3381
F1
sVdearly
p3382
F5
sVdistance,
p3383
F1
sVvests
p3384
F1
sVsubmission
p3385
F1
sVfrier's
p3386
F1
sVsignal
p3387
F1
sVmanifest
p3388
F1
sVthroat,
p3389
F4
sVmathematical
p3390
F2
sVlast,
p3391
F11
sVundrest
p3392
F1
sVsome
p3393
F270
sVplot:
p3394
F1
sVlake,
p3395
F1
sVexperienced
p3396
F1
sVbesides,
p3397
F10
sVhaled
p3398
F1
sVmagnificence.
p3399
F1
sVdelivered
p3400
F12
sVreverencing
p3401
F1
sVfurnishes.
p3402
F1
sVprovidence
p3403
F24
sVaugustine
p3404
F1
sVbereaving
p3405
F1
sVshipwreck.
p3406
F1
sVshipwreck,
p3407
F1
sVfather:
p3408
F2
sVeating
p3409
F6
sVrum
p3410
F1
sVbenefactor
p3411
F1
sVfather)
p3412
F1
sVstep
p3413
F3
sVfather-
p3414
F1
sVfather,
p3415
F37
sVlawfulness
p3416
F1
sVfather.
p3417
F1
sVplots
p3418
F1
sVabroad
p3419
F3
sVfaith
p3420
F8
sVshewing
p3421
F1
sVbeheld,
p3422
F1
sVbeheld.
p3423
F1
sVportsmouth,
p3424
F1
sVsilence
p3425
F1
sVseeing
p3426
F34
sVfish,
p3427
F2
sVeaten
p3428
F1
sVwithin
p3429
F3
sVfish;
p3430
F1
sVcoldly;
p3431
F1
sVnegro-slaves
p3432
F1
sVcalais
p3433
F1
sVmemory."
p3434
F1
sVbrought,
p3435
F1
sVcaressed
p3436
F4
sVfather-in-law,
p3437
F5
sVplacing
p3438
F1
sV.'
p3439
F3
sVeye-lids,
p3440
F1
sVbrought:
p3441
F1
sVhimself
p3442
F45
sVgoverns
p3443
F1
sVhealthful
p3444
F1
sVproperly
p3445
F1
sVdull
p3446
F1
sVmiracle,
p3447
F1
sVnecessity;
p3448
F1
sVmittins,
p3449
F1
sVnecessity.
p3450
F1
sVnecessity,
p3451
F1
sVpaintings,
p3452
F1
sVdistracted,
p3453
F2
sVchoosing
p3454
F3
sVdistracted.
p3455
F1
sVchafed
p3456
F1
sVcalais,
p3457
F3
sVvisit,
p3458
F2
sVthemselves;
p3459
F3
sVthemselves:
p3460
F4
sVshipwrecks,
p3461
F1
sVdashed
p3462
F1
sVheat,
p3463
F1
sVfears
p3464
F5
sVsmiling,
p3465
F1
sVthemselves.
p3466
F1
sVthemselves,
p3467
F3
sVnay
p3468
F10
sVwished
p3469
F6
sVdraw
p3470
F2
sVservice.'
p3471
F1
sVvisits
p3472
F6
sVwilliam
p3473
F1
sVdrag
p3474
F1
sVrested
p3475
F1
sVhanover
p3476
F1
sVurged
p3477
F5
sVfear;
p3478
F1
sVresistance;
p3479
F1
sVresolving
p3480
F15
sVclenched
p3481
F1
sVought.'
p3482
F1
sVfear.
p3483
F5
sVneighbouring
p3484
F1
sVlying
p3485
F8
sVbribe
p3486
F1
sVshe's
p3487
F1
sVpinioned
p3488
F1
sVblessing,
p3489
F1
sVroughly;
p3490
F1
sVnuns
p3491
F1
sVhelped
p3492
F1
sVgo
p3493
F105
sV'have
p3494
F1
sVfrenchman,
p3495
F1
sVtransacted
p3496
F1
sVmosque
p3497
F2
sVvirtuous
p3498
F9
sVprudence
p3499
F1
sVmore:
p3500
F1
sVwave
p3501
F2
sVnun.
p3502
F1
sVmore,
p3503
F10
sVout-cries
p3504
F1
sVboard,
p3505
F9
sVcoldly.
p3506
F1
sVtree,
p3507
F4
sVmeant
p3508
F2
sVcounselled
p3509
F1
sVcompassionate
p3510
F1
sVbetwixt
p3511
F4
sVteeth,
p3512
F1
sVany.'
p3513
F1
sVcomforts
p3514
F1
sVthence,
p3515
F4
sVthence.
p3516
F2
sVdecreed
p3517
F1
sVpicked
p3518
F1
sVardent
p3519
F1
sVthence:
p3520
F1
sVthence;
p3521
F2
sVfishermen:
p3522
F1
sVsilver-lace,
p3523
F1
sVcolonel
p3524
F13
sVcell
p3525
F2
sVfishermen,
p3526
F1
sV;
F56
sVmelancholy
p3527
F2
sVwell-born,
p3528
F1
sVseemed,
p3529
F1
sVfollowing
p3530
F6
sVconveyances
p3531
F1
sVgenerous,
p3532
F1
sVpre-ingaged
p3533
F2
sVconvert
p3534
F1
sVwithdrawing
p3535
F1
sVinfancy:
p3536
F1
sVreturns.
p3537
F1
sVpainting.
p3538
F1
sVforesee
p3539
F1
sVaddresses
p3540
F2
sVdanger
p3541
F6
sVworthy
p3542
F6
sVapprehensive
p3543
F3
sVaddressed
p3544
F6
sVwit
p3545
F1
sVnerves,
p3546
F1
sVdistinguish,
p3547
F1
sVsinging
p3548
F1
sVagreeably
p3549
F6
sVremains
p3550
F1
sVservant,
p3551
F7
sVmoorish
p3552
F1
sVservant)
p3553
F1
sVagreeable
p3554
F4
sVservant;
p3555
F1
sVwith;
p3556
F1
sVstarted
p3557
F1
sVbecomes
p3558
F1
sVtestified
p3559
F1
sVcharming
p3560
F17
sVfellow-sufferers
p3561
F1
sVcouch,
p3562
F2
sVappointed
p3563
F1
sVreflect,
p3564
F2
sVlavinia,
p3565
F1
sVcrossed
p3566
F1
sVservants
p3567
F12
sVmeet
p3568
F24
sVdrops
p3569
F2
sVdropt
p3570
F2
sVfar,
p3571
F1
sVallowed
p3572
F1
sVrisque
p3573
F1
sVatone
p3574
F1
sVpulling
p3575
F1
sVsought
p3576
F2
sVobeyed,
p3577
F2
sVkindness,
p3578
F1
sVover.'
p3579
F1
sVfavourite:
p3580
F1
sVsentiments
p3581
F2
sV'lovely
p3582
F2
sVpray;
p3583
F1
sVspeech,
p3584
F1
sVbowed,
p3585
F2
sVfuriously
p3586
F2
sVluxuriously
p3587
F1
sVpeace
p3588
F15
sVfatigue
p3589
F2
sVcourage,
p3590
F4
sVescape.
p3591
F1
sVinnocent;
p3592
F1
sVrevered
p3593
F1
sVdespair:
p3594
F1
sVdespair;
p3595
F1
sVgulph
p3596
F1
sVdespair,
p3597
F2
sVhid
p3598
F8
sVdespair.
p3599
F1
sVhand,
p3600
F20
sVfresne
p3601
F1
sVwon't
p3602
F2
sVcruise
p3603
F1
sVhand;
p3604
F1
sVthence
p3605
F18
sVshewed
p3606
F10
sVhoods,
p3607
F1
sVpensioners
p3608
F1
sVmaster,
p3609
F3
sVsweets
p3610
F1
sVstout
p3611
F1
sVhands
p3612
F30
sVfront
p3613
F1
sVrome,
p3614
F5
sVsurpized
p3615
F1
sVmasters
p3616
F1
sVpensioner,
p3617
F5
sVofficer's
p3618
F1
sVrails,
p3619
F1
sVwretched;
p3620
F1
sVcrossing
p3621
F1
sVwretched.
p3622
F1
sVrails:
p3623
F1
sVprevailing
p3624
F1
sV(the
p3625
F1
sVhunting,
p3626
F1
sVills
p3627
F1
sVwine:
p3628
F1
sVwine;
p3629
F1
sVsands
p3630
F2
sVexceeded
p3631
F2
sVwine,
p3632
F12
sVwine.
p3633
F2
sVgallant
p3634
F1
sVsecretly
p3635
F7
sVdeath-bed,
p3636
F1
sVtime?
p3637
F2
sVtime:
p3638
F1
sVtime;
p3639
F3
sVconfess
p3640
F3
sVunlawful
p3641
F2
sVrouzed
p3642
F2
sVlands;
p3643
F1
sVtime,
p3644
F16
sVnight.'
p3645
F1
sVembraced,
p3646
F2
sVyet---
p3647
F1
sVlands,
p3648
F1
sVlands.
p3649
F1
sVcause
p3650
F16
sVabriseaux,
p3651
F2
sVone's
p3652
F1
sVwines
p3653
F2
sVsand,
p3654
F2
sVundo
p3655
F2
sVcompletely
p3656
F3
sVill,
p3657
F4
sVsliped
p3658
F1
sVreceived.
p3659
F2
sVreceived,
p3660
F2
sVdrowning
p3661
F1
sVpenknife
p3662
F1
sVtimes
p3663
F5
sVrepulsed
p3664
F1
sVremorse,
p3665
F1
sVmankind
p3666
F1
sVspite,
p3667
F1
sVclamour
p3668
F1
sVleonora
p3669
F11
sVmidwife's
p3670
F3
sVpitied
p3671
F3
sVpossessing
p3672
F1
sVpowerful
p3673
F2
sVindisposed
p3674
F1
sV'fame
p3675
F1
sVchelsea,
p3676
F2
sVquality
p3677
F7
sVmanagement
p3678
F1
sVbe.
p3679
F4
sVbe,
p3680
F2
sVrubies,
p3681
F1
sVbears
p3682
F2
sVbe!
p3683
F1
sVrelations
p3684
F7
sVbe;
p3685
F1
sVbearn
p3686
F1
sVwrapped
p3687
F2
sVperfectly
p3688
F4
sVfinal
p3689
F1
sVbeard
p3690
F2
sVmariana
p3691
F1
sVpunish
p3692
F3
sVsucceed;
p3693
F1
sVprince.
p3694
F1
sVherself
p3695
F19
sVbear:
p3696
F1
sVashore,
p3697
F5
sVesteem.'
p3698
F1
sVfell,
p3699
F1
sVbeg
p3700
F11
sVbed
p3701
F18
sVrelation,
p3702
F2
sVbey
p3703
F4
sVbear,
p3704
F1
sVproviding
p3705
F1
sVsultry
p3706
F1
sVvillains
p3707
F2
sVvillainy
p3708
F2
sVhorrors
p3709
F1
sVemeralds;
p3710
F1
sVneed
p3711
F6
sVconstrained
p3712
F4
sVpursued
p3713
F5
sVable
p3714
F29
sVgunner
p3715
F1
sVmedals
p3716
F1
sVnecklace,
p3717
F2
sVhorse's
p3718
F3
sVadieu
p3719
F1
sVduels
p3720
F1
sVpassionately
p3721
F4
sVbehavior:
p3722
F1
sVnegligence,
p3723
F1
sVsewing
p3724
F1
sVhorror,
p3725
F1
sVvillain,
p3726
F1
sVexpired
p3727
F2
sVmoments;
p3728
F1
sVmoments:
p3729
F1
sVafforded;
p3730
F1
sVupright,
p3731
F1
sVconstrain
p3732
F3
sVapprehensions,
p3733
F1
sVafforded,
p3734
F2
sVimpression
p3735
F1
sVprocedure,
p3736
F2
sVmerchant-ship.
p3737
F1
sVmerchant-ship,
p3738
F1
sVvain.'
p3739
F1
sVprocedure;
p3740
F1
sVsoldiers
p3741
F5
sV(whose
p3742
F1
sVarrived,
p3743
F6
sVin-law,
p3744
F1
sV(
F1
sVrash
p3745
F2
sVhigh-mass,
p3746
F1
sVgratify
p3747
F3
sVdoubting
p3748
F2
sVdrawers.
p3749
F1
sVsailing,
p3750
F1
sVchristians;
p3751
F1
sVinhabited,
p3752
F1
sVamazement,
p3753
F3
sVchristians,
p3754
F5
sVascended
p3755
F1
sVendless
p3756
F1
sVhad,
p3757
F5
sVtalking,
p3758
F1
sVshy
p3759
F1
sVbase,
p3760
F1
sV'squire's
p3761
F1
sVhad;
p3762
F1
sVdishonour.
p3763
F2
sVwish
p3764
F6
sVsolicitous
p3765
F2
sVrigour,
p3766
F1
sVwidow
p3767
F7
sV"that
p3768
F1
sVprayers
p3769
F5
sVstrumpet,
p3770
F1
sVroque
p3771
F4
sVusefulness
p3772
F1
sVdesperate
p3773
F5
sVindulged,
p3774
F1
sVmind;
p3775
F2
sVmind:
p3776
F1
sVtend
p3777
F1
sVmind,
p3778
F8
sVstate
p3779
F4
sVmind.
p3780
F1
sVwarmed
p3781
F2
sVhorrible
p3782
F1
sVgagged,
p3783
F1
sVneither
p3784
F10
sVtally-man
p3785
F2
sV(though
p3786
F1
sVtore
p3787
F4
sVdead:
p3788
F1
sVlimbs
p3789
F1
sVspared
p3790
F2
sVkey
p3791
F3
sVevenings,
p3792
F1
sVdiligent
p3793
F1
sVelapsed;
p3794
F1
sVminds
p3795
F1
sVoroonoko,
p3796
F3
sVadmit
p3797
F3
sVsea-port
p3798
F1
sVjoy.
p3799
F2
sVjoy,
p3800
F11
sVyours."
p3801
F1
sVresolved,
p3802
F5
sVjersey
p3803
F1
sVtogether;
p3804
F2
sVtogether:
p3805
F3
sVdid.
p3806
F5
sVtroubles
p3807
F1
sVsense;
p3808
F1
sVamounted
p3809
F1
sVcompetent
p3810
F1
sVtogether.
p3811
F3
sVpique,
p3812
F1
sVtogether,
p3813
F17
sVlouisa,
p3814
F2
sVquit
p3815
F6
sVteach
p3816
F1
sVown.
p3817
F2
sVthanked
p3818
F3
sVimmense
p3819
F3
sVtreat
p3820
F4
sVsafety;
p3821
F1
sVown:
p3822
F1
sVown;
p3823
F1
sVmisfortunes,
p3824
F9
sVbattlements
p3825
F1
sVking)
p3826
F1
sVking.
p3827
F1
sVking,
p3828
F3
sVboth
p3829
F29
sVvests,
p3830
F1
sVking;
p3831
F1
sVpiqued
p3832
F1
sVimprudence;
p3833
F1
sVinn
p3834
F2
sVcontemporaries,
p3835
F1
sVwill,
p3836
F11
sVwill.
p3837
F1
sVcoward:
p3838
F1
sVtide,
p3839
F1
sVsustenance
p3840
F1
sVsea-side,
p3841
F1
sVexamined
p3842
F5
sVappearance,
p3843
F1
sVvapours;
p3844
F1
sVthro';
p3845
F1
sVstab'd
p3846
F2
sVbegan
p3847
F27
sVexecutors
p3848
F1
sVparts
p3849
F5
sVvext
p3850
F1
sVparty
p3851
F3
sVsince,
p3852
F7
sVguards,
p3853
F2
sVgarden,
p3854
F5
sVfierce
p3855
F3
sVfrequently
p3856
F4
sVdestruction
p3857
F1
sVpoultry
p3858
F1
sVhouse)
p3859
F1
sVreflection
p3860
F1
sVnatured,
p3861
F1
sVi
F1110
sVlearn,
p3862
F1
sVpart,
p3863
F4
sV'my
p3864
F13
sVleander's
p3865
F1
sVguarded;
p3866
F1
sVrestore
p3867
F7
sVintimate,
p3868
F1
sVcondemned,
p3869
F1
sVdistant
p3870
F2
sVtenderness,
p3871
F2
sVrelented;
p3872
F1
sVushered
p3873
F1
sVought
p3874
F10
sVindignation
p3875
F1
sVkinswoman
p3876
F4
sVdover,
p3877
F1
sVfate
p3878
F7
sVmistake,
p3879
F1
sVbelanger's
p3880
F16
sVimmediately
p3881
F16
sVloss
p3882
F10
sVnecessary
p3883
F4
sVlost
p3884
F13
sVfernando
p3885
F1
sVlose
p3886
F6
sVparching
p3887
F1
sVpage
p3888
F2
sVstranger's
p3889
F2
sVtherein
p3890
F1
sVshed
p3891
F2
sVchains,
p3892
F2
sVbelonged
p3893
F4
sVretirement;
p3894
F1
sVpresents,
p3895
F1
sV'you
p3896
F1
sVshew
p3897
F3
sVfingers,
p3898
F1
sVdeliverance
p3899
F3
sVhome
p3900
F36
sVliking
p3901
F2
sVproofs
p3902
F1
sVbefore,
p3903
F14
sVbefore.
p3904
F2
sVheaven's
p3905
F6
sVravishingly,
p3906
F1
sVmadam,
p3907
F5
sVbroad
p3908
F3
sV"alas,
p3909
F1
sVclean,
p3910
F1
sVhabits,
p3911
F4
sVbefore:
p3912
F1
sV?
F2
sVreaching
p3913
F1
sVshe,
p3914
F26
sVcivility,
p3915
F2
sVshe)
p3916
F6
sVtalk,
p3917
F1
sVin,
p3918
F22
sVindeed;
p3919
F1
sVfreedom
p3920
F1
sVchance
p3921
F4
sVdelicacies
p3922
F1
sVempty
p3923
F1
sVtongue
p3924
F4
sVeloquently
p3925
F1
sVdiscovered;
p3926
F1
sVequally
p3927
F2
sVtimes;
p3928
F1
sVfettered
p3929
F1
sVcourt,
p3930
F5
sVgoal,
p3931
F1
sVtimes,
p3932
F2
sVdrowning.
p3933
F1
sVdrowning,
p3934
F1
sVendeavours
p3935
F1
sVdoubtless
p3936
F16
sVcell;
p3937
F1
sVrejoice
p3938
F1
sVimpatience
p3939
F1
sVseraglio.
p3940
F1
sVseraglio,
p3941
F2
sVinner
p3942
F1
sVreceipt
p3943
F1
sVnorth
p3944
F1
sVdetermined,
p3945
F2
sVstruggling,
p3946
F2
sVdresses,
p3947
F1
sVeffects.
p3948
F1
sVeffects,
p3949
F1
sVcatherina's
p3950
F1
sVgain
p3951
F13
sVhighest
p3952
F2
sVeat
p3953
F19
sVhe
p3954
F1134
sVnotice,
p3955
F2
sVhandsomly,
p3956
F1
sVleathern
p3957
F1
sVeyes;
p3958
F2
sVnotice;
p3959
F1
sVdevils,
p3960
F1
sVcruel
p3961
F22
sVconverted
p3962
F5
sVpirate-sloop
p3963
F1
sVgagged
p3964
F1
sVeyes.
p3965
F2
sVeyes,
p3966
F9
sVcatch
p3967
F3
sVfriend.
p3968
F5
sVfriend,
p3969
F21
sVpersuaded
p3970
F10
sVfriend?
p3971
F1
sVfriend;
p3972
F2
sVfriend:
p3973
F3
sVeducation
p3974
F1
sVbalcony
p3975
F1
sVarrack,
p3976
F1
sVwestminster
p3977
F1
sVleagues,
p3978
F1
sVstay
p3979
F13
sVstab
p3980
F1
sVyours;
p3981
F1
sVelse
p3982
F15
sVfriends
p3983
F21
sVabhor
p3984
F2
sVpardon
p3985
F10
sVchearful,
p3986
F1
sVpreferment,
p3987
F1
sVexpence
p3988
F2
sVabide
p3989
F1
sVcavalier,
p3990
F2
sVmuffling
p3991
F1
sVcaptain
p3992
F60
sVup.
p3993
F3
sVwhose
p3994
F44
sVup,
p3995
F15
sVpardon,
p3996
F1
sVcontained
p3997
F1
sVpresents
p3998
F5
sVcatch'd
p3999
F1
sVup:
p4000
F1
sVup;
p4001
F3
sVskill,
p4002
F2
sVsorry
p4003
F7
sVterrified,
p4004
F1
sVaffairs;
p4005
F2
sVcruising
p4006
F1
sVstraw,
p4007
F3
sVpowder,
p4008
F1
sVpreferments
p4009
F1
sVgovern
p4010
F2
sVstraw;
p4011
F1
sVvast
p4012
F5
sVlook
p4013
F27
sVinclined,
p4014
F1
sVclothed
p4015
F2
sVpresent,
p4016
F3
sVpresent:
p4017
F1
sVclothes
p4018
F15
sVbeauty,
p4019
F3
sVforce
p4020
F5
sVchearful;
p4021
F1
sVquilt
p4022
F1
sVme,
p4023
F131
sVme.
p4024
F31
sVme)
p4025
F1
sVlikely
p4026
F2
sVeggs,
p4027
F1
sVme?
p4028
F2
sVme;
p4029
F26
sVme:
p4030
F7
sVeven
p4031
F15
sVne'er
p4032
F1
sVwreck
p4033
F1
sVdesirous
p4034
F6
sVsaved
p4035
F6
sVgold.
p4036
F1
sVgold,
p4037
F6
sVrest.
p4038
F2
sVrest,
p4039
F5
sVgold;
p4040
F1
sVnew
p4041
F10
sVever
p4042
F41
sVreviving
p4043
F3
sVnever
p4044
F74
sVdrew
p4045
F4
sVmet
p4046
F25
sVdisoblige
p4047
F1
sVdry
p4048
F2
sVcried,
p4049
F3
sVsuitably
p4050
F1
sVwrought,
p4051
F1
sVlight,
p4052
F1
sVcredit
p4053
F5
sVpermit
p4054
F8
sVprison,
p4055
F5
sVlight;
p4056
F1
sVsuitable
p4057
F2
sVintrigue
p4058
F1
sVfell
p4059
F41
sVdeceived,
p4060
F2
sVdeceived.
p4061
F2
sVplea
p4062
F1
sVwar.
p4063
F1
sVwar,
p4064
F1
sVguests
p4065
F1
sVdrowned
p4066
F4
sVriviere,
p4067
F4
sVshelter;
p4068
F1
sVcriminals
p4069
F1
sVspaniards
p4070
F16
sVbarks
p4071
F1
sVsacred:
p4072
F1
sVcall
p4073
F10
sVrecommend
p4074
F3
sVright,
p4075
F1
sVsurvive
p4076
F1
sVtell
p4077
F25
sVvillainy.
p4078
F1
sVjacket,
p4079
F1
sVexpose
p4080
F2
sVwarn
p4081
F2
sVwarm
p4082
F7
sVinhabited
p4083
F2
sVremain'd
p4084
F1
sVsubsist.
p4085
F1
sVroom
p4086
F9
sVleak,
p4087
F1
sVarm,
p4088
F2
sVbark,
p4089
F4
sVspaniard,
p4090
F2
sVleak;
p4091
F1
sVcriminal,
p4092
F2
sVnewfoundland
p4093
F1
sVcriminal.
p4094
F1
sVdefer
p4095
F3
sV'honoured
p4096
F1
sVgive
p4097
F39
sVendured,
p4098
F1
sVensign;
p4099
F1
sVinfancy,
p4100
F1
sVovertake.
p4101
F1
sVarrive,
p4102
F1
sVconfessor:
p4103
F1
sVrising,
p4104
F1
sVcompassion
p4105
F2
sVamazing
p4106
F1
sVconfessor,
p4107
F2
sVreconciled
p4108
F2
sVfood,
p4109
F9
sVcatholick.
p4110
F1
sVcuriosity
p4111
F4
sVfood;
p4112
F1
sVpurchase
p4113
F5
sVattempt
p4114
F8
sVcivilly,
p4115
F1
sVfault,
p4116
F2
sVstill,
p4117
F1
sVmaintain
p4118
F3
sVfrequent
p4119
F1
sVplied
p4120
F1
sVfault;
p4121
F1
sVmarket-town,
p4122
F2
sVforesaw
p4123
F1
sVdown:
p4124
F1
sVperplexity;
p4125
F1
sVcalves,
p4126
F1
sVdown,
p4127
F13
sVdown.
p4128
F3
sVbefore
p4129
F99
sVthen,
p4130
F3
sVdesperateness
p4131
F1
sVcrew
p4132
F7
sVbetter
p4133
F12
sVweighed
p4134
F5
sVweeks
p4135
F5
sVovercome
p4136
F1
sVweakness
p4137
F2
sVwithin,
p4138
F1
sVspatterdashes,
p4139
F1
sVindulge
p4140
F1
sVsecured,
p4141
F1
sVweek,
p4142
F1
sVmartin's
p4143
F1
sVsleepless
p4144
F1
sVarrested
p4145
F1
sVlucy
p4146
F1
sVwent
p4147
F136
sVside
p4148
F14
sVbone
p4149
F1
sVmean
p4150
F28
sVcalmly
p4151
F1
sVskins
p4152
F2
sVtaught
p4153
F5
sVtrading
p4154
F2
sVforgot
p4155
F7
sVseats,
p4156
F1
sVhospitable
p4157
F1
sVmerchants
p4158
F5
sVvelvet
p4159
F2
sVcontent
p4160
F1
sVsparkle
p4161
F1
sVnewfoundland,
p4162
F1
sVis.
p4163
F1
sVis,
p4164
F11
sVthunder-struck,
p4165
F1
sVstorms;
p4166
F1
sVturning
p4167
F10
sVskin;
p4168
F1
sVrevenge
p4169
F4
sVascending
p4170
F1
sVskin,
p4171
F3
sVshriveled
p4172
F1
sVstruggle
p4173
F1
sVmistress
p4174
F18
sVbear's
p4175
F3
sVtale;
p4176
F1
sVbegan,
p4177
F1
sVoppressed,
p4178
F1
sVmoved,
p4179
F1
sVarrived
p4180
F30
sVloud
p4181
F1
sVmerchant,
p4182
F5
sVenraged
p4183
F9
sVwronged
p4184
F2
sVangelina,
p4185
F12
sVmedenta
p4186
F37
sVcomforted
p4187
F2
sVdig,
p4188
F1
sVvillage,
p4189
F4
sVvillage.
p4190
F1
sVdwelt
p4191
F1
sVliked.
p4192
F1
sVwants,
p4193
F1
sVacquaint
p4194
F8
sVgirls
p4195
F1
sVsoon;
p4196
F1
sVdwell
p4197
F4
sVunwholesom
p4198
F1
sVexecution;
p4199
F1
sVfloor,
p4200
F3
sVwell-armed;
p4201
F1
sVseas,
p4202
F3
sVfrize
p4203
F1
sVsomewhat
p4204
F1
sVfloor:
p4205
F1
sVfloor;
p4206
F1
sVpeculiar
p4207
F1
sVconfident;
p4208
F1
sVdistance
p4209
F2
sVnarrowly,
p4210
F1
sVviceroyship,
p4211
F1
sVgirl;
p4212
F1
sVaffront
p4213
F1
sVenabled
p4214
F1
sVpersuade
p4215
F4
sVsilly
p4216
F1
sVravished
p4217
F3
sVpalace
p4218
F1
sVmodern
p4219
F1
sVmind
p4220
F7
sVmine
p4221
F2
sVnobeman,
p4222
F1
sVseen
p4223
F10
sVseem
p4224
F2
sVseek
p4225
F4
sVtells
p4226
F2
sVsensible,
p4227
F1
sVdo.
p4228
F2
sVdo,
p4229
F12
sVdo:
p4230
F2
sVdo;
p4231
F6
sVchest
p4232
F5
sVniece
p4233
F1
sVgently,
p4234
F2
sVstarved
p4235
F2
sVmisfortunes.
p4236
F1
sVdaybreak;
p4237
F1
sVsee.
p4238
F1
sVcaressed,
p4239
F1
sVloved?"
p4240
F1
sVusage,
p4241
F2
sVassisting
p4242
F1
sVdon
p4243
F91
sVliberty;
p4244
F1
sVconsumed
p4245
F1
sVmalta,
p4246
F1
sVobserved,
p4247
F1
sVprosperity;
p4248
F1
sVfurley,
p4249
F4
sVstrong,
p4250
F2
sVlived,
p4251
F2
sVhunger
p4252
F2
sVman,'
p4253
F1
sVretire
p4254
F6
sVtreachery;
p4255
F1
sVending
p4256
F1
sVattempts
p4257
F3
sVabstain
p4258
F1
sVuneasiness
p4259
F1
sVliberty
p4260
F6
sVstepping
p4261
F3
sVrisques
p4262
F1
sVear,
p4263
F1
sVacquit
p4264
F1
sVabode,
p4265
F1
sVexplain
p4266
F1
sVdebts
p4267
F2
sVfolded
p4268
F1
sVfield,
p4269
F1
sVlimbs:
p4270
F1
sVconduct
p4271
F6
sVstop
p4272
F3
sVattempt,
p4273
F2
sVcoast
p4274
F4
sVmeditate
p4275
F1
sVadministred
p4276
F1
sVcity-house
p4277
F1
sVattempt:
p4278
F1
sVcomply
p4279
F2
sVassurances,
p4280
F1
sVfields
p4281
F2
sVbad
p4282
F4
sVsoftly
p4283
F1
sVjoyfully;
p4284
F1
sVjudge,
p4285
F1
sVears
p4286
F1
sVmahometan;
p4287
F1
sVmarket-town
p4288
F1
sVsailors,
p4289
F2
sVmahometan,
p4290
F1
sVwear,
p4291
F1
sVcomplain,
p4292
F1
sVsailors;
p4293
F1
sVsubject
p4294
F6
sVwits,
p4295
F1
sVvoyage
p4296
F11
sVsaid
p4297
F84
sVstairs,
p4298
F5
sVstairs.
p4299
F1
sVsail
p4300
F15
sVshaved
p4301
F1
sVstairs;
p4302
F1
sVfuture
p4303
F2
sValteration;
p4304
F1
sVvows
p4305
F6
sVweary
p4306
F3
sV'that
p4307
F1
sV'and
p4308
F2
sVgentry
p4309
F1
sVcousin
p4310
F1
sVcollege's
p4311
F1
sVagainst
p4312
F30
sVmistress,
p4313
F6
sVferryman,
p4314
F1
sVappeared
p4315
F18
sVheight
p4316
F1
sVdorinda's
p4317
F5
sVinquisitive
p4318
F1
sVloaded
p4319
F5
sVvows,
p4320
F2
sVproceeded
p4321
F8
sVremoved:
p4322
F1
sVthree
p4323
F48
sVparticulars
p4324
F3
sVcommission
p4325
F2
sVvows?
p4326
F1
sVinterest
p4327
F4
sVentered
p4328
F26
sVlovely
p4329
F18
sVthrew
p4330
F13
sVless,
p4331
F1
sVfloor.
p4332
F1
sVprosperous
p4333
F4
sVspent.
p4334
F1
sVnear
p4335
F41
sVmelted
p4336
F1
sVsuppose
p4337
F4
sVbalance
p4338
F1
sVanchor
p4339
F3
sVthought,
p4340
F4
sVseven
p4341
F10
sVover,
p4342
F5
sVmexico
p4343
F2
sVis
p4344
F141
sVaccepted;
p4345
F1
sVit
p4346
F291
sVshame
p4347
F3
sVover:
p4348
F1
sVin
p4349
F1155
sVif
p4350
F125
sVgrown
p4351
F3
sVintreaties;
p4352
F1
sVmake
p4353
F75
sVabhors;
p4354
F1
sVcoach;
p4355
F2
sVbelly
p4356
F2
sVunfortunate
p4357
F24
sVcoach,
p4358
F8
sVbells
p4359
F1
sV'we
p4360
F1
sVi;
p4361
F1
sVi:
p4362
F1
sVdeclaring
p4363
F5
sVdelight
p4364
F1
sVi,
p4365
F8
sVsupposing
p4366
F5
sVjealous
p4367
F2
sVopportunity
p4368
F17
sVthoughts
p4369
F13
sVchanges
p4370
F1
sVinherit
p4371
F2
sVunconcerned
p4372
F1
sVrome
p4373
F1
sVbottle.
p4374
F1
sVpoictou,
p4375
F1
sVyours
p4376
F2
sVleft
p4377
F111
sVdream,
p4378
F2
sVfeet;
p4379
F1
sVjust
p4380
F18
sVversed
p4381
F2
sVaside
p4382
F2
sVexcusable,
p4383
F1
sVfeet,
p4384
F9
sVhuman
p4385
F6
sVfeet.
p4386
F2
sVyet
p4387
F80
sVregarded
p4388
F1
sVcharacter
p4389
F1
sVrakes,
p4390
F1
sVarrival,
p4391
F5
sVrakes.
p4392
F1
sVdefray
p4393
F2
sVsave
p4394
F8
sVreddened;
p4395
F1
sVago,
p4396
F1
sVsailors
p4397
F3
sVfact:
p4398
F1
sVdiscreet
p4399
F1
sVwanting
p4400
F3
sVundutifulness
p4401
F1
sVsatisfaction;
p4402
F1
sVbaseness
p4403
F1
sVjustice,
p4404
F3
sVjustice.
p4405
F2
sVmagistrate,
p4406
F1
sVwatry
p4407
F1
sVsatisfaction,
p4408
F1
sVjustice;
p4409
F1
sVcowardice
p4410
F1
sVdeal
p4411
F5
sVdeaf
p4412
F7
sVmeaning:
p4413
F1
sVdead
p4414
F19
sVplatters
p4415
F1
sVdesperate.
p4416
F1
sVdear
p4417
F55
sVtime.'
p4418
F1
sVstrife
p4419
F1
sVisland.
p4420
F3
sVisland,
p4421
F19
sVisland:
p4422
F1
sVisland;
p4423
F1
sVbarbarian.
p4424
F1
sVmerchant's
p4425
F4
sVbefore-hand
p4426
F1
sVtold,
p4427
F1
sVbury
p4428
F1
sVwept
p4429
F8
sV'it
p4430
F3
sV'is
p4431
F1
sVconceal
p4432
F8
sVbarbarians
p4433
F1
sV'if
p4434
F1
sVfrightened;
p4435
F1
sVafternoon
p4436
F2
sVcommit
p4437
F4
sVdetesting
p4438
F1
sVnerve
p4439
F1
sVfor.
p4440
F2
sVfor,
p4441
F11
sVmarseilles,
p4442
F1
sVlatter
p4443
F1
sVeducation,
p4444
F1
sVfor:
p4445
F3
sVfrightened
p4446
F1
sVperish,
p4447
F1
sVover-whelmed
p4448
F1
sVmidnight,
p4449
F3
sVflying
p4450
F1
sVjealousy
p4451
F3
sVbound,
p4452
F3
sVprevent,
p4453
F1
sVmidnight;
p4454
F1
sVmurderer,
p4455
F1
sVoffering
p4456
F5
sVrefusing,
p4457
F1
sVdorinda,
p4458
F9
sVlanding
p4459
F1
sVsurrender
p4460
F1
sVtradesman
p4461
F1
sVcontinuance
p4462
F2
sVprotestant
p4463
F1
sVunderstood
p4464
F5
sVattached
p4465
F1
sVjealous;
p4466
F1
sVjealous,
p4467
F2
sVdare
p4468
F10
sVtemper
p4469
F1
sVdie:
p4470
F2
sVdie;
p4471
F3
sVingenuously
p4472
F1
sVdiscovery,
p4473
F5
sVsticks
p4474
F2
sVdiscovery.
p4475
F1
sVcovert
p4476
F1
sVpinioned.
p4477
F1
sVdiscovery;
p4478
F2
sVdie.
p4479
F1
sVfashioned
p4480
F3
sVship
p4481
F84
sVagreeing
p4482
F1
sVgenerally
p4483
F2
sVafflicted:
p4484
F1
sVhanded
p4485
F1
sVanswerable
p4486
F1
sVoverwhelmed.
p4487
F1
sVmistaken,
p4488
F1
sVhabitation,
p4489
F1
sVoff;
p4490
F2
sVesteem?
p4491
F1
sVgroaning,
p4492
F1
sVwidow,
p4493
F10
sVwidow.
p4494
F1
sVsavage
p4495
F2
sVdiep
p4496
F1
sVfelt
p4497
F8
sVbarbary,
p4498
F1
sVpenyworth,
p4499
F1
sVesteem,
p4500
F3
sVwidow;
p4501
F1
sVunderstands.
p4502
F1
sVdied
p4503
F7
sVeucharist,
p4504
F1
sVdecayed,
p4505
F1
sVvisiting,
p4506
F1
sVnot)
p4507
F1
sVblushing
p4508
F1
sVfetched,
p4509
F1
sVdaily
p4510
F7
sVsufficient:
p4511
F1
sVstripping
p4512
F1
sVteeth
p4513
F1
sVaunt,
p4514
F9
sVrestored
p4515
F6
sVgovernment.
p4516
F1
sVcustomary
p4517
F1
sVroom.'
p4518
F1
sVperuse
p4519
F1
sVeldest
p4520
F4
sVteresa's
p4521
F3
sVredouble
p4522
F1
sVskin
p4523
F1
sVmother-in-law?'
p4524
F1
sVreligion.'
p4525
F1
sVpraises
p4526
F1
sVdeceitful
p4527
F1
sVswoon
p4528
F3
sVfather
p4529
F90
sVtravel.
p4530
F1
sVmeat;
p4531
F1
sVanswered
p4532
F10
sVproposal,
p4533
F4
sVsuffered
p4534
F3
sVoff.
p4535
F6
sVfancied
p4536
F5
sVme
p4537
F343
sVsoul:
p4538
F1
sVsoul;
p4539
F3
sVmanage,
p4540
F1
sVstrangers,
p4541
F5
sVcongratulating
p4542
F1
sVsoul,
p4543
F13
sVforth;
p4544
F2
sVadvised
p4545
F5
sVcurate's
p4546
F1
sVstrangers;
p4547
F1
sVslave.'
p4548
F1
sVpious
p4549
F2
sVhandsomely.
p4550
F1
sVdid
p4551
F71
sVdie
p4552
F16
sVdisorder;
p4553
F3
sVdisorder,
p4554
F5
sVdisorder.
p4555
F1
sVgentlewoman
p4556
F4
sVround
p4557
F7
sVtalked
p4558
F4
sVdecks,
p4559
F1
sVfearing
p4560
F22
sVelse,
p4561
F1
sVgenerously,
p4562
F1
sVfather;
p4563
F4
sVkinsman,
p4564
F6
sVrun
p4565
F8
sVgenerously;
p4566
F1
sVromish
p4567
F1
sVfavour
p4568
F11
sVsuspect
p4569
F4
sVfilled
p4570
F12
sVship's
p4571
F5
sVguardian
p4572
F3
sVthither:
p4573
F1
sVthither;
p4574
F1
sVfrench
p4575
F40
sVmonies
p4576
F1
sVthither,
p4577
F20
sVthither.
p4578
F4
sVwait
p4579
F16
sVhere;
p4580
F5
sVboy
p4581
F2
sVhere?
p4582
F1
sVshift
p4583
F1
sVinfatuated,
p4584
F1
sVintelligence,
p4585
F3
sVbow
p4586
F1
sVenamoured,
p4587
F1
sVhere.
p4588
F1
sVhere,
p4589
F7
sVfather-in-law's
p4590
F1
sVshook
p4591
F1
sVmortified.'
p4592
F1
sVhither
p4593
F2
sVuseful
p4594
F1
sVplantation,
p4595
F2
sVwithal
p4596
F3
sVpatriots
p4597
F1
sVguilty,
p4598
F1
sV'ah!
p4599
F2
sVdecease:
p4600
F1
sVwealth
p4601
F5
sVsake
p4602
F2
sVvisit
p4603
F15
sVfrance
p4604
F40
sVcontented.
p4605
F2
sVsuffered,
p4606
F2
sVpert
p4607
F1
sVvail
p4608
F1
sVnoisome
p4609
F1
sVmartinico,
p4610
F1
sVpersuasions,
p4611
F2
sVcontradiction.
p4612
F1
sV---,
p4613
F3
sVrigid
p4614
F1
sVpersuasions:
p4615
F1
sVolive
p4616
F1
sVfly
p4617
F4
sVdeformed
p4618
F1
sVavoiding
p4619
F1
sVsoul
p4620
F32
sVlieutenant,
p4621
F1
sVgrowing
p4622
F6
sVmaking
p4623
F17
sVdispute
p4624
F2
sVdeceased
p4625
F1
sVclaim
p4626
F2
sVconfused
p4627
F1
sVthunder-struck
p4628
F1
sVgod.
p4629
F2
sVtill
p4630
F75
sVsunday
p4631
F2
sVembellish,
p4632
F1
sVsword
p4633
F4
sVswore
p4634
F1
sVtile
p4635
F1
sVpersuasion
p4636
F1
sVsworn
p4637
F1
sVstaying
p4638
F2
sVthine.'
p4639
F1
sV140
p4640
F1
sVmay
p4641
F37
sVlord;
p4642
F2
sVkeys,
p4643
F1
sVdesigned
p4644
F21
sVcomplied,
p4645
F2
sVgrow
p4646
F2
sVlord,
p4647
F7
sVman
p4648
F81
sVinquired
p4649
F1
sVpurify
p4650
F1
sVborrowing
p4651
F1
sVjailors,
p4652
F1
sVdeceive
p4653
F2
sVbasket
p4654
F2
sVtall
p4655
F1
sVtalk
p4656
F4
sVsea-shore,
p4657
F2
sVmoon-light
p4658
F1
sVshoes
p4659
F2
sVfish.
p4660
F1
sVmiseries.'
p4661
F1
sVseizing
p4662
F2
sVview;
p4663
F1
sVrings,
p4664
F2
sVflayed
p4665
F1
sVshake
p4666
F1
sVview,
p4667
F1
sVview.
p4668
F1
sVcruel?
p4669
F1
sVfor;
p4670
F1
sVthank
p4671
F3
sVmonths,
p4672
F6
sVmaid
p4673
F16
sVdangerously,
p4674
F1
sVours
p4675
F1
sVmonths:
p4676
F1
sVmonths;
p4677
F1
sVsooner
p4678
F5
sVelvira
p4679
F11
sVbegun.
p4680
F1
sVkilled
p4681
F10
sVshattered,
p4682
F1
sVpossess
p4683
F9
sVvice-roy's
p4684
F1
sVarrows
p4685
F1
sVcareless
p4686
F3
sVrock
p4687
F5
sVgot.
p4688
F1
sVgot,
p4689
F1
sVtreacherous
p4690
F2
sVgot:
p4691
F1
sVrichly
p4692
F7
sVtherefore,
p4693
F1
sVshewn
p4694
F4
sVgirl
p4695
F2
sVdetermined;
p4696
F1
sVcanada
p4697
F5
sVliving
p4698
F14
sVyes,
p4699
F4
sVparted,
p4700
F2
sVstorm,
p4701
F3
sVearlier
p4702
F1
sVspies
p4703
F3
sVmusing
p4704
F1
sVspied
p4705
F1
sVadvance
p4706
F1
sVlanguage
p4707
F5
sVboth;
p4708
F2
sVvirtues;
p4709
F1
sVthing
p4710
F28
sVreprehensions
p4711
F1
sVheavy,
p4712
F1
sVthink
p4713
F14
sVwaited
p4714
F15
sVfirst
p4715
F34
sVbut,
p4716
F9
sVlong
p4717
F39
sVcarry
p4718
F36
sValonzo's
p4719
F1
sVeye,
p4720
F1
sVdischarged
p4721
F4
sVlittle
p4722
F74
sVslept
p4723
F2
sVpockets.
p4724
F1
sVfiery
p4725
F2
sVpockets,
p4726
F1
sVtrembled,
p4727
F3
sVfisherboat
p4728
F1
sVspeaking
p4729
F5
sVeyes
p4730
F23
sVpiety,
p4731
F1
sVdungeon?
p4732
F1
sVdisordered,
p4733
F4
sVleonora's
p4734
F5
sVundoubtedly
p4735
F1
sVsailing
p4736
F1
sVventure
p4737
F19
sVwere
p4738
F258
sVqueen,
p4739
F1
sVcustomers,
p4740
F1
sVimprobability
p4741
F1
sVgratitude:
p4742
F2
sVgratitude!
p4743
F1
sVspent,
p4744
F4
sVcoming,
p4745
F2
sVcoming.
p4746
F2
sVthreats;
p4747
F3
sVboat;
p4748
F2
sVclung
p4749
F1
sVvestments
p4750
F1
sVself-murder?
p4751
F1
sVshocked
p4752
F2
sVcharming,
p4753
F2
sVcharming.
p4754
F1
sVwretch
p4755
F2
sVfill,
p4756
F1
sVgreen
p4757
F1
sVflattered
p4758
F7
sVfops
p4759
F1
sVpain
p4760
F2
sVattentively,
p4761
F3
sVpaid
p4762
F11
sVvoice,
p4763
F6
sVtrade;
p4764
F1
sVcordelier,
p4765
F1
sVsheets
p4766
F1
sVpair
p4767
F1
sVhardships
p4768
F1
sVwoman's,
p4769
F1
sVespecially
p4770
F4
sVfills
p4771
F1
sValone;
p4772
F1
sValone?
p4773
F1
sVsumpter-horse-cloth
p4774
F1
sValone,
p4775
F5
sValone.
p4776
F2
sVshot
p4777
F4
sVmaid-servants,
p4778
F1
sVdisobedience,
p4779
F1
sVdoats
p4780
F1
sVcorner
p4781
F5
sVarrack
p4782
F2
sVslaughter;
p4783
F1
sVdesired,
p4784
F2
sVtreasure
p4785
F3
sVmile,
p4786
F1
sVhistories
p4787
F2
sVdesired;
p4788
F1
sVblack
p4789
F6
sVdissembling
p4790
F1
sVsea-shore;
p4791
F1
sVget
p4792
F97
sVnearly
p4793
F2
sVcordials
p4794
F2
sVyield
p4795
F5
sVmorning
p4796
F32
sVmiles
p4797
F18
sVcommunicated
p4798
F1
sVwhispered
p4799
F2
sVdeclared
p4800
F3
sVseas
p4801
F1
sVseat
p4802
F5
sVa-leak,
p4803
F1
sVwonder
p4804
F2
sVlopez,
p4805
F1
sVsatisfying
p4806
F2
sVguardian.
p4807
F1
sVguardian,
p4808
F3
sVfather's
p4809
F28
sVenough
p4810
F15
sVtrade,
p4811
F3
sVfled;
p4812
F1
sVsea;
p4813
F4
sVsea:
p4814
F4
sVcountenance
p4815
F2
sVsea.
p4816
F1
sVsea,
p4817
F14
sVcontemplation,
p4818
F2
sVaccording
p4819
F4
sVrepine.
p4820
F1
sVtour
p4821
F2
sVpatrons
p4822
F1
sVdoatingly
p4823
F2
sVguardians
p4824
F8
sVtraded
p4825
F1
sVshewed,
p4826
F1
sVamong
p4827
F5
sVdespaired
p4828
F3
sVrendezvous,
p4829
F1
sVmaintained
p4830
F4
sVgrants
p4831
F1
sVstretched
p4832
F1
sVordered
p4833
F12
sVmortification
p4834
F2
sVconditions,
p4835
F1
sVconsidering
p4836
F3
sVsensible
p4837
F12
sVarts
p4838
F3
sVcapable
p4839
F2
sVmars
p4840
F1
sVdimity
p4841
F1
sVdivine,
p4842
F1
sVgate.
p4843
F1
sVdevilish
p4844
F1
sVoffered
p4845
F13
sVthose
p4846
F30
sVsound
p4847
F4
sVfrance,
p4848
F23
sVemployment,
p4849
F1
sVturtles
p4850
F1
sVbreast,
p4851
F2
sVfort-philip,
p4852
F3
sVpromising
p4853
F10
sVawakened
p4854
F1
sVdishonourable,
p4855
F1
sVendowed
p4856
F1
sVsincere
p4857
F4
sVstrait
p4858
F1
sVdedicate
p4859
F2
sVmiddle
p4860
F2
sVpressing
p4861
F3
sVdishonourable;
p4862
F1
sVdangerously
p4863
F2
sVarrows.
p4864
F1
sVwisely
p4865
F5
sVabhors
p4866
F1
sVdifferent
p4867
F2
sV(who
p4868
F1
sVpay
p4869
F8
sVsame
p4870
F13
sVmargaretta,
p4871
F1
sVspeech
p4872
F4
sVarguments
p4873
F2
sVbeasts.
p4874
F1
sVstruggling
p4875
F1
sVstomacher
p4876
F1
sVbeen:
p4877
F1
sVboots,
p4878
F3
sV'then
p4879
F1
sVhermitage,
p4880
F2
sVwaves:
p4881
F1
sVassist
p4882
F20
sVcompanion
p4883
F4
sVdiversion
p4884
F2
sVbeen.
p4885
F1
sVgag,
p4886
F1
sVwaves,
p4887
F2
sVwaves.
p4888
F2
sVruined,
p4889
F3
sVlargely
p4890
F1
sVacquaintance,
p4891
F4
sVengaging,
p4892
F1
sVengaging.
p4893
F1
sVadmonishing
p4894
F1
sVbottle
p4895
F7
sVinsupportable.'
p4896
F1
sVremedied.
p4897
F1
sVabsence,
p4898
F1
sVamazed
p4899
F4
sVweight,
p4900
F2
sVnights,
p4901
F3
sVabsence;
p4902
F1
sVdisarm'd
p4903
F1
sVmoney
p4904
F27
sVasleep;
p4905
F2
sVreputable
p4906
F1
sVblanket:
p4907
F1
sVbelow,
p4908
F1
sVasleep,
p4909
F2
sVreproaches
p4910
F2
sVdipped
p4911
F1
sVconsented:
p4912
F1
sVdeceit,
p4913
F1
sVtook,
p4914
F1
sVconsented,
p4915
F5
sVwife,
p4916
F28
sVwife.
p4917
F5
sVsight;
p4918
F2
sVfound;
p4919
F1
sVsight.
p4920
F2
sVsight,
p4921
F5
sVwife;
p4922
F3
sVirresistible,
p4923
F1
sVdisappointed
p4924
F2
sVgate,
p4925
F2
sV'sir,
p4926
F3
sVcoffee-house
p4927
F1
sVunarmed,
p4928
F2
sVlightning
p4929
F1
sVchamber
p4930
F16
sVgranted;
p4931
F2
sVeither
p4932
F5
sVserved
p4933
F1
sVinsolence,
p4934
F1
sVpassionate
p4935
F5
sVrevenged,
p4936
F1
sVslavery
p4937
F3
sVbroke,
p4938
F3
sVimportunate
p4939
F2
sVrevenged;
p4940
F1
sVlondon,
p4941
F14
sVcivilly
p4942
F2
sVagreeably,
p4943
F1
sVtheirs,
p4944
F1
sVconfirm
p4945
F1
sVpocket,
p4946
F5
sVpocket.
p4947
F1
sVclothed,
p4948
F1
sValonzo
p4949
F2
sVdeath.'
p4950
F3
sV(mad
p4951
F1
sVmoderate
p4952
F2
sVvalladolid,
p4953
F1
sVvariance;
p4954
F1
sVunusual
p4955
F3
sVgrievously:
p4956
F1
sVpretended
p4957
F19
sVpreserver,
p4958
F1
sVdisguises;
p4959
F1
sVjew,
p4960
F2
sVcommunity;
p4961
F1
sVisland
p4962
F40
sVout;
p4963
F2
sVbravoes,
p4964
F2
sVout,
p4965
F15
sVout-
p4966
F1
sVlodging;
p4967
F1
sValgerine
p4968
F6
sVmorning:
p4969
F2
sVskilled
p4970
F3
sVblessed
p4971
F2
sVlodging,
p4972
F6
sVlodging.
p4973
F1
sVmrs.---,
p4974
F1
sVgomez
p4975
F8
sVmorning,
p4976
F11
sVmorning.
p4977
F4
sVdistracted
p4978
F15
sVstrip
p4979
F1
sVforced:
p4980
F1
sVmornings
p4981
F1
sVtobacco,
p4982
F2
sVblessings,
p4983
F1
sVland;
p4984
F2
sVclothes,
p4985
F15
sVclothes.
p4986
F1
sVwiping
p4987
F1
sVwhite,
p4988
F1
sVintegrity,
p4989
F1
sVclothes;
p4990
F3
sVland,
p4991
F10
sVwounded,
p4992
F3
sVlion,
p4993
F1
sVbrother's
p4994
F2
sVmanuel
p4995
F1
sVfaces,
p4996
F2
sVaffection
p4997
F11
sVsancho's
p4998
F1
sVdeep
p4999
F8
sVfellow
p5000
F1
sVimagination
p5001
F1
sVavaritious
p5002
F1
sVimportunate,
p5003
F1
sVshut
p5004
F10
sVdeed
p5005
F4
sVfill
p5006
F1
sVtedious
p5007
F4
sVagain
p5008
F13
sVcartagena,
p5009
F2
sVmadrid,
p5010
F1
sVsick;
p5011
F1
sVback,
p5012
F6
sVrepent
p5013
F3
sV'charming
p5014
F2
sVfear,
p5015
F8
sVdecrees,
p5016
F1
sVembraces,
p5017
F2
sVsick.
p5018
F1
sVsick,
p5019
F7
sVshelter
p5020
F2
sVdisgust,
p5021
F1
sVbrandy
p5022
F2
sVlangora,
p5023
F1
sVprudent
p5024
F1
sVconsternation
p5025
F1
sVlife's
p5026
F1
sVinconstant;
p5027
F1
sVpurposes;
p5028
F1
sVresolution
p5029
F1
sVsilent,
p5030
F1
sVforget
p5031
F3
sVreproofs
p5032
F1
sVlaces;
p5033
F1
sVsunk
p5034
F3
sVsilent:
p5035
F1
sVbower,
p5036
F1
sVexpressions
p5037
F3
sVsung
p5038
F1
sVby-alehouse
p5039
F1
sValarmed,
p5040
F1
sVday,
p5041
F19
sVletters;
p5042
F1
sVmother;
p5043
F2
sVpreserved
p5044
F11
sVcrimson
p5045
F1
sVmother-
p5046
F1
sVenjoying
p5047
F1
sVsherbet,
p5048
F1
sVallowance,
p5049
F2
sVexpression,
p5050
F1
sVreturning
p5051
F11
sVbosom,
p5052
F2
sVallowance;
p5053
F1
sVscour
p5054
F1
sVsun,
p5055
F1
sVfall
p5056
F8
sVspaniard's
p5057
F3
sVcastilian
p5058
F2
sVexpressions,
p5059
F2
sVincreasing,
p5060
F3
sValong,
p5061
F1
sVjucatan,
p5062
F1
sVchrist,
p5063
F1
sVwithheld
p5064
F1
sVquiet,
p5065
F1
sVourselves.
p5066
F1
sVear;
p5067
F1
sVcreatures
p5068
F2
sVmilk,
p5069
F1
sVstood
p5070
F19
sVyoungest,
p5071
F1
sVeverlasting
p5072
F1
sVdoting
p5073
F1
sVcreature,
p5074
F7
sVnight-gown
p5075
F3
sVranged
p5076
F1
sVwax-light
p5077
F1
sVfavourably
p5078
F1
sVmuly
p5079
F2
sVcreature;
p5080
F1
sVknife,
p5081
F1
sVsearch
p5082
F15
sVlouisa's
p5083
F3
sVconsumption,
p5084
F2
sVstretching
p5085
F1
sVpublished
p5086
F1
sVnarrow
p5087
F2
sVmerry;
p5088
F1
sVclapping
p5089
F3
sVapprehension,
p5090
F1
sVimagined;
p5091
F1
sVmerry,
p5092
F1
sVtreacherously,
p5093
F1
sVbright,
p5094
F2
sVimagined,
p5095
F1
sVsister's
p5096
F3
sVarmed
p5097
F3
sVreadily
p5098
F9
sVlady,
p5099
F29
sVaccidents,
p5100
F1
sVwiped
p5101
F1
sVtwo
p5102
F100
sVguard,
p5103
F4
sVpleasure-house
p5104
F1
sVlady;
p5105
F1
sVcorrespondents
p5106
F1
sVmisery,
p5107
F1
sVmisery.
p5108
F2
sVsupped,
p5109
F2
sVgentlewomen
p5110
F1
sVdiamond
p5111
F1
sVpurse
p5112
F4
sVapprehensions
p5113
F6
sVpleases:
p5114
F1
sVparticular
p5115
F7
sVsleeping
p5116
F1
sVbridal-night
p5117
F1
sVtown
p5118
F10
sVnone
p5119
F22
sV(an
p5120
F1
sVhour
p5121
F3
sVrecall
p5122
F1
sVdes
p5123
F2
sVabroad;
p5124
F1
sVintercepted
p5125
F1
sVremain
p5126
F2
sVsudden
p5127
F2
sVclergy
p5128
F1
sVabandon
p5129
F4
sVnothing,
p5130
F4
sVabroad,
p5131
F1
sVnothing.
p5132
F4
sVstubborn
p5133
F1
sVhours;
p5134
F1
sVhours:
p5135
F1
sVbravely
p5136
F5
sVabhorred,
p5137
F1
sVbelts,
p5138
F1
sVstreights,
p5139
F1
sVhours,
p5140
F5
sVpurchased
p5141
F2
sVhours.
p5142
F1
sVsharp
p5143
F2
sVrefreshed,
p5144
F2
sVstrangely,
p5145
F1
sVnarrowly
p5146
F2
sVfellow-
p5147
F1
sVcomfort
p5148
F12
sVdy'd,
p5149
F1
sVdy'd.
p5150
F1
sVeat,
p5151
F7
sVsacred
p5152
F2
sVstir
p5153
F3
sVgo;
p5154
F2
sVcharms
p5155
F2
sVadvice
p5156
F4
sVblood
p5157
F8
sVcoming
p5158
F28
sVmore;
p5159
F6
sVpurchase,
p5160
F1
sVback.
p5161
F2
sVcrowded
p5162
F1
sVcoat
p5163
F7
sVfort)
p5164
F1
sVeast-india
p5165
F1
sVpleasure
p5166
F7
sVplaying
p5167
F1
sVinfant
p5168
F2
sVprejudice;
p5169
F1
sVwinged
p5170
F1
sVwall,
p5171
F3
sVtelling
p5172
F7
sVthrough
p5173
F12
sVheirs
p5174
F1
sVsuffer
p5175
F5
sVmore.
p5176
F8
sVport.
p5177
F2
sVport,
p5178
F3
sVfears;
p5179
F1
sVforthwith
p5180
F2
sVhabit,
p5181
F5
sVbosom
p5182
F1
sVpeny
p5183
F2
sVlate
p5184
F5
sVport:
p5185
F1
sVresentments
p5186
F4
sVeunuch
p5187
F1
sVhabit;
p5188
F1
sVbereft
p5189
F2
sVgood
p5190
F73
sVgardens,
p5191
F4
sVmasters,
p5192
F1
sVobeyed
p5193
F2
sVwalls
p5194
F3
sVmasters:
p5195
F1
sVmystery
p5196
F1
sValso;
p5197
F1
sVpox,
p5198
F1
sVtoken
p5199
F1
sVhabits
p5200
F3
sValso.
p5201
F1
sValso,
p5202
F5
sVrepeating
p5203
F1
sVpen,
p5204
F1
sVwatched,
p5205
F5
sVglow'd
p5206
F1
sVharm
p5207
F2
sVdifficult,
p5208
F1
sVdelicious
p5209
F1
sVvalet-de-chamber,
p5210
F1
sVhouse
p5211
F41
sVfish
p5212
F6
sVhard
p5213
F7
sVdeeds,
p5214
F1
sVdeeds.
p5215
F1
sVcountrymen
p5216
F2
sVsurly
p5217
F1
sVsuspecting
p5218
F3
sVgloominess
p5219
F1
sVsteward,
p5220
F1
sVsacrificed,
p5221
F1
sVlovers
p5222
F3
sVsecurely,
p5223
F1
sVchristopher's,
p5224
F1
sVdisobedience
p5225
F1
sVmonk;
p5226
F1
sVcircumstance
p5227
F2
sVpleasant
p5228
F2
sVextraordinary
p5229
F6
sVmonk,
p5230
F4
sVmembers
p5231
F1
sVbeginning
p5232
F2
sVchairs,
p5233
F1
sVchairs.
p5234
F1
sVdemands.
p5235
F1
sVprophet
p5236
F1
sVrunning
p5237
F6
sVconducted
p5238
F8
sVthank'd
p5239
F1
sVlover)
p5240
F1
sVlover,
p5241
F4
sVlover.
p5242
F2
sVindebted
p5243
F2
sVtrembling;
p5244
F1
sVdoctor,
p5245
F1
sVbarbarian
p5246
F1
sVtrembling,
p5247
F2
sVembraced
p5248
F9
sVhatches.
p5249
F1
sVhatches,
p5250
F1
sVabating,
p5251
F1
sVunacquainted
p5252
F1
sVplentiful
p5253
F3
sVmodish
p5254
F1
sVtwenty
p5255
F13
sVfamily,
p5256
F13
sVrevive
p5257
F3
sVleast
p5258
F12
sVpains
p5259
F2
sVfamily:
p5260
F1
sVpower:
p5261
F1
sVcup,
p5262
F2
sVneedle
p5263
F1
sVpart
p5264
F46
sVbelieve
p5265
F10
sVunpardonable
p5266
F1
sVcharmer's
p5267
F1
sVcompliments
p5268
F1
sVbeg'd
p5269
F1
sVmortgaged
p5270
F1
sVyouth
p5271
F8
sVcontrary
p5272
F2
sVsupposed
p5273
F14
sVteazed
p5274
F1
sVtreated
p5275
F21
sVdeclare
p5276
F5
sVservice)
p5277
F1
sVservice.
p5278
F2
sVtrifles
p5279
F2
sVservice,
p5280
F2
sVinhabitants,
p5281
F1
sVservice;
p5282
F1
sVdecrees
p5283
F1
sVmoney-affairs,
p5284
F1
sVdesire,
p5285
F4
sVperjured,
p5286
F1
sVaged
p5287
F1
sVorders
p5288
F5
sVmein,
p5289
F1
sVsicknesses
p5290
F2
sVsex;
p5291
F2
sVbuilt
p5292
F1
sVrowed
p5293
F1
sVbuild
p5294
F1
sVorder,
p5295
F1
sVage;
p5296
F1
sVage:
p5297
F2
sVeggs
p5298
F2
sVdiamonds;
p5299
F1
sVmost
p5300
F51
sVage,
p5301
F12
sVcharm
p5302
F1
sVmoss
p5303
F1
sVdiamonds,
p5304
F3
sVengagements
p5305
F4
sVextremely
p5306
F9
sVagain."
p5307
F1
sVfeasting
p5308
F1
sVbelanger's,
p5309
F1
sVexperience,
p5310
F1
sVcharitably
p5311
F1
sVfaithless
p5312
F1
sVgermans,
p5313
F1
sVcharitable
p5314
F2
sVreflections
p5315
F1
sVtied,
p5316
F1
sVweigh
p5317
F1
sVrowe,
p5318
F1
sVnobility
p5319
F1
sVintreated
p5320
F4
sVwelfare;
p5321
F1
sVparticularly
p5322
F3
sVfollowed,
p5323
F4
sVobligations
p5324
F3
sVplays,
p5325
F1
sVscattered
p5326
F1
sVnoblest
p5327
F2
sVteized
p5328
F1
sVblanket,
p5329
F1
sVrelation
p5330
F7
sVcarefully
p5331
F3
sVfine
p5332
F29
sVfind
p5333
F44
sVmonth's
p5334
F1
sVdividing
p5335
F1
sVruin
p5336
F11
sVmontandre's
p5337
F9
sVunhappy
p5338
F22
sVfreedoms
p5339
F1
sV"good
p5340
F1
sVpermission
p5341
F2
sVexpress
p5342
F8
sVforts,
p5343
F1
sVtogether?"
p5344
F1
sVcourage
p5345
F1
sVcommission,
p5346
F1
sVsilk
p5347
F1
sVresolve
p5348
F2
sVphysician's
p5349
F1
sVfreedom.
p5350
F1
sVfreedom,
p5351
F1
sVsum,
p5352
F1
sVcommon
p5353
F3
sVfreedom?
p5354
F1
sVvine
p5355
F1
sVtended
p5356
F2
sVlion
p5357
F1
sVair.
p5358
F1
sVshortned;
p5359
F1
sVtender
p5360
F15
sVexcusable
p5361
F1
sVflattery,
p5362
F1
sVfeared
p5363
F12
sVheight,
p5364
F1
sVmagdalain,
p5365
F2
sVvisiting
p5366
F4
sVplease
p5367
F3
sVsmallest
p5368
F1
sVflame
p5369
F1
sVmouthful
p5370
F1
sVfranciscan,
p5371
F1
sVsalt-office.
p5372
F1
sVdevil.
p5373
F1
sVuncles,
p5374
F1
sVforeign
p5375
F2
sVtinder-box
p5376
F1
sVuncles:
p5377
F1
sVoars
p5378
F1
sVhumoured
p5379
F1
sVdanced
p5380
F1
sVsupply
p5381
F6
sVprosecuting
p5382
F1
sVdiscourses,
p5383
F1
sVraise
p5384
F3
sVscreened
p5385
F1
sVsecret
p5386
F14
sVireland
p5387
F2
sVmeeting
p5388
F8
sVrecovered,
p5389
F5
sVgay
p5390
F3
sVinstant,
p5391
F1
sVbeasts,
p5392
F1
sVunderstand
p5393
F4
sVrecovered:
p5394
F1
sVbeasts;
p5395
F1
sVcanada,
p5396
F3
sVinstant;
p5397
F1
sVgad
p5398
F1
sVinstant?
p5399
F1
sVstrictest
p5400
F2
sVraw
p5401
F2
sVrival.
p5402
F1
sVrival,
p5403
F6
sVdeferred
p5404
F2
sVgoats:
p5405
F1
sVmuskets,
p5406
F1
sVrival:
p5407
F1
sVrival;
p5408
F1
sVspinnet:
p5409
F1
sVwept)
p5410
F1
sVrocks;
p5411
F1
sVwept,
p5412
F3
sVhusband.
p5413
F2
sVhusband,
p5414
F14
sVwept;
p5415
F1
sVitself
p5416
F1
sVrocks,
p5417
F2
sVkey,
p5418
F1
sVhusband;
p5419
F1
sVslavery,
p5420
F3
sVhusband?
p5421
F1
sVprayers,
p5422
F1
sVseduce
p5423
F2
sVrheumatism
p5424
F1
sVflag,
p5425
F1
sVwherein
p5426
F1
sVdiscourse
p5427
F10
sVprayers;
p5428
F1
sVyourselves,
p5429
F1
sVbruises
p5430
F1
sVforced
p5431
F12
sVkeys
p5432
F1
sVreproaches,
p5433
F2
sVmoment
p5434
F10
sVpurpose
p5435
F2
sVsandals
p5436
F1
sVharpsicord,
p5437
F1
sVexpences,
p5438
F1
sVplay,
p5439
F3
sVspent
p5440
F6
sVmorrow
p5441
F2
sVwife?
p5442
F1
sVenglish,
p5443
F4
sVwithdraw
p5444
F1
sVspend
p5445
F5
sVmatter.
p5446
F1
sVlives;
p5447
F1
sVshape
p5448
F1
sVopenly
p5449
F1
sVransom,
p5450
F1
sVstatesman,
p5451
F1
sVlives,
p5452
F2
sVlives)
p5453
F1
sVinjuries
p5454
F5
sVletting
p5455
F1
sVcut
p5456
F4
sVdiversions
p5457
F2
sVmarrying
p5458
F7
sVsixteen,
p5459
F1
sVovertook
p5460
F1
sVfound,
p5461
F1
sVexcited
p5462
F1
sVmanage
p5463
F3
sVadventures;
p5464
F3
sVtyranny;
p5465
F1
sVbig
p5466
F5
sVbid
p5467
F8
sVsaluted
p5468
F3
sVtantalized,
p5469
F1
sVadventures.
p5470
F3
sVadventures,
p5471
F7
sVacquainted
p5472
F32
sVbit
p5473
F1
sVaccomplished,
p5474
F1
sVdiversion;
p5475
F1
sVgroat,
p5476
F1
sVdaunted.
p5477
F1
sVpeasants,
p5478
F1
sVfoolish
p5479
F1
sVvirtue;
p5480
F1
sVobliged
p5481
F20
sVmagnificent
p5482
F1
sVback
p5483
F33
sVvirtue,
p5484
F9
sVguardian's
p5485
F3
sVcandle
p5486
F1
sVpublick
p5487
F4
sVacquaintance
p5488
F4
sVdays:
p5489
F1
sVthough
p5490
F24
sVjust,
p5491
F3
sVpen
p5492
F1
sVmiraculous
p5493
F2
sVgood,
p5494
F5
sVinvade
p5495
F1
sVpatient
p5496
F1
sVpresence,
p5497
F4
sVcontinuing
p5498
F1
sVvirtues
p5499
F1
sVtaught,
p5500
F1
sVvalley,
p5501
F1
sVexample;
p5502
F1
sVgoods
p5503
F4
sVconstraint
p5504
F2
sVmrs.
p5505
F6
sVpiled
p5506
F1
sVwhom.
p5507
F1
sVwhom,
p5508
F1
sVchearful
p5509
F2
sVhope.
p5510
F1
sVhope,
p5511
F7
sVrushes,
p5512
F1
sVconcerned.
p5513
F1
sVinhospitable
p5514
F2
sVremembrance
p5515
F1
sVconcerned?
p5516
F1
sVcoin
p5517
F1
sVforward
p5518
F1
sVdoating
p5519
F1
sVexcessive,
p5520
F1
sVinvite
p5521
F2
sVher.'
p5522
F2
sVhoped
p5523
F8
sVboys
p5524
F1
sVintercepted;
p5525
F1
sVprince's
p5526
F2
sVhindrance,
p5527
F1
sVdirected
p5528
F4
sVhusband's,
p5529
F1
sVeuropeans,
p5530
F3
sVlover's
p5531
F2
sVhopes;
p5532
F1
sVrelated;
p5533
F1
sVaversion
p5534
F3
sVfamine;
p5535
F1
sVhopes.
p5536
F1
sVpossession
p5537
F4
sVconstant
p5538
F4
sVpossessor
p5539
F1
sVdeprive
p5540
F5
sVscarlet
p5541
F1
sVconsulted
p5542
F5
sVcure
p5543
F3
sVdragging
p5544
F2
sVprevail
p5545
F3
sVboth.'
p5546
F1
sVexcused
p5547
F3
sVsancho's,
p5548
F1
sVexcuses
p5549
F1
sVbanker,
p5550
F2
sVugly.
p5551
F1
sVagreeable,
p5552
F3
sVamazed.
p5553
F1
sVamazed,
p5554
F3
sVaccidental
p5555
F1
sVfavourite
p5556
F2
sVneck,
p5557
F4
sVprepared
p5558
F8
sVlent
p5559
F2
sVwidower,
p5560
F3
sVworsted
p5561
F1
sVaffair,
p5562
F2
sVadmiring
p5563
F1
sVpresenting
p5564
F1
sVhappy,
p5565
F5
sVhappy.
p5566
F6
sVwounds;
p5567
F1
sVhappy:
p5568
F2
sVhappy;
p5569
F1
sVhappy?
p5570
F1
sVsoul."
p5571
F1
sVcompose
p5572
F1
sVsins,
p5573
F5
sVpromised.
p5574
F1
sVpromised,
p5575
F1
sVagreeably:
p5576
F1
sVfatal
p5577
F15
sVgonzalo,
p5578
F3
sVpresently
p5579
F7
sVoutside
p5580
F3
sVimplore
p5581
F1
sVputting
p5582
F7
sVsurgeon
p5583
F8
sVentire
p5584
F2
sVbusied
p5585
F1
sVshock'd
p5586
F1
sVhelp.
p5587
F1
sVhelp,
p5588
F4
sVstature,
p5589
F1
sVbelieved,
p5590
F1
sVsheerness
p5591
F1
sVgrave.
p5592
F1
sVgrave,
p5593
F2
sVhelp:
p5594
F1
sVhelp;
p5595
F1
sVbeast;
p5596
F1
sVsafe,
p5597
F3
sVsin;
p5598
F1
sVother,
p5599
F4
sVobject.
p5600
F1
sVlaws;
p5601
F1
sVpeopled,
p5602
F1
sVsin,
p5603
F6
sVbeast,
p5604
F1
sVnephew
p5605
F2
sVlaws.
p5606
F1
sVobject;
p5607
F1
sVother;
p5608
F1
sVsaved,
p5609
F4
sVsaved.
p5610
F1
sVslighted,
p5611
F1
sVgiving
p5612
F10
sVassisted
p5613
F4
sVpleading
p5614
F4
sVbody
p5615
F12
sVentered;
p5616
F1
sVentered:
p5617
F1
sVbeasts
p5618
F3
sVsins
p5619
F1
sVriver,
p5620
F5
sVentered,
p5621
F4
sVsink
p5622
F1
sVothers
p5623
F7
sVextreme
p5624
F6
sVmortification,
p5625
F1
sVgovernor,
p5626
F8
sVus;
p5627
F6
sV30
p5628
F1
sVeating,
p5629
F2
sVintreaties
p5630
F3
sVmolest
p5631
F1
sVcourting
p5632
F1
sVcomposed
p5633
F2
sVnamed
p5634
F2
sVhasted,
p5635
F1
sVprivately
p5636
F6
sVii.
p5637
F1
sVroaming
p5638
F1
sVjest,
p5639
F1
sVmourning.
p5640
F1
sVconversing
p5641
F1
sVbassa's
p5642
F1
sVthemselves
p5643
F11
sVinclination,
p5644
F1
sVresolution,
p5645
F2
sVbasket;
p5646
F1
sVname,
p5647
F8
sVbasket,
p5648
F1
sVtrain
p5649
F1
sVnephew's
p5650
F1
sVashamed
p5651
F2
sVname:
p5652
F1
sVname;
p5653
F1
sVescaped
p5654
F6
sVaccount
p5655
F14
sVinclinations
p5656
F2
sVembarked
p5657
F1
sVbut---.'
p5658
F1
sVclosing
p5659
F1
sVfetch
p5660
F16
sVhigh;
p5661
F1
sVreserved
p5662
F5
sVgalleons,
p5663
F1
sVdominic,
p5664
F2
sVhigh,
p5665
F3
sVwater.
p5666
F1
sVbones
p5667
F3
sVbuilding,
p5668
F1
sVnative
p5669
F6
sVseparation;
p5670
F1
sVdaring
p5671
F9
sVconfiscated,
p5672
F1
sVlamp
p5673
F3
sVcomplexions.
p5674
F1
sVmeditated
p5675
F1
sVstock
p5676
F2
sVde
p5677
F26
sVwaters
p5678
F1
sVemploy.
p5679
F1
sVreserve,
p5680
F1
sVpreferred
p5681
F1
sVfolly,
p5682
F3
sVweeping:
p5683
F1
sVgone.
p5684
F3
sVgone,
p5685
F7
sVlines
p5686
F1
sVnoise;
p5687
F1
sVlinen
p5688
F5
sVchief
p5689
F3
sVhold,
p5690
F4
sVhold.
p5691
F1
sVdinner,
p5692
F1
sVnoise,
p5693
F4
sVwanted,
p5694
F3
sVfurnish
p5695
F6
sVcontriving
p5696
F1
sValacrity
p5697
F1
sVhugged
p5698
F1
sVstephen,
p5699
F1
sVflattering
p5700
F1
sVbunch
p5701
F1
sVrevived
p5702
F4
sVla
p5703
F4
sValtered,
p5704
F1
sVwilling
p5705
F7
sValtered;
p5706
F1
sVcriminal
p5707
F1
sVspreading
p5708
F1
sVantient
p5709
F2
sVfettered,
p5710
F1
sVmorning;
p5711
F3
sVgreater
p5712
F9
sVmention
p5713
F4
sVagreed,
p5714
F2
sVday
p5715
F28
sVstrive
p5716
F1
sVl.
p5717
F1
sVwarned
p5718
F1
sVgazing
p5719
F1
sVbridge,
p5720
F1
sVlong-boat.
p5721
F1
sVwaking
p5722
F1
sVdie.'
p5723
F1
sVincensed
p5724
F4
sVextremely,
p5725
F2
sVsupportable;
p5726
F1
sVhedges
p5727
F1
sVdefend
p5728
F3
sVwholly
p5729
F4
sVfarm
p5730
F2
sVsupportable,
p5731
F1
sVreviere,
p5732
F1
sVbelamanto
p5733
F1
sVfamilies,
p5734
F2
sVgod-daughter
p5735
F1
sVapproached
p5736
F1
sVthreatned,
p5737
F1
sVafterward
p5738
F1
sVcured
p5739
F1
sVparish,
p5740
F1
sVdeprived
p5741
F3
sVclerk's
p5742
F1
sV(having
p5743
F3
sVmortal
p5744
F4
sVstuck
p5745
F1
sVexpence,
p5746
F1
sVscalding
p5747
F1
sVfinest
p5748
F3
sVlivery-coats,
p5749
F1
sVpowder-horn,
p5750
F1
sVescape,
p5751
F6
sVfoam:
p5752
F1
sVhurdle
p5753
F1
sVreached
p5754
F13
sVsabriente,
p5755
F1
sVhumblest
p5756
F1
sVfates
p5757
F1
sVsadly
p5758
F1
sVlove,
p5759
F13
sVlove.
p5760
F2
sVcabin
p5761
F4
sVaired,
p5762
F1
sVboards,
p5763
F1
sVjamaica,
p5764
F5
sVagonies
p5765
F3
sVragged,
p5766
F1
sVnobody
p5767
F1
sVnegro
p5768
F4
sVexpences
p5769
F2
sVresist
p5770
F3
sVupon;
p5771
F1
sVupon:
p5772
F1
sVcountrymen;
p5773
F1
sVflashed
p5774
F1
sVupon,
p5775
F1
sVcompensation
p5776
F1
sVpot,
p5777
F1
sVloves
p5778
F1
sVlover
p5779
F10
sVvisited
p5780
F9
sVheavens!
p5781
F3
sVdeparted.
p5782
F1
sVlyes
p5783
F1
sVlabouring
p5784
F1
sVtide
p5785
F1
sVwaked
p5786
F4
sVdisappointment,
p5787
F1
sVcavern
p5788
F3
sVhave
p5789
F233
sVdisappointment)
p5790
F1
sVthroat
p5791
F1
sVsavage,
p5792
F1
sVplank,
p5793
F1
sVventuring
p5794
F5
sVwits
p5795
F1
sVpatience.
p5796
F1
sVgravity
p5797
F1
sVpatience,
p5798
F1
sVduante's
p5799
F4
sVconcerns
p5800
F1
sVexpected,
p5801
F1
sVprovoked
p5802
F2
sVhonestly
p5803
F2
sVdesperate,
p5804
F2
sVirishmen,
p5805
F1
sVsavages
p5806
F14
sVlodgings
p5807
F1
sVunless
p5808
F3
sVsenses
p5809
F3
sVprocure
p5810
F12
sVbusiness,
p5811
F4
sVeight
p5812
F8
sVprisoner
p5813
F3
sVafresh
p5814
F2
sVperformed:
p5815
F1
sVgather
p5816
F3
sVconcern,
p5817
F2
sVface,
p5818
F13
sVoccasion
p5819
F7
sVconcern;
p5820
F2
sVplanks
p5821
F1
sVsaying,
p5822
F24
sVdiepe,
p5823
F1
sVsupported
p5824
F1
sVreputation,
p5825
F1
sVadvantageously,
p5826
F1
sVaffection,
p5827
F10
sVknowledge
p5828
F12
sVprolong
p5829
F2
sVunable
p5830
F13
sVbattlements,
p5831
F4
sVinferior
p5832
F1
sVbeat
p5833
F2
sVbear
p5834
F7
sVrecollect.
p5835
F1
sVgrapes,
p5836
F1
sVdazled
p5837
F1
sVwhilst
p5838
F47
sVdeserved.
p5839
F1
sVcalling
p5840
F5
sVdearest
p5841
F1
sVsummer-season,
p5842
F1
sVdeserved:
p5843
F1
sVdiscovery
p5844
F2
sVaffection:
p5845
F3
sVmadam
p5846
F25
sVfarthest
p5847
F1
sVrefrained
p5848
F1
sVdiscontent.
p5849
F1
sVdesires.
p5850
F2
sVturks
p5851
F1
sVdesires,
p5852
F5
sVmaster's
p5853
F2
sVdesires;
p5854
F2
sVtrusted
p5855
F2
sVvarious
p5856
F2
sVthanks;
p5857
F1
sVsuperior
p5858
F1
sVsorrow
p5859
F1
sVdeliver
p5860
F8
sVaside.
p5861
F1
sVkinsman
p5862
F10
sVencrease
p5863
F1
sVinstant
p5864
F4
sVfreely
p5865
F3
sVtaking
p5866
F17
sVequal
p5867
F4
sVhe)
p5868
F6
sVassure
p5869
F1
sVwringing
p5870
F2
sVconquered
p5871
F1
sVswallow
p5872
F2
sVotherwise
p5873
F3
sVe'er
p5874
F3
sVcaverns
p5875
F1
sVdone;
p5876
F2
sVa-cross
p5877
F1
sVdone.
p5878
F4
sVpouring
p5879
F1
sVringing,
p5880
F1
sVdeath-bed
p5881
F1
sVseraglio
p5882
F2
sVhome;
p5883
F1
sVlady's
p5884
F12
sVcurtain
p5885
F1
sVproposal
p5886
F1
sVhome.
p5887
F4
sVhome,
p5888
F14
sVease:
p5889
F1
sVpenurious
p5890
F1
sVfinished
p5891
F1
sVtenderly
p5892
F1
sVarose,
p5893
F3
sVan
p5894
F138
sVhomes
p5895
F1
sVrum,
p5896
F3
sVnegro's
p5897
F1
sVplain
p5898
F2
sVappearance
p5899
F2
sVas
p5900
F372
sVvalue
p5901
F6
sVshame;
p5902
F1
sVbawd's
p5903
F2
sVsister,
p5904
F13
sValmost
p5905
F24
sVfurnished,
p5906
F4
sVhappened.
p5907
F1
sVfurnished.
p5908
F1
sVsister;
p5909
F1
sVshame,
p5910
F3
sVpartner
p5911
F1
sVtumbled
p5912
F1
sVloved."
p5913
F1
sV)
F4
sVfountains,
p5914
F1
sVinjured
p5915
F4
sVpleasure-boat
p5916
F2
sVnovels
p5917
F1
sVpillion;
p5918
F1
sVcloset,
p5919
F3
sVbreaks,
p5920
F1
sVflew
p5921
F4
sVabsent.
p5922
F1
sVabsent,
p5923
F3
sVdiet:
p5924
F1
sVweapon
p5925
F1
sVantonio
p5926
F2
sVthought
p5927
F40
sVretiring
p5928
F3
sVsets
p5929
F1
sVconcluded,
p5930
F1
sVcompanions,
p5931
F4
sVresolve,
p5932
F1
sVresolve.
p5933
F1
sVhappened;
p5934
F2
sVliberty?
p5935
F1
sVbushes.
p5936
F1
sVdissuaded
p5937
F1
sVliberty,
p5938
F3
sVwork,
p5939
F4
sVfield
p5940
F1
sVadd
p5941
F2
sVjars.
p5942
F1
sVado
p5943
F3
sVmatch
p5944
F3
sVresolved
p5945
F77
sVexpostulating
p5946
F1
sVloss,
p5947
F1
sVswooned;
p5948
F3
sVbriskly,
p5949
F1
sVcrowd,
p5950
F2
sVembraces.
p5951
F1
sVshe-goats
p5952
F1
sVswooned,
p5953
F3
sVlike
p5954
F63
sVconfusion,
p5955
F1
sVpublick.
p5956
F1
sVpublick,
p5957
F1
sVadmitted
p5958
F4
sVstunned;
p5959
F1
sVblamed,
p5960
F1
sVsoft
p5961
F4
sVbed-post
p5962
F1
sValive
p5963
F4
sVhair
p5964
F1
sVanswer.'
p5965
F1
sVconvey
p5966
F1
sVrecommendation
p5967
F1
sVproper
p5968
F2
sVrival's
p5969
F4
sVpliant,
p5970
F1
sVglad,
p5971
F3
sVflesh,
p5972
F2
sVboard;
p5973
F3
sVblessing.
p5974
F1
sVpleasant.
p5975
F1
sVstudents
p5976
F1
sVflesh:
p5977
F1
sVnoise
p5978
F4
sVslight
p5979
F2
sVoh!
p5980
F1
sValthough
p5981
F1
sVpirate's
p5982
F2
sVboiling.
p5983
F1
sVchristened
p5984
F1
sVabout
p5985
F74
sVboards
p5986
F1
sVfollies
p5987
F2
sVwithdrew
p5988
F1
sV"you
p5989
F2
sVserviceable
p5990
F3
sVcoachman
p5991
F1
sVblessings
p5992
F1
sVdiscard
p5993
F1
sVintroduced
p5994
F2
sVcharlotta's
p5995
F16
sVrendered
p5996
F2
sVguard
p5997
F10
sVfloating,
p5998
F2
sVesteem
p5999
F7
sVfemale
p6000
F3
sVbird-shot
p6001
F1
sVtally-man's;
p6002
F1
sVrushed
p6003
F1
sVwere.
p6004
F1
sVrushes
p6005
F1
sVbiggest
p6006
F1
sVprince,
p6007
F1
sVbuy
p6008
F7
sVmatch;
p6009
F1
sVchildren;
p6010
F1
sVbut
p6011
F507
sVexpected
p6012
F8
sVplague
p6013
F1
sVsunk,
p6014
F2
sVchildren.
p6015
F2
sVremote
p6016
F1
sVchildren,
p6017
F11
sVought,
p6018
F1
sVwise
p6019
F2
sVprinces
p6020
F1
sVdangerous
p6021
F3
sVminutes
p6022
F2
sVchristian,
p6023
F6
sVsupreme
p6024
F1
sVconstantly,
p6025
F1
sVmeasure
p6026
F1
sVchristian;
p6027
F1
sVmontandre
p6028
F31
sVcontrived,
p6029
F2
sVtarpaulins
p6030
F1
sVdressed
p6031
F13
sVdetain
p6032
F3
sVbeast's
p6033
F1
sVindeed,
p6034
F3
sVdeath:
p6035
F5
sVdeath;
p6036
F5
sVenlargement
p6037
F1
sVdeath,
p6038
F27
sVdeath.
p6039
F7
sVchristians
p6040
F6
sVstirred
p6041
F3
sVdog'd
p6042
F1
sVnews:
p6043
F1
sVnews;
p6044
F2
sVentertainment
p6045
F1
sVslaves;
p6046
F2
sVentreat
p6047
F1
sVgonzalo's
p6048
F2
sVslaves.
p6049
F1
sVslaves,
p6050
F7
sVnews,
p6051
F5
sVever,
p6052
F5
sVchearful.
p6053
F1
sVlegacies
p6054
F1
sVadmiration;
p6055
F1
sVadmiration:
p6056
F2
sVhats
p6057
F1
sVvermin
p6058
F1
sVeuropeans
p6059
F2
sVhath
p6060
F1
sVsleep
p6061
F5
sVever;
p6062
F1
sVhate
p6063
F3
sVadmiration.
p6064
F2
sVadmiration,
p6065
F1
sVfeeding
p6066
F2
sVvile
p6067
F9
sVparis
p6068
F2
sV(for
p6069
F6
sVpoorest
p6070
F1
sVtime.
p6071
F5
sVsufferings
p6072
F1
sVunder
p6073
F39
sVguernsey,
p6074
F1
sVpoisoned,
p6075
F1
sVmerchant
p6076
F16
sVrisk
p6077
F1
sVtears)
p6078
F1
sVrise
p6079
F3
sVtears.
p6080
F1
sVtears,
p6081
F15
sVevery
p6082
F54
sVhat,
p6083
F1
sVtears;
p6084
F2
sVtears:
p6085
F1
sVmatress
p6086
F1
sVrepenting
p6087
F1
sVvenus
p6088
F2
sVenjoy
p6089
F7
sVparted
p6090
F4
sVungenerous
p6091
F2
sVshoulders,
p6092
F1
sVconstrued
p6093
F1
sVexcelled
p6094
F1
sVdirect
p6095
F4
sVstreet
p6096
F2
sV'recovering
p6097
F1
sVexpressive
p6098
F1
sVshining
p6099
F2
sVleave;
p6100
F2
sVleave:
p6101
F1
sVhide
p6102
F8
sVsolemn
p6103
F1
sVterms,
p6104
F4
sVpoison
p6105
F4
sVchildren
p6106
F15
sVleave,
p6107
F12
sVleave.
p6108
F1
sVrevolved
p6109
F2
sVgeneral,
p6110
F2
sVunchristian
p6111
F2
sVfriendship,
p6112
F4
sVfriendship.
p6113
F1
sV'she
p6114
F1
sVabbess
p6115
F2
sVthrough,
p6116
F1
sVebb.
p6117
F1
sVworse.
p6118
F1
sVworse,
p6119
F2
sVchanged
p6120
F4
sV(finding
p6121
F1
sVsettled
p6122
F7
sVpunishment
p6123
F1
sVventured
p6124
F9
sVcompany.
p6125
F4
sVcompany,
p6126
F8
sVridiculed
p6127
F2
sVstraw
p6128
F6
sVreply;
p6129
F1
sVpatience
p6130
F1
sVcompany;
p6131
F3
sVmother:
p6132
F1
sVgreatness,
p6133
F1
sVfaith,
p6134
F4
sVwould
p6135
F187
sVsand;
p6136
F1
sVused:
p6137
F1
sVlessening
p6138
F1
sVfainting
p6139
F2
sVbreathe
p6140
F1
sVbarbarous
p6141
F12
sVengaged.
p6142
F1
sVmeat,
p6143
F6
sVoff:
p6144
F1
sVsorrow,
p6145
F2
sVgrief
p6146
F18
sVmother,
p6147
F8
sVardently
p6148
F1
sVexcellent
p6149
F3
sVridicule:
p6150
F1
sVpouch
p6151
F1
sVoff,
p6152
F10
sVmust
p6153
F57
sVabundance
p6154
F1
sVjoin
p6155
F1
sVentertained
p6156
F10
sVpraying,
p6157
F1
sVwit's
p6158
F1
sVmy
p6159
F713
sVquarrel
p6160
F2
sVestate
p6161
F8
sVloosed
p6162
F1
sVcontented,
p6163
F1
sVdolphin
p6164
F1
sVoverheard
p6165
F1
sVmouth,
p6166
F4
sVkeep
p6167
F17
sVattract
p6168
F1
sVceremony
p6169
F1
sVend
p6170
F10
sVenquiry
p6171
F1
sVsitting
p6172
F8
sVenquire
p6173
F1
sVadjacent
p6174
F8
sVgate
p6175
F3
sVcharging
p6176
F1
sVplighted
p6177
F1
sVloose,
p6178
F2
sVcolours,
p6179
F1
sVassistance.
p6180
F1
sVboth,
p6181
F4
sVassistance,
p6182
F5
sVimaginable
p6183
F1
sVsparkled
p6184
F2
sVhence
p6185
F4
sVunguarded
p6186
F1
sVcolours:
p6187
F1
sVthirteenth
p6188
F1
sVsplendid
p6189
F1
sV[at
p6190
F1
sVenter
p6191
F8
sValoud
p6192
F1
sVreproved
p6193
F1
sVfaln
p6194
F1
sVexecuted
p6195
F2
sVsparingly,
p6196
F1
sVover
p6197
F33
sVlondon
p6198
F10
sVdisease,
p6199
F1
sVclapped
p6200
F3
sVglances
p6201
F1
sV(being
p6202
F1
sVislands.
p6203
F3
sVexpectations
p6204
F2
sVwriting
p6205
F1
sVperfectly,
p6206
F1
sVcondition
p6207
F11
sVdescend
p6208
F2
sVexpect;
p6209
F1
sVprevented
p6210
F5
sVmalice,
p6211
F1
sVhistory,
p6212
F2
sVcarefully,
p6213
F1
sVentrance;
p6214
F1
sVexpectation,
p6215
F1
sVeach
p6216
F5
sVwantonly
p6217
F1
sVyatch
p6218
F2
sVresented,
p6219
F1
sVsigning
p6220
F1
sVdiana
p6221
F4
sVsincere,
p6222
F1
sVpractising
p6223
F1
sVcoverlids
p6224
F1
sVforced,
p6225
F1
sVday:
p6226
F3
sVday;
p6227
F2
sVdriving
p6228
F2
sVhabitation;
p6229
F1
sVgod
p6230
F32
sVwashed
p6231
F3
sVday.
p6232
F2
sVlaid
p6233
F22
sVlain
p6234
F8
sVgot
p6235
F72
sVnewly
p6236
F1
sVcalmness:
p6237
F1
sVdefence,
p6238
F1
sValms
p6239
F1
sVeternal
p6240
F4
sVfree
p6241
F15
sVwent,
p6242
F4
sVcloth,
p6243
F1
sVwanted
p6244
F10
sVgo,
p6245
F3
sVgo.
p6246
F2
sVdays
p6247
F53
sVfever:
p6248
F1
sVfever;
p6249
F2
sVemployed,
p6250
F3
sVgo:
p6251
F1
sVfever,
p6252
F6
sVfever.
p6253
F1
sVrecite
p6254
F1
sVsweet-meats
p6255
F1
sVgrief;
p6256
F1
sValready
p6257
F12
sVofficious
p6258
F1
sVtoo,
p6259
F2
sVrank
p6260
F1
sVhearing
p6261
F12
sVgrief)
p6262
F1
sVdressing-room,
p6263
F1
sVgrief,
p6264
F6
sVgrief.
p6265
F1
sVgrief!
p6266
F1
sVlulled
p6267
F1
sVtop
p6268
F5
sVtoo
p6269
F42
sVinconvenient
p6270
F1
sVbehind.
p6271
F1
sVconsented
p6272
F13
sVmurder
p6273
F2
sVenough,
p6274
F1
sVserve
p6275
F8
sVtook
p6276
F102
sVkindest
p6277
F2
sVincur
p6278
F3
sVhour,
p6279
F2
sVto:
p6280
F2
sVto;
p6281
F1
sVmercifully
p6282
F1
sVblew,
p6283
F1
sVplate,
p6284
F2
sVtwenty,
p6285
F2
sVheight;
p6286
F1
sVcombat,
p6287
F1
sVfairest
p6288
F1
sVtwenty:
p6289
F1
sVto.
p6290
F8
sVto,
p6291
F14
sVmirth
p6292
F1
sVbridge
p6293
F1
sVruin'd,
p6294
F1
sVfashion
p6295
F2
sVran
p6296
F21
sVtalking
p6297
F5
sVadvising
p6298
F1
sVunaffected
p6299
F1
sVthorough
p6300
F1
sVlaughed
p6301
F2
sVcleft
p6302
F1
sVinured
p6303
F1
sVsaintoin
p6304
F1
sVbeckoned
p6305
F1
sVwestminster,
p6306
F3
sVplenty
p6307
F4
sVcommanding
p6308
F5
sVcontain
p6309
F2
sVparting
p6310
F1
sVconstancy
p6311
F3
sVspits;
p6312
F1
sVtreats
p6313
F1
sVsafe:
p6314
F1
sVsustenance,
p6315
F1
sVesop,
p6316
F1
sVlearned,
p6317
F2
sVforsook
p6318
F1
sVcottage,
p6319
F7
sVentertaining
p6320
F2
sVrelated.
p6321
F1
sVbrest,
p6322
F1
sVcontracted,
p6323
F1
sVinspire
p6324
F1
sVproceedings,
p6325
F1
sVpenitent,
p6326
F3
sVfontain,
p6327
F1
sVconsists,
p6328
F1
sVearth
p6329
F4
sVbail
p6330
F1
sVruin.
p6331
F4
sVruin,
p6332
F2
sVspite
p6333
F1
sVshot,
p6334
F1
sVdelays
p6335
F1
sVshot.
p6336
F1
sVrefreshment
p6337
F2
sVruin:
p6338
F1
sVlodge
p6339
F1
sVenslave
p6340
F1
sVanger,
p6341
F1
sVshot;
p6342
F1
sVgiles's,
p6343
F1
sVnavigation,
p6344
F1
sVabout:
p6345
F1
sVwatch
p6346
F2
sVshutting
p6347
F2
sVfinely,
p6348
F1
sVreport
p6349
F1
sVundressed
p6350
F1
sVabout,
p6351
F4
sVcountries
p6352
F2
sV'tho'
p6353
F1
sVtwice
p6354
F3
sVthanks
p6355
F8
sVpenance
p6356
F1
sVhabit
p6357
F15
sVeleven
p6358
F1
sVhorribly.
p6359
F1
sVnun
p6360
F1
sVmargaretta
p6361
F1
sVtreasures,
p6362
F1
sVface.
p6363
F3
sVtaunts,
p6364
F1
sVcontinually
p6365
F11
sVgrandmother
p6366
F1
sVrelation.
p6367
F1
sVdiscovers
p6368
F1
sV'yes,
p6369
F5
sVface:
p6370
F1
sVface;
p6371
F2
sVselves,
p6372
F2
sVconfusion
p6373
F5
sVweak
p6374
F8
sVhowever
p6375
F1
sVcrimes.
p6376
F2
sVhonestly,
p6377
F1
sVdevour
p6378
F1
sVdevout
p6379
F2
sVnews
p6380
F32
sVcrimes:
p6381
F1
sVblasted
p6382
F2
sVprotect
p6383
F4
sVprized,
p6384
F1
sVfault
p6385
F1
sVwines,
p6386
F1
sVabated.
p6387
F1
sVfaces
p6388
F2
sVvariance
p6389
F1
sVmerchandize,
p6390
F2
sVmiracle.'
p6391
F1
sVconfessor's
p6392
F1
sVdrug,
p6393
F2
sVanchor,
p6394
F3
sVtrust
p6395
F7
sVdeep;
p6396
F1
sVall,
p6397
F6
sVimaginable:
p6398
F2
sVimaginable;
p6399
F1
sVwere:
p6400
F1
sVwere;
p6401
F1
sVropes
p6402
F4
sVfaltering
p6403
F1
sVbeen
p6404
F110
sVquickly
p6405
F6
sVwere,
p6406
F9
sVconfident
p6407
F3
sVimaginable,
p6408
F2
sVbelongs
p6409
F1
sVapplause;
p6410
F1
sVmiraculously
p6411
F1
sVmons.
p6412
F2
sVpallas
p6413
F1
sVfamily-difference,
p6414
F1
sVuncommon
p6415
F1
sVchurch;
p6416
F3
sVchurch,
p6417
F7
sVancestors.
p6418
F1
sVcaptive.
p6419
F1
sVapprehension
p6420
F2
sVlessen
p6421
F1
sVfoot,
p6422
F2
sVparched
p6423
F1
sVrope,
p6424
F1
sVnatives
p6425
F2
sVdying.
p6426
F1
sVdying,
p6427
F1
sVbroth
p6428
F1
sV"i
p6429
F2
sVsea-affairs,
p6430
F1
sVheart.
p6431
F1
sVheart,
p6432
F4
sVwound
p6433
F2
sVsaving.
p6434
F1
sVbeside
p6435
F2
sVheart;
p6436
F4
sVfurley
p6437
F14
sVjealousy,
p6438
F2
sVhated;
p6439
F1
sVseveral
p6440
F16
sVdeeds
p6441
F1
sVthankful,
p6442
F1
sVmisery
p6443
F1
sVafraid
p6444
F2
sVroman-catholick,
p6445
F1
sVinsisted
p6446
F1
sVmade,
p6447
F2
sVmade.
p6448
F2
sVmentioning
p6449
F1
sVwest-indies,
p6450
F1
sVshortly
p6451
F1
sVmother's
p6452
F13
sVpossessed
p6453
F2
sVscimiters
p6454
F1
sVgreatest
p6455
F14
sVdetained
p6456
F2
sVmother
p6457
F16
sVhearts
p6458
F1
sVshadowed
p6459
F1
sVleagues
p6460
F1
sVbreak:
p6461
F1
sVappease
p6462
F1
sVdeparted
p6463
F2
sVproposed
p6464
F4
sVproposes
p6465
F1
sVbreak,
p6466
F1
sVfollowed
p6467
F12
sVtolerably
p6468
F3
sVgreenwich
p6469
F1
sVmeanly
p6470
F1
sVoffice,
p6471
F2
sVguess;
p6472
F1
sVtolerable
p6473
F1
sVgave
p6474
F52
sVvice,
p6475
F2
sVfeatures,
p6476
F2
sVcasting
p6477
F3
sVensued,
p6478
F3
sVadvances
p6479
F1
sVden,
p6480
F1
sVeye-balls,
p6481
F1
sVpropose,
p6482
F1
sVjudge
p6483
F1
sVburnt
p6484
F2
sVadvanced
p6485
F3
sVjealousy:
p6486
F1
sVappearing
p6487
F5
sVgift
p6488
F1
sVzeal
p6489
F1
sVcontradict
p6490
F1
sVcruelty:
p6491
F1
sVofficer
p6492
F12
sVhung
p6493
F5
sVdamps,
p6494
F1
sVlamp,
p6495
F2
sVchests
p6496
F2
sVbeheld
p6497
F1
sVcruelly:
p6498
F1
sVdispleasure
p6499
F1
sVescape
p6500
F13
sVnobleman
p6501
F2
sVproceeding
p6502
F2
sVear
p6503
F1
sVcompanions
p6504
F5
sVdressed,
p6505
F8
sVdressed;
p6506
F1
sVsplendor
p6507
F1
sVcord
p6508
F1
sVdropped
p6509
F2
sVphilena,
p6510
F2
sVchest,
p6511
F4
sVdexterously,
p6512
F1
sVplace.'
p6513
F1
sVchest;
p6514
F1
sVpermitted
p6515
F4
sVawaked,
p6516
F1
sVdinner
p6517
F1
sVcompanion,
p6518
F2
sVprayed,
p6519
F1
sVcompanion.
p6520
F2
sVduke
p6521
F1
sVdischarging
p6522
F1
sVpresence
p6523
F2
sVcivil
p6524
F1
sVobtaining
p6525
F1
sVguard.
p6526
F1
sVfinely
p6527
F2
sVbats
p6528
F1
sVsteer.
p6529
F1
sVwatch,
p6530
F2
sVmurdered.
p6531
F2
sVmurdered,
p6532
F1
sVvirgin
p6533
F3
sVpretended,
p6534
F4
sVportion.
p6535
F1
sVportion,
p6536
F1
sVpurposely
p6537
F1
sVround,
p6538
F2
sVentertainments,
p6539
F1
sVhands:
p6540
F1
sVlady:
p6541
F1
sVguard;
p6542
F1
sVheat
p6543
F2
sVuncle
p6544
F14
sVobjects,
p6545
F1
sVsustained
p6546
F2
sVremoved
p6547
F7
sVhands,
p6548
F21
sVhands.
p6549
F7
sVcoats;
p6550
F1
sVlashed
p6551
F1
sVcrew,
p6552
F2
sVbargain
p6553
F1
sVruined
p6554
F19
sVadore
p6555
F1
sVdisingaged,
p6556
F1
sVcoats,
p6557
F2
sVcustoms,
p6558
F1
sVcustoms.
p6559
F1
sVfury
p6560
F3
sVsinful
p6561
F2
sVsuspicions
p6562
F2
sVgallant,
p6563
F2
sVill-natured
p6564
F1
sVsupper,
p6565
F4
sVarragonian
p6566
F1
sVinjurious
p6567
F2
sVextraordinary:
p6568
F1
sVextraordinary;
p6569
F1
sVfaithful
p6570
F5
sVno
p6571
F166
sVwhereas
p6572
F1
sVwhen
p6573
F120
sVsetting
p6574
F5
sVwhet
p6575
F1
sVpapers
p6576
F1
sVtie
p6577
F1
sVsummer-islands,
p6578
F2
sVintailed
p6579
F1
sVpreceding
p6580
F1
sVsuspicion,
p6581
F2
sVdark,
p6582
F1
sVdark.
p6583
F1
sVunfrequented
p6584
F1
sVdischarge
p6585
F1
sVmonk's
p6586
F1
sVyounger
p6587
F6
sVlonger
p6588
F9
sVpaper.
p6589
F1
sVlanded
p6590
F7
sVlonged
p6591
F5
sVsing,
p6592
F1
sVserious
p6593
F2
sVintimacy
p6594
F2
sVcoach
p6595
F8
sVrob
p6596
F5
sVlivelihood
p6597
F1
sVleads
p6598
F1
sVlingring
p6599
F1
sVwishes,
p6600
F2
sVsplendidly;
p6601
F1
sVdiscern
p6602
F2
sVmethods.
p6603
F1
sVpost;
p6604
F1
sVfetters;
p6605
F1
sVpassage
p6606
F9
sVcharge
p6607
F4
sVpost,
p6608
F4
sVforgiven,
p6609
F1
sVdiscovering
p6610
F2
sVhonoured
p6611
F3
sVquestions,
p6612
F5
sVcuckold.
p6613
F1
sVword.
p6614
F3
sVadvantage
p6615
F3
sVmarried,
p6616
F9
sVmarried.
p6617
F1
sVsighed
p6618
F2
sVskulls,
p6619
F1
sVbrother
p6620
F16
sVmarried;
p6621
F1
sVquick
p6622
F3
sVsays
p6623
F2
sVhair,
p6624
F4
sVport
p6625
F4
sVpearl;
p6626
F1
sVstately
p6627
F1
sVdeluded
p6628
F1
sVdaily.
p6629
F1
sVcontracted
p6630
F10
sVwest-indies
p6631
F3
sVword;
p6632
F1
sVgoes
p6633
F3
sVhealth,
p6634
F7
sVdrink,
p6635
F3
sVdrink.
p6636
F1
sVangelina
p6637
F40
sVfunds,
p6638
F1
sVwater
p6639
F14
sVentertain
p6640
F5
sVdrink;
p6641
F1
sVsay.
p6642
F1
sVsay,
p6643
F4
sVsupplying
p6644
F1
sVhealths
p6645
F1
sVcentinels
p6646
F1
sVthirty
p6647
F2
sVbeautiful;
p6648
F1
sVguilty
p6649
F1
sVdescended
p6650
F6
sVbeautiful,
p6651
F4
sVmyself.
p6652
F2
sVhumour
p6653
F1
sVmyself,
p6654
F6
sVbesought
p6655
F2
sVcase:
p6656
F1
sVthrum
p6657
F1
sVfool
p6658
F1
sVswallowed
p6659
F3
sVisles
p6660
F1
sVhermits
p6661
F4
sVwrongs
p6662
F1
sVmemory
p6663
F1
sVhermit,
p6664
F1
sVdrowned:
p6665
F2
sVhermit)
p6666
F2
sValtar
p6667
F2
sVchocolate
p6668
F1
sVdismal
p6669
F17
sVdrowned.
p6670
F1
sVemployed
p6671
F6
sVshooting,
p6672
F1
sVchapel,
p6673
F1
sVand,
p6674
F10
sVmeans,
p6675
F5
sVwrong,
p6676
F1
sVattain
p6677
F1
sVprotestants,
p6678
F1
sVstream
p6679
F1
sVamazement;
p6680
F1
sVplease;
p6681
F1
sVsued
p6682
F1
sVperformed
p6683
F2
sVinclosed
p6684
F1
sVsecured
p6685
F9
sVeloquent
p6686
F1
sVstones;
p6687
F1
sV1
F1
sVstones,
p6688
F3
sVspeaks
p6689
F1
sVbegs
p6690
F1
sVpirate-captain
p6691
F2
sV!
F2
sVprofessing
p6692
F2
sVunkindly,
p6693
F1
sVunload,
p6694
F1
sVsanson
p6695
F1
sVrites
p6696
F1
sVcuring
p6697
F1
sVsavages."
p6698
F1
sV120
p6699
F1
sVsecure,
p6700
F2
sVbranches
p6701
F2
sVdisconsolate
p6702
F1
sVsucceeded
p6703
F2
sVenemies,
p6704
F1
sVfire-arms,
p6705
F1
sVsuperscription
p6706
F1
sVinform
p6707
F9
sVwounds,
p6708
F1
sVinfidels
p6709
F2
sVambush,
p6710
F1
sVcircumstances,
p6711
F4
sVlamented
p6712
F1
sVcubs
p6713
F1
sVconversation:
p6714
F1
sVcircumstances.
p6715
F2
sVgarters,
p6716
F1
sVfurnished
p6717
F7
sVhence;
p6718
F1
sVmidnight
p6719
F4
sVvail,
p6720
F1
sVweather:
p6721
F1
sVswelled,
p6722
F1
sVconversation.
p6723
F1
sVconversation,
p6724
F4
sVweather,
p6725
F1
sVhence,
p6726
F3
sVhence.
p6727
F1
sVsouls;
p6728
F1
sVsouls.
p6729
F1
sVsouls,
p6730
F1
sVoffers
p6731
F2
sVfarmer
p6732
F1
sVheels,
p6733
F2
sVhappened
p6734
F3
sVgratified;
p6735
F1
sVsolicitations,
p6736
F2
sV(her
p6737
F1
sVbound
p6738
F18
sVconquer
p6739
F1
sVgratified.
p6740
F1
sVrecovery.
p6741
F1
sVterm
p6742
F1
sVname
p6743
F25
sVoffer,
p6744
F1
sVoffer.
p6745
F1
sVsoon,
p6746
F2
sVremove,
p6747
F1
sVbarbadoes
p6748
F1
sVtrunks
p6749
F3
sVdejected
p6750
F1
sVcatching
p6751
F1
sVfestival-day,
p6752
F1
sVintercourse
p6753
F1
sVthus:
p6754
F6
sVthus,
p6755
F1
sVthus.
p6756
F1
sVwhispered,
p6757
F1
sVshe
p6758
F620
sVattended
p6759
F11
sVuninhabited,
p6760
F1
sVdispatched
p6761
F3
sVaccommodation
p6762
F1
sVdance,
p6763
F1
sVturn
p6764
F2
sVplace
p6765
F74
sVretreating
p6766
F1
sV'why
p6767
F1
sVview
p6768
F4
sVmatrimony,
p6769
F1
sVfetched
p6770
F11
sVanxiety,
p6771
F1
sVitaly,
p6772
F1
sVturbants
p6773
F2
sVtemper,
p6774
F2
sVwispers
p6775
F1
sVgiven
p6776
F25
sVpersons,
p6777
F2
sVpretended.
p6778
F1
sVpersuasions
p6779
F4
sVriding,
p6780
F1
sVpersons;
p6781
F2
sVreturns
p6782
F3
sVfought
p6783
F3
sVbleak
p6784
F1
sVwhite
p6785
F9
sVcope
p6786
F1
sVmen's
p6787
F2
sVinexpressible
p6788
F3
sVhut
p6789
F4
sVreleased
p6790
F2
sVgirded
p6791
F1
sVlewd,
p6792
F1
sVunfortunately
p6793
F7
sVreturn,
p6794
F3
sVreturn.
p6795
F2
sVwitty,
p6796
F1
sVschooled
p6797
F2
sVreturn;
p6798
F1
sVearth,
p6799
F3
sVpowder
p6800
F1
sVand
p6801
F3105
sVconvent.
p6802
F2
sVconvent,
p6803
F5
sVclimbed:
p6804
F1
sVconfessed
p6805
F5
sVhead
p6806
F7
sVconvent:
p6807
F1
sVink,
p6808
F1
sVsells
p6809
F1
sVany
p6810
F81
sVfreed.'
p6811
F1
sVprosperity
p6812
F1
sVlate;
p6813
F1
sVmolestation.
p6814
F1
sVpassengers.
p6815
F2
sVpassengers,
p6816
F1
sVfarmer's
p6817
F3
sVmalta
p6818
F2
sVwandered
p6819
F1
sVlate,
p6820
F1
sVobliging,
p6821
F1
sVprocuress,
p6822
F2
sVurge
p6823
F1
sVreluctance;
p6824
F1
sVsure
p6825
F4
sVboiling
p6826
F1
sVstormed
p6827
F1
sVconvents
p6828
F1
sVcleared
p6829
F2
sVannul
p6830
F1
sVstrength,
p6831
F1
sVpricked
p6832
F1
sVconsidered
p6833
F1
sVproud
p6834
F4
sVhungry
p6835
F1
sVport-royal,
p6836
F1
sVhear
p6837
F16
sVkilled,
p6838
F2
sVtrepanned
p6839
F1
sVquantity
p6840
F2
sVarmy,
p6841
F1
sVcheap
p6842
F1
sVindulgence,
p6843
F1
sVindulgence.
p6844
F1
sVreturn.'
p6845
F1
sVuncle,
p6846
F6
sVuncle.
p6847
F1
sVsecretly.
p6848
F1
sVsecretly,
p6849
F2
sVcrime
p6850
F5
sVwood
p6851
F7
sVbelieving
p6852
F4
sVorphan,
p6853
F1
sVflood,
p6854
F1
sVcautioned
p6855
F1
sVdreaded
p6856
F1
sVuncles
p6857
F1
sVlighten
p6858
F1
sVown,
p6859
F4
sVbegging
p6860
F5
sVexpectation
p6861
F1
sVcrutch,
p6862
F1
sVtrade
p6863
F5
sVtreachery
p6864
F1
sVreveal
p6865
F2
sVmelancholy;
p6866
F1
sVfainted
p6867
F5
sVhoped)
p6868
F1
sVspaniard
p6869
F6
sVmelancholy,
p6870
F2
sVcollege
p6871
F1
sVobliging
p6872
F2
sVapologies
p6873
F1
sVprofessed
p6874
F1
sVsanterell's
p6875
F1
sVcrystal
p6876
F1
sVways
p6877
F9
sVentring,
p6878
F2
sVforemost,
p6879
F1
sVrelief,
p6880
F1
sVpriest,
p6881
F2
sVroots
p6882
F1
sVjoy
p6883
F11
sVarrival
p6884
F5
sVable;
p6885
F1
sVsores,
p6886
F1
sVable,
p6887
F6
sVable.
p6888
F6
sVcome
p6889
F55
sVway:
p6890
F1
sVhis,
p6891
F4
sVhis.
p6892
F2
sVpriests
p6893
F2
sVquiet
p6894
F3
sVcontract
p6895
F2
sVvices;
p6896
F1
sVsolicited
p6897
F3
sVway,
p6898
F7
sVhis;
p6899
F3
sVcutlass
p6900
F1
sVreclaimed,
p6901
F1
sVafterwards
p6902
F5
sVimplore,
p6903
F1
sVjuice;
p6904
F1
sVcharity,
p6905
F1
sVpot
p6906
F2
sVcloset-door.
p6907
F1
sVresentment
p6908
F1
sVsatisfaction
p6909
F10
sVshriek,
p6910
F3
sVswift
p6911
F1
sVdeposited
p6912
F1
sVowls,
p6913
F1
sVpromises,
p6914
F2
sVhardly
p6915
F5
sVemilia's
p6916
F1
sVskeleton.
p6917
F1
sVdirection
p6918
F1
sVrobbed
p6919
F2
sVstomachs.
p6920
F1
sVblessing
p6921
F2
sVburied,
p6922
F1
sVminister
p6923
F1
sVafterward,
p6924
F1
sVcareful
p6925
F1
sVspirit
p6926
F1
sVpilot
p6927
F1
sVcase
p6928
F6
sVmyself
p6929
F9
sVlife;
p6930
F3
sVlife:
p6931
F2
sVcast
p6932
F11
sVlife.
p6933
F16
sVshrieks
p6934
F1
sVlife,
p6935
F26
sVabriseaux
p6936
F8
sVvest
p6937
F1
sVcontrive
p6938
F2
sVfowl,
p6939
F1
sVperson,
p6940
F5
sVcharnel-house
p6941
F1
sVaffrighted
p6942
F2
sVrecounted
p6943
F2
sVperson;
p6944
F1
sVbred,
p6945
F1
sVbred.
p6946
F1
sVauthor
p6947
F1
sVgranted
p6948
F1
sVbowl
p6949
F2
sVvoyage.)
p6950
F1
sVtyger:
p6951
F1
sVeighteen,
p6952
F2
sVmen-servants
p6953
F2
sVback-gate,
p6954
F1
sVevents
p6955
F1
sVhermit
p6956
F2
sVwillingly
p6957
F8
sVapplaud
p6958
F1
sVconvert,
p6959
F1
sVevents;
p6960
F1
sVdriven
p6961
F5
sVpersons
p6962
F12
sVpetticoat
p6963
F3
sVprospered
p6964
F1
sVlute
p6965
F1
sVdelicate
p6966
F6
sVchanging
p6967
F1
sVvowed
p6968
F1
sV'do
p6969
F1
sVconceived,
p6970
F1
sVhandsom
p6971
F1
sVevent,
p6972
F1
sVweakened
p6973
F1
sVbow,
p6974
F2
sVrecital
p6975
F1
sVsteered.
p6976
F1
sVwithout
p6977
F54
sVrelief
p6978
F3
sVbreasts,
p6979
F2
sVreward
p6980
F5
sVbodies
p6981
F1
sVdesolate
p6982
F4
sVactions
p6983
F3
sVhusbands,
p6984
F1
sVrisking
p6985
F1
sVviolent
p6986
F4
sVkill
p6987
F14
sVhusbands.
p6988
F1
sVkneeling
p6989
F1
sVhappiness.
p6990
F1
sVquality;
p6991
F1
sVhappiness,
p6992
F2
sVfondness.
p6993
F1
sVdauntless
p6994
F1
sVhint
p6995
F1
sVrose
p6996
F6
sVpossible,
p6997
F11
sVseems
p6998
F1
sVexcept
p6999
F3
sVcomplain
p7000
F1
sVkinswoman's,
p7001
F1
sVquality.
p7002
F1
sVpossible?
p7003
F1
sVpossible;
p7004
F1
sVguide,
p7005
F2
sVextraordinary,
p7006
F1
sVkills
p7007
F1
sVeasily
p7008
F9
sVvirginia
p7009
F24
sVaction,
p7010
F1
sVaction.
p7011
F2
sVparia,
p7012
F1
sVconfined
p7013
F8
sVaccepted
p7014
F6
sVfurniture
p7015
F1
sVtunicks
p7016
F2
sVwoman:
p7017
F1
sVall.
p7018
F2
sVwoman,
p7019
F9
sVwoman.
p7020
F3
sVreduced
p7021
F3
sVvain.
p7022
F2
sVvain,
p7023
F3
sVfreed,
p7024
F2
sVfreed.
p7025
F1
sVpicture
p7026
F1
sVmadrid
p7027
F3
sVvain;
p7028
F1
sVvain:
p7029
F1
sVtable
p7030
F4
sVprovided
p7031
F13
sVsubdue.
p7032
F1
sVmoon
p7033
F2
sVantient,
p7034
F1
sVmoor
p7035
F3
sVrefreshments,
p7036
F1
sVcountry-house,
p7037
F3
sVcompulsion
p7038
F3
sVquitting
p7039
F1
sVfreed
p7040
F11
sVpetticoats,
p7041
F1
sVmiles,
p7042
F2
sVmoor,
p7043
F4
sVwheedling
p7044
F1
sVpetticoats;
p7045
F1
sVfree;
p7046
F1
sVon
p7047
F327
sVfit."
p7048
F1
sVmasked;
p7049
F1
sVoh
p7050
F1
sVof
p7051
F1384
sVhired,
p7052
F1
sVwhence
p7053
F28
sVstand
p7054
F3
sVsevere,
p7055
F1
sVperused
p7056
F1
sVladies
p7057
F22
sVcurses
p7058
F1
sVinstruments
p7059
F1
sVpenelope
p7060
F1
sVrising
p7061
F4
sVengland
p7062
F8
sVnames,
p7063
F1
sVsatisfied,
p7064
F3
sVthere
p7065
F105
sVhazards
p7066
F1
sVdisposed
p7067
F15
sVcaptain?'
p7068
F1
sVstrict
p7069
F3
sVmortal,
p7070
F1
sVdisposer
p7071
F1
sVsatisfied:
p7072
F1
sVflight,
p7073
F1
sVmischief
p7074
F2
sVpride,
p7075
F1
sVaccount.
p7076
F4
sVaccount,
p7077
F4
sVamongst
p7078
F21
sVcabinet
p7079
F1
sVbefel
p7080
F3
sVjoyful.
p7081
F1
sVskies.
p7082
F1
sVmortals
p7083
F1
sVwalking,
p7084
F2
sVjuncture,
p7085
F1
sVshire:
p7086
F1
sVdifficult;
p7087
F1
sVcreeping
p7088
F1
sVquantity,
p7089
F1
sVfrighted
p7090
F1
sVwords:
p7091
F2
sVshore.'
p7092
F1
sVtaste
p7093
F1
sVwords.
p7094
F4
sVwords,
p7095
F7
sVgoverned
p7096
F2
sVhearts,
p7097
F1
sVbishop
p7098
F2
sVwanton
p7099
F1
sVtransport,
p7100
F4
sVdeserve
p7101
F1
sVdiscerned
p7102
F5
sVpotent,
p7103
F1
sVtransport;
p7104
F2
sVresidence
p7105
F1
sVtorment;
p7106
F1
sVdelicately,
p7107
F1
sVseparate
p7108
F1
sVcastle:
p7109
F1
sVgarden-gate,
p7110
F1
sVcourtly
p7111
F1
sVbullets
p7112
F1
sVfasten
p7113
F1
sVde-chambre
p7114
F1
sVcastle,
p7115
F9
sVgascoigne,
p7116
F1
sVwife
p7117
F32
sVdog
p7118
F1
sVbarcelona
p7119
F2
sVcatharina,
p7120
F4
sVsword,
p7121
F1
sVlamentations
p7122
F3
sVamour.
p7123
F1
sVall
p7124
F324
sVson)
p7125
F1
sVson,
p7126
F9
sVexecuting
p7127
F1
sVfirst?'
p7128
F1
sVdancing,
p7129
F1
sVfollow
p7130
F18
sVson;
p7131
F1
sVwakened
p7132
F1
sVson?
p7133
F1
sVregiment:
p7134
F1
sVapartment
p7135
F6
sVlov'd
p7136
F1
sVsubjected
p7137
F1
sVopportunities
p7138
F3
sVremoval
p7139
F1
sVrevengeful
p7140
F5
sVviz.
p7141
F1
sV'monsieur
p7142
F1
sVflowed
p7143
F1
sVbelonging
p7144
F7
sVwoman
p7145
F23
sVworse
p7146
F3
sVfar
p7147
F17
sVwill;
p7148
F2
sVinduce
p7149
F1
sVladder,
p7150
F4
sVsons
p7151
F2
sVarras,
p7152
F1
sVquestioned,
p7153
F1
sVprolonged
p7154
F2
sVweak,
p7155
F3
sVundone
p7156
F4
sVrenouncing
p7157
F1
sVfort-philip
p7158
F1
sVrake,
p7159
F1
sVten
p7160
F15
sVshould.
p7161
F1
sVdesign
p7162
F20
sVlived;
p7163
F1
sVfisher-boat
p7164
F1
sVsue
p7165
F2
sVadvantageous
p7166
F3
sVdeeply
p7167
F5
sVsum
p7168
F12
sVeminent
p7169
F1
sVcalmly;
p7170
F1
sVrow
p7171
F1
sVguns
p7172
F6
sVchristian
p7173
F13
sVdream;
p7174
F1
sVbehaviour
p7175
F6
sVwhen,
p7176
F1
sVlanded,
p7177
F2
sVgun,
p7178
F2
sVdifficulty
p7179
F1
sVgomez,
p7180
F2
sVmischief.'
p7181
F1
sVmischief."
p7182
F1
sVsummer-house
p7183
F2
sVlord's
p7184
F1
sVthankfully
p7185
F2
sVhusbanded,
p7186
F1
sVknow;
p7187
F1
sVknow,
p7188
F4
sVhorse,
p7189
F3
sVproceed
p7190
F1
sVfaint
p7191
F3
sVwars,
p7192
F1
sVthirteen,
p7193
F2
sVdemeaned
p7194
F1
sVhorses
p7195
F7
sVwretched
p7196
F6
sVknows
p7197
F1
sVuncle's
p7198
F2
sV![](/images/inline/ast.gif)
p7199
F1
sVmad
p7200
F1
sVkeyhole
p7201
F1
sVwretches
p7202
F2
sVknown
p7203
F13
sVfaithfully,
p7204
F1
sVfainted.
p7205
F1
sVchaplain
p7206
F2
sVfainted,
p7207
F2
sVmanca,
p7208
F1
sVduty
p7209
F3
sVsalted
p7210
F1
sVleander,
p7211
F4
sVpont
p7212
F33
sVsilenced.
p7213
F1
sVboat's
p7214
F2
sVcuckold,
p7215
F1
sVindies,
p7216
F1
sVoffspring
p7217
F1
sVcourt
p7218
F2
sVrather
p7219
F15
sVhers;
p7220
F1
sVbreaking
p7221
F2
sVdemands:
p7222
F1
sVhers,
p7223
F3
sVfancy,
p7224
F1
sVreflect
p7225
F6
sVlighting
p7226
F1
sVadventure
p7227
F1
sVlibertines;
p7228
F1
sVhandsome,
p7229
F8
sVhandsome.
p7230
F1
sVshort
p7231
F8
sVwhence?
p7232
F1
sVchiefly
p7233
F1
sVconfirmed,
p7234
F1
sVdeparture
p7235
F3
sVshore
p7236
F14
sVherse
p7237
F1
sVshade
p7238
F1
sVhandsome;
p7239
F1
sVwould,
p7240
F2
sVdon't
p7241
F1
sVthese,
p7242
F2
sVdomingo's
p7243
F3
sVquarrels
p7244
F1
sVwould:
p7245
F1
sV"is
p7246
F1
sVturnings
p7247
F1
sVstyle
p7248
F2
sValready,
p7249
F2
sVinward
p7250
F4
sValready.
p7251
F1
sVstrange
p7252
F25
sVnephew,
p7253
F3
sVmight
p7254
F47
sVsomebody
p7255
F5
sVsucking
p7256
F3
sVlittle,
p7257
F3
sVsanterell,
p7258
F4
sVfrigate
p7259
F3
sVcartogena
p7260
F1
sVmastered
p7261
F2
sVdone
p7262
F20
sVfriendship
p7263
F15
sVmaster's)
p7264
F1
sVposterity;
p7265
F1
sVdisposal.
p7266
F1
sVpirates
p7267
F6
sVneedless
p7268
F4
sVunravelling
p7269
F1
sVsurprize
p7270
F5
sVexpect
p7271
F10
sVundertake
p7272
F2
sVposterity.
p7273
F2
sVrepast,
p7274
F1
sVwondered
p7275
F1
sVhealth
p7276
F6
sVhearken
p7277
F1
sVinduced
p7278
F2
sVmolested,
p7279
F1
sVhavana,
p7280
F3
sVenow
p7281
F1
sVforgive
p7282
F8
sVeffect
p7283
F6
sVmadman,
p7284
F1
sVmadman.
p7285
F1
sVneedles,
p7286
F1
sVheads
p7287
F2
sVpirate,
p7288
F4
sVlinen:
p7289
F1
sVlinen;
p7290
F1
sVmexico,
p7291
F5
sVyear's
p7292
F1
sVflannel-hoods,
p7293
F1
sVlinen,
p7294
F4
sVfamily.
p7295
F3
sVconsequence
p7296
F3
sVfallen
p7297
F4
sVseeming
p7298
F2
sVfeel
p7299
F1
sVrelate
p7300
F9
sV(their
p7301
F1
sVtreasure,
p7302
F2
sVwickedness:
p7303
F1
sVfancy
p7304
F3
sVfeet
p7305
F9
sVencreased
p7306
F2
sVsailor
p7307
F1
sVtreasure;
p7308
F1
sVattendant,
p7309
F1
sVstory
p7310
F16
sV"
F2
sVthoughts.
p7311
F3
sVthoughts,
p7312
F10
sVleading
p7313
F1
sVthoughts;
p7314
F3
sVstorm
p7315
F11
sVstore
p7316
F3
sVtemptations
p7317
F1
sVday-time
p7318
F1
sVquarrels.
p7319
F1
sVrelieved
p7320
F5
sVinformation;
p7321
F1
sVfrom.
p7322
F2
sVimportunity
p7323
F1
sVlucy,
p7324
F2
sVtreasures
p7325
F1
sVimmediately.
p7326
F2
sVimmediately,
p7327
F7
sVconvinced
p7328
F7
sVinformation,
p7329
F1
sVking
p7330
F9
sVkind
p7331
F22
sVcoast;
p7332
F3
sVvial
p7333
F2
sVharbour:
p7334
F1
sVsuppose,
p7335
F3
sVcoast,
p7336
F5
sVdoubly
p7337
F2
sVcoast.
p7338
F1
sVharbour,
p7339
F1
sVamass
p7340
F1
sVvizard
p7341
F1
sVseason,
p7342
F1
sVexecutioner,
p7343
F1
sVstrengthen
p7344
F1
sVwell
p7345
F59
sVbisket
p7346
F3
sVseason;
p7347
F1
sVmendoza,
p7348
F1
sVnights
p7349
F3
sVstupifying
p7350
F1
sVwindow,
p7351
F3
sVfinding
p7352
F29
sVme.'
p7353
F3
sVmaloes,
p7354
F7
sVbands
p7355
F1
sVtongue:
p7356
F1
sVmeasures
p7357
F3
sVreach
p7358
F11
sVnothing
p7359
F49
sVtongue,
p7360
F3
sVwindows
p7361
F2
sVnight:
p7362
F3
sVnight;
p7363
F4
sVnight)
p7364
F1
sVnight,
p7365
F25
sVnight-
p7366
F1
sVnight.
p7367
F4
sVstones
p7368
F3
sVcowls,
p7369
F1
sVfond
p7370
F6
sVfurnace,
p7371
F1
sVlaments
p7372
F1
sVembrace,
p7373
F1
sVrelented,
p7374
F1
sVbetray
p7375
F4
sVhis
p7376
F847
sVmiseries.
p7377
F2
sVpearl,
p7378
F1
sVmiseries,
p7379
F1
sVrooms;
p7380
F1
sVmiseries;
p7381
F1
sVavarice
p7382
F1
sVlist'ning
p7383
F1
sVfishing-boat,
p7384
F1
sVjourney,
p7385
F3
sVexpedient,
p7386
F1
sVhim
p7387
F372
sVstone,
p7388
F1
sVmedicines
p7389
F4
sVtenderness.
p7390
F1
sVrelentless
p7391
F1
sVinsensible
p7392
F1
sVmercer's
p7393
F1
sVbars
p7394
F1
sVart
p7395
F3
sVcity,
p7396
F8
sVabstinence,
p7397
F1
sVintelligence
p7398
F6
sVcity:
p7399
F1
sVbare
p7400
F1
sVare
p7401
F85
sVchambers
p7402
F1
sVbark
p7403
F10
sVdeclined
p7404
F1
sVhollow,
p7405
F1
sVfind,
p7406
F4
sVthreats
p7407
F2
sVopera,
p7408
F1
sVfind:
p7409
F1
sVyearly,
p7410
F1
sVhelps,
p7411
F1
sVother's
p7412
F1
sVlamenting
p7413
F1
sVafter,
p7414
F3
sVisabinda's
p7415
F1
sVlatin
p7416
F2
sVchamber.
p7417
F3
sVdays;
p7418
F3
sVchamber,
p7419
F17
sVsold
p7420
F13
sVfearing,
p7421
F1
sVsurprized;
p7422
F3
sVdays.
p7423
F2
sVchamber;
p7424
F1
sVdays,
p7425
F9
sVmidwife,
p7426
F1
sVsurprized,
p7427
F5
sVsurprized.
p7428
F2
sVprelude
p7429
F1
sVstreights
p7430
F1
sVhot,
p7431
F1
sVroman
p7432
F2
sVbecame
p7433
F15
sVoverset
p7434
F1
sVhowever,
p7435
F2
sVjaundice,
p7436
F1
sVreside
p7437
F2
sVflies
p7438
F1
sVknew,
p7439
F3
sVdistress
p7440
F2
sVreasons
p7441
F6
sVsweet
p7442
F8
sVimproper
p7443
F3
sVvillage
p7444
F7
sVgoats
p7445
F2
sVthere,
p7446
F32
sVthere.
p7447
F10
sVa-breast;
p7448
F1
sVwhom
p7449
F109
sVthere?
p7450
F1
sVthere:
p7451
F4
sVthere;
p7452
F5
sVplant,
p7453
F1
sVreason;
p7454
F2
sVflight
p7455
F1
sVforeseeing
p7456
F1
sVimprudence
p7457
F1
sVsoftest
p7458
F3
sVreason.
p7459
F1
sVreason,
p7460
F4
sVearnestly
p7461
F4
sVcompassion,
p7462
F1
sVlikewise,
p7463
F1
sVcivility
p7464
F2
sVwho,
p7465
F13
sVincome,
p7466
F1
sVbeauty;
p7467
F1
sVparents,
p7468
F3
sVsingle.
p7469
F1
sVgenteelly
p7470
F1
sVwhere,
p7471
F3
sVsupposed)
p7472
F1
sVlodged
p7473
F6
sVrid
p7474
F15
sVanguish
p7475
F2
sVconstancy,
p7476
F1
sVaway.
p7477
F2
sVleonora,
p7478
F7
sVaway,
p7479
F11
sVwindows,
p7480
F2
sVthroat;
p7481
F1
sVaway;
p7482
F3
sVesteemed
p7483
F2
sVdaughters
p7484
F1
sVhigher
p7485
F1
sVmankind:
p7486
F1
sVerrands,
p7487
F1
sVdistrust,
p7488
F1
sVmankind.
p7489
F1
sVmankind,
p7490
F1
sVmoving
p7491
F6
sVdaughter,
p7492
F15
sVdaughter.
p7493
F5
sVpeople,
p7494
F4
sVtry
p7495
F5
sVpeople.
p7496
F2
sVcheek
p7497
F1
sVfaintness
p7498
F1
sVdared
p7499
F4
sVdaughter?
p7500
F1
sVoffers,
p7501
F3
sVdaughter;
p7502
F3
sVvalladolid
p7503
F2
sVpeople;
p7504
F2
sVobstacles,
p7505
F1
sVendeavour
p7506
F6
sVplaces,
p7507
F3
sVtally-man's
p7508
F1
sVquestions
p7509
F2
sVvigilant
p7510
F1
sVconstitution,
p7511
F2
sVprince
p7512
F3
sVlistned
p7513
F1
sVshape,
p7514
F3
sVtormented
p7515
F1
sVcomplaint
p7516
F1
sVquestion.
p7517
F1
sVawaked
p7518
F1
sVabbess,
p7519
F1
sVquestion;
p7520
F1
sVbodkin
p7521
F1
sVseparately
p7522
F1
sVdistrust
p7523
F1
sVout-lived
p7524
F1
sVtable.
p7525
F2
sVtable,
p7526
F3
sVreach.'
p7527
F1
sVinfidel's
p7528
F2
sVcannon.
p7529
F1
sVstreaming
p7530
F1
sV"we
p7531
F1
sVpreparing
p7532
F1
sVwomen,
p7533
F2
sVelvira's
p7534
F5
sVfourteen,
p7535
F3
sVwomen;
p7536
F1
sVmiserably;
p7537
F1
sVrefused
p7538
F9
sVshook:
p7539
F1
sVcautious
p7540
F1
sVmelee's
p7541
F2
sVage.
p7542
F1
sVrib
p7543
F1
sVfiring
p7544
F1
sVfrightful
p7545
F1
sVorder:
p7546
F1
sVhatred
p7547
F1
sVyouthful
p7548
F1
sVscorns
p7549
F1
sVconquest
p7550
F1
sVpast;
p7551
F1
sVpersevering
p7552
F1
sVcorsair
p7553
F1
sVstench
p7554
F1
sVlaughed:
p7555
F1
sVquestion
p7556
F5
sVfast
p7557
F11
sVrowe
p7558
F1
sVperceiving
p7559
F1
sVtutored
p7560
F1
sVcloth
p7561
F3
sVupright
p7562
F2
sVsupinely
p7563
F1
sVscorn,
p7564
F1
sVfled.
p7565
F1
sVpenitent.'
p7566
F1
sVgallantry
p7567
F1
sVmantle,
p7568
F1
sV"pray
p7569
F1
sVhighly,
p7570
F2
sVfifteen,
p7571
F1
sVcalled
p7572
F22
sVburial,
p7573
F1
sVdrowned;
p7574
F1
sVpreserved:
p7575
F1
sVbreast;
p7576
F1
sVroared
p7577
F1
sVbreast.
p7578
F1
sVpreserved,
p7579
F1
sVwarning
p7580
F1
sVpity;
p7581
F1
sVpretends)
p7582
F1
sVknowledge.
p7583
F1
sVknowledge,
p7584
F2
sVsuffer;
p7585
F1
sVbacks
p7586
F1
sVsuffer?
p7587
F1
sVfaculties,
p7588
F2
sVknowledge;
p7589
F2
sVincome
p7590
F2
sVsuffer,
p7591
F1
sV"alas!
p7592
F1
sVgreatsea
p7593
F1
sVallowing
p7594
F1
sVsilver,
p7595
F1
sVreproached
p7596
F2
sVvice
p7597
F1
sVshining,
p7598
F2
sVremit
p7599
F1
sVimpatient
p7600
F15
sVungratefully
p7601
F1
sVprovisions.'
p7602
F1
sVnarrative
p7603
F2
sVsummer-house,
p7604
F3
sVonce
p7605
F9
sVcharlotta's,
p7606
F1
sVwinds
p7607
F3
sVfortified,
p7608
F1
sVlanguages
p7609
F1
sVbefore?
p7610
F1
sVsqueezing
p7611
F2
sVbreach
p7612
F1
sVbenummed
p7613
F1
sVhostages,
p7614
F1
sVabode
p7615
F4
sVcupboard,
p7616
F1
sVissue.
p7617
F1
sVseized
p7618
F15
sVventurous
p7619
F1
sVwind,
p7620
F2
sVague
p7621
F3
sVfailed,
p7622
F1
sVwind;
p7623
F1
sVdrinking
p7624
F3
sVfather.'
p7625
F1
sVruffians,
p7626
F1
sVlanguage.
p7627
F2
sVlanguage,
p7628
F1
sVdeals
p7629
F1
sVtenderness
p7630
F6
sVdealt
p7631
F1
sVlanguage;
p7632
F1
sVbooksellers
p7633
F1
sVconcluded
p7634
F19
sVtoils
p7635
F1
sVsex,
p7636
F2
sVfisherman,
p7637
F1
sV(without
p7638
F1
sVenamoured
p7639
F1
sVpaleness
p7640
F1
sVdesire.
p7641
F2
sVveins,
p7642
F1
sVhourly
p7643
F4
sVappeased
p7644
F1
sVman's
p7645
F10
sVwaiting
p7646
F1
sVlarge.
p7647
F1
sVkindly.
p7648
F1
sVkindly,
p7649
F1
sVcountry-house
p7650
F2
sVchose
p7651
F6
sVdesires
p7652
F2
sVconclude,
p7653
F1
sVmistress's
p7654
F2
sVyoungest
p7655
F2
sVdesired
p7656
F16
sVavilla
p7657
F1
sVslender,
p7658
F2
sVdistressed
p7659
F1
sVisabinda,
p7660
F9
sVleaving
p7661
F16
sVcarried,
p7662
F1
sVconfessor
p7663
F2
sVsuburbs,
p7664
F1
sVheart
p7665
F16
sVforbid
p7666
F1
sVpolitest
p7667
F1
sVcarried:
p7668
F1
sVlodging
p7669
F14
sVapply
p7670
F4
sVtissue,
p7671
F1
sVdandin,
p7672
F4
sVthuthi
p7673
F1
sVuse
p7674
F22
sVfrom
p7675
F269
sVfigure
p7676
F1
sVfew
p7677
F34
sVprevented;
p7678
F1
sVweeping
p7679
F3
sVbitterly
p7680
F1
sVbottomless
p7681
F1
sVfez
p7682
F1
sVsort
p7683
F3
sVparliament
p7684
F1
sVinclined
p7685
F4
sVheir
p7686
F2
sVbitterly:
p7687
F1
sVearthen
p7688
F1
sVmine:
p7689
F1
sVinclines
p7690
F1
sVwomen
p7691
F8
sVwidow-gentlewoman
p7692
F1
sVaugment
p7693
F1
sVus.
p7694
F3
sVus,
p7695
F25
sVdiscovered,
p7696
F3
sVwonders.'
p7697
F1
sVus:
p7698
F3
sVproof
p7699
F3
sVfishing-boat.
p7700
F1
sVindulgence
p7701
F1
sVmask,
p7702
F1
sVvillain
p7703
F3
sVsomething
p7704
F19
sVcounterfeit,
p7705
F1
sVlabours,
p7706
F1
sVsit
p7707
F9
sVsix
p7708
F8
sVparlour
p7709
F1
sVfortunate
p7710
F1
sVinstead
p7711
F3
sVsin
p7712
F1
sVherself,
p7713
F5
sVthirst;
p7714
F1
sVattend
p7715
F4
sVextinguished,
p7716
F1
sVdistraction,
p7717
F1
sVmoving,
p7718
F1
sVdistraction.
p7719
F1
sVamorous,
p7720
F1
sVlight
p7721
F6
sVinterrupted
p7722
F4
sVemanuel
p7723
F1
sVfee'd
p7724
F1
sVcrawling
p7725
F1
sVnecklace
p7726
F1
sVweeks.
p7727
F2
sVlive."
p7728
F1
sVaffection.
p7729
F2
sVinfidel,
p7730
F1
sVweeks,
p7731
F2
sVtimes:
p7732
F1
sVstrove
p7733
F3
sVmaking)
p7734
F1
sVaffection;
p7735
F4
sVlooks
p7736
F3
sVtables.
p7737
F1
sVcovered,
p7738
F1
sVmonks.
p7739
F1
sVease,
p7740
F4
sVworld:
p7741
F2
sVworld;
p7742
F3
sVindisposed,
p7743
F2
sVships
p7744
F5
sVrestrain
p7745
F1
sVchoose
p7746
F1
sVturban
p7747
F1
sVcovered
p7748
F3
sVworld.
p7749
F6
sVworld,
p7750
F16
sVmiscarried.
p7751
F1
sVparamour
p7752
F1
sVlook,
p7753
F1
sVreligion,
p7754
F4
sVwrite;
p7755
F1
sVoranges
p7756
F1
sVnegligent
p7757
F1
sVhappened:
p7758
F1
sVambition
p7759
F3
sVimpaired
p7760
F1
sVaffections
p7761
F3
sVfled
p7762
F15
sVwretch;
p7763
F1
sVship;
p7764
F3
sVship:
p7765
F2
sVprofound
p7766
F3
sVfeast
p7767
F2
sVwinds,
p7768
F1
sVship.
p7769
F4
sVby,
p7770
F3
sVship,
p7771
F41
sVwretch,
p7772
F1
sVtumult
p7773
F1
sVbills
p7774
F5
sVmarquis,
p7775
F1
sVpitying
p7776
F1
sVrelated
p7777
F12
sVremove
p7778
F12
sVour
p7779
F109
sVbrother.'
p7780
F1
sVout
p7781
F159
sVquality-bawd,
p7782
F1
sVdisguised,
p7783
F3
sVsilvia,
p7784
F8
sVcourt;
p7785
F1
sVpursued;
p7786
F1
sVdisclose
p7787
F4
sVsaviour,
p7788
F1
sVfavourily
p7789
F1
sVdishes,
p7790
F1
sVsoria,
p7791
F1
sVdisgusted
p7792
F1
sVsupport,
p7793
F1
sVrespect;
p7794
F1
sVbehaviour,
p7795
F1
sVfollows,
p7796
F1
sVconversation
p7797
F10
sVwalls;
p7798
F1
sVrespect,
p7799
F1
sVgoldsmith's
p7800
F1
sVquilts,
p7801
F1
sVsickness,
p7802
F3
sVcalled;
p7803
F1
sVregard.
p7804
F1
sVhitherto
p7805
F1
sVenormity
p7806
F2
sVcalled,
p7807
F6
sVfilial
p7808
F2
sVbaptize,
p7809
F1
sVfaint,
p7810
F5
sVbois
p7811
F5
sVfaint.
p7812
F1
sVfortune:
p7813
F1
sVunknown
p7814
F1
sVproved,
p7815
F2
sVtheir
p7816
F226
sVenough.
p7817
F1
sVbehind,
p7818
F2
sVgod's
p7819
F3
sVcell,
p7820
F3
sVlearned;
p7821
F1
sVshelf
p7822
F1
sVshallow
p7823
F1
sVreflecting
p7824
F3
sVbaptized
p7825
F1
sVspeak,
p7826
F8
sVmaid-servant,
p7827
F2
sVholland
p7828
F1
sVriches
p7829
F1
sVretreat.
p7830
F2
sVswooned
p7831
F1
sVretreat,
p7832
F4
sVback-door
p7833
F1
sVpacified,
p7834
F1
sVlame,
p7835
F1
sVfowl
p7836
F3
sVlanthorn,
p7837
F1
sVpresence-chamber,
p7838
F1
sVpre-ingaged,
p7839
F3
sVpre-ingaged.
p7840
F1
sVsupplanted
p7841
F1
sVwhich
p7842
F403
sVplantation
p7843
F3
sVdivert
p7844
F4
sVwho
p7845
F370
sVcuriously,
p7846
F1
sVcomplaints,
p7847
F2
sVribbons,
p7848
F1
sValarmed
p7849
F6
sVwhy
p7850
F8
sVhusband's
p7851
F4
sVrecovering,
p7852
F3
sVfountain
p7853
F1
sVprisoners,
p7854
F3
sVlooked
p7855
F22
sVrecovering;
p7856
F1
sVaubin.
p7857
F1
sVeurope,
p7858
F2
sVbulging
p7859
F1
sVword,
p7860
F2
sVagreed
p7861
F10
sVtidings
p7862
F2
sVone,
p7863
F4
sVone.
p7864
F1
sVconsiderable.
p7865
F1
sVconsiderable,
p7866
F3
sVutter
p7867
F7
sVfear
p7868
F28
sVdried
p7869
F1
sVpleased
p7870
F23
sVentring
p7871
F4
sVword:
p7872
F1
sVnearer
p7873
F1
sVpirates,
p7874
F9
sVtrue.
p7875
F1
sVmany,
p7876
F1
sVdistress.
p7877
F1
sVdistress,
p7878
F6
sVcircumstances;
p7879
F1
sVknow.'
p7880
F1
sVcuba
p7881
F1
sVproposals,
p7882
F1
sVcaptain?
p7883
F1
sVdistress:
p7884
F1
sVplease,
p7885
F1
sVwords
p7886
F39
sVspur
p7887
F1
sVburned
p7888
F1
sVthousand,
p7889
F1
sVmarried
p7890
F24
sVprotesting
p7891
F3
sVdeceived
p7892
F2
sVknowing
p7893
F17
sVshedding
p7894
F4
sVresist.
p7895
F1
sVadmonition
p7896
F1
sVhut,
p7897
F3
sVmerits
p7898
F4
sVhaving,
p7899
F2
sVground,
p7900
F6
sVcaptain,
p7901
F17
sVcloset
p7902
F2
sVbelow
p7903
F2
sVbenedictine
p7904
F4
sVviper
p7905
F1
sVground;
p7906
F1
sVboughs
p7907
F1
sVcommand,
p7908
F1
sVbought
p7909
F10
sVdaughters,
p7910
F2
sVopening
p7911
F4
sVmerit.
p7912
F1
sVmerit,
p7913
F1
sVsugars,
p7914
F1
sVhuts
p7915
F1
sVdependance
p7916
F1
sVmerit;
p7917
F1
sVseamen's
p7918
F1
sVdeclining
p7919
F1
sVcommands
p7920
F4
sVpiece
p7921
F7
sVdrought,
p7922
F1
sVstirring
p7923
F1
sVsafely
p7924
F14
sVtorments
p7925
F1
sVwalk
p7926
F13
sVhats,
p7927
F1
sVrespect
p7928
F10
sVhorse-litter,
p7929
F1
sVrashness.
p7930
F1
sVchoice;
p7931
F1
sVrich;
p7932
F1
sVchoice,
p7933
F4
sVtutor
p7934
F1
sVchoice.
p7935
F1
sVholborn,
p7936
F1
sVrich,
p7937
F2
sVescaping,
p7938
F1
sVbedded
p7939
F2
sVshaped,
p7940
F2
sVsufficient
p7941
F13
sVimproved
p7942
F1
sVtorment,
p7943
F1
sVpresent
p7944
F8
sVsticks,
p7945
F1
sVabandoned
p7946
F5
sVseized,
p7947
F2
sVseized.
p7948
F1
sVwill
p7949
F107
sVpersevered
p7950
F1
sVwild
p7951
F7
sVmedicinal
p7952
F1
sVlived.
p7953
F1
sVprovince,
p7954
F1
sVwithout;
p7955
F1
sVresentments:
p7956
F1
sVapprehend
p7957
F1
sVthus
p7958
F62
sVdisapprove
p7959
F1
sVconceive;
p7960
F1
sVresentments.
p7961
F1
sVimprudently
p7962
F2
sVkissed
p7963
F6
sVpreservation.
p7964
F1
sVperhaps
p7965
F7
sVcross
p7966
F4
sVmerciful
p7967
F4
sVfomentation
p7968
F1
sVdifficult
p7969
F4
sVeunuchs
p7970
F3
sVslave
p7971
F7
sVmaster's.
p7972
F1
sVelvira,
p7973
F8
sVconceived
p7974
F1
sVquarter-deck,
p7975
F1
sVbeast
p7976
F4
sVstudent
p7977
F1
sVapprove
p7978
F1
sVfighting
p7979
F1
sVget;
p7980
F1
sVenglish
p7981
F5
sVfollies.'
p7982
F1
sVcried
p7983
F4
sVonly,
p7984
F1
sVfancying
p7985
F1
sVcreditors;
p7986
F1
sVfishing
p7987
F3
sVhappiness
p7988
F7
sVrooms)
p7989
F1
sVwonder,
p7990
F2
sVskins:
p7991
F1
sVnow
p7992
F157
sVmajesty
p7993
F1
sVcounsellor,
p7994
F1
sVsky
p7995
F1
sVwonder!
p7996
F1
sVtawny
p7997
F1
sVusage
p7998
F3
sVstowed
p7999
F1
sVcame.
p8000
F3
sVprovisions
p8001
F10
sVcame,
p8002
F6
sVrecovery,
p8003
F1
sVcame;
p8004
F1
sVcloak,
p8005
F1
sVloaden,
p8006
F1
sVknow
p8007
F27
sVknot
p8008
F1
sVpress
p8009
F1
sV"your
p8010
F1
sVprest
p8011
F1
sVhelpful
p8012
F1
sVsafest
p8013
F1
sVexceed
p8014
F1
sVbecause
p8015
F21
sVflagrant
p8016
F1
sVsearching
p8017
F3
sVpast,
p8018
F9
sVcertain.'
p8019
F1
sVlead
p8020
F4
sVsake,
p8021
F3
sVleap
p8022
F1
sVleader
p8023
F1
sVobey
p8024
F1
sVmurdered
p8025
F4
sVconveyed
p8026
F1
sVconfined,
p8027
F2
sVdeath-like
p8028
F1
sVherself;
p8029
F4
sVheroick
p8030
F4
sVmine;
p8031
F4
sVgetting
p8032
F10
sVhimself,
p8033
F10
sVhimself.
p8034
F2
sVblushes.
p8035
F1
sVshipping
p8036
F2
sVmine,
p8037
F4
sVswear
p8038
F1
sVsweat
p8039
F1
sVherself.
p8040
F2
sVyours:
p8041
F1
sVhimself:
p8042
F3
sVhimself;
p8043
F2
sVown
p8044
F61
sVstrangeness
p8045
F1
sVweather
p8046
F2
sVpromise
p8047
F10
sVanother's
p8048
F2
sVinfant,
p8049
F1
sVfaithfully
p8050
F1
sVcaptains
p8051
F1
sVuniting
p8052
F1
sVrelent,
p8053
F1
sVimplacable,
p8054
F1
sVbreeding
p8055
F1
sVsail-cloth,
p8056
F1
sVpistols
p8057
F3
sVcordials;
p8058
F1
sVmadagascar,
p8059
F1
sVmade
p8060
F138
sVwhether
p8061
F5
sVresist,
p8062
F2
sV'in
p8063
F2
sVthis,
p8064
F10
sVthis.
p8065
F1
sVvenetian
p8066
F2
sVcaptain.
p8067
F2
sVseignior
p8068
F1
sVstage-coach
p8069
F1
sVthis?
p8070
F2
sVfirm
p8071
F2
sVbewail
p8072
F1
sVkind:
p8073
F1
sVapalattean
p8074
F1
sVgoodness
p8075
F2
sVwell-manned
p8076
F1
sVpyrenean
p8077
F2
sVkind,
p8078
F3
sVmutual
p8079
F2
sVincredible
p8080
F2
sVrunaway,
p8081
F1
sVother
p8082
F63
sVrank.
p8083
F1
sVsick
p8084
F8
sVimportuned
p8085
F5
sVkinds
p8086
F1
sVcruelty
p8087
F1
sVrisked
p8088
F1
sVfairly,
p8089
F1
sVearthly
p8090
F3
sVinstant.
p8091
F1
sVcliff
p8092
F2
sVcoffee-
p8093
F1
sVshall,
p8094
F1
sVbois's
p8095
F1
sVtwigs;
p8096
F1
sVrecovered;
p8097
F1
sVsash
p8098
F1
sVstruggled,
p8099
F1
s.