ccollections
defaultdict
p1
(c__builtin__
float
p2
tRp3
Vchearful,
p4
F1
sVrobbers;
p5
F1
sVever.
p6
F1
sVpardon
p7
F4
sVever,
p8
F1
sVprotestant;
p9
F1
sVprotestant:
p10
F1
sVresist
p11
F1
sVsilent,
p12
F4
sVgo:
p13
F1
sVfour
p14
F6
sVhath
p15
F1
sVprotest
p16
F1
sVwoods
p17
F1
sVsleep
p18
F3
sVrobbers,
p19
F6
sVrobbers.
p20
F1
sVappetite
p21
F1
sVcaptain
p22
F9
sVhate
p23
F3
sVacquaintance,
p24
F1
sVbetter;
p25
F1
sVconsider
p26
F2
sVwhose
p27
F22
sVup,
p28
F7
sVvile
p29
F2
sVpardon,
p30
F1
sVcontemner
p31
F1
sVsupported
p32
F1
sVcommon,
p33
F1
sVembers,
p34
F1
sVunder
p35
F10
sVlord
p36
F15
sV'rise,
p37
F1
sV"am
p38
F1
sVinnocence,
p39
F1
sVworth
p40
F3
sVfollowing,
p41
F1
sVmerchant
p42
F1
sVcompassion
p43
F2
sVmemories
p44
F1
sVvoid
p45
F1
sVrise
p46
F5
sVago;
p47
F1
sVtears,
p48
F3
sV"heaven
p49
F1
sVcomplaisant,
p50
F1
sVevery
p51
F17
sVhat,
p52
F1
sVtears;
p53
F1
sVwood:
p54
F2
sVwood;
p55
F1
sVbringing
p56
F6
sVnight-clothes,
p57
F1
sVchapel
p58
F1
sVwe'll
p59
F1
sVabhorrence
p60
F1
sVmonarchs.
p61
F1
sVopportunity.
p62
F1
sVfrier,
p63
F2
sVaccidents,
p64
F1
sVczar
p65
F1
sVguiding
p66
F1
sVexpired.
p67
F1
sVpresent:
p68
F1
sVmuscovy
p69
F5
sVheading
p70
F1
sVclothes
p71
F3
sVenjoy
p72
F7
sVparted
p73
F4
sVgo.'
p74
F1
sVforce
p75
F7
sVher.
p76
F14
sVher,
p77
F43
sVme,
p78
F59
sVme.
p79
F7
sVseas,
p80
F1
sVher;
p81
F10
sVher:
p82
F3
sVsecond
p83
F5
sVpersuade
p84
F3
sVlovely,
p85
F1
sVchild-birth
p86
F1
sVothers,
p87
F3
sVme?
p88
F1
sVexpressions
p89
F1
sVme;
p90
F11
sVme:
p91
F5
sVeven
p92
F5
sVrest:
p93
F1
sVerrors
p94
F1
sVhide
p95
F11
sVdesirous
p96
F1
sVsaved
p97
F2
sVterms.
p98
F1
sVvillages,
p99
F2
sVliberty
p100
F3
sVgold,
p101
F4
sVfainted,
p102
F4
sVleave,
p103
F2
sVabove
p104
F2
sVrest,
p105
F5
sVdoom.'
p106
F1
sVnew
p107
F7
sVever
p108
F15
sVreviving
p109
F2
sVtold
p110
F15
sVfathers,
p111
F1
sVmistress;
p112
F1
sVfriendship,
p113
F1
sVjoin
p114
F1
sVhuman
p115
F3
sVmen
p116
F10
sVswoon.
p117
F1
sVhere
p118
F74
sVmet
p119
F3
sVfriendship;
p120
F2
sVfriendship:
p121
F1
sVtitles,
p122
F1
sVmyself.'
p123
F1
sVabbess
p124
F1
sVfleet
p125
F1
sVhers
p126
F2
sVblindfold,
p127
F1
sVspies
p128
F1
sVrobberies,
p129
F1
sVobtained
p130
F3
sVtalk.'
p131
F1
sVcried,
p132
F7
sVdaughter
p133
F11
sVclimbed
p134
F1
sVlight.
p135
F1
sVguide
p136
F4
sVpieces,
p137
F1
sVi'd
p138
F1
sVpermit
p139
F3
sVprison,
p140
F2
sVi'm
p141
F1
sVsuitable
p142
F1
sVerror,
p143
F1
sVrudely,
p144
F1
sVmutual
p145
F1
sVdeceived,
p146
F2
sVgenteelly
p147
F1
sVcompany,
p148
F6
sVsecure
p149
F5
sVstraw
p150
F1
sVgentleman,
p151
F5
sVseparate.
p152
F1
sVgentleman.
p153
F1
sVseven
p154
F1
sVhighly
p155
F4
sVbrought
p156
F33
sVnight:
p157
F2
sVus?'
p158
F1
sVdying,
p159
F2
sVcompany:
p160
F1
sVwelch
p161
F3
sVstand
p162
F1
sVforbore
p163
F1
sVreply,
p164
F1
sVgentleman:
p165
F1
sV"forgive
p166
F1
sVspoke
p167
F7
sVwould
p168
F49
sVarmy
p169
F1
sVbeaumount
p170
F8
sVbehind
p171
F2
sVarms
p172
F7
sVspy,
p173
F1
sVcraving
p174
F1
sVvillain's
p175
F1
sVcall
p176
F1
sVtherefore
p177
F21
sVmarquis's,
p178
F1
sVrecommend
p179
F1
sVright,
p180
F1
sVfainting
p181
F1
sVperson;
p182
F1
sVtell
p183
F7
sVravishing
p184
F1
sVseparated
p185
F1
sVtrees,
p186
F1
sVbarbarous
p187
F2
sVcount,
p188
F2
sVholy
p189
F1
sVbed-side,
p190
F1
sVmirth;
p191
F1
sVoff;
p192
F1
sVvillainy,
p193
F1
sVreign
p194
F1
sVit
p195
F96
sVgrief
p196
F4
sVwarm
p197
F2
sVpinching
p198
F1
sVharmless
p199
F1
sVformer
p200
F1
sVexcellent
p201
F1
sVrobbing
p202
F1
sVthings.
p203
F1
sVmidst
p204
F1
sVhold
p205
F3
sVoff,
p206
F1
sVmountains
p207
F6
sVcircumstances
p208
F1
sVabundance
p209
F1
sVfetters,
p210
F1
sVcaptain's
p211
F1
sVword
p212
F1
sVwore
p213
F2
sVsociety,
p214
F1
sVpermits
p215
F1
sVpursue
p216
F1
sVfamed
p217
F1
sVwork
p218
F2
sVentertained
p219
F6
sVboldest
p220
F1
sVtender,
p221
F1
sVsociety?
p222
F1
sVdetermining
p223
F1
sVmy
p224
F317
sVmisfortunes
p225
F4
sVdefer
p226
F2
sVfifteen;
p227
F1
sVestate
p228
F4
sVgive
p229
F19
sVrevived,
p230
F1
sVhusband;
p231
F3
sVoverheard
p232
F3
sVwant
p233
F6
sVshore;
p234
F2
sVbare,
p235
F1
sVindifferent
p236
F2
sVrevived;
p237
F1
sVrid
p238
F3
sVoverpowered
p239
F1
sVceremony
p240
F1
sVend
p241
F6
sVturn
p242
F1
sVinhabitants
p243
F1
sVaccepted,
p244
F1
sVtravel
p245
F1
sVtalk,
p246
F2
sVcouragious?
p247
F1
sVfar
p248
F8
sVhot
p249
F1
sVenquire
p250
F1
sVyouth,
p251
F1
sVadjacent
p252
F1
sVanswer
p253
F6
sVgate
p254
F1
sVfever
p255
F1
sVbeauty
p256
F4
sVlad
p257
F1
sVmisfortune:
p258
F1
sVafter
p259
F37
sV'here
p260
F2
sVloyalty
p261
F3
sVprovince.'
p262
F1
sVboth:
p263
F1
sVwrong
p264
F2
sVaway,
p265
F3
sVlay
p266
F5
sVcuriosity
p267
F2
sVson.
p268
F1
sVfood;
p269
F1
sVfood:
p270
F1
sVmisfortune.
p271
F1
sVmisfortune,
p272
F4
sVpurchase
p273
F1
sVagonies,
p274
F1
sVsplendid
p275
F2
sVsuspense;
p276
F1
sVoccasions
p277
F1
sVperceived,
p278
F1
sV'gentlemen,
p279
F3
sVbeaumount's
p280
F1
sVweek,
p281
F1
sVstill,
p282
F1
sVmaintain
p283
F2
sVgladly.
p284
F1
sVfrequent
p285
F1
sVenter
p286
F6
sVrewards
p287
F1
sVmarket-town,
p288
F1
sVorder
p289
F4
sVwind
p290
F4
sVwine
p291
F3
sVexpence,
p292
F1
sVmodesty
p293
F2
sVdown:
p294
F1
sVafterwards
p295
F2
sVlikewise.
p296
F1
sV'father,
p297
F1
sVconsent
p298
F9
sVeffect,
p299
F1
sVensnare
p300
F1
sVsatisfied
p301
F2
sVparts
p302
F1
sVfrailty
p303
F1
sVhand."
p304
F1
sVlondon
p305
F2
sVdown,
p306
F6
sVravisher?
p307
F1
sVdown.
p308
F1
sVfetched
p309
F1
sVrewarded
p310
F2
sVbound,
p311
F1
sVnets
p312
F1
sValmighty's
p313
F1
sVbefore
p314
F25
sVdesign:
p315
F1
sVgermains,
p316
F1
sVgoverness,
p317
F1
sVfit
p318
F6
sVdied,
p319
F4
sVready;
p320
F1
sVshadow?
p321
F1
sVbefallen
p322
F1
sVbetter
p323
F3
sVrescued
p324
F2
sVclothes.
p325
F1
sVcondition
p326
F1
sVpitied
p327
F1
sVnobler
p328
F1
sVwales
p329
F10
sVweeks
p330
F2
sVready,
p331
F1
sVovercome
p332
F1
sVshadow,
p333
F1
sVwelcome,
p334
F3
sVthen
p335
F44
sVthem
p336
F51
sVruined;
p337
F1
sVweakness
p338
F1
sVsafe
p339
F11
sVresist,
p340
F1
sVbreak
p341
F5
sVband
p342
F7
sVyoung,
p343
F2
sVdefender.
p344
F1
sVthey
p345
F193
sValtogether
p346
F2
sVone
p347
F42
sVsilver
p348
F1
sVbread
p349
F1
sVvizards,
p350
F1
sVmeat
p351
F1
sVnoble,
p352
F2
sVdeceitful,
p353
F1
sVleading
p354
F1
sVtoasted
p355
F1
sVexpectation,
p356
F1
sVpains
p357
F1
sVcontents,
p358
F1
sVeach
p359
F2
sVwent
p360
F39
sVside
p361
F2
sVgoodness,
p362
F4
sVburial
p363
F1
sVgenerosity,
p364
F1
sVfills
p365
F1
sVsupped
p366
F1
sVdiana
p367
F1
sVseries
p368
F2
sVinnocent
p369
F2
sVout-gate;
p370
F1
sVshort,
p371
F1
sVtaught
p372
F1
sVon,
p373
F1
sVforgot
p374
F3
sVcomplaints.
p375
F1
sVborne
p376
F1
sVis;
p377
F1
sVday?
p378
F1
sVmisfortune
p379
F3
sVself,
p380
F3
sVovercame
p381
F1
sVcompelled,
p382
F1
sVgod
p383
F10
sVtales
p384
F1
sVchearfully
p385
F1
sVwashed
p386
F1
sVstrangers
p387
F2
sVlaid
p388
F6
sVmessage,
p389
F1
sVruin
p390
F4
sVself:
p391
F1
sVis,
p392
F3
sVheavenly
p393
F1
sVgot
p394
F12
sVinterest,
p395
F1
sVforth
p396
F2
sVfaint,
p397
F1
sVprovide
p398
F2
sVturning
p399
F2
sVassured
p400
F3
sVdefence,
p401
F1
sVhang
p402
F2
sVzara's
p403
F2
sVgiven
p404
F4
sVfree
p405
F3
sVprinciple,
p406
F1
sVwent,
p407
F3
sVcrime,
p408
F1
sVfaculties
p409
F1
sVborn,
p410
F2
sVattendants,
p411
F2
sVcrowned
p412
F1
sVreturning
p413
F5
sVreproaches,
p414
F1
sVgo,
p415
F1
sVgo.
p416
F2
sVbe,
p417
F2
sVrecovering
p418
F2
sVbegan,
p419
F1
sVperhaps,
p420
F1
sVof."
p421
F1
sVdays
p422
F22
sVof.'
p423
F1
sVpreserve,
p424
F1
sVvessel,
p425
F4
sVlicked
p426
F1
sVspeedy
p427
F1
sVguardians,
p428
F1
sVcowle
p429
F1
sVfever,
p430
F4
sVsaluting
p431
F1
sV(as
p432
F1
sVwomen's,
p433
F1
sVconjecture,
p434
F1
sVwaistcoat,
p435
F1
sVrang
p436
F1
sValready
p437
F3
sVofficious
p438
F1
sVsupper
p439
F5
sVencouraging
p440
F1
sVcomforted
p441
F1
sVhearing
p442
F2
sVlady's,
p443
F1
sVinstruct
p444
F1
sVabate,
p445
F1
sVvillage,
p446
F1
sVgrief,
p447
F3
sVanother
p448
F9
sVgrief.
p449
F2
sVtoo?
p450
F1
sVrashness
p451
F1
sVdwelt
p452
F2
sVpower,
p453
F2
sVten
p454
F9
sVservice
p455
F1
sVcourted
p456
F2
sVmade,
p457
F1
sVtop
p458
F4
sVtired
p459
F2
sVmounted,
p460
F1
sVpower;
p461
F1
sVtoo
p462
F8
sVdwell
p463
F1
sV'find
p464
F1
sVeasy.
p465
F1
sVcaravan,
p466
F1
sVunwholesom
p467
F1
sVconsented
p468
F2
sVthing:
p469
F1
sVwas:
p470
F1
sVworse
p471
F1
sVgoing,
p472
F1
sVhappily
p473
F2
sVbehind,
p474
F1
sVserve
p475
F6
sVtook
p476
F33
sVwisdom
p477
F2
sVfelicity;
p478
F1
sVwas,
p479
F5
sVlong,
p480
F2
sVwas.
p481
F2
sVwasted
p482
F1
sVpre-engaged,
p483
F1
sVto:
p484
F1
sVdistance
p485
F1
sVnarrowly,
p486
F1
sVblew,
p487
F1
sVattempted,
p488
F1
sVcreatures.
p489
F1
sVravisher
p490
F3
sVnight.
p491
F2
sVunderstandings:
p492
F1
sVair,
p493
F2
sVlikely
p494
F1
sVseated
p495
F1
sVgod's
p496
F1
sVmatter
p497
F1
sVto.
p498
F1
sVfriend
p499
F5
sVto,
p500
F7
sVlord---advice;
p501
F1
sVher?
p502
F3
sVadventures,
p503
F1
sVlord.'
p504
F1
sVravished
p505
F1
sVold.
p506
F1
sVbridge
p507
F1
sVsees
p508
F1
sVsufferings,
p509
F1
sVran
p510
F1
sVpass
p511
F3
sVmind
p512
F1
sVmine
p513
F1
sVtalking
p514
F1
sV'forbear
p515
F1
sVshy.
p516
F1
sVmanner
p517
F9
sVjacobites
p518
F1
sVseen
p519
F14
sVseem
p520
F1
sVoverhear:
p521
F1
sVseek
p522
F3
sVdoubts-about
p523
F1
sVforced
p524
F6
sVthoughtful
p525
F1
sVdo.
p526
F2
sVgovernors,
p527
F1
sVdo,
p528
F5
sVconvenient
p529
F2
sVlatter
p530
F1
sVnow?'
p531
F1
sVsnow
p532
F1
sVchild,'
p533
F1
sVthieves;
p534
F2
sV'why,
p535
F1
sVdo;
p536
F2
sVaboard,
p537
F2
sVcoldness
p538
F1
sVdo?
p539
F2
sVthieves,
p540
F2
sVoffers,
p541
F2
sVpalaces,
p542
F1
sVmadam,'
p543
F1
sVseemed,
p544
F1
sVmaid,
p545
F3
sVadvice,
p546
F1
sVshall
p547
F35
sVproving
p548
F1
sVmitre:
p549
F1
sVsee;
p550
F2
sVmouth
p551
F1
sVplenty
p552
F3
sVcommanding
p553
F1
sVstood
p554
F6
sVheaven?
p555
F1
sVsee,
p556
F1
sVgrave
p557
F1
sVmaria
p558
F2
sVanthony,
p559
F1
sVmitigate
p560
F1
sVprosperity.
p561
F1
sVreleased
p562
F1
sVgrove
p563
F1
sVdoor,
p564
F4
sVchosen
p565
F1
sVforce.
p566
F1
sVbehaviour
p567
F3
sVletters,
p568
F2
sVmusical
p569
F2
sVforsook
p570
F1
sVthunder
p571
F1
sVcottage,
p572
F3
sVentertaining
p573
F1
sVclasped
p574
F1
sVaffair.
p575
F1
sVpoisonous
p576
F1
sVcame
p577
F43
sVrelated,
p578
F1
sVd.
p579
F1
sVsaying
p580
F1
sVtoo.'
p581
F1
sVlewis
p582
F1
sVoaths
p583
F1
sVqueen
p584
F1
sVwithdrawn:
p585
F1
sVfather's,
p586
F2
sVreligions
p587
F1
sVquench
p588
F1
sVcannot,
p589
F1
sVgermany
p590
F1
sVhanging.
p591
F1
sVstomach
p592
F1
sVcruel,
p593
F2
sVsubtle
p594
F1
sVwall,
p595
F1
sVrochefoucault
p596
F1
sVproposed
p597
F1
sVskirmishes
p598
F1
sVhither,
p599
F2
sVperfect:
p600
F1
sVwrong.
p601
F1
sVgently;
p602
F1
sVbliss
p603
F1
sVtouched
p604
F4
sVrich
p605
F7
sVplaces.
p606
F1
sVlodge
p607
F2
sVdarkness,
p608
F1
sVrest.
p609
F3
sVborrowed
p610
F1
sVdo
p611
F27
sVriver
p612
F2
sV'i
p613
F2
sVde
p614
F19
sVwatch
p615
F1
sVdainties
p616
F1
sVpreferred
p617
F4
sVyielded
p618
F2
sVshutting
p619
F1
sVrings,
p620
F1
sVlives;
p621
F1
sVwedding
p622
F2
sVtrust
p623
F3
sVhappiest
p624
F1
sVnurse
p625
F1
sVcomply
p626
F1
sVabout,
p627
F3
sVbeads
p628
F1
sVsincere,
p629
F1
sVbar
p630
F1
sVmen:
p631
F1
sVcountries
p632
F2
sVnicely
p633
F1
sVfields
p634
F1
sVthem;
p635
F3
sVthem:
p636
F4
sVplace.'
p637
F1
sVmen,
p638
F3
sVtwice
p639
F1
sVbad
p640
F1
sVthem.
p641
F7
sVthem,
p642
F20
sVsteal
p643
F1
sVfarther
p644
F4
sVunworthy
p645
F1
sVquestions
p646
F1
sVfair
p647
F14
sVhabit
p648
F7
sVimitate
p649
F1
sVelsewhere,
p650
F1
sVobserved
p651
F2
sVt.
p652
F1
sVswooned
p653
F1
sVawake,
p654
F1
sVfail
p655
F1
sVmiserable
p656
F2
sVfain
p657
F1
sVresigned
p658
F3
sVbest
p659
F3
sVsubject
p660
F1
sVvoyage
p661
F1
sVsaid
p662
F75
sVadventure:
p663
F1
sVrequest,
p664
F2
sVcruellest
p665
F1
sVwarmed,
p666
F1
sVface,
p667
F5
sVaway
p668
F10
sVsail
p669
F5
sVgentleman
p670
F15
sVcontinually
p671
F1
sVunable
p672
F1
sVscorn
p673
F2
sVdrawn
p674
F3
sVsorts
p675
F1
sVapproach
p676
F2
sVwelch,
p677
F2
sVpreserve
p678
F2
sVwe
p679
F159
sVnever
p680
F33
sVnature
p681
F3
sVconfusion
p682
F2
sVweak
p683
F4
sVhowever
p684
F1
sVespied
p685
F1
sVweary
p686
F1
sV'that
p687
F1
sVloading
p688
F1
sVdignities,
p689
F1
sVdrew
p690
F2
sV'and
p691
F2
sVnews
p692
F12
sVambitious,
p693
F1
sVinseparable:
p694
F1
sVimprove
p695
F2
sVpity
p696
F5
sVreceived
p697
F20
sVhappy:
p698
F2
sVstore
p699
F1
sVcave,
p700
F11
sVcave.
p701
F1
sVcountry
p702
F8
sVill
p703
F2
sVwines,
p704
F1
sVadventures
p705
F4
sVagainst
p706
F5
sVcave;
p707
F1
sVtenderly,
p708
F2
sVnormandy
p709
F4
sVhated
p710
F2
sVloose
p711
F1
sVasked
p712
F6
sVjack
p713
F1
sVnay,
p714
F3
sVcharmed:
p715
F1
sVchaise,
p716
F1
sVappeared
p717
F4
sVconfide
p718
F1
sVvain
p719
F3
sVgreens,
p720
F1
sVhands;
p721
F1
sV'fear
p722
F1
sVmoney,
p723
F7
sVarmour,
p724
F1
sVhast
p725
F3
sVclares,
p726
F1
sVmoney;
p727
F1
sVcommands,
p728
F1
sVcoast:
p729
F1
sVstoln.
p730
F1
sVspeak
p731
F7
sVnow,
p732
F10
sVknavery;
p733
F1
sVimaginable:
p734
F1
sVimaginable;
p735
F1
sVremained
p736
F9
sVthree
p737
F15
sVbeen
p738
F44
sV.
F22
sVhorse,
p739
F1
sVcommission
p740
F1
sVexamples,
p741
F1
sVmuch
p742
F46
sVinterest
p743
F1
sVmiraculously
p744
F1
sVentered
p745
F8
sVlovely
p746
F11
sVceiling;
p747
F1
sVthrew
p748
F7
sVdry
p749
F1
sVlife
p750
F12
sVsadly.
p751
F1
sVeasy
p752
F4
sVeastern
p753
F1
sVancestors:
p754
F1
sVchurch;
p755
F1
sValancon,
p756
F1
sVchild
p757
F5
sVsitting,
p758
F1
sVsad
p759
F5
sVsave
p760
F7
sVcharms.
p761
F1
sVair
p762
F2
sVnear
p763
F13
sVmurders
p764
F1
sVcharms;
p765
F1
sVanchor
p766
F1
sVknown.
p767
F1
sVrage:
p768
F1
sVlust;
p769
F1
sVchanged
p770
F6
sVfaith.
p771
F1
sVfourteenth
p772
F1
sV'may
p773
F2
sVago,
p774
F1
sVmarchioness
p775
F2
sVis
p776
F88
sVsaid;
p777
F1
sVconsent.
p778
F2
sV"i
p779
F1
sVconsent,
p780
F3
sVto-morrow
p781
F2
sVthus.
p782
F1
sVdying:
p783
F1
sVthought;
p784
F1
sVin
p785
F376
sVmarch
p786
F1
sVprison;
p787
F1
sVsaid,
p788
F9
sVtrusted
p789
F1
sVif
p790
F49
sVgrown
p791
F4
sVcuriously,
p792
F1
sVconstrained
p793
F1
sVheart.
p794
F1
sVheart,
p795
F4
sVperform
p796
F1
sVthings
p797
F11
sVmake
p798
F28
sVcommodious,
p799
F1
sVcoach:
p800
F1
sVcoach;
p801
F1
sVfatal
p802
F1
sVheart?
p803
F1
sVunfortunate
p804
F10
sVdied;
p805
F1
sVcoach,
p806
F12
sVpassed.
p807
F2
sVcoach.
p808
F1
sVseveral
p809
F6
sVcapacities
p810
F1
sVvoyages
p811
F1
sVprovisions,
p812
F2
sVpre-ingaged,
p813
F1
sVdeclaring
p814
F1
sVtops
p815
F1
sVhand
p816
F3
sVseamen
p817
F2
sVgranville,
p818
F1
sVi,
p819
F7
sVplate
p820
F1
sVdiscourse,
p821
F3
sVdark
p822
F1
sVshewn,
p823
F1
sVopportunity
p824
F6
sVthoughts
p825
F3
sVkid
p826
F1
sVbeautifullest
p827
F1
sValas!
p828
F13
sVdanced,
p829
F1
sVkept
p830
F8
sVpassengers,
p831
F1
sVthy
p832
F6
sVmother's
p833
F6
sVsettled
p834
F1
sVpossessed
p835
F1
sVparis,
p836
F1
sVragged
p837
F1
sVreplied,
p838
F2
sVdirectly
p839
F2
sVwhich,
p840
F8
sVgreatest
p841
F8
sVthing,
p842
F3
sVmother
p843
F8
sVhearts
p844
F3
sVthe
p845
F878
sVbottle,
p846
F1
sVcure
p847
F1
sVclowns,
p848
F1
sVinsupportable.
p849
F1
sVleft
p850
F25
sVgod,
p851
F13
sVjust
p852
F5
sVsentence
p853
F1
sVmay,
p854
F2
sVwiser
p855
F2
sVrepose
p856
F3
sVassigned
p857
F1
sVdisguise
p858
F1
sVcompleted
p859
F1
sVfeet,
p860
F4
sVvictim
p861
F2
sVfeet.
p862
F2
sVdepart
p863
F2
sVmaloes
p864
F5
sVyet
p865
F18
sVvices
p866
F2
sVdoated
p867
F1
sVhills
p868
F2
sVplate,
p869
F1
sVease
p870
F1
sVfoot:
p871
F1
sVhad
p872
F144
sVbelongs
p873
F1
sVretreat
p874
F3
sVbeloved
p875
F3
sVcaravan
p876
F1
sVmansion,
p877
F1
sVhas
p878
F25
sVstep;
p879
F1
sVhumanity
p880
F1
sVgave
p881
F24
sVmarquis's
p882
F3
sVstately,
p883
F1
sVashore
p884
F2
sVhermitage
p885
F2
sVsailors
p886
F1
sVpossible
p887
F3
sVtold,
p888
F1
sVboxes
p889
F1
sVbirth
p890
F3
sVdestroy
p891
F1
sVjudge
p892
F1
sVsleep,
p893
F2
sVsleep.
p894
F1
sVscruple
p895
F2
sVdreams
p896
F1
sVgaoler,
p897
F1
sVdesire
p898
F1
sVcompany?
p899
F2
sVsatisfaction;
p900
F1
sVjustice,
p901
F1
sVenter;
p902
F1
sVcountry.
p903
F1
sVhonestly
p904
F1
sVcountry,
p905
F10
sVthoughtful,
p906
F2
sVmagistrate,
p907
F1
sVmerry,
p908
F1
sVsatisfaction,
p909
F1
sVnight
p910
F9
sVhung
p911
F1
sVinvaluable
p912
F1
sVhill,
p913
F4
sVold
p914
F24
sVdeal
p915
F1
sVpeople
p916
F4
sVdeaf
p917
F1
sVcheeks.
p918
F1
sVdead
p919
F5
sVborn
p920
F8
sVdisdain;
p921
F2
sVrested,
p922
F1
sVshines,
p923
F1
sVdear
p924
F38
sVbore
p925
F1
sVguess
p926
F2
sVlamp;
p927
F1
sVknow,
p928
F1
sVcreep
p929
F1
sVenemies
p930
F5
sVproceeding
p931
F1
sVfor
p932
F157
sVbottom
p933
F1
sVseventeenth
p934
F1
sVbold,
p935
F1
sVcompanions
p936
F6
sVrendevouz,
p937
F1
sVdressed,
p938
F2
sVpolluted
p939
F1
sVcontinue
p940
F8
sVhonoured
p941
F2
sVdenied
p942
F1
sVout-laws
p943
F1
sVbreath:
p944
F1
sVbounties.'
p945
F1
sV'are
p946
F2
sVbold
p947
F2
sVdamask
p948
F1
sVthence.'
p949
F1
sVshrink:
p950
F1
sV1707-8,
p951
F1
sVdestroyed,
p952
F1
sVsix,
p953
F1
sVrespected,
p954
F1
sVsoftness
p955
F1
sVlosing
p956
F1
sVpost
p957
F2
sVpermitted
p958
F2
sVproceed
p959
F1
sVwept
p960
F3
sVvoice,
p961
F2
sV'is
p962
F2
sVconceal
p963
F4
sVdisorder
p964
F1
sVlord---not
p965
F1
sVmonths
p966
F9
sVdinner
p967
F2
sVdespair
p968
F2
sV'in
p969
F1
sVconsulting
p970
F1
sVcure,
p971
F1
sVdismissed
p972
F1
sVwithdrawing,
p973
F1
sVpresence
p974
F2
sVprisoners
p975
F1
sVstormed
p976
F1
sVbound
p977
F7
sVson
p978
F7
sVeducation,
p979
F2
sVsnow,
p980
F1
sVconsternation,
p981
F1
sVmeats,
p982
F1
sVgentleman?'
p983
F1
sVmethods
p984
F2
sValarmed
p985
F2
sVgaoler
p986
F1
sVimplore
p987
F1
sVelegantly:
p988
F1
sVsupport
p989
F3
sVrefuse,
p990
F1
sVchevalier
p991
F3
sVthirteen,
p992
F1
sVfight
p993
F1
sVvirgin
p994
F4
sVaccordingly
p995
F1
sVpretended,
p996
F1
sVperish:
p997
F1
sVway
p998
F13
sVgreatness
p999
F1
sVacquainting
p1000
F1
sVwas
p1001
F281
sVwar
p1002
F1
sVhim.'
p1003
F1
sVhappy
p1004
F16
sVround.
p1005
F1
sVhead
p1006
F3
sVah!
p1007
F3
sVnames
p1008
F1
sVbrute;
p1009
F1
sVoverjoyed
p1010
F3
sVoffer
p1011
F1
sVhands:
p1012
F1
sVlord---will
p1013
F1
sVso,
p1014
F1
sVlanding
p1015
F2
sVentertained,
p1016
F1
sVcontent
p1017
F1
sVguard;
p1018
F1
sVtalents
p1019
F1
sVrecovering,
p1020
F1
sVhear
p1021
F9
sVprisoner,
p1022
F1
sVastonished
p1023
F1
sVbeing;
p1024
F1
sVremoved
p1025
F1
sVhands,
p1026
F11
sVhands.
p1027
F2
sV'so,
p1028
F1
sVrejected;
p1029
F1
sVabsent
p1030
F2
sVwithdrew
p1031
F2
sVcaptive
p1032
F1
sVcrew,
p1033
F1
sVinside
p1034
F2
sV'god
p1035
F2
sVbesides,
p1036
F1
sVlips
p1037
F4
sVruined
p1038
F2
sVgenerosity
p1039
F1
sVcoats,
p1040
F1
sVzara
p1041
F4
sVdamps
p1042
F1
sVdie:
p1043
F1
sVdie;
p1044
F3
sVpromises
p1045
F1
sVreserved.
p1046
F1
sVdiscovery,
p1047
F1
sVsticks
p1048
F1
sVdiscovery.
p1049
F1
sVpathetick
p1050
F1
sVescape
p1051
F3
sVsuspicions
p1052
F2
sVsupper;
p1053
F1
sVsomebody
p1054
F1
sVhowling
p1055
F1
sVdiscovery:
p1056
F1
sVproves
p1057
F1
sVpromised
p1058
F3
sVdie,
p1059
F2
sVsupper,
p1060
F2
sVdarken,
p1061
F1
sVbrother,
p1062
F2
sVreproving
p1063
F1
sVbenedict,
p1064
F2
sVwishes;
p1065
F1
sVplentifully,
p1066
F1
sVfaithful
p1067
F3
sVdying
p1068
F5
sVno
p1069
F65
sVmoment's
p1070
F1
sVwhen
p1071
F44
sVyou'll
p1072
F2
sVpublick
p1073
F6
sVflood
p1074
F1
sVweaknesses;
p1075
F1
sVsighted,
p1076
F1
sVextraordinary,
p1077
F1
sVimprisoned.
p1078
F1
sVbed;
p1079
F1
sVguineas
p1080
F1
sVmurder
p1081
F1
sVbed?
p1082
F1
sVexpose
p1083
F1
sVexpress,
p1084
F1
sVpicture
p1085
F1
sVwidow,
p1086
F1
sVbrothers
p1087
F1
sV1717,
p1088
F1
sVfelt
p1089
F1
sVconvincing
p1090
F1
sVtransported
p1091
F1
sVesteem.
p1092
F1
sVassiduous
p1093
F1
sVfell
p1094
F13
sVdark,
p1095
F1
sVesteem)
p1096
F1
sVinchantment
p1097
F1
sVdrink:
p1098
F1
sVseeing
p1099
F5
sVdiamonds
p1100
F1
sVdied
p1101
F3
sVservants,
p1102
F13
sVlonger
p1103
F5
sVbestowed
p1104
F1
sVrestores
p1105
F1
sVconfused,
p1106
F1
sVawaking
p1107
F1
sVtogether
p1108
F5
sVtrembled
p1109
F1
sVjacket
p1110
F1
sVloyal
p1111
F1
sVlonged
p1112
F1
sVribbon:
p1113
F1
sVtime
p1114
F21
sVseparation,
p1115
F1
sVserious
p1116
F1
sVconfused;
p1117
F1
sVrestored
p1118
F2
sVsorry
p1119
F1
sVcoach
p1120
F8
sVhealth:
p1121
F1
sVwell:
p1122
F1
sVeternally
p1123
F1
sVstay,
p1124
F1
sVrob
p1125
F3
sVrelieve
p1126
F1
sVequipage,
p1127
F1
sVhereticks,
p1128
F1
sVexceeding
p1129
F3
sVleads
p1130
F1
sVinjuries.
p1131
F1
sVmile
p1132
F2
sVgrateful
p1133
F1
sVshot
p1134
F2
sVfood,
p1135
F4
sVprovided,
p1136
F1
sVdiscern
p1137
F1
sVdevoted
p1138
F2
sVcertainly
p1139
F5
sVprovidence
p1140
F10
sVservants.
p1141
F1
sVfather
p1142
F39
sVmourning,
p1143
F1
sVanswered
p1144
F6
sVflowered
p1145
F1
sVprolonging
p1146
F1
sVbribed
p1147
F1
sVchaplain
p1148
F1
sVtea,
p1149
F2
sVsuffered
p1150
F1
sVmust
p1151
F32
sVthird
p1152
F1
sVfancied
p1153
F1
sVme
p1154
F169
sVdisobey,
p1155
F1
sVsoul;
p1156
F1
sVdraught,
p1157
F1
sVchild:
p1158
F1
sVnone
p1159
F8
sVchoice
p1160
F2
sV1490
p1161
F1
sVsoul,
p1162
F3
sVnightly
p1163
F1
sVgrove,
p1164
F3
sVadvised
p1165
F1
sVlocked
p1166
F3
sVtrouble
p1167
F1
sVwhile,
p1168
F1
sVchild,
p1169
F9
sVminute
p1170
F1
sVarm;
p1171
F1
sVmarried,
p1172
F3
sVdiscovered
p1173
F3
sVperceived
p1174
F3
sVevaded
p1175
F1
sVsighed
p1176
F1
sVbest.
p1177
F1
sVpurely
p1178
F1
sVdid
p1179
F21
sVdie
p1180
F13
sVdig
p1181
F1
sVposts
p1182
F2
sVbrother
p1183
F2
sVdisorder;
p1184
F2
sVdid.'
p1185
F1
sVleave
p1186
F18
sVsettle
p1187
F1
sVrobber
p1188
F1
sVmarried;
p1189
F2
sVquick
p1190
F1
sVdisorder.
p1191
F1
sVround
p1192
F1
sVombre,
p1193
F1
sVprojectors,
p1194
F1
sVbrave
p1195
F5
sVsays
p1196
F3
sVfearing
p1197
F6
sVsatisfaction.'
p1198
F1
sVsister.
p1199
F1
sVchevalier,
p1200
F2
sVghastly
p1201
F1
sVdiscover
p1202
F6
sVthickest
p1203
F1
sVnot;
p1204
F1
sVdried
p1205
F1
sVuncle,
p1206
F2
sVenchanting,
p1207
F1
sVeating
p1208
F1
sVport
p1209
F1
sVsung,
p1210
F1
sVcurse
p1211
F2
sVappear
p1212
F4
sVwalk;
p1213
F1
sVdeluded
p1214
F1
sVexcuse,
p1215
F1
sVcontracted
p1216
F1
sVfavour
p1217
F1
sVarrived,
p1218
F4
sVinhabitants,
p1219
F1
sVrub
p1220
F1
sVtartars
p1221
F2
sVsuspect
p1222
F1
sVsaw,
p1223
F2
sVappearing;
p1224
F1
sVeaten
p1225
F1
sVshared
p1226
F1
sVfalling
p1227
F1
sVprincipal
p1228
F2
sVlive.
p1229
F1
sVsafety,
p1230
F1
sVfilled
p1231
F5
sVhealth.
p1232
F1
sVsatisfy
p1233
F1
sVsupporting
p1234
F1
sVship's
p1235
F1
sVvalley;
p1236
F1
sVsay?
p1237
F1
sVhonour
p1238
F8
sVthither:
p1239
F2
sVdesigned
p1240
F2
sVfrench
p1241
F7
sVunderstanding
p1242
F1
sVwater
p1243
F1
sVabroad.
p1244
F1
sVdetest
p1245
F1
sVprovidence,
p1246
F3
sVhorses,
p1247
F6
sValone
p1248
F4
sValong
p1249
F7
sVsay,
p1250
F3
sVthither,
p1251
F9
sVchange
p1252
F4
sVwait
p1253
F4
sVboy
p1254
F9
sVtartars,
p1255
F2
sVhere?
p1256
F1
sVthirty
p1257
F2
sVmerchants,
p1258
F2
sVshift
p1259
F1
sVstudied
p1260
F3
sVguilty
p1261
F1
sVbow
p1262
F1
sVwood,
p1263
F8
sVaccomplished
p1264
F3
sVdescended
p1265
F4
sVhere,
p1266
F11
sVstand.
p1267
F1
sVhospitality
p1268
F1
sVstand,
p1269
F1
sVissue.
p1270
F1
sVmuscovite
p1271
F3
sVbeautiful,
p1272
F1
sVconcealed
p1273
F3
sVbeauties,
p1274
F1
sVhither
p1275
F2
sVtreasure
p1276
F2
sVlove
p1277
F13
sVhumour
p1278
F1
sVmyself,
p1279
F1
sVpretence,
p1280
F1
sVgod."
p1281
F1
sVprefer
p1282
F1
sVbloody
p1283
F1
sVfor,
p1284
F2
sVwithal
p1285
F2
sVitalians
p1286
F1
sVtower,
p1287
F1
sV'ah!
p1288
F1
sV"my
p1289
F1
sVyourself
p1290
F1
sVpost-
p1291
F1
sVnecklaces,
p1292
F1
sVsake
p1293
F2
sVvisit
p1294
F4
sVyou.'
p1295
F8
sVby
p1296
F110
sVstruck;
p1297
F1
sVlive
p1298
F18
sVwood
p1299
F2
sVmemory
p1300
F1
sVbill
p1301
F1
sVangels
p1302
F3
sVloving
p1303
F2
sVlove's
p1304
F1
sVfaith
p1305
F6
sVmen;
p1306
F1
sVfrom.'
p1307
F1
sVwonders,
p1308
F1
sVgentlemen,
p1309
F3
sVapproving
p1310
F1
sV---,
p1311
F1
sVthree,
p1312
F1
sVruinous,
p1313
F1
sVdismal
p1314
F9
sVvirtue
p1315
F9
sVemployed
p1316
F2
sVblood,
p1317
F2
sVfly
p1318
F6
sVand,
p1319
F7
sVjealousy
p1320
F1
sVarms?
p1321
F1
sVconstraint
p1322
F1
sVsoul
p1323
F11
sVinflamed
p1324
F1
sVtall,
p1325
F1
sVsour
p1326
F1
sVrenders
p1327
F1
sVcan
p1328
F29
sVroyal
p1329
F1
sVbelieved
p1330
F4
sVmaking
p1331
F4
sVnormandy,
p1332
F1
sVheart
p1333
F9
sVremitted
p1334
F2
sVbarbarians
p1335
F1
sVmisfortune;
p1336
F1
sVheard?
p1337
F1
sVmisfortunes.'
p1338
F1
sVattribute
p1339
F1
sVdistress,
p1340
F2
sVheard
p1341
F13
sVorder'd
p1342
F1
sVperformed
p1343
F1
sVallowed
p1344
F1
sVstole
p1345
F1
sVregarded;
p1346
F1
sVwinter
p1347
F1
sVsecured
p1348
F1
sV'our
p1349
F2
sVinnumerable
p1350
F1
sVwrite
p1351
F1
sVtill
p1352
F30
sVsword
p1353
F2
sVnot.'
p1354
F1
sVmeat,
p1355
F1
sVhad,
p1356
F1
sVnarrowly
p1357
F1
sVstaying
p1358
F2
sVweeping,
p1359
F1
sVmay
p1360
F18
sVhide,
p1361
F6
sVsacrifice
p1362
F1
sVuse
p1363
F5
sVfortune,
p1364
F3
sVfortune.
p1365
F1
sVproduce
p1366
F1
sVweep.
p1367
F1
sV?'
p1368
F2
sVsuch
p1369
F26
sVfortune;
p1370
F2
sVunutterable
p1371
F1
sVlord,
p1372
F18
sVman
p1373
F31
sVdisguised;
p1374
F1
sVspeak,
p1375
F4
sVneck
p1376
F1
sVgrandson
p1377
F1
sVnorthward,
p1378
F1
sVtenants
p1379
F1
sVenemies,
p1380
F1
sVyielding
p1381
F1
sVenemies.
p1382
F1
sV'to
p1383
F1
sVinform
p1384
F2
sVwounds,
p1385
F1
sVso
p1386
F105
sVcrept
p1387
F1
sVdeceive
p1388
F1
sVbasket
p1389
F1
sVincrease
p1390
F1
sVpulled
p1391
F3
sVtalk
p1392
F3
sVplease,
p1393
F1
sVbreaking
p1394
F1
sVfurnished
p1395
F1
sVindeed
p1396
F3
sVhence:
p1397
F1
sVmidnight
p1398
F1
sVplaced,
p1399
F1
sVyears
p1400
F16
sVconsenting,
p1401
F1
sVgenteel
p1402
F1
sVquarrelled
p1403
F1
sVsailed
p1404
F2
sVno;
p1405
F1
sVcold
p1406
F5
sVstill
p1407
F14
sVhence,
p1408
F1
sVfor;
p1409
F3
sVdead;
p1410
F5
sVdead:
p1411
F2
sVlimbs
p1412
F1
sVthank
p1413
F4
sVhow
p1414
F18
sVselves
p1415
F1
sVdid,
p1416
F5
sVdid.
p1417
F1
sVmonths,
p1418
F1
sVbread:
p1419
F1
sVenlargement,
p1420
F1
sVmaid
p1421
F6
sVwindow
p1422
F1
sVaccording
p1423
F1
sVdreadfully
p1424
F2
sVdead,
p1425
F8
sVtroubled
p1426
F1
sVhappened
p1427
F5
sVcorrespondence
p1428
F1
sVmodestly
p1429
F1
sVgratified;
p1430
F1
sVlonely
p1431
F3
sVreaders.
p1432
F1
sVpocket,
p1433
F2
sVsooner
p1434
F15
sVnation
p1435
F2
sVyear,
p1436
F2
sVinterview
p1437
F1
sVsongs:
p1438
F1
sVspirits:
p1439
F1
sVhalf
p1440
F3
sVnot
p1441
F128
sVfeature
p1442
F1
sVlustful
p1443
F3
sVnow
p1444
F51
sVcold,
p1445
F1
sVkilled
p1446
F3
sVnor
p1447
F13
sVmatched
p1448
F1
sVdown
p1449
F25
sVdeserves.'
p1450
F1
sVimprisoned,
p1451
F1
sVtrouble;
p1452
F1
sVname
p1453
F10
sVservant
p1454
F6
sVjames
p1455
F1
sVtimes
p1456
F2
sVhad.
p1457
F1
sVoffer,
p1458
F3
sVblame;
p1459
F1
sVestates,
p1460
F1
sVsoon,
p1461
F2
sVtongues.
p1462
F1
sVsorrow."
p1463
F1
sVglandore,
p1464
F1
sVform;
p1465
F1
sVherself;
p1466
F2
sVentirely
p1467
F1
sVquarter
p1468
F1
sVrepaired
p1469
F2
sVoval,
p1470
F2
sVjuncture
p1471
F1
sVforbid,
p1472
F1
sV'can
p1473
F1
sVanother's
p1474
F1
sVcall'd
p1475
F1
sVdecreed
p1476
F2
sVshortly,
p1477
F1
sVrichly
p1478
F1
sVtherefore,
p1479
F1
sVpersian
p1480
F1
sVfainted
p1481
F3
sVentering
p1482
F1
sVyear
p1483
F4
sVprudently
p1484
F1
sVgrand-
p1485
F1
sVsmall,
p1486
F1
sVtried
p1487
F3
sVpart.'
p1488
F1
sVliving
p1489
F3
sVopened
p1490
F3
sVparted,
p1491
F2
sVhastily
p1492
F1
sVlooking
p1493
F4
sVthus,
p1494
F2
sVboundless
p1495
F1
sVdwelling.'
p1496
F1
sVmaintenon
p1497
F3
sVdutch
p1498
F1
sVbless
p1499
F2
sVruinous
p1500
F4
sVreceiving
p1501
F2
sVshe
p1502
F135
sVattended
p1503
F3
sVbrought,
p1504
F3
sVdispatched
p1505
F1
sVsyder
p1506
F1
sVfire,
p1507
F1
sVquite
p1508
F2
sVconcluding,
p1509
F1
sVfarewel,
p1510
F1
sVmusing
p1511
F1
sVbesides
p1512
F1
sVobligation
p1513
F1
sVremainder
p1514
F3
sVcare
p1515
F10
sV'her
p1516
F1
sVunsuccessful
p1517
F1
sVtrunks,
p1518
F1
sVmind.
p1519
F1
sVfaith,
p1520
F4
sVruin?'
p1521
F1
sVcondemn,
p1522
F1
sVperfection;
p1523
F1
sVhonest
p1524
F5
sVthing
p1525
F8
sVfetters
p1526
F1
sVplace
p1527
F31
sVaboard
p1528
F4
sVmidnight,
p1529
F1
sVperfection,
p1530
F1
sVdeparted:
p1531
F1
sVthink
p1532
F11
sVwaited
p1533
F2
sVfirst
p1534
F12
sVblind
p1535
F2
sVdwelling
p1536
F1
sVcatholick,
p1537
F2
sVcourted,
p1538
F1
sVcourse
p1539
F1
sVomitted
p1540
F1
sVwere.
p1541
F1
sVsafety
p1542
F1
sVdiverting,
p1543
F1
sVbut,
p1544
F9
sVprisoners:
p1545
F1
sVkatharine,
p1546
F2
sVruined,
p1547
F2
sVcarry
p1548
F10
sVimpossible
p1549
F6
sVtemper,
p1550
F1
sVdrove
p1551
F6
sVopen
p1552
F3
sVrome
p1553
F1
sVdischarged
p1554
F1
sV'madam,
p1555
F11
sVlittle
p1556
F14
sVchecked
p1557
F1
sVsilent
p1558
F1
sVconvent
p1559
F3
sVfields;
p1560
F1
sVday-light,
p1561
F1
sVcaught
p1562
F1
sVslept
p1563
F5
sVtrembled;
p1564
F1
sVcoat,
p1565
F1
sVreturns
p1566
F2
sVfought
p1567
F1
sVpockets,
p1568
F1
sVcousin-german,
p1569
F1
sVwhite
p1570
F1
sVcrack,
p1571
F1
sVspeaking
p1572
F2
sVgives
p1573
F2
sVhandsome,
p1574
F1
sVeyes
p1575
F13
sVcryed
p1576
F1
sVbeaumount,
p1577
F7
sVthat
p1578
F239
sVseason
p1579
F1
sVdisordered,
p1580
F1
sVmen's
p1581
F2
sVmuch,
p1582
F1
sVgenteely
p1583
F1
sVon;
p1584
F1
sVhope?'
p1585
F1
sVshort
p1586
F3
sVattempt
p1587
F2
sVflowers
p1588
F1
sVthan
p1589
F30
sValone:
p1590
F1
sVannum,
p1591
F1
sVwitty;
p1592
F1
sVdoating
p1593
F1
sVunfortunately
p1594
F3
sVearth:
p1595
F1
sVrival
p1596
F2
sVboat,
p1597
F2
sVreturn,
p1598
F4
sVcatholicks,
p1599
F1
sVreturn.
p1600
F2
sVimmortal,
p1601
F1
sVprotected
p1602
F1
sVabandoned:
p1603
F1
sVwitty,
p1604
F1
sVventure
p1605
F5
sVwere
p1606
F100
sVcards
p1607
F2
sV'gentlemen
p1608
F1
sVwandering
p1609
F1
sVearth,
p1610
F2
sVand
p1611
F964
sVaddressing
p1612
F2
sVillness
p1613
F1
sVmissing
p1614
F1
sVconvent.
p1615
F1
sVtraveller:
p1616
F1
sVconvent,
p1617
F2
sVword:
p1618
F1
sV'oh!
p1619
F2
sVturned
p1620
F8
sVincomparable;
p1621
F1
sVjewels
p1622
F1
sVretired,
p1623
F1
sVconvent;
p1624
F1
sVlondoner
p1625
F1
sVburied
p1626
F2
sVentertainments,
p1627
F1
sVbreakfast
p1628
F3
sVsaw
p1629
F26
sVany
p1630
F20
sVfoundered
p1631
F1
sVmolestation,
p1632
F1
sVinfection;
p1633
F1
sVaccoutered,
p1634
F1
sVcharming:
p1635
F1
sVfashionable
p1636
F1
sV"by
p1637
F1
sVsending
p1638
F1
sVczar's
p1639
F1
sVrudeness
p1640
F1
sVcharming,
p1641
F1
sVmr.
p1642
F88
sVwretch
p1643
F2
sVtake
p1644
F18
sVobliging,
p1645
F2
sVwanting
p1646
F4
sVencouraged
p1647
F1
sVraise,
p1648
F1
sVmother's;
p1649
F1
sVcheeks,
p1650
F2
sVground,
p1651
F1
sVgood-nature
p1652
F1
sVsure
p1653
F3
sVsell,
p1654
F1
sVtrace
p1655
F1
sVopposite
p1656
F1
sVscotland,
p1657
F1
sVknew
p1658
F12
sVeldest
p1659
F3
sVpaid
p1660
F4
sVrisen
p1661
F1
sVafternoon,
p1662
F1
sVimpossible!
p1663
F1
sVmerionethshire,
p1664
F1
sVpair
p1665
F2
sVhoped
p1666
F1
sVchevalier's
p1667
F1
sVblushes,
p1668
F1
sVstrength,
p1669
F1
sVmind;
p1670
F1
sVroom
p1671
F5
sVbooty,
p1672
F1
sValone;
p1673
F1
sVproud
p1674
F2
sVbrute,
p1675
F1
sVthousands;
p1676
F1
sVwhere.'
p1677
F1
sVways
p1678
F1
sVsat.
p1679
F1
sVkilled.
p1680
F2
sVnot,
p1681
F7
sVkilled,
p1682
F1
sValone,
p1683
F4
sVdesperately
p1684
F1
sVwalking
p1685
F3
sVwillingly
p1686
F2
sVhonour.
p1687
F2
sVhonour,
p1688
F2
sVuncle;
p1689
F1
sVfifty
p1690
F3
sVpride,
p1691
F1
sVhopes
p1692
F4
sVbright
p1693
F3
sVspirits,
p1694
F1
sVcoutance,
p1695
F4
sVscarce
p1696
F3
sVunfortunately,
p1697
F1
sVman?
p1698
F2
sVbarintha,
p1699
F1
sVso;
p1700
F1
sVfifth
p1701
F1
sVground
p1702
F1
sVreluctance;
p1703
F1
sVplunder
p1704
F1
sVfoot;
p1705
F1
sVgirdle,
p1706
F1
sVtitle
p1707
F1
sVecho'd
p1708
F1
sVtrue
p1709
F5
sVdon't
p1710
F2
sVproportion
p1711
F1
sVenough
p1712
F2
sVcrime
p1713
F1
sVstaid
p1714
F1
sVonly
p1715
F26
sVgoing
p1716
F15
sVbelieving
p1717
F3
sVorphan,
p1718
F1
sVtrade,
p1719
F1
sVwatching
p1720
F1
sVdreaded
p1721
F1
sVover
p1722
F16
sVseen,
p1723
F1
sVdispute
p1724
F1
sVdirected
p1725
F1
sVguarded
p1726
F1
sVusual,
p1727
F2
sVarbours
p1728
F1
sV'tis
p1729
F6
sVtrembling
p1730
F2
sVbetween
p1731
F1
sVbegging
p1732
F1
sVkeys,
p1733
F1
sVtruly
p1734
F1
sVcursing
p1735
F1
sVloath
p1736
F1
sVcannot
p1737
F13
sVimagine,
p1738
F3
sVnearly
p1739
F1
sVbrandy,
p1740
F2
sVcourtly,
p1741
F1
sVdishonourably
p1742
F1
sVreading
p1743
F1
sVpimp
p1744
F1
sVmelancholy;
p1745
F1
sVcordials
p1746
F2
sVseldom
p1747
F1
sVcried.
p1748
F1
sVyield
p1749
F3
sVmorning
p1750
F22
sVmiles
p1751
F6
sVclowns
p1752
F1
sVfriends,
p1753
F9
sVfriends.
p1754
F3
sVneat,
p1755
F1
sVtent
p1756
F1
sVwhere
p1757
F89
sVhusband
p1758
F5
sVmelancholy,
p1759
F1
sVarrival
p1760
F3
sVdeclared
p1761
F3
sVhouse-keeper
p1762
F1
sVmarrying,
p1763
F1
sVagain!'
p1764
F1
sVprotestations
p1765
F1
sVshipping,
p1766
F1
sVseat
p1767
F2
sVnights:
p1768
F1
sVatheist,
p1769
F1
sVbelinda,
p1770
F25
sVimpressions
p1771
F1
sVhastened
p1772
F2
sVconcern
p1773
F1
sVcome,
p1774
F2
sVknowing
p1775
F4
sVages;
p1776
F1
sVvalleys,
p1777
F3
sVdirected,
p1778
F1
sVsea-side
p1779
F1
sVfather's
p1780
F10
sVtrod,
p1781
F1
sVoutside
p1782
F1
sVpriest,
p1783
F1
sVgratitude
p1784
F1
sVcome;
p1785
F1
sVrefreshed
p1786
F3
sVaccustomed
p1787
F1
sVattempt.'
p1788
F2
sVman,
p1789
F10
sVacross
p1790
F1
sVknife
p1791
F1
sVwhispered
p1792
F3
sVnotice
p1793
F4
sVcharmer
p1794
F1
sVdoing,
p1795
F1
sVvaluable
p1796
F1
sVable,
p1797
F1
sVspare
p1798
F5
sVhempen
p1799
F1
sVprisoner;
p1800
F1
sVsea,
p1801
F5
sVembraces
p1802
F1
sVcities
p1803
F1
sVcome
p1804
F20
sVdied.
p1805
F2
sVway;
p1806
F1
sVrecovered
p1807
F2
sVconversed
p1808
F3
sVthen,
p1809
F3
sVdeparture,
p1810
F2
sVwhimsies,
p1811
F1
sVmany
p1812
F15
sVhis.
p1813
F1
sVlain-in;
p1814
F1
sVshivered;
p1815
F1
sVquiet
p1816
F1
sVnations,
p1817
F1
sVforthwith
p1818
F1
sVill:
p1819
F1
sVway,
p1820
F1
sVguardians
p1821
F1
sVdiscourse.
p1822
F1
sVfear.'
p1823
F1
sVduty
p1824
F2
sVcapable
p1825
F1
sVmadness
p1826
F1
sVkey
p1827
F1
sVhabit,
p1828
F3
sV'this,
p1829
F1
sVside,
p1830
F1
sVsatisfaction
p1831
F3
sVtidings:
p1832
F1
sVingenuously
p1833
F1
sVlearning
p1834
F1
sVboat
p1835
F1
sVconsidering
p1836
F1
sVdress,
p1837
F1
sVarts
p1838
F3
sVfallen
p1839
F1
sVcares
p1840
F1
sV"doubt
p1841
F1
sVinformed
p1842
F8
sValmighty
p1843
F1
sVforeigners,
p1844
F1
sVpunished
p1845
F1
sVdangers
p1846
F3
sVborders
p1847
F1
sVhardly
p1848
F1
sVsensibly
p1849
F1
sV500
p1850
F1
sVrecounting,
p1851
F1
sVwants
p1852
F1
sVorders,
p1853
F1
sVdirection
p1854
F1
sVeducated
p1855
F2
sVoccasion,
p1856
F1
sVmonsieur
p1857
F6
sVrobbed
p1858
F2
sVbreakfast:
p1859
F1
sVthousand
p1860
F4
sVblessing
p1861
F2
sVvice:
p1862
F1
sVhomely
p1863
F1
sVlanguage
p1864
F2
sVobserve
p1865
F1
sVmoreover,
p1866
F1
sVblushed,
p1867
F1
sVzara,
p1868
F3
sVthose
p1869
F10
sVpilot
p1870
F1
sVcase
p1871
F2
sVbreast.
p1872
F1
sVmyself
p1873
F5
sVisabella
p1874
F5
sVemployment,
p1875
F1
sVvisit,
p1876
F1
sVthese
p1877
F29
sVbereft
p1878
F1
sVlife;
p1879
F2
sVlanguishing
p1880
F1
sVcare;
p1881
F1
sVwelcome.'
p1882
F1
sVcast
p1883
F3
sVguessed
p1884
F2
sVwelcome."
p1885
F1
sVtransactions
p1886
F1
sVuncommon,
p1887
F1
sVcare,
p1888
F1
sVlife,
p1889
F8
sVfound,
p1890
F1
sVinvited
p1891
F1
sVstain;
p1892
F1
sVfreedom,
p1893
F1
sVstrait
p1894
F1
sVengaged
p1895
F3
sVwelcome.
p1896
F1
sVperson,
p1897
F2
sVdedicate
p1898
F1
sVbrother.
p1899
F1
sVrecounted
p1900
F2
sVgood
p1901
F26
sVembrace
p1902
F2
sVtake.'
p1903
F1
sVvillains:
p1904
F1
sVcommanded
p1905
F2
sVwisely
p1906
F3
sVship
p1907
F7
sVwales,
p1908
F4
sVbroth.
p1909
F1
sVdifferent
p1910
F1
sVconfessor,
p1911
F1
sV(who
p1912
F1
sVpay
p1913
F5
sVgranted
p1914
F1
sVseeking
p1915
F1
sVburthensome
p1916
F1
sVsame
p1917
F5
sVgentlemen
p1918
F5
sVbred;
p1919
F1
sVinquiry
p1920
F1
sVlimited,
p1921
F1
sVmode,
p1922
F1
sVfrequented
p1923
F1
sVgardens,
p1924
F2
sVhermit
p1925
F1
sVbeen;
p1926
F1
sVnoble
p1927
F5
sVgaoler's
p1928
F1
sVfinish
p1929
F3
sVbeen?
p1930
F1
sValight,
p1931
F1
sVapplaud
p1932
F1
sVband,
p1933
F1
sVassist
p1934
F5
sVcompanion
p1935
F1
sVpersons
p1936
F4
sVdiversion
p1937
F2
sVdelicate
p1938
F1
sVcharmingest
p1939
F1
sVevents.
p1940
F1
sVhost's
p1941
F1
sVspend
p1942
F1
sVfreed
p1943
F1
sVspleen:
p1944
F1
sVhandsom
p1945
F1
sVparlour,
p1946
F1
sVabsence;
p1947
F1
sVbow.
p1948
F1
sVheir,
p1949
F1
sVwithout
p1950
F14
sVsuppliant
p1951
F1
sVguernsey
p1952
F1
sVit:
p1953
F1
sVquitted
p1954
F2
sVwarmed
p1955
F2
sVit;
p1956
F5
sVthankfully.
p1957
F1
sVfollowed.
p1958
F1
sVgangs
p1959
F1
sVbeing
p1960
F77
sVmoney
p1961
F13
sVguided
p1962
F2
sVgeneral's,
p1963
F1
sVactions
p1964
F2
sVarms?'
p1965
F1
sVam;
p1966
F1
sVsum,
p1967
F1
sVcease
p1968
F4
sVaspect
p1969
F1
sVfineness
p1970
F1
sVask."
p1971
F1
sVbed,
p1972
F11
sVpeace,
p1973
F1
sVasleep,
p1974
F1
sVopen,
p1975
F1
sVdoubted;
p1976
F1
sVreproaches
p1977
F2
sVhappiness,
p1978
F2
sVquality:
p1979
F1
sVthinking
p1980
F3
sVmasters;
p1981
F1
sVpossible,
p1982
F5
sVseems
p1983
F2
sVexcept
p1984
F1
sVstrange;
p1985
F1
sVwisdom,
p1986
F1
sVrest.'
p1987
F1
sVhappiness;
p1988
F1
sVquality,
p1989
F3
sVquality.
p1990
F3
sVconsented,
p1991
F2
sVthemselves.
p1992
F1
sVwife,
p1993
F7
sVkatharine's
p1994
F1
sVastonished;
p1995
F1
sVfine,
p1996
F6
sVread
p1997
F2
sVcorrespondence.
p1998
F1
sVsums
p1999
F1
sVearly
p2000
F2
sVaction.
p2001
F1
sVwife:
p2002
F1
sVwife;
p2003
F3
sVconfined
p2004
F1
sVusing
p2005
F1
sVaccepted
p2006
F2
sVlady
p2007
F45
sVgrim
p2008
F1
sVgate,
p2009
F2
sVfurniture
p2010
F3
sV'sir,
p2011
F4
sVcherry-colour
p2012
F1
sVacquainted
p2013
F2
sVfortune
p2014
F8
sVmuscovites
p2015
F1
sVstranger
p2016
F3
sVpounds
p2017
F2
sVpath,
p2018
F1
sVrapture!
p2019
F1
sVwoman:
p2020
F1
sVshutter
p2021
F1
sVchamber
p2022
F3
sVeither
p2023
F2
sVall.
p2024
F2
sVwoman,
p2025
F3
sVvoluntarily
p2026
F1
sVpassionate
p2027
F2
sVrobbers
p2028
F7
sVfear;
p2029
F1
sVsharp
p2030
F1
sVtwelve
p2031
F1
sVholland,
p2032
F1
sVvain,
p2033
F1
sVjews
p2034
F1
sVexposed
p2035
F3
sVpronounce
p2036
F1
sValive.'
p2037
F1
sVvain?
p2038
F1
sVrobber,
p2039
F1
sVamazed,
p2040
F1
sVrefresh
p2041
F2
sVdone,
p2042
F2
sVesteem:
p2043
F1
sVdivine
p2044
F1
sVlondon,
p2045
F3
sVwanting,
p2046
F2
sVcivilly
p2047
F2
sVagreeably.
p2048
F1
sVprovided
p2049
F5
sVlluelling
p2050
F42
sVstopt
p2051
F2
sVnoon
p2052
F1
sVdeed,
p2053
F1
sVprovides
p2054
F1
sVpeace;
p2055
F1
sVcrying,
p2056
F1
sVlook;
p2057
F1
sVrefer
p2058
F1
sVrashness,
p2059
F1
sVthink,
p2060
F3
sVknees,
p2061
F3
sV'daughter,
p2062
F1
sVswansey,
p2063
F13
sVfaintly
p2064
F2
sVdisguises,
p2065
F1
sVknees;
p2066
F1
sVlodgings,
p2067
F1
sVseducing
p2068
F1
sVinnocence
p2069
F1
sVapartment,
p2070
F2
sVpurse
p2071
F1
sVprepared
p2072
F1
sVthrow
p2073
F2
sV'where
p2074
F2
sVmet,
p2075
F1
sVon
p2076
F52
sVstone
p2077
F2
sVdesigned;
p2078
F1
sVjoyfully
p2079
F2
sVpleased.
p2080
F1
sVof
p2081
F459
sVpleased,
p2082
F1
sVpassion:
p2083
F1
sVconstitution
p2084
F1
sVinforming
p2085
F1
sVown,
p2086
F2
sVwhence
p2087
F5
sVjourney
p2088
F1
sVchoice."
p2089
F1
sVact
p2090
F1
sVnecessaries;
p2091
F1
sVwithout.
p2092
F1
sVmean
p2093
F2
sVout,
p2094
F6
sVpassion,
p2095
F3
sVsuch,
p2096
F5
sVliked,
p2097
F1
sVvespers.
p2098
F1
sVpersuaded
p2099
F3
sVladies
p2100
F10
sVlands
p2101
F1
sVoccasions.
p2102
F1
sVunpractised
p2103
F1
sVoccasions,
p2104
F1
sVweakness.
p2105
F1
sVcountry-seat,
p2106
F1
sVmorning:
p2107
F1
sVskilled
p2108
F1
sVblessed
p2109
F3
sVagreed,
p2110
F1
sVpenelope
p2111
F1
sVrosse
p2112
F1
sVforewarn
p2113
F1
sVwidower
p2114
F1
sVhandsom,
p2115
F2
sVtartary,
p2116
F2
sVwit,
p2117
F1
sVbegged
p2118
F5
sVcertain,
p2119
F1
sVmorning,
p2120
F4
sVyour
p2121
F93
sVbattles,
p2122
F1
sVbelief.
p2123
F1
sVgrates
p2124
F1
sVappeared,
p2125
F1
sVher
p2126
F223
sVremoving
p2127
F1
sVstrictly
p2128
F1
sVthere
p2129
F42
sVheaven.'
p2130
F2
sVdisposed
p2131
F3
sVwithal,
p2132
F2
sVwidower,
p2133
F1
sVstrict
p2134
F1
sVhill
p2135
F1
sVson?'
p2136
F1
sVlow
p2137
F2
sVsealed
p2138
F1
sVdesigns,
p2139
F1
sVamends;
p2140
F1
sVrecovered;
p2141
F1
sVanother;
p2142
F1
sVyou.
p2143
F4
sVdeparted,
p2144
F2
sVyou,
p2145
F24
sVcomplete
p2146
F5
sVblessings,
p2147
F1
sVresentments,
p2148
F1
sVjudging
p2149
F1
sVclothes,
p2150
F2
sVamongst
p2151
F8
sVyou?
p2152
F3
sVilluminates
p2153
F1
sVyou;
p2154
F12
sVyou:
p2155
F7
sVbeggars
p2156
F1
sVanother,
p2157
F2
sVcottage
p2158
F2
sVcatholick
p2159
F1
sVstirring.
p2160
F1
sVtrying
p2161
F2
sVwith
p2162
F234
sVhandsome
p2163
F3
sVdistinction;
p2164
F1
sVoctober
p2165
F1
sVare,
p2166
F3
sVlawfully
p2167
F1
sVencreased,
p2168
F2
sVfate,
p2169
F2
sVsadness
p2170
F1
sVscorning
p2171
F1
sVvirtuous,
p2172
F2
sVdistinction,
p2173
F1
sVmountains;
p2174
F1
sVhe,
p2175
F37
sVcoif;
p2176
F1
sVare:
p2177
F1
sVagree
p2178
F1
sVaffection
p2179
F4
sVgone
p2180
F4
sVknavish
p2181
F1
sVasking
p2182
F1
sVcertain
p2183
F1
sVhas,
p2184
F2
sVdescribe
p2185
F1
sVam
p2186
F31
sVdeep
p2187
F5
sVan
p2188
F55
sVas
p2189
F89
sVenable
p2190
F1
sVat
p2191
F148
sVmidwife
p2192
F1
sVtrickled
p2193
F1
sVwatched
p2194
F2
sVdeed
p2195
F1
sVtremble
p2196
F1
sVfill
p2197
F1
sVtedious
p2198
F1
sVagain
p2199
F9
sVnobly,
p2200
F2
sVtransport,
p2201
F3
sVsuiting:
p2202
F1
sVsick;
p2203
F1
sVdoes,
p2204
F1
sVgreen
p2205
F2
sVrepent
p2206
F3
sVthither
p2207
F7
sVroses
p2208
F2
sVfear,
p2209
F2
sVnoblemen
p2210
F1
sVtransport:
p2211
F1
sVyou
p2212
F192
sVembraces,
p2213
F3
sVoffered
p2214
F5
sVpresenting
p2215
F2
sVpoor
p2216
F13
sVdragoons:
p2217
F1
sVwounded
p2218
F1
sVspeed,
p2219
F1
sVeye-strings
p2220
F1
sVwalk.
p2221
F2
sVaccosted
p2222
F1
sVoh!
p2223
F3
sVbeggar's
p2224
F1
sVremembrance:
p2225
F1
sVovertook,
p2226
F1
sVimplored
p2227
F1
sVconfessed
p2228
F1
sVunbound
p2229
F1
sVwalk:
p2230
F1
sVcastle,
p2231
F3
sVbuilding
p2232
F1
sVhonestly.
p2233
F1
sVwife
p2234
F10
sVevening,
p2235
F5
sVcasts
p2236
F1
sVintelligence.
p2237
F1
sVrose,
p2238
F2
sVsummer-house,
p2239
F2
sVperish
p2240
F2
sVmast
p2241
F1
sVdoubted
p2242
F1
sVembracing
p2243
F4
sVrose:
p2244
F1
sVresolution
p2245
F2
sVat,
p2246
F2
sVhungary,
p2247
F1
sVboldest,
p2248
F1
sVall
p2249
F129
sVcurate
p2250
F1
sVforget
p2251
F2
sVconsciences
p2252
F1
sVtarry
p2253
F1
sVson,
p2254
F12
sVsouls.'
p2255
F1
sVimportune
p2256
F3
sVmonth
p2257
F3
sVbravest
p2258
F1
sVexecuting
p2259
F1
sVarguments,
p2260
F1
sVkinsman's
p2261
F2
sVwexford
p2262
F1
sVmore,
p2263
F6
sVfollow
p2264
F2
sVson:
p2265
F1
sVson;
p2266
F1
sVreligious
p2267
F1
sVchildren
p2268
F1
sVcauses
p2269
F1
sVprecipice,
p2270
F1
sVdreadful
p2271
F6
sVpreserves
p2272
F1
sVapartment
p2273
F2
sVduty,
p2274
F1
sVpledged
p2275
F1
sVday,
p2276
F6
sVopportunities
p2277
F5
sVbraided,
p2278
F1
sVto
p2279
F878
sVregiment,
p2280
F2
sVpreserved
p2281
F3
sVmother,
p2282
F10
sVhealth
p2283
F1
sVmother.
p2284
F2
sVparliament,
p2285
F1
sVflowed
p2286
F1
sVsound
p2287
F2
sVbelonging
p2288
F1
sVwoman
p2289
F5
sVreturned
p2290
F11
sVresided,
p2291
F1
sVsitting
p2292
F3
sVvery
p2293
F32
sVtravelling,
p2294
F1
sVcavaliers,
p2295
F1
sVwearied
p2296
F1
sVsouls
p2297
F2
sVseal,
p2298
F1
sVsons
p2299
F1
sVconscience,
p2300
F1
sVsecurely
p2301
F1
sVtreating
p2302
F1
sVsnapsacks;
p2303
F1
sVheaven
p2304
F5
sV17th
p2305
F1
sVshould,
p2306
F1
sVtransported,
p2307
F1
sVjoined
p2308
F3
sVlarge
p2309
F2
sVweak,
p2310
F6
sVundone
p2311
F1
sVsmall
p2312
F7
sVinvain
p2313
F1
sVvanquish
p2314
F1
sVi'll
p2315
F6
sVomit
p2316
F1
sVeducated,
p2317
F1
sVanswer;
p2318
F2
sVrecovered,
p2319
F1
sVrefitted
p2320
F1
sVpast
p2321
F6
sVanswer,
p2322
F2
sVcrime;
p2323
F1
sVdesign
p2324
F5
sVhonourable
p2325
F2
sVhas;
p2326
F1
sVourselves.
p2327
F1
sVdancing,
p2328
F1
sVdestitute
p2329
F3
sVconscience
p2330
F1
sVfisher-boat
p2331
F1
sVwhat
p2332
F54
sVhim:
p2333
F2
sVhim;
p2334
F6
sVtown.
p2335
F1
sVsnowed
p2336
F1
sVsun
p2337
F1
sVsum
p2338
F6
sVspread,
p2339
F1
sVhim.
p2340
F9
sVprevailed
p2341
F1
sVhim,
p2342
F30
sVlearned
p2343
F3
sVapply
p2344
F1
sVmethod
p2345
F1
sVdaily
p2346
F1
sVcreature,
p2347
F1
sVhappy.'
p2348
F1
sVcreature.
p2349
F1
sVfull
p2350
F5
sVchristian
p2351
F1
sVcrowns:
p2352
F1
sVexamined;
p2353
F1
sVenabled
p2354
F1
sVpromising
p2355
F2
sVforgive
p2356
F3
sVhours
p2357
F5
sVlived,
p2358
F1
sV"shew
p2359
F1
sVdangers.
p2360
F1
sVelsewhere:
p2361
F1
sVrifling,
p2362
F1
sVconcluding
p2363
F1
sV'yes,
p2364
F1
sVmother-in-law,
p2365
F1
sVstrong
p2366
F2
sVlived.
p2367
F1
sVagreeable?'
p2368
F1
sVsearch
p2369
F7
sVconsumption,
p2370
F2
sVcompliance
p2371
F1
sVbestow
p2372
F1
sVyourself,
p2373
F2
sVpublished
p2374
F2
sVreal
p2375
F1
sVadieu.
p2376
F1
sVsweetness
p2377
F1
sVassistants,
p2378
F1
sVfollowed
p2379
F4
sVghost?
p2380
F2
sVfamily
p2381
F6
sVperpetuate
p2382
F1
sVstory:
p2383
F1
sVimagine
p2384
F3
sVknow:
p2385
F1
sVask
p2386
F6
sVregiment
p2387
F2
sVaimed
p2388
F1
sVparties.
p2389
F1
sVbright,
p2390
F1
sVbeheld
p2391
F1
sVsister's
p2392
F3
sVarmed
p2393
F2
sV'were
p2394
F1
sVreadily
p2395
F1
sVlady,
p2396
F16
sVfestival.
p2397
F1
sVtakes
p2398
F1
sVwiped
p2399
F1
sVopportunity.'
p2400
F1
sVtwo
p2401
F37
sVmisery:
p2402
F1
sVmisery;
p2403
F1
sVapprehend
p2404
F1
sVreap?
p2405
F1
sVlady;
p2406
F1
sVweariness
p2407
F1
sVtaken
p2408
F13
sVguard:
p2409
F2
sVmore
p2410
F36
sVhorses
p2411
F8
sVwretched
p2412
F3
sVdoor
p2413
F6
sVlinen;
p2414
F1
sVstrange
p2415
F4
sVthus
p2416
F15
sVcompany
p2417
F7
sVdiscovered,
p2418
F6
sVvirgin,
p2419
F2
sVvirgin-
p2420
F1
sVmarriage,
p2421
F4
sVapprehensions
p2422
F1
sVbroke
p2423
F1
sVparticular
p2424
F1
sVknown
p2425
F5
sV'press
p2426
F1
sVglad
p2427
F5
sVcunning
p2428
F2
sVtown
p2429
F3
sVrespected
p2430
F2
sVbritons,
p2431
F1
sVquestions,
p2432
F3
sVhour
p2433
F5
sVabroad;
p2434
F2
sVhorses;
p2435
F1
sVhorses:
p2436
F1
sVoffended
p2437
F1
sVremain
p2438
F1
sVbirth,
p2439
F1
sVnine
p2440
F1
sVlearn
p2441
F2
sVknocked
p2442
F1
sVnothing,
p2443
F1
sVhorses.
p2444
F1
sVbeautiful
p2445
F2
sVeloquence
p2446
F2
sVdisgrace.
p2447
F1
sVbravely
p2448
F1
sVdangerously
p2449
F1
sVwine:
p2450
F1
sVlibertines
p2451
F1
sVdiscovery.'
p2452
F1
sVshare
p2453
F2
sVaccept
p2454
F3
sVstranger.
p2455
F1
sVtreatment,
p2456
F1
sVfiercely
p2457
F1
sVprotects
p2458
F1
sVhours,
p2459
F2
sVpurchased
p2460
F3
sVsense
p2461
F3
sVwished
p2462
F3
sVdrest
p2463
F1
sVrefreshed,
p2464
F2
sVwind.
p2465
F2
sVe'er
p2466
F2
sVinformation
p2467
F4
sVcourt
p2468
F1
sVbread.
p2469
F1
sVrather
p2470
F5
sVcomfort
p2471
F2
sVconducted
p2472
F2
sVcolonel,
p2473
F1
sVmagdelaine
p2474
F1
sVaccoutrements,
p2475
F1
sVeat,
p2476
F3
sVfamily's
p2477
F1
sVsacred
p2478
F1
sVoppose
p2479
F1
sVheadstrong
p2480
F1
sVmusick
p2481
F1
sVestates.
p2482
F1
sVtumbled
p2483
F1
sVnever.
p2484
F1
sVtruth.'
p2485
F1
sVdislike:
p2486
F1
sVcharms
p2487
F1
sVprudence
p2488
F1
sVracking
p2489
F1
sVsparkled,
p2490
F1
sVcourts:
p2491
F1
sVstate,
p2492
F1
sVconveniences
p2493
F1
sVlanguished
p2494
F1
sVcoming
p2495
F16
sVlibertine,
p2496
F1
sVbred,
p2497
F2
sVconsenting
p2498
F1
sVfree:
p2499
F1
sVa
F397
sVcontrived
p2500
F4
sVrefuse
p2501
F5
sVobstinately
p2502
F1
sVcount's,
p2503
F1
sVbrown,
p2504
F1
sVcrowded
p2505
F1
sVout:
p2506
F1
sVshady
p2507
F1
sVdeparture
p2508
F2
sV'what
p2509
F1
sVsincerity,
p2510
F1
sVact,
p2511
F1
sVdread
p2512
F1
sVusurped
p2513
F1
sVpleasure
p2514
F4
sVcalm,
p2515
F2
sVplaying
p2516
F1
sVthat's
p2517
F1
sVarmy,
p2518
F4
sVtorn,
p2519
F1
sVadorned
p2520
F1
sVwould,
p2521
F5
sVhighwaymen.
p2522
F1
sVhelp
p2523
F8
sVprejudice:
p2524
F1
sVdetained
p2525
F1
sVgrandfather,
p2526
F1
sVsoon
p2527
F23
sVcross
p2528
F1
sVheld
p2529
F5
sVthrough
p2530
F3
sVsigns
p2531
F1
sVlooks,
p2532
F2
sVsuffer
p2533
F1
sVits
p2534
F5
sVport,
p2535
F1
sVsurprized
p2536
F6
sVrender
p2537
F2
sVpray
p2538
F4
sVrelieved,
p2539
F1
sVreluctance
p2540
F1
sVbosom
p2541
F1
sVfair,
p2542
F3
sVlate
p2543
F1
sVforeigners.
p2544
F1
sVabsence
p2545
F1
sVtruth,
p2546
F3
sVport;
p2547
F1
sVnephew,
p2548
F1
sVmight
p2549
F7
sVjustly
p2550
F1
sValready;
p2551
F1
sVit.
p2552
F2
sVit,
p2553
F13
sVevening
p2554
F7
sVreturn
p2555
F18
sVgenerously
p2556
F2
sVhandsomely,
p2557
F1
sVfood
p2558
F5
sVpropose
p2559
F1
sVtrading;
p2560
F1
sVye
p2561
F1
sVfaltered,
p2562
F1
sVreflected
p2563
F1
sVmankind,
p2564
F1
sVto;
p2565
F1
sVbetrayed,
p2566
F1
sVparty
p2567
F1
sVprejudiced
p2568
F1
sVpassage,
p2569
F2
sVstepped
p2570
F1
sVslighted
p2571
F1
sVgreat,
p2572
F2
sVmystery
p2573
F1
sVeasily
p2574
F1
sVhereafter
p2575
F1
sVimprisoned
p2576
F1
sVmerchandize.
p2577
F2
sValways
p2578
F6
sVjudgments
p2579
F1
sVall,
p2580
F4
sVjames,
p2581
F1
sVmessieurs,
p2582
F1
sVme?'
p2583
F1
sVforce,
p2584
F3
sVstopped
p2585
F2
sVtwice,
p2586
F1
sVfound
p2587
F35
sVtragick
p2588
F1
sVpure,
p2589
F1
sVfriendship
p2590
F1
sVhelp,
p2591
F2
sVexquisite
p2592
F1
sVharm
p2593
F1
sVcompassionate
p2594
F1
sVengland
p2595
F5
sVawoke
p2596
F1
sVczar,
p2597
F2
sVparts,
p2598
F2
sVhouse
p2599
F10
sVhard
p2600
F4
sVhouse.
p2601
F2
sVidea
p2602
F3
sVhouse,
p2603
F14
sVgrave:
p2604
F1
sVengaging
p2605
F1
sVsurprize
p2606
F3
sVrise;
p2607
F1
sVcountrymen
p2608
F1
sVexpect
p2609
F2
sVlanthorn
p2610
F1
sVhouse;
p2611
F2
sVconcluded,
p2612
F1
sVreally
p2613
F1
sVmrs.
p2614
F6
sVrepast,
p2615
F1
sVdivide
p2616
F2
sVpraise
p2617
F1
sVlength,
p2618
F1
sVsince
p2619
F26
sVunknown
p2620
F1
sVinferior
p2621
F1
sVadmired
p2622
F1
sVundoing.
p2623
F1
sVhearken
p2624
F2
sVflame
p2625
F1
sVget
p2626
F8
sVgardener
p2627
F1
sVhenceforward
p2628
F1
sVdrink
p2629
F2
sVblue,
p2630
F1
sVbelinda's
p2631
F8
sVcircumstance
p2632
F2
sVpomatum
p2633
F1
sVhorse
p2634
F2
sVpleasant
p2635
F2
sVdifficulty
p2636
F3
sVreason
p2637
F8
sVbase
p2638
F3
sVrash,
p2639
F1
sVput
p2640
F14
sVbeginning
p2641
F1
sVscene;
p2642
F1
sVconquered;
p2643
F1
sVowners
p2644
F1
sVretained
p2645
F1
sVmerrily,
p2646
F1
sVthoughts,
p2647
F1
sVguests,
p2648
F1
sVintegrity,
p2649
F1
sVuncle
p2650
F3
sVfrier
p2651
F1
sVexpecting
p2652
F1
sVtrembling,
p2653
F1
sVjoy."
p2654
F1
sVconsequence
p2655
F2
sVblack,
p2656
F1
sVcastle
p2657
F1
sVparted;
p2658
F2
sVlover,
p2659
F2
sVdear,
p2660
F2
sVharpers
p2661
F1
sVperished
p2662
F1
sVasunder.
p2663
F1
sVstir,
p2664
F1
sVmajor
p2665
F1
sVgazed
p2666
F1
sVseeming
p2667
F1
sVloved,
p2668
F5
sVprevent
p2669
F3
sVrelate
p2670
F1
sVtreasure,
p2671
F1
sVappear,
p2672
F1
sVloved:
p2673
F1
sVloved;
p2674
F1
sVinterrupted,
p2675
F2
sVtalked
p2676
F2
sVdone
p2677
F6
sVembraced
p2678
F7
sVminutes.
p2679
F1
sVsafe,
p2680
F1
sVmist
p2681
F1
sVmiss
p2682
F2
sVriding
p2683
F1
sVregret
p2684
F1
sVstory
p2685
F11
sVcomply,
p2686
F1
sVindulgent
p2687
F1
sVbenedict
p2688
F3
sVtwenty
p2689
F5
sVst.
p2690
F13
sVfamily,
p2691
F6
sVentreated
p2692
F1
sVleast
p2693
F1
sVnobly
p2694
F2
sVthoughts:
p2695
F1
sVre-assume
p2696
F1
sVcomply;
p2697
F1
sVpassed
p2698
F4
sVhindered
p2699
F1
sVmaster
p2700
F2
sVhundred
p2701
F3
sVfamily;
p2702
F1
sVsuppose,
p2703
F2
sVwept,
p2704
F1
sVtemptations
p2705
F3
sVimmediately:
p2706
F1
sVvision.
p2707
F1
sVstorm
p2708
F3
sVlonging
p2709
F1
sVfrom,
p2710
F1
sVexcels
p2711
F1
sVmirth
p2712
F1
sVown;
p2713
F1
sVpart
p2714
F15
sVgrieve
p2715
F1
sVgentlmen
p2716
F1
sVnumerous,
p2717
F1
sVencrease,
p2718
F1
sVbelieve
p2719
F12
sVstairs
p2720
F3
sVgrace
p2721
F2
sVinformation,
p2722
F1
sVking
p2723
F12
sVkind
p2724
F2
sVgrew
p2725
F6
sVkindly
p2726
F2
sVmiseries
p2727
F3
sVbride
p2728
F1
sVdetermined
p2729
F3
sVmarriage
p2730
F2
sVmerciless
p2731
F1
sVtreated
p2732
F3
sVdeclare
p2733
F3
sVpain:
p2734
F1
sVservice.
p2735
F1
sVservice,
p2736
F6
sVstrengthen
p2737
F2
sVpart,
p2738
F4
sVexperience,
p2739
F1
sVfraud;
p2740
F1
sVservice;
p2741
F1
sVservice:
p2742
F1
sVwelcome:
p2743
F1
sVcaress
p2744
F1
sVcleaned
p2745
F2
sVdisgustful
p2746
F1
sVadmire
p2747
F1
sVinhabitants;
p2748
F1
sVmein,
p2749
F1
sVdoubtful,
p2750
F1
sVracks,
p2751
F1
sVnoon,
p2752
F2
sVdancing
p2753
F1
sVself
p2754
F5
sVcave
p2755
F1
sVscotland
p2756
F1
sVhistories
p2757
F1
sVlandlord's
p2758
F1
sValso
p2759
F2
sVconcealed,
p2760
F1
sVhour's
p2761
F1
sVfinding
p2762
F4
sVpopulous
p2763
F1
sVme.'
p2764
F4
sVmaloes,
p2765
F7
sVangel's
p2766
F1
sVprovince
p2767
F1
sVtowards
p2768
F8
sVage:
p2769
F1
sVretired
p2770
F4
sVmonastery
p2771
F2
sVreach
p2772
F3
sVconspicuously
p2773
F1
sVage.
p2774
F1
sVage,
p2775
F3
sVfight,
p2776
F1
sVthis!
p2777
F1
sVinterrupting
p2778
F1
sVnothing
p2779
F26
sVfaint
p2780
F1
sVextremely
p2781
F3
sVstands
p2782
F1
sVsouthampton
p2783
F2
sVfaithless
p2784
F1
sVabsence,
p2785
F2
sVagain.'
p2786
F2
sVseize
p2787
F1
sVkinsman,
p2788
F3
sVclear
p2789
F1
sVsometimes
p2790
F2
sVbills
p2791
F1
sVher's
p2792
F1
sVparting,
p2793
F1
sVbodies
p2794
F1
sVdiverted;
p2795
F1
sVbarren
p2796
F2
sVparting:
p2797
F1
sVsilver,
p2798
F1
sVconsisted
p2799
F1
sVnight,
p2800
F9
sVdragged
p2801
F1
sVlying
p2802
F3
sVdissemble
p2803
F1
sVcelebrated
p2804
F1
sVsomewhat
p2805
F1
sVgold
p2806
F5
sVsummer
p2807
F2
sVfond
p2808
F4
sVfeel,
p2809
F1
sVtree,
p2810
F1
sV'am
p2811
F1
sVdesolate
p2812
F2
sVrelation
p2813
F3
sVdemanded.
p2814
F1
sVforward,
p2815
F1
sVexcessive
p2816
F1
sVfine
p2817
F4
sVfind
p2818
F15
sVuniversity;
p2819
F1
sVfaces
p2820
F1
sVwith,
p2821
F3
sVwith.
p2822
F1
sVsecuring
p2823
F1
sV'he
p2824
F1
sVconvinced
p2825
F1
sVprovisions:
p2826
F1
sVtents,
p2827
F1
sVunhappy
p2828
F2
sVdisconsolate.
p2829
F1
sVmoments
p2830
F1
sVwife?
p2831
F1
sVfarewel.'
p2832
F1
sVbetray
p2833
F1
sVpretty
p2834
F1
sVindifference
p2835
F1
sVout.
p2836
F1
sVhis
p2837
F249
sVheaven,
p2838
F5
sValive!
p2839
F2
sVmein
p2840
F1
sVfrock,
p2841
F1
sVexpedient:
p2842
F1
sVexpress
p2843
F1
sVsensible
p2844
F3
sVjourney;
p2845
F1
sVhid
p2846
F1
sVbreast
p2847
F1
sVcommission,
p2848
F1
sVreply
p2849
F1
sVpistols
p2850
F1
sVduring
p2851
F2
sVsilk
p2852
F1
sVhim
p2853
F103
sV'come
p2854
F1
sVenemy
p2855
F1
sVinsensibly
p2856
F1
sVresolve
p2857
F1
sVpleasures
p2858
F1
sVchiefly
p2859
F1
sVviolent
p2860
F1
sVremove
p2861
F1
sVhealth,
p2862
F1
sVcatched
p2863
F1
sVus:
p2864
F3
sVforbear,
p2865
F1
sVobscure
p2866
F2
sVfield,
p2867
F1
sVinsensible
p2868
F1
sVwrongfully
p2869
F1
sVdrink,
p2870
F2
sVset
p2871
F22
sVart
p2872
F1
sVthrowing
p2873
F2
sVtree
p2874
F2
sVaccompanied
p2875
F1
sVmelancholy
p2876
F1
sVsex
p2877
F1
sVsee
p2878
F22
sVdefense
p2879
F1
sVwounds
p2880
F1
sVare
p2881
F57
sVtender
p2882
F9
sVchambers
p2883
F1
sVskill
p2884
F1
sVdeclined
p2885
F1
sVfeared
p2886
F3
sVfind,
p2887
F1
sVswansey
p2888
F3
sVspirits
p2889
F1
sVvisiting
p2890
F1
sVpictures
p2891
F1
sVhungry,
p2892
F1
sVplease
p2893
F3
sVvile,
p2894
F1
sVjewels,
p2895
F1
sVyears,
p2896
F4
sVhappiness
p2897
F2
sVguardian
p2898
F1
sV"yes,
p2899
F1
sVimpertinent,
p2900
F1
sVtho'
p2901
F18
sVliberty,
p2902
F3
sVafter,
p2903
F2
sVlargess,
p2904
F1
sVdays:
p2905
F1
sVdeserving
p2906
F1
sVchamber,
p2907
F9
sVhappiness.
p2908
F1
sVsold
p2909
F1
sVdeliverance;
p2910
F1
sVwonder.
p2911
F1
sVearth.'
p2912
F1
sVgriefs,
p2913
F1
sVchamber:
p2914
F1
sVchamber;
p2915
F2
sVdays,
p2916
F7
sVdeath
p2917
F8
sVlifetime.
p2918
F1
sVafter:
p2919
F1
sVafter;
p2920
F1
sVsurprized,
p2921
F3
sVsurprized.
p2922
F1
sVintire
p2923
F1
sVfondness.
p2924
F1
sVboth
p2925
F17
sVlame,
p2926
F1
sVlast
p2927
F23
sVriver-
p2928
F1
sVsecrets
p2929
F1
sVsons,
p2930
F1
sV'ladies,
p2931
F1
sVforeign
p2932
F1
sVpinioned
p2933
F1
sVadored
p2934
F2
sVroman
p2935
F1
sVbecame
p2936
F1
sVweary,
p2937
F1
sVpicture,
p2938
F1
sVrose
p2939
F1
sVunhappy."
p2940
F1
sVwhole
p2941
F6
sVshoes,
p2942
F1
sVfalse;
p2943
F1
sVreside
p2944
F1
sVliked
p2945
F3
sVhost,
p2946
F1
sVtown,
p2947
F2
sVpleasures,
p2948
F2
sVpoint
p2949
F2
sVreasons
p2950
F2
sVsweet
p2951
F3
sVbed?'
p2952
F1
sVlive,
p2953
F3
sVfix
p2954
F1
sVtown;
p2955
F1
sVerrors;
p2956
F1
sVmagnificently,
p2957
F3
sVvillage
p2958
F5
sVvessel
p2959
F7
sVraw
p2960
F2
sVformed:
p2961
F1
sVlive;
p2962
F1
sVtemple,
p2963
F1
sVthere,
p2964
F9
sVthere.
p2965
F3
sVraise
p2966
F2
sV'look
p2967
F1
sVmarch,
p2968
F1
sVdamp
p2969
F1
sVexert
p2970
F1
sVlust.
p2971
F1
sVwhom
p2972
F35
sVsecret
p2973
F1
sVextravagant
p2974
F1
sVcharm;
p2975
F1
sVdispleasure,
p2976
F1
sVconduct,
p2977
F1
sVslender,
p2978
F1
sVmeeting
p2979
F1
sVfled,
p2980
F1
sVempty
p2981
F1
sVtreatment
p2982
F3
sVfirm
p2983
F1
sVentertaining.
p2984
F1
sVlived
p2985
F12
sVflight
p2986
F1
sVmanner;
p2987
F2
sVgay
p2988
F2
sVpassengers
p2989
F1
sVrooms,
p2990
F1
sVinstant,
p2991
F1
sVelse
p2992
F1
sVmanner.
p2993
F4
sVclergymen
p2994
F1
sVmanner,
p2995
F2
sVlives
p2996
F4
sVbetter,
p2997
F1
sVbidding
p2998
F1
sVreason,
p2999
F2
sVresisted
p3000
F1
sVtowns
p3001
F1
sVpresented
p3002
F2
sVobstinacy:
p3003
F1
sVgentleman's
p3004
F2
sVconfess,
p3005
F1
sVutmost
p3006
F1
sVlook
p3007
F7
sVgaiety,
p3008
F1
sVwell,
p3009
F1
sVbeauty,
p3010
F3
sVgovernor
p3011
F3
sVjoyful
p3012
F1
sVwho,
p3013
F5
sVwhile
p3014
F2
sVoaken
p3015
F1
sVsearch,
p3016
F1
sVpressed
p3017
F3
sVdelight:
p3018
F1
sVkissing
p3019
F1
sVcloak
p3020
F1
sVdesigning
p3021
F2
sVincognito
p3022
F1
sVgrandvil,
p3023
F1
sVwhere,
p3024
F1
sVhoping
p3025
F5
sVvirtue;
p3026
F1
sVwept.
p3027
F1
sVwherever
p3028
F1
sVowen
p3029
F1
sVrepeating
p3030
F1
sVhusband,
p3031
F4
sVin.'
p3032
F1
sVflanders,
p3033
F1
sVlodged
p3034
F5
sVready
p3035
F10
sVsight;
p3036
F1
sVslavery,
p3037
F1
sVhusband?
p3038
F1
sVcame.
p3039
F1
sVaway.
p3040
F1
sVinn-keeper,
p3041
F1
sVprayers,
p3042
F1
sVclear-
p3043
F1
sVgrant
p3044
F4
sVfeasting,
p3045
F1
sVa---rs,
p3046
F1
sVcharges.
p3047
F1
sVcame,
p3048
F6
sVburdensome
p3049
F1
sVroom.
p3050
F1
sVdiscourse
p3051
F3
sVprayers;
p3052
F1
sVaway;
p3053
F1
sVesteemed
p3054
F1
sVadvise
p3055
F1
sVimpious
p3056
F1
sVshal
p3057
F1
sVhigher
p3058
F1
sVgrandvill
p3059
F1
sVwindow;
p3060
F1
sVused
p3061
F5
sVtower
p3062
F1
sVaffairs
p3063
F3
sVcountry-seat.
p3064
F1
sVread,
p3065
F1
sVkill
p3066
F4
sVsolicited
p3067
F1
sVmoment
p3068
F4
sVnights
p3069
F1
sVarrived
p3070
F16
sVpurpose
p3071
F2
sVnecessity
p3072
F1
sVopinion
p3073
F1
sVgrease,
p3074
F1
sVunkind.'
p3075
F1
sVconsulted
p3076
F2
sVchanged,
p3077
F1
sVdaughter,
p3078
F6
sVexpences.
p3079
F1
sVtask
p3080
F1
sVinterposed,
p3081
F1
sVsoul?
p3082
F1
sV'alas!
p3083
F4
sVtry
p3084
F1
sVcounty
p3085
F1
sVdouble
p3086
F1
sVperson
p3087
F8
sVemployments,
p3088
F1
sVenglish,
p3089
F6
sVwithdraw
p3090
F1
sVcapuchin
p3091
F2
sVdares
p3092
F1
sVdefray
p3093
F1
sVreflection,
p3094
F1
sVknow
p3095
F18
sVmother?'
p3096
F1
sVendeavour
p3097
F1
sVto.'
p3098
F1
sVcredulity,
p3099
F1
sVwise,
p3100
F1
sVinto?
p3101
F1
sVnamed
p3102
F1
sV'now,
p3103
F4
sVnoblemen,
p3104
F1
sVshape
p3105
F1
sV'countryman,
p3106
F1
sVvain.
p3107
F1
sVresisted,
p3108
F1
sVworld
p3109
F4
sVplaces?
p3110
F1
sVlives,
p3111
F2
sVcomplain,
p3112
F1
sVland,
p3113
F3
sVprince
p3114
F1
sVmeanest
p3115
F1
sVlimbs,
p3116
F1
sVventuring.
p3117
F1
sVretirement
p3118
F2
sVmaria,
p3119
F2
sVladies.
p3120
F1
sVladies,
p3121
F5
sVdiversions
p3122
F1
sVmarrying
p3123
F1
sVconfinement.
p3124
F1
sVyield,
p3125
F1
sVshape,
p3126
F1
sVeager
p3127
F1
sVoverspread
p3128
F2
sVfollow.
p3129
F1
sVbravery
p3130
F1
sVfollow,
p3131
F1
sVremaining
p3132
F2
sVelves
p3133
F1
sVlonger,
p3134
F2
sVthee,
p3135
F2
sVadventures:
p3136
F1
sVexpressions:
p3137
F1
sVfrustrate
p3138
F1
sVbid
p3139
F4
sVadvocate
p3140
F2
sVaffection:
p3141
F1
sVwives
p3142
F1
sVadventures.
p3143
F1
sVstockholm,
p3144
F1
sVtartarian
p3145
F1
sVlonger:
p3146
F1
sVwish;
p3147
F1
sVdistance,
p3148
F2
sVhunger!
p3149
F1
sVsubmission,
p3150
F1
sVrelations.
p3151
F1
sVkings;
p3152
F1
sVclay
p3153
F1
sVmanifest
p3154
F1
sVthroat,
p3155
F1
sVrelations,
p3156
F1
sVact.'
p3157
F1
sVundiscovered:
p3158
F1
sVpetticoat,
p3159
F2
sVglandore's
p3160
F2
sVnatives
p3161
F1
sVwolf,
p3162
F1
sVtable.
p3163
F1
sVtable,
p3164
F2
sVunadvised,
p3165
F1
sVlong;
p3166
F2
sVoften
p3167
F6
sVcontent,
p3168
F1
sVabsolutely
p3169
F1
sVobliged
p3170
F11
sVfathers
p3171
F1
sVabhorred
p3172
F1
sVsome
p3173
F72
sVback
p3174
F12
sVmother-in-law
p3175
F1
sVvirtue.
p3176
F1
sVunderstood
p3177
F1
sVvirtue,
p3178
F3
sVexperienced
p3179
F1
sVmighty
p3180
F5
sV"we
p3181
F1
sVsight
p3182
F8
sVyour's;
p3183
F1
sVadvising
p3184
F1
sVcandle
p3185
F1
sVpale
p3186
F2
sVourselves
p3187
F3
sVdelivered
p3188
F6
sVjust!
p3189
F1
sVwomen,
p3190
F5
sVdaughter:
p3191
F1
sVgood:
p3192
F1
sVthough
p3193
F9
sVfourteen,
p3194
F1
sVper
p3195
F1
sVjust,
p3196
F1
sVadventures;
p3197
F1
sVreligion
p3198
F3
sVdischarge
p3199
F1
sVvault,
p3200
F1
sVclosely
p3201
F1
sVcentries
p3202
F1
sVson's
p3203
F2
sVbe
p3204
F123
sVrun
p3205
F3
sVpresence,
p3206
F2
sVbread,
p3207
F2
sVvirtues
p3208
F1
sVsigh,
p3209
F1
sVrefused
p3210
F4
sVfee
p3211
F1
sVfather,
p3212
F9
sVisabella,
p3213
F10
sVrelating
p3214
F1
sVvalley,
p3215
F1
sVabroad
p3216
F1
sVpresence;
p3217
F1
sVfeigning
p3218
F1
sVgoods
p3219
F1
sVlisbia
p3220
F4
sVdeserved
p3221
F1
sVmost
p3222
F28
sVbenumbed
p3223
F1
sV'farewel,
p3224
F2
sVboxes,
p3225
F1
sVleast,
p3226
F1
sVprey,
p3227
F1
sVhired
p3228
F8
sVsurprising;
p3229
F1
sVhence.'
p3230
F1
sVcharm
p3231
F1
sVconsequently
p3232
F1
sVsilence
p3233
F2
sVcunning,
p3234
F1
sVasswage
p3235
F1
sVrepair
p3236
F2
sVletter
p3237
F3
sVhope,
p3238
F4
sVinto
p3239
F60
sVwithin
p3240
F3
sVshunned
p3241
F1
sVboy,
p3242
F2
sVfisherman's.
p3243
F1
sVpast:
p3244
F1
sVhope?
p3245
F1
sVextraordinary
p3246
F1
sVfrance
p3247
F22
sVwalks.
p3248
F1
sVsorrows,
p3249
F1
sVcaressed
p3250
F2
sVquestions;
p3251
F1
sVimaginations
p3252
F1
sVclothes;
p3253
F1
sVtoropierz,
p3254
F1
sVlong
p3255
F17
sV.'
p3256
F8
sVinfected
p3257
F1
sVreward
p3258
F1
sVniece,
p3259
F2
sV:
F13
sVconfessing
p3260
F1
sVhimself
p3261
F10
sVimpudent
p3262
F1
sVconstancy
p3263
F1
sVkeeping,
p3264
F1
sVscuffle
p3265
F1
sVvenison-pasty,
p3266
F1
sVbarcelona,
p3267
F1
sVisabella's
p3268
F1
sVforbidding
p3269
F1
sVcoldest
p3270
F1
sVsheets,
p3271
F1
sVconsiderable
p3272
F3
sVreigned.
p3273
F1
sVmiracle,
p3274
F1
sVfled.
p3275
F1
sVcharmed
p3276
F2
sVamazed.
p3277
F1
sVhusband's,
p3278
F1
sVup
p3279
F29
sVus
p3280
F59
sVsustenance,
p3281
F1
sVprinciples,
p3282
F1
sVrewarded,
p3283
F1
sVfrequented,
p3284
F1
sVsweden,
p3285
F6
sVunexpected
p3286
F1
sVnecessity,
p3287
F1
sVcalled
p3288
F5
sVburial,
p3289
F1
sVsaluted
p3290
F1
sVnight;
p3291
F1
sVordered
p3292
F1
sVbreast;
p3293
F1
sVbind
p3294
F1
sVraging
p3295
F1
sVourselves.'
p3296
F1
sVflush
p3297
F1
sVliving?
p3298
F1
sVlost,
p3299
F1
sVfrance,
p3300
F20
sVlye
p3301
F2
sVbreast,
p3302
F1
sVdistracted;
p3303
F1
sVnecks
p3304
F1
sVblushed:
p3305
F1
sVnight?
p3306
F1
sVprevail
p3307
F3
sVreligion's
p3308
F1
sVmaintenon's
p3309
F1
sVtransports,
p3310
F1
sVthemselves;
p3311
F2
sVknowledge,
p3312
F1
sVinfamy
p3313
F1
sVevils
p3314
F1
sVsuffer;
p3315
F1
sVfears
p3316
F1
sVdepart,
p3317
F1
sVfaculties,
p3318
F1
sVsmiling,
p3319
F1
sVagreeable.
p3320
F1
sVenquired
p3321
F2
sVagreeable,
p3322
F1
sVthemselves,
p3323
F1
sVintelligence
p3324
F2
sVremaining,
p3325
F1
sVconfine
p3326
F1
sVventured
p3327
F2
sVname,
p3328
F4
sVfaculties!
p3329
F1
sVbefore,
p3330
F6
sVdraw
p3331
F1
sVgoaler,
p3332
F4
sVo.
p3333
F2
sVoblige
p3334
F4
sVretire,
p3335
F1
sVneck,
p3336
F1
sVcomforts.'
p3337
F1
sVresign
p3338
F2
sVexpressing
p3339
F1
sVthings,
p3340
F2
sVdrag
p3341
F1
sVhabits;
p3342
F2
sVamazed:
p3343
F1
sVcharms:
p3344
F1
sVrestrained
p3345
F2
sVland
p3346
F1
sVflames,
p3347
F1
sVlead
p3348
F2
sVvice
p3349
F3
sVage
p3350
F4
sVresolving
p3351
F4
sVwalked
p3352
F3
sVadmiring
p3353
F1
sVimpatient
p3354
F2
sVback,
p3355
F4
sVneighbouring
p3356
F2
sVfitted
p3357
F1
sVdie.'
p3358
F1
sVnarrative
p3359
F2
sVignorant
p3360
F2
sVvenerable
p3361
F1
sVhaving
p3362
F37
sVonce
p3363
F6
sVsafety."
p3364
F1
sVhappy,
p3365
F5
sVhappy.
p3366
F4
sVflesh,
p3367
F2
sV'no,
p3368
F1
sVhappy;
p3369
F2
sVchancel,
p3370
F1
sVgang
p3371
F1
sVgo
p3372
F27
sVvicious
p3373
F2
sV"to
p3374
F1
sVsoul.'
p3375
F1
sVseemed
p3376
F9
sVcomfort,
p3377
F2
sVnear?
p3378
F1
sVconcerned
p3379
F2
sVyoung
p3380
F27
sVenjoined
p3381
F2
sVrejoined
p3382
F1
sVhabits,
p3383
F3
sVdislike
p3384
F1
sVcarelessly
p3385
F1
sVsent
p3386
F10
sVvirtuous
p3387
F7
sVattempts
p3388
F1
sVretire
p3389
F1
sVseized
p3390
F8
sVgarden
p3391
F3
sVtorture
p3392
F1
sVwind,
p3393
F1
sVboth,
p3394
F1
sV'now
p3395
F1
sVconfounding
p3396
F1
sVinformed)
p3397
F1
sVmore:
p3398
F2
sVmore;
p3399
F1
sVmuscovy,
p3400
F3
sVnun,
p3401
F1
sVbreak.'
p3402
F1
sVputting
p3403
F2
sVtelling
p3404
F3
sVsubservient
p3405
F1
sVcontinued
p3406
F8
sVleaped
p3407
F1
sVmemory,
p3408
F1
sVbroom,
p3409
F1
sVmarry
p3410
F4
sVshock
p3411
F1
sVlanguage.
p3412
F1
sVdamning
p3413
F1
sVirons.
p3414
F1
sVobscurely,
p3415
F1
sVbelieved,
p3416
F1
sVhumility,
p3417
F1
sVbetwixt
p3418
F1
sVgrave,
p3419
F2
sVhelp:
p3420
F1
sVleave.
p3421
F1
sVconcluded
p3422
F3
sVmethinks
p3423
F1
sVbooty
p3424
F1
sVpledge
p3425
F2
sVthence,
p3426
F3
sVother.
p3427
F1
sVsex,
p3428
F3
sVdiversion,
p3429
F1
sVdemonstrations
p3430
F1
sVdesire:
p3431
F2
sVwrung
p3432
F1
sVsin,
p3433
F2
sVenamoured
p3434
F1
sVplead
p3435
F1
sVgrowing
p3436
F1
sVpaleness
p3437
F1
sVsex:
p3438
F1
sVsex;
p3439
F2
sVodd
p3440
F4
sVthat,
p3441
F4
sVimportunities,
p3442
F1
sVpower
p3443
F4
sVundone?
p3444
F1
sVgiving
p3445
F5
sVcolonel
p3446
F2
sVintimate
p3447
F1
sVrecommendation
p3448
F1
sVall-sufficient,
p3449
F1
sVexpressed
p3450
F1
sVman's
p3451
F2
sVharmonious
p3452
F1
sVundone,
p3453
F1
sVheartily,
p3454
F1
sVlost.'
p3455
F1
sV;
F27
sVbody
p3456
F2
sValancon's,
p3457
F1
sV'unfortunate
p3458
F1
sVled
p3459
F7
sVchose
p3460
F3
sVdesires
p3461
F1
sVeffected:
p3462
F1
sVanswered.
p3463
F1
sVanswered,
p3464
F6
sVspake
p3465
F1
sVdesired
p3466
F6
sVentered,
p3467
F4
sVlet
p3468
F20
sVsink
p3469
F1
sVseparation
p3470
F1
sVfifteen
p3471
F1
sVabode,
p3472
F1
sVunbless'd?
p3473
F1
sVbottle
p3474
F1
sVgreat
p3475
F25
sVengage
p3476
F2
sVb.
p3477
F1
sVuneasy
p3478
F1
sVreceive
p3479
F9
sVpoured
p3480
F1
sVveered
p3481
F1
sVconsummated;
p3482
F1
sVextreme
p3483
F1
sVleaving
p3484
F15
sVheretick;
p3485
F1
sVheretick?
p3486
F1
sVhue
p3487
F1
sVexamining
p3488
F2
sVwie
p3489
F2
sVsat
p3490
F7
sVaddresses
p3491
F1
sVdanger
p3492
F3
sVforbid
p3493
F2
sVwin
p3494
F1
sVworthy
p3495
F3
sVapprehensive
p3496
F1
sVimprobable
p3497
F1
sVaddressed
p3498
F3
sVprivately
p3499
F1
sVlodging
p3500
F2
sVdearly,
p3501
F1
sVscandal
p3502
F1
sVninth
p3503
F2
sVii.
p3504
F1
sVintermitting
p3505
F1
sVgiven,
p3506
F1
sVstanding
p3507
F1
sVconfidence
p3508
F3
sVmaintenon,
p3509
F3
sVfrom
p3510
F96
sVagreeably
p3511
F1
sV&
F2
sVservant,
p3512
F1
sVfit,
p3513
F1
sVnext
p3514
F24
sVfew
p3515
F15
sVprevented;
p3516
F1
sVdoubt
p3517
F8
sVweeping
p3518
F3
sVagreeable
p3519
F2
sVthemselves
p3520
F6
sVpossession
p3521
F1
sVdeath-like
p3522
F1
sVsir!
p3523
F1
sVprivacy,
p3524
F1
sVresolution,
p3525
F3
sVbirthright,
p3526
F1
sVinconsiderate
p3527
F1
sVstarted
p3528
F2
sVinclined
p3529
F1
sVimportunities
p3530
F2
sVabout
p3531
F22
sVsir,
p3532
F7
sVcharming
p3533
F9
sVheartily
p3534
F1
sVcarrying
p3535
F1
sVgladly
p3536
F7
sVindiscretion,
p3537
F1
sVgoaler;
p3538
F1
sVappointed
p3539
F1
sVwomen
p3540
F5
sVhigh
p3541
F1
sVaccount
p3542
F11
sVinclinations
p3543
F2
sVsupposing
p3544
F1
sVretreated
p3545
F1
sVthis
p3546
F137
sVus.
p3547
F1
sVride
p3548
F1
sVus,
p3549
F18
sVeternity?
p3550
F1
sVchocolate,
p3551
F1
sVservants
p3552
F25
sVdrawing-room,
p3553
F2
sVus?
p3554
F2
sVmeet
p3555
F6
sVclosing
p3556
F1
sVus;
p3557
F6
sVfetch
p3558
F7
sVproof
p3559
F1
sVenfeebled
p3560
F1
sVout;
p3561
F1
sV'see
p3562
F1
sVobligation:
p3563
F1
sVarrived.
p3564
F1
sVstoln
p3565
F2
sVafflictions,
p3566
F1
sVnone:
p3567
F1
sVpieces
p3568
F1
sVescaped
p3569
F3
sVvillain
p3570
F2
sVpulling
p3571
F1
sVsomething
p3572
F8
sVsought
p3573
F4
sVwonderful
p3574
F1
sVvoice
p3575
F1
sVbuilding,
p3576
F1
sVnative
p3577
F4
sVchoice.'
p3578
F1
sVunited
p3579
F1
sVdaring
p3580
F3
sVsit
p3581
F1
sVwandered
p3582
F2
sVsix
p3583
F5
sVparlour
p3584
F2
sVking's
p3585
F3
sVfortunate
p3586
F1
sVregions
p3587
F1
sVprocured
p3588
F2
sVsattin
p3589
F2
sVsentiments
p3590
F1
sVdesire,
p3591
F1
sVnames,
p3592
F1
sVspeech,
p3593
F1
sVbowed,
p3594
F3
sValive,
p3595
F5
sVpurpose;
p3596
F1
sVattend
p3597
F8
sVsir
p3598
F2
sVlove?'
p3599
F1
sVfree,
p3600
F1
sVpeace
p3601
F3
sVtied
p3602
F4
sVempty:
p3603
F1
sVthirst,
p3604
F1
sVfatigue
p3605
F1
sVreligion,
p3606
F5
sVescape,
p3607
F4
sVties
p3608
F1
sVescape.
p3609
F1
sVforemost
p3610
F1
sVdistraction,
p3611
F1
sVprocures
p3612
F1
sVdinner;
p3613
F1
sVeight
p3614
F1
sVgone.
p3615
F1
sVpinion'd,
p3616
F1
sVgone,
p3617
F4
sVlight
p3618
F4
sVinterrupted
p3619
F4
sVor
p3620
F49
sVingaged
p3621
F1
sVgone;
p3622
F1
sVchief
p3623
F1
sVwrit
p3624
F3
sVroad
p3625
F3
sVfolly:
p3626
F1
sVdinner,
p3627
F1
sVlined
p3628
F2
sVwanted,
p3629
F1
sVwanted.
p3630
F2
sVobligation.
p3631
F1
sVtidings,
p3632
F1
sVsupplies
p3633
F1
sVaffection,
p3634
F5
sVlive.'
p3635
F1
sVready.'
p3636
F1
sVhand,
p3637
F9
sV'villains
p3638
F1
sVmove
p3639
F1
sVstripping
p3640
F1
sVconfiscated.
p3641
F1
sVproduced
p3642
F2
sVwhilst
p3643
F11
sVtimes;
p3644
F1
sVaffection;
p3645
F1
sVlooks
p3646
F3
sVmentioned
p3647
F1
sVsuiting
p3648
F2
sVdesign,
p3649
F2
sVhand;
p3650
F1
sVperfect
p3651
F1
sVsuperior
p3652
F1
sVlonely,
p3653
F1
sVthence
p3654
F6
sVworld:
p3655
F1
sVworld;
p3656
F2
sVsend
p3657
F11
sVdispose
p3658
F2
sValtered,
p3659
F1
sVgoal.
p3660
F1
sVthieves
p3661
F8
sVchoose
p3662
F2
sVmagdelaine,
p3663
F2
sVlife:
p3664
F1
sVcovered
p3665
F4
sVworld.
p3666
F1
sVmaster,
p3667
F2
sVworld,
p3668
F6
sVantient
p3669
F3
sVunfortunate:
p3670
F1
sVdesigns
p3671
F1
sVtears
p3672
F4
sVretirement;
p3673
F1
sVpangs
p3674
F1
sVprecepts,
p3675
F1
sVlook,
p3676
F1
sVsoldiers,
p3677
F1
sVhands
p3678
F8
sVrome,
p3679
F1
sVkindness
p3680
F1
sVforgotten,
p3681
F1
sVday
p3682
F24
sVcursed
p3683
F3
sVmasters
p3684
F1
sVblindfolded
p3685
F1
sVby;
p3686
F1
sVl.
p3687
F2
sVwarned
p3688
F1
sVeased
p3689
F1
sVwhither
p3690
F2
sVwretched:
p3691
F1
sVship.
p3692
F1
sVslipping
p3693
F1
sVship,
p3694
F2
sVtruth
p3695
F4
sVpersia
p3696
F1
sVtimes,
p3697
F3
sVimportunately
p3698
F1
sVwretched,
p3699
F2
sVprinces,
p3700
F1
sVspain,
p3701
F1
sVfarther;
p3702
F2
sVdoing
p3703
F2
sVunshaken
p3704
F1
sVadventure
p3705
F1
sVrelated
p3706
F7
sVwine;
p3707
F1
sVfarther,
p3708
F3
sVprinces;
p3709
F1
sVmost,
p3710
F1
sVincensed
p3711
F1
sVlate,
p3712
F1
sVour
p3713
F79
sVus.'
p3714
F1
sVwitness
p3715
F1
sVout
p3716
F29
sVgallant
p3717
F1
sValancon
p3718
F1
sVfollowing;
p3719
F1
sVtime;
p3720
F1
sVrigging
p3721
F1
sVdefend
p3722
F4
sVdisguised,
p3723
F2
sVlitter
p3724
F1
sVwholly
p3725
F1
sVtime,
p3726
F8
sVnight.'
p3727
F1
sVtime.
p3728
F2
sVthere;
p3729
F2
sVfollowing.
p3730
F1
sVbritons
p3731
F1
sVcause
p3732
F7
sVred
p3733
F2
sVdisclose
p3734
F1
sVfamilies,
p3735
F1
sVshut
p3736
F4
sVnear,
p3737
F1
sVapproached
p3738
F2
sVearly,
p3739
F1
sVhalls
p3740
F1
sVundo
p3741
F1
sVlord?
p3742
F1
sVfourteen
p3743
F2
sVcompletely
p3744
F2
sVsurely
p3745
F1
sVhazard
p3746
F1
sVphilip
p3747
F3
sV'born
p3748
F1
sVbusiness
p3749
F1
sVwexford,
p3750
F3
sVpresently
p3751
F1
sVovertake
p3752
F2
sVparish.
p3753
F1
sVprepare
p3754
F1
sV'when
p3755
F1
sVvirtues,
p3756
F2
sVfavour.
p3757
F3
sVexcessively.
p3758
F1
sVcould
p3759
F54
sVbehaviour,
p3760
F1
sVrustling
p3761
F1
sVkeep
p3762
F3
sVconversation
p3763
F3
sVlength
p3764
F10
sValighted
p3765
F1
sVmortal
p3766
F1
sVhence
p3767
F1
sVrespect.
p3768
F1
sVrespect,
p3769
F1
sVempire,
p3770
F1
sVoffending,
p3771
F1
sVimportuning
p3772
F1
sVdistracted
p3773
F2
sVobscurity
p3774
F1
sVresidence.'
p3775
F1
sVsickness,
p3776
F1
sVhazards
p3777
F1
sVharps,
p3778
F1
sVtransports
p3779
F1
sVharps.
p3780
F1
sVmother.'
p3781
F1
sVsubmit
p3782
F1
sVproposing
p3783
F1
sVdearest,
p3784
F1
sVreached
p3785
F2
sVcalled,
p3786
F1
sVreigned
p3787
F1
sVquality
p3788
F1
sVfed
p3789
F1
sVsickness;
p3790
F1
sVenough;
p3791
F1
sVtwo,
p3792
F2
sVswept
p3793
F2
sVgoaler
p3794
F2
sVgay,
p3795
F2
sVlove,
p3796
F3
sVpatient,
p3797
F1
sVrelations
p3798
F3
sVstory,
p3799
F2
sVtheir
p3800
F78
sVattack
p3801
F1
sVlifting
p3802
F3
sVenough,
p3803
F1
sVslain;
p3804
F1
sVtravelled
p3805
F2
sVperfectly
p3806
F5
sVbehaved
p3807
F1
sVfairest
p3808
F1
sVbeard
p3809
F1
sVpriests,
p3810
F1
sVboards,
p3811
F1
sVaccompany
p3812
F3
sVagonies
p3813
F2
sVpunish
p3814
F1
sVsweden's
p3815
F1
sVnobody
p3816
F1
sVelse.'
p3817
F1
sVexpiring.'
p3818
F1
sVdisguised
p3819
F1
sVreflecting
p3820
F1
sVthoughtless,
p3821
F1
sV1718,
p3822
F1
sVsmiled,
p3823
F2
sVherself
p3824
F3
sVrobbed,
p3825
F1
sVremember
p3826
F2
sVloved
p3827
F15
sVgood-humour
p3828
F1
sVupon:
p3829
F1
sVdesires.'
p3830
F1
sVbeg
p3831
F7
sVbed
p3832
F4
sVsweden
p3833
F4
sVlap,
p3834
F1
sVphysicians,
p3835
F1
sVlover
p3836
F4
sVtortures
p3837
F1
sVvisited
p3838
F2
sVpleasing,
p3839
F1
sVheavens!
p3840
F2
sVspurs
p3841
F1
sVinto:
p3842
F1
sVingenious
p3843
F1
sVlast,
p3844
F1
sVdaring,
p3845
F1
sVfalse
p3846
F1
sVlyes
p3847
F1
sVhappily,
p3848
F1
sVwill:
p3849
F1
sVgently
p3850
F3
sVvillainy
p3851
F1
sVcorrespond
p3852
F1
sVcomfortably
p3853
F1
sVhave
p3854
F92
sVclose
p3855
F1
sVneed
p3856
F2
sVvalued,
p3857
F1
sVnoise;
p3858
F1
sVviewed
p3859
F2
sValancon's
p3860
F1
sVden:
p3861
F1
sVafraid
p3862
F1
sVlinen
p3863
F1
sVpursued
p3864
F3
sVable
p3865
F16
sVdesperate:
p3866
F1
sVpatience,
p3867
F2
sV'honest
p3868
F1
sVwhich
p3869
F106
sVden,
p3870
F1
sVchaise
p3871
F1
sVdivert
p3872
F2
sVdesperate,
p3873
F1
sVwicked,
p3874
F1
sVland;
p3875
F1
sVunless
p3876
F1
sVsky-light
p3877
F1
sVmoments,
p3878
F1
sVwho
p3879
F90
sVglandore
p3880
F8
sVprocure
p3881
F5
sVbusiness,
p3882
F1
sVhumanity.
p3883
F1
sVlust
p3884
F1
sVvengeance
p3885
F2
sVwake!
p3886
F2
sVribbons,
p3887
F1
sVbrother-in-law
p3888
F1
sVprisoner
p3889
F1
sVbusiness:
p3890
F2
sVvillain,
p3891
F1
sVlluelling,
p3892
F16
sVwhy
p3893
F12
sVpitiful!
p3894
F1
sVdeny
p3895
F1
sV'come,
p3896
F1
sVdeeply,
p3897
F1
sVsaying;
p3898
F1
sVbred
p3899
F8
sVhours:
p3900
F1
sVdisease
p3901
F1
sVface
p3902
F6
sVlooked
p3903
F13
sVpark,
p3904
F1
sVperceiving
p3905
F1
sVproceedings
p3906
F1
sVlamented
p3907
F2
sVscrutores,
p3908
F1
sVaubin.
p3909
F1
sVoccasion
p3910
F2
sVinfamy;
p3911
F1
sVencamped;
p3912
F1
sVsaying,
p3913
F17
sVdwelling,
p3914
F1
sVestate,
p3915
F3
sVentertain
p3916
F1
sVword,
p3917
F2
sVagreed
p3918
F4
sVcharles
p3919
F1
sVone,
p3920
F2
sVone.
p3921
F1
sVupright
p3922
F1
sVbring
p3923
F13
sVreligious,
p3924
F1
sVmean,
p3925
F2
sVsoldiers
p3926
F2
sVfear
p3927
F10
sVlluelling's
p3928
F4
sVpleased
p3929
F7
sVentring
p3930
F1
sVone?
p3931
F1
sVtrue,
p3932
F2
sVhighest
p3933
F1
sVknowledge
p3934
F1
sVsheriff
p3935
F1
sVthither."
p3936
F1
sVtrue!
p3937
F1
sVdeclared:
p3938
F1
sVrash
p3939
F2
sVshould
p3940
F38
sVunsuccessful,
p3941
F1
sVyourselves
p3942
F2
sVnight-gown
p3943
F1
sVhope
p3944
F9
sVgratify
p3945
F2
sVdoubting
p3946
F1
sVsued
p3947
F1
sVpass:
p3948
F1
sVmeans
p3949
F9
sVweeds,
p3950
F1
sVfamiliar
p3951
F1
sVsecret,
p3952
F1
sVfelicity,
p3953
F1
sVbear
p3954
F3
sVarmed,
p3955
F1
sVdetestable
p3956
F1
sVhorsed:
p3957
F1
sVwords
p3958
F13
sVpropagated
p3959
F1
sVkatharine
p3960
F2
sVchristians,
p3961
F2
sVendless
p3962
F1
sVkid,
p3963
F1
sVglory
p3964
F1
sVstrove
p3965
F2
sVupper
p3966
F1
sVabated,
p3967
F1
sVmarried
p3968
F7
sVcalling
p3969
F2
sVundergone;
p3970
F1
sVdearest
p3971
F1
sV"madam,
p3972
F1
sVdangerous
p3973
F5
sVfixed
p3974
F2
sVview
p3975
F2
sVspotted
p3976
F2
sVmadam
p3977
F1
sVyours?
p3978
F1
sVhungary
p3979
F1
sVprayers
p3980
F2
sVacquired
p3981
F1
sVdeliverance:
p3982
F1
sVungrateful
p3983
F1
sVorphan
p3984
F2
sVeyes:
p3985
F1
sVmerits
p3986
F1
sVdesperate
p3987
F4
sVskreen
p3988
F1
sVchamber.
p3989
F1
sVend,
p3990
F1
sVmonarch,
p3991
F1
sVend.
p3992
F1
sVtremble,
p3993
F1
sVcouples,
p3994
F1
sVdesires.
p3995
F1
sVturks
p3996
F1
sVmaster's
p3997
F3
sVcommand;
p3998
F1
sVvows
p3999
F1
sVvizards
p4000
F1
sVmind,
p4001
F1
sVsweat
p4002
F1
sVsouthampton,
p4003
F1
sVsplendid,
p4004
F1
sVneither
p4005
F2
sVwife's
p4006
F3
sVfrustrated
p4007
F1
sVcommand,
p4008
F2
sVbought
p4009
F4
sVends
p4010
F1
sVvarious
p4011
F1
sVpowers,
p4012
F1
sVopening
p4013
F2
sVconversion;
p4014
F1
sVjoy
p4015
F12
sVdeliver
p4016
F3
sVdaughters?
p4017
F1
sVkinsman
p4018
F3
sVthanks,
p4019
F3
sVglory:
p4020
F1
sVbelinda
p4021
F45
sVheavily,
p4022
F1
sVprecious
p4023
F1
sVarts,
p4024
F1
sVencrease
p4025
F4
sVtaken,
p4026
F1
sVjoy;
p4027
F1
sVcommands
p4028
F1
sVpiece
p4029
F1
sVinstant
p4030
F5
sVsickens
p4031
F1
sVprofoundly,
p4032
F1
sVtaking
p4033
F8
sVincessantly.
p4034
F1
sVequal
p4035
F2
sVminds
p4036
F1
sVgrate,
p4037
F1
sVassure
p4038
F1
sVsea-port
p4039
F1
sVbeds,
p4040
F1
sVjoy,
p4041
F2
sVdesigns.
p4042
F1
sVpassing
p4043
F1
sVsafely
p4044
F1
sVglorious
p4045
F3
sVotherwise
p4046
F2
sVtogether;
p4047
F3
sVtogether:
p4048
F1
sVtorn
p4049
F1
sVpinioned,
p4050
F1
sVconclude
p4051
F1
sVshewed
p4052
F2
sV'believe
p4053
F1
sVwalk
p4054
F5
sVfriend,
p4055
F2
sVguide.
p4056
F1
sVtogether,
p4057
F4
sVfervent
p4058
F1
sVtable
p4059
F2
sVwomen's
p4060
F1
sVsense,
p4061
F1
sVcry,
p4062
F1
sVdespised.'
p4063
F1
sVquit
p4064
F4
sVaccomplishing
p4065
F1
sVinn,
p4066
F2
sVplunder,
p4067
F1
sVhome:
p4068
F1
sVwills
p4069
F1
sVended
p4070
F1
sVdistant,
p4071
F1
sVplunder:
p4072
F1
sVdrank
p4073
F2
sVcondemn
p4074
F1
sVtreat
p4075
F3
sVlady's
p4076
F4
sVproposal
p4077
F1
sVfortune.'
p4078
F1
sVhome.
p4079
F3
sVchoice!
p4080
F1
sVhome,
p4081
F8
sVrich,
p4082
F2
sVmisfortunes,
p4083
F2
sVmountain,
p4084
F3
sVson.'
p4085
F1
sVgeneral
p4086
F5
sVc.
p4087
F4
sVking,
p4088
F3
sVcondition.
p4089
F1
sVmoved
p4090
F1
sVsufficient
p4091
F1
sVarose:
p4092
F1
sVfinished
p4093
F2
sVtenderly
p4094
F3
sVsafety:
p4095
F1
sVmisfortunes:
p4096
F1
sVimproved
p4097
F1
sVarose,
p4098
F2
sVfellow
p4099
F1
sVpresent
p4100
F8
sVhide's
p4101
F5
sVprospect
p4102
F1
sVsell
p4103
F1
sVcouple
p4104
F1
sVtrance,
p4105
F1
sVloathed
p4106
F1
sVappearance
p4107
F1
sVinn
p4108
F2
sVvalue
p4109
F2
sVstopped,
p4110
F2
sVwill
p4111
F55
sVthou
p4112
F3
sVwill,
p4113
F7
sVfault
p4114
F1
sVwild
p4115
F2
sVfriend;
p4116
F1
sVexperienced.
p4117
F1
sVdid:
p4118
F1
sVbanquetting-house,
p4119
F1
sVgrasped
p4120
F1
sVsupply
p4121
F2
sVdirect
p4122
F1
sVprosecute
p4123
F1
sVgoodness
p4124
F1
sVsister,
p4125
F8
sValmost
p4126
F11
sVblood
p4127
F1
sVfurnished,
p4128
F1
sVdisapprove
p4129
F1
sVsea-side,
p4130
F1
sVsister?
p4131
F1
sVcomprehended;
p4132
F1
sVhide's,
p4133
F3
sVdays.'
p4134
F1
sVransom
p4135
F1
sVcreator,
p4136
F1
sVreserve?
p4137
F1
sVperhaps
p4138
F1
sVbegan
p4139
F11
sVconcealing
p4140
F1
sVof.
p4141
F3
sVthese,
p4142
F1
sVof,
p4143
F3
sVthese.
p4144
F1
sVmember
p4145
F1
sVwicked
p4146
F1
sVsweetmeats,
p4147
F1
sVmerciful
p4148
F1
sVcanvasses,
p4149
F1
sVof:
p4150
F2
sVof;
p4151
F1
sVthese;
p4152
F1
sVexhorted
p4153
F1
sVhills,
p4154
F2
sVdifficult
p4155
F1
sVnobly.
p4156
F1
sVsheriff's
p4157
F1
sVdusk
p4158
F1
sVcloset,
p4159
F1
sVupon
p4160
F47
sVeffect
p4161
F1
sVbeast
p4162
F1
sVfrequently
p4163
F2
sVsingle
p4164
F2
sVpriest
p4165
F1
sVoff
p4166
F6
sVfully
p4167
F2
sVi
F432
sVapprove
p4168
F1
sVcolour
p4169
F1
sVwell
p4170
F23
sVfighting
p4171
F1
sVthought
p4172
F18
sVembraces?
p4173
F1
sV'my
p4174
F24
sVcommand
p4175
F5
sVenglish
p4176
F3
sVpart:
p4177
F1
sVdrawing
p4178
F1
sVusual
p4179
F2
sVlest
p4180
F3
sVshe-goat,
p4181
F1
sVcompanions,
p4182
F2
sVcried
p4183
F1
sVless
p4184
F4
sVliberty;
p4185
F1
sVrambled
p4186
F1
sVonly,
p4187
F1
sVobtain
p4188
F1
sVsucceed.'
p4189
F1
sVdistant
p4190
F1
sVcondescended
p4191
F2
sVlord---said,
p4192
F1
sVrest
p4193
F4
sVnearly,
p4194
F1
sVinnocent,
p4195
F1
sVwonder,
p4196
F1
sVgenerous
p4197
F5
sVwork,
p4198
F1
sV'charming
p4199
F2
sVlord---,
p4200
F6
sVsinfulness
p4201
F1
sVdelighted,
p4202
F1
sVdrive
p4203
F1
sVsky
p4204
F1
sVrecommending
p4205
F2
sVfled
p4206
F5
sVdare
p4207
F3
sVdoubt,
p4208
F1
sVother
p4209
F8
sVshattered,
p4210
F1
sVwrongs,
p4211
F1
sVusage
p4212
F1
sVearnestly
p4213
F3
sVpossess
p4214
F2
sVought
p4215
F2
sVlord---;
p4216
F1
sVresolved
p4217
F19
sVsteps,
p4218
F1
sVapproached,
p4219
F1
sVsick
p4220
F1
sVfate
p4221
F3
sVgovernment
p4222
F2
sVseat,
p4223
F4
sVroom,
p4224
F6
sVfairies
p4225
F1
sVcame;
p4226
F1
sVimpoverished:
p4227
F1
sVfive
p4228
F6
sVmoment.
p4229
F1
sVpresume
p4230
F2
sVmoment,
p4231
F1
sVor,
p4232
F1
sVimmediately
p4233
F4
sVsearched
p4234
F1
sVeternal
p4235
F1
sVroom;
p4236
F2
sVseat:
p4237
F1
sVrecover:
p4238
F1
sVnecessary
p4239
F2
sVlike
p4240
F15
sVlost
p4241
F8
sVmiracle.'
p4242
F1
sVengland,
p4243
F8
sVrave?
p4244
F1
sVheed
p4245
F1
sVlose
p4246
F3
sVpeople's,
p4247
F1
sVbecome
p4248
F2
sVsick,
p4249
F3
sVsoft
p4250
F2
sVregardless
p4251
F1
sVwonders
p4252
F1
sVworth,
p4253
F1
sVbecause
p4254
F5
sVtories,
p4255
F1
sVbelonged
p4256
F1
sVchurch
p4257
F3
sVsearching
p4258
F3
sVhair
p4259
F2
sVshew
p4260
F2
sVrepeat
p4261
F1
sVhabits
p4262
F1
sVdeliverance
p4263
F1
sVconvey
p4264
F1
sVloaded
p4265
F1
sVproper
p4266
F7
sVhome
p4267
F7
sVliking
p4268
F1
sVemployment
p4269
F1
sVhis,
p4270
F1
sVtransport
p4271
F1
sV"alas!
p4272
F1
sVbefore.
p4273
F1
sVheaven's
p4274
F1
sVagain,
p4275
F9
sVmadam,
p4276
F9
sVglad,
p4277
F1
sVavoid
p4278
F1
sVin;
p4279
F1
sVblessing,
p4280
F1
sVby,
p4281
F1
sVapprehended
p4282
F1
sVbreakfasted,
p4283
F1
sVleap
p4284
F2
sVdoes
p4285
F3
sVpassion
p4286
F4
sVbefore;
p4287
F1
sVfisherman
p4288
F8
sVlanguish,
p4289
F1
sVconfined;
p4290
F1
sVnoise
p4291
F1
sVa.
p4292
F1
sVshe.
p4293
F1
sVshe,
p4294
F20
sVlluelling's,
p4295
F2
sVseduce
p4296
F1
sVlikewise
p4297
F1
sVconveyed
p4298
F1
sVsecrecy,
p4299
F1
sVtrap-door
p4300
F1
sVdisobedience,
p4301
F1
sV'you
p4302
F2
sVdeath;
p4303
F1
sVshe;
p4304
F1
sVnoisy
p4305
F2
sVgained
p4306
F3
sVagain:
p4307
F1
sVsister
p4308
F8
sVfavoured
p4309
F1
sVcarried
p4310
F10
sVgetting
p4311
F6
sVhimself,
p4312
F4
sVsurprizing
p4313
F1
sVhimself.
p4314
F1
sVurged
p4315
F4
sVconcerts
p4316
F1
sVmine,
p4317
F5
sVblessings
p4318
F4
sVherself,
p4319
F3
sVtrials
p4320
F1
sVtongue
p4321
F2
sVemperor
p4322
F1
sVmore.'
p4323
F1
sVcoach-box,
p4324
F2
sVown
p4325
F12
sVletters
p4326
F2
sVowe
p4327
F2
sVcourt,
p4328
F1
sVcourt.
p4329
F1
sVnobody,
p4330
F1
sVmarquis,
p4331
F11
sVmonarch's
p4332
F1
sVguard
p4333
F3
sVpromise
p4334
F2
sVesteem
p4335
F1
sVfemale
p4336
F1
sVvenus,
p4337
F1
sVroads
p4338
F1
sVquickly
p4339
F2
sVinclination
p4340
F1
sVrise,
p4341
F1
sVdoubtless
p4342
F3
sVoutlawed,
p4343
F1
sVcell;
p4344
F1
sVimpatience
p4345
F1
sVrushed
p4346
F1
sVchild.'
p4347
F1
sVfaithfully
p4348
F1
sVplace;
p4349
F2
sVplace:
p4350
F1
sVcell,
p4351
F4
sVnotice.'
p4352
F1
sVplace,
p4353
F9
sVprince,
p4354
F1
sVplace.
p4355
F5
sVchearfulness
p4356
F1
sVdaughter-in-law
p4357
F1
sVsubmit;
p4358
F1
sVireland
p4359
F2
sVpistol;
p4360
F1
sVout.'
p4361
F1
sVbut
p4362
F168
sVhigh-sheriff,
p4363
F1
sVroad;
p4364
F2
sVrepeated
p4365
F1
sVgain
p4366
F4
sVcourts
p4367
F1
sVthreaten
p4368
F1
sVought.
p4369
F1
sVchildren,
p4370
F2
sVletter,
p4371
F2
sVdisliked,
p4372
F1
sVeat
p4373
F3
sVhe
p4374
F327
sVcount
p4375
F13
sVmade
p4376
F37
sVmarquis
p4377
F24
sVplaces
p4378
F2
sVwish
p4379
F5
sVrooms
p4380
F2
sVthis,
p4381
F4
sVthis.
p4382
F1
sVcaptain,
p4383
F3
sVplaced
p4384
F1
sVcruel
p4385
F3
sVconvince
p4386
F1
sVbride,
p4387
F1
sVgagged
p4388
F1
sVthis;
p4389
F2
sVeyes,
p4390
F3
sVstirring
p4391
F1
sVprivate,
p4392
F2
sVchristian,
p4393
F1
sVirish
p4394
F1
sVhats,
p4395
F1
sVarms:
p4396
F1
sVarms;
p4397
F1
sVcontrived;
p4398
F1
sVluelling,
p4399
F1
sVkisses
p4400
F1
sVwine,
p4401
F3
sVarms,
p4402
F9
sVentertaining,
p4403
F1
sVfather-in-law
p4404
F5
sVjests,
p4405
F1
sVresented
p4406
F1
sVextremely,
p4407
F1
sVlord---
p4408
F1
sVmanner:
p4409
F2
sVgentlewomen
p4410
F1
sVkissed
p4411
F4
sVcontrived,
p4412
F1
sVsince,
p4413
F4
sVgarden,
p4414
F4
sVremnants
p4415
F1
sVstabbed
p4416
F1
sVincredible
p4417
F1
sVdressed
p4418
F7
sVheard.
p4419
F1
sVsuspicions,
p4420
F1
sVwrought
p4421
F1
sVlately
p4422
F2
sVaccident:
p4423
F1
sVbook
p4424
F1
sVsince:
p4425
F1
sVgoat
p4426
F1
sVbehold
p4427
F3
sVimportuned
p4428
F3
sVyours,
p4429
F2
sVlanguishing;
p4430
F1
sVagain.
p4431
F2
sVindeed,
p4432
F2
sVsecretly
p4433
F1
sVdraught
p4434
F1
sVagain!
p4435
F1
sVthirty-six
p4436
F1
sVthanks
p4437
F2
sVstay
p4438
F15
sVin,
p4439
F8
sVagain;
p4440
F3
sVin.
p4441
F1
sVstab
p4442
F1
sVdeath,
p4443
F11
sVdeath.
p4444
F1
sVbeasts,
p4445
F1
sVfriends
p4446
F8
sVdared,
p4447
F1
sVghost
p4448
F2
sVanthony
p4449
F4
sVfunctions.
p4450
F1
sVcoffee,
p4451
F1
sVdoor;
p4452
F1
sVentertainment
p4453
F1
sVslumber,
p4454
F1
sVuneasiness,
p4455
F1
sVgo;
p4456
F1
sVtrial,
p4457
F1
sVstayed
p4458
F2
sVunderstand
p4459
F1
sVconfess
p4460
F2
sVnews,
p4461
F1
s.