ccollections
defaultdict
p1
(c__builtin__
float
p2
tRp3
Vall
p4
F7
sVpictures,
p5
F1
sVcolleges
p6
F1
sVillustrated
p7
F1
sVhath
p8
F6
sV(if
p9
F1
sVtricks,
p10
F1
sVwhose
p11
F3
sVadorn
p12
F1
sVyoung
p13
F1
sVto
p14
F57
sVunder
p15
F1
sVwomen
p16
F4
sVgood-sense
p17
F1
sVdecision.
p18
F1
sVwoman
p19
F1
sVvirtue
p20
F1
sVvery
p21
F7
sVis,
p22
F3
sVevery
p23
F2
sVmore,
p24
F1
sVvastly
p25
F1
sVcollege,
p26
F1
sVvast
p27
F1
sVlanguage.
p28
F1
sVbooks,
p29
F1
sVexcellence
p30
F1
sVaffect
p31
F1
sVmanteau-maker,
p32
F1
sVloqui
p33
F1
sVconcise
p34
F1
sVsex,
p35
F1
sVdiscover
p36
F1
sVliterature
p37
F1
sVanswer,
p38
F1
sVsecond
p39
F1
sV&c
p40
F1
sVother;
p41
F1
sVthat,
p42
F1
sVemploy
p43
F1
sVwhat
p44
F6
sVcharacters;
p45
F1
sVappear
p46
F1
sVindifference;
p47
F1
sVopinion:
p48
F1
sVveneration,
p49
F1
sVfavour
p50
F1
sVsupplied
p51
F1
sVnew
p52
F1
sVlearned
p53
F2
sVplays:
p54
F1
sVgeneral,
p55
F1
sVhonour
p56
F1
sVmen
p57
F2
sVfrench
p58
F1
sVunderstanding
p59
F1
sVhours
p60
F1
sVmet
p61
F1
sVles
p62
F1
sVglass,
p63
F1
sVconsideration
p64
F1
sVsay,
p65
F1
sVgreat
p66
F3
sVreceive
p67
F1
sVstudy
p68
F1
sVshuffling
p69
F1
sVallows
p70
F1
sVexperience
p71
F2
sVenamoured.
p72
F1
sVcervantes
p73
F1
sVescaped
p74
F1
sVsocial
p75
F1
sVopinion
p76
F3
sVabrupt,
p77
F1
sVfaculties
p78
F1
sVadvantages:
p79
F1
sVobjection,
p80
F2
sVhumour
p81
F1
sVprivate
p82
F1
sVexcellently
p83
F1
sVsincerely
p84
F1
sVviz
p85
F1
sVapply
p86
F1
sVglance
p87
F1
sVpublic,
p88
F1
sVlady,
p89
F1
sVuse
p90
F2
sVlady.
p91
F1
sVfrom
p92
F10
sVwould
p93
F5
sVtwo
p94
F2
sVbelieve,
p95
F2
sVcomparing
p96
F1
sVrecommend
p97
F1
sVthemselves
p98
F1
sVstories,
p99
F1
sVmore
p100
F8
sVwretched
p101
F1
sVreaders
p102
F2
sVinclined
p103
F1
sVit
p104
F15
sVcrouds,
p105
F1
sVobservations
p106
F1
sVexcellent
p107
F1
sVknown
p108
F1
sVhurry
p109
F1
sVmust
p110
F3
sVme
p111
F2
sVand,
p112
F1
sVnone
p113
F1
sVsociety.
p114
F1
sVthis
p115
F12
sVforesaw,
p116
F1
sVacquaints
p117
F1
sVlove-letters,
p118
F1
sVmasonry,
p119
F1
sVcan
p120
F3
sVlearn
p121
F1
sVfollowing
p122
F1
sVmaking
p123
F3
sVmy
p124
F5
sVhistory
p125
F1
sVgive
p126
F2
sVshare
p127
F1
sVhigh
p128
F2
sVinitiated?
p129
F1
sVarise
p130
F1
sVcultivate
p131
F1
sVnone,
p132
F1
sVdress
p133
F1
sVcontented;
p134
F1
sVabsolute
p135
F1
sVclass.
p136
F1
sVindifferent
p137
F1
sVunadvisedly
p138
F1
sVwrite
p139
F1
sVfar
p140
F1
sVwriters
p141
F3
sVfaulty
p142
F1
sVboth.
p143
F1
sVpiece;
p144
F1
sVmay
p145
F10
sVpurpose:
p146
F1
sVgenius,
p147
F1
sVleisure
p148
F1
sVsuch
p149
F6
sVtrifling
p150
F1
sVa
F28
sVdancing-master,
p151
F1
sVshort
p152
F2
sVchiefly
p153
F1
sVthird
p154
F1
sVtales,
p155
F1
sVwriter,
p156
F1
sVvideare
p157
F1
sVtale
p158
F1
sVsincerity,
p159
F1
sVmaintain
p160
F1
sVso
p161
F8
sVdread,
p162
F1
sVlearning,
p163
F1
sVplease,
p164
F1
sVconversation;
p165
F3
sVbeauties
p166
F4
sVhelp
p167
F2
sVindeed
p168
F3
sVdisplayed
p169
F1
sVsoon
p170
F1
sVyears
p171
F1
sVperformance
p172
F1
sVrendered
p173
F1
sVof,
p174
F1
sVconversation,
p175
F2
sVsigns
p176
F1
sVamiable,
p177
F1
sVshorter
p178
F1
sVstyle
p179
F6
sVderive
p180
F1
sVperceived.
p181
F1
sVlettres
p182
F1
sVworld:
p183
F1
sVhabit,
p184
F1
sV,
F5
sVwriting
p185
F2
sVtruth,
p186
F2
sVwriters,
p187
F1
sVmight
p188
F1
sVworld,
p189
F4
sVit.
p190
F1
sVthem
p191
F4
sVhistory,
p192
F1
sVintroduce
p193
F2
sVeffects
p194
F1
sVthey
p195
F13
sVnot
p196
F12
sVhistory;
p197
F1
sVnor
p198
F2
sVfine,
p199
F1
sVmasters
p200
F1
sVbecoming,
p201
F1
sVdelicate
p202
F1
sVobviated
p203
F1
sVtruth
p204
F4
sVeach
p205
F1
sVentirely
p206
F1
sVall;
p207
F1
sVlasting
p208
F1
sVadvantage,
p209
F1
sVidea
p210
F1
sVrelated
p211
F1
sVsurprize
p212
F1
sVpersian
p213
F1
sVour
p214
F3
sVreally
p215
F1
sVgiven
p216
F1
sVpartiality,
p217
F1
sVcontained
p218
F1
sVabundantly
p219
F1
sVphrase,
p220
F1
sVreader
p221
F2
sVtiresome
p222
F1
sVauthor;
p223
F1
sVshe
p224
F1
sVpathetic
p225
F1
sVbook,
p226
F1
sVdiffer
p227
F1
sVpossibility
p228
F1
sVwho,
p229
F1
sVcounterparts
p230
F1
sVwantonness
p231
F1
sVlearning;
p232
F1
sVcould
p233
F1
sVwoman's
p234
F2
sVdavid
p235
F2
sVcreates
p236
F1
sVconversation
p237
F1
sVplace
p238
F1
sVconsequence
p239
F1
sVauthors,
p240
F1
sVassign
p241
F1
sVfirst
p242
F2
sValready
p243
F1
sVendowments
p244
F1
sVauthor,
p245
F1
sVone
p246
F3
sVanother
p247
F1
sVshort,
p248
F1
sVeminence
p249
F1
sVquality
p250
F1
sVhave,
p251
F1
sVpasses
p252
F1
sVlittle
p253
F8
sVthoughts.
p254
F1
sVlove,
p255
F1
sVst.
p256
F1
sVmillener
p257
F1
sVtheir
p258
F13
sVmaster
p259
F1
sVtoo
p260
F1
sVpains
p261
F1
sVconsummation
p262
F1
sVman
p263
F2
sVeasy,
p264
F1
sVfolly,
p265
F1
sVeyes
p266
F1
sVthat
p267
F19
sVimprovement.
p268
F1
sVdirect
p269
F1
sVpart
p270
F1
sVsex.
p271
F1
sVbelieve
p272
F2
sVherself
p273
F1
sVthan
p274
F6
sVremember
p275
F1
sVkind
p276
F2
sVperfectly
p277
F1
sVrequire
p278
F2
sVinstruction
p279
F1
sVencomiums
p280
F1
sVsupposed
p281
F1
sVto,
p282
F1
sVwere
p283
F1
sVgives
p284
F1
sVprofuse
p285
F1
sVand
p286
F46
sVhogarth
p287
F1
sVmodern
p288
F1
sVdefect
p289
F2
sVsay
p290
F1
sVmanner
p291
F1
sVhave
p292
F14
sVseen
p293
F1
sVadmire
p294
F2
sVany
p295
F13
sVaffairs
p296
F1
sVnovels,
p297
F2
sVhumorous;
p298
F1
sVsubjects
p299
F2
sVwhich
p300
F21
sVaccount.
p301
F1
sVhaste
p302
F1
sVlevity,
p303
F1
sVsubject
p304
F2
sVnovels:
p305
F1
sVeven
p306
F3
sVappellation
p307
F1
sVsure
p308
F1
sVage;
p309
F1
sVqualities
p310
F1
sVshall
p311
F4
sVwho
p312
F12
sVprocure
p313
F1
sVbusiness,
p314
F1
sVmost
p315
F5
sVregular
p316
F1
sVbeaus,
p317
F1
sVnothing
p318
F1
sVafterages
p319
F1
sVespecially
p320
F2
sVconsidered
p321
F2
sVcalculated
p322
F1
sVblockhead
p323
F1
sVletters,
p324
F3
sVsubject.
p325
F1
sVnature,
p326
F2
sVletters;
p327
F1
sVnotion
p328
F1
sVaffair
p329
F1
sVplease
p330
F1
sVone,
p331
F2
sVmerit
p332
F1
sVeminent
p333
F1
sVnovelist,
p334
F1
sVrelation
p335
F2
sVliberty
p336
F1
sVmean,
p337
F1
sVunconnected
p338
F1
sVavarice,
p339
F1
sVfine
p340
F3
sVfind
p341
F4
sVprincipal
p342
F1
sVtouches
p343
F1
sVplentifully
p344
F1
sVwith
p345
F12
sVwriter
p346
F4
sVmany,
p347
F1
sVshould
p348
F3
sVhere
p349
F2
sVonly
p350
F3
sVunacquainted:
p351
F1
sVpleasure.
p352
F1
sVmay,
p353
F1
sVadequate
p354
F1
sVdiscovers
p355
F1
sVdo
p356
F1
sVdoubting
p357
F1
sVhis
p358
F5
sVdrawing,
p359
F1
sVbear
p360
F2
sVtruly
p361
F1
sVcannot
p362
F1
sVimagine,
p363
F1
sVperfection
p364
F1
sVprogress
p365
F1
sVwhereas,
p366
F1
sVever
p367
F2
sVseldom
p368
F1
sVepistles
p369
F1
sVbase,
p370
F1
sVmen,
p371
F3
sVamandi
p372
F1
sVcommon
p373
F1
sVcontain
p374
F1
sVthem.
p375
F2
sVassent
p376
F1
sVthem,
p377
F3
sVwhere
p378
F2
sVjudge,
p379
F1
sVinvention;
p380
F1
sVpreserve
p381
F2
sVtenderness,
p382
F1
sVhistorian,
p383
F1
sVsex
p384
F1
sVdetection
p385
F1
sVsee
p386
F2
sVare
p387
F21
sVunfairly
p388
F1
sVbest
p389
F2
sVrequisite,
p390
F1
sVsaid
p391
F1
sVpictures
p392
F1
sVgentleman
p393
F1
sVartificial
p394
F1
sVwritten
p395
F2
sVmind.
p396
F1
sVwhatever.
p397
F2
sVbetween
p398
F1
sVscorn
p399
F1
sVnicest
p400
F1
sVtho'
p401
F2
sVcompliment
p402
F1
sVethics,
p403
F1
sVknowing
p404
F1
sVromance,
p405
F1
sVwe
p406
F2
sVventure
p407
F1
sVnature
p408
F3
sVattention
p409
F1
sVascribed
p410
F1
sVhowever
p411
F1
sV\u005c---pr
p412
F1
sVfaults,
p413
F1
sVpolitics,
p414
F1
sVbetrayed
p415
F1
sVinimitable
p416
F1
sVgalantes
p417
F1
sVbehaviour
p418
F1
sVlast
p419
F1
sVsecrets
p420
F1
sVmany
p421
F4
sVladies,
p422
F1
sVequal
p423
F1
sVagainst
p424
F1
sVcriticism,
p425
F1
sVassure
p426
F1
sVnovel-writer,
p427
F1
sVperusal.
p428
F1
sVambition,
p429
F1
sVformer,
p430
F1
sVestimation
p431
F1
sVexpression
p432
F1
sVfinds
p433
F1
sVnay,
p434
F2
sVingenious
p435
F1
sVopposition
p436
F2
sVromance
p437
F1
sVdoubt,
p438
F1
sVwonder
p439
F1
sVwhatever
p440
F1
sVresentment
p441
F1
sVtogether,
p442
F1
sVthere,
p443
F1
sVsensible
p444
F1
sVcapable
p445
F2
sVpolitical
p446
F2
sVthree
p447
F1
sVbeen
p448
F2
sV.
F4
sVexamples,
p449
F1
sVmuch
p450
F6
sVarte
p451
F1
sVunnatural,
p452
F1
sVexcellence.
p453
F1
sVduties
p454
F1
sVlife
p455
F1
sVgeneral
p456
F1
sVhistories,
p457
F1
sVobserve
p458
F1
sVway?
p459
F1
sVextant
p460
F1
sVdoth
p461
F2
sVformer
p462
F1
sVthose
p463
F5
sVthese
p464
F14
sVworld.
p465
F1
sVattend,
p466
F1
sVlife;
p467
F1
sVair
p468
F1
sVwill
p469
F9
sVwill,
p470
F2
sVbehavior
p471
F1
sVlived.
p472
F1
sVart,
p473
F1
sVapprehend
p474
F1
sVcharacter,
p475
F1
sVis
p476
F20
sVit,
p477
F1
sVperson,
p478
F1
sVin
p479
F47
sVready
p480
F1
sVjames's
p481
F1
sVif
p482
F7
sVauthor
p483
F4
sVperhaps
p484
F1
sVmake
p485
F2
sVthese,
p486
F1
sVsame
p487
F4
sVgentlemen
p488
F1
sVsome,
p489
F1
sVseveral
p490
F1
sVconvinced,
p491
F1
sVliterature.
p492
F1
sVdifficult
p493
F1
sVused
p494
F1
sVupon
p495
F1
sVcensure
p496
F1
sVread.
p497
F1
sVpersons
p498
F1
sVmankind,
p499
F1
sVuses
p500
F1
sVcolouring
p501
F1
sVcharacters
p502
F1
sVchanging
p503
F1
sVjudgment
p504
F1
sVnobly
p505
F1
sVepistolary
p506
F3
sVthose,
p507
F2
sVi
F30
sVlearn,
p508
F1
sVsecret.
p509
F1
sVwell
p510
F5
sVspent
p511
F1
sVwithout
p512
F1
sVperson
p513
F2
sVluxury,
p514
F1
sVwhich,
p515
F5
sVincapable
p516
F1
sVlength,
p517
F1
sVthe
p518
F105
sVafraid,
p519
F1
sVjust
p520
F1
sVless
p521
F2
sVbeing
p522
F1
sVwhen
p523
F1
sVaccurate
p524
F1
sVonly,
p525
F2
sVrest
p526
F1
sVjudiciously
p527
F1
sVablest
p528
F2
sVcondescended
p529
F1
sVhuman
p530
F1
sVrule,
p531
F2
sVlives,
p532
F1
sVgraces,
p533
F1
sVassertion,
p534
F1
sVstyle,
p535
F4
sVfriendship
p536
F1
sVgenerous
p537
F1
sVeither:
p538
F1
sVunite
p539
F1
sVconclusions
p540
F1
sVthinking
p541
F1
sVease
p542
F1
sVhypocrisy,
p543
F1
sVsimple
p544
F2
sVadd
p545
F1
sVbook
p546
F2
sVeasy
p547
F1
sVvolumes,
p548
F1
sVsave
p549
F1
sVvice,
p550
F1
sVfact,
p551
F1
sVread
p552
F1
sVrequired,
p553
F1
sVpossible
p554
F1
sVknow
p555
F2
sVstyled
p556
F1
sVworld
p557
F1
sVlady
p558
F1
sVdetest
p559
F1
sVadvanced
p560
F1
sVvanity
p561
F1
sVnecessary
p562
F1
sVlike
p563
F2
sVignorance
p564
F1
sVwoman;
p565
F1
sVoffices
p566
F1
sVeither
p567
F4
sVany)
p568
F1
sVwoman,
p569
F1
sVleaves
p570
F1
sVreader.
p571
F1
sVworks
p572
F2
sVoften
p573
F1
sVsome
p574
F4
sVproceed,
p575
F1
sVauthority
p576
F1
sVsecond,
p577
F1
sVproper
p578
F2
sVamiable
p579
F1
sVacquaintance
p580
F2
sVwomen,
p581
F1
sVindeed,
p582
F1
sVfor
p583
F6
sVgood:
p584
F1
sVfreed
p585
F1
sVbe
p586
F16
sVknew
p587
F1
sVrun
p588
F1
sVbusiness
p589
F1
sVexample.
p590
F1
sVshe,
p591
F1
sVvirtues
p592
F1
sVdrawn
p593
F2
sVrelating
p594
F2
sVby
p595
F10
sVon
p596
F9
sVunderstanding.
p597
F1
sVconstraint
p598
F1
sVof
p599
F93
sVhimself.
p600
F1
sVformalities,
p601
F1
sVwhence
p602
F2
sVtestimony
p603
F1
sVobservation
p604
F2
sVor
p605
F14
sVladies
p606
F2
sVown
p607
F4
sVletters
p608
F8
sVperiods;
p609
F1
sVoccasions,
p610
F1
sVreaping
p611
F1
sVowe
p612
F1
sVinto
p613
F1
sVtaken.
p614
F1
sVlies
p615
F1
sVstruggle
p616
F1
sVpromise
p617
F1
sVlovely
p618
F1
sVstage,
p619
F1
sVher
p620
F4
sVthere
p621
F6
sVquestion
p622
F1
sVlong
p623
F1
sVchildishness
p624
F1
sVway
p625
F1
sVwas
p626
F2
sVhead
p627
F1
sVcapable,
p628
F1
sVform
p629
F1
sVforming
p630
F1
sVaccount,
p631
F1
sVbut
p632
F7
sVhighest
p633
F1
sVtrue
p634
F2
sVconsideration,
p635
F1
sVhe
p636
F2
sVmade
p637
F2
sVwise
p638
F1
sVromances.
p639
F1
sVwhether
p640
F3
sVut
p641
F1
sVthis,
p642
F1
sVus
p643
F1
sVplaced
p644
F1
sVconvince
p645
F1
sVstories
p646
F1
sVcalled
p647
F2
sVaffection
p648
F1
sVcriticism.
p649
F1
sVaesens
p650
F1
sVconstant
p651
F1
sVus,
p652
F2
sVcommendation.
p653
F1
sVtaste
p654
F1
sVlikewise
p655
F1
sVescape
p656
F1
sVam
p657
F3
sVan
p658
F5
sVcontend,
p659
F1
sVas
p660
F22
sVmoderns
p661
F1
sVat
p662
F3
sVkind.
p663
F1
sVeducation
p664
F1
sVpart,
p665
F1
sVknowledge,
p666
F3
sVphilosophy,
p667
F1
sVno
p668
F6
sVminds,
p669
F2
sVgenerally
p670
F2
sVuseful,
p671
F1
sVother
p672
F7
sVrepublic
p673
F1
sVbranch
p674
F1
sVrank,
p675
F1
sVdeclare
p676
F1
sVout
p677
F1
sVsufficient
p678
F1
sVpedants
p679
F1
sVconclusion
p680
F1
sVpoor
p681
F1
sVdraw
p682
F1
sVdenote
p683
F1
sVbeginnings
p684
F1
sVin,
p685
F1
sVoverbalances
p686
F1
sVimportant
p687
F1
sVours.
p688
F1
sVpedant,
p689
F1
sVbestowed
p690
F1
sVobserved,
p691
F1
sVwarm,
p692
F1
sVdaily
p693
F1
sVvolumes
p694
F1
sVtime
p695
F1
sVabounds,
p696
F1
sVgoodness,
p697
F1
sVhaving
p698
F2
sVmysteries,
p699
F2
s.