ccollections
defaultdict
p1
(c__builtin__
float
p2
tRp3
Vall
p4
F5
sVconsidered.
p5
F1
sVconsider
p6
F1
sVfollow
p7
F2
sVpraises
p8
F1
sVsparkling
p9
F1
sVpassage
p10
F1
sVrecurrence
p11
F1
sVto
p12
F43
sVpresent
p13
F1
sVwomen
p14
F1
sVamorous
p15
F1
sVvery
p16
F2
sVrhyme
p17
F1
sViliad
p18
F1
sVevident;
p19
F1
sVgloomy
p20
F1
sVevery
p21
F4
sVsupplies;
p22
F1
sVbusied
p23
F1
sVimmoveable
p24
F1
sVturns
p25
F2
sVgrave;
p26
F1
sVpainter.
p27
F1
sVtravels
p28
F1
sVthis
p29
F1
sVsmall
p30
F1
sVgraces
p31
F1
sVhas,
p32
F1
sVmight,
p33
F1
sVdenunciation;
p34
F1
sVexcelled
p35
F1
sVexcuses;
p36
F1
sVlikely
p37
F1
sVfabulous
p38
F1
sVsentiments.
p39
F1
sVeven
p40
F2
sVemploy
p41
F1
sVwhat
p42
F2
sVbusiness
p43
F1
sVcarthage
p44
F1
sVgiving
p45
F2
sVterms,
p46
F1
sVuniform
p47
F1
sVprevailed
p48
F1
sVcharacters,
p49
F1
sVnew
p50
F3
sVfull
p51
F1
sVwritings,
p52
F1
sVeminently
p53
F1
sVhonour
p54
F1
sVmen
p55
F1
sVfixed,
p56
F1
sVothers
p57
F2
sVdirections
p58
F1
sVappears
p59
F1
sVsearch
p60
F1
sVillustration,
p61
F1
sVbeautiful;
p62
F1
sVpiercing
p63
F1
sVart,
p64
F1
sVnarrow
p65
F1
sVmakes
p66
F1
sVfollowed
p67
F1
sVfromed
p68
F1
sVitalians
p69
F1
sVburlesque,
p70
F1
sVrarely
p71
F1
sVreply.
p72
F1
sVfrom
p73
F5
sVperished
p74
F1
sVarms
p75
F1
sVresent,
p76
F1
sVfew
p77
F1
sVtherefore
p78
F3
sVthemselves
p79
F1
sVobliges
p80
F1
sVmore
p81
F6
sVwars
p82
F1
sVparticular
p83
F1
sVorator
p84
F1
sVmust
p85
F4
sVand,
p86
F2
sVnone
p87
F1
sVpleasing
p88
F1
sVrestraint.
p89
F1
sVbooks,
p90
F1
sVscience
p91
F1
sVcan
p92
F7
sVpraise
p93
F1
sVfollowing
p94
F1
sVmaking
p95
F2
sVclaim
p96
F1
sVdisgrace.
p97
F1
sVgive
p98
F1
sVallowed
p99
F1
sVchief,
p100
F1
sVimitation
p101
F2
sVwant
p102
F1
sVsense
p103
F1
sVspecies
p104
F1
sVyouth;
p105
F1
sVunited
p106
F1
sVend
p107
F1
sVinhabitants
p108
F1
sVtravel
p109
F1
sVregions
p110
F1
sVhow
p111
F1
sVintelligent
p112
F1
sVstock
p113
F1
sVassistance.
p114
F1
sVrude
p115
F1
sVmay
p116
F2
sVgenius,
p117
F1
sVescape;
p118
F1
sVcourage,
p119
F1
sVsuch
p120
F3
sVheroes
p121
F1
sVman
p122
F2
sVa
F18
sVdiversified.
p123
F1
sVimagery
p124
F1
sVremember
p125
F1
sVjohnson
p126
F1
sVendeavoured
p127
F1
sVacknowledged
p128
F1
sVdeparture
p129
F1
sVtale
p130
F1
sVpropriety
p131
F1
sVdarkened
p132
F1
sVso
p133
F7
sVdeceive
p134
F1
sVseems
p135
F1
sVpleasure
p136
F1
sVfirst
p137
F1
sVinstruction.
p138
F1
sVbeauties
p139
F1
sVfurnished
p140
F1
sVproduced
p141
F1
sVstile
p142
F1
sVconversation,
p143
F1
sVstill
p144
F1
sVits
p145
F4
sVhaughty
p146
F1
sV,
F10
sVcomprehend
p147
F1
sVunexplored,
p148
F1
sVmight
p149
F2
sVthem
p150
F1
sVgreater
p151
F1
sVpractice
p152
F1
sVthey
p153
F9
sVnot
p154
F4
sVone
p155
F7
sVnor
p156
F2
sVtogether.
p157
F1
sValways
p158
F2
sVdido
p159
F2
sVmode
p160
F1
sVtruth
p161
F2
sVrepeating
p162
F1
sVtraces
p163
F1
sVunshaken
p164
F1
sVhurried
p165
F1
sVlanguage.
p166
F2
sVcomposition:
p167
F1
sVexpect
p168
F1
sVour
p169
F5
sVbeyond
p170
F1
sVsuperior.
p171
F1
sVallusions
p172
F1
sVout
p173
F1
sVdiction
p174
F1
sVtenderness
p175
F1
sVgreeks
p176
F1
sVtales
p177
F1
sVsince
p178
F1
sVwholly
p179
F1
sVcontent
p180
F1
sVboundless
p181
F1
sVphrase,
p182
F1
sVis,
p183
F1
sVtiresome
p184
F1
sVattentively
p185
F1
sVcommon
p186
F2
sVupon
p187
F1
sVenforcing
p188
F1
sVromans
p189
F1
sVajax
p190
F6
sVsurely
p191
F2
sVbesides
p192
F1
sVteach
p193
F1
sVallegory;
p194
F1
sVadvance
p195
F1
sVlanguage
p196
F1
sVcould
p197
F3
sVprofess
p198
F1
sVlearning,
p199
F1
sVindebted
p200
F1
sValready
p201
F1
sVauthor,
p202
F1
sVnumber
p203
F1
sVhitherto
p204
F1
sVanother
p205
F1
sVlittle
p206
F2
sVancient
p207
F2
sVthoughts.
p208
F1
sVopportunity
p209
F1
sVtraveller
p210
F1
sVaccordingly
p211
F1
sVfiction
p212
F1
sVtheir
p213
F5
sVdeveloved
p214
F1
sVthoughts
p215
F1
sVtime
p216
F3
sVjustly
p217
F1
sVthat
p218
F16
sVscarcely
p219
F1
sVpart
p220
F1
sVvision;
p221
F1
sVflowers
p222
F1
sVthan
p223
F7
sVfiction.
p224
F1
sVmilton
p225
F1
sVobserved
p226
F1
sVkind
p227
F1
sVoverborn
p228
F1
sVunpleasing;
p229
F1
sVunplucked,
p230
F1
sVwere
p231
F3
sVearth,
p232
F1
sVand
p233
F29
sVrecesses
p234
F1
sVconfessed
p235
F2
sVargument
p236
F1
sVdisappointment.
p237
F1
sVhave
p238
F8
sVanger
p239
F1
sVseen
p240
F1
sVany
p241
F6
sVpaths
p242
F1
sVstrength
p243
F1
sVconvenient
p244
F1
sVpoint,
p245
F1
sVpossibility,
p246
F1
sVideal
p247
F1
sVlabour
p248
F1
sVwhich
p249
F13
sVfavoured,
p250
F1
sVgreatest
p251
F1
sVtowards
p252
F1
sVthough
p253
F1
sVwho
p254
F2
sVmost
p255
F1
sVage,
p256
F2
sVfountains
p257
F1
sVnothing
p258
F1
sVachilles
p259
F1
sVinserted
p260
F1
sVwhy
p261
F1
sVtongue,
p262
F1
sVconsidered
p263
F1
sVsometimes
p264
F1
sVscience.
p265
F1
sVwarrior,
p266
F1
sVsullenness,
p267
F1
sVvicious,
p268
F1
sVcontemptuous
p269
F1
sVimproprieties
p270
F1
sVintellects.
p271
F1
sVword,
p272
F1
sVqueen
p273
F1
sVbring
p274
F2
sVtroy
p275
F2
sVobliquity
p276
F1
sVrhymes;
p277
F1
sVfear
p278
F1
sVhereditary
p279
F1
sVnarrow,
p280
F1
sVveneration.
p281
F1
sVknowledge
p282
F1
sVmute
p283
F1
sVstanza
p284
F2
sVshould
p285
F2
sVonly
p286
F5
sVinventions
p287
F1
sVancients,
p288
F1
sVemployed
p289
F1
sVhope
p290
F1
sVpoets,
p291
F1
sVdiction,
p292
F1
sVhis
p293
F18
sVimbecillity
p294
F1
sVexpress
p295
F1
sVpersidy
p296
F1
sVavarice
p297
F1
sVcannot
p298
F1
sVwords
p299
F3
sVcombinations
p300
F1
sVhonours
p301
F1
sVhim
p302
F4
sVenemy
p303
F1
sVfields
p304
F1
sVseldom
p305
F2
sVshe
p306
F3
sVthem,
p307
F1
sVwhere
p308
F1
sVferocity.
p309
F1
sVsheep,
p310
F1
sVburst
p311
F1
sVsplendor.
p312
F1
sVdumb
p313
F1
sVare
p314
F6
sVhero
p315
F1
sVsubject
p316
F1
sVfind,
p317
F1
sVunobserved,
p318
F1
sVaway
p319
F3
sVornament
p320
F1
sVgenius
p321
F2
sVwritten
p322
F1
sVallotted
p323
F1
sVadjudged
p324
F1
sVforsake
p325
F1
sVtreasures;
p326
F1
sVwe
p327
F5
sVacrimony.
p328
F1
sVattention
p329
F1
sVencrease
p330
F1
sVimprove
p331
F1
sVboth
p332
F1
sVdescribed.
p333
F1
sVdiscover,
p334
F1
sVforeign
p335
F1
sVadmit
p336
F1
sVlearn,
p337
F1
sVdiversity,
p338
F1
sVmadness
p339
F1
sVsupply
p340
F1
sVappeared
p341
F1
sVtired,
p342
F1
sVsilence.
p343
F1
sVimproper
p344
F1
sVassertions
p345
F1
sVlearning
p346
F1
sVrespect
p347
F1
sVarts
p348
F1
sVown,
p349
F1
sVdue
p350
F2
sVbeen
p351
F2
sV.
F1
sVwhom
p352
F3
sVmuch
p353
F4
sVarises
p354
F1
sVam
p355
F1
sVthousand
p356
F4
sVraces
p357
F1
sVreason,
p358
F1
sVreproach,
p359
F1
sVan
p360
F1
sVodyssey
p361
F1
sVthose
p362
F3
sVsound
p363
F1
sVstanza.
p364
F1
sVsingle
p365
F1
sVrhymes
p366
F1
sVwho,
p367
F1
sVknown,
p368
F1
sVulysses
p369
F3
sValmost
p370
F1
sVis
p371
F11
sVuse,
p372
F1
sVcontrive
p373
F1
sVit
p374
F7
sVdefeated
p375
F1
sVincidents,
p376
F1
sVin
p377
F21
sVconstancy,
p378
F1
sVif
p379
F1
sVdifferent
p380
F1
sVperhaps
p381
F2
sVsame
p382
F3
sVcopying
p383
F1
sVdifficult
p384
F1
sVinjured
p385
F1
sVused
p386
F1
sVforced
p387
F1
sVapplaud
p388
F1
sVconceived
p389
F1
sVexamine;
p390
F1
sVspenser
p391
F1
sVhand
p392
F1
sVnecessity
p393
F1
sVjudgment
p394
F1
sVpredecessors
p395
F1
sVconceived,
p396
F1
sVinventor.
p397
F1
sVi
F1
sVvariety
p398
F1
sVthese
p399
F1
sVpeculiarities
p400
F1
sVwithout
p401
F4
sVlength.
p402
F1
sVcensured
p403
F1
sVclaims
p404
F2
sVthe
p405
F59
sVmeet
p406
F1
sVbeing
p407
F1
sVable
p408
F2
sVschools
p409
F1
sVdominion,
p410
F1
sVskill
p411
F1
sVyet
p412
F2
sVsucceeding
p413
F1
sVwonder,
p414
F1
sVinfinitely
p415
F1
sVhad
p416
F3
sVrecommending
p417
F1
sVvolubility
p418
F1
sVadd
p419
F1
sVconduct,
p420
F1
sVhas
p421
F5
sVgave
p422
F1
sVdignity
p423
F1
sVsuffering
p424
F1
sVassisted;
p425
F1
sVburden
p426
F1
sVwiser
p427
F1
sVworld
p428
F1
sVlady
p429
F1
sVfound,
p430
F1
sVloss
p431
F1
sVsubmission,
p432
F1
sVlike
p433
F3
sVparticle
p434
F1
sVcollective
p435
F1
sVperpetual
p436
F1
sVindisputably
p437
F1
sVteach.
p438
F1
sVblamed,
p439
F1
sVresentment.
p440
F1
sVopinions,
p441
F1
sVadaptation
p442
F1
sVbecause
p443
F1
sVold
p444
F1
sVmethods
p445
F1
sVdisdain.
p446
F1
sVsome
p447
F3
sVproper
p448
F1
sVfable.
p449
F1
sVuniformity,
p450
F1
sVcompetitor
p451
F1
sVfor
p452
F5
sVnovelty
p453
F1
sVaudience
p454
F1
sVwhich,
p455
F1
sVprovidence
p456
F1
sVpronounces
p457
F1
sVallegory
p458
F1
sVrectitude
p459
F1
sVeither
p460
F2
sVbe
p461
F12
sVpoets
p462
F3
sVtermination,
p463
F1
sVpower
p464
F3
sVpeculiarly
p465
F1
sVvirtues
p466
F1
sVconveyed
p467
F1
sVby
p468
F15
sVshine
p469
F1
sVon
p470
F2
sVunderstanding,
p471
F1
sVextending
p472
F1
sVhimself,
p473
F1
sVof
p474
F61
sVdeserves
p475
F1
sVboldly
p476
F1
sVhomeric
p477
F1
sVtongue
p478
F1
sVitalian
p479
F1
sVor
p480
F7
sVsilence
p481
F1
sVequally
p482
F1
sVown
p483
F4
sVmultiplied,
p484
F1
sVfor,
p485
F1
sVinto
p486
F2
sVtwo
p487
F1
sVpacify
p488
F1
sVtimes,
p489
F1
sVstanza;
p490
F1
sVadditions
p491
F1
sVendeavours
p492
F1
sVoften
p493
F1
sVher
p494
F3
sVthere
p495
F4
sVsystems,
p496
F1
sVvirgil
p497
F1
sVway
p498
F1
sVwas
p499
F7
sVnaturally
p500
F1
sVanother;
p501
F1
sVhimself
p502
F2
sVattempted
p503
F1
sVbecoming
p504
F1
sVregard
p505
F1
sVbut
p506
F15
sVgain
p507
F1
sVanother,
p508
F1
sVear
p509
F1
sVwith
p510
F10
sVhe
p511
F8
sVwhether
p512
F1
sVthis,
p513
F1
sVus
p514
F1
sVshewn
p515
F1
sVsimilar
p516
F1
sVdisplay
p517
F1
sVexerting
p518
F1
sVuniversal
p519
F1
sVtenour
p520
F1
sVinfluence
p521
F1
sVeloquence,
p522
F1
sVlost,
p523
F1
sVimagination
p524
F2
sVas
p525
F7
sVhearers
p526
F1
sVat
p527
F7
sVqualities,
p528
F1
sVprevail
p529
F1
sVknowledge,
p530
F1
sVno
p531
F6
sVidleness
p532
F1
sVwhen
p533
F3
sVevent
p534
F1
sVfaculties.
p535
F1
sVother
p536
F5
sVknowledge;
p537
F1
sVpastoral;
p538
F1
sVunlettered
p539
F1
sVdeviate
p540
F1
sVdistribution,
p541
F1
sVperiod,
p542
F1
sVresembles
p543
F1
sVsolider,
p544
F1
sVdied
p545
F1
sVremote
p546
F1
sVage
p547
F1
sVvehicles
p548
F1
sVclamour,
p549
F1
sVwalked
p550
F1
sVaccosts
p551
F1
sVunexhausted,
p552
F1
sVsword,
p553
F1
sVhaired
p554
F1
sVfar
p555
F1
sVoriginal
p556
F1
sVonce
p557
F1
s.