ccollections
defaultdict
p1
(c__builtin__
float
p2
tRp3
Vall
p4
F3
sVjoyless,
p5
F1
sVdisgusting;
p6
F1
sVremarkably
p7
F2
sVday,
p8
F1
sVpassage
p9
F1
sVrecurrence
p10
F1
sVto
p11
F21
sVunder
p12
F2
sVsmile
p13
F1
sVador'd
p14
F1
sVrescue
p15
F1
sVvery
p16
F3
sVevery
p17
F5
sVsun,
p18
F1
sVregular,
p19
F1
sVminute
p20
F1
sVhelp,
p21
F1
sVrace
p22
F2
sVsounds,
p23
F1
sVimperfection.
p24
F1
sVallowed;
p25
F1
sVother,
p26
F1
sVcadences,
p27
F1
sVsecond
p28
F6
sVcompensates
p29
F1
sVconcludes
p30
F1
sVwho,
p31
F1
sVlarge;
p32
F2
sVerrors
p33
F1
sVadds
p34
F1
sVappear
p35
F2
sVcover
p36
F1
sV\u005c---this
p37
F1
sVlights
p38
F1
sVhim,
p39
F1
sVunderstood,
p40
F1
sVnew
p41
F2
sVmen
p42
F1
sVhere
p43
F3
sVunderstanding
p44
F1
sVfixed,
p45
F1
sVobjects
p46
F1
sVothers
p47
F1
sVhast
p48
F1
sVinvented
p49
F1
sVrespect
p50
F1
sVseek,
p51
F2
sVgreat
p52
F1
sVemploy'd
p53
F1
sVrests
p54
F1
sVmetre
p55
F1
sVenchanted,
p56
F1
sVhere,
p57
F1
sVunpleasing
p58
F1
sVversification;
p59
F1
sVmakes
p60
F1
sVpole:
p61
F1
sVgolden
p62
F1
sVlove
p63
F1
sVmerely
p64
F1
sVninth
p65
F1
sVtotal
p66
F1
sVsuperiority,
p67
F1
sVarriv'd
p68
F1
sVwings,
p69
F1
sVfrom
p70
F5
sVlicentious
p71
F1
sVtwo
p72
F4
sVfew
p73
F1
sVexamination
p74
F1
sVtherefore
p75
F4
sVthemselves
p76
F1
sVcriticks
p77
F1
sVstudiously
p78
F1
sVglobe,
p79
F1
sVcontinual
p80
F1
sVshafts
p81
F1
sVappointed
p82
F1
sVabundance
p83
F2
sVnone
p84
F1
sVsonnet,
p85
F1
sVthis
p86
F8
sVavoiding
p87
F1
sVwork
p88
F1
sVcan
p89
F2
sVregularly
p90
F1
sVgive
p91
F1
sVarise
p92
F1
sVexpressed,
p93
F1
sVnumbers
p94
F1
sVsense
p95
F1
sVfalls
p96
F2
sVrather
p97
F1
sVregions
p98
F1
sVline.
p99
F2
sVharmony,
p100
F2
sVfourth
p101
F2
sVmusick
p102
F1
sVdialect
p103
F1
sVstood
p104
F1
sVattend
p105
F1
sVmay
p106
F9
sVgenius.
p107
F1
sVvicious
p108
F1
sVadorn'd
p109
F1
sVwaves
p110
F1
sVlaw
p111
F1
sVuncrop'd
p112
F2
sVa
F11
sVshort
p113
F1
sVmad'st
p114
F2
sVomnipotent!
p115
F2
sVshady
p116
F2
sVlines
p117
F4
sVmislead
p118
F1
sVcannot
p119
F1
sVindeed
p120
F1
sVover
p121
F1
sVsoon
p122
F1
sVproportionate
p123
F1
sVthrough
p124
F1
sVcommitted
p125
F1
sVsuffer
p126
F1
sVbefore
p127
F1
sVhow
p128
F1
sV,
F10
sVharmless
p129
F1
sVdegrees
p130
F1
sVprose.
p131
F1
sVit,
p132
F1
sVaffected
p133
F1
sVpure
p134
F4
sVthan
p135
F3
sVunequal,
p136
F1
sVprejudices
p137
F1
sVthey
p138
F3
sVnot
p139
F10
sVpassions.
p140
F1
sVbut,
p141
F1
sVinversion
p142
F1
sValways
p143
F4
sVsufficiently
p144
F1
sVlabour,
p145
F1
sVundertook
p146
F1
sVeach
p147
F1
sVfound
p148
F1
sVdirectly
p149
F1
sVseries
p150
F1
sVentering
p151
F1
sVmeasure
p152
F1
sVour
p153
F3
sVout
p154
F1
sVgod
p155
F2
sVconfess
p156
F1
sVexcepting
p157
F1
sVday.
p158
F1
sVacting
p159
F1
sVweak.
p160
F2
sVtiresome
p161
F1
sVperception
p162
F1
sVdisposition
p163
F1
sVemploys,
p164
F1
sVorb
p165
F1
sVlanguage
p166
F1
sVlearning;
p167
F1
sVprecepts
p168
F1
sVfirst
p169
F5
sVmusick.
p170
F1
sValready
p171
F2
sVstriking
p172
F1
sVfeel
p173
F1
sVfaculty
p174
F1
sVone
p175
F3
sVabate,
p176
F1
sVdefects
p177
F1
sVdelicious
p178
F2
sVunworthy
p179
F1
sVsounds
p180
F1
sVopen
p181
F2
sVgiven
p182
F2
sVancient
p183
F1
sVcouplet
p184
F1
sVthoughts,
p185
F1
sVlove,
p186
F1
sVaccent
p187
F5
sVtheir
p188
F3
sVobservations
p189
F1
sVpassed
p190
F1
sVhorizon,
p191
F1
sVsyllables
p192
F3
sVtoo
p193
F2
sVlustre.
p194
F1
sVsound,
p195
F1
sVthat
p196
F12
sVexactly
p197
F1
sVpeculiar
p198
F2
sVmilton
p199
F5
sVthird
p200
F1
sVsyllable.
p201
F1
sVair,
p202
F2
sVinvention
p203
F1
sVwere
p204
F1
sVpowers
p205
F1
sVearth,
p206
F3
sVmelody,
p207
F1
sVand
p208
F46
sVenforced
p209
F1
sVfalse
p210
F1
sVloveless,
p211
F1
sVsubstantial
p212
F1
sVmeasure,
p213
F1
sVmeasure.
p214
F1
sVneed
p215
F1
sVfirst,
p216
F1
sVseem
p217
F1
sVany
p218
F4
sVideas
p219
F1
sVarriv'd,
p220
F1
sValso
p221
F2
sVwhich
p222
F13
sVfault.
p223
F1
sVorder,
p224
F1
sVcommitting
p225
F1
sVshall
p226
F4
sVsyllable
p227
F2
sVwho
p228
F7
sVexercised
p229
F1
sVmost
p230
F1
sVregular
p231
F1
sVpair
p232
F4
sVrelieving
p233
F1
sVconsidered
p234
F3
sVsometimes
p235
F3
sVflow
p236
F1
sVobserved,
p237
F1
sVbarren
p238
F1
sVdetriment
p239
F1
sVnight,
p240
F1
sVstrong.
p241
F1
sVjoining
p242
F1
sVacute,
p243
F1
sVstood,
p244
F1
sVrevels;
p245
F1
sVrectify'd,
p246
F1
sVearth
p247
F1
sVpleased
p248
F1
sVfifth
p249
F1
sVnearer
p250
F1
sVbusy
p251
F1
sVknowledge
p252
F1
sVoffensive
p253
F1
sVshould
p254
F2
sVopposed.
p255
F1
sVonly
p256
F2
sVbliss
p257
F1
sVtouched
p258
F2
sVlodge
p259
F2
sVinsufficient.
p260
F1
sVborrowed
p261
F1
sVdo
p262
F2
sVhis
p263
F8
sVmoon's
p264
F1
sVperceive
p265
F1
sVbear
p266
F1
sVcourage
p267
F1
sVperfection
p268
F1
sVwords
p269
F1
sVexpresses
p270
F1
sVcombinations
p271
F1
sVhim
p272
F2
sVunendear'd.
p273
F1
sVpromis'd
p274
F1
sVsky,
p275
F2
sVseldom
p276
F2
sVinverted;
p277
F1
sVfainter
p278
F1
sVwhere
p279
F3
sVsyllables,
p280
F3
sVart
p281
F3
sVtraveller,
p282
F1
sVviolated
p283
F1
sVgrammarians;
p284
F1
sVharmonious,
p285
F1
sVthis,
p286
F1
sVobserved
p287
F2
sVopposite
p288
F1
sVsee
p289
F1
sVallure
p290
F1
sVare
p291
F11
sVground,
p292
F1
sVground.
p293
F1
sVvoluntary
p294
F1
sVextol
p295
F2
sVprobably
p296
F1
sVreading
p297
F1
sVapproach
p298
F1
sVbought
p299
F1
sVwe
p300
F7
sVterms
p301
F1
sVaberration
p302
F1
sVdeliver
p303
F1
sVattention
p304
F3
sVweak
p305
F1
sVideas,
p306
F1
sVpoetical
p307
F1
sVreigns
p308
F1
sVdiminution
p309
F1
sVtyranny
p310
F1
sVboth
p311
F10
sVlast
p312
F1
sVthou
p313
F5
sVmany
p314
F1
sVbarely
p315
F1
sVdryden
p316
F1
sVcriticism,
p317
F1
sVroman
p318
F1
sVway,
p319
F1
sVcowley
p320
F1
sVwhole
p321
F1
sVpoint
p322
F1
sVsky
p323
F2
sVharlots,
p324
F1
sVtogether,
p325
F2
sVpartakers,
p326
F2
sVnow,
p327
F2
sVsensible
p328
F1
sVunusual
p329
F1
sVstrong
p330
F1
sVstudious
p331
F1
sVbeen
p332
F1
sVwhom
p333
F1
sVdangers
p334
F1
sVpoet
p335
F2
sVexactness
p336
F1
sVwants
p337
F2
sVlife
p338
F1
sVsenses
p339
F1
sVcadence.
p340
F1
sVheav'n.
p341
F1
sVinfinite,
p342
F1
sVheav'n,
p343
F1
sVreason,
p344
F1
sVthose
p345
F2
sVsound
p346
F1
sVwearied
p347
F1
sVdelight.
p348
F1
sVuncertain
p349
F2
sVimagination
p350
F1
sVthese
p351
F1
sVsingle
p352
F3
sVwill
p353
F6
sVsuppose
p354
F1
sVrigour
p355
F1
sVhave
p356
F2
sVis
p357
F15
sVuse,
p358
F1
sVthus
p359
F2
sVit
p360
F7
sVabound,
p361
F1
sVin
p362
F29
sVif
p363
F2
sVdifferent
p364
F1
sVauthor
p365
F1
sVthough,
p366
F1
sVsame
p367
F5
sVharmony
p368
F4
sVth'
p369
F1
sVfinite
p370
F1
sVcomposition
p371
F1
sVdifficult
p372
F2
sVinterdiction,
p373
F1
sVretrograde
p374
F1
sVupon
p375
F11
sVverse.
p376
F1
sVnecessity
p377
F1
sVinjures
p378
F1
sVscarcely
p379
F1
sVkept
p380
F1
sVthy
p381
F6
sVi
F2
sVmaker
p382
F2
sVthought
p383
F1
sVfinish'd,
p384
F1
sVwithout
p385
F3
sVthe
p386
F87
sV\u005c---
p387
F1
sVblessedness
p388
F1
sVmusical
p389
F1
sVgrossly
p390
F1
sVless
p391
F3
sVbeing
p392
F2
sVwhen
p393
F7
sVforsaken
p394
F1
sVrepose
p395
F1
sVverses
p396
F1
sVawake,
p397
F1
sVrest
p398
F2
sVyet
p399
F2
sVmixed.
p400
F1
sVmingling
p401
F1
sVhad
p402
F3
sVverse
p403
F2
sVhas
p404
F6
sVcited,
p405
F1
sVread
p406
F1
sVoffence
p407
F1
sVpossible
p408
F1
sVverse,
p409
F1
sVthee;
p410
F1
sVsleep.
p411
F2
sVwings
p412
F1
sVdesire
p413
F1
sVloss
p414
F1
sVnecessary
p415
F1
sVgift
p416
F2
sVstarry
p417
F1
sVperpetual
p418
F1
sVbeauties,
p419
F1
sVaudience
p420
F1
sV\u005c---his
p421
F1
sVnight
p422
F1
sVsoft
p423
F1
sVbecause
p424
F2
sVpoet;
p425
F1
sVlamp,
p426
F1
sVsome
p427
F3
sVenlightened,
p428
F1
sVparagraphs
p429
F1
sVpoet.
p430
F1
sVfor
p431
F4
sVpurple
p432
F1
sVthough
p433
F2
sVdoes
p434
F1
sVimputed
p435
F1
sVbe
p436
F12
sVknew
p437
F1
sVpower
p438
F1
sVdecline
p439
F1
sVparagraph,
p440
F1
sVturn'd
p441
F2
sVconveyed
p442
F1
sVresplendent
p443
F1
sVarbitrary,
p444
F1
sVby
p445
F16
sVon
p446
F1
sVcarried
p447
F1
sVbeheld;
p448
F1
sVof
p449
F47
sVmetrical
p450
F1
sVage,
p451
F1
sVmixed
p452
F1
sVor
p453
F8
sVequally
p454
F3
sVinto
p455
F1
sVwake,
p456
F1
sVperceptible,
p457
F1
sVrhyme,
p458
F1
sVthere
p459
F2
sVplace,
p460
F3
sVwas
p461
F1
sVhappy
p462
F1
sVround.
p463
F1
sVhimself
p464
F1
sVcapable,
p465
F1
sVcomplete
p466
F1
sVcrown
p467
F1
sVbut
p468
F9
sVanother.
p469
F1
sVanother,
p470
F1
sVhopes
p471
F1
sVline
p472
F3
sVear
p473
F1
sVwith
p474
F9
sVhe
p475
F4
sVdarkness,
p476
F1
sVmade
p477
F2
sVnotice,
p478
F1
sVfate.
p479
F1
sVus
p480
F7
sVobscure,
p481
F1
sVmore
p482
F8
sVdisplay
p483
F1
sVconstant
p484
F1
sVtaste
p485
F1
sVcertain
p486
F1
sVaccents
p487
F3
sVmoved
p488
F1
sVan
p489
F2
sVwords.
p490
F1
sVas
p491
F8
sVat
p492
F5
sVgoodness
p493
F2
sVordain'd
p494
F1
sVfill
p495
F2
sVwillingly
p496
F1
sVmutual
p497
F2
sVrequire,
p498
F1
sVpeace
p499
F1
sVgenerally
p500
F1
sVother
p501
F2
sVdeviate
p502
F1
sVindeed,
p503
F1
sVtopicks
p504
F1
sVvariation
p505
F1
sVitself,
p506
F1
sVaccent.
p507
F1
sV\u005c---a
p508
F1
sVdistichs,
p509
F1
sVperiod;
p510
F1
sVsuffers
p511
F1
sVrequired
p512
F1
sVrule
p513
F1
sVconferred
p514
F1
sVhaving
p515
F1
sVonce
p516
F2
s.