ccollections
defaultdict
p1
(c__builtin__
float
p2
tRp3
Vsluggishness
p4
F1
sVall
p5
F4
sVthey
p6
F3
sVless
p7
F1
sVmoments
p8
F1
sVfind
p9
F1
sVsoon
p10
F2
sVdiscovered
p11
F1
sVviolent
p12
F1
sVemotions
p13
F1
sVaffectation,
p14
F1
sVreprehension.
p15
F1
sVits
p16
F1
sVnegligence
p17
F1
sVwhose
p18
F1
sVtruth;
p19
F1
sVknowledge
p20
F1
sVtransacted
p21
F1
sVtrue
p22
F1
sVartificial
p23
F1
sVhad
p24
F1
sVsugar
p25
F4
sVto
p26
F7
sVonly
p27
F5
sVother
p28
F2
sVeasy
p29
F2
sVsafety
p30
F1
sVhas
p31
F2
sVprattle,
p32
F1
sVingredient
p33
F1
sVmitigates
p34
F1
sVtorture
p35
F1
sVtalk,
p36
F1
sVvery
p37
F2
sVdistort
p38
F1
sVastonished,
p39
F1
sVevery
p40
F1
sVplease,
p41
F1
sVspirit
p42
F1
sVnot
p43
F1
sVworld
p44
F1
sVquickened,
p45
F1
sVasperity,
p46
F1
sVoverpowered;
p47
F1
sVnor
p48
F1
sVgratified,
p49
F1
sVnecessary
p50
F1
sVsame
p51
F1
sValways
p52
F1
sVpunch.
p53
F1
sVconvenience
p54
F1
sVfiery,
p55
F1
sVeither
p56
F1
sVanother.
p57
F1
sVbecome
p58
F1
sVthem,
p59
F1
sVfrigidity
p60
F1
sVlooks
p61
F1
sVframed
p62
F1
sVlimpid
p63
F1
sVforce
p64
F1
sVoften
p65
F1
sVvapid,
p66
F1
sVbitterness
p67
F1
sVdetection
p68
F1
sVadulation
p69
F1
sVused
p70
F1
sVare
p71
F5
sVproper
p72
F2
sVour
p73
F1
sVacid
p74
F1
sVemployment
p75
F1
sVaptly
p76
F1
sVflattery.
p77
F2
sVout
p78
F1
sVdiscouloured
p79
F1
sVdull
p80
F1
sVsublimed
p81
F1
sVthirst
p82
F2
sVintranced
p83
F1
sVcontent
p84
F1
sVgenius
p85
F1
sVvolatile
p86
F1
sVsupplied.
p87
F1
sVimpart
p88
F1
sVwithout
p89
F1
sVneither
p90
F1
sVquenched,
p91
F1
sVgratifications
p92
F1
sVbe
p93
F3
sVwe
p94
F3
sVwho
p95
F2
sVhumble
p96
F1
sVbusiness
p97
F1
sVnature
p98
F1
sVnever
p99
F1
sVcivility,
p100
F1
sVpunch
p101
F3
sVfaults,
p102
F1
sVignorance
p103
F1
sVwater
p104
F2
sVconveyed
p105
F1
sVgrowth,
p106
F1
sVcomplaisance;
p107
F1
sVsoftness
p108
F1
sVrepresented
p109
F1
sVvivacity
p110
F1
sVby
p111
F7
sVbehaviour
p112
F1
sVlanguage
p113
F1
sVmost
p114
F1
sVpleased.
p115
F1
sVof
p116
F31
sVlusciousness
p117
F1
sVconversation
p118
F2
sVavoided.
p119
F1
sVallaying
p120
F1
sVor
p121
F4
sVfirst
p122
F1
sVsubstances,
p123
F1
sVpungency
p124
F1
sVjuices,
p125
F1
sVplainest
p126
F1
sVdelighted
p127
F1
sVfancy
p128
F1
sVone
p129
F2
sVtill
p130
F1
sVwit
p131
F3
sVdiction;
p132
F1
sVconvince.
p133
F1
sVwit,
p134
F1
sVassociated
p135
F1
sVcontradiction,
p136
F1
sVquenching
p137
F1
sVwant.
p138
F1
sVchat,
p139
F1
sVuse
p140
F1
sVfrom
p141
F1
sVfigure
p142
F1
sVwould
p143
F1
sVtruth.
p144
F1
sVcuriosity
p145
F1
sVinformed
p146
F1
sVdue
p147
F1
sVraillery,
p148
F1
sVcall
p149
F1
sVtoo
p150
F1
sVrecommend
p151
F1
sVmore
p152
F2
sVwants
p153
F1
sVlife
p154
F1
sVrather
p155
F1
sVemblem
p156
F1
sVinnocent
p157
F1
sVpride,
p158
F1
sVthat
p159
F4
sVpunish
p160
F1
sVcompany
p161
F1
sVexactly
p162
F1
sVtasteless.
p163
F1
sVrequired
p164
F1
sVaddress,
p165
F1
sVroused,
p166
F1
sVheat
p167
F1
sVrepresentative
p168
F1
sVblood.
p169
F1
sVrequisite
p170
F1
sVan
p171
F1
sVwith
p172
F5
sVthan
p173
F2
sVfancy,
p174
F1
sVhe
p175
F2
sVharshness
p176
F1
sVdrank
p177
F1
sVoppression,
p178
F1
sVthis
p179
F1
sVpleasing;
p180
F1
sVnauseate,
p181
F1
sVwill
p182
F5
sVwhile
p183
F1
sVconversation;
p184
F1
sVcan
p185
F3
sVwere
p186
F1
sVartless
p187
F1
sVmy
p188
F1
sVtemper
p189
F1
sVpall
p190
F1
sVand
p191
F31
sVacids
p192
F1
sVconstant
p193
F1
sVshrinks
p194
F1
sVacidity
p195
F1
sVtaste
p196
F1
sVis
p197
F14
sVhearer
p198
F1
sVthus
p199
F4
sVit
p200
F1
sVsustenance
p201
F1
sVgentle
p202
F1
sVas
p203
F1
sVmanner
p204
F1
sVhave
p205
F2
sVwater.
p206
F1
sVqualities.
p207
F1
sVsits
p208
F1
sVspritely
p209
F1
sVif
p210
F1
sVagitates
p211
F1
sVunwelcome
p212
F1
sVlemon
p213
F1
sVseverity
p214
F1
sVin
p215
F2
sVno
p216
F1
sVacrimony
p217
F1
sVmake
p218
F1
sVdesue
p219
F1
sVbowl
p220
F1
sVhated,
p221
F1
sVroughness
p222
F1
sVmerriment;
p223
F1
sVunmixt
p224
F1
sVluscious
p225
F1
sVwhich
p226
F4
sVinstead
p227
F1
sVspeaks
p228
F1
sVidlenese
p229
F1
sVcensure,
p230
F1
sVnobody
p231
F1
sVunless
p232
F1
sVcopiously
p233
F1
sVhieroglyphick
p234
F1
sVinflame
p235
F1
sVcourtesy
p236
F1
sVbut
p237
F5
sVitself.
p238
F1
sVvein
p239
F1
sVman
p240
F2
sVa
F1
sVnatural
p241
F1
sVfor
p242
F2
sVpalate.
p243
F1
sVallays
p244
F1
sVsatire,
p245
F1
sVsometimes
p246
F1
sVacquaintance,
p247
F1
sVface
p248
F1
sVcensure;
p249
F1
sVchief
p250
F1
sVpalate;
p251
F1
sVpoured
p252
F1
sVqualities
p253
F2
sVmeekness
p254
F1
sVpenetration
p255
F1
sVthe
p256
F33
sValone,
p257
F1
sVdreaded,
p258
F1
s.