ccollections
defaultdict
p1
(c__builtin__
float
p2
tRp3
Vlimited
p4
F1
sVall
p5
F6
sVremarkable
p6
F2
sVverses:
p7
F1
sVnicetics
p8
F1
sVfour
p9
F2
sVhath
p10
F4
sVpolished;
p11
F1
sVpreface
p12
F1
sVconsists
p13
F2
sVallowances
p14
F1
sVreligious
p15
F1
sVsubjects
p16
F1
sV(in
p17
F2
sVseemed
p18
F1
sVwhose
p19
F2
sV"at
p20
F1
sVhelpe
p21
F2
sVconscience
p22
F1
sVappears
p23
F1
sVsloth,
p24
F1
sVreverend
p25
F1
sVdisposal
p26
F2
sVbyrthe
p27
F1
sVswan
p28
F1
sVfut
p29
F1
sVtrivial
p30
F1
sVlaughing
p31
F1
sVrecurrence
p32
F1
sVto
p33
F50
sVedward
p34
F2
sVpresent
p35
F2
sVunder
p36
F3
sVlord
p37
F1
sVviz.
p38
F1
sVthat,
p39
F1
sVtrusti
p40
F1
sVdivision
p41
F1
sV(tho'
p42
F1
sVgray,
p43
F1
sVlaws
p44
F2
sVvery
p45
F3
sVis,
p46
F1
sV"he
p47
F1
sVfriers
p48
F2
sVevery
p49
F3
sVtraced
p50
F1
sV420
p51
F1
sVvoit
p52
F2
sVlittle
p53
F2
sV1561.
p54
F1
sVwipe
p55
F1
sVmortimer's
p56
F1
sVdegraded,
p57
F1
sVmarvellous
p58
F1
sVknight
p59
F4
sVhaving
p60
F1
sVmake
p61
F1
sVlanguage,
p62
F1
sVclearly.
p63
F1
sVstript
p64
F1
sVhys
p65
F2
sVaesura
p66
F1
sVquick
p67
F1
sVclergy,
p68
F1
sVsounds.
p69
F1
sVaugustines.
p70
F1
sVappear.
p71
F1
sVcorrect
p72
F1
sVus,
p73
F1
sVtwelve
p74
F2
sVother,
p75
F1
sVintrepide
p76
F1
sVother.
p77
F1
sVcros
p78
F1
sV27.
p79
F1
sVhystory
p80
F2
sVdyscended
p81
F1
sVsege
p82
F1
sVsecond
p83
F1
sVfabulous
p84
F2
sVsooth
p85
F1
sVgo
p86
F1
sVconcludes
p87
F1
sVhystori
p88
F1
sVfeigns
p89
F1
sVwhat
p90
F3
sVtrop
p91
F1
sVplays
p92
F1
sVchrist
p93
F2
sVmention,
p94
F1
sVdolefully
p95
F1
sVdesirous
p96
F1
sVmayster
p97
F1
sVsaw
p98
F1
sVremain
p99
F1
sV18
p100
F1
sVabove
p101
F1
sV;
F1
sVever
p102
F2
sVcan
p103
F1
sV"shee
p104
F1
sVfull
p105
F2
sVdegree
p106
F1
sVshropshire,
p107
F1
sVappropriated
p108
F1
sVfrench
p109
F9
sVleo
p110
F1
sVpause
p111
F4
sVlet
p112
F1
sVpersonified
p113
F1
sVtemple.
p114
F1
sValong
p115
F2
sVstrong
p116
F1
sVlegend
p117
F1
sVchange
p118
F1
sVhomme
p119
F2
sVhym.
p120
F1
sVgreat
p121
F1
sVroyall
p122
F1
sVreynynge
p123
F1
sVversification.
p124
F1
sVexample
p125
F1
sVmetre.
p126
F1
sVword,
p127
F1
sVstepped;
p128
F1
sVcompyled,
p129
F1
sVpublished
p130
F1
sVusually
p131
F2
sVpainting,
p132
F1
sV;"
p133
F1
sVintitled
p134
F5
sVking
p135
F1
sVcomposed
p136
F1
sVnamed
p137
F2
sVflodden,
p138
F1
sVhumour
p139
F1
sVbaguleigh
p140
F1
sVdrye
p141
F1
sVmarked
p142
F1
sVhadd
p143
F1
sVbrought
p144
F1
sVtill
p145
F1
sVfollower
p146
F1
sVgest
p147
F1
sVsweete;
p148
F1
sVii.
p149
F1
sVtitle-page
p150
F1
sV"highe
p151
F1
sVenter
p152
F1
sVstanleys
p153
F1
sVcommonly
p154
F1
sVbested
p155
F1
sVfrom
p156
F11
sVtakes
p157
F1
sVwould
p158
F2
sVdistinct
p159
F2
sVsuperstition.
p160
F1
sVgive
p161
F3
sVtwo
p162
F7
sVfew
p163
F2
sVfaileth
p164
F1
sVtherefore
p165
F2
sVlady;
p166
F1
sV6
F1
sVhymself.
p167
F1
sValexandrine,
p168
F2
sVmore
p169
F4
sVsort
p170
F2
sVbarbarous
p171
F1
sVholy
p172
F1
sVswan,"
p173
F1
sVunpleasing;
p174
F1
sVbagily
p175
F2
sV[or
p176
F1
sVstrictness
p177
F1
sVenglyshe
p178
F1
sVerle
p179
F1
sVignorant
p180
F1
sVfar
p181
F2
sVbroke
p182
F1
sVaux
p183
F1
sVconclude;
p184
F1
sVfancy,
p185
F1
sVhad
p186
F3
sVme
p187
F5
sVhigh
p188
F1
sVdoggrel,
p189
F1
sVaugment
p190
F1
sVheard
p191
F1
sVthis
p192
F31
sVwork
p193
F1
sVmi
p194
F1
sVpour
p195
F1
sVhistori
p196
F1
sVms.
p197
F1
sVtale."
p198
F1
sVlinially
p199
F1
sVbeyonde
p200
F1
sVtweyne,
p201
F1
sVfollowing
p202
F1
sVmaking
p203
F4
sVmy
p204
F5
sV"all-
p205
F1
sVofte
p206
F1
sVil
p207
F2
sV(with
p208
F1
sV1350.
p209
F1
sVnatif
p210
F1
sVfriers,
p211
F1
sVcouplet
p212
F1
sVneglected
p213
F1
sVmanye.
p214
F1
sVpieces
p215
F1
sVheare
p216
F1
sVready
p217
F1
sVdefects,
p218
F1
sVdominic,
p219
F1
sVimitation
p220
F1
sVlorde
p221
F3
sVmouth,
p222
F1
sVchevelere
p223
F1
sVevidently
p224
F2
sVcrye
p225
F1
sV,"
p226
F1
sVharmony;
p227
F1
sVdefective
p228
F1
sVdivided
p229
F1
sVsong
p230
F2
sVladye,
p231
F1
sVcorruptions
p232
F1
sVhow
p233
F2
sVwriters
p234
F1
sVlow
p235
F1
sVsuperadded,
p236
F1
sVtild
p237
F1
sVmyzte
p238
F1
sVfrenshe
p239
F1
sVcadence
p240
F3
sVsimplicity
p241
F1
sVrise
p242
F1
sVmaternal
p243
F1
sVdescription
p244
F1
sVrude
p245
F1
sVrudd
p246
F1
sVmay
p247
F2
sVrhyme
p248
F2
sVl'
p249
F6
sVafter
p250
F5
sVcontaining
p251
F2
sVcollection
p252
F1
sVstate,
p253
F1
sVindependent
p254
F1
sVproduce
p255
F1
sVlax
p256
F1
sVblood
p257
F1
sVpause,
p258
F1
sVsuch
p259
F3
sVpause.
p260
F1
sVlonde
p261
F1
sVhighe
p262
F1
sVa
F42
sVsweetened,
p263
F1
sVchiefly
p264
F1
sVlight
p265
F3
sVallegoric
p266
F2
sVlines
p267
F4
sVartful
p268
F1
sVwrit
p269
F1
sViii.
p270
F1
sVspecies
p271
F2
sVchayne
p272
F1
sVopinion
p273
F1
sVorder
p274
F2
sVmieux
p275
F1
sV"in
p276
F1
sVwould.
p277
F1
sVpassages
p278
F1
sVsonnes
p279
F1
sVrhymes:
p280
F1
sVduke
p281
F2
sVhand,
p282
F1
sVjohn
p283
F1
sVdamsel
p284
F1
sVowene
p285
F1
sVyears
p286
F1
sVconcomitants
p287
F1
sVprovydence
p288
F1
sVthrough
p289
F1
sVearly,
p290
F1
sVversification
p291
F3
sVmentioned
p292
F1
sVindeed
p293
F1
sVsmiling
p294
F1
sVsuffer
p295
F1
sVits
p296
F10
sVbefore
p297
F2
sVdwelleth."
p298
F1
sV20
p299
F1
sV21
p300
F1
sV22
p301
F1
sVrudenesse
p302
F1
sVexact
p303
F1
sVimperssion,
p304
F1
sV,
F16
sVrogers's
p305
F1
sVwriters;
p306
F1
sVline,
p307
F1
sVdegrees
p308
F1
sVsaxon
p309
F2
sVbye
p310
F1
sVhappened
p311
F2
sVit.
p312
F3
sVthen
p313
F3
sVthem
p314
F3
sVreaders,
p315
F1
sVtyberius
p316
F1
sVyeux
p317
F1
sVnoe
p318
F1
sVgrand
p319
F1
sVunyversally
p320
F1
sVit;
p321
F1
sVthey
p322
F9
sVinstead
p323
F1
sVnot
p324
F5
sVnow
p325
F4
sVdowne
p326
F2
sVconquerour
p327
F1
sVmatched
p328
F1
sVdown
p329
F1
sV9.
p330
F1
sVswan,
p331
F1
sVname
p332
F1
sVfitts
p333
F2
sVwene
p334
F1
sVkyng
p335
F1
sVle
p336
F4
sValso.
p337
F1
sVbelive."
p338
F1
sVunconfined
p339
F1
sVdid
p340
F2
sVentirely
p341
F1
sVen
p342
F1
sVbooke
p343
F2
sVpoem,
p344
F4
sVnoble
p345
F1
sVparts,
p346
F1
sVseries
p347
F2
sVlowted
p348
F1
sVreduce
p349
F2
sVprinciples
p350
F1
sVproduced,
p351
F1
sVswannes
p352
F1
sVliterature
p353
F1
sVblee,
p354
F1
sVtimes!
p355
F1
sVour
p356
F6
sVwynkin
p357
F1
sVcrosse
p358
F1
sVsounds
p359
F1
sVspecial
p360
F1
sVout
p361
F1
sVententifly
p362
F1
sVliving
p363
F1
sVjerusalem],
p364
F1
sVtime;
p365
F1
sVhangeth:
p366
F1
sVgod
p367
F2
sVrobert
p368
F1
sVforty
p369
F1
sVtime,
p370
F1
sVthus,
p371
F3
sVencourage
p372
F1
sVcrowsey
p373
F1
sV7
F1
sVnarrative
p374
F2
sVforth
p375
F4
sVmade:
p376
F1
sVred
p377
F1
sVcommon
p378
F1
sVhente.
p379
F1
sVemperour
p380
F1
sVrest
p381
F1
sVgentell
p382
F1
sVreader,
p383
F1
sVascertain
p384
F1
sVbook,
p385
F1
sVmodish
p386
F1
sVswanne,
p387
F1
sV1513:
p388
F1
sVmonk,
p389
F1
sV"
F2
sVcontrivance
p390
F1
sVgodhed
p391
F1
sVput
p392
F1
sVpoems
p393
F3
sVdresseth
p394
F1
sVbeginning
p395
F3
sVheroic
p396
F4
sVretained
p397
F3
sVidioms,
p398
F1
sVstiring
p399
F1
sVprofessions
p400
F1
sVcantry
p401
F1
sVlength
p402
F3
sVploughman,
p403
F1
sVplace
p404
F1
sVstyre
p405
F1
sVfigments
p406
F1
sVchylded
p407
F1
sVfirst
p408
F5
sV458
p409
F1
sVdignity:
p410
F1
sVblossomes
p411
F1
sVdwelling
p412
F1
sVeche
p413
F1
sVplainly
p414
F1
sVierlam
p415
F1
sVrann
p416
F1
sVnumber
p417
F1
sVone
p418
F4
sVunaccompanied
p419
F1
sVxx
p420
F1
sVblank
p421
F1
sV1514-5.
p422
F1
sValliterative
p423
F6
sVvisions
p424
F3
sVpossible;
p425
F1
sVaffords
p426
F1
sVfeb.
p427
F1
sVweke
p428
F1
sVcity
p429
F1
sVgiven
p430
F2
sVancient
p431
F9
sVfrith,
p432
F1
sVtheir
p433
F10
sVlove,
p434
F1
sVst.
p435
F2
sVhumour,
p436
F1
sVchyvalry,
p437
F1
sVscansion;
p438
F1
sV2
F2
sVolde
p439
F1
sVstuffed
p440
F1
sVrentes
p441
F1
sVairy
p442
F1
sVwhite
p443
F1
sVlookes;
p444
F1
sVfinal
p445
F2
sVspeaking
p446
F1
sVgives
p447
F1
sVmeme
p448
F1
sVsixteenth
p449
F2
sVvision,
p450
F1
sVfirst,
p451
F1
sVgrant
p452
F2
sVryche
p453
F1
sVthat
p454
F43
sVwiecliff,
p455
F1
sVnobody
p456
F1
sVjesu,
p457
F1
sVburlesque
p458
F1
sVpart
p459
F2
sVwas,
p460
F1
sVstall."
p461
F1
sVeditions
p462
F1
sVquarto.
p463
F1
sVcopy
p464
F1
sVpeculiar
p465
F2
sVsayde
p466
F2
sVbegins
p467
F2
sV10
p468
F1
sVkind
p469
F8
sV12
p470
F1
sV15
p471
F1
sV14
p472
F1
sVroberte
p473
F1
sVedition
p474
F1
sV19
p475
F1
sVprovoste.
p476
F1
sVlength,
p477
F1
sVsolemnity
p478
F1
sVdepends
p479
F1
sVliffe
p480
F1
sVi
F9
sVsayd
p481
F1
sVown,
p482
F1
sVwere
p483
F10
sVdang
p484
F1
sVseates
p485
F1
sVnaturally
p486
F1
sVderby,
p487
F1
sVand
p488
F80
sVside."
p489
F1
sVsees
p490
F1
sVran
p491
F1
sVrogers,
p492
F1
sVmeasure
p493
F3
sVcrede.
p494
F1
sVsay
p495
F1
sVfaut
p496
F2
sVadapted,
p497
F1
sVhave
p498
F16
sVx.
p499
F1
sVrecover
p500
F1
sVillustryous
p501
F2
sVtells
p502
F1
sVetre
p503
F1
sVcomplete
p504
F1
sVhelyas,
p505
F1
sVrealm
p506
F1
sVgeneral
p507
F1
sVuncouth
p508
F1
sVpoint,
p509
F1
sVsevere
p510
F1
sVinstructed
p511
F1
sVfrancis,
p512
F1
sVinexplicable:
p513
F1
sVmr.
p514
F1
sVwhich,
p515
F2
sVinstructs
p516
F1
sVconfronted
p517
F1
sVwhich
p518
F15
sVneither
p519
F1
sVresembling
p520
F1
sVso
p521
F9
sVmot
p522
F1
sVmany
p523
F1
sVbountie
p524
F1
sVexactly
p525
F2
sVshall
p526
F3
sVsyllable
p527
F1
sVbuckynghame."
p528
F1
sVenglish
p529
F3
sVbitterlye
p530
F1
sVtranslator
p531
F1
sVmost
p532
F1
sVregular
p533
F1
sVprinted
p534
F1
sVletter
p535
F1
sV.....at
p536
F1
sVsee,
p537
F1
sVenfant
p538
F1
sVwhy
p539
F1
sVwerke.
p540
F1
sVstands
p541
F1
sVthroughe
p542
F1
sVrichard
p543
F1
sVtonge
p544
F1
sVpoetry:
p545
F1
sVproud
p546
F1
sVflow
p547
F1
sVbattle,
p548
F1
sVprepare
p549
F1
sVfeilde
p550
F1
sVoccasion
p551
F1
sVlatest
p552
F1
sVcame
p553
F1
sVendles
p554
F1
sVhonour)
p555
F1
sVparticularly
p556
F3
sVone)
p557
F1
sVauthors
p558
F1
sVprynce
p559
F2
sVmerit
p560
F1
sVtoujours
p561
F2
sVbring
p562
F1
sVbright
p563
F1
sVrelation
p564
F1
sVinconsistent
p565
F1
sVbattle
p566
F1
sVlaments
p567
F1
sVattributes
p568
F1
sVfine
p569
F2
sVfind
p570
F1
sVground
p571
F1
sVflowers
p572
F2
sVquoted
p573
F2
sVrestrictions,
p574
F1
sVjustice
p575
F1
sVwith
p576
F23
sVverse
p577
F6
sVtents,
p578
F1
sVtriumphaunt
p579
F1
sVgrace
p580
F2
sVbrighter
p581
F1
sVonly
p582
F3
sVcomparison
p583
F1
sVblack
p584
F2
sVfiend
p585
F1
sVcountrie,
p586
F1
sV8
F1
sVstain
p587
F1
sVanapestic
p588
F3
sVyearded
p589
F1
sVpoets,
p590
F1
sVworde
p591
F1
sVgratify
p592
F1
sVhir
p593
F1
sVhis
p594
F15
sVheaven,
p595
F1
sVbuckyngham,
p596
F1
sVcobler
p597
F1
sVsecular
p598
F1
sVde
p599
F4
sVreligion.
p600
F1
sV13
p601
F1
sVhonde
p602
F1
sVharmes
p603
F1
sVfamous
p604
F1
sVcannot
p605
F2
sVhie
p606
F1
sVdistinctly
p607
F1
sVsmite.
p608
F1
sVspede
p609
F1
sVdu
p610
F1
sVhim
p611
F3
sVimbellishment
p612
F1
sV1384.
p613
F1
sVtourned
p614
F1
sVgray
p615
F1
sVruns
p616
F1
sVexhibiting
p617
F1
sV17
p618
F1
sVsyllables;
p619
F1
sV16
p620
F1
sVmodern
p621
F2
sVcaesura
p622
F2
sVdate,
p623
F1
sVmen,
p624
F1
sVderive
p625
F1
sVhad;
p626
F1
sVrhymes,
p627
F1
sVshe
p628
F4
sVcontain
p629
F1
sVcarmelites
p630
F1
sVthem,
p631
F1
sVwhere
p632
F2
sVburgens
p633
F1
sVbody
p634
F1
sVoryant,
p635
F1
sVburst
p636
F1
sVstill
p637
F1
sVhorrible
p638
F1
sVtrewe
p639
F1
sVup
p640
F3
sVobserved
p641
F1
sV21.
p642
F1
sVpassyons
p643
F1
sVbale,
p644
F1
sVcollege
p645
F1
sVare
p646
F9
sVthys
p647
F1
sVstanley
p648
F1
sVencomiums
p649
F1
sVbest
p650
F2
sVsubject
p651
F1
sVappear
p652
F1
sVpeculiarities
p653
F1
sVsaid
p654
F2
sV"a
p655
F1
sVpedigree
p656
F1
sVaway
p657
F1
sVhemistics.
p658
F1
sVgentleman
p659
F1
sVyet
p660
F2
sVcolours
p661
F1
sVwritten
p662
F5
sV:
F1
sVpriest,
p663
F1
sVbetween
p664
F1
sVcapacite
p665
F1
sVprobably
p666
F2
sVtho'
p667
F2
sVun,
p668
F1
sVimprynted
p669
F1
sVromance,
p670
F1
sVwe
p671
F3
sVnever
p672
F1
sVrecently
p673
F1
sVparallels
p674
F1
sVdo
p675
F1
sVgarrick's
p676
F1
sVprynce,
p677
F1
sVattention
p678
F2
sVhowever
p679
F1
sVincident
p680
F1
sVpoetical
p681
F1
sVreigns
p682
F1
sVmerry
p683
F1
sVsea,
p684
F1
sVpaines
p685
F1
sVencrease
p686
F1
sVvrai
p687
F1
sVboth
p688
F2
sVclye
p689
F1
sVpiece
p690
F1
sVlast
p691
F3
sValways
p692
F1
sVthou
p693
F1
sVdesyrynge
p694
F1
sVsesar
p695
F1
sVadventures
p696
F1
sVagainst
p697
F1
sVjudeas
p698
F1
sVmolburne.
p699
F1
sVway,
p700
F1
sVdistinction
p701
F1
sVcotydyally
p702
F1
sVthose,
p703
F1
sVwhole
p704
F1
sVamong
p705
F2
sVchristen
p706
F1
sVcadence,
p707
F1
sVheaded
p708
F1
sVvein
p709
F1
sVseems
p710
F3
sVeach
p711
F1
sVravages
p712
F1
sV[i.e.
p713
F2
sVfait,
p714
F1
sVnumbers,
p715
F1
sVexhibits
p716
F1
sVscottish
p717
F2
sVthroughout
p718
F1
sVsense,
p719
F1
sVactes
p720
F1
sVpoem
p721
F8
sVarts
p722
F1
sVall,
p723
F1
sVmuch
p724
F2
sVrhyme:
p725
F1
sVunion
p726
F1
sVappears,
p727
F1
sVthree
p728
F1
sVbeen
p729
F6
sV.
F6
sVwhom
p730
F2
sVrhyme.
p731
F1
sVwolde
p732
F1
sVpoet
p733
F2
sVgreatlye
p734
F1
sVdame
p735
F3
sVgrasse
p736
F1
sVlife
p737
F3
sVdescribe
p738
F1
sVgoodli
p739
F1
sVparaitre
p740
F1
sVking,
p741
F1
sVfourmed
p742
F1
sVam
p743
F1
sVconcerning
p744
F1
sVc
F1
sVancestors:
p745
F1
sVelse
p746
F1
sVinnovation,
p747
F1
sVmaitre,
p748
F1
sVhevene
p749
F1
sVheaven.
p750
F1
sVfellow
p751
F1
sVspirit
p752
F2
sVthose
p753
F1
sVgracious
p754
F1
sVapplied
p755
F2
sVpierce
p756
F6
sVsave
p757
F1
sVmss.
p758
F1
sVthese
p759
F6
sVfolke.
p760
F1
sVmeans
p761
F1
sVsyllables
p762
F1
sVlife;
p763
F1
sVwritten:
p764
F1
sVbearne
p765
F1
sVwill
p766
F3
sVinhabitt.
p767
F1
sVwhile
p768
F1
sVdints
p769
F1
sVsuppose
p770
F1
sVapplies
p771
F1
sVwritten,
p772
F1
sVbankes,
p773
F1
sVwritten)
p774
F1
sVsucces
p775
F1
sVcorrespondence
p776
F1
sVtyme.
p777
F1
sVcounty.
p778
F1
sVsatisfying
p779
F1
sVcentury
p780
F1
sVmetre
p781
F8
sVis
p782
F26
sVowen
p783
F1
sVthus
p784
F4
sVit
p785
F25
sVploughman's
p786
F1
sVitself
p787
F1
sVgothic
p788
F1
sVattributed
p789
F1
sVin
p790
F64
sVprose
p791
F1
sVreturn
p792
F1
sVto'd
p793
F1
sVnewlye
p794
F1
sVif
p795
F1
sVdifferent
p796
F1
sVitaly
p797
F1
sVseverity
p798
F1
sVbeen,
p799
F1
sVauthor
p800
F6
sVperhaps
p801
F1
sVseek
p802
F1
sVwhyte
p803
F1
sVsame
p804
F5
sVwherein
p805
F1
sVexcells
p806
F1
sVharmony
p807
F2
sVbiding
p808
F1
sV9
F1
sVwhiche
p809
F3
sVseveral
p810
F2
sVlusty
p811
F1
sVmeets
p812
F1
sVused
p813
F4
sV'them
p814
F1
sVbranches;
p815
F1
sVballads
p816
F1
sVservauntes
p817
F1
sVage,
p818
F1
sVhemistics
p819
F2
sVeffect
p820
F1
sVsyr
p821
F1
sVassigne
p822
F1
sVmoiening
p823
F1
sV"then
p824
F1
sVmentions
p825
F1
sVgenuine
p826
F1
sVmalvern
p827
F1
sVconceyved
p828
F1
sVoff
p829
F1
sVdestruction
p830
F1
sVstudied,
p831
F1
sVdaughter,
p832
F1
sVpainting.
p833
F1
sVhereforde,
p834
F1
sVwele
p835
F1
sVfully
p836
F1
sVcigne],
p837
F1
sVwereth
p838
F1
sVknowen
p839
F1
sVcontest
p840
F1
sVcounty
p841
F1
sVwithout
p842
F1
sVperson
p843
F1
sVway
p844
F2
sVrome
p845
F1
sVhearkened
p846
F1
sVsept.
p847
F1
sVcensured
p848
F1
sV11
p849
F1
sVclaims
p850
F1
sVthe
p851
F171
sV"our
p852
F1
sVinstigacion
p853
F1
sVusual
p854
F1
sVabsurdities
p855
F1
sVless
p856
F1
sVbeing
p857
F4
sVsubjoined
p858
F1
sV(save
p859
F1
sVechone
p860
F1
sVaudace
p861
F1
sVverses
p862
F1
sVdoubts,
p863
F1
sVentendement."---a
p864
F1
sVcohorted
p865
F1
sVpylat
p866
F1
sVvices
p867
F1
sVnorthampton,
p868
F1
sVdeath
p869
F6
sVdemeure
p870
F1
sVhills
p871
F1
sVreformer
p872
F1
sV27th
p873
F1
sVadmission
p874
F1
sVlangland,
p875
F1
sVfared
p876
F1
sVlangland.
p877
F1
sVserve,
p878
F1
sVpoesy,
p879
F1
sVinternal
p880
F2
sVvisions,
p881
F1
sVpag.
p882
F1
sVvolumes,
p883
F1
sVprelate
p884
F1
sVhas
p885
F3
sVremaining
p886
F1
sVought
p887
F1
sVshalt
p888
F1
sVfrendshipe
p889
F1
sV...
p890
F1
sVmarch
p891
F1
sVunpolished
p892
F1
sVdignity
p893
F1
sVroom.
p894
F1
sVcheshire-
p895
F1
sVverse,
p896
F1
sVcleobury
p897
F1
sVgod.
p898
F1
sVgod,
p899
F2
sVresolves
p900
F2
sVverse;
p901
F1
sVpuyssaunt
p902
F2
sVamply
p903
F1
sVlady
p904
F1
sV1550
p905
F1
sVconfine
p906
F1
sVlike
p907
F2
sVlost
p908
F1
sVherytage
p909
F1
sVplowman.
p910
F1
sVshould
p911
F2
sVyonder
p912
F1
sVserves
p913
F1
sVillusion
p914
F1
sVmiraculous
p915
F1
sVsplendor
p916
F1
sVjames
p917
F1
sVtranslated
p918
F1
sVblisse
p919
F1
sVplowman:
p920
F1
sVpage
p921
F2
sVcentury.
p922
F1
sVgreened
p923
F1
sVshee
p924
F3
sVold
p925
F8
sVoften
p926
F1
sVclassical
p927
F1
sVverification.
p928
F1
sVobliged
p929
F1
sVvillage
p930
F1
sVsome
p931
F4
sVaccount
p932
F1
sVlibrary
p933
F1
sVcurteis
p934
F1
sVborn
p935
F1
sValliteration,
p936
F2
sVcheshire,
p937
F1
sVengrosing
p938
F1
sVsixe
p939
F1
sVdistichs,)
p940
F1
sVplowman
p941
F1
sVbefore,
p942
F1
sVswallowed
p943
F1
sVproceeding
p944
F1
sVvulgare
p945
F1
sVfor
p946
F12
sVancestors
p947
F1
sVcast
p948
F1
sVdoes
p949
F1
sVweldynge
p950
F1
sVsprong
p951
F1
sVely,
p952
F1
sVsuperiority
p953
F1
sVepic
p954
F1
sVwhome
p955
F2
sVbe
p956
F7
sVpoets
p957
F6
sVwho
p958
F6
sVstateliness
p959
F1
sVstafforde,
p960
F1
sVthinstigacion
p961
F1
sVretains
p962
F1
sVfrancic
p963
F2
sVmensonge
p964
F1
sVperpendicular
p965
F1
sVmetre,
p966
F2
sVexemply-ficacoyn
p967
F1
sValthough
p968
F1
sVform:
p969
F1
sVpeer
p970
F1
sVplowman's
p971
F1
sVby
p972
F22
sVornament;
p973
F1
sVon
p974
F8
sVabout
p975
F1
sVflourished
p976
F2
sVhimself,
p977
F1
sVof
p978
F147
sVdistich
p979
F1
sVgreater
p980
F1
sVfrythe
p981
F1
sVlatin
p982
F1
sVdeserves
p983
F1
sVwhence
p984
F1
sVpains
p985
F1
sVinjuste
p986
F2
sVor
p987
F9
sVworcestershire.
p988
F1
sVtheire
p989
F1
sVherode
p990
F1
sVpeter]
p991
F1
sVfuir
p992
F1
sVsoules;
p993
F1
sVinto
p994
F8
sVinveighs
p995
F1
sVthousand."
p996
F1
sVmeekely
p997
F1
sVdifference,
p998
F1
sVlively
p999
F2
sVparties
p1000
F1
sVoxford,
p1001
F1
sVdistichs
p1002
F1
sVplural,
p1003
F1
sVtholed;
p1004
F1
sVdeal
p1005
F1
sVher
p1006
F5
sVthere
p1007
F2
sVoriginal;
p1008
F1
sVlong
p1009
F1
sVherte
p1010
F1
sVdistichs)
p1011
F1
sVfought
p1012
F1
sVdied
p1013
F2
sVcopland)
p1014
F1
sVhem
p1015
F1
sVtranslate
p1016
F1
sVwas
p1017
F18
sVlengeth
p1018
F1
sVpretends
p1019
F1
sV22.
p1020
F1
sVhimself
p1021
F1
sVkynge,
p1022
F1
sVinterest
p1023
F1
sVcapable.
p1024
F1
sVimmorality
p1025
F1
sVneckes,
p1026
F1
sVbelieve
p1027
F1
sVvehicle
p1028
F1
sVvertuous
p1029
F2
sVbut
p1030
F8
sVit,
p1031
F1
sVvolume
p1032
F1
sVrelucent
p1033
F1
sVsame,
p1034
F1
sVfaders
p1035
F1
sVdrones.
p1036
F1
sVear
p1037
F1
sVtrue
p1038
F1
sVaccount:
p1039
F1
sVhands.
p1040
F1
sVhe
p1041
F12
sVsonn:
p1042
F1
sVlayd
p1043
F1
sVcircumstantial
p1044
F1
sVprynte
p1045
F1
sVallegorical
p1046
F1
sVevident
p1047
F1
sVproportion,
p1048
F1
sVignorance,
p1049
F1
sVvariations
p1050
F1
sVthis,
p1051
F1
sVus
p1052
F6
sVun
p1053
F2
sVaccustomed
p1054
F1
sVjesus
p1055
F1
sValliteration
p1056
F2
sV"newly
p1057
F1
sVsimilar
p1058
F1
sVcalled
p1059
F1
sVwell-known
p1060
F1
sVearls
p1061
F1
sVgone
p1062
F1
sVquantity.
p1063
F1
sVlived
p1064
F1
sVwhyll
p1065
F1
sVboughes
p1066
F1
sVal
p1067
F1
sVan
p1068
F4
sVas
p1069
F24
sVsometime
p1070
F1
sVat
p1071
F10
sVcurious
p1072
F1
sVbegins,
p1073
F1
sVnere
p1074
F1
sVbishop
p1075
F1
sVcotton
p1076
F1
sVredder
p1077
F1
sV(roberte
p1078
F1
sVfolio
p1079
F1
sVhavynge
p1080
F1
sVfaithful
p1081
F1
sVno
p1082
F6
sVvolume,
p1083
F1
sVwhereas
p1084
F1
sVcreed,
p1085
F1
sVwhen
p1086
F4
sVhavyng
p1087
F1
sVfield
p1088
F1
sVother
p1089
F7
sVmarks
p1090
F1
sVornamented
p1091
F1
sVorders,
p1092
F1
sVlonge,
p1093
F1
sVedwarde
p1094
F1
sVconclusion
p1095
F1
sVpoor
p1096
F1
sVpicture
p1097
F1
sVhyznes
p1098
F1
sVdenote
p1099
F1
sVhonnete
p1100
F1
sV"ugly
p1101
F1
sVlangland
p1102
F1
sVsylver
p1103
F1
sVwilliam
p1104
F1
sVapplied,
p1105
F1
sVdygne
p1106
F1
sVest
p1107
F1
sVsubjects,
p1108
F1
sVbreathed
p1109
F1
sVempere.
p1110
F1
sVprudent
p1111
F1
sVdistichs,
p1112
F2
sV&c.
p1113
F3
sVbegan
p1114
F2
sVoriel
p1115
F1
sVflights,
p1116
F1
sVlonger
p1117
F3
sVwife
p1118
F1
sVthus:
p1119
F1
sVwylle
p1120
F1
sVrose,
p1121
F1
sVoriginal
p1122
F1
sVjewes
p1123
F1
sVtragic
p1124
F1
sVtime
p1125
F3
sVoffspring
p1126
F1
sVabounds
p1127
F1
sV"the
p1128
F1
sVdefend
p1129
F1
s.