ccollections
defaultdict
p1
(c__builtin__
float
p2
tRp3
Vrepresent
p4
F1
sVall
p5
F15
sVconsider
p6
F1
sVpictures,
p7
F1
sVlimited
p8
F1
sVinvariable
p9
F2
sVdesirable
p10
F1
sVrules,
p11
F1
sVexisting
p12
F1
sVleads
p13
F1
sVbringing
p14
F1
sVpupils.
p15
F1
sVhigher
p16
F1
sVinvariably
p17
F1
sVbest;
p18
F1
sVexcluded
p19
F1
sVcompetition
p20
F1
sVadmiration,
p21
F1
sVwhose
p22
F3
sVsculptors;
p23
F1
sVitalians;
p24
F1
sVweild
p25
F1
sVreferring
p26
F1
sVthus,
p27
F1
sVrecommended,
p28
F1
sVyoung
p29
F1
sVpainters
p30
F4
sVto
p31
F132
sVcommon,
p32
F1
sVfavourite
p33
F1
sVoutwards
p34
F1
sVposition,
p35
F1
sVunder
p36
F1
sVdiscovering
p37
F1
sVbelonging
p38
F1
sVobjected,
p39
F1
sVexpression,
p40
F1
sVand,
p41
F2
sVfar
p42
F4
sVlocal,
p43
F1
sVdistort
p44
F1
sVheard
p45
F1
sVgloomy
p46
F1
sVevery
p47
F15
sVfall
p48
F1
sVexhibition,
p49
F1
sVlittle
p50
F2
sVexact
p51
F2
sVminute
p52
F3
sVroad;
p53
F1
sVfounded
p54
F1
sVschool
p55
F2
sVheaven
p56
F1
sVdigesting,
p57
F1
sVpresented
p58
F1
sVdid
p59
F2
sVdescend
p60
F1
sVheart.
p61
F1
sVpraise:
p62
F1
sVpainter,
p63
F4
sVreminding
p64
F1
sVthis
p65
F34
sVexcellence
p66
F1
sVperceives
p67
F2
sVminerva,
p68
F1
sVbeauty.
p69
F3
sVenoble
p70
F1
sVgraces
p71
F1
sVimperfection.
p72
F1
sVdeformed
p73
F1
sVsmaller
p74
F1
sVsays
p75
F3
sVher.
p76
F1
sVexplain.
p77
F1
sVother,
p78
F1
sVappearance
p79
F1
sVelse.
p80
F1
sVobject,
p81
F1
sVobject.
p82
F2
sVsymmetry,
p83
F1
sVsecond
p84
F1
sVdesign
p85
F2
sVinto
p86
F3
sVdignity,
p87
F2
sVpractice.
p88
F1
sVsymmetry;
p89
F1
sVdeviating
p90
F1
sVexpressive
p91
F1
sVdisfigure
p92
F1
sVeven
p93
F3
sVwho,
p94
F1
sVwhat
p95
F17
sVknees,
p96
F1
sVnature,
p97
F16
sVnature.
p98
F2
sVfavour
p99
F3
sVhim.
p100
F1
sVhim,
p101
F1
sVcharacters,
p102
F2
sVlarge,
p103
F1
sVabove
p104
F2
sVnew
p105
F2
sV;
F1
sVdirected.
p106
F1
sVever
p107
F3
sVmethod
p108
F2
sVcontrast
p109
F1
sVnature;
p110
F3
sVregions,
p111
F1
sVfull
p112
F2
sVmechanic
p113
F1
sVdegree
p114
F1
sVesteems
p115
F1
sVnever
p116
F7
sVsonnetteer,
p117
F1
sVmethods,
p118
F1
sVhere
p119
F2
sVunderstanding
p120
F2
sVpractised,
p121
F1
sVobjects
p122
F3
sVthem
p123
F11
sVothers
p124
F1
sValone
p125
F2
sVprofitable,
p126
F1
sVsay,
p127
F1
sVobserving
p128
F2
sVconclude;
p129
F1
sVindividual,
p130
F1
sVgreat
p131
F20
sVaddresses
p132
F1
sVlikewise,
p133
F1
sVravish
p134
F1
sVreceive
p135
F1
sVstudy
p136
F4
sVpartakes
p137
F1
sVshades
p138
F1
sVexperience
p139
F1
sVaeternitatem
p140
F1
sVfond
p141
F1
sVquarrelling
p142
F1
sVpainter
p143
F6
sVpermit
p144
F1
sVcorrect
p145
F2
sVopinion
p146
F1
sV"who
p147
F1
sVmistake
p148
F1
sVmakes
p149
F2
sVbeautiful,
p150
F1
sVbeautiful.
p151
F1
sVindustry.
p152
F1
sVchaste
p153
F1
sVwriter
p154
F1
sVprojection
p155
F1
sVexhibit
p156
F1
sVmerely
p157
F1
sVprefer
p158
F1
sVwhile
p159
F2
sVapt
p160
F2
sVimagined:
p161
F1
sVposterity
p162
F1
sVnecessity
p163
F1
sVmovement
p164
F1
sVteach
p165
F1
sVgiven,
p166
F1
sVfame.
p167
F1
sVdurer,
p168
F1
sVfrom
p169
F29
sVvivid
p170
F1
sVwould
p171
F5
sVdistinct
p172
F3
sVnext
p173
F1
sVfigurative
p174
F1
sVcomparing
p175
F1
sVcall
p176
F1
sVcharacter,
p177
F1
sVright,
p178
F1
sVthemselves
p179
F1
sVinclination,
p180
F1
sVpresiding
p181
F1
sVmore
p182
F9
sVsort
p183
F1
sVdelicacy
p184
F1
sVinitiated
p185
F1
sVcomparison
p186
F3
sVlower;
p187
F1
sVbecomes
p188
F2
sVsister
p189
F1
sVparadox,
p190
F1
sVroused,
p191
F1
sVwarm
p192
F1
sVparticular
p193
F2
sVheroick
p194
F1
sVmust
p195
F12
sVme
p196
F1
sVblemishes
p197
F1
sVnone
p198
F2
sVthings,
p199
F2
sVsphere
p200
F2
sVpursue
p201
F1
sVus.
p202
F1
sVoriginally
p203
F1
sVus,
p204
F3
sVmeans,
p205
F1
sVflorist
p206
F1
sVdeformity
p207
F1
sVcan
p208
F10
sVpraise
p209
F3
sVspectator.
p210
F1
sVart.
p211
F1
sVsets
p212
F1
sVmy
p213
F2
sVdegrees,
p214
F1
sVpronounce
p215
F1
sVimitation
p216
F3
sVbeautiful
p217
F3
sVfigure
p218
F3
sVgive
p219
F5
sVmeaner
p220
F2
sVfar,
p221
F1
sVattainment;
p222
F1
sVdisproportion,
p223
F1
sVdefects.
p224
F1
sVprofessor
p225
F2
sVattain
p226
F2
sVwant
p227
F1
sVsense
p228
F2
sVsought
p229
F1
sVnone,
p230
F1
sVspecies
p231
F4
sVadvancing
p232
F1
sVclass.
p233
F2
sVgladiator,
p234
F2
sVcourt
p235
F1
sVdancing-masters,
p236
F1
sVdeserves
p237
F1
sVcountry
p238
F1
sVget
p239
F1
sVoffspring
p240
F1
sV1
F1
sVhow
p241
F2
sVcorrectness
p242
F1
sVmodels
p243
F1
sVclass;
p244
F1
sVplace
p245
F1
sVornaments,
p246
F1
sVacquisition.
p247
F1
sVacquisition,
p248
F1
sVsimplicity
p249
F3
sVpleasure
p250
F1
sVbeauty
p251
F10
sVsingular
p252
F1
sVmay
p253
F20
sVsacrifice
p254
F1
sVafter
p255
F1
sVgenius.
p256
F1
sVpainful,
p257
F1
sVpermanent
p258
F1
sVwrong
p259
F1
sVproportion,
p260
F1
sVshare
p261
F1
sVsuch
p262
F7
sVheroes
p263
F1
sVpredilection
p264
F1
sVman
p265
F3
sVa
F57
sVcontrived
p266
F1
sVshort
p267
F1
sV"he,"
p268
F1
sVoutline
p269
F1
sVconscious
p270
F1
sVendeavoured
p271
F2
sVdirected."
p272
F1
sVgreatest
p273
F1
sVnatural,
p274
F1
sVchildhood
p275
F1
sVentitles
p276
F1
sVcourage
p277
F1
sVso
p278
F13
sVgrande
p279
F1
sVallow
p280
F1
sVsuggest
p281
F1
sVpreside,
p282
F1
sVrepresentation
p283
F2
sVoperate
p284
F1
sVmake
p285
F3
sVfurnish
p286
F1
sVnearly
p287
F1
sVneglect
p288
F1
sVbeauties
p289
F1
sVhelp
p290
F1
sVproduces
p291
F1
sVapollo,
p292
F1
sVover
p293
F1
sVvary
p294
F1
sVthese,
p295
F1
sVhopeless,
p296
F1
sVdown,
p297
F2
sVancients
p298
F3
sVmentioned
p299
F1
sVcold
p300
F1
sVstill
p301
F3
sVdeficiencies,
p302
F1
sVits
p303
F7
sVbefore
p304
F3
sVperfect
p305
F10
sVsuperior
p306
F3
sVstyle
p307
F2
sVoccasions,
p308
F1
sVthen,
p309
F1
sVworld;
p310
F1
sVeducation;
p311
F1
sVshewed
p312
F1
sV,
F2
sVhim
p313
F7
sVforms
p314
F9
sVdistinguishing
p315
F1
sVdisguise
p316
F1
sVphidias;
p317
F1
sVnobler
p318
F1
sVmight
p319
F1
sVsingular.
p320
F1
sVovercome
p321
F1
sVhappened
p322
F1
sVantient
p323
F2
sVcharacter
p324
F1
sVit,
p325
F2
sVitaly.
p326
F1
sVaffected
p327
F1
sVdescriptive
p328
F1
sVviews
p329
F2
sVindefatigable
p330
F1
sVweakness
p331
F1
sVpractice
p332
F1
sVwarranted,
p333
F1
sVimpressing
p334
F1
sVrecollection
p335
F1
sVeffects
p336
F1
sVthey
p337
F16
sVambition
p338
F2
sVnot
p339
F21
sVemployed
p340
F1
sVnow
p341
F2
sVnor
p342
F7
sVinstructions
p343
F1
sVeasily
p344
F1
sVthan,
p345
F1
sVname
p346
F2
sVlabour?
p347
F1
sValways
p348
F3
sVpuzzle
p349
F1
sVall,
p350
F1
sVeducation.
p351
F1
sVfigures,
p352
F1
sVeloquence
p353
F1
sVsufficiently
p354
F2
sVhabits
p355
F4
sVcapricious
p356
F1
sVmode
p357
F1
sVtruth
p358
F2
sVeach
p359
F7
sVform;
p360
F2
sVfound
p361
F3
sVentirely
p362
F1
sVunlearn,
p363
F1
sVall;
p364
F1
sVside
p365
F1
sVchildhood,
p366
F1
sV(the
p367
F1
sVinstability
p368
F1
sVparts,
p369
F1
sVepigrammatist,
p370
F1
sVreduce
p371
F1
sVidea
p372
F18
sVshort,
p373
F1
sVtherefore,
p374
F1
sVtaught
p375
F2
sVmany;
p376
F1
sVseparating
p377
F2
sVour
p378
F8
sVcounteract
p379
F1
sVbeyond
p380
F1
sVepithet
p381
F1
sVfourteenth;
p382
F1
sVout
p383
F2
sVprinciples
p384
F1
sVprecept,
p385
F1
sVdivide
p386
F1
sVopened
p387
F2
sVweak,
p388
F1
sVcicero,
p389
F1
sVyour
p390
F3
sVtime,
p391
F1
sVobservations.
p392
F1
sVlaid
p393
F2
sVinvestigation
p394
F2
sVprecision
p395
F1
sVis,
p396
F4
sVclearing
p397
F1
sVmethodizing,
p398
F1
sVhave,
p399
F3
sVobservations,
p400
F2
sVshe
p401
F2
sVsatirist,
p402
F1
sVturning
p403
F1
sVpredominant,
p404
F1
sVqualifications
p405
F1
sVenforcing
p406
F1
sVeternal
p407
F1
sVdiffer
p408
F1
sVstandard
p409
F1
sVprinciple.
p410
F1
sVprinciple,
p411
F3
sVcarried
p412
F1
sVcorrects
p413
F1
sVenlightened
p414
F1
sVcustoms
p415
F1
sVbusiness
p416
F1
sVcompositions
p417
F1
sVcare
p418
F2
sVattention,
p419
F1
sVinstructors.
p420
F1
sVfixed
p421
F1
sVcontemplation
p422
F1
sVmind.
p423
F1
sVlanguage
p424
F1
sVperhaps,
p425
F2
sVcould
p426
F3
sVhair-dressers,
p427
F1
sVgusto
p428
F1
sVtimes
p429
F1
sVcaprice
p430
F1
sVthing
p431
F1
sVsimplicity;
p432
F2
sVretain
p433
F1
sVperfection,
p434
F1
sVapproaching
p435
F1
sVexhibited
p436
F2
sVperhaps;
p437
F1
sVfirst
p438
F3
sVappear.
p439
F1
sVcharacters
p440
F2
sVornamental
p441
F1
sVdiscourse,
p442
F1
sVbut,
p443
F1
sVlong
p444
F3
sVsober
p445
F1
sVportraits;
p446
F1
sVopen
p447
F1
sVeye,
p448
F1
sVillustrate
p449
F1
sVartist,
p450
F1
sVcommend,
p451
F1
sVgiven
p452
F2
sVabstract,
p453
F1
sVexcrescences
p454
F1
sVbe,
p455
F1
sVundoubtedly
p456
F1
sVleading
p457
F2
sVvulgar
p458
F2
sVadopted
p459
F1
sVnecessity,
p460
F1
sVtheir
p461
F18
sVairs
p462
F2
sVtoo
p463
F1
sVtime
p464
F1
sVtravelled
p465
F1
sVperfectly
p466
F1
sVeasier
p467
F1
sVspeaking
p468
F2
sVgives
p469
F3
sVjustly
p470
F2
sVexcellent
p471
F2
sVfirst,
p472
F1
sVdiscriminations,
p473
F1
sVthat
p474
F63
sVacquire
p475
F1
sVserve
p476
F2
sVforms;
p477
F2
sVinstance,
p478
F2
sVpart
p479
F4
sVnatural
p480
F2
sVcopy
p481
F1
sVconvinced
p482
F2
sVthan
p483
F7
sVill-understood
p484
F1
sVsupposes
p485
F1
sVauthority;
p486
F1
sVwatteau;
p487
F1
sVenabled
p488
F3
sVlikely
p489
F1
sVaims
p490
F1
sVheavens,
p491
F1
sVpoetry.
p492
F2
sVclasses
p493
F1
sVcontrary
p494
F1
sVsupposed
p495
F1
sVto,
p496
F1
sVwere
p497
F6
sVhead,
p498
F2
sVearth.
p499
F1
sVpoetry,
p500
F2
sVresult
p501
F2
sVand
p502
F110
sVfashion
p503
F3
sVexercise,
p504
F1
sVexperience,
p505
F1
sVmind
p506
F6
sV(and
p507
F1
sVobjects,
p508
F2
sVsay
p509
F1
sVyou,
p510
F2
sVmanner
p511
F2
sVhave
p512
F31
sVimperfect
p513
F1
sVseem
p514
F2
sVexperience;
p515
F2
sVany
p516
F12
sVperplex
p517
F1
sVhitherto
p518
F1
sVlie
p519
F1
sVstrength
p520
F2
sVgenuine
p521
F2
sVunadulterated
p522
F1
sVfashion,
p523
F2
sVdestitute
p524
F1
sVfashion.
p525
F1
sVdeficient.
p526
F1
sVhomer's
p527
F1
sVideas
p528
F1
sVbattles
p529
F1
sValso
p530
F1
sVideal
p531
F4
sVlabour
p532
F1
sVbest
p533
F3
sVwhich
p534
F48
sVdiscriminations
p535
F1
sVenglish,
p536
F1
sVfavoured.
p537
F1
sVclub
p538
F1
sVregard
p539
F1
sVage;
p540
F1
sVdeceive
p541
F1
sVthough
p542
F10
sVcustoms,
p543
F1
sVdiscerning
p544
F1
sVobject
p545
F6
sVreach
p546
F2
sVleave
p547
F1
sVmost
p548
F6
sVlearns
p549
F1
sVsucceed:
p550
F1
sVtall
p551
F1
sVnothing
p552
F2
sVsupremely
p553
F1
sVphilosophic
p554
F1
sVdifficulties,
p555
F1
sVthe
p556
F254
sVaffections,
p557
F1
sVattain.
p558
F1
sVpursue.
p559
F2
sVidea;
p560
F1
sVpassion,
p561
F1
sVconsidered
p562
F1
sVforce,
p563
F1
sVenthusiastic
p564
F1
sVgather
p565
F1
sVcover
p566
F1
sVobserved,
p567
F1
sVscience,
p568
F1
sVpossesses
p569
F2
sVmerry-making,
p570
F1
sVcareless
p571
F1
sVimitation,
p572
F1
sVridiculous
p573
F1
sVprinciple
p574
F3
sVdeformity,
p575
F1
sVnot,
p576
F1
sVpainting
p577
F1
sVcannot
p578
F3
sVpath,
p579
F1
sValone.
p580
F1
sVprecise
p581
F1
sVcalled
p582
F1
sVconsists;
p583
F1
sVdeformity.
p584
F2
sVparticularly
p585
F2
sValbert
p586
F1
sVlewis
p587
F1
sVsupported
p588
F1
sVone,
p589
F4
sVlet
p590
F1
sVreputation.
p591
F2
sVtaylors,
p592
F1
sVbring
p593
F2
sVwould,
p594
F1
sVminuteness,
p595
F1
sVconsists,
p596
F1
sVmean,
p597
F1
sVcareful
p598
F2
sVdetermined
p599
F1
sVadventitious,
p600
F1
sVfind
p601
F1
sVone
p602
F20
sVtrue,
p603
F1
sVslow
p604
F1
sVknowledge
p605
F5
sVgenius
p606
F6
sVclaude
p607
F1
sVwith
p608
F15
sVexplain
p609
F1
sVhope
p610
F1
sVproportion
p611
F2
sVbehind
p612
F1
sVuniversal
p613
F1
sVshould
p614
F6
sV(such
p615
F1
sVinstructed,
p616
F1
sVonly
p617
F8
sV"neither
p618
F1
sVblemishes;
p619
F1
sVattained
p620
F1
sVenthusiasm
p621
F1
sVvandervelde;
p622
F1
sVlocal
p623
F2
sVdesign;
p624
F1
sVpainter's
p625
F1
sVpoets,
p626
F1
sVlived
p627
F1
sVdo
p628
F2
sVhis
p629
F35
sVgoes
p630
F1
sVcompounded
p631
F1
sVmeans
p632
F3
sVbeau
p633
F1
sVexpress
p634
F3
sVkind
p635
F3
sVtruly
p636
F1
sVheaven;
p637
F1
sVperfection
p638
F5
sV2
F1
sVinspiration,
p639
F2
sVascended
p640
F1
sVcollector
p641
F1
sVfrench;
p642
F1
sVhad,
p643
F1
sVselecting,
p644
F1
sVartist
p645
F8
sVgeneral,
p646
F1
sVseldom
p647
F1
sVgenerally
p648
F1
sVthem;
p649
F2
sVstile
p650
F2
sVremove
p651
F1
sVthings.
p652
F1
sVperfect.
p653
F2
sVcommon
p654
F4
sVprobably,
p655
F2
sVactivity
p656
F1
sVthem,
p657
F4
sVwhere
p658
F1
sVjudge,
p659
F1
sVview
p660
F1
sVcharacteristics
p661
F1
sVhogarth)
p662
F1
sVset
p663
F2
sVart
p664
F5
sVoften
p665
F1
sVhabit
p666
F1
sVacquired
p667
F8
sVviews,
p668
F1
sVrespect
p669
F1
sVup
p670
F1
sVobserved
p671
F1
sVview,
p672
F1
sVsee
p673
F2
sVindividual
p674
F3
sVare
p675
F30
sVbrouwer,
p676
F1
sVdo.
p677
F1
sVclose
p678
F2
sVgladiator
p679
F1
sVacquires
p680
F1
sVwalking
p681
F1
sVsaid
p682
F3
sVcapacity
p683
F1
sVdesires
p684
F1
sVexceedingly;
p685
F1
sVfigure,
p686
F2
sVornament
p687
F1
sVhumbler
p688
F1
sVorators,
p689
F1
sVcontinually
p690
F1
sVmind,
p691
F4
sVstate
p692
F2
sVunpleasing.
p693
F1
sVvarious
p694
F7
sVbetween
p695
F1
sVprobably
p696
F1
sVneither
p697
F2
sVknowing
p698
F2
sVphidias,
p699
F1
sVwe
p700
F16
sVmerit,
p701
F2
sVterms
p702
F2
sVideas;
p703
F1
sVnature
p704
F9
sVmerit.
p705
F1
sVexcellence;
p706
F1
sVattention
p707
F3
sVhowever
p708
F2
sVdeclamation,
p709
F1
sVcountenance
p710
F1
sVpoetical
p711
F1
sVfrench
p712
F1
sVdistinguish
p713
F4
sVcontemplation.
p714
F1
sVrest:
p715
F1
sVexclusion
p716
F1
sVboth
p717
F1
sVenables
p718
F1
sVacquiring
p719
F1
sVcontemporaries
p720
F1
sVdiligent
p721
F1
sVdisdain
p722
F1
sVmany
p723
F8
sVtaking
p724
F1
sVescape
p725
F1
sVequal
p726
F1
sVminds
p727
F2
sVdistinguished
p728
F1
sVassure
p729
F1
sVdignifying
p730
F1
sVfigures
p731
F5
sVrhetoricians
p732
F1
sVhowever,
p733
F2
sVwhole
p734
F2
sVfinds
p735
F1
sVlearn.
p736
F1
sVamong
p737
F2
sVknew,
p738
F1
sVconfer.
p739
F1
sVseems
p740
F1
sVexcited,
p741
F1
sVgallantries
p742
F1
sVmanners
p743
F1
sVhigh
p744
F1
sVsatisfaction
p745
F1
sVinquisitive
p746
F1
sVpastorals,
p747
F1
sVregulated
p748
F1
sVparticularities,
p749
F1
sVstile,
p750
F1
sVsense,
p751
F1
sVspeak
p752
F1
sVbetter
p753
F2
sVarts
p754
F2
sVproceeded
p755
F2
sVtread
p756
F1
sVcapable
p757
F2
sVunion
p758
F1
sVoverlook
p759
F1
sVvasari
p760
F1
sVbeen
p761
F10
sVshortening
p762
F1
sVshells,
p763
F1
sVmuch
p764
F5
sVpractised
p765
F3
sVteniers;
p766
F1
sVlikewise
p767
F1
sVassertions.
p768
F1
sVprecision,
p769
F2
sVwaste
p770
F1
sVwarmth
p771
F1
sVdefine
p772
F1
sVwants
p773
F1
sVchastised
p774
F1
sVlife
p775
F1
sVmodern
p776
F4
sVaera
p777
F1
sVless-
p778
F1
sVam
p779
F1
sVthousand
p780
F1
sVformed
p781
F2
sVexcite
p782
F1
sVinstant,
p783
F1
sVdeter
p784
F1
sVmoment
p785
F1
sVmanner,
p786
F2
sVobserve
p787
F1
sVnobleness
p788
F1
sVreason.
p789
F1
sVreason,
p790
F1
sVcatch
p791
F1
sVgeneral
p792
F9
sVthose
p793
F10
sVstanding.
p794
F1
sVapplied
p795
F1
sVdivisions
p796
F1
sVpractise
p797
F1
sVlook
p798
F1
sVcontemplated
p799
F1
sVimagination
p800
F1
sVthese
p801
F9
sVplain
p802
F1
sVart;
p803
F3
sVbeauty,
p804
F4
sVdescribe,
p805
F1
sVsingle
p806
F1
sVvalue
p807
F1
sVpromotes
p808
F1
sVwill
p809
F17
sVparticular.
p810
F1
sVwords,
p811
F2
sVsuppose
p812
F3
sVdeformities
p813
F1
sVuncommon,
p814
F1
sVlife,
p815
F2
sVunderstood,
p816
F1
sVart,
p817
F9
sVfurther,
p818
F1
sVcarved
p819
F1
sVexamines
p820
F1
sVfinis.
p821
F1
sValmost
p822
F2
sVuse.
p823
F1
sVis
p824
F64
sVstrait
p825
F1
sVthus
p826
F7
sVit
p827
F29
sVraise
p828
F1
sVchest,
p829
F1
sVsea-pieces
p830
F1
sVpretentions,
p831
F1
sVconducted.
p832
F1
sVin
p833
F76
sVremarked,
p834
F1
sVenlarges
p835
F1
sVsaid,
p836
F1
sVmoderns.
p837
F1
sVif
p838
F11
sVveil,
p839
F1
sVdifferent
p840
F5
sVkind,
p841
F1
sVcreator,
p842
F1
sVacquired,
p843
F1
sVgrant
p844
F1
sVperhaps
p845
F1
sVthings
p846
F1
sVapollo
p847
F1
sVbelong
p848
F1
sVmode;
p849
F1
sVpattern,
p850
F1
sVpainting;
p851
F5
sVostade,
p852
F1
sVexercised,
p853
F1
sVcomposition
p854
F2
sVgrandeur
p855
F2
sVdifficult
p856
F2
sVused
p857
F2
sVtemporary
p858
F1
sVsame
p859
F15
sVforced
p860
F1
sVconceived
p861
F1
sVupon
p862
F8
sVeffect
p863
F1
sVhand
p864
F1
sVmankind.
p865
F1
sVrunning
p866
F1
sVprejudices
p867
F3
sVstudent
p868
F4
sVpainting,
p869
F2
sVforgot,
p870
F1
sVfrequently
p871
F1
sVlaborious
p872
F1
sVcountry.
p873
F1
sVscarcely
p874
F1
sVtask
p875
F4
sVrecourse
p876
F2
sVunlike
p877
F1
sVi
F18
sVerror,
p878
F1
sVpossessed
p879
F3
sVvariety
p880
F2
sVwell
p881
F1
sVspent
p882
F2
sVwithout
p883
F4
sVthought
p884
F1
sVwhich,
p885
F4
sVthing.
p886
F1
sVforms,
p887
F2
sVdressed
p888
F1
sVvery
p889
F1
sVposition
p890
F2
sVmodel
p891
F1
sVreward
p892
F1
sVdrawing
p893
F1
sVleft
p894
F1
sVendeavour
p895
F1
sVjust
p896
F2
sVless
p897
F2
sVbeing
p898
F4
sVable
p899
F4
sVguided
p900
F1
sVrest
p901
F2
sVpingo.
p902
F1
sVseen
p903
F2
sVperfect,
p904
F1
sVefforts,
p905
F1
sVhuman
p906
F7
sVfeet.
p907
F1
sVskill
p908
F2
sVyet
p909
F5
sVstyle,
p910
F1
sVlandscapes
p911
F1
sVdeceiving
p912
F1
sVservilely
p913
F1
sVhad
p914
F6
sVvague
p915
F1
sVwisdom,
p916
F1
sVsimple
p917
F1
sVadd
p918
F4
sVbelongs
p919
F1
sVcombine
p920
F1
sVeasy
p921
F1
sVstudent,
p922
F1
sVextensive
p923
F1
sVhas
p924
F20
sVexcited
p925
F1
sVought
p926
F5
sVrank.
p927
F1
sVreal
p928
F2
sVaddress;
p929
F1
sVsight;
p930
F1
sVrules
p931
F1
sVrank,
p932
F1
sVindetermined
p933
F1
sVpossible
p934
F1
sVconfines
p935
F1
sVpossibly
p936
F1
sVknowledge,
p937
F1
sVknow
p938
F1
sVpresume
p939
F1
sVsorry,
p940
F1
sVconfined
p941
F2
sVappearing
p942
F1
sVaiming
p943
F1
sVjupiter,
p944
F1
sVopinion,
p945
F1
sVvanity
p946
F1
sVdesire
p947
F2
sVacquainted
p948
F1
sVnecessary
p949
F2
sVlike
p950
F4
sVgift
p951
F1
sVartists)
p952
F1
sVschools
p953
F1
sVgrandeur,
p954
F1
sVdistinctly,
p955
F1
sVexcite,
p956
F1
sVcareer;
p957
F1
sVlose
p958
F2
sVbecome
p959
F2
sVworks
p960
F9
sVreduced
p961
F2
sVactions,
p962
F2
sVwarmed
p963
F1
sVright
p964
F1
sVsculptors
p965
F1
sVpeople
p966
F2
sVobliged
p967
F2
sVbeings.
p968
F1
sVpainters,
p969
F1
sVchangeling
p970
F1
sVartificial
p971
F1
sVvirtue.
p972
F1
sVunderstood
p973
F1
sVform,
p974
F4
sVproductions
p975
F3
sVjupiter
p976
F1
sVsight
p977
F2
sVloaded
p978
F1
sVproper
p979
F2
sVdivine
p980
F3
sVlorraine;
p981
F1
sVthinks
p982
F1
sVcontemplated,
p983
F1
sVdenies
p984
F1
sVthroughout
p985
F1
sVaccidental
p986
F3
sVfor
p987
F11
sVanimating
p988
F1
sVavoid
p989
F1
sVseparate
p990
F2
sVlean
p991
F1
sVphilosopher
p992
F1
sVantiquity)
p993
F1
sVdoes
p994
F3
sVantiquity,
p995
F1
sVexpressing
p996
F1
sVconsused
p997
F1
sVbeautiful;
p998
F1
sVunluckily
p999
F1
sVcannaletti.
p1000
F1
sVsplendor
p1001
F1
sVbe
p1002
F36
sVwho
p1003
F12
sValso,
p1004
F1
sVpower
p1005
F4
sVspectators,
p1006
F1
sVideal,
p1007
F1
sVdisregard
p1008
F1
sVworks.
p1009
F1
sVdivest
p1010
F1
sVtold,
p1011
F1
sVeye
p1012
F4
sVmethod,
p1013
F1
sVstyle.
p1014
F1
sVby
p1015
F33
sVtakes
p1016
F1
sVon
p1017
F6
sVabout
p1018
F2
sVproportions,
p1019
F1
sVcentral
p1020
F3
sVweakness,
p1021
F1
sVhimself,
p1022
F1
sVof
p1023
F229
sVindustry
p1024
F1
sVattempts,
p1025
F2
sVantients
p1026
F1
sVpractical
p1027
F1
sVown,
p1028
F1
sVage,
p1029
F1
sVproportions;
p1030
F1
sVherself,
p1031
F1
sVdeserve
p1032
F1
sVsteadily
p1033
F1
sVsubjects,
p1034
F1
sVboors
p1035
F1
sVor
p1036
F24
sVenter
p1037
F1
sVwhole,
p1038
F1
sVequally
p1039
F1
sVown
p1040
F2
sVpolished
p1041
F1
sVformerly
p1042
F1
sVfor,
p1043
F1
sVimage
p1044
F2
sVcourt.
p1045
F1
sVintellectual
p1046
F2
sVbeings
p1047
F1
sVbecause
p1048
F1
sVtimes,
p1049
F1
sVerect
p1050
F1
sVprimarily
p1051
F1
sVartifice
p1052
F1
sV.
F1
sVmere
p1053
F4
sVdoubt,
p1054
F2
sVproclus
p1055
F1
sVburgognone;
p1056
F1
sVsuspecting,
p1057
F1
sVhercules;
p1058
F1
sVher
p1059
F4
sVfew
p1060
F1
sVlower
p1061
F2
sVthere
p1062
F15
sVmoderate
p1063
F1
sVoriginal;
p1064
F1
sVamidst
p1065
F1
sVintention
p1066
F1
sVhercules,
p1067
F1
sVlow
p1068
F3
sVhercules.
p1069
F1
sVexamination
p1070
F1
sVwas
p1071
F7
sVnaturally
p1072
F1
sVanother;
p1073
F2
sVhimself
p1074
F4
sVcomplete
p1075
F1
sVform
p1076
F7
sVerr,
p1077
F1
sVsomething
p1078
F1
sVenobles
p1079
F1
sVartist.
p1080
F1
sVsolidity
p1081
F1
sVbut
p1082
F30
sVreiterated
p1083
F1
sVeffects.
p1084
F1
sVfailure
p1085
F1
sVrepeated
p1086
F1
sVproperly
p1087
F1
sVcontradictory
p1088
F1
sVsame.
p1089
F1
sVheap
p1090
F1
sVanother,
p1091
F1
sVchildren.
p1092
F1
sVremote
p1093
F1
sVline
p1094
F1
sVhighest
p1095
F4
sVtrue
p1096
F4
sVhe
p1097
F48
sVanatomy,
p1098
F1
sVadmiration
p1099
F2
sVdescription."
p1100
F1
sVconsist
p1101
F2
sVcountry;
p1102
F1
sVspecies.
p1103
F2
sVwish
p1104
F1
sVare,
p1105
F1
sVapollo;
p1106
F1
sVthis,
p1107
F1
sVinstances,
p1108
F1
sVprinciples.
p1109
F2
sVprinciples,
p1110
F1
sVlays
p1111
F1
sVhe,
p1112
F1
sVzeuxis,
p1113
F1
sVenthusiasm.
p1114
F1
sVclear
p1115
F1
sVenthusiasm,
p1116
F1
sVgone
p1117
F1
sVsupreme
p1118
F1
sVcelestial
p1119
F1
sVliberal
p1120
F1
sVartist,"
p1121
F1
sVtaste
p1122
F4
sVcertain
p1123
F1
sVabstract
p1124
F3
sVcontribute
p1125
F1
sVqualities;
p1126
F1
sVdirection
p1127
F1
sVmuscular
p1128
F1
sVan
p1129
F17
sVcorpulent,
p1130
F1
sVas
p1131
F33
sVmoderns
p1132
F2
sVat
p1133
F8
sVwalks
p1134
F3
sVsome
p1135
F1
sVkind.
p1136
F3
sVconvey,
p1137
F1
sVpeculiarities.
p1138
F1
sVknowledge.
p1139
F1
sVdanger,
p1140
F1
sVhercules
p1141
F1
sVfirm
p1142
F1
sVno
p1143
F8
sVabsurdity
p1144
F1
sVphidias
p1145
F2
sVwhen
p1146
F7
sVwrought
p1147
F1
sVapplication
p1148
F1
sVother
p1149
F4
sVcompares
p1150
F1
sVdetails
p1151
F1
sV"when
p1152
F1
sVyou
p1153
F4
sVpoet.
p1154
F1
sVminds;
p1155
F1
sVsufficient
p1156
F1
sVundeniably
p1157
F1
sVdeviation
p1158
F1
sVbefore,
p1159
F1
sVbones,
p1160
F1
sVindeed,
p1161
F5
sVliving
p1162
F1
sVproduces,
p1163
F1
sVfashions
p1164
F2
sVwarms
p1165
F1
sVin,
p1166
F1
sVsure
p1167
F1
sVintent
p1168
F1
sVelse
p1169
F1
sVstructure
p1170
F1
sVmechanic,
p1171
F1
sVcopy;
p1172
F1
sVappellations
p1173
F1
sVlonger
p1174
F1
sVcalls
p1175
F2
sVranks
p1176
F1
sVage
p1177
F3
sVconception,
p1178
F1
sVdepartments
p1179
F1
sVgraecian
p1180
F1
sVmisguide
p1181
F1
sVstudents
p1182
F1
sVembracing
p1183
F1
sVlives
p1184
F2
sVonce
p1185
F1
sVhaving
p1186
F3
sVprofits
p1187
F1
sVexternal
p1188
F1
s.