ccollections
defaultdict
p1
(c__builtin__
float
p2
tRp3
Vconsidered,
p4
F1
sVelevation.
p5
F1
sVshouted,
p6
F2
sVgrimaces,
p7
F1
sVfig-
p8
F1
sVyellow
p9
F1
sVfour
p10
F21
sVwoods
p11
F1
sVocean.
p12
F1
sVdeserveth
p13
F1
sVconjure
p14
F1
sVcould;
p15
F1
sVthus,
p16
F2
sVfractured;
p17
F1
sVpropitious.
p18
F1
sVplaced
p19
F13
sVruffled,
p20
F1
sVprogress,
p21
F1
sVwood,
p22
F1
sVfoul
p23
F1
sVadvice;
p24
F1
sVfingers,
p25
F2
sVwood;
p26
F1
sVbringing
p27
F1
sVoracular.
p28
F1
sVdisturb
p29
F2
sVuttering
p30
F5
sVexhalations,
p31
F1
sVexhalations.
p32
F1
sVbroiled
p33
F1
sVstars.
p34
F1
sVpersisted
p35
F3
sVstars,
p36
F3
sVmeadow;
p37
F1
sVhabiliments
p38
F1
sVspoken,
p39
F5
sVglassy
p40
F1
sVforthwith,
p41
F1
sVher,
p42
F18
sVspoken!
p43
F2
sVher;
p44
F5
sVelegant
p45
F2
sVsecond
p46
F3
sVchin,
p47
F1
sVsailed
p48
F1
sVescaped,
p49
F1
sVnature,
p50
F2
sVthunder
p51
F4
sVfruits;
p52
F1
sVescaped;
p53
F1
sVfruits,
p54
F1
sVincreasing
p55
F1
sVexclamations
p56
F1
sVcull
p57
F1
sVgrace.
p58
F1
sVavert
p59
F1
sVjasmine
p60
F3
sVswoon.
p61
F2
sVhere
p62
F6
sVtigers,
p63
F4
sVglass,
p64
F1
sVfissures
p65
F1
sVexclamation,
p66
F1
sVculling
p67
F2
sVpretensions
p68
F1
sVbusiness.
p69
F1
sVclimbed
p70
F3
sV"why
p71
F1
sVfinger,
p72
F1
sVsooner,
p73
F1
sVintelligences:
p74
F1
sVgolden
p75
F3
sVprojection
p76
F1
sVexplained
p77
F2
sVprecincts
p78
F2
sVmidnight,
p79
F1
sVbrought
p80
F22
sVintelligences,
p81
F1
sVfemale,
p82
F3
sVforbore
p83
F1
sVsantons
p84
F3
sVfire:
p85
F1
sVspoke
p86
F1
sVbrowse
p87
F1
sVvicegerent
p88
F2
sVglimmering
p89
F2
sVsymphony
p90
F2
sVmusic
p91
F4
sVtherefore
p92
F1
sVviolently
p93
F2
sVstrike
p94
F2
sVfifth,
p95
F1
sVsermons
p96
F1
sVskill.
p97
F1
sVsuffocated
p98
F1
sVfemales
p99
F3
sVholy
p100
F7
sV99
p101
F1
sV98
p102
F1
sVhigher;
p103
F1
sV91
p104
F1
sV90
p105
F1
sVmidst
p106
F9
sVhold
p107
F5
sVmirth.
p108
F1
sV94
p109
F1
sVmirth,
p110
F1
sV96
p111
F1
sVsummits,
p112
F1
sVbrows,
p113
F1
sVanimals,
p114
F1
sVpursue
p115
F1
sVcicatrize
p116
F1
sVdegrees;
p117
F1
sVaccomplishment
p118
F2
sVplunged
p119
F2
sVhonied
p120
F1
sVsweeter
p121
F1
sVleaped
p122
F2
sVlaughter,
p123
F4
sVcatch,
p124
F1
sVmelons
p125
F2
sVconfound,
p126
F1
sVown!"
p127
F1
sVmansions.
p128
F1
sVcaution
p129
F1
sVwant
p130
F8
sVha!"
p131
F1
sVintreaty;
p132
F1
sVabsolute
p133
F1
sVturn
p134
F2
sVcomplaining
p135
F1
sVaspects.
p136
F1
sVhow
p137
F17
sVhot
p138
F1
sVyouth,
p139
F2
sVcounted,
p140
F1
sVtulip,
p141
F1
sVbeauty
p142
F3
sVcapitals,
p143
F1
sVdestined
p144
F4
sVtwined
p145
F1
sVaccustomed,
p146
F1
sVmisfortune,
p147
F1
sVendeavoured
p148
F3
sVrevolt
p149
F1
sVretired,
p150
F2
sViron.
p151
F1
sVwink
p152
F1
sVwind
p153
F5
sVwine
p154
F3
sVeffect,
p155
F2
sVthrone;
p156
F1
sV"put
p157
F4
sVbeings,
p158
F1
sVthrone,
p159
F1
sVthrone.
p160
F1
sVpicklock?
p161
F1
sVplumpest,
p162
F1
sVabominations
p163
F1
sVready:
p164
F1
sVinvectives;
p165
F1
sVhidden
p166
F1
sVclosed,
p167
F2
sVadmirable
p168
F5
sVthrones
p169
F1
sVmeadow,
p170
F3
sVcomfort,"
p171
F1
sVeffects
p172
F3
sVinterrupt
p173
F2
sVsilver
p174
F1
sVglutted
p175
F1
sVrumour
p176
F2
sVvipers
p177
F1
sVthyme
p178
F1
sVfancies,
p179
F1
sVpleasantries
p180
F1
sVnoble;
p181
F1
sVcommodities?
p182
F1
sVwoes
p183
F1
sVseries
p184
F1
sVbowls
p185
F2
sVhungry---which,
p186
F1
sVartizans
p187
F1
sVwhit
p188
F2
sVborne
p189
F2
sVpotion,
p190
F1
sVexcepting
p191
F2
sVaccidents.
p192
F1
sVflow,
p193
F1
sVspeed;
p194
F1
sVexaction
p195
F1
sVassured
p196
F2
sVfaculties
p197
F1
sVgrapes
p198
F1
sVcrowned
p199
F1
sVuniversally
p200
F1
sVenormous
p201
F1
sVate
p202
F2
sVexposing
p203
F1
sVperhaps,
p204
F2
sVflow.
p205
F1
sVunveiled.
p206
F1
sVbehests
p207
F1
sVmusicians
p208
F1
sVguardians.
p209
F1
sVguardians,
p210
F1
sVdetermined.
p211
F1
sVardour
p212
F1
sVangelic
p213
F1
sVreward:
p214
F1
sVexplosion!"
p215
F1
sVcistern,
p216
F1
sVreward.
p217
F1
sVher.
p218
F2
sVservice
p219
F2
sVtired
p220
F1
sVneeded
p221
F1
sVsink."
p222
F1
sVmaster
p223
F2
sVblossoms
p224
F1
sVlustre
p225
F1
sVbitter
p226
F1
sVkoran,
p227
F3
sVwas;
p228
F1
sVrewards
p229
F1
sVwas?
p230
F1
sVcushions
p231
F2
sVmegnoun
p232
F1
sVwisdom
p233
F2
sVdolt,"
p234
F1
sVadept.
p235
F1
sVwas,
p236
F7
sVcrawl
p237
F1
sVpower!"
p238
F1
sVperil
p239
F2
sVher:
p240
F2
sVblossom,
p241
F1
sVperturbation,
p242
F1
sVexclaimed
p243
F6
sVcaroused
p244
F1
sVfeeling
p245
F3
sVvociferation---"the
p246
F1
sVheads,
p247
F1
sVheads.
p248
F1
sVwillows.
p249
F1
sVtransaction:
p250
F1
sVwell,
p251
F2
sVtransaction.
p252
F1
sVcontroversy;
p253
F1
sVbenighted
p254
F1
sVheads;
p255
F1
sVdozen
p256
F1
sVaffairs
p257
F1
sVuncouth
p258
F1
sVdrunk,
p259
F1
sVeagerly
p260
F5
sVabusing.
p261
F1
sVabsorbed
p262
F2
sVdivan
p263
F2
sVdoors
p264
F4
sVseason
p265
F1
sVdexterity,
p266
F1
sVsociety."
p267
F1
sVcommitting
p268
F2
sVplace?"
p269
F1
sVobject
p270
F5
sVmouth
p271
F3
sVletter
p272
F2
sVfast,
p273
F1
sVshalt
p274
F9
sVstupid
p275
F1
sVverses,
p276
F1
sVdoor.
p277
F2
sV107
p278
F1
sVsinged
p279
F1
sVcypresses,
p280
F1
sVcame
p281
F22
sVdeluded:
p282
F1
sVsaying
p283
F3
sVdeparting
p284
F1
sVinsects
p285
F2
sVfather's.
p286
F1
sVaugured
p287
F1
sVterror,
p288
F5
sVterror.
p289
F3
sVturn!"
p290
F1
sVrepose;
p291
F1
sVceased,
p292
F2
sVrepose.
p293
F2
sVrepose,
p294
F3
sVtouched
p295
F1
sVrich
p296
F1
sVupbraiding
p297
F2
sVceased:
p298
F1
sVhaste,
p299
F3
sVgreen.
p300
F1
sVdog-days,
p301
F1
sVspheres?
p302
F1
sValtogether
p303
F5
sVcousin;
p304
F1
sVmen:
p305
F1
sVmen;
p306
F2
sVthem?
p307
F1
sVthem;
p308
F10
sVthem:
p309
F2
sVmen,
p310
F5
sVhasted
p311
F1
sVmen.
p312
F1
sVcousin.
p313
F2
sVcousin,
p314
F7
sVperies
p315
F2
sVthem.
p316
F24
sVproduced:
p317
F1
sVmen!
p318
F1
sVblew
p319
F2
sVmussulman
p320
F2
sVdisaster
p321
F1
sVfair
p322
F2
sVscience."
p323
F1
sVbe,"
p324
F1
sVhousehold.
p325
F1
sVstumblings
p326
F1
sVresult
p327
F1
sVfail
p328
F4
sVnocturnal
p329
F1
sVbest
p330
F8
sVadventure?
p331
F1
sVprojects,
p332
F2
sVrings
p333
F1
sVadventure,
p334
F1
sVstampt
p335
F1
sVpropagated
p336
F1
sVpreserve
p337
F2
sVeffulgence
p338
F3
sVmen
p339
F3
sVextend
p340
F3
sVnature
p341
F1
sVrolled
p342
F2
sVtigers.
p343
F1
sVvisions:
p344
F1
sVcontained.
p345
F2
sVextent
p346
F1
sVdefiance
p347
F1
sVpity
p348
F5
sVlot:
p349
F1
sVaccident
p350
F2
sVcountry
p351
F4
sVdamsels
p352
F2
sVadventures
p353
F1
sVdemanded
p354
F4
sVdrove,
p355
F1
sVestates
p356
F1
sVpleasures
p357
F1
sVambition,
p358
F1
sVadapted
p359
F1
sVasked
p360
F7
sVdoubt,
p361
F2
sVvain
p362
F4
sVcommands:
p363
F1
sV102
p364
F1
sVharangue,
p365
F2
sVeager
p366
F2
sVunion
p367
F1
sV.
F2
sVmuch
p368
F28
sV104
p369
F1
sVprivilege
p370
F1
sV105
p371
F1
sVlife
p372
F3
sVspit
p373
F2
sVso,"
p374
F2
sVathwart
p375
F1
sVlift
p376
F1
sVheld.
p377
F2
sVregaled
p378
F1
sVchild
p379
F2
sVdoth
p380
F3
sVdiverted
p381
F2
sVhair-brained
p382
F1
sVangry;
p383
F1
sVwonted
p384
F2
sVprostrate
p385
F7
sVinsuperable,
p386
F1
sVplayed
p387
F2
sVsaid:
p388
F11
sVtrees,
p389
F4
sVobeying
p390
F1
sVpebbles,
p391
F1
sVclutches
p392
F1
sVanticipating
p393
F1
sVplants,
p394
F1
sVsaid,
p395
F6
sVmean."---"it
p396
F1
sVrecover
p397
F2
sVdeaf;
p398
F1
sVjolting
p399
F1
sVthings
p400
F2
sVtigris;
p401
F1
sVdo?---is
p402
F1
sVveil?
p403
F1
sVswarthy
p404
F2
sVtigris,
p405
F1
sVpassed,
p406
F3
sVsupped
p407
F2
sVboiled
p408
F2
sVinadvertently
p409
F1
sV"aye,
p410
F2
sVpermit
p411
F1
sVmarched
p412
F2
sVincreased;
p413
F2
sVsupper
p414
F1
sVpioneers
p415
F1
sVhaggard
p416
F2
sValas!
p417
F5
sVattempted,
p418
F1
sVmatters
p419
F2
sVgenii;
p420
F1
sVreplied,
p421
F1
sVstillness
p422
F3
sVwhich,
p423
F26
sVascending,
p424
F1
sVill-treating,
p425
F1
sVechoes
p426
F1
sVgenii,
p427
F6
sVveils
p428
F2
sVadroitness.
p429
F1
sVadroitness,
p430
F1
sVabsurdities
p431
F1
sVsubjoined
p432
F1
sVforsaken
p433
F1
sVbeset
p434
F1
sVsovereigns
p435
F1
sVplight
p436
F1
sVsucceeding
p437
F2
sVprevious
p438
F3
sVspectacles
p439
F1
sVhad
p440
F241
sVadvancement
p441
F1
sVinnocent
p442
F2
sVprison
p443
F3
sVhas
p444
F6
sVstep;
p445
F1
sVworse.
p446
F1
sVdelight.---but,
p447
F1
sVelevation
p448
F1
sVsurprise;
p449
F1
sVsovereign.
p450
F1
sVopinion;
p451
F1
sVsovereign,
p452
F2
sVpossible
p453
F4
sVpossibly
p454
F1
sV(voluptuously
p455
F1
sVbirth
p456
F2
sVsleep,
p457
F1
sVtincture
p458
F1
sVopinion.
p459
F2
sVrecoil,
p460
F1
sVambulating
p461
F1
sVdesire
p462
F1
sVarticulated
p463
F1
sVbee-hives.
p464
F1
sVha!
p465
F1
sVremind
p466
F1
sVsteps
p467
F5
sVexpiation,
p468
F1
sVnerkes,
p469
F1
sVdialogue,
p470
F2
sVspectacle,
p471
F3
sVenter.
p472
F1
sVemit.
p473
F1
sVright
p474
F10
sVold
p475
F27
sVcrowd
p476
F2
sVpeople
p477
F9
sVeasy
p478
F2
sVcrown
p479
F1
sV"will
p480
F3
sVterrace,
p481
F1
sVannounced,
p482
F2
sVleft,
p483
F2
sVapprize
p484
F1
sVfor
p485
F217
sVbottom
p486
F3
sVgewgaws,
p487
F1
sVhorrors!
p488
F1
sValacrity,
p489
F1
sVplucked
p490
F1
sVsummoned
p491
F1
sVserpents
p492
F2
sVsurprise.
p493
F1
sVdescending,
p494
F1
sVtheological
p495
F1
sVpinched
p496
F3
sVvariety)
p497
F1
sVterraces
p498
F1
sVvariety:
p499
F1
sVmosque.
p500
F1
sVmemorable
p501
F1
sVmiraculous,
p502
F1
sVgrievously
p503
F1
sVo
F4
sVblasphemies.
p504
F1
sVimprecations,
p505
F1
sVfaded,
p506
F1
sVconsulting
p507
F2
sVson
p508
F8
sVadminister
p509
F1
sVbeings
p510
F3
sVcirculation."
p511
F1
sV"creatures
p512
F1
sVshoots
p513
F1
sVperfume.
p514
F2
sVcontrite,
p515
F1
sVdespised
p516
F1
sVfabric
p517
F1
sVsupport
p518
F9
sVconstantly
p519
F3
sVhumble,
p520
F1
sVavail
p521
F2
sVgrasping
p522
F1
sVgreatness
p523
F1
sVdeparture,
p524
F1
sVhappy
p525
F3
sVperfumes
p526
F2
sVoffer
p527
F5
sVfancied,
p528
F3
sVentertained,
p529
F1
sVtalents
p530
F1
sVperfumed
p531
F5
sVentertained;
p532
F1
sVamusing
p533
F1
sVbeing;
p534
F1
sVso:
p535
F1
sVkiss,
p536
F1
sVcongratulations
p537
F1
sVsacred,
p538
F1
sVextremity
p539
F4
sVsobbing,
p540
F1
sVstories,
p541
F1
sVhall;
p542
F2
sVwait,
p543
F1
sVpalm
p544
F1
sVnight!"
p545
F1
sVrhinoceros'
p546
F2
sVadopt
p547
F2
sVproved
p548
F1
sVextenuated
p549
F1
sVdisclosing
p550
F1
sVsoothe
p551
F2
sVpalm,
p552
F1
sVdealer
p553
F1
sVpalace."
p554
F2
sVceremonials,
p555
F1
sVmankind."
p556
F1
sVsuccour
p557
F1
sVfloor
p558
F1
sVimparting
p559
F1
sVuttered
p560
F8
sVvanished.
p561
F1
sVvanished,
p562
F1
sVewes,
p563
F1
sVambitious
p564
F1
sVtamely
p565
F1
sVsmell
p566
F1
sVvisitants,
p567
F1
sVintend
p568
F2
sVmaimed
p569
F1
sVgoules
p570
F2
sVintent
p571
F1
sVfastened
p572
F2
sVdiadem
p573
F1
sVportals.
p574
F1
sVconfused,
p575
F1
sVwarm,
p576
F1
sVmisfortunes!"
p577
F1
sVgood-natured
p578
F1
sVdesks,
p579
F1
sVtime
p580
F18
sVpush
p581
F1
sVconferred
p582
F3
sVoverturned
p583
F1
sVshrieking
p584
F1
sVcorps
p585
F1
sVwhoever
p586
F1
sVprovided;
p587
F1
sVgloom;
p588
F1
sVfatigue,
p589
F3
sVprovided,
p590
F1
sV92
p591
F1
sVgrot.
p592
F2
sVimpassioned,
p593
F1
sVgrot,
p594
F1
sV95
p595
F1
sVcrimes."---"and
p596
F1
sVindolent
p597
F1
sVsuspending
p598
F1
sVoccupations
p599
F1
sValla!"
p600
F1
sV97
p601
F1
sVchequered
p602
F1
sVexcepted,
p603
F1
sVchild:
p604
F1
sVlook?"---"i
p605
F1
sVpalampores
p606
F1
sVindulgence,
p607
F2
sVchild!
p608
F1
sVgloomy
p609
F3
sVfatigued
p610
F2
sVsermons.
p611
F1
sVfullest
p612
F1
sVwhile,
p613
F1
sVchild,
p614
F5
sVpride,
p615
F3
sVtear
p616
F1
sVmajesty,
p617
F1
sVleave
p618
F11
sVcoincidences
p619
F1
sVinscribed
p620
F4
sVsupply.
p621
F1
sVprevent
p622
F4
sVspiritual
p623
F1
sVblade
p624
F1
sVmeadow
p625
F1
sVbe
p626
F182
sVgiaour!"
p627
F1
sV"these
p628
F1
sVphantom!"
p629
F1
sVcalenders,
p630
F2
sVthough,
p631
F2
sVcelebrated
p632
F2
sVwayward
p633
F1
sVfifth
p634
F1
sVfalling
p635
F3
sVground
p636
F4
sVpresence.
p637
F2
sVapartments,
p638
F4
sVmouhateddin,
p639
F1
sVbrows;
p640
F1
sVmouhateddin.
p641
F1
sVhonour
p642
F7
sVfuneral
p643
F2
sVastrologers;
p644
F1
sVaddress
p645
F1
sValone
p646
F3
sVpersecuted
p647
F1
sVdolts
p648
F1
sVbrilliant
p649
F1
sVstudied
p650
F1
sVwherever
p651
F3
sVaccomplished
p652
F5
sVbeauties,
p653
F1
sVlove
p654
F10
sVmelodious
p655
F2
sVloquacity
p656
F1
sVmarble.
p657
F2
sVmarble,
p658
F4
sVsuperiority,
p659
F1
sVsky
p660
F6
sVslept,
p661
F1
sVeye-lids;
p662
F1
sVfawn,
p663
F1
sVangry
p664
F1
sVonly
p665
F35
sVbelieve,
p666
F1
sVimaginations
p667
F1
sVcherished
p668
F3
sVopposed
p669
F1
sVwondering
p670
F1
sVscope
p671
F1
sVfourth,
p672
F2
sVpavilions
p673
F1
sVwicked
p674
F6
sVconsoled
p675
F4
sVafford
p676
F2
sVrandom,
p677
F1
sVblood;
p678
F1
sVignorant
p679
F2
sVvirtue
p680
F1
sVblood.
p681
F1
sVblood,
p682
F3
sVenervated
p683
F1
sVpavilion,
p684
F1
sVpavilion.
p685
F1
sVincited
p686
F3
sVshrill
p687
F6
sVinflamed
p688
F4
sVharmonious
p689
F2
sVpavilion;
p690
F1
sVbelieved
p691
F2
sVoppose,
p692
F1
sVcataplasms
p693
F1
sVheard;
p694
F1
sVbeck,
p695
F1
sVheard.
p696
F2
sVheard,
p697
F4
sVallowed
p698
F3
sVrice."
p699
F1
sVscrupulously,
p700
F1
sVdivided
p701
F1
sVthunder,
p702
F1
sVrevolted
p703
F1
sVundertook
p704
F1
sVsnapt
p705
F1
sVlock.
p706
F1
sVbeings."---"we
p707
F1
sVcanopies,
p708
F1
sVassuming,
p709
F1
sVsuch
p710
F53
sVdove
p711
F1
sVtimes
p712
F4
sVshaddukian
p713
F1
sVdoom;
p714
F1
sVnatural
p715
F2
sVmangy
p716
F1
sVconscious
p717
F1
sVeaten,
p718
F1
sVso
p719
F112
sVdoom.
p720
F1
sVfavourites,
p721
F2
sVgarlands
p722
F1
sVwolves
p723
F1
sVobtain."
p724
F1
sVbelow.
p725
F1
sVbelow,
p726
F1
sVcourse
p727
F3
sVexperiments
p728
F1
sVomitting
p729
F1
sVbelow:
p730
F1
sVdone:---when,
p731
F1
sVdead;
p732
F2
sVsolitary
p733
F1
sVlimbs
p734
F2
sVdead?
p735
F1
sVhaughty
p736
F1
sVtorn
p737
F2
sVirksome.
p738
F1
sVattraction
p739
F1
sVjessamine
p740
F1
sVdwarfs
p741
F12
sVantipathy
p742
F1
sVinstantly
p743
F13
sVshudder,
p744
F2
sVbashful
p745
F1
sVyear,
p746
F1
sVrecords
p747
F1
sVcompelled
p748
F2
sVawaited
p749
F2
sVarriving
p750
F1
sVpassions,
p751
F1
sVtwilight
p752
F1
sVdotards
p753
F1
sVcreation.
p754
F1
sVparade!
p755
F1
sVcarcases
p756
F1
sVquarter
p757
F1
sVrepaired
p758
F3
sVsquare
p759
F3
sVbursting
p760
F2
sVwhosoever
p761
F1
sVirremediably
p762
F1
sVbeloved
p763
F5
sVnecks:
p764
F1
sVnecks;
p765
F1
sVdomes,
p766
F1
sVentering
p767
F1
sVomens.
p768
F1
sVmussulmans
p769
F3
sVgiddy
p770
F1
sVguidance."
p771
F1
sVthistles,
p772
F1
sVmummies!
p773
F1
sVroute,
p774
F1
sVmummies,
p775
F4
sVdisguise,
p776
F1
sVroute;
p777
F1
sVbelievers
p778
F1
sVcontained
p779
F2
sVthistles:
p780
F1
sVsubtile
p781
F2
sVsquares
p782
F1
sVdisaster.
p783
F1
sVsalad,
p784
F1
sVseventh
p785
F2
sVquite
p786
F2
sVcomplicated
p787
F1
sVbesides
p788
F2
sVyou?"
p789
F2
sVremainder
p790
F1
sVliberally
p791
F1
sVworkmanship
p792
F1
sVdistilled
p793
F1
sVsquare.
p794
F1
sVrifted
p795
F1
sVdispensed,
p796
F1
sVhusband
p797
F1
sVpuny
p798
F1
sVemotion
p799
F5
sVmercy.
p800
F3
sVsoliman!"
p801
F1
sVsymmetry
p802
F1
sVspoken
p803
F1
sVone
p804
F86
sVmercy:
p805
F1
sVjasmine:
p806
F2
sVhabitation
p807
F2
sVopen
p808
F12
sVlanguish
p809
F1
sVcity
p810
F7
sVfakreddin.
p811
F1
sVvouchsafing
p812
F2
sV"come
p813
F1
sVdissipate
p814
F1
sVstuffed
p815
F1
sVbegotten
p816
F1
sVher's."---"you
p817
F1
sVbars,
p818
F1
sVstructures
p819
F1
sVvapours
p820
F1
sV"let
p821
F6
sVon.
p822
F1
sVon,
p823
F3
sVmusk-melons,
p824
F1
sVspoke,
p825
F1
sVsuit
p826
F1
sVmuch.
p827
F1
sVsnatch
p828
F1
sVon;
p829
F3
sVridiculous
p830
F3
sVtoilsome
p831
F1
sVjasmines
p832
F1
sVmeteors
p833
F1
sVdepressed
p834
F2
sVfolly
p835
F4
sVauthority,
p836
F1
sVclouds.
p837
F2
sVvapour;
p838
F1
sVwandering
p839
F3
sVascendancy
p840
F1
sVprospect
p841
F1
sVaddressing
p842
F4
sVsoliloquy,
p843
F3
sVsumptuous
p844
F2
sVcensers,
p845
F2
sVintreaties,
p846
F1
sVturned
p847
F15
sVsay
p848
F2
sVburied
p849
F1
sVsaw
p850
F7
sVwell
p851
F28
sVsat
p852
F3
sVlaw,
p853
F2
sVtremble;
p854
F2
sVtremble:
p855
F1
sVbaggage
p856
F1
sValabaster.
p857
F1
sVinstructed
p858
F1
sVnote
p859
F1
sVrhapsody?"
p860
F1
sVtake
p861
F16
sVtremble.
p862
F1
sVwanting
p863
F2
sVbad,
p864
F1
sVconvulsive
p865
F2
sVtouch,
p866
F1
sVironically
p867
F1
sVopposite
p868
F1
sVsyllable
p869
F2
sVknew
p870
F6
sVshe,"
p871
F1
sVtaste.
p872
F3
sVinvoked
p873
F1
sVretinue,"
p874
F1
sVtaste;
p875
F1
sVprodigies
p876
F1
sVfirmament;
p877
F1
sVbeneficent
p878
F1
sVenamel
p879
F1
sVsockets,
p880
F2
sVdrive
p881
F1
sVnot;
p882
F1
sVbade
p883
F6
sVwarrior,
p884
F1
sVnot,
p885
F9
sVtrembled
p886
F3
sVlaws
p887
F4
sVwalking
p888
F3
sVmurmurs
p889
F2
sVrejoice,
p890
F1
sVmerit
p891
F1
sVarbour;
p892
F1
sVbright
p893
F3
sVscarce
p894
F4
sVimagined
p895
F3
sVslow
p896
F1
sVreclined,
p897
F1
sVreconciling
p898
F1
sVnotice
p899
F2
sVinterrogations
p900
F1
sVharangue
p901
F2
sVtears
p902
F7
sVgoing
p903
F3
sV"inhabitants
p904
F1
sVequipped
p905
F1
sVblinds
p906
F2
sVguarded
p907
F2
sVusual,
p908
F1
sVarbours
p909
F1
sVkeys,
p910
F1
sVclang
p911
F1
sVimagine,
p912
F1
sVoutlet
p913
F1
sVawaiting
p914
F2
sVwander,
p915
F1
sVprime
p916
F2
sVresource
p917
F1
sVblind,
p918
F2
sVassimilate
p919
F1
sVrecurred
p920
F3
sVadorers."
p921
F1
sVrecoiling
p922
F1
sVwhere
p923
F55
sVvision
p924
F2
sVghastly
p925
F2
sVarrival
p926
F5
sVsmooth;
p927
F1
sVenthralled
p928
F1
sVaudaciously
p929
F1
sVbehoves
p930
F3
sVundismayed.
p931
F1
sVexpiate
p932
F1
sVoverflowed
p933
F1
sVpersian,
p934
F1
sVhastened
p935
F5
sVdarkness!
p936
F1
sVdives
p937
F8
sVpurest
p938
F2
sVburnt:---
p939
F1
sValarming
p940
F1
sVman:
p941
F2
sVnaked,
p942
F1
sVpistachios,
p943
F1
sVcongregation,
p944
F1
sVpresage
p945
F1
sVpitiless
p946
F1
sVrage,
p947
F1
sVadmirably
p948
F1
sVdive,
p949
F1
sVpleasant,"
p950
F1
sVscreen
p951
F1
sVdeclivity,
p952
F1
sVdome
p953
F1
sVadept
p954
F2
sVspare
p955
F1
sVgraceful,
p956
F1
sVmenacing
p957
F1
sVspark
p958
F1
sVconversed
p959
F1
sVmoon,
p960
F4
sVmany
p961
F17
sVmoon.
p962
F2
sVwest,
p963
F1
sVloudly
p964
F3
sVmorakanabad:
p965
F1
sV"for
p966
F6
sVfix
p967
F1
sVpresentiment,
p968
F1
sVgaiety
p969
F2
sVtwig
p970
F1
sVdress,
p971
F1
sVstretch
p972
F1
sVvirtuous;
p973
F1
sVagility,
p974
F1
sVgames;
p975
F1
sVbreath
p976
F2
sVcombined
p977
F1
sVmotives
p978
F1
sVgruffly.---
p979
F1
sVsimurgh;
p980
F1
sVhilarity
p981
F1
sVwants
p982
F1
sVconsider,
p983
F1
sVsquinted
p984
F1
sVmewling
p985
F1
sVbababalouk
p986
F23
sVthousand
p987
F26
sVformed
p988
F3
sVobserve
p989
F1
sVabject
p990
F2
sVconjecturing,
p991
F1
sVprofane
p992
F1
sVlanguor;
p993
F1
sVhis,
p994
F1
sVsituation
p995
F2
sVlanguor,
p996
F1
sVmarvellous.
p997
F1
sVprevalence
p998
F1
sVengaged
p999
F6
sVambient
p1000
F1
sVbirth!
p1001
F1
sVtrain,
p1002
F1
sVrefreshing,
p1003
F2
sVperpetually
p1004
F1
sVit."
p1005
F1
sVlovers
p1006
F1
sVimpetuosity
p1007
F1
sV"strangers!
p1008
F1
sVwrappers
p1009
F1
sVwarblings."
p1010
F1
sVculled
p1011
F1
sVmotionless,
p1012
F3
sVflocks
p1013
F1
sVlove.
p1014
F1
sV"dear
p1015
F1
sVgenii
p1016
F4
sVtrains
p1017
F1
sVcrust;
p1018
F1
sVbeing
p1019
F37
sVrest
p1020
F10
sVdisperse
p1021
F1
sVfollowed;
p1022
F1
sVopen,
p1023
F2
sVinviolate;
p1024
F1
sVretinue
p1025
F1
sVwoman!"
p1026
F1
sVaround
p1027
F12
sVdart
p1028
F1
sVdark
p1029
F7
sVaccent---"let
p1030
F1
sVpreference
p1031
F2
sVapprehending
p1032
F1
sVendeavouring,
p1033
F1
sVstranger
p1034
F10
sVhunger,
p1035
F1
sVinter
p1036
F2
sVstationary
p1037
F1
sVprecincts;
p1038
F1
sVgrouping
p1039
F1
sVseating
p1040
F1
sVpunishment?
p1041
F1
sVelevation;
p1042
F1
sVdivine
p1043
F2
sVperson."---"let
p1044
F1
sVbluntly,
p1045
F1
sVthink,
p1046
F2
sVpower
p1047
F5
sVreposing
p1048
F2
sVsprung
p1049
F2
sVpickle?
p1050
F1
sVfive,
p1051
F1
sVmonitors,
p1052
F1
sVprepared
p1053
F8
sVmyriads
p1054
F1
sVcountenance.
p1055
F1
sVslender
p1056
F1
sVrestoration
p1057
F1
sVlofty
p1058
F6
sVcakes,
p1059
F1
sVinspired,
p1060
F1
sVburning
p1061
F5
sVventurously
p1062
F1
sVforehead,
p1063
F1
sVroyalty,
p1064
F1
sVineffable
p1065
F1
sVlively
p1066
F1
sVfasting,
p1067
F1
sVparties
p1068
F1
sVwit,
p1069
F1
sVforehead;
p1070
F1
sVgnashing
p1071
F2
sVass,
p1072
F1
sVdirt.
p1073
F1
sVappeared,
p1074
F1
sVher
p1075
F229
sVgleam
p1076
F1
sVoccasioned.
p1077
F1
sVslopes
p1078
F1
sVback."
p1079
F1
sVbristled
p1080
F1
sVanother:
p1081
F1
sVcomplete
p1082
F5
sVverbatim
p1083
F1
sVwits
p1084
F1
sVimbibed
p1085
F1
sVforeheads
p1086
F1
sVland
p1087
F1
sVanother,
p1088
F4
sVwith
p1089
F479
sVhandsome
p1090
F1
sVrush
p1091
F1
sVrage
p1092
F5
sVhe:
p1093
F1
sVhe;
p1094
F2
sVreprimand
p1095
F1
sVhe,
p1096
F17
sVrescued
p1097
F1
sVgone
p1098
F7
sVpity,
p1099
F1
sVexhausted
p1100
F3
sVcertain
p1101
F8
sVaccents
p1102
F2
sVam
p1103
F22
sVal
p1104
F7
sVan
p1105
F118
sVas
p1106
F243
sVpunctiliously
p1107
F1
sVat
p1108
F288
sVwatched
p1109
F1
sVqualities,
p1110
F2
sVattendance,
p1111
F1
sVpoison,
p1112
F1
sValarms;
p1113
F1
sVgiaour;
p1114
F3
sVnovice
p1115
F1
sVaromatic
p1116
F2
sVroofed
p1117
F1
sVgiaour!
p1118
F5
sVsummit
p1119
F5
sVtrick,
p1120
F1
sVgiaour,
p1121
F14
sVgiaour.
p1122
F4
sVis;
p1123
F1
sVsubjects:
p1124
F1
sVsubjects;
p1125
F3
sVregardless
p1126
F3
sVfakreddin
p1127
F10
sVwalk,
p1128
F1
sVaccosted
p1129
F1
sVoh!
p1130
F1
sVdamnable
p1131
F1
sVherbs
p1132
F2
sVsubjects,
p1133
F5
sVsubjects.
p1134
F1
sVmitigation:
p1135
F1
sVwalk;
p1136
F1
sVapproves.
p1137
F1
sV"nefarious
p1138
F1
sVsobbing
p1139
F1
sVtricks
p1140
F1
sVcabinets:
p1141
F1
sVrestricted
p1142
F1
sVaccomplished!"
p1143
F1
sVpassing;
p1144
F1
sVcaused
p1145
F12
sVbeware
p1146
F3
sVimportune
p1147
F1
sVelements;
p1148
F1
sVimpetuosity,
p1149
F1
sVfairness
p1150
F1
sVcauses
p1151
F1
sVdusk,
p1152
F1
sVdisciples
p1153
F1
sVstartled
p1154
F1
sVto
p1155
F1052
sVdressing
p1156
F1
sVsmile
p1157
F1
sVjargon,
p1158
F1
sVembassies,
p1159
F1
sVaroused,
p1160
F1
sVcause,
p1161
F1
sVcause.
p1162
F3
sVreturned
p1163
F11
sVis,
p1164
F5
sVmyself
p1165
F4
sVfloated
p1166
F1
sVteeth,
p1167
F2
sVcause;
p1168
F1
sVcause:
p1169
F1
sVcondition
p1170
F1
sVprophet!
p1171
F1
sVmarvellous
p1172
F2
sVprophet.
p1173
F2
sVjoined
p1174
F2
sVprophet,
p1175
F2
sVlarge
p1176
F19
sVsang
p1177
F3
sVsand
p1178
F2
sVprophet:
p1179
F1
sVbroken;
p1180
F1
sVcorrect
p1181
F1
sVquicker
p1182
F1
sVhour.
p1183
F1
sVhealed
p1184
F2
sVpast
p1185
F2
sVpass
p1186
F3
sVdiscernible,
p1187
F1
sVpalanquins;
p1188
F1
sVprevailed
p1189
F4
sVimperceptibly
p1190
F2
sVwhirled
p1191
F1
sVnurse
p1192
F1
sVfull
p1193
F25
sVgroups
p1194
F1
sVhours
p1195
F4
sVobtruded
p1196
F1
sVfervour.
p1197
F1
sVregion,
p1198
F1
sVhast
p1199
F14
sVshrieks
p1200
F2
sVascertain.
p1201
F1
sVbranches,
p1202
F1
sVkicking,
p1203
F1
sVexperience
p1204
F1
sVprior
p1205
F2
sV"but,
p1206
F2
sVdepart
p1207
F3
sVanger!"---"take
p1208
F1
sVsherbet
p1209
F1
sVsultans:
p1210
F1
sVrevelled
p1211
F1
sVbeheld
p1212
F15
sVselect
p1213
F2
sVpromised.
p1214
F1
sVwithdrew;
p1215
F1
sVzephyrs
p1216
F1
sVpoignancy;
p1217
F1
sVflowers,
p1218
F5
sVimplore
p1219
F1
sVflowers.
p1220
F2
sVfragrance
p1221
F2
sV6
F1
sVcurds
p1222
F1
sVmore
p1223
F74
sVdoor
p1224
F2
sVcompany
p1225
F6
sVpurveyor,
p1226
F1
sVsoliman
p1227
F5
sVconfident,
p1228
F1
sVkeeping
p1229
F3
sVfatal
p1230
F9
sVresources
p1231
F1
sVlearn
p1232
F2
sVbeautiful
p1233
F15
sVpropound."
p1234
F1
sVsuggestions
p1235
F1
sVaccept
p1236
F1
sVwalked,
p1237
F1
sVsense
p1238
F3
sVstation
p1239
F1
sVplan,
p1240
F1
sVdress
p1241
F2
sVsimurgh
p1242
F1
sVsequins
p1243
F1
sVhuge
p1244
F2
sVdazzle
p1245
F1
sVinstruments,
p1246
F1
sVdismissed
p1247
F1
sVinstruments;
p1248
F1
sVdisturbed
p1249
F1
sVrelinquished
p1250
F1
sVcreature
p1251
F1
sVwaved
p1252
F2
sVsalt.
p1253
F1
sVcarbuncles;
p1254
F1
sVslippers.
p1255
F1
sVslippers,
p1256
F1
sVstate,
p1257
F1
sVcarbuncles.
p1258
F1
sVstate;
p1259
F2
sVabysses,
p1260
F1
sVflutter
p1261
F2
sVrefuse
p1262
F1
sVsincerity:
p1263
F1
sVresemble
p1264
F1
sVtales;
p1265
F1
sVreverie:
p1266
F1
sVirreligious
p1267
F1
sVcomfits."
p1268
F1
sVreplied
p1269
F20
sVrejoiced,
p1270
F1
sVout;
p1271
F1
sVincessantly
p1272
F6
sVlooks;
p1273
F1
sV"'tis
p1274
F1
sVembassy
p1275
F1
sVsigns
p1276
F2
sVlooks,
p1277
F2
sVits
p1278
F27
sVastrology
p1279
F1
sValla
p1280
F3
sVtermed
p1281
F1
sVretinue.
p1282
F2
sVcourse,
p1283
F2
sVsymptoms
p1284
F2
sVtruth.
p1285
F1
sVtruth,
p1286
F4
sVsauce
p1287
F1
sVwry
p1288
F1
sVit.
p1289
F7
sVclefts
p1290
F1
sVit,
p1291
F16
sVskipped
p1292
F1
sVpassage;
p1293
F1
sVresort,
p1294
F1
sVrespire
p1295
F1
sVit:
p1296
F2
sVit;
p1297
F7
sVpassage,
p1298
F2
sVpassage.
p1299
F1
sValways
p1300
F7
sVall,
p1301
F6
sVhoney-suckles,
p1302
F1
sVevents
p1303
F1
sVeloquence
p1304
F2
sVstrangling
p1305
F1
sVconvulsions,
p1306
F1
sV"delight
p1307
F1
sVall:
p1308
F2
sVdead.
p1309
F1
sVrise;
p1310
F2
sVoperation
p1311
F1
sVreally
p1312
F1
sVinquired
p1313
F3
sVaffliction,
p1314
F1
sVaffliction.
p1315
F3
sVheaven:---
p1316
F1
sVflashes;
p1317
F1
sVinquietudes,
p1318
F1
sVbababalouk,
p1319
F22
sVblue,
p1320
F1
sVrisen
p1321
F1
sVfound
p1322
F19
sVsupplications,
p1323
F1
sVporcelain
p1324
F2
sVbababalouk!
p1325
F1
sVnosegays
p1326
F1
sVbababalouk;
p1327
F3
sVbababalouk:
p1328
F2
sVmurmur
p1329
F1
sVattention,
p1330
F4
sVgulph;
p1331
F2
sVattention.
p1332
F2
sVretained
p1333
F2
sVprofusion;
p1334
F1
sVexcavated
p1335
F2
sVinviting,
p1336
F1
sVsilk,
p1337
F1
sVbumper
p1338
F1
sVmultitude;
p1339
F1
sVexhibited
p1340
F4
sVdelicate
p1341
F7
sVcorrugated
p1342
F1
sVasunder,
p1343
F2
sVgazed
p1344
F4
sVnumber
p1345
F4
sVaigrets
p1346
F1
sVasunder:
p1347
F1
sVasunder;
p1348
F1
sVglitter
p1349
F1
sVcontended
p1350
F1
sVpledge
p1351
F1
sVpeaceable
p1352
F1
sVheads
p1353
F1
sV"know,
p1354
F1
sVindifferently;
p1355
F1
sVfirst,
p1356
F6
sVlavished
p1357
F5
sVimmediate
p1358
F1
sVchace,
p1359
F1
sVparsimonious
p1360
F1
sVconsult
p1361
F1
sVforward,
p1362
F2
sVforward.
p1363
F1
sVstairs
p1364
F2
sVgrace
p1365
F2
sVungrateful
p1366
F1
sVapproach.
p1367
F1
sVcalculation,
p1368
F1
sVhead;
p1369
F1
sVcarathis.
p1370
F2
sVdetermined
p1371
F1
sVhazard,"
p1372
F1
sVcarathis:
p1373
F2
sVhead,
p1374
F9
sVdilated
p1375
F2
sVsuffocating
p1376
F1
sVmossy
p1377
F1
sVrecital
p1378
F2
sVadding
p1379
F1
sVtamarisks
p1380
F2
sVextorted
p1381
F1
sValso
p1382
F11
sVunderstand,
p1383
F1
sVlouring
p1384
F1
sVplay
p1385
F4
sVeffecting
p1386
F2
sVplan
p1387
F1
sVdarts
p1388
F1
sVbustled
p1389
F1
sVmoss.
p1390
F1
sVmoss,
p1391
F1
sV"spare
p1392
F1
sVunequal
p1393
F1
sVseize
p1394
F1
sVsometimes
p1395
F3
sVtip-toe.
p1396
F1
sVcultivating
p1397
F1
sVbarren
p1398
F1
sVsilver,
p1399
F1
sVends,
p1400
F1
sVdragged
p1401
F2
sVdemanded:
p1402
F2
sVemir:
p1403
F1
sVemir;
p1404
F1
sVgold
p1405
F5
sVblended
p1406
F3
sVscourges;
p1407
F1
sVaghast
p1408
F1
sVdefended
p1409
F1
sVseated,
p1410
F1
sVemir,
p1411
F13
sVemir.
p1412
F2
sVmagician,
p1413
F1
sVoverwhelmed
p1414
F2
sVoccupation
p1415
F3
sVfailed
p1416
F5
sVpleasure.
p1417
F1
sVpleasure,
p1418
F7
sVknoll,
p1419
F1
sVcolumns
p1420
F3
sVordained
p1421
F1
sValive!
p1422
F1
sVbeams
p1423
F3
sVremedy
p1424
F1
sVstartled,
p1425
F1
sVcompass
p1426
F1
sVulcerate
p1427
F1
sVplasters
p1428
F2
sVcruelly
p1429
F1
sVenemy
p1430
F3
sVdevoured
p1431
F1
sVsleeve
p1432
F1
sVincapacitated
p1433
F1
sVroughest
p1434
F1
sVproclaim
p1435
F1
sVgrandees,
p1436
F1
sVbaleful,
p1437
F1
sVobscure
p1438
F1
sVmorakanabad.
p1439
F1
sVmorakanabad,
p1440
F13
sVset
p1441
F23
sVcreator
p1442
F1
sVtree
p1443
F1
sVjade
p1444
F1
sVpotent
p1445
F3
sVsex
p1446
F1
sVsee
p1447
F14
sVfather.
p1448
F1
sVsea
p1449
F1
sV---"fishes,"
p1450
F1
sVconsulted,
p1451
F1
sVknees
p1452
F1
sVspirits
p1453
F3
sVleg
p1454
F1
sVguides
p1455
F1
sVgirl,
p1456
F1
sVprospect,
p1457
F2
sVmutes
p1458
F6
sVknowing
p1459
F3
sVhere?"
p1460
F1
sVgiddiness
p1461
F1
sVearth."
p1462
F1
sVincident
p1463
F1
sVrenewed
p1464
F4
sVgentleness
p1465
F1
sVwolves,
p1466
F1
sVmonster,
p1467
F1
sVlast
p1468
F14
sVvisible,
p1469
F3
sVthou
p1470
F67
sVfondness,
p1471
F1
sVmonster!
p1472
F1
sVvisible;
p1473
F1
sVboy!"
p1474
F1
sVquake,
p1475
F1
sVwhole
p1476
F27
sVreached,
p1477
F1
sVsink
p1478
F1
sVmajesty
p1479
F4
sVsheiks,
p1480
F1
sVrace,
p1481
F1
sVsilence.
p1482
F1
sVsilence,
p1483
F1
sVpleasures;
p1484
F1
sVadjoining
p1485
F1
sVsilence;
p1486
F2
sVdrawn,
p1487
F1
sVbasil,
p1488
F1
sVloves,
p1489
F1
sVextravagant
p1490
F3
sVflounced
p1491
F1
sVfulfillest
p1492
F1
sVgulchenrouz;
p1493
F4
sVbrocade,
p1494
F1
sVfirm
p1495
F1
sVresting
p1496
F1
sVfire
p1497
F11
sVdecress
p1498
F1
sVengage
p1499
F1
sVmomentary,
p1500
F1
sV"do
p1501
F1
sVmouths,
p1502
F1
sVadmire
p1503
F1
sVforgetting
p1504
F1
sVpressed
p1505
F2
sVbrocaded
p1506
F1
sVleaning
p1507
F1
sVkissing
p1508
F1
sVcages
p1509
F2
sVremains:
p1510
F1
sVhoping
p1511
F1
sVagitation
p1512
F1
sVclouds,
p1513
F2
sV36
p1514
F1
sVvow
p1515
F1
sVadded:
p1516
F1
sVchasm
p1517
F2
sVgluttony,
p1518
F1
sVchase
p1519
F1
sVsmothered.
p1520
F1
sVfeasting,
p1521
F1
sVshe:---
p1522
F1
sVstung
p1523
F2
sVmortifying
p1524
F1
sVforsooth,
p1525
F1
sVproceeded,
p1526
F1
sVrequiting
p1527
F1
sVfraternity,
p1528
F2
sVnecessity
p1529
F1
sVvases,
p1530
F1
sVkaf,
p1531
F4
sVinfamous
p1532
F1
sVconsolation;
p1533
F1
sVexpend
p1534
F1
sVperson
p1535
F12
sVyet,
p1536
F6
sVconsolation,
p1537
F2
sVclasped
p1538
F3
sVplagues
p1539
F1
sVproject.
p1540
F1
sVcabins
p1541
F1
sVcommotions
p1542
F1
sVtheee
p1543
F1
sVexclamations,
p1544
F1
sVdemand:
p1545
F1
sV"come!"
p1546
F1
sVdemand,
p1547
F1
sVladies,
p1548
F6
sVentertainment,
p1549
F1
sVladies:
p1550
F1
sVabstinence?"
p1551
F1
sVparents
p1552
F1
sVrear
p1553
F1
sVcrying
p1554
F1
sVruled
p1555
F1
sVsurprised
p1556
F1
sV"execrable
p1557
F2
sVthee.
p1558
F2
sVthee,
p1559
F5
sVvictims
p1560
F1
sVcabin;
p1561
F1
sVthee!
p1562
F1
sVwives
p1563
F2
sVacquiescence,
p1564
F1
sVthee;
p1565
F1
sVthee:
p1566
F1
sVcabin.
p1567
F2
sVprojects
p1568
F1
sVsubmission.
p1569
F1
sVeyes,
p1570
F14
sVhue,
p1571
F1
sVsignal,
p1572
F1
sVchorus
p1573
F2
sVcontinue
p1574
F2
sVyields
p1575
F1
sVsurprise,
p1576
F1
sVcuff,
p1577
F1
sVnames
p1578
F1
sVcanst
p1579
F1
sVirresistibly
p1580
F1
sVdeparture.
p1581
F1
sVspring
p1582
F2
sVunsubstantial
p1583
F1
sVdupe!
p1584
F1
sVmighty
p1585
F1
sVsight
p1586
F12
sVdark).
p1587
F1
sVcurious
p1588
F1
sVpale
p1589
F4
sVdeparture;
p1590
F1
sVtemerity,
p1591
F1
sVirresistible
p1592
F1
sVbesom.
p1593
F1
sVwresting
p1594
F1
sVstables
p1595
F1
sVmummy
p1596
F1
sVshall
p1597
F53
sVpotentate
p1598
F2
sVconvulsions
p1599
F1
sVlasciviously,
p1600
F1
sVtemple
p1601
F2
sVmight,
p1602
F1
sVmen."
p1603
F1
sVcorpses."
p1604
F1
sVsigh.
p1605
F1
sVconcealed
p1606
F3
sVsigh:
p1607
F2
sVobscured
p1608
F1
sVdictated
p1609
F1
sVby
p1610
F172
sVdeserved
p1611
F1
sVvoices;
p1612
F1
sV"take
p1613
F1
sVvoices,
p1614
F3
sVtie
p1615
F1
sV---"let
p1616
F1
sVwrinkled
p1617
F1
sV"ye
p1618
F1
sVbesoms
p1619
F1
sVrepair
p1620
F2
sVreverence
p1621
F3
sVgrape-shot
p1622
F1
sVinto
p1623
F47
sVlong,
p1624
F2
sVenormous;
p1625
F1
sVharems;
p1626
F1
sVharems,
p1627
F1
sVexposed
p1628
F1
sVoblation,
p1629
F1
sVrecoiled,
p1630
F3
sVblows,
p1631
F1
sVredoubled
p1632
F4
sVinducement,
p1633
F1
sVconsiderably
p1634
F3
sVpavilions,
p1635
F2
sVleopards.
p1636
F1
sVsaid,---"let
p1637
F1
sV"obey,"
p1638
F1
sVconsiderable
p1639
F5
sVcharmed
p1640
F1
sVopen.
p1641
F1
sVbumpers
p1642
F1
sVup
p1643
F46
sVus
p1644
F36
sVpestilence.
p1645
F1
sVopen;
p1646
F2
sVdoor,
p1647
F2
sVconsumed
p1648
F1
sVside.
p1649
F1
sVside,
p1650
F3
sVcamp
p1651
F1
sVreconcile
p1652
F1
sVlikewise
p1653
F3
sVsermous,
p1654
F1
sVflocked
p1655
F2
sVinfluence
p1656
F1
sVconsigned
p1657
F1
sVproclamation,
p1658
F2
sVlost,
p1659
F2
sVside;
p1660
F1
sVgraceful
p1661
F3
sVliving.
p1662
F1
sVphantom
p1663
F1
sVintrepid
p1664
F1
sVsnatching
p1665
F1
sVfixing
p1666
F2
sVhassan:
p1667
F1
sVhell!
p1668
F1
sVhove
p1669
F1
sVconsummate
p1670
F1
sVvizirs
p1671
F4
sVenergetic
p1672
F1
sVhives
p1673
F1
sVfaintly
p1674
F1
sVpeace.
p1675
F1
sVimpertinent,"
p1676
F1
sVsides
p1677
F6
sVfrozen.
p1678
F1
sVvizir,
p1679
F4
sVage
p1680
F1
sVconception,
p1681
F1
sVconception.
p1682
F1
sVvizir;
p1683
F1
sVsofas,
p1684
F2
sVfresh
p1685
F4
sVmenace
p1686
F1
sVhaving
p1687
F62
sVinstantly,
p1688
F3
sVinstantly.
p1689
F1
sVimplements,
p1690
F1
sVseemed
p1691
F22
sVdesperation.
p1692
F1
sVmagi.
p1693
F1
sVmagi,
p1694
F1
sVdouble-headed
p1695
F1
sVyoung
p1696
F17
sVsend
p1697
F1
sVreclined
p1698
F2
sVrejoined
p1699
F2
sVcarelessly
p1700
F1
sVmagi;
p1701
F1
sVsent
p1702
F7
sVgarden
p1703
F1
sVpanting
p1704
F2
sVwaters.
p1705
F1
sVwaters,
p1706
F1
sVwaters;
p1707
F1
sVcontinued
p1708
F14
sVmagic
p1709
F2
sVsleeping;
p1710
F3
sVfewer
p1711
F1
sVanxious
p1712
F2
sVrace
p1713
F1
sVhinges;
p1714
F1
sVblaspheming
p1715
F1
sVsurpasseth
p1716
F1
sVdisordered
p1717
F1
sVendearments
p1718
F1
sVodd
p1719
F1
sVthat,
p1720
F14
sVknees,
p1721
F1
sVexpressed
p1722
F2
sVindian
p1723
F4
sVflowing
p1724
F2
sVundone!
p1725
F1
sVbird
p1726
F1
sVscenery
p1727
F1
sVadvantageously
p1728
F1
sVvicegerent;
p1729
F1
sVled
p1730
F5
sVgulchenrouz!
p1731
F1
sVeminently
p1732
F1
sVrascally
p1733
F1
sVgulchenrouz,
p1734
F13
sVcommunicate
p1735
F1
sVgulchenrouz.
p1736
F3
sVanswered,
p1737
F2
sVlet
p1738
F29
sVoctave
p1739
F1
sVvicegerent.
p1740
F1
sVanswered:
p1741
F3
sVconsideration
p1742
F1
sVfifteen
p1743
F3
sVgulchenrouz:
p1744
F2
sVeffected.
p1745
F1
sVgreat
p1746
F36
sVrevile
p1747
F1
sVreceive
p1748
F12
sVentrails,
p1749
F1
sVindia,
p1750
F2
sVkaf!
p1751
F1
sVopinion
p1752
F1
sVsweat,
p1753
F1
sVwater;
p1754
F5
sVextricate
p1755
F2
sVsixty
p1756
F1
sVcounsels
p1757
F2
sVhaste;
p1758
F2
sVbats,
p1759
F1
sVhissings;
p1760
F1
sVstanding
p1761
F3
sVconfidence
p1762
F1
sVdreams,
p1763
F1
sVblubberer
p1764
F1
sVunknown.
p1765
F2
sVministers
p1766
F1
sVnext
p1767
F3
sVdoubt
p1768
F5
sVturned,
p1769
F1
sVknow,"
p1770
F1
sVanimal,
p1771
F1
sVball,
p1772
F4
sVball.
p1773
F1
sVlaboured
p1774
F2
sVoccurred
p1775
F1
sVceased;
p1776
F1
sVdilara
p1777
F2
sVfour-legged
p1778
F1
sVentangle
p1779
F1
sVrice
p1780
F2
sVanimals
p1781
F2
sVthis
p1782
F178
sVstop:
p1783
F1
sVpour
p1784
F2
sVcafour,
p1785
F5
sVthin
p1786
F1
sVhigh,
p1787
F1
sVmurmuring
p1788
F1
sVslid
p1789
F1
sVstreamed
p1790
F1
sVeminence;
p1791
F1
sVbent
p1792
F2
sVreeds
p1793
F1
sVauditors.
p1794
F1
sVlock
p1795
F2
sVhigh.
p1796
F1
sVpieces
p1797
F1
sVhigh
p1798
F7
sVbeckoned
p1799
F3
sVtrumpet
p1800
F1
sVstop,
p1801
F1
sVvictims.
p1802
F1
sVprocured
p1803
F3
sVcourtiers
p1804
F2
sVanimal
p1805
F2
sVmysteries
p1806
F1
sVvictims?
p1807
F1
sVgreatly
p1808
F5
sVpurpose:
p1809
F1
sVpurpose;
p1810
F1
sVsingular
p1811
F3
sVnear,
p1812
F2
sVhalted
p1813
F3
sVpurpose,
p1814
F1
sVfits
p1815
F1
sVties
p1816
F1
sVdaring
p1817
F1
sVpale,
p1818
F2
sVresolute,
p1819
F1
sVpopulace,
p1820
F4
sV"be
p1821
F2
sVacquitted
p1822
F1
sVallow
p1823
F3
sVpyramids
p1824
F1
sVwell-managed
p1825
F1
sVadmonitions:
p1826
F1
sVproduces
p1827
F1
sVmove
p1828
F1
sVhesitation,
p1829
F2
sVdesign,
p1830
F3
sVperfect
p1831
F1
sVassailants,
p1832
F1
sVdecay
p1833
F1
sVchosen
p1834
F1
sVstrewed
p1835
F4
sVsurgeons
p1836
F1
sVamiable:
p1837
F1
sVjasmines,
p1838
F2
sVkiss
p1839
F1
sVaffords:
p1840
F1
sVsoldiers!
p1841
F1
sVtransparent
p1842
F1
sVmultitudes,
p1843
F1
sVexertions,
p1844
F2
sVchose.
p1845
F1
sVundertaking
p1846
F1
sVdegree,
p1847
F1
sVwhither
p1848
F2
sVsneezed
p1849
F1
sVsufficiently
p1850
F2
sVdelightful
p1851
F8
sVsurgeon,
p1852
F1
sVanodynes,
p1853
F1
sVpersia
p1854
F1
sVaccompanied
p1855
F4
sVbeneath
p1856
F11
sVstrode
p1857
F1
sVgibes?"---
p1858
F1
sVmenagerie."
p1859
F1
sVshallop,
p1860
F1
sVtents
p1861
F3
sVdecided:
p1862
F1
sVsociety
p1863
F2
sVfarther,
p1864
F1
sVbooks
p1865
F1
sVwander
p1866
F1
sVfifty;
p1867
F1
sVpopulace
p1868
F2
sVfemales,
p1869
F2
sVvenom
p1870
F1
sVsuperbly
p1871
F1
sVfavours
p1872
F2
sVmonarchs,
p1873
F1
sVarchitecture
p1874
F1
sVshut
p1875
F5
sVawait
p1876
F1
sVperish
p1877
F2
sVunwieldy
p1878
F1
sVtent;
p1879
F1
sVtresses
p1880
F1
sVvexation,
p1881
F1
sVtent,
p1882
F1
sVtent.
p1883
F1
sVassiduously
p1884
F1
sVsoar'st
p1885
F1
sVpurpose.
p1886
F1
sVreposed
p1887
F2
sVthings.
p1888
F1
sVapprehend,
p1889
F1
sVfavour.
p1890
F1
sVcould
p1891
F56
sVput
p1892
F10
sVmaidens,
p1893
F1
sVlength
p1894
F14
sVsufferers,
p1895
F1
sVchills
p1896
F1
sVstimulate
p1897
F2
sVspilt
p1898
F2
sVspeaking,
p1899
F1
sVscene
p1900
F6
sVsoothing
p1901
F3
sVdine."
p1902
F1
sVaffliction
p1903
F1
sVshort,
p1904
F1
sVunabating
p1905
F1
sVblows
p1906
F1
sVhave,
p1907
F1
sVabhorrence.
p1908
F1
sVlamentations;
p1909
F1
sVtraveller
p1910
F1
sVtorture;
p1911
F1
sVcourted
p1912
F1
sVtravelled
p1913
F2
sVpainful
p1914
F1
sVgrated
p1915
F1
sVaccompany
p1916
F1
sVchagrin
p1917
F2
sVblow;
p1918
F1
sVavenues,
p1919
F1
sValboufaki
p1920
F8
sVinscriptions
p1921
F1
sVadopt.
p1922
F1
sVson!"
p1923
F1
sVemployment."
p1924
F1
sVsteep
p1925
F3
sVtorrent
p1926
F1
sVmelody,
p1927
F1
sVfalse
p1928
F1
sVvathek
p1929
F56
sVgentle
p1930
F3
sVfins:
p1931
F1
sVdevotions
p1932
F2
sVwanted?
p1933
F1
sVclearly
p1934
F1
sVviewed
p1935
F1
sVresigned
p1936
F1
sVsoak
p1937
F1
sVsubject
p1938
F4
sVwicked,
p1939
F1
sVpoison:
p1940
F1
sVnoise,
p1941
F1
sVsaid
p1942
F53
sVcarcasses
p1943
F1
sVdevice
p1944
F2
sVvultures
p1945
F2
sVhatred.
p1946
F1
sVface
p1947
F8
sVperceiving
p1948
F6
sVdemurely
p1949
F2
sVwilds!"
p1950
F1
sVcatoul,
p1951
F2
sVpainting
p1952
F1
sVeloquent.
p1953
F1
sVmean?
p1954
F1
sVterminate
p1955
F2
sVmean;
p1956
F1
sVbring
p1957
F6
sVrough
p1958
F1
sVasylum
p1959
F2
sVbrink
p1960
F6
sVjostling
p1961
F1
sVconciliate
p1962
F1
sVmute
p1963
F1
sVshould
p1964
F34
sVplanted
p1965
F2
sVhope
p1966
F7
sVlistened
p1967
F3
sVmeans
p1968
F11
sVfamiliar
p1969
F1
sVmatter,
p1970
F1
sVcontemptible
p1971
F1
sVstuff
p1972
F1
sVpalm-trees:
p1973
F1
sVspecies,
p1974
F1
sVwithstand
p1975
F2
sVexerted
p1976
F2
sVinterred;
p1977
F1
sVonce;
p1978
F1
sVonce,
p1979
F7
sVonce.
p1980
F2
sVend,
p1981
F3
sVend.
p1982
F1
sVrather,
p1983
F1
sVstream.
p1984
F1
sVfigure,
p1985
F2
sVbled;
p1986
F1
sVadding,---"we
p1987
F1
sVrevived
p1988
F1
sVstrides
p1989
F2
sVtaken,
p1990
F2
sVtaken.
p1991
F1
sVintervals,
p1992
F2
sVinvited
p1993
F3
sVdrug
p1994
F1
sVtrifles;
p1995
F1
sVstreams
p1996
F2
sVnugatory:
p1997
F1
sVquitted
p1998
F2
sVadjusted
p1999
F1
sVbraziers,
p2000
F2
sVpounced
p2001
F1
sVwhispering
p2002
F2
sVsopha,
p2003
F1
sVcarnivorous
p2004
F1
sVaccursed
p2005
F4
sVwords:
p2006
F1
sVoverpleased
p2007
F2
sVcamel-drivers
p2008
F1
sVapparition,
p2009
F1
sVsolitudes,
p2010
F1
sVpoured
p2011
F2
sVrecurring
p2012
F1
sVattend.
p2013
F1
sVdescent,
p2014
F1
sVradiance,
p2015
F1
sVrenowned;
p2016
F1
sVforests;
p2017
F1
sVpharaohs.
p2018
F1
sVlibation;
p2019
F1
sVchess
p2020
F1
sVetiquette."---in
p2021
F1
sVdiscoveries
p2022
F1
sVtalismans
p2023
F4
sVno!"
p2024
F1
sVsite
p2025
F1
sVimmoderately
p2026
F1
sV"to-day
p2027
F1
sVstench,
p2028
F1
sVstench.
p2029
F1
sVof,
p2030
F1
sVapricots
p2031
F2
sVstorks,
p2032
F1
sVglaring
p2033
F1
sVbalm
p2034
F1
sVball
p2035
F3
sVinfinity
p2036
F2
sVdusk
p2037
F1
sVdrink
p2038
F3
sVupon
p2039
F64
sVkorans
p2040
F1
sVlights,
p2041
F1
sVdust
p2042
F2
sVdelivered.
p2043
F1
sVexpand
p2044
F1
sVlutes,
p2045
F2
sVoff
p2046
F10
sVacknowledgement
p2047
F1
sVcolour
p2048
F2
sVovercast
p2049
F2
sVstatues,
p2050
F1
sVwaking,
p2051
F1
sVdoors,
p2052
F4
sVcommand
p2053
F3
sVrock,"
p2054
F2
sVdrawing
p2055
F2
sVlest
p2056
F4
sVreturned,
p2057
F2
sVless
p2058
F17
sVmoments
p2059
F4
sVdejection,
p2060
F2
sVinnocent!
p2061
F1
sVsemicircle,
p2062
F1
sVincrease;
p2063
F1
sVdejection;
p2064
F1
sVgoing;
p2065
F1
sVgenerous
p2066
F1
sVinevitable."
p2067
F1
sVwet
p2068
F2
sVdepositaries,"
p2069
F1
sV"how!"
p2070
F1
sVinnocents
p2071
F1
sVpied
p2072
F1
sVsnuffing
p2073
F1
sVcedar
p2074
F1
sVmoment.
p2075
F2
sVmoment,
p2076
F7
sVwishes."
p2077
F1
sVmoment!
p2078
F1
sVofferings
p2079
F2
sVgarments,
p2080
F1
sVwe,
p2081
F1
sVgaily.
p2082
F1
sVlucubrations,
p2083
F1
sVnerves
p2084
F1
sVwe?
p2085
F1
sVpoor
p2086
F18
sVhemming
p2087
F1
sValmonds
p2088
F1
sV"what
p2089
F7
sVavoid
p2090
F2
sVground,
p2091
F11
sVstores,
p2092
F1
sVshone
p2093
F5
sVdoes
p2094
F1
sVpassion
p2095
F2
sVhoarded
p2096
F1
sVvoluptuous
p2097
F5
sVpressure
p2098
F1
sVrecompensed
p2099
F1
sVmotavakel,
p2100
F2
sVgained
p2101
F2
sVtalismans?"---carathis,
p2102
F1
sVsister
p2103
F1
sVmerited
p2104
F2
sVfulfilment,
p2105
F1
sVinsufficient
p2106
F1
sVencamp
p2107
F1
sVpurblind,
p2108
F1
sVsharpness
p2109
F1
sVmere
p2110
F1
sVpious.
p2111
F1
sVterminated
p2112
F2
sVpious,
p2113
F1
sVplace;
p2114
F3
sVdestined,
p2115
F1
sV"vathek,
p2116
F1
sVplace,
p2117
F5
sVplace.
p2118
F2
sVhomage.
p2119
F1
sVindolence,
p2120
F1
sVsemicircle
p2121
F1
sVroad.
p2122
F1
sVslippery,
p2123
F1
sVneither,
p2124
F1
sVway-ward;
p2125
F1
sVletter,
p2126
F1
sVthey.
p2127
F1
sVthey,
p2128
F5
sVtossed
p2129
F1
sVplaces
p2130
F1
sVspot:
p2131
F1
sVshrunk
p2132
F1
sVsmooth
p2133
F1
sVspot,
p2134
F3
sVspot.
p2135
F3
sVcirculated,
p2136
F1
sVculled,
p2137
F1
sVprivate,
p2138
F1
sVprofusion
p2139
F5
sVarms;
p2140
F2
sVnurses
p2141
F1
sVrecognize
p2142
F1
sVfestival
p2143
F1
sVarms.
p2144
F1
sVarms,
p2145
F3
sVpalanquins
p2146
F1
sVdissolving,
p2147
F1
sVeffected
p2148
F1
sVgarden,
p2149
F1
sVcompared
p2150
F1
sVforests
p2151
F2
sVlately
p2152
F1
sVbehold
p2153
F5
sVgallantly
p2154
F1
sVpredominant
p2155
F1
sVsemblance
p2156
F1
sVagain.
p2157
F3
sVagain,
p2158
F2
sVagain!
p2159
F1
sVsieze
p2160
F1
sVin,
p2161
F3
sVagain;
p2162
F1
sVseraphic
p2163
F1
sVveil
p2164
F2
sVapertures
p2165
F1
sVlasted
p2166
F1
sVvillainous
p2167
F2
sVabhor
p2168
F1
sVparty;
p2169
F2
sVdoubts
p2170
F1
sVrapid
p2171
F2
sVrepress
p2172
F1
sVparty.
p2173
F3
sVmani,
p2174
F1
sVserpents;
p2175
F1
sVsupportable,
p2176
F1
sVserpents,
p2177
F1
sVsoused
p2178
F1
sVren
p2179
F1
sVplaintive
p2180
F1
sVserpents'
p2181
F1
sVamorous
p2182
F2
sVcompassion
p2183
F1
sVperishable
p2184
F1
sVfrolic,
p2185
F1
sVknowest
p2186
F1
sVbewildered
p2187
F6
sVrobe.
p2188
F2
sVfondly
p2189
F1
sVred
p2190
F2
sVtriumph
p2191
F1
sV"ought
p2192
F1
sVdiverting
p2193
F2
sVoccasioned
p2194
F7
sVseas,
p2195
F1
sVothers;
p2196
F1
sVothers,
p2197
F5
sVothers.
p2198
F1
sVemploy
p2199
F1
sVhouris,
p2200
F1
sVirrevocable
p2201
F1
sVabove
p2202
F4
sVtold
p2203
F2
sVmistress;
p2204
F2
sVsinks
p2205
F1
sVfestive
p2206
F1
sVadmirers
p2207
F1
sVwrapping
p2208
F1
sVrichest
p2209
F3
sVme?---i,
p2210
F1
sVapartment
p2211
F3
sVfathers;
p2212
F1
sVobtained
p2213
F1
sVdaughter
p2214
F8
sVkirmith,
p2215
F2
sVconsequently,
p2216
F1
sVdoleful
p2217
F1
sVglittering
p2218
F3
sVsecure
p2219
F1
sVhighly
p2220
F2
sVthrust
p2221
F1
sVglance
p2222
F2
sVtotal
p2223
F2
sVsenses!"
p2224
F1
sVdissipating,
p2225
F1
sVinsult
p2226
F1
sVshortest
p2227
F1
sVpermit,
p2228
F1
sVpermit.
p2229
F1
sVadministering
p2230
F1
sVplenitude
p2231
F1
sVbiers,
p2232
F2
sVreign
p2233
F1
sVencamped
p2234
F1
sVdrinking.
p2235
F1
sVwithholden
p2236
F1
sVcontinual
p2237
F1
sVindian:
p2238
F1
sVarranged.
p2239
F1
sVword
p2240
F1
sVwork
p2241
F3
sVworn
p2242
F1
sVindian,
p2243
F12
sVempire:
p2244
F1
sVfavour,
p2245
F2
sVoverspread
p2246
F2
sVradiance
p2247
F1
sVindia
p2248
F1
sVgrandees
p2249
F2
sVcustom,
p2250
F1
sVmingling
p2251
F1
sVindifferent
p2252
F1
sVinhabitants
p2253
F4
sVrecovers
p2254
F1
sVordinary
p2255
F3
sVfever
p2256
F1
sV"he
p2257
F4
sVcoined
p2258
F1
sVafter
p2259
F35
sVlay
p2260
F6
sVlap
p2261
F1
sVoblation
p2262
F1
sVchilled
p2263
F1
sVchagrin.
p2264
F1
sVhasty
p2265
F2
sVmanchets
p2266
F1
sVgreek
p2267
F1
sVgreen
p2268
F4
sVdilara,
p2269
F4
sVtopazes;
p2270
F1
sVclimb,
p2271
F1
sVorder
p2272
F5
sVenterprize,
p2273
F2
sVacclamations;
p2274
F1
sVinfested
p2275
F1
sVoffice
p2276
F1
sVdevote
p2277
F2
sVapproached,
p2278
F1
sVsatisfied
p2279
F2
sVears,
p2280
F1
sVderided
p2281
F1
sVapproached:
p2282
F1
sVrock?
p2283
F1
sVrock;
p2284
F4
sVbefallen
p2285
F1
sVrock,
p2286
F5
sVvanish!
p2287
F1
sVrock.
p2288
F1
sVindemnification.
p2289
F1
sVthen
p2290
F22
sVthem
p2291
F88
sVchoicest
p2292
F1
sVhereafter!"
p2293
F1
sVineffectual,
p2294
F1
sVthee
p2295
F15
sVamenable
p2296
F1
sVbreak
p2297
F5
sVyoung,
p2298
F1
sVthey
p2299
F199
sVemir,"
p2300
F1
sVexhaled
p2301
F2
sVbread
p2302
F2
sVlately,
p2303
F1
sVrespiration.
p2304
F1
sValternately
p2305
F1
sVconquest,
p2306
F1
sVrocks
p2307
F3
sVharem,
p2308
F5
sVabdicate.
p2309
F1
sVlifted
p2310
F1
sVtransient
p2311
F1
sVcrimes
p2312
F4
sVfishing,
p2313
F1
sVhurlyburly
p2314
F1
sVflock
p2315
F1
sVsubsistence;
p2316
F1
sVthirty-two.
p2317
F1
sVfinished,
p2318
F2
sVforty
p2319
F3
sValarmed.
p2320
F1
sVremorse
p2321
F1
sVforth
p2322
F27
sVdying!"
p2323
F1
sVcrime;
p2324
F1
sVbarrier
p2325
F1
sVmaniac.
p2326
F1
sVstandard
p2327
F1
sVdisputes
p2328
F1
sVamazement
p2329
F2
sVrows
p2330
F1
sVcreated
p2331
F1
sVappendages
p2332
F1
sVstranger.
p2333
F2
sVstranger,
p2334
F3
sVfellow,
p2335
F1
sVinscription:
p2336
F1
sVrenew
p2337
F2
sVoppose
p2338
F2
sVstranger;
p2339
F1
sV(as
p2340
F1
sVknives,
p2341
F1
sVstripling
p2342
F1
sVvulgar
p2343
F1
sVrender
p2344
F5
sVpower?"
p2345
F1
sVfears.
p2346
F1
sVmonker
p2347
F1
sVanother
p2348
F6
sVthick
p2349
F1
sVbelly."
p2350
F1
sVpower.
p2351
F1
sVpower,
p2352
F5
sVconfectioners
p2353
F1
sVscene.
p2354
F5
sVscene,
p2355
F1
sVairs
p2356
F2
sVpower:
p2357
F1
sVpaltry
p2358
F1
sVthing;
p2359
F1
sVrejected
p2360
F1
sVscorpions
p2361
F1
sVcorresponded
p2362
F1
sVmercy
p2363
F4
sVdog,
p2364
F1
sVintrusion
p2365
F1
sVrate,
p2366
F1
sVair,
p2367
F8
sVair.
p2368
F3
sViron
p2369
F4
sVair;
p2370
F5
sVpowers
p2371
F5
sVexercise,
p2372
F1
sVresound
p2373
F1
sVenchanted
p2374
F2
sVmanner
p2375
F7
sVimpelled
p2376
F2
sVstomach
p2377
F1
sVyourselves,
p2378
F1
sVforced
p2379
F8
sVstrength
p2380
F3
sVladen
p2381
F2
sVlatter
p2382
F1
sVinquietudes
p2383
F1
sVvathek's
p2384
F2
sVovertook
p2385
F1
sVluxury
p2386
F1
sVpilgrimage
p2387
F1
sVcompanion?---"i
p2388
F1
sVexplanation
p2389
F2
sVextending
p2390
F2
sVfast,"
p2391
F1
sVshoal,
p2392
F1
sVcontent;
p2393
F1
sVallotted,
p2394
F1
sVassuredly,
p2395
F1
sVhim;
p2396
F8
sVnostrils
p2397
F1
sVforce,
p2398
F1
sVswagging
p2399
F1
sVsubject.
p2400
F1
sVdeeply
p2401
F1
sVreserve
p2402
F1
sVlitters,
p2403
F2
sVdream.
p2404
F1
sVemotions
p2405
F1
sVsubtle
p2406
F1
sVvessels.
p2407
F1
sVlitters;
p2408
F1
sVroses:
p2409
F1
sVhim.
p2410
F16
sVlatent
p2411
F1
sVhither,
p2412
F2
sVguidance
p2413
F1
sVgrey-bearded
p2414
F1
sVhither;
p2415
F2
sVhither:
p2416
F1
sVhither?
p2417
F1
sVdeepest
p2418
F3
sVroses,
p2419
F1
sVpursuing
p2420
F2
sVdismayed,
p2421
F1
sVrun,
p2422
F1
sVdo
p2423
F12
sVincentives
p2424
F1
sVdisturb.
p2425
F1
sVdisturb,
p2426
F1
sVempty;
p2427
F1
sVleisure
p2428
F2
sVyielded
p2429
F3
sVhaunted
p2430
F2
sVvividly
p2431
F1
sVempty,
p2432
F1
sVheadlong
p2433
F1
sVassigned
p2434
F1
sVsky,
p2435
F1
sVcovering
p2436
F1
sVunexamined.
p2437
F1
sVfeet,
p2438
F7
sVtraveller,
p2439
F2
sVsutlememe?
p2440
F1
sVfolds.
p2441
F1
sVsutlememe;
p2442
F2
sVobserved
p2443
F2
sV"for,
p2444
F1
sVsymars
p2445
F1
sVmiserable
p2446
F6
sVlaugh,"
p2447
F1
sV93
p2448
F1
sVdraws
p2449
F1
sVbegrime
p2450
F1
sVaway
p2451
F6
sVbehold.
p2452
F1
sVlighted,
p2453
F1
sVovergrown
p2454
F1
sVunable
p2455
F15
sVfelicitating
p2456
F1
sVdrawn
p2457
F6
sVwe
p2458
F45
sVadmiring
p2459
F1
sVhandful
p2460
F2
sVsleepers,
p2461
F1
sVtravellers
p2462
F2
sVtorrent;
p2463
F2
sVreceived
p2464
F8
sVtrance,
p2465
F2
sVill
p2466
F5
sVeblis.
p2467
F2
sVgroans
p2468
F4
sVtone
p2469
F3
sVarmour,
p2470
F1
sVinfirm
p2471
F1
sVbetook
p2472
F3
sVspeak
p2473
F4
sVgratitude
p2474
F2
sVdozens
p2475
F2
sVthrice
p2476
F2
sVamusements,
p2477
F1
sVporing
p2478
F2
sVconcerning
p2479
F1
sVamusements;
p2480
F1
sVbrightening
p2481
F1
sVcarp;
p2482
F1
sVgracious
p2483
F1
sVapplied
p2484
F2
sVreciprocal
p2485
F2
sVair
p2486
F13
sVshrewdness,
p2487
F1
sVdifficulty,
p2488
F1
sVaid
p2489
F1
sVvoice
p2490
F17
sV"dread
p2491
F1
sVfaith.
p2492
F1
sVtruce,
p2493
F1
sVskipping
p2494
F1
sVconfirmed
p2495
F1
sVperform
p2496
F4
sVodours.
p2497
F1
sVodours,
p2498
F1
sVdescend
p2499
F1
sVelders
p2500
F1
sVmonarch
p2501
F7
sVdisappointment!
p2502
F1
sVprovisions,
p2503
F1
sVpleasantries,
p2504
F1
sVpavement,
p2505
F1
sVrain
p2506
F1
sVhand
p2507
F11
sVdiscourse,
p2508
F3
sVpalpable
p2509
F2
sVblamed
p2510
F1
sVprescribed
p2511
F2
sVkept
p2512
F5
sVdishes
p2513
F2
sVthy
p2514
F75
sVvariegated
p2515
F2
sVhumble
p2516
F1
sVaracan.
p2517
F1
sVhumbly
p2518
F1
sVworld!"
p2519
F2
sVout:---"what
p2520
F1
sVmay,
p2521
F1
sVrepose
p2522
F3
sVincentive
p2523
F1
sVvictim
p2524
F1
sVextol
p2525
F1
sVdoated
p2526
F1
sVopen-mouthed
p2527
F1
sVshout
p2528
F1
sVspread
p2529
F3
sVtransformed
p2530
F1
sVexpelled
p2531
F1
sVsolitude
p2532
F1
sVswear,
p2533
F1
sVwashed,
p2534
F1
sVskirting,
p2535
F1
sVunmolested
p2536
F1
sVretreat
p2537
F1
sVrequired?
p2538
F1
sVbelong,
p2539
F1
sVzeal,
p2540
F2
sVzeal.
p2541
F2
sVjustice,
p2542
F1
sVhill.
p2543
F3
sVhill,
p2544
F3
sVwarily
p2545
F1
sVglad,
p2546
F1
sVborn
p2547
F1
sVfulminating
p2548
F1
sVmahomet!"
p2549
F1
sVbore
p2550
F2
sV"charming
p2551
F1
sVmonth:
p2552
F1
sVaccept;
p2553
F1
sVbaths,
p2554
F1
sV"no!"
p2555
F1
sVleered
p2556
F1
sVhonoured
p2557
F1
sVdine,
p2558
F1
sVhalf-burnt
p2559
F1
sVconfer
p2560
F1
sVdisappointments
p2561
F1
sVodour,
p2562
F3
sVdepositories,
p2563
F1
sVenter,
p2564
F2
sVcoral
p2565
F1
sVfillagreen
p2566
F1
sVdined
p2567
F1
sVdecoyed
p2568
F1
sVfaint
p2569
F2
sVsnow;
p2570
F2
sVsparing
p2571
F1
sVbound
p2572
F3
sVsnow.
p2573
F1
sVpreposterously
p2574
F1
sVcarousing,
p2575
F1
sVformidable
p2576
F3
sVconfessed,
p2577
F1
sVwan
p2578
F1
sVfamiliarize
p2579
F1
sVsovereign
p2580
F9
sVway
p2581
F8
sVwax
p2582
F2
sVhim."
p2583
F1
sVwas
p2584
F296
sVtabernacle;
p2585
F1
sVbecoming
p2586
F2
sVforgetful
p2587
F1
sVtaken
p2588
F12
sVboon
p2589
F1
sVastonished
p2590
F1
sVleft;
p2591
F1
sVtrue
p2592
F1
sVcomprehending
p2593
F1
sVabsent
p2594
F1
sVaccord,
p2595
F1
sVimpatience,
p2596
F2
sVemir
p2597
F13
sVcurious.
p2598
F1
sVpromises
p2599
F3
sVconcern,
p2600
F1
sVwretched
p2601
F2
sVhowling
p2602
F1
sVguessed
p2603
F3
sVpromised
p2604
F5
sVjuice,
p2605
F1
sVprayer
p2606
F1
sVbrother.
p2607
F2
sVbrother,
p2608
F2
sVsong,
p2609
F1
sVdying
p2610
F2
sVmeanness
p2611
F1
sVhusbands,
p2612
F1
sVadorers:
p2613
F1
sVbed,
p2614
F1
sVhurry,
p2615
F1
sVpace.
p2616
F1
sVholding
p2617
F6
sVbed;
p2618
F1
sVunwilling
p2619
F2
sVbanquet;
p2620
F1
sVexpress,
p2621
F1
sVbrothers
p2622
F1
sVmortified,
p2623
F1
sVcatoul.
p2624
F1
sVscream.
p2625
F1
sVours,
p2626
F2
sVbestowed
p2627
F4
sVinterval
p2628
F1
sVtogether
p2629
F11
sVbeds
p2630
F3
sVsaid---"and
p2631
F1
sVbanquets
p2632
F1
sVreception
p2633
F2
sV---"the
p2634
F1
sVnimrod,
p2635
F1
sVpaced
p2636
F1
sVsongs
p2637
F1
sVvotaries
p2638
F2
sVbroke
p2639
F8
sVdance
p2640
F2
sValacrity.
p2641
F1
sVwakeful
p2642
F1
sVcabins,
p2643
F1
sVgrateful
p2644
F4
sVdevoted
p2645
F5
sVturn;
p2646
F1
sVcertainly
p2647
F4
sVsloth,
p2648
F1
sVperceive,
p2649
F1
sVagony,
p2650
F1
sVcompensate
p2651
F1
sVturn,
p2652
F1
sVterror
p2653
F6
sVnumber,
p2654
F1
sVbrown
p2655
F1
sVschiraz,
p2656
F1
sVwenny
p2657
F1
sVshrivelled
p2658
F1
sVsigh
p2659
F1
sVblast
p2660
F1
sVfeeble
p2661
F1
sVperceived
p2662
F11
sVpresented
p2663
F11
sVassiduity,
p2664
F2
sVperceives
p2665
F1
sVhither?"
p2666
F1
sVupper
p2667
F1
sVbrave
p2668
F2
sVregret
p2669
F3
sVregained
p2670
F2
sVdiscover
p2671
F4
sVappear!
p2672
F1
sVprincesses,
p2673
F1
sVbeneath.
p2674
F1
sVcost
p2675
F1
sVperplexity
p2676
F1
sVhorses:
p2677
F1
sVtempest
p2678
F1
sVpenetrated
p2679
F3
sVappear
p2680
F3
sVassistance
p2681
F1
sVrepeated,
p2682
F1
sVshares
p2683
F1
sVincorruptible
p2684
F1
sVcompleted;
p2685
F1
sVpeals
p2686
F4
sVrepeated;
p2687
F1
sV---"i
p2688
F1
sValertness
p2689
F3
sVsafety.
p2690
F1
sVsatisfy
p2691
F2
sVdeserts,
p2692
F1
sVmuslin
p2693
F3
sVwhiteness
p2694
F1
sVrepent,
p2695
F1
sVundauntedly
p2696
F1
sVsending
p2697
F1
sVmerriment
p2698
F1
sVmerchandize
p2699
F1
sVflames
p2700
F6
sVimpatiently
p2701
F1
sVwolf;
p2702
F1
sVtrial
p2703
F3
sVusually
p2704
F1
sVpetitioned
p2705
F1
sVtower;
p2706
F4
sVtower:
p2707
F1
sVfelt,
p2708
F1
sVfelt.
p2709
F1
sVlamentations,
p2710
F1
sVmarked
p2711
F2
sVtower.
p2712
F5
sVcapacious
p2713
F3
sVatrocious
p2714
F2
sVtower!
p2715
F1
sVprove
p2716
F1
sVyou."
p2717
F3
sVlive
p2718
F2
sVentrance
p2719
F2
sVembroiderers
p2720
F1
sVretire,
p2721
F1
sVretire.
p2722
F1
sVtriumph.
p2723
F1
sVwafted
p2724
F1
sVretire;
p2725
F2
sVclumps
p2726
F1
sVangel,
p2727
F1
sVcroaking.
p2728
F1
sVchastise
p2729
F1
sVbalkis,
p2730
F1
sVincidents
p2731
F1
sVcan
p2732
F19
sVimitation
p2733
F1
sVheart
p2734
F13
sVdedicated
p2735
F1
sVattribute
p2736
F1
sVhabitations,
p2737
F1
sVpaused
p2738
F1
sVheard
p2739
F23
sVregale
p2740
F6
sVbalaam,
p2741
F2
sVdistinguishable
p2742
F1
sVfuture:
p2743
F1
sVproductive
p2744
F1
sVimprecations.
p2745
F1
sVcarnation-colour
p2746
F1
sVwrite
p2747
F2
sVblasphemies,
p2748
F1
sVnose.
p2749
F2
sVnose,
p2750
F1
sVornaments,
p2751
F1
sVmorakanabad
p2752
F7
sVstaircase
p2753
F2
sVsacrifice
p2754
F3
sVfortune,
p2755
F1
sVbrazen
p2756
F1
sVdisgusted
p2757
F4
sVgrass,
p2758
F1
sVgrass.
p2759
F1
sVdistrict
p2760
F1
sVvases
p2761
F6
sVhear,
p2762
F1
sVlifting
p2763
F1
sVdisposition;
p2764
F1
sVspread;
p2765
F1
sVnoses
p2766
F2
sVwanderings
p2767
F1
sVwhenever
p2768
F3
sVtrumpets
p2769
F2
sVmemory:
p2770
F1
sVcafila,
p2771
F1
sVaccelerated
p2772
F1
sVspread,
p2773
F1
sVspread.
p2774
F2
sVmemory.
p2775
F1
sVwishes!"
p2776
F1
sVindeed
p2777
F3
sVtail,
p2778
F1
sVdisplayed
p2779
F3
sVraised
p2780
F6
sVbewitching
p2781
F1
sVended
p2782
F2
sVtablets
p2783
F1
sVtroops;
p2784
F1
sVcold
p2785
F4
sVstill
p2786
F30
sVbirds
p2787
F4
sVtrifle
p2788
F1
sVperceived,
p2789
F2
sV"come,
p2790
F1
sVvicinity
p2791
F1
sVforms
p2792
F3
sVwindow
p2793
F2
sVspacious
p2794
F5
sVshowered
p2795
F1
sV"come;
p2796
F1
sVdesigns;
p2797
F1
sVchattering
p2798
F1
sVspirits.
p2799
F1
sVspirits,
p2800
F3
sVintroduce
p2801
F1
sVliberality
p2802
F3
sVspirits?
p2803
F1
sVspirits;
p2804
F1
sVhalf
p2805
F9
sVnot
p2806
F200
sVnow
p2807
F21
sVprovision
p2808
F3
sVhall
p2809
F4
sVnor
p2810
F24
sVintrigues
p2811
F1
sVservant
p2812
F1
sVdrop
p2813
F1
sVform,
p2814
F1
sVbursts
p2815
F1
sVform;
p2816
F1
sVscarves,
p2817
F1
sVentirely
p2818
F4
sVcliffs
p2819
F1
sVprompted
p2820
F5
sVanother's
p2821
F1
sVadvantage.
p2822
F1
sVdazzling,
p2823
F1
sVdirecting
p2824
F1
sVhurried
p2825
F1
sVavidity
p2826
F2
sVfires
p2827
F3
sVavoided
p2828
F1
sVadvantage;
p2829
F1
sVmeats,
p2830
F1
sVamusement
p2831
F2
sVwax;
p2832
F1
sVopened
p2833
F6
sVcould,
p2834
F4
sVpalace.
p2835
F4
sVpalace,
p2836
F13
sVthirst
p2837
F8
sVhastily
p2838
F3
sVincrease
p2839
F2
sVdome,
p2840
F3
sVreceiving
p2841
F3
sVpalace;
p2842
F1
sVastonishment!
p2843
F1
sVderived
p2844
F1
sVastonishment,
p2845
F1
sVfire,
p2846
F8
sVapparitions,
p2847
F1
sVfire.
p2848
F5
sVintruding
p2849
F1
sVadvantages
p2850
F1
sVsugar.
p2851
F1
sVfire;
p2852
F2
sVominous
p2853
F2
sVcare
p2854
F7
sVdomes
p2855
F1
sVkingdoms
p2856
F1
sVmansions,
p2857
F1
sVwives!---go!
p2858
F1
sVtrunks:
p2859
F1
sVpalaces
p2860
F4
sVinvitation
p2861
F1
sVoutcry
p2862
F2
sVentrusted
p2863
F1
sValtitude
p2864
F1
sVblind
p2865
F3
sVstriking
p2866
F1
sVomitted
p2867
F1
sVenjoining
p2868
F1
sVyourself
p2869
F5
sVtalismans."---
p2870
F1
sVended,
p2871
F3
sVimpossible
p2872
F1
sVring
p2873
F1
sVdrove
p2874
F2
sVimpetuous
p2875
F1
sVchecked
p2876
F1
sVsilent
p2877
F2
sVignorant;
p2878
F1
sVcaught
p2879
F4
sVgoul!
p2880
F1
sV"still
p2881
F1
sVfriend
p2882
F1
sVmeimoune,
p2883
F3
sVroses.
p2884
F2
sVmeimoune.
p2885
F1
sVpomp
p2886
F2
sVthat
p2887
F344
sVbees,
p2888
F2
sVexpanse
p2889
F1
sVinmates
p2890
F1
sVoccupation,
p2891
F1
sVflowers
p2892
F5
sVthan
p2893
F89
sVabandoned,
p2894
F1
sVdawn;
p2895
F1
sVto-morrow,
p2896
F1
sVtransferred
p2897
F1
sVhalls
p2898
F2
sVdawn.
p2899
F1
sVdawn,
p2900
F1
sVfruits
p2901
F4
sVwilt;
p2902
F1
sVthee!"
p2903
F2
sVangel
p2904
F2
sVremained
p2905
F17
sVindolent.
p2906
F1
sVsupplication;
p2907
F1
sVleilah,
p2908
F1
sVpilaus
p2909
F1
sVdromedaries
p2910
F1
sVanger
p2911
F1
sVinsatiable
p2912
F3
sVdevoured,
p2913
F1
sVserail.
p2914
F1
sVintrusion.
p2915
F1
sVpunishment,
p2916
F1
sVforming
p2917
F1
sVstead,
p2918
F1
sVinclosure
p2919
F1
sVbeholdest
p2920
F1
sVcheeks,
p2921
F1
sVneatly
p2922
F1
sVwood-fellers
p2923
F1
sVravaged
p2924
F1
sVappoint,
p2925
F1
sVabashed,
p2926
F1
sVslaves
p2927
F4
sVdispersed
p2928
F1
sVabashed;
p2929
F1
sVstream,
p2930
F2
sVrambling
p2931
F1
sVfifty
p2932
F10
sVdiscovered
p2933
F10
sVbracelet;
p2934
F1
sVcrashing
p2935
F1
sVextricated
p2936
F1
sVinvited.
p2937
F1
sVvagaries.
p2938
F1
sVbusily
p2939
F1
sVstair
p2940
F1
sVpreternatural
p2941
F3
sVenriched
p2942
F1
sVinventive,
p2943
F1
sVseen.
p2944
F2
sVseen,
p2945
F1
sVshare;
p2946
F1
sVcomfits;
p2947
F1
sV'tis
p2948
F1
sVhall,
p2949
F1
sVtruly
p2950
F2
sVcannot
p2951
F8
sVpestilential
p2952
F1
sVcelebrate
p2953
F1
sVnext,
p2954
F1
sVseldom
p2955
F1
sVresplendent,
p2956
F1
sVeffectual
p2957
F1
sVfriends,
p2958
F2
sVfriends!
p2959
F1
sVinvention:
p2960
F1
sVmaster."
p2961
F1
sVburst
p2962
F8
sVasleep
p2963
F1
sVdreadful.
p2964
F1
sVconcern
p2965
F1
sVexterminating
p2966
F2
sVtutor;
p2967
F1
sVdervish
p2968
F1
sVcome!
p2969
F1
sVso!"
p2970
F3
sVcolours
p2971
F1
sVgian
p2972
F2
sVcome;
p2973
F1
sVbetween
p2974
F6
sVunheedful
p2975
F1
sVreside.
p2976
F1
sVher's:
p2977
F1
sVquivered,
p2978
F1
sVafar.
p2979
F1
sVlife?---and,
p2980
F1
sVpluck
p2981
F1
sVhurts
p2982
F1
sVarticle
p2983
F1
sVbustled,
p2984
F1
sV---"tush,
p2985
F1
sVcolour:
p2986
F1
sVshamefully
p2987
F2
sVdispatch
p2988
F2
sVwreaths
p2989
F1
sVprodigy
p2990
F1
sVmoisture,
p2991
F1
sVmuttered
p2992
F1
sV"come,"
p2993
F1
sVcares
p2994
F1
sVinformed
p2995
F2
sVbluntly;
p2996
F1
sVdisclosed
p2997
F3
sVshrieking.
p2998
F1
sVsolaced
p2999
F2
sVsuspected
p3000
F2
sVthese
p3001
F119
sVdanger.
p3002
F1
sVjerk,
p3003
F1
sVtrick
p3004
F1
sVperfidious
p3005
F1
sVcare,
p3006
F1
sVart!"
p3007
F1
sVdanger;
p3008
F1
sVimplacable
p3009
F1
sVforbear
p3010
F2
sVimprecation;
p3011
F1
sVzenith
p3012
F1
sVsoil
p3013
F2
sVcommander
p3014
F8
sVembrace
p3015
F1
sVdoxy,
p3016
F1
sVheels
p3017
F1
sVcommanded
p3018
F14
sVdisconcerted,
p3019
F1
sVdelusive
p3020
F2
sVfood
p3021
F1
sVever."
p3022
F1
sVcontortions
p3023
F1
sVswore,
p3024
F1
sVsaluted,
p3025
F1
sVnoble
p3026
F1
sVmultitude,
p3027
F2
sVedifying
p3028
F1
sVenjoyment
p3029
F1
sVimprecations
p3030
F2
sVsheddad?"---infatuated
p3031
F1
sVfruit
p3032
F1
sVconsult,
p3033
F1
sVdispositions;
p3034
F1
sVpourtrayed
p3035
F1
sVthrown
p3036
F8
sVenchanting
p3037
F2
sVcomplained
p3038
F1
sVpurer
p3039
F1
sVbreeze
p3040
F1
sVimmeasurable
p3041
F1
sVknow?"
p3042
F1
sVam,
p3043
F1
sVshouts
p3044
F3
sVtreasury,
p3045
F1
sVefforts,
p3046
F1
sVtouch
p3047
F1
sVspeed
p3048
F1
sVdeath
p3049
F5
sVthinking
p3050
F1
sVweariness
p3051
F1
sVsenseless
p3052
F1
sVthen!"
p3053
F1
sVwisdom,
p3054
F1
sVverse
p3055
F1
sVcouncils:
p3056
F1
sVconduct,
p3057
F1
sVstruck
p3058
F4
sVmegnoun,
p3059
F1
sVboast
p3060
F1
sVread
p3061
F5
sVentertainment:
p3062
F1
sVentertainment;
p3063
F1
sVshout.
p3064
F1
sVcaverns
p3065
F1
sVearly
p3066
F1
sVearnest
p3067
F1
sVdecipher,
p3068
F1
sVpolitely
p3069
F2
sVculprits
p3070
F1
sVlady
p3071
F2
sVentertainment.
p3072
F1
sVdates,
p3073
F2
sVconversing
p3074
F2
sVhazards,
p3075
F1
sVdislodged
p3076
F1
sVwithstand.
p3077
F1
sVmandates,
p3078
F2
sVforfeitures,
p3079
F1
sVdone!
p3080
F1
sVmuezins
p3081
F2
sVtwelve
p3082
F2
sVopened,
p3083
F1
sVapartments
p3084
F2
sVzealously
p3085
F1
sVopened;
p3086
F1
sVeffluvia,
p3087
F1
sV---"and
p3088
F2
sVspectacles,
p3089
F1
sVpassions
p3090
F2
sVsaid---"get
p3091
F1
sVflourished;
p3092
F1
sVassembly
p3093
F2
sVcaresses;
p3094
F1
sVdejection
p3095
F1
sVcaresses.
p3096
F3
sVcaresses,
p3097
F3
sVseducing
p3098
F1
sVinnocence
p3099
F2
sVapartment,
p3100
F1
sVapartment.
p3101
F1
sVhandsomest
p3102
F1
sVthrow
p3103
F3
sVfondness
p3104
F3
sVpiety
p3105
F4
sValighted,
p3106
F1
sVpleased.
p3107
F1
sVpassion:
p3108
F1
sVboldly
p3109
F1
sValleviated
p3110
F1
sVremonstrance
p3111
F1
sVconceals
p3112
F1
sVwithout,
p3113
F2
sVinvested
p3114
F1
sVwhole,
p3115
F1
sVintermission,
p3116
F1
sVuproar,
p3117
F1
sVintermission.
p3118
F2
sVsquare,
p3119
F1
sVyour
p3120
F70
sVrisen.
p3121
F1
sVgrates
p3122
F1
sVprepare
p3123
F5
sVtone,
p3124
F1
sVposture,
p3125
F2
sVlow
p3126
F4
sVstars
p3127
F5
sVthick,
p3128
F1
sVspoken,"
p3129
F1
sVdelicious,
p3130
F1
sVtone;
p3131
F1
sVyou.
p3132
F1
sVyou,
p3133
F8
sVgrin,
p3134
F1
sVdelayed
p3135
F1
sVyou?
p3136
F1
sVyou;
p3137
F1
sVthyself."
p3138
F1
sVgew-gaws.
p3139
F1
sVpitched
p3140
F3
sVappeased.
p3141
F1
sVappeased,
p3142
F1
sVlo!
p3143
F2
sVburning.
p3144
F2
sVdeclined,
p3145
F1
sVare,
p3146
F4
sVstar.
p3147
F1
sVsadness
p3148
F1
sVappeased;
p3149
F1
sVtones
p3150
F1
sVsun-shine.
p3151
F1
sVinflict
p3152
F1
sVcourtiers,
p3153
F1
sVbrain?"
p3154
F1
sVdescribe
p3155
F1
sVmoved
p3156
F1
sVretreats,
p3157
F1
sVheart."
p3158
F1
sVtrickled
p3159
F1
sVardent
p3160
F2
sVunwelcome
p3161
F2
sVadministered
p3162
F4
sVfirmness,
p3163
F1
sVthither
p3164
F5
sVvine,
p3165
F1
sVevenings
p3166
F1
sVyou
p3167
F78
sVforcing
p3168
F1
sVscratches,
p3169
F1
sVgaining
p3170
F1
sVdesolation
p3171
F2
sVthrow,
p3172
F1
sVinsomuch
p3173
F1
sVaigret
p3174
F1
sVdespondingly,
p3175
F1
sVflattened
p3176
F1
sVsuited
p3177
F3
sVtorches
p3178
F9
sVtalapoins
p3179
F1
sVbuilding
p3180
F1
sVfool,
p3181
F1
sVevening,
p3182
F3
sVreveries,
p3183
F1
sVcabinet:
p3184
F1
sVapathy
p3185
F1
sVrestored
p3186
F1
sVdoubted
p3187
F1
sVembracing
p3188
F3
sVsurrounded
p3189
F10
sVpointing
p3190
F1
sVpique
p3191
F2
sVrobe,
p3192
F1
sVdreadful
p3193
F5
sVgloom,
p3194
F1
sVmuttering,
p3195
F2
sVrepast:
p3196
F1
sVmoved."
p3197
F1
sVhill
p3198
F2
sVconfidential
p3199
F2
sVvery
p3200
F14
sVhorror
p3201
F4
sVrobes
p3202
F3
sVcoloured
p3203
F2
sVheaven
p3204
F3
sVexpedients;
p3205
F1
sVmild
p3206
F3
sVplain
p3207
F5
sVthrobbing
p3208
F1
sVexpedients,
p3209
F1
sVwater!"
p3210
F1
sVlitter;
p3211
F2
sVcolossal
p3212
F1
sVimpieties,
p3213
F1
sVstreets
p3214
F3
sVanswer,
p3215
F1
sVanswer.
p3216
F1
sVenjoin
p3217
F1
sVtrack;
p3218
F1
sVimpertinence
p3219
F1
sVails
p3220
F1
sVnegresses,
p3221
F8
sVhim:
p3222
F9
sVdarkness
p3223
F4
sVzealots
p3224
F1
sVnegresses!
p3225
F1
sVthickness
p3226
F1
sVwitnesses
p3227
F1
sVhim,
p3228
F38
sVnegresses;
p3229
F2
sVirak
p3230
F1
sVlitters
p3231
F1
sVloose
p3232
F3
sVfixed,
p3233
F2
sVfixed.
p3234
F1
sVhump-backs;
p3235
F1
sVstrong
p3236
F2
sVreality,
p3237
F1
sVinterposed
p3238
F1
sVemotion;
p3239
F2
sVinspired
p3240
F6
sVadieu!
p3241
F1
sVpartaken
p3242
F1
sVtranquilly
p3243
F1
sVserendib,
p3244
F1
sVmaster,"
p3245
F1
sVfamily
p3246
F1
sVbutterflies.
p3247
F1
sVimpiety
p3248
F2
sVbutterflies,
p3249
F1
sVbordered
p3250
F1
sVtendered
p3251
F1
sVlimping,
p3252
F1
sVaimed
p3253
F1
sVcontains
p3254
F2
sVpraised
p3255
F1
sVmysterious
p3256
F2
sVbudget?
p3257
F1
sVlowering
p3258
F3
sVglobe.
p3259
F1
sVcommenced
p3260
F2
sVmoistened
p3261
F1
sVimpulse
p3262
F1
sV"alas!"
p3263
F2
sVmounted
p3264
F4
sVkindled.
p3265
F1
sVkindled,
p3266
F2
sVoffended
p3267
F1
sVme!"
p3268
F2
sVnine
p3269
F3
sVhorses,
p3270
F1
sVtake,
p3271
F1
sVspontaneous
p3272
F1
sVhistory
p3273
F1
sVvisage
p3274
F1
sVcadis,
p3275
F1
sVforth,
p3276
F3
sVfury,
p3277
F1
sVtriumph,
p3278
F1
sVpushed
p3279
F1
sVspecies
p3280
F1
sVfirmly
p3281
F1
sVoratory
p3282
F1
sVcontrive,
p3283
F1
sVchops
p3284
F1
sVsurpassed
p3285
F1
sVunlucky
p3286
F2
sVchildren!"
p3287
F1
sVreject
p3288
F1
sVvigilance
p3289
F1
sV"hah!
p3290
F1
sVcomplexions
p3291
F1
sVaugment
p3292
F2
sVrude
p3293
F1
sVabjuring
p3294
F1
sVcourts;
p3295
F1
sVsapphire.
p3296
F1
sVa
F634
sVcontrived
p3297
F4
sValoes,
p3298
F1
sValoes.
p3299
F1
sVrenewing
p3300
F1
sVdread
p3301
F1
sVbanks
p3302
F4
sVdispersing
p3303
F1
sVhelp
p3304
F8
sVreservoir
p3305
F2
sVsoon
p3306
F42
sVheld
p3307
F1
sVcommitted
p3308
F1
sVstaunch
p3309
F1
sV"cherish
p3310
F1
sVoccasion;
p3311
F1
sVactually
p3312
F2
sVtravellers,
p3313
F1
sVsystems
p3314
F1
sVoccasion,
p3315
F1
sVradical
p3316
F1
sVif,
p3317
F2
sVfull,
p3318
F2
sVfool
p3319
F2
sVevening
p3320
F9
sVindefatigable
p3321
F1
sVfreshness,
p3322
F1
sVye
p3323
F4
sVanticipated
p3324
F2
sVfancy
p3325
F2
sVfoot
p3326
F9
sVtowering
p3327
F1
sVcaliph's
p3328
F8
sVsurprize,
p3329
F2
sVunmerciful
p3330
F1
sVstopped
p3331
F3
sVdie
p3332
F2
sVme---the
p3333
F1
sVrestless
p3334
F1
sVjaws
p3335
F1
sVthirteenth
p3336
F1
sVenergy.
p3337
F1
sVenergy,
p3338
F1
sVscraps,
p3339
F1
sVbeyond
p3340
F7
sVevent
p3341
F2
sVtrusty
p3342
F1
sVpresumptuous
p3343
F1
sVappetitite,
p3344
F1
sVsince
p3345
F6
sVsultanas:
p3346
F1
sVtestify
p3347
F1
sVlord
p3348
F1
sV7
F1
sVsultanas.
p3349
F1
sVsultanas,
p3350
F1
sVissue
p3351
F1
sVass
p3352
F2
sVuttered.
p3353
F1
sVeven,
p3354
F1
sVreason
p3355
F4
sVbrightest
p3356
F1
sVask
p3357
F2
sVlake."
p3358
F1
sVdiffused
p3359
F5
sVsheiks
p3360
F1
sVterrible
p3361
F6
sVfeelings,
p3362
F1
sVbetide."
p3363
F1
sVexpecting
p3364
F2
sVminutes;
p3365
F1
sVdirges
p3366
F1
sVreflected
p3367
F4
sVscruples,
p3368
F1
sVtalked
p3369
F1
sVvisions
p3370
F1
sVaim,
p3371
F1
sVblossom
p3372
F1
sVinterwoven
p3373
F1
sVinsignificant
p3374
F1
sVdug
p3375
F1
sVwonderful
p3376
F2
sVnoticed
p3377
F1
sVtrails
p3378
F1
sVroots.
p3379
F1
sVhundred
p3380
F15
sVgems,
p3381
F1
sVcowards!
p3382
F1
sVminutest
p3383
F1
sVbower
p3384
F1
sVgrew
p3385
F4
sVkindly
p3386
F1
sVlament
p3387
F2
sVportentous;
p3388
F1
sVgrey
p3389
F2
sVappetite,
p3390
F1
sVwithered
p3391
F2
sVexperience,
p3392
F1
sVsubstantial
p3393
F1
sVbababalouk!"
p3394
F2
sVnoon,
p3395
F2
sVcave
p3396
F2
sVofficers
p3397
F3
sVcensers
p3398
F1
sVapplauded
p3399
F1
sVpresently,
p3400
F1
sVtowards
p3401
F22
sVbe---humble
p3402
F1
sVeater
p3403
F1
sVcameleon,
p3404
F1
sVeaten
p3405
F2
sVpotentates;
p3406
F2
sVloopholes
p3407
F1
sVperformances
p3408
F1
sVsamarah;
p3409
F1
sVemergency;
p3410
F1
sVglimmered,
p3411
F1
sVsamarah)
p3412
F1
sVvision;
p3413
F2
sVsamarah,
p3414
F10
sVsamarah.
p3415
F4
sVindignation.
p3416
F1
sVstalked
p3417
F1
sVindignation,
p3418
F2
sVeminences.
p3419
F1
sVphenomenon
p3420
F2
sVstunned
p3421
F2
sVdescended,
p3422
F3
sVwounded
p3423
F1
sVindignation:
p3424
F1
sVstores
p3425
F1
sVascended,
p3426
F1
sVheavens
p3427
F1
sVcompletion
p3428
F1
sVjustice
p3429
F2
sVconvinced
p3430
F2
sVsacrifice.
p3431
F1
sVdarted
p3432
F1
sVsacrifice,
p3433
F1
sVpretty
p3434
F4
sVcircle
p3435
F2
sVsaw,
p3436
F1
sVheaven,
p3437
F3
sVheaven.
p3438
F2
sVheaven!
p3439
F3
sVtales."
p3440
F1
sVtemptation.
p3441
F1
sVimparted
p3442
F1
sVcircassians,
p3443
F1
sVheaven:
p3444
F2
sVcircassians.
p3445
F1
sVduring
p3446
F7
sVbirds,
p3447
F1
sVexhibiting
p3448
F1
sVsacrificed
p3449
F1
sVflight,
p3450
F1
sVperfume
p3451
F1
sVgathered
p3452
F1
sVpoisoned
p3453
F1
sVcourteous
p3454
F1
sVecstacy;
p3455
F1
sVthrowing
p3456
F1
sVdescriptions
p3457
F1
sVecstacy,
p3458
F1
sVclose
p3459
F3
sVconstellation
p3460
F1
sVhorrid
p3461
F2
sVpictures
p3462
F1
sVenchantment.
p3463
F1
sVyears,
p3464
F3
sVdespair
p3465
F3
sVwoe
p3466
F1
sVdurst
p3467
F4
sVafflicted
p3468
F1
sVconditions
p3469
F5
sVpictured
p3470
F1
sVinvoluntarily
p3471
F1
sVunconscious
p3472
F1
sVdescription,
p3473
F1
sVidolatrous
p3474
F2
sVplanets,
p3475
F3
sVinvisible
p3476
F2
sVcondition.
p3477
F2
sVserpeuts
p3478
F1
sVsecrets
p3479
F2
sVcocknos.
p3480
F1
sVcondition!
p3481
F1
sVadored
p3482
F1
sVproceeded;
p3483
F1
sVforgotten
p3484
F4
sVvault
p3485
F1
sVseeing,
p3486
F1
sVunrelenting
p3487
F2
sVhewn
p3488
F1
sVbridles
p3489
F1
sVawnings
p3490
F2
sValong
p3491
F7
sVdescribed
p3492
F1
sVinstilled
p3493
F1
sVdamp
p3494
F1
sVadd
p3495
F1
sVmuslins,
p3496
F1
sVdainties
p3497
F2
sVcollected
p3498
F3
sVempty
p3499
F2
sVdialogue
p3500
F1
sVlived
p3501
F1
sVmanner;
p3502
F2
sVsuccess;
p3503
F1
sVmanner,
p3504
F6
sVlives
p3505
F1
sVseverely,
p3506
F2
sVdam:
p3507
F1
sVdelight,
p3508
F3
sVdelight.
p3509
F1
sVutmost
p3510
F6
sVlook
p3511
F6
sVbluish:
p3512
F1
sVwords:---"vathek!
p3513
F1
sVstrugglings
p3514
F1
sVdescribe,
p3515
F1
sVgovernor
p3516
F1
sVcroud,
p3517
F1
sVwhile
p3518
F5
sVnap,
p3519
F1
sVmoment;
p3520
F1
sVnoses.
p3521
F1
sVnoses,
p3522
F1
sVembroidered
p3523
F2
sVready
p3524
F11
sVourselves,"
p3525
F1
sVmob,
p3526
F1
sVclear,
p3527
F2
sVbelong
p3528
F1
sVinsomuch,
p3529
F2
sVincensed;
p3530
F1
sVunpromising
p3531
F1
sVsamarah
p3532
F6
sVimpious
p3533
F5
sVconflict
p3534
F2
sVhere.
p3535
F1
sVhaphazard;
p3536
F1
sVused
p3537
F3
sVbroughtest
p3538
F1
sVkings."
p3539
F1
sVread,
p3540
F1
sVpurpose."
p3541
F1
sVfestivals,
p3542
F1
sVchanged,
p3543
F1
sVthee;---come,
p3544
F1
sVleaves.
p3545
F1
sVleaves,
p3546
F1
sVfelicity.
p3547
F1
sVchanged;
p3548
F1
sVleaves;
p3549
F1
sVfive
p3550
F2
sV"our
p3551
F3
sVappalled
p3552
F1
sVwing.
p3553
F1
sVpanting,
p3554
F1
sVwise.
p3555
F1
sVconsoled,
p3556
F1
sVplumes,
p3557
F1
sVplumes.
p3558
F1
sVdiminished,
p3559
F1
sVroasted
p3560
F1
sVlimbs.
p3561
F1
sVlimbs,
p3562
F1
sVcemetery
p3563
F1
sVpronouncing
p3564
F1
sVremaining
p3565
F1
sVuseless
p3566
F1
sVlonger.
p3567
F1
sVoverthrows
p3568
F1
sVmarch
p3569
F1
sVdistance;
p3570
F2
sVquarter.
p3571
F1
sVdistance.
p3572
F2
sVwings
p3573
F2
sVdistance,
p3574
F5
sVheart!"
p3575
F1
sVsuccess
p3576
F1
sVempyrean
p3577
F1
sVsignal
p3578
F1
sVresorted
p3579
F2
sVtranslates
p3580
F1
sVkings,
p3581
F1
sVlake;
p3582
F3
sVlast,
p3583
F9
sVfathers
p3584
F1
sVhorns;
p3585
F2
sVsome
p3586
F56
sVconstrained,
p3587
F1
sVurgent
p3588
F1
sVlips
p3589
F4
sVexperienced
p3590
F2
sVbesides,
p3591
F6
sVblack,"
p3592
F1
sVsensations,
p3593
F1
sVhorns,
p3594
F2
sVmagnificence,
p3595
F2
sVdelivered
p3596
F2
sVformidable;
p3597
F1
sVprovidence
p3598
F2
sVabase
p3599
F1
sVfather;
p3600
F1
sVeating
p3601
F1
sVfacility,
p3602
F1
sVfacility.
p3603
F1
sVspectators,
p3604
F1
sVspectators.
p3605
F1
sVuniverse:
p3606
F1
sVfather,
p3607
F3
sVbecome
p3608
F10
sVsmothered
p3609
F1
sVfaith
p3610
F3
sVshewing
p3611
F1
sVfunnel,
p3612
F1
sVcompetition.
p3613
F1
sVbeheld,
p3614
F1
sV73
p3615
F1
sVsilence
p3616
F6
sVseeing
p3617
F4
sVfish,
p3618
F1
sVbabylon.
p3619
F1
sVgilt
p3620
F1
sVgovern,
p3621
F1
sVbrought,
p3622
F4
sVbrought.
p3623
F2
sVsupplicating
p3624
F1
sVplacing
p3625
F2
sVcaresses
p3626
F1
sVbrought;
p3627
F1
sVwarmth!---what
p3628
F1
sVextemporaneous
p3629
F1
sVharem
p3630
F4
sVhimself
p3631
F66
sVreiterated
p3632
F2
sVproperly
p3633
F1
sVsmell;
p3634
F1
sVcultivating,
p3635
F1
sVecstasies
p3636
F1
sVnestle
p3637
F1
sVaccustomed
p3638
F1
sVclear
p3639
F3
sVordered
p3640
F16
sVsmile;
p3641
F1
sVchafed
p3642
F1
sVunshocked.
p3643
F1
sVlanguishing
p3644
F2
sVvisit.
p3645
F2
sVsmile,
p3646
F3
sVsurmise
p3647
F1
sVrequire.
p3648
F1
sVsullen
p3649
F3
sVtittering
p3650
F1
sVdashed
p3651
F1
sVurgent.
p3652
F1
sVthemselves.
p3653
F2
sVthemselves,
p3654
F7
sVpalpitated;
p3655
F1
sVsmiles
p3656
F1
sVdraw
p3657
F1
sVvenerable
p3658
F5
sVspectators
p3659
F2
sVpretended
p3660
F4
sVdrag
p3661
F1
sVdemons,
p3662
F1
sVbodies;
p3663
F1
sVconcerns.
p3664
F1
sVrestrained
p3665
F1
sVstructure
p3666
F1
sVoutcry,
p3667
F1
sVthundered
p3668
F3
sVurged
p3669
F1
sVsounder
p3670
F1
sVresolving
p3671
F1
sVclamour.
p3672
F1
sVresistance.
p3673
F1
sVdepth
p3674
F1
sVfear,
p3675
F5
sVlying
p3676
F2
sVsounded
p3677
F1
sVambassadors;
p3678
F1
sVpinioned
p3679
F1
sVgo
p3680
F12
sVnouronihar!"
p3681
F1
sVwonders:
p3682
F1
sVwonders;
p3683
F1
sVcells.
p3684
F1
sVcatastrophe,
p3685
F1
sVcomfort!
p3686
F1
sVnose
p3687
F1
sVreverend,
p3688
F1
sVmore;
p3689
F1
sV"are
p3690
F2
sV"whoever
p3691
F1
sVmore,
p3692
F4
sVyourselves
p3693
F1
sVkindled
p3694
F3
sVrecollected
p3695
F2
sVwatered
p3696
F2
sVhive
p3697
F1
sVsupplicate
p3698
F1
sVguards,---"have
p3699
F1
sVsultana
p3700
F1
sVthence,
p3701
F2
sVjump
p3702
F1
sV"speak,"
p3703
F1
sVpicked
p3704
F2
sVdecrees
p3705
F2
sVlanguor
p3706
F1
sVtalismans.
p3707
F1
sVtalismans,
p3708
F2
sVsepulchre
p3709
F1
sVobeyed,
p3710
F3
sVedifice
p3711
F1
sVcell
p3712
F2
sVrotten
p3713
F1
sVvolatile
p3714
F1
sVobeyed;
p3715
F2
sVmelancholy
p3716
F8
sVdecree.
p3717
F1
sVprescribe
p3718
F1
sVfollowing
p3719
F4
sVconvert
p3720
F1
sVcharge,
p3721
F1
sVprecision,
p3722
F1
sVplay,
p3723
F1
sVadmired
p3724
F1
sVpitch
p3725
F1
sVgrotesque
p3726
F1
sVworthy
p3727
F2
sVapprehensive
p3728
F2
sVsubserve
p3729
F2
sVaddressed
p3730
F3
sVwit
p3731
F1
sVdistinguish,
p3732
F1
sVsinging
p3733
F2
sVemir---yet
p3734
F1
sVservant!
p3735
F1
sVagreeably
p3736
F1
sVeunuchs;
p3737
F1
sVeunuchs:
p3738
F1
sVremains
p3739
F2
sVservant,
p3740
F1
sVcongratulated
p3741
F1
sVunchangeable
p3742
F1
sVeunuchs,
p3743
F15
sVagreeable
p3744
F2
sV"misfortune
p3745
F1
sVcheeks
p3746
F3
sVtransports,
p3747
F1
sVtransports.
p3748
F1
sVstarted
p3749
F3
sVtestified
p3750
F2
sVcharming
p3751
F4
sVcabalistic
p3752
F1
sV"to
p3753
F5
sVviolent,
p3754
F3
sVappointed
p3755
F1
sVreflect.
p3756
F1
sVmeed
p3757
F1
sVsolemnity,
p3758
F1
sVsolemnity.
p3759
F1
sVcrossed
p3760
F1
sVremain.
p3761
F1
sVservants
p3762
F1
sVremain,
p3763
F1
sVmeet
p3764
F2
sVcontrol
p3765
F1
sVfar,
p3766
F1
sVfar)
p3767
F1
sVescaped
p3768
F3
sVsought
p3769
F7
sVundeceive
p3770
F1
sVhesitate
p3771
F1
sVfavourite,
p3772
F1
sVstreams;
p3773
F1
sVhusband?"---"and
p3774
F1
sVnegresses
p3775
F5
sVinstantaneously,
p3776
F1
sVapostrophe,
p3777
F2
sVstreams.
p3778
F1
sVcorruption.
p3779
F1
sVfuriously
p3780
F2
sVescape;
p3781
F2
sVprolix
p3782
F1
sVconsecrated
p3783
F1
sVfeels
p3784
F1
sVdespair:
p3785
F1
sVdespair;
p3786
F1
sVgulph
p3787
F3
sVheaven;
p3788
F1
sVdespair,
p3789
F1
sVcraggy
p3790
F2
sVfavourites
p3791
F1
sVtrumpets.
p3792
F1
sVhand,
p3793
F9
sVhand.
p3794
F1
sVchurl
p3795
F1
sVwarmth.
p3796
F1
sVvisage."---"abjure
p3797
F1
sVmentioned
p3798
F1
sVhand:
p3799
F1
sVhand;
p3800
F1
sVbrood
p3801
F1
sVouter
p3802
F1
sVthence
p3803
F3
sVmaster;
p3804
F1
sVshewed
p3805
F2
sVbanquet
p3806
F2
sVdisputants,
p3807
F1
sVmaster,
p3808
F5
sVmaster.
p3809
F1
sVsweets
p3810
F1
sVhands
p3811
F19
sVfront
p3812
F1
sVimparted;
p3813
F1
sVgrumbling
p3814
F1
sVreflecting,
p3815
F1
sV"did
p3816
F1
sVmagnitude
p3817
F1
sVmode
p3818
F1
sVpredilection
p3819
F3
sVbanqueting
p3820
F1
sVprinces,
p3821
F1
sVshowering
p3822
F1
sVglobe
p3823
F2
sVwine;
p3824
F1
sVsands
p3825
F1
sVexceeded
p3826
F3
sVwine,
p3827
F2
sVilla
p3828
F1
sVtime:
p3829
F1
sVtime;
p3830
F1
sVdecisions.
p3831
F1
sVfathom
p3832
F1
sVtime,
p3833
F20
sVstrokes
p3834
F1
sVtime.
p3835
F1
sVsqueamish;
p3836
F1
sVdoubt."---"of
p3837
F1
sVcause
p3838
F3
sVone's
p3839
F2
sVintruded
p3840
F1
sVumbrella
p3841
F1
sVtill,
p3842
F1
sVreceived;
p3843
F1
sVcompletely
p3844
F2
sVill,
p3845
F1
sVyell;
p3846
F1
sVattachment,
p3847
F2
sVprincess
p3848
F10
sVresumed
p3849
F1
sVroute
p3850
F1
sVkeep
p3851
F2
sVtogether,"
p3852
F1
sVremorse)
p3853
F1
sVlances
p3854
F1
sVremorse,
p3855
F1
sVpossessing
p3856
F1
sVpowerful
p3857
F2
sVhoneycomb,
p3858
F1
sVeminence
p3859
F1
sVsplendid.
p3860
F1
sVlong
p3861
F21
sVambreabad,
p3862
F1
sVbe,
p3863
F3
sVrevealed
p3864
F1
sVrubies;
p3865
F1
sVbe;
p3866
F1
sVfishes.
p3867
F1
sVgrot
p3868
F1
sVintelligence
p3869
F1
sVwrapped
p3870
F1
sVperfectly
p3871
F1
sVfairest
p3872
F1
sVbeard
p3873
F2
sVmortals,
p3874
F1
sVrare.
p3875
F1
sVmusicians,
p3876
F1
sVpunish
p3877
F1
sVexactly
p3878
F1
sVlists
p3879
F1
sVbabbler!"
p3880
F1
sVconcurred
p3881
F2
sVherself
p3882
F18
sVben
p3883
F4
sVgirdle
p3884
F1
sVfell,
p3885
F2
sVbeg
p3886
F1
sVsubmitted
p3887
F2
sVbee
p3888
F1
sVconflagration,
p3889
F1
sVvisage;
p3890
F1
sVcuriosity,
p3891
F4
sVdistinguished
p3892
F9
sVinvisible,
p3893
F1
sVexhibit
p3894
F2
sVre-entered
p3895
F1
sVrecesses
p3896
F4
sVfuel:
p3897
F1
sVvegetate.
p3898
F1
sVhorrors
p3899
F2
sVexpire,
p3900
F1
sVneed
p3901
F1
sVinterrogating
p3902
F1
sVconstrained
p3903
F1
sVborder
p3904
F1
sVbending,
p3905
F1
sVenjoyment!
p3906
F1
sVarrogate
p3907
F1
sVable
p3908
F10
sVproceeding,
p3909
F1
sVthemselves---
p3910
F1
sVconsequence:
p3911
F1
sVissuing
p3912
F3
sVsufficiency
p3913
F1
sVme?"---"beloved
p3914
F1
sVcaliph;---
p3915
F1
sVblades
p3916
F1
sVassurance.
p3917
F1
sVhorror!
p3918
F1
sVadieu
p3919
F1
sVmoments!
p3920
F1
sVedris
p3921
F2
sVpassionately
p3922
F1
sVmoments,
p3923
F3
sVbroken."---"what
p3924
F1
sVhorror,
p3925
F2
sVvengeance
p3926
F5
sVawe
p3927
F1
sVexpired
p3928
F1
sVgallery
p3929
F2
sVbedewed
p3930
F2
sVdominions,
p3931
F1
sVenchantment,
p3932
F1
sVenjoyments
p3933
F1
sVgrateful.
p3934
F1
sVimpression
p3935
F3
sVemerging
p3936
F1
sVviolation
p3937
F1
sVarrived;
p3938
F1
sVand"---
p3939
F1
sVinfluences,
p3940
F1
sVvermillion
p3941
F1
sVheedlessly
p3942
F1
sVarrived.
p3943
F1
sVpartners
p3944
F1
sVenvy
p3945
F1
sVvoracity.
p3946
F1
sVrash
p3947
F2
sVattained
p3948
F1
sVemployed
p3949
F3
sVinfernal
p3950
F6
sVamazement;
p3951
F1
sVpoltroon,
p3952
F1
sVview?
p3953
F1
sVseizing
p3954
F1
sVfrenzy;
p3955
F1
sV120
p3956
F1
sV121
p3957
F1
sVamazement,
p3958
F5
sVyears
p3959
F1
sVascended
p3960
F7
sVaccorded
p3961
F1
sVfaithful.
p3962
F4
sVfaithful,
p3963
F1
sVhad,
p3964
F3
sVchained
p3965
F1
sVbase,
p3966
F1
sVfaithful!
p3967
F2
sVhad;
p3968
F1
sVshe
p3969
F137
sVdangerous
p3970
F3
sVsolicitous
p3971
F1
sVpreach
p3972
F1
sV"that
p3973
F3
sVsensuality
p3974
F1
sVprayers
p3975
F7
sVimpulse,
p3976
F1
sVportend
p3977
F2
sVaccused
p3978
F1
sVpowder
p3979
F2
sVindulged,
p3980
F1
sVmind:
p3981
F1
sVhorribly
p3982
F1
sVlimit;
p3983
F1
sVmind,
p3984
F4
sVstate
p3985
F7
sVmind.
p3986
F3
sVsupernatural
p3987
F2
sVadding,
p3988
F1
sVhorrible
p3989
F9
sVneither
p3990
F9
sVtent
p3991
F2
sVasked,
p3992
F2
sVattention
p3993
F1
sVfreedoms,
p3994
F1
sVprayer;
p3995
F1
sVspared
p3996
F2
sVpowers:
p3997
F1
sVkey
p3998
F3
sVprecious
p3999
F5
sVshaban
p4000
F8
sVjoy;
p4001
F2
sVbetaking
p4002
F1
sVminds
p4003
F2
sVadmit
p4004
F1
sVjoy,
p4005
F7
sVmarsh,
p4006
F1
sVsurmise:
p4007
F1
sVmarsh.
p4008
F1
sVelapsed,
p4009
F1
sVresolved,
p4010
F4
sVjourney
p4011
F1
sVkick,
p4012
F1
sVafter;
p4013
F1
sVhabitual
p4014
F1
sVsupreme
p4015
F1
sVdistinguish
p4016
F2
sVsingularity,
p4017
F1
sVtogether.
p4018
F1
sVtogether,
p4019
F5
sVrows,
p4020
F1
sVshoulder,
p4021
F1
sVsense.
p4022
F1
sVquit
p4023
F1
sVinhale
p4024
F1
sVplunder.
p4025
F1
sVown,
p4026
F2
sVown.
p4027
F2
sVdecrepitude.
p4028
F1
sVsovereign;---he
p4029
F1
sVimmense
p4030
F9
sVslowly
p4031
F1
sVarmies,
p4032
F1
sVown;
p4033
F2
sVsenses
p4034
F3
sVbuffoons,
p4035
F1
sVking,
p4036
F1
sVboth
p4037
F18
sVcondition,
p4038
F1
sVkicks
p4039
F3
sVpiqued
p4040
F1
sVwill;
p4041
F2
sVencompassed
p4042
F1
sVwill,
p4043
F5
sVwill.
p4044
F1
sVappearance;
p4045
F1
sVappearance:
p4046
F1
sVrecognized.
p4047
F1
sVsurface
p4048
F5
sVexamined
p4049
F1
sVburthens,
p4050
F1
sVappearance.
p4051
F2
sVabound!
p4052
F1
sVdeputation,
p4053
F1
sVbegan
p4054
F37
sVparts
p4055
F3
sVanguish,
p4056
F1
sVanguish.
p4057
F1
sVparty
p4058
F2
sVfanatics
p4059
F1
sVfirmament,
p4060
F2
sVfond.
p4061
F1
sVguards,
p4062
F4
sVappearances
p4063
F1
sVabounds
p4064
F1
sVtoys,
p4065
F1
sVincantations.
p4066
F1
sVfierce
p4067
F1
sVfrequently
p4068
F2
sVexamine,
p4069
F1
sVscarcely
p4070
F9
sVreflection
p4071
F1
sVi
F154
sVpart,
p4072
F3
sVamends
p4073
F1
sV47
p4074
F1
sVglowed
p4075
F2
sVdevise.
p4076
F1
sVangels,
p4077
F1
sVglances;
p4078
F1
sVdose
p4079
F1
sVglances,
p4080
F1
sVrun;
p4081
F1
sVtenderness.
p4082
F1
sVskill
p4083
F2
sVcaliph;---"but,
p4084
F1
sVparchment
p4085
F3
sVdost
p4086
F4
sVdistress
p4087
F1
sVrecapitulated
p4088
F1
sVushered
p4089
F1
sVreposes,
p4090
F1
sVpoliteness;
p4091
F1
sVundeceived
p4092
F1
sVkilled
p4093
F2
sVknowing,
p4094
F1
sV"here
p4095
F2
sVkick
p4096
F1
sVintimated
p4097
F2
sVknick-nacks
p4098
F1
sVsource,
p4099
F1
sVlivid
p4100
F2
sVmausoleums,
p4101
F1
sVwhatever
p4102
F6
sVcrimson,
p4103
F1
sVloss
p4104
F4
sVnecessary
p4105
F4
sVlost
p4106
F15
sVspots,
p4107
F1
sVsages
p4108
F1
sVasleep?"
p4109
F1
sVlose
p4110
F1
sVshed
p4111
F3
sVperfumes,
p4112
F1
sVambergrise
p4113
F1
sVshew
p4114
F4
sVrepeat
p4115
F2
sVproofs
p4116
F1
sVretirement,
p4117
F1
sVbefore,
p4118
F5
sVbefore.
p4119
F6
sVcavalcade
p4120
F3
sVtalismanick
p4121
F1
sVmurmuring;
p4122
F1
sVgrinding
p4123
F1
sVhabits,
p4124
F1
sVreaching
p4125
F1
sVshe,
p4126
F19
sVlips!"
p4127
F1
sVphantoms
p4128
F2
sVshe:
p4129
F1
sVshe;
p4130
F1
sVrefuge
p4131
F2
sVcataracts
p4132
F1
sV"where
p4133
F5
sVbasket-making
p4134
F1
sVmore."
p4135
F1
sVtongue
p4136
F1
sVpersuaded
p4137
F3
sVequally
p4138
F1
sVcitron
p4139
F1
sVpreviously
p4140
F1
sVcourt,
p4141
F2
sVstimulated,
p4142
F1
sVtimes,
p4143
F3
sVpetitions,
p4144
F1
sVsucceeding,
p4145
F1
sVtabernacle
p4146
F1
sVendeavours
p4147
F1
sVdoubtless
p4148
F1
sVrejoice
p4149
F1
sVimpatience
p4150
F2
sVinconstancy
p4151
F1
sVignorant.
p4152
F1
sVassociates,
p4153
F1
sVimperial
p4154
F7
sVglen,
p4155
F1
sVfountains
p4156
F1
sVgait
p4157
F2
sVeffects.
p4158
F1
sVglen;
p4159
F1
sVgain
p4160
F2
sVplenty.
p4161
F1
sVear
p4162
F3
sVeat
p4163
F3
sVhe
p4164
F333
sVweep;
p4165
F1
sVnotice.
p4166
F1
sVdenominate
p4167
F1
sVeyes;
p4168
F1
sVtherefore,
p4169
F17
sVseraglios
p4170
F1
sVcruel
p4171
F3
sVstories
p4172
F2
sVdelights
p4173
F1
sVeyes!
p4174
F1
sVsteepest
p4175
F1
sVfatigues.
p4176
F1
sVpiece
p4177
F1
sVdisplay
p4178
F3
sVurging
p4179
F1
sVcitron;
p4180
F1
sVcaliph!"
p4181
F1
sVuniversal
p4182
F1
sVbottles,
p4183
F1
sVtwist
p4184
F1
sVnecks.
p4185
F1
sVpast,"
p4186
F1
sVkissed
p4187
F2
sVsuccess.
p4188
F1
sVleagues;
p4189
F1
sVinfatuated
p4190
F2
sVcontest
p4191
F2
sVindifference
p4192
F1
sVonwards
p4193
F1
sVperdition
p4194
F2
sVyours.
p4195
F1
sVyours,
p4196
F1
sVstar
p4197
F1
sVcrystal,
p4198
F3
sVstay
p4199
F1
sVcrystal:
p4200
F1
sVthey?---perceivest
p4201
F1
sVurn,
p4202
F1
sVyours;
p4203
F1
sVfriends
p4204
F1
sVpedant.
p4205
F1
sV"the
p4206
F2
sVfunereal
p4207
F2
sVpardon
p4208
F2
sVovercome,
p4209
F1
sVbetter.
p4210
F1
sVknelt
p4211
F1
sVagitation.
p4212
F1
sVabide
p4213
F2
sVperverted
p4214
F1
sVunited,
p4215
F1
sV(which
p4216
F1
sVup.
p4217
F1
sVwhose
p4218
F43
sVup,
p4219
F5
sVcommon;
p4220
F1
sVterrified;
p4221
F1
sVsweetest
p4222
F1
sVpresents
p4223
F2
sVup;
p4224
F4
sVrefrain,
p4225
F2
sVaffairs;
p4226
F1
sVotherwise,
p4227
F1
sVrescue
p4228
F3
sVotherwise.
p4229
F1
sVvoid
p4230
F2
sVslippers."
p4231
F1
sVwarble
p4232
F1
sVpowder.
p4233
F1
sVpowder,
p4234
F1
sVgovern
p4235
F1
sVvast
p4236
F12
sVopportunity,
p4237
F1
sVnaturalist
p4238
F1
sVclothed
p4239
F1
sVpresent,
p4240
F2
sVattendants,
p4241
F1
sVattendants.
p4242
F2
sVdeplorable
p4243
F4
sVgraces
p4244
F3
sVfavoured
p4245
F1
sVflute,
p4246
F1
sVforce
p4247
F2
sVme,
p4248
F18
sVme.
p4249
F2
sVpeacocks,
p4250
F1
sVme?
p4251
F1
sVme;
p4252
F2
sVme:
p4253
F1
sVeven
p4254
F28
sVgold.
p4255
F1
sVhazy
p4256
F1
sVgold,
p4257
F7
sVlights
p4258
F4
sVrest.
p4259
F6
sVrest,
p4260
F13
sVgold;
p4261
F1
sVnew
p4262
F4
sVever
p4263
F18
sVtragical
p4264
F1
sVscreams
p4265
F4
sVinhaled
p4266
F2
sVnever
p4267
F25
sVdrew
p4268
F8
sVmet
p4269
F1
sV108
p4270
F1
sV109
p4271
F1
sVplighted;
p4272
F1
sVactive
p4273
F1
sV103
p4274
F1
sV100
p4275
F1
sV101
p4276
F1
sV106
p4277
F1
sVmummery
p4278
F1
sVinterpret
p4279
F1
sVcooks,
p4280
F2
sVdry
p4281
F2
sVapprehended,
p4282
F1
sVanimated
p4283
F2
sVlips;
p4284
F1
sVlight.
p4285
F2
sVpiercing
p4286
F3
sVlight,
p4287
F2
sVsnare,
p4288
F2
sVprison,
p4289
F2
sVabstract,
p4290
F1
sVlight?
p4291
F1
sVsnorted,
p4292
F1
sVdeceived.
p4293
F1
sVslices
p4294
F1
sVintreat
p4295
F1
sVpower."
p4296
F1
sVdrowned
p4297
F1
sVstyled,
p4298
F1
sVarmy
p4299
F1
sVshepherd;
p4300
F1
sVmouths."---"it
p4301
F1
sVarms
p4302
F8
sVcall
p4303
F2
sVcalm
p4304
F1
sVright,
p4305
F2
sVbow-
p4306
F1
sVtell
p4307
F7
sVshepherd,
p4308
F2
sVrestored,
p4309
F1
sVguest.
p4310
F1
sVguest,
p4311
F1
sVdesist,
p4312
F1
sVfragrance;
p4313
F1
sValoft,
p4314
F1
sVfragrance.
p4315
F2
sVinhabited
p4316
F2
sVshepherds
p4317
F1
sVebony,
p4318
F1
sVroom
p4319
F1
sVrights
p4320
F2
sVoratory,"
p4321
F1
sVperfidy!
p4322
F1
sVflutter;
p4323
F1
sVmajesty;
p4324
F1
sVderviches,
p4325
F2
sVgossiping
p4326
F1
sVcriminal,
p4327
F1
sVunmarked
p4328
F1
sVgive
p4329
F8
sVpoint
p4330
F3
sVadvancing
p4331
F3
sVdescend;
p4332
F1
sVfaults
p4333
F1
sVamazing
p4334
F2
sVanswer
p4335
F1
sVbrought."---"be
p4336
F1
sVloftiest
p4337
F1
sVmagnitude,
p4338
F1
sVfakreddin;
p4339
F1
sVmagnitude.
p4340
F1
sVlaugh,
p4341
F2
sVcuriosity
p4342
F9
sV"press
p4343
F1
sVfood;
p4344
F1
sVphial
p4345
F1
sVsutlememe
p4346
F4
sVfakreddin,
p4347
F8
sVattempt
p4348
F1
sVthird
p4349
F1
sVgrant
p4350
F1
sVcold.
p4351
F1
sVcold,
p4352
F1
sVfrequent
p4353
F1
sVhaving,
p4354
F1
sVplied
p4355
F1
sVinhabitant
p4356
F1
sVexhorted
p4357
F1
sVforesaw
p4358
F1
sVsurrounded,
p4359
F1
sVsoftened
p4360
F1
sVdown,
p4361
F2
sVbefore
p4362
F42
sVthen.
p4363
F1
sVmercy,
p4364
F1
sVthen,
p4365
F17
sV,
F11
sVbetter
p4366
F5
sVweeks
p4367
F1
sVovercome
p4368
F4
sVdestiny.
p4369
F1
sVturtles,
p4370
F1
sVweakness
p4371
F1
sVwithin,
p4372
F3
sVturtles;
p4373
F1
sVesteemed
p4374
F1
sVsceptre
p4375
F1
sVbeware,
p4376
F1
sVoperation,
p4377
F1
sVadmirably!"
p4378
F1
sVfogs
p4379
F2
sVarrested
p4380
F2
sVcarnage,
p4381
F1
sVdenied,
p4382
F1
sVwent
p4383
F20
sVapproaching,
p4384
F2
sVside
p4385
F4
sVmean
p4386
F4
sVafforded
p4387
F2
sVmorakanabad's
p4388
F1
sVprinciples
p4389
F1
sVskins
p4390
F2
sVtaught
p4391
F2
sVdawn
p4392
F2
sVcontend
p4393
F1
sVstart;
p4394
F1
sVhigh!
p4395
F1
sVsatin.
p4396
F1
sVhushed
p4397
F1
sVcontent
p4398
F5
sVsparkle
p4399
F1
sV"woe
p4400
F1
sVstart,
p4401
F1
sVconjectured
p4402
F1
sVmandate;
p4403
F1
sVturning
p4404
F3
sVrevenge
p4405
F1
sVascending
p4406
F4
sVbestow
p4407
F2
sVknowest,"
p4408
F1
sVaisle
p4409
F1
sVlacerated
p4410
F1
sVbegan,
p4411
F3
sVarrived
p4412
F13
sVloud
p4413
F7
sVbite
p4414
F2
sVconjecture,
p4415
F1
sVfeatures
p4416
F1
sVacquaint
p4417
F3
sV(where,
p4418
F1
sVinfancy
p4419
F1
sVgirls
p4420
F2
sVwants;
p4421
F1
sVtorches!
p4422
F1
sVpansies;
p4423
F1
sV"cut
p4424
F1
sVdwell
p4425
F1
sVtufts
p4426
F1
sVtorches,
p4427
F2
sVthyself,
p4428
F1
sVinvalids
p4429
F1
sVsolemnly
p4430
F1
sVfeathers
p4431
F1
sVfloor.
p4432
F1
sVsomewhat
p4433
F5
sVrequisite
p4434
F1
sVpeculiar
p4435
F3
sV"provided
p4436
F1
sVdistance
p4437
F4
sVanxiety
p4438
F2
sVcreatures,
p4439
F1
sVbody,
p4440
F2
sVdisciplined
p4441
F1
sVenabled
p4442
F2
sVmatter
p4443
F1
sVcreatures:
p4444
F1
sVpersuade
p4445
F2
sVstrut,
p4446
F1
sVspoiled
p4447
F1
sVmoderate,
p4448
F1
sVpalace
p4449
F24
sVcontemptible;
p4450
F1
sVmind
p4451
F4
sVmine
p4452
F1
sVrigorous
p4453
F1
sVbewailed
p4454
F1
sVseen
p4455
F9
sVseem
p4456
F2
sVdared
p4457
F1
sVseek
p4458
F4
sVsink,
p4459
F1
sVinefficient
p4460
F1
sVdove,
p4461
F1
sVsoared
p4462
F1
sValiment;
p4463
F1
sVconsume;
p4464
F1
sVexpedition,
p4465
F3
sVsee;
p4466
F1
sVregular
p4467
F1
sVease,"
p4468
F1
sVcaressed,
p4469
F1
sValarm
p4470
F1
sVdog
p4471
F2
sVbreathes
p4472
F1
sVdoe
p4473
F1
sVcompetitors
p4474
F2
sVlaid
p4475
F1
sVbreathed
p4476
F2
sVobserved;
p4477
F1
sVstrong,
p4478
F1
sVconsumes
p4479
F1
sVhunger
p4480
F1
sVrapture
p4481
F1
sVretire
p4482
F3
sVattempts
p4483
F1
sVliberty
p4484
F1
sVear.
p4485
F1
sVresisting
p4486
F2
sVablutions,
p4487
F3
sVhoary
p4488
F1
sVabode.
p4489
F2
sVexplain
p4490
F1
sVdissolute
p4491
F2
sVsugar
p4492
F1
sVabode;
p4493
F1
sVjudged
p4494
F3
sVmasulipatan,
p4495
F1
sVmood,
p4496
F1
sVthird,
p4497
F3
sVcompounded
p4498
F1
sVremained,
p4499
F1
sVremained.
p4500
F3
sVstop
p4501
F4
sVperceive
p4502
F2
sVguarded."
p4503
F1
sVthird:
p4504
F1
sVmutual
p4505
F2
sVwert
p4506
F3
sVtraversed
p4507
F5
sVtroop
p4508
F4
sVflagged
p4509
F1
sVears
p4510
F7
sVdiminutive
p4511
F1
sVbrothers!
p4512
F1
sVespouse
p4513
F1
sVlaughing,
p4514
F1
sVvented
p4515
F2
sVfriendship,
p4516
F1
sVpebbles
p4517
F1
sVvoyage
p4518
F2
sVbronze,
p4519
F2
sVfinish,
p4520
F1
sVstairs,
p4521
F2
sVstairs.
p4522
F1
sVexactness:
p4523
F1
sVartificial
p4524
F1
sVmatters;
p4525
F1
sVbronze;
p4526
F1
sVembroidery
p4527
F1
sVinterruption.
p4528
F1
sVenthusiasts,
p4529
F1
sVdecide;
p4530
F1
sVequals
p4531
F1
sVinterruption;
p4532
F1
sVcousin
p4533
F2
sVpicking
p4534
F1
sVagainst
p4535
F17
sVcoals?
p4536
F1
sVprotection
p4537
F2
sVfirebrands;
p4538
F1
sVgushed
p4539
F1
sVexemplary
p4540
F1
sVappeared
p4541
F25
sVheight
p4542
F2
sVfeatures:
p4543
F1
sVinquisitive
p4544
F1
sVloaden
p4545
F1
sVboys,
p4546
F2
sVloaded
p4547
F2
sVnow,
p4548
F2
sVproceeded
p4549
F5
sVceiling,
p4550
F2
sVthree
p4551
F8
sVinterest
p4552
F1
sVentered
p4553
F8
sVlovely
p4554
F9
sVbesides."
p4555
F1
sVthrew
p4556
F7
sVprosperous
p4557
F1
sVroarings,
p4558
F1
sVspring;
p4559
F1
sVsupping.
p4560
F1
sVargenk,
p4561
F1
sVtastes
p4562
F1
sVparticular,
p4563
F2
sVugly
p4564
F1
sVnear
p4565
F8
sVleaves
p4566
F4
sV"either
p4567
F1
sVthought,
p4568
F2
sVseven
p4569
F2
sVover,
p4570
F1
sVis
p4571
F104
sVspectacle
p4572
F2
sVthought!
p4573
F1
sVit
p4574
F143
sVsplendour
p4575
F6
sVin
p4576
F538
sVitself."
p4577
F1
sVaccepted,
p4578
F1
sVif
p4579
F29
sVharem;
p4580
F4
sVmake
p4581
F15
sVmaterial,
p4582
F1
sVunfortunate
p4583
F3
sVharem.
p4584
F5
sVbells
p4585
F1
sVcan,
p4586
F1
sVdelight
p4587
F2
sVgrief?
p4588
F1
sV"servants
p4589
F1
sVsupposing
p4590
F1
sVdress!"
p4591
F1
sVopportunity
p4592
F1
sVthoughts
p4593
F3
sVoratory;
p4594
F1
sVgame
p4595
F1
sV(for,
p4596
F1
sV"princess,
p4597
F1
sVmaterials
p4598
F1
sVdome.
p4599
F1
sVmixture:
p4600
F1
sVleft
p4601
F14
sVfeet:
p4602
F1
sVjust
p4603
F9
sVversed
p4604
F1
sVsporting
p4605
F1
sVverses
p4606
F2
sVpersonages
p4607
F5
sVhuman
p4608
F1
sVyet
p4609
F20
sVimpending
p4610
F1
sVbehold,
p4611
F1
sVcandidate
p4612
F3
sVinfinitely
p4613
F3
sVagile
p4614
F1
sVregarded
p4615
F3
sVeblis,
p4616
F2
sVroyal
p4617
F3
sVsoaked
p4618
F1
sVarrival,
p4619
F1
sVreligion
p4620
F1
sVsave
p4621
F4
sVeblis:
p4622
F1
sV119
p4623
F1
sVfact,
p4624
F1
sVpersonage,
p4625
F1
sVallude.
p4626
F1
sVbestreaked
p4627
F1
sVouran-outang;
p4628
F1
sVaffability
p4629
F1
sVdreams
p4630
F2
sVvanity
p4631
F2
sVshoulder
p4632
F1
sVdignity
p4633
F1
sVsatisfaction:
p4634
F1
sVvisible
p4635
F1
sVethiopian,
p4636
F1
sVperforming
p4637
F1
sVsatisfaction,
p4638
F2
sVsatisfaction.
p4639
F2
sVdeal
p4640
F1
sVoverhung
p4641
F2
sVhanding
p4642
F1
sVdead
p4643
F8
sVvaulted
p4644
F1
sVstillness.
p4645
F1
sVstillness,
p4646
F1
sVdear
p4647
F8
sVmeaning.
p4648
F1
sVexclaimed:---"accursed
p4649
F1
sVtrace
p4650
F1
sVundisturbed
p4651
F2
sVcollect
p4652
F1
sVreply.
p4653
F2
sVdistrust
p4654
F1
sVebony
p4655
F4
sVmerchant's
p4656
F1
sVburn
p4657
F1
sVgulchenrouz:---be
p4658
F1
sVconceal
p4659
F1
sVcalifat
p4660
F1
sVmagazine
p4661
F1
sVredemption!"---"i
p4662
F1
sVfor,
p4663
F30
sVgarment,
p4664
F1
sVdown
p4665
F20
sVfumes
p4666
F1
sVdissuaded,
p4667
F1
sVperish,
p4668
F1
sVprepared;
p4669
F1
sVbuild?
p4670
F1
sVphials
p4671
F2
sVillustrious
p4672
F2
sVpages
p4673
F4
sVprepared,
p4674
F2
sVprepared.
p4675
F1
sVvehemence
p4676
F2
sVprevent.
p4677
F1
sVguides.
p4678
F1
sVguides,
p4679
F1
sVcreation
p4680
F1
sVform
p4681
F3
sVfeminine
p4682
F1
sV"yes,"
p4683
F1
sVwhat.
p4684
F1
sVsurrender
p4685
F2
sVassented
p4686
F1
sVevinced
p4687
F1
sVcontinuance
p4688
F1
sVlilies
p4689
F1
sVpavilion
p4690
F2
sVhave."
p4691
F1
sVbounds
p4692
F4
sVdamps
p4693
F1
sVsarcophagus
p4694
F1
sVfool,"
p4695
F1
sVsabre,
p4696
F1
sVflambeaux
p4697
F3
sVcovers
p4698
F2
sVtarnished
p4699
F1
sVdie,
p4700
F1
sVlife-time,
p4701
F2
sVmistaken:
p4702
F1
sVsuspence
p4703
F1
sVauthoritative
p4704
F1
sVskirted
p4705
F1
sVtossing
p4706
F1
sVhanded
p4707
F1
sVinscriptions;
p4708
F1
sVrestore.
p4709
F1
sVpouted
p4710
F1
sV"speak
p4711
F1
sVsavage
p4712
F1
sVfelt
p4713
F12
sVcheat,
p4714
F1
sVesteem.
p4715
F1
sVfell
p4716
F23
sVsabres
p4717
F5
sVspectres
p4718
F3
sVfirmness;
p4719
F1
sVassume
p4720
F1
sVmountains;
p4721
F1
sVdaily
p4722
F4
sVfirmness.
p4723
F1
sVsteeds
p4724
F1
sVstripping
p4725
F2
sValert,
p4726
F1
sVteeth
p4727
F5
sVwater-fall
p4728
F1
sVmountains.
p4729
F6
sVmountains,
p4730
F10
sVcustomary
p4731
F1
sVpowers!"
p4732
F1
sVprecipices
p4733
F1
sVperuse
p4734
F1
sVsouls
p4735
F1
sVabatement
p4736
F1
sVredouble
p4737
F1
sVassailants
p4738
F1
sVabundant
p4739
F2
sVmilk
p4740
F2
sVproposal;
p4741
F1
sVproposal:
p4742
F1
sVfancies
p4743
F1
sVfather
p4744
F3
sVdisgusting
p4745
F1
sVexhausted."
p4746
F1
sVanswered
p4747
F16
sVproposal,
p4748
F1
sVsuffered
p4749
F7
sVfancied
p4750
F6
sVme
p4751
F37
sVforth.
p4752
F1
sVsoul:
p4753
F1
sVstring
p4754
F1
sVsoul.
p4755
F2
sVsoul,
p4756
F1
sVindian;
p4757
F5
sVprecipice,
p4758
F3
sVprecipice.
p4759
F2
sVadvised
p4760
F1
sVstrangers;
p4761
F1
sVpious
p4762
F7
sVsoul!
p4763
F1
sVconsidering,
p4764
F1
sVdin
p4765
F1
sVnectar
p4766
F2
sVdid
p4767
F19
sVreptile.
p4768
F1
sVround
p4769
F9
sVunexpected
p4770
F2
sVappetite;
p4771
F1
sVelse,
p4772
F1
sVparty,
p4773
F2
sVappetite.
p4774
F1
sVslake
p4775
F1
sVthen:---yet,
p4776
F1
sVrun
p4777
F3
sVfavour
p4778
F3
sVsuspect
p4779
F1
sVfilled
p4780
F15
sV"atrocious
p4781
F1
sVbosoms,
p4782
F1
sVthither;
p4783
F1
sVavailed
p4784
F1
sV"would
p4785
F1
sVcuts,
p4786
F1
sVconsigning
p4787
F1
sVdecipher
p4788
F3
sVforbear."
p4789
F1
sVrue
p4790
F1
sVthither,
p4791
F1
sVwait
p4792
F1
sVboy
p4793
F2
sVswing,
p4794
F3
sVintelligence,
p4795
F1
sVwomen
p4796
F6
sVaggrandize
p4797
F2
sVhere,
p4798
F7
sVintelligence:
p4799
F1
sVintelligence;
p4800
F1
sVadd,
p4801
F3
sVhither
p4802
F6
sVinsolent
p4803
F2
sVpretence,
p4804
F2
sVmerely
p4805
F1
sVchasm;
p4806
F1
sVdevout,
p4807
F1
sVchasm,
p4808
F6
sVchasm.
p4809
F1
sVsimpleton;
p4810
F1
sVtroops
p4811
F3
sVsharper
p4812
F1
sVsake
p4813
F6
sVvisit
p4814
F7
sVways,
p4815
F1
sVcomplaisant
p4816
F1
sVsuffered,
p4817
F1
sVjack-pudding,
p4818
F1
sVnegroes,
p4819
F1
sVeffort
p4820
F2
sVrobe
p4821
F2
sVmingled
p4822
F1
sVsoul
p4823
F8
sVunravelled;
p4824
F1
sVgrowing
p4825
F1
sVmaking
p4826
F4
sVdisplayed;
p4827
F1
sVnearest
p4828
F1
sVportals
p4829
F2
sVtwinkling,
p4830
F1
sVstroke.
p4831
F1
sVcouncil
p4832
F1
sVmuslins
p4833
F1
sVpages,
p4834
F3
sVrays
p4835
F1
sVlifeless
p4836
F2
sVparch
p4837
F1
sVtill
p4838
F28
sVpure
p4839
F4
sVswore
p4840
F1
sVtatters
p4841
F1
sVpersuasion
p4842
F1
sVamiss.
p4843
F1
sVswayed
p4844
F1
sVmay
p4845
F21
sVfed
p4846
F1
sVperfidy
p4847
F1
sVlord!
p4848
F4
sVdesigned
p4849
F1
sVforerunner;
p4850
F1
sVlord,
p4851
F2
sVman
p4852
F10
sVrelinquish
p4853
F2
sVneck
p4854
F2
sVprovide
p4855
F4
sVexpeditious!
p4856
F1
sVbasket
p4857
F1
sVtalk
p4858
F1
sVunconsciously
p4859
F1
sVfronts
p4860
F1
sVpointed
p4861
F1
sVavailing
p4862
F3
sVwishing
p4863
F1
sVview:
p4864
F2
sVview;
p4865
F1
sVentrails
p4866
F1
sVterrace
p4867
F4
sVshake
p4868
F1
sVview,
p4869
F5
sVview.
p4870
F3
sVindulged
p4871
F2
sVinquiries,
p4872
F1
sVgroup
p4873
F1
sVthank
p4874
F1
sVinteresting
p4875
F1
sVmonths,
p4876
F1
sVcompassion."---"perdition
p4877
F1
sVmain
p4878
F1
sVwithin
p4879
F15
sVbegun;
p4880
F1
sVcaptivated
p4881
F1
sVdoctors,
p4882
F1
sVsooner
p4883
F13
sVhung,
p4884
F1
sVpossess
p4885
F4
sVthan,
p4886
F1
sVarrows
p4887
F1
sVi?"
p4888
F1
sVrocs
p4889
F1
sVcareless
p4890
F1
sVlord,"
p4891
F2
sVrock
p4892
F4
sVmiscreant!
p4893
F1
sVlamps;
p4894
F1
sVrichly
p4895
F1
sVor,
p4896
F3
sVshewn
p4897
F1
sVpreaching
p4898
F1
sVlamps,
p4899
F2
sVgirl
p4900
F1
sVacclivity,
p4901
F1
sVboth,
p4902
F5
sVcatacombs
p4903
F1
sVmiles
p4904
F1
sVcorridors,
p4905
F1
sVmonster
p4906
F1
sVthrilling
p4907
F1
sVwhims
p4908
F1
sVsparkled
p4909
F3
sVlake,
p4910
F7
sVlanguage
p4911
F3
sVsnoring,
p4912
F1
sVthing
p4913
F17
sVflowed,
p4914
F1
sVthine
p4915
F1
sVdesultory
p4916
F1
sVthink
p4917
F6
sVwaited
p4918
F2
sVfirst
p4919
F22
sVdwelling
p4920
F1
sVsent,
p4921
F1
sVscandalized
p4922
F1
sVbut,
p4923
F48
sVeye!
p4924
F1
sVfast
p4925
F2
sVsuspended
p4926
F2
sVcarry
p4927
F1
sVsounds
p4928
F3
sVeye,
p4929
F2
sVdischarged
p4930
F1
sVeye.
p4931
F2
sVlittle
p4932
F51
sVarch
p4933
F1
sVslept
p4934
F2
sVtrembled;
p4935
F1
sVfiery
p4936
F1
sVparticipated
p4937
F1
sV"vizir,
p4938
F1
sVeyes
p4939
F26
sVsound,
p4940
F2
sVpiety)
p4941
F1
sVstreaked
p4942
F1
sV"there
p4943
F1
sVasylums
p4944
F1
sVambulatory
p4945
F1
sV"perfidious
p4946
F1
sVundoubtedly
p4947
F1
sV11
p4948
F1
sV10
p4949
F1
sV13
p4950
F1
sV12
p4951
F1
sV15
p4952
F1
sV14
p4953
F1
sV17
p4954
F1
sV16
p4955
F1
sV19
p4956
F1
sV18
p4957
F1
sVplain.
p4958
F3
sVplain,
p4959
F4
sVwere
p4960
F221
sVplain;
p4961
F2
sVgigantic
p4962
F1
sVmundane
p4963
F1
sVcoming:
p4964
F1
sVvoices
p4965
F8
sVwinding
p4966
F2
sVenterprize!"
p4967
F1
sVcoming.
p4968
F1
sVoccupied
p4969
F6
sVclung
p4970
F3
sVsquat
p4971
F1
sVinexplicable,
p4972
F1
sVvestments
p4973
F1
sVinterior
p4974
F3
sVhaste
p4975
F1
sVinveterate
p4976
F1
sVwatch-towers,
p4977
F2
sVflattered
p4978
F4
sVtopic;
p4979
F1
sVamiable
p4980
F9
sVvoice:
p4981
F2
sVvoice;
p4982
F1
sVtrack
p4983
F1
sVpaid
p4984
F1
sVblackest
p4985
F1
sVvoice,
p4986
F5
sVvoice.
p4987
F1
sVforgotten."
p4988
F1
sVcomplaints
p4989
F1
sVconspicuous
p4990
F1
sVespecially
p4991
F5
sVsurprising
p4992
F1
sVgracefully
p4993
F2
sVwouldst
p4994
F2
sV"were
p4995
F1
sVporters,
p4996
F1
sValone,
p4997
F2
sValone.
p4998
F1
sVshot
p4999
F1
sVthine!"---"ah!"
p5000
F1
sVbismillah.
p5001
F1
sVpharaoh;
p5002
F1
sVcorner
p5003
F1
sVdesired,
p5004
F1
sVenough
p5005
F10
sVdainties."
p5006
F1
sVblack
p5007
F10
sVcordial,
p5008
F1
sVebullition
p5009
F1
sVsanguinary
p5010
F1
sVget
p5011
F6
sVange$l
p5012
F1
sVmeanwhile,
p5013
F4
sVconduced
p5014
F1
sVhailed
p5015
F1
sVrased
p5016
F1
sVnearly
p5017
F2
sVherbs,
p5018
F1
sVman,
p5019
F5
sVmorning
p5020
F7
sVstorm,
p5021
F1
sVruddy
p5022
F1
sVfinishing
p5023
F1
sVcommunicated
p5024
F1
sVwhispered
p5025
F1
sVdeclared
p5026
F1
sVseized!------vathek,
p5027
F1
sVdive.
p5028
F1
sVrelative
p5029
F1
sVears.
p5030
F2
sVwonder
p5031
F1
sVextravagance;
p5032
F1
sVunobserved,
p5033
F1
sVguardian,
p5034
F1
sVlimber
p5035
F1
sVbehind
p5036
F4
sVdigest
p5037
F1
sVextravagance,
p5038
F1
sV---"be
p5039
F1
sVreading
p5040
F3
sVsnorted
p5041
F1
sVacross
p5042
F2
sVsatiate
p5043
F2
sV"what!
p5044
F1
sVdoing,
p5045
F1
sVcountenance
p5046
F4
sVill;
p5047
F1
sVstupendous
p5048
F2
sVchorus:
p5049
F1
sVgratis,
p5050
F1
sVbullrushes,
p5051
F1
sVaccording
p5052
F2
sVsums,
p5053
F1
sVdisappointment
p5054
F2
sVdelirium
p5055
F1
sVamong
p5056
F4
sVdespaired
p5057
F1
sVslain
p5058
F1
sVdereliction
p5059
F1
sVstretched
p5060
F2
sVassembled.
p5061
F1
sVforetold;
p5062
F1
sVmortification
p5063
F2
sVconsidering
p5064
F4
sVarts
p5065
F1
sVcachemire,
p5066
F1
sVunbounded;
p5067
F1
sVturtle,
p5068
F1
sVborders
p5069
F1
sVoffered
p5070
F5
sVdeclaration
p5071
F1
sVemir's,
p5072
F2
sVthose
p5073
F37
sVconcealest
p5074
F1
sVsound
p5075
F11
sVbreast.
p5076
F1
sVemployment,
p5077
F1
sVslumber
p5078
F1
sVbody-guard
p5079
F1
sVsobbed
p5080
F1
sVordered.
p5081
F1
sVpromising
p5082
F1
sVmargin
p5083
F1
sVart,
p5084
F3
sVarrows;
p5085
F1
sVdevotees
p5086
F1
sVsincere
p5087
F1
sVsudden
p5088
F7
sVbaths
p5089
F1
sVreceptacle
p5090
F1
sVthanksgivings
p5091
F1
sVdifferent
p5092
F4
sVvagaries
p5093
F1
sVpay
p5094
F2
sVsame
p5095
F29
sVtorments!
p5096
F1
sVshells;
p5097
F1
sVdeserting
p5098
F1
sVlocusts
p5099
F1
sVfrauds;
p5100
F1
sVextended
p5101
F3
sVthemselves:
p5102
F1
sVfern,
p5103
F1
sVbath.
p5104
F2
sVassist
p5105
F3
sVrunning
p5106
F2
sVdriven
p5107
F1
sVguardians
p5108
F1
sVbeen!
p5109
F1
sVtotally
p5110
F5
sVbath:
p5111
F1
sVbath;
p5112
F3
sVbane
p5113
F1
sVabsence:
p5114
F1
sVacquaintance.
p5115
F1
sVhues
p5116
F1
sVaccountable
p5117
F1
sVabsence,
p5118
F3
sVamazed
p5119
F3
sVparody
p5120
F1
sVgates
p5121
F1
sVgrace,
p5122
F1
sVnights,
p5123
F1
sVmoney
p5124
F2
sVasleep;
p5125
F1
sVbacks
p5126
F1
sVasleep,
p5127
F3
sVsprang
p5128
F1
sVdipped
p5129
F1
sVembarrassed,
p5130
F1
sVrest."
p5131
F1
sVextensive
p5132
F1
sVcurtains,
p5133
F1
sVconsented.
p5134
F1
sVsight;
p5135
F3
sVsight.
p5136
F1
sVsight,
p5137
F6
sVwife;
p5138
F1
sVperdition!
p5139
F1
sVaiming
p5140
F2
sVgrin
p5141
F1
sVacquainted
p5142
F3
sVcareer!
p5143
F1
sVmaintained
p5144
F1
sVchamber
p5145
F1
sVaudience
p5146
F1
sVruminating
p5147
F3
sVeither
p5148
F5
sVserved
p5149
F9
sVinsolence,
p5150
F1
sVemeralds;
p5151
F1
sVsultanas
p5152
F2
sVbodies,
p5153
F2
sVsecond,
p5154
F1
sVimages
p5155
F1
sVsnoring
p5156
F1
sVascent
p5157
F2
sVsmarting
p5158
F1
sVdeath."
p5159
F1
sVgulchenrouz!"
p5160
F1
sVindecent,
p5161
F1
sVunluckily
p5162
F1
sVovens
p5163
F1
sVdescents,
p5164
F1
sVunusual
p5165
F1
sVbroken
p5166
F2
sValboufaki,
p5167
F5
sVconducting
p5168
F1
sVenameled
p5169
F1
sVinstantaneously
p5170
F2
sVout:
p5171
F2
sVfringe
p5172
F1
sVunderstanding:
p5173
F1
sVmixed
p5174
F2
sVsudden,
p5175
F2
sVout,
p5176
F4
sVroad
p5177
F1
sVquietly
p5178
F1
sVstrike;
p5179
F1
sVwhiter
p5180
F2
sVstaircase,
p5181
F1
sVblessed
p5182
F4
sVstrip
p5183
F1
sVmorning,
p5184
F3
sVbanks,
p5185
F1
sVmole.
p5186
F1
sVacquiesced
p5187
F2
sVdistracted
p5188
F1
sVdreaming
p5189
F1
sVimagination,
p5190
F1
sVpastured
p5191
F1
sVspring-time
p5192
F1
sVdecisive
p5193
F1
sVdeepened
p5194
F2
sVus!"
p5195
F1
sVturbans,
p5196
F1
sVgods,
p5197
F1
sVshrugs
p5198
F1
sVback;
p5199
F1
sVarranged
p5200
F1
sVagain,"
p5201
F1
sVfate.
p5202
F1
sVfate,
p5203
F1
sVdaube;
p5204
F1
sVcelestial
p5205
F2
sVfakreddin:
p5206
F1
sVprincess:
p5207
F1
sVbegone;
p5208
F2
sVgeneral
p5209
F8
sVimagination
p5210
F1
sVexamine
p5211
F2
sVdeem
p5212
F2
sVplanets
p5213
F3
sVprincess.
p5214
F1
sVprincess,
p5215
F2
sVshouting---
p5216
F1
sVpreremptory
p5217
F1
sVfill
p5218
F4
sVagain
p5219
F10
sVretiring
p5220
F1
sVback,
p5221
F4
sVrepent
p5222
F1
sVneighbouring
p5223
F2
sVwet.
p5224
F1
sVnarcotick
p5225
F1
sVembraces.
p5226
F1
sVextravagant;
p5227
F1
sVsick,
p5228
F1
sVfruitless
p5229
F1
sVrenowned
p5230
F2
sVexist!
p5231
F1
sVcuriosities;
p5232
F1
sVwonder?"---"sovereign
p5233
F1
sVshelter
p5234
F2
sVplanet,
p5235
F1
sVevil,
p5236
F2
sVprostrating
p5237
F1
sVbrandy
p5238
F1
sVimportant
p5239
F2
sVitself,
p5240
F2
sVrevolve
p5241
F1
sVresembled
p5242
F6
sVconsternation
p5243
F2
sVburrow
p5244
F1
sVresembles
p5245
F1
sVopportunely
p5246
F1
sVistakar.
p5247
F4
sVistakar,
p5248
F4
sVresolution
p5249
F4
sVsilent.
p5250
F1
sVgrowling
p5251
F1
sVforget
p5252
F4
sVforbidden
p5253
F1
sVprevailed.
p5254
F1
sVprevailed,
p5255
F2
sVsunk
p5256
F5
sVvinegar,
p5257
F1
sVprevailed;
p5258
F2
sVchildren
p5259
F6
sVpleiades,
p5260
F1
sVhabitation,
p5261
F1
sVred-hot
p5262
F1
sVhabitation.
p5263
F1
sVmother:
p5264
F1
sVmother;
p5265
F2
sVpolish.
p5266
F1
sVpreserved
p5267
F7
sVmother,
p5268
F9
sVhideous
p5269
F4
sVaccents,
p5270
F2
sVbevy
p5271
F1
sVsherbet,
p5272
F2
sVbosom;
p5273
F1
sVsitting
p5274
F4
sVfantastic
p5275
F1
sVbosom.
p5276
F2
sVbosom,
p5277
F5
sVsun.
p5278
F1
sVsun,
p5279
F4
sVfall
p5280
F4
sVsubterranean
p5281
F14
sVthink?"
p5282
F1
sVvouchsafe
p5283
F1
sVmothers
p5284
F2
sVwantoned
p5285
F1
sVreminding
p5286
F1
sVincreasing,
p5287
F1
sVincreasing.
p5288
F1
sVgratified."
p5289
F1
sVquiet;
p5290
F1
sVvacillating
p5291
F1
sVrange,
p5292
F1
sVknitted
p5293
F1
sVlightning)
p5294
F1
sVquiet,
p5295
F1
sVlightning,
p5296
F4
sVperspective
p5297
F2
sVourselves!
p5298
F1
sVfurther
p5299
F1
sVourselves,
p5300
F3
sVcreatures
p5301
F1
sVresidue
p5302
F1
sVmilk,
p5303
F1
sVstood
p5304
F11
sVmention,
p5305
F1
sVshort-lived
p5306
F1
sVstorks
p5307
F2
sVsofa.
p5308
F1
sVsofa,
p5309
F2
sVfaded
p5310
F1
sVvigour,
p5311
F1
sVprostrated
p5312
F4
sVsofa;
p5313
F1
sVpublic
p5314
F2
sVbasely
p5315
F1
sVranged
p5316
F1
sVlightnings
p5317
F1
sVvale
p5318
F1
sVfavourable
p5319
F1
sVdisastrous
p5320
F1
sVfree
p5321
F2
sVsearch
p5322
F1
sVexhausted,
p5323
F1
sVexhausted.
p5324
F1
sVstretching
p5325
F1
sVsuperintendence
p5326
F1
sVsofas
p5327
F1
sVexpiating
p5328
F1
sVwent,
p5329
F4
sVpublished
p5330
F1
sVnarrow
p5331
F1
sVtottered
p5332
F1
sVclapping
p5333
F1
sVadmission.
p5334
F1
sVcedar,
p5335
F2
sVarmed
p5336
F1
sVreadily
p5337
F2
sVlady,
p5338
F1
sVeye
p5339
F5
sV"have
p5340
F3
sVcomposure
p5341
F1
sVhalt.
p5342
F1
sVwiped
p5343
F1
sVlady!
p5344
F1
sVtwo
p5345
F29
sVguard,
p5346
F1
sVendowed
p5347
F2
sVleisure.
p5348
F1
sVleisure,
p5349
F1
sVdiamond
p5350
F1
sVbrisk
p5351
F1
sVcontrary,
p5352
F1
sVparticular
p5353
F1
sVgravity.
p5354
F1
sVtown
p5355
F1
sVnone
p5356
F1
sVavidity.
p5357
F1
sVdwarfs;
p5358
F2
sVhour
p5359
F2
sVappearance,
p5360
F4
sVmalificent
p5361
F1
sVdew
p5362
F1
sVguards
p5363
F4
sVremain
p5364
F3
sVpressing
p5365
F1
sVabandon
p5366
F2
sVnothing,
p5367
F1
sVmarble
p5368
F2
sVplight,
p5369
F1
sVnerkes
p5370
F6
sVchastisement.
p5371
F1
sVnouronihar!
p5372
F1
sVnouronihar,
p5373
F31
sVgravely
p5374
F2
sVnouronihar.
p5375
F8
sVshare
p5376
F2
sVnumbers
p5377
F1
sVhours.
p5378
F1
sVwished
p5379
F6
sVcharm.
p5380
F1
sVdeplored
p5381
F1
sVfillip
p5382
F1
sVnouronihar;
p5383
F4
sVabjured
p5384
F1
sVeat;
p5385
F1
sVtresses;
p5386
F1
sVsteps;
p5387
F2
sVeat.
p5388
F1
sVmaps
p5389
F1
sVeat,
p5390
F3
sVsacred
p5391
F8
sVsteps,
p5392
F6
sVsteps.
p5393
F1
sVtresses,
p5394
F1
sVheld."---
p5395
F1
sVcharms
p5396
F2
sVadvice
p5397
F2
sVgenius.
p5398
F1
sVgenius,
p5399
F6
sVpainful,
p5400
F1
sVfamiliarized
p5401
F1
sVblood
p5402
F4
sVcoming
p5403
F8
sV(who
p5404
F1
sVbleak
p5405
F1
sVact;
p5406
F1
sVback.
p5407
F1
sVcrowded
p5408
F1
sVthou,
p5409
F1
sVbathed
p5410
F2
sVre-animates
p5411
F1
sVskilful
p5412
F1
sVpleasure
p5413
F6
sVhesitated,
p5414
F1
sVtrain.
p5415
F1
sVthou?
p5416
F2
sVneed.
p5417
F1
sVwall,
p5418
F1
sVthrough
p5419
F41
sVre-echoing
p5420
F1
sV24
p5421
F1
sV25
p5422
F1
sV26
p5423
F1
sV27
p5424
F1
sVsculls
p5425
F1
sV21
p5426
F1
sV22
p5427
F1
sV23
p5428
F1
sVforthwith
p5429
F2
sVnoticing,
p5430
F1
sV28
p5431
F1
sV29
p5432
F1
sVfamished
p5433
F1
sVport;
p5434
F1
sVgrottoes
p5435
F1
sVaccessible,
p5436
F1
sVeunuch
p5437
F4
sVgood
p5438
F31
sVseeking
p5439
F1
sVdied
p5440
F3
sVgardens,
p5441
F3
sVmasters,
p5442
F1
sVcivil,
p5443
F1
sVlimped
p5444
F1
sVobeyed
p5445
F1
sVwalls
p5446
F1
sVassociation
p5447
F1
sVgroped
p5448
F1
sValso:
p5449
F1
sVeasily
p5450
F3
sVtorments,
p5451
F2
sVresentment,
p5452
F1
sVtoken
p5453
F1
sValso,
p5454
F7
sVboisterous
p5455
F2
sVrepeating
p5456
F1
sVabode,
p5457
F2
sVexquisite
p5458
F9
sVme!"---"aye!
p5459
F1
sVdelicious
p5460
F3
sVgrandeur,
p5461
F1
sVfish
p5462
F1
sVidea
p5463
F1
sVcaravan,
p5464
F1
sVengaging
p5465
F1
sVoil
p5466
F6
sVsurly
p5467
F1
sVsuspecting
p5468
F1
sVdeeds!
p5469
F1
sVstands
p5470
F1
sVflower
p5471
F1
sVviolets,
p5472
F1
sVbath,
p5473
F3
sVavenge
p5474
F2
sVfakreddin."---"what,"
p5475
F1
sVdaoud.
p5476
F1
sVpathetic
p5477
F1
sVcircumstance
p5478
F2
sVdifficulty
p5479
F3
sVrated
p5480
F1
sVcontrivance
p5481
F1
sVdisposition
p5482
F1
sVlaughable
p5483
F1
sVbeginning
p5484
F3
sVsaloon,
p5485
F1
sV"she
p5486
F1
sV"how,"
p5487
F1
sVprophet
p5488
F5
sVconducted
p5489
F2
sVassemblage
p5490
F2
sVjoy."
p5491
F1
sVsprings,
p5492
F1
sVbeen,
p5493
F1
sVdone
p5494
F4
sVhorizon;
p5495
F2
sVmounted,
p5496
F1
sVsenses,
p5497
F2
sVsenses.
p5498
F1
sVtwenty
p5499
F2
sVrevive
p5500
F1
sVleast
p5501
F8
sVthickets
p5502
F2
sVpaint
p5503
F1
sVsenses;
p5504
F1
sVhorizon,
p5505
F1
sVfamily;
p5506
F2
sVtapis.
p5507
F1
sVoranges,
p5508
F2
sVharoun
p5509
F1
sVpart
p5510
F6
sVdoctors
p5511
F2
sVinstance;
p5512
F1
sVbelieve
p5513
F4
sVimportunate
p5514
F2
sVcompliments
p5515
F2
sVgotten
p5516
F1
sVsupposed
p5517
F2
sVtreated
p5518
F2
sVdeclare
p5519
F2
sVhalls,
p5520
F2
sVattraction;
p5521
F1
sVinhabitants,
p5522
F1
sVauguries,
p5523
F1
sVages
p5524
F1
sVnotwithstanding
p5525
F12
sVcistern
p5526
F1
sVorders
p5527
F2
sVmountain
p5528
F7
sVpomegranate,
p5529
F1
sVbuilt
p5530
F1
sVdancing
p5531
F1
sVreflection.
p5532
F1
sVcouch
p5533
F1
sVfeet!"
p5534
F1
sVmagic,
p5535
F1
sVexecrated,
p5536
F1
sVreflection;
p5537
F2
sVcollected,
p5538
F1
sVserene
p5539
F2
sVawoke;
p5540
F2
sVharbingers
p5541
F2
sVeggs
p5542
F1
sVidle,
p5543
F2
sVpondering
p5544
F1
sVage.
p5545
F1
sVage,
p5546
F1
sVorder;
p5547
F2
sVsignificant
p5548
F2
sVservices
p5549
F1
sVpassed.
p5550
F1
sVagain."
p5551
F1
sVenlarged,
p5552
F1
sVcharitable
p5553
F1
sVsuppleness
p5554
F1
sVreflections
p5555
F1
sVconsisted
p5556
F4
sVpath,
p5557
F4
sVtransactions,
p5558
F1
sVintend?"
p5559
F1
sVsacrificing."
p5560
F1
sVsanctity
p5561
F1
sVrelation
p5562
F1
sVmalignant
p5563
F8
sVcarefully
p5564
F1
sVfine
p5565
F2
sVfind
p5566
F8
sVdividing
p5567
F1
sV"strike
p5568
F1
sVunhappy
p5569
F9
sV8
F1
sVgills
p5570
F1
sVlarge,
p5571
F1
sVpies.
p5572
F1
sVintractable
p5573
F1
sVpermission
p5574
F2
sVexpress
p5575
F3
sVcourage
p5576
F2
sVbreast
p5577
F1
sVcommission,
p5578
F1
sVsepulchres
p5579
F2
sVsilk
p5580
F1
sVspikes
p5581
F1
sVgian;
p5582
F1
sVpinch,
p5583
F1
sVcommon
p5584
F3
sVgian,
p5585
F1
sVsheep,
p5586
F1
sVdevils
p5587
F2
sV"no,
p5588
F1
sVacquaintances:
p5589
F1
sVseated
p5590
F2
sVtender
p5591
F5
sVenveloped
p5592
F1
sVdesires
p5593
F1
sVexpert
p5594
F1
sVvisiting
p5595
F1
sVscience!"
p5596
F1
sVplease
p5597
F1
sVfans
p5598
F2
sVquick,"
p5599
F1
sVflame
p5600
F1
sVburned
p5601
F1
sVtoil;
p5602
F1
sVsimars,
p5603
F1
sV"impatient
p5604
F1
sVever!"---"not
p5605
F1
sVforwardness
p5606
F1
sVgraves.
p5607
F1
sVcaprices
p5608
F1
sVdespise
p5609
F1
sVfolding
p5610
F1
sVconfides:
p5611
F1
sVoccurrences,
p5612
F1
sVconsume
p5613
F1
sVprice,
p5614
F1
sVcages;
p5615
F3
sVthen,"
p5616
F1
sVlifeless,
p5617
F1
sVdances
p5618
F1
sVasserted
p5619
F1
sVcages,
p5620
F1
sVraise
p5621
F1
sVsummons;
p5622
F1
sVsecret
p5623
F3
sVdropping
p5624
F1
sVdispleasure,
p5625
F1
sVpile
p5626
F1
sVsubsided,
p5627
F2
sVsob;
p5628
F1
sVcords;
p5629
F1
sVwill,"
p5630
F1
sVgriffin,
p5631
F1
sVreigns
p5632
F1
sVshrubs;
p5633
F1
sVgay
p5634
F2
sVdance,
p5635
F3
sVbeasts,
p5636
F2
sVmight:---"let
p5637
F1
sVshrubs,
p5638
F1
sVunderstand
p5639
F2
sVpatriarchs
p5640
F1
sVresisted
p5641
F1
sVninety-ninth
p5642
F1
sVstrictest
p5643
F1
sVdraught,"
p5644
F1
sVeclipsed
p5645
F1
sVrival,
p5646
F1
sVheaps;
p5647
F1
sVsobs
p5648
F1
sVkey;
p5649
F2
sVrocks;
p5650
F1
sVkey?
p5651
F1
sVrocks?
p5652
F1
sVmystic
p5653
F1
sVhusband,
p5654
F1
sVitself
p5655
F3
sVrocks,
p5656
F3
sVrocks.
p5657
F2
sVkey,
p5658
F1
sVpilgrims,
p5659
F1
sVprayers,
p5660
F1
sVrear.
p5661
F1
sVprayers.
p5662
F3
sVrear,
p5663
F1
sVoratories,
p5664
F1
sVdiscourse
p5665
F1
sVprayers;
p5666
F1
sVcorridor
p5667
F1
sVasylum,
p5668
F1
sVhow,
p5669
F1
sVleopard
p5670
F1
sVyesterday
p5671
F2
sVvictorious.
p5672
F1
sVcanes;
p5673
F1
sVhusbands
p5674
F1
sVmoment
p5675
F14
sValertness;
p5676
F1
sVpurpose
p5677
F2
sVistakhar.
p5678
F1
sVistakhar,
p5679
F1
sVvault.
p5680
F2
sVgestures
p5681
F2
sVmotionless
p5682
F2
sVforfeited
p5683
F1
sVspent
p5684
F3
sV"cease
p5685
F1
sVoften,
p5686
F1
sVludicrous
p5687
F1
sVlives;
p5688
F1
sVpersisted,
p5689
F1
sVlives,
p5690
F2
sVfollow:
p5691
F1
sVvisions;
p5692
F2
sVcut
p5693
F3
sVgrey-beards,
p5694
F4
sVdanger
p5695
F2
sVsource
p5696
F1
sVgrey-beards;
p5697
F1
sVsubjects
p5698
F2
sVfollow,
p5699
F1
sVbridal
p5700
F1
sVexcited
p5701
F2
sVadventures:
p5702
F1
sVbid
p5703
F2
sVsaluted
p5704
F1
sVexpressions.
p5705
F1
sVadventures,
p5706
F2
sVexpressions,
p5707
F1
sVapt
p5708
F1
sVbit
p5709
F1
sVabdest,
p5710
F1
sVvapour
p5711
F5
sVknock
p5712
F1
sVpeasants,
p5713
F1
sVexpire!"
p5714
F1
sVact."
p5715
F1
sVvathek:---
p5716
F2
sVdepositary
p5717
F1
sVdeggial,
p5718
F1
sVfoolish
p5719
F1
sVtransgress
p5720
F1
sVvalleys
p5721
F1
sVoften
p5722
F6
sVobliged
p5723
F4
sVmagnificent
p5724
F6
sVback
p5725
F21
sVmartial
p5726
F1
sVstrongest
p5727
F1
sVaccelerate
p5728
F1
sVourselves
p5729
F1
sVpronounced
p5730
F2
sVinfliction
p5731
F1
sVgalloped
p5732
F1
sVlark
p5733
F1
sVpile,
p5734
F2
sVpile.
p5735
F2
sVgood,
p5736
F1
sVgood.
p5737
F1
sVlaughing
p5738
F2
sVstowed
p5739
F1
sVexample.
p5740
F1
sVexample,
p5741
F1
sVvirtues
p5742
F2
sVeglantine
p5743
F1
sVvalley,
p5744
F5
sVexample;
p5745
F3
sVvalley.
p5746
F2
sVblasted,
p5747
F1
sVpiled
p5748
F1
sVpaused;
p5749
F1
sVwhom,
p5750
F3
sVsansar,
p5751
F1
sVthere?"
p5752
F1
sVhope.
p5753
F1
sVcompletest
p5754
F1
sVhope;
p5755
F1
sVhope:
p5756
F1
sVceremonial:
p5757
F1
sVlove."
p5758
F1
sVremembrance
p5759
F2
sVlesson
p5760
F1
sVdaoud
p5761
F1
sVoverpower
p5762
F1
sVforward
p5763
F8
sVdivan,
p5764
F1
sVtranslate
p5765
F1
sVrelapse,
p5766
F1
sVinvite
p5767
F1
sVsixth,
p5768
F1
sVboys
p5769
F2
sVcloud
p5770
F2
sVassembly;
p5771
F1
sVhopes
p5772
F1
sVprince's
p5773
F2
sVdirected
p5774
F5
sVdarkness,
p5775
F4
sVpalm-branches;
p5776
F1
sVhopes:
p5777
F1
sVdestined.
p5778
F1
sVdarkness;
p5779
F1
sVaversion
p5780
F2
sVlevellest
p5781
F1
sVprecipitated
p5782
F1
sVsort
p5783
F1
sVexpedition
p5784
F4
sVstripped
p5785
F3
sVlistening
p5786
F1
sVrarities
p5787
F1
sVsingle
p5788
F2
sVcure
p5789
F1
sVcurb
p5790
F1
sVparterre
p5791
F1
sVsucceeded.
p5792
F1
sVorders:
p5793
F1
sVdimmed
p5794
F1
sVred;
p5795
F1
sVorders,
p5796
F1
sVsucceeded;
p5797
F2
sVamazed.
p5798
F1
sVfavourite
p5799
F5
sVneck,
p5800
F2
sVluxurious
p5801
F1
sVapplied.
p5802
F1
sVutterly
p5803
F1
sVlent
p5804
F1
sV(bating
p5805
F1
sVsuperintendants,
p5806
F1
sVdesert
p5807
F3
sVdowncast
p5808
F1
sVamused
p5809
F7
sVpomegranates,
p5810
F1
sVpomegranates.
p5811
F2
sVpresenting
p5812
F2
sVconversations:
p5813
F1
sVogre;
p5814
F1
sVtombs
p5815
F2
sVcharms."---"repose,
p5816
F1
sVfleshless
p5817
F1
sVkneeling,
p5818
F1
sVhe?"
p5819
F1
sVcompose
p5820
F1
sVpromised;
p5821
F1
sVsoliman;
p5822
F1
sVsoliman:
p5823
F2
sVeye-lids.---
p5824
F1
sVenjoined
p5825
F1
sVliterary
p5826
F1
sVpromised,
p5827
F1
sVblaze
p5828
F4
sVtormented.
p5829
F1
sVpleasing
p5830
F2
sVsoliman.
p5831
F3
sVsoliman,
p5832
F4
sVnear."
p5833
F1
sVchagrined
p5834
F1
sVpresently
p5835
F1
sVunhurt
p5836
F1
sVimplicitly
p5837
F1
sVreverberate
p5838
F1
sVarrange
p5839
F2
sVentire
p5840
F5
sVsuccessful.
p5841
F1
sVrespectful
p5842
F4
sVhelp,
p5843
F2
sVbelieved,
p5844
F1
sVsantons)
p5845
F1
sVgrave.
p5846
F1
sVvallies
p5847
F1
sVoptics
p5848
F1
sVother,
p5849
F7
sVother.
p5850
F2
sVobject,
p5851
F2
sVchildren,"
p5852
F1
sVinebriety
p5853
F1
sVnests
p5854
F1
sVher."---"be
p5855
F1
sVinstead,
p5856
F1
sVother;
p5857
F3
sVvigils
p5858
F1
sVconfided
p5859
F1
sVgiving
p5860
F2
sVassisted
p5861
F1
sVenjoyed
p5862
F2
sVretains
p5863
F1
sVexercise
p5864
F1
sVbody
p5865
F3
sVbeasts
p5866
F2
sVtable-cloths;
p5867
F1
sVnimbly
p5868
F2
sVpoise
p5869
F1
sVriver,
p5870
F1
sVentered.
p5871
F1
sVobjects
p5872
F5
sVnest:
p5873
F1
sVothers
p5874
F8
sVresemblance
p5875
F1
sVsafer
p5876
F1
sVirritating
p5877
F1
sVmortification,
p5878
F2
sV39
p5879
F1
sV38
p5880
F1
sVvenomous;
p5881
F1
sVnumbness
p5882
F1
sV33
p5883
F1
sV32
p5884
F1
sV31
p5885
F1
sV30
p5886
F1
sV37
p5887
F1
sVeating,
p5888
F2
sV35
p5889
F1
sV34
p5890
F1
sVclimb
p5891
F1
sVcome;"
p5892
F1
sVcomposed
p5893
F6
sVnamed
p5894
F1
sVwailful
p5895
F1
sVmecca,
p5896
F1
sVmecca.
p5897
F1
sVbaskets
p5898
F1
sVmecca;
p5899
F1
sVcalcine
p5900
F1
sVprivately
p5901
F1
sVoval
p5902
F1
sVscandal
p5903
F1
sVfestivals
p5904
F1
sVwailings
p5905
F1
sVsermon
p5906
F1
sVgalleries,
p5907
F2
sVdissonance
p5908
F1
sVdamsels;
p5909
F1
sVthemselves
p5910
F33
sVharrowing
p5911
F1
sVnestling,
p5912
F1
sVfestival,
p5913
F1
sVbasket;
p5914
F1
sVresolution.
p5915
F1
sVcompose,
p5916
F1
sVshafei,
p5917
F3
sVneedless.
p5918
F1
sVunremitted
p5919
F1
sVcaliph!---
p5920
F1
sVhassan,
p5921
F2
sVtrain
p5922
F4
sVprizes
p5923
F1
sVashamed
p5924
F1
sVtattered
p5925
F1
sVprocuring
p5926
F1
sVafflicting
p5927
F1
sVhints
p5928
F1
sVaccount
p5929
F2
sVembarked
p5930
F1
sVoil,
p5931
F1
sVroar
p5932
F1
sVprocession,
p5933
F1
sVfetch
p5934
F2
sVhigh;
p5935
F2
sVhigh:
p5936
F1
sVreserved
p5937
F1
sVwater,
p5938
F5
sVwater.
p5939
F2
sVbones
p5940
F1
sVdiscoloured.
p5941
F1
sVlamb
p5942
F2
sVvaried
p5943
F1
sVclosetted
p5944
F1
sVlame
p5945
F1
sVcomplexions;
p5946
F1
sVgrimaces
p5947
F2
sVconfiscated,
p5948
F1
sVregions
p5949
F2
sVsolitudes
p5950
F1
sVforest
p5951
F1
sVbashfulness
p5952
F1
sVsays:
p5953
F1
sVproportion;
p5954
F1
sVlofty,
p5955
F1
sVlofty.
p5956
F1
sVbone,
p5957
F1
sVwaters
p5958
F4
sVcarbuncle
p5959
F3
sVcollection
p5960
F1
sVunited
p5961
F3
sVproportion.
p5962
F1
sVuntrussed
p5963
F1
sVfolly,
p5964
F1
sVgone,
p5965
F3
sVremedies:
p5966
F1
sVsolitude,
p5967
F1
sVtrembling
p5968
F6
sVchief
p5969
F7
sVdeigning
p5970
F1
sVhold,
p5971
F1
sVgone?
p5972
F1
sVneglected,
p5973
F1
sVfurious
p5974
F3
sVnoise.
p5975
F1
sVlooking
p5976
F1
sVcommitted,
p5977
F1
sVfurnish
p5978
F1
sVhorns
p5979
F3
sVflattering
p5980
F4
sVgiaour
p5981
F10
sVthyself
p5982
F9
sVbramins,
p5983
F1
sVla
p5984
F2
sVstopped;
p5985
F1
sVwilling
p5986
F1
sVstopped,
p5987
F2
sVfetch,
p5988
F1
sVrice;
p5989
F1
sVgreater
p5990
F2
sVpangs
p5991
F1
sVmention
p5992
F3
sVmandate
p5993
F1
sVkindness
p5994
F1
sVday
p5995
F8
sVforgotten.
p5996
F1
sVwrested
p5997
F1
sVradiant
p5998
F4
sVleast,
p5999
F6
sVbasin
p6000
F1
sVfigures.
p6001
F1
sVthirst?
p6002
F1
sVpair."
p6003
F1
sVtidings;
p6004
F1
sVwinked
p6005
F1
sVnevertheless,
p6006
F4
sVsuccession.
p6007
F1
sVannexed:
p6008
F1
sVimans
p6009
F2
sV---"sovereign
p6010
F1
sVtrifler,
p6011
F2
sVglimpses:
p6012
F1
sVcure,
p6013
F2
sVwholly
p6014
F1
sVmate
p6015
F1
sVmessenger
p6016
F1
sVsituation.
p6017
F1
sVright,"
p6018
F1
sVbackward,
p6019
F1
sVannounced
p6020
F4
sVapproached
p6021
F4
sVspit;
p6022
F1
sVcourage;
p6023
F1
sV"can
p6024
F2
sVextinguished,
p6025
F2
sVwaving
p6026
F3
sVempire;
p6027
F2
sVdeprived
p6028
F1
sVwoodmen,
p6029
F1
sVdisgust,
p6030
F2
sVretain
p6031
F2
sVlead."
p6032
F1
sVempire,
p6033
F1
sVafrits,
p6034
F3
sVafrits.
p6035
F1
sVbrutes."
p6036
F1
sVsavour
p6037
F1
sVsack
p6038
F1
sVembarrassed
p6039
F3
sVpuppet
p6040
F1
sVreached
p6041
F12
sVescape.
p6042
F1
sVancient
p6043
F2
sVsadly
p6044
F1
sVdromedaries.
p6045
F1
sVdromedaries,
p6046
F2
sVpots
p6047
F1
sVgaiety,
p6048
F2
sVlamentable
p6049
F2
sVrippled
p6050
F1
sVhollows
p6051
F1
sVcabin
p6052
F4
sVlove:
p6053
F1
sVcompleted
p6054
F1
sVacquire
p6055
F2
sVdreary
p6056
F3
sVvouchsafed
p6057
F1
sVthese,"
p6058
F1
sVhospitality:
p6059
F1
sVloved
p6060
F4
sVflashed
p6061
F1
sVheavens,
p6062
F1
sVupon,
p6063
F2
sVcircumspect
p6064
F1
sVloves
p6065
F3
sVembody
p6066
F1
sVvisited
p6067
F1
sVheavens!
p6068
F1
sVwill:
p6069
F2
sVsublunary
p6070
F1
sVdeterred
p6071
F1
sVcavern
p6072
F1
sVhave
p6073
F96
sVsutlememe,
p6074
F9
sVthroat
p6075
F1
sVpersuasion."
p6076
F1
sVclarions
p6077
F1
sVcomrades,
p6078
F1
sVtruffles;
p6079
F1
sVsecreted
p6080
F1
sVpatience.
p6081
F1
sVpatience,
p6082
F1
sVprecipice
p6083
F1
sVeaters,
p6084
F1
sVexpected,
p6085
F2
sVprovoked
p6086
F2
sVunless
p6087
F1
sVabominations:
p6088
F1
sVpersonated
p6089
F1
sVprocure
p6090
F4
sVmortal
p6091
F1
sVpreliminary
p6092
F1
sVtwilight.
p6093
F1
sVterrible;
p6094
F1
sVperformed:
p6095
F1
sVregained,
p6096
F1
sVsaying:
p6097
F1
sVrequest
p6098
F1
sVfor,"
p6099
F1
sVface,
p6100
F3
sVperformed,
p6101
F1
sVrecalled;
p6102
F1
sVguessing:---my
p6103
F1
sVoccasion
p6104
F1
sVtreasures.
p6105
F1
sVsupported
p6106
F3
sVtearful
p6107
F1
sVfestooned
p6108
F1
sVavarice.
p6109
F1
sVthicket
p6110
F2
sVgasping
p6111
F1
sVterrifying,
p6112
F1
sV---vathek,
p6113
F1
sVknowledge
p6114
F5
sV"wouldest
p6115
F1
sVsparks
p6116
F2
sVrotundity
p6117
F1
sVcucumbers?---accursed
p6118
F1
sVphilomel,
p6119
F1
sVunknown."
p6120
F1
sVbeat
p6121
F3
sVbear
p6122
F1
sVaccrue
p6123
F1
sVmercy!"---"none!
p6124
F1
sVromantic
p6125
F1
sVspark;
p6126
F1
sVpaternity,
p6127
F1
sVeblis
p6128
F5
sVcalling
p6129
F3
sVtombs.
p6130
F2
sVfixed
p6131
F9
sVinfidel
p6132
F1
sVsweetmeats
p6133
F1
sVfricasseed.
p6134
F1
sVmonarch.
p6135
F1
sVawaits
p6136
F1
sVvicars
p6137
F1
sVmaster's
p6138
F1
sVenterest
p6139
F1
sVprogress
p6140
F1
sVoperations.
p6141
F1
sVadmiration
p6142
F1
sVpower?
p6143
F1
sVglen
p6144
F1
sVaside:
p6145
F1
sVease.
p6146
F1
sVexclaimed,
p6147
F2
sVcrimes,
p6148
F2
sVsorrow
p6149
F1
sVemitted
p6150
F4
sVplacidly
p6151
F1
sVseverally
p6152
F4
sVaside,
p6153
F1
sVmore!"
p6154
F2
sVexist.
p6155
F1
sVexclaimed:
p6156
F1
sVbeds;
p6157
F1
sVinstant
p6158
F6
sVfeebly
p6159
F1
sVmenaces,
p6160
F2
sVtaking
p6161
F5
sVequal
p6162
F3
sVfulfilled
p6163
F3
sVdetached,
p6164
F1
sVbeds,
p6165
F1
sVworld;
p6166
F1
sVpassing
p6167
F6
sVvent
p6168
F1
sVbrook
p6169
F1
sVdrugs,
p6170
F1
sVdrugs.
p6171
F1
sVnot,"
p6172
F1
sVjonquils,
p6173
F2
sVlaugh
p6174
F3
sVdone,
p6175
F1
sVdone.
p6176
F1
sVflourishing
p6177
F2
sVtremendous
p6178
F3
sVpity!
p6179
F1
sVgaze
p6180
F1
sVdevoting
p6181
F1
sVfranguistan,
p6182
F1
sVcurtain
p6183
F1
sVproposal
p6184
F1
sVcomposed,
p6185
F1
sVhome,
p6186
F1
sVarises
p6187
F1
sVperplexed
p6188
F2
sVcavern;
p6189
F1
sVstationed
p6190
F1
sVreplied:
p6191
F2
sVlute:
p6192
F1
sVcavern.
p6193
F1
sVfinished
p6194
F2
sVperplexes
p6195
F1
sVdeep
p6196
F2
sVarose.
p6197
F1
sVarose,
p6198
F5
sVbellow,
p6199
F1
sVfewer;
p6200
F1
sVdereliction.
p6201
F1
sVattend,
p6202
F1
sVappearance
p6203
F7
sVvalue
p6204
F1
sVinstigated
p6205
F1
sVloudly,"
p6206
F1
sVvenomous
p6207
F4
sVunaccustomed
p6208
F1
sVhoney-suckle;
p6209
F1
sVfile
p6210
F1
sValmost
p6211
F14
sVstarted,
p6212
F1
sVstarted.
p6213
F1
sVrespected
p6214
F1
sVarrangements
p6215
F1
sVshame,
p6216
F2
sVarabic
p6217
F1
sVfurnished;
p6218
F1
sVfishes,
p6219
F3
sVwhirl
p6220
F1
sVfountains;
p6221
F2
sVuntoward
p6222
F1
sVtremble
p6223
F2
sVaid."---we
p6224
F1
sVfountains.
p6225
F2
sVfountains,
p6226
F3
sVcarcases,
p6227
F1
sVfrivolous
p6228
F1
sVcubit
p6229
F5
sVflew
p6230
F7
sVnumbered
p6231
F1
sVretard
p6232
F1
sVchastisement
p6233
F2
sVgiamschid.
p6234
F1
sVgiamschid,
p6235
F1
sVthought
p6236
F11
sVdiet.
p6237
F1
sVdiet,
p6238
F1
sVgiamschid;
p6239
F1
sVgiamschid:
p6240
F1
sVarising
p6241
F1
sVconcluded,
p6242
F1
sVusual
p6243
F2
sVcompanions,
p6244
F3
sVsanguine
p6245
F2
sVambition
p6246
F1
sVembraces:
p6247
F1
sVnails;
p6248
F1
sVcompanions:
p6249
F1
sVseats
p6250
F2
sVemulously
p6251
F1
sVbushes,
p6252
F1
sVlisten
p6253
F1
sVraised,
p6254
F1
sVgallery.
p6255
F1
sVgallery,
p6256
F1
sVonward
p6257
F1
sVlake
p6258
F2
sVrecommending
p6259
F1
sVwork:
p6260
F1
sVwork;
p6261
F1
sVdestroy
p6262
F2
sVcamphorated
p6263
F1
sVembossed
p6264
F1
sVgallery;
p6265
F2
sVought
p6266
F4
sVvengeance;
p6267
F1
sVresolved
p6268
F9
sVseat,
p6269
F2
sVjudiciary
p6270
F1
sVportal."---"not
p6271
F1
sV"and,
p6272
F1
sVstore,
p6273
F1
sVseat;
p6274
F2
sVnaturally
p6275
F3
sVconfusion.
p6276
F2
sVlike
p6277
F49
sVinviting
p6278
F2
sVsofa
p6279
F3
sVadmitted
p6280
F2
sVtone---"up,
p6281
F1
sVsoft
p6282
F5
sVdeclivity
p6283
F2
sVcarnations
p6284
F1
sVinterludes
p6285
F1
sValive
p6286
F2
sVneighbours,
p6287
F1
sVhair
p6288
F4
sVhasten
p6289
F1
sVconvey
p6290
F3
sVproper
p6291
F4
sVsigns,
p6292
F1
sVrainy,
p6293
F1
sVblasphemer,"
p6294
F1
sVhurricane
p6295
F1
sVcrowd;
p6296
F1
sVchains
p6297
F1
sVspirits!"
p6298
F1
sVregain
p6299
F1
sVnoise
p6300
F5
sVslight
p6301
F2
sVmitigation,
p6302
F1
sVdestitute
p6303
F1
sVexpire
p6304
F1
sValthough
p6305
F2
sVhospitable
p6306
F1
sVsnapped
p6307
F1
sVcarnation-
p6308
F1
sVceremony,
p6309
F3
sVbalustrade
p6310
F1
sVshaban,
p6311
F3
sVgifts
p6312
F2
sVabout
p6313
F4
sVoratories
p6314
F2
sVwithdrew
p6315
F3
sVdiadems
p6316
F1
sVrendered
p6317
F2
sVsmarts
p6318
F1
sValoud;
p6319
F1
sValoud:
p6320
F2
sVguard
p6321
F2
sVfemale
p6322
F3
sVvizir
p6323
F3
sVcircassians
p6324
F1
sVrushed
p6325
F1
sVrarities.
p6326
F1
sVrarities,
p6327
F1
sVreigned
p6328
F1
sVrushes
p6329
F2
sVglimmer
p6330
F1
sVprince!
p6331
F2
sVprince.
p6332
F1
sVprince,
p6333
F5
sVquaffed
p6334
F2
sVrelishing
p6335
F1
sVivory
p6336
F1
sVmouhateddin
p6337
F1
sVchildren?
p6338
F1
sVchildren;
p6339
F2
sVbut
p6340
F148
sVsubmit.
p6341
F1
sVrepeated
p6342
F6
sVplague
p6343
F1
sVchildren!
p6344
F1
sVchildren.
p6345
F2
sVremote
p6346
F2
sVchildren,
p6347
F3
sVdoctrines;
p6348
F1
sVwise
p6349
F3
sVprinces
p6350
F1
sVglory
p6351
F2
sVwish
p6352
F2
sVwarmth
p6353
F1
sVwisp
p6354
F1
sVdivining,
p6355
F1
sVpreyed
p6356
F2
sVpenetrating
p6357
F2
sVwhisper
p6358
F2
sVmeasure
p6359
F2
sVvapours.
p6360
F1
sVnearly,
p6361
F1
sVambassadors
p6362
F1
sVspectre,
p6363
F1
sV48
p6364
F1
sV49
p6365
F1
sV46
p6366
F1
sVdressed
p6367
F2
sV44
p6368
F1
sV45
p6369
F1
sV42
p6370
F1
sV43
p6371
F1
sV40
p6372
F1
sV41
p6373
F1
sVconfidence;
p6374
F1
sVhimself?"
p6375
F1
sV85
p6376
F1
sValighting;
p6377
F1
sVglided
p6378
F3
sVindeed,
p6379
F2
sVdeath;
p6380
F2
sVdeath,
p6381
F3
sVdeath.
p6382
F4
sVperiod:
p6383
F1
sVstarting
p6384
F1
sVentertainment
p6385
F1
sVslaves;
p6386
F2
sVentreat
p6387
F1
sVpupil
p6388
F1
sVslaves,
p6389
F5
sVbaked
p6390
F1
sVaugmented
p6391
F1
sVlimited
p6392
F1
sVever.
p6393
F1
sVcaliph,
p6394
F55
sVcaliph.
p6395
F3
sVadmiration;
p6396
F2
sVcaliph!
p6397
F2
sVever!
p6398
F1
sVhath
p6399
F31
sVcaliph:
p6400
F3
sVcaliph;
p6401
F9
sVsleep
p6402
F3
sVhating
p6403
F1
sVappetite
p6404
F1
sVsignalize
p6405
F1
sVassembled
p6406
F6
sVadmiration,
p6407
F2
sVfeeding
p6408
F1
sVviolate
p6409
F1
sV(for
p6410
F3
sVebony;
p6411
F1
sVebony!
p6412
F1
sVunder
p6413
F14
sVpride
p6414
F3
sVperceivest
p6415
F1
sVmerchant
p6416
F2
sVwoodfellers,
p6417
F1
sVconjecture
p6418
F1
sVrisk
p6419
F1
sVhospitality."
p6420
F1
sVrise
p6421
F1
sVtears,
p6422
F6
sVlittleness,
p6423
F1
sVevery
p6424
F70
sVgratification
p6425
F1
sVeast.
p6426
F1
sVtears;
p6427
F2
sVcaliphs
p6428
F1
sVencounter
p6429
F1
sVsounds!
p6430
F1
sVregret:
p6431
F1
sVthee,"
p6432
F1
sVsounds.
p6433
F1
sVsounds,
p6434
F2
sVenjoy
p6435
F9
sV"all
p6436
F1
sVmutes,
p6437
F5
sVmutes.
p6438
F2
sVshoulders,
p6439
F2
sVmutes!
p6440
F1
sValmond
p6441
F1
sVexcelled
p6442
F2
sVsurrounding
p6443
F3
sVlouder
p6444
F3
sVyawned,
p6445
F1
sVwrithing?
p6446
F1
sVpursuit:
p6447
F1
sVburnt!"
p6448
F1
sVshining
p6449
F3
sVblue
p6450
F7
sVchange.
p6451
F1
sVaged;
p6452
F1
sVhide
p6453
F1
sVsolemn
p6454
F7
sVselected
p6455
F1
sVvillages,
p6456
F1
sVsupplied
p6457
F3
sVsung
p6458
F3
sVcharacters,
p6459
F1
sVconduct
p6460
F5
sVsupplies
p6461
F1
sVseeks
p6462
F1
sVkicked
p6463
F2
sV"whether
p6464
F1
sVstared
p6465
F1
sVfaults,
p6466
F1
sVresounded
p6467
F6
sVpath
p6468
F1
sVthrough,
p6469
F1
sVproperty
p6470
F1
sVravish
p6471
F1
sVventures
p6472
F1
sVworse,
p6473
F1
sVchanged
p6474
F1
sVgulchenrouz?"---"beyond
p6475
F1
sVpunishment
p6476
F2
sVventured
p6477
F2
sVcompany.
p6478
F1
sVverdure
p6479
F1
sVcompany,
p6480
F2
sVreply:
p6481
F1
sVbreath,
p6482
F3
sVbreath.
p6483
F2
sVerected
p6484
F1
sVpatience
p6485
F2
sVfootsteps;
p6486
F1
sVdecorum!"
p6487
F1
sVgreatness,
p6488
F1
sVreply,
p6489
F2
sVwould
p6490
F43
sVprophets
p6491
F1
sVflaggons
p6492
F2
sVasses
p6493
F4
sVdespair.
p6494
F4
sVfaquirs,
p6495
F1
sVvigilance,
p6496
F1
sVincommoded
p6497
F1
sVbreathe
p6498
F2
sVbarbarous
p6499
F2
sVengaged.
p6500
F1
sVgrief
p6501
F4
sVcrimson
p6502
F1
sVpinching
p6503
F1
sVexcellent
p6504
F10
sVoff,
p6505
F4
sVmust
p6506
F15
sVabundance
p6507
F2
sVjoin
p6508
F2
sVdecent,
p6509
F2
sVembassies.
p6510
F1
sVentertained
p6511
F1
sVpalpitating
p6512
F1
sVunmeaning
p6513
F1
sVmy
p6514
F132
sVswing.
p6515
F2
sVsun:
p6516
F1
sVpupils,
p6517
F1
sVexterior
p6518
F1
sVoath,
p6519
F1
sVmouth;
p6520
F1
sVshrieks,
p6521
F1
sVmouth,
p6522
F1
sVmouth.
p6523
F1
sVoverpowered
p6524
F3
sVceremony
p6525
F2
sVend
p6526
F4
sVreturning
p6527
F1
sVsoftness,
p6528
F1
sVgate
p6529
F1
sVcolours.
p6530
F1
sVboth.
p6531
F1
sVdescription
p6532
F1
sVmouths
p6533
F3
sVmess
p6534
F1
sVdemanding
p6535
F1
sVboth:
p6536
F1
sVboth;
p6537
F1
sVsplendid
p6538
F2
sVchintzes
p6539
F1
sVsuspense,
p6540
F1
sVenter
p6541
F8
sValoud
p6542
F3
sVexecuted
p6543
F1
sVover
p6544
F30
sVcontains,
p6545
F1
sVpotentate,
p6546
F1
sVdisease.
p6547
F1
sVclapped
p6548
F5
sVglances
p6549
F1
sVforehead
p6550
F2
sVwelcome!"
p6551
F1
sVreflected.
p6552
F1
sVwhilst,
p6553
F1
sVdestroyed
p6554
F1
sVglanced
p6555
F1
sV"drink
p6556
F1
sVsheltered
p6557
F1
sValong:
p6558
F1
sVprevented
p6559
F2
sVuse,"
p6560
F1
sVplates
p6561
F1
sVextent,
p6562
F1
sVshadows
p6563
F1
sVgloom
p6564
F3
sVnekir
p6565
F1
sVglance;
p6566
F1
sVawful;
p6567
F1
sVherald
p6568
F1
sVfilling
p6569
F2
sVcapricious
p6570
F1
sVknockings
p6571
F1
sVeach
p6572
F43
sVawful,
p6573
F1
sVdethrone
p6574
F1
sVcelebrating
p6575
F1
sVblushing.---"i
p6576
F1
sVlair
p6577
F1
sVfraught
p6578
F1
sVhabitation;
p6579
F1
sVsighing
p6580
F1
sVday.
p6581
F3
sVspringing
p6582
F1
sVday,
p6583
F7
sVhabitation!
p6584
F1
sVperception
p6585
F1
sVwent;
p6586
F2
sVwent:
p6587
F1
sVghost.
p6588
F1
sVrepining
p6589
F1
sVeternal
p6590
F3
sVplunging,
p6591
F1
sVhim."---"we
p6592
F1
sVsmall
p6593
F12
sVghost;
p6594
F1
sVreflections."
p6595
F1
sVevil
p6596
F2
sVcloth,
p6597
F1
sVprophet;
p6598
F2
sVwanted
p6599
F3
sVgo,
p6600
F2
sVgo.
p6601
F1
sVemployed?
p6602
F1
sVdays
p6603
F11
sVday-break,
p6604
F2
sV"this
p6605
F2
sVacclamations
p6606
F4
sVgo:
p6607
F1
sVcrystal.
p6608
F1
sVwords:---strike
p6609
F1
sVrecite
p6610
F2
sVrang
p6611
F1
sValready
p6612
F14
sVofficious
p6613
F1
sVsighs;
p6614
F1
sVaccent
p6615
F3
sVtoo,
p6616
F1
sVencouraging
p6617
F1
sVrank
p6618
F1
sVhearing
p6619
F3
sVawoke
p6620
F2
sVgrief.
p6621
F1
sVsaffron,
p6622
F1
sVstair-case,
p6623
F2
sVtop
p6624
F11
sVheights
p6625
F1
sVstair-case;
p6626
F1
sVtoo
p6627
F22
sVwildly
p6628
F4
sVbehind.
p6629
F1
sVcurtains
p6630
F5
sVceiling
p6631
F1
sVconciliated
p6632
F1
sVran,
p6633
F1
sVbehind,
p6634
F1
sVtook
p6635
F20
sVsciences,
p6636
F2
sVattraction.
p6637
F1
sVattraction,
p6638
F1
sVhour,
p6639
F1
sVbrushed
p6640
F1
sVbegone
p6641
F1
sVendless;
p6642
F1
sVreclining
p6643
F1
sVdoor."
p6644
F1
sVfinal
p6645
F1
sVheight,
p6646
F2
sVclasses
p6647
F1
sVto.
p6648
F1
sVpeacocks
p6649
F1
sVwhispers;
p6650
F1
sVimagined,
p6651
F2
sVlodge?"
p6652
F1
sVbridge
p6653
F1
sVran
p6654
F9
sVnumbered;
p6655
F1
sVraw
p6656
F2
sVsinai:
p6657
F1
sVsubsided?
p6658
F1
sVray
p6659
F1
sVexpanses
p6660
F1
sVthoroughly
p6661
F3
sVthorough
p6662
F3
sVablutions
p6663
F1
sVlaughed
p6664
F2
sVworld.
p6665
F3
sVdered
p6666
F1
sVgeographers
p6667
F1
sVpropitious
p6668
F1
sVoutcries;
p6669
F1
sVdetained
p6670
F1
sVthough
p6671
F31
sVleaf,
p6672
F1
sVmother
p6673
F3
sVsee!"
p6674
F1
sVchambers,
p6675
F1
sVcommanding
p6676
F2
sVdeserted;
p6677
F1
sVthe
p6678
F2776
sVglow
p6679
F3
sVpotency
p6680
F2
sVsustenance,
p6681
F1
sVflow
p6682
F1
sVletters,
p6683
F1
sVforsook
p6684
F2
sVspits.
p6685
F1
sVinspire
p6686
F1
sVleagues
p6687
F2
sVarrayed
p6688
F1
sVtrodden.
p6689
F1
sVearth
p6690
F8
sVwithdrawn,
p6691
F2
sVcamels;
p6692
F2
sVchatterings,
p6693
F1
sVproposed
p6694
F2
sVspite
p6695
F6
sVpeasants
p6696
F2
sVabjure
p6697
F1
sVrefreshment
p6698
F2
sVcamels,
p6699
F3
sVliquified
p6700
F1
sVdisgust
p6701
F1
sVlodge
p6702
F1
sVmixture
p6703
F1
sVkindling
p6704
F1
sVwatch
p6705
F2
sVgood,"
p6706
F1
sVreport
p6707
F1
sVaught
p6708
F1
sVcholic,
p6709
F1
sVundressed
p6710
F1
sVabout,
p6711
F2
sVprogress;
p6712
F1
sVarabesques
p6713
F1
sVcountries
p6714
F1
sVanxiously
p6715
F2
sVtwice
p6716
F1
sVinterspersed
p6717
F1
sVprogress.
p6718
F2
sVdelay,
p6719
F1
sVsituation,
p6720
F3
sVpeasant,
p6721
F1
sVruins
p6722
F2
sVfragrant
p6723
F4
sVpresuming
p6724
F1
sVswept
p6725
F2
sVover-fond
p6726
F1
sVliquor
p6727
F2
sVresist
p6728
F1
sVnew;
p6729
F1
sVmosques,
p6730
F1
sVbed
p6731
F1
sVexecrated
p6732
F2
sVdisturbing
p6733
F1
sV"deluded
p6734
F1
sVcapacity
p6735
F1
sVrobed:
p6736
F1
sVtreasures,
p6737
F2
sVface.
p6738
F2
sVcontinually
p6739
F5
sV"oh
p6740
F1
sVantelope,
p6741
F2
sVapproach
p6742
F12
sV"of
p6743
F1
sVranged;
p6744
F1
sVreiterate
p6745
F1
sVproclaim:
p6746
F1
sVwillow,
p6747
F1
sVconfusion
p6748
F6
sVshifts.
p6749
F1
sVhowever
p6750
F3
sVproclaim,
p6751
F1
sVnews
p6752
F1
sVflowering
p6753
F1
sVcrimes;
p6754
F2
sVcalamity;
p6755
F1
sVprotect
p6756
F2
sV"bring
p6757
F1
sVdiscover,
p6758
F1
sVwines,
p6759
F1
sVgames
p6760
F1
sVfaces
p6761
F7
sVexpense
p6762
F1
sVdiscover;
p6763
F1
sVamazingly
p6764
F1
sV"and
p6765
F9
sVtowels
p6766
F1
sVmajestic
p6767
F2
sVtrust
p6768
F1
sVhankering;
p6769
F1
sVapplause,
p6770
F1
sV"you
p6771
F8
sVropes
p6772
F1
sVfaltering
p6773
F2
sVbeen
p6774
F60
sVcurrier
p6775
F1
sVwere,
p6776
F3
sVwoodmen
p6777
F2
sVdeep,
p6778
F1
sVexpected
p6779
F3
sVdrugs
p6780
F1
sVpecked
p6781
F1
sVstanding:
p6782
F1
sVdiligence.
p6783
F1
sVcatch
p6784
F4
sVancestors.
p6785
F1
sVstanding,
p6786
F1
sVcaptive.
p6787
F1
sVapprehension
p6788
F1
sVinviolable
p6789
F1
sVtolerable
p6790
F2
sVparched
p6791
F1
sVattractions
p6792
F1
sVstopping
p6793
F1
sVcracked
p6794
F1
sVatmosphere,
p6795
F1
sVpyramid
p6796
F1
sV"a
p6797
F2
sV"o
p6798
F2
sV"i
p6799
F15
sVdazzled
p6800
F2
sVdying;
p6801
F1
sVsimultaneousness
p6802
F1
sVroofs;
p6803
F1
sVcharacter:
p6804
F1
sVheart.
p6805
F6
sVheart,
p6806
F10
sVafrit
p6807
F3
sVbeside
p6808
F1
sVheart;
p6809
F6
sVusurping
p6810
F1
sVseveral
p6811
F8
sVcapered
p6812
F1
sVdazzle,
p6813
F1
sVmade:
p6814
F1
sVexpense.
p6815
F1
sVportal
p6816
F10
sVcharacters
p6817
F10
sVmade,
p6818
F1
sVentreated
p6819
F1
sVmother's
p6820
F1
sVpossessed
p6821
F6
sVmayest,
p6822
F1
sVgreatest
p6823
F6
sVincapable
p6824
F1
sVpursued
p6825
F1
sVchildhood.
p6826
F2
sVhearts
p6827
F4
sVbespattered,
p6828
F1
sVadvance;
p6829
F1
sVappease
p6830
F3
sVdeparted
p6831
F1
sVperfect;
p6832
F1
sVmortals!
p6833
F1
sVadvance.
p6834
F1
sVadvance,
p6835
F1
sVfollowed
p6836
F15
sVstrenuously
p6837
F1
sVtolerably
p6838
F2
sVell
p6839
F1
sVdearer
p6840
F1
sVtorpedos,
p6841
F1
sVfoot;
p6842
F2
sVpitiful
p6843
F1
sVfoot,
p6844
F3
sVgave
p6845
F11
sVcasting
p6846
F4
sVensued,
p6847
F1
sVensued.
p6848
F3
sVbands
p6849
F2
sVjealousy.
p6850
F1
sVapprehension,
p6851
F1
sVensued;
p6852
F1
sVdescending
p6853
F1
sVjudge
p6854
F1
sV59
p6855
F1
sVburnt
p6856
F3
sVadvanced
p6857
F7
sVbrutality
p6858
F1
sVappearing
p6859
F1
sV58
p6860
F1
sVgift
p6861
F2
sV55
p6862
F1
sV54
p6863
F1
sV57
p6864
F1
sV56
p6865
F1
sV51
p6866
F1
sV50
p6867
F1
sV53
p6868
F1
sV52
p6869
F1
sVlakes,
p6870
F1
sVoffices
p6871
F2
sVsplendor
p6872
F1
sVportal.
p6873
F1
sVhung
p6874
F6
sVrustling
p6875
F1
sVeagerness,
p6876
F1
sVlamp.
p6877
F1
sVsuccessfully
p6878
F1
sVhill;
p6879
F1
sVusher
p6880
F1
sVescape
p6881
F3
sVrapidity
p6882
F1
sVembodied
p6883
F1
sVproceeding
p6884
F4
sVeffort,
p6885
F1
sVcompanions
p6886
F3
sVicy
p6887
F1
sVskylight
p6888
F1
sVcord
p6889
F2
sVnight
p6890
F11
sVambition;---the
p6891
F1
sVplace."
p6892
F1
sVlamps
p6893
F2
sVsecurity
p6894
F1
sVcaliph,"
p6895
F1
sVdinned
p6896
F1
sVnouronihar's
p6897
F1
sVcrags,
p6898
F1
sVsurround
p6899
F1
sVdinner
p6900
F1
sVcompanion,
p6901
F1
sVefforts
p6902
F2
sVprophet's
p6903
F1
sVviands,
p6904
F1
sVplump,
p6905
F1
sVpresence
p6906
F6
sVlavishly
p6907
F1
sVobtaining
p6908
F1
sVparchment;
p6909
F1
sVbath
p6910
F2
sVremove.
p6911
F1
sVbats
p6912
F1
sVviands;
p6913
F1
sVparchment,
p6914
F2
sVrounds
p6915
F1
sValarmed
p6916
F3
sVever,
p6917
F1
sVcahaba;
p6918
F1
sVpersonage
p6919
F1
sVforbad
p6920
F1
sVsuffocation.
p6921
F1
sVpurposely
p6922
F1
sVhead
p6923
F6
sVah!
p6924
F1
sVattempted
p6925
F5
sVgorgeous
p6926
F1
sVheat
p6927
F3
sVhear
p6928
F8
sVobjects,
p6929
F1
sVsustained
p6930
F1
sVremoved
p6931
F2
sVhands,
p6932
F4
sVhands.
p6933
F4
sVcounsel
p6934
F1
sVflavour
p6935
F2
sVdeafness,
p6936
F1
sV"thou
p6937
F3
sVadore
p6938
F2
sVverging
p6939
F1
sVinstantly,"
p6940
F1
sVchastity
p6941
F1
sVpioneers,
p6942
F1
sVsupper.
p6943
F2
sVcheck
p6944
F1
sV"knowest
p6945
F1
sVfaithful
p6946
F9
sVno
p6947
F93
sVmoment's
p6948
F1
sVwhen
p6949
F43
sVprey:
p6950
F1
sVsetting
p6951
F2
sVsoundly
p6952
F1
sVprey,
p6953
F2
sVvanished
p6954
F3
sVunembarrassed
p6955
F1
sVeternity
p6956
F1
sVungracious
p6957
F1
sVeffect."
p6958
F1
sVpreceding
p6959
F2
sVbeams.
p6960
F1
sVgallants
p6961
F1
sVdark,
p6962
F1
sVdark.
p6963
F1
sVflushed
p6964
F1
sVcharms."
p6965
F1
sVastrology,
p6966
F1
sVlonger
p6967
F8
sVpreys
p6968
F1
sVwithhold
p6969
F1
sVremarked
p6970
F1
sVserious
p6971
F1
sVintimacy
p6972
F1
sVbackward
p6973
F3
sVwishes;
p6974
F1
sVspectres,
p6975
F1
sVremarkable
p6976
F1
sVspeak?---is
p6977
F1
sVrod
p6978
F1
sVleads
p6979
F1
sVextremities
p6980
F1
sVdeserving,
p6981
F1
sVdiscern
p6982
F1
sVslowly;
p6983
F1
sVcloud;
p6984
F1
sVcontemplating
p6985
F1
sVcharge
p6986
F6
sVcloud,
p6987
F1
sVcompetitors,
p6988
F1
sVpublic,
p6989
F1
sVfleece
p6990
F1
sValternative,
p6991
F1
sV"outcast
p6992
F1
sVcool
p6993
F2
sVbeating
p6994
F1
sVclouds
p6995
F5
sVmoderate
p6996
F1
sVbest,
p6997
F1
sVposts
p6998
F1
sVbrother
p6999
F2
sVher,"
p7000
F1
sVbest;
p7001
F1
sVquick
p7002
F1
sVgroup,
p7003
F2
sVliquor,
p7004
F1
sVhair,
p7005
F3
sVhair.
p7006
F1
sVbake
p7007
F1
sVfear
p7008
F2
sVirritated
p7009
F2
sVdwarfs.
p7010
F1
sVgiaour,---let
p7011
F1
sVstately
p7012
F4
sVdeluded
p7013
F1
sVcobwebs,
p7014
F1
sVdwarfs,
p7015
F11
sVarrived,
p7016
F1
sVgoes
p7017
F1
sVforward;
p7018
F2
sVstomach;
p7019
F1
sVbearers
p7020
F1
sVhealth.
p7021
F1
sVcripples
p7022
F1
sVnearer
p7023
F1
sVafterwards,
p7024
F2
sVporphyry
p7025
F1
sVmendicants."
p7026
F1
sVwater
p7027
F14
sVentertain
p7028
F2
sVdrink:
p7029
F1
sVhoarse
p7030
F1
sVtablets,
p7031
F2
sVthirty
p7032
F1
sVdescended
p7033
F5
sVriders.
p7034
F1
sVhospitality
p7035
F1
sVriders,
p7036
F2
sVfatigue."---"be
p7037
F1
sVhumour
p7038
F4
sVmyself,
p7039
F4
sVbesought
p7040
F2
sVcriers
p7041
F1
sVethiopian
p7042
F2
sVmyself:
p7043
F1
sVswallowed
p7044
F1
sVmoveables
p7045
F1
sVpermitted
p7046
F1
sVwrongs
p7047
F1
sVwhisper:---"my
p7048
F1
sVprey
p7049
F2
sVmemory
p7050
F1
sVnegroes
p7051
F1
sVtoday
p7052
F1
sVhermit,
p7053
F1
sVteased
p7054
F1
sVdrown
p7055
F2
sVdismal
p7056
F1
sVdrowned,
p7057
F1
sVshafts
p7058
F1
sVand,
p7059
F109
sVwives:
p7060
F1
sVwives;
p7061
F1
sVwrong,
p7062
F1
sVwives,
p7063
F4
sVwives.
p7064
F1
sVlaughter
p7065
F3
sVenjoyed,
p7066
F1
sVslightest
p7067
F1
sVhours,
p7068
F1
sVstreak
p7069
F1
sV"remove
p7070
F1
sVmonths
p7071
F1
sVstranger."
p7072
F1
sVfigure
p7073
F3
sVgratify
p7074
F4
sVpre-adamite
p7075
F8
sVdropped
p7076
F6
sVcharm,
p7077
F1
sVinclosed
p7078
F2
sVsecured
p7079
F3
sVinnumerable
p7080
F3
sVtapestry
p7081
F3
sV"perplex
p7082
F1
sVproposals.
p7083
F1
sV83
p7084
F1
sVowned,
p7085
F1
sVrites
p7086
F2
sVinforms
p7087
F1
sV"ah!
p7088
F2
sVrepresentations
p7089
F1
sVcuring
p7090
F1
sV"ah,
p7091
F3
sVgorges
p7092
F1
sVspeak,
p7093
F1
sVdifferent.
p7094
F1
sVsucceeded
p7095
F2
sVamuse
p7096
F3
sVenemies,
p7097
F1
sVwounds,
p7098
F1
sVglancing
p7099
F2
sVfoot!"
p7100
F1
sVthem!
p7101
F1
sVlamented
p7102
F2
sVimagining
p7103
F4
sVexclusive
p7104
F1
sVfurnished
p7105
F2
sVconfining
p7106
F1
sVenchanter,
p7107
F1
sVplaced,
p7108
F1
sVconversation.
p7109
F1
sVworship
p7110
F2
sVviolated,
p7111
F1
sVrocnabad!
p7112
F1
sVrocnabad,
p7113
F1
sVrocnabad.
p7114
F3
sVabhorred
p7115
F1
sVnouronihar
p7116
F42
sVeach,
p7117
F3
sVeach.
p7118
F1
sVoffers
p7119
F1
sVpervade
p7120
F1
sVdeath-like
p7121
F1
sVhappened
p7122
F4
sVlonely
p7123
F1
sVmotion.
p7124
F1
sVdelighted
p7125
F5
sV"cursed
p7126
F1
sVsongs;
p7127
F1
sVmotion:
p7128
F1
sVexecute
p7129
F1
sVequality
p7130
F1
sVname
p7131
F2
sVdebating
p7132
F1
sVnodding
p7133
F1
sVdependents.
p7134
F1
sVpiquant:
p7135
F1
sVoffer;
p7136
F1
sVenlarging,
p7137
F1
sVdelirium,
p7138
F1
sVvisitants
p7139
F1
sVdejected
p7140
F1
sVpersian
p7141
F1
sVintended
p7142
F3
sVexclamation
p7143
F1
sVintercourse
p7144
F1
sVtulips
p7145
F2
sVtreading
p7146
F1
sVattracted
p7147
F5
sVwhispered,
p7148
F1
sVhaughty,
p7149
F1
sVattended
p7150
F3
sVdispatched
p7151
F2
sVimaginable.
p7152
F1
sVvisitant,
p7153
F1
sV"must
p7154
F4
sVdelude
p7155
F1
sVacclivity
p7156
F1
sVmotion
p7157
F2
sVgusts
p7158
F1
sVbutterflies
p7159
F1
sVplace
p7160
F15
sVfastened;
p7161
F2
sVswing
p7162
F2
sVturf
p7163
F1
sVmurmurs;
p7164
F1
sVview
p7165
F8
sVsportiveness,
p7166
F1
sVsuspend
p7167
F1
sVanxiety,
p7168
F1
sVblacker
p7169
F1
sVsoliloquies,
p7170
F1
sVchintzes,
p7171
F1
sVremonstrance,
p7172
F1
sVchintz;
p7173
F1
sVsick?"
p7174
F1
sVapprehensive,
p7175
F1
sVgiven
p7176
F10
sVnecessarily
p7177
F1
sVpersons,
p7178
F1
sVburying
p7179
F1
sVarcades,
p7180
F1
sVterrifying
p7181
F1
sVkoran.
p7182
F1
sVwhite
p7183
F6
sVgives
p7184
F1
sVseduced
p7185
F2
sVsabres?
p7186
F1
sVhum
p7187
F1
sVsabres;
p7188
F1
sVdebility
p7189
F1
sVcloser;
p7190
F1
sVplatoons,
p7191
F1
sVtowers;
p7192
F1
sVgirded
p7193
F1
sVsabres.
p7194
F1
sVsabres,
p7195
F5
sVwide
p7196
F2
sVsuspended,
p7197
F1
sVtormented!
p7198
F1
sVearth;
p7199
F1
sVrequire
p7200
F3
sVtales,
p7201
F1
sVreturn,
p7202
F2
sVreturn.
p7203
F1
sVearth!
p7204
F1
sVpersuasion,
p7205
F1
sVreturn;
p7206
F1
sVreturn:
p7207
F1
sVearth.
p7208
F5
sVsurvey,
p7209
F1
sVearth,
p7210
F3
sVand
p7211
F989
sVround,
p7212
F1
sVfall,
p7213
F1
sVsuspense
p7214
F1
sVrent
p7215
F1
sVany
p7216
F32
sVideas
p7217
F1
sVwandered
p7218
F1
sVsciences
p7219
F2
sVanimation
p7220
F1
sVdelay."
p7221
F1
sVannounced.
p7222
F2
sVsure
p7223
F3
sVaspen
p7224
F1
sVspangled
p7225
F1
sVprecluded
p7226
F2
sVclearer
p7227
F1
sVvultures,
p7228
F1
sVreluctance,
p7229
F1
sVstrength,
p7230
F1
sVproud
p7231
F1
sVhungry
p7232
F1
sVkoran
p7233
F2
sVidea,
p7234
F2
sVscience;
p7235
F1
sVthem,
p7236
F24
sVslope
p7237
F2
sVconvoy
p7238
F1
sVbiers
p7239
F1
sVadorned
p7240
F2
sVtrod
p7241
F1
sVunfortunately,
p7242
F1
sVstreamers;
p7243
F1
sVpetrified,
p7244
F1
sVtrot
p7245
F1
sVevil."---"no,
p7246
F1
sVwood
p7247
F3
sVdreaded
p7248
F1
sVlighted
p7249
F2
sVclosed
p7250
F3
sVhare-bells,
p7251
F1
sVbriars,
p7252
F1
sVallotted
p7253
F2
sVexpectation
p7254
F2
sVsavoury
p7255
F1
sVregarding
p7256
F3
sVnaked
p7257
F4
sV"how
p7258
F4
sVmelancholy,
p7259
F1
sVbye,
p7260
F1
sVviolated
p7261
F3
sVlooks!
p7262
F1
sVsorest
p7263
F1
sVobliging
p7264
F1
sVmussulmans,
p7265
F2
sVencouraged
p7266
F2
sVsquandering
p7267
F1
sVsuffer
p7268
F1
sVmission?
p7269
F1
sVmission:
p7270
F1
sVmission;
p7271
F1
sVrejoicings.
p7272
F1
sVages,
p7273
F1
sVanodyne
p7274
F1
sVmission,
p7275
F1
sVcorridors
p7276
F1
sVcompliance.
p7277
F1
sVanger."
p7278
F1
sVable,
p7279
F2
sVfloundering
p7280
F1
sV20
p7281
F1
sVcolumns,
p7282
F1
sVcome
p7283
F18
sVway;
p7284
F2
sVway:
p7285
F1
sVsuccesses
p7286
F1
sV"la
p7287
F1
sVregion
p7288
F4
sVrecumbent
p7289
F1
sVmoullahs,
p7290
F1
sVway.
p7291
F2
sVway,
p7292
F8
sVsurface,
p7293
F1
sVduty
p7294
F1
sVunquiet
p7295
F1
sVbosom
p7296
F4
sV60
p7297
F1
sV61
p7298
F1
sV62
p7299
F1
sV63
p7300
F1
sV64
p7301
F1
sV65
p7302
F1
sV66
p7303
F1
sV67
p7304
F1
sV68
p7305
F1
sV69
p7306
F1
sVskeletons
p7307
F1
sVshriek,
p7308
F1
sVpermitteth
p7309
F1
sVdeposited
p7310
F2
sVdeclining
p7311
F1
sVcords
p7312
F1
sVpromises,
p7313
F1
sVhardly
p7314
F3
sVenraptured
p7315
F3
sVburied;
p7316
F1
sVimplored
p7317
F2
sVammoniac,
p7318
F1
sVmount
p7319
F1
sVlife:
p7320
F3
sVdisappeared.
p7321
F1
sVcast
p7322
F3
sVslippery
p7323
F1
sVlife.
p7324
F2
sVlife-
p7325
F1
sVlife,
p7326
F4
sV"sire,"
p7327
F1
sVscales;
p7328
F1
sVixhora,
p7329
F1
sVsultans;
p7330
F3
sVsultans?
p7331
F1
sVperson.
p7332
F1
sVperson,
p7333
F3
sVattention;
p7334
F3
sVsultans,
p7335
F1
sVcouplet
p7336
F1
sVsides.
p7337
F1
sVsides,
p7338
F6
sVmelons.
p7339
F1
sVmelons,
p7340
F3
sVcaverns:
p7341
F1
sVsides:
p7342
F1
sVagitated
p7343
F2
sVfrequented
p7344
F1
sVisle
p7345
F2
sVweek
p7346
F1
sVinsects,
p7347
F1
sVnest
p7348
F3
sVmuffled
p7349
F1
sVguests.
p7350
F1
sVpersons
p7351
F3
sVdecently
p7352
F1
sVlute
p7353
F1
sVarose
p7354
F7
sVchanging
p7355
F1
sVvisited,
p7356
F1
sVovens,
p7357
F1
sVawry,
p7358
F1
sVhyacinths,
p7359
F1
sVdelectable
p7360
F3
sVbow,
p7361
F1
sVmagical
p7362
F4
sVwithout
p7363
F56
sVflakes
p7364
F1
sVrelief
p7365
F2
sVillume
p7366
F1
sVviands
p7367
F1
sVbodies
p7368
F6
sVbababalouk!---"my
p7369
F1
sVconnexions
p7370
F1
sVviolence
p7371
F1
sVguided
p7372
F1
sVviolent
p7373
F6
sVcease
p7374
F3
sVempalements
p7375
F1
sVperilous
p7376
F1
sVstyle,
p7377
F1
sVblow
p7378
F1
sVbeholder.
p7379
F1
sVdauntless
p7380
F1
sVhint
p7381
F1
sVrose
p7382
F7
sVpossible,
p7383
F1
sVseems
p7384
F1
sVexcept
p7385
F1
sVpreceding,
p7386
F1
sVclay,
p7387
F1
sVlaboratory,
p7388
F1
sVflashing
p7389
F1
sVbones,
p7390
F1
sVmystery
p7391
F1
sVconfines
p7392
F1
sVaddress,
p7393
F2
sVstyled
p7394
F1
sVconfined
p7395
F1
sVaccepted
p7396
F1
sVdumb?"---
p7397
F1
sVgulchenrouz?"
p7398
F1
sVflattered,
p7399
F1
sVdistinguished,
p7400
F1
sVall.
p7401
F1
sVwoman,
p7402
F1
sVtower
p7403
F9
sVassemblage,
p7404
F1
sVbeards,
p7405
F2
sVreduced
p7406
F1
sVvain.
p7407
F1
sVshunned
p7408
F1
sVvain,
p7409
F2
sVcompetition
p7410
F1
sVdoubt,"
p7411
F1
sVvain;
p7412
F1
sVvain:
p7413
F1
sVsnatched
p7414
F2
sVtable
p7415
F2
sVprovided
p7416
F1
sVrenounce
p7417
F1
sVastrolabes
p7418
F1
sVhighest
p7419
F1
sVsubdue,
p7420
F1
sVwantest
p7421
F1
sVmoon
p7422
F7
sVporter
p7423
F1
sVfreed
p7424
F1
sVcalmed
p7425
F1
sVmetropolis
p7426
F1
sVbarricadoed,
p7427
F1
sVa-jar;
p7428
F1
sVvoracious
p7429
F1
sVterrified
p7430
F3
sVburden.
p7431
F2
sVon
p7432
F248
sVarchers.
p7433
F1
sVsubdued
p7434
F2
sVoh
p7435
F1
sVof
p7436
F1516
sVchoirs
p7437
F2
sVprovide.
p7438
F1
sVmutually
p7439
F5
sVwhence
p7440
F10
sVstand
p7441
F1
sVwaded
p7442
F1
sVsevere,
p7443
F1
sVdoze
p7444
F1
sVflies)
p7445
F1
sVor
p7446
F33
sVflies,
p7447
F1
sVamber
p7448
F1
sVladies
p7449
F8
sVinstruments
p7450
F3
sVcursed
p7451
F4
sV---"we
p7452
F1
sVrising
p7453
F3
sVinclosure,
p7454
F1
sVsatisfied.
p7455
F1
sVthere
p7456
F41
sVsummit,
p7457
F1
sVmortal!
p7458
F1
sVextolled
p7459
F1
sVvalley
p7460
F7
sVforebore
p7461
F1
sVilluminated
p7462
F3
sVamongst
p7463
F15
sVpreceded
p7464
F1
sVgrandeur;
p7465
F1
sVapplying
p7466
F1
sVwalking.
p7467
F1
sVsummits
p7468
F2
sVexhaled,
p7469
F1
sVgrass
p7470
F1
sVsaid---"read
p7471
F1
sVfavourities.
p7472
F1
sVhearts;
p7473
F1
sVwords;
p7474
F1
sVhearts?
p7475
F1
sVtaste
p7476
F7
sVheart-broken
p7477
F1
sVwords.
p7478
F1
sVwords,
p7479
F9
sVhearts,
p7480
F1
sVtarry;
p7481
F1
sVoccupied,
p7482
F2
sVsolitudes?
p7483
F1
sVprotruded
p7484
F1
sVabyss
p7485
F2
sVrubbed
p7486
F1
sVdeserve
p7487
F3
sVdiscerned
p7488
F1
sVbesom
p7489
F5
sVcompel
p7490
F1
sVcall:
p7491
F1
sVroses
p7492
F1
sV5
F1
sVilah
p7493
F1
sVrequested
p7494
F2
sVmummies
p7495
F3
sVtaciturnity
p7496
F1
sVbounded
p7497
F1
sVroes.
p7498
F1
sVrose,
p7499
F1
sVrose-
p7500
F1
sVsplendour.
p7501
F1
sVsplendour,
p7502
F3
sVlamentations
p7503
F2
sVrose;
p7504
F1
sVsapling;
p7505
F1
sVtransports
p7506
F2
sVall
p7507
F156
sVali
p7508
F3
sVson,
p7509
F2
sVson.
p7510
F6
sVdisgusting,
p7511
F1
sVcontortions.
p7512
F1
sVfollow
p7513
F7
sVson:
p7514
F2
sVpurveyors:
p7515
F1
sVglimpse
p7516
F3
sVwanton
p7517
F2
sVsparkling
p7518
F2
sVexecrations
p7519
F2
sVdespondence,
p7520
F1
sVdazzling
p7521
F2
sVdespondence.
p7522
F1
sVroyally
p7523
F1
sVmoon-light,
p7524
F1
sVenterprize;
p7525
F2
sVwoman
p7526
F1
sVworse
p7527
F2
sVegyptian
p7528
F1
sVfar
p7529
F12
sVscullions
p7530
F1
sVtolerant,
p7531
F1
sVcoursing
p7532
F1
sVsons
p7533
F1
sVworst
p7534
F1
sVswarded
p7535
F1
sVawful
p7536
F4
sVvizirs,
p7537
F3
sVwilt
p7538
F2
sVundone
p7539
F1
sVdirection.
p7540
F1
sVten
p7541
F5
sVdirection,
p7542
F2
sVderviches
p7543
F1
sVdirection;
p7544
F1
sVinvention
p7545
F1
sVdesign
p7546
F1
sVaptly
p7547
F1
sVwhat
p7548
F60
sVhesitation
p7549
F1
sVsun
p7550
F8
sVextreme,
p7551
F1
sVextreme.
p7552
F1
sVcucumber,
p7553
F1
sVallow,
p7554
F1
sVsup
p7555
F1
sVmultitude
p7556
F4
sVwomb
p7557
F1
sVwhen,
p7558
F2
sVdirections
p7559
F1
sVobserving
p7560
F2
sVextraordinary
p7561
F3
sVkalilah
p7562
F1
sV"fancy
p7563
F1
sVmust,
p7564
F1
sVchain
p7565
F1
sVcataract
p7566
F2
sVdamned
p7567
F2
sVsuddenly
p7568
F5
sVworld."
p7569
F2
sVscreens
p7570
F2
sVsnug
p7571
F1
sVknow,
p7572
F4
sVporticos,
p7573
F1
sVtabernacle.
p7574
F1
sVproceed
p7575
F6
sVmurderer!"
p7576
F1
sVdenominated
p7577
F1
sVstandard.
p7578
F1
sVeye-brows,
p7579
F1
sVhorses
p7580
F4
sVdarting
p7581
F1
sVknows
p7582
F4
sVuncle's
p7583
F1
sVsilk:
p7584
F1
sVagony:
p7585
F1
sVwretches
p7586
F1
sVdraughts
p7587
F1
sVknown
p7588
F3
sVglad
p7589
F1
sVreveres,
p7590
F1
sVfetters,
p7591
F1
sVeden
p7592
F1
sVheaps
p7593
F1
sVpervade.
p7594
F1
sVcousin!
p7595
F1
sVconfusion,
p7596
F1
sVchagrined,
p7597
F1
sVmonarchs
p7598
F2
sVindies.
p7599
F1
sVindies,
p7600
F1
sVburthening
p7601
F1
sVdesolating
p7602
F1
sVterrestrial
p7603
F2
sVinfluenced
p7604
F1
sVcourt
p7605
F1
sVnone!"
p7606
F1
sVrather
p7607
F7
sVbreaking
p7608
F1
sVgoad
p7609
F1
sVfortnight
p7610
F1
sVthey?---where
p7611
F1
sVprefer.
p7612
F1
sVmistress,
p7613
F1
sVfancy.
p7614
F2
sVexpedient
p7615
F3
sVempale
p7616
F1
sVlighting
p7617
F1
sVadventure
p7618
F1
sVlikewise?"
p7619
F1
sVemergencies
p7620
F1
sVshort
p7621
F3
sVwomanish
p7622
F1
sVmeal."
p7623
F1
sVdeparture
p7624
F1
sVquarters,
p7625
F2
sVpalpitations;
p7626
F1
sVshade
p7627
F1
sVwhence,
p7628
F1
sVdread.
p7629
F1
sVmusic,
p7630
F2
sVprofusion.
p7631
F1
sVscruple,
p7632
F1
sV"in
p7633
F3
sV"if
p7634
F1
sVessence
p7635
F1
sVloiterest
p7636
F1
sVthese,
p7637
F2
sVdisabled
p7638
F1
sV"it
p7639
F1
sV"is
p7640
F2
sVstyle
p7641
F3
sValready,
p7642
F1
sValready.
p7643
F1
sVapart:
p7644
F1
sVmattress
p7645
F1
sVresort
p7646
F2
sVstrange
p7647
F7
sVwatch-towers
p7648
F1
sVmight
p7649
F25
sValready;
p7650
F1
sVreturn
p7651
F11
sVlittle,
p7652
F1
sVinsensibility
p7653
F1
sVpaunch,
p7654
F1
sVproclaimed:
p7655
F1
sVlittle;
p7656
F1
sV"beware
p7657
F1
sVnotwithstanding,
p7658
F2
sVadventurous
p7659
F1
sVpreparations,
p7660
F1
sVlevel
p7661
F1
sVrefresh
p7662
F5
sVthis?"
p7663
F1
sVroof;
p7664
F2
sVweight
p7665
F1
sVgeneration
p7666
F1
sVflames.
p7667
F2
sVflames,
p7668
F2
sVhim
p7669
F91
sVsurprize
p7670
F3
sVexpect
p7671
F2
sVundertake
p7672
F1
sVroof,
p7673
F1
sVscratching
p7674
F1
sVinflated
p7675
F1
sVflames;
p7676
F2
sVflames:
p7677
F1
sVbraided
p7678
F1
sVrepast,
p7679
F2
sVwondered
p7680
F1
sVimploring
p7681
F1
sVreverend
p7682
F2
sVhealth
p7683
F4
sVrepast;
p7684
F1
sVend."
p7685
F1
sVparadise
p7686
F3
sVcongenial
p7687
F1
sVinduced
p7688
F2
sVrecline
p7689
F3
sVboldness
p7690
F1
sVeffect
p7691
F2
sVattendant
p7692
F1
sVbushes
p7693
F1
sVnightly
p7694
F1
sVproperly;
p7695
F1
sVhumour,
p7696
F1
sVlinen,
p7697
F2
sVconsequence
p7698
F2
sVfallen
p7699
F1
sVrepasts
p7700
F1
sVamber-coloured
p7701
F1
sVfeel
p7702
F2
sVrelate
p7703
F2
sVvellum
p7704
F1
sVtreasure.
p7705
F1
sVtranquillity,
p7706
F2
sVfeet
p7707
F6
sVconstruct
p7708
F1
sVcommands."
p7709
F1
sVnorth-east
p7710
F1
sVsolimans,
p7711
F1
sVtemples
p7712
F1
sVbreathless
p7713
F3
sVthoughts,
p7714
F1
sVleading
p7715
F1
sVproperty;
p7716
F1
sV"glutton,
p7717
F1
sVmansions
p7718
F1
sVswarm
p7719
F2
sVpassed
p7720
F10
sVsward
p7721
F1
sVrecovered
p7722
F3
sVattendants
p7723
F6
sVrelieved
p7724
F1
sVuncommonly
p7725
F3
sVcemetery.
p7726
F1
sVimportunity
p7727
F1
sVrustlings
p7728
F1
sVluckily
p7729
F1
sVtreasures
p7730
F10
sVimmediately,
p7731
F2
sVinformation.
p7732
F1
sVkind
p7733
F6
sVreeds,
p7734
F1
sVdouble
p7735
F4
sVinstruction
p7736
F1
sVmunificence
p7737
F1
sVdried
p7738
F1
sVtongues
p7739
F1
sV"what!"
p7740
F2
sVseason,
p7741
F1
sVexert
p7742
F1
sVimports
p7743
F1
sVtaste,
p7744
F1
sVmean?"
p7745
F1
sVexcess,
p7746
F2
sVkitchens,
p7747
F1
sVcongruous
p7748
F1
sVnights
p7749
F2
sVluxury,
p7750
F1
sVcurvetting
p7751
F1
sVfinding
p7752
F11
sVvoraciousness
p7753
F1
sVfoamed
p7754
F2
sVme."
p7755
F2
sVadded
p7756
F5
sVthronged
p7757
F1
sVreach
p7758
F3
sV77
p7759
F1
sV76
p7760
F1
sV75
p7761
F1
sV74
p7762
F1
sVimport.
p7763
F1
sV72
p7764
F1
sV71
p7765
F1
sV70
p7766
F1
sVnothing
p7767
F25
sVmeasured
p7768
F1
sVtongue.
p7769
F2
sV79
p7770
F1
sV78
p7771
F1
sVmineral
p7772
F1
sVnight:
p7773
F1
sVdissolved
p7774
F1
sVsecurity,
p7775
F1
sVexclaimed:---
p7776
F1
sVnight,
p7777
F9
sVsafety;
p7778
F1
sVnight.
p7779
F3
sVhurried,
p7780
F1
sVmahomet;
p7781
F1
sVexpedients
p7782
F1
sVbeard,
p7783
F1
sVfond
p7784
F6
sVfurnace,
p7785
F1
sVbeard;
p7786
F1
sVhavoc
p7787
F1
sVmelody
p7788
F1
sVliquorish
p7789
F1
sVinebriated
p7790
F2
sVhigh-stomached
p7791
F1
sVtents,
p7792
F1
sVcompliments,
p7793
F1
sVabiding
p7794
F1
sVbetray
p7795
F1
sVwindings
p7796
F1
sVshepherd
p7797
F1
sVhis
p7798
F520
sVhit
p7799
F1
sVschiraz
p7800
F3
sVjourney?
p7801
F1
sVjourney:
p7802
F1
sVaffright
p7803
F1
sVhid
p7804
F3
sVguilt,
p7805
F1
sVjourney,
p7806
F2
sVjourney.
p7807
F2
sVbeards
p7808
F4
sVstone.
p7809
F1
sVstone,
p7810
F1
sVwormwood-colour
p7811
F1
sVinsensibly
p7812
F2
sVserene,
p7813
F1
sVtecth-trevan:
p7814
F1
sVhealth,
p7815
F2
sVprescribing
p7816
F1
sVdrivers;
p7817
F1
sVaffecting,
p7818
F1
sVengraven
p7819
F2
sVactivity
p7820
F1
sV"give
p7821
F1
sVyou!"
p7822
F1
sVprecaution
p7823
F1
sVrelentless
p7824
F1
sVinsensible
p7825
F1
sVconsciously
p7826
F1
sVdrink,
p7827
F1
sVart
p7828
F15
sVcity,
p7829
F2
sVmischievously
p7830
F1
sVcarathis,
p7831
F35
sVhimself,"
p7832
F1
sVcity:
p7833
F1
sVare
p7834
F61
sVbark
p7835
F1
sVheaped
p7836
F2
sVarm
p7837
F2
sVdeclined
p7838
F1
sVfind.
p7839
F2
sVfind,
p7840
F1
sVlearnt
p7841
F2
sVadvanced,
p7842
F5
sVforlorn
p7843
F2
sVdrooping
p7844
F1
sVdegrading
p7845
F2
sVvarious
p7846
F12
sVmilch
p7847
F1
sVanew.
p7848
F1
sVblaze,
p7849
F3
sVother's
p7850
F1
sVnumerous
p7851
F3
sVhairs
p7852
F2
sVafter,
p7853
F2
sVheron,
p7854
F1
sVdrivelling
p7855
F1
sVdays:
p7856
F1
sVhead!
p7857
F1
sVchamber,
p7858
F2
sVdives,
p7859
F2
sVsold
p7860
F1
sVsole
p7861
F3
sV"peace!
p7862
F1
sVsay:
p7863
F1
sVchamber;
p7864
F1
sVdays,
p7865
F6
sVsucceed
p7866
F1
sVchamber?
p7867
F1
sVopposition
p7868
F2
sVinvective,
p7869
F1
sVbetrayed
p7870
F2
sVprelude
p7871
F1
sVnerveless?
p7872
F1
sVliquors
p7873
F1
sVcarathis;
p7874
F3
sVvoluptuousness,
p7875
F1
sVlearn;
p7876
F1
sVbecame
p7877
F13
sVhowever,
p7878
F31
sVlearn,
p7879
F1
sVfinds
p7880
F1
sVhost,
p7881
F1
sVvisnow
p7882
F1
sVembroidery:
p7883
F1
sVreasons
p7884
F2
sVsweet
p7885
F2
sVsweep
p7886
F1
sVimpeded,
p7887
F1
sVnettles
p7888
F1
sVacrid
p7889
F1
sVgoats
p7890
F1
sVthere,
p7891
F5
sVthere.
p7892
F1
sVdun
p7893
F2
sVmarch,
p7894
F2
sVstorks.
p7895
F1
sVmanchets;
p7896
F1
sVwhom
p7897
F31
sVdebasing
p7898
F1
sVflight
p7899
F2
sVouranbad,
p7900
F1
sVorisons
p7901
F1
sVgoodly
p7902
F1
sVreason.
p7903
F1
sVunresisting
p7904
F1
sVjars
p7905
F1
sVplants
p7906
F1
sVcompassion,
p7907
F1
sVstripped,
p7908
F1
sVworkmen
p7909
F1
sVservice:
p7910
F1
sVfrozen
p7911
F1
sVbeauty.
p7912
F1
sVbeauty,
p7913
F2
sVresume."
p7914
F1
sVindignation
p7915
F3
sVwho,
p7916
F35
sVmyrabolan
p7917
F1
sVbeauty;
p7918
F2
sVwhere,
p7919
F7
sVwhere.
p7920
F1
sVspeak."
p7921
F1
sVrip
p7922
F1
sVecstasy
p7923
F1
sVobstacle
p7924
F1
sVfrantic
p7925
F1
sVremarked,
p7926
F2
sVrid
p7927
F2
sVaway,
p7928
F2
sVfate
p7929
F4
sVparading
p7930
F1
sVlengths
p7931
F1
sVriband,
p7932
F1
sVstimulated
p7933
F1
sV9
F1
sVstars!"---
p7934
F1
sVhigher
p7935
F1
sVaccordingly,
p7936
F1
sVsleep,"
p7937
F1
sVimpede
p7938
F1
sVunrestrained
p7939
F1
sVseparately;
p7940
F1
sVdaughter,
p7941
F3
sVoffers;
p7942
F1
sVsolemnity
p7943
F2
sVpeople,
p7944
F3
sVtry
p7945
F3
sVpeople.
p7946
F1
sVapprized
p7947
F2
sVedge
p7948
F5
sVlength,
p7949
F17
sVsurprised;
p7950
F1
sVpeople;
p7951
F2
sVhands;
p7952
F1
sVplaces,
p7953
F1
sVcomplain;
p7954
F1
sVintervals
p7955
F1
sVquestions
p7956
F1
sVimmediately
p7957
F24
sVvigilant
p7958
F1
sVretired
p7959
F8
sVgrey-beards
p7960
F1
sVprince
p7961
F8
sVgems
p7962
F1
sV"but
p7963
F5
sVsal
p7964
F1
sVtormented
p7965
F3
sVmyself!
p7966
F1
sVspired
p7967
F1
sVsoul;
p7968
F1
sVdistinctly;
p7969
F1
sVparoxism
p7970
F1
sVwater-falls
p7971
F1
sVdistinctly,
p7972
F1
sVuproar
p7973
F1
sVdistinctly.
p7974
F1
sVtable.
p7975
F1
sVessential
p7976
F1
sVtable,
p7977
F3
sVtower,
p7978
F12
sVorder,
p7979
F1
sVstreaming
p7980
F1
sVlitter
p7981
F3
sV"we
p7982
F2
sVsprightly
p7983
F3
sV"vathek
p7984
F1
sVgradually
p7985
F6
sV"my
p7986
F3
sVwomen,
p7987
F8
sVwomen.
p7988
F1
sVcomfit;
p7989
F1
sVminarets,
p7990
F2
sVforbear,
p7991
F1
sVwomen;
p7992
F3
sVtends
p7993
F1
sVprevailing,
p7994
F2
sVemir's
p7995
F4
sVloud,
p7996
F1
sVshuddering,
p7997
F1
sVperpendicular
p7998
F1
sVrefused
p7999
F2
sVshook;
p8000
F1
sVcautious
p8001
F1
sVcommendations,
p8002
F1
sVmost
p8003
F65
sVfrightful
p8004
F4
sVrecited
p8005
F2
sVrange
p8006
F1
sVawoke,
p8007
F1
sVpertinacity."
p8008
F1
sVaherman,
p8009
F2
sVherons
p8010
F1
sVyouthful
p8011
F1
sVmoullahs
p8012
F1
sVgrouping,
p8013
F1
sVgouls,
p8014
F3
sVattached,
p8015
F1
sVgouls!
p8016
F1
sVabounded
p8017
F1
sVpiteous
p8018
F2
sValmonds,
p8019
F1
sVmountain.
p8020
F2
sVmountain,
p8021
F10
sVstench
p8022
F1
sVlaughed;
p8023
F1
sVtumult,
p8024
F1
sVcondescension,
p8025
F1
sVamidst
p8026
F8
sVonce,"
p8027
F1
sVmountains
p8028
F2
sVplunge
p8029
F3
sVperplexing
p8030
F2
sVcloth
p8031
F1
sVreflections,
p8032
F1
sVraising
p8033
F3
sVpausing,
p8034
F1
sVfled,
p8035
F1
sVphantom,
p8036
F1
sVcafour
p8037
F2
sVsullied
p8038
F1
sVgratifying
p8039
F1
sV116
p8040
F1
sVfled;
p8041
F1
sVtumults
p8042
F2
sVcalled
p8043
F13
sV110
p8044
F1
sVcharge?"
p8045
F1
sVarticulating
p8046
F1
sV112
p8047
F1
sVpreserved.
p8048
F1
sVbreast,
p8049
F1
sVthronged,
p8050
F1
sVcreme;
p8051
F1
sVdanger,
p8052
F1
sVknowledge,
p8053
F2
sVscrutinized
p8054
F1
sVevils
p8055
F1
sVsudden.---slight
p8056
F1
sVmalicious
p8057
F2
sVdepart,
p8058
F2
sVsaffron
p8059
F1
sVhunger!"---"as
p8060
F1
sVknowledge;
p8061
F1
sVsufferer,
p8062
F1
sVsuffer,
p8063
F1
sVmock
p8064
F1
sVnice
p8065
F1
sV"alas!
p8066
F1
sVcompounded,
p8067
F1
sVthirty-two
p8068
F1
sVenveloped,
p8069
F1
sVevil;
p8070
F1
sVcuriosities,
p8071
F1
sVimmoderately;
p8072
F1
sVreproached
p8073
F3
sVimpatient
p8074
F1
sVreproaches
p8075
F1
sVevil.
p8076
F1
sVsuperannuated
p8077
F1
sVrain,
p8078
F1
sVcities,
p8079
F2
sVonce
p8080
F13
sVsometimes,
p8081
F1
sVintreated
p8082
F2
sVissued
p8083
F1
sVresistance
p8084
F1
sVdispel
p8085
F1
sVmeteors,
p8086
F1
sVpurpose,"
p8087
F1
sVwaters?"---"relentless
p8088
F1
sVfortresses
p8089
F1
sVlanguages
p8090
F1
sVobstinate
p8091
F1
sVabode
p8092
F4
sVbreathing
p8093
F1
sVseized
p8094
F7
sVwind,
p8095
F1
sV"little
p8096
F1
sVfailed.
p8097
F1
sVindication
p8098
F1
sVspoon
p8099
F1
sVwishes
p8100
F1
sVbounding
p8101
F1
sVdrinking
p8102
F2
sVdealt
p8103
F2
sVmelodies
p8104
F1
sVpoles,
p8105
F2
sVpegu,
p8106
F1
sVconcluded
p8107
F1
sVabominably
p8108
F2
sVfolds
p8109
F1
sVsex,
p8110
F1
sVprocession
p8111
F6
sVdomains:
p8112
F1
sVsauntered
p8113
F1
sVenamoured
p8114
F1
sVpaleness
p8115
F1
sVabominable
p8116
F5
sVdomains.
p8117
F1
sVfolk
p8118
F1
sVafrit,
p8119
F2
sVdolefully
p8120
F1
sVgiant.
p8121
F1
sVwaiting
p8122
F2
sVunmercifully
p8123
F1
sVafrit;
p8124
F1
sV"merciful
p8125
F1
sVgaily
p8126
F1
sVdegree
p8127
F1
sVcubits
p8128
F2
sVinmost
p8129
F5
sVfrolicsome
p8130
F1
sVsurvivor
p8131
F1
sVlarger
p8132
F1
sVshades
p8133
F2
sVleaving
p8134
F4
sVwill."
p8135
F1
sVgulchenrouz
p8136
F27
sVleaping,
p8137
F1
sVafrits
p8138
F1
sVchaste
p8139
F1
sVapple
p8140
F1
sVprecipitation;
p8141
F1
sVunaltered;
p8142
F1
sVmessengers
p8143
F1
sVopiate,
p8144
F1
sVapply
p8145
F1
sVlost!---and
p8146
F1
sVuse
p8147
F2
sVfrom
p8148
F215
sVstream
p8149
F1
sVfew
p8150
F27
sVchins;
p8151
F1
sVexpanding
p8152
F2
sVeagles
p8153
F1
sVpossession
p8154
F1
sVboast.
p8155
F2
sV"cannot
p8156
F1
sVinclined
p8157
F1
sVthrong
p8158
F1
sVentwined
p8159
F1
sVred,
p8160
F2
sVvathek.
p8161
F2
sVvathek,
p8162
F54
sVfro,
p8163
F1
sVus!
p8164
F2
sVslaps
p8165
F1
sVus.
p8166
F1
sVus,
p8167
F6
sVsantons,
p8168
F4
sVwildest
p8169
F1
sVvathek:
p8170
F1
sVvathek;
p8171
F4
sVdiscovered,
p8172
F2
sV"light
p8173
F1
sVsantons;
p8174
F1
sVus;
p8175
F1
sVperformed
p8176
F5
sV"from
p8177
F1
sVdetain
p8178
F3
sVoverawed;
p8179
F1
sVcarathis
p8180
F36
sVtymbals.
p8181
F2
sVtymbals,
p8182
F2
sVcondescend
p8183
F2
sVsomething
p8184
F2
sVindulgingly
p8185
F1
sVhyacinths
p8186
F1
sVcaliph
p8187
F67
sVsit
p8188
F2
sVsix
p8189
F4
sVfortunate
p8190
F1
sValive.
p8191
F1
sVinstead
p8192
F17
sVherself,
p8193
F7
sVremedy;
p8194
F1
sVthirst;
p8195
F1
sVattend
p8196
F5
sVextinguished;
p8197
F1
sVaffiances,
p8198
F1
sVimmersed
p8199
F3
sVhazard
p8200
F2
sVlive-long
p8201
F1
sVthirst.
p8202
F1
sVthirst,
p8203
F1
sV"has
p8204
F1
sVseconding
p8205
F2
sVdistraction.
p8206
F1
sVphantoms;
p8207
F1
sVreadiness
p8208
F1
sVstruggle:
p8209
F1
sVlight
p8210
F21
sVinterrupted
p8211
F4
sVbudge
p8212
F1
sVextraction.
p8213
F1
sVfaces!"
p8214
F1
sVperishing
p8215
F2
sVstamped
p8216
F2
sVtables;
p8217
F1
sVwhilst
p8218
F59
sVbeguile
p8219
F1
sVlooks
p8220
F9
sVindignantly
p8221
F1
sVcovered,
p8222
F1
sV"more!
p8223
F1
sVsuperior
p8224
F2
sVease,
p8225
F1
sVworld:
p8226
F1
sValive;
p8227
F1
sVpretendest,
p8228
F1
sVsempstresses
p8229
F1
sVorange
p8230
F2
sVcovered
p8231
F7
sVbye
p8232
F1
sVcrowds
p8233
F1
sVworld,
p8234
F2
sVhappened,
p8235
F3
sVhappened.
p8236
F1
sVorthodox
p8237
F2
sVspoken!"
p8238
F2
sVconfectioners,
p8239
F1
sVresolve
p8240
F1
sVemerald
p8241
F1
sVflea
p8242
F1
sVfled
p8243
F3
sVcrowd,
p8244
F4
sVadmonished
p8245
F1
sVinvents."
p8246
F1
sVprofound
p8247
F4
sVby,
p8248
F1
sVwretch,
p8249
F1
sVbababalouk,"
p8250
F1
sVtumult
p8251
F4
sVrelated
p8252
F2
sV88
p8253
F1
sV89
p8254
F1
sVremove
p8255
F1
sV82
p8256
F1
sVour
p8257
F33
sV80
p8258
F1
sV81
p8259
F1
sV86
p8260
F1
sV87
p8261
F1
sV84
p8262
F1
sVout
p8263
F38
sVassured,
p8264
F1
sVgossamer
p8265
F1
sVstrengthened
p8266
F1
sVnarrative
p8267
F1
sVsolemnized
p8268
F1
sVdisclose
p8269
F2
sVpredominant.
p8270
F1
sVmaintains
p8271
F1
sVsceptre,
p8272
F1
sVdishes;
p8273
F1
sVadditional
p8274
F1
sVrepairing
p8275
F2
sVdogs?
p8276
F1
sVrespect:
p8277
F1
sVobstruction,
p8278
F1
sVconversation
p8279
F5
sVfollows:
p8280
F2
sVapproaching
p8281
F4
sVrespect.
p8282
F1
sVplainly
p8283
F1
sVwakening
p8284
F1
sVhitherto
p8285
F6
sVdaki;
p8286
F1
sVcalled,
p8287
F1
sVseraglio,
p8288
F2
sVunknown
p8289
F3
sVmorals,
p8290
F1
sV"go,
p8291
F2
sVtheir
p8292
F294
sVenough.
p8293
F1
sVenough,
p8294
F1
sV"go;
p8295
F2
sVhearing.
p8296
F2
sVfavoured!"
p8297
F1
sVdoomed
p8298
F2
sVmaukish:
p8299
F1
sVlearned,
p8300
F3
sVbranches
p8301
F4
sVdeemed,
p8302
F1
sVriches
p8303
F3
sVswooned
p8304
F1
sVrarity
p8305
F1
sVshiraz,
p8306
F1
sVpismires;
p8307
F1
sVbrightened;
p8308
F1
sVafraid
p8309
F1
sVpupils
p8310
F1
sVseducing;
p8311
F1
sVagency
p8312
F1
sVolfactory
p8313
F1
sVspeak;
p8314
F1
sVwhich
p8315
F224
sVgavest
p8316
F1
sVdivert
p8317
F1
sVcomest
p8318
F1
sVreared,
p8319
F1
sVcentre
p8320
F2
sVwho
p8321
F162
sVconsternation,
p8322
F2
sVconsternation.
p8323
F3
sVwhy
p8324
F4
sVclasp
p8325
F2
sVrecovering,
p8326
F2
sVlooked
p8327
F7
sVneatness
p8328
F1
sVword,
p8329
F4
sVagreed
p8330
F1
sVword.
p8331
F3
sVone,
p8332
F1
sVcalculations,
p8333
F1
sVraschid,
p8334
F1
sVslumbers;
p8335
F1
sVutter
p8336
F2
sVone:
p8337
F1
sVone;
p8338
F1
sVpleased
p8339
F2
sVsparks,
p8340
F1
sVgeneration.
p8341
F1
sVre-echoed
p8342
F1
sVmany,
p8343
F3
sVminutely
p8344
F1
sVthousands
p8345
F1
sV"son!
p8346
F1
sVwell-beloved,
p8347
F2
sVtopple
p8348
F1
sVwatching
p8349
F1
sVmassacre
p8350
F1
sVno!
p8351
F3
sVwords
p8352
F6
sVmahomet
p8353
F3
sVto-night;
p8354
F2
sVeblis."
p8355
F1
sVvied
p8356
F1
sVashes.
p8357
F1
sVashes,
p8358
F1
sVnightingale
p8359
F1
sVdeceived
p8360
F3
sVunison
p8361
F1
sVshedding
p8362
F1
sVvouchsafeth
p8363
F1
sVacquired
p8364
F1
sVgrieve
p8365
F1
sVfantastically
p8366
F1
sVluminous
p8367
F1
sVcloser
p8368
F1
sVbrightness.
p8369
F1
sVcontrition,
p8370
F1
sVsupineness
p8371
F1
sVirretrievably,
p8372
F1
sVsuperb
p8373
F6
sVgenius
p8374
F3
sVsweat
p8375
F1
sVground:
p8376
F1
sVground;
p8377
F2
sVmarrow.
p8378
F1
sVfits.
p8379
F1
sVglory.
p8380
F1
sVglory,
p8381
F1
sVopening
p8382
F2
sVjoy
p8383
F5
sVglimmered
p8384
F2
sVglory:
p8385
F1
sVspoil
p8386
F1
sVeyes.
p8387
F2
sVcolumns;
p8388
F1
sVcounterfeiting
p8389
F1
sVwithstanding
p8390
F1
sVconversion.
p8391
F1
sVsonorous
p8392
F1
sVcommands
p8393
F1
sVlubricated
p8394
F1
sVdireful
p8395
F4
sVmargin,
p8396
F1
sVinterment.
p8397
F1
sVcanopy
p8398
F1
sVpenetration,
p8399
F1
sVclose,
p8400
F1
sVwilds,
p8401
F1
sVwall
p8402
F1
sVconfer,
p8403
F1
sVthat,"
p8404
F1
sVwalk
p8405
F1
sVrespect
p8406
F6
sVrashness.
p8407
F1
sVdecent
p8408
F1
sVsouls,
p8409
F2
sVfumigations,
p8410
F1
sVimpetuously
p8411
F1
sVruin."
p8412
F1
sVsufficient
p8413
F9
sVvermin,
p8414
F1
sVprospects
p8415
F1
sVdrapery,
p8416
F1
sVremonstrances
p8417
F1
sVcommiseration,
p8418
F1
sVpageants
p8419
F1
sVpresent
p8420
F14
sVmahomet!
p8421
F1
sVfiercest,
p8422
F1
sVabandoned
p8423
F2
sVfearful
p8424
F1
sVmahomet.
p8425
F4
sVragouts
p8426
F1
sVmahomet,
p8427
F4
sVwill
p8428
F89
sVhovering
p8429
F1
sVpersevered
p8430
F3
sVhunter.
p8431
F1
sVwild
p8432
F8
sVheels.
p8433
F1
sVmahomet?
p8434
F1
sVringing
p8435
F1
sVthus
p8436
F27
sVencouragement
p8437
F1
sVsmatterers,
p8438
F1
sVkind,
p8439
F1
sVperhaps
p8440
F1
sVespecially,
p8441
F3
sVpastimes;
p8442
F1
sVcross
p8443
F2
sVthese.
p8444
F2
sVretailing
p8445
F1
sVinch
p8446
F1
sVgrandeur
p8447
F2
sVdifficult
p8448
F1
sVeunuchs
p8449
F16
sV"they
p8450
F1
sVrequisition,
p8451
F1
sVaudience.
p8452
F1
sVconceived
p8453
F1
sVcase."
p8454
F1
sVbeast
p8455
F1
sVcollar
p8456
F1
sVcons$ecrated
p8457
F1
sVscrupled
p8458
F1
sVapprove
p8459
F1
sVrivers.
p8460
F1
sVprivilege,
p8461
F1
sVanother."---"alas!
p8462
F1
sVundertaken
p8463
F1
sVexcessive
p8464
F2
sVcried
p8465
F21
sVcamel
p8466
F1
sVghulchissar,
p8467
F1
sVonly,
p8468
F2
sVobtain
p8469
F4
sVcries
p8470
F6
sVrocked
p8471
F2
sVhappiness
p8472
F1
sVdanced
p8473
F1
sVwonder,
p8474
F3
sVtemerity
p8475
F1
sVdoor-way,
p8476
F1
sVconsole
p8477
F1
sVdislocated;
p8478
F1
sVsupply
p8479
F1
sVpresence,
p8480
F3
sVlose,
p8481
F1
sVhastening
p8482
F2
sVcrannies
p8483
F1
sVearnestly
p8484
F1
sVremonstrances;
p8485
F1
sVcaptivating
p8486
F1
sVcame,
p8487
F1
sVravages
p8488
F1
sVcame?
p8489
F1
sVknow
p8490
F9
sVpress
p8491
F1
sVhollow
p8492
F7
sV"your
p8493
F2
sVperpetual
p8494
F1
sVjar;
p8495
F1
sVhosts
p8496
F1
sVrepressed
p8497
F1
sVwonders
p8498
F1
sVlance
p8499
F1
sVbecause
p8500
F2
sVscared
p8501
F1
sV115
p8502
F1
sV114
p8503
F1
sV117
p8504
F1
sVphosphoric
p8505
F1
sV111
p8506
F1
sVpast,
p8507
F1
sV113
p8508
F1
sVcages.
p8509
F1
sVpoet)
p8510
F1
sVabyss.
p8511
F2
sVemployment
p8512
F2
sV118
p8513
F1
sVthroughout
p8514
F1
sVleaf
p8515
F1
sVblubbering
p8516
F1
sVcamel,
p8517
F1
sVsake;
p8518
F1
sVcamel;
p8519
F1
sVpoets
p8520
F2
sVobey
p8521
F1
sVdangling
p8522
F1
sVfastenings
p8523
F1
sVplatform,
p8524
F1
sVmurdered
p8525
F1
sVconveyed
p8526
F2
sVreigns,
p8527
F1
sVtraitor.
p8528
F1
sVthrone
p8529
F3
sVherself;
p8530
F2
sVherself:
p8531
F1
sVcarried
p8532
F5
sVgetting
p8533
F2
sVhimself,
p8534
F16
sVhimself.
p8535
F4
sVsoups,
p8536
F1
sVmine,
p8537
F1
sVcamels
p8538
F3
sVjerks,
p8539
F1
sVherself.
p8540
F1
sVhimself:
p8541
F1
sVhimself;
p8542
F4
sVaccompany,
p8543
F1
sVown
p8544
F9
sVpolished
p8545
F2
sVshouldest
p8546
F2
sVowe
p8547
F1
sVbrambles
p8548
F1
sVweather
p8549
F3
sVpromise
p8550
F3
sVfired
p8551
F2
sVsabre
p8552
F1
sVlord!"
p8553
F2
sVmad!
p8554
F1
sVnoxious
p8555
F1
sVlanguishing,
p8556
F1
sVintention
p8557
F1
sVestimation,
p8558
F2
sVlitter,
p8559
F4
sVvolume
p8560
F2
sVslave."---"no,
p8561
F1
sVreligious,
p8562
F1
sVmade
p8563
F27
sVbarbacans
p8564
F1
sVdesolation,
p8565
F1
sVwhether
p8566
F1
sVthis,
p8567
F7
sVproper,
p8568
F2
sVbelow
p8569
F1
sVcatching
p8570
F2
sVinfants
p8571
F1
sVsympathizing
p8572
F1
sVstirring
p8573
F3
sVupward,
p8574
F1
sVeagerness
p8575
F2
sV---
p8576
F3
sV"so
p8577
F1
sVkind.
p8578
F1
sVtrotting
p8579
F1
sVtrailing
p8580
F1
sVconspired
p8581
F3
sVyou."---"give
p8582
F1
sVbauble
p8583
F1
sVother
p8584
F49
sVunsatiating
p8585
F1
sVsick
p8586
F2
sVrare,
p8587
F1
sVimportuned
p8588
F3
sVwithstood
p8589
F1
sVkinds
p8590
F1
sVabyss,
p8591
F2
sVfaultering
p8592
F1
sVinstant,
p8593
F6
sVearthly
p8594
F1
sVdome;
p8595
F1
sVextort
p8596
F1
sVinsipid
p8597
F2
sVspace
p8598
F2
sVshall,
p8599
F2
sV"commander
p8600
F1
s.