ccollections
defaultdict
p1
(c__builtin__
float
p2
tRp3
Vfunereal
p4
F1
sVall
p5
F8
sVfinished,
p6
F1
sVdwelling,
p7
F1
sVrecorded
p8
F1
sV`come,
p9
F1
sVgloom;
p10
F1
sVinmates,
p11
F1
sVwinds
p12
F1
sVthis,'
p13
F1
sVmuffling
p14
F1
sVprophecy
p15
F1
sVseemed
p16
F3
sVlooking
p17
F2
sVup,
p18
F1
sVpt/pageturner.pl?id=eaf437&image=437-009.jpg)
p19
F1
sVsepulchre.
p20
F1
sVyoung
p21
F6
sVpathos
p22
F1
sVto
p23
F43
sVstain
p24
F1
sVturn.
p25
F1
sVpresent
p26
F1
sVunder
p27
F3
sVsmile
p28
F3
sVcarelessly
p29
F1
sVdespondingly,
p30
F1
sValthough,
p31
F1
sVforth,
p32
F1
sVfiendish
p33
F1
sVfay
p34
F2
sVwished
p35
F1
sVprime,
p36
F1
sVsitting
p37
F1
sVvery
p38
F5
sVone,
p39
F1
sVrise
p40
F1
sVdell
p41
F1
sVhalftitle
p42
F1
sV'
F1
sVtomb.
p43
F1
sVsoul,
p44
F1
sVgloomy
p45
F1
sVevery
p46
F7
sVhat,
p47
F1
sVsoftened
p48
F1
sVfall
p49
F1
sVyourselves
p50
F1
sVchild,
p51
F2
sVpilgrim
p52
F1
sVbrightly
p53
F1
sVperceived
p54
F1
sVourselves?'
p55
F1
sVlevel
p56
F1
sVdid
p57
F1
sV`is
p58
F1
sVmillions---which
p59
F1
sVleave
p60
F1
sVsang
p61
F1
sV`yes,'
p62
F1
sVsexton
p63
F1
sV`in
p64
F1
sVsmall
p65
F2
sVforeboding
p66
F1
sVround
p67
F1
sVsun-beams
p68
F1
sVdirection,
p69
F1
sVother,
p70
F1
sVgroup,
p71
F1
sVprocession
p72
F1
sVlightning,
p73
F1
sVfurther
p74
F1
sVcoffin
p75
F1
sVhere!'
p76
F2
sVwithdrawn,
p77
F1
sVcliffs.
p78
F1
sVcreatures
p79
F1
sVthat,
p80
F2
sVgrave!'
p81
F1
sVwhat
p82
F2
sVdarkest
p83
F1
sVshade;
p84
F1
sVtransplanted
p85
F1
sVsolemn
p86
F2
sVheaviness
p87
F1
sVnature.
p88
F1
sVproved;
p89
F1
sVspire
p90
F1
sVnear
p91
F1
sVspine.
p92
F1
sVhim.
p93
F1
sVshade.
p94
F1
sVhim,
p95
F1
sV298.
p96
F1
sVnew
p97
F1
sVnurse
p98
F1
sVever
p99
F4
sVdust,
p100
F1
sVcontrast
p101
F1
sVtold
p102
F3
sVsupporting
p103
F1
sVmelancholy
p104
F2
sVled
p105
F1
sVfoliage
p106
F1
sVcoffin-pall,
p107
F1
sVgathered
p108
F1
sVnever
p109
F1
sVtemple;
p110
F2
sVhere
p111
F2
sVspake
p112
F1
sVhours
p113
F1
sVmistress,
p114
F1
sVdwelling
p115
F1
sV`what!'
p116
F1
sV[
F19
sVsing
p117
F1
sVtemple,
p118
F6
sVlegend
p119
F1
sVman's
p120
F1
sVexclamation,
p121
F1
sVgreat
p122
F1
sVlife,
p123
F1
sVoak,
p124
F1
sVconviction
p125
F1
sVsighing.
p126
F1
sVfay,
p127
F1
sVfay.
p128
F1
sVimage](http://etext.virginia.edu/cgi-local/chad-
p129
F18
sVlight.
p130
F1
sVleaf.
p131
F1
sVmarble
p132
F3
sVpreceding
p133
F1
sVgleams
p134
F1
sVpathways,
p135
F1
sVpermit
p136
F1
sVstand,
p137
F1
sVhistory
p138
F1
sVsimultaneously,
p139
F1
sVfay;
p140
F1
sVbeauties,
p141
F1
sVhither
p142
F1
sVfollowed
p143
F1
sVunbidden
p144
F1
sVmerely
p145
F1
sVapprehensive
p146
F1
sVerected
p147
F1
sVbrought
p148
F1
sVnames
p149
F1
sVlily;
p150
F1
sVtemple's
p151
F1
sVmarble.
p152
F1
sVglance
p153
F2
sVbetokened
p154
F1
sVdeeming
p155
F1
sVstanding
p156
F2
sVfrom
p157
F8
sVestate
p158
F1
sVwould
p159
F9
sVanswered
p160
F1
sVbury
p161
F1
sVgive
p162
F1
sVforrester,
p163
F5
sVtwo
p164
F3
sVforrester.
p165
F1
sVthrow
p166
F1
sVfew
p167
F1
sVethereal
p168
F1
sVcall
p169
F1
sVcentre
p170
F1
sVlaid.
p171
F1
sVtaken
p172
F2
sVbliss
p173
F1
sVthemselves
p174
F3
sVtype
p175
F1
sVposterity."
p176
F1
sVmore
p177
F6
sVlilias,
p178
F1
sVmausoleum,
p179
F1
sVthrew
p180
F1
sVpt/pageturner.pl?id=eaf437&image=437-002.jpg)
p181
F1
sVimpress
p182
F1
sVsorrow.
p183
F1
sVit
p184
F19
sVgrief
p185
F1
sVdeath-shrieks
p186
F1
sVdismal
p187
F5
sVmaiden's
p188
F1
sVbroke
p189
F1
sVcontinual
p190
F2
sVmerrily.
p191
F1
sVmidst
p192
F1
sVhold
p193
F1
sVmirth.
p194
F1
sVmoulded
p195
F1
sVglad
p196
F1
sVmust
p197
F1
sVwalled
p198
F1
sVparable
p199
F1
sVbrows.
p200
F3
sVword
p201
F1
sVdreadful
p202
F1
sVthis
p203
F14
sVprayed
p204
F1
sVwork
p205
F1
sVsoul
p206
F1
sVslab
p207
F3
sVarm,
p208
F1
sVlightsome
p209
F2
sVsweeter
p210
F1
sVsuffering,
p211
F1
sVgrowing
p212
F3
sVmaking
p213
F1
sVfancied
p214
F1
sVscatter
p215
F1
sVshook
p216
F1
sVbeautiful
p217
F1
sVtype,
p218
F1
sVsun-set
p219
F1
sV`what
p220
F1
sVfigure
p221
F4
sVjoyous
p222
F2
sVfar,
p223
F1
sVhousehold
p224
F1
sVinscrutable
p225
F1
sV306.
p226
F1
sVshattered
p227
F1
sVheard
p228
F1
sVslender
p229
F1
sVsense
p230
F1
sVbones
p231
F1
sVcharm,
p232
F1
sVsimple
p233
F1
sVabsolute
p234
F1
sVblighted.'
p235
F1
sVstricken
p236
F1
sVsong
p237
F1
sVpoetry
p238
F2
sVfortunate
p239
F1
sVfar
p240
F1
sVdark-clad
p241
F1
sVinfluences
p242
F1
sVanswer
p243
F1
sVstones,
p244
F1
sVcase.
p245
F1
sVcreature
p246
F2
sVsimplicity
p247
F1
sVexhaling
p248
F1
sVtemple?'
p249
F2
sVmay
p250
F1
sVafter
p251
F2
sVspot
p252
F7
sVaround,
p253
F1
sVwrong
p254
F1
sV`here,
p255
F2
sVecho
p256
F1
sVpause,
p257
F1
sVsuch
p258
F5
sVpall,
p259
F1
sVunutterable
p260
F1
sVportal,
p261
F1
sVman
p262
F6
sVa
F85
sVpale.
p263
F1
sVomen
p264
F1
sVamid
p265
F1
sVpurpose;
p266
F1
sVwherever
p267
F1
sVor
p268
F3
sVdeserted
p269
F1
sVchief
p270
F2
sVtomb,
p271
F2
sVso
p272
F13
sVglancing
p273
F1
sVrocky
p274
F1
sVmusic,
p275
F1
sVglided
p276
F1
sVit.'
p277
F1
sVfay's
p278
F1
sVremnants
p279
F1
sVarms
p280
F1
sVhand,
p281
F1
sVindeed
p282
F2
sVover
p283
F3
sVsoon
p284
F2
sVyears
p285
F1
sVthrough
p286
F4
sVbrim
p287
F1
sVdown.
p288
F1
sVsweet;
p289
F1
sVstill
p290
F4
sVavenue
p291
F1
sVits
p292
F12
sVgascoigne
p293
F3
sVglen
p294
F1
sVsome
p295
F5
sVgroup
p296
F1
sVfit
p297
F1
sVbrook
p298
F1
sVauditors
p299
F1
sVblackened
p300
F1
sVbetter
p301
F1
sVstrange
p302
F2
sVwhole
p303
F1
sVdead,
p304
F1
sVhands?'
p305
F1
sVmight
p306
F5
sVrelapsed
p307
F1
sVworld,
p308
F3
sVhappened
p309
F1
sVit.
p310
F1
sVthen
p311
F2
sVhappened.
p312
F1
sVpure
p313
F2
sVseeking
p314
F1
sVdied
p315
F1
sVpt/pageturner.pl?id=eaf437&image=437bcov.jpg)
p316
F1
sVindeed!'
p317
F1
sVye
p318
F1
sVpt/pageturner.pl?id=eaf437&image=437fcov.jpg)
p319
F1
sVanticipated
p320
F1
sVpt/pageturner.pl?id=eaf437&image=437-007.jpg)
p321
F1
sVlifeless,
p322
F1
sVthey
p323
F25
sVhands
p324
F1
sVfront
p325
F2
sVone
p326
F6
sVflee
p327
F1
sVday
p328
F2
sVnor
p329
F1
sVpossess
p330
F1
sVshadows
p331
F3
sVgloom
p332
F1
sVprecipices,
p333
F1
sVname
p334
F2
sVbrightness
p335
F1
sVfay.'
p336
F1
sValways
p337
F2
sVleast,
p338
F1
sVform,
p339
F1
sVdelightful
p340
F2
sVmurmured
p341
F1
sVhastened
p342
F1
sVeach
p343
F2
sVfound
p344
F7
sVfairy
p345
F1
sVside
p346
F1
sVglance,
p347
F1
sVheavy
p348
F1
sVjust
p349
F2
sVanother
p350
F1
sVcrevices,
p351
F1
sVsoothingly---`spots
p352
F1
sVloathsome,
p353
F1
sVaffliction
p354
F2
sVidea
p355
F1
sVhouse,
p356
F1
sVlessening
p357
F1
sVfrowned;
p358
F1
sVbooks
p359
F1
sVfarewell
p360
F1
sVconnect
p361
F1
sVour
p362
F10
sVgirl
p363
F1
sVout
p364
F3
sVliving
p365
F1
sVlovers
p366
F7
sVvelvet
p367
F1
sVgladdened
p368
F1
sVintercourse
p369
F1
sVspace
p370
F1
sVmorning,
p371
F1
sVtried
p372
F1
sVsurrounded
p373
F1
sVwashed
p374
F1
sVpt/pageturner.pl?id=eaf437&image=437-012.jpg)
p375
F1
sVthrill
p376
F1
sVtime,
p377
F2
sVday,
p378
F1
sVappointed
p379
F1
sVsad,'
p380
F1
sVforth
p381
F2
sVpair,
p382
F1
sVfoundation
p383
F1
sVdwelt
p384
F2
sVivied
p385
F1
sVpleasant
p386
F1
sVinscribed
p387
F1
sVovershadowing
p388
F1
sVwoe,
p389
F3
sVmistress
p390
F1
sVhand
p391
F4
sVguest
p392
F1
sVthrown
p393
F2
sVshrubbery
p394
F1
sVsepulchre,
p395
F1
sVfantasy.
p396
F1
sVedifice,
p397
F1
sVcould
p398
F4
sVtale
p399
F1
sVlunatic
p400
F1
sVthrowing
p401
F1
sVthing
p402
F1
sVlabored
p403
F1
sVplace
p404
F2
sVtale,
p405
F1
sVmortal
p406
F1
sVbliss,
p407
F1
sVfallen
p408
F1
sVtoken
p409
F1
sVarose
p410
F1
sVmaddened
p411
F1
sValready
p412
F1
sVlovers,
p413
F2
sVrooted
p414
F1
sVpt/pageturner.pl?id=eaf437&image=437-008.jpg)
p415
F1
sVtoo,
p416
F1
sVtreasure.
p417
F1
sVbut,
p418
F2
sVthis?'
p419
F1
sVmerrily
p420
F1
sVconsecrate
p421
F1
sVspots
p422
F1
sVdelicious
p423
F1
sVblank
p424
F1
sVreached
p425
F2
sVhas
p426
F3
sVlittle
p427
F3
sVancient
p428
F2
sVfair
p429
F1
sVspurned
p430
F1
sVforrester
p431
F6
sVblossom
p432
F3
sVleading
p433
F1
sVher,
p434
F1
sVgirls
p435
F1
sVlamentable
p436
F1
sVinsanity,
p437
F1
sVtheir
p438
F30
sVgossamer,
p439
F1
sVblood,'
p440
F1
sVtoo
p441
F1
sVbehind,
p442
F1
sVairy
p443
F1
sVwhite
p444
F1
sVhundred
p445
F1
sVfruit;
p446
F1
sVeyes
p447
F2
sVtreasured
p448
F1
sVon,
p449
F1
sVthat
p450
F33
sVsweet
p451
F2
sVfloor,
p452
F2
sVdreary
p453
F2
sVsnatch
p454
F1
sVinarticulate
p455
F1
sVmystery
p456
F1
sVstreamlet,
p457
F1
sVsomewhat
p458
F1
sVdwell
p459
F1
sVloving
p460
F1
sVinestimable
p461
F1
sVflowers
p462
F1
sVpt/pageturner.pl?id=eaf437&image=437spin.jpg)
p463
F1
sVthan
p464
F7
sVwide
p465
F1
sVlunatic,
p466
F1
sVstructure,
p467
F1
sVearth;
p468
F1
sVacted;
p469
F1
sVfell.
p470
F1
sVretreat,
p471
F1
sVripple,
p472
F1
sVexclaimed
p473
F2
sVguilt
p474
F1
sVwere
p475
F11
sVhousehold;
p476
F1
sVpoisoning
p477
F1
sVpossessed
p478
F1
sVearth,
p479
F3
sVand
p480
F98
sVindescribable
p481
F1
sVdark-veined
p482
F3
sVran
p483
F1
sValas,
p484
F1
sVturned
p485
F1
sVwaft
p486
F1
sVsad
p487
F2
sVgentle
p488
F1
sVhimself
p489
F1
sVmanner
p490
F1
sVhave
p491
F5
sVflitted
p492
F1
sVtake
p493
F1
sVblissful
p494
F1
sVseek
p495
F3
sVany
p496
F2
sVsat
p497
F1
sVopened
p498
F1
sVpurple,
p499
F1
sVclung
p500
F1
sVbuilt
p501
F3
sVdo,
p502
F1
sVsomething
p503
F1
sVvale!'
p504
F1
sVmourners
p505
F2
sV-
F18
sVbuild
p506
F6
sVwhich
p507
F21
sVgreen
p508
F2
sVyours!'
p509
F1
sVlily
p510
F8
sVspoke,
p511
F2
sV305.
p512
F1
sVeven
p513
F3
sVtowards
p514
F3
sV297.
p515
F1
sVthough
p516
F2
sV`this
p517
F2
sVknew
p518
F2
sVinsanity
p519
F1
sVvoice,
p520
F1
sVafternoon,
p521
F1
sVsee!'
p522
F1
sVviolet,
p523
F1
sVstood
p524
F2
sV]
F18
sVwhy
p525
F1
sVmanifested
p526
F1
sVmalignity
p527
F1
sVdoubted,
p528
F1
sVwreathed
p529
F1
sVsometimes
p530
F1
sVcover
p531
F1
sVface
p532
F1
sVlooked
p533
F4
sVgiving
p534
F1
sV`why
p535
F1
sVfuneral
p536
F1
sVlink
p537
F18
sVtrembled
p538
F1
sVpt/pageturner.pl?id=eaf437&image=437-006.jpg)
p539
F1
sVstalked
p540
F1
sVstream,
p541
F1
sVplayfellow,
p542
F1
sVgold
p543
F1
sVfollowed,
p544
F1
sVedifice
p545
F1
sVscattered
p546
F1
sVnew-born
p547
F1
sVfingers
p548
F1
sVbright
p549
F1
sVray
p550
F1
sVearth
p551
F1
sVmelody
p552
F1
sVkinsman.
p553
F1
sVimagined
p554
F1
sVfind
p555
F3
sVarms,
p556
F1
sVchanced
p557
F1
sVdue
p558
F1
sVsmiled,
p559
F1
sV`shall
p560
F1
sVwrapt
p561
F1
sV302.
p562
F1
sVfiction,
p563
F1
sVstained
p564
F1
sVfolded
p565
F1
sVcloak
p566
F3
sVdemeanor,
p567
F1
sVshould
p568
F5
sVwinged
p569
F1
sVmind.
p570
F1
sVblack
p571
F1
sVcentral
p572
F1
sVpretty
p573
F1
sVdreamed
p574
F1
sVunsuited
p575
F1
sVcircle
p576
F1
sVthey,
p577
F1
sVknoll,
p578
F2
sVpointed
p579
F1
sVhope
p580
F2
sV`not
p581
F1
sVmeant
p582
F1
sVhis
p583
F25
sVheaven,
p584
F1
sVloved
p585
F1
sVbabble
p586
F1
sVfamiliar
p587
F1
sVsunny
p588
F1
sVvisage,
p589
F1
sVpart
p590
F1
sVnext
p591
F1
sVlo!
p592
F1
sVspirit
p593
F2
sVintermingled
p594
F1
sV`joy!
p595
F1
sVrite
p596
F1
sVfragile,
p597
F2
sVgray
p598
F1
sVfriends;
p599
F1
sVsky,
p600
F1
sVpleasures
p601
F1
sVlover's
p602
F1
sVthem;
p603
F2
sV`ye
p604
F1
sVwatched
p605
F2
sVsky;
p606
F1
sVpriest
p607
F1
sVshe
p608
F5
sVthem.
p609
F1
sV`yet
p610
F1
sVthem,
p611
F3
sVwhere
p612
F7
sVvictim's
p613
F1
sVgenerations
p614
F1
sVapologue.
p615
F1
sVset
p616
F2
sVmiserably
p617
F1
sVspontaneously.
p618
F1
sVworld,'
p619
F1
sVelsewhere,
p620
F1
sVup
p621
F2
sVrelative
p622
F1
sVsee
p623
F1
sVare
p624
F1
sVinvisible.
p625
F1
sVheavenward.
p626
F1
sVwear,
p627
F1
sVsport
p628
F1
sVjoy!'
p629
F1
sVground,
p630
F2
sVsaid
p631
F11
sVcried,
p632
F1
sVlovelier
p633
F2
sVaway
p634
F2
sVfigure,
p635
F2
sVpaternal
p636
F1
sVdrooping
p637
F2
sVdome;
p638
F1
sVbehind
p639
F3
sVfuture
p640
F1
sVfeatures
p641
F1
sVcloudless
p642
F1
sVsable
p643
F1
sVbetween
p644
F2
sVsorts
p645
F1
sVother's
p646
F1
sVman,
p647
F1
sVacross
p648
F1
sVwe
p649
F6
sVattention
p650
F1
sVbrink
p651
F1
sVdeemed
p652
F2
sVjoy
p653
F4
sVsorrow
p654
F1
sVlover
p655
F1
sVdome
p656
F1
sVprayer;
p657
F1
sVvanishing
p658
F1
sVdeath
p659
F1
sVromance;
p660
F1
sVglimmered
p661
F1
sVpilgrims
p662
F2
sVgarden
p663
F1
sVdrooped
p664
F1
sVreceived
p665
F1
sVdisport
p666
F1
sVlast
p667
F1
sVchild!'
p668
F1
sVvision
p669
F1
sVmany
p670
F1
sVpriestess
p671
F1
sVminds
p672
F1
sVmurderer's
p673
F1
sVstrains
p674
F1
sVjoy.
p675
F1
sVplanned
p676
F3
sVjoy,
p677
F2
sV`have
p678
F1
sVwest;
p679
F1
sVspirit,
p680
F1
sVtinge
p681
F2
sVasked
p682
F1
sVamong
p683
F4
sVafterwards
p684
F1
sVstream
p685
F2
sVbearing
p686
F1
sVthen,'
p687
F1
sVburthen
p688
F2
sV300.
p689
F1
sVwhatever
p690
F1
sVbosom
p691
F1
sVcried
p692
F3
sVhappiness!
p693
F1
sVtogether,
p694
F2
sVgloomiest
p695
F1
sVthere,
p696
F2
sVhappiness?
p697
F1
sVthere.
p698
F5
sVgrave
p699
F2
sVthree
p700
F1
sVbeen
p701
F10
sVdell,
p702
F1
sVlured
p703
F1
sVwherein
p704
F1
sVrepeating,
p705
F1
sVlovely
p706
F1
sVhardly
p707
F1
sVwonder!
p708
F1
sVdelights
p709
F1
sVwalter
p710
F4
sVresting
p711
F1
sVlife
p712
F2
sV[page
p713
F18
sVweary,
p714
F1
sVso,'
p715
F1
sVsunshine
p716
F4
sVdelicate,
p717
F1
sVconvert
p718
F1
sVsubstance
p719
F1
sVexternal
p720
F18
sVfoam,
p721
F1
sVchild
p722
F1
sVchurch,
p723
F1
sVmarble,
p724
F2
sVformer
p725
F2
sVthose
p726
F4
sVchill
p727
F1
sVprospect
p728
F1
sVsave
p729
F2
sVlook
p730
F1
sVart;
p731
F1
sV`and
p732
F4
sVlife;
p733
F1
sVearth's
p734
F1
sVdream.'
p735
F1
sVwill
p736
F3
sVcast
p737
F1
sVwhile
p738
F4
sVwords,
p739
F1
sVought
p740
F1
sVleaning
p741
F1
sVwild
p742
F2
sVvoice
p743
F2
sVworship,
p744
F1
sVsombre
p745
F2
sVburied
p746
F1
sVstain;
p747
F1
sVago,
p748
F1
sValmost
p749
F4
sVdissent
p750
F1
sVis
p751
F4
sVtrees,
p752
F2
sVsad,
p753
F1
sVsite
p754
F6
sVedge.
p755
F2
sVquiet
p756
F1
sVcluster
p757
F1
sVregularity
p758
F1
sVitself
p759
F1
sVquestion?'
p760
F1
sVones.
p761
F1
sVin
p762
F38
sVtemple!'
p763
F1
sVseem
p764
F1
sVmusic
p765
F1
sVif
p766
F5
sVearth---has
p767
F1
sVaway,
p768
F2
sVsince
p769
F1
sVheart,
p770
F2
sVperhaps
p771
F1
sVsaw
p772
F1
sVmake
p773
F3
sVfling
p774
F1
sVsame
p775
F1
sVwood-lands,
p776
F1
sV`methinks
p777
F1
sV`let
p778
F1
sVfoot-print
p779
F1
sVdigging
p780
F1
sVblight
p781
F2
sVgift
p782
F1
sVpassed,
p783
F1
sVgardens,
p784
F1
sV`on
p785
F1
sVstrips
p786
F1
sVstrewn.
p787
F1
sVeternity!'
p788
F1
sVhere,
p789
F5
sVupon
p790
F7
sVevil
p791
F2
sVcompanion
p792
F1
sVdelight
p793
F1
sVancestors
p794
F1
sVportal
p795
F2
sVpurpose
p796
F3
sVintended
p797
F1
sValong
p798
F1
sVparadise.
p799
F1
sVtradition
p800
F1
sValas!
p801
F1
sVlower
p802
F1
sVshaded
p803
F1
sVpt/pageturner.pl?id=eaf437&image=437-005.jpg)
p804
F1
sVmother's
p805
F1
sVadapted
p806
F1
sVfireside,
p807
F1
sVcheek
p808
F1
sVwell
p809
F3
sVbreezy
p810
F1
sVyet,
p811
F1
sVbreeze
p812
F1
sVappertain
p813
F1
sVmother
p814
F1
sVhearts
p815
F1
sVthe
p816
F152
sVcould;
p817
F1
sVleft
p818
F1
sVsummer
p819
F3
sVfeet;
p820
F1
sVdesolate
p821
F1
sVproposed
p822
F1
sVlily,
p823
F3
sVbeing
p824
F5
sVrambled
p825
F1
sVhopes?---there
p826
F1
sVnot
p827
F7
sVshape
p828
F4
sVdistant
p829
F1
sVhuman
p830
F2
sVfeet.
p831
F1
sVhow---not,
p832
F1
sVyet
p833
F4
sVhappiness
p834
F2
sV`ah!
p835
F1
sVwonder,
p836
F1
sVhappiness.
p837
F3
sVnow
p838
F4
sVdearer
p839
F1
sVonward
p840
F2
sVhad
p841
F42
sVlake
p842
F1
sV304.
p843
F1
sVshape,
p844
F1
sVpillars
p845
F1
sVappeared
p846
F2
sVdesecrate
p847
F2
sVundistinguished
p848
F1
sVrear
p849
F1
sVinnocent
p850
F1
sVdome,
p851
F2
sVmansion,
p852
F2
sV\u005c-
p853
F18
sVhat
p854
F1
sVwoful
p855
F1
sVgave
p856
F1
sVwont
p857
F2
sVlonger,
p858
F1
sVago.
p859
F1
sVaround
p860
F1
sVread
p861
F1
sVprecincts
p862
F1
sVpossible
p863
F1
sVquest
p864
F1
sVknow
p865
F1
sVbirth
p866
F1
sVneighborhood,
p867
F1
sVworld
p868
F1
sVshadow
p869
F3
sVbloody
p870
F1
sVvague
p871
F1
sVdreams
p872
F1
sVprominent
p873
F1
sVshrine;
p874
F1
sVlike
p875
F6
sVthroat;
p876
F1
sVcheerily
p877
F1
sVpaused.
p878
F1
sV`well,
p879
F1
sVeither
p880
F1
sV299.
p881
F1
sVall.
p882
F1
sVwoman,
p883
F1
sVreader.
p884
F1
sVspectacle,
p885
F1
sVpage
p886
F10
sVlilias
p887
F11
sVantique
p888
F2
sVbecause
p889
F1
sVold
p890
F13
sVoften
p891
F2
sVpeople
p892
F1
sVit,
p893
F2
sVspot!'
p894
F1
sVchurch
p895
F1
sVpt/pageturner.pl?id=eaf437&image=437edgb.jpg)
p896
F1
sVback
p897
F2
sVdead
p898
F1
sVvaulted
p899
F1
sVbeheld
p900
F1
sVgrowth
p901
F1
sVtemple---but
p902
F1
sVproper
p903
F1
sVfaint
p904
F1
sVpale
p905
F1
sVfestivals
p906
F1
sVforgotten
p907
F2
sVbefore,
p908
F1
sVembodied
p909
F1
sVheaven's
p910
F1
sVagain,
p911
F1
sVfor
p912
F18
sVbottom
p913
F1
sVbroad
p914
F1
sVshall
p915
F4
sVsunshine,
p916
F2
sV303.
p917
F1
sVsunshine.
p918
F1
sVnook
p919
F1
sVtemple
p920
F12
sVvistas
p921
F1
sVbe
p922
F8
sVwho
p923
F4
sVstaff,
p924
F1
sVslight
p925
F1
sVshe.
p926
F1
sVassociate,
p927
F1
sVflower,
p928
F1
sVmurdered
p929
F1
sVdedication.
p930
F1
sVpt/pageturner.pl?id=eaf437&image=437-003.jpg)
p931
F1
sVday-dreams
p932
F1
sValthough
p933
F1
sVbeyond,
p934
F1
sVroaming
p935
F1
sVkneeling
p936
F1
sVby
p937
F9
sV`where
p938
F3
sVpt/pageturner.pl?id=eaf437&image=eaf-001.jpg)
p939
F1
sVon
p940
F18
sVseeking,
p941
F1
sV301.
p942
F1
sVof
p943
F110
sVaccepted
p944
F1
sVpt/pageturner.pl?id=eaf437&image=437-010.jpg)
p945
F1
sVhere.'
p946
F1
sVfell
p947
F1
sVcompanion,
p948
F2
sVstand
p949
F1
sVcompanion.
p950
F1
sVtogether
p951
F1
sVtomb
p952
F1
sVother
p953
F1
sVyouthful
p954
F1
sVsternly,
p955
F1
sVgladsome
p956
F1
sVown
p957
F1
sVpresence
p958
F1
sVfrowned
p959
F1
sVinto
p960
F7
sVglimmering
p961
F1
sVdown
p962
F3
sVnothing
p963
F2
sVhaunt,
p964
F1
sVpedestal,
p965
F1
sVrefined
p966
F1
sVhappening
p967
F1
sVfantasy
p968
F1
sVyour
p969
F2
sVstrangely
p970
F1
sV`poor
p971
F1
sVbeneath
p972
F3
sVher
p973
F18
sVinfant,
p974
F1
sVgleam
p975
F2
sVthere
p976
F11
sVshort---for
p977
F1
sVlong
p978
F6
sVpt/pageturner.pl?id=eaf437&image=437edgf.jpg)
p979
F1
sVvirgin
p980
F1
sVpt/pageturner.pl?id=eaf437&image=437-001.jpg)
p981
F1
sVmillions?
p982
F1
sVelms,
p983
F1
sVstructure
p984
F1
sVway
p985
F1
sVplace,
p986
F1
sVwas
p987
F34
sVhappy
p988
F1
sVhead
p989
F3
sVpt/pageturner.pl?id=eaf437&image=437-011.jpg)
p990
F1
sVcascade.
p991
F1
sVpt/pageturner.pl?id=eaf437&image=437-004.jpg)
p992
F1
sVform
p993
F4
sVenough
p994
F2
sVdays,
p995
F1
sVmagnificent
p996
F1
sVpleased
p997
F1
sVso,
p998
F1
sVbut
p999
F12
sVso.
p1000
F1
sVerrand.
p1001
F1
sVrepeated
p1002
F1
sVlowered
p1003
F1
sVhear
p1004
F1
sVanother.
p1005
F2
sVanother,
p1006
F1
sVhopes
p1007
F1
sVhappier
p1008
F1
sVwith
p1009
F26
sVhe
p1010
F15
sVmade
p1011
F3
sVglory
p1012
F1
sVmortals
p1013
F1
sVwhether
p1014
F1
sVflit
p1015
F1
sVancestral
p1016
F1
sVor,
p1017
F1
sVus
p1018
F1
sVcorpses
p1019
F1
sVspot,
p1020
F4
sVspot.
p1021
F2
sVmeet
p1022
F1
sVfaded
p1023
F1
sVeyes,
p1024
F1
sVfear;
p1025
F1
sVprofusion
p1026
F1
sVgone
p1027
F1
sVside,
p1028
F1
sVwords;
p1029
F1
sVhill,
p1030
F1
sVand,
p1031
F1
sVcertain
p1032
F1
sVheart-broken
p1033
F1
sVpast.
p1034
F1
sVdeep
p1035
F3
sVan
p1036
F10
sVarms.
p1037
F1
sVwhispering,
p1038
F1
sVas
p1039
F27
sVhearers
p1040
F1
sVgrief,
p1041
F1
sVat
p1042
F8
sVpillars,
p1043
F1
sVgraceful
p1044
F1
sVcoffin,
p1045
F1
sVlife-time,'
p1046
F1
sVtaunting
p1047
F1
sVgloomier
p1048
F1
sVsince,
p1049
F1
sVagain
p1050
F1
sV`we
p1051
F3
sV`you
p1052
F1
sVpensive
p1053
F1
sVno
p1054
F9
sVwhen
p1055
F3
sVthither
p1056
F1
sVuttered
p1057
F1
sVroses
p1058
F1
sVsetting
p1059
F2
sVears,'
p1060
F1
sVyou
p1061
F2
sVmind,
p1062
F1
sVenjoyments.
p1063
F1
sVassociate!
p1064
F1
sVspot.'
p1065
F1
sVindeed,
p1066
F1
sVshelter
p1067
F1
sVsymbol
p1068
F1
sVfelt
p1069
F2
sVfaintly
p1070
F1
sVpage.
p1071
F1
sVcover.
p1072
F2
sVitself,
p1073
F1
sVearthly
p1074
F4
sVbreathed
p1075
F1
sVsorrow,
p1076
F1
sVhere,'
p1077
F1
sVmood
p1078
F1
sVgascoigne,
p1079
F3
sVramble
p1080
F1
sVgascoigne.
p1081
F1
sVbestowed
p1082
F1
sVevening,
p1083
F1
sVadam's
p1084
F1
sVtime;
p1085
F1
sVdarksome
p1086
F1
sVdaily
p1087
F1
sVnow,
p1088
F1
sVsummit
p1089
F2
sVadam
p1090
F12
sVtime
p1091
F3
sValone.
p1092
F1
sVreceive
p1093
F1
sVonce
p1094
F2
s.