ccollections
defaultdict
p1
(c__builtin__
float
p2
tRp3
Vrepresent
p4
F3
sVall
p5
F15
sVmanagers.
p6
F1
sVconsider
p7
F1
sVworld",
p8
F1
sVhunchback",
p9
F2
sVprivilege;---and
p10
F1
sVleads
p11
F1
sVsunk
p12
F1
sVmanager
p13
F1
sVflorence"
p14
F1
sVabundant
p15
F3
sVreligious
p16
F1
sV(which
p17
F1
sVcauses
p18
F4
sVseemed
p19
F2
sVvenice
p20
F1
sVshakspeare
p21
F3
sVcentres
p22
F1
sVmonopoly,
p23
F1
sVdaring
p24
F1
sVwhite
p25
F1
sVyoung
p26
F1
sVremoval
p27
F1
sVto
p28
F58
sVfinally
p29
F1
sVthose
p30
F2
sVposition,
p31
F1
sVpropriety
p32
F1
sVinclude
p33
F1
sVparliament,
p34
F1
sVdramatically
p35
F1
sVill-ventilated
p36
F1
sVmerchant
p37
F1
sVapplied
p38
F1
sVsupported
p39
F1
sVgarden
p40
F1
sVdeeper
p41
F1
sVwar",
p42
F1
sVvery
p43
F6
sVrise
p44
F1
sVeli
p45
F1
sVinduce
p46
F1
sVcandid
p47
F2
sVevery
p48
F5
sVinvent
p49
F1
sVtelling
p50
F1
sVbubbles
p51
F1
sVabundance,
p52
F1
sVcondition
p53
F2
sVsuccessful,
p54
F1
sVprofligacy
p55
F1
sVpoor.
p56
F1
sVdid
p57
F1
sVturns
p58
F1
sVconceive
p59
F1
sVdramas.
p60
F1
sVfewer
p61
F2
sVdramas,
p62
F3
sVhamlet,
p63
F1
sVself-styled
p64
F1
sVclergy,
p65
F1
sVgraces
p66
F1
sVenjoy
p67
F1
sVdisclose
p68
F1
sVappear,
p69
F1
sVpeele,
p70
F1
sVpantomime,
p71
F1
sVdirection.
p72
F1
sVten
p73
F1
sVother,
p74
F1
sVencroachment
p75
F1
sVmidsummer
p76
F1
sVhour.
p77
F1
sVhour,
p78
F1
sV---and
p79
F1
sVsecond
p80
F1
sVrent
p81
F1
sVcharitable.
p82
F1
sVsustaining
p83
F1
sVhonors
p84
F1
sVeven
p85
F5
sVwhat
p86
F3
sV"masks
p87
F1
sVplays
p88
F10
sVstands
p89
F1
sVgiving
p90
F1
sVsection
p91
F2
sVenjoyed
p92
F1
sVunderstood.
p93
F1
sVgreene,
p94
F1
sVnew
p95
F2
sVfalling
p96
F1
sV"religious
p97
F8
sVever
p98
F1
sVpublic
p99
F10
sVtold
p100
F1
sVscenery
p101
F1
sVacted.
p102
F1
sVnever
p103
F3
sVavailed
p104
F1
sVhere
p105
F4
sVexigencies.
p106
F1
sVobjects
p107
F2
sVlet
p108
F2
sVothers
p109
F1
sVpath
p110
F1
sVstrong
p111
F2
sV"leading
p112
F1
sVlegend
p113
F1
sVchange
p114
F1
sVseek,
p115
F1
sVgreat
p116
F5
sVbible
p117
F1
sVtalent
p118
F1
sVthirty
p119
F2
sVbrilliant
p120
F2
sVstudied
p121
F1
sVstep
p122
F1
sVcritics,---when
p123
F1
sVpieces.
p124
F1
sVworks---works
p125
F1
sVhere,
p126
F1
sVhistory
p127
F1
sVexeter
p128
F1
sVlove
p129
F2
sVdivide
p130
F1
sVstrolling
p131
F1
sVmerely
p132
F1
sVdecorations,
p133
F1
sVdeals
p134
F1
sVnatural
p135
F2
sVapt
p136
F1
sVpsychological
p137
F1
sVpublic.
p138
F1
sVwit
p139
F2
sVpopular,
p140
F1
sVsinging
p141
F2
sVstory,
p142
F1
sVprotest
p143
F1
sVfive.
p144
F1
sVfrom
p145
F9
sVwould
p146
F8
sVfailed
p147
F1
sVremains
p148
F1
sVgive
p149
F1
sVreadable
p150
F1
sVtwo
p151
F5
sVfrance
p152
F1
sVfew
p153
F3
sVcultivation
p154
F1
sVmusic
p155
F1
sVtherefore
p156
F2
sVvehicle
p157
F1
sVindistinguishable
p158
F1
sVthemselves
p159
F1
sVsacred,
p160
F1
sVtype
p161
F1
sVaction---it
p162
F1
sVmore
p163
F14
sVtreated
p164
F1
sVcontrary;
p165
F1
sVexasperating
p166
F1
sVsuccessful
p167
F2
sVname,
p168
F1
sVdeclaims
p169
F1
sVaware
p170
F1
sVvirtue
p171
F1
sVemployed
p172
F1
sVrare
p173
F1
sVgiven
p174
F1
sVmust
p175
F2
sVtown
p176
F1
sVand,
p177
F1
sVhistories---to
p178
F1
sVsociety,
p179
F1
sVthis
p180
F18
sVindifference
p181
F2
sVwork
p182
F4
sVincidents
p183
F1
sVsubterfuge
p184
F1
sVlearn
p185
F1
sVgrowing
p186
F3
sVmeet
p187
F1
sVdispute
p188
F1
sVperformed
p189
F2
sVcontrol
p190
F1
sVbent
p191
F1
sVrepresentation,
p192
F1
sVdramatists.
p193
F1
sVpieces
p194
F1
sVsupremacy
p195
F2
sVheard
p196
F1
sVcritic
p197
F1
sVthird,
p198
F1
sVhours,
p199
F1
sVhigh.
p200
F1
sVsought
p201
F1
sVsituation---there
p202
F1
sVindifferent
p203
F3
sVmelodramas.
p204
F1
sVrescue
p205
F1
sVclass.
p206
F1
sVprovincial
p207
F1
sVballet,
p208
F1
sVdramatist.
p209
F1
sVsinful,
p210
F3
sVfarce
p211
F1
sVsix
p212
F1
sVpoetry
p213
F3
sVspecies
p214
F1
sVfar
p215
F2
sVstupidity
p216
F1
sVsacred
p217
F1
sVcompanies,
p218
F1
sVinstead
p219
F4
sVordinary
p220
F2
sVcomedy
p221
F2
sVstir
p222
F1
sVstand
p223
F2
sVacknowledging
p224
F1
sVintended
p225
F1
sVdramatists
p226
F2
sVmay
p227
F7
sVgenius.
p228
F2
sVlyons"---three
p229
F1
sVforty.
p230
F1
sVpermanent
p231
F1
sVproduce
p232
F3
sVthirty-seven
p233
F1
sVmen
p234
F1
sVsuch
p235
F7
sVproclaimed
p236
F1
sVfletcher;
p237
F1
sVa
F58
sVshort
p238
F1
sVattempt
p239
F1
sVtogether
p240
F1
sVunbelief".
p241
F1
sVcoat
p242
F1
sVamuse
p243
F1
sVlife
p244
F1
sVor
p245
F16
sVperform
p246
F3
sVchief
p247
F2
sVgloomy
p248
F1
sVso
p249
F8
sVthings
p250
F2
sVrepresentation
p251
F2
sVoperate
p252
F1
sVorder
p253
F1
sVsinful);
p254
F1
sVacts
p255
F2
sVhand,
p256
F1
sVover
p257
F2
sVbeaumont
p258
F2
sVmainly
p259
F1
sVtrade
p260
F1
sVproduced
p261
F3
sVmore,
p262
F1
sVown
p263
F1
sVlondon
p264
F1
sVsame
p265
F1
sVscott,
p266
F1
sVargued
p267
F2
sVstill
p268
F6
sVits
p269
F6
sVtendency
p270
F1
sVthen,
p271
F1
sVhow
p272
F1
sVchosen
p273
F3
sVimportant.
p274
F1
sV,
F1
sVforms
p275
F2
sVaudiences,
p276
F1
sVproduction
p277
F1
sVvast
p278
F1
sVmain
p279
F1
sVmight
p280
F2
sVprose,
p281
F1
sVimportant;
p282
F1
sVit.
p283
F2
sVthen
p284
F3
sVit,
p285
F2
sVgood
p286
F4
sVrecal
p287
F1
sVaccusations
p288
F1
sVcombination
p289
F1
sVseverely
p290
F1
sVprevented
p291
F1
sVweakness
p292
F1
sVmathematician,
p293
F1
sVsooner
p294
F3
sVfollowers,
p295
F1
sVit;
p296
F1
sVthey
p297
F19
sVnot
p298
F18
sVone
p299
F7
sVday
p300
F3
sVnor
p301
F1
sVgreat,
p302
F2
sVrhetoric
p303
F1
sVfirst-rate
p304
F1
sVnight's
p305
F1
sVopera
p306
F1
sValways
p307
F4
sVmarvellous
p308
F1
sVatheism".
p309
F1
sVhabits
p310
F2
sVman
p311
F2
sVentirely
p312
F1
sVtraces
p313
F1
sVconcerts
p314
F1
sVreferred
p315
F2
sVconceiving
p316
F1
sVwearisome
p317
F1
sVengland
p318
F2
sVsuspended
p319
F1
sVdoing
p320
F1
sVslightingly
p321
F1
sVperdition:
p322
F1
sVnevertheless,
p323
F1
sVreader
p324
F1
sV"london
p325
F1
sVour
p326
F4
sVnevertheless;
p327
F1
sVlanguage,
p328
F1
sVthirty;
p329
F1
sVachievement.
p330
F1
sVwitness
p331
F1
sVreally
p332
F1
sVprovinces;
p333
F2
sVbeauty
p334
F1
sVspace
p335
F1
sVsince
p336
F1
sVwholly
p337
F1
sVincrease
p338
F1
sVthus,
p339
F1
sVcondemns
p340
F1
sVis,
p341
F1
sVselection,
p342
F1
sVdresses,
p343
F1
sVcause
p344
F4
sVnothing,
p345
F2
sVhenceforward
p346
F1
sVdancing,
p347
F1
sVinteresting,
p348
F1
sVwritten
p349
F1
sVstory
p350
F4
sVfree
p351
F2
sVpaucity
p352
F1
sVdifficulty
p353
F3
sVreason
p354
F1
sVbesides
p355
F1
sVimagine
p356
F2
sVinevitable
p357
F1
sVheroic
p358
F2
sVcare
p359
F1
sVnightly
p360
F1
sVyour
p361
F1
sVunsound,
p362
F1
sVlanguage
p363
F1
sVenglish
p364
F4
sVdetermining
p365
F1
sVcould
p366
F2
sVdays
p367
F2
sVkeep
p368
F1
sVturn
p369
F1
sVplace
p370
F3
sVtwenty
p371
F1
sVdisapprove.
p372
F1
sVstimulate
p373
F1
sVdramtic
p374
F1
sVwaistcoat,
p375
F1
sVfavorites
p376
F2
sVstriking
p377
F1
sVspoken
p378
F1
sVpowerful
p379
F1
sVbut,
p380
F1
sVencreased
p381
F1
sVexhortation
p382
F1
sVheywood
p383
F1
sVshort,
p384
F1
sVidea
p385
F1
sVlittle
p386
F5
sVbe,
p387
F2
sVscenes.
p388
F1
sVmercilessly
p389
F1
sVst.
p390
F1
sVgarrick
p391
F1
sVflimsy
p392
F1
sVleast
p393
F1
sVtheir
p394
F10
sVassurance",
p395
F1
sVignorant.
p396
F1
sVtragic
p397
F1
sVtwo;
p398
F1
sVpassed
p399
F1
sVmajority
p400
F2
sVhundred
p401
F2
sVgenesis
p402
F1
sVhearing.
p403
F1
sVlisten
p404
F1
sVfifty-three
p405
F1
sVbalck
p406
F1
sVamusements,
p407
F1
sVthat
p408
F34
sVtook
p409
F1
sVrejected
p410
F1
sVburlesque
p411
F2
sVpart
p412
F1
sVauthors
p413
F1
sVshirley
p414
F1
sVpreposterous
p415
F1
sVrepresenting
p416
F2
sVthan
p417
F4
sVkind
p418
F1
sVbadness
p419
F1
sVben
p420
F1
sVbody,
p421
F1
sVdecadence.
p422
F1
sVspecimens
p423
F2
sVchase"
p424
F1
sV"scoffing
p425
F1
sVcovent
p426
F1
sVunmistakable
p427
F1
sVrarity
p428
F1
sVtwenty;
p429
F2
sVto,
p430
F1
sVwere
p431
F15
sVpowers
p432
F1
sVdeclare
p433
F1
sVdeclares
p434
F1
sVand
p435
F92
sVunrestricted.
p436
F1
sVfarce,
p437
F1
sVunhappily
p438
F1
sVremained
p439
F1
sVpitiably
p440
F1
sVmodern
p441
F2
sVages
p442
F1
sVargument
p443
F1
sV(and
p444
F1
sVcathedral.
p445
F1
sVmanner
p446
F1
sVhave
p447
F12
sVspectacle
p448
F1
sVneed
p449
F1
sVseen
p450
F3
sVelement
p451
F1
sVoccupied
p452
F1
sVany
p453
F11
sVengineer's
p454
F1
sVforced
p455
F1
sVromantic,
p456
F1
sVamusement,
p457
F2
sV"virginius",
p458
F1
sVdancing
p459
F1
sVkean---
p460
F1
sVable
p461
F3
sVaside
p462
F1
sVamusing.
p463
F1
sValso
p464
F2
sVideal
p465
F1
sVsubjects
p466
F2
sVtake
p467
F1
sVwhich
p468
F22
sVaccount.
p469
F1
sVprolific:
p470
F1
sVthirty-seven;
p471
F1
sVgreatest
p472
F3
sVthat,
p473
F1
sVplay
p474
F5
sVadded
p475
F1
sVtheatre
p476
F5
sVthough
p477
F1
sVattractiveness
p478
F1
sVobject
p479
F1
sVeducate
p480
F1
sVexercised
p481
F1
sVmost
p482
F9
sVparalysed;
p483
F1
sVworld"
p484
F7
sVmusic,
p485
F1
sVsee,
p486
F1
sVimpossible.
p487
F1
sVclass
p488
F2
sVmorality
p489
F1
sVchase".
p490
F1
sVseize
p491
F1
sVconsidered
p492
F2
sVperformances
p493
F1
sVenthusiastic
p494
F2
sVmassinger
p495
F1
sVmusical
p496
F2
sVperformed.
p497
F1
sVperformed,
p498
F2
sVkilled"
p499
F1
sVnot,
p500
F1
sVlatest
p501
F1
sValone,
p502
F1
sVfact
p503
F5
sValone.
p504
F1
sVimpression
p505
F1
sVthink
p506
F1
sVday",
p507
F2
sVplays,
p508
F1
sVplays.
p509
F2
sVopera,
p510
F1
sVpurely
p511
F1
sVfletcher
p512
F1
sVutter
p513
F1
sVespecially
p514
F1
sVfine
p515
F3
sVfind
p516
F1
sVplays;
p517
F2
sVtrue,
p518
F1
sVfarcical,
p519
F1
sVwith
p520
F11
sVexplain
p521
F1
sVobstinacy
p522
F1
sVpeculiar
p523
F3
sVincessantly
p524
F1
sVonly
p525
F3
sVfield.
p526
F1
sVdrama,
p527
F7
sVrich
p528
F1
sVdrama.
p529
F3
sVattained
p530
F1
sVhenslow
p531
F1
sVhe
p532
F3
sVgrievance.
p533
F1
sVguided
p534
F1
sVseen,
p535
F1
sVemphatically
p536
F1
sVinsight
p537
F1
sVyells
p538
F1
sVget
p539
F1
sVlyons",
p540
F1
sVfamiliar
p541
F1
sVhostility
p542
F1
sVhad---
p543
F1
sVhall,
p544
F1
sVcannot
p545
F2
sVlegitimate
p546
F3
sVduring
p547
F3
sVyears
p548
F1
sVhim
p549
F3
sVencreasing
p550
F2
sVprime
p551
F1
sVinevitable,
p552
F1
sVhumourist
p553
F1
sVcountries
p554
F1
sVenfeeble.
p555
F1
sVseldom
p556
F1
sVspecies.
p557
F3
sVbad
p558
F1
sVpriest
p559
F1
sVthem.
p560
F2
sVthem,
p561
F1
sVwhere
p562
F1
sVwrote
p563
F1
sVsaul
p564
F1
sVset
p565
F1
sVart
p566
F3
sVconcert
p567
F1
sVfair
p568
F1
sVachieved
p569
F1
sV"money",
p570
F1
sVnotice
p571
F1
sVunacted
p572
F4
sVsaul,
p573
F1
sVsee
p574
F3
sVdecided
p575
F1
sVare
p576
F27
sVdiscussions
p577
F1
sVforthcoming
p578
F1
sVshakspeare,
p579
F3
sV"legitimate
p580
F1
sVsubject
p581
F1
sVnature;
p582
F1
sVsaid
p583
F3
sVstudy,
p584
F1
sVbecause,
p585
F1
sVaway
p586
F2
sVshakspeare's
p587
F1
sVrepresentatives
p588
F1
sVequalling
p589
F1
sVgenius
p590
F2
sVenough
p591
F5
sVyears,
p592
F1
sVinjustice
p593
F1
sVyears.
p594
F1
sVprogress
p595
F1
sVoperatic
p596
F3
sVdate,
p597
F1
sVinsinuated
p598
F1
sVdrury
p599
F1
sVwe
p600
F10
sVvarious
p601
F2
sVdiscussion.
p602
F1
sVpowers.
p603
F1
sVsole
p604
F1
sVfaces",
p605
F1
sVhowever
p606
F1
sVunactable
p607
F1
sVpoetical
p608
F6
sVdecline.
p609
F1
sVfrench
p610
F1
sVrarer
p611
F1
sVcompetent
p612
F1
sVdomestically.
p613
F1
sVmelodrama
p614
F1
sV"cymbeline",
p615
F1
sVcondition,
p616
F1
sVlast
p617
F1
sVopponents.
p618
F1
sVnovelty.
p619
F1
sVsuccesses
p620
F1
sVmany
p621
F3
sVreaders
p622
F1
sVagainst
p623
F3
sVmarlowe,
p624
F1
sVprofanation.
p625
F1
sVlogic
p626
F1
sVhowever,
p627
F1
sVargue
p628
F1
sVwhole
p629
F1
sVfinds
p630
F2
sVamong
p631
F1
sVprose
p632
F1
sVwelcomed
p633
F1
sVpoint
p634
F1
sVseems
p635
F1
sVvain
p636
F1
sVbarns,
p637
F1
sVwhatever
p638
F1
sVheight
p639
F1
sVsingers
p640
F1
sVmaintained
p641
F1
sVsimply
p642
F1
sVlearning
p643
F1
sVsense,
p644
F1
sVdrawn,
p645
F1
sVflourishing
p646
F1
sVjonson
p647
F1
sVdomestic---even
p648
F1
sVincomparable
p649
F1
sVrecur
p650
F1
sVeager
p651
F1
sVdramatist
p652
F1
sVsupremacy,
p653
F1
sVbeen
p654
F10
sVchoice,
p655
F1
sVrivals
p656
F1
sVmuch
p657
F1
sVinterest
p658
F1
sVacting,
p659
F2
sVprivilege
p660
F1
sVmacbeth,
p661
F1
sVincompetent
p662
F2
sVcrinoline
p663
F1
sVtyranny
p664
F1
sVdirection
p665
F1
sVsenses
p666
F1
sVsuccess.
p667
F2
sVmind
p668
F1
sVoffered
p669
F1
sVmichal
p670
F1
sVkind:
p671
F1
sVdecline
p672
F3
sVdramatic
p673
F12
sVsuccess?
p674
F1
sVrepresentative
p675
F1
sVdemand
p676
F3
sVgeneral
p677
F2
sVrealities
p678
F1
sVpresent
p679
F2
sVcase
p680
F1
sVsourly
p681
F1
sVthese
p682
F9
sVoratorio,
p683
F1
sVart;
p684
F2
sVbill
p685
F1
sVas
p686
F16
sVwill
p687
F18
sVreplaced
p688
F1
sVcountry
p689
F1
sVlife.
p690
F1
sVlife,
p691
F1
sVart,
p692
F2
sVmistake
p693
F2
sVatrabiliar
p694
F1
sVlarger
p695
F1
sValmost
p696
F4
sVcharacter,
p697
F1
sVis
p698
F44
sVit
p699
F31
sVencouragement
p700
F1
sVreads
p701
F1
sVeighteen
p702
F1
sVelijah,
p703
F1
sVminds
p704
F1
sVin
p705
F56
sVready
p706
F1
sVrequirements.
p707
F1
sVcharacter;
p708
F1
sVif
p709
F6
sVproductivity
p710
F2
sVtheatre.
p711
F1
sVtheatre,
p712
F1
sVpatent
p713
F1
sVlarge
p714
F1
sVmake
p715
F2
sVintrinsic
p716
F1
sVthese,
p717
F1
sVelevated
p718
F1
sVthese.
p719
F1
sV"fortunio"
p720
F1
sVpoetic
p721
F2
sVmasques;
p722
F1
sVseveral
p723
F1
sVliterature,
p724
F2
sVhigher
p725
F1
sVoutside
p726
F1
sVliterature
p727
F3
sVnovels
p728
F1
sVaudience.
p729
F1
sVoblivion,
p730
F1
sVupon
p731
F1
sVdelight
p732
F1
sVmoment
p733
F1
sVauthors,
p734
F1
sVarose
p735
F1
sVcharacters
p736
F1
sVopportunity
p737
F1
sVdrama".
p738
F1
sVinventor,
p739
F1
sVthing;
p740
F1
sVoff
p741
F1
sVfully
p742
F1
sVi
F6
sVwell
p743
F3
sVthought
p744
F1
sVcharity
p745
F1
sVpaul,
p746
F1
sVcommand
p747
F2
sVtheatres,
p748
F3
sVqualities
p749
F2
sVtheatres.
p750
F2
sVtheatres
p751
F4
sVthe
p752
F189
sVpoetry;
p753
F1
sVleft
p754
F1
sVrestore
p755
F1
sVexecration
p756
F1
sVless
p757
F3
sVbeing
p758
F6
sVgermany;
p759
F1
sVdomestic
p760
F6
sVactress
p761
F2
sVfollowed
p762
F1
sVyet
p763
F6
sVactors.
p764
F1
sVmove
p765
F1
sVtolerably
p766
F1
sVnow
p767
F1
sVraised.
p768
F1
sVevolution,
p769
F1
sVconclude
p770
F1
sVhad
p771
F8
sVfitting
p772
F1
sVexclusively
p773
F1
sVsource
p774
F1
sVwork;
p775
F1
sVcombine
p776
F1
sVattractive
p777
F1
sVhas
p778
F9
sVreal
p779
F1
sVdemands
p780
F1
sVdevised
p781
F1
sVrarity,
p782
F1
sVoratorios
p783
F1
sVfive
p784
F4
sVknow
p785
F2
sVlistening
p786
F1
sVvice;
p787
F1
sVprovided
p788
F1
sVamply
p789
F1
sVaccepted
p790
F1
sVlady
p791
F2
sVroom;
p792
F1
sVapart
p793
F1
sVdesire
p794
F3
sVtheatre!
p795
F1
sVordonnance,
p796
F1
sVlike
p797
F2
sVbigotry
p798
F1
sVextremely
p799
F1
sVengland,
p800
F2
sVmiracle
p801
F1
sVengland.
p802
F1
sVdream",
p803
F1
sVaudience
p804
F1
sVcauses;
p805
F1
sVeither
p806
F1
sVnight
p807
F1
sVpopular
p808
F5
sVbecome
p809
F2
sVshudder
p810
F1
sVworks
p811
F3
sVessential
p812
F1
sVmaking
p813
F2
sVworth.
p814
F1
sVbecause
p815
F9
sVold
p816
F2
sVcrowd
p817
F1
sVpeople
p818
F2
sVmagnificent
p819
F2
sVtowards
p820
F1
sVedifying;
p821
F1
sVresound
p822
F1
sVpoet,
p823
F2
sVanother
p824
F1
sVtheatrical
p825
F4
sVpassions
p826
F1
sVfor
p827
F19
sVpale-faced
p828
F1
sVbest
p829
F1
sVdoes
p830
F1
sV"twice
p831
F1
sVorigin.
p832
F1
sVnumbers
p833
F1
sVlowest
p834
F1
sVbe
p835
F27
sVpoets
p836
F2
sVwho
p837
F5
sVtruth
p838
F1
sVpower
p839
F2
sVworks;
p840
F1
sVmassinger,
p841
F1
sVexample,
p842
F1
sVrarer;
p843
F1
sVideal.
p844
F1
sVrefused
p845
F1
sVworks.
p846
F1
sVdisappointed.
p847
F1
sValthough
p848
F2
sVinstinct
p849
F1
sVweakness.
p850
F1
sVpublic,
p851
F1
sVexciting
p852
F1
sVby
p853
F15
sVrarer.
p854
F1
sVstage
p855
F6
sVhearing
p856
F1
sVon
p857
F9
sVabout
p858
F2
sVdialogue,
p859
F2
sVcentral
p860
F1
sVcarried
p861
F1
sVof
p862
F103
sVthousands
p863
F1
sVdrama
p864
F14
sVdinner
p865
F1
sV"prisoners
p866
F1
sVfree.
p867
F1
sVact
p868
F5
sVpleased;
p869
F1
sVraised
p870
F1
sVrendered
p871
F2
sVmanagers
p872
F1
sVvisit
p873
F1
sVinto
p874
F6
sVintellectual
p875
F1
sVthree
p876
F2
sVflounces,
p877
F1
sVrespectable
p878
F1
sVworks),
p879
F1
sVmiddleton
p880
F1
sVcultivated
p881
F1
sVdifficult,
p882
F1
sVothello,
p883
F1
sVdoubtless
p884
F1
sVprestige
p885
F1
sVstage,
p886
F3
sVstage.
p887
F4
sVamazingly
p888
F1
sVsuffice
p889
F1
sVthere
p890
F11
sVquestion
p891
F1
sVwhy
p892
F1
sVshakspearian
p893
F1
sVavowed
p894
F1
sVoriginal,
p895
F1
sVplace.
p896
F1
sVwas
p897
F26
sVnaturally
p898
F2
sVanother;
p899
F1
sV---it
p900
F1
sVform
p901
F2
sVsome
p902
F3
sVbecoming
p903
F2
sVbitterly
p904
F1
sVbut
p905
F12
sVford
p906
F1
sVvolume
p907
F1
sVpoet
p908
F2
sVconstruction
p909
F1
sVhear
p910
F1
sVhopes
p911
F2
sVtrying
p912
F1
sVtrue
p913
F2
sVthey,
p914
F1
sVagain
p915
F1
sVthrow
p916
F2
sVmade
p917
F3
sVromantic
p918
F1
sVmonopoly
p919
F4
sVfulfilling
p920
F1
sVare,
p921
F1
sVeffectively.
p922
F1
sVthis,
p923
F1
sVtell
p924
F1
sVimages,
p925
F1
sVtaught
p926
F1
sVstories
p927
F1
sVor,
p928
F1
sVclasses,
p929
F1
sVpiece
p930
F1
sV"ion"
p931
F1
sVcalled
p932
F2
sVhis
p933
F9
sVreprinted,
p934
F1
sVassociated
p935
F1
sVneglect;
p936
F1
sVtaste
p937
F1
sVstripped
p938
F1
sVam
p939
F1
sVdialogue
p940
F1
sVan
p941
F10
sVsingle
p942
F2
sVwords,
p943
F1
sVat
p944
F9
sVamused
p945
F1
sVpit
p946
F2
sVfill
p947
F1
sVthemselves:
p948
F1
sVperdition,
p949
F1
sVbeyond
p950
F1
sVno
p951
F17
sVscope.
p952
F1
sVwhereas
p953
F2
sVunacted;
p954
F1
sVwhen
p955
F7
sVactor
p956
F3
sVother
p957
F5
sVactors
p958
F1
sVamusement
p959
F3
sVyou
p960
F2
sVout
p961
F4
sVunacted,
p962
F1
sVdresses
p963
F1
sVcontemporaries
p964
F1
sVgross
p965
F1
sVtaste---at
p966
F1
sVpulpit
p967
F1
sVpoem
p968
F1
sVin,
p969
F1
sVchance
p970
F2
sVsubjects,
p971
F2
sVbranded
p972
F1
sVodious
p973
F1
sVupwards
p974
F2
sVlane
p975
F1
sVsuffers
p976
F1
sVlonger
p977
F1
sVdomestic,
p978
F2
sVdaily
p979
F3
sVoriginal
p980
F1
sVmasterpieces,
p981
F1
sVbeautifully,
p982
F1
sVreprinted
p983
F1
sVtime
p984
F5
sV"the
p985
F10
sVhaving
p986
F1
s.