ccollections
defaultdict
p1
(c__builtin__
float
p2
tRp3
Vsometimes,
p4
F1
sVall
p5
F7
sVoutspoken
p6
F1
sVtemperament
p7
F1
sVweariness
p8
F1
sVceased
p9
F1
sVunquestioningly,
p10
F1
sVgo
p11
F3
sV(which
p12
F1
sVwhose
p13
F1
sVglimpse
p14
F1
sVto
p15
F47
sVtask.
p16
F1
sVavowal
p17
F2
sVterror
p18
F1
sVoff.
p19
F2
sVundeterred
p20
F1
sVfar
p21
F3
sVchoice
p22
F1
sVmore,
p23
F1
sVmagic
p24
F2
sVpoor,
p25
F1
sVpresented
p26
F1
sVdig
p27
F1
sVtenderness
p28
F1
sVregret
p29
F1
sVbe
p30
F14
sVobject,
p31
F1
sVeven,
p32
F1
sVconscience
p33
F2
sVwho,
p34
F1
sVwhat
p35
F1
sVsentimentalism
p36
F1
sVrestfulness
p37
F1
sVexpressed
p38
F1
sVhim,
p39
F1
sVabove
p40
F1
sVappeal
p41
F3
sVtold
p42
F1
sVjustification
p43
F1
sVevanescent
p44
F1
sVmen
p45
F1
sVup,
p46
F1
sVdeserts:
p47
F1
sVunremitting
p48
F1
sVtoil,
p49
F1
sVsubstance
p50
F1
sVimperfectly
p51
F1
sVmust,
p52
F1
sVpainting,
p53
F2
sVconsoled,
p54
F1
sVsolitude
p55
F1
sVsubstance;
p56
F1
sVbrought
p57
F1
sVvisible
p58
F1
sVhesitate,
p59
F1
sVplasticity,
p60
F1
sVfrom
p61
F1
sVmysterious
p62
F1
sVis
p63
F24
sVmore
p64
F1
sVfellow
p65
F2
sVon
p66
F3
sVapparent
p67
F1
sVlanguidly
p68
F1
sVlabourer
p69
F1
sVmoral,
p70
F1
sVhold
p71
F1
sVtask,
p72
F1
sVmirth,
p73
F1
sVmust
p74
F5
sVand,
p75
F2
sVword
p76
F1
sVhour
p77
F1
sVthis
p78
F1
sVworn
p79
F1
sVother
p80
F3
sVcan
p81
F1
sVabandon
p82
F1
sVmy
p83
F1
sVsuggestiveness
p84
F2
sVfar,
p85
F1
sVheartless
p86
F1
sVhigh
p87
F1
sVheard
p88
F1
sVattain
p89
F1
sVmade
p90
F2
sVend
p91
F1
sVinstant
p92
F1
sVcraft.
p93
F1
sVholds
p94
F1
sVinnumerable
p95
F1
sVvery
p96
F2
sVanswer
p97
F1
sVsculpture,
p98
F1
sVmovements
p99
F1
sVmay
p100
F6
sVafter
p101
F3
sVmankind
p102
F1
sVcourage,
p103
F1
sVhear,
p104
F1
sVsolidarity
p105
F1
sVa
F19
sVimproved,
p106
F1
sVstress
p107
F1
sVshort
p108
F1
sVattempt
p109
F1
sVeffective
p110
F1
sVlight
p111
F2
sVefforts;
p112
F1
sVdefaced
p113
F1
sVso
p114
F2
sVshade
p115
F1
sVmusic,
p116
F1
sVtravel
p117
F1
sVtalk
p118
F1
sVconclusion;
p119
F1
sVover
p120
F1
sVimmorality.
p121
F1
sVdoubtful
p122
F1
sVheld
p123
F1
sVthrough
p124
F5
sVlooks
p125
F1
sVmotions
p126
F1
sVresponsive
p127
F1
sVits
p128
F11
sVbefore
p129
F2
sVperfect
p130
F1
sVthen,
p131
F1
sVaim---the
p132
F1
sVvibration,
p133
F1
sVremorseless
p134
F1
sVromanticism,
p135
F1
sVworld.
p136
F1
sVprose.
p137
F1
sVunveiling
p138
F1
sVfragment
p139
F1
sVamenable
p140
F1
sVsolidarity;
p141
F1
sVfortunate,
p142
F1
sVthey
p143
F1
sVnot
p144
F6
sVexertions.
p145
F1
sVeven
p146
F1
sVall,
p147
F2
sVform,
p148
F1
sVcareless
p149
F1
sVtruth
p150
F3
sVeach
p151
F3
sVform;
p152
F1
sVdifficult
p153
F1
sVall:
p154
F1
sVresistless
p155
F1
sVtruth---disclose
p156
F1
sVshort,
p157
F1
sVtherefore,
p158
F1
sVstammerings
p159
F1
sVsounds
p160
F1
sVaccomplish
p161
F1
sVat.
p162
F1
sVabide
p163
F1
sVtime,
p164
F2
sVthus,
p165
F1
sVtime.
p166
F1
sVis,
p167
F2
sVthin,
p168
F1
sVapproached
p169
F1
sVforgive
p170
F1
sVpromptly
p171
F1
sVart---appeals
p172
F1
sVbeginning
p173
F1
sVcare
p174
F1
sVbring
p175
F1
sVperhaps,
p176
F1
sVtimes
p177
F1
sVcreates
p178
F1
sVplace
p179
F1
sVaspire
p180
F1
sVuproot
p181
F1
sVcomplete.
p182
F1
sVcomplete,
p183
F1
sVappeals
p184
F1
sVcollective,
p185
F1
sVfeel
p186
F1
sVone
p187
F5
sVlong
p188
F1
sVsuch
p189
F2
sVcarry
p190
F1
sVring
p191
F2
sVlittle
p192
F1
sVsenses,
p193
F2
sVbe,
p194
F1
sVtheir
p195
F1
sVsenses;
p196
F1
sVlandscape;
p197
F1
sVeyes
p198
F1
sVthat
p199
F10
sVimmediate
p200
F1
sVwisdom
p201
F1
sVpart
p202
F1
sVsucceed,
p203
F1
sVlogic
p204
F1
sVbody,
p205
F1
sVbinds
p206
F1
sVidle
p207
F1
sVdeserving
p208
F1
sVnever-discouraged
p209
F1
sVfeeling
p210
F1
sVold,
p211
F1
sVdevotion
p212
F1
sVand
p213
F29
sVthus:---
p214
F1
sV---it
p215
F1
sVages
p216
F1
sVsincerity
p217
F1
sVhave
p218
F1
sVsentences
p219
F1
sVany
p220
F2
sVsnatch
p221
F1
sVstrength
p222
F2
sValso
p223
F2
sVwhich,
p224
F1
sVedified,
p225
F1
sVwhich
p226
F7
sVroadside
p227
F1
sVfaltering,
p228
F1
sVformulas
p229
F1
sVplay
p230
F1
sVcommonplace
p231
F1
sVshall
p232
F2
sVwho
p233
F2
sVreach
p234
F1
sVmost
p235
F1
sVcharm
p236
F1
sVenduring
p237
F1
sVphase
p238
F1
sVlife,
p239
F1
sVusage.
p240
F1
sVwrongly,
p241
F1
sVpossessions,
p242
F1
sVclear
p243
F1
sVartistic
p244
F1
sVimpression
p245
F1
sVatmosphere
p246
F1
sVshow
p247
F1
sVaspires
p248
F1
sVtree,
p249
F1
sVpreface,
p250
F1
sVthreshold
p251
F1
sVsubtle
p252
F1
sVfind
p253
F1
sVinspiring
p254
F1
sVtrue
p255
F1
sVjar
p256
F1
sVonly
p257
F6
sVfield,
p258
F1
sVachieve
p259
F1
sVhis
p260
F14
sVget
p261
F1
sVbend
p262
F1
sVwatch
p263
F2
sVaim
p264
F2
sVcannot
p265
F3
sVwords
p266
F1
sVhim
p267
F2
sVstone,
p268
F1
sVreveal
p269
F1
sVworkman
p270
F1
sVcry
p271
F1
sVvision
p272
F1
sVdown,
p273
F1
sVtemperaments
p274
F1
sVart
p275
F3
sVframe
p276
F1
sVsee
p277
F2
sVindividual
p278
F1
sVare
p279
F1
sVtemple---to
p280
F1
sVwonder
p281
F1
sVsecret:
p282
F1
sVplasticity
p283
F1
sVmatter
p284
F1
sVmind,
p285
F1
sVwritten
p286
F2
sVdifficulties
p287
F1
sVapproach
p288
F1
sVwe
p289
F10
sVpersuasion.
p290
F1
sVfellowship,
p291
F1
sVencouraged,
p292
F1
sVarts.
p293
F1
sVprecious
p294
F1
sVendows
p295
F1
sVthat---and
p296
F1
sVlast
p297
F1
sVsecrets
p298
F1
sVaccording
p299
F1
sVcolour,
p300
F3
sVditch,
p301
F1
sVjoy,
p302
F1
sVforgotten
p303
F1
sVeverything.
p304
F1
sVpassing
p305
F2
sVperiod
p306
F1
sVsimply
p307
F1
sVstretched
p308
F1
sVblending
p309
F1
sVpity,
p310
F1
sVthem---the
p311
F1
sV.
F1
sVsecret
p312
F1
sVinterest
p313
F1
sVway---and
p314
F1
sVlife
p315
F2
sVworker
p316
F1
sVlift
p317
F1
sVdemand
p318
F2
sVreproach,
p319
F1
sVan
p320
F7
sVthose
p321
F2
sVuncertain
p322
F1
sVlook
p323
F1
sVinspiring,
p324
F1
sVthese
p325
F1
sVtried,
p326
F1
sVarms,
p327
F1
sVwill
p328
F1
sVstrength---and
p329
F1
sVask.
p330
F1
sVart,
p331
F4
sVart.
p332
F1
sVfiction---if
p333
F1
sVcharmed,
p334
F1
sVagitation
p335
F1
sVsincere
p336
F2
sVit
p337
F15
sVsurface
p338
F1
sVitself
p339
F1
sVin
p340
F22
sVrid
p341
F1
sVsingle-minded
p342
F1
sVif
p343
F6
sVclear,
p344
F1
sVperhaps
p345
F2
sVmake
p346
F4
sVconvictions
p347
F1
sVevents
p348
F1
sVclearness
p349
F1
sVmovement,
p350
F1
sVtemporary
p351
F1
sVway,
p352
F1
sVupon
p353
F1
sVmoment
p354
F1
sVpurpose
p355
F1
sVmists.
p356
F1
sVtask
p357
F2
sVi
F2
sVcolour
p358
F1
sVknow
p359
F1
sVexceedingly
p360
F1
sVwithout
p361
F2
sVamused;
p362
F1
sVconsolation,
p363
F1
sVhearts
p364
F1
sVthe
p365
F72
sVveils
p366
F1
sVjustify
p367
F1
sVendeavour
p368
F1
sVconsciousness
p369
F1
sVmood.
p370
F1
sVgods
p371
F1
sVwhisper,
p372
F1
sVunofficial
p373
F1
sVshape
p374
F1
sVdistant
p375
F1
sVstrenuously
p376
F1
sVyet
p377
F1
sVwork.
p378
F1
sVease
p379
F1
sVhad
p380
F2
sVadd
p381
F1
sVwork;
p382
F1
sVhas
p383
F2
sVreal
p384
F1
sVfact,
p385
F1
sVfulness
p386
F1
sVmoment.
p387
F1
sVawaken
p388
F1
sVdesire
p389
F1
sVdifficult---obscured
p390
F1
sVlike
p391
F5
sVsuccess
p392
F1
sVof,)
p393
F1
sVloses
p394
F1
sVcharm---all
p395
F1
sVbeholders
p396
F1
sVnaturalism,
p397
F1
sVbecause
p398
F1
sVold
p399
F1
sVoften
p400
F1
sVspring
p401
F1
sVbegin
p402
F2
sVunderstood
p403
F1
sVmeaning,
p404
F1
sVourselves
p405
F1
sVperchance
p406
F1
sVfor
p407
F6
sVunavoidable
p408
F1
sVcreative
p409
F1
sVencouraging.
p410
F1
sVpassion
p411
F1
sVexpressing
p412
F1
sVorigin,
p413
F1
sVcore
p414
F1
sVrun
p415
F1
sVpower
p416
F2
sVfaintly
p417
F1
sVuneasy
p418
F1
sVconveyed
p419
F1
sVexciting
p420
F1
sVby
p421
F5
sVforget.
p422
F1
sVfaith
p423
F1
sVabout
p424
F1
sVfrightened,
p425
F1
sVof
p426
F58
sVstand
p427
F1
sVforgive,
p428
F1
sVor
p429
F9
sVroad
p430
F1
sVmusic---which
p431
F1
sVhope,
p432
F1
sVwithin
p433
F1
sVcry,
p434
F1
sVprimarily
p435
F1
sVyour
p436
F1
sVshocked,
p437
F1
sVdemand---and,
p438
F1
sVthere
p439
F1
sVdisposed
p440
F1
sVspecifically
p441
F1
sVtemperament,
p442
F1
sVtemperament.
p443
F1
sVcondone
p444
F1
sVendeavour,
p445
F1
sVform
p446
F1
sVbut
p447
F3
sVemotions.
p448
F1
sVtrying
p449
F2
sVwith
p450
F4
sVhe
p451
F4
sVrush
p452
F1
sV---should
p453
F1
sVevident
p454
F1
sVwhether
p455
F1
sVencouragement,
p456
F1
sVup
p457
F1
sVtriumphant
p458
F1
sVfate,
p459
F1
sVemotional
p460
F1
sVsupreme
p461
F1
sVrightly
p462
F1
sVwords:
p463
F1
sVbrotherly
p464
F1
sVam
p465
F1
sVrealism,
p466
F1
sVas
p467
F5
sVwords,
p468
F1
sVat
p469
F5
sVour
p470
F1
sVkind,
p471
F1
sVknowledge.
p472
F1
sVprofit,
p473
F1
sVhim---even
p474
F1
sVfailure.
p475
F1
sVfaithful
p476
F1
sVno
p477
F1
sVwhen
p478
F1
sVvalid
p479
F1
sVyou
p480
F6
sVagain.
p481
F1
sVconvincing
p482
F1
sVwaving
p483
F1
sVunswerving
p484
F1
sVitself,
p485
F2
sVhere---for
p486
F1
sVstump,
p487
F1
sVrescued
p488
F1
sVfear,
p489
F2
sVincomprehensible,
p490
F1
s.