ccollections
defaultdict
p1
(c__builtin__
float
p2
tRp3
(S'NP'
p4
S'NNNVVVP'
tp5
F1
s(S'CP'
S'CAAADPP'
tp6
F1
s(S'DP'
p7
S'ADDPP'
tp8
F4
s(S'DP'
S'DDAP'
tp9
F2
s(S'VP'
p10
S'ADVVVNP'
tp11
F1
s(S'VP'
S'VVVVP'
tp12
F1
s(S'DP'
p13
S'DAANNP'
tp14
F2
s(S'PP'
S'PAAANNP'
tp15
F1
s(S'PP'
p16
S'PAPP'
tp17
F5
s(S'PP'
p18
S'PADVNP'
tp19
F9
s(S'DP'
p20
S'DNP'
tp21
F167
s(S'NP'
p22
S'ADVNDP'
tp23
F2
s(S'MP'
p24
S'AAMMAAP'
tp25
F1
s(S'CP'
S'CDPPP'
tp26
F46
s(S'DP'
S'ADPPP'
tp27
F3
s(S'MP'
p28
S'MAAVVPP'
tp29
F1
s(S'VP'
p30
S'VADP'
tp31
F11
s(S'CP'
p32
S'ACADVADVDP'
tp33
F1
s(S'PP'
S'PPPPP'
tp34
F2
s(S'CP'
p35
S'CDAAPPP'
tp36
F2
s(S'DP'
S'DAAP'
tp37
F9
s(S'PP'
p38
S'PPPPPP'
tp39
F1
s(S'VP'
S'VAVP'
tp40
F3
s(S'PP'
S'ADVADVPDP'
tp41
F2
s(S'DP'
p42
S'DAADP'
tp43
F1
s(S'NP'
S'ADVNAAACP'
tp44
F1
s(S'PP'
S'PADVADVAAP'
tp45
F1
s(S'VP'
p46
S'ADVVNP'
tp47
F9
s(S'MP'
p48
S'MVDP'
tp49
F16
s(S'PP'
S'PADVANP'
tp50
F1
s(S'NP'
S'AANNPP'
tp51
F2
s(S'PP'
S'PPPP'
tp52
F26
s(S'DP'
p53
S'DDDNP'
tp54
F2
s(S'VP'
p55
S'VACP'
tp56
F4
s(S'AP'
S'AAAVP'
tp57
F2
s(S'DP'
p58
S'DADVVP'
tp59
F9
s(S'VP'
S'ADVVVANP'
tp60
F1
s(S'PP'
S'PADVNNP'
tp61
F1
s(S'PP'
p62
S'PACCP'
tp63
F2
s(S'NP'
p64
S'NADVACP'
tp65
F2
s(S'NP'
S'NAAVVP'
tp66
F1
s(S'NP'
p67
S'NCCCP'
tp68
F5
s(S'DP'
p69
S'ADAANNNP'
tp70
F1
s(S'CP'
p71
S'CADVADVDDPP'
tp72
F1
s(S'VP'
p73
S'VCP'
tp74
F105
s(S'NP'
S'NMMP'
tp75
F6
s(S'VP'
S'ADVVCCP'
tp76
F1
s(S'PP'
p77
S'PAP'
tp78
F99
s(g28
S'MMVVP'
tp79
F1
s(S'VP'
S'VADVADVAP'
tp80
F1
s(S'NP'
S'ANNCCP'
tp81
F1
s(S'PP'
S'ADVPPVP'
tp82
F1
s(S'NP'
S'NNNAP'
tp83
F1
s(S'NP'
p84
S'ANPPP'
tp85
F1
s(S'PP'
S'PPADVDP'
tp86
F2
s(g77
S'PNP'
tp87
F185
s(S'NP'
S'AAANNDP'
tp88
F1
s(S'NP'
p89
S'ADVANADVVP'
tp90
F1
s(S'CP'
p91
S'CCAAAADDP'
tp92
F1
s(S'DP'
p93
S'DDP'
tp94
F33
s(S'VP'
p95
S'ADVVDDP'
tp96
F3
s(S'PP'
p97
S'PAAP'
tp98
F20
s(S'MP'
S'MCDP'
tp99
F6
s(S'MP'
p100
S'MNAP'
tp101
F2
s(S'NP'
p102
S'NMP'
tp103
F51
s(S'PP'
S'PAAAAP'
tp104
F1
s(S'NP'
p105
S'ADVNAPP'
tp106
F1
s(S'CP'
S'CCAAAAADP'
tp107
F1
s(S'VP'
p108
S'AAVNP'
tp109
F3
s(S'VP'
S'VMMP'
tp110
F2
s(g77
S'PDP'
tp111
F152
s(S'CP'
S'CCADVADVDP'
tp112
F1
s(S'CP'
S'CDADVADVPP'
tp113
F1
s(S'VP'
S'AAAAVNP'
tp114
F1
s(S'VP'
p115
S'VVVDDP'
tp116
F1
s(S'NP'
S'AANADVAP'
tp117
F1
s(S'NP'
S'NACCP'
tp118
F4
s(g77
S'ADVPAAP'
tp119
F1
s(S'PP'
S'PADVPP'
tp120
F1
s(S'VP'
p121
S'VVADVNP'
tp122
F3
s(S'PP'
S'AAPPPP'
tp123
F1
s(g13
S'DPPPP'
tp124
F7
s(S'DP'
S'DDANP'
tp125
F2
s(S'NP'
S'NACP'
tp126
F17
s(S'AP'
S'ADVAVP'
tp127
F1
s(S'NP'
p128
S'NCCP'
tp129
F30
s(S'DP'
S'DADVADVVVP'
tp130
F1
s(S'VP'
S'VVCCCP'
tp131
F1
s(S'NP'
p132
S'NNCP'
tp133
F38
s(S'DP'
S'ADVDDPP'
tp134
F1
s(S'NP'
S'NADVADVVP'
tp135
F1
s(S'DP'
S'DDDDP'
tp136
F1
s(S'DP'
S'DDAPP'
tp137
F3
s(S'MP'
S'MVVAAACP'
tp138
F1
s(g108
S'AVNP'
tp139
F11
s(S'VP'
S'VVADP'
tp140
F2
s(S'NP'
p141
S'ADVNDDP'
tp142
F1
s(S'NP'
p143
S'NADVADVPP'
tp144
F1
s(S'NP'
p145
S'AAANAAP'
tp146
F1
s(S'VP'
p147
S'VVMP'
tp148
F1
s(g46
S'VADVVP'
tp149
F1
s(S'CP'
p150
S'ACCDDP'
tp151
F1
s(S'MP'
S'MVPPP'
tp152
F1
s(S'NP'
p153
S'ANADVVP'
tp154
F1
s(S'AP'
S'AAAAP'
tp155
F1
s(S'DP'
S'DADVAP'
tp156
F1
s(g150
S'CCCDP'
tp157
F12
s(S'VP'
S'ADVVAP'
tp158
F4
s(S'PP'
S'ADVPPNNP'
tp159
F1
s(S'VP'
p160
S'VCCCP'
tp161
F2
s(S'MP'
S'MADVPNP'
tp162
F1
s(S'PP'
S'APDP'
tp163
F21
s(S'VP'
S'AAVADVAAAP'
tp164
F1
s(S'NP'
S'NNAMP'
tp165
F1
s(S'AP'
p166
S'AADVCP'
tp167
F1
s(S'VP'
p168
S'VVANP'
tp169
F3
s(S'VP'
S'VVVVDP'
tp170
F1
s(S'VP'
S'ADVVVP'
tp171
F1
s(S'VP'
S'ADVADVVVDDP'
tp172
F1
s(S'DP'
p173
S'DADVADVADVPP'
tp174
F1
s(S'PP'
S'ADVPPAAAP'
tp175
F1
s(S'CP'
S'CCCADP'
tp176
F1
s(S'PP'
S'PCCP'
tp177
F1
s(S'DP'
p178
S'DNNP'
tp179
F40
s(S'DP'
S'DPPPPP'
tp180
F1
s(S'CP'
p181
S'CDDPPPP'
tp182
F3
s(S'CP'
S'CCADVDP'
tp183
F2
s(S'VP'
S'VVNNNP'
tp184
F1
s(S'VP'
S'VVACP'
tp185
F1
s(S'DP'
p186
S'ADDNP'
tp187
F2
s(S'NP'
p188
S'NNNVP'
tp189
F6
s(S'PP'
p190
S'PAAVVP'
tp191
F1
s(S'VP'
p192
S'VDP'
tp193
F156
s(S'NP'
S'AANNNVP'
tp194
F1
s(S'PP'
p195
S'PPNNNNP'
tp196
F1
s(S'PP'
S'PADVVP'
tp197
F4
s(S'PP'
p198
S'APAP'
tp199
F5
s(S'AP'
p200
S'APP'
tp201
F48
s(S'AP'
S'AAAPPP'
tp202
F1
s(S'AP'
S'AAP'
tp203
F16
s(S'VP'
S'VADVADVVP'
tp204
F1
s(S'PP'
S'PAAAAVP'
tp205
F1
s(g38
S'PAAADDP'
tp206
F1
s(S'VP'
p207
S'ADVADVVMP'
tp208
F1
s(S'CP'
S'CDDDDPP'
tp209
F2
s(S'AP'
S'ADVAAMMP'
tp210
F1
s(S'PP'
p211
S'PAANP'
tp212
F6
s(S'PP'
S'PPVVP'
tp213
F5
s(S'VP'
S'VAACP'
tp214
F1
s(S'MP'
S'MVNP'
tp215
F22
s(S'AP'
S'AAAAPP'
tp216
F1
s(S'DP'
p217
S'ADDDP'
tp218
F2
s(S'AP'
S'ADVAADP'
tp219
F2
s(S'DP'
S'ADVADNP'
tp220
F1
s(g77
S'PAVP'
tp221
F17
s(S'MP'
S'ADVMVP'
tp222
F2
s(S'PP'
S'ADVPADVDDP'
tp223
F1
s(S'PP'
p224
S'AAPADVVP'
tp225
F1
s(S'PP'
p226
S'PPADVNNP'
tp227
F2
s(S'NP'
S'NNADP'
tp228
F2
s(S'AP'
S'ADVACCP'
tp229
F1
s(S'DP'
p230
S'DADP'
tp231
F3
s(S'DP'
S'ADVDVVP'
tp232
F1
s(S'AP'
S'ADVADP'
tp233
F5
s(S'VP'
S'VVADVPP'
tp234
F1
s(S'DP'
S'ADVDDP'
tp235
F1
s(S'PP'
S'APDDP'
tp236
F2
s(g67
S'NNACCP'
tp237
F1
s(S'DP'
p238
S'DAAAVP'
tp239
F1
s(S'PP'
S'PPCP'
tp240
F1
s(S'AP'
S'ACCCP'
tp241
F2
s(g16
S'APVP'
tp242
F8
s(S'MP'
p243
S'MNCP'
tp244
F2
s(S'VP'
p245
S'VVNP'
tp246
F33
s(S'NP'
S'ANNP'
tp247
F1
s(g97
S'PPVP'
tp248
F19
s(S'MP'
S'MPCP'
tp249
F1
s(S'VP'
p250
S'VADVDP'
tp251
F5
s(S'MP'
p252
S'MPADP'
tp253
F1
s(S'NP'
S'ANAVVVP'
tp254
F1
s(g73
S'VAAP'
tp255
F10
s(S'NP'
p256
S'ANDP'
tp257
F9
s(g128
S'NVVP'
tp258
F34
s(S'PP'
p259
S'AAPVP'
tp260
F3
s(S'PP'
S'PPADP'
tp261
F1
s(g55
S'VMP'
tp262
F23
s(g207
S'VVNNP'
tp263
F4
s(g32
S'CDAPP'
tp264
F24
s(g95
S'VVAAP'
tp265
F4
s(g115
S'ADVADVVADVCP'
tp266
F1
s(S'MP'
S'MMPP'
tp267
F3
s(S'AP'
S'AACCCP'
tp268
F1
s(g7
S'ADNP'
tp269
F8
s(S'NP'
p270
S'ADVADVADVANVVP'
tp271
F1
s(g147
S'ADVVACP'
tp272
F1
s(S'PP'
S'PADP'
tp273
F12
s(S'DP'
p274
S'DDAAAPP'
tp275
F1
s(S'VP'
S'ADVVVCP'
tp276
F1
s(S'PP'
p277
S'PAAPP'
tp278
F1
s(g173
S'ADVDDNP'
tp279
F1
s(S'NP'
p280
S'ANDDP'
tp281
F1
s(S'MP'
S'MDANP'
tp282
F2
s(S'VP'
S'AVVCCP'
tp283
F1
s(S'DP'
p284
S'DAPP'
tp285
F37
s(S'MP'
p286
S'MVVCP'
tp287
F1
s(S'VP'
S'VADVAAP'
tp288
F1
s(g24
S'MDDNP'
tp289
F1
s(S'VP'
S'ADVADVVDP'
tp290
F1
s(S'NP'
S'ADVADVNNAVP'
tp291
F1
s(S'PP'
S'PPPDP'
tp292
F3
s(g53
S'DAAPPP'
tp293
F3
s(S'AP'
S'AAPPP'
tp294
F1
s(S'VP'
S'VDDDDP'
tp295
F2
s(S'DP'
p296
S'DAAANP'
tp297
F1
s(S'NP'
S'ANADVVVP'
tp298
F2
s(g178
S'ADVDNP'
tp299
F13
s(S'VP'
S'VVPP'
tp300
F4
s(g181
S'CCADDP'
tp301
F1
s(S'MP'
S'AAMMVP'
tp302
F1
s(S'AP'
S'AAAAMP'
tp303
F1
s(S'DP'
S'ADADVPP'
tp304
F2
s(S'CP'
S'AACDDP'
tp305
F1
s(S'MP'
S'MVPP'
tp306
F3
s(g284
S'ADVP'
tp307
F14
s(S'MP'
S'MDAAP'
tp308
F1
s(S'CP'
S'CDDPPP'
tp309
F8
s(S'VP'
S'ADVVVDP'
tp310
F1
s(g132
S'NNPP'
tp311
F19
s(S'DP'
S'DDDDNP'
tp312
F1
s(S'MP'
S'MVVDP'
tp313
F1
s(S'DP'
p314
S'DADVPPP'
tp315
F2
s(g132
S'ANVP'
tp316
F25
s(S'DP'
p317
S'DNNNP'
tp318
F3
s(g178
S'ADVDDVP'
tp319
F2
s(S'VP'
S'VADVDDP'
tp320
F1
s(S'PP'
S'PVVVP'
tp321
F2
s(S'PP'
S'PMP'
tp322
F8
s(S'NP'
S'NNMMP'
tp323
F1
s(S'PP'
p324
S'PAAPPP'
tp325
F1
s(S'CP'
p326
S'CCDP'
tp327
F63
s(g84
S'ANNDP'
tp328
F2
s(g48
S'AMVP'
tp329
F6
s(S'VP'
S'VPPP'
tp330
F8
s(S'DP'
S'AADDPP'
tp331
F7
s(S'DP'
S'DDDMP'
tp332
F1
s(S'NP'
p333
S'NVVVP'
tp334
F4
s(S'CP'
S'CDDDPP'
tp335
F4
s(S'CP'
S'CDAAPP'
tp336
F4
s(S'VP'
S'ADVADVVVVP'
tp337
F1
s(g324
S'PDDDDP'
tp338
F1
s(g211
S'PNNNP'
tp339
F8
s(S'CP'
S'CCCCDP'
tp340
F1
s(S'AP'
S'AACCP'
tp341
F1
s(S'PP'
p342
S'AAPNP'
tp343
F1
s(S'CP'
S'CADADVPP'
tp344
F1
s(g324
S'PADVVVP'
tp345
F1
s(g77
S'PPP'
tp346
F81
s(g102
S'NAVP'
tp347
F12
s(S'PP'
S'PADVAP'
tp348
F1
s(g58
S'DDNNNP'
tp349
F2
s(S'MP'
S'AMDP'
tp350
F1
s(g100
S'MNNDP'
tp351
F1
s(S'PP'
S'PADDP'
tp352
F1
s(S'NP'
S'ANADVCCP'
tp353
F1
s(S'DP'
S'ADVDVP'
tp354
F2
s(S'NP'
p355
S'NAAAP'
tp356
F1
s(S'NP'
p357
S'NADVVVP'
tp358
F1
s(S'AP'
S'AADVVP'
tp359
F2
s(S'DP'
S'ADVADVDNP'
tp360
F2
s(g73
S'VPP'
tp361
F84
s(S'CP'
S'ADVCCDP'
tp362
F1
s(S'CP'
S'ACCDP'
tp363
F6
s(S'NP'
p364
S'ADVADVNCP'
tp365
F1
s(S'NP'
p366
S'NNNCP'
tp367
F7
s(g198
S'PADVDP'
tp368
F6
s(S'CP'
p369
S'CDADVAPP'
tp370
F2
s(S'MP'
S'ADVADVADVMNP'
tp371
F1
s(S'DP'
S'DANNP'
tp372
F4
s(S'MP'
p373
S'MADVVAP'
tp374
F1
s(S'PP'
S'PADVAAP'
tp375
F1
s(S'CP'
p376
S'CDDPP'
tp377
F45
s(S'DP'
p378
S'DAAPP'
tp379
F6
s(S'PP'
p380
S'PVVP'
tp381
F22
s(S'CP'
S'CADPPP'
tp382
F2
s(S'AP'
p383
S'AACP'
tp384
F12
s(S'MP'
S'ADVADVADVMVP'
tp385
F1
s(g10
S'ADVVCP'
tp386
F3
s(S'MP'
S'MCCDP'
tp387
F2
s(g195
S'PPNNNP'
tp388
F4
s(g46
S'AVCCP'
tp389
F2
s(S'VP'
S'VVPPP'
tp390
F3
s(S'VP'
S'ADVVVCCP'
tp391
F2
s(g64
S'ADVNAMP'
tp392
F1
s(S'PP'
p393
S'PPAP'
tp394
F19
s(g296
S'DVVP'
tp395
F25
s(S'CP'
S'CDDAAPP'
tp396
F1
s(S'NP'
S'ANMP'
tp397
F4
s(S'MP'
S'MPPADVDP'
tp398
F1
s(S'AP'
S'APPP'
tp399
F5
s(S'DP'
S'ADVVP'
tp400
F2
s(S'NP'
p401
S'ADVADVNVP'
tp402
F1
s(g250
S'VVVP'
tp403
F14
s(g238
S'DDPPPP'
tp404
F4
s(g245
S'AVMP'
tp405
F1
s(g64
S'ANCP'
tp406
F35
s(S'DP'
S'DCP'
tp407
F7
s(S'NP'
S'ANNCP'
tp408
F1
s(S'NP'
S'AAANCP'
tp409
F1
s(g168
S'ADVVVVP'
tp410
F1
s(S'DP'
S'DDDP'
tp411
F7
s(S'DP'
S'DDADVPP'
tp412
F2
s(g128
S'ANVVP'
tp413
F5
s(S'DP'
p414
S'DDDNNNP'
tp415
F1
s(S'NP'
p416
S'NVVVVP'
tp417
F2
s(g128
S'NPPP'
tp418
F15
s(S'NP'
S'NAAAAP'
tp419
F2
s(S'DP'
p420
S'DAVP'
tp421
F10
s(g200
S'ACP'
tp422
F76
s(S'PP'
S'AAPAP'
tp423
F1
s(S'PP'
S'PADVADVNNP'
tp424
F1
s(g97
S'PPNP'
tp425
F35
s(S'PP'
p426
S'APPPP'
tp427
F1
s(S'NP'
S'NAADP'
tp428
F3
s(g69
S'AADVP'
tp429
F1
s(g366
S'NNNNCCP'
tp430
F1
s(S'DP'
S'DAAAPPP'
tp431
F1
s(S'VP'
S'VAANNP'
tp432
F1
s(S'CP'
p433
S'CDDADVPP'
tp434
F1
s(g383
S'ADP'
tp435
F150
s(S'PP'
S'ADVPPDDP'
tp436
F1
s(S'DP'
S'DDADVVP'
tp437
F1
s(S'PP'
S'APMP'
tp438
F1
s(S'DP'
p439
S'DDAVP'
tp440
F1
s(g105
S'AAANNCP'
tp441
F2
s(S'MP'
p442
S'MADDP'
tp443
F1
s(g373
S'MADVVVDP'
tp444
F1
s(S'AP'
p445
S'AAADP'
tp446
F8
s(S'NP'
S'ANNVP'
tp447
F2
s(S'VP'
p448
S'VVAP'
tp449
F11
s(S'MP'
S'MMAPPP'
tp450
F1
s(S'PP'
S'APPDP'
tp451
F1
s(S'CP'
p452
S'ADVACDP'
tp453
F2
s(S'PP'
p454
S'PPADVVP'
tp455
F1
s(g55
S'AAVCP'
tp456
F1
s(S'PP'
S'AAAPADVDDP'
tp457
F1
s(g132
S'NPP'
tp458
F118
s(g132
S'NVP'
tp459
F172
s(g35
S'ADVCCDDP'
tp460
F1
s(g18
S'PAAVP'
tp461
F5
s(S'PP'
S'AAPPNP'
tp462
F2
s(g190
S'PPPPVP'
tp463
F1
s(S'NP'
S'ADVNAP'
tp464
F2
s(g73
S'VDDP'
tp465
F24
s(S'DP'
S'DAPPP'
tp466
F1
s(S'VP'
p467
S'VVADVADVNP'
tp468
F1
s(S'AP'
S'AAADVDP'
tp469
F1
s(g357
S'AANNVP'
tp470
F4
s(g414
S'DMP'
tp471
F4
s(S'DP'
p472
S'DADVAPP'
tp473
F2
s(g42
S'DDDDVVP'
tp474
F1
s(g277
S'ADVAPAP'
tp475
F1
s(g128
S'ANPP'
tp476
F17
s(S'PP'
S'ADVPPDP'
tp477
F1
s(S'VP'
p478
S'VVVADVADVDP'
tp479
F1
s(S'MP'
S'MPDP'
tp480
F4
s(S'MP'
p481
S'MADVAVNNP'
tp482
F1
s(g250
S'VVVAVP'
tp483
F1
s(S'VP'
p484
S'AAVVNP'
tp485
F1
s(S'DP'
S'ADVDPP'
tp486
F13
s(S'DP'
S'DDDDDP'
tp487
F1
s(S'CP'
p488
S'CCAADP'
tp489
F3
s(S'PP'
p490
S'PPVVVVP'
tp491
F1
s(g141
S'NPPPP'
tp492
F1
s(S'DP'
p493
S'ADDP'
tp494
F2
s(g488
S'CDDDADVPP'
tp495
F1
s(S'CP'
S'CAADPP'
tp496
F5
s(g93
S'DADVADVVP'
tp497
F1
s(g143
S'NAACP'
tp498
F4
s(g77
S'PNNP'
tp499
F48
s(S'PP'
p500
S'APNNP'
tp501
F4
s(S'DP'
S'DAAANNP'
tp502
F1
s(S'NP'
S'NNNAPP'
tp503
F1
s(S'MP'
S'MMNP'
tp504
F1
s(S'DP'
S'AAADPP'
tp505
F1
s(g192
S'AVAP'
tp506
F5
s(g252
S'MMVP'
tp507
F3
s(S'NP'
S'ADVNCP'
tp508
F5
s(g383
S'AADP'
tp509
F40
s(S'NP'
S'NAPPP'
tp510
F1
s(S'CP'
p511
S'ACDP'
tp512
F19
s(g73
S'VCCP'
tp513
F21
s(g64
S'NNACP'
tp514
F1
s(S'CP'
S'CDADVPPP'
tp515
F2
s(g73
S'VAP'
tp516
F107
s(S'VP'
S'AAVADVDP'
tp517
F1
s(g478
S'VVVVNP'
tp518
F1
s(S'DP'
S'DDDPP'
tp519
F9
s(S'CP'
S'ADVCDDP'
tp520
F2
s(g30
S'VADVMP'
tp521
F1
s(S'DP'
S'DDDPPPP'
tp522
F1
s(S'MP'
S'MAVPP'
tp523
F1
s(S'DP'
p524
S'DDDPPP'
tp525
F1
s(S'DP'
S'ADAP'
tp526
F2
s(S'MP'
S'MVVCCP'
tp527
F1
s(S'NP'
S'NNAVVP'
tp528
F2
s(S'NP'
S'ANDDDP'
tp529
F1
s(S'AP'
S'AAACP'
tp530
F3
s(S'NP'
S'NAAP'
tp531
F7
s(S'MP'
S'MAVP'
tp532
F1
s(g195
S'PPPVP'
tp533
F3
s(S'VP'
S'AAVAP'
tp534
F1
s(S'AP'
S'AADDP'
tp535
F7
s(S'DP'
p536
S'AADPPPP'
tp537
F1
s(S'VP'
S'ADVVADDP'
tp538
F1
s(S'VP'
S'VAANP'
tp539
F3
s(S'VP'
S'ADVVAAAP'
tp540
F1
s(g38
S'PPPNNNP'
tp541
F1
s(g245
S'VVDP'
tp542
F24
s(g22
S'NADVDP'
tp543
F1
s(S'PP'
p544
S'ADVAPADVNP'
tp545
F1
s(S'MP'
S'MPNP'
tp546
F5
s(S'MP'
S'MADP'
tp547
F1
s(g166
S'AMMP'
tp548
F2
s(g524
S'DDAAAPPP'
tp549
F1
s(S'MP'
S'MAPNP'
tp550
F1
s(S'AP'
S'AAACCP'
tp551
F1
s(g186
S'DDADVNP'
tp552
F1
s(S'PP'
p553
S'PANP'
tp554
F21
s(g454
S'PAAAVVP'
tp555
F1
s(S'NP'
S'AANMP'
tp556
F3
s(S'AP'
S'AAVP'
tp557
F7
s(S'AP'
S'AVVP'
tp558
F5
s(S'DP'
S'ADADVAPP'
tp559
F1
s(g416
S'NDDP'
tp560
F10
s(S'VP'
p561
S'VVADVDDP'
tp562
F1
s(S'AP'
S'ACCP'
tp563
F16
s(S'DP'
S'ADAAP'
tp564
F1
s(S'DP'
S'DDDADVPP'
tp565
F1
s(S'AP'
S'APPPP'
tp566
F1
s(g132
S'NDP'
tp567
F76
s(g472
S'ADNNP'
tp568
F3
s(S'NP'
S'AAANVP'
tp569
F2
s(S'PP'
S'ADVPAANP'
tp570
F1
s(S'MP'
S'MVAAP'
tp571
F2
s(g378
S'DDVP'
tp572
F31
s(g230
S'ADADVPPP'
tp573
F3
s(g256
S'AANVP'
tp574
F7
s(S'PP'
S'ADVPAAPPP'
tp575
F1
s(S'VP'
S'AAVVPP'
tp576
F3
s(S'VP'
S'VNNNP'
tp577
F1
s(g224
S'PPPAAAP'
tp578
F1
s(S'VP'
S'VADVADVPP'
tp579
F1
s(g490
S'ADVPAP'
tp580
F3
s(S'MP'
S'MMVVVP'
tp581
F1
s(S'PP'
S'ADVPPADVDP'
tp582
F1
s(g393
S'PCP'
tp583
F6
s(S'NP'
p584
S'NADVADVADVMP'
tp585
F1
s(S'PP'
p586
S'PAADP'
tp587
F2
s(S'NP'
S'ADVNNVP'
tp588
F2
s(g245
S'ADVAVNNP'
tp589
F1
s(S'NP'
S'ANNPP'
tp590
F1
s(S'MP'
S'MVVVDDDP'
tp591
F1
s(g62
S'AAAPPNNP'
tp592
F1
s(g426
S'APADVMP'
tp593
F1
s(S'AP'
S'ADVACP'
tp594
F5
s(g586
S'AAPNNP'
tp595
F1
s(S'DP'
p596
S'ADVDDPPP'
tp597
F1
s(S'VP'
S'VVVAP'
tp598
F3
s(g132
S'NNVP'
tp599
F37
s(S'NP'
S'NNAAVP'
tp600
F1
s(g48
S'MVCP'
tp601
F10
s(S'CP'
p602
S'CCDDP'
tp603
F15
s(g168
S'AAAVAP'
tp604
F1
s(g584
S'NNNVVP'
tp605
F1
s(S'MP'
S'MADVNNPP'
tp606
F1
s(g442
S'MVMP'
tp607
F2
s(S'NP'
S'ADVANAP'
tp608
F1
s(g393
S'PPAAP'
tp609
F5
s(g448
S'VVCP'
tp610
F20
s(g64
S'AANCP'
tp611
F10
s(S'VP'
S'VADVNP'
tp612
F5
s(S'MP'
S'MVVADVADVNP'
tp613
F1
s(g18
S'APPP'
tp614
F8
s(S'VP'
S'ADVVPP'
tp615
F2
s(S'AP'
S'AAAADDP'
tp616
F1
s(g73
S'VNNP'
tp617
F29
s(g364
S'ADVADVANNP'
tp618
F1
s(S'AP'
p619
S'AADVDP'
tp620
F1
s(S'NP'
S'NADP'
tp621
F5
s(S'PP'
S'AAAPPP'
tp622
F2
s(g20
S'DDNP'
tp623
F36
s(S'NP'
S'NADVCP'
tp624
F3
s(S'DP'
S'DDNNP'
tp625
F6
s(g596
S'ADDVP'
tp626
F1
s(g4
S'ADVANVP'
tp627
F1
s(S'NP'
S'AANAAP'
tp628
F1
s(g420
S'AADPP'
tp629
F10
s(g478
S'AAVMP'
tp630
F1
s(S'NP'
S'ADVNAACP'
tp631
F1
s(g128
S'NNNNPP'
tp632
F1
s(S'VP'
S'VVVVCP'
tp633
F1
s(g121
S'VAAANNP'
tp634
F1
s(g274
S'AAAADDPP'
tp635
F1
s(S'CP'
S'CDPPPPP'
tp636
F1
s(S'NP'
p637
S'NAAMMP'
tp638
F1
s(S'NP'
S'ANVVVP'
tp639
F1
s(S'DP'
S'DAAVVP'
tp640
F1
s(S'MP'
S'MVVNP'
tp641
F3
s(S'DP'
S'ADAAANNNP'
tp642
F1
s(g452
S'ACDDP'
tp643
F7
s(S'MP'
S'MVDDDDP'
tp644
F1
s(g200
S'AAPP'
tp645
F11
s(S'VP'
S'VVCCP'
tp646
F4
s(S'CP'
S'ADVCAADP'
tp647
F1
s(g544
S'APPNP'
tp648
F2
s(S'DP'
S'DAAAPP'
tp649
F4
s(g190
S'ADVPANP'
tp650
F2
s(S'MP'
S'MDAAANP'
tp651
F1
s(S'VP'
S'VVVCCP'
tp652
F2
s(g637
S'NAPP'
tp653
F11
s(g445
S'ADVAAVP'
tp654
F1
s(S'VP'
p655
S'VVVCP'
tp656
F2
s(S'NP'
S'ANCCP'
tp657
F7
s(g188
S'AANPP'
tp658
F6
s(g84
S'NNCCP'
tp659
F5
s(S'NP'
S'NNMP'
tp660
F6
s(S'AP'
S'AAACCCP'
tp661
F1
s(S'DP'
S'DDDVP'
tp662
F4
s(S'MP'
S'MCCDDP'
tp663
F1
s(g326
S'CADDPP'
tp664
F2
s(S'PP'
p665
S'PAAAP'
tp666
F5
s(S'PP'
S'ADVADVPNP'
tp667
F1
s(S'PP'
S'PPPAP'
tp668
F1
s(S'DP'
S'ADVDDAP'
tp669
F1
s(g71
S'CDDAPP'
tp670
F1
s(S'NP'
S'ANAP'
tp671
F9
s(S'MP'
S'MVAP'
tp672
F8
s(g77
S'PVP'
tp673
F149
s(g655
S'VADVPPP'
tp674
F1
s(g561
S'VVAAAAP'
tp675
F1
s(g342
S'APPNNP'
tp676
F1
s(S'VP'
S'AAAVVPP'
tp677
F1
s(g420
S'DVVVP'
tp678
F1
s(g16
S'PPADVPP'
tp679
F1
s(S'VP'
S'VCCCCP'
tp680
F1
s(g89
S'AANADVANP'
tp681
F1
s(S'NP'
S'ADVADVANVP'
tp682
F1
s(g665
S'PPDDP'
tp683
F5
s(g250
S'AVCP'
tp684
F8
s(S'CP'
S'CADVDDPPP'
tp685
F1
s(S'DP'
p686
S'DPP'
tp687
F222
s(g132
S'ADVNVP'
tp688
F5
s(S'VP'
p689
S'AVVVNP'
tp690
F1
s(g20
S'DDPP'
tp691
F78
s(S'DP'
S'DDADVPPP'
tp692
F1
s(g7
S'DANP'
tp693
F36
s(g132
S'NADVPP'
tp694
F3
s(S'DP'
S'ADADVADVVVP'
tp695
F1
s(S'MP'
S'MMAP'
tp696
F2
s(g324
S'AAPPVP'
tp697
F2
s(S'NP'
S'AANADVVP'
tp698
F1
s(g416
S'NAAVP'
tp699
F3
s(g378
S'AADNP'
tp700
F3
s(g355
S'NNAPPP'
tp701
F1
s(g108
S'VADVCP'
tp702
F3
s(S'AP'
S'AAAADVADVVP'
tp703
F1
s(S'NP'
S'NADVCCP'
tp704
F1
s(g4
S'NNAACP'
tp705
F1
s(g226
S'PPADVADVVP'
tp706
F1
s(S'CP'
p707
S'ACCDDDP'
tp708
F1
s(S'NP'
p709
S'NAANP'
tp710
F1
s(S'AP'
S'AADDDDP'
tp711
F1
s(S'PP'
S'AAPDP'
tp712
F1
s(S'MP'
S'MADVVDP'
tp713
F1
s(S'VP'
S'AVVDP'
tp714
F2
s(g553
S'PDDP'
tp715
F27
s(S'AP'
S'ADVADVAPPP'
tp716
F1
s(S'AP'
S'AAAADP'
tp717
F1
s(S'PP'
S'ADVAPNP'
tp718
F1
s(g619
S'AADVDDP'
tp719
F1
s(g73
S'AVDP'
tp720
F13
s(S'NP'
S'NNP'
tp721
F4
s(S'VP'
S'VVDDP'
tp722
F1
s(S'NP'
S'AAANNNCCP'
tp723
F1
s(g284
S'DAANP'
tp724
F14
s(S'AP'
S'ADDP'
tp725
F16
s(S'PP'
S'ADVPPNP'
tp726
F1
s(g143
S'ADVADVNVVP'
tp727
F1
s(S'NP'
S'NNADVADVVP'
tp728
F1
s(S'CP'
S'CADVADVDPP'
tp729
F1
s(S'DP'
S'DDACCP'
tp730
F1
s(g178
S'DPPP'
tp731
F66
s(S'NP'
S'NADVADVAAP'
tp732
F1
s(S'DP'
p733
S'AADVVVP'
tp734
F1
s(S'PP'
S'AAAPPNP'
tp735
F1
s(g317
S'DAVVP'
tp736
F1
s(S'DP'
S'AADPPP'
tp737
F2
s(g689
S'VANNP'
tp738
F1
s(g280
S'NNAVP'
tp739
F1
s(S'MP'
S'MADVVVCP'
tp740
F1
s(S'PP'
S'ADVPNP'
tp741
F9
s(S'NP'
S'NNADVVP'
tp742
F5
s(S'PP'
S'PPDP'
tp743
F13
s(S'MP'
S'MAVDP'
tp744
F1
s(S'AP'
S'ADVAAAADP'
tp745
F1
s(g259
S'ADVADVADVPVP'
tp746
F1
s(g270
S'NNADVADVADVANP'
tp747
F1
s(g733
S'DDADVANP'
tp748
F1
s(S'DP'
S'AAAAADPP'
tp749
F1
s(g286
S'MVVAP'
tp750
F1
s(S'CP'
S'CCAADDP'
tp751
F1
s(S'PP'
S'PAANNP'
tp752
F2
s(S'AP'
S'ADVADVAADP'
tp753
F2
s(g132
S'NAP'
tp754
F77
s(g364
S'NNAAP'
tp755
F2
s(g95
S'VAAAP'
tp756
F3
s(S'VP'
S'AVADVCP'
tp757
F1
s(g73
S'VVP'
tp758
F40
s(S'VP'
S'VVVDDDP'
tp759
F1
s(g128
S'NNVVP'
tp760
F9
s(S'PP'
S'ADVADVPVP'
tp761
F1
s(g226
S'APNP'
tp762
F14
s(g314
S'DDVVP'
tp763
F2
s(S'AP'
S'AAADDP'
tp764
F1
s(S'VP'
p765
S'VVVNP'
tp766
F3
s(g243
S'MNPP'
tp767
F1
s(g91
S'CDDAAAPP'
tp768
F1
s(g141
S'NAMP'
tp769
F4
s(g153
S'AANVVP'
tp770
F1
s(S'MP'
S'MVANP'
tp771
F3
s(g217
S'ADVADVDDPP'
tp772
F1
s(S'AP'
S'AAADVPP'
tp773
F1
s(g602
S'CDPP'
tp774
F203
s(S'CP'
S'AAACDP'
tp775
F2
s(S'AP'
S'ADDDP'
tp776
F2
s(g145
S'NNDP'
tp777
F18
s(S'DP'
S'ADADVADVPP'
tp778
F1
s(S'VP'
S'VADVADVADVMP'
tp779
F1
s(g452
S'ADVCDP'
tp780
F6
s(g46
S'ADVADVVNP'
tp781
F3
s(S'NP'
p782
S'NNNNPPP'
tp783
F1
s(S'VP'
S'ADVADVVCP'
tp784
F1
s(S'VP'
S'VADVADVDP'
tp785
F1
s(S'PP'
S'PPNNP'
tp786
F4
s(S'CP'
S'CDAAAPP'
tp787
F3
s(g511
S'CAADDPP'
tp788
F6
s(S'DP'
S'ADVADVDPP'
tp789
F3
s(g250
S'VAADP'
tp790
F2
s(g64
S'NADVAP'
tp791
F4
s(S'VP'
S'AVDDP'
tp792
F3
s(g20
S'DADVNP'
tp793
F4
s(g378
S'DAP'
tp794
F21
s(S'CP'
S'CADPP'
tp795
F23
s(S'PP'
S'PPDDDP'
tp796
F1
s(g765
S'AVPP'
tp797
F6
s(S'CP'
S'CAADPPP'
tp798
F1
s(S'MP'
S'MPAANP'
tp799
F1
s(S'MP'
S'AMVVP'
tp800
F1
s(g707
S'CDDAAAPPP'
tp801
F1
s(S'CP'
S'CDPPPP'
tp802
F6
s(g224
S'PPAADP'
tp803
F1
s(g160
S'AAVDP'
tp804
F2
s(S'PP'
S'PANNP'
tp805
F1
s(S'NP'
S'NNDDP'
tp806
F2
s(S'DP'
S'ADPPPP'
tp807
F1
s(S'VP'
S'VAAMMP'
tp808
F1
s(S'DP'
S'DADVADVPP'
tp809
F2
s(S'PP'
S'PPADVADP'
tp810
F1
s(g500
S'PPPNP'
tp811
F7
s(S'PP'
S'PPAANP'
tp812
F1
s(S'PP'
p813
S'PADVADVNP'
tp814
F2
s(S'DP'
S'ADPP'
tp815
F35
s(g813
S'PPAAVP'
tp816
F1
s(S'VP'
S'VADVPP'
tp817
F1
s(g733
S'DDAAPP'
tp818
F1
s(g536
S'AAADDDP'
tp819
F1
s(g77
S'ADVPVP'
tp820
F4
s(S'DP'
S'DDDDPP'
tp821
F2
s(g333
S'NNVVVP'
tp822
F1
s(S'VP'
S'ADVVANP'
tp823
F1
s(S'PP'
S'ADVPDP'
tp824
F1
s(S'VP'
S'VVNNNNP'
tp825
F1
s(S'NP'
S'ADVNNPP'
tp826
F2
s(g132
S'NCP'
tp827
F169
s(S'MP'
S'MDNP'
tp828
F7
s(S'CP'
S'CADVDPPP'
tp829
F3
s(S'PP'
S'AAAPNP'
tp830
F2
s(S'NP'
S'ADVANDP'
tp831
F1
s(g445
S'AAAP'
tp832
F2
s(g376
S'CDADVPP'
tp833
F7
s(S'AP'
S'AAMP'
tp834
F5
s(S'MP'
S'MADVDNP'
tp835
F1
s(g277
S'PPAPP'
tp836
F1
s(g709
S'AANDP'
tp837
F1
s(S'MP'
S'MVCCP'
tp838
F2
s(g439
S'DADVNNP'
tp839
F1
s(g467
S'VADVADVANP'
tp840
F1
s(S'VP'
p841
S'VDDDP'
tp842
F5
s(g481
S'MNVP'
tp843
F12
s(g270
S'AANAP'
tp844
F2
s(S'NP'
S'AANCCP'
tp845
F4
s(g841
S'VAPP'
tp846
F4
s(g484
S'VVAAACP'
tp847
F1
s(g46
S'ADVVDP'
tp848
F16
s(S'VP'
S'VADDP'
tp849
F1
s(S'PP'
S'APADVNP'
tp850
F1
s(g20
S'DADVPP'
tp851
F9
s(S'AP'
S'AMP'
tp852
F30
s(S'CP'
S'CCADP'
tp853
F6
s(g105
S'ADVNNCP'
tp854
F1
s(S'DP'
S'ADVDAP'
tp855
F1
s(S'NP'
S'NNNPPP'
tp856
F1
s(S'AP'
S'ADVAPP'
tp857
F2
s(S'PP'
S'ADVADVPVVP'
tp858
F1
s(g369
S'AACDP'
tp859
F7
s(g782
S'NNNCCP'
tp860
F3
s(S'CP'
S'CCDDDP'
tp861
F3
s(g493
S'ADVDPPP'
tp862
F4
s(g20
S'DVP'
tp863
F146
s(S'VP'
S'AVNNP'
tp864
F1
s(S'NP'
S'ADVNPP'
tp865
F3
s(S'NP'
S'NNCCCP'
tp866
F1
s(g445
S'AVP'
tp867
F31
s(S'NP'
S'NADVVP'
tp868
F7
s(S'NP'
S'AAANNVP'
tp869
F1
s(g686
S'DDPPP'
tp870
F17
s(g401
S'ADVNMP'
tp871
F4
s(S'NP'
S'NNAP'
tp872
F4
s(g380
S'PPANP'
tp873
F4
s(S'PP'
S'PPCCP'
tp874
F1
s(S'NP'
S'NNADVAP'
tp875
F1
s(g73
S'VNP'
tp876
F166
s(g73
S'VANP'
tp877
F21
s(g433
S'CADVDPP'
tp878
F11
s(S'VP'
S'VADVAP'
tp879
F5
s(S'PP'
S'PPADVNP'
tp880
F2
s(S'DP'
S'DDDDVP'
tp881
F1
s(S'CP'
S'CADADVAPP'
tp882
F1
s.