ccollections
defaultdict
p1
(c__builtin__
float
p2
tRp3
(S'MP'
p4
S'MMDP'
tp5
F1
s(S'VP'
S'ADVVVVANP'
tp6
F1
s(S'NP'
p7
S'NAMP'
tp8
F7
s(S'DP'
S'DDMMP'
tp9
F1
s(S'DP'
S'DVVVVP'
tp10
F3
s(S'CP'
S'CAAADPP'
tp11
F5
s(S'DP'
S'DDMP'
tp12
F4
s(S'DP'
p13
S'ADDPP'
tp14
F6
s(S'DP'
p15
S'DDAP'
tp16
F4
s(S'VP'
S'ADVVVNP'
tp17
F3
s(S'CP'
S'CCDDDDP'
tp18
F2
s(S'VP'
S'VVVVP'
tp19
F3
s(S'DP'
p20
S'DAANNP'
tp21
F2
s(S'NP'
S'NADDP'
tp22
F1
s(S'AP'
S'AVVVP'
tp23
F2
s(S'PP'
p24
S'PAPP'
tp25
F22
s(S'DP'
S'ADVDDPPPP'
tp26
F1
s(S'PP'
S'PADVNP'
tp27
F35
s(S'DP'
p28
S'DNP'
tp29
F830
s(S'CP'
S'CDADVADVPPP'
tp30
F2
s(S'PP'
p31
S'PPPPPPPP'
tp32
F1
s(S'NP'
S'ANCCCP'
tp33
F1
s(S'NP'
S'ADVNDP'
tp34
F2
s(S'PP'
S'AAPDDP'
tp35
F4
s(S'VP'
S'ADVVNNP'
tp36
F9
s(S'AP'
S'ADVADVADVACP'
tp37
F1
s(S'CP'
p38
S'CDPPP'
tp39
F222
s(S'DP'
S'ADVADVDDNNP'
tp40
F1
s(S'VP'
p41
S'AVADVDDP'
tp42
F1
s(S'VP'
p43
S'VADP'
tp44
F44
s(S'DP'
p45
S'DNNNNP'
tp46
F2
s(S'CP'
p47
S'ACADVADVDP'
tp48
F1
s(S'DP'
S'DACCP'
tp49
F1
s(S'DP'
S'DAAP'
tp50
F13
s(S'PP'
S'PPAVP'
tp51
F3
s(S'MP'
p52
S'MPDP'
tp53
F5
s(S'DP'
S'DADVADVADVADVNP'
tp54
F1
s(S'VP'
S'VAVP'
tp55
F3
s(S'PP'
S'APPDP'
tp56
F3
s(S'AP'
S'AADVMP'
tp57
F1
s(S'DP'
p58
S'DAADP'
tp59
F4
s(S'DP'
S'ADNNP'
tp60
F10
s(S'VP'
S'AVADVDP'
tp61
F1
s(S'AP'
S'AAADVPPP'
tp62
F1
s(S'PP'
S'ADVPPPP'
tp63
F1
s(S'MP'
S'MDVP'
tp64
F1
s(S'NP'
S'AANAAP'
tp65
F1
s(S'PP'
S'PADVADVADVADVDDP'
tp66
F1
s(S'NP'
p67
S'AANNCCP'
tp68
F2
s(S'CP'
S'AACADVDP'
tp69
F1
s(S'MP'
S'MVDP'
tp70
F55
s(S'PP'
p71
S'PADVANP'
tp72
F2
s(S'NP'
S'AANNPP'
tp73
F1
s(S'PP'
p74
S'PPPP'
tp75
F95
s(S'DP'
p76
S'DDDNP'
tp77
F7
s(S'VP'
S'VACP'
tp78
F10
s(S'AP'
S'AAAVP'
tp79
F2
s(S'PP'
S'PPPAAP'
tp80
F2
s(S'DP'
p81
S'DADVVP'
tp82
F22
s(S'DP'
S'DDAANP'
tp83
F1
s(S'CP'
S'CAAAADPP'
tp84
F2
s(S'VP'
p85
S'ADVVVANP'
tp86
F1
s(S'PP'
p87
S'PADVNNP'
tp88
F3
s(S'NP'
S'NADVACP'
tp89
F1
s(S'VP'
S'AVVCP'
tp90
F1
s(S'NP'
S'NAAVVP'
tp91
F1
s(S'NP'
S'NDDDP'
tp92
F5
s(S'NP'
p93
S'NCCCP'
tp94
F11
s(S'CP'
S'CADVADVDDPP'
tp95
F1
s(S'PP'
S'ADVPNNP'
tp96
F3
s(S'VP'
S'VCP'
tp97
F409
s(S'NP'
S'NMMP'
tp98
F16
s(S'VP'
S'VVAANNP'
tp99
F1
s(S'NP'
S'NANP'
tp100
F4
s(S'VP'
S'ADVVAAP'
tp101
F2
s(S'NP'
S'NNADVAP'
tp102
F4
s(S'MP'
S'MNCCP'
tp103
F1
s(S'NP'
S'NNNPPPP'
tp104
F1
s(S'VP'
p105
S'ADVVCCP'
tp106
F3
s(S'PP'
S'ADVPADP'
tp107
F1
s(S'PP'
p108
S'PAP'
tp109
F446
s(S'MP'
S'MADVVCCP'
tp110
F1
s(S'MP'
p111
S'MMVVP'
tp112
F2
s(S'VP'
S'VADVADVAP'
tp113
F5
s(S'PP'
p114
S'ADVPPVP'
tp115
F3
s(S'NP'
S'NNNAP'
tp116
F4
s(g24
S'APVVP'
tp117
F7
s(S'PP'
p118
S'PPADVDP'
tp119
F2
s(S'MP'
S'AMVP'
tp120
F8
s(S'PP'
p121
S'PNP'
tp122
F1449
s(S'AP'
S'ADVADVADVACCP'
tp123
F1
s(S'AP'
S'AADVADVDP'
tp124
F2
s(S'PP'
S'PAAADP'
tp125
F1
s(S'DP'
S'DDP'
tp126
F180
s(S'NP'
S'AANADVADVVP'
tp127
F1
s(S'VP'
S'ADVVDDP'
tp128
F2
s(S'NP'
p129
S'NNNPP'
tp130
F16
s(S'VP'
S'VCCP'
tp131
F43
s(S'PP'
S'PPPDDDDP'
tp132
F1
s(S'MP'
S'MCDP'
tp133
F28
s(S'PP'
S'ADVPCP'
tp134
F4
s(S'PP'
S'ADVADVPPDP'
tp135
F2
s(S'DP'
p136
S'DADVDDP'
tp137
F1
s(S'MP'
S'AMPP'
tp138
F1
s(S'VP'
S'ADVADVVVCP'
tp139
F1
s(S'NP'
S'NMP'
tp140
F245
s(S'PP'
S'PVVVVP'
tp141
F1
s(S'PP'
S'PPMMP'
tp142
F2
s(S'DP'
p143
S'DADVADVDDP'
tp144
F1
s(S'CP'
S'CADVDADVPP'
tp145
F1
s(S'VP'
S'VAAADP'
tp146
F1
s(S'VP'
S'AAVNP'
tp147
F1
s(S'VP'
S'VMMP'
tp148
F2
s(g121
S'PDP'
tp149
F841
s(S'CP'
S'CCADVADVDP'
tp150
F1
s(S'CP'
S'CDADVADVPP'
tp151
F10
s(S'NP'
S'ADVNVVP'
tp152
F4
s(S'VP'
S'VNNNNP'
tp153
F1
s(S'MP'
S'MNNVP'
tp154
F1
s(S'NP'
S'AAANVVP'
tp155
F1
s(S'MP'
S'MADVVNP'
tp156
F3
s(S'DP'
S'DADVADVVP'
tp157
F2
s(S'CP'
p158
S'CDDDPPPPP'
tp159
F1
s(S'VP'
S'AVAAP'
tp160
F1
s(S'VP'
S'AAAVCP'
tp161
F1
s(S'CP'
S'ACADVADP'
tp162
F1
s(S'NP'
p163
S'NACCP'
tp164
F3
s(S'NP'
S'ADVADVADVNADVVVVP'
tp165
F1
s(S'PP'
S'ADVPAAP'
tp166
F1
s(g93
S'NADVADVADVVP'
tp167
F2
s(S'PP'
S'PADVPP'
tp168
F8
s(S'NP'
S'ADVADVADVADVNCP'
tp169
F1
s(S'VP'
S'AAVPP'
tp170
F2
s(S'PP'
S'PAMMP'
tp171
F1
s(S'PP'
p172
S'ADVADVPPVVP'
tp173
F1
s(S'CP'
S'CDDAPPP'
tp174
F1
s(S'PP'
p175
S'PPADVAP'
tp176
F1
s(S'NP'
p177
S'ANACCCP'
tp178
F1
s(S'DP'
S'AADDVP'
tp179
F1
s(S'NP'
p180
S'ADVANVP'
tp181
F5
s(S'PP'
p182
S'ADVADVAPPP'
tp183
F2
s(S'DP'
S'DPPPP'
tp184
F26
s(g15
S'DDANP'
tp185
F8
s(S'PP'
S'PADVADP'
tp186
F2
s(g129
S'NACP'
tp187
F70
s(S'AP'
S'ADVAVP'
tp188
F3
s(S'NP'
p189
S'NCCP'
tp190
F160
s(S'VP'
S'AAAVPP'
tp191
F1
s(S'AP'
S'AAAADP'
tp192
F3
s(S'NP'
p193
S'NNCP'
tp194
F308
s(g136
S'ADVDDPP'
tp195
F4
s(S'NP'
p196
S'NADVADVVP'
tp197
F10
s(S'DP'
S'DDDDP'
tp198
F12
s(S'DP'
p199
S'DDDDDPPP'
tp200
F1
s(S'CP'
S'CCDDDDDP'
tp201
F1
s(S'VP'
S'AVNP'
tp202
F24
s(S'VP'
S'VVADP'
tp203
F4
s(S'MP'
S'MADVADVADVVCP'
tp204
F1
s(S'NP'
S'NADVADVPP'
tp205
F1
s(S'PP'
S'PADVADVANP'
tp206
F1
s(S'NP'
p207
S'NADVADVCCP'
tp208
F1
s(S'DP'
S'ADVADVDANP'
tp209
F2
s(S'PP'
S'ADVAPDP'
tp210
F2
s(S'VP'
S'VVMP'
tp211
F2
s(S'VP'
S'ADVADVAVNP'
tp212
F1
s(S'VP'
S'VADVVP'
tp213
F7
s(S'VP'
S'ADVADVADVVNP'
tp214
F3
s(S'MP'
S'MVAPP'
tp215
F1
s(S'CP'
S'CAAADDPP'
tp216
F1
s(S'PP'
S'ADVAPPNP'
tp217
F1
s(S'NP'
S'ANADVVP'
tp218
F1
s(S'PP'
S'ADVAPVP'
tp219
F4
s(S'DP'
S'ADVVVP'
tp220
F1
s(S'MP'
S'AMMVP'
tp221
F1
s(S'NP'
p222
S'NCCCCP'
tp223
F2
s(S'CP'
S'CCCDP'
tp224
F22
s(S'VP'
S'ADVVAP'
tp225
F14
s(S'PP'
S'ADVPPNNP'
tp226
F1
s(S'VP'
S'VCCCP'
tp227
F2
s(S'PP'
S'PADVVVP'
tp228
F2
s(S'PP'
S'APDP'
tp229
F77
s(S'NP'
S'NNADVADVADVCCP'
tp230
F1
s(S'VP'
S'VADVNNP'
tp231
F2
s(S'NP'
S'ADVNPPP'
tp232
F1
s(S'PP'
p233
S'PADVADVADVPP'
tp234
F1
s(S'AP'
S'AADVCP'
tp235
F3
s(S'MP'
S'MADVVVCCP'
tp236
F1
s(S'MP'
S'MVADVVP'
tp237
F1
s(S'PP'
S'PPANNP'
tp238
F1
s(S'AP'
S'AADVACP'
tp239
F3
s(S'VP'
S'VVANP'
tp240
F7
s(S'MP'
S'ADVMPP'
tp241
F1
s(S'VP'
S'VVVVDP'
tp242
F4
s(S'VP'
S'ADVVVP'
tp243
F4
s(S'CP'
S'ADVACDP'
tp244
F3
s(S'DP'
S'DADVADVADVPP'
tp245
F3
s(S'NP'
S'NNAADP'
tp246
F1
s(S'NP'
S'ADVNCP'
tp247
F23
s(S'NP'
S'ADVANCP'
tp248
F3
s(S'DP'
p249
S'DNNP'
tp250
F141
s(S'DP'
p251
S'DPPPPP'
tp252
F3
s(g38
S'CDDPPPP'
tp253
F4
s(S'CP'
S'CCADVDP'
tp254
F9
s(S'PP'
p255
S'PPAADP'
tp256
F1
s(S'VP'
p257
S'VVACP'
tp258
F4
s(S'DP'
S'ADDNP'
tp259
F1
s(S'NP'
S'NNNVP'
tp260
F12
s(S'VP'
p261
S'VDP'
tp262
F828
s(S'PP'
p263
S'AAPPDP'
tp264
F3
s(S'PP'
S'PPPPPP'
tp265
F1
s(g74
S'PADVVP'
tp266
F18
s(S'DP'
S'DACP'
tp267
F1
s(S'PP'
S'PADVADVADVAP'
tp268
F2
s(S'PP'
S'APAP'
tp269
F11
s(S'VP'
S'ADVADVVDDP'
tp270
F1
s(S'CP'
S'ADVADVCDP'
tp271
F12
s(S'VP'
S'VMMMP'
tp272
F1
s(S'AP'
S'ACCCP'
tp273
F1
s(S'NP'
S'ADVANNPP'
tp274
F1
s(S'AP'
p275
S'AAP'
tp276
F21
s(S'VP'
S'VADVADVVP'
tp277
F1
s(S'CP'
p278
S'CADVADPP'
tp279
F12
s(S'NP'
S'ADVADVNDP'
tp280
F1
s(S'DP'
S'DAAAPP'
tp281
F3
s(S'AP'
S'AAADVDDP'
tp282
F1
s(S'NP'
S'ADVANPP'
tp283
F2
s(S'VP'
S'VVVVPP'
tp284
F2
s(S'DP'
S'DAAVP'
tp285
F5
s(S'CP'
S'CDDDDPP'
tp286
F5
s(S'MP'
p287
S'MPVP'
tp288
F2
s(S'MP'
S'MVVVNP'
tp289
F2
s(S'PP'
S'PAANP'
tp290
F24
s(S'VP'
S'VADVADVCP'
tp291
F3
s(S'PP'
p292
S'PPVVP'
tp293
F13
s(S'VP'
S'VAACP'
tp294
F6
s(S'VP'
S'VAAAP'
tp295
F2
s(S'VP'
S'VVAVP'
tp296
F1
s(S'MP'
S'MVNP'
tp297
F71
s(S'AP'
S'AAAAPP'
tp298
F1
s(S'NP'
S'NNANP'
tp299
F1
s(S'VP'
S'ADVADVADVADVVCP'
tp300
F1
s(S'NP'
S'ANAAP'
tp301
F2
s(S'CP'
S'CDDDPPP'
tp302
F7
s(S'DP'
p303
S'ADVADNP'
tp304
F3
s(S'PP'
S'PAVP'
tp305
F41
s(g158
S'CDADVADVAPP'
tp306
F3
s(S'MP'
S'ADVMVP'
tp307
F4
s(S'PP'
S'ADVAPNNP'
tp308
F2
s(S'VP'
S'ADVVMP'
tp309
F1
s(S'MP'
S'MDANP'
tp310
F3
s(S'DP'
p311
S'DDAPPP'
tp312
F3
s(S'VP'
S'VVVPP'
tp313
F6
s(S'CP'
S'CADVADVADPP'
tp314
F1
s(S'NP'
S'NMMMMP'
tp315
F2
s(S'PP'
S'APPPP'
tp316
F8
s(S'DP'
S'DADP'
tp317
F17
s(S'DP'
S'ADVDVVP'
tp318
F2
s(S'AP'
S'ADVADP'
tp319
F10
s(S'AP'
S'APP'
tp320
F128
s(S'CP'
S'AAACDDDP'
tp321
F1
s(S'VP'
p322
S'VVADVPP'
tp323
F1
s(S'DP'
S'ADVDDP'
tp324
F2
s(S'PP'
S'APDDP'
tp325
F7
s(S'AP'
S'AAADVCP'
tp326
F1
s(S'AP'
S'AAAACCP'
tp327
F1
s(S'MP'
p328
S'MNACP'
tp329
F1
s(S'NP'
S'ADVNAP'
tp330
F1
s(S'DP'
S'DAAAVP'
tp331
F2
s(S'PP'
S'PPCP'
tp332
F3
s(S'NP'
S'AAANNPP'
tp333
F1
s(g257
S'ADVVNP'
tp334
F29
s(S'DP'
S'DAAAP'
tp335
F1
s(S'MP'
S'MNCP'
tp336
F3
s(S'VP'
S'ADVADVADVVCP'
tp337
F3
s(S'VP'
p338
S'VVNP'
tp339
F104
s(S'PP'
p340
S'ADVPAVP'
tp341
F1
s(g121
S'PPPNNP'
tp342
F4
s(S'DP'
S'DADVCCP'
tp343
F1
s(S'PP'
S'PPVP'
tp344
F105
s(S'CP'
S'CADVDDPPPP'
tp345
F1
s(S'PP'
p346
S'ADVPAADP'
tp347
F1
s(S'VP'
p348
S'VADVDP'
tp349
F11
s(S'NP'
p350
S'NADVMP'
tp351
F5
s(S'VP'
S'VVADVAP'
tp352
F2
s(S'VP'
S'VAAP'
tp353
F42
s(S'NP'
S'NNADVAVP'
tp354
F1
s(g251
S'ADVDDANP'
tp355
F1
s(S'NP'
S'ANDP'
tp356
F22
s(g193
S'NVVP'
tp357
F128
s(S'PP'
S'AAPVP'
tp358
F2
s(S'PP'
p359
S'PPADP'
tp360
F3
s(g85
S'VMP'
tp361
F42
s(S'CP'
S'CDDDPPPP'
tp362
F1
s(S'VP'
S'VVNNP'
tp363
F13
s(S'CP'
p364
S'CDAPP'
tp365
F117
s(g322
S'VVAAP'
tp366
F7
s(S'VP'
S'AVANNNP'
tp367
F1
s(S'DP'
p368
S'ADVADVP'
tp369
F1
s(S'DP'
S'DAMP'
tp370
F1
s(g249
S'ADNP'
tp371
F47
s(S'VP'
S'AVVDP'
tp372
F1
s(S'AP'
p373
S'ADVADVAACCP'
tp374
F1
s(S'AP'
S'AAAAADP'
tp375
F1
s(S'MP'
S'ADVADVMVP'
tp376
F2
s(S'PP'
S'PADP'
tp377
F39
s(S'DP'
S'DDAAAPP'
tp378
F1
s(S'VP'
S'ADVVVCP'
tp379
F2
s(S'PP'
S'PAAPP'
tp380
F2
s(S'NP'
S'NADVADVADVVVP'
tp381
F1
s(S'NP'
p382
S'ANDDP'
tp383
F3
s(S'NP'
S'ADVADVADVANDP'
tp384
F1
s(S'DP'
S'ADVADVDVP'
tp385
F3
s(S'VP'
p386
S'VVVDDP'
tp387
F3
s(S'DP'
S'AAADDPP'
tp388
F1
s(S'PP'
S'PPVVVVP'
tp389
F1
s(S'MP'
p390
S'MANVVP'
tp391
F1
s(S'DP'
p392
S'DAPP'
tp393
F184
s(S'VP'
S'AVVP'
tp394
F2
s(S'MP'
S'MVVCP'
tp395
F4
s(S'VP'
p396
S'ADVADVVPP'
tp397
F3
s(S'MP'
S'MADVADVVNP'
tp398
F2
s(S'VP'
S'VADVADVNP'
tp399
F3
s(S'VP'
S'ADVADVADVVDP'
tp400
F1
s(S'PP'
S'AAAPVP'
tp401
F1
s(S'VP'
S'VVAANP'
tp402
F1
s(S'VP'
p403
S'ADVADVVDP'
tp404
F8
s(S'VP'
S'AVVNP'
tp405
F1
s(S'PP'
p406
S'PPPDP'
tp407
F9
s(S'PP'
S'AAAPVVP'
tp408
F1
s(S'DP'
S'DAAPPP'
tp409
F3
s(S'PP'
S'ADVADVPNNP'
tp410
F1
s(S'PP'
S'AAAPDP'
tp411
F2
s(S'MP'
S'MVVAP'
tp412
F1
s(g350
S'NNNCCCP'
tp413
F1
s(S'MP'
S'MMAAP'
tp414
F1
s(S'DP'
p415
S'DAAANP'
tp416
F2
s(S'DP'
S'DADVANP'
tp417
F1
s(S'VP'
S'VAAPP'
tp418
F1
s(S'DP'
S'ADVDNP'
tp419
F15
s(S'AP'
S'ADVADVADVAVP'
tp420
F1
s(g261
S'VVPP'
tp421
F56
s(S'DP'
S'ADADVPP'
tp422
F2
s(S'PP'
S'PAVVP'
tp423
F1
s(S'MP'
S'MVPP'
tp424
F24
s(g249
S'ADVP'
tp425
F22
s(S'MP'
S'MVADP'
tp426
F2
s(g275
S'ADVADVANNNP'
tp427
F1
s(S'CP'
p428
S'CDDPPP'
tp429
F44
s(S'PP'
S'PPAVVP'
tp430
F1
s(g118
S'PPPAP'
tp431
F2
s(S'NP'
S'AANADVADVCP'
tp432
F2
s(S'MP'
S'MMMMADVVP'
tp433
F2
s(S'NP'
p434
S'NNPP'
tp435
F88
s(S'NP'
S'NADVADVDP'
tp436
F1
s(g47
S'CCCADVDP'
tp437
F1
s(S'MP'
S'MVVDP'
tp438
F13
s(S'DP'
S'DADVPPP'
tp439
F3
s(S'NP'
p440
S'ANVP'
tp441
F56
s(S'CP'
p442
S'CADVDAPP'
tp443
F3
s(S'DP'
p444
S'DNNNP'
tp445
F22
s(g81
S'DDDDDDDDDDDP'
tp446
F1
s(S'DP'
S'ADVDADVPP'
tp447
F1
s(S'MP'
S'MPPDP'
tp448
F1
s(S'DP'
S'ADVDDVP'
tp449
F1
s(S'PP'
S'PADVADVVP'
tp450
F3
s(S'PP'
S'PMMP'
tp451
F3
s(S'PP'
p452
S'PVVVP'
tp453
F9
s(S'PP'
p454
S'PMP'
tp455
F59
s(S'NP'
S'NNMMP'
tp456
F4
s(S'PP'
S'PADVADVADVVP'
tp457
F1
s(S'MP'
S'MCCDP'
tp458
F1
s(g428
S'CCDP'
tp459
F267
s(S'DP'
S'ADVADVADVDPP'
tp460
F1
s(g348
S'VADVANP'
tp461
F5
s(g121
S'PPNNNP'
tp462
F2
s(S'CP'
S'ACCCDP'
tp463
F1
s(S'DP'
p464
S'AADDPP'
tp465
F3
s(S'DP'
S'DDDMP'
tp466
F1
s(S'NP'
S'NVVVP'
tp467
F21
s(S'CP'
S'CDDDPP'
tp468
F34
s(S'PP'
S'PADVADVADVADVNP'
tp469
F1
s(S'CP'
S'CDAAPP'
tp470
F15
s(S'DP'
S'DCCCP'
tp471
F1
s(S'MP'
S'AAMPP'
tp472
F1
s(S'VP'
p473
S'VVVDP'
tp474
F17
s(S'PP'
p475
S'PDDDDP'
tp476
F2
s(g121
S'PNNNP'
tp477
F24
s(S'CP'
S'CCCCDP'
tp478
F9
s(S'VP'
S'VADVADVADVDDP'
tp479
F1
s(g359
S'PADVADVADVNNP'
tp480
F1
s(S'AP'
S'AACCP'
tp481
F3
s(g359
S'AAPNP'
tp482
F3
s(S'PP'
S'PPPCP'
tp483
F1
s(S'CP'
S'CADADVPP'
tp484
F1
s(S'VP'
p485
S'ADVVVDP'
tp486
F4
s(g452
S'PPP'
tp487
F357
s(S'NP'
S'NNVVP'
tp488
F18
s(S'NP'
p489
S'NAVP'
tp490
F42
s(S'DP'
S'ADVADVDDNP'
tp491
F2
s(S'DP'
S'DDNNNP'
tp492
F2
s(S'MP'
S'AMDP'
tp493
F4
s(g346
S'PADDP'
tp494
F1
s(g13
S'ADVDVP'
tp495
F15
s(S'PP'
p496
S'PPADVADVNP'
tp497
F2
s(S'NP'
S'NAAAP'
tp498
F2
s(S'NP'
S'NADVVVP'
tp499
F11
s(S'DP'
S'DADVADVPPP'
tp500
F4
s(S'CP'
S'CCADVADVADVDP'
tp501
F1
s(S'PP'
S'PPPPDP'
tp502
F1
s(g328
S'MADVADVVPP'
tp503
F1
s(S'MP'
S'MVVVNNP'
tp504
F1
s(S'CP'
S'CADPP'
tp505
F211
s(g261
S'VPP'
tp506
F425
s(S'CP'
S'ADVCCDP'
tp507
F7
s(S'NP'
S'NNNADVCP'
tp508
F1
s(S'CP'
S'ACCDP'
tp509
F5
s(S'CP'
S'CDAAAAPP'
tp510
F1
s(S'NP'
S'AANPPP'
tp511
F1
s(g193
S'NNNCP'
tp512
F38
s(g454
S'PADVDP'
tp513
F18
s(g442
S'CDADVAPP'
tp514
F5
s(g292
S'PPPAAVP'
tp515
F1
s(S'AP'
S'ADVAADP'
tp516
F3
s(S'DP'
S'DANNP'
tp517
F3
s(S'MP'
S'MADVVAP'
tp518
F2
s(S'PP'
S'PADVAAP'
tp519
F1
s(S'CP'
S'CDDPP'
tp520
F312
s(S'AP'
S'AAAAAPPP'
tp521
F1
s(g444
S'DAAPP'
tp522
F23
s(S'PP'
S'PVVP'
tp523
F83
s(S'CP'
S'CADPPP'
tp524
F11
s(S'AP'
S'AACP'
tp525
F52
s(S'CP'
S'ACDDDP'
tp526
F1
s(S'VP'
p527
S'ADVVCP'
tp528
F21
s(S'NP'
S'NNADVADVDDP'
tp529
F1
s(g257
S'VPPP'
tp530
F38
s(S'VP'
S'ADVADVVVCCP'
tp531
F1
s(S'PP'
S'PPADVADVDP'
tp532
F1
s(g199
S'ADDDDDDDP'
tp533
F1
s(S'VP'
S'VVPPP'
tp534
F4
s(S'DP'
S'ADADVADVVP'
tp535
F1
s(S'NP'
S'ADVNAMP'
tp536
F1
s(g118
S'PPAP'
tp537
F32
s(S'DP'
S'DVVP'
tp538
F91
s(S'CP'
p539
S'ADVACDDP'
tp540
F1
s(S'NP'
S'ANMP'
tp541
F9
s(S'AP'
S'APPP'
tp542
F12
s(S'PP'
S'ADVPPP'
tp543
F12
s(g67
S'ADVADVNVP'
tp544
F3
s(g338
S'VVVP'
tp545
F9
s(g28
S'DDPPPP'
tp546
F4
s(S'VP'
S'ADVADVVCCP'
tp547
F1
s(S'VP'
S'AVMP'
tp548
F2
s(S'PP'
S'ADVAPPPP'
tp549
F1
s(S'NP'
S'ANCP'
tp550
F125
s(S'DP'
S'ADVADVDCP'
tp551
F1
s(g13
S'DCP'
tp552
F64
s(S'PP'
S'ADVAPPP'
tp553
F1
s(g440
S'ANNCP'
tp554
F8
s(S'DP'
S'DDDNNP'
tp555
F2
s(S'AP'
S'AAAPP'
tp556
F2
s(S'VP'
S'ADVVVVP'
tp557
F1
s(S'DP'
S'DADVCP'
tp558
F1
s(S'NP'
S'NNVVVVP'
tp559
F3
s(S'DP'
S'DADVADVAAP'
tp560
F1
s(S'MP'
S'MAAVVAAP'
tp561
F1
s(S'DP'
S'DDDP'
tp562
F54
s(S'AP'
S'ADDDDP'
tp563
F1
s(g415
S'DDADVPP'
tp564
F4
s(S'NP'
S'NNADVADVADVAPP'
tp565
F2
s(S'MP'
S'MAADP'
tp566
F4
s(S'NP'
S'ANVVP'
tp567
F11
s(S'VP'
S'ADVADVADVVVAAP'
tp568
F1
s(S'NP'
S'NVVVVP'
tp569
F5
s(S'NP'
p570
S'NPPP'
tp571
F70
s(S'DP'
S'ADDDP'
tp572
F2
s(g81
S'DDDDDDDPP'
tp573
F1
s(S'DP'
S'DAVP'
tp574
F39
s(S'VP'
S'VAAAANP'
tp575
F1
s(S'CP'
S'CDADVADVADVPP'
tp576
F3
s(S'NP'
S'NNNNMP'
tp577
F1
s(S'AP'
S'ACP'
tp578
F275
s(S'PP'
S'AAPAP'
tp579
F2
s(S'PP'
S'ADVADVPPP'
tp580
F4
s(S'PP'
S'PPNP'
tp581
F192
s(S'MP'
p582
S'MADVVPP'
tp583
F5
s(S'NP'
S'NAADP'
tp584
F2
s(g464
S'ADVDAPP'
tp585
F4
s(S'DP'
S'AADVP'
tp586
F2
s(S'CP'
S'CDADVAPPP'
tp587
F1
s(S'VP'
S'VVVVNNP'
tp588
F1
s(S'VP'
S'VAANNP'
tp589
F2
s(S'PP'
S'PPPADVAP'
tp590
F1
s(S'CP'
S'CDDADVPP'
tp591
F1
s(S'CP'
S'CCCDDP'
tp592
F3
s(g275
S'ADP'
tp593
F737
s(S'DP'
S'DADVADVADVVP'
tp594
F1
s(S'PP'
p595
S'APMP'
tp596
F5
s(S'CP'
S'CADVDPP'
tp597
F57
s(S'MP'
S'MADVVACP'
tp598
F1
s(S'NP'
p599
S'ANPPP'
tp600
F7
s(S'MP'
S'MADVADVADVVVCP'
tp601
F1
s(S'PP'
S'PPAPP'
tp602
F1
s(S'MP'
S'MDPP'
tp603
F2
s(S'DP'
S'AAAADPP'
tp604
F2
s(g31
S'PPPAVP'
tp605
F1
s(S'VP'
S'VAAANP'
tp606
F1
s(S'MP'
S'MADDP'
tp607
F3
s(g182
S'PPPPNNP'
tp608
F1
s(S'VP'
S'VVPPPP'
tp609
F1
s(S'NP'
S'NADVADVAP'
tp610
F1
s(S'VP'
S'AAAVDP'
tp611
F1
s(S'PP'
S'ADVAPADVNP'
tp612
F1
s(S'VP'
S'ADVVVCCP'
tp613
F1
s(S'VP'
p614
S'AVDP'
tp615
F62
s(S'NP'
S'ANNVP'
tp616
F1
s(S'DP'
S'DADVAPPP'
tp617
F1
s(g41
S'VVAP'
tp618
F29
s(S'NP'
S'NNAPP'
tp619
F3
s(S'MP'
p620
S'MNADVVP'
tp621
F1
s(S'DP'
p622
S'AADDVVP'
tp623
F2
s(S'PP'
S'PADVADVDP'
tp624
F7
s(S'MP'
S'MMANP'
tp625
F4
s(S'DP'
S'DMMP'
tp626
F1
s(g172
S'PADVADVPPP'
tp627
F1
s(S'PP'
S'PADVMP'
tp628
F1
s(S'NP'
S'NADVAPP'
tp629
F1
s(S'DP'
S'ADVADVADVDDPP'
tp630
F2
s(S'NP'
p631
S'NVP'
tp632
F889
s(S'PP'
S'PPAMP'
tp633
F2
s(S'PP'
S'PPVVVP'
tp634
F2
s(S'PP'
S'PAAVP'
tp635
F8
s(g207
S'NAAPP'
tp636
F2
s(S'DP'
S'DDDDNNP'
tp637
F1
s(S'VP'
S'VDDP'
tp638
F89
s(S'MP'
S'MVADVADVCP'
tp639
F2
s(g346
S'APMMP'
tp640
F2
s(S'AP'
p641
S'AAADVDP'
tp642
F2
s(S'NP'
S'AANNVP'
tp643
F2
s(S'DP'
S'DADVADVADP'
tp644
F1
s(S'NP'
S'AANVVP'
tp645
F5
s(S'DP'
S'DADVAPP'
tp646
F10
s(S'PP'
p647
S'ADVAPAP'
tp648
F1
s(S'NP'
S'NADVADVVVP'
tp649
F2
s(g440
S'ANPP'
tp650
F81
s(S'PP'
S'ADVPPDP'
tp651
F3
s(S'PP'
S'PPPPP'
tp652
F22
s(S'NP'
S'ADVANVVVVP'
tp653
F1
s(S'PP'
S'ADVADVPDP'
tp654
F2
s(S'MP'
S'MVVPP'
tp655
F6
s(S'VP'
S'ADVADVADVVAP'
tp656
F1
s(S'DP'
S'ADVDPP'
tp657
F82
s(S'NP'
S'AAANVVVVP'
tp658
F1
s(g473
S'ADVADVVADVAP'
tp659
F1
s(S'NP'
S'ADVADVNPP'
tp660
F1
s(S'AP'
S'AAADVCCP'
tp661
F1
s(S'NP'
S'NPPPP'
tp662
F8
s(S'DP'
S'ADDP'
tp663
F3
s(S'NP'
S'NADVAAP'
tp664
F1
s(S'NP'
S'NNCCCCP'
tp665
F3
s(S'DP'
S'ADDPPPP'
tp666
F1
s(S'CP'
S'CAADPP'
tp667
F23
s(S'DP'
S'DDADVADVPPP'
tp668
F1
s(S'NP'
S'NAACP'
tp669
F10
s(S'PP'
p670
S'PNNP'
tp671
F184
s(S'PP'
p672
S'APNNP'
tp673
F8
s(S'DP'
S'DAAVVP'
tp674
F2
s(S'MP'
S'MMNP'
tp675
F1
s(S'DP'
S'AAADPP'
tp676
F5
s(S'NP'
S'NAAACP'
tp677
F1
s(S'VP'
S'AVAP'
tp678
F3
s(S'MP'
S'MMVP'
tp679
F18
s(S'PP'
S'PADVDDP'
tp680
F4
s(S'PP'
p681
S'ADVADVAPDP'
tp682
F2
s(g24
S'PCCP'
tp683
F6
s(S'DP'
S'DDADVADVPP'
tp684
F1
s(S'AP'
S'AADP'
tp685
F104
s(S'MP'
S'MPDDP'
tp686
F1
s(S'VP'
S'VAPPP'
tp687
F1
s(S'CP'
S'ACDP'
tp688
F81
s(g255
S'PAAP'
tp689
F64
s(S'AP'
S'ADVANP'
tp690
F5
s(S'NP'
S'NNACP'
tp691
F4
s(S'VP'
S'VVADVNP'
tp692
F2
s(g390
S'MDNNP'
tp693
F2
s(S'CP'
S'CDADVPPP'
tp694
F1
s(S'VP'
S'VAP'
tp695
F394
s(S'CP'
S'CADVDDPPP'
tp696
F1
s(S'VP'
p697
S'VVVVNP'
tp698
F3
s(g111
S'MNVVP'
tp699
F2
s(S'DP'
S'DDDPP'
tp700
F47
s(S'CP'
S'ADVCDDP'
tp701
F2
s(S'NP'
S'AANNCP'
tp702
F3
s(S'PP'
S'ADVPMP'
tp703
F4
s(S'DP'
S'DAACP'
tp704
F1
s(S'DP'
S'DDDPPPP'
tp705
F2
s(S'VP'
S'AAVVAAP'
tp706
F1
s(S'MP'
p707
S'MNMP'
tp708
F1
s(S'MP'
S'MAVPP'
tp709
F2
s(S'DP'
S'DDDPPP'
tp710
F10
s(S'VP'
S'ADVAVDP'
tp711
F1
s(S'DP'
S'ADAP'
tp712
F2
s(S'DP'
S'DADVDP'
tp713
F5
s(S'MP'
S'MVVCCP'
tp714
F1
s(S'MP'
S'ADVMAAP'
tp715
F1
s(S'AP'
S'AAACP'
tp716
F5
s(S'NP'
S'AANADVVP'
tp717
F2
s(S'AP'
S'AVVP'
tp718
F7
s(S'MP'
S'MAVP'
tp719
F2
s(S'PP'
S'PPPVP'
tp720
F6
s(S'VP'
S'AAVAP'
tp721
F2
s(S'AP'
S'AADDP'
tp722
F14
s(S'MP'
S'MADVNVP'
tp723
F1
s(S'AP'
S'ACCCCP'
tp724
F3
s(S'VP'
S'VAANP'
tp725
F4
s(S'MP'
S'MPCP'
tp726
F2
s(S'NP'
S'NADVADVCP'
tp727
F5
s(S'DP'
S'DAAAAPP'
tp728
F1
s(S'PP'
S'PPPNNNP'
tp729
F1
s(S'MP'
S'MADVADVADVVNP'
tp730
F1
s(S'DP'
S'ADVADVADVDVP'
tp731
F1
s(g338
S'VVDP'
tp732
F114
s(S'MP'
S'MADVVANP'
tp733
F2
s(S'PP'
S'PAAAAP'
tp734
F1
s(S'DP'
S'DADVADVDP'
tp735
F2
s(S'MP'
S'MPNP'
tp736
F13
s(S'VP'
S'VVAADP'
tp737
F2
s(S'MP'
p738
S'MADP'
tp739
F14
s(g175
S'PPPDDP'
tp740
F1
s(g641
S'AMMP'
tp741
F1
s(S'CP'
S'CCAADP'
tp742
F4
s(S'AP'
S'AAACCP'
tp743
F1
s(S'DP'
S'DDADVNP'
tp744
F1
s(g672
S'PANP'
tp745
F113
s(S'PP'
p746
S'PDDDP'
tp747
F11
s(S'DP'
S'DADVADVNNP'
tp748
F1
s(S'MP'
S'MVAAANP'
tp749
F1
s(S'CP'
S'CADVADVADVADVDPP'
tp750
F1
s(S'NP'
S'AANMP'
tp751
F2
s(S'AP'
p752
S'AAVP'
tp753
F15
s(S'NP'
S'NAAP'
tp754
F30
s(S'DP'
S'ADADVAPP'
tp755
F1
s(S'NP'
p756
S'NDDP'
tp757
F35
s(S'VP'
S'VVADVDDP'
tp758
F1
s(S'CP'
S'CDDADVADVPPP'
tp759
F1
s(S'MP'
S'MVADVDP'
tp760
F1
s(S'AP'
S'ACCP'
tp761
F27
s(S'NP'
S'NNVVVP'
tp762
F6
s(S'VP'
S'VVVVAP'
tp763
F1
s(S'VP'
S'AVPPP'
tp764
F2
s(S'AP'
S'APPPP'
tp765
F1
s(g193
S'NDP'
tp766
F278
s(S'VP'
S'ADVVANP'
tp767
F3
s(S'MP'
S'MVAAP'
tp768
F1
s(S'DP'
S'DDVP'
tp769
F93
s(S'MP'
S'MMADVVVP'
tp770
F1
s(S'NP'
p771
S'AANVP'
tp772
F14
s(S'DP'
S'DADVADVAPP'
tp773
F4
s(S'DP'
S'ADDVP'
tp774
F4
s(S'VP'
S'VNNNP'
tp775
F9
s(S'VP'
S'ADVADVADVVVCP'
tp776
F1
s(S'PP'
S'ADVPAP'
tp777
F7
s(S'MP'
S'MVPPP'
tp778
F1
s(S'MP'
S'MMVVVP'
tp779
F1
s(g108
S'PCP'
tp780
F61
s(S'VP'
S'VADVADP'
tp781
F2
s(S'PP'
S'PAADDP'
tp782
F1
s(g595
S'PAADP'
tp783
F5
s(g196
S'ADVNNVP'
tp784
F2
s(S'MP'
S'MDNP'
tp785
F8
s(g403
S'VPPPP'
tp786
F5
s(S'VP'
S'VVVVANP'
tp787
F1
s(S'PP'
S'PPAAANNP'
tp788
F1
s(S'PP'
S'PACP'
tp789
F1
s(S'MP'
S'MPAP'
tp790
F2
s(S'MP'
S'MVNNNP'
tp791
F1
s(g193
S'NNNDP'
tp792
F8
s(S'AP'
S'ADVACP'
tp793
F11
s(S'NP'
S'ADVADVNMP'
tp794
F1
s(g622
S'ADVDDPPP'
tp795
F1
s(S'VP'
S'VVVAP'
tp796
F5
s(g434
S'NNVP'
tp797
F130
s(S'MP'
S'MVCP'
tp798
F25
s(S'VP'
S'VVVVVANP'
tp799
F1
s(S'CP'
S'CCDDP'
tp800
F31
s(S'NP'
S'NNADVVP'
tp801
F7
s(S'VP'
S'VVADVADVAP'
tp802
F1
s(S'VP'
S'AAVCCP'
tp803
F1
s(S'VP'
S'ADVADVADVVPP'
tp804
F1
s(S'DP'
S'DDADP'
tp805
F2
s(S'MP'
S'MVMP'
tp806
F1
s(S'PP'
S'PPAAP'
tp807
F6
s(S'NP'
S'NAAMP'
tp808
F2
s(g771
S'NNNNVP'
tp809
F2
s(g257
S'VVCP'
tp810
F65
s(S'NP'
S'AANCP'
tp811
F16
s(S'VP'
S'VADVNP'
tp812
F7
s(S'AP'
S'ADVAVVP'
tp813
F2
s(S'VP'
S'VAAAPPP'
tp814
F1
s(g475
S'APPP'
tp815
F30
s(S'DP'
S'DDDDPPP'
tp816
F1
s(g76
S'DDDAAAVP'
tp817
F1
s(S'VP'
S'ADVVPP'
tp818
F13
s(S'DP'
S'DDDPPPPP'
tp819
F1
s(S'NP'
S'ADVNNVVP'
tp820
F1
s(S'CP'
p821
S'CDAPPP'
tp822
F8
s(g338
S'VNNP'
tp823
F99
s(S'AP'
S'AADVDP'
tp824
F8
s(S'DP'
S'ADVDADVVP'
tp825
F1
s(S'NP'
S'NADP'
tp826
F15
s(S'MP'
p827
S'MMCP'
tp828
F2
s(S'DP'
S'ADCP'
tp829
F1
s(S'DP'
S'DDNP'
tp830
F110
s(S'CP'
S'ACADVDP'
tp831
F1
s(g440
S'NADVCP'
tp832
F20
s(S'DP'
S'DDADVVVP'
tp833
F1
s(S'PP'
S'AAPPP'
tp834
F4
s(g368
S'DDDVVVP'
tp835
F1
s(S'VP'
S'VPPPPP'
tp836
F1
s(S'VP'
p837
S'ADVAVPP'
tp838
F2
s(S'DP'
S'ADVDDVVP'
tp839
F1
s(S'DP'
S'AAADAP'
tp840
F1
s(S'AP'
S'AADVADP'
tp841
F1
s(S'VP'
S'AAVNNP'
tp842
F3
s(S'NP'
S'ADVADVNCP'
tp843
F7
s(S'VP'
S'AAAVDDDP'
tp844
F1
s(S'DP'
p845
S'AADPP'
tp846
F33
s(S'VP'
S'VVVAAP'
tp847
F1
s(g837
S'VADVAVP'
tp848
F1
s(S'VP'
S'ADVVACP'
tp849
F1
s(g189
S'NNNNPP'
tp850
F4
s(S'MP'
S'MADVAVNP'
tp851
F1
s(S'VP'
S'VVVVCP'
tp852
F3
s(g311
S'AAADVP'
tp853
F2
s(S'NP'
S'NNNP'
tp854
F2
s(g373
S'AAMMP'
tp855
F1
s(S'AP'
S'AADVADVVP'
tp856
F1
s(g118
S'AAPDP'
tp857
F8
s(S'NP'
S'ANVVVP'
tp858
F2
s(S'DP'
S'DDAAAVP'
tp859
F1
s(S'MP'
p860
S'MADVVDP'
tp861
F4
s(g582
S'MVVNP'
tp862
F6
s(S'NP'
S'AAANCP'
tp863
F1
s(S'CP'
S'ACDDP'
tp864
F15
s(S'NP'
S'ADVADVNNCP'
tp865
F2
s(S'PP'
S'PPPADVDP'
tp866
F1
s(S'DP'
S'DDDDDPP'
tp867
F1
s(S'AP'
S'AAPP'
tp868
F20
s(S'AP'
S'ANP'
tp869
F7
s(S'VP'
S'VVCCP'
tp870
F8
s(S'NP'
S'NADVADVADVADVVP'
tp871
F1
s(S'PP'
S'APPNP'
tp872
F4
s(S'DP'
S'DADVADVNP'
tp873
F2
s(g278
S'ADVADVADVCCDDP'
tp874
F1
s(S'NP'
p875
S'NNPPP'
tp876
F5
s(S'AP'
S'ADVANNP'
tp877
F1
s(S'VP'
S'ADVVADVADVANP'
tp878
F1
s(S'VP'
S'VVVCCP'
tp879
F2
s(g631
S'NAPP'
tp880
F32
s(S'PP'
S'APPVP'
tp881
F1
s(S'AP'
S'ADVADVADP'
tp882
F3
s(S'NP'
S'NADVDP'
tp883
F4
s(S'VP'
p884
S'VVVCP'
tp885
F10
s(g647
S'APDDDP'
tp886
F2
s(S'MP'
S'MVDDP'
tp887
F6
s(S'NP'
S'ANCCP'
tp888
F16
s(S'NP'
S'AANPP'
tp889
F9
s(S'VP'
S'VDDDP'
tp890
F4
s(S'NP'
S'NNMP'
tp891
F27
s(S'DP'
S'DDDVP'
tp892
F8
s(S'NP'
S'NNADVCP'
tp893
F1
s(g875
S'NVVVVVP'
tp894
F1
s(S'CP'
S'CADDPP'
tp895
F4
s(g707
S'MAPDP'
tp896
F1
s(g263
S'PAAAP'
tp897
F10
s(S'PP'
S'ADVADVPNP'
tp898
F4
s(S'DP'
S'DADVAP'
tp899
F7
s(S'CP'
S'CDDAPP'
tp900
F4
s(S'NP'
S'ANAP'
tp901
F7
s(S'MP'
S'MVAP'
tp902
F35
s(S'VP'
S'VADVADVDDP'
tp903
F2
s(S'PP'
S'PVP'
tp904
F863
s(S'VP'
S'VADVPPP'
tp905
F1
s(S'MP'
S'AAMVP'
tp906
F2
s(S'VP'
S'VADVCCP'
tp907
F1
s(S'PP'
S'APPNNP'
tp908
F1
s(S'VP'
S'VVVNNP'
tp909
F1
s(S'AP'
S'ADVAACP'
tp910
F1
s(g233
S'ADVADVADVPDDP'
tp911
F1
s(S'DP'
p912
S'DVVVP'
tp913
F11
s(g340
S'PPADVPP'
tp914
F2
s(S'NP'
S'ADVNNAP'
tp915
F1
s(S'PP'
S'PADVAP'
tp916
F6
s(g620
S'MVADVNP'
tp917
F1
s(S'DP'
S'DAAMP'
tp918
F1
s(S'MP'
S'MMMMVP'
tp919
F1
s(S'PP'
p920
S'PPDDP'
tp921
F22
s(g396
S'AVCP'
tp922
F15
s(S'DP'
S'DDVVVP'
tp923
F1
s(g180
S'NAVVP'
tp924
F2
s(S'DP'
S'DCCCCP'
tp925
F1
s(g28
S'DPP'
tp926
F2609
s(S'NP'
S'ADVNVP'
tp927
F20
s(S'DP'
S'DDPP'
tp928
F411
s(S'DP'
p929
S'DDAVP'
tp930
F4
s(g249
S'DANP'
tp931
F111
s(S'AP'
S'ADVAMP'
tp932
F1
s(S'NP'
S'NADVPP'
tp933
F7
s(S'PP'
S'PPADVVP'
tp934
F2
s(S'PP'
S'ADVADVADVPAP'
tp935
F1
s(S'PP'
S'AAPPVP'
tp936
F1
s(S'VP'
S'AVAAAP'
tp937
F1
s(S'NP'
S'NAAVP'
tp938
F2
s(S'DP'
S'ADVADVADPP'
tp939
F2
s(S'DP'
S'ADNNNP'
tp940
F1
s(S'DP'
S'AADNP'
tp941
F9
s(S'NP'
S'NNAPPP'
tp942
F1
s(S'VP'
S'VADVCP'
tp943
F6
s(g752
S'ADVADVACP'
tp944
F2
s(g7
S'NNNNAP'
tp945
F1
s(S'NP'
S'NNNNCP'
tp946
F7
s(g756
S'NADVCCP'
tp947
F4
s(S'DP'
S'DADVADVAVP'
tp948
F1
s(S'MP'
S'MNAVP'
tp949
F1
s(S'DP'
S'ADDPPP'
tp950
F1
s(S'NP'
S'NNNVVP'
tp951
F1
s(S'DP'
S'DDADVADVVVP'
tp952
F1
s(g114
S'PADVPPP'
tp953
F3
s(S'DP'
S'DCCP'
tp954
F5
s(S'DP'
S'AADDP'
tp955
F1
s(S'PP'
S'PPPPNP'
tp956
F2
s(g71
S'ADVPAAAP'
tp957
F1
s(S'CP'
S'CDPPPPP'
tp958
F3
s(S'VP'
S'VVDDP'
tp959
F10
s(S'PP'
S'ADVADVADVAPNP'
tp960
F2
s(S'DP'
S'DDADVVP'
tp961
F1
s(S'PP'
S'PDDP'
tp962
F99
s(S'AP'
S'AADVVP'
tp963
F3
s(S'PP'
S'PADVAPP'
tp964
F3
s(S'AP'
S'ADVAVVVP'
tp965
F1
s(S'PP'
S'ADVAPNP'
tp966
F2
s(S'DP'
S'ADPPP'
tp967
F16
s(g920
S'PADVADVADVDP'
tp968
F2
s(S'DP'
S'DDDDDP'
tp969
F3
s(S'AP'
S'AADVADVCP'
tp970
F2
s(S'PP'
S'APAAP'
tp971
F1
s(S'NP'
S'NNP'
tp972
F9
s(S'DP'
S'ADVADPP'
tp973
F14
s(g45
S'DAANP'
tp974
F23
s(S'MP'
S'MDADVNP'
tp975
F1
s(S'AP'
S'ADDP'
tp976
F61
s(S'VP'
S'VADVADVMP'
tp977
F1
s(S'PP'
S'PNNNNP'
tp978
F1
s(S'VP'
S'ADVVVAP'
tp979
F4
s(S'PP'
S'ADVPPNP'
tp980
F3
s(g222
S'ADVADVANCP'
tp981
F3
s(g4
S'MDAP'
tp982
F2
s(S'CP'
S'CADVADVDPP'
tp983
F7
s(g28
S'DPPP'
tp984
F321
s(S'PP'
S'AAAPPNP'
tp985
F1
s(S'CP'
S'CAAAADPPP'
tp986
F1
s(S'DP'
S'AADPPP'
tp987
F3
s(g406
S'ADVADVPPNP'
tp988
F2
s(S'AP'
S'AAAP'
tp989
F3
s(g382
S'NNAVP'
tp990
F2
s(S'AP'
S'ADVADVACCP'
tp991
F1
s(S'AP'
S'ADVADVADVAAADVDP'
tp992
F1
s(S'NP'
S'NMMMP'
tp993
F4
s(S'PP'
S'PPPANP'
tp994
F1
s(S'NP'
S'ADVANCCP'
tp995
F1
s(g177
S'ADVNAAAPP'
tp996
F1
s(S'PP'
S'ADVPNP'
tp997
F26
s(g670
S'PPDP'
tp998
F120
s(g52
S'MVPPPP'
tp999
F1
s(S'DP'
S'DADVVVP'
tp1000
F1
s(S'MP'
S'MAVDP'
tp1001
F3
s(g111
S'MNMMP'
tp1002
F1
s(S'CP'
S'CADDPPP'
tp1003
F1
s(S'PP'
S'PAAAAAP'
tp1004
F1
s(g496
S'ADVADVADVPVP'
tp1005
F2
s(S'MP'
S'AMADVVP'
tp1006
F1
s(S'DP'
S'ADVADVADVADVDPP'
tp1007
F1
s(g539
S'CAADADVPP'
tp1008
F1
s(S'VP'
S'VAADP'
tp1009
F6
s(S'NP'
S'ADVADVADVADVNADVADVMP'
tp1010
F1
s(S'NP'
S'ANDDDP'
tp1011
F1
s(S'AP'
S'AAPPP'
tp1012
F2
s(g929
S'DDCP'
tp1013
F6
s(S'PP'
S'ADVPAAVP'
tp1014
F1
s(S'NP'
S'ANADVADVVP'
tp1015
F1
s(S'NP'
S'NNNNNCP'
tp1016
F1
s(S'VP'
S'VVCCCP'
tp1017
F2
s(S'PP'
S'PAANNP'
tp1018
F2
s(S'AP'
S'ANNP'
tp1019
F1
s(S'MP'
S'MMAVP'
tp1020
F3
s(g570
S'NAP'
tp1021
F242
s(S'NP'
S'NNAAP'
tp1022
F4
s(S'PP'
S'ADVADVPPPP'
tp1023
F1
s(S'DP'
S'ADVDDANNP'
tp1024
F1
s(S'VP'
S'ADVAVNP'
tp1025
F1
s(g43
S'VVP'
tp1026
F89
s(S'DP'
S'DDAPP'
tp1027
F13
s(S'PP'
S'ADVADVPVP'
tp1028
F4
s(S'AP'
p1029
S'AAADP'
tp1030
F11
s(S'PP'
S'APNP'
tp1031
F61
s(S'NP'
S'NNAACP'
tp1032
F1
s(S'DP'
S'DDVVP'
tp1033
F9
s(S'AP'
S'AAADDP'
tp1034
F3
s(S'VP'
S'VVVNP'
tp1035
F11
s(S'MP'
p1036
S'MNPP'
tp1037
F3
s(S'MP'
S'ADVADVAMVP'
tp1038
F1
s(S'CP'
S'CDDAAAPP'
tp1039
F1
s(g163
S'NNADVPP'
tp1040
F2
s(S'MP'
S'MVANP'
tp1041
F1
s(g143
S'ADVADVDDPP'
tp1042
F2
s(S'MP'
S'MVNNP'
tp1043
F10
s(g38
S'CDPP'
tp1044
F2444
s(S'NP'
S'ANNNCP'
tp1045
F1
s(S'MP'
S'MMMNP'
tp1046
F1
s(g287
S'MVVNNP'
tp1047
F1
s(S'AP'
S'ADDDP'
tp1048
F8
s(g364
S'ADVCADP'
tp1049
F3
s(S'NP'
S'NNDP'
tp1050
F36
s(S'MP'
S'MMMVP'
tp1051
F4
s(S'PP'
S'APNNNP'
tp1052
F1
s(S'CP'
p1053
S'ADVCDP'
tp1054
F27
s(S'PP'
S'AAPVVP'
tp1055
F2
s(S'VP'
S'ADVADVVNP'
tp1056
F8
s(S'VP'
S'ADVADVVNNP'
tp1057
F1
s(g827
S'MDDVP'
tp1058
F1
s(g485
S'ADVADVVCP'
tp1059
F5
s(g670
S'PPNNP'
tp1060
F30
s(S'NP'
p1061
S'NNADVADVVP'
tp1062
F1
s(g860
S'MPPNP'
tp1063
F1
s(S'AP'
S'ADVACCP'
tp1064
F3
s(S'PP'
S'PPMP'
tp1065
F5
s(S'PP'
S'APPVVP'
tp1066
F1
s(S'CP'
S'CAADDPP'
tp1067
F3
s(S'DP'
S'ADVADVDPP'
tp1068
F15
s(S'VP'
S'VVVDDDDP'
tp1069
F1
s(g1061
S'NADVAP'
tp1070
F4
s(S'VP'
S'AVDDP'
tp1071
F5
s(g303
S'DADVNP'
tp1072
F18
s(g845
S'DAP'
tp1073
F89
s(g1036
S'MCADP'
tp1074
F1
s(g105
S'VANNP'
tp1075
F1
s(S'DP'
S'ADVADVDVVP'
tp1076
F1
s(S'NP'
S'NADVAVP'
tp1077
F1
s(g614
S'ADVADVVVPP'
tp1078
F1
s(S'NP'
S'ADVNMMP'
tp1079
F1
s(S'PP'
S'PPDDDP'
tp1080
F3
s(S'VP'
S'AVPP'
tp1081
F23
s(S'CP'
S'CAADPPP'
tp1082
F2
s(S'DP'
S'DDNNNNP'
tp1083
F1
s(S'MP'
S'AMNP'
tp1084
F2
s(S'VP'
S'VVVACP'
tp1085
F1
s(S'NP'
S'NNNDDDDP'
tp1086
F1
s(S'CP'
S'AACDDP'
tp1087
F3
s(g1053
S'CDPPPP'
tp1088
F14
s(S'MP'
S'MDAANP'
tp1089
F1
s(S'VP'
S'AAVDP'
tp1090
F8
s(g311
S'AADNNP'
tp1091
F2
s(g672
S'PANNP'
tp1092
F4
s(S'VP'
S'VACCP'
tp1093
F1
s(S'NP'
p1094
S'NNDDP'
tp1095
F4
s(S'DP'
S'DAPPP'
tp1096
F11
s(S'DP'
S'DADVADVPP'
tp1097
F15
s(g20
S'DMP'
tp1098
F17
s(g87
S'PPPNP'
tp1099
F15
s(g434
S'NPP'
tp1100
F757
s(S'PP'
S'APADVPP'
tp1101
F1
s(S'PP'
S'PPAANP'
tp1102
F3
s(S'NP'
S'AAANPP'
tp1103
F1
s(g681
S'PADVADVAPP'
tp1104
F1
s(S'PP'
S'PADVADVNP'
tp1105
F6
s(g884
S'ADVADVVAP'
tp1106
F3
s(g392
S'ADPP'
tp1107
F256
s(S'PP'
S'PPPVVP'
tp1108
F1
s(S'NP'
S'NNADVVVP'
tp1109
F2
s(S'VP'
S'VADVPP'
tp1110
F6
s(S'VP'
S'VADVADVNNP'
tp1111
F1
s(S'PP'
S'APNNNNP'
tp1112
F1
s(S'DP'
S'ADVADVADVADVDDDP'
tp1113
F1
s(S'PP'
S'ADVPVP'
tp1114
F19
s(S'DP'
S'DDDDPP'
tp1115
F11
s(S'AP'
S'AAMMMMP'
tp1116
F1
s(S'MP'
S'ADVMVVP'
tp1117
F1
s(S'MP'
S'MNNPP'
tp1118
F1
s(S'MP'
S'MVMMP'
tp1119
F1
s(S'PP'
S'PADVADVADVDDP'
tp1120
F1
s(S'PP'
S'PADVADVADVNP'
tp1121
F1
s(S'PP'
S'PAMP'
tp1122
F4
s(g746
S'ADVPDP'
tp1123
F16
s(S'VP'
S'VVNNNNP'
tp1124
F1
s(S'NP'
S'ANADVDP'
tp1125
F3
s(S'NP'
S'ANNPP'
tp1126
F4
s(g193
S'NCP'
tp1127
F2338
s(S'DP'
S'AAADPPP'
tp1128
F1
s(S'CP'
S'CADVDPPP'
tp1129
F7
s(g697
S'ADVVVPP'
tp1130
F4
s(S'PP'
S'AAPADVVP'
tp1131
F1
s(S'PP'
S'AAAPNP'
tp1132
F1
s(g58
S'ADVVP'
tp1133
F3
s(S'PP'
S'AAAAPVP'
tp1134
F1
s(S'CP'
S'CDADVPP'
tp1135
F36
s(S'AP'
S'AAMP'
tp1136
F4
s(S'PP'
S'ADVPDDP'
tp1137
F2
s(S'DP'
S'AADADVPP'
tp1138
F2
s(S'VP'
S'AAVVDP'
tp1139
F3
s(g599
S'AANDP'
tp1140
F5
s(S'MP'
S'MVCCP'
tp1141
F5
s(S'DP'
S'DADVNNP'
tp1142
F2
s(S'PP'
S'APVP'
tp1143
F43
s(S'NP'
S'NNCCP'
tp1144
F39
s(S'MP'
S'MNVP'
tp1145
F22
s(S'PP'
S'APADVNP'
tp1146
F2
s(S'NP'
S'AANAP'
tp1147
F2
s(S'CP'
S'ADVADVCCDP'
tp1148
F1
s(S'DP'
S'AAAADPPP'
tp1149
F1
s(S'PP'
S'PADVADVAP'
tp1150
F1
s(S'VP'
S'VAPP'
tp1151
F19
s(S'VP'
S'VADVADVADVAAP'
tp1152
F1
s(g738
S'MAVNP'
tp1153
F1
s(S'VP'
S'ADVVDP'
tp1154
F27
s(S'DP'
p1155
S'DDADVADVADVPP'
tp1156
F1
s(S'VP'
S'VADDP'
tp1157
F1
s(S'NP'
S'ADVADVADVNNVP'
tp1158
F1
s(g912
S'DADVPP'
tp1159
F65
s(g1029
S'AMP'
tp1160
F27
s(S'CP'
S'CCADP'
tp1161
F12
s(S'NP'
S'ADVNNCP'
tp1162
F3
s(S'DP'
S'ADVDAP'
tp1163
F2
s(S'PP'
S'ADVADVADVPNP'
tp1164
F1
s(S'NP'
S'NNNPPP'
tp1165
F1
s(S'AP'
S'ADVAPP'
tp1166
F6
s(S'PP'
S'ADVADVPVVP'
tp1167
F2
s(S'DP'
S'ADVDADVADVAMP'
tp1168
F1
s(S'DP'
S'ADVDAVP'
tp1169
F1
s(S'AP'
S'ADVADVANP'
tp1170
F1
s(S'MP'
S'MNADVADVVP'
tp1171
F1
s(S'CP'
S'AACDP'
tp1172
F17
s(S'NP'
S'NNNCCP'
tp1173
F3
s(S'CP'
S'CCDDDP'
tp1174
F3
s(S'MP'
S'MADVVNNP'
tp1175
F1
s(S'DP'
S'ADVDPPP'
tp1176
F8
s(g28
S'DVP'
tp1177
F703
s(S'VP'
S'AVNNP'
tp1178
F2
s(S'NP'
S'ADVNPP'
tp1179
F9
s(S'DP'
S'AAADVVP'
tp1180
F1
s(g1094
S'NNCCCP'
tp1181
F6
s(S'AP'
S'AVP'
tp1182
F84
s(S'NP'
S'NADVVP'
tp1183
F22
s(g821
S'CDAAAPP'
tp1184
F2
s(g1155
S'DADDP'
tp1185
F2
s(S'NP'
S'NNNMP'
tp1186
F5
s(S'VP'
S'ADVVPPP'
tp1187
F1
s(S'DP'
S'DDPPP'
tp1188
F55
s(S'NP'
S'NNNMMP'
tp1189
F1
s(S'NP'
S'ADVNMP'
tp1190
F6
s(g489
S'NNAP'
tp1191
F26
s(S'NP'
S'NNADVPPP'
tp1192
F1
s(S'PP'
S'ADVADVAPNNP'
tp1193
F1
s(S'MP'
S'MADVVCP'
tp1194
F4
s(S'PP'
S'PPANP'
tp1195
F19
s(S'PP'
S'APVVVVP'
tp1196
F1
s(S'PP'
S'PPCCP'
tp1197
F1
s(S'DP'
S'DDNNP'
tp1198
F17
s(g386
S'VNP'
tp1199
F662
s(g527
S'VANP'
tp1200
F50
s(S'VP'
S'VADVAP'
tp1201
F19
s(S'MP'
S'MVACP'
tp1202
F1
s(S'PP'
S'PPADVNP'
tp1203
F4
s(S'DP'
S'DDDDVP'
tp1204
F2
s(S'NP'
S'AANNAP'
tp1205
F1
s(S'NP'
S'NADVPPP'
tp1206
F1
s.