ccollections
defaultdict
p1
(c__builtin__
float
p2
tRp3
(S'MP'
S'MMDP'
tp4
F3
s(S'CP'
S'CAAADPP'
tp5
F1
s(S'DP'
S'DDMP'
tp6
F1
s(S'DP'
p7
S'ADDPP'
tp8
F4
s(S'DP'
S'DDAP'
tp9
F3
s(S'VP'
p10
S'ADVVVNP'
tp11
F1
s(S'AP'
S'AADDDP'
tp12
F1
s(S'CP'
S'CCDDDDP'
tp13
F1
s(S'VP'
p14
S'VVVVP'
tp15
F2
s(S'PP'
p16
S'PPAAANNP'
tp17
F1
s(S'AP'
S'AVVVP'
tp18
F1
s(S'PP'
S'ADVADVPAP'
tp19
F1
s(S'PP'
p20
S'PAPP'
tp21
F10
s(S'PP'
p22
S'PADVNP'
tp23
F10
s(S'DP'
S'DNP'
tp24
F322
s(S'PP'
S'PPADVAVP'
tp25
F1
s(S'NP'
S'ADVNDP'
tp26
F2
s(S'CP'
p27
S'CDPPP'
tp28
F85
s(S'VP'
p29
S'VADP'
tp30
F14
s(S'DP'
p31
S'DNNNNP'
tp32
F4
s(S'CP'
p33
S'ACADVADVDP'
tp34
F1
s(S'DP'
p35
S'DAAP'
tp36
F2
s(S'PP'
S'ADVADVPPPPP'
tp37
F1
s(S'PP'
p38
S'PPPPPP'
tp39
F4
s(S'VP'
p40
S'VAVP'
tp41
F3
s(S'PP'
S'APPDP'
tp42
F1
s(S'DP'
S'ADNNP'
tp43
F1
s(S'MP'
S'MDVP'
tp44
F1
s(S'NP'
S'AANAAP'
tp45
F1
s(S'VP'
p46
S'ADVVNP'
tp47
F29
s(S'MP'
p48
S'MVDP'
tp49
F47
s(g20
S'PADVANP'
tp50
F4
s(S'PP'
p51
S'PPPP'
tp52
F37
s(S'DP'
S'DDDNP'
tp53
F3
s(S'AP'
S'APPPPP'
tp54
F1
s(S'VP'
p55
S'VACP'
tp56
F8
s(S'DP'
S'DADVVP'
tp57
F7
s(S'MP'
S'MMCP'
tp58
F3
s(S'PP'
S'PADVNNP'
tp59
F1
s(S'AP'
S'AADVPP'
tp60
F3
s(S'NP'
S'NDDDP'
tp61
F2
s(S'NP'
p62
S'NCCCP'
tp63
F2
s(S'VP'
p64
S'VCP'
tp65
F139
s(S'NP'
S'NMMP'
tp66
F12
s(S'NP'
S'NANP'
tp67
F1
s(S'VP'
S'ADVVAAP'
tp68
F1
s(S'NP'
S'NNADVAP'
tp69
F1
s(S'PP'
p70
S'ADVPNNP'
tp71
F1
s(S'PP'
p72
S'ADVPADP'
tp73
F1
s(g38
S'PAP'
tp74
F142
s(S'MP'
S'MMVVP'
tp75
F2
s(S'VP'
S'VADVADVAP'
tp76
F1
s(S'PP'
p77
S'ADVPPVP'
tp78
F1
s(S'PP'
p79
S'APVVP'
tp80
F1
s(S'MP'
S'AAAAMVP'
tp81
F1
s(S'PP'
S'PPADVDP'
tp82
F1
s(S'VP'
p83
S'VADVANP'
tp84
F2
s(S'PP'
S'PNP'
tp85
F394
s(S'NP'
S'ADVANADVVP'
tp86
F1
s(S'PP'
S'PAAADP'
tp87
F1
s(S'NP'
S'NNNNADP'
tp88
F1
s(S'DP'
S'DAANNP'
tp89
F1
s(S'DP'
p90
S'DDP'
tp91
F67
s(g46
S'ADVVDDP'
tp92
F1
s(S'NP'
S'NNNPP'
tp93
F11
s(S'VP'
p94
S'VCCP'
tp95
F22
s(S'VP'
S'ADVVVDDP'
tp96
F1
s(S'MP'
p97
S'MCDP'
tp98
F9
s(S'CP'
S'AACCDP'
tp99
F1
s(S'MP'
S'AMPP'
tp100
F1
s(S'DP'
p101
S'DAAAANP'
tp102
F2
s(S'NP'
S'NMP'
tp103
F137
s(S'PP'
S'PPMMP'
tp104
F1
s(S'VP'
S'AAVNP'
tp105
F2
s(S'VP'
p106
S'VMMP'
tp107
F3
s(S'PP'
S'PDP'
tp108
F315
s(S'CP'
S'CDADVADVPP'
tp109
F1
s(S'VP'
S'VNNNNP'
tp110
F1
s(S'NP'
S'AAANVVP'
tp111
F1
s(S'DP'
S'DDADVADVPPP'
tp112
F1
s(S'NP'
p113
S'NACCP'
tp114
F1
s(S'MP'
S'MDAAAP'
tp115
F1
s(S'DP'
S'ADVADNNP'
tp116
F1
s(S'PP'
S'PADVPP'
tp117
F1
s(S'VP'
S'AAVPP'
tp118
F1
s(S'NP'
p119
S'ADVNACP'
tp120
F2
s(S'DP'
S'DPPPP'
tp121
F6
s(S'DP'
S'DDANP'
tp122
F1
s(g62
S'NACP'
tp123
F17
s(S'NP'
S'NNNNDDP'
tp124
F1
s(S'NP'
S'NCCP'
tp125
F75
s(S'CP'
S'CDDDDPPP'
tp126
F1
s(S'AP'
S'AAAADP'
tp127
F1
s(S'VP'
S'VVVVVP'
tp128
F1
s(S'NP'
S'NNCP'
tp129
F165
s(g7
S'ADVDDPP'
tp130
F4
s(S'NP'
S'NADVADVVP'
tp131
F1
s(S'DP'
p132
S'DDDDP'
tp133
F7
s(S'NP'
S'NADVDDP'
tp134
F1
s(S'VP'
p135
S'AVNP'
tp136
F9
s(S'VP'
p137
S'VVADP'
tp138
F3
s(S'PP'
S'ADVPVVP'
tp139
F1
s(S'DP'
p140
S'ADADVNP'
tp141
F1
s(S'VP'
S'VVMP'
tp142
F3
s(S'VP'
p143
S'VADVVP'
tp144
F3
s(S'MP'
S'MVPPP'
tp145
F2
s(S'AP'
S'AAAAP'
tp146
F1
s(S'NP'
S'NNNVP'
tp147
F17
s(S'DP'
S'AAADPPPP'
tp148
F1
s(S'CP'
p149
S'CCCDP'
tp150
F3
s(S'VP'
S'ADVVAP'
tp151
F3
s(S'VP'
S'VCCCP'
tp152
F1
s(g51
S'APDP'
tp153
F20
s(S'MP'
S'MNNVVP'
tp154
F1
s(S'AP'
S'AADVCP'
tp155
F1
s(S'MP'
p156
S'MVADVNP'
tp157
F1
s(S'NP'
S'ANNADVCCP'
tp158
F1
s(S'NP'
S'ADVADVNPPP'
tp159
F1
s(S'AP'
S'AADVADVADVDP'
tp160
F1
s(g48
S'MADVVNP'
tp161
F4
s(S'PP'
S'PAAP'
tp162
F22
s(S'NP'
S'ADVANCP'
tp163
F1
s(S'DP'
S'DNNP'
tp164
F69
s(S'CP'
p165
S'CADVDDPP'
tp166
F3
s(S'DP'
S'DPPPPP'
tp167
F3
s(S'CP'
S'CCADVDP'
tp168
F4
s(S'VP'
S'VVACP'
tp169
F1
s(S'VP'
S'AAVDDP'
tp170
F2
s(S'DP'
p171
S'ADDNP'
tp172
F1
s(g22
S'ADVPADVNP'
tp173
F1
s(S'VP'
p174
S'VADVNNP'
tp175
F1
s(S'PP'
S'PPNNNNP'
tp176
F1
s(S'PP'
S'PADVVP'
tp177
F9
s(S'DP'
S'DADVADVADVPPP'
tp178
F1
s(S'DP'
S'DADVVVP'
tp179
F1
s(S'PP'
S'APAP'
tp180
F1
s(S'AP'
p181
S'APP'
tp182
F41
s(S'AP'
S'AAP'
tp183
F4
s(S'VP'
p184
S'VADVADVVP'
tp185
F2
s(S'DP'
S'DAAAPP'
tp186
F1
s(S'NP'
p187
S'ADVANPP'
tp188
F3
s(S'MP'
S'MVVCP'
tp189
F1
s(g101
S'DAAVP'
tp190
F5
s(S'CP'
S'CDDDDPP'
tp191
F3
s(S'MP'
S'MPVP'
tp192
F1
s(S'MP'
S'MVVVNP'
tp193
F1
s(g79
S'PAANP'
tp194
F10
s(S'VP'
S'VADVADVCP'
tp195
F1
s(S'PP'
p196
S'PPVVP'
tp197
F2
s(S'NP'
S'NNAAAP'
tp198
F1
s(S'MP'
p199
S'MVNP'
tp200
F57
s(S'NP'
S'NNANP'
tp201
F1
s(S'DP'
S'ADDDP'
tp202
F1
s(S'CP'
S'CDDDPPP'
tp203
F2
s(S'PP'
p204
S'PAVP'
tp205
F13
s(S'MP'
p206
S'MAADPPP'
tp207
F1
s(S'PP'
S'ADVADVPPVP'
tp208
F1
s(S'VP'
S'ADVVMP'
tp209
F2
s(S'MP'
S'AMADVADVVP'
tp210
F1
s(S'VP'
S'VVVPP'
tp211
F3
s(S'NP'
S'NNADP'
tp212
F1
s(S'AP'
p213
S'ADVACCP'
tp214
F1
s(S'DP'
S'DADP'
tp215
F6
s(S'VP'
S'VVAANP'
tp216
F1
s(S'AP'
S'ADVADP'
tp217
F4
s(S'CP'
S'ADVADVCDP'
tp218
F3
s(S'VP'
p219
S'VVADVPP'
tp220
F1
s(S'VP'
S'ADVADVVANP'
tp221
F1
s(S'PP'
S'PPNNNP'
tp222
F2
s(S'PP'
p223
S'PPCP'
tp224
F3
s(S'PP'
p225
S'APVP'
tp226
F15
s(S'VP'
S'AVCCCCP'
tp227
F1
s(S'MP'
S'MNNCP'
tp228
F2
s(S'CP'
S'CADVADPPP'
tp229
F1
s(S'VP'
p230
S'VVNP'
tp231
F50
s(g16
S'PPPNNP'
tp232
F1
s(S'PP'
p233
S'PPVP'
tp234
F49
s(S'VP'
S'VADVDP'
tp235
F2
s(g90
S'DDDPP'
tp236
F10
s(g143
S'VAAP'
tp237
F21
s(S'NP'
p238
S'ANDP'
tp239
F13
s(S'NP'
p240
S'NVVP'
tp241
F58
s(S'PP'
p242
S'AAPVP'
tp243
F4
s(S'VP'
S'VMP'
tp244
F36
s(S'VP'
S'VVNNP'
tp245
F5
s(S'CP'
S'CDAPP'
tp246
F28
s(g156
S'MMPP'
tp247
F2
s(S'DP'
S'ADNP'
tp248
F15
s(S'DP'
S'ADVDDPPP'
tp249
F1
s(g196
S'PADP'
tp250
F12
s(S'DP'
S'DDAAAPP'
tp251
F2
s(S'VP'
S'ADVVVCP'
tp252
F1
s(S'MP'
S'MNAAVP'
tp253
F1
s(S'DP'
S'DADVAP'
tp254
F1
s(S'DP'
S'ADVDAANP'
tp255
F1
s(g206
S'MMMAP'
tp256
F1
s(S'MP'
S'MCDDDP'
tp257
F1
s(S'DP'
S'DAPP'
tp258
F46
s(S'VP'
S'AVVP'
tp259
F1
s(S'VP'
S'ADVADVVPP'
tp260
F1
s(S'MP'
p261
S'MADVADVVNP'
tp262
F1
s(S'VP'
S'VADVADVNP'
tp263
F2
s(S'PP'
S'AAAPVP'
tp264
F1
s(g184
S'ADVADVVDP'
tp265
F3
s(S'PP'
S'PPPDP'
tp266
F1
s(S'DP'
S'DAAPPP'
tp267
F1
s(S'DP'
S'DAAANP'
tp268
F2
s(S'DP'
p269
S'DADVANP'
tp270
F2
s(S'VP'
S'VAAPP'
tp271
F1
s(g132
S'ADVDNP'
tp272
F5
s(S'VP'
p273
S'VVPP'
tp274
F13
s(S'NP'
S'AAAANVP'
tp275
F1
s(S'DP'
S'ADADVPP'
tp276
F2
s(S'CP'
S'AACDDP'
tp277
F1
s(g199
S'MVPP'
tp278
F20
s(g171
S'ADVP'
tp279
F8
s(S'DP'
p280
S'DDAAPP'
tp281
F1
s(S'VP'
S'ADVVVDP'
tp282
F1
s(S'NP'
p283
S'NNPP'
tp284
F46
s(S'MP'
S'MVVDP'
tp285
F4
s(S'DP'
S'DADVPPP'
tp286
F3
s(S'NP'
S'ANVP'
tp287
F20
s(S'DP'
S'DNNNP'
tp288
F9
s(S'MP'
S'MPPDP'
tp289
F2
s(S'PP'
S'PADVADVVP'
tp290
F2
s(S'PP'
S'PVVVP'
tp291
F1
s(g38
S'PMP'
tp292
F16
s(S'MP'
S'MCCDP'
tp293
F1
s(S'CP'
S'CCDP'
tp294
F112
s(S'MP'
p295
S'AMVP'
tp296
F3
s(S'NP'
S'NAAACCP'
tp297
F2
s(S'DP'
p298
S'AADDPP'
tp299
F1
s(S'PP'
S'ADVADVPPPP'
tp300
F1
s(S'NP'
S'NVVVP'
tp301
F8
s(S'CP'
S'CDDDPP'
tp302
F7
s(S'CP'
S'CDAAPP'
tp303
F9
s(S'VP'
S'VVVDP'
tp304
F4
s(g51
S'PNNNP'
tp305
F4
s(S'MP'
S'MADVVDP'
tp306
F2
s(S'VP'
S'ADVVVMP'
tp307
F1
s(S'PP'
p308
S'AAPNP'
tp309
F6
s(S'CP'
S'CADADVPP'
tp310
F1
s(S'PP'
S'PADVVVP'
tp311
F1
s(g308
S'PPP'
tp312
F151
s(g240
S'NNVVP'
tp313
F15
s(g238
S'NAVP'
tp314
F13
s(S'PP'
p315
S'PADVAP'
tp316
F1
s(S'DP'
S'DDNNNP'
tp317
F4
s(S'MP'
S'AMDP'
tp318
F1
s(S'PP'
p319
S'PADDP'
tp320
F1
s(S'DP'
p321
S'ADVDVP'
tp322
F5
s(S'NP'
p323
S'NAAAP'
tp324
F2
s(S'NP'
S'NADVVVP'
tp325
F3
s(S'DP'
S'DADVADVPPP'
tp326
F1
s(S'AP'
S'AADVVP'
tp327
F1
s(S'PP'
S'PPPPDP'
tp328
F2
s(S'MP'
S'MADVADVVPP'
tp329
F1
s(S'CP'
S'ADVADVCCADP'
tp330
F1
s(g135
S'VPP'
tp331
F164
s(S'CP'
S'ADVCCDP'
tp332
F1
s(S'CP'
S'ACCDP'
tp333
F1
s(g283
S'NNNCP'
tp334
F37
s(S'PP'
p335
S'PADVDP'
tp336
F5
s(S'AP'
S'ADVAADP'
tp337
F1
s(S'DP'
S'DANNP'
tp338
F2
s(S'PP'
p339
S'PADVAAP'
tp340
F2
s(g27
S'CDDPP'
tp341
F76
s(S'DP'
S'DAAPP'
tp342
F13
s(S'PP'
S'PVVP'
tp343
F45
s(S'CP'
S'CADPPP'
tp344
F5
s(S'AP'
S'AACP'
tp345
F7
s(S'VP'
p346
S'ADVVCP'
tp347
F7
s(g339
S'ADVPPAP'
tp348
F1
s(S'VP'
S'VPPP'
tp349
F25
s(S'VP'
S'VVPPP'
tp350
F3
s(S'PP'
S'PPPADVADVDDP'
tp351
F1
s(S'PP'
p352
S'PPAP'
tp353
F13
s(S'DP'
p354
S'DVVP'
tp355
F41
s(S'MP'
S'ADVMVP'
tp356
F1
s(g298
S'DAADDP'
tp357
F1
s(g113
S'ANMP'
tp358
F6
s(g213
S'APPP'
tp359
F4
s(S'NP'
S'NNNNMP'
tp360
F1
s(S'DP'
S'ADVADPPP'
tp361
F1
s(S'NP'
S'ADVADVNVP'
tp362
F3
s(S'VP'
S'VVVP'
tp363
F13
s(S'CP'
S'CADVDPP'
tp364
F20
s(S'VP'
p365
S'AVMP'
tp366
F1
s(g83
S'VVVADVVP'
tp367
F1
s(g62
S'ANCP'
tp368
F32
s(S'DP'
S'DCP'
tp369
F18
s(S'DP'
S'DVVVP'
tp370
F8
s(S'NP'
S'AAANCP'
tp371
F2
s(S'NP'
S'NNNNAAP'
tp372
F1
s(S'DP'
S'DADVCP'
tp373
F1
s(g280
S'DDDP'
tp374
F14
s(S'AP'
S'ADDDDP'
tp375
F1
s(S'DP'
S'DDADVPP'
tp376
F4
s(S'CP'
S'CADVADVADPP'
tp377
F2
s(S'VP'
S'VVDP'
tp378
F63
s(S'NP'
p379
S'NPPP'
tp380
F15
s(g196
S'PPAPP'
tp381
F1
s(S'VP'
S'ADVVNNNP'
tp382
F1
s(S'DP'
S'DAVP'
tp383
F16
s(g379
S'NNNMP'
tp384
F7
s(S'AP'
S'ACP'
tp385
F69
s(S'PP'
S'ADVADVPPP'
tp386
F1
s(g233
S'PPNP'
tp387
F65
s(S'MP'
S'MADVVPP'
tp388
F2
s(S'NP'
S'NAADP'
tp389
F1
s(S'CP'
S'AAACCDP'
tp390
F2
s(g35
S'AADVP'
tp391
F2
s(S'MP'
S'MADNP'
tp392
F1
s(S'MP'
S'MMADVDP'
tp393
F1
s(S'CP'
S'CDDADVPP'
tp394
F2
s(S'AP'
S'ADP'
tp395
F337
s(S'NP'
S'NAMMP'
tp396
F1
s(S'CP'
S'CADVDDPPP'
tp397
F1
s(S'DP'
p398
S'DDAAVP'
tp399
F1
s(S'NP'
S'ANPPP'
tp400
F2
s(S'NP'
S'ADVANCCP'
tp401
F1
s(S'NP'
p402
S'AAANNCP'
tp403
F2
s(S'MP'
S'MAAVDP'
tp404
F1
s(S'VP'
S'VAAANP'
tp405
F1
s(S'MP'
S'MADDP'
tp406
F1
s(S'VP'
S'AVDP'
tp407
F19
s(S'VP'
S'VVAP'
tp408
F16
s(S'MP'
p409
S'MNADVVP'
tp410
F1
s(S'CP'
p411
S'CDDDAPP'
tp412
F1
s(S'PP'
S'PADVADVDP'
tp413
F1
s(S'DP'
S'ADVADVDNP'
tp414
F1
s(S'VP'
S'AAVCP'
tp415
F1
s(S'NP'
p416
S'NPP'
tp417
F265
s(S'PP'
S'PPPPNP'
tp418
F3
s(g187
S'NADVANP'
tp419
F3
s(S'PP'
S'PAAVP'
tp420
F3
s(g119
S'NAAPP'
tp421
F2
s(S'PP'
S'PPPPVP'
tp422
F1
s(g94
S'VDDP'
tp423
F42
s(S'MP'
S'MVADVADVCP'
tp424
F1
s(S'DP'
S'ADVADVDDVVP'
tp425
F1
s(S'NP'
S'AANNVP'
tp426
F1
s(S'DP'
S'DMP'
tp427
F4
s(S'NP'
S'NADVADVVVP'
tp428
F1
s(g62
S'ANPP'
tp429
F27
s(S'PP'
p430
S'PPPPP'
tp431
F5
s(S'MP'
S'MPDP'
tp432
F2
s(g315
S'ADVADVPDP'
tp433
F2
s(g409
S'MVVPP'
tp434
F2
s(g31
S'ADVDPP'
tp435
F26
s(S'NP'
S'NNMMMP'
tp436
F1
s(g90
S'DDDDDP'
tp437
F1
s(S'NP'
p438
S'NPPPP'
tp439
F4
s(S'DP'
S'ADDP'
tp440
F5
s(S'CP'
S'CAADPP'
tp441
F13
s(g269
S'DADVADVVP'
tp442
F1
s(S'NP'
p443
S'NAACP'
tp444
F3
s(S'PP'
S'PNNP'
tp445
F78
s(S'PP'
S'APNNP'
tp446
F3
s(S'DP'
S'DDDADVADVPPP'
tp447
F1
s(S'DP'
p448
S'AAADPP'
tp449
F1
s(g29
S'AVAP'
tp450
F4
s(S'MP'
S'MMVP'
tp451
F9
s(S'MP'
S'MNCP'
tp452
F1
s(S'PP'
S'PCCP'
tp453
F2
s(S'DP'
S'ADPP'
tp454
F75
s(g149
S'ACDP'
tp455
F27
s(g238
S'NNDP'
tp456
F22
s(S'NP'
S'NNACP'
tp457
F3
s(g97
S'MDNNP'
tp458
F3
s(S'CP'
S'CDADVPPP'
tp459
F3
s(g135
S'VAP'
tp460
F177
s(S'MP'
S'MNVVP'
tp461
F2
s(S'NP'
S'NAAAAMP'
tp462
F1
s(S'VP'
p463
S'VVADVAP'
tp464
F3
s(S'NP'
S'AANNCP'
tp465
F2
s(g72
S'PAAPP'
tp466
F1
s(S'DP'
S'DDDAAP'
tp467
F1
s(S'MP'
S'MNMP'
tp468
F1
s(S'DP'
S'DDDPPP'
tp469
F2
s(g448
S'ADAP'
tp470
F2
s(S'CP'
S'CCADVADP'
tp471
F1
s(S'AP'
S'AAACP'
tp472
F2
s(S'AP'
S'AVVP'
tp473
F7
s(S'DP'
S'DAAAP'
tp474
F1
s(S'MP'
S'MANVP'
tp475
F1
s(g38
S'PPPVP'
tp476
F2
s(g137
S'AAVAP'
tp477
F1
s(S'AP'
S'AADDP'
tp478
F7
s(S'VP'
S'VAANP'
tp479
F2
s(S'NP'
p480
S'NADVADVCP'
tp481
F2
s(S'DP'
S'DAAAAPP'
tp482
F1
s(S'DP'
S'DDAAVVP'
tp483
F1
s(S'NP'
S'NADVADVADVVVP'
tp484
F1
s(S'PP'
S'PAAAAP'
tp485
F2
s(S'MP'
S'MPNP'
tp486
F10
s(S'VP'
S'VVAADP'
tp487
F1
s(S'MP'
p488
S'MADP'
tp489
F10
s(S'AP'
S'AMMP'
tp490
F3
s(g411
S'CCAADP'
tp491
F1
s(g233
S'PANP'
tp492
F33
s(S'PP'
S'PDDDP'
tp493
F2
s(S'NP'
S'ANNMP'
tp494
F1
s(S'NP'
S'AAANDDP'
tp495
F1
s(S'DP'
S'ADVADPP'
tp496
F1
s(S'NP'
p497
S'AANMP'
tp498
F1
s(S'AP'
S'AAVP'
tp499
F5
s(S'NP'
S'NAAP'
tp500
F22
s(g62
S'NDDP'
tp501
F15
s(S'AP'
p502
S'ACCP'
tp503
F5
s(S'VP'
p504
S'AVPPP'
tp505
F1
s(S'PP'
S'ADVPAANP'
tp506
F1
s(g238
S'NDP'
tp507
F117
s(S'MP'
S'AAMPP'
tp508
F1
s(S'NP'
S'AAANVP'
tp509
F1
s(S'MP'
S'MVAAP'
tp510
F1
s(g90
S'DDVP'
tp511
F40
s(S'NP'
S'AANVP'
tp512
F9
s(S'NP'
S'ADVNCCP'
tp513
F2
s(S'DP'
S'AADDADVNP'
tp514
F1
s(S'VP'
S'VNNNP'
tp515
F6
s(g70
S'ADVPAP'
tp516
F2
s(S'NP'
S'NNNNVVP'
tp517
F2
s(g196
S'PCP'
tp518
F23
s(g402
S'NNPPP'
tp519
F3
s(S'PP'
S'PAADP'
tp520
F8
s(S'NP'
S'ADVNNVP'
tp521
F1
s(g319
S'PACP'
tp522
F1
s(S'MP'
S'MPAP'
tp523
F1
s(S'NP'
S'NNNDP'
tp524
F3
s(g502
S'ADVACP'
tp525
F6
s(g346
S'VVVAP'
tp526
F1
s(S'DP'
S'ADPPP'
tp527
F8
s(S'MP'
S'MNAVP'
tp528
F1
s(S'MP'
S'MVCP'
tp529
F11
s(S'CP'
S'CCDDP'
tp530
F22
s(S'NP'
S'NNADVVP'
tp531
F2
s(S'VP'
S'VVADVADVAP'
tp532
F1
s(g140
S'DDADP'
tp533
F1
s(S'DP'
S'ADVADVDAANP'
tp534
F1
s(S'DP'
S'AAADNP'
tp535
F1
s(g119
S'NAACCP'
tp536
F1
s(g22
S'PPAAP'
tp537
F3
s(S'NP'
p538
S'NAAMP'
tp539
F2
s(S'NP'
S'NNNNVP'
tp540
F4
s(g273
S'VVCP'
tp541
F20
s(S'MP'
S'MVAANP'
tp542
F1
s(S'PP'
S'PADVADVPP'
tp543
F1
s(S'DP'
S'ADVDMP'
tp544
F1
s(g323
S'AANCP'
tp545
F6
s(g106
S'VADVNP'
tp546
F9
s(S'VP'
S'VVDDDP'
tp547
F1
s(S'AP'
S'ADVAVVP'
tp548
F3
s(S'PP'
S'APPP'
tp549
F8
s(S'DP'
S'DDDDPPP'
tp550
F2
s(g488
S'MNNPP'
tp551
F2
s(S'VP'
S'ADVVPP'
tp552
F6
s(S'CP'
S'CDAPPP'
tp553
F3
s(g230
S'VNNP'
tp554
F38
s(S'AP'
S'AADVDP'
tp555
F3
s(S'NP'
S'NADP'
tp556
F9
s(S'PP'
S'AAAPPP'
tp557
F1
s(S'DP'
p558
S'DDNP'
tp559
F57
s(g62
S'NADVCP'
tp560
F9
s(S'DP'
p561
S'DDNNP'
tp562
F11
s(S'PP'
S'AAPPP'
tp563
F3
s(S'VP'
S'VPPPPP'
tp564
F2
s(S'NP'
p565
S'ADVNCP'
tp566
F11
s(S'NP'
S'ADVANVP'
tp567
F3
s(S'VP'
S'AAVNNP'
tp568
F1
s(S'NP'
S'ADVADVNCP'
tp569
F1
s(S'DP'
S'AADPP'
tp570
F17
s(g40
S'AAVMP'
tp571
F1
s(S'PP'
S'APPNP'
tp572
F2
s(S'NP'
S'NNAAP'
tp573
F1
s(S'NP'
S'NNNNPP'
tp574
F1
s(S'PP'
S'PAAANP'
tp575
F1
s(g64
S'VVMMP'
tp576
F1
s(S'NP'
S'NNNP'
tp577
F1
s(S'NP'
S'NNADVADVCCP'
tp578
F1
s(S'CP'
S'CDPPPPP'
tp579
F2
s(S'NP'
S'ANVVVP'
tp580
F1
s(S'NP'
S'NADVADVCCP'
tp581
F1
s(S'MP'
S'MVVNP'
tp582
F3
s(S'CP'
S'ACDDP'
tp583
F5
s(S'AP'
S'AAPP'
tp584
F4
s(S'VP'
S'VVCCP'
tp585
F3
s(g430
S'PADVMP'
tp586
F1
s(S'DP'
p587
S'DADVADVNP'
tp588
F2
s(S'VP'
S'VADVADP'
tp589
F1
s(S'VP'
S'VVVCCP'
tp590
F1
s(S'NP'
S'NAPP'
tp591
F6
s(g242
S'APPVP'
tp592
F1
s(S'AP'
S'ADVADVADP'
tp593
F1
s(S'NP'
S'NADVDP'
tp594
F2
s(g29
S'VVVCP'
tp595
F3
s(S'NP'
S'ANCCP'
tp596
F7
s(S'NP'
S'AANPP'
tp597
F6
s(S'NP'
S'NNCCP'
tp598
F18
s(g379
S'NNMP'
tp599
F32
s(S'DP'
S'DDDVP'
tp600
F4
s(S'CP'
S'CADDPP'
tp601
F3
s(S'MP'
S'MAPDP'
tp602
F1
s(S'PP'
S'PAAAP'
tp603
F2
s(g323
S'AAAANCP'
tp604
F1
s(S'CP'
S'CDDAPP'
tp605
F2
s(S'NP'
S'NNNADVADVCP'
tp606
F1
s(S'NP'
S'ANAP'
tp607
F6
s(S'MP'
S'MVAP'
tp608
F15
s(S'PP'
S'PVP'
tp609
F299
s(S'AP'
S'ADVADVAPP'
tp610
F1
s(g295
S'AAMVP'
tp611
F1
s(S'VP'
S'VVVVDP'
tp612
F1
s(S'CP'
S'CDDDADVADVPPP'
tp613
F1
s(S'AP'
S'ADVAACP'
tp614
F1
s(S'NP'
S'ANNCP'
tp615
F3
s(S'PP'
S'PPADVPP'
tp616
F1
s(S'DP'
S'ADVADVADVDNP'
tp617
F1
s(S'PP'
S'PPDDP'
tp618
F10
s(S'VP'
p619
S'AVCP'
tp620
F7
s(g587
S'DDVVVP'
tp621
F2
s(S'VP'
S'VAMP'
tp622
F1
s(S'DP'
S'DPP'
tp623
F605
s(S'NP'
S'ADVNVP'
tp624
F5
s(S'DP'
S'DDDVVP'
tp625
F1
s(S'DP'
S'DDPP'
tp626
F122
s(g90
S'DANP'
tp627
F43
s(S'NP'
p628
S'NADVPP'
tp629
F4
s(g497
S'ADVNVVVP'
tp630
F1
s(S'MP'
S'MMAP'
tp631
F1
s(S'PP'
S'AAPPVP'
tp632
F1
s(S'NP'
S'AANADVVP'
tp633
F2
s(S'NP'
S'NAAVP'
tp634
F6
s(S'DP'
S'ADVADVADPP'
tp635
F2
s(g171
S'AADNP'
tp636
F4
s(S'AP'
S'AAAAPP'
tp637
F1
s(g365
S'VADVCP'
tp638
F1
s(S'AP'
S'ADVAVP'
tp639
F1
s(S'NP'
S'NNNNCP'
tp640
F7
s(S'MP'
S'MDNP'
tp641
F5
s(S'NP'
p642
S'NNAACP'
tp643
F3
s(S'VP'
S'ADVAVAP'
tp644
F1
s(g480
S'NNNVVP'
tp645
F3
s(g77
S'PADVPPP'
tp646
F1
s(g354
S'DCCP'
tp647
F2
s(S'DP'
S'AADDP'
tp648
F3
s(S'AP'
p649
S'AMP'
tp650
F18
s(S'PP'
p651
S'AAPDP'
tp652
F7
s(S'VP'
S'ADVADVVDDP'
tp653
F2
s(S'DP'
S'DDADVNNP'
tp654
F1
s(S'VP'
S'AVVDP'
tp655
F1
s(g225
S'PDDP'
tp656
F54
s(g261
S'MVDDP'
tp657
F2
s(g628
S'ADVANADVVVP'
tp658
F1
s(S'NP'
S'NNNADVVP'
tp659
F2
s(S'NP'
S'NNVP'
tp660
F128
s(S'NP'
S'ADVNNCP'
tp661
F3
s(S'MP'
S'MVVVNNP'
tp662
F2
s(S'PP'
S'APAAP'
tp663
F1
s(g642
S'NNP'
tp664
F2
s(g463
S'VVDDP'
tp665
F6
s(S'VP'
S'VAADDP'
tp666
F1
s(g448
S'DAANP'
tp667
F9
s(S'MP'
S'MDADVNP'
tp668
F1
s(S'AP'
S'ADDP'
tp669
F35
s(S'VP'
S'VADVADVMP'
tp670
F1
s(S'PP'
S'PNNNNP'
tp671
F2
s(g619
S'ADVVVAP'
tp672
F1
s(g233
S'ADVPPNP'
tp673
F3
s(S'NP'
S'ADVADVNVVP'
tp674
F1
s(S'MP'
S'MDAP'
tp675
F3
s(S'CP'
S'CADVADVDPP'
tp676
F1
s(g558
S'DPPP'
tp677
F124
s(S'DP'
S'AADPPP'
tp678
F2
s(g504
S'VANNP'
tp679
F1
s(S'NP'
p680
S'NNAVP'
tp681
F1
s(S'NP'
S'NNAAPP'
tp682
F1
s(S'PP'
p683
S'PPPANP'
tp684
F1
s(S'PP'
S'ADVPNP'
tp685
F19
s(g335
S'PPDP'
tp686
F43
s(S'DP'
S'ADVDDADVPP'
tp687
F1
s(S'MP'
S'MNMMP'
tp688
F1
s(S'DP'
S'DDPPPP'
tp689
F1
s(S'DP'
S'DDADVANP'
tp690
F1
s(S'DP'
S'DDCP'
tp691
F1
s(S'NP'
S'ANADVADVVP'
tp692
F1
s(g504
S'VMMMP'
tp693
F1
s(S'MP'
S'MNCCP'
tp694
F1
s(S'NP'
S'NAP'
tp695
F140
s(S'VP'
S'AVANNNP'
tp696
F1
s(g14
S'VAAAP'
tp697
F3
s(S'MP'
S'MNDP'
tp698
F1
s(S'VP'
S'VVP'
tp699
F50
s(S'DP'
S'DDAPP'
tp700
F6
s(S'AP'
S'AAADP'
tp701
F9
s(S'CP'
S'CCAAAADP'
tp702
F1
s(g233
S'APNP'
tp703
F21
s(g10
S'VVVNNP'
tp704
F2
s(S'DP'
S'DDDAPP'
tp705
F1
s(S'AP'
S'AADVADVPP'
tp706
F1
s(S'DP'
S'DDVVP'
tp707
F4
s(S'VP'
S'VVVNP'
tp708
F8
s(S'MP'
S'MNPP'
tp709
F3
s(S'CP'
S'CDDAAAPP'
tp710
F1
s(g538
S'NAMP'
tp711
F5
s(S'MP'
S'MVANP'
tp712
F1
s(S'MP'
S'MAVVDP'
tp713
F1
s(S'MP'
S'MVNNP'
tp714
F3
s(S'CP'
S'CDPP'
tp715
F518
s(g680
S'ANNNCP'
tp716
F1
s(S'MP'
S'MVVNNP'
tp717
F2
s(S'AP'
S'ADDDP'
tp718
F5
s(S'CP'
S'ADVCADP'
tp719
F1
s(S'DP'
S'ADVDVVP'
tp720
F2
s(S'MP'
S'MMMVP'
tp721
F1
s(g31
S'ADADVADVPP'
tp722
F1
s(g149
S'ADVCDP'
tp723
F11
s(S'VP'
S'ADVADVVNP'
tp724
F2
s(S'VP'
S'ADVADVVCP'
tp725
F1
s(S'VP'
S'VADVADVDP'
tp726
F1
s(g38
S'PPNNP'
tp727
F9
s(S'PP'
S'PPMP'
tp728
F1
s(g165
S'CCADDP'
tp729
F1
s(S'DP'
p730
S'ADVADVDPP'
tp731
F3
s(S'VP'
S'VDP'
tp732
F332
s(S'NP'
S'NADVAP'
tp733
F7
s(S'DP'
S'DADVNP'
tp734
F8
s(S'DP'
S'DDCCP'
tp735
F1
s(g561
S'DAP'
tp736
F44
s(g149
S'CADPP'
tp737
F50
s(S'CP'
S'CADVDDADVPP'
tp738
F1
s(S'CP'
S'CCCCDP'
tp739
F1
s(S'DP'
S'ADAPPP'
tp740
F1
s(g219
S'AAVVAP'
tp741
F1
s(S'VP'
S'AVPP'
tp742
F2
s(S'CP'
S'CAADPPP'
tp743
F1
s(S'VP'
S'VVADVDP'
tp744
F1
s(S'CP'
S'CDPPPP'
tp745
F5
s(S'VP'
S'AAVDP'
tp746
F7
s(g352
S'PANNP'
tp747
F2
s(S'NP'
S'ADVANMP'
tp748
F1
s(S'AP'
S'AAAPP'
tp749
F2
s(g321
S'DAPPP'
tp750
F4
s(S'DP'
S'DADVADVPP'
tp751
F1
s(S'PP'
S'APPADVDP'
tp752
F1
s(S'PP'
S'PPPNP'
tp753
F5
s(S'CP'
S'ADVADVCAADP'
tp754
F1
s(S'PP'
S'PADVADVNP'
tp755
F2
s(S'MP'
S'MNNCCP'
tp756
F1
s(S'AP'
S'AADP'
tp757
F60
s(S'AP'
S'AAAAVP'
tp758
F1
s(S'NP'
S'NVP'
tp759
F344
s(S'VP'
S'VADVPP'
tp760
F4
s(S'CP'
S'CDDPPP'
tp761
F5
s(S'PP'
S'PVVVVP'
tp762
F1
s(S'CP'
S'CAAADPPPP'
tp763
F1
s(g319
S'ADVPVP'
tp764
F10
s(S'DP'
S'DDDDPP'
tp765
F3
s(S'AP'
S'ADVADVAVP'
tp766
F1
s(g174
S'ADVVANP'
tp767
F3
s(S'VP'
S'ADVADVVAANP'
tp768
F1
s(g204
S'ADVPDP'
tp769
F4
s(S'DP'
S'DDDAVP'
tp770
F1
s(g565
S'ANNPP'
tp771
F1
s(S'MP'
S'MVADVAP'
tp772
F1
s(g416
S'NCP'
tp773
F401
s(S'CP'
S'CADVDPPP'
tp774
F3
s(S'PP'
S'PPADVNNP'
tp775
F1
s(g683
S'AAAPNP'
tp776
F1
s(S'NP'
S'ADVANDP'
tp777
F1
s(S'AP'
S'AAAP'
tp778
F3
s(S'PP'
S'AAAAPVP'
tp779
F1
s(g504
S'VAADP'
tp780
F2
s(g651
S'ADVPDDP'
tp781
F1
s(S'NP'
S'AANDP'
tp782
F3
s(S'MP'
S'MVCCP'
tp783
F2
s(g230
S'VDDDP'
tp784
F3
s(S'MP'
S'MNVP'
tp785
F22
s(S'NP'
S'AANAP'
tp786
F1
s(S'CP'
S'ADVADVCCDP'
tp787
F1
s(S'DP'
S'AAAADPPP'
tp788
F1
s(S'VP'
S'VAPP'
tp789
F2
s(S'MP'
S'MADVVANP'
tp790
F1
s(S'VP'
S'ADVVDP'
tp791
F21
s(g730
S'DADVPP'
tp792
F20
s(S'PP'
S'ADVPAAAP'
tp793
F1
s(S'CP'
S'CCADP'
tp794
F9
s(g48
S'MADVVDDP'
tp795
F1
s(S'NP'
S'NNNPPP'
tp796
F3
s(g181
S'ADVAPP'
tp797
F8
s(S'MP'
S'AMMVP'
tp798
F1
s(S'MP'
S'ADVADVMNP'
tp799
F1
s(S'DP'
S'ADMMP'
tp800
F1
s(S'CP'
S'AACDP'
tp801
F5
s(g443
S'NNNCCP'
tp802
F4
s(S'DP'
S'ADVDPPP'
tp803
F3
s(g558
S'DVP'
tp804
F307
s(g438
S'ADVNPP'
tp805
F3
s(S'VP'
S'ADVADVADVVVNP'
tp806
F1
s(g649
S'AVP'
tp807
F32
s(S'NP'
S'NADVVP'
tp808
F20
s(S'NP'
S'NNADVADVVP'
tp809
F1
s(S'VP'
S'ADVVPPP'
tp810
F1
s(g398
S'DDPPP'
tp811
F10
s(S'NP'
S'ADVNMP'
tp812
F5
s(S'NP'
S'NNAP'
tp813
F21
s(S'MP'
S'MADVVCP'
tp814
F4
s(S'PP'
S'PPANP'
tp815
F3
s(S'MP'
S'MCDDP'
tp816
F1
s(S'VP'
S'VVADVADVDP'
tp817
F1
s(g33
S'CDADVPP'
tp818
F13
s(S'VP'
S'VNP'
tp819
F345
s(g135
S'VANP'
tp820
F22
s(g55
S'VADVAP'
tp821
F9
s(g354
S'DDDANP'
tp822
F1
s(g223
S'PPADVNP'
tp823
F2
s(S'DP'
S'DDDDVP'
tp824
F1
s(S'VP'
S'ADVADVVVDP'
tp825
F1
s(S'NP'
S'AANNAP'
tp826
F1
s(g62
S'NADVPPP'
tp827
F1
s.