ccollections
defaultdict
p1
(c__builtin__
float
p2
tRp3
(S'DP'
S'DADVAPP'
tp4
F2
s(S'MP'
S'MMDP'
tp5
F2
s(S'CP'
S'CAAADPP'
tp6
F1
s(S'DP'
S'ADDPP'
tp7
F4
s(S'DP'
S'DDAP'
tp8
F2
s(S'VP'
S'ADVVVNP'
tp9
F1
s(S'NP'
p10
S'NADVAPPP'
tp11
F1
s(S'PP'
p12
S'PADVADVPPP'
tp13
F1
s(S'DP'
S'DAANNP'
tp14
F2
s(S'PP'
p15
S'ADVADVPAP'
tp16
F2
s(S'PP'
S'PAPP'
tp17
F10
s(S'PP'
S'PADVNP'
tp18
F22
s(S'CP'
S'CCAAADP'
tp19
F1
s(S'DP'
p20
S'DNP'
tp21
F388
s(S'PP'
p22
S'PPADVAVP'
tp23
F1
s(S'NP'
S'ADVNDP'
tp24
F3
s(S'PP'
S'AAPDDP'
tp25
F2
s(S'VP'
S'ADVVNNP'
tp26
F5
s(S'NP'
S'NNADVMP'
tp27
F1
s(S'CP'
S'CDPPP'
tp28
F112
s(S'MP'
S'ADVAAMMPPP'
tp29
F1
s(S'VP'
p30
S'VADP'
tp31
F26
s(S'DP'
S'DNNNNP'
tp32
F4
s(S'CP'
S'CDAAPPP'
tp33
F1
s(S'DP'
S'DAAP'
tp34
F7
s(S'PP'
S'PPAVP'
tp35
F1
s(S'PP'
p36
S'PPPPPP'
tp37
F1
s(S'VP'
p38
S'VAVP'
tp39
F1
s(S'PP'
p40
S'APPDP'
tp41
F1
s(S'VP'
S'VADVDDP'
tp42
F1
s(S'DP'
S'DAADP'
tp43
F2
s(S'DP'
S'ADNNP'
tp44
F3
s(S'MP'
S'MDVP'
tp45
F2
s(S'VP'
S'ADVVNP'
tp46
F20
s(S'MP'
S'MVDP'
tp47
F45
s(S'PP'
S'PADVANP'
tp48
F1
s(S'VP'
S'ADVVAMP'
tp49
F1
s(S'PP'
p50
S'PPPP'
tp51
F38
s(S'AP'
S'APPP'
tp52
F3
s(S'DP'
p53
S'DDDNP'
tp54
F2
s(S'MP'
S'MMADVVP'
tp55
F1
s(S'PP'
p56
S'ADVAPCP'
tp57
F1
s(S'VP'
p58
S'VACP'
tp59
F5
s(S'PP'
S'PPAAP'
tp60
F2
s(S'DP'
S'DADVVP'
tp61
F15
s(S'MP'
S'MAVVCP'
tp62
F1
s(S'PP'
S'PADVNNP'
tp63
F1
s(S'NP'
S'NADVACP'
tp64
F1
s(S'VP'
S'AAVVP'
tp65
F1
s(S'NP'
p66
S'NADVVVP'
tp67
F6
s(S'CP'
S'CADVDAPP'
tp68
F2
s(S'VP'
p69
S'VCP'
tp70
F179
s(S'NP'
p71
S'NMMP'
tp72
F8
s(S'NP'
p73
S'ADVADVNNCCP'
tp74
F1
s(S'VP'
S'ADVVAAP'
tp75
F2
s(S'PP'
p76
S'ADVPNNP'
tp77
F1
s(S'PP'
p78
S'PAP'
tp79
F123
s(S'MP'
S'MMVVP'
tp80
F4
s(S'DP'
S'DDADVADVPP'
tp81
F1
s(S'NP'
S'ANNCCP'
tp82
F2
s(S'MP'
p83
S'MANP'
tp84
F1
s(S'NP'
S'NNNAP'
tp85
F2
s(S'CP'
S'AAAACDP'
tp86
F1
s(S'NP'
S'ANPPP'
tp87
F2
s(S'NP'
S'NAAAVP'
tp88
F1
s(S'PP'
S'PPADVDP'
tp89
F1
s(S'VP'
S'VADVANP'
tp90
F1
s(S'PP'
p91
S'PNP'
tp92
F460
s(S'VP'
S'VVNNNNNP'
tp93
F1
s(S'VP'
S'VVADVADVNP'
tp94
F2
s(g53
S'DDP'
tp95
F73
s(S'MP'
S'MADVADVVAP'
tp96
F1
s(S'VP'
S'ADVVDDP'
tp97
F1
s(S'NP'
p98
S'NNNPP'
tp99
F4
s(S'PP'
p100
S'PAAP'
tp101
F27
s(S'MP'
S'MCDP'
tp102
F10
s(S'CP'
S'CADVADVDDPP'
tp103
F1
s(S'CP'
S'AACCDP'
tp104
F1
s(S'DP'
S'DDAANP'
tp105
F1
s(S'MP'
S'MNAP'
tp106
F3
s(S'VP'
S'VVADVVP'
tp107
F2
s(S'VP'
S'ADVADVVVCP'
tp108
F1
s(S'NP'
S'NMP'
tp109
F185
s(S'NP'
S'ADVNCCP'
tp110
F3
s(S'DP'
S'ADCP'
tp111
F1
s(S'NP'
S'NNCCCCCP'
tp112
F1
s(S'VP'
p113
S'AAVNP'
tp114
F6
s(S'VP'
S'VMMP'
tp115
F3
s(g50
S'PDP'
tp116
F361
s(S'CP'
S'CDAAPP'
tp117
F13
s(S'NP'
S'ADVNVVP'
tp118
F1
s(S'VP'
S'VNNNNP'
tp119
F1
s(S'MP'
S'MNNVP'
tp120
F2
s(S'VP'
S'VVVDDP'
tp121
F1
s(S'MP'
S'MADVVNP'
tp122
F7
s(S'CP'
S'CDADVADVPPP'
tp123
F2
s(g58
S'AVAAP'
tp124
F2
s(S'VP'
S'AVVAP'
tp125
F1
s(S'AP'
S'ANP'
tp126
F7
s(S'PP'
S'ADVPAAP'
tp127
F1
s(S'PP'
p128
S'PADVPP'
tp129
F1
s(S'VP'
p130
S'AAVPP'
tp131
F3
s(S'VP'
S'VVADVNP'
tp132
F1
s(S'PP'
S'PPADVAP'
tp133
F1
s(S'NP'
S'ADVANCP'
tp134
F3
s(S'NP'
S'ADVNACP'
tp135
F1
s(S'DP'
S'DPPPP'
tp136
F20
s(S'DP'
S'DDANP'
tp137
F3
s(S'NP'
p138
S'NACP'
tp139
F18
s(S'AP'
S'ADVAVP'
tp140
F1
s(S'NP'
p141
S'NCCP'
tp142
F93
s(S'VP'
S'ADVVAANP'
tp143
F1
s(S'NP'
p144
S'NNCP'
tp145
F119
s(S'DP'
S'ADVDDPP'
tp146
F4
s(S'DP'
S'DDDDP'
tp147
F4
s(S'DP'
p148
S'DDAPP'
tp149
F9
s(S'MP'
S'MVAAAP'
tp150
F1
s(S'VP'
p151
S'AVNP'
tp152
F18
s(g73
S'NNNNNCP'
tp153
F1
s(S'PP'
p154
S'ADVPVVP'
tp155
F1
s(S'DP'
S'ADADVNP'
tp156
F1
s(S'VP'
S'VVMP'
tp157
F1
s(S'VP'
S'ADVADVAVNP'
tp158
F1
s(S'VP'
S'VADVVP'
tp159
F3
s(S'CP'
S'ACCDDP'
tp160
F1
s(S'VP'
S'ADVADVADVVNP'
tp161
F2
s(S'MP'
S'MVAPP'
tp162
F1
s(S'NP'
S'ANADVVP'
tp163
F1
s(S'DP'
p164
S'ADVVVP'
tp165
F1
s(S'MP'
S'AMMVP'
tp166
F1
s(S'NP'
p167
S'NCCCCP'
tp168
F3
s(S'CP'
S'CCCDP'
tp169
F4
s(S'VP'
S'ADVVAP'
tp170
F16
s(S'PP'
S'ADVPPNNP'
tp171
F1
s(S'VP'
S'VCCCP'
tp172
F2
s(S'PP'
S'PADVVVP'
tp173
F2
s(S'PP'
S'APDP'
tp174
F20
s(S'NP'
S'AANNCCP'
tp175
F1
s(g71
S'ADVNPPP'
tp176
F1
s(S'AP'
p177
S'AADVCP'
tp178
F2
s(S'DP'
S'AADVDDANP'
tp179
F1
s(S'VP'
S'VVANP'
tp180
F3
s(S'MP'
S'MVADVNP'
tp181
F1
s(S'VP'
S'ADVVVP'
tp182
F1
s(S'PP'
S'PPADVADVNNP'
tp183
F1
s(S'NP'
S'ADVNNADVVP'
tp184
F1
s(S'PP'
S'PCCP'
tp185
F2
s(S'NP'
S'NANP'
tp186
F5
s(S'DP'
S'DNNP'
tp187
F84
s(S'CP'
S'CADVDDPP'
tp188
F3
s(S'DP'
S'DPPPPP'
tp189
F7
s(S'CP'
S'CDDPPPP'
tp190
F2
s(S'CP'
S'CCADVDP'
tp191
F5
s(S'VP'
S'ADVADVADVVVDP'
tp192
F1
s(S'NP'
S'NNNVP'
tp193
F12
s(S'NP'
S'NNNCCCP'
tp194
F1
s(g22
S'AAPPDP'
tp195
F1
s(S'VP'
S'VVANNP'
tp196
F1
s(S'VP'
S'ADVVAANNP'
tp197
F1
s(S'VP'
S'ADVVAAAMP'
tp198
F1
s(S'PP'
S'PADVVP'
tp199
F13
s(S'MP'
S'MVVDDP'
tp200
F1
s(S'PP'
S'APAP'
tp201
F5
s(S'AP'
S'APP'
tp202
F53
s(S'AP'
p203
S'ACCCP'
tp204
F1
s(S'NP'
S'NADVMP'
tp205
F2
s(g177
S'AAP'
tp206
F10
s(S'VP'
S'ADVVMMP'
tp207
F1
s(S'NP'
S'ADVADVNCCP'
tp208
F1
s(S'MP'
S'MVVCP'
tp209
F1
s(S'DP'
S'DAAVP'
tp210
F7
s(S'CP'
S'CDDDDPP'
tp211
F2
s(S'MP'
S'MPVP'
tp212
F2
s(S'MP'
S'MVVVNP'
tp213
F2
s(S'PP'
S'PAANP'
tp214
F8
s(S'VP'
S'VADVADVCP'
tp215
F1
s(S'NP'
p216
S'NADVADVPPP'
tp217
F1
s(S'PP'
p218
S'PPVVP'
tp219
F7
s(S'VP'
S'VAACP'
tp220
F1
s(S'NP'
S'NNADVADVADVAP'
tp221
F1
s(S'VP'
S'VVAPP'
tp222
F1
s(S'MP'
S'MVNP'
tp223
F68
s(S'NP'
S'ANAAP'
tp224
F3
s(S'AP'
S'ADVAADP'
tp225
F1
s(S'DP'
S'ADVADNP'
tp226
F2
s(S'PP'
p227
S'PAVP'
tp228
F15
s(S'MP'
p229
S'MVVADVACP'
tp230
F1
s(S'MP'
S'ADVMVP'
tp231
F4
s(g12
S'ADVADVPPVP'
tp232
F1
s(S'NP'
S'ANAAAP'
tp233
F1
s(S'DP'
S'ADVDVVP'
tp234
F1
s(S'NP'
S'NMMMMP'
tp235
F1
s(S'PP'
S'AAAAPPP'
tp236
F1
s(S'MP'
S'MADVVPP'
tp237
F2
s(S'DP'
S'DADP'
tp238
F2
s(S'DP'
S'DAAAPPP'
tp239
F1
s(S'AP'
S'ADVADP'
tp240
F11
s(S'NP'
S'NAMMP'
tp241
F1
s(g130
S'ADVVMP'
tp242
F1
s(S'PP'
S'APDDP'
tp243
F2
s(S'NP'
S'ADVNAP'
tp244
F1
s(S'PP'
S'PPCP'
tp245
F4
s(S'NP'
S'AAANNPP'
tp246
F1
s(S'PP'
S'APVP'
tp247
F14
s(S'NP'
S'ADVNADVMP'
tp248
F1
s(S'VP'
p249
S'ADVVVANNP'
tp250
F1
s(S'MP'
S'MNCP'
tp251
F4
s(S'VP'
p252
S'VVNP'
tp253
F79
s(S'PP'
S'PPPNNP'
tp254
F1
s(S'DP'
S'DADVCCP'
tp255
F1
s(S'CP'
S'ADVCCDP'
tp256
F3
s(S'PP'
p257
S'PPVP'
tp258
F56
s(S'CP'
S'CADVDDAPP'
tp259
F1
s(g30
S'VADVDP'
tp260
F9
s(S'MP'
S'MPADP'
tp261
F1
s(S'VP'
S'VAAP'
tp262
F27
s(S'NP'
S'ANDP'
tp263
F15
s(S'NP'
p264
S'NVVP'
tp265
F96
s(S'PP'
S'AAPVP'
tp266
F8
s(S'PP'
p267
S'PPADP'
tp268
F1
s(S'VP'
S'VMP'
tp269
F31
s(S'NP'
S'AANNMP'
tp270
F1
s(S'VP'
p271
S'VVNNP'
tp272
F14
s(S'CP'
S'CDAPP'
tp273
F38
s(S'CP'
S'CDDAAPP'
tp274
F1
s(S'PP'
S'ADVPMP'
tp275
F1
s(S'MP'
S'MMPP'
tp276
F1
s(S'CP'
S'CADVADPP'
tp277
F3
s(S'VP'
p278
S'ADVADVVVNNP'
tp279
F1
s(S'DP'
p280
S'ADNP'
tp281
F30
s(S'DP'
S'DDADVAP'
tp282
F1
s(S'PP'
S'PADP'
tp283
F13
s(g10
S'NNAADP'
tp284
F1
s(S'VP'
S'ADVVVCP'
tp285
F1
s(S'PP'
S'PAAPP'
tp286
F2
s(g164
S'ADVDDNP'
tp287
F1
s(S'NP'
S'ANDDP'
tp288
F2
s(S'DP'
S'ADVADVDVP'
tp289
F2
s(S'DP'
S'DADVAP'
tp290
F3
s(S'MP'
S'MANVVP'
tp291
F1
s(S'DP'
S'DAPP'
tp292
F50
s(S'NP'
S'NAAACP'
tp293
F1
s(S'VP'
p294
S'VVAAPPP'
tp295
F1
s(S'VP'
S'VADVAAP'
tp296
F2
s(S'VP'
S'ADVADVVDP'
tp297
F4
s(S'PP'
p298
S'PPPDP'
tp299
F4
s(S'DP'
p300
S'DAAPPP'
tp301
F1
s(S'AP'
p302
S'AAPPP'
tp303
F2
s(S'AP'
S'AMMMMP'
tp304
F1
s(S'VP'
S'VDDDDP'
tp305
F1
s(S'DP'
S'DAAANP'
tp306
F2
s(g278
S'VVAAP'
tp307
F3
s(g278
S'VAAPP'
tp308
F1
s(S'DP'
S'ADVDNP'
tp309
F6
s(S'VP'
p310
S'VVPP'
tp311
F29
s(S'PP'
S'ADVPAAPP'
tp312
F1
s(S'MP'
p313
S'MVPP'
tp314
F25
s(S'DP'
p315
S'ADVP'
tp316
F13
s(S'MP'
S'MDAAP'
tp317
F1
s(S'DP'
S'DDAAPP'
tp318
F1
s(S'PP'
S'AAPMP'
tp319
F1
s(S'NP'
p320
S'NNPP'
tp321
F57
s(S'MP'
S'MVVDP'
tp322
F5
s(S'AP'
S'AACP'
tp323
F10
s(S'NP'
p324
S'ANVP'
tp325
F32
s(S'DP'
S'DNNNP'
tp326
F9
s(S'PP'
p327
S'APADDP'
tp328
F1
s(S'CP'
S'CAADDPPP'
tp329
F1
s(S'PP'
S'PADVADVVP'
tp330
F1
s(S'NP'
S'ADVANVVP'
tp331
F1
s(S'PP'
S'PMMP'
tp332
F2
s(S'PP'
S'PVVVP'
tp333
F9
s(S'PP'
S'PMP'
tp334
F21
s(S'NP'
p335
S'NNMMP'
tp336
F4
s(S'CP'
S'CCDP'
tp337
F130
s(g148
S'ADVADVADVDPP'
tp338
F2
s(S'MP'
S'AMVP'
tp339
F3
s(S'PP'
p340
S'PPNNNP'
tp341
F4
s(S'VP'
S'VADVADVANP'
tp342
F1
s(S'NP'
S'NVVVP'
tp343
F6
s(S'CP'
p344
S'CDDDPP'
tp345
F16
s(S'CP'
S'CDADVADVPP'
tp346
F5
s(S'VP'
S'VVVDP'
tp347
F12
s(S'NP'
S'NACCP'
tp348
F1
s(g340
S'PNNNP'
tp349
F3
s(S'CP'
p350
S'CCCCDP'
tp351
F4
s(S'AP'
S'AACCP'
tp352
F2
s(S'PP'
p353
S'AAPNP'
tp354
F7
s(S'AP'
S'ADVAAAP'
tp355
F1
s(S'VP'
p356
S'ADVVVDP'
tp357
F2
s(g227
S'PPP'
tp358
F173
s(g324
S'NAVP'
tp359
F23
s(S'PP'
S'PADVAP'
tp360
F6
s(S'VP'
S'ADVVAPP'
tp361
F1
s(g327
S'PADDP'
tp362
F1
s(S'CP'
S'CADVDPPPP'
tp363
F1
s(S'DP'
p364
S'ADVDVP'
tp365
F10
s(S'PP'
S'PPADVADVNP'
tp366
F1
s(S'NP'
p367
S'NAAAP'
tp368
F2
s(S'CP'
S'CAADAPPP'
tp369
F1
s(S'DP'
S'DADVADVPPP'
tp370
F2
s(S'CP'
S'CCADVADVADVDP'
tp371
F1
s(S'PP'
S'PPPPDP'
tp372
F2
s(S'DP'
S'DAAAP'
tp373
F1
s(S'DP'
S'ADVADVDNP'
tp374
F1
s(S'VP'
S'VAAAAP'
tp375
F1
s(S'VP'
p376
S'VPP'
tp377
F194
s(S'DP'
S'ADVDPPPP'
tp378
F1
s(S'CP'
p379
S'CDDDPPPP'
tp380
F1
s(S'CP'
S'CDAAAAPP'
tp381
F2
s(S'NP'
S'NNNCP'
tp382
F15
s(S'PP'
S'PADVDP'
tp383
F6
s(S'CP'
S'CDADVAPP'
tp384
F1
s(S'CP'
S'CDDDPPP'
tp385
F2
s(S'DP'
S'DANNP'
tp386
F3
s(S'MP'
S'MADVVAP'
tp387
F2
s(S'PP'
S'PADVAAP'
tp388
F1
s(S'CP'
S'CDDPP'
tp389
F108
s(S'VP'
S'VADVCCP'
tp390
F1
s(S'DP'
S'DAAPP'
tp391
F22
s(g100
S'PVVP'
tp392
F45
s(S'CP'
S'CADPPP'
tp393
F6
s(S'DP'
S'DADVPPP'
tp394
F2
s(S'VP'
S'ADVVCP'
tp395
F12
s(S'MP'
S'MCCDP'
tp396
F2
s(S'VP'
p397
S'VPPP'
tp398
F34
s(S'NP'
S'NADVADVAVP'
tp399
F1
s(S'PP'
S'PPADVADVDP'
tp400
F1
s(S'CP'
S'CDADVADVAPP'
tp401
F2
s(S'VP'
S'VVPPP'
tp402
F1
s(S'MP'
S'MVPPP'
tp403
F2
s(S'DP'
p404
S'DVVP'
tp405
F53
s(S'PP'
S'PADVADVADVAAP'
tp406
F1
s(g141
S'ANMP'
tp407
F5
s(S'PP'
S'PPAP'
tp408
F16
s(S'PP'
S'ADVPPP'
tp409
F3
s(S'NP'
S'ADVADVNVP'
tp410
F2
s(g252
S'VVVP'
tp411
F19
s(S'CP'
S'CADVDPP'
tp412
F18
s(S'VP'
S'AVMP'
tp413
F1
s(S'PP'
S'PAADVDDP'
tp414
F1
s(S'NP'
p415
S'ANCP'
tp416
F51
s(S'CP'
S'CADVADVDAAAAAPP'
tp417
F1
s(S'DP'
S'DCP'
tp418
F32
s(S'DP'
p419
S'DVVVP'
tp420
F3
s(S'NP'
S'AAANCP'
tp421
F3
s(S'VP'
S'ADVVVVP'
tp422
F1
s(S'NP'
S'NNADVAMP'
tp423
F1
s(S'DP'
p424
S'DDDP'
tp425
F24
s(S'AP'
S'ADDDDP'
tp426
F2
s(S'DP'
S'DDADVPP'
tp427
F5
s(S'NP'
S'ANVVP'
tp428
F6
s(S'VP'
p429
S'VVDP'
tp430
F72
s(S'NP'
p431
S'NPPP'
tp432
F29
s(S'DP'
p433
S'ADDDP'
tp434
F1
s(S'MP'
S'AMVVP'
tp435
F2
s(S'DP'
S'DAVP'
tp436
F12
s(g138
S'NNNMP'
tp437
F3
s(g203
S'ACP'
tp438
F66
s(S'VP'
S'VVVVP'
tp439
F1
s(S'PP'
S'AAPAP'
tp440
F1
s(S'PP'
S'PPNP'
tp441
F97
s(g216
S'NAADP'
tp442
F3
s(g404
S'ADVDAPP'
tp443
F3
s(S'DP'
S'AADVP'
tp444
F1
s(S'NP'
S'NNNNCCP'
tp445
F2
s(S'VP'
S'VAANNP'
tp446
F1
s(S'NP'
p447
S'ADVNADVAAMMP'
tp448
F1
s(S'CP'
S'CDDADVPP'
tp449
F3
s(S'AP'
S'ADP'
tp450
F340
s(S'CP'
S'CCCDDDP'
tp451
F2
s(S'PP'
S'APMP'
tp452
F1
s(g148
S'DDAVP'
tp453
F2
s(S'PP'
S'APVVP'
tp454
F1
s(g364
S'ADVDAAPP'
tp455
F2
s(S'NP'
S'ADVANCCP'
tp456
F1
s(S'NP'
S'AAANNCP'
tp457
F1
s(g40
S'ADVAPPDP'
tp458
F1
s(S'VP'
S'VAAANP'
tp459
F3
s(g300
S'DVVVVP'
tp460
F2
s(S'PP'
S'APPAP'
tp461
F1
s(S'NP'
S'NADVADVAP'
tp462
F1
s(S'VP'
S'AAAVDP'
tp463
F4
s(S'VP'
S'ADVADVVNNP'
tp464
F1
s(S'AP'
S'AAADP'
tp465
F16
s(S'NP'
S'ANNVP'
tp466
F1
s(S'CP'
S'CADVADVDPPPP'
tp467
F1
s(S'VP'
S'VVAP'
tp468
F26
s(S'NP'
S'NNAPP'
tp469
F1
s(S'MP'
S'MNADVVP'
tp470
F4
s(S'CP'
S'ADVACDP'
tp471
F2
s(S'PP'
S'PPADVVP'
tp472
F1
s(S'VP'
S'AAVCP'
tp473
F1
s(S'DP'
S'AADDPPP'
tp474
F1
s(S'NP'
S'NPP'
tp475
F249
s(S'VP'
S'ADVADVVAP'
tp476
F2
s(S'NP'
S'NVP'
tp477
F523
s(S'PP'
S'PPVVVP'
tp478
F1
s(S'PP'
S'PAAVP'
tp479
F5
s(g76
S'AAPPNP'
tp480
F1
s(S'NP'
S'NAAPP'
tp481
F2
s(g36
S'PPPPVP'
tp482
F2
s(g397
S'VDDP'
tp483
F54
s(g433
S'DAPPP'
tp484
F2
s(S'AP'
S'ADVADVADVADP'
tp485
F1
s(S'PP'
S'ADVPPPP'
tp486
F1
s(S'DP'
S'DDDDANP'
tp487
F1
s(g267
S'ADVPPVP'
tp488
F1
s(S'NP'
S'AANNVP'
tp489
F1
s(S'NP'
p490
S'NNNNDP'
tp491
F2
s(S'AP'
p492
S'ADVADVADVAADP'
tp493
F1
s(S'NP'
S'NADVADVVVP'
tp494
F1
s(S'NP'
S'ANPP'
tp495
F34
s(S'PP'
p496
S'PPPPP'
tp497
F2
s(S'MP'
S'MPDP'
tp498
F7
s(S'MP'
S'MDVVP'
tp499
F1
s(S'MP'
S'MVVPP'
tp500
F6
s(S'AP'
S'AMMP'
tp501
F4
s(g353
S'PPPNP'
tp502
F7
s(S'DP'
S'DDDDDP'
tp503
F1
s(S'NP'
S'ADVADVNPP'
tp504
F1
s(S'NP'
S'NPPPP'
tp505
F2
s(S'MP'
S'MMMMAVVP'
tp506
F1
s(S'DP'
S'ADDP'
tp507
F1
s(S'NP'
S'NADVAAP'
tp508
F1
s(S'CP'
S'CAADPP'
tp509
F12
s(S'DP'
S'DADVADVVP'
tp510
F1
s(S'NP'
S'NAACP'
tp511
F7
s(g91
S'PNNP'
tp512
F116
s(g353
S'APNNP'
tp513
F3
s(S'DP'
S'DDAAP'
tp514
F1
s(S'NP'
S'NADVDP'
tp515
F2
s(S'MP'
S'MMNP'
tp516
F2
s(S'DP'
S'AAADPP'
tp517
F1
s(S'VP'
S'AVAP'
tp518
F4
s(S'MP'
S'MMVP'
tp519
F13
s(S'CP'
S'CADVDAAPP'
tp520
F1
s(S'PP'
S'ADVADVAPDP'
tp521
F1
s(S'NP'
S'ADVNCP'
tp522
F11
s(S'MP'
S'AMNNNP'
tp523
F1
s(S'AP'
p524
S'AADP'
tp525
F94
s(S'MP'
S'MPDDP'
tp526
F1
s(S'CP'
S'ACDP'
tp527
F28
s(g98
S'NNDP'
tp528
F22
s(S'NP'
S'NNVVVVP'
tp529
F1
s(S'AP'
S'ADVANP'
tp530
F2
s(S'NP'
S'NNACP'
tp531
F5
s(S'DP'
S'AAADPPP'
tp532
F1
s(S'MP'
S'MDNNP'
tp533
F3
s(S'CP'
S'CDADVPPP'
tp534
F1
s(g151
S'VAP'
tp535
F182
s(S'VP'
S'VVVVNP'
tp536
F1
s(S'MP'
S'MNVVP'
tp537
F2
s(S'VP'
S'VVADVADVANP'
tp538
F1
s(g315
S'DDDPP'
tp539
F24
s(S'CP'
S'ADVCDDP'
tp540
F1
s(S'NP'
S'AANNCP'
tp541
F2
s(S'NP'
S'ANADVCP'
tp542
F1
s(S'DP'
S'DAACP'
tp543
F1
s(S'DP'
S'DDDPPPP'
tp544
F1
s(S'NP'
S'NNADVADVAAP'
tp545
F1
s(S'AP'
S'ADVAAPP'
tp546
F1
s(S'MP'
S'MVVVDP'
tp547
F1
s(S'MP'
S'MNMP'
tp548
F2
s(S'DP'
S'DDDPPP'
tp549
F4
s(g271
S'ADVAVDP'
tp550
F1
s(S'DP'
S'DADVDP'
tp551
F2
s(S'PP'
S'APADVVP'
tp552
F1
s(S'CP'
S'CCADVADP'
tp553
F1
s(S'AP'
S'AAACP'
tp554
F2
s(g431
S'NAAP'
tp555
F21
s(S'PP'
S'PPPVP'
tp556
F8
s(S'VP'
S'AAVAP'
tp557
F1
s(S'AP'
S'AADDP'
tp558
F9
s(S'NP'
S'NNNNNAP'
tp559
F1
s(S'MP'
S'MADVNVP'
tp560
F2
s(S'VP'
S'VAANP'
tp561
F7
s(S'NP'
S'NADVADVCP'
tp562
F2
s(S'DP'
S'DAAAAPP'
tp563
F2
s(S'PP'
S'PPPCP'
tp564
F1
s(S'MP'
S'MADVADVADVVNP'
tp565
F1
s(S'NP'
S'NVVVVP'
tp566
F1
s(S'MP'
S'MVVMP'
tp567
F1
s(g313
S'MPNP'
tp568
F8
s(S'MP'
S'MADP'
tp569
F7
s(g151
S'AAVVNP'
tp570
F1
s(S'PP'
S'PANP'
tp571
F35
s(S'PP'
p572
S'PDDDP'
tp573
F3
s(S'NP'
S'ANNMP'
tp574
F1
s(S'MP'
S'ADVAMVP'
tp575
F1
s(S'CP'
S'CADVADVADVDPP'
tp576
F1
s(S'NP'
S'AANMP'
tp577
F1
s(S'AP'
S'AAVP'
tp578
F7
s(g492
S'AVVP'
tp579
F7
s(S'VP'
S'VADVADVAP'
tp580
F2
s(S'NP'
S'NDDP'
tp581
F21
s(S'CP'
S'ADVADVCDP'
tp582
F2
s(S'CP'
S'ACADDP'
tp583
F1
s(S'AP'
S'ACCP'
tp584
F8
s(S'NP'
S'ADVADVANCP'
tp585
F1
s(S'VP'
S'VVVVAP'
tp586
F1
s(S'PP'
S'ADVPAANP'
tp587
F1
s(S'NP'
S'ADVNAAAACP'
tp588
F1
s(g98
S'NDP'
tp589
F178
s(S'NP'
S'AAANVP'
tp590
F3
s(S'AP'
S'AADVADVDP'
tp591
F1
s(S'MP'
p592
S'MVAAP'
tp593
F3
s(S'DP'
p594
S'DDVP'
tp595
F56
s(g367
S'AANVP'
tp596
F10
s(S'PP'
S'ADVADVAPPPP'
tp597
F1
s(g429
S'ADVVVNNP'
tp598
F1
s(S'DP'
S'DADVADVAPP'
tp599
F2
s(g364
S'ADDVP'
tp600
F2
s(S'VP'
S'VNNNP'
tp601
F5
s(S'PP'
S'ADVPAP'
tp602
F4
s(S'PP'
S'PCP'
tp603
F10
s(g138
S'NNPPP'
tp604
F4
s(S'PP'
p605
S'PAADP'
tp606
F3
s(S'NP'
S'NADVCCP'
tp607
F1
s(S'MP'
S'MADVADVVCP'
tp608
F1
s(g572
S'PPPVVP'
tp609
F1
s(S'VP'
p610
S'VVADVACP'
tp611
F1
s(S'VP'
S'VCCP'
tp612
F16
s(S'MP'
S'MPAP'
tp613
F1
s(S'NP'
S'NADVADVADVVVP'
tp614
F1
s(S'NP'
S'NNNDP'
tp615
F2
s(S'AP'
S'ADVANNNP'
tp616
F1
s(S'AP'
S'ADVACP'
tp617
F4
s(S'NP'
S'ADVADVNMP'
tp618
F3
s(S'VP'
S'AVVDP'
tp619
F2
s(S'NP'
S'NNVP'
tp620
F129
s(S'MP'
S'MVCP'
tp621
F16
s(g350
S'CCDDP'
tp622
F20
s(S'NP'
S'NNADVVP'
tp623
F8
s(S'NP'
p624
S'NAACCP'
tp625
F1
s(S'NP'
S'NNVVP'
tp626
F17
s(S'VP'
S'VVCP'
tp627
F22
s(S'PP'
p628
S'PADVADVPP'
tp629
F1
s(S'NP'
S'AANCP'
tp630
F16
s(S'VP'
p631
S'VADVNP'
tp632
F13
s(S'AP'
S'ADVAVVP'
tp633
F1
s(S'PP'
S'APANNP'
tp634
F1
s(S'NP'
S'NNDDP'
tp635
F2
s(g83
S'MNNPP'
tp636
F1
s(S'PP'
S'AAAAPMP'
tp637
F1
s(g356
S'ADVVPP'
tp638
F7
s(S'VP'
S'VVADVANP'
tp639
F1
s(S'AP'
S'AAAADDP'
tp640
F1
s(S'CP'
S'CDAPPP'
tp641
F2
s(g30
S'VNNP'
tp642
F61
s(S'AP'
S'AADVDP'
tp643
F7
s(S'NP'
S'NADP'
tp644
F6
s(S'DP'
S'DDNP'
tp645
F69
s(g66
S'NADVCP'
tp646
F15
s(g148
S'DDNNP'
tp647
F6
s(S'PP'
S'AAPPP'
tp648
F4
s(S'PP'
S'PADVADVVVP'
tp649
F1
s(S'NP'
S'ADVANVP'
tp650
F1
s(S'NP'
S'ADVADVANPP'
tp651
F1
s(S'NP'
S'ADVADVNCP'
tp652
F1
s(S'DP'
S'AADPP'
tp653
F17
s(S'NP'
S'NNNNPP'
tp654
F1
s(g218
S'ADVADVPPDP'
tp655
F1
s(S'VP'
S'VAAANNP'
tp656
F1
s(S'NP'
S'NNNP'
tp657
F2
s(S'MP'
S'MMAPP'
tp658
F1
s(S'AP'
p659
S'AAMMP'
tp660
F2
s(S'PP'
S'AAPDP'
tp661
F6
s(g415
S'ANVVVP'
tp662
F1
s(S'MP'
S'MADVVDP'
tp663
F1
s(S'MP'
S'MVVNP'
tp664
F9
s(S'DP'
S'ADVDNNP'
tp665
F1
s(S'CP'
S'ACDDP'
tp666
F3
s(S'AP'
S'AAPP'
tp667
F13
s(S'AP'
S'ADVADVACCP'
tp668
F1
s(S'VP'
S'VVCCP'
tp669
F3
s(S'CP'
S'ADVCAADP'
tp670
F1
s(S'MP'
S'AAAMVP'
tp671
F1
s(S'DP'
S'DADVVVP'
tp672
F1
s(S'DP'
S'DAAAPP'
tp673
F1
s(g252
S'VADVADP'
tp674
F1
s(S'VP'
S'VVVCCP'
tp675
F2
s(g167
S'NAPP'
tp676
F7
s(S'AP'
p677
S'ADVADVADP'
tp678
F1
s(S'DP'
S'DDADVAPP'
tp679
F1
s(S'AP'
S'ADVAAVP'
tp680
F1
s(g151
S'VVVCP'
tp681
F2
s(S'CP'
S'CDAAAPPP'
tp682
F1
s(g56
S'PADVAPP'
tp683
F1
s(S'NP'
S'ANCCP'
tp684
F5
s(g264
S'AANPP'
tp685
F3
s(S'VP'
S'VDDDP'
tp686
F5
s(S'NP'
S'NNMP'
tp687
F28
s(S'DP'
S'DDDVP'
tp688
F3
s(S'PP'
p689
S'ADVADVPNNP'
tp690
F1
s(S'CP'
S'CADDPP'
tp691
F3
s(S'MP'
S'MAPDP'
tp692
F1
s(S'PP'
S'PAAAP'
tp693
F2
s(S'PP'
S'ADVADVPNP'
tp694
F1
s(S'PP'
S'PPPAP'
tp695
F2
s(S'CP'
S'CDDAPP'
tp696
F5
s(S'NP'
S'ANAP'
tp697
F12
s(S'DP'
S'ADVADVDPPPP'
tp698
F1
s(S'MP'
S'MVAP'
tp699
F19
s(g50
S'PVP'
tp700
F297
s(S'VP'
S'VADVPPP'
tp701
F1
s(g424
S'ADVDPP'
tp702
F26
s(S'AP'
S'ADVADVAPP'
tp703
F1
s(S'VP'
S'VVVVDP'
tp704
F3
s(S'MP'
S'ADVMNNNP'
tp705
F1
s(S'VP'
S'VPPPP'
tp706
F1
s(S'AP'
S'ADVAACP'
tp707
F1
s(S'AP'
S'AADVVP'
tp708
F1
s(S'NP'
p709
S'ANNCP'
tp710
F7
s(S'PP'
S'PPAANP'
tp711
F2
s(S'VP'
S'VCCCCP'
tp712
F1
s(S'MP'
S'MMMMVP'
tp713
F1
s(S'VP'
S'VVADP'
tp714
F1
s(S'PP'
p715
S'PPDDP'
tp716
F9
s(g38
S'AVCP'
tp717
F6
s(S'DP'
S'DDVVVP'
tp718
F2
s(S'NP'
S'NAVVP'
tp719
F1
s(g20
S'DPP'
tp720
F623
s(S'DP'
S'ADVVP'
tp721
F1
s(g320
S'ADVNVP'
tp722
F16
s(S'DP'
S'DDPP'
tp723
F153
s(g594
S'DANP'
tp724
F66
s(S'NP'
S'NADVPP'
tp725
F2
s(S'PP'
S'ADVADVPPNP'
tp726
F2
s(S'NP'
S'NADVADP'
tp727
F2
s(g709
S'NAAVP'
tp728
F7
s(S'NP'
S'AAANADVVP'
tp729
F1
s(S'DP'
p730
S'AADNP'
tp731
F3
s(S'DP'
S'ADVDDAPP'
tp732
F1
s(S'VP'
S'VADVCP'
tp733
F4
s(S'DP'
S'ADVADVDAAAAAPP'
tp734
F1
s(S'NP'
S'NNNNCP'
tp735
F2
s(S'MP'
S'MDNP'
tp736
F9
s(S'NP'
S'NNAACP'
tp737
F1
s(S'CP'
S'CADVADVDADVPP'
tp738
F1
s(S'NP'
S'NAANP'
tp739
F1
s(S'DP'
S'DCCP'
tp740
F6
s(S'PP'
S'ADVADVPPP'
tp741
F1
s(S'CP'
S'CDPPPPP'
tp742
F4
s(S'VP'
S'VVDDP'
tp743
F8
s(S'DP'
S'DDADVVP'
tp744
F2
s(g78
S'PDDP'
tp745
F59
s(S'MP'
S'MVDDP'
tp746
F7
s(S'PP'
S'ADVAPNP'
tp747
F4
s(S'DP'
S'ADVADVDADVPP'
tp748
F1
s(S'DP'
S'ADPPP'
tp749
F7
s(S'DP'
S'AADAPPP'
tp750
F1
s(g257
S'APPPPP'
tp751
F1
s(g715
S'APAAP'
tp752
F3
s(S'VP'
S'AVDP'
tp753
F20
s(S'CP'
S'AACDDDP'
tp754
F1
s(g594
S'ADVADPP'
tp755
F5
s(S'DP'
S'DAANP'
tp756
F10
s(g335
S'AANCCCP'
tp757
F1
s(S'DP'
S'ADVDAADP'
tp758
F1
s(S'PP'
S'AAAPAP'
tp759
F1
s(g677
S'ADDP'
tp760
F37
s(S'VP'
S'ADVADVADVVCP'
tp761
F2
s(S'VP'
S'ADVVVAP'
tp762
F1
s(g605
S'ADVPPNP'
tp763
F1
s(S'VP'
S'VADVADVADVVP'
tp764
F1
s(S'MP'
S'MDAP'
tp765
F1
s(S'CP'
S'CADVADVDPP'
tp766
F1
s(S'CP'
S'ADVADVADVCDP'
tp767
F1
s(S'DP'
S'DPPP'
tp768
F160
s(S'CP'
S'CCCCCDP'
tp769
F1
s(S'DP'
S'DAVVP'
tp770
F2
s(g730
S'AADPPP'
tp771
F5
s(S'CP'
S'ADVADVADVCCDP'
tp772
F1
s(g113
S'VANNP'
tp773
F2
s(S'NP'
S'NNAVP'
tp774
F2
s(S'VP'
S'AVVCP'
tp775
F1
s(S'NP'
S'NMMMP'
tp776
F1
s(S'PP'
S'PPPANP'
tp777
F1
s(g496
S'ADVPNP'
tp778
F9
s(S'PP'
S'PPDP'
tp779
F49
s(S'MP'
S'MAVDP'
tp780
F1
s(g315
S'ADVDCP'
tp781
F1
s(S'DP'
S'DDPPPP'
tp782
F3
s(S'PP'
S'PPPAAP'
tp783
F1
s(S'MP'
S'MVVAP'
tp784
F2
s(S'DP'
S'DDCP'
tp785
F5
s(g164
S'ADVDADVPPP'
tp786
F1
s(S'AP'
S'ANNP'
tp787
F1
s(S'AP'
S'ADVADVAADP'
tp788
F1
s(S'DP'
S'ADVDADVNP'
tp789
F1
s(g141
S'NAP'
tp790
F131
s(S'NP'
S'NNAAP'
tp791
F7
s(S'VP'
S'VAAAP'
tp792
F5
s(S'NP'
S'NAAAPP'
tp793
F1
s(g294
S'ADVAVNP'
tp794
F1
s(g310
S'VVP'
tp795
F68
s(S'MP'
S'MDNNNP'
tp796
F1
s(g53
S'DADVNP'
tp797
F12
s(S'PP'
S'ADVADVPVP'
tp798
F1
s(S'PP'
S'APNP'
tp799
F23
s(S'DP'
S'DDVVP'
tp800
F5
s(S'AP'
S'AAADDP'
tp801
F1
s(g69
S'VVVNP'
tp802
F11
s(g313
S'MNPP'
tp803
F2
s(g324
S'NAMP'
tp804
F4
s(S'MP'
S'MVANP'
tp805
F4
s(S'DP'
S'ADVADVDDPP'
tp806
F1
s(g592
S'MVNNP'
tp807
F10
s(S'CP'
S'CDPP'
tp808
F529
s(g447
S'NNADVPP'
tp809
F1
s(S'MP'
S'MVVNNP'
tp810
F2
s(S'AP'
S'ADDDP'
tp811
F2
s(S'CP'
S'ADVCADP'
tp812
F1
s(S'VP'
S'VVAANP'
tp813
F1
s(S'MP'
S'MMMVP'
tp814
F1
s(S'CP'
S'ADVCDP'
tp815
F17
s(S'AP'
S'ADVAAP'
tp816
F1
s(S'VP'
S'ADVADVVNP'
tp817
F2
s(S'NP'
S'NADVADVADVCP'
tp818
F1
s(g144
S'NNNNPPP'
tp819
F2
s(S'PP'
S'PADVADVDP'
tp820
F1
s(S'VP'
S'ADVADVVCP'
tp821
F1
s(S'PP'
S'PPNNP'
tp822
F20
s(S'NP'
p823
S'NNADVADVVP'
tp824
F1
s(g128
S'ADVPAVP'
tp825
F1
s(g154
S'PPMP'
tp826
F2
s(g610
S'VADVADVNP'
tp827
F2
s(S'DP'
S'ADVADVDPP'
tp828
F1
s(g376
S'VDP'
tp829
F402
s(g415
S'NADVAP'
tp830
F5
s(S'VP'
S'AVDDP'
tp831
F2
s(S'CP'
S'ADVADVCDDP'
tp832
F1
s(g280
S'DAP'
tp833
F43
s(S'CP'
S'CADPP'
tp834
F42
s(S'NP'
S'NADVAVP'
tp835
F1
s(S'PP'
S'PADVMP'
tp836
F1
s(S'VP'
S'AVPP'
tp837
F3
s(S'CP'
S'CAADPPP'
tp838
F2
s(g823
S'NNP'
tp839
F5
s(S'VP'
S'VVADVDP'
tp840
F2
s(S'CP'
S'CDPPPP'
tp841
F13
s(S'VP'
S'AAVDP'
tp842
F6
s(g689
S'PANNP'
tp843
F2
s(S'PP'
S'APPP'
tp844
F7
s(S'VP'
S'ADVVADVAP'
tp845
F1
s(g594
S'DADVADVPP'
tp846
F5
s(S'DP'
S'DMP'
tp847
F11
s(g218
S'PAAAVP'
tp848
F3
s(S'NP'
S'NADVAPP'
tp849
F1
s(g572
S'AAAPPNP'
tp850
F1
s(S'PP'
S'PADVADVNP'
tp851
F3
s(S'PP'
S'PPPPNP'
tp852
F3
s(g419
S'ADPP'
tp853
F51
s(S'MP'
S'MNNNVP'
tp854
F1
s(S'AP'
S'AAAAVP'
tp855
F1
s(S'PP'
S'PPAAVP'
tp856
F1
s(g490
S'NNADVVVP'
tp857
F1
s(g823
S'NADVADVADVCCP'
tp858
F1
s(S'VP'
S'VADVPP'
tp859
F1
s(g344
S'CDDPPP'
tp860
F14
s(S'CP'
S'CCADVDDP'
tp861
F1
s(S'PP'
S'ADVPVP'
tp862
F7
s(S'DP'
S'DDDDPP'
tp863
F2
s(S'VP'
S'AAVAAP'
tp864
F1
s(S'MP'
S'MACDP'
tp865
F1
s(S'NP'
S'NNVVVP'
tp866
F3
s(S'PP'
S'ADVPDP'
tp867
F6
s(S'VP'
S'ADVVADP'
tp868
F1
s(g335
S'ANNPP'
tp869
F2
s(S'MP'
S'MVADVAP'
tp870
F3
s(g98
S'NCP'
tp871
F435
s(S'CP'
S'CADVDPPP'
tp872
F2
s(S'VP'
S'ADVVVPP'
tp873
F3
s(S'PP'
S'AAAPNP'
tp874
F1
s(g659
S'AAAP'
tp875
F5
s(g249
S'VAADP'
tp876
F2
s(S'AP'
S'AAMP'
tp877
F1
s(S'PP'
S'PPAAAP'
tp878
F1
s(S'PP'
S'ADVPDDP'
tp879
F1
s(S'NP'
S'AANDP'
tp880
F4
s(S'MP'
S'MVCCP'
tp881
F1
s(g66
S'NNCCP'
tp882
F20
s(S'MP'
S'MNVP'
tp883
F24
s(S'NP'
S'AANCCP'
tp884
F2
s(g15
S'PADVADVAP'
tp885
F1
s(S'VP'
S'VAPP'
tp886
F6
s(S'MP'
S'MAVNP'
tp887
F2
s(S'VP'
S'ADVVDP'
tp888
F21
s(g151
S'VAAVVP'
tp889
F1
s(S'PP'
S'APADVNP'
tp890
F2
s(S'DP'
S'DADVPP'
tp891
F24
s(S'VP'
S'VVADVAP'
tp892
F2
s(S'AP'
S'AMP'
tp893
F19
s(S'CP'
S'CCADP'
tp894
F3
s(g302
S'ADVAPP'
tp895
F8
s(g628
S'ADVADVPVVP'
tp896
F1
s(S'CP'
S'CDDADVAPP'
tp897
F1
s(S'VP'
S'AVVPP'
tp898
F1
s(S'CP'
S'AACDP'
tp899
F9
s(S'NP'
S'NNNCCP'
tp900
F2
s(g379
S'CCDDDP'
tp901
F3
s(S'MP'
S'MADVVNNP'
tp902
F2
s(S'MP'
S'MNAACP'
tp903
F1
s(S'DP'
S'ADVDPPP'
tp904
F2
s(g419
S'DVP'
tp905
F385
s(S'VP'
S'AVNNP'
tp906
F2
s(g324
S'ADVNPP'
tp907
F5
s(g229
S'MDDNNP'
tp908
F1
s(g624
S'NNCCCP'
tp909
F1
s(g524
S'AVP'
tp910
F28
s(S'NP'
S'NADVVP'
tp911
F15
s(S'CP'
S'CDAAAPP'
tp912
F1
s(S'CP'
S'AAACDP'
tp913
F1
s(g315
S'DDPPP'
tp914
F24
s(S'NP'
S'ADVNMP'
tp915
F11
s(g335
S'NNAP'
tp916
F13
s(S'MP'
S'MADVVCP'
tp917
F2
s(S'PP'
S'PPANP'
tp918
F5
s(S'MP'
S'MCDDP'
tp919
F1
s(S'CP'
S'CDADVPP'
tp920
F17
s(g310
S'VNP'
tp921
F392
s(S'VP'
S'VANP'
tp922
F30
s(S'MP'
S'MAANCP'
tp923
F1
s(g631
S'VADVAP'
tp924
F10
s(g298
S'PPADVNP'
tp925
F3
s(S'DP'
S'DDDDVP'
tp926
F2
s.