ccollections
defaultdict
p1
(c__builtin__
float
p2
tRp3
(S'PP'
p4
S'AAPPADVNP'
tp5
F1
s(S'MP'
S'MMDP'
tp6
F1
s(S'VP'
p7
S'VVAAAP'
tp8
F3
s(S'DP'
p9
S'DDMMP'
tp10
F1
s(S'CP'
S'CAAADPP'
tp11
F1
s(S'PP'
S'PAAANP'
tp12
F4
s(g9
S'ADDPP'
tp13
F3
s(S'DP'
p14
S'DDAP'
tp15
F8
s(S'VP'
S'ADVVVNP'
tp16
F2
s(S'CP'
S'CCDDDDP'
tp17
F1
s(S'VP'
p18
S'VVVVP'
tp19
F2
s(S'PP'
S'PAAANNP'
tp20
F1
s(S'VP'
p21
S'AVADVPP'
tp22
F1
s(S'PP'
p23
S'PADVNP'
tp24
F21
s(S'DP'
p25
S'DNP'
tp26
F375
s(S'NP'
S'ADVNDP'
tp27
F1
s(S'PP'
S'AAPDDP'
tp28
F1
s(S'CP'
p29
S'CDPPP'
tp30
F91
s(S'PP'
S'ADVPPANP'
tp31
F1
s(S'VP'
p32
S'VADP'
tp33
F15
s(S'DP'
S'DNNNNP'
tp34
F2
s(S'DP'
S'DACCP'
tp35
F1
s(S'CP'
p36
S'CDAAPPP'
tp37
F1
s(S'MP'
p38
S'MAVNP'
tp39
F2
s(S'PP'
S'PPAVP'
tp40
F1
s(S'PP'
p41
S'PPPPPP'
tp42
F5
s(S'DP'
S'DDDADVADVPP'
tp43
F1
s(S'PP'
S'APPDP'
tp44
F2
s(S'VP'
S'VADVDDP'
tp45
F2
s(S'DP'
S'ADNNP'
tp46
F1
s(S'VP'
S'VADVVVP'
tp47
F1
s(S'PP'
S'APVP'
tp48
F15
s(S'NP'
S'NNADVADVAVP'
tp49
F1
s(S'PP'
S'PADVANP'
tp50
F2
s(S'PP'
S'PPPP'
tp51
F49
s(S'DP'
S'DDDNP'
tp52
F4
s(S'VP'
p53
S'AAVCCCP'
tp54
F1
s(S'VP'
S'VACP'
tp55
F7
s(S'AP'
S'AAAVP'
tp56
F1
s(S'DP'
p57
S'DADVVP'
tp58
F8
s(S'PP'
p59
S'PMP'
tp60
F19
s(S'AP'
S'AADVPP'
tp61
F2
s(S'VP'
S'AAVVP'
tp62
F1
s(S'NP'
p63
S'NCCCP'
tp64
F5
s(g4
S'APPNNP'
tp65
F1
s(S'NP'
S'ANADVPP'
tp66
F1
s(S'VP'
p67
S'VCP'
tp68
F146
s(S'MP'
S'MVVANP'
tp69
F1
s(S'NP'
p70
S'NMMP'
tp71
F12
s(S'VP'
S'VVAANNP'
tp72
F1
s(S'NP'
S'NANP'
tp73
F7
s(S'VP'
S'ADVVAAP'
tp74
F2
s(S'DP'
p75
S'DDDNNP'
tp76
F2
s(S'VP'
S'ADVVCCP'
tp77
F1
s(S'PP'
p78
S'ADVPADP'
tp79
F1
s(S'PP'
S'PAP'
tp80
F129
s(S'MP'
S'MMVVP'
tp81
F2
s(S'VP'
S'VADVADVAP'
tp82
F2
s(S'AP'
S'ADVAADVVP'
tp83
F1
s(S'PP'
S'ADVPPVP'
tp84
F1
s(S'CP'
p85
S'CCADVADVADVADVDP'
tp86
F1
s(S'NP'
S'NNNAP'
tp87
F3
s(S'CP'
S'AAAACDP'
tp88
F1
s(S'NP'
S'ANPPP'
tp89
F2
s(S'PP'
S'PPADVDP'
tp90
F1
s(S'VP'
p91
S'VADVANP'
tp92
F4
s(g23
S'PNP'
tp93
F446
s(S'DP'
p94
S'ADDP'
tp95
F2
s(S'PP'
S'PAAADP'
tp96
F1
s(S'NP'
p97
S'ADVADVADVNCP'
tp98
F2
s(S'DP'
p99
S'DDP'
tp100
F79
s(g67
S'ADVVDDP'
tp101
F1
s(S'NP'
S'NNNPP'
tp102
F6
s(S'VP'
p103
S'VCCP'
tp104
F19
s(S'CP'
S'ADVCADVADP'
tp105
F1
s(S'MP'
p106
S'MCDP'
tp107
F6
s(S'AP'
S'AAAAACP'
tp108
F1
s(S'NP'
p109
S'NNADVADVCP'
tp110
F1
s(S'MP'
p111
S'MNAP'
tp112
F1
s(S'NP'
p113
S'NMP'
tp114
F166
s(S'PP'
p115
S'PAPP'
tp116
F6
s(S'DP'
S'ADCP'
tp117
F1
s(S'VP'
p118
S'VAAADP'
tp119
F2
s(S'VP'
S'AAVNP'
tp120
F4
s(S'VP'
p121
S'VMMP'
tp122
F4
s(g23
S'PDP'
tp123
F325
s(S'CP'
S'CDADVADVPP'
tp124
F1
s(S'NP'
p125
S'ADVNVVP'
tp126
F1
s(S'MP'
p127
S'MNNVP'
tp128
F2
s(S'MP'
S'MADVVNP'
tp129
F5
s(S'NP'
S'NNADVMP'
tp130
F1
s(S'VP'
p131
S'AVAAP'
tp132
F1
s(S'VP'
S'AAAVCP'
tp133
F1
s(S'NP'
S'NACCP'
tp134
F2
s(S'AP'
S'ANP'
tp135
F4
s(S'PP'
p136
S'ADVPAAP'
tp137
F1
s(g78
S'PADVPP'
tp138
F2
s(S'MP'
S'MVADVANP'
tp139
F1
s(S'NP'
S'NNADVCP'
tp140
F2
s(S'CP'
S'CDDAPPP'
tp141
F1
s(S'NP'
S'ADVNACP'
tp142
F3
s(S'DP'
S'DPPPP'
tp143
F15
s(S'DP'
p144
S'DDANP'
tp145
F3
s(S'PP'
S'PADVADP'
tp146
F1
s(S'NP'
p147
S'NACP'
tp148
F25
s(S'AP'
S'ADVAVP'
tp149
F1
s(S'NP'
p150
S'NCCP'
tp151
F91
s(S'DP'
S'DADVADVVVP'
tp152
F1
s(S'AP'
S'AAAADP'
tp153
F1
s(S'NP'
p154
S'NNCP'
tp155
F105
s(S'DP'
S'ADVDDPP'
tp156
F3
s(S'NP'
p157
S'NADVADVVP'
tp158
F6
s(S'NP'
p159
S'NNPPPP'
tp160
F1
s(S'DP'
S'DDDDP'
tp161
F2
s(S'VP'
S'AVNP'
tp162
F15
s(S'VP'
S'VVADP'
tp163
F1
s(S'PP'
p164
S'PAAAAAPP'
tp165
F1
s(S'MP'
S'MADVADVADVVCP'
tp166
F1
s(S'PP'
S'ADVPVVP'
tp167
F2
s(S'DP'
S'ADADVNP'
tp168
F1
s(S'DP'
S'DDADVADVAPP'
tp169
F1
s(S'DP'
S'DDDDAAPPP'
tp170
F1
s(S'PP'
p171
S'AAPNP'
tp172
F1
s(S'VP'
p173
S'VADVVP'
tp174
F6
s(S'VP'
S'ADVADVADVVNP'
tp175
F1
s(S'MP'
S'MVAPP'
tp176
F1
s(S'MP'
p177
S'MVPPP'
tp178
F2
s(S'NP'
S'ANADVVP'
tp179
F1
s(S'AP'
S'AAAAP'
tp180
F1
s(S'DP'
p181
S'ADVVVP'
tp182
F1
s(S'NP'
S'NCCCCP'
tp183
F2
s(S'MP'
S'MADVVNNP'
tp184
F1
s(g21
S'ADVVAP'
tp185
F8
s(g118
S'VCCCP'
tp186
F1
s(S'VP'
S'VAAAACP'
tp187
F1
s(S'PP'
S'APDP'
tp188
F20
s(S'VP'
S'AVADVAP'
tp189
F1
s(S'NP'
S'AANNCCP'
tp190
F1
s(S'VP'
S'ADVVNNP'
tp191
F2
s(S'AP'
p192
S'AADVCP'
tp193
F1
s(S'MP'
S'MADVVVCCP'
tp194
F1
s(S'CP'
S'CDADVADVADVAPP'
tp195
F1
s(S'VP'
S'VVANP'
tp196
F3
s(S'VP'
p197
S'VVVVDP'
tp198
F1
s(S'VP'
p199
S'ADVVVP'
tp200
F3
s(S'NP'
p201
S'NAAAAAP'
tp202
F1
s(S'AP'
S'AANP'
tp203
F1
s(S'MP'
p204
S'MVVVCCP'
tp205
F1
s(S'NP'
p206
S'ADVNCCP'
tp207
F2
s(S'PP'
p208
S'PAAP'
tp209
F22
s(S'MP'
S'MPNNP'
tp210
F1
s(g63
S'ADVANCP'
tp211
F3
s(g9
S'DNNP'
tp212
F108
s(S'CP'
p213
S'CADVDDPP'
tp214
F2
s(S'DP'
S'DPPPPP'
tp215
F2
s(S'CP'
S'CCADVDP'
tp216
F5
s(S'PP'
S'AAAPPPP'
tp217
F1
s(S'VP'
p218
S'VVACP'
tp219
F1
s(S'DP'
p220
S'ADDNP'
tp221
F3
s(S'NP'
p222
S'NNNVP'
tp223
F17
s(S'PP'
S'PPAAPP'
tp224
F1
s(S'VP'
p225
S'VDP'
tp226
F383
s(S'PP'
S'AAPPDP'
tp227
F1
s(S'PP'
p228
S'PADVVP'
tp229
F11
s(S'DP'
S'DACP'
tp230
F1
s(S'DP'
S'DADVVVP'
tp231
F1
s(S'PP'
S'APAP'
tp232
F5
s(S'VP'
S'ADVADVVDDP'
tp233
F1
s(S'AP'
p234
S'APP'
tp235
F48
s(S'NP'
S'AANADVVVP'
tp236
F1
s(S'NP'
p237
S'NADVMP'
tp238
F3
s(S'PP'
S'PPADP'
tp239
F3
s(S'VP'
S'VADVADVVP'
tp240
F1
s(S'CP'
S'CADVADPP'
tp241
F3
s(S'NP'
S'ADVADVNDP'
tp242
F3
s(S'DP'
S'DADVADVNP'
tp243
F2
s(S'AP'
p244
S'AAADVDDP'
tp245
F1
s(S'NP'
p246
S'ADVANPP'
tp247
F2
s(S'NP'
S'NAAACP'
tp248
F2
s(S'DP'
p249
S'DAAVP'
tp250
F5
s(S'CP'
S'CDDDDPP'
tp251
F2
s(S'NP'
S'AAAANNVP'
tp252
F1
s(S'PP'
S'PAANP'
tp253
F11
s(S'VP'
S'VADVADVCP'
tp254
F1
s(S'VP'
S'VVVANP'
tp255
F1
s(S'PP'
p256
S'PPVVP'
tp257
F8
s(S'VP'
S'VAACP'
tp258
F1
s(S'VP'
S'VVADVAAP'
tp259
F1
s(S'MP'
S'MVNP'
tp260
F67
s(S'PP'
S'AAAPAMMMP'
tp261
F1
s(S'AP'
S'ADVAADP'
tp262
F1
s(S'PP'
S'ADVADVAPANNNP'
tp263
F1
s(S'PP'
S'PAVP'
tp264
F8
s(S'MP'
p265
S'ADVMVP'
tp266
F5
s(g181
S'DDAPPP'
tp267
F1
s(S'VP'
S'VVVPP'
tp268
F5
s(S'CP'
S'CADVADVADPP'
tp269
F1
s(S'AP'
S'ADVACCP'
tp270
F2
s(S'DP'
S'DAAAPPP'
tp271
F1
s(S'AP'
p272
S'ADVADP'
tp273
F6
s(S'CP'
S'ADVADVCDP'
tp274
F6
s(S'DP'
S'ADVDDP'
tp275
F1
s(g115
S'APDDP'
tp276
F3
s(S'VP'
S'ADVADVVVNP'
tp277
F1
s(g164
S'AAAAAPVVP'
tp278
F1
s(S'PP'
S'APPP'
tp279
F8
s(S'DP'
S'DAAAVP'
tp280
F1
s(S'PP'
S'PPCP'
tp281
F4
s(g173
S'ADVVNP'
tp282
F26
s(S'DP'
p283
S'DAAAP'
tp284
F1
s(S'MP'
S'MNCP'
tp285
F3
s(S'VP'
S'ADVADVADVVCP'
tp286
F1
s(S'VP'
p287
S'VVNP'
tp288
F79
s(S'PP'
S'PPPNNP'
tp289
F1
s(S'DP'
S'DADVCCP'
tp290
F1
s(S'PP'
p291
S'PPVP'
tp292
F53
s(S'MP'
S'MVDP'
tp293
F35
s(S'MP'
S'MPCP'
tp294
F2
s(S'PP'
S'ADVPAADP'
tp295
F1
s(S'VP'
S'VADVDP'
tp296
F5
s(g287
S'VAAP'
tp297
F25
s(S'NP'
S'ANDP'
tp298
F18
s(g150
S'NVVP'
tp299
F91
s(S'PP'
S'AAPVP'
tp300
F3
s(S'AP'
p301
S'AAP'
tp302
F15
s(S'VP'
S'VMP'
tp303
F25
s(S'NP'
p304
S'ANPPPP'
tp305
F1
s(g67
S'VVNNP'
tp306
F15
s(S'CP'
S'CDAPP'
tp307
F33
s(g91
S'VVAAP'
tp308
F6
s(S'MP'
S'MNNADVCP'
tp309
F1
s(S'MP'
S'MMPP'
tp310
F2
s(S'DP'
S'ADVADVP'
tp311
F1
s(S'DP'
p312
S'ADNP'
tp313
F23
s(S'PP'
S'PPPPAP'
tp314
F1
s(S'PP'
p315
S'PADP'
tp316
F16
s(S'DP'
S'DDAAAPP'
tp317
F1
s(g121
S'ADVADVADVVAAANP'
tp318
F1
s(S'MP'
S'MMADVNNP'
tp319
F1
s(S'NP'
S'ANDDP'
tp320
F1
s(S'DP'
p321
S'ADVADVDVP'
tp322
F1
s(S'VP'
S'VVVDDP'
tp323
F1
s(S'NP'
S'ADVNAPPP'
tp324
F1
s(S'CP'
S'ADVADVACDP'
tp325
F1
s(S'DP'
S'DAPP'
tp326
F52
s(S'CP'
S'CADVDAPPP'
tp327
F1
s(g18
S'AVVP'
tp328
F2
s(S'MP'
S'MVVCP'
tp329
F5
s(S'VP'
S'ADVADVVPP'
tp330
F1
s(S'MP'
S'MADVADVVNP'
tp331
F1
s(S'VP'
p332
S'VADVADVNP'
tp333
F1
s(S'MP'
S'MDDNP'
tp334
F3
s(S'PP'
S'AAAPVP'
tp335
F1
s(S'VP'
S'ADVADVVDP'
tp336
F6
s(S'PP'
S'PPPDP'
tp337
F4
s(g99
S'DAAPPP'
tp338
F2
s(S'AP'
S'AAVVP'
tp339
F2
s(S'DP'
S'DDAAVP'
tp340
F1
s(S'MP'
S'MVVAP'
tp341
F3
s(S'DP'
p342
S'DAAANP'
tp343
F4
s(g312
S'DADVANP'
tp344
F2
s(S'VP'
S'VAAPP'
tp345
F2
s(g249
S'ADVDNP'
tp346
F9
s(S'VP'
S'AVDDDP'
tp347
F1
s(g225
S'VVPP'
tp348
F36
s(S'CP'
p349
S'CCADDP'
tp350
F1
s(S'CP'
S'AAAACDDP'
tp351
F1
s(g85
S'AACDDP'
tp352
F2
s(S'MP'
S'MVPP'
tp353
F12
s(S'DP'
p354
S'ADVP'
tp355
F10
s(S'CP'
S'CDDPPP'
tp356
F14
s(S'PP'
S'PPAVVP'
tp357
F1
s(g38
S'ADVMVVP'
tp358
F1
s(S'NP'
S'AANCCP'
tp359
F4
s(S'NP'
p360
S'AAANDP'
tp361
F2
s(S'CP'
S'CAADPPPP'
tp362
F1
s(S'MP'
S'MVVDP'
tp363
F7
s(S'AP'
S'AACP'
tp364
F4
s(S'NP'
p365
S'ANVP'
tp366
F46
s(S'DP'
S'DNNNP'
tp367
F12
s(S'MP'
S'MPPDP'
tp368
F1
s(S'DP'
S'ADVDDVP'
tp369
F2
s(S'PP'
S'PADVADVVP'
tp370
F1
s(S'NP'
S'ADVANVVP'
tp371
F1
s(S'PP'
S'PMMP'
tp372
F6
s(S'PP'
p373
S'PVVVP'
tp374
F4
s(S'VP'
p375
S'ADVVVANP'
tp376
F1
s(g237
S'NNMMP'
tp377
F5
s(S'DP'
S'DAAAVVP'
tp378
F1
s(S'CP'
S'CCDP'
tp379
F130
s(S'DP'
S'AADCP'
tp380
F1
s(S'MP'
S'AMVP'
tp381
F11
s(g67
S'VPPP'
tp382
F22
s(S'VP'
S'VADVADVANP'
tp383
F2
s(g237
S'NVVVP'
tp384
F9
s(S'CP'
S'CDDDPP'
tp385
F11
s(S'CP'
S'CDAAPP'
tp386
F7
s(g375
S'VVVDP'
tp387
F9
s(S'PP'
S'PNNNP'
tp388
F12
s(S'NP'
S'NNAAAP'
tp389
F1
s(g213
S'CCCCDP'
tp390
F4
s(S'DP'
S'ADVADVADVADPP'
tp391
F1
s(S'VP'
S'VVMP'
tp392
F2
s(S'PP'
p393
S'PADVVVP'
tp394
F1
s(g23
S'PPP'
tp395
F138
s(S'NP'
S'NAVP'
tp396
F23
s(S'PP'
p397
S'APADVPPP'
tp398
F1
s(S'DP'
S'DDNNNP'
tp399
F3
s(S'VP'
S'VVDDDP'
tp400
F1
s(g315
S'PADDP'
tp401
F2
s(S'NP'
S'NDDDP'
tp402
F2
s(g220
S'ADVDVP'
tp403
F7
s(S'NP'
S'NAAAP'
tp404
F3
s(S'NP'
S'NADVVVP'
tp405
F3
s(S'DP'
S'DADVADVPPP'
tp406
F1
s(S'PP'
S'PPPPDP'
tp407
F3
s(S'MP'
S'MADVADVVPP'
tp408
F1
s(S'DP'
S'ADVADVDNP'
tp409
F1
s(S'VP'
S'VAAAAP'
tp410
F2
s(g225
S'VPP'
tp411
F202
s(g349
S'ADVCCDP'
tp412
F4
s(S'CP'
S'ACCDP'
tp413
F4
s(S'DP'
S'ADVDDNP'
tp414
F1
s(S'NP'
p415
S'NNNCP'
tp416
F15
s(S'PP'
S'PADVDP'
tp417
F7
s(S'CP'
S'CDADVAPP'
tp418
F2
s(S'DP'
S'DANNP'
tp419
F1
s(S'MP'
p420
S'MADVVAP'
tp421
F1
s(S'CP'
p422
S'CDDPP'
tp423
F95
s(S'AP'
S'AAAAAPPP'
tp424
F1
s(S'DP'
S'DAAPP'
tp425
F12
s(g228
S'PVVP'
tp426
F61
s(S'CP'
S'CADPPP'
tp427
F3
s(S'DP'
p428
S'DADVPPP'
tp429
F4
s(S'NP'
p430
S'NADVMMP'
tp431
F1
s(S'VP'
S'ADVVCP'
tp432
F7
s(S'PP'
p433
S'PPNNNP'
tp434
F2
s(S'DP'
S'ADADVVVP'
tp435
F1
s(S'VP'
p436
S'VVPPP'
tp437
F5
s(g199
S'ADVVVCCP'
tp438
F1
s(S'PP'
S'PPAP'
tp439
F16
s(g25
S'DVVP'
tp440
F66
s(g373
S'PADVAVP'
tp441
F1
s(S'VP'
p442
S'VVVADVAP'
tp443
F2
s(S'NP'
S'ANMP'
tp444
F3
s(S'AP'
p445
S'APPP'
tp446
F12
s(S'PP'
p447
S'ADVPPP'
tp448
F1
s(g283
S'ADVADPPP'
tp449
F1
s(S'VP'
S'VVVP'
tp450
F24
s(S'CP'
S'CADVDPP'
tp451
F25
s(g321
S'ADVDNNNP'
tp452
F1
s(g201
S'ANCP'
tp453
F49
s(g312
S'DCP'
tp454
F23
s(g206
S'ANNCP'
tp455
F4
s(S'NP'
S'AAANCP'
tp456
F3
s(S'VP'
S'ADVVVVP'
tp457
F2
s(g109
S'NNVVVVP'
tp458
F1
s(g354
S'DDDP'
tp459
F26
s(S'MP'
S'MADVVANP'
tp460
F1
s(S'DP'
S'DDADVPP'
tp461
F4
s(S'DP'
S'AADDPP'
tp462
F1
s(S'NP'
S'ANNVVP'
tp463
F1
s(g91
S'ADVVAAAP'
tp464
F1
s(g225
S'VVDP'
tp465
F88
s(g304
S'NPPP'
tp466
F52
s(g57
S'AADVVP'
tp467
F1
s(g91
S'VVVVVAAP'
tp468
F1
s(g312
S'DAVP'
tp469
F17
s(S'VP'
S'VAAAANP'
tp470
F1
s(S'NP'
S'NNNMP'
tp471
F3
s(g109
S'NNNNMP'
tp472
F1
s(S'MP'
S'MCAADP'
tp473
F1
s(g234
S'ACP'
tp474
F76
s(S'PP'
S'PPNP'
tp475
F98
s(S'PP'
S'APPPP'
tp476
F2
s(S'NP'
p477
S'ADVADVANPP'
tp478
F1
s(S'DP'
S'AAADNNP'
tp479
F1
s(S'DP'
p480
S'AADVP'
tp481
F4
s(S'PP'
S'PPPPDDP'
tp482
F1
s(S'VP'
S'VAANNP'
tp483
F2
s(S'MP'
S'ADVMDP'
tp484
F1
s(S'CP'
S'CDDADVPP'
tp485
F2
s(S'CP'
S'CCCDDP'
tp486
F2
s(S'AP'
S'ADP'
tp487
F310
s(S'DP'
S'DDAVP'
tp488
F2
s(S'PP'
S'APVVP'
tp489
F2
s(S'VP'
S'VADVADVADVNP'
tp490
F2
s(S'NP'
S'ADVANCCP'
tp491
F1
s(S'DP'
p492
S'DAAAPP'
tp493
F4
s(S'VP'
p494
S'VAAANP'
tp495
F2
s(S'MP'
S'MADDP'
tp496
F1
s(S'VP'
S'ADVADVVNNP'
tp497
F2
s(S'MP'
S'MMNNP'
tp498
F1
s(S'AP'
S'AAADP'
tp499
F18
s(S'NP'
S'ANNVP'
tp500
F1
s(g103
S'VVAP'
tp501
F27
s(S'MP'
S'MNADVVP'
tp502
F1
s(S'NP'
S'ADVADVNADVADVACP'
tp503
F1
s(g136
S'PADVADVDP'
tp504
F1
s(g53
S'VAAAPP'
tp505
F1
s(S'VP'
S'AAVCP'
tp506
F2
s(g477
S'NNADVCCP'
tp507
F1
s(g150
S'NPP'
tp508
F273
s(g7
S'ADVADVVAP'
tp509
F2
s(g150
S'NVP'
tp510
F503
s(S'NP'
S'ADVNADDP'
tp511
F1
s(S'PP'
p512
S'PPVVVP'
tp513
F1
s(S'PP'
S'PAAVP'
tp514
F3
s(S'NP'
S'NAAPP'
tp515
F3
s(S'PP'
S'PPPPVP'
tp516
F1
s(S'MP'
S'ADVMMVP'
tp517
F1
s(S'NP'
p518
S'ADVNAP'
tp519
F2
s(S'VP'
S'VDDP'
tp520
F51
s(S'VP'
S'VVADVADVNP'
tp521
F1
s(S'AP'
S'AAADVDP'
tp522
F1
s(S'NP'
S'AANNVP'
tp523
F2
s(S'NP'
S'NNNNDP'
tp524
F1
s(g144
S'DADVAPP'
tp525
F4
s(S'NP'
p526
S'NNADVACP'
tp527
F1
s(S'PP'
S'ADVAPAP'
tp528
F1
s(g125
S'NADVADVVVP'
tp529
F1
s(g150
S'ANPP'
tp530
F34
s(S'PP'
S'PPPPP'
tp531
F11
s(S'MP'
S'MPDP'
tp532
F5
s(S'MP'
S'MVVPP'
tp533
F3
s(S'DP'
S'ADVDPP'
tp534
F36
s(S'NP'
S'NNMMMP'
tp535
F2
s(S'DP'
S'DDDDDP'
tp536
F1
s(S'MP'
S'MMDDP'
tp537
F1
s(S'NP'
p538
S'ADVADVNPP'
tp539
F1
s(S'NP'
p540
S'NPPPP'
tp541
F4
s(S'AP'
p542
S'AADVADVDP'
tp543
F1
s(S'NP'
S'ADVNADP'
tp544
F1
s(S'CP'
S'CAADPP'
tp545
F9
s(S'DP'
p546
S'DADVADVVP'
tp547
F1
s(S'NP'
S'NAACP'
tp548
F9
s(g59
S'PNNP'
tp549
F92
s(S'PP'
S'APNNP'
tp550
F2
s(g244
S'AAADVMP'
tp551
F1
s(S'MP'
S'MMNP'
tp552
F1
s(S'DP'
S'AAADPP'
tp553
F1
s(S'DP'
S'ADVDADVADVVP'
tp554
F1
s(S'VP'
S'AVAP'
tp555
F1
s(S'MP'
p556
S'MMVP'
tp557
F19
s(S'CP'
S'CADVADPPP'
tp558
F1
s(S'PP'
S'PPPPAAP'
tp559
F1
s(g150
S'ADVNCP'
tp560
F14
s(S'AP'
S'AADP'
tp561
F72
s(g430
S'NAPPP'
tp562
F3
s(g36
S'ACDP'
tp563
F38
s(g201
S'NNDP'
tp564
F42
s(S'NP'
S'ANADVADVVVP'
tp565
F1
s(S'AP'
S'ADVANP'
tp566
F4
s(g430
S'NNACP'
tp567
F4
s(S'VP'
S'VVADVNP'
tp568
F1
s(S'MP'
S'MDNNP'
tp569
F1
s(S'CP'
p570
S'CDADVPPP'
tp571
F2
s(g21
S'VAP'
tp572
F168
s(S'VP'
S'VVVVNP'
tp573
F2
s(S'MP'
S'MNVVP'
tp574
F5
s(S'DP'
p575
S'DDDPP'
tp576
F14
s(S'CP'
p577
S'ADVCDDP'
tp578
F2
s(S'NP'
S'AANNCP'
tp579
F2
s(S'NP'
S'ANADVCP'
tp580
F1
s(S'PP'
S'PAAPP'
tp581
F1
s(S'DP'
S'ADVADPPPP'
tp582
F1
s(g265
S'MVVVDP'
tp583
F1
s(S'MP'
S'MNMP'
tp584
F1
s(S'MP'
S'MAVPP'
tp585
F1
s(g518
S'NNPPPPP'
tp586
F1
s(S'DP'
S'DDDPPP'
tp587
F2
s(g442
S'ADVAVDP'
tp588
F1
s(S'DP'
S'DADVDP'
tp589
F3
s(S'DP'
S'DDDAP'
tp590
F1
s(S'DP'
S'DADVADVADVAPP'
tp591
F1
s(S'AP'
S'AAACP'
tp592
F1
s(g14
S'ADADVVP'
tp593
F1
s(S'VP'
p594
S'ADVVVDP'
tp595
F3
s(S'PP'
p596
S'PPPVP'
tp597
F3
s(S'VP'
S'AAVAP'
tp598
F1
s(g272
S'AADDP'
tp599
F4
s(S'DP'
S'AADPPPP'
tp600
F1
s(S'MP'
S'MADVVANNP'
tp601
F1
s(S'MP'
S'MADVNVP'
tp602
F1
s(g94
S'DADVAAP'
tp603
F1
s(g32
S'VAANP'
tp604
F14
s(S'NP'
S'ANVVP'
tp605
F6
s(g157
S'NADVADVCP'
tp606
F5
s(S'DP'
S'AAADDP'
tp607
F1
s(g526
S'NVVVVP'
tp608
F1
s(S'NP'
S'NADVDP'
tp609
F4
s(S'CP'
S'ACADP'
tp610
F1
s(S'MP'
p611
S'MPNP'
tp612
F4
s(S'MP'
S'MADP'
tp613
F6
s(S'PP'
S'PPPDDP'
tp614
F3
s(S'AP'
S'AMMP'
tp615
F2
s(S'CP'
S'CCAADP'
tp616
F1
s(S'DP'
S'DDADVNP'
tp617
F2
s(g23
S'PANP'
tp618
F43
s(S'DP'
p619
S'AADNP'
tp620
F2
s(S'NP'
S'AAANDDP'
tp621
F1
s(S'PP'
S'PAAAVVP'
tp622
F1
s(S'AP'
S'AAVP'
tp623
F9
s(g542
S'AVVP'
tp624
F7
s(g113
S'NDDP'
tp625
F27
s(S'DP'
S'AAADDVVP'
tp626
F1
s(S'DP'
S'ADVADVDPPP'
tp627
F1
s(S'AP'
S'ACCP'
tp628
F9
s(g220
S'ADAAP'
tp629
F1
s(S'DP'
S'DDDADVPP'
tp630
F1
s(g150
S'NDP'
tp631
F165
s(S'MP'
S'AAMPP'
tp632
F1
s(S'NP'
S'AAANVP'
tp633
F2
s(S'MP'
S'MVAAP'
tp634
F2
s(S'DP'
p635
S'DDVP'
tp636
F49
s(S'DP'
S'AADNNNP'
tp637
F1
s(S'NP'
S'AANVP'
tp638
F9
s(S'CP'
S'CADVADVADVADPP'
tp639
F1
s(S'DP'
S'ADDVP'
tp640
F1
s(S'VP'
S'VNNNP'
tp641
F5
s(S'PP'
S'ADVPAP'
tp642
F1
s(S'MP'
S'MMVVVP'
tp643
F1
s(S'PP'
S'PCP'
tp644
F16
s(S'NP'
p645
S'NNPPP'
tp646
F9
s(g228
S'PAADP'
tp647
F3
s(S'NP'
S'ADVNNVP'
tp648
F1
s(g159
S'NADVCCP'
tp649
F2
s(g225
S'VPPPP'
tp650
F2
s(S'PP'
S'PPPVVP'
tp651
F3
s(S'NP'
S'AANNMP'
tp652
F2
s(S'MP'
S'MVNNNP'
tp653
F1
s(S'NP'
S'NNNDP'
tp654
F1
s(S'AP'
S'ADVACP'
tp655
F7
s(S'NP'
S'AANVVVP'
tp656
F1
s(g433
S'AAPNNP'
tp657
F1
s(S'MP'
S'AMMADVVP'
tp658
F1
s(g594
S'AVVDP'
tp659
F3
s(S'VP'
S'ADVADVAVDP'
tp660
F1
s(S'DP'
S'ADPPP'
tp661
F6
s(g538
S'NNAAVP'
tp662
F2
s(S'MP'
S'MVCP'
tp663
F19
s(S'CP'
S'CCDDP'
tp664
F23
s(S'NP'
S'NNADVVP'
tp665
F5
s(S'NP'
S'ADVADVANNMP'
tp666
F1
s(S'NP'
S'AANNDP'
tp667
F1
s(S'VP'
S'ADVADVADVVPP'
tp668
F1
s(g150
S'NAAP'
tp669
F18
s(S'MP'
S'MADVADVADVVPP'
tp670
F1
s(S'VP'
S'VAMP'
tp671
F2
s(g157
S'NNVVP'
tp672
F18
s(S'NP'
S'NAAMP'
tp673
F2
s(S'NP'
S'NNNNVP'
tp674
F3
s(g21
S'VVCP'
tp675
F24
s(g365
S'AANCP'
tp676
F14
s(S'VP'
S'VADVNP'
tp677
F11
s(S'AP'
S'AAPPPP'
tp678
F1
s(S'AP'
S'ADVAVVP'
tp679
F4
s(S'CP'
S'CDDDADVADVPP'
tp680
F1
s(S'PP'
S'PPAACP'
tp681
F1
s(S'VP'
S'AVVPP'
tp682
F2
s(S'NP'
S'NNDDP'
tp683
F4
s(S'CP'
S'CADVADPPPP'
tp684
F1
s(g78
S'APPADVNP'
tp685
F1
s(S'VP'
p686
S'ADVVPP'
tp687
F4
s(S'AP'
S'AAAADDP'
tp688
F1
s(S'CP'
S'CDAPPP'
tp689
F1
s(S'VP'
S'VNNP'
tp690
F53
s(g301
S'AADVDP'
tp691
F6
s(g360
S'NADP'
tp692
F4
s(S'DP'
p693
S'DDNP'
tp694
F77
s(g577
S'ACADVDP'
tp695
F1
s(S'NP'
S'NADVCP'
tp696
F7
s(g575
S'DDNNP'
tp697
F14
s(S'DP'
S'ADVDAPPP'
tp698
F1
s(S'PP'
S'AAPPP'
tp699
F2
s(g197
S'ADVAVPP'
tp700
F1
s(g365
S'ADVANVP'
tp701
F4
s(S'NP'
S'ADVADVNCP'
tp702
F1
s(g144
S'AADPP'
tp703
F12
s(S'PP'
S'APPNP'
tp704
F1
s(S'NP'
S'NNNNPP'
tp705
F2
s(g480
S'DADVADVANP'
tp706
F1
s(S'VP'
S'VVVVCP'
tp707
F1
s(S'VP'
S'VVMMP'
tp708
F1
s(S'MP'
S'MADVAVPP'
tp709
F1
s(S'AP'
S'AAMMP'
tp710
F1
s(S'PP'
S'AAPDP'
tp711
F7
s(S'MP'
S'AMVVVVVP'
tp712
F1
s(S'DP'
S'DADVADVAP'
tp713
F1
s(S'MP'
S'MADVVDP'
tp714
F2
s(g106
S'MVVNP'
tp715
F7
s(S'CP'
S'CAAADDPP'
tp716
F1
s(S'DP'
p717
S'ADVDNNP'
tp718
F2
s(S'CP'
S'ACDDP'
tp719
F2
s(g301
S'AAPP'
tp720
F5
s(S'AP'
S'ADVADVACCP'
tp721
F1
s(S'VP'
S'VVCCP'
tp722
F6
s(S'DP'
S'DDAAAANNP'
tp723
F1
s(S'PP'
S'PADVMP'
tp724
F2
s(S'MP'
S'MNAAP'
tp725
F1
s(g428
S'AAADCP'
tp726
F1
s(S'PP'
p727
S'ADVPANP'
tp728
F5
s(S'AP'
S'ADVANNP'
tp729
F1
s(S'VP'
S'VVVCCP'
tp730
F1
s(g70
S'NAPP'
tp731
F15
s(S'PP'
S'APPVP'
tp732
F2
s(S'AP'
S'ADVADVADP'
tp733
F1
s(S'AP'
S'ADVAAVP'
tp734
F1
s(S'VP'
S'VVVCP'
tp735
F1
s(S'MP'
S'MVDDP'
tp736
F2
s(g201
S'ANCCP'
tp737
F11
s(S'NP'
S'AANPP'
tp738
F6
s(S'VP'
S'VDDDP'
tp739
F5
s(g237
S'NNMP'
tp740
F18
s(S'DP'
S'DDDVP'
tp741
F4
s(S'VP'
S'AAVPP'
tp742
F1
s(g422
S'CADDPP'
tp743
F3
s(S'MP'
S'MAPDP'
tp744
F1
s(g447
S'PAAAP'
tp745
F4
s(S'MP'
p746
S'MDANP'
tp747
F3
s(S'CP'
S'CDDAPP'
tp748
F2
s(S'NP'
S'ANAP'
tp749
F5
s(S'MP'
S'MVAP'
tp750
F13
s(S'VP'
p751
S'VADVADVDDP'
tp752
F1
s(g23
S'PVP'
tp753
F288
s(S'VP'
S'VADVPPP'
tp754
F1
s(g192
S'ADVADVAPP'
tp755
F2
s(g111
S'AAMVP'
tp756
F1
s(S'MP'
S'MCADVDP'
tp757
F1
s(S'VP'
S'VADVCCP'
tp758
F1
s(g556
S'MADVVVDP'
tp759
F1
s(S'AP'
S'AADVDDP'
tp760
F1
s(g125
S'NNNNNVP'
tp761
F1
s(S'NP'
S'ADVNAVP'
tp762
F1
s(S'DP'
S'DVVVP'
tp763
F6
s(S'PP'
S'PADVAP'
tp764
F2
s(S'VP'
S'VCCCCP'
tp765
F2
s(S'MP'
S'MVVMP'
tp766
F1
s(S'PP'
S'PPDDP'
tp767
F11
s(g436
S'AVCP'
tp768
F6
s(S'DP'
S'DDVVVP'
tp769
F1
s(g113
S'NAVVP'
tp770
F3
s(S'DP'
p771
S'DPP'
tp772
F582
s(g246
S'ADVNVP'
tp773
F11
s(S'DP'
p774
S'DDDVVP'
tp775
F1
s(g9
S'DDPP'
tp776
F152
s(S'DP'
S'DANP'
tp777
F66
s(S'AP'
S'ADVAMP'
tp778
F1
s(S'NP'
S'NADVPP'
tp779
F5
s(S'AP'
S'AADVAP'
tp780
F1
s(S'PP'
S'ADVADVPPNP'
tp781
F2
s(g420
S'MMAP'
tp782
F2
s(g59
S'AAPPVP'
tp783
F1
s(S'NP'
S'NAAVP'
tp784
F4
s(S'DP'
S'ADVADVADPP'
tp785
F1
s(S'DP'
S'ADNNNP'
tp786
F1
s(S'MP'
S'MADVADVAVP'
tp787
F1
s(S'NP'
S'NADVAPP'
tp788
F1
s(S'PP'
p789
S'PDDDP'
tp790
F2
s(S'AP'
S'AAAAPP'
tp791
F2
s(S'VP'
p792
S'VADVCP'
tp793
F1
s(S'NP'
S'NNNNCP'
tp794
F3
s(S'MP'
S'MDNP'
tp795
F8
s(g546
S'ADDPPP'
tp796
F1
s(S'NP'
S'NNNVVP'
tp797
F2
s(S'NP'
S'ADVNMMP'
tp798
F1
s(g693
S'DCCP'
tp799
F6
s(S'DP'
S'AADDP'
tp800
F1
s(S'CP'
S'CDPPPPP'
tp801
F1
s(S'DP'
S'ADVADPP'
tp802
F4
s(S'VP'
S'VVVAP'
tp803
F1
s(g789
S'PDDP'
tp804
F67
s(S'DP'
S'DADVADVADVVP'
tp805
F1
s(S'PP'
S'PCCP'
tp806
F2
s(S'PP'
S'ADVAPNP'
tp807
F1
s(S'NP'
S'NNNADVVP'
tp808
F1
s(g645
S'NNVP'
tp809
F84
s(S'PP'
S'PPPMP'
tp810
F1
s(S'AP'
S'ADVADVACP'
tp811
F1
s(g32
S'AVDP'
tp812
F17
s(g201
S'NNP'
tp813
F5
s(g91
S'VVDDP'
tp814
F12
s(S'DP'
S'DAANP'
tp815
F11
s(S'DP'
S'DVVVVP'
tp816
F2
s(g445
S'ADDP'
tp817
F40
s(S'PP'
S'PNNNNP'
tp818
F4
s(S'CP'
S'ADVCCAADDP'
tp819
F1
s(g256
S'ADVPPNP'
tp820
F1
s(g204
S'MMCCP'
tp821
F1
s(S'NP'
S'NNADVADVVP'
tp822
F1
s(g127
S'MMNNNNNP'
tp823
F1
s(S'NP'
S'AAAANCCP'
tp824
F1
s(S'MP'
S'MDAP'
tp825
F1
s(S'CP'
S'CADVADVDPP'
tp826
F3
s(g771
S'DPPP'
tp827
F143
s(S'DP'
S'DAVVP'
tp828
F1
s(S'DP'
S'AADPPP'
tp829
F1
s(S'VP'
S'VANNP'
tp830
F4
s(S'CP'
p831
S'ADVADVCDDP'
tp832
F1
s(S'PP'
S'ADVPNP'
tp833
F11
s(g727
S'PPDP'
tp834
F69
s(g686
S'ADVVANNP'
tp835
F1
s(g342
S'DDPPPP'
tp836
F1
s(S'NP'
S'ADVADVNVVP'
tp837
F1
s(S'DP'
S'DDADVANP'
tp838
F1
s(S'AP'
S'AAPPP'
tp839
F1
s(S'VP'
S'AAAVVDDP'
tp840
F1
s(S'DP'
S'DDCP'
tp841
F4
s(S'PP'
S'ADVPPANNP'
tp842
F1
s(S'PP'
S'PAANNP'
tp843
F2
s(S'AP'
S'ANNP'
tp844
F1
s(g147
S'NAP'
tp845
F142
s(S'VP'
S'VAAAP'
tp846
F4
s(S'DP'
S'ADVDPPP'
tp847
F5
s(g494
S'ADVAVNP'
tp848
F1
s(S'VP'
S'VVP'
tp849
F53
s(S'DP'
S'DDAPP'
tp850
F4
s(S'PP'
S'ADVADVPVP'
tp851
F2
s(g208
S'APNP'
tp852
F23
s(g442
S'VVVNNP'
tp853
F1
s(S'DP'
S'DDVVP'
tp854
F10
s(g218
S'VVVNP'
tp855
F4
s(S'MP'
S'MNPP'
tp856
F2
s(S'CP'
S'CADVADVADVDPPP'
tp857
F1
s(S'DP'
S'ADVADVADVDPPP'
tp858
F1
s(S'CP'
S'CDDAAAPP'
tp859
F1
s(S'NP'
S'NAMP'
tp860
F9
s(S'MP'
S'MVANP'
tp861
F1
s(g492
S'ADVADVDDPP'
tp862
F1
s(S'MP'
S'MVNNP'
tp863
F1
s(g29
S'CDPP'
tp864
F483
s(S'MP'
S'MADVADVVDDP'
tp865
F1
s(S'NP'
S'ANNNCP'
tp866
F1
s(g596
S'ADVPPPPPP'
tp867
F1
s(S'MP'
S'MVVNNP'
tp868
F2
s(S'AP'
S'ADDDP'
tp869
F5
s(S'CP'
S'ADVCADP'
tp870
F2
s(S'VP'
S'VVAANP'
tp871
F1
s(g611
S'MMMVP'
tp872
F2
s(S'NP'
S'ANNAP'
tp873
F1
s(S'CP'
S'ADVCDP'
tp874
F6
s(g91
S'ADVADVVNP'
tp875
F5
s(S'DP'
S'AAADDPP'
tp876
F1
s(S'VP'
p877
S'VAAVP'
tp878
F1
s(g831
S'ADVACDP'
tp879
F1
s(S'VP'
S'VADVADVDP'
tp880
F2
s(g41
S'PPNNP'
tp881
F17
s(S'NP'
S'AAANNVP'
tp882
F1
s(g228
S'ADVAPPP'
tp883
F2
s(S'PP'
S'PPMP'
tp884
F1
s(S'DP'
S'ADVADVDPP'
tp885
F4
s(g131
S'VAADP'
tp886
F5
s(g415
S'NADVAP'
tp887
F7
s(S'VP'
S'AVDDP'
tp888
F2
s(g619
S'DADVNP'
tp889
F13
s(S'DP'
p890
S'DAP'
tp891
F34
s(g38
S'MCADP'
tp892
F2
s(S'CP'
S'CADPP'
tp893
F40
s(g619
S'ADVADVDVVP'
tp894
F1
s(g360
S'NADVAVP'
tp895
F2
s(S'VP'
S'ADVADVVVPP'
tp896
F1
s(S'NP'
S'NNVVVP'
tp897
F1
s(S'VP'
S'AVPP'
tp898
F8
s(S'PP'
S'ADVAPDP'
tp899
F1
s(S'CP'
S'CAADPPP'
tp900
F1
s(g717
S'DDNNNNP'
tp901
F3
s(S'CP'
S'ADVCADVDP'
tp902
F1
s(S'MP'
S'MVADVADVNP'
tp903
F1
s(S'CP'
S'CDPPPP'
tp904
F9
s(S'VP'
S'AAVDP'
tp905
F5
s(S'DP'
S'AADNNP'
tp906
F1
s(S'PP'
S'PANNP'
tp907
F2
s(S'NP'
S'ADVANMP'
tp908
F2
s(g792
S'VACCP'
tp909
F1
s(S'AP'
p910
S'AAAPP'
tp911
F4
s(S'DP'
S'DAPPP'
tp912
F2
s(S'DP'
S'DADVADVPP'
tp913
F2
s(g575
S'DMP'
tp914
F7
s(g23
S'PPPNP'
tp915
F13
s(S'NP'
S'NADVADVDP'
tp916
F1
s(S'PP'
S'PPAANP'
tp917
F1
s(g171
S'PADVADVNP'
tp918
F3
s(S'NP'
S'NNNP'
tp919
F1
s(S'DP'
S'ADPP'
tp920
F50
s(g113
S'NNADVVVP'
tp921
F1
s(S'VP'
S'VADVPP'
tp922
F2
s(g75
S'DDAAPP'
tp923
F1
s(g291
S'ADVPVP'
tp924
F6
s(S'DP'
S'DDDDPP'
tp925
F2
s(S'AP'
S'ADVADVAVP'
tp926
F1
s(S'DP'
S'DAAP'
tp927
F6
s(g746
S'MACDP'
tp928
F1
s(g304
S'ADVADVANCP'
tp929
F2
s(S'VP'
S'ADVVANP'
tp930
F5
s(S'PP'
S'ADVPDP'
tp931
F5
s(g91
S'ADVVADP'
tp932
F1
s(S'NP'
S'ANNPP'
tp933
F4
s(g154
S'NCP'
tp934
F413
s(S'CP'
S'CADVDPPP'
tp935
F4
s(g512
S'AAAPNP'
tp936
F2
s(g877
S'AAVPPPPP'
tp937
F1
s(S'NP'
S'ADVANDP'
tp938
F1
s(S'AP'
S'AAAP'
tp939
F3
s(S'CP'
S'CDADVPP'
tp940
F12
s(S'AP'
S'AAMP'
tp941
F4
s(S'NP'
S'AAANCCCP'
tp942
F2
s(g97
S'AANDP'
tp943
F4
s(S'MP'
S'MVCCP'
tp944
F1
s(S'MP'
S'MADVVPP'
tp945
F1
s(g540
S'NNCCP'
tp946
F18
s(S'MP'
S'MNVP'
tp947
F24
s(S'NP'
S'AANAP'
tp948
F3
s(g201
S'NNPP'
tp949
F58
s(g751
S'VAPP'
tp950
F7
s(S'NP'
S'NPPPPP'
tp951
F1
s(S'DP'
S'ADVADADVADVPPP'
tp952
F1
s(g67
S'ADVVDP'
tp953
F20
s(S'VP'
S'VADDP'
tp954
F1
s(g393
S'APADVNP'
tp955
F1
s(g890
S'DADVPP'
tp956
F19
s(S'AP'
S'AMP'
tp957
F22
s(S'CP'
S'CCADP'
tp958
F9
s(g177
S'MADVVDDP'
tp959
F1
s(S'MP'
S'AMMMVP'
tp960
F1
s(S'NP'
S'NNNPPP'
tp961
F1
s(g234
S'ADVAPP'
tp962
F11
s(g397
S'ADVPPVVP'
tp963
F1
s(g774
S'ADVDAVP'
tp964
F1
s(S'CP'
S'AACDP'
tp965
F10
s(S'NP'
S'NNNCCP'
tp966
F3
s(S'CP'
S'CADVADADVADVPPP'
tp967
F1
s(S'CP'
S'CCDDDP'
tp968
F1
s(g570
S'CCCDP'
tp969
F10
s(S'PP'
S'ADVADVADVAPNP'
tp970
F1
s(g25
S'DVP'
tp971
F334
s(S'VP'
S'AVNNP'
tp972
F2
s(g222
S'ADVNPP'
tp973
F6
s(S'NP'
S'ADVADVANMP'
tp974
F1
s(g237
S'NNCCCP'
tp975
F3
s(S'AP'
S'AAAMMP'
tp976
F1
s(g910
S'AVP'
tp977
F33
s(S'NP'
S'NADVVP'
tp978
F21
s(S'CP'
S'CDAAAPP'
tp979
F4
s(S'VP'
S'AAAVVDP'
tp980
F1
s(S'CP'
S'AAACDP'
tp981
F2
s(g354
S'DDPPP'
tp982
F19
s(S'NP'
S'ADVNMP'
tp983
F6
s(S'NP'
S'NNAP'
tp984
F15
s(S'MP'
S'MADVVCP'
tp985
F2
s(S'PP'
S'PPANP'
tp986
F2
s(g332
S'ADVVVADVDP'
tp987
F1
s(S'PP'
S'PPCCP'
tp988
F1
s(g635
S'DDADVVVP'
tp989
F1
s(g225
S'VNP'
tp990
F385
s(g67
S'VANP'
tp991
F34
s(g21
S'VADVAP'
tp992
F18
s(S'PP'
S'PPADVNP'
tp993
F1
s(S'DP'
S'ADVADVADVADVDPP'
tp994
F1
s(S'VP'
S'ADVADVVVDP'
tp995
F1
s.