ccollections
defaultdict
p1
(c__builtin__
float
p2
tRp3
(S'MP'
S'MMDP'
tp4
F3
s(S'NP'
S'AANDDP'
tp5
F1
s(S'CP'
S'CAAADPP'
tp6
F3
s(S'PP'
S'PAAANP'
tp7
F1
s(S'DP'
S'DDAP'
tp8
F5
s(S'VP'
S'ADVVVNP'
tp9
F2
s(S'AP'
S'AADDDP'
tp10
F1
s(S'VP'
p11
S'VVVVP'
tp12
F3
s(S'DP'
S'DAANNP'
tp13
F2
s(S'AP'
S'AVVVP'
tp14
F1
s(S'PP'
S'ADVADVPAP'
tp15
F1
s(S'PP'
p16
S'PAPP'
tp17
F4
s(S'PP'
S'PADVNP'
tp18
F13
s(S'DP'
p19
S'DNP'
tp20
F257
s(S'DP'
p21
S'DDAPPP'
tp22
F2
s(S'VP'
S'VVADVCP'
tp23
F1
s(S'NP'
S'NNNAAP'
tp24
F1
s(S'PP'
S'APPNNNP'
tp25
F1
s(S'CP'
S'CDPPP'
tp26
F59
s(S'NP'
S'AAANCP'
tp27
F2
s(S'VP'
S'VADP'
tp28
F16
s(S'DP'
S'DNNNNP'
tp29
F1
s(S'NP'
S'NNMMMMP'
tp30
F1
s(S'DP'
p31
S'DAAP'
tp32
F4
s(S'PP'
S'PPAVP'
tp33
F1
s(S'PP'
p34
S'PPPPPP'
tp35
F3
s(S'VP'
p36
S'VAVP'
tp37
F2
s(S'PP'
S'PPPADVADVVVP'
tp38
F1
s(S'DP'
S'DAADP'
tp39
F1
s(S'DP'
S'ADNNP'
tp40
F2
s(S'PP'
S'ADVPPPP'
tp41
F2
s(S'MP'
S'MDVP'
tp42
F1
s(S'VP'
p43
S'ADVVNP'
tp44
F22
s(S'MP'
S'MVDP'
tp45
F17
s(S'PP'
S'PADVANP'
tp46
F1
s(S'PP'
p47
S'ADVPAMP'
tp48
F2
s(S'PP'
p49
S'PPPP'
tp50
F31
s(S'DP'
S'DDDNP'
tp51
F3
s(S'VP'
S'VACP'
tp52
F11
s(S'DP'
S'DADVVP'
tp53
F8
s(S'MP'
p54
S'MMCP'
tp55
F1
s(S'NP'
S'NADVACP'
tp56
F1
s(S'NP'
p57
S'NDDDP'
tp58
F2
s(S'NP'
S'NCCCP'
tp59
F1
s(S'CP'
S'CADVADVDDPP'
tp60
F1
s(S'VP'
p61
S'VCP'
tp62
F104
s(S'MP'
S'MVVANP'
tp63
F1
s(S'NP'
S'NMMP'
tp64
F8
s(S'DP'
S'DDDNNP'
tp65
F1
s(S'PP'
p66
S'PAP'
tp67
F118
s(S'MP'
S'MMVVP'
tp68
F3
s(S'DP'
S'DDADVADVPP'
tp69
F2
s(S'MP'
p70
S'MVADVNP'
tp71
F1
s(S'NP'
S'NNNAP'
tp72
F3
s(S'CP'
S'AAAACDP'
tp73
F1
s(S'NP'
S'ANPPP'
tp74
F1
s(S'NP'
p75
S'NNNACP'
tp76
F2
s(S'PP'
S'PPADVDP'
tp77
F1
s(S'VP'
p78
S'VAAVP'
tp79
F2
s(g66
S'PNP'
tp80
F351
s(S'DP'
p81
S'DDP'
tp82
F28
s(S'NP'
S'NNNPP'
tp83
F6
s(g61
S'VCCP'
tp84
F18
s(S'MP'
S'MCDP'
tp85
F7
s(S'CP'
S'AACCDP'
tp86
F1
s(S'DP'
S'DDAANP'
tp87
F1
s(S'NP'
S'NNADVADVCP'
tp88
F1
s(S'MP'
S'MNAP'
tp89
F4
s(S'VP'
S'ADVADVVVCP'
tp90
F1
s(S'NP'
p91
S'NMP'
tp92
F115
s(S'NP'
S'NAAAPP'
tp93
F1
s(S'VP'
S'AAVNP'
tp94
F2
s(S'VP'
S'VMMP'
tp95
F3
s(g66
S'PDP'
tp96
F232
s(S'CP'
S'CDADVADVPP'
tp97
F1
s(S'VP'
S'VNNNNP'
tp98
F2
s(S'NP'
S'AAANVVP'
tp99
F1
s(S'DP'
S'ADVDAPPP'
tp100
F1
s(S'VP'
p101
S'AVAAP'
tp102
F1
s(S'PP'
p103
S'PPADVAVP'
tp104
F1
s(S'AP'
S'ANP'
tp105
F1
s(S'PP'
S'PADVPP'
tp106
F1
s(S'MP'
S'MCCADVDP'
tp107
F1
s(S'CP'
S'CDDAPPP'
tp108
F1
s(S'DP'
S'DDAAPPP'
tp109
F1
s(S'NP'
S'ADVANCP'
tp110
F1
s(S'NP'
p111
S'ADVNACP'
tp112
F1
s(g31
S'DPPPP'
tp113
F13
s(S'VP'
p114
S'VVP'
tp115
F58
s(S'AP'
S'ADVAVP'
tp116
F3
s(S'NP'
p117
S'NCCP'
tp118
F52
s(S'NP'
S'ANVP'
tp119
F23
s(S'NP'
S'ADVNDP'
tp120
F1
s(S'VP'
p121
S'VANNP'
tp122
F2
s(S'NP'
p123
S'NNCP'
tp124
F99
s(S'DP'
S'ADVDDPP'
tp125
F3
s(S'NP'
S'NADVADVVP'
tp126
F2
s(S'NP'
S'NNPPPP'
tp127
F1
s(S'DP'
p128
S'DDDDP'
tp129
F1
s(S'DP'
p130
S'DDAPP'
tp131
F3
s(S'MP'
S'MAAADP'
tp132
F1
s(S'VP'
p133
S'AVNP'
tp134
F9
s(g130
S'DDAVVP'
tp135
F1
s(S'VP'
S'ADVADVADVVVDP'
tp136
F1
s(S'PP'
p137
S'AAPNP'
tp138
F2
s(g21
S'DDADVVP'
tp139
F1
s(S'MP'
S'MVAPP'
tp140
F1
s(S'NP'
S'ANADVVP'
tp141
F1
s(S'PP'
S'ADVAPVP'
tp142
F1
s(S'AP'
p143
S'AAAAP'
tp144
F1
s(S'NP'
p145
S'NCCCCP'
tp146
F1
s(S'CP'
S'CCCDP'
tp147
F3
s(S'VP'
S'ADVVAP'
tp148
F6
s(S'VP'
S'VCCCP'
tp149
F2
s(S'VP'
S'VAAAACP'
tp150
F1
s(g16
S'APDP'
tp151
F11
s(S'VP'
S'ADVVNNP'
tp152
F2
s(S'DP'
S'DDANNP'
tp153
F2
s(S'VP'
S'VVANP'
tp154
F3
s(S'VP'
p155
S'VVVVDP'
tp156
F1
s(g130
S'DADVADVADVPP'
tp157
F1
s(S'MP'
p158
S'MAVNP'
tp159
F1
s(S'MP'
S'MPNNP'
tp160
F2
s(S'NP'
S'NANP'
tp161
F2
s(S'PP'
S'ADVADVPAVP'
tp162
F1
s(S'DP'
p163
S'DNNP'
tp164
F66
s(S'CP'
S'CADVDDPP'
tp165
F2
s(S'DP'
S'DPPPPP'
tp166
F1
s(S'VP'
S'AVVNNP'
tp167
F1
s(S'CP'
S'CCADVDP'
tp168
F3
s(S'VP'
p169
S'VVNNNP'
tp170
F3
s(S'VP'
S'AAVDDP'
tp171
F1
s(S'NP'
S'NNNVP'
tp172
F6
s(S'PP'
p173
S'PPAAPP'
tp174
F1
s(S'PP'
p175
S'AAPPDP'
tp176
F1
s(S'PP'
S'PADVVP'
tp177
F14
s(S'PP'
S'APAP'
tp178
F3
s(g101
S'ADVADVVDDP'
tp179
F1
s(S'CP'
p180
S'ADVADVCDP'
tp181
F3
s(S'NP'
p182
S'NADVMP'
tp183
F2
s(S'AP'
p184
S'AAP'
tp185
F13
s(S'VP'
S'VVAPP'
tp186
F1
s(S'DP'
S'DADVADVNP'
tp187
F3
s(S'NP'
p188
S'ADVADVNCCP'
tp189
F1
s(S'NP'
S'ADVANPP'
tp190
F3
s(S'VP'
S'ADVADVVMP'
tp191
F1
s(S'VP'
S'VADVADVNP'
tp192
F1
s(S'CP'
S'CDDDDPP'
tp193
F2
s(S'PP'
S'PAANP'
tp194
F8
s(S'VP'
p195
S'VADVADVCP'
tp196
F1
s(S'PP'
p197
S'PPVVP'
tp198
F5
s(S'VP'
S'VAACP'
tp199
F3
s(S'NP'
S'NNAAAP'
tp200
F1
s(S'MP'
S'MVNP'
tp201
F41
s(S'MP'
S'AMVP'
tp202
F7
s(S'MP'
S'MNDP'
tp203
F1
s(S'CP'
S'CDDDPPP'
tp204
F1
s(S'PP'
S'PAVP'
tp205
F10
s(g158
S'ADVMVP'
tp206
F3
s(S'NP'
p207
S'NNADVADVANP'
tp208
F1
s(S'MP'
S'MADVADVADVVCP'
tp209
F1
s(S'VP'
S'VVVPP'
tp210
F3
s(S'NP'
S'NMMMMP'
tp211
F1
s(S'NP'
S'ADVADVANDP'
tp212
F1
s(S'AP'
S'ADVACCP'
tp213
F2
s(S'DP'
S'DADP'
tp214
F1
s(S'DP'
S'ADVDVVP'
tp215
F1
s(S'AP'
S'ADVADP'
tp216
F8
s(S'AP'
S'APP'
tp217
F32
s(S'MP'
S'MADVVADVANP'
tp218
F1
s(S'DP'
S'ADVDDP'
tp219
F1
s(S'PP'
p220
S'APDDP'
tp221
F4
s(S'VP'
S'ADVADVVVNP'
tp222
F1
s(S'AP'
S'AVVP'
tp223
F4
s(S'PP'
p224
S'APVP'
tp225
F11
s(S'MP'
S'MNCP'
tp226
F4
s(S'VP'
S'ADVADVADVVCP'
tp227
F1
s(S'VP'
p228
S'VVNP'
tp229
F45
s(S'PP'
S'PPPNNP'
tp230
F2
s(g34
S'PPVP'
tp231
F36
s(S'VP'
S'VADVDP'
tp232
F5
s(S'MP'
S'MPADP'
tp233
F1
s(S'VP'
S'VAAP'
tp234
F23
s(g145
S'ANDP'
tp235
F4
s(S'NP'
p236
S'NVVP'
tp237
F61
s(S'PP'
S'PPADP'
tp238
F1
s(S'VP'
p239
S'VMP'
tp240
F32
s(S'NP'
p241
S'ANNAP'
tp242
F1
s(S'VP'
S'VVNNP'
tp243
F8
s(S'CP'
p244
S'CDAPP'
tp245
F24
s(S'VP'
S'VVAAP'
tp246
F2
s(S'CP'
S'CADVADPP'
tp247
F1
s(g128
S'ADNP'
tp248
F11
s(g16
S'PADP'
tp249
F4
s(S'NP'
S'NNAADP'
tp250
F1
s(S'NP'
S'ANDDP'
tp251
F1
s(S'DP'
S'ADVADVDVP'
tp252
F1
s(S'DP'
S'DADVAP'
tp253
F2
s(S'PP'
S'ADVADVPMP'
tp254
F1
s(S'DP'
p255
S'DAPP'
tp256
F36
s(S'VP'
S'AVVP'
tp257
F3
s(S'NP'
S'NAAACP'
tp258
F1
s(S'DP'
S'DAAVP'
tp259
F4
s(S'VP'
p260
S'ADVADVADVVDP'
tp261
F1
s(S'PP'
S'AAAPVP'
tp262
F2
s(g169
S'ADVADVVDP'
tp263
F1
s(S'PP'
p264
S'PPPDP'
tp265
F3
s(S'DP'
p266
S'DAAPPP'
tp267
F1
s(S'PP'
S'AAAPDP'
tp268
F2
s(S'DP'
S'DAAANP'
tp269
F4
s(S'CP'
p270
S'AAAACCDP'
tp271
F1
s(S'NP'
S'ANADVVVP'
tp272
F1
s(S'DP'
S'ADVDNP'
tp273
F4
s(S'PP'
S'PPPPANP'
tp274
F1
s(g61
S'VVPP'
tp275
F28
s(S'MP'
S'MNNNPPP'
tp276
F1
s(S'PP'
S'PAVVP'
tp277
F2
s(S'MP'
S'MVPP'
tp278
F11
s(g81
S'ADVP'
tp279
F11
s(S'CP'
p280
S'CDDPPP'
tp281
F13
s(S'NP'
p282
S'NNPP'
tp283
F33
s(S'MP'
S'MVVDP'
tp284
F5
s(g19
S'DADVPPP'
tp285
F2
s(S'MP'
S'MADVADVADVVDP'
tp286
F1
s(S'DP'
S'DNNNP'
tp287
F8
s(S'MP'
p288
S'MVADVCP'
tp289
F1
s(S'PP'
S'PADVADVVP'
tp290
F1
s(S'PP'
S'PMMP'
tp291
F1
s(S'PP'
S'PVVVP'
tp292
F3
s(g49
S'PMP'
tp293
F20
s(S'NP'
p294
S'NNMMP'
tp295
F2
s(g175
S'PAAPPP'
tp296
F1
s(S'CP'
S'CCDP'
tp297
F89
s(S'VP'
S'VADVANP'
tp298
F4
s(S'NP'
S'ADVADVADVNCP'
tp299
F1
s(S'VP'
S'VADVADVANP'
tp300
F1
s(S'PP'
S'ADVADVPPPP'
tp301
F1
s(S'NP'
S'NVVVP'
tp302
F8
s(S'CP'
S'CDDDPP'
tp303
F7
s(S'CP'
S'CDAAPP'
tp304
F5
s(S'VP'
S'VVVDP'
tp305
F9
s(S'NP'
S'ADVADVADVNMMP'
tp306
F1
s(S'PP'
S'PNNNP'
tp307
F9
s(S'CP'
S'CCCCDP'
tp308
F1
s(S'AP'
S'AACCP'
tp309
F1
s(g36
S'VVMP'
tp310
F4
s(S'MP'
S'MNAAVP'
tp311
F1
s(S'PP'
S'PADVVVP'
tp312
F1
s(g16
S'PPP'
tp313
F129
s(S'NP'
S'NNANP'
tp314
F1
s(S'NP'
S'NAVP'
tp315
F18
s(S'PP'
S'PADVAP'
tp316
F6
s(S'DP'
S'DADVAVP'
tp317
F1
s(S'DP'
S'ADVDVP'
tp318
F13
s(S'NP'
S'NAAAP'
tp319
F5
s(g130
S'ADVADVDNNP'
tp320
F1
s(S'VP'
S'AAADVVAADP'
tp321
F1
s(g228
S'VPP'
tp322
F132
s(S'AP'
S'AAAACP'
tp323
F1
s(g294
S'NNNCP'
tp324
F13
s(S'PP'
S'PADVDP'
tp325
F7
s(S'CP'
S'CDADVAPP'
tp326
F1
s(S'CP'
S'CCCAADP'
tp327
F1
s(S'DP'
S'DANNP'
tp328
F1
s(S'CP'
S'CDDPP'
tp329
F73
s(S'DP'
S'DAAPP'
tp330
F8
s(S'PP'
S'PVVP'
tp331
F35
s(S'AP'
p332
S'AACP'
tp333
F10
s(S'VP'
S'ADVVCP'
tp334
F7
s(g43
S'VPPP'
tp335
F16
s(S'VP'
S'AVCCP'
tp336
F1
s(S'VP'
S'VVPPP'
tp337
F2
s(S'PP'
S'PPAP'
tp338
F10
s(S'DP'
S'DVVP'
tp339
F51
s(S'DP'
S'ADVADVADVDDAPP'
tp340
F1
s(S'CP'
S'CDDAAPP'
tp341
F1
s(S'NP'
S'ANMP'
tp342
F2
s(S'AP'
S'APPP'
tp343
F3
s(S'PP'
S'ADVPPP'
tp344
F3
s(S'NP'
S'ADVADVNVP'
tp345
F1
s(S'VP'
p346
S'VVVP'
tp347
F11
s(S'CP'
S'CADVDPP'
tp348
F14
s(S'VP'
S'AVMP'
tp349
F1
s(S'NP'
p350
S'ANCP'
tp351
F26
s(S'DP'
S'DCP'
tp352
F17
s(g111
S'ANNCP'
tp353
F5
s(S'VP'
S'ADVVCCP'
tp354
F1
s(S'VP'
S'ADVVVVP'
tp355
F1
s(S'PP'
S'ADVADVADVPANP'
tp356
F1
s(g128
S'DDDP'
tp357
F16
s(S'AP'
S'ADDDDP'
tp358
F1
s(S'DP'
p359
S'DDADVPP'
tp360
F5
s(S'NP'
S'ANVVP'
tp361
F5
s(S'VP'
p362
S'VVDP'
tp363
F55
s(S'NP'
p364
S'NPPP'
tp365
F24
s(S'PP'
S'PPAPP'
tp366
F1
s(S'DP'
S'DAPPP'
tp367
F2
s(S'DP'
S'DAVP'
tp368
F9
s(S'VP'
p369
S'AVVVP'
tp370
F1
s(S'NP'
S'NNNMP'
tp371
F1
s(S'NP'
S'NNNNMP'
tp372
F1
s(S'AP'
S'ACP'
tp373
F35
s(S'PP'
S'AAPAP'
tp374
F1
s(S'PP'
S'PPNP'
tp375
F57
s(S'PP'
S'APPPP'
tp376
F2
s(g207
S'ADVADVANPP'
tp377
F1
s(S'DP'
S'AADVP'
tp378
F1
s(S'DP'
S'DAAAPPP'
tp379
F1
s(S'CP'
S'CDDADVPP'
tp380
F4
s(S'MP'
S'MAANVP'
tp381
F1
s(S'AP'
p382
S'ADP'
tp383
F313
s(S'DP'
S'DDPPPP'
tp384
F1
s(g103
S'APVVP'
tp385
F1
s(S'VP'
S'VADVADVADVNP'
tp386
F1
s(S'VP'
S'VAAANP'
tp387
F1
s(g36
S'AVDP'
tp388
F17
s(S'VP'
p389
S'VVAP'
tp390
F10
s(g91
S'NNAPP'
tp391
F1
s(S'AP'
S'AAAADVDP'
tp392
F1
s(S'DP'
S'DDDCP'
tp393
F1
s(S'CP'
S'ADVACDP'
tp394
F1
s(S'VP'
S'VAAAPP'
tp395
F1
s(S'VP'
S'AAVCP'
tp396
F1
s(g117
S'NPP'
tp397
F179
s(S'NP'
p398
S'NNNP'
tp399
F1
s(g123
S'NVP'
tp400
F433
s(S'VP'
S'VVNNNNP'
tp401
F1
s(g173
S'AAPPNP'
tp402
F2
s(S'NP'
S'NAAPP'
tp403
F3
s(S'VP'
S'VDDP'
tp404
F38
s(S'MP'
S'MMMMNNP'
tp405
F1
s(S'AP'
S'AAADVDP'
tp406
F1
s(S'NP'
S'AANNVP'
tp407
F1
s(S'NP'
S'NNNNDP'
tp408
F2
s(S'DP'
S'DADVAPP'
tp409
F2
s(g123
S'ANPP'
tp410
F15
s(g264
S'PPPPP'
tp411
F6
s(S'MP'
S'MPDP'
tp412
F3
s(S'PP'
S'PPPNP'
tp413
F5
s(S'DP'
S'ADVADVDADVADVPP'
tp414
F1
s(S'NP'
S'NPPPP'
tp415
F1
s(S'AP'
S'AADVADVDP'
tp416
F1
s(S'AP'
S'ADVAMP'
tp417
F1
s(S'CP'
S'CAADPP'
tp418
F5
s(S'DP'
S'DADVADVVP'
tp419
F1
s(S'NP'
S'NAACP'
tp420
F2
s(g66
S'PNNP'
tp421
F61
s(S'PP'
S'APNNP'
tp422
F2
s(S'MP'
S'MMNP'
tp423
F3
s(S'DP'
S'AAADPP'
tp424
F3
s(S'VP'
S'AVAP'
tp425
F1
s(S'MP'
S'MMVP'
tp426
F6
s(g197
S'ADVADVAPDP'
tp427
F1
s(S'NP'
S'ADVNCP'
tp428
F8
s(g81
S'ADPP'
tp429
F33
s(S'CP'
S'ACDP'
tp430
F19
s(S'PP'
S'PAAP'
tp431
F29
s(S'AP'
p432
S'ADVANP'
tp433
F5
s(S'NP'
p434
S'NNACP'
tp435
F1
s(S'MP'
S'MDNNP'
tp436
F2
s(g180
S'CDADVPPP'
tp437
F2
s(g346
S'VAP'
tp438
F155
s(S'MP'
S'MNVVP'
tp439
F3
s(S'DP'
S'DDDPP'
tp440
F10
s(S'CP'
S'ADVCDDP'
tp441
F1
s(S'NP'
p442
S'AANNCP'
tp443
F2
s(S'AP'
S'AAVVP'
tp444
F1
s(g128
S'DDDPPP'
tp445
F2
s(S'VP'
S'ADVAVDP'
tp446
F2
s(S'AP'
S'AAACP'
tp447
F3
s(S'VP'
S'ADVVVDP'
tp448
F1
s(S'MP'
S'MANVP'
tp449
F1
s(S'PP'
S'PPPVP'
tp450
F3
s(S'VP'
S'AAVAP'
tp451
F1
s(S'AP'
S'AADDP'
tp452
F5
s(S'VP'
S'VAANP'
tp453
F3
s(S'NP'
S'NADVADVCP'
tp454
F1
s(S'PP'
S'ADVPNNP'
tp455
F3
s(S'NP'
p456
S'ADVNAAMP'
tp457
F1
s(g442
S'NADVADVADVVVP'
tp458
F2
s(S'AP'
p459
S'AADVADVAP'
tp460
F1
s(g47
S'PAAAAP'
tp461
F2
s(S'MP'
S'MPNP'
tp462
F11
s(S'VP'
S'VVAADP'
tp463
F1
s(S'MP'
S'MADP'
tp464
F8
s(g184
S'AMMP'
tp465
F2
s(S'PP'
S'PANP'
tp466
F26
s(S'DP'
S'AADNP'
tp467
F4
s(S'NP'
S'ANNMP'
tp468
F1
s(S'NP'
S'ANNADVDP'
tp469
F1
s(S'DP'
S'ADVADPP'
tp470
F1
s(S'AP'
S'AAVP'
tp471
F3
s(S'NP'
S'NAAP'
tp472
F9
s(g282
S'NDDP'
tp473
F18
s(S'PP'
S'APPDDP'
tp474
F1
s(S'MP'
S'MVADVDP'
tp475
F1
s(g332
S'ACCP'
tp476
F10
s(S'CP'
S'CADVADVDADVADVPP'
tp477
F1
s(g364
S'NDP'
tp478
F83
s(S'PP'
S'PADVADVADVNP'
tp479
F1
s(S'NP'
S'AAANVP'
tp480
F2
s(g359
S'DDVP'
tp481
F37
s(S'NP'
S'AANVP'
tp482
F10
s(S'VP'
S'VNNNP'
tp483
F5
s(g61
S'VAAAACCP'
tp484
F1
s(g155
S'VADVADVPP'
tp485
F1
s(g16
S'ADVPAP'
tp486
F2
s(S'PP'
S'PPPPVVP'
tp487
F1
s(S'MP'
S'MPADVDP'
tp488
F1
s(S'PP'
S'APADVDP'
tp489
F1
s(S'PP'
S'PCP'
tp490
F11
s(g75
S'NNPPP'
tp491
F2
s(S'PP'
S'PAADP'
tp492
F2
s(S'NP'
S'ADVNNVP'
tp493
F1
s(S'VP'
S'VPPPP'
tp494
F1
s(S'AP'
p495
S'AADVAP'
tp496
F1
s(S'NP'
S'NNNDP'
tp497
F1
s(S'AP'
S'ADVACP'
tp498
F3
s(S'VP'
S'VVVAP'
tp499
F2
s(S'DP'
p500
S'ADPPP'
tp501
F3
s(S'MP'
S'MVCP'
tp502
F8
s(g280
S'CCDDP'
tp503
F17
s(S'NP'
S'NNADVVP'
tp504
F3
s(S'NP'
S'NNNVVP'
tp505
F3
s(g456
S'NAACCP'
tp506
F1
s(g182
S'NNVVP'
tp507
F11
s(S'NP'
p508
S'NNNNVP'
tp509
F4
s(S'VP'
S'VVCP'
tp510
F18
s(S'NP'
S'AANCP'
tp511
F6
s(S'VP'
S'VADVNP'
tp512
F6
s(S'VP'
S'VVDDDP'
tp513
F1
s(g143
S'ADVAVVP'
tp514
F3
s(g66
S'APPP'
tp515
F5
s(S'MP'
S'MNNPP'
tp516
F1
s(S'VP'
S'ADVVPP'
tp517
F3
s(S'MP'
S'AAMVVP'
tp518
F1
s(g389
S'VNNP'
tp519
F46
s(S'AP'
S'AADVDP'
tp520
F6
s(S'AP'
S'AAAMP'
tp521
F1
s(S'NP'
S'NADP'
tp522
F4
s(g19
S'DDNP'
tp523
F41
s(S'CP'
S'ACADVDP'
tp524
F1
s(S'NP'
S'NADVCP'
tp525
F2
s(S'DP'
S'DDNNP'
tp526
F8
s(S'PP'
S'AAPPP'
tp527
F2
s(S'NP'
S'ADVANVP'
tp528
F1
s(S'NP'
S'NADVADVADVADVAAP'
tp529
F1
s(S'NP'
S'ADVADVNCP'
tp530
F2
s(S'DP'
S'AADPP'
tp531
F10
s(S'NP'
S'NNNNPP'
tp532
F1
s(g398
S'NNAMP'
tp533
F1
s(S'MP'
S'MADVVNP'
tp534
F1
s(S'MP'
S'MVVNP'
tp535
F3
s(S'CP'
S'CAAADDPP'
tp536
F1
s(S'DP'
S'ADVDNNP'
tp537
F1
s(S'CP'
S'ACDDP'
tp538
F8
s(S'AP'
S'AAPP'
tp539
F5
s(S'VP'
S'VVCCP'
tp540
F5
s(S'PP'
S'APPNP'
tp541
F2
s(S'DP'
S'DAAAPP'
tp542
F1
s(g495
S'ADVANNP'
tp543
F3
s(S'VP'
S'VVVCCP'
tp544
F1
s(g236
S'NAPP'
tp545
F4
s(S'MP'
S'MPAANP'
tp546
F1
s(g111
S'NADVDP'
tp547
F1
s(S'VP'
S'VVVCP'
tp548
F2
s(S'CP'
S'CDAAAPPP'
tp549
F1
s(g508
S'ANCCP'
tp550
F8
s(S'NP'
S'AANPP'
tp551
F5
s(S'NP'
S'NNCCP'
tp552
F13
s(S'NP'
S'NNMP'
tp553
F15
s(S'DP'
S'DDDVP'
tp554
F5
s(S'NP'
S'NNADVCP'
tp555
F1
s(g173
S'ADVADVPNNP'
tp556
F1
s(g260
S'VVADVADVPP'
tp557
F1
s(g220
S'PAAAP'
tp558
F1
s(S'PP'
S'ADVADVPNP'
tp559
F2
s(S'VP'
S'VVVDDP'
tp560
F1
s(S'CP'
S'CDDAPP'
tp561
F2
s(S'NP'
S'AANAP'
tp562
F1
s(S'NP'
S'ANAP'
tp563
F1
s(g362
S'VADVADVAPP'
tp564
F1
s(S'MP'
S'MVAP'
tp565
F13
s(S'PP'
S'PVP'
tp566
F218
s(S'CP'
S'CADVADVADVDDAPP'
tp567
F1
s(S'PP'
S'PPADVVVP'
tp568
F1
s(S'DP'
S'DVVVP'
tp569
F7
s(S'AP'
S'AAAADVVP'
tp570
F2
s(S'MP'
S'MMMMVP'
tp571
F1
s(g224
S'PPDDP'
tp572
F4
s(S'VP'
S'AVCP'
tp573
F1
s(S'VP'
S'VAMP'
tp574
F1
s(S'NP'
S'NAVVP'
tp575
F1
s(S'DP'
S'DPP'
tp576
F509
s(S'DP'
p577
S'ADVVP'
tp578
F1
s(S'NP'
S'ADVNVP'
tp579
F6
s(S'MP'
S'MMADVADVVVP'
tp580
F1
s(g163
S'DDPP'
tp581
F110
s(S'MP'
S'MCCCAADP'
tp582
F1
s(S'DP'
S'DDAVP'
tp583
F1
s(S'DP'
S'DANP'
tp584
F27
s(S'VP'
S'VVVMMP'
tp585
F1
s(S'NP'
S'NADVPP'
tp586
F1
s(S'MP'
S'MVNNNP'
tp587
F1
s(S'MP'
S'MMAP'
tp588
F1
s(S'NP'
S'NAAVP'
tp589
F5
s(S'PP'
S'PDDDP'
tp590
F1
s(g241
S'NACP'
tp591
F12
s(S'AP'
S'AAAAPP'
tp592
F1
s(g121
S'VADVCP'
tp593
F1
s(S'NP'
S'NNNNCP'
tp594
F5
s(S'MP'
S'MDNP'
tp595
F8
s(g434
S'NNAACP'
tp596
F1
s(S'MP'
S'MNAVP'
tp597
F1
s(S'NP'
S'AANNDP'
tp598
F1
s(S'DP'
S'DCCP'
tp599
F2
s(S'AP'
S'AADDDDP'
tp600
F1
s(S'PP'
S'AAPDP'
tp601
F6
s(S'MP'
S'MADVVDP'
tp602
F3
s(g11
S'AVVDP'
tp603
F3
s(S'PP'
p604
S'PDDP'
tp605
F31
s(g137
S'ADVAPNP'
tp606
F1
s(S'NP'
S'NNVP'
tp607
F78
s(S'NP'
S'ADVANNCP'
tp608
F1
s(S'NP'
S'NNP'
tp609
F5
s(S'VP'
S'VVDDP'
tp610
F6
s(S'DP'
S'DAANP'
tp611
F8
s(S'AP'
S'ADDP'
tp612
F26
s(S'PP'
p613
S'PNNNNP'
tp614
F4
s(g604
S'ADVPPNP'
tp615
F1
s(g182
S'ADVADVNAPP'
tp616
F1
s(S'CP'
S'CADVADVDPP'
tp617
F2
s(g255
S'DPPP'
tp618
F93
s(g577
S'DAVVP'
tp619
F1
s(S'DP'
S'AADPPP'
tp620
F2
s(g613
S'ADVADVPPNP'
tp621
F1
s(S'NP'
S'NMMMP'
tp622
F1
s(S'PP'
S'ADVPNP'
tp623
F6
s(S'PP'
S'PPDP'
tp624
F33
s(S'MP'
S'MVPPPP'
tp625
F1
s(S'VP'
p626
S'VAADP'
tp627
F4
s(S'AP'
S'AAVVVVP'
tp628
F1
s(S'DP'
S'DDCP'
tp629
F1
s(g459
S'ADVADVAADP'
tp630
F1
s(g123
S'NAP'
tp631
F95
s(g57
S'NNAAP'
tp632
F3
s(S'VP'
S'VAAAP'
tp633
F3
s(S'NP'
S'ADVNADVAVP'
tp634
F1
s(S'AP'
S'ADVADVADVADVAADP'
tp635
F1
s(S'VP'
S'ADVAVNP'
tp636
F2
s(g16
S'ADVPADP'
tp637
F2
s(S'MP'
S'MDNNNP'
tp638
F1
s(g66
S'PPAAP'
tp639
F6
s(S'AP'
S'AAADP'
tp640
F7
s(g66
S'APNP'
tp641
F18
s(S'VP'
S'VADVVP'
tp642
F1
s(S'DP'
S'DDVVP'
tp643
F2
s(S'VP'
S'VVVNP'
tp644
F1
s(S'MP'
S'MNPP'
tp645
F5
s(S'NP'
S'NAMP'
tp646
F2
s(S'MP'
S'MVANP'
tp647
F1
s(S'DP'
S'ADVADVDDPP'
tp648
F1
s(S'MP'
S'MVNNP'
tp649
F7
s(g244
S'CDPP'
tp650
F419
s(S'AP'
S'ADDDP'
tp651
F3
s(g350
S'NNDP'
tp652
F25
s(S'MP'
S'MMMVP'
tp653
F1
s(S'NP'
S'NNNNADVADVPPP'
tp654
F1
s(S'DP'
S'ADADVNNP'
tp655
F1
s(S'CP'
p656
S'ADVCDP'
tp657
F4
s(S'AP'
S'ADVAAP'
tp658
F1
s(S'VP'
S'ADVADVVNP'
tp659
F4
s(S'DP'
S'AAADDPP'
tp660
F1
s(S'VP'
S'VVAPPP'
tp661
F1
s(g369
S'VADVADVDP'
tp662
F1
s(S'PP'
S'PPNNP'
tp663
F5
s(S'NP'
S'NNADVADVVP'
tp664
F1
s(g500
S'ADVADVDPP'
tp665
F2
s(g114
S'VDP'
tp666
F304
s(S'PP'
S'PPPADVNP'
tp667
F1
s(S'NP'
S'NADVAP'
tp668
F1
s(S'VP'
S'AVDDP'
tp669
F2
s(S'DP'
S'DADVNP'
tp670
F4
s(g163
S'DAP'
tp671
F30
s(S'CP'
S'CADPP'
tp672
F26
s(S'NP'
S'NADVAVP'
tp673
F2
s(S'PP'
S'PADVMP'
tp674
F1
s(S'VP'
S'AVPP'
tp675
F3
s(S'CP'
S'CAADPPP'
tp676
F2
s(S'DP'
S'DDNNNNP'
tp677
F2
s(S'DP'
S'ADADVPP'
tp678
F1
s(S'CP'
S'CDPPPP'
tp679
F9
s(g78
S'AAVDP'
tp680
F8
s(S'DP'
S'AADNNP'
tp681
F1
s(S'PP'
S'PANNP'
tp682
F1
s(g111
S'NNDDP'
tp683
F2
s(g288
S'MVANNP'
tp684
F1
s(S'VP'
S'ADVVADVAP'
tp685
F1
s(g266
S'DADVADVPP'
tp686
F2
s(S'DP'
S'DMP'
tp687
F5
s(S'DP'
S'ADVDPP'
tp688
F20
s(S'PP'
S'PPAANP'
tp689
F1
s(S'NP'
S'AAANPP'
tp690
F1
s(S'PP'
S'PADVADVNP'
tp691
F1
s(g382
S'AADP'
tp692
F80
s(S'MP'
S'MNADVAVP'
tp693
F1
s(g195
S'VADVPP'
tp694
F1
s(S'DP'
S'DDAAPP'
tp695
F1
s(S'CP'
S'CCADVDDP'
tp696
F1
s(S'PP'
S'ADVPVP'
tp697
F4
s(S'DP'
S'DDDDPP'
tp698
F2
s(S'NP'
S'NNVVVP'
tp699
F1
s(S'VP'
p700
S'ADVVANP'
tp701
F2
s(S'PP'
S'PAMP'
tp702
F1
s(S'PP'
S'ADVPDP'
tp703
F3
s(S'PP'
S'PAAVP'
tp704
F2
s(g91
S'NCP'
tp705
F321
s(g656
S'CADVDPPP'
tp706
F4
s(g700
S'ADVVMP'
tp707
F3
s(S'AP'
S'AAAP'
tp708
F3
s(g270
S'CDADVPP'
tp709
F8
s(g432
S'AAMP'
tp710
F5
s(S'PP'
S'ADVPDDP'
tp711
F1
s(S'NP'
S'AANDP'
tp712
F2
s(g70
S'MVCCP'
tp713
F2
s(S'VP'
S'VDDDP'
tp714
F2
s(S'MP'
S'MNVP'
tp715
F29
s(S'VP'
S'ADVADVADVVVCP'
tp716
F1
s(g133
S'VAPP'
tp717
F7
s(S'VP'
S'VVAAACP'
tp718
F1
s(S'MP'
S'MADVVANP'
tp719
F2
s(S'VP'
S'ADVVDP'
tp720
F18
s(g81
S'DADVPP'
tp721
F18
s(S'AP'
S'AMP'
tp722
F26
s(S'CP'
S'CCADP'
tp723
F2
s(g188
S'NNNPPP'
tp724
F2
s(S'AP'
S'ADVAPP'
tp725
F5
s(S'DP'
S'ADVDAVP'
tp726
F1
s(S'CP'
S'AACDP'
tp727
F7
s(S'NP'
p728
S'NNNCCP'
tp729
F1
s(S'CP'
S'CCDDDP'
tp730
F1
s(S'MP'
S'MADVVNNP'
tp731
F1
s(S'DP'
S'ADVDPPP'
tp732
F4
s(g255
S'DVP'
tp733
F317
s(g626
S'AVNNP'
tp734
F1
s(g728
S'ADVNPP'
tp735
F1
s(S'CP'
S'AAACDP'
tp736
F2
s(S'AP'
S'AVP'
tp737
F34
s(S'NP'
S'NADVVP'
tp738
F12
s(S'PP'
S'PPAAAPP'
tp739
F1
s(g163
S'DDPPP'
tp740
F19
s(S'NP'
S'ADVNMP'
tp741
F6
s(S'NP'
S'NNAP'
tp742
F12
s(S'MP'
S'MADVVCP'
tp743
F3
s(S'PP'
S'PPANP'
tp744
F2
s(g54
S'MCDDP'
tp745
F1
s(S'NP'
S'NNADVAP'
tp746
F1
s(g346
S'VNP'
tp747
F294
s(g239
S'VANP'
tp748
F21
s(S'VP'
S'VADVAP'
tp749
F11
s(S'PP'
S'PPADVNP'
tp750
F1
s(S'DP'
S'DDDDVP'
tp751
F2
s.