ccollections
defaultdict
p1
(c__builtin__
float
p2
tRp3
(S'MP'
S'MMDP'
tp4
F4
s(S'NP'
p5
S'AANDDP'
tp6
F1
s(S'CP'
S'CAAADPP'
tp7
F2
s(S'PP'
S'PAAANP'
tp8
F3
s(S'DP'
S'ADDPP'
tp9
F1
s(S'NP'
S'AAANNAP'
tp10
F1
s(S'DP'
p11
S'DDAP'
tp12
F2
s(S'VP'
S'ADVVVNP'
tp13
F1
s(S'MP'
S'ADVADVMMNNP'
tp14
F1
s(S'NP'
S'ADVAANNPP'
tp15
F1
s(S'VP'
p16
S'VVVVP'
tp17
F3
s(S'DP'
p18
S'ADVADVDAPPP'
tp19
F1
s(S'PP'
S'ADVADVPAP'
tp20
F1
s(S'PP'
S'PAPP'
tp21
F10
s(S'PP'
p22
S'PADVNP'
tp23
F15
s(S'DP'
p24
S'DNP'
tp25
F410
s(S'NP'
p26
S'ADVNDP'
tp27
F5
s(S'VP'
S'ADVVNNP'
tp28
F5
s(S'CP'
S'CDPPP'
tp29
F111
s(S'VP'
p30
S'VADP'
tp31
F17
s(S'DP'
S'DNNNNP'
tp32
F4
s(S'CP'
S'CCADVADVADP'
tp33
F1
s(S'CP'
S'CDAAPPP'
tp34
F1
s(S'DP'
p35
S'DAAP'
tp36
F5
s(S'PP'
p37
S'PPPPPP'
tp38
F1
s(S'VP'
S'AVMMP'
tp39
F1
s(S'VP'
S'VAVP'
tp40
F2
s(S'PP'
S'APPDP'
tp41
F3
s(S'AP'
S'AADVMP'
tp42
F2
s(S'DP'
p43
S'DAADP'
tp44
F1
s(S'DP'
S'ADNNP'
tp45
F4
s(S'VP'
S'AVADVDP'
tp46
F1
s(S'PP'
S'ADVPPPP'
tp47
F1
s(S'MP'
S'MDVP'
tp48
F2
s(S'VP'
p49
S'VVVAVP'
tp50
F1
s(S'PP'
p51
S'APVP'
tp52
F26
s(S'CP'
p53
S'AACADVDP'
tp54
F1
s(S'MP'
S'MVDP'
tp55
F38
s(S'NP'
p56
S'AANNPP'
tp57
F2
s(g37
S'PPPP'
tp58
F45
s(S'DP'
p59
S'DDDNP'
tp60
F6
s(S'MP'
S'AMCP'
tp61
F1
s(S'VP'
S'VACP'
tp62
F7
s(S'DP'
S'DADVVP'
tp63
F7
s(S'MP'
S'MMCP'
tp64
F1
s(S'PP'
S'PADVNNP'
tp65
F1
s(S'DP'
p66
S'ADVADADVADVVP'
tp67
F1
s(S'NP'
S'NCCCP'
tp68
F12
s(S'CP'
S'CADVDAPP'
tp69
F2
s(S'VP'
p70
S'VCP'
tp71
F189
s(S'NP'
S'AANCCP'
tp72
F2
s(S'NP'
S'NMMP'
tp73
F11
s(S'VP'
S'VVAANNP'
tp74
F1
s(S'MP'
S'MPPPPNP'
tp75
F1
s(S'NP'
S'NNADVAP'
tp76
F1
s(S'VP'
S'VVVVDP'
tp77
F3
s(g37
S'PAP'
tp78
F144
s(S'PP'
S'PPANNP'
tp79
F1
s(S'MP'
S'MMVVP'
tp80
F1
s(S'CP'
S'AAACCDDP'
tp81
F1
s(S'NP'
S'ANNCCP'
tp82
F2
s(S'MP'
S'MVADVNP'
tp83
F1
s(S'NP'
S'ANADVADVADVADVVP'
tp84
F1
s(S'NP'
p85
S'ANPPP'
tp86
F4
s(S'PP'
S'PPADVDP'
tp87
F1
s(S'VP'
S'VADVANP'
tp88
F1
s(S'PP'
S'PNP'
tp89
F480
s(S'DP'
S'ADDP'
tp90
F1
s(S'PP'
S'PAAADP'
tp91
F1
s(g49
S'AVNNNP'
tp92
F1
s(S'DP'
p93
S'DDP'
tp94
F69
s(S'MP'
p95
S'AMAPPP'
tp96
F1
s(S'VP'
S'ADVVDDP'
tp97
F1
s(S'NP'
S'NNNPP'
tp98
F7
s(S'PP'
p99
S'PAAP'
tp100
F31
s(S'MP'
S'MCDP'
tp101
F13
s(S'MP'
S'MVVVANP'
tp102
F1
s(S'CP'
S'CADVADVDDPP'
tp103
F1
s(S'NP'
S'NNADVADVCP'
tp104
F1
s(S'MP'
S'MNAP'
tp105
F2
s(g85
S'NMP'
tp106
F146
s(S'PP'
S'PPMMP'
tp107
F2
s(S'DP'
S'ADVDPPPP'
tp108
F1
s(S'VP'
p109
S'AAVNP'
tp110
F3
s(S'VP'
p111
S'VMMP'
tp112
F4
s(S'PP'
p113
S'PDP'
tp114
F336
s(S'VP'
p115
S'VAMP'
tp116
F2
s(S'NP'
S'ADVNVVP'
tp117
F3
s(S'VP'
S'VNNNNP'
tp118
F3
s(S'MP'
p119
S'MNNVP'
tp120
F3
s(S'NP'
S'AAANVVP'
tp121
F2
s(S'VP'
S'VVVDDP'
tp122
F1
s(S'CP'
S'CADVADVDADVAPP'
tp123
F1
s(S'VP'
S'AVAAP'
tp124
F2
s(S'PP'
S'PPPADVVP'
tp125
F1
s(S'NP'
S'NACCP'
tp126
F4
s(S'AP'
S'ANP'
tp127
F5
s(S'PP'
S'PADVPP'
tp128
F1
s(S'VP'
p129
S'AAVPP'
tp130
F2
s(S'VP'
S'VVADVNP'
tp131
F2
s(S'PP'
S'PPADVAP'
tp132
F1
s(S'PP'
S'AAPPPP'
tp133
F2
s(S'PP'
S'ADVADVAPVP'
tp134
F1
s(S'DP'
S'DPPPP'
tp135
F13
s(S'DP'
p136
S'DDANP'
tp137
F3
s(S'PP'
p138
S'PADVADP'
tp139
F1
s(S'NP'
p140
S'NACP'
tp141
F30
s(S'AP'
S'ADVAVP'
tp142
F1
s(S'NP'
S'NCCP'
tp143
F77
s(S'DP'
S'DADVADVVVP'
tp144
F1
s(S'AP'
S'AAAADP'
tp145
F2
s(S'NP'
S'NNCP'
tp146
F101
s(S'DP'
p147
S'ADVDDPP'
tp148
F2
s(S'NP'
S'NADVADVVP'
tp149
F2
s(S'DP'
S'DDDDP'
tp150
F2
s(S'VP'
S'ADVVADVNP'
tp151
F1
s(S'VP'
S'AVNP'
tp152
F23
s(S'PP'
S'AAPPAP'
tp153
F1
s(S'DP'
S'DDAVVP'
tp154
F1
s(S'NP'
S'NADVADVMMP'
tp155
F1
s(S'MP'
S'MVADVADVDP'
tp156
F1
s(S'VP'
S'VVADVCP'
tp157
F1
s(S'PP'
S'ADVAPDP'
tp158
F1
s(S'VP'
S'VVMP'
tp159
F6
s(S'VP'
S'VADVVP'
tp160
F4
s(S'MP'
S'MVVVDDP'
tp161
F1
s(S'MP'
p162
S'MVAPP'
tp163
F1
s(S'MP'
S'MVPPP'
tp164
F2
s(S'NP'
S'ANADVVP'
tp165
F1
s(S'PP'
p166
S'ADVPADVDP'
tp167
F1
s(S'MP'
S'ADVMPPP'
tp168
F1
s(S'DP'
S'DADVPPP'
tp169
F6
s(S'DP'
S'ADVVVP'
tp170
F1
s(S'MP'
p171
S'AMMVP'
tp172
F1
s(S'NP'
S'NCCCCP'
tp173
F2
s(S'CP'
S'CCCDP'
tp174
F11
s(S'VP'
S'ADVVAP'
tp175
F7
s(S'VP'
S'VCCCP'
tp176
F1
s(S'VP'
S'VVVAAPP'
tp177
F1
s(g113
S'APDP'
tp178
F31
s(S'PP'
S'ADVADVAPNP'
tp179
F1
s(S'MP'
p180
S'MNNVVP'
tp181
F1
s(S'NP'
S'AANNCCP'
tp182
F1
s(S'NP'
S'ADVNPPP'
tp183
F1
s(S'AP'
S'AADVCP'
tp184
F1
s(g111
S'VVANP'
tp185
F4
s(S'MP'
p186
S'ADVMPP'
tp187
F1
s(S'PP'
p188
S'ADVPNNP'
tp189
F2
s(S'NP'
S'ADVNNADVVP'
tp190
F1
s(S'AP'
S'AANP'
tp191
F1
s(S'MP'
S'MADVVNP'
tp192
F1
s(S'MP'
S'MPNNP'
tp193
F2
s(S'NP'
S'ADVANCP'
tp194
F1
s(S'DP'
S'DNNP'
tp195
F68
s(S'VP'
S'ADVVAANP'
tp196
F1
s(S'DP'
S'DPPPPP'
tp197
F2
s(S'CP'
S'CDDPPPP'
tp198
F3
s(S'CP'
S'CCADVDP'
tp199
F4
s(S'AP'
S'ADDDDP'
tp200
F1
s(S'VP'
S'AAVDDP'
tp201
F2
s(S'DP'
S'DMMP'
tp202
F1
s(S'NP'
S'NNNVP'
tp203
F11
s(S'PP'
S'ADVAPVVP'
tp204
F2
s(S'VP'
S'VVANNP'
tp205
F1
s(S'VP'
S'ADVADVADVAVVDP'
tp206
F1
s(S'PP'
S'PADVVP'
tp207
F8
s(S'MP'
S'MVVDDP'
tp208
F1
s(S'PP'
S'APAP'
tp209
F6
s(S'AP'
S'APP'
tp210
F54
s(S'AP'
S'AAAPPP'
tp211
F1
s(S'NP'
S'NADVMP'
tp212
F2
s(S'VP'
p213
S'AAAVNNP'
tp214
F1
s(S'AP'
S'AAP'
tp215
F5
s(S'CP'
S'CADVADPP'
tp216
F4
s(S'NP'
S'ADVADVNDP'
tp217
F1
s(S'DP'
S'DADVADVNP'
tp218
F1
s(S'DP'
S'ADVADVDADVAPP'
tp219
F1
s(S'NP'
p220
S'NAAACP'
tp221
F2
s(S'DP'
p222
S'DAAVP'
tp223
F5
s(S'CP'
p224
S'CDDDDPP'
tp225
F2
s(S'MP'
S'MPVP'
tp226
F1
s(S'VP'
S'ADVADVADVADVVANP'
tp227
F1
s(S'MP'
S'MVVVNP'
tp228
F1
s(S'PP'
S'PAANP'
tp229
F19
s(S'DP'
S'DDADVADVVP'
tp230
F1
s(S'VP'
S'VVVANP'
tp231
F1
s(S'NP'
p232
S'ANVP'
tp233
F32
s(S'VP'
S'VAACP'
tp234
F2
s(S'PP'
p235
S'PPPPAVP'
tp236
F1
s(S'MP'
S'MVNP'
tp237
F43
s(S'MP'
S'MNDP'
tp238
F1
s(S'NP'
S'ANAAP'
tp239
F1
s(S'CP'
S'CDDDPPP'
tp240
F1
s(S'DP'
S'ADVADNP'
tp241
F1
s(g37
S'PAVP'
tp242
F22
s(S'CP'
S'CDADVADVPP'
tp243
F2
s(S'MP'
S'MDANP'
tp244
F1
s(S'DP'
S'ADVDVVP'
tp245
F1
s(S'VP'
S'VVVPP'
tp246
F3
s(S'NP'
p247
S'NNADP'
tp248
F4
s(S'PP'
p249
S'APPPP'
tp250
F3
s(S'DP'
p251
S'DADP'
tp252
F3
s(S'DP'
S'DAAAPPP'
tp253
F1
s(S'AP'
S'ADVADP'
tp254
F5
s(S'CP'
S'ADVADVCDP'
tp255
F2
s(S'NP'
S'ADVADVADVNNPP'
tp256
F1
s(g251
S'ADVDDP'
tp257
F2
s(S'PP'
S'APDDP'
tp258
F1
s(S'NP'
S'ADVNAP'
tp259
F1
s(S'PP'
S'APPP'
tp260
F7
s(S'DP'
p261
S'DAAAVP'
tp262
F1
s(g166
S'APPCP'
tp263
F1
s(g166
S'PPAAAVP'
tp264
F1
s(S'VP'
S'ADVVNP'
tp265
F18
s(S'CP'
S'CADVADPPP'
tp266
F2
s(S'VP'
S'VVNP'
tp267
F68
s(S'NP'
p268
S'ANNP'
tp269
F1
s(S'PP'
p270
S'PPPNNP'
tp271
F3
s(g37
S'PPVP'
tp272
F56
s(S'NP'
S'NNADVADVAVP'
tp273
F1
s(g129
S'VADVDP'
tp274
F8
s(g119
S'MAPNP'
tp275
F1
s(S'VP'
p276
S'VAAP'
tp277
F22
s(S'PP'
S'PAMMP'
tp278
F1
s(g26
S'ANDP'
tp279
F14
s(g85
S'NVVP'
tp280
F77
s(S'PP'
p281
S'AAPVP'
tp282
F8
s(S'CP'
S'CADDPPP'
tp283
F1
s(S'VP'
S'VMP'
tp284
F46
s(S'NP'
S'ANNAP'
tp285
F2
s(S'VP'
S'VVNNP'
tp286
F6
s(S'CP'
S'CDAPP'
tp287
F36
s(S'VP'
p288
S'VVAAP'
tp289
F4
s(S'MP'
p290
S'MMPP'
tp291
F3
s(g35
S'ADNP'
tp292
F18
s(S'VP'
S'AVVDP'
tp293
F4
s(S'NP'
S'NNNAAAVP'
tp294
F1
s(S'PP'
p295
S'PADP'
tp296
F14
s(S'PP'
p297
S'PMMP'
tp298
F2
s(S'NP'
S'ADVNADVVP'
tp299
F1
s(S'NP'
S'ANDDP'
tp300
F3
s(S'DP'
S'ADVADVDVP'
tp301
F1
s(S'DP'
S'DADVAP'
tp302
F2
s(S'MP'
S'AMMDP'
tp303
F1
s(g93
S'DAPP'
tp304
F59
s(S'PP'
p305
S'ADVPPPPP'
tp306
F1
s(g115
S'AVVP'
tp307
F5
s(S'CP'
S'CCCCDDP'
tp308
F1
s(g171
S'MPPPDP'
tp309
F1
s(S'MP'
S'MACDDP'
tp310
F1
s(g288
S'ADVADVADVVDP'
tp311
F1
s(S'VP'
S'ADVADVVDP'
tp312
F4
s(g166
S'PPPDP'
tp313
F7
s(g261
S'DAAPPP'
tp314
F3
s(S'MP'
S'MVVAP'
tp315
F1
s(S'DP'
S'DDAANNP'
tp316
F1
s(S'VP'
S'VDDDDP'
tp317
F1
s(S'DP'
S'DAAANP'
tp318
F3
s(S'DP'
S'DADVANP'
tp319
F1
s(S'VP'
S'VAAPP'
tp320
F1
s(S'DP'
S'DDAADP'
tp321
F1
s(g35
S'ADVDNP'
tp322
F5
s(S'VP'
p323
S'VVPP'
tp324
F37
s(S'VP'
S'VADVAPP'
tp325
F1
s(S'NP'
p326
S'NNNNDP'
tp327
F2
s(S'DP'
S'ADADVPP'
tp328
F2
s(S'CP'
p329
S'AACDDP'
tp330
F3
s(S'MP'
S'MVPP'
tp331
F22
s(S'DP'
p332
S'ADVP'
tp333
F16
s(g290
S'MVADP'
tp334
F2
s(S'CP'
S'CDDPPP'
tp335
F13
s(S'PP'
S'PPAVVP'
tp336
F1
s(S'NP'
S'NNPP'
tp337
F41
s(S'CP'
S'CCCADVDP'
tp338
F1
s(g180
S'MVVDP'
tp339
F3
s(S'CP'
S'CDDDDPPP'
tp340
F1
s(S'PP'
S'PPVVP'
tp341
F9
s(S'NP'
p342
S'AAAANNDP'
tp343
F1
s(S'DP'
S'DNNNP'
tp344
F11
s(S'MP'
S'MPPDP'
tp345
F1
s(S'VP'
p346
S'ADVVCP'
tp347
F5
s(g270
S'PVVVP'
tp348
F4
s(S'PP'
S'PMP'
tp349
F35
s(S'CP'
S'CCDP'
tp350
F116
s(S'DP'
S'ADVADVADVDPP'
tp351
F1
s(S'MP'
S'AMVP'
tp352
F3
s(g109
S'VPPP'
tp353
F23
s(g332
S'AADDPP'
tp354
F4
s(S'NP'
S'NVVVP'
tp355
F14
s(S'CP'
S'CDDDPP'
tp356
F12
s(S'CP'
S'CDAAPP'
tp357
F10
s(S'VP'
S'VVVDP'
tp358
F10
s(S'NP'
S'NADVAP'
tp359
F1
s(S'PP'
S'PNNNP'
tp360
F13
s(S'CP'
S'CCCCDP'
tp361
F3
s(S'AP'
S'AACCP'
tp362
F3
s(S'PP'
S'AAPNP'
tp363
F6
s(S'MP'
S'MNAAVP'
tp364
F1
s(S'PP'
p365
S'PPP'
tp366
F164
s(S'NP'
S'NNADVDP'
tp367
F1
s(S'NP'
p368
S'NAVP'
tp369
F31
s(S'PP'
S'PADVAP'
tp370
F2
s(S'DP'
S'DDNNNP'
tp371
F1
s(S'MP'
p372
S'AMDP'
tp373
F3
s(S'VP'
S'ADVVAPP'
tp374
F1
s(S'PP'
p375
S'PADDP'
tp376
F1
s(S'CP'
S'CADVDPPPP'
tp377
F1
s(S'DP'
S'ADVDVP'
tp378
F6
s(S'PP'
S'PPADVADVNP'
tp379
F1
s(S'NP'
S'NAAAP'
tp380
F1
s(S'PP'
S'PPAAVVP'
tp381
F1
s(S'NP'
S'NADVVVP'
tp382
F4
s(S'DP'
S'ADVADVDNNP'
tp383
F1
s(S'AP'
S'AADVVP'
tp384
F1
s(g37
S'PPPPDP'
tp385
F2
s(S'MP'
S'MVVVVDP'
tp386
F1
s(S'PP'
S'PAANNP'
tp387
F2
s(S'DP'
S'ADVADVDNP'
tp388
F3
s(g276
S'VPP'
tp389
F176
s(S'PP'
S'AAAPPDP'
tp390
F1
s(S'CP'
S'ADVCCDP'
tp391
F2
s(S'CP'
S'ACCDP'
tp392
F5
s(S'NP'
S'NNNCP'
tp393
F14
s(S'PP'
S'PADVDP'
tp394
F6
s(S'CP'
S'CDADVAPP'
tp395
F2
s(g305
S'ADVADVPANP'
tp396
F1
s(S'DP'
S'DANNP'
tp397
F4
s(S'PP'
S'PADVAAP'
tp398
F1
s(S'CP'
S'CDDPP'
tp399
F99
s(S'DP'
S'DAAPP'
tp400
F14
s(g22
S'PVVP'
tp401
F56
s(S'CP'
S'CADPPP'
tp402
F9
s(S'AP'
S'AACP'
tp403
F9
s(S'DP'
S'ADVADDP'
tp404
F1
s(S'DP'
p405
S'DADVADVADVNNP'
tp406
F1
s(S'MP'
S'MCCDP'
tp407
F2
s(S'PP'
S'PPAP'
tp408
F18
s(S'VP'
S'AVCCP'
tp409
F1
s(S'CP'
S'CDADVADVAPP'
tp410
F1
s(S'VP'
p411
S'VVPPP'
tp412
F4
s(S'MP'
S'MMPPP'
tp413
F1
s(S'NP'
S'NANP'
tp414
F4
s(g332
S'DVVP'
tp415
F51
s(S'MP'
S'ADVMVP'
tp416
F2
s(S'MP'
S'MADVADVADVAVVDP'
tp417
F1
s(S'CP'
S'CDDAAPP'
tp418
F1
s(S'NP'
S'ANMP'
tp419
F5
s(S'AP'
p420
S'APPP'
tp421
F4
s(S'PP'
S'ADVPPP'
tp422
F2
s(S'DP'
S'ADVADPPP'
tp423
F2
s(S'NP'
S'ADVADVNVP'
tp424
F1
s(g70
S'VVVP'
tp425
F12
s(S'DP'
p426
S'DDPPPP'
tp427
F4
s(S'NP'
S'AAAANPP'
tp428
F1
s(S'AP'
S'ADVAAADVDP'
tp429
F1
s(g247
S'ANCP'
tp430
F59
s(g59
S'DCP'
tp431
F32
s(g26
S'ANNCP'
tp432
F10
s(S'NP'
S'AAANCP'
tp433
F1
s(S'AP'
S'AAADVMP'
tp434
F1
s(S'DP'
S'DDDP'
tp435
F23
s(S'MP'
S'ADVMCP'
tp436
F1
s(S'DP'
S'DDADVPP'
tp437
F6
s(S'CP'
S'CADVADVADPP'
tp438
F1
s(S'MP'
S'MAADP'
tp439
F1
s(S'NP'
S'ANVVP'
tp440
F3
s(g70
S'VVDP'
tp441
F59
s(S'NP'
S'NPPP'
tp442
F36
s(g332
S'ADDDP'
tp443
F1
s(S'VP'
S'ADVVNNNP'
tp444
F1
s(S'DP'
S'AADVVP'
tp445
F1
s(S'VP'
S'VVVACP'
tp446
F1
s(g35
S'DAVP'
tp447
F25
s(S'VP'
S'AVVVP'
tp448
F1
s(S'VP'
S'VAAAANP'
tp449
F1
s(S'NP'
S'NNNMP'
tp450
F3
s(S'NP'
S'NNNNMP'
tp451
F1
s(S'AP'
p452
S'ACP'
tp453
F58
s(S'PP'
S'AAPAP'
tp454
F1
s(S'PP'
S'PPNP'
tp455
F107
s(S'PP'
p456
S'AAAAPDP'
tp457
F1
s(S'DP'
S'AAADDP'
tp458
F1
s(g11
S'ADVDAPP'
tp459
F3
s(S'DP'
S'AADVP'
tp460
F2
s(S'PP'
S'PPPPDDP'
tp461
F1
s(S'MP'
S'MADNP'
tp462
F1
s(S'VP'
S'VVVVNNP'
tp463
F1
s(S'VP'
S'VAANNP'
tp464
F1
s(S'CP'
S'CDDADVPP'
tp465
F5
s(g224
S'CCCDDP'
tp466
F3
s(g452
S'ADP'
tp467
F342
s(S'DP'
S'DDAVP'
tp468
F1
s(g49
S'AAAVNNNP'
tp469
F1
s(S'NP'
S'NADVADVAMP'
tp470
F1
s(S'DP'
S'DVVVVP'
tp471
F1
s(S'MP'
S'MAAVAP'
tp472
F1
s(S'VP'
S'VVPPPP'
tp473
F2
s(S'VP'
S'AAAVDP'
tp474
F1
s(S'VP'
S'ADVADVVNNP'
tp475
F1
s(S'MP'
S'MMNNP'
tp476
F1
s(S'AP'
S'AAADP'
tp477
F11
s(S'NP'
p478
S'ANNVP'
tp479
F3
s(S'PP'
S'ADVAPDDP'
tp480
F1
s(S'VP'
S'VVAP'
tp481
F21
s(S'NP'
S'NNAPP'
tp482
F1
s(S'CP'
S'CDDDAPP'
tp483
F1
s(S'PP'
S'PADVADVDP'
tp484
F2
s(S'PP'
S'PPADVVP'
tp485
F2
s(S'VP'
S'AAVCP'
tp486
F2
s(S'NP'
S'NNADVCCP'
tp487
F1
s(g368
S'NPP'
tp488
F283
s(g411
S'ADVADVVAP'
tp489
F1
s(g368
S'NVP'
tp490
F458
s(g326
S'NNDDDP'
tp491
F1
s(g138
S'PAAVP'
tp492
F4
s(S'PP'
S'AAPPNP'
tp493
F1
s(S'NP'
S'NAAPP'
tp494
F5
s(g129
S'VDDP'
tp495
F61
s(S'AP'
S'AAADVDP'
tp496
F2
s(S'PP'
p497
S'ADVPPVP'
tp498
F1
s(S'NP'
S'AAANADVADVVP'
tp499
F1
s(S'MP'
S'MNNNDP'
tp500
F1
s(S'DP'
S'DADVAPP'
tp501
F4
s(g222
S'AAAAADDPP'
tp502
F1
s(g85
S'ANPP'
tp503
F29
s(S'PP'
S'PPPPP'
tp504
F2
s(g372
S'MPDP'
tp505
F10
s(g235
S'ADVADVPDP'
tp506
F1
s(S'MP'
S'MVVPP'
tp507
F3
s(S'DP'
S'ADVDPP'
tp508
F31
s(S'VP'
S'VVAAPP'
tp509
F1
s(S'MP'
S'MMMMADVNP'
tp510
F1
s(S'NP'
S'NPPPP'
tp511
F5
s(S'AP'
S'AADVADVDP'
tp512
F1
s(S'NP'
S'NADVAAP'
tp513
F1
s(S'CP'
S'CDDDADVPP'
tp514
F1
s(S'CP'
S'CAADPP'
tp515
F7
s(S'DP'
S'DADVADVVP'
tp516
F3
s(g140
S'NAACP'
tp517
F9
s(S'PP'
S'PNNP'
tp518
F93
s(S'PP'
S'PAAAAADDP'
tp519
F1
s(g249
S'APNNP'
tp520
F5
s(S'DP'
p521
S'DDAAP'
tp522
F1
s(S'MP'
S'MMNP'
tp523
F1
s(S'DP'
S'AAADPP'
tp524
F3
s(S'VP'
S'AVAP'
tp525
F4
s(S'MP'
p526
S'MMVP'
tp527
F12
s(S'PP'
S'PADVDDP'
tp528
F1
s(S'MP'
S'MNCP'
tp529
F4
s(S'AP'
S'AAPPPP'
tp530
F1
s(S'NP'
p531
S'ADVNCP'
tp532
F4
s(S'AP'
S'AADP'
tp533
F72
s(S'MP'
S'MPDDP'
tp534
F2
s(g213
S'VAPPP'
tp535
F1
s(g329
S'ACDP'
tp536
F36
s(S'VP'
S'VCCP'
tp537
F24
s(S'AP'
S'ADVANP'
tp538
F3
s(S'NP'
S'NNNAAACCP'
tp539
F1
s(S'NP'
S'NNACP'
tp540
F2
s(S'MP'
S'MDNNP'
tp541
F3
s(S'CP'
S'CDADVPPP'
tp542
F3
s(S'VP'
p543
S'VAP'
tp544
F181
s(g162
S'MMAAVP'
tp545
F1
s(S'VP'
S'VVVVNP'
tp546
F2
s(S'MP'
S'MNVVP'
tp547
F3
s(S'DP'
S'DDDPP'
tp548
F16
s(S'NP'
S'AANNCP'
tp549
F3
s(g281
S'PAAPP'
tp550
F4
s(S'VP'
S'VVPPPPP'
tp551
F1
s(S'NP'
S'NNPPPPP'
tp552
F1
s(S'DP'
S'DDDPPP'
tp553
F1
s(S'DP'
p554
S'DADVDP'
tp555
F2
s(S'MP'
S'MVVCCP'
tp556
F1
s(S'PP'
S'APADVVP'
tp557
F1
s(g420
S'AAACP'
tp558
F2
s(g411
S'ADVVVDP'
tp559
F4
s(S'MP'
S'MAVP'
tp560
F1
s(g22
S'PPPVP'
tp561
F5
s(S'VP'
S'AAVAP'
tp562
F1
s(S'AP'
S'AADDP'
tp563
F8
s(S'DP'
S'DAAAANNP'
tp564
F1
s(S'NP'
S'ANNVVP'
tp565
F1
s(S'AP'
S'ACCCCP'
tp566
F2
s(S'VP'
S'VAANP'
tp567
F10
s(S'NP'
p568
S'NADVADVCP'
tp569
F1
s(S'PP'
S'ADVPVP'
tp570
F15
s(S'VP'
S'ADVADVADVADVVDP'
tp571
F1
s(S'MP'
S'MVVMP'
tp572
F1
s(S'MP'
S'MVVVCP'
tp573
F1
s(S'MP'
S'MPNP'
tp574
F10
s(S'MP'
p575
S'MADP'
tp576
F7
s(S'AP'
S'AMMP'
tp577
F5
s(S'CP'
S'CCAADP'
tp578
F3
s(S'PP'
S'PANP'
tp579
F41
s(S'PP'
S'PDDDP'
tp580
F6
s(S'NP'
S'NADVDDP'
tp581
F1
s(S'DP'
S'ADVADPP'
tp582
F4
s(S'NP'
S'AANMP'
tp583
F1
s(S'AP'
S'AAVP'
tp584
F4
s(g140
S'NAAP'
tp585
F15
s(S'NP'
S'NDDP'
tp586
F25
s(S'MP'
S'MVADVDP'
tp587
F1
s(S'AP'
S'ACCP'
tp588
F8
s(S'NP'
S'NNVVVP'
tp589
F1
s(S'DP'
S'DDDADVPP'
tp590
F1
s(S'VP'
S'AVPPP'
tp591
F1
s(g247
S'NDP'
tp592
F171
s(S'NP'
S'AAANVP'
tp593
F1
s(g186
S'MVAAP'
tp594
F2
s(g59
S'DDVP'
tp595
F46
s(S'NP'
S'ANNDDP'
tp596
F1
s(S'CP'
S'CADVADVDAPPP'
tp597
F1
s(S'NP'
S'AANVP'
tp598
F11
s(S'NP'
S'ADVNCCP'
tp599
F1
s(S'DP'
S'DADVADVAPP'
tp600
F2
s(g323
S'AAVVPP'
tp601
F1
s(S'VP'
S'VNNNP'
tp602
F7
s(S'VP'
S'VADVADVPP'
tp603
F1
s(S'PP'
S'ADVPAP'
tp604
F1
s(S'MP'
S'MMVVVP'
tp605
F1
s(S'NP'
S'NNNNVVP'
tp606
F2
s(S'PP'
S'APADVDP'
tp607
F1
s(g188
S'PCP'
tp608
F19
s(S'NP'
p609
S'NNPPP'
tp610
F4
s(S'CP'
S'ACADVDDP'
tp611
F1
s(S'PP'
S'PAADP'
tp612
F1
s(S'VP'
S'VPPPP'
tp613
F1
s(g138
S'PPPVVP'
tp614
F1
s(S'NP'
S'AANNMP'
tp615
F2
s(S'NP'
p616
S'NNNDP'
tp617
F5
s(S'PP'
S'PPVVVP'
tp618
F2
s(S'AP'
S'ADVACP'
tp619
F2
s(S'NP'
S'ADVADVNMP'
tp620
F3
s(S'DP'
S'DDADVVP'
tp621
F1
s(S'VP'
S'ADVADVAVDP'
tp622
F1
s(g136
S'ADPPP'
tp623
F12
s(S'MP'
S'MVCP'
tp624
F13
s(g368
S'NCP'
tp625
F547
s(S'CP'
p626
S'CCDDP'
tp627
F16
s(S'NP'
S'NNADVVP'
tp628
F1
s(S'VP'
S'AAVCCP'
tp629
F1
s(S'MP'
S'MVVADVAP'
tp630
F1
s(S'PP'
S'PPAAP'
tp631
F2
s(g70
S'VVCP'
tp632
F23
s(g235
S'PADVADVPP'
tp633
F2
s(S'NP'
S'AANCP'
tp634
F15
s(g543
S'VADVNP'
tp635
F9
s(S'VP'
S'AVVPP'
tp636
F1
s(S'NP'
S'NNDDP'
tp637
F4
s(S'DP'
S'DDDDPPP'
tp638
F1
s(S'VP'
S'ADVVPP'
tp639
F2
s(S'NP'
S'NAAAAP'
tp640
F2
s(S'CP'
S'CDAPPP'
tp641
F1
s(g276
S'VNNP'
tp642
F50
s(S'AP'
S'AADVDP'
tp643
F2
s(S'AP'
S'AAAMP'
tp644
F1
s(g609
S'NADP'
tp645
F6
s(S'DP'
S'DDNP'
tp646
F92
s(S'NP'
S'NADVCP'
tp647
F8
s(g426
S'DDNNP'
tp648
F12
s(S'DP'
S'ADDVP'
tp649
F1
s(g99
S'AAPPP'
tp650
F4
s(S'NP'
S'ADVANVP'
tp651
F3
s(S'PP'
S'APCP'
tp652
F1
s(S'NP'
S'NAADP'
tp653
F2
s(S'NP'
S'ADVADVNCP'
tp654
F1
s(g43
S'AADPP'
tp655
F13
s(S'PP'
S'APPNP'
tp656
F2
s(S'NP'
S'NNNNPP'
tp657
F2
s(S'MP'
S'MVVP'
tp658
F1
s(S'VP'
S'VVMMP'
tp659
F1
s(S'AP'
S'AAMMP'
tp660
F1
s(S'AP'
S'AADVADVVP'
tp661
F1
s(S'CP'
S'CDPPPPP'
tp662
F1
s(S'MP'
S'MVAAAP'
tp663
F2
s(g268
S'NADVADVCCP'
tp664
F1
s(S'MP'
S'MVVNP'
tp665
F4
s(S'PP'
S'ADVAPVP'
tp666
F1
s(S'DP'
S'ADVDNNP'
tp667
F2
s(S'CP'
S'ACDDP'
tp668
F5
s(S'AP'
S'AAPP'
tp669
F9
s(S'VP'
S'VVCCP'
tp670
F6
s(S'NP'
S'NADVADVADVADVVP'
tp671
F1
s(S'PP'
S'AAPADVADP'
tp672
F1
s(S'DP'
S'DADVVVP'
tp673
F1
s(S'DP'
S'DAAAPP'
tp674
F2
s(S'VP'
S'VADVADP'
tp675
F1
s(S'AP'
S'ADVANNP'
tp676
F1
s(g478
S'NAPP'
tp677
F21
s(S'PP'
S'APPVP'
tp678
F2
s(S'AP'
S'ADVADVADP'
tp679
F1
s(S'NP'
S'NADVDP'
tp680
F1
s(S'VP'
p681
S'VVVCP'
tp682
F3
s(S'NP'
S'ANCCP'
tp683
F5
s(S'NP'
p684
S'AANPP'
tp685
F9
s(S'VP'
S'VDDDP'
tp686
F4
s(g5
S'NNMP'
tp687
F21
s(S'DP'
S'DDDVP'
tp688
F5
s(S'NP'
S'NNADVCP'
tp689
F2
s(S'CP'
S'CADDPP'
tp690
F1
s(S'MP'
S'MPANP'
tp691
F1
s(S'PP'
p692
S'PAAAP'
tp693
F7
s(S'PP'
S'ADVADVPNP'
tp694
F1
s(g188
S'PPPAP'
tp695
F1
s(S'DP'
S'ADVDDAP'
tp696
F1
s(g626
S'CDDAPP'
tp697
F1
s(g616
S'ANAP'
tp698
F6
s(g526
S'MVAP'
tp699
F15
s(S'PP'
S'PVP'
tp700
F354
s(S'VP'
S'AVMMMMP'
tp701
F1
s(S'VP'
S'VVVAANP'
tp702
F1
s(S'VP'
p703
S'VADVCCP'
tp704
F1
s(S'AP'
S'ADVAACP'
tp705
F1
s(S'NP'
S'ADVNAVP'
tp706
F2
s(S'NP'
S'AANADVDDP'
tp707
F1
s(g521
S'DVVVP'
tp708
F7
s(S'PP'
S'PPADVPP'
tp709
F2
s(g531
S'ADVADVANVP'
tp710
F1
s(g297
S'PACP'
tp711
F1
s(S'MP'
S'AMDDP'
tp712
F1
s(S'PP'
S'PPDDP'
tp713
F7
s(S'VP'
S'AVCP'
tp714
F10
s(S'NP'
S'NADVADVAP'
tp715
F1
s(S'NP'
S'NAVVP'
tp716
F2
s(S'NP'
S'NAPPP'
tp717
F2
s(g24
S'DPP'
tp718
F679
s(S'NP'
S'ADVNVP'
tp719
F10
s(g35
S'DDPP'
tp720
F148
s(S'DP'
S'DANP'
tp721
F60
s(S'NP'
S'NADVPP'
tp722
F3
s(S'MP'
S'MMAP'
tp723
F2
s(g456
S'PAAAAPP'
tp724
F1
s(g247
S'NAAVP'
tp725
F6
s(S'VP'
S'ADVVNNNNP'
tp726
F1
s(S'DP'
S'ADVADVADPP'
tp727
F2
s(S'DP'
S'ADNNNP'
tp728
F1
s(S'DP'
S'AADNP'
tp729
F4
s(S'CP'
S'CADVADVADVDPP'
tp730
F1
s(S'VP'
S'VADVCP'
tp731
F3
s(S'NP'
S'NNNNAP'
tp732
F1
s(g575
S'MDNP'
tp733
F19
s(g147
S'ADVDAAP'
tp734
F1
s(S'NP'
S'NNAACP'
tp735
F1
s(g171
S'MNAVP'
tp736
F3
s(S'DP'
S'ADDPPP'
tp737
F1
s(S'NP'
S'NNNVVP'
tp738
F2
s(g497
S'PADVPPP'
tp739
F1
s(S'DP'
S'DCCP'
tp740
F4
s(S'PP'
S'PPPPNP'
tp741
F2
s(S'PP'
S'AAPDP'
tp742
F6
s(S'MP'
S'MADVVDP'
tp743
F2
s(S'PP'
S'PAPPP'
tp744
F2
s(S'PP'
S'PDDP'
tp745
F53
s(S'MP'
S'MVDDP'
tp746
F2
s(S'PP'
S'PCCP'
tp747
F1
s(S'PP'
S'ADVAPNP'
tp748
F1
s(g56
S'NAANNP'
tp749
F1
s(S'NP'
S'NNVP'
tp750
F81
s(S'VP'
S'AVDP'
tp751
F24
s(S'NP'
p752
S'NNP'
tp753
F8
s(S'VP'
S'VVDDP'
tp754
F13
s(S'DP'
S'DAANP'
tp755
F9
s(S'PP'
S'AAAPAP'
tp756
F1
s(S'AP'
S'ADDP'
tp757
F41
s(S'PP'
S'ADVPPNP'
tp758
F5
s(g288
S'VADVADVADVVP'
tp759
F1
s(S'MP'
S'MDAP'
tp760
F1
s(S'CP'
S'CADVADVDPP'
tp761
F7
s(S'DP'
S'DPPP'
tp762
F161
s(S'NP'
S'ADVNAANP'
tp763
F1
s(S'DP'
S'AADPPP'
tp764
F2
s(g329
S'ADVADVADVCCDP'
tp765
F1
s(S'VP'
p766
S'VANNP'
tp767
F3
s(g568
S'NNAVP'
tp768
F1
s(S'AP'
S'AVVP'
tp769
F4
s(S'PP'
S'PPPANP'
tp770
F1
s(S'DP'
S'DDADVADVNP'
tp771
F1
s(S'PP'
S'ADVPNP'
tp772
F16
s(S'PP'
S'PPDP'
tp773
F59
s(g30
S'ADVVANNP'
tp774
F1
s(S'MP'
S'MAVDP'
tp775
F2
s(S'MP'
S'MPPPPDP'
tp776
F1
s(g59
S'ADVDCP'
tp777
F1
s(S'CP'
S'CAADADVPP'
tp778
F2
s(S'VP'
S'VADVACP'
tp779
F1
s(g18
S'DDCP'
tp780
F2
s(S'CP'
S'CADADVADVPP'
tp781
F1
s(g342
S'ANADVADVVP'
tp782
F1
s(S'VP'
S'VMMMP'
tp783
F3
s(S'AP'
S'AAAPP'
tp784
F2
s(g140
S'NAP'
tp785
F137
s(g752
S'NNAAP'
tp786
F4
s(S'VP'
S'VAAAP'
tp787
F5
s(S'VP'
S'ADVAVNP'
tp788
F1
s(g543
S'VVP'
tp789
F50
s(S'DP'
S'DDAPP'
tp790
F1
s(g365
S'APNP'
tp791
F26
s(S'VP'
S'VVVNNP'
tp792
F1
s(S'DP'
S'DDDAPP'
tp793
F1
s(S'DP'
S'DDVVP'
tp794
F12
s(S'AP'
S'AAADDP'
tp795
F2
s(g16
S'VVVNP'
tp796
F11
s(S'MP'
S'MNPP'
tp797
F6
s(S'MP'
S'ADVADVAMVP'
tp798
F1
s(S'CP'
S'CDDADVADVADVPP'
tp799
F1
s(S'NP'
S'NAMP'
tp800
F4
s(S'MP'
S'MVANP'
tp801
F2
s(S'DP'
S'ADVADVDDPP'
tp802
F1
s(S'MP'
S'MVNNP'
tp803
F2
s(S'CP'
S'CDPP'
tp804
F616
s(S'NP'
S'NNADVPP'
tp805
F1
s(S'MP'
S'MMMNP'
tp806
F1
s(S'NP'
S'NNCCCP'
tp807
F2
s(S'AP'
S'ADDDP'
tp808
F3
s(S'NP'
S'NNDP'
tp809
F18
s(S'MP'
S'MMMVP'
tp810
F2
s(S'DP'
S'ADADVADVPP'
tp811
F1
s(S'PP'
S'ADVADVPADVVP'
tp812
F1
s(S'CP'
S'ADVCDP'
tp813
F15
s(S'NP'
S'NNVVP'
tp814
F10
s(S'VP'
S'ADVADVVNP'
tp815
F3
s(S'DP'
S'ADVDADVAANNP'
tp816
F1
s(S'NP'
S'NNNNPPP'
tp817
F1
s(S'CP'
S'ADVACDP'
tp818
F1
s(S'VP'
S'ADVADVVCP'
tp819
F2
s(S'VP'
S'VADVADVDP'
tp820
F2
s(S'PP'
S'PPNNP'
tp821
F11
s(S'PP'
S'ADVAPPP'
tp822
F1
s(S'PP'
S'PPMP'
tp823
F3
s(S'NP'
S'NNNAACP'
tp824
F1
s(S'CP'
S'CAADDPP'
tp825
F4
s(S'DP'
S'ADVADVDPP'
tp826
F7
s(S'VP'
S'VDP'
tp827
F398
s(S'NP'
S'AANVVVVP'
tp828
F2
s(S'VP'
S'AVDDP'
tp829
F6
s(S'DP'
S'DADVNP'
tp830
F7
s(g405
S'DAP'
tp831
F42
s(g95
S'MCADP'
tp832
F1
s(S'CP'
S'CADPP'
tp833
F64
s(S'NP'
S'NADVAVP'
tp834
F1
s(S'PP'
S'PPAVP'
tp835
F4
s(g276
S'AVPP'
tp836
F8
s(S'CP'
S'CAADPPP'
tp837
F1
s(g166
S'APNNNP'
tp838
F1
s(S'MP'
S'MPAANP'
tp839
F1
s(S'MP'
S'AMVVP'
tp840
F1
s(S'PP'
S'PAVVP'
tp841
F2
s(S'CP'
S'CDPPPP'
tp842
F7
s(S'VP'
S'AAVDP'
tp843
F5
s(g375
S'PANNP'
tp844
F10
s(g346
S'VACCP'
tp845
F1
s(S'PP'
S'PPADP'
tp846
F2
s(S'DP'
S'DAPPP'
tp847
F2
s(S'DP'
S'DADVADVPP'
tp848
F2
s(S'DP'
S'DMP'
tp849
F7
s(g692
S'PPPNP'
tp850
F7
s(g220
S'NADVAPP'
tp851
F1
s(S'PP'
S'PPAANP'
tp852
F1
s(S'NP'
S'AAANPP'
tp853
F1
s(S'DP'
S'ADAANNP'
tp854
F1
s(S'PP'
S'PADVADVNP'
tp855
F3
s(S'NP'
S'NNNP'
tp856
F1
s(S'DP'
S'ADPP'
tp857
F82
s(g140
S'NADVADVADVCCP'
tp858
F1
s(g66
S'DDAAPP'
tp859
F1
s(S'PP'
S'PVVVVP'
tp860
F2
s(g224
S'CCAAADP'
tp861
F1
s(g251
S'DDDDPP'
tp862
F2
s(S'DP'
S'DDDDAAPP'
tp863
F1
s(S'NP'
S'ADVADVANCP'
tp864
F1
s(g766
S'ADVVANP'
tp865
F2
s(g51
S'PAMP'
tp866
F2
s(S'PP'
S'ADVPDP'
tp867
F2
s(g478
S'ANNPP'
tp868
F4
s(g295
S'PPAAANP'
tp869
F1
s(S'VP'
S'ADVVVPP'
tp870
F1
s(S'PP'
S'PPADVNNP'
tp871
F1
s(S'PP'
S'AAAPNP'
tp872
F1
s(S'AP'
S'AAAP'
tp873
F4
s(S'VP'
S'VAADP'
tp874
F3
s(S'AP'
S'AAMP'
tp875
F7
s(g554
S'AADADVPP'
tp876
F2
s(S'PP'
S'PPAPP'
tp877
F1
s(S'NP'
S'NNCCP'
tp878
F15
s(S'MP'
S'MNVP'
tp879
F36
s(S'NP'
S'AANAP'
tp880
F1
s(S'CP'
S'ADVADVCCDP'
tp881
F1
s(S'MP'
S'MNNAAP'
tp882
F1
s(g681
S'VAPP'
tp883
F12
s(S'VP'
S'ADVVDP'
tp884
F27
s(S'DP'
S'DDADVADVADVPP'
tp885
F1
s(g426
S'DADVPP'
tp886
F21
s(S'VP'
S'VVADVAP'
tp887
F3
s(S'AP'
S'AMP'
tp888
F31
s(S'CP'
S'CCADP'
tp889
F9
s(S'NP'
S'ADVNNCP'
tp890
F1
s(S'PP'
S'ADVADVADVPNP'
tp891
F1
s(S'AP'
S'ADVAPP'
tp892
F5
s(S'PP'
S'ADVADVPVVP'
tp893
F1
s(S'NP'
S'AAANDP'
tp894
F1
s(S'AP'
S'ADVADVANP'
tp895
F1
s(S'CP'
S'AACDP'
tp896
F11
s(g268
S'NNNCCP'
tp897
F1
s(S'CP'
S'CCDDDP'
tp898
F1
s(S'MP'
S'MADVVNNP'
tp899
F1
s(g35
S'DVP'
tp900
F341
s(S'VP'
S'AVNNP'
tp901
F4
s(S'NP'
S'ADVNPP'
tp902
F2
s(g703
S'VVAMP'
tp903
F1
s(S'CP'
S'AAACDP'
tp904
F2
s(S'AP'
S'AVP'
tp905
F38
s(g684
S'NADVVP'
tp906
F15
s(S'NP'
S'NNADVADVVP'
tp907
F1
s(S'DP'
S'DDPPP'
tp908
F22
s(g232
S'ADVNMP'
tp909
F5
s(S'NP'
S'NNAP'
tp910
F18
s(S'NP'
S'NNNANP'
tp911
F1
s(S'PP'
S'PPANP'
tp912
F4
s(S'MP'
S'MCDDP'
tp913
F1
s(S'CP'
S'CDADVPP'
tp914
F15
s(S'VP'
S'VNP'
tp915
F398
s(g323
S'VANP'
tp916
F33
s(g53
S'CADVDPP'
tp917
F20
s(S'VP'
S'VADVAP'
tp918
F6
s(S'VP'
S'VVVADP'
tp919
F1
s(S'PP'
S'PPADVNP'
tp920
F2
s(S'DP'
S'DDDDVP'
tp921
F1
s(S'VP'
S'ADVADVVVDP'
tp922
F1
s(S'NP'
S'NADVPPP'
tp923
F1
s.