ccollections
defaultdict
p1
(c__builtin__
float
p2
tRp3
(S'DP'
p4
S'DDPP'
tp5
F5
s(S'DP'
p6
S'DDNNNNNP'
tp7
F1
s(S'DP'
S'DANP'
tp8
F5
s(S'PP'
S'APVP'
tp9
F2
s(S'NP'
p10
S'ANPP'
tp11
F3
s(S'NP'
S'ADVADVADVNPP'
tp12
F1
s(S'VP'
p13
S'VVNP'
tp14
F4
s(S'NP'
p15
S'NNNNNPP'
tp16
F1
s(S'PP'
S'PPVP'
tp17
F2
s(S'VP'
S'ADVVVNP'
tp18
F2
s(S'NP'
S'AAANADVVP'
tp19
F1
s(S'PP'
p20
S'PDDDP'
tp21
F1
s(S'VP'
p22
S'VAAP'
tp23
F2
s(S'PP'
p24
S'PAPP'
tp25
F1
s(S'CP'
p26
S'CAADPP'
tp27
F1
s(S'PP'
S'PADVNP'
tp28
F1
s(S'NP'
p29
S'NNNNCP'
tp30
F1
s(S'PP'
S'PNNP'
tp31
F6
s(S'VP'
p32
S'VVNNP'
tp33
F1
s(S'CP'
S'CDAPP'
tp34
F4
s(S'CP'
S'CDDAAPP'
tp35
F2
s(S'CP'
S'CDPPP'
tp36
F6
s(S'MP'
S'MMVP'
tp37
F1
s(S'DP'
p38
S'DNNNNP'
tp39
F1
s(S'DP'
S'DAAAVVP'
tp40
F1
s(S'PP'
p41
S'PADP'
tp42
F2
s(S'CP'
p43
S'CDPPPPP'
tp44
F1
s(S'MP'
S'MADVVDP'
tp45
F1
s(S'PP'
p46
S'PDDP'
tp47
F3
s(S'CP'
S'ACDP'
tp48
F2
s(S'VP'
S'VVVDDP'
tp49
F1
s(S'DP'
S'ADNNP'
tp50
F1
s(S'DP'
S'AAADDPP'
tp51
F1
s(S'DP'
p52
S'DAPP'
tp53
F5
s(S'VP'
p54
S'VAP'
tp55
F6
s(S'VP'
S'ADVVNP'
tp56
F2
s(S'VP'
S'VVVVNP'
tp57
F1
s(g54
S'ADVADVVPP'
tp58
F1
s(S'MP'
p59
S'MVDP'
tp60
F1
s(S'DP'
S'DDDPP'
tp61
F2
s(S'AP'
p62
S'ADVADVACP'
tp63
F1
s(S'VP'
S'AVDP'
tp64
F1
s(S'PP'
S'PPPP'
tp65
F2
s(S'VP'
p66
S'VVDDP'
tp67
F1
s(S'DP'
p68
S'DAANP'
tp69
F1
s(S'VP'
S'VACP'
tp70
F1
s(S'AP'
p71
S'ADDP'
tp72
F2
s(g6
S'DDDPPP'
tp73
F1
s(S'PP'
S'ADVPPNP'
tp74
F1
s(S'VP'
S'VCP'
tp75
F11
s(S'CP'
S'CADVADVDPP'
tp76
F1
s(S'DP'
p77
S'DPPP'
tp78
F8
s(S'NP'
S'NNDP'
tp79
F1
s(S'NP'
S'NADVVVP'
tp80
F2
s(S'PP'
p81
S'PPPVP'
tp82
F1
s(S'VP'
p83
S'VVPP'
tp84
F1
s(S'PP'
p85
S'PPNNP'
tp86
F1
s(S'NP'
S'NMMP'
tp87
F2
s(g4
S'AADPP'
tp88
F1
s(g59
S'MVPP'
tp89
F1
s(S'DP'
p90
S'ADVP'
tp91
F2
s(S'PP'
S'PAP'
tp92
F9
s(S'MP'
p93
S'MMVVP'
tp94
F1
s(g22
S'VADVADVAP'
tp95
F1
s(S'PP'
p96
S'PPDP'
tp97
F8
s(S'NP'
p98
S'NNPP'
tp99
F1
s(S'MP'
S'MPNP'
tp100
F1
s(S'PP'
p101
S'PNP'
tp102
F31
s(S'NP'
S'NNNNPP'
tp103
F1
s(g77
S'DDP'
tp104
F8
s(S'CP'
S'CCADP'
tp105
F1
s(S'PP'
S'PANP'
tp106
F7
s(S'NP'
p107
S'NNNPP'
tp108
F2
s(g46
S'PAAP'
tp109
F2
s(S'CP'
p110
S'AACDP'
tp111
F1
s(S'PP'
S'PMP'
tp112
F2
s(S'DP'
S'DDAANP'
tp113
F2
s(S'AP'
p114
S'ACP'
tp115
F1
s(S'CP'
S'CCDP'
tp116
F3
s(S'NP'
p117
S'NAP'
tp118
F10
s(g32
S'VVVDDDDP'
tp119
F1
s(S'NP'
S'NMP'
tp120
F8
s(S'CP'
S'CDDDPP'
tp121
F1
s(S'CP'
p122
S'CCCCCCCDDDP'
tp123
F1
s(S'CP'
S'CDAAPP'
tp124
F1
s(S'NP'
S'NDP'
tp125
F10
s(S'NP'
p126
S'NNNNVVP'
tp127
F1
s(S'PP'
S'PNNNP'
tp128
F2
s(S'PP'
S'PVP'
tp129
F18
s(S'VP'
p130
S'VVP'
tp131
F2
s(g90
S'DDVP'
tp132
F2
s(g101
S'PDP'
tp133
F26
s(S'NP'
S'ANDP'
tp134
F1
s(S'VP'
S'VADVPPP'
tp135
F1
s(g62
S'AADP'
tp136
F2
s(S'PP'
S'AAPNP'
tp137
F2
s(g66
S'VNNNNP'
tp138
F1
s(g98
S'NNNCP'
tp139
F1
s(S'VP'
S'VVVNP'
tp140
F1
s(S'DP'
S'DNP'
tp141
F30
s(S'NP'
S'NAMP'
tp142
F1
s(g81
S'PCP'
tp143
F1
s(g15
S'NNPPP'
tp144
F2
s(S'CP'
S'CDPP'
tp145
F32
s(g38
S'ADVDVP'
tp146
F1
s(S'VP'
S'VCCP'
tp147
F2
s(S'MP'
S'MADVADVVPP'
tp148
F1
s(S'DP'
p149
S'DPPPP'
tp150
F1
s(S'VP'
S'VPP'
tp151
F9
s(S'NP'
S'NACP'
tp152
F1
s(S'NP'
p153
S'NCCP'
tp154
F3
s(g153
S'NNAACP'
tp155
F1
s(g29
S'NNVP'
tp156
F4
s(S'NP'
p157
S'NNCP'
tp158
F4
s(S'DP'
S'ADVDDPP'
tp159
F3
s(S'MP'
S'MVCP'
tp160
F1
s(g68
S'DANNP'
tp161
F1
s(g110
S'CCDDP'
tp162
F1
s(S'VP'
p163
S'AVNNP'
tp164
F1
s(S'DP'
S'DAAPP'
tp165
F1
s(S'PP'
S'PVVP'
tp166
F3
s(g114
S'AACP'
tp167
F2
s(S'DP'
p168
S'DDADP'
tp169
F1
s(S'DP'
S'ADVADVDPP'
tp170
F1
s(g32
S'VPPP'
tp171
F1
s(g13
S'AVCCP'
tp172
F1
s(S'AP'
S'ADVAADP'
tp173
F1
s(g126
S'NNNNVP'
tp174
F1
s(g90
S'DAP'
tp175
F1
s(g43
S'CADPP'
tp176
F5
s(g10
S'AANCP'
tp177
F3
s(S'VP'
S'VDP'
tp178
F19
s(S'DP'
S'DVVP'
tp179
F1
s(g41
S'APNP'
tp180
F2
s(g107
S'ANMP'
tp181
F1
s(S'AP'
S'APPP'
tp182
F1
s(S'NP'
S'NNNNMP'
tp183
F1
s(S'AP'
p184
S'AAAAP'
tp185
F1
s(S'CP'
S'CADVDPP'
tp186
F2
s(g83
S'VADVADVADVNP'
tp187
F1
s(g10
S'NADVADVADVADVVVP'
tp188
F1
s(S'DP'
S'DDNP'
tp189
F1
s(S'DP'
S'DDNNP'
tp190
F1
s(S'NP'
S'ANCP'
tp191
F8
s(g24
S'APDP'
tp192
F2
s(S'VP'
S'VAANP'
tp193
F1
s(S'DP'
p194
S'DCP'
tp195
F2
s(S'DP'
p196
S'ADVDPP'
tp197
F2
s(g96
S'PPP'
tp198
F8
s(g20
S'AAPPP'
tp199
F1
s(S'PP'
S'PPAANP'
tp200
F1
s(S'VP'
S'VADP'
tp201
F2
s(S'DP'
S'DADVPP'
tp202
F1
s(g194
S'ADPP'
tp203
F5
s(g153
S'ADVADVNCP'
tp204
F1
s(S'NP'
p205
S'NNNNCCCP'
tp206
F1
s(S'NP'
S'NNADVAAP'
tp207
F1
s(S'DP'
p208
S'DDAAPP'
tp209
F2
s(S'CP'
S'CCADVDDP'
tp210
F2
s(S'MP'
S'MVVVVNP'
tp211
F1
s(g194
S'DPPPPP'
tp212
F1
s(g163
S'VVDP'
tp213
F1
s(S'NP'
S'NPPP'
tp214
F1
s(g122
S'CCCDDDDDP'
tp215
F1
s(g117
S'NNVVVP'
tp216
F1
s(S'MP'
S'AMVVP'
tp217
F1
s(g208
S'DAVP'
tp218
F2
s(g10
S'ANNPP'
tp219
F1
s(g52
S'DNNP'
tp220
F2
s(S'CP'
S'CADVDDPP'
tp221
F1
s(g107
S'NCP'
tp222
F27
s(S'CP'
p223
S'CDDPPPP'
tp224
F1
s(S'CP'
S'CAAADDPP'
tp225
F1
s(S'PP'
S'PPNP'
tp226
F5
s(g223
S'CDPPPP'
tp227
F1
s(S'MP'
S'MMVVVVP'
tp228
F1
s(g85
S'PPNNNNP'
tp229
F1
s(g93
S'MVCCP'
tp230
F1
s(S'PP'
S'ADVPMMP'
tp231
F1
s(g130
S'VNNP'
tp232
F2
s(S'AP'
S'ADVADP'
tp233
F1
s(S'AP'
S'ADP'
tp234
F15
s(S'AP'
p235
S'APP'
tp236
F4
s(g149
S'DDPPPP'
tp237
F1
s(S'VP'
S'ADVVDP'
tp238
F2
s(S'NP'
S'AANVP'
tp239
F1
s(g71
S'AAP'
tp240
F1
s(g26
S'CDDPP'
tp241
F5
s(S'NP'
S'ANCCP'
tp242
F1
s(g117
S'AANPP'
tp243
F1
s(S'AP'
S'AMP'
tp244
F1
s(S'NP'
S'NNMP'
tp245
F2
s(S'VP'
S'VADVADVNP'
tp246
F1
s(g6
S'DDDDDPPPPP'
tp247
F1
s(g85
S'PPPPNNP'
tp248
F1
s(S'PP'
S'ADVADVPNNP'
tp249
F1
s(S'MP'
S'MVVVNP'
tp250
F1
s(g184
S'AAADP'
tp251
F1
s(S'NP'
S'ANVP'
tp252
F1
s(S'DP'
S'DVP'
tp253
F18
s(S'MP'
S'MVNP'
tp254
F6
s(S'AP'
S'AADVDP'
tp255
F1
s(g235
S'AVP'
tp256
F4
s(S'NP'
S'NADVVP'
tp257
F2
s(g22
S'AAAVVDP'
tp258
F1
s(S'PP'
S'PAVP'
tp259
F1
s(g168
S'DDPPP'
tp260
F1
s(g98
S'ADVNMP'
tp261
F1
s(g205
S'NNNNNCCCCCCCP'
tp262
F1
s(S'NP'
S'NPP'
tp263
F20
s(g107
S'NVP'
tp264
F27
s(S'VP'
S'VVNNNNP'
tp265
F1
s(g157
S'NNNNNNNVVP'
tp266
F1
s(S'PP'
S'PPPPVP'
tp267
F1
s(S'VP'
S'VNP'
tp268
F18
s(S'VP'
p269
S'ADVADVADVADVVVDP'
tp270
F1
s(g269
S'VANP'
tp271
F1
s(S'VP'
S'VADVAP'
tp272
F1
s(S'DP'
S'DADVADVPP'
tp273
F1
s(g196
S'DDDDNNNNNNNP'
tp274
F1
s(g68
S'DPP'
tp275
F39
s.