ccollections
defaultdict
p1
(c__builtin__
float
p2
tRp3
(S'MP'
S'MMDP'
tp4
F1
s(S'MP'
S'MADVVCCP'
tp5
F2
s(S'CP'
S'CAAADPP'
tp6
F3
s(S'DP'
S'ADDPP'
tp7
F5
s(S'DP'
S'DDAP'
tp8
F8
s(S'VP'
S'ADVVVNP'
tp9
F1
s(S'VP'
S'AAVCCP'
tp10
F1
s(S'AP'
S'AADDDP'
tp11
F2
s(S'AP'
S'AADVADVACP'
tp12
F1
s(S'DP'
S'DAANNP'
tp13
F1
s(S'PP'
S'PAAANNP'
tp14
F1
s(S'AP'
S'AVVVP'
tp15
F1
s(S'PP'
p16
S'PAPP'
tp17
F13
s(S'PP'
S'PADVNP'
tp18
F21
s(S'DP'
p19
S'DNP'
tp20
F565
s(S'MP'
S'MVVAAP'
tp21
F1
s(S'NP'
S'ADVNDP'
tp22
F3
s(S'PP'
S'AAPDDP'
tp23
F1
s(S'CP'
p24
S'CDPPP'
tp25
F124
s(S'VP'
S'VADP'
tp26
F11
s(S'DP'
S'DNNNNP'
tp27
F1
s(S'MP'
S'MPPNNNP'
tp28
F1
s(S'DP'
S'DAAP'
tp29
F8
s(S'PP'
S'PPPPPP'
tp30
F3
s(S'VP'
S'VAVP'
tp31
F1
s(S'PP'
S'APPDP'
tp32
F1
s(S'CP'
S'CADVADVDPPP'
tp33
F1
s(S'VP'
S'VADVDDP'
tp34
F1
s(S'DP'
S'DAADP'
tp35
F1
s(S'DP'
S'ADNNP'
tp36
F1
s(S'VP'
S'AVADVDP'
tp37
F1
s(S'MP'
p38
S'MDVP'
tp39
F3
s(S'NP'
S'ADVADVNCP'
tp40
F2
s(S'VP'
S'ADVVNP'
tp41
F36
s(S'MP'
S'MVDP'
tp42
F73
s(S'PP'
p43
S'PADVANP'
tp44
F3
s(S'NP'
S'AANNPP'
tp45
F2
s(S'PP'
p46
S'PPPP'
tp47
F38
s(S'AP'
S'ADVAPPP'
tp48
F1
s(S'DP'
S'DDDNP'
tp49
F5
s(S'MP'
p50
S'AMCP'
tp51
F1
s(S'VP'
S'VACP'
tp52
F5
s(S'DP'
S'DADVVP'
tp53
F8
s(S'MP'
S'MMCP'
tp54
F2
s(S'MP'
S'MVVNNNP'
tp55
F1
s(S'NP'
p56
S'NCCCP'
tp57
F5
s(S'PP'
S'ADVPNNP'
tp58
F1
s(S'VP'
p59
S'VCP'
tp60
F274
s(S'NP'
p61
S'NMMP'
tp62
F14
s(S'VP'
S'AVADVNNP'
tp63
F1
s(S'NP'
S'NNADVAP'
tp64
F1
s(S'MP'
S'MMAVP'
tp65
F1
s(S'VP'
S'ADVVCCP'
tp66
F2
s(S'PP'
p67
S'PAP'
tp68
F226
s(S'PP'
S'PPANNP'
tp69
F1
s(S'VP'
S'VADVADVAP'
tp70
F3
s(S'NP'
p71
S'ANNCCP'
tp72
F2
s(S'PP'
S'ADVPPVP'
tp73
F1
s(S'NP'
S'NNNAP'
tp74
F3
s(S'CP'
S'AAAACDP'
tp75
F1
s(S'NP'
S'ANPPP'
tp76
F2
s(S'NP'
S'NNNACP'
tp77
F2
s(S'NP'
p78
S'NAAAVP'
tp79
F1
s(S'PP'
S'PPADVDP'
tp80
F1
s(S'VP'
S'VADVANP'
tp81
F5
s(S'PP'
p82
S'PNP'
tp83
F701
s(S'MP'
p84
S'MADVCDP'
tp85
F1
s(g19
S'DDP'
tp86
F100
s(S'VP'
S'ADVVDDP'
tp87
F1
s(S'NP'
S'NNNPP'
tp88
F6
s(S'PP'
S'PAAP'
tp89
F28
s(S'VP'
p90
S'ADVVVDDP'
tp91
F1
s(S'MP'
S'MCDP'
tp92
F16
s(S'NP'
S'ANADVAP'
tp93
F1
s(S'CP'
p94
S'AACCDP'
tp95
F1
s(S'MP'
S'AMPP'
tp96
F2
s(S'NP'
p97
S'NMP'
tp98
F311
s(S'NP'
S'ADVADVNAP'
tp99
F1
s(S'VP'
p100
S'AAVNP'
tp101
F3
s(S'VP'
p102
S'VMMP'
tp103
F3
s(g82
S'PDP'
tp104
F469
s(S'CP'
S'CCADVADVDP'
tp105
F1
s(S'PP'
S'PPADVVP'
tp106
F1
s(S'NP'
S'ADVNVVP'
tp107
F2
s(S'AP'
S'ADVAADVVP'
tp108
F1
s(S'MP'
S'MNNVP'
tp109
F2
s(S'MP'
S'MADVVNP'
tp110
F9
s(S'DP'
S'ADVADVDAPP'
tp111
F1
s(S'NP'
p112
S'NACCP'
tp113
F4
s(S'AP'
S'ANP'
tp114
F3
s(S'PP'
p115
S'PADVPP'
tp116
F5
s(S'VP'
S'AAVPP'
tp117
F4
s(S'VP'
S'VVADVNP'
tp118
F1
s(g71
S'ADVANCP'
tp119
F2
s(S'PP'
S'AAPPPP'
tp120
F1
s(S'DP'
p121
S'DPPPP'
tp122
F19
s(S'DP'
p123
S'DDANP'
tp124
F5
s(g97
S'NACP'
tp125
F32
s(S'AP'
S'ADVAVP'
tp126
F3
s(S'NP'
S'NCCP'
tp127
F75
s(S'VP'
S'AVADVNP'
tp128
F1
s(S'AP'
S'AAAADP'
tp129
F2
s(S'VP'
S'ADVVAANP'
tp130
F1
s(S'NP'
p131
S'NNCP'
tp132
F131
s(S'DP'
S'ADVDDPP'
tp133
F3
s(S'NP'
S'NADVADVVP'
tp134
F8
s(S'NP'
S'NNPPPP'
tp135
F1
s(S'DP'
S'DDDDP'
tp136
F3
s(S'DP'
S'DDAPP'
tp137
F7
s(S'MP'
S'MAAADP'
tp138
F1
s(S'VP'
S'AVNP'
tp139
F10
s(S'VP'
S'VVADP'
tp140
F1
s(S'NP'
S'NADVADVPP'
tp141
F1
s(S'MP'
S'MAPP'
tp142
F2
s(S'AP'
S'ADVADVANNP'
tp143
F1
s(S'DP'
p144
S'ADVADVDANP'
tp145
F1
s(S'PP'
p146
S'ADVAPDP'
tp147
F1
s(S'PP'
S'AAPNP'
tp148
F6
s(S'VP'
S'VADVVP'
tp149
F6
s(S'VP'
S'ADVADVADVVNP'
tp150
F1
s(S'MP'
S'MVAPP'
tp151
F1
s(S'MP'
S'MVPPP'
tp152
F2
s(S'NP'
p153
S'ANADVVP'
tp154
F1
s(S'PP'
S'ADVPADVNP'
tp155
F1
s(S'DP'
p156
S'AAAADADVPP'
tp157
F1
s(S'MP'
p158
S'MADVVNNP'
tp159
F1
s(S'VP'
S'ADVVAP'
tp160
F14
s(S'VP'
S'VCCCP'
tp161
F1
s(g16
S'APDP'
tp162
F33
s(g24
S'ADVADVACDDDDP'
tp163
F1
s(S'NP'
S'AANNCCP'
tp164
F1
s(S'VP'
p165
S'ADVVNNP'
tp166
F7
s(S'AP'
S'AADVCP'
tp167
F3
s(S'AP'
S'AVVVVP'
tp168
F1
s(S'MP'
S'MVADVVP'
tp169
F2
s(g90
S'VVANP'
tp170
F4
s(S'PP'
S'PPACP'
tp171
F1
s(S'NP'
S'ANAACCP'
tp172
F1
s(S'MP'
S'ADVMPP'
tp173
F1
s(S'VP'
S'VVVVDP'
tp174
F2
s(S'AP'
S'AANP'
tp175
F2
s(S'NP'
p176
S'NNADVANP'
tp177
F1
s(S'PP'
S'PCCP'
tp178
F3
s(S'MP'
S'MPNNP'
tp179
F1
s(S'NP'
S'NANP'
tp180
F6
s(S'DP'
S'DNNP'
tp181
F76
s(S'CP'
S'CADVDDPP'
tp182
F3
s(S'DP'
S'DPPPPP'
tp183
F1
s(S'CP'
S'CCADVDP'
tp184
F8
s(S'VP'
S'VVNNNP'
tp185
F3
s(S'VP'
S'VVACP'
tp186
F1
s(S'NP'
S'NNNVP'
tp187
F17
s(S'NP'
S'NNAAAACP'
tp188
F1
s(S'PP'
p189
S'ADVAPVVP'
tp190
F1
s(S'PP'
S'PADVVP'
tp191
F8
s(S'DP'
S'DADVADVADVPPP'
tp192
F1
s(S'MP'
S'AMDP'
tp193
F1
s(S'PP'
S'APAP'
tp194
F3
s(S'AP'
p195
S'APP'
tp196
F94
s(S'NP'
S'NAPPP'
tp197
F1
s(S'NP'
S'NADVMP'
tp198
F2
s(S'AP'
S'AAP'
tp199
F14
s(S'VP'
p200
S'VADVADVVP'
tp201
F2
s(S'CP'
S'CADVADPP'
tp202
F4
s(S'DP'
p203
S'DADVADVNP'
tp204
F2
s(S'PP'
S'PAAAAVP'
tp205
F2
s(S'NP'
S'ADVANPP'
tp206
F3
s(S'MP'
S'MVVCP'
tp207
F2
s(S'DP'
S'DAAVP'
tp208
F5
s(S'CP'
S'CDDDDPP'
tp209
F6
s(S'MP'
S'MPVP'
tp210
F2
s(S'MP'
p211
S'MADVVMP'
tp212
F1
s(S'MP'
S'MVVVNP'
tp213
F3
s(S'PP'
S'PAANP'
tp214
F11
s(S'VP'
S'VADVADVCP'
tp215
F1
s(S'NP'
p216
S'NADVADVPPP'
tp217
F1
s(S'NP'
S'ANVP'
tp218
F33
s(S'NP'
S'NNAAAP'
tp219
F2
s(S'MP'
S'MVNP'
tp220
F102
s(S'DP'
S'AAAADDP'
tp221
F1
s(S'NP'
S'NNANP'
tp222
F1
s(S'NP'
S'NNNNP'
tp223
F1
s(g61
S'ANAAP'
tp224
F1
s(S'AP'
p225
S'ADVAADP'
tp226
F1
s(g203
S'ADVADNP'
tp227
F1
s(S'PP'
S'PAVP'
tp228
F12
s(S'DP'
S'ADVDDAVVP'
tp229
F1
s(S'NP'
S'NNNNNP'
tp230
F1
s(S'VP'
p231
S'ADVVMP'
tp232
F2
s(S'VP'
S'VVVPP'
tp233
F2
s(S'CP'
S'CADVADVADPP'
tp234
F2
s(S'CP'
S'ADVCADP'
tp235
F1
s(S'MP'
p236
S'MADVVPP'
tp237
F4
s(S'DP'
S'DADP'
tp238
F6
s(S'DP'
S'DAAAPPP'
tp239
F1
s(S'AP'
S'ADVADP'
tp240
F7
s(S'CP'
S'ADVADVCDP'
tp241
F1
s(S'PP'
S'APDDP'
tp242
F2
s(S'NP'
S'ADVNAP'
tp243
F3
s(S'DP'
p244
S'ADVDDDP'
tp245
F1
s(S'PP'
S'PPCP'
tp246
F1
s(S'NP'
S'AAANNPP'
tp247
F1
s(g146
S'APVP'
tp248
F12
s(S'MP'
S'MADVADVVPP'
tp249
F1
s(S'MP'
S'MNNCP'
tp250
F1
s(S'MP'
S'MNCP'
tp251
F5
s(S'VP'
p252
S'VVNP'
tp253
F74
s(g82
S'PPPNNP'
tp254
F1
s(S'VP'
S'AAAAVDP'
tp255
F1
s(S'PP'
p256
S'PPVP'
tp257
F55
s(S'MP'
S'MPCP'
tp258
F2
s(S'VP'
S'VADVDP'
tp259
F8
s(S'MP'
S'MVVVPP'
tp260
F1
s(g50
S'MAPNP'
tp261
F2
s(S'VP'
p262
S'VAAP'
tp263
F36
s(S'CP'
S'CADVADVADVDDAAPP'
tp264
F1
s(g97
S'ANDP'
tp265
F22
s(S'NP'
p266
S'NVVP'
tp267
F115
s(S'PP'
S'AAPVP'
tp268
F6
s(S'PP'
p269
S'PPADP'
tp270
F4
s(S'VP'
S'VMP'
tp271
F50
s(S'NP'
S'ANPPPP'
tp272
F1
s(S'PP'
S'PPPPNNNP'
tp273
F1
s(S'VP'
S'VVNNP'
tp274
F7
s(S'CP'
p275
S'CDAPP'
tp276
F37
s(S'VP'
S'VVAAP'
tp277
F3
s(S'MP'
S'MMPP'
tp278
F1
s(S'NP'
S'ANCCP'
tp279
F8
s(S'DP'
S'ADNP'
tp280
F13
s(S'VP'
p281
S'AVVDP'
tp282
F1
s(S'NP'
S'AANPP'
tp283
F4
s(S'DP'
S'DDDAAPP'
tp284
F1
s(S'PP'
S'PADP'
tp285
F19
s(S'VP'
S'ADVVVCP'
tp286
F1
s(S'PP'
S'PAAPP'
tp287
F3
s(g59
S'VVVDDP'
tp288
F3
s(S'DP'
S'DDADVDP'
tp289
F2
s(S'DP'
p290
S'DAPP'
tp291
F62
s(S'VP'
S'AVVP'
tp292
F3
s(S'NP'
S'NAAACP'
tp293
F1
s(S'VP'
S'ADVADVVPP'
tp294
F6
s(S'MP'
S'MADVADVVNP'
tp295
F3
s(S'VP'
S'VADVADVNP'
tp296
F1
s(S'MP'
S'MDDNP'
tp297
F3
s(S'PP'
p298
S'AAAPVP'
tp299
F1
s(S'NP'
S'ADVNNPP'
tp300
F1
s(g200
S'ADVADVVDP'
tp301
F4
s(S'NP'
S'NNNADVAP'
tp302
F1
s(g82
S'PPPDP'
tp303
F10
s(S'PP'
S'AAAPDP'
tp304
F4
s(S'AP'
S'AAPPP'
tp305
F1
s(g131
S'NNNCCCP'
tp306
F1
s(S'VP'
p307
S'VAAPP'
tp308
F1
s(S'DP'
S'ADVDNP'
tp309
F9
s(S'VP'
S'VVPP'
tp310
F31
s(S'VP'
S'VADVAPP'
tp311
F1
s(S'DP'
S'AAADVP'
tp312
F1
s(S'DP'
S'ADADVPP'
tp313
F1
s(S'MP'
S'MVPP'
tp314
F38
s(S'DP'
S'ADVP'
tp315
F9
s(S'CP'
p316
S'CDDPPP'
tp317
F13
s(S'PP'
S'PPAVVP'
tp318
F1
s(S'PP'
S'PPPAP'
tp319
F3
s(g97
S'NNPP'
tp320
F62
s(S'CP'
S'CCCADVDP'
tp321
F1
s(S'DP'
S'DDDDNP'
tp322
F2
s(S'MP'
S'MVVDP'
tp323
F6
s(S'DP'
S'DADVPPP'
tp324
F2
s(g46
S'PPVVP'
tp325
F5
s(S'DP'
S'DNNNP'
tp326
F12
s(g225
S'AADVAAP'
tp327
F1
s(S'MP'
S'MVADVCP'
tp328
F1
s(S'MP'
S'MPPDP'
tp329
F1
s(S'PP'
S'PADVADVVP'
tp330
F2
s(g211
S'MMADVCP'
tp331
F1
s(S'PP'
S'PMMP'
tp332
F1
s(S'PP'
S'PVVVP'
tp333
F6
s(S'PP'
S'PMP'
tp334
F32
s(S'NP'
S'NNMMP'
tp335
F1
s(S'DP'
S'DAAAVVP'
tp336
F1
s(S'PP'
p337
S'PAAPPP'
tp338
F1
s(S'CP'
S'CCDP'
tp339
F147
s(g112
S'ANNDP'
tp340
F1
s(S'MP'
S'AMVP'
tp341
F5
s(g82
S'PPNNNP'
tp342
F6
s(g19
S'AADDPP'
tp343
F5
s(g97
S'NVVVP'
tp344
F10
s(S'CP'
S'CDDDPP'
tp345
F14
s(g275
S'CDAAPP'
tp346
F9
s(S'VP'
S'VVVDP'
tp347
F8
s(S'PP'
S'PNNNP'
tp348
F22
s(S'NP'
S'ANMMP'
tp349
F1
s(S'AP'
S'AACCP'
tp350
F3
s(S'VP'
S'VVMP'
tp351
F9
s(S'CP'
S'CADADVPP'
tp352
F1
s(S'PP'
S'PADVVVP'
tp353
F1
s(g67
S'PPP'
tp354
F168
s(S'MP'
S'MNDP'
tp355
F2
s(g61
S'NAVP'
tp356
F21
s(S'NP'
S'ADVNDDDP'
tp357
F1
s(S'PP'
S'PADVAP'
tp358
F5
s(S'DP'
S'DDNNNP'
tp359
F1
s(S'VP'
S'VVVVCCP'
tp360
F1
s(S'MP'
S'MNNANP'
tp361
F1
s(S'MP'
p362
S'MACCP'
tp363
F1
s(S'DP'
S'ADVDVP'
tp364
F7
s(S'PP'
p365
S'PPAAVVP'
tp366
F1
s(S'NP'
S'NADVVVP'
tp367
F4
s(S'PP'
S'PPPPDP'
tp368
F1
s(S'DP'
S'ADPP'
tp369
F95
s(S'VP'
S'VAAAAP'
tp370
F1
s(g307
S'VPP'
tp371
F261
s(S'CP'
S'ACCDP'
tp372
F7
s(S'DP'
S'ADVDDNP'
tp373
F1
s(S'NP'
S'NNNCP'
tp374
F24
s(S'PP'
p375
S'PADVDP'
tp376
F7
s(S'CP'
S'CDADVAPP'
tp377
F1
s(S'CP'
S'CDDDPPP'
tp378
F2
s(S'DP'
S'DANNP'
tp379
F1
s(S'MP'
S'MADVVAP'
tp380
F4
s(g316
S'CDDPP'
tp381
F110
s(g290
S'DAAPP'
tp382
F15
s(g82
S'PVVP'
tp383
F41
s(S'CP'
S'CADPPP'
tp384
F7
s(S'AP'
S'AACP'
tp385
F17
s(S'VP'
S'ADVVCP'
tp386
F5
s(S'MP'
S'MCCDP'
tp387
F1
s(S'VP'
S'VPPP'
tp388
F19
s(S'VP'
S'AVCCP'
tp389
F1
s(S'VP'
S'VVPPP'
tp390
F3
s(S'CP'
S'CAADADVADVPP'
tp391
F1
s(S'PP'
S'PPAP'
tp392
F18
s(S'DP'
p393
S'DVVP'
tp394
F64
s(S'PP'
S'PADVAVP'
tp395
F1
s(S'CP'
S'CADVADVDAPP'
tp396
F1
s(S'CP'
S'CDDAAPP'
tp397
F1
s(S'MP'
S'AMMVP'
tp398
F1
s(S'NP'
S'ANMP'
tp399
F12
s(S'AP'
p400
S'APPP'
tp401
F9
s(S'PP'
S'ADVPPP'
tp402
F1
s(S'NP'
S'ADVADVNVP'
tp403
F2
s(S'VP'
p404
S'VVVP'
tp405
F13
s(S'CP'
S'CADVDPP'
tp406
F37
s(S'VP'
S'ADVADVVCCP'
tp407
F1
s(S'PP'
S'AAPNNP'
tp408
F1
s(S'VP'
S'AAAAAVNNP'
tp409
F1
s(S'NP'
S'ANCP'
tp410
F88
s(g121
S'DCP'
tp411
F49
s(S'NP'
S'ANNCP'
tp412
F9
s(S'DP'
S'DDDNNP'
tp413
F1
s(S'PP'
p414
S'PPADVPP'
tp415
F1
s(S'PP'
S'ADVADVADVPPNP'
tp416
F1
s(g19
S'DDDP'
tp417
F25
s(g84
S'ADVMCP'
tp418
F1
s(S'DP'
S'DDADVPP'
tp419
F3
s(S'MP'
S'MAADP'
tp420
F4
s(S'NP'
p421
S'ANVVP'
tp422
F5
s(S'VP'
p423
S'VVDP'
tp424
F74
s(g131
S'NPPP'
tp425
F39
s(S'NP'
S'NAAAAP'
tp426
F1
s(S'VP'
S'ADVVNNNP'
tp427
F2
s(g144
S'AADVVP'
tp428
F1
s(S'DP'
S'DAVP'
tp429
F29
s(S'VP'
S'AVVVP'
tp430
F1
s(S'NP'
p431
S'NNNMP'
tp432
F5
s(S'AP'
S'ACP'
tp433
F96
s(S'PP'
S'AAPAP'
tp434
F1
s(g298
S'PAAAPP'
tp435
F1
s(S'NP'
S'NDDDDP'
tp436
F1
s(S'PP'
p437
S'PPNP'
tp438
F97
s(S'AP'
S'ADVACCP'
tp439
F2
s(S'NP'
S'NAADP'
tp440
F1
s(S'DP'
S'ADVDAPP'
tp441
F1
s(S'DP'
S'AADVP'
tp442
F3
s(S'VP'
S'VVVVNNP'
tp443
F1
s(S'VP'
S'VAANNP'
tp444
F1
s(S'AP'
S'ADVAAVP'
tp445
F1
s(S'VP'
p446
S'AAAAVDDP'
tp447
F1
s(S'CP'
S'CDDADVPP'
tp448
F2
s(g316
S'CCCDDP'
tp449
F1
s(g400
S'ADP'
tp450
F637
s(S'NP'
p451
S'NAMMP'
tp452
F1
s(S'DP'
S'DDAVP'
tp453
F5
s(g337
S'APVVP'
tp454
F3
s(S'MP'
S'MCCADVADP'
tp455
F1
s(S'NP'
S'NNDDDP'
tp456
F1
s(S'NP'
S'AAANNCP'
tp457
F1
s(S'DP'
S'DVVVVP'
tp458
F2
s(S'VP'
S'AAAVDP'
tp459
F1
s(S'VP'
S'AVDP'
tp460
F30
s(g423
S'VVAP'
tp461
F21
s(S'MP'
S'MNADVVP'
tp462
F1
s(S'VP'
S'AVMP'
tp463
F1
s(S'NP'
S'ADVNACCP'
tp464
F1
s(g189
S'PADVADVDP'
tp465
F1
s(S'PP'
S'PAAAANP'
tp466
F1
s(g102
S'AAVCP'
tp467
F2
s(S'NP'
S'AANNVVP'
tp468
F1
s(S'NP'
p469
S'NPP'
tp470
F409
s(S'VP'
S'ADVADVVAP'
tp471
F4
s(g131
S'NVP'
tp472
F815
s(S'CP'
S'ADVCCDDP'
tp473
F1
s(S'VP'
S'VVNNNNP'
tp474
F1
s(S'VP'
S'VDDP'
tp475
F65
s(S'DP'
S'DAPPP'
tp476
F3
s(S'PP'
S'APMMP'
tp477
F1
s(S'AP'
S'AAADVDP'
tp478
F2
s(S'NP'
S'AANNVP'
tp479
F1
s(S'NP'
S'AANVVP'
tp480
F2
s(S'DP'
S'DADVAPP'
tp481
F1
s(S'NP'
S'NADVADVVVP'
tp482
F2
s(S'NP'
S'ANPP'
tp483
F46
s(S'PP'
S'PPPPP'
tp484
F9
s(S'MP'
S'MPDP'
tp485
F13
s(S'MP'
S'MVVPP'
tp486
F1
s(S'AP'
S'AMMP'
tp487
F2
s(g375
S'PPPNP'
tp488
F3
s(S'NP'
S'NPPPP'
tp489
F1
s(S'DP'
S'ADDP'
tp490
F5
s(S'MP'
S'MVAADP'
tp491
F1
s(S'DP'
S'ADVADVADVDDAAPP'
tp492
F1
s(S'CP'
S'CAADPP'
tp493
F14
s(S'DP'
p494
S'DADVADVVP'
tp495
F1
s(g131
S'NAACP'
tp496
F6
s(g82
S'PNNP'
tp497
F124
s(S'CP'
S'CDADVADVADVPPP'
tp498
F1
s(S'PP'
S'APNNP'
tp499
F1
s(S'DP'
S'DDAAP'
tp500
F1
s(S'MP'
S'MMNP'
tp501
F1
s(g421
S'NCCCCCP'
tp502
F1
s(S'DP'
S'AAADPP'
tp503
F3
s(S'VP'
S'AVAP'
tp504
F6
s(S'MP'
S'MMVP'
tp505
F19
s(S'PP'
S'PADVDDP'
tp506
F1
s(g131
S'NNNNNPPPP'
tp507
F1
s(g266
S'ADVNCP'
tp508
F12
s(S'DP'
S'DDADVADVPP'
tp509
F2
s(S'PP'
S'PPAADP'
tp510
F1
s(S'MP'
S'MPDDP'
tp511
F2
s(S'VP'
S'VAPPP'
tp512
F2
s(S'CP'
S'ACDP'
tp513
F45
s(S'NP'
S'NNDP'
tp514
F27
s(S'AP'
S'ADVANP'
tp515
F3
s(S'NP'
S'NNACP'
tp516
F2
s(S'MP'
S'MDNNP'
tp517
F2
s(S'CP'
S'CDADVPPP'
tp518
F2
s(g404
S'VAP'
tp519
F306
s(S'VP'
S'VVVVNP'
tp520
F1
s(S'MP'
p521
S'MNVVP'
tp522
F3
s(g269
S'APPVVVP'
tp523
F1
s(S'DP'
S'DDDPP'
tp524
F14
s(S'CP'
S'ADVCDDP'
tp525
F1
s(S'NP'
S'AANNCP'
tp526
F7
s(g414
S'ADVPMP'
tp527
F1
s(g19
S'DDDPPPP'
tp528
F1
s(S'MP'
S'MVVVDP'
tp529
F2
s(S'MP'
S'MNMP'
tp530
F5
s(S'MP'
S'MAVPP'
tp531
F2
s(S'NP'
S'NNPPPPP'
tp532
F1
s(S'DP'
S'DDDPPP'
tp533
F2
s(S'VP'
S'ADVAVDP'
tp534
F1
s(g156
S'DADVDP'
tp535
F3
s(S'NP'
S'ADVANADVCP'
tp536
F1
s(S'CP'
S'CCADVADP'
tp537
F2
s(S'PP'
S'AAAPPANP'
tp538
F1
s(S'AP'
S'AAACP'
tp539
F1
s(S'VP'
S'AVVAP'
tp540
F1
s(S'VP'
S'ADVVVDP'
tp541
F1
s(S'PP'
S'PAAMP'
tp542
F1
s(S'NP'
S'ADVANVVP'
tp543
F1
s(S'PP'
S'PPPVP'
tp544
F8
s(S'VP'
S'VVVVNNNP'
tp545
F1
s(S'AP'
S'AADDP'
tp546
F5
s(S'VP'
S'AAAAVPP'
tp547
F1
s(S'VP'
S'VADVADVADVCP'
tp548
F1
s(g252
S'VAANP'
tp549
F5
s(S'MP'
S'MADVADVADVVNP'
tp550
F1
s(S'MP'
S'MNAP'
tp551
F8
s(S'NP'
S'NVVVVP'
tp552
F3
s(S'DP'
p553
S'DADVADVDP'
tp554
F1
s(S'MP'
S'MPNP'
tp555
F13
s(S'MP'
S'MADP'
tp556
F13
s(S'PP'
S'PPPDDP'
tp557
F1
s(S'AP'
S'AAAAAP'
tp558
F1
s(S'CP'
S'CCAADP'
tp559
F1
s(S'DP'
S'DDADVNP'
tp560
F1
s(g437
S'PANP'
tp561
F48
s(S'PP'
p562
S'PDDDP'
tp563
F6
s(S'NP'
S'ANNMP'
tp564
F1
s(S'DP'
S'ADVADPP'
tp565
F6
s(S'NP'
S'AANMP'
tp566
F5
s(S'AP'
S'AAVP'
tp567
F8
s(S'NP'
S'NAAP'
tp568
F20
s(S'NP'
S'NDDP'
tp569
F25
s(S'DP'
S'ADVADVDPPP'
tp570
F2
s(g195
S'ACCP'
tp571
F10
s(S'VP'
S'AVPPP'
tp572
F1
s(g469
S'NDP'
tp573
F195
s(S'MP'
S'MVAAP'
tp574
F1
s(S'DP'
S'DDVP'
tp575
F43
s(S'NP'
S'NNAAAAP'
tp576
F1
s(S'PP'
S'PPADVANP'
tp577
F1
s(S'CP'
S'CADVDDAPP'
tp578
F1
s(S'PP'
S'PAMP'
tp579
F1
s(S'VP'
S'VNNNP'
tp580
F8
s(S'CP'
S'CDADVADVPP'
tp581
F1
s(g437
S'APPNP'
tp582
F7
s(g131
S'NNPPP'
tp583
F4
s(S'PP'
S'PPVVVP'
tp584
F1
s(g82
S'PAADP'
tp585
F5
s(S'NP'
S'ADVNNVP'
tp586
F1
s(S'MP'
S'MNAAP'
tp587
F1
s(g236
S'MDNP'
tp588
F15
s(S'DP'
p589
S'DDDDAPPP'
tp590
F1
s(S'VP'
S'VPPPP'
tp591
F1
s(S'VP'
S'ADVAVCP'
tp592
F1
s(S'VP'
S'VCCP'
tp593
F28
s(S'MP'
S'MPAP'
tp594
F2
s(S'MP'
S'MVNNNP'
tp595
F3
s(g131
S'NNNDP'
tp596
F4
s(S'AP'
S'ADVACP'
tp597
F6
s(S'NP'
S'AANVVVP'
tp598
F1
s(S'NP'
S'ADVADVNMP'
tp599
F1
s(g269
S'PAPPP'
tp600
F3
s(S'DP'
S'ADPPP'
tp601
F8
s(S'MP'
S'MVCP'
tp602
F17
s(S'CP'
S'CCDDP'
tp603
F15
s(S'NP'
S'NNADVVP'
tp604
F6
s(S'NP'
S'NNNVVP'
tp605
F1
s(g244
S'DAAAAVP'
tp606
F1
s(g38
S'MVMP'
tp607
F2
s(S'NP'
S'ADVANAP'
tp608
F1
s(S'VP'
S'VAMP'
tp609
F1
s(S'PP'
S'PPAAP'
tp610
F3
s(S'NP'
S'NNNNVP'
tp611
F1
s(S'VP'
S'VVCP'
tp612
F43
s(S'MP'
S'MVAANP'
tp613
F1
s(S'DP'
S'ADVDMP'
tp614
F1
s(S'NP'
p615
S'AANCP'
tp616
F12
s(S'VP'
S'VADVNP'
tp617
F8
s(S'NP'
S'AANVP'
tp618
F6
s(S'PP'
S'PAAADP'
tp619
F1
s(S'NP'
S'NNDDP'
tp620
F3
s(S'MP'
S'MNNPP'
tp621
F2
s(S'VP'
p622
S'ADVVPP'
tp623
F12
s(S'VP'
S'VVADVANP'
tp624
F2
s(S'MP'
S'MAPPP'
tp625
F1
s(S'CP'
S'CDAPPP'
tp626
F1
s(g252
S'VNNP'
tp627
F70
s(S'AP'
S'AADVDP'
tp628
F1
s(S'NP'
p629
S'NADP'
tp630
F4
s(S'PP'
S'AAAPPP'
tp631
F1
s(g290
S'DDNP'
tp632
F65
s(S'CP'
S'ACADVDP'
tp633
F1
s(g78
S'NADVCP'
tp634
F8
s(g123
S'DDNNP'
tp635
F10
s(S'DP'
S'ADDVP'
tp636
F1
s(S'PP'
S'AAPPP'
tp637
F3
s(g176
S'ADVANVP'
tp638
F3
s(S'PP'
S'APCP'
tp639
F1
s(S'NP'
S'ADVADVANPP'
tp640
F1
s(S'NP'
S'AANAAP'
tp641
F1
s(S'NP'
S'ADVNACP'
tp642
F1
s(S'AP'
S'ADVADDP'
tp643
F1
s(S'DP'
S'AADPP'
tp644
F19
s(g446
S'AAVMP'
tp645
F1
s(S'MP'
S'MAAACDP'
tp646
F1
s(S'PP'
S'ADVPAP'
tp647
F2
s(S'MP'
S'MADVADVAPP'
tp648
F1
s(S'CP'
S'CDAADVPPP'
tp649
F1
s(S'MP'
S'MAVAP'
tp650
F1
s(S'AP'
S'AAMMP'
tp651
F1
s(S'DP'
S'DADVADVAP'
tp652
F1
s(S'MP'
S'MVVNP'
tp653
F6
s(S'CP'
S'CAAADDPP'
tp654
F1
s(S'DP'
S'ADVDNNP'
tp655
F1
s(S'CP'
S'ACDDP'
tp656
F2
s(S'AP'
S'AAPP'
tp657
F12
s(S'VP'
S'VVCCP'
tp658
F4
s(S'DP'
S'DMMP'
tp659
F1
s(S'PP'
S'PCP'
tp660
F37
s(S'DP'
S'DAAAPP'
tp661
F5
s(S'VP'
S'VADVADP'
tp662
F1
s(g629
S'NAPP'
tp663
F14
s(S'PP'
S'APPVP'
tp664
F3
s(S'AP'
S'ADVADVADP'
tp665
F2
s(S'NP'
S'NADVDP'
tp666
F5
s(g19
S'DDNNNNNP'
tp667
F2
s(S'MP'
S'MVADVADVAP'
tp668
F1
s(S'VP'
S'VVVCP'
tp669
F2
s(g94
S'CDAAAPPP'
tp670
F1
s(S'DP'
S'DAMP'
tp671
F1
s(S'NP'
S'ADVNCCP'
tp672
F1
s(S'VP'
S'VDDDP'
tp673
F3
s(g266
S'NNMP'
tp674
F32
s(S'DP'
S'DDDVP'
tp675
F7
s(S'CP'
S'CADDPP'
tp676
F3
s(S'MP'
S'MAPDP'
tp677
F1
s(S'PP'
S'PAAAP'
tp678
F1
s(S'PP'
S'ADVADVPNP'
tp679
F3
s(S'MP'
S'MDANP'
tp680
F3
s(S'VP'
S'ADVAVNNP'
tp681
F1
s(S'CP'
S'CDDAPP'
tp682
F4
s(S'NP'
S'ANAP'
tp683
F7
s(S'MP'
S'MVAP'
tp684
F31
s(S'VP'
S'VADVADVDDP'
tp685
F1
s(g67
S'PVP'
tp686
F448
s(S'MP'
S'MAANVP'
tp687
F1
s(S'AP'
S'ADVADVAPP'
tp688
F2
s(S'MP'
S'ADVMVP'
tp689
F2
s(g158
S'MADVADVVCP'
tp690
F1
s(S'NP'
p691
S'ADVNAVP'
tp692
F1
s(S'VP'
S'AAAVVPP'
tp693
F1
s(S'DP'
S'DVVVP'
tp694
F6
s(S'VP'
p695
S'VVAAVP'
tp696
F1
s(S'MP'
S'MVADVNP'
tp697
F2
s(S'PP'
S'PAAAAAVP'
tp698
F1
s(S'DP'
S'ADVADVADVDNP'
tp699
F1
s(S'PP'
S'PACP'
tp700
F3
s(g365
S'PPDDP'
tp701
F6
s(S'VP'
S'AVCP'
tp702
F9
s(S'NP'
S'NADVADVAP'
tp703
F1
s(S'PP'
p704
S'ADVADVPDDP'
tp705
F1
s(S'DP'
S'ADVDADVAVP'
tp706
F1
s(g19
S'DPP'
tp707
F1152
s(S'NP'
S'ADVNVP'
tp708
F16
s(g19
S'DDPP'
tp709
F169
s(g393
S'DANP'
tp710
F81
s(S'AP'
S'ADVAMP'
tp711
F2
s(S'NP'
p712
S'NADVPP'
tp713
F8
s(S'PP'
S'ADVADVPPNP'
tp714
F1
s(S'DP'
S'DDADVADVADVPP'
tp715
F1
s(g131
S'NNAAVVP'
tp716
F3
s(g337
S'AAPPVP'
tp717
F1
s(g712
S'NAAVP'
tp718
F6
s(S'DP'
S'ADVADVADPP'
tp719
F2
s(S'DP'
S'DAADVPPP'
tp720
F1
s(S'PP'
S'APADVDDP'
tp721
F1
s(S'DP'
S'AADNP'
tp722
F8
s(S'DP'
S'ADVDDAPP'
tp723
F1
s(S'NP'
p724
S'NNAPPP'
tp725
F1
s(S'VP'
p726
S'VADVCP'
tp727
F4
s(S'AP'
S'ADVADVACP'
tp728
F1
s(S'NP'
S'NNNNDDP'
tp729
F1
s(g615
S'NNNNCP'
tp730
F6
s(g691
S'NADVCCP'
tp731
F1
s(S'PP'
S'PPAANNP'
tp732
F2
s(S'NP'
S'AANNDP'
tp733
F2
s(S'NP'
S'ADVNMMP'
tp734
F1
s(g316
S'AACDDDP'
tp735
F1
s(S'DP'
S'DCCP'
tp736
F8
s(g19
S'AADDP'
tp737
F1
s(g256
S'AAPDP'
tp738
F3
s(S'MP'
S'MADVVDP'
tp739
F7
s(S'DP'
S'DADVAP'
tp740
F2
s(S'PP'
S'PDDP'
tp741
F51
s(g521
S'MVDDP'
tp742
F7
s(S'PP'
S'ADVAPNP'
tp743
F1
s(g153
S'NNNADVVP'
tp744
F3
s(S'NP'
S'AAAANCP'
tp745
F1
s(g131
S'NNVP'
tp746
F99
s(S'MP'
S'MDADVNP'
tp747
F1
s(g562
S'APAAP'
tp748
F1
s(S'NP'
S'NNP'
tp749
F9
s(g59
S'VVDDP'
tp750
F3
s(S'DP'
S'DDADVAAP'
tp751
F1
s(g494
S'DAANP'
tp752
F19
s(g131
S'AANCCCP'
tp753
F1
s(S'AP'
S'ADDP'
tp754
F43
s(g67
S'PNNNNP'
tp755
F4
s(S'PP'
S'ADVPPNP'
tp756
F3
s(S'NP'
S'NNADVADVVP'
tp757
F4
s(S'MP'
S'MDAP'
tp758
F2
s(S'CP'
S'CADVADVDPP'
tp759
F5
s(S'CP'
S'ADVADVADVCDP'
tp760
F1
s(g19
S'DPPP'
tp761
F174
s(S'NP'
S'NADVADVAAP'
tp762
F1
s(S'DP'
S'DAVVP'
tp763
F2
s(S'DP'
p764
S'AADPPP'
tp765
F1
s(S'VP'
S'VANNP'
tp766
F3
s(g451
S'NNAAPP'
tp767
F2
s(S'VP'
S'AVVCP'
tp768
F1
s(S'AP'
S'AVVP'
tp769
F2
s(S'PP'
S'PPPANP'
tp770
F1
s(S'PP'
S'ADVPNP'
tp771
F13
s(g82
S'PPDP'
tp772
F55
s(S'VP'
S'ADVVANNP'
tp773
F1
s(S'MP'
S'MAVDP'
tp774
F2
s(S'NP'
p775
S'ANAPPP'
tp776
F1
s(S'DP'
S'ADVDCP'
tp777
F1
s(S'AP'
S'ADVADVAACP'
tp778
F1
s(S'VP'
S'VAADP'
tp779
F6
s(g362
S'MVVAP'
tp780
F1
s(S'DP'
S'DDCP'
tp781
F1
s(S'CP'
S'CCADVADVDDP'
tp782
F1
s(S'PP'
S'PAANNP'
tp783
F8
s(S'AP'
S'ANNP'
tp784
F1
s(S'MP'
S'MNCCP'
tp785
F1
s(S'MP'
S'AAMDP'
tp786
F1
s(g469
S'NAP'
tp787
F220
s(S'NP'
S'NNAAP'
tp788
F2
s(g281
S'VAAAP'
tp789
F1
s(S'NP'
S'NAAAPP'
tp790
F1
s(S'VP'
S'VVP'
tp791
F70
s(S'NP'
S'NNVVP'
tp792
F18
s(S'AP'
S'AAADP'
tp793
F9
s(g256
S'APNP'
tp794
F33
s(S'VP'
S'VVVNNP'
tp795
F1
s(S'DP'
S'DDDAPP'
tp796
F1
s(S'DP'
S'DDVVP'
tp797
F4
s(S'AP'
S'AAADDP'
tp798
F1
s(g252
S'VVVNP'
tp799
F15
s(S'MP'
S'MNPP'
tp800
F5
s(S'NP'
S'AANADVAP'
tp801
F1
s(S'CP'
S'CDDADVADVADVPP'
tp802
F1
s(g431
S'NAMP'
tp803
F5
s(S'MP'
S'MVANP'
tp804
F7
s(S'DP'
S'ADVADVDDPP'
tp805
F2
s(S'MP'
S'MVNNP'
tp806
F10
s(g316
S'CDPP'
tp807
F993
s(S'PP'
S'PAAAADP'
tp808
F2
s(S'AP'
S'ADDDP'
tp809
F4
s(S'NP'
S'NNADVADVVVP'
tp810
F1
s(S'DP'
S'ADVDVVP'
tp811
F2
s(g775
S'ANNAP'
tp812
F1
s(S'CP'
S'ADVCDP'
tp813
F15
s(g262
S'ADVADVVNP'
tp814
F7
s(S'DP'
S'AAADDPP'
tp815
F1
s(S'NP'
p816
S'NNNNPPP'
tp817
F1
s(g156
S'DAAAADP'
tp818
F1
s(g165
S'ADVADVVCP'
tp819
F2
s(S'VP'
S'VADVADVDP'
tp820
F1
s(g82
S'PPNNP'
tp821
F19
s(S'CP'
S'CCCCCADDP'
tp822
F1
s(S'MP'
S'MPPNP'
tp823
F1
s(S'CP'
S'CAADDPP'
tp824
F4
s(g553
S'ADVADVDPP'
tp825
F7
s(g252
S'VDP'
tp826
F598
s(g43
S'PPPADVNP'
tp827
F1
s(S'NP'
S'NADVAP'
tp828
F3
s(S'VP'
S'AVDDP'
tp829
F3
s(S'DP'
S'DADVNP'
tp830
F14
s(g589
S'DAP'
tp831
F77
s(S'MP'
S'MCADVDP'
tp832
F2
s(S'CP'
S'CADPP'
tp833
F70
s(S'MP'
S'MDDANP'
tp834
F1
s(S'NP'
S'NADVAVP'
tp835
F1
s(S'PP'
S'PPAVP'
tp836
F4
s(S'VP'
S'VVDDDDP'
tp837
F1
s(g726
S'AAVVAP'
tp838
F1
s(S'PP'
S'PPDDDP'
tp839
F1
s(g100
S'AVPP'
tp840
F8
s(S'CP'
p841
S'CAADPPP'
tp842
F1
s(S'MP'
S'AMVVP'
tp843
F1
s(S'CP'
S'CDPPPP'
tp844
F14
s(g695
S'AAVDP'
tp845
F8
s(S'PP'
S'PANNP'
tp846
F8
s(S'DP'
S'AADADVADVPP'
tp847
F1
s(S'VP'
S'VACCP'
tp848
F2
s(S'PP'
S'APPP'
tp849
F11
s(S'PP'
S'AADVPPAVP'
tp850
F1
s(S'DP'
S'DADVADVPP'
tp851
F2
s(S'DP'
S'DMP'
tp852
F12
s(S'DP'
S'ADVDPP'
tp853
F53
s(S'PP'
S'PADVADVNP'
tp854
F3
s(S'AP'
S'AADP'
tp855
F100
s(S'VP'
S'VADVPP'
tp856
F1
s(S'DP'
S'DDAAPP'
tp857
F1
s(S'NP'
S'NNADVADVAP'
tp858
F1
s(g115
S'ADVPVP'
tp859
F19
s(S'DP'
S'DDDDPP'
tp860
F6
s(S'VP'
S'AAVVNP'
tp861
F1
s(S'AP'
S'ADVADVAVP'
tp862
F1
s(S'NP'
S'NNNNNCCP'
tp863
F1
s(g131
S'NNVVVP'
tp864
F2
s(S'VP'
S'ADVVANP'
tp865
F6
s(g252
S'AAVVNNNP'
tp866
F1
s(S'PP'
S'ADVPDP'
tp867
F10
s(S'PP'
S'PAAVP'
tp868
F8
s(S'NP'
S'ANNPP'
tp869
F3
s(S'MP'
S'MVADVAP'
tp870
F3
s(g131
S'NCP'
tp871
F752
s(g231
S'ADVADVVVPP'
tp872
F1
s(g841
S'CADVDPPP'
tp873
F2
s(S'VP'
S'ADVVVPP'
tp874
F1
s(S'PP'
S'PPADVNNP'
tp875
F1
s(S'PP'
S'AAAPNP'
tp876
F1
s(g56
S'ADVANDP'
tp877
F2
s(S'AP'
S'AAAP'
tp878
F6
s(S'CP'
S'CDDADVADVPP'
tp879
F1
s(S'CP'
S'CDADVPP'
tp880
F17
s(S'AP'
p881
S'AAMP'
tp882
F5
s(S'VP'
S'VADVADVADVDP'
tp883
F1
s(S'PP'
S'PPAAAP'
tp884
F1
s(g704
S'ADVPDDP'
tp885
F1
s(S'DP'
S'AAAADNP'
tp886
F1
s(S'VP'
S'AAVVDP'
tp887
F1
s(g216
S'AANDP'
tp888
F4
s(g724
S'NNCCP'
tp889
F19
s(S'MP'
S'MNVP'
tp890
F44
s(g816
S'AANAP'
tp891
F5
s(S'NP'
S'AANCCP'
tp892
F1
s(S'VP'
S'VAPP'
tp893
F7
s(S'MP'
S'MADVVANP'
tp894
F1
s(S'VP'
S'ADVVDP'
tp895
F36
s(S'AP'
S'ADDDDP'
tp896
F2
s(S'VP'
S'VADDP'
tp897
F1
s(S'PP'
S'APADVNP'
tp898
F1
s(S'DP'
S'DADVPP'
tp899
F28
s(g316
S'CCCAADDP'
tp900
F1
s(S'VP'
S'VVADVAP'
tp901
F1
s(g400
S'AMP'
tp902
F50
s(S'CP'
S'CCADP'
tp903
F3
s(S'PP'
S'ADVADVADVPNP'
tp904
F1
s(S'AP'
S'ADVAPP'
tp905
F10
s(g144
S'DDADVAPP'
tp906
F1
s(S'CP'
S'CDDADVAPP'
tp907
F1
s(S'MP'
S'MNADVADVVP'
tp908
F1
s(S'CP'
S'AACDP'
tp909
F5
s(S'NP'
S'NNNCCP'
tp910
F3
s(S'CP'
S'CCDDDP'
tp911
F1
s(S'CP'
S'CCCDP'
tp912
F6
s(g764
S'ADVDPPP'
tp913
F2
s(g19
S'DVP'
tp914
F560
s(S'VP'
S'AVNNP'
tp915
F1
s(S'NP'
S'ADVNPP'
tp916
F2
s(S'VP'
S'VVAMP'
tp917
F1
s(S'CP'
S'AAACDP'
tp918
F2
s(g195
S'AVP'
tp919
F45
s(S'NP'
S'NADVVP'
tp920
F19
s(S'CP'
S'CDAAAPP'
tp921
F2
s(S'AP'
S'AACCCP'
tp922
F1
s(S'VP'
S'VVADVPPP'
tp923
F1
s(g19
S'DDPPP'
tp924
F16
s(S'NP'
S'ADVNMP'
tp925
F6
s(S'NP'
S'NNAP'
tp926
F33
s(S'MP'
S'MADVVCP'
tp927
F2
s(S'PP'
S'PPANP'
tp928
F2
s(g881
S'AADVMP'
tp929
F2
s(g252
S'VNP'
tp930
F568
s(S'VP'
S'VANP'
tp931
F45
s(S'MP'
S'MAANCP'
tp932
F1
s(g622
S'VADVAP'
tp933
F22
s(S'PP'
S'PPADVNP'
tp934
F2
s(S'DP'
S'DDDDVP'
tp935
F2
s(S'VP'
S'ADVADVVVDP'
tp936
F2
s(S'DP'
S'AADDVP'
tp937
F1
s(S'NP'
S'NADVPPP'
tp938
F1
s.