ccollections
defaultdict
p1
(c__builtin__
float
p2
tRp3
(S'MP'
S'MMDP'
tp4
F4
s(S'VP'
p5
S'VVAAAP'
tp6
F1
s(S'CP'
S'CAAADPP'
tp7
F3
s(S'PP'
S'PAAANP'
tp8
F2
s(S'DP'
S'ADDPP'
tp9
F2
s(S'DP'
p10
S'DDAP'
tp11
F6
s(S'VP'
S'ADVVVNP'
tp12
F3
s(S'AP'
p13
S'AADDDP'
tp14
F5
s(S'CP'
S'CCDDDDP'
tp15
F2
s(S'NP'
S'ADVANADVVP'
tp16
F1
s(S'DP'
S'DAANNP'
tp17
F1
s(S'PP'
S'PAPP'
tp18
F6
s(S'PP'
S'PADVNP'
tp19
F25
s(S'DP'
p20
S'DNP'
tp21
F469
s(S'PP'
p22
S'APPADVVP'
tp23
F1
s(S'NP'
p24
S'ADVNDP'
tp25
F4
s(S'PP'
S'AAPDDP'
tp26
F3
s(S'NP'
S'NNNAAP'
tp27
F1
s(S'CP'
p28
S'CDPPP'
tp29
F140
s(S'DP'
S'ADVDDVP'
tp30
F1
s(S'VP'
S'VADP'
tp31
F11
s(S'DP'
S'DNNNNP'
tp32
F3
s(S'CP'
S'CDAAPPP'
tp33
F1
s(S'DP'
S'DAAP'
tp34
F7
s(S'PP'
S'PPPPPP'
tp35
F2
s(S'PP'
S'PADVADVVP'
tp36
F1
s(S'DP'
p37
S'AAADDPPP'
tp38
F1
s(S'MP'
S'MNVVVP'
tp39
F1
s(S'VP'
S'VAVP'
tp40
F1
s(S'PP'
S'APPDP'
tp41
F1
s(S'MP'
S'MDVP'
tp42
F1
s(S'VP'
p43
S'ADVVNP'
tp44
F17
s(S'MP'
S'MADVNMP'
tp45
F1
s(S'MP'
S'MVDP'
tp46
F31
s(S'VP'
S'AAADVVVAADP'
tp47
F1
s(S'PP'
p48
S'PPPP'
tp49
F42
s(S'VP'
S'VVVVDDP'
tp50
F1
s(S'AP'
S'ADVAPPP'
tp51
F1
s(S'DP'
S'DDDNP'
tp52
F6
s(S'MP'
S'MMADVVP'
tp53
F1
s(S'VP'
S'VACP'
tp54
F3
s(S'AP'
S'AAAVP'
tp55
F1
s(S'PP'
p56
S'PPAAP'
tp57
F1
s(S'DP'
S'DADVVP'
tp58
F6
s(S'MP'
S'MMCP'
tp59
F2
s(S'MP'
p60
S'MAAVNP'
tp61
F1
s(S'NP'
S'AANADVADVVVP'
tp62
F1
s(S'NP'
S'NADVACP'
tp63
F2
s(S'NP'
p64
S'NAAVVP'
tp65
F2
s(S'NP'
S'NDDDP'
tp66
F2
s(S'NP'
S'NCCCP'
tp67
F6
s(S'CP'
S'CADVDAPP'
tp68
F3
s(S'VP'
S'VCP'
tp69
F193
s(S'DP'
p70
S'ADDNNP'
tp71
F1
s(S'NP'
S'NMMP'
tp72
F7
s(S'NP'
p73
S'NANP'
tp74
F4
s(S'VP'
S'ADVVAAP'
tp75
F1
s(S'NP'
S'NNADVAP'
tp76
F1
s(S'VP'
p77
S'VVVVDP'
tp78
F3
s(S'PP'
S'ADVPADP'
tp79
F1
s(S'PP'
S'PAP'
tp80
F140
s(S'PP'
S'PPANNP'
tp81
F2
s(S'MP'
S'MMVVP'
tp82
F1
s(S'VP'
p83
S'VADVADVAP'
tp84
F3
s(S'NP'
p85
S'ANNCCP'
tp86
F2
s(S'NP'
S'NNNAP'
tp87
F4
s(S'NP'
S'ANPPP'
tp88
F1
s(S'VP'
S'ADVVCCP'
tp89
F3
s(S'PP'
S'PPADVDP'
tp90
F2
s(S'VP'
S'AAVNNP'
tp91
F2
s(S'PP'
p92
S'PNP'
tp93
F546
s(S'AP'
S'AADVADVDP'
tp94
F1
s(S'DP'
S'DDP'
tp95
F93
s(S'PP'
S'PPMMP'
tp96
F1
s(S'VP'
p97
S'ADVVDDP'
tp98
F1
s(S'NP'
p99
S'NNNPP'
tp100
F11
s(S'VP'
p101
S'VCCP'
tp102
F20
s(S'MP'
S'MCDP'
tp103
F11
s(S'PP'
S'ADVPCP'
tp104
F1
s(S'DP'
S'DDAANP'
tp105
F1
s(S'MP'
S'MNNAP'
tp106
F1
s(S'MP'
S'MNAP'
tp107
F2
s(S'NP'
S'NMP'
tp108
F183
s(S'NP'
p109
S'ADVNCCP'
tp110
F2
s(S'DP'
S'DDDDDNP'
tp111
F1
s(S'VP'
S'VAAADP'
tp112
F1
s(S'VP'
S'AAVNP'
tp113
F7
s(S'VP'
p114
S'VMMP'
tp115
F3
s(g92
S'PDP'
tp116
F387
s(S'DP'
S'DDPPPPP'
tp117
F1
s(S'PP'
S'PPADVVP'
tp118
F1
s(S'NP'
p119
S'ADVNVVP'
tp120
F1
s(S'AP'
S'AAANP'
tp121
F1
s(S'VP'
S'VNNNNP'
tp122
F1
s(S'VP'
S'VVVDDP'
tp123
F2
s(S'NP'
S'NNADVMP'
tp124
F1
s(S'NP'
S'NACCP'
tp125
F1
s(S'AP'
S'ANP'
tp126
F2
s(S'PP'
p127
S'PADVPP'
tp128
F6
s(S'VP'
S'AAVPP'
tp129
F2
s(S'VP'
p130
S'VVADVNP'
tp131
F1
s(S'MP'
p132
S'MVACP'
tp133
F1
s(S'MP'
p134
S'MMMVVP'
tp135
F2
s(S'AP'
p136
S'ADVADVAMP'
tp137
F1
s(S'DP'
p138
S'DPPPP'
tp139
F24
s(S'DP'
S'DDANP'
tp140
F4
s(S'PP'
S'PADVADP'
tp141
F2
s(S'NP'
p142
S'NACP'
tp143
F21
s(S'AP'
S'ADVAVP'
tp144
F7
s(S'NP'
p145
S'NCCP'
tp146
F118
s(S'MP'
S'MVVADVNP'
tp147
F1
s(S'AP'
S'AAAADP'
tp148
F1
s(S'NP'
p149
S'NNCP'
tp150
F163
s(S'DP'
S'ADVDDPP'
tp151
F1
s(S'NP'
S'NADVADVVP'
tp152
F4
s(S'NP'
S'NNPPPP'
tp153
F1
s(S'DP'
S'DDDDP'
tp154
F1
s(S'DP'
p155
S'DDAPP'
tp156
F2
s(S'NP'
S'ANVVVP'
tp157
F1
s(S'DP'
S'DDADVADVPPP'
tp158
F1
s(S'VP'
S'AVNP'
tp159
F20
s(S'NP'
S'ADVNDDP'
tp160
F1
s(S'PP'
S'ADVPVVP'
tp161
F2
s(S'PP'
p162
S'ADVAPDP'
tp163
F1
s(S'VP'
S'VVMP'
tp164
F1
s(S'VP'
S'VADVVP'
tp165
F2
s(S'VP'
S'VVAACP'
tp166
F1
s(S'VP'
S'ADVADVADVVNP'
tp167
F2
s(S'PP'
S'AAPPAAP'
tp168
F1
s(S'PP'
p169
S'PADVMMP'
tp170
F1
s(S'NP'
p171
S'ANADVVP'
tp172
F3
s(S'AP'
S'AAAAP'
tp173
F1
s(S'VP'
S'AVVDP'
tp174
F1
s(S'MP'
S'MADVVNNP'
tp175
F3
s(S'VP'
S'ADVVAP'
tp176
F11
s(S'VP'
S'VCCCP'
tp177
F4
s(g48
S'APDP'
tp178
F26
s(S'PP'
S'PPPAMP'
tp179
F1
s(S'PP'
S'ADVADVAPNP'
tp180
F1
s(S'NP'
S'NNNNNPP'
tp181
F1
s(S'VP'
S'ADVVNNP'
tp182
F4
s(S'AP'
S'AADVCP'
tp183
F2
s(S'DP'
S'DDANNP'
tp184
F1
s(S'VP'
p185
S'VVANP'
tp186
F5
s(S'PP'
S'PAAADVVVP'
tp187
F1
s(S'PP'
S'ADVPNNP'
tp188
F2
s(S'VP'
S'ADVVVP'
tp189
F1
s(S'AP'
S'AAAAAADP'
tp190
F1
s(S'AP'
S'AANP'
tp191
F1
s(S'MP'
S'MADVVNP'
tp192
F2
s(S'PP'
S'PAAP'
tp193
F23
s(S'MP'
S'MPNNP'
tp194
F3
s(S'NP'
p195
S'ADVANCP'
tp196
F7
s(S'DP'
p197
S'DNNP'
tp198
F119
s(S'CP'
S'CADVDDPP'
tp199
F1
s(S'DP'
S'DPPPPP'
tp200
F3
s(S'CP'
S'CDDPPPP'
tp201
F6
s(S'CP'
S'CCADVDP'
tp202
F11
s(S'VP'
S'VVNNNP'
tp203
F3
s(S'AP'
S'ADVADVAAPP'
tp204
F1
s(S'DP'
S'ADDNP'
tp205
F1
s(S'NP'
S'NNNVP'
tp206
F17
s(S'VP'
p207
S'VADVNNP'
tp208
F1
s(S'VP'
S'VVANNP'
tp209
F1
s(S'NP'
p210
S'ADVNNACP'
tp211
F2
s(S'PP'
S'PADVVP'
tp212
F8
s(S'DP'
S'DACP'
tp213
F3
s(S'PP'
S'APAP'
tp214
F1
s(S'CP'
S'ADVADVCDP'
tp215
F1
s(S'AP'
S'AAAPPP'
tp216
F1
s(S'NP'
S'NADVMP'
tp217
F1
s(S'AP'
p218
S'AAP'
tp219
F26
s(S'CP'
p220
S'CADVADPP'
tp221
F1
s(S'NP'
S'ADVADVNDP'
tp222
F2
s(S'DP'
p223
S'DADVADVNP'
tp224
F2
s(S'CP'
S'CCDDDDDDP'
tp225
F1
s(S'NP'
S'ADVANPP'
tp226
F2
s(S'NP'
S'NAAACP'
tp227
F2
s(S'DP'
S'DAAVP'
tp228
F13
s(S'CP'
S'CDDDDPP'
tp229
F4
s(S'PP'
p230
S'PAANP'
tp231
F15
s(S'NP'
p232
S'ANVP'
tp233
F31
s(S'MP'
p234
S'MVNP'
tp235
F70
s(S'DP'
S'ADVADVVVP'
tp236
F1
s(S'NP'
S'NNANP'
tp237
F1
s(S'MP'
S'MADVADVADVVAP'
tp238
F1
s(S'NP'
S'ANAAP'
tp239
F1
s(S'AP'
S'ADVAADP'
tp240
F2
s(g22
S'PAVP'
tp241
F15
s(S'MP'
S'ADVMVP'
tp242
F1
s(S'MP'
p243
S'MDANP'
tp244
F2
s(g10
S'DDAPPP'
tp245
F1
s(S'VP'
S'VVVPP'
tp246
F1
s(S'CP'
S'CADVADVADPP'
tp247
F1
s(S'NP'
p248
S'NMMMMP'
tp249
F1
s(S'NP'
p250
S'ADVADVANDP'
tp251
F1
s(S'AP'
S'ADVACCP'
tp252
F3
s(S'DP'
S'DADP'
tp253
F10
s(S'AP'
S'ADVADP'
tp254
F8
s(S'AP'
S'APP'
tp255
F39
s(S'MP'
S'MADVVADVANP'
tp256
F1
s(S'DP'
S'ADVDDP'
tp257
F1
s(S'PP'
S'APDDP'
tp258
F2
s(S'VP'
S'ADVADVVVNP'
tp259
F1
s(S'NP'
S'ADVNAP'
tp260
F3
s(S'PP'
S'PPCP'
tp261
F1
s(S'PP'
S'APVP'
tp262
F23
s(S'PP'
S'PPVVVVVP'
tp263
F1
s(S'DP'
S'DPPPPPP'
tp264
F1
s(S'MP'
p265
S'MNCP'
tp266
F4
s(g83
S'VVNP'
tp267
F66
s(g73
S'ANNP'
tp268
F1
s(S'PP'
p269
S'PPPNNP'
tp270
F3
s(S'CP'
S'ADVCCDP'
tp271
F2
s(g48
S'PPVP'
tp272
F55
s(S'MP'
S'MAPDDP'
tp273
F1
s(S'VP'
S'VADVDP'
tp274
F9
s(S'MP'
S'MPADP'
tp275
F1
s(S'MP'
S'ADVMADVVP'
tp276
F1
s(S'VP'
p277
S'VAAP'
tp278
F35
s(S'NP'
S'ANDP'
tp279
F15
s(S'NP'
p280
S'NVVP'
tp281
F87
s(S'PP'
S'AAPVP'
tp282
F3
s(S'VP'
p283
S'VMP'
tp284
F42
s(g277
S'VVNNP'
tp285
F13
s(S'CP'
S'CDAPP'
tp286
F30
s(S'VP'
S'VVAAP'
tp287
F5
s(S'VP'
p288
S'AAAAVCP'
tp289
F1
s(S'VP'
S'ADVADVVVNNP'
tp290
F1
s(S'DP'
p291
S'ADNP'
tp292
F18
s(S'DP'
S'ADVADVDDAPP'
tp293
F1
s(S'MP'
S'MNNNCP'
tp294
F1
s(S'CP'
S'ACCDP'
tp295
F1
s(S'PP'
S'PADP'
tp296
F19
s(S'DP'
S'DDAAAPP'
tp297
F1
s(S'VP'
p298
S'ADVVVCP'
tp299
F3
s(S'AP'
S'AAAACP'
tp300
F1
s(S'NP'
p301
S'ANDDP'
tp302
F1
s(S'PP'
S'PPPNNNNNP'
tp303
F1
s(S'DP'
S'ADVADVDVP'
tp304
F1
s(S'DP'
S'DADVAP'
tp305
F3
s(S'PP'
S'ADVADVPMP'
tp306
F1
s(S'DP'
S'ADVADVADVDNP'
tp307
F1
s(S'VP'
S'AVVP'
tp308
F1
s(S'VP'
S'ADVADVVPP'
tp309
F1
s(S'VP'
S'VADVAAP'
tp310
F1
s(S'VP'
S'ADVADVADVVDP'
tp311
F1
s(S'PP'
p312
S'AAAPVP'
tp313
F4
s(S'VP'
S'ADVADVVDP'
tp314
F3
s(g5
S'AVVNP'
tp315
F1
s(S'PP'
S'PPPDP'
tp316
F5
s(S'DP'
S'ADVDDNP'
tp317
F1
s(S'DP'
S'DAAPPP'
tp318
F2
s(S'MP'
S'MVVAP'
tp319
F3
s(S'NP'
S'NNNCCCP'
tp320
F1
s(S'VP'
S'VDDDDP'
tp321
F1
s(S'DP'
S'DAAANP'
tp322
F1
s(S'DP'
S'DDADVADP'
tp323
F1
s(S'DP'
S'DADVANP'
tp324
F2
s(S'VP'
S'VAAPP'
tp325
F1
s(S'NP'
p326
S'NADVADVAPP'
tp327
F1
s(S'DP'
S'ADVDNP'
tp328
F10
s(S'PP'
S'PPPPANP'
tp329
F1
s(S'VP'
S'VVPP'
tp330
F17
s(g195
S'AAAANVP'
tp331
F1
s(S'NP'
S'NNAACP'
tp332
F1
s(S'DP'
S'ADADVPP'
tp333
F1
s(S'PP'
S'PAVVP'
tp334
F1
s(S'MP'
S'MVPP'
tp335
F20
s(S'DP'
p336
S'ADVP'
tp337
F14
s(S'MP'
S'MVADP'
tp338
F1
s(S'MP'
p339
S'MDAAP'
tp340
F1
s(S'CP'
S'CDDPPP'
tp341
F18
s(S'NP'
S'NNADVADVAP'
tp342
F1
s(S'NP'
S'NNNNNCCP'
tp343
F1
s(S'NP'
S'AANCCP'
tp344
F4
s(S'CP'
S'CCCADVDP'
tp345
F1
s(S'MP'
S'MVVDP'
tp346
F6
s(S'CP'
S'CDDDDPPP'
tp347
F2
s(S'PP'
S'PPVVP'
tp348
F4
s(S'VP'
S'AAAVDDP'
tp349
F1
s(S'DP'
S'DNNNP'
tp350
F21
s(S'PP'
S'PADVNNP'
tp351
F2
s(S'VP'
p352
S'VADVADVPPP'
tp353
F1
s(S'NP'
S'ANNDP'
tp354
F1
s(S'VP'
S'VADVDDP'
tp355
F1
s(S'VP'
S'ADVVCP'
tp356
F1
s(S'PP'
S'PVVVP'
tp357
F7
s(S'PP'
S'PMP'
tp358
F24
s(S'NP'
S'NNMMP'
tp359
F2
s(S'CP'
S'CCDP'
tp360
F172
s(S'NP'
p361
S'ADVNNDP'
tp362
F1
s(S'DP'
S'ADVADVADVDPP'
tp363
F1
s(S'MP'
S'MDAP'
tp364
F1
s(S'MP'
S'AMVP'
tp365
F8
s(S'PP'
p366
S'PPNNNP'
tp367
F4
s(S'NP'
S'NVVVP'
tp368
F15
s(S'CP'
S'CDDDPP'
tp369
F11
s(S'CP'
S'CDAAPP'
tp370
F17
s(S'VP'
S'VVVDP'
tp371
F14
s(S'PP'
S'PNNNP'
tp372
F22
s(S'CP'
S'CCCCDP'
tp373
F1
s(S'NP'
p374
S'ANMMP'
tp375
F1
s(S'VP'
S'VVADVADVNP'
tp376
F1
s(S'AP'
S'AACCP'
tp377
F3
s(S'PP'
p378
S'AAPNP'
tp379
F6
s(S'PP'
S'AAPADVDP'
tp380
F1
s(g269
S'PADVVVP'
tp381
F1
s(S'PP'
p382
S'PPP'
tp383
F131
s(S'NP'
p384
S'NNADVDP'
tp385
F1
s(g145
S'NAVP'
tp386
F23
s(S'PP'
p387
S'PADVAP'
tp388
F3
s(S'MP'
S'AMDP'
tp389
F1
s(g378
S'PADDP'
tp390
F2
s(S'VP'
S'AAVVP'
tp391
F1
s(S'DP'
S'ADVDVP'
tp392
F5
s(S'NP'
S'NAAAP'
tp393
F2
s(S'NP'
S'NADVVVP'
tp394
F5
s(S'NP'
p395
S'NNNNNADVVP'
tp396
F1
s(S'DP'
S'DADVADVPPP'
tp397
F1
s(S'AP'
S'AADVVP'
tp398
F1
s(S'PP'
p399
S'PPPPDP'
tp400
F3
s(S'DP'
p401
S'ADVADVDNP'
tp402
F2
s(S'VP'
S'VPP'
tp403
F195
s(g132
S'MVADDP'
tp404
F1
s(S'DP'
S'ADVDDPPP'
tp405
F1
s(g298
S'VADVADVADDP'
tp406
F1
s(S'NP'
S'NNNCP'
tp407
F31
s(S'PP'
S'PADVDP'
tp408
F7
s(S'CP'
S'CDADVAPP'
tp409
F2
s(S'CP'
p410
S'CDDDPPP'
tp411
F8
s(S'DP'
S'DANNP'
tp412
F3
s(S'MP'
S'MADVVAP'
tp413
F1
s(S'PP'
S'PADVAAP'
tp414
F1
s(S'CP'
S'CDDPP'
tp415
F126
s(S'VP'
p416
S'VADVCCP'
tp417
F1
s(S'DP'
p418
S'DAAPP'
tp419
F24
s(g312
S'PVVP'
tp420
F53
s(S'CP'
S'CADPPP'
tp421
F4
s(S'AP'
S'AACP'
tp422
F15
s(S'MP'
S'MAVCP'
tp423
F1
s(S'PP'
S'PMMP'
tp424
F6
s(S'VP'
p425
S'VPPP'
tp426
F20
s(S'NP'
S'NADVADVAVP'
tp427
F1
s(S'VP'
S'VVPPP'
tp428
F2
s(S'PP'
S'PPAP'
tp429
F20
s(g20
S'DVVP'
tp430
F61
s(S'VP'
S'VVVADVAP'
tp431
F1
s(S'NP'
S'NNNNDP'
tp432
F1
s(S'CP'
S'CDDAAPP'
tp433
F1
s(S'NP'
S'ANMP'
tp434
F5
s(S'AP'
S'APPP'
tp435
F1
s(S'PP'
S'ADVPPP'
tp436
F3
s(S'NP'
S'ADVADVNVP'
tp437
F1
s(S'VP'
S'VVVP'
tp438
F17
s(S'CP'
S'CADVDPP'
tp439
F27
s(S'VP'
p440
S'AVMP'
tp441
F1
s(g361
S'ANCP'
tp442
F71
s(S'DP'
S'DCP'
tp443
F30
s(S'DP'
S'DVVVP'
tp444
F6
s(S'NP'
S'AAANCP'
tp445
F3
s(g288
S'AAVVCP'
tp446
F1
s(g291
S'DDDP'
tp447
F35
s(S'AP'
S'ADDDDP'
tp448
F4
s(S'DP'
p449
S'DDADVPP'
tp450
F6
s(S'NP'
S'NNADP'
tp451
F1
s(S'NP'
S'ANVVP'
tp452
F9
s(S'DP'
S'DDDNNNP'
tp453
F1
s(S'NP'
p454
S'NVVVVP'
tp455
F4
s(S'NP'
p456
S'NPPP'
tp457
F33
s(S'PP'
S'PPAPP'
tp458
F2
s(S'VP'
S'ADVVNNNP'
tp459
F1
s(S'DP'
p460
S'DAVP'
tp461
F22
s(S'VP'
S'VAAAANP'
tp462
F1
s(S'DP'
p463
S'DDADVADVPP'
tp464
F2
s(S'AP'
S'ACP'
tp465
F86
s(g312
S'PAAAPP'
tp466
F2
s(S'NP'
S'NDDDDP'
tp467
F1
s(S'PP'
S'PPNP'
tp468
F104
s(g399
S'APPPP'
tp469
F2
s(S'NP'
S'NAADP'
tp470
F2
s(S'DP'
S'AAADNNP'
tp471
F1
s(S'DP'
S'ADVDAPP'
tp472
F3
s(S'DP'
S'AADVP'
tp473
F3
s(S'NP'
S'NNNNCCP'
tp474
F1
s(S'PP'
S'PPPPPVP'
tp475
F1
s(S'CP'
S'CDDADVPP'
tp476
F2
s(S'CP'
S'CCCDDP'
tp477
F3
s(S'AP'
S'ADP'
tp478
F445
s(S'NP'
S'NNAAANP'
tp479
F1
s(S'NP'
p480
S'NAMMP'
tp481
F1
s(S'DP'
S'DDADVVP'
tp482
F1
s(S'CP'
S'CADVDDPPP'
tp483
F1
s(g336
S'DDPPPP'
tp484
F9
s(S'NP'
p485
S'ADVANCCP'
tp486
F1
s(S'DP'
S'AAAADPP'
tp487
F1
s(S'VP'
S'VAAANP'
tp488
F2
s(S'DP'
S'DVVVVP'
tp489
F1
s(S'NP'
p490
S'NAAAAVVP'
tp491
F1
s(S'DP'
S'DDVVVP'
tp492
F1
s(S'VP'
S'ADVADVVNNP'
tp493
F1
s(S'AP'
S'AAADP'
tp494
F12
s(S'NP'
S'ANNVP'
tp495
F5
s(g425
S'VVAP'
tp496
F22
s(S'NP'
S'NNAPP'
tp497
F1
s(S'MP'
S'MNADVVP'
tp498
F1
s(S'NP'
S'NNADVADVADVVP'
tp499
F1
s(S'CP'
S'ADVACDP'
tp500
F2
s(S'MP'
S'MVVNNNNP'
tp501
F1
s(S'VP'
S'AAVCP'
tp502
F2
s(S'NP'
S'AANNVVP'
tp503
F1
s(g454
S'NADVAPP'
tp504
F2
s(S'VP'
S'ADVADVVAP'
tp505
F2
s(S'NP'
S'NVP'
tp506
F646
s(S'NP'
S'NNDDDP'
tp507
F3
s(S'PP'
p508
S'PAAVP'
tp509
F4
s(S'NP'
S'NAAPP'
tp510
F4
s(g480
S'ADVANDDP'
tp511
F1
s(S'MP'
S'ADVMMVP'
tp512
F1
s(g425
S'VDDP'
tp513
F59
s(g463
S'DAPPP'
tp514
F4
s(g463
S'DAAAAP'
tp515
F1
s(S'PP'
S'PPADVADP'
tp516
F1
s(S'DP'
S'DADVAPP'
tp517
F3
s(g490
S'NNNDDP'
tp518
F1
s(g169
S'PAAAVP'
tp519
F1
s(S'PP'
S'AAAPNNP'
tp520
F1
s(g232
S'ANPP'
tp521
F21
s(S'PP'
p522
S'PPPPP'
tp523
F5
s(S'MP'
S'MPDP'
tp524
F7
s(S'PP'
p525
S'ADVADVPDP'
tp526
F2
s(S'NP'
S'ADVNAAAP'
tp527
F1
s(S'MP'
S'MVVPP'
tp528
F1
s(S'AP'
S'AMMP'
tp529
F1
s(S'PP'
S'PPAAMP'
tp530
F1
s(g460
S'ADVDPP'
tp531
F41
s(g401
S'DDDDDP'
tp532
F2
s(g522
S'PPVVVVP'
tp533
F1
s(S'NP'
S'NPPPP'
tp534
F2
s(S'DP'
S'ADDP'
tp535
F4
s(S'AP'
S'ADVAMP'
tp536
F3
s(S'CP'
S'CAADPP'
tp537
F9
s(g418
S'DADVADVVP'
tp538
F1
s(S'NP'
S'NAACP'
tp539
F9
s(S'PP'
S'PNNP'
tp540
F109
s(g56
S'APNNP'
tp541
F3
s(S'DP'
S'DDAAP'
tp542
F1
s(S'MP'
S'MADVVAAANP'
tp543
F1
s(S'MP'
S'MMNP'
tp544
F4
s(S'DP'
p545
S'AAADPP'
tp546
F4
s(S'AP'
S'AANNP'
tp547
F1
s(g298
S'AVAP'
tp548
F3
s(S'MP'
S'MMVP'
tp549
F12
s(S'CP'
S'CADVADVDDAPP'
tp550
F1
s(S'NP'
S'ADVNCP'
tp551
F11
s(g218
S'AADP'
tp552
F83
s(S'CP'
S'CADVADVADVADVDDPP'
tp553
F1
s(g339
S'MPDDP'
tp554
F1
s(S'NP'
S'NAPPP'
tp555
F1
s(S'CP'
S'ACDP'
tp556
F30
s(S'NP'
p557
S'NNDP'
tp558
F31
s(S'AP'
S'ADVANP'
tp559
F3
s(S'NP'
S'NNACP'
tp560
F3
s(S'DP'
S'AAADPPP'
tp561
F1
s(S'MP'
S'MDNNP'
tp562
F1
s(S'VP'
p563
S'VAP'
tp564
F246
s(S'VP'
S'VVVVNP'
tp565
F2
s(S'DP'
S'DDDPP'
tp566
F18
s(S'CP'
S'ADVCDDP'
tp567
F3
s(S'NP'
S'AANNCP'
tp568
F2
s(S'VP'
S'VADVADVAAP'
tp569
F1
s(S'PP'
p570
S'PAAPP'
tp571
F3
s(S'DP'
p572
S'DDDAAP'
tp573
F1
s(S'MP'
S'MVVVDP'
tp574
F1
s(g134
S'MNMP'
tp575
F2
s(S'NP'
p576
S'NNPPPPP'
tp577
F1
s(S'DP'
S'DDDPPP'
tp578
F10
s(S'MP'
S'MMMDP'
tp579
F1
s(S'CP'
S'CCADVADP'
tp580
F2
s(S'AP'
S'AAACP'
tp581
F3
s(S'DP'
S'ADADVVP'
tp582
F1
s(S'VP'
S'ADVVVDP'
tp583
F1
s(S'PP'
S'PPPVP'
tp584
F3
s(S'AP'
S'AADDP'
tp585
F6
s(S'MP'
S'MADVVANNP'
tp586
F1
s(S'VP'
S'VAANP'
tp587
F11
s(S'VP'
S'ADVVAAAP'
tp588
F1
s(S'NP'
S'AAANADVVP'
tp589
F1
s(S'PP'
S'ADVPVP'
tp590
F8
s(S'VP'
S'VVDP'
tp591
F91
s(S'MP'
S'MPNP'
tp592
F11
s(S'VP'
S'ADVVADVANP'
tp593
F1
s(g277
S'VVAADP'
tp594
F1
s(S'MP'
S'MADP'
tp595
F10
s(S'PP'
S'PPPDDP'
tp596
F2
s(S'VP'
S'ADVADVADVVAP'
tp597
F1
s(S'CP'
S'CCAADP'
tp598
F2
s(S'DP'
p599
S'DDADVNP'
tp600
F3
s(S'PP'
p601
S'PANP'
tp602
F41
s(g508
S'PDDDP'
tp603
F5
s(S'DP'
S'ADVADPP'
tp604
F5
s(S'NP'
S'AANMP'
tp605
F4
s(S'AP'
S'AAVP'
tp606
F4
s(S'NP'
p607
S'NAAP'
tp608
F21
s(S'NP'
S'NDDP'
tp609
F25
s(S'AP'
S'ACCP'
tp610
F12
s(S'AP'
S'APPPP'
tp611
F2
s(g301
S'NDP'
tp612
F210
s(S'NP'
S'AAANVP'
tp613
F4
s(S'NP'
S'NNADVADVDP'
tp614
F1
s(g64
S'NNAAAAVP'
tp615
F1
s(S'MP'
S'MVAAP'
tp616
F1
s(S'DP'
S'DDVP'
tp617
F69
s(S'NP'
S'ANADVADVDP'
tp618
F1
s(S'VP'
S'ADVVAAANP'
tp619
F1
s(S'VP'
S'VVMMMP'
tp620
F1
s(g374
S'AANVP'
tp621
F13
s(S'VP'
S'ADVVVNNP'
tp622
F1
s(S'DP'
p623
S'ADDVP'
tp624
F1
s(S'VP'
p625
S'VNNNP'
tp626
F13
s(S'CP'
S'CDADVADVPP'
tp627
F1
s(S'PP'
S'PPPPVVP'
tp628
F1
s(S'NP'
S'NNNNVVP'
tp629
F3
s(S'PP'
S'PCP'
tp630
F17
s(S'NP'
S'NNPPP'
tp631
F8
s(S'PP'
p632
S'PAADP'
tp633
F6
s(S'NP'
S'NADVCCP'
tp634
F1
s(S'VP'
S'VPPPP'
tp635
F1
s(S'NP'
S'ANNPP'
tp636
F6
s(S'MP'
S'MVNNNP'
tp637
F2
s(S'NP'
S'NNNDP'
tp638
F9
s(S'AP'
S'ADVACP'
tp639
F5
s(g384
S'AANVVVP'
tp640
F1
s(g570
S'AAPNNP'
tp641
F2
s(S'PP'
p642
S'PAPPP'
tp643
F2
s(S'VP'
S'ADVADVAVDP'
tp644
F1
s(g545
S'ADPPP'
tp645
F10
s(S'MP'
S'MVCP'
tp646
F14
s(S'PP'
S'PPAAANP'
tp647
F1
s(S'CP'
S'CCDDP'
tp648
F32
s(S'NP'
S'NNADVVP'
tp649
F6
s(S'MP'
S'MVMP'
tp650
F1
s(S'NP'
S'ADVANAP'
tp651
F1
s(S'MP'
S'MAADDP'
tp652
F1
s(S'NP'
p653
S'NNVVP'
tp654
F15
s(S'NP'
S'NNNNVP'
tp655
F3
s(S'VP'
S'VVCP'
tp656
F27
s(g653
S'AANCP'
tp657
F15
s(g563
S'VDP'
tp658
F478
s(S'VP'
S'VVVVVNP'
tp659
F1
s(S'NP'
S'NNDDP'
tp660
F5
s(S'DP'
S'DDDDPPP'
tp661
F3
s(S'VP'
S'ADVVPP'
tp662
F6
s(S'VP'
S'VVADVANP'
tp663
F1
s(S'CP'
S'CDAPPP'
tp664
F3
s(S'VP'
S'VNNP'
tp665
F80
s(S'AP'
S'AADVDP'
tp666
F3
s(S'AP'
S'AAAMP'
tp667
F1
s(g85
S'NADP'
tp668
F8
s(S'PP'
S'AAAPPP'
tp669
F1
s(g20
S'DDNP'
tp670
F76
s(S'NP'
S'NADVCP'
tp671
F6
s(g449
S'DDADVVVP'
tp672
F1
s(S'PP'
S'AAPPP'
tp673
F4
s(g395
S'ADVNAAP'
tp674
F1
s(S'VP'
S'VMMMP'
tp675
F1
s(S'NP'
p676
S'ADVADVNCP'
tp677
F1
s(g37
S'DAAADDP'
tp678
F1
s(S'DP'
S'AADPP'
tp679
F16
s(S'MP'
S'MADVADVPDP'
tp680
F1
s(S'NP'
S'NNNNPP'
tp681
F1
s(S'DP'
S'DADVADVANP'
tp682
F1
s(S'PP'
S'ADVADVPPDP'
tp683
F1
s(S'VP'
S'VVMMP'
tp684
F2
s(S'PP'
S'ADVPAP'
tp685
F1
s(S'NP'
S'NNNP'
tp686
F6
s(S'AP'
S'AAMMP'
tp687
F2
s(S'VP'
S'AAAAVVDP'
tp688
F1
s(S'CP'
S'CDPPPPP'
tp689
F1
s(S'NP'
S'NNADVADVADVCP'
tp690
F1
s(g234
S'MVVNP'
tp691
F3
s(S'AP'
S'AADVADVADP'
tp692
F1
s(S'CP'
S'CAAADDPP'
tp693
F1
s(S'CP'
S'ACDDP'
tp694
F2
s(g210
S'ANADVADVADVVP'
tp695
F1
s(S'AP'
S'AAPP'
tp696
F5
s(g283
S'VVCCP'
tp697
F6
s(g410
S'ADVCAADP'
tp698
F1
s(S'NP'
S'NMMMP'
tp699
F2
s(g642
S'APPNP'
tp700
F5
s(S'NP'
S'NNCCCP'
tp701
F1
s(S'DP'
S'DAAAPP'
tp702
F4
s(S'DP'
S'ADVDAAANP'
tp703
F1
s(S'AP'
S'ADVANNP'
tp704
F1
s(g114
S'VVVCCP'
tp705
F2
s(S'NP'
S'NAPP'
tp706
F14
s(S'PP'
S'APPVP'
tp707
F2
s(S'AP'
S'ADVADVADP'
tp708
F1
s(S'NP'
S'NADVDP'
tp709
F2
s(S'DP'
S'DDNNNNNP'
tp710
F1
s(S'VP'
S'VVVCP'
tp711
F2
s(g162
S'PADVAPP'
tp712
F1
s(g99
S'ANCCP'
tp713
F9
s(g142
S'AANPP'
tp714
F6
s(S'VP'
S'VDDDP'
tp715
F7
s(S'NP'
S'NNMP'
tp716
F26
s(S'DP'
p717
S'DDDVP'
tp718
F10
s(S'DP'
S'DDDADVVVP'
tp719
F1
s(S'PP'
S'ADVADVPNNP'
tp720
F1
s(S'CP'
S'CADDPP'
tp721
F2
s(S'PP'
S'PAAAP'
tp722
F2
s(g387
S'PPPAP'
tp723
F3
s(S'CP'
S'CDDAPP'
tp724
F1
s(S'NP'
S'NNADVCP'
tp725
F1
s(g454
S'ANAP'
tp726
F3
s(S'MP'
S'MVAP'
tp727
F24
s(g382
S'PVP'
tp728
F357
s(S'DP'
S'DADVAVP'
tp729
F2
s(S'AP'
S'ADVADVAPP'
tp730
F1
s(S'NP'
S'AANNADVVP'
tp731
F1
s(g449
S'ADVADVADDPP'
tp732
F1
s(S'AP'
S'AADVDDP'
tp733
F1
s(S'AP'
S'ADVAACP'
tp734
F2
s(S'NP'
S'ANNCP'
tp735
F5
s(S'VP'
S'VCCCCP'
tp736
F1
s(S'DP'
S'DAPP'
tp737
F51
s(S'MP'
p738
S'MMMMVP'
tp739
F1
s(S'PP'
S'AAPPPP'
tp740
F1
s(S'PP'
p741
S'PPDDP'
tp742
F12
s(S'VP'
S'AVCP'
tp743
F9
s(S'NP'
S'NADVADVAP'
tp744
F1
s(S'NP'
S'NNDDDDDP'
tp745
F1
s(S'DP'
p746
S'DPP'
tp747
F818
s(S'NP'
S'ADVNVP'
tp748
F16
s(S'DP'
S'DDDVVP'
tp749
F1
s(g197
S'DDPP'
tp750
F179
s(S'DP'
S'DDAVP'
tp751
F2
s(g20
S'DANP'
tp752
F51
s(S'NP'
S'ADVADVNAP'
tp753
F1
s(g326
S'NADVPP'
tp754
F4
s(S'MP'
S'MDDCP'
tp755
F1
s(S'PP'
S'ADVADVPPNP'
tp756
F2
s(S'NP'
S'ADVNVVVP'
tp757
F2
s(S'NP'
S'ADVNAADP'
tp758
F1
s(g557
S'NAAVP'
tp759
F5
s(S'DP'
S'ADVADVADPP'
tp760
F1
s(g138
S'AADNP'
tp761
F5
s(S'CP'
S'CADVADVADVDPP'
tp762
F1
s(S'VP'
p763
S'VADVCP'
tp764
F1
s(S'PP'
S'PAAAAAAP'
tp765
F1
s(S'PP'
S'PMMMP'
tp766
F1
s(S'NP'
S'NNNNCP'
tp767
F7
s(S'MP'
S'MDNP'
tp768
F15
s(S'PP'
S'PPAANNP'
tp769
F1
s(g250
S'ANADVADVANP'
tp770
F1
s(S'NP'
S'NNNVVP'
tp771
F6
s(g456
S'ADVNMMP'
tp772
F1
s(S'NP'
S'NAANP'
tp773
F3
s(g599
S'DCCP'
tp774
F2
s(g676
S'NAAADP'
tp775
F1
s(S'AP'
S'AADDDDP'
tp776
F1
s(S'PP'
S'AAPDP'
tp777
F10
s(S'MP'
S'MADVVDP'
tp778
F7
s(g20
S'DDADVNNP'
tp779
F1
s(S'VP'
S'VVVAP'
tp780
F1
s(g127
S'PDDP'
tp781
F60
s(S'NP'
S'ADVADVANVVP'
tp782
F2
s(S'MP'
S'MVDDP'
tp783
F3
s(S'PP'
S'PCCP'
tp784
F5
s(g525
S'ADVAPNP'
tp785
F6
s(S'NP'
S'NNNADVVP'
tp786
F2
s(S'NP'
S'NNVP'
tp787
F128
s(g230
S'PADVADVADVDP'
tp788
F1
s(g119
S'AADVNAVP'
tp789
F1
s(S'MP'
S'MVVVNNP'
tp790
F1
s(S'AP'
S'ADVADVACP'
tp791
F2
s(g43
S'AVDP'
tp792
F26
s(S'NP'
S'NNP'
tp793
F6
s(g101
S'VVDDP'
tp794
F10
s(S'DP'
S'DAANP'
tp795
F15
s(S'AP'
S'ADDP'
tp796
F53
s(g366
S'PNNNNP'
tp797
F3
s(S'MP'
S'MMADVADVAVP'
tp798
F1
s(S'CP'
S'CADDADVPP'
tp799
F1
s(g220
S'CADVADVDPP'
tp800
F5
s(S'CP'
S'ADVADVADVCDP'
tp801
F1
s(g746
S'DPPP'
tp802
F203
s(S'DP'
S'AADPPP'
tp803
F2
s(g185
S'VANNP'
tp804
F4
s(S'AP'
S'AAAP'
tp805
F2
s(g576
S'NNAVP'
tp806
F2
s(g223
S'DDNNP'
tp807
F18
s(S'AP'
S'AVVP'
tp808
F6
s(S'PP'
S'PPPANP'
tp809
F1
s(S'NP'
S'NNNADVVVP'
tp810
F1
s(g416
S'ADVVVAP'
tp811
F1
s(S'PP'
S'ADVPNP'
tp812
F21
s(S'PP'
S'PPDP'
tp813
F72
s(S'PP'
S'AAPADVNNP'
tp814
F1
s(S'MP'
S'MPPPNNP'
tp815
F1
s(S'VP'
S'VAAADDP'
tp816
F1
s(g85
S'NNAAACP'
tp817
F1
s(S'VP'
S'ADVADVAVDDDP'
tp818
F1
s(S'DP'
S'DADVADVCP'
tp819
F1
s(S'DP'
S'DDCP'
tp820
F2
s(S'PP'
S'PAANNP'
tp821
F1
s(S'AP'
S'AAAPP'
tp822
F3
s(S'MP'
S'MNCCP'
tp823
F2
s(g60
S'AAMDP'
tp824
F1
s(g280
S'NAP'
tp825
F160
s(S'NP'
S'NNAAP'
tp826
F7
s(S'DP'
S'DDNNNNP'
tp827
F1
s(g625
S'VAAAP'
tp828
F9
s(g101
S'AVADVCP'
tp829
F1
s(S'VP'
S'VADVANP'
tp830
F3
s(g130
S'ADVAVNP'
tp831
F2
s(S'VP'
S'VVP'
tp832
F48
s(S'DP'
S'DADVNP'
tp833
F9
s(S'PP'
S'ADVADVPVP'
tp834
F1
s(S'CP'
S'CCAAAADP'
tp835
F1
s(g570
S'APNP'
tp836
F26
s(S'VP'
S'VVVNNP'
tp837
F2
s(S'PP'
S'PPPCCCP'
tp838
F1
s(g10
S'DDVVP'
tp839
F10
s(S'VP'
p840
S'VVVNP'
tp841
F9
s(S'MP'
S'MNPP'
tp842
F6
s(S'DP'
S'ADVADVADVVP'
tp843
F1
s(S'CP'
S'CDDAAAPP'
tp844
F1
s(S'NP'
S'NAMP'
tp845
F4
s(S'NP'
S'AANVVP'
tp846
F1
s(S'MP'
S'MVANP'
tp847
F4
s(S'DP'
S'DDDDDDPP'
tp848
F1
s(g265
S'MVNNP'
tp849
F9
s(g28
S'CDPP'
tp850
F680
s(S'MP'
S'MMMNP'
tp851
F2
s(S'MP'
S'MVVNNP'
tp852
F2
s(S'AP'
S'ADDDP'
tp853
F6
s(g220
S'ADVCADP'
tp854
F2
s(S'NP'
S'ANMMMP'
tp855
F1
s(g243
S'MMMVP'
tp856
F1
s(S'CP'
S'ADVCDP'
tp857
F5
s(S'AP'
S'ADVAAP'
tp858
F3
s(S'VP'
S'ADVADVVNP'
tp859
F2
s(S'MP'
S'MADVPCP'
tp860
F1
s(S'DP'
S'AAADDPP'
tp861
F2
s(S'MP'
S'MNPPP'
tp862
F2
s(S'VP'
S'ADVADVVCP'
tp863
F1
s(S'MP'
S'MPMMP'
tp864
F1
s(S'PP'
S'PPNNP'
tp865
F15
s(g741
S'ADVPAVP'
tp866
F1
s(S'PP'
S'PADVCP'
tp867
F1
s(S'MP'
S'MMAAVVP'
tp868
F1
s(g399
S'PPMP'
tp869
F2
s(S'DP'
S'ADVADVDPP'
tp870
F5
s(S'VP'
S'VADVNP'
tp871
F8
s(S'NP'
S'NADVAP'
tp872
F5
s(S'VP'
S'AVDDP'
tp873
F4
s(S'DP'
S'DAP'
tp874
F46
s(S'CP'
S'CADPP'
tp875
F40
s(S'PP'
S'PPAVP'
tp876
F3
s(S'VP'
S'AAVVAP'
tp877
F1
s(S'PP'
S'PPDDDP'
tp878
F2
s(g840
S'AVPP'
tp879
F3
s(S'CP'
S'CAADPPP'
tp880
F1
s(g480
S'NNNADVANP'
tp881
F1
s(S'CP'
S'ADVCADVDP'
tp882
F1
s(S'CP'
S'CDDPPPPP'
tp883
F1
s(S'CP'
S'CDPPPP'
tp884
F17
s(S'VP'
S'AAVDP'
tp885
F9
s(S'DP'
S'AADNNP'
tp886
F1
s(g387
S'PANNP'
tp887
F4
s(g70
S'ADDADVPP'
tp888
F1
s(S'PP'
S'ADVPAAANP'
tp889
F1
s(g601
S'APPP'
tp890
F4
s(g97
S'ADVVADVAP'
tp891
F1
s(S'DP'
S'DADVADVPP'
tp892
F2
s(g717
S'DMP'
tp893
F8
s(g632
S'PPPNP'
tp894
F14
s(S'NP'
S'NPP'
tp895
F331
s(S'PP'
S'APADVPP'
tp896
F1
s(S'PP'
S'PPAANP'
tp897
F2
s(S'NP'
S'AAANPP'
tp898
F2
s(S'PP'
S'PADVADVNP'
tp899
F3
s(g601
S'PPPPNP'
tp900
F2
s(S'DP'
S'ADPP'
tp901
F65
s(g485
S'NADVANP'
tp902
F2
s(S'VP'
S'VADVPP'
tp903
F2
s(g623
S'DDAAPP'
tp904
F1
s(g155
S'ADVDANP'
tp905
F1
s(S'PP'
S'PVVVVP'
tp906
F1
s(S'PP'
S'PPAVVP'
tp907
F1
s(S'CP'
p908
S'CCAAADP'
tp909
F1
s(g572
S'DDDDPP'
tp910
F7
s(S'AP'
S'ADVADVAVP'
tp911
F1
s(S'NP'
S'NNVVVP'
tp912
F1
s(S'VP'
S'ADVVANP'
tp913
F4
s(g48
S'PAMP'
tp914
F3
s(g127
S'ADVPDP'
tp915
F5
s(g763
S'VVNNNNP'
tp916
F2
s(g277
S'ADVVADP'
tp917
F1
s(S'PP'
S'PPPVVP'
tp918
F2
s(S'MP'
S'MVADVAP'
tp919
F1
s(g149
S'NCP'
tp920
F546
s(g352
S'ADVVVPP'
tp921
F1
s(S'PP'
S'AAAPNP'
tp922
F1
s(g109
S'ADVANDP'
tp923
F1
s(S'DP'
S'ADVVP'
tp924
F1
s(S'CP'
S'CDDADVADVPP'
tp925
F1
s(S'VP'
S'VAADP'
tp926
F2
s(S'AP'
S'AAMP'
tp927
F4
s(S'PP'
S'ADVPDDP'
tp928
F1
s(S'VP'
S'AAVVDP'
tp929
F1
s(S'NP'
S'AANDP'
tp930
F7
s(S'DP'
S'ADVADVADVADVDDPP'
tp931
F1
s(S'MP'
S'MADVVPP'
tp932
F1
s(g24
S'NNCCP'
tp933
F46
s(S'MP'
S'MNVP'
tp934
F24
s(S'NP'
S'AANAP'
tp935
F2
s(g607
S'NNPP'
tp936
F53
s(S'VP'
S'VAPP'
tp937
F8
s(S'NP'
S'NPPPPP'
tp938
F1
s(S'VP'
S'VVAAACP'
tp939
F1
s(S'VP'
S'ADVVDP'
tp940
F39
s(S'VP'
p941
S'VADDP'
tp942
F2
s(S'DP'
S'DADVPP'
tp943
F25
s(S'VP'
S'VVADVAP'
tp944
F1
s(g136
S'AMP'
tp945
F35
s(S'CP'
S'CCADP'
tp946
F12
s(S'NP'
S'ADVNNCP'
tp947
F2
s(g13
S'ADVAPP'
tp948
F5
s(S'DP'
S'DDADVAPP'
tp949
F1
s(S'DP'
S'ADVDAVP'
tp950
F1
s(S'CP'
S'AACDP'
tp951
F13
s(S'NP'
S'NNNCCP'
tp952
F8
s(S'CP'
S'CCDDDP'
tp953
F3
s(S'CP'
S'CCCDP'
tp954
F9
s(S'DP'
S'ADVDPPP'
tp955
F3
s(g20
S'DVP'
tp956
F432
s(g941
S'AVNNP'
tp957
F2
s(g171
S'ADVNPP'
tp958
F1
s(g908
S'AAACDP'
tp959
F4
s(S'AP'
S'AVP'
tp960
F42
s(S'NP'
S'NADVVP'
tp961
F22
s(S'CP'
S'CDAAAPP'
tp962
F2
s(S'NP'
S'NNNMP'
tp963
F2
s(S'VP'
S'ADVVPPP'
tp964
F1
s(S'DP'
S'DDPPP'
tp965
F29
s(S'NP'
S'ADVNMP'
tp966
F3
s(g280
S'NNAP'
tp967
F34
s(g248
S'ADVADVNMP'
tp968
F1
s(g738
S'MADVVCP'
tp969
F1
s(g525
S'PPANP'
tp970
F6
s(S'CP'
S'CDADVPP'
tp971
F18
s(S'VP'
S'VNP'
tp972
F461
s(S'VP'
S'VANP'
tp973
F44
s(S'MP'
S'MAANCP'
tp974
F1
s(g77
S'VADVAP'
tp975
F19
s(g440
S'VVVADP'
tp976
F1
s(g207
S'VAADVNP'
tp977
F1
s(S'PP'
S'PPADVNP'
tp978
F1
s(S'DP'
S'DDDDVP'
tp979
F5
s.