ccollections
defaultdict
p1
(c__builtin__
float
p2
tRp3
(S'MP'
p4
S'MMDP'
tp5
F1
s(S'VP'
S'VVAAAP'
tp6
F1
s(S'MP'
S'MADVVCCP'
tp7
F1
s(S'CP'
S'CAAADPP'
tp8
F2
s(S'PP'
p9
S'PAAANP'
tp10
F1
s(S'DP'
S'ADDPP'
tp11
F4
s(S'DP'
S'DDAP'
tp12
F1
s(S'CP'
p13
S'CCAADDP'
tp14
F1
s(S'AP'
S'AADDDP'
tp15
F1
s(S'CP'
S'CCDDDDP'
tp16
F2
s(S'VP'
S'VVVVP'
tp17
F2
s(S'DP'
p18
S'DAANNP'
tp19
F2
s(S'AP'
S'AVVVP'
tp20
F1
s(S'PP'
S'PAPP'
tp21
F7
s(S'PP'
S'PADVNP'
tp22
F24
s(S'CP'
S'CCAAADP'
tp23
F1
s(S'DP'
p24
S'DNP'
tp25
F355
s(S'DP'
S'AADDNP'
tp26
F1
s(S'NP'
S'ADVNDP'
tp27
F2
s(S'PP'
p28
S'AAPDDP'
tp29
F3
s(S'VP'
p30
S'ADVVNNP'
tp31
F1
s(S'CP'
p32
S'CDPPP'
tp33
F90
s(S'VP'
p34
S'VADP'
tp35
F25
s(S'DP'
S'DNNNNP'
tp36
F2
s(S'CP'
S'CDAAPPP'
tp37
F1
s(S'DP'
p38
S'DAAP'
tp39
F6
s(S'PP'
p40
S'PPPPPP'
tp41
F2
s(S'DP'
S'AAADDPPP'
tp42
F1
s(S'VP'
S'VADVADVADVAP'
tp43
F1
s(S'VP'
p44
S'VAVP'
tp45
F4
s(S'AP'
S'AADVMP'
tp46
F1
s(S'DP'
S'DAADP'
tp47
F4
s(g18
S'ADNNP'
tp48
F3
s(S'PP'
S'APVP'
tp49
F19
s(S'MP'
p50
S'MVDP'
tp51
F31
s(S'PP'
p52
S'PADVANP'
tp53
F5
s(S'NP'
S'AANNPP'
tp54
F1
s(g28
S'PPPP'
tp55
F39
s(S'VP'
S'VVVVDDP'
tp56
F1
s(S'DP'
p57
S'DDDNP'
tp58
F6
s(S'MP'
p59
S'MMADVVP'
tp60
F1
s(g4
S'AMCP'
tp61
F1
s(S'VP'
S'VACP'
tp62
F8
s(S'AP'
S'AAAVP'
tp63
F1
s(S'PP'
S'PPPAAP'
tp64
F1
s(S'DP'
S'DADVVP'
tp65
F4
s(S'PP'
S'PADVNNP'
tp66
F2
s(S'AP'
p67
S'AADVPP'
tp68
F1
s(S'NP'
p69
S'NADVACP'
tp70
F2
s(S'NP'
S'NDDDP'
tp71
F3
s(S'NP'
S'NCCCP'
tp72
F6
s(S'VP'
S'VCP'
tp73
F127
s(S'NP'
S'NMMP'
tp74
F13
s(S'NP'
S'NANP'
tp75
F2
s(S'VP'
p76
S'ADVVAAP'
tp77
F1
s(S'DP'
S'DDDNNP'
tp78
F2
s(S'PP'
p79
S'PAP'
tp80
F114
s(S'NP'
p81
S'ADVADVADVNNMP'
tp82
F1
s(S'MP'
p83
S'MMVVP'
tp84
F2
s(g57
S'DDADVADVPP'
tp85
F1
s(S'PP'
p86
S'ADVPPVP'
tp87
F1
s(S'NP'
S'NNNAP'
tp88
F3
s(S'NP'
S'ANPPP'
tp89
F3
s(S'MP'
S'AAAAMVP'
tp90
F1
s(S'PP'
p91
S'PPADVDP'
tp92
F2
s(S'MP'
p93
S'AMVP'
tp94
F1
s(S'PP'
p95
S'PNP'
tp96
F399
s(S'DP'
p97
S'ADVDAAADP'
tp98
F1
s(S'DP'
p99
S'DDP'
tp100
F70
s(S'NP'
S'ANNNVP'
tp101
F1
s(S'VP'
p102
S'ADVVDDP'
tp103
F2
s(g69
S'NNNPP'
tp104
F8
s(S'VP'
p105
S'VCCP'
tp106
F23
s(S'MP'
p107
S'MCDP'
tp108
F7
s(S'NP'
p109
S'ADVADVANAP'
tp110
F1
s(S'MP'
S'MNNAP'
tp111
F1
s(S'MP'
S'MNAP'
tp112
F1
s(S'PP'
S'PPPNNP'
tp113
F1
s(S'NP'
S'NMP'
tp114
F127
s(S'VP'
p115
S'AVVDDP'
tp116
F1
s(S'MP'
S'MPADVVP'
tp117
F1
s(S'VP'
S'VAAADP'
tp118
F1
s(S'VP'
S'AAVNP'
tp119
F4
s(S'VP'
S'VMMP'
tp120
F4
s(S'PP'
p121
S'PDP'
tp122
F311
s(S'CP'
S'CCADVADVDP'
tp123
F2
s(S'CP'
S'CDADVADVPP'
tp124
F1
s(S'DP'
S'AAADVP'
tp125
F2
s(S'MP'
S'MADVVNP'
tp126
F3
s(S'NP'
S'NNADVMP'
tp127
F1
s(S'VP'
S'AVAAP'
tp128
F1
s(S'NP'
S'NACCP'
tp129
F3
s(S'AP'
S'ANP'
tp130
F3
s(S'PP'
p131
S'ADVPAAP'
tp132
F1
s(S'NP'
S'NADVADVADVVP'
tp133
F1
s(S'PP'
p134
S'PADVPP'
tp135
F4
s(S'VP'
S'AAVPP'
tp136
F2
s(S'VP'
p137
S'VVADVNP'
tp138
F2
s(S'PP'
p139
S'PPADVAP'
tp140
F1
s(S'MP'
S'MVACP'
tp141
F1
s(S'DP'
p142
S'DDAAPPP'
tp143
F1
s(S'NP'
S'ADVNACP'
tp144
F1
s(S'DP'
p145
S'DPPPP'
tp146
F8
s(S'DP'
p147
S'DDANP'
tp148
F2
s(S'DP'
S'ADNNNP'
tp149
F1
s(S'NP'
S'NACP'
tp150
F22
s(S'AP'
S'ADVAVP'
tp151
F4
s(S'NP'
p152
S'NCCP'
tp153
F96
s(S'VP'
p154
S'AAAVPP'
tp155
F1
s(S'VP'
S'VVCCCP'
tp156
F1
s(S'NP'
S'NNNAAP'
tp157
F1
s(g152
S'NNCP'
tp158
F121
s(S'DP'
S'ADVDDPP'
tp159
F1
s(S'NP'
S'NADVADVVP'
tp160
F5
s(S'NP'
p161
S'NNPPPP'
tp162
F1
s(S'DP'
p163
S'DDDDP'
tp164
F7
s(S'DP'
p165
S'DDAPP'
tp166
F2
s(S'VP'
S'AVNP'
tp167
F19
s(S'NP'
S'NNNNNCP'
tp168
F1
s(S'NP'
S'NNNAPP'
tp169
F1
s(S'DP'
S'DDAAANP'
tp170
F1
s(S'VP'
S'VVNNNP'
tp171
F1
s(g121
S'ADVPVVP'
tp172
F3
s(S'NP'
S'AAAANVP'
tp173
F1
s(S'PP'
S'ADVAPDP'
tp174
F3
s(S'PP'
S'AAPNP'
tp175
F4
s(S'VP'
S'VADVVP'
tp176
F2
s(S'MP'
S'MVPPP'
tp177
F2
s(S'NP'
S'ANADVVP'
tp178
F2
s(S'PP'
p179
S'ADVPPADVPP'
tp180
F1
s(S'MP'
S'MAAVNP'
tp181
F1
s(S'AP'
S'AAAAP'
tp182
F1
s(g83
S'MMMADVADVVP'
tp183
F1
s(S'DP'
S'DADVPPP'
tp184
F3
s(S'CP'
S'CCCDP'
tp185
F10
s(S'VP'
S'ADVVAP'
tp186
F5
s(S'PP'
S'ADVPPNNP'
tp187
F1
s(S'VP'
S'VCCCP'
tp188
F2
s(S'PP'
p189
S'APDP'
tp190
F21
s(S'NP'
p191
S'ADVNPPP'
tp192
F3
s(S'MP'
S'AMAP'
tp193
F1
s(S'AP'
S'AADVACP'
tp194
F1
s(S'VP'
S'VVANP'
tp195
F3
s(S'PP'
p196
S'PPACP'
tp197
F1
s(S'NP'
S'NNADVDP'
tp198
F1
s(S'PP'
S'ADVPNNP'
tp199
F3
s(S'NP'
S'ADVADVNPPP'
tp200
F1
s(S'NP'
p201
S'NNADVANP'
tp202
F1
s(S'PP'
S'PCCP'
tp203
F3
s(g91
S'PAAP'
tp204
F19
s(S'MP'
S'MPNNP'
tp205
F2
s(S'NP'
p206
S'ADVANCP'
tp207
F4
s(S'DP'
S'DNNP'
tp208
F85
s(S'VP'
S'ADVVAANP'
tp209
F1
s(S'DP'
p210
S'DPPPPP'
tp211
F3
s(S'CP'
S'CDDPPPP'
tp212
F1
s(S'CP'
S'CCADVDP'
tp213
F4
s(g154
S'ADVVAADDP'
tp214
F1
s(S'VP'
S'AAVDDP'
tp215
F1
s(S'DP'
S'ADDNP'
tp216
F1
s(S'NP'
S'NNNVP'
tp217
F9
s(S'PP'
S'PAAVVP'
tp218
F1
s(S'VP'
S'VADVNNP'
tp219
F2
s(S'PP'
S'AAPPDP'
tp220
F2
s(S'MP'
S'ADVADVMPP'
tp221
F1
s(S'PP'
p222
S'PADVVP'
tp223
F12
s(S'DP'
p224
S'DACP'
tp225
F2
s(S'NP'
S'ANNADVCP'
tp226
F1
s(S'CP'
S'CAAADDPPP'
tp227
F1
s(S'DP'
S'DADVVVP'
tp228
F1
s(S'PP'
S'APAP'
tp229
F2
s(S'AP'
p230
S'APP'
tp231
F34
s(S'NP'
S'AAANNPP'
tp232
F1
s(S'NP'
p233
S'NADVMP'
tp234
F2
s(S'AP'
S'AAP'
tp235
F14
s(S'CP'
S'ADVADVADVADVCDDP'
tp236
F1
s(S'DP'
S'DAAAPP'
tp237
F2
s(S'NP'
S'ADVANPP'
tp238
F2
s(S'MP'
S'MVVCP'
tp239
F2
s(S'DP'
S'DAAVP'
tp240
F6
s(S'CP'
S'CDDDDPP'
tp241
F2
s(S'MP'
S'MVVVNP'
tp242
F1
s(g131
S'PAANP'
tp243
F10
s(g28
S'PPVVP'
tp244
F6
s(S'VP'
p245
S'VAACP'
tp246
F1
s(g50
S'MVNP'
tp247
F45
s(S'NP'
S'NNANP'
tp248
F1
s(S'DP'
S'ADVADNP'
tp249
F1
s(S'PP'
p250
S'PAVP'
tp251
F11
s(S'MP'
S'ADVMVP'
tp252
F2
s(S'VP'
S'ADVVMP'
tp253
F1
s(S'VP'
p254
S'VVVPP'
tp255
F1
s(S'CP'
S'CADVADVADPP'
tp256
F1
s(S'PP'
S'AAAAPPP'
tp257
F1
s(S'PP'
p258
S'APPPP'
tp259
F1
s(S'DP'
p260
S'DADP'
tp261
F3
s(S'DP'
S'ADVADVDNNP'
tp262
F1
s(S'AP'
S'ADVADP'
tp263
F4
s(S'CP'
S'ADVADVCDP'
tp264
F2
s(S'PP'
S'APDDP'
tp265
F3
s(S'NP'
S'ADVNAP'
tp266
F1
s(S'DP'
S'ADVDVVVP'
tp267
F1
s(S'PP'
S'PPCP'
tp268
F2
s(S'VP'
S'ADVVNP'
tp269
F25
s(S'MP'
S'MNCP'
tp270
F3
s(S'NP'
S'ADVADVNVVVVP'
tp271
F1
s(S'VP'
p272
S'VVNP'
tp273
F65
s(S'NP'
S'ANNP'
tp274
F1
s(S'PP'
S'ADVPPPP'
tp275
F1
s(S'PP'
S'PPVP'
tp276
F53
s(S'AP'
S'AAAAMMP'
tp277
F1
s(S'MP'
S'MPCP'
tp278
F1
s(S'VP'
p279
S'VADVDP'
tp280
F2
s(S'CP'
S'AAACCDP'
tp281
F2
s(g34
S'VAAP'
tp282
F33
s(S'NP'
S'ANDP'
tp283
F15
s(S'NP'
p284
S'NVVP'
tp285
F73
s(S'PP'
S'AAPVP'
tp286
F12
s(S'PP'
S'PPADP'
tp287
F3
s(g105
S'VMP'
tp288
F39
s(S'VP'
S'VVNNP'
tp289
F7
s(S'CP'
S'CDAPP'
tp290
F41
s(S'VP'
S'VVAAP'
tp291
F3
s(S'PP'
S'ADVPMP'
tp292
F2
s(S'MP'
S'MMPP'
tp293
F1
s(S'DP'
S'ADVADVP'
tp294
F1
s(S'DP'
p295
S'ADNP'
tp296
F21
s(S'PP'
S'PAPPP'
tp297
F1
s(S'VP'
S'VADVMP'
tp298
F1
s(S'AP'
S'AAAAADP'
tp299
F2
s(S'PP'
S'PPPPAP'
tp300
F1
s(g121
S'PADP'
tp301
F21
s(S'PP'
S'PMMP'
tp302
F1
s(S'MP'
S'MNNADVVP'
tp303
F1
s(S'DP'
p304
S'ADVADVDVP'
tp305
F2
s(S'VP'
S'VVVDDP'
tp306
F2
s(S'DP'
S'ADVDAANP'
tp307
F1
s(S'DP'
S'DDADVDP'
tp308
F1
s(g147
S'DAPP'
tp309
F57
s(S'VP'
S'AVVP'
tp310
F5
s(S'VP'
S'VVVVPP'
tp311
F1
s(S'PP'
S'ADVADVADVPPP'
tp312
F1
s(S'VP'
S'VADVADVNP'
tp313
F2
s(S'MP'
S'MDDNP'
tp314
F1
s(S'CP'
S'CADPPPP'
tp315
F1
s(S'PP'
p316
S'AAAPVP'
tp317
F2
s(S'NP'
S'ADVNNPP'
tp318
F1
s(S'VP'
S'ADVADVVDP'
tp319
F2
s(S'NP'
p320
S'NNNADVAP'
tp321
F2
s(S'PP'
S'PPPDP'
tp322
F5
s(S'DP'
S'DAAPPP'
tp323
F2
s(S'NP'
S'ADVNVVP'
tp324
F1
s(S'VP'
S'ADVVVNP'
tp325
F2
s(S'AP'
S'AAPPP'
tp326
F2
s(S'VP'
p327
S'VDDDDP'
tp328
F1
s(S'DP'
S'DAAANP'
tp329
F2
s(S'VP'
S'VAAPP'
tp330
F1
s(S'DP'
p331
S'ADVDNP'
tp332
F7
s(g137
S'VVPP'
tp333
F19
s(S'CP'
S'CCADDP'
tp334
F1
s(S'MP'
S'AAMMVP'
tp335
F1
s(S'DP'
S'DDDADVNP'
tp336
F1
s(S'CP'
p337
S'AACDDP'
tp338
F1
s(S'MP'
S'MVPP'
tp339
F12
s(S'DP'
S'ADVP'
tp340
F14
s(S'MP'
p341
S'MVADP'
tp342
F1
s(S'CP'
S'CDDPPP'
tp343
F19
s(S'AP'
S'ADVADVADVAAVP'
tp344
F1
s(S'MP'
S'ADVMVVP'
tp345
F1
s(S'DP'
S'DDNNNNNNP'
tp346
F1
s(S'VP'
S'ADVADVADVVDP'
tp347
F2
s(S'NP'
S'NNPP'
tp348
F57
s(S'NP'
p349
S'AAANDP'
tp350
F1
s(g57
S'DDDDNP'
tp351
F2
s(S'MP'
S'MVVDP'
tp352
F4
s(S'CP'
S'CDDDDPPP'
tp353
F1
s(S'NP'
S'ANVP'
tp354
F17
s(g38
S'DNNNP'
tp355
F10
s(S'MP'
S'MVADVCP'
tp356
F1
s(S'MP'
S'MPPDP'
tp357
F1
s(g260
S'ADVDDVP'
tp358
F1
s(g109
S'ADVNNADVCP'
tp359
F1
s(S'CP'
S'CAADDPPP'
tp360
F1
s(S'PP'
S'PADVADVVP'
tp361
F1
s(S'DP'
S'DADVADVADVNNP'
tp362
F1
s(S'PP'
p363
S'PVVVP'
tp364
F3
s(S'PP'
S'PMP'
tp365
F13
s(S'NP'
p366
S'NNMMP'
tp367
F1
s(S'CP'
p368
S'CCDP'
tp369
F129
s(S'NP'
S'ADVNNDP'
tp370
F1
s(S'DP'
S'ADVADVADVDPP'
tp371
F1
s(S'VP'
S'VADVANP'
tp372
F2
s(S'VP'
p373
S'VPPP'
tp374
F22
s(S'VP'
S'VADVADVANP'
tp375
F1
s(S'NP'
p376
S'NVVVP'
tp377
F8
s(S'CP'
p378
S'CDDDPP'
tp379
F10
s(S'PP'
S'PADVADVADVANP'
tp380
F1
s(g368
S'CDAAPP'
tp381
F12
s(S'VP'
S'VVVDP'
tp382
F1
s(g139
S'PDDDDP'
tp383
F2
s(S'PP'
S'PNNNP'
tp384
F10
s(S'AP'
S'AACCP'
tp385
F3
s(S'VP'
S'VVMP'
tp386
F3
s(S'MP'
S'MNAAVP'
tp387
F1
s(S'CP'
S'CADADVPP'
tp388
F1
s(S'VP'
S'ADVVVDP'
tp389
F1
s(g121
S'PPP'
tp390
F139
s(S'NP'
p391
S'NNVVP'
tp392
F14
s(S'NP'
S'NAVP'
tp393
F16
s(S'PP'
p394
S'PADVAP'
tp395
F6
s(S'DP'
S'DDNNNP'
tp396
F1
s(S'NP'
p397
S'ADVADVADVNNCCP'
tp398
F1
s(S'PP'
p399
S'PADDP'
tp400
F1
s(S'DP'
p401
S'ADVDVP'
tp402
F6
s(S'PP'
S'PPADVADVNP'
tp403
F1
s(S'NP'
S'NADVVVP'
tp404
F4
s(S'CP'
S'CAADAPPP'
tp405
F1
s(S'DP'
S'DADVADVPPP'
tp406
F1
s(S'AP'
S'AADVVP'
tp407
F1
s(S'DP'
S'DAAADP'
tp408
F1
s(S'VP'
S'VPP'
tp409
F156
s(S'CP'
p410
S'ACCDP'
tp411
F5
s(S'CP'
S'CDAAAAPP'
tp412
F2
s(S'VP'
S'VVADVADVADVAAP'
tp413
F1
s(S'NP'
p414
S'NNNCP'
tp415
F17
s(g28
S'PADVDP'
tp416
F8
s(S'CP'
S'CDADVAPP'
tp417
F2
s(S'DP'
p418
S'DANNP'
tp419
F1
s(S'CP'
S'CDDPP'
tp420
F116
s(g24
S'DAAPP'
tp421
F19
s(g79
S'PVVP'
tp422
F50
s(S'CP'
p423
S'CADPPP'
tp424
F6
s(S'AP'
p425
S'AACP'
tp426
F9
s(S'VP'
S'ADVVCP'
tp427
F7
s(S'PP'
p428
S'PPNNNP'
tp429
F1
s(S'NP'
S'NADVADVAVP'
tp430
F1
s(S'VP'
S'VVPPP'
tp431
F2
s(S'VP'
S'ADVVVCCP'
tp432
F1
s(g366
S'ADVNAMP'
tp433
F1
s(g52
S'PPAP'
tp434
F15
s(S'DP'
p435
S'DVVP'
tp436
F50
s(g337
S'CDDAAPP'
tp437
F1
s(S'NP'
S'ANMP'
tp438
F4
s(S'AP'
S'APPP'
tp439
F4
s(S'PP'
S'ADVPPP'
tp440
F3
s(S'DP'
S'ADVADPPP'
tp441
F1
s(g233
S'ADVADVNVP'
tp442
F1
s(S'VP'
S'VVVP'
tp443
F13
s(S'NP'
S'ADVNNCCP'
tp444
F1
s(S'CP'
S'CADVDPP'
tp445
F20
s(g245
S'ADVADVVCCP'
tp446
F1
s(g376
S'ANCP'
tp447
F34
s(g224
S'DCP'
tp448
F19
s(S'NP'
S'ANNCP'
tp449
F4
s(S'VP'
S'ADVVCCP'
tp450
F2
s(g391
S'AAANCP'
tp451
F1
s(g18
S'DADVADVADVNP'
tp452
F1
s(g331
S'DDDP'
tp453
F19
s(g418
S'ADVDPPPPP'
tp454
F1
s(g57
S'DDADVPP'
tp455
F5
s(S'DP'
S'AADDPP'
tp456
F2
s(S'NP'
S'NNADP'
tp457
F1
s(g50
S'MAADP'
tp458
F2
s(S'NP'
S'ANVVP'
tp459
F5
s(S'DP'
S'ADDNNP'
tp460
F1
s(S'NP'
p461
S'NVVVVP'
tp462
F4
s(g284
S'NPPP'
tp463
F37
s(S'PP'
S'PPAPP'
tp464
F2
s(S'VP'
S'ADVVNNNP'
tp465
F1
s(g260
S'DAVP'
tp466
F17
s(S'NP'
S'NNNMP'
tp467
F1
s(S'NP'
S'NNNNMP'
tp468
F1
s(S'AP'
S'ACP'
tp469
F46
s(g316
S'PAAAPP'
tp470
F1
s(S'PP'
S'PPNP'
tp471
F97
s(S'PP'
S'PPPAP'
tp472
F1
s(S'NP'
p473
S'NAADP'
tp474
F4
s(S'NP'
S'ADVADVANVP'
tp475
F1
s(g97
S'AADVP'
tp476
F2
s(S'NP'
S'NNNNCCP'
tp477
F1
s(S'MP'
p478
S'AAMDDP'
tp479
F1
s(S'CP'
S'CADAAAPPP'
tp480
F1
s(S'CP'
S'CDDADVPP'
tp481
F3
s(g230
S'ADP'
tp482
F292
s(S'PP'
S'APMP'
tp483
F1
s(g210
S'DDAVP'
tp484
F2
s(S'PP'
S'APVVP'
tp485
F3
s(S'PP'
S'ADVADVPVVVVP'
tp486
F1
s(g179
S'ADVPAAVP'
tp487
F1
s(S'VP'
S'VVPPPP'
tp488
F1
s(g59
S'MAAAVPP'
tp489
F1
s(S'VP'
p490
S'ADVADVVNNP'
tp491
F2
s(S'AP'
S'AAADP'
tp492
F4
s(S'NP'
p493
S'ANNVP'
tp494
F2
s(S'VP'
S'VVAP'
tp495
F19
s(g284
S'NNAPP'
tp496
F2
s(S'MP'
S'MNADVVP'
tp497
F1
s(S'MP'
S'MAAAADP'
tp498
F1
s(S'NP'
S'ADVNACCP'
tp499
F1
s(S'CP'
S'ADVACDP'
tp500
F4
s(S'PP'
p501
S'APPVVP'
tp502
F2
s(S'PP'
p503
S'PAAAANP'
tp504
F2
s(g279
S'AAVNNP'
tp505
F2
s(g165
S'AADDPPP'
tp506
F2
s(S'NP'
p507
S'NPP'
tp508
F281
s(S'NP'
S'NNNP'
tp509
F2
s(g152
S'NVP'
tp510
F385
s(S'PP'
S'PAAVP'
tp511
F5
s(S'NP'
S'NAAPP'
tp512
F3
s(S'PP'
S'PPPPVP'
tp513
F1
s(g115
S'VDDP'
tp514
F52
s(S'VP'
S'ADVVADVAP'
tp515
F1
s(g109
S'ADVNVP'
tp516
F11
s(S'AP'
S'AAADVDP'
tp517
F1
s(S'NP'
S'AANNVP'
tp518
F1
s(S'NP'
p519
S'AANVVP'
tp520
F1
s(S'DP'
S'DADVAPP'
tp521
F4
s(S'NP'
S'NADVADVVVP'
tp522
F1
s(S'NP'
S'ANPP'
tp523
F30
s(g28
S'PPPPP'
tp524
F7
s(S'MP'
p525
S'MPDP'
tp526
F4
s(g91
S'ADVADVPDP'
tp527
F1
s(S'MP'
S'MVVPP'
tp528
F6
s(S'DP'
p529
S'ADVDPP'
tp530
F26
s(S'VP'
S'VVAAPP'
tp531
F2
s(S'NP'
S'NPPPP'
tp532
F7
s(g97
S'ADDP'
tp533
F5
s(S'MP'
S'MVAADP'
tp534
F1
s(S'PP'
S'PADVADVADVNP'
tp535
F1
s(S'CP'
S'CAADPP'
tp536
F7
s(S'DP'
S'DADVADVVP'
tp537
F1
s(g366
S'NAACP'
tp538
F12
s(g121
S'PNNP'
tp539
F88
s(S'VP'
S'VADVACP'
tp540
F1
s(g250
S'APNNP'
tp541
F9
s(S'DP'
S'DDAAP'
tp542
F1
s(g163
S'AAADPP'
tp543
F5
s(g102
S'AVAP'
tp544
F3
s(g93
S'MMVP'
tp545
F18
s(g428
S'PADVDDP'
tp546
F1
s(S'PP'
S'ADVADVAPDP'
tp547
F1
s(g519
S'ADVNCP'
tp548
F5
s(S'AP'
S'ADVAAAP'
tp549
F1
s(g24
S'ADPP'
tp550
F52
s(S'MP'
S'MPDDP'
tp551
F1
s(g368
S'ACDP'
tp552
F37
s(g507
S'NNDP'
tp553
F29
s(S'AP'
S'ADVANP'
tp554
F5
s(g152
S'NNACP'
tp555
F4
s(S'MP'
S'MDNNP'
tp556
F1
s(S'CP'
S'CDADVPPP'
tp557
F3
s(g272
S'VAP'
tp558
F158
s(S'VP'
p559
S'VVVVNP'
tp560
F1
s(S'MP'
S'MNVVP'
tp561
F2
s(S'NP'
S'NAAAAMP'
tp562
F1
s(g401
S'DDDPP'
tp563
F15
s(S'CP'
S'ADVCDDP'
tp564
F1
s(S'NP'
S'AANNCP'
tp565
F2
s(g349
S'ANADVCP'
tp566
F1
s(S'VP'
p567
S'ADVADVAVCCP'
tp568
F1
s(S'PP'
S'PAAPP'
tp569
F4
s(S'DP'
S'DDDAAP'
tp570
F1
s(S'NP'
p571
S'ADVADVADVANVP'
tp572
F1
s(S'MP'
S'MVVVDP'
tp573
F1
s(S'VP'
p574
S'ADVAVDP'
tp575
F1
s(S'PP'
S'AAAAPDDP'
tp576
F1
s(S'DP'
S'DADVDP'
tp577
F1
s(S'NP'
S'AANMP'
tp578
F3
s(g366
S'NNAVVP'
tp579
F1
s(S'CP'
S'CCADVADP'
tp580
F2
s(S'PP'
p581
S'AAPPPP'
tp582
F1
s(S'PP'
S'PPADVADVADVNNP'
tp583
F1
s(S'NP'
p584
S'NAAP'
tp585
F14
s(S'MP'
S'MANVP'
tp586
F2
s(S'PP'
S'PPPVP'
tp587
F2
s(S'AP'
S'AADDP'
tp588
F8
s(S'MP'
S'MADVVANNP'
tp589
F1
s(S'VP'
S'VAANP'
tp590
F4
s(S'VP'
S'ADVVAAAP'
tp591
F1
s(S'NP'
S'NADVADVCP'
tp592
F1
s(S'DP'
p593
S'DAAAAPP'
tp594
F2
s(S'PP'
S'PPPCP'
tp595
F2
s(S'VP'
S'VVDP'
tp596
F65
s(g399
S'PAAAAP'
tp597
F1
s(S'MP'
S'MPNP'
tp598
F9
s(S'VP'
p599
S'VVAADP'
tp600
F1
s(S'MP'
S'MADP'
tp601
F6
s(S'AP'
S'AMMP'
tp602
F3
s(g410
S'CCAADP'
tp603
F1
s(S'DP'
S'DDADVNP'
tp604
F1
s(S'PP'
S'PANP'
tp605
F35
s(g304
S'AADNP'
tp606
F6
s(S'MP'
S'MVVPPP'
tp607
F1
s(S'NP'
p608
S'ADVANPPP'
tp609
F1
s(S'AP'
S'AAVP'
tp610
F8
s(S'AP'
S'AVVP'
tp611
F3
s(S'VP'
S'VADVADVAP'
tp612
F1
s(g584
S'NDDP'
tp613
F23
s(S'PP'
S'PADVMP'
tp614
F1
s(g559
S'VADVCP'
tp615
F4
s(S'AP'
S'ACCP'
tp616
F12
s(g461
S'NNNNNNCCP'
tp617
F1
s(S'NP'
S'NNVVVP'
tp618
F2
s(S'VP'
S'VVVVAP'
tp619
F1
s(g363
S'ADVPAANP'
tp620
F1
s(g376
S'NDP'
tp621
F142
s(S'MP'
S'AAMPP'
tp622
F1
s(S'NP'
S'NNNNVVP'
tp623
F2
s(g473
S'NNADVADVDP'
tp624
F1
s(S'NP'
p625
S'ADVNAAAANP'
tp626
F1
s(S'MP'
S'MVAAP'
tp627
F4
s(S'DP'
S'DDVP'
tp628
F57
s(g191
S'AANVP'
tp629
F8
s(S'DP'
S'DADVADVAPP'
tp630
F1
s(S'VP'
S'VNNNP'
tp631
F7
s(S'PP'
S'AAAPADVDP'
tp632
F1
s(S'VP'
S'VAAMP'
tp633
F1
s(S'PP'
S'ADVPAP'
tp634
F1
s(S'PP'
S'PCP'
tp635
F17
s(S'NP'
S'NNPPP'
tp636
F7
s(S'NP'
S'NADVADVADVADVCP'
tp637
F1
s(S'PP'
S'PAADP'
tp638
F5
s(g366
S'ADVNNVP'
tp639
F3
s(g105
S'VPPPP'
tp640
F2
s(S'NP'
S'ANNPP'
tp641
F5
s(S'MP'
S'MVNNNP'
tp642
F2
s(g161
S'NNNDP'
tp643
F4
s(S'AP'
S'ADVACP'
tp644
F9
s(g121
S'AAPNNP'
tp645
F3
s(S'DP'
p646
S'DDADVVP'
tp647
F3
s(g233
S'NNVP'
tp648
F100
s(S'NP'
S'NNAAVP'
tp649
F1
s(S'MP'
S'MVCP'
tp650
F15
s(g414
S'NCP'
tp651
F359
s(g368
S'CCDDP'
tp652
F26
s(S'NP'
S'NNADVVP'
tp653
F4
s(g30
S'AAVCCP'
tp654
F1
s(S'CP'
S'CADVDPPPPP'
tp655
F1
s(S'MP'
S'MVMP'
tp656
F1
s(g646
S'DADVNP'
tp657
F4
s(S'NP'
S'NNNNVP'
tp658
F2
s(S'VP'
S'VVCP'
tp659
F23
s(S'NP'
S'AANCP'
tp660
F17
s(g327
S'VADVNP'
tp661
F6
s(S'NP'
S'AAANPPP'
tp662
F1
s(S'AP'
S'AADVCP'
tp663
F4
s(S'AP'
S'ADVAVVP'
tp664
F1
s(S'PP'
S'APPP'
tp665
F9
s(S'DP'
S'DDDDPPP'
tp666
F1
s(S'VP'
S'ADVVPP'
tp667
F6
s(S'NP'
S'NAAAAP'
tp668
F1
s(S'CP'
S'CDAPPP'
tp669
F2
s(g272
S'VNNP'
tp670
F72
s(S'AP'
S'AADVDP'
tp671
F4
s(S'AP'
S'AAAMP'
tp672
F2
s(g320
S'NADP'
tp673
F10
s(S'DP'
S'DCCP'
tp674
F1
s(S'MP'
p675
S'MAAVVDP'
tp676
F1
s(g529
S'DDNP'
tp677
F59
s(S'NP'
S'ADVNADVPP'
tp678
F1
s(g81
S'NADVCP'
tp679
F4
s(g331
S'DDNNP'
tp680
F15
s(g250
S'AAPPP'
tp681
F2
s(S'MP'
S'MADVVNNNP'
tp682
F1
s(S'NP'
S'ADVANVP'
tp683
F2
s(g206
S'ADVNAAP'
tp684
F1
s(S'AP'
S'AADVADP'
tp685
F1
s(S'NP'
S'ADVADVANPP'
tp686
F1
s(S'NP'
S'ADVADVNCP'
tp687
F2
s(S'AP'
S'ADVADDP'
tp688
F1
s(S'DP'
S'DDDDDP'
tp689
F1
s(S'DP'
S'AADPP'
tp690
F16
s(g154
S'AAVMP'
tp691
F1
s(S'CP'
S'CDDAAAAPP'
tp692
F1
s(g490
S'VAAANNP'
tp693
F1
s(S'VP'
S'VVVADVNP'
tp694
F1
s(S'CP'
S'CDPPPPP'
tp695
F1
s(g525
S'MPPPNP'
tp696
F1
s(g675
S'MVAAAP'
tp697
F1
s(S'MP'
S'MADVVDP'
tp698
F2
s(g107
S'MVVNP'
tp699
F6
s(g410
S'CDDADVPPP'
tp700
F2
s(S'CP'
S'ACDDP'
tp701
F3
s(S'VP'
S'ADVVCCCP'
tp702
F1
s(g425
S'AAPP'
tp703
F4
s(g105
S'VVCCP'
tp704
F5
s(S'DP'
p705
S'DMMP'
tp706
F1
s(S'PP'
S'APPNP'
tp707
F1
s(S'DP'
S'DADVADVNP'
tp708
F1
s(S'PP'
S'ADVPANP'
tp709
F1
s(S'MP'
S'MDAAANP'
tp710
F1
s(g376
S'NAPP'
tp711
F16
s(g9
S'APPVP'
tp712
F3
s(S'AP'
S'ADVADVADP'
tp713
F1
s(S'NP'
p714
S'NADVDP'
tp715
F1
s(S'VP'
S'VVVCP'
tp716
F5
s(S'PP'
S'PADVAPP'
tp717
F1
s(g69
S'ANCCP'
tp718
F10
s(S'NP'
S'AANPP'
tp719
F6
s(S'VP'
S'VDDDP'
tp720
F3
s(g571
S'NNMP'
tp721
F10
s(S'DP'
S'DDDVP'
tp722
F6
s(S'PP'
S'ADVADVPNNP'
tp723
F1
s(S'CP'
S'CADDPP'
tp724
F3
s(S'MP'
S'MAPDP'
tp725
F1
s(g131
S'PAAAP'
tp726
F3
s(S'NP'
S'AAAANCP'
tp727
F1
s(g705
S'ADVDADVNNP'
tp728
F1
s(g13
S'CDDAPP'
tp729
F2
s(S'NP'
S'ANAP'
tp730
F3
s(S'MP'
S'MVAP'
tp731
F10
s(g121
S'PVP'
tp732
F268
s(g76
S'VVADVADVADVCP'
tp733
F1
s(g571
S'ADVNAVP'
tp734
F1
s(g224
S'DVVVP'
tp735
F6
s(g625
S'AAAANADVVVP'
tp736
F1
s(S'NP'
p737
S'AANNPPP'
tp738
F1
s(S'DP'
S'DADVAP'
tp739
F1
s(S'AP'
S'ADVADVAMP'
tp740
F2
s(S'PP'
S'PPDDP'
tp741
F4
s(S'VP'
S'AVCP'
tp742
F2
s(S'NP'
S'NADVADVAP'
tp743
F1
s(S'NP'
S'NAVVP'
tp744
F1
s(g131
S'ADVADVPDDP'
tp745
F1
s(g99
S'DPP'
tp746
F496
s(S'CP'
S'CADVADVDDPP'
tp747
F1
s(g295
S'DDDVVP'
tp748
F2
s(g99
S'DDPP'
tp749
F167
s(g145
S'DDADVPPP'
tp750
F2
s(S'DP'
S'DANP'
tp751
F43
s(S'AP'
S'ADVAMP'
tp752
F2
s(S'NP'
S'NADVPP'
tp753
F2
s(g493
S'NNADVADVPP'
tp754
F1
s(g737
S'ADVADVADVNPP'
tp755
F1
s(S'PP'
S'AAPPVP'
tp756
F1
s(S'NP'
S'AANADVVP'
tp757
F1
s(S'NP'
S'NAAVP'
tp758
F7
s(S'DP'
S'ADVADVADPP'
tp759
F1
s(g258
S'PADVADP'
tp760
F1
s(g131
S'PDDDP'
tp761
F8
s(S'CP'
S'CADVADVADVDPP'
tp762
F1
s(S'DP'
S'ADVADVDPPP'
tp763
F1
s(S'MP'
S'MDADVVP'
tp764
F1
s(g507
S'NNNNCP'
tp765
F6
s(S'MP'
S'MDNP'
tp766
F12
s(S'MP'
S'MNAVP'
tp767
F1
s(S'NP'
S'NNNVVP'
tp768
F2
s(S'NP'
S'ADVNMMP'
tp769
F1
s(S'NP'
S'NAANP'
tp770
F1
s(S'DP'
S'DADVADVVVP'
tp771
F1
s(S'DP'
S'AADDP'
tp772
F1
s(S'MP'
S'MAAAVDP'
tp773
F1
s(S'PP'
S'AAPDP'
tp774
F6
s(S'DP'
S'ADVADPP'
tp775
F1
s(S'DP'
S'DDADVNNP'
tp776
F1
s(S'VP'
S'VVVAP'
tp777
F1
s(g189
S'PDDP'
tp778
F44
s(S'MP'
S'MVDDP'
tp779
F3
s(S'AP'
S'AAAADP'
tp780
F3
s(S'PP'
S'ADVAPNP'
tp781
F1
s(S'DP'
S'DAANP'
tp782
F19
s(S'DP'
S'ADPPP'
tp783
F10
s(S'DP'
S'AADAPPP'
tp784
F1
s(S'PP'
S'APAAP'
tp785
F1
s(g115
S'AVDP'
tp786
F17
s(S'NP'
S'NNP'
tp787
F11
s(S'VP'
S'AVVNP'
tp788
F1
s(g327
S'VVDDP'
tp789
F8
s(S'NP'
S'NNNADVVP'
tp790
F2
s(S'AP'
p791
S'ADDP'
tp792
F42
s(g95
S'PNNNNP'
tp793
F4
s(g501
S'PPAPPP'
tp794
F1
s(S'PP'
p795
S'ADVPPNP'
tp796
F3
s(S'CP'
p797
S'CADVADVDPP'
tp798
F3
s(S'CP'
S'ADVADVADVCDP'
tp799
F1
s(S'DP'
S'DPPP'
tp800
F139
s(S'VP'
S'AAAVDP'
tp801
F1
s(g145
S'AADPPP'
tp802
F7
s(g599
S'VANNP'
tp803
F2
s(S'AP'
S'AAAP'
tp804
F1
s(S'NP'
S'NMMMP'
tp805
F1
s(S'PP'
S'PPPANP'
tp806
F1
s(S'DP'
S'DDADVADVNP'
tp807
F1
s(g581
S'AAAPPNP'
tp808
F1
s(g40
S'ADVPNP'
tp809
F11
s(S'PP'
S'PPDP'
tp810
F53
s(S'VP'
S'AAVVNNNNP'
tp811
F1
s(S'MP'
S'MVPPPP'
tp812
F1
s(S'MP'
p813
S'MAVDP'
tp814
F3
s(S'DP'
S'ADVDCP'
tp815
F1
s(S'DP'
S'DDPPPP'
tp816
F1
s(S'DP'
S'DADVADVCP'
tp817
F1
s(g401
S'DDCP'
tp818
F3
s(S'PP'
S'PAANNP'
tp819
F1
s(S'AP'
S'AAAPP'
tp820
F2
s(S'MP'
S'MMAVP'
tp821
F1
s(g233
S'NAP'
tp822
F117
s(S'NP'
S'NNAAP'
tp823
F2
s(S'VP'
p824
S'VAAAP'
tp825
F2
s(S'VP'
S'ADVVVADVAP'
tp826
F2
s(g254
S'VVP'
tp827
F40
s(S'MP'
S'ADVMNP'
tp828
F3
s(S'PP'
S'PPAAP'
tp829
F4
s(g189
S'APNP'
tp830
F25
s(S'VP'
S'VVVNNP'
tp831
F1
s(S'DP'
S'DDVVP'
tp832
F5
s(S'AP'
S'AAADDP'
tp833
F2
s(S'VP'
S'VVVNP'
tp834
F8
s(S'MP'
S'MNPP'
tp835
F3
s(S'MP'
S'MAAVCP'
tp836
F1
s(g714
S'NAMP'
tp837
F2
s(S'MP'
S'MVANP'
tp838
F1
s(S'DP'
S'ADVADVDDPP'
tp839
F1
s(S'MP'
S'MVNNP'
tp840
F7
s(g32
S'CDPP'
tp841
F423
s(S'AP'
S'ADDDP'
tp842
F4
s(S'CP'
S'ADVCADP'
tp843
F2
s(g567
S'VVAANP'
tp844
F1
s(S'MP'
S'MMMVP'
tp845
F1
s(S'PP'
S'AAAAPPPP'
tp846
F1
s(S'CP'
S'ADVCDP'
tp847
F12
s(S'DP'
S'DDAAAAPP'
tp848
F1
s(S'VP'
S'ADVADVVNP'
tp849
F3
s(g67
S'AMMMP'
tp850
F1
s(g341
S'MNDDP'
tp851
F1
s(S'PP'
S'PADVADVDP'
tp852
F2
s(g373
S'ADVADVVCP'
tp853
F1
s(g121
S'PPNNP'
tp854
F19
s(g394
S'ADVAPPP'
tp855
F2
s(g52
S'PPMP'
tp856
F2
s(g473
S'NNNAACP'
tp857
F1
s(S'CP'
S'CAADDPP'
tp858
F2
s(S'DP'
S'ADVADVDPP'
tp859
F4
s(g272
S'VDP'
tp860
F337
s(g478
S'MMADVADVVP'
tp861
F1
s(S'NP'
S'NADVAP'
tp862
F5
s(S'VP'
S'AVDDP'
tp863
F2
s(S'PP'
S'ADVADVPPNNP'
tp864
F1
s(g574
S'VVDDDP'
tp865
F1
s(g24
S'DAP'
tp866
F31
s(S'MP'
S'MAVNP'
tp867
F1
s(S'CP'
S'CADPP'
tp868
F32
s(S'NP'
S'NADVAVP'
tp869
F1
s(S'PP'
S'PPAVP'
tp870
F2
s(S'PP'
S'PPDDDP'
tp871
F2
s(S'VP'
S'AVPP'
tp872
F6
s(S'NP'
S'NADVADVMP'
tp873
F1
s(g13
S'CAADPPP'
tp874
F4
s(S'VP'
S'AAVCP'
tp875
F3
s(g210
S'ADADVPP'
tp876
F1
s(S'MP'
S'AMNP'
tp877
F1
s(S'VP'
S'VVADVDP'
tp878
F2
s(S'MP'
S'MVADVADVNP'
tp879
F1
s(g423
S'CDPPPP'
tp880
F5
s(S'PP'
S'PPAADP'
tp881
F2
s(S'MP'
S'MDAANP'
tp882
F2
s(S'VP'
S'AAVDP'
tp883
F8
s(S'PP'
S'PANNP'
tp884
F3
s(g191
S'NNDDP'
tp885
F5
s(S'DP'
S'ADPPPP'
tp886
F1
s(S'DP'
S'DAPPP'
tp887
F3
s(S'DP'
S'DADVADVPP'
tp888
F2
s(g435
S'DMP'
tp889
F7
s(g28
S'PPPNP'
tp890
F8
s(S'NP'
S'NADVAPP'
tp891
F1
s(g222
S'PPAANP'
tp892
F1
s(S'NP'
S'AAANPP'
tp893
F1
s(S'PP'
S'PPPPNP'
tp894
F1
s(S'AP'
S'AADP'
tp895
F65
s(S'VP'
S'VADVPP'
tp896
F1
s(g593
S'DDAAPP'
tp897
F2
s(S'DP'
S'ADVDANP'
tp898
F1
s(S'CP'
S'CCADVDDP'
tp899
F1
s(S'NP'
S'NNADVADVAP'
tp900
F1
s(g134
S'ADVPVP'
tp901
F8
s(S'DP'
S'DDDDPP'
tp902
F4
s(S'DP'
S'ADAAAPPP'
tp903
F1
s(S'NP'
S'ADVADVANCP'
tp904
F1
s(S'VP'
S'ADVVANP'
tp905
F1
s(S'PP'
S'ADVPDP'
tp906
F6
s(g795
S'PPPVVP'
tp907
F1
s(S'VP'
S'ADVADVAVVDP'
tp908
F1
s(S'CP'
S'CADVDPPP'
tp909
F4
s(S'PP'
S'PPADVNNP'
tp910
F1
s(g201
S'ADVANDP'
tp911
F1
s(g260
S'ADVVP'
tp912
F2
s(S'VP'
S'VAADP'
tp913
F4
s(S'AP'
S'AAMP'
tp914
F3
s(g503
S'ADVPDDP'
tp915
F1
s(g824
S'AAVVDP'
tp916
F1
s(S'NP'
S'AANDP'
tp917
F4
s(S'MP'
S'MVCCP'
tp918
F2
s(S'DP'
S'DADVNNP'
tp919
F1
s(g152
S'NNCCP'
tp920
F16
s(g813
S'MNVP'
tp921
F17
s(g608
S'AANCCP'
tp922
F3
s(g105
S'VAPP'
tp923
F7
s(S'MP'
S'MADVVANP'
tp924
F1
s(S'VP'
S'ADVVDP'
tp925
F25
s(S'DP'
S'DDADVADVADVPP'
tp926
F1
s(S'VP'
S'VADDP'
tp927
F2
s(S'PP'
S'APADVNP'
tp928
F1
s(g24
S'DADVPP'
tp929
F27
s(g791
S'AMP'
tp930
F28
s(g797
S'CCADP'
tp931
F4
s(S'AP'
S'ADVAPP'
tp932
F6
s(g401
S'ADVDAVP'
tp933
F1
s(S'CP'
S'CCCADVDP'
tp934
F1
s(S'AP'
S'ADVADVANP'
tp935
F1
s(g378
S'AACDP'
tp936
F13
s(S'NP'
S'NNNCCP'
tp937
F4
s(S'CP'
S'CCDDDP'
tp938
F1
s(S'DP'
S'ADVDPPP'
tp939
F7
s(g24
S'DVP'
tp940
F303
s(g44
S'AVNNP'
tp941
F1
s(S'NP'
S'ADVNPP'
tp942
F4
s(S'PP'
S'PADVADVAVVP'
tp943
F1
s(S'AP'
S'AVP'
tp944
F30
s(S'NP'
S'NADVVP'
tp945
F22
s(S'CP'
S'CDAAAPP'
tp946
F2
s(S'NP'
S'NAAACCP'
tp947
F2
s(g142
S'DDPPP'
tp948
F27
s(S'AP'
S'ADVADVADVAPP'
tp949
F1
s(S'NP'
S'ADVNMP'
tp950
F10
s(S'NP'
S'NNAP'
tp951
F10
s(S'MP'
S'MADVVCP'
tp952
F2
s(g196
S'PPANP'
tp953
F3
s(S'MP'
S'MCDDP'
tp954
F2
s(S'CP'
S'CDADVPP'
tp955
F13
s(g272
S'VNP'
tp956
F310
s(S'PP'
S'ADVPMMP'
tp957
F1
s(S'VP'
S'VANP'
tp958
F23
s(g86
S'PADVPPP'
tp959
F1
s(g490
S'VADVAP'
tp960
F7
s(g397
S'ADVNNCCCP'
tp961
F1
s(S'PP'
S'PPADVNP'
tp962
F2
s(S'VP'
S'ADVADVVVDP'
tp963
F2
s(S'NP'
S'NADVPPP'
tp964
F1
s.