ccollections
defaultdict
p1
(c__builtin__
float
p2
tRp3
(S'VP'
S'VVAAAP'
tp4
F1
s(S'NP'
p5
S'NNNNAACCP'
tp6
F1
s(S'PP'
p7
S'PAAANP'
tp8
F1
s(S'DP'
S'ADDPP'
tp9
F3
s(S'DP'
S'ADVDAAVP'
tp10
F1
s(S'DP'
S'DDAP'
tp11
F3
s(S'VP'
S'ADVVVNP'
tp12
F3
s(S'CP'
S'CCDDDDP'
tp13
F2
s(S'VP'
p14
S'VVVVP'
tp15
F2
s(S'CP'
p16
S'CDDDDPPPPP'
tp17
F1
s(S'NP'
S'NADDP'
tp18
F1
s(S'VP'
p19
S'VVADVVP'
tp20
F3
s(S'PP'
p21
S'PAPP'
tp22
F10
s(S'PP'
S'PADVNP'
tp23
F11
s(S'DP'
S'DNP'
tp24
F376
s(S'NP'
S'ADVNDP'
tp25
F1
s(S'PP'
S'AAPDDP'
tp26
F2
s(S'CP'
S'CDPPP'
tp27
F73
s(S'VP'
p28
S'VADP'
tp29
F10
s(S'DP'
S'DNNNNP'
tp30
F3
s(S'DP'
S'DAAP'
tp31
F6
s(S'DP'
S'AADPPPPPP'
tp32
F1
s(S'VP'
p33
S'VAVP'
tp34
F1
s(S'VP'
p35
S'ADVADVADVVVPP'
tp36
F2
s(S'DP'
S'ADNNP'
tp37
F1
s(S'MP'
S'MDVP'
tp38
F1
s(S'NP'
S'ADVADVNCP'
tp39
F2
s(S'VP'
S'ADVVNP'
tp40
F16
s(S'MP'
S'MVDP'
tp41
F26
s(S'PP'
S'PADVANP'
tp42
F3
s(S'NP'
S'AANNPP'
tp43
F1
s(S'PP'
p44
S'PPPP'
tp45
F41
s(S'DP'
p46
S'DDDNP'
tp47
F2
s(S'VP'
p48
S'VACP'
tp49
F6
s(S'PP'
p50
S'PPAAP'
tp51
F3
s(S'DP'
S'DADVVP'
tp52
F6
s(S'VP'
S'ADVVVANP'
tp53
F1
s(S'DP'
S'DDDDDP'
tp54
F2
s(S'NP'
S'NADVACP'
tp55
F1
s(g5
S'NDDDP'
tp56
F1
s(S'NP'
S'NADVVVP'
tp57
F6
s(S'VP'
p58
S'VCP'
tp59
F115
s(S'NP'
p60
S'NMMP'
tp61
F7
s(S'VP'
S'ADVVAAP'
tp62
F1
s(S'DP'
S'DDDNNP'
tp63
F2
s(S'PP'
S'ADVPNNP'
tp64
F2
s(S'PP'
p65
S'PAP'
tp66
F120
s(S'PP'
S'PPANNP'
tp67
F2
s(S'DP'
S'DDADVADVPP'
tp68
F1
s(S'NP'
S'ANNCCP'
tp69
F1
s(S'NP'
p70
S'NNNAP'
tp71
F2
s(S'NP'
S'ANPPP'
tp72
F7
s(S'CP'
S'CADPPPP'
tp73
F1
s(S'PP'
p74
S'PNP'
tp75
F369
s(S'VP'
S'VVADVNNP'
tp76
F1
s(S'DP'
S'DAANNP'
tp77
F1
s(S'DP'
p78
S'DDP'
tp79
F68
s(S'VP'
p80
S'ADVVDDP'
tp81
F1
s(S'NP'
S'NNNPP'
tp82
F7
s(S'VP'
p83
S'VCCP'
tp84
F11
s(S'VP'
S'ADVVVDDP'
tp85
F1
s(S'MP'
S'MCDP'
tp86
F9
s(S'DP'
p87
S'DDAANP'
tp88
F1
s(S'NP'
S'NNADVADVCP'
tp89
F1
s(S'MP'
S'MNAP'
tp90
F1
s(S'NP'
p91
S'NMP'
tp92
F84
s(S'VP'
S'VVVADP'
tp93
F1
s(S'DP'
S'ADCP'
tp94
F1
s(S'CP'
p95
S'CAADPP'
tp96
F3
s(S'VP'
S'AAVNP'
tp97
F2
s(S'VP'
p98
S'VMMP'
tp99
F1
s(S'PP'
S'PDP'
tp100
F376
s(S'DP'
S'DDPPPPP'
tp101
F1
s(S'CP'
S'CCADVADVDP'
tp102
F1
s(S'CP'
S'CDADVADVPP'
tp103
F1
s(S'VP'
p104
S'VNNNNP'
tp105
F1
s(S'DP'
S'ADVDAPPP'
tp106
F1
s(S'CP'
S'CDADVADVPPP'
tp107
F1
s(S'VP'
S'AVAAP'
tp108
F1
s(S'VP'
p109
S'AAAVCP'
tp110
F1
s(S'MP'
S'MADVAPP'
tp111
F1
s(S'VP'
S'AVVAP'
tp112
F1
s(S'AP'
S'ANP'
tp113
F4
s(S'NP'
S'ANADVADVADVADVVVP'
tp114
F1
s(g91
S'NADVADVADVVP'
tp115
F2
s(S'NP'
S'NNADVCP'
tp116
F1
s(S'NP'
p117
S'ANVVVVP'
tp118
F1
s(S'NP'
p119
S'ADVNACP'
tp120
F1
s(S'DP'
S'DPPPP'
tp121
F10
s(S'DP'
S'DDANP'
tp122
F4
s(S'PP'
p123
S'PADVADP'
tp124
F1
s(S'NP'
S'NACP'
tp125
F20
s(S'AP'
p126
S'ADVAVP'
tp127
F2
s(S'NP'
p128
S'NCCP'
tp129
F74
s(S'VP'
p130
S'AAAVPP'
tp131
F1
s(S'AP'
S'AAAADP'
tp132
F1
s(S'NP'
S'NADVADVDDP'
tp133
F1
s(S'NP'
p134
S'NNCP'
tp135
F120
s(S'DP'
p136
S'ADVDDPP'
tp137
F2
s(g117
S'NADVADVVP'
tp138
F1
s(S'NP'
S'NNPPPP'
tp139
F1
s(S'DP'
S'DDDDP'
tp140
F6
s(S'DP'
p141
S'DDAPP'
tp142
F7
s(S'VP'
S'AVNP'
tp143
F7
s(S'NP'
S'NNNNNCP'
tp144
F1
s(S'VP'
S'VVNNNP'
tp145
F1
s(S'PP'
S'ADVAPDP'
tp146
F3
s(S'VP'
S'VVMP'
tp147
F1
s(S'PP'
S'PADVAAANP'
tp148
F1
s(g14
S'VADVVP'
tp149
F2
s(S'MP'
p150
S'MVPPP'
tp151
F4
s(S'NP'
S'ANADVVP'
tp152
F1
s(S'PP'
p153
S'ADVAPVP'
tp154
F2
s(S'PP'
p155
S'ADVPADVNP'
tp156
F1
s(S'NP'
p157
S'NCCCCP'
tp158
F2
s(g16
S'CCCDP'
tp159
F5
s(S'VP'
p160
S'ADVVAP'
tp161
F4
s(S'PP'
S'APDP'
tp162
F42
s(S'NP'
p163
S'NNNNNPP'
tp164
F1
s(S'VP'
S'ADVVNNP'
tp165
F2
s(S'VP'
p166
S'VVANP'
tp167
F4
s(g160
S'VVVVDP'
tp168
F4
s(S'VP'
S'ADVVVP'
tp169
F2
s(S'PP'
S'PPPPPNP'
tp170
F1
s(S'AP'
S'AANP'
tp171
F1
s(S'CP'
S'CCCADP'
tp172
F1
s(S'PP'
S'PPPPMP'
tp173
F2
s(S'PP'
S'PCCP'
tp174
F4
s(S'PP'
p175
S'PAAP'
tp176
F21
s(S'MP'
S'MPNNP'
tp177
F1
s(S'NP'
p178
S'NANP'
tp179
F2
s(S'DP'
p180
S'DNNP'
tp181
F80
s(S'CP'
S'CADVDDPP'
tp182
F1
s(S'DP'
S'DPPPPP'
tp183
F4
s(S'CP'
S'CDDPPPP'
tp184
F1
s(S'CP'
S'CCADVDP'
tp185
F4
s(S'PP'
S'PPAADP'
tp186
F1
s(S'MP'
S'MADVADVADVADVVDP'
tp187
F1
s(S'NP'
S'NNNVP'
tp188
F8
s(S'VP'
S'VADVNNP'
tp189
F1
s(S'PP'
S'AAPPDP'
tp190
F1
s(g21
S'ADVAPVVP'
tp191
F1
s(S'PP'
S'PPNNNNP'
tp192
F1
s(S'VP'
S'AVADVADVADVNNP'
tp193
F1
s(S'PP'
p194
S'PADVVP'
tp195
F12
s(S'DP'
S'DADVVVP'
tp196
F2
s(S'PP'
S'APAP'
tp197
F3
s(S'AP'
p198
S'APP'
tp199
F51
s(S'AP'
p200
S'AAP'
tp201
F4
s(S'VP'
S'VVAPP'
tp202
F1
s(S'DP'
S'DAAAPP'
tp203
F1
s(S'NP'
p204
S'ADVANPP'
tp205
F1
s(S'VP'
S'VVVVPP'
tp206
F2
s(S'VP'
S'VADVADVNP'
tp207
F2
s(S'CP'
S'CDDDDPP'
tp208
F3
s(S'MP'
S'MPVP'
tp209
F1
s(S'PP'
S'PAANP'
tp210
F6
s(S'PP'
S'PPVVP'
tp211
F8
s(S'NP'
p212
S'AAAAAAANPPP'
tp213
F1
s(S'DP'
S'DDDDADVPP'
tp214
F1
s(S'MP'
S'MVNP'
tp215
F30
s(S'MP'
S'AMVP'
tp216
F1
s(S'NP'
S'NNANP'
tp217
F3
s(S'AP'
S'ADVAADP'
tp218
F1
s(S'DP'
S'ADVADNP'
tp219
F1
s(g65
S'PAVP'
tp220
F24
s(S'MP'
S'ADVMVP'
tp221
F1
s(S'PP'
p222
S'ADVADVPPVP'
tp223
F1
s(S'PP'
S'AAPADVVP'
tp224
F1
s(g28
S'VVVPP'
tp225
F8
s(S'PP'
S'APPVP'
tp226
F1
s(S'AP'
S'ADVACCP'
tp227
F3
s(S'DP'
S'DADP'
tp228
F6
s(S'AP'
p229
S'ADVADP'
tp230
F3
s(S'CP'
S'ADVADVCDP'
tp231
F1
s(S'MP'
S'MDPP'
tp232
F1
s(S'DP'
p233
S'ADVDDP'
tp234
F1
s(S'PP'
S'APDDP'
tp235
F7
s(S'PP'
S'PPPPDP'
tp236
F1
s(S'DP'
S'ADVDDDP'
tp237
F1
s(S'PP'
S'AAPNNNP'
tp238
F1
s(S'PP'
S'APVP'
tp239
F21
s(S'MP'
S'MNCP'
tp240
F1
s(S'VP'
p241
S'VVNP'
tp242
F38
s(S'PP'
S'PPPNNP'
tp243
F1
s(S'PP'
S'PPVP'
tp244
F48
s(S'MP'
S'MADVAADP'
tp245
F1
s(S'VP'
S'VADVDP'
tp246
F5
s(S'MP'
S'MVVVPP'
tp247
F2
s(g58
S'VAAP'
tp248
F20
s(S'NP'
S'ANDP'
tp249
F14
s(S'NP'
p250
S'NVVP'
tp251
F80
s(S'PP'
p252
S'AAPVP'
tp253
F1
s(S'VP'
p254
S'VMP'
tp255
F13
s(S'NP'
S'AANNMP'
tp256
F2
s(S'AP'
p257
S'AAAVVP'
tp258
F1
s(S'VP'
S'VVNNP'
tp259
F3
s(S'CP'
p260
S'CDAPP'
tp261
F40
s(S'VP'
p262
S'VVAAP'
tp263
F1
s(S'VP'
p264
S'ADVVVVVP'
tp265
F1
s(S'CP'
S'CDDDDADVPP'
tp266
F1
s(S'DP'
S'ADVADVDDVP'
tp267
F1
s(S'VP'
S'ADVADVVVNNP'
tp268
F1
s(g87
S'ADNP'
tp269
F16
s(S'PP'
p270
S'PADP'
tp271
F23
s(S'VP'
S'ADVVVCP'
tp272
F1
s(S'MP'
S'MVNNNNP'
tp273
F1
s(S'NP'
S'ANDDP'
tp274
F3
s(S'DP'
p275
S'DADVAP'
tp276
F3
s(S'PP'
S'ADVADVPMP'
tp277
F1
s(S'DP'
S'DDADVDP'
tp278
F1
s(S'DP'
p279
S'DAPP'
tp280
F61
s(S'CP'
S'CADVDAPPP'
tp281
F1
s(S'VP'
S'AVVP'
tp282
F1
s(S'VP'
S'ADVADVVPP'
tp283
F1
s(S'MP'
S'MADVADVVNP'
tp284
F1
s(S'DP'
S'DAAVP'
tp285
F1
s(S'VP'
S'ADVADVADVVDP'
tp286
F1
s(S'PP'
p287
S'PPPDP'
tp288
F2
s(g163
S'NNNCCCP'
tp289
F1
s(S'DP'
S'DAAANP'
tp290
F3
s(S'DP'
S'DADVANP'
tp291
F4
s(S'VP'
S'VAAPP'
tp292
F2
s(S'DP'
S'ADVDNP'
tp293
F9
s(S'VP'
S'VVPP'
tp294
F48
s(g28
S'VADVAPP'
tp295
F1
s(g252
S'ADVPAAPP'
tp296
F1
s(S'DP'
S'ADADVPP'
tp297
F2
s(S'MP'
S'MVPP'
tp298
F18
s(g136
S'ADVP'
tp299
F9
s(S'CP'
S'CDDPPP'
tp300
F12
s(S'PP'
S'PPPAP'
tp301
F1
s(S'NP'
p302
S'NNPP'
tp303
F55
s(S'MP'
S'MVVDP'
tp304
F7
s(S'AP'
S'AACP'
tp305
F9
s(g302
S'ANVP'
tp306
F40
s(S'DP'
S'DNNNP'
tp307
F10
s(S'PP'
S'PADVNNP'
tp308
F3
s(S'PP'
S'PADVADVVP'
tp309
F1
s(S'VP'
S'VADVDDP'
tp310
F1
s(S'NP'
S'AAAANDP'
tp311
F2
s(S'PP'
S'PVVVP'
tp312
F4
s(g270
S'PMP'
tp313
F17
s(S'NP'
S'NNMMP'
tp314
F2
s(g194
S'PAAPPP'
tp315
F2
s(S'CP'
p316
S'CCDP'
tp317
F110
s(S'VP'
S'VADVANP'
tp318
F3
s(g44
S'PPNNNP'
tp319
F2
s(S'NP'
S'ADVADVADVNNVVP'
tp320
F1
s(S'DP'
S'AADDPP'
tp321
F1
s(S'NP'
p322
S'NVVVP'
tp323
F14
s(S'CP'
S'CDDDPP'
tp324
F10
s(S'CP'
S'CDAAPP'
tp325
F4
s(S'VP'
S'VVVDP'
tp326
F10
s(S'PP'
S'PDDDDP'
tp327
F1
s(g50
S'PNNNP'
tp328
F14
s(S'CP'
p329
S'CCCCDP'
tp330
F1
s(S'AP'
S'AACCP'
tp331
F2
s(S'PP'
p332
S'AAPNP'
tp333
F3
s(S'CP'
S'CADADVPP'
tp334
F1
s(S'PP'
S'PPP'
tp335
F162
s(g157
S'NAVP'
tp336
F17
s(S'PP'
p337
S'PADVAP'
tp338
F4
s(S'CP'
S'CADVDPPPP'
tp339
F1
s(g141
S'ADVDVP'
tp340
F8
s(S'NP'
S'NAAAP'
tp341
F2
s(S'NP'
p342
S'NCCCP'
tp343
F4
s(S'DP'
S'DADVADVPPP'
tp344
F1
s(S'AP'
S'AADVVP'
tp345
F1
s(S'NP'
p346
S'NNDDP'
tp347
F4
s(S'MP'
S'MADVADVVPP'
tp348
F1
s(S'VP'
p349
S'VPP'
tp350
F195
s(S'DP'
S'ADVDPPPP'
tp351
F1
s(S'NP'
S'NNNADVCP'
tp352
F1
s(S'DP'
p353
S'ADVDDPPP'
tp354
F1
s(S'DP'
p355
S'ADVDDNP'
tp356
F4
s(g212
S'NNNCP'
tp357
F34
s(g194
S'PADVDP'
tp358
F11
s(S'CP'
S'CDADVAPP'
tp359
F2
s(g316
S'CDDDPPP'
tp360
F2
s(S'DP'
p361
S'DANNP'
tp362
F1
s(S'PP'
p363
S'PADVAAP'
tp364
F1
s(S'CP'
p365
S'CDDPP'
tp366
F94
s(g275
S'DAAPP'
tp367
F10
s(g65
S'PVVP'
tp368
F38
s(S'CP'
S'CADPPP'
tp369
F5
s(S'DP'
S'DADVPPP'
tp370
F3
s(S'MP'
S'MAVCP'
tp371
F1
s(S'VP'
S'ADVVCP'
tp372
F3
s(S'MP'
S'MCCDP'
tp373
F1
s(g35
S'VPPP'
tp374
F21
s(S'DP'
S'ADVADVDDNP'
tp375
F1
s(g98
S'VVPPP'
tp376
F7
s(S'VP'
S'ADVVVCCP'
tp377
F1
s(S'PP'
S'PPAP'
tp378
F12
s(g141
S'DVVP'
tp379
F24
s(S'PP'
S'PADVAVP'
tp380
F1
s(S'MP'
p381
S'MPPPDDP'
tp382
F1
s(S'NP'
p383
S'ANMP'
tp384
F3
s(S'AP'
S'APPP'
tp385
F5
s(g155
S'ADVPPP'
tp386
F1
s(g70
S'ADVADVNVP'
tp387
F1
s(S'VP'
p388
S'VVVP'
tp389
F8
s(g329
S'CADVDPP'
tp390
F15
s(S'VP'
p391
S'AVMP'
tp392
F2
s(g134
S'ANCP'
tp393
F60
s(S'DP'
S'DCP'
tp394
F19
s(g355
S'DVVVP'
tp395
F10
s(S'NP'
p396
S'NNDDDDP'
tp397
F1
s(g150
S'MNAAVP'
tp398
F1
s(S'NP'
S'NNVVVVP'
tp399
F3
s(S'NP'
S'NVVVVP'
tp400
F2
s(S'DP'
S'DDDP'
tp401
F13
s(g361
S'DDADVPP'
tp402
F1
s(S'MP'
S'MAADP'
tp403
F2
s(g250
S'ANVVP'
tp404
F9
s(g48
S'VVDP'
tp405
F59
s(g178
S'NPPP'
tp406
F24
s(g123
S'PPAPP'
tp407
F1
s(g78
S'DAVP'
tp408
F21
s(S'VP'
S'VADVADVAP'
tp409
F2
s(S'AP'
S'ACP'
tp410
F69
s(S'PP'
S'AAPAP'
tp411
F2
s(S'NP'
S'NDDDDP'
tp412
F1
s(g44
S'PPNP'
tp413
F69
s(S'PP'
p414
S'APPPP'
tp415
F1
s(S'NP'
S'NAADP'
tp416
F1
s(S'DP'
p417
S'AADVP'
tp418
F4
s(S'VP'
S'ADVAVPPP'
tp419
F1
s(S'NP'
S'NNNNCCP'
tp420
F2
s(S'VP'
S'VAANNP'
tp421
F1
s(S'CP'
S'CDDADVPP'
tp422
F1
s(S'CP'
S'CCCDDP'
tp423
F1
s(S'AP'
S'ADP'
tp424
F210
s(S'DP'
S'DDPPPP'
tp425
F1
s(S'PP'
S'APVVP'
tp426
F1
s(S'NP'
S'ADVANCCP'
tp427
F1
s(S'NP'
S'AAANNCP'
tp428
F1
s(S'DP'
p429
S'DVVVVP'
tp430
F2
s(S'VP'
S'VVPPPP'
tp431
F1
s(S'DP'
S'DADVADVDP'
tp432
F1
s(S'AP'
p433
S'AAADP'
tp434
F7
s(S'NP'
S'ANNVP'
tp435
F1
s(S'VP'
p436
S'VVAP'
tp437
F13
s(S'PP'
S'PPNNNNNP'
tp438
F1
s(g95
S'ADVACDP'
tp439
F5
s(g222
S'PADVADVPPP'
tp440
F1
s(S'NP'
p441
S'NPP'
tp442
F315
s(S'PP'
S'PPPPNP'
tp443
F3
s(g302
S'NVP'
tp444
F337
s(S'PP'
S'PPVVVP'
tp445
F1
s(S'PP'
p446
S'PAAVP'
tp447
F1
s(S'NP'
S'NAAPP'
tp448
F1
s(S'PP'
S'PPPPVP'
tp449
F1
s(S'DP'
S'DDDDNNP'
tp450
F1
s(g33
S'VDDP'
tp451
F43
s(S'AP'
S'AAADVDP'
tp452
F1
s(S'NP'
S'AAAANAAP'
tp453
F1
s(S'NP'
S'AANVVP'
tp454
F3
s(S'DP'
S'DADVAPP'
tp455
F3
s(S'NP'
S'NNADVACP'
tp456
F1
s(S'PP'
p457
S'PAAAVP'
tp458
F1
s(S'NP'
S'NADVADVVVP'
tp459
F3
s(S'NP'
S'ANPP'
tp460
F42
s(S'PP'
S'ADVPPDP'
tp461
F2
s(g337
S'PPPPP'
tp462
F7
s(g381
S'MPDP'
tp463
F1
s(S'PP'
S'ADVADVPDP'
tp464
F1
s(S'MP'
S'MVVPP'
tp465
F3
s(g141
S'ADVDPP'
tp466
F21
s(S'NP'
S'AAANVVVVP'
tp467
F1
s(S'MP'
S'MMDDP'
tp468
F1
s(S'NP'
S'ADVADVNPP'
tp469
F1
s(S'MP'
S'MVAANNP'
tp470
F1
s(g128
S'NPPPP'
tp471
F2
s(S'DP'
S'ADDP'
tp472
F1
s(g157
S'ADVNADP'
tp473
F1
s(S'MP'
S'MVAADP'
tp474
F1
s(S'NP'
S'AAANCP'
tp475
F2
s(S'DP'
S'DDADVADVPPP'
tp476
F1
s(g117
S'NAACP'
tp477
F3
s(S'PP'
S'PNNP'
tp478
F76
s(S'NP'
S'AAANADVVVP'
tp479
F1
s(S'PP'
S'APNNP'
tp480
F5
s(S'MP'
S'MMNP'
tp481
F1
s(S'DP'
S'AAADPP'
tp482
F1
s(g388
S'AVAP'
tp483
F4
s(S'MP'
S'MMVP'
tp484
F7
s(S'PP'
S'PADVDDP'
tp485
F2
s(S'AP'
S'AAPPPP'
tp486
F1
s(S'NP'
S'ADVNCP'
tp487
F8
s(S'AP'
S'AADP'
tp488
F42
s(g342
S'NAPPP'
tp489
F1
s(S'CP'
S'ACDP'
tp490
F27
s(S'NP'
p491
S'NNDP'
tp492
F23
s(S'AP'
S'ADVANP'
tp493
F2
s(g346
S'NNACP'
tp494
F2
s(S'CP'
S'CDADVPPP'
tp495
F3
s(S'VP'
p496
S'VAP'
tp497
F109
s(S'VP'
S'VVVVNP'
tp498
F1
s(S'DP'
S'DDDPP'
tp499
F18
s(S'CP'
S'ADVCDDP'
tp500
F1
s(S'NP'
S'AANNCP'
tp501
F2
s(g363
S'ADVPMP'
tp502
F2
s(g446
S'PAAPP'
tp503
F2
s(S'AP'
S'ADVAAPP'
tp504
F1
s(S'MP'
p505
S'MNMP'
tp506
F1
s(S'DP'
S'DDDPPP'
tp507
F4
s(S'DP'
S'DADVDP'
tp508
F1
s(S'MP'
S'MVVCCP'
tp509
F1
s(S'VP'
S'ADVVVDP'
tp510
F1
s(S'MP'
S'MANVP'
tp511
F1
s(S'PP'
S'PPPVP'
tp512
F3
s(S'VP'
p513
S'AAVAP'
tp514
F1
s(S'AP'
S'AADDP'
tp515
F5
s(S'VP'
S'VADVADVADVCP'
tp516
F1
s(S'VP'
S'VAANP'
tp517
F3
s(g65
S'ADVPVP'
tp518
F5
s(S'VP'
S'ADVADVADVADVVDP'
tp519
F1
s(S'NP'
p520
S'NADVADVADVVVP'
tp521
F1
s(S'MP'
S'MVVVCP'
tp522
F1
s(S'MP'
S'MPNP'
tp523
F3
s(S'MP'
S'MADP'
tp524
F1
s(S'PP'
p525
S'PPPDDP'
tp526
F3
s(S'CP'
S'CCAADP'
tp527
F1
s(S'DP'
S'DDADVNP'
tp528
F1
s(g65
S'PANP'
tp529
F50
s(S'DP'
S'AADNP'
tp530
F1
s(S'NP'
S'NADVDDP'
tp531
F2
s(S'NP'
S'AANMP'
tp532
F1
s(S'AP'
p533
S'AAVP'
tp534
F6
s(g198
S'AVVP'
tp535
F7
s(S'NP'
S'NDDP'
tp536
F13
s(S'CP'
p537
S'CDDADVADVPPP'
tp538
F1
s(g533
S'ACCP'
tp539
F9
s(g180
S'DDDDPPPPP'
tp540
F1
s(S'PP'
S'PADVADVADVDDP'
tp541
F1
s(S'VP'
S'VVVVAP'
tp542
F1
s(S'NP'
S'NDP'
tp543
F147
s(S'VP'
S'ADVVANP'
tp544
F1
s(S'NP'
S'AAANVP'
tp545
F1
s(S'MP'
S'MVAAP'
tp546
F1
s(g46
S'DDVP'
tp547
F33
s(S'NP'
S'AANVP'
tp548
F3
s(S'VP'
S'VNNNP'
tp549
F3
s(S'VP'
S'VADVADVPP'
tp550
F1
s(S'NP'
p551
S'NNNNVVP'
tp552
F2
s(g175
S'APADVDP'
tp553
F2
s(g21
S'PCP'
tp554
F14
s(S'NP'
S'NNPPP'
tp555
F4
s(g525
S'PAADP'
tp556
F3
s(S'NP'
S'ADVNNVP'
tp557
F3
s(g119
S'ADVANVVP'
tp558
F1
s(S'VP'
S'VPPPP'
tp559
F1
s(S'NP'
S'NNNMP'
tp560
F1
s(S'PP'
p561
S'PACP'
tp562
F1
s(S'MP'
S'MVNNNP'
tp563
F1
s(S'NP'
S'NNNDP'
tp564
F3
s(g80
S'VVVVAACP'
tp565
F1
s(S'AP'
S'ADVACP'
tp566
F7
s(S'NP'
S'ADVADVNMP'
tp567
F1
s(S'VP'
S'AVVDP'
tp568
F2
s(g87
S'ADPPP'
tp569
F6
s(S'MP'
S'MVCP'
tp570
F3
s(S'CP'
S'CCDDP'
tp571
F18
s(S'NP'
p572
S'NNADVVP'
tp573
F5
s(g7
S'PPADVADVVP'
tp574
F1
s(S'VP'
S'ADVADVADVVPP'
tp575
F1
s(S'NP'
S'NAAP'
tp576
F10
s(S'DP'
S'DADVNP'
tp577
F6
s(g396
S'NAAMP'
tp578
F1
s(g332
S'PPADVCP'
tp579
F1
s(S'NP'
S'NNNNVP'
tp580
F1
s(g496
S'VVCP'
tp581
F19
s(S'NP'
S'AANCP'
tp582
F10
s(g104
S'VADVNP'
tp583
F5
s(g65
S'APPP'
tp584
F12
s(S'MP'
S'MNNPP'
tp585
F1
s(g19
S'ADVVPP'
tp586
F5
s(S'DP'
S'DDDPPPPP'
tp587
F1
s(S'NP'
S'NAAAAP'
tp588
F1
s(S'VP'
S'VNNP'
tp589
F33
s(g200
S'AADVDP'
tp590
F3
s(g128
S'NADP'
tp591
F3
s(g141
S'DDNP'
tp592
F60
s(S'NP'
S'NADVCP'
tp593
F4
s(g417
S'DDNNP'
tp594
F16
s(S'PP'
p595
S'AAPPP'
tp596
F4
s(g130
S'VPPPPP'
tp597
F1
s(S'NP'
S'ADVANVP'
tp598
F1
s(S'MP'
S'MNVVVP'
tp599
F1
s(S'PP'
p600
S'PADVADVCP'
tp601
F1
s(S'DP'
S'AADPP'
tp602
F5
s(S'PP'
S'APPNP'
tp603
F1
s(S'NP'
S'NNNNPP'
tp604
F3
s(S'PP'
S'ADVADVPPDP'
tp605
F1
s(S'CP'
S'CDPPPPP'
tp606
F3
s(g505
S'MVVNP'
tp607
F1
s(S'NP'
S'NNADVADVADVVVP'
tp608
F1
s(S'CP'
S'ACDDP'
tp609
F4
s(g257
S'AAPP'
tp610
F8
s(S'VP'
S'VVCCP'
tp611
F1
s(S'PP'
S'PADVMP'
tp612
F2
s(S'DP'
S'DADVADVNP'
tp613
F1
s(g561
S'ADVPANP'
tp614
F1
s(S'NP'
S'AAANNCCP'
tp615
F1
s(g134
S'NAPP'
tp616
F19
s(S'AP'
S'AAADVADVDDP'
tp617
F1
s(g204
S'NADVDP'
tp618
F1
s(S'VP'
S'VVVCP'
tp619
F2
s(g537
S'ADVADVCADP'
tp620
F1
s(S'MP'
S'MVDDP'
tp621
F1
s(g491
S'ANCCP'
tp622
F7
s(S'NP'
S'AANPP'
tp623
F5
s(S'VP'
S'VDDDP'
tp624
F2
s(S'NP'
S'NNMP'
tp625
F28
s(S'DP'
S'DDDVP'
tp626
F2
s(S'CP'
S'CADDPP'
tp627
F2
s(g414
S'ADVADVPNP'
tp628
F1
s(S'NP'
S'AAAANCP'
tp629
F1
s(g329
S'CDDAPP'
tp630
F3
s(g262
S'VVVPPP'
tp631
F1
s(g60
S'ANAP'
tp632
F9
s(S'MP'
S'MVAP'
tp633
F11
s(g74
S'PVP'
tp634
F282
s(S'MP'
S'MVDDDP'
tp635
F1
s(S'DP'
S'DADVAVP'
tp636
F1
s(S'MP'
S'AAMVP'
tp637
F1
s(S'VP'
S'VADVCCP'
tp638
F1
s(S'MP'
S'MADVADVVCP'
tp639
F1
s(S'PP'
S'PPPPAVP'
tp640
F1
s(g520
S'ANNCP'
tp641
F2
s(g60
S'ADVADVADVNVP'
tp642
F1
s(S'NP'
S'ADVAAANPP'
tp643
F1
s(g595
S'PPDDP'
tp644
F5
s(S'VP'
S'AVCP'
tp645
F7
s(S'NP'
S'NAVVP'
tp646
F1
s(S'DP'
p647
S'DPP'
tp648
F512
s(S'NP'
S'ADVNVP'
tp649
F8
s(g647
S'DDPP'
tp650
F139
s(S'DP'
S'DANP'
tp651
F78
s(S'NP'
S'NADVPP'
tp652
F4
s(g600
S'ADVADVPPNP'
tp653
F1
s(S'CP'
S'AACCADVDP'
tp654
F1
s(S'MP'
S'MMAP'
tp655
F1
s(g194
S'AAPPVP'
tp656
F1
s(S'NP'
S'NAAVP'
tp657
F3
s(S'PP'
p658
S'PDDDP'
tp659
F4
s(S'AP'
S'AAAAPP'
tp660
F1
s(S'NP'
S'NNNNAP'
tp661
F1
s(S'NP'
S'NNNNCP'
tp662
F1
s(S'MP'
S'MDNP'
tp663
F8
s(S'DP'
S'ADDPPP'
tp664
F1
s(g441
S'NNNVVP'
tp665
F2
s(S'NP'
S'NNVVVVVP'
tp666
F1
s(S'DP'
S'DCCP'
tp667
F4
s(g417
S'AADDP'
tp668
F1
s(S'AP'
S'AADDDDP'
tp669
F1
s(g525
S'AAPDP'
tp670
F4
s(S'MP'
S'MADVVDP'
tp671
F4
s(S'VP'
S'VVVAP'
tp672
F1
s(g658
S'PDDP'
tp673
F57
s(g153
S'PADVAPP'
tp674
F1
s(S'NP'
S'NNNADVVP'
tp675
F2
s(g178
S'NNVP'
tp676
F76
s(S'PP'
S'APAAP'
tp677
F1
s(g496
S'AVDP'
tp678
F29
s(S'NP'
S'NNP'
tp679
F1
s(g391
S'VVDDP'
tp680
F7
s(g233
S'DAANP'
tp681
F6
s(S'CP'
S'CCCCADP'
tp682
F1
s(g126
S'ADDP'
tp683
F23
s(S'PP'
S'PNNNNP'
tp684
F2
s(g287
S'ADVPPNP'
tp685
F2
s(S'CP'
S'CADVADVDPP'
tp686
F3
s(S'CP'
S'ADVADVADVCDP'
tp687
F2
s(g180
S'DPPP'
tp688
F113
s(S'DP'
S'DAVVP'
tp689
F1
s(g254
S'VANNP'
tp690
F2
s(g5
S'NNAVP'
tp691
F1
s(S'PP'
S'PPPANP'
tp692
F1
s(S'DP'
S'DDADVADVNP'
tp693
F1
s(S'PP'
S'ADVPNP'
tp694
F10
s(g44
S'PPDP'
tp695
F47
s(S'CP'
S'ADVCCADDP'
tp696
F1
s(S'VP'
S'VADVACP'
tp697
F3
s(g429
S'DDCP'
tp698
F1
s(S'VP'
S'VVVVVPP'
tp699
F1
s(g65
S'PAANNP'
tp700
F1
s(g561
S'PPADVDDP'
tp701
F1
s(g212
S'NAP'
tp702
F77
s(S'NP'
S'NNAAP'
tp703
F1
s(S'VP'
p704
S'VAAAP'
tp705
F2
s(S'VP'
S'ADVADVADVADVVVANP'
tp706
F1
s(S'VP'
S'ADVAVNP'
tp707
F1
s(g104
S'VVP'
tp708
F40
s(S'MP'
S'ADVMNP'
tp709
F1
s(S'NP'
S'NNVVP'
tp710
F13
s(S'PP'
S'ADVADVPVP'
tp711
F1
s(g21
S'APNP'
tp712
F19
s(S'VP'
S'VVVNNP'
tp713
F1
s(S'DP'
S'DDDAPP'
tp714
F1
s(S'DP'
S'DDVVP'
tp715
F6
s(g264
S'VVVNP'
tp716
F9
s(S'MP'
S'MNPP'
tp717
F1
s(g551
S'NAMP'
tp718
F1
s(S'MP'
S'MVANP'
tp719
F1
s(g365
S'CDPP'
tp720
F441
s(S'AP'
S'ADDDP'
tp721
F2
s(S'DP'
S'ADVDVVP'
tp722
F1
s(S'MP'
S'MAAVDP'
tp723
F1
s(S'CP'
S'ADVCDP'
tp724
F6
s(S'AP'
S'ADVAAP'
tp725
F1
s(g83
S'ADVADVVNP'
tp726
F3
s(S'NP'
S'NADVADVADVCP'
tp727
F1
s(S'NP'
S'NNNNPPP'
tp728
F2
s(g222
S'PADVADVDP'
tp729
F1
s(g704
S'ADVADVVCP'
tp730
F2
s(g513
S'AVNNNNP'
tp731
F1
s(S'PP'
S'PPNNP'
tp732
F10
s(g457
S'ADVPAVP'
tp733
F1
s(S'PP'
S'PPMP'
tp734
F1
s(S'CP'
S'CAADDPP'
tp735
F1
s(S'DP'
S'ADVADVDPP'
tp736
F6
s(g349
S'VDP'
tp737
F334
s(S'PP'
S'PPPADVNP'
tp738
F1
s(S'NP'
S'NADVAP'
tp739
F4
s(S'VP'
S'AVDDP'
tp740
F4
s(S'DP'
p741
S'DAP'
tp742
F49
s(S'CP'
S'CADPP'
tp743
F52
s(S'PP'
S'PPAVP'
tp744
F2
s(g496
S'AVPP'
tp745
F12
s(S'CP'
S'CDPPPP'
tp746
F9
s(S'VP'
S'VADVADVCCP'
tp747
F1
s(S'VP'
S'AAVDP'
tp748
F4
s(S'DP'
S'AADNNP'
tp749
F1
s(S'PP'
S'PANNP'
tp750
F1
s(S'NP'
S'ADVANMP'
tp751
F1
s(g433
S'AAAPP'
tp752
F2
s(S'DP'
S'ADPPPP'
tp753
F1
s(S'DP'
S'DADVADVPP'
tp754
F2
s(g353
S'DMP'
tp755
F5
s(S'PP'
S'PPPNP'
tp756
F8
s(S'NP'
S'AAANPP'
tp757
F2
s(S'PP'
p758
S'PADVADVNP'
tp759
F1
s(g141
S'ADPP'
tp760
F73
s(g600
S'PPPVVP'
tp761
F1
s(S'NP'
S'NNADVVVP'
tp762
F1
s(S'VP'
S'VADVPP'
tp763
F4
s(S'CP'
S'CCADVDDP'
tp764
F1
s(S'CP'
S'CCAAADP'
tp765
F1
s(S'DP'
S'DDDDPP'
tp766
F5
s(S'AP'
S'ADVADVAVP'
tp767
F1
s(g572
S'ADVANCP'
tp768
F4
s(S'MP'
S'MACDP'
tp769
F1
s(S'NP'
S'NNVVVP'
tp770
F2
s(g194
S'PADVADVADVNP'
tp771
F1
s(S'PP'
S'ADVPDP'
tp772
F3
s(S'NP'
S'NNNAVVP'
tp773
F1
s(S'NP'
S'ANNPP'
tp774
F3
s(S'NP'
S'NCP'
tp775
F360
s(S'VP'
S'ADVVVPP'
tp776
F2
s(S'PP'
S'PPADVNNP'
tp777
F1
s(g758
S'AAAPNP'
tp778
F1
s(g383
S'ADVANDP'
tp779
F2
s(S'DP'
S'ADVVP'
tp780
F1
s(S'CP'
S'CDDADVADVPP'
tp781
F1
s(g166
S'VAADP'
tp782
F2
s(S'PP'
S'PPAAAP'
tp783
F1
s(g322
S'AANDP'
tp784
F1
s(S'DP'
S'DADVNNP'
tp785
F2
s(S'NP'
S'NNCCP'
tp786
F18
s(S'MP'
S'MNVP'
tp787
F13
s(S'NP'
S'AANAP'
tp788
F2
s(S'CP'
S'ADVADVCCDP'
tp789
F1
s(S'NP'
S'AANCCP'
tp790
F3
s(g241
S'VAPP'
tp791
F16
s(S'NP'
S'NPPPPP'
tp792
F1
s(S'MP'
S'MADVVANP'
tp793
F1
s(S'VP'
S'ADVVDP'
tp794
F22
s(g109
S'VAAAVP'
tp795
F1
s(g222
S'APADVNP'
tp796
F1
s(g279
S'DADVPP'
tp797
F16
s(g229
S'AMP'
tp798
F7
s(S'CP'
S'CCADP'
tp799
F6
s(S'NP'
S'ADVNNCP'
tp800
F5
s(S'DP'
S'ADVDAP'
tp801
F1
s(S'NP'
p802
S'NNNPPP'
tp803
F3
s(S'AP'
S'ADVAPP'
tp804
F6
s(S'DP'
S'DDADVAPP'
tp805
F1
s(S'AP'
S'ADVADVANP'
tp806
F1
s(S'CP'
S'AACDP'
tp807
F4
s(S'NP'
S'NNNCCP'
tp808
F3
s(S'CP'
S'CCDDDP'
tp809
F4
s(S'PP'
S'PPADVNP'
tp810
F1
s(g741
S'DVP'
tp811
F237
s(S'DP'
S'ADVADVADVDDVP'
tp812
F1
s(g91
S'ADVNPP'
tp813
F3
s(g212
S'NNCCCP'
tp814
F1
s(g198
S'AVP'
tp815
F32
s(g117
S'NADVVP'
tp816
F13
s(S'CP'
S'CDAAAPP'
tp817
F1
s(S'AP'
S'AACCCP'
tp818
F1
s(S'DP'
S'DDPPP'
tp819
F20
s(S'NP'
S'ADVNMP'
tp820
F4
s(g802
S'NNAP'
tp821
F9
s(S'PP'
S'PPANP'
tp822
F5
s(S'MP'
S'MCDDP'
tp823
F2
s(S'PP'
S'PPCCP'
tp824
F1
s(g260
S'CDADVPP'
tp825
F6
s(g436
S'VNP'
tp826
F269
s(S'VP'
S'VANP'
tp827
F20
s(g33
S'VADVAP'
tp828
F12
s(S'PP'
S'PPPAAANP'
tp829
F1
s(S'DP'
S'DDDDAPP'
tp830
F1
s(S'DP'
S'DDDDVP'
tp831
F1
s(S'VP'
S'ADVADVVVDP'
tp832
F2
s(S'NP'
S'NADVPPP'
tp833
F1
s.