ccollections
defaultdict
p1
(c__builtin__
float
p2
tRp3
(S'CP'
S'CAAADPP'
tp4
F1
s(S'PP'
S'PAAANP'
tp5
F1
s(S'DP'
S'ADDPP'
tp6
F2
s(S'DP'
S'DDAP'
tp7
F1
s(S'VP'
S'ADVVVNP'
tp8
F5
s(S'VP'
S'VVVVP'
tp9
F1
s(S'VP'
p10
S'VVADVVP'
tp11
F1
s(S'PP'
p12
S'PAPP'
tp13
F3
s(S'PP'
S'PADVNP'
tp14
F13
s(S'DP'
S'DNP'
tp15
F204
s(S'DP'
S'AADDNP'
tp16
F1
s(S'NP'
S'ADVNDP'
tp17
F2
s(S'CP'
p18
S'CDPPP'
tp19
F26
s(S'PP'
S'ADVPPANP'
tp20
F1
s(S'VP'
p21
S'VADP'
tp22
F6
s(S'DP'
p23
S'DAAP'
tp24
F3
s(S'PP'
p25
S'PPPPPP'
tp26
F1
s(S'VP'
p27
S'VAVP'
tp28
F2
s(S'CP'
S'CADVADVDPPP'
tp29
F1
s(S'DP'
p30
S'ADNNP'
tp31
F1
s(S'MP'
S'MDVP'
tp32
F1
s(S'PP'
S'PADVADVAAP'
tp33
F1
s(S'PP'
S'APVP'
tp34
F5
s(S'MP'
S'MVDP'
tp35
F17
s(S'NP'
S'AANNPP'
tp36
F1
s(S'PP'
p37
S'PPPP'
tp38
F14
s(S'DP'
p39
S'DDMP'
tp40
F1
s(S'VP'
S'VACP'
tp41
F5
s(S'AP'
S'AAAVP'
tp42
F2
s(S'DP'
p43
S'DADVVP'
tp44
F7
s(S'CP'
S'CADDAPP'
tp45
F1
s(S'MP'
S'MVVNNNP'
tp46
F1
s(S'NP'
S'NADVACP'
tp47
F2
s(S'DP'
S'ADVADVDDPPP'
tp48
F1
s(S'NP'
S'NCCCP'
tp49
F1
s(S'CP'
S'CADVADVDDPP'
tp50
F1
s(g21
S'VCP'
tp51
F88
s(S'CP'
S'ADVCADVADVDDDP'
tp52
F1
s(S'NP'
S'NMMP'
tp53
F2
s(S'VP'
S'VVAANNP'
tp54
F1
s(S'VP'
S'VVVPP'
tp55
F2
s(S'DP'
p56
S'DDDNNP'
tp57
F1
s(S'PP'
S'ADVPADP'
tp58
F1
s(S'PP'
p59
S'PAP'
tp60
F95
s(S'VP'
p61
S'VADVADVAP'
tp62
F1
s(S'NP'
p63
S'ANNCCP'
tp64
F1
s(S'PP'
S'ADVPPVP'
tp65
F1
s(S'NP'
S'NNNAP'
tp66
F2
s(S'NP'
S'ANPPP'
tp67
F1
s(S'VP'
S'VAAVP'
tp68
F1
s(S'PP'
p69
S'PNP'
tp70
F253
s(S'DP'
S'DDP'
tp71
F43
s(S'NP'
S'NNNPP'
tp72
F2
s(S'PP'
S'PAAP'
tp73
F13
s(S'VP'
S'ADVVVDDP'
tp74
F1
s(S'MP'
S'MCDP'
tp75
F5
s(S'MP'
S'MNAP'
tp76
F3
s(S'NP'
p77
S'NMP'
tp78
F75
s(S'VP'
S'VAAADP'
tp79
F1
s(S'VP'
S'AAVNP'
tp80
F1
s(S'MP'
S'MVVAANNP'
tp81
F1
s(S'PP'
S'PDP'
tp82
F189
s(S'NP'
p83
S'NNNNAAVP'
tp84
F1
s(S'NP'
S'ADVNVVP'
tp85
F1
s(S'VP'
S'VNNNNP'
tp86
F1
s(S'AP'
S'ANP'
tp87
F2
s(S'PP'
p88
S'PADVPP'
tp89
F2
s(S'NP'
S'NNADVCP'
tp90
F1
s(S'VP'
S'VVADVNP'
tp91
F2
s(S'PP'
S'PPADVAP'
tp92
F2
s(S'DP'
p93
S'DPPPP'
tp94
F6
s(S'NP'
S'NACP'
tp95
F8
s(S'AP'
S'ADVAVP'
tp96
F1
s(S'NP'
p97
S'NCCP'
tp98
F25
s(S'CP'
p99
S'CADVDDPP'
tp100
F2
s(S'NP'
p101
S'NNCP'
tp102
F121
s(S'DP'
p103
S'ADVDDPP'
tp104
F3
s(S'NP'
S'NADVADVVP'
tp105
F2
s(S'DP'
p106
S'DDDDP'
tp107
F1
s(S'VP'
p108
S'AVNP'
tp109
F5
s(S'VP'
S'VVADP'
tp110
F1
s(S'VP'
p111
S'ADVADVVNNNP'
tp112
F1
s(S'PP'
S'ADVPVVP'
tp113
F1
s(S'VP'
S'VADVVP'
tp114
F3
s(S'MP'
S'MVAPP'
tp115
F1
s(S'MP'
S'MVPPP'
tp116
F1
s(S'NP'
S'ANADVVP'
tp117
F1
s(S'PP'
p118
S'ADVAPVP'
tp119
F1
s(S'CP'
S'CCCDP'
tp120
F2
s(S'VP'
S'ADVVAP'
tp121
F3
s(g12
S'APDP'
tp122
F6
s(S'PP'
S'ADVADVAPNP'
tp123
F1
s(S'VP'
S'ADVVNNP'
tp124
F1
s(S'AP'
S'AADVCP'
tp125
F1
s(S'DP'
S'DDANNP'
tp126
F1
s(S'MP'
S'MVADVNP'
tp127
F1
s(S'VP'
S'ADVVVP'
tp128
F1
s(S'DP'
S'DADVADVADVPP'
tp129
F1
s(S'CP'
S'CCCADP'
tp130
F1
s(S'NP'
S'NANP'
tp131
F3
s(g56
S'DNNP'
tp132
F21
s(S'VP'
S'ADVVAANP'
tp133
F1
s(S'DP'
S'DPPPPP'
tp134
F2
s(S'CP'
S'CDDPPPP'
tp135
F3
s(S'CP'
S'CCADVDP'
tp136
F1
s(S'NP'
S'NNNVP'
tp137
F4
s(S'PP'
S'PPAAPP'
tp138
F1
s(S'PP'
S'ADVAPVVP'
tp139
F1
s(S'PP'
S'PPNNNNP'
tp140
F1
s(S'PP'
S'PADVVP'
tp141
F3
s(S'PP'
p142
S'ADVAPNNP'
tp143
F1
s(S'AP'
S'APP'
tp144
F27
s(S'NP'
p145
S'NADVMP'
tp146
F1
s(S'AP'
S'AAP'
tp147
F10
s(S'NP'
p148
S'ADVANPP'
tp149
F2
s(S'MP'
p150
S'MVVCP'
tp151
F1
s(S'CP'
S'CDDDDPP'
tp152
F1
s(S'MP'
S'MPVP'
tp153
F1
s(S'MP'
S'MVVVNP'
tp154
F1
s(S'PP'
S'PAANP'
tp155
F4
s(S'PP'
S'PPPDDDP'
tp156
F1
s(S'NP'
S'ANVP'
tp157
F15
s(S'DP'
S'DDDDADVPP'
tp158
F1
s(S'MP'
S'MVNP'
tp159
F41
s(S'AP'
S'AADVNP'
tp160
F1
s(S'NP'
S'ANAAP'
tp161
F1
s(S'PP'
S'PAVP'
tp162
F12
s(S'MP'
S'ADVMVP'
tp163
F1
s(S'VP'
S'ADVVMP'
tp164
F2
s(g142
S'PPADVNNP'
tp165
F1
s(S'NP'
S'NNNNNMP'
tp166
F1
s(S'DP'
p167
S'DADP'
tp168
F2
s(S'DP'
S'ADVDVVP'
tp169
F1
s(S'AP'
S'ADVADP'
tp170
F8
s(S'CP'
S'ADVADVCDP'
tp171
F1
s(S'DP'
S'ADVDDP'
tp172
F1
s(S'NP'
S'NNACCP'
tp173
F1
s(S'PP'
S'PPCP'
tp174
F1
s(S'VP'
p175
S'ADVVNP'
tp176
F15
s(S'MP'
p177
S'MNCP'
tp178
F1
s(S'VP'
S'VVNP'
tp179
F25
s(g37
S'PPVP'
tp180
F24
s(S'VP'
S'VADVDP'
tp181
F3
s(S'MP'
S'MVVVPP'
tp182
F1
s(S'VP'
S'VAAP'
tp183
F20
s(S'MP'
S'MANPP'
tp184
F1
s(S'NP'
S'ANDP'
tp185
F8
s(S'NP'
S'NVVP'
tp186
F36
s(S'PP'
S'AAPVP'
tp187
F2
s(S'CP'
S'ADVCADDP'
tp188
F1
s(S'VP'
S'VMP'
tp189
F11
s(S'VP'
S'VVNNP'
tp190
F4
s(S'CP'
S'CDAPP'
tp191
F14
s(S'DP'
S'ADVADVP'
tp192
F1
s(S'DP'
S'ADNP'
tp193
F3
s(S'PP'
S'PADP'
tp194
F5
s(S'MP'
S'MDANP'
tp195
F2
s(S'DP'
S'DAPP'
tp196
F19
s(S'VP'
S'VVVVPP'
tp197
F1
s(S'VP'
S'ADVADVVPP'
tp198
F2
s(S'DP'
S'ADDAPP'
tp199
F1
s(g118
S'ADVADVADVPPP'
tp200
F1
s(S'PP'
S'ADVPVVVP'
tp201
F1
s(S'PP'
S'AAAPVP'
tp202
F2
s(S'VP'
S'ADVADVVDP'
tp203
F3
s(S'VP'
S'AVVNP'
tp204
F1
s(S'PP'
S'PPPDP'
tp205
F1
s(S'PP'
S'AAAPDP'
tp206
F1
s(S'MP'
S'MVVAP'
tp207
F1
s(S'DP'
p208
S'DADVANP'
tp209
F2
s(S'NP'
S'ANADVVVP'
tp210
F1
s(S'DP'
S'ADVDNP'
tp211
F1
s(S'VP'
S'VVPP'
tp212
F16
s(S'NP'
S'AAAANVP'
tp213
F1
s(S'DP'
S'DDDADVNP'
tp214
F1
s(S'MP'
S'MVPP'
tp215
F14
s(g93
S'ADVP'
tp216
F6
s(S'CP'
S'CDDPPP'
tp217
F3
s(S'NP'
p218
S'NNPP'
tp219
F17
s(S'MP'
S'MVVDP'
tp220
F3
s(S'AP'
S'AACP'
tp221
F10
s(S'PP'
S'PPVVP'
tp222
F1
s(g56
S'DNNNP'
tp223
F7
s(S'VP'
S'VADVDDP'
tp224
F1
s(S'PP'
p225
S'PMP'
tp226
F12
s(S'CP'
S'CCDP'
tp227
F45
s(S'NP'
S'ANNDP'
tp228
F1
s(S'MP'
p229
S'AMVP'
tp230
F3
s(S'CP'
p231
S'CCCCDDDP'
tp232
F1
s(S'DP'
S'AADDPP'
tp233
F1
s(S'NP'
S'NVVVP'
tp234
F4
s(S'CP'
S'CDDDPP'
tp235
F5
s(S'PP'
p236
S'PPADVVP'
tp237
F1
s(g111
S'VVVDP'
tp238
F2
s(S'PP'
S'PNNNP'
tp239
F2
s(S'PP'
S'PADVVVP'
tp240
F1
s(g37
S'PPP'
tp241
F69
s(S'VP'
S'VADVADVADVANP'
tp242
F1
s(S'NP'
p243
S'NAVP'
tp244
F7
s(S'PP'
S'PADVAP'
tp245
F1
s(g56
S'DDNNNP'
tp246
F2
s(S'DP'
S'ADVDVP'
tp247
F3
s(S'NP'
S'NADVVVP'
tp248
F1
s(S'NP'
p249
S'ADVNNAVVP'
tp250
F1
s(S'MP'
S'MADVADVVPP'
tp251
F2
s(S'VP'
S'VPP'
tp252
F77
s(g18
S'ADVCCDP'
tp253
F1
s(S'CP'
S'ACCDP'
tp254
F1
s(S'NP'
S'NNNCP'
tp255
F7
s(S'PP'
S'PADVDP'
tp256
F3
s(S'CP'
p257
S'CDADVAPP'
tp258
F1
s(S'DP'
S'DANNP'
tp259
F2
s(S'MP'
S'MADVVAP'
tp260
F1
s(S'CP'
S'CDDPP'
tp261
F35
s(S'DP'
S'DAAPP'
tp262
F4
s(S'PP'
S'PVVP'
tp263
F21
s(S'CP'
S'CADPPP'
tp264
F1
s(S'DP'
S'DADVPPP'
tp265
F1
s(S'VP'
S'ADVVCP'
tp266
F6
s(S'VP'
p267
S'VPPP'
tp268
F9
s(g267
S'ADVADVVVCCP'
tp269
F1
s(S'CP'
S'CDADVADVAPP'
tp270
F1
s(S'VP'
S'VVPPP'
tp271
F1
s(S'PP'
S'PPAP'
tp272
F6
s(S'DP'
S'DVVP'
tp273
F23
s(S'CP'
S'ADVACDDP'
tp274
F1
s(S'NP'
S'ANMP'
tp275
F10
s(S'NP'
S'NNNNMP'
tp276
F3
s(S'DP'
S'ADVADPPP'
tp277
F1
s(S'VP'
S'VVVP'
tp278
F3
s(S'DP'
S'DDPPPP'
tp279
F3
s(S'NP'
S'NNAAAPP'
tp280
F1
s(S'VP'
S'AVMP'
tp281
F1
s(S'NP'
S'ANCP'
tp282
F49
s(S'DP'
p283
S'DCP'
tp284
F10
s(S'NP'
S'AAANCP'
tp285
F1
s(S'DP'
S'DDDP'
tp286
F9
s(S'AP'
S'ADDDDP'
tp287
F1
s(g106
S'DDADVPP'
tp288
F3
s(S'NP'
p289
S'ANVVP'
tp290
F2
s(S'NP'
p291
S'NVVVVP'
tp292
F2
s(g243
S'NPPP'
tp293
F10
s(S'PP'
S'PPAPP'
tp294
F1
s(S'DP'
S'DAVP'
tp295
F8
s(S'VP'
S'AVVVP'
tp296
F1
s(S'VP'
S'VAAAANP'
tp297
F1
s(S'NP'
S'NNNMP'
tp298
F2
s(S'PP'
S'ADVPPP'
tp299
F1
s(S'AP'
S'ACP'
tp300
F36
s(S'NP'
S'NDDDDP'
tp301
F1
s(S'PP'
S'PPNP'
tp302
F22
s(S'NP'
S'NNNNCCP'
tp303
F1
s(S'VP'
p304
S'VAANNP'
tp305
F1
s(g99
S'CDDADVPP'
tp306
F1
s(S'AP'
S'ADP'
tp307
F243
s(S'CP'
S'CADVDPP'
tp308
F18
s(S'DP'
p309
S'AAAADPP'
tp310
F1
s(S'PP'
S'PPPAVP'
tp311
F1
s(S'PP'
p312
S'APPAP'
tp313
F1
s(S'NP'
S'ADVADVADVANPP'
tp314
F1
s(S'VP'
S'ADVADVVNNP'
tp315
F1
s(S'VP'
S'AVDP'
tp316
F15
s(S'NP'
S'ANNVP'
tp317
F1
s(S'VP'
S'VVAP'
tp318
F14
s(S'NP'
S'NNADVADVADVVP'
tp319
F1
s(S'CP'
S'ADVACDP'
tp320
F2
s(S'NP'
S'AANNVVP'
tp321
F1
s(S'NP'
p322
S'NPP'
tp323
F166
s(g249
S'NNNP'
tp324
F2
s(S'NP'
S'NVP'
tp325
F278
s(S'PP'
S'PPVVVP'
tp326
F1
s(S'PP'
S'PAAVP'
tp327
F1
s(g25
S'PPPPVP'
tp328
F2
s(S'NP'
S'ADVNAP'
tp329
F2
s(S'VP'
S'VDDP'
tp330
F19
s(g229
S'MADVADVVVCCP'
tp331
F1
s(g83
S'AANNVP'
tp332
F1
s(S'NP'
S'NNNNDP'
tp333
F1
s(S'DP'
p334
S'DADVAPP'
tp335
F3
s(S'NP'
S'NNCCP'
tp336
F2
s(S'NP'
S'ANCCCP'
tp337
F1
s(g291
S'ANPP'
tp338
F22
s(S'PP'
S'PPPPP'
tp339
F5
s(S'MP'
S'MPDP'
tp340
F2
s(S'MP'
p341
S'MVVPP'
tp342
F2
s(S'DP'
S'ADVDPP'
tp343
F20
s(g103
S'ADDP'
tp344
F2
s(g108
S'VVVMP'
tp345
F1
s(S'CP'
p346
S'CAADPP'
tp347
F4
s(g167
S'DADVADVVP'
tp348
F1
s(g243
S'NAACP'
tp349
F2
s(S'PP'
S'PNNP'
tp350
F32
s(S'VP'
p351
S'VADVACP'
tp352
F1
s(S'MP'
S'MMNP'
tp353
F2
s(S'DP'
S'AAADPP'
tp354
F1
s(S'VP'
S'AVAP'
tp355
F3
s(S'MP'
S'MMVP'
tp356
F2
s(S'CP'
p357
S'CADVADPPP'
tp358
F1
s(S'NP'
S'ADVNCP'
tp359
F3
s(g208
S'ADPP'
tp360
F25
s(S'VP'
S'VAPPP'
tp361
F1
s(g346
S'ACDP'
tp362
F10
s(S'VP'
S'VCCP'
tp363
F5
s(S'AP'
S'ADVANP'
tp364
F3
s(S'CP'
S'CDADVPPP'
tp365
F1
s(S'VP'
S'VAP'
tp366
F100
s(S'VP'
S'VVVVNP'
tp367
F1
s(S'MP'
p368
S'MNVVP'
tp369
F2
s(S'DP'
S'DDDPP'
tp370
F6
s(S'NP'
S'AANNCP'
tp371
F1
s(S'PP'
S'ADVPMP'
tp372
F1
s(S'CP'
S'CDAAPP'
tp373
F2
s(S'MP'
S'MADVVVNP'
tp374
F1
s(S'MP'
S'MVVVDP'
tp375
F1
s(S'MP'
S'MAVPP'
tp376
F1
s(S'DP'
p377
S'DDDPPP'
tp378
F1
s(S'CP'
p379
S'CCADVADP'
tp380
F1
s(S'VP'
S'ADVVVDP'
tp381
F3
s(S'PP'
S'PPPVP'
tp382
F3
s(S'VP'
S'AAVAP'
tp383
F1
s(S'AP'
S'AADDP'
tp384
F1
s(S'PP'
S'PPPADVADVNP'
tp385
F1
s(S'AP'
S'ACCCCP'
tp386
F1
s(S'VP'
S'VAANP'
tp387
F4
s(S'NP'
S'NAADDP'
tp388
F1
s(S'DP'
S'DAAAAPP'
tp389
F1
s(S'VP'
S'VVDP'
tp390
F26
s(g150
S'MPNP'
tp391
F2
s(S'MP'
S'MADP'
tp392
F13
s(g59
S'PANP'
tp393
F20
s(g30
S'AADNP'
tp394
F1
s(S'NP'
S'NADVDDP'
tp395
F1
s(S'NP'
S'AANMP'
tp396
F2
s(S'AP'
S'AAVP'
tp397
F3
s(S'AP'
S'AVVP'
tp398
F3
s(S'NP'
S'NDDP'
tp399
F13
s(g236
S'APPDDP'
tp400
F1
s(S'AP'
p401
S'ACCP'
tp402
F5
s(S'NP'
p403
S'NNNNNNCCP'
tp404
F1
s(S'VP'
S'VVVVAP'
tp405
F1
s(g148
S'NDP'
tp406
F70
s(S'NP'
S'AAANVP'
tp407
F2
s(S'MP'
S'MVAAP'
tp408
F1
s(S'DP'
S'DDVP'
tp409
F17
s(S'NP'
S'AANVP'
tp410
F14
s(S'DP'
S'DADVADVAPP'
tp411
F2
s(S'VP'
S'VNNNP'
tp412
F2
s(S'DP'
S'AAADAP'
tp413
F1
s(g37
S'ADVPAP'
tp414
F3
s(S'PP'
S'PCP'
tp415
F16
s(g225
S'PAADP'
tp416
F2
s(g341
S'MDNP'
tp417
F5
s(S'NP'
S'ADVNNPP'
tp418
F1
s(S'MP'
S'MPAP'
tp419
F1
s(S'MP'
S'MVNNNP'
tp420
F1
s(S'NP'
S'NNNDP'
tp421
F2
s(g401
S'ADVACP'
tp422
F6
s(S'NP'
S'ADVADVNMP'
tp423
F1
s(S'VP'
S'VMMP'
tp424
F2
s(S'NP'
S'NNVP'
tp425
F60
s(S'MP'
S'MVCP'
tp426
F6
s(S'CP'
S'CCDDP'
tp427
F5
s(S'NP'
S'NNADVVP'
tp428
F3
s(S'NP'
S'NAAP'
tp429
F12
s(S'NP'
S'NNVVP'
tp430
F8
s(S'VP'
S'VVCP'
tp431
F14
s(S'NP'
S'AANCP'
tp432
F16
s(S'VP'
S'VADVNP'
tp433
F4
s(S'AP'
S'ADVAVVP'
tp434
F1
s(S'PP'
S'APANNP'
tp435
F1
s(S'NP'
S'NNDDP'
tp436
F1
s(S'VP'
S'ADVVPP'
tp437
F3
s(S'CP'
S'CDAPPP'
tp438
F1
s(S'VP'
S'VNNP'
tp439
F37
s(S'AP'
S'AADVDP'
tp440
F2
s(S'NP'
S'NADP'
tp441
F6
s(g208
S'DDNP'
tp442
F22
s(S'NP'
S'NADVCP'
tp443
F3
s(S'PP'
S'AAPPP'
tp444
F2
s(g289
S'ADVANVP'
tp445
F1
s(S'PP'
p446
S'APCP'
tp447
F1
s(S'AP'
S'AADVADP'
tp448
F1
s(S'AP'
S'ADVADDP'
tp449
F1
s(S'DP'
S'AADPP'
tp450
F4
s(S'VP'
S'VVVAAP'
tp451
F1
s(S'NP'
S'ADVNAACP'
tp452
F1
s(S'VP'
S'VVNNNNNP'
tp453
F1
s(S'NP'
S'NNNVVVVP'
tp454
F1
s(S'MP'
p455
S'MAVAP'
tp456
F1
s(S'PP'
S'AAPDP'
tp457
F1
s(S'NP'
S'ANVVVP'
tp458
F1
s(S'MP'
S'MVVNP'
tp459
F2
s(S'DP'
S'ADVDNNP'
tp460
F1
s(S'CP'
S'ACDDP'
tp461
F1
s(S'AP'
p462
S'AAPP'
tp463
F4
s(S'VP'
S'VVCCP'
tp464
F1
s(S'DP'
S'DADVVVP'
tp465
F2
s(S'DP'
S'DAAAPP'
tp466
F1
s(S'VP'
S'VVVCCP'
tp467
F1
s(S'NP'
p468
S'NADVDP'
tp469
F1
s(g309
S'ADVDANNP'
tp470
F1
s(S'NP'
S'AANPP'
tp471
F3
s(S'DP'
S'DDAAAPP'
tp472
F1
s(S'NP'
S'NNMP'
tp473
F35
s(g93
S'DDDVP'
tp474
F3
s(S'CP'
S'CADDPP'
tp475
F1
s(S'PP'
S'ADVADVPNP'
tp476
F1
s(S'PP'
S'PPPAP'
tp477
F1
s(S'CP'
S'CADVADVDDPPP'
tp478
F1
s(S'CP'
S'CDDAPP'
tp479
F1
s(S'NP'
S'ANAP'
tp480
F9
s(S'MP'
S'MVAP'
tp481
F6
s(S'PP'
S'PVP'
tp482
F160
s(S'VP'
S'VVVVDP'
tp483
F1
s(S'CP'
S'ACDDDP'
tp484
F1
s(S'NP'
S'ADVNAVP'
tp485
F1
s(S'NP'
S'ANNCP'
tp486
F1
s(S'PP'
S'PPADVPP'
tp487
F1
s(S'PP'
p488
S'PPDDP'
tp489
F1
s(S'VP'
S'AVCP'
tp490
F6
s(S'DP'
S'DDVVVP'
tp491
F1
s(g377
S'DPP'
tp492
F469
s(S'NP'
S'ADVNVP'
tp493
F6
s(S'CP'
S'CDADVADVADVPP'
tp494
F1
s(S'DP'
S'DDPP'
tp495
F53
s(S'DP'
S'DDAVP'
tp496
F3
s(S'DP'
S'DANP'
tp497
F32
s(S'NP'
S'AANADVVP'
tp498
F1
s(S'PP'
S'PDDDP'
tp499
F2
s(S'DP'
S'ADVADVDPPP'
tp500
F1
s(g468
S'ANNDDP'
tp501
F1
s(S'NP'
S'NNNNCP'
tp502
F4
s(S'NP'
S'NADVCCP'
tp503
F1
s(S'PP'
S'PPAANNP'
tp504
F1
s(S'NP'
S'NNNVVP'
tp505
F1
s(S'NP'
S'NAANP'
tp506
F1
s(S'DP'
S'DCCP'
tp507
F1
s(S'DP'
p508
S'AADDP'
tp509
F1
s(S'CP'
S'CDPPPPP'
tp510
F2
s(g368
S'MADVVDP'
tp511
F1
s(S'DP'
S'DDADVVP'
tp512
F1
s(g37
S'PDDP'
tp513
F18
s(g455
S'MVDDP'
tp514
F2
s(S'DP'
S'ADPPP'
tp515
F4
s(S'AP'
S'AADVADVCP'
tp516
F1
s(S'NP'
S'NNP'
tp517
F6
s(g309
S'ADVADPP'
tp518
F1
s(S'DP'
p519
S'DAANP'
tp520
F5
s(S'VP'
S'ADVADVADVVCP'
tp521
F1
s(S'AP'
S'ADDP'
tp522
F19
s(S'MP'
S'MDAP'
tp523
F2
s(g357
S'CADVADVDPP'
tp524
F1
s(S'DP'
S'DPPP'
tp525
F53
s(g225
S'PNNNNP'
tp526
F2
s(g334
S'AADPPP'
tp527
F1
s(S'PP'
S'ADVPNP'
tp528
F1
s(S'MP'
S'MCDDDDP'
tp529
F1
s(g69
S'PPDP'
tp530
F19
s(S'PP'
S'AAAPNNP'
tp531
F1
s(S'AP'
S'AAPPP'
tp532
F1
s(g39
S'DDCP'
tp533
F1
s(S'AP'
S'ADVADVAADP'
tp534
F1
s(g177
S'MNCCP'
tp535
F1
s(g101
S'NAP'
tp536
F86
s(S'NP'
S'NNAAP'
tp537
F1
s(S'NP'
S'NAAAPP'
tp538
F1
s(g61
S'VVP'
tp539
F21
s(S'DP'
S'DDAPP'
tp540
F2
s(S'AP'
S'AAADP'
tp541
F3
s(g312
S'APNP'
tp542
F8
s(S'DP'
S'DDVVP'
tp543
F2
s(S'VP'
S'VVVNP'
tp544
F5
s(S'CP'
S'CDDAAAPP'
tp545
F1
s(g77
S'NAMP'
tp546
F4
s(S'AP'
S'ADVADVAAPP'
tp547
F1
s(S'MP'
S'MVANP'
tp548
F1
s(S'DP'
S'ADVADVDDPP'
tp549
F1
s(S'MP'
S'MVNNP'
tp550
F1
s(g231
S'CDPP'
tp551
F406
s(g322
S'NNDP'
tp552
F15
s(S'CP'
S'ADVCDP'
tp553
F3
s(S'AP'
S'ADVAAP'
tp554
F1
s(g108
S'VADVADVDP'
tp555
F1
s(S'PP'
p556
S'PPNNP'
tp557
F5
s(S'CP'
S'CAADDPP'
tp558
F1
s(g519
S'ADVADVDPP'
tp559
F2
s(g175
S'VDP'
tp560
F250
s(g145
S'NADVAP'
tp561
F1
s(S'DP'
S'DADVNP'
tp562
F2
s(S'DP'
S'DAP'
tp563
F16
s(S'CP'
S'CADPP'
tp564
F13
s(S'PP'
S'PPAVP'
tp565
F1
s(g488
S'PPDDDP'
tp566
F2
s(g27
S'AVPP'
tp567
F5
s(g257
S'CAADPPP'
tp568
F1
s(S'DP'
S'DDNNNNP'
tp569
F1
s(S'MP'
S'AMNP'
tp570
F1
s(S'CP'
S'CDPPPP'
tp571
F3
s(g304
S'AAVDP'
tp572
F2
s(g283
S'DAPPP'
tp573
F1
s(S'DP'
S'DADVADVPP'
tp574
F1
s(S'DP'
S'DMP'
tp575
F2
s(S'PP'
S'PPPNP'
tp576
F1
s(S'NP'
S'AAANPP'
tp577
F1
s(S'AP'
S'AADP'
tp578
F35
s(S'VP'
p579
S'VADVPP'
tp580
F2
s(g556
S'PVVVVP'
tp581
F1
s(S'PP'
S'ADVPVP'
tp582
F8
s(S'DP'
S'DDDDPP'
tp583
F1
s(S'NP'
S'NNVVVP'
tp584
F2
s(g88
S'ADVPDP'
tp585
F4
s(g97
S'ANNPP'
tp586
F1
s(g403
S'NCP'
tp587
F231
s(S'CP'
p588
S'CADVDPPP'
tp589
F2
s(S'PP'
S'PPAAAP'
tp590
F1
s(S'NP'
S'AANDP'
tp591
F2
s(S'MP'
S'MVCCP'
tp592
F1
s(g23
S'DADVNNP'
tp593
F1
s(S'VP'
S'VDDDP'
tp594
F1
s(S'MP'
S'MNVP'
tp595
F10
s(S'NP'
S'AANAP'
tp596
F2
s(S'NP'
S'AANCCP'
tp597
F2
s(g351
S'VAPP'
tp598
F3
s(g10
S'ADVVDP'
tp599
F10
s(S'DP'
S'DADVPP'
tp600
F13
s(S'AP'
S'AMP'
tp601
F2
s(S'CP'
S'CCADP'
tp602
F3
s(g218
S'NNNPPP'
tp603
F1
s(S'AP'
S'ADVAPP'
tp604
F5
s(g588
S'AACDP'
tp605
F3
s(S'NP'
S'NNNCCP'
tp606
F1
s(S'DP'
S'ADVDPPP'
tp607
F2
s(g43
S'DVP'
tp608
F208
s(S'NP'
S'ADVNPP'
tp609
F2
s(S'NP'
S'NNCCCP'
tp610
F1
s(g462
S'AVP'
tp611
F19
s(S'NP'
S'NADVVP'
tp612
F13
s(S'DP'
S'ADVADVDDDPP'
tp613
F1
s(g379
S'CAAAADPP'
tp614
F1
s(g508
S'DDPPP'
tp615
F6
s(S'NP'
S'ADVNMP'
tp616
F7
s(S'NP'
S'NNAP'
tp617
F4
s(S'PP'
S'ADVADVAPNNP'
tp618
F1
s(S'MP'
S'MADVVCP'
tp619
F1
s(g446
S'PPANP'
tp620
F1
s(S'CP'
S'CDADVPP'
tp621
F9
s(g579
S'VNP'
tp622
F234
s(S'VP'
S'VANP'
tp623
F17
s(S'VP'
S'VADVAP'
tp624
F11
s(S'PP'
S'PPADVNP'
tp625
F2
s(S'VP'
S'VVVAP'
tp626
F1
s(S'DP'
S'DDDDVP'
tp627
F1
s(g63
S'NADVPPP'
tp628
F1
s.