ccollections
defaultdict
p1
(c__builtin__
float
p2
tRp3
(S'NP'
S'NAMP'
tp4
F6
s(S'PP'
S'PAAANP'
tp5
F2
s(S'DP'
p6
S'ADDPP'
tp7
F3
s(S'VP'
S'ADVVVNP'
tp8
F2
s(S'AP'
S'AADDDP'
tp9
F4
s(S'CP'
S'CCDDDDP'
tp10
F1
s(S'VP'
S'VVVVP'
tp11
F1
s(S'DP'
S'DAANNP'
tp12
F1
s(S'PP'
S'PAPP'
tp13
F7
s(S'PP'
S'PADVNP'
tp14
F23
s(S'DP'
p15
S'DNP'
tp16
F448
s(S'NP'
S'ADVNDP'
tp17
F4
s(S'CP'
S'CDPPP'
tp18
F95
s(S'CP'
S'ADVACADVDDP'
tp19
F1
s(S'VP'
p20
S'VADP'
tp21
F9
s(S'DP'
S'DNNNNP'
tp22
F1
s(S'DP'
S'DAAP'
tp23
F4
s(S'MP'
S'MMADVAP'
tp24
F1
s(S'VP'
S'VAVP'
tp25
F1
s(S'DP'
S'DAADP'
tp26
F1
s(S'MP'
S'MDVP'
tp27
F5
s(S'VP'
S'ADVVNP'
tp28
F34
s(S'MP'
S'MVDP'
tp29
F52
s(S'PP'
S'PADVANP'
tp30
F1
s(S'PP'
p31
S'PPPP'
tp32
F33
s(S'MP'
S'MMMADVVP'
tp33
F1
s(S'DP'
S'DDDNP'
tp34
F5
s(S'VP'
S'AAVCCCP'
tp35
F1
s(S'VP'
S'VACP'
tp36
F5
s(S'PP'
p37
S'PPAAP'
tp38
F2
s(S'DP'
S'DADVVP'
tp39
F13
s(S'VP'
p40
S'ADVADVVDDP'
tp41
F1
s(S'AP'
S'AADVPP'
tp42
F1
s(S'NP'
S'NADVACP'
tp43
F1
s(S'NP'
S'NDDDP'
tp44
F1
s(S'CP'
S'CCAADDP'
tp45
F1
s(S'CP'
p46
S'CADVDAPP'
tp47
F1
s(S'VP'
p48
S'VCP'
tp49
F218
s(S'MP'
S'MVVANP'
tp50
F1
s(S'NP'
p51
S'NMMP'
tp52
F12
s(S'NP'
S'NANP'
tp53
F3
s(S'NP'
S'NNADVAP'
tp54
F2
s(S'VP'
S'VVVVDP'
tp55
F2
s(g31
S'PAP'
tp56
F154
s(S'MP'
S'MMVVP'
tp57
F2
s(S'CP'
p58
S'CDADVADVADVPP'
tp59
F1
s(S'NP'
S'ANNCCP'
tp60
F1
s(S'PP'
S'ADVPPVP'
tp61
F3
s(S'VP'
S'VADVNP'
tp62
F8
s(S'NP'
S'NNNAP'
tp63
F1
s(S'NP'
S'ANPPP'
tp64
F3
s(S'PP'
p65
S'PPADVDP'
tp66
F1
s(S'MP'
S'AMVP'
tp67
F6
s(S'PP'
p68
S'PNP'
tp69
F535
s(S'MP'
S'MADVVVCP'
tp70
F1
s(S'VP'
S'AVNNNP'
tp71
F1
s(S'DP'
p72
S'DDP'
tp73
F74
s(S'VP'
S'ADVVDDP'
tp74
F1
s(S'NP'
S'NNNPP'
tp75
F5
s(S'NP'
p76
S'NNDP'
tp77
F22
s(S'MP'
S'MCDP'
tp78
F5
s(S'CP'
S'CDDDADVPP'
tp79
F1
s(S'MP'
S'MNNAP'
tp80
F1
s(S'MP'
S'MNAP'
tp81
F4
s(S'CP'
S'CADVDADVAPP'
tp82
F1
s(S'NP'
S'NMP'
tp83
F227
s(S'NP'
S'ADVNCCP'
tp84
F2
s(S'VP'
S'VAAADP'
tp85
F1
s(S'VP'
S'ADVVVVAP'
tp86
F1
s(S'VP'
S'AAVNP'
tp87
F2
s(g76
S'ADVADVNMMP'
tp88
F1
s(S'PP'
p89
S'PDP'
tp90
F400
s(S'CP'
p91
S'CDADVADVPP'
tp92
F3
s(S'VP'
S'VNNNNP'
tp93
F1
s(S'MP'
p94
S'MADVVNP'
tp95
F8
s(S'DP'
S'ADVDADVAPP'
tp96
F1
s(S'NP'
S'NNADVMP'
tp97
F1
s(S'NP'
S'NNADVADVADVVVP'
tp98
F1
s(S'NP'
S'NACCP'
tp99
F1
s(S'AP'
S'ANP'
tp100
F6
s(S'NP'
S'NADVADVADVVP'
tp101
F2
s(S'PP'
p102
S'PADVPP'
tp103
F8
s(S'NP'
S'NNADVCP'
tp104
F1
s(S'VP'
S'VVADVNP'
tp105
F1
s(S'PP'
S'PPADVAP'
tp106
F1
s(S'DP'
S'DDAAPPP'
tp107
F1
s(S'DP'
S'AADDVP'
tp108
F1
s(S'PP'
S'AAPPPP'
tp109
F1
s(S'PP'
S'ADVADVAPVP'
tp110
F1
s(S'DP'
S'DPPPP'
tp111
F10
s(S'DP'
S'DDANP'
tp112
F3
s(S'PP'
S'PADVADP'
tp113
F1
s(S'NP'
p114
S'NACP'
tp115
F16
s(S'AP'
S'ADVAVP'
tp116
F3
s(S'NP'
S'NCCP'
tp117
F65
s(S'PP'
S'ADVPMMMP'
tp118
F1
s(S'AP'
p119
S'AAAADP'
tp120
F2
s(S'NP'
p121
S'NNCP'
tp122
F97
s(S'NP'
p123
S'AANPPP'
tp124
F2
s(S'NP'
S'NADVADVVP'
tp125
F6
s(S'DP'
S'DPPPPP'
tp126
F2
s(S'DP'
S'DDDDP'
tp127
F4
s(S'DP'
S'DDAPP'
tp128
F1
s(S'PP'
p129
S'APPAAP'
tp130
F1
s(g48
S'AVNP'
tp131
F10
s(S'VP'
S'VVADP'
tp132
F1
s(S'PP'
S'ADVPVVP'
tp133
F1
s(S'DP'
p134
S'ADVADVDANP'
tp135
F1
s(S'PP'
S'ADVAPDP'
tp136
F1
s(S'PP'
S'AAPNP'
tp137
F2
s(S'NP'
p138
S'AAANAP'
tp139
F1
s(S'VP'
S'VADVVP'
tp140
F6
s(S'NP'
S'ADVADVADVNMP'
tp141
F1
s(S'VP'
S'ADVADVADVVNP'
tp142
F1
s(S'PP'
p143
S'ADVAPVP'
tp144
F1
s(S'VP'
S'ADVADVADVADVVAP'
tp145
F1
s(S'PP'
S'PDDDP'
tp146
F7
s(S'NP'
S'NNNVP'
tp147
F10
s(S'NP'
S'NCCCCP'
tp148
F2
s(S'CP'
S'CCCDP'
tp149
F8
s(S'VP'
S'ADVVAP'
tp150
F3
s(S'PP'
S'ADVPPNNP'
tp151
F1
s(S'VP'
S'VCCCP'
tp152
F2
s(S'PP'
S'APDP'
tp153
F28
s(S'VP'
S'ADVVNNP'
tp154
F5
s(S'PP'
p155
S'ADVADVPAAVP'
tp156
F1
s(S'AP'
S'AADVACP'
tp157
F1
s(S'VP'
p158
S'VVANP'
tp159
F3
s(S'AP'
p160
S'AAAADVCP'
tp161
F1
s(S'PP'
S'ADVPNNP'
tp162
F1
s(S'VP'
S'ADVVVP'
tp163
F1
s(S'AP'
S'AADVADVDDP'
tp164
F1
s(S'CP'
S'ADVACDP'
tp165
F1
s(S'DP'
p166
S'DADVADVADVPP'
tp167
F1
s(S'PP'
p168
S'PCCP'
tp169
F3
s(S'MP'
S'MPNNP'
tp170
F1
s(S'NP'
S'ADVANCP'
tp171
F5
s(g15
S'DNNP'
tp172
F72
s(S'PP'
S'PADVAP'
tp173
F2
s(S'CP'
S'CCADVDP'
tp174
F1
s(S'VP'
S'VVACP'
tp175
F1
s(S'VP'
S'AAVDDP'
tp176
F1
s(S'DP'
p177
S'ADVVVP'
tp178
F1
s(S'VP'
S'VADVNNP'
tp179
F2
s(S'DP'
S'DDADVADVADVVP'
tp180
F1
s(S'PP'
S'PADVVP'
tp181
F15
s(S'DP'
S'DACP'
tp182
F1
s(S'DP'
p183
S'DADVVVP'
tp184
F1
s(S'PP'
S'APAP'
tp185
F3
s(S'AP'
p186
S'APP'
tp187
F72
s(S'NP'
p188
S'NADVMP'
tp189
F4
s(S'AP'
S'AAP'
tp190
F21
s(g40
S'VADVADVVP'
tp191
F1
s(S'VP'
S'VVAPP'
tp192
F1
s(S'VP'
S'AVVDDP'
tp193
F1
s(S'DP'
S'DADVADVNP'
tp194
F1
s(S'MP'
p195
S'MVVCP'
tp196
F2
s(S'DP'
S'DAAVP'
tp197
F4
s(S'CP'
S'CDDDDPP'
tp198
F1
s(S'MP'
S'MPVP'
tp199
F1
s(S'PP'
S'PAANP'
tp200
F10
s(S'PP'
S'PPPDDDP'
tp201
F1
s(S'NP'
S'ANVP'
tp202
F25
s(S'VP'
S'VAACP'
tp203
F2
s(S'DP'
S'ADVDDPP'
tp204
F2
s(S'VP'
p205
S'VVADVAAP'
tp206
F1
s(S'MP'
S'MVNP'
tp207
F74
s(S'MP'
S'MNDP'
tp208
F2
s(S'NP'
S'ANAAP'
tp209
F1
s(S'CP'
S'CDDDPPP'
tp210
F3
s(S'DP'
S'ADVADNP'
tp211
F1
s(S'PP'
S'PAVP'
tp212
F13
s(S'MP'
p213
S'ADVMVP'
tp214
F3
s(S'VP'
S'ADVVMP'
tp215
F1
s(S'VP'
S'VVVPP'
tp216
F1
s(S'MP'
S'MADVVPP'
tp217
F7
s(S'DP'
S'DADP'
tp218
F7
s(S'AP'
p219
S'ADVADP'
tp220
F6
s(S'AP'
S'ADVADVADP'
tp221
F1
s(S'MP'
S'MDPP'
tp222
F1
s(S'DP'
S'ADVDDP'
tp223
F1
s(S'VP'
S'ADVADVVANP'
tp224
F1
s(S'PP'
p225
S'APVP'
tp226
F21
s(S'MP'
S'MNCP'
tp227
F3
s(S'VP'
p228
S'VVNP'
tp229
F59
s(S'PP'
p230
S'ADVPPPP'
tp231
F3
s(S'PP'
p232
S'PPVP'
tp233
F43
s(S'MP'
S'MPCP'
tp234
F1
s(g205
S'VADVDP'
tp235
F3
s(S'MP'
S'MVVVPP'
tp236
F1
s(S'VP'
S'VVADVAP'
tp237
F2
s(S'MP'
S'ADVMADVVP'
tp238
F1
s(S'VP'
S'VAAP'
tp239
F27
s(S'NP'
S'ANDP'
tp240
F25
s(S'NP'
p241
S'NVVP'
tp242
F81
s(S'PP'
p243
S'AAPVP'
tp244
F4
s(S'PP'
S'PPADP'
tp245
F3
s(S'VP'
S'ADVADVADVADVVVDDP'
tp246
F1
s(g228
S'VMP'
tp247
F23
s(S'NP'
p248
S'ANNAP'
tp249
F1
s(S'VP'
S'VVNNP'
tp250
F5
s(S'CP'
S'CDAPP'
tp251
F42
s(S'VP'
p252
S'VVAAP'
tp253
F5
s(S'DP'
S'ADVADVDDVP'
tp254
F1
s(S'DP'
S'ADNP'
tp255
F8
s(S'VP'
S'AVVDP'
tp256
F1
s(S'DP'
S'DDADVAP'
tp257
F1
s(S'CP'
S'ACCDP'
tp258
F1
s(g243
S'PADP'
tp259
F13
s(S'VP'
S'ADVVVCP'
tp260
F1
s(S'MP'
S'MVNNNNP'
tp261
F1
s(S'NP'
S'ANDDP'
tp262
F2
s(S'DP'
S'DADVAP'
tp263
F2
s(S'CP'
S'ADVADVACDP'
tp264
F1
s(g72
S'DAPP'
tp265
F62
s(S'VP'
S'AVVP'
tp266
F1
s(S'NP'
S'NAAACP'
tp267
F1
s(S'VP'
S'ADVADVVPP'
tp268
F2
s(S'MP'
S'MADVADVVNP'
tp269
F1
s(S'VP'
S'VADVAAP'
tp270
F1
s(S'VP'
S'ADVADVADVVDP'
tp271
F1
s(S'VP'
p272
S'ADVADVVDP'
tp273
F3
s(S'VP'
S'AVVNP'
tp274
F2
s(S'PP'
p275
S'PPPDP'
tp276
F3
s(S'VP'
S'VVAAANP'
tp277
F1
s(S'VP'
S'VAMMP'
tp278
F1
s(S'MP'
S'MVVAP'
tp279
F2
s(S'DP'
S'DAAANP'
tp280
F1
s(S'DP'
S'DADVANP'
tp281
F4
s(S'VP'
S'VAAPP'
tp282
F1
s(S'DP'
S'ADVDNP'
tp283
F8
s(S'VP'
S'VVPP'
tp284
F34
s(S'PP'
S'ADVPAAPP'
tp285
F1
s(S'CP'
S'AACDDP'
tp286
F2
s(S'MP'
S'MVPP'
tp287
F26
s(S'DP'
S'ADVP'
tp288
F12
s(S'CP'
p289
S'CDDPPP'
tp290
F6
s(S'CP'
S'CDDAAPPP'
tp291
F1
s(S'NP'
S'NNPP'
tp292
F38
s(S'MP'
S'MMMPP'
tp293
F1
s(S'MP'
S'MVVDP'
tp294
F8
s(S'DP'
S'DADVPPP'
tp295
F6
s(S'PP'
S'PPVVP'
tp296
F2
s(g166
S'DNNNP'
tp297
F8
s(S'DP'
S'ADVDDVP'
tp298
F1
s(S'PP'
S'PADVADVVP'
tp299
F2
s(S'NP'
S'ANAP'
tp300
F2
s(S'PP'
S'PVVVP'
tp301
F2
s(S'PP'
S'PMP'
tp302
F25
s(S'NP'
p303
S'NNMMP'
tp304
F4
s(S'CP'
p305
S'CCDP'
tp306
F107
s(S'NP'
p307
S'ADVNNDP'
tp308
F1
s(S'DP'
p309
S'ADVADVADVDPP'
tp310
F1
s(g228
S'VADVANP'
tp311
F5
s(S'NP'
p312
S'NAAACCP'
tp313
F1
s(g166
S'AADDPP'
tp314
F4
s(S'NP'
p315
S'NVVVP'
tp316
F12
s(S'CP'
S'CDDDPP'
tp317
F5
s(S'PP'
S'PADVADVADVANP'
tp318
F1
s(S'CP'
S'CDAAPP'
tp319
F5
s(S'VP'
S'VVVDP'
tp320
F10
s(S'PP'
S'PNNNP'
tp321
F10
s(S'NP'
S'ANMMP'
tp322
F1
s(S'AP'
S'AACCP'
tp323
F2
s(S'VP'
S'VVMP'
tp324
F3
s(S'VP'
p325
S'ADVVVDP'
tp326
F2
s(g243
S'PPP'
tp327
F143
s(S'NP'
S'NNADVDP'
tp328
F1
s(g315
S'NAVP'
tp329
F16
s(S'DP'
S'ADVADVDDNP'
tp330
F2
s(S'MP'
S'AMDP'
tp331
F1
s(S'DP'
S'ADVDVP'
tp332
F6
s(g76
S'NAAAP'
tp333
F3
s(S'NP'
S'NADVVVP'
tp334
F1
s(S'MP'
S'MPAAP'
tp335
F1
s(S'AP'
S'AADVVP'
tp336
F1
s(S'PP'
p337
S'PPPPDP'
tp338
F1
s(S'MP'
S'MVVVVDP'
tp339
F1
s(S'DP'
S'DAAAP'
tp340
F2
s(S'AP'
p341
S'AAADVCP'
tp342
F1
s(S'VP'
p343
S'VPP'
tp344
F216
s(S'CP'
S'ADVCCDP'
tp345
F1
s(S'AP'
S'ADVADVADVACP'
tp346
F1
s(S'DP'
S'ADVDDPPP'
tp347
F1
s(S'DP'
S'ADVDDNP'
tp348
F1
s(S'NP'
p349
S'NNNCP'
tp350
F10
s(g65
S'PADVDP'
tp351
F13
s(S'CP'
S'CDADVAPP'
tp352
F1
s(S'AP'
S'ADVAADP'
tp353
F1
s(g134
S'DANNP'
tp354
F1
s(S'CP'
S'CDDPP'
tp355
F108
s(S'DP'
p356
S'DAAPP'
tp357
F6
s(S'PP'
S'PVVP'
tp358
F37
s(S'CP'
S'CADPPP'
tp359
F1
s(S'AP'
p360
S'AACP'
tp361
F10
s(S'VP'
S'ADVVCP'
tp362
F7
s(g46
S'CADVDDAPPP'
tp363
F1
s(S'VP'
S'VPPP'
tp364
F18
s(S'VP'
p365
S'AVCCP'
tp366
F1
s(g37
S'APCCP'
tp367
F1
s(S'VP'
p368
S'VVPPP'
tp369
F1
s(S'PP'
S'PPAP'
tp370
F22
s(S'DP'
S'DVVP'
tp371
F44
s(S'PP'
S'PADVAVP'
tp372
F1
s(S'CP'
S'ADVCDDDP'
tp373
F1
s(S'DP'
S'DDDADVPPP'
tp374
F1
s(S'NP'
S'ANMP'
tp375
F5
s(S'AP'
S'APPP'
tp376
F1
s(S'PP'
S'ADVPPP'
tp377
F2
s(S'DP'
S'ADVADPPP'
tp378
F1
s(S'NP'
S'ADVADVNVP'
tp379
F1
s(S'VP'
S'VVVP'
tp380
F5
s(S'CP'
S'CADVDPP'
tp381
F24
s(S'NP'
p382
S'ADVADVNNVP'
tp383
F1
s(S'PP'
S'ADVPAPP'
tp384
F1
s(S'NP'
p385
S'ANCP'
tp386
F56
s(g356
S'DCP'
tp387
F30
s(S'VP'
S'VAAACP'
tp388
F1
s(S'NP'
S'AAANCP'
tp389
F3
s(S'VP'
S'ADVVVVP'
tp390
F1
s(S'NP'
S'NNVVVVP'
tp391
F1
s(S'DP'
S'DDDP'
tp392
F12
s(S'DP'
S'DDADVPP'
tp393
F5
s(S'MP'
S'MAADP'
tp394
F1
s(S'NP'
p395
S'ANVVP'
tp396
F6
s(S'VP'
S'VVDP'
tp397
F66
s(g114
S'NPPP'
tp398
F13
s(S'PP'
p399
S'PPAPP'
tp400
F1
s(g94
S'MCADDP'
tp401
F1
s(S'DP'
p402
S'DAVP'
tp403
F15
s(g225
S'ADVADVPAPP'
tp404
F1
s(S'NP'
S'NNNMP'
tp405
F1
s(S'NP'
S'NNNNMP'
tp406
F1
s(S'AP'
p407
S'ACP'
tp408
F82
s(S'PP'
S'ADVADVPPP'
tp409
F1
s(S'NP'
S'NAAAAP'
tp410
F1
s(S'AP'
S'ADVACCP'
tp411
F5
s(g399
S'AAAAPDP'
tp412
F1
s(S'DP'
p413
S'ADVDAPP'
tp414
F1
s(S'CP'
S'AAACCDP'
tp415
F1
s(S'DP'
S'AADVP'
tp416
F3
s(S'NP'
S'NNNNCCP'
tp417
F1
s(S'MP'
S'MVVAAANP'
tp418
F1
s(S'CP'
S'CDDADVPP'
tp419
F3
s(S'VP'
p420
S'VVVADVAAP'
tp421
F1
s(g186
S'ADP'
tp422
F443
s(S'DP'
S'DDAAVP'
tp423
F1
s(S'MP'
S'MVVADVAAP'
tp424
F1
s(g241
S'ADVANCCP'
tp425
F2
s(S'VP'
S'VAAANP'
tp426
F2
s(S'MP'
S'MADDP'
tp427
F1
s(S'VP'
S'AAAVDP'
tp428
F1
s(g272
S'AVDP'
tp429
F16
s(S'NP'
S'ANNVP'
tp430
F1
s(S'VP'
p431
S'VVAP'
tp432
F20
s(g123
S'NNAPP'
tp433
F2
s(S'MP'
p434
S'MNADVVP'
tp435
F2
s(S'NP'
S'ADVANPPP'
tp436
F1
s(S'PP'
S'PADVADVDP'
tp437
F1
s(S'VP'
S'AAVCP'
tp438
F1
s(S'DP'
p439
S'AADDPPP'
tp440
F1
s(g349
S'NPP'
tp441
F330
s(g188
S'NNNP'
tp442
F1
s(S'NP'
S'NVP'
tp443
F561
s(S'PP'
S'PAAVP'
tp444
F1
s(S'NP'
S'NAAPP'
tp445
F2
s(S'PP'
S'PPPPVP'
tp446
F1
s(S'VP'
p447
S'VDDP'
tp448
F41
s(S'DP'
p449
S'DAPPP'
tp450
F1
s(S'NP'
p451
S'AANVVP'
tp452
F1
s(S'DP'
S'DADVAPP'
tp453
F1
s(S'NP'
S'ANCCCP'
tp454
F2
s(S'NP'
p455
S'ANPP'
tp456
F34
s(S'PP'
S'ADVPPDP'
tp457
F1
s(S'PP'
p458
S'PPPPP'
tp459
F5
s(S'MP'
p460
S'MPDP'
tp461
F2
s(S'PP'
S'ADVADVPDP'
tp462
F1
s(S'MP'
S'MVVPP'
tp463
F3
s(S'PP'
p464
S'PAAAVP'
tp465
F1
s(g349
S'NNMMMP'
tp466
F1
s(S'VP'
p467
S'ADVADVVAPP'
tp468
F1
s(S'DP'
S'ADDP'
tp469
F4
s(S'MP'
S'MVAADP'
tp470
F1
s(S'CP'
S'CAADPP'
tp471
F10
s(S'DP'
S'DADVADVVP'
tp472
F1
s(S'NP'
S'NAACP'
tp473
F3
s(g89
S'PNNP'
tp474
F73
s(S'PP'
S'APNNP'
tp475
F4
s(S'MP'
p476
S'MMNP'
tp477
F2
s(S'DP'
S'AAADPP'
tp478
F1
s(S'VP'
S'VVADVADVDDP'
tp479
F1
s(S'VP'
S'AVAP'
tp480
F4
s(S'MP'
S'MMVP'
tp481
F11
s(S'PP'
S'PADVDDP'
tp482
F1
s(g303
S'ADVADVNDDP'
tp483
F1
s(S'NP'
S'ADVNCP'
tp484
F6
s(S'DP'
S'DDADVADVPP'
tp485
F3
s(g186
S'AADP'
tp486
F60
s(S'CP'
S'CADVADPPP'
tp487
F1
s(S'CP'
S'ACDP'
tp488
F26
s(g337
S'PAAP'
tp489
F22
s(S'AP'
S'ADVANP'
tp490
F3
s(S'CP'
S'CCCCDDP'
tp491
F2
s(S'NP'
S'NNACP'
tp492
F3
s(S'MP'
p493
S'MDNNP'
tp494
F2
s(S'CP'
S'CDADVPPP'
tp495
F4
s(g48
S'VAP'
tp496
F239
s(S'VP'
S'VVVVNP'
tp497
F1
s(S'MP'
S'MNVVP'
tp498
F3
s(S'DP'
S'DDDPP'
tp499
F10
s(S'PP'
S'ADVPMP'
tp500
F1
s(S'PP'
p501
S'PAAPP'
tp502
F1
s(S'NP'
S'ANADVAP'
tp503
F1
s(S'MP'
S'MVVVDP'
tp504
F2
s(S'MP'
S'MNMP'
tp505
F5
s(g213
S'MAVPP'
tp506
F2
s(S'DP'
S'DDDPPP'
tp507
F5
s(S'DP'
S'ADAP'
tp508
F2
s(S'DP'
S'DADVDP'
tp509
F2
s(S'NP'
S'ADVADVANCCP'
tp510
F1
s(S'NP'
S'NNAVVP'
tp511
F1
s(S'DP'
S'DDDAP'
tp512
F1
s(S'AP'
S'AAACP'
tp513
F4
s(S'AP'
S'AVVP'
tp514
F8
s(S'MP'
S'MAVP'
tp515
F1
s(S'PP'
S'PPPVP'
tp516
F2
s(g431
S'AAVAP'
tp517
F1
s(S'AP'
S'AADDP'
tp518
F6
s(S'NP'
S'NNNADVADVVP'
tp519
F1
s(S'MP'
S'MADVNVP'
tp520
F1
s(g160
S'ACCCCP'
tp521
F1
s(g447
S'VAANP'
tp522
F4
s(S'NP'
S'NADVADVCP'
tp523
F1
s(S'DP'
S'DAAAAPP'
tp524
F2
s(S'DP'
S'ADVADVADVDVP'
tp525
F1
s(S'NP'
S'NVVVVP'
tp526
F1
s(S'DP'
S'DADVADVDP'
tp527
F1
s(S'MP'
S'MPNP'
tp528
F4
s(S'NP'
S'AANCCP'
tp529
F1
s(S'MP'
S'MADP'
tp530
F12
s(S'AP'
S'AAAAAP'
tp531
F1
s(S'CP'
S'CCAADP'
tp532
F2
s(S'PP'
S'APVVP'
tp533
F1
s(g177
S'DDADVNP'
tp534
F3
s(S'PP'
S'PANP'
tp535
F38
s(S'MP'
S'MADVVADVAP'
tp536
F1
s(S'NP'
S'NADVDDP'
tp537
F2
s(S'DP'
S'ADVADPP'
tp538
F2
s(S'MP'
S'ADVAMVP'
tp539
F1
s(S'NP'
S'AANMP'
tp540
F2
s(S'AP'
S'AAVP'
tp541
F4
s(g248
S'NAAP'
tp542
F14
s(S'NP'
p543
S'NDDP'
tp544
F8
s(S'CP'
S'ADVADVCDP'
tp545
F2
s(S'MP'
S'MAVNNNP'
tp546
F1
s(g119
S'ACCP'
tp547
F10
s(S'NP'
S'NNVVVP'
tp548
F2
s(S'DP'
S'DDDADVPP'
tp549
F1
s(S'VP'
S'AVPPP'
tp550
F1
s(S'AP'
S'APPPP'
tp551
F1
s(S'NP'
S'NDP'
tp552
F148
s(S'PP'
S'PADVADVADVNP'
tp553
F1
s(S'NP'
S'AAANVP'
tp554
F2
s(S'MP'
S'MVAAP'
tp555
F1
s(S'DP'
S'DDVP'
tp556
F37
s(S'NP'
p557
S'AANVP'
tp558
F6
s(S'PP'
S'PPADVANP'
tp559
F1
s(S'DP'
S'ADDVP'
tp560
F1
s(g20
S'VNNNP'
tp561
F5
s(g420
S'VADVADVPP'
tp562
F1
s(S'PP'
S'ADVPAP'
tp563
F5
s(S'PP'
S'PPPPVVP'
tp564
F1
s(g337
S'PCP'
tp565
F28
s(S'NP'
S'NNPPP'
tp566
F2
s(S'PP'
S'PAADP'
tp567
F2
s(S'NP'
S'NADVCCP'
tp568
F1
s(S'VP'
S'VPPPP'
tp569
F1
s(S'VP'
p570
S'VCCP'
tp571
F16
s(S'MP'
S'MPAP'
tp572
F1
s(S'AP'
S'AADVAP'
tp573
F2
s(S'NP'
S'NNNDP'
tp574
F3
s(S'AP'
S'ADVANNNP'
tp575
F1
s(g360
S'ADVACP'
tp576
F6
s(S'NP'
S'ADVADVNMP'
tp577
F1
s(g570
S'VVVAP'
tp578
F3
s(g121
S'NNVP'
tp579
F87
s(S'MP'
S'MVCP'
tp580
F16
s(S'CP'
S'CCDDP'
tp581
F8
s(g365
S'AVNNP'
tp582
F1
s(S'NP'
S'NNADVVP'
tp583
F1
s(g252
S'VVADVADVAP'
tp584
F2
s(g129
S'PPADVADVVP'
tp585
F1
s(S'NP'
S'AANNDDP'
tp586
F1
s(S'MP'
S'MVMP'
tp587
F1
s(S'DP'
S'AAADNP'
tp588
F1
s(S'NP'
S'NNVVP'
tp589
F15
s(S'NP'
S'NNNNVP'
tp590
F2
s(S'VP'
S'VVCP'
tp591
F22
s(g31
S'PADVADVPP'
tp592
F2
s(g114
S'AANCP'
tp593
F15
s(g48
S'VDP'
tp594
F439
s(g467
S'VVDDDP'
tp595
F1
s(S'AP'
S'ADVAVVP'
tp596
F1
s(S'AP'
S'AAAPP'
tp597
F3
s(S'VP'
S'ADVVPP'
tp598
F17
s(g232
S'PPNP'
tp599
F65
s(S'CP'
S'CDAPPP'
tp600
F1
s(S'VP'
S'VNNP'
tp601
F52
s(S'AP'
S'AADVDP'
tp602
F5
s(g543
S'NADP'
tp603
F3
s(S'MP'
S'MMCP'
tp604
F1
s(S'DP'
S'DDNP'
tp605
F45
s(S'NP'
p606
S'NADVCP'
tp607
F8
s(g309
S'DDNNP'
tp608
F3
s(g48
S'VPPPPP'
tp609
F1
s(S'NP'
p610
S'ADVANVP'
tp611
F3
s(S'NP'
S'NAADP'
tp612
F1
s(S'NP'
S'ADVADVNCP'
tp613
F1
s(S'DP'
S'AADPP'
tp614
F13
s(S'NP'
S'NNDDP'
tp615
F3
s(S'NP'
S'NNNNPP'
tp616
F1
s(S'NP'
S'NNAMP'
tp617
F1
s(S'DP'
p618
S'DADVADVANP'
tp619
F2
s(S'AP'
S'AAMMP'
tp620
F1
s(S'CP'
S'CDPPPPP'
tp621
F1
s(S'NP'
S'NADVADVCCP'
tp622
F1
s(S'MP'
S'MVVNP'
tp623
F6
s(g493
S'MMVVVP'
tp624
F1
s(S'DP'
S'ADVDNNP'
tp625
F1
s(S'CP'
S'ACDDP'
tp626
F1
s(S'PP'
S'PPPADVDP'
tp627
F1
s(S'MP'
p628
S'ADVMNNP'
tp629
F1
s(S'AP'
S'AAPP'
tp630
F7
s(S'VP'
S'VVCCP'
tp631
F3
s(S'MP'
S'MVADVADVPP'
tp632
F1
s(g6
S'ADADDP'
tp633
F1
s(S'DP'
S'DAAAPP'
tp634
F1
s(S'MP'
S'MAAPP'
tp635
F1
s(S'VP'
S'VADVADP'
tp636
F1
s(S'AP'
S'ADVANNP'
tp637
F1
s(g114
S'NAPP'
tp638
F10
s(S'PP'
S'APPVP'
tp639
F2
s(S'PP'
S'PPPPADVADVNNP'
tp640
F1
s(g360
S'ADVAAVP'
tp641
F1
s(S'VP'
S'VVVCP'
tp642
F4
s(S'MP'
S'MVDDP'
tp643
F5
s(S'NP'
S'ANCCP'
tp644
F4
s(S'NP'
S'AANPP'
tp645
F4
s(S'VP'
p646
S'VDDDP'
tp647
F5
s(g455
S'NNMP'
tp648
F25
s(S'DP'
S'DDDVP'
tp649
F9
s(S'CP'
S'CADDPP'
tp650
F1
s(S'PP'
S'PAAAP'
tp651
F3
s(g31
S'ADVADVPNP'
tp652
F2
s(S'VP'
S'VVVDDP'
tp653
F2
s(S'NP'
S'NADVADVADP'
tp654
F1
s(g395
S'ADVANVVP'
tp655
F2
s(S'MP'
S'MVAP'
tp656
F29
s(g413
S'ADVDDAPPP'
tp657
F1
s(g337
S'PVP'
tp658
F305
s(g368
S'VADVPPP'
tp659
F1
s(S'DP'
S'ADVDPP'
tp660
F31
s(S'CP'
S'CCCDDP'
tp661
F2
s(S'PP'
p662
S'APPPP'
tp663
F2
s(S'AP'
S'ADVAACP'
tp664
F2
s(S'DP'
S'DVVVP'
tp665
F9
s(S'VP'
S'ADVVNNNNP'
tp666
F1
s(S'NP'
S'AANNPPP'
tp667
F1
s(S'PP'
S'PPDDP'
tp668
F4
s(g570
S'AVCP'
tp669
F6
s(S'DP'
S'DDVVVP'
tp670
F1
s(S'NP'
S'NAVVP'
tp671
F1
s(S'DP'
p672
S'DPP'
tp673
F842
s(g543
S'ADVNVP'
tp674
F17
s(S'DP'
S'DDPP'
tp675
F136
s(g356
S'DANP'
tp676
F58
s(S'AP'
S'ADVAMP'
tp677
F3
s(S'NP'
p678
S'NADVPP'
tp679
F2
s(S'NP'
S'NNADVADVPP'
tp680
F1
s(S'NP'
S'NAAVP'
tp681
F3
s(S'MP'
S'AMMVVP'
tp682
F1
s(S'DP'
S'ADVADVADPP'
tp683
F1
s(S'DP'
S'AADNP'
tp684
F5
s(S'CP'
S'CADVADVADVDPP'
tp685
F1
s(g138
S'NNAPPP'
tp686
F1
s(g48
S'VADVCP'
tp687
F6
s(S'PP'
S'APAAP'
tp688
F1
s(S'NP'
S'NNNNCP'
tp689
F1
s(g460
S'MDNP'
tp690
F7
s(S'MP'
S'MCCDDDP'
tp691
F1
s(S'PP'
S'AAPADVADVPP'
tp692
F1
s(S'NP'
S'NNNVVP'
tp693
F2
s(g557
S'NAANP'
tp694
F2
s(S'DP'
S'DCCP'
tp695
F1
s(g195
S'MPCCP'
tp696
F1
s(S'PP'
S'AAPDP'
tp697
F1
s(S'MP'
S'MADVVDP'
tp698
F3
s(S'DP'
S'DDADVVP'
tp699
F4
s(S'PP'
S'PDDP'
tp700
F37
s(g143
S'PADVAPP'
tp701
F1
s(S'PP'
S'ADVAPNP'
tp702
F3
s(S'DP'
S'ADPPP'
tp703
F5
s(S'NP'
S'NADVADVVVP'
tp704
F1
s(S'AP'
S'AADVADVCP'
tp705
F1
s(S'AP'
S'ADVADVACP'
tp706
F3
s(g248
S'NNP'
tp707
F4
s(g325
S'VVDDP'
tp708
F2
s(S'DP'
S'DAANP'
tp709
F9
s(S'AP'
S'ADDP'
tp710
F33
s(S'NP'
S'ANNCP'
tp711
F3
s(S'PP'
S'ADVPPNP'
tp712
F2
s(S'AP'
S'AADVDDP'
tp713
F1
s(S'CP'
S'CADVADVDPP'
tp714
F1
s(S'CP'
S'ADVADVADVCDP'
tp715
F1
s(S'DP'
S'DPPP'
tp716
F131
s(S'NP'
S'ADVADVADVANPP'
tp717
F1
s(S'VP'
S'VANNP'
tp718
F1
s(g464
S'ADVPNP'
tp719
F10
s(S'PP'
S'PPDP'
tp720
F43
s(S'MP'
S'MAVDP'
tp721
F1
s(S'NP'
S'NNNCCP'
tp722
F1
s(S'AP'
S'AAPPP'
tp723
F1
s(S'NP'
S'AAANMP'
tp724
F2
s(g183
S'DDCP'
tp725
F1
s(g51
S'ANADVADVVP'
tp726
F1
s(g312
S'NNADVADVAPP'
tp727
F1
s(S'PP'
S'PAANNP'
tp728
F1
s(S'MP'
S'MMAVP'
tp729
F1
s(S'NP'
S'NAP'
tp730
F159
s(S'DP'
S'AADDP'
tp731
F1
s(g570
S'VAAAP'
tp732
F5
s(S'VP'
p733
S'ADVAVNP'
tp734
F1
s(g570
S'VVP'
tp735
F67
s(S'MP'
S'ADVMNP'
tp736
F1
s(S'DP'
S'DADVNP'
tp737
F7
s(g31
S'ADVADVPVP'
tp738
F4
s(g219
S'AAADP'
tp739
F11
s(S'PP'
S'APNP'
tp740
F18
s(S'VP'
S'VVVNNP'
tp741
F1
s(S'AP'
S'ADVADVAAP'
tp742
F1
s(g356
S'DDVVP'
tp743
F5
s(S'AP'
S'AAADDP'
tp744
F2
s(S'VP'
S'VVVNP'
tp745
F7
s(g628
S'MNPP'
tp746
F2
s(g606
S'NNADVPP'
tp747
F1
s(S'MP'
S'MVANP'
tp748
F2
s(g476
S'MVNNP'
tp749
F5
s(g451
S'NADVAMP'
tp750
F1
s(g289
S'CDPP'
tp751
F727
s(S'PP'
S'ADVADVADVPMP'
tp752
F1
s(S'AP'
S'ADDDP'
tp753
F2
s(S'DP'
S'DCCCP'
tp754
F1
s(g305
S'ADVCDP'
tp755
F16
s(g501
S'AAPVVP'
tp756
F2
s(S'VP'
S'ADVADVVNP'
tp757
F6
s(S'NP'
S'NADVADVADVCP'
tp758
F1
s(S'MP'
S'MNPPP'
tp759
F1
s(g68
S'PPNNP'
tp760
F9
s(S'NP'
S'NNADVADVVP'
tp761
F2
s(g58
S'CAADDPP'
tp762
F4
s(S'DP'
S'ADVADVDPP'
tp763
F2
s(S'VP'
S'VAADP'
tp764
F4
s(S'VP'
S'AVDDP'
tp765
F1
s(g402
S'DAP'
tp766
F58
s(g91
S'CADPP'
tp767
F45
s(g275
S'PADVMP'
tp768
F1
s(S'MP'
S'MADVADVVDP'
tp769
F1
s(S'CP'
S'CCCCAAADP'
tp770
F1
s(S'PP'
S'PPDDDP'
tp771
F1
s(g733
S'AVPP'
tp772
F9
s(S'VP'
S'VVADVDP'
tp773
F2
s(S'PP'
S'PPADVADVDDP'
tp774
F1
s(S'PP'
S'PAVVP'
tp775
F2
s(S'CP'
S'CDPPPP'
tp776
F6
s(S'VP'
S'AAVDP'
tp777
F4
s(S'DP'
S'AADNNP'
tp778
F1
s(g155
S'PANNP'
tp779
F2
s(g493
S'MVNNNP'
tp780
F1
s(S'PP'
S'APPP'
tp781
F9
s(g618
S'ADPPPP'
tp782
F1
s(S'VP'
S'ADVVADVAP'
tp783
F1
s(g618
S'DADVADVPP'
tp784
F3
s(g439
S'DMP'
tp785
F8
s(g31
S'PPPNP'
tp786
F4
s(S'NP'
S'NADVAPP'
tp787
F1
s(S'PP'
S'PPAANP'
tp788
F1
s(g31
S'PADVADVNP'
tp789
F4
s(S'VP'
S'ADVADVVAP'
tp790
F2
s(S'DP'
S'ADPP'
tp791
F56
s(g678
S'NNADVVVP'
tp792
F1
s(g610
S'NADVANP'
tp793
F1
s(S'VP'
S'VADVPP'
tp794
F2
s(S'DP'
S'ADVDANP'
tp795
F1
s(g102
S'ADVPVP'
tp796
F14
s(g15
S'DDDDPP'
tp797
F2
s(g76
S'ADVADVANCP'
tp798
F2
s(S'VP'
S'ADVVANP'
tp799
F2
s(g230
S'ADVPDP'
tp800
F4
s(g434
S'MAVNNP'
tp801
F1
s(S'MP'
S'MVADVAP'
tp802
F2
s(g349
S'NCP'
tp803
F564
s(S'VP'
S'ADVADVVVPP'
tp804
F1
s(S'PP'
S'AAAPNP'
tp805
F1
s(g138
S'ADVANDP'
tp806
F1
s(S'AP'
S'AAAP'
tp807
F2
s(S'CP'
S'CDDADVADVPP'
tp808
F1
s(S'DP'
S'ADVADAP'
tp809
F1
s(S'MP'
S'MANMP'
tp810
F1
s(g341
S'AAMP'
tp811
F2
s(S'PP'
S'ADVADVPVVVP'
tp812
F1
s(g662
S'ADVPDDP'
tp813
F1
s(S'NP'
S'AANDP'
tp814
F1
s(S'DP'
S'DADVNNP'
tp815
F1
s(S'AP'
S'AAADVADVADVDP'
tp816
F1
s(S'NP'
S'NNCCP'
tp817
F5
s(S'MP'
S'MNVP'
tp818
F31
s(S'NP'
S'AANAP'
tp819
F1
s(S'CP'
S'ADVADVCCDP'
tp820
F1
s(S'MP'
S'MVADVADVVP'
tp821
F1
s(S'VP'
S'VAPP'
tp822
F2
s(g382
S'NPPPPP'
tp823
F1
s(S'MP'
S'MAVNP'
tp824
F1
s(S'NP'
S'NCCCP'
tp825
F4
s(g570
S'ADVVDP'
tp826
F38
s(S'VP'
S'VADDP'
tp827
F1
s(S'DP'
S'DADVPP'
tp828
F23
s(S'AP'
S'AMP'
tp829
F15
s(S'CP'
S'CCADP'
tp830
F4
s(S'NP'
S'ADVNNCP'
tp831
F2
s(S'DP'
S'ADVDAP'
tp832
F1
s(S'PP'
S'AAPDDDP'
tp833
F1
s(g407
S'ADVAPP'
tp834
F12
s(g449
S'DDADVAPP'
tp835
F1
s(S'AP'
S'ADVAADVADVVP'
tp836
F1
s(S'CP'
S'AACDP'
tp837
F5
s(S'NP'
S'NADVADVACP'
tp838
F1
s(S'CP'
S'CCDDDP'
tp839
F3
s(S'MP'
S'MADVVNNP'
tp840
F1
s(S'CP'
S'CADVADPP'
tp841
F2
s(g402
S'DVP'
tp842
F422
s(S'NP'
S'NADVADVADVADVVVP'
tp843
F1
s(S'NP'
S'ADVNPP'
tp844
F7
s(S'VP'
S'ADVADVADVVVNP'
tp845
F1
s(S'CP'
S'AAACDP'
tp846
F2
s(S'AP'
S'AVP'
tp847
F41
s(S'NP'
S'NADVVP'
tp848
F21
s(S'CP'
S'CDAAAPP'
tp849
F1
s(g646
S'ADVVPPP'
tp850
F1
s(g672
S'DDPPP'
tp851
F12
s(S'NP'
S'ADVNMP'
tp852
F10
s(g385
S'NNAP'
tp853
F15
s(g168
S'PPANP'
tp854
F7
s(S'CP'
S'CDADVPP'
tp855
F16
s(g343
S'VNP'
tp856
F447
s(g158
S'VANP'
tp857
F30
s(S'VP'
S'VADVAP'
tp858
F20
s(g458
S'PPADVNP'
tp859
F2
s(g307
S'NADVPPP'
tp860
F1
s.