ccollections
defaultdict
p1
(c__builtin__
float
p2
tRp3
(S'MP'
S'MMDP'
tp4
F1
s(S'CP'
S'CAAADPP'
tp5
F1
s(S'PP'
S'PAAANP'
tp6
F2
s(S'DP'
p7
S'ADDPP'
tp8
F3
s(S'DP'
p9
S'DDAP'
tp10
F2
s(S'VP'
S'ADVVVNP'
tp11
F1
s(S'VP'
p12
S'VVVVP'
tp13
F3
s(S'DP'
S'DAANNP'
tp14
F1
s(S'PP'
S'PAAANNP'
tp15
F1
s(S'PP'
p16
S'PAPP'
tp17
F4
s(S'PP'
p18
S'PADVNP'
tp19
F20
s(S'DP'
p20
S'DNP'
tp21
F271
s(S'VP'
S'AAAVPP'
tp22
F1
s(S'PP'
S'AAPDDP'
tp23
F1
s(S'CP'
S'CDPPP'
tp24
F66
s(g12
S'VADP'
tp25
F8
s(S'CP'
S'CDAAPPP'
tp26
F2
s(S'DP'
S'DAAP'
tp27
F4
s(S'PP'
S'PPPPPP'
tp28
F4
s(S'VP'
S'VAVP'
tp29
F1
s(g9
S'ADNNP'
tp30
F3
s(S'PP'
p31
S'APVP'
tp32
F10
s(S'MP'
p33
S'MVDP'
tp34
F23
s(S'NP'
S'AANNPP'
tp35
F1
s(S'PP'
p36
S'PPPP'
tp37
F32
s(S'VP'
S'VVVVDDP'
tp38
F1
s(S'DP'
S'DDDNP'
tp39
F3
s(S'VP'
S'VACP'
tp40
F3
s(S'PP'
S'PPAAP'
tp41
F3
s(S'DP'
S'DADVVP'
tp42
F1
s(S'MP'
S'MVVADVDP'
tp43
F1
s(S'NP'
p44
S'NCCCP'
tp45
F6
s(S'CP'
S'CADVADVDDPP'
tp46
F1
s(S'VP'
p47
S'VCP'
tp48
F98
s(S'NP'
p49
S'NMMP'
tp50
F7
s(S'VP'
S'VVAANNP'
tp51
F1
s(S'VP'
S'ADVVAAP'
tp52
F1
s(S'NP'
S'NNADVAP'
tp53
F1
s(S'DP'
p54
S'DDDNNP'
tp55
F1
s(S'PP'
S'PAP'
tp56
F89
s(S'MP'
S'MADVVCCP'
tp57
F1
s(S'MP'
p58
S'MMVVP'
tp59
F2
s(S'PP'
p60
S'ADVPPVP'
tp61
F2
s(S'NP'
S'NNNAP'
tp62
F2
s(S'CP'
S'AAAACDP'
tp63
F1
s(S'PP'
S'APVVP'
tp64
F1
s(S'VP'
S'ADVVCCP'
tp65
F1
s(S'NP'
p66
S'NAAAVP'
tp67
F1
s(S'PP'
S'PPADVDP'
tp68
F1
s(g18
S'PNP'
tp69
F331
s(S'MP'
S'MADVCDP'
tp70
F1
s(g9
S'DDP'
tp71
F46
s(S'NP'
S'NNNPP'
tp72
F9
s(S'VP'
p73
S'VCCP'
tp74
F25
s(S'MP'
S'MCDP'
tp75
F5
s(S'CP'
p76
S'AACCDP'
tp77
F2
s(S'DP'
S'DDAANP'
tp78
F2
s(S'VP'
S'ADVADVVVCP'
tp79
F1
s(S'NP'
p80
S'NMP'
tp81
F92
s(S'NP'
S'ADVNCCP'
tp82
F1
s(S'MP'
S'MPAAANP'
tp83
F1
s(S'VP'
p84
S'AAVNP'
tp85
F3
s(S'VP'
S'VMMP'
tp86
F2
s(g18
S'PDP'
tp87
F249
s(S'CP'
S'CDADVADVPP'
tp88
F1
s(S'NP'
S'ADVNVVP'
tp89
F3
s(S'VP'
p90
S'VNNNNP'
tp91
F1
s(g58
S'MNNVP'
tp92
F2
s(g76
S'CDADVADVPPP'
tp93
F1
s(S'VP'
S'AVVAP'
tp94
F1
s(S'PP'
S'PADVPP'
tp95
F2
s(S'PP'
p96
S'ADVADVADVADVPPAAAVP'
tp97
F1
s(S'NP'
S'NNADVCP'
tp98
F1
s(S'CP'
p99
S'CDDAPPP'
tp100
F1
s(S'PP'
S'AAPPPP'
tp101
F1
s(S'DP'
S'DPPPP'
tp102
F18
s(S'DP'
S'DDANP'
tp103
F1
s(g44
S'NACP'
tp104
F14
s(S'AP'
S'ADVAVP'
tp105
F3
s(S'NP'
p106
S'NCCP'
tp107
F74
s(S'NP'
S'ADVNDP'
tp108
F2
s(S'AP'
S'AAAADP'
tp109
F2
s(S'CP'
S'CADVDDPP'
tp110
F1
s(S'NP'
p111
S'NNCP'
tp112
F89
s(S'DP'
S'ADVDDPP'
tp113
F1
s(S'NP'
S'NADVADVVP'
tp114
F1
s(S'VP'
S'AVNP'
tp115
F8
s(S'VP'
S'VVADP'
tp116
F2
s(S'DP'
S'DDAAANP'
tp117
F1
s(S'PP'
S'PADVADVANP'
tp118
F1
s(S'PP'
S'ADVPVVP'
tp119
F1
s(S'VP'
p120
S'VVMP'
tp121
F7
s(S'VP'
p122
S'VVAACP'
tp123
F1
s(S'MP'
S'MVAPP'
tp124
F2
s(S'MP'
S'MAAP'
tp125
F1
s(g58
S'MVPPP'
tp126
F2
s(S'NP'
S'ANADVVP'
tp127
F1
s(S'NP'
p128
S'NCCCCP'
tp129
F1
s(S'MP'
S'MADVVNNP'
tp130
F1
s(g120
S'AVNNP'
tp131
F1
s(S'VP'
S'VCCCP'
tp132
F1
s(S'MP'
S'MADVPNP'
tp133
F1
s(S'PP'
p134
S'APDP'
tp135
F14
s(S'VP'
S'VADVNNP'
tp136
F2
s(S'VP'
p137
S'ADVVNNP'
tp138
F2
s(S'NP'
S'ANNPP'
tp139
F2
s(S'PP'
S'PPANNP'
tp140
F1
s(S'VP'
S'VVANP'
tp141
F7
s(S'VP'
S'VVVVDP'
tp142
F1
s(g90
S'ADVVVP'
tp143
F1
s(S'AP'
S'AANP'
tp144
F1
s(S'PP'
S'PCCP'
tp145
F1
s(S'PP'
p146
S'PAAP'
tp147
F18
s(S'MP'
p148
S'MPNNP'
tp149
F1
s(S'DP'
p150
S'DNNP'
tp151
F72
s(S'VP'
S'ADVVAANP'
tp152
F1
s(S'DP'
S'DPPPPP'
tp153
F8
s(S'CP'
S'CDDPPPP'
tp154
F3
s(S'CP'
S'CCADVDP'
tp155
F4
s(S'DP'
p156
S'ADDNP'
tp157
F1
s(g44
S'NNNVP'
tp158
F9
s(S'VP'
p159
S'VDP'
tp160
F268
s(S'NP'
S'NNAAAACP'
tp161
F1
s(S'PP'
S'AAPPDP'
tp162
F1
s(g60
S'PADVVP'
tp163
F9
s(S'PP'
S'APAP'
tp164
F4
s(S'AP'
S'APP'
tp165
F26
s(g128
S'NADVMP'
tp166
F1
s(S'AP'
S'AAP'
tp167
F13
s(S'MP'
S'ADVMAVP'
tp168
F1
s(S'CP'
S'CADVADPP'
tp169
F1
s(g49
S'ADVADVNDP'
tp170
F1
s(S'PP'
S'PAAAAVP'
tp171
F1
s(S'MP'
S'MVVCP'
tp172
F2
s(S'DP'
S'DAAVP'
tp173
F2
s(S'CP'
S'CDDDDPP'
tp174
F1
s(S'MP'
S'MPVP'
tp175
F1
s(S'PP'
p176
S'PAANP'
tp177
F8
s(S'DP'
S'ADVDVP'
tp178
F4
s(S'NP'
S'ANVP'
tp179
F16
s(S'VP'
S'VAAAP'
tp180
F3
s(S'NP'
S'NNAAAP'
tp181
F1
s(S'MP'
p182
S'MVNP'
tp183
F41
s(S'CP'
S'CDDDPPP'
tp184
F1
s(S'PP'
S'PAVP'
tp185
F7
s(S'MP'
S'ADVMVP'
tp186
F3
s(S'PP'
S'ADVAPNNP'
tp187
F1
s(S'DP'
p188
S'DDAPPP'
tp189
F1
s(S'VP'
S'VVVPP'
tp190
F1
s(S'PP'
S'APPPP'
tp191
F2
s(S'DP'
p192
S'DADP'
tp193
F3
s(S'DP'
S'DADVADVPPP'
tp194
F1
s(S'AP'
S'ADVADP'
tp195
F2
s(S'PP'
S'APDDP'
tp196
F1
s(S'DP'
S'DDDDVVP'
tp197
F1
s(S'VP'
S'ADVVNP'
tp198
F13
s(S'NP'
p199
S'ADVNADVMP'
tp200
F1
s(S'MP'
S'MNNCP'
tp201
F1
s(S'MP'
S'MNCP'
tp202
F4
s(g12
S'VVNP'
tp203
F58
s(g16
S'PPPNNP'
tp204
F4
s(S'PP'
p205
S'PPVP'
tp206
F39
s(S'VP'
p207
S'VADVDP'
tp208
F7
s(S'VP'
S'VVADVAP'
tp209
F1
s(g207
S'VAAP'
tp210
F18
s(g44
S'ANDP'
tp211
F8
s(g106
S'NVVP'
tp212
F92
s(S'PP'
S'AAPVP'
tp213
F5
s(S'PP'
p214
S'PPADP'
tp215
F1
s(S'VP'
S'VMP'
tp216
F27
s(S'VP'
p217
S'VVNNP'
tp218
F13
s(S'CP'
p219
S'CDAPP'
tp220
F16
s(S'CP'
S'CDDAAPP'
tp221
F3
s(S'MP'
p222
S'MMPP'
tp223
F1
s(S'DP'
S'ADVADVP'
tp224
F2
s(g122
S'VVAPP'
tp225
F1
s(g192
S'ADNP'
tp226
F6
s(S'VP'
S'ADVVACP'
tp227
F1
s(S'PP'
S'PADP'
tp228
F8
s(S'VP'
S'ADVVVCP'
tp229
F1
s(S'NP'
S'ANDDP'
tp230
F1
s(S'DP'
S'DADVAP'
tp231
F2
s(S'DP'
S'ADVDAANP'
tp232
F1
s(S'CP'
S'ADVADVACDP'
tp233
F1
s(g9
S'DAPP'
tp234
F28
s(g217
S'AVVP'
tp235
F2
s(S'MP'
S'MADVADVVNP'
tp236
F1
s(S'VP'
p237
S'VADVAAP'
tp238
F1
s(S'VP'
S'ADVADVVDP'
tp239
F2
s(S'PP'
S'PPPDP'
tp240
F3
s(S'DP'
S'DAAPPP'
tp241
F2
s(S'AP'
S'AAPPP'
tp242
F2
s(S'MP'
S'MADVADVDNP'
tp243
F1
s(S'VP'
S'VVAAP'
tp244
F1
s(g12
S'VAAPP'
tp245
F2
s(S'DP'
S'ADVDNP'
tp246
F7
s(g159
S'VVPP'
tp247
F27
s(S'CP'
S'CCADDP'
tp248
F1
s(S'MP'
S'AAMMVP'
tp249
F1
s(S'DP'
S'ADADVPP'
tp250
F1
s(S'PP'
S'PPCCCCP'
tp251
F1
s(S'MP'
S'MVPP'
tp252
F14
s(S'DP'
S'ADVP'
tp253
F4
s(S'AP'
S'ADVADVANNNP'
tp254
F1
s(S'DP'
S'DDAAPP'
tp255
F4
s(S'NP'
p256
S'NNPP'
tp257
F65
s(S'CP'
S'CCCADVDP'
tp258
F2
s(S'MP'
S'MVVDP'
tp259
F1
s(S'DP'
S'DADVPPP'
tp260
F3
s(S'PP'
p261
S'PPVVP'
tp262
F4
s(g54
S'DNNNP'
tp263
F5
s(g214
S'PMMP'
tp264
F1
s(S'PP'
S'PVVVP'
tp265
F1
s(g134
S'PMP'
tp266
F15
s(S'CP'
S'CCDP'
tp267
F111
s(S'VP'
S'VADVANP'
tp268
F1
s(S'PP'
S'PPNNNP'
tp269
F1
s(S'DP'
p270
S'AADDPP'
tp271
F1
s(S'NP'
S'NVVVP'
tp272
F7
s(S'CP'
S'CDDDPP'
tp273
F11
s(g219
S'CDAAPP'
tp274
F7
s(S'VP'
S'VVVDP'
tp275
F6
s(S'PP'
S'PNNNP'
tp276
F3
s(S'CP'
S'CCCCDP'
tp277
F2
s(S'DP'
S'ADVADVADVADPP'
tp278
F1
s(S'PP'
S'PADVADVADVNNP'
tp279
F1
s(S'PP'
p280
S'AAPNP'
tp281
F3
s(S'PP'
S'PPP'
tp282
F94
s(S'NP'
p283
S'NAVP'
tp284
F11
s(S'DP'
S'DDNNNP'
tp285
F1
s(S'VP'
p286
S'VVVANP'
tp287
F1
s(S'NP'
S'NADVVVP'
tp288
F5
s(S'NP'
S'ADVADVANDDP'
tp289
F1
s(S'AP'
S'AADVVP'
tp290
F1
s(g31
S'PPPPDP'
tp291
F3
s(S'DP'
S'ADVADVDNP'
tp292
F1
s(S'AP'
S'AAADVCP'
tp293
F1
s(g159
S'VPP'
tp294
F135
s(S'NP'
S'NNNCP'
tp295
F11
s(S'PP'
S'PADVDP'
tp296
F5
s(S'PP'
p297
S'PPPAAVP'
tp298
F1
s(S'AP'
S'ADVAADP'
tp299
F2
s(S'DP'
S'DANNP'
tp300
F3
s(g219
S'CDDPP'
tp301
F77
s(g9
S'DAAPP'
tp302
F10
s(g205
S'PVVP'
tp303
F36
s(S'CP'
S'CADPPP'
tp304
F3
s(S'AP'
p305
S'AACP'
tp306
F9
s(S'VP'
p307
S'ADVVCP'
tp308
F4
s(S'VP'
p309
S'VPPP'
tp310
F23
s(S'VP'
p311
S'AVCCP'
tp312
F1
s(S'VP'
S'VVPPP'
tp313
F2
s(S'VP'
S'AAAVVAP'
tp314
F1
s(S'PP'
S'PPPAAAVVP'
tp315
F1
s(S'PP'
p316
S'PPAP'
tp317
F13
s(g20
S'DVVP'
tp318
F42
s(S'PP'
S'PADVAVP'
tp319
F1
s(S'NP'
p320
S'ANMP'
tp321
F3
s(S'AP'
S'APPP'
tp322
F1
s(S'VP'
S'AAAVVP'
tp323
F1
s(g137
S'VVVP'
tp324
F9
s(S'CP'
S'CADVDPP'
tp325
F16
s(S'NP'
S'AAAANPP'
tp326
F1
s(S'NP'
p327
S'ANCP'
tp328
F36
s(g156
S'DCP'
tp329
F14
s(g80
S'ANNCP'
tp330
F2
s(S'NP'
p331
S'AAANCP'
tp332
F1
s(S'DP'
S'DAAVVP'
tp333
F1
s(g156
S'DDDP'
tp334
F13
s(S'AP'
S'ADDDDP'
tp335
F1
s(S'DP'
S'DDADVPP'
tp336
F3
s(S'NP'
S'ANNVVP'
tp337
F1
s(S'NP'
S'ANVVP'
tp338
F5
s(g134
S'PPPNNNP'
tp339
F1
s(S'VP'
S'VVDP'
tp340
F61
s(S'NP'
p341
S'NPPP'
tp342
F21
s(S'DP'
S'DAVP'
tp343
F9
s(S'NP'
S'NNNMP'
tp344
F3
s(S'AP'
p345
S'ACP'
tp346
F44
s(S'PP'
p347
S'AAPAP'
tp348
F1
s(S'VP'
S'VAAAAP'
tp349
F1
s(g261
S'PPNP'
tp350
F61
s(S'MP'
S'MADVVPP'
tp351
F2
s(S'PP'
S'AAAAPDP'
tp352
F1
s(S'DP'
p353
S'AADVP'
tp354
F3
s(g12
S'VAANNP'
tp355
F1
s(S'VP'
S'AAAAVDDP'
tp356
F1
s(S'CP'
S'CDDADVPP'
tp357
F1
s(g219
S'CCCDDP'
tp358
F1
s(S'AP'
S'ADP'
tp359
F263
s(g9
S'DDPPPP'
tp360
F4
s(S'CP'
S'CADDPP'
tp361
F1
s(S'VP'
S'VAAANP'
tp362
F1
s(S'MP'
S'MADDP'
tp363
F1
s(S'NP'
S'NADVADVAP'
tp364
F1
s(S'VP'
S'AVDP'
tp365
F8
s(S'NP'
S'ANNVP'
tp366
F2
s(S'VP'
S'VVAP'
tp367
F14
s(S'NP'
S'NNAPP'
tp368
F1
s(S'PP'
S'PAAAANP'
tp369
F1
s(S'VP'
p370
S'AAVCP'
tp371
F1
s(g80
S'NPP'
tp372
F205
s(S'PP'
S'PPPPNP'
tp373
F4
s(S'NP'
p374
S'NADVANP'
tp375
F1
s(S'NP'
p376
S'NNDDDP'
tp377
F1
s(S'PP'
S'PAAVP'
tp378
F1
s(S'NP'
p379
S'NAAPP'
tp380
F1
s(S'PP'
S'PPPPVP'
tp381
F1
s(g309
S'VDDP'
tp382
F35
s(S'DP'
S'DAPPP'
tp383
F2
s(S'NP'
S'AANVVP'
tp384
F1
s(S'DP'
S'DADVAPP'
tp385
F1
s(S'DP'
S'DAAAVP'
tp386
F1
s(S'NP'
S'NNAACCP'
tp387
F1
s(S'NP'
S'NADVADVVVP'
tp388
F1
s(S'NP'
S'ANPP'
tp389
F13
s(S'PP'
S'ADVPPDP'
tp390
F1
s(S'PP'
S'PPPPP'
tp391
F3
s(S'MP'
S'MPDP'
tp392
F7
s(S'MP'
S'MVVPP'
tp393
F3
s(S'PP'
S'PPPNP'
tp394
F4
s(g379
S'NPPPP'
tp395
F1
s(S'NP'
S'NNCCCCP'
tp396
F1
s(g99
S'CAADPP'
tp397
F9
s(S'DP'
S'DADVADVVP'
tp398
F2
s(S'NP'
p399
S'NAACP'
tp400
F2
s(g134
S'PNNP'
tp401
F77
s(S'PP'
p402
S'APNNP'
tp403
F2
s(g222
S'MMNP'
tp404
F1
s(S'DP'
S'AAADPP'
tp405
F1
s(S'VP'
p406
S'AVAP'
tp407
F2
s(g148
S'MMVP'
tp408
F10
s(g256
S'ADVNCP'
tp409
F6
s(g9
S'ADPP'
tp410
F35
s(g219
S'ACDP'
tp411
F17
s(g44
S'NNDP'
tp412
F23
s(S'AP'
S'ADVANP'
tp413
F2
s(S'CP'
S'CCCCDDP'
tp414
F1
s(S'NP'
S'NNACP'
tp415
F2
s(S'MP'
S'MDNNP'
tp416
F2
s(S'CP'
S'CDADVPPP'
tp417
F2
s(g47
S'VAP'
tp418
F124
s(S'MP'
S'MNVVP'
tp419
F4
s(S'DP'
S'DDDPP'
tp420
F12
s(g44
S'AANNCP'
tp421
F3
s(S'PP'
S'ADVPMP'
tp422
F1
s(S'VP'
p423
S'VADVMP'
tp424
F1
s(S'VP'
S'VVPPPPP'
tp425
F1
s(S'AP'
S'AAVVP'
tp426
F3
s(g58
S'MNMP'
tp427
F1
s(g7
S'DDDPPP'
tp428
F2
s(g347
S'AAAAPDDP'
tp429
F1
s(S'MP'
S'MNNMP'
tp430
F1
s(S'AP'
S'AAACP'
tp431
F1
s(g270
S'ADADVVP'
tp432
F1
s(g347
S'PAAAAPP'
tp433
F1
s(S'AP'
S'AVVP'
tp434
F2
s(S'PP'
S'PPPVP'
tp435
F3
s(g406
S'AAVAP'
tp436
F1
s(S'AP'
S'AADDP'
tp437
F3
s(S'MP'
S'MAADP'
tp438
F1
s(S'VP'
S'VAANP'
tp439
F5
s(S'NP'
S'NVVVVP'
tp440
F2
s(S'DP'
S'DADVADVDP'
tp441
F1
s(g33
S'MPNP'
tp442
F9
s(S'MP'
S'MADP'
tp443
F1
s(S'PP'
S'PPPDDP'
tp444
F1
s(S'AP'
S'AMMP'
tp445
F2
s(S'CP'
S'CCAADP'
tp446
F2
s(S'DP'
S'DDADVNP'
tp447
F1
s(S'PP'
S'PANP'
tp448
F25
s(S'PP'
S'PDDDP'
tp449
F1
s(S'NP'
S'ANNMP'
tp450
F1
s(S'MP'
S'MVVPPP'
tp451
F1
s(g66
S'AANMP'
tp452
F2
s(S'AP'
S'AAVP'
tp453
F2
s(g49
S'NAAP'
tp454
F10
s(g44
S'NDDP'
tp455
F20
s(S'NP'
S'ADVADVANPP'
tp456
F1
s(S'AP'
S'ACCP'
tp457
F9
s(S'NP'
S'ADVADVANCP'
tp458
F1
s(S'NP'
S'NDP'
tp459
F108
s(S'NP'
S'AAANVP'
tp460
F2
s(S'DP'
S'DDVP'
tp461
F36
s(S'NP'
S'ANADVADVDP'
tp462
F1
s(S'NP'
S'AANVP'
tp463
F5
s(S'CP'
S'CADVADVADVADPP'
tp464
F1
s(g307
S'VNNNP'
tp465
F3
s(S'PP'
S'PPPAAAP'
tp466
F1
s(S'PP'
S'ADVPAP'
tp467
F1
s(S'NP'
S'NNAAAAPP'
tp468
F1
s(S'PP'
S'PCP'
tp469
F9
s(S'NP'
S'NNPPP'
tp470
F4
s(S'VP'
S'VAACCP'
tp471
F1
s(S'PP'
S'PAADP'
tp472
F3
s(S'NP'
S'ADVNNPP'
tp473
F1
s(S'MP'
S'MPAP'
tp474
F1
s(S'PP'
S'AAAPPNNP'
tp475
F1
s(g327
S'AANVVVP'
tp476
F1
s(S'PP'
S'AAPNNP'
tp477
F1
s(g44
S'NNVP'
tp478
F84
s(g58
S'MVCP'
tp479
F7
s(S'CP'
p480
S'CCDDP'
tp481
F19
s(S'NP'
S'NNADVVP'
tp482
F5
s(g331
S'AANNDP'
tp483
F1
s(g96
S'PPPADVADVADVADVPPP'
tp484
F1
s(g399
S'NNVVP'
tp485
F14
s(S'PP'
S'PPADVPPP'
tp486
F1
s(S'NP'
S'NNNNVP'
tp487
F2
s(S'VP'
S'VVCP'
tp488
F20
s(S'MP'
S'MVAANP'
tp489
F1
s(S'NP'
p490
S'AANCP'
tp491
F14
s(g423
S'VADVNP'
tp492
F4
s(S'AP'
S'ADVAVVP'
tp493
F2
s(g311
S'VAAAPPP'
tp494
F1
s(S'PP'
S'APPP'
tp495
F3
s(S'MP'
S'MNNPP'
tp496
F1
s(S'VP'
S'ADVVPP'
tp497
F5
s(S'VP'
S'ADVVVPPP'
tp498
F1
s(g73
S'VNNP'
tp499
F61
s(S'AP'
S'AADVDP'
tp500
F2
s(S'AP'
S'AAAMP'
tp501
F1
s(g44
S'NADP'
tp502
F2
s(g9
S'DDNP'
tp503
F51
s(g99
S'ACADVDP'
tp504
F2
s(g49
S'NADVCP'
tp505
F6
s(S'DP'
S'DDNNP'
tp506
F7
s(S'PP'
S'AAPPP'
tp507
F1
s(S'NP'
S'ADVANVP'
tp508
F1
s(S'AP'
S'AADVADP'
tp509
F1
s(S'NP'
p510
S'NAADP'
tp511
F1
s(S'NP'
p512
S'ADVADVNCP'
tp513
F1
s(g188
S'AADPP'
tp514
F12
s(S'PP'
S'APPNP'
tp515
F1
s(S'NP'
S'NNNNPP'
tp516
F2
s(S'DP'
S'DADVADVANP'
tp517
F1
s(g134
S'AAPDP'
tp518
F2
s(S'NP'
S'NAAMMP'
tp519
F1
s(S'MP'
S'MVAAAP'
tp520
F1
s(S'MP'
S'MADVVDP'
tp521
F2
s(S'DP'
p522
S'ADVVP'
tp523
F2
s(S'CP'
p524
S'ACDDP'
tp525
F3
s(S'VP'
p526
S'ADVVCCCP'
tp527
F1
s(S'AP'
S'AAPP'
tp528
F7
s(S'VP'
S'VVCCP'
tp529
F6
s(S'DP'
S'DMMP'
tp530
F1
s(g347
S'PADVMP'
tp531
F1
s(S'DP'
S'DADVADVNP'
tp532
F1
s(g280
S'ADVPANP'
tp533
F1
s(g44
S'NAPP'
tp534
F5
s(g283
S'NADVDP'
tp535
F2
s(g526
S'VVVCP'
tp536
F3
s(S'NP'
S'ANCCP'
tp537
F6
s(S'NP'
S'AANPP'
tp538
F5
s(S'VP'
S'VVADVNP'
tp539
F1
s(g49
S'NNMP'
tp540
F16
s(S'DP'
S'DDDVP'
tp541
F3
s(S'VP'
S'AAVPP'
tp542
F1
s(g7
S'DDADDP'
tp543
F1
s(S'MP'
S'MPANP'
tp544
F1
s(g146
S'PAAAP'
tp545
F1
s(S'PP'
S'ADVADVPNP'
tp546
F2
s(S'CP'
S'CDDAPP'
tp547
F1
s(S'NP'
S'ANAP'
tp548
F2
s(S'MP'
S'MVAP'
tp549
F9
s(S'PP'
S'PVP'
tp550
F209
s(g9
S'DVVVP'
tp551
F6
s(S'VP'
p552
S'VVAAVP'
tp553
F1
s(S'NP'
S'ADVADVANVP'
tp554
F1
s(S'PP'
S'PPDDP'
tp555
F8
s(S'VP'
S'AVCP'
tp556
F4
s(S'DP'
p557
S'DDVVVP'
tp558
F1
s(S'NP'
S'NAVVP'
tp559
F1
s(S'DP'
p560
S'DPP'
tp561
F438
s(g80
S'ADVNVP'
tp562
F7
s(g9
S'DDPP'
tp563
F104
s(S'DP'
S'DDAVP'
tp564
F3
s(S'DP'
p565
S'DANP'
tp566
F19
s(S'AP'
S'ADVAMP'
tp567
F2
s(g49
S'NNNDP'
tp568
F3
s(S'NP'
S'ADVNVVVP'
tp569
F1
s(g512
S'AANADVVP'
tp570
F1
s(g128
S'NAAVP'
tp571
F1
s(g270
S'AADNP'
tp572
F5
s(S'VP'
S'VADVCP'
tp573
F1
s(g182
S'MDNP'
tp574
F8
s(S'DP'
S'ADDPPP'
tp575
F1
s(S'NP'
S'NNNVVP'
tp576
F4
s(S'NP'
S'ADVNMMP'
tp577
F2
s(S'CP'
S'AACDDDP'
tp578
F1
s(S'CP'
S'CDPPPPP'
tp579
F7
s(S'VP'
S'VVDDP'
tp580
F13
s(S'PP'
S'PDDP'
tp581
F32
s(S'MP'
S'MVDDP'
tp582
F2
s(S'DP'
S'ADPPP'
tp583
F6
s(S'NP'
S'NNP'
tp584
F5
s(g353
S'ADVADPP'
tp585
F1
s(g557
S'DAANP'
tp586
F8
s(S'DP'
S'DVVVVP'
tp587
F1
s(S'AP'
S'ADDP'
tp588
F39
s(S'VP'
S'VADVADVMP'
tp589
F1
s(S'AP'
S'AADVADVVVP'
tp590
F1
s(S'VP'
p591
S'ADVVVAP'
tp592
F2
s(g316
S'ADVPPNP'
tp593
F1
s(S'CP'
S'CADVADVDPP'
tp594
F2
s(g557
S'DPPP'
tp595
F93
s(S'DP'
S'AADVVVP'
tp596
F1
s(S'VP'
S'VANNP'
tp597
F1
s(S'NP'
S'NNAVP'
tp598
F1
s(g54
S'ADDADVPP'
tp599
F1
s(S'MP'
S'MADVVCCCP'
tp600
F1
s(S'PP'
S'ADVPNP'
tp601
F6
s(g36
S'PPDP'
tp602
F33
s(S'NP'
S'NADVADVACP'
tp603
F1
s(S'DP'
S'ADVDCP'
tp604
F1
s(S'NP'
S'AAANMP'
tp605
F1
s(S'DP'
S'DDCP'
tp606
F3
s(S'PP'
S'PAANNP'
tp607
F1
s(S'AP'
S'ANNP'
tp608
F1
s(g58
S'MNCCP'
tp609
F1
s(S'MP'
S'AAMDP'
tp610
F1
s(g106
S'NAP'
tp611
F111
s(g111
S'NNAAP'
tp612
F6
s(S'PP'
S'ADVADVPPPP'
tp613
F1
s(g199
S'ADVADVADVANAP'
tp614
F1
s(g237
S'ADVAVNP'
tp615
F1
s(g73
S'VVP'
tp616
F40
s(S'VP'
S'VVVDDDP'
tp617
F1
s(S'DP'
S'DDAPP'
tp618
F3
s(S'AP'
S'AAADP'
tp619
F9
s(g134
S'APNP'
tp620
F11
s(S'VP'
S'VVVNNP'
tp621
F1
s(S'DP'
S'DDVVP'
tp622
F9
s(g345
S'AAADDP'
tp623
F1
s(g286
S'VVVNP'
tp624
F4
s(S'MP'
S'MNPP'
tp625
F2
s(S'MP'
S'MAAVCP'
tp626
F1
s(S'DP'
S'ADVADVDDPP'
tp627
F1
s(S'MP'
S'MVNNP'
tp628
F3
s(S'CP'
S'CDPP'
tp629
F344
s(S'AP'
S'ADDDP'
tp630
F4
s(g480
S'ADVCADP'
tp631
F2
s(S'MP'
S'MAAVDP'
tp632
F1
s(S'VP'
S'VDDDP'
tp633
F3
s(S'CP'
S'ADVCDP'
tp634
F9
s(S'PP'
S'AAPVVP'
tp635
F1
s(S'VP'
S'ADVADVVNP'
tp636
F2
s(S'MP'
S'MNDDP'
tp637
F1
s(S'MP'
S'MNPPP'
tp638
F1
s(S'VP'
p639
S'ADVADVVCP'
tp640
F1
s(g297
S'PPNNP'
tp641
F11
s(S'PP'
S'PADVCP'
tp642
F1
s(S'AP'
S'ADVACCP'
tp643
F3
s(S'CP'
S'CAADDPP'
tp644
F1
s(S'DP'
S'ADVADVDPP'
tp645
F3
s(g90
S'VAADP'
tp646
F2
s(S'NP'
S'NADVAP'
tp647
F1
s(g84
S'AVDDP'
tp648
F2
s(g522
S'DADVNP'
tp649
F2
s(S'DP'
S'DAP'
tp650
F18
s(S'CP'
S'CADPP'
tp651
F20
s(S'NP'
S'NNNNNDP'
tp652
F1
s(g552
S'ADVADVVVPP'
tp653
F1
s(g591
S'AVPP'
tp654
F4
s(S'VP'
S'VVADVDP'
tp655
F1
s(g524
S'CDPPPP'
tp656
F10
s(g639
S'AAVDP'
tp657
F3
s(g18
S'PANNP'
tp658
F2
s(S'NP'
S'NNDDP'
tp659
F1
s(S'VP'
S'ADVVADVAP'
tp660
F1
s(S'DP'
S'DADVADVPP'
tp661
F2
s(g188
S'DMP'
tp662
F5
s(g150
S'ADVDPP'
tp663
F26
s(g402
S'PADVADVNP'
tp664
F1
s(g345
S'AADP'
tp665
F49
s(S'PP'
S'PPAAVP'
tp666
F1
s(S'NP'
S'NNADVVVP'
tp667
F1
s(g80
S'NVP'
tp668
F403
s(S'VP'
S'VADVPP'
tp669
F2
s(S'CP'
S'CDDPPP'
tp670
F6
s(g176
S'ADVPVP'
tp671
F9
s(S'DP'
S'DDDDPP'
tp672
F1
s(S'MP'
S'MACDP'
tp673
F1
s(g341
S'NNVVVP'
tp674
F5
s(S'VP'
S'ADVVANP'
tp675
F1
s(g402
S'ADVPDP'
tp676
F4
s(g176
S'PPPVVP'
tp677
F1
s(S'AP'
S'AAADVADP'
tp678
F1
s(g106
S'NCP'
tp679
F263
s(S'CP'
S'CADVDPPP'
tp680
F3
s(S'VP'
p681
S'ADVVVPP'
tp682
F1
s(g374
S'ADVANDP'
tp683
F2
s(S'AP'
S'AAAP'
tp684
F1
s(S'AP'
S'AAMP'
tp685
F2
s(S'VP'
S'AAVVDP'
tp686
F1
s(S'MP'
S'MVCCP'
tp687
F2
s(g49
S'NNCCP'
tp688
F15
s(S'MP'
S'MNVP'
tp689
F18
s(S'NP'
S'AANAP'
tp690
F1
s(S'NP'
S'AANCCP'
tp691
F1
s(g681
S'VAPP'
tp692
F2
s(S'NP'
S'NPPPPP'
tp693
F1
s(S'MP'
S'MAVNP'
tp694
F1
s(g12
S'ADVVDP'
tp695
F11
s(S'VP'
S'VADDP'
tp696
F1
s(S'NP'
S'ADVADVADVNNVP'
tp697
F1
s(g156
S'DADVPP'
tp698
F13
s(g305
S'AMP'
tp699
F13
s(S'CP'
S'CCADP'
tp700
F6
s(S'NP'
S'ADVNNCP'
tp701
F1
s(S'AP'
S'ADVAPP'
tp702
F2
s(S'NP'
S'AAANDP'
tp703
F1
s(S'MP'
S'ADVADVMNP'
tp704
F1
s(S'CP'
S'AACDP'
tp705
F2
s(S'NP'
S'NNNCCP'
tp706
F2
s(g376
S'NNADDP'
tp707
F1
s(S'CP'
S'CCCDP'
tp708
F7
s(S'DP'
S'ADVDPPP'
tp709
F5
s(g560
S'DVP'
tp710
F262
s(S'VP'
S'ADVVAP'
tp711
F3
s(S'NP'
S'ADVNPP'
tp712
F1
s(S'DP'
S'AAADVVP'
tp713
F1
s(g510
S'NNCCCP'
tp714
F2
s(S'AP'
S'AVP'
tp715
F20
s(g490
S'NADVVP'
tp716
F11
s(S'NP'
S'AAANNVP'
tp717
F1
s(g7
S'DADDP'
tp718
F2
s(S'VP'
S'ADVVPPP'
tp719
F1
s(g565
S'DDPPP'
tp720
F14
s(S'NP'
S'ADVNMP'
tp721
F6
s(g320
S'NNAP'
tp722
F10
s(S'MP'
S'MADVVCP'
tp723
F1
s(S'PP'
S'PPANP'
tp724
F5
s(g370
S'AAAVNP'
tp725
F1
s(S'CP'
S'CDADVPP'
tp726
F4
s(S'VP'
S'VNP'
tp727
F309
s(S'VP'
S'VANP'
tp728
F28
s(g12
S'VADVAP'
tp729
F4
s(S'PP'
S'PPADVNP'
tp730
F2
s.