ccollections
defaultdict
p1
(c__builtin__
float
p2
tRp3
(S'VP'
S'VVAAAP'
tp4
F1
s(S'MP'
S'MADVVCCP'
tp5
F1
s(S'PP'
S'ADVADVADVADVADVPAP'
tp6
F1
s(S'CP'
S'CAAADPP'
tp7
F1
s(S'DP'
p8
S'DDMP'
tp9
F1
s(S'DP'
S'ADDPP'
tp10
F3
s(S'NP'
S'ADVNNMP'
tp11
F1
s(S'DP'
S'DDAP'
tp12
F4
s(S'CP'
S'CCAADDP'
tp13
F1
s(S'CP'
S'CCDDDDP'
tp14
F2
s(S'VP'
p15
S'VVVVP'
tp16
F2
s(S'PP'
p17
S'PAPP'
tp18
F5
s(S'PP'
S'PADVNP'
tp19
F25
s(S'DP'
p20
S'DNP'
tp21
F507
s(S'DP'
S'AADDNP'
tp22
F1
s(S'VP'
S'VVADVCP'
tp23
F4
s(S'CP'
S'CDPPP'
tp24
F101
s(S'PP'
S'ADVPPANP'
tp25
F1
s(S'VP'
S'VADP'
tp26
F16
s(S'DP'
S'DNNNNP'
tp27
F3
s(S'DP'
S'DAAP'
tp28
F1
s(S'PP'
S'PPAVP'
tp29
F2
s(S'CP'
S'CCCADDP'
tp30
F1
s(S'VP'
p31
S'VAVP'
tp32
F1
s(S'PP'
p33
S'APPDP'
tp34
F2
s(S'DP'
p35
S'DAADP'
tp36
F1
s(S'DP'
S'ADNNP'
tp37
F2
s(S'MP'
S'MDVP'
tp38
F1
s(S'VP'
S'ADVVNP'
tp39
F19
s(S'MP'
S'MVDP'
tp40
F57
s(S'PP'
S'PADVANP'
tp41
F2
s(S'NP'
S'AANNPP'
tp42
F2
s(S'PP'
S'PPPP'
tp43
F42
s(S'DP'
p44
S'DDDNP'
tp45
F5
s(S'PP'
S'PAAANP'
tp46
F1
s(S'VP'
S'VACP'
tp47
F7
s(S'PP'
S'PPAAP'
tp48
F2
s(S'DP'
S'DADVVP'
tp49
F13
s(S'AP'
p50
S'AADVPP'
tp51
F1
s(S'PP'
p52
S'PACCP'
tp53
F1
s(S'NP'
S'AANADVADVVVP'
tp54
F1
s(S'NP'
S'NADVACP'
tp55
F2
s(S'NP'
S'NDDDP'
tp56
F2
s(S'NP'
S'NADVVVP'
tp57
F3
s(S'CP'
S'CADVADVDDPP'
tp58
F1
s(S'VP'
S'VCP'
tp59
F260
s(S'MP'
S'MVVANP'
tp60
F1
s(S'NP'
S'NMMP'
tp61
F9
s(S'DP'
S'DDDNNP'
tp62
F1
s(S'PP'
S'ADVPNNP'
tp63
F2
s(S'PP'
S'PAP'
tp64
F187
s(S'NP'
S'ADVADVADVNNMP'
tp65
F1
s(S'MP'
S'MMVVP'
tp66
F2
s(S'DP'
p67
S'DDADVADVPP'
tp68
F1
s(S'NP'
S'NNNAP'
tp69
F3
s(S'PP'
p70
S'APVVP'
tp71
F1
s(S'VP'
S'ADVVCCP'
tp72
F2
s(S'MP'
S'AMVP'
tp73
F3
s(S'PP'
p74
S'PNP'
tp75
F647
s(S'DP'
S'DDAAADP'
tp76
F1
s(S'AP'
S'AADVADVDP'
tp77
F1
s(S'DP'
S'DDP'
tp78
F111
s(S'VP'
S'ADVVDDP'
tp79
F2
s(S'NP'
p80
S'NNNPP'
tp81
F10
s(S'NP'
p82
S'NNDP'
tp83
F19
s(S'MP'
S'MCDP'
tp84
F5
s(S'PP'
S'ADVPCP'
tp85
F1
s(S'CP'
S'AACCDP'
tp86
F3
s(S'PP'
p87
S'ADVADVPPDP'
tp88
F1
s(S'NP'
S'NNADVADVCP'
tp89
F2
s(S'VP'
S'ADVVVDP'
tp90
F1
s(S'MP'
S'MNAP'
tp91
F2
s(S'PP'
S'PPPNNP'
tp92
F1
s(S'NP'
p93
S'NMP'
tp94
F206
s(S'VP'
S'VAAADP'
tp95
F1
s(S'VP'
p96
S'VMMP'
tp97
F1
s(g74
S'PDP'
tp98
F478
s(S'DP'
S'DDPPPPP'
tp99
F2
s(S'CP'
S'CDADVADVPP'
tp100
F4
s(S'VP'
S'VNNNNP'
tp101
F1
s(S'MP'
S'MMMMNP'
tp102
F1
s(S'VP'
S'AVAAP'
tp103
F1
s(S'PP'
p104
S'PPPAANP'
tp105
F1
s(S'NP'
S'NACCP'
tp106
F2
s(S'AP'
S'ANP'
tp107
F5
s(S'PP'
p108
S'PADVPP'
tp109
F3
s(S'MP'
p110
S'MVADVANP'
tp111
F1
s(S'NP'
S'NNADVCP'
tp112
F3
s(S'CP'
S'CDDAPPP'
tp113
F1
s(S'MP'
S'MVACP'
tp114
F1
s(S'PP'
S'AAPPPP'
tp115
F2
s(S'PP'
p116
S'ADVADVAPVP'
tp117
F1
s(S'DP'
S'DPPPP'
tp118
F14
s(S'DP'
p119
S'DDANP'
tp120
F2
s(S'PP'
S'PADVADP'
tp121
F1
s(S'NP'
S'NACP'
tp122
F16
s(S'AP'
S'ADVAVP'
tp123
F3
s(S'NP'
S'NCCP'
tp124
F89
s(S'CP'
S'CDDADVADVAPP'
tp125
F2
s(S'AP'
S'AAAADP'
tp126
F1
s(S'NP'
S'NNCP'
tp127
F152
s(S'DP'
S'ADVDDPP'
tp128
F1
s(S'NP'
S'NADVADVVP'
tp129
F5
s(S'DP'
p130
S'DDDDP'
tp131
F7
s(S'VP'
S'AVVNNP'
tp132
F1
s(S'VP'
S'AVNP'
tp133
F14
s(S'VP'
S'VVADP'
tp134
F1
s(S'AP'
S'ADVADVADVAADVDP'
tp135
F1
s(S'NP'
S'NNNAPP'
tp136
F1
s(S'DP'
S'DDAAANP'
tp137
F1
s(S'MP'
S'MADVVPPP'
tp138
F1
s(S'VP'
S'ADVADVADVVVDP'
tp139
F1
s(S'PP'
p140
S'ADVPVVP'
tp141
F2
s(S'DP'
S'DDADVADVAPP'
tp142
F2
s(S'VP'
S'VVMP'
tp143
F1
s(S'VP'
p144
S'VADVVP'
tp145
F6
s(S'VP'
S'ADVADVADVVNP'
tp146
F1
s(S'DP'
S'ADVADVADVDDPP'
tp147
F1
s(S'MP'
S'MVPPP'
tp148
F1
s(S'PP'
S'ADVAPVP'
tp149
F1
s(S'NP'
S'NCCCCP'
tp150
F1
s(S'MP'
p151
S'MADVADVVNNP'
tp152
F1
s(S'VP'
S'ADVVAP'
tp153
F5
s(S'PP'
S'ADVAPPP'
tp154
F1
s(S'VP'
S'VCCCP'
tp155
F1
s(S'AP'
S'AAADDP'
tp156
F2
s(S'PP'
p157
S'APDP'
tp158
F33
s(S'PP'
S'PAAAADDP'
tp159
F1
s(S'PP'
S'ADVADVAPNP'
tp160
F2
s(S'MP'
S'MNNVVP'
tp161
F1
s(S'VP'
S'ADVVNNP'
tp162
F1
s(S'DP'
S'AAAADDNP'
tp163
F1
s(S'VP'
S'VVADVADVVP'
tp164
F1
s(S'VP'
p165
S'VVANP'
tp166
F4
s(S'VP'
S'VVVVDP'
tp167
F2
s(S'VP'
S'ADVVVP'
tp168
F5
s(S'NP'
S'NAAAAAP'
tp169
F1
s(S'AP'
S'AADVADVADVDP'
tp170
F1
s(S'CP'
p171
S'CCCADP'
tp172
F1
s(g151
S'MADVVNP'
tp173
F3
s(S'PP'
p174
S'PAAP'
tp175
F27
s(S'MP'
S'MPNNP'
tp176
F1
s(S'NP'
p177
S'ADVANCP'
tp178
F1
s(S'DP'
S'DNNP'
tp179
F100
s(S'CP'
S'CADVDDPP'
tp180
F1
s(S'DP'
p181
S'DPPPPP'
tp182
F3
s(S'CP'
S'CDDPPPP'
tp183
F1
s(S'CP'
S'CCADVDP'
tp184
F4
s(S'PP'
p185
S'AAAPPPP'
tp186
F1
s(S'VP'
S'VVACP'
tp187
F2
s(S'NP'
S'AAANAP'
tp188
F1
s(S'NP'
S'NNNVP'
tp189
F11
s(S'PP'
S'PAAVVP'
tp190
F1
s(S'VP'
S'VADVNNP'
tp191
F3
s(S'VP'
S'ADVVAANNP'
tp192
F1
s(S'PP'
S'PADVVP'
tp193
F8
s(S'DP'
S'DACP'
tp194
F1
s(S'PP'
S'PADVADVADVAP'
tp195
F1
s(S'PP'
S'ADVAPNNP'
tp196
F1
s(S'MP'
S'ADVMMANP'
tp197
F1
s(S'AP'
S'APP'
tp198
F62
s(S'AP'
S'ACCCP'
tp199
F2
s(S'NP'
S'NADVMP'
tp200
F3
s(g50
S'AAP'
tp201
F18
s(S'VP'
S'VADVADVVP'
tp202
F1
s(g31
S'VVAPP'
tp203
F2
s(S'NP'
S'ADVADVNDP'
tp204
F1
s(S'AP'
S'AAADVDDP'
tp205
F1
s(S'NP'
S'ADVANPP'
tp206
F5
s(S'MP'
S'MVVCP'
tp207
F5
s(S'DP'
p208
S'DAAVP'
tp209
F5
s(S'CP'
S'CDDDDPP'
tp210
F2
s(S'MP'
S'MVVVNP'
tp211
F1
s(S'PP'
S'PAANP'
tp212
F9
s(S'DP'
S'DDADVADVVP'
tp213
F1
s(S'NP'
S'ANVP'
tp214
F27
s(S'VP'
S'VAACP'
tp215
F2
s(S'NP'
S'NNAAAP'
tp216
F2
s(S'MP'
S'MVNP'
tp217
F66
s(S'NP'
S'NNANP'
tp218
F1
s(S'NP'
S'NNNNCCCCP'
tp219
F1
s(S'DP'
S'ADDDP'
tp220
F1
s(S'CP'
S'CDDDPPP'
tp221
F1
s(S'PP'
S'PAVP'
tp222
F20
s(S'MP'
S'ADVMVP'
tp223
F2
s(S'PP'
S'APAP'
tp224
F2
s(S'CP'
p225
S'AACDDP'
tp226
F1
s(S'DP'
S'DDAPPP'
tp227
F1
s(S'VP'
S'VVVPP'
tp228
F4
s(S'NP'
S'NNADP'
tp229
F1
s(S'NP'
S'NMMMMP'
tp230
F1
s(S'PP'
S'APPPP'
tp231
F1
s(S'DP'
S'DADP'
tp232
F7
s(S'AP'
S'ADVADP'
tp233
F5
s(S'CP'
S'ADVADVCDP'
tp234
F2
s(S'PP'
p235
S'APDDP'
tp236
F4
s(S'VP'
p237
S'ADVADVVVNP'
tp238
F2
s(S'VP'
S'ADVADVVANP'
tp239
F1
s(S'NP'
S'ADVNAP'
tp240
F1
s(S'PP'
S'AAPNNNP'
tp241
F1
s(S'MP'
S'MDVVP'
tp242
F1
s(g17
S'APVP'
tp243
F15
s(S'MP'
p244
S'MNCP'
tp245
F2
s(S'VP'
p246
S'VVNP'
tp247
F67
s(S'PP'
p248
S'ADVPPPP'
tp249
F2
s(g248
S'PPVP'
tp250
F43
s(S'MP'
S'MPCP'
tp251
F1
s(S'VP'
p252
S'VADVDP'
tp253
F4
s(S'PP'
S'PPADVADVADVNP'
tp254
F1
s(S'VP'
S'VVADVAP'
tp255
F1
s(S'VP'
S'VAAP'
tp256
F27
s(S'PP'
S'PPPADVADVNNP'
tp257
F1
s(S'NP'
p258
S'ANDP'
tp259
F11
s(S'NP'
S'NVVP'
tp260
F85
s(S'PP'
p261
S'AAPVP'
tp262
F4
s(S'VP'
S'VMP'
tp263
F12
s(S'NP'
S'ANNAP'
tp264
F1
s(S'VP'
S'VVNNP'
tp265
F5
s(S'CP'
S'CDAPP'
tp266
F56
s(S'VP'
S'VVAAP'
tp267
F1
s(S'DP'
S'ADVADVP'
tp268
F1
s(S'CP'
S'CADVADPP'
tp269
F1
s(S'DP'
S'ADNP'
tp270
F12
s(S'PP'
p271
S'PAPPP'
tp272
F1
s(S'NP'
S'ADVNNAAP'
tp273
F1
s(S'PP'
S'PPPPAP'
tp274
F1
s(S'PP'
S'PADP'
tp275
F13
s(S'VP'
p276
S'ADVVVCP'
tp277
F2
s(S'NP'
S'NADVADVADVVVP'
tp278
F3
s(S'NP'
p279
S'ANDDP'
tp280
F2
s(S'DP'
S'ADVADVDVP'
tp281
F1
s(S'DP'
S'DADVAP'
tp282
F1
s(S'DP'
S'DDADVDP'
tp283
F2
s(S'AP'
S'AAAAAPP'
tp284
F1
s(g130
S'DAPP'
tp285
F70
s(S'VP'
S'VVVVPP'
tp286
F1
s(S'VP'
S'ADVADVVPP'
tp287
F2
s(S'MP'
S'MADVADVVNP'
tp288
F1
s(S'VP'
S'VADVAAP'
tp289
F1
s(S'VP'
S'ADVADVADVVDP'
tp290
F1
s(S'CP'
S'CADPPPP'
tp291
F3
s(S'VP'
p292
S'ADVADVVDP'
tp293
F6
s(S'VP'
S'AVVNP'
tp294
F2
s(S'PP'
S'PPPDP'
tp295
F4
s(S'DP'
S'DAAPPP'
tp296
F1
s(S'PP'
S'AAAPDP'
tp297
F1
s(S'MP'
S'MVVAP'
tp298
F1
s(S'VP'
S'VDDDDP'
tp299
F1
s(S'DP'
S'DAAANP'
tp300
F1
s(S'DP'
S'DADVANP'
tp301
F1
s(g44
S'ADVDNP'
tp302
F6
s(S'VP'
S'VVPP'
tp303
F32
s(S'NP'
S'AAAANVP'
tp304
F1
s(S'DP'
S'ADADVPP'
tp305
F1
s(S'PP'
p306
S'PAVVP'
tp307
F1
s(S'MP'
S'MVPP'
tp308
F29
s(g8
S'ADVP'
tp309
F12
s(S'MP'
p310
S'MVADP'
tp311
F1
s(S'CP'
S'CDDPPP'
tp312
F6
s(S'PP'
S'PPAVVP'
tp313
F1
s(S'MP'
S'ADVMVVP'
tp314
F1
s(S'MP'
p315
S'MDDNP'
tp316
F1
s(S'NP'
S'NNPP'
tp317
F40
s(S'NP'
p318
S'AAANDP'
tp319
F1
s(S'DP'
p320
S'DDDDNP'
tp321
F1
s(S'MP'
S'MVVDP'
tp322
F8
s(g44
S'DADVPPP'
tp323
F1
s(S'PP'
S'PPVVP'
tp324
F4
s(S'VP'
S'VVADVCCP'
tp325
F1
s(g20
S'DNNNP'
tp326
F13
s(S'DP'
S'ADVDDVP'
tp327
F2
s(S'NP'
S'ADVNNADVCP'
tp328
F1
s(S'PP'
S'PADVADVVP'
tp329
F3
s(S'NP'
p330
S'ADVANVVP'
tp331
F2
s(S'PP'
S'PVVVP'
tp332
F4
s(g70
S'PMP'
tp333
F29
s(S'NP'
S'NNMMP'
tp334
F3
s(S'CP'
p335
S'CCDP'
tp336
F131
s(S'VP'
S'VADVANP'
tp337
F3
s(S'NP'
S'ADVADVADVNCP'
tp338
F1
s(S'DP'
S'AADDPP'
tp339
F1
s(S'NP'
S'NVVVP'
tp340
F7
s(S'CP'
S'CDDDPP'
tp341
F19
s(S'CP'
S'CDAAPP'
tp342
F5
s(S'VP'
S'VVVDP'
tp343
F4
s(S'PP'
S'PDDDDP'
tp344
F2
s(S'PP'
p345
S'PNNNP'
tp346
F19
s(S'MP'
S'MVVVAP'
tp347
F1
s(S'CP'
S'CCCCDP'
tp348
F1
s(S'PP'
S'PADVADVADVNNP'
tp349
F1
s(S'AP'
p350
S'AACCP'
tp351
F1
s(S'PP'
S'AAPNP'
tp352
F2
s(S'PP'
S'PADVVVP'
tp353
F1
s(S'PP'
S'PPP'
tp354
F201
s(S'NP'
S'NAVP'
tp355
F24
s(S'PP'
S'PADVAP'
tp356
F3
s(S'NP'
S'ANNPPP'
tp357
F1
s(S'DP'
p358
S'DDNNNP'
tp359
F2
s(S'NP'
S'ANNCCCP'
tp360
F1
s(S'VP'
S'AAVVP'
tp361
F1
s(S'DP'
S'ADVDVP'
tp362
F5
s(S'PP'
S'PPADVADVNP'
tp363
F1
s(S'DP'
p364
S'DDADVADVADVADVADVPP'
tp365
F1
s(S'NP'
p366
S'NCCCP'
tp367
F5
s(S'PP'
S'PPPPDP'
tp368
F2
s(S'MP'
S'MADVADVVPP'
tp369
F1
s(S'DP'
S'DAAADP'
tp370
F1
s(S'VP'
S'VPP'
tp371
F256
s(S'CP'
S'ADVCCDP'
tp372
F1
s(S'CP'
p373
S'ACCDP'
tp374
F3
s(S'NP'
S'ANAAP'
tp375
F1
s(S'NP'
S'NNNCP'
tp376
F24
s(S'PP'
S'PADVDP'
tp377
F3
s(S'CP'
S'CDADVAPP'
tp378
F1
s(S'AP'
p379
S'ADVAADP'
tp380
F2
s(g119
S'DANNP'
tp381
F3
s(S'MP'
S'MADVVAP'
tp382
F1
s(S'PP'
S'PADVAAP'
tp383
F1
s(g335
S'CDDPP'
tp384
F143
s(S'DP'
p385
S'DAAPP'
tp386
F11
s(g248
S'PVVP'
tp387
F47
s(S'CP'
S'CADPPP'
tp388
F8
s(S'AP'
S'AACP'
tp389
F12
s(S'NP'
S'NADVMMP'
tp390
F1
s(S'VP'
S'ADVVCP'
tp391
F15
s(g15
S'VPPP'
tp392
F15
s(S'VP'
p393
S'AVCCP'
tp394
F2
s(S'CP'
S'CDADVADVAPP'
tp395
F1
s(S'VP'
S'VVPPP'
tp396
F2
s(S'NP'
S'ADVADVADVNVVP'
tp397
F1
s(g157
S'PPAP'
tp398
F16
s(S'DP'
S'DVVP'
tp399
F54
s(S'PP'
S'PADVAVP'
tp400
F1
s(S'CP'
S'CDDAAPP'
tp401
F3
s(S'NP'
S'ANMP'
tp402
F6
s(S'AP'
S'APPP'
tp403
F6
s(S'PP'
p404
S'ADVPPP'
tp405
F3
s(S'NP'
S'ADVADVNVP'
tp406
F4
s(S'VP'
S'VVVP'
tp407
F14
s(S'CP'
p408
S'CADVDPP'
tp409
F28
s(S'VP'
S'ADVADVVCCP'
tp410
F1
s(S'NP'
S'ANCP'
tp411
F46
s(S'VP'
S'VADVADVACP'
tp412
F1
s(S'DP'
S'DCP'
tp413
F27
s(S'NP'
S'ANNCP'
tp414
F3
s(S'NP'
S'AAANCP'
tp415
F1
s(S'AP'
S'AAAPP'
tp416
F1
s(S'VP'
S'ADVVVVP'
tp417
F1
s(S'DP'
S'DADVCP'
tp418
F1
s(S'NP'
S'NNVVVVP'
tp419
F2
s(S'CP'
S'ADVACDDP'
tp420
F2
s(g130
S'DDDP'
tp421
F31
s(S'AP'
S'ADDDDP'
tp422
F1
s(S'DP'
p423
S'DDADVPP'
tp424
F6
s(S'CP'
S'CADVADVADPP'
tp425
F1
s(S'MP'
S'MAADP'
tp426
F1
s(S'NP'
S'ANVVP'
tp427
F10
s(S'DP'
S'DDDNNNP'
tp428
F1
s(S'VP'
S'VVDP'
tp429
F64
s(S'NP'
S'NPPP'
tp430
F29
s(g306
S'PPAPP'
tp431
F2
s(S'VP'
S'VVADVDP'
tp432
F2
s(S'DP'
p433
S'DAVP'
tp434
F18
s(S'NP'
S'NNNMP'
tp435
F6
s(S'AP'
S'ACP'
tp436
F70
s(S'PP'
S'AAPAP'
tp437
F1
s(S'NP'
S'NDDDDP'
tp438
F2
s(S'PP'
S'PADVADVNNP'
tp439
F1
s(S'PP'
S'PPNP'
tp440
F78
s(S'AP'
S'ADVACCP'
tp441
F1
s(S'DP'
S'ADVDAPP'
tp442
F1
s(g364
S'AADVP'
tp443
F3
s(g174
S'PPPPDDP'
tp444
F2
s(S'VP'
S'VAANNP'
tp445
F2
s(S'CP'
S'CDDADVPP'
tp446
F6
s(S'CP'
S'CCCDDP'
tp447
F1
s(S'AP'
S'ADP'
tp448
F477
s(S'DP'
S'DDPPPP'
tp449
F2
s(S'NP'
S'ADVANCCP'
tp450
F1
s(S'DP'
S'AAAADPP'
tp451
F1
s(S'DP'
S'DVVVVP'
tp452
F1
s(S'VP'
S'ADVADVVNNP'
tp453
F2
s(S'AP'
S'AAADP'
tp454
F8
s(g279
S'ANNVP'
tp455
F3
s(S'VP'
S'VVAP'
tp456
F17
s(S'PP'
S'PPAAAAP'
tp457
F2
s(S'NP'
p458
S'NADVAP'
tp459
F2
s(S'CP'
p460
S'CDDDAPP'
tp461
F1
s(S'DP'
S'DDDCP'
tp462
F1
s(S'PP'
S'PPADVVP'
tp463
F3
s(S'VP'
S'AAVCP'
tp464
F2
s(g80
S'NPP'
tp465
F346
s(S'DP'
S'DDDDANP'
tp466
F1
s(S'NP'
S'NVP'
tp467
F614
s(S'PP'
S'PPVVVP'
tp468
F3
s(g96
S'VVNNNNP'
tp469
F1
s(S'PP'
S'AAPPNP'
tp470
F1
s(g458
S'NAAPP'
tp471
F1
s(g423
S'DDDDNNP'
tp472
F1
s(S'VP'
S'VDDP'
tp473
F65
s(S'VP'
S'ADVVADVAP'
tp474
F1
s(S'DP'
S'DADVAPP'
tp475
F4
s(S'NP'
S'NADVADVVVP'
tp476
F3
s(S'NP'
S'ANPP'
tp477
F28
s(S'PP'
S'PPPPP'
tp478
F5
s(S'MP'
S'MPDP'
tp479
F1
s(S'PP'
S'ADVADVPDP'
tp480
F1
s(S'PP'
S'PPCP'
tp481
F1
s(S'MP'
S'MVVPP'
tp482
F5
s(S'DP'
S'ADVDPP'
tp483
F40
s(S'VP'
S'ADVADVVADVAP'
tp484
F2
s(S'MP'
S'MVAANNP'
tp485
F1
s(S'NP'
S'NPPPP'
tp486
F2
s(S'DP'
S'ADDP'
tp487
F1
s(S'NP'
S'NADVAAP'
tp488
F1
s(S'CP'
S'CDDDADVPP'
tp489
F1
s(S'CP'
S'CAADPP'
tp490
F12
s(g93
S'NAACP'
tp491
F7
s(g74
S'PNNP'
tp492
F106
s(S'PP'
S'APNNP'
tp493
F2
s(S'DP'
S'DDAAP'
tp494
F1
s(S'DP'
S'AAADPP'
tp495
F3
s(g116
S'PADVADVNP'
tp496
F3
s(S'NP'
S'NNNNMMP'
tp497
F1
s(S'VP'
S'AVAP'
tp498
F2
s(S'MP'
S'MMVP'
tp499
F13
s(S'PP'
S'PADVDDP'
tp500
F1
s(S'PP'
S'ADVADVAPDP'
tp501
F1
s(S'AP'
S'AAPPPP'
tp502
F1
s(S'NP'
p503
S'ADVNCP'
tp504
F13
s(S'DP'
S'ADPP'
tp505
F88
s(S'VP'
S'VAPPP'
tp506
F1
s(S'CP'
S'ACDP'
tp507
F26
s(S'VP'
S'ADVVVNP'
tp508
F2
s(S'VP'
S'VCCP'
tp509
F30
s(S'AP'
S'ADVANP'
tp510
F3
s(g460
S'CCCCDDP'
tp511
F1
s(S'NP'
S'NNACP'
tp512
F1
s(S'VP'
S'VVADVNP'
tp513
F1
s(S'VP'
S'VAP'
tp514
F195
s(S'VP'
S'VVVVNP'
tp515
F1
s(S'MP'
S'MNVVP'
tp516
F2
s(g358
S'DDDPP'
tp517
F25
s(S'CP'
S'ADVCDDP'
tp518
F1
s(S'PP'
p519
S'PAAPP'
tp520
F1
s(S'AP'
S'AAVVP'
tp521
F1
s(S'MP'
S'MAVPP'
tp522
F1
s(S'NP'
S'NNPPPPP'
tp523
F2
s(S'DP'
S'DDDPPP'
tp524
F3
s(S'VP'
S'ADVAVDP'
tp525
F1
s(S'DP'
S'DADVDP'
tp526
F4
s(S'NP'
S'ADVANPPP'
tp527
F1
s(S'CP'
S'CCADVADP'
tp528
F1
s(g350
S'AAACP'
tp529
F1
s(S'NP'
S'NAAP'
tp530
F19
s(S'MP'
S'MVVAPP'
tp531
F1
s(S'PP'
S'PPPVP'
tp532
F5
s(S'VP'
S'AAVAP'
tp533
F2
s(S'AP'
S'AADDP'
tp534
F4
s(g165
S'VAANP'
tp535
F7
s(S'NP'
S'NADVADVCP'
tp536
F1
s(S'PP'
S'PPPCP'
tp537
F1
s(S'MP'
S'MADVADVADVVNP'
tp538
F1
s(S'DP'
S'ADVADVADVDVP'
tp539
F1
s(S'NP'
S'NVVVVP'
tp540
F2
s(g52
S'PAAAAP'
tp541
F1
s(g244
S'MPNP'
tp542
F3
s(S'MP'
S'MADP'
tp543
F7
s(S'DP'
S'DDAAAPPP'
tp544
F2
s(S'DP'
S'DDADVNP'
tp545
F1
s(g157
S'PANP'
tp546
F43
s(S'DP'
S'AADNP'
tp547
F2
s(S'DP'
S'ADVADPP'
tp548
F2
s(S'NP'
S'AANMP'
tp549
F4
s(S'AP'
p550
S'AAVP'
tp551
F3
s(S'AP'
S'AVVP'
tp552
F6
s(g82
S'NDDP'
tp553
F17
s(S'AP'
S'ACCP'
tp554
F4
s(S'DP'
S'DDDADVPP'
tp555
F1
s(S'VP'
S'AVPPP'
tp556
F1
s(S'NP'
S'NDP'
tp557
F168
s(S'PP'
S'PADVADVADVNP'
tp558
F1
s(S'NP'
S'NNNNVVP'
tp559
F1
s(S'MP'
S'MVAAP'
tp560
F4
s(g181
S'DDVP'
tp561
F48
s(S'MP'
S'MMADVVVP'
tp562
F1
s(g503
S'AANVP'
tp563
F8
s(S'PP'
S'PPADVANP'
tp564
F1
s(S'DP'
S'DADVADVAPP'
tp565
F1
s(S'VP'
S'AAVVPP'
tp566
F1
s(S'VP'
S'VNNNP'
tp567
F6
s(S'PP'
S'ADVPAP'
tp568
F4
s(S'DP'
S'AADADVADVVP'
tp569
F1
s(g345
S'PADVMP'
tp570
F1
s(g458
S'NNPPP'
tp571
F4
s(S'VP'
S'VAACCP'
tp572
F3
s(g404
S'PAADP'
tp573
F5
s(S'PP'
p574
S'ADVAPADVPP'
tp575
F1
s(S'VP'
S'VPPPP'
tp576
F1
s(S'MP'
S'MPAP'
tp577
F1
s(S'AP'
S'AADVAP'
tp578
F1
s(S'NP'
S'NNNDP'
tp579
F1
s(S'AP'
S'ADVACP'
tp580
F9
s(S'PP'
S'AAPNNP'
tp581
F2
s(g393
S'AVVDP'
tp582
F1
s(g433
S'ADPPP'
tp583
F11
s(S'MP'
S'MVCP'
tp584
F12
s(S'CP'
S'CCDDP'
tp585
F15
s(S'NP'
S'NNADVVP'
tp586
F3
s(g364
S'DDADP'
tp587
F2
s(S'DP'
S'AAADNP'
tp588
F1
s(S'NP'
p589
S'NNVVP'
tp590
F14
s(S'NP'
S'NAAMP'
tp591
F1
s(S'NP'
S'NNNNVP'
tp592
F2
s(S'VP'
p593
S'VVCP'
tp594
F48
s(S'NP'
S'AANCP'
tp595
F14
s(S'VP'
p596
S'VADVNP'
tp597
F3
s(S'PP'
S'PPPAPP'
tp598
F1
s(g379
S'ADVAVVP'
tp599
F2
s(g258
S'NNDDP'
tp600
F6
s(S'VP'
S'ADVVPP'
tp601
F11
s(g15
S'VVADVANP'
tp602
F2
s(g225
S'CADVADVADVDDPP'
tp603
F1
s(S'AP'
S'AAAADDP'
tp604
F1
s(S'CP'
p605
S'CDAPPP'
tp606
F3
s(S'VP'
S'VNNP'
tp607
F38
s(S'NP'
S'ADVADVNPPP'
tp608
F1
s(S'AP'
S'AADVDP'
tp609
F3
s(g177
S'NADP'
tp610
F4
s(g130
S'DDNP'
tp611
F55
s(g366
S'NADVCP'
tp612
F7
s(g358
S'DDNNP'
tp613
F14
s(S'VP'
S'ADVAVPP'
tp614
F1
s(S'NP'
S'ADVANVP'
tp615
F2
s(S'PP'
S'APCP'
tp616
F1
s(S'PP'
S'APPADVNNP'
tp617
F1
s(S'NP'
S'AANAAP'
tp618
F1
s(g35
S'AADPP'
tp619
F14
s(S'PP'
S'APPNP'
tp620
F1
s(S'NP'
S'NNNNPP'
tp621
F2
s(S'VP'
S'VVVVCP'
tp622
F1
s(S'AP'
S'AADVADVVP'
tp623
F1
s(S'CP'
S'CDPPPPP'
tp624
F1
s(S'NP'
S'NADVADVCCP'
tp625
F1
s(S'MP'
S'MVVNP'
tp626
F9
s(S'CP'
p627
S'ACDDP'
tp628
F4
s(S'NP'
S'ADVADVNNCP'
tp629
F2
s(S'PP'
S'PPPADVDP'
tp630
F1
s(S'AP'
S'AAPP'
tp631
F8
s(S'VP'
S'VVCCP'
tp632
F5
s(S'DP'
p633
S'DMMP'
tp634
F1
s(S'PP'
S'PCP'
tp635
F27
s(S'DP'
S'DAAAPP'
tp636
F1
s(S'PP'
S'ADVPANP'
tp637
F1
s(S'DP'
S'DDDANNP'
tp638
F1
s(S'NP'
S'NAPP'
tp639
F4
s(g271
S'APPVP'
tp640
F3
s(S'NP'
S'NADVDP'
tp641
F1
s(S'VP'
S'VVVCP'
tp642
F2
s(S'NP'
S'ANCCP'
tp643
F7
s(S'NP'
S'AANPP'
tp644
F1
s(g252
S'VDDDP'
tp645
F7
s(S'NP'
S'NNMP'
tp646
F20
s(S'CP'
S'ADVADVACDP'
tp647
F1
s(S'CP'
S'CADDPP'
tp648
F2
s(S'PP'
S'PAAAP'
tp649
F1
s(g104
S'ADVADVPNP'
tp650
F3
s(S'MP'
S'MDANP'
tp651
F1
s(S'CP'
S'CDDAPP'
tp652
F6
s(S'NP'
S'ANAP'
tp653
F2
s(S'MP'
S'MVAP'
tp654
F21
s(S'PP'
S'PVP'
tp655
F406
s(S'DP'
S'DADVAVP'
tp656
F1
s(S'MP'
S'AAMVP'
tp657
F1
s(S'VP'
S'VVVAANP'
tp658
F1
s(S'AP'
S'ADVAACP'
tp659
F1
s(g208
S'DVVVP'
tp660
F3
s(g140
S'PPADVPP'
tp661
F1
s(g157
S'PPDDP'
tp662
F5
s(g31
S'AVCP'
tp663
F9
s(S'NP'
S'NADVADVAP'
tp664
F1
s(g20
S'DPP'
tp665
F928
s(S'DP'
S'ADVVP'
tp666
F3
s(g177
S'ADVNVP'
tp667
F8
s(g20
S'DDPP'
tp668
F201
s(g358
S'DANP'
tp669
F51
s(S'NP'
S'NADVPP'
tp670
F4
s(S'NP'
S'NNAAVVP'
tp671
F1
s(S'MP'
S'MMAP'
tp672
F1
s(S'NP'
S'NAAVP'
tp673
F5
s(S'DP'
S'ADVADVADPP'
tp674
F1
s(g157
S'PDDDP'
tp675
F7
s(S'VP'
S'VADVCP'
tp676
F4
s(S'NP'
S'NNNNAP'
tp677
F1
s(S'NP'
S'NNNNCP'
tp678
F4
s(S'MP'
S'MDNP'
tp679
F3
s(S'NP'
S'NNAACP'
tp680
F1
s(S'NP'
S'NNNVVP'
tp681
F2
s(S'NP'
S'ADVNMMP'
tp682
F1
s(S'NP'
S'NAANP'
tp683
F1
s(S'DP'
S'DCCP'
tp684
F4
s(S'PP'
S'ADVADVPPP'
tp685
F1
s(g519
S'AAPDP'
tp686
F4
s(S'MP'
S'MADVVDP'
tp687
F4
s(S'DP'
S'DDADVVP'
tp688
F2
s(g157
S'PDDP'
tp689
F53
s(S'MP'
S'MVDDP'
tp690
F3
s(S'PP'
S'PCCP'
tp691
F2
s(S'NP'
S'NNVP'
tp692
F88
s(g252
S'AVDP'
tp693
F26
s(S'NP'
S'NNP'
tp694
F7
s(g252
S'VVDDP'
tp695
F4
s(S'DP'
S'DAANP'
tp696
F7
s(S'AP'
S'ADDP'
tp697
F41
s(S'PP'
S'PNNNNP'
tp698
F3
s(S'CP'
S'CADVADVDPP'
tp699
F4
s(S'DP'
S'DPPP'
tp700
F142
s(S'DP'
S'DAVVP'
tp701
F1
s(S'DP'
S'AADPPP'
tp702
F3
s(S'VP'
S'VANNP'
tp703
F3
s(S'NP'
S'NNAVP'
tp704
F2
s(S'DP'
S'ADDADVPP'
tp705
F1
s(S'CP'
S'ADVADVCDDP'
tp706
F1
s(S'PP'
S'PPNNNP'
tp707
F2
s(S'DP'
S'DDADVADVNP'
tp708
F1
s(g174
S'ADVPNP'
tp709
F16
s(S'PP'
S'PPDP'
tp710
F54
s(S'AP'
S'ADVADVADVAVVP'
tp711
F1
s(S'DP'
S'DADVVVP'
tp712
F2
s(S'MP'
S'MAVDP'
tp713
F1
s(S'PP'
S'PPPAAP'
tp714
F1
s(g310
S'MAVVNP'
tp715
F1
s(S'NP'
S'NNADVADVAPP'
tp716
F1
s(S'AP'
S'ANNP'
tp717
F1
s(S'NP'
S'NAP'
tp718
F187
s(S'NP'
S'NNAAP'
tp719
F3
s(S'VP'
S'VAAAP'
tp720
F3
s(g110
S'MVVADVCP'
tp721
F1
s(S'NP'
S'NAAAPP'
tp722
F1
s(S'NP'
S'AANNNAP'
tp723
F1
s(g292
S'VVP'
tp724
F52
s(S'MP'
S'ADVMNP'
tp725
F1
s(S'DP'
S'DDAPP'
tp726
F7
s(S'PP'
S'APNP'
tp727
F28
s(S'VP'
S'VVVNNP'
tp728
F3
s(g67
S'DDDAPP'
tp729
F1
s(S'DP'
S'DDVVP'
tp730
F5
s(S'MP'
S'MVVADVAP'
tp731
F1
s(S'VP'
S'VVVNP'
tp732
F6
s(S'MP'
S'MNPP'
tp733
F1
s(S'NP'
p734
S'NAMP'
tp735
F4
s(S'MP'
S'MVANP'
tp736
F2
s(S'DP'
S'ADVADVDDPP'
tp737
F1
s(S'MP'
S'MVNNP'
tp738
F1
s(S'CP'
S'CDPP'
tp739
F804
s(S'CP'
S'ADVCADP'
tp740
F2
s(S'DP'
S'ADVDVVP'
tp741
F1
s(S'VP'
S'ADVADVADVVVNNP'
tp742
F2
s(g408
S'ADVCDP'
tp743
F18
s(S'AP'
S'ADVAAP'
tp744
F2
s(S'VP'
S'ADVADVVNP'
tp745
F2
s(S'NP'
S'NNNNPPP'
tp746
F1
s(S'VP'
S'ADVADVVCP'
tp747
F2
s(S'PP'
S'PPNNP'
tp748
F13
s(g574
S'ADVPAVP'
tp749
F1
s(g33
S'PADVCP'
tp750
F1
s(S'MP'
S'MADVADVNVP'
tp751
F1
s(g261
S'PPMP'
tp752
F5
s(S'DP'
S'ADVADVDPP'
tp753
F4
s(S'VP'
S'VDP'
tp754
F514
s(g627
S'CAAAADPP'
tp755
F1
s(S'VP'
S'AVDDP'
tp756
F4
s(g67
S'DADVNP'
tp757
F2
s(S'DP'
S'DAP'
tp758
F51
s(S'MP'
S'MCADP'
tp759
F1
s(S'CP'
S'CADPP'
tp760
F61
s(S'VP'
S'ADVADVVVPP'
tp761
F1
s(S'DP'
S'ADAPPP'
tp762
F1
s(g734
S'NNAAAPP'
tp763
F1
s(S'VP'
S'AVPP'
tp764
F8
s(S'CP'
S'CAADPPP'
tp765
F3
s(S'MP'
S'AMVVP'
tp766
F1
s(g171
S'CDDAAAPPP'
tp767
F1
s(S'CP'
S'CDDPPPPP'
tp768
F1
s(S'CP'
S'CDPPPP'
tp769
F9
s(g237
S'VADVADVCCP'
tp770
F1
s(g246
S'AAVDP'
tp771
F6
s(S'PP'
S'PANNP'
tp772
F1
s(S'PP'
S'APPP'
tp773
F13
s(S'DP'
S'ADPPPP'
tp774
F3
s(g44
S'DAPPP'
tp775
F3
s(S'DP'
S'DADVADVPP'
tp776
F6
s(S'DP'
S'DMP'
tp777
F7
s(S'NP'
S'NNNNADVVP'
tp778
F1
s(g235
S'PPPNP'
tp779
F6
s(S'NP'
S'AAANPP'
tp780
F1
s(g320
S'DDACP'
tp781
F1
s(S'PP'
S'PPPPNP'
tp782
F4
s(S'AP'
S'AADP'
tp783
F91
s(g87
S'PADVADVPPP'
tp784
F1
s(S'AP'
S'AAAAVP'
tp785
F1
s(g330
S'NADVANP'
tp786
F1
s(S'VP'
S'VADVPP'
tp787
F1
s(S'DP'
S'DDAAPP'
tp788
F3
s(S'PP'
p789
S'APNNNNP'
tp790
F1
s(S'NP'
S'NAAAP'
tp791
F1
s(g108
S'ADVPVP'
tp792
F5
s(S'DP'
S'DDDDPP'
tp793
F5
s(S'NP'
S'NNVVVP'
tp794
F3
s(S'VP'
S'ADVVANP'
tp795
F1
s(S'PP'
S'ADVPDP'
tp796
F1
s(g157
S'PAAVP'
tp797
F2
s(S'NP'
S'ANNPP'
tp798
F1
s(S'PP'
S'PPDDDDP'
tp799
F1
s(S'MP'
S'MVADVAP'
tp800
F1
s(g80
S'NCP'
tp801
F644
s(S'CP'
S'CADVDPPP'
tp802
F2
s(g596
S'ADVVVPP'
tp803
F2
s(g318
S'NAAANP'
tp804
F1
s(g52
S'AAAPNP'
tp805
F2
s(g550
S'AAAP'
tp806
F3
s(S'VP'
S'VAADP'
tp807
F2
s(S'PP'
S'ADVPDDP'
tp808
F1
s(S'VP'
S'AAVVDP'
tp809
F1
s(S'NP'
S'AANDP'
tp810
F1
s(S'MP'
S'MVCCP'
tp811
F3
s(g315
S'MADVVPP'
tp812
F1
s(S'VP'
S'VADVADVANP'
tp813
F1
s(g80
S'NNCCP'
tp814
F16
s(S'MP'
S'MNVP'
tp815
F17
s(S'CP'
S'ADVADVCCDP'
tp816
F2
s(g276
S'VAPP'
tp817
F10
s(g589
S'NPPPPP'
tp818
F2
s(S'MP'
S'MAVNP'
tp819
F1
s(g144
S'ADVVDP'
tp820
F32
s(g633
S'DADVPP'
tp821
F17
s(S'AP'
S'AMP'
tp822
F4
s(S'CP'
S'CCADP'
tp823
F10
s(S'NP'
p824
S'ADVNNCP'
tp825
F1
s(S'NP'
S'AANMMP'
tp826
F1
s(S'AP'
S'ADVAPP'
tp827
F7
s(g789
S'ADVADVPVVP'
tp828
F2
s(S'CP'
S'CCCADVDP'
tp829
F1
s(g605
S'AACDP'
tp830
F10
s(S'NP'
S'NNNCCP'
tp831
F2
s(S'CP'
S'CCDDDP'
tp832
F2
s(S'CP'
S'CCCDP'
tp833
F6
s(g185
S'PPAAPP'
tp834
F1
s(S'DP'
S'ADVDPPP'
tp835
F3
s(S'DP'
S'DVP'
tp836
F427
s(S'VP'
S'AVNNP'
tp837
F2
s(S'NP'
S'ADVNPP'
tp838
F2
s(g824
S'ADVADVANMP'
tp839
F1
s(S'NP'
S'NNCCCP'
tp840
F1
s(S'AP'
S'AVP'
tp841
F31
s(S'NP'
S'NADVVP'
tp842
F17
s(g373
S'CDAAAPP'
tp843
F1
s(g385
S'DADDP'
tp844
F1
s(S'VP'
S'ADVVPPP'
tp845
F1
s(S'DP'
S'DDPPP'
tp846
F7
s(S'MP'
S'MADVADVADVVDP'
tp847
F1
s(S'NP'
S'ADVNMP'
tp848
F9
s(S'NP'
S'NNAP'
tp849
F12
s(g789
S'PPANP'
tp850
F2
s(S'CP'
S'CDADVPP'
tp851
F10
s(S'VP'
S'VNP'
tp852
F434
s(g593
S'VANP'
tp853
F23
s(S'VP'
S'VADVAP'
tp854
F17
s(S'PP'
S'PPADVNP'
tp855
F3
s(S'VP'
S'VVVAP'
tp856
F1
s(S'DP'
S'DDDDVP'
tp857
F3
s(S'VP'
S'ADVADVVVDP'
tp858
F1
s(S'NP'
S'AANNAP'
tp859
F2
s(S'NP'
S'NADVPPP'
tp860
F1
s.