ccollections
defaultdict
p1
(c__builtin__
float
p2
tRp3
(S'MP'
p4
S'MMDP'
tp5
F7
s(S'DP'
S'DDDVVVP'
tp6
F1
s(S'VP'
p7
S'VVAAAP'
tp8
F1
s(S'NP'
S'AANDDP'
tp9
F2
s(S'CP'
S'CAAADPP'
tp10
F1
s(S'DP'
S'DDMP'
tp11
F1
s(S'DP'
p12
S'ADDPP'
tp13
F4
s(S'DP'
S'DDAP'
tp14
F1
s(S'VP'
S'ADVVVNP'
tp15
F1
s(S'MP'
p16
S'AMMPP'
tp17
F1
s(S'AP'
p18
S'AADDDP'
tp19
F1
s(S'CP'
S'CCDDDDP'
tp20
F1
s(S'VP'
S'VVVVP'
tp21
F3
s(S'DP'
S'DAANNP'
tp22
F1
s(S'AP'
S'AVVVP'
tp23
F1
s(S'PP'
S'PAPP'
tp24
F7
s(S'PP'
S'PADVNP'
tp25
F11
s(g12
S'DNP'
tp26
F449
s(S'PP'
p27
S'PPPPPPPP'
tp28
F1
s(S'NP'
S'ADVNDP'
tp29
F2
s(S'VP'
S'ADVVNNP'
tp30
F3
s(S'CP'
p31
S'CDPPP'
tp32
F96
s(S'PP'
p33
S'AAAPPNNNP'
tp34
F1
s(S'VP'
p35
S'VADP'
tp36
F16
s(S'DP'
S'DNNNNP'
tp37
F2
s(S'CP'
S'CDAAPPP'
tp38
F1
s(S'NP'
p39
S'ADVNCCP'
tp40
F2
s(S'PP'
p41
S'PPPPPP'
tp42
F2
s(S'PP'
S'APPDP'
tp43
F3
s(S'DP'
S'DAADP'
tp44
F1
s(S'DP'
S'ADNNP'
tp45
F1
s(S'MP'
S'MDVP'
tp46
F4
s(S'PP'
p47
S'APVP'
tp48
F15
s(S'MP'
S'MVDP'
tp49
F39
s(S'DP'
p50
S'ADVDADVAVP'
tp51
F1
s(S'PP'
S'PPPP'
tp52
F45
s(S'AP'
S'ADVAPPP'
tp53
F1
s(S'DP'
S'DDDNP'
tp54
F6
s(S'PP'
S'PAAANP'
tp55
F1
s(S'PP'
p56
S'ADVPADDP'
tp57
F1
s(S'VP'
S'VACP'
tp58
F2
s(S'AP'
S'AAAVP'
tp59
F2
s(S'PP'
S'PPAAP'
tp60
F2
s(S'DP'
S'DADVVP'
tp61
F11
s(S'VP'
p62
S'ADVADVVDDP'
tp63
F1
s(S'MP'
S'AMMAP'
tp64
F1
s(S'PP'
S'PADVNNP'
tp65
F1
s(S'NP'
p66
S'NADVACP'
tp67
F2
s(S'NP'
p68
S'NDDDP'
tp69
F1
s(S'NP'
S'NCCCP'
tp70
F3
s(S'VP'
p71
S'VCP'
tp72
F134
s(S'NP'
p73
S'NMMP'
tp74
F9
s(S'NP'
S'NANP'
tp75
F4
s(S'VP'
p76
S'ADVVAAP'
tp77
F1
s(S'NP'
S'AAAANPP'
tp78
F1
s(S'VP'
S'VVVVDP'
tp79
F1
s(S'PP'
S'ADVPADP'
tp80
F1
s(S'PP'
p81
S'PAP'
tp82
F100
s(S'MP'
S'MVADDP'
tp83
F1
s(S'MP'
p84
S'MMVVP'
tp85
F1
s(S'VP'
S'VADVADVAP'
tp86
F4
s(S'AP'
S'ADVAADVVP'
tp87
F1
s(S'PP'
p88
S'ADVPPVP'
tp89
F1
s(S'NP'
S'NNNAP'
tp90
F6
s(S'PP'
S'APVVP'
tp91
F5
s(S'PP'
S'PPADVDP'
tp92
F2
s(S'VP'
S'ADVVAAANP'
tp93
F1
s(S'VP'
S'VADVANP'
tp94
F1
s(g81
S'PNP'
tp95
F484
s(S'NP'
p96
S'AAANNDP'
tp97
F1
s(g18
S'AADVADVDP'
tp98
F1
s(g12
S'DDP'
tp99
F93
s(S'VP'
S'VVVVMP'
tp100
F1
s(S'NP'
p101
S'NNDDDP'
tp102
F1
s(S'VP'
p103
S'ADVVDDP'
tp104
F2
s(S'NP'
S'NNNPP'
tp105
F9
s(S'VP'
p106
S'VCCP'
tp107
F25
s(S'MP'
S'MCDP'
tp108
F12
s(S'DP'
S'ADVADVADNP'
tp109
F1
s(S'DP'
S'DDAANP'
tp110
F2
s(S'MP'
S'MNAP'
tp111
F3
s(S'NP'
p112
S'NMP'
tp113
F165
s(S'CP'
S'CCAAAAADP'
tp114
F1
s(g27
S'PPPPPVVP'
tp115
F1
s(S'MP'
S'MMMDDP'
tp116
F1
s(g96
S'NNAMMP'
tp117
F1
s(S'VP'
S'AAVNP'
tp118
F1
s(S'VP'
p119
S'VMMP'
tp120
F7
s(g81
S'PDP'
tp121
F351
s(S'PP'
p122
S'PPADVVP'
tp123
F2
s(S'NP'
S'ADVNVVP'
tp124
F1
s(S'VP'
S'VNNNNP'
tp125
F2
s(S'MP'
S'MNNVP'
tp126
F1
s(S'MP'
S'MADVVNP'
tp127
F2
s(S'CP'
S'CDADVADVPPP'
tp128
F1
s(S'NP'
p129
S'NACCP'
tp130
F5
s(S'AP'
S'ANP'
tp131
F3
s(S'DP'
p132
S'ADVADNNP'
tp133
F1
s(S'PP'
S'PADVPP'
tp134
F2
s(S'NP'
S'NNADVCP'
tp135
F1
s(S'VP'
S'VVADVNP'
tp136
F1
s(S'PP'
S'PPADVAP'
tp137
F1
s(S'PP'
p138
S'APPADVADVPP'
tp139
F1
s(S'NP'
S'ADVNACP'
tp140
F1
s(S'DP'
p141
S'DPPPP'
tp142
F22
s(S'DP'
p143
S'DDANP'
tp144
F6
s(S'NP'
p145
S'NACP'
tp146
F18
s(S'AP'
S'ADVAVP'
tp147
F4
s(S'NP'
p148
S'NCCP'
tp149
F117
s(S'VP'
p150
S'AAAVPP'
tp151
F1
s(S'DP'
S'AAAADDP'
tp152
F1
s(S'VP'
p153
S'VVVVVP'
tp154
F1
s(g148
S'NNCP'
tp155
F128
s(S'DP'
S'ADVDDPP'
tp156
F3
s(S'NP'
S'NADVADVVP'
tp157
F1
s(S'MP'
S'MNPP'
tp158
F2
s(S'NP'
S'NNPPPP'
tp159
F2
s(S'DP'
S'DDDDP'
tp160
F7
s(S'DP'
S'DDAPP'
tp161
F8
s(S'DP'
p162
S'DDADVADVPPP'
tp163
F1
s(S'VP'
p164
S'ADVVADVNP'
tp165
F1
s(S'VP'
p166
S'AVNP'
tp167
F21
s(S'MP'
p168
S'MADVVPPP'
tp169
F1
s(S'PP'
S'ADVPVVP'
tp170
F1
s(S'DP'
p171
S'DDAAANNP'
tp172
F1
s(S'PP'
p173
S'PPPPPNNP'
tp174
F1
s(g101
S'AAAANVP'
tp175
F1
s(S'PP'
p176
S'ADVAPDP'
tp177
F1
s(S'PP'
S'AAPNP'
tp178
F6
s(S'NP'
S'AAANAP'
tp179
F1
s(S'VP'
S'VADVVP'
tp180
F1
s(S'CP'
S'ACCDDP'
tp181
F1
s(S'VP'
S'ADVVANNP'
tp182
F1
s(g84
S'MVPPP'
tp183
F4
s(S'NP'
S'ANADVVP'
tp184
F1
s(S'PP'
p185
S'ADVAPVP'
tp186
F3
s(S'AP'
S'AAAAP'
tp187
F1
s(S'CP'
S'CCCDP'
tp188
F5
s(S'VP'
S'ADVVAP'
tp189
F8
s(S'VP'
S'VCCCP'
tp190
F1
s(S'MP'
S'MADVPNP'
tp191
F1
s(S'PP'
S'APDP'
tp192
F25
s(S'PP'
p193
S'ADVADVAPNP'
tp194
F1
s(S'DP'
p195
S'DDMMMMP'
tp196
F1
s(S'NP'
S'NAAPPP'
tp197
F2
s(S'DP'
p198
S'ADVADVDCP'
tp199
F1
s(S'NP'
S'AANNCCP'
tp200
F1
s(S'NP'
S'NNNAAP'
tp201
F1
s(S'AP'
S'AADVCP'
tp202
F3
s(S'PP'
S'PPPPCP'
tp203
F1
s(S'VP'
S'VVANP'
tp204
F2
s(S'PP'
S'ADVPNNP'
tp205
F2
s(S'VP'
S'ADVVVP'
tp206
F2
s(S'AP'
S'AANP'
tp207
F1
s(S'DP'
S'DAAP'
tp208
F1
s(S'MP'
S'MVADVADP'
tp209
F1
s(S'MP'
S'MPNNP'
tp210
F3
s(S'NP'
S'ADVANCP'
tp211
F1
s(S'DP'
S'DNNP'
tp212
F113
s(S'CP'
S'CADVDDPP'
tp213
F3
s(S'DP'
p214
S'DPPPPP'
tp215
F2
s(S'CP'
S'CCADVDP'
tp216
F2
s(S'VP'
p217
S'VVNNNP'
tp218
F2
s(S'VP'
p219
S'AAVDDP'
tp220
F1
s(S'DP'
p221
S'ADDNP'
tp222
F2
s(S'NP'
p223
S'NNNVP'
tp224
F7
s(g56
S'PPAAPP'
tp225
F1
s(S'PP'
p226
S'AAPPDDP'
tp227
F1
s(g119
S'VADVNNP'
tp228
F1
s(S'PP'
S'AAPPDP'
tp229
F2
s(g16
S'MAVVDP'
tp230
F1
s(S'VP'
S'VVANNP'
tp231
F2
s(S'PP'
S'PADVVP'
tp232
F7
s(S'MP'
S'MVVDDP'
tp233
F1
s(S'PP'
S'ADVAPNNP'
tp234
F1
s(S'AP'
p235
S'APP'
tp236
F43
s(S'AP'
S'ACCCP'
tp237
F2
s(S'NP'
S'NADVMP'
tp238
F4
s(S'CP'
p239
S'CADDPPP'
tp240
F1
s(g62
S'VADVADVVP'
tp241
F1
s(S'VP'
p242
S'VVAPP'
tp243
F1
s(S'NP'
S'ADVADVNCCP'
tp244
F1
s(S'VP'
S'VVVVPP'
tp245
F1
s(g143
S'DAAVP'
tp246
F4
s(S'CP'
S'CDDDDPP'
tp247
F4
s(S'MP'
S'MVVVNP'
tp248
F1
s(g185
S'PAANP'
tp249
F8
s(S'DP'
S'DDADVADVVP'
tp250
F1
s(S'PP'
p251
S'PPVVP'
tp252
F8
s(g7
S'VAACP'
tp253
F2
s(S'VP'
S'VVAVP'
tp254
F1
s(S'MP'
p255
S'MVNP'
tp256
F47
s(S'NP'
S'NNANP'
tp257
F3
s(S'AP'
S'AADVNP'
tp258
F1
s(S'DP'
S'ADDDP'
tp259
F1
s(S'CP'
S'CDDDPPP'
tp260
F3
s(S'PP'
S'PAVP'
tp261
F14
s(S'MP'
S'ADVMVP'
tp262
F4
s(g33
S'APAP'
tp263
F1
s(S'VP'
S'ADVVMP'
tp264
F2
s(S'DP'
S'ADVDVVP'
tp265
F1
s(S'DP'
S'DDAPPP'
tp266
F3
s(g119
S'VVVPP'
tp267
F4
s(S'CP'
S'CADVADVADPP'
tp268
F1
s(g251
S'APPPP'
tp269
F1
s(S'DP'
S'DADP'
tp270
F2
s(S'VP'
S'VVAANP'
tp271
F1
s(S'AP'
S'ADVADP'
tp272
F10
s(S'VP'
S'VVADVPP'
tp273
F1
s(S'NP'
S'ADVANPPPPPP'
tp274
F1
s(S'PP'
S'APDDP'
tp275
F2
s(S'DP'
S'DAAAVP'
tp276
F2
s(S'DP'
S'ADVADVDAP'
tp277
F1
s(S'VP'
S'ADVVNP'
tp278
F19
s(S'MP'
S'MNNCP'
tp279
F3
s(S'MP'
S'MNCP'
tp280
F13
s(g71
S'VVNP'
tp281
F74
s(S'PP'
S'PPPNNP'
tp282
F5
s(S'PP'
S'PPVP'
tp283
F41
s(g217
S'VADVDP'
tp284
F8
s(S'VP'
S'VVADVAP'
tp285
F2
s(S'VP'
S'VAAP'
tp286
F28
s(S'VP'
S'VVVANNP'
tp287
F1
s(S'NP'
p288
S'ANDP'
tp289
F21
s(S'NP'
S'NVVP'
tp290
F88
s(g56
S'AAPVP'
tp291
F5
s(S'AP'
p292
S'AAP'
tp293
F17
s(S'VP'
p294
S'VMP'
tp295
F49
s(S'NP'
p296
S'ADVNAAVP'
tp297
F1
s(g294
S'VVNNP'
tp298
F15
s(S'CP'
S'CDAPP'
tp299
F28
s(g239
S'CDDAAPP'
tp300
F2
s(S'MP'
S'MMPP'
tp301
F1
s(S'CP'
S'CADVADPP'
tp302
F2
s(S'DP'
p303
S'ADNP'
tp304
F14
s(S'VP'
S'AVVDP'
tp305
F1
s(S'NP'
S'NNADVVP'
tp306
F7
s(g81
S'PADP'
tp307
F18
s(S'NP'
S'NNAADP'
tp308
F1
s(S'NP'
p309
S'ANDDP'
tp310
F3
s(S'DP'
p311
S'ADVADVDVP'
tp312
F1
s(S'VP'
S'VVVDDP'
tp313
F4
s(S'CP'
S'ADVADVACDP'
tp314
F1
s(S'DP'
S'DAPP'
tp315
F53
s(S'MP'
S'AMCP'
tp316
F1
s(S'MP'
S'MPDDDP'
tp317
F1
s(S'VP'
S'AVVP'
tp318
F2
s(S'MP'
S'MVVCP'
tp319
F2
s(S'VP'
S'ADVADVVPP'
tp320
F1
s(S'VP'
S'VADVAAP'
tp321
F1
s(S'MP'
S'MDDNP'
tp322
F2
s(g193
S'AAAPVP'
tp323
F1
s(S'VP'
S'ADVADVVDP'
tp324
F2
s(S'VP'
S'AVVNP'
tp325
F2
s(g251
S'PPPDP'
tp326
F10
s(S'DP'
S'DAAPPP'
tp327
F1
s(g122
S'AAAPDP'
tp328
F2
s(g150
S'VAMMP'
tp329
F1
s(g103
S'AVVAAP'
tp330
F1
s(S'AP'
S'AAPPP'
tp331
F1
s(S'VP'
S'VDDDDP'
tp332
F1
s(S'DP'
S'DAAANP'
tp333
F2
s(S'DP'
S'DADVANP'
tp334
F2
s(S'VP'
p335
S'VVAAP'
tp336
F3
s(S'DP'
S'ADVDNP'
tp337
F8
s(S'VP'
S'VVPP'
tp338
F19
s(S'VP'
S'VADVAPP'
tp339
F1
s(S'CP'
p340
S'CCADDP'
tp341
F2
s(S'DP'
S'DDDADVNP'
tp342
F1
s(S'PP'
S'PAVVP'
tp343
F1
s(S'MP'
p344
S'MVPP'
tp345
F11
s(g12
S'ADVP'
tp346
F13
s(S'CP'
S'CDDPPP'
tp347
F18
s(S'MP'
S'ADVMVVP'
tp348
F2
s(S'VP'
p349
S'ADVADVADVVDP'
tp350
F1
s(S'NP'
p351
S'NNPP'
tp352
F71
s(S'DP'
S'DDDDNP'
tp353
F1
s(S'MP'
p354
S'MVVDP'
tp355
F4
s(S'AP'
S'AACP'
tp356
F8
s(S'NP'
p357
S'ANVP'
tp358
F28
s(S'DP'
S'DNNNP'
tp359
F16
s(S'MP'
S'MPPDP'
tp360
F2
s(S'DP'
S'ADVDDVP'
tp361
F1
s(S'PP'
S'PADVADVVP'
tp362
F2
s(S'VP'
S'ADVVCP'
tp363
F6
s(g47
S'PVVVP'
tp364
F3
s(S'PP'
S'PMP'
tp365
F11
s(S'NP'
S'NNMMP'
tp366
F2
s(g193
S'APPMP'
tp367
F1
s(S'PP'
S'ADVPPAP'
tp368
F1
s(g31
S'CCDP'
tp369
F166
s(S'NP'
p370
S'ANNDP'
tp371
F1
s(S'MP'
S'AMVP'
tp372
F6
s(S'VP'
S'VPPP'
tp373
F30
s(S'MP'
S'AAMMDP'
tp374
F1
s(S'VP'
S'VADVADVANP'
tp375
F2
s(S'PP'
S'ADVADVPPPP'
tp376
F1
s(g145
S'NVVVP'
tp377
F10
s(S'CP'
S'CDDDPP'
tp378
F17
s(S'CP'
S'CDDDDDPPP'
tp379
F1
s(S'CP'
S'CDAAPP'
tp380
F11
s(S'VP'
S'VVVDP'
tp381
F10
s(S'NP'
S'AAANCCP'
tp382
F1
s(S'PP'
p383
S'PNNNP'
tp384
F17
s(S'CP'
S'CCCCDP'
tp385
F2
s(S'NP'
S'ANMMP'
tp386
F1
s(S'AP'
S'AACCP'
tp387
F2
s(S'VP'
S'VVMP'
tp388
F7
s(g81
S'PPP'
tp389
F135
s(S'NP'
p390
S'NNADVDP'
tp391
F1
s(g129
S'NAVP'
tp392
F17
s(S'PP'
S'PADVAP'
tp393
F4
s(S'DP'
p394
S'DDNNNP'
tp395
F6
s(S'VP'
S'VVVVCCP'
tp396
F1
s(S'VP'
p397
S'AAVVP'
tp398
F1
s(g214
S'ADVDVP'
tp399
F5
s(S'PP'
S'PPADVADVNP'
tp400
F1
s(S'NP'
p401
S'NAAAP'
tp402
F3
s(S'NP'
S'NADVVVP'
tp403
F3
s(g198
S'DADVADVPPP'
tp404
F1
s(S'AP'
S'AADVVP'
tp405
F2
s(g292
S'AAADVCP'
tp406
F1
s(S'VP'
p407
S'VPP'
tp408
F174
s(S'CP'
S'ADVCCDP'
tp409
F2
s(S'NP'
S'NNNADVCP'
tp410
F1
s(S'CP'
S'ACCDP'
tp411
F6
s(S'AP'
S'AAAACP'
tp412
F1
s(S'NP'
S'NNNCP'
tp413
F29
s(S'PP'
S'PADVDP'
tp414
F5
s(S'CP'
S'CDADVAPP'
tp415
F3
s(S'AP'
S'ADVAADP'
tp416
F1
s(g303
S'DANNP'
tp417
F5
s(S'MP'
S'MADVVAP'
tp418
F1
s(g340
S'CDDPP'
tp419
F97
s(S'MP'
S'MADVADVADNP'
tp420
F1
s(S'DP'
p421
S'DAAPP'
tp422
F15
s(S'PP'
p423
S'PVVP'
tp424
F44
s(S'CP'
S'CADPPP'
tp425
F2
s(g303
S'DADVPPP'
tp426
F3
s(S'MP'
p427
S'MAVCP'
tp428
F1
s(S'PP'
p429
S'PMMP'
tp430
F3
s(S'MP'
S'MCCDP'
tp431
F1
s(S'PP'
S'PPNNNP'
tp432
F1
s(S'PP'
p433
S'PPADVADVDP'
tp434
F1
s(g242
S'VVPPP'
tp435
F6
s(g122
S'PPAP'
tp436
F14
s(S'DP'
p437
S'DVVP'
tp438
F89
s(S'NP'
S'NNNNDP'
tp439
F1
s(S'NP'
S'ANMP'
tp440
F6
s(S'AP'
S'APPP'
tp441
F2
s(g349
S'ADVADVVMP'
tp442
F1
s(S'NP'
S'ADVADVNVP'
tp443
F1
s(S'VP'
S'VVVP'
tp444
F12
s(g340
S'CADVDPP'
tp445
F18
s(S'MP'
S'MVVVANNP'
tp446
F1
s(S'VP'
S'AVMP'
tp447
F2
s(S'NP'
S'ANCP'
tp448
F44
s(g141
S'DCP'
tp449
F26
s(S'DP'
S'DVVVP'
tp450
F6
s(S'NP'
S'AAANCP'
tp451
F4
s(g132
S'DADVADVADVNP'
tp452
F1
s(S'DP'
S'DADVCP'
tp453
F3
s(S'NP'
S'NNADVAMP'
tp454
F1
s(g421
S'DDDP'
tp455
F22
s(S'AP'
S'ADDDDP'
tp456
F1
s(S'DP'
S'DDADVPP'
tp457
F6
s(S'DP'
S'AADDPP'
tp458
F1
s(S'MP'
S'MAADP'
tp459
F2
s(S'NP'
S'ANVVP'
tp460
F5
s(S'VP'
p461
S'VVDP'
tp462
F82
s(S'NP'
p463
S'NPPP'
tp464
F26
s(S'PP'
p465
S'PPAPP'
tp466
F2
s(g35
S'VAPPP'
tp467
F1
s(g221
S'DAVP'
tp468
F21
s(S'NP'
S'NNNMP'
tp469
F6
s(g235
S'ACP'
tp470
F52
s(g193
S'PAAAPP'
tp471
F1
s(S'VP'
S'VAAAAP'
tp472
F1
s(S'PP'
S'PPNP'
tp473
F79
s(S'PP'
S'PPPAP'
tp474
F1
s(S'MP'
S'MADVVPP'
tp475
F1
s(S'NP'
S'NAADP'
tp476
F6
s(g50
S'AADVP'
tp477
F1
s(S'NP'
S'NNNNCCP'
tp478
F1
s(S'DP'
S'DAAAPPP'
tp479
F1
s(S'CP'
S'CDDADVPP'
tp480
F4
s(S'CP'
S'CCCDDP'
tp481
F1
s(g235
S'ADP'
tp482
F348
s(S'NP'
S'NNAAANP'
tp483
F1
s(S'DP'
S'DDAVP'
tp484
F3
s(S'NP'
p485
S'ANPPP'
tp486
F3
s(S'NP'
S'ADVANCCP'
tp487
F1
s(S'NP'
S'AAANNCP'
tp488
F1
s(S'PP'
S'ADVPAAVP'
tp489
F1
s(S'VP'
S'VAAANP'
tp490
F2
s(S'DP'
S'ADVDDP'
tp491
F1
s(S'DP'
S'DVVVVP'
tp492
F4
s(S'PP'
S'APPAP'
tp493
F1
s(S'VP'
S'VVPPPP'
tp494
F1
s(S'NP'
S'NADVADVAP'
tp495
F1
s(S'MP'
S'MMNNP'
tp496
F1
s(g242
S'AVDP'
tp497
F22
s(S'NP'
S'ANNVP'
tp498
F4
s(S'VP'
p499
S'VVAP'
tp500
F30
s(S'MP'
S'MNADVVP'
tp501
F2
s(S'MP'
S'MPPDDP'
tp502
F1
s(S'NP'
S'ADVNACCP'
tp503
F1
s(S'CP'
S'ADVACDP'
tp504
F2
s(S'VP'
S'AAVCP'
tp505
F1
s(g148
S'NPP'
tp506
F288
s(S'NP'
S'NNNP'
tp507
F3
s(g148
S'NVP'
tp508
F526
s(S'PP'
S'PPVVVP'
tp509
F2
s(S'PP'
p510
S'PAAVP'
tp511
F1
s(S'NP'
S'NAAPP'
tp512
F2
s(g106
S'VDDP'
tp513
F59
s(g171
S'DAPPP'
tp514
F4
s(S'NP'
p515
S'ADVNPPP'
tp516
F1
s(S'PP'
S'PADVADVAMP'
tp517
F1
s(S'DP'
S'DADVADVPP'
tp518
F3
s(g214
S'DDAAVP'
tp519
F1
s(S'NP'
S'AANVVP'
tp520
F1
s(S'DP'
S'DADVAPP'
tp521
F5
s(S'DP'
S'DDDDVVP'
tp522
F1
s(S'VP'
S'ADVADVVAP'
tp523
F1
s(S'NP'
S'NNNDDP'
tp524
F1
s(S'MP'
S'MNANP'
tp525
F1
s(S'PP'
S'PAAAVP'
tp526
F1
s(S'DP'
S'AADDNP'
tp527
F1
s(g288
S'ANPP'
tp528
F31
s(S'PP'
S'PPPPP'
tp529
F7
s(S'MP'
S'MPDP'
tp530
F5
s(S'MP'
S'MVVPP'
tp531
F4
s(S'PP'
S'PPPNP'
tp532
F8
s(S'DP'
S'DDDDDP'
tp533
F1
s(S'PP'
S'PPVVVVP'
tp534
F1
s(S'NP'
S'NPPPP'
tp535
F6
s(g195
S'ADDP'
tp536
F4
s(g66
S'NNCCCCP'
tp537
F1
s(S'MP'
S'MVAADP'
tp538
F1
s(g31
S'CAADPP'
tp539
F8
s(S'DP'
S'DDAAADP'
tp540
F1
s(S'NP'
S'NAACP'
tp541
F5
s(g81
S'PNNP'
tp542
F111
s(S'PP'
S'APNNP'
tp543
F2
s(S'DP'
p544
S'DAAANNP'
tp545
F1
s(S'DP'
S'AAAADVVP'
tp546
F1
s(g344
S'MMNP'
tp547
F2
s(S'DP'
p548
S'AAADPP'
tp549
F2
s(S'PP'
S'PADVADVNP'
tp550
F2
s(S'MP'
S'MAAPDP'
tp551
F1
s(g397
S'AVAP'
tp552
F1
s(S'MP'
S'MMVP'
tp553
F14
s(S'PP'
S'ADVADVAPDP'
tp554
F1
s(S'PP'
S'PPPPAAP'
tp555
F1
s(S'NP'
S'ADVNCP'
tp556
F4
s(S'DP'
p557
S'ADPP'
tp558
F54
s(S'MP'
S'MPDDP'
tp559
F2
s(g485
S'NAPPP'
tp560
F3
s(S'CP'
S'ACDP'
tp561
F22
s(S'PP'
S'PAAP'
tp562
F22
s(S'AP'
S'ADVANP'
tp563
F6
s(S'NP'
S'NNACP'
tp564
F1
s(S'MP'
S'MDNNP'
tp565
F5
s(S'NP'
p566
S'ANNVVVP'
tp567
F1
s(S'CP'
S'CDADVPPP'
tp568
F3
s(g407
S'VAP'
tp569
F179
s(g153
S'VVVVNP'
tp570
F1
s(g168
S'MNVVP'
tp571
F4
s(g394
S'DDDPP'
tp572
F22
s(S'CP'
S'ADVCDDP'
tp573
F2
s(S'NP'
S'AANNCP'
tp574
F1
s(S'PP'
S'PAAPP'
tp575
F3
s(S'VP'
S'VVPPPPP'
tp576
F1
s(S'AP'
S'AAVVP'
tp577
F2
s(g255
S'MNMP'
tp578
F2
s(S'NP'
p579
S'NADVADVAPP'
tp580
F1
s(S'DP'
S'DDDPPP'
tp581
F8
s(S'VP'
S'ADVAVDP'
tp582
F3
s(S'DP'
S'ADAP'
tp583
F1
s(S'DP'
S'DADVDP'
tp584
F1
s(S'NP'
S'ADVADVANCCP'
tp585
F1
s(S'PP'
S'APADVVP'
tp586
F1
s(g309
S'NAAP'
tp587
F19
s(S'MP'
S'MANVP'
tp588
F1
s(S'PP'
p589
S'PPPVP'
tp590
F5
s(S'VP'
p591
S'AAVAP'
tp592
F1
s(S'AP'
p593
S'AADDP'
tp594
F13
s(g311
S'AADPPPP'
tp595
F1
s(S'NP'
S'ANNVVP'
tp596
F1
s(S'VP'
S'VADVADVADVCP'
tp597
F1
s(S'VP'
S'VAANP'
tp598
F10
s(S'NP'
S'AAANADVVP'
tp599
F2
s(S'NP'
S'NNNNAAP'
tp600
F1
s(S'MP'
S'AMPP'
tp601
F1
s(g515
S'NVVVVP'
tp602
F1
s(S'MP'
S'MPNP'
tp603
F5
s(S'VP'
S'VVAADP'
tp604
F1
s(S'MP'
S'MADP'
tp605
F10
s(S'PP'
S'PPPDDP'
tp606
F5
s(g593
S'AMMP'
tp607
F4
s(S'CP'
S'CCAADP'
tp608
F5
s(S'DP'
p609
S'DDADVNP'
tp610
F1
s(S'PP'
S'PANP'
tp611
F30
s(S'DP'
S'AADNP'
tp612
F9
s(S'DP'
S'ADVADPP'
tp613
F2
s(S'MP'
S'ADVAMVP'
tp614
F1
s(S'AP'
S'AAVP'
tp615
F5
s(g235
S'AVVP'
tp616
F7
s(S'NP'
S'NDDP'
tp617
F28
s(S'CP'
S'CDDADVADVPPP'
tp618
F1
s(g292
S'ACCP'
tp619
F11
s(S'NP'
S'ADVADVANCP'
tp620
F1
s(S'DP'
p621
S'DDDADVPP'
tp622
F1
s(S'AP'
S'APPPP'
tp623
F1
s(g223
S'NDP'
tp624
F187
s(S'NP'
S'AAANVP'
tp625
F2
s(S'NP'
S'NNADVADVDP'
tp626
F1
s(S'MP'
p627
S'MVAAP'
tp628
F2
s(g557
S'DDVP'
tp629
F60
s(S'NP'
S'NNNNAP'
tp630
F1
s(S'NP'
S'AANVP'
tp631
F12
s(g76
S'ADVVVNNP'
tp632
F2
s(S'DP'
S'DADVADVAPP'
tp633
F1
s(S'DP'
S'ADDVP'
tp634
F1
s(S'VP'
S'VNNNP'
tp635
F7
s(S'VP'
S'VAAMP'
tp636
F1
s(S'VP'
S'VADVADVPP'
tp637
F1
s(S'PP'
S'ADVPAP'
tp638
F3
s(S'MP'
S'MNNMP'
tp639
F1
s(S'MP'
S'MMVVVP'
tp640
F1
s(g465
S'APADVDP'
tp641
F1
s(g81
S'PCP'
tp642
F15
s(S'NP'
S'NNPPP'
tp643
F6
s(S'PP'
S'PAADP'
tp644
F1
s(S'NP'
S'ADVNNVP'
tp645
F2
s(S'NP'
S'NADVCCP'
tp646
F1
s(g499
S'VPPPP'
tp647
F3
s(S'PP'
S'PACP'
tp648
F1
s(S'MP'
S'MPAP'
tp649
F2
s(S'AP'
S'AADVAP'
tp650
F1
s(S'NP'
p651
S'NNNDP'
tp652
F5
s(S'MP'
S'MANCP'
tp653
F1
s(S'AP'
S'ADVACP'
tp654
F8
s(g407
S'VVVAP'
tp655
F1
s(S'DP'
p656
S'ADPPP'
tp657
F6
s(S'MP'
S'MVCP'
tp658
F6
s(g173
S'PADVANP'
tp659
F1
s(S'CP'
S'CCDDP'
tp660
F34
s(S'VP'
S'AAAVAP'
tp661
F1
s(S'VP'
p662
S'VAMP'
tp663
F1
s(g145
S'NNVVP'
tp664
F18
s(S'NP'
S'NAAMP'
tp665
F1
s(g651
S'NNNNVP'
tp666
F4
s(g294
S'VVCP'
tp667
F30
s(S'NP'
p668
S'AANCP'
tp669
F12
s(S'VP'
p670
S'VADVNP'
tp671
F6
s(S'VP'
S'VVDDDP'
tp672
F1
s(S'NP'
S'ADVNMMP'
tp673
F1
s(S'VP'
S'AVVPP'
tp674
F1
s(g463
S'NNDDP'
tp675
F6
s(S'PP'
S'PPADP'
tp676
F1
s(S'MP'
S'MNNPP'
tp677
F1
s(g166
S'ADVVPP'
tp678
F6
s(S'NP'
S'ADVADVADVNDP'
tp679
F1
s(S'CP'
S'CDAPPP'
tp680
F4
s(g294
S'VNNP'
tp681
F62
s(S'AP'
S'AADVDP'
tp682
F4
s(S'VP'
S'ADVADVVVANP'
tp683
F1
s(g390
S'NADP'
tp684
F6
s(g627
S'MMCP'
tp685
F1
s(S'PP'
S'AAAPPP'
tp686
F2
s(S'DP'
S'DDNP'
tp687
F69
s(S'NP'
S'NADVCP'
tp688
F6
s(S'DP'
p689
S'DDNNP'
tp690
F18
s(S'NP'
S'AANADVAP'
tp691
F1
s(S'PP'
S'AAPPP'
tp692
F2
s(S'VP'
S'VVVVPPP'
tp693
F1
s(S'PP'
S'PADVADVVVP'
tp694
F1
s(g357
S'ADVANVP'
tp695
F5
s(S'VP'
S'VMMMP'
tp696
F1
s(S'NP'
S'ADVADVNCP'
tp697
F2
s(S'MP'
S'MNNNAP'
tp698
F1
s(S'AP'
S'ADVADDP'
tp699
F1
s(S'DP'
p700
S'AADPP'
tp701
F16
s(S'NP'
S'NNNNPP'
tp702
F2
s(S'MP'
S'MADVAVNP'
tp703
F1
s(g609
S'DADVADVANP'
tp704
F1
s(S'DP'
S'DAAAANP'
tp705
F1
s(S'AP'
S'AAMMP'
tp706
F2
s(S'CP'
S'CDPPPPP'
tp707
F1
s(S'DP'
S'DADVADVAP'
tp708
F1
s(S'MP'
S'MVVNP'
tp709
F8
s(g162
S'ADVDNNP'
tp710
F1
s(S'CP'
S'ACDDP'
tp711
F3
s(S'PP'
S'PPPPDDP'
tp712
F1
s(S'AP'
S'AAPP'
tp713
F3
s(S'AP'
S'ADVADVACCP'
tp714
F1
s(S'VP'
S'VVCCP'
tp715
F3
s(S'DP'
S'DMMP'
tp716
F1
s(g4
S'MVADVADVPP'
tp717
F1
s(S'PP'
S'APPNP'
tp718
F4
s(S'DP'
p719
S'DAAAPP'
tp720
F5
s(g335
S'VADVADP'
tp721
F1
s(S'AP'
S'ADVANNP'
tp722
F2
s(S'PP'
S'ADVADVPANP'
tp723
F1
s(g461
S'VVVCCP'
tp724
F1
s(g351
S'NAPP'
tp725
F11
s(S'PP'
S'APPVP'
tp726
F1
s(g296
S'NADVDP'
tp727
F2
s(g433
S'ADVPPPP'
tp728
F2
s(S'CP'
S'CDAAAPPP'
tp729
F1
s(g176
S'PADVAPP'
tp730
F1
s(S'NP'
S'ANCCP'
tp731
F12
s(g68
S'AANPP'
tp732
F8
s(S'DP'
p733
S'DDAAAPP'
tp734
F1
s(S'NP'
p735
S'NNMP'
tp736
F21
s(g303
S'DDDVP'
tp737
F2
s(S'VP'
S'AAVPP'
tp738
F2
s(S'CP'
S'CADDPP'
tp739
F2
s(S'VP'
S'VVADVADVPP'
tp740
F1
s(S'PP'
S'PAAAP'
tp741
F4
s(S'PP'
S'ADVADVPNP'
tp742
F5
s(g394
S'DADVAP'
tp743
F4
s(S'CP'
S'CDDAPP'
tp744
F4
s(S'NP'
S'ANAP'
tp745
F12
s(S'MP'
S'MVAP'
tp746
F18
s(g81
S'PVP'
tp747
F307
s(S'DP'
S'DDADVAVP'
tp748
F2
s(S'AP'
S'ADVADVAPP'
tp749
F1
s(S'MP'
S'AAMVP'
tp750
F1
s(S'VP'
S'VADVCCP'
tp751
F1
s(g485
S'ANNCP'
tp752
F9
s(S'VP'
S'VCCCCP'
tp753
F1
s(g579
S'NNNNAMP'
tp754
F1
s(S'NP'
S'ADVADVADVNVP'
tp755
F1
s(S'MP'
S'MMMMVP'
tp756
F1
s(g423
S'PPDDP'
tp757
F7
s(g662
S'AVCP'
tp758
F2
s(g557
S'DDVVVP'
tp759
F2
s(S'NP'
S'NAVVP'
tp760
F1
s(g12
S'DPP'
tp761
F635
s(g370
S'ADVNVP'
tp762
F9
s(g733
S'DDDVVP'
tp763
F3
s(g12
S'DDPP'
tp764
F168
s(g138
S'ADVADVPADP'
tp765
F1
s(g437
S'DANP'
tp766
F68
s(S'AP'
S'ADVAMP'
tp767
F1
s(S'NP'
p768
S'NADVPP'
tp769
F2
s(S'AP'
S'AADVADVCP'
tp770
F1
s(S'PP'
S'ADVADVPPNP'
tp771
F2
s(S'DP'
S'DDAAAANP'
tp772
F1
s(g566
S'AANADVVP'
tp773
F1
s(g309
S'NAAVP'
tp774
F4
s(S'DP'
S'ADVADVADPP'
tp775
F1
s(S'PP'
S'PDDDP'
tp776
F6
s(g76
S'VADVCP'
tp777
F2
s(S'NP'
S'ANNDDP'
tp778
F2
s(S'NP'
S'NNNNCP'
tp779
F2
s(S'MP'
S'MDNP'
tp780
F16
s(S'DP'
S'DADVPP'
tp781
F27
s(g719
S'ADDPPP'
tp782
F1
s(S'NP'
S'NNNVVP'
tp783
F2
s(g88
S'PADVPPP'
tp784
F1
s(g689
S'DCCP'
tp785
F3
s(S'PP'
S'PPPPNP'
tp786
F1
s(S'AP'
S'AADDDDP'
tp787
F1
s(S'PP'
S'AAPDP'
tp788
F10
s(S'MP'
S'MADVVDP'
tp789
F3
s(S'DP'
S'DDADVVP'
tp790
F1
s(S'PP'
S'PDDP'
tp791
F53
s(S'MP'
S'MVDDP'
tp792
F6
s(S'PP'
S'PCCP'
tp793
F2
s(g41
S'ADVAPNP'
tp794
F2
s(S'NP'
S'ADVADVANADVVP'
tp795
F1
s(g112
S'NNVP'
tp796
F89
s(S'PP'
S'PPPMP'
tp797
F1
s(S'AP'
S'ADVADVACP'
tp798
F2
s(S'DP'
S'AAAAADPPP'
tp799
F1
s(g668
S'NNP'
tp800
F2
s(g242
S'VVDDP'
tp801
F14
s(S'VP'
S'VAADDP'
tp802
F1
s(g621
S'DAANP'
tp803
F14
s(S'VP'
S'ADVVACCP'
tp804
F1
s(g292
S'ADDP'
tp805
F40
s(S'PP'
S'PPPPNNP'
tp806
F1
s(g226
S'PNNNNP'
tp807
F5
s(S'PP'
S'ADVPPNP'
tp808
F2
s(S'NP'
S'ADVADVNVVP'
tp809
F1
s(S'VP'
S'VVVCP'
tp810
F1
s(S'MP'
S'MDAP'
tp811
F2
s(S'CP'
S'CADVADVDPP'
tp812
F5
s(S'CP'
S'ADVADVADVCDP'
tp813
F1
s(g700
S'DPPP'
tp814
F140
s(S'AP'
S'ADVADVADVADVAADVVP'
tp815
F1
s(S'DP'
S'DAVVP'
tp816
F1
s(g544
S'AADPPP'
tp817
F1
s(S'VP'
S'VANNP'
tp818
F3
s(S'AP'
S'AAAP'
tp819
F5
s(S'NP'
S'NNAVP'
tp820
F1
s(S'NP'
S'NMMMP'
tp821
F1
s(g383
S'ADVPNP'
tp822
F20
s(S'VP'
S'ADVADVVNNNNP'
tp823
F1
s(S'PP'
S'PPDP'
tp824
F77
s(S'MP'
S'MVPPPP'
tp825
F1
s(S'MP'
S'MAVDP'
tp826
F1
s(S'NP'
S'NADVADVACP'
tp827
F1
s(S'VP'
S'VAADP'
tp828
F5
s(S'DP'
S'DDCP'
tp829
F2
s(S'CP'
S'CCAADDP'
tp830
F1
s(S'PP'
S'PAANNP'
tp831
F1
s(S'PP'
S'PPADVDDP'
tp832
F1
s(S'MP'
S'MMAVP'
tp833
F1
s(S'MP'
p834
S'AAMDP'
tp835
F1
s(g148
S'NAP'
tp836
F130
s(S'NP'
S'NNAAP'
tp837
F4
s(g591
S'VAAAP'
tp838
F4
s(S'VP'
S'ADVAVNP'
tp839
F2
s(g834
S'MAADDP'
tp840
F1
s(g499
S'VVP'
tp841
F41
s(S'VP'
S'VVVDDDP'
tp842
F1
s(S'DP'
S'DADVNP'
tp843
F5
s(S'PP'
S'ADVADVPVP'
tp844
F1
s(g593
S'AAADP'
tp845
F13
s(S'PP'
S'APNP'
tp846
F21
s(S'VP'
S'VVVNNP'
tp847
F1
s(S'DP'
S'DDVVP'
tp848
F4
s(g242
S'VVVNP'
tp849
F5
s(g427
S'AMAP'
tp850
F1
s(S'MP'
S'ADVADVAMVP'
tp851
F1
s(g39
S'NAMP'
tp852
F5
s(S'MP'
S'MVANP'
tp853
F2
s(S'AP'
p854
S'AAADDDP'
tp855
F1
s(S'MP'
S'MVNNP'
tp856
F9
s(g96
S'NADVADVPP'
tp857
F1
s(g340
S'CDPP'
tp858
F511
s(S'PP'
S'PAAAADP'
tp859
F2
s(S'MP'
S'MVVNNP'
tp860
F2
s(S'AP'
S'ADDDP'
tp861
F4
s(S'NP'
S'NNADVADVVVP'
tp862
F1
s(g68
S'NNDP'
tp863
F40
s(S'MP'
S'MMMVP'
tp864
F1
s(S'DP'
S'ADADVADVPP'
tp865
F1
s(S'VP'
S'VDDDP'
tp866
F4
s(S'CP'
p867
S'ADVCDP'
tp868
F16
s(S'VP'
S'ADVADVVNP'
tp869
F1
s(S'VP'
S'VADVADVDP'
tp870
F1
s(g383
S'PPNNP'
tp871
F11
s(g239
S'CDAAAPP'
tp872
F4
s(S'PP'
p873
S'ADVAPPP'
tp874
F1
s(S'AP'
S'ADVACCP'
tp875
F1
s(S'PP'
S'PPMP'
tp876
F1
s(S'VP'
S'VADVADVNP'
tp877
F2
s(S'DP'
S'ADVADVDPP'
tp878
F6
s(g71
S'VDP'
tp879
F395
s(S'NP'
S'NADVAP'
tp880
F1
s(S'VP'
S'AVDDP'
tp881
F1
s(S'CP'
S'ADVADVCDDP'
tp882
F1
s(g12
S'DAP'
tp883
F44
s(S'CP'
S'CADPP'
tp884
F34
s(S'NP'
S'NADVAVP'
tp885
F2
s(S'PP'
S'PPAVP'
tp886
F1
s(S'VP'
p887
S'AAVVAP'
tp888
F1
s(g219
S'AVPP'
tp889
F4
s(S'CP'
S'CAADPPP'
tp890
F1
s(S'MP'
S'MPAANP'
tp891
F1
s(S'MP'
S'AMNP'
tp892
F2
s(S'VP'
S'VVADVDP'
tp893
F1
s(S'CP'
S'CDADVADVPP'
tp894
F3
s(S'CP'
S'CDPPPP'
tp895
F12
s(g873
S'PPAADP'
tp896
F1
s(S'VP'
S'AAVDP'
tp897
F6
s(S'PP'
S'PANNP'
tp898
F6
s(g122
S'APPP'
tp899
F11
s(S'VP'
S'ADVVADVAP'
tp900
F3
s(S'AP'
S'AAADVDP'
tp901
F2
s(S'DP'
S'DMP'
tp902
F9
s(g12
S'ADVDPP'
tp903
F28
s(S'NP'
S'NADVAPP'
tp904
F1
s(S'PP'
S'PPAANP'
tp905
F1
s(S'NP'
S'AAANPP'
tp906
F1
s(g589
S'AAPPPPP'
tp907
F1
s(S'DP'
S'DADVMP'
tp908
F1
s(g854
S'AADP'
tp909
F66
s(S'NP'
S'NNADVVVP'
tp910
F1
s(g670
S'VADVPP'
tp911
F5
s(g719
S'DDAAPP'
tp912
F3
s(g354
S'MADVADVVNNNNP'
tp913
F1
s(g510
S'ADVPVP'
tp914
F9
s(S'DP'
S'DDDDPP'
tp915
F5
s(S'NP'
S'NNVVVP'
tp916
F3
s(S'PP'
S'PADVADVADVNP'
tp917
F1
s(S'PP'
S'PAMP'
tp918
F2
s(g429
S'ADVPDP'
tp919
F3
s(g401
S'ANNPP'
tp920
F3
s(S'MP'
S'MVADVAP'
tp921
F1
s(g148
S'NCP'
tp922
F427
s(S'CP'
S'CADVDPPP'
tp923
F3
s(S'MP'
S'MADAP'
tp924
F1
s(S'DP'
S'ADVVP'
tp925
F2
s(S'CP'
S'CDADVPP'
tp926
F17
s(S'AP'
S'AAMP'
tp927
F4
s(g185
S'ADVPDDP'
tp928
F2
s(S'NP'
S'AANDP'
tp929
F8
s(S'MP'
S'MVCCP'
tp930
F4
s(g288
S'NNCCP'
tp931
F33
s(S'MP'
S'MNVP'
tp932
F20
s(S'NP'
S'AANCCP'
tp933
F1
s(S'VP'
S'VAPP'
tp934
F5
s(S'NP'
S'NPPPPP'
tp935
F2
s(S'MP'
S'MAVNP'
tp936
F1
s(S'DP'
S'DDDDDPPP'
tp937
F1
s(S'VP'
S'ADVVDP'
tp938
F28
s(g887
S'VAAVVP'
tp939
F1
s(g242
S'VADDP'
tp940
F2
s(g656
S'DDPPPP'
tp941
F3
s(S'AP'
S'AMP'
tp942
F31
s(g867
S'CCADP'
tp943
F8
s(S'DP'
S'ADVDAP'
tp944
F1
s(S'MP'
S'MADVVADVAP'
tp945
F1
s(g735
S'NNNPPP'
tp946
F2
s(S'AP'
S'ADVAPP'
tp947
F1
s(S'AP'
S'ADVAADVADVVP'
tp948
F1
s(S'AP'
S'ADVADVANP'
tp949
F2
s(S'CP'
S'AACDP'
tp950
F7
s(g463
S'NNNCCP'
tp951
F9
s(S'CP'
S'CAADPPPP'
tp952
F1
s(S'CP'
S'CCDDDP'
tp953
F2
s(S'MP'
S'MADVVNNP'
tp954
F2
s(g548
S'ADVDPPP'
tp955
F4
s(g12
S'DVP'
tp956
F363
s(S'VP'
S'AVNNP'
tp957
F2
s(S'NP'
S'ADVNPP'
tp958
F1
s(S'NP'
S'ADVADVANMP'
tp959
F1
s(S'AP'
S'AAAMMP'
tp960
F1
s(S'AP'
S'AVP'
tp961
F30
s(g73
S'NADVVP'
tp962
F21
s(S'MP'
S'MADVADVPNP'
tp963
F1
s(S'VP'
S'ADVVPPP'
tp964
F1
s(S'DP'
S'DDPPP'
tp965
F28
s(S'MP'
S'MADVADVADVVDP'
tp966
F1
s(S'NP'
S'ADVNMP'
tp967
F7
s(g768
S'NNAP'
tp968
F15
s(S'NP'
S'ADVAAANCP'
tp969
F1
s(S'MP'
S'MADVVCP'
tp970
F1
s(S'PP'
S'PPANP'
tp971
F5
s(S'VP'
S'AAAVNP'
tp972
F1
s(S'AP'
S'AADVMP'
tp973
F2
s(g71
S'VNP'
tp974
F371
s(g164
S'VANP'
tp975
F23
s(S'VP'
S'VADVAP'
tp976
F15
s(S'PP'
S'PPADVNP'
tp977
F5
s(S'DP'
S'DDDDVP'
tp978
F1
s(S'VP'
S'ADVADVVVDP'
tp979
F1
s.