ccollections
defaultdict
p1
(c__builtin__
float
p2
tRp3
(S'MP'
S'MAAVVCP'
tp4
F1
s(S'PP'
S'PAAANP'
tp5
F2
s(S'DP'
S'ADDPP'
tp6
F5
s(S'DP'
p7
S'DDAP'
tp8
F3
s(S'VP'
S'ADVVVNP'
tp9
F1
s(S'AP'
p10
S'AADDDP'
tp11
F1
s(S'CP'
S'CCDDDDP'
tp12
F1
s(S'VP'
S'VVVVP'
tp13
F2
s(S'PP'
S'ADVADVPAP'
tp14
F1
s(S'PP'
S'PAPP'
tp15
F5
s(S'PP'
S'PADVNP'
tp16
F22
s(S'CP'
S'CCAAADP'
tp17
F1
s(S'DP'
p18
S'DNP'
tp19
F402
s(S'CP'
p20
S'CDADVADVPPP'
tp21
F1
s(S'DP'
S'AADDNP'
tp22
F1
s(S'NP'
S'ADVNDP'
tp23
F5
s(S'PP'
S'AAPDDP'
tp24
F1
s(S'VP'
S'ADVVNNP'
tp25
F5
s(S'CP'
S'CDPPP'
tp26
F91
s(S'VP'
S'VADP'
tp27
F11
s(S'DP'
S'DNNNNP'
tp28
F2
s(S'VP'
S'VMMP'
tp29
F4
s(S'DP'
S'DAAP'
tp30
F2
s(S'NP'
p31
S'ADVNNDDP'
tp32
F1
s(S'PP'
S'PPPPPP'
tp33
F1
s(S'NP'
S'NNACP'
tp34
F1
s(S'PP'
S'APPDP'
tp35
F1
s(S'DP'
S'DAADP'
tp36
F1
s(S'MP'
S'MDVP'
tp37
F1
s(S'NP'
p38
S'AANAAP'
tp39
F1
s(S'VP'
p40
S'ADVVNP'
tp41
F26
s(S'MP'
S'MVDP'
tp42
F32
s(S'PP'
p43
S'PPPP'
tp44
F32
s(S'VP'
p45
S'VVVVDDP'
tp46
F1
s(S'DP'
S'DDDNP'
tp47
F8
s(S'VP'
p48
S'VACP'
tp49
F5
s(S'PP'
S'PPAAP'
tp50
F3
s(S'VP'
p51
S'ADVVADVPP'
tp52
F1
s(S'DP'
S'DADVVP'
tp53
F6
s(S'MP'
p54
S'MMCP'
tp55
F1
s(S'PP'
S'PADVNNP'
tp56
F2
s(S'AP'
S'AADVPP'
tp57
F2
s(S'NP'
p58
S'NADVACP'
tp59
F2
s(S'NP'
S'NDDDP'
tp60
F2
s(S'NP'
S'NADVVVP'
tp61
F4
s(S'CP'
S'CADVDAPP'
tp62
F3
s(S'VP'
p63
S'VCP'
tp64
F156
s(S'NP'
p65
S'NMMP'
tp66
F9
s(S'DP'
S'DDDNNP'
tp67
F2
s(S'PP'
S'PAP'
tp68
F119
s(S'MP'
p69
S'MMVVP'
tp70
F3
s(S'VP'
S'VADVADVAP'
tp71
F2
s(S'NP'
S'ANNCCP'
tp72
F1
s(S'PP'
S'ADVPPVP'
tp73
F2
s(S'NP'
S'NNNAP'
tp74
F1
s(S'PP'
S'APVVP'
tp75
F3
s(S'PP'
S'PPADVDP'
tp76
F1
s(S'CP'
S'CADPPPP'
tp77
F1
s(S'PP'
S'PNP'
tp78
F462
s(S'MP'
S'MADVCDP'
tp79
F1
s(S'DP'
p80
S'DDP'
tp81
F55
s(S'NP'
S'ADVNADVAMP'
tp82
F1
s(S'NP'
p83
S'NNNPP'
tp84
F11
s(S'NP'
p85
S'NNDP'
tp86
F37
s(S'MP'
S'MCDP'
tp87
F6
s(S'NP'
S'ANADVAP'
tp88
F1
s(S'MP'
S'MNAP'
tp89
F2
s(S'VP'
S'ADVADVVVCP'
tp90
F1
s(S'NP'
p91
S'NMP'
tp92
F162
s(S'CP'
S'CADVDADVPP'
tp93
F1
s(S'VP'
p94
S'VAAADP'
tp95
F2
s(S'DP'
S'DAAAAANNP'
tp96
F1
s(S'VP'
S'AAVNP'
tp97
F2
s(S'NP'
p98
S'ADVADVNMMP'
tp99
F1
s(S'PP'
p100
S'PDP'
tp101
F344
s(S'DP'
p102
S'DDPPPPP'
tp103
F1
s(S'CP'
S'CCADVADVDP'
tp104
F1
s(S'CP'
S'CDADVADVPP'
tp105
F6
s(S'NP'
p106
S'ADVNVVP'
tp107
F2
s(S'VP'
S'AAAAVNP'
tp108
F1
s(S'VP'
S'VNNNNP'
tp109
F1
s(S'MP'
S'MNNVP'
tp110
F1
s(S'NP'
S'NNADVMP'
tp111
F1
s(S'VP'
S'AAAVCP'
tp112
F1
s(S'AP'
S'ANP'
tp113
F5
s(S'PP'
S'ADVPAAP'
tp114
F1
s(S'NP'
S'NADVADVADVVP'
tp115
F1
s(S'PP'
p116
S'PADVPP'
tp117
F3
s(S'NP'
S'NNADVCP'
tp118
F1
s(S'VP'
S'VVADVNP'
tp119
F2
s(S'DP'
S'DDDDDP'
tp120
F1
s(S'PP'
S'PNNNP'
tp121
F14
s(S'DP'
S'DDAAPPP'
tp122
F1
s(S'MP'
S'MMMVVP'
tp123
F1
s(S'PP'
S'AAPPPP'
tp124
F1
s(S'DP'
S'DPPPP'
tp125
F13
s(S'DP'
p126
S'DDANP'
tp127
F4
s(S'PP'
S'PADVADP'
tp128
F1
s(S'NP'
S'NACP'
tp129
F19
s(S'AP'
S'ADVAVP'
tp130
F3
s(g98
S'NCCP'
tp131
F86
s(S'VP'
S'VVADVCP'
tp132
F1
s(S'MP'
S'MDNNNP'
tp133
F1
s(S'AP'
S'AAAADP'
tp134
F3
s(S'VP'
p135
S'ADVVAANP'
tp136
F1
s(g91
S'NNCP'
tp137
F139
s(S'DP'
p138
S'ADVDDPP'
tp139
F3
s(S'NP'
S'NADVADVVP'
tp140
F1
s(S'DP'
p141
S'DDDDP'
tp142
F2
s(S'DP'
p143
S'DDAPP'
tp144
F3
s(S'VP'
S'AVNP'
tp145
F14
s(g116
S'ADVPVVP'
tp146
F1
s(S'PP'
p147
S'ADVAPDP'
tp148
F1
s(S'PP'
S'AAPNP'
tp149
F3
s(S'NP'
p150
S'NNNAAP'
tp151
F2
s(S'VP'
S'VADVVP'
tp152
F5
s(S'DP'
S'AAADPP'
tp153
F2
s(S'MP'
p154
S'MVPPP'
tp155
F2
s(S'NP'
S'ANADVVP'
tp156
F1
s(S'AP'
S'AAAAP'
tp157
F1
s(S'MP'
S'AMMVP'
tp158
F1
s(S'CP'
S'CCCDP'
tp159
F2
s(S'VP'
S'ADVVAP'
tp160
F5
s(S'VP'
S'VCCCP'
tp161
F1
s(S'PP'
S'APDP'
tp162
F15
s(S'NP'
p163
S'NAAPPP'
tp164
F1
s(S'NP'
S'AANNCCP'
tp165
F1
s(g65
S'NNAMP'
tp166
F1
s(S'AP'
S'AADVCP'
tp167
F1
s(S'PP'
S'ADVADVADVPMMMP'
tp168
F1
s(S'VP'
S'VVANP'
tp169
F4
s(S'PP'
S'ADVPNNP'
tp170
F1
s(S'VP'
S'ADVVVP'
tp171
F1
s(S'CP'
S'CDAAPPP'
tp172
F1
s(S'DP'
p173
S'DADVADVADVPP'
tp174
F1
s(S'MP'
S'MADVVNP'
tp175
F4
s(S'PP'
p176
S'PAAP'
tp177
F13
s(S'MP'
S'MPNNP'
tp178
F1
s(S'NP'
S'NANP'
tp179
F4
s(S'DP'
p180
S'DNNP'
tp181
F79
s(S'CP'
S'CADVDDPP'
tp182
F1
s(S'DP'
S'DPPPPP'
tp183
F2
s(S'VP'
S'AVVNNP'
tp184
F1
s(S'CP'
S'CCADVDP'
tp185
F3
s(S'VP'
S'VVNNNP'
tp186
F1
s(S'VP'
S'VVACP'
tp187
F1
s(S'VP'
p188
S'AAVDDP'
tp189
F1
s(S'DP'
S'ADDNP'
tp190
F1
s(S'NP'
S'NNNVP'
tp191
F17
s(g176
S'PAAVVP'
tp192
F1
s(S'VP'
S'VADVNNP'
tp193
F1
s(S'PP'
S'AAPPDP'
tp194
F2
s(S'PP'
p195
S'PADVVP'
tp196
F15
s(S'DP'
S'DADVVVP'
tp197
F1
s(S'PP'
S'APAP'
tp198
F5
s(S'VP'
S'ADVADVVDDP'
tp199
F1
s(S'AP'
S'APP'
tp200
F42
s(S'AP'
S'ACCCP'
tp201
F1
s(S'NP'
p202
S'NADVMP'
tp203
F1
s(S'AP'
S'AAP'
tp204
F21
s(S'VP'
S'VADVADVVP'
tp205
F1
s(S'CP'
S'CADVADPP'
tp206
F1
s(S'DP'
S'DAAAPP'
tp207
F2
s(S'NP'
S'ADVANPP'
tp208
F1
s(S'MP'
S'MVVCP'
tp209
F1
s(S'DP'
S'DAAVP'
tp210
F2
s(S'CP'
S'CDDDDPP'
tp211
F1
s(S'MP'
S'MPVP'
tp212
F1
s(S'PP'
S'PAANP'
tp213
F4
s(S'DP'
S'DDADVADVVP'
tp214
F1
s(S'PP'
S'PPVVP'
tp215
F4
s(S'VP'
S'VAACP'
tp216
F1
s(S'MP'
S'MVNP'
tp217
F57
s(S'MP'
S'MNDP'
tp218
F1
s(S'NP'
S'ANAAP'
tp219
F1
s(S'CP'
S'CDDDPPP'
tp220
F1
s(S'DP'
S'ADVADNP'
tp221
F2
s(S'PP'
S'PAVP'
tp222
F11
s(S'MP'
p223
S'ADVMVP'
tp224
F3
s(g98
S'ANAAAP'
tp225
F1
s(S'NP'
S'AAAAANNVP'
tp226
F1
s(S'VP'
S'VVVPP'
tp227
F1
s(S'NP'
p228
S'NNADP'
tp229
F1
s(S'NP'
S'NNADVADVVVP'
tp230
F1
s(g228
S'NMMMMP'
tp231
F1
s(S'AP'
S'ADVACCP'
tp232
F2
s(S'DP'
p233
S'DADP'
tp234
F4
s(S'AP'
p235
S'ADVADP'
tp236
F4
s(S'CP'
S'ADVADVCDP'
tp237
F3
s(S'VP'
S'ADVVMP'
tp238
F1
s(S'DP'
S'ADVDDP'
tp239
F1
s(S'PP'
S'APDDP'
tp240
F2
s(S'PP'
S'PPPPDP'
tp241
F1
s(S'DP'
S'DDVVVVP'
tp242
F1
s(g85
S'ADVNAP'
tp243
F2
s(S'PP'
p244
S'APPCP'
tp245
F1
s(S'MP'
S'MADVVADVPP'
tp246
F1
s(S'PP'
p247
S'APVP'
tp248
F18
s(S'MP'
S'MNNCP'
tp249
F2
s(S'MP'
S'MNCP'
tp250
F3
s(S'VP'
S'VVNP'
tp251
F60
s(S'PP'
S'PPPNNP'
tp252
F2
s(S'VP'
S'AAAAVDP'
tp253
F1
s(S'PP'
S'PPVP'
tp254
F38
s(S'MP'
S'MPCP'
tp255
F1
s(S'VP'
S'VADVDP'
tp256
F5
s(S'VP'
S'VVADVAP'
tp257
F3
s(S'VP'
S'VAAP'
tp258
F19
s(S'NP'
p259
S'ANDP'
tp260
F17
s(S'NP'
S'NVVP'
tp261
F103
s(S'PP'
S'AAPVP'
tp262
F5
s(S'PP'
S'PPADP'
tp263
F1
s(S'VP'
p264
S'VMP'
tp265
F38
s(S'VP'
p266
S'VVNNP'
tp267
F10
s(S'CP'
S'CDAPP'
tp268
F36
s(S'VP'
S'VVAAP'
tp269
F3
s(S'PP'
S'ADVPMP'
tp270
F1
s(S'MP'
S'MMPP'
tp271
F1
s(S'VP'
S'ADVADVVVNNP'
tp272
F1
s(S'DP'
S'ADNP'
tp273
F16
s(S'MP'
S'MADVVVNNP'
tp274
F1
s(S'MP'
S'MNNNVVP'
tp275
F1
s(S'PP'
S'PADP'
tp276
F9
s(S'NP'
S'NNAADP'
tp277
F1
s(S'VP'
p278
S'ADVVVCP'
tp279
F2
s(S'MP'
S'MVNNNNP'
tp280
F1
s(S'NP'
S'ANDDP'
tp281
F1
s(S'AP'
S'AAADVAP'
tp282
F1
s(S'DP'
S'DADVAP'
tp283
F3
s(S'PP'
S'ADVADVPMP'
tp284
F1
s(S'DP'
S'DAPP'
tp285
F51
s(S'VP'
S'AVVP'
tp286
F1
s(S'VP'
S'ADVADVVPP'
tp287
F1
s(S'MP'
S'MADVADVVNP'
tp288
F1
s(g48
S'VADVADVNP'
tp289
F1
s(S'VP'
S'ADVADVADVVDP'
tp290
F1
s(S'PP'
S'AAAPVP'
tp291
F1
s(g31
S'ADVADVNNDP'
tp292
F1
s(S'VP'
S'ADVADVVDP'
tp293
F5
s(S'PP'
S'PPPDP'
tp294
F1
s(S'DP'
S'DAAPPP'
tp295
F3
s(S'PP'
p296
S'AAAPDP'
tp297
F1
s(S'AP'
S'AAPPP'
tp298
F2
s(g259
S'ADVNAMMP'
tp299
F1
s(S'DP'
S'DAAANP'
tp300
F1
s(S'DP'
S'DADVANP'
tp301
F4
s(S'VP'
S'VAAPP'
tp302
F1
s(S'DP'
p303
S'DDAADP'
tp304
F1
s(g7
S'ADVDNP'
tp305
F6
s(S'VP'
p306
S'VVPP'
tp307
F34
s(S'VP'
S'VADVAPP'
tp308
F1
s(S'AP'
S'AAAAMP'
tp309
F1
s(S'PP'
S'PAVVP'
tp310
F1
s(S'MP'
S'MVPP'
tp311
F13
s(S'DP'
S'ADVP'
tp312
F12
s(S'CP'
S'CDDPPP'
tp313
F10
s(S'VP'
S'VADVADVCP'
tp314
F1
s(S'NP'
S'ADVADVANVVVP'
tp315
F1
s(S'NP'
S'NNPP'
tp316
F36
s(S'MP'
S'MMMPP'
tp317
F1
s(S'CP'
S'CAADPPPP'
tp318
F1
s(S'MP'
S'MVVDP'
tp319
F5
s(S'DP'
S'DADVPPP'
tp320
F2
s(S'NP'
S'ANVP'
tp321
F29
s(S'DP'
p322
S'DNNNP'
tp323
F11
s(S'DP'
S'ADVDADVPP'
tp324
F1
s(S'NP'
S'ADVADVNAAP'
tp325
F1
s(S'MP'
S'MPPDP'
tp326
F1
s(S'PP'
S'PADVADVVP'
tp327
F2
s(S'DP'
S'ADVADPP'
tp328
F1
s(S'PP'
S'PMMP'
tp329
F1
s(S'PP'
S'PVVVP'
tp330
F2
s(S'PP'
S'PMP'
tp331
F21
s(S'CP'
p332
S'CCDP'
tp333
F134
s(S'NP'
S'ANNDP'
tp334
F1
s(g69
S'AMVP'
tp335
F3
s(S'PP'
S'PPNNNP'
tp336
F1
s(S'VP'
S'VADVADVANP'
tp337
F3
s(S'PP'
S'ADVADVPPPP'
tp338
F1
s(S'DP'
S'DDDMP'
tp339
F1
s(S'NP'
p340
S'NVVVP'
tp341
F8
s(S'CP'
S'CDDDPP'
tp342
F10
s(g332
S'CDAAPP'
tp343
F12
s(S'VP'
S'VVVDP'
tp344
F6
s(S'PP'
S'PDDDDP'
tp345
F1
s(g223
S'MVACP'
tp346
F1
s(S'DP'
S'ADVDDAVP'
tp347
F1
s(S'VP'
S'AVADDDP'
tp348
F1
s(S'AP'
S'AACCP'
tp349
F1
s(S'VP'
p350
S'VVMP'
tp351
F4
s(S'VP'
S'ADVVVDP'
tp352
F2
s(g100
S'PPP'
tp353
F148
s(S'VP'
S'VADVADVADVANP'
tp354
F1
s(S'NP'
S'NNANP'
tp355
F1
s(S'NP'
S'NAVP'
tp356
F17
s(S'PP'
S'PADVAP'
tp357
F2
s(S'NP'
S'ANNPPP'
tp358
F1
s(S'DP'
p359
S'DDNNNP'
tp360
F2
s(S'PP'
S'PADDP'
tp361
F1
s(S'VP'
S'AAVVP'
tp362
F1
s(S'DP'
S'ADVDVP'
tp363
F7
s(S'PP'
S'PPADVADVNP'
tp364
F1
s(S'NP'
p365
S'NAAAP'
tp366
F3
s(S'NP'
S'NNADVPP'
tp367
F1
s(S'DP'
S'DADVADVPPP'
tp368
F1
s(g150
S'NNDDP'
tp369
F6
s(S'PP'
S'AAAAPPDP'
tp370
F1
s(S'DP'
S'ADVADVDNP'
tp371
F1
s(S'VP'
S'VAAAAP'
tp372
F3
s(S'VP'
p373
S'VPP'
tp374
F161
s(S'CP'
S'ADVCCDP'
tp375
F2
s(S'VP'
S'VVVVNNNP'
tp376
F1
s(S'MP'
p377
S'ADVADVMVP'
tp378
F1
s(S'NP'
S'ADVADVADVANDP'
tp379
F1
s(S'NP'
S'NNNCP'
tp380
F25
s(S'PP'
S'PADVDP'
tp381
F4
s(S'CP'
S'CDADVAPP'
tp382
F1
s(S'CP'
S'CCCAADP'
tp383
F2
s(S'AP'
S'ADVAADP'
tp384
F1
s(g173
S'DANNP'
tp385
F3
s(S'PP'
S'PADVAAP'
tp386
F1
s(S'CP'
S'CDDPP'
tp387
F107
s(S'DP'
p388
S'DAAPP'
tp389
F14
s(S'PP'
p390
S'PVVP'
tp391
F42
s(S'CP'
S'CADPPP'
tp392
F2
s(S'AP'
S'AACP'
tp393
F14
s(g45
S'ADVVCP'
tp394
F9
s(S'MP'
S'MCCDP'
tp395
F1
s(g94
S'VPPP'
tp396
F19
s(S'VP'
S'AVCCP'
tp397
F2
s(S'CP'
S'CDADVADVAPP'
tp398
F1
s(S'VP'
S'VVPPP'
tp399
F5
s(S'CP'
S'CAADADVADVPP'
tp400
F1
s(S'PP'
S'PPAP'
tp401
F16
s(S'DP'
p402
S'DVVP'
tp403
F49
s(S'CP'
S'CDDAAPP'
tp404
F1
s(S'NP'
S'ANMP'
tp405
F5
s(S'AP'
S'APPP'
tp406
F4
s(g244
S'ADVPPP'
tp407
F5
s(g98
S'ADVADVNVP'
tp408
F2
s(S'VP'
S'VVVP'
tp409
F5
s(S'CP'
S'CADVDPP'
tp410
F23
s(S'MP'
p411
S'MADVADVPVVP'
tp412
F1
s(g83
S'ANCP'
tp413
F52
s(S'DP'
S'DCP'
tp414
F15
s(S'NP'
S'ANNCP'
tp415
F5
s(S'NP'
S'AAANCP'
tp416
F2
s(S'NP'
S'NNVVVVP'
tp417
F2
s(S'VP'
p418
S'AAVVCP'
tp419
F1
s(S'DP'
S'DDDP'
tp420
F21
s(S'AP'
S'ADDDDP'
tp421
F1
s(g18
S'DDADVPP'
tp422
F7
s(S'DP'
S'AADDPP'
tp423
F3
s(S'CP'
S'CADVADVADPP'
tp424
F1
s(S'MP'
S'MAADP'
tp425
F1
s(S'NP'
S'ANVVP'
tp426
F9
s(S'DP'
S'ADDNNP'
tp427
F1
s(S'NP'
S'NVVVVP'
tp428
F2
s(S'NP'
S'NPPP'
tp429
F29
s(S'DP'
S'DDDADVADVVP'
tp430
F1
s(g54
S'MCADDP'
tp431
F1
s(S'VP'
S'VAPPP'
tp432
F1
s(g180
S'DAVP'
tp433
F23
s(S'VP'
S'AVVVP'
tp434
F1
s(S'NP'
p435
S'NNNMP'
tp436
F2
s(S'NP'
S'NNNNMP'
tp437
F1
s(S'MP'
p438
S'MCAADP'
tp439
F1
s(S'AP'
p440
S'ACP'
tp441
F67
s(S'PP'
p442
S'AAPAP'
tp443
F3
s(g100
S'PPNP'
tp444
F93
s(S'VP'
S'AAAVVP'
tp445
F1
s(S'MP'
S'MADVVPP'
tp446
F1
s(S'NP'
S'NAADP'
tp447
F3
s(S'DP'
S'ADVDAPP'
tp448
F5
s(S'VP'
S'AVADVCCP'
tp449
F1
s(S'DP'
S'AADVP'
tp450
F2
s(g91
S'NNNNCCP'
tp451
F2
s(S'VP'
p452
S'VVVVNNP'
tp453
F1
s(S'MP'
p454
S'MACP'
tp455
F1
s(S'AP'
S'ADVAAVP'
tp456
F1
s(S'CP'
S'CDDADVPP'
tp457
F4
s(S'CP'
S'CCCDDP'
tp458
F1
s(S'AP'
S'ADP'
tp459
F356
s(S'DP'
S'DDADVVP'
tp460
F1
s(S'MP'
S'MVVP'
tp461
F1
s(S'NP'
S'ANPPP'
tp462
F2
s(S'NP'
S'ADVANCCP'
tp463
F1
s(S'DP'
S'AAAADPP'
tp464
F1
s(S'PP'
S'PPPAVP'
tp465
F1
s(g102
S'DDAANNP'
tp466
F1
s(S'PP'
S'PAAAAP'
tp467
F1
s(S'VP'
S'ADVADVVNNP'
tp468
F1
s(g373
S'AVDP'
tp469
F17
s(S'NP'
S'ANNVP'
tp470
F3
s(S'VP'
S'VVAP'
tp471
F37
s(S'NP'
S'NNAPP'
tp472
F2
s(g176
S'PPAAAAP'
tp473
F1
s(S'MP'
S'MNADVVP'
tp474
F1
s(S'AP'
S'AAAADVDP'
tp475
F1
s(g259
S'ADVADVADVNDDP'
tp476
F1
s(S'CP'
S'ADVACDP'
tp477
F2
s(S'PP'
p478
S'APPVVP'
tp479
F2
s(S'AP'
S'AAAPPP'
tp480
F1
s(g147
S'PPADVVP'
tp481
F2
s(S'VP'
S'AAVCP'
tp482
F2
s(S'NP'
S'NNADVCCP'
tp483
F1
s(S'NP'
p484
S'NPP'
tp485
F271
s(g202
S'NNNP'
tp486
F1
s(g484
S'NVP'
tp487
F532
s(S'PP'
S'PAAVP'
tp488
F1
s(S'PP'
S'AAPPNP'
tp489
F1
s(S'NP'
p490
S'NAAPP'
tp491
F2
s(g373
S'VDDP'
tp492
F50
s(S'VP'
S'ADVVADVAP'
tp493
F2
s(S'NP'
S'ADVNPPP'
tp494
F1
s(S'AP'
S'AAADVDP'
tp495
F1
s(S'NP'
S'AANNVP'
tp496
F1
s(S'NP'
S'AANVVP'
tp497
F1
s(S'DP'
S'DADVAPP'
tp498
F1
s(S'DP'
S'DDADVADVNNP'
tp499
F1
s(S'NP'
S'NADVADVVVP'
tp500
F2
s(S'NP'
S'ANPP'
tp501
F38
s(S'PP'
S'ADVPPDP'
tp502
F2
s(S'PP'
S'PPPPP'
tp503
F10
s(S'MP'
p504
S'MPDP'
tp505
F5
s(S'PP'
S'ADVADVPDP'
tp506
F2
s(S'MP'
S'MDVVP'
tp507
F1
s(S'MP'
S'MVVPP'
tp508
F5
s(g188
S'AAVVNP'
tp509
F1
s(S'PP'
S'PPPNP'
tp510
F8
s(S'VP'
S'VVAAPP'
tp511
F2
s(S'NP'
S'ADVADVNPP'
tp512
F1
s(g484
S'NPPPP'
tp513
F3
s(g322
S'ADDP'
tp514
F2
s(S'CP'
S'CAADPP'
tp515
F10
s(S'NP'
S'NAACP'
tp516
F3
s(g247
S'PNNP'
tp517
F82
s(S'PP'
S'APNNP'
tp518
F6
s(S'MP'
S'MMNP'
tp519
F1
s(S'VP'
S'VVAACP'
tp520
F1
s(S'VP'
S'AVAP'
tp521
F2
s(S'MP'
S'MMVP'
tp522
F13
s(S'PP'
p523
S'PADVDDP'
tp524
F1
s(S'PP'
p525
S'ADVADVAPDP'
tp526
F1
s(S'PP'
S'PPPPAAP'
tp527
F1
s(S'NP'
S'ADVNCP'
tp528
F8
s(S'AP'
p529
S'AADP'
tp530
F48
s(S'NP'
S'NAPPP'
tp531
F1
s(g332
S'ACDP'
tp532
F27
s(S'VP'
S'ADVVDDDP'
tp533
F1
s(S'VP'
S'VCCP'
tp534
F21
s(S'AP'
S'ADVANP'
tp535
F3
s(S'MP'
S'MDPP'
tp536
F1
s(g478
S'PAAAVP'
tp537
F1
s(S'CP'
S'CDADVPPP'
tp538
F1
s(g373
S'VAP'
tp539
F203
s(S'VP'
S'VVVVNP'
tp540
F1
s(S'MP'
S'MNVVP'
tp541
F7
s(S'NP'
S'NAAAAMP'
tp542
F1
s(S'DP'
S'DDDPP'
tp543
F16
s(S'CP'
S'ADVCDDP'
tp544
F2
s(S'NP'
S'ANADVCP'
tp545
F1
s(S'PP'
S'PPAADDP'
tp546
F1
s(S'VP'
S'VADVMP'
tp547
F2
s(S'AP'
S'AAVVP'
tp548
F2
s(S'MP'
S'MNMP'
tp549
F3
s(S'DP'
S'DDDPPP'
tp550
F2
s(S'DP'
S'DADVDP'
tp551
F4
s(S'DP'
p552
S'DDAAAVP'
tp553
F1
s(S'AP'
S'AAACP'
tp554
F4
s(S'AP'
S'AVVP'
tp555
F4
s(S'PP'
S'PPPVP'
tp556
F1
s(S'VP'
S'AAVAP'
tp557
F2
s(S'AP'
S'AADDP'
tp558
F8
s(S'NP'
S'NNNADVADVVP'
tp559
F1
s(S'DP'
S'AADPPPP'
tp560
F1
s(S'PP'
S'AAAPNNP'
tp561
F1
s(S'VP'
S'VADVADVADVCP'
tp562
F1
s(S'VP'
p563
S'VAANP'
tp564
F13
s(S'NP'
S'NADVADVCP'
tp565
F2
s(S'PP'
p566
S'PPPCP'
tp567
F2
s(S'NP'
S'ADVADVADVANADVVP'
tp568
F1
s(g438
S'AMPP'
tp569
F1
s(S'VP'
S'VVDP'
tp570
F75
s(S'MP'
p571
S'MMAPPP'
tp572
F1
s(S'MP'
S'MPNP'
tp573
F6
s(S'MP'
p574
S'MADP'
tp575
F11
s(S'PP'
S'PPPDDP'
tp576
F1
s(S'AP'
S'AMMP'
tp577
F3
s(S'CP'
S'CCAADP'
tp578
F4
s(S'DP'
S'DDADVNP'
tp579
F1
s(S'PP'
p580
S'PANP'
tp581
F55
s(g195
S'PDDDP'
tp582
F7
s(S'NP'
S'ANNMP'
tp583
F1
s(S'MP'
S'MVVPPP'
tp584
F2
s(S'MP'
S'ADVAMVP'
tp585
F1
s(S'AP'
S'AAVP'
tp586
F4
s(S'NP'
S'NAAP'
tp587
F10
s(g365
S'NDDP'
tp588
F14
s(S'AP'
S'ACCP'
tp589
F8
s(g163
S'ADVADVANCP'
tp590
F2
s(S'VP'
S'AVPPP'
tp591
F1
s(g85
S'NDP'
tp592
F148
s(S'PP'
S'PADVADVADVNP'
tp593
F1
s(S'NP'
S'AAANVP'
tp594
F4
s(S'MP'
S'MVAAP'
tp595
F1
s(g180
S'DDVP'
tp596
F59
s(S'VP'
S'ADVVAAANP'
tp597
F1
s(S'NP'
p598
S'AANVP'
tp599
F10
s(S'VP'
p600
S'ADVVVNNP'
tp601
F1
s(S'DP'
S'DADVADVAPP'
tp602
F1
s(S'VP'
S'VNNNP'
tp603
F7
s(g138
S'AAADAP'
tp604
F1
s(S'CP'
S'ADVCADDP'
tp605
F1
s(S'PP'
S'APADVDP'
tp606
F2
s(S'PP'
p607
S'PCP'
tp608
F14
s(S'NP'
S'NNPPP'
tp609
F7
s(S'PP'
p610
S'PAADP'
tp611
F5
s(g435
S'ADVNNVP'
tp612
F2
s(S'VP'
S'VPPPP'
tp613
F3
s(S'VP'
S'ADVAVCP'
tp614
F1
s(S'PP'
p615
S'PACP'
tp616
F1
s(S'MP'
S'MVNNNP'
tp617
F2
s(S'NP'
S'NNNDP'
tp618
F2
s(S'AP'
S'ADVANNNP'
tp619
F1
s(S'AP'
S'ADVACP'
tp620
F4
s(S'PP'
p621
S'AAPNNP'
tp622
F1
s(g48
S'AVVDP'
tp623
F2
s(g106
S'NNVP'
tp624
F104
s(S'MP'
S'MVCP'
tp625
F13
s(S'PP'
S'PPAAANP'
tp626
F1
s(S'CP'
p627
S'CCDDP'
tp628
F20
s(S'NP'
p629
S'NNADVVP'
tp630
F6
s(S'PP'
S'PPADVADVVP'
tp631
F2
s(g233
S'DAAAAVP'
tp632
F1
s(S'MP'
S'MVMP'
tp633
F3
s(S'NP'
S'ADVANAP'
tp634
F1
s(S'NP'
S'NNVVP'
tp635
F17
s(g58
S'NAAMP'
tp636
F1
s(S'NP'
S'NNNNVP'
tp637
F2
s(S'VP'
S'VVCP'
tp638
F21
s(g598
S'AANCP'
tp639
F12
s(g63
S'VDP'
tp640
F392
s(S'VP'
p641
S'VVDDDP'
tp642
F1
s(S'NP'
S'ADVNMMP'
tp643
F2
s(S'MP'
S'MDCP'
tp644
F2
s(S'VP'
S'ADVVVADVNP'
tp645
F1
s(g440
S'AAAPP'
tp646
F1
s(S'VP'
S'ADVVPP'
tp647
F5
s(S'NP'
S'AAANADVPP'
tp648
F1
s(S'PP'
S'PPADVADVADVNP'
tp649
F1
s(S'VP'
S'VNNP'
tp650
F62
s(S'AP'
S'AADVDP'
tp651
F4
s(S'AP'
S'AAAMP'
tp652
F1
s(S'NP'
S'NADP'
tp653
F1
s(S'DP'
S'DDNP'
tp654
F58
s(S'NP'
S'NADVCP'
tp655
F6
s(g340
S'NNADVAP'
tp656
F4
s(S'PP'
S'AAPPP'
tp657
F3
s(S'VP'
S'VPPPPP'
tp658
F1
s(S'VP'
S'ADVAVPP'
tp659
F1
s(S'NP'
S'ADVANVP'
tp660
F1
s(S'NP'
S'ADVADVNCP'
tp661
F2
s(S'AP'
S'ADVADDP'
tp662
F1
s(g154
S'AAMDDP'
tp663
F1
s(S'DP'
S'AADPP'
tp664
F21
s(S'NP'
S'NNNNPP'
tp665
F2
s(S'DP'
S'DADVADVANP'
tp666
F2
s(g621
S'ADVADVPPDP'
tp667
F1
s(S'MP'
S'MADVADVAPP'
tp668
F1
s(S'AP'
S'AADVADVVP'
tp669
F2
s(S'CP'
S'CDPPPPP'
tp670
F2
s(S'MP'
S'MPPAP'
tp671
F1
s(S'DP'
S'DADVADVAP'
tp672
F1
s(S'MP'
S'MVVNP'
tp673
F3
s(S'CP'
S'CAAADDPP'
tp674
F1
s(S'CP'
S'ACDDP'
tp675
F3
s(S'PP'
S'PPPADVDP'
tp676
F1
s(S'VP'
S'ADVADVVANNP'
tp677
F1
s(S'AP'
S'AAPP'
tp678
F5
s(S'VP'
S'VVCCP'
tp679
F3
s(S'MP'
S'AAAMVP'
tp680
F1
s(S'PP'
S'PADVMP'
tp681
F1
s(S'DP'
S'DADVADVNP'
tp682
F2
s(S'AP'
S'ADVANNP'
tp683
F1
s(S'NP'
S'NAPP'
tp684
F7
s(g390
S'APPVP'
tp685
F1
s(S'AP'
S'ADVADVADP'
tp686
F3
s(S'NP'
S'NADVDP'
tp687
F2
s(S'PP'
S'ADVPPPP'
tp688
F1
s(S'NP'
S'ANCCP'
tp689
F11
s(S'NP'
S'AANPP'
tp690
F3
s(g563
S'VDDDP'
tp691
F5
s(S'NP'
S'NNMP'
tp692
F20
s(S'DP'
S'DDDVP'
tp693
F2
s(S'VP'
S'AAVDDDP'
tp694
F1
s(S'CP'
S'CADDPP'
tp695
F4
s(g580
S'PAAAP'
tp696
F3
s(S'PP'
S'ADVADVPNP'
tp697
F1
s(S'VP'
S'VVVDDP'
tp698
F2
s(S'CP'
S'CDDAPP'
tp699
F3
s(S'NP'
p700
S'ANAP'
tp701
F6
s(g411
S'MVAP'
tp702
F21
s(S'VP'
S'VADVADVDDP'
tp703
F1
s(g566
S'PVP'
tp704
F304
s(S'MP'
S'MVDDDP'
tp705
F1
s(S'DP'
S'DADVAVP'
tp706
F1
s(S'AP'
S'ADVADVAPP'
tp707
F1
s(g303
S'DAAAAPPP'
tp708
F1
s(S'VP'
S'VVVVDP'
tp709
F1
s(S'AP'
S'AADVDDP'
tp710
F1
s(S'NP'
p711
S'NNNNNVP'
tp712
F1
s(S'DP'
S'DVVVP'
tp713
F3
s(g610
S'PPADVPP'
tp714
F1
s(S'MP'
p715
S'MAADVDP'
tp716
F1
s(g629
S'ADVADVADVNVP'
tp717
F1
s(S'NP'
p718
S'ADVADVANVP'
tp719
F2
s(S'AP'
S'ADVADVAMP'
tp720
F1
s(S'NP'
S'NNADVADVPPP'
tp721
F1
s(S'PP'
S'PPDDP'
tp722
F6
s(g600
S'AVCP'
tp723
F3
s(S'NP'
S'NADVADVAP'
tp724
F1
s(S'NP'
S'NAVVP'
tp725
F1
s(S'DP'
p726
S'DPP'
tp727
F664
s(S'NP'
S'ADVNVP'
tp728
F7
s(g726
S'DDPP'
tp729
F155
s(S'DP'
S'DDAVP'
tp730
F1
s(g552
S'DANP'
tp731
F60
s(S'AP'
S'ADVAMP'
tp732
F4
s(S'NP'
p733
S'NADVPP'
tp734
F4
s(S'AP'
S'AADVAP'
tp735
F1
s(S'PP'
S'PPPMP'
tp736
F1
s(S'PP'
S'AAPPVP'
tp737
F1
s(S'NP'
S'NAAVP'
tp738
F5
s(S'DP'
S'ADVADVADPP'
tp739
F1
s(S'NP'
S'AAANNPP'
tp740
F1
s(S'DP'
p741
S'AADNP'
tp742
F3
s(S'AP'
S'AAAAPP'
tp743
F1
s(g306
S'VADVCP'
tp744
F4
s(S'NP'
S'NNNNAP'
tp745
F2
s(S'NP'
S'NNNNCP'
tp746
F2
s(g504
S'MDNP'
tp747
F9
s(S'NP'
S'NNNVVP'
tp748
F3
s(S'PP'
S'PADVPPP'
tp749
F2
s(g38
S'NAANP'
tp750
F2
s(S'DP'
S'DCCP'
tp751
F4
s(S'PP'
S'ADVADVPPP'
tp752
F1
s(S'PP'
S'PPPPNP'
tp753
F1
s(S'PP'
S'AAPDP'
tp754
F3
s(S'MP'
S'MADVVDP'
tp755
F5
s(g478
S'PAPPP'
tp756
F1
s(g43
S'PDDP'
tp757
F41
s(g574
S'MVDDP'
tp758
F3
s(g525
S'PCCP'
tp759
F2
s(S'PP'
S'ADVAPNP'
tp760
F1
s(S'NP'
S'NNNADVVP'
tp761
F1
s(S'DP'
S'ADPPP'
tp762
F2
s(S'NP'
S'NNNADVADVPP'
tp763
F1
s(S'DP'
S'ADVDAP'
tp764
F1
s(S'AP'
S'ADVADVACP'
tp765
F1
s(S'PP'
S'AAPDDDP'
tp766
F1
s(S'NP'
S'NNP'
tp767
F6
s(g278
S'VVDDP'
tp768
F8
s(S'DP'
S'DAANP'
tp769
F8
s(S'MP'
S'MDADVNP'
tp770
F1
s(S'NP'
p771
S'NAAAAVP'
tp772
F1
s(S'AP'
S'ADDP'
tp773
F51
s(S'PP'
S'PNNNNP'
tp774
F2
s(S'VP'
S'ADVVVAP'
tp775
F2
s(S'PP'
S'ADVPPNP'
tp776
F1
s(g51
S'VVVCP'
tp777
F1
s(S'CP'
S'CADVADVDPP'
tp778
F4
s(S'CP'
S'ADVADVADVCDP'
tp779
F1
s(S'DP'
S'DPPP'
tp780
F133
s(g388
S'DAVVP'
tp781
F1
s(g359
S'AADPPP'
tp782
F3
s(g641
S'VANNP'
tp783
F2
s(S'NP'
S'NNAVP'
tp784
F1
s(S'NP'
S'NNAAPP'
tp785
F1
s(S'DP'
S'DDNNP'
tp786
F6
s(g718
S'NMMMP'
tp787
F1
s(S'PP'
S'ADVPNP'
tp788
F16
s(g235
S'AAADP'
tp789
F4
s(S'MP'
S'MNADVVVP'
tp790
F1
s(S'MP'
S'MNMMP'
tp791
F1
s(S'NP'
S'ADVADVANCCP'
tp792
F1
s(g350
S'VAADP'
tp793
F6
s(S'MP'
S'MVVAP'
tp794
F3
s(S'NP'
S'ANADVADVVP'
tp795
F1
s(g529
S'ANNP'
tp796
F2
s(g143
S'AADADVNP'
tp797
F1
s(g454
S'MNCCP'
tp798
F1
s(S'NP'
S'NNADVADP'
tp799
F1
s(g700
S'NAP'
tp800
F136
s(S'NP'
p801
S'NNAAP'
tp802
F1
s(S'DP'
S'AADDP'
tp803
F1
s(S'VP'
S'VAAAP'
tp804
F4
s(S'VP'
S'VADVANP'
tp805
F2
s(S'VP'
S'ADVAVNP'
tp806
F1
s(g418
S'VVP'
tp807
F55
s(S'MP'
S'ADVMNP'
tp808
F3
s(g138
S'DADVNP'
tp809
F6
s(S'PP'
S'ADVADVPVP'
tp810
F3
s(S'PP'
S'PADVADVANP'
tp811
F1
s(S'PP'
S'APNP'
tp812
F17
s(S'VP'
S'VVVNNP'
tp813
F1
s(S'DP'
S'DDVVP'
tp814
F6
s(S'AP'
S'AAADDP'
tp815
F2
s(S'VP'
S'VVVNP'
tp816
F4
s(S'MP'
S'MNPP'
tp817
F2
s(S'NP'
S'NAMP'
tp818
F3
s(S'MP'
S'MVANP'
tp819
F2
s(S'DP'
S'ADVADVDDPP'
tp820
F1
s(S'MP'
S'MVNNP'
tp821
F5
s(g627
S'CDPP'
tp822
F562
s(S'NP'
S'AAAANNVP'
tp823
F1
s(S'MP'
S'MVVNNP'
tp824
F1
s(S'AP'
S'ADDDP'
tp825
F2
s(S'CP'
S'ADVCADP'
tp826
F2
s(S'DP'
S'ADVDVVP'
tp827
F1
s(S'CP'
S'ADVCDP'
tp828
F9
s(S'AP'
S'ADVAAP'
tp829
F3
s(S'VP'
S'ADVADVVNP'
tp830
F4
s(S'PP'
S'PPPNNNNNP'
tp831
F1
s(S'DP'
S'AAADDPP'
tp832
F1
s(g188
S'VAAVP'
tp833
F1
s(S'VP'
S'ADVADVVCP'
tp834
F2
s(g40
S'VADVADVDP'
tp835
F2
s(S'PP'
p836
S'PPNNP'
tp837
F11
s(g296
S'PPAAAPP'
tp838
F1
s(S'MP'
S'MPPNP'
tp839
F2
s(S'PP'
S'PPMP'
tp840
F2
s(S'CP'
S'CAADDPP'
tp841
F2
s(g141
S'ADVADVDPP'
tp842
F6
s(g264
S'VADVNP'
tp843
F7
s(S'MP'
S'MMADVADVVP'
tp844
F1
s(S'NP'
S'NADVAP'
tp845
F1
s(S'AP'
S'ADVAADVDP'
tp846
F1
s(S'VP'
S'AVDDP'
tp847
F4
s(S'MP'
S'AAAAMNP'
tp848
F1
s(S'DP'
S'DAP'
tp849
F43
s(S'MP'
S'MCADVDP'
tp850
F1
s(g332
S'CADPP'
tp851
F25
s(S'NP'
S'NADVAVP'
tp852
F2
s(g610
S'PPAVP'
tp853
F3
s(S'PP'
S'PPDDDP'
tp854
F1
s(S'VP'
S'AVPP'
tp855
F8
s(S'NP'
S'NADVADVMP'
tp856
F1
s(S'CP'
S'CAADPPP'
tp857
F1
s(S'VP'
S'ADVADVVVPP'
tp858
F1
s(S'AP'
S'AAAAAMP'
tp859
F1
s(S'CP'
S'ADVCADVDP'
tp860
F1
s(S'CP'
S'CDDPPPPP'
tp861
F1
s(S'VP'
S'VVVVCP'
tp862
F1
s(S'CP'
S'CDPPPP'
tp863
F8
s(S'VP'
S'VADVADVADVNP'
tp864
F1
s(g523
S'PANNP'
tp865
F3
s(S'DP'
S'AADADVADVPP'
tp866
F1
s(S'DP'
S'ADDDMMP'
tp867
F1
s(S'MP'
S'MAADPP'
tp868
F1
s(S'PP'
S'APPP'
tp869
F6
s(g126
S'ADPPPP'
tp870
F2
s(g741
S'DAPPP'
tp871
F1
s(g80
S'DADVADVPP'
tp872
F8
s(S'DP'
S'DMP'
tp873
F4
s(S'NP'
S'ADVADVADVNMP'
tp874
F1
s(S'DP'
S'ADVDPP'
tp875
F33
s(S'NP'
S'ADVNAAAAMP'
tp876
F1
s(g442
S'PADVADVNP'
tp877
F3
s(S'VP'
S'ADVADVAVNNP'
tp878
F1
s(g388
S'ADPP'
tp879
F40
s(g733
S'NNADVVVP'
tp880
F2
s(S'VP'
S'VADVPP'
tp881
F2
s(S'DP'
S'DDAAPP'
tp882
F2
s(S'CP'
S'CCADVDDP'
tp883
F1
s(S'PP'
S'ADVPVP'
tp884
F6
s(S'DP'
S'DDDDPP'
tp885
F2
s(S'MP'
S'AAAAMPP'
tp886
F1
s(g801
S'ANAADDP'
tp887
F1
s(S'NP'
S'ADVANCP'
tp888
F2
s(S'MP'
S'MVMMP'
tp889
F2
s(S'NP'
S'NNVVVP'
tp890
F3
s(g135
S'ADVVANP'
tp891
F2
s(g566
S'ADVPDP'
tp892
F10
s(S'NP'
S'ANNPP'
tp893
F1
s(g377
S'MAVNNP'
tp894
F1
s(S'MP'
S'MVADVAP'
tp895
F2
s(g83
S'NCP'
tp896
F388
s(g715
S'MMMMAAP'
tp897
F1
s(S'CP'
S'CADVDPPP'
tp898
F1
s(S'NP'
S'NAAANP'
tp899
F1
s(S'NP'
S'NNNCCCP'
tp900
F1
s(g771
S'ADVANDP'
tp901
F1
s(S'AP'
S'AAAP'
tp902
F4
s(S'AP'
S'AADVMP'
tp903
F1
s(g615
S'ADVPDDP'
tp904
F1
s(S'PP'
S'PPDP'
tp905
F40
s(S'NP'
S'AANDP'
tp906
F2
s(S'MP'
S'MVCCP'
tp907
F3
s(S'NP'
S'NNCCP'
tp908
F21
s(S'MP'
S'MNVP'
tp909
F26
s(S'NP'
S'AANCCP'
tp910
F2
s(g607
S'PADVADVAP'
tp911
F1
s(g452
S'VAPP'
tp912
F5
s(g490
S'NPPPPP'
tp913
F1
s(S'MP'
S'MAVNP'
tp914
F1
s(S'VP'
S'ADVVDP'
tp915
F24
s(S'VP'
S'VADDP'
tp916
F1
s(S'DP'
S'DADVPP'
tp917
F20
s(S'AP'
S'AMP'
tp918
F28
s(S'CP'
S'CCADP'
tp919
F7
s(g571
S'MAVADDDP'
tp920
F1
s(S'MP'
S'MADVVADVAP'
tp921
F1
s(S'AP'
S'ADVAPP'
tp922
F8
s(g836
S'ADVADVPVVP'
tp923
F2
s(g10
S'ADVAADVADVVP'
tp924
F1
s(S'CP'
S'AACDP'
tp925
F6
s(S'NP'
S'NNNCCP'
tp926
F6
s(S'PP'
S'PPCP'
tp927
F1
s(g20
S'CCDDDP'
tp928
F1
s(S'MP'
S'MADVVNNP'
tp929
F2
s(S'DP'
S'ADVDPPP'
tp930
F2
s(g18
S'DVP'
tp931
F361
s(S'VP'
S'AVNNP'
tp932
F5
s(S'AP'
S'ADVADVADDDP'
tp933
F1
s(g150
S'NNCCCP'
tp934
F2
s(S'AP'
S'AVP'
tp935
F40
s(S'NP'
S'NADVVP'
tp936
F16
s(g711
S'NNADVADVVP'
tp937
F1
s(S'CP'
S'CAAAADPP'
tp938
F1
s(S'VP'
S'ADVVPPP'
tp939
F1
s(g402
S'DDPPP'
tp940
F19
s(S'NP'
S'NNNMMP'
tp941
F1
s(S'NP'
S'ADVNMP'
tp942
F11
s(S'NP'
S'NNAP'
tp943
F13
s(S'PP'
S'PPANP'
tp944
F2
s(S'MP'
S'MCDDP'
tp945
F2
s(S'CP'
S'CDADVPP'
tp946
F14
s(g373
S'VNP'
tp947
F408
s(S'VP'
S'VANP'
tp948
F38
s(g266
S'VADVAP'
tp949
F14
s(S'PP'
S'PADVADVAVP'
tp950
F1
s(S'PP'
S'PPADVNP'
tp951
F3
s(S'VP'
S'VVVAP'
tp952
F1
s(S'DP'
S'DDDDVP'
tp953
F2
s(g31
S'NADVPPP'
tp954
F1
s.