ccollections
defaultdict
p1
(c__builtin__
float
p2
tRp3
(S'MP'
S'MMDP'
tp4
F1
s(S'CP'
S'CAAADPP'
tp5
F1
s(S'PP'
S'PAAANP'
tp6
F5
s(S'DP'
p7
S'ADDPP'
tp8
F5
s(S'DP'
S'DDAP'
tp9
F3
s(S'VP'
p10
S'ADVVVNP'
tp11
F4
s(S'VP'
S'VVVVP'
tp12
F1
s(S'NP'
S'NADDP'
tp13
F1
s(S'AP'
S'AVVVP'
tp14
F1
s(S'PP'
S'PAPP'
tp15
F8
s(S'PP'
S'PADVNP'
tp16
F25
s(S'DP'
S'DNP'
tp17
F485
s(S'MP'
S'MVVAAP'
tp18
F1
s(S'NP'
S'ADVNDP'
tp19
F3
s(S'VP'
S'ADVVNNP'
tp20
F4
s(S'PP'
S'APPNNNP'
tp21
F1
s(S'CP'
S'CDPPP'
tp22
F108
s(S'DP'
S'ADVADVADPPP'
tp23
F1
s(S'VP'
S'VADP'
tp24
F17
s(S'DP'
S'DNNNNP'
tp25
F3
s(S'CP'
S'CDAAPPP'
tp26
F2
s(S'NP'
p27
S'ADVNCCP'
tp28
F3
s(S'VP'
S'AAVPPP'
tp29
F1
s(S'PP'
p30
S'PPPPPP'
tp31
F2
s(S'VP'
S'VAVP'
tp32
F2
s(S'PP'
S'APPDP'
tp33
F1
s(S'DP'
p34
S'DAADP'
tp35
F4
s(S'DP'
S'ADNNP'
tp36
F2
s(S'VP'
S'AVADVDP'
tp37
F1
s(S'VP'
S'VADVVVP'
tp38
F1
s(S'PP'
S'ADVPPPP'
tp39
F1
s(S'MP'
S'MDVP'
tp40
F2
s(S'VP'
p41
S'ADVVNP'
tp42
F25
s(S'MP'
S'MADVNMP'
tp43
F1
s(S'MP'
p44
S'MVDP'
tp45
F52
s(S'CP'
S'AAACCDP'
tp46
F2
s(S'PP'
p47
S'PPPP'
tp48
F48
s(S'DP'
p49
S'DDDNP'
tp50
F9
s(S'VP'
p51
S'VACP'
tp52
F9
s(S'AP'
S'AAAVP'
tp53
F3
s(S'PP'
p54
S'PPAAP'
tp55
F2
s(S'DP'
S'DADVVP'
tp56
F7
s(S'MP'
S'MMCP'
tp57
F1
s(S'PP'
S'PADVNNP'
tp58
F1
s(S'AP'
S'AADVPP'
tp59
F2
s(S'NP'
S'NADVACP'
tp60
F1
s(S'NP'
p61
S'NADVVVP'
tp62
F8
s(S'CP'
S'CADVADVDDPP'
tp63
F3
s(g51
S'VCP'
tp64
F265
s(S'NP'
S'NMMP'
tp65
F13
s(S'VP'
S'ADVVAAP'
tp66
F1
s(S'VP'
S'ADVVCCP'
tp67
F1
s(S'PP'
p68
S'PAP'
tp69
F221
s(S'NP'
p70
S'ADVADVADVNNMP'
tp71
F1
s(S'DP'
S'DDDADVPP'
tp72
F1
s(S'VP'
S'VADVADVAP'
tp73
F2
s(S'AP'
S'ADVAADVVP'
tp74
F1
s(S'PP'
p75
S'ADVPPVP'
tp76
F2
s(S'NP'
S'NNNAP'
tp77
F1
s(g47
S'APVVP'
tp78
F3
s(S'PP'
S'ADVADVADVPPAANP'
tp79
F1
s(S'MP'
S'MDNNNNP'
tp80
F1
s(S'CP'
p81
S'CADPPPP'
tp82
F1
s(S'PP'
p83
S'PNP'
tp84
F589
s(S'VP'
S'VVADVADVNP'
tp85
F2
s(S'DP'
p86
S'DDP'
tp87
F103
s(S'VP'
S'ADVVDDP'
tp88
F1
s(S'NP'
p89
S'NNNPP'
tp90
F6
s(S'VP'
p91
S'VCCP'
tp92
F18
s(S'MP'
S'MCDP'
tp93
F15
s(S'CP'
S'AACCDP'
tp94
F1
s(S'DP'
p95
S'DDAANP'
tp96
F2
s(S'MP'
S'MNAP'
tp97
F1
s(S'VP'
S'VVMMP'
tp98
F1
s(S'NP'
p99
S'NMP'
tp100
F216
s(S'NP'
S'ADVADVNAP'
tp101
F1
s(S'MP'
S'MMMDDP'
tp102
F1
s(S'MP'
S'MAAADVPP'
tp103
F1
s(S'VP'
S'AAVNP'
tp104
F2
s(S'VP'
S'VMMP'
tp105
F3
s(S'PP'
S'PDP'
tp106
F449
s(S'VP'
S'VAMP'
tp107
F1
s(S'NP'
p108
S'ADVNVVP'
tp109
F2
s(S'VP'
S'VNNNNP'
tp110
F2
s(S'NP'
S'AANADVAP'
tp111
F1
s(S'NP'
S'NNADVMP'
tp112
F1
s(S'DP'
S'ADVADVDAPP'
tp113
F1
s(S'NP'
S'NACCP'
tp114
F3
s(S'AP'
S'ANP'
tp115
F4
s(S'PP'
S'ADVPAAP'
tp116
F1
s(S'PP'
p117
S'APAAVVVP'
tp118
F1
s(S'PP'
S'PADVPP'
tp119
F1
s(S'MP'
S'MVADVANP'
tp120
F1
s(S'NP'
p121
S'NNADVCP'
tp122
F1
s(S'VP'
S'VVADVNP'
tp123
F2
s(S'NP'
S'ADVANCP'
tp124
F2
s(S'PP'
S'AAPPPP'
tp125
F1
s(S'DP'
S'DPPPP'
tp126
F12
s(S'DP'
S'DDANP'
tp127
F5
s(S'PP'
S'PADVADP'
tp128
F1
s(g27
S'NACP'
tp129
F29
s(S'AP'
S'ADVAVP'
tp130
F3
s(g99
S'NCCP'
tp131
F108
s(S'VP'
S'AVADVNP'
tp132
F1
s(S'AP'
S'AAAADP'
tp133
F2
s(S'VP'
S'VVVVVP'
tp134
F1
s(S'NP'
S'NNCP'
tp135
F129
s(S'DP'
p136
S'ADVDDPP'
tp137
F5
s(S'NP'
S'NADVADVVP'
tp138
F3
s(S'NP'
S'NNPPPP'
tp139
F1
s(S'DP'
S'DDDDP'
tp140
F3
s(S'MP'
S'MAAADP'
tp141
F1
s(S'VP'
p142
S'AVNP'
tp143
F14
s(S'VP'
S'VVADP'
tp144
F4
s(S'NP'
S'ADVNDDP'
tp145
F1
s(S'NP'
S'NADVADVPP'
tp146
F1
s(S'PP'
S'PADVADVANP'
tp147
F1
s(S'VP'
p148
S'VVNNNP'
tp149
F3
s(S'DP'
S'ADADVNP'
tp150
F1
s(S'PP'
S'ADVAPDP'
tp151
F1
s(g68
S'APNP'
tp152
F36
s(S'VP'
S'VADVVP'
tp153
F1
s(S'CP'
p154
S'ACCDDP'
tp155
F2
s(S'MP'
S'MVAPP'
tp156
F2
s(S'MP'
p157
S'MVPPP'
tp158
F3
s(S'NP'
S'ANADVVP'
tp159
F1
s(S'PP'
p160
S'ADVPADVDP'
tp161
F1
s(S'MP'
S'ADVADVMCCP'
tp162
F1
s(S'NP'
S'NCCCCP'
tp163
F1
s(S'CP'
p164
S'CCCDP'
tp165
F5
s(S'VP'
S'ADVVAP'
tp166
F7
s(S'PP'
p167
S'ADVPPNNP'
tp168
F2
s(S'VP'
S'VCCCP'
tp169
F1
s(g68
S'APDP'
tp170
F40
s(S'PP'
p171
S'ADVADVAPNP'
tp172
F1
s(S'NP'
S'NAAPPP'
tp173
F1
s(S'PP'
S'PPPPAAAAP'
tp174
F1
s(S'VP'
S'VADVNNP'
tp175
F1
s(S'NP'
S'ADVNPPP'
tp176
F1
s(S'PP'
S'PPPANNP'
tp177
F1
s(S'NP'
S'AANNADVCP'
tp178
F1
s(S'AP'
S'AVVVVP'
tp179
F2
s(S'NP'
S'ANNPP'
tp180
F2
s(S'PP'
S'PPADVADVVVP'
tp181
F1
s(S'VP'
S'VVANP'
tp182
F3
s(S'MP'
p183
S'ADVMPP'
tp184
F1
s(S'MP'
S'MVADVNP'
tp185
F2
s(S'VP'
S'ADVVVP'
tp186
F1
s(S'NP'
S'ADVADVNPPP'
tp187
F1
s(S'DP'
S'DADVADVADVPP'
tp188
F1
s(S'AP'
S'AADVADVADVDP'
tp189
F1
s(S'CP'
S'CCCADP'
tp190
F1
s(S'MP'
S'MADVVNP'
tp191
F5
s(S'PP'
S'PAAP'
tp192
F16
s(S'MP'
S'MPNNP'
tp193
F3
s(S'NP'
S'NANP'
tp194
F4
s(S'DP'
p195
S'DNNP'
tp196
F107
s(S'CP'
S'CADVDDPP'
tp197
F4
s(S'DP'
p198
S'DPPPPP'
tp199
F4
s(S'CP'
S'CDDPPPP'
tp200
F2
s(S'CP'
p201
S'CCADVDP'
tp202
F5
s(S'AP'
S'ADVADVANNP'
tp203
F1
s(S'DP'
S'ADDNP'
tp204
F1
s(S'NP'
S'NNNVP'
tp205
F11
s(S'VP'
S'VDP'
tp206
F454
s(g75
S'AAPPDP'
tp207
F2
s(g83
S'PPNNNNP'
tp208
F1
s(S'PP'
S'PADVVP'
tp209
F10
s(S'DP'
S'DACP'
tp210
F1
s(S'DP'
S'DADVADVADVPPP'
tp211
F2
s(S'MP'
S'MVVDDP'
tp212
F1
s(S'PP'
S'PADVADVADVAP'
tp213
F1
s(S'PP'
p214
S'APAP'
tp215
F8
s(S'AP'
p216
S'APP'
tp217
F72
s(S'NP'
S'NADVMP'
tp218
F3
s(S'AP'
S'AAP'
tp219
F23
s(S'VP'
p220
S'VADVADVVP'
tp221
F3
s(g10
S'VVAPP'
tp222
F1
s(S'NP'
S'ADVANPP'
tp223
F1
s(g220
S'ADVADVVMP'
tp224
F1
s(S'DP'
S'DAAVP'
tp225
F3
s(S'CP'
S'CDDDDPP'
tp226
F2
s(S'MP'
S'MPVP'
tp227
F1
s(S'NP'
S'NAAACP'
tp228
F1
s(S'PP'
S'PAANP'
tp229
F16
s(S'VP'
S'VADVADVCP'
tp230
F1
s(S'PP'
p231
S'PPVVP'
tp232
F8
s(S'VP'
S'VAACP'
tp233
F2
s(S'MP'
S'MVNP'
tp234
F81
s(S'MP'
S'AMVP'
tp235
F2
s(S'MP'
S'MNDP'
tp236
F3
s(g216
S'ADVAADP'
tp237
F3
s(S'DP'
S'ADVADNP'
tp238
F1
s(S'PP'
p239
S'PAVP'
tp240
F23
s(S'VP'
S'AAVVVCCP'
tp241
F1
s(S'MP'
S'ADVMVP'
tp242
F4
s(S'PP'
S'ADVAPNNP'
tp243
F1
s(S'VP'
S'ADVVMP'
tp244
F2
s(S'CP'
S'CADVADVADPP'
tp245
F4
s(g164
S'ADVCADP'
tp246
F1
s(S'CP'
S'CADVADVDPP'
tp247
F1
s(S'MP'
S'MADVVPP'
tp248
F2
s(g195
S'DADP'
tp249
F10
s(S'VP'
S'VVAANP'
tp250
F1
s(S'AP'
S'ADVADP'
tp251
F10
s(S'CP'
S'ADVADVCDP'
tp252
F1
s(S'VP'
S'AAAVADVVVP'
tp253
F1
s(S'MP'
S'MDPP'
tp254
F1
s(S'DP'
S'ADVDDP'
tp255
F1
s(g68
S'APDDP'
tp256
F6
s(S'VP'
S'ADVADVVVNP'
tp257
F1
s(S'DP'
S'DAAAVP'
tp258
F2
s(g214
S'PPCP'
tp259
F2
s(g231
S'APVP'
tp260
F19
s(S'MP'
S'MNCP'
tp261
F5
s(g51
S'VVNP'
tp262
F70
s(S'PP'
S'PPPNNP'
tp263
F3
s(S'NP'
p264
S'AANADVCP'
tp265
F1
s(S'PP'
S'PPVP'
tp266
F43
s(S'MP'
S'MPCP'
tp267
F1
s(S'VP'
p268
S'VADVDP'
tp269
F8
s(S'MP'
S'MPADP'
tp270
F1
s(S'VP'
S'VAAP'
tp271
F32
s(g27
S'ANDP'
tp272
F13
s(S'NP'
p273
S'NVVP'
tp274
F96
s(g171
S'AAPVP'
tp275
F2
s(S'PP'
S'PPADP'
tp276
F3
s(g91
S'VMP'
tp277
F40
s(S'AP'
S'ADVADVADVACP'
tp278
F1
s(S'VP'
S'VVNNP'
tp279
F8
s(S'CP'
S'CDAPP'
tp280
F45
s(S'VP'
p281
S'VVAAP'
tp282
F8
s(S'DP'
S'DDDDVVVP'
tp283
F1
s(S'CP'
S'CADVADPP'
tp284
F2
s(S'DP'
p285
S'ADNP'
tp286
F21
s(S'PP'
p287
S'PPADVMP'
tp288
F1
s(S'DP'
S'DDDAAPP'
tp289
F1
s(S'PP'
p290
S'PADP'
tp291
F22
s(S'DP'
S'DDAAAPP'
tp292
F1
s(S'VP'
S'ADVVVCP'
tp293
F1
s(S'NP'
S'ANDDP'
tp294
F3
s(S'DP'
S'ADVADVDVP'
tp295
F2
s(S'DP'
S'DADVAP'
tp296
F2
s(S'NP'
S'NNNCP'
tp297
F17
s(g195
S'DAPP'
tp298
F72
s(S'VP'
S'AVVP'
tp299
F3
s(S'MP'
S'MVVCP'
tp300
F2
s(S'VP'
S'VADVADVNP'
tp301
F1
s(S'VP'
S'ADVADVADVVDP'
tp302
F1
s(S'VP'
S'VVANNP'
tp303
F3
s(S'VP'
S'ADVADVVDP'
tp304
F3
s(S'VP'
S'AVVNP'
tp305
F1
s(S'PP'
S'PPPDP'
tp306
F3
s(S'DP'
S'DAAPPP'
tp307
F2
s(S'PP'
S'AAPADVPPP'
tp308
F1
s(S'PP'
S'AAAPDP'
tp309
F1
s(S'MP'
p310
S'MVVAP'
tp311
F1
s(S'MP'
S'MMAAP'
tp312
F1
s(S'DP'
S'DAAANP'
tp313
F1
s(S'DP'
p314
S'DADVANP'
tp315
F3
s(S'CP'
S'CADVADVADPPP'
tp316
F1
s(S'DP'
S'ADVDNP'
tp317
F6
s(S'VP'
p318
S'VVPP'
tp319
F23
s(S'DP'
S'ADADVPP'
tp320
F1
s(S'CP'
S'AACDDP'
tp321
F2
s(g310
S'MVPP'
tp322
F26
s(g86
S'ADVP'
tp323
F21
s(g49
S'DDAAPP'
tp324
F2
s(S'MP'
S'ADVMVVP'
tp325
F2
s(S'NP'
S'NNPP'
tp326
F52
s(S'NP'
S'AAANDP'
tp327
F1
s(S'DP'
S'DDDDNP'
tp328
F1
s(S'MP'
p329
S'MVVDP'
tp330
F3
s(S'DP'
S'DADVPPP'
tp331
F4
s(g47
S'PPADVAAP'
tp332
F1
s(g27
S'ANVP'
tp333
F39
s(S'DP'
S'DNNNP'
tp334
F7
s(S'DP'
S'ADVDDVP'
tp335
F1
s(S'PP'
S'PADVADVVP'
tp336
F1
s(S'VP'
S'VADVDDP'
tp337
F1
s(S'PP'
S'PMMP'
tp338
F3
s(S'PP'
S'PVVVP'
tp339
F2
s(g171
S'PMP'
tp340
F30
s(S'NP'
S'NNMMP'
tp341
F3
s(S'DP'
S'ADVADVDPP'
tp342
F1
s(S'CP'
p343
S'CCDP'
tp344
F137
s(S'NP'
S'ANNDP'
tp345
F1
s(S'MP'
S'MADVADVADP'
tp346
F2
s(S'VP'
p347
S'VAAVP'
tp348
F1
s(S'PP'
S'PPNNNP'
tp349
F3
s(S'VP'
S'VVVVMP'
tp350
F1
s(S'DP'
S'AADDPP'
tp351
F4
s(S'DP'
S'ADVDADVNNNP'
tp352
F1
s(S'NP'
S'NVVVP'
tp353
F12
s(S'CP'
S'CDDDPP'
tp354
F19
s(S'CP'
p355
S'CDAAPP'
tp356
F8
s(S'VP'
S'VVVDP'
tp357
F6
s(S'PP'
S'PDDDDP'
tp358
F1
s(S'PP'
S'PNNNP'
tp359
F11
s(S'CP'
S'CCCCDP'
tp360
F1
s(S'VP'
p361
S'VADVADVADVDDP'
tp362
F1
s(S'DP'
S'ADVADVADVADPP'
tp363
F1
s(S'PP'
p364
S'PADVADVADVNNP'
tp365
F1
s(S'AP'
S'AACCP'
tp366
F3
s(S'PP'
p367
S'AAPNP'
tp368
F8
s(S'CP'
S'CADADVPP'
tp369
F1
s(S'VP'
p370
S'ADVVVDP'
tp371
F5
s(g68
S'PPP'
tp372
F178
s(S'NP'
S'NNANP'
tp373
F1
s(S'NP'
p374
S'NAVP'
tp375
F26
s(g239
S'PADVAP'
tp376
F5
s(S'DP'
S'DDNNNP'
tp377
F2
s(S'VP'
S'VVVVCCP'
tp378
F1
s(S'PP'
S'PADDP'
tp379
F1
s(S'DP'
S'ADVDVP'
tp380
F8
s(S'PP'
S'PPADVADVNP'
tp381
F1
s(S'NP'
S'NAAAP'
tp382
F1
s(S'PP'
S'PPAAVVP'
tp383
F1
s(S'NP'
p384
S'NCCCP'
tp385
F5
s(S'CP'
S'CCADVADVADVDP'
tp386
F1
s(S'VP'
S'VVVVPP'
tp387
F3
s(S'DP'
S'ADVADVDNP'
tp388
F1
s(g148
S'VAAAAP'
tp389
F1
s(g51
S'VPP'
tp390
F234
s(S'CP'
S'CADVDAPP'
tp391
F1
s(S'CP'
S'ACCDP'
tp392
F2
s(S'DP'
p393
S'ADVDDNP'
tp394
F1
s(S'DP'
S'DDADVDP'
tp395
F1
s(S'PP'
S'PADVDP'
tp396
F9
s(S'CP'
S'CDADVAPP'
tp397
F1
s(S'CP'
S'CDDDPPP'
tp398
F1
s(S'DP'
S'DANNP'
tp399
F1
s(S'CP'
S'CDDPP'
tp400
F108
s(S'DP'
p401
S'DAAPP'
tp402
F16
s(g290
S'PVVP'
tp403
F40
s(S'CP'
S'CADPPP'
tp404
F4
s(S'AP'
S'AACP'
tp405
F14
s(g70
S'NADVMMP'
tp406
F1
s(S'MP'
S'MAVCP'
tp407
F1
s(S'VP'
S'ADVVCP'
tp408
F11
s(S'VP'
S'VPPP'
tp409
F27
s(S'DP'
S'DVVP'
tp410
F66
s(S'VP'
S'VVPPP'
tp411
F4
s(S'NP'
S'ADVNAMP'
tp412
F1
s(g231
S'PPAP'
tp413
F17
s(g201
S'CDADVADVAPP'
tp414
F1
s(S'CP'
S'CADVADVDAPP'
tp415
F1
s(S'PP'
S'ADVADVADVPPPP'
tp416
F1
s(S'CP'
S'CDDAAPP'
tp417
F1
s(S'NP'
p418
S'ANMP'
tp419
F7
s(S'NP'
S'NNAAACCP'
tp420
F1
s(S'AP'
S'APPP'
tp421
F8
s(S'PP'
S'ADVPPP'
tp422
F5
s(S'NP'
S'ADVADVNVP'
tp423
F5
s(g370
S'VVVP'
tp424
F11
s(S'CP'
S'CADVDPP'
tp425
F32
s(S'VP'
S'ADVVVAANP'
tp426
F1
s(S'VP'
p427
S'AVMP'
tp428
F3
s(S'NP'
S'ANCP'
tp429
F60
s(g401
S'DCP'
tp430
F38
s(S'NP'
p431
S'ANNCP'
tp432
F1
s(S'NP'
S'AAANCP'
tp433
F3
s(S'NP'
S'NNVVVVP'
tp434
F1
s(g401
S'DDDP'
tp435
F21
s(S'DP'
S'DDADVPP'
tp436
F3
s(S'NP'
S'NNADP'
tp437
F1
s(S'MP'
S'MAADP'
tp438
F1
s(g418
S'ANVVP'
tp439
F6
s(S'DP'
S'ADDNNP'
tp440
F1
s(g142
S'VVDP'
tp441
F64
s(g99
S'NPPP'
tp442
F31
s(g68
S'PPAPP'
tp443
F1
s(S'VP'
S'ADVVNNNP'
tp444
F1
s(S'MP'
S'AMVVP'
tp445
F1
s(g195
S'DAVP'
tp446
F31
s(S'NP'
S'ADVANADVADVVP'
tp447
F1
s(S'NP'
p448
S'NNNMP'
tp449
F4
s(S'NP'
S'NNNNMP'
tp450
F1
s(S'AP'
p451
S'ACP'
tp452
F84
s(S'PP'
S'PADVADVNNP'
tp453
F2
s(S'PP'
S'PPNP'
tp454
F90
s(S'AP'
S'ADVACCP'
tp455
F1
s(S'DP'
p456
S'ADVDAPP'
tp457
F3
s(S'MP'
S'AMAP'
tp458
F1
s(S'DP'
p459
S'AADVP'
tp460
F3
s(S'VP'
S'VAANNP'
tp461
F1
s(S'CP'
S'CDDADVPP'
tp462
F1
s(S'MP'
S'MAANVP'
tp463
F1
s(S'AP'
p464
S'ADP'
tp465
F506
s(S'NP'
S'AAAANMP'
tp466
F1
s(g314
S'DDAVP'
tp467
F3
s(S'NP'
S'ANPPP'
tp468
F1
s(S'NP'
S'ADVANCCP'
tp469
F1
s(S'DP'
S'DMP'
tp470
F10
s(S'DP'
S'AADNNP'
tp471
F1
s(S'VP'
S'VAAANP'
tp472
F1
s(g157
S'MADDP'
tp473
F2
s(S'PP'
S'APPAP'
tp474
F1
s(S'VP'
S'AAAVDP'
tp475
F2
s(S'NP'
S'NAAAVP'
tp476
F1
s(g183
S'MMNNP'
tp477
F1
s(g142
S'AVDP'
tp478
F38
s(S'NP'
S'ANNVP'
tp479
F2
s(S'VP'
p480
S'VVAP'
tp481
F24
s(S'NP'
S'NNAPP'
tp482
F2
s(g329
S'MNADVVP'
tp483
F2
s(S'MP'
S'MPPDDP'
tp484
F1
s(S'CP'
S'CDDDAPP'
tp485
F1
s(S'CP'
S'ADVACDP'
tp486
F1
s(S'PP'
S'PAAAANP'
tp487
F1
s(S'VP'
S'AAVNNP'
tp488
F1
s(S'NP'
p489
S'NPP'
tp490
F378
s(S'NP'
S'NNNP'
tp491
F1
s(g489
S'NVP'
tp492
F549
s(S'NP'
p493
S'NNDDDP'
tp494
F2
s(S'PP'
p495
S'PAAVP'
tp496
F2
s(S'PP'
S'AAPPNP'
tp497
F1
s(g121
S'NAAPP'
tp498
F1
s(g30
S'PPPPVP'
tp499
F2
s(S'MP'
S'ADVMMVP'
tp500
F2
s(S'VP'
S'VDDP'
tp501
F52
s(S'VP'
S'ADVVADVAP'
tp502
F2
s(S'NP'
S'ADVADVNACP'
tp503
F2
s(g49
S'DADVADVPP'
tp504
F5
s(S'NP'
S'NNNNDP'
tp505
F1
s(S'DP'
S'DADVAPP'
tp506
F3
s(S'PP'
S'ADVAPAP'
tp507
F1
s(S'PP'
S'AAAPNNP'
tp508
F1
s(g27
S'ANPP'
tp509
F49
s(g239
S'PPPPP'
tp510
F6
s(g157
S'MPDP'
tp511
F5
s(S'DP'
S'DDADVPPP'
tp512
F1
s(S'PP'
p513
S'PPPNP'
tp514
F4
s(S'PP'
S'PPVVVVP'
tp515
F1
s(S'DP'
p516
S'ADVADDDP'
tp517
F1
s(S'NP'
S'NPPPP'
tp518
F3
s(g516
S'ADDP'
tp519
F3
s(S'CP'
S'CDDDADVPP'
tp520
F1
s(S'CP'
S'CAADPP'
tp521
F23
s(g108
S'NAACP'
tp522
F3
s(g239
S'PNNP'
tp523
F107
s(S'CP'
S'CDADVADVADVPPP'
tp524
F1
s(S'PP'
S'APNNP'
tp525
F2
s(S'DP'
p526
S'DDAAP'
tp527
F1
s(g198
S'ADVADVDDDP'
tp528
F1
s(S'MP'
S'MMNP'
tp529
F5
s(S'NP'
S'ADVNACP'
tp530
F1
s(g95
S'AAADPP'
tp531
F1
s(S'AP'
S'AANNP'
tp532
F1
s(S'VP'
S'AVAP'
tp533
F3
s(S'MP'
S'MMVP'
tp534
F16
s(S'NP'
p535
S'ADVNCP'
tp536
F12
s(g195
S'ADPP'
tp537
F81
s(S'MP'
S'MPDDP'
tp538
F1
s(g343
S'ACDP'
tp539
F43
s(g27
S'NNDP'
tp540
F26
s(S'AP'
S'ADVANP'
tp541
F5
s(g273
S'NNACP'
tp542
F5
s(S'MP'
S'MDNNP'
tp543
F1
s(S'CP'
S'CDADVPPP'
tp544
F3
s(g41
S'VAP'
tp545
F231
s(S'VP'
S'VVVVNP'
tp546
F1
s(S'MP'
S'MNVVP'
tp547
F3
s(g314
S'DDDPP'
tp548
F25
s(S'NP'
S'AANNCP'
tp549
F1
s(S'PP'
S'PPAADDP'
tp550
F1
s(S'VP'
p551
S'VADVMP'
tp552
F1
s(g513
S'PAAPP'
tp553
F2
s(S'MP'
S'MADVVVNP'
tp554
F1
s(S'AP'
S'AAVVP'
tp555
F2
s(S'MP'
p556
S'MNMP'
tp557
F2
s(S'MP'
S'MAVPP'
tp558
F3
s(S'DP'
S'DDDPPP'
tp559
F4
s(S'DP'
S'DADVDP'
tp560
F1
s(S'DP'
p561
S'ADVADVADNP'
tp562
F1
s(S'PP'
S'PADVADVADP'
tp563
F1
s(S'AP'
S'AAACP'
tp564
F4
s(g285
S'ADADVVP'
tp565
F1
s(g374
S'NAAP'
tp566
F25
s(S'PP'
p567
S'PPPVP'
tp568
F5
s(S'VP'
S'AAVAP'
tp569
F1
s(g451
S'AADDP'
tp570
F5
s(S'VP'
S'VAANP'
tp571
F9
s(S'DP'
S'ADVADVDAAPP'
tp572
F1
s(S'DP'
S'ADVADVADVDVP'
tp573
F1
s(S'NP'
S'NVVVVP'
tp574
F2
s(S'MP'
S'MPNP'
tp575
F7
s(S'MP'
S'MADP'
tp576
F14
s(S'AP'
S'AMMP'
tp577
F2
s(g81
S'CCAADP'
tp578
F1
s(S'DP'
p579
S'DDADVNP'
tp580
F1
s(g68
S'PANP'
tp581
F64
s(S'DP'
S'AADNP'
tp582
F3
s(S'CP'
S'CCCDDDDP'
tp583
F1
s(g526
S'ADVADPP'
tp584
F2
s(S'AP'
S'AAVP'
tp585
F5
s(S'AP'
S'AVVP'
tp586
F6
s(S'NP'
S'NDDP'
tp587
F15
s(S'AP'
S'ACCP'
tp588
F10
s(S'VP'
S'VVVVAP'
tp589
F1
s(S'NP'
p590
S'NDP'
tp591
F192
s(S'NP'
S'NNNNVVP'
tp592
F1
s(S'AP'
S'AADVADVDP'
tp593
F3
s(S'VP'
S'VVVADVAP'
tp594
F1
s(S'MP'
S'MVAAP'
tp595
F3
s(g285
S'DDVP'
tp596
F63
s(S'MP'
S'MMADVVVP'
tp597
F1
s(S'NP'
S'AANVP'
tp598
F12
s(g68
S'PPADVANP'
tp599
F2
s(S'VP'
S'ADVVVNNP'
tp600
F1
s(S'DP'
S'DADVADVAPP'
tp601
F1
s(g91
S'VNNNP'
tp602
F6
s(S'PP'
p603
S'ADVPAP'
tp604
F4
s(S'NP'
p605
S'AAANVP'
tp606
F1
s(S'PP'
S'APADVDP'
tp607
F1
s(g603
S'PCP'
tp608
F29
s(S'NP'
p609
S'NNPPP'
tp610
F6
s(S'VP'
S'VAACCP'
tp611
F1
s(S'PP'
S'PAADP'
tp612
F4
s(g609
S'ADVNNVP'
tp613
F2
s(S'MP'
S'MADVADVVCP'
tp614
F1
s(S'VP'
S'ADVAVCP'
tp615
F1
s(S'PP'
S'PACP'
tp616
F3
s(S'MP'
S'MPAP'
tp617
F2
s(S'AP'
S'AADVAP'
tp618
F1
s(S'NP'
S'NNNDP'
tp619
F5
s(g556
S'MCAAADP'
tp620
F1
s(S'AP'
S'ADVACP'
tp621
F4
s(g493
S'NNAACP'
tp622
F1
s(S'DP'
S'DDADVVP'
tp623
F2
s(S'VP'
S'ADVADVAVDP'
tp624
F1
s(g27
S'NNVP'
tp625
F92
s(S'MP'
S'MVCP'
tp626
F24
s(S'PP'
S'PADVANP'
tp627
F1
s(S'CP'
S'CCDDP'
tp628
F29
s(S'NP'
S'NNADVVP'
tp629
F8
s(S'PP'
S'PPADVADVVP'
tp630
F1
s(S'VP'
S'ADVADVADVVPP'
tp631
F1
s(S'DP'
S'DDADP'
tp632
F3
s(S'DP'
S'ADVADVDAANP'
tp633
F1
s(S'AP'
S'AAAAVVVP'
tp634
F1
s(g431
S'ADVANAP'
tp635
F1
s(g393
S'ADADVPPP'
tp636
F1
s(S'NP'
S'NNVVP'
tp637
F16
s(S'NP'
S'NAAMP'
tp638
F1
s(S'NP'
S'NNNNVP'
tp639
F2
s(S'VP'
S'VVCP'
tp640
F40
s(S'PP'
p641
S'PADVADVPP'
tp642
F1
s(g609
S'AANCP'
tp643
F10
s(S'VP'
S'VADVNP'
tp644
F8
s(S'PP'
S'PPPAPP'
tp645
F1
s(S'AP'
S'AADVCP'
tp646
F1
s(S'AP'
S'ADVAVVP'
tp647
F1
s(g231
S'APPP'
tp648
F8
s(S'CP'
S'CADVADPPPP'
tp649
F1
s(S'CP'
S'CADVADVADVADPP'
tp650
F1
s(S'DP'
S'DDDDPPP'
tp651
F1
s(S'MP'
S'MNNPP'
tp652
F2
s(S'VP'
S'ADVVPP'
tp653
F7
s(g281
S'VNNP'
tp654
F59
s(S'AP'
S'AADVDP'
tp655
F3
s(S'VP'
S'ADVADVVVANP'
tp656
F1
s(g374
S'NADP'
tp657
F4
s(S'NP'
S'ADVNNNDP'
tp658
F1
s(S'DP'
S'DDNP'
tp659
F65
s(S'CP'
S'ACADVDP'
tp660
F2
s(S'NP'
S'NADVCP'
tp661
F4
s(S'NP'
S'NNADVAP'
tp662
F2
s(g364
S'AAPPP'
tp663
F3
s(S'NP'
S'ADVANVP'
tp664
F3
s(S'AP'
S'AADVADP'
tp665
F1
s(S'NP'
S'ADVADVNCP'
tp666
F2
s(g34
S'AADPP'
tp667
F29
s(S'VP'
S'VVVAAP'
tp668
F1
s(g590
S'NNNNPP'
tp669
F4
s(S'MP'
S'MVVP'
tp670
F1
s(S'NP'
S'ADVADVANNCP'
tp671
F1
s(S'VP'
S'VAAANNP'
tp672
F1
s(S'MP'
S'MADVADVVVANP'
tp673
F1
s(g239
S'AAPDP'
tp674
F5
s(S'CP'
S'AAACDDP'
tp675
F1
s(g44
S'MVVNP'
tp676
F6
s(S'CP'
S'CDDADVPPP'
tp677
F1
s(S'VP'
S'AAVVDP'
tp678
F1
s(g561
S'ADVDNNP'
tp679
F1
s(S'CP'
S'ACDDP'
tp680
F6
s(S'NP'
S'ADVADVNNCP'
tp681
F1
s(S'AP'
S'AAPP'
tp682
F9
s(g551
S'VVCCP'
tp683
F2
s(S'CP'
S'CADVADVDAAPP'
tp684
F1
s(S'NP'
S'ADVNANP'
tp685
F1
s(g136
S'DADVVVP'
tp686
F2
s(S'NP'
S'NNCCCP'
tp687
F2
s(S'DP'
S'DAAAPP'
tp688
F3
s(S'PP'
S'ADVPANP'
tp689
F1
s(S'AP'
S'ADVANNP'
tp690
F2
s(g27
S'NAPP'
tp691
F21
s(S'AP'
S'ADVADVADP'
tp692
F3
s(S'NP'
p693
S'NADVDP'
tp694
F1
s(S'MP'
S'MVADVADVAP'
tp695
F1
s(g148
S'VVVCP'
tp696
F5
s(S'NP'
S'ANCCP'
tp697
F9
s(g374
S'AANPP'
tp698
F11
s(S'VP'
p699
S'VDDDP'
tp700
F1
s(g693
S'NNMP'
tp701
F30
s(S'DP'
S'DDDVP'
tp702
F5
s(g567
S'ADVADVPNNP'
tp703
F1
s(S'CP'
S'CADDPP'
tp704
F2
s(S'MP'
S'MAPDP'
tp705
F1
s(g290
S'PAAAP'
tp706
F8
s(S'PP'
S'PPPAP'
tp707
F2
s(S'CP'
S'CDDAPP'
tp708
F6
s(S'NP'
S'ANAP'
tp709
F8
s(S'MP'
S'MVAP'
tp710
F31
s(g68
S'PVP'
tp711
F409
s(g456
S'DADVAVP'
tp712
F1
s(S'CP'
S'CCCDDP'
tp713
F2
s(S'AP'
S'ADVADVAPP'
tp714
F1
s(S'MP'
S'AAMVP'
tp715
F1
s(S'CP'
S'ACDDDP'
tp716
F1
s(S'AP'
S'AADVDDP'
tp717
F1
s(S'NP'
p718
S'ADVNAVP'
tp719
F1
s(S'AP'
S'AADVVP'
tp720
F1
s(S'DP'
S'DVVVP'
tp721
F5
s(g171
S'PPADVPP'
tp722
F1
s(S'NP'
S'ADVADVANVP'
tp723
F1
s(S'VP'
S'VADVMMP'
tp724
F1
s(S'PP'
S'PPDDP'
tp725
F12
s(g51
S'AVCP'
tp726
F16
s(S'PP'
S'APMP'
tp727
F1
s(S'DP'
S'DPP'
tp728
F874
s(S'DP'
S'ADVVP'
tp729
F3
s(S'NP'
S'ADVNVP'
tp730
F17
s(S'CP'
S'CDADVADVADVPP'
tp731
F1
s(g285
S'DDPP'
tp732
F165
s(g367
S'ADVADVPADP'
tp733
F1
s(S'DP'
S'DADVADVANNP'
tp734
F1
s(g195
S'DANP'
tp735
F52
s(g216
S'ADVAADVAAP'
tp736
F1
s(g535
S'NADVPP'
tp737
F8
s(S'MP'
S'MVNNNP'
tp738
F1
s(g89
S'AANADVVP'
tp739
F1
s(S'NP'
S'NAAVP'
tp740
F6
s(S'DP'
S'ADVADVADPP'
tp741
F4
s(g160
S'PAACP'
tp742
F1
s(g367
S'PDDDP'
tp743
F8
s(S'VP'
S'VADVCP'
tp744
F3
s(S'MP'
S'MADVVVDP'
tp745
F1
s(S'AP'
S'ADVADVACP'
tp746
F1
s(g718
S'ANNDDP'
tp747
F1
s(S'PP'
S'PMMMP'
tp748
F1
s(S'NP'
S'NNNNCP'
tp749
F1
s(S'MP'
S'MDNP'
tp750
F15
s(S'DP'
S'DADVADVAVP'
tp751
F1
s(S'MP'
S'MNAVP'
tp752
F2
s(S'DP'
S'ADDPPP'
tp753
F1
s(S'NP'
p754
S'NNNVVP'
tp755
F1
s(S'NP'
S'ADVNMMP'
tp756
F1
s(S'NP'
S'NAANP'
tp757
F1
s(g198
S'DCCP'
tp758
F4
s(S'NP'
S'ADVNNAVP'
tp759
F1
s(g154
S'CDPPPPP'
tp760
F2
s(S'MP'
S'MADVVDP'
tp761
F2
s(g361
S'VVVAP'
tp762
F2
s(g239
S'PDDP'
tp763
F61
s(S'AP'
S'ADVADVAPPP'
tp764
F1
s(g556
S'MVDDP'
tp765
F4
s(g75
S'PCCP'
tp766
F1
s(S'DP'
S'ADPPP'
tp767
F5
s(S'NP'
S'NADVADVVVP'
tp768
F1
s(g54
S'APAAP'
tp769
F1
s(g374
S'NNP'
tp770
F8
s(g318
S'VVDDP'
tp771
F5
s(g195
S'DAANP'
tp772
F19
s(S'DP'
S'DVVVVP'
tp773
F1
s(S'AP'
S'ADDP'
tp774
F53
s(g287
S'PNNNNP'
tp775
F1
s(g281
S'ADVVVAP'
tp776
F4
s(S'PP'
S'ADVPPNP'
tp777
F2
s(S'NP'
S'ADVADVNNMP'
tp778
F1
s(S'MP'
S'MVVADVAP'
tp779
F1
s(S'DP'
S'DPPP'
tp780
F164
s(S'NP'
S'NADVADVAAP'
tp781
F1
s(S'DP'
S'DAVVP'
tp782
F2
s(S'DP'
S'AADPPP'
tp783
F4
s(S'VP'
p784
S'VANNP'
tp785
F1
s(S'AP'
S'AAAP'
tp786
F1
s(g754
S'ANNAAP'
tp787
F1
s(S'DP'
S'DDNNP'
tp788
F9
s(S'DP'
S'DDADVADVNP'
tp789
F1
s(g171
S'ADVPNP'
tp790
F12
s(g239
S'PPDP'
tp791
F66
s(S'MP'
S'MAVDP'
tp792
F6
s(S'MP'
S'MPACP'
tp793
F1
s(S'CP'
S'CADDPPP'
tp794
F1
s(S'MP'
S'MAAAPP'
tp795
F1
s(S'PP'
S'ADVADVADVPVP'
tp796
F1
s(S'DP'
S'DDPPPP'
tp797
F3
s(S'MP'
p798
S'MAVVNP'
tp799
F1
s(S'DP'
S'DDADVANP'
tp800
F1
s(S'AP'
S'AAPPP'
tp801
F2
s(S'DP'
S'DDCP'
tp802
F1
s(S'PP'
S'ADVPAAVP'
tp803
F1
s(S'DP'
S'AADDNP'
tp804
F1
s(S'CP'
S'CCAADDP'
tp805
F1
s(S'PP'
S'PAANNP'
tp806
F1
s(g167
S'PPADVDDP'
tp807
F1
s(S'AP'
S'AAAPP'
tp808
F2
s(S'AP'
S'ADVADVAADP'
tp809
F1
s(g27
S'NAP'
tp810
F180
s(g384
S'NNAAP'
tp811
F1
s(S'MP'
S'MADVADVADVVPP'
tp812
F1
s(S'VP'
S'VDDDDP'
tp813
F2
s(S'NP'
S'NAAAPP'
tp814
F1
s(S'VP'
S'VADVANP'
tp815
F2
s(S'PP'
S'APADVADVAP'
tp816
F1
s(S'VP'
S'ADVAVNP'
tp817
F1
s(g41
S'VVP'
tp818
F70
s(S'MP'
S'ADVMNP'
tp819
F1
s(S'DP'
S'DDAPP'
tp820
F8
s(S'PP'
S'ADVADVPVP'
tp821
F3
s(S'DP'
S'ADVADVADVDDVP'
tp822
F1
s(g451
S'AAADP'
tp823
F5
s(g268
S'AVDDDP'
tp824
F1
s(S'VP'
S'VVVNNP'
tp825
F1
s(S'DP'
S'DDDAPP'
tp826
F1
s(S'DP'
S'DDVVP'
tp827
F4
s(S'NP'
S'ANADVVVP'
tp828
F1
s(S'VP'
S'VVVNP'
tp829
F7
s(S'MP'
S'MNPP'
tp830
F3
s(S'DP'
S'ADVADVADVDPPP'
tp831
F1
s(S'CP'
S'CDDAAAPP'
tp832
F1
s(S'NP'
S'NAMP'
tp833
F2
s(S'MP'
S'MVANP'
tp834
F2
s(S'DP'
S'ADVADVDDPP'
tp835
F3
s(S'MP'
S'MVNNP'
tp836
F5
s(S'AP'
S'AAADVPP'
tp837
F1
s(S'CP'
S'CDPP'
tp838
F764
s(S'MP'
S'MADVADVVANP'
tp839
F1
s(S'MP'
S'MVVNNP'
tp840
F1
s(S'AP'
S'ADDDP'
tp841
F5
s(S'NP'
S'NNADVADVVVP'
tp842
F1
s(g34
S'ADVDVVP'
tp843
F1
s(S'CP'
S'ADVCDP'
tp844
F10
s(S'AP'
S'ADVAAP'
tp845
F3
s(g699
S'ADVADVVNP'
tp846
F5
s(S'NP'
S'NNNNPPP'
tp847
F1
s(S'PP'
S'AAAPVVP'
tp848
F1
s(S'VP'
S'ADVADVVCP'
tp849
F3
s(S'VP'
S'VADVADVDP'
tp850
F1
s(S'PP'
S'PPNNP'
tp851
F17
s(S'NP'
S'AAANNVP'
tp852
F1
s(S'MP'
S'MPPNP'
tp853
F1
s(g75
S'PPMP'
tp854
F3
s(S'CP'
S'CDDDAAPP'
tp855
F1
s(S'CP'
S'CAADDPP'
tp856
F3
s(S'VP'
S'VVMP'
tp857
F3
s(S'VP'
S'VAADP'
tp858
F3
s(S'NP'
S'NADVAP'
tp859
F2
s(g195
S'DADVNP'
tp860
F12
s(g195
S'DAP'
tp861
F44
s(S'MP'
S'MCADP'
tp862
F1
s(g343
S'CADPP'
tp863
F51
s(S'DP'
S'ADVADVDVVP'
tp864
F1
s(S'NP'
p865
S'NADVAVP'
tp866
F1
s(S'PP'
S'PADVMP'
tp867
F1
s(S'PP'
S'PPADVADVANP'
tp868
F1
s(S'VP'
S'VAAAPP'
tp869
F1
s(S'PP'
S'PPDDDP'
tp870
F1
s(S'VP'
S'AVPP'
tp871
F14
s(S'NP'
S'NADVADVMP'
tp872
F1
s(S'CP'
S'CAADPPP'
tp873
F2
s(S'DP'
S'DDNNNNP'
tp874
F1
s(S'MP'
S'AMNP'
tp875
F1
s(S'VP'
S'VVADVDP'
tp876
F1
s(S'CP'
S'CDPPPP'
tp877
F7
s(g117
S'PPAADP'
tp878
F1
s(g347
S'AAVDP'
tp879
F9
s(S'VP'
S'AVVCP'
tp880
F2
s(g495
S'PANNP'
tp881
F2
s(S'NP'
S'ADVANMP'
tp882
F1
s(g784
S'VACCP'
tp883
F1
s(S'NP'
S'NNDDP'
tp884
F4
s(g579
S'ADPPPP'
tp885
F1
s(g459
S'DAPPP'
tp886
F4
s(S'AP'
S'AAADVDP'
tp887
F1
s(g448
S'AANVVP'
tp888
F1
s(S'DP'
S'ADVDPP'
tp889
F46
s(S'NP'
S'AAANPP'
tp890
F2
s(S'PP'
S'PADVADVNP'
tp891
F6
s(S'PP'
S'PPPPNP'
tp892
F1
s(S'AP'
S'AADP'
tp893
F98
s(S'NP'
S'NNNANP'
tp894
F1
s(S'DP'
S'ADVADPPPP'
tp895
F1
s(g355
S'CDDPPP'
tp896
F9
s(g603
S'ADVPVP'
tp897
F6
s(S'DP'
S'DDDDPP'
tp898
F3
s(S'DP'
S'DAAP'
tp899
F9
s(g798
S'MACDP'
tp900
F1
s(S'NP'
S'ADVADVANCP'
tp901
F1
s(S'VP'
S'ADVVANP'
tp902
F3
s(S'PP'
S'PAMP'
tp903
F1
s(g171
S'ADVPDP'
tp904
F8
s(g567
S'PPPVVP'
tp905
F2
s(S'MP'
S'MVADVAP'
tp906
F1
s(g489
S'NCP'
tp907
F600
s(S'CP'
S'CADVDPPP'
tp908
F3
s(S'VP'
S'ADVVVPP'
tp909
F1
s(g605
S'NAAANP'
tp910
F1
s(S'PP'
S'AAAPNP'
tp911
F3
s(g27
S'ADVANDP'
tp912
F1
s(g157
S'ADVMCCP'
tp913
F1
s(S'AP'
S'AADVMP'
tp914
F2
s(g865
S'NADVNP'
tp915
F1
s(S'AP'
S'AAMP'
tp916
F2
s(S'PP'
S'PPAAAP'
tp917
F1
s(g264
S'AAANCCCP'
tp918
F1
s(g27
S'AANDP'
tp919
F7
s(S'MP'
S'MVCCP'
tp920
F2
s(g49
S'DADVNNP'
tp921
F2
s(g535
S'NNCCP'
tp922
F11
s(S'MP'
S'MNVP'
tp923
F21
s(S'NP'
S'AANAP'
tp924
F4
s(S'NP'
S'AANCCP'
tp925
F3
s(S'VP'
S'VAPP'
tp926
F9
s(S'MP'
S'MAVNP'
tp927
F3
s(S'VP'
S'ADVVDP'
tp928
F14
s(g427
S'VADDP'
tp929
F1
s(S'PP'
S'APADVNP'
tp930
F1
s(S'DP'
S'DADVPP'
tp931
F21
s(S'VP'
S'VVADVAP'
tp932
F1
s(g464
S'AMP'
tp933
F17
s(S'CP'
S'CCADP'
tp934
F9
s(S'NP'
S'ADVNNCP'
tp935
F1
s(S'DP'
S'ADVDAP'
tp936
F1
s(S'NP'
S'NNNPPP'
tp937
F4
s(S'AP'
S'ADVAPP'
tp938
F7
s(g641
S'ADVADVPVVP'
tp939
F2
s(S'CP'
S'AACDP'
tp940
F5
s(g590
S'NNNCCP'
tp941
F4
s(S'CP'
S'CCDDDP'
tp942
F4
s(S'DP'
S'ADVDPPP'
tp943
F3
s(g285
S'DVP'
tp944
F468
s(S'VP'
S'AVNNP'
tp945
F2
s(S'NP'
S'ADVNPP'
tp946
F7
s(g117
S'APPPP'
tp947
F2
s(S'PP'
S'PADVADVDDP'
tp948
F1
s(g216
S'AVP'
tp949
F52
s(S'NP'
S'NADVVP'
tp950
F20
s(S'CP'
S'CDAAAPP'
tp951
F1
s(g7
S'DADDP'
tp952
F2
s(S'NP'
S'NAAACCP'
tp953
F1
s(g195
S'DDPPP'
tp954
F18
s(g61
S'ADVNMP'
tp955
F7
s(S'NP'
S'NNAP'
tp956
F31
s(S'MP'
S'MADVVCP'
tp957
F3
s(S'PP'
S'PPANP'
tp958
F7
s(S'MP'
S'MCDDP'
tp959
F1
s(g201
S'CDADVPP'
tp960
F13
s(g51
S'VNP'
tp961
F477
s(g480
S'VANP'
tp962
F32
s(S'VP'
S'VADVAP'
tp963
F16
s(S'PP'
S'PPADVNP'
tp964
F4
s(g513
S'AAPVVVP'
tp965
F1
s(S'VP'
S'ADVADVVVDP'
tp966
F1
s.