ccollections
defaultdict
p1
(c__builtin__
float
p2
tRp3
(S'CP'
S'CADVAAADPP'
tp4
F1
s(S'MP'
S'MMDP'
tp5
F1
s(S'NP'
S'AANDDP'
tp6
F1
s(S'CP'
S'CAAADPP'
tp7
F2
s(S'PP'
p8
S'PAAANP'
tp9
F2
s(S'DP'
S'ADDPP'
tp10
F5
s(S'NP'
S'ADVNNMP'
tp11
F1
s(S'DP'
S'DDAP'
tp12
F4
s(S'VP'
S'ADVVVNP'
tp13
F5
s(S'DP'
S'DAANNP'
tp14
F3
s(S'VP'
S'VVADVVP'
tp15
F2
s(S'PP'
S'PAPP'
tp16
F5
s(S'PP'
p17
S'PADVNP'
tp18
F20
s(S'DP'
p19
S'DNP'
tp20
F509
s(S'NP'
S'ADVNDP'
tp21
F1
s(S'VP'
S'ADVVNNP'
tp22
F5
s(S'CP'
p23
S'CDPPP'
tp24
F105
s(S'VP'
p25
S'VADP'
tp26
F10
s(S'DP'
S'DNNNNP'
tp27
F1
s(S'DP'
S'DAAP'
tp28
F6
s(S'PP'
S'PPPPPP'
tp29
F2
s(S'VP'
S'VAVP'
tp30
F3
s(S'PP'
S'APPDP'
tp31
F3
s(S'DP'
S'DAADP'
tp32
F1
s(S'DP'
p33
S'ADNNP'
tp34
F2
s(S'CP'
S'CCCADVADVDP'
tp35
F1
s(S'MP'
S'MDVP'
tp36
F4
s(S'PP'
S'APVP'
tp37
F14
s(S'MP'
S'MVDP'
tp38
F48
s(S'PP'
p39
S'PADVANP'
tp40
F2
s(S'PP'
p41
S'PPPP'
tp42
F35
s(S'DP'
S'DDDNP'
tp43
F8
s(S'DP'
S'DDMP'
tp44
F1
s(S'VP'
S'VACP'
tp45
F3
s(S'PP'
p46
S'PPAAP'
tp47
F3
s(S'NP'
S'AANADVADVPP'
tp48
F1
s(S'DP'
S'DADVVP'
tp49
F12
s(S'MP'
S'MMCP'
tp50
F1
s(S'NP'
S'NAAVVP'
tp51
F1
s(S'NP'
S'NDDDP'
tp52
F3
s(S'NP'
S'NCCCP'
tp53
F8
s(S'CP'
S'CADVADVDDPP'
tp54
F1
s(g25
S'VCP'
tp55
F227
s(S'MP'
S'MVVANP'
tp56
F1
s(S'NP'
S'NMMP'
tp57
F5
s(S'NP'
S'NANP'
tp58
F7
s(S'VP'
S'ADVVCCP'
tp59
F1
s(g17
S'PAP'
tp60
F178
s(S'PP'
S'PPANNP'
tp61
F1
s(S'VP'
S'VADVADVAP'
tp62
F4
s(S'NP'
p63
S'ANNCCP'
tp64
F1
s(S'PP'
S'ADVPPVP'
tp65
F1
s(S'CP'
S'CCADVADVADVADVDP'
tp66
F1
s(S'NP'
S'NNNAP'
tp67
F1
s(S'CP'
S'AAAACDP'
tp68
F1
s(S'NP'
p69
S'ANPPP'
tp70
F3
s(S'PP'
p71
S'PPADVDP'
tp72
F2
s(S'CP'
S'CADPPPP'
tp73
F1
s(S'PP'
p74
S'PNP'
tp75
F547
s(S'PP'
p76
S'PAAADP'
tp77
F2
s(g19
S'DDP'
tp78
F93
s(S'VP'
S'ADVVDDP'
tp79
F2
s(S'NP'
S'NNNPP'
tp80
F5
s(S'VP'
p81
S'VCCP'
tp82
F16
s(S'MP'
S'MCDP'
tp83
F20
s(S'CP'
S'AACCDP'
tp84
F1
s(S'CP'
S'CDDDDAPPP'
tp85
F1
s(S'MP'
S'MNAP'
tp86
F2
s(S'AP'
S'ADVADVAVVP'
tp87
F1
s(S'VP'
S'ADVADVVVCP'
tp88
F1
s(S'NP'
p89
S'NMP'
tp90
F215
s(S'PP'
S'ADVADVAPDP'
tp91
F1
s(S'CP'
S'CADVDADVPP'
tp92
F1
s(S'VP'
S'AAVNP'
tp93
F1
s(S'VP'
S'VMMP'
tp94
F3
s(g74
S'PDP'
tp95
F475
s(S'DP'
S'DDPPPPP'
tp96
F1
s(S'CP'
S'CCADVADVDP'
tp97
F2
s(S'CP'
S'CDAAPP'
tp98
F11
s(S'VP'
S'VNNNNP'
tp99
F1
s(S'MP'
S'MNNVP'
tp100
F1
s(S'MP'
S'MADVVNP'
tp101
F6
s(S'CP'
p102
S'CDADVADVPPP'
tp103
F1
s(S'DP'
S'ADVADVDAPP'
tp104
F1
s(S'AP'
S'ANP'
tp105
F1
s(S'NP'
S'NADVADVADVVP'
tp106
F1
s(S'PP'
S'PADVPP'
tp107
F2
s(S'VP'
S'AAVPP'
tp108
F1
s(S'MP'
S'MVACP'
tp109
F1
s(S'DP'
S'DPPPP'
tp110
F8
s(S'DP'
S'DDANP'
tp111
F3
s(S'NP'
S'NACP'
tp112
F9
s(S'AP'
S'ADVAVP'
tp113
F5
s(S'NP'
p114
S'NCCP'
tp115
F83
s(S'VP'
p116
S'AVADVNP'
tp117
F1
s(S'VP'
S'VVADVCP'
tp118
F1
s(S'VP'
S'VVCCCP'
tp119
F1
s(S'VP'
S'VVVVVP'
tp120
F1
s(S'NP'
p121
S'NNCP'
tp122
F107
s(S'DP'
S'ADVDDPP'
tp123
F4
s(S'NP'
S'NADVADVVP'
tp124
F8
s(g19
S'DDDDP'
tp125
F3
s(S'VP'
S'AVNP'
tp126
F12
s(S'VP'
p127
S'VVADP'
tp128
F2
s(S'NP'
S'ADVNDDP'
tp129
F1
s(S'NP'
p130
S'NADVADVPP'
tp131
F3
s(S'MP'
S'MAPP'
tp132
F1
s(S'CP'
S'AAACDDP'
tp133
F1
s(S'MP'
S'MVVNP'
tp134
F1
s(S'VP'
S'VVMP'
tp135
F9
s(S'VP'
p136
S'VADVVP'
tp137
F4
s(S'VP'
S'VVAACP'
tp138
F1
s(S'VP'
S'ADVADVADVVNP'
tp139
F1
s(S'MP'
p140
S'MVAPP'
tp141
F2
s(S'AP'
S'AAAAP'
tp142
F1
s(S'CP'
S'CCCDP'
tp143
F11
s(S'VP'
S'AVNNP'
tp144
F3
s(g116
S'VCCCP'
tp145
F3
s(S'PP'
p146
S'APDP'
tp147
F29
s(S'MP'
p148
S'MNNVVP'
tp149
F1
s(S'NP'
p150
S'NNAMP'
tp151
F1
s(S'AP'
S'AADVCP'
tp152
F1
s(S'VP'
S'VVANP'
tp153
F5
s(g148
S'ADVMPP'
tp154
F1
s(S'PP'
S'ADVPNNP'
tp155
F2
s(S'VP'
S'ADVVVP'
tp156
F2
s(S'AP'
S'AADVADVDDP'
tp157
F1
s(S'AP'
S'AANP'
tp158
F2
s(S'NP'
S'ADVNCCP'
tp159
F4
s(S'DP'
S'ADVADNNP'
tp160
F1
s(S'MP'
p161
S'MPNNP'
tp162
F1
s(S'NP'
S'ADVANCP'
tp163
F4
s(g19
S'DNNP'
tp164
F81
s(S'CP'
S'CADVDDPP'
tp165
F3
s(S'DP'
S'DPPPPP'
tp166
F3
s(S'CP'
S'CCADVDP'
tp167
F4
s(S'AP'
S'ADVADVANNP'
tp168
F1
s(S'VP'
S'VVACP'
tp169
F1
s(S'NP'
p170
S'AAANAP'
tp171
F1
s(S'DP'
p172
S'ADDNP'
tp173
F1
s(S'NP'
p174
S'NNNVP'
tp175
F8
s(S'VP'
S'VADVNNP'
tp176
F1
s(S'NP'
S'NNAAAACP'
tp177
F1
s(S'PP'
S'PADVVP'
tp178
F13
s(S'PP'
S'APAP'
tp179
F5
s(S'AP'
p180
S'APP'
tp181
F68
s(S'NP'
p182
S'NADVMP'
tp183
F2
s(S'AP'
S'AAP'
tp184
F13
s(S'VP'
S'VADVADVVP'
tp185
F1
s(S'CP'
S'CADVADPP'
tp186
F2
s(S'DP'
S'DADVADVNP'
tp187
F1
s(S'NP'
S'AANNMMP'
tp188
F1
s(S'NP'
S'ADVANPP'
tp189
F2
s(S'VP'
S'VVVVPP'
tp190
F1
s(S'VP'
S'VADVADVNP'
tp191
F1
s(S'CP'
S'CDDDDPP'
tp192
F1
s(S'NP'
S'NAAACP'
tp193
F2
s(S'PP'
p194
S'PAANP'
tp195
F12
s(S'NP'
S'NNDP'
tp196
F27
s(g74
S'PPPDDDP'
tp197
F1
s(S'VP'
S'VVVANP'
tp198
F2
s(S'PP'
S'PPVVP'
tp199
F5
s(S'VP'
p200
S'VAACP'
tp201
F2
s(S'MP'
S'MVNP'
tp202
F78
s(S'DP'
p203
S'ADVDDDVP'
tp204
F1
s(S'MP'
S'MNDP'
tp205
F1
s(S'AP'
p206
S'ADVAADP'
tp207
F2
s(S'PP'
S'PAVP'
tp208
F16
s(S'MP'
S'ADVMVP'
tp209
F2
s(S'VP'
S'ADVVMP'
tp210
F3
s(S'VP'
S'VVVPP'
tp211
F3
s(S'NP'
p212
S'NNADP'
tp213
F1
s(S'AP'
S'AAADVADVDDP'
tp214
F1
s(S'PP'
p215
S'APPPP'
tp216
F1
s(S'DP'
p217
S'DADP'
tp218
F2
s(S'AP'
p219
S'ADVADP'
tp220
F3
s(S'CP'
S'ADVADVCDP'
tp221
F2
s(S'VP'
S'VVADVPP'
tp222
F1
s(S'DP'
S'ADVDDP'
tp223
F1
s(S'DP'
S'ADVADVDDAVP'
tp224
F1
s(S'DP'
S'DDVVVVP'
tp225
F1
s(S'NP'
S'ADVNAP'
tp226
F1
s(S'DP'
S'DAAAVP'
tp227
F1
s(S'PP'
S'PPCP'
tp228
F2
s(S'VP'
p229
S'ADVVNP'
tp230
F28
s(S'MP'
S'MNNCP'
tp231
F1
s(g102
S'CADVADPPP'
tp232
F1
s(S'VP'
S'VVNP'
tp233
F51
s(S'VP'
S'VVVCP'
tp234
F3
s(g146
S'PPVP'
tp235
F37
s(S'VP'
p236
S'VAVVP'
tp237
F1
s(S'MP'
S'MNADVCP'
tp238
F1
s(g81
S'VADVDP'
tp239
F6
s(S'VP'
p240
S'VAAP'
tp241
F32
s(S'NP'
S'ANDP'
tp242
F15
s(g114
S'NVVP'
tp243
F83
s(g194
S'AAPVP'
tp244
F2
s(S'PP'
S'PPADP'
tp245
F1
s(S'VP'
S'VMP'
tp246
F36
s(S'AP'
p247
S'AAAVVP'
tp248
F1
s(S'VP'
S'VVNNP'
tp249
F8
s(S'CP'
p250
S'CDAPP'
tp251
F42
s(S'MP'
S'MMPP'
tp252
F1
s(S'DP'
p253
S'ADNP'
tp254
F16
s(g17
S'PADP'
tp255
F22
s(S'DP'
p256
S'DDAAAPP'
tp257
F1
s(S'VP'
S'ADVVVCP'
tp258
F1
s(S'AP'
S'AAAACP'
tp259
F1
s(S'PP'
S'ADVADVADVPPPNP'
tp260
F1
s(S'DP'
S'DADVAP'
tp261
F6
s(S'MP'
S'MANVVP'
tp262
F1
s(S'DP'
p263
S'DAPP'
tp264
F62
s(S'VP'
S'AVVP'
tp265
F1
s(S'MP'
S'MVVCP'
tp266
F2
s(S'VP'
S'ADVADVVPP'
tp267
F2
s(S'DP'
S'DAAVP'
tp268
F1
s(S'MP'
S'MDDNP'
tp269
F1
s(S'PP'
S'AAAPVP'
tp270
F1
s(S'VP'
p271
S'ADVADVVDP'
tp272
F7
s(S'PP'
p273
S'PPPDP'
tp274
F4
s(S'NP'
p275
S'NADVADVANP'
tp276
F1
s(g256
S'DDAAVP'
tp277
F1
s(S'MP'
S'MVVAP'
tp278
F4
s(S'DP'
S'DAAANP'
tp279
F3
s(S'DP'
S'DADVANP'
tp280
F3
s(S'DP'
S'ADVDNP'
tp281
F4
s(S'VP'
p282
S'VVPP'
tp283
F29
s(S'DP'
p284
S'ADVDDDNP'
tp285
F1
s(S'DP'
S'ADADVPP'
tp286
F3
s(g8
S'PAVVP'
tp287
F1
s(S'MP'
S'MVPP'
tp288
F18
s(g253
S'ADVP'
tp289
F10
s(S'MP'
S'MVADP'
tp290
F1
s(g250
S'CDDPPP'
tp291
F10
s(S'NP'
S'NNADVADVAP'
tp292
F1
s(S'VP'
S'ADVVVDP'
tp293
F1
s(g121
S'NNPP'
tp294
F41
s(g170
S'NADVADVDP'
tp295
F1
s(S'NP'
S'AAANDP'
tp296
F3
s(S'MP'
S'MVVDP'
tp297
F7
s(g284
S'DADVPPP'
tp298
F4
s(S'PP'
S'PPADVAAP'
tp299
F1
s(S'NP'
S'ANVP'
tp300
F39
s(S'DP'
S'AADADVVVP'
tp301
F1
s(S'CP'
S'CAADDPPPP'
tp302
F1
s(S'DP'
S'DNNNP'
tp303
F7
s(S'DP'
S'ADVDADVPP'
tp304
F1
s(S'VP'
p305
S'ADVVAACP'
tp306
F1
s(S'MP'
S'MPPDP'
tp307
F1
s(S'DP'
p308
S'ADVDDVP'
tp309
F2
s(S'AP'
S'ADVADVAVVVVP'
tp310
F1
s(S'PP'
p311
S'PADVADVVP'
tp312
F2
s(S'VP'
S'VADVDDP'
tp313
F1
s(S'VP'
p314
S'ADVVCP'
tp315
F7
s(S'PP'
S'PVVVP'
tp316
F2
s(S'PP'
S'PMP'
tp317
F22
s(S'NP'
p318
S'NNMMP'
tp319
F3
s(g250
S'CCDP'
tp320
F129
s(S'NP'
S'ADVNNDP'
tp321
F1
s(S'MP'
S'AMVP'
tp322
F7
s(S'PP'
S'PPNNNP'
tp323
F1
s(S'MP'
S'AAMMDP'
tp324
F1
s(S'VP'
S'VADVADVANP'
tp325
F1
s(S'PP'
S'ADVADVPPPP'
tp326
F1
s(S'DP'
S'DDDMP'
tp327
F1
s(g69
S'NVVVP'
tp328
F13
s(S'CP'
S'CDDDPP'
tp329
F10
s(g146
S'PPADVVP'
tp330
F2
s(S'VP'
S'VVVDP'
tp331
F3
s(S'PP'
S'PDDDDP'
tp332
F1
s(S'PP'
S'PNNNP'
tp333
F8
s(S'CP'
S'CCCCDP'
tp334
F1
s(S'PP'
S'ADVADVAPADVVVP'
tp335
F1
s(S'AP'
S'AACCP'
tp336
F1
s(g146
S'AAPNP'
tp337
F5
s(S'CP'
S'CADADVPP'
tp338
F2
s(S'PP'
S'PADVVVP'
tp339
F2
s(g146
S'PPP'
tp340
F162
s(g182
S'NNVVP'
tp341
F10
s(S'NP'
p342
S'NAVP'
tp343
F12
s(S'PP'
p344
S'PADVAP'
tp345
F3
s(S'DP'
S'DDNNNP'
tp346
F1
s(S'MP'
S'MNNDP'
tp347
F1
s(S'PP'
S'PADDP'
tp348
F1
s(S'PP'
S'APVVVP'
tp349
F1
s(S'DP'
S'ADVDVP'
tp350
F7
s(S'NP'
p351
S'NAAAP'
tp352
F1
s(S'PP'
S'PPAAVVP'
tp353
F1
s(S'NP'
S'NADVVVP'
tp354
F8
s(S'DP'
p355
S'DADVADVPPP'
tp356
F1
s(S'AP'
S'AADVVP'
tp357
F2
s(S'PP'
S'PPPPDP'
tp358
F2
s(S'DP'
S'DAAAP'
tp359
F1
s(S'DP'
S'ADVADVDNP'
tp360
F1
s(S'VP'
S'VPP'
tp361
F198
s(S'CP'
S'ADVCCDP'
tp362
F1
s(S'DP'
S'ADVDDNP'
tp363
F2
s(S'NP'
S'NNNCP'
tp364
F9
s(S'PP'
S'PADVDP'
tp365
F7
s(S'CP'
p366
S'CDADVAPP'
tp367
F1
s(S'CP'
S'CDDDPPP'
tp368
F1
s(g263
S'DANNP'
tp369
F5
s(S'PP'
S'PADVAAP'
tp370
F1
s(g23
S'CDDPP'
tp371
F85
s(g263
S'DAAPP'
tp372
F14
s(g273
S'PVVP'
tp373
F35
s(S'CP'
p374
S'CADPPP'
tp375
F9
s(S'AP'
S'AACP'
tp376
F21
s(S'DP'
S'ADVADDP'
tp377
F1
s(S'MP'
p378
S'MAVCP'
tp379
F1
s(S'PP'
S'PMMP'
tp380
F2
s(S'VP'
p381
S'VPPP'
tp382
F18
s(S'VP'
S'AVCCP'
tp383
F2
s(S'CP'
S'CDADVADVAPP'
tp384
F1
s(S'VP'
p385
S'VVPPP'
tp386
F3
s(S'PP'
S'PPAP'
tp387
F17
s(g308
S'DVVP'
tp388
F43
s(S'CP'
S'CADVADVDAPP'
tp389
F1
s(S'NP'
S'NNNNDP'
tp390
F1
s(S'NP'
S'ANMP'
tp391
F7
s(S'AP'
S'APPP'
tp392
F6
s(S'PP'
S'ADVPPP'
tp393
F5
s(g355
S'ADVADPPP'
tp394
F1
s(S'NP'
S'ADVADVNVP'
tp395
F1
s(S'VP'
p396
S'VVVP'
tp397
F8
s(g19
S'DDPPPP'
tp398
F1
s(S'VP'
S'AVMP'
tp399
F1
s(g121
S'ANCP'
tp400
F67
s(S'DP'
S'DCP'
tp401
F34
s(S'CP'
S'ADVCAAADP'
tp402
F1
s(S'DP'
S'DVVVP'
tp403
F3
s(S'DP'
S'DAAVVP'
tp404
F1
s(S'VP'
S'AAVVCP'
tp405
F1
s(g19
S'DDDP'
tp406
F26
s(S'DP'
S'DDADVPP'
tp407
F6
s(S'NP'
S'ANNVVP'
tp408
F1
s(S'NP'
S'ANVVP'
tp409
F5
s(g150
S'NVVVVP'
tp410
F4
s(S'NP'
S'NPPP'
tp411
F27
s(S'PP'
S'PPAPP'
tp412
F1
s(S'VP'
S'ADVVNNNP'
tp413
F1
s(S'NP'
S'NNNAAAP'
tp414
F1
s(g253
S'DAVP'
tp415
F22
s(S'NP'
S'NNNMP'
tp416
F2
s(S'AP'
S'ACP'
tp417
F86
s(S'PP'
S'AAPAP'
tp418
F1
s(S'NP'
S'NDDDDP'
tp419
F1
s(g74
S'PPNP'
tp420
F85
s(S'MP'
S'MADVADVVPPP'
tp421
F1
s(S'PP'
S'PPPAP'
tp422
F1
s(S'MP'
S'MADVVPP'
tp423
F3
s(g284
S'AADVP'
tp424
F1
s(S'VP'
S'VVVVNNP'
tp425
F1
s(S'MP'
S'ADVMDP'
tp426
F1
s(S'CP'
S'CDDADVPP'
tp427
F2
s(S'DP'
S'AADNP'
tp428
F4
s(S'AP'
S'ADP'
tp429
F463
s(S'PP'
S'APMP'
tp430
F2
s(S'CP'
p431
S'CADVDPP'
tp432
F30
s(S'PP'
S'APVVP'
tp433
F1
s(S'DP'
S'DDVVVP'
tp434
F1
s(S'VP'
S'AAAVDP'
tp435
F1
s(g385
S'AVDP'
tp436
F21
s(g212
S'ANNVP'
tp437
F3
s(g396
S'VVAP'
tp438
F20
s(S'NP'
S'NNAPP'
tp439
F1
s(S'MP'
S'MNADVVP'
tp440
F1
s(S'NP'
p441
S'ADVANPPP'
tp442
F1
s(S'CP'
S'CDDDAPP'
tp443
F1
s(g130
S'NNADVADVADVVP'
tp444
F1
s(S'CP'
p445
S'CADVDADVADVADVPPPP'
tp446
F1
s(S'VP'
S'ADVADVVPPP'
tp447
F1
s(S'DP'
S'AADDPPP'
tp448
F1
s(S'CP'
S'ADVADVCAADP'
tp449
F1
s(S'NP'
S'NNNP'
tp450
F3
s(g121
S'NVP'
tp451
F631
s(S'CP'
p452
S'ADVCCDDP'
tp453
F1
s(S'PP'
S'PAAVP'
tp454
F1
s(S'NP'
S'NAAPP'
tp455
F3
s(g46
S'PPPPVP'
tp456
F1
s(g200
S'VDDP'
tp457
F56
s(S'VP'
S'ADVVADVAP'
tp458
F1
s(S'NP'
p459
S'ADVNPPP'
tp460
F1
s(S'NP'
S'AANNVP'
tp461
F2
s(S'PP'
S'PPADVADP'
tp462
F1
s(S'DP'
S'DADVAPP'
tp463
F1
s(S'NP'
p464
S'NADVADVVVP'
tp465
F1
s(g130
S'ANPP'
tp466
F52
s(S'PP'
S'ADVPPDP'
tp467
F2
s(S'PP'
p468
S'PPPPP'
tp469
F5
s(S'MP'
p470
S'MPDP'
tp471
F9
s(g41
S'ADVADVPDP'
tp472
F2
s(S'MP'
S'MVVPP'
tp473
F3
s(S'AP'
S'AMMP'
tp474
F3
s(S'PP'
p475
S'ADVPPADVAAP'
tp476
F1
s(g19
S'DDDDDP'
tp477
F1
s(S'NP'
S'NPPPP'
tp478
F2
s(S'DP'
S'ADDP'
tp479
F6
s(S'AP'
S'ADVAMP'
tp480
F1
s(S'CP'
S'CAADPP'
tp481
F12
s(S'NP'
p482
S'NAACP'
tp483
F1
s(g74
S'PNNP'
tp484
F81
s(S'PP'
S'APNNP'
tp485
F3
s(S'VP'
S'ADVVVVP'
tp486
F1
s(S'MP'
S'MMNP'
tp487
F3
s(S'DP'
S'AAADPP'
tp488
F4
s(S'VP'
S'AVAP'
tp489
F4
s(g378
S'MMVP'
tp490
F9
s(S'PP'
S'PADVDDP'
tp491
F1
s(S'DP'
S'ADVDADVADVADVPPPP'
tp492
F1
s(S'MP'
S'MNCP'
tp493
F1
s(S'NP'
S'ADVNCP'
tp494
F10
s(g180
S'AADP'
tp495
F57
s(S'NP'
S'NAPPP'
tp496
F1
s(S'CP'
S'ACDP'
tp497
F14
s(S'PP'
S'PAAP'
tp498
F25
s(S'AP'
S'ADVANP'
tp499
F9
s(S'PP'
S'AAPADVVP'
tp500
F1
s(g452
S'CDADVPPP'
tp501
F3
s(g385
S'VAP'
tp502
F211
s(S'MP'
S'MNVVP'
tp503
F2
s(g284
S'DDDPP'
tp504
F18
s(S'NP'
S'AANNCP'
tp505
F1
s(S'NP'
S'ANADVCP'
tp506
F1
s(S'VP'
S'VADVMP'
tp507
F2
s(S'PP'
S'PAAPP'
tp508
F1
s(S'NP'
S'ADVADVADVANVP'
tp509
F1
s(S'CP'
S'CADVADVADVADVDPP'
tp510
F1
s(S'AP'
S'AAVVP'
tp511
F1
s(S'MP'
S'MNMP'
tp512
F2
s(S'DP'
S'DDDPPP'
tp513
F1
s(S'VP'
S'ADVAVDP'
tp514
F1
s(S'DP'
S'DADVDP'
tp515
F1
s(S'MP'
S'MVVCCP'
tp516
F1
s(g482
S'NNAVVP'
tp517
F1
s(S'CP'
S'CCADVADP'
tp518
F1
s(S'AP'
S'AAACP'
tp519
F3
s(S'DP'
S'ADADVVP'
tp520
F1
s(g459
S'AANADVVP'
tp521
F3
s(S'NP'
S'NAAP'
tp522
F13
s(S'MP'
S'MAVP'
tp523
F1
s(S'MP'
S'MANVP'
tp524
F1
s(S'PP'
S'PPPVP'
tp525
F2
s(S'AP'
S'AADDP'
tp526
F10
s(S'MP'
S'MAADP'
tp527
F1
s(S'AP'
S'ACCCCP'
tp528
F1
s(S'VP'
S'VAANP'
tp529
F10
s(S'DP'
p530
S'DADVDDP'
tp531
F2
s(S'CP'
S'CCAAADP'
tp532
F1
s(g25
S'VVDP'
tp533
F62
s(S'MP'
S'MVVMP'
tp534
F2
s(S'DP'
S'DADVADVDP'
tp535
F1
s(S'MP'
p536
S'MPNP'
tp537
F9
s(S'VP'
S'VVAADP'
tp538
F1
s(S'MP'
S'MADP'
tp539
F12
s(g240
S'ADVADVADVVAP'
tp540
F1
s(S'CP'
S'CCAADP'
tp541
F2
s(S'AP'
S'ADVADVADDP'
tp542
F1
s(S'AP'
S'AAACCP'
tp543
F1
s(S'DP'
S'DDADVNP'
tp544
F2
s(g74
S'PANP'
tp545
F50
s(S'MP'
S'MADVVADVAP'
tp546
F1
s(S'NP'
S'ANNMP'
tp547
F1
s(S'MP'
S'MVVPPP'
tp548
F2
s(S'MP'
S'ADVAMVP'
tp549
F1
s(S'VP'
S'ADVVVNNNP'
tp550
F1
s(S'NP'
S'AANMP'
tp551
F5
s(S'AP'
S'AAVP'
tp552
F6
s(S'PP'
S'AAPDDDDP'
tp553
F1
s(S'NP'
p554
S'NDDP'
tp555
F16
s(S'AP'
S'ACCP'
tp556
F8
s(S'NP'
S'ADVADVANCP'
tp557
F1
s(S'VP'
S'VVVVAP'
tp558
F1
s(S'VP'
S'AVPPP'
tp559
F2
s(g63
S'NDP'
tp560
F177
s(S'NP'
p561
S'AAANVP'
tp562
F2
s(g284
S'DDVP'
tp563
F48
s(S'NP'
S'AANVP'
tp564
F8
s(S'VP'
S'ADVVVNNP'
tp565
F1
s(S'DP'
S'DADVADVAPP'
tp566
F2
s(S'VP'
S'AAVVPP'
tp567
F1
s(S'VP'
S'VNNNP'
tp568
F6
s(S'VP'
S'VADVADVPP'
tp569
F1
s(S'PP'
S'ADVPAP'
tp570
F4
s(g344
S'PCP'
tp571
F11
s(S'VP'
S'VADVADP'
tp572
F1
s(g475
S'PAADP'
tp573
F4
s(g536
S'MDNP'
tp574
F23
s(g33
S'DDDDAPPP'
tp575
F1
s(S'VP'
S'VVVVANP'
tp576
F1
s(S'NP'
S'NNNDP'
tp577
F3
s(S'AP'
S'ADVACP'
tp578
F8
s(S'PP'
S'AAPNNP'
tp579
F1
s(g127
S'AVVDP'
tp580
F1
s(S'DP'
S'ADPPP'
tp581
F11
s(S'MP'
S'MVCP'
tp582
F24
s(S'CP'
S'CCDDP'
tp583
F8
s(S'NP'
S'NNADVVP'
tp584
F4
s(S'VP'
S'ADVADVADVVPP'
tp585
F1
s(g203
S'ADVADVADVADVDADVPP'
tp586
F1
s(S'MP'
S'MVMP'
tp587
F1
s(S'MP'
S'MADVADVADVVPP'
tp588
F1
s(g172
S'AAADNP'
tp589
F2
s(g464
S'NAACCP'
tp590
F1
s(S'DP'
S'DADVNP'
tp591
F7
s(g282
S'VVCP'
tp592
F26
s(S'MP'
p593
S'MVAANP'
tp594
F2
s(S'PP'
S'PADVADVPP'
tp595
F1
s(S'NP'
S'AANCP'
tp596
F10
s(S'VP'
S'VADVNP'
tp597
F6
s(S'NP'
S'NAAANP'
tp598
F1
s(g247
S'ADVAVVP'
tp599
F1
s(g236
S'AVVPP'
tp600
F2
s(g76
S'APPP'
tp601
F13
s(S'DP'
S'DDDDPPP'
tp602
F1
s(g385
S'ADVVPP'
tp603
F12
s(S'CP'
S'CDAPPP'
tp604
F1
s(S'VP'
S'VNNP'
tp605
F37
s(S'AP'
S'AADVDP'
tp606
F3
s(S'NP'
S'NADP'
tp607
F4
s(S'PP'
S'AAAPPP'
tp608
F1
s(g19
S'DDNP'
tp609
F54
s(S'NP'
S'NADVCP'
tp610
F5
s(g284
S'DDNNP'
tp611
F8
s(S'DP'
S'ADDVP'
tp612
F1
s(g311
S'AAPPP'
tp613
F3
s(S'MP'
S'MADVVNNNP'
tp614
F1
s(S'PP'
S'AAPADVNP'
tp615
F1
s(S'NP'
S'ADVANVP'
tp616
F4
s(S'MP'
S'MNVVVP'
tp617
F1
s(S'NP'
S'ADVADVNCP'
tp618
F1
s(S'DP'
S'AADPP'
tp619
F19
s(g121
S'NNNNPP'
tp620
F1
s(S'DP'
S'AADDPPPP'
tp621
F1
s(S'NP'
S'NNAADP'
tp622
F1
s(S'MP'
S'MMAPP'
tp623
F1
s(S'AP'
S'AADVADVVP'
tp624
F2
s(S'CP'
S'CDPPPPP'
tp625
F2
s(g351
S'NAAMMP'
tp626
F1
s(S'NP'
S'ANVVVP'
tp627
F2
s(S'MP'
S'MADVVDP'
tp628
F2
s(S'DP'
S'ADVAAADPP'
tp629
F1
s(S'CP'
S'ACDDP'
tp630
F3
s(S'VP'
S'ADVADVVANNP'
tp631
F1
s(S'AP'
S'AAPP'
tp632
F9
s(S'VP'
S'VVCCP'
tp633
F4
s(S'PP'
S'APPNP'
tp634
F1
s(S'DP'
S'DAAAPP'
tp635
F4
s(S'PP'
S'ADVPANP'
tp636
F2
s(g318
S'NNPPP'
tp637
F6
s(S'AP'
S'ADVANNP'
tp638
F2
s(S'VP'
S'AAVADVCP'
tp639
F1
s(S'NP'
p640
S'NAPP'
tp641
F15
s(S'PP'
p642
S'APPVP'
tp643
F2
s(S'NP'
S'NADVDP'
tp644
F1
s(S'PP'
p645
S'ADVPPPP'
tp646
F1
s(S'MP'
S'MVVADVVP'
tp647
F1
s(S'NP'
S'ANCCP'
tp648
F6
s(g554
S'AANPP'
tp649
F8
s(g240
S'VDDDP'
tp650
F7
s(S'NP'
S'NNMP'
tp651
F19
s(g308
S'DDDVP'
tp652
F4
s(S'NP'
S'NNADVCP'
tp653
F1
s(g374
S'CADDPP'
tp654
F4
s(g215
S'PAAAP'
tp655
F5
s(g76
S'ADVADVPNP'
tp656
F5
s(S'VP'
S'VVVDDP'
tp657
F2
s(S'CP'
S'CDDAPP'
tp658
F4
s(S'NP'
S'ANAP'
tp659
F5
s(g161
S'MVAP'
tp660
F18
s(g17
S'PVP'
tp661
F361
s(S'MP'
S'MVDDDP'
tp662
F1
s(S'DP'
S'DADVAVP'
tp663
F1
s(S'AP'
S'ADVADVAPP'
tp664
F1
s(S'VP'
S'VVVVDP'
tp665
F1
s(S'VP'
S'VVVAANP'
tp666
F1
s(S'VP'
p667
S'VADVCCP'
tp668
F1
s(S'AP'
S'ADVAACP'
tp669
F1
s(g89
S'ADVNAVP'
tp670
F1
s(g342
S'ANNCP'
tp671
F7
s(S'PP'
S'PPADVPP'
tp672
F2
s(g593
S'MVADVNP'
tp673
F1
s(g275
S'ADVADVANVP'
tp674
F1
s(g74
S'PPDDP'
tp675
F6
s(g667
S'AVCP'
tp676
F3
s(S'NP'
S'NADVADVAP'
tp677
F2
s(g19
S'DPP'
tp678
F884
s(g342
S'ADVNVP'
tp679
F7
s(g19
S'DDPP'
tp680
F128
s(S'DP'
S'DDADVPPP'
tp681
F1
s(S'DP'
S'DDAVP'
tp682
F1
s(S'DP'
S'DANP'
tp683
F74
s(S'NP'
S'ADVADVNAP'
tp684
F1
s(g130
S'NADVPP'
tp685
F3
s(S'MP'
S'MMAP'
tp686
F1
s(S'PP'
S'PPPAAAAP'
tp687
F1
s(g640
S'NAAVP'
tp688
F2
s(S'PP'
S'APADVDDP'
tp689
F1
s(S'PP'
S'PDDDP'
tp690
F5
s(S'AP'
S'ADVAAACP'
tp691
F1
s(S'AP'
S'AAAAPP'
tp692
F1
s(S'VP'
S'VADVCP'
tp693
F4
s(S'NP'
S'NNNNAP'
tp694
F1
s(S'NP'
S'NNNNCP'
tp695
F2
s(g130
S'NADVCCP'
tp696
F1
s(S'PP'
S'PPAANNP'
tp697
F1
s(g121
S'NNAACP'
tp698
F2
s(S'MP'
S'MNAVP'
tp699
F1
s(S'MP'
S'MMMANP'
tp700
F1
s(S'CP'
S'CAADDPPP'
tp701
F1
s(S'DP'
S'DCCP'
tp702
F4
s(S'DP'
S'AADDP'
tp703
F1
s(S'PP'
S'AAPDP'
tp704
F6
s(S'DP'
S'ADVADPP'
tp705
F3
s(S'VP'
S'VVVAP'
tp706
F4
s(g74
S'PDDP'
tp707
F58
s(S'CP'
S'CDDDDPPP'
tp708
F1
s(g140
S'MVDDP'
tp709
F1
s(S'AP'
S'AAAADP'
tp710
F1
s(S'NP'
S'NNNADVVP'
tp711
F1
s(g219
S'AADVDDP'
tp712
F1
s(S'PP'
S'PPPNP'
tp713
F2
s(S'AP'
S'AADVADVCP'
tp714
F2
s(S'AP'
S'ADVADVACP'
tp715
F1
s(S'NP'
S'NNP'
tp716
F1
s(S'VP'
S'VVDDP'
tp717
F3
s(S'DP'
S'DDADVAAP'
tp718
F1
s(S'DP'
S'DAANP'
tp719
F14
s(S'PP'
S'AAAPAP'
tp720
F1
s(g206
S'ADDP'
tp721
F34
s(S'PP'
S'PNNNNP'
tp722
F1
s(g642
S'PPAPPP'
tp723
F1
s(S'VP'
S'ADVVVAP'
tp724
F1
s(g71
S'ADVPPNP'
tp725
F2
s(S'MP'
S'MDAP'
tp726
F1
s(S'CP'
S'CADVADVDPP'
tp727
F5
s(g19
S'DPPP'
tp728
F148
s(S'VP'
S'VMMMP'
tp729
F1
s(S'DP'
S'AADPPP'
tp730
F2
s(g305
S'VANNP'
tp731
F2
s(S'NP'
S'NNAVP'
tp732
F4
s(S'NP'
S'NNAAPP'
tp733
F1
s(S'AP'
S'AVVP'
tp734
F2
s(S'PP'
S'ADVPNP'
tp735
F15
s(g74
S'PPDP'
tp736
F50
s(S'DP'
S'ADDADVPPP'
tp737
F1
s(S'VP'
S'ADVVANNP'
tp738
F1
s(g530
S'ADVDDADVPP'
tp739
F1
s(S'PP'
S'ADVAPNNNP'
tp740
F1
s(S'DP'
S'ADVADVADVADVDPP'
tp741
F1
s(S'CP'
S'CAADADVPP'
tp742
F1
s(S'CP'
S'CCDDDP'
tp743
F2
s(S'NP'
S'NNVP'
tp744
F74
s(S'DP'
S'DDCP'
tp745
F3
s(S'PP'
S'PAANNP'
tp746
F1
s(S'AP'
S'AAAPP'
tp747
F2
s(S'MP'
S'MNCCP'
tp748
F1
s(g63
S'NAP'
tp749
F128
s(g561
S'NNAAP'
tp750
F1
s(S'NP'
S'NNNADVMP'
tp751
F1
s(S'VP'
S'VAAAP'
tp752
F5
s(S'VP'
S'VADVANP'
tp753
F2
s(S'VP'
S'ADVAVNP'
tp754
F1
s(g240
S'VVP'
tp755
F48
s(S'DP'
S'DDAPP'
tp756
F5
s(S'AP'
S'AAADP'
tp757
F9
s(g475
S'APNP'
tp758
F31
s(S'VP'
S'VVVNNP'
tp759
F2
s(S'DP'
S'DDDAPP'
tp760
F1
s(S'DP'
S'DDVVP'
tp761
F5
s(g271
S'VVVNP'
tp762
F7
s(S'MP'
S'MNPP'
tp763
F4
s(S'NP'
S'NAMP'
tp764
F5
s(g441
S'AANVVP'
tp765
F1
s(S'MP'
S'MVANP'
tp766
F3
s(S'VP'
S'VADVADVCP'
tp767
F1
s(S'NP'
S'NNNNADVADVVP'
tp768
F1
s(S'MP'
S'MVNNP'
tp769
F6
s(S'NP'
S'NADVAMP'
tp770
F1
s(g23
S'CDPP'
tp771
F738
s(g219
S'ADDDP'
tp772
F3
s(S'CP'
S'ADVCADP'
tp773
F1
s(g396
S'VVAANP'
tp774
F1
s(S'DP'
S'ADVADVDDPP'
tp775
F1
s(g445
S'ADVCDP'
tp776
F12
s(S'AP'
S'ADVAAP'
tp777
F3
s(S'VP'
S'ADVADVVNP'
tp778
F3
s(S'NP'
S'NNNNPPP'
tp779
F1
s(g273
S'AAAPVVP'
tp780
F1
s(S'VP'
S'ADVADVVCP'
tp781
F1
s(g194
S'PPNNP'
tp782
F13
s(S'NP'
S'AAANNVP'
tp783
F1
s(g344
S'ADVPAVP'
tp784
F2
s(S'AP'
S'ADVACCP'
tp785
F1
s(S'PP'
S'PPMP'
tp786
F1
s(S'DP'
S'ADVADVDPP'
tp787
F10
s(g229
S'VDP'
tp788
F478
s(S'NP'
S'NADVAP'
tp789
F1
s(g282
S'AVDDP'
tp790
F5
s(S'VP'
S'VVDDDP'
tp791
F1
s(S'DP'
S'DDCCP'
tp792
F1
s(S'DP'
S'DAP'
tp793
F40
s(S'MP'
S'MCADVDP'
tp794
F1
s(g366
S'CADPP'
tp795
F55
s(S'NP'
S'NADVAVP'
tp796
F1
s(g475
S'PPAVP'
tp797
F2
s(S'MP'
S'MADVADVVDP'
tp798
F1
s(g74
S'PPDDDP'
tp799
F2
s(g25
S'AVPP'
tp800
F9
s(S'CP'
S'CAADPPP'
tp801
F2
s(g19
S'DDNNNNP'
tp802
F1
s(S'VP'
S'VVADVDP'
tp803
F1
s(g645
S'PPADVADVDDP'
tp804
F1
s(S'CP'
S'CDPPPP'
tp805
F3
s(g396
S'VADVADVCCP'
tp806
F1
s(S'VP'
S'AAVDP'
tp807
F2
s(S'PP'
S'PANNP'
tp808
F3
s(S'NP'
S'NNDDP'
tp809
F2
s(S'DP'
S'ADPPPP'
tp810
F1
s(g217
S'DAPPP'
tp811
F5
s(S'DP'
S'DADVADVPP'
tp812
F2
s(g263
S'DMP'
tp813
F12
s(S'DP'
p814
S'ADVDPP'
tp815
F39
s(g121
S'NPP'
tp816
F348
s(S'PP'
S'PPAANP'
tp817
F2
s(S'PP'
S'PADVADVNP'
tp818
F1
s(g396
S'ADVADVVAP'
tp819
F3
s(g217
S'ADPP'
tp820
F72
s(g468
S'PPAAVP'
tp821
F1
s(S'VP'
S'VVNNNP'
tp822
F1
s(S'NP'
S'NADVANP'
tp823
F1
s(S'VP'
S'VADVPP'
tp824
F2
s(S'DP'
S'DDAAPP'
tp825
F1
s(S'DP'
S'ADVDANP'
tp826
F1
s(S'NP'
S'NNNNADVPP'
tp827
F1
s(S'PP'
S'ADVPVP'
tp828
F8
s(S'DP'
S'DDDDPP'
tp829
F2
s(S'NP'
S'NNVVVP'
tp830
F3
s(S'VP'
S'ADVVANP'
tp831
F3
s(S'PP'
S'PAMP'
tp832
F1
s(g39
S'ADVPDP'
tp833
F7
s(S'VP'
S'VVNNNNP'
tp834
F1
s(g314
S'ADVVADP'
tp835
F1
s(g475
S'ADVADVPCP'
tp836
F1
s(g121
S'NCP'
tp837
F548
s(g431
S'CADVDPPP'
tp838
F3
s(S'VP'
S'ADVVVPP'
tp839
F2
s(S'PP'
S'PPPAPP'
tp840
F1
s(S'AP'
S'AAAP'
tp841
F3
s(S'VP'
S'VAADP'
tp842
F3
s(S'AP'
S'AAMP'
tp843
F3
s(S'DP'
S'AADADVPP'
tp844
F1
s(S'VP'
S'AAVVDP'
tp845
F1
s(S'NP'
S'AANDP'
tp846
F3
s(S'DP'
S'DADVNNP'
tp847
F1
s(S'NP'
S'NNCCP'
tp848
F12
s(S'MP'
S'MNVP'
tp849
F38
s(g200
S'VANP'
tp850
F34
s(S'CP'
S'ADVADVCCDP'
tp851
F1
s(g114
S'AANCCP'
tp852
F5
s(S'VP'
S'VAPP'
tp853
F13
s(g136
S'ADVVDP'
tp854
F33
s(S'VP'
S'VADDP'
tp855
F2
s(g308
S'DADVPP'
tp856
F25
s(S'AP'
S'AMP'
tp857
F27
s(S'CP'
S'CCADP'
tp858
F10
s(S'NP'
S'ADVANVVVP'
tp859
F1
s(S'DP'
S'ADVDAP'
tp860
F3
s(S'AP'
S'ADVAPP'
tp861
F12
s(g23
S'AACDP'
tp862
F7
s(S'NP'
S'NNNCCP'
tp863
F3
s(S'NP'
S'NNADDP'
tp864
F1
s(g814
S'ADVDPPP'
tp865
F3
s(g263
S'DVP'
tp866
F439
s(S'VP'
S'ADVVAP'
tp867
F5
s(g130
S'ADVNPP'
tp868
F4
s(S'CP'
S'AAACDP'
tp869
F1
s(g206
S'AVP'
tp870
F32
s(S'NP'
S'NADVVP'
tp871
F25
s(S'NP'
S'NNADVADVVP'
tp872
F1
s(g263
S'DDPPP'
tp873
F17
s(S'NP'
S'ADVNMP'
tp874
F9
s(g174
S'NNAP'
tp875
F15
s(g470
S'MADVVCP'
tp876
F3
s(S'PP'
S'PPANP'
tp877
F3
s(S'MP'
S'MCDDP'
tp878
F1
s(S'VP'
S'VVADVADVDP'
tp879
F1
s(S'CP'
S'CDADVPP'
tp880
F14
s(g381
S'VNP'
tp881
F425
s(g475
S'ADVPADVDDDP'
tp882
F2
s(S'VP'
S'VADVAP'
tp883
F24
s(S'PP'
S'PPADVNP'
tp884
F3
s(S'DP'
S'DDDDVP'
tp885
F2
s(S'NP'
S'AANNAP'
tp886
F1
s.