ccollections
defaultdict
p1
(c__builtin__
float
p2
tRp3
(S'NP'
S'AANDDP'
tp4
F1
s(S'PP'
S'PAAANP'
tp5
F2
s(S'DP'
S'DDAP'
tp6
F2
s(S'VP'
S'ADVVVNP'
tp7
F1
s(S'PP'
S'PAPP'
tp8
F3
s(S'PP'
p9
S'PADVNP'
tp10
F5
s(S'DP'
p11
S'DNP'
tp12
F109
s(S'NP'
p13
S'ADVNDP'
tp14
F2
s(S'CP'
p15
S'CDPPP'
tp16
F20
s(S'VP'
S'VADP'
tp17
F7
s(S'CP'
S'ACADVADVDP'
tp18
F1
s(S'VP'
p19
S'VAVP'
tp20
F2
s(S'DP'
S'ADNNP'
tp21
F1
s(S'MP'
S'MDVP'
tp22
F1
s(S'PP'
p23
S'APVP'
tp24
F5
s(S'MP'
S'MVDP'
tp25
F9
s(S'PP'
S'PPPP'
tp26
F9
s(S'VP'
S'VVVVDDP'
tp27
F1
s(S'DP'
S'DDDNP'
tp28
F1
s(S'VP'
S'VACP'
tp29
F1
s(g9
S'PPAAP'
tp30
F1
s(S'NP'
S'NADVVVP'
tp31
F1
s(S'CP'
S'CADVDAPP'
tp32
F1
s(S'VP'
p33
S'VCP'
tp34
F60
s(S'MP'
S'MVVANP'
tp35
F1
s(S'VP'
S'ADVVCCP'
tp36
F1
s(S'PP'
p37
S'PAP'
tp38
F43
s(S'MP'
S'MADVVCCP'
tp39
F1
s(S'NP'
S'NNNAP'
tp40
F1
s(S'PP'
p41
S'APVVP'
tp42
F2
s(S'VP'
S'VADVANP'
tp43
F2
s(S'PP'
p44
S'PNP'
tp45
F131
s(S'DP'
p46
S'DDP'
tp47
F22
s(S'VP'
S'VCCP'
tp48
F8
s(S'CP'
S'AACCDP'
tp49
F1
s(S'DP'
S'DDAANP'
tp50
F1
s(S'NP'
p51
S'NNADVADVCP'
tp52
F1
s(S'NP'
S'NMP'
tp53
F47
s(S'VP'
S'AVVDDP'
tp54
F1
s(S'VP'
S'VAAADP'
tp55
F1
s(g23
S'PDP'
tp56
F115
s(S'CP'
S'CDADVADVPP'
tp57
F1
s(S'NP'
S'ADVNVVP'
tp58
F1
s(S'NP'
S'AANADVAP'
tp59
F1
s(S'PP'
p60
S'PADVPP'
tp61
F1
s(S'DP'
p62
S'DPPPP'
tp63
F2
s(S'DP'
p64
S'DDANP'
tp65
F2
s(S'NP'
p66
S'NACP'
tp67
F9
s(S'AP'
S'ADVAVP'
tp68
F1
s(S'NP'
S'NCCP'
tp69
F20
s(S'NP'
S'NNCP'
tp70
F26
s(S'DP'
S'ADVDDPP'
tp71
F2
s(S'NP'
S'NADVADVVP'
tp72
F2
s(S'MP'
p73
S'MAAADP'
tp74
F1
s(S'VP'
p75
S'AVNP'
tp76
F1
s(S'PP'
S'ADVAPDP'
tp77
F1
s(S'NP'
S'ANADVVP'
tp78
F1
s(S'PP'
p79
S'ADVAPVP'
tp80
F1
s(S'AP'
S'AAAAP'
tp81
F1
s(S'CP'
S'CCCDP'
tp82
F1
s(S'VP'
p83
S'AVNNP'
tp84
F1
s(g37
S'APDP'
tp85
F6
s(S'VP'
S'ADVVNNP'
tp86
F1
s(S'VP'
S'VVANP'
tp87
F1
s(S'VP'
p88
S'VVVVDP'
tp89
F1
s(S'PP'
p90
S'PPAAPPP'
tp91
F1
s(S'MP'
S'MADVVNP'
tp92
F1
s(S'PP'
S'PAAP'
tp93
F4
s(S'DP'
S'DNNP'
tp94
F24
s(S'CP'
S'CADVDDPP'
tp95
F2
s(S'DP'
p96
S'DPPPPP'
tp97
F1
s(S'CP'
S'CCADVDP'
tp98
F1
s(S'VP'
S'ADVADVADVVVDP'
tp99
F1
s(S'VP'
S'AAVDDP'
tp100
F1
s(S'NP'
S'NNNVP'
tp101
F1
s(g90
S'AAPPDP'
tp102
F1
s(S'NP'
S'ADVADVNNAMP'
tp103
F1
s(S'PP'
p104
S'PADVVP'
tp105
F1
s(S'PP'
S'APAP'
tp106
F1
s(S'AP'
p107
S'APP'
tp108
F17
s(S'NP'
p109
S'AANADVVVP'
tp110
F1
s(S'AP'
S'AAP'
tp111
F6
s(S'NP'
S'ADVANPP'
tp112
F1
s(S'DP'
p113
S'DAAVP'
tp114
F1
s(S'PP'
S'PAANP'
tp115
F2
s(S'PP'
S'PPADVADVNNP'
tp116
F1
s(S'NP'
p117
S'ANVP'
tp118
F9
s(S'NP'
S'NNAAAP'
tp119
F1
s(S'MP'
p120
S'MVNP'
tp121
F18
s(S'AP'
S'ADVAADP'
tp122
F1
s(S'PP'
p123
S'PAVP'
tp124
F3
s(S'VP'
S'VVVPP'
tp125
F1
s(S'NP'
S'NNADP'
tp126
F1
s(S'AP'
S'ADVADP'
tp127
F1
s(S'PP'
S'APDDP'
tp128
F2
s(S'PP'
p129
S'PPCP'
tp130
F1
s(S'VP'
S'ADVVNP'
tp131
F7
s(S'MP'
S'MNCP'
tp132
F1
s(S'VP'
S'VVNP'
tp133
F18
s(S'NP'
p134
S'ANNP'
tp135
F1
s(S'PP'
S'PPPNNP'
tp136
F1
s(S'PP'
S'PPVP'
tp137
F6
s(g75
S'VADVDP'
tp138
F1
s(S'VP'
p139
S'VAAP'
tp140
F5
s(S'NP'
S'ANDP'
tp141
F3
s(S'NP'
p142
S'NVVP'
tp143
F15
s(S'PP'
p144
S'AAPVP'
tp145
F1
s(S'VP'
S'VMP'
tp146
F7
s(S'NP'
S'ANNAP'
tp147
F1
s(S'VP'
S'VVNNP'
tp148
F6
s(S'CP'
S'CDAPP'
tp149
F8
s(S'CP'
S'CDDAAPP'
tp150
F1
s(S'DP'
p151
S'ADNP'
tp152
F5
s(S'PP'
S'PPPPAP'
tp153
F1
s(g37
S'PADP'
tp154
F3
s(g13
S'ANDDP'
tp155
F1
s(g11
S'DAPP'
tp156
F15
s(g75
S'AVVP'
tp157
F1
s(S'MP'
S'MADVADVVNP'
tp158
F1
s(S'PP'
S'AAAPVP'
tp159
F1
s(S'VP'
S'ADVADVVDP'
tp160
F1
s(S'PP'
S'PPPDP'
tp161
F1
s(g96
S'DAAANP'
tp162
F1
s(S'VP'
S'VVAAP'
tp163
F1
s(S'DP'
p164
S'ADVDNP'
tp165
F1
s(S'VP'
S'VVPP'
tp166
F4
s(S'MP'
S'MVPP'
tp167
F5
s(S'DP'
S'ADVP'
tp168
F2
s(S'DP'
S'DDAAPP'
tp169
F1
s(g129
S'AAPMP'
tp170
F1
s(g117
S'NNPP'
tp171
F11
s(S'DP'
S'DNNNP'
tp172
F4
s(S'PP'
S'PMP'
tp173
F3
s(S'CP'
S'CCDP'
tp174
F31
s(S'MP'
S'AMVP'
tp175
F1
s(S'DP'
S'AADDPP'
tp176
F1
s(S'NP'
S'NVVVP'
tp177
F4
s(g15
S'CDDDPP'
tp178
F4
s(S'CP'
S'CDAAPP'
tp179
F2
s(S'VP'
S'VVVDP'
tp180
F3
s(S'PP'
S'PNNNP'
tp181
F4
s(S'VP'
S'VVMP'
tp182
F2
s(S'PP'
p183
S'PPP'
tp184
F29
s(S'NP'
p185
S'NAVP'
tp186
F2
s(g90
S'PADVAP'
tp187
F2
s(S'MP'
S'AMDP'
tp188
F1
s(S'DP'
S'ADVDVP'
tp189
F2
s(S'NP'
p190
S'NAAAP'
tp191
F1
s(g51
S'NCCCP'
tp192
F1
s(S'VP'
S'VPP'
tp193
F54
s(S'PP'
p194
S'AAAPPDP'
tp195
F1
s(S'CP'
S'ADVCCDP'
tp196
F1
s(S'VP'
S'AAVAP'
tp197
F1
s(S'NP'
S'NNNCP'
tp198
F6
s(S'PP'
S'PADVDP'
tp199
F2
s(S'CP'
S'CDADVAPP'
tp200
F1
s(S'DP'
S'DANNP'
tp201
F1
s(S'CP'
p202
S'CDDPP'
tp203
F23
s(S'DP'
p204
S'DAAPP'
tp205
F4
s(g123
S'PVVP'
tp206
F7
s(S'CP'
S'CADPPP'
tp207
F1
s(S'AP'
S'AACP'
tp208
F2
s(g139
S'VPPP'
tp209
F9
s(S'VP'
S'VVPPP'
tp210
F1
s(S'MP'
S'MVPPP'
tp211
F2
s(S'DP'
p212
S'DVVP'
tp213
F22
s(S'NP'
S'ANMP'
tp214
F4
s(g41
S'PPAP'
tp215
F3
s(S'PP'
S'ADVPPP'
tp216
F1
s(S'VP'
S'VVVP'
tp217
F2
s(S'CP'
S'CADVDPP'
tp218
F6
s(S'NP'
S'ADVADVNNVP'
tp219
F1
s(S'NP'
p220
S'ANCP'
tp221
F17
s(S'DP'
p222
S'DCP'
tp223
F10
s(S'VP'
S'VAAACP'
tp224
F1
s(S'NP'
p225
S'AAANCP'
tp226
F2
s(S'NP'
p227
S'NNVVVVP'
tp228
F1
s(g46
S'DDDP'
tp229
F4
s(g109
S'ANVVP'
tp230
F4
s(S'NP'
S'NVVVVP'
tp231
F1
s(S'NP'
S'NPPP'
tp232
F8
s(S'AP'
S'AAADP'
tp233
F7
s(S'DP'
p234
S'DAVP'
tp235
F2
s(S'NP'
S'NNNNMP'
tp236
F1
s(g107
S'ACP'
tp237
F18
s(S'PP'
S'PADVADVNNP'
tp238
F1
s(S'PP'
p239
S'PPNP'
tp240
F20
s(S'DP'
S'ADVDAPP'
tp241
F1
s(S'CP'
p242
S'CCCDDP'
tp243
F1
s(S'AP'
S'ADP'
tp244
F127
s(S'MP'
S'MADDP'
tp245
F1
s(S'PP'
S'APPAP'
tp246
F1
s(S'VP'
S'VVPPPP'
tp247
F1
s(g19
S'AVDP'
tp248
F3
s(S'VP'
p249
S'VVAP'
tp250
F2
s(g227
S'NPP'
tp251
F86
s(S'VP'
S'ADVADVVAP'
tp252
F1
s(g220
S'NVP'
tp253
F145
s(S'VP'
S'VVNNNNP'
tp254
F1
s(S'VP'
S'VDDP'
tp255
F10
s(S'NP'
S'AANNVP'
tp256
F2
s(g164
S'DADVAPP'
tp257
F3
s(S'NP'
S'ANPP'
tp258
F8
s(S'PP'
S'PPPPP'
tp259
F2
s(S'MP'
S'MPDP'
tp260
F1
s(g183
S'PPPNP'
tp261
F2
s(g113
S'ADDP'
tp262
F1
s(S'CP'
S'CDDDADVPP'
tp263
F1
s(g15
S'CAADPP'
tp264
F4
s(S'DP'
S'DADVADVVP'
tp265
F2
s(g239
S'PNNP'
tp266
F17
s(S'PP'
S'APNNP'
tp267
F1
s(S'VP'
p268
S'AVAP'
tp269
F1
s(g120
S'MMVP'
tp270
F1
s(S'NP'
S'ADVNCP'
tp271
F4
s(S'AP'
S'AADP'
tp272
F19
s(S'CP'
p273
S'ACDP'
tp274
F7
s(S'NP'
S'NNDP'
tp275
F2
s(S'AP'
S'ADVANP'
tp276
F1
s(S'VP'
S'VAP'
tp277
F61
s(S'DP'
p278
S'DDDPP'
tp279
F4
s(g202
S'ADVCDDP'
tp280
F1
s(S'NP'
p281
S'AANNCP'
tp282
F1
s(S'PP'
S'PAAPP'
tp283
F1
s(g73
S'MAVPP'
tp284
F1
s(S'DP'
p285
S'DADVDP'
tp286
F1
s(S'NP'
S'NAAP'
tp287
F3
s(g104
S'PPPVP'
tp288
F1
s(S'AP'
S'APPP'
tp289
F1
s(S'VP'
S'VAANP'
tp290
F1
s(g75
S'VVDP'
tp291
F21
s(S'MP'
S'MADP'
tp292
F2
s(g79
S'PPPDDP'
tp293
F1
s(S'DP'
S'DDADVNP'
tp294
F1
s(g23
S'PANP'
tp295
F12
s(g227
S'NADVDDP'
tp296
F1
s(S'NP'
S'AANMP'
tp297
F2
s(S'AP'
S'AAVP'
tp298
F2
s(S'AP'
S'AVVP'
tp299
F6
s(g185
S'NDDP'
tp300
F2
s(S'AP'
S'ACCP'
tp301
F1
s(S'DP'
S'DDDADVPP'
tp302
F1
s(S'NP'
S'NDP'
tp303
F35
s(S'NP'
p304
S'NNNNVVP'
tp305
F1
s(S'DP'
p306
S'DDVP'
tp307
F15
s(g134
S'AANVP'
tp308
F2
s(g249
S'VNNNP'
tp309
F1
s(S'PP'
S'PCP'
tp310
F7
s(g139
S'VPPPP'
tp311
F2
s(g142
S'NNNDP'
tp312
F2
s(S'AP'
S'ADVACP'
tp313
F1
s(S'AP'
S'ANNNP'
tp314
F1
s(S'NP'
p315
S'NNVP'
tp316
F20
s(S'MP'
S'MVCP'
tp317
F1
s(S'CP'
S'CCDDP'
tp318
F4
s(S'NP'
S'NNADVVP'
tp319
F1
s(S'DP'
S'AAADNP'
tp320
F1
s(S'NP'
S'NAACCP'
tp321
F1
s(S'NP'
p322
S'NNVVP'
tp323
F4
s(g304
S'NNNNVP'
tp324
F1
s(g139
S'VVCP'
tp325
F10
s(S'NP'
S'AANCP'
tp326
F5
s(S'VP'
S'VADVNP'
tp327
F3
s(S'AP'
S'ADVAVVP'
tp328
F1
s(g88
S'AVVPP'
tp329
F1
s(S'PP'
p330
S'APPP'
tp331
F1
s(S'VP'
p332
S'ADVVPP'
tp333
F2
s(S'CP'
S'CDAPPP'
tp334
F1
s(S'VP'
S'VNNP'
tp335
F8
s(S'AP'
S'AADVDP'
tp336
F1
s(g285
S'ADVADDNP'
tp337
F1
s(g46
S'DDNP'
tp338
F15
s(S'CP'
S'ACADVDP'
tp339
F1
s(S'NP'
p340
S'NADVCP'
tp341
F2
s(S'DP'
S'DDNNP'
tp342
F1
s(S'PP'
S'AAPPP'
tp343
F2
s(S'NP'
S'ADVANVP'
tp344
F1
s(g315
S'NNADVAAP'
tp345
F1
s(g278
S'AADPP'
tp346
F4
s(S'NP'
S'NNNNPP'
tp347
F1
s(S'NP'
S'NNAMP'
tp348
F1
s(S'AP'
S'AAMMP'
tp349
F1
s(S'PP'
S'AAPDP'
tp350
F2
s(g134
S'ANVVVP'
tp351
F1
s(S'MP'
S'MVVNP'
tp352
F2
s(S'CP'
S'ACDDP'
tp353
F1
s(S'NP'
S'AANDP'
tp354
F1
s(S'AP'
S'AAPP'
tp355
F2
s(g75
S'VVCCP'
tp356
F2
s(S'DP'
S'DAAAPP'
tp357
F1
s(S'NP'
S'NAPP'
tp358
F2
s(g242
S'ADVADVCADP'
tp359
F1
s(S'NP'
S'ANCCP'
tp360
F2
s(S'NP'
p361
S'AANPP'
tp362
F1
s(S'VP'
p363
S'VDDDP'
tp364
F1
s(S'NP'
S'NNMP'
tp365
F3
s(g285
S'DDDVP'
tp366
F2
s(g330
S'PAAAP'
tp367
F1
s(S'CP'
S'CDDAPP'
tp368
F1
s(S'NP'
p369
S'ANAP'
tp370
F1
s(S'MP'
S'MVAP'
tp371
F7
s(S'PP'
S'PVP'
tp372
F91
s(g33
S'VADVPPP'
tp373
F2
s(g268
S'VADVCCP'
tp374
F1
s(S'MP'
S'MVVVVDDP'
tp375
F1
s(S'NP'
S'ANNCP'
tp376
F2
s(S'PP'
p377
S'PPDDP'
tp378
F2
s(g75
S'AVCP'
tp379
F2
s(g83
S'VAMP'
tp380
F1
s(g144
S'ADVADVPDDP'
tp381
F1
s(g306
S'DPP'
tp382
F220
s(S'NP'
S'ADVNVP'
tp383
F2
s(g212
S'DDPP'
tp384
F34
s(g46
S'DANP'
tp385
F15
s(S'NP'
S'NADVPP'
tp386
F1
s(S'NP'
S'NAAVP'
tp387
F1
s(g151
S'AADNP'
tp388
F1
s(g75
S'VADVCP'
tp389
F1
s(S'NP'
S'NNNNAP'
tp390
F1
s(S'PP'
S'PPAANNP'
tp391
F1
s(S'NP'
S'NNAACP'
tp392
F1
s(g281
S'NNNVVP'
tp393
F1
s(g322
S'NNP'
tp394
F1
s(g204
S'DCCP'
tp395
F2
s(S'DP'
S'AADDP'
tp396
F1
s(S'CP'
p397
S'CDPPPPP'
tp398
F1
s(S'MP'
S'MADVVDP'
tp399
F3
s(g44
S'PDDP'
tp400
F17
s(S'MP'
S'MVDDP'
tp401
F3
s(S'PP'
S'ADVAPNP'
tp402
F1
s(S'DP'
S'ADPPP'
tp403
F1
s(g361
S'NAANP'
tp404
F1
s(S'VP'
S'VVDDP'
tp405
F1
s(S'DP'
S'DAANP'
tp406
F5
s(S'MP'
S'MDADVNP'
tp407
F1
s(S'AP'
p408
S'ADDP'
tp409
F11
s(S'PP'
S'PNNNNP'
tp410
F1
s(g23
S'ADVPPNP'
tp411
F2
s(g369
S'ADVADVADVANNVP'
tp412
F1
s(S'CP'
S'CADVADVDPP'
tp413
F2
s(g278
S'DPPP'
tp414
F32
s(S'DP'
S'ADVDDMP'
tp415
F1
s(S'DP'
S'DAVVP'
tp416
F1
s(S'VP'
S'VANNP'
tp417
F2
s(g377
S'ADVPNP'
tp418
F4
s(g183
S'PPDP'
tp419
F9
s(g397
S'CCDDDDDP'
tp420
F1
s(S'VP'
S'ADVVVADVDP'
tp421
F1
s(g285
S'DDCP'
tp422
F1
s(g363
S'VADVADDP'
tp423
F1
s(S'PP'
S'PAANNP'
tp424
F1
s(g340
S'NAP'
tp425
F39
s(S'NP'
S'NNAAP'
tp426
F1
s(S'DP'
S'ADCCP'
tp427
F1
s(S'VP'
S'VVP'
tp428
F13
s(S'MP'
S'MDNNNP'
tp429
F1
s(g64
S'DDAPP'
tp430
F1
s(g144
S'ADVADVPVP'
tp431
F1
s(g183
S'PADVADVANP'
tp432
F1
s(g194
S'APNP'
tp433
F6
s(g62
S'DDVVP'
tp434
F2
s(S'VP'
p435
S'VVVNP'
tp436
F1
s(S'MP'
S'MVANP'
tp437
F2
s(S'MP'
S'MVNNP'
tp438
F1
s(g273
S'CDPP'
tp439
F197
s(S'CP'
S'AAACDP'
tp440
F1
s(S'AP'
S'ADDDP'
tp441
F1
s(S'VP'
S'VVAANP'
tp442
F2
s(S'CP'
p443
S'ADVCDP'
tp444
F2
s(S'AP'
S'ADVAAP'
tp445
F1
s(S'VP'
S'ADVADVVNP'
tp446
F3
s(S'VP'
S'ADVADVVCP'
tp447
F1
s(S'PP'
S'PPNNP'
tp448
F3
s(S'CP'
S'CAADDPP'
tp449
F1
s(S'DP'
S'ADVADVDPP'
tp450
F3
s(g33
S'VDP'
tp451
F109
s(S'NP'
S'AAANCCP'
tp452
F1
s(g222
S'DADVNP'
tp453
F3
s(S'DP'
S'DAP'
tp454
F12
s(S'CP'
S'CADPP'
tp455
F11
s(S'VP'
p456
S'AVPP'
tp457
F1
s(S'MP'
S'AMVVP'
tp458
F1
s(S'CP'
S'CDPPPP'
tp459
F1
s(S'PP'
S'PPAADP'
tp460
F1
s(S'VP'
S'AAVDP'
tp461
F1
s(S'DP'
S'AADNNP'
tp462
F1
s(S'VP'
S'VAAAPPP'
tp463
F1
s(S'MP'
S'MVANNP'
tp464
F1
s(g113
S'DAPPP'
tp465
F1
s(g285
S'DADVADVPP'
tp466
F1
s(S'DP'
S'DMP'
tp467
F1
s(S'DP'
S'ADVDPP'
tp468
F10
s(g278
S'ADPP'
tp469
F16
s(S'CP'
S'CDDPPP'
tp470
F2
s(S'DP'
S'ADVDANP'
tp471
F1
s(g60
S'ADVPVP'
tp472
F1
s(S'NP'
S'NADVADVADVVVP'
tp473
F1
s(g340
S'ADVADVANCP'
tp474
F1
s(S'PP'
S'ADVPDP'
tp475
F1
s(S'PP'
S'PAAVP'
tp476
F1
s(S'NP'
S'ADVNNPP'
tp477
F1
s(g66
S'NCP'
tp478
F154
s(S'CP'
S'CADVDPPP'
tp479
F2
s(S'AP'
S'AAAP'
tp480
F4
s(S'PP'
S'PPAAAP'
tp481
F1
s(g123
S'ADVPDDP'
tp482
F1
s(g96
S'DDDDDPP'
tp483
F1
s(S'DP'
S'DADVNNP'
tp484
F1
s(S'NP'
S'NNCCP'
tp485
F1
s(S'MP'
S'MNVP'
tp486
F7
s(S'NP'
S'AANAP'
tp487
F1
s(g456
S'VAPP'
tp488
F2
s(g332
S'ADVVDP'
tp489
F12
s(g234
S'DADVPP'
tp490
F6
s(S'AP'
S'AMP'
tp491
F1
s(S'CP'
S'CCADP'
tp492
F2
s(S'MP'
S'MAVVPP'
tp493
F1
s(S'NP'
S'NNNPPP'
tp494
F1
s(S'AP'
S'ADVAPP'
tp495
F3
s(S'AP'
S'ADVAADVADVVP'
tp496
F1
s(S'CP'
S'AACDP'
tp497
F1
s(S'DP'
S'ADVDPPP'
tp498
F2
s(g11
S'DVP'
tp499
F114
s(S'VP'
S'ADVVAP'
tp500
F1
s(g190
S'NNCCCP'
tp501
F1
s(g408
S'AVP'
tp502
F9
s(g225
S'NADVVP'
tp503
F9
s(S'CP'
S'CDAAAPP'
tp504
F1
s(S'DP'
S'DDPPP'
tp505
F2
s(S'NP'
S'ADVNMP'
tp506
F3
s(S'NP'
S'NNAP'
tp507
F5
s(g443
S'CDADVPP'
tp508
F4
s(g435
S'VNP'
tp509
F109
s(S'VP'
S'VANP'
tp510
F11
s(S'VP'
S'VADVAP'
tp511
F5
s(g123
S'PPADVNP'
tp512
F1
s(S'NP'
S'AANNAP'
tp513
F1
s.