ccollections
defaultdict
p1
(c__builtin__
float
p2
tRp3
(S'MP'
S'MMDP'
tp4
F2
s(S'PP'
S'ADVADVPPAP'
tp5
F1
s(S'CP'
S'CAAADPP'
tp6
F1
s(S'PP'
p7
S'PAAANP'
tp8
F3
s(S'DP'
p9
S'ADDPP'
tp10
F1
s(S'VP'
S'ADVVVNP'
tp11
F2
s(S'VP'
S'VVVVP'
tp12
F3
s(S'VP'
p13
S'AAAAVAP'
tp14
F1
s(S'PP'
p15
S'PAPP'
tp16
F5
s(S'DP'
S'ADVDDPPPP'
tp17
F1
s(S'PP'
p18
S'PADVNP'
tp19
F18
s(S'DP'
p20
S'DNP'
tp21
F314
s(S'NP'
S'ADVNDP'
tp22
F3
s(S'VP'
S'ADVVNNP'
tp23
F3
s(S'CP'
S'CDPPP'
tp24
F77
s(S'VP'
p25
S'VADP'
tp26
F14
s(S'DP'
S'DNNNNP'
tp27
F1
s(S'CP'
p28
S'ACADVADVDP'
tp29
F1
s(S'CP'
S'CDAAPPP'
tp30
F1
s(S'DP'
S'DAAP'
tp31
F3
s(S'PP'
S'PPAVP'
tp32
F1
s(S'PP'
S'PPPPPP'
tp33
F1
s(S'DP'
p34
S'ADNNP'
tp35
F1
s(S'MP'
S'MDVP'
tp36
F4
s(S'PP'
p37
S'APVP'
tp38
F12
s(S'MP'
S'MVDP'
tp39
F34
s(S'CP'
S'AAACCDP'
tp40
F1
s(S'NP'
S'AANNPP'
tp41
F1
s(S'PP'
p42
S'PPPP'
tp43
F40
s(S'NP'
S'NNNDDDDDP'
tp44
F1
s(S'DP'
S'DDDNP'
tp45
F3
s(S'MP'
S'MMADVVP'
tp46
F1
s(S'PP'
p47
S'PPAAP'
tp48
F1
s(S'DP'
S'DADVVP'
tp49
F6
s(S'VP'
S'ADVADVVDDP'
tp50
F1
s(S'VP'
p51
S'VVADDP'
tp52
F1
s(S'AP'
S'ANNP'
tp53
F1
s(S'VP'
p54
S'AAVVP'
tp55
F1
s(S'NP'
S'NADVVVP'
tp56
F7
s(S'CP'
S'CADVADVDDPP'
tp57
F1
s(S'VP'
p58
S'VCP'
tp59
F132
s(S'MP'
S'MVVANP'
tp60
F1
s(S'NP'
S'NMMP'
tp61
F8
s(S'VP'
p62
S'VVAANNP'
tp63
F1
s(S'VP'
S'ADVVAAP'
tp64
F2
s(S'VP'
S'ADVVCCP'
tp65
F4
s(S'PP'
p66
S'PAP'
tp67
F110
s(S'MP'
S'MADVVCCP'
tp68
F2
s(S'MP'
S'MMVVP'
tp69
F2
s(S'VP'
p70
S'VADVADVAP'
tp71
F1
s(S'PP'
p72
S'ADVPPVP'
tp73
F1
s(S'NP'
p74
S'NNNAP'
tp75
F3
s(S'NP'
S'ANPPP'
tp76
F3
s(S'PP'
S'PPADVDP'
tp77
F2
s(g42
S'PNP'
tp78
F367
s(S'VP'
S'VVADVNNP'
tp79
F1
s(S'NP'
S'ADVNAAMMP'
tp80
F1
s(S'DP'
p81
S'DDP'
tp82
F58
s(S'NP'
S'ANNNVP'
tp83
F1
s(S'VP'
S'ADVVDDP'
tp84
F1
s(S'NP'
S'NNNPP'
tp85
F5
s(S'VP'
S'VCCP'
tp86
F14
s(S'MP'
S'MCDP'
tp87
F9
s(S'PP'
p88
S'ADVPCP'
tp89
F1
s(S'MP'
S'MADVANVP'
tp90
F1
s(S'MP'
S'MNAP'
tp91
F1
s(S'NP'
p92
S'NMP'
tp93
F134
s(S'VP'
S'AAVNP'
tp94
F1
s(g70
S'VMMP'
tp95
F5
s(S'PP'
p96
S'PDP'
tp97
F250
s(S'PP'
p98
S'PPADVVP'
tp99
F3
s(S'NP'
p100
S'ADVNVVP'
tp101
F2
s(S'VP'
S'VNNNNP'
tp102
F4
s(S'CP'
S'CDADVADVPPP'
tp103
F2
s(S'VP'
p104
S'AVAAP'
tp105
F1
s(S'MP'
S'MADVAPP'
tp106
F1
s(S'VP'
S'AVVAP'
tp107
F1
s(S'AP'
S'ANP'
tp108
F4
s(S'PP'
S'ADVPAAP'
tp109
F1
s(S'PP'
S'PADVPP'
tp110
F2
s(S'VP'
S'AAVPP'
tp111
F3
s(S'VP'
S'VVADVNP'
tp112
F2
s(S'NP'
S'ADVANCP'
tp113
F3
s(S'DP'
p114
S'DPPPP'
tp115
F10
s(g9
S'DDANP'
tp116
F2
s(S'PP'
S'PADVADP'
tp117
F1
s(S'NP'
S'NACP'
tp118
F16
s(S'AP'
S'ADVAVP'
tp119
F3
s(g74
S'NCCP'
tp120
F82
s(S'MP'
S'MVVADVNP'
tp121
F1
s(S'VP'
S'VANNP'
tp122
F1
s(S'CP'
S'CADVDDPP'
tp123
F3
s(S'NP'
S'NNCP'
tp124
F113
s(S'DP'
S'ADVDDPP'
tp125
F3
s(S'DP'
S'DDDDP'
tp126
F4
s(S'DP'
S'DDAPP'
tp127
F3
s(S'VP'
p128
S'AVNP'
tp129
F11
s(S'PP'
p130
S'APPPPPPP'
tp131
F1
s(S'NP'
S'ADVNDDP'
tp132
F1
s(S'PP'
S'PADVADVDP'
tp133
F1
s(S'VP'
p134
S'VVMP'
tp135
F5
s(S'VP'
S'ADVADVAVNP'
tp136
F1
s(S'VP'
S'VADVVP'
tp137
F1
s(S'MP'
S'MADVVNNP'
tp138
F2
s(S'VP'
S'ADVVAP'
tp139
F6
s(S'VP'
S'VCCCP'
tp140
F2
s(S'PP'
p141
S'APDP'
tp142
F15
s(S'NP'
S'AANNCCP'
tp143
F1
s(S'NP'
S'NNAMP'
tp144
F1
s(S'NP'
p145
S'NNADVNNP'
tp146
F1
s(S'VP'
S'VVANP'
tp147
F3
s(g37
S'ADVPNNP'
tp148
F1
s(S'VP'
S'ADVVVP'
tp149
F1
s(S'CP'
S'ADVACDP'
tp150
F1
s(S'NP'
S'NNMMMMP'
tp151
F1
s(S'MP'
S'MADVVNP'
tp152
F3
s(S'PP'
p153
S'PAAP'
tp154
F16
s(S'MP'
S'MPNNP'
tp155
F1
s(S'NP'
p156
S'NANP'
tp157
F5
s(S'DP'
S'DNNP'
tp158
F72
s(S'VP'
S'ADVVAANP'
tp159
F1
s(S'DP'
S'DPPPPP'
tp160
F2
s(S'CP'
S'CDDPPPP'
tp161
F3
s(S'CP'
S'CCADVDP'
tp162
F7
s(S'VP'
S'VVNNNP'
tp163
F3
s(S'VP'
S'VVACP'
tp164
F1
s(S'DP'
S'ADDNP'
tp165
F1
s(S'NP'
S'NNNVP'
tp166
F7
s(g141
S'PAAVVP'
tp167
F2
s(S'PP'
p168
S'AAPPDP'
tp169
F1
s(S'PP'
S'PADVVP'
tp170
F7
s(S'PP'
p171
S'APAP'
tp172
F3
s(S'MP'
S'ADVMAAAAVP'
tp173
F1
s(S'CP'
p174
S'ADVADVCDP'
tp175
F1
s(S'NP'
S'AAANNPP'
tp176
F1
s(S'NP'
S'NADVMP'
tp177
F1
s(S'AP'
S'AAP'
tp178
F18
s(S'VP'
S'VADVADVVP'
tp179
F1
s(S'CP'
S'CADVADPP'
tp180
F1
s(g100
S'ADVADVNDP'
tp181
F1
s(S'MP'
S'MNAAP'
tp182
F1
s(S'NP'
S'ADVANPP'
tp183
F1
s(S'MP'
p184
S'MVVCP'
tp185
F3
s(S'DP'
S'DAAVP'
tp186
F5
s(S'CP'
p187
S'CDDDDPP'
tp188
F2
s(S'MP'
S'MACCP'
tp189
F1
s(g153
S'PAANP'
tp190
F9
s(S'VP'
S'VADVADVCP'
tp191
F1
s(S'VP'
S'VVVANP'
tp192
F2
s(S'PP'
S'PPVVP'
tp193
F5
s(S'VP'
S'VAACP'
tp194
F2
s(S'MP'
S'MVNP'
tp195
F42
s(S'AP'
S'AADVNP'
tp196
F1
s(S'AP'
S'ADVAADP'
tp197
F1
s(S'DP'
S'ADVADNP'
tp198
F2
s(S'PP'
S'PAVP'
tp199
F13
s(S'CP'
S'CDADVADVPP'
tp200
F3
s(S'VP'
S'ADVVMP'
tp201
F1
s(S'VP'
S'VVVPP'
tp202
F3
s(S'NP'
S'NNADP'
tp203
F1
s(S'AP'
S'AAADVADVDDP'
tp204
F1
s(S'MP'
S'MADVVPP'
tp205
F3
s(S'DP'
p206
S'DADP'
tp207
F1
s(S'VP'
S'VVAANP'
tp208
F1
s(S'AP'
S'ADVADP'
tp209
F8
s(S'AP'
S'APP'
tp210
F37
s(S'DP'
S'ADVDDP'
tp211
F1
s(g15
S'APDDP'
tp212
F2
s(S'DP'
S'DDVVVVP'
tp213
F1
s(S'NP'
S'ADVNAP'
tp214
F3
s(S'DP'
S'DDDDVVP'
tp215
F1
s(S'PP'
S'PPCP'
tp216
F1
s(S'AP'
S'ACCCP'
tp217
F3
s(S'VP'
S'ADVVNP'
tp218
F25
s(S'MP'
S'MNNCP'
tp219
F1
s(S'MP'
p220
S'MNCP'
tp221
F5
s(S'NP'
p222
S'ADVADVNVVVVP'
tp223
F1
s(S'VP'
p224
S'VVNP'
tp225
F56
s(S'PP'
S'ADVPAVP'
tp226
F1
s(S'PP'
S'PPPNNP'
tp227
F1
s(g42
S'PPVP'
tp228
F47
s(S'MP'
S'MPCP'
tp229
F2
s(S'VP'
p230
S'VADVDP'
tp231
F5
s(S'VP'
S'VVADVAP'
tp232
F1
s(g224
S'VAAP'
tp233
F22
s(S'NP'
p234
S'NNADVAVP'
tp235
F1
s(g156
S'ANDP'
tp236
F13
s(S'NP'
S'NVVP'
tp237
F80
s(S'PP'
S'AAPVP'
tp238
F3
s(S'CP'
p239
S'CADVADVADPP'
tp240
F1
s(S'VP'
p241
S'VMP'
tp242
F30
s(g62
S'VVNNP'
tp243
F14
s(S'CP'
p244
S'CDAPP'
tp245
F20
s(S'VP'
p246
S'VVAAP'
tp247
F1
s(S'MP'
S'MMPP'
tp248
F2
s(S'DP'
S'ADVADVP'
tp249
F1
s(S'DP'
S'ADNP'
tp250
F11
s(S'VP'
S'AVVDP'
tp251
F2
s(S'NP'
S'AANPP'
tp252
F3
s(S'NP'
S'ADVNNAAP'
tp253
F1
s(S'VP'
p254
S'VVVVCP'
tp255
F2
s(S'DP'
S'DDAAAPP'
tp256
F1
s(S'VP'
S'ADVVVCP'
tp257
F1
s(S'NP'
S'ANDDP'
tp258
F2
s(S'MP'
S'MPADVNP'
tp259
F1
s(S'DP'
S'DADVAP'
tp260
F3
s(S'DP'
S'ADVDAANP'
tp261
F1
s(S'DP'
p262
S'DAPP'
tp263
F34
s(S'VP'
S'AVVP'
tp264
F1
s(S'NP'
S'NAAACP'
tp265
F1
s(S'VP'
S'VADVAAP'
tp266
F1
s(g100
S'NNNAVP'
tp267
F1
s(S'PP'
S'AAAPVP'
tp268
F1
s(S'VP'
S'ADVADVVDP'
tp269
F7
s(S'VP'
S'AVVNP'
tp270
F1
s(S'PP'
p271
S'PPPDP'
tp272
F2
s(S'DP'
S'DAAPPP'
tp273
F2
s(S'PP'
S'AAAPDP'
tp274
F1
s(S'MP'
S'MVVAP'
tp275
F3
s(S'DP'
S'DAAANP'
tp276
F2
s(S'DP'
S'DADVANP'
tp277
F1
s(S'VP'
S'VAAPP'
tp278
F1
s(S'DP'
S'ADVDNP'
tp279
F2
s(S'VP'
S'VVPP'
tp280
F21
s(S'MP'
S'AAMMVP'
tp281
F1
s(S'PP'
S'PAVVP'
tp282
F1
s(S'MP'
S'MVPP'
tp283
F16
s(S'DP'
p284
S'ADVP'
tp285
F6
s(S'MP'
S'MVADP'
tp286
F2
s(g174
S'CDDPPP'
tp287
F9
s(g168
S'PPAVVP'
tp288
F1
s(S'MP'
p289
S'ADVMVVP'
tp290
F1
s(S'NP'
S'AANCCP'
tp291
F1
s(S'CP'
S'CCCADVDP'
tp292
F1
s(S'MP'
S'MVVDP'
tp293
F2
s(g34
S'DADVPPP'
tp294
F1
s(S'NP'
S'NNNMMP'
tp295
F3
s(S'DP'
S'DNNNP'
tp296
F15
s(S'NP'
p297
S'NADVMMP'
tp298
F1
s(S'PP'
S'PVVVP'
tp299
F6
s(S'PP'
S'PMP'
tp300
F22
s(S'NP'
p301
S'NNMMP'
tp302
F2
s(S'CP'
S'CCDP'
tp303
F134
s(S'NP'
p304
S'ANNDP'
tp305
F1
s(g13
S'ADVVADP'
tp306
F1
s(S'VP'
S'VADVANP'
tp307
F3
s(S'PP'
S'PPNNNP'
tp308
F1
s(S'DP'
S'AADDPP'
tp309
F1
s(S'NP'
S'NVVVP'
tp310
F7
s(S'CP'
S'CDDDPP'
tp311
F11
s(S'CP'
S'CDAAPP'
tp312
F8
s(S'VP'
S'VVVDP'
tp313
F7
s(S'PP'
S'PDDDDP'
tp314
F1
s(S'PP'
S'PNNNP'
tp315
F8
s(S'PP'
S'PAAACCP'
tp316
F1
s(S'PP'
p317
S'AAPNP'
tp318
F2
s(S'AP'
S'ADVAAAP'
tp319
F1
s(g104
S'ADVVVDP'
tp320
F1
s(S'PP'
p321
S'PPP'
tp322
F135
s(S'NP'
p323
S'NNADVDP'
tp324
F1
s(S'NP'
S'NAVP'
tp325
F14
s(S'PP'
S'PADVAP'
tp326
F2
s(S'DP'
S'DDNNNP'
tp327
F1
s(S'DP'
S'ADVADVADVDNNP'
tp328
F1
s(g171
S'PADDP'
tp329
F2
s(S'NP'
S'NDDDP'
tp330
F1
s(S'DP'
S'ADVDVP'
tp331
F3
s(S'NP'
S'NAAAP'
tp332
F1
s(g304
S'NCCCP'
tp333
F3
s(S'DP'
S'DADVADVPPP'
tp334
F3
s(S'AP'
p335
S'AADVVP'
tp336
F2
s(S'PP'
p337
S'PPPPDP'
tp338
F2
s(S'DP'
p339
S'ADVADVDNP'
tp340
F2
s(S'VP'
p341
S'VPP'
tp342
F135
s(S'CP'
S'ADVCCDP'
tp343
F1
s(g301
S'NNNCP'
tp344
F10
s(g96
S'PADVDP'
tp345
F3
s(S'CP'
p346
S'CDDDPPP'
tp347
F1
s(S'PP'
S'PADVAAP'
tp348
F1
s(S'CP'
S'CDDPP'
tp349
F94
s(S'DP'
p350
S'DAAPP'
tp351
F12
s(g18
S'PVVP'
tp352
F55
s(S'CP'
S'CADPPP'
tp353
F2
s(S'AP'
S'AACP'
tp354
F9
s(S'MP'
S'MADVVAAP'
tp355
F1
s(S'MP'
S'MAVCP'
tp356
F1
s(S'VP'
S'ADVVCP'
tp357
F6
s(S'MP'
S'MCCDP'
tp358
F1
s(S'VP'
S'VPPP'
tp359
F15
s(S'VP'
S'VVPPP'
tp360
F4
s(S'MP'
S'MMPPP'
tp361
F1
s(S'PP'
S'PPAP'
tp362
F8
s(g114
S'DVVP'
tp363
F57
s(S'PP'
S'PADVAVP'
tp364
F2
s(S'MP'
p365
S'ADVMVP'
tp366
F1
s(S'NP'
S'ANMP'
tp367
F2
s(S'AP'
S'APPP'
tp368
F4
s(g88
S'ADVPPP'
tp369
F6
s(S'VP'
S'VVVP'
tp370
F9
s(g284
S'DDPPPP'
tp371
F3
s(S'VP'
S'AVMP'
tp372
F1
s(S'NP'
S'ANCP'
tp373
F33
s(g350
S'DCP'
tp374
F26
s(S'VP'
S'VAAACP'
tp375
F2
s(S'NP'
S'AAANCP'
tp376
F3
s(S'DP'
S'DAAVVP'
tp377
F1
s(S'VP'
S'AAVVCP'
tp378
F1
s(S'DP'
S'DDDP'
tp379
F18
s(S'AP'
S'ADDDDP'
tp380
F1
s(S'DP'
S'DDADVPP'
tp381
F3
s(S'MP'
S'MVVCCP'
tp382
F1
s(S'MP'
S'MAADP'
tp383
F5
s(S'NP'
p384
S'ANVVP'
tp385
F6
s(g230
S'VVDP'
tp386
F67
s(S'NP'
S'NPPP'
tp387
F24
s(S'PP'
S'PPAPP'
tp388
F2
s(S'VP'
S'VAAAADP'
tp389
F1
s(S'DP'
S'DAVP'
tp390
F10
s(S'NP'
S'NNNMP'
tp391
F4
s(S'NP'
S'NNNNMP'
tp392
F1
s(S'AP'
S'ACP'
tp393
F57
s(S'PP'
S'AAPAP'
tp394
F1
s(g271
S'PPNP'
tp395
F68
s(S'AP'
S'ADVACCP'
tp396
F1
s(S'NP'
S'NAADP'
tp397
F1
s(S'DP'
S'ADVDAPP'
tp398
F2
s(S'MP'
S'MMMMVP'
tp399
F1
s(S'DP'
S'AADVP'
tp400
F2
s(S'NP'
S'NNNNCCP'
tp401
F2
s(S'MP'
S'MADNP'
tp402
F1
s(S'CP'
S'CDDADVPP'
tp403
F2
s(S'CP'
S'CCCDDP'
tp404
F1
s(S'AP'
S'ADP'
tp405
F310
s(S'CP'
S'CADVDPP'
tp406
F23
s(S'DP'
S'ADDVVP'
tp407
F1
s(S'PP'
S'APVVP'
tp408
F1
s(S'DP'
S'ADVDAAPP'
tp409
F1
s(S'DP'
S'AAAADPP'
tp410
F1
s(S'VP'
S'VAAANP'
tp411
F1
s(S'DP'
p412
S'DVVVVP'
tp413
F3
s(S'PP'
S'PPPPNNP'
tp414
F1
s(S'MP'
S'MMNNP'
tp415
F1
s(S'AP'
S'AAADP'
tp416
F6
s(g241
S'VVAP'
tp417
F27
s(S'NP'
S'NNAPP'
tp418
F1
s(S'MP'
S'MNADVVP'
tp419
F3
s(S'PP'
S'ADVPPADVNP'
tp420
F1
s(S'MP'
S'MDDVP'
tp421
F1
s(S'VP'
S'AAVCP'
tp422
F1
s(S'NP'
S'NPP'
tp423
F193
s(S'VP'
S'ADVADVVAP'
tp424
F1
s(S'NP'
p425
S'NVP'
tp426
F385
s(S'MP'
S'MNACP'
tp427
F1
s(S'PP'
S'PAAVP'
tp428
F1
s(S'NP'
S'NAAPP'
tp429
F3
s(g130
S'PPPPVP'
tp430
F2
s(S'MP'
S'ADVMMVP'
tp431
F1
s(S'PP'
p432
S'ADVADVPPAAP'
tp433
F1
s(S'VP'
S'VDDP'
tp434
F41
s(S'NP'
S'AANNVP'
tp435
F2
s(S'DP'
p436
S'DADVADVADP'
tp437
F1
s(S'DP'
S'DMP'
tp438
F5
s(g432
S'ADVAPAP'
tp439
F1
s(S'DP'
S'AADDNP'
tp440
F1
s(S'NP'
S'ANPP'
tp441
F12
s(S'PP'
S'ADVPPDP'
tp442
F1
s(S'PP'
S'PPPPP'
tp443
F2
s(g220
S'MPDP'
tp444
F5
s(S'PP'
S'ADVADVPDP'
tp445
F1
s(S'MP'
S'MVVPP'
tp446
F1
s(S'VP'
S'AAVVNP'
tp447
F1
s(S'DP'
S'ADVDPP'
tp448
F35
s(g301
S'NNMMMP'
tp449
F1
s(S'DP'
S'DDDDDP'
tp450
F1
s(S'PP'
S'PPVVVVP'
tp451
F1
s(S'NP'
S'NPPPP'
tp452
F2
s(S'DP'
S'ADDP'
tp453
F2
s(S'CP'
S'CAADPP'
tp454
F8
s(g141
S'PNNP'
tp455
F78
s(S'VP'
S'VADVACP'
tp456
F1
s(S'MP'
p457
S'MMNP'
tp458
F5
s(S'DP'
S'AAADPP'
tp459
F1
s(S'VP'
S'AVAP'
tp460
F3
s(S'MP'
S'MMVP'
tp461
F8
s(S'CP'
S'CADVDAAPP'
tp462
F1
s(g301
S'ADVNCP'
tp463
F7
s(S'AP'
p464
S'AADP'
tp465
F55
s(S'VP'
S'VAPPP'
tp466
F1
s(S'CP'
S'ACDP'
tp467
F15
s(g301
S'NNDP'
tp468
F22
s(S'AP'
S'ADVANP'
tp469
F1
s(g289
S'MDNNP'
tp470
F2
s(g28
S'CDADVPPP'
tp471
F1
s(g341
S'VAP'
tp472
F177
s(S'VP'
S'VVVVNP'
tp473
F2
s(S'MP'
S'MNVVP'
tp474
F6
s(S'DP'
S'DDDPP'
tp475
F18
s(S'NP'
S'AANNCP'
tp476
F2
s(S'PP'
S'ADVPMP'
tp477
F1
s(g246
S'VADVMP'
tp478
F1
s(S'PP'
S'PAAPP'
tp479
F1
s(S'NP'
S'NNADVADVAAP'
tp480
F1
s(S'MP'
S'MVVVANP'
tp481
F1
s(S'AP'
S'AAVVP'
tp482
F1
s(S'MP'
S'MMAAP'
tp483
F1
s(g114
S'DDDPPP'
tp484
F2
s(g54
S'ADVAVDP'
tp485
F1
s(S'DP'
S'DADVDP'
tp486
F2
s(S'NP'
S'ADVADVANCCP'
tp487
F1
s(S'AP'
S'AAACP'
tp488
F1
s(S'AP'
S'AVVP'
tp489
F4
s(S'PP'
S'PPPVP'
tp490
F5
s(S'AP'
S'AADDP'
tp491
F5
s(S'NP'
S'ANNVVP'
tp492
F1
s(S'VP'
S'VADVADVADVCP'
tp493
F1
s(S'VP'
S'VAANP'
tp494
F6
s(g234
S'NVVVVP'
tp495
F1
s(S'MP'
S'MPNP'
tp496
F5
s(g241
S'VVAADP'
tp497
F1
s(S'MP'
p498
S'MADP'
tp499
F7
s(g42
S'PPPDDP'
tp500
F2
s(S'AP'
S'AMMP'
tp501
F2
s(S'MP'
S'MPADP'
tp502
F1
s(S'DP'
S'DDADVNP'
tp503
F2
s(g317
S'PANP'
tp504
F22
s(g98
S'PDDDP'
tp505
F5
s(S'DP'
S'ADVADPP'
tp506
F1
s(g323
S'AANMP'
tp507
F1
s(S'AP'
S'AAVP'
tp508
F10
s(g92
S'NAAP'
tp509
F13
s(S'NP'
S'NDDP'
tp510
F16
s(S'NP'
S'NADVCCP'
tp511
F1
s(S'NP'
S'ADVNMMMP'
tp512
F1
s(S'AP'
S'ACCP'
tp513
F14
s(S'VP'
p514
S'VVVVAP'
tp515
F2
s(g425
S'NDP'
tp516
F124
s(S'NP'
S'AAANVP'
tp517
F1
s(S'NP'
S'NNADVADVDP'
tp518
F1
s(S'MP'
S'MVAAP'
tp519
F3
s(g20
S'DDVP'
tp520
F42
s(S'VP'
S'ADVVAAANP'
tp521
F1
s(S'NP'
S'AANVP'
tp522
F9
s(S'VP'
p523
S'ADVVVNNP'
tp524
F1
s(g284
S'ADDVP'
tp525
F3
s(S'VP'
S'VNNNP'
tp526
F7
s(S'PP'
p527
S'ADVADVADVADVPCP'
tp528
F1
s(S'NP'
S'NNNNVVP'
tp529
F2
s(S'PP'
S'PCP'
tp530
F19
s(S'VP'
S'VADVADP'
tp531
F2
s(g18
S'PAADP'
tp532
F4
s(g145
S'ADVNNVP'
tp533
F1
s(g254
S'ADVAVNNP'
tp534
F1
s(S'VP'
S'VPPPP'
tp535
F1
s(S'NP'
S'NNNDP'
tp536
F5
s(S'AP'
S'ADVANNNP'
tp537
F1
s(g335
S'ADVACP'
tp538
F10
s(S'DP'
S'DADVADVAVP'
tp539
F1
s(S'VP'
S'VVVAP'
tp540
F1
s(S'DP'
S'ADPPP'
tp541
F5
s(S'MP'
S'MVCP'
tp542
F12
s(g425
S'NCP'
tp543
F326
s(S'PP'
S'PADVANP'
tp544
F1
s(S'CP'
S'CCDDP'
tp545
F14
s(S'NP'
S'NNADVVP'
tp546
F6
s(S'NP'
S'NNVVP'
tp547
F6
s(S'NP'
S'NAAMP'
tp548
F1
s(S'NP'
S'NNNNVP'
tp549
F2
s(S'VP'
p550
S'VVCP'
tp551
F25
s(S'NP'
p552
S'AANCP'
tp553
F11
s(g550
S'VDP'
tp554
F330
s(S'NP'
S'ADVNMMP'
tp555
F1
s(S'NP'
S'NNDDP'
tp556
F4
s(S'VP'
S'ADVVPP'
tp557
F6
s(S'CP'
S'CDAPPP'
tp558
F1
s(g341
S'VNNP'
tp559
F53
s(g92
S'ANVP'
tp560
F25
s(S'AP'
S'AADVDP'
tp561
F3
s(g297
S'NADP'
tp562
F1
s(S'DP'
S'DDNP'
tp563
F54
s(S'NP'
S'NADVCP'
tp564
F10
s(g262
S'DDNNP'
tp565
F10
s(S'PP'
S'AAPPP'
tp566
F1
s(S'VP'
S'VPPPPP'
tp567
F1
s(S'NP'
S'ADVANVP'
tp568
F4
s(S'DP'
p569
S'AADPP'
tp570
F12
s(S'PP'
S'PADP'
tp571
F7
s(S'VP'
p572
S'VVMMP'
tp573
F2
s(S'NP'
S'NNNP'
tp574
F1
s(S'MP'
S'MAVAP'
tp575
F1
s(S'CP'
S'CDPPPPP'
tp576
F1
s(S'MP'
S'MVVNP'
tp577
F3
s(S'CP'
S'CDDADVPPP'
tp578
F1
s(g339
S'ADVDNNP'
tp579
F2
s(S'CP'
S'ACDDP'
tp580
F2
s(S'PP'
S'PPPPDDP'
tp581
F1
s(S'DP'
S'DDDDDPP'
tp582
F1
s(S'DP'
S'ADVDCCP'
tp583
F1
s(S'AP'
S'AAPP'
tp584
F8
s(S'VP'
S'VVCCP'
tp585
F8
s(g141
S'APPNP'
tp586
F4
s(S'DP'
S'DAAAPP'
tp587
F2
s(g222
S'NNPPP'
tp588
F3
s(S'AP'
S'ADVANNP'
tp589
F1
s(g51
S'VVVCCP'
tp590
F1
s(S'NP'
S'NAPP'
tp591
F3
s(S'PP'
S'APPVP'
tp592
F1
s(S'AP'
S'ADVADVADP'
tp593
F1
s(g92
S'NADVDP'
tp594
F6
s(S'VP'
S'VVVCP'
tp595
F1
s(S'CP'
S'ADVADVCADP'
tp596
F1
s(S'NP'
S'ANCCP'
tp597
F9
s(S'NP'
S'ADVNCCP'
tp598
F1
s(S'NP'
S'NNCCP'
tp599
F23
s(S'NP'
S'NNMP'
tp600
F17
s(S'DP'
S'DDDVP'
tp601
F2
s(S'MP'
S'MCCADVDP'
tp602
F1
s(S'CP'
S'CADDPP'
tp603
F1
s(S'PP'
S'PAAAP'
tp604
F1
s(S'PP'
S'ADVADVPNP'
tp605
F1
s(g47
S'PPPAP'
tp606
F1
s(S'CP'
S'CDDAPP'
tp607
F2
s(S'NP'
S'ANAP'
tp608
F7
s(g220
S'MVAP'
tp609
F19
s(g321
S'PVP'
tp610
F263
s(S'VP'
S'VADVPPP'
tp611
F1
s(S'DP'
S'DADVAVP'
tp612
F1
s(S'VP'
S'AVVCCP'
tp613
F1
s(S'MP'
S'AAMVP'
tp614
F1
s(S'VP'
S'VVVVDP'
tp615
F1
s(S'PP'
S'APPPP'
tp616
F1
s(S'NP'
S'ANVVVVP'
tp617
F1
s(S'DP'
S'DVVVP'
tp618
F6
s(S'NP'
S'AAANNMP'
tp619
F1
s(S'NP'
S'ADVADVANVP'
tp620
F1
s(g96
S'PPDDP'
tp621
F5
s(S'VP'
p622
S'AVCP'
tp623
F5
s(S'NP'
S'NADVADVAP'
tp624
F1
s(S'NP'
S'NAVVP'
tp625
F3
s(S'DP'
S'DPP'
tp626
F523
s(S'NP'
S'ADVNVP'
tp627
F12
s(g81
S'DDPP'
tp628
F135
s(S'DP'
S'DDADVPPP'
tp629
F1
s(S'DP'
S'DDAVP'
tp630
F1
s(S'DP'
S'DANP'
tp631
F45
s(S'AP'
S'ADVAMP'
tp632
F1
s(S'NP'
S'NADVPP'
tp633
F1
s(S'NP'
S'NNADVADVPP'
tp634
F1
s(S'MP'
S'MMAP'
tp635
F1
s(S'PP'
S'AAPPVP'
tp636
F1
s(S'NP'
S'AANADVVP'
tp637
F1
s(S'NP'
S'NAAVP'
tp638
F1
s(g436
S'ADVADVADPP'
tp639
F2
s(S'DP'
p640
S'AADNP'
tp641
F1
s(S'VP'
p642
S'VADVCP'
tp643
F3
s(S'NP'
S'NNNNAP'
tp644
F1
s(S'NP'
S'NNNNDDP'
tp645
F1
s(S'NP'
S'NNNNCP'
tp646
F5
s(S'VP'
S'ADVVAADP'
tp647
F1
s(S'MP'
S'MDNP'
tp648
F11
s(S'VP'
S'VVVVADVNP'
tp649
F1
s(S'NP'
S'NNAACP'
tp650
F1
s(S'MP'
S'MNAVP'
tp651
F1
s(S'NP'
p652
S'NNNVVP'
tp653
F2
s(S'VP'
p654
S'AVADVNP'
tp655
F1
s(g72
S'PADVPPP'
tp656
F1
s(S'DP'
S'DCCP'
tp657
F1
s(S'PP'
p658
S'ADVADVPPP'
tp659
F1
s(g7
S'ADVPAAAP'
tp660
F1
s(S'PP'
S'AAPDP'
tp661
F4
s(S'MP'
S'MADVVDP'
tp662
F1
s(S'DP'
S'DDADVVP'
tp663
F2
s(g66
S'PDDP'
tp664
F43
s(S'AP'
S'ADVACCCP'
tp665
F1
s(S'MP'
S'MVDDP'
tp666
F4
s(S'PP'
S'PCCP'
tp667
F2
s(S'NP'
S'NNNADVPP'
tp668
F1
s(S'NP'
S'NNNADVVP'
tp669
F2
s(g92
S'NNVP'
tp670
F64
s(S'PP'
S'PADVADVADVDP'
tp671
F1
s(S'PP'
S'PPPMP'
tp672
F1
s(S'AP'
S'ADVADVACP'
tp673
F1
s(S'VP'
S'AVDP'
tp674
F20
s(S'NP'
S'NNP'
tp675
F4
s(g128
S'VVDDP'
tp676
F10
s(S'VP'
S'VAADDP'
tp677
F1
s(g640
S'DAANP'
tp678
F9
s(S'MP'
S'MADDP'
tp679
F2
s(S'AP'
S'ADDP'
tp680
F30
s(S'PP'
S'PNNNNP'
tp681
F4
s(S'PP'
S'ADVPPNP'
tp682
F1
s(S'NP'
S'ADVADVNVVP'
tp683
F1
s(S'MP'
S'MADVADVVDP'
tp684
F1
s(S'MP'
S'MDAP'
tp685
F1
s(S'CP'
S'CADVADVDPP'
tp686
F2
s(S'CP'
S'ADVADVADVCDP'
tp687
F1
s(g20
S'DPPP'
tp688
F106
s(S'DP'
S'DAVVP'
tp689
F2
s(S'DP'
S'AADPPP'
tp690
F2
s(S'PP'
S'ADVADVPPNP'
tp691
F1
s(S'AP'
S'AAAP'
tp692
F3
s(S'NP'
S'NNAVP'
tp693
F1
s(S'VP'
S'AVVCP'
tp694
F1
s(S'DP'
S'AADCP'
tp695
F1
s(S'PP'
p696
S'ADVPNP'
tp697
F7
s(S'PP'
S'PPDP'
tp698
F38
s(S'MP'
S'MAVDP'
tp699
F1
s(S'DP'
S'ADVDCP'
tp700
F1
s(S'MP'
S'AMADVVP'
tp701
F1
s(S'AP'
S'ADVADVAACP'
tp702
F1
s(S'NP'
S'AAANMP'
tp703
F2
s(g187
S'CADADVADVPP'
tp704
F1
s(S'NP'
S'ANADVADVVP'
tp705
F1
s(S'PP'
S'PAANNP'
tp706
F2
s(S'AP'
S'AAAPP'
tp707
F2
s(g384
S'NAP'
tp708
F118
s(S'NP'
S'NNAAP'
tp709
F3
s(S'DP'
S'AADDP'
tp710
F1
s(S'VP'
S'VAAAP'
tp711
F2
s(g642
S'ADVAVNP'
tp712
F2
s(g514
S'VVP'
tp713
F37
s(S'DP'
S'DADVNP'
tp714
F7
s(S'PP'
S'ADVADVPVP'
tp715
F2
s(S'PP'
S'APNP'
tp716
F11
s(S'DP'
S'DDDAPP'
tp717
F1
s(g262
S'DDVVP'
tp718
F5
s(S'AP'
S'AAADDP'
tp719
F1
s(g572
S'VVVNP'
tp720
F5
s(S'MP'
S'MNPP'
tp721
F1
s(S'NP'
S'AAANMMP'
tp722
F1
s(g365
S'MVANP'
tp723
F1
s(S'DP'
S'ADVADVDDPP'
tp724
F1
s(S'MP'
S'MVNNP'
tp725
F5
s(S'CP'
S'CDPP'
tp726
F424
s(S'AP'
S'ADDDP'
tp727
F1
s(g239
S'ADVCADP'
tp728
F1
s(g20
S'ADVDVVP'
tp729
F1
s(g457
S'MMMVP'
tp730
F2
s(S'DP'
S'ADADVADVPP'
tp731
F1
s(g244
S'ADVCDP'
tp732
F12
s(S'VP'
S'ADVADVVNP'
tp733
F2
s(g184
S'MADVPCP'
tp734
F1
s(S'NP'
S'NADVVP'
tp735
F19
s(S'VP'
S'VADVADVDP'
tp736
F1
s(g88
S'PPNNP'
tp737
F9
s(S'CP'
S'CDAAAPP'
tp738
F1
s(g220
S'MPPNP'
tp739
F2
s(g658
S'PPMP'
tp740
F2
s(S'CP'
S'CAADDPP'
tp741
F1
s(g654
S'VADVADVNP'
tp742
F2
s(g569
S'ADVADVDPP'
tp743
F4
s(S'VP'
S'VADVNP'
tp744
F8
s(g552
S'NADVAP'
tp745
F7
s(S'VP'
S'AVDDP'
tp746
F1
s(S'DP'
S'DAP'
tp747
F28
s(S'CP'
S'CADPP'
tp748
F28
s(S'PP'
S'PADVMP'
tp749
F1
s(S'NP'
S'NNADVAPP'
tp750
F1
s(g527
S'PPADVADVADVADVPP'
tp751
F1
s(g523
S'AVPP'
tp752
F2
s(S'CP'
S'CAADPPP'
tp753
F2
s(S'DP'
S'DDNNNNP'
tp754
F1
s(S'VP'
S'VVADVDP'
tp755
F2
s(g346
S'CDPPPP'
tp756
F8
s(S'VP'
S'AAVDP'
tp757
F1
s(S'DP'
S'AADNNP'
tp758
F1
s(S'PP'
S'PANNP'
tp759
F2
s(S'NP'
S'ADVANMP'
tp760
F2
s(S'PP'
S'APPP'
tp761
F8
s(g206
S'ADPPPP'
tp762
F1
s(g262
S'DAPPP'
tp763
F5
s(S'DP'
S'DADVADVPP'
tp764
F4
s(S'NP'
S'AANVVP'
tp765
F2
s(S'NP'
S'NNNNADVVP'
tp766
F1
s(S'PP'
S'PPPNP'
tp767
F4
s(S'PP'
S'APADVPP'
tp768
F1
s(S'PP'
S'PPAANP'
tp769
F1
s(S'NP'
p770
S'AAANPP'
tp771
F2
s(S'PP'
S'PADVADVNP'
tp772
F1
s(S'MP'
S'MNNCCP'
tp773
F1
s(S'DP'
p774
S'ADPP'
tp775
F42
s(g337
S'PPAAVP'
tp776
F1
s(S'VP'
S'VADVPP'
tp777
F1
s(S'CP'
S'CCADVDDP'
tp778
F1
s(S'PP'
S'PVVVVP'
tp779
F1
s(S'PP'
S'ADVPVP'
tp780
F8
s(S'DP'
S'DDDDPP'
tp781
F4
s(S'MP'
S'MVMMP'
tp782
F1
s(S'NP'
S'NNVVVP'
tp783
F2
s(g341
S'ADVVANP'
tp784
F2
s(S'VP'
S'ADVADVVAANP'
tp785
F1
s(g696
S'ADVPDP'
tp786
F5
s(S'DP'
S'DDDAVP'
tp787
F1
s(g770
S'ANNPP'
tp788
F1
s(S'VP'
S'ADVVVADVADVCP'
tp789
F1
s(S'AP'
S'ADVAAMP'
tp790
F1
s(S'PP'
S'PPAAANP'
tp791
F1
s(S'CP'
S'CADVDPPP'
tp792
F2
s(S'VP'
S'ADVVVPP'
tp793
F1
s(S'PP'
S'AAAPNP'
tp794
F1
s(S'DP'
S'ADVVP'
tp795
F1
s(S'VP'
S'VAADP'
tp796
F2
s(S'AP'
S'AAMP'
tp797
F3
s(g134
S'AAVVDP'
tp798
F1
s(S'NP'
S'AANDP'
tp799
F5
s(S'MP'
S'MVCCP'
tp800
F4
s(S'VP'
S'VADVADVANP'
tp801
F2
s(g622
S'VDDDP'
tp802
F2
s(S'MP'
S'MNVP'
tp803
F17
s(S'NP'
S'AANAP'
tp804
F2
s(S'NP'
S'NNPP'
tp805
F37
s(S'VP'
S'VAPP'
tp806
F2
s(S'NP'
S'NPPPPP'
tp807
F2
s(g498
S'MADVVANP'
tp808
F2
s(g25
S'ADVVDP'
tp809
F15
s(g412
S'DADVPP'
tp810
F19
s(g464
S'AMP'
tp811
F31
s(S'CP'
S'CCADP'
tp812
F5
s(S'MP'
S'MVAAACP'
tp813
F1
s(S'AP'
S'ADVAPP'
tp814
F4
s(S'AP'
S'ADVAADVADVVP'
tp815
F2
s(S'CP'
S'AACDP'
tp816
F4
s(S'NP'
S'NNNCCP'
tp817
F3
s(S'CP'
S'CCDDDP'
tp818
F3
s(S'CP'
S'CCCDP'
tp819
F7
s(S'DP'
S'ADVDPPP'
tp820
F6
s(g20
S'DVP'
tp821
F301
s(g652
S'ADVNPP'
tp822
F3
s(g220
S'MDDNNP'
tp823
F1
s(S'CP'
S'AAACDP'
tp824
F3
s(S'AP'
S'AVP'
tp825
F32
s(S'MP'
S'MNPPP'
tp826
F1
s(S'NP'
S'NNADVADVVP'
tp827
F1
s(S'VP'
S'ADVVPPP'
tp828
F1
s(g774
S'DDPPP'
tp829
F16
s(g552
S'ADVNMP'
tp830
F5
s(S'NP'
S'NNAP'
tp831
F19
s(S'MP'
S'MADVVCP'
tp832
F1
s(S'PP'
S'PPANP'
tp833
F2
s(S'MP'
S'MCDDP'
tp834
F1
s(S'CP'
S'CDADVPP'
tp835
F13
s(g58
S'VNP'
tp836
F284
s(g224
S'VANP'
tp837
F20
s(S'VP'
S'VADVAP'
tp838
F16
s(S'PP'
S'PPPAAANP'
tp839
F1
s.