ccollections
defaultdict
p1
(c__builtin__
float
p2
tRp3
(S'PP'
S'PAAANP'
tp4
F1
s(S'DP'
p5
S'ADDPP'
tp6
F2
s(S'NP'
S'ADVNNMP'
tp7
F1
s(S'DP'
p8
S'DDAP'
tp9
F3
s(S'VP'
S'ADVVVNP'
tp10
F4
s(S'CP'
S'ADVADVADVCADP'
tp11
F1
s(S'DP'
S'DAANNP'
tp12
F1
s(S'AP'
S'AVVVP'
tp13
F2
s(S'PP'
p14
S'PAPP'
tp15
F5
s(S'PP'
S'PADVNP'
tp16
F6
s(S'DP'
p17
S'DNP'
tp18
F243
s(S'NP'
S'ADVNDP'
tp19
F3
s(S'CP'
p20
S'CDPPP'
tp21
F43
s(S'VP'
S'VADP'
tp22
F4
s(S'NP'
p23
S'ADVNCCP'
tp24
F2
s(S'PP'
S'PPPPPP'
tp25
F1
s(S'VP'
p26
S'VAVP'
tp27
F3
s(S'DP'
S'ADNNP'
tp28
F1
s(S'MP'
S'MDVP'
tp29
F1
s(S'VP'
p30
S'ADVVNP'
tp31
F10
s(S'MP'
S'MVDP'
tp32
F19
s(S'PP'
S'PADVANP'
tp33
F3
s(S'NP'
S'AANNPP'
tp34
F1
s(S'PP'
p35
S'PPPP'
tp36
F15
s(S'DP'
p37
S'DDDNP'
tp38
F5
s(S'MP'
S'AMCP'
tp39
F1
s(S'VP'
S'VACP'
tp40
F2
s(S'DP'
p41
S'DADVVP'
tp42
F3
s(S'VP'
S'VVADDP'
tp43
F1
s(S'PP'
S'PADVNNP'
tp44
F1
s(S'NP'
S'AANADVADVVVP'
tp45
F2
s(S'NP'
S'NCCCP'
tp46
F4
s(S'VP'
S'VCP'
tp47
F47
s(S'NP'
S'NMMP'
tp48
F3
s(S'VP'
S'ADVVAAP'
tp49
F1
s(S'MP'
S'MVADVNP'
tp50
F1
s(S'PP'
p51
S'PAP'
tp52
F63
s(S'VP'
S'VADVADVAP'
tp53
F2
s(S'NP'
S'NNNAP'
tp54
F3
s(S'NP'
p55
S'ANPPP'
tp56
F2
s(S'VP'
p57
S'ADVVCCP'
tp58
F1
s(S'PP'
S'PPADVDP'
tp59
F1
s(S'PP'
p60
S'PNP'
tp61
F228
s(S'DP'
S'DDP'
tp62
F27
s(S'NP'
S'NNNPP'
tp63
F4
s(S'NP'
p64
S'NNDP'
tp65
F13
s(S'MP'
S'MCDP'
tp66
F3
s(S'NP'
S'ADVNADVAP'
tp67
F1
s(S'VP'
S'ADVADVVVCP'
tp68
F1
s(S'NP'
S'NMP'
tp69
F63
s(S'VP'
S'AAVNP'
tp70
F1
s(g35
S'PDP'
tp71
F233
s(S'CP'
S'CCADVADVDP'
tp72
F1
s(S'CP'
S'CDADVADVPP'
tp73
F1
s(S'NP'
S'ADVNVVP'
tp74
F1
s(S'VP'
S'VNNNNP'
tp75
F1
s(S'NP'
S'AAANVVP'
tp76
F1
s(S'AP'
S'ANP'
tp77
F4
s(S'NP'
S'NADVADVADVVP'
tp78
F2
s(S'PP'
p79
S'PADVPP'
tp80
F1
s(S'DP'
p81
S'DPPPP'
tp82
F9
s(S'NP'
S'NACP'
tp83
F7
s(S'AP'
S'ADVAVP'
tp84
F3
s(S'NP'
p85
S'NCCP'
tp86
F42
s(S'DP'
S'DADVADVVVP'
tp87
F1
s(S'AP'
S'AAAADP'
tp88
F2
s(S'NP'
p89
S'NNCP'
tp90
F54
s(S'DP'
S'ADVDDPP'
tp91
F1
s(S'NP'
p92
S'NADVADVVP'
tp93
F1
s(g37
S'DDDDP'
tp94
F4
s(S'DP'
S'DDAPP'
tp95
F1
s(S'VP'
S'AVNP'
tp96
F4
s(g85
S'NNNNNCP'
tp97
F1
s(S'NP'
p98
S'NNNNADVVVP'
tp99
F1
s(S'AP'
S'AAADVVP'
tp100
F1
s(S'CP'
S'CDDADVADVADVPP'
tp101
F1
s(S'PP'
S'ADVPVVP'
tp102
F1
s(S'PP'
S'ADVAPDP'
tp103
F1
s(S'VP'
p104
S'VADVVP'
tp105
F3
s(S'VP'
S'ADVADVADVVNP'
tp106
F1
s(S'DP'
p107
S'ADVVVP'
tp108
F1
s(g89
S'NCCCCP'
tp109
F1
s(S'CP'
p110
S'CCCDP'
tp111
F7
s(S'VP'
S'ADVVAP'
tp112
F4
s(S'VP'
S'VCCCP'
tp113
F1
s(S'PP'
p114
S'APDP'
tp115
F16
s(S'VP'
S'ADVVNNP'
tp116
F1
s(S'AP'
S'AADVCP'
tp117
F3
s(S'VP'
S'VVANP'
tp118
F5
s(S'VP'
S'VVVVDP'
tp119
F2
s(S'VP'
p120
S'ADVVVP'
tp121
F1
s(S'NP'
S'NADVADVADVADVDP'
tp122
F1
s(S'MP'
S'MADVVNP'
tp123
F1
s(S'PP'
S'PAAP'
tp124
F9
s(S'NP'
S'ADVANCP'
tp125
F1
s(S'DP'
S'DNNP'
tp126
F30
s(S'CP'
S'CADVDDPP'
tp127
F1
s(S'DP'
S'DPPPPP'
tp128
F2
s(S'CP'
S'CDDPPPP'
tp129
F3
s(S'CP'
S'CCADVDP'
tp130
F3
s(S'NP'
S'AAANAP'
tp131
F1
s(S'NP'
p132
S'NNNVP'
tp133
F10
s(S'VP'
p134
S'VDP'
tp135
F213
s(S'PP'
p136
S'ADVAPVVP'
tp137
F1
s(S'PP'
S'PADVVP'
tp138
F6
s(S'AP'
S'APP'
tp139
F19
s(S'NP'
S'NADVMP'
tp140
F2
s(S'MP'
S'MVVCP'
tp141
F1
s(S'DP'
S'DAAVP'
tp142
F2
s(S'MP'
S'MVVVNP'
tp143
F2
s(S'PP'
S'PAANP'
tp144
F5
s(S'PP'
p145
S'PPPDDDP'
tp146
F1
s(S'DP'
S'ADVDVP'
tp147
F3
s(S'NP'
S'ANVP'
tp148
F17
s(S'VP'
S'VAACP'
tp149
F1
s(S'MP'
S'MVNP'
tp150
F26
s(g51
S'PAVP'
tp151
F9
s(S'MP'
S'ADVMVP'
tp152
F1
s(S'NP'
S'NAPP'
tp153
F8
s(S'VP'
S'VVVPP'
tp154
F5
s(S'AP'
S'ADVACCP'
tp155
F2
s(S'DP'
p156
S'DADP'
tp157
F4
s(S'AP'
S'ADVADP'
tp158
F1
s(S'DP'
p159
S'ADVDDP'
tp160
F1
s(S'PP'
S'APDDP'
tp161
F2
s(S'DP'
S'DDVVVVP'
tp162
F2
s(S'NP'
S'ADVNAP'
tp163
F1
s(S'PP'
S'APPP'
tp164
F3
s(S'DP'
S'ADVADVDAP'
tp165
F1
s(S'PP'
p166
S'APVP'
tp167
F10
s(S'VP'
p168
S'VVNP'
tp169
F37
s(g114
S'PPVP'
tp170
F21
s(S'VP'
S'VADVDP'
tp171
F1
s(S'VP'
S'VAAP'
tp172
F7
s(S'NP'
S'ANDP'
tp173
F15
s(S'NP'
p174
S'NVVP'
tp175
F58
s(S'PP'
S'AAPVP'
tp176
F2
s(S'VP'
S'VMP'
tp177
F2
s(S'VP'
S'VVNNP'
tp178
F4
s(S'CP'
S'CDAPP'
tp179
F14
s(S'VP'
S'VVAAP'
tp180
F1
s(S'MP'
S'MMPP'
tp181
F1
s(S'DP'
S'ADVADVDDVP'
tp182
F1
s(S'DP'
S'ADNP'
tp183
F4
s(S'PP'
S'PADP'
tp184
F10
s(S'VP'
p185
S'ADVVVCP'
tp186
F1
s(S'NP'
S'ANDDP'
tp187
F1
s(S'DP'
S'ADVADVDVP'
tp188
F1
s(g41
S'DAPP'
tp189
F22
s(S'VP'
S'VVVVPP'
tp190
F2
s(S'MP'
S'MADVADVVNP'
tp191
F1
s(S'VP'
S'ADVADVADVVDP'
tp192
F2
s(S'PP'
S'PPPDP'
tp193
F3
s(S'MP'
S'MVADVAPP'
tp194
F1
s(S'MP'
S'MVVAP'
tp195
F1
s(S'DP'
S'DADVANP'
tp196
F2
s(S'NP'
S'ANADVVVP'
tp197
F1
s(S'DP'
S'ADVDNP'
tp198
F3
s(S'VP'
S'VVPP'
tp199
F20
s(S'VP'
S'VADVAPP'
tp200
F1
s(S'DP'
S'ADADVPP'
tp201
F1
s(g20
S'AACDDP'
tp202
F1
s(S'MP'
S'MVPP'
tp203
F15
s(S'DP'
S'ADVP'
tp204
F4
s(g110
S'CDDPPP'
tp205
F5
s(S'NP'
S'NNPP'
tp206
F27
s(S'DP'
p207
S'DDDDNP'
tp208
F1
s(S'MP'
S'MVVDP'
tp209
F2
s(S'AP'
S'AACP'
tp210
F4
s(S'PP'
S'PPVVP'
tp211
F1
s(S'DP'
S'DNNNP'
tp212
F5
s(S'DP'
p213
S'ADVDDVP'
tp214
F2
s(S'AP'
S'ADVADVAVVVVP'
tp215
F1
s(S'PP'
S'PADVADVVP'
tp216
F1
s(S'VP'
S'VADVDDP'
tp217
F2
s(S'PP'
S'PMMP'
tp218
F1
s(S'PP'
S'PVVVP'
tp219
F2
s(g14
S'PMP'
tp220
F11
s(g23
S'NNMMP'
tp221
F2
s(S'PP'
S'PADVADVADVVP'
tp222
F1
s(g20
S'CCDP'
tp223
F70
s(S'VP'
S'VADVANP'
tp224
F1
s(S'NP'
S'NVVVP'
tp225
F5
s(S'CP'
S'CDDDPP'
tp226
F3
s(S'CP'
S'CDAAPP'
tp227
F1
s(S'VP'
S'VVVDP'
tp228
F1
s(S'PP'
S'PNNNP'
tp229
F6
s(S'CP'
p230
S'CCCCDP'
tp231
F2
s(S'PP'
S'AAPNP'
tp232
F1
s(S'CP'
S'CADADVPP'
tp233
F1
s(S'VP'
S'ADVVVDP'
tp234
F2
s(S'PP'
p235
S'PPP'
tp236
F77
s(S'NP'
p237
S'NAVP'
tp238
F7
s(S'PP'
S'PADVAP'
tp239
F1
s(S'DP'
S'DDNNNP'
tp240
F1
s(S'VP'
S'VVVANP'
tp241
F2
s(S'NP'
S'NAAAP'
tp242
F3
s(g98
S'NADVVVP'
tp243
F5
s(S'PP'
p244
S'PPPPDP'
tp245
F1
s(g185
S'ADVADVVVPP'
tp246
F1
s(S'VP'
S'VPP'
tp247
F135
s(S'DP'
p248
S'ADVDDNP'
tp249
F1
s(S'NP'
S'AANPPP'
tp250
F1
s(S'NP'
S'NNNCP'
tp251
F7
s(S'PP'
S'PADVDP'
tp252
F7
s(S'MP'
S'MADVVAP'
tp253
F1
s(g230
S'CDDPP'
tp254
F32
s(g8
S'DAAPP'
tp255
F3
s(S'PP'
p256
S'PVVP'
tp257
F21
s(S'CP'
S'CADPPP'
tp258
F4
s(g159
S'DADVPPP'
tp259
F2
s(S'VP'
S'ADVVCP'
tp260
F1
s(S'VP'
S'VPPP'
tp261
F10
s(S'PP'
S'PPADVADVDP'
tp262
F1
s(S'PP'
S'PPAP'
tp263
F4
s(S'DP'
S'DVVP'
tp264
F19
s(g256
S'PADVAVP'
tp265
F1
s(S'VP'
S'VVVADVAP'
tp266
F1
s(S'NP'
S'ANMP'
tp267
F2
s(S'AP'
S'APPP'
tp268
F2
s(S'PP'
S'ADVPPP'
tp269
F4
s(S'NP'
S'ADVANVVP'
tp270
F1
s(S'VP'
p271
S'VVVP'
tp272
F3
s(g81
S'DDPPPP'
tp273
F6
s(g57
S'VVVADVVP'
tp274
F1
s(S'NP'
p275
S'ANCP'
tp276
F30
s(g207
S'DCP'
tp277
F6
s(S'NP'
S'ANNCP'
tp278
F1
s(S'NP'
S'AAANCP'
tp279
F7
s(S'VP'
S'ADVVVVP'
tp280
F1
s(S'NP'
S'NNVVVVP'
tp281
F1
s(S'DP'
S'DDDP'
tp282
F8
s(S'DP'
S'DDADVPP'
tp283
F3
s(S'NP'
S'ANNVVP'
tp284
F1
s(S'VP'
S'ADVVAAAP'
tp285
F1
s(S'NP'
p286
S'NVVVVP'
tp287
F3
s(S'NP'
S'NPPP'
tp288
F9
s(g166
S'PPAPP'
tp289
F1
s(S'DP'
p290
S'DAVP'
tp291
F5
s(S'NP'
S'NNNMP'
tp292
F5
s(S'AP'
p293
S'ACP'
tp294
F30
s(g35
S'PPNP'
tp295
F36
s(S'NP'
S'ADVADVNVP'
tp296
F1
s(S'MP'
p297
S'MADVVPP'
tp298
F3
s(S'NP'
p299
S'NAADP'
tp300
F1
s(g213
S'AADVP'
tp301
F1
s(S'VP'
S'VVVVNNP'
tp302
F2
s(S'VP'
S'VAANNP'
tp303
F1
s(S'CP'
S'CDDADVPP'
tp304
F2
s(S'CP'
p305
S'CCCDDP'
tp306
F1
s(S'AP'
p307
S'ADP'
tp308
F127
s(S'PP'
S'APMP'
tp309
F1
s(S'CP'
S'CADVDPP'
tp310
F5
s(S'PP'
S'PPPAVP'
tp311
F1
s(S'DP'
S'DVVVVP'
tp312
F1
s(S'AP'
S'AAADP'
tp313
F3
s(S'VP'
S'VVAP'
tp314
F15
s(S'PP'
S'PPAAAAP'
tp315
F1
s(S'MP'
S'MNADVVP'
tp316
F1
s(S'CP'
S'CDDDAPP'
tp317
F1
s(g174
S'NPP'
tp318
F172
s(g145
S'PPPPNP'
tp319
F3
s(S'NP'
p320
S'NVP'
tp321
F239
s(S'NP'
S'NNDDDP'
tp322
F1
s(S'PP'
S'PAAVP'
tp323
F1
s(S'NP'
S'NAAPP'
tp324
F2
s(S'VP'
p325
S'VDDP'
tp326
F24
s(S'DP'
p327
S'DMP'
tp328
F2
s(S'DP'
S'DADVAPP'
tp329
F2
s(S'NP'
p330
S'ANCCCP'
tp331
F1
s(S'NP'
S'ANPP'
tp332
F21
s(S'PP'
S'ADVPPDP'
tp333
F2
s(S'PP'
p334
S'PPPPP'
tp335
F5
s(S'MP'
S'MVVPP'
tp336
F2
s(g35
S'PPPNP'
tp337
F9
s(S'VP'
S'VAAACP'
tp338
F1
s(S'NP'
S'NPPPP'
tp339
F2
s(S'DP'
S'ADDP'
tp340
F1
s(S'NP'
S'NADVAAP'
tp341
F1
s(g305
S'CDDDADVPP'
tp342
F1
s(S'CP'
S'CAADPP'
tp343
F1
s(S'DP'
S'DDADVADVPPP'
tp344
F1
s(S'NP'
S'NAACP'
tp345
F1
s(g60
S'PNNP'
tp346
F52
s(S'MP'
S'MMNP'
tp347
F2
s(S'VP'
S'AVAP'
tp348
F2
s(S'MP'
S'MMVP'
tp349
F2
s(S'PP'
p350
S'PADVDDP'
tp351
F1
s(S'NP'
S'ADVNCP'
tp352
F3
s(g307
S'AADP'
tp353
F22
s(S'DP'
S'ADVADVADVADVDNP'
tp354
F1
s(S'CP'
S'ACDP'
tp355
F10
s(g168
S'VCCP'
tp356
F8
s(S'AP'
S'ADVANP'
tp357
F2
s(S'VP'
S'ADVVVAAP'
tp358
F1
s(S'VP'
S'VVVVADVAP'
tp359
F1
s(S'CP'
S'CDADVPPP'
tp360
F1
s(S'VP'
p361
S'VAP'
tp362
F62
s(S'VP'
S'VVVVNP'
tp363
F1
s(S'MP'
p364
S'MNVVP'
tp365
F2
s(S'DP'
S'DDDPP'
tp366
F4
s(S'CP'
S'ADVCDDP'
tp367
F2
s(g23
S'AANNCP'
tp368
F1
s(S'PP'
S'ADVPMP'
tp369
F1
s(S'DP'
S'DDDPPPP'
tp370
F1
s(g297
S'MAVPP'
tp371
F1
s(S'VP'
S'ADVAVDP'
tp372
F1
s(g327
S'DADVDP'
tp373
F1
s(S'PP'
S'APADVVP'
tp374
F1
s(S'AP'
S'AAACP'
tp375
F1
s(S'NP'
S'NAAP'
tp376
F8
s(g350
S'PPPVP'
tp377
F2
s(S'AP'
S'AADDP'
tp378
F1
s(S'NP'
S'NNNADVADVVP'
tp379
F1
s(S'VP'
p380
S'VAANP'
tp381
F1
s(g132
S'ANVVP'
tp382
F7
s(S'VP'
S'VVDP'
tp383
F36
s(S'PP'
p384
S'PAAAAP'
tp385
F1
s(S'MP'
S'MADP'
tp386
F4
s(S'NP'
S'NNNDDP'
tp387
F1
s(g235
S'PANP'
tp388
F21
s(S'DP'
S'AADNP'
tp389
F1
s(g55
S'ANNMP'
tp390
F1
s(g299
S'NADVDDP'
tp391
F1
s(S'NP'
p392
S'AANMP'
tp393
F1
s(g293
S'AAVP'
tp394
F3
s(S'AP'
S'AVVP'
tp395
F6
s(S'NP'
p396
S'NDDP'
tp397
F13
s(S'CP'
S'CDDADVADVPPP'
tp398
F1
s(S'AP'
S'ACCP'
tp399
F8
s(S'DP'
S'DDDADVPP'
tp400
F1
s(g275
S'NDP'
tp401
F80
s(S'NP'
S'AAANVP'
tp402
F3
s(g248
S'DDVP'
tp403
F23
s(S'DP'
S'DDDADVAP'
tp404
F1
s(S'VP'
S'ADVADVVAANP'
tp405
F1
s(S'NP'
S'AANVP'
tp406
F11
s(S'VP'
S'ADVVVNNP'
tp407
F1
s(S'VP'
S'VNNNP'
tp408
F3
s(S'VP'
S'ADVADVADVVANP'
tp409
F1
s(S'NP'
S'NNNNVVP'
tp410
F1
s(S'PP'
S'PCP'
tp411
F4
s(S'NP'
S'NNPPP'
tp412
F3
s(S'DP'
p413
S'DDDAAVP'
tp414
F1
s(S'NP'
S'NNNNNVP'
tp415
F1
s(S'PP'
S'PACP'
tp416
F1
s(S'NP'
S'NNNDP'
tp417
F2
s(S'AP'
S'ADVACP'
tp418
F1
s(S'NP'
S'AANVVVP'
tp419
F1
s(g134
S'AVVDP'
tp420
F1
s(g207
S'ADPPP'
tp421
F4
s(g364
S'MVCP'
tp422
F3
s(g110
S'CCDDP'
tp423
F10
s(S'NP'
S'NNADVVP'
tp424
F6
s(S'NP'
S'AANNDP'
tp425
F1
s(S'NP'
S'NNVVP'
tp426
F7
s(S'VP'
S'VVCP'
tp427
F13
s(S'NP'
S'AANCP'
tp428
F21
s(S'VP'
S'VADVNP'
tp429
F10
s(S'VP'
S'VVDDDP'
tp430
F1
s(S'AP'
S'ADVAVVP'
tp431
F4
s(S'VP'
S'VAAAPPP'
tp432
F1
s(S'DP'
S'ADVDVVVP'
tp433
F1
s(S'VP'
S'ADVVPP'
tp434
F10
s(g325
S'VNNP'
tp435
F36
s(S'AP'
S'AADVDP'
tp436
F2
s(S'AP'
S'AAAMP'
tp437
F1
s(S'NP'
S'NADP'
tp438
F1
s(S'DP'
p439
S'DDNP'
tp440
F28
s(S'NP'
S'NADVCP'
tp441
F2
s(S'DP'
S'DDNNP'
tp442
F3
s(S'VP'
S'VPPPPP'
tp443
F1
s(S'VP'
p444
S'ADVAVPP'
tp445
F1
s(S'NP'
S'ADVANVP'
tp446
F3
s(g286
S'ADVNAAP'
tp447
F1
s(S'NP'
S'ADVADVNCP'
tp448
F1
s(S'DP'
S'DADVADVNNP'
tp449
F1
s(S'DP'
S'AADPP'
tp450
F1
s(S'NP'
S'NNDDP'
tp451
F1
s(S'NP'
S'NNNNPP'
tp452
F1
s(S'DP'
S'DAAAANP'
tp453
F1
s(S'PP'
S'ADVPAP'
tp454
F1
s(S'MP'
S'MAVAP'
tp455
F1
s(S'AP'
S'AADVADVVP'
tp456
F1
s(S'PP'
S'AAPDP'
tp457
F3
s(S'NP'
p458
S'ANVVVP'
tp459
F2
s(S'DP'
S'DADVADVAP'
tp460
F1
s(S'MP'
S'MVVNP'
tp461
F1
s(S'CP'
S'CDDADVPPP'
tp462
F1
s(S'DP'
S'ADVDNNP'
tp463
F1
s(S'CP'
S'ACDDP'
tp464
F1
s(S'NP'
S'ADVADVNNCP'
tp465
F1
s(S'AP'
S'AAPP'
tp466
F6
s(S'VP'
S'VVCCP'
tp467
F1
s(g392
S'AAAAANPP'
tp468
F1
s(S'MP'
S'MADVADVADVVCP'
tp469
F1
s(g384
S'AAAPPNP'
tp470
F1
s(S'DP'
S'DDNNNNNP'
tp471
F1
s(S'VP'
S'VVVCP'
tp472
F3
s(S'PP'
S'APDDDP'
tp473
F1
s(g458
S'ANCCP'
tp474
F11
s(g92
S'AANPP'
tp475
F3
s(g380
S'VDDDP'
tp476
F2
s(S'NP'
S'NNMP'
tp477
F17
s(S'DP'
p478
S'DDDVP'
tp479
F2
s(S'PP'
S'PAAAP'
tp480
F1
s(S'PP'
S'ADVADVPNP'
tp481
F1
s(S'CP'
S'CDDAPP'
tp482
F1
s(S'NP'
S'ANAP'
tp483
F2
s(S'MP'
S'MVAP'
tp484
F7
s(g51
S'PVP'
tp485
F152
s(S'DP'
S'DADVAVP'
tp486
F1
s(S'PP'
S'PPADVVVP'
tp487
F2
s(S'DP'
S'AADPPPPP'
tp488
F1
s(S'PP'
S'PPADVADVMP'
tp489
F1
s(S'DP'
S'DVVVP'
tp490
F3
s(g120
S'VCCCCP'
tp491
F1
s(S'NP'
S'AAAANVVVP'
tp492
F1
s(S'NP'
S'ADVADVANVP'
tp493
F1
s(S'PP'
S'PPDDP'
tp494
F5
s(g320
S'NAVVP'
tp495
F1
s(S'DP'
p496
S'DPP'
tp497
F339
s(S'NP'
S'ADVNVP'
tp498
F7
s(g496
S'DDPP'
tp499
F55
s(S'DP'
S'DDADVPPP'
tp500
F1
s(g439
S'DANP'
tp501
F41
s(S'AP'
S'ADVAMP'
tp502
F1
s(S'MP'
S'MMAP'
tp503
F1
s(S'NP'
S'AANADVVP'
tp504
F2
s(S'PP'
p505
S'PDDDP'
tp506
F3
s(S'VP'
S'VADVCP'
tp507
F3
s(S'NP'
S'NNNNAP'
tp508
F1
s(S'NP'
S'NNNNCP'
tp509
F14
s(S'MP'
S'MDNP'
tp510
F2
s(g85
S'NNAACP'
tp511
F1
s(g396
S'NNNVVP'
tp512
F4
s(S'CP'
S'CDPPPPP'
tp513
F1
s(S'MP'
S'MADVVDP'
tp514
F1
s(S'VP'
S'VVVAP'
tp515
F2
s(S'PP'
S'PDDP'
tp516
F26
s(S'MP'
S'MVDDP'
tp517
F3
s(S'VP'
S'VVCCCP'
tp518
F1
s(S'PP'
S'ADVAPNP'
tp519
F1
s(g320
S'NNVP'
tp520
F75
s(S'NP'
S'NADVADVVVP'
tp521
F1
s(g361
S'AVDP'
tp522
F13
s(g444
S'VVDDP'
tp523
F5
s(S'DP'
S'DAANP'
tp524
F5
s(S'VP'
S'ADVADVADVVCP'
tp525
F1
s(S'AP'
S'ADDP'
tp526
F14
s(S'VP'
S'ADVVVAP'
tp527
F1
s(g505
S'ADVPPNP'
tp528
F3
s(S'CP'
S'CADVADVDPP'
tp529
F3
s(g81
S'DPPP'
tp530
F67
s(S'PP'
S'PNNNNP'
tp531
F1
s(S'PP'
S'ADVADVPPNP'
tp532
F1
s(S'NP'
S'NMMMP'
tp533
F1
s(S'PP'
S'ADVPNP'
tp534
F9
s(g244
S'PPDP'
tp535
F20
s(g107
S'DDCP'
tp536
F1
s(S'NP'
S'NAP'
tp537
F39
s(g325
S'VVP'
tp538
F19
s(S'DP'
S'DADVNP'
tp539
F7
s(g334
S'APNP'
tp540
F8
s(S'VP'
p541
S'VVVNNP'
tp542
F2
s(S'DP'
S'DDDAPP'
tp543
F1
s(g413
S'DDVVP'
tp544
F2
s(S'VP'
S'VVVNP'
tp545
F7
s(S'VP'
S'AVPPPP'
tp546
F1
s(S'NP'
S'NAMP'
tp547
F1
s(S'MP'
S'MVANP'
tp548
F1
s(S'MP'
S'MVNNP'
tp549
F2
s(g20
S'CDPP'
tp550
F274
s(S'CP'
S'AAACDP'
tp551
F1
s(S'VP'
S'VVAANP'
tp552
F1
s(S'MP'
S'MMMVP'
tp553
F1
s(S'CP'
S'ADVCDP'
tp554
F6
s(S'VP'
S'ADVADVVNP'
tp555
F3
s(S'NP'
S'NADVADVADVCP'
tp556
F1
s(g541
S'VADVADVDP'
tp557
F4
s(S'PP'
S'PPNNP'
tp558
F5
s(S'PP'
S'PPMP'
tp559
F1
s(S'DP'
S'ADVADVDPP'
tp560
F6
s(S'VP'
S'VAADP'
tp561
F3
s(S'NP'
S'NADVAP'
tp562
F5
s(S'VP'
p563
S'AVDDP'
tp564
F1
s(g17
S'DAP'
tp565
F24
s(S'CP'
S'CADPP'
tp566
F21
s(S'PP'
S'PPAVP'
tp567
F1
s(g271
S'VVDDDDP'
tp568
F1
s(g26
S'AVPP'
tp569
F6
s(S'DP'
S'DDNNNNP'
tp570
F1
s(S'VP'
S'VVADVDP'
tp571
F1
s(g20
S'CDPPPP'
tp572
F7
s(S'VP'
S'AAVDP'
tp573
F3
s(g478
S'AADNNP'
tp574
F1
s(S'NP'
S'ADVANMP'
tp575
F1
s(S'AP'
S'AAAPP'
tp576
F1
s(S'DP'
S'DADVADVPP'
tp577
F1
s(g330
S'AANVVP'
tp578
F3
s(S'DP'
S'ADVDPP'
tp579
F10
s(S'PP'
S'PPAANP'
tp580
F1
s(S'NP'
S'AAANPP'
tp581
F2
s(S'PP'
S'PADVADVNP'
tp582
F2
s(S'VP'
S'ADVADVVAP'
tp583
F1
s(g156
S'ADPP'
tp584
F31
s(S'NP'
S'NNADVVVP'
tp585
F2
s(g30
S'VADVPP'
tp586
F2
s(S'DP'
S'DDAAPP'
tp587
F1
s(g79
S'ADVPVP'
tp588
F6
s(S'DP'
S'DAAP'
tp589
F1
s(S'NP'
S'NNVVVP'
tp590
F6
s(S'VP'
S'ADVVANP'
tp591
F2
s(S'PP'
S'PPADVADVANP'
tp592
F1
s(g136
S'ADVPDP'
tp593
F1
s(S'PP'
S'PPDDDDP'
tp594
F1
s(g85
S'NCP'
tp595
F192
s(S'CP'
S'CADVDPPP'
tp596
F1
s(S'VP'
S'ADVVVPP'
tp597
F2
s(S'DP'
S'DDADVVVP'
tp598
F1
s(S'DP'
S'ADVVP'
tp599
F1
s(S'PP'
S'ADVPDDP'
tp600
F1
s(S'NP'
S'AANDP'
tp601
F1
s(S'MP'
S'MDADVADVVVP'
tp602
F1
s(S'NP'
S'NNCCP'
tp603
F7
s(S'MP'
S'MNVP'
tp604
F7
s(S'NP'
S'AANAP'
tp605
F2
s(S'NP'
S'AANCCP'
tp606
F1
s(S'VP'
S'VAPP'
tp607
F4
s(S'MP'
S'MADVVANP'
tp608
F1
s(g104
S'ADVVDP'
tp609
F6
s(S'DP'
S'DDADVADVADVPP'
tp610
F1
s(g17
S'DADVPP'
tp611
F17
s(S'AP'
S'AMP'
tp612
F2
s(S'CP'
S'CCADP'
tp613
F2
s(S'PP'
S'ADVADVADVPNP'
tp614
F1
s(S'NP'
S'AANMMP'
tp615
F1
s(S'AP'
S'ADVAPP'
tp616
F4
s(S'AP'
S'ADVADVANP'
tp617
F1
s(S'CP'
S'AACDP'
tp618
F2
s(S'CP'
S'CCDDDP'
tp619
F1
s(S'DP'
S'ADVDPPP'
tp620
F3
s(g439
S'DVP'
tp621
F158
s(S'VP'
S'AVNNP'
tp622
F1
s(g237
S'ADVNPP'
tp623
F1
s(S'NP'
S'NNCCCP'
tp624
F1
s(S'PP'
S'PADVADVDDP'
tp625
F1
s(S'AP'
S'AVP'
tp626
F16
s(S'NP'
S'NADVVP'
tp627
F11
s(S'NP'
S'NNADVADVVP'
tp628
F1
s(g5
S'DADDP'
tp629
F1
s(S'DP'
S'DDPPP'
tp630
F12
s(S'NP'
S'ADVNMP'
tp631
F4
s(g64
S'NNAP'
tp632
F8
s(S'PP'
S'PPANP'
tp633
F1
s(S'CP'
S'CDADVPP'
tp634
F14
s(g361
S'VNP'
tp635
F200
s(S'VP'
S'VANP'
tp636
F16
s(g563
S'VADVAP'
tp637
F8
s(S'PP'
S'PPADVNP'
tp638
F2
s(g290
S'DDDDVP'
tp639
F1
s(S'VP'
S'ADVADVVVDP'
tp640
F2
s(g299
S'NADVPPP'
tp641
F2
s.