ccollections
defaultdict
p1
(c__builtin__
float
p2
tRp3
(S'AP'
S'ADVADVADVAADP'
tp4
F1
s(S'MP'
S'MMDP'
tp5
F1
s(S'VP'
S'VVAAAP'
tp6
F2
s(S'NP'
p7
S'NNNVVVP'
tp8
F1
s(S'CP'
S'CAAADPP'
tp9
F1
s(S'PP'
p10
S'PAAANP'
tp11
F1
s(S'DP'
S'ADDPP'
tp12
F2
s(S'NP'
p13
S'ADVNNMP'
tp14
F1
s(S'DP'
p15
S'DDAP'
tp16
F3
s(S'VP'
S'ADVVVNP'
tp17
F1
s(S'VP'
p18
S'AVADVADVDP'
tp19
F1
s(S'VP'
p20
S'VVVVP'
tp21
F3
s(S'NP'
S'ADVANVP'
tp22
F2
s(S'VP'
S'VVADVVP'
tp23
F1
s(S'PP'
p24
S'PAPP'
tp25
F9
s(S'DP'
p26
S'DDPPPPP'
tp27
F1
s(S'DP'
p28
S'DNP'
tp29
F333
s(S'NP'
S'ADVNDP'
tp30
F2
s(S'VP'
S'ADVVNNP'
tp31
F1
s(S'CP'
p32
S'CDPPP'
tp33
F55
s(S'VP'
p34
S'VADP'
tp35
F10
s(S'DP'
S'DNNNNP'
tp36
F4
s(S'CP'
S'CDAAPPP'
tp37
F1
s(S'DP'
S'DAAP'
tp38
F4
s(S'VP'
p39
S'AAVPPP'
tp40
F1
s(S'PP'
S'PPPPPP'
tp41
F1
s(S'VP'
S'VADVADVADVAP'
tp42
F1
s(S'PP'
S'APPDP'
tp43
F1
s(S'CP'
S'CADVADVDPPP'
tp44
F1
s(S'VP'
S'ADVADVADVVVPP'
tp45
F1
s(S'DP'
p46
S'ADNNP'
tp47
F1
s(S'NP'
S'NNNNANP'
tp48
F1
s(S'VP'
p49
S'ADVVNP'
tp50
F10
s(S'MP'
S'MVDP'
tp51
F15
s(S'PP'
p52
S'PADVANP'
tp53
F2
s(S'NP'
S'AANNPP'
tp54
F2
s(S'PP'
p55
S'PPPP'
tp56
F26
s(S'DP'
S'DDDNP'
tp57
F3
s(S'VP'
p58
S'VACP'
tp59
F3
s(S'AP'
S'AAAVP'
tp60
F3
s(S'PP'
p61
S'PPAAP'
tp62
F2
s(S'DP'
S'DADVVP'
tp63
F7
s(S'PP'
p64
S'PADVNNP'
tp65
F2
s(S'NP'
S'NADVACP'
tp66
F3
s(S'NP'
p67
S'NAAVVP'
tp68
F1
s(S'NP'
S'NADVVVP'
tp69
F7
s(S'CP'
S'CADVADVDDPP'
tp70
F2
s(S'VP'
S'VCP'
tp71
F61
s(S'MP'
S'MVVANP'
tp72
F1
s(S'NP'
p73
S'NMMP'
tp74
F3
s(S'VP'
S'VVAANNP'
tp75
F1
s(S'VP'
S'ADVVAAP'
tp76
F1
s(S'NP'
S'AAAANPP'
tp77
F1
s(S'DP'
p78
S'ADVDDDPP'
tp79
F1
s(S'DP'
p80
S'DDDNNP'
tp81
F2
s(S'PP'
p82
S'PAP'
tp83
F106
s(S'PP'
S'PPANNP'
tp84
F1
s(S'VP'
S'VADVADVAP'
tp85
F3
s(S'PP'
p86
S'ADVPPVP'
tp87
F1
s(S'NP'
p88
S'NNNAP'
tp89
F1
s(S'NP'
p90
S'ANPPP'
tp91
F3
s(S'PP'
S'PPADVDP'
tp92
F2
s(S'VP'
S'VADVANP'
tp93
F6
s(g82
S'PNP'
tp94
F313
s(S'VP'
S'VVNNNNNP'
tp95
F1
s(S'NP'
S'ADVADVADVNNCP'
tp96
F1
s(S'NP'
S'ADVANADVVP'
tp97
F2
s(S'DP'
S'DDP'
tp98
F42
s(S'NP'
S'NNNPP'
tp99
F12
s(S'PP'
p100
S'PAAP'
tp101
F24
s(S'VP'
S'VVVVVDDP'
tp102
F1
s(S'CP'
S'AACCDP'
tp103
F1
s(S'DP'
S'DDAANP'
tp104
F2
s(S'VP'
S'ADVVVDP'
tp105
F3
s(S'DP'
S'DAAAANP'
tp106
F2
s(S'NP'
p107
S'NMP'
tp108
F42
s(S'NP'
p109
S'AAAAANVVP'
tp110
F1
s(S'DP'
S'DDDDPP'
tp111
F1
s(S'NP'
S'NAAAPP'
tp112
F1
s(g39
S'AAVNP'
tp113
F2
s(g82
S'PDP'
tp114
F358
s(S'PP'
S'PADVNP'
tp115
F6
s(S'CP'
S'CCADVADVDP'
tp116
F1
s(S'CP'
S'CDADVADVPP'
tp117
F2
s(S'NP'
S'ADVNVVP'
tp118
F1
s(S'AP'
S'AAANP'
tp119
F1
s(S'PP'
S'ADVADVADVADVPDP'
tp120
F1
s(S'MP'
S'MADVVNP'
tp121
F1
s(S'NP'
S'NACCP'
tp122
F1
s(S'NP'
S'NADVADVADVVP'
tp123
F1
s(S'PP'
S'PADVPP'
tp124
F1
s(S'NP'
S'NNADVCP'
tp125
F2
s(S'PP'
S'PPADVAP'
tp126
F1
s(S'VP'
S'VVDDP'
tp127
F5
s(S'NP'
S'ADVANCP'
tp128
F2
s(S'PP'
S'AAPPPP'
tp129
F2
s(S'PP'
S'ADVADVAPVP'
tp130
F1
s(g78
S'ADVDADVDDDP'
tp131
F1
s(S'DP'
p132
S'DPPPP'
tp133
F10
s(S'DP'
S'DDANP'
tp134
F7
s(S'DP'
S'ADNNNP'
tp135
F1
s(S'NP'
p136
S'NACP'
tp137
F21
s(g109
S'NCCP'
tp138
F42
s(S'VP'
S'VVADVCP'
tp139
F1
s(S'AP'
S'AAAADP'
tp140
F2
s(S'NP'
S'NNCP'
tp141
F74
s(S'VP'
p142
S'VVAVP'
tp143
F1
s(S'NP'
p144
S'NADVADVVP'
tp145
F5
s(S'DP'
S'DDDDP'
tp146
F1
s(S'VP'
p147
S'AVNP'
tp148
F6
s(g109
S'NNNNNCP'
tp149
F2
s(S'PP'
S'PADVADVANP'
tp150
F1
s(S'VP'
S'ADVADVADVVVDP'
tp151
F1
s(S'PP'
S'ADVPVVP'
tp152
F2
s(S'MP'
S'MVVNP'
tp153
F2
s(S'PP'
p154
S'ADVAPDP'
tp155
F2
s(S'VP'
S'VADVVP'
tp156
F3
s(S'DP'
S'ADVADVADVDDPP'
tp157
F1
s(S'NP'
S'ANADVVP'
tp158
F4
s(S'AP'
S'AAAAP'
tp159
F1
s(S'CP'
S'CCCDP'
tp160
F3
s(S'NP'
p161
S'NADVADVADVADVVVP'
tp162
F2
s(S'PP'
S'ADVPPNNP'
tp163
F1
s(S'VP'
S'VCCCP'
tp164
F1
s(S'VP'
S'VVADVADVADVANP'
tp165
F1
s(g61
S'APDP'
tp166
F37
s(S'NP'
S'ADVNPPP'
tp167
F1
s(S'AP'
p168
S'ADVAADVCP'
tp169
F1
s(S'PP'
S'PPPPCP'
tp170
F1
s(S'VP'
S'VVANP'
tp171
F4
s(S'VP'
S'VVVVDP'
tp172
F3
s(S'NP'
S'ADVNCP'
tp173
F5
s(S'NP'
p174
S'NANP'
tp175
F2
s(S'DP'
p176
S'DNNP'
tp177
F103
s(S'CP'
S'CADVDDPP'
tp178
F1
s(S'CP'
p179
S'CDDPPPP'
tp180
F1
s(S'CP'
S'CCADVDP'
tp181
F3
s(S'VP'
S'VVNNNP'
tp182
F1
s(S'VP'
S'AAVDDP'
tp183
F1
s(S'NP'
p184
S'NNNVP'
tp185
F6
s(S'PP'
S'AAPPDP'
tp186
F2
s(S'PP'
S'PPNNNNP'
tp187
F1
s(S'PP'
S'PADVVP'
tp188
F9
s(S'DP'
p189
S'DDDDDPPPPP'
tp190
F1
s(S'MP'
S'MVVDDP'
tp191
F2
s(S'DP'
S'DADVVVP'
tp192
F1
s(S'PP'
p193
S'PPPADP'
tp194
F1
s(S'PP'
S'APAP'
tp195
F6
s(g168
S'APP'
tp196
F69
s(S'NP'
S'AANADVVVP'
tp197
F1
s(S'NP'
S'NADVMP'
tp198
F2
s(S'AP'
S'AAP'
tp199
F11
s(S'VP'
p200
S'VADVADVVP'
tp201
F3
s(S'NP'
S'ADVADVNDP'
tp202
F1
s(S'AP'
p203
S'AAADVDDP'
tp204
F1
s(S'NP'
p205
S'ADVANPP'
tp206
F2
s(S'VP'
p207
S'VVVVPP'
tp208
F2
s(S'DP'
S'DAAVP'
tp209
F2
s(S'CP'
S'CDDDDPP'
tp210
F1
s(S'PP'
S'PAANP'
tp211
F5
s(S'PP'
p212
S'PPVVP'
tp213
F3
s(S'MP'
S'ADVADVMVP'
tp214
F1
s(g64
S'PPAVP'
tp215
F3
s(S'DP'
S'ADVDDPP'
tp216
F2
s(S'MP'
S'MVNP'
tp217
F11
s(S'CP'
S'CDDDPPP'
tp218
F2
s(S'MP'
S'MADVVAAP'
tp219
F1
s(S'PP'
S'PAVP'
tp220
F20
s(S'AP'
S'AAAPPPP'
tp221
F1
s(S'MP'
S'ADVMVP'
tp222
F1
s(S'NP'
p223
S'ANAAAP'
tp224
F1
s(g142
S'VVVPP'
tp225
F6
s(S'NP'
p226
S'ADVADVANDP'
tp227
F1
s(S'AP'
S'ADVACCP'
tp228
F2
s(S'DP'
S'DADP'
tp229
F1
s(S'AP'
S'ADVADP'
tp230
F2
s(S'CP'
S'ADVADVCDP'
tp231
F1
s(S'VP'
p232
S'VVADVPP'
tp233
F2
s(S'PP'
S'APDDP'
tp234
F3
s(S'VP'
p235
S'ADVADVVVNP'
tp236
F2
s(S'PP'
S'PADVADVADVNNP'
tp237
F1
s(S'NP'
S'ADVANADVDP'
tp238
F1
s(S'DP'
p239
S'ADVADVDAP'
tp240
F1
s(S'PP'
p241
S'PPCP'
tp242
F1
s(S'NP'
p243
S'AAANNPP'
tp244
F1
s(g24
S'APVP'
tp245
F17
s(g32
S'CCCCDDP'
tp246
F2
s(S'PP'
S'ADVPAVP'
tp247
F1
s(S'PP'
p248
S'PPPNNP'
tp249
F4
s(g55
S'PPVP'
tp250
F37
s(S'NP'
p251
S'NAAAANP'
tp252
F1
s(S'VP'
S'VADVDP'
tp253
F3
s(S'MP'
S'MVVVPP'
tp254
F1
s(g176
S'DDDPP'
tp255
F19
s(g142
S'VAAP'
tp256
F15
s(g154
S'ADVADVADVADVPPNP'
tp257
F1
s(S'NP'
p258
S'ANDP'
tp259
F16
s(S'NP'
S'NVVP'
tp260
F63
s(S'PP'
S'AAPVP'
tp261
F2
s(S'PP'
p262
S'PPADP'
tp263
F1
s(g34
S'VMP'
tp264
F5
s(S'NP'
S'ANNAP'
tp265
F1
s(S'VP'
p266
S'VVNNP'
tp267
F8
s(S'CP'
p268
S'CDAPP'
tp269
F37
s(S'VP'
S'VVAAP'
tp270
F2
s(S'DP'
S'ADVADVP'
tp271
F1
s(S'DP'
S'ADVADVDDVP'
tp272
F1
s(S'DP'
p273
S'ADNP'
tp274
F16
s(S'VP'
S'ADVVACP'
tp275
F1
s(S'PP'
p276
S'PADP'
tp277
F20
s(S'VP'
S'ADVVVCP'
tp278
F1
s(S'AP'
S'AAAACP'
tp279
F2
s(S'NP'
p280
S'ANDDP'
tp281
F2
s(S'DP'
p282
S'DNNNNNP'
tp283
F1
s(S'DP'
S'DADVAP'
tp284
F3
s(S'NP'
S'ADVADVADVANVP'
tp285
F1
s(S'CP'
S'ADVADVACDP'
tp286
F1
s(S'DP'
p287
S'DAPP'
tp288
F49
s(S'VP'
S'AVVP'
tp289
F1
s(S'NP'
S'NADVADVADVADVCCP'
tp290
F1
s(S'VP'
S'ADVADVVPP'
tp291
F6
s(S'VP'
S'VADVADVNP'
tp292
F1
s(g200
S'ADVADVVDP'
tp293
F8
s(S'VP'
S'AVVNP'
tp294
F1
s(g241
S'PPPDP'
tp295
F5
s(S'DP'
S'DAAPPP'
tp296
F1
s(S'NP'
p297
S'NNNCCCP'
tp298
F1
s(S'VP'
p299
S'VDDDDP'
tp300
F2
s(g176
S'DAAANP'
tp301
F4
s(S'DP'
p302
S'DADVANP'
tp303
F4
s(S'NP'
S'ANADVVVP'
tp304
F1
s(S'DP'
p305
S'ADVDNP'
tp306
F5
s(S'VP'
S'VVPP'
tp307
F48
s(S'VP'
S'VADVAPP'
tp308
F1
s(S'CP'
S'CCADDP'
tp309
F1
s(g305
S'ADADVPP'
tp310
F2
s(S'MP'
S'MVPP'
tp311
F14
s(g15
S'ADVP'
tp312
F9
s(S'CP'
S'CDDPPP'
tp313
F8
s(g297
S'NNNNNCCP'
tp314
F2
s(S'NP'
S'AANCCP'
tp315
F1
s(S'DP'
p316
S'DDDDNP'
tp317
F1
s(S'MP'
S'MVVDP'
tp318
F4
s(S'DP'
p319
S'DADVPPP'
tp320
F5
s(S'NP'
S'ANVP'
tp321
F34
s(S'DP'
S'DNNNP'
tp322
F9
s(S'DP'
S'ADVDDVP'
tp323
F2
s(g10
S'PADVADVVP'
tp324
F1
s(S'VP'
S'VADVDDP'
tp325
F1
s(S'PP'
p326
S'PMMP'
tp327
F2
s(g61
S'PVVVP'
tp328
F2
s(S'PP'
S'PMP'
tp329
F6
s(S'NP'
S'NNMMP'
tp330
F2
s(S'CP'
S'CCDP'
tp331
F68
s(S'DP'
S'ADVADVADVDPP'
tp332
F1
s(S'MP'
S'AMVP'
tp333
F2
s(g248
S'PPNNNP'
tp334
F6
s(S'CP'
S'AACADVDDP'
tp335
F1
s(S'NP'
S'NVVVP'
tp336
F15
s(S'CP'
S'CDDDPP'
tp337
F12
s(S'CP'
S'CDAAPP'
tp338
F2
s(g49
S'VVVDP'
tp339
F9
s(S'PP'
S'PDDDDP'
tp340
F1
s(S'PP'
S'PNNNP'
tp341
F16
s(S'CP'
S'CCCCDP'
tp342
F1
s(S'VP'
p343
S'VADVADVADVDDP'
tp344
F1
s(S'VP'
S'VAAPPP'
tp345
F2
s(g212
S'APADVNNP'
tp346
F1
s(S'AP'
S'AACCP'
tp347
F1
s(S'PP'
S'AAPNP'
tp348
F2
s(S'VP'
S'VVVVADVVP'
tp349
F1
s(S'CP'
S'CADADVPP'
tp350
F2
s(S'PP'
p351
S'PADVVVP'
tp352
F1
s(S'PP'
p353
S'PPP'
tp354
F72
s(g73
S'NNADVDP'
tp355
F1
s(g67
S'NAVP'
tp356
F15
s(S'PP'
S'PADVAP'
tp357
F1
s(S'NP'
p358
S'ANNPPP'
tp359
F2
s(S'VP'
S'ADVADVVAAP'
tp360
F1
s(S'DP'
p361
S'ADVDVP'
tp362
F5
s(S'NP'
S'NAAAP'
tp363
F4
s(S'NP'
S'NCCCP'
tp364
F2
s(S'AP'
S'AADVVP'
tp365
F3
s(S'MP'
S'MADVADVVPP'
tp366
F2
s(g282
S'ADVADVDNP'
tp367
F3
s(S'VP'
S'VAAAAP'
tp368
F1
s(S'VP'
S'VPP'
tp369
F188
s(S'CP'
S'ACCDP'
tp370
F1
s(S'DP'
S'ADVDDNP'
tp371
F2
s(g226
S'AANPPP'
tp372
F1
s(S'NP'
S'NNNCP'
tp373
F12
s(S'PP'
S'PADVDP'
tp374
F4
s(S'CP'
S'CDADVAPP'
tp375
F2
s(S'DP'
S'DANNP'
tp376
F6
s(S'MP'
p377
S'MADVVAP'
tp378
F1
s(S'PP'
S'PADVAAP'
tp379
F1
s(S'CP'
p380
S'CDDPP'
tp381
F46
s(S'DP'
S'DAAPP'
tp382
F6
s(g55
S'PVVP'
tp383
F25
s(S'CP'
S'CADPPP'
tp384
F4
s(S'AP'
p385
S'AACP'
tp386
F14
s(S'NP'
p387
S'NNADVADVACP'
tp388
F2
s(g18
S'ADVVCP'
tp389
F4
s(S'NP'
p390
S'NNADVADVDDP'
tp391
F1
s(g235
S'VPPP'
tp392
F29
s(S'VP'
S'ADVADVVVCCP'
tp393
F1
s(S'VP'
S'AVCCP'
tp394
F1
s(g86
S'PPADVADVDP'
tp395
F1
s(S'CP'
S'CDADVADVAPP'
tp396
F1
s(S'VP'
S'VVPPP'
tp397
F7
s(g299
S'ADVVVCCP'
tp398
F1
s(S'MP'
p399
S'MVPPP'
tp400
F1
s(S'DP'
S'DVVP'
tp401
F26
s(S'DP'
S'DDDDDDPPP'
tp402
F1
s(S'DP'
p403
S'ADPP'
tp404
F48
s(S'VP'
S'VVAPPP'
tp405
F1
s(S'VP'
S'VVVADVAP'
tp406
F1
s(S'NP'
S'NNNNDP'
tp407
F2
s(g144
S'ANMP'
tp408
F3
s(S'PP'
S'PPAP'
tp409
F10
s(S'PP'
S'ADVPPP'
tp410
F2
s(S'NP'
S'ADVADVNVP'
tp411
F1
s(g20
S'VVVP'
tp412
F4
s(S'NP'
S'ADVNNCCP'
tp413
F1
s(S'DP'
p414
S'DDPPPP'
tp415
F4
s(S'PP'
p416
S'PADVADVMP'
tp417
F1
s(S'NP'
p418
S'AANNNCCP'
tp419
F1
s(S'NP'
S'ANCP'
tp420
F56
s(S'DP'
S'DCP'
tp421
F4
s(S'DP'
S'DVVVP'
tp422
F3
s(g147
S'ADVVCCP'
tp423
F1
s(S'NP'
S'NNVVVVP'
tp424
F2
s(S'DP'
p425
S'DDDP'
tp426
F14
s(S'AP'
S'ADDDDP'
tp427
F1
s(S'DP'
S'DDADVPP'
tp428
F5
s(g174
S'ANVVP'
tp429
F10
s(S'PP'
p430
S'PPPNNNP'
tp431
F1
s(S'VP'
p432
S'VVDP'
tp433
F46
s(S'NP'
S'NPPP'
tp434
F27
s(S'PP'
p435
S'PPAPP'
tp436
F1
s(S'AP'
S'APPP'
tp437
F7
s(g361
S'DAVP'
tp438
F16
s(S'NP'
S'NNNMP'
tp439
F2
s(S'AP'
S'ACP'
tp440
F83
s(S'PP'
S'AAPAP'
tp441
F2
s(S'PP'
S'PADVADVNNP'
tp442
F1
s(g61
S'PPNP'
tp443
F52
s(g86
S'APPPP'
tp444
F2
s(S'DP'
p445
S'ADVDAPP'
tp446
F1
s(S'DP'
S'AADVP'
tp447
F3
s(S'PP'
S'APADVVVP'
tp448
F1
s(S'CP'
S'CDDADVPP'
tp449
F3
s(S'CP'
p450
S'CCCDDP'
tp451
F1
s(S'AP'
S'ADP'
tp452
F188
s(g32
S'CCCDDDP'
tp453
F1
s(S'CP'
S'CADVDDPPP'
tp454
F1
s(g179
S'CADVDPP'
tp455
F14
s(g319
S'ADDVVP'
tp456
F1
s(g435
S'APVVP'
tp457
F2
s(S'NP'
S'ADVANCCP'
tp458
F3
s(S'VP'
S'VAAANP'
tp459
F1
s(S'DP'
S'DVVVVP'
tp460
F2
s(S'VP'
S'VVPPPP'
tp461
F1
s(S'VP'
S'AAAVDP'
tp462
F1
s(S'PP'
p463
S'PPMP'
tp464
F1
s(S'NP'
S'ANNVP'
tp465
F2
s(g326
S'ADVADVPVVVVP'
tp466
F1
s(g49
S'VVAP'
tp467
F19
s(S'NP'
p468
S'NNAPP'
tp469
F2
s(S'PP'
p470
S'PPAAAAP'
tp471
F1
s(S'NP'
S'AANNMP'
tp472
F1
s(S'AP'
S'ADVADVAADVADVVP'
tp473
F1
s(S'AP'
S'AAAACCP'
tp474
F1
s(S'PP'
S'PADVADVDP'
tp475
F2
s(g86
S'PPADVVP'
tp476
F1
s(S'VP'
S'AAVCP'
tp477
F1
s(S'NP'
p478
S'NPP'
tp479
F283
s(S'PP'
S'PPPPNP'
tp480
F2
s(g280
S'NVP'
tp481
F265
s(S'CP'
S'ADVCCDDP'
tp482
F1
s(g353
S'PAAVP'
tp483
F6
s(S'NP'
S'NAAPP'
tp484
F2
s(S'PP'
S'PPPPVP'
tp485
F1
s(S'VP'
S'VDDP'
tp486
F22
s(S'DP'
S'DAAAAP'
tp487
F1
s(S'DP'
S'DADVADVPP'
tp488
F2
s(S'NP'
S'AANVVP'
tp489
F2
s(S'DP'
S'DADVAPP'
tp490
F4
s(g262
S'PAAAVP'
tp491
F1
s(S'NP'
S'NADVADVVVP'
tp492
F3
s(g107
S'ANPP'
tp493
F79
s(S'PP'
S'ADVPPDP'
tp494
F1
s(S'PP'
p495
S'PPPPP'
tp496
F4
s(S'MP'
S'MPDP'
tp497
F1
s(S'DP'
S'DDADVADVADVVVP'
tp498
F1
s(S'MP'
S'MVVPP'
tp499
F3
s(g52
S'PPPNP'
tp500
F4
s(S'NP'
p501
S'ADVADVNPP'
tp502
F1
s(g90
S'NPPPP'
tp503
F2
s(g132
S'ADDP'
tp504
F2
s(S'NP'
p505
S'NNCCCCP'
tp506
F1
s(S'CP'
S'CAADPP'
tp507
F5
s(S'DP'
S'DADVADVVP'
tp508
F2
s(g109
S'NAACP'
tp509
F2
s(g248
S'PNNP'
tp510
F76
s(S'NP'
S'AAANADVVVP'
tp511
F1
s(S'PP'
S'APNNP'
tp512
F1
s(S'DP'
S'DAAANNP'
tp513
F1
s(g358
S'NNNAPP'
tp514
F1
s(S'DP'
S'AAADPP'
tp515
F2
s(S'VP'
S'AVAP'
tp516
F1
s(S'MP'
p517
S'MMVP'
tp518
F6
s(S'PP'
p519
S'PADVDDP'
tp520
F2
s(g61
S'PCCP'
tp521
F3
s(g46
S'DDADVADVPP'
tp522
F1
s(S'PP'
S'PPAADP'
tp523
F3
s(S'NP'
p524
S'NNNADDP'
tp525
F1
s(S'VP'
S'VAPPP'
tp526
F1
s(g268
S'ACDP'
tp527
F33
s(S'NP'
S'NNDP'
tp528
F20
s(S'VP'
S'VVVNNNP'
tp529
F1
s(S'AP'
S'ADVANP'
tp530
F3
s(g432
S'VVNP'
tp531
F37
s(g13
S'NNACP'
tp532
F2
s(S'DP'
S'AAADPPP'
tp533
F1
s(S'CP'
S'CDADVPPP'
tp534
F2
s(g34
S'VAP'
tp535
F110
s(S'VP'
S'VVVVNP'
tp536
F1
s(g34
S'VVADVAP'
tp537
F4
s(S'VP'
S'VADVADVAAP'
tp538
F1
s(S'NP'
S'AANNCP'
tp539
F1
s(g243
S'ANADVCP'
tp540
F1
s(S'NP'
p541
S'NADVADP'
tp542
F1
s(S'VP'
S'VVPPPPP'
tp543
F1
s(S'AP'
S'ADVAAAADVADVDP'
tp544
F1
s(S'AP'
S'AAVVP'
tp545
F3
s(g414
S'DDDPPP'
tp546
F3
s(S'DP'
p547
S'DADVDP'
tp548
F1
s(S'NP'
S'AANMP'
tp549
F1
s(g470
S'APADVVP'
tp550
F1
s(S'CP'
S'CCADVADP'
tp551
F1
s(S'AP'
p552
S'AAACP'
tp553
F6
s(S'DP'
S'ADADVVP'
tp554
F1
s(S'PP'
S'PPNNNNNP'
tp555
F1
s(g495
S'PPPVP'
tp556
F2
s(S'VP'
S'AAVAP'
tp557
F1
s(S'AP'
S'AADDP'
tp558
F6
s(S'DP'
S'DDDVVVVVP'
tp559
F1
s(S'AP'
S'ACCCCP'
tp560
F1
s(g343
S'VAANP'
tp561
F4
s(S'VP'
p562
S'ADVVAAAP'
tp563
F1
s(S'NP'
S'NADVADVCP'
tp564
F3
s(S'CP'
S'CCAAADP'
tp565
F2
s(g519
S'ADVPNNP'
tp566
F2
s(S'VP'
S'ADVADVADVADVVDP'
tp567
F1
s(S'NP'
S'NVVVVP'
tp568
F2
s(S'PP'
S'PAAAAP'
tp569
F2
s(S'DP'
S'DADVADVDP'
tp570
F1
s(S'MP'
S'MPNP'
tp571
F1
s(g517
S'MADP'
tp572
F2
s(S'AP'
S'AMMP'
tp573
F1
s(S'CP'
S'CCAADP'
tp574
F1
s(S'AP'
S'AAACCP'
tp575
F1
s(S'DP'
S'DDADVNP'
tp576
F1
s(S'PP'
S'PANP'
tp577
F65
s(S'PP'
p578
S'PDDDP'
tp579
F5
s(g142
S'VVADVADVADVPP'
tp580
F1
s(S'DP'
S'ADVADVDAVP'
tp581
F1
s(S'MP'
S'MVVPPP'
tp582
F2
s(S'PP'
S'PAAAVVP'
tp583
F1
s(g7
S'ADVANPPP'
tp584
F1
s(g552
S'AAVP'
tp585
F7
s(S'PP'
S'AAPDDDDP'
tp586
F1
s(S'NP'
p587
S'NDDP'
tp588
F17
s(S'PP'
S'ADVADVPADVAAAP'
tp589
F1
s(S'AP'
S'ACCP'
tp590
F14
s(S'NP'
S'NNVVVP'
tp591
F1
s(S'VP'
S'AVPPP'
tp592
F1
s(g109
S'NDP'
tp593
F91
s(g390
S'NNNNVVP'
tp594
F3
s(g287
S'DDVP'
tp595
F23
s(S'DP'
S'AADNNNP'
tp596
F1
s(S'NP'
p597
S'AANVP'
tp598
F10
s(S'VP'
S'ADVVVNNP'
tp599
F1
s(g445
S'DADVADVAPP'
tp600
F1
s(S'VP'
S'VNNNP'
tp601
F3
s(g207
S'VADVADVPP'
tp602
F1
s(S'PP'
S'ADVPAP'
tp603
F1
s(S'MP'
S'MMVVVP'
tp604
F1
s(S'CP'
S'ADVADVADVADVCCDDP'
tp605
F1
s(S'PP'
S'APADVDP'
tp606
F2
s(g241
S'PCP'
tp607
F7
s(g88
S'NNPPP'
tp608
F7
s(S'VP'
S'VVDDDDDP'
tp609
F1
s(g463
S'PAADP'
tp610
F3
s(g184
S'ADVNNVP'
tp611
F2
s(g205
S'NADVCCP'
tp612
F1
s(S'VP'
p613
S'VCCP'
tp614
F6
s(S'AP'
S'AADVAP'
tp615
F1
s(S'NP'
S'NNNDP'
tp616
F3
s(S'AP'
S'ADVACP'
tp617
F3
s(S'PP'
S'AAPNNP'
tp618
F1
s(S'DP'
S'ADVDDPPP'
tp619
F1
s(S'VP'
S'VVVAP'
tp620
F7
s(g136
S'NNVP'
tp621
F65
s(S'NP'
p622
S'AAAAAANDP'
tp623
F1
s(S'MP'
S'MVCP'
tp624
F1
s(S'CP'
p625
S'CCDDP'
tp626
F17
s(g587
S'NNADVVP'
tp627
F6
s(S'VP'
S'ADVADVADVVPP'
tp628
F1
s(S'NP'
S'NAAP'
tp629
F10
s(S'NP'
S'ADVANAP'
tp630
F1
s(g184
S'NNVVP'
tp631
F14
s(g280
S'NNNNVP'
tp632
F3
s(g20
S'VVCP'
tp633
F10
s(S'NP'
S'NADVADVADVADVPP'
tp634
F1
s(g302
S'ADVDMP'
tp635
F1
s(S'NP'
S'AANCP'
tp636
F9
s(S'VP'
p637
S'VDP'
tp638
F225
s(S'VP'
S'VVDDDP'
tp639
F1
s(S'AP'
S'ADVAVVP'
tp640
F4
s(S'VP'
S'AVVPP'
tp641
F1
s(g587
S'NNDDP'
tp642
F6
s(S'DP'
S'DDDDPPP'
tp643
F1
s(g266
S'ADVVPP'
tp644
F11
s(S'VP'
S'ADVVVPPP'
tp645
F1
s(S'AP'
S'AAAADDP'
tp646
F1
s(S'CP'
S'CDAPPP'
tp647
F2
s(S'VP'
S'VNNP'
tp648
F22
s(S'AP'
p649
S'AADVDP'
tp650
F3
s(g524
S'NADP'
tp651
F1
s(S'DP'
S'DDNP'
tp652
F48
s(S'NP'
S'NADVCP'
tp653
F7
s(g28
S'DDNNP'
tp654
F8
s(S'VP'
S'VPPPPP'
tp655
F2
s(g425
S'ADVDDVVP'
tp656
F1
s(S'PP'
S'APCP'
tp657
F2
s(S'NP'
S'ADVADVNCP'
tp658
F1
s(S'AP'
p659
S'ADVADDP'
tp660
F1
s(g273
S'AADPP'
tp661
F6
s(S'MP'
S'MVAAANP'
tp662
F1
s(g501
S'NNNNPP'
tp663
F4
s(S'DP'
S'DADVADVANP'
tp664
F1
s(S'MP'
S'MADVVPP'
tp665
F1
s(S'NP'
p666
S'ANVVVP'
tp667
F7
s(S'DP'
S'DADVADVAP'
tp668
F1
s(S'DP'
S'ADVVP'
tp669
F2
s(S'NP'
S'AAANCP'
tp670
F2
s(g613
S'AAVVDP'
tp671
F1
s(S'DP'
S'ADVDNNP'
tp672
F1
s(S'CP'
S'ACDDP'
tp673
F2
s(S'AP'
p674
S'AAPP'
tp675
F13
s(S'VP'
S'VVCCP'
tp676
F2
s(S'DP'
S'DMMP'
tp677
F1
s(S'PP'
S'APPNP'
tp678
F1
s(S'DP'
S'DADVADVNP'
tp679
F1
s(S'NP'
S'ANNADVVP'
tp680
F1
s(g505
S'AAAAANPP'
tp681
F1
s(g67
S'NAPP'
tp682
F24
s(S'PP'
S'APPVP'
tp683
F2
s(S'NP'
p684
S'NADVDP'
tp685
F2
s(g674
S'ADVADVAACCP'
tp686
F1
s(S'PP'
S'APDDDP'
tp687
F1
s(S'DP'
S'ADVDANNP'
tp688
F1
s(S'CP'
S'ADVADVCADP'
tp689
F1
s(g161
S'ANCCP'
tp690
F2
s(S'NP'
S'AANPP'
tp691
F11
s(S'VP'
S'VDDDP'
tp692
F4
s(S'NP'
S'NNMP'
tp693
F9
s(S'DP'
S'DDDVP'
tp694
F3
s(S'VP'
p695
S'AAVPP'
tp696
F1
s(S'DP'
S'ADVADVDVP'
tp697
F1
s(S'MP'
S'MAPDP'
tp698
F1
s(S'PP'
S'PAAAP'
tp699
F1
s(S'PP'
S'ADVADVPNP'
tp700
F1
s(g251
S'AAAANCP'
tp701
F1
s(S'CP'
S'CDDAPP'
tp702
F1
s(S'VP'
S'VVVPPP'
tp703
F1
s(g684
S'ANAP'
tp704
F14
s(S'MP'
S'MVAP'
tp705
F4
s(S'PP'
S'PVP'
tp706
F184
s(S'AP'
S'ADVADVAPP'
tp707
F3
s(g86
S'PPPADVPPP'
tp708
F1
s(S'AP'
S'AADVDDP'
tp709
F1
s(S'DP'
S'DADVADVVVP'
tp710
F1
s(S'AP'
p711
S'ADVAACP'
tp712
F1
s(S'NP'
S'ANNCP'
tp713
F3
s(S'PP'
S'PPADVPP'
tp714
F1
s(S'DP'
S'DDDNNNNP'
tp715
F1
s(g258
S'ADVADVADVNVP'
tp716
F1
s(S'NP'
S'ADVADVANVP'
tp717
F1
s(g351
S'PPDDP'
tp718
F5
s(S'VP'
S'AVCP'
tp719
F1
s(S'NP'
S'NAVVP'
tp720
F2
s(S'DP'
S'DPP'
tp721
F449
s(S'NP'
S'ADVNVP'
tp722
F7
s(S'MP'
S'MMADVADVVVP'
tp723
F1
s(g176
S'DDPP'
tp724
F89
s(S'DP'
p725
S'DDADVPPP'
tp726
F1
s(S'DP'
p727
S'DDAVP'
tp728
F4
s(g273
S'DANP'
tp729
F106
s(S'NP'
S'NADVPP'
tp730
F2
s(S'NP'
S'NAAAAP'
tp731
F1
s(g622
S'NNNAAAAAANP'
tp732
F1
s(S'VP'
S'VADVADVADVADVPPP'
tp733
F1
s(S'NP'
S'AAANCCP'
tp734
F1
s(g193
S'APADVADVADVNP'
tp735
F1
s(S'PP'
S'PPPCCP'
tp736
F1
s(g403
S'AADNP'
tp737
F3
s(S'CP'
S'CADVADVADVDPP'
tp738
F1
s(S'DP'
S'ADVADVDPPP'
tp739
F1
s(S'CP'
S'CADVADVDPP'
tp740
F4
s(S'NP'
S'NNNNCP'
tp741
F5
s(S'MP'
S'MDNP'
tp742
F1
s(S'NP'
S'NNNVVP'
tp743
F1
s(S'AP'
S'ADVAADDP'
tp744
F1
s(S'NP'
S'NAANP'
tp745
F1
s(S'NP'
S'ADVADVNMP'
tp746
F1
s(S'PP'
S'ADVPAAAP'
tp747
F1
s(S'PP'
S'AAPDP'
tp748
F1
s(S'MP'
p749
S'MADVVDP'
tp750
F3
s(g26
S'DDADVNNP'
tp751
F1
s(S'DP'
S'DDADVVP'
tp752
F2
s(g430
S'PDDP'
tp753
F51
s(S'MP'
S'MVDDP'
tp754
F1
s(S'PP'
S'ADVAPNP'
tp755
F2
s(S'DP'
S'ADPPP'
tp756
F6
s(S'AP'
S'AAAAADVDP'
tp757
F1
s(S'PP'
S'APAAP'
tp758
F1
s(S'VP'
S'AVDP'
tp759
F31
s(g541
S'NNP'
tp760
F1
s(S'DP'
S'ADVADPP'
tp761
F1
s(S'DP'
S'DAANP'
tp762
F18
s(g385
S'ADDP'
tp763
F22
s(g276
S'PNNNNP'
tp764
F4
s(S'PP'
S'ADVPPNP'
tp765
F5
s(g418
S'AAAAAAANNCCP'
tp766
F1
s(g725
S'DDDDDNNP'
tp767
F1
s(S'NP'
p768
S'ADVADVNNMP'
tp769
F1
s(S'VP'
S'VVVCP'
tp770
F1
s(g377
S'MVVADVAP'
tp771
F1
s(g414
S'DPPP'
tp772
F77
s(S'CP'
S'ADVADVADVCCDP'
tp773
F1
s(S'VP'
S'VANNP'
tp774
F1
s(S'NP'
S'NNAVP'
tp775
F2
s(g649
S'AVVP'
tp776
F10
s(S'PP'
S'PPPANP'
tp777
F1
s(S'CP'
S'ADVADVCDDP'
tp778
F1
s(S'PP'
p779
S'ADVPNP'
tp780
F13
s(g430
S'PPDP'
tp781
F48
s(g749
S'MAVDP'
tp782
F2
s(S'CP'
S'CCDDDDDP'
tp783
F1
s(S'DP'
S'DDADVANP'
tp784
F1
s(S'VP'
S'AAAVVDDP'
tp785
F1
s(S'NP'
S'AAANMP'
tp786
F1
s(S'DP'
S'DDCP'
tp787
F2
s(S'NP'
S'ANADVADVVP'
tp788
F1
s(S'PP'
S'PPADVDDP'
tp789
F1
s(S'AP'
S'ANNP'
tp790
F1
s(g13
S'NAP'
tp791
F85
s(g232
S'VAAAP'
tp792
F2
s(S'NP'
S'AAAAANVP'
tp793
F1
s(S'AP'
S'AACCCCP'
tp794
F1
s(S'VP'
S'ADVADVADVADVVVPP'
tp795
F1
s(g399
S'MADVADVVVNP'
tp796
F1
s(g142
S'VVP'
tp797
F9
s(g189
S'DDAPP'
tp798
F5
s(g212
S'ADVADVPVP'
tp799
F2
s(g659
S'AAADP'
tp800
F3
s(g100
S'APNP'
tp801
F26
s(S'VP'
S'VVVNNP'
tp802
F1
s(g425
S'DDVVP'
tp803
F7
s(g711
S'AAADDP'
tp804
F1
s(S'VP'
S'VVVNP'
tp805
F3
s(S'NP'
S'NAMP'
tp806
F1
s(S'VP'
S'VVVADVANP'
tp807
F1
s(S'DP'
S'ADVADVDDPP'
tp808
F3
s(S'CP'
S'CDPP'
tp809
F357
s(S'MP'
S'MADVADVVANP'
tp810
F1
s(S'AP'
S'ADDDP'
tp811
F2
s(g49
S'VVAANP'
tp812
F1
s(S'CP'
S'ADVCDP'
tp813
F12
s(S'PP'
S'PADVADVPP'
tp814
F1
s(S'VP'
S'ADVADVVNP'
tp815
F1
s(g695
S'VAAVP'
tp816
F1
s(S'CP'
S'ADVACDP'
tp817
F3
s(S'VP'
S'VADVADVDP'
tp818
F2
s(g248
S'PPNNP'
tp819
F9
s(S'PP'
S'ADVAPPP'
tp820
F1
s(g727
S'ADVADVDPP'
tp821
F7
s(S'VP'
S'VADVNP'
tp822
F5
s(g223
S'NADVAP'
tp823
F2
s(S'VP'
S'AVDDP'
tp824
F4
s(S'DP'
S'DADVNP'
tp825
F6
s(g287
S'DAP'
tp826
F39
s(S'CP'
S'CADPP'
tp827
F40
s(S'VP'
S'ADVADVVVPP'
tp828
F1
s(S'VP'
S'AVADVANP'
tp829
F1
s(S'MP'
S'MADVADVVDP'
tp830
F2
s(S'PP'
S'PPDDDP'
tp831
F1
s(g142
S'AVPP'
tp832
F17
s(S'CP'
S'CDDPPPPP'
tp833
F1
s(S'CP'
S'CDPPPP'
tp834
F6
s(S'VP'
S'AAVDP'
tp835
F3
s(S'PP'
S'PANNP'
tp836
F1
s(S'VP'
S'ADVADVADVADVVPP'
tp837
F1
s(g86
S'APPP'
tp838
F5
s(S'DP'
S'DAPPP'
tp839
F2
s(S'AP'
S'AAADVDP'
tp840
F1
s(g547
S'DMP'
tp841
F6
s(S'CP'
S'CCADP'
tp842
F3
s(g239
S'ADVDPP'
tp843
F21
s(S'PP'
S'APADVPP'
tp844
F1
s(S'PP'
S'PPAANP'
tp845
F1
s(g478
S'AAANPP'
tp846
F1
s(S'PP'
S'PADVADVNP'
tp847
F3
s(g58
S'ADVADVVAP'
tp848
F2
s(g203
S'AADP'
tp849
F38
s(S'NP'
S'NNADVVVP'
tp850
F4
s(S'NP'
S'NADVADVADVCCP'
tp851
F1
s(S'VP'
S'VADVPP'
tp852
F4
s(S'DP'
S'DDAAPP'
tp853
F2
s(g15
S'ADVDANP'
tp854
F1
s(S'CP'
S'ADVADVACDDP'
tp855
F1
s(S'PP'
S'ADVPVP'
tp856
F10
s(S'NP'
S'NADVADVADVVVP'
tp857
F1
s(S'MP'
S'ADVMVVP'
tp858
F1
s(g450
S'CDDDDDDPPP'
tp859
F1
s(S'NP'
S'NNDDDP'
tp860
F1
s(S'VP'
S'ADVVANP'
tp861
F3
s(g578
S'PAMP'
tp862
F1
s(g779
S'ADVPDP'
tp863
F7
s(S'VP'
S'VVNNNNP'
tp864
F1
s(g666
S'ANNPP'
tp865
F4
s(S'PP'
S'PPDDDDP'
tp866
F1
s(S'MP'
S'MVADVAP'
tp867
F1
s(S'NP'
S'NCP'
tp868
F274
s(S'VP'
S'ADVVVPP'
tp869
F10
s(g416
S'AAAPNP'
tp870
F1
s(g316
S'DDADVVVP'
tp871
F1
s(S'AP'
S'AAAP'
tp872
F6
s(S'CP'
S'CDDADVADVPP'
tp873
F1
s(S'VP'
S'VAADP'
tp874
F1
s(S'PP'
S'ADVPDDP'
tp875
F2
s(g61
S'ADVADVADVPAAP'
tp876
F1
s(g587
S'AANDP'
tp877
F5
s(S'DP'
S'DADVNNP'
tp878
F1
s(g478
S'NNCCP'
tp879
F14
s(S'MP'
S'MNVP'
tp880
F1
s(S'NP'
S'AANAP'
tp881
F3
s(g109
S'NNPP'
tp882
F42
s(S'VP'
S'VAPP'
tp883
F16
s(g432
S'ADVVDP'
tp884
F24
s(S'DP'
S'DADVPP'
tp885
F22
s(S'VP'
S'AVADVPP'
tp886
F1
s(S'AP'
S'AMP'
tp887
F3
s(g387
S'NADVADVADVADVVP'
tp888
F2
s(S'NP'
S'ADVNNCP'
tp889
F1
s(g109
S'NNNPPP'
tp890
F2
s(S'AP'
S'ADVAPP'
tp891
F13
s(g625
S'AACDP'
tp892
F3
s(g505
S'NNNCCP'
tp893
F2
s(g380
S'CCDDDP'
tp894
F3
s(S'CP'
S'CCADVADVDDP'
tp895
F1
s(S'DP'
S'DVP'
tp896
F190
s(g34
S'ADVVAP'
tp897
F7
s(g468
S'ADVNPP'
tp898
F1
s(g505
S'NNCCCP'
tp899
F1
s(S'AP'
S'AVP'
tp900
F43
s(g597
S'NADVVP'
tp901
F15
s(S'NP'
S'NNADVADVVP'
tp902
F1
s(g768
S'AAAANVP'
tp903
F1
s(g425
S'DDPPP'
tp904
F12
s(S'NP'
S'ADVNMP'
tp905
F1
s(S'NP'
S'NNAP'
tp906
F12
s(S'PP'
S'PPANP'
tp907
F6
s(S'CP'
S'CDADVPP'
tp908
F14
s(g637
S'VNP'
tp909
F158
s(S'VP'
S'VANP'
tp910
F24
s(g266
S'VADVAP'
tp911
F17
s(S'DP'
S'DDDANP'
tp912
F1
s(S'PP'
S'APAANNNP'
tp913
F1
s(g80
S'DDDDVP'
tp914
F3
s(g562
S'ADVADVVVDP'
tp915
F2
s(S'NP'
S'NNNAPPP'
tp916
F1
s(S'NP'
S'AANNAP'
tp917
F1
s(g684
S'NADVPPP'
tp918
F1
s.