ccollections
defaultdict
p1
(c__builtin__
float
p2
tRp3
(S'MP'
S'MMDP'
tp4
F1
s(S'PP'
S'ADVADVPPAP'
tp5
F1
s(S'CP'
S'CAAADPP'
tp6
F1
s(S'DP'
S'DDMP'
tp7
F1
s(S'DP'
p8
S'DDAP'
tp9
F3
s(S'VP'
p10
S'ADVVVNP'
tp11
F5
s(S'CP'
S'CCDDDDP'
tp12
F1
s(S'NP'
S'ADVANADVVP'
tp13
F1
s(S'AP'
S'AVVVP'
tp14
F1
s(S'VP'
S'VVADVVP'
tp15
F2
s(S'VP'
p16
S'AVADVPP'
tp17
F1
s(S'PP'
p18
S'PADVNP'
tp19
F23
s(S'VP'
S'VVADVADVADVNP'
tp20
F1
s(S'DP'
p21
S'DNP'
tp22
F279
s(S'VP'
p23
S'VVDDP'
tp24
F10
s(S'MP'
S'MVVAAP'
tp25
F1
s(S'NP'
S'ADVADVNNVVP'
tp26
F1
s(S'CP'
p27
S'CDPPP'
tp28
F68
s(S'DP'
p29
S'ADVADVADPPP'
tp30
F1
s(S'VP'
p31
S'VADP'
tp32
F28
s(S'DP'
S'DNNNNP'
tp33
F2
s(S'DP'
p34
S'DAAP'
tp35
F9
s(S'PP'
p36
S'PPPPPP'
tp37
F2
s(S'VP'
p38
S'VAVP'
tp39
F2
s(S'CP'
S'CADVADVDPPP'
tp40
F2
s(S'DP'
p41
S'ADNNP'
tp42
F5
s(S'AP'
S'AAADVPPP'
tp43
F1
s(S'PP'
S'ADVPPPP'
tp44
F1
s(S'VP'
p45
S'ADVVNP'
tp46
F12
s(S'MP'
p47
S'MVDP'
tp48
F28
s(S'PP'
S'PADVANP'
tp49
F5
s(S'PP'
p50
S'PPPP'
tp51
F48
s(S'DP'
S'DDDNP'
tp52
F4
s(S'VP'
p53
S'VACP'
tp54
F11
s(S'AP'
S'AAAVP'
tp55
F3
s(S'NP'
S'NNADVDDP'
tp56
F1
s(S'DP'
p57
S'DADVVP'
tp58
F9
s(S'PP'
p59
S'PADVNNP'
tp60
F2
s(S'AP'
p61
S'AADVPP'
tp62
F2
s(S'NP'
p63
S'NADVACP'
tp64
F2
s(S'VP'
S'AAVVP'
tp65
F1
s(S'NP'
p66
S'NCCCP'
tp67
F4
s(S'CP'
S'CADVADVDDPP'
tp68
F2
s(g16
S'VCP'
tp69
F155
s(S'MP'
S'MVVANP'
tp70
F1
s(S'NP'
S'NMMP'
tp71
F4
s(S'VP'
S'AVADVNNP'
tp72
F1
s(S'NP'
S'NNADVAP'
tp73
F1
s(g16
S'ADVVCCP'
tp74
F2
s(S'PP'
p75
S'PAP'
tp76
F144
s(S'MP'
S'MMVVP'
tp77
F2
s(S'DP'
S'DDDADVPP'
tp78
F1
s(S'CP'
S'CDADVADVADVPP'
tp79
F1
s(S'PP'
p80
S'ADVPPVP'
tp81
F6
s(S'PP'
S'APVVP'
tp82
F6
s(S'PP'
p83
S'PPADVDP'
tp84
F4
s(S'VP'
p85
S'VADVANP'
tp86
F3
s(S'PP'
p87
S'PNP'
tp88
F279
s(S'MP'
S'MADVVVCP'
tp89
F1
s(S'VP'
S'VVADVADVNP'
tp90
F1
s(S'MP'
S'MVAAAP'
tp91
F1
s(S'DP'
p92
S'DDP'
tp93
F65
s(S'VP'
S'ADVVDDP'
tp94
F1
s(S'NP'
p95
S'NNNPP'
tp96
F6
s(g38
S'VCCP'
tp97
F29
s(g47
S'MCDP'
tp98
F2
s(g95
S'NNCCCCCCP'
tp99
F1
s(S'NP'
p100
S'NNADVADVCP'
tp101
F2
s(S'NP'
p102
S'ANPPPP'
tp103
F1
s(S'MP'
S'MNAP'
tp104
F1
s(S'AP'
p105
S'ADVADVAVVP'
tp106
F1
s(S'VP'
p107
S'ADVADVVVCP'
tp108
F1
s(g95
S'NMP'
tp109
F96
s(S'VP'
p110
S'VVVADP'
tp111
F1
s(S'PP'
p112
S'PAPP'
tp113
F21
s(S'DP'
p114
S'ADCP'
tp115
F1
s(S'NP'
p116
S'NNCCCCCP'
tp117
F1
s(S'VP'
S'AAVNP'
tp118
F1
s(S'VP'
S'VMMP'
tp119
F2
s(g87
S'PDP'
tp120
F266
s(S'DP'
S'DDPPPPP'
tp121
F1
s(S'CP'
S'CDAAPP'
tp122
F8
s(S'NP'
p123
S'ADVNVVP'
tp124
F1
s(S'MP'
S'MADVVNP'
tp125
F4
s(S'CP'
S'CDADVADVPPP'
tp126
F1
s(g8
S'ADVADVDAPP'
tp127
F1
s(S'PP'
S'PPPAANP'
tp128
F1
s(S'PP'
S'APADVCP'
tp129
F1
s(S'NP'
p130
S'NACCP'
tp131
F1
s(S'AP'
S'ANP'
tp132
F1
s(S'PP'
S'PADVPP'
tp133
F6
s(S'MP'
p134
S'MVADVANP'
tp135
F1
s(S'NP'
p136
S'NNADVCP'
tp137
F2
s(S'MP'
S'MVACP'
tp138
F1
s(S'NP'
S'ADVANCP'
tp139
F2
s(S'NP'
S'ADVNACP'
tp140
F1
s(S'DP'
p141
S'DPPPP'
tp142
F11
s(S'DP'
S'DDANP'
tp143
F4
s(S'PP'
p144
S'PADVADP'
tp145
F2
s(S'NP'
p146
S'NACP'
tp147
F34
s(g66
S'NCCP'
tp148
F49
s(S'NP'
S'ADVNDP'
tp149
F2
s(S'VP'
S'VADVADVADVDDP'
tp150
F1
s(S'AP'
S'AAAADP'
tp151
F1
s(S'NP'
p152
S'NNCP'
tp153
F57
s(S'DP'
S'ADVDDPP'
tp154
F5
s(S'NP'
S'NADVADVVP'
tp155
F1
s(g41
S'DPPPPP'
tp156
F2
s(S'DP'
S'DDDDP'
tp157
F1
s(S'DP'
S'DDAPP'
tp158
F4
s(S'NP'
S'NNADVADVADVCP'
tp159
F1
s(S'VP'
S'AVNP'
tp160
F14
s(S'VP'
S'VVADP'
tp161
F2
s(S'NP'
S'ADVNDDP'
tp162
F1
s(S'PP'
p163
S'ADVPVVP'
tp164
F2
s(S'VP'
S'VVADVCP'
tp165
F1
s(S'VP'
p166
S'VVVANP'
tp167
F1
s(S'PP'
p168
S'ADVAPDP'
tp169
F1
s(S'VP'
S'AVDDDP'
tp170
F1
s(S'VP'
S'ADVADVADVVNP'
tp171
F1
s(S'DP'
p172
S'ADVADVADVDDPP'
tp173
F1
s(S'NP'
S'ANADVVP'
tp174
F2
s(g50
S'ADVAPVP'
tp175
F1
s(S'VP'
S'ADVADVADVADVVAP'
tp176
F1
s(S'VP'
S'VVVADVCP'
tp177
F1
s(S'DP'
p178
S'DADVPPP'
tp179
F11
s(S'NP'
p180
S'NCCCCP'
tp181
F3
s(S'CP'
p182
S'CCCDP'
tp183
F8
s(S'VP'
S'ADVVAP'
tp184
F5
s(S'PP'
p185
S'ADVPPCP'
tp186
F1
s(S'VP'
p187
S'VCCCP'
tp188
F3
s(g27
S'CCCCCCDDDDDDP'
tp189
F1
s(g18
S'APDP'
tp190
F30
s(S'VP'
S'VADVADVAAP'
tp191
F1
s(g107
S'ADVVNNP'
tp192
F5
s(S'AP'
p193
S'AADVCP'
tp194
F1
s(S'DP'
p195
S'DDANNP'
tp196
F1
s(S'VP'
p197
S'VVANP'
tp198
F3
s(S'MP'
p199
S'ADVMPP'
tp200
F1
s(S'PP'
p201
S'ADVPNNP'
tp202
F5
s(S'VP'
S'ADVVVP'
tp203
F2
s(S'DP'
S'DADVADVADVPP'
tp204
F1
s(g123
S'NNNNMMP'
tp205
F1
s(S'AP'
S'AAPP'
tp206
F14
s(S'PP'
S'PPPPMP'
tp207
F1
s(S'NP'
p208
S'ADVNCP'
tp209
F14
s(g18
S'PAAP'
tp210
F30
s(S'NP'
p211
S'NNADVAPP'
tp212
F1
s(g92
S'DNNP'
tp213
F62
s(S'CP'
S'CADVDDPP'
tp214
F3
s(S'NP'
p215
S'NAMP'
tp216
F2
s(S'CP'
S'CDDPPPP'
tp217
F2
s(S'CP'
S'CCADVDP'
tp218
F2
s(S'VP'
S'VVNNNP'
tp219
F1
s(S'VP'
p220
S'AAVDDP'
tp221
F1
s(g114
S'DADVADVADVADVVP'
tp222
F1
s(S'DP'
S'DMMP'
tp223
F1
s(S'NP'
p224
S'NNNVP'
tp225
F5
s(S'VP'
S'VADVNNP'
tp226
F2
s(S'PP'
p227
S'PADVVP'
tp228
F9
s(S'MP'
S'MVVDDP'
tp229
F1
s(S'PP'
p230
S'APDDDDP'
tp231
F1
s(S'PP'
S'PPPADP'
tp232
F1
s(g112
S'APAP'
tp233
F12
s(S'AP'
p234
S'APP'
tp235
F64
s(g172
S'ADVDDCP'
tp236
F1
s(S'AP'
S'ACCCP'
tp237
F1
s(S'CP'
S'CADPPPPP'
tp238
F1
s(S'NP'
p239
S'NADVMP'
tp240
F3
s(S'AP'
S'AAP'
tp241
F15
s(S'MP'
S'ADVMAVP'
tp242
F1
s(S'NP'
S'ADVADVNDP'
tp243
F1
s(S'NP'
S'ADVANPP'
tp244
F1
s(S'MP'
S'MVVCP'
tp245
F3
s(S'VP'
S'VADVADVNP'
tp246
F1
s(S'VP'
S'ADVVMP'
tp247
F1
s(S'CP'
S'CDDDDPP'
tp248
F1
s(S'PP'
S'PAANP'
tp249
F1
s(S'DP'
S'DDADVADVVP'
tp250
F1
s(g201
S'PPPDDDP'
tp251
F1
s(S'DP'
p252
S'ADVDVP'
tp253
F10
s(g63
S'ANVP'
tp254
F20
s(S'VP'
p255
S'VAACP'
tp256
F1
s(S'DP'
S'DDDDADVPP'
tp257
F1
s(g47
S'MVNP'
tp258
F27
s(S'PP'
p259
S'PADVADVADVAP'
tp260
F2
s(S'AP'
p261
S'ADVAADP'
tp262
F2
s(g50
S'PAVP'
tp263
F25
s(S'MP'
S'ADVMVP'
tp264
F1
s(g168
S'ADVADVPPVP'
tp265
F1
s(S'NP'
S'ANAAAP'
tp266
F1
s(S'VP'
S'VVVPP'
tp267
F4
s(S'CP'
S'ADVCADP'
tp268
F1
s(S'CP'
S'CDDAPP'
tp269
F2
s(S'PP'
S'AAAAPPP'
tp270
F1
s(S'PP'
p271
S'APPPP'
tp272
F3
s(S'DP'
p273
S'DADP'
tp274
F8
s(S'AP'
S'ADVADP'
tp275
F7
s(S'CP'
S'ADVADVCDP'
tp276
F4
s(g45
S'VVADVPP'
tp277
F2
s(S'DP'
p278
S'ADVDDP'
tp279
F2
s(g18
S'APDDP'
tp280
F6
s(S'VP'
S'AAVMP'
tp281
F1
s(S'VP'
S'ADVADVVVNP'
tp282
F1
s(S'VP'
S'ADVADVVANP'
tp283
F1
s(S'NP'
p284
S'ADVNAP'
tp285
F3
s(g110
S'ADVADVADVADVADVVAAAP'
tp286
F1
s(S'PP'
p287
S'PPCP'
tp288
F2
s(g112
S'APVP'
tp289
F35
s(S'MP'
S'MNCP'
tp290
F1
s(g16
S'VVNP'
tp291
F36
s(S'PP'
S'PPPNNP'
tp292
F1
s(S'DP'
p293
S'ADVDDDP'
tp294
F1
s(g87
S'PPVP'
tp295
F43
s(S'VP'
p296
S'VADVDP'
tp297
F9
s(S'MP'
S'MVVVPP'
tp298
F1
s(S'VP'
S'VVADVAP'
tp299
F1
s(g107
S'VAAP'
tp300
F22
s(g116
S'NNADVAVP'
tp301
F1
s(S'NP'
S'ANDP'
tp302
F7
s(g66
S'NVVP'
tp303
F40
s(S'PP'
S'PPADP'
tp304
F4
s(g31
S'VMP'
tp305
F14
s(g208
S'AANNMP'
tp306
F1
s(S'AP'
S'ADVADVADVACP'
tp307
F1
s(S'VP'
S'VVNNP'
tp308
F4
s(S'CP'
S'CDAPP'
tp309
F48
s(S'VP'
p310
S'VVAAP'
tp311
F5
s(S'DP'
p312
S'ADVADVP'
tp313
F2
s(S'NP'
S'ANCCP'
tp314
F5
s(S'DP'
p315
S'ADNP'
tp316
F32
s(S'CP'
S'CDPPPPP'
tp317
F1
s(S'DP'
p318
S'ADVDDPPP'
tp319
F1
s(g230
S'PADP'
tp320
F34
s(g10
S'ADVVVCP'
tp321
F3
s(g193
S'AAAACP'
tp322
F1
s(S'NP'
S'ANDDP'
tp323
F3
s(S'VP'
p324
S'VVVDDP'
tp325
F1
s(S'DP'
p326
S'ADVDAANP'
tp327
F1
s(g315
S'DAPP'
tp328
F78
s(S'MP'
S'MVVVAAP'
tp329
F1
s(S'VP'
S'AVVP'
tp330
F1
s(g197
S'ADVADVVPP'
tp331
F1
s(g141
S'DAAVP'
tp332
F3
s(S'PP'
S'ADVPVVVP'
tp333
F1
s(S'VP'
S'ADVADVVDP'
tp334
F4
s(S'AP'
S'ADVAVVVVP'
tp335
F1
s(S'PP'
S'PPPDP'
tp336
F3
s(S'DP'
S'DDAAVP'
tp337
F2
s(S'AP'
S'AAPPP'
tp338
F2
s(S'VP'
S'VDDDDP'
tp339
F2
s(S'DP'
S'DADVANP'
tp340
F2
s(g178
S'ADVDNP'
tp341
F8
s(S'VP'
S'VVPP'
tp342
F25
s(g215
S'ADVANADVADVADVVP'
tp343
F1
s(g273
S'ADADVPP'
tp344
F1
s(S'CP'
S'AACDDP'
tp345
F1
s(S'MP'
S'MVPP'
tp346
F22
s(g21
S'ADVP'
tp347
F19
s(S'MP'
S'MVADP'
tp348
F1
s(S'CP'
p349
S'CDDPPP'
tp350
F11
s(g53
S'ADVVVDP'
tp351
F3
s(S'VP'
S'ADVADVADVVDP'
tp352
F1
s(S'NP'
p353
S'NNPP'
tp354
F32
s(S'DP'
S'DDDDNP'
tp355
F1
s(S'MP'
S'MVVDP'
tp356
F5
s(g261
S'AACP'
tp357
F21
s(S'PP'
S'PPVVP'
tp358
F8
s(S'CP'
S'CADVDAPP'
tp359
F1
s(S'VP'
S'AAAVDDP'
tp360
F1
s(S'VP'
S'VVADVCCP'
tp361
F1
s(g21
S'DNNNP'
tp362
F4
s(S'DP'
S'ADVDDVP'
tp363
F3
s(S'PP'
p364
S'PADVADVVP'
tp365
F1
s(g38
S'VADVDDP'
tp366
F2
s(S'PP'
S'PMMP'
tp367
F1
s(g271
S'PVVVP'
tp368
F1
s(g87
S'PMP'
tp369
F32
s(S'NP'
p370
S'NNMMP'
tp371
F1
s(g163
S'PADVADVADVVP'
tp372
F1
s(S'MP'
S'MCCDP'
tp373
F1
s(g182
S'CCDP'
tp374
F82
s(S'NP'
S'ADVNNDP'
tp375
F1
s(S'DP'
S'ADVADVADVDPP'
tp376
F2
s(S'MP'
S'AMVP'
tp377
F8
s(g87
S'PPNNNP'
tp378
F1
s(S'MP'
S'MVAP'
tp379
F19
s(S'NP'
p380
S'NVVVP'
tp381
F3
s(S'CP'
S'CDDDPP'
tp382
F9
s(S'PP'
S'PPADVVP'
tp383
F1
s(S'VP'
S'VVVDP'
tp384
F6
s(S'PP'
p385
S'PNNNP'
tp386
F8
s(S'CP'
S'CCCCDP'
tp387
F2
s(S'NP'
S'ANMMP'
tp388
F1
s(S'AP'
S'AACCP'
tp389
F2
s(S'PP'
p390
S'AAPNP'
tp391
F4
s(S'AP'
S'ADVAAAP'
tp392
F1
s(S'MP'
S'MVVNP'
tp393
F3
s(S'PP'
S'PADVVVP'
tp394
F4
s(g75
S'PPP'
tp395
F164
s(S'NP'
S'NNADVDP'
tp396
F1
s(S'NP'
p397
S'NAVP'
tp398
F21
s(S'PP'
S'PADVAP'
tp399
F3
s(S'DP'
S'ADVADVDDPPP'
tp400
F1
s(S'PP'
p401
S'PPADVADVNNP'
tp402
F1
s(S'NP'
S'NADVVVP'
tp403
F6
s(S'DP'
S'DADVADVPPP'
tp404
F2
s(S'AP'
S'AADVVP'
tp405
F1
s(g36
S'PPPPDP'
tp406
F2
s(S'VP'
p407
S'ADVADVVVPP'
tp408
F2
s(S'DP'
S'ADVADVDNP'
tp409
F2
s(g105
S'AAADVCP'
tp410
F1
s(g85
S'VPP'
tp411
F185
s(S'CP'
S'ADVCCDP'
tp412
F4
s(S'NP'
p413
S'ANADVDDP'
tp414
F1
s(S'MP'
S'ADVADVMVP'
tp415
F1
s(S'DP'
S'ADVDDNP'
tp416
F2
s(g95
S'NNNCP'
tp417
F8
s(g201
S'PADVDP'
tp418
F11
s(S'CP'
S'CDADVAPP'
tp419
F1
s(g182
S'CDDDPPP'
tp420
F1
s(S'PP'
p421
S'PADVAAP'
tp422
F2
s(g27
S'CDDPP'
tp423
F72
s(g278
S'DAAPP'
tp424
F8
s(g112
S'PVVP'
tp425
F52
s(S'CP'
S'CADPPP'
tp426
F7
s(S'CP'
p427
S'CDDDDPPP'
tp428
F2
s(S'NP'
S'NADVMMP'
tp429
F1
s(S'MP'
S'MAVCP'
tp430
F1
s(S'VP'
p431
S'ADVVCP'
tp432
F9
s(S'PP'
S'ADVPPAP'
tp433
F1
s(S'VP'
p434
S'VPPP'
tp435
F21
s(S'VP'
S'AVCCP'
tp436
F1
s(g38
S'VVPPP'
tp437
F5
s(S'VP'
S'ADVADVADVVPPP'
tp438
F1
s(S'DP'
S'DDAVP'
tp439
F1
s(S'VP'
S'ADVVVCCP'
tp440
F2
s(g385
S'PPAP'
tp441
F21
s(g92
S'DVVP'
tp442
F48
s(g21
S'DDDDDDPPP'
tp443
F1
s(g427
S'CADVADVDAPP'
tp444
F1
s(S'NP'
S'ANMP'
tp445
F6
s(S'AP'
S'APPP'
tp446
F6
s(g271
S'ADVPPP'
tp447
F4
s(S'DP'
S'ADVADPPP'
tp448
F1
s(S'NP'
S'ADVADVNVP'
tp449
F2
s(S'VP'
p450
S'VVVP'
tp451
F14
s(S'CP'
S'CADVDPP'
tp452
F19
s(g66
S'ANCP'
tp453
F39
s(S'DP'
p454
S'DCP'
tp455
F19
s(S'NP'
S'ANNCP'
tp456
F1
s(S'DP'
p457
S'DDDNNP'
tp458
F2
s(S'VP'
S'ADVVVVP'
tp459
F1
s(g239
S'NNNNAAP'
tp460
F1
s(g312
S'DADVCP'
tp461
F1
s(S'NP'
S'NNVVVVP'
tp462
F1
s(g34
S'DDDP'
tp463
F19
s(S'DP'
S'DDADVPP'
tp464
F1
s(S'MP'
S'MVVCCP'
tp465
F1
s(S'VP'
S'AAAAVPP'
tp466
F1
s(g152
S'ANVVP'
tp467
F8
s(g31
S'VVDP'
tp468
F61
s(g353
S'NPPP'
tp469
F31
s(S'NP'
S'NADVADVCP'
tp470
F2
s(S'MP'
S'AMVVP'
tp471
F1
s(S'DP'
S'DAVP'
tp472
F31
s(g310
S'ADVAVCP'
tp473
F1
s(S'DP'
S'ADVDAAAAPP'
tp474
F1
s(S'AP'
S'ACP'
tp475
F86
s(g230
S'AAPAP'
tp476
F1
s(g75
S'PPNP'
tp477
F74
s(g224
S'ADVADVADVNNPP'
tp478
F1
s(S'DP'
p479
S'DDADVADVADVNNP'
tp480
F1
s(g34
S'AADVP'
tp481
F4
s(S'NP'
S'NNNNCCP'
tp482
F1
s(S'VP'
S'VVVVNNP'
tp483
F1
s(S'PP'
p484
S'PPPADVAP'
tp485
F1
s(S'CP'
S'CDDADVPP'
tp486
F1
s(S'CP'
S'CCCDDP'
tp487
F1
s(S'AP'
S'ADP'
tp488
F219
s(g18
S'APMP'
tp489
F1
s(g273
S'DDPPPP'
tp490
F4
s(S'NP'
p491
S'ANPPP'
tp492
F4
s(g95
S'ADVANCCP'
tp493
F2
s(S'PP'
p494
S'PANNP'
tp495
F1
s(g38
S'AVDP'
tp496
F43
s(S'NP'
S'ANNVP'
tp497
F1
s(S'MP'
S'ADVMMVP'
tp498
F1
s(g34
S'ADVDDNNP'
tp499
F1
s(g413
S'NNAPP'
tp500
F3
s(g293
S'ADVADVADVADVDAAP'
tp501
F1
s(S'CP'
p502
S'ADVACDP'
tp503
F3
s(S'NP'
S'NNADVCCP'
tp504
F1
s(g95
S'NPP'
tp505
F218
s(S'VP'
p506
S'ADVADVVAP'
tp507
F2
s(g66
S'NVP'
tp508
F224
s(S'PP'
S'PPAMP'
tp509
F1
s(S'PP'
S'PPVVVP'
tp510
F1
s(g83
S'PAAVP'
tp511
F3
s(S'NP'
p512
S'NAAPP'
tp513
F4
s(S'PP'
S'PPPPVP'
tp514
F2
s(S'NP'
p515
S'ADVADVADVNPPP'
tp516
F2
s(g434
S'VDDP'
tp517
F46
s(g199
S'MAVADVPP'
tp518
F1
s(S'AP'
S'ADVADVADVADP'
tp519
F1
s(S'AP'
S'AAADVDP'
tp520
F1
s(S'DP'
S'DDDVVP'
tp521
F1
s(g29
S'DADVADVADP'
tp522
F1
s(S'PP'
S'PPADVADP'
tp523
F1
s(S'DP'
S'DADVAPP'
tp524
F2
s(g146
S'NADVADVVVP'
tp525
F4
s(g63
S'ANPP'
tp526
F29
s(S'PP'
S'ADVPPDP'
tp527
F5
s(S'PP'
S'PPPPP'
tp528
F13
s(g134
S'MPDP'
tp529
F1
s(S'PP'
S'ADVADVPDP'
tp530
F1
s(S'NP'
S'ADVNAAAP'
tp531
F1
s(S'MP'
S'MVVPP'
tp532
F2
s(S'PP'
S'PAAAVP'
tp533
F1
s(g252
S'ADDP'
tp534
F7
s(S'NP'
S'NADVAAP'
tp535
F1
s(S'CP'
S'CDDDADVPP'
tp536
F1
s(g182
S'CAADPP'
tp537
F6
s(S'DP'
S'DADVADVVP'
tp538
F1
s(S'NP'
S'NAACP'
tp539
F3
s(g87
S'PNNP'
tp540
F59
s(S'VP'
p541
S'VADVACP'
tp542
F1
s(S'PP'
S'APNNP'
tp543
F5
s(S'DP'
S'AAADPP'
tp544
F1
s(S'VP'
p545
S'VADVADVADVADVDP'
tp546
F1
s(g187
S'AVAP'
tp547
F4
s(S'MP'
S'MMVP'
tp548
F10
s(g421
S'PADVDDP'
tp549
F5
s(g401
S'PCCP'
tp550
F3
s(S'DP'
S'DDADVADVPP'
tp551
F2
s(S'DP'
p552
S'ADPP'
tp553
F82
s(S'CP'
p554
S'ACDP'
tp555
F50
s(S'NP'
p556
S'NNDP'
tp557
F16
s(S'DP'
p558
S'ADVADVDVVVP'
tp559
F1
s(S'CP'
S'CCCCDDP'
tp560
F1
s(S'NP'
p561
S'NNACP'
tp562
F3
s(S'MP'
S'MDNNP'
tp563
F1
s(S'CP'
S'CDADVPPP'
tp564
F8
s(g31
S'VAP'
tp565
F150
s(S'VP'
S'AAVADVDP'
tp566
F1
s(S'DP'
p567
S'DDDPP'
tp568
F13
s(S'CP'
S'ADVCDDP'
tp569
F2
s(S'PP'
S'ADVPMP'
tp570
F1
s(S'VP'
S'VADVMP'
tp571
F2
s(g230
S'PAAPP'
tp572
F1
s(S'VP'
S'ADVADVVVAP'
tp573
F1
s(g315
S'DDDPPP'
tp574
F2
s(S'VP'
S'ADVAVDP'
tp575
F1
s(S'DP'
S'ADAP'
tp576
F2
s(S'NP'
p577
S'ADVADVANCCP'
tp578
F1
s(S'CP'
S'CCADVADP'
tp579
F2
s(S'DP'
S'DDDAP'
tp580
F1
s(S'NP'
S'NAAP'
tp581
F8
s(S'PP'
S'PPPVP'
tp582
F5
s(S'AP'
S'AADDP'
tp583
F6
s(S'NP'
p584
S'NNNADVADVVP'
tp585
F1
s(S'MP'
S'MAADP'
tp586
F2
s(g255
S'VAANP'
tp587
F2
s(g545
S'AAVADVDDP'
tp588
F1
s(g494
S'ADVPPADVMP'
tp589
F1
s(S'NP'
S'NVVVVP'
tp590
F4
s(S'PP'
S'PAAAAP'
tp591
F1
s(S'MP'
S'MADP'
tp592
F8
s(S'AP'
S'AAACCP'
tp593
F1
s(S'DP'
S'DDADVNP'
tp594
F3
s(g75
S'PANP'
tp595
F40
s(S'DP'
S'AADNP'
tp596
F3
s(S'NP'
S'ANNMP'
tp597
F1
s(S'NP'
S'NADVDDP'
tp598
F1
s(S'MP'
S'MVVPPP'
tp599
F1
s(S'AP'
S'AAVP'
tp600
F8
s(S'AP'
p601
S'AVVP'
tp602
F4
s(S'VP'
S'VADVADVAP'
tp603
F1
s(g491
S'NDDP'
tp604
F22
s(g324
S'VVADVDDP'
tp605
F1
s(S'PP'
S'PADVMP'
tp606
F1
s(S'DP'
S'ADVADVDPPP'
tp607
F2
s(S'AP'
S'ACCP'
tp608
F5
s(S'VP'
S'VVVVAP'
tp609
F1
s(S'VP'
S'AVPPP'
tp610
F2
s(S'AP'
S'ADVADVAADVVP'
tp611
F1
s(g95
S'NDP'
tp612
F133
s(S'VP'
S'VVADVADVCP'
tp613
F1
s(S'PP'
S'AAPMMP'
tp614
F1
s(S'AP'
S'AADVADVDP'
tp615
F2
s(S'VP'
S'AAVPPPP'
tp616
F1
s(S'MP'
S'MVAAP'
tp617
F2
s(S'DP'
p618
S'DDVP'
tp619
F33
s(g479
S'AADNNNP'
tp620
F1
s(g47
S'MAAVVAP'
tp621
F1
s(g413
S'AANVP'
tp622
F3
s(S'VP'
S'VNNNP'
tp623
F4
s(S'VP'
p624
S'VADVADVPP'
tp625
F1
s(g484
S'ADVPAP'
tp626
F4
s(S'PP'
S'APADVDP'
tp627
F1
s(g18
S'APPNP'
tp628
F1
s(S'NP'
S'NNPPP'
tp629
F2
s(S'PP'
S'PAADP'
tp630
F4
s(S'NP'
S'ADVNNVP'
tp631
F2
s(S'VP'
S'VVVAAP'
tp632
F1
s(S'NP'
S'ADVANVVP'
tp633
F3
s(g450
S'VPPPP'
tp634
F2
s(g144
S'PACP'
tp635
F3
s(g584
S'NNNDP'
tp636
F1
s(S'AP'
S'ADVACP'
tp637
F7
s(S'AP'
S'ANNNP'
tp638
F1
s(S'NP'
S'ADVADVNMP'
tp639
F1
s(g273
S'DDADVVP'
tp640
F3
s(S'DP'
S'ADPPP'
tp641
F12
s(S'MP'
S'MVCP'
tp642
F19
s(g27
S'CCDDP'
tp643
F14
s(g556
S'NNADVVP'
tp644
F3
s(S'VP'
S'VVADVADVAP'
tp645
F1
s(S'PP'
S'PPADVADVVP'
tp646
F1
s(g318
S'ADADVPPP'
tp647
F1
s(S'NP'
S'NNVVP'
tp648
F12
s(S'NP'
S'NNNNVP'
tp649
F1
s(g38
S'VVCP'
tp650
F30
s(S'NP'
S'AANCP'
tp651
F3
s(g255
S'VADVNP'
tp652
F3
s(S'VP'
S'VVDDDP'
tp653
F2
s(S'DP'
S'ADVADVDDVP'
tp654
F1
s(g112
S'APPP'
tp655
F16
s(g8
S'DDDDPPP'
tp656
F2
s(S'VP'
p657
S'ADVVPP'
tp658
F8
s(S'VP'
S'VVADVANP'
tp659
F1
s(S'PP'
S'PPADVADVADVNP'
tp660
F1
s(g349
S'CDAPPP'
tp661
F1
s(g16
S'VNNP'
tp662
F31
s(S'CP'
S'CCCCCDDP'
tp663
F1
s(S'AP'
S'AADVDP'
tp664
F2
s(g95
S'NADP'
tp665
F6
s(S'NP'
S'ADVNNACCP'
tp666
F1
s(g315
S'DDNP'
tp667
F58
s(g211
S'NADVCP'
tp668
F10
s(g457
S'DDNNP'
tp669
F10
s(S'PP'
S'AAPPP'
tp670
F1
s(S'VP'
S'VVVVPPP'
tp671
F2
s(g364
S'PADVADVVVP'
tp672
F1
s(S'NP'
S'ADVANVP'
tp673
F3
s(S'NP'
S'ADVNAAP'
tp674
F1
s(S'AP'
S'AADVADP'
tp675
F1
s(S'NP'
S'ADVADVNCP'
tp676
F1
s(S'DP'
S'DADVADVNNP'
tp677
F1
s(g315
S'AADPP'
tp678
F8
s(S'DP'
S'ADVDAPP'
tp679
F1
s(g512
S'ADVNAAAPP'
tp680
F1
s(S'NP'
S'NNNNPP'
tp681
F1
s(S'NP'
S'NNAMP'
tp682
F1
s(g18
S'ADVADVPPDP'
tp683
F1
s(S'MP'
S'MADVADVAPP'
tp684
F1
s(S'NP'
S'NNNP'
tp685
F1
s(S'MP'
S'MAVAP'
tp686
F1
s(S'AP'
S'AADVADVMP'
tp687
F1
s(S'NP'
S'ANVVVP'
tp688
F2
s(S'NP'
S'NADVADVCCP'
tp689
F2
s(S'DP'
p690
S'ADVVP'
tp691
F3
s(S'CP'
S'CDDADVPPP'
tp692
F1
s(S'NP'
p693
S'AAANCP'
tp694
F1
s(g141
S'ADVDNNP'
tp695
F1
s(S'PP'
S'ADVADVADVADVPPNNP'
tp696
F1
s(S'CP'
S'ACDDP'
tp697
F7
s(S'NP'
S'ADVADVNNCP'
tp698
F1
s(S'DP'
p699
S'DDDDDPP'
tp700
F1
s(S'MP'
S'MVDDDDP'
tp701
F1
s(S'AP'
S'AADVADVDDP'
tp702
F1
s(S'MP'
S'MADVADVADVADVVAP'
tp703
F2
s(S'VP'
S'VVCCP'
tp704
F8
s(g370
S'NADVADVADVADVVP'
tp705
F1
s(g230
S'PCP'
tp706
F14
s(S'DP'
S'DADVADVNP'
tp707
F1
s(g23
S'ADVADVADVADVVCP'
tp708
F2
s(g397
S'NAPP'
tp709
F24
s(S'AP'
S'ADVADVADP'
tp710
F1
s(g380
S'NADVDP'
tp711
F4
s(S'VP'
S'VVVCP'
tp712
F2
s(S'DP'
S'DAMP'
tp713
F1
s(S'NP'
S'AANPP'
tp714
F3
s(S'NP'
S'NNCCP'
tp715
F7
s(g556
S'NNMP'
tp716
F14
s(S'DP'
S'DDDVP'
tp717
F4
s(g197
S'AAVPP'
tp718
F2
s(g166
S'VADVADVADVPPP'
tp719
F1
s(g259
S'ADVADVPNNP'
tp720
F1
s(g227
S'PAAAP'
tp721
F2
s(S'PP'
S'ADVADVPNP'
tp722
F1
s(g34
S'ADVDDAP'
tp723
F1
s(S'CP'
S'CADVADVDDPPP'
tp724
F1
s(S'DP'
S'ADVDADP'
tp725
F1
s(S'PP'
S'PPPNNNNP'
tp726
F1
s(g310
S'ADVVADVADVDP'
tp727
F1
s(g152
S'ANAP'
tp728
F4
s(S'VP'
p729
S'VADVADVANP'
tp730
F1
s(g75
S'PVP'
tp731
F246
s(S'VP'
S'VADVPPP'
tp732
F1
s(g326
S'DADVAVP'
tp733
F1
s(S'AP'
S'ADVADVAPP'
tp734
F1
s(S'VP'
S'VVVVDP'
tp735
F2
s(S'DP'
S'DADVADVVVP'
tp736
F1
s(S'MP'
S'MADVADVVCP'
tp737
F1
s(S'AP'
S'ADVAACP'
tp738
F1
s(S'DP'
S'DVVVP'
tp739
F3
s(S'PP'
S'PPADVPP'
tp740
F1
s(S'PP'
p741
S'AAPPPP'
tp742
F1
s(g491
S'NNADVADVPPP'
tp743
F1
s(S'PP'
S'PPDDP'
tp744
F8
s(S'VP'
S'AVCP'
tp745
F10
s(S'NP'
S'NADVADVAP'
tp746
F1
s(S'MP'
S'MADVVANP'
tp747
F1
s(S'VP'
S'ADVVADVAP'
tp748
F1
s(g21
S'DPP'
tp749
F328
s(g577
S'ADVNVP'
tp750
F9
s(S'NP'
S'ADVNADVPP'
tp751
F1
s(g21
S'DDPP'
tp752
F112
s(S'DP'
S'DDADVPPP'
tp753
F1
s(S'NP'
S'NNDDDDDP'
tp754
F1
s(g34
S'DANP'
tp755
F52
s(S'NP'
p756
S'NADVPP'
tp757
F4
s(g756
S'NAAVP'
tp758
F2
s(S'PP'
p759
S'PDDDP'
tp760
F6
s(S'CP'
S'CADVADVADVDPP'
tp761
F2
s(g296
S'VADVCP'
tp762
F5
s(S'AP'
S'ADVADVACP'
tp763
F1
s(S'VP'
S'VDDDDDP'
tp764
F1
s(S'NP'
S'NNNNCP'
tp765
F2
s(S'NP'
S'NADVCCP'
tp766
F2
s(S'AP'
S'AAADVADVADVADVPPP'
tp767
F1
s(g102
S'NNAACP'
tp768
F1
s(S'MP'
S'MNAVP'
tp769
F1
s(g130
S'NNNVVP'
tp770
F1
s(g491
S'ADVNMMP'
tp771
F2
s(g494
S'AAPNNP'
tp772
F1
s(S'DP'
S'DCCP'
tp773
F1
s(S'PP'
S'ADVADVPPP'
tp774
F2
s(S'PP'
S'PPPPNP'
tp775
F1
s(S'AP'
S'AMP'
tp776
F1
s(S'PP'
S'AAPDP'
tp777
F5
s(S'MP'
S'MADVVDP'
tp778
F1
s(S'VP'
S'AVVDP'
tp779
F1
s(g75
S'PDDP'
tp780
F59
s(g168
S'APADVAP'
tp781
F1
s(S'MP'
S'MVDDP'
tp782
F3
s(S'PP'
S'ADVAPNP'
tp783
F2
s(g136
S'NNVP'
tp784
F33
s(g287
S'PPPNP'
tp785
F4
s(g61
S'AADVADVCP'
tp786
F1
s(g390
S'AAAPDDP'
tp787
F1
s(S'PP'
S'APAAP'
tp788
F2
s(g741
S'ADVADVADVPNP'
tp789
F1
s(S'NP'
S'NNP'
tp790
F3
s(g57
S'ADVADPP'
tp791
F2
s(S'DP'
S'DAANP'
tp792
F5
s(S'NP'
S'NADVAVP'
tp793
F1
s(S'NP'
S'NAAAAVP'
tp794
F1
s(S'AP'
S'ADDP'
tp795
F24
s(g185
S'PNNNNP'
tp796
F3
s(S'VP'
S'ADVVVAP'
tp797
F2
s(S'PP'
S'ADVPPNP'
tp798
F6
s(g699
S'DDDDDNNP'
tp799
F1
s(g502
S'CADVADVDPP'
tp800
F7
s(S'CP'
S'ADVADVADVCDP'
tp801
F1
s(g21
S'DPPP'
tp802
F107
s(g195
S'DAVVP'
tp803
F1
s(S'DP'
S'AADPPP'
tp804
F2
s(S'CP'
S'ADVADVCDDP'
tp805
F2
s(g227
S'ADVPNP'
tp806
F12
s(g112
S'PPDP'
tp807
F52
s(S'DP'
S'DADVVVP'
tp808
F4
s(S'DP'
p809
S'ADVDDADVPP'
tp810
F2
s(S'PP'
S'ADVADVADVPVP'
tp811
F1
s(g141
S'ADVDCP'
tp812
F3
s(g38
S'VAADP'
tp813
F4
s(S'MP'
S'MVVAP'
tp814
F2
s(S'DP'
S'DDCP'
tp815
F2
s(S'NP'
S'ANADVADVVP'
tp816
F1
s(g657
S'VVAP'
tp817
F21
s(S'AP'
S'ANNP'
tp818
F1
s(S'AP'
S'ADVADVAADP'
tp819
F1
s(g136
S'NAP'
tp820
F63
s(S'NP'
S'NNAAP'
tp821
F2
s(g541
S'VAAAP'
tp822
F3
s(S'MP'
S'MVVADVCP'
tp823
F1
s(S'VP'
S'ADVAVNP'
tp824
F1
s(g31
S'VVP'
tp825
F60
s(S'MP'
S'ADVMNP'
tp826
F1
s(g484
S'PPAAP'
tp827
F4
s(S'PP'
S'ADVADVPVP'
tp828
F1
s(g261
S'AAADP'
tp829
F9
s(g75
S'APNP'
tp830
F29
s(S'NP'
S'NNNNMP'
tp831
F1
s(S'AP'
S'AADVADVPP'
tp832
F1
s(g273
S'DDVVP'
tp833
F8
s(g558
S'ADPPPPP'
tp834
F1
s(S'VP'
S'VVVNP'
tp835
F2
s(S'MP'
S'MNPP'
tp836
F1
s(S'AP'
S'AAAAP'
tp837
F1
s(S'CP'
S'CDDADVADVADVPP'
tp838
F1
s(g100
S'NNADVPP'
tp839
F2
s(S'MP'
S'MVANP'
tp840
F3
s(g618
S'ADVADVDDPP'
tp841
F2
s(S'MP'
S'MVNNP'
tp842
F1
s(g168
S'PPADVAPP'
tp843
F1
s(g27
S'CDPP'
tp844
F303
s(S'AP'
S'ADDDP'
tp845
F3
s(S'MP'
S'MVADVPP'
tp846
F1
s(g556
S'NNADVADVVVP'
tp847
F1
s(S'CP'
S'ADVCDP'
tp848
F19
s(S'VP'
S'ADVADVVNP'
tp849
F1
s(g59
S'PADVADVDP'
tp850
F1
s(S'VP'
S'ADVADVVCP'
tp851
F1
s(g624
S'VADVADVDP'
tp852
F2
s(S'PP'
S'PPNNP'
tp853
F8
s(S'AP'
S'ADVACCP'
tp854
F1
s(g87
S'PPMP'
tp855
F10
s(g34
S'ADVADVDPP'
tp856
F10
s(g85
S'VDP'
tp857
F248
s(S'NP'
S'NADVAP'
tp858
F5
s(g220
S'AVDDP'
tp859
F4
s(S'DP'
S'DADVNP'
tp860
F14
s(S'DP'
p861
S'DDCCP'
tp862
F1
s(g552
S'DAP'
tp863
F51
s(g554
S'CADPP'
tp864
F62
s(S'DP'
S'ADVADVDVVP'
tp865
F1
s(S'CP'
S'CADVDDADVPP'
tp866
F1
s(S'PP'
S'PPAVP'
tp867
F2
s(S'DP'
S'ADVADVADVADVDVP'
tp868
F1
s(g85
S'AAVVAP'
tp869
F1
s(g407
S'ADVADVVCCP'
tp870
F1
s(g296
S'AVPP'
tp871
F12
s(S'CP'
S'CAADPPP'
tp872
F2
s(S'PP'
S'APNNNP'
tp873
F2
s(g431
S'VVADVDP'
tp874
F4
s(S'CP'
p875
S'CDADVADVPP'
tp876
F2
s(S'CP'
S'CDDPPPPP'
tp877
F1
s(S'CP'
S'CDPPPP'
tp878
F5
s(S'VP'
S'AAVDP'
tp879
F1
s(g875
S'ACCDP'
tp880
F2
s(S'NP'
S'ADVANMP'
tp881
F1
s(g515
S'NNDDP'
tp882
F3
s(S'DP'
S'ADPPPP'
tp883
F1
s(S'DP'
p884
S'DAPPP'
tp885
F1
s(g567
S'DADVADVPP'
tp886
F4
s(g21
S'DMP'
tp887
F17
s(S'CP'
S'CCADP'
tp888
F5
s(g479
S'ADVDPP'
tp889
F29
s(g380
S'NADVADVDP'
tp890
F1
s(S'PP'
S'APADVPP'
tp891
F1
s(g230
S'PPAANP'
tp892
F2
s(S'PP'
S'PADVADVNP'
tp893
F2
s(g809
S'DDDDANP'
tp894
F1
s(g261
S'AADP'
tp895
F53
s(S'PP'
S'PADVADVADVADVDP'
tp896
F1
s(S'NP'
S'NNADVVVP'
tp897
F1
s(g38
S'VADVPP'
tp898
F6
s(S'CP'
S'CCADVDDP'
tp899
F1
s(g80
S'ADVPVP'
tp900
F9
s(S'DP'
S'DDDDPP'
tp901
F2
s(S'MP'
S'ADVMVVP'
tp902
F5
s(S'NP'
S'NNVVVP'
tp903
F6
s(S'VP'
S'ADVVANP'
tp904
F1
s(g759
S'PAMP'
tp905
F4
s(S'PP'
S'ADVPDP'
tp906
F11
s(S'VP'
S'VVNNNNP'
tp907
F1
s(S'NP'
S'ADVNNPP'
tp908
F3
s(S'PP'
p909
S'PPDDDDP'
tp910
F1
s(S'MP'
S'MVADVAP'
tp911
F2
s(g95
S'NCP'
tp912
F253
s(S'MP'
S'MAVPPP'
tp913
F1
s(S'MP'
S'MDNP'
tp914
F3
s(S'CP'
S'CADVDPPP'
tp915
F2
s(g110
S'ADVVVPP'
tp916
F4
s(S'PP'
S'PPADVNNP'
tp917
F1
s(g861
S'DDADVVVP'
tp918
F2
s(S'AP'
S'AAAP'
tp919
F3
s(g601
S'AADVMP'
tp920
F2
s(g83
S'PPAAAP'
tp921
F1
s(g201
S'ADVPDDP'
tp922
F1
s(g100
S'AANDP'
tp923
F2
s(S'MP'
S'MVCCP'
tp924
F2
s(g690
S'DADVNNP'
tp925
F4
s(g506
S'VDDDP'
tp926
F2
s(S'MP'
S'MNVP'
tp927
F5
s(S'NP'
S'AANAP'
tp928
F1
s(S'CP'
S'ADVADVCCDP'
tp929
F2
s(S'PP'
S'PADVADVAP'
tp930
F1
s(g729
S'VAPP'
tp931
F13
s(S'MP'
S'MAVNP'
tp932
F1
s(S'VP'
S'ADVVDP'
tp933
F8
s(g29
S'DDADVADVADVPP'
tp934
F1
s(S'MP'
S'MAVDP'
tp935
F3
s(S'PP'
S'APADVNP'
tp936
F1
s(g178
S'DADVPP'
tp937
F20
s(g421
S'ADVPAAAP'
tp938
F1
s(S'PP'
S'ADVADVADVPPDDP'
tp939
F1
s(g693
S'ADVNNCP'
tp940
F3
s(g312
S'ADVDAP'
tp941
F2
s(S'MP'
S'MADVVADVAP'
tp942
F1
s(S'AP'
S'ADVAPP'
tp943
F4
s(S'PP'
S'ADVADVPVVP'
tp944
F1
s(S'DP'
S'ADVADADVVVP'
tp945
F1
s(g427
S'AACDP'
tp946
F4
s(S'NP'
S'NNNCCP'
tp947
F1
s(S'CP'
S'CCDDDP'
tp948
F3
s(S'MP'
S'MADVVNNP'
tp949
F1
s(g454
S'ADVDPPP'
tp950
F3
s(g315
S'DVP'
tp951
F240
s(S'VP'
S'AVNNP'
tp952
F1
s(g180
S'ADVNPP'
tp953
F6
s(g909
S'ADVPPNNP'
tp954
F2
s(g234
S'AVP'
tp955
F49
s(S'DP'
S'ADAAAAP'
tp956
F1
s(g353
S'NADVVP'
tp957
F11
s(S'NP'
S'NNADVADVVP'
tp958
F1
s(S'AP'
S'AACCCP'
tp959
F1
s(S'DP'
S'DDPPP'
tp960
F21
s(S'MP'
S'MADVADVADVVDP'
tp961
F1
s(g284
S'ADVNMP'
tp962
F5
s(g146
S'NNAP'
tp963
F8
s(S'MP'
S'MADVVCP'
tp964
F2
s(g390
S'PPANP'
tp965
F4
s(g234
S'AAAADVMP'
tp966
F1
s(S'VP'
S'VVADVADVDP'
tp967
F1
s(S'CP'
S'CDADVPP'
tp968
F15
s(g85
S'VNP'
tp969
F196
s(g38
S'VANP'
tp970
F22
s(g185
S'PADVPPP'
tp971
F2
s(S'VP'
S'VADVAP'
tp972
F7
s(S'PP'
S'PPADVNP'
tp973
F4
s(S'VP'
S'VVVAP'
tp974
F2
s(g884
S'DDDDVP'
tp975
F1
s(S'VP'
S'ADVADVVVDP'
tp976
F2
s(g561
S'NADVPPP'
tp977
F5
s.