ccollections
defaultdict
p1
(c__builtin__
float
p2
tRp3
(S'NP'
S'AANDDP'
tp4
F2
s(S'NP'
S'ADVNNMP'
tp5
F1
s(S'AP'
S'AADDDP'
tp6
F1
s(S'NP'
p7
S'ADVANADVVP'
tp8
F1
s(S'PP'
S'ADVADVPAP'
tp9
F4
s(S'DP'
S'DDPPPPP'
tp10
F6
s(S'NP'
p11
S'NNADVMP'
tp12
F2
s(S'NP'
S'ADVNDP'
tp13
F9
s(S'CP'
p14
S'CDPPP'
tp15
F326
s(S'PP'
p16
S'APCP'
tp17
F1
s(S'CP'
S'CDAAPPP'
tp18
F2
s(S'AP'
S'AADVADVADVDP'
tp19
F3
s(S'DP'
p20
S'DAADP'
tp21
F3
s(S'VP'
p22
S'AVADVDP'
tp23
F3
s(S'NP'
S'NNNNANP'
tp24
F1
s(S'VP'
p25
S'ADVVAAPP'
tp26
F1
s(S'DP'
p27
S'DDDNP'
tp28
F21
s(S'MP'
S'MADVNNMMP'
tp29
F1
s(S'DP'
S'ADVADVDDPPP'
tp30
F1
s(S'MP'
p31
S'MMPPP'
tp32
F2
s(S'NP'
S'AAAANVVP'
tp33
F1
s(S'MP'
S'MADVVCCP'
tp34
F1
s(S'NP'
S'ADVNNDP'
tp35
F1
s(S'NP'
p36
S'NNNAP'
tp37
F7
s(S'NP'
p38
S'ANPPP'
tp39
F9
s(S'NP'
S'NNNACP'
tp40
F1
s(S'CP'
p41
S'CADPPPP'
tp42
F3
s(S'NP'
S'ADVADVADVNCP'
tp43
F1
s(S'MP'
S'MADVADVVAP'
tp44
F2
s(S'PP'
p45
S'PAAP'
tp46
F92
s(S'MP'
p47
S'MCDP'
tp48
F29
s(S'PP'
S'PAAANNP'
tp49
F1
s(S'DP'
S'DDAANP'
tp50
F8
s(S'CP'
S'CADVDADVAPP'
tp51
F1
s(S'VP'
S'ADVADVVVCP'
tp52
F3
s(S'NP'
p53
S'NMP'
tp54
F390
s(S'DP'
p55
S'ADCP'
tp56
F2
s(S'CP'
S'CADVDADVPP'
tp57
F1
s(S'VP'
p58
S'AAVNP'
tp59
F5
s(S'VP'
S'VMMP'
tp60
F17
s(S'DP'
S'ADVDADVAPP'
tp61
F1
s(S'CP'
S'CDADVADVPPP'
tp62
F3
s(S'NP'
S'NACCP'
tp63
F4
s(S'VP'
S'AAVPP'
tp64
F4
s(S'DP'
S'DDANP'
tp65
F11
s(S'VP'
S'VVADVCP'
tp66
F1
s(S'VP'
S'VVVVVP'
tp67
F2
s(S'NP'
S'NADVADVVP'
tp68
F9
s(S'DP'
S'DDDDP'
tp69
F10
s(S'MP'
S'MAAVCCP'
tp70
F1
s(S'NP'
S'ANADVVP'
tp71
F6
s(S'AP'
S'AAAAP'
tp72
F2
s(S'VP'
p73
S'AVNNP'
tp74
F7
s(S'VP'
p75
S'VCCCP'
tp76
F10
s(S'PP'
p77
S'APDP'
tp78
F101
s(S'AP'
p79
S'AADVCP'
tp80
F10
s(S'CP'
S'ADVCCDDDP'
tp81
F1
s(S'DP'
S'DDDDDVVP'
tp82
F1
s(g58
S'VVANP'
tp83
F10
s(S'VP'
S'VVVVDP'
tp84
F7
s(S'VP'
S'ADVVVP'
tp85
F2
s(S'NP'
p86
S'NAVP'
tp87
F88
s(S'DP'
S'DADVADVADVPP'
tp88
F2
s(S'MP'
S'MVVVCCP'
tp89
F1
s(S'MP'
S'MADVVNP'
tp90
F9
s(S'CP'
S'CADVDDPP'
tp91
F4
s(S'DP'
S'DPPPPP'
tp92
F4
s(S'CP'
S'CCADVDP'
tp93
F19
s(S'VP'
S'VVACP'
tp94
F2
s(S'NP'
S'AAANAP'
tp95
F1
s(S'PP'
p96
S'AAPPDDP'
tp97
F1
s(S'PP'
p98
S'AAPPDP'
tp99
F3
s(S'PP'
p100
S'PADVVP'
tp101
F28
s(S'CP'
S'ADVADVCDP'
tp102
F10
s(S'PP'
S'APPPPPP'
tp103
F1
s(S'DP'
S'DDDNNNNNP'
tp104
F1
s(S'NP'
p105
S'NAAACP'
tp106
F2
s(S'PP'
p107
S'PAANP'
tp108
F37
s(S'VP'
S'VADVADVCP'
tp109
F2
s(S'PP'
S'PPPDDDP'
tp110
F1
s(S'MP'
S'MVADVADVADVNP'
tp111
F1
s(S'MP'
S'MNADP'
tp112
F1
s(S'DP'
S'DDPPPPPP'
tp113
F1
s(S'CP'
S'CADVADVADPP'
tp114
F3
s(S'PP'
p115
S'APPPP'
tp116
F8
s(S'DP'
p117
S'DADP'
tp118
F16
s(S'AP'
S'ADVADP'
tp119
F17
s(S'NP'
p120
S'ADVANADVDP'
tp121
F1
s(S'DP'
S'DAAAVP'
tp122
F4
s(S'MP'
S'MDVVP'
tp123
F1
s(S'PP'
p124
S'APVP'
tp125
F65
s(S'CP'
S'ADVCCDP'
tp126
F12
s(S'PP'
p127
S'AAPVP'
tp128
F17
s(S'VP'
S'VMP'
tp129
F195
s(S'NP'
p130
S'ANNAP'
tp131
F1
s(S'NP'
S'NNNADVCP'
tp132
F2
s(S'CP'
p133
S'CDAPP'
tp134
F154
s(S'VP'
p135
S'VVAAP'
tp136
F11
s(S'VP'
S'ADVVVVVP'
tp137
F1
s(S'VP'
S'VVVVDDP'
tp138
F1
s(S'MP'
p139
S'MDANNP'
tp140
F1
s(S'VP'
S'ADVVACP'
tp141
F1
s(S'DP'
S'AAAADVP'
tp142
F1
s(S'NP'
S'NNAADP'
tp143
F1
s(S'NP'
p144
S'ANDDP'
tp145
F6
s(S'MP'
p146
S'MDANP'
tp147
F6
s(S'NP'
S'ADVADVADVNVP'
tp148
F1
s(S'VP'
p149
S'VADVAAP'
tp150
F1
s(S'VP'
S'ADVADVVDP'
tp151
F12
s(S'AP'
S'AAPPP'
tp152
F6
s(S'DP'
S'DAAANP'
tp153
F8
s(S'NP'
S'ANAP'
tp154
F20
s(S'PP'
S'PPCCCCP'
tp155
F1
s(S'NP'
p156
S'NNPP'
tp157
F141
s(S'CP'
S'CAADPPPP'
tp158
F1
s(S'MP'
S'MVVDP'
tp159
F17
s(S'MP'
S'MADVADVADVVDP'
tp160
F1
s(S'DP'
S'ADVDADVPP'
tp161
F1
s(S'DP'
p162
S'ADVDDVP'
tp163
F3
s(S'CP'
p164
S'CAADDPPP'
tp165
F1
s(S'PP'
p166
S'PVVVP'
tp167
F23
s(S'VP'
S'ADVADVVDDP'
tp168
F2
s(S'PP'
S'PADVADVADVVP'
tp169
F1
s(S'NP'
p170
S'AAAAANNCP'
tp171
F1
s(S'VP'
S'VVVVMP'
tp172
F3
s(S'DP'
p173
S'ADADVDDP'
tp174
F1
s(S'CP'
S'CDAAPP'
tp175
F23
s(S'PP'
S'PDDDDP'
tp176
F4
s(S'MP'
S'MVACP'
tp177
F4
s(S'CP'
p178
S'CCCCDP'
tp179
F5
s(S'VP'
S'VVMP'
tp180
F15
s(S'CP'
S'CADADVPP'
tp181
F1
s(g124
S'PPP'
tp182
F576
s(S'VP'
S'AAVVP'
tp183
F2
s(S'NP'
S'NNNADVCCP'
tp184
F1
s(S'AP'
S'AADVVP'
tp185
F5
s(S'DP'
S'ADVDPPPP'
tp186
F2
s(S'CP'
S'ACCDP'
tp187
F8
s(S'AP'
S'AAAACP'
tp188
F3
s(S'DP'
S'DDADVDP'
tp189
F1
s(S'DP'
S'DANNP'
tp190
F14
s(S'CP'
S'CDDPP'
tp191
F372
s(S'CP'
S'CDDPPPPPP'
tp192
F1
s(S'NP'
S'AAAAANCP'
tp193
F1
s(S'MP'
S'MAVCP'
tp194
F1
s(S'PP'
p195
S'PPNNNP'
tp196
F10
s(S'PP'
S'PPADVADVDP'
tp197
F1
s(S'NP'
S'ADVADVADVNVVP'
tp198
F2
s(S'VP'
S'ADVADVADVAVVP'
tp199
F1
s(S'CP'
S'CDADVADVAPP'
tp200
F1
s(S'PP'
S'PADVAVP'
tp201
F2
s(S'AP'
S'APPP'
tp202
F20
s(S'VP'
p203
S'VVVP'
tp204
F42
s(g117
S'DDAAVP'
tp205
F2
s(S'NP'
p206
S'ADVADVNNVP'
tp207
F1
s(S'DP'
p208
S'DCP'
tp209
F59
s(S'VP'
S'VVADVADP'
tp210
F1
s(S'AP'
S'AAADVMP'
tp211
F1
s(S'DP'
S'DADVCP'
tp212
F1
s(S'DP'
p213
S'DDDP'
tp214
F56
s(S'PP'
S'PPPNNNP'
tp215
F5
s(S'DP'
S'ADDDP'
tp216
F3
s(S'VP'
S'ADVVNNNP'
tp217
F1
s(S'PP'
S'PADVADVNNP'
tp218
F1
s(S'NP'
S'NAAAAP'
tp219
F1
s(S'DP'
p220
S'ADVDAPP'
tp221
F4
s(S'DP'
S'AADVP'
tp222
F4
s(S'CP'
S'CCCDDDP'
tp223
F5
s(S'PP'
S'APMP'
tp224
F3
s(S'DP'
S'DDAVP'
tp225
F1
s(S'NP'
S'AAAANNCP'
tp226
F2
s(S'NP'
S'AAANNCP'
tp227
F2
s(S'MP'
S'MDDPP'
tp228
F1
s(S'VP'
S'VAAANP'
tp229
F1
s(S'DP'
S'DVVVVP'
tp230
F5
s(S'MP'
S'MMNNP'
tp231
F2
s(S'PP'
p232
S'PPMP'
tp233
F7
s(S'PP'
p234
S'PPAAAAP'
tp235
F3
s(S'AP'
S'AAAADVDP'
tp236
F1
s(S'CP'
p237
S'ADVACDP'
tp238
F6
s(g156
S'NPP'
tp239
F879
s(S'NP'
p240
S'NVP'
tp241
F1397
s(S'PP'
p242
S'PPPPVP'
tp243
F3
s(g115
S'PADVADVAMP'
tp244
F1
s(S'NP'
S'AANNVP'
tp245
F2
s(S'PP'
p246
S'ADVADVPDP'
tp247
F3
s(S'MP'
S'MVVPP'
tp248
F2
s(S'PP'
p249
S'PPPAAP'
tp250
F1
s(S'PP'
S'PPVVVVP'
tp251
F2
s(S'PP'
p252
S'PNNP'
tp253
F350
s(S'MP'
S'MMVP'
tp254
F37
s(S'PP'
S'PADVDDP'
tp255
F2
s(S'AP'
S'AAPPPP'
tp256
F1
s(S'VP'
p257
S'VAPPP'
tp258
F1
s(g75
S'VCCP'
tp259
F86
s(S'MP'
S'MDNNP'
tp260
F9
s(S'MP'
S'MAAAVP'
tp261
F1
s(S'NP'
S'AANNCP'
tp262
F4
s(S'NP'
S'ANADVCP'
tp263
F1
s(g16
S'PPAADDP'
tp264
F1
s(S'NP'
S'ANADVAP'
tp265
F1
s(S'AP'
S'AAVVP'
tp266
F3
s(S'DP'
S'DADVDP'
tp267
F3
s(S'DP'
S'ADVADVADNP'
tp268
F1
s(S'VP'
S'ADVVVDP'
tp269
F5
s(S'VP'
S'AAVAP'
tp270
F1
s(S'AP'
S'AADDP'
tp271
F17
s(g36
S'NAAVP'
tp272
F11
s(S'MP'
S'MADVNVP'
tp273
F1
s(S'VP'
S'VADVADVADVCP'
tp274
F1
s(S'PP'
S'ADVPACP'
tp275
F1
s(S'NP'
S'AAAANNVVVP'
tp276
F1
s(S'DP'
S'AAADDP'
tp277
F1
s(S'PP'
S'PAAAAP'
tp278
F1
s(g25
S'AAVVNP'
tp279
F2
s(S'CP'
S'CCAADP'
tp280
F2
s(S'AP'
S'AVVP'
tp281
F28
s(S'NP'
p282
S'ANAACCCP'
tp283
F1
s(S'VP'
S'AVCCCP'
tp284
F1
s(g252
S'ADVPAP'
tp285
F12
s(S'PP'
S'PADVMP'
tp286
F1
s(S'VP'
S'VVVAAP'
tp287
F1
s(S'DP'
S'DDDDAPPP'
tp288
F1
s(S'MP'
S'MPAP'
tp289
F5
s(S'MP'
S'MVNNNP'
tp290
F2
s(S'NP'
p291
S'NNVP'
tp292
F290
s(S'NP'
p293
S'NNNVVP'
tp294
F6
s(S'MP'
S'MVMP'
tp295
F2
s(S'NP'
S'ADVNNMMP'
tp296
F1
s(S'PP'
p297
S'PPAAP'
tp298
F13
s(S'NP'
p299
S'AANCP'
tp300
F36
s(g282
S'ADVADVNAVP'
tp301
F2
s(S'AP'
S'AAAPP'
tp302
F6
s(S'DP'
p303
S'DDDDPPP'
tp304
F5
s(S'VP'
S'VVADVANP'
tp305
F1
s(S'PP'
S'PPADVADVADVNP'
tp306
F2
s(S'CP'
p307
S'CDAPPP'
tp308
F9
s(S'VP'
p309
S'VNNP'
tp310
F173
s(S'PP'
S'APADVNP'
tp311
F1
s(S'NP'
p312
S'NADP'
tp313
F31
s(S'PP'
S'AAPPP'
tp314
F7
s(S'NP'
S'ADVADVNAAPPP'
tp315
F1
s(S'VP'
S'AAVMP'
tp316
F1
s(S'VP'
S'VVMMP'
tp317
F3
s(S'AP'
S'AAMMP'
tp318
F2
s(S'NP'
S'NADVADVCCP'
tp319
F2
s(S'CP'
S'ACDDP'
tp320
F15
s(S'CP'
S'CCCADP'
tp321
F1
s(S'DP'
S'DMMP'
tp322
F2
s(S'DP'
S'DAAAPP'
tp323
F4
s(S'MP'
S'MPPVP'
tp324
F1
s(S'VP'
S'VVVCCP'
tp325
F4
s(S'NP'
S'NAPP'
tp326
F39
s(S'AP'
S'ADVADVADP'
tp327
F1
s(S'VP'
S'VVVCP'
tp328
F10
s(S'NP'
S'ANCCP'
tp329
F36
s(S'DP'
S'DDAAAPP'
tp330
F1
s(S'NP'
S'NNADVCP'
tp331
F2
s(S'PP'
S'ADVADVPNNP'
tp332
F2
s(S'DP'
S'ADVADVDPPPP'
tp333
F4
s(S'DP'
S'DDADVAVP'
tp334
F1
s(S'DP'
S'DVVVP'
tp335
F17
s(S'PP'
S'PPADVPP'
tp336
F2
s(S'NP'
S'ADVNNAP'
tp337
F1
s(S'NP'
p338
S'ADVADVANVP'
tp339
F1
s(g162
S'DDVVVP'
tp340
F6
s(S'NP'
p341
S'ADVNNPPP'
tp342
F1
s(g27
S'DPP'
tp343
F1940
s(S'DP'
S'DDDVVP'
tp344
F2
s(g38
S'NADVADVVVP'
tp345
F5
s(S'NP'
S'NADVPP'
tp346
F9
s(S'NP'
S'ADVADVADVNPP'
tp347
F1
s(S'DP'
S'AADNP'
tp348
F18
s(S'VP'
p349
S'VADVCP'
tp350
F9
s(S'CP'
S'CADVADVDPP'
tp351
F15
s(S'PP'
S'PPAANNP'
tp352
F2
s(g208
S'ADDPPP'
tp353
F2
s(S'NP'
S'AANNDP'
tp354
F2
s(S'DP'
p355
S'DDADVADVVVP'
tp356
F1
s(S'DP'
S'AADDP'
tp357
F3
s(S'PP'
p358
S'AAPDP'
tp359
F21
s(S'MP'
S'MADVVDP'
tp360
F4
s(S'AP'
S'ADVACCCP'
tp361
F1
s(S'DP'
S'DADVADVADVVP'
tp362
F2
s(S'AP'
S'AADVDDP'
tp363
F1
s(S'NP'
S'ADVANNCP'
tp364
F1
s(S'PP'
S'APPPPP'
tp365
F1
s(S'NP'
S'NNP'
tp366
F18
s(S'PP'
S'PNNNNP'
tp367
F8
s(S'PP'
S'ADVADVPPNP'
tp368
F4
s(S'VP'
S'AVVCP'
tp369
F1
s(S'NP'
p370
S'NMMMP'
tp371
F5
s(S'VP'
p372
S'AVVDDDP'
tp373
F1
s(S'VP'
S'ADVVANNP'
tp374
F3
s(S'CP'
S'CCDDDDDP'
tp375
F1
s(S'VP'
p376
S'VMMMP'
tp377
F3
s(S'AP'
S'ANNP'
tp378
F2
s(S'MP'
S'MNCCP'
tp379
F1
s(g156
S'NAP'
tp380
F418
s(S'NP'
p381
S'NNAAP'
tp382
F7
s(S'PP'
S'ADVADVPPPP'
tp383
F1
s(S'MP'
S'MADVADVVVNP'
tp384
F1
s(S'DP'
S'DDDDDPPP'
tp385
F3
s(S'MP'
S'MVVADVAP'
tp386
F1
s(S'MP'
S'MNPP'
tp387
F6
s(S'MP'
S'MADVADVVDDP'
tp388
F1
s(S'AP'
S'ADDDP'
tp389
F6
s(S'DP'
S'ADVDVVP'
tp390
F2
s(S'MP'
S'MMMVP'
tp391
F4
s(S'CP'
S'ADVCDP'
tp392
F48
s(S'VP'
S'ADVADVVNP'
tp393
F5
s(S'PP'
p394
S'PADVADVDP'
tp395
F5
s(S'PP'
S'ADVPAVP'
tp396
F1
s(S'NP'
S'NADVAP'
tp397
F9
s(S'DP'
p398
S'DAP'
tp399
F165
s(S'VP'
S'ADVADVVCCP'
tp400
F2
s(g203
S'AVPP'
tp401
F28
s(S'MP'
S'AMVVP'
tp402
F1
s(S'PP'
p403
S'PANNP'
tp404
F8
s(S'DP'
p405
S'ADPPPP'
tp406
F7
s(S'DP'
p407
S'DADVADVPP'
tp408
F16
s(S'NP'
S'NNNNDP'
tp409
F4
s(S'PP'
S'PPAANP'
tp410
F3
s(S'PP'
S'PADVADVNP'
tp411
F4
s(S'VP'
S'ADVADVVAP'
tp412
F5
s(S'NP'
S'NADVANP'
tp413
F1
s(S'PP'
S'PVVVVP'
tp414
F4
s(S'CP'
S'CCAAADP'
tp415
F2
s(S'NP'
S'NADVADVADVVVP'
tp416
F1
s(S'NP'
S'NNVVVP'
tp417
F12
s(S'VP'
S'VVADVADVCP'
tp418
F2
s(S'MP'
S'MADNNNP'
tp419
F1
s(S'VP'
S'ADVVVPP'
tp420
F6
s(S'DP'
S'AAAADDPPP'
tp421
F1
s(S'VP'
S'VAADP'
tp422
F11
s(S'MP'
S'MANMP'
tp423
F1
s(S'VP'
S'AAVVDP'
tp424
F7
s(S'NP'
p425
S'AANAP'
tp426
F5
s(S'CP'
S'ADVADVCCDP'
tp427
F5
s(S'VP'
p428
S'VAPP'
tp429
F35
s(S'NP'
S'NNNNNAANP'
tp430
F1
s(S'VP'
S'VADDP'
tp431
F5
s(S'NP'
S'NNAANP'
tp432
F1
s(S'NP'
S'ADVANVVVP'
tp433
F1
s(S'AP'
S'ADVADVANP'
tp434
F1
s(S'AP'
S'AVP'
tp435
F130
s(S'NP'
S'AAANNVP'
tp436
F2
s(S'MP'
S'MDAANP'
tp437
F2
s(S'VP'
S'ADVADVVVP'
tp438
F1
s(S'MP'
p439
S'MCDDP'
tp440
F8
s(g166
S'PPCCP'
tp441
F2
s(S'CP'
S'CDADVPP'
tp442
F50
s(S'NP'
S'NNNADVDP'
tp443
F1
s(S'VP'
S'VADVAP'
tp444
F21
s(S'VP'
S'ADVADVVVDP'
tp445
F2
s(S'MP'
S'MMDP'
tp446
F12
s(S'MP'
S'MAPAP'
tp447
F1
s(S'CP'
S'CCAADDP'
tp448
F1
s(S'VP'
S'AVADVADVDP'
tp449
F1
s(S'DP'
p450
S'DAANNP'
tp451
F4
s(S'NP'
S'AANNADVADVVP'
tp452
F1
s(S'PP'
S'PPADVAVP'
tp453
F1
s(S'VP'
S'VADP'
tp454
F55
s(S'MP'
S'MAVNP'
tp455
F3
s(S'PP'
S'APPDP'
tp456
F4
s(S'DP'
p457
S'ADNNP'
tp458
F7
s(g394
S'PPPP'
tp459
F160
s(S'NP'
S'NNNNNCCCP'
tp460
F3
s(S'MP'
S'MMCP'
tp461
F4
s(S'AP'
S'AADVPP'
tp462
F2
s(S'NP'
p463
S'NAAVVP'
tp464
F7
s(S'NP'
S'ANADVPP'
tp465
F1
s(S'VP'
p466
S'ADVVAAP'
tp467
F1
s(S'PP'
S'PPANNP'
tp468
F3
s(g466
S'VADVADVAP'
tp469
F4
s(S'AP'
S'ADVAADVVP'
tp470
F1
s(S'PP'
p471
S'ADVPPVP'
tp472
F4
s(S'PP'
S'APVVP'
tp473
F3
s(S'CP'
S'CADVADVDPPPP'
tp474
F4
s(S'VP'
p475
S'ADVADVVPPP'
tp476
F2
s(g124
S'PNP'
tp477
F1508
s(S'NP'
p478
S'ADVADVADVNNCP'
tp479
F1
s(S'PP'
S'PAAADP'
tp480
F2
s(S'VP'
p481
S'VAAAP'
tp482
F9
s(S'VP'
S'ADVVVDDP'
tp483
F1
s(S'MP'
S'AMPP'
tp484
F2
s(S'AP'
S'AANP'
tp485
F1
s(S'CP'
p486
S'CCCDDDDP'
tp487
F1
s(S'CP'
S'CAADPP'
tp488
F27
s(S'MP'
S'MANCP'
tp489
F2
s(g124
S'PDP'
tp490
F1132
s(S'VP'
S'VAMP'
tp491
F6
s(g11
S'ADVNVVP'
tp492
F5
s(S'MP'
S'MNNVP'
tp493
F1
s(S'NP'
p494
S'AAANVVP'
tp495
F1
s(S'PP'
p496
S'PPPADVVP'
tp497
F1
s(S'CP'
S'CCAAADDP'
tp498
F1
s(S'CP'
S'CDDAPPP'
tp499
F1
s(S'MP'
S'MMMVVP'
tp500
F2
s(S'DP'
S'DPPPP'
tp501
F63
s(S'DP'
S'ADVDDAPP'
tp502
F1
s(S'NP'
p503
S'NCCP'
tp504
F269
s(S'VP'
S'VVCCCP'
tp505
F1
s(S'NP'
S'NADVADVDDP'
tp506
F1
s(S'NP'
S'NNCP'
tp507
F385
s(S'VP'
p508
S'VVADP'
tp509
F3
s(S'PP'
S'AAPPAP'
tp510
F1
s(S'NP'
S'NADVADVPP'
tp511
F2
s(S'PP'
S'ADVPVVP'
tp512
F1
s(S'PP'
S'PAAAAANP'
tp513
F1
s(S'VP'
p514
S'AAVDDP'
tp515
F1
s(S'VP'
S'VADVVP'
tp516
F11
s(S'CP'
S'ACCDDP'
tp517
F2
s(S'VP'
S'ADVADVADVVNP'
tp518
F1
s(S'PP'
S'ADVPADVDP'
tp519
F1
s(S'PP'
p520
S'ADVPADVNP'
tp521
F1
s(S'VP'
S'ADVVAP'
tp522
F25
s(S'VP'
S'ADVVNNP'
tp523
F13
s(S'NP'
S'ADVNADVCP'
tp524
F1
s(S'PP'
S'ADVADVADVPDP'
tp525
F1
s(S'DP'
S'DDDADVNNP'
tp526
F1
s(S'MP'
S'MPNNP'
tp527
F2
s(S'VP'
S'AVVNNP'
tp528
F1
s(g98
S'PPAAPP'
tp529
F1
s(S'VP'
S'VADVNNP'
tp530
F1
s(g86
S'ADVADVANPPP'
tp531
F1
s(S'PP'
S'PPNNNNP'
tp532
F4
s(S'DP'
S'DACP'
tp533
F1
s(S'PP'
p534
S'APAP'
tp535
F17
s(S'AP'
S'APP'
tp536
F172
s(S'CP'
p537
S'CADDPPP'
tp538
F2
s(S'NP'
S'ADVANPP'
tp539
F5
s(g508
S'VADVADVNP'
tp540
F3
s(S'PP'
S'PPVVP'
tp541
F26
s(g73
S'VAACP'
tp542
F5
s(S'NP'
S'AAAAANVVVP'
tp543
F1
s(S'NP'
p544
S'NNAAAP'
tp545
F1
s(S'MP'
S'MVNP'
tp546
F97
s(S'NP'
S'NNANP'
tp547
F1
s(S'PP'
p548
S'PAVP'
tp549
F52
s(S'PP'
p550
S'ADVADVPPVP'
tp551
F2
s(S'AP'
S'ADVACCP'
tp552
F6
s(S'VP'
S'VVVVAAP'
tp553
F1
s(S'DP'
S'ADVDDP'
tp554
F4
s(S'NP'
S'ADVNAP'
tp555
F4
s(S'NP'
S'AAANNPP'
tp556
F1
s(S'MP'
S'MNCP'
tp557
F8
s(S'VP'
S'VVNP'
tp558
F164
s(S'PP'
p559
S'PPVP'
tp560
F167
s(S'MP'
p561
S'MPCP'
tp562
F2
s(S'MP'
S'MDDAP'
tp563
F1
s(S'VP'
S'VAAP'
tp564
F58
s(g79
S'AAP'
tp565
F25
s(S'NP'
S'NNAAVP'
tp566
F3
s(S'MP'
S'MMPP'
tp567
F9
s(S'VP'
p568
S'AVVDP'
tp569
F4
s(S'AP'
S'AAAAADP'
tp570
F1
s(S'VP'
S'ADVVVCP'
tp571
F4
s(S'AP'
S'AAADVADVDP'
tp572
F1
s(g27
S'DAPP'
tp573
F219
s(S'MP'
p574
S'MVVCP'
tp575
F5
s(S'VP'
p576
S'ADVADVVPP'
tp577
F4
s(S'MP'
S'MDDNP'
tp578
F10
s(S'PP'
S'AAAPVP'
tp579
F1
s(S'NP'
p580
S'ADVADVNNDP'
tp581
F1
s(S'PP'
p582
S'PPPDP'
tp583
F20
s(S'DP'
S'DAAPPP'
tp584
F5
s(S'CP'
S'CADVADVADDPP'
tp585
F1
s(S'PP'
p586
S'PAAAANNP'
tp587
F1
s(S'MP'
S'MVVAP'
tp588
F5
s(S'VP'
p589
S'VDDDDP'
tp590
F2
s(g520
S'PPMMMP'
tp591
F2
s(S'PP'
S'PPPPANP'
tp592
F1
s(S'VP'
p593
S'VVPP'
tp594
F79
s(S'DP'
S'ADADVPP'
tp595
F1
s(S'VP'
p596
S'VACCP'
tp597
F3
s(S'CP'
S'CADVADVDDPP'
tp598
F3
s(S'DP'
S'DDAAPP'
tp599
F9
s(S'PP'
S'PPAVVP'
tp600
F1
s(S'NP'
p601
S'NNNNNCCP'
tp602
F1
s(S'DP'
S'DDNNNNNNP'
tp603
F1
s(S'NP'
S'AANCCP'
tp604
F3
s(g596
S'ADVVVDDDP'
tp605
F1
s(S'PP'
S'PADVADVVP'
tp606
F2
s(S'NP'
S'NNMMP'
tp607
F4
s(S'DP'
S'ADADVAP'
tp608
F1
s(g96
S'PAAPPP'
tp609
F3
s(S'NP'
S'NADVADVADVAP'
tp610
F2
s(g503
S'NVVVP'
tp611
F38
s(g394
S'PNNNP'
tp612
F53
s(S'DP'
S'ADVADVADVADPP'
tp613
F1
s(S'AP'
S'AACCP'
tp614
F7
s(S'PP'
p615
S'PPAAAANNP'
tp616
F1
s(S'PP'
S'PADVVVP'
tp617
F4
s(S'MP'
S'MADVAAAVCP'
tp618
F1
s(S'VP'
S'VVADVAAANP'
tp619
F1
s(S'AP'
S'AAAAAADP'
tp620
F1
s(S'PP'
S'PADVAP'
tp621
F9
s(S'MP'
S'AMDP'
tp622
F2
s(S'DP'
p623
S'ADVADVDNNP'
tp624
F1
s(S'CP'
S'CCADVADVADVDP'
tp625
F2
s(g45
S'PPPPDP'
tp626
F4
s(S'DP'
S'DAAAP'
tp627
F2
s(S'DP'
S'ADVDAAVP'
tp628
F1
s(S'AP'
S'ADVADVADVACP'
tp629
F1
s(S'NP'
S'ANAAP'
tp630
F2
s(g403
S'PADVDP'
tp631
F25
s(S'MP'
S'MAAPNP'
tp632
F1
s(S'NP'
S'AAAANVP'
tp633
F3
s(S'DP'
S'DAAPP'
tp634
F41
s(g394
S'PVVP'
tp635
F154
s(S'AP'
p636
S'AACP'
tp637
F62
s(g593
S'ADVVCP'
tp638
F27
s(S'NP'
S'NNADVADVDDP'
tp639
F1
s(S'VP'
p640
S'VPPP'
tp641
F76
s(g589
S'VVPPP'
tp642
F10
s(S'VP'
S'ADVVVCCP'
tp643
F1
s(S'NP'
S'ANMP'
tp644
F24
s(S'NP'
S'NNNNMP'
tp645
F1
s(S'DP'
S'DDPPPP'
tp646
F14
s(S'DP'
S'DADVADVADVNP'
tp647
F2
s(S'NP'
S'NNVVVVP'
tp648
F3
s(S'DP'
S'AADAP'
tp649
F1
s(S'MP'
S'MAADP'
tp650
F4
s(S'NP'
p651
S'ANVVP'
tp652
F16
s(S'NP'
S'NVVVVP'
tp653
F5
s(S'VP'
S'ADVAVCP'
tp654
F1
s(S'NP'
p655
S'NDDDDP'
tp656
F2
s(S'CP'
p657
S'CCCDDP'
tp658
F9
s(g636
S'ADP'
tp659
F1006
s(S'PP'
S'ADVPPDDP'
tp660
F3
s(S'DP'
S'ADVDAAPP'
tp661
F1
s(S'VP'
S'AAAVDP'
tp662
F6
s(S'VP'
S'AVDP'
tp663
F81
s(S'NP'
S'ANNVP'
tp664
F12
s(S'VP'
S'VVAP'
tp665
F51
s(S'NP'
S'NNAPP'
tp666
F3
s(S'VP'
S'VADVADVADVPP'
tp667
F1
s(S'PP'
S'PAAAANP'
tp668
F1
s(g580
S'NADVAPP'
tp669
F1
s(g559
S'PPPPNP'
tp670
F8
s(g544
S'NNNNCCCP'
tp671
F1
s(S'NP'
S'NNDDDP'
tp672
F3
s(S'PP'
S'PAAVP'
tp673
F11
s(g372
S'VDDP'
tp674
F202
s(g623
S'DMP'
tp675
F16
s(S'DP'
S'DADVAPP'
tp676
F3
s(g544
S'NNADVACP'
tp677
F1
s(S'NP'
S'ANPP'
tp678
F95
s(S'PP'
S'ADVPPDP'
tp679
F3
s(g100
S'PPPPP'
tp680
F32
s(g139
S'MPDP'
tp681
F44
s(S'AP'
S'ADVADVAVP'
tp682
F1
s(g405
S'ADDP'
tp683
F12
s(S'DP'
S'DADVADVVP'
tp684
F6
s(S'DP'
S'DAAANNP'
tp685
F3
s(S'DP'
p686
S'DDAAP'
tp687
F3
s(g213
S'DDADVNP'
tp688
F9
s(g508
S'AVAP'
tp689
F7
s(S'NP'
S'ADVNCP'
tp690
F38
s(S'MP'
S'MPDDP'
tp691
F2
s(S'AP'
S'ADVANP'
tp692
F5
s(S'VP'
S'AAAAVDP'
tp693
F1
s(S'DP'
p694
S'DDDPP'
tp695
F66
s(S'CP'
S'ADVCDDP'
tp696
F3
s(S'DP'
p697
S'DDDPPPP'
tp698
F1
s(S'MP'
S'MNMP'
tp699
F5
s(S'VP'
p700
S'ADVADVVVAP'
tp701
F1
s(S'DP'
p702
S'DDDPPP'
tp703
F8
s(S'PP'
S'APADVVP'
tp704
F2
s(S'CP'
S'CCADVADP'
tp705
F3
s(S'CP'
S'CCCDDDDDP'
tp706
F2
s(S'VP'
S'VAANP'
tp707
F12
s(S'DP'
S'ADVADVADVDVP'
tp708
F3
s(S'MP'
S'MVADVACP'
tp709
F1
s(S'MP'
S'MPNP'
tp710
F36
s(S'NP'
S'NNNCCCCP'
tp711
F2
s(S'MP'
S'MPADP'
tp712
F1
s(S'NP'
S'ANDDDP'
tp713
F1
s(S'DP'
S'DAAAANNP'
tp714
F1
s(S'VP'
S'ADVVAAADP'
tp715
F1
s(S'VP'
S'ADVVANP'
tp716
F7
s(S'MP'
S'MVAAP'
tp717
F2
s(g405
S'DDVP'
tp718
F142
s(g496
S'PPADVANP'
tp719
F2
s(S'VP'
S'ADVVVNNP'
tp720
F2
s(S'VP'
S'ADVADVVADP'
tp721
F1
s(S'VP'
S'VADVADVPP'
tp722
F2
s(S'PP'
S'APADVDP'
tp723
F3
s(S'PP'
S'APPNP'
tp724
F6
s(S'NP'
S'NNPPP'
tp725
F20
s(S'NP'
S'NNNDP'
tp726
F13
s(S'PP'
S'PPPPNNNP'
tp727
F1
s(S'NP'
S'AANVVVP'
tp728
F2
s(S'VP'
S'AAAVAP'
tp729
F1
s(g405
S'DDADP'
tp730
F1
s(S'DP'
S'AAADNP'
tp731
F1
s(S'NP'
S'NAAMP'
tp732
F2
s(S'MP'
S'MVAANP'
tp733
F4
s(g246
S'PADVADVPP'
tp734
F4
s(S'NP'
S'ADVNVVVP'
tp735
F2
s(S'VP'
S'ADVAVAP'
tp736
F1
s(S'MP'
p737
S'MDCP'
tp738
F1
s(S'PP'
S'APPP'
tp739
F48
s(S'VP'
S'ADVVPP'
tp740
F30
s(S'DP'
S'DDDPPPPP'
tp741
F1
s(S'DP'
p742
S'DDNP'
tp743
F293
s(S'CP'
p744
S'CDDADVADVPP'
tp745
F3
s(g576
S'ADVAVPP'
tp746
F4
s(S'NP'
S'ADVANVP'
tp747
F8
s(S'NP'
S'ADVADVNMMMP'
tp748
F1
s(S'MP'
S'MNVVVP'
tp749
F1
s(S'NP'
S'AANAAP'
tp750
F2
s(S'AP'
S'ADVADDP'
tp751
F2
s(S'NP'
S'NNNNPP'
tp752
F8
s(S'VP'
S'VVVVCP'
tp753
F2
s(S'DP'
S'AAADVP'
tp754
F2
s(S'NP'
S'ANVVVP'
tp755
F1
s(S'AP'
S'AADVADVDDP'
tp756
F1
s(g20
S'DADVVVP'
tp757
F4
s(S'MP'
S'MANNVVP'
tp758
F1
s(S'DP'
S'DADVADVADVAVP'
tp759
F1
s(g403
S'APPVP'
tp760
F7
s(g370
S'AANPP'
tp761
F20
s(S'PP'
S'ADVPANNP'
tp762
F1
s(S'DP'
S'DDAANNP'
tp763
F1
s(S'PP'
S'PAAAP'
tp764
F10
s(S'PP'
S'ADVADVPNP'
tp765
F6
s(S'VP'
S'VVVDDP'
tp766
F5
s(S'NP'
S'NNNNNNNCCP'
tp767
F1
s(S'MP'
S'AAMVP'
tp768
F2
s(S'AP'
S'ADVAACP'
tp769
F1
s(g206
S'ADVNAVP'
tp770
F1
s(S'NP'
S'AANNPPP'
tp771
F1
s(S'DP'
S'ADADVADVVVP'
tp772
F1
s(S'NP'
S'AANADVVP'
tp773
F2
s(S'DP'
p774
S'ADVADVADPP'
tp775
F3
s(S'DP'
S'ADVADVDPPP'
tp776
F2
s(g47
S'MADVADVADVVANP'
tp777
F1
s(S'DP'
S'DCCP'
tp778
F7
s(S'DP'
S'DDADVNNP'
tp779
F2
s(S'DP'
S'DDADVVP'
tp780
F2
s(S'PP'
S'PDDP'
tp781
F186
s(S'MP'
S'MVDDP'
tp782
F12
s(S'PP'
S'ADVAPNP'
tp783
F2
s(g744
S'CAAAAADPP'
tp784
F1
s(S'DP'
S'ADVADPP'
tp785
F11
s(S'NP'
S'NNNADVVP'
tp786
F6
s(S'MP'
S'MDADVNP'
tp787
F3
s(S'PP'
S'AAAPAP'
tp788
F1
s(g737
S'MDAP'
tp789
F2
s(S'DP'
S'DAVVP'
tp790
F1
s(S'DP'
p791
S'AADPPP'
tp792
F6
s(S'MP'
S'MNMMP'
tp793
F2
s(S'PP'
p794
S'ADVADVADVPVP'
tp795
F2
s(g702
S'ADVDCP'
tp796
F2
s(g463
S'AAANMP'
tp797
F2
s(g127
S'PAANNP'
tp798
F3
s(S'PP'
S'PPADVDDP'
tp799
F1
s(S'VP'
p800
S'VVP'
tp801
F190
s(S'PP'
S'PNNNNNP'
tp802
F1
s(S'MP'
S'MAPP'
tp803
F2
s(S'DP'
S'DDDAPP'
tp804
F1
s(g398
S'DDVVP'
tp805
F24
s(S'VP'
S'VVVNP'
tp806
F28
s(S'MP'
S'ADVADVAMVP'
tp807
F1
s(S'NP'
S'NAMP'
tp808
F6
s(S'AP'
S'AAADVADVCP'
tp809
F2
s(g133
S'CDPP'
tp810
F1721
s(S'NP'
S'NNNNNNPPP'
tp811
F1
s(S'AP'
S'ADVAAP'
tp812
F1
s(S'NP'
S'NNNNPPP'
tp813
F3
s(S'PP'
S'ADVAPPP'
tp814
F1
s(S'PP'
S'PADVCP'
tp815
F1
s(S'NP'
S'ADVADVNNPPP'
tp816
F1
s(S'VP'
p817
S'VVVADVDP'
tp818
F2
s(S'VP'
S'VAAAAP'
tp819
F2
s(S'DP'
S'ADVADVDVVP'
tp820
F1
s(g428
S'ADVADVVVPP'
tp821
F2
s(S'AP'
S'ADVAVVP'
tp822
F3
s(S'PP'
S'PPDDDP'
tp823
F4
s(S'MP'
S'AMNP'
tp824
F2
s(S'VP'
p825
S'VVADVDP'
tp826
F3
s(S'CP'
S'CDDPPPPP'
tp827
F2
s(S'CP'
S'CDPPPP'
tp828
F39
s(S'VP'
S'VADVADVCCP'
tp829
F1
s(g640
S'AAVDP'
tp830
F27
s(S'NP'
p831
S'ADVANMP'
tp832
F1
s(S'NP'
S'NNDDP'
tp833
F23
s(g742
S'ADVDPP'
tp834
F118
s(g486
S'CADVDAAPP'
tp835
F1
s(S'AP'
p836
S'AAAAVP'
tp837
F1
s(S'NP'
p838
S'NNAADVPPP'
tp839
F1
s(S'DP'
S'DDAAVVP'
tp840
F1
s(S'DP'
S'DDDDPP'
tp841
F6
s(S'PP'
S'PADVADVADVNP'
tp842
F1
s(S'NP'
S'ADVNNPP'
tp843
F3
s(S'MP'
S'MVADVAP'
tp844
F1
s(S'NP'
S'ADVANDP'
tp845
F1
s(g120
S'AANDP'
tp846
F24
s(S'MP'
S'MVCCP'
tp847
F4
s(S'DP'
S'DADVNNP'
tp848
F4
s(S'NP'
S'NNNNNADVADVVP'
tp849
F1
s(S'DP'
S'DADVPP'
tp850
F91
s(S'AP'
p851
S'AMP'
tp852
F92
s(S'VP'
p853
S'AAVADVADVADVDP'
tp854
F1
s(S'NP'
S'ADVNNCP'
tp855
F3
s(S'DP'
S'ADVDAP'
tp856
F2
s(S'DP'
S'DDADVAPP'
tp857
F1
s(g303
S'ADADVAVP'
tp858
F1
s(S'DP'
S'ADMMP'
tp859
F1
s(S'NP'
S'NNNCCP'
tp860
F9
s(S'MP'
S'MDCCP'
tp861
F1
s(S'DP'
S'ADVDPPP'
tp862
F14
s(g27
S'DVP'
tp863
F1077
s(S'MP'
S'MDDNNP'
tp864
F1
s(S'CP'
S'CDAAAPP'
tp865
F1
s(S'MP'
S'MDDDNP'
tp866
F1
s(S'DP'
S'DADVANNP'
tp867
F1
s(S'NP'
S'ADVNMP'
tp868
F16
s(S'NP'
S'NNAP'
tp869
F53
s(S'MP'
S'MADVVCP'
tp870
F7
s(S'DP'
S'DDNNP'
tp871
F39
s(S'DP'
p872
S'DDDANP'
tp873
F1
s(S'DP'
S'DDAP'
tp874
F16
s(S'VP'
S'ADVVVNP'
tp875
F6
s(S'PP'
S'PPPPNNNNNP'
tp876
F1
s(S'VP'
S'VVVVP'
tp877
F9
s(g86
S'NADDP'
tp878
F4
s(S'VP'
p879
S'AVADVPP'
tp880
F1
s(S'PP'
S'PADVNP'
tp881
F62
s(S'DP'
p882
S'DNP'
tp883
F1380
s(g246
S'AAPDDP'
tp884
F4
s(S'DP'
p885
S'DNNNNP'
tp886
F9
s(S'VP'
S'AAVPPP'
tp887
F1
s(S'PP'
S'PPPPPP'
tp888
F7
s(S'CP'
S'CADVADVDPPP'
tp889
F2
s(S'MP'
S'MDVP'
tp890
F7
s(g381
S'ADVADVNCP'
tp891
F8
s(g349
S'ADVVNP'
tp892
F58
s(S'CP'
S'AACADVDP'
tp893
F1
s(g45
S'PADVANP'
tp894
F5
s(S'NP'
p895
S'AANNPP'
tp896
F4
s(S'MP'
S'MVCCCP'
tp897
F1
s(S'MP'
S'MMADVVP'
tp898
F1
s(S'PP'
p899
S'PMP'
tp900
F72
s(S'PP'
S'PADVNNP'
tp901
F3
s(S'CP'
S'CADDAPP'
tp902
F1
s(S'MP'
S'MVVNNNP'
tp903
F1
s(S'NP'
S'NDDDP'
tp904
F6
s(S'NP'
S'NADVVVP'
tp905
F16
s(S'CP'
S'CADVDAPP'
tp906
F3
s(S'VP'
p907
S'VCP'
tp908
F711
s(S'MP'
S'MVVANP'
tp909
F1
s(S'VP'
S'VVAANNP'
tp910
F1
s(S'VP'
S'ADVVCCP'
tp911
F6
s(g124
S'PAP'
tp912
F563
s(g31
S'MMVVP'
tp913
F7
s(S'CP'
S'CDADVADVADVPP'
tp914
F2
s(S'NP'
S'ANNCCP'
tp915
F1
s(S'NP'
S'NAAAVP'
tp916
F3
s(S'PP'
S'PPADVDP'
tp917
F2
s(S'VP'
S'VADVANP'
tp918
F7
s(g700
S'VVADVADVNP'
tp919
F2
s(S'NP'
S'ANNDDDP'
tp920
F1
s(S'VP'
S'ADVVDDP'
tp921
F8
s(S'NP'
S'NNDP'
tp922
F96
s(S'PP'
S'ADVPCP'
tp923
F1
s(S'CP'
S'AACCDP'
tp924
F2
s(S'MP'
S'MAVDDP'
tp925
F1
s(S'VP'
p926
S'VAAADP'
tp927
F1
s(S'CP'
S'CDADVADVPP'
tp928
F10
s(S'VP'
S'VNNNNP'
tp929
F1
s(S'NP'
S'NADVADVADVVP'
tp930
F3
s(S'PP'
S'PADVPP'
tp931
F12
s(S'PP'
S'PPADVAP'
tp932
F2
s(S'NP'
p933
S'ADVNACP'
tp934
F2
s(S'PP'
S'ADVADVAPVP'
tp935
F1
s(g293
S'NACP'
tp936
F72
s(S'AP'
S'ADVAVP'
tp937
F4
s(S'AP'
S'ADVADVADVAPPP'
tp938
F1
s(S'VP'
S'AVADVNP'
tp939
F1
s(S'NP'
S'NNPPPP'
tp940
F1
s(S'MP'
S'MAAADP'
tp941
F2
s(S'PP'
p942
S'ADVAPDP'
tp943
F1
s(g195
S'AAPNP'
tp944
F14
s(S'MP'
S'MVVDDDP'
tp945
F1
s(S'CP'
p946
S'CCCDP'
tp947
F27
s(g100
S'ADVPPNNP'
tp948
F1
s(g503
S'ANNPP'
tp949
F4
s(S'MP'
S'ADVMPP'
tp950
F3
s(S'NP'
S'ADVADVNPPP'
tp951
F1
s(g478
S'ADVNCCP'
tp952
F3
s(g240
S'ADVANCP'
tp953
F8
s(g623
S'DNNP'
tp954
F349
s(S'VP'
S'VVNNNP'
tp955
F4
s(S'NP'
S'NNNVP'
tp956
F29
s(S'DP'
S'ADVADVDCP'
tp957
F1
s(S'DP'
S'DDADVADVADVVP'
tp958
F1
s(g249
S'PPADP'
tp959
F5
s(S'VP'
S'ADVADVVMP'
tp960
F1
s(S'MP'
S'MPVP'
tp961
F3
s(g355
S'ADVDVP'
tp962
F14
s(g297
S'PPADVADVNP'
tp963
F3
s(S'DP'
S'ADVADVDDVP'
tp964
F1
s(S'NP'
S'NNNNP'
tp965
F1
s(S'AP'
S'AADVCCP'
tp966
F3
s(S'CP'
S'ACADDP'
tp967
F1
s(S'DP'
S'ADVADNP'
tp968
F1
s(S'CP'
S'ADVCDDDP'
tp969
F1
s(S'NP'
S'AANNNNP'
tp970
F1
s(S'VP'
S'ADVVMP'
tp971
F11
s(g907
S'VVVPP'
tp972
F14
s(S'NP'
S'NMMMMP'
tp973
F1
s(S'DP'
S'DAAAPPP'
tp974
F1
s(S'PP'
S'APDDP'
tp975
F12
s(S'VP'
S'ADVADVVVNP'
tp976
F2
s(g615
S'AAPNNNP'
tp977
F1
s(S'PP'
S'PPADVADVPP'
tp978
F1
s(S'VP'
S'VADVDP'
tp979
F18
s(S'MP'
S'MVVVPP'
tp980
F1
s(S'MP'
S'MAADDNP'
tp981
F1
s(S'NP'
S'NNNNNPPP'
tp982
F2
s(g240
S'NVVP'
tp983
F247
s(S'MP'
S'MCCCDP'
tp984
F1
s(S'AP'
S'AAAVVP'
tp985
F1
s(g800
S'VVNNP'
tp986
F26
s(S'DP'
S'ADVADVP'
tp987
F1
s(S'DP'
p988
S'ADNP'
tp989
F71
s(g403
S'PADP'
tp990
F66
s(S'DP'
S'ADVDDNP'
tp991
F4
s(S'PP'
S'ADVADVPMP'
tp992
F1
s(g291
S'NNNCP'
tp993
F50
s(S'MP'
S'MPDDDP'
tp994
F1
s(S'VP'
S'AVVP'
tp995
F3
s(S'MP'
S'MADVADVVNP'
tp996
F2
s(g700
S'AVVNP'
tp997
F3
s(S'NP'
p998
S'NADVADVANP'
tp999
F1
s(S'PP'
S'AAAPDP'
tp1000
F5
s(S'PP'
p1001
S'PPPADVCP'
tp1002
F1
s(S'CP'
S'CADDPP'
tp1003
F17
s(g882
S'DADVANP'
tp1004
F3
s(S'NP'
S'ANADVVVP'
tp1005
F1
s(g508
S'VAAPP'
tp1006
F4
s(g988
S'ADVDNP'
tp1007
F32
s(S'PP'
S'APMMP'
tp1008
F1
s(S'CP'
S'AACDDP'
tp1009
F3
s(g686
S'ADVP'
tp1010
F28
s(S'MP'
S'MDAAP'
tp1011
F1
s(S'CP'
S'CDDPPP'
tp1012
F64
s(S'NP'
S'NNADVADVAP'
tp1013
F2
s(g237
S'ADVADVADVCDDP'
tp1014
F1
s(g537
S'CADPPP'
tp1015
F15
s(S'NP'
p1016
S'AAANDP'
tp1017
F1
s(S'DP'
p1018
S'DADVPPP'
tp1019
F10
s(S'VP'
S'AAAVDDP'
tp1020
F1
s(g117
S'DNNNP'
tp1021
F46
s(g338
S'NADVMMP'
tp1022
F2
s(S'PP'
S'APADDP'
tp1023
F1
s(S'AP'
S'ADVADVAVVVVP'
tp1024
F1
s(g22
S'VADVDDP'
tp1025
F4
s(S'MP'
S'AMVP'
tp1026
F10
s(S'PP'
p1027
S'PPADVVP'
tp1028
F2
s(S'VP'
S'VVVDP'
tp1029
F37
s(S'NP'
S'ANMMP'
tp1030
F1
s(S'DP'
S'ADVADVDDNP'
tp1031
F1
s(S'MP'
S'MADVAVAP'
tp1032
F1
s(S'PP'
S'PPADVADVNNP'
tp1033
F1
s(S'NP'
p1034
S'NAAAP'
tp1035
F8
s(g694
S'ADVADVDNP'
tp1036
F8
s(S'AP'
S'AAADVCP'
tp1037
F1
s(g907
S'VPP'
tp1038
F625
s(S'MP'
S'ADVADVMVP'
tp1039
F3
s(S'CP'
S'CDADVAPP'
tp1040
F3
s(S'VP'
S'VVVPPP'
tp1041
F2
s(S'VP'
S'ADVAVDDP'
tp1042
F1
s(S'PP'
S'PMMP'
tp1043
F8
s(S'PP'
S'PPAP'
tp1044
F59
s(S'MP'
S'MVPPP'
tp1045
F4
s(S'VP'
S'VVVADVAP'
tp1046
F1
s(g405
S'DAADDP'
tp1047
F1
s(g548
S'ADVPPP'
tp1048
F15
s(g933
S'ADVADVNVP'
tp1049
F3
s(S'CP'
S'CADVDPP'
tp1050
F86
s(S'PP'
S'PADVADVMP'
tp1051
F1
s(g156
S'ANCP'
tp1052
F173
s(S'DP'
S'DDDADVPPP'
tp1053
F1
s(S'VP'
S'VAAACP'
tp1054
F1
s(S'DP'
S'DAAVVP'
tp1055
F1
s(S'VP'
S'ADVADVADVVVP'
tp1056
F1
s(S'VP'
S'AAVNNNNP'
tp1057
F1
s(g146
S'MNNPPP'
tp1058
F2
s(S'NP'
S'ANNVVP'
tp1059
F5
s(S'VP'
S'ADVVAAAP'
tp1060
F1
s(g117
S'ADDNNP'
tp1061
F2
s(S'MP'
S'MVAAPP'
tp1062
F1
s(S'NP'
S'NNNMP'
tp1063
F9
s(g636
S'ACP'
tp1064
F318
s(S'PP'
S'AAPAP'
tp1065
F4
s(S'AP'
S'AADDDDDP'
tp1066
F1
s(S'DP'
S'DDDNNNNNNP'
tp1067
F1
s(S'MP'
S'MADVADVVPPP'
tp1068
F1
s(g582
S'AAAAPDP'
tp1069
F1
s(S'MP'
S'MADNP'
tp1070
F2
s(S'VP'
S'VVVNNNNNP'
tp1071
F1
s(S'CP'
S'CDDADVPP'
tp1072
F10
s(g1001
S'APPAP'
tp1073
F2
s(S'NP'
S'NNNNVVVP'
tp1074
F2
s(S'VP'
S'AAVCP'
tp1075
F3
s(g791
S'AADDPPP'
tp1076
F2
s(g206
S'NNNP'
tp1077
F3
s(S'PP'
S'PPVVVP'
tp1078
F4
s(S'PP'
S'AAPPNP'
tp1079
F2
s(g240
S'NAAPP'
tp1080
F12
s(S'VP'
S'AVAAAP'
tp1081
F1
s(g817
S'ADVVAMP'
tp1082
F1
s(g149
S'VVAAPP'
tp1083
F1
s(S'MP'
S'MMDDP'
tp1084
F1
s(g341
S'ADVADVNPP'
tp1085
F1
s(S'AP'
S'AADVADVDP'
tp1086
F1
s(S'AP'
S'ADVAMP'
tp1087
F3
s(S'NP'
p1088
S'NAACP'
tp1089
F24
s(S'VP'
p1090
S'VADVACP'
tp1091
F2
s(S'MP'
S'MMNP'
tp1092
F5
s(S'VP'
p1093
S'VVADVADVDDP'
tp1094
F1
s(g144
S'NNAMP'
tp1095
F1
s(S'PP'
S'APAAAAP'
tp1096
F1
s(g1034
S'NAPPP'
tp1097
F4
s(S'CP'
S'ACDP'
tp1098
F97
s(S'DP'
S'AAADPPP'
tp1099
F1
s(g135
S'VAP'
tp1100
F504
s(S'VP'
S'VVVVNP'
tp1101
F3
s(S'DP'
S'ADVADVDDNNP'
tp1102
F2
s(S'PP'
S'PAAPP'
tp1103
F5
s(S'MP'
S'MDDDVP'
tp1104
F1
s(S'PP'
S'PPPVP'
tp1105
F14
s(S'DP'
S'DDDDNNNNNNP'
tp1106
F1
s(S'PP'
S'PADVAVVP'
tp1107
F1
s(S'DP'
S'DADVAAP'
tp1108
F1
s(S'NP'
S'NAADDP'
tp1109
F1
s(S'NP'
S'NPPP'
tp1110
F106
s(S'VP'
S'VVVVADVAP'
tp1111
F1
s(g127
S'PPPDDP'
tp1112
F4
s(S'CP'
S'CCCAAADP'
tp1113
F1
s(S'AP'
S'AAAAAP'
tp1114
F1
s(S'NP'
S'ANNMP'
tp1115
F3
s(S'MP'
S'MVVPPP'
tp1116
F2
s(g1088
S'NAAP'
tp1117
F49
s(S'NP'
p1118
S'NDDP'
tp1119
F82
s(g1018
S'DDDADVPP'
tp1120
F2
s(g825
S'AVPPP'
tp1121
F7
s(S'PP'
S'ADVPAANP'
tp1122
F4
s(g240
S'NDP'
tp1123
F565
s(S'NP'
S'AAANVP'
tp1124
F5
s(g105
S'AANVP'
tp1125
F38
s(S'DP'
S'DADVADVAPP'
tp1126
F1
s(S'VP'
S'AAVVPP'
tp1127
F1
s(S'VP'
p1128
S'VNNNP'
tp1129
F20
s(g107
S'PCP'
tp1130
F91
s(S'VP'
S'VAACCP'
tp1131
F1
s(g1093
S'ADVAVNNP'
tp1132
F1
s(S'VP'
S'VPPPP'
tp1133
F6
s(S'PP'
S'PACP'
tp1134
F2
s(S'PP'
S'AAPNNP'
tp1135
F5
s(S'VP'
S'VVVAP'
tp1136
F3
s(g208
S'ADPPP'
tp1137
F19
s(S'CP'
S'CCDDP'
tp1138
F77
s(g853
S'ADVADVADVVPP'
tp1139
F1
s(S'DP'
S'DAAAAVP'
tp1140
F2
s(S'NP'
S'ADVANAP'
tp1141
F3
s(S'NP'
S'NNNNPPPP'
tp1142
F1
s(g580
S'NNVVP'
tp1143
F44
s(g376
S'AVVMP'
tp1144
F2
s(S'AP'
S'AAPPPPP'
tp1145
F1
s(g514
S'VADVNP'
tp1146
F20
s(S'NP'
S'AAANPPP'
tp1147
F1
s(S'AP'
S'AAAMP'
tp1148
F1
s(S'VP'
p1149
S'VPPPPP'
tp1150
F2
s(S'AP'
S'AADVADP'
tp1151
F1
s(S'NP'
S'NAADP'
tp1152
F3
s(g130
S'AANNADVDP'
tp1153
F1
s(S'DP'
S'AADPP'
tp1154
F34
s(S'MP'
S'MADVADVADVVMMP'
tp1155
F1
s(S'MP'
S'MADVVVCP'
tp1156
F1
s(S'DP'
S'DAAAANP'
tp1157
F3
s(g162
S'ADVDNNP'
tp1158
F3
s(g651
S'ADVADVNNCP'
tp1159
F2
s(S'AP'
S'ADVADVACCP'
tp1160
F2
s(g800
S'VVCCP'
tp1161
F17
s(g55
S'DADVADVNP'
tp1162
F8
s(S'PP'
S'ADVPANP'
tp1163
F1
s(S'AP'
S'ADVANNP'
tp1164
F2
s(S'DP'
S'DDAPPP'
tp1165
F2
s(g655
S'NADVDP'
tp1166
F13
s(S'PP'
S'ADVPPPP'
tp1167
F4
s(S'PP'
S'PADVAPP'
tp1168
F1
s(S'MP'
S'MDMP'
tp1169
F1
s(S'MP'
S'MPANP'
tp1170
F1
s(S'PP'
S'PPPAP'
tp1171
F5
s(S'CP'
S'CADVADVDDPPP'
tp1172
F1
s(g381
S'ADVANVVP'
tp1173
F2
s(S'MP'
S'MVAP'
tp1174
F29
s(g124
S'PVP'
tp1175
F1079
s(g407
S'DADVAVP'
tp1176
F3
s(S'DP'
S'ADVADVADDPP'
tp1177
F1
s(S'NP'
S'ANNCP'
tp1178
F12
s(S'MP'
S'MMMMVP'
tp1179
F1
s(g107
S'PPDDP'
tp1180
F33
s(g879
S'AVCP'
tp1181
F21
s(S'CP'
S'CADVDDPPP'
tp1182
F1
s(S'NP'
S'ADVNVP'
tp1183
F41
s(S'PP'
S'AAAPNNP'
tp1184
F2
s(S'DP'
S'DDADVPPP'
tp1185
F1
s(S'DP'
S'AADPPPP'
tp1186
F3
s(g100
S'PDDDP'
tp1187
F14
s(S'CP'
S'CADVADVADVDPP'
tp1188
F1
s(S'AP'
S'AAAAPP'
tp1189
F2
s(S'NP'
S'NNNNAP'
tp1190
F4
s(S'PP'
S'PMMMP'
tp1191
F1
s(S'NP'
S'NNNNCP'
tp1192
F19
s(S'MP'
S'MDNP'
tp1193
F64
s(S'NP'
S'NNAACP'
tp1194
F3
s(S'PP'
S'PPADVADVVP'
tp1195
F2
s(S'MP'
S'MVADVCCP'
tp1196
F1
s(S'NP'
S'NNNNNNCP'
tp1197
F2
s(S'CP'
S'CDPPPPP'
tp1198
F2
s(S'MP'
S'MVPPPPP'
tp1199
F1
s(S'PP'
S'PPPAVP'
tp1200
F1
s(S'AP'
S'AAAADP'
tp1201
F4
s(S'NP'
S'AAAANCP'
tp1202
F3
s(S'PP'
S'APAAP'
tp1203
F2
s(S'NP'
S'NAANP'
tp1204
F1
s(S'VP'
S'VVDDP'
tp1205
F45
s(g457
S'DAANP'
tp1206
F53
s(S'PP'
S'PPPPNNP'
tp1207
F1
s(S'AP'
S'ADDP'
tp1208
F107
s(S'VP'
S'ADVADVADVVMMP'
tp1209
F1
s(S'PP'
p1210
S'PPPADVADVNNP'
tp1211
F1
s(S'NP'
S'NNAVP'
tp1212
F7
s(S'PP'
S'PPPANP'
tp1213
F3
s(S'DP'
S'DDDDDDPP'
tp1214
F1
s(g173
S'ADVDDADVPP'
tp1215
F1
s(S'PP'
S'ADVADVPVVP'
tp1216
F1
s(S'NP'
S'NNNNNCP'
tp1217
F3
s(S'NP'
S'NAAAPP'
tp1218
F1
s(S'VP'
S'ADVAVNP'
tp1219
F3
s(S'NP'
S'NNNNNNNVP'
tp1220
F2
s(g1090
S'VVVNNP'
tp1221
F6
s(S'PP'
S'PPPPPDDP'
tp1222
F1
s(S'MP'
S'MAAVVPP'
tp1223
F1
s(S'MP'
S'AMAP'
tp1224
F1
s(S'DP'
S'ADVADVDDPP'
tp1225
F3
s(S'MP'
S'MMMNP'
tp1226
F1
s(S'MP'
S'MVVNNP'
tp1227
F1
s(S'CP'
S'ADVCADP'
tp1228
F1
s(S'VP'
p1229
S'VVAANP'
tp1230
F3
s(S'DP'
S'ADADVADVPP'
tp1231
F1
s(g309
S'VDDDP'
tp1232
F17
s(S'NP'
S'AAAANNPP'
tp1233
F1
s(S'NP'
p1234
S'NADVADVADVCP'
tp1235
F1
s(S'PP'
S'PPNNP'
tp1236
F62
s(S'MP'
S'MPPNP'
tp1237
F3
s(S'NP'
S'AAANCCP'
tp1238
F1
s(S'NP'
S'NNNNNDP'
tp1239
F1
s(S'PP'
S'PPAVP'
tp1240
F9
s(S'PP'
S'PPPADVPP'
tp1241
F1
s(S'DP'
S'DDNNNNP'
tp1242
F4
s(S'MP'
S'MPAANP'
tp1243
F1
s(g170
S'NNNDDDDP'
tp1244
F1
s(S'VP'
S'VADVADVADVNP'
tp1245
F2
s(S'NP'
S'NNADVCCP'
tp1246
F1
s(S'MP'
S'MAAADNP'
tp1247
F1
s(g988
S'DAPPP'
tp1248
F12
s(S'AP'
S'AAADVDP'
tp1249
F1
s(S'NP'
S'AANVVP'
tp1250
F3
s(S'NP'
S'AAANPP'
tp1251
F2
s(g988
S'ADPP'
tp1252
F222
s(S'MP'
S'MNNNVP'
tp1253
F1
s(S'PP'
S'PPPVVP'
tp1254
F4
s(S'VP'
p1255
S'VADVPP'
tp1256
F8
s(S'CP'
S'CCADVDDP'
tp1257
F1
s(S'PP'
S'ADVPVP'
tp1258
F33
s(S'CP'
S'ADVCCDDP'
tp1259
F1
s(S'MP'
S'AAMPP'
tp1260
F1
s(S'DP'
S'ADVDADVVP'
tp1261
F1
s(S'MP'
S'MVVVVMP'
tp1262
F1
s(g86
S'NNNADP'
tp1263
F1
s(g242
S'ADVPDDP'
tp1264
F2
s(S'VP'
S'VVVADVAVP'
tp1265
F1
s(S'AP'
S'ADVAPP'
tp1266
F18
s(S'PP'
S'ADVPPVVP'
tp1267
F1
s(g41
S'AACDP'
tp1268
F31
s(g697
S'AAAAADPP'
tp1269
F2
s(S'NP'
S'NAACCP'
tp1270
F1
s(S'DP'
S'DDDDDDNNNNNNP'
tp1271
F1
s(g895
S'NNCCCP'
tp1272
F3
s(S'MP'
S'MNPPP'
tp1273
F1
s(S'DP'
S'DADDP'
tp1274
F2
s(g899
S'PPANP'
tp1275
F12
s(S'DP'
S'DDADVPP'
tp1276
F14
s(S'VP'
S'ADVADVADVVVCP'
tp1277
F1
s(S'VP'
S'VADVADVADP'
tp1278
F1
s(S'DP'
S'DDDDVP'
tp1279
F1
s(S'NP'
S'AANNAP'
tp1280
F1
s(S'NP'
S'ADVNVVVVP'
tp1281
F1
s(S'CP'
S'CAAADPP'
tp1282
F1
s(S'PP'
S'PAAANP'
tp1283
F2
s(S'DP'
S'ADDPP'
tp1284
F22
s(S'DP'
S'ADVDAAAP'
tp1285
F1
s(S'VP'
S'VVADVVP'
tp1286
F1
s(g77
S'PAPP'
tp1287
F45
s(S'VP'
S'AAAVPP'
tp1288
F1
s(g27
S'DAAP'
tp1289
F24
s(S'CP'
S'ADVADVCDDDP'
tp1290
F1
s(S'VP'
S'VAVP'
tp1291
F9
s(g1118
S'NNNPPPP'
tp1292
F3
s(S'MP'
S'MVDP'
tp1293
F131
s(S'VP'
S'ADVADVADVVAANP'
tp1294
F1
s(S'MP'
S'MVADVVP'
tp1295
F1
s(S'VP'
S'VACP'
tp1296
F16
s(S'AP'
S'AAAVP'
tp1297
F6
s(S'DP'
S'DADVVP'
tp1298
F41
s(g879
S'VVADDP'
tp1299
F1
s(g120
S'ADVNDDDDP'
tp1300
F1
s(g425
S'AANADVADVVVP'
tp1301
F2
s(g1234
S'NADVACP'
tp1302
F3
s(S'NP'
S'NCCCP'
tp1303
F15
s(S'NP'
S'NMMP'
tp1304
F35
s(g686
S'DDDNNP'
tp1305
F6
s(S'DP'
S'DDADVADVPP'
tp1306
F3
s(S'MP'
S'AAMDP'
tp1307
F2
s(g742
S'DDP'
tp1308
F240
s(g53
S'NNNPP'
tp1309
F28
s(S'NP'
S'NNADVADVCP'
tp1310
F1
s(S'DP'
S'DADVDDP'
tp1311
F1
s(S'MP'
S'MNAP'
tp1312
F7
s(S'PP'
S'PPMMP'
tp1313
F1
s(S'NP'
S'ADVADVNMMP'
tp1314
F1
s(g946
S'CCADVADVDP'
tp1315
F1
s(g38
S'ADVADVADVNDP'
tp1316
F2
s(S'CP'
S'CAAAADDPPP'
tp1317
F1
s(S'AP'
S'ANP'
tp1318
F4
s(S'PP'
S'ADVPAAP'
tp1319
F2
s(S'PP'
S'AAPPPP'
tp1320
F6
s(S'VP'
S'ADVAAAVCP'
tp1321
F1
s(S'DP'
S'ADNNNP'
tp1322
F1
s(S'MP'
S'MPNNNNP'
tp1323
F1
s(S'VP'
S'VVACCP'
tp1324
F1
s(S'DP'
S'ADVDDPP'
tp1325
F7
s(g1128
S'AVNP'
tp1326
F43
s(g872
S'DDAAANP'
tp1327
F1
s(S'PP'
S'PADVADVANP'
tp1328
F4
s(S'MP'
S'MVAPP'
tp1329
F2
s(S'NP'
S'NNAAAVVP'
tp1330
F1
s(S'PP'
S'ADVAPVP'
tp1331
F2
s(S'VP'
S'VAAMP'
tp1332
F3
s(S'NP'
S'NCCCCP'
tp1333
F4
s(S'PP'
S'PPPAMP'
tp1334
F1
s(S'NP'
S'NNNAAP'
tp1335
F2
s(g794
S'PADVADVADVPP'
tp1336
F1
s(S'AP'
S'AVVVVP'
tp1337
F2
s(S'DP'
S'DDANNP'
tp1338
F2
s(S'PP'
S'ADVPNNP'
tp1339
F8
s(g7
S'NNADVANP'
tp1340
F1
s(S'DP'
S'AADDVP'
tp1341
F1
s(S'VP'
S'ADVVAANP'
tp1342
F2
s(S'CP'
S'CDDPPPP'
tp1343
F8
s(S'VP'
S'ADVADVADVVVDP'
tp1344
F1
s(S'DP'
p1345
S'ADDNP'
tp1346
F8
s(S'PP'
S'PAAVVP'
tp1347
F2
s(S'MP'
S'MVVDDP'
tp1348
F1
s(S'AP'
S'ACCCP'
tp1349
F1
s(S'NP'
S'NADVMP'
tp1350
F3
s(S'MP'
S'ADVMAVP'
tp1351
F1
s(S'CP'
S'CADVADPP'
tp1352
F7
s(S'NP'
S'ADVADVNDP'
tp1353
F2
s(S'DP'
S'DAAVP'
tp1354
F18
s(S'CP'
S'CDDDDPP'
tp1355
F5
s(S'MP'
S'MVVVNP'
tp1356
F4
s(g831
S'ANVP'
tp1357
F88
s(S'MP'
S'MNDP'
tp1358
F5
s(g851
S'ADVAADP'
tp1359
F1
s(S'MP'
S'ADVMVP'
tp1360
F4
s(S'NP'
S'NNADP'
tp1361
F2
s(S'MP'
S'MADVVPP'
tp1362
F6
s(S'MP'
S'MDPP'
tp1363
F3
s(S'MP'
S'MNACP'
tp1364
F1
s(S'PP'
S'PPCP'
tp1365
F5
s(S'AP'
S'AAAPPP'
tp1366
F1
s(S'MP'
S'MNNCP'
tp1367
F1
s(S'MP'
S'MADDNP'
tp1368
F1
s(S'CP'
S'CCCCDDP'
tp1369
F1
s(S'PP'
S'PPPNNP'
tp1370
F6
s(S'VP'
S'VVADVAP'
tp1371
F4
s(g651
S'ANDP'
tp1372
F60
s(S'NP'
S'ANPPPP'
tp1373
F2
s(S'CP'
S'CDDAAPP'
tp1374
F3
s(S'VP'
S'VVAPP'
tp1375
F1
s(S'DP'
S'ADVADVDVP'
tp1376
F1
s(S'DP'
S'ADDAPP'
tp1377
F1
s(S'NP'
S'NNNCCCP'
tp1378
F4
s(S'CP'
S'CCADDP'
tp1379
F1
s(S'CP'
S'CCCCDDDDDDP'
tp1380
F1
s(g232
S'PAVVP'
tp1381
F7
s(S'MP'
S'MVPP'
tp1382
F54
s(S'AP'
S'AADVADVVP'
tp1383
F1
s(S'MP'
S'MMMPP'
tp1384
F2
s(S'DP'
p1385
S'DDDDNP'
tp1386
F4
s(S'MP'
S'MPPDP'
tp1387
F4
s(g457
S'ADVADVDPP'
tp1388
F18
s(g14
S'CCDP'
tp1389
F464
s(S'NP'
S'ANNDP'
tp1390
F4
s(g355
S'ADVADVADVDPP'
tp1391
F5
s(S'VP'
S'VAAVP'
tp1392
F2
s(g405
S'AADDPP'
tp1393
F5
s(S'AP'
S'AAACP'
tp1394
F9
s(g307
S'CDDDPP'
tp1395
F34
s(S'MP'
S'AMMNP'
tp1396
F1
s(S'VP'
S'VADVADVADVDDP'
tp1397
F1
s(S'CP'
S'CADVDDAPP'
tp1398
F1
s(S'NP'
S'NNADVDP'
tp1399
F1
s(S'NP'
S'ANNPPP'
tp1400
F1
s(g885
S'DDNNNP'
tp1401
F7
s(g601
S'AAANPPPPP'
tp1402
F1
s(S'AP'
S'AADVVVP'
tp1403
F1
s(S'DP'
S'DADVADVPPP'
tp1404
F4
s(S'PP'
S'AAAPPVVP'
tp1405
F1
s(S'CP'
S'CADPP'
tp1406
F150
s(S'MP'
S'MVADDP'
tp1407
F1
s(g178
S'CDDDPPPP'
tp1408
F1
s(S'DP'
S'ADVDDPPP'
tp1409
F1
s(S'CP'
S'CDDDPPP'
tp1410
F5
s(S'MP'
S'MADVVAP'
tp1411
F4
s(S'CP'
S'CDDDDPPP'
tp1412
F4
s(S'DP'
S'DADVADVADVNNP'
tp1413
F1
s(S'MP'
S'MCCDP'
tp1414
F1
s(S'NP'
S'NNNNNVVP'
tp1415
F1
s(S'NP'
S'NANP'
tp1416
F8
s(g623
S'DVVP'
tp1417
F154
s(S'MP'
S'MADVADVVCCP'
tp1418
F1
s(S'VP'
S'ADVVVAANP'
tp1419
F1
s(S'VP'
S'AVMP'
tp1420
F2
s(S'MP'
S'MMADP'
tp1421
F1
s(S'NP'
S'AAANCP'
tp1422
F3
s(S'NP'
S'NNNNAAP'
tp1423
F1
s(S'VP'
S'AAVVCP'
tp1424
F3
s(g349
S'VVDP'
tp1425
F232
s(S'PP'
S'PPAPP'
tp1426
F4
s(g1345
S'DAVP'
tp1427
F36
s(g568
S'AVVVP'
tp1428
F1
s(S'VP'
S'VAAAANP'
tp1429
F3
s(S'PP'
S'PAAAPP'
tp1430
F2
s(g246
S'ADVPNNNP'
tp1431
F1
s(g358
S'PPNP'
tp1432
F333
s(g998
S'ADVADVANPP'
tp1433
F1
s(S'VP'
S'ADVVADVDP'
tp1434
F2
s(S'CP'
S'ADVCADVADVDP'
tp1435
F1
s(g1118
S'NNNNCCP'
tp1436
F5
s(S'VP'
S'VVVVNNP'
tp1437
F1
s(S'MP'
S'MACP'
tp1438
F1
s(S'VP'
S'VAANNP'
tp1439
F4
s(S'AP'
S'AAADP'
tp1440
F23
s(g234
S'PCCCP'
tp1441
F2
s(g1210
S'ADVAPDDP'
tp1442
F1
s(S'MP'
S'MNADVVP'
tp1443
F3
s(S'VP'
S'VVAPPP'
tp1444
F1
s(S'NP'
S'AANNVVP'
tp1445
F1
s(S'NP'
S'NADVADVDP'
tp1446
F1
s(S'NP'
S'ADVAAANADVPP'
tp1447
F1
s(S'MP'
S'ADVMMVP'
tp1448
F2
s(g475
S'AVANNP'
tp1449
F1
s(g1385
S'DDADVADVNNP'
tp1450
F1
s(S'DP'
S'AADDNP'
tp1451
F1
s(S'PP'
S'PPPNP'
tp1452
F33
s(S'DP'
S'DDDDDP'
tp1453
F1
s(S'NP'
S'NPPPP'
tp1454
F10
s(S'NP'
S'ANPPPPP'
tp1455
F1
s(S'MP'
S'MMMDDP'
tp1456
F2
s(S'VP'
S'VVADVNP'
tp1457
F1
s(g1027
S'APNNP'
tp1458
F12
s(S'DP'
S'AAADPP'
tp1459
F4
s(S'PP'
S'PCCP'
tp1460
F7
s(S'DP'
S'DDDAAAPP'
tp1461
F1
s(S'NP'
S'ADVADVNNAP'
tp1462
F1
s(S'NP'
S'NNACP'
tp1463
F8
s(g657
S'CDADVPPP'
tp1464
F7
s(S'MP'
S'MNVVP'
tp1465
F7
s(S'PP'
S'ADVPMP'
tp1466
F2
s(g178
S'CCCAAAAADP'
tp1467
F1
s(S'MP'
S'MVVVDP'
tp1468
F2
s(g494
S'NNPPPPP'
tp1469
F2
s(S'VP'
S'ADVAVDP'
tp1470
F3
s(S'DP'
S'ADAP'
tp1471
F2
s(g20
S'DDDAP'
tp1472
F1
s(S'MP'
S'AMVVVP'
tp1473
F1
s(g574
S'MANVP'
tp1474
F2
s(S'MP'
p1475
S'MDACP'
tp1476
F1
s(S'NP'
S'NADVADVCP'
tp1477
F4
s(g550
S'PADVADVPPP'
tp1478
F2
s(g257
S'VVAADP'
tp1479
F2
s(S'MP'
S'MADP'
tp1480
F23
s(g836
S'AMMP'
tp1481
F7
s(S'MP'
S'MAPNP'
tp1482
F1
s(S'PP'
S'AAPCP'
tp1483
F1
s(g1210
S'PANP'
tp1484
F161
s(S'NP'
S'AANMP'
tp1485
F7
s(S'AP'
S'AAVP'
tp1486
F21
s(S'AP'
S'ACCP'
tp1487
F61
s(S'NP'
S'NNNNNNCCP'
tp1488
F2
s(S'VP'
S'VVVVAP'
tp1489
F3
s(S'NP'
S'NNNNVVP'
tp1490
F2
s(S'DP'
S'ADADVPPP'
tp1491
F2
s(S'CP'
S'CADVADVADVADPP'
tp1492
F1
s(S'DP'
S'ADDVP'
tp1493
F3
s(S'VP'
S'VADVADP'
tp1494
F1
s(S'PP'
S'PAADP'
tp1495
F13
s(S'NP'
S'ADVNNVP'
tp1496
F1
s(S'DP'
S'ADVADVADVDDNP'
tp1497
F1
s(S'MP'
S'MADVADVVCP'
tp1498
F1
s(S'PP'
S'ADVADVPCP'
tp1499
F1
s(S'PP'
S'APAANNP'
tp1500
F1
s(S'AP'
p1501
S'ADVACP'
tp1502
F15
s(g586
S'PAPPP'
tp1503
F1
s(S'MP'
S'MNNACP'
tp1504
F1
s(g439
S'MVCP'
tp1505
F82
s(g156
S'NCP'
tp1506
F1385
s(S'NP'
S'NNADVVP'
tp1507
F19
s(S'VP'
S'AAVCCP'
tp1508
F1
s(g774
S'DADVADVADVVVP'
tp1509
F1
s(g1016
S'NNNADVMP'
tp1510
F2
s(S'DP'
S'DADVNP'
tp1511
F39
s(S'NP'
S'NNNNVP'
tp1512
F2
s(g1149
S'VVCP'
tp1513
F125
s(S'DP'
S'ADVDMP'
tp1514
F1
s(g309
S'VDP'
tp1515
F1277
s(S'VP'
S'VVDDDP'
tp1516
F1
s(S'VP'
S'AAAAVCP'
tp1517
F1
s(g1501
S'AADVDP'
tp1518
F6
s(S'DP'
S'ADVVP'
tp1519
F5
s(S'CP'
S'ACADVDP'
tp1520
F3
s(S'NP'
S'NADVCP'
tp1521
F24
s(S'NP'
S'NNADVAP'
tp1522
F1
s(g299
S'ADVNAAP'
tp1523
F2
s(S'AP'
S'AAMP'
tp1524
F9
s(S'MP'
S'MMAPP'
tp1525
F1
s(S'MP'
S'MVVNP'
tp1526
F14
s(S'CP'
S'CDDADVPPP'
tp1527
F1
s(S'CP'
S'CAAADDPP'
tp1528
F1
s(S'AP'
S'AAPP'
tp1529
F22
s(S'CP'
S'CDAAAPPP'
tp1530
F1
s(g299
S'NNCCP'
tp1531
F72
s(g312
S'NNMP'
tp1532
F64
s(S'DP'
S'DDDVP'
tp1533
F8
s(S'MP'
S'MAPDP'
tp1534
F1
s(S'CP'
S'CDDAPP'
tp1535
F9
s(S'AP'
S'AADVADVCCP'
tp1536
F2
s(S'MP'
S'MVVVAP'
tp1537
F1
s(S'AP'
S'ADVADVAPP'
tp1538
F1
s(S'VP'
S'VADVCCP'
tp1539
F6
s(S'NP'
S'NNNNNVP'
tp1540
F1
s(S'MP'
S'MAADVDP'
tp1541
F1
s(S'NP'
S'NADVADVAP'
tp1542
F3
s(g206
S'NAVVP'
tp1543
F3
s(S'DP'
S'DDPP'
tp1544
F530
s(g27
S'DANP'
tp1545
F209
s(S'VP'
S'VVVMMP'
tp1546
F2
s(S'NP'
S'NADVADP'
tp1547
F1
s(S'CP'
S'AACCCDP'
tp1548
F1
s(S'PP'
S'AADVPPAADP'
tp1549
F1
s(g838
S'NADVCCP'
tp1550
F3
s(g561
S'MNAVP'
tp1551
F3
s(g471
S'PADVPPP'
tp1552
F5
s(S'PP'
S'ADVADVPPP'
tp1553
F4
s(S'VP'
p1554
S'ADVADVADVVDP'
tp1555
F4
s(S'MP'
S'ADVMNP'
tp1556
F1
s(S'AP'
S'AADVADVCP'
tp1557
F1
s(S'AP'
S'ADVADVACP'
tp1558
F3
s(S'VP'
S'ADVADVADVVCP'
tp1559
F1
s(S'VP'
S'ADVVVAP'
tp1560
F2
s(S'PP'
S'ADVPPNP'
tp1561
F8
s(g1554
S'VADVADVADVVP'
tp1562
F1
s(S'MP'
S'MMCCP'
tp1563
F1
s(S'MP'
S'MAACCP'
tp1564
F1
s(S'CP'
S'ADVADVADVCDP'
tp1565
F1
s(g882
S'DPPP'
tp1566
F501
s(S'VP'
S'VANNP'
tp1567
F7
s(S'NP'
S'NNNNNNCCCP'
tp1568
F2
s(S'NP'
S'NNNADVVVP'
tp1569
F1
s(S'PP'
S'ADVPNP'
tp1570
F51
s(g403
S'PPDP'
tp1571
F180
s(S'MP'
S'MAVDP'
tp1572
F2
s(S'PP'
S'ADVPAANNP'
tp1573
F1
s(S'VP'
S'AAAVVDDP'
tp1574
F1
s(S'DP'
S'DDCP'
tp1575
F5
s(S'MP'
S'MADVADP'
tp1576
F1
s(S'AP'
S'AAAAACCP'
tp1577
F1
s(S'MP'
S'MNNADVANP'
tp1578
F1
s(g1475
S'MVVADVCP'
tp1579
F1
s(S'VP'
S'ADVVVADVAP'
tp1580
F1
s(S'MP'
S'MAADDP'
tp1581
F1
s(S'MP'
S'MANAP'
tp1582
F1
s(S'DP'
S'DDAPP'
tp1583
F22
s(S'PP'
S'ADVADVPVP'
tp1584
F6
s(g403
S'APNP'
tp1585
F102
s(S'AP'
S'AAADDP'
tp1586
F2
s(S'MP'
S'MVANP'
tp1587
F6
s(S'MP'
S'MVNNP'
tp1588
F16
s(S'DP'
S'DCCCP'
tp1589
F1
s(g885
S'DDAAAAPP'
tp1590
F1
s(S'DP'
S'AAADDPP'
tp1591
F2
s(S'VP'
S'ADVADVVCP'
tp1592
F4
s(g481
S'VADVADVDP'
tp1593
F4
s(S'CP'
S'CAADDPP'
tp1594
F2
s(S'PP'
S'PPPADVNP'
tp1595
F1
s(g1229
S'AVDDP'
tp1596
F16
s(S'DP'
S'DDCCP'
tp1597
F1
s(S'MP'
S'MCADVDP'
tp1598
F1
s(S'NP'
S'NADVAVP'
tp1599
F4
s(S'NP'
S'NNAAAPP'
tp1600
F1
s(S'NP'
S'NADVADVMP'
tp1601
F2
s(g164
S'CAADPPP'
tp1602
F4
s(g942
S'APNNNP'
tp1603
F1
s(S'PP'
S'PAAAVP'
tp1604
F3
s(S'AP'
S'AADP'
tp1605
F184
s(S'PP'
S'PPAAVP'
tp1606
F2
s(S'NP'
S'NNADVVVP'
tp1607
F1
s(g926
S'VADVADVNNP'
tp1608
F2
s(g450
S'ADVDANP'
tp1609
F1
s(S'VP'
S'ADVADVADVVANP'
tp1610
F1
s(g220
S'DDDDADVANP'
tp1611
F1
s(S'VP'
S'AAVAAP'
tp1612
F1
s(S'MP'
S'MACDP'
tp1613
F2
s(S'PP'
S'PAMP'
tp1614
F2
s(S'PP'
S'ADVPDP'
tp1615
F10
s(S'VP'
S'ADVVADP'
tp1616
F2
s(S'PP'
S'PPAAANP'
tp1617
F2
s(S'CP'
S'CADVDPPP'
tp1618
F7
s(S'PP'
S'AAAPNP'
tp1619
F1
s(S'AP'
S'AAAP'
tp1620
F10
s(S'VP'
S'ADVAVVNP'
tp1621
F1
s(g700
S'VADVADVADVDP'
tp1622
F1
s(S'MP'
S'MNVP'
tp1623
F61
s(S'MP'
S'MMMAP'
tp1624
F1
s(S'VP'
S'ADVVDP'
tp1625
F77
s(S'NP'
S'NNNNNNVP'
tp1626
F1
s(S'CP'
S'CCADP'
tp1627
F22
s(S'PP'
S'ADVADVADVPNP'
tp1628
F1
s(S'NP'
S'NNNPPP'
tp1629
F2
s(S'NP'
S'AADVNNANP'
tp1630
F1
s(S'CP'
S'CCDDDP'
tp1631
F16
s(S'NP'
S'ADVNPP'
tp1632
F15
s(S'NP'
S'ADVADVANMP'
tp1633
F3
s(S'CP'
S'AAACDP'
tp1634
F4
s(S'NP'
S'NADVVP'
tp1635
F62
s(S'NP'
S'NNADVADVVP'
tp1636
F4
s(g623
S'DDPPP'
tp1637
F89
s(S'DP'
S'DADVAP'
tp1638
F5
s(S'VP'
S'AAAVNP'
tp1639
F1
s(g135
S'VNP'
tp1640
F980
s(g1255
S'VANP'
tp1641
F73
s(g534
S'PPADVNP'
tp1642
F8
s(S'NP'
S'NADVPPP'
tp1643
F3
s.