ccollections
defaultdict
p1
(c__builtin__
float
p2
tRp3
(S'DP'
S'DDMP'
tp4
F1
s(S'DP'
p5
S'ADDPP'
tp6
F3
s(S'NP'
S'AAANNAP'
tp7
F1
s(S'DP'
S'DDAP'
tp8
F1
s(S'CP'
S'CCDDDDP'
tp9
F1
s(S'DP'
S'DAANNP'
tp10
F1
s(S'AP'
S'AVVVP'
tp11
F1
s(S'PP'
p12
S'PAPP'
tp13
F9
s(S'PP'
S'PADVNP'
tp14
F12
s(S'DP'
p15
S'DNP'
tp16
F168
s(S'NP'
p17
S'ADVNDP'
tp18
F1
s(S'CP'
S'CDPPP'
tp19
F34
s(S'VP'
p20
S'VADP'
tp21
F6
s(S'DP'
p22
S'DNNNNP'
tp23
F1
s(S'DP'
S'DADVADVADVADVVP'
tp24
F1
s(S'PP'
S'APPDP'
tp25
F1
s(S'PP'
S'PADVADVAAP'
tp26
F1
s(S'VP'
S'ADVVNP'
tp27
F4
s(S'MP'
S'MVDP'
tp28
F11
s(S'PP'
p29
S'PADVANP'
tp30
F2
s(S'NP'
p31
S'AANNPP'
tp32
F2
s(S'PP'
p33
S'PPPP'
tp34
F30
s(S'DP'
p35
S'DDDNP'
tp36
F1
s(S'MP'
S'AMCP'
tp37
F1
s(g20
S'VACP'
tp38
F2
s(g29
S'PPAAP'
tp39
F4
s(S'DP'
p40
S'DADVVP'
tp41
F8
s(S'NP'
p42
S'ADVNNMP'
tp43
F1
s(S'NP'
S'NADVACP'
tp44
F1
s(S'NP'
p45
S'NCCCP'
tp46
F4
s(S'CP'
p47
S'CADVDAPP'
tp48
F1
s(S'VP'
p49
S'VCP'
tp50
F61
s(S'NP'
S'NMMP'
tp51
F2
s(S'VP'
p52
S'VVAANNP'
tp53
F1
s(S'VP'
p54
S'ADVVAAP'
tp55
F2
s(S'PP'
S'PAP'
tp56
F66
s(S'CP'
S'CDADVADVADVPP'
tp57
F1
s(S'NP'
p58
S'NNNAP'
tp59
F1
s(g12
S'APVVP'
tp60
F3
s(S'PP'
p61
S'PPADVDP'
tp62
F1
s(S'CP'
p63
S'CADPPPP'
tp64
F1
s(S'PP'
p65
S'PNP'
tp66
F151
s(S'DP'
S'DDP'
tp67
F28
s(S'VP'
S'ADVVDDP'
tp68
F1
s(S'DP'
p69
S'ADDCP'
tp70
F1
s(S'NP'
p71
S'NNDP'
tp72
F4
s(S'MP'
p73
S'MCDP'
tp74
F6
s(S'DP'
S'DDDDPPPP'
tp75
F1
s(S'DP'
S'DDAANP'
tp76
F1
s(S'DP'
p77
S'DADVDDP'
tp78
F1
s(g42
S'NMP'
tp79
F37
s(S'DP'
S'ADCP'
tp80
F1
s(S'DP'
p81
S'ADVDPPPP'
tp82
F1
s(S'VP'
S'AAVNP'
tp83
F1
s(S'MP'
p84
S'MVVAANNP'
tp85
F1
s(g65
S'PDP'
tp86
F170
s(S'CP'
S'CCADVADVDP'
tp87
F1
s(S'PP'
p88
S'PPADVVP'
tp89
F2
s(S'VP'
S'VNNNNP'
tp90
F1
s(S'CP'
S'CDADVADVPPP'
tp91
F1
s(S'NP'
S'NNADVADVADVVVP'
tp92
F1
s(S'NP'
p93
S'NACCP'
tp94
F4
s(S'AP'
S'ANP'
tp95
F1
s(S'PP'
S'ADVPAAP'
tp96
F1
s(S'PP'
p97
S'PADVPP'
tp98
F5
s(S'NP'
p99
S'ADVADVADVADVNCP'
tp100
F1
s(S'NP'
S'NNADVCP'
tp101
F1
s(S'AP'
S'ADVADVADVADVADP'
tp102
F1
s(S'DP'
S'DPPPP'
tp103
F4
s(S'DP'
p104
S'DDANP'
tp105
F3
s(S'NP'
p106
S'NACP'
tp107
F16
s(S'AP'
S'ADVAVP'
tp108
F1
s(S'NP'
p109
S'NCCP'
tp110
F22
s(S'AP'
p111
S'AAAADP'
tp112
F1
s(S'CP'
S'CADVDDPP'
tp113
F1
s(S'NP'
p114
S'NNCP'
tp115
F34
s(S'NP'
S'AANPPP'
tp116
F1
s(S'NP'
S'NNPPPP'
tp117
F1
s(S'DP'
p118
S'DDDDP'
tp119
F1
s(S'DP'
S'DDAPP'
tp120
F3
s(S'VP'
p121
S'AVNP'
tp122
F7
s(S'NP'
p123
S'NNNNNCP'
tp124
F1
s(S'NP'
S'NADVADVPP'
tp125
F1
s(S'VP'
S'VVNNNP'
tp126
F1
s(S'DP'
S'ADADVNP'
tp127
F1
s(S'PP'
p128
S'ADVAPDP'
tp129
F2
s(S'CP'
S'ACCDDP'
tp130
F1
s(S'VP'
p131
S'ADVADVADVVNP'
tp132
F1
s(S'MP'
S'MVPPP'
tp133
F1
s(S'NP'
S'ANADVVP'
tp134
F3
s(S'PP'
p135
S'ADVPAPP'
tp136
F2
s(S'DP'
S'DADVPPP'
tp137
F1
s(S'CP'
p138
S'CCCDP'
tp139
F7
s(S'VP'
p140
S'ADVVAP'
tp141
F4
s(S'VP'
S'VCCCP'
tp142
F1
s(S'PP'
S'APDP'
tp143
F20
s(S'AP'
S'AADVCP'
tp144
F3
s(S'AP'
S'AADVACP'
tp145
F1
s(S'VP'
p146
S'VVANP'
tp147
F2
s(S'PP'
S'ADVPNNP'
tp148
F1
s(S'VP'
p149
S'ADVVVP'
tp150
F1
s(S'DP'
p151
S'DADVADVADVPP'
tp152
F1
s(S'CP'
p153
S'CCCADP'
tp154
F1
s(S'PP'
S'PCCP'
tp155
F2
s(S'NP'
p156
S'ADVANCP'
tp157
F2
s(g81
S'DNNP'
tp158
F43
s(S'VP'
p159
S'ADVVAANP'
tp160
F3
s(S'DP'
p161
S'ADVADVDDNP'
tp162
F1
s(S'VP'
p163
S'AVVNNP'
tp164
F1
s(S'CP'
p165
S'CCADVDP'
tp166
F2
s(S'VP'
S'ADVADVADVVVDP'
tp167
F1
s(S'NP'
S'NNNVP'
tp168
F4
s(g52
S'VADVADVADVADVNNP'
tp169
F1
s(g58
S'NNNNNNAANP'
tp170
F1
s(S'PP'
p171
S'PADVVP'
tp172
F5
s(S'DP'
S'DADVADVADVPPP'
tp173
F1
s(S'PP'
p174
S'APAP'
tp175
F5
s(S'AP'
S'APP'
tp176
F30
s(S'AP'
p177
S'ACCCP'
tp178
F4
s(S'NP'
p179
S'NADVMP'
tp180
F1
s(S'AP'
S'AAP'
tp181
F4
s(S'VP'
S'VADVADVVP'
tp182
F1
s(S'CP'
S'CADVADPP'
tp183
F1
s(S'NP'
S'ADVADVNDP'
tp184
F1
s(S'NP'
p185
S'ADVADVNCCP'
tp186
F1
s(S'NP'
S'ADVANPP'
tp187
F1
s(S'DP'
S'DAAVP'
tp188
F1
s(S'CP'
S'CDDDDPP'
tp189
F2
s(S'MP'
p190
S'MVVVNP'
tp191
F1
s(S'PP'
S'PAANP'
tp192
F2
s(S'DP'
p193
S'ADVDVP'
tp194
F2
s(S'PP'
p195
S'PPVVP'
tp196
F6
s(g77
S'ADVDDPP'
tp197
F3
s(S'NP'
p198
S'AAAAAANVVP'
tp199
F1
s(S'MP'
S'MVNP'
tp200
F12
s(S'AP'
S'AADVCCP'
tp201
F1
s(S'AP'
p202
S'ADVAADP'
tp203
F1
s(S'DP'
S'ADVADNP'
tp204
F1
s(g128
S'PAVP'
tp205
F10
s(S'MP'
S'ADVMVP'
tp206
F3
s(S'VP'
p207
S'ADVVMP'
tp208
F1
s(g5
S'DADVMMP'
tp209
F1
s(S'VP'
S'VVVPP'
tp210
F2
s(g135
S'APPPP'
tp211
F3
s(S'DP'
S'DADP'
tp212
F1
s(S'AP'
S'ADVADP'
tp213
F1
s(g153
S'ADVADVCDP'
tp214
F2
s(g174
S'APDDP'
tp215
F4
s(g171
S'APVP'
tp216
F9
s(S'MP'
S'MNCP'
tp217
F2
s(S'VP'
p218
S'VVNP'
tp219
F17
s(g33
S'PPVP'
tp220
F18
s(S'MP'
S'MPCP'
tp221
F1
s(S'VP'
S'VADVDP'
tp222
F1
s(S'VP'
S'VVADVAP'
tp223
F2
s(S'VP'
S'VAAP'
tp224
F6
s(S'NP'
S'ANDP'
tp225
F2
s(S'NP'
S'NVVP'
tp226
F33
s(S'PP'
S'AAPVP'
tp227
F2
s(g207
S'VMP'
tp228
F17
s(S'PP'
p229
S'PPPPNNNP'
tp230
F1
s(g207
S'VVNNP'
tp231
F4
s(S'CP'
S'CDAPP'
tp232
F20
s(S'VP'
p233
S'VVAAP'
tp234
F2
s(S'MP'
S'MMPP'
tp235
F1
s(g151
S'ADNP'
tp236
F6
s(S'VP'
p237
S'VADVMP'
tp238
F1
s(S'PP'
S'PADP'
tp239
F15
s(g218
S'ADVVVCP'
tp240
F1
s(S'NP'
p241
S'ANDDP'
tp242
F1
s(S'DP'
S'DADVAP'
tp243
F1
s(S'DP'
S'DAPP'
tp244
F27
s(S'MP'
S'MADVADVVNP'
tp245
F1
s(S'MP'
S'MDDNP'
tp246
F1
s(S'VP'
S'ADVADVVDP'
tp247
F2
s(g207
S'AVVNP'
tp248
F2
s(g73
S'MVVAP'
tp249
F2
s(g193
S'DAAANP'
tp250
F1
s(S'PP'
S'ADVPADVNNP'
tp251
F1
s(S'VP'
S'VAAPP'
tp252
F1
s(S'DP'
S'ADVDNP'
tp253
F2
s(S'VP'
p254
S'VVPP'
tp255
F17
s(g40
S'ADADVPP'
tp256
F1
s(g171
S'PAVVP'
tp257
F2
s(S'MP'
S'MVPP'
tp258
F8
s(S'DP'
S'ADVP'
tp259
F5
s(S'CP'
S'CDDPPP'
tp260
F8
s(S'NP'
S'AAAAAAANCCP'
tp261
F1
s(g5
S'ADVADVDDADVNP'
tp262
F1
s(S'VP'
S'ADVADVADVVDP'
tp263
F1
s(S'NP'
p264
S'NNPP'
tp265
F22
s(g99
S'ADVADVADVNCCP'
tp266
F1
s(S'NP'
S'AAANDP'
tp267
F1
s(g73
S'MVVDP'
tp268
F1
s(S'AP'
S'AACP'
tp269
F6
s(S'NP'
p270
S'ANVP'
tp271
F12
s(S'DP'
p272
S'DNNNP'
tp273
F2
s(S'MP'
p274
S'MPPDP'
tp275
F1
s(S'DP'
S'ADVDDVP'
tp276
F1
s(S'VP'
p277
S'ADVVCP'
tp278
F2
s(S'PP'
S'PVVVP'
tp279
F3
s(S'PP'
p280
S'PMP'
tp281
F13
s(S'PP'
p282
S'PADVADVADVVP'
tp283
F1
s(S'CP'
p284
S'CCDP'
tp285
F35
s(S'MP'
S'AMVP'
tp286
F2
s(S'PP'
S'PPNNNP'
tp287
F1
s(S'NP'
S'NVVVP'
tp288
F4
s(S'CP'
S'CDDDPP'
tp289
F4
s(S'CP'
S'CDAAPP'
tp290
F1
s(S'VP'
S'VVVDP'
tp291
F3
s(S'PP'
p292
S'PDDDDP'
tp293
F1
s(S'PP'
p294
S'PNNNP'
tp295
F8
s(S'MP'
S'MADVVDP'
tp296
F2
s(g52
S'VVMP'
tp297
F1
s(S'PP'
p298
S'PPP'
tp299
F83
s(g159
S'VADVADVADVANP'
tp300
F1
s(S'NP'
p301
S'NAVP'
tp302
F8
s(S'PP'
S'PADVAP'
tp303
F2
s(S'VP'
S'VVVANP'
tp304
F1
s(S'PP'
S'PPADVADVNP'
tp305
F1
s(S'NP'
S'NAAAP'
tp306
F1
s(S'NP'
S'NADVVVP'
tp307
F3
s(S'DP'
S'DADVADVPPP'
tp308
F1
s(S'AP'
S'AADVVP'
tp309
F1
s(S'CP'
S'CCCDDDDDP'
tp310
F1
s(g272
S'ADVADVDNP'
tp311
F1
s(g63
S'CADPP'
tp312
F25
s(S'VP'
p313
S'VPP'
tp314
F77
s(S'CP'
S'ADVCCDP'
tp315
F2
s(g138
S'ACCDP'
tp316
F3
s(S'NP'
S'NNNCP'
tp317
F7
s(S'PP'
S'PADVDP'
tp318
F1
s(S'CP'
S'CDADVAPP'
tp319
F1
s(g69
S'DANNP'
tp320
F2
s(S'MP'
S'MADVVAP'
tp321
F2
s(S'CP'
p322
S'CDDPP'
tp323
F46
s(S'DP'
p324
S'DAAPP'
tp325
F3
s(g294
S'PVVP'
tp326
F20
s(S'CP'
S'CADPPP'
tp327
F2
s(S'VP'
p328
S'VVVPPP'
tp329
F1
s(S'CP'
S'CCCCCDDDP'
tp330
F1
s(g328
S'VADVADVADVADVNP'
tp331
F1
s(S'PP'
S'PMMP'
tp332
F2
s(S'VP'
S'VPPP'
tp333
F9
s(S'NP'
p334
S'AAAAAAAANPPPPP'
tp335
F1
s(g149
S'VVPPP'
tp336
F2
s(S'NP'
S'NNNNNVVP'
tp337
F1
s(S'MP'
S'MMPPP'
tp338
F1
s(g264
S'NANP'
tp339
F4
s(S'DP'
S'DVVP'
tp340
F17
s(S'NP'
S'ANMP'
tp341
F4
s(S'PP'
S'PPAP'
tp342
F5
s(S'VP'
S'VVVP'
tp343
F4
s(S'CP'
S'CADVDPP'
tp344
F10
s(S'NP'
p345
S'ANCP'
tp346
F31
s(S'DP'
p347
S'DCP'
tp348
F9
s(S'DP'
S'DVVVP'
tp349
F1
s(S'PP'
S'ADVADVADVPPNP'
tp350
F1
s(S'DP'
p351
S'DDDP'
tp352
F6
s(S'VP'
S'VVADVADVPPP'
tp353
F1
s(S'DP'
p354
S'DDADVPP'
tp355
F3
s(g106
S'ANVVP'
tp356
F2
s(S'DP'
p357
S'DDDNNNP'
tp358
F1
s(S'VP'
p359
S'VVDP'
tp360
F30
s(S'NP'
S'NPPP'
tp361
F12
s(S'CP'
S'AAACADDDP'
tp362
F1
s(S'AP'
S'APPP'
tp363
F3
s(S'DP'
p364
S'DAVP'
tp365
F11
s(g177
S'ACP'
tp366
F42
s(S'PP'
S'PADVADVNNP'
tp367
F2
s(g33
S'PPNP'
tp368
F26
s(S'MP'
S'MADVADVVPPP'
tp369
F1
s(S'DP'
S'ADVDAPP'
tp370
F1
s(S'CP'
S'ADVCADVADVDP'
tp371
F1
s(g52
S'VVADVMP'
tp372
F1
s(g347
S'AADVP'
tp373
F2
s(g237
S'VAANNP'
tp374
F1
s(g165
S'CCCDDP'
tp375
F1
s(S'AP'
S'ADP'
tp376
F92
s(g88
S'APMP'
tp377
F1
s(S'DP'
S'DDAVP'
tp378
F1
s(S'NP'
S'ANPPP'
tp379
F1
s(S'NP'
S'AAANNCP'
tp380
F1
s(S'VP'
S'VAAANP'
tp381
F1
s(S'DP'
p382
S'DADVADP'
tp383
F1
s(g313
S'AAAVDP'
tp384
F1
s(S'VP'
S'AVDP'
tp385
F17
s(S'NP'
S'ANNVP'
tp386
F1
s(g207
S'VVAP'
tp387
F10
s(g179
S'NNAPP'
tp388
F1
s(S'CP'
S'CDDDAPP'
tp389
F1
s(g153
S'ADVACDP'
tp390
F3
s(S'VP'
S'ADVADVVPPP'
tp391
F1
s(g345
S'NPP'
tp392
F130
s(S'VP'
S'ADVADVVAP'
tp393
F1
s(g345
S'NVP'
tp394
F129
s(S'NP'
S'NNDDDP'
tp395
F1
s(S'MP'
S'ADVMMVP'
tp396
F1
s(g359
S'VDDP'
tp397
F17
s(S'NP'
S'NNNNDP'
tp398
F1
s(S'DP'
S'DADVAPP'
tp399
F1
s(g146
S'AVAAAP'
tp400
F1
s(g270
S'ANPP'
tp401
F23
s(g61
S'ADVPPDP'
tp402
F1
s(S'PP'
S'PPPPP'
tp403
F5
s(S'MP'
p404
S'MPDP'
tp405
F3
s(S'MP'
S'MVVPP'
tp406
F1
s(S'PP'
S'PPPNP'
tp407
F4
s(g123
S'NPPPP'
tp408
F1
s(g118
S'ADDP'
tp409
F1
s(S'NP'
S'NADVAAP'
tp410
F1
s(S'VP'
S'VVVMP'
tp411
F2
s(g284
S'CAADPP'
tp412
F4
s(S'DP'
S'DADVADVVP'
tp413
F1
s(S'NP'
S'NAACP'
tp414
F2
s(S'PP'
S'PNNP'
tp415
F43
s(g54
S'VADVACP'
tp416
F1
s(S'CP'
S'CDADVADVADVPPP'
tp417
F1
s(S'PP'
S'APNNP'
tp418
F1
s(g190
S'MMNP'
tp419
F2
s(S'NP'
S'NNNNMMP'
tp420
F1
s(g237
S'AVAP'
tp421
F1
s(S'MP'
S'MMVP'
tp422
F2
s(S'PP'
S'PADVDDP'
tp423
F1
s(S'NP'
p424
S'ADVNCP'
tp425
F8
s(S'DP'
S'ADPP'
tp426
F38
s(S'NP'
p427
S'NNNPP'
tp428
F4
s(S'NP'
S'NAPPP'
tp429
F1
s(S'CP'
S'ACDP'
tp430
F18
s(S'PP'
S'PAAP'
tp431
F8
s(g156
S'NNACP'
tp432
F3
s(S'MP'
S'MDNNP'
tp433
F1
s(S'CP'
S'CDADVPPP'
tp434
F1
s(g49
S'VAP'
tp435
F60
s(S'VP'
S'VVVVNP'
tp436
F1
s(S'MP'
S'MNVVP'
tp437
F1
s(S'DP'
S'DDDPP'
tp438
F7
s(S'NP'
S'AANNCP'
tp439
F1
s(S'DP'
S'AADAP'
tp440
F1
s(S'PP'
S'PAAPP'
tp441
F1
s(g177
S'AAVVP'
tp442
F2
s(g334
S'NNPPPPP'
tp443
F1
s(g359
S'ADVAVDP'
tp444
F1
s(g351
S'ADAP'
tp445
F3
s(S'DP'
S'DADVDP'
tp446
F1
s(g93
S'NAAP'
tp447
F4
s(S'PP'
S'PAAMP'
tp448
F1
s(g174
S'PPPVP'
tp449
F2
s(S'AP'
p450
S'AADDP'
tp451
F1
s(g163
S'ADVVADDP'
tp452
F1
s(S'VP'
S'VAANP'
tp453
F2
s(S'NP'
S'NADVADVCP'
tp454
F2
s(S'DP'
S'DDAAVVP'
tp455
F1
s(S'NP'
p456
S'ADVADVADVANADVVP'
tp457
F1
s(g35
S'DDADVADVADVNP'
tp458
F1
s(S'MP'
S'MPNP'
tp459
F3
s(S'VP'
S'VVAADP'
tp460
F1
s(g111
S'AMMP'
tp461
F4
s(g272
S'DDADVNP'
tp462
F1
s(S'PP'
p463
S'PANP'
tp464
F13
s(S'NP'
S'AANMP'
tp465
F2
s(g177
S'AAVP'
tp466
F6
s(S'PP'
S'AAPDDDDP'
tp467
F1
s(g264
S'NDDP'
tp468
F13
s(S'AP'
S'ACCP'
tp469
F7
s(S'VP'
p470
S'AVPPP'
tp471
F2
s(g17
S'NDP'
tp472
F63
s(S'NP'
S'AAANVP'
tp473
F1
s(S'MP'
S'MVAAP'
tp474
F1
s(S'DP'
S'DDVP'
tp475
F9
s(S'NP'
S'AANVP'
tp476
F1
s(g163
S'VNNNP'
tp477
F5
s(S'PP'
S'ADVPAP'
tp478
F4
s(S'MP'
S'MMVVVP'
tp479
F1
s(S'PP'
p480
S'PCP'
tp481
F8
s(g185
S'NNPPP'
tp482
F4
s(g97
S'PPVVVP'
tp483
F2
s(S'PP'
S'PAADP'
tp484
F4
s(S'NP'
p485
S'ADVADVNNAVP'
tp486
F1
s(S'VP'
S'VCCP'
tp487
F8
s(S'NP'
S'NADVADVDDP'
tp488
F1
s(S'AP'
S'AADVAP'
tp489
F1
s(S'AP'
S'ADVACP'
tp490
F8
s(S'DP'
p491
S'DDADVVP'
tp492
F1
s(g45
S'NNVP'
tp493
F29
s(S'MP'
S'MVCP'
tp494
F11
s(S'CP'
S'CCDDP'
tp495
F11
s(S'VP'
S'AAVVNNP'
tp496
F1
s(S'NP'
S'NNADVVP'
tp497
F2
s(g163
S'VVADVADVAP'
tp498
F1
s(g241
S'AANNDP'
tp499
F1
s(S'MP'
S'MVMP'
tp500
F3
s(S'VP'
S'VAMP'
tp501
F1
s(g71
S'NNVVP'
tp502
F10
s(S'NP'
S'NNNNVP'
tp503
F1
s(S'VP'
S'VVCP'
tp504
F7
s(S'MP'
S'MAAVPP'
tp505
F1
s(S'NP'
S'AANCP'
tp506
F8
s(g218
S'VDP'
tp507
F145
s(S'VP'
S'VVDDDP'
tp508
F1
s(S'PP'
S'APPP'
tp509
F6
s(g470
S'ADVVPP'
tp510
F3
s(S'AP'
S'AAAADDP'
tp511
F1
s(S'VP'
S'VNNP'
tp512
F7
s(S'NP'
S'NADP'
tp513
F3
s(S'DP'
S'DDNP'
tp514
F25
s(S'NP'
S'NADVCP'
tp515
F4
s(g491
S'DDNNP'
tp516
F2
s(S'PP'
S'AAPPP'
tp517
F1
s(g31
S'ADVADVADVADVNNVP'
tp518
F1
s(g121
S'ADVAVPP'
tp519
F1
s(S'PP'
S'APCP'
tp520
F1
s(S'NP'
S'ADVADVNCP'
tp521
F1
s(S'DP'
S'DDDPPPPPP'
tp522
F1
s(g47
S'ACADVDDP'
tp523
F1
s(S'DP'
S'AADPP'
tp524
F4
s(g301
S'NNNNPP'
tp525
F3
s(S'PP'
S'ADVADVPPDP'
tp526
F1
s(S'DP'
S'DAAAANP'
tp527
F1
s(S'VP'
S'VAAANNP'
tp528
F1
s(S'NP'
S'NNNP'
tp529
F1
s(S'PP'
S'PADVADVADVADVAP'
tp530
F1
s(S'CP'
S'ACDDP'
tp531
F1
s(S'NP'
S'ADVADVNNCP'
tp532
F1
s(S'DP'
S'DDDDDPP'
tp533
F1
s(S'AP'
S'AAPP'
tp534
F3
s(g207
S'VVCCP'
tp535
F1
s(S'DP'
S'DADVVVP'
tp536
F2
s(S'DP'
S'DADVADVNP'
tp537
F2
s(g233
S'VADVADP'
tp538
F1
s(S'VP'
S'ADVADVADVADVVCP'
tp539
F1
s(g357
S'DDPPPPPP'
tp540
F1
s(g270
S'NAPP'
tp541
F12
s(S'NP'
p542
S'NADVDP'
tp543
F1
s(S'VP'
S'VVVCP'
tp544
F1
s(g282
S'PADVAPP'
tp545
F1
s(g45
S'ANCCP'
tp546
F4
s(S'NP'
S'AANPP'
tp547
F4
s(g456
S'NNMP'
tp548
F2
s(S'DP'
S'DDDVP'
tp549
F2
s(S'VP'
S'AAVPP'
tp550
F1
s(S'CP'
S'CADDPP'
tp551
F3
s(g195
S'PAAAP'
tp552
F1
s(S'PP'
S'ADVADVPNP'
tp553
F1
s(S'VP'
S'VVVDDP'
tp554
F1
s(S'CP'
S'CDDAPP'
tp555
F3
s(g264
S'ANAP'
tp556
F3
s(g73
S'MVAP'
tp557
F8
s(S'VP'
S'VADVADVDDP'
tp558
F1
s(g463
S'PVP'
tp559
F130
s(S'DP'
S'ADVDPP'
tp560
F12
s(g274
S'AAMVP'
tp561
F1
s(g334
S'NNNNNNNCCCCCP'
tp562
F1
s(S'CP'
S'ACDDDP'
tp563
F1
s(g71
S'ANNCP'
tp564
F3
s(g135
S'PPDDP'
tp565
F3
s(g49
S'AVCP'
tp566
F4
s(S'NP'
S'NAVVP'
tp567
F1
s(g15
S'DPP'
tp568
F206
s(S'NP'
S'ADVNVP'
tp569
F5
s(g15
S'DDPP'
tp570
F66
s(g15
S'DANP'
tp571
F39
s(g202
S'ADVAMP'
tp572
F2
s(g45
S'NADVPP'
tp573
F1
s(g73
S'MVNNNP'
tp574
F1
s(g427
S'NAAVP'
tp575
F1
s(S'DP'
S'AADNP'
tp576
F1
s(g277
S'VADVCP'
tp577
F1
s(S'NP'
S'NADVCCP'
tp578
F1
s(g198
S'NNNVVP'
tp579
F2
s(S'DP'
S'AADDP'
tp580
F1
s(S'PP'
S'AAPDP'
tp581
F1
s(g382
S'ADVADPP'
tp582
F2
s(S'DP'
S'DDADVNNP'
tp583
F1
s(g33
S'PDDP'
tp584
F17
s(S'MP'
p585
S'MVDDP'
tp586
F1
s(S'AP'
S'ADVAVVVP'
tp587
F1
s(g104
S'ADPPP'
tp588
F4
s(S'MP'
S'MADVVDDP'
tp589
F1
s(S'AP'
S'AADVADVCP'
tp590
F1
s(S'AP'
S'ADVADVACP'
tp591
F1
s(g427
S'NNP'
tp592
F4
s(S'VP'
S'VVDDP'
tp593
F6
s(S'DP'
S'DAANP'
tp594
F9
s(S'NP'
S'AANCCCP'
tp595
F1
s(S'AP'
S'ADDP'
tp596
F9
s(S'PP'
S'PNNNNP'
tp597
F2
s(g131
S'VADVADVADVVP'
tp598
F1
s(S'NP'
S'AAAANCCP'
tp599
F1
s(g585
S'MDAP'
tp600
F1
s(S'MP'
S'MVVADVAP'
tp601
F1
s(g364
S'DPPP'
tp602
F51
s(g12
S'ADVADVPPNP'
tp603
F1
s(g114
S'NNAVP'
tp604
F2
s(S'AP'
S'AVVP'
tp605
F3
s(S'PP'
S'ADVPNP'
tp606
F5
s(S'AP'
S'AAADP'
tp607
F4
s(S'NP'
S'NVVVVP'
tp608
F1
s(S'MP'
p609
S'MAVDP'
tp610
F3
s(S'NP'
S'NNAAACP'
tp611
F1
s(g542
S'ANADVADVVP'
tp612
F1
s(g237
S'VVADP'
tp613
F2
s(S'PP'
S'PAANNP'
tp614
F1
s(S'AP'
S'ADVADVAADP'
tp615
F1
s(g404
S'MMAVP'
tp616
F1
s(g93
S'NAP'
tp617
F37
s(g58
S'NNAAP'
tp618
F1
s(g140
S'VVP'
tp619
F14
s(g404
S'MDNNNP'
tp620
F1
s(g364
S'DADVNP'
tp621
F2
s(g480
S'APNP'
tp622
F13
s(S'VP'
S'VVVNNP'
tp623
F1
s(g382
S'DDDAPP'
tp624
F1
s(g22
S'DDVVP'
tp625
F3
s(S'CP'
S'CADVADVDPP'
tp626
F1
s(g359
S'VVVNP'
tp627
F3
s(S'DP'
S'ADDDPP'
tp628
F1
s(S'NP'
S'NAMP'
tp629
F1
s(S'DP'
S'DDDNNNNNNP'
tp630
F1
s(g322
S'CDPP'
tp631
F171
s(S'AP'
S'ADDDP'
tp632
F2
s(S'MP'
S'MMMVP'
tp633
F1
s(S'CP'
S'ADVCDP'
tp634
F8
s(S'VP'
S'ADVADVVNP'
tp635
F2
s(S'PP'
S'PPPNNNNNP'
tp636
F1
s(S'MP'
p637
S'MNDDP'
tp638
F1
s(S'VP'
S'VADVADVDP'
tp639
F1
s(S'PP'
S'PPNNP'
tp640
F6
s(g298
S'PPMP'
tp641
F1
s(g71
S'NNNAACP'
tp642
F1
s(S'DP'
S'ADVADVDPP'
tp643
F3
s(S'NP'
p644
S'NADVAP'
tp645
F1
s(S'CP'
S'ADVADVCDDP'
tp646
F1
s(g364
S'DAP'
tp647
F26
s(S'VP'
S'VAAAAP'
tp648
F1
s(g109
S'NADVAVP'
tp649
F2
s(g292
S'PPAVP'
tp650
F2
s(S'MP'
S'MADVADVVDP'
tp651
F1
s(S'PP'
S'PPDDDP'
tp652
F1
s(g254
S'AVPP'
tp653
F7
s(S'VP'
p654
S'VVADVDP'
tp655
F1
s(S'CP'
S'CDPPPP'
tp656
F3
s(S'MP'
S'MDAANP'
tp657
F1
s(S'VP'
S'AAVDP'
tp658
F1
s(S'DP'
S'AADNNP'
tp659
F1
s(g171
S'PANNP'
tp660
F2
s(S'NP'
S'NMMMP'
tp661
F1
s(g485
S'NNDDP'
tp662
F1
s(S'DP'
p663
S'ADPPPP'
tp664
F1
s(S'DP'
S'DAPPP'
tp665
F1
s(S'AP'
S'AAADVDP'
tp666
F1
s(g22
S'DMP'
tp667
F2
s(g65
S'PAAAVP'
tp668
F1
s(S'PP'
S'PPAANP'
tp669
F1
s(S'DP'
S'DDDDANP'
tp670
F1
s(S'AP'
S'AADP'
tp671
F14
s(g140
S'VADVPP'
tp672
F2
s(g97
S'ADVPVP'
tp673
F4
s(S'DP'
S'DDDDPP'
tp674
F2
s(g161
S'ADMP'
tp675
F1
s(S'NP'
S'NNVVVP'
tp676
F1
s(S'VP'
S'ADVVANP'
tp677
F1
s(S'PP'
S'PAMP'
tp678
F1
s(g174
S'ADVPDP'
tp679
F3
s(g71
S'ANNPP'
tp680
F1
s(g345
S'NCP'
tp681
F145
s(S'MP'
S'MDNP'
tp682
F8
s(S'VP'
S'ADVVVPP'
tp683
F3
s(S'DP'
S'ADVVP'
tp684
F1
s(S'AP'
S'AAMP'
tp685
F1
s(S'PP'
S'PPDP'
tp686
F31
s(S'NP'
S'AANDP'
tp687
F1
s(S'MP'
S'MVCCP'
tp688
F1
s(g104
S'DADVNNP'
tp689
F1
s(g99
S'NNCCP'
tp690
F7
s(g637
S'MNVP'
tp691
F1
s(S'NP'
S'AANCCP'
tp692
F1
s(S'VP'
S'VAPP'
tp693
F6
s(g84
S'MPPNNP'
tp694
F1
s(g654
S'ADVVDP'
tp695
F11
s(g663
S'DADVPP'
tp696
F10
s(S'AP'
S'AMP'
tp697
F16
s(S'CP'
S'CCADP'
tp698
F7
s(S'NP'
S'ADVNNCP'
tp699
F2
s(g280
S'ADVADVADVPNP'
tp700
F1
s(g334
S'NNNPPP'
tp701
F2
s(g450
S'ADVAPP'
tp702
F1
s(S'CP'
S'AACDP'
tp703
F3
s(S'CP'
S'CCDDDP'
tp704
F1
s(g354
S'ADVDPPP'
tp705
F1
s(g364
S'DVP'
tp706
F110
s(S'NP'
S'ADVNPP'
tp707
F2
s(S'AP'
S'AVP'
tp708
F16
s(g229
S'PPPPNNNNNNNP'
tp709
F1
s(g42
S'NADVVP'
tp710
F4
s(S'DP'
S'DDPPP'
tp711
F12
s(g424
S'ADVNMP'
tp712
F3
s(g644
S'NNAP'
tp713
F2
s(g609
S'MADVVCP'
tp714
F1
s(S'PP'
S'PPANP'
tp715
F2
s(S'CP'
S'CDADVPP'
tp716
F6
s(g218
S'VNP'
tp717
F104
s(S'VP'
S'VANP'
tp718
F11
s(S'VP'
S'VADVAP'
tp719
F4
s(S'PP'
S'PPADVNP'
tp720
F2
s(g324
S'DDDDVP'
tp721
F1
s.