ccollections
defaultdict
p1
(c__builtin__
float
p2
tRp3
(S'MP'
S'MMDP'
tp4
F1
s(S'AP'
p5
S'AADVPPP'
tp6
F1
s(S'CP'
S'CAAADPP'
tp7
F1
s(S'DP'
S'ADDPP'
tp8
F1
s(S'DP'
p9
S'DDAP'
tp10
F2
s(S'AP'
S'AADDDP'
tp11
F1
s(S'VP'
p12
S'VVVVP'
tp13
F1
s(S'PP'
p14
S'PAAANNP'
tp15
F1
s(S'AP'
S'AVVVP'
tp16
F1
s(S'PP'
S'PAPP'
tp17
F6
s(S'PP'
S'PADVNP'
tp18
F9
s(S'VP'
S'VVADVADVADVNP'
tp19
F1
s(S'DP'
p20
S'DNP'
tp21
F134
s(S'VP'
p22
S'VVADVCP'
tp23
F1
s(S'CP'
p24
S'CDPPP'
tp25
F27
s(S'VP'
S'VADP'
tp26
F16
s(S'VP'
S'ADVADVVAP'
tp27
F1
s(S'DP'
S'DAAP'
tp28
F2
s(S'VP'
p29
S'AAVPPP'
tp30
F1
s(S'PP'
p31
S'PPPPPP'
tp32
F1
s(S'VP'
p33
S'VAVP'
tp34
F2
s(S'PP'
S'APPDP'
tp35
F2
s(S'DP'
S'DAADP'
tp36
F2
s(S'DP'
S'ADNNP'
tp37
F4
s(S'VP'
p38
S'ADVVNP'
tp39
F4
s(S'MP'
S'MVDP'
tp40
F7
s(S'CP'
S'AAACCDP'
tp41
F1
s(S'NP'
S'AANNPP'
tp42
F1
s(S'PP'
p43
S'PPPP'
tp44
F16
s(S'DP'
p45
S'DDDNP'
tp46
F2
s(S'VP'
p47
S'VACP'
tp48
F2
s(S'NP'
S'NNNNNCCCP'
tp49
F1
s(S'DP'
p50
S'DADVVP'
tp51
F1
s(S'DP'
S'DDAANP'
tp52
F1
s(S'VP'
S'VVVANNP'
tp53
F1
s(S'PP'
p54
S'PADVNNP'
tp55
F1
s(S'NP'
p56
S'NADVVVP'
tp57
F4
s(S'VP'
S'VCP'
tp58
F48
s(S'NP'
p59
S'NMMP'
tp60
F2
s(S'DP'
p61
S'ADVADVADVDDPP'
tp62
F1
s(g47
S'ADVVAAP'
tp63
F1
s(S'DP'
p64
S'ADADVADVPPP'
tp65
F1
s(S'PP'
p66
S'PAP'
tp67
F56
s(S'VP'
S'VADVADVAP'
tp68
F2
s(S'PP'
S'ADVPPVP'
tp69
F2
s(S'VP'
S'VADVNP'
tp70
F2
s(S'VP'
p71
S'AAVNNP'
tp72
F1
s(S'PP'
p73
S'PNP'
tp74
F131
s(S'VP'
S'AVNNNP'
tp75
F1
s(S'DP'
p76
S'DDAAAADP'
tp77
F1
s(S'DP'
p78
S'DDP'
tp79
F34
s(S'NP'
S'NNNPP'
tp80
F1
s(S'PP'
S'PAAP'
tp81
F7
s(S'MP'
S'MCDP'
tp82
F3
s(S'CP'
p83
S'AACCDP'
tp84
F2
s(S'PP'
p85
S'ADVADVPPDP'
tp86
F1
s(S'MP'
S'AMPP'
tp87
F2
s(S'AP'
S'ADVADVAVVP'
tp88
F1
s(S'NP'
p89
S'NMP'
tp90
F27
s(S'NP'
p91
S'NNNADVADP'
tp92
F1
s(g29
S'AAVNP'
tp93
F1
s(g73
S'PDP'
tp94
F126
s(S'NP'
S'AAANCCP'
tp95
F1
s(S'VP'
p96
S'VAMP'
tp97
F1
s(S'NP'
p98
S'ADVNVVP'
tp99
F1
s(S'NP'
S'ADVADVADVNDP'
tp100
F1
s(S'VP'
S'VVVDDP'
tp101
F1
s(S'DP'
S'ADVADVDVVVVP'
tp102
F1
s(S'NP'
S'NNADVMP'
tp103
F1
s(S'NP'
p104
S'NACCP'
tp105
F1
s(S'NP'
S'NADVADVADVVP'
tp106
F1
s(S'PP'
p107
S'PADVPP'
tp108
F3
s(S'VP'
S'AAVPP'
tp109
F1
s(S'MP'
p110
S'MMMVVP'
tp111
F1
s(g56
S'ADVNACP'
tp112
F2
s(g20
S'DPPPP'
tp113
F9
s(S'NP'
p114
S'NACP'
tp115
F16
s(S'PP'
p116
S'AAAAPNP'
tp117
F1
s(S'NP'
p118
S'NCCP'
tp119
F32
s(g118
S'NNCP'
tp120
F40
s(S'NP'
p121
S'AANPPP'
tp122
F1
s(g118
S'NNPPPP'
tp123
F2
s(S'DP'
S'DDDDP'
tp124
F1
s(g71
S'AVNP'
tp125
F9
s(S'VP'
p126
S'VVADP'
tp127
F2
s(S'MP'
S'MVVVAPP'
tp128
F1
s(S'DP'
S'ADADVNP'
tp129
F2
s(S'VP'
S'ADVADVAVNP'
tp130
F1
s(S'NP'
S'NNNAAVVP'
tp131
F1
s(S'NP'
p132
S'NNNVP'
tp133
F6
s(S'NP'
S'NCCCCP'
tp134
F1
s(S'CP'
S'CCCDP'
tp135
F2
s(S'VP'
S'ADVVAP'
tp136
F2
s(S'PP'
S'APDP'
tp137
F19
s(g118
S'NNNNNPP'
tp138
F1
s(S'AP'
p139
S'AADVCP'
tp140
F2
s(S'PP'
S'PADVDDP'
tp141
F3
s(S'PP'
p142
S'ADVPNNP'
tp143
F1
s(S'VP'
S'ADVVVP'
tp144
F1
s(S'AP'
S'AANP'
tp145
F1
s(S'NP'
p146
S'ADVADVNNPP'
tp147
F1
s(S'MP'
p148
S'MADVVNP'
tp149
F1
s(S'DP'
p150
S'ADVADNNP'
tp151
F1
s(S'NP'
p152
S'ADVANCP'
tp153
F1
s(g78
S'DNNP'
tp154
F39
s(S'CP'
S'CADVDDPP'
tp155
F2
s(S'DP'
S'DPPPPP'
tp156
F2
s(g24
S'CDDPPPP'
tp157
F2
s(S'CP'
S'CCADVDP'
tp158
F1
s(g29
S'VVNNNP'
tp159
F1
s(g29
S'AAVDDP'
tp160
F1
s(S'DP'
S'ADVVVP'
tp161
F1
s(S'PP'
S'PADVVP'
tp162
F6
s(S'DP'
S'DADVADVADVPPP'
tp163
F1
s(S'DP'
S'DADVVVP'
tp164
F1
s(S'PP'
p165
S'APAP'
tp166
F3
s(S'VP'
p167
S'VADVADVADVADVCCP'
tp168
F1
s(S'CP'
p169
S'ADVADVCDP'
tp170
F2
s(S'AP'
p171
S'AAP'
tp172
F1
s(S'CP'
S'CADVADPP'
tp173
F1
s(S'NP'
S'ADVANPP'
tp174
F1
s(S'VP'
p175
S'VVVVPP'
tp176
F2
s(S'VP'
S'AAVADVADVDP'
tp177
F1
s(S'PP'
p178
S'PAANP'
tp179
F3
s(S'VP'
p180
S'VADVADVCP'
tp181
F1
s(S'DP'
S'ADVDVP'
tp182
F1
s(S'NP'
p183
S'ANVP'
tp184
F13
s(S'NP'
p185
S'NNADVPP'
tp186
F1
s(S'NP'
p187
S'NNNDDDP'
tp188
F1
s(S'DP'
S'ADVDDPP'
tp189
F3
s(g116
S'APADVNNP'
tp190
F1
s(g148
S'AMVP'
tp191
F3
s(S'AP'
S'ADVAADP'
tp192
F2
s(S'PP'
p193
S'PAVP'
tp194
F16
s(S'MP'
S'ADVMVP'
tp195
F2
s(S'PP'
S'APPPP'
tp196
F1
s(S'DP'
p197
S'DADP'
tp198
F2
s(g139
S'ADVADP'
tp199
F2
s(S'AP'
S'APP'
tp200
F22
s(S'PP'
p201
S'APDDP'
tp202
F1
s(S'VP'
S'ADVADVVVNP'
tp203
F2
s(S'DP'
S'DDVVVVP'
tp204
F1
s(S'DP'
p205
S'ADVDDDP'
tp206
F2
s(g85
S'AAPNNNP'
tp207
F1
s(S'PP'
p208
S'APVP'
tp209
F11
s(S'MP'
p210
S'MNCP'
tp211
F1
s(g167
S'VVNP'
tp212
F17
s(g54
S'PPVP'
tp213
F16
s(g71
S'VADVDP'
tp214
F6
s(S'MP'
S'MAPNP'
tp215
F1
s(S'VP'
S'VAAP'
tp216
F6
s(g104
S'ANDP'
tp217
F4
s(S'NP'
p218
S'NVVP'
tp219
F30
s(S'PP'
S'AAPVP'
tp220
F1
s(S'VP'
S'VMP'
tp221
F4
s(S'CP'
p222
S'CDAPP'
tp223
F19
s(S'VP'
p224
S'VVAAP'
tp225
F2
s(g12
S'VVAPP'
tp226
F1
s(S'DP'
p227
S'ADNP'
tp228
F13
s(S'MP'
S'ADVADVMVP'
tp229
F1
s(g31
S'PADP'
tp230
F15
s(g126
S'ADVVVCP'
tp231
F1
s(g91
S'NNNNDDP'
tp232
F1
s(S'DP'
S'ADVDDNP'
tp233
F1
s(S'NP'
S'ANDDP'
tp234
F1
s(S'DP'
S'ADVADVADVP'
tp235
F1
s(S'DP'
S'DADVAP'
tp236
F1
s(S'PP'
p237
S'ADVADVPMP'
tp238
F1
s(S'DP'
p239
S'DAPP'
tp240
F29
s(S'MP'
S'MVVVAAP'
tp241
F1
s(g180
S'ADVADVVPP'
tp242
F1
s(S'VP'
S'VADVAAP'
tp243
F2
s(S'PP'
p244
S'PPPDP'
tp245
F2
s(S'DP'
S'DAAPPP'
tp246
F1
s(S'MP'
S'MVVAP'
tp247
F1
s(g59
S'NNNCCCP'
tp248
F1
s(S'DP'
p249
S'DAAANP'
tp250
F1
s(S'DP'
S'DADVANP'
tp251
F3
s(g78
S'ADVDNP'
tp252
F7
s(S'VP'
S'VVPP'
tp253
F18
s(S'CP'
S'AACDDP'
tp254
F1
s(S'MP'
p255
S'MVPP'
tp256
F7
s(S'DP'
p257
S'ADVP'
tp258
F6
s(g24
S'CDDPPP'
tp259
F8
s(g118
S'NNPP'
tp260
F24
s(S'DP'
p261
S'DDDDNP'
tp262
F1
s(g210
S'MVVDP'
tp263
F1
s(g197
S'DADVPPP'
tp264
F2
s(S'PP'
S'PPVVP'
tp265
F2
s(S'VP'
S'VAACP'
tp266
F1
s(S'DP'
S'DNNNP'
tp267
F3
s(S'DP'
S'ADVDDVP'
tp268
F1
s(S'CP'
S'CAADDPPP'
tp269
F1
s(S'PP'
S'PADVADVVP'
tp270
F1
s(S'PP'
S'PMP'
tp271
F9
s(g187
S'NNMMP'
tp272
F1
s(S'CP'
S'CCDP'
tp273
F41
s(S'NP'
S'ANNDP'
tp274
F1
s(S'VP'
S'VADVANP'
tp275
F2
s(S'VP'
p276
S'VPPP'
tp277
F9
s(S'MP'
S'MVAP'
tp278
F3
s(S'NP'
p279
S'NVVVP'
tp280
F1
s(S'CP'
S'CDDDPP'
tp281
F4
s(S'CP'
S'CDADVADVPP'
tp282
F1
s(S'VP'
S'VVVDP'
tp283
F2
s(S'PP'
S'PDDDDP'
tp284
F1
s(g73
S'PNNNP'
tp285
F7
s(S'CP'
S'CCCCDP'
tp286
F1
s(g255
S'MVNP'
tp287
F7
s(g14
S'AAPNP'
tp288
F5
s(S'PP'
p289
S'PADVVVP'
tp290
F1
s(S'PP'
p291
S'PPP'
tp292
F53
s(S'NP'
p293
S'NAVP'
tp294
F12
s(S'PP'
p295
S'PADVAP'
tp296
F2
s(S'DP'
p297
S'DDNNNP'
tp298
F4
s(g276
S'VVVANP'
tp299
F2
s(S'AP'
S'AMMMP'
tp300
F1
s(S'NP'
S'NCCCP'
tp301
F2
s(S'DP'
S'DADVADVPPP'
tp302
F1
s(g31
S'PPPPDP'
tp303
F2
s(S'MP'
S'MADVADVVPP'
tp304
F1
s(S'DP'
S'ADVADVDNP'
tp305
F1
s(S'VP'
S'VPP'
tp306
F75
s(S'CP'
p307
S'ACCDP'
tp308
F1
s(S'CP'
p309
S'CDAAAAPP'
tp310
F1
s(g118
S'NNNCP'
tp311
F11
s(S'PP'
p312
S'PADVDP'
tp313
F5
s(S'CP'
S'CDDDPPP'
tp314
F2
s(S'MP'
p315
S'MVAACP'
tp316
F1
s(S'PP'
S'PADVAAP'
tp317
F1
s(g222
S'CDDPP'
tp318
F38
s(S'DP'
S'DAAPP'
tp319
F8
s(g31
S'PVVP'
tp320
F20
s(g307
S'CADPPP'
tp321
F4
s(S'AP'
S'AACP'
tp322
F6
s(S'VP'
p323
S'ADVVCP'
tp324
F1
s(g73
S'PPNNNP'
tp325
F3
s(S'PP'
S'PPADVADVDP'
tp326
F1
s(S'NP'
p327
S'NANP'
tp328
F3
s(g45
S'DVVP'
tp329
F10
s(S'PP'
S'PADVAVP'
tp330
F1
s(S'NP'
S'ANMP'
tp331
F3
s(S'PP'
S'PPAP'
tp332
F2
s(g312
S'ADVPPP'
tp333
F3
s(S'NP'
S'ADVADVNVP'
tp334
F1
s(S'VP'
p335
S'VVVP'
tp336
F4
s(g20
S'DDPPPP'
tp337
F3
s(g118
S'ANCP'
tp338
F32
s(S'DP'
S'DCP'
tp339
F5
s(S'DP'
S'DVVVP'
tp340
F1
s(g59
S'AAANCP'
tp341
F1
s(g261
S'DAAVVP'
tp342
F1
s(S'NP'
S'NNVVVVP'
tp343
F2
s(S'DP'
S'DDDP'
tp344
F10
s(S'DP'
p345
S'DDADVPP'
tp346
F5
s(S'DP'
S'AADDPP'
tp347
F1
s(S'NP'
p348
S'ANNVVP'
tp349
F1
s(g327
S'ANVVP'
tp350
F2
s(g73
S'PPPNNNP'
tp351
F1
s(S'VP'
S'VVDP'
tp352
F25
s(g118
S'NPPP'
tp353
F14
s(g50
S'ADDDP'
tp354
F1
s(g345
S'DAVP'
tp355
F12
s(S'AP'
S'ACP'
tp356
F32
s(S'NP'
p357
S'NDDDDP'
tp358
F1
s(g73
S'PPNP'
tp359
F33
s(g98
S'NAADP'
tp360
F1
s(S'DP'
S'AADVP'
tp361
F1
s(g237
S'PPPNNNNP'
tp362
F1
s(S'CP'
S'CDDADVPP'
tp363
F3
s(S'CP'
S'CCCDDP'
tp364
F1
s(S'AP'
p365
S'ADP'
tp366
F71
s(g24
S'CCCDDDP'
tp367
F2
s(S'NP'
S'NAMMP'
tp368
F1
s(S'PP'
S'APMP'
tp369
F1
s(S'CP'
S'CADVDPP'
tp370
F2
s(S'NP'
p371
S'AAANNCP'
tp372
F1
s(S'DP'
S'DVVVVP'
tp373
F2
s(g291
S'APPAP'
tp374
F1
s(S'NP'
S'ADVADVADVANPP'
tp375
F1
s(S'AP'
S'AAADP'
tp376
F2
s(S'VP'
p377
S'VVAP'
tp378
F9
s(S'CP'
S'ADVACDP'
tp379
F2
s(S'NP'
S'AANNVVP'
tp380
F1
s(g205
S'AADDPPP'
tp381
F1
s(S'CP'
S'ADVADVCAADP'
tp382
F1
s(g91
S'NNNP'
tp383
F1
s(g118
S'NVP'
tp384
F106
s(g66
S'ADVADVADVPPAAVP'
tp385
F1
s(g178
S'PAAVP'
tp386
F2
s(g279
S'NAAPP'
tp387
F2
s(S'VP'
p388
S'VDDP'
tp389
F12
s(S'DP'
S'DDADVADVNNP'
tp390
F1
s(S'NP'
S'NADVADVVVP'
tp391
F1
s(g218
S'ANPP'
tp392
F21
s(g107
S'ADVPPDP'
tp393
F3
s(S'PP'
S'PPPPP'
tp394
F4
s(S'MP'
S'MVVPP'
tp395
F3
s(S'VP'
p396
S'AAVVNP'
tp397
F1
s(g50
S'ADVDPP'
tp398
F5
s(S'DP'
p399
S'DDDDDP'
tp400
F1
s(g357
S'ADVADVNPP'
tp401
F1
s(g348
S'NPPPP'
tp402
F2
s(S'DP'
S'ADDP'
tp403
F3
s(S'CP'
S'CAADPP'
tp404
F4
s(S'DP'
p405
S'DADVADVVP'
tp406
F1
s(S'NP'
S'NAACP'
tp407
F2
s(g73
S'PNNP'
tp408
F46
s(g276
S'VADVACP'
tp409
F2
s(S'CP'
S'CDADVADVADVPPP'
tp410
F1
s(S'PP'
S'APNNP'
tp411
F1
s(S'DP'
S'DDAAP'
tp412
F1
s(S'MP'
S'MMNP'
tp413
F2
s(S'DP'
S'AAADPP'
tp414
F3
s(S'NP'
S'NNNNMMP'
tp415
F1
s(g33
S'AVAP'
tp416
F1
s(S'MP'
S'MMVP'
tp417
F2
s(S'CP'
S'CADVDAAPP'
tp418
F1
s(g89
S'ADVNCP'
tp419
F9
s(g78
S'ADPP'
tp420
F37
s(g152
S'NAPPP'
tp421
F4
s(S'CP'
S'ACDP'
tp422
F15
s(g348
S'NNDP'
tp423
F9
s(g66
S'PADVADVADVPPP'
tp424
F1
s(S'MP'
S'MDNNP'
tp425
F2
s(S'CP'
S'CDADVPPP'
tp426
F1
s(g71
S'VAP'
tp427
F46
s(S'VP'
S'VVVVNP'
tp428
F2
s(S'MP'
S'MNVVP'
tp429
F1
s(g20
S'DDDPP'
tp430
F13
s(S'CP'
p431
S'ADVCDDP'
tp432
F1
s(S'NP'
S'AANNCP'
tp433
F2
s(g142
S'ADVPMP'
tp434
F1
s(S'CP'
S'CDAAPP'
tp435
F4
s(S'AP'
p436
S'ADVAAPP'
tp437
F1
s(g171
S'AAVVP'
tp438
F1
s(S'NP'
S'NNPPPPP'
tp439
F1
s(g405
S'DDDPPP'
tp440
F2
s(S'VP'
S'ADVAVDP'
tp441
F1
s(g185
S'ADVADVANCCP'
tp442
F1
s(S'CP'
S'CCADVADP'
tp443
F1
s(S'NP'
S'ANDDDP'
tp444
F1
s(S'VP'
S'ADVVVDP'
tp445
F3
s(g31
S'PPPVP'
tp446
F4
s(S'AP'
p447
S'AADDP'
tp448
F3
s(g96
S'VAANP'
tp449
F4
s(S'NP'
S'NADVADVCP'
tp450
F1
s(S'DP'
S'DAAAAPP'
tp451
F1
s(S'CP'
S'CCAAADP'
tp452
F2
s(S'MP'
p453
S'MMPPPP'
tp454
F1
s(S'MP'
S'MPNP'
tp455
F1
s(S'VP'
p456
S'VVAADP'
tp457
F1
s(S'AP'
S'AMMP'
tp458
F2
s(S'CP'
S'CCAADP'
tp459
F1
s(S'DP'
S'DDADVNP'
tp460
F1
s(g73
S'PANP'
tp461
F25
s(g9
S'AADNP'
tp462
F3
s(S'NP'
p463
S'ANNMP'
tp464
F1
s(S'DP'
p465
S'DADVADVNNP'
tp466
F1
s(S'PP'
S'AAPAAP'
tp467
F1
s(S'NP'
S'AANMP'
tp468
F1
s(S'AP'
S'AAVP'
tp469
F5
s(S'AP'
S'AVVP'
tp470
F2
s(g121
S'NDDP'
tp471
F9
s(S'AP'
S'ACCP'
tp472
F2
s(S'DP'
S'DDDADVPP'
tp473
F1
s(g118
S'NDP'
tp474
F55
s(g150
S'DDVP'
tp475
F12
s(g463
S'AANVP'
tp476
F2
s(g9
S'ADDVP'
tp477
F1
s(g396
S'VNNNP'
tp478
F1
s(S'VP'
S'ADVADVADVVVCP'
tp479
F1
s(S'PP'
p480
S'ADVPAP'
tp481
F2
s(S'PP'
p482
S'APAPPP'
tp483
F1
s(S'AP'
S'AADVADVADP'
tp484
F1
s(S'PP'
S'PADVMP'
tp485
F1
s(g114
S'NNPPP'
tp486
F3
s(S'CP'
S'ACADVDDP'
tp487
F1
s(S'PP'
S'PAADP'
tp488
F3
s(g121
S'ADVNNVP'
tp489
F2
s(S'VP'
S'VVMMMMP'
tp490
F1
s(S'VP'
S'VPPPP'
tp491
F1
s(S'NP'
S'ANNPP'
tp492
F1
s(S'VP'
S'VCCP'
tp493
F8
s(S'AP'
S'ADVACP'
tp494
F1
s(g480
S'AAPNNP'
tp495
F1
s(S'VP'
S'AVVDP'
tp496
F1
s(S'DP'
S'ADPPP'
tp497
F5
s(S'MP'
p498
S'MVCP'
tp499
F3
s(g24
S'CCDDP'
tp500
F11
s(S'NP'
S'NNADVVP'
tp501
F1
s(S'NP'
S'NNNVVP'
tp502
F1
s(g12
S'ADVADVADVVPP'
tp503
F1
s(S'DP'
S'DDADP'
tp504
F1
s(S'NP'
S'NAAP'
tp505
F3
s(g371
S'NAACCP'
tp506
F2
s(S'NP'
p507
S'NNVVP'
tp508
F5
s(S'DP'
S'ADADVNNP'
tp509
F1
s(g71
S'VVCP'
tp510
F10
s(g56
S'AANCP'
tp511
F4
s(g71
S'VDP'
tp512
F114
s(S'AP'
S'ADVAVVP'
tp513
F2
s(g114
S'NNDDP'
tp514
F3
s(g431
S'ADVADVADVADVCCDP'
tp515
F1
s(S'MP'
S'MNNPP'
tp516
F1
s(g175
S'ADVVPP'
tp517
F6
s(S'VP'
S'VNNP'
tp518
F18
s(g482
S'APADVNP'
tp519
F1
s(g436
S'AAAMP'
tp520
F1
s(g348
S'NADP'
tp521
F11
s(S'NP'
S'NNAADDP'
tp522
F1
s(g239
S'DDNP'
tp523
F22
s(S'CP'
S'ACADVDP'
tp524
F2
s(g348
S'NADVCP'
tp525
F4
s(S'DP'
S'DDNNP'
tp526
F6
s(g201
S'AAPPP'
tp527
F2
s(S'PP'
S'PADVADVVVP'
tp528
F1
s(S'NP'
S'ADVANVP'
tp529
F1
s(S'NP'
S'ADVNAAP'
tp530
F1
s(S'PP'
p531
S'APCP'
tp532
F1
s(S'NP'
p533
S'ADVADVNCP'
tp534
F2
s(g171
S'ADVADDP'
tp535
F1
s(g257
S'AADPP'
tp536
F8
s(S'VP'
S'VVVAAP'
tp537
F1
s(g531
S'APPNP'
tp538
F2
s(g59
S'NNNNPP'
tp539
F2
s(g38
S'VVVVCP'
tp540
F1
s(S'VP'
S'VVMMP'
tp541
F1
s(g146
S'NNNAMP'
tp542
F1
s(S'MP'
S'MVVNP'
tp543
F1
s(S'MP'
S'MMVVVP'
tp544
F1
s(S'MP'
S'AMMCP'
tp545
F1
s(g309
S'ACDDP'
tp546
F3
s(S'NP'
S'ADVADVNNCP'
tp547
F1
s(S'AP'
S'AAPP'
tp548
F4
s(g335
S'VVCCP'
tp549
F3
s(S'PP'
S'PCP'
tp550
F3
s(g114
S'NAPP'
tp551
F15
s(g14
S'APPVP'
tp552
F2
s(S'AP'
S'ADVADVADP'
tp553
F1
s(g56
S'NADVDP'
tp554
F1
s(g22
S'VVVCP'
tp555
F1
s(S'NP'
S'ANCCP'
tp556
F10
s(g533
S'AANPP'
tp557
F1
s(S'VP'
S'VDDDP'
tp558
F3
s(S'NP'
p559
S'NNMP'
tp560
F6
s(g9
S'DDDVP'
tp561
F3
s(S'CP'
p562
S'CADDPP'
tp563
F1
s(S'PP'
S'PAAAP'
tp564
F2
s(S'PP'
S'PPPAP'
tp565
F1
s(g169
S'CDDAPP'
tp566
F1
s(S'NP'
S'ADVANVVP'
tp567
F1
s(S'VP'
S'VADVADVANP'
tp568
F1
s(g66
S'PVP'
tp569
F103
s(S'VP'
S'VVVVAP'
tp570
F1
s(S'DP'
S'DAAAAPPP'
tp571
F1
s(S'NP'
S'ANNCP'
tp572
F2
s(S'PP'
S'PPADVPP'
tp573
F1
s(S'NP'
S'ADVANDP'
tp574
F1
s(S'VP'
p575
S'AAAAAVVDP'
tp576
F1
s(S'MP'
S'MMMMVP'
tp577
F1
s(g116
S'PPDDP'
tp578
F2
s(g126
S'AVCP'
tp579
F1
s(g20
S'DPP'
tp580
F173
s(S'DP'
p581
S'ADVVP'
tp582
F1
s(g132
S'ADVNVP'
tp583
F4
s(S'DP'
S'DDDVVP'
tp584
F2
s(g20
S'DDPP'
tp585
F54
s(g465
S'DDAVP'
tp586
F1
s(g45
S'DANP'
tp587
F42
s(S'AP'
S'ADVAMP'
tp588
F1
s(g295
S'ADVADVPPNP'
tp589
F1
s(g64
S'ADADVADVVVP'
tp590
F1
s(g114
S'NADVADP'
tp591
F1
s(g59
S'NAAVP'
tp592
F2
s(g43
S'PDDDP'
tp593
F5
s(S'AP'
S'ADVADVACP'
tp594
F1
s(S'AP'
S'ADVAVP'
tp595
F1
s(g453
S'MDNP'
tp596
F2
s(S'NP'
S'AANNDP'
tp597
F1
s(S'CP'
S'CDAAAAPPP'
tp598
F1
s(S'PP'
S'PADVPPP'
tp599
F1
s(g257
S'DCCP'
tp600
F2
s(S'DP'
S'AADDP'
tp601
F3
s(g76
S'AAAADPP'
tp602
F2
s(S'CP'
S'CCADVADVADVDDP'
tp603
F1
s(S'CP'
S'CDPPPPP'
tp604
F2
s(g456
S'VVDDP'
tp605
F4
s(S'PP'
S'PDDP'
tp606
F26
s(g218
S'NNVP'
tp607
F29
s(S'DP'
S'DADVADVADVANP'
tp608
F1
s(S'PP'
S'APAAP'
tp609
F1
s(g388
S'AVDP'
tp610
F20
s(S'NP'
p611
S'NNP'
tp612
F2
s(g45
S'ADVADPP'
tp613
F3
s(S'DP'
S'DAANP'
tp614
F4
s(g14
S'AAPAPPP'
tp615
F1
s(S'AP'
S'ADDP'
tp616
F9
s(S'PP'
p617
S'PPPPNNP'
tp618
F1
s(S'PP'
S'PNNNNP'
tp619
F2
s(g315
S'MDPPP'
tp620
F1
s(S'VP'
S'ADVVVAP'
tp621
F1
s(S'VP'
S'VADVADVMP'
tp622
F1
s(g20
S'DPPP'
tp623
F45
s(S'DP'
S'DAVVP'
tp624
F1
s(g167
S'VANNP'
tp625
F3
s(g507
S'NNAVP'
tp626
F1
s(S'CP'
p627
S'ADVADVCDDP'
tp628
F1
s(S'PP'
S'ADVPNP'
tp629
F2
s(g43
S'PPDP'
tp630
F21
s(S'MP'
S'MAVDP'
tp631
F1
s(g581
S'DADVADVCP'
tp632
F1
s(g289
S'PAANNP'
tp633
F2
s(g205
S'ADVDADVNP'
tp634
F1
s(g183
S'NAP'
tp635
F25
s(S'MP'
S'MADVVVADVAP'
tp636
F1
s(S'VP'
S'ADVVVADVAP'
tp637
F1
s(g399
S'DAAAAAVVP'
tp638
F1
s(g71
S'VVP'
tp639
F16
s(g581
S'DDAPP'
tp640
F2
s(g193
S'APNP'
tp641
F18
s(S'DP'
S'DADVADVADVADVAP'
tp642
F1
s(g9
S'DDVVP'
tp643
F2
s(g377
S'AVPPPP'
tp644
F1
s(g611
S'NAMP'
tp645
F2
s(S'MP'
S'MCCADP'
tp646
F1
s(g24
S'CDPP'
tp647
F155
s(S'AP'
S'ADDDP'
tp648
F1
s(S'CP'
S'ADVCADP'
tp649
F1
s(S'NP'
S'NNNNNNPPP'
tp650
F1
s(S'PP'
p651
S'AAAAPPPP'
tp652
F1
s(S'CP'
S'ADVCDP'
tp653
F5
s(g73
S'PPPNNNNNP'
tp654
F1
s(S'PP'
S'ADVPVVP'
tp655
F1
s(S'PP'
S'PADVADVDP'
tp656
F1
s(S'VP'
S'ADVADVVCP'
tp657
F1
s(g73
S'PPNNP'
tp658
F10
s(S'MP'
S'MPPNP'
tp659
F1
s(S'PP'
p660
S'PPMP'
tp661
F1
s(g575
S'VAADP'
tp662
F2
s(g559
S'NADVAP'
tp663
F1
s(S'VP'
S'AVDDP'
tp664
F2
s(S'DP'
S'DADVNP'
tp665
F5
s(S'DP'
S'DAP'
tp666
F11
s(S'CP'
S'CADPP'
tp667
F19
s(g61
S'ADVADVDVVP'
tp668
F1
s(S'DP'
S'ADAPPP'
tp669
F1
s(g20
S'DDPPP'
tp670
F14
s(g617
S'PPDDDP'
tp671
F1
s(S'VP'
S'AVPP'
tp672
F7
s(g249
S'DDNNNNP'
tp673
F1
s(S'NP'
S'ADVNAPP'
tp674
F2
s(g24
S'CDPPPP'
tp675
F1
s(S'DP'
p676
S'ADVDAAPP'
tp677
F1
s(S'PP'
S'PANNP'
tp678
F3
s(S'PP'
S'ADVADVADVPPNNP'
tp679
F1
s(g651
S'APPP'
tp680
F4
s(g297
S'DADVADVPP'
tp681
F1
s(g73
S'PPPNP'
tp682
F4
s(g118
S'NPP'
tp683
F112
s(g118
S'ANADVADVCCP'
tp684
F1
s(g165
S'PADVADVNP'
tp685
F4
s(g660
S'PPPPNP'
tp686
F1
s(S'AP'
S'AADP'
tp687
F19
s(S'MP'
S'MVAPP'
tp688
F1
s(S'VP'
p689
S'VADVPP'
tp690
F1
s(g205
S'ADVDANP'
tp691
F1
s(g244
S'ADVPVP'
tp692
F6
s(S'NP'
S'NADVADVADVVVP'
tp693
F1
s(g676
S'ADMP'
tp694
F1
s(S'NP'
S'NNVVVP'
tp695
F1
s(g689
S'ADVVANP'
tp696
F1
s(S'PP'
S'ADVPDP'
tp697
F4
s(g43
S'PPPVVP'
tp698
F1
s(S'PP'
S'PPDDDDP'
tp699
F1
s(g118
S'NCP'
tp700
F118
s(S'CP'
S'CADVDPPP'
tp701
F2
s(S'VP'
S'ADVVVPP'
tp702
F1
s(g59
S'NNNADP'
tp703
F1
s(S'AP'
S'AAAP'
tp704
F2
s(g5
S'AAMP'
tp705
F1
s(S'NP'
S'ANNADVADVCP'
tp706
F1
s(S'DP'
S'AADADVPP'
tp707
F1
s(g396
S'AAVVDP'
tp708
F1
s(g498
S'MVCCP'
tp709
F1
s(S'DP'
S'DADVNNP'
tp710
F1
s(g293
S'NNCCP'
tp711
F6
s(g110
S'MNVP'
tp712
F1
s(g59
S'AANAP'
tp713
F2
s(g24
S'ADVADVCCDP'
tp714
F1
s(S'NP'
S'AANCCP'
tp715
F1
s(S'PP'
S'PADVADVAP'
tp716
F1
s(g323
S'VAPP'
tp717
F8
s(S'MP'
S'MPPNNP'
tp718
F1
s(S'VP'
S'ADVVDP'
tp719
F2
s(S'AP'
S'AADVDP'
tp720
F1
s(S'DP'
S'DADVPP'
tp721
F6
s(S'AP'
S'AMP'
tp722
F2
s(g83
S'CCADP'
tp723
F4
s(S'NP'
S'ADVNNCP'
tp724
F2
s(S'DP'
S'ADVDAP'
tp725
F1
s(g118
S'NNNPPP'
tp726
F2
s(g447
S'ADVAPP'
tp727
F5
s(S'AP'
S'AADVADVAVP'
tp728
F1
s(g562
S'AACDP'
tp729
F2
s(S'CP'
S'CCDDDP'
tp730
F3
s(S'DP'
S'ADVDPPP'
tp731
F2
s(g78
S'DVP'
tp732
F99
s(S'NP'
S'ADVNPP'
tp733
F2
s(g118
S'NNCCCP'
tp734
F1
s(g365
S'AVP'
tp735
F21
s(S'NP'
S'NADVVP'
tp736
F6
s(S'CP'
S'CAAAADPP'
tp737
F1
s(S'NP'
S'NAAACCP'
tp738
F1
s(S'AP'
S'ADVADVADVADVAVP'
tp739
F1
s(S'VP'
S'VVVAPP'
tp740
F1
s(S'NP'
S'ADVNMP'
tp741
F1
s(g611
S'NNAP'
tp742
F5
s(S'NP'
S'NNADVPPP'
tp743
F1
s(g73
S'PPANP'
tp744
F3
s(g627
S'CDADVPP'
tp745
F4
s(g377
S'VNP'
tp746
F83
s(S'VP'
S'VANP'
tp747
F8
s(S'VP'
S'VADVAP'
tp748
F8
s(g208
S'PPADVNP'
tp749
F2
s(g227
S'DDDDVP'
tp750
F2
s(g224
S'ADVADVVVDP'
tp751
F1
s.