ccollections
defaultdict
p1
(c__builtin__
float
p2
tRp3
(S'CP'
S'CAAADPP'
tp4
F1
s(S'DP'
S'ADDPP'
tp5
F1
s(S'DP'
S'DDAP'
tp6
F2
s(S'VP'
S'ADVVVNP'
tp7
F1
s(S'NP'
S'ADVANADVVP'
tp8
F1
s(S'NP'
S'NADDP'
tp9
F1
s(S'AP'
S'AVVVP'
tp10
F2
s(S'PP'
S'ADVADVPAP'
tp11
F1
s(S'PP'
p12
S'PAPP'
tp13
F8
s(S'PP'
p14
S'PADVNP'
tp15
F15
s(S'DP'
p16
S'DNP'
tp17
F185
s(S'NP'
p18
S'ADVNDP'
tp19
F1
s(S'PP'
S'AAPDDP'
tp20
F1
s(S'CP'
p21
S'CDPPP'
tp22
F34
s(S'VP'
S'VADP'
tp23
F11
s(S'DP'
p24
S'DAAP'
tp25
F4
s(S'PP'
p26
S'APPDP'
tp27
F1
s(S'DP'
S'ADNNP'
tp28
F2
s(S'VP'
p29
S'ADVVNP'
tp30
F11
s(S'NP'
S'ADVNADVACP'
tp31
F1
s(S'MP'
p32
S'MVDP'
tp33
F18
s(S'PP'
S'PADVANP'
tp34
F3
s(S'PP'
p35
S'PPPP'
tp36
F15
s(S'DP'
p37
S'DDDNP'
tp38
F7
s(S'MP'
S'AMCP'
tp39
F1
s(S'VP'
S'VACP'
tp40
F1
s(S'PP'
p41
S'PPAAP'
tp42
F3
s(S'DP'
S'DADVVP'
tp43
F8
s(S'AP'
S'AADVPP'
tp44
F2
s(S'NP'
p45
S'NDDDP'
tp46
F1
s(S'NP'
p47
S'NCCCP'
tp48
F5
s(S'VP'
p49
S'VCP'
tp50
F52
s(S'NP'
p51
S'NMMP'
tp52
F2
s(S'VP'
p53
S'ADVVAAP'
tp54
F1
s(S'NP'
p55
S'AAAANPP'
tp56
F1
s(S'DP'
p57
S'DDDNNP'
tp58
F3
s(S'PP'
S'ADVPADP'
tp59
F1
s(S'PP'
p60
S'PAP'
tp61
F44
s(S'MP'
p62
S'MMVVP'
tp63
F1
s(S'VP'
S'VADVNP'
tp64
F1
s(S'PP'
p65
S'APVVP'
tp66
F2
s(S'CP'
S'CADPPPP'
tp67
F1
s(S'PP'
p68
S'PNP'
tp69
F154
s(g16
S'DDP'
tp70
F39
s(S'PP'
S'PPMMP'
tp71
F1
s(S'NP'
p72
S'NNNPP'
tp73
F6
s(S'NP'
p74
S'NNDP'
tp75
F16
s(S'MP'
S'MCDP'
tp76
F1
s(S'DP'
p77
S'DDDDPPPP'
tp78
F1
s(S'VP'
p79
S'ADVADVVVCP'
tp80
F1
s(S'NP'
p81
S'NMP'
tp82
F38
s(S'NP'
S'ADVNCCP'
tp83
F2
s(S'NP'
p84
S'ADVNAPP'
tp85
F1
s(S'VP'
p86
S'VAAADP'
tp87
F1
s(g60
S'PDP'
tp88
F163
s(S'CP'
p89
S'CCADVADVDP'
tp90
F1
s(S'NP'
p91
S'ADVNVVP'
tp92
F2
s(S'CP'
S'CDADVADVPPP'
tp93
F1
s(S'VP'
S'AVAAP'
tp94
F1
s(S'PP'
S'PADVPP'
tp95
F2
s(S'VP'
p96
S'AAVPP'
tp97
F1
s(S'VP'
p98
S'VVADVNP'
tp99
F1
s(S'VP'
S'VVDDP'
tp100
F3
s(S'NP'
S'ANVVVVP'
tp101
F1
s(S'DP'
p102
S'DPPPP'
tp103
F4
s(S'DP'
p104
S'DDANP'
tp105
F4
s(S'PP'
S'PADVADP'
tp106
F1
s(g81
S'NACP'
tp107
F12
s(S'AP'
S'ADVAVP'
tp108
F2
s(S'NP'
p109
S'NCCP'
tp110
F33
s(S'AP'
S'ADVAVVVP'
tp111
F1
s(S'NP'
p112
S'NNCP'
tp113
F33
s(S'NP'
S'ANADVADVVVP'
tp114
F1
s(S'DP'
p115
S'DDDDP'
tp116
F1
s(S'VP'
p117
S'AVNP'
tp118
F8
s(S'VP'
p119
S'VVADP'
tp120
F1
s(S'MP'
S'MVVVADVAP'
tp121
F1
s(g35
S'ADVPVVP'
tp122
F1
s(S'MP'
p123
S'MVVNP'
tp124
F1
s(g29
S'ADVADVAVNP'
tp125
F1
s(S'NP'
S'ADVADVADVNMP'
tp126
F1
s(g123
S'MVAPP'
tp127
F1
s(S'PP'
S'ADVAPVP'
tp128
F1
s(g112
S'NCCCCP'
tp129
F2
s(S'CP'
S'CCCDP'
tp130
F7
s(g29
S'ADVVAP'
tp131
F3
s(g35
S'APDP'
tp132
F32
s(g89
S'ACDDP'
tp133
F1
s(S'AP'
S'AADVCP'
tp134
F3
s(S'VP'
S'VVANP'
tp135
F2
s(S'PP'
S'ADVPNNP'
tp136
F1
s(S'VP'
p137
S'ADVVVP'
tp138
F1
s(S'MP'
p139
S'MADVVNP'
tp140
F1
s(S'NP'
p141
S'ADVANCP'
tp142
F1
s(g24
S'DNNP'
tp143
F44
s(S'DP'
p144
S'DPPPPP'
tp145
F5
s(S'CP'
S'CDDPPPP'
tp146
F2
s(S'CP'
p147
S'CCADVDP'
tp148
F5
s(S'VP'
S'AAVDDP'
tp149
F1
s(S'NP'
S'NNNVP'
tp150
F4
s(S'NP'
S'NADVADVADVADVADVVVP'
tp151
F1
s(S'PP'
p152
S'PPNNNNP'
tp153
F1
s(S'PP'
p154
S'PADVVP'
tp155
F8
s(S'PP'
S'APAP'
tp156
F3
s(S'PP'
p157
S'PPADVAPP'
tp158
F1
s(S'AP'
S'APP'
tp159
F27
s(S'AP'
S'ACCCP'
tp160
F1
s(S'NP'
p161
S'NADVMP'
tp162
F2
s(S'AP'
S'AAP'
tp163
F3
s(S'CP'
p164
S'CADVADPP'
tp165
F1
s(S'NP'
p166
S'ADVANPP'
tp167
F2
s(S'CP'
S'CDDDDPP'
tp168
F3
s(S'PP'
p169
S'PAANP'
tp170
F4
s(S'VP'
S'VADVADVCP'
tp171
F1
s(S'PP'
S'PPPDDDP'
tp172
F1
s(g51
S'ANVP'
tp173
F17
s(g137
S'VAACP'
tp174
F1
s(S'MP'
p175
S'MVNP'
tp176
F8
s(S'CP'
S'CDDDDPPPP'
tp177
F1
s(S'DP'
S'ADVADVDDP'
tp178
F1
s(S'AP'
S'ADVAADP'
tp179
F1
s(g12
S'PAVP'
tp180
F11
s(S'MP'
S'ADVMVP'
tp181
F1
s(S'VP'
S'ADVVMP'
tp182
F1
s(S'VP'
S'VVVPP'
tp183
F2
s(S'AP'
S'ADVACCP'
tp184
F2
s(S'DP'
p185
S'DADP'
tp186
F6
s(S'DP'
p187
S'DADVADVPPP'
tp188
F1
s(S'AP'
S'ADVADP'
tp189
F3
s(g89
S'ADVADVCDP'
tp190
F1
s(S'VP'
S'VVADVPP'
tp191
F1
s(g157
S'APDDP'
tp192
F1
s(S'PP'
S'PPPPDP'
tp193
F1
s(S'NP'
S'ADVNAP'
tp194
F1
s(S'VP'
S'ADVADVADVADVADVVVDP'
tp195
F1
s(g12
S'APVP'
tp196
F12
s(S'VP'
p197
S'VVNP'
tp198
F12
s(S'PP'
S'PPPNNP'
tp199
F1
s(S'PP'
p200
S'PPVP'
tp201
F17
s(g49
S'VADVDP'
tp202
F7
s(S'VP'
p203
S'VAAP'
tp204
F9
s(S'DP'
p205
S'ADVDDANP'
tp206
F1
s(g161
S'ANDP'
tp207
F6
s(g18
S'NVVP'
tp208
F37
s(S'PP'
p209
S'AAPVP'
tp210
F1
s(g49
S'VMP'
tp211
F3
s(S'NP'
p212
S'ANPPPP'
tp213
F1
s(g119
S'VVNNP'
tp214
F4
s(g147
S'CDAPP'
tp215
F23
s(S'DP'
S'DAMP'
tp216
F1
s(S'PP'
S'PPPVVVVVP'
tp217
F1
s(g37
S'ADNP'
tp218
F13
s(S'PP'
p219
S'PADP'
tp220
F14
s(g98
S'VVVDDP'
tp221
F1
s(S'DP'
p222
S'DAPP'
tp223
F35
s(S'VP'
S'AVVP'
tp224
F1
s(S'NP'
S'ADVADVNNAVVP'
tp225
F1
s(S'VP'
S'VADVAAP'
tp226
F1
s(S'VP'
p227
S'ADVADVVDP'
tp228
F3
s(g86
S'AVVNP'
tp229
F1
s(S'PP'
p230
S'PPPDP'
tp231
F4
s(S'AP'
S'AAVVP'
tp232
F1
s(S'MP'
S'ADVMMMVVP'
tp233
F1
s(g77
S'DAAANP'
tp234
F1
s(g144
S'DADVANP'
tp235
F3
s(g55
S'ANADVVVP'
tp236
F1
s(S'DP'
p237
S'ADVDNP'
tp238
F9
s(S'VP'
S'VVPP'
tp239
F29
s(S'CP'
S'AACDDP'
tp240
F1
s(S'MP'
S'MVPP'
tp241
F8
s(g237
S'ADVP'
tp242
F6
s(S'MP'
S'MVADP'
tp243
F1
s(S'CP'
S'CDDPPP'
tp244
F6
s(g139
S'ADVMVVP'
tp245
F1
s(S'NP'
p246
S'NNPP'
tp247
F10
s(S'MP'
S'MVVDP'
tp248
F4
s(S'DP'
S'DADVPPP'
tp249
F5
s(S'PP'
p250
S'PPVVP'
tp251
F5
s(g185
S'DNNNP'
tp252
F7
s(S'DP'
S'ADVDDVP'
tp253
F1
s(S'PP'
p254
S'PADVADVVP'
tp255
F1
s(S'VP'
S'VADVDDP'
tp256
F1
s(S'PP'
p257
S'PMMP'
tp258
F3
s(g154
S'PVVVP'
tp259
F3
s(g12
S'PMP'
tp260
F5
s(g91
S'ADVADVNNPPP'
tp261
F1
s(S'CP'
S'CCDP'
tp262
F53
s(S'NP'
p263
S'ADVNNDP'
tp264
F1
s(g175
S'AMVP'
tp265
F4
s(g197
S'VPPP'
tp266
F14
s(S'DP'
S'AADDPP'
tp267
F1
s(S'NP'
p268
S'NVVVP'
tp269
F3
s(S'CP'
S'CDDDPP'
tp270
F2
s(S'CP'
S'CDADVADVPP'
tp271
F2
s(S'VP'
p272
S'VVVDP'
tp273
F5
s(S'PP'
S'PNNNP'
tp274
F2
s(S'CP'
p275
S'CCCCDP'
tp276
F2
s(S'VP'
S'VADVADVADVDDP'
tp277
F1
s(S'PP'
S'APADVNNP'
tp278
F1
s(g72
S'NPP'
tp279
F150
s(g79
S'VVMP'
tp280
F1
s(g60
S'PPP'
tp281
F74
s(g51
S'NAVP'
tp282
F10
s(S'PP'
S'PADVAP'
tp283
F2
s(S'VP'
p284
S'ADVVAPP'
tp285
F1
s(g12
S'PADDP'
tp286
F2
s(S'DP'
p287
S'ADVDVP'
tp288
F3
s(S'PP'
S'PPADVADVNP'
tp289
F1
s(S'NP'
p290
S'NADVVVP'
tp291
F3
s(S'DP'
S'ADVADVDNNP'
tp292
F1
s(S'NP'
p293
S'NNDDP'
tp294
F1
s(S'DP'
p295
S'ADVADVDNP'
tp296
F1
s(S'VP'
S'VPP'
tp297
F98
s(S'CP'
S'ADVCCDP'
tp298
F3
s(S'DP'
S'ADVDDNP'
tp299
F1
s(S'NP'
S'NNNCP'
tp300
F6
s(g12
S'PADVDP'
tp301
F5
s(S'CP'
S'CDADVAPP'
tp302
F1
s(g77
S'AAADDNNP'
tp303
F1
s(g254
S'PADVAAP'
tp304
F1
s(g275
S'CDDPP'
tp305
F28
s(S'DP'
p306
S'DAAPP'
tp307
F2
s(g60
S'PVVP'
tp308
F25
s(g164
S'CADPPP'
tp309
F5
s(S'AP'
p310
S'AACP'
tp311
F7
s(S'VP'
p312
S'ADVVCP'
tp313
F7
s(S'PP'
p314
S'PPNNNP'
tp315
F3
s(S'VP'
S'VVPPP'
tp316
F4
s(g161
S'ADVNAMP'
tp317
F1
s(S'MP'
S'MVPPP'
tp318
F1
s(g237
S'DVVP'
tp319
F20
s(g250
S'PADVAVP'
tp320
F1
s(S'VP'
S'VVVADVAP'
tp321
F1
s(S'NP'
S'ANMP'
tp322
F5
s(g41
S'PPAP'
tp323
F6
s(S'PP'
p324
S'ADVPPP'
tp325
F2
s(S'NP'
S'ADVANVVP'
tp326
F1
s(S'VP'
p327
S'VVVP'
tp328
F2
s(S'CP'
p329
S'CADVDPP'
tp330
F13
s(g81
S'ANCP'
tp331
F26
s(g16
S'DCP'
tp332
F6
s(S'DP'
S'ADVADADVADVNP'
tp333
F1
s(S'PP'
S'ADVADVADVPPNP'
tp334
F1
s(g102
S'DDDP'
tp335
F8
s(S'NP'
p336
S'ANNVVP'
tp337
F2
s(S'NP'
p338
S'ANVVP'
tp339
F4
s(S'DP'
p340
S'DDDNNNP'
tp341
F1
s(g109
S'NVVVVP'
tp342
F1
s(g109
S'NPPP'
tp343
F24
s(S'PP'
S'ADVADVPPDDP'
tp344
F1
s(S'DP'
S'ADDDP'
tp345
F1
s(S'AP'
S'APPP'
tp346
F2
s(g222
S'DAVP'
tp347
F6
s(S'NP'
S'NNNMP'
tp348
F1
s(S'AP'
S'ACP'
tp349
F36
s(g257
S'PPNP'
tp350
F37
s(g141
S'ADVADVNVP'
tp351
F1
s(S'DP'
S'ADVDAPP'
tp352
F1
s(S'DP'
S'AADVP'
tp353
F2
s(S'VP'
S'VVVVNNP'
tp354
F1
s(S'AP'
p355
S'ADP'
tp356
F87
s(S'PP'
S'APMP'
tp357
F1
s(S'DP'
S'DDAVP'
tp358
F1
s(S'AP'
p359
S'AAADP'
tp360
F2
s(S'NP'
S'ANNVP'
tp361
F1
s(S'AP'
S'AAPPP'
tp362
F1
s(S'VP'
p363
S'VVAP'
tp364
F12
s(S'NP'
S'NNAPP'
tp365
F1
s(S'CP'
S'ADVACDP'
tp366
F2
s(g117
S'AAVCP'
tp367
F1
s(S'NP'
p368
S'NNADVCCP'
tp369
F1
s(S'NP'
S'NADVADVDP'
tp370
F1
s(S'PP'
S'PPPPNP'
tp371
F2
s(g81
S'NVP'
tp372
F164
s(g35
S'PPVVVP'
tp373
F3
s(S'PP'
p374
S'PAAVP'
tp375
F1
s(g212
S'NAAPP'
tp376
F1
s(S'PP'
S'PPPPVP'
tp377
F2
s(g117
S'VDDP'
tp378
F28
s(S'PP'
S'ADVPPPP'
tp379
F1
s(S'DP'
p380
S'DADVAPP'
tp381
F2
s(g45
S'NNADVACP'
tp382
F1
s(g287
S'AADDNP'
tp383
F1
s(g18
S'ANPP'
tp384
F20
s(S'PP'
p385
S'ADVPPDP'
tp386
F1
s(S'PP'
S'PPPPP'
tp387
F8
s(S'PP'
S'ADVADVPDP'
tp388
F1
s(S'MP'
S'MVVPP'
tp389
F1
s(S'PP'
S'PPPNP'
tp390
F2
s(S'NP'
S'ADVADVNPP'
tp391
F1
s(S'AP'
S'ADVADVAVP'
tp392
F1
s(S'DP'
S'ADDP'
tp393
F3
s(S'NP'
S'NADVAAP'
tp394
F1
s(g84
S'ADVNADP'
tp395
F1
s(g374
S'PPPPPPP'
tp396
F1
s(g329
S'CAADPP'
tp397
F7
s(S'NP'
S'NAACP'
tp398
F2
s(g68
S'PNNP'
tp399
F32
s(S'VP'
S'VADVACP'
tp400
F1
s(g219
S'APNNP'
tp401
F2
s(g338
S'ADVNADVMMMP'
tp402
F1
s(g336
S'NNNAPP'
tp403
F1
s(S'DP'
p404
S'AAADPP'
tp405
F2
s(S'MP'
p406
S'MMVP'
tp407
F6
s(S'NP'
S'ADVNCP'
tp408
F2
s(g310
S'AADP'
tp409
F20
s(g329
S'ACDP'
tp410
F15
s(g200
S'PAAP'
tp411
F7
s(S'AP'
S'ADVANP'
tp412
F2
s(S'NP'
S'NNACP'
tp413
F3
s(S'CP'
S'CDADVPPP'
tp414
F3
s(g272
S'VAP'
tp415
F73
s(g363
S'VVVVNP'
tp416
F2
s(g115
S'DDDPP'
tp417
F4
s(g359
S'ADVAAPP'
tp418
F2
s(S'MP'
S'MVVVDP'
tp419
F1
s(g32
S'MAVPP'
tp420
F2
s(S'NP'
S'NPPPP'
tp421
F1
s(S'VP'
S'ADVAVDP'
tp422
F2
s(S'DP'
S'ADAP'
tp423
F1
s(S'DP'
S'DADVDP'
tp424
F2
s(S'PP'
S'APADVVP'
tp425
F1
s(S'DP'
S'ADADVVP'
tp426
F1
s(g203
S'ADVVVDP'
tp427
F4
s(S'PP'
S'PPPVP'
tp428
F3
s(S'AP'
p429
S'AADDP'
tp430
F4
s(S'VP'
S'VAANP'
tp431
F6
s(g209
S'PPPNNNP'
tp432
F1
s(S'VP'
S'ADVADVADVADVVDP'
tp433
F1
s(g272
S'VVDP'
tp434
F41
s(g230
S'PPPDDP'
tp435
F1
s(S'DP'
S'DDADVNP'
tp436
F1
s(g60
S'PANP'
tp437
F17
s(S'DP'
S'AADNP'
tp438
F3
s(S'DP'
S'DADVADVNNP'
tp439
F1
s(g166
S'AANMP'
tp440
F1
s(S'AP'
p441
S'AAVP'
tp442
F6
s(S'AP'
S'AVVP'
tp443
F5
s(g45
S'NDDP'
tp444
F12
s(g96
S'VVADVDDP'
tp445
F1
s(g32
S'MVADVDP'
tp446
F1
s(S'AP'
S'ACCP'
tp447
F6
s(S'VP'
S'AVPPP'
tp448
F2
s(S'AP'
S'APPPP'
tp449
F1
s(g47
S'NDP'
tp450
F80
s(g41
S'PADVADVADVNP'
tp451
F1
s(g293
S'AAANVP'
tp452
F1
s(g62
S'MVAAP'
tp453
F1
s(g16
S'DDVP'
tp454
F21
s(S'VP'
S'VVVVVCP'
tp455
F1
s(g287
S'ADDVP'
tp456
F1
s(S'VP'
S'VNNNP'
tp457
F4
s(S'VP'
S'VADVADVPP'
tp458
F1
s(S'PP'
p459
S'APADVDP'
tp460
F1
s(g314
S'PCP'
tp461
F6
s(g268
S'NNPPP'
tp462
F1
s(S'PP'
S'PAADP'
tp463
F4
s(S'DP'
S'ADVADVADVDDNP'
tp464
F1
s(g157
S'ADVAPADVVP'
tp465
F1
s(S'VP'
p466
S'VPPPP'
tp467
F1
s(g117
S'VCCP'
tp468
F10
s(S'NP'
S'NNNDP'
tp469
F1
s(g441
S'ADVACP'
tp470
F5
s(g81
S'AANVVVP'
tp471
F1
s(S'DP'
S'DDADVVP'
tp472
F1
s(g161
S'NNVP'
tp473
F32
s(g406
S'MVCP'
tp474
F3
s(S'CP'
S'CCDDP'
tp475
F7
s(S'DP'
p476
S'DDADP'
tp477
F1
s(g18
S'NAAP'
tp478
F5
s(S'NP'
S'NNVVP'
tp479
F8
s(g26
S'PPADVPPP'
tp480
F1
s(S'NP'
S'NNNNVP'
tp481
F1
s(S'AP'
S'AAADVPP'
tp482
F1
s(S'PP'
p483
S'PADVADVPP'
tp484
F2
s(g74
S'AANCP'
tp485
F8
s(g272
S'VDP'
tp486
F169
s(S'VP'
S'VVDDDP'
tp487
F1
s(S'AP'
S'ADVAVVP'
tp488
F2
s(g41
S'APPP'
tp489
F7
s(g327
S'ADVVPP'
tp490
F6
s(g197
S'VNNP'
tp491
F23
s(g429
S'AADVDP'
tp492
F2
s(S'NP'
p493
S'NADP'
tp494
F1
s(g24
S'DDNP'
tp495
F39
s(S'CP'
S'ACADVDP'
tp496
F1
s(S'NP'
S'NADVCP'
tp497
F1
s(g185
S'DDNNP'
tp498
F4
s(S'PP'
S'PADVADVVVP'
tp499
F1
s(g493
S'ADVADVNCP'
tp500
F1
s(g16
S'AADPP'
tp501
F8
s(S'PP'
S'AAPDP'
tp502
F2
s(g380
S'ADVVP'
tp503
F1
s(g26
S'ADVPPAVP'
tp504
F1
s(S'AP'
S'AAPP'
tp505
F5
s(S'VP'
S'VVCCP'
tp506
F2
s(g154
S'ADVPANP'
tp507
F3
s(g18
S'NAPP'
tp508
F7
s(S'NP'
S'NADVDP'
tp509
F3
s(S'VP'
S'VVVCP'
tp510
F3
s(S'NP'
S'ANCCP'
tp511
F2
s(S'NP'
S'AANPP'
tp512
F3
s(g18
S'NNCCP'
tp513
F8
s(g47
S'NNMP'
tp514
F2
s(g77
S'DDDVP'
tp515
F2
s(S'NP'
S'NNADVCP'
tp516
F1
s(S'CP'
S'CADDPP'
tp517
F1
s(g385
S'ADVADVPNP'
tp518
F1
s(S'DP'
S'DADVAP'
tp519
F1
s(S'CP'
S'CDDAPP'
tp520
F1
s(g47
S'ANAP'
tp521
F3
s(S'MP'
p522
S'MVAP'
tp523
F5
s(g314
S'PVP'
tp524
F149
s(g522
S'MVDDDP'
tp525
F1
s(S'MP'
p526
S'MADVVVDP'
tp527
F1
s(S'MP'
S'MADVADVVCP'
tp528
F1
s(S'DP'
S'DVVVP'
tp529
F3
s(S'PP'
p530
S'PPADVPP'
tp531
F1
s(g169
S'PPDDP'
tp532
F6
s(g312
S'AVCP'
tp533
F5
s(g45
S'NADVADVAP'
tp534
F1
s(g368
S'ADVNNPPP'
tp535
F1
s(S'DP'
p536
S'DPP'
tp537
F196
s(S'NP'
S'ADVNVP'
tp538
F7
s(g536
S'DDPP'
tp539
F44
s(g237
S'DANP'
tp540
F43
s(S'NP'
S'NADVPP'
tp541
F1
s(S'VP'
S'AVAPPP'
tp542
F1
s(S'NP'
S'NADVADP'
tp543
F1
s(S'NP'
S'NAAVP'
tp544
F1
s(S'PP'
p545
S'PDDDP'
tp546
F2
s(S'VP'
S'VADVCP'
tp547
F2
s(S'NP'
S'NNNNAP'
tp548
F1
s(S'NP'
S'NNNNCP'
tp549
F2
s(S'NP'
S'NADVCCP'
tp550
F2
s(g185
S'DADVPP'
tp551
F12
s(g187
S'ADDPPP'
tp552
F1
s(S'NP'
S'ADVNMMP'
tp553
F1
s(S'DP'
S'DCCP'
tp554
F3
s(g14
S'ADVADVPPP'
tp555
F3
s(S'CP'
S'CDPPPPP'
tp556
F4
s(S'MP'
S'MADVVDP'
tp557
F4
s(S'DP'
S'DDADVNNP'
tp558
F1
s(g284
S'VVVAP'
tp559
F1
s(g86
S'VVADVADVNNP'
tp560
F1
s(g60
S'PDDP'
tp561
F35
s(g526
S'MVDDP'
tp562
F1
s(S'PP'
S'PCCP'
tp563
F2
s(g230
S'ADVAPNP'
tp564
F1
s(S'DP'
p565
S'ADPPP'
tp566
F6
s(S'NP'
S'NADVADVVVP'
tp567
F2
s(g197
S'AVDP'
tp568
F9
s(g45
S'NNP'
tp569
F1
s(S'DP'
S'ADVADPP'
tp570
F2
s(g117
S'VAADDP'
tp571
F1
s(g16
S'DAANP'
tp572
F5
s(S'AP'
p573
S'ADDP'
tp574
F9
s(S'PP'
S'PNNNNP'
tp575
F1
s(g26
S'ADVPPNP'
tp576
F3
s(S'CP'
S'CADVADVDPP'
tp577
F2
s(S'DP'
S'DPPP'
tp578
F53
s(g466
S'VANNP'
tp579
F1
s(S'NP'
S'NNAVP'
tp580
F1
s(g57
S'DDADVADVNP'
tp581
F1
s(g169
S'ADVPNP'
tp582
F5
s(g545
S'PPDP'
tp583
F32
s(S'PP'
S'ADVAPNNNP'
tp584
F1
s(S'MP'
S'AMADVVP'
tp585
F1
s(S'VP'
S'VAAADDP'
tp586
F1
s(S'MP'
S'MVVAP'
tp587
F1
s(S'DP'
S'DDCP'
tp588
F2
s(S'CP'
S'CADADVADVPP'
tp589
F1
s(g65
S'PPADVDDP'
tp590
F1
s(g47
S'NAP'
tp591
F30
s(g137
S'VAAAP'
tp592
F1
s(g72
S'AAAAANVP'
tp593
F1
s(g272
S'VVP'
tp594
F21
s(g287
S'DDAPP'
tp595
F2
s(g483
S'ADVADVPVP'
tp596
F1
s(g35
S'APNP'
tp597
F8
s(g29
S'VVVNNP'
tp598
F2
s(g404
S'DDVVP'
tp599
F3
s(S'PP'
S'ADVPADVNNP'
tp600
F1
s(S'VP'
S'VVVNP'
tp601
F4
s(g522
S'MAAVCP'
tp602
F1
s(g109
S'NAMP'
tp603
F2
s(S'MP'
S'MVNNP'
tp604
F1
s(S'VP'
S'VVCP'
tp605
F13
s(g21
S'CDPP'
tp606
F168
s(S'AP'
S'ADDDP'
tp607
F1
s(g306
S'ADVDVVP'
tp608
F1
s(S'DP'
S'ADADVADVPP'
tp609
F1
s(S'CP'
S'ADVCDP'
tp610
F6
s(S'PP'
S'PADVADVDP'
tp611
F2
s(g53
S'ADVADVVCP'
tp612
F1
s(g227
S'VADVADVDP'
tp613
F1
s(g154
S'PPNNP'
tp614
F6
s(g12
S'ADVPAVP'
tp615
F2
s(S'PP'
p616
S'PPMP'
tp617
F1
s(S'CP'
S'CAADDPP'
tp618
F1
s(g340
S'ADVADVDPP'
tp619
F4
s(S'NP'
S'ADVNVVVP'
tp620
F1
s(S'NP'
S'NADVAP'
tp621
F1
s(g287
S'DADVNP'
tp622
F8
s(S'DP'
S'DDCCP'
tp623
F1
s(g565
S'DAP'
tp624
F30
s(S'MP'
S'MCADP'
tp625
F1
s(S'CP'
S'CADPP'
tp626
F18
s(S'NP'
S'NADVAVP'
tp627
F1
s(S'MP'
S'MADVADVVDP'
tp628
F1
s(g459
S'PPDDDP'
tp629
F2
s(g49
S'AVPP'
tp630
F9
s(g295
S'DDNNNNP'
tp631
F1
s(S'CP'
S'CDPPPP'
tp632
F1
s(g459
S'PANNP'
tp633
F2
s(g263
S'ADVANMP'
tp634
F1
s(S'AP'
S'AAAPP'
tp635
F2
s(S'DP'
S'ADPPPP'
tp636
F1
s(g57
S'DADVADVPP'
tp637
F4
s(g295
S'DMP'
tp638
F2
s(S'CP'
S'CCADP'
tp639
F1
s(g16
S'ADVDPP'
tp640
F21
s(g246
S'NADVAPP'
tp641
F1
s(g12
S'APADVPP'
tp642
F1
s(g152
S'PPAANP'
tp643
F1
s(g37
S'ADPP'
tp644
F28
s(S'NP'
S'NNADVVVP'
tp645
F1
s(g363
S'VADVPP'
tp646
F2
s(g476
S'ADVDANP'
tp647
F1
s(S'PP'
S'PVVVVP'
tp648
F1
s(g530
S'ADVPVP'
tp649
F4
s(g104
S'DDDDPP'
tp650
F3
s(g117
S'ADVVANP'
tp651
F1
s(g35
S'PAMP'
tp652
F2
s(g324
S'ADVPDP'
tp653
F3
s(S'NP'
S'ANNPP'
tp654
F1
s(g72
S'NCP'
tp655
F143
s(S'VP'
S'ADVVVPP'
tp656
F2
s(g616
S'PPPAPP'
tp657
F1
s(g290
S'ADVANDP'
tp658
F1
s(S'AP'
S'AAAP'
tp659
F1
s(g96
S'VAADP'
tp660
F2
s(S'NP'
S'AANDP'
tp661
F1
s(g205
S'DADVNNP'
tp662
F3
s(g117
S'VDDDP'
tp663
F7
s(S'VP'
S'VADVADVADVPPP'
tp664
F1
s(g246
S'AANAP'
tp665
F2
s(g98
S'VAPP'
tp666
F12
s(S'NP'
S'NPPPPP'
tp667
F1
s(g272
S'ADVVDP'
tp668
F13
s(g102
S'DDPPPP'
tp669
F2
s(g573
S'AMP'
tp670
F2
s(g91
S'NADVADVADVADVVP'
tp671
F1
s(S'NP'
S'ADVNNCP'
tp672
F4
s(S'DP'
S'ADVDAP'
tp673
F1
s(S'AP'
S'ADVAPP'
tp674
F3
s(S'CP'
S'AACDP'
tp675
F2
s(g222
S'ADVDPPP'
tp676
F2
s(g16
S'DVP'
tp677
F122
s(S'NP'
S'ADVNPP'
tp678
F3
s(S'NP'
S'NNCCCP'
tp679
F1
s(g355
S'AVP'
tp680
F23
s(g84
S'NADVVP'
tp681
F15
s(S'VP'
S'ADVVPPP'
tp682
F1
s(S'DP'
S'DDPPP'
tp683
F10
s(S'NP'
S'ADVNMP'
tp684
F1
s(g109
S'NNAP'
tp685
F6
s(S'CP'
S'ADVACADVDP'
tp686
F1
s(S'CP'
S'CDADVPP'
tp687
F6
s(S'VP'
S'VNP'
tp688
F122
s(S'VP'
S'VANP'
tp689
F8
s(S'VP'
S'VADVAP'
tp690
F14
s(g154
S'PADVADVAVP'
tp691
F1
s(S'VP'
S'ADVADVVVDP'
tp692
F2
s.