ccollections
defaultdict
p1
(c__builtin__
float
p2
tRp3
(S'DP'
p4
S'DDPP'
tp5
F3
s(S'PP'
p6
S'PPPPP'
tp7
F1
s(S'NP'
p8
S'NNNPPPP'
tp9
F1
s(S'VP'
p10
S'VVNP'
tp11
F2
s(S'MP'
S'MVVPP'
tp12
F1
s(S'PP'
p13
S'PPPNNP'
tp14
F1
s(S'PP'
p15
S'PPVP'
tp16
F1
s(S'VP'
S'VAAP'
tp17
F1
s(S'PP'
p18
S'PAPP'
tp19
F1
s(S'CP'
p20
S'CAADPP'
tp21
F1
s(S'NP'
p22
S'NVVP'
tp23
F2
s(S'DP'
p24
S'DNP'
tp25
F6
s(S'VP'
p26
S'VMP'
tp27
F1
s(g8
S'AANNDP'
tp28
F1
s(S'MP'
p29
S'MMVP'
tp30
F1
s(g22
S'NNDP'
tp31
F2
s(S'DP'
p32
S'DAPP'
tp33
F2
s(g26
S'VAP'
tp34
F1
s(S'DP'
p35
S'DAANP'
tp36
F3
s(S'NP'
p37
S'AANMP'
tp38
F1
s(g29
S'MDAP'
tp39
F1
s(g4
S'DPPP'
tp40
F2
s(S'CP'
S'CAAAADPPP'
tp41
F1
s(S'VP'
p42
S'VCP'
tp43
F2
s(S'PP'
S'PPNNP'
tp44
F1
s(S'NP'
p45
S'NMMP'
tp46
F1
s(g4
S'ADADVPP'
tp47
F1
s(S'MP'
S'MVPP'
tp48
F1
s(S'VP'
S'VAANP'
tp49
F1
s(S'PP'
p50
S'PAP'
tp51
F3
s(S'VP'
S'VVPP'
tp52
F1
s(S'PP'
p53
S'PPDP'
tp54
F2
s(g8
S'NNPP'
tp55
F1
s(g13
S'PNP'
tp56
F8
s(g6
S'PPPDDP'
tp57
F1
s(S'DP'
p58
S'DDP'
tp59
F2
s(S'PP'
S'PAAP'
tp60
F1
s(g13
S'PAANNP'
tp61
F1
s(S'AP'
p62
S'AAVP'
tp63
F1
s(S'AP'
S'AVVP'
tp64
F1
s(S'CP'
S'CCDP'
tp65
F2
s(g8
S'NAP'
tp66
F1
s(S'VP'
S'VPPP'
tp67
F2
s(g8
S'NMP'
tp68
F2
s(S'PP'
p69
S'PPADVVP'
tp70
F1
s(g22
S'NDP'
tp71
F3
s(g13
S'PNNNP'
tp72
F1
s(g4
S'DVP'
tp73
F5
s(g42
S'VVP'
tp74
F2
s(S'DP'
S'DDVP'
tp75
F1
s(g13
S'PDP'
tp76
F4
s(S'AP'
S'AACCP'
tp77
F1
s(S'PP'
p78
S'APNP'
tp79
F1
s(g20
S'CADADVPP'
tp80
F1
s(g13
S'PPP'
tp81
F2
s(S'CP'
S'CCAAAADP'
tp82
F1
s(S'CP'
p83
S'CDPP'
tp84
F8
s(g53
S'PNNP'
tp85
F1
s(S'VP'
S'VCCP'
tp86
F1
s(S'DP'
S'DPPPP'
tp87
F1
s(g10
S'VPP'
tp88
F4
s(g18
S'PPPNNNNNP'
tp89
F1
s(g45
S'NNVP'
tp90
F1
s(g22
S'NNCP'
tp91
F3
s(g8
S'NCP'
tp92
F7
s(g20
S'CDDPP'
tp93
F3
s(g13
S'PVVP'
tp94
F1
s(g37
S'NNNNNCP'
tp95
F1
s(g50
S'PPAP'
tp96
F1
s(g42
S'VVCP'
tp97
F1
s(g4
S'DAP'
tp98
F2
s(g20
S'CADPP'
tp99
F1
s(S'NP'
S'AANCP'
tp100
F2
s(g42
S'VDP'
tp101
F6
s(g58
S'DVVP'
tp102
F1
s(S'DP'
S'DDAAAAAPPP'
tp103
F1
s(g50
S'ADVPPP'
tp104
F1
s(g26
S'VVVP'
tp105
F1
s(g83
S'CADVDPP'
tp106
F1
s(S'VP'
p107
S'ADVVAP'
tp108
F1
s(g58
S'DDNP'
tp109
F1
s(g15
S'APDP'
tp110
F2
s(S'NP'
S'NNNNDP'
tp111
F1
s(g24
S'DCP'
tp112
F1
s(g24
S'ADVDPP'
tp113
F1
s(g4
S'ADPP'
tp114
F1
s(g32
S'DDDP'
tp115
F1
s(g4
S'AADPP'
tp116
F1
s(g107
S'VVDP'
tp117
F1
s(g78
S'ADVPDP'
tp118
F1
s(g4
S'DNNP'
tp119
F5
s(S'AP'
p120
S'ACP'
tp121
F3
s(S'NP'
p122
S'NNCCP'
tp123
F1
s(g120
S'ADP'
tp124
F5
s(g62
S'APP'
tp125
F1
s(g122
S'AANVP'
tp126
F2
s(S'DP'
S'DADVPP'
tp127
F1
s(g35
S'AAAADPP'
tp128
F1
s(S'DP'
S'AAAADPPP'
tp129
F1
s(g18
S'PAANP'
tp130
F1
s(g13
S'PVP'
tp131
F5
s(S'MP'
S'MVNP'
tp132
F1
s(S'AP'
S'AVP'
tp133
F3
s(g32
S'DDPPP'
tp134
F1
s(g8
S'NPP'
tp135
F6
s(g22
S'NVP'
tp136
F3
s(g10
S'VNP'
tp137
F5
s(g26
S'VDDP'
tp138
F1
s(g69
S'PPDDP'
tp139
F1
s(g24
S'DPP'
tp140
F9
s.