ccollections
defaultdict
p1
(c__builtin__
float
p2
tRp3
(S'DP'
p4
S'DDPP'
tp5
F1
s(S'VP'
p6
S'VVPP'
tp7
F2
s(g6
S'VPP'
tp8
F2
s(S'NP'
S'ANPP'
tp9
F1
s(S'PP'
p10
S'PDDP'
tp11
F1
s(S'VP'
p12
S'VDP'
tp13
F3
s(S'DP'
p14
S'ADDPP'
tp15
F1
s(S'NP'
p16
S'NCP'
tp17
F2
s(S'CP'
p18
S'CDDPP'
tp19
F1
s(S'PP'
p20
S'PPNNNNP'
tp21
F1
s(S'MP'
p22
S'MNVP'
tp23
F2
s(S'NP'
p24
S'AAAANPPP'
tp25
F1
s(S'AP'
p26
S'ADP'
tp27
F2
s(g24
S'NVVP'
tp28
F2
s(g24
S'NAPP'
tp29
F1
s(S'AP'
p30
S'APP'
tp31
F1
s(g20
S'PNNP'
tp32
F1
s(g20
S'PPPDDP'
tp33
F1
s(S'PP'
p34
S'PPAP'
tp35
F1
s(g18
S'CDPPP'
tp36
F1
s(S'VP'
p37
S'VVVVPPPP'
tp38
F1
s(g10
S'PANP'
tp39
F1
s(g24
S'NNDP'
tp40
F2
s(g37
S'VAAP'
tp41
F1
s(g14
S'DDNNNNP'
tp42
F1
s(g10
S'PAP'
tp43
F1
s(S'CP'
S'CADDPP'
tp44
F1
s(g34
S'PNP'
tp45
F2
s(g22
S'ADVADVMNP'
tp46
F1
s(g16
S'NAP'
tp47
F2
s(g37
S'VNNP'
tp48
F1
s(S'NP'
p49
S'ANVP'
tp50
F1
s(g34
S'PADVADVMP'
tp51
F1
s(g10
S'PPPDP'
tp52
F1
s(g20
S'PVP'
tp53
F3
s(g16
S'NDP'
tp54
F2
s(g20
S'APDP'
tp55
F1
s(g4
S'DVP'
tp56
F2
s(g12
S'VVP'
tp57
F1
s(g4
S'DDVP'
tp58
F1
s(g34
S'PDP'
tp59
F3
s(g24
S'NNNNPPPP'
tp60
F1
s(S'DP'
p61
S'DDDP'
tp62
F1
s(g30
S'AADP'
tp63
F1
s(g49
S'NNAP'
tp64
F1
s(g61
S'DVVVVP'
tp65
F1
s(g16
S'NPP'
tp66
F3
s(g24
S'NNNNCP'
tp67
F1
s(g24
S'NVP'
tp68
F4
s(g26
S'ADDP'
tp69
F1
s(g20
S'PNNNNP'
tp70
F1
s(g6
S'VNP'
tp71
F4
s(g34
S'PCP'
tp72
F1
s(S'VP'
S'VANP'
tp73
F1
s(g18
S'CDPP'
tp74
F2
s(g37
S'VMP'
tp75
F1
s(g14
S'DNP'
tp76
F4
s(g4
S'DPP'
tp77
F2
s(g4
S'DPPP'
tp78
F1
s.