ccollections
defaultdict
p1
(c__builtin__
float
p2
tRp3
(S'AP'
S'AADVPPP'
tp4
F1
s(S'NP'
p5
S'AANDDP'
tp6
F1
s(S'DP'
S'DDMP'
tp7
F2
s(S'DP'
S'DDAP'
tp8
F3
s(S'VP'
S'ADVVVNP'
tp9
F5
s(S'CP'
S'CCDDDDP'
tp10
F1
s(S'VP'
S'VVVVP'
tp11
F2
s(S'DP'
S'DAANNP'
tp12
F1
s(S'AP'
S'AVVVP'
tp13
F1
s(S'VP'
S'VVADVVP'
tp14
F1
s(S'PP'
p15
S'PAPP'
tp16
F26
s(S'PP'
S'PADVNP'
tp17
F21
s(S'DP'
p18
S'DNP'
tp19
F720
s(S'NP'
p20
S'ADVNDP'
tp21
F2
s(S'PP'
S'AAPPNP'
tp22
F1
s(S'CP'
S'CDPPP'
tp23
F82
s(S'VP'
S'AVADVDDP'
tp24
F1
s(S'VP'
p25
S'VADP'
tp26
F26
s(S'VP'
S'ADVADVVAP'
tp27
F2
s(S'CP'
S'CDAAPPP'
tp28
F1
s(S'DP'
S'DAAP'
tp29
F7
s(S'PP'
S'PPAVP'
tp30
F2
s(S'CP'
S'CADVADVDPPP'
tp31
F1
s(S'VP'
S'ADVADVADVVVPP'
tp32
F2
s(S'DP'
S'ADNNP'
tp33
F6
s(S'VP'
S'ADVVNP'
tp34
F20
s(S'MP'
S'MVDP'
tp35
F46
s(S'PP'
p36
S'PADVANP'
tp37
F1
s(S'NP'
S'AANNPP'
tp38
F1
s(S'PP'
p39
S'PPPP'
tp40
F41
s(S'VP'
S'VVVVDDP'
tp41
F1
s(S'AP'
S'ADVAPPP'
tp42
F1
s(S'DP'
p43
S'DDDNP'
tp44
F2
s(g36
S'PAAANP'
tp45
F1
s(S'MP'
S'AMCP'
tp46
F1
s(S'VP'
p47
S'VACP'
tp48
F3
s(S'VP'
S'ADVADVAVADVPP'
tp49
F1
s(S'DP'
S'DADVVP'
tp50
F15
s(S'VP'
S'ADVVVANP'
tp51
F1
s(S'PP'
S'PADVNNP'
tp52
F5
s(S'AP'
S'AADVPP'
tp53
F1
s(S'NP'
p54
S'NADVACP'
tp55
F1
s(S'NP'
S'NDDDP'
tp56
F1
s(S'NP'
S'NADVVVP'
tp57
F26
s(S'CP'
S'CADVDAPP'
tp58
F1
s(S'VP'
p59
S'VCP'
tp60
F180
s(S'NP'
S'NMMP'
tp61
F5
s(S'PP'
S'PPVVP'
tp62
F4
s(S'DP'
S'ADVADVDDVVP'
tp63
F1
s(S'VP'
S'ADVVAAP'
tp64
F2
s(S'DP'
S'DDDNNP'
tp65
F1
s(S'PP'
S'PAP'
tp66
F182
s(S'MP'
S'MMVVP'
tp67
F1
s(S'DP'
S'DDDADVPP'
tp68
F1
s(S'VP'
S'VADVADVAP'
tp69
F4
s(S'PP'
S'ADVPPVP'
tp70
F2
s(g20
S'ANPPP'
tp71
F4
s(S'NP'
S'NNNACP'
tp72
F1
s(g39
S'PPADVDP'
tp73
F2
s(S'MP'
S'AMVP'
tp74
F2
s(S'PP'
p75
S'PNP'
tp76
F484
s(S'NP'
S'ADVADVADVNNCP'
tp77
F1
s(S'MP'
S'MADVCDP'
tp78
F1
s(S'DP'
p79
S'DDP'
tp80
F68
s(S'VP'
p81
S'ADVVDDP'
tp82
F2
s(S'NP'
S'NNNPP'
tp83
F4
s(S'VP'
S'VCCP'
tp84
F13
s(S'VP'
S'ADVVVDDP'
tp85
F3
s(S'PP'
S'PPPDDDDP'
tp86
F1
s(S'MP'
p87
S'MCDP'
tp88
F5
s(S'PP'
S'ADVADVPPDP'
tp89
F1
s(S'DP'
S'DADVDDP'
tp90
F1
s(S'AP'
S'ADVADVAVVP'
tp91
F1
s(S'NP'
p92
S'NMP'
tp93
F175
s(S'DP'
S'DDDDPP'
tp94
F3
s(S'VP'
S'VMMP'
tp95
F2
s(S'PP'
S'PDP'
tp96
F623
s(S'CP'
S'CDAAPP'
tp97
F5
s(S'NP'
S'ADVNVVP'
tp98
F2
s(S'MP'
S'MVVVVVADVADVVP'
tp99
F1
s(S'CP'
S'CDADVADVPPP'
tp100
F1
s(S'NP'
p101
S'NACCP'
tp102
F1
s(S'AP'
S'ANP'
tp103
F1
s(S'PP'
S'ADVPAAP'
tp104
F3
s(S'PP'
p105
S'PADVPP'
tp106
F6
s(S'VP'
S'AAVPP'
tp107
F2
s(S'VP'
S'VVADVNP'
tp108
F1
s(g101
S'NNNVP'
tp109
F8
s(S'NP'
p110
S'NNADVAPP'
tp111
F1
s(S'VP'
S'VADVAAP'
tp112
F1
s(S'CP'
S'CAADPP'
tp113
F2
s(S'DP'
S'DPPPP'
tp114
F18
s(S'DP'
S'DDANP'
tp115
F6
s(S'DP'
S'ADNNNP'
tp116
F1
s(S'VP'
p117
S'VVP'
tp118
F45
s(S'AP'
S'ADVAVP'
tp119
F7
s(g92
S'NCCP'
tp120
F123
s(S'DP'
S'DADVADVVVP'
tp121
F2
s(S'VP'
S'VVCCCP'
tp122
F1
s(S'NP'
p123
S'NNCP'
tp124
F58
s(S'DP'
p125
S'ADVDDPP'
tp126
F10
s(g110
S'NADVADVVP'
tp127
F4
s(S'VP'
S'ADVADVADVADVVVNP'
tp128
F1
s(S'DP'
S'DDDDP'
tp129
F2
s(S'DP'
S'DDAPP'
tp130
F6
s(S'VP'
p131
S'AVNP'
tp132
F12
s(S'VP'
S'VVADP'
tp133
F2
s(S'NP'
S'NADVADVPP'
tp134
F1
s(S'VP'
S'ADVADVADVVVDP'
tp135
F3
s(S'PP'
S'PADVADVADVADVDP'
tp136
F1
s(S'PP'
S'ADVAPDP'
tp137
F2
s(S'PP'
S'AAPNP'
tp138
F1
s(g81
S'VADVVP'
tp139
F9
s(S'MP'
S'MVPPP'
tp140
F3
s(S'NP'
S'ANADVVP'
tp141
F1
s(S'PP'
S'ADVPAPP'
tp142
F1
s(S'PP'
p143
S'ADVPPAAP'
tp144
F1
s(S'MP'
S'AMMVP'
tp145
F1
s(S'NP'
S'NCCCCP'
tp146
F3
s(S'CP'
S'CCCDP'
tp147
F13
s(S'VP'
S'ADVVAP'
tp148
F11
s(S'VP'
S'VCCCP'
tp149
F2
s(S'PP'
p150
S'PADVVVP'
tp151
F3
s(S'PP'
p152
S'APDP'
tp153
F58
s(S'VP'
S'ADVVNNP'
tp154
F3
s(S'AP'
p155
S'AADVCP'
tp156
F2
s(S'AP'
S'AVVVVP'
tp157
F1
s(S'MP'
p158
S'MVADVVP'
tp159
F1
s(S'VP'
S'VVANP'
tp160
F1
s(S'VP'
p161
S'VVVVDP'
tp162
F9
s(S'VP'
S'ADVADVVVDDP'
tp163
F1
s(S'DP'
S'DADVADVADVPP'
tp164
F3
s(S'MP'
S'MADVVNP'
tp165
F7
s(S'PP'
S'PAAP'
tp166
F26
s(S'NP'
p167
S'ADVANCP'
tp168
F5
s(S'DP'
S'DNNP'
tp169
F85
s(S'CP'
S'CADVDDPP'
tp170
F7
s(S'DP'
S'DPPPPP'
tp171
F5
s(S'CP'
S'CDDPPPP'
tp172
F1
s(S'CP'
S'CCADVDP'
tp173
F8
s(S'VP'
S'VVNNNP'
tp174
F1
s(S'DP'
S'ADVVVP'
tp175
F1
s(S'VP'
p176
S'VADVNNP'
tp177
F1
s(S'PP'
S'PPNNNNP'
tp178
F1
s(g143
S'PADVVP'
tp179
F12
s(S'MP'
S'MVVDDP'
tp180
F2
s(S'PP'
p181
S'APAP'
tp182
F4
s(S'AP'
S'APP'
tp183
F86
s(S'AP'
S'ACCCP'
tp184
F1
s(S'NP'
S'ADVADVNCCCP'
tp185
F1
s(S'AP'
S'AAP'
tp186
F5
s(S'VP'
S'VADVADVVP'
tp187
F1
s(S'CP'
S'CADVADPP'
tp188
F2
s(S'NP'
S'ADVNNNCP'
tp189
F1
s(S'NP'
p190
S'ADVANPP'
tp191
F2
s(S'VP'
S'VVVVPP'
tp192
F3
s(S'DP'
S'DAAVP'
tp193
F4
s(S'CP'
S'CDDDDPP'
tp194
F3
s(S'PP'
S'PAANP'
tp195
F6
s(S'VP'
S'VVVANP'
tp196
F1
s(S'NP'
S'ANVP'
tp197
F41
s(S'VP'
S'VAACP'
tp198
F1
s(S'MP'
S'MVNP'
tp199
F44
s(S'NP'
S'ANAAP'
tp200
F1
s(S'AP'
S'ADVAADP'
tp201
F2
s(S'DP'
S'DADVADVVP'
tp202
F1
s(S'PP'
S'PAVP'
tp203
F32
s(S'PP'
p204
S'ADVAPNNP'
tp205
F1
s(S'VP'
p206
S'ADVVMP'
tp207
F1
s(S'VP'
S'VVVPP'
tp208
F16
s(S'AP'
S'ADVACCP'
tp209
F6
s(S'DP'
p210
S'DADP'
tp211
F5
s(S'AP'
p212
S'ADVADP'
tp213
F8
s(S'CP'
S'ADVADVCDP'
tp214
F1
s(S'DP'
S'ADVDDP'
tp215
F1
s(S'PP'
S'APDDP'
tp216
F7
s(S'VP'
S'ADVADVVVNP'
tp217
F3
s(S'PP'
S'PPCP'
tp218
F2
s(g15
S'APVP'
tp219
F26
s(S'MP'
S'MNCP'
tp220
F1
s(S'VP'
p221
S'VVNP'
tp222
F72
s(S'PP'
S'ADVPPPP'
tp223
F1
s(S'PP'
S'PPVP'
tp224
F62
s(S'VP'
p225
S'VADVDP'
tp226
F5
s(S'MP'
S'MVVVPP'
tp227
F1
s(S'VP'
S'VVADVAP'
tp228
F3
s(S'VP'
S'VAAP'
tp229
F19
s(S'NP'
p230
S'ANDP'
tp231
F19
s(S'NP'
S'NVVP'
tp232
F151
s(S'PP'
S'AAPVP'
tp233
F1
s(S'PP'
S'PPADP'
tp234
F1
s(S'VP'
S'VMP'
tp235
F10
s(S'NP'
S'ANDDDDP'
tp236
F1
s(S'VP'
S'VVNNP'
tp237
F9
s(S'CP'
S'CDAPP'
tp238
F33
s(g176
S'VVAAP'
tp239
F1
s(S'MP'
S'MMMADVVP'
tp240
F1
s(S'DP'
p241
S'ADNP'
tp242
F29
s(S'MP'
S'ADVADVMVP'
tp243
F1
s(S'PP'
S'PADP'
tp244
F36
s(g25
S'ADVVVCP'
tp245
F9
s(S'DP'
S'DDDPPPP'
tp246
F1
s(S'DP'
p247
S'ADVADVDADVNNNP'
tp248
F1
s(S'DP'
S'ADVADVDVP'
tp249
F3
s(S'DP'
p250
S'DADVAP'
tp251
F5
s(S'VP'
S'VVVVVDP'
tp252
F1
s(S'DP'
S'DDADVDP'
tp253
F1
s(S'MP'
S'MCDDDP'
tp254
F1
s(S'DP'
p255
S'DAPP'
tp256
F68
s(g225
S'AVVP'
tp257
F3
s(S'MP'
S'MVVCP'
tp258
F3
s(g225
S'ADVADVVPP'
tp259
F12
s(S'VP'
S'VADVADVNP'
tp260
F2
s(S'NP'
S'NNNAVP'
tp261
F1
s(S'DP'
S'DDDDADVNNP'
tp262
F1
s(S'VP'
S'ADVADVVDP'
tp263
F4
s(S'AP'
S'AAAVP'
tp264
F1
s(S'PP'
p265
S'PPPDP'
tp266
F7
s(S'DP'
S'DAAPPP'
tp267
F1
s(S'PP'
S'AAAPDP'
tp268
F1
s(S'MP'
p269
S'MVVAP'
tp270
F7
s(g241
S'DADVANP'
tp271
F4
s(S'NP'
S'NANP'
tp272
F2
s(S'VP'
S'VAAPP'
tp273
F1
s(S'DP'
p274
S'ADVDNP'
tp275
F7
s(S'VP'
S'VVPP'
tp276
F83
s(S'VP'
S'VADVAPP'
tp277
F1
s(S'PP'
S'PAVVP'
tp278
F1
s(S'MP'
S'MVPP'
tp279
F35
s(S'DP'
p280
S'ADVP'
tp281
F10
s(S'CP'
S'CDDPPP'
tp282
F5
s(S'VP'
S'ADVADVADVVDP'
tp283
F3
s(S'NP'
p284
S'NNPP'
tp285
F37
s(S'DP'
S'DDDDNP'
tp286
F4
s(S'MP'
S'MVVDP'
tp287
F5
s(S'DP'
S'DADVPPP'
tp288
F8
s(S'MP'
S'MADVADVADVVDP'
tp289
F2
s(S'DP'
p290
S'AADADVVVP'
tp291
F1
s(g280
S'DNNNP'
tp292
F11
s(S'MP'
S'MVADVCP'
tp293
F1
s(S'DP'
S'ADVDDVP'
tp294
F5
s(S'NP'
S'ADVNNADVCP'
tp295
F1
s(S'VP'
p296
S'VADVADVPPP'
tp297
F1
s(S'PP'
S'PADVADVVP'
tp298
F3
s(S'NP'
S'ANAP'
tp299
F5
s(S'DP'
S'ADVADVADVADVDNP'
tp300
F1
s(g265
S'PMMP'
tp301
F4
s(g15
S'PVVVP'
tp302
F8
s(g152
S'PMP'
tp303
F40
s(S'DP'
S'ADVADVDPP'
tp304
F3
s(S'CP'
S'CCDP'
tp305
F166
s(S'NP'
S'ADVNNDP'
tp306
F2
s(S'DP'
S'ADVADVADVDPP'
tp307
F1
s(g221
S'VADVANP'
tp308
F5
s(S'PP'
S'PPNNNP'
tp309
F2
s(S'NP'
S'ADVADVADVNNVVP'
tp310
F1
s(S'NP'
S'NVVVP'
tp311
F41
s(S'CP'
S'CDDDPP'
tp312
F5
s(S'NP'
S'NNAMMP'
tp313
F1
s(S'CP'
S'CDADVADVPP'
tp314
F2
s(S'VP'
S'VVVDP'
tp315
F26
s(S'PP'
p316
S'PDDDDP'
tp317
F3
s(S'PP'
p318
S'PNNNP'
tp319
F6
s(S'CP'
S'CCCCDP'
tp320
F4
s(g54
S'ANMMP'
tp321
F1
s(S'PP'
S'PADVADVADVNNP'
tp322
F1
s(S'AP'
S'AACCP'
tp323
F4
s(S'VP'
S'VVMP'
tp324
F1
s(S'VP'
S'ADVVVDP'
tp325
F5
s(S'PP'
p326
S'PPP'
tp327
F200
s(S'NP'
p328
S'NAVP'
tp329
F35
s(g150
S'PADVAP'
tp330
F5
s(S'VP'
S'ADVVVCCCP'
tp331
F2
s(S'VP'
S'VVVVCCP'
tp332
F2
s(S'PP'
S'APVVVP'
tp333
F1
s(S'NP'
S'ANADVCCP'
tp334
F1
s(S'DP'
S'ADVDVP'
tp335
F6
s(S'NP'
S'NCCCP'
tp336
F9
s(S'DP'
S'DADVADVPPP'
tp337
F1
s(S'AP'
S'AADVVP'
tp338
F3
s(S'NP'
S'NNDDP'
tp339
F1
s(g87
S'MADVADVVPP'
tp340
F7
s(S'VP'
p341
S'VPP'
tp342
F313
s(S'CP'
S'ADVCCDP'
tp343
F7
s(S'CP'
S'ACCDP'
tp344
F1
s(S'DP'
S'ADVDDNP'
tp345
F1
s(S'NP'
S'NNNCP'
tp346
F7
s(S'PP'
S'PADVDP'
tp347
F15
s(S'CP'
S'CDADVAPP'
tp348
F1
s(g204
S'ADVADVPANP'
tp349
F1
s(S'MP'
S'MADVVAP'
tp350
F5
s(S'PP'
S'PADVAAP'
tp351
F1
s(S'CP'
S'CDDPP'
tp352
F77
s(S'DP'
S'DAAPP'
tp353
F6
s(g326
S'PVVP'
tp354
F47
s(S'CP'
p355
S'CADPPP'
tp356
F6
s(S'AP'
S'AACP'
tp357
F18
s(S'VP'
S'ADVAVDDP'
tp358
F1
s(S'VP'
S'ADVVCP'
tp359
F11
s(S'MP'
S'MCCDP'
tp360
F1
s(S'VP'
S'VPPP'
tp361
F30
s(S'VP'
S'ADVADVVVCCP'
tp362
F2
s(S'DP'
S'DDDDADVADVPP'
tp363
F1
s(S'VP'
S'VVPPP'
tp364
F3
s(S'DP'
S'ADADVADVVP'
tp365
F1
s(S'PP'
p366
S'PPAP'
tp367
F17
s(S'DP'
S'DVVP'
tp368
F46
s(S'PP'
S'PADVAVP'
tp369
F2
s(S'VP'
S'VVVADVAP'
tp370
F1
s(S'CP'
S'ADVACDDP'
tp371
F1
s(S'NP'
S'ANMP'
tp372
F7
s(S'AP'
S'APPP'
tp373
F4
s(S'PP'
S'ADVPPP'
tp374
F5
s(S'DP'
S'ADVADPPP'
tp375
F1
s(S'NP'
S'ADVADVNVP'
tp376
F3
s(S'VP'
S'VVVP'
tp377
F15
s(S'CP'
S'CADVDPP'
tp378
F26
s(g123
S'ANCP'
tp379
F69
s(S'DP'
S'DCP'
tp380
F17
s(S'NP'
S'ANNCP'
tp381
F1
s(S'VP'
S'ADVVCCP'
tp382
F2
s(S'VP'
S'ADVVVVP'
tp383
F1
s(g5
S'NNVVVVP'
tp384
F3
s(S'DP'
S'DDDP'
tp385
F12
s(S'DP'
S'DDADVPP'
tp386
F5
s(S'MP'
S'MVVVVNP'
tp387
F1
s(S'NP'
S'ANVVP'
tp388
F21
s(S'NP'
S'NVVVVP'
tp389
F14
s(S'NP'
S'NPPP'
tp390
F30
s(S'MP'
S'MNADVADVAP'
tp391
F1
s(S'PP'
S'PPAPP'
tp392
F1
s(g247
S'DAVP'
tp393
F24
s(S'NP'
S'NNNMP'
tp394
F4
s(S'AP'
p395
S'ACP'
tp396
F117
s(S'PP'
p397
S'PPNP'
tp398
F66
s(S'MP'
S'MADVVPP'
tp399
F8
s(S'DP'
S'ADVDAPP'
tp400
F1
s(S'DP'
S'DDVVVVVP'
tp401
F1
s(S'DP'
S'AADVP'
tp402
F1
s(S'CP'
S'CDDADVPP'
tp403
F4
s(S'VP'
S'AVNNNNP'
tp404
F1
s(g395
S'ADP'
tp405
F258
s(S'CP'
S'CCCDDDP'
tp406
F2
s(S'PP'
S'APMP'
tp407
F2
s(S'DP'
S'DDAVP'
tp408
F1
s(S'PP'
S'APVVP'
tp409
F5
s(S'DP'
S'DVVVVP'
tp410
F2
s(S'VP'
S'VVPPPP'
tp411
F1
s(S'VP'
S'ADVVVCCP'
tp412
F3
s(S'VP'
S'AVDP'
tp413
F51
s(S'VP'
S'VVAP'
tp414
F38
s(S'AP'
p415
S'ADVADVAADVVVP'
tp416
F1
s(S'PP'
S'PADVADVDP'
tp417
F1
s(S'VP'
S'AAVNNP'
tp418
F1
s(g92
S'NPP'
tp419
F478
s(g43
S'ADVADVADVDDPP'
tp420
F1
s(S'NP'
p421
S'NVP'
tp422
F544
s(g15
S'PPAMP'
tp423
F1
s(S'PP'
p424
S'PPVVVP'
tp425
F4
s(S'PP'
S'PAAVP'
tp426
F2
s(g47
S'VVVVAANP'
tp427
F1
s(S'NP'
S'NAAPP'
tp428
F1
s(S'PP'
S'PPPPVP'
tp429
F1
s(S'VP'
S'VDDP'
tp430
F48
s(g296
S'AAVPPP'
tp431
F1
s(S'DP'
S'DADVAPP'
tp432
F1
s(S'NP'
S'ADVADVNNNP'
tp433
F1
s(S'MP'
S'MANVVP'
tp434
F2
s(g328
S'NADVADVVVP'
tp435
F9
s(S'NP'
S'ANPP'
tp436
F64
s(S'PP'
p437
S'ADVPPDP'
tp438
F4
s(S'PP'
p439
S'PPPPP'
tp440
F14
s(S'PP'
S'ADVADVPDP'
tp441
F2
s(S'MP'
S'MVVPP'
tp442
F7
s(S'PP'
S'PPPNP'
tp443
F11
s(S'NP'
S'AAANVVVVP'
tp444
F1
s(g424
S'PPVVVVP'
tp445
F1
s(S'AP'
S'ADVADVAVP'
tp446
F2
s(S'VP'
S'ADVAVCCCP'
tp447
F1
s(S'AP'
S'AADVADVDP'
tp448
F1
s(S'NP'
S'NNCCCCP'
tp449
F1
s(S'CP'
S'CDDDADVPP'
tp450
F1
s(S'NP'
S'AAANCP'
tp451
F1
s(S'DP'
S'DDADVADVPPP'
tp452
F2
s(S'NP'
S'NAACP'
tp453
F1
s(g397
S'PNNP'
tp454
F70
s(S'PP'
p455
S'APNNP'
tp456
F3
s(S'DP'
p457
S'ADVADVDDDP'
tp458
F1
s(S'MP'
S'MMNP'
tp459
F1
s(S'PP'
S'PADVADVNP'
tp460
F5
s(S'VP'
p461
S'AVAP'
tp462
F4
s(S'MP'
S'MMVP'
tp463
F7
s(S'PP'
S'PADVDDP'
tp464
F2
s(S'CP'
S'CADVADPPP'
tp465
F1
s(S'NP'
S'ADVNCP'
tp466
F7
s(g250
S'ADPP'
tp467
F68
s(S'VP'
S'VAPPP'
tp468
F1
s(S'CP'
S'ACDP'
tp469
F17
s(S'NP'
p470
S'NNDP'
tp471
F12
s(S'NP'
S'ANADVADVVVP'
tp472
F1
s(S'AP'
S'ADVANP'
tp473
F4
s(S'NP'
S'NNACP'
tp474
F1
s(S'VP'
S'VVADVADVCP'
tp475
F1
s(S'CP'
S'CDADVPPP'
tp476
F5
s(g117
S'VAP'
tp477
F218
s(S'VP'
S'VVVVNP'
tp478
F8
s(S'MP'
S'MNVVP'
tp479
F1
s(g210
S'DDDPP'
tp480
F15
s(S'CP'
S'ADVCDDP'
tp481
F2
s(S'VP'
S'VADVMP'
tp482
F1
s(g143
S'PAAPP'
tp483
F1
s(S'AP'
S'ADVAAPP'
tp484
F1
s(S'AP'
S'AAVVP'
tp485
F2
s(S'MP'
S'MAVPP'
tp486
F1
s(S'NP'
S'NPPPP'
tp487
F1
s(g125
S'ADAP'
tp488
F2
s(S'MP'
S'MVVCCP'
tp489
F1
s(S'NP'
S'NAAP'
tp490
F19
s(g439
S'PPPVP'
tp491
F5
s(S'AP'
S'AADDP'
tp492
F1
s(S'DP'
S'DADVAAP'
tp493
F1
s(S'VP'
S'VAANP'
tp494
F1
s(S'PP'
S'ADVPNNP'
tp495
F2
s(S'MP'
S'MMVVVVP'
tp496
F1
s(g59
S'VVDP'
tp497
F101
s(S'MP'
S'MVVVCP'
tp498
F1
s(S'MP'
S'MVAAPP'
tp499
F1
s(g87
S'MADP'
tp500
F11
s(S'DP'
S'DDADVNP'
tp501
F1
s(g397
S'PANP'
tp502
F40
s(S'NP'
S'NADVDDP'
tp503
F1
s(S'DP'
S'ADVADPP'
tp504
F3
s(S'CP'
S'CADVADVADVDPP'
tp505
F1
s(S'NP'
S'AANMP'
tp506
F3
s(S'AP'
S'AAVP'
tp507
F12
s(S'AP'
S'AVVP'
tp508
F26
s(S'NP'
S'NDDP'
tp509
F18
s(g316
S'APPDDP'
tp510
F1
s(S'CP'
S'CDDADVADVPPP'
tp511
F1
s(S'VP'
S'VADVCP'
tp512
F6
s(S'AP'
p513
S'ACCP'
tp514
F13
s(S'PP'
S'PADVADVADVDDP'
tp515
F1
s(S'VP'
S'VVVVAP'
tp516
F1
s(S'VP'
S'AVPPP'
tp517
F1
s(S'AP'
S'APPPP'
tp518
F1
s(S'NP'
p519
S'NDP'
tp520
F162
s(S'MP'
p521
S'MADVVVDDP'
tp522
F1
s(S'PP'
S'PPPVVVP'
tp523
F1
s(S'DP'
S'DDVP'
tp524
F53
s(S'MP'
S'MADVADVADVVNNP'
tp525
F1
s(S'NP'
S'AANVP'
tp526
F11
s(S'VP'
S'VNNNP'
tp527
F5
s(S'MP'
S'MADVVVPP'
tp528
F1
s(S'VP'
S'VADVADVPP'
tp529
F1
s(g437
S'ADVPAP'
tp530
F2
s(S'MP'
S'MMVVVP'
tp531
F2
s(g181
S'PCP'
tp532
F9
s(S'NP'
S'NNPPP'
tp533
F2
s(S'PP'
p534
S'PAADP'
tp535
F1
s(g230
S'ADVNNVP'
tp536
F3
s(S'MP'
S'MADVADVVCP'
tp537
F1
s(S'NP'
S'ANNPP'
tp538
F1
s(g521
S'MVNNNP'
tp539
F1
s(S'NP'
S'NNNDP'
tp540
F1
s(S'MP'
S'MVAAP'
tp541
F1
s(S'AP'
S'ADVACP'
tp542
F10
s(S'NP'
S'ADVADVNMP'
tp543
F2
s(S'VP'
p544
S'VVVAP'
tp545
F8
s(S'NP'
S'NNVP'
tp546
F70
s(S'MP'
S'MVCP'
tp547
F17
s(S'CP'
S'CCDDP'
tp548
F22
s(S'VP'
S'AVNNP'
tp549
F1
s(S'NP'
S'NNADVVP'
tp550
F2
s(S'VP'
S'ADVADVADVVPP'
tp551
F2
s(S'MP'
p552
S'MVMP'
tp553
F2
s(S'MP'
S'MADVADVADVVPP'
tp554
F2
s(S'DP'
p555
S'DADVNP'
tp556
F11
s(S'NP'
S'NNNNVP'
tp557
F1
s(S'VP'
S'VVCP'
tp558
F33
s(S'PP'
S'PADVADVPP'
tp559
F1
s(S'NP'
S'AANCP'
tp560
F3
s(g341
S'VDP'
tp561
F487
s(S'AP'
S'ADVAVVP'
tp562
F2
s(S'AP'
S'AAAPP'
tp563
F2
s(g341
S'ADVVPP'
tp564
F24
s(S'CP'
S'CADVADVADVDDPP'
tp565
F1
s(g117
S'VNNP'
tp566
F32
s(S'AP'
S'AADVDP'
tp567
F4
s(S'MP'
S'MAAVNNP'
tp568
F1
s(S'NP'
S'NADP'
tp569
F5
s(g255
S'DDNP'
tp570
F80
s(S'NP'
S'NADVCP'
tp571
F9
s(g247
S'DDNNP'
tp572
F9
s(S'PP'
S'AAPPP'
tp573
F2
s(S'NP'
S'ADVANVP'
tp574
F2
s(S'NP'
S'ADVNAAP'
tp575
F2
s(S'CP'
S'ADVADVCCDDP'
tp576
F1
s(S'NP'
S'ADVADVNCP'
tp577
F1
s(S'NP'
S'NNADVAAP'
tp578
F1
s(S'DP'
S'AADPP'
tp579
F2
s(S'NP'
S'NNNNPP'
tp580
F1
s(S'MP'
S'MVVP'
tp581
F1
s(S'VP'
S'VVVVCP'
tp582
F1
s(S'NP'
S'NNNP'
tp583
F1
s(S'AP'
S'AADVADVVP'
tp584
F1
s(g143
S'AAPDP'
tp585
F4
s(S'NP'
p586
S'ANVVVP'
tp587
F3
s(S'NP'
S'NADVADVCCP'
tp588
F2
s(S'MP'
S'MVVNP'
tp589
F5
s(S'CP'
S'CDDADVPPP'
tp590
F1
s(S'PP'
p591
S'ADVAPVP'
tp592
F1
s(S'DP'
S'ADVDNNP'
tp593
F2
s(S'CP'
S'ACDDP'
tp594
F3
s(S'PP'
S'APAAAAP'
tp595
F1
s(g513
S'AAPP'
tp596
F8
s(S'VP'
p597
S'VVCCP'
tp598
F11
s(g274
S'DMMP'
tp599
F1
s(S'DP'
S'DADVVVP'
tp600
F1
s(S'DP'
S'DAAAPP'
tp601
F1
s(S'NP'
S'ANDDP'
tp602
F2
s(S'PP'
S'ADVPANP'
tp603
F1
s(g206
S'VADVADP'
tp604
F1
s(S'VP'
S'VVVCCP'
tp605
F3
s(g586
S'NAPP'
tp606
F23
s(S'MP'
S'MNNNADVVP'
tp607
F1
s(S'NP'
S'NADVDP'
tp608
F1
s(S'VP'
S'VVVCP'
tp609
F8
s(S'PP'
S'PADVAPP'
tp610
F2
s(S'NP'
S'ANCCP'
tp611
F16
s(S'NP'
S'AANPP'
tp612
F2
s(g101
S'NNCCP'
tp613
F8
s(S'NP'
S'NNMP'
tp614
F17
s(S'DP'
S'DDDVP'
tp615
F1
s(S'PP'
S'ADVADVPNNP'
tp616
F2
s(S'PP'
S'PAAAP'
tp617
F6
s(S'PP'
S'ADVADVPNP'
tp618
F3
s(S'PP'
S'PPPAP'
tp619
F1
s(S'CP'
S'CDDAPP'
tp620
F4
s(g519
S'ADVANVVP'
tp621
F1
s(g158
S'MVAP'
tp622
F19
s(g75
S'PVP'
tp623
F406
s(S'VP'
S'VADVPPP'
tp624
F1
s(S'CP'
S'CCCDDP'
tp625
F3
s(S'AP'
S'ADVADVAPP'
tp626
F1
s(S'PP'
S'PPADVVVP'
tp627
F3
s(S'VP'
S'VADVCCP'
tp628
F3
s(S'CP'
S'ACDDDP'
tp629
F2
s(S'AP'
S'AADVDDP'
tp630
F1
s(S'AP'
S'ADVAACP'
tp631
F1
s(S'NP'
S'ADVNAVP'
tp632
F1
s(S'DP'
p633
S'DVVVP'
tp634
F10
s(S'PP'
S'PPADVPP'
tp635
F1
s(S'DP'
S'ADVADVADVDNP'
tp636
F1
s(S'NP'
S'NNADVADVPPP'
tp637
F1
s(S'PP'
S'PPDDP'
tp638
F7
s(S'VP'
p639
S'AVCP'
tp640
F9
s(S'NP'
S'NADVADVAP'
tp641
F1
s(S'NP'
S'NAVVP'
tp642
F1
s(g18
S'DPP'
tp643
F679
s(S'NP'
S'ADVNVP'
tp644
F16
s(S'CP'
S'CDADVADVADVPP'
tp645
F1
s(S'DP'
p646
S'DDPP'
tp647
F137
s(g290
S'DDADVPPP'
tp648
F1
s(S'NP'
p649
S'ANADVVVP'
tp650
F1
s(g79
S'DANP'
tp651
F147
s(g167
S'NADVPP'
tp652
F5
s(S'PP'
S'ADVADVPPNP'
tp653
F4
s(S'NP'
S'AANADVVP'
tp654
F1
s(S'NP'
S'NAAVP'
tp655
F1
s(S'PP'
S'APADVDDP'
tp656
F1
s(g318
S'PDDDP'
tp657
F2
s(S'NP'
S'NACP'
tp658
F13
s(S'DP'
p659
S'ADVADVDPPP'
tp660
F1
s(S'NP'
S'NNNNCP'
tp661
F1
s(S'NP'
S'NADVCCP'
tp662
F3
s(S'MP'
S'MNAVP'
tp663
F1
s(S'NP'
S'NNNVVP'
tp664
F2
s(S'PP'
S'PADVPPP'
tp665
F1
s(S'DP'
S'DCCP'
tp666
F1
s(S'PP'
S'ADVADVPPP'
tp667
F2
s(S'PP'
S'PPPPNP'
tp668
F3
s(S'CP'
S'CDPPPPP'
tp669
F3
s(S'MP'
S'MADVVDP'
tp670
F5
s(S'DP'
S'DDADVNNP'
tp671
F1
s(g39
S'PDDP'
tp672
F84
s(S'MP'
S'MVDDP'
tp673
F4
s(S'AP'
S'AAAADP'
tp674
F1
s(S'NP'
S'NNNADVVP'
tp675
F2
s(g250
S'ADPPP'
tp676
F12
s(S'PP'
S'PADVADVADVDP'
tp677
F1
s(S'PP'
S'APPPPP'
tp678
F1
s(g591
S'APAAP'
tp679
F1
s(S'PP'
S'ADVADVADVPNP'
tp680
F1
s(S'NP'
S'NNP'
tp681
F1
s(S'VP'
S'AVVNP'
tp682
F1
s(g544
S'VVDDP'
tp683
F8
s(S'DP'
S'DAANP'
tp684
F14
s(S'AP'
S'ADDP'
tp685
F25
s(S'VP'
S'ADVADVADVVNNP'
tp686
F1
s(S'PP'
S'PNNNNP'
tp687
F1
s(S'VP'
S'ADVVVAP'
tp688
F2
s(S'PP'
S'ADVPPNP'
tp689
F6
s(S'MP'
S'MDAP'
tp690
F1
s(S'CP'
S'CADVADVDPP'
tp691
F2
s(S'CP'
S'ADVADVADVCDP'
tp692
F1
s(S'DP'
S'DPPP'
tp693
F144
s(S'DP'
S'DADVADVADVNNP'
tp694
F2
s(S'DP'
S'AADPPP'
tp695
F2
s(S'VP'
S'VANNP'
tp696
F1
s(S'NP'
S'NNAVP'
tp697
F2
s(S'NP'
S'NNNADVVVP'
tp698
F1
s(S'PP'
S'ADVPNP'
tp699
F11
s(g366
S'PPDP'
tp700
F57
s(S'MP'
S'MAVDP'
tp701
F3
s(S'PP'
S'ADVADVADVPVP'
tp702
F1
s(S'DP'
S'DDPPPP'
tp703
F1
s(S'PP'
S'APPPP'
tp704
F1
s(g415
S'AAPPP'
tp705
F2
s(S'AP'
S'AAVVVVP'
tp706
F1
s(g659
S'DDCP'
tp707
F2
s(S'AP'
S'AAADVADVADVDDP'
tp708
F1
s(g470
S'NAP'
tp709
F60
s(S'VP'
S'VAAAP'
tp710
F2
s(S'PP'
S'ADVPADP'
tp711
F1
s(S'MP'
S'ADVMNP'
tp712
F1
s(S'NP'
S'NNVVP'
tp713
F13
s(S'PP'
S'ADVADVPVP'
tp714
F1
s(S'DP'
S'ADVADVADVDDVP'
tp715
F2
s(S'AP'
S'AAADP'
tp716
F6
s(S'PP'
S'APNP'
tp717
F19
s(S'DP'
S'DDDAPP'
tp718
F1
s(S'DP'
S'DDVVP'
tp719
F2
s(S'AP'
S'AAADDP'
tp720
F2
s(S'VP'
p721
S'VVVNP'
tp722
F16
s(S'VP'
S'ADVADVADVVVCCP'
tp723
F1
s(S'NP'
S'NAMP'
tp724
F2
s(g552
S'MACDDDP'
tp725
F1
s(S'MP'
S'MVANP'
tp726
F1
s(S'MP'
S'MVNNP'
tp727
F3
s(S'CP'
S'CDPP'
tp728
F553
s(S'NP'
S'NNADVPP'
tp729
F1
s(g212
S'ADDDP'
tp730
F2
s(S'CP'
S'ADVCADP'
tp731
F2
s(g649
S'ANMMMP'
tp732
F1
s(S'DP'
S'ADADVADVPP'
tp733
F1
s(S'DP'
S'ADDDP'
tp734
F1
s(S'DP'
S'DCCCP'
tp735
F1
s(S'CP'
S'ADVCDP'
tp736
F15
s(g155
S'ADVAAP'
tp737
F1
s(S'VP'
S'ADVADVVNP'
tp738
F4
s(S'NP'
S'NADVADVADVCP'
tp739
F1
s(S'VP'
S'ADVADVVCP'
tp740
F2
s(g131
S'VADVADVDP'
tp741
F1
s(g534
S'PPNNP'
tp742
F9
s(S'CP'
S'CDAAAPP'
tp743
F1
s(g15
S'PPMP'
tp744
F5
s(g639
S'ADVVAVP'
tp745
F1
s(S'VP'
S'VADVNP'
tp746
F4
s(S'NP'
S'NADVAP'
tp747
F5
s(g721
S'AVDDP'
tp748
F5
s(S'DP'
S'DAP'
tp749
F51
s(g355
S'CADPP'
tp750
F50
s(S'NP'
S'NADVAVP'
tp751
F1
s(g461
S'ADVADVVVPP'
tp752
F3
s(S'MP'
S'MADVADVVDP'
tp753
F2
s(g176
S'ADVADVVCCP'
tp754
F1
s(g597
S'AVPP'
tp755
F16
s(S'NP'
S'NADVADVMP'
tp756
F1
s(S'CP'
S'CAADPPP'
tp757
F1
s(g269
S'AMVVP'
tp758
F2
s(S'CP'
S'CDPPPP'
tp759
F13
s(S'VP'
S'VADVADVCCP'
tp760
F2
s(S'VP'
S'AAVDP'
tp761
F4
s(S'PP'
S'PANNP'
tp762
F1
s(g143
S'APPP'
tp763
F16
s(S'DP'
S'ADPPPP'
tp764
F1
s(g555
S'DADVADVPP'
tp765
F6
s(S'DP'
S'DMP'
tp766
F15
s(g241
S'ADVDPP'
tp767
F39
s(S'NP'
S'NADVADVDP'
tp768
F2
s(g633
S'ADVDADVADVVP'
tp769
F2
s(S'VP'
S'ADVAVADVADVNNP'
tp770
F1
s(S'AP'
S'AADP'
tp771
F47
s(S'NP'
S'ADVADVNNAP'
tp772
F1
s(S'NP'
S'NNADVVVP'
tp773
F3
s(S'VP'
S'VADVPP'
tp774
F1
s(S'CP'
S'CCADVDDP'
tp775
F2
s(S'PP'
S'PPPPAP'
tp776
F1
s(g591
S'PVVVVP'
tp777
F1
s(S'PP'
S'ADVPVP'
tp778
F14
s(S'NP'
S'NADVADVADVVVP'
tp779
F6
s(S'NP'
S'NNVVVP'
tp780
F6
s(S'VP'
S'ADVVANP'
tp781
F3
s(S'PP'
S'PAMP'
tp782
F2
s(g105
S'ADVPDP'
tp783
F8
s(S'NP'
S'ANADVDP'
tp784
F1
s(S'NP'
S'ADVNNPP'
tp785
F1
s(S'MP'
S'MVADVAP'
tp786
F3
s(g284
S'NCP'
tp787
F426
s(S'VP'
S'ADVVVPP'
tp788
F11
s(S'DP'
S'DDADVVVP'
tp789
F1
s(S'DP'
S'ADVVP'
tp790
F2
s(S'VP'
S'ADVADVADVADVADVVNP'
tp791
F1
s(S'VP'
S'VADVADVADVDP'
tp792
F1
s(S'NP'
S'AANDP'
tp793
F2
s(S'MP'
S'MVCCP'
tp794
F1
s(S'DP'
S'DADVNNP'
tp795
F2
s(S'VP'
S'VDDDP'
tp796
F3
s(S'MP'
S'MNVP'
tp797
F4
s(S'CP'
S'ADVADVCCDP'
tp798
F3
s(S'PP'
S'PCCP'
tp799
F2
s(S'VP'
S'VAPP'
tp800
F19
s(g161
S'ADVVDP'
tp801
F31
s(S'NP'
S'ADVADVADVNNVP'
tp802
F1
s(g280
S'DADVPP'
tp803
F27
s(S'AP'
S'AMP'
tp804
F5
s(S'CP'
S'CCADP'
tp805
F4
s(S'NP'
S'ADVNNCP'
tp806
F3
s(S'DP'
S'ADVDAP'
tp807
F1
s(S'DP'
S'DADVADVNNP'
tp808
F1
s(S'NP'
S'AANMMP'
tp809
F1
s(S'AP'
S'ADVAPP'
tp810
F13
s(S'CP'
S'AACDP'
tp811
F2
s(S'CP'
S'CCDDDP'
tp812
F3
s(g457
S'ADVDPPP'
tp813
F3
s(g646
S'DVP'
tp814
F332
s(S'NP'
S'NADVADVADVADVVVP'
tp815
F2
s(g455
S'PADVADVDDP'
tp816
F2
s(S'AP'
S'AVP'
tp817
F76
s(g284
S'NADVVP'
tp818
F30
s(g190
S'NNADVADVVP'
tp819
F4
s(S'VP'
S'VVADVPPP'
tp820
F2
s(S'VP'
S'ADVVPPP'
tp821
F1
s(S'DP'
S'DDPPP'
tp822
F12
s(S'NP'
S'ADVNMP'
tp823
F9
s(g421
S'NNAP'
tp824
F2
s(S'MP'
S'MADVVCP'
tp825
F5
s(S'PP'
S'PPANP'
tp826
F2
s(S'PP'
S'PPCCP'
tp827
F1
s(S'CP'
S'CDADVPP'
tp828
F15
s(g59
S'VNP'
tp829
F301
s(S'VP'
S'ADVADVADVADVVVDP'
tp830
F1
s(S'VP'
S'VANP'
tp831
F32
s(S'VP'
S'VADVAP'
tp832
F34
s(S'PP'
S'PADVADVAVP'
tp833
F1
s(S'PP'
S'PPADVNP'
tp834
F2
s(S'VP'
S'ADVADVVVDP'
tp835
F2
s(S'NP'
S'NADVPPP'
tp836
F1
s.