ccollections
defaultdict
p1
(c__builtin__
float
p2
tRp3
(S'DP'
S'DDMP'
tp4
F1
s(S'DP'
S'DDAP'
tp5
F2
s(S'VP'
p6
S'ADVVVNP'
tp7
F1
s(S'CP'
S'CCDDDDP'
tp8
F1
s(S'PP'
p9
S'ADVADVPAP'
tp10
F1
s(S'PP'
p11
S'PAPP'
tp12
F3
s(S'PP'
p13
S'PADVNP'
tp14
F4
s(S'DP'
p15
S'DNP'
tp16
F98
s(S'VP'
p17
S'ADVVNNP'
tp18
F1
s(S'CP'
p19
S'CDPPP'
tp20
F14
s(S'VP'
p21
S'VADP'
tp22
F11
s(S'DP'
p23
S'DAAP'
tp24
F3
s(S'VP'
S'VAVP'
tp25
F1
s(S'DP'
S'ADNNP'
tp26
F3
s(S'PP'
S'APVP'
tp27
F4
s(S'MP'
S'MVDP'
tp28
F4
s(S'PP'
S'PPPP'
tp29
F6
s(S'DP'
S'DDDNP'
tp30
F4
s(S'AP'
S'AAAVP'
tp31
F1
s(S'PP'
p32
S'PPAAP'
tp33
F1
s(S'DP'
p34
S'DADVVP'
tp35
F3
s(S'VP'
p36
S'ADVADVVDDP'
tp37
F1
s(S'PP'
S'PADVNNP'
tp38
F2
s(S'NP'
p39
S'NCCCP'
tp40
F2
s(S'CP'
S'CADVDAPP'
tp41
F2
s(S'VP'
p42
S'VCP'
tp43
F28
s(S'MP'
S'MVVANP'
tp44
F1
s(S'NP'
p45
S'NMMP'
tp46
F1
s(S'VP'
p47
S'ADVVAAP'
tp48
F1
s(S'PP'
p49
S'PAP'
tp50
F38
s(S'MP'
S'MVVADVANP'
tp51
F1
s(S'VP'
S'VADVADVAP'
tp52
F1
s(S'PP'
p53
S'ADVPPVP'
tp54
F2
s(S'NP'
p55
S'ANPPP'
tp56
F3
s(S'NP'
p57
S'NNNACP'
tp58
F1
s(S'PP'
p59
S'PPADVDP'
tp60
F1
s(S'CP'
p61
S'CADPPPP'
tp62
F1
s(S'PP'
p63
S'PNP'
tp64
F77
s(S'DP'
S'ADDP'
tp65
F1
s(S'DP'
S'DDP'
tp66
F12
s(S'VP'
S'ADVVDDP'
tp67
F1
s(g32
S'PAAP'
tp68
F6
s(S'NP'
p69
S'NMP'
tp70
F8
s(S'VP'
p71
S'AAVNP'
tp72
F1
s(g49
S'PDP'
tp73
F102
s(S'CP'
p74
S'CCADVADVDP'
tp75
F1
s(S'VP'
S'AVAAP'
tp76
F1
s(S'PP'
S'ADVADVADVPPDP'
tp77
F1
s(S'NP'
p78
S'NNADVCP'
tp79
F1
s(S'VP'
p80
S'VVDDP'
tp81
F4
s(S'NP'
p82
S'ADVNACP'
tp83
F1
s(S'DP'
p84
S'DPPPP'
tp85
F4
s(S'DP'
p86
S'DDANP'
tp87
F1
s(S'PP'
p88
S'PADVADP'
tp89
F1
s(S'NP'
p90
S'NACP'
tp91
F11
s(S'NP'
p92
S'NCCP'
tp93
F15
s(S'DP'
p94
S'DADVADVVVP'
tp95
F1
s(S'AP'
S'AAAADP'
tp96
F1
s(g55
S'NNCP'
tp97
F15
s(S'NP'
S'NNPPPP'
tp98
F1
s(S'PP'
p99
S'ADVAPDP'
tp100
F1
s(g39
S'ANADVVP'
tp101
F1
s(S'PP'
S'ADVAPVP'
tp102
F1
s(S'AP'
S'AAAAP'
tp103
F1
s(S'PP'
S'PDDDP'
tp104
F1
s(S'NP'
S'NCCCCP'
tp105
F1
s(S'CP'
S'CCCDP'
tp106
F2
s(S'VP'
p107
S'ADVVAP'
tp108
F1
s(S'VP'
p109
S'VCCCP'
tp110
F1
s(S'PP'
S'APDP'
tp111
F7
s(g88
S'PPPPADVADVDP'
tp112
F1
s(S'NP'
S'NAAPPP'
tp113
F1
s(S'NP'
S'NNNAAP'
tp114
F1
s(S'DP'
S'DDANNP'
tp115
F1
s(S'VP'
p116
S'VVANP'
tp117
F1
s(S'AP'
p118
S'AAPPPP'
tp119
F1
s(S'NP'
S'ADVANCP'
tp120
F1
s(g15
S'DNNP'
tp121
F19
s(S'DP'
S'DPPPPP'
tp122
F1
s(S'CP'
S'CDDPPPP'
tp123
F1
s(S'VP'
S'VVACP'
tp124
F1
s(S'VP'
p125
S'VDP'
tp126
F87
s(S'PP'
S'PADVVP'
tp127
F4
s(S'DP'
S'DADVADVADVPPP'
tp128
F1
s(S'PP'
S'APAP'
tp129
F4
s(S'AP'
p130
S'APP'
tp131
F20
s(S'CP'
p132
S'CADPPPPP'
tp133
F1
s(S'PP'
S'PPADP'
tp134
F2
s(S'CP'
S'CADVADPP'
tp135
F1
s(S'NP'
S'ADVANPP'
tp136
F1
s(S'VP'
S'VVVVPP'
tp137
F1
s(g99
S'PPVVP'
tp138
F4
s(S'MP'
S'MVNP'
tp139
F1
s(g49
S'PAVP'
tp140
F6
s(S'PP'
S'ADVAPNNP'
tp141
F1
s(S'VP'
S'VVVPP'
tp142
F2
s(S'NP'
p143
S'NMMMMP'
tp144
F1
s(S'DP'
S'DADP'
tp145
F4
s(S'PP'
p146
S'APDDP'
tp147
F3
s(S'VP'
p148
S'ADVVNP'
tp149
F4
s(S'VP'
S'VVNP'
tp150
F8
s(g49
S'PPPNNP'
tp151
F2
s(S'PP'
p152
S'PPVP'
tp153
F11
s(S'VP'
p154
S'VADVDP'
tp155
F1
s(S'VP'
S'VAAP'
tp156
F7
s(g45
S'ANDP'
tp157
F5
s(S'NP'
S'NVVP'
tp158
F12
s(S'PP'
S'AAPVP'
tp159
F1
s(g80
S'VVNNP'
tp160
F2
s(S'CP'
S'CDAPP'
tp161
F6
s(S'DP'
p162
S'ADVADVP'
tp163
F1
s(S'VP'
S'VVAPP'
tp164
F1
s(S'DP'
S'ADNP'
tp165
F11
s(S'PP'
S'PADP'
tp166
F8
s(S'VP'
S'ADVVVCP'
tp167
F1
s(g39
S'NNMP'
tp168
F2
s(S'VP'
S'VVVDDP'
tp169
F1
s(S'DP'
p170
S'DAPP'
tp171
F13
s(g116
S'AVVP'
tp172
F1
s(g17
S'ADVADVVPP'
tp173
F1
s(S'PP'
S'PPPDP'
tp174
F1
s(S'MP'
p175
S'MVVVDP'
tp176
F1
s(S'NP'
p177
S'ANADVVVP'
tp178
F1
s(S'DP'
S'ADVDNP'
tp179
F4
s(S'VP'
p180
S'VVPP'
tp181
F8
s(S'MP'
S'MVPP'
tp182
F3
s(S'DP'
p183
S'ADVP'
tp184
F5
s(S'MP'
S'MVADP'
tp185
F1
s(S'MP'
S'MDAAP'
tp186
F1
s(S'CP'
S'CDDPPP'
tp187
F1
s(S'NP'
S'NNPP'
tp188
F10
s(S'CP'
p189
S'CCCADVDP'
tp190
F1
s(S'DP'
p191
S'DDDDNP'
tp192
F1
s(S'AP'
p193
S'AACP'
tp194
F4
s(S'NP'
p195
S'ANVP'
tp196
F5
s(g23
S'DNNNP'
tp197
F2
s(S'PP'
S'PVVVP'
tp198
F3
s(S'PP'
p199
S'PMP'
tp200
F8
s(g189
S'CCDP'
tp201
F17
s(S'MP'
S'AMVP'
tp202
F1
s(S'NP'
S'NVVVP'
tp203
F3
s(S'CP'
S'CDDDPP'
tp204
F2
s(S'CP'
S'CDADVADVPP'
tp205
F1
s(S'VP'
S'ADVADVVVVP'
tp206
F1
s(g148
S'VVVDP'
tp207
F3
s(g63
S'PDDDDP'
tp208
F2
s(S'CP'
S'CCCCDP'
tp209
F1
s(S'AP'
S'AACCP'
tp210
F1
s(S'PP'
S'AAPNP'
tp211
F1
s(g63
S'PPP'
tp212
F38
s(g90
S'NAVP'
tp213
F9
s(g146
S'PADVAP'
tp214
F1
s(S'DP'
S'DDNNNP'
tp215
F1
s(S'DP'
p216
S'ADVDVP'
tp217
F2
s(g69
S'NADVVVP'
tp218
F5
s(S'AP'
p219
S'AADVVP'
tp220
F1
s(g162
S'ADVADVDNP'
tp221
F1
s(S'VP'
S'VPP'
tp222
F63
s(S'CP'
S'ADVCCDP'
tp223
F1
s(S'MP'
S'ADVADVMVP'
tp224
F1
s(g143
S'NNNCP'
tp225
F1
s(S'PP'
p226
S'PADVDP'
tp227
F3
s(S'CP'
p228
S'CDADVAPP'
tp229
F1
s(g59
S'PADVAAP'
tp230
F1
s(S'CP'
S'CDDPP'
tp231
F18
s(S'DP'
S'DAAPP'
tp232
F1
s(g11
S'PVVP'
tp233
F10
s(g19
S'CADPPP'
tp234
F2
s(S'DP'
p235
S'DADVPPP'
tp236
F2
s(S'VP'
S'ADVVCP'
tp237
F3
s(g109
S'VPPP'
tp238
F6
s(S'VP'
p239
S'VVPPP'
tp240
F3
s(g191
S'DVVP'
tp241
F9
s(S'AP'
S'APPP'
tp242
F2
s(S'NP'
p243
S'NNNNMP'
tp244
F1
s(S'NP'
S'ADVADVNVP'
tp245
F1
s(g36
S'VVVP'
tp246
F1
s(g132
S'CADVDPP'
tp247
F6
s(S'AP'
S'ADVAAADVDP'
tp248
F1
s(S'NP'
p249
S'ANCP'
tp250
F23
s(g191
S'DCP'
tp251
F3
s(S'NP'
S'ANNCP'
tp252
F1
s(S'PP'
S'AAPPNNP'
tp253
F1
s(S'DP'
p254
S'DDDP'
tp255
F3
s(S'NP'
S'ANVVP'
tp256
F1
s(g239
S'VVDP'
tp257
F12
s(g90
S'NPPP'
tp258
F14
s(S'PP'
S'PPAPP'
tp259
F1
s(S'DP'
p260
S'DAVP'
tp261
F5
s(S'AP'
S'ACP'
tp262
F12
s(g49
S'PPNP'
tp263
F15
s(S'DP'
p264
S'ADVDAPP'
tp265
F2
s(S'DP'
S'AADVP'
tp266
F1
s(S'MP'
S'MMMMVVP'
tp267
F1
s(S'AP'
S'ADP'
tp268
F57
s(S'DP'
S'DDPPPP'
tp269
F1
s(S'PP'
p270
S'APVVP'
tp271
F2
s(S'NP'
S'ADVADVADVADVNVP'
tp272
F1
s(S'PP'
S'PPMP'
tp273
F1
s(g154
S'VVAP'
tp274
F3
s(S'NP'
p275
S'NNAPP'
tp276
F2
s(g55
S'NPP'
tp277
F90
s(S'PP'
S'PPPPNP'
tp278
F1
s(g55
S'NVP'
tp279
F81
s(S'PP'
S'PAAVP'
tp280
F2
s(g57
S'NAAPP'
tp281
F3
s(S'PP'
S'PPPPVP'
tp282
F1
s(S'VP'
S'VDDP'
tp283
F6
s(S'MP'
S'MVADVPPP'
tp284
F1
s(S'DP'
p285
S'DADVAPP'
tp286
F4
s(S'PP'
S'ADVAPAP'
tp287
F1
s(S'NP'
S'NADVADVVVP'
tp288
F2
s(g69
S'ANPP'
tp289
F14
s(S'PP'
S'ADVPPDP'
tp290
F1
s(g152
S'PPPPP'
tp291
F3
s(S'MP'
S'MVVPP'
tp292
F1
s(g63
S'PPPNP'
tp293
F6
s(S'NP'
p294
S'NPPPP'
tp295
F1
s(S'VP'
p296
S'VVADVNNP'
tp297
F1
s(S'CP'
S'CAADPP'
tp298
F4
s(g152
S'PNNP'
tp299
F7
s(S'CP'
S'CDADVADVADVPPP'
tp300
F1
s(g226
S'APNNP'
tp301
F2
s(S'MP'
S'MMVP'
tp302
F1
s(g55
S'NNNNNPPPP'
tp303
F1
s(g92
S'ADVNCP'
tp304
F3
s(g193
S'AADP'
tp305
F9
s(g61
S'ACDP'
tp306
F14
s(g55
S'NNDP'
tp307
F2
s(g42
S'VAP'
tp308
F34
s(S'DP'
S'DDDPP'
tp309
F2
s(S'NP'
S'ANADVCP'
tp310
F2
s(S'VP'
S'VADVMP'
tp311
F1
s(g219
S'AAVVP'
tp312
F2
s(S'DP'
S'DDDPPP'
tp313
F1
s(S'VP'
S'ADVAVDP'
tp314
F2
s(S'DP'
S'ADAP'
tp315
F2
s(S'NP'
p316
S'NAAP'
tp317
F2
s(S'PP'
S'PPPVP'
tp318
F2
s(S'AP'
S'AADDP'
tp319
F1
s(g21
S'VAANP'
tp320
F1
s(S'DP'
S'ADVADVADVDVP'
tp321
F1
s(S'NP'
S'NVVVVP'
tp322
F1
s(S'PP'
S'PAAAAP'
tp323
F1
s(S'CP'
S'CCAADP'
tp324
F1
s(S'PP'
S'PANP'
tp325
F13
s(S'MP'
S'MADVVADVAP'
tp326
F1
s(S'AP'
S'AAVP'
tp327
F2
s(S'AP'
p328
S'AVVP'
tp329
F4
s(g195
S'NDDP'
tp330
F3
s(S'AP'
S'ACCP'
tp331
F1
s(S'VP'
S'VVVVAP'
tp332
F1
s(S'VP'
S'AVPPP'
tp333
F1
s(g249
S'NDP'
tp334
F37
s(S'DP'
S'DDVP'
tp335
F6
s(S'NP'
S'AANVP'
tp336
F3
s(S'PP'
S'PCP'
tp337
F3
s(g275
S'NNPPP'
tp338
F2
s(S'NP'
S'ADVNNVP'
tp339
F1
s(S'VP'
S'VPPPP'
tp340
F1
s(g17
S'VCCP'
tp341
F3
s(g285
S'DDADVVP'
tp342
F1
s(g183
S'ADPPP'
tp343
F2
s(S'CP'
S'CCDDP'
tp344
F1
s(S'DP'
S'DDADP'
tp345
F1
s(S'NP'
S'NNVVP'
tp346
F2
s(g148
S'VVCP'
tp347
F6
s(S'PP'
p348
S'PADVADVPP'
tp349
F1
s(S'NP'
S'AANCP'
tp350
F2
s(S'VP'
S'VADVNP'
tp351
F1
s(S'VP'
p352
S'VVDDDP'
tp353
F1
s(S'AP'
S'ADVAVVP'
tp354
F1
s(S'NP'
S'NNDDP'
tp355
F1
s(g107
S'ADVVPP'
tp356
F4
s(S'VP'
S'VVADVANP'
tp357
F1
s(S'VP'
S'VNNP'
tp358
F5
s(S'AP'
S'AADVDP'
tp359
F1
s(S'NP'
S'NADP'
tp360
F2
s(g84
S'DDNP'
tp361
F14
s(g294
S'NADVCP'
tp362
F1
s(S'DP'
S'DDNNP'
tp363
F2
s(S'VP'
S'VPPPPP'
tp364
F1
s(S'DP'
S'AADPP'
tp365
F5
s(S'PP'
S'AAPDP'
tp366
F2
s(S'CP'
S'ACDDP'
tp367
F1
s(g193
S'AAPP'
tp368
F7
s(g352
S'VVCCP'
tp369
F1
s(S'NP'
S'ANDDP'
tp370
F1
s(g82
S'NAPP'
tp371
F5
s(S'PP'
S'ADVPPPP'
tp372
F1
s(S'NP'
S'ANCCP'
tp373
F1
s(g47
S'VDDDP'
tp374
F1
s(S'DP'
S'DADVADVADVADVNP'
tp375
F1
s(g264
S'DDDVP'
tp376
F2
s(S'CP'
S'CDDAPP'
tp377
F1
s(S'NP'
S'ADVNPPPP'
tp378
F1
s(S'MP'
S'MVAP'
tp379
F2
s(g63
S'PVP'
tp380
F77
s(g6
S'VADVPPP'
tp381
F1
s(g86
S'DADVAVP'
tp382
F1
s(S'MP'
S'MADVADVVCP'
tp383
F1
s(S'DP'
p384
S'DVVVP'
tp385
F1
s(g270
S'PPDDP'
tp386
F3
s(S'VP'
S'AVCP'
tp387
F1
s(g15
S'DPP'
tp388
F113
s(S'NP'
S'ADVNVP'
tp389
F1
s(S'DP'
S'DDPP'
tp390
F22
s(g15
S'DANP'
tp391
F33
s(S'VP'
S'VVVADVDP'
tp392
F1
s(S'NP'
S'AANADVVP'
tp393
F1
s(g235
S'AADNP'
tp394
F1
s(S'VP'
S'VADVCP'
tp395
F1
s(g78
S'NADVCCP'
tp396
F1
s(S'NP'
p397
S'NNAACP'
tp398
F1
s(S'NP'
S'NNNVVP'
tp399
F1
s(g53
S'PADVPPP'
tp400
F1
s(S'DP'
S'DCCP'
tp401
F2
s(S'CP'
S'CDPPPPP'
tp402
F1
s(S'MP'
S'MADVVDP'
tp403
F1
s(g199
S'PDDP'
tp404
F9
s(g99
S'PADVAPP'
tp405
F1
s(S'PP'
S'ADVAPNP'
tp406
F1
s(g249
S'NNVP'
tp407
F8
s(S'PP'
p408
S'PADVADVADVDP'
tp409
F1
s(g125
S'AVDP'
tp410
F15
s(g260
S'ADVADPP'
tp411
F1
s(g23
S'DAANP'
tp412
F2
s(g328
S'ADDP'
tp413
F3
s(S'PP'
S'PNNNNP'
tp414
F1
s(S'PP'
S'ADVPPNP'
tp415
F1
s(g74
S'CDDADVAPP'
tp416
F1
s(S'DP'
S'ADPPPPP'
tp417
F1
s(S'CP'
S'ADVADVADVCDP'
tp418
F1
s(g183
S'DPPP'
tp419
F25
s(S'NP'
S'NADVADVAAP'
tp420
F1
s(g45
S'NNAVP'
tp421
F3
s(g11
S'ADVPNP'
tp422
F2
s(g63
S'PPDP'
tp423
F18
s(S'MP'
S'MVPPPP'
tp424
F1
s(S'DP'
S'ADVDCP'
tp425
F1
s(S'PP'
S'PPPAAP'
tp426
F1
s(S'AP'
S'ADVADVAADP'
tp427
F1
s(g39
S'NAP'
tp428
F18
s(S'VP'
S'VADVANP'
tp429
F1
s(S'VP'
S'VVP'
tp430
F5
s(S'MP'
S'ADVMNP'
tp431
F1
s(S'DP'
S'DDAPP'
tp432
F2
s(g348
S'ADVADVPVP'
tp433
F1
s(S'AP'
S'AAADP'
tp434
F2
s(S'VP'
S'AAVAAAP'
tp435
F1
s(S'PP'
p436
S'APNP'
tp437
F10
s(g71
S'VVVNNP'
tp438
F1
s(S'CP'
S'CADVADVDPP'
tp439
F1
s(g57
S'NAMP'
tp440
F1
s(g175
S'MVNNP'
tp441
F1
s(S'CP'
S'CDPP'
tp442
F100
s(S'AP'
S'ADDDP'
tp443
F2
s(S'CP'
S'ADVCDP'
tp444
F5
s(g109
S'ADVADVVNP'
tp445
F2
s(S'NP'
S'NADVADVADVCP'
tp446
F1
s(S'VP'
p447
S'ADVADVVCP'
tp448
F1
s(g447
S'VADVADVDP'
tp449
F1
s(g32
S'PPNNP'
tp450
F2
s(S'PP'
S'ADVAPPP'
tp451
F1
s(S'DP'
p452
S'ADVADVDPP'
tp453
F3
s(S'VP'
S'VAADP'
tp454
F1
s(g316
S'NADVAP'
tp455
F1
s(g296
S'AVDDP'
tp456
F1
s(g216
S'DADVNP'
tp457
F2
s(g384
S'DAP'
tp458
F11
s(g189
S'CADPP'
tp459
F12
s(g397
S'NADVAVP'
tp460
F1
s(g94
S'DDDDAANP'
tp461
F1
s(S'PP'
S'PPDDDP'
tp462
F1
s(g239
S'AVPP'
tp463
F4
s(S'NP'
S'NADVADVMP'
tp464
F1
s(S'CP'
S'CDPPPP'
tp465
F3
s(S'VP'
S'AAVDP'
tp466
F2
s(g11
S'APVVVVP'
tp467
F1
s(g13
S'APPP'
tp468
F1
s(g191
S'ADPPPP'
tp469
F1
s(S'VP'
S'ADVVADVAP'
tp470
F1
s(S'DP'
S'DADVADVPP'
tp471
F1
s(S'DP'
S'DMP'
tp472
F2
s(g170
S'ADVDPP'
tp473
F8
s(g270
S'PPAANP'
tp474
F1
s(S'PP'
S'PADVADVNP'
tp475
F1
s(g170
S'ADPP'
tp476
F21
s(g9
S'PPAAVP'
tp477
F1
s(S'VP'
S'VADVPP'
tp478
F3
s(g408
S'ADVPVP'
tp479
F3
s(S'DP'
S'DDDDPP'
tp480
F1
s(S'PP'
S'ADVPDP'
tp481
F2
s(g243
S'ANNPP'
tp482
F1
s(g249
S'NCP'
tp483
F75
s(g17
S'ADVVVPP'
tp484
F4
s(g436
S'PPAAAP'
tp485
F1
s(g45
S'AANDP'
tp486
F1
s(g195
S'NNCCP'
tp487
F4
s(S'VP'
S'VAPP'
tp488
F5
s(g180
S'ADVVDP'
tp489
F4
s(g34
S'DADVPP'
tp490
F4
s(g228
S'CCADP'
tp491
F3
s(S'NP'
S'ADVNNCP'
tp492
F2
s(S'AP'
S'ADVAPP'
tp493
F2
s(g452
S'DDADVAPP'
tp494
F1
s(g118
S'ADVAADVADVVP'
tp495
F1
s(S'AP'
S'ADVADVANP'
tp496
F1
s(S'CP'
S'AACDP'
tp497
F1
s(S'CP'
S'CCDDDP'
tp498
F1
s(g183
S'DVP'
tp499
F64
s(g130
S'AVP'
tp500
F13
s(S'NP'
S'NADVVP'
tp501
F5
s(g177
S'NNADVADVVP'
tp502
F1
s(g254
S'DDPPP'
tp503
F1
s(S'NP'
S'ADVNMP'
tp504
F1
s(g78
S'NNAP'
tp505
F2
s(S'PP'
S'PPANP'
tp506
F2
s(S'CP'
S'CDADVPP'
tp507
F3
s(g125
S'VNP'
tp508
F62
s(S'NP'
S'ANADVPPP'
tp509
F1
s(S'VP'
S'VANP'
tp510
F1
s(S'VP'
S'VADVAP'
tp511
F1
s(S'VP'
S'ADVADVVVDP'
tp512
F2
s.