ccollections
defaultdict
p1
(c__builtin__
float
p2
tRp3
(S'CP'
p4
S'CAAADPP'
tp5
F1
s(S'DP'
S'DDAP'
tp6
F3
s(S'VP'
p7
S'ADVVVNP'
tp8
F2
s(S'CP'
S'CCDDDDP'
tp9
F1
s(S'NP'
S'AAAANPPP'
tp10
F1
s(S'PP'
p11
S'PAPP'
tp12
F19
s(S'DP'
p13
S'DDPPPPP'
tp14
F1
s(S'DP'
p15
S'DNP'
tp16
F233
s(S'MP'
S'MVVAAP'
tp17
F1
s(S'CP'
p18
S'CDPPP'
tp19
F47
s(S'VP'
p20
S'VADP'
tp21
F21
s(S'CP'
S'CDAAPPP'
tp22
F1
s(S'DP'
S'DAAP'
tp23
F10
s(S'PP'
S'PPPPPP'
tp24
F2
s(S'VP'
S'VADVADVADVAP'
tp25
F1
s(S'VP'
p26
S'VAVP'
tp27
F3
s(S'VP'
S'ADVADVADVVVPP'
tp28
F2
s(S'DP'
S'ADNNP'
tp29
F1
s(S'MP'
S'MDVP'
tp30
F2
s(S'PP'
p31
S'APVP'
tp32
F12
s(S'CP'
S'CADVADVADVDPP'
tp33
F1
s(S'MP'
S'MVDP'
tp34
F22
s(S'PP'
p35
S'PPPP'
tp36
F43
s(S'DP'
p37
S'DDDNP'
tp38
F4
s(S'VP'
p39
S'VACP'
tp40
F4
s(S'DP'
p41
S'DADVVP'
tp42
F6
s(S'VP'
p43
S'ADVADVVDDP'
tp44
F1
s(S'NP'
p45
S'NADVVVP'
tp46
F4
s(S'AP'
S'AADVADVCCP'
tp47
F1
s(S'VP'
p48
S'VCP'
tp49
F80
s(S'NP'
S'NMMP'
tp50
F3
s(S'VP'
S'ADVVAAP'
tp51
F1
s(S'NP'
p52
S'NNADVAP'
tp53
F1
s(S'PP'
p54
S'PAP'
tp55
F120
s(g7
S'VADVADVAP'
tp56
F1
s(S'NP'
S'ANNCCP'
tp57
F2
s(S'VP'
S'VADVNP'
tp58
F5
s(S'NP'
S'NNNAP'
tp59
F1
s(S'PP'
S'APVVP'
tp60
F4
s(S'PP'
p61
S'ADVADVADVPPVP'
tp62
F1
s(S'MP'
S'AMVP'
tp63
F1
s(S'PP'
p64
S'PNP'
tp65
F226
s(g26
S'AVNNNP'
tp66
F1
s(S'DP'
S'ADVADVADADVADVVP'
tp67
F1
s(S'PP'
S'PPPPPPP'
tp68
F2
s(S'VP'
S'ADVVDDP'
tp69
F2
s(S'NP'
p70
S'NNNPP'
tp71
F1
s(S'VP'
p72
S'VCCP'
tp73
F10
s(S'VP'
S'ADVVVDDP'
tp74
F1
s(S'MP'
S'MCDP'
tp75
F1
s(S'NP'
S'NMP'
tp76
F72
s(S'DP'
S'ADCP'
tp77
F1
s(g64
S'PDP'
tp78
F248
s(g31
S'PADVNP'
tp79
F6
s(S'CP'
S'CDADVADVPP'
tp80
F1
s(S'VP'
S'VNNNNP'
tp81
F1
s(S'NP'
p82
S'AAANVVP'
tp83
F1
s(S'MP'
S'MADVVNP'
tp84
F1
s(S'CP'
S'CDADVADVPPP'
tp85
F1
s(S'AP'
p86
S'ANP'
tp87
F1
s(S'DP'
S'ADVADNNP'
tp88
F1
s(S'PP'
p89
S'PADVPP'
tp90
F4
s(S'VP'
p91
S'AAVPP'
tp92
F1
s(S'PP'
S'PPADVAP'
tp93
F2
s(S'PP'
S'PNNNP'
tp94
F1
s(S'DP'
S'DPPPP'
tp95
F5
s(S'DP'
S'DDANP'
tp96
F2
s(S'NP'
p97
S'NACP'
tp98
F18
s(S'AP'
S'ADVAVP'
tp99
F2
s(g45
S'NCCP'
tp100
F42
s(S'NP'
S'NNCP'
tp101
F40
s(S'DP'
S'ADVDDPP'
tp102
F1
s(S'DP'
S'DDDDP'
tp103
F3
s(g39
S'AVNP'
tp104
F6
s(S'VP'
S'VVADP'
tp105
F2
s(S'DP'
S'DDAVVP'
tp106
F1
s(S'NP'
p107
S'NADVADVPP'
tp108
F1
s(S'PP'
S'ADVPVVP'
tp109
F1
s(S'PP'
S'ADVAPDP'
tp110
F1
s(S'CP'
S'CADVDDAPP'
tp111
F1
s(S'VP'
p112
S'VADVVP'
tp113
F2
s(S'VP'
S'VVAACP'
tp114
F1
s(S'MP'
S'MVPPP'
tp115
F1
s(S'VP'
S'VAAMP'
tp116
F1
s(S'DP'
S'DADVPPP'
tp117
F3
s(S'NP'
S'NCCCCP'
tp118
F2
s(S'CP'
S'CCCDP'
tp119
F6
s(S'VP'
S'ADVVAP'
tp120
F4
s(S'PP'
p121
S'APDP'
tp122
F33
s(S'CP'
S'ADVCCADVDP'
tp123
F1
s(S'VP'
S'ADVVNNP'
tp124
F2
s(S'AP'
p125
S'AADVCP'
tp126
F3
s(S'VP'
S'VVANP'
tp127
F2
s(S'VP'
S'VVVVDP'
tp128
F1
s(S'VP'
S'ADVVVP'
tp129
F1
s(S'NP'
S'ADVADVNPPP'
tp130
F1
s(S'NP'
S'ADVNCCP'
tp131
F2
s(g35
S'PAAP'
tp132
F20
s(S'NP'
p133
S'ADVANCP'
tp134
F4
s(g41
S'DNNP'
tp135
F51
s(S'DP'
S'DPPPPP'
tp136
F2
s(S'CP'
S'CDDPPPP'
tp137
F2
s(S'CP'
S'CCADVDP'
tp138
F4
s(S'VP'
S'AAVDDP'
tp139
F2
s(S'NP'
p140
S'NNNVP'
tp141
F3
s(S'PP'
S'PPADVADP'
tp142
F1
s(S'PP'
S'PADVVP'
tp143
F9
s(S'DP'
S'DACP'
tp144
F1
s(S'PP'
p145
S'APAP'
tp146
F6
s(S'AP'
p147
S'APP'
tp148
F49
s(S'NP'
S'NADVMP'
tp149
F2
s(S'AP'
p150
S'AAP'
tp151
F4
s(S'VP'
S'VVAPP'
tp152
F1
s(S'NP'
S'ADVANPP'
tp153
F1
s(S'MP'
S'MVVCP'
tp154
F1
s(S'DP'
S'DAAVP'
tp155
F4
s(S'PP'
S'PAANP'
tp156
F3
s(S'VP'
S'VADVADVCP'
tp157
F1
s(S'NP'
S'ANVP'
tp158
F15
s(S'VP'
S'VAACP'
tp159
F1
s(S'MP'
S'MVNP'
tp160
F19
s(S'NP'
S'ANAAP'
tp161
F1
s(S'CP'
S'CDDDPPP'
tp162
F1
s(S'DP'
S'ADVADNP'
tp163
F2
s(S'PP'
p164
S'PAVP'
tp165
F11
s(S'CP'
S'ADVCDDDP'
tp166
F1
s(S'PP'
S'ADVADVPPVP'
tp167
F2
s(S'VP'
S'VVVPP'
tp168
F1
s(S'CP'
p169
S'CADVADVADPP'
tp170
F1
s(S'MP'
S'MADVVPP'
tp171
F4
s(S'DP'
p172
S'DADP'
tp173
F4
s(g86
S'ADVADP'
tp174
F1
s(S'CP'
S'ADVADVCDP'
tp175
F1
s(S'PP'
S'APDDP'
tp176
F4
s(S'VP'
S'ADVADVVANP'
tp177
F2
s(S'NP'
S'ADVNAP'
tp178
F1
s(S'PP'
S'PPCP'
tp179
F1
s(g48
S'ADVVNP'
tp180
F7
s(S'VP'
S'VVNP'
tp181
F26
s(S'PP'
S'ADVPAVP'
tp182
F1
s(S'PP'
p183
S'PPPNNP'
tp184
F1
s(g11
S'PPVP'
tp185
F38
s(S'VP'
S'VADVDP'
tp186
F4
s(S'VP'
S'VVADVAP'
tp187
F2
s(S'VP'
p188
S'VAAP'
tp189
F23
s(S'VP'
S'VVVANNP'
tp190
F1
s(S'CP'
S'ADVCDDP'
tp191
F1
s(S'NP'
S'ANDP'
tp192
F8
s(g45
S'NVVP'
tp193
F36
s(S'PP'
p194
S'AAPVP'
tp195
F3
s(S'PP'
p196
S'PPADP'
tp197
F1
s(S'VP'
S'VMP'
tp198
F1
s(S'VP'
S'VVNNP'
tp199
F3
s(S'CP'
p200
S'CDAPP'
tp201
F20
s(S'VP'
p202
S'VVAAP'
tp203
F2
s(S'CP'
S'CADVADPP'
tp204
F1
s(S'DP'
S'ADNP'
tp205
F22
s(S'PP'
p206
S'PADP'
tp207
F19
s(g82
S'NADVADVADVVVP'
tp208
F2
s(S'DP'
p209
S'DADVAP'
tp210
F3
s(S'DP'
p211
S'DAPP'
tp212
F41
s(S'VP'
S'AVVP'
tp213
F1
s(S'VP'
S'VVVVPP'
tp214
F1
s(S'MP'
S'MADVADVVNP'
tp215
F1
s(S'AP'
S'AADVADVADVPP'
tp216
F1
s(S'VP'
S'VADVADVNP'
tp217
F1
s(S'VP'
p218
S'ADVADVVDP'
tp219
F2
s(S'PP'
S'PPPDP'
tp220
F3
s(S'DP'
p221
S'DAAPPP'
tp222
F1
s(S'MP'
S'MVVAP'
tp223
F2
s(S'DP'
S'DAAANP'
tp224
F3
s(S'DP'
S'DADVANP'
tp225
F2
s(S'DP'
S'ADVDNP'
tp226
F3
s(g39
S'VVPP'
tp227
F24
s(g194
S'ADVPAAPP'
tp228
F1
s(S'MP'
S'MMMDP'
tp229
F1
s(g13
S'ADADVPP'
tp230
F1
s(S'MP'
S'MVPP'
tp231
F6
s(S'DP'
S'ADVP'
tp232
F6
s(S'MP'
S'MVADP'
tp233
F2
s(S'CP'
S'CDDPPP'
tp234
F9
s(g133
S'NNPP'
tp235
F21
s(S'DP'
p236
S'DDDDNP'
tp237
F1
s(S'MP'
S'MVVDP'
tp238
F2
s(S'AP'
S'AACP'
tp239
F10
s(S'PP'
S'PPVVP'
tp240
F2
s(S'DP'
S'DNNNP'
tp241
F5
s(g209
S'ADVDDVP'
tp242
F1
s(S'PP'
S'PADVADVVP'
tp243
F2
s(S'VP'
p244
S'VADVDDP'
tp245
F3
s(S'PP'
S'PMMP'
tp246
F2
s(S'PP'
S'PVVVP'
tp247
F5
s(S'PP'
S'PMP'
tp248
F7
s(S'PP'
S'PADVADVADVVP'
tp249
F1
s(S'CP'
p250
S'CCDP'
tp251
F80
s(S'DP'
S'ADVADVADVDPP'
tp252
F1
s(S'VP'
S'VADVANP'
tp253
F1
s(g64
S'PPNNNP'
tp254
F2
s(S'VP'
S'ADVAVVP'
tp255
F1
s(S'NP'
S'NVVVP'
tp256
F7
s(S'CP'
S'CDDDPP'
tp257
F5
s(g31
S'PPADVVP'
tp258
F3
s(S'VP'
S'VVVDP'
tp259
F3
s(S'PP'
S'PDDDDP'
tp260
F1
s(S'MP'
S'MVACP'
tp261
F1
s(S'CP'
S'CCCCDP'
tp262
F1
s(S'AP'
S'AACCP'
tp263
F2
s(S'PP'
p264
S'AAPNP'
tp265
F2
s(S'CP'
S'CADADVPP'
tp266
F1
s(S'PP'
S'PADVVVP'
tp267
F2
s(g54
S'PPP'
tp268
F107
s(S'NP'
p269
S'NNVVP'
tp270
F6
s(g269
S'NAVP'
tp271
F12
s(S'DP'
S'ADVADVDDNP'
tp272
F1
s(S'DP'
S'DDNNNP'
tp273
F1
s(S'PP'
S'PADDP'
tp274
F1
s(S'DP'
S'ADVDVP'
tp275
F1
s(S'NP'
S'NCCCP'
tp276
F5
s(S'DP'
S'DADVADVPPP'
tp277
F3
s(g150
S'AADVVP'
tp278
F1
s(S'DP'
S'ADVADVDNP'
tp279
F1
s(S'VP'
S'VPP'
tp280
F114
s(S'CP'
S'ADVCCDP'
tp281
F1
s(S'AP'
S'ADVADVADVACP'
tp282
F1
s(g236
S'ADVDDNP'
tp283
F1
s(S'NP'
S'AANPPP'
tp284
F1
s(S'NP'
S'NNNCP'
tp285
F3
s(S'PP'
S'PADVDP'
tp286
F6
s(S'CP'
S'CDADVAPP'
tp287
F1
s(S'DP'
S'DANNP'
tp288
F2
s(S'MP'
S'MADVVAP'
tp289
F1
s(g4
S'CDDPP'
tp290
F43
s(S'DP'
S'DAAPP'
tp291
F5
s(g264
S'PVVP'
tp292
F26
s(S'CP'
p293
S'CADPPP'
tp294
F2
s(g244
S'VVVPPP'
tp295
F1
s(g20
S'ADVVCP'
tp296
F3
s(g188
S'VPPP'
tp297
F14
s(g43
S'AVCCP'
tp298
F2
s(S'VP'
S'VVPPP'
tp299
F1
s(g11
S'PPAP'
tp300
F14
s(S'DP'
p301
S'DVVP'
tp302
F23
s(S'PP'
S'PADVAVP'
tp303
F1
s(S'MP'
S'MAAVDDP'
tp304
F1
s(S'MP'
S'ADVMVP'
tp305
F2
s(S'NP'
S'ANMP'
tp306
F5
s(g121
S'ADVPPP'
tp307
F4
s(g107
S'ADVADVNVP'
tp308
F1
s(S'VP'
S'VVVP'
tp309
F1
s(g250
S'CADVDPP'
tp310
F7
s(S'NP'
p311
S'ANCP'
tp312
F29
s(S'DP'
S'DCP'
tp313
F11
s(S'NP'
S'ANNCP'
tp314
F2
s(S'NP'
S'AAANCP'
tp315
F2
s(g39
S'ADVVVVP'
tp316
F1
s(S'DP'
S'DADVCP'
tp317
F1
s(g172
S'DDDP'
tp318
F10
s(S'DP'
S'DDADVPP'
tp319
F3
s(S'NP'
S'ANVVP'
tp320
F5
s(S'VP'
S'VVDP'
tp321
F27
s(S'NP'
S'NPPP'
tp322
F18
s(S'CP'
S'CCCCDDP'
tp323
F1
s(S'DP'
S'DAVP'
tp324
F12
s(S'NP'
S'NNNMP'
tp325
F2
s(g150
S'ACP'
tp326
F44
s(S'PP'
S'AAPAP'
tp327
F2
s(g35
S'PPNP'
tp328
F37
s(S'DP'
S'AADVP'
tp329
F1
s(S'PP'
p330
S'AAPPADVDDP'
tp331
F1
s(S'MP'
S'MADVVVAP'
tp332
F1
s(S'CP'
S'CDDADVPP'
tp333
F1
s(S'AP'
S'ADP'
tp334
F204
s(S'DP'
S'DDPPPP'
tp335
F2
s(S'DP'
p336
S'ADVDAAPP'
tp337
F1
s(S'VP'
S'VAAANP'
tp338
F1
s(S'VP'
S'VVPPPP'
tp339
F1
s(S'DP'
S'DDVVVP'
tp340
F1
s(S'AP'
S'AAADP'
tp341
F2
s(S'VP'
p342
S'VVAP'
tp343
F16
s(g39
S'ADVADVADVADVVVCP'
tp344
F1
s(S'NP'
S'NADVAPP'
tp345
F2
s(S'NP'
p346
S'NVP'
tp347
F226
s(S'PP'
S'PAAVP'
tp348
F1
s(S'NP'
S'NAAPP'
tp349
F1
s(S'PP'
p350
S'PPPPVP'
tp351
F2
s(S'VP'
p352
S'VDDP'
tp353
F28
s(S'NP'
S'AANVVP'
tp354
F1
s(S'DP'
p355
S'DADVAPP'
tp356
F2
s(S'NP'
S'NADVADVVVP'
tp357
F1
s(g346
S'ANPP'
tp358
F24
s(S'PP'
p359
S'PPPPP'
tp360
F2
s(S'PP'
S'ADVADVPDP'
tp361
F4
s(S'DP'
p362
S'ADVDPP'
tp363
F14
s(S'NP'
S'ADVADVNPP'
tp364
F1
s(S'MP'
S'MVAADP'
tp365
F1
s(S'DP'
S'DDP'
tp366
F36
s(S'CP'
S'CAADPP'
tp367
F3
s(S'DP'
S'DDADVADVPPP'
tp368
F1
s(g70
S'NAACP'
tp369
F2
s(g121
S'PNNP'
tp370
F28
s(S'PP'
S'APNNP'
tp371
F2
s(S'MP'
S'MMNP'
tp372
F1
s(S'DP'
p373
S'AAADPP'
tp374
F1
s(S'VP'
p375
S'AVAP'
tp376
F2
s(S'MP'
S'MMVP'
tp377
F3
s(S'NP'
S'ADVNCP'
tp378
F4
s(S'DP'
p379
S'ADPP'
tp380
F35
s(S'CP'
S'ACDP'
tp381
F24
s(S'DP'
S'DDADVADVVP'
tp382
F1
s(g112
S'ADVADVVAAP'
tp383
F1
s(S'AP'
S'ADVANP'
tp384
F1
s(g61
S'PADVADVADVPPP'
tp385
F1
s(g52
S'NNACP'
tp386
F1
s(S'CP'
S'CDADVPPP'
tp387
F1
s(g188
S'VAP'
tp388
F99
s(S'MP'
S'MNVVP'
tp389
F1
s(S'PP'
S'PADVAMP'
tp390
F1
s(g211
S'DDDPP'
tp391
F10
s(S'PP'
S'ADVADVADVADVPPNP'
tp392
F1
s(S'CP'
S'CDAAPP'
tp393
F2
s(S'PP'
p394
S'PAAPP'
tp395
F2
s(S'AP'
S'AAVVP'
tp396
F1
s(S'DP'
p397
S'DDDPPP'
tp398
F3
s(S'DP'
S'ADAP'
tp399
F1
s(S'DP'
S'DADVDP'
tp400
F1
s(S'MP'
S'MVVCCP'
tp401
F1
s(g211
S'ADVDDDDP'
tp402
F1
s(S'DP'
S'DDDAP'
tp403
F1
s(S'PP'
S'PADVADVADP'
tp404
F1
s(S'AP'
S'AAACP'
tp405
F1
s(g352
S'ADVVVDP'
tp406
F3
s(g359
S'PPPVP'
tp407
F3
s(S'AP'
S'AADDP'
tp408
F4
s(S'VP'
S'VAANP'
tp409
F2
s(S'NP'
p410
S'NVVVVP'
tp411
F2
s(S'AP'
p412
S'AADVADVAP'
tp413
F1
s(S'VP'
S'VVAADP'
tp414
F1
s(S'PP'
S'PPPDDP'
tp415
F1
s(g164
S'PANP'
tp416
F19
s(S'PP'
p417
S'PDDDP'
tp418
F3
s(S'DP'
S'DADVADVNNP'
tp419
F1
s(S'MP'
S'ADVAMVP'
tp420
F1
s(S'CP'
p421
S'CADVADVADVADVDPP'
tp422
F1
s(g147
S'AAVP'
tp423
F5
s(S'AP'
S'AVVP'
tp424
F8
s(S'NP'
S'NDDP'
tp425
F10
s(S'CP'
S'CDDADVADVPPP'
tp426
F1
s(g125
S'ACCP'
tp427
F5
s(S'NP'
p428
S'NDP'
tp429
F59
s(S'MP'
S'MVAAP'
tp430
F2
s(g209
S'DDVP'
tp431
F22
s(S'DP'
S'AADNNNP'
tp432
F1
s(S'NP'
S'ADVADVNVVVP'
tp433
F1
s(S'NP'
S'AANVP'
tp434
F1
s(S'PP'
S'PPADVANP'
tp435
F1
s(S'DP'
S'ADDVP'
tp436
F1
s(S'VP'
S'VNNNP'
tp437
F2
s(S'VP'
p438
S'VADVADVPP'
tp439
F1
s(g196
S'ADVPAP'
tp440
F2
s(g183
S'PCP'
tp441
F15
s(S'VP'
S'VADVADP'
tp442
F1
s(S'PP'
S'PAADP'
tp443
F2
s(S'MP'
S'MDNP'
tp444
F1
s(S'MP'
S'MADVADVVCP'
tp445
F1
s(S'VP'
S'ADVAVCP'
tp446
F1
s(S'NP'
S'NNNDP'
tp447
F2
s(g147
S'ADVACP'
tp448
F10
s(S'DP'
p449
S'DDADVVP'
tp450
F2
s(g428
S'NNVP'
tp451
F24
s(S'MP'
S'MVCP'
tp452
F6
s(g200
S'CCDDP'
tp453
F14
s(g438
S'AVNNP'
tp454
F2
s(S'NP'
S'NNADVVP'
tp455
F1
s(S'PP'
S'PPAAAANP'
tp456
F1
s(g311
S'NAAP'
tp457
F6
s(g301
S'DADVNP'
tp458
F3
s(S'NP'
S'NNNNVP'
tp459
F1
s(g39
S'VVCP'
tp460
F15
s(S'NP'
S'AANCP'
tp461
F3
s(S'VP'
S'VAADP'
tp462
F3
s(S'AP'
S'ADVAVVP'
tp463
F1
s(S'NP'
S'NNDDP'
tp464
F2
s(S'VP'
S'ADVVPP'
tp465
F10
s(S'VP'
S'VNNP'
tp466
F25
s(S'NP'
S'NADP'
tp467
F3
s(g362
S'DDNP'
tp468
F38
s(S'NP'
S'NADVCP'
tp469
F5
s(S'DP'
S'DDNNP'
tp470
F3
s(g221
S'ADVDDVVP'
tp471
F1
s(S'NP'
S'ADVADVNCP'
tp472
F2
s(S'AP'
S'ADVADDP'
tp473
F1
s(S'DP'
p474
S'AADPP'
tp475
F4
s(S'DP'
S'DADVADVANP'
tp476
F1
s(S'PP'
S'AAPDP'
tp477
F3
s(S'NP'
S'ANVVVP'
tp478
F3
s(S'MP'
S'MADVVDP'
tp479
F1
s(S'DP'
S'ADVVP'
tp480
F2
s(S'DP'
S'ADVDNNP'
tp481
F1
s(g169
S'ACDDP'
tp482
F2
s(S'NP'
S'ADVADVNNCP'
tp483
F1
s(S'AP'
p484
S'AAPP'
tp485
F8
s(g342
S'VVCCP'
tp486
F6
s(g336
S'DADVVVP'
tp487
F1
s(g449
S'DADVADVNP'
tp488
F3
s(S'NP'
S'NNPPP'
tp489
F3
s(g269
S'NAPP'
tp490
F10
s(S'AP'
S'ADVADVADP'
tp491
F2
s(S'PP'
p492
S'ADVPPPP'
tp493
F1
s(S'MP'
S'MVDDP'
tp494
F3
s(S'NP'
S'ANCCP'
tp495
F6
s(g410
S'AANPP'
tp496
F2
s(S'NP'
S'NNCCP'
tp497
F10
s(g346
S'NNMP'
tp498
F9
s(S'DP'
S'DDDVP'
tp499
F2
s(S'NP'
S'NNADVCP'
tp500
F1
s(g330
S'PAAAP'
tp501
F6
s(S'PP'
S'ADVADVPNP'
tp502
F2
s(S'VP'
p503
S'VVVDDP'
tp504
F2
s(S'DP'
S'ADVDDAP'
tp505
F1
s(g421
S'CDDAPP'
tp506
F1
s(S'NP'
p507
S'ANAP'
tp508
F2
s(S'MP'
S'MVAP'
tp509
F7
s(S'VP'
S'VADVADVDDP'
tp510
F1
s(g121
S'PVP'
tp511
F217
s(S'VP'
S'VADVPPP'
tp512
F1
s(S'DP'
S'DADVAVP'
tp513
F1
s(S'AP'
S'ADVADVAPP'
tp514
F1
s(S'VP'
S'VPPPP'
tp515
F1
s(g379
S'DVVVP'
tp516
F4
s(g394
S'PADVAP'
tp517
F1
s(S'VP'
S'AVCP'
tp518
F2
s(S'NP'
S'NADVADVAP'
tp519
F1
s(g15
S'DPP'
tp520
F356
s(S'NP'
S'ADVNVP'
tp521
F3
s(S'NP'
S'ADVNADVADVCP'
tp522
F1
s(g373
S'DDPP'
tp523
F68
s(g15
S'DANP'
tp524
F55
s(S'NP'
S'NADVPP'
tp525
F1
s(S'VP'
S'VVVADVDP'
tp526
F1
s(g507
S'NADVADP'
tp527
F1
s(S'MP'
S'MMAP'
tp528
F1
s(S'NP'
S'NAAVP'
tp529
F1
s(S'DP'
S'ADVADVADPP'
tp530
F1
s(S'MP'
S'MADVVADVAP'
tp531
F1
s(S'DP'
p532
S'ADVDDAPP'
tp533
F2
s(S'PP'
S'PMMMP'
tp534
F1
s(S'NP'
p535
S'NADVCCP'
tp536
F2
s(S'DP'
S'DCCP'
tp537
F1
s(S'PP'
S'ADVADVPPP'
tp538
F1
s(S'CP'
S'CDPPPPP'
tp539
F1
s(g202
S'ADVADVADVVDDP'
tp540
F2
s(S'VP'
S'AVVDP'
tp541
F1
s(g206
S'PDDP'
tp542
F28
s(S'DP'
p543
S'DADVADVADVVP'
tp544
F1
s(S'PP'
S'PCCP'
tp545
F1
s(S'PP'
S'ADVAPNP'
tp546
F2
s(g209
S'ADPPP'
tp547
F6
s(S'PP'
S'APAAP'
tp548
F1
s(S'VP'
S'AVDP'
tp549
F21
s(g535
S'NNP'
tp550
F1
s(S'DP'
S'ADVADPP'
tp551
F1
s(S'DP'
S'DAANP'
tp552
F5
s(g147
S'ADDP'
tp553
F19
s(S'VP'
S'ADVVVAP'
tp554
F1
s(S'PP'
p555
S'ADVPPNP'
tp556
F4
s(g72
S'VVVCP'
tp557
F3
s(S'CP'
S'CADVADVDPP'
tp558
F3
s(g15
S'DPPP'
tp559
F71
s(S'VP'
S'VANNP'
tp560
F1
s(S'NP'
S'NMMMP'
tp561
F1
s(g350
S'ADVPNP'
tp562
F3
s(g35
S'PPDP'
tp563
F26
s(S'DP'
S'DDCP'
tp564
F1
s(g140
S'ANADVADVVP'
tp565
F1
s(g11
S'PPADVDDP'
tp566
F1
s(S'AP'
S'AAAPP'
tp567
F1
s(S'MP'
S'AAMDP'
tp568
F1
s(S'NP'
S'NAP'
tp569
F62
s(g145
S'ADVADVPPPP'
tp570
F2
s(S'PP'
S'ADVPAAP'
tp571
F1
s(S'VP'
S'ADVAVNP'
tp572
F1
s(g352
S'VVP'
tp573
F35
s(S'DP'
p574
S'DDAPP'
tp575
F3
s(g35
S'APNP'
tp576
F10
s(g474
S'DDVVP'
tp577
F4
s(S'AP'
S'AAADDP'
tp578
F2
s(g202
S'VVVNP'
tp579
F6
s(S'VP'
S'VVDDP'
tp580
F1
s(g375
S'VVVADVANP'
tp581
F1
s(S'MP'
S'MVNNP'
tp582
F3
s(g18
S'CDPP'
tp583
F286
s(S'AP'
S'ADDDP'
tp584
F1
s(S'NP'
S'NNDP'
tp585
F16
s(S'MP'
S'MMMVP'
tp586
F1
s(S'NP'
S'NADVADVADVADVPPP'
tp587
F1
s(g421
S'ADVCDP'
tp588
F8
s(S'AP'
S'ADVAAP'
tp589
F1
s(g503
S'ADVADVVNP'
tp590
F2
s(S'VP'
S'ADVADVVCP'
tp591
F1
s(S'VP'
S'VADVADVDP'
tp592
F1
s(S'PP'
S'PPNNP'
tp593
F6
s(g417
S'ADVAPPP'
tp594
F2
s(S'PP'
S'PPMP'
tp595
F2
s(S'DP'
S'ADVADVDPP'
tp596
F3
s(g218
S'VDP'
tp597
F251
s(S'NP'
S'NADVAP'
tp598
F1
s(S'VP'
S'AVDDP'
tp599
F1
s(S'CP'
S'ADVADVCDDP'
tp600
F1
s(g532
S'DDCCP'
tp601
F1
s(g543
S'DAP'
tp602
F37
s(S'CP'
S'CADPP'
tp603
F22
s(S'NP'
S'NADVAVP'
tp604
F1
s(S'PP'
S'PPAVP'
tp605
F2
s(g121
S'PPDDDP'
tp606
F1
s(S'VP'
S'AVPP'
tp607
F5
s(S'CP'
S'CDPPPP'
tp608
F2
s(S'VP'
S'AAVDP'
tp609
F4
s(g355
S'AADNNP'
tp610
F2
s(g555
S'APPP'
tp611
F10
s(S'VP'
p612
S'ADVVADVAP'
tp613
F1
s(S'DP'
S'DADVADVPP'
tp614
F5
s(S'AP'
S'AADVADVVP'
tp615
F1
s(g555
S'PPPNP'
tp616
F3
s(g140
S'NPP'
tp617
F163
s(S'PP'
S'APADVPP'
tp618
F1
s(S'NP'
S'AAANPP'
tp619
F1
s(S'PP'
S'PADVADVNP'
tp620
F2
s(S'AP'
S'AADP'
tp621
F45
s(S'VP'
S'VADVPP'
tp622
F2
s(S'CP'
S'CCADVDDP'
tp623
F1
s(g492
S'ADVPVP'
tp624
F7
s(S'DP'
S'DDDDPP'
tp625
F1
s(S'NP'
S'ADVADVANCP'
tp626
F1
s(g112
S'ADVVANP'
tp627
F1
s(S'PP'
S'PAMP'
tp628
F1
s(S'PP'
S'ADVPDP'
tp629
F4
s(g140
S'NCP'
tp630
F227
s(g91
S'ADVVVPP'
tp631
F1
s(S'NP'
S'ADVANDP'
tp632
F1
s(S'AP'
S'AAAP'
tp633
F2
s(S'AP'
S'AAMP'
tp634
F1
s(g89
S'ADVPDDP'
tp635
F4
s(S'NP'
S'AANDP'
tp636
F2
s(S'VP'
S'VDDDP'
tp637
F7
s(S'MP'
S'MNVP'
tp638
F6
s(g293
S'ADVADVCCDP'
tp639
F1
s(S'PP'
S'PADVADVAP'
tp640
F1
s(g188
S'VAPP'
tp641
F7
s(S'MP'
S'MAVNP'
tp642
F1
s(g72
S'ADVVDP'
tp643
F13
s(g37
S'DADVPP'
tp644
F17
s(S'AP'
S'AMP'
tp645
F2
s(S'CP'
S'CCADP'
tp646
F2
s(S'PP'
S'ADVADVADVPNNP'
tp647
F1
s(S'AP'
S'ADVAPP'
tp648
F5
s(g397
S'DDADVAPP'
tp649
F1
s(g412
S'ADVADVANP'
tp650
F1
s(S'CP'
S'AACDP'
tp651
F4
s(S'NP'
S'NNNCCP'
tp652
F1
s(S'DP'
S'ADVDPPP'
tp653
F2
s(S'DP'
S'DVP'
tp654
F203
s(g269
S'NADVADVADVADVVVP'
tp655
F1
s(S'NP'
S'ADVNPP'
tp656
F1
s(S'NP'
S'NNCCCP'
tp657
F1
s(g484
S'AVP'
tp658
F25
s(g97
S'NADVVP'
tp659
F10
s(S'NP'
S'NNADVADVVP'
tp660
F1
s(S'VP'
S'ADVVPPP'
tp661
F1
s(S'DP'
S'DDPPP'
tp662
F14
s(S'NP'
S'ADVNMP'
tp663
F2
s(S'NP'
S'NNAP'
tp664
F4
s(S'CP'
S'CDADVPP'
tp665
F9
s(g20
S'VNP'
tp666
F195
s(S'VP'
S'VANP'
tp667
F11
s(g612
S'VADVAP'
tp668
F11
s(S'VP'
S'VVVAP'
tp669
F1
s(g574
S'ADVADVADVADVDPP'
tp670
F1
s(S'VP'
S'ADVADVVVDP'
tp671
F1
s(S'NP'
S'NADVPPP'
tp672
F1
s.