ccollections
defaultdict
p1
(c__builtin__
float
p2
tRp3
(S'NP'
S'NAMP'
tp4
F1
s(S'DP'
S'ADDPP'
tp5
F1
s(S'NP'
p6
S'AAANNAP'
tp7
F1
s(S'VP'
S'ADVVVNP'
tp8
F1
s(S'NP'
p9
S'NNAAPPP'
tp10
F1
s(S'DP'
p11
S'DAANNP'
tp12
F1
s(S'AP'
p13
S'AVVVP'
tp14
F2
s(S'PP'
p15
S'PAPP'
tp16
F7
s(S'PP'
S'PADVNP'
tp17
F3
s(S'DP'
p18
S'DNP'
tp19
F209
s(S'NP'
S'ADVNDP'
tp20
F2
s(S'PP'
S'AAPDDP'
tp21
F1
s(S'CP'
S'CDPPP'
tp22
F39
s(S'DP'
S'ADVADVADDP'
tp23
F1
s(S'VP'
p24
S'AAAVCCP'
tp25
F1
s(S'VP'
S'VADP'
tp26
F10
s(S'DP'
S'DNNNNP'
tp27
F1
s(S'PP'
S'PPPPP'
tp28
F7
s(S'CP'
S'CDAAPPP'
tp29
F1
s(S'DP'
S'DAAP'
tp30
F3
s(S'PP'
S'PPPPPP'
tp31
F1
s(S'PP'
S'APPDP'
tp32
F1
s(S'DP'
p33
S'DAADP'
tp34
F1
s(S'DP'
S'ADNNP'
tp35
F4
s(S'VP'
S'ADVVNP'
tp36
F9
s(S'MP'
S'MVDP'
tp37
F6
s(S'CP'
p38
S'AAACCDP'
tp39
F1
s(S'NP'
S'AANNPP'
tp40
F1
s(S'PP'
p41
S'PPPP'
tp42
F21
s(S'MP'
S'MVCCCP'
tp43
F1
s(S'DP'
p44
S'DDDNP'
tp45
F4
s(S'AP'
S'APPPPP'
tp46
F1
s(S'NP'
S'AAAANNADVCP'
tp47
F1
s(S'VP'
S'VACP'
tp48
F7
s(S'DP'
p49
S'DADVVP'
tp50
F4
s(S'VP'
S'VMMMP'
tp51
F1
s(S'PP'
S'PADVNNP'
tp52
F1
s(S'AP'
S'AADVPP'
tp53
F1
s(S'NP'
S'NADVACP'
tp54
F1
s(S'NP'
S'NCCCP'
tp55
F3
s(S'CP'
S'CADVADVDDPP'
tp56
F1
s(S'VP'
p57
S'VCP'
tp58
F98
s(S'NP'
S'NANP'
tp59
F2
s(S'DP'
p60
S'DDDNNP'
tp61
F1
s(S'PP'
S'PAP'
tp62
F94
s(S'CP'
p63
S'CDADVADVADVPP'
tp64
F1
s(S'NP'
S'ANPPP'
tp65
F3
s(S'NP'
S'NAAAVP'
tp66
F1
s(S'PP'
p67
S'PPADVDP'
tp68
F1
s(S'PP'
S'PNP'
tp69
F198
s(S'AP'
S'AADVADVDP'
tp70
F1
s(S'PP'
p71
S'PAAADP'
tp72
F1
s(S'NP'
S'ADVADVADVNCP'
tp73
F2
s(S'DP'
p74
S'DDP'
tp75
F50
s(S'NP'
p76
S'NNNPP'
tp77
F3
s(S'VP'
p78
S'VCCP'
tp79
F16
s(S'MP'
S'MCDP'
tp80
F1
s(S'NP'
p81
S'ANADVAP'
tp82
F1
s(S'CP'
S'AACCDP'
tp83
F2
s(g11
S'DDAANP'
tp84
F2
s(S'NP'
p85
S'NMP'
tp86
F30
s(S'VP'
S'VAAADP'
tp87
F1
s(S'VP'
S'VMMP'
tp88
F2
s(S'PP'
S'PDP'
tp89
F213
s(S'CP'
S'CDADVADVPP'
tp90
F1
s(S'VP'
S'VNNNNP'
tp91
F1
s(S'NP'
S'ADVADVADVNDP'
tp92
F1
s(S'VP'
S'VVVDDP'
tp93
F1
s(S'VP'
S'AVAAP'
tp94
F1
s(S'DP'
p95
S'DDADVADVADVAVP'
tp96
F1
s(S'NP'
S'NACCP'
tp97
F1
s(S'PP'
p98
S'PADVPP'
tp99
F2
s(S'NP'
S'NNADVCP'
tp100
F1
s(S'VP'
S'VVADVNP'
tp101
F1
s(S'MP'
S'MMMVVP'
tp102
F1
s(S'DP'
S'DPPPP'
tp103
F7
s(S'DP'
S'DDANP'
tp104
F3
s(S'PP'
S'PADVADP'
tp105
F1
s(S'NP'
p106
S'NACP'
tp107
F13
s(g85
S'NCCP'
tp108
F24
s(S'AP'
S'AAAADP'
tp109
F1
s(S'NP'
p110
S'NNCP'
tp111
F29
s(S'VP'
p112
S'VVAVP'
tp113
F1
s(g106
S'NADVADVVP'
tp114
F1
s(S'DP'
p115
S'DDDDP'
tp116
F3
s(S'VP'
S'AVNP'
tp117
F3
s(S'VP'
S'VVADP'
tp118
F2
s(S'VP'
S'ADVADVVNNNP'
tp119
F1
s(S'PP'
S'ADVPVVP'
tp120
F1
s(S'DP'
p121
S'ADADVNP'
tp122
F1
s(S'VP'
p123
S'VVMP'
tp124
F1
s(S'MP'
S'MVAPP'
tp125
F2
s(S'CP'
S'CAAADDPP'
tp126
F1
s(S'MP'
S'MVPPP'
tp127
F1
s(S'PP'
S'PNNNNP'
tp128
F2
s(S'CP'
S'CCCDP'
tp129
F6
s(S'VP'
S'VCCCP'
tp130
F2
s(S'PP'
p131
S'APDP'
tp132
F18
s(g106
S'NAAPPP'
tp133
F1
s(S'VP'
S'ADVVNNP'
tp134
F4
s(S'AP'
S'ADVAADVCP'
tp135
F1
s(S'VP'
p136
S'VVANP'
tp137
F2
s(S'VP'
S'VVVVDP'
tp138
F2
s(S'DP'
S'DDAAAP'
tp139
F1
s(S'DP'
p140
S'DADVADVADVPP'
tp141
F1
s(S'PP'
p142
S'PAAP'
tp143
F18
s(S'MP'
p144
S'MPNNP'
tp145
F1
s(S'NP'
S'NNADVAPP'
tp146
F1
s(g18
S'DNNP'
tp147
F43
s(S'DP'
S'DPPPPP'
tp148
F1
s(S'CP'
S'CDDPPPP'
tp149
F1
s(S'CP'
S'CCADVDP'
tp150
F1
s(S'VP'
S'VVNNNP'
tp151
F1
s(S'VP'
p152
S'VVACP'
tp153
F2
s(S'NP'
S'AAANAP'
tp154
F2
s(S'NP'
p155
S'NNNVP'
tp156
F8
s(S'PP'
S'PPAAPP'
tp157
F1
s(S'VP'
S'VDP'
tp158
F160
s(S'PP'
p159
S'AAPPDP'
tp160
F5
s(S'PP'
S'PADVVP'
tp161
F4
s(g121
S'DACP'
tp162
F2
s(S'PP'
S'APAP'
tp163
F6
s(S'AP'
S'APP'
tp164
F20
s(S'NP'
S'AANADVVVP'
tp165
F1
s(S'NP'
S'NADVMP'
tp166
F1
s(S'AP'
S'AAP'
tp167
F10
s(S'NP'
p168
S'ADVADVNDP'
tp169
F1
s(S'DP'
S'DADVADVNP'
tp170
F1
s(S'NP'
S'ADVANPP'
tp171
F2
s(S'NP'
S'NAAACP'
tp172
F1
s(S'VP'
p173
S'VADVADVNP'
tp174
F2
s(S'CP'
S'CDDDDPP'
tp175
F1
s(S'MP'
S'MADVVMP'
tp176
F1
s(S'PP'
S'PAANP'
tp177
F6
s(S'VP'
S'VVVANP'
tp178
F1
s(S'NP'
p179
S'ANVP'
tp180
F18
s(S'MP'
S'MVNP'
tp181
F7
s(S'NP'
p182
S'NNANP'
tp183
F1
s(S'AP'
S'ADVAADP'
tp184
F1
s(S'PP'
S'PAVP'
tp185
F10
s(S'MP'
S'ADVMVP'
tp186
F1
s(S'VP'
S'ADVVMP'
tp187
F2
s(S'VP'
p188
S'VVVPP'
tp189
F4
s(S'CP'
p190
S'CADVADVADPP'
tp191
F1
s(S'PP'
p192
S'APPPP'
tp193
F1
s(S'DP'
p194
S'DADP'
tp195
F5
s(S'AP'
S'ADVADP'
tp196
F5
s(S'VP'
S'VVVVAAP'
tp197
F1
s(S'VP'
S'VVADVPP'
tp198
F1
s(S'PP'
p199
S'APDDP'
tp200
F2
s(S'NP'
S'ADVNAP'
tp201
F1
s(S'DP'
S'ADVDDDP'
tp202
F2
s(S'PP'
p203
S'PPCP'
tp204
F2
s(g15
S'APVP'
tp205
F7
s(S'CP'
p206
S'CADVADPPP'
tp207
F1
s(S'VP'
p208
S'VVNP'
tp209
F21
s(S'NP'
p210
S'ANNP'
tp211
F1
s(S'PP'
p212
S'ADVPPPP'
tp213
F1
s(g41
S'PPVP'
tp214
F17
s(S'MP'
p215
S'MPPAANP'
tp216
F1
s(g152
S'VVCCCCP'
tp217
F1
s(g98
S'ADVPAADP'
tp218
F1
s(S'VP'
S'VADVDP'
tp219
F3
s(S'VP'
p220
S'VAAP'
tp221
F11
s(g85
S'ANDP'
tp222
F20
s(S'NP'
p223
S'NVVP'
tp224
F35
s(S'PP'
S'AAPVP'
tp225
F2
s(g212
S'PPADP'
tp226
F1
s(S'VP'
S'VMP'
tp227
F19
s(S'VP'
p228
S'VVNNP'
tp229
F4
s(S'CP'
S'CDAPP'
tp230
F20
s(S'VP'
p231
S'VVAAP'
tp232
F1
s(S'DP'
S'ADVADVP'
tp233
F1
s(S'VP'
S'AAAAVCP'
tp234
F1
s(S'DP'
S'ADNP'
tp235
F14
s(S'PP'
p236
S'PADP'
tp237
F19
s(g123
S'ADVVVCP'
tp238
F1
s(S'MP'
p239
S'MVNNNNP'
tp240
F1
s(S'AP'
S'AAADVADVDP'
tp241
F1
s(S'DP'
p242
S'ADVADVDVP'
tp243
F1
s(S'DP'
S'DADVAP'
tp244
F1
s(S'DP'
S'DAPP'
tp245
F38
s(S'NP'
p246
S'AAAAANNVVP'
tp247
F1
s(S'VP'
S'AVVP'
tp248
F2
s(g215
S'MVVCP'
tp249
F1
s(S'NP'
S'AANNVVVP'
tp250
F1
s(S'DP'
S'DAAVP'
tp251
F1
s(S'VP'
S'ADVADVVDP'
tp252
F1
s(S'AP'
S'ADVAVVVVP'
tp253
F1
s(S'PP'
S'PPPDP'
tp254
F5
s(S'DP'
S'DAAPPP'
tp255
F3
s(S'DP'
p256
S'AAAADDNP'
tp257
F1
s(S'AP'
p258
S'AAPPP'
tp259
F1
s(S'DP'
S'DAAANP'
tp260
F3
s(S'VP'
p261
S'VAAPP'
tp262
F2
s(S'DP'
S'ADVDNP'
tp263
F6
s(S'VP'
S'VVPP'
tp264
F12
s(S'MP'
S'AAMMVP'
tp265
F1
s(S'PP'
S'PAVVP'
tp266
F1
s(S'MP'
S'MVPP'
tp267
F10
s(S'DP'
S'ADVP'
tp268
F8
s(S'CP'
p269
S'CDDPPP'
tp270
F7
s(S'NP'
p271
S'NNPP'
tp272
F21
s(S'NP'
S'AAANDP'
tp273
F1
s(S'MP'
S'MVVDP'
tp274
F1
s(S'DP'
S'DADVPPP'
tp275
F1
s(g203
S'PPVVP'
tp276
F2
s(S'PP'
S'APADVCP'
tp277
F1
s(S'DP'
S'DDDDDVP'
tp278
F1
s(S'DP'
p279
S'DNNNP'
tp280
F2
s(S'DP'
S'ADVDDVP'
tp281
F2
s(S'PP'
S'PADVADVVP'
tp282
F1
s(S'NP'
S'AAAANDP'
tp283
F1
s(S'PP'
p284
S'PMMP'
tp285
F1
s(g15
S'PVVVP'
tp286
F2
s(S'PP'
S'PMP'
tp287
F5
s(S'NP'
S'NNMMP'
tp288
F2
s(S'PP'
S'PAAPPP'
tp289
F1
s(S'CP'
S'CCDP'
tp290
F53
s(S'MP'
S'AMVP'
tp291
F1
s(S'NP'
S'NAAACCP'
tp292
F1
s(S'DP'
p293
S'AADDPP'
tp294
F1
s(S'NP'
S'NVVVP'
tp295
F7
s(S'CP'
S'CDDDPP'
tp296
F2
s(S'CP'
S'CDAAPP'
tp297
F4
s(S'VP'
S'VVVDP'
tp298
F3
s(S'PP'
S'PNNNP'
tp299
F9
s(g38
S'CCCCDP'
tp300
F1
s(S'VP'
S'VAAPPP'
tp301
F1
s(S'AP'
S'AACCP'
tp302
F1
s(S'PP'
S'AAPNP'
tp303
F2
s(S'PP'
p304
S'PADVVVP'
tp305
F1
s(g41
S'PPP'
tp306
F86
s(S'NP'
S'NNVVP'
tp307
F6
s(S'NP'
S'NAVP'
tp308
F4
s(S'PP'
p309
S'PADVAP'
tp310
F3
s(S'DP'
p311
S'ADVDVP'
tp312
F4
s(S'NP'
S'NAAAP'
tp313
F1
s(g210
S'NADVVVP'
tp314
F2
s(S'DP'
p315
S'ADVADVDNNP'
tp316
F1
s(S'DP'
p317
S'ADVADVDNP'
tp318
F1
s(S'VP'
S'VPP'
tp319
F127
s(g190
S'ADVCCDP'
tp320
F1
s(S'CP'
S'ACCDP'
tp321
F2
s(S'PP'
S'ADVADVPADVNP'
tp322
F1
s(S'NP'
S'NNNCP'
tp323
F2
s(S'PP'
p324
S'PADVDP'
tp325
F5
s(S'CP'
S'CDDDPPP'
tp326
F1
s(S'MP'
S'ADVADVADVMNP'
tp327
F1
s(S'DP'
p328
S'DANNP'
tp329
F1
s(S'PP'
p330
S'PADVAAP'
tp331
F1
s(S'CP'
p332
S'CDDPP'
tp333
F28
s(g44
S'DAAPP'
tp334
F7
s(g309
S'PVVP'
tp335
F18
s(g63
S'CADPPP'
tp336
F5
s(S'AP'
p337
S'AACP'
tp338
F5
s(S'VP'
p339
S'ADVVCP'
tp340
F3
s(S'VP'
S'VPPP'
tp341
F11
s(g317
S'ADAAPPPP'
tp342
F1
s(S'VP'
p343
S'VVPPP'
tp344
F2
s(S'PP'
S'PPAP'
tp345
F8
s(S'DP'
S'DVVP'
tp346
F31
s(g293
S'DAADDP'
tp347
F1
s(S'NP'
S'ANMP'
tp348
F1
s(S'AP'
S'APPP'
tp349
F2
s(g304
S'ADVPPP'
tp350
F1
s(S'DP'
S'ADVADPPP'
tp351
F1
s(S'VP'
p352
S'VVVP'
tp353
F4
s(g279
S'DDPPPP'
tp354
F3
s(g223
S'ANCP'
tp355
F21
s(S'DP'
S'DCP'
tp356
F4
s(g315
S'DVVVP'
tp357
F2
s(g256
S'DADVADVADVNP'
tp358
F1
s(g311
S'DDDP'
tp359
F6
s(S'AP'
S'ADDDDP'
tp360
F1
s(S'DP'
p361
S'DDADVPP'
tp362
F1
s(S'MP'
S'MAADP'
tp363
F1
s(S'NP'
S'ANVVP'
tp364
F3
s(g352
S'VVDP'
tp365
F38
s(S'NP'
p366
S'NPPP'
tp367
F15
s(S'PP'
S'PPAPP'
tp368
F2
s(S'NP'
S'ADVANADVAP'
tp369
F1
s(S'VP'
p370
S'ADVVNNNP'
tp371
F1
s(S'DP'
S'DAVP'
tp372
F15
s(S'VP'
S'AVVVP'
tp373
F2
s(S'NP'
S'NNNMP'
tp374
F2
s(g337
S'ACP'
tp375
F28
s(S'VP'
S'VVVVP'
tp376
F3
s(S'NP'
p377
S'NAAAAP'
tp378
F1
s(S'AP'
S'ADVACCP'
tp379
F1
s(S'NP'
p380
S'NAADP'
tp381
F2
s(g60
S'AADVP'
tp382
F4
s(S'NP'
p383
S'NNNNCCP'
tp384
F1
s(S'CP'
p385
S'CDDADVPP'
tp386
F1
s(S'CP'
S'CCCDDP'
tp387
F1
s(S'AP'
S'ADP'
tp388
F172
s(S'PP'
S'ADVPPDDP'
tp389
F1
s(S'CP'
S'CADVDPP'
tp390
F7
s(S'PP'
S'APVVP'
tp391
F4
s(S'VP'
S'VADVADVADVNP'
tp392
F1
s(S'VP'
S'VAAANP'
tp393
F2
s(g309
S'APPAP'
tp394
F1
s(S'VP'
S'AVDP'
tp395
F9
s(S'NP'
S'ANNVP'
tp396
F2
s(S'VP'
S'VVAP'
tp397
F12
s(S'MP'
S'MNADVVP'
tp398
F2
s(S'VP'
S'AVADVPPP'
tp399
F1
s(S'PP'
p400
S'PADVADVDP'
tp401
F2
s(S'MP'
p402
S'MAAVAAP'
tp403
F1
s(S'VP'
S'AAVCP'
tp404
F2
s(S'NP'
S'NPP'
tp405
F160
s(g284
S'PPPPNP'
tp406
F1
s(g110
S'NVP'
tp407
F180
s(S'PP'
S'PAAVP'
tp408
F2
s(S'PP'
S'AAPPNP'
tp409
F1
s(g377
S'NAAPP'
tp410
F1
s(S'VP'
S'VDDP'
tp411
F18
s(S'NP'
p412
S'ADVADVNACP'
tp413
F1
s(S'NP'
p414
S'AANNVP'
tp415
F2
s(S'NP'
S'AANVVP'
tp416
F2
s(g33
S'DADVAPP'
tp417
F1
s(g383
S'ADVADVNDDDP'
tp418
F1
s(S'NP'
S'ANCCCP'
tp419
F2
s(g155
S'ANPP'
tp420
F27
s(S'PP'
S'ADVPPDP'
tp421
F1
s(S'CP'
S'CCADVADVADP'
tp422
F1
s(S'MP'
S'MPDP'
tp423
F1
s(S'PP'
S'PADVADVADVMP'
tp424
F1
s(S'DP'
S'ADVDPP'
tp425
F9
s(g246
S'NNMMMP'
tp426
F1
s(S'VP'
S'VAAACP'
tp427
F1
s(S'NP'
S'NPPPP'
tp428
F2
s(S'DP'
p429
S'ADDP'
tp430
F3
s(S'PP'
S'PPPPPPP'
tp431
F1
s(g269
S'CAADPP'
tp432
F3
s(S'NP'
S'NADVPP'
tp433
F2
s(g366
S'NAACP'
tp434
F2
s(S'PP'
p435
S'PNNP'
tp436
F36
s(S'PP'
S'APNNP'
tp437
F2
s(S'DP'
p438
S'DAAANNP'
tp439
F1
s(S'DP'
S'AAADPP'
tp440
F1
s(S'VP'
S'AVAP'
tp441
F3
s(S'MP'
S'MMVP'
tp442
F3
s(S'PP'
S'PADVDDP'
tp443
F3
s(S'PP'
S'ADVADVAPDP'
tp444
F1
s(S'MP'
p445
S'MNCP'
tp446
F1
s(g223
S'ADVNCP'
tp447
F5
s(S'AP'
S'AADP'
tp448
F40
s(S'PP'
p449
S'PADVADVANP'
tp450
F1
s(S'MP'
S'MPDDP'
tp451
F1
s(g228
S'VAPPP'
tp452
F1
s(S'CP'
p453
S'ACDP'
tp454
F23
s(S'NP'
S'NNDP'
tp455
F23
s(S'DP'
S'ADVADVDVVVP'
tp456
F1
s(S'AP'
S'ADVANP'
tp457
F2
s(S'CP'
S'CDADVPPP'
tp458
F1
s(g339
S'VAP'
tp459
F80
s(S'MP'
S'MNVVP'
tp460
F1
s(g115
S'DDDPP'
tp461
F4
s(S'CP'
S'ADVCDDP'
tp462
F1
s(S'NP'
S'ANADVCP'
tp463
F1
s(S'PP'
S'PAAPP'
tp464
F2
s(S'MP'
S'MVVVDP'
tp465
F1
s(S'NP'
S'NADVADVAPP'
tp466
F1
s(S'DP'
S'DDDPPP'
tp467
F2
s(S'DP'
S'ADAP'
tp468
F1
s(S'MP'
S'MNNMP'
tp469
F1
s(g337
S'AAACP'
tp470
F3
s(S'VP'
S'ADVVVDP'
tp471
F1
s(g41
S'PPPVP'
tp472
F2
s(S'VP'
S'AAVAP'
tp473
F2
s(g13
S'AADDP'
tp474
F5
s(S'DP'
S'AADPPPP'
tp475
F1
s(g231
S'VAANP'
tp476
F1
s(S'NP'
S'NADVADVCP'
tp477
F1
s(S'PP'
S'ADVPNNP'
tp478
F1
s(S'NP'
S'NVVVVP'
tp479
F2
s(S'VP'
S'VVAADP'
tp480
F2
s(S'MP'
S'MADP'
tp481
F3
s(S'PP'
S'PPPDDP'
tp482
F1
s(S'CP'
S'CCAADP'
tp483
F1
s(S'AP'
S'AAACCP'
tp484
F1
s(g324
S'PANP'
tp485
F24
s(S'PP'
S'PDDDP'
tp486
F5
s(S'NP'
S'ANNMP'
tp487
F1
s(S'AP'
S'AAVP'
tp488
F5
s(g9
S'NAAP'
tp489
F15
s(g223
S'NDDP'
tp490
F16
s(S'AP'
p491
S'ACCP'
tp492
F5
s(S'VP'
S'AVPPP'
tp493
F2
s(S'NP'
S'NDP'
tp494
F90
s(g239
S'MVAAP'
tp495
F1
s(S'DP'
p496
S'DDVP'
tp497
F28
s(S'NP'
S'AANVP'
tp498
F8
s(S'VP'
S'VNNNP'
tp499
F2
s(S'PP'
p500
S'ADVPAP'
tp501
F2
s(g159
S'APADVDP'
tp502
F2
s(S'PP'
S'APPNP'
tp503
F3
s(S'NP'
S'NNPPP'
tp504
F3
s(S'PP'
S'PAADP'
tp505
F4
s(S'NP'
S'NADVCCP'
tp506
F1
s(g15
S'PACP'
tp507
F1
s(S'NP'
S'NNNDP'
tp508
F1
s(g258
S'ADVACP'
tp509
F3
s(g188
S'AVVDP'
tp510
F1
s(g140
S'ADPPP'
tp511
F5
s(S'MP'
S'MVCP'
tp512
F7
s(S'CP'
S'CCDDP'
tp513
F7
s(S'NP'
S'NNADVVP'
tp514
F1
s(S'DP'
S'DDADP'
tp515
F2
s(S'NP'
S'ADVANAP'
tp516
F1
s(g361
S'AAADNP'
tp517
F1
s(g106
S'NAACCP'
tp518
F2
s(S'PP'
S'PPAAP'
tp519
F3
s(S'NP'
S'NNNNVP'
tp520
F2
s(S'VP'
S'VVCP'
tp521
F13
s(S'MP'
S'MVAANP'
tp522
F1
s(S'NP'
S'AANCP'
tp523
F8
s(S'VP'
S'VVVADVDP'
tp524
F1
s(S'VP'
S'AVVPP'
tp525
F1
s(g500
S'APPP'
tp526
F9
s(S'VP'
S'ADVVPP'
tp527
F3
s(g236
S'PPNP'
tp528
F40
s(S'CP'
S'CDAPPP'
tp529
F3
s(g78
S'VNNP'
tp530
F28
s(S'AP'
S'AADVDP'
tp531
F2
s(S'NP'
S'NADP'
tp532
F7
s(g208
S'VADVNP'
tp533
F3
s(S'NP'
S'NADVCP'
tp534
F4
s(S'DP'
S'DDNNP'
tp535
F7
s(S'PP'
p536
S'AAPPP'
tp537
F1
s(S'MP'
S'MADVVNNNP'
tp538
F1
s(S'NP'
S'NNADVADVCCP'
tp539
F1
s(S'PP'
S'APCP'
tp540
F1
s(S'NP'
S'ADVADVNCP'
tp541
F1
s(g328
S'AADPP'
tp542
F11
s(g402
S'MADVVVCP'
tp543
F1
s(S'CP'
S'CDPPPPP'
tp544
F1
s(S'NP'
p545
S'NAAMMP'
tp546
F1
s(g182
S'ANVVVP'
tp547
F1
s(S'MP'
p548
S'MMADVNP'
tp549
F1
s(g453
S'ACDDP'
tp550
F3
s(S'NP'
S'ANADVADVADVVP'
tp551
F1
s(g491
S'AAPP'
tp552
F7
s(g112
S'VVCCP'
tp553
F1
s(S'DP'
S'DDAAAANNP'
tp554
F1
s(g199
S'PCP'
tp555
F5
s(S'DP'
S'DAAAPP'
tp556
F1
s(S'VP'
S'VVVCCP'
tp557
F1
s(S'NP'
S'NAPP'
tp558
F16
s(S'AP'
S'ADVADVADP'
tp559
F1
s(g173
S'VVVCP'
tp560
F2
s(g380
S'ANCCP'
tp561
F5
s(g179
S'AANPP'
tp562
F6
s(g76
S'NNCCP'
tp563
F12
s(S'NP'
S'NNMP'
tp564
F5
s(S'DP'
S'DDDVP'
tp565
F1
s(S'CP'
S'CADDPP'
tp566
F1
s(S'PP'
S'PAAAP'
tp567
F6
s(g449
S'ADVADVPNP'
tp568
F1
s(S'MP'
S'MDANP'
tp569
F2
s(S'CP'
S'CDDAPP'
tp570
F1
s(S'NP'
S'ANAP'
tp571
F3
s(S'DP'
S'AADADVPPP'
tp572
F1
s(S'MP'
S'MVAP'
tp573
F3
s(g41
S'PVP'
tp574
F130
s(S'DP'
S'DADVAVP'
tp575
F1
s(S'CP'
S'ACDDDP'
tp576
F1
s(g412
S'ANNCP'
tp577
F3
s(g41
S'PPADVPP'
tp578
F1
s(g192
S'PPDDP'
tp579
F2
s(g112
S'AVCP'
tp580
F3
s(S'DP'
p581
S'DPP'
tp582
F262
s(S'NP'
S'ADVNVP'
tp583
F6
s(S'DP'
S'DDDVVP'
tp584
F1
s(g581
S'DDPP'
tp585
F54
s(S'DP'
S'DANP'
tp586
F49
s(S'VP'
S'ADVADVADVAVADVADVNP'
tp587
F1
s(S'NP'
S'NAAVP'
tp588
F4
s(S'DP'
S'ADVADVADPP'
tp589
F2
s(g74
S'AADNP'
tp590
F4
s(g370
S'ADVVVNNNP'
tp591
F1
s(S'VP'
S'VADVCP'
tp592
F2
s(S'MP'
S'MADVADVVNP'
tp593
F1
s(S'MP'
S'MDNP'
tp594
F4
s(S'NP'
S'NNAACP'
tp595
F1
s(g131
S'AAPDP'
tp596
F7
s(g144
S'MADVVDP'
tp597
F1
s(g112
S'VVVAP'
tp598
F1
s(g67
S'PDDP'
tp599
F32
s(g168
S'ADVADVANVVP'
tp600
F1
s(g402
S'MVDDP'
tp601
F2
s(g337
S'ADVAVVVP'
tp602
F1
s(g71
S'ADVAPNP'
tp603
F1
s(S'NP'
S'NNVP'
tp604
F32
s(S'NP'
S'NNP'
tp605
F1
s(S'VP'
S'AVVNP'
tp606
F1
s(S'VP'
S'VVDDP'
tp607
F1
s(S'DP'
S'DAANP'
tp608
F13
s(S'NP'
p609
S'NAAAAVP'
tp610
F1
s(S'VP'
S'ADVADVADVVCP'
tp611
F2
s(S'AP'
S'ADDP'
tp612
F16
s(g136
S'VVVAAAAANNP'
tp613
F1
s(S'MP'
S'MDAP'
tp614
F1
s(g115
S'DPPP'
tp615
F70
s(S'VP'
S'VAAAADDP'
tp616
F1
s(S'DP'
p617
S'DAVVP'
tp618
F2
s(g194
S'AADPPP'
tp619
F1
s(S'NP'
S'NNAVP'
tp620
F2
s(g609
S'NNAAPP'
tp621
F1
s(S'AP'
S'ADDDDDP'
tp622
F1
s(S'CP'
S'ADVADVCDDP'
tp623
F1
s(S'PP'
S'ADVPNP'
tp624
F5
s(g435
S'PPDP'
tp625
F39
s(S'CP'
S'CCDDDDDP'
tp626
F1
s(S'CP'
S'CAADADVPP'
tp627
F1
s(g438
S'ADVADVDMP'
tp628
F1
s(S'NP'
S'NNAAACP'
tp629
F1
s(S'NP'
S'AAANMP'
tp630
F1
s(S'PP'
S'PAANNP'
tp631
F1
s(S'MP'
S'MMAVP'
tp632
F1
s(S'NP'
S'NAP'
tp633
F61
s(S'NP'
S'NNAAP'
tp634
F3
s(g24
S'VAAAP'
tp635
F2
s(S'VP'
S'ADVAVNP'
tp636
F1
s(S'VP'
p637
S'VVP'
tp638
F28
s(S'DP'
S'DDAPP'
tp639
F2
s(S'AP'
S'AAADP'
tp640
F9
s(g142
S'APNP'
tp641
F18
s(g231
S'VVVNNP'
tp642
F1
s(S'DP'
S'DDVVP'
tp643
F2
s(S'AP'
S'AAADDP'
tp644
F1
s(g339
S'VVVNP'
tp645
F3
s(S'NP'
S'NNADVPP'
tp646
F2
s(S'MP'
S'MVANP'
tp647
F1
s(S'DP'
S'ADVADVDDPP'
tp648
F1
s(S'MP'
S'MVNNP'
tp649
F1
s(g332
S'CDPP'
tp650
F228
s(S'CP'
S'ADVCADP'
tp651
F1
s(g617
S'ADVDVVP'
tp652
F1
s(S'CP'
S'ADVCDP'
tp653
F9
s(S'VP'
p654
S'ADVADVVNP'
tp655
F1
s(S'DP'
S'AAADDPP'
tp656
F1
s(g545
S'NNNNPPP'
tp657
F1
s(S'CP'
S'ADVACDP'
tp658
F1
s(S'VP'
S'ADVADVVCP'
tp659
F1
s(g343
S'VADVADVDP'
tp660
F2
s(g536
S'PPNNP'
tp661
F12
s(S'PP'
S'ADVPAVP'
tp662
F1
s(g242
S'ADVADVDPP'
tp663
F2
s(g343
S'VAADP'
tp664
F7
s(g49
S'DADVNP'
tp665
F6
s(g496
S'DAP'
tp666
F15
s(S'CP'
S'CADPP'
tp667
F27
s(S'PP'
S'PPDDDP'
tp668
F1
s(g220
S'AVPP'
tp669
F6
s(S'CP'
S'CDPPPP'
tp670
F5
s(S'VP'
S'AAVDP'
tp671
F3
s(g242
S'AADNNP'
tp672
F2
s(S'PP'
S'PANNP'
tp673
F5
s(S'VP'
S'VACCP'
tp674
F1
s(g95
S'DAPPP'
tp675
F4
s(S'DP'
S'DADVADVPP'
tp676
F2
s(S'DP'
S'DMP'
tp677
F3
s(S'PP'
S'PPPNP'
tp678
F5
s(g6
S'NADVADVDP'
tp679
F1
s(S'PP'
S'PPAANP'
tp680
F1
s(S'NP'
S'AAANPP'
tp681
F1
s(g400
S'AAPPPPP'
tp682
F1
s(g49
S'ADPP'
tp683
F45
s(g81
S'NADVANP'
tp684
F1
s(S'NP'
S'NNNADVVVP'
tp685
F1
s(S'DP'
S'ADVDANP'
tp686
F1
s(g400
S'ADVPVP'
tp687
F4
s(S'DP'
S'DDDDPP'
tp688
F1
s(g123
S'AAVAAP'
tp689
F1
s(S'NP'
S'ADVADVANCP'
tp690
F1
s(g212
S'PADVADVADVNP'
tp691
F1
s(g41
S'ADVPDP'
tp692
F5
s(S'NP'
S'ANNPP'
tp693
F2
s(S'NP'
S'NCP'
tp694
F172
s(S'CP'
S'CADVDPPP'
tp695
F1
s(g654
S'ADVVVPP'
tp696
F1
s(S'PP'
S'AAAPNP'
tp697
F1
s(S'AP'
S'AAMP'
tp698
F2
s(S'DP'
S'AADADVPP'
tp699
F1
s(S'DP'
S'DDDDDPP'
tp700
F1
s(g445
S'MDAAANP'
tp701
F1
s(S'VP'
S'VDDDP'
tp702
F3
s(g548
S'MNVP'
tp703
F6
s(S'NP'
p704
S'AANAP'
tp705
F2
s(S'CP'
S'ADVADVCCDP'
tp706
F1
s(S'PP'
S'PADVADVAP'
tp707
F1
s(g637
S'VAPP'
tp708
F7
s(g261
S'ADVVDP'
tp709
F8
s(S'DP'
S'DADVPP'
tp710
F10
s(S'AP'
S'AMP'
tp711
F7
s(S'CP'
S'CCADP'
tp712
F3
s(g330
S'ADVADVADVPNP'
tp713
F1
s(g704
S'NNNPPP'
tp714
F1
s(S'CP'
S'AACDP'
tp715
F4
s(S'MP'
S'MADVVNNP'
tp716
F1
s(S'MP'
S'MMMVVVP'
tp717
F1
s(S'DP'
S'ADVDPPP'
tp718
F1
s(g581
S'DVP'
tp719
F178
s(g414
S'ADVNPP'
tp720
F2
s(g206
S'AAACDP'
tp721
F3
s(S'AP'
S'AVP'
tp722
F14
s(g179
S'NADVVP'
tp723
F7
s(S'CP'
S'CDAAAPP'
tp724
F1
s(g496
S'DDNP'
tp725
F30
s(g429
S'DDPPP'
tp726
F10
s(S'MP'
S'MDAANP'
tp727
F1
s(g271
S'NNAP'
tp728
F4
s(S'MP'
S'MADVVCP'
tp729
F1
s(S'PP'
S'PPANP'
tp730
F3
s(g402
S'MCDDP'
tp731
F1
s(g385
S'CDADVPP'
tp732
F5
s(g57
S'VNP'
tp733
F134
s(S'VP'
S'VANP'
tp734
F10
s(S'VP'
S'VADVAP'
tp735
F3
s(S'VP'
S'VADVADVADP'
tp736
F1
s(S'DP'
S'DDDDVP'
tp737
F1
s(S'DP'
S'DDDAANNP'
tp738
F1
s.