ccollections
defaultdict
p1
(c__builtin__
float
p2
tRp3
(S'NP'
S'AANDDP'
tp4
F2
s(S'CP'
S'CAAADPP'
tp5
F1
s(S'PP'
S'PAAANP'
tp6
F2
s(S'DP'
S'ADDPP'
tp7
F3
s(S'PP'
S'AAAPPVP'
tp8
F1
s(S'DP'
p9
S'DDAP'
tp10
F17
s(S'VP'
S'ADVVVNP'
tp11
F9
s(S'AP'
S'AADDDP'
tp12
F1
s(S'CP'
S'CCDDDDP'
tp13
F1
s(S'VP'
p14
S'VVVVP'
tp15
F4
s(S'DP'
S'DAANNP'
tp16
F3
s(S'NP'
p17
S'NADDP'
tp18
F1
s(S'AP'
S'AVVVP'
tp19
F1
s(S'VP'
p20
S'VVADVVP'
tp21
F2
s(S'PP'
p22
S'PAPP'
tp23
F21
s(S'PP'
p24
S'PADVNP'
tp25
F26
s(S'VP'
S'VVADVADVADVNP'
tp26
F1
s(S'DP'
p27
S'DNP'
tp28
F838
s(S'PP'
p29
S'PPADVAVP'
tp30
F1
s(S'NP'
S'ANCCCP'
tp31
F1
s(S'NP'
p32
S'ADVNDP'
tp33
F3
s(S'PP'
S'AAPDDP'
tp34
F3
s(S'VP'
S'ADVVNNP'
tp35
F4
s(S'CP'
p36
S'CDPPP'
tp37
F158
s(S'VP'
p38
S'AVADVDDP'
tp39
F1
s(S'VP'
p40
S'VADP'
tp41
F59
s(S'VP'
p42
S'ADVADVVAP'
tp43
F2
s(S'DP'
p44
S'DAAP'
tp45
F23
s(S'PP'
S'PPAVP'
tp46
F7
s(S'PP'
p47
S'PPPPPP'
tp48
F4
s(S'VP'
p49
S'VAVP'
tp50
F6
s(S'PP'
S'APPDP'
tp51
F3
s(S'CP'
S'CADVADVDPPP'
tp52
F1
s(S'VP'
S'VADVDDP'
tp53
F10
s(S'DP'
S'DAADP'
tp54
F1
s(S'DP'
S'ADNNP'
tp55
F17
s(S'VP'
S'VADVVVP'
tp56
F1
s(S'PP'
S'ADVPPPP'
tp57
F1
s(S'CP'
S'ADVCCDDP'
tp58
F1
s(S'DP'
S'ADVADVDPPP'
tp59
F1
s(S'VP'
p60
S'ADVVNP'
tp61
F34
s(S'CP'
S'CADVADVADVDPP'
tp62
F1
s(S'MP'
p63
S'MVDP'
tp64
F42
s(S'PP'
S'PADVANP'
tp65
F4
s(S'NP'
S'AANNPP'
tp66
F1
s(S'PP'
p67
S'PPPP'
tp68
F75
s(S'AP'
S'ADVAPPP'
tp69
F2
s(S'DP'
S'DDDNP'
tp70
F17
s(S'DP'
S'DDMP'
tp71
F1
s(S'MP'
S'MMADVVP'
tp72
F1
s(g14
S'VACP'
tp73
F9
s(S'AP'
S'AAAVP'
tp74
F2
s(S'PP'
S'PPAAP'
tp75
F4
s(S'DP'
S'DDAADVANNP'
tp76
F1
s(S'VP'
S'VVVAAAP'
tp77
F1
s(S'DP'
S'DADVVP'
tp78
F20
s(S'VP'
S'ADVADVVDDP'
tp79
F1
s(S'VP'
S'ADVADVADVADVAVADVNP'
tp80
F1
s(S'PP'
p81
S'PADVNNP'
tp82
F7
s(S'AP'
p83
S'AADVPP'
tp84
F1
s(S'PP'
S'PADVADVNNP'
tp85
F1
s(S'NP'
S'NADVACP'
tp86
F2
s(S'VP'
S'AAVVP'
tp87
F3
s(S'NP'
p88
S'NCCCP'
tp89
F13
s(S'PP'
S'APPNNP'
tp90
F1
s(S'CP'
S'CADVDAPP'
tp91
F1
s(g40
S'VCP'
tp92
F327
s(S'MP'
S'MVVANP'
tp93
F1
s(S'DP'
S'ADDNNP'
tp94
F1
s(S'NP'
p95
S'NMMP'
tp96
F10
s(S'VP'
S'VVAANNP'
tp97
F1
s(S'DP'
S'ADVADVADVDDPP'
tp98
F1
s(g49
S'ADVVAAP'
tp99
F7
s(S'DP'
S'DDDNNP'
tp100
F1
s(S'DP'
S'ADVDDDPP'
tp101
F1
s(S'VP'
S'ADVVCCP'
tp102
F4
s(S'PP'
S'ADVPADP'
tp103
F1
s(g67
S'PAP'
tp104
F299
s(S'PP'
S'PPANNP'
tp105
F1
s(S'MP'
p106
S'MMVVP'
tp107
F2
s(S'VP'
S'VADVADVAP'
tp108
F8
s(S'PP'
p109
S'ADVPPVP'
tp110
F9
s(S'NP'
S'NMMMMP'
tp111
F1
s(S'NP'
S'NNNAP'
tp112
F2
s(S'CP'
S'AAAACDP'
tp113
F1
s(S'PP'
S'APVVP'
tp114
F10
s(S'PP'
S'PPADVDP'
tp115
F7
s(S'NP'
p116
S'ANADVANP'
tp117
F1
s(S'CP'
p118
S'CADPPPP'
tp119
F1
s(S'PP'
p120
S'PNP'
tp121
F777
s(S'NP'
S'ADVADVADVNNCP'
tp122
F1
s(S'NP'
S'ADVANADVVP'
tp123
F1
s(S'PP'
S'PAAADP'
tp124
F3
s(S'MP'
S'MADVADVADVVPPP'
tp125
F1
s(S'DP'
p126
S'DDP'
tp127
F125
s(S'VP'
S'AAVVVP'
tp128
F2
s(S'NP'
p129
S'NNNPP'
tp130
F9
s(S'VP'
p131
S'VCCP'
tp132
F53
s(S'MP'
S'MCDP'
tp133
F10
s(S'DP'
S'DDAANP'
tp134
F1
s(S'CP'
S'CDDDDAPP'
tp135
F2
s(S'DP'
p136
S'DADVDDP'
tp137
F1
s(S'AP'
S'ADVADVAVVP'
tp138
F1
s(S'VP'
S'ADVADVVVCP'
tp139
F4
s(S'NP'
p140
S'NMP'
tp141
F158
s(S'NP'
S'ADVNCCP'
tp142
F1
s(S'NP'
S'NNNADVADP'
tp143
F1
s(S'NP'
p144
S'ADVNAPP'
tp145
F2
s(S'NP'
p146
S'NAAAPP'
tp147
F2
s(S'VP'
S'AAVNP'
tp148
F2
s(S'VP'
S'VMMP'
tp149
F1
s(S'PP'
p150
S'PDP'
tp151
F784
s(S'DP'
p152
S'DDPPPPP'
tp153
F3
s(S'CP'
p154
S'CDAAPP'
tp155
F11
s(S'NP'
p156
S'ADVNVVP'
tp157
F2
s(S'VP'
S'VNNNNP'
tp158
F2
s(S'NP'
S'ADVADVADVNDP'
tp159
F1
s(S'VP'
S'VVVDDP'
tp160
F3
s(S'MP'
S'MADVVNP'
tp161
F5
s(S'NP'
S'AAAANNVVP'
tp162
F1
s(g118
S'CDADVADVPPP'
tp163
F2
s(S'VP'
S'AVAAP'
tp164
F2
s(S'PP'
S'PPPADVVP'
tp165
F1
s(S'VP'
S'AAAVCP'
tp166
F1
s(S'AP'
S'ANP'
tp167
F3
s(S'PP'
p168
S'ADVPAAP'
tp169
F2
s(S'NP'
S'NADVADVADVVP'
tp170
F4
s(S'PP'
S'PADVPP'
tp171
F12
s(S'VP'
p172
S'AAVPP'
tp173
F9
s(S'VP'
S'VVADVNP'
tp174
F3
s(S'PP'
p175
S'PPADVAP'
tp176
F2
s(S'NP'
S'ANVVVVP'
tp177
F2
s(S'PP'
S'AAPPPP'
tp178
F2
s(S'PP'
p179
S'ADVADVAPVP'
tp180
F1
s(S'DP'
S'DPPPP'
tp181
F23
s(g152
S'DDANP'
tp182
F13
s(S'PP'
p183
S'PADVADP'
tp184
F2
s(S'NP'
S'NACP'
tp185
F61
s(S'AP'
S'ADVAVP'
tp186
F4
s(S'NP'
p187
S'NCCP'
tp188
F169
s(S'AP'
p189
S'ADVADVAADDP'
tp190
F1
s(S'DP'
S'DADVADVVVP'
tp191
F1
s(S'AP'
S'AAAADP'
tp192
F5
s(S'NP'
S'NADVADVADVDP'
tp193
F1
s(S'NP'
S'ANPPPP'
tp194
F1
s(g140
S'NNCP'
tp195
F160
s(S'DP'
S'ADVDDPP'
tp196
F21
s(g95
S'NADVADVVP'
tp197
F11
s(S'NP'
S'NNPPPP'
tp198
F2
s(S'DP'
p199
S'DDDDP'
tp200
F5
s(S'NP'
S'ADVADVNNVVVP'
tp201
F1
s(S'DP'
S'ADVADVADVADVADPPP'
tp202
F1
s(S'VP'
p203
S'AVNP'
tp204
F33
s(g187
S'NNNNNCP'
tp205
F3
s(S'CP'
S'CCADVADVADVDP'
tp206
F3
s(S'NP'
S'ADVNDDP'
tp207
F2
s(S'DP'
S'DDAVVP'
tp208
F1
s(S'DP'
S'DDAAANP'
tp209
F1
s(S'NP'
S'NADVADVPP'
tp210
F2
s(S'VP'
p211
S'ADVADVVNNNP'
tp212
F1
s(S'PP'
p213
S'ADVPADVAAP'
tp214
F1
s(S'VP'
S'VVADVCP'
tp215
F2
s(S'PP'
S'PADVADVADVADVDP'
tp216
F1
s(S'PP'
S'ADVAPDP'
tp217
F4
s(S'CP'
S'CADVDDAPP'
tp218
F1
s(S'VP'
p219
S'VADVVP'
tp220
F7
s(S'DP'
p221
S'ADVADVADVDVVP'
tp222
F1
s(S'VP'
p223
S'ADVADVADVVNP'
tp224
F1
s(S'PP'
S'APADVADVADVNNP'
tp225
F1
s(S'MP'
S'MVPPP'
tp226
F3
s(S'NP'
S'ANADVVP'
tp227
F3
s(S'VP'
S'AAAVPPP'
tp228
F1
s(S'PP'
S'ADVPAPP'
tp229
F1
s(S'AP'
S'AAAAP'
tp230
F2
s(S'VP'
S'VVVADVCP'
tp231
F1
s(S'PP'
S'ADVPADVNP'
tp232
F1
s(S'CP'
S'CCCDP'
tp233
F15
s(S'VP'
S'ADVVAP'
tp234
F17
s(S'VP'
p235
S'VCCCP'
tp236
F3
s(S'VP'
S'VVVAAPP'
tp237
F1
s(S'PP'
S'PADVVVP'
tp238
F2
s(S'PP'
p239
S'APDP'
tp240
F93
s(S'NP'
S'NNADVADVVVP'
tp241
F1
s(S'VP'
S'VADVNNP'
tp242
F2
s(S'PP'
S'APDDDDP'
tp243
F2
s(g32
S'ADVNPPP'
tp244
F2
s(S'PP'
p245
S'PADVADVADVPP'
tp246
F1
s(g17
S'ANNPP'
tp247
F1
s(S'NP'
S'NAAAAP'
tp248
F1
s(S'DP'
S'DDANNP'
tp249
F1
s(S'PP'
p250
S'PPADVADVVVP'
tp251
F1
s(S'VP'
S'VVANP'
tp252
F7
s(S'VP'
S'VVVVDP'
tp253
F6
s(S'VP'
S'ADVVVP'
tp254
F5
s(S'PP'
S'ADVADVADVPDP'
tp255
F1
s(S'NP'
S'NAAAACP'
tp256
F1
s(S'DP'
S'DADVADVADVPP'
tp257
F5
s(S'NP'
S'ADVADVNNPP'
tp258
F1
s(S'DP'
p259
S'DDDADVNNP'
tp260
F1
s(S'DP'
p261
S'ADVDDAAVVP'
tp262
F1
s(S'PP'
p263
S'PCCP'
tp264
F5
s(S'NP'
S'ADVANCP'
tp265
F6
s(S'PP'
S'PPADVADVAAP'
tp266
F1
s(S'DP'
S'DNNP'
tp267
F198
s(S'CP'
S'CADVDDPP'
tp268
F11
s(S'DP'
S'DPPPPP'
tp269
F7
s(S'CP'
S'CCADVDP'
tp270
F13
s(S'VP'
S'VVNNNP'
tp271
F4
s(S'VP'
S'VVACP'
tp272
F4
s(S'DP'
S'ADDNP'
tp273
F2
s(S'NP'
p274
S'NNNVP'
tp275
F19
s(g250
S'PPAAPP'
tp276
F1
s(S'VP'
p277
S'VDP'
tp278
F760
s(S'PP'
S'PADVADVADVNP'
tp279
F1
s(S'AP'
S'AAADDP'
tp280
F1
s(S'PP'
S'PPNNNNP'
tp281
F1
s(S'AP'
p282
S'AAADVADVCP'
tp283
F2
s(S'PP'
S'PADVVP'
tp284
F16
s(S'DP'
p285
S'DACP'
tp286
F2
s(S'DP'
S'DADVADVADVPPP'
tp287
F1
s(S'MP'
S'MADVADVVNNNP'
tp288
F1
s(S'DP'
S'DADVVVP'
tp289
F1
s(S'PP'
S'APAP'
tp290
F16
s(S'AP'
S'APP'
tp291
F115
s(S'NP'
S'AANADVVVP'
tp292
F2
s(S'CP'
S'CADPPPPP'
tp293
F2
s(S'CP'
S'CDDDADVPPP'
tp294
F1
s(S'NP'
S'NADVMP'
tp295
F3
s(S'AP'
p296
S'AAP'
tp297
F34
s(S'VP'
S'VADVADVVP'
tp298
F1
s(S'CP'
S'CADVADPP'
tp299
F4
s(S'DP'
p300
S'DDDNNNNNP'
tp301
F1
s(S'DP'
S'DADVADVNP'
tp302
F4
s(S'NP'
S'ADVANPP'
tp303
F4
s(g203
S'VVVVPP'
tp304
F6
s(g131
S'VADVADVNP'
tp305
F4
s(S'CP'
S'CDDDDPP'
tp306
F4
s(S'PP'
S'AAPPNP'
tp307
F2
s(S'MP'
S'MVVVNP'
tp308
F2
s(g183
S'PAANP'
tp309
F15
s(S'VP'
S'VVVANP'
tp310
F1
s(S'PP'
S'PPVVP'
tp311
F17
s(S'VP'
S'VAACP'
tp312
F2
s(S'PP'
S'PPPPAVP'
tp313
F1
s(S'VP'
S'ADVADVVVVDP'
tp314
F1
s(S'NP'
S'AANDDDDP'
tp315
F1
s(S'VP'
S'VVAVP'
tp316
F1
s(S'VP'
p317
S'VVAPP'
tp318
F2
s(S'VP'
S'VVADVANP'
tp319
F1
s(g63
S'MVNP'
tp320
F39
s(S'MP'
p321
S'MNDP'
tp322
F1
s(S'PP'
S'PPADVAAP'
tp323
F1
s(S'AP'
S'AADVCCP'
tp324
F1
s(S'NP'
S'ANAAP'
tp325
F3
s(S'AP'
p326
S'ADVAADP'
tp327
F2
s(S'DP'
S'ADVADNP'
tp328
F2
s(S'PP'
S'ADVADVPPADVNP'
tp329
F1
s(S'PP'
p330
S'PAVP'
tp331
F62
s(S'MP'
p332
S'ADVMVP'
tp333
F5
s(S'PP'
p334
S'ADVADVPPVP'
tp335
F2
s(S'PP'
p336
S'AAPADVVP'
tp337
F1
s(S'VP'
p338
S'VVVPP'
tp339
F16
s(S'VP'
S'VVADVAPP'
tp340
F1
s(S'CP'
S'ADVCADP'
tp341
F2
s(S'VP'
p342
S'VVAACP'
tp343
F1
s(S'MP'
S'MADVVPP'
tp344
F2
s(S'DP'
p345
S'DADP'
tp346
F9
s(S'VP'
S'VVAANP'
tp347
F1
s(g296
S'ADVADP'
tp348
F14
s(S'CP'
S'ADVADVCDP'
tp349
F3
s(S'VP'
S'VVADVPP'
tp350
F2
s(S'DP'
S'ADVDDP'
tp351
F4
s(g239
S'APDDP'
tp352
F14
s(S'AP'
S'AAADVCP'
tp353
F2
s(g60
S'ADVADVVVNP'
tp354
F3
s(S'DP'
S'DDVVVVP'
tp355
F1
s(S'NP'
p356
S'ADVNAP'
tp357
F2
s(S'DP'
S'ADVDVVVP'
tp358
F1
s(S'DP'
S'DAAAVP'
tp359
F2
s(S'PP'
p360
S'PPCP'
tp361
F5
s(S'AP'
S'ACCCP'
tp362
F1
s(g22
S'APVP'
tp363
F55
s(S'PP'
S'PPPPADDP'
tp364
F1
s(S'MP'
S'MNCP'
tp365
F2
s(S'VP'
S'VVNP'
tp366
F109
s(S'VP'
S'ADVVAANP'
tp367
F1
s(g336
S'PPPNNP'
tp368
F2
s(S'DP'
S'ADVDDDP'
tp369
F1
s(g120
S'PPVP'
tp370
F120
s(S'PP'
S'APDDDP'
tp371
F1
s(S'MP'
S'MVVVVCP'
tp372
F1
s(g235
S'VADVDP'
tp373
F15
s(S'MP'
S'MVVVPP'
tp374
F2
s(S'VP'
S'VVADVAP'
tp375
F3
s(S'VP'
S'VAAP'
tp376
F58
s(S'NP'
S'ANDP'
tp377
F39
s(S'NP'
p378
S'NVVP'
tp379
F181
s(S'PP'
S'AAPVP'
tp380
F5
s(S'PP'
S'PPADP'
tp381
F4
s(S'VP'
S'VMP'
tp382
F11
s(S'NP'
S'AANNMP'
tp383
F1
s(g49
S'VVNNP'
tp384
F14
s(S'CP'
S'CDAPP'
tp385
F82
s(S'VP'
S'VVAAP'
tp386
F8
s(S'MP'
S'MMPP'
tp387
F1
s(S'DP'
S'ADVADVP'
tp388
F2
s(S'DP'
p389
S'ADVADVDDVP'
tp390
F2
s(S'VP'
S'ADVADVVVNNP'
tp391
F1
s(S'DP'
S'ADNP'
tp392
F75
s(S'VP'
S'AVVDP'
tp393
F2
s(S'PP'
S'PPADVADVADVADVAVP'
tp394
F1
s(g136
S'ADVDDPPP'
tp395
F2
s(g29
S'PADP'
tp396
F81
s(S'NP'
S'ANADVAPP'
tp397
F1
s(S'NP'
S'NADVADVADVVVP'
tp398
F1
s(S'NP'
S'ANDDP'
tp399
F4
s(S'MP'
S'MMMMVP'
tp400
F1
s(S'DP'
S'ADVADVDVP'
tp401
F1
s(S'DP'
p402
S'DADVAP'
tp403
F10
s(S'PP'
S'ADVADVPMP'
tp404
F1
s(S'NP'
S'ADVADVADVNAP'
tp405
F1
s(S'PP'
S'PPVVVVP'
tp406
F2
s(S'NP'
S'ANACCCP'
tp407
F1
s(g126
S'DAPP'
tp408
F130
s(S'MP'
S'MNAADDP'
tp409
F1
s(S'VP'
S'AVVP'
tp410
F8
s(S'PP'
S'PPPAAAANNP'
tp411
F1
s(S'VP'
S'ADVADVVPP'
tp412
F4
s(S'NP'
S'NNNADVDDP'
tp413
F1
s(S'MP'
S'MADVADVVNP'
tp414
F3
s(S'PP'
S'ADVADVADVPPP'
tp415
F1
s(S'DP'
S'DAAVP'
tp416
F10
s(g42
S'ADVADVADVVDP'
tp417
F3
s(S'NP'
p418
S'ADVNNPP'
tp419
F3
s(S'VP'
S'ADVADVVDP'
tp420
F8
s(S'VP'
S'AVVNP'
tp421
F2
s(S'PP'
p422
S'PPPDP'
tp423
F13
s(S'DP'
S'DAAPPP'
tp424
F1
s(S'PP'
S'AAAPDP'
tp425
F1
s(S'AP'
S'AAPPP'
tp426
F5
s(S'MP'
S'MVVCP'
tp427
F5
s(S'VP'
S'VDDDDP'
tp428
F3
s(S'DP'
S'DAAANP'
tp429
F1
s(S'DP'
S'DADVANP'
tp430
F9
s(S'NP'
S'ANADVVVP'
tp431
F2
s(S'VP'
S'VAAPP'
tp432
F6
s(S'DP'
S'ADVDNP'
tp433
F28
s(S'VP'
p434
S'VVPP'
tp435
F83
s(S'MP'
S'MNNNPPP'
tp436
F1
s(S'CP'
S'AACDDP'
tp437
F5
s(g332
S'MVPP'
tp438
F36
s(S'DP'
p439
S'ADVP'
tp440
F31
s(S'MP'
p441
S'MVADP'
tp442
F2
s(S'CP'
S'CDDPPP'
tp443
F20
s(S'PP'
S'PPAVVP'
tp444
F1
s(g378
S'NNPP'
tp445
F83
s(S'NP'
S'AADVANNDP'
tp446
F1
s(S'NP'
S'AAANDP'
tp447
F1
s(S'DP'
p448
S'DDDDNP'
tp449
F6
s(g63
S'MVVDP'
tp450
F8
s(S'DP'
p451
S'DADVPPP'
tp452
F10
s(g285
S'DDADVDP'
tp453
F1
s(g129
S'ANVP'
tp454
F70
s(S'DP'
S'DDDDDVP'
tp455
F1
s(S'PP'
S'APADVADVADVDDP'
tp456
F1
s(S'DP'
S'DNNNP'
tp457
F12
s(S'NP'
p458
S'NADVMMP'
tp459
F2
s(S'MP'
S'MVADVCP'
tp460
F1
s(g106
S'MPPDP'
tp461
F1
s(S'DP'
S'ADVDDVP'
tp462
F8
s(S'VP'
S'VADVADVPPP'
tp463
F1
s(S'PP'
S'PADVADVVP'
tp464
F2
s(g116
S'ADVANVVP'
tp465
F2
s(S'CP'
S'AAACDP'
tp466
F1
s(S'DP'
S'DDDNNNNNNNP'
tp467
F1
s(S'VP'
S'ADVVCP'
tp468
F10
s(S'PP'
S'PVVVP'
tp469
F20
s(S'PP'
p470
S'PMP'
tp471
F33
s(g144
S'NNMMP'
tp472
F2
s(S'CP'
S'CCDP'
tp473
F252
s(S'NP'
S'ADVNNDP'
tp474
F3
s(S'DP'
S'ADVADVADVDPP'
tp475
F4
s(S'MP'
S'AMVP'
tp476
F5
s(S'PP'
S'PPNNNP'
tp477
F1
s(S'CP'
S'ACCCDP'
tp478
F1
s(S'PP'
p479
S'ADVADVPPPP'
tp480
F1
s(S'NP'
S'NVVVP'
tp481
F31
s(g154
S'CDDDPP'
tp482
F13
s(g22
S'PPADVVP'
tp483
F5
s(S'VP'
S'ADVADVVVVP'
tp484
F1
s(S'VP'
S'VVVDP'
tp485
F24
s(S'PP'
p486
S'PDDDDP'
tp487
F4
s(g24
S'PNNNP'
tp488
F22
s(S'CP'
S'CCCCDP'
tp489
F1
s(S'VP'
S'VAAPPP'
tp490
F1
s(S'AP'
S'AACCP'
tp491
F1
s(S'PP'
S'AAPNP'
tp492
F11
s(S'PP'
S'AAPADVDP'
tp493
F1
s(S'VP'
S'ADVVVDP'
tp494
F10
s(g24
S'PPP'
tp495
F301
s(S'AP'
S'ADVAACCP'
tp496
F2
s(S'VP'
S'VADVADVADVANP'
tp497
F1
s(S'NP'
S'NNADVDP'
tp498
F1
s(S'NP'
p499
S'NAVP'
tp500
F66
s(S'PP'
S'PADVAP'
tp501
F12
s(S'NP'
S'ANNPPP'
tp502
F1
s(S'DP'
S'DDNNNP'
tp503
F4
s(S'VP'
S'VVDDDP'
tp504
F1
s(S'PP'
p505
S'PADDP'
tp506
F1
s(S'NP'
S'NNNADVVP'
tp507
F1
s(S'DP'
S'ADVDVP'
tp508
F14
s(S'NP'
S'NAAAP'
tp509
F2
s(S'NP'
S'NNADVPP'
tp510
F1
s(S'NP'
S'NADVVVP'
tp511
F20
s(S'MP'
S'MPAAP'
tp512
F1
s(S'DP'
p513
S'DADVADVPPP'
tp514
F3
s(S'AP'
S'AADVVP'
tp515
F1
s(S'PP'
S'PPPPDP'
tp516
F1
s(S'MP'
S'MADVADVVPP'
tp517
F1
s(S'DP'
S'ADVADVDNP'
tp518
F1
s(S'NP'
p519
S'ADVADVADVANCP'
tp520
F1
s(S'VP'
p521
S'VPP'
tp522
F532
s(S'VP'
S'VVAAAAP'
tp523
F1
s(S'CP'
S'ADVCCDP'
tp524
F12
s(S'NP'
p525
S'ANADVDDP'
tp526
F1
s(S'MP'
S'ADVADVMVP'
tp527
F3
s(S'DP'
S'ADVDDNP'
tp528
F6
s(S'NP'
S'AANPPP'
tp529
F2
s(S'NP'
p530
S'NNNCP'
tp531
F8
s(g422
S'PADVDP'
tp532
F20
s(S'CP'
S'CDADVAPP'
tp533
F2
s(S'CP'
S'CDDDPPP'
tp534
F1
s(S'DP'
p535
S'DANNP'
tp536
F5
s(S'PP'
S'PADVAAP'
tp537
F1
s(S'CP'
S'CDDPP'
tp538
F157
s(S'DP'
p539
S'DAAPP'
tp540
F22
s(g24
S'PVVP'
tp541
F96
s(S'CP'
S'CADPPP'
tp542
F10
s(S'AP'
S'AACP'
tp543
F28
s(S'NP'
S'NNADVADVACP'
tp544
F1
s(S'VP'
S'ADVAVDDP'
tp545
F2
s(S'MP'
S'MAVCP'
tp546
F1
s(S'PP'
S'PMMP'
tp547
F3
s(g203
S'VPPP'
tp548
F77
s(S'PP'
S'PPADVADVDP'
tp549
F1
s(S'VP'
S'VVPPP'
tp550
F9
s(S'VP'
S'ADVADVADVVPPP'
tp551
F1
s(S'DP'
S'ADVDDDNNP'
tp552
F1
s(g317
S'ADVVVCCP'
tp553
F2
s(S'PP'
S'PPAP'
tp554
F39
s(S'DP'
p555
S'DVVP'
tp556
F105
s(S'VP'
S'VVAPPP'
tp557
F1
s(S'CP'
S'ADVCDDDP'
tp558
F2
s(g146
S'NNNNDP'
tp559
F1
s(S'DP'
S'DDDADVPPP'
tp560
F2
s(S'CP'
S'CDDAAPP'
tp561
F2
s(g95
S'ANMP'
tp562
F10
s(S'AP'
S'APPP'
tp563
F8
s(S'PP'
S'ADVPPP'
tp564
F7
s(S'NP'
S'ADVADVNVP'
tp565
F5
s(g14
S'VVVP'
tp566
F18
s(S'NP'
S'ADVNNCCP'
tp567
F1
s(S'CP'
S'CADVDPP'
tp568
F36
s(g525
S'ADVADVNNVP'
tp569
F1
s(S'VP'
S'VVADVPPP'
tp570
F3
s(S'NP'
S'NDDDP'
tp571
F3
s(S'PP'
S'PADVADVADVAAP'
tp572
F1
s(S'NP'
S'ANCP'
tp573
F101
s(S'CP'
S'CAAADPPP'
tp574
F1
s(g27
S'DCP'
tp575
F48
s(S'CP'
S'ADVCAAADP'
tp576
F1
s(g274
S'ANNCP'
tp577
F5
s(S'DP'
S'DNNNNP'
tp578
F1
s(S'NP'
S'AAANCP'
tp579
F1
s(S'DP'
S'DADVADVADVNP'
tp580
F2
s(S'NP'
S'NNVVVVP'
tp581
F2
s(S'CP'
S'ADVACDDP'
tp582
F2
s(g126
S'DDDP'
tp583
F22
s(S'AP'
S'ADDDDP'
tp584
F1
s(S'VP'
S'VVADVADVPPP'
tp585
F1
s(S'DP'
S'DDADVPP'
tp586
F4
s(S'NP'
S'NNADP'
tp587
F1
s(g499
S'ANVVP'
tp588
F14
s(S'DP'
p589
S'DDDNNNP'
tp590
F1
s(S'VP'
p591
S'VVDP'
tp592
F146
s(S'NP'
S'NPPP'
tp593
F84
s(S'PP'
S'PPAPP'
tp594
F3
s(S'MP'
S'AMVVP'
tp595
F2
s(g44
S'DAVP'
tp596
F49
s(S'VP'
S'AVVVP'
tp597
F1
s(S'CP'
S'CDADVADVADVPP'
tp598
F4
s(S'AP'
S'ACP'
tp599
F168
s(S'PP'
S'AAPAP'
tp600
F2
s(S'VP'
S'VAAAAP'
tp601
F1
s(g67
S'PPNP'
tp602
F153
s(S'AP'
S'ADVACCP'
tp603
F6
s(g535
S'ADVDAPP'
tp604
F3
s(S'CP'
S'CDDPPPPP'
tp605
F1
s(S'VP'
S'AVADVCCP'
tp606
F1
s(g539
S'AADVP'
tp607
F2
s(S'NP'
S'NNNNCCP'
tp608
F1
s(S'MP'
S'MACP'
tp609
F1
s(S'VP'
S'VVVAP'
tp610
F1
s(S'VP'
S'VAANNP'
tp611
F2
s(S'CP'
S'CDDADVPP'
tp612
F2
s(S'CP'
S'CCCDDP'
tp613
F5
s(S'AP'
S'ADP'
tp614
F567
s(S'MP'
S'MVADVDDP'
tp615
F2
s(S'CP'
S'CADVDDPPP'
tp616
F1
s(g513
S'DDAAVP'
tp617
F1
s(S'NP'
S'ANPPP'
tp618
F8
s(g261
S'ADVDAAPP'
tp619
F1
s(g525
S'ADVANCCP'
tp620
F1
s(g47
S'PPPAVP'
tp621
F2
s(S'PP'
S'PADVADVMP'
tp622
F1
s(S'DP'
p623
S'DVVVVP'
tp624
F2
s(S'VP'
S'VVPPPP'
tp625
F1
s(g38
S'AAAVDP'
tp626
F1
s(S'MP'
S'MVVVCP'
tp627
F1
s(g131
S'AVDP'
tp628
F78
s(S'NP'
S'ANNVP'
tp629
F6
s(S'PP'
S'ADVAPDDP'
tp630
F2
s(g434
S'VVAP'
tp631
F53
s(S'NP'
S'NNAPP'
tp632
F4
s(S'MP'
S'MNADVVP'
tp633
F1
s(S'CP'
S'CDDDAPP'
tp634
F2
s(S'NP'
S'NNAMP'
tp635
F3
s(S'DP'
S'AADDVVP'
tp636
F1
s(S'PP'
p637
S'PADVADVDP'
tp638
F3
s(S'VP'
p639
S'AAVNNP'
tp640
F3
s(S'NP'
S'AANNVVP'
tp641
F1
s(g140
S'NPP'
tp642
F633
s(S'PP'
S'PPPPNP'
tp643
F8
s(g140
S'NVP'
tp644
F847
s(S'PP'
S'PPVVVP'
tp645
F3
s(S'PP'
S'PAAVP'
tp646
F13
s(S'VP'
S'VVAADP'
tp647
F1
s(S'NP'
S'NAAPP'
tp648
F5
s(S'PP'
S'PPPPVP'
tp649
F1
s(S'MP'
S'ADVMMVP'
tp650
F2
s(S'NP'
S'ADVANVVVVP'
tp651
F2
s(S'VP'
S'VDDP'
tp652
F138
s(S'VP'
S'ADVVADVAP'
tp653
F1
s(S'DP'
S'DADVADVPP'
tp654
F5
s(S'MP'
S'MADVAVDP'
tp655
F1
s(S'NP'
S'AANVVP'
tp656
F5
s(g9
S'DADVAPP'
tp657
F6
s(S'DP'
S'DDDDVVP'
tp658
F1
s(S'PP'
S'PPPDDP'
tp659
F2
s(S'PP'
p660
S'ADVAPAP'
tp661
F1
s(S'PP'
p662
S'PAAAVP'
tp663
F1
s(S'NP'
S'NADVADVVVP'
tp664
F11
s(S'NP'
S'ANPP'
tp665
F115
s(S'PP'
S'ADVPPDP'
tp666
F7
s(S'PP'
p667
S'PPPPP'
tp668
F15
s(S'MP'
S'MPDP'
tp669
F1
s(S'PP'
S'ADVADVPDP'
tp670
F4
s(S'MP'
S'MVVPP'
tp671
F1
s(S'PP'
p672
S'PPPNP'
tp673
F13
s(g555
S'DDDDDP'
tp674
F2
s(S'NP'
S'ADVADVNPP'
tp675
F2
s(g519
S'NPPPP'
tp676
F8
s(S'DP'
S'ADDP'
tp677
F12
s(S'NP'
S'ADVNADP'
tp678
F2
s(S'NP'
S'ADVADVNAP'
tp679
F1
s(S'CP'
S'CAADPP'
tp680
F14
s(S'AP'
S'AADVADVADVCCP'
tp681
F1
s(g451
S'DADVADVVP'
tp682
F3
s(S'NP'
p683
S'NAACP'
tp684
F7
s(S'PP'
S'PNNP'
tp685
F163
s(S'VP'
S'VADVACP'
tp686
F1
s(S'CP'
S'CDADVADVADVPPP'
tp687
F1
s(S'PP'
p688
S'APNNP'
tp689
F8
s(S'DP'
S'DDAAP'
tp690
F2
s(S'MP'
S'MMNP'
tp691
F1
s(S'DP'
S'AAADPP'
tp692
F2
s(S'PP'
S'PADVADVNP'
tp693
F3
s(S'NP'
S'NAAACP'
tp694
F1
s(S'NP'
S'NNNNMMP'
tp695
F1
s(S'VP'
S'AVAP'
tp696
F11
s(g441
S'MMVP'
tp697
F11
s(S'PP'
S'PADVDDP'
tp698
F6
s(S'NP'
S'ADVNCP'
tp699
F18
s(S'DP'
S'DDADVADVPP'
tp700
F1
s(S'DP'
p701
S'ADPP'
tp702
F121
s(S'CP'
S'ACDP'
tp703
F79
s(S'NP'
S'ADVADVADVNPP'
tp704
F1
s(g219
S'ADVVDDDP'
tp705
F1
s(g150
S'PAAP'
tp706
F53
s(S'NP'
S'ANADVADVVVP'
tp707
F1
s(S'AP'
S'ADVANP'
tp708
F3
s(S'NP'
p709
S'NNACP'
tp710
F5
s(S'DP'
S'AAADPPP'
tp711
F1
s(S'MP'
S'MDNNP'
tp712
F2
s(S'PP'
S'ADVADVADVPPNP'
tp713
F1
s(S'CP'
S'CDADVPPP'
tp714
F5
s(g277
S'VAP'
tp715
F348
s(S'VP'
S'AAVADVDP'
tp716
F1
s(S'VP'
S'VVVVNP'
tp717
F4
s(g539
S'DDDPP'
tp718
F23
s(S'CP'
S'ADVCDDP'
tp719
F1
s(S'NP'
S'AANNCP'
tp720
F2
s(S'PP'
S'ADVPMP'
tp721
F1
s(S'PP'
S'PAAPP'
tp722
F4
s(S'NP'
p723
S'ANADVADVVP'
tp724
F1
s(S'AP'
S'ADVAAPP'
tp725
F1
s(S'AP'
S'AAVVP'
tp726
F2
s(S'MP'
S'MAVPP'
tp727
F3
s(S'VP'
S'ADVADVVVAP'
tp728
F1
s(S'DP'
S'DDDPPP'
tp729
F2
s(S'VP'
S'ADVAVDP'
tp730
F3
s(S'DP'
S'ADAP'
tp731
F8
s(g259
S'DADVDP'
tp732
F2
s(S'NP'
S'ADVANPPP'
tp733
F1
s(g168
S'APADVVP'
tp734
F2
s(S'DP'
p735
S'DDDAP'
tp736
F2
s(S'CP'
S'CCADVADVADVADVADP'
tp737
F1
s(S'AP'
S'AAACP'
tp738
F3
s(S'DP'
S'ADADVVP'
tp739
F1
s(S'NP'
S'NAAP'
tp740
F23
s(S'PP'
p741
S'PAAMP'
tp742
F1
s(S'PP'
S'PPPVP'
tp743
F7
s(S'VP'
p744
S'AAVAP'
tp745
F1
s(S'AP'
S'AADDP'
tp746
F20
s(S'DP'
S'DADVAAP'
tp747
F2
s(S'VP'
S'VAANP'
tp748
F6
s(S'NP'
p749
S'NAADDP'
tp750
F1
s(S'NP'
S'NADVADVCP'
tp751
F1
s(S'PP'
S'ADVPADVDDDP'
tp752
F1
s(S'DP'
S'ADVADVADVDVP'
tp753
F1
s(S'NP'
S'NVVVVP'
tp754
F5
s(S'PP'
S'PAAAAP'
tp755
F2
s(S'NP'
S'ADVADVADVADVNNCP'
tp756
F1
s(S'DP'
S'ADPPPPP'
tp757
F2
s(S'MP'
S'MPNP'
tp758
F2
s(S'MP'
S'MVAAPP'
tp759
F1
s(S'MP'
S'MADP'
tp760
F3
s(g749
S'NAAAPPP'
tp761
F1
s(S'NP'
S'NNNDDP'
tp762
F3
s(S'VP'
S'ADVADVADVVAP'
tp763
F1
s(S'CP'
S'CCAADP'
tp764
F2
s(g83
S'ADVADVADDP'
tp765
F1
s(S'AP'
S'AADVAPP'
tp766
F1
s(S'DP'
S'DDADVNP'
tp767
F2
s(g741
S'PANP'
tp768
F89
s(S'DP'
S'AADNP'
tp769
F6
s(S'NP'
S'NADVDDP'
tp770
F5
s(S'DP'
S'ADVADPP'
tp771
F6
s(S'AP'
S'ADVAAACP'
tp772
F1
s(S'DP'
S'ADVDDVVP'
tp773
F1
s(S'NP'
S'AANMP'
tp774
F2
s(S'AP'
S'AAVP'
tp775
F13
s(g326
S'AVVP'
tp776
F12
s(g448
S'AADDDP'
tp777
F1
s(g356
S'NDDP'
tp778
F54
s(S'PP'
S'PADVMP'
tp779
F2
s(S'VP'
S'VADVAAP'
tp780
F2
s(S'AP'
S'ACCP'
tp781
F20
s(g221
S'ADAAP'
tp782
F1
s(S'DP'
S'DDDADVPP'
tp783
F1
s(S'VP'
p784
S'AVPPP'
tp785
F7
s(g530
S'NDP'
tp786
F328
s(g744
S'VVADVADVCP'
tp787
F1
s(S'NP'
S'AAANVP'
tp788
F1
s(S'VP'
S'VVVADVAP'
tp789
F1
s(S'MP'
S'MVAAP'
tp790
F2
s(g27
S'DDVP'
tp791
F107
s(g129
S'AANVP'
tp792
F23
s(S'DP'
S'ADDVP'
tp793
F3
s(S'VP'
S'VNNNP'
tp794
F13
s(S'VP'
S'VADVADVPP'
tp795
F1
s(S'PP'
S'ADVPAP'
tp796
F7
s(S'MP'
S'MMVVVP'
tp797
F1
s(S'PP'
S'APADVDP'
tp798
F1
s(g81
S'PCP'
tp799
F40
s(g88
S'NNPPP'
tp800
F11
s(S'PP'
S'PAADDP'
tp801
F1
s(S'PP'
p802
S'PAADP'
tp803
F8
s(g32
S'ADVNNVP'
tp804
F4
s(S'VP'
S'VVVAAP'
tp805
F1
s(g235
S'VPPPP'
tp806
F6
s(g223
S'ADVAVCP'
tp807
F1
s(S'PP'
S'PACP'
tp808
F1
s(S'MP'
S'MVNNNP'
tp809
F2
s(S'NP'
S'NNNDP'
tp810
F2
s(S'PP'
S'PPPVVVP'
tp811
F1
s(S'AP'
S'ADVACP'
tp812
F14
s(S'NP'
S'AANVVVP'
tp813
F1
s(S'PP'
S'AAPNNP'
tp814
F2
s(S'DP'
S'DDADVVP'
tp815
F4
s(g345
S'ADPPP'
tp816
F20
s(S'NP'
S'NNAAVP'
tp817
F1
s(S'MP'
S'MVCP'
tp818
F14
s(S'CP'
S'CCDDP'
tp819
F38
s(S'NP'
S'NNADVVP'
tp820
F11
s(S'NP'
S'AANNDP'
tp821
F1
s(S'VP'
S'ADVADVADVVPP'
tp822
F1
s(S'DP'
S'DDADP'
tp823
F2
s(g321
S'MVMP'
tp824
F1
s(S'NP'
S'ADVANAP'
tp825
F1
s(S'DP'
S'AAADNP'
tp826
F3
s(S'NP'
p827
S'NNVVP'
tp828
F31
s(S'PP'
p829
S'PPADVPPP'
tp830
F1
s(S'NP'
S'NNNNVP'
tp831
F3
s(g14
S'VVCP'
tp832
F48
s(S'PP'
p833
S'PADVADVPP'
tp834
F2
s(S'NP'
S'AANCP'
tp835
F16
s(S'VP'
S'VADVNP'
tp836
F14
s(S'VP'
S'ADVAVAP'
tp837
F1
s(S'AP'
S'ADVAVVP'
tp838
F1
s(S'MP'
S'MADVAVDDP'
tp839
F1
s(S'VP'
S'AVVPP'
tp840
F1
s(S'NP'
S'NNDDP'
tp841
F9
s(S'DP'
S'DDDDPPP'
tp842
F2
s(g784
S'ADVVPP'
tp843
F12
s(g829
S'ADVADVADVADVPDP'
tp844
F1
s(S'CP'
S'CADVADVADVDDPP'
tp845
F1
s(S'MP'
S'AAMVVP'
tp846
F1
s(S'CP'
S'CDAPPP'
tp847
F2
s(g40
S'VNNP'
tp848
F95
s(S'AP'
S'AADVDP'
tp849
F12
s(S'DP'
S'ADVDADVVP'
tp850
F1
s(S'NP'
S'NADP'
tp851
F12
s(S'NP'
S'ADVNADVPPP'
tp852
F1
s(S'PP'
S'AAAPPP'
tp853
F1
s(S'DP'
p854
S'DDNP'
tp855
F155
s(g95
S'NADVCP'
tp856
F21
s(g701
S'DDNNP'
tp857
F30
s(S'DP'
S'ADVDDADVVP'
tp858
F1
s(g662
S'AAPPP'
tp859
F2
s(S'PP'
S'PADVADVVVP'
tp860
F1
s(S'NP'
S'ADVANVP'
tp861
F1
s(S'AP'
S'AADVADP'
tp862
F1
s(S'VP'
S'VMMMP'
tp863
F1
s(g499
S'ADVADVNCP'
tp864
F2
s(g389
S'DADVADVNNP'
tp865
F1
s(S'AP'
S'AAADVVP'
tp866
F1
s(S'AP'
S'ADVADDP'
tp867
F2
s(S'DP'
S'AADPP'
tp868
F19
s(S'NP'
S'AAAANVVP'
tp869
F1
s(S'NP'
p870
S'ADVNAAAPP'
tp871
F1
s(S'VP'
S'ADVVACP'
tp872
F2
s(S'NP'
S'NNNNPP'
tp873
F2
s(S'MP'
p874
S'MADVAVNP'
tp875
F1
s(S'DP'
S'DADVADVANP'
tp876
F2
s(S'VP'
S'VVVVCP'
tp877
F3
s(S'NP'
S'NNNVVVVP'
tp878
F1
s(S'NP'
S'NNNP'
tp879
F1
s(S'PP'
S'PAANNP'
tp880
F1
s(S'AP'
S'AADVADVVP'
tp881
F1
s(S'PP'
S'AAPDP'
tp882
F14
s(S'NP'
S'ANVVVP'
tp883
F4
s(S'MP'
S'MVVNP'
tp884
F4
s(S'CP'
S'CDDADVPPP'
tp885
F1
s(S'PP'
p886
S'ADVAPVP'
tp887
F1
s(g285
S'ADVDNNP'
tp888
F3
s(S'CP'
S'ACDDP'
tp889
F19
s(g144
S'ADVADVNNCP'
tp890
F1
s(S'NP'
S'AANDP'
tp891
F4
s(S'AP'
S'AADVADVDDP'
tp892
F2
s(S'AP'
p893
S'AAPP'
tp894
F30
s(S'VP'
p895
S'VVCCP'
tp896
F20
s(S'DP'
S'DMMP'
tp897
F1
s(S'CP'
S'ADVCADVDDDP'
tp898
F1
s(S'PP'
S'APPNP'
tp899
F1
s(S'NP'
S'ADVADVNADVADVVVVP'
tp900
F1
s(g735
S'DAAAPP'
tp901
F1
s(S'PP'
S'ADVPANP'
tp902
F1
s(g20
S'VADVADP'
tp903
F2
s(S'CP'
S'CADVDAAPP'
tp904
F1
s(S'VP'
S'VVVCCP'
tp905
F5
s(g499
S'NAPP'
tp906
F53
s(S'PP'
p907
S'APPVP'
tp908
F1
s(S'AP'
S'ADVADVADP'
tp909
F3
s(S'NP'
S'NADVDP'
tp910
F4
s(S'VP'
p911
S'VVVCP'
tp912
F7
s(S'MP'
S'MADVADVVVDP'
tp913
F1
s(S'CP'
S'CCCDDDDDDP'
tp914
F1
s(S'CP'
S'ADVADVCADP'
tp915
F1
s(S'MP'
S'MVDDP'
tp916
F6
s(S'PP'
S'ADVADVPAP'
tp917
F1
s(S'NP'
p918
S'ANCCP'
tp919
F23
s(g918
S'AANPP'
tp920
F10
s(g356
S'NNCCP'
tp921
F24
s(g530
S'NNMP'
tp922
F23
s(g735
S'DDDVP'
tp923
F8
s(S'NP'
S'NNADVCP'
tp924
F3
s(S'CP'
S'CADDPP'
tp925
F2
s(S'PP'
S'PAAAP'
tp926
F9
s(S'PP'
S'ADVADVPNP'
tp927
F1
s(S'PP'
S'PPPAP'
tp928
F2
s(S'VP'
S'ADVAAAVDDP'
tp929
F1
s(S'CP'
S'CDDAPP'
tp930
F10
s(S'VP'
S'VVVPPP'
tp931
F1
s(S'NP'
S'ANAP'
tp932
F13
s(S'MP'
S'MVAP'
tp933
F24
s(g150
S'PVP'
tp934
F649
s(S'VP'
S'VADVPPP'
tp935
F2
s(S'MP'
S'MVVAAP'
tp936
F1
s(g199
S'DADVAVP'
tp937
F2
s(S'AP'
S'ADVADVAPP'
tp938
F2
s(S'PP'
S'PPADVVVP'
tp939
F1
s(S'MP'
S'MADVVVDP'
tp940
F1
s(S'AP'
S'AADVDDP'
tp941
F6
s(S'NP'
S'NNNNNVP'
tp942
F1
s(S'AP'
S'ADVAACP'
tp943
F1
s(S'NP'
S'ADVNAVP'
tp944
F5
s(S'DP'
S'DVVVP'
tp945
F14
s(S'VP'
S'VCCCCP'
tp946
F1
s(S'AP'
S'AADDDDDP'
tp947
F1
s(S'NP'
S'ADVADVADVNVP'
tp948
F1
s(S'NP'
S'ADVADVANVP'
tp949
F1
s(g486
S'PPDDP'
tp950
F14
s(g338
S'AVCP'
tp951
F17
s(S'DP'
S'DDVVVP'
tp952
F1
s(S'NP'
S'NAVVP'
tp953
F1
s(S'DP'
S'DPP'
tp954
F979
s(g530
S'ADVNVP'
tp955
F22
s(S'DP'
S'DDDVVP'
tp956
F2
s(S'DP'
p957
S'DDPP'
tp958
F266
s(S'DP'
S'DDADVPPP'
tp959
F3
s(S'DP'
S'DDAVP'
tp960
F4
s(g957
S'DANP'
tp961
F205
s(S'VP'
S'VVVVADVAP'
tp962
F1
s(S'NP'
S'NADVPP'
tp963
F15
s(S'PP'
S'ADVADVPPNP'
tp964
F2
s(S'NP'
S'AANADVVP'
tp965
F1
s(S'NP'
S'NAAVP'
tp966
F4
s(S'DP'
S'ADNNNP'
tp967
F1
s(S'PP'
S'APADVDDP'
tp968
F1
s(g741
S'PDDDP'
tp969
F16
s(S'DP'
S'ADVDDAPP'
tp970
F1
s(S'VP'
S'VADVCP'
tp971
F12
s(S'NP'
S'AAANNVVP'
tp972
F1
s(S'PP'
S'PMMMP'
tp973
F1
s(S'NP'
S'NNNNCP'
tp974
F6
s(S'VP'
S'ADVVAADP'
tp975
F1
s(S'NP'
S'NADVCCP'
tp976
F9
s(S'DP'
S'ADVDAAP'
tp977
F1
s(g274
S'NNAACP'
tp978
F1
s(g300
S'ADDPPP'
tp979
F1
s(S'NP'
S'NNNVVP'
tp980
F4
s(S'CP'
S'CADVADVDADVPP'
tp981
F1
s(S'DP'
S'DDADVADVVVP'
tp982
F1
s(g109
S'PADVPPP'
tp983
F4
s(S'NP'
S'NAANP'
tp984
F1
s(S'DP'
S'DCCP'
tp985
F5
s(S'DP'
S'AADDP'
tp986
F3
s(g660
S'PPADVADVVP'
tp987
F1
s(S'AP'
S'AADDDDP'
tp988
F2
s(S'CP'
S'CDPPPPP'
tp989
F5
s(S'MP'
S'MADVVDP'
tp990
F5
s(S'DP'
S'DDADVNNP'
tp991
F1
s(g907
S'PAPPP'
tp992
F1
s(S'VP'
S'VVADVADVNNP'
tp993
F1
s(g120
S'PDDP'
tp994
F116
s(S'DP'
p995
S'DADVADVADVVP'
tp996
F1
s(S'PP'
S'ADVAPNP'
tp997
F3
s(S'DP'
S'ADVADVDADVPP'
tp998
F1
s(S'NP'
p999
S'NNVP'
tp1000
F170
s(S'PP'
S'PADVADVADVDP'
tp1001
F1
s(g723
S'ADVADVNNDP'
tp1002
F1
s(S'PP'
S'ADVADVADVPNNP'
tp1003
F1
s(g505
S'AAAPDDP'
tp1004
F1
s(S'AP'
S'ADVADVACP'
tp1005
F1
s(S'PP'
S'AAPDDDP'
tp1006
F1
s(S'NP'
S'NNP'
tp1007
F4
s(S'VP'
p1008
S'VVDDP'
tp1009
F14
s(S'VP'
S'VAADDP'
tp1010
F1
s(g589
S'DAANP'
tp1011
F33
s(g893
S'ADDP'
tp1012
F69
s(S'VP'
S'VADVADVMP'
tp1013
F1
s(S'PP'
S'PNNNNP'
tp1014
F4
s(g213
S'ADVPPNP'
tp1015
F9
s(S'NP'
S'ADVADVNVVP'
tp1016
F1
s(S'VP'
S'VVVAAANNP'
tp1017
F1
s(S'NP'
S'ADVADVANCP'
tp1018
F2
s(S'CP'
p1019
S'CADVADVDPP'
tp1020
F7
s(S'CP'
S'ADVADVADVCDP'
tp1021
F1
s(g701
S'DPPP'
tp1022
F250
s(S'DP'
S'DADVADVADVNNP'
tp1023
F1
s(S'MP'
S'MVAAPPP'
tp1024
F1
s(g439
S'AADPPP'
tp1025
F2
s(S'CP'
S'ADVADVADVCCDP'
tp1026
F1
s(g235
S'VANNP'
tp1027
F3
s(S'AP'
S'AAAP'
tp1028
F4
s(S'NP'
S'NNAVP'
tp1029
F5
s(S'NP'
S'NNAAPP'
tp1030
F1
s(S'VP'
S'AVVCP'
tp1031
F1
s(S'NP'
S'NMMMP'
tp1032
F2
s(S'PP'
S'PPPANP'
tp1033
F1
s(S'NP'
S'NNNADVVVP'
tp1034
F2
s(S'DP'
S'DDADVADVNP'
tp1035
F1
s(S'DP'
S'DDDDDDPP'
tp1036
F1
s(g263
S'ADVPNP'
tp1037
F29
s(g29
S'PPDP'
tp1038
F133
s(S'MP'
S'MAVDP'
tp1039
F5
s(g458
S'AAAANADVADVAP'
tp1040
F1
s(g245
S'ADVADVADVPVP'
tp1041
F1
s(S'DP'
S'DDPPPP'
tp1042
F1
s(S'MP'
S'AMADVVP'
tp1043
F1
s(S'PP'
S'AAPADVNNP'
tp1044
F1
s(S'PP'
S'APPPP'
tp1045
F4
s(g211
S'ADVVVCP'
tp1046
F4
s(S'NP'
S'NADVADVADVPP'
tp1047
F2
s(S'NP'
S'ANDDDP'
tp1048
F1
s(S'MP'
S'MVVAP'
tp1049
F2
s(S'NP'
S'AAANMP'
tp1050
F1
s(S'DP'
p1051
S'DDCP'
tp1052
F5
s(S'DP'
S'AADDNP'
tp1053
F1
s(g282
S'AAADVADVADVADVPP'
tp1054
F1
s(g591
S'VVADP'
tp1055
F6
s(S'DP'
S'ADVDDNNP'
tp1056
F5
s(g175
S'PPADVDDP'
tp1057
F1
s(S'AP'
S'AAAPP'
tp1058
F5
s(S'VP'
S'ADVVDDP'
tp1059
F3
s(S'MP'
S'MVVADVAPP'
tp1060
F1
s(g999
S'NAP'
tp1061
F185
s(g418
S'NNAAP'
tp1062
F3
s(S'VP'
S'VAAAP'
tp1063
F9
s(S'VP'
S'ADVVVADVAP'
tp1064
F1
s(S'VP'
S'ADVAVNP'
tp1065
F2
s(g277
S'VVP'
tp1066
F101
s(S'NP'
S'NNNNNNNVP'
tp1067
F1
s(S'DP'
S'DDAPP'
tp1068
F17
s(g833
S'ADVADVPVP'
tp1069
F3
s(S'DP'
S'ADVADVADVDDVP'
tp1070
F1
s(S'AP'
S'AAADP'
tp1071
F17
s(g150
S'APNP'
tp1072
F64
s(S'VP'
S'VVVNNP'
tp1073
F4
s(g623
S'DDDAPP'
tp1074
F3
s(S'AP'
S'AADVADVPP'
tp1075
F1
s(g995
S'DDVVP'
tp1076
F13
s(S'MP'
S'MVVADVAP'
tp1077
F2
s(g521
S'VVVNP'
tp1078
F25
s(S'MP'
S'AMAP'
tp1079
F1
s(g886
S'PADVAPP'
tp1080
F1
s(S'VP'
S'AVPPPP'
tp1081
F1
s(S'NP'
S'NAMP'
tp1082
F6
s(S'MP'
S'MVANP'
tp1083
F1
s(S'DP'
S'ADVADVDDPP'
tp1084
F3
s(g874
S'MVNNP'
tp1085
F8
s(S'CP'
S'CDPP'
tp1086
F809
s(S'MP'
S'MADVADVVDDP'
tp1087
F1
s(S'PP'
S'ADVADVADVPMP'
tp1088
F1
s(S'MP'
S'MVVNNP'
tp1089
F3
s(S'AP'
S'ADDDP'
tp1090
F6
s(S'MP'
S'MMAAVP'
tp1091
F1
s(S'NP'
S'NNDP'
tp1092
F53
s(S'MP'
S'MMMVP'
tp1093
F4
s(S'DP'
S'ADVADVADVADVDPP'
tp1094
F1
s(S'DP'
S'DDDADVVVP'
tp1095
F1
s(S'DP'
S'ADDDP'
tp1096
F1
s(S'CP'
S'ADVCDP'
tp1097
F33
s(S'VP'
S'ADVADVVNP'
tp1098
F11
s(S'NP'
S'NADVADVADVCP'
tp1099
F1
s(S'PP'
S'ADVPVVP'
tp1100
F2
s(S'MP'
S'MNDDP'
tp1101
F1
s(S'CP'
S'ADVACDP'
tp1102
F1
s(g911
S'ADVADVVCP'
tp1103
F2
s(g24
S'PPNNP'
tp1104
F25
s(S'PP'
S'ADVAPPP'
tp1105
F1
s(g470
S'PPMP'
tp1106
F5
s(S'PP'
S'PADVADVADVVVP'
tp1107
F1
s(g402
S'ADVADVDPP'
tp1108
F9
s(S'VP'
S'VAADP'
tp1109
F3
s(S'NP'
S'NADVAP'
tp1110
F4
s(g49
S'AVDDP'
tp1111
F9
s(S'PP'
S'ADVADVPPNNP'
tp1112
F1
s(g854
S'DADVNP'
tp1113
F26
s(g439
S'DAP'
tp1114
F105
s(g36
S'CADPP'
tp1115
F79
s(g999
S'NNNNNDP'
tp1116
F1
s(g918
S'NADVAVP'
tp1117
F3
s(S'VP'
S'ADVADVVVPP'
tp1118
F3
s(S'VP'
S'VVAAPP'
tp1119
F1
s(S'NP'
S'NNADVAPP'
tp1120
F1
s(S'MP'
S'MADVADVVDP'
tp1121
F1
s(S'PP'
S'PPDDDP'
tp1122
F1
s(S'VP'
S'AVPP'
tp1123
F45
s(g683
S'NADVADVMP'
tp1124
F2
s(S'CP'
S'CAADPPP'
tp1125
F2
s(S'VP'
S'AAVCP'
tp1126
F2
s(S'DP'
S'DDNNNNP'
tp1127
F5
s(g870
S'NADVAAAVP'
tp1128
F1
s(S'VP'
S'VVADVDP'
tp1129
F2
s(S'CP'
S'CDADVADVPP'
tp1130
F2
s(g336
S'PAVVP'
tp1131
F3
s(S'CP'
S'CDPPPP'
tp1132
F15
s(g672
S'PPAADP'
tp1133
F1
s(g1008
S'AAVDP'
tp1134
F11
s(S'DP'
S'AADNNP'
tp1135
F1
s(S'PP'
p1136
S'PANNP'
tp1137
F3
s(S'VP'
S'ADVADVVVP'
tp1138
F1
s(g342
S'VACCP'
tp1139
F1
s(g637
S'APPP'
tp1140
F17
s(g513
S'ADPPPP'
tp1141
F1
s(S'DP'
S'DAPPP'
tp1142
F5
s(S'AP'
S'AAADVDP'
tp1143
F1
s(g1051
S'DMP'
tp1144
F14
s(S'DP'
S'ADVDPP'
tp1145
F55
s(S'NP'
S'NADVAPP'
tp1146
F1
s(g688
S'PPAANP'
tp1147
F4
s(S'NP'
S'AAANPP'
tp1148
F1
s(g179
S'PADVADVAPP'
tp1149
F1
s(S'DP'
S'DDACP'
tp1150
F2
s(g854
S'DADVMP'
tp1151
F1
s(g893
S'AADP'
tp1152
F118
s(g479
S'PPAAVP'
tp1153
F3
s(g709
S'NNADVVVP'
tp1154
F5
s(S'NP'
S'NADVANP'
tp1155
F1
s(g895
S'VADVPP'
tp1156
F16
s(S'DP'
S'DDAAPP'
tp1157
F6
s(S'CP'
S'CCADVDDP'
tp1158
F3
s(S'PP'
S'PVVVVP'
tp1159
F1
s(g802
S'ADVPVP'
tp1160
F21
s(S'DP'
S'DDDDPP'
tp1161
F5
s(S'AP'
S'ADVADVAVP'
tp1162
F1
s(S'NP'
S'NNVVVP'
tp1163
F10
s(g172
S'ADVVANP'
tp1164
F3
s(S'DP'
S'DDADVADVADVADVNNP'
tp1165
F1
s(g1136
S'ADVPDP'
tp1166
F22
s(S'VP'
S'ADVVADP'
tp1167
F2
s(g667
S'PPPVVP'
tp1168
F1
s(g330
S'PPDDDDP'
tp1169
F2
s(S'AP'
S'ADVADVADVAAADP'
tp1170
F1
s(S'NP'
S'NCP'
tp1171
F670
s(S'PP'
S'AAPADVPP'
tp1172
F1
s(S'CP'
S'CADVDPPP'
tp1173
F2
s(S'VP'
S'ADVVVPP'
tp1174
F11
s(S'PP'
S'PPADVNNP'
tp1175
F1
s(S'PP'
S'AAAPNP'
tp1176
F1
s(S'NP'
S'ADVANDP'
tp1177
F1
s(S'DP'
S'ADVVP'
tp1178
F4
s(S'PP'
S'ADVPADVADVNNP'
tp1179
F1
s(g189
S'AAAADDP'
tp1180
F2
s(S'PP'
S'PPAAAP'
tp1181
F3
s(g360
S'ADVPDDP'
tp1182
F3
s(S'PP'
S'PPPADVDP'
tp1183
F1
s(g441
S'MVCCP'
tp1184
F2
s(S'DP'
S'DADVNNP'
tp1185
F6
s(g334
S'PPADVADVPPP'
tp1186
F1
s(g784
S'VDDDP'
tp1187
F13
s(S'MP'
S'MNVP'
tp1188
F4
s(S'VP'
S'ADVADVADVVVCP'
tp1189
F1
s(S'NP'
S'AANCCP'
tp1190
F4
s(g521
S'VAPP'
tp1191
F39
s(S'NP'
S'NPPPPP'
tp1192
F1
s(S'MP'
S'MAVNP'
tp1193
F1
s(S'CP'
S'ACCDP'
tp1194
F1
s(S'VP'
S'ADVVDP'
tp1195
F33
s(g639
S'VADDP'
tp1196
F3
s(S'NP'
S'ADVADVADVNNVP'
tp1197
F1
s(S'DP'
S'DADVPP'
tp1198
F47
s(S'AP'
S'AMP'
tp1199
F3
s(S'CP'
S'CCADP'
tp1200
F13
s(S'NP'
S'ADVNNCP'
tp1201
F8
s(S'DP'
S'ADVDAP'
tp1202
F2
s(S'PP'
S'ADVADVADVPNP'
tp1203
F3
s(S'NP'
S'NNNPPP'
tp1204
F6
s(S'AP'
S'ADVAPP'
tp1205
F15
s(S'PP'
S'ADVPPVVP'
tp1206
F1
s(S'MP'
S'ADVADVMNP'
tp1207
F1
s(g1019
S'AACDP'
tp1208
F6
s(S'NP'
S'NNNCCP'
tp1209
F1
s(S'CP'
S'CCDDDP'
tp1210
F3
s(S'CP'
S'CCADVADVDDP'
tp1211
F3
s(S'DP'
S'DDDDAPP'
tp1212
F2
s(g285
S'ADVDPPP'
tp1213
F7
s(g27
S'DVP'
tp1214
F600
s(S'VP'
S'AVNNP'
tp1215
F4
s(S'NP'
S'ADVNPP'
tp1216
F12
s(S'VP'
S'ADVADVADVVVNP'
tp1217
F1
s(g519
S'NNCCCP'
tp1218
F2
s(S'PP'
S'PADVADVDDP'
tp1219
F1
s(S'AP'
S'AVP'
tp1220
F83
s(S'MP'
S'MVVVVADVAP'
tp1221
F1
s(S'NP'
S'NADVVP'
tp1222
F45
s(S'CP'
S'CDAAAPP'
tp1223
F1
s(S'NP'
S'NNNMP'
tp1224
F2
s(S'VP'
S'ADVVPPP'
tp1225
F2
s(g854
S'DDPPP'
tp1226
F42
s(S'NP'
S'ADVNMP'
tp1227
F2
s(g827
S'NNAP'
tp1228
F22
s(S'VP'
S'VADVADVNNP'
tp1229
F1
s(g156
S'ADVADVNMP'
tp1230
F1
s(g81
S'PPANP'
tp1231
F10
s(S'CP'
S'ADVADVACDP'
tp1232
F1
s(S'CP'
S'CDADVPP'
tp1233
F25
s(g591
S'VNP'
tp1234
F585
s(S'NP'
S'AANNVP'
tp1235
F1
s(S'VP'
S'VANP'
tp1236
F47
s(S'VP'
S'VADVAP'
tp1237
F26
s(S'DP'
S'DDDANP'
tp1238
F1
s(S'PP'
S'PPADVNP'
tp1239
F5
s(S'PP'
S'AAPVVVP'
tp1240
F1
s(S'DP'
S'DDDDVP'
tp1241
F5
s(S'VP'
S'ADVADVVVDP'
tp1242
F6
s(S'VP'
S'VVADVCCP'
tp1243
F2
s(S'DP'
S'AADDVP'
tp1244
F1
s(S'NP'
S'NADVPPP'
tp1245
F2
s.