ccollections
defaultdict
p1
(c__builtin__
float
p2
tRp3
(S'VP'
S'VVAAAP'
tp4
F1
s(S'AP'
p5
S'AADVPPP'
tp6
F1
s(S'NP'
S'AANDDP'
tp7
F1
s(S'CP'
S'CAAADPP'
tp8
F1
s(S'PP'
S'PAAANP'
tp9
F2
s(S'DP'
p10
S'DDAP'
tp11
F2
s(S'VP'
S'ADVVVNP'
tp12
F2
s(S'VP'
S'AVADVADVDP'
tp13
F1
s(S'AP'
S'AADDDP'
tp14
F2
s(S'AP'
S'AADVADVACP'
tp15
F1
s(S'VP'
p16
S'VVVVP'
tp17
F3
s(S'DP'
S'ADVADVDDNP'
tp18
F3
s(S'PP'
S'ADVADVPAP'
tp19
F2
s(S'PP'
S'PAPP'
tp20
F12
s(S'PP'
S'PADVNP'
tp21
F12
s(S'DP'
p22
S'DNP'
tp23
F260
s(S'NP'
p24
S'ADVNDP'
tp25
F3
s(S'PP'
p26
S'AAPDDP'
tp27
F2
s(S'CP'
p28
S'CDPPP'
tp29
F61
s(S'VP'
p30
S'VADP'
tp31
F27
s(S'DP'
S'DNNNNP'
tp32
F2
s(S'CP'
S'CCADVADVADP'
tp33
F1
s(S'DP'
p34
S'DAAP'
tp35
F10
s(S'PP'
p36
S'PPPPPP'
tp37
F2
s(S'VP'
S'VAVP'
tp38
F2
s(S'CP'
S'CADVADVDPPP'
tp39
F1
s(S'DP'
p40
S'DAADP'
tp41
F1
s(S'DP'
S'ADNNP'
tp42
F1
s(S'VP'
S'AVADVDP'
tp43
F1
s(S'VP'
p44
S'ADVVNP'
tp45
F5
s(S'MP'
S'MVDP'
tp46
F16
s(S'NP'
p47
S'AANNPP'
tp48
F1
s(S'PP'
p49
S'PPPP'
tp50
F34
s(S'VP'
p51
S'ADVAVVAP'
tp52
F1
s(S'DP'
p53
S'DDDNP'
tp54
F3
s(S'CP'
S'CAADDPPPP'
tp55
F1
s(S'VP'
p56
S'VACP'
tp57
F11
s(S'AP'
S'AAAVP'
tp58
F3
s(S'PP'
p59
S'PPAAP'
tp60
F5
s(S'DP'
p61
S'DADVVP'
tp62
F7
s(S'MP'
S'MVVADVDP'
tp63
F1
s(S'PP'
S'PAANNP'
tp64
F1
s(S'PP'
S'PADVNNP'
tp65
F2
s(S'AP'
S'AADVPP'
tp66
F2
s(S'NP'
S'NADVACP'
tp67
F3
s(S'NP'
p68
S'NAAVVP'
tp69
F1
s(S'NP'
S'NDDDP'
tp70
F1
s(S'NP'
S'NADVVVP'
tp71
F11
s(S'CP'
S'CADVDAPP'
tp72
F3
s(S'VP'
p73
S'VCP'
tp74
F126
s(S'VP'
S'ADVVAAP'
tp75
F3
s(S'CP'
S'ADVACDDDP'
tp76
F1
s(S'VP'
S'ADVVCCP'
tp77
F1
s(S'PP'
p78
S'PAP'
tp79
F132
s(S'PP'
p80
S'PPANNP'
tp81
F1
s(S'VP'
S'VADVADVAP'
tp82
F1
s(g80
S'ADVPPVP'
tp83
F3
s(S'VP'
p84
S'VADVNP'
tp85
F5
s(S'NP'
S'NNNAP'
tp86
F1
s(S'NP'
p87
S'ANPPP'
tp88
F4
s(S'NP'
S'NNNNVVVP'
tp89
F1
s(S'CP'
S'CCDDDDP'
tp90
F1
s(S'VP'
S'AAVNNP'
tp91
F1
s(g78
S'PNP'
tp92
F259
s(g84
S'VVADVADVNP'
tp93
F2
s(S'PP'
S'PAAADP'
tp94
F1
s(S'DP'
p95
S'DDP'
tp96
F48
s(S'VP'
S'ADVVDDP'
tp97
F6
s(S'NP'
p98
S'NNNPP'
tp99
F5
s(S'PP'
p100
S'PAAP'
tp101
F20
s(S'MP'
S'MCDP'
tp102
F2
s(S'DP'
S'ADVDADVNNNP'
tp103
F1
s(S'DP'
S'ADVADVADNP'
tp104
F1
s(S'DP'
S'DADVDDP'
tp105
F2
s(S'NP'
p106
S'NMP'
tp107
F49
s(S'PP'
S'PAAAAP'
tp108
F1
s(S'VP'
S'AVADVPP'
tp109
F1
s(S'DP'
p110
S'ADCP'
tp111
F1
s(S'VP'
p112
S'AAAAVCP'
tp113
F1
s(S'VP'
S'VAAADP'
tp114
F1
s(S'VP'
S'AAVNP'
tp115
F1
s(g78
S'PDP'
tp116
F248
s(S'DP'
S'DDPPPPP'
tp117
F1
s(S'PP'
p118
S'PPADVVP'
tp119
F3
s(S'NP'
S'ADVNVVP'
tp120
F1
s(S'NP'
p121
S'ADVADVADVNDP'
tp122
F1
s(S'NP'
S'AAANVVP'
tp123
F1
s(S'CP'
S'CDADVADVPPP'
tp124
F1
s(S'VP'
p125
S'ADVVADVADVAPP'
tp126
F1
s(S'VP'
S'AVAAP'
tp127
F1
s(S'NP'
S'NNADVADVADVVVP'
tp128
F1
s(S'NP'
S'NACCP'
tp129
F3
s(S'PP'
p130
S'PADVPP'
tp131
F4
s(S'PP'
p132
S'PDDDDP'
tp133
F1
s(S'NP'
S'NNADVCP'
tp134
F1
s(S'VP'
S'VVADVNP'
tp135
F1
s(S'PP'
S'PPADVAP'
tp136
F1
s(g53
S'DPPPP'
tp137
F9
s(S'DP'
p138
S'DDANP'
tp139
F12
s(S'NP'
p140
S'NACP'
tp141
F22
s(g87
S'NCCP'
tp142
F63
s(S'VP'
p143
S'AVADVNP'
tp144
F1
s(S'VP'
p145
S'VVCCCP'
tp146
F1
s(S'VP'
S'ADVVAANP'
tp147
F1
s(g106
S'NNCP'
tp148
F67
s(S'DP'
p149
S'ADVDDPP'
tp150
F9
s(S'DP'
S'DDDADVVP'
tp151
F1
s(S'DP'
p152
S'DDDDP'
tp153
F3
s(S'VP'
p154
S'AVNP'
tp155
F9
s(g112
S'VVADP'
tp156
F2
s(S'VP'
S'ADVADVADVVVDP'
tp157
F1
s(S'AP'
S'AACCP'
tp158
F3
s(S'MP'
p159
S'MVVNP'
tp160
F1
s(g49
S'ADVAPDP'
tp161
F1
s(S'VP'
S'VADVVP'
tp162
F1
s(S'DP'
S'AAADPP'
tp163
F1
s(S'MP'
S'MVAPP'
tp164
F1
s(S'MP'
S'MVPPP'
tp165
F2
s(S'NP'
S'ANADVVP'
tp166
F4
s(g132
S'ADVPADVDP'
tp167
F1
s(S'VP'
S'VAAMP'
tp168
F1
s(S'DP'
S'DADVAP'
tp169
F1
s(S'NP'
S'NCCCCP'
tp170
F2
s(S'CP'
p171
S'CCCDP'
tp172
F7
s(S'VP'
S'ADVVAP'
tp173
F9
s(S'PP'
S'ADVPPNNP'
tp174
F1
s(S'VP'
p175
S'VCCCP'
tp176
F2
s(S'PP'
p177
S'APDP'
tp178
F43
s(S'VP'
p179
S'ADVVNNP'
tp180
F1
s(S'AP'
S'AADVCP'
tp181
F2
s(S'DP'
p182
S'DDANNP'
tp183
F1
s(g73
S'VVANP'
tp184
F3
s(S'VP'
S'VVVVDP'
tp185
F3
s(S'AP'
S'AADVADVADVCP'
tp186
F1
s(S'DP'
p187
S'DADVADVADVPP'
tp188
F1
s(S'NP'
p189
S'AAANDDP'
tp190
F1
s(S'MP'
S'MADVVNP'
tp191
F1
s(g121
S'ADVANCP'
tp192
F6
s(g138
S'DNNP'
tp193
F71
s(S'CP'
p194
S'CADVDDPP'
tp195
F5
s(S'DP'
S'DPPPPP'
tp196
F2
s(S'CP'
S'CCADVDP'
tp197
F3
s(S'VP'
p198
S'VVNNNP'
tp199
F2
s(S'VP'
p200
S'VVACP'
tp201
F1
s(g22
S'ADDNP'
tp202
F1
s(g98
S'NNNVP'
tp203
F6
s(S'PP'
p204
S'PAAVVP'
tp205
F1
s(S'VP'
S'VADVNNP'
tp206
F1
s(S'PP'
p207
S'ADVAPVVP'
tp208
F1
s(S'PP'
p209
S'PPNNNNP'
tp210
F1
s(g100
S'PADVVP'
tp211
F8
s(S'DP'
S'DACP'
tp212
F1
s(S'DP'
p213
S'DAAVP'
tp214
F1
s(S'NP'
S'ANNADVCP'
tp215
F1
s(S'DP'
S'DADVVVP'
tp216
F1
s(S'PP'
S'APAP'
tp217
F2
s(S'AP'
p218
S'APP'
tp219
F53
s(S'DP'
S'ADVDDCP'
tp220
F1
s(S'AP'
S'ACCCP'
tp221
F2
s(S'NP'
p222
S'NADVMP'
tp223
F3
s(g218
S'AAP'
tp224
F9
s(S'MP'
p225
S'ADVMAVP'
tp226
F1
s(S'VP'
p227
S'VVAPP'
tp228
F2
s(S'DP'
S'DDDNNNNNP'
tp229
F1
s(S'DP'
S'DAAAPP'
tp230
F2
s(S'PP'
S'PAAAAVP'
tp231
F1
s(S'NP'
S'ADVANPP'
tp232
F1
s(S'VP'
S'VADVADVNP'
tp233
F1
s(S'CP'
S'CDDDDPP'
tp234
F5
s(S'PP'
S'PAANP'
tp235
F5
s(S'VP'
S'VVVANP'
tp236
F1
s(S'NP'
p237
S'ANVP'
tp238
F40
s(S'VP'
S'VAACP'
tp239
F2
s(S'MP'
S'MVNP'
tp240
F15
s(S'CP'
p241
S'CDDDPPP'
tp242
F3
s(S'MP'
S'MADVVAAP'
tp243
F1
s(S'PP'
S'PAVP'
tp244
F22
s(S'MP'
S'ADVMVP'
tp245
F3
s(S'VP'
p246
S'ADVVMP'
tp247
F1
s(S'VP'
p248
S'VVVPP'
tp249
F8
s(S'AP'
S'ADVACCP'
tp250
F1
s(S'VP'
S'ADVAVADVDP'
tp251
F1
s(S'DP'
S'ADVADVDNNP'
tp252
F1
s(S'AP'
S'ADVADP'
tp253
F4
s(S'CP'
S'ADVADVCDP'
tp254
F1
s(g198
S'VVADVPP'
tp255
F1
s(S'DP'
S'ADVDDP'
tp256
F2
s(S'PP'
p257
S'APDDP'
tp258
F9
s(S'VP'
S'ADVADVVANP'
tp259
F1
s(S'NP'
p260
S'ADVNAP'
tp261
F3
s(S'DP'
S'DAAAVP'
tp262
F1
s(S'PP'
p263
S'PPCP'
tp264
F2
s(g78
S'APVP'
tp265
F25
s(g30
S'VVNP'
tp266
F39
s(S'PP'
S'ADVPPPP'
tp267
F2
s(S'DP'
S'DADVCCP'
tp268
F1
s(g100
S'PPVP'
tp269
F44
s(S'PP'
S'ADVPAADP'
tp270
F1
s(g44
S'VADVDP'
tp271
F9
s(S'MP'
S'MVVVPP'
tp272
F1
s(S'VP'
S'VVADVAP'
tp273
F2
s(S'VP'
S'VAAP'
tp274
F25
s(g68
S'ANDP'
tp275
F16
s(g87
S'NVVP'
tp276
F65
s(S'PP'
p277
S'AAPVP'
tp278
F3
s(S'PP'
S'PPADP'
tp279
F1
s(S'VP'
p280
S'VMP'
tp281
F5
s(S'NP'
S'ANNAP'
tp282
F1
s(S'VP'
p283
S'VVNNP'
tp284
F14
s(S'CP'
p285
S'CDAPP'
tp286
F42
s(S'VP'
S'VVAAP'
tp287
F3
s(S'DP'
S'DDDDVVVP'
tp288
F1
s(S'AP'
S'AACCCP'
tp289
F1
s(g149
S'ADNP'
tp290
F29
s(S'VP'
S'AVVDP'
tp291
F1
s(S'VP'
S'ADVADVVNP'
tp292
F1
s(S'PP'
p293
S'PADP'
tp294
F22
s(S'NP'
S'ADVNNNCP'
tp295
F1
s(S'VP'
p296
S'ADVVVCP'
tp297
F4
s(S'AP'
S'AAAACP'
tp298
F1
s(S'NP'
S'ADVNADVVP'
tp299
F1
s(S'NP'
S'ANDDP'
tp300
F4
s(S'DP'
S'ADVADVDVP'
tp301
F1
s(S'VP'
S'VVVDDP'
tp302
F1
s(S'DP'
S'DDDVP'
tp303
F4
s(g110
S'DAPP'
tp304
F57
s(S'VP'
S'AVVP'
tp305
F1
s(S'VP'
S'ADVADVVPP'
tp306
F1
s(S'MP'
S'MADVADVVNP'
tp307
F1
s(S'VP'
S'VADVAAP'
tp308
F2
s(S'PP'
S'AAAPVP'
tp309
F2
s(g248
S'ADVADVVDP'
tp310
F5
s(S'PP'
S'PPPDP'
tp311
F3
s(S'VP'
p312
S'VVAAANP'
tp313
F1
s(S'MP'
S'MVVAP'
tp314
F1
s(S'VP'
S'VDDDDP'
tp315
F1
s(S'AP'
S'ADVADVADVADVAADP'
tp316
F1
s(S'DP'
p317
S'DADVANP'
tp318
F5
s(S'VP'
S'VAAPP'
tp319
F1
s(g10
S'ADVDNP'
tp320
F7
s(S'VP'
p321
S'VVPP'
tp322
F44
s(S'NP'
S'AAANPP'
tp323
F1
s(S'DP'
p324
S'ADADVPP'
tp325
F1
s(S'MP'
p326
S'MVPP'
tp327
F5
s(g53
S'ADVP'
tp328
F17
s(g225
S'MVADP'
tp329
F1
s(S'CP'
S'CDDPPP'
tp330
F12
s(S'NP'
S'NNADVADVAP'
tp331
F1
s(g140
S'NNPP'
tp332
F41
s(S'DP'
p333
S'DDDDNP'
tp334
F3
s(S'MP'
S'MVVDP'
tp335
F3
s(g40
S'DADVPPP'
tp336
F3
s(g100
S'PPVVP'
tp337
F9
s(S'VP'
S'AAAVDDP'
tp338
F1
s(S'DP'
S'DNNNP'
tp339
F8
s(g152
S'ADVDDVP'
tp340
F2
s(S'PP'
S'PADVADVVP'
tp341
F1
s(S'VP'
S'VADVDDP'
tp342
F1
s(g118
S'PMMP'
tp343
F2
s(g277
S'PVVVP'
tp344
F4
s(S'PP'
p345
S'PMP'
tp346
F13
s(g345
S'ADVPPAP'
tp347
F1
s(S'CP'
p348
S'CCDP'
tp349
F84
s(S'NP'
p350
S'ANNDP'
tp351
F1
s(S'MP'
S'AMVP'
tp352
F3
s(g204
S'PPNNNP'
tp353
F3
s(g95
S'AADDPP'
tp354
F3
s(S'VP'
S'ADVAVVP'
tp355
F1
s(g140
S'NVVVP'
tp356
F12
s(g171
S'CDDDPP'
tp357
F7
s(S'PP'
S'PADVADVADVADVNP'
tp358
F1
s(S'CP'
p359
S'CDAAPP'
tp360
F4
s(S'VP'
S'ADVAVNNNP'
tp361
F1
s(S'VP'
p362
S'ADVADVVVVP'
tp363
F1
s(S'VP'
p364
S'VVVDP'
tp365
F4
s(S'NP'
p366
S'NADVAP'
tp367
F5
s(g49
S'PNNNP'
tp368
F8
s(S'MP'
S'MVVVAP'
tp369
F1
s(S'CP'
S'CCCCDP'
tp370
F2
s(S'NP'
p371
S'ANMMP'
tp372
F1
s(S'PP'
S'ADVADVADVPAAAP'
tp373
F1
s(S'PP'
S'AAPNP'
tp374
F8
s(S'CP'
p375
S'CADADVPP'
tp376
F1
s(S'PP'
p377
S'PPP'
tp378
F97
s(S'NP'
p379
S'NNVVP'
tp380
F9
s(S'NP'
S'NAVP'
tp381
F21
s(S'PP'
S'PADVAP'
tp382
F4
s(S'DP'
p383
S'DDNNNP'
tp384
F1
s(S'VP'
p385
S'ADVVAPP'
tp386
F1
s(g78
S'PADDP'
tp387
F1
s(S'DP'
p388
S'ADVDVP'
tp389
F6
s(g371
S'NAAAP'
tp390
F3
s(S'NP'
S'NCCCP'
tp391
F3
s(S'DP'
S'DADVADVPPP'
tp392
F1
s(S'AP'
p393
S'AADVVP'
tp394
F3
s(S'NP'
S'NNDDP'
tp395
F1
s(S'DP'
S'DAAAP'
tp396
F1
s(S'DP'
p397
S'ADVADVDNP'
tp398
F5
s(S'AP'
p399
S'AAADVCP'
tp400
F1
s(g73
S'VPP'
tp401
F169
s(S'CP'
S'ADVCCDP'
tp402
F5
s(g175
S'ADVADVVVP'
tp403
F1
s(S'CP'
S'ACCDP'
tp404
F3
s(S'DP'
p405
S'ADVDDNP'
tp406
F3
s(S'NP'
S'NNNCP'
tp407
F6
s(g49
S'PADVDP'
tp408
F9
s(S'CP'
S'CDADVAPP'
tp409
F3
s(S'DP'
S'DANNP'
tp410
F2
s(S'MP'
S'MADVVAP'
tp411
F1
s(S'PP'
S'PADVAAP'
tp412
F1
s(g348
S'CDDPP'
tp413
F66
s(S'DP'
p414
S'DAAPP'
tp415
F12
s(g100
S'PVVP'
tp416
F47
s(g285
S'CADPPP'
tp417
F4
s(S'AP'
p418
S'AACP'
tp419
F15
s(S'VP'
S'ADVAVDDP'
tp420
F2
s(S'MP'
S'MAVCP'
tp421
F1
s(g145
S'ADVVCP'
tp422
F8
s(S'NP'
p423
S'NNADVADVDDP'
tp424
F1
s(g321
S'VPPP'
tp425
F24
s(S'PP'
S'PPADVADVDP'
tp426
F2
s(S'DP'
p427
S'ADADVVVP'
tp428
F1
s(S'VP'
p429
S'VVPPP'
tp430
F3
s(S'PP'
S'PPAP'
tp431
F17
s(S'DP'
S'DVVP'
tp432
F43
s(g130
S'PADVAVP'
tp433
F3
s(S'CP'
S'ADVACDDP'
tp434
F2
s(S'NP'
S'ANMP'
tp435
F2
s(S'AP'
S'APPP'
tp436
F4
s(g49
S'ADVPPP'
tp437
F5
s(S'NP'
p438
S'ADVADVNVP'
tp439
F1
s(S'VP'
p440
S'VVVP'
tp441
F10
s(S'CP'
p442
S'CADVDPP'
tp443
F20
s(S'VP'
S'VVADVPPP'
tp444
F1
s(S'PP'
S'ADVAPPPP'
tp445
F1
s(g121
S'ANCP'
tp446
F47
s(g22
S'DCP'
tp447
F14
s(S'NP'
S'ANNCP'
tp448
F1
s(S'NP'
S'NNDDDDP'
tp449
F1
s(S'NP'
S'AAANCP'
tp450
F1
s(S'VP'
S'ADVVVVP'
tp451
F1
s(g317
S'DADVADVADVNP'
tp452
F1
s(S'NP'
S'NNVVVVP'
tp453
F1
s(g388
S'DDDP'
tp454
F13
s(S'AP'
p455
S'ADDDDP'
tp456
F1
s(S'DP'
S'DDADVPP'
tp457
F5
s(S'MP'
S'MVVVVNP'
tp458
F1
s(g121
S'ANVVP'
tp459
F12
s(g56
S'VVDP'
tp460
F54
s(g87
S'NPPP'
tp461
F24
s(g49
S'PPAPP'
tp462
F2
s(S'DP'
p463
S'DADVACP'
tp464
F2
s(S'DP'
S'DAVP'
tp465
F17
s(S'PP'
S'ADVADVPAPP'
tp466
F1
s(S'VP'
p467
S'ADVAVCP'
tp468
F3
s(S'AP'
S'ACP'
tp469
F80
s(g49
S'PPNP'
tp470
F66
s(S'PP'
p471
S'APPPP'
tp472
F1
s(S'NP'
S'NAADP'
tp473
F1
s(S'DP'
S'AAADNNP'
tp474
F1
s(g182
S'ADVDAPP'
tp475
F3
s(S'DP'
p476
S'DADP'
tp477
F5
s(S'DP'
S'AADVP'
tp478
F1
s(S'VP'
p479
S'VAANNP'
tp480
F1
s(S'CP'
S'CDDADVPP'
tp481
F2
s(S'CP'
S'CCCDDP'
tp482
F1
s(S'AP'
S'ADP'
tp483
F198
s(S'DP'
S'ADVADVADVDDVVP'
tp484
F1
s(g463
S'DDAVP'
tp485
F3
s(S'PP'
S'APVVP'
tp486
F6
s(S'NP'
p487
S'AAANNCP'
tp488
F2
s(S'PP'
S'ADVPAAVP'
tp489
F1
s(S'DP'
S'DVVVVP'
tp490
F3
s(S'DP'
p491
S'DADVADP'
tp492
F1
s(S'VP'
S'AAAVDP'
tp493
F1
s(S'VP'
S'AVDP'
tp494
F31
s(S'NP'
p495
S'ANNVP'
tp496
F2
s(S'PP'
S'PPADVDP'
tp497
F2
s(S'VP'
p498
S'VVAP'
tp499
F19
s(S'CP'
S'CCCADVADP'
tp500
F1
s(S'CP'
S'CDDDAPP'
tp501
F1
s(S'DP'
S'DDDCP'
tp502
F1
s(S'PP'
p503
S'PADVADVDP'
tp504
F3
s(g34
S'AADDPPP'
tp505
F1
s(g87
S'NPP'
tp506
F204
s(S'PP'
S'PPPPNP'
tp507
F1
s(g87
S'NVP'
tp508
F254
s(S'NP'
S'NNDDDP'
tp509
F1
s(S'PP'
S'PAAVP'
tp510
F4
s(S'PP'
p511
S'ADVADVAPCP'
tp512
F1
s(g487
S'NAAPP'
tp513
F2
s(S'PP'
S'ADVADVPPAAP'
tp514
F1
s(g364
S'VDDP'
tp515
F48
s(S'NP'
S'ADVNVP'
tp516
F9
s(g222
S'NNNNDP'
tp517
F2
s(g388
S'DADVAPP'
tp518
F4
s(g397
S'AADDNP'
tp519
F2
s(S'NP'
p520
S'ANPP'
tp521
F42
s(S'PP'
S'ADVPPDP'
tp522
F3
s(g100
S'PPPPP'
tp523
F7
s(g100
S'ADVADVPDP'
tp524
F1
s(S'PP'
S'PPPNP'
tp525
F4
s(S'DP'
S'DDDDDP'
tp526
F2
s(g350
S'ADVADVANNCP'
tp527
F1
s(S'NP'
S'NPPPP'
tp528
F2
s(g427
S'ADDP'
tp529
F1
s(S'CP'
S'CDDDADVPP'
tp530
F1
s(S'CP'
S'CAADPP'
tp531
F4
s(g405
S'DADVADVVP'
tp532
F4
s(S'NP'
p533
S'NAACP'
tp534
F4
s(g49
S'PNNP'
tp535
F70
s(S'PP'
S'APNNP'
tp536
F3
s(S'DP'
S'DAAANNP'
tp537
F2
s(S'DP'
S'DDAAP'
tp538
F1
s(g296
S'VVAACP'
tp539
F1
s(S'VP'
S'VVADVADVDDP'
tp540
F1
s(g154
S'AVAP'
tp541
F5
s(S'MP'
S'MMVP'
tp542
F3
s(S'PP'
S'PADVDDP'
tp543
F3
s(S'AP'
S'AAPPPP'
tp544
F1
s(g438
S'ADVNCP'
tp545
F4
s(S'DP'
S'DDADVADVPP'
tp546
F1
s(g317
S'ADPP'
tp547
F47
s(g118
S'PPPPVVVP'
tp548
F1
s(S'VP'
p549
S'VAPPP'
tp550
F2
s(g28
S'ACDP'
tp551
F40
s(g440
S'VCCP'
tp552
F13
s(S'AP'
S'ADVANP'
tp553
F1
s(g121
S'NNACP'
tp554
F6
s(g479
S'ADVVVAAP'
tp555
F1
s(g241
S'CDADVPPP'
tp556
F2
s(g145
S'VAP'
tp557
F125
s(S'VP'
S'VVVVNP'
tp558
F3
s(g138
S'DDDPP'
tp559
F12
s(S'CP'
S'ADVCDDP'
tp560
F3
s(S'NP'
p561
S'AANNCP'
tp562
F1
s(g561
S'ANADVCP'
tp563
F1
s(g385
S'VADVMP'
tp564
F1
s(g277
S'PAAPP'
tp565
F3
s(S'AP'
S'AAVVP'
tp566
F1
s(S'DP'
p567
S'DDDPPP'
tp568
F5
s(S'VP'
S'ADVAVDP'
tp569
F1
s(g414
S'ADAP'
tp570
F3
s(S'DP'
S'DADVDP'
tp571
F2
s(S'PP'
S'APADVVP'
tp572
F1
s(S'CP'
S'CCADVADP'
tp573
F1
s(S'CP'
p574
S'AACCDP'
tp575
F2
s(S'PP'
S'PADVADVADP'
tp576
F1
s(S'AP'
p577
S'AAACP'
tp578
F3
s(S'VP'
p579
S'ADVVVDP'
tp580
F1
s(g24
S'NNDP'
tp581
F13
s(g36
S'PPPVP'
tp582
F5
s(S'AP'
S'AADDP'
tp583
F4
s(S'VP'
S'VAANP'
tp584
F3
s(g189
S'NAADDP'
tp585
F1
s(S'NP'
S'NADVADVCP'
tp586
F1
s(g118
S'ADVPVP'
tp587
F5
s(g209
S'ADVPNNP'
tp588
F2
s(S'DP'
S'AAADDP'
tp589
F1
s(S'NP'
S'NVVVVP'
tp590
F1
s(g260
S'NADVDP'
tp591
F1
s(S'MP'
S'MPNP'
tp592
F2
s(S'VP'
S'VVAADP'
tp593
F1
s(S'MP'
S'MADP'
tp594
F1
s(S'PP'
p595
S'PPPDDP'
tp596
F2
s(S'AP'
S'ADVADVADDP'
tp597
F1
s(g5
S'AAACCP'
tp598
F1
s(S'DP'
p599
S'DDADVNP'
tp600
F1
s(g377
S'PANP'
tp601
F40
s(S'PP'
S'PDDDP'
tp602
F1
s(S'VP'
p603
S'VVADVADVADVPP'
tp604
F1
s(S'NP'
S'AANMP'
tp605
F1
s(g399
S'AAVP'
tp606
F12
s(g520
S'NAAP'
tp607
F9
s(S'NP'
S'NDDP'
tp608
F15
s(S'PP'
S'APPDDP'
tp609
F1
s(g283
S'VVADVDDP'
tp610
F2
s(S'DP'
S'ADVADVDPPP'
tp611
F1
s(S'AP'
S'ACCP'
tp612
F12
s(S'DP'
S'DDDADVPP'
tp613
F1
s(S'VP'
S'AVPPP'
tp614
F2
s(g520
S'NDP'
tp615
F88
s(S'PP'
S'PADVADVADVNP'
tp616
F1
s(S'NP'
S'NNNNVVP'
tp617
F1
s(S'MP'
S'MVAAP'
tp618
F1
s(g22
S'DDVP'
tp619
F45
s(S'NP'
S'AANVP'
tp620
F8
s(S'NP'
S'ADVNCCP'
tp621
F1
s(S'VP'
S'AAVVPP'
tp622
F1
s(g467
S'VNNNP'
tp623
F2
s(g26
S'ADVPAP'
tp624
F1
s(S'NP'
S'AAANVP'
tp625
F1
s(g293
S'APPNP'
tp626
F2
s(S'NP'
S'NNPPP'
tp627
F6
s(S'PP'
S'PAADDP'
tp628
F1
s(S'PP'
S'PPVVVP'
tp629
F1
s(S'PP'
S'PAADP'
tp630
F6
s(S'NP'
S'ADVNNVP'
tp631
F2
s(S'MP'
S'MDNP'
tp632
F2
s(S'NP'
S'ADVANVVP'
tp633
F1
s(S'NP'
S'NNNNNVP'
tp634
F1
s(S'PP'
p635
S'PPPVVP'
tp636
F1
s(S'PP'
S'PACP'
tp637
F1
s(g418
S'ADVACP'
tp638
F8
s(S'PP'
S'AAPNNP'
tp639
F2
s(g213
S'ADVDDPPP'
tp640
F1
s(g503
S'PAPPP'
tp641
F2
s(g110
S'ADPPP'
tp642
F6
s(S'NP'
S'NNAAVP'
tp643
F1
s(g326
S'MVCP'
tp644
F5
s(g348
S'CCDDP'
tp645
F26
s(S'NP'
p646
S'NNADVVP'
tp647
F3
s(g317
S'DADVNP'
tp648
F9
s(S'NP'
p649
S'NNNNVP'
tp650
F1
s(g145
S'VVCP'
tp651
F18
s(S'NP'
S'ADVADVADVADVNVP'
tp652
F1
s(S'NP'
p653
S'AANCP'
tp654
F12
s(g312
S'VAADP'
tp655
F5
s(g200
S'VVDDDP'
tp656
F1
s(g362
S'VVVVVNP'
tp657
F1
s(S'AP'
S'ADVAVVP'
tp658
F4
s(g47
S'ADVADVNAVP'
tp659
F1
s(g263
S'APPP'
tp660
F10
s(S'DP'
S'DDDDPPP'
tp661
F1
s(g143
S'ADVVPP'
tp662
F4
s(S'DP'
S'DDDNNNNNNP'
tp663
F1
s(g16
S'VNNP'
tp664
F39
s(S'AP'
S'AADVDP'
tp665
F5
s(g653
S'NADP'
tp666
F6
s(g324
S'DCCP'
tp667
F2
s(S'CP'
S'ADVCCDDP'
tp668
F1
s(g149
S'DDNP'
tp669
F64
s(g237
S'NADVCP'
tp670
F9
s(g95
S'DDNNP'
tp671
F7
s(S'NP'
S'ADVANVP'
tp672
F1
s(S'PP'
S'APCP'
tp673
F2
s(S'MP'
S'MNVVVP'
tp674
F1
s(S'NP'
S'ADVADVNCP'
tp675
F2
s(S'AP'
S'ADVADDP'
tp676
F2
s(g40
S'AADPP'
tp677
F10
s(g51
S'ADVVADVDP'
tp678
F1
s(S'DP'
S'AADDPPPP'
tp679
F1
s(S'VP'
S'VVVVCP'
tp680
F1
s(S'CP'
S'CDPPPPP'
tp681
F2
s(g423
S'ANVVVP'
tp682
F2
s(g159
S'MADVVDP'
tp683
F1
s(S'DP'
S'ADVVP'
tp684
F2
s(g599
S'ADVDNNP'
tp685
F3
s(g442
S'ACDDP'
tp686
F6
s(S'NP'
S'AANDP'
tp687
F1
s(g393
S'AAPP'
tp688
F13
s(S'PP'
S'PADVANNP'
tp689
F1
s(S'VP'
S'VVCCP'
tp690
F10
s(g574
S'ADVCAADP'
tp691
F1
s(g257
S'PCP'
tp692
F11
s(S'DP'
p693
S'DADVADVNP'
tp694
F1
s(S'PP'
S'ADVPANP'
tp695
F2
s(S'DP'
S'DDDANNP'
tp696
F1
s(S'NP'
p697
S'NAPP'
tp698
F28
s(g503
S'APPVP'
tp699
F2
s(S'AP'
S'ADVAAVP'
tp700
F1
s(S'MP'
S'MVADVADVAP'
tp701
F1
s(g16
S'VVVCP'
tp702
F7
s(g207
S'PADVAPP'
tp703
F1
s(g87
S'ANCCP'
tp704
F14
s(S'NP'
S'AANPP'
tp705
F5
s(g495
S'NNCCP'
tp706
F7
s(S'NP'
S'NNMP'
tp707
F7
s(S'CP'
S'ADVADVACDP'
tp708
F1
s(S'PP'
S'PAAAP'
tp709
F1
s(g635
S'PPPAP'
tp710
F3
s(g359
S'CDDAPP'
tp711
F3
s(S'NP'
S'ANAP'
tp712
F3
s(S'AP'
S'AADVADVADVDDP'
tp713
F1
s(S'MP'
S'MVAP'
tp714
F10
s(g78
S'PVP'
tp715
F202
s(S'VP'
S'VADVPPP'
tp716
F1
s(g371
S'ADVANNVVP'
tp717
F1
s(S'DP'
p718
S'DADVAVP'
tp719
F3
s(S'PP'
p720
S'PADVADVANNP'
tp721
F1
s(S'AP'
S'ADVADVAPP'
tp722
F1
s(S'PP'
S'PPADVVVP'
tp723
F1
s(S'CP'
S'ACDDDP'
tp724
F1
s(S'VP'
S'VPPPP'
tp725
F3
s(S'AP'
S'ADVAACP'
tp726
F1
s(S'NP'
p727
S'ADVNAVP'
tp728
F1
s(S'DP'
S'DVVVP'
tp729
F3
s(S'PP'
S'PPADVPP'
tp730
F1
s(S'NP'
S'ADVADVADVNVP'
tp731
F1
s(g78
S'PPDDP'
tp732
F6
s(g603
S'AVCP'
tp733
F6
s(S'DP'
p734
S'DDVVVP'
tp735
F1
s(S'NP'
S'NAVVP'
tp736
F1
s(g22
S'DPP'
tp737
F327
s(S'CP'
S'CADVADVDDPP'
tp738
F2
s(S'DP'
p739
S'DDDVVP'
tp740
F2
s(S'CP'
p741
S'CDADVADVADVPP'
tp742
F1
s(g22
S'DDPP'
tp743
F106
s(S'DP'
S'DDADVPPP'
tp744
F1
s(g22
S'DANP'
tp745
F85
s(g87
S'NADVPP'
tp746
F6
s(S'VP'
S'VVVADVDP'
tp747
F1
s(S'NP'
S'AANADVVP'
tp748
F1
s(S'NP'
S'NAAVP'
tp749
F1
s(S'DP'
S'ADVADVADPP'
tp750
F1
s(S'PP'
S'APADVDDP'
tp751
F1
s(S'DP'
S'AADNP'
tp752
F6
s(S'VP'
S'VADVCP'
tp753
F3
s(S'NP'
S'ANNDDP'
tp754
F1
s(S'NP'
S'NNNNNNVP'
tp755
F1
s(g438
S'NADVCCP'
tp756
F3
s(S'PP'
S'PPADVADVVP'
tp757
F1
s(S'NP'
S'NNVVVVVP'
tp758
F1
s(g80
S'PADVPPP'
tp759
F3
s(S'NP'
S'ADVADVNMP'
tp760
F2
s(S'PP'
S'AAPDP'
tp761
F5
s(g491
S'ADVADPP'
tp762
F4
s(g51
S'VVVAP'
tp763
F2
s(g100
S'PDDP'
tp764
F55
s(S'MP'
S'MVADVANP'
tp765
F1
s(S'MP'
S'MVDDP'
tp766
F2
s(S'PP'
p767
S'PCCP'
tp768
F1
s(g132
S'ADVAPNP'
tp769
F2
s(S'NP'
S'NNNADVVP'
tp770
F1
s(S'NP'
p771
S'NNVP'
tp772
F65
s(S'NP'
S'ADVNNCP'
tp773
F2
s(S'NP'
S'NADVADVVVP'
tp774
F1
s(g595
S'APAAP'
tp775
F2
s(g533
S'NNP'
tp776
F2
s(g498
S'VVDDP'
tp777
F6
s(S'VP'
S'VAADDP'
tp778
F1
s(S'DP'
S'DAANP'
tp779
F19
s(S'NP'
S'AAANNVVVP'
tp780
F1
s(g218
S'ADDP'
tp781
F27
s(g204
S'PNNNNP'
tp782
F1
s(S'NP'
S'NADVADVVP'
tp783
F2
s(S'VP'
S'ADVVVAP'
tp784
F1
s(S'PP'
S'ADVPPNP'
tp785
F4
s(S'CP'
S'CADVADVDPP'
tp786
F1
s(S'CP'
S'ADVADVADVCDP'
tp787
F1
s(g388
S'DPPP'
tp788
F102
s(g53
S'AADPPP'
tp789
F1
s(g280
S'VANNP'
tp790
F2
s(S'AP'
S'AVVP'
tp791
F9
s(S'NP'
S'NNADVADVADVADVCP'
tp792
F1
s(g78
S'ADVPNP'
tp793
F23
s(g49
S'PPDP'
tp794
F41
s(g511
S'ADVADVADVPVP'
tp795
F1
s(S'DP'
S'ADVDCP'
tp796
F1
s(S'DP'
S'DDPPPP'
tp797
F1
s(g28
S'CAADADVPP'
tp798
F1
s(g739
S'DDADVANP'
tp799
F1
s(S'NP'
S'NNAAACP'
tp800
F1
s(S'AP'
S'AAPPP'
tp801
F1
s(S'NP'
S'ADVNAPP'
tp802
F1
s(g734
S'DDCP'
tp803
F4
s(g649
S'ANADVADVVP'
tp804
F1
s(S'DP'
S'ADVDDNNP'
tp805
F1
s(S'PP'
S'PPADVDDP'
tp806
F1
s(S'AP'
S'ADVAAAAP'
tp807
F1
s(S'MP'
S'AAMDP'
tp808
F1
s(g771
S'NAP'
tp809
F70
s(S'NP'
S'NNAAP'
tp810
F5
s(S'DP'
S'DDNNNNP'
tp811
F1
s(S'VP'
S'VAAAP'
tp812
F1
s(S'VP'
S'AVADVCP'
tp813
F1
s(g227
S'ADVVVADVAP'
tp814
F1
s(g187
S'ADVDPPP'
tp815
F1
s(S'VP'
S'VADVANP'
tp816
F2
s(S'DP'
S'DAAANP'
tp817
F2
s(g549
S'VVP'
tp818
F30
s(g22
S'DDAPP'
tp819
F15
s(g767
S'ADVADVPVP'
tp820
F1
s(g218
S'AADVADDP'
tp821
F1
s(g455
S'AAADP'
tp822
F4
s(g100
S'APNP'
tp823
F39
s(S'VP'
S'VVVNNP'
tp824
F2
s(S'DP'
S'DDDAPP'
tp825
F1
s(g718
S'DDVVP'
tp826
F6
s(S'AP'
S'AAADDP'
tp827
F3
s(g321
S'VVVNP'
tp828
F8
s(S'NP'
S'NADVAVVP'
tp829
F1
s(g520
S'NAMP'
tp830
F3
s(g487
S'NNAAAVP'
tp831
F1
s(S'DP'
S'ADVADVDDPP'
tp832
F3
s(g326
S'MVNNP'
tp833
F1
s(S'AP'
S'AAADVPP'
tp834
F1
s(g348
S'CDPP'
tp835
F287
s(S'MP'
S'MVVNNP'
tp836
F1
s(S'AP'
S'ADDDP'
tp837
F1
s(g599
S'ADVDVVP'
tp838
F3
s(S'MP'
S'MMMVP'
tp839
F1
s(g285
S'ADVCDP'
tp840
F15
s(S'PP'
S'PPPPAP'
tp841
F2
s(S'CP'
p842
S'ADVACDP'
tp843
F2
s(S'VP'
S'VADVADVDP'
tp844
F1
s(S'VP'
S'AAAVAACCP'
tp845
F1
s(g377
S'PPNNP'
tp846
F16
s(S'CP'
S'CDAAAPP'
tp847
F2
s(S'PP'
S'PPMP'
tp848
F2
s(S'CP'
p849
S'CAADDPP'
tp850
F3
s(g693
S'ADVADVDPP'
tp851
F1
s(g73
S'VDP'
tp852
F259
s(g697
S'AAANCCP'
tp853
F1
s(g579
S'AVDDP'
tp854
F7
s(g317
S'DAP'
tp855
F50
s(g442
S'CADPP'
tp856
F28
s(g98
S'NADVAVP'
tp857
F3
s(S'PP'
S'PPAVP'
tp858
F4
s(g371
S'ADVNMMP'
tp859
F1
s(S'DP'
S'DDDDAANP'
tp860
F1
s(g59
S'PPDDDP'
tp861
F1
s(g364
S'AVPP'
tp862
F11
s(S'PP'
S'APNNNP'
tp863
F1
s(S'VP'
S'VVADVDP'
tp864
F1
s(g375
S'CDADVADVPP'
tp865
F2
s(g471
S'PPADVADVDDP'
tp866
F1
s(S'CP'
S'CDDPPPPP'
tp867
F1
s(S'CP'
S'CDPPPP'
tp868
F3
s(S'VP'
S'AAVDP'
tp869
F6
s(S'DP'
S'AADNNP'
tp870
F1
s(g366
S'NNADVCCP'
tp871
F2
s(S'NP'
S'NMMMP'
tp872
F1
s(S'AP'
S'AAAPP'
tp873
F4
s(g53
S'ADPPPP'
tp874
F1
s(S'DP'
S'DAPPP'
tp875
F1
s(g138
S'DADVADVPP'
tp876
F4
s(S'DP'
S'DMP'
tp877
F2
s(S'NP'
S'NNNNADVVP'
tp878
F1
s(g317
S'ADVDPP'
tp879
F27
s(S'CP'
S'ADVADVADVADVCDP'
tp880
F1
s(S'PP'
S'PADVADVNP'
tp881
F2
s(g577
S'AADP'
tp882
F43
s(S'AP'
S'AAAAVP'
tp883
F1
s(g125
S'VADVPP'
tp884
F1
s(S'DP'
S'DDAAPP'
tp885
F1
s(g491
S'ADVDANP'
tp886
F2
s(S'CP'
S'CCADVDDP'
tp887
F2
s(S'PP'
S'PVVVVP'
tp888
F1
s(S'DP'
S'DDAAVVP'
tp889
F1
s(g567
S'DDDDPP'
tp890
F6
s(g40
S'ADVADDVP'
tp891
F1
s(g438
S'NNVVVP'
tp892
F5
s(g179
S'ADVVANP'
tp893
F2
s(g130
S'ADVPDP'
tp894
F6
s(g87
S'ADVNNPP'
tp895
F3
s(S'PP'
S'PPDDDDP'
tp896
F1
s(g87
S'NCP'
tp897
F239
s(g741
S'CADVDPPP'
tp898
F1
s(S'VP'
S'ADVVVPP'
tp899
F4
s(g78
S'PPADVNNP'
tp900
F2
s(g727
S'ADVANDP'
tp901
F1
s(S'AP'
S'AAAP'
tp902
F3
s(S'CP'
S'CDDADVADVPP'
tp903
F1
s(S'NP'
S'NADVADVADVADVAAP'
tp904
F1
s(S'PP'
S'PPAAAP'
tp905
F1
s(g388
S'AADADVPP'
tp906
F1
s(g246
S'AAVVDP'
tp907
F1
s(S'PP'
S'PPPNNP'
tp908
F1
s(g599
S'DADVNNP'
tp909
F3
s(g579
S'VDDDP'
tp910
F6
s(S'MP'
S'MNVP'
tp911
F7
s(g429
S'AAVVDDDDP'
tp912
F1
s(S'NP'
S'AANCCP'
tp913
F3
s(S'PP'
S'ADVPAPP'
tp914
F3
s(g145
S'VAPP'
tp915
F12
s(S'MP'
S'MADVVANP'
tp916
F1
s(g44
S'ADVVDP'
tp917
F16
s(g720
S'APADVNP'
tp918
F1
s(g61
S'DADVPP'
tp919
F26
s(S'AP'
S'AMP'
tp920
F1
s(g194
S'CCADP'
tp921
F8
s(S'MP'
S'MADVVDDP'
tp922
F1
s(g383
S'ADVDAP'
tp923
F2
s(g140
S'NNNPPP'
tp924
F1
s(S'AP'
S'ADVAPP'
tp925
F7
s(S'PP'
S'ADVPPVVP'
tp926
F1
s(g476
S'ADVDAVP'
tp927
F1
s(g849
S'AACDP'
tp928
F7
s(g379
S'NNNCCP'
tp929
F3
s(S'CP'
S'CCDDDP'
tp930
F2
s(S'CP'
S'CADVADPP'
tp931
F1
s(g22
S'DVP'
tp932
F193
s(S'VP'
S'AVNNP'
tp933
F5
s(g121
S'ADVNPP'
tp934
F5
s(g842
S'AAACDP'
tp935
F1
s(S'PP'
S'PADVADVDDP'
tp936
F1
s(S'AP'
S'AVP'
tp937
F45
s(S'NP'
S'NADVVP'
tp938
F19
s(S'NP'
S'AAANNVP'
tp939
F1
s(S'NP'
S'NNNMP'
tp940
F4
s(g333
S'DDPPP'
tp941
F28
s(g350
S'ADVNMP'
tp942
F2
s(g646
S'NNAP'
tp943
F12
s(S'NP'
S'NNADVPPP'
tp944
F1
s(S'MP'
S'MADVVCP'
tp945
F1
s(g177
S'PPANP'
tp946
F6
s(S'CP'
S'CDADVPP'
tp947
F18
s(g73
S'VNP'
tp948
F190
s(g56
S'VANP'
tp949
F19
s(g579
S'VADVAP'
tp950
F14
s(S'PP'
S'PPADVNP'
tp951
F2
s(g53
S'DDDDVP'
tp952
F1
s(S'VP'
S'ADVADVVVDP'
tp953
F1
s(g379
S'NADVPPP'
tp954
F3
s.