ccollections
defaultdict
p1
(c__builtin__
float
p2
tRp3
(S'DP'
S'DADVAPP'
tp4
F1
s(S'DP'
p5
S'DDPP'
tp6
F15
s(S'DP'
S'DANP'
tp7
F19
s(S'PP'
S'APVP'
tp8
F3
s(S'VP'
S'VNNNP'
tp9
F2
s(S'NP'
p10
S'ANPP'
tp11
F5
s(S'NP'
S'AANDDP'
tp12
F1
s(S'VP'
S'VVNP'
tp13
F9
s(S'MP'
S'MVVPP'
tp14
F1
s(S'NP'
S'ANDP'
tp15
F2
s(S'DP'
S'ADVDPP'
tp16
F3
s(S'PP'
p17
S'PPVP'
tp18
F7
s(S'NP'
S'NAAVP'
tp19
F1
s(S'DP'
p20
S'ADNNNP'
tp21
F1
s(S'VP'
S'VADVDP'
tp22
F2
s(S'DP'
p23
S'ADDP'
tp24
F1
s(S'PP'
S'PDDDP'
tp25
F1
s(S'VP'
p26
S'VAAP'
tp27
F3
s(S'PP'
S'PAPP'
tp28
F2
s(S'PP'
S'PADVNP'
tp29
F3
s(S'NP'
p30
S'NVVP'
tp31
F19
s(S'DP'
S'DNP'
tp32
F87
s(S'PP'
p33
S'PNNP'
tp34
F8
s(S'AP'
S'ADVACP'
tp35
F1
s(S'VP'
S'VVNNP'
tp36
F2
s(S'CP'
S'CDAPP'
tp37
F4
s(S'VP'
S'VVAAP'
tp38
F1
s(S'NP'
S'NNNVVP'
tp39
F1
s(S'CP'
S'ADVCDP'
tp40
F1
s(S'CP'
S'CDPPP'
tp41
F8
s(S'VP'
S'VVAPP'
tp42
F1
s(g23
S'ADPPP'
tp43
F1
s(S'DP'
p44
S'ADNP'
tp45
F1
s(S'DP'
p46
S'DCCP'
tp47
F1
s(S'VP'
p48
S'VVADVADVDDP'
tp49
F1
s(S'MP'
S'MMVP'
tp50
F2
s(S'DP'
p51
S'DNNNNP'
tp52
F1
s(S'PP'
S'PADP'
tp53
F2
s(S'NP'
S'ADVNCP'
tp54
F3
s(S'DP'
S'ADPP'
tp55
F4
s(S'PP'
p56
S'PDDP'
tp57
F5
s(S'CP'
p58
S'ACDP'
tp59
F3
s(S'PP'
p60
S'ADVAPNP'
tp61
F1
s(S'VP'
S'VCCP'
tp62
F3
s(S'DP'
S'DMP'
tp63
F1
s(S'NP'
S'NNNCP'
tp64
F2
s(S'NP'
S'NNACP'
tp65
F1
s(S'NP'
S'ADVANVVVP'
tp66
F1
s(S'DP'
p67
S'DAPP'
tp68
F7
s(S'VP'
S'AVVP'
tp69
F1
s(S'VP'
p70
S'VAP'
tp71
F19
s(S'VP'
S'ADVVNP'
tp72
F4
s(S'VP'
S'ADVADVVPP'
tp73
F2
s(S'MP'
S'MVDP'
tp74
F7
s(S'VP'
S'VVADVAP'
tp75
F1
s(S'MP'
S'MADVADVVNP'
tp76
F1
s(S'PP'
S'PPPP'
tp77
F2
s(S'DP'
S'DDDP'
tp78
F2
s(S'VP'
p79
S'VVDDP'
tp80
F2
s(S'DP'
S'DAANP'
tp81
F4
s(g60
S'ADVPCP'
tp82
F1
s(S'VP'
S'VACP'
tp83
F2
s(S'AP'
p84
S'ADDP'
tp85
F5
s(S'AP'
S'ADVAPP'
tp86
F2
s(S'NP'
S'ADVANPP'
tp87
F1
s(S'DP'
S'DDDPPP'
tp88
F1
s(S'DP'
S'DADVVP'
tp89
F1
s(S'NP'
S'NADVADVVP'
tp90
F1
s(S'MP'
S'MVVVNP'
tp91
F1
s(S'AP'
S'AAPPP'
tp92
F1
s(S'AP'
S'AAACP'
tp93
F1
s(S'DP'
p94
S'DAAANP'
tp95
F1
s(S'DP'
S'DADVANP'
tp96
F2
s(S'VP'
S'ADVVVDP'
tp97
F1
s(S'DP'
S'DPPP'
tp98
F17
s(S'DP'
p99
S'ADVDNP'
tp100
F2
s(g10
S'NADVVVP'
tp101
F1
s(S'PP'
p102
S'PPNNP'
tp103
F2
s(S'PP'
S'ADVPNNP'
tp104
F1
s(S'VP'
S'VVPP'
tp105
F11
s(S'DP'
p106
S'DDDDP'
tp107
F1
s(S'NP'
S'NMMP'
tp108
F2
s(S'DP'
S'DPPPP'
tp109
F1
s(S'VP'
S'ADVVAAP'
tp110
F2
s(S'MP'
S'MVPP'
tp111
F2
s(S'DP'
p112
S'ADVP'
tp113
F1
s(g48
S'VVVVDP'
tp114
F1
s(g33
S'PAP'
tp115
F14
s(S'PP'
S'ADVPNP'
tp116
F3
s(S'PP'
S'PVVP'
tp117
F7
s(S'PP'
S'PPDP'
tp118
F10
s(S'NP'
p119
S'NNPP'
tp120
F5
s(S'MP'
S'MCCDP'
tp121
F1
s(S'MP'
S'MVVDP'
tp122
F2
s(S'NP'
S'AANVVP'
tp123
F1
s(g56
S'PNP'
tp124
F72
s(S'MP'
S'MADP'
tp125
F1
s(S'DP'
S'DNNNP'
tp126
F1
s(g106
S'DDP'
tp127
F9
s(S'MP'
S'MVVAP'
tp128
F1
s(S'PP'
p129
S'PANP'
tp130
F6
s(S'VP'
p131
S'ADVVDDP'
tp132
F2
s(S'DP'
S'DDCP'
tp133
F1
s(S'AP'
S'ACCP'
tp134
F4
s(S'CP'
S'CADVADVADVDPP'
tp135
F1
s(S'MP'
S'MADVADVVPP'
tp136
F1
s(S'PP'
S'PMP'
tp137
F5
s(S'PP'
p138
S'ADVPPVP'
tp139
F1
s(S'NP'
S'NDDP'
tp140
F2
s(S'CP'
p141
S'CCDP'
tp142
F24
s(S'DP'
S'ADVADVADVDPP'
tp143
F1
s(S'NP'
p144
S'NAP'
tp145
F15
s(S'VP'
S'VADVAAP'
tp146
F1
s(g144
S'NMP'
tp147
F27
s(S'NP'
S'NVVVP'
tp148
F1
s(S'PP'
S'PPADVVP'
tp149
F2
s(S'NP'
S'NDP'
tp150
F25
s(S'VP'
S'VVVDP'
tp151
F2
s(S'DP'
S'DDDDPP'
tp152
F1
s(S'PP'
S'PNNNP'
tp153
F1
s(g129
S'PVP'
tp154
F65
s(S'VP'
S'VVP'
tp155
F8
s(g20
S'DDVP'
tp156
F5
s(S'PP'
S'PDP'
tp157
F69
s(S'NP'
S'NNVVP'
tp158
F2
s(S'MP'
S'MPADVVP'
tp159
F1
s(S'AP'
p160
S'AAADP'
tp161
F1
s(S'NP'
p162
S'AANVP'
tp163
F1
s(S'VP'
S'VVVNNP'
tp164
F1
s(S'NP'
S'ANADVVVP'
tp165
F1
s(g17
S'PPP'
tp166
F13
s(S'VP'
p167
S'VMP'
tp168
F1
s(S'NP'
p169
S'NAVP'
tp170
F1
s(g102
S'ADVPAP'
tp171
F1
s(S'PP'
S'PADVAP'
tp172
F1
s(g99
S'ADVDDAP'
tp173
F1
s(S'NP'
S'AAANVP'
tp174
F1
s(S'AP'
S'AAADDDP'
tp175
F1
s(S'PP'
S'PCP'
tp176
F4
s(S'VP'
S'VADP'
tp177
F1
s(S'VP'
S'VVCP'
tp178
F2
s(S'PP'
p179
S'PADVPP'
tp180
F1
s(g141
S'CDPP'
tp181
F88
s(S'VP'
S'AAVPP'
tp182
F1
s(S'DP'
S'ADVDVP'
tp183
F1
s(S'MP'
S'MDNP'
tp184
F2
s(S'NP'
S'NAAAP'
tp185
F1
s(S'NP'
S'NNDP'
tp186
F1
s(S'VP'
S'VADVDDP'
tp187
F1
s(S'VP'
p188
S'ADVVAANP'
tp189
F1
s(S'DP'
S'ADVADVDNP'
tp190
F1
s(g112
S'ADVADVDDPP'
tp191
F1
s(S'VP'
S'VPP'
tp192
F34
s(S'VP'
S'AAVNP'
tp193
F2
s(g169
S'NCCP'
tp194
F14
s(S'NP'
p195
S'AANVVVP'
tp196
F1
s(g167
S'ADVADVVNP'
tp197
F1
s(S'DP'
S'DDADVVP'
tp198
F1
s(S'NP'
S'NNVP'
tp199
F10
s(S'PP'
S'PADVDP'
tp200
F2
s(g119
S'NNCP'
tp201
F9
s(S'NP'
S'NADVVP'
tp202
F5
s(S'MP'
S'MVCP'
tp203
F5
s(S'VP'
p204
S'VCP'
tp205
F31
s(S'VP'
S'VADVADVDP'
tp206
F1
s(S'CP'
S'CCDDP'
tp207
F3
s(S'CP'
S'CDDPP'
tp208
F6
s(S'NP'
S'NNADVVP'
tp209
F3
s(S'CP'
S'CADPPP'
tp210
F1
s(S'AP'
S'AACP'
tp211
F3
s(S'VP'
S'ADVVCP'
tp212
F1
s(S'PP'
S'ADVPPP'
tp213
F1
s(S'VP'
S'VPPP'
tp214
F3
s(S'DP'
S'DADVNP'
tp215
F1
s(S'VP'
S'VVPPP'
tp216
F1
s(g5
S'DAP'
tp217
F13
s(S'CP'
S'CADPP'
tp218
F3
s(S'PP'
S'PPAVP'
tp219
F1
s(g70
S'VDP'
tp220
F95
s(S'DP'
S'DVVP'
tp221
F6
s(g138
S'PADVPPP'
tp222
F1
s(S'VP'
p223
S'VVVP'
tp224
F1
s(g33
S'APPP'
tp225
F1
s(S'MP'
S'MVAPP'
tp226
F1
s(S'PP'
S'PPAP'
tp227
F2
s(S'VP'
S'ADVVPP'
tp228
F2
s(g160
S'AAAAP'
tp229
F1
s(S'VP'
S'VNNP'
tp230
F3
s(g94
S'DDPPPP'
tp231
F2
s(S'AP'
p232
S'AADVDP'
tp233
F1
s(S'NP'
S'NADP'
tp234
F1
s(g188
S'AVNNP'
tp235
F1
s(S'DP'
S'DDNP'
tp236
F10
s(g131
S'VADVVP'
tp237
F2
s(S'DP'
S'DDNNP'
tp238
F2
s(S'NP'
p239
S'ANCP'
tp240
F11
s(S'PP'
S'APDP'
tp241
F6
s(S'NP'
S'NNNNDP'
tp242
F1
s(S'DP'
p243
S'DCP'
tp244
F5
s(S'PP'
p245
S'PPPNP'
tp246
F3
s(S'VP'
S'VVVNP'
tp247
F3
s(S'VP'
S'ADVVCCP'
tp248
F1
s(g169
S'NCP'
tp249
F54
s(S'VP'
S'ADVVNNP'
tp250
F2
s(g162
S'NNNP'
tp251
F1
s(S'AP'
S'AADP'
tp252
F7
s(S'NP'
S'NNVVVVP'
tp253
F2
s(S'VP'
S'VVVPP'
tp254
F1
s(S'VP'
S'VADVPP'
tp255
F1
s(S'CP'
S'CDDPPP'
tp256
F1
s(S'VP'
S'VVANP'
tp257
F1
s(S'MP'
S'MADVVAANP'
tp258
F1
s(S'MP'
S'MAADP'
tp259
F1
s(g119
S'ANVVP'
tp260
F1
s(g179
S'ADVPVP'
tp261
F1
s(S'NP'
S'NVVVVP'
tp262
F1
s(S'NP'
S'NPPP'
tp263
F4
s(S'NP'
S'NNVVVP'
tp264
F2
s(S'DP'
S'DAVP'
tp265
F2
s(S'DP'
S'DNNP'
tp266
F14
s(S'MP'
S'MVADVAP'
tp267
F1
s(S'AP'
S'ACP'
tp268
F8
s(S'CP'
S'CDDPPPP'
tp269
F1
s(S'VP'
S'ADVVVPP'
tp270
F2
s(S'MP'
S'MVVNP'
tp271
F1
s(S'PP'
S'PPNP'
tp272
F6
s(S'NP'
p273
S'NNNVP'
tp274
F3
s(g26
S'VADVNNP'
tp275
F1
s(S'CP'
S'CDPPPP'
tp276
F1
s(S'NP'
S'AANDP'
tp277
F1
s(g245
S'PADVVP'
tp278
F2
s(S'MP'
S'MNVP'
tp279
F1
s(S'AP'
S'ADVADP'
tp280
F1
s(S'CP'
S'CDDADVPP'
tp281
F1
s(g232
S'ADP'
tp282
F41
s(S'NP'
S'NNADVCP'
tp283
F1
s(S'NP'
S'NAPP'
tp284
F1
s(g84
S'APP'
tp285
F8
s(S'CP'
S'CADVDPP'
tp286
F3
s(S'VP'
S'ADVVDP'
tp287
F6
s(g188
S'VAVP'
tp288
F1
s(S'DP'
S'DADVPP'
tp289
F6
s(S'NP'
S'ANCCP'
tp290
F2
s(g243
S'AAAADPP'
tp291
F1
s(g195
S'NNMP'
tp292
F3
s(S'NP'
p293
S'ADVNNCP'
tp294
F1
s(S'VP'
S'VVVVPP'
tp295
F2
s(S'DP'
S'DAAVP'
tp296
F2
s(S'CP'
S'CDDDDPP'
tp297
F1
s(S'PP'
S'PAAAP'
tp298
F1
s(S'VP'
p299
S'AVDP'
tp300
F4
s(g273
S'NNNCCP'
tp301
F1
s(g239
S'ANVP'
tp302
F6
s(S'NP'
S'ANAP'
tp303
F1
s(g223
S'VVAP'
tp304
F1
s(S'MP'
S'MVAP'
tp305
F3
s(g46
S'DVP'
tp306
F52
s(S'MP'
S'MVNP'
tp307
F5
s(g44
S'DDADVNP'
tp308
F1
s(g138
S'APPPP'
tp309
F1
s(S'AP'
S'AVP'
tp310
F6
s(g58
S'CDDDPPP'
tp311
F1
s(S'CP'
S'CAAAADPP'
tp312
F1
s(S'PP'
S'PAVP'
tp313
F1
s(g51
S'DDPPP'
tp314
F2
s(S'AP'
S'ADVAACP'
tp315
F1
s(S'NP'
S'NNAP'
tp316
F2
s(g79
S'VVDP'
tp317
F8
s(g30
S'NPP'
tp318
F51
s(S'VP'
S'VAPP'
tp319
F1
s(g239
S'NVP'
tp320
F86
s(S'MP'
S'MDVP'
tp321
F1
s(S'CP'
S'CDADVPP'
tp322
F2
s(g204
S'VNP'
tp323
F42
s(S'DP'
S'DDADVPP'
tp324
F1
s(g70
S'VANP'
tp325
F1
s(g299
S'VDDP'
tp326
F9
s(S'PP'
S'PPDDP'
tp327
F1
s(S'VP'
S'VADVAP'
tp328
F2
s(S'DP'
S'ADVDDP'
tp329
F1
s(S'PP'
S'PPADVNP'
tp330
F1
s(g67
S'DPP'
tp331
F107
s(g293
S'ADVNVP'
tp332
F3
s(g112
S'DDDVVP'
tp333
F1
s.