ccollections
defaultdict
p1
(c__builtin__
float
p2
tRp3
(S'VP'
S'ADVVVNP'
tp4
F1
s(S'AP'
S'ADVAAVVP'
tp5
F1
s(S'PP'
p6
S'PAPP'
tp7
F2
s(S'DP'
p8
S'DDPPPPP'
tp9
F1
s(S'DP'
S'DNP'
tp10
F91
s(S'CP'
S'CDPPP'
tp11
F25
s(S'VP'
S'VADP'
tp12
F4
s(S'DP'
p13
S'DAAP'
tp14
F3
s(S'DP'
p15
S'ADNNP'
tp16
F1
s(S'MP'
p17
S'MDVP'
tp18
F1
s(S'PP'
p19
S'APVP'
tp20
F2
s(S'MP'
S'MVDP'
tp21
F4
s(S'PP'
p22
S'PPPP'
tp23
F7
s(S'DP'
p24
S'DDDNP'
tp25
F1
s(S'VP'
S'VACP'
tp26
F1
s(S'AP'
S'AAAVP'
tp27
F1
s(S'DP'
S'DADVVP'
tp28
F4
s(S'MP'
S'MMCP'
tp29
F1
s(S'VP'
S'AAVVP'
tp30
F1
s(S'NP'
S'NADVVVP'
tp31
F3
s(S'VP'
S'VCP'
tp32
F38
s(S'VP'
S'ADVVAAP'
tp33
F2
s(S'PP'
p34
S'PAP'
tp35
F29
s(S'VP'
p36
S'VADVADVAP'
tp37
F2
s(S'PP'
p38
S'ADVPPVP'
tp39
F2
s(S'NP'
p40
S'ANPPP'
tp41
F2
s(S'PP'
p42
S'PPADVDP'
tp43
F1
s(S'PP'
p44
S'PNP'
tp45
F67
s(g42
S'PAAADP'
tp46
F1
s(S'DP'
S'DDP'
tp47
F21
s(S'VP'
S'ADVVDDP'
tp48
F1
s(S'VP'
p49
S'VCCP'
tp50
F4
s(S'NP'
p51
S'ANADVAP'
tp52
F1
s(S'NP'
p53
S'NMP'
tp54
F15
s(S'PP'
S'PDP'
tp55
F78
s(S'PP'
S'PADVNP'
tp56
F3
s(S'PP'
S'ADVPAAP'
tp57
F1
s(S'DP'
p58
S'DPPPP'
tp59
F2
s(S'DP'
p60
S'DDANP'
tp61
F1
s(S'NP'
p62
S'NACP'
tp63
F3
s(S'AP'
S'ADVAVP'
tp64
F1
s(g53
S'NCCP'
tp65
F17
s(S'NP'
p66
S'NNCP'
tp67
F18
s(S'DP'
S'ADVDDPP'
tp68
F4
s(S'NP'
S'NADVADVVP'
tp69
F3
s(S'DP'
S'DDDDP'
tp70
F1
s(S'VP'
S'AVNP'
tp71
F1
s(S'VP'
p72
S'VVADP'
tp73
F1
s(S'PP'
S'ADVPVVP'
tp74
F1
s(S'PP'
p75
S'ADVAPVP'
tp76
F1
s(S'CP'
p77
S'CCCDP'
tp78
F4
s(g6
S'APDP'
tp79
F4
s(S'DP'
p80
S'DNNP'
tp81
F22
s(g77
S'CADVDDPP'
tp82
F1
s(S'DP'
S'DPPPPP'
tp83
F1
s(S'CP'
S'CCADVDP'
tp84
F2
s(S'VP'
p85
S'VVANNP'
tp86
F1
s(S'PP'
S'PADVVP'
tp87
F1
s(S'PP'
p88
S'APAP'
tp89
F2
s(S'AP'
p90
S'APP'
tp91
F11
s(S'NP'
p92
S'NADVMP'
tp93
F2
s(S'PP'
S'PPADP'
tp94
F2
s(S'VP'
S'VVAPP'
tp95
F1
s(S'VP'
S'VVVVPP'
tp96
F2
s(S'DP'
S'DAAVP'
tp97
F2
s(S'PP'
p98
S'PAANP'
tp99
F1
s(S'PP'
S'PPVVP'
tp100
F3
s(S'VP'
S'VAACP'
tp101
F1
s(S'MP'
p102
S'MVNP'
tp103
F2
s(S'PP'
S'PAVP'
tp104
F5
s(S'MP'
S'ADVMVP'
tp105
F2
s(S'VP'
S'VVVPP'
tp106
F1
s(S'AP'
S'ADVACCP'
tp107
F1
s(S'AP'
p108
S'ADVADP'
tp109
F1
s(S'VP'
S'VVADVPP'
tp110
F1
s(S'DP'
S'DAAAVP'
tp111
F1
s(g22
S'PPCP'
tp112
F2
s(S'VP'
S'ADVVNP'
tp113
F4
s(S'VP'
p114
S'VVNP'
tp115
F13
s(S'PP'
S'PPVP'
tp116
F20
s(S'VP'
S'VVCCCCP'
tp117
F1
s(S'VP'
p118
S'VADVDP'
tp119
F1
s(S'DP'
S'DDDPP'
tp120
F5
s(g118
S'VAAP'
tp121
F2
s(S'NP'
S'ANDP'
tp122
F1
s(S'NP'
p123
S'NVVP'
tp124
F23
s(S'AP'
S'AAP'
tp125
F3
s(S'VP'
S'VMP'
tp126
F1
s(S'NP'
S'ANNAP'
tp127
F1
s(S'AP'
S'AAAVVP'
tp128
F1
s(S'VP'
p129
S'VVNNP'
tp130
F1
s(S'CP'
p131
S'CDAPP'
tp132
F5
s(S'VP'
S'VVAAP'
tp133
F1
s(S'DP'
p134
S'ADNP'
tp135
F4
s(S'AP'
S'AAAAADP'
tp136
F1
s(S'PP'
p137
S'PADP'
tp138
F2
s(S'VP'
p139
S'ADVVVCP'
tp140
F1
s(g60
S'DADVAP'
tp141
F2
s(S'DP'
p142
S'DAPP'
tp143
F8
s(g17
S'MVVCP'
tp144
F1
s(S'MP'
S'MADVADVVNP'
tp145
F1
s(g49
S'VADVAAP'
tp146
F1
s(S'VP'
S'ADVADVVDP'
tp147
F2
s(S'AP'
S'AAPPP'
tp148
F1
s(S'DP'
S'DAAANP'
tp149
F1
s(S'DP'
p150
S'DADVANP'
tp151
F1
s(g60
S'ADVDNP'
tp152
F3
s(S'VP'
S'VVPP'
tp153
F10
s(S'MP'
S'MVPP'
tp154
F5
s(S'DP'
S'ADVP'
tp155
F2
s(S'CP'
S'CDDPPP'
tp156
F5
s(g66
S'NNPP'
tp157
F3
s(S'AP'
S'AACP'
tp158
F3
s(S'NP'
p159
S'ANVP'
tp160
F8
s(S'VP'
S'AAAVDDP'
tp161
F1
s(S'DP'
S'ADVDDVP'
tp162
F1
s(S'NP'
S'NNMMP'
tp163
F1
s(S'CP'
p164
S'CCDP'
tp165
F22
s(S'NP'
S'NVVVP'
tp166
F1
s(S'CP'
S'CDDDPP'
tp167
F4
s(S'CP'
S'CDAAPP'
tp168
F4
s(S'VP'
p169
S'VVVDP'
tp170
F2
s(S'CP'
S'CCCCDP'
tp171
F2
s(g98
S'AAPNP'
tp172
F1
s(S'PP'
S'PADVVVP'
tp173
F1
s(g137
S'PPP'
tp174
F24
s(S'NP'
S'NAVP'
tp175
F3
s(g150
S'ADVADVDDNP'
tp176
F1
s(S'DP'
S'DDNNNP'
tp177
F1
s(g15
S'ADVDVP'
tp178
F2
s(g62
S'NCCCP'
tp179
F3
s(S'AP'
p180
S'AADVVP'
tp181
F1
s(g60
S'DAAAP'
tp182
F1
s(g8
S'ADVADVDNP'
tp183
F1
s(S'VP'
S'VPP'
tp184
F46
s(S'PP'
S'PADVDP'
tp185
F2
s(S'CP'
S'CDDPP'
tp186
F16
s(S'DP'
S'DAAPP'
tp187
F4
s(g22
S'PVVP'
tp188
F14
s(S'CP'
S'CADPPP'
tp189
F3
s(S'DP'
S'DADVPPP'
tp190
F2
s(g114
S'ADVVCP'
tp191
F3
s(g72
S'VPPP'
tp192
F5
s(g49
S'VVPPP'
tp193
F3
s(S'PP'
S'PPAP'
tp194
F5
s(S'DP'
S'DVVP'
tp195
F14
s(S'AP'
S'APPP'
tp196
F1
s(g139
S'VVVP'
tp197
F4
s(S'DP'
p198
S'DDPPPP'
tp199
F1
s(g159
S'ANCP'
tp200
F9
s(S'DP'
p201
S'DCP'
tp202
F12
s(S'DP'
S'DVVVP'
tp203
F1
s(S'NP'
S'AAANCP'
tp204
F1
s(S'DP'
S'DAAVVP'
tp205
F1
s(S'DP'
S'DDDP'
tp206
F1
s(S'DP'
S'DDADVPP'
tp207
F1
s(S'VP'
p208
S'ADVVAAAP'
tp209
F1
s(S'NP'
S'NVVVVP'
tp210
F2
s(S'NP'
S'NPPP'
tp211
F10
s(S'DP'
S'ADDDP'
tp212
F1
s(S'DP'
p213
S'DAVP'
tp214
F4
s(S'AP'
S'ACP'
tp215
F15
s(S'PP'
p216
S'PPNP'
tp217
F14
s(S'DP'
S'AAADNNP'
tp218
F1
s(S'CP'
S'CDDADVPP'
tp219
F1
s(S'CP'
S'CCCDDP'
tp220
F1
s(S'AP'
S'ADP'
tp221
F67
s(S'CP'
S'CADVDPP'
tp222
F1
s(g201
S'AAAADPP'
tp223
F1
s(g216
S'PPPPNNP'
tp224
F1
s(S'AP'
S'AAADP'
tp225
F1
s(S'VP'
S'VVAP'
tp226
F5
s(S'PP'
p227
S'PADVADVDP'
tp228
F1
s(g123
S'NPP'
tp229
F47
s(g227
S'PPPPNP'
tp230
F1
s(g159
S'NVP'
tp231
F88
s(g139
S'VDDP'
tp232
F15
s(S'NP'
p233
S'ANPP'
tp234
F1
s(S'PP'
p235
S'PPPPP'
tp236
F2
s(S'MP'
S'MVVPP'
tp237
F1
s(S'PP'
p238
S'PPPNP'
tp239
F2
s(S'NP'
p240
S'NNCCCCP'
tp241
F1
s(S'CP'
S'CAADPP'
tp242
F1
s(g34
S'PNNP'
tp243
F10
s(S'PP'
S'APNNP'
tp244
F1
s(S'DP'
S'DDAAP'
tp245
F1
s(S'VP'
S'AVAP'
tp246
F1
s(S'PP'
p247
S'PADVDDP'
tp248
F1
s(S'NP'
S'ADVNCP'
tp249
F1
s(S'AP'
S'AADP'
tp250
F10
s(S'CP'
S'ACDP'
tp251
F4
s(g22
S'PAAP'
tp252
F7
s(S'CP'
S'CCCCDDP'
tp253
F1
s(S'NP'
S'NNACP'
tp254
F2
s(g131
S'CDADVPPP'
tp255
F2
s(S'VP'
p256
S'VAP'
tp257
F41
s(g36
S'VVADVAP'
tp258
F2
s(S'AP'
S'AAVVP'
tp259
F1
s(g102
S'MNMP'
tp260
F1
s(S'AP'
p261
S'AAACP'
tp262
F1
s(S'PP'
S'PPPVP'
tp263
F2
s(g261
S'AADDP'
tp264
F1
s(S'VP'
S'VAANP'
tp265
F3
s(g66
S'ANVVP'
tp266
F3
s(S'VP'
S'VVDP'
tp267
F18
s(S'PP'
p268
S'PANP'
tp269
F5
s(g92
S'NDDP'
tp270
F5
s(S'AP'
S'ACCP'
tp271
F2
s(S'NP'
S'NDP'
tp272
F24
s(g213
S'DDVP'
tp273
F14
s(g233
S'AANVP'
tp274
F1
s(g235
S'PCP'
tp275
F6
s(g233
S'NNNDP'
tp276
F1
s(S'AP'
S'ADVACP'
tp277
F1
s(S'NP'
S'NNVP'
tp278
F11
s(S'NP'
p279
S'NNAAVP'
tp280
F1
s(S'MP'
S'MVCP'
tp281
F1
s(S'CP'
S'CCDDP'
tp282
F4
s(g40
S'NNVVP'
tp283
F3
s(S'VP'
S'VVCP'
tp284
F3
s(S'NP'
p285
S'AANCP'
tp286
F4
s(S'VP'
S'VADVNP'
tp287
F3
s(g240
S'NNDDP'
tp288
F2
s(S'VP'
S'ADVVPP'
tp289
F1
s(S'DP'
S'DDDNNNNNNP'
tp290
F1
s(g129
S'VNNP'
tp291
F6
s(S'NP'
S'NADP'
tp292
F1
s(g134
S'DDNP'
tp293
F14
s(g279
S'NADVCP'
tp294
F1
s(S'DP'
S'DDNNP'
tp295
F4
s(S'PP'
S'AAPPP'
tp296
F1
s(S'NP'
S'ADVANVP'
tp297
F1
s(S'DP'
S'AADPP'
tp298
F1
s(S'VP'
p299
S'VVVVCP'
tp300
F1
s(g58
S'AAADVP'
tp301
F1
s(S'PP'
S'AAPDP'
tp302
F1
s(S'MP'
S'MVVNP'
tp303
F1
s(g77
S'ACDDP'
tp304
F3
s(S'AP'
S'AAPP'
tp305
F1
s(S'DP'
S'DADVADVNP'
tp306
F1
s(g53
S'NAPP'
tp307
F2
s(S'AP'
S'ADVADVADP'
tp308
F1
s(S'MP'
S'MVADVADVAP'
tp309
F1
s(S'VP'
S'VVVCP'
tp310
F1
s(S'NP'
S'ANCCP'
tp311
F1
s(S'VP'
S'VDDDP'
tp312
F1
s(S'NP'
S'NNMP'
tp313
F1
s(S'PP'
S'PAAAP'
tp314
F1
s(S'CP'
S'CDDAPP'
tp315
F1
s(S'MP'
S'MVAP'
tp316
F2
s(S'VP'
S'VADVADVDDP'
tp317
F1
s(g268
S'PVP'
tp318
F80
s(S'MP'
S'AAMVP'
tp319
F1
s(S'AP'
S'AADVDDP'
tp320
F1
s(S'NP'
S'ANNCP'
tp321
F1
s(S'DP'
S'DAAMP'
tp322
F1
s(g22
S'PPDDP'
tp323
F5
s(g85
S'AVCP'
tp324
F1
s(g60
S'DDVVVP'
tp325
F1
s(g142
S'DPP'
tp326
F127
s(S'NP'
S'ADVNVP'
tp327
F3
s(S'DP'
p328
S'DDPP'
tp329
F34
s(g15
S'DDAVP'
tp330
F1
s(g80
S'DANP'
tp331
F13
s(S'NP'
S'ADVADVNAP'
tp332
F1
s(S'VP'
S'VADVCP'
tp333
F1
s(g38
S'PADVPPP'
tp334
F1
s(S'DP'
S'DCCP'
tp335
F2
s(S'NP'
S'NNNNNNCP'
tp336
F1
s(S'CP'
S'CDPPPPP'
tp337
F1
s(S'MP'
S'MADVVDP'
tp338
F1
s(g44
S'PDDP'
tp339
F19
s(g75
S'PADVAPP'
tp340
F1
s(S'DP'
S'ADPPP'
tp341
F3
s(S'AP'
p342
S'ADVADVACP'
tp343
F1
s(g169
S'AVDP'
tp344
F7
s(S'VP'
S'VVDDP'
tp345
F2
s(g24
S'DAANP'
tp346
F2
s(g90
S'ADDP'
tp347
F7
s(g139
S'ADVVVAP'
tp348
F2
s(S'PP'
S'ADVPPNP'
tp349
F1
s(g134
S'DPPP'
tp350
F34
s(S'NP'
S'NNAVP'
tp351
F1
s(g19
S'PPCCCP'
tp352
F1
s(S'PP'
S'ADVPNP'
tp353
F2
s(g22
S'PPDP'
tp354
F14
s(S'NP'
S'NAP'
tp355
F14
s(g118
S'VAAAP'
tp356
F1
s(S'VP'
S'VVP'
tp357
F13
s(S'DP'
S'DDAPP'
tp358
F2
s(g247
S'APNP'
tp359
F4
s(S'DP'
S'DDVVP'
tp360
F3
s(S'DP'
S'ADVADVDDPP'
tp361
F1
s(g164
S'CDPP'
tp362
F108
s(S'NP'
S'NNDP'
tp363
F2
s(S'CP'
S'ADVCDP'
tp364
F2
s(S'AP'
S'ADVAAP'
tp365
F1
s(S'VP'
S'ADVADVVNP'
tp366
F2
s(S'PP'
S'PPNNP'
tp367
F1
s(S'PP'
S'PPMP'
tp368
F1
s(g256
S'VDP'
tp369
F87
s(S'VP'
S'AVDDP'
tp370
F2
s(g328
S'DAP'
tp371
F11
s(S'CP'
S'CADPP'
tp372
F3
s(g299
S'AVPP'
tp373
F3
s(g49
S'VVADVDP'
tp374
F2
s(S'CP'
S'CDDPPPPP'
tp375
F1
s(S'CP'
S'CDPPPP'
tp376
F2
s(S'VP'
S'AAVDP'
tp377
F2
s(S'PP'
S'PANNP'
tp378
F1
s(g34
S'APPP'
tp379
F1
s(S'AP'
S'AAADVDP'
tp380
F1
s(g13
S'ADVDPP'
tp381
F2
s(S'NP'
S'NNNP'
tp382
F1
s(S'DP'
p383
S'ADPP'
tp384
F4
s(S'NP'
S'NNADVVVP'
tp385
F1
s(S'DP'
S'ADVDANP'
tp386
F1
s(S'CP'
S'CCADVDDP'
tp387
F2
s(g198
S'ADMP'
tp388
F1
s(S'VP'
S'ADVVANP'
tp389
F1
s(S'NP'
S'NCP'
tp390
F73
s(S'CP'
S'CADVDPPP'
tp391
F1
s(g208
S'ADVVVPP'
tp392
F2
s(g88
S'ADVPDDP'
tp393
F1
s(S'VP'
S'AAVVDP'
tp394
F1
s(g51
S'NNCCP'
tp395
F3
s(S'VP'
S'VAPP'
tp396
F1
s(S'VP'
S'ADVVDP'
tp397
F6
s(S'DP'
S'DADVPP'
tp398
F3
s(g342
S'ADVAPP'
tp399
F2
s(S'CP'
S'AACDP'
tp400
F1
s(S'CP'
S'CCDDDP'
tp401
F1
s(S'DP'
S'ADVDPPP'
tp402
F3
s(g383
S'DVP'
tp403
F69
s(S'NP'
S'ADVNPP'
tp404
F1
s(S'NP'
S'NNCCCP'
tp405
F1
s(S'PP'
S'PADVADVDDP'
tp406
F1
s(g180
S'AVP'
tp407
F10
s(S'NP'
S'NADVVP'
tp408
F10
s(S'CP'
S'CAAAADPP'
tp409
F1
s(S'DP'
S'DDPPP'
tp410
F8
s(g238
S'PCCCCP'
tp411
F1
s(S'NP'
S'ADVNMP'
tp412
F1
s(g285
S'NNAP'
tp413
F1
s(g108
S'AAAVVVVP'
tp414
F1
s(S'CP'
S'CDADVPP'
tp415
F3
s(S'VP'
S'VNP'
tp416
F58
s(g256
S'VANP'
tp417
F4
s(S'VP'
S'VADVAP'
tp418
F2
s.