ccollections
defaultdict
p1
(c__builtin__
float
p2
tRp3
(S'VP'
p4
S'VVAAAP'
tp5
F1
s(S'CP'
S'CAAADPP'
tp6
F2
s(S'DP'
S'ADDPP'
tp7
F1
s(S'DP'
S'DDAP'
tp8
F1
s(S'VP'
S'ADVVVNP'
tp9
F1
s(S'CP'
S'CCDDDDP'
tp10
F1
s(S'VP'
S'VVVVP'
tp11
F1
s(S'PP'
p12
S'ADVADVPAP'
tp13
F1
s(S'PP'
S'PAPP'
tp14
F2
s(S'PP'
S'PADVNP'
tp15
F9
s(S'DP'
p16
S'DNP'
tp17
F168
s(S'NP'
S'ADVNDP'
tp18
F2
s(S'CP'
p19
S'CDPPP'
tp20
F16
s(S'VP'
p21
S'VADP'
tp22
F7
s(S'DP'
S'DNNNNP'
tp23
F1
s(S'DP'
p24
S'DAAP'
tp25
F2
s(S'VP'
S'VADVADVADVAP'
tp26
F1
s(S'VP'
S'VAVP'
tp27
F2
s(S'DP'
S'DAADP'
tp28
F1
s(S'DP'
S'ADNNP'
tp29
F2
s(S'VP'
S'ADVVNP'
tp30
F6
s(S'PP'
p31
S'PPADVADVPP'
tp32
F1
s(S'PP'
p33
S'PADVANP'
tp34
F3
s(S'PP'
p35
S'PPPP'
tp36
F4
s(S'MP'
S'MVCCCP'
tp37
F1
s(S'VP'
S'VACP'
tp38
F5
s(S'DP'
p39
S'DADVVP'
tp40
F6
s(S'VP'
S'ADVVVANP'
tp41
F2
s(S'PP'
p42
S'PADVNNP'
tp43
F2
s(S'AP'
S'AADVPP'
tp44
F2
s(S'NP'
p45
S'NCCCP'
tp46
F1
s(S'CP'
S'CADVADVDDPP'
tp47
F1
s(S'VP'
p48
S'VCP'
tp49
F63
s(S'NP'
p50
S'NMMP'
tp51
F2
s(S'DP'
p52
S'ADADVADVPPP'
tp53
F1
s(g33
S'PAP'
tp54
F67
s(S'VP'
S'VADVADVAP'
tp55
F1
s(S'PP'
p56
S'APVVP'
tp57
F1
s(S'MP'
p58
S'AMVP'
tp59
F2
s(S'PP'
p60
S'PNP'
tp61
F141
s(S'AP'
S'AADVADVDP'
tp62
F1
s(S'DP'
p63
S'DDP'
tp64
F15
s(S'VP'
p65
S'VCCP'
tp66
F7
s(S'NP'
S'ANADVAP'
tp67
F1
s(S'DP'
S'DADVDDP'
tp68
F1
s(S'MP'
S'MNAP'
tp69
F1
s(S'NP'
p70
S'NMP'
tp71
F39
s(S'CP'
S'CADVDADVPP'
tp72
F1
s(S'VP'
p73
S'AAVNP'
tp74
F2
s(g60
S'PDP'
tp75
F174
s(S'CP'
S'CCADVADVDP'
tp76
F1
s(S'CP'
S'CDADVADVPP'
tp77
F1
s(S'NP'
p78
S'ADVNVVP'
tp79
F1
s(S'VP'
S'VNNNNP'
tp80
F1
s(S'MP'
S'MADVVNP'
tp81
F1
s(S'AP'
S'ANP'
tp82
F1
s(S'NP'
S'NADVADVADVVP'
tp83
F1
s(g60
S'PPADVAP'
tp84
F3
s(S'PP'
S'PNNNP'
tp85
F2
s(S'DP'
S'DPPPP'
tp86
F4
s(S'DP'
S'DDANP'
tp87
F2
s(S'PP'
p88
S'PADVADP'
tp89
F1
s(S'NP'
p90
S'NACP'
tp91
F7
s(S'NP'
S'NCCP'
tp92
F16
s(S'NP'
S'NNCP'
tp93
F12
s(S'DP'
p94
S'ADVDDPP'
tp95
F3
s(S'NP'
S'NADVADVVP'
tp96
F1
s(S'DP'
S'DDAPP'
tp97
F1
s(S'VP'
S'AVNP'
tp98
F8
s(S'VP'
S'VVADP'
tp99
F1
s(S'PP'
S'ADVAPDP'
tp100
F1
s(S'VP'
S'VADVVP'
tp101
F1
s(S'VP'
p102
S'ADVADVADVVNP'
tp103
F1
s(S'NP'
S'ANADVVP'
tp104
F1
s(S'AP'
S'AAAAP'
tp105
F1
s(S'NP'
S'NNNVP'
tp106
F1
s(S'CP'
p107
S'CCCDP'
tp108
F2
s(S'VP'
p109
S'ADVVAP'
tp110
F3
s(g73
S'VCCCP'
tp111
F1
s(g33
S'APDP'
tp112
F14
s(S'VP'
S'ADVVNNP'
tp113
F1
s(S'AP'
S'AADVCP'
tp114
F3
s(S'VP'
S'VVANP'
tp115
F1
s(S'VP'
S'VVVVDP'
tp116
F1
s(S'DP'
S'DADVADVADVPP'
tp117
F1
s(S'PP'
S'PCCP'
tp118
F3
s(S'PP'
S'PAAP'
tp119
F12
s(g16
S'DNNP'
tp120
F25
s(g107
S'CADVDDPP'
tp121
F2
s(S'DP'
S'DPPPPP'
tp122
F1
s(S'CP'
S'CDDPPPP'
tp123
F1
s(S'CP'
p124
S'CCADVDP'
tp125
F1
s(S'VP'
S'ADVADVADVVVDP'
tp126
F1
s(S'DP'
S'ADVVVP'
tp127
F1
s(S'DP'
S'ADVADVVP'
tp128
F1
s(S'PP'
S'PPNNNNP'
tp129
F1
s(S'PP'
S'PADVVP'
tp130
F6
s(S'PP'
S'PPADVADVADVDDP'
tp131
F1
s(S'PP'
S'APAP'
tp132
F3
s(S'AP'
S'APP'
tp133
F27
s(S'NP'
S'NADVMP'
tp134
F1
s(S'DP'
S'DADVADVADVADVVVP'
tp135
F1
s(S'AP'
S'AAP'
tp136
F7
s(S'VP'
p137
S'VADVADVVP'
tp138
F2
s(S'CP'
S'CADVADPP'
tp139
F1
s(S'NP'
S'ADVADVNDP'
tp140
F1
s(S'NP'
S'ADVANPP'
tp141
F3
s(S'VP'
S'VVVVPP'
tp142
F1
s(S'DP'
S'DAAVP'
tp143
F1
s(S'PP'
p144
S'PAANP'
tp145
F1
s(S'VP'
S'VADVADVCP'
tp146
F1
s(S'NP'
p147
S'ANVP'
tp148
F13
s(S'VP'
S'VAACP'
tp149
F2
s(S'VP'
S'VVAPP'
tp150
F1
s(S'MP'
S'MVNP'
tp151
F8
s(S'DP'
p152
S'ADVADVDDP'
tp153
F1
s(S'NP'
S'ANAAP'
tp154
F1
s(S'CP'
S'CDDDPPP'
tp155
F1
s(S'PP'
S'PAVP'
tp156
F5
s(S'MP'
S'ADVMVP'
tp157
F1
s(g109
S'VVVPP'
tp158
F5
s(S'CP'
S'CADVADVADPP'
tp159
F1
s(S'NP'
S'NNADVADVVVP'
tp160
F2
s(S'MP'
S'MADVVPP'
tp161
F1
s(g52
S'DADP'
tp162
F3
s(S'AP'
S'ADVADP'
tp163
F2
s(S'CP'
S'ADVADVCDP'
tp164
F1
s(S'VP'
S'VVADVPP'
tp165
F1
s(g42
S'APDDP'
tp166
F1
s(S'PP'
S'PPCP'
tp167
F1
s(S'PP'
S'APVP'
tp168
F5
s(g4
S'VVNP'
tp169
F16
s(S'PP'
p170
S'PPPNNP'
tp171
F3
s(S'PP'
S'PPVP'
tp172
F13
s(S'MP'
p173
S'MVDP'
tp174
F12
s(g48
S'VPP'
tp175
F89
s(S'VP'
S'VVADVAP'
tp176
F2
s(g65
S'VAAP'
tp177
F4
s(S'NP'
S'ANDP'
tp178
F12
s(g90
S'NVVP'
tp179
F31
s(S'PP'
S'AAPVP'
tp180
F2
s(S'PP'
p181
S'PPADP'
tp182
F1
s(S'VP'
S'VMP'
tp183
F1
s(S'VP'
S'VVNNP'
tp184
F1
s(S'CP'
S'CDAPP'
tp185
F20
s(S'DP'
S'ADVADVDDVP'
tp186
F1
s(S'DP'
p187
S'ADNP'
tp188
F7
s(S'PP'
p189
S'PADP'
tp190
F7
s(S'NP'
S'NADVADVADVVVP'
tp191
F1
s(S'NP'
p192
S'ANDDP'
tp193
F1
s(S'DP'
p194
S'DADVAP'
tp195
F3
s(S'DP'
S'DAPP'
tp196
F26
s(S'VP'
S'VADVAAP'
tp197
F1
s(S'VP'
S'ADVADVVDP'
tp198
F1
s(S'VP'
p199
S'VAAPP'
tp200
F1
s(S'DP'
S'ADVDNP'
tp201
F4
s(S'VP'
S'VVPP'
tp202
F7
s(S'MP'
S'MVPP'
tp203
F9
s(S'DP'
p204
S'ADVP'
tp205
F3
s(S'CP'
S'CDDPPP'
tp206
F1
s(S'NP'
p207
S'NNPP'
tp208
F13
s(S'MP'
S'MVVDP'
tp209
F1
s(S'DP'
S'DADVPPP'
tp210
F4
s(S'PP'
S'PPADVAAP'
tp211
F1
s(g35
S'PPVVP'
tp212
F1
s(S'DP'
p213
S'ADVDADVPP'
tp214
F1
s(S'VP'
p215
S'VADVDDP'
tp216
F2
s(S'PP'
p217
S'PVVVP'
tp218
F1
s(g88
S'PMP'
tp219
F3
s(S'NP'
S'NNMMP'
tp220
F2
s(S'CP'
S'CCDP'
tp221
F34
s(S'VP'
S'VADVANP'
tp222
F3
s(S'NP'
p223
S'NADVADVADVAP'
tp224
F1
s(g215
S'VADVADVANP'
tp225
F1
s(g147
S'NVVVP'
tp226
F6
s(S'CP'
S'CDDDPP'
tp227
F3
s(S'CP'
S'CDAAPP'
tp228
F3
s(g199
S'VVVDP'
tp229
F3
s(S'MP'
S'MVACP'
tp230
F2
s(S'PP'
p231
S'PPP'
tp232
F67
s(g90
S'NAVP'
tp233
F10
s(S'DP'
p234
S'ADVADVDDNP'
tp235
F1
s(g234
S'DDNNNP'
tp236
F1
s(S'PP'
S'PADDP'
tp237
F1
s(g56
S'APVVVP'
tp238
F1
s(S'DP'
S'ADVDVP'
tp239
F2
s(S'PP'
S'ADVPADVNP'
tp240
F1
s(S'NP'
p241
S'NADVVVP'
tp242
F6
s(S'DP'
p243
S'DAAAP'
tp244
F1
s(S'DP'
S'ADVADVDNP'
tp245
F2
s(S'AP'
S'AAADVCP'
tp246
F2
s(g144
S'ADVPAADP'
tp247
F1
s(S'CP'
S'ADVCCDP'
tp248
F1
s(S'DP'
S'ADVDDNP'
tp249
F1
s(S'NP'
S'NNNCP'
tp250
F2
s(g35
S'PADVDP'
tp251
F4
s(S'DP'
p252
S'ADVADVADVDDDP'
tp253
F1
s(S'DP'
S'DANNP'
tp254
F1
s(S'PP'
S'PADVAAP'
tp255
F1
s(S'CP'
S'CDDPP'
tp256
F19
s(S'DP'
p257
S'DAAPP'
tp258
F5
s(S'PP'
S'PVVP'
tp259
F11
s(S'CP'
S'CADPPP'
tp260
F2
s(S'AP'
S'AACP'
tp261
F6
s(S'VP'
S'ADVVCP'
tp262
F3
s(S'MP'
S'MCCDP'
tp263
F1
s(S'VP'
S'VPPP'
tp264
F10
s(S'AP'
S'ADVAADP'
tp265
F1
s(S'VP'
p266
S'VVPPP'
tp267
F1
s(g231
S'PPAP'
tp268
F8
s(S'DP'
p269
S'DVVP'
tp270
F11
s(g147
S'ANMP'
tp271
F2
s(S'AP'
p272
S'APPP'
tp273
F5
s(S'DP'
S'ADVVP'
tp274
F1
s(S'NP'
S'ADVADVNVP'
tp275
F2
s(g266
S'VVVP'
tp276
F3
s(S'CP'
S'CADVDPP'
tp277
F11
s(S'NP'
S'ANCP'
tp278
F19
s(S'DP'
S'DCP'
tp279
F6
s(S'DP'
S'DDDP'
tp280
F3
s(S'DP'
S'DDADVPP'
tp281
F1
s(S'NP'
p282
S'ANVVP'
tp283
F4
s(S'NP'
p284
S'NVVVVP'
tp285
F2
s(S'NP'
p286
S'NPPP'
tp287
F9
s(g257
S'DAVP'
tp288
F10
s(S'PP'
S'ADVPPP'
tp289
F1
s(S'AP'
p290
S'ACP'
tp291
F52
s(g231
S'AAPAP'
tp292
F1
s(g35
S'PPNP'
tp293
F19
s(S'AP'
S'ADP'
tp294
F121
s(g152
S'DDPPPP'
tp295
F1
s(S'DP'
S'DVVVVP'
tp296
F2
s(g58
S'MMNNP'
tp297
F1
s(S'VP'
p298
S'AVDP'
tp299
F18
s(S'NP'
S'ANNVP'
tp300
F1
s(S'VP'
S'VVAP'
tp301
F5
s(S'MP'
S'MNADVVP'
tp302
F1
s(g170
S'PADVADVDP'
tp303
F2
s(S'PP'
p304
S'PPADVVP'
tp305
F1
s(g207
S'NPP'
tp306
F119
s(S'VP'
S'ADVADVVAP'
tp307
F3
s(S'NP'
p308
S'NADVANP'
tp309
F1
s(g284
S'NNDDDP'
tp310
F1
s(S'NP'
S'NAAPP'
tp311
F1
s(g298
S'VDDP'
tp312
F18
s(S'AP'
S'ADVADVADVADP'
tp313
F1
s(S'DP'
S'DMP'
tp314
F5
s(S'DP'
S'DADVAPP'
tp315
F2
s(S'NP'
S'ANPP'
tp316
F15
s(S'PP'
p317
S'ADVPPDP'
tp318
F1
s(S'PP'
S'PPPPP'
tp319
F4
s(S'MP'
S'MVVPP'
tp320
F1
s(S'DP'
p321
S'ADVDPP'
tp322
F15
s(g63
S'ADDP'
tp323
F1
s(S'CP'
S'CAADPP'
tp324
F3
s(S'PP'
S'PADVADVADVADVVP'
tp325
F1
s(S'DP'
S'DADVADVVP'
tp326
F1
s(g60
S'PNNP'
tp327
F20
s(g187
S'AAADPP'
tp328
F2
s(S'VP'
S'AVAP'
tp329
F1
s(S'MP'
p330
S'MMVP'
tp331
F4
s(S'PP'
S'PADVDDP'
tp332
F1
s(S'PP'
p333
S'ADVADVAPDP'
tp334
F1
s(S'AP'
S'AAPPPP'
tp335
F1
s(S'NP'
p336
S'ADVNCP'
tp337
F3
s(S'AP'
S'AADP'
tp338
F14
s(S'CP'
S'ACDP'
tp339
F14
s(S'NP'
S'NNDP'
tp340
F3
s(S'AP'
S'ADVANP'
tp341
F3
s(S'NP'
p342
S'NNACP'
tp343
F2
s(S'CP'
S'CDADVPPP'
tp344
F2
s(g21
S'VAP'
tp345
F74
s(S'VP'
S'VVVVNP'
tp346
F1
s(S'DP'
S'DDDPP'
tp347
F6
s(S'MP'
S'AAMNP'
tp348
F1
s(S'VP'
S'ADVADVVVAP'
tp349
F1
s(S'DP'
S'DDDPPP'
tp350
F3
s(S'DP'
S'ADAP'
tp351
F1
s(g94
S'DADVDP'
tp352
F1
s(S'VP'
S'ADVVVDP'
tp353
F2
s(g304
S'PPPVP'
tp354
F1
s(S'AP'
S'AADDP'
tp355
F1
s(S'VP'
S'VAANP'
tp356
F1
s(g48
S'VVDP'
tp357
F24
s(S'MP'
S'MPNP'
tp358
F1
s(S'MP'
S'MADP'
tp359
F1
s(S'AP'
S'AAACCP'
tp360
F1
s(g35
S'PANP'
tp361
F15
s(S'PP'
S'PDDDP'
tp362
F1
s(S'DP'
S'ADVADPP'
tp363
F1
s(S'PP'
S'APADVADVDDP'
tp364
F1
s(S'AP'
S'AAVP'
tp365
F2
s(S'AP'
S'AVVP'
tp366
F1
s(S'DP'
S'ADADVAPP'
tp367
F1
s(S'NP'
S'NDDP'
tp368
F7
s(S'AP'
S'ACCP'
tp369
F6
s(g4
S'AVPPP'
tp370
F2
s(S'NP'
S'NDP'
tp371
F43
s(S'NP'
S'NNNNVVP'
tp372
F1
s(g213
S'DDVP'
tp373
F11
s(S'NP'
S'AANVP'
tp374
F3
s(S'VP'
S'VAAMP'
tp375
F1
s(S'PP'
S'ADVPAP'
tp376
F1
s(g231
S'PCP'
tp377
F8
s(S'PP'
S'PAADP'
tp378
F1
s(g45
S'ADVNNVP'
tp379
F2
s(S'PP'
S'PPPVVP'
tp380
F1
s(S'NP'
S'NNNDP'
tp381
F1
s(g272
S'ADVACP'
tp382
F3
s(S'NP'
S'ADVADVNMP'
tp383
F1
s(S'VP'
S'VVVAP'
tp384
F1
s(S'DP'
S'ADPPP'
tp385
F2
s(S'MP'
S'MVCP'
tp386
F3
s(S'CP'
S'CCDDP'
tp387
F3
s(S'NP'
S'NNADVVP'
tp388
F1
s(S'NP'
S'NAAP'
tp389
F2
s(g70
S'ADVANAP'
tp390
F1
s(S'NP'
S'NNVVP'
tp391
F3
s(g317
S'PPADVPPP'
tp392
F1
s(g282
S'NNNNVP'
tp393
F2
s(S'VP'
S'VVCP'
tp394
F12
s(S'NP'
S'AANCP'
tp395
F3
s(S'VP'
S'VDP'
tp396
F144
s(S'PP'
S'APPP'
tp397
F7
s(S'VP'
S'ADVVPP'
tp398
F2
s(S'VP'
p399
S'VNNP'
tp400
F12
s(S'AP'
S'AADVDP'
tp401
F3
s(S'NP'
S'NADP'
tp402
F1
s(S'DP'
S'DDNP'
tp403
F17
s(S'NP'
S'NADVCP'
tp404
F5
s(g321
S'DDNNP'
tp405
F7
s(S'PP'
S'PADVADVVVP'
tp406
F1
s(S'NP'
S'ADVANVP'
tp407
F1
s(S'DP'
S'AADPP'
tp408
F5
s(S'CP'
S'CDPPPPP'
tp409
F1
s(S'MP'
S'MVVNP'
tp410
F2
s(S'CP'
S'ACDDP'
tp411
F1
s(g290
S'AAPP'
tp412
F3
s(g215
S'VVCCP'
tp413
F2
s(S'DP'
S'DADVVVP'
tp414
F2
s(g24
S'DADVADVNP'
tp415
F1
s(S'NP'
S'NAPP'
tp416
F5
s(S'MP'
S'MADVADVVVDP'
tp417
F1
s(g90
S'ANCCP'
tp418
F4
s(S'NP'
S'NNCCP'
tp419
F1
s(g241
S'NNMP'
tp420
F3
s(S'DP'
p421
S'DDDDDADVNP'
tp422
F1
s(S'MP'
S'MNVP'
tp423
F3
s(S'DP'
S'ADVDDAP'
tp424
F1
s(S'CP'
S'CDDAPP'
tp425
F1
s(g282
S'ANAP'
tp426
F4
s(S'VP'
S'VADVADVAPP'
tp427
F1
s(g330
S'MVAP'
tp428
F5
s(g33
S'PVP'
tp429
F109
s(S'AP'
S'ADVADVAPP'
tp430
F2
s(g124
S'ACDDDP'
tp431
F1
s(S'AP'
S'ADVAACP'
tp432
F2
s(g39
S'DVVVP'
tp433
F2
s(S'PP'
p434
S'PPDDP'
tp435
F1
s(S'VP'
S'AVCP'
tp436
F3
s(S'NP'
S'NAVVP'
tp437
F1
s(g16
S'DPP'
tp438
F215
s(g286
S'ADVNVP'
tp439
F5
s(g257
S'DDPP'
tp440
F33
s(S'DP'
S'DANP'
tp441
F44
s(S'NP'
S'NADVPP'
tp442
F1
s(S'NP'
S'AANADVVP'
tp443
F1
s(S'NP'
S'NAAVP'
tp444
F1
s(g243
S'ADVADVADPP'
tp445
F1
s(g204
S'AADNP'
tp446
F2
s(S'AP'
S'AAAAPP'
tp447
F1
s(S'NP'
p448
S'NNNNCP'
tp449
F1
s(g223
S'NADVCCP'
tp450
F1
s(g448
S'AANADVPP'
tp451
F1
s(S'AP'
S'ADVADVADVAPPP'
tp452
F1
s(g70
S'ADVNMMP'
tp453
F2
s(g52
S'DCCP'
tp454
F2
s(g434
S'AAPDP'
tp455
F3
s(g173
S'MADVVDP'
tp456
F1
s(S'DP'
S'DDADVNNP'
tp457
F1
s(S'VP'
S'AVVDP'
tp458
F1
s(S'PP'
S'PDDP'
tp459
F13
s(S'DP'
S'DADVADVADVVP'
tp460
F1
s(S'PP'
S'ADVAPNP'
tp461
F2
s(S'DP'
S'ADVADVDADVPP'
tp462
F1
s(g78
S'NNVP'
tp463
F25
s(g217
S'APAAP'
tp464
F1
s(g266
S'VVDDP'
tp465
F1
s(g194
S'DAANP'
tp466
F8
s(S'PP'
S'AAAPAP'
tp467
F1
s(S'AP'
S'ADDP'
tp468
F10
s(S'VP'
S'ADVADVADVVCP'
tp469
F1
s(S'VP'
S'ADVVVAP'
tp470
F1
s(S'PP'
S'ADVPPNP'
tp471
F4
s(S'CP'
S'CADVADVDPP'
tp472
F4
s(g16
S'DPPP'
tp473
F35
s(S'DP'
S'AADPPP'
tp474
F2
s(S'PP'
S'ADVADVPPNP'
tp475
F1
s(S'NP'
S'NNAVP'
tp476
F1
s(S'PP'
S'ADVPNP'
tp477
F7
s(g181
S'PPDP'
tp478
F18
s(S'MP'
S'MAVDP'
tp479
F1
s(g189
S'ADVADVADVPVP'
tp480
F1
s(S'MP'
S'MMAVP'
tp481
F1
s(g78
S'NAP'
tp482
F23
s(g399
S'VAAAP'
tp483
F1
s(S'VP'
p484
S'ADVAVNP'
tp485
F1
s(S'VP'
S'VVP'
tp486
F11
s(g187
S'DADVNP'
tp487
F6
s(g31
S'ADVADVPVP'
tp488
F1
s(S'AP'
S'AAADP'
tp489
F3
s(S'PP'
S'APNP'
tp490
F7
s(S'VP'
S'VVVNNP'
tp491
F1
s(g152
S'DDVVP'
tp492
F1
s(S'VP'
S'VVVNP'
tp493
F2
s(g50
S'NAMP'
tp494
F2
s(S'DP'
S'ADVADVDDPP'
tp495
F1
s(S'MP'
S'MVNNP'
tp496
F1
s(S'CP'
S'CDPP'
tp497
F179
s(g12
S'PDDDDDP'
tp498
F1
s(S'CP'
S'ADVCDP'
tp499
F10
s(g333
S'AAPVVP'
tp500
F1
s(S'VP'
S'ADVADVADVADVVVCP'
tp501
F1
s(g137
S'ADVADVVCP'
tp502
F1
s(g102
S'VADVADVDP'
tp503
F1
s(g317
S'ADVPAVP'
tp504
F1
s(S'PP'
S'PPMP'
tp505
F1
s(g252
S'ADVADVDPP'
tp506
F4
s(S'VP'
S'VAADP'
tp507
F2
s(S'NP'
S'NADVAP'
tp508
F1
s(S'VP'
p509
S'AVDDP'
tp510
F2
s(S'DP'
p511
S'DAP'
tp512
F23
s(g19
S'CADPP'
tp513
F17
s(S'DP'
S'ADVADVDVVP'
tp514
F1
s(S'NP'
S'NADVAVP'
tp515
F1
s(S'PP'
S'PPAVP'
tp516
F1
s(S'VP'
S'AVPP'
tp517
F1
s(S'CP'
S'CAADPPP'
tp518
F1
s(g204
S'DDNNNNP'
tp519
F1
s(g484
S'VVADVDP'
tp520
F2
s(S'PP'
S'PPADVADVDDP'
tp521
F1
s(S'CP'
S'CDPPPP'
tp522
F4
s(S'VP'
S'ADVADVADVADVVPP'
tp523
F1
s(S'NP'
S'ADVANMP'
tp524
F1
s(g421
S'DADVADVPP'
tp525
F1
s(g336
S'AANVVP'
tp526
F3
s(S'PP'
S'PPPNP'
tp527
F2
s(S'PP'
S'PADVADVNP'
tp528
F3
s(S'PP'
S'PPPPNP'
tp529
F1
s(g16
S'ADPP'
tp530
F21
s(g78
S'NVP'
tp531
F183
s(S'VP'
p532
S'VADVPP'
tp533
F1
s(S'PP'
S'ADVPVP'
tp534
F3
s(S'DP'
S'DDDDPP'
tp535
F1
s(S'NP'
S'NNVVVP'
tp536
F2
s(S'PP'
S'ADVPDP'
tp537
F2
s(S'NP'
S'ADVNNPP'
tp538
F1
s(g207
S'NCP'
tp539
F127
s(S'CP'
S'CADVDPPP'
tp540
F3
s(g509
S'ADVVVPP'
tp541
F2
s(g308
S'ADVANDP'
tp542
F1
s(S'AP'
S'AAAP'
tp543
F2
s(S'CP'
S'CDADVPP'
tp544
F2
s(S'DP'
S'DADVNNP'
tp545
F1
s(S'VP'
S'VDDDP'
tp546
F2
s(g286
S'ADVADVANVVP'
tp547
F1
s(S'PP'
S'PADVADVAP'
tp548
F1
s(S'VP'
S'VAPP'
tp549
F4
s(S'MP'
S'MAVNP'
tp550
F1
s(g532
S'ADVVDP'
tp551
F14
s(g269
S'DADVPP'
tp552
F9
s(S'CP'
S'CCADP'
tp553
F1
s(S'NP'
S'ADVNNCP'
tp554
F1
s(S'AP'
S'ADVAPP'
tp555
F9
s(S'DP'
S'ADVDAVP'
tp556
F1
s(S'MP'
S'MNADVADVVP'
tp557
F1
s(S'CP'
S'AACDP'
tp558
F2
s(g511
S'ADVDPPP'
tp559
F3
s(g16
S'DVP'
tp560
F132
s(g192
S'ADVNPP'
tp561
F1
s(S'AP'
S'AVP'
tp562
F12
s(S'NP'
S'NADVVP'
tp563
F7
s(S'VP'
S'ADVVPPP'
tp564
F1
s(S'DP'
S'DDPPP'
tp565
F1
s(S'NP'
S'ADVNMP'
tp566
F3
s(S'NP'
S'NNAP'
tp567
F2
s(g342
S'NNADVAP'
tp568
F1
s(g399
S'VNP'
tp569
F98
s(S'VP'
S'VANP'
tp570
F9
s(g199
S'VADVAP'
tp571
F8
s(S'VP'
S'ADVADVVVDP'
tp572
F2
s(S'CP'
S'CADADVAPP'
tp573
F1
s.