ccollections
defaultdict
p1
(c__builtin__
float
p2
tRp3
(S'DP'
S'DDADVADVAAP'
tp4
F1
s(S'NP'
S'NNNVVVP'
tp5
F1
s(S'DP'
S'ADADVADVNNP'
tp6
F1
s(S'DP'
S'ADVADVADVADVDDNP'
tp7
F1
s(S'PP'
S'PAAANP'
tp8
F2
s(S'DP'
S'ADDPP'
tp9
F1
s(S'DP'
S'DDAP'
tp10
F6
s(S'VP'
S'ADVVVNP'
tp11
F8
s(S'VP'
S'VVVVP'
tp12
F1
s(S'DP'
S'ADVADVDDNP'
tp13
F1
s(S'VP'
S'VVADVVP'
tp14
F1
s(S'PP'
p15
S'PAPP'
tp16
F15
s(S'PP'
p17
S'PADVNP'
tp18
F9
s(S'DP'
p19
S'DNP'
tp20
F339
s(S'MP'
S'MVVAAP'
tp21
F1
s(S'PP'
S'AAPDDP'
tp22
F1
s(S'NP'
S'NNNAAP'
tp23
F1
s(S'CP'
S'CDPPP'
tp24
F48
s(S'MP'
S'MADVVAPP'
tp25
F1
s(S'VP'
S'VADP'
tp26
F20
s(S'DP'
p27
S'DAAP'
tp28
F10
s(S'PP'
S'PPAVP'
tp29
F1
s(S'PP'
S'PPPPPP'
tp30
F2
s(S'PP'
S'APPDP'
tp31
F1
s(S'VP'
S'VADVDDP'
tp32
F1
s(S'NP'
S'AAANVVVP'
tp33
F1
s(S'DP'
S'ADNNP'
tp34
F2
s(S'VP'
S'AVADVDP'
tp35
F3
s(S'MP'
S'MDVP'
tp36
F1
s(S'PP'
S'PADVADVAAP'
tp37
F1
s(S'VP'
p38
S'ADVVNP'
tp39
F15
s(S'MP'
p40
S'MVDP'
tp41
F17
s(S'PP'
p42
S'PADVANP'
tp43
F1
s(S'CP'
S'CAAADPP'
tp44
F1
s(S'PP'
S'PPPP'
tp45
F33
s(S'VP'
S'VVVVDDP'
tp46
F1
s(S'AP'
p47
S'ADVAPPP'
tp48
F1
s(S'DP'
S'DDDNP'
tp49
F4
s(S'MP'
p50
S'MMADVVP'
tp51
F1
s(S'VP'
S'VACP'
tp52
F2
s(S'AP'
S'AAAVP'
tp53
F2
s(S'PP'
p54
S'PPAAP'
tp55
F1
s(S'NP'
p56
S'NNNNNADVVVP'
tp57
F1
s(S'DP'
p58
S'DADVVP'
tp59
F15
s(S'PP'
S'PADVNNP'
tp60
F1
s(S'AP'
S'AADVPP'
tp61
F2
s(S'NP'
p62
S'NNNADVADVVVP'
tp63
F2
s(S'NP'
p64
S'NADVACP'
tp65
F1
s(S'NP'
S'NDDDP'
tp66
F3
s(S'NP'
p67
S'NADVVVP'
tp68
F14
s(S'CP'
S'CADVADVDDPP'
tp69
F1
s(S'NP'
S'ANADVPP'
tp70
F1
s(S'VP'
p71
S'VCP'
tp72
F103
s(S'NP'
p73
S'NMMP'
tp74
F4
s(S'VP'
S'ADVVCCP'
tp75
F1
s(S'PP'
S'ADVPADP'
tp76
F1
s(g15
S'PAP'
tp77
F98
s(S'MP'
S'MMVVP'
tp78
F1
s(S'VP'
S'VADVADVAP'
tp79
F5
s(g42
S'ADVPPVP'
tp80
F3
s(S'VP'
S'VADVNP'
tp81
F4
s(S'NP'
p82
S'NNNAP'
tp83
F3
s(S'PP'
S'APVVP'
tp84
F1
s(S'PP'
S'PPADVDP'
tp85
F1
s(S'MP'
S'AMVP'
tp86
F1
s(g15
S'PNP'
tp87
F316
s(S'DP'
p88
S'ADDP'
tp89
F3
s(S'PP'
p90
S'PAAADP'
tp91
F1
s(S'DP'
p92
S'DDP'
tp93
F31
s(S'NP'
S'NNNPP'
tp94
F6
s(S'PP'
S'PAAP'
tp95
F14
s(S'CP'
S'AACCDP'
tp96
F1
s(S'NP'
S'NNADVADVCP'
tp97
F1
s(S'NP'
S'ANNVVVVP'
tp98
F1
s(S'NP'
p99
S'NMP'
tp100
F57
s(S'MP'
S'MAVDDP'
tp101
F1
s(S'NP'
p102
S'ADVNAPP'
tp103
F1
s(S'PP'
S'ADVADVPAAP'
tp104
F1
s(S'VP'
S'AAVNP'
tp105
F1
s(g15
S'PDP'
tp106
F337
s(S'PP'
S'PPADVVP'
tp107
F1
s(S'VP'
p108
S'VNNNNP'
tp109
F4
s(S'NP'
S'AANADVAP'
tp110
F1
s(S'CP'
S'CDADVADVPPP'
tp111
F1
s(S'DP'
S'ADVADVDAPP'
tp112
F2
s(S'VP'
p113
S'AVAAP'
tp114
F1
s(S'NP'
p115
S'NNADVADVADVVVP'
tp116
F2
s(S'AP'
S'ANP'
tp117
F1
s(S'PP'
p118
S'ADVPAAP'
tp119
F1
s(S'NP'
S'NADVADVADVVP'
tp120
F2
s(S'VP'
S'AAVPP'
tp121
F1
s(S'VP'
p122
S'VVADVNP'
tp123
F1
s(S'NP'
S'ANVVVVP'
tp124
F1
s(S'VP'
p125
S'VADVAAP'
tp126
F2
s(S'PP'
S'ADVADVAPPP'
tp127
F1
s(S'DP'
S'DPPPP'
tp128
F13
s(S'DP'
S'DDANP'
tp129
F9
s(S'PP'
S'PADVADP'
tp130
F2
s(S'NP'
p131
S'NACP'
tp132
F13
s(S'AP'
S'ADVAVP'
tp133
F3
s(S'NP'
S'NCCP'
tp134
F51
s(S'DP'
S'DADVADVVVP'
tp135
F1
s(S'AP'
S'AAAADP'
tp136
F2
s(S'NP'
S'NADVADVDDP'
tp137
F1
s(S'VP'
p138
S'VVVVVP'
tp139
F2
s(S'NP'
p140
S'NNCP'
tp141
F51
s(S'DP'
p142
S'ADVDDPP'
tp143
F3
s(S'NP'
S'NADVADVVP'
tp144
F2
s(S'NP'
S'NNPPPP'
tp145
F1
s(S'DP'
p146
S'DDDDP'
tp147
F2
s(S'DP'
S'DDAPP'
tp148
F4
s(S'PP'
S'APPAAP'
tp149
F1
s(S'VP'
S'AVNP'
tp150
F7
s(S'PP'
S'ADVAPPNP'
tp151
F1
s(S'VP'
S'ADVADVADVVVDP'
tp152
F1
s(S'NP'
S'AAANADVADVDP'
tp153
F1
s(S'PP'
S'ADVPVVP'
tp154
F1
s(S'MP'
S'MVVNP'
tp155
F2
s(S'PP'
p156
S'ADVAPDP'
tp157
F1
s(S'VP'
p158
S'VVMP'
tp159
F1
s(S'VP'
p160
S'VADVVP'
tp161
F5
s(S'NP'
p162
S'ADVADVADVNMP'
tp163
F1
s(S'VP'
S'ADVADVADVVNP'
tp164
F2
s(S'MP'
p165
S'MVAPP'
tp166
F1
s(S'MP'
S'MAAP'
tp167
F1
s(S'MP'
S'MVPPP'
tp168
F1
s(S'NP'
p169
S'ANADVVP'
tp170
F1
s(S'PP'
S'ADVAPVP'
tp171
F1
s(S'AP'
S'AAAAP'
tp172
F2
s(S'DP'
S'DADVPPP'
tp173
F6
s(S'CP'
p174
S'CCCDP'
tp175
F7
s(g160
S'ADVVAP'
tp176
F8
s(S'VP'
S'VCCCP'
tp177
F2
s(S'PP'
S'PADVVVP'
tp178
F2
s(g15
S'APDP'
tp179
F58
s(S'NP'
S'NNNNNPP'
tp180
F1
s(S'VP'
S'ADVVNNP'
tp181
F7
s(S'PP'
p182
S'PADVADVADVPP'
tp183
F1
s(S'AP'
S'AADVCP'
tp184
F2
s(g42
S'APADVPPP'
tp185
F1
s(S'VP'
S'VVANP'
tp186
F3
s(S'PP'
S'PPACP'
tp187
F1
s(S'VP'
S'VVVVDP'
tp188
F5
s(S'VP'
S'ADVVVP'
tp189
F1
s(S'VP'
S'AVVADVNP'
tp190
F1
s(S'NP'
S'ADVADVNNPP'
tp191
F1
s(S'PP'
S'PPADVADVAP'
tp192
F1
s(S'CP'
p193
S'CCCADP'
tp194
F2
s(S'MP'
S'MADVVNP'
tp195
F1
s(S'VP'
S'VVVPPPP'
tp196
F1
s(S'CP'
S'CDDADVADVADVPP'
tp197
F1
s(S'NP'
S'NANP'
tp198
F3
s(S'DP'
S'DNNP'
tp199
F65
s(S'CP'
S'CADVDDPP'
tp200
F1
s(S'DP'
S'DPPPPP'
tp201
F4
s(S'CP'
S'CDDPPPP'
tp202
F2
s(S'CP'
S'CCADVDP'
tp203
F4
s(S'VP'
S'VVNNNP'
tp204
F1
s(S'VP'
S'VVACP'
tp205
F1
s(S'VP'
S'AAVDDP'
tp206
F2
s(g131
S'NNNVP'
tp207
F16
s(g125
S'VADVADVNNP'
tp208
F1
s(S'PP'
S'PPNNNNP'
tp209
F1
s(S'PP'
p210
S'PADVVP'
tp211
F9
s(S'DP'
S'DADVVVP'
tp212
F4
s(g54
S'APAP'
tp213
F4
s(S'MP'
p214
S'ADVMMANP'
tp215
F1
s(S'AP'
S'APP'
tp216
F63
s(S'VP'
S'VVADVADVADVADP'
tp217
F1
s(S'DP'
p218
S'DDDAANP'
tp219
F1
s(S'AP'
p220
S'AAP'
tp221
F12
s(S'MP'
S'ADVMAVP'
tp222
F1
s(g38
S'VVAPP'
tp223
F1
s(S'DP'
S'DDDNNNNNP'
tp224
F1
s(S'DP'
S'DAAAPP'
tp225
F1
s(S'NP'
p226
S'ADVANPP'
tp227
F2
s(S'MP'
S'MVVCP'
tp228
F1
s(S'VP'
p229
S'VADVADVNP'
tp230
F3
s(S'CP'
S'CDDDDPP'
tp231
F2
s(S'MP'
S'MVVVNP'
tp232
F3
s(S'PP'
S'PAANP'
tp233
F11
s(S'VP'
S'VVVANP'
tp234
F1
s(g210
S'PPVVP'
tp235
F6
s(S'VP'
S'VAACP'
tp236
F1
s(g165
S'MVNP'
tp237
F19
s(S'NP'
S'NNANP'
tp238
F1
s(S'NP'
S'ANAAP'
tp239
F1
s(S'AP'
S'ADVAADP'
tp240
F2
s(S'DP'
p241
S'ADVADNP'
tp242
F1
s(S'PP'
p243
S'PAVP'
tp244
F17
s(S'MP'
S'ADVMVP'
tp245
F2
s(S'NP'
S'ANAAAP'
tp246
F1
s(S'VP'
p247
S'VVVPP'
tp248
F8
s(S'NP'
p249
S'NNADP'
tp250
F2
s(S'VP'
S'VADVAPPP'
tp251
F1
s(S'AP'
S'ADVACCP'
tp252
F3
s(S'DP'
p253
S'DADP'
tp254
F4
s(S'DP'
S'DAAAPPP'
tp255
F1
s(S'AP'
p256
S'ADVADP'
tp257
F8
s(S'CP'
S'ADVADVCDP'
tp258
F2
s(S'VP'
S'VVADVPP'
tp259
F3
s(S'PP'
p260
S'APDDP'
tp261
F5
s(g122
S'ADVADVVVNP'
tp262
F5
s(S'PP'
S'PADVADVADVNNP'
tp263
F1
s(S'DP'
S'DAAAVP'
tp264
F1
s(S'PP'
S'PPCP'
tp265
F1
s(S'NP'
S'AANADVVVP'
tp266
F1
s(g260
S'APVP'
tp267
F21
s(S'NP'
S'ADVNADVMP'
tp268
F1
s(S'VP'
S'VVNP'
tp269
F66
s(S'PP'
S'PPPNNP'
tp270
F1
s(S'CP'
S'ADVCCDP'
tp271
F2
s(S'PP'
S'PPVP'
tp272
F26
s(S'VP'
S'AVADVADVADVADVDDP'
tp273
F1
s(S'VP'
S'VADVDP'
tp274
F4
s(g108
S'VVADVAP'
tp275
F4
s(S'VP'
S'VAAP'
tp276
F27
s(S'NP'
S'AANNPP'
tp277
F1
s(g140
S'ANDP'
tp278
F22
s(g140
S'NVVP'
tp279
F111
s(S'PP'
S'AAPVP'
tp280
F2
s(S'PP'
S'PPADP'
tp281
F5
s(S'VP'
p282
S'VMP'
tp283
F3
s(S'AP'
p284
S'AAAVVP'
tp285
F1
s(S'VP'
p286
S'VVNNP'
tp287
F16
s(S'CP'
p288
S'CDAPP'
tp289
F22
s(S'VP'
S'VVAAP'
tp290
F5
s(S'DP'
S'ADVADVP'
tp291
F1
s(g174
S'CADVADPP'
tp292
F2
s(S'DP'
p293
S'ADNP'
tp294
F23
s(S'AP'
S'AAAAADP'
tp295
F1
s(S'PP'
p296
S'PADP'
tp297
F22
s(S'VP'
S'ADVVVCP'
tp298
F3
s(S'NP'
S'NADVADVADVVVP'
tp299
F2
s(g220
S'AAADVADVDP'
tp300
F1
s(S'DP'
S'ADVADVDVP'
tp301
F3
s(g92
S'DADVAP'
tp302
F4
s(S'DP'
p303
S'DAPP'
tp304
F47
s(S'VP'
S'VVVVPP'
tp305
F1
s(S'VP'
S'ADVADVVPP'
tp306
F3
s(S'DP'
S'DAAVP'
tp307
F3
s(S'VP'
S'ADVADVADVVDP'
tp308
F2
s(S'PP'
S'PPPDP'
tp309
F2
s(S'AP'
S'AAAAAAADP'
tp310
F1
s(S'AP'
S'AACCCP'
tp311
F1
s(S'DP'
S'DDAAVP'
tp312
F1
s(S'AP'
S'AAPPP'
tp313
F3
s(S'VP'
S'VDDDDP'
tp314
F1
s(S'DP'
p315
S'DAAANP'
tp316
F7
s(S'DP'
S'DADVANP'
tp317
F2
s(S'VP'
p318
S'VAAPP'
tp319
F2
s(g218
S'ADVDNP'
tp320
F3
s(S'VP'
p321
S'VVPP'
tp322
F48
s(S'NP'
S'AAAANVP'
tp323
F1
s(S'DP'
S'ADADVPP'
tp324
F1
s(S'CP'
S'AACDDP'
tp325
F3
s(S'MP'
S'MVPP'
tp326
F9
s(S'DP'
p327
S'ADVP'
tp328
F8
s(S'MP'
S'MVADP'
tp329
F1
s(S'DP'
S'DDAAPP'
tp330
F1
s(S'PP'
S'PPPAP'
tp331
F3
s(S'PP'
S'ADVPPAPP'
tp332
F1
s(S'DP'
S'DDADVADVADVNP'
tp333
F1
s(g140
S'NNPP'
tp334
F38
s(S'NP'
S'NADVADVDP'
tp335
F2
s(S'NP'
S'AAANDP'
tp336
F1
s(g293
S'DDDDNP'
tp337
F2
s(S'VP'
p338
S'VVVPPP'
tp339
F2
s(g131
S'ANVP'
tp340
F43
s(g142
S'DNNNP'
tp341
F17
s(S'CP'
S'CCADVADP'
tp342
F1
s(S'MP'
S'MPDP'
tp343
F1
s(S'DP'
p344
S'ADVDDVP'
tp345
F3
s(S'PP'
S'PADVADVVP'
tp346
F1
s(S'NP'
S'ADVANVVP'
tp347
F2
s(S'DP'
S'DADVADVADVNNP'
tp348
F2
s(S'PP'
p349
S'PVVVP'
tp350
F3
s(S'PP'
p351
S'PMP'
tp352
F7
s(g82
S'NNMMP'
tp353
F2
s(S'DP'
p354
S'DAAAVVP'
tp355
F1
s(S'PP'
p356
S'PAAPPP'
tp357
F1
s(S'CP'
S'CCDP'
tp358
F78
s(S'DP'
S'ADVADVADVDPP'
tp359
F1
s(S'VP'
S'ADVVADP'
tp360
F1
s(S'VP'
S'VADVANP'
tp361
F2
s(S'PP'
S'PPNNNP'
tp362
F1
s(S'DP'
S'AADDPP'
tp363
F2
s(S'NP'
S'NVVVP'
tp364
F28
s(S'CP'
p365
S'CDDDPP'
tp366
F6
s(S'CP'
S'CDAAPP'
tp367
F4
s(S'VP'
S'ADVADVVVVP'
tp368
F1
s(g338
S'VVVDP'
tp369
F14
s(S'PP'
S'PDDDDP'
tp370
F2
s(g118
S'PNNNP'
tp371
F13
s(S'CP'
S'CCCCDP'
tp372
F1
s(S'DP'
S'ADVADVADVADPP'
tp373
F1
s(S'VP'
S'ADVVVMP'
tp374
F1
s(S'VP'
S'VVVVCP'
tp375
F1
s(S'AP'
S'AACCP'
tp376
F2
s(S'PP'
S'AAPNP'
tp377
F2
s(S'CP'
S'CADADVPP'
tp378
F1
s(S'VP'
S'ADVVVDP'
tp379
F7
s(S'PP'
p380
S'PPP'
tp381
F125
s(S'VP'
S'VADVADVADVANP'
tp382
F1
s(S'NP'
p383
S'NAVP'
tp384
F17
s(S'PP'
S'PADVAP'
tp385
F5
s(S'DP'
S'DDNNNP'
tp386
F3
s(S'VP'
S'VVVVCCP'
tp387
F1
s(S'VP'
p388
S'ADVVAPP'
tp389
F2
s(S'PP'
S'APVVVP'
tp390
F1
s(S'CP'
S'CADVDPPPP'
tp391
F1
s(g92
S'ADVDVP'
tp392
F10
s(S'PP'
p393
S'AAPADVDDP'
tp394
F1
s(S'DP'
S'DADVADVPPP'
tp395
F1
s(S'AP'
S'AADVVP'
tp396
F4
s(S'DP'
S'DDADVADVADVADVNP'
tp397
F1
s(S'DP'
S'DAAAP'
tp398
F1
s(S'DP'
S'ADVADVDNP'
tp399
F1
s(S'AP'
S'AAADVCP'
tp400
F1
s(S'VP'
p401
S'VPP'
tp402
F226
s(S'DP'
S'ADVDPPPP'
tp403
F1
s(S'MP'
S'MAAAANNVP'
tp404
F1
s(S'NP'
S'NNNCP'
tp405
F6
s(g296
S'PADVDP'
tp406
F9
s(g19
S'DANNP'
tp407
F3
s(S'CP'
S'CDDPP'
tp408
F47
s(g344
S'DAAPP'
tp409
F4
s(S'PP'
S'PVVP'
tp410
F36
s(S'CP'
S'CADPPP'
tp411
F1
s(S'AP'
S'AACP'
tp412
F9
s(S'VP'
p413
S'ADVVCP'
tp414
F7
s(S'PP'
S'ADVPPAP'
tp415
F2
s(S'VP'
S'VPPP'
tp416
F27
s(S'VP'
S'AVCCP'
tp417
F1
s(S'DP'
p418
S'DVVP'
tp419
F46
s(S'VP'
S'VVPPP'
tp420
F6
s(S'PP'
S'PPAP'
tp421
F14
s(S'CP'
S'CDADVADVAPP'
tp422
F1
s(g260
S'PADVAVP'
tp423
F3
s(S'CP'
S'CADVADVDAPP'
tp424
F1
s(S'CP'
S'CDDAAPP'
tp425
F1
s(g73
S'ANMP'
tp426
F5
s(S'AP'
p427
S'APPP'
tp428
F4
s(S'PP'
S'ADVPPP'
tp429
F5
s(S'NP'
S'ADVADVNVP'
tp430
F2
s(S'VP'
S'VVVP'
tp431
F5
s(S'CP'
S'CADVDPP'
tp432
F11
s(S'PP'
p433
S'ADVPAPP'
tp434
F1
s(S'DP'
p435
S'ADVDNNNP'
tp436
F1
s(S'NP'
S'ANCP'
tp437
F35
s(S'DP'
S'DCP'
tp438
F9
s(S'NP'
p439
S'ANNCP'
tp440
F2
s(S'NP'
S'AAANCP'
tp441
F3
s(g158
S'ADVVVVP'
tp442
F1
s(S'NP'
S'NNVVVVP'
tp443
F2
s(g303
S'DDDP'
tp444
F8
s(g146
S'DDADVPP'
tp445
F4
s(g62
S'ANVVP'
tp446
F10
s(S'NP'
S'NVVVVP'
tp447
F6
s(S'NP'
S'NPPP'
tp448
F21
s(S'DP'
S'ADDDP'
tp449
F2
s(S'DP'
S'AADVVP'
tp450
F1
s(g293
S'DAVP'
tp451
F12
s(S'NP'
S'NNNMP'
tp452
F3
s(g47
S'ACP'
tp453
F56
s(g243
S'PPNP'
tp454
F48
s(S'PP'
S'APPPP'
tp455
F1
s(S'NP'
p456
S'NAADP'
tp457
F1
s(S'DP'
S'AADVP'
tp458
F2
s(S'CP'
S'CADVADVADVDADVAPP'
tp459
F1
s(S'VP'
S'VAANNP'
tp460
F2
s(S'CP'
S'CDDADVPP'
tp461
F1
s(S'CP'
S'CCCDDP'
tp462
F2
s(S'AP'
S'ADP'
tp463
F246
s(S'DP'
S'DDPPPP'
tp464
F3
s(S'NP'
S'ANPPP'
tp465
F1
s(g354
S'ADVDAAPP'
tp466
F1
s(S'NP'
S'ADVADVADVNNPP'
tp467
F1
s(S'VP'
S'VAAANP'
tp468
F1
s(g182
S'ADVADVADVPAVP'
tp469
F1
s(S'VP'
S'VVPPPP'
tp470
F2
s(S'VP'
S'AAAVDP'
tp471
F1
s(S'AP'
S'AAADP'
tp472
F7
s(S'VP'
S'VVAP'
tp473
F23
s(S'NP'
p474
S'NNAPP'
tp475
F4
s(g56
S'NNADVADVADVVP'
tp476
F1
s(g193
S'ADVACDP'
tp477
F2
s(S'AP'
S'AAAPPP'
tp478
F1
s(S'NP'
p479
S'AANNVVP'
tp480
F1
s(S'NP'
p481
S'NADVAPP'
tp482
F1
s(S'VP'
p483
S'ADVADVVAP'
tp484
F2
s(g131
S'NVP'
tp485
F421
s(S'PP'
S'PAAVP'
tp486
F3
s(g169
S'NAAPP'
tp487
F2
s(g401
S'VDDP'
tp488
F48
s(S'VP'
S'ADVVADVAP'
tp489
F1
s(S'PP'
S'ADVADVADVADVPNP'
tp490
F1
s(S'DP'
S'DADVADVPP'
tp491
F3
s(S'NP'
S'AANNVP'
tp492
F1
s(S'NP'
p493
S'AANVVP'
tp494
F7
s(S'NP'
S'NNADVACP'
tp495
F1
s(S'NP'
S'NADVADVVVP'
tp496
F3
s(g140
S'ANPP'
tp497
F66
s(g351
S'PPPPP'
tp498
F9
s(S'NP'
p499
S'AANAAP'
tp500
F1
s(S'NP'
S'ADVNAAAP'
tp501
F1
s(S'MP'
S'MVVPP'
tp502
F2
s(S'DP'
S'ADVDPP'
tp503
F19
s(S'DP'
S'DDDDDP'
tp504
F1
s(g67
S'ADVADVNPP'
tp505
F2
s(S'NP'
S'NPPPP'
tp506
F2
s(g427
S'AADVADVDP'
tp507
F2
s(S'CP'
S'CDDDADVPP'
tp508
F1
s(S'CP'
S'CAADPP'
tp509
F3
s(S'DP'
p510
S'DADVADVVP'
tp511
F1
s(S'NP'
S'NAACP'
tp512
F7
s(g296
S'PNNP'
tp513
F60
s(S'PP'
p514
S'APNNP'
tp515
F2
s(S'DP'
S'DDAAP'
tp516
F1
s(S'DP'
S'AAAADVVP'
tp517
F1
s(S'DP'
S'AAADPP'
tp518
F1
s(S'VP'
p519
S'AVAP'
tp520
F2
s(g40
S'MMVP'
tp521
F5
s(S'PP'
S'PADVDDP'
tp522
F2
s(g439
S'ADVNCP'
tp523
F5
s(g19
S'ADPP'
tp524
F48
s(S'AP'
S'AADVADVADVVP'
tp525
F1
s(S'VP'
S'VAPPP'
tp526
F1
s(S'CP'
p527
S'ACDP'
tp528
F17
s(S'VP'
S'ADVVDDDP'
tp529
F1
s(g481
S'NNDP'
tp530
F7
s(S'DP'
S'ADVADVDAAANP'
tp531
F1
s(S'AP'
S'ADVANP'
tp532
F3
s(S'NP'
S'NNACP'
tp533
F3
s(S'CP'
S'CDADVPPP'
tp534
F3
s(g71
S'VAP'
tp535
F167
s(S'VP'
S'VVVVNP'
tp536
F3
s(S'MP'
p537
S'MNVVP'
tp538
F1
s(g19
S'DDDPP'
tp539
F14
s(S'NP'
p540
S'AANNCP'
tp541
F1
s(S'NP'
S'ADVADVADVANVP'
tp542
F1
s(S'AP'
S'AAVVP'
tp543
F1
s(S'MP'
S'MAVPP'
tp544
F1
s(S'DP'
S'DDDPPP'
tp545
F1
s(S'DP'
S'ADAP'
tp546
F1
s(g433
S'APADVVP'
tp547
F1
s(g321
S'VVADVADVCCP'
tp548
F1
s(S'AP'
p549
S'AAACP'
tp550
F4
s(S'NP'
S'NAAP'
tp551
F12
s(S'PP'
S'PPPVP'
tp552
F5
s(S'AP'
S'AADDP'
tp553
F5
s(S'VP'
S'VADVADVADVCP'
tp554
F1
s(g138
S'VAANP'
tp555
F5
s(S'NP'
S'NADVADVCP'
tp556
F1
s(S'DP'
S'AAADDP'
tp557
F1
s(g321
S'VVDP'
tp558
F63
s(S'PP'
p559
S'PAAAAP'
tp560
F1
s(S'MP'
S'MPNP'
tp561
F1
s(S'NP'
S'ANADVADVVVP'
tp562
F1
s(S'VP'
p563
S'AAVVNP'
tp564
F1
s(S'CP'
p565
S'CCAADP'
tp566
F1
s(S'DP'
S'DDADVNP'
tp567
F1
s(g380
S'PANP'
tp568
F27
s(S'PP'
S'PDDDP'
tp569
F1
s(S'MP'
S'MVVPPP'
tp570
F1
s(S'CP'
S'CADVADVADVDPP'
tp571
F1
s(S'NP'
S'AANMP'
tp572
F2
s(g549
S'AAVP'
tp573
F11
s(g256
S'AVVP'
tp574
F12
s(S'NP'
S'NDDP'
tp575
F15
s(S'AP'
S'ACCP'
tp576
F5
s(S'DP'
S'DDDADVPP'
tp577
F1
s(S'VP'
S'AVPPP'
tp578
F1
s(g140
S'NDP'
tp579
F112
s(S'PP'
p580
S'PADVADVADVNP'
tp581
F1
s(g493
S'AAANVP'
tp582
F4
s(S'MP'
S'MVAAP'
tp583
F1
s(g92
S'DDVP'
tp584
F35
s(S'NP'
S'AANVP'
tp585
F9
s(S'DP'
S'DADVADVAPP'
tp586
F1
s(S'DP'
S'ADDVP'
tp587
F1
s(g122
S'VNNNP'
tp588
F9
s(S'PP'
S'ADVPAP'
tp589
F5
s(S'PP'
S'PCP'
tp590
F10
s(S'VP'
S'VADVADP'
tp591
F1
s(S'CP'
S'ACADVDDP'
tp592
F2
s(S'PP'
S'PAADP'
tp593
F4
s(S'NP'
S'ADVNNVP'
tp594
F1
s(S'VP'
S'VPPPP'
tp595
F4
s(S'VP'
S'VCCP'
tp596
F13
s(S'MP'
p597
S'MPAP'
tp598
F1
s(S'AP'
p599
S'AADVAP'
tp600
F2
s(g499
S'NNNDP'
tp601
F2
s(S'AP'
S'ADVACP'
tp602
F6
s(S'NP'
S'AANVVVP'
tp603
F1
s(g162
S'ADVADVNMP'
tp604
F1
s(g253
S'DDADVVP'
tp605
F4
s(g327
S'ADPPP'
tp606
F3
s(S'NP'
S'NNAAVP'
tp607
F1
s(S'MP'
S'MVCP'
tp608
F3
s(S'DP'
S'ADVADVDDVP'
tp609
F1
s(g288
S'CCDDP'
tp610
F15
s(S'NP'
p611
S'NNADVVP'
tp612
F3
s(S'VP'
S'VVADVADVAP'
tp613
F1
s(S'NP'
S'NNNVVP'
tp614
F5
s(S'VP'
S'ADVADVADVVPP'
tp615
F2
s(S'DP'
S'ADVADVDMP'
tp616
F1
s(S'MP'
S'MVMP'
tp617
F1
s(S'MP'
S'MADVADVADVVPP'
tp618
F1
s(S'NP'
S'NAACCP'
tp619
F1
s(g383
S'NNVVP'
tp620
F22
s(S'NP'
p621
S'NNNNVP'
tp622
F3
s(S'VP'
S'VVCP'
tp623
F30
s(S'NP'
S'AANCP'
tp624
F10
s(g401
S'VDP'
tp625
F292
s(S'AP'
S'ADVAVVP'
tp626
F3
s(g318
S'VAAAPPP'
tp627
F1
s(g559
S'APPP'
tp628
F8
s(S'VP'
p629
S'ADVVPP'
tp630
F14
s(g321
S'VNNP'
tp631
F56
s(S'AP'
S'AADVDP'
tp632
F2
s(S'NP'
S'NADP'
tp633
F8
s(S'PP'
S'AAAPPP'
tp634
F1
s(g19
S'DDNP'
tp635
F49
s(S'NP'
S'NADVCP'
tp636
F3
s(S'DP'
p637
S'DDNNP'
tp638
F7
s(S'VP'
S'VVVVPPP'
tp639
F1
s(S'VP'
S'ADVAVPP'
tp640
F1
s(S'NP'
S'ADVANVP'
tp641
F1
s(g580
S'APCP'
tp642
F1
s(g214
S'MNVVVP'
tp643
F1
s(S'NP'
S'ADVADVNCP'
tp644
F2
s(g146
S'AADPP'
tp645
F5
s(S'NP'
S'ADVNAACP'
tp646
F1
s(g474
S'NNNNPP'
tp647
F1
s(S'NP'
S'NNAMP'
tp648
F1
s(S'DP'
S'DADVADVANP'
tp649
F1
s(S'VP'
S'ADVADVVVMP'
tp650
F1
s(S'DP'
S'DAAAANP'
tp651
F1
s(S'NP'
S'AAAANADVVP'
tp652
F1
s(S'NP'
S'NNNP'
tp653
F1
s(S'CP'
S'CDPPPPP'
tp654
F3
s(S'NP'
S'ANVVVP'
tp655
F5
s(S'MP'
S'MADVVDP'
tp656
F2
s(g92
S'ADVVP'
tp657
F5
s(S'CP'
S'CDDADVPPP'
tp658
F1
s(g241
S'ADVDNNP'
tp659
F1
s(S'CP'
S'ACDDP'
tp660
F2
s(S'NP'
S'ADVADVNNCP'
tp661
F1
s(S'AP'
S'AAPP'
tp662
F15
s(S'AP'
S'ADVADVACCP'
tp663
F2
s(S'VP'
S'VVCCP'
tp664
F2
s(S'PP'
S'PADVMP'
tp665
F1
s(S'DP'
p666
S'DADVADVNP'
tp667
F2
s(g393
S'ADVPANP'
tp668
F2
s(g499
S'NNPPP'
tp669
F4
s(S'CP'
S'CADVDAAPP'
tp670
F1
s(g599
S'ADVANNP'
tp671
F2
s(g131
S'NAPP'
tp672
F18
s(g380
S'APPVP'
tp673
F1
s(g540
S'NADVDP'
tp674
F3
s(S'VP'
S'VVVCP'
tp675
F3
s(S'CP'
S'CDAAAPPP'
tp676
F1
s(S'DP'
S'DADVADVADVVP'
tp677
F1
s(S'NP'
S'ANCCP'
tp678
F11
s(S'NP'
S'AANPP'
tp679
F7
s(S'VP'
S'VDDDP'
tp680
F1
s(S'NP'
S'NNMP'
tp681
F8
s(S'DP'
S'DDDVP'
tp682
F2
s(S'DP'
S'DDADVVVP'
tp683
F2
s(S'CP'
S'CADDPP'
tp684
F1
s(g156
S'PAAAP'
tp685
F8
s(g286
S'VVVDDP'
tp686
F2
s(S'CP'
S'CDDAPP'
tp687
F2
s(S'NP'
S'ANAP'
tp688
F8
s(S'MP'
S'MVAP'
tp689
F13
s(S'VP'
S'VADVADVDDP'
tp690
F1
s(g17
S'PVP'
tp691
F235
s(S'AP'
S'AADVADVADVCP'
tp692
F1
s(S'AP'
S'ADVADVAPP'
tp693
F3
s(S'PP'
S'PPADVVVP'
tp694
F1
s(S'PP'
S'PADVADVAP'
tp695
F1
s(S'VP'
S'AAAVVPP'
tp696
F1
s(g27
S'DVVVP'
tp697
F9
s(S'VP'
S'VCCCCP'
tp698
F1
s(S'NP'
S'ADVADVADVNVP'
tp699
F1
s(S'NP'
S'ADVADVANVP'
tp700
F2
s(S'PP'
S'PACP'
tp701
F1
s(S'PP'
S'PPDDP'
tp702
F6
s(S'VP'
S'AVCP'
tp703
F5
s(g611
S'NAVVP'
tp704
F1
s(g19
S'DPP'
tp705
F381
s(S'NP'
S'ADVNVP'
tp706
F11
s(g510
S'DDPP'
tp707
F79
s(g315
S'DDADVPPP'
tp708
F1
s(g88
S'DDAVP'
tp709
F2
s(g142
S'DANP'
tp710
F110
s(S'NP'
S'NADVPP'
tp711
F3
s(S'VP'
S'AVDDDDP'
tp712
F1
s(S'DP'
S'DDAAAANP'
tp713
F1
s(S'PP'
S'ADVPADVADVANP'
tp714
F1
s(g356
S'AAPPVP'
tp715
F1
s(S'NP'
S'AANADVVP'
tp716
F2
s(g102
S'NAAVP'
tp717
F3
s(S'DP'
S'ADDADVNP'
tp718
F1
s(S'DP'
p719
S'AADNP'
tp720
F6
s(S'VP'
S'ADVVVNNNP'
tp721
F1
s(S'VP'
S'VADVCP'
tp722
F1
s(S'PP'
S'APAAP'
tp723
F1
s(S'NP'
S'NNNNAP'
tp724
F1
s(S'VP'
S'AAVPPP'
tp725
F1
s(S'VP'
S'ADVVAADP'
tp726
F1
s(S'NP'
S'NADVCCP'
tp727
F2
s(g510
S'ADDPPP'
tp728
F1
s(g351
S'PPADVADVVP'
tp729
F1
s(S'DP'
S'DDADVADVVVP'
tp730
F1
s(S'AP'
S'ADVAADDP'
tp731
F1
s(S'CP'
S'AACDDDP'
tp732
F1
s(S'DP'
S'DCCP'
tp733
F3
s(S'PP'
S'ADVADVPPP'
tp734
F2
s(S'PP'
p735
S'AAPDP'
tp736
F6
s(S'DP'
S'ADVADPP'
tp737
F3
s(g380
S'PAPPP'
tp738
F1
s(S'VP'
S'VVADVADVNNP'
tp739
F1
s(g296
S'PDDP'
tp740
F48
s(S'MP'
S'MVDDP'
tp741
F2
s(S'DP'
S'ADVADVADVDADVAPP'
tp742
F1
s(g73
S'NNVP'
tp743
F104
s(S'AP'
S'ADVADVACP'
tp744
F2
s(g519
S'AVDP'
tp745
F30
s(S'NP'
S'NNP'
tp746
F3
s(g247
S'VVDDP'
tp747
F6
s(S'DP'
S'DAANP'
tp748
F20
s(S'AP'
S'ADDP'
tp749
F30
s(g388
S'ADVADVADVVNNP'
tp750
F1
s(S'PP'
S'PNNNNP'
tp751
F1
s(g113
S'ADVVVAP'
tp752
F2
s(S'PP'
S'ADVPPNP'
tp753
F6
s(S'NP'
S'ADVNCCCP'
tp754
F1
s(g479
S'ADVADVNNMP'
tp755
F1
s(S'MP'
S'MVVADVAP'
tp756
F2
s(S'CP'
S'ADVADVADVCDP'
tp757
F2
s(S'DP'
S'DPPP'
tp758
F73
s(S'PP'
S'ADVADVPPNP'
tp759
F1
s(g563
S'VVAAVVP'
tp760
F1
s(S'NP'
S'NADVADVANP'
tp761
F1
s(S'NP'
S'NNAAPP'
tp762
F1
s(S'NP'
S'NMMMP'
tp763
F1
s(g64
S'ANADVMP'
tp764
F1
s(S'PP'
p765
S'ADVPNP'
tp766
F12
s(g296
S'PPDP'
tp767
F38
s(g537
S'MAVDP'
tp768
F2
s(S'PP'
S'PAAAAAP'
tp769
F1
s(S'PP'
S'ADVADVADVPVP'
tp770
F1
s(S'AP'
S'ADVADVAACP'
tp771
F1
s(S'VP'
S'ADVVADVNP'
tp772
F1
s(g597
S'MVVAP'
tp773
F1
s(g58
S'DDCP'
tp774
F2
s(g90
S'PAANNP'
tp775
F3
s(S'AP'
S'AAAPP'
tp776
F1
s(S'AP'
S'ADVADVAADP'
tp777
F1
s(g50
S'MMAVP'
tp778
F1
s(g439
S'NAP'
tp779
F76
s(S'NP'
S'NNAAP'
tp780
F1
s(S'VP'
p781
S'VAAAP'
tp782
F2
s(S'NP'
S'ADVADVADVADVNMMP'
tp783
F1
s(S'VP'
S'ADVVVADVAP'
tp784
F1
s(S'VP'
S'ADVAVNP'
tp785
F2
s(g71
S'VVP'
tp786
F38
s(S'DP'
S'DADVNP'
tp787
F4
s(S'PP'
S'ADVADVPVP'
tp788
F1
s(S'NP'
S'AANNADVAP'
tp789
F1
s(S'AP'
S'ACCCP'
tp790
F1
s(g260
S'APNP'
tp791
F12
s(S'VP'
S'VVVNNP'
tp792
F1
s(g284
S'AADVADVPP'
tp793
F1
s(S'DP'
S'DDVVP'
tp794
F7
s(S'AP'
S'AAADDP'
tp795
F1
s(g629
S'VVVNP'
tp796
F18
s(S'VP'
S'ADVADVADVVVCCP'
tp797
F1
s(g621
S'NAMP'
tp798
F1
s(g435
S'ADVADVDDPP'
tp799
F1
s(S'MP'
S'MVNNP'
tp800
F3
s(g365
S'CDPP'
tp801
F303
s(S'NP'
S'AAAANNVP'
tp802
F1
s(S'AP'
S'ADDDP'
tp803
F3
s(S'PP'
S'PPADVMMP'
tp804
F1
s(S'DP'
S'ADVDVVP'
tp805
F1
s(S'MP'
S'MMMVP'
tp806
F1
s(S'CP'
S'ADVCDP'
tp807
F7
s(S'AP'
S'ADVAAP'
tp808
F1
s(g54
S'PADVADVDP'
tp809
F1
s(g247
S'VADVADVDP'
tp810
F4
s(g380
S'PPNNP'
tp811
F10
s(S'CP'
S'CAADDPP'
tp812
F2
s(S'AP'
S'AAAADVADVVVP'
tp813
F1
s(g637
S'ADVADVDPP'
tp814
F4
s(S'VP'
S'VAADP'
tp815
F4
s(S'PP'
S'PPPADVNP'
tp816
F1
s(g226
S'NADVAP'
tp817
F3
s(S'VP'
S'AVDDP'
tp818
F2
s(g92
S'DAP'
tp819
F52
s(g365
S'CADPP'
tp820
F30
s(S'VP'
S'ADVADVVVPP'
tp821
F1
s(g349
S'PPDDDP'
tp822
F2
s(S'VP'
S'AVPP'
tp823
F9
s(S'MP'
S'AMNP'
tp824
F1
s(S'VP'
S'VVADVDP'
tp825
F1
s(S'CP'
S'CDADVADVPP'
tp826
F1
s(g565
S'CDPPPP'
tp827
F6
s(S'NP'
S'ADVNMP'
tp828
F1
s(S'VP'
S'AAVDP'
tp829
F5
s(S'DP'
S'AADNNP'
tp830
F2
s(g735
S'AAAPPDDDP'
tp831
F1
s(S'PP'
S'APADVADVADVVP'
tp832
F1
s(S'NP'
S'NNDDP'
tp833
F2
s(g418
S'ADPPPP'
tp834
F1
s(S'DP'
S'DAPPP'
tp835
F1
s(S'AP'
S'AAADVDP'
tp836
F3
s(S'DP'
S'DMP'
tp837
F7
s(g115
S'NNNNADVVP'
tp838
F1
s(g765
S'PPPNP'
tp839
F16
s(g131
S'NPP'
tp840
F266
s(S'PP'
S'AAAPPNP'
tp841
F1
s(S'NP'
S'AAANPP'
tp842
F2
s(S'PP'
S'PADVADVNP'
tp843
F2
s(S'PP'
S'PPPPNP'
tp844
F2
s(S'AP'
S'AADP'
tp845
F39
s(g456
S'NNADVVVP'
tp846
F4
s(g282
S'VADVPP'
tp847
F3
s(S'CP'
S'CDDPPP'
tp848
F8
s(g88
S'ADVDANP'
tp849
F2
s(S'PP'
p850
S'PVVVVP'
tp851
F2
s(S'PP'
S'ADVPVP'
tp852
F2
s(g58
S'DDDDPP'
tp853
F2
s(S'DP'
S'ADMP'
tp854
F1
s(S'NP'
S'NNVVVP'
tp855
F3
s(g483
S'ADVVANP'
tp856
F4
s(S'NP'
S'ADVADVADVNNDP'
tp857
F2
s(g514
S'ADVPDP'
tp858
F5
s(S'DP'
S'DDDAVP'
tp859
F1
s(S'PP'
S'PPPVVP'
tp860
F1
s(g439
S'NCP'
tp861
F231
s(S'CP'
S'CADVDPPP'
tp862
F1
s(g229
S'ADVVVPP'
tp863
F6
s(S'NP'
p864
S'ADVANDP'
tp865
F1
s(S'AP'
S'AAAP'
tp866
F2
s(S'AP'
S'AAMP'
tp867
F1
s(g850
S'ADVPDDP'
tp868
F1
s(S'PP'
S'PPAPP'
tp869
F2
s(S'NP'
S'AANDP'
tp870
F1
s(S'MP'
S'MADVVPP'
tp871
F1
s(g249
S'NNCCP'
tp872
F5
s(S'MP'
S'MNVP'
tp873
F2
s(S'CP'
S'ADVADVCCDP'
tp874
F1
s(S'NP'
S'AANCCP'
tp875
F2
s(S'PP'
S'PCCP'
tp876
F1
s(g629
S'VAPP'
tp877
F16
s(S'MP'
S'MAVNP'
tp878
F1
s(g64
S'NCCCP'
tp879
F4
s(S'VP'
S'ADVVDP'
tp880
F10
s(S'DP'
S'DDADVADVADVPP'
tp881
F1
s(S'VP'
S'VADDP'
tp882
F1
s(g719
S'DADVPP'
tp883
F20
s(S'AP'
S'AMP'
tp884
F3
s(S'CP'
S'CCADP'
tp885
F1
s(S'DP'
S'ADVDAP'
tp886
F1
s(S'PP'
S'PPADDP'
tp887
F1
s(g864
S'NNNPPP'
tp888
F1
s(S'AP'
S'ADVAPP'
tp889
F12
s(S'AP'
S'ADVADVANP'
tp890
F1
s(S'CP'
S'AACDP'
tp891
F6
s(S'CP'
S'CCDDDP'
tp892
F3
s(g666
S'ADVDPPP'
tp893
F3
s(g19
S'DVP'
tp894
F247
s(S'VP'
S'AVNNP'
tp895
F1
s(S'NP'
S'ADVNPP'
tp896
F1
s(S'VP'
S'ADVADVADVVVNP'
tp897
F1
s(S'NP'
S'NNCCCP'
tp898
F2
s(g549
S'AVP'
tp899
F37
s(S'DP'
S'DDDDVP'
tp900
F1
s(g99
S'NADVVP'
tp901
F21
s(g510
S'DADDP'
tp902
F1
s(S'DP'
S'DDPPP'
tp903
F18
s(S'VP'
S'VVVAPP'
tp904
F1
s(g413
S'AVVPP'
tp905
F1
s(S'NP'
S'NNAP'
tp906
F10
s(g781
S'ADVADVVVDP'
tp907
F1
s(S'NP'
S'NNADVPPP'
tp908
F1
s(S'PP'
S'PPANP'
tp909
F2
s(g527
S'CDADVPP'
tp910
F12
s(g71
S'VNP'
tp911
F283
s(S'VP'
S'VANP'
tp912
F29
s(S'PP'
S'PADVPPP'
tp913
F1
s(g519
S'VADVAP'
tp914
F17
s(S'PP'
S'PPPAAANP'
tp915
F1
s(S'VP'
S'VVVAP'
tp916
F4
s(S'DP'
S'DADVADVADVADVPP'
tp917
F1
s(S'AP'
S'AAAADVVVP'
tp918
F1
s(S'NP'
S'NADVPPP'
tp919
F2
s.