ccollections
defaultdict
p1
(c__builtin__
float
p2
tRp3
(S'AP'
S'AADVPPP'
tp4
F1
s(S'NP'
S'AANDDP'
tp5
F1
s(S'DP'
p6
S'DDAP'
tp7
F7
s(S'VP'
p8
S'ADVVVNP'
tp9
F3
s(S'VP'
S'VVVVP'
tp10
F1
s(S'PP'
S'PAPP'
tp11
F1
s(S'PP'
p12
S'PADVNP'
tp13
F6
s(S'DP'
p14
S'DNP'
tp15
F156
s(S'PP'
S'AAPDDP'
tp16
F1
s(S'CP'
S'CDPPP'
tp17
F13
s(S'VP'
S'VADP'
tp18
F1
s(S'DP'
S'DAAP'
tp19
F6
s(S'AP'
S'AADP'
tp20
F21
s(S'VP'
S'VADVADVADVAP'
tp21
F1
s(S'VP'
S'VAVP'
tp22
F2
s(S'DP'
S'ADVADVDADVVP'
tp23
F1
s(S'VP'
S'ADVVNP'
tp24
F4
s(S'MP'
S'MVDP'
tp25
F11
s(S'NP'
S'AANNPP'
tp26
F1
s(S'PP'
p27
S'PPPP'
tp28
F6
s(S'DP'
S'DDDNP'
tp29
F2
s(S'VP'
S'VACP'
tp30
F2
s(S'DP'
S'DADVVP'
tp31
F6
s(S'AP'
S'AADVPP'
tp32
F1
s(S'DP'
S'ADVADVDDPPP'
tp33
F1
s(S'NP'
S'NADVVVP'
tp34
F4
s(S'CP'
p35
S'CADVDAPP'
tp36
F1
s(S'VP'
p37
S'VCP'
tp38
F42
s(S'VP'
S'ADVVAAP'
tp39
F1
s(S'VP'
S'ADVVCCP'
tp40
F2
s(S'PP'
p41
S'PAP'
tp42
F39
s(S'VP'
p43
S'VADVADVAP'
tp44
F1
s(S'PP'
p45
S'ADVPPVP'
tp46
F3
s(S'NP'
S'ANPPP'
tp47
F2
s(S'MP'
p48
S'AMVP'
tp49
F1
s(S'PP'
p50
S'PNP'
tp51
F148
s(S'AP'
S'AADVADVDP'
tp52
F1
s(S'MP'
S'MADVADVADVVPPP'
tp53
F1
s(S'DP'
p54
S'DDP'
tp55
F12
s(S'NP'
S'NNNPP'
tp56
F1
s(S'NP'
S'NNDP'
tp57
F2
s(S'MP'
S'MCDP'
tp58
F1
s(S'NP'
S'NNADVADVCP'
tp59
F1
s(S'AP'
S'ADVADVAVVP'
tp60
F1
s(S'NP'
p61
S'NMP'
tp62
F48
s(S'VP'
S'VMMP'
tp63
F1
s(S'PP'
p64
S'PDP'
tp65
F160
s(S'AP'
S'ANP'
tp66
F1
s(S'NP'
S'NADVADVADVVP'
tp67
F1
s(S'PP'
p68
S'PADVPP'
tp69
F1
s(S'NP'
p70
S'ANVVVVP'
tp71
F1
s(S'DP'
S'DPPPP'
tp72
F1
s(S'DP'
p73
S'DDANP'
tp74
F1
s(S'NP'
p75
S'NACP'
tp76
F6
s(S'AP'
S'ADVAVP'
tp77
F2
s(S'NP'
p78
S'NCCP'
tp79
F27
s(S'NP'
S'NADVADVADVDP'
tp80
F1
s(S'NP'
p81
S'NNCP'
tp82
F19
s(S'DP'
p83
S'ADVDDPP'
tp84
F1
s(S'VP'
S'AVNP'
tp85
F4
s(S'VP'
S'VVADP'
tp86
F2
s(g70
S'NADVADVCCP'
tp87
F1
s(S'VP'
S'VADVVP'
tp88
F4
s(S'NP'
S'ADVADVADVNMP'
tp89
F1
s(S'PP'
p90
S'ADVAPVP'
tp91
F1
s(S'VP'
S'ADVVAP'
tp92
F1
s(g45
S'ADVPPNNP'
tp93
F1
s(g50
S'APDP'
tp94
F13
s(S'VP'
p95
S'VVANP'
tp96
F2
s(S'NP'
p97
S'ADVADVNPPP'
tp98
F1
s(S'CP'
S'CCCADP'
tp99
F2
s(S'MP'
S'MADVVNP'
tp100
F3
s(S'DP'
p101
S'DNNP'
tp102
F25
s(S'CP'
S'CADVDDPP'
tp103
F1
s(S'NP'
S'NAMP'
tp104
F1
s(S'CP'
S'CDDPPPP'
tp105
F1
s(S'CP'
S'CCADVDP'
tp106
F1
s(S'NP'
S'NNNVP'
tp107
F4
s(S'VP'
S'VVANNP'
tp108
F1
s(S'PP'
S'PADVVP'
tp109
F2
s(S'PP'
S'PADVADVADVAP'
tp110
F1
s(S'PP'
p111
S'APAP'
tp112
F2
s(S'CP'
S'ADVADVCDP'
tp113
F2
s(S'NP'
p114
S'NADVMP'
tp115
F1
s(S'PP'
S'PPADP'
tp116
F1
s(S'VP'
S'VVAPP'
tp117
F1
s(S'DP'
S'DAAAPP'
tp118
F1
s(S'NP'
S'NAAACP'
tp119
F1
s(S'MP'
S'ADVADVMMVP'
tp120
F1
s(S'MP'
S'MVVVNP'
tp121
F1
s(S'PP'
S'PAANP'
tp122
F1
s(S'VP'
S'VADVADVCP'
tp123
F1
s(g61
S'ANVP'
tp124
F11
s(S'PP'
S'PPAVP'
tp125
F1
s(S'MP'
S'MVNP'
tp126
F15
s(S'MP'
S'MADVVAAP'
tp127
F1
s(S'PP'
S'ADVADVPPADVNP'
tp128
F1
s(g41
S'PAVP'
tp129
F9
s(S'VP'
S'ADVADVADVVVADVDP'
tp130
F1
s(S'VP'
S'VVVPP'
tp131
F3
s(S'MP'
S'MADVVPP'
tp132
F1
s(S'AP'
S'ADVADP'
tp133
F1
s(S'NP'
p134
S'ADVNNVVP'
tp135
F1
s(S'PP'
S'APDDP'
tp136
F1
s(S'MP'
S'MNCP'
tp137
F1
s(S'VP'
p138
S'VVNP'
tp139
F18
s(S'PP'
S'PPVP'
tp140
F6
s(S'VP'
S'VADVDP'
tp141
F3
s(S'MP'
p142
S'MVVVPP'
tp143
F1
s(S'VP'
p144
S'VAAP'
tp145
F9
s(g97
S'ANDP'
tp146
F5
s(g75
S'NVVP'
tp147
F39
s(S'AP'
S'AAP'
tp148
F1
s(S'VP'
S'VMP'
tp149
F2
s(S'VP'
S'VVNNP'
tp150
F3
s(S'CP'
S'CDAPP'
tp151
F5
s(S'DP'
S'ADNP'
tp152
F5
s(S'DP'
S'DDADVAP'
tp153
F1
s(S'PP'
S'PADP'
tp154
F5
s(S'DP'
S'ADVADVDVP'
tp155
F1
s(S'DP'
S'DADVAP'
tp156
F1
s(S'DP'
S'ADVDAANP'
tp157
F1
s(S'DP'
S'DAPP'
tp158
F15
s(S'VP'
S'AVVP'
tp159
F2
s(S'DP'
p160
S'DAAANP'
tp161
F2
s(g83
S'ADVDNP'
tp162
F1
s(S'VP'
p163
S'VVPP'
tp164
F16
s(S'MP'
S'MVPP'
tp165
F13
s(S'MP'
S'ADVMVVP'
tp166
F1
s(S'NP'
S'NNPP'
tp167
F10
s(S'MP'
S'MVVDP'
tp168
F2
s(S'DP'
p169
S'DADVPPP'
tp170
F2
s(S'PP'
S'PPVVP'
tp171
F1
s(S'DP'
p172
S'ADVDDVP'
tp173
F1
s(S'VP'
S'ADVVCP'
tp174
F3
s(g111
S'PVVVP'
tp175
F2
s(S'PP'
S'PMP'
tp176
F4
s(S'CP'
S'CCDP'
tp177
F50
s(S'VP'
S'VADVANP'
tp178
F1
s(S'NP'
p179
S'NVVVP'
tp180
F4
s(S'CP'
p181
S'CDDDPP'
tp182
F4
s(S'CP'
S'CDAAPP'
tp183
F2
s(S'VP'
S'VVVDP'
tp184
F1
s(g90
S'PDDDDP'
tp185
F1
s(S'PP'
S'PNNNP'
tp186
F2
s(S'AP'
S'AACCP'
tp187
F1
s(S'PP'
S'AAPNP'
tp188
F1
s(S'VP'
S'ADVVVDP'
tp189
F2
s(g64
S'PPP'
tp190
F31
s(S'NP'
S'NAVP'
tp191
F8
s(S'PP'
S'APADVPPP'
tp192
F1
s(S'DP'
S'ADVDVP'
tp193
F1
s(S'PP'
S'PPADVADVNP'
tp194
F1
s(S'NP'
p195
S'NCCCP'
tp196
F1
s(S'DP'
S'DADVADVPPP'
tp197
F1
s(S'AP'
S'AADVVP'
tp198
F1
s(S'VP'
S'VPP'
tp199
F85
s(S'CP'
S'ADVCCDP'
tp200
F1
s(S'CP'
p201
S'CDAAAAPP'
tp202
F1
s(S'NP'
S'NNNCP'
tp203
F1
s(S'PP'
S'PADVDP'
tp204
F1
s(S'CP'
S'CDADVAPP'
tp205
F1
s(S'CP'
S'CDDPP'
tp206
F14
s(S'DP'
S'DAAPP'
tp207
F2
s(S'PP'
S'PVVP'
tp208
F7
s(S'CP'
S'CADPPP'
tp209
F1
s(S'AP'
S'AACP'
tp210
F2
s(S'PP'
p211
S'PMMP'
tp212
F1
s(S'VP'
S'VPPP'
tp213
F8
s(S'VP'
S'VVPPP'
tp214
F1
s(S'VP'
S'ADVADVADVVPPP'
tp215
F1
s(S'NP'
S'NANP'
tp216
F1
s(g169
S'DVVP'
tp217
F10
s(S'NP'
S'ANMP'
tp218
F2
s(S'PP'
S'PPAP'
tp219
F2
s(S'DP'
p220
S'ADVVP'
tp221
F1
s(S'NP'
p222
S'ADVADVNVP'
tp223
F1
s(S'VP'
S'VVVP'
tp224
F2
s(S'DP'
S'DDPPPP'
tp225
F1
s(g75
S'ANCP'
tp226
F14
s(S'DP'
S'DCP'
tp227
F11
s(S'NP'
p228
S'ANNCP'
tp229
F1
s(S'DP'
S'DDDP'
tp230
F2
s(S'DP'
S'DDADVPP'
tp231
F1
s(S'NP'
S'ANVVP'
tp232
F7
s(S'NP'
S'NVVVVP'
tp233
F3
s(S'NP'
S'NPPP'
tp234
F7
s(S'DP'
p235
S'AADVVP'
tp236
F1
s(g6
S'DAVP'
tp237
F9
s(S'NP'
S'NNNMP'
tp238
F1
s(S'AP'
S'ACP'
tp239
F19
s(S'PP'
p240
S'PPNP'
tp241
F26
s(S'PP'
S'AAAAPDP'
tp242
F1
s(g54
S'ADVDAPP'
tp243
F1
s(S'DP'
S'AADVP'
tp244
F1
s(S'VP'
S'VVVVNNP'
tp245
F1
s(S'CP'
S'CDDADVPP'
tp246
F1
s(S'AP'
p247
S'ADP'
tp248
F118
s(S'CP'
S'CADVDPP'
tp249
F3
s(S'PP'
S'APVVP'
tp250
F1
s(g211
S'APPAP'
tp251
F1
s(S'MP'
S'MMNNP'
tp252
F1
s(S'VP'
p253
S'AVDP'
tp254
F14
s(S'VP'
S'VVAP'
tp255
F5
s(S'NP'
S'NNAPP'
tp256
F2
s(S'PP'
S'PADVADVDP'
tp257
F1
s(g61
S'NPP'
tp258
F94
s(S'NP'
p259
S'NVP'
tp260
F212
s(S'PP'
S'PAAVP'
tp261
F1
s(S'NP'
S'NAAPP'
tp262
F1
s(S'VP'
S'VDDP'
tp263
F20
s(S'AP'
S'ADVADVADVADP'
tp264
F1
s(S'NP'
S'AANNVP'
tp265
F1
s(S'NP'
S'AANVVP'
tp266
F1
s(S'DP'
p267
S'DADVAPP'
tp268
F1
s(g259
S'ANCCCP'
tp269
F1
s(g179
S'ANPP'
tp270
F19
s(S'PP'
p271
S'PPPPP'
tp272
F1
s(S'PP'
S'PPPNP'
tp273
F2
s(S'DP'
S'ADDP'
tp274
F1
s(S'CP'
S'CAADPP'
tp275
F1
s(S'PP'
S'PNNP'
tp276
F18
s(S'MP'
S'MMNP'
tp277
F1
s(S'PP'
S'PADVDDP'
tp278
F2
s(g211
S'PCCP'
tp279
F1
s(g240
S'PPAADP'
tp280
F1
s(g114
S'ADVANNP'
tp281
F1
s(g181
S'ACDP'
tp282
F7
s(g27
S'PAAP'
tp283
F5
s(S'AP'
S'ADVANP'
tp284
F1
s(S'CP'
S'CDADVPPP'
tp285
F2
s(S'VP'
p286
S'VAP'
tp287
F57
s(S'VP'
S'VVVVNP'
tp288
F1
s(S'MP'
S'MNVVP'
tp289
F2
s(g235
S'DDDPP'
tp290
F4
s(S'MP'
S'MAVPP'
tp291
F1
s(S'NP'
S'NAAP'
tp292
F4
s(g271
S'PPPVP'
tp293
F1
s(S'AP'
S'AADDP'
tp294
F3
s(g172
S'DAAAAPP'
tp295
F1
s(S'DP'
S'ADVADVADVDVP'
tp296
F1
s(S'NP'
S'NADVADVADVVVP'
tp297
F1
s(S'VP'
S'ADVADVADVVAP'
tp298
F1
s(S'PP'
p299
S'PANP'
tp300
F13
s(S'DP'
S'AADNP'
tp301
F1
s(S'AP'
S'AAVP'
tp302
F3
s(S'AP'
S'AVVP'
tp303
F7
s(S'NP'
S'NDDP'
tp304
F6
s(S'AP'
S'ACCP'
tp305
F9
s(g138
S'VVVVAP'
tp306
F2
s(g81
S'NDP'
tp307
F38
s(g12
S'PADVADVADVNP'
tp308
F1
s(S'NP'
S'NNNNVVP'
tp309
F1
s(S'MP'
S'MVAAP'
tp310
F2
s(S'DP'
p311
S'DDVP'
tp312
F8
s(S'NP'
S'AANVP'
tp313
F2
s(S'VP'
S'VNNNP'
tp314
F3
s(S'PP'
S'ADVPAP'
tp315
F1
s(S'PP'
S'PCP'
tp316
F2
s(g75
S'NNPPP'
tp317
F1
s(S'PP'
p318
S'PAADP'
tp319
F1
s(g95
S'VCCP'
tp320
F6
s(S'MP'
S'MPAP'
tp321
F2
s(S'AP'
S'ADVACP'
tp322
F5
s(S'NP'
S'ADVADVNMP'
tp323
F1
s(S'DP'
S'ADPPP'
tp324
F1
s(S'MP'
S'MVCP'
tp325
F2
s(g201
S'CCDDP'
tp326
F2
s(S'NP'
S'NNADVVP'
tp327
F1
s(S'NP'
S'NNVVP'
tp328
F6
s(g43
S'VVCP'
tp329
F6
s(S'NP'
S'AANCP'
tp330
F2
s(S'VP'
S'VADVNP'
tp331
F1
s(S'AP'
S'ADVAVVP'
tp332
F1
s(S'AP'
S'AAAPP'
tp333
F2
s(S'VP'
S'ADVVPP'
tp334
F1
s(g8
S'VNNP'
tp335
F18
s(S'AP'
S'AAAMP'
tp336
F1
s(S'NP'
S'NADP'
tp337
F1
s(g220
S'DDNP'
tp338
F15
s(S'NP'
S'NADVCP'
tp339
F1
s(S'DP'
S'DDNNP'
tp340
F3
s(S'NP'
S'ADVNCP'
tp341
F2
s(g195
S'ADVANVP'
tp342
F1
s(S'CP'
S'ADVADVCCDDP'
tp343
F1
s(S'DP'
S'AADPP'
tp344
F1
s(S'VP'
S'VVVAAP'
tp345
F1
s(S'CP'
S'AAACDDP'
tp346
F1
s(S'MP'
S'MVVNP'
tp347
F1
s(S'AP'
S'AAPP'
tp348
F5
s(g54
S'DADVVVP'
tp349
F1
s(g101
S'DADVADVNP'
tp350
F1
s(S'VP'
S'VADVADP'
tp351
F1
s(S'AP'
S'ADVANNP'
tp352
F1
s(g259
S'NAPP'
tp353
F6
s(S'NP'
S'NADVDP'
tp354
F1
s(S'NP'
S'ANCCP'
tp355
F5
s(g78
S'AANPP'
tp356
F3
s(g95
S'VDDDP'
tp357
F4
s(S'NP'
S'NNMP'
tp358
F6
s(S'DP'
S'DDDVP'
tp359
F3
s(S'PP'
S'PAAAP'
tp360
F3
s(S'CP'
S'CADVADVDDPPP'
tp361
F1
s(S'VP'
S'VVVPPP'
tp362
F1
s(S'NP'
S'ANAP'
tp363
F3
s(S'AP'
S'APP'
tp364
F27
s(g142
S'MVAP'
tp365
F9
s(g27
S'PVP'
tp366
F77
s(S'PP'
S'PPADVVVP'
tp367
F1
s(S'VP'
p368
S'VVDP'
tp369
F24
s(S'DP'
S'DVVVP'
tp370
F3
s(S'VP'
S'AVCP'
tp371
F3
s(g311
S'DPP'
tp372
F231
s(S'NP'
S'ADVNVP'
tp373
F5
s(S'DP'
S'DDPP'
tp374
F23
s(S'DP'
S'DDAVP'
tp375
F1
s(S'DP'
p376
S'DANP'
tp377
F37
s(S'NP'
S'NADVPP'
tp378
F1
s(S'PP'
S'PDDDP'
tp379
F1
s(g8
S'VADVCP'
tp380
F4
s(g228
S'NADVCCP'
tp381
F1
s(S'NP'
S'NNNVVP'
tp382
F1
s(S'DP'
S'DCCP'
tp383
F1
s(S'PP'
S'AAPDP'
tp384
F1
s(S'MP'
S'MADVVDP'
tp385
F2
s(g64
S'PDDP'
tp386
F13
s(g97
S'NNVP'
tp387
F35
s(S'NP'
S'NADVADVVVP'
tp388
F2
s(S'VP'
S'VVDDP'
tp389
F2
s(g73
S'DAANP'
tp390
F8
s(S'AP'
S'ADDP'
tp391
F3
s(g54
S'DPPP'
tp392
F24
s(S'DP'
S'AADPPP'
tp393
F1
s(S'NP'
S'NNNADVADVMMP'
tp394
F1
s(g160
S'DDADVADVNP'
tp395
F1
s(g318
S'ADVPNP'
tp396
F1
s(S'PP'
S'PPDP'
tp397
F11
s(g222
S'AAANMP'
tp398
F1
s(S'PP'
S'PAANNP'
tp399
F2
s(S'AP'
S'ANNP'
tp400
F1
s(g48
S'MVVVPPP'
tp401
F1
s(S'NP'
S'NAP'
tp402
F22
s(S'NP'
S'NNAAP'
tp403
F1
s(g253
S'VAAAP'
tp404
F2
s(S'VP'
S'VVP'
tp405
F6
s(S'DP'
S'DADVNP'
tp406
F1
s(g247
S'AAADP'
tp407
F3
s(g299
S'APNP'
tp408
F8
s(g163
S'VVVNP'
tp409
F5
s(S'NP'
S'NNADVPP'
tp410
F1
s(S'MP'
S'MVANP'
tp411
F1
s(S'CP'
S'CDPP'
tp412
F178
s(S'CP'
S'ADVADVCCCDP'
tp413
F1
s(S'AP'
S'ADDDP'
tp414
F2
s(g35
S'ADVCDP'
tp415
F5
s(S'VP'
S'ADVADVVNP'
tp416
F1
s(g144
S'VDP'
tp417
F161
s(S'NP'
S'NADVAP'
tp418
F1
s(S'VP'
S'AVDDP'
tp419
F2
s(g376
S'DAP'
tp420
F34
s(S'CP'
S'CADPP'
tp421
F9
s(S'VP'
S'ADVADVVVPP'
tp422
F2
s(g37
S'AVPP'
tp423
F5
s(S'CP'
S'CAADPPP'
tp424
F1
s(S'VP'
S'AAVDP'
tp425
F1
s(g220
S'DAPPP'
tp426
F1
s(S'DP'
S'DMP'
tp427
F4
s(S'DP'
S'ADVDPP'
tp428
F4
s(S'NP'
S'AAANPP'
tp429
F1
s(S'PP'
S'PADVADVNP'
tp430
F1
s(g14
S'ADPP'
tp431
F13
s(S'NP'
S'NNADVVVP'
tp432
F1
s(S'DP'
S'ADVDANP'
tp433
F1
s(g68
S'ADVPVP'
tp434
F3
s(g267
S'DDDDPP'
tp435
F1
s(S'VP'
S'ADVVANP'
tp436
F1
s(S'PP'
S'ADVPDP'
tp437
F2
s(g134
S'ADVNNPP'
tp438
F1
s(S'NP'
S'NCP'
tp439
F107
s(S'CP'
S'CADVDPPP'
tp440
F1
s(S'VP'
S'ADVVVPP'
tp441
F2
s(S'AP'
S'AAAP'
tp442
F1
s(S'NP'
S'AANDP'
tp443
F2
s(S'DP'
S'DADVNNP'
tp444
F1
s(S'NP'
S'NNCCP'
tp445
F3
s(S'MP'
S'MNVP'
tp446
F1
s(S'NP'
S'AANAP'
tp447
F1
s(S'VP'
S'VAPP'
tp448
F4
s(S'NP'
S'ADVADVNADVADVCCCP'
tp449
F1
s(S'VP'
S'ADVVDP'
tp450
F8
s(S'DP'
S'DADVPP'
tp451
F2
s(S'CP'
S'CCADP'
tp452
F1
s(S'DP'
S'ADVDAP'
tp453
F2
s(S'AP'
S'ADVAPP'
tp454
F4
s(S'DP'
S'ADVDPPP'
tp455
F1
s(g311
S'DVP'
tp456
F123
s(S'AP'
S'AVP'
tp457
F14
s(g75
S'NADVVP'
tp458
F3
s(S'CP'
S'CDAAAPP'
tp459
F1
s(S'DP'
S'DDPPP'
tp460
F1
s(S'AP'
S'ADVADVADVAPP'
tp461
F1
s(S'NP'
S'ADVNMP'
tp462
F2
s(S'NP'
S'NNAP'
tp463
F5
s(S'PP'
S'PPANP'
tp464
F1
s(S'CP'
S'CDADVPP'
tp465
F1
s(g368
S'VNP'
tp466
F108
s(g286
S'VANP'
tp467
F10
s(S'VP'
S'VADVAP'
tp468
F9
s.