ccollections
defaultdict
p1
(c__builtin__
float
p2
tRp3
(S'VP'
p4
S'ADVAVDDP'
tp5
F1
s(S'VP'
S'VVVVPPP'
tp6
F1
s(S'VP'
S'VVAAAP'
tp7
F2
s(S'NP'
S'AANDDP'
tp8
F5
s(S'DP'
p9
S'DDDPPPPP'
tp10
F1
s(S'CP'
S'CAAADPP'
tp11
F2
s(S'PP'
p12
S'PAAANP'
tp13
F1
s(S'DP'
S'ADDPP'
tp14
F1
s(S'DP'
S'DDAP'
tp15
F10
s(S'VP'
S'ADVVVNP'
tp16
F46
s(S'VP'
S'ADVADVVADVNP'
tp17
F1
s(S'AP'
S'AADDDP'
tp18
F2
s(S'CP'
S'CCDDDDP'
tp19
F4
s(S'VP'
S'VVVVP'
tp20
F2
s(S'DP'
p21
S'DAANNP'
tp22
F2
s(S'PP'
S'PAAANNP'
tp23
F1
s(S'AP'
S'AVVVP'
tp24
F1
s(S'PP'
S'ADVADVPAP'
tp25
F1
s(S'PP'
S'PAPP'
tp26
F12
s(S'VP'
S'AVADVAP'
tp27
F1
s(S'PP'
S'PADVNP'
tp28
F49
s(S'DP'
S'DNP'
tp29
F990
s(S'NP'
S'ANCCCP'
tp30
F1
s(S'NP'
S'ADVNDP'
tp31
F3
s(S'PP'
S'AAPDDP'
tp32
F1
s(S'NP'
S'NNADVMP'
tp33
F1
s(S'NP'
S'NNNMMP'
tp34
F1
s(S'CP'
S'CDPPP'
tp35
F105
s(S'VP'
S'VVVVADVANP'
tp36
F2
s(S'VP'
S'AVADVDDP'
tp37
F1
s(S'VP'
S'VADP'
tp38
F22
s(S'DP'
S'DNNNNP'
tp39
F6
s(S'DP'
S'DDDAADP'
tp40
F1
s(S'DP'
S'DAAP'
tp41
F18
s(S'VP'
p42
S'AAVPPP'
tp43
F1
s(S'PP'
S'PPPPPP'
tp44
F2
s(S'DP'
S'DDDADVADVPP'
tp45
F1
s(S'CP'
p46
S'CAAAADDPP'
tp47
F1
s(S'AP'
S'AVVVVP'
tp48
F1
s(S'VP'
p49
S'VAVP'
tp50
F6
s(S'PP'
S'APPDP'
tp51
F3
s(S'VP'
p52
S'ADVADVADVVVPP'
tp53
F1
s(S'DP'
S'DAADP'
tp54
F1
s(S'DP'
p55
S'ADNNP'
tp56
F4
s(S'MP'
S'MDVP'
tp57
F2
s(S'NP'
S'AANAAP'
tp58
F1
s(S'VP'
S'ADVVNP'
tp59
F55
s(S'MP'
p60
S'MVDP'
tp61
F80
s(S'PP'
S'PADVANP'
tp62
F3
s(S'PP'
p63
S'PPPP'
tp64
F47
s(S'VP'
p65
S'VVVVDDP'
tp66
F2
s(S'AP'
S'ADVAPPP'
tp67
F2
s(S'DP'
p68
S'DDDNP'
tp69
F13
s(S'DP'
S'DDMP'
tp70
F1
s(S'AP'
S'AAADVADVADVDDP'
tp71
F1
s(S'VP'
S'VACP'
tp72
F4
s(S'AP'
S'AAAVP'
tp73
F2
s(S'MP'
S'ADVMVVP'
tp74
F1
s(S'DP'
S'DADVVP'
tp75
F25
s(S'PP'
S'PMP'
tp76
F16
s(S'VP'
S'VVADDP'
tp77
F1
s(S'CP'
S'ADVADVCCADP'
tp78
F1
s(S'PP'
S'PADVNNP'
tp79
F2
s(S'AP'
S'AADVPP'
tp80
F3
s(S'DP'
S'ADVADVADVADVADVDVP'
tp81
F1
s(S'CP'
S'CDDAPPP'
tp82
F1
s(S'DP'
S'ADVADVDDAAPP'
tp83
F1
s(S'NP'
p84
S'NDDDP'
tp85
F1
s(S'NP'
S'NADVVVP'
tp86
F65
s(S'CP'
p87
S'CADVADVDDPP'
tp88
F1
s(S'PP'
S'ADVPNNP'
tp89
F1
s(S'VP'
p90
S'VCP'
tp91
F286
s(S'MP'
S'MVVANP'
tp92
F2
s(S'NP'
p93
S'NMMP'
tp94
F15
s(S'NP'
S'NANP'
tp95
F5
s(S'VP'
S'ADVVAAP'
tp96
F2
s(S'DP'
S'DDDNNP'
tp97
F2
s(S'VP'
S'ADVVCCP'
tp98
F3
s(S'PP'
p99
S'PAP'
tp100
F257
s(S'PP'
S'PPANNP'
tp101
F2
s(S'MP'
S'MMVVP'
tp102
F6
s(S'VP'
S'VADVADVAP'
tp103
F15
s(S'AP'
S'ADVAADVVP'
tp104
F2
s(S'PP'
p105
S'ADVPPVP'
tp106
F5
s(S'NP'
S'NNNAP'
tp107
F1
s(S'NP'
S'ANPPP'
tp108
F5
s(S'NP'
p109
S'NNNACP'
tp110
F1
s(S'NP'
p111
S'NAAAVP'
tp112
F2
s(S'PP'
S'PPADVDP'
tp113
F3
s(S'PP'
S'ADVADVADVPPVP'
tp114
F1
s(S'VP'
S'VADVANP'
tp115
F2
s(S'PP'
p116
S'PNP'
tp117
F882
s(S'NP'
S'ADVNADVADVVVVP'
tp118
F1
s(g9
S'ADDP'
tp119
F3
s(S'DP'
S'DDP'
tp120
F82
s(S'PP'
S'ADVPPMP'
tp121
F1
s(S'VP'
S'ADVVDDP'
tp122
F6
s(S'NP'
S'NNNPP'
tp123
F9
s(S'NP'
p124
S'NNDP'
tp125
F40
s(S'VP'
p126
S'ADVVVDDP'
tp127
F1
s(S'MP'
S'MCDP'
tp128
F8
s(S'NP'
S'ANADVAP'
tp129
F1
s(S'NP'
S'ADVADVANAP'
tp130
F1
s(S'DP'
S'DDAANP'
tp131
F5
s(S'NP'
S'NNADVADVCP'
tp132
F1
s(S'DP'
p133
S'DADVDDP'
tp134
F1
s(S'DP'
S'DADVADVADVPP'
tp135
F1
s(S'VP'
S'ADVADVADVVVAP'
tp136
F3
s(S'VP'
S'VVADVVP'
tp137
F1
s(S'VP'
S'ADVADVVVCP'
tp138
F1
s(S'NP'
p139
S'NMP'
tp140
F353
s(S'NP'
p141
S'ADVNCCP'
tp142
F4
s(S'NP'
p143
S'ADVNAPP'
tp144
F1
s(S'AP'
S'ADVAMMP'
tp145
F1
s(S'DP'
S'DDDDPP'
tp146
F8
s(S'NP'
S'NAAAPP'
tp147
F1
s(S'VP'
p148
S'AAVNP'
tp149
F4
s(S'NP'
S'ADVADVNMMP'
tp150
F1
s(g99
S'PDP'
tp151
F815
s(S'DP'
S'DDPPPPP'
tp152
F3
s(S'CP'
S'CDADVADVPP'
tp153
F4
s(S'PP'
p154
S'PPAADP'
tp155
F1
s(S'NP'
S'ADVNVVP'
tp156
F5
s(S'VP'
S'VNNNNP'
tp157
F2
s(S'DP'
S'ADVADADVNNP'
tp158
F1
s(S'DP'
S'ADVDDAPP'
tp159
F2
s(S'CP'
S'CDADVADVPPP'
tp160
F3
s(S'VP'
p161
S'AVAAP'
tp162
F1
s(S'VP'
S'VVVADVADVNNP'
tp163
F1
s(S'NP'
p164
S'NNADVADVADVVVP'
tp165
F1
s(S'AP'
S'ANP'
tp166
F3
s(S'NP'
S'NADVADVADVVP'
tp167
F5
s(S'PP'
p168
S'PADVPP'
tp169
F4
s(g84
S'NNADVCP'
tp170
F3
s(S'VP'
S'VVADVNP'
tp171
F1
s(S'VP'
S'VVVVVAAP'
tp172
F1
s(S'MP'
S'MMMVVP'
tp173
F2
s(S'VP'
S'VADVAAP'
tp174
F2
s(S'DP'
S'DPPPP'
tp175
F15
s(S'DP'
S'DDANP'
tp176
F10
s(S'PP'
S'PADVADP'
tp177
F4
s(S'NP'
S'NACP'
tp178
F17
s(S'AP'
S'ADVAVP'
tp179
F6
s(S'NP'
S'NCCP'
tp180
F113
s(S'DP'
S'DADVADVVVP'
tp181
F2
s(S'AP'
S'AAAADP'
tp182
F3
s(g68
S'AAADDNP'
tp183
F1
s(g109
S'NNCP'
tp184
F129
s(S'DP'
p185
S'ADVDDPP'
tp186
F7
s(S'NP'
S'NADVADVVP'
tp187
F14
s(S'NP'
S'NNPPPP'
tp188
F2
s(S'DP'
p189
S'DDDDP'
tp190
F4
s(S'DP'
S'DDADVADVPPP'
tp191
F1
s(S'PP'
S'ADVADVPVP'
tp192
F4
s(g90
S'AVNP'
tp193
F20
s(S'VP'
S'VVADP'
tp194
F4
s(g87
S'CCADVDP'
tp195
F3
s(g164
S'NADVADVPP'
tp196
F2
s(S'MP'
S'MVAAANP'
tp197
F1
s(S'VP'
S'VVNNNP'
tp198
F2
s(S'VP'
S'VVVADDP'
tp199
F1
s(S'VP'
S'VVVANP'
tp200
F2
s(S'PP'
S'ADVAPDP'
tp201
F4
s(S'VP'
S'AVDDDP'
tp202
F1
s(S'VP'
S'AAVDDP'
tp203
F2
s(S'VP'
S'VADVVP'
tp204
F49
s(S'DP'
S'AAADPP'
tp205
F2
s(S'MP'
S'MVVVDDP'
tp206
F2
s(S'NP'
S'NNNACCP'
tp207
F1
s(S'MP'
S'MVPPP'
tp208
F4
s(S'NP'
p209
S'ANADVVP'
tp210
F2
s(S'PP'
S'ADVAPVP'
tp211
F1
s(S'VP'
S'ADVADVVNNNP'
tp212
F1
s(S'MP'
S'AMMVP'
tp213
F1
s(S'NP'
S'NCCCCP'
tp214
F1
s(S'CP'
S'CCCDP'
tp215
F10
s(S'VP'
p216
S'ADVVAP'
tp217
F35
s(S'PP'
S'ADVPPNNP'
tp218
F1
s(S'DP'
p219
S'ADVDNNP'
tp220
F3
s(S'PP'
S'PADVVVP'
tp221
F4
s(S'PP'
S'APDP'
tp222
F60
s(S'PP'
S'AAAPDDDP'
tp223
F1
s(S'NP'
S'NNNNNPP'
tp224
F1
s(S'CP'
S'ACDDP'
tp225
F4
s(S'MP'
p226
S'MPPNP'
tp227
F1
s(S'VP'
p228
S'ADVVNNP'
tp229
F4
s(S'AP'
S'AADVCP'
tp230
F3
s(S'VP'
p231
S'VVADVADVVP'
tp232
F1
s(S'DP'
S'DDANNP'
tp233
F1
s(S'NP'
S'ADVANAP'
tp234
F1
s(S'VP'
S'VVANP'
tp235
F8
s(S'VP'
S'VVVVDP'
tp236
F15
s(S'VP'
S'ADVVVP'
tp237
F10
s(S'PP'
S'ADVADVADVPDP'
tp238
F1
s(S'CP'
S'ADVADVADVADVCCDDP'
tp239
F1
s(S'MP'
S'MADVADVADVVVDP'
tp240
F1
s(S'NP'
S'ADVADVNNPP'
tp241
F2
s(S'CP'
S'CCCADP'
tp242
F1
s(S'MP'
S'MADVVNP'
tp243
F15
s(S'PP'
p244
S'PAAP'
tp245
F43
s(S'NP'
p246
S'ADVANCP'
tp247
F7
s(S'DP'
S'DNNP'
tp248
F208
s(S'CP'
p249
S'CADVDDPP'
tp250
F3
s(S'DP'
S'DPPPPP'
tp251
F7
s(S'CP'
S'CDDPPPP'
tp252
F4
s(S'AP'
S'AAADVVP'
tp253
F1
s(S'VP'
p254
S'ADVADVADVVVDP'
tp255
F5
s(S'VP'
S'VVACP'
tp256
F2
s(S'VP'
S'VADVADVADVADVPP'
tp257
F1
s(S'DP'
S'ADDNP'
tp258
F1
s(S'NP'
p259
S'NNNVP'
tp260
F27
s(S'PP'
p261
S'PPAAPP'
tp262
F1
s(S'DP'
S'ADVADVVP'
tp263
F1
s(S'PP'
p264
S'AAPPDP'
tp265
F1
s(S'NP'
p266
S'NNADVADVADVADVVVP'
tp267
F1
s(g12
S'PADVVP'
tp268
F15
s(S'DP'
S'DADVADVADVPPP'
tp269
F1
s(S'PP'
S'APAP'
tp270
F5
s(S'VP'
S'ADVADVVDDP'
tp271
F1
s(S'AP'
p272
S'APP'
tp273
F170
s(S'DP'
S'ADVDDCP'
tp274
F1
s(S'PP'
p275
S'APPPPPP'
tp276
F1
s(S'NP'
S'AANMP'
tp277
F3
s(S'NP'
S'NADVMP'
tp278
F3
s(S'VP'
S'AAAVNNP'
tp279
F1
s(S'AP'
S'AAP'
tp280
F32
s(S'VP'
S'VADVADVVP'
tp281
F7
s(S'VP'
p282
S'VVAPP'
tp283
F4
s(S'NP'
p284
S'ADVNNNCP'
tp285
F1
s(S'AP'
S'AAADVDDP'
tp286
F1
s(S'NP'
p287
S'ADVANPP'
tp288
F7
s(S'VP'
S'VVVVPP'
tp289
F5
s(S'VP'
p290
S'VADVADVNP'
tp291
F7
s(S'CP'
S'CDDDDPP'
tp292
F2
s(S'MP'
S'MVVVNP'
tp293
F9
s(S'PP'
S'PAANP'
tp294
F13
s(S'NP'
S'ADVADVNCCP'
tp295
F1
s(S'NP'
p296
S'ANVP'
tp297
F68
s(S'VP'
S'VAACP'
tp298
F2
s(S'VP'
S'ADVADVVVVDP'
tp299
F1
s(S'NP'
p300
S'NNAAAP'
tp301
F2
s(S'MP'
S'MVNP'
tp302
F100
s(g9
S'DDDDDDP'
tp303
F1
s(S'DP'
S'ADDDP'
tp304
F1
s(S'AP'
S'ADVAADP'
tp305
F4
s(S'DP'
S'ADVADNP'
tp306
F3
s(g264
S'PAVP'
tp307
F38
s(S'MP'
S'ADVMVP'
tp308
F4
s(S'VP'
S'ADVVMP'
tp309
F1
s(S'VP'
S'ADVADVADVVVADVDP'
tp310
F1
s(S'MP'
S'MADVVADVAP'
tp311
F3
s(S'DP'
S'DDAPPP'
tp312
F1
s(g231
S'VVVPP'
tp313
F18
s(S'NP'
S'NNADP'
tp314
F1
s(S'MP'
S'MADVVPP'
tp315
F3
s(S'DP'
S'DADP'
tp316
F7
s(S'AP'
p317
S'ADVADP'
tp318
F11
s(S'CP'
p319
S'ADVADVCDP'
tp320
F2
s(S'PP'
p321
S'PPPPPPPPPPP'
tp322
F1
s(S'NP'
S'ADVADVADVNNPP'
tp323
F2
s(S'PP'
p324
S'APDDP'
tp325
F3
s(S'VP'
S'ADVADVVVNP'
tp326
F4
s(S'DP'
S'DDVVVVP'
tp327
F1
s(S'NP'
S'ADVNAP'
tp328
F2
s(S'DP'
S'DDDDVVP'
tp329
F1
s(S'PP'
p330
S'PPCP'
tp331
F4
s(S'AP'
S'AAAPPP'
tp332
F1
s(S'PP'
S'APVP'
tp333
F24
s(S'MP'
S'MADVADVVPP'
tp334
F4
s(S'MP'
S'MNCP'
tp335
F1
s(g4
S'ADVVADVNNP'
tp336
F1
s(S'VP'
S'ADVADVADVADVVVNNP'
tp337
F1
s(g216
S'VVNP'
tp338
F126
s(S'PP'
p339
S'PPPNNP'
tp340
F2
s(S'PP'
S'PPVP'
tp341
F65
s(S'MP'
S'MADVADVVVDP'
tp342
F1
s(S'VP'
S'VVCCCCP'
tp343
F1
s(S'MP'
S'MVVVVDDP'
tp344
F1
s(S'VP'
S'VADVDP'
tp345
F11
s(S'MP'
S'MVVVPP'
tp346
F1
s(S'DP'
S'DDDPP'
tp347
F16
s(S'VP'
p348
S'VAAP'
tp349
F56
s(S'VP'
S'VVVANNP'
tp350
F1
s(S'NP'
S'ANDP'
tp351
F30
s(S'NP'
p352
S'NVVP'
tp353
F223
s(g63
S'AAPVP'
tp354
F6
s(S'CP'
S'CADVADVADPP'
tp355
F2
s(g348
S'VMP'
tp356
F19
s(S'NP'
S'ANNAP'
tp357
F1
s(S'PP'
S'ADVADVADVADVPPAANP'
tp358
F1
s(g216
S'VVNNP'
tp359
F28
s(S'CP'
S'CDAPP'
tp360
F31
s(S'VP'
S'VVAAP'
tp361
F8
s(S'PP'
S'ADVPMP'
tp362
F2
s(S'DP'
S'ADVADVDDVP'
tp363
F1
s(S'VP'
S'ADVADVVVNNP'
tp364
F1
s(S'MP'
S'MADDP'
tp365
F1
s(S'DP'
p366
S'ADNP'
tp367
F21
s(S'PP'
S'AAPVVP'
tp368
F1
s(S'PP'
S'PAPPP'
tp369
F1
s(S'DP'
S'DAACP'
tp370
F1
s(g126
S'ADVVACP'
tp371
F1
s(S'PP'
S'PADP'
tp372
F31
s(S'DP'
S'DDAAAPP'
tp373
F1
s(S'VP'
S'ADVVVCP'
tp374
F3
s(S'AP'
S'AAAACP'
tp375
F1
s(S'NP'
S'ANDDP'
tp376
F2
s(g300
S'ANAAVVP'
tp377
F1
s(g9
S'ADVADVDVP'
tp378
F2
s(S'DP'
p379
S'DADVAP'
tp380
F15
s(S'VP'
S'VVVVVDP'
tp381
F1
s(S'NP'
S'AANADVVVP'
tp382
F1
s(S'NP'
S'NADVADVADVCP'
tp383
F1
s(S'PP'
S'PPVVVVP'
tp384
F1
s(S'DP'
S'DAPP'
tp385
F46
s(S'VP'
S'AVVP'
tp386
F2
s(S'NP'
S'NADVADVADVADVCCP'
tp387
F2
s(S'VP'
S'ADVADVVPP'
tp388
F7
s(S'NP'
S'AANNVVVP'
tp389
F1
s(S'DP'
S'DAAVP'
tp390
F6
s(S'NP'
p391
S'NNNAVP'
tp392
F2
s(S'VP'
S'ADVADVADVVDP'
tp393
F12
s(S'PP'
p394
S'PPAAADDP'
tp395
F1
s(S'VP'
S'ADVADVVDP'
tp396
F17
s(S'PP'
S'PPPDP'
tp397
F5
s(S'DP'
S'DAAPPP'
tp398
F1
s(S'AP'
S'AAVVP'
tp399
F3
s(S'AP'
S'AAADVADVADVADVADVDP'
tp400
F1
s(S'PP'
S'AAAPDP'
tp401
F2
s(S'DP'
S'DDAAVP'
tp402
F1
s(S'MP'
S'MVVAP'
tp403
F8
s(S'MP'
S'MVVCP'
tp404
F1
s(S'VP'
S'VDDDDP'
tp405
F3
s(S'DP'
S'DAAANP'
tp406
F8
s(S'DP'
S'DADVANP'
tp407
F11
s(S'NP'
p408
S'ANADVVVP'
tp409
F4
s(S'VP'
S'VAAPP'
tp410
F6
s(S'NP'
S'NNPPPPP'
tp411
F1
s(S'DP'
S'ADVDNP'
tp412
F14
s(S'VP'
p413
S'VVPP'
tp414
F102
s(S'VP'
S'VADVAPP'
tp415
F3
s(S'PP'
p416
S'PPADVADVADVPP'
tp417
F1
s(S'CP'
S'AACDDP'
tp418
F1
s(S'MP'
S'MVPP'
tp419
F46
s(S'DP'
S'ADVP'
tp420
F27
s(S'MP'
S'MVADP'
tp421
F1
s(S'DP'
p422
S'DDAAPP'
tp423
F2
s(S'PP'
S'PPPAP'
tp424
F2
s(S'VP'
S'ADVADVADVVVANP'
tp425
F1
s(S'VP'
p426
S'VADVAVP'
tp427
F1
s(S'NP'
S'NNPP'
tp428
F93
s(S'PP'
p429
S'ADVPDDDP'
tp430
F1
s(S'NP'
S'AAANDP'
tp431
F1
s(S'DP'
S'DDDDNP'
tp432
F3
s(S'MP'
S'MVVDP'
tp433
F11
s(g68
S'DADVPPP'
tp434
F18
s(S'PP'
S'PPADVAAP'
tp435
F1
s(S'PP'
S'PPVVP'
tp436
F14
s(S'CP'
S'CADVDAPP'
tp437
F1
s(S'DP'
S'DNNNP'
tp438
F25
s(S'VP'
S'VMMP'
tp439
F1
s(S'DP'
p440
S'ADVDDVP'
tp441
F6
s(S'MP'
S'MVVVVAP'
tp442
F1
s(g244
S'PADVADVVP'
tp443
F6
s(S'VP'
p444
S'VADVDDP'
tp445
F6
s(S'CP'
S'CDDDPPP'
tp446
F1
s(S'PP'
S'PVVVP'
tp447
F7
s(S'VP'
S'ADVVVANP'
tp448
F4
s(S'NP'
S'NNMMP'
tp449
F2
s(S'DP'
S'ADVADVDPP'
tp450
F3
s(S'CP'
S'CCDP'
tp451
F172
s(S'NP'
S'ADVNNDP'
tp452
F1
s(g189
S'ADVADVADVDPP'
tp453
F1
s(S'MP'
S'AMVP'
tp454
F9
s(S'VP'
S'VPPP'
tp455
F70
s(S'VP'
p456
S'VADVADVANP'
tp457
F2
s(g246
S'NVVVP'
tp458
F58
s(S'CP'
S'CDDDPP'
tp459
F12
s(S'CP'
S'CDAAPP'
tp460
F13
s(S'VP'
S'VVVVVP'
tp461
F1
s(S'VP'
p462
S'VVVDP'
tp463
F27
s(g116
S'PNNNP'
tp464
F22
s(S'MP'
S'MVVVAP'
tp465
F2
s(S'CP'
S'CCCCDP'
tp466
F1
s(S'NP'
S'ANMMP'
tp467
F1
s(S'DP'
p468
S'ADVADVADVADPP'
tp469
F1
s(g90
S'VAAPPP'
tp470
F2
s(S'MP'
S'MVDDDP'
tp471
F1
s(S'AP'
S'AACCP'
tp472
F2
s(S'PP'
S'AAPNP'
tp473
F3
s(S'MP'
S'MVAAPP'
tp474
F1
s(S'VP'
S'ADVVVDP'
tp475
F19
s(g264
S'PPP'
tp476
F145
s(g124
S'NNVVP'
tp477
F35
s(S'NP'
p478
S'NAVP'
tp479
F42
s(S'PP'
S'PADVAP'
tp480
F5
s(g366
S'DDNNNP'
tp481
F4
s(S'PP'
S'PADDP'
tp482
F1
s(S'VP'
S'AAVVP'
tp483
F1
s(S'DP'
S'ADVDVP'
tp484
F11
s(S'PP'
S'PPADVADVNP'
tp485
F1
s(S'PP'
p486
S'ADVADVPADVADVPP'
tp487
F1
s(S'NP'
S'NAAAP'
tp488
F2
s(S'NP'
S'NCCCP'
tp489
F6
s(S'DP'
S'DADVADVPPP'
tp490
F3
s(S'AP'
S'AADVVP'
tp491
F3
s(S'NP'
S'NNDDP'
tp492
F2
s(S'MP'
S'MVVVVDP'
tp493
F1
s(S'DP'
S'DAAAP'
tp494
F4
s(S'DP'
S'ADVADVDNP'
tp495
F4
s(S'VP'
S'VPP'
tp496
F541
s(S'CP'
S'ADVCCDP'
tp497
F14
s(S'VP'
S'ADVADVVVP'
tp498
F3
s(S'DP'
p499
S'ADVDDPPP'
tp500
F1
s(S'DP'
S'ADVDDNP'
tp501
F3
s(S'NP'
S'AANPPP'
tp502
F2
s(S'NP'
S'NNNCP'
tp503
F14
s(S'PP'
S'PADVDP'
tp504
F10
s(S'CP'
S'CDADVAPP'
tp505
F2
s(S'DP'
S'AADPPP'
tp506
F3
s(S'PP'
S'ADVADVPANP'
tp507
F1
s(S'DP'
S'DANNP'
tp508
F1
s(S'MP'
S'MADVVAP'
tp509
F8
s(S'PP'
S'PADVAAP'
tp510
F2
s(S'CP'
S'CDDPP'
tp511
F107
s(S'DP'
S'DAAPP'
tp512
F19
s(S'PP'
S'PVVP'
tp513
F80
s(S'CP'
S'CADPPP'
tp514
F5
s(S'AP'
S'AACP'
tp515
F15
s(S'MP'
S'ADVADVADVMVP'
tp516
F2
s(S'VP'
S'ADVVCP'
tp517
F19
s(S'NP'
S'AAANAP'
tp518
F1
s(S'PP'
p519
S'PPNNNP'
tp520
F2
s(S'MP'
S'MADVADVVAP'
tp521
F1
s(g339
S'PPADVADVDP'
tp522
F1
s(S'DP'
S'ADVADVDDNP'
tp523
F1
s(g462
S'VVPPP'
tp524
F11
s(S'VP'
S'ADVVVCCP'
tp525
F3
s(S'NP'
p526
S'ADVNAMP'
tp527
F1
s(S'PP'
p528
S'PPAP'
tp529
F22
s(S'DP'
p530
S'DVVP'
tp531
F101
s(S'CP'
S'ADVCDDDP'
tp532
F1
s(S'DP'
S'DADVADVNP'
tp533
F4
s(S'CP'
p534
S'CDDAAPP'
tp535
F1
s(g209
S'ANMP'
tp536
F10
s(S'AP'
S'APPP'
tp537
F10
s(S'DP'
S'ADVVP'
tp538
F4
s(S'NP'
S'NADVADVADVAAP'
tp539
F1
s(S'NP'
S'ADVADVNVP'
tp540
F3
s(S'VP'
S'VVVP'
tp541
F27
s(S'DP'
p542
S'DDPPPP'
tp543
F6
s(S'VP'
S'ADVVVAANP'
tp544
F1
s(S'CP'
S'CCCADVADVDDP'
tp545
F1
s(S'VP'
S'ADVADVVCCP'
tp546
F1
s(S'PP'
S'ADVPAPP'
tp547
F1
s(S'VP'
S'VVVADVVP'
tp548
F2
s(S'NP'
S'ANCP'
tp549
F85
s(g55
S'DCP'
tp550
F74
s(S'MP'
S'MVVPPP'
tp551
F3
s(S'VP'
S'VADVADVADVAP'
tp552
F1
s(S'NP'
S'AAANCP'
tp553
F3
s(S'VP'
S'ADVVVVP'
tp554
F1
s(S'PP'
S'APPADVDP'
tp555
F1
s(S'DP'
S'DADVCP'
tp556
F2
s(S'NP'
S'NNVVVVP'
tp557
F8
s(S'PP'
S'ADVADVADVPPNP'
tp558
F1
s(S'DP'
S'DDDP'
tp559
F15
s(S'AP'
S'ADDDDP'
tp560
F4
s(g4
S'VVADVADVPPP'
tp561
F1
s(S'DP'
S'DDADVPP'
tp562
F9
s(S'MP'
S'MVVVVNP'
tp563
F1
s(S'DP'
S'DAMP'
tp564
F4
s(S'NP'
S'ANNVVP'
tp565
F2
s(S'NP'
S'ANVVP'
tp566
F21
s(S'DP'
S'ADDNNP'
tp567
F1
s(S'VP'
S'VVDP'
tp568
F162
s(g124
S'NPPP'
tp569
F67
s(g275
S'ADVADVPPDDP'
tp570
F1
s(S'PP'
S'PPAPP'
tp571
F1
s(S'VP'
S'VAAAADP'
tp572
F2
s(S'DP'
S'AADVVP'
tp573
F1
s(S'VP'
S'VAPPP'
tp574
F1
s(S'MP'
S'AMVVP'
tp575
F1
s(S'DP'
p576
S'DAVP'
tp577
F38
s(S'VP'
p578
S'AVVVP'
tp579
F3
s(S'NP'
S'NNNMP'
tp580
F8
s(S'NP'
S'NNNNMP'
tp581
F2
s(S'AP'
S'ACP'
tp582
F141
s(S'DP'
S'ADVADPPP'
tp583
F1
s(S'PP'
S'PPNP'
tp584
F141
s(S'PP'
S'APPPP'
tp585
F1
s(S'NP'
S'ADVADVANPP'
tp586
F1
s(S'DP'
S'ADVDAPP'
tp587
F1
s(S'VP'
S'AVADVCCP'
tp588
F1
s(S'DP'
S'AADVP'
tp589
F2
s(S'NP'
S'NNNNCCP'
tp590
F1
s(S'VP'
S'VVVVNNP'
tp591
F1
s(S'PP'
S'PPPNNNNP'
tp592
F1
s(S'CP'
p593
S'CDDADVPP'
tp594
F7
s(S'CP'
S'CCCDDP'
tp595
F2
s(g272
S'ADP'
tp596
F946
s(S'NP'
S'NAMMP'
tp597
F1
s(S'DP'
S'DDADVVP'
tp598
F1
s(S'DP'
S'DDAVP'
tp599
F2
s(S'MP'
S'MADVVACP'
tp600
F1
s(S'PP'
S'APVVP'
tp601
F4
s(S'AP'
S'ADVAADDP'
tp602
F2
s(S'NP'
S'AAANNCP'
tp603
F1
s(S'CP'
S'ADVADVCCADVDP'
tp604
F1
s(S'VP'
S'VAAANP'
tp605
F3
s(S'DP'
S'ADVADVADVDDVP'
tp606
F1
s(S'DP'
S'DVVVVP'
tp607
F7
s(S'AP'
S'ADVADVADVAAPP'
tp608
F1
s(S'VP'
S'VVPPPP'
tp609
F1
s(S'NP'
S'NADVADVAP'
tp610
F2
s(g282
S'AAAVDP'
tp611
F3
s(S'MP'
S'MDNNNNP'
tp612
F2
s(g290
S'AVDP'
tp613
F61
s(S'NP'
S'ANNVP'
tp614
F1
s(S'VP'
p615
S'VVAP'
tp616
F65
s(g296
S'NNAPP'
tp617
F10
s(S'MP'
S'MNADVVP'
tp618
F1
s(S'NP'
S'ADVANMP'
tp619
F1
s(S'NP'
S'NNAMP'
tp620
F1
s(S'PP'
S'PADVADVDP'
tp621
F2
s(S'VP'
p622
S'VAAAPP'
tp623
F2
s(S'VP'
S'AAVNNP'
tp624
F1
s(S'DP'
S'AADDPPP'
tp625
F1
s(g352
S'NPP'
tp626
F691
s(g519
S'PPPPNP'
tp627
F11
s(S'NP'
S'NVP'
tp628
F1258
s(S'CP'
S'CADVADPP'
tp629
F4
s(S'CP'
S'ADVCCDDP'
tp630
F2
s(S'PP'
S'PAAVP'
tp631
F4
s(g143
S'NAAPP'
tp632
F4
s(g275
S'PPPPVP'
tp633
F1
s(S'DP'
S'ADADVVVP'
tp634
F1
s(S'VP'
p635
S'VDDP'
tp636
F101
s(g133
S'DAPPP'
tp637
F3
s(S'NP'
p638
S'ADVADVNACP'
tp639
F1
s(S'PP'
S'ADVADVADVADVPNP'
tp640
F1
s(S'VP'
S'AVADVADVADVDDP'
tp641
F1
s(S'PP'
S'ADVPPPP'
tp642
F5
s(S'DP'
S'DDDDANP'
tp643
F1
s(S'NP'
p644
S'AANNVP'
tp645
F2
s(S'DP'
p646
S'DMP'
tp647
F13
s(S'DP'
S'DADVAPP'
tp648
F3
s(S'DP'
S'DAAAVP'
tp649
F1
s(S'PP'
S'PPPDDP'
tp650
F2
s(S'NP'
S'NNADVACP'
tp651
F1
s(g259
S'NADVADVVVP'
tp652
F8
s(g352
S'ANPP'
tp653
F103
s(g528
S'ADVPPDP'
tp654
F3
s(S'PP'
S'PPPPP'
tp655
F4
s(S'MP'
S'MPDP'
tp656
F1
s(S'PP'
S'ADVADVPDP'
tp657
F1
s(S'MP'
S'MVVPP'
tp658
F7
s(S'PP'
p659
S'PAAAVP'
tp660
F2
s(S'NP'
S'NNMMMP'
tp661
F1
s(S'DP'
S'DDDDDP'
tp662
F2
s(S'VP'
S'ADVADVVADVAP'
tp663
F1
s(S'NP'
S'ADVADVNPP'
tp664
F1
s(g209
S'NPPPP'
tp665
F6
s(S'AP'
S'AADVADVDP'
tp666
F2
s(S'NP'
S'NADVAAP'
tp667
F1
s(S'VP'
S'VVVMP'
tp668
F1
s(S'PP'
S'PPNNNNP'
tp669
F1
s(S'CP'
S'CAADPP'
tp670
F7
s(S'DP'
S'DADVADVVP'
tp671
F7
s(g139
S'NAACP'
tp672
F2
s(S'PP'
S'PNNP'
tp673
F153
s(S'VP'
p674
S'VVVVVVP'
tp675
F2
s(S'NP'
S'AAANADVVVP'
tp676
F1
s(S'CP'
S'CDADVADVADVPPP'
tp677
F1
s(S'PP'
S'APNNP'
tp678
F3
s(S'DP'
S'DAAANNP'
tp679
F1
s(S'DP'
S'DDAAP'
tp680
F3
s(g422
S'ADVADVDDDP'
tp681
F1
s(S'DP'
p682
S'ADVDADVADVPPPP'
tp683
F1
s(S'VP'
S'VVAACP'
tp684
F1
s(S'NP'
S'NAAACP'
tp685
F1
s(S'VP'
S'VVADVADVDDP'
tp686
F1
s(S'VP'
S'AVAP'
tp687
F9
s(S'MP'
S'MMVP'
tp688
F13
s(S'PP'
S'ADVADVAPDP'
tp689
F1
s(S'NP'
S'ADVADVNDDP'
tp690
F1
s(S'AP'
S'AAPPPP'
tp691
F1
s(S'NP'
S'ADVNCP'
tp692
F11
s(S'DP'
S'DDADVADVPP'
tp693
F1
s(S'AP'
S'AADP'
tp694
F149
s(g426
S'ADVAVCP'
tp695
F1
s(S'PP'
S'PADVADVANP'
tp696
F1
s(S'NP'
S'NAPPP'
tp697
F2
s(S'CP'
S'ACDP'
tp698
F31
s(g444
S'VCCP'
tp699
F25
s(g622
S'ADVADVVAAP'
tp700
F1
s(S'AP'
S'ADVANP'
tp701
F14
s(S'CP'
S'CCCCDDP'
tp702
F1
s(S'NP'
S'NNACP'
tp703
F3
s(g46
S'CDADVPPP'
tp704
F16
s(g615
S'VAP'
tp705
F474
s(S'VP'
S'VVVVNP'
tp706
F14
s(S'VP'
S'VVADVAP'
tp707
F5
s(g534
S'ADVCDDP'
tp708
F2
s(S'VP'
S'VADVADVAAP'
tp709
F2
s(S'VP'
S'VADVMP'
tp710
F1
s(S'PP'
p711
S'PAAPP'
tp712
F2
s(S'PP'
S'ADVADVPCP'
tp713
F1
s(S'AP'
S'ADVAAPP'
tp714
F1
s(S'MP'
S'MVVVDP'
tp715
F3
s(S'VP'
S'ADVVVVAP'
tp716
F1
s(S'MP'
S'MAVPP'
tp717
F3
s(S'VP'
S'ADVADVVVAP'
tp718
F2
s(S'DP'
S'DDDPPP'
tp719
F2
s(S'DP'
S'ADAP'
tp720
F1
s(S'DP'
S'DADVDP'
tp721
F1
s(S'MP'
S'MVVCCP'
tp722
F1
s(S'NP'
S'NNAVVP'
tp723
F1
s(S'CP'
S'CCADVADP'
tp724
F1
s(S'AP'
S'AAACP'
tp725
F4
s(S'NP'
p726
S'AANNAAP'
tp727
F1
s(g272
S'AVVP'
tp728
F21
s(S'PP'
p729
S'PPPVP'
tp730
F7
s(S'NP'
S'NNNNADVDP'
tp731
F1
s(S'AP'
p732
S'AADDP'
tp733
F16
s(S'DP'
p734
S'AADPPPP'
tp735
F1
s(S'MP'
S'MAADP'
tp736
F1
s(S'MP'
S'MADVVANNP'
tp737
F1
s(S'VP'
S'VAANP'
tp738
F11
s(S'NP'
S'NADVADVCP'
tp739
F2
s(S'VP'
p740
S'VADVADVADVADVVP'
tp741
F1
s(S'MP'
S'MADVADVADVVNP'
tp742
F1
s(g740
S'ADVADVADVADVVDP'
tp743
F1
s(S'NP'
S'NVVVVP'
tp744
F23
s(g261
S'PPPAAADP'
tp745
F1
s(S'MP'
S'MNNP'
tp746
F1
s(S'NP'
S'ADVNNVP'
tp747
F3
s(S'MP'
S'MPNP'
tp748
F3
s(S'VP'
S'VVAADP'
tp749
F2
s(S'MP'
S'MADP'
tp750
F12
s(S'VP'
S'VADVADVNNP'
tp751
F1
s(S'VP'
S'AVADVADVCCP'
tp752
F1
s(S'VP'
S'ADVADVADVVAP'
tp753
F1
s(S'AP'
S'ADVADVADDP'
tp754
F1
s(S'MP'
S'MVVADVADVADVNNP'
tp755
F1
s(S'DP'
S'DDADVNP'
tp756
F1
s(g99
S'PANP'
tp757
F73
s(S'PP'
S'PDDDP'
tp758
F5
s(S'NP'
S'ANNMP'
tp759
F1
s(S'NP'
S'NADVDDP'
tp760
F1
s(S'DP'
p761
S'ADVADPP'
tp762
F5
s(g339
S'AAPAAP'
tp763
F1
s(S'DP'
S'ADVDDVVP'
tp764
F1
s(S'NP'
S'ADVANPPP'
tp765
F2
s(S'AP'
S'AAVP'
tp766
F12
s(g111
S'NAAP'
tp767
F34
s(S'AP'
S'AADVADVAPP'
tp768
F1
s(g124
S'NDDP'
tp769
F34
s(S'PP'
S'APPDDP'
tp770
F1
s(S'DP'
S'ADAAP'
tp771
F1
s(S'VP'
S'VVADVDDP'
tp772
F2
s(S'CP'
S'CDDADVADVPPP'
tp773
F1
s(g226
S'MVADVDP'
tp774
F1
s(S'AP'
S'ACCP'
tp775
F16
s(g300
S'ADVADVANCP'
tp776
F1
s(g674
S'VVVVAP'
tp777
F6
s(g93
S'NDP'
tp778
F281
s(S'VP'
S'ADVVNNNP'
tp779
F2
s(S'NP'
S'AAANVP'
tp780
F4
s(S'MP'
S'MVAAP'
tp781
F5
s(g530
S'DDVP'
tp782
F91
s(S'DP'
S'DADVADVADVADVPPP'
tp783
F1
s(S'DP'
S'ADADVPPP'
tp784
F1
s(g49
S'ADVADVVANP'
tp785
F1
s(g644
S'AANVP'
tp786
F19
s(S'PP'
S'PPADVANP'
tp787
F2
s(S'NP'
S'ADVAANVVVP'
tp788
F1
s(g456
S'AAVVPP'
tp789
F1
s(S'VP'
S'VNNNP'
tp790
F17
s(S'MP'
S'MADVVVPP'
tp791
F1
s(S'VP'
S'AVADVADVPPP'
tp792
F1
s(S'VP'
S'VADVADVPP'
tp793
F2
s(g324
S'ADVPAP'
tp794
F2
s(S'NP'
S'ADVNADVVVVP'
tp795
F1
s(S'MP'
S'MMVVVP'
tp796
F1
s(S'NP'
S'NNNNVVP'
tp797
F2
s(S'PP'
S'PCP'
tp798
F43
s(g139
S'NNPPP'
tp799
F16
s(S'NP'
S'NADVADVADVMP'
tp800
F2
s(S'PP'
S'PAADP'
tp801
F5
s(S'VP'
p802
S'ADVVADP'
tp803
F2
s(S'MP'
S'MDNP'
tp804
F3
s(S'NP'
S'ADVANVVP'
tp805
F1
s(g635
S'VPPPP'
tp806
F6
s(S'VP'
S'VVVVANP'
tp807
F2
s(S'PP'
S'PACP'
tp808
F1
s(g317
S'AADVAP'
tp809
F2
s(S'NP'
S'NNNDP'
tp810
F7
s(S'VP'
S'ADVVVPPP'
tp811
F2
s(S'AP'
S'ADVACP'
tp812
F26
s(S'NP'
S'AANVVVP'
tp813
F3
s(S'NP'
S'ADVADVNMP'
tp814
F3
s(S'CP'
S'CDADVPP'
tp815
F20
s(S'DP'
S'ADPPP'
tp816
F7
s(S'NP'
S'NNAAVP'
tp817
F1
s(S'MP'
S'MVCP'
tp818
F9
s(S'VP'
S'VADVNNP'
tp819
F2
s(S'CP'
S'CCDDP'
tp820
F27
s(S'VP'
p821
S'AVNNP'
tp822
F6
s(S'NP'
S'NNADVVP'
tp823
F2
s(S'PP'
S'PPADVADVVP'
tp824
F1
s(S'VP'
S'ADVADVADVVPP'
tp825
F1
s(S'DP'
S'DDADP'
tp826
F2
s(S'DP'
S'DADVADVADVVVP'
tp827
F3
s(S'PP'
S'ADVPPP'
tp828
F2
s(S'NP'
S'NNNADVMP'
tp829
F1
s(S'PP'
p830
S'PPAAP'
tp831
F4
s(S'PP'
S'PPADVCP'
tp832
F1
s(g711
S'AAPVVVVP'
tp833
F1
s(S'VP'
S'VVCP'
tp834
F35
s(S'VP'
S'VVMP'
tp835
F3
s(S'PP'
S'PADVADVPP'
tp836
F1
s(S'NP'
S'AANCP'
tp837
F20
s(S'VP'
S'VADVNP'
tp838
F24
s(g216
S'VVDDDP'
tp839
F3
s(S'AP'
S'ADVAVVP'
tp840
F17
s(S'VP'
S'ADVVVADVNP'
tp841
F1
s(g830
S'APPP'
tp842
F7
s(S'PP'
S'PPADP'
tp843
F2
s(S'MP'
S'MNNPP'
tp844
F3
s(S'VP'
S'ADVVPP'
tp845
F20
s(g65
S'VVADVANP'
tp846
F2
s(S'VP'
S'VVVNNNP'
tp847
F1
s(S'VP'
S'VNNP'
tp848
F110
s(S'AP'
S'AADVDP'
tp849
F9
s(S'NP'
S'NNNADP'
tp850
F1
s(S'NP'
S'NADP'
tp851
F5
s(g68
S'DDNP'
tp852
F112
s(S'NP'
p853
S'NADVCP'
tp854
F15
s(g646
S'DDNNP'
tp855
F20
s(S'MP'
S'MADVVDDP'
tp856
F1
s(S'MP'
S'MADVVNNNP'
tp857
F1
s(S'VP'
S'ADVADVVADVANP'
tp858
F1
s(S'PP'
S'PADVADVVVP'
tp859
F1
s(S'NP'
S'ADVANVP'
tp860
F8
s(S'NP'
S'ADVNAAP'
tp861
F1
s(S'PP'
S'APCP'
tp862
F1
s(g287
S'ADVADVADVNNCP'
tp863
F2
s(S'NP'
S'NAADP'
tp864
F1
s(S'NP'
S'ADVADVNCP'
tp865
F5
s(S'AP'
S'ADVADDP'
tp866
F3
s(S'MP'
S'MAAVNNP'
tp867
F1
s(g21
S'AADPP'
tp868
F11
s(S'MP'
S'MMVVVVVP'
tp869
F1
s(g726
S'NNNNPP'
tp870
F2
s(g732
S'AAAADVDDP'
tp871
F1
s(g284
S'ANADVADVPP'
tp872
F1
s(S'VP'
S'VVVVCP'
tp873
F2
s(S'VP'
S'VVMMP'
tp874
F1
s(S'PP'
p875
S'ADVADVPPPNP'
tp876
F1
s(g68
S'AAAADDPP'
tp877
F1
s(g499
S'AAADVP'
tp878
F2
s(S'NP'
S'NNNP'
tp879
F1
s(S'AP'
S'AADVADVVP'
tp880
F2
s(S'MP'
p881
S'MDVVVVP'
tp882
F1
s(S'PP'
S'AAPDP'
tp883
F21
s(S'NP'
S'ANVVVP'
tp884
F3
s(S'DP'
S'DADVADVAP'
tp885
F3
s(g853
S'NADVADVCCP'
tp886
F3
s(S'MP'
S'MVVNP'
tp887
F8
s(S'CP'
S'CDDADVPPP'
tp888
F1
s(S'VP'
S'VVVVVPPP'
tp889
F1
s(S'NP'
S'NNNNVP'
tp890
F8
s(g499
S'ADVDDNNP'
tp891
F1
s(S'AP'
S'AAPP'
tp892
F25
s(S'VP'
S'VVCCP'
tp893
F7
s(S'AP'
S'AAADVDP'
tp894
F2
s(S'VP'
S'AAVADVADVADVAAP'
tp895
F1
s(g219
S'DADVVVP'
tp896
F15
s(S'MP'
S'MAANNVP'
tp897
F1
s(S'DP'
S'DAAAPP'
tp898
F2
s(S'PP'
S'ADVPANP'
tp899
F2
s(S'VP'
S'VADVADP'
tp900
F1
s(S'AP'
S'ADVANNP'
tp901
F3
s(S'VP'
S'VVVCCP'
tp902
F2
s(S'NP'
S'NAPP'
tp903
F34
s(S'PP'
S'APPVP'
tp904
F1
s(S'AP'
S'ADVADVADP'
tp905
F4
s(S'NP'
S'NNNNDP'
tp906
F1
s(S'NP'
p907
S'NADVDP'
tp908
F5
s(S'DP'
S'DDNNNNNP'
tp909
F1
s(g578
S'VVVCP'
tp910
F3
s(S'PP'
S'APDDDP'
tp911
F1
s(S'CP'
S'ADVADVCADP'
tp912
F1
s(S'DP'
S'DADVADVADVVP'
tp913
F2
s(g296
S'ANCCP'
tp914
F19
s(S'NP'
S'AANPP'
tp915
F16
s(S'VP'
S'VDDDP'
tp916
F7
s(S'NP'
p917
S'NNMP'
tp918
F46
s(S'AP'
S'AAADVAP'
tp919
F1
s(S'DP'
S'DDDVP'
tp920
F7
s(S'VP'
S'AAVPP'
tp921
F2
s(S'CP'
S'ADVADVADVADVCCDP'
tp922
F1
s(S'DP'
S'DDADVVVP'
tp923
F1
s(S'VP'
S'VVADVADVPP'
tp924
F1
s(S'PP'
S'PAAAP'
tp925
F8
s(S'PP'
S'ADVADVPNP'
tp926
F3
s(S'VP'
S'VVVDDP'
tp927
F3
s(S'CP'
S'CDDAPP'
tp928
F3
s(S'VP'
S'VVVPPP'
tp929
F2
s(S'NP'
S'ANAP'
tp930
F14
s(S'DP'
S'ADVADVADVDDNP'
tp931
F1
s(S'MP'
S'MVAP'
tp932
F38
s(g42
S'VADVADVDDP'
tp933
F1
s(g394
S'PVP'
tp934
F1045
s(g254
S'VADVPPP'
tp935
F6
s(S'DP'
S'ADVDPP'
tp936
F42
s(S'DP'
S'DADVAVP'
tp937
F1
s(S'AP'
S'ADVADVAPP'
tp938
F8
s(S'VP'
S'VVAAAAP'
tp939
F1
s(S'VP'
S'VVVAANP'
tp940
F1
s(S'VP'
S'VADVCCP'
tp941
F4
s(S'AP'
S'AADVDDP'
tp942
F3
s(S'NP'
S'NNNNNVP'
tp943
F1
s(S'VP'
S'VADVADVADVNNP'
tp944
F1
s(S'NP'
S'ADVNAVP'
tp945
F1
s(S'NP'
S'ANVVVVP'
tp946
F2
s(S'DP'
S'DVVVP'
tp947
F19
s(g729
S'PPADVPP'
tp948
F1
s(S'NP'
S'ADVNNAP'
tp949
F1
s(g84
S'ADVADVANVP'
tp950
F1
s(g161
S'AAAVPP'
tp951
F1
s(g659
S'PPDDP'
tp952
F11
s(S'VP'
S'AVCP'
tp953
F6
s(S'DP'
S'DDVVVP'
tp954
F3
s(S'DP'
S'DPP'
tp955
F1542
s(S'NP'
S'ADVNVP'
tp956
F44
s(S'MP'
S'MMADVADVVVP'
tp957
F1
s(g530
S'DDPP'
tp958
F186
s(g468
S'DDADVPPP'
tp959
F2
s(g379
S'DANP'
tp960
F174
s(S'NP'
S'NADVPP'
tp961
F7
s(S'MP'
S'MVNNNP'
tp962
F4
s(S'PP'
S'ADVADVPPNP'
tp963
F5
s(S'NP'
S'ADVNVVVP'
tp964
F1
s(S'NP'
S'NADVADP'
tp965
F1
s(S'PP'
S'AAPPVP'
tp966
F1
s(S'NP'
S'AANADVVP'
tp967
F1
s(S'NP'
S'NAAVP'
tp968
F4
s(S'DP'
S'DDDVVP'
tp969
F5
s(S'DP'
S'ADVADVADPP'
tp970
F2
s(S'NP'
S'NADVADVADVCCP'
tp971
F1
s(S'DP'
S'AADNP'
tp972
F7
s(S'CP'
S'CADVADVADVDPP'
tp973
F1
s(S'VP'
S'VADVCP'
tp974
F1
s(S'MP'
S'MADVADVVNP'
tp975
F1
s(S'NP'
S'NNNNCP'
tp976
F4
s(g907
S'NADVCCP'
tp977
F9
s(S'NP'
S'NNAACP'
tp978
F1
s(S'VP'
S'ADVAVAP'
tp979
F1
s(S'NP'
S'NNNVVP'
tp980
F6
s(S'NP'
S'NADVADVADVADP'
tp981
F1
s(g105
S'PADVPPP'
tp982
F2
s(S'CP'
S'AACDDDP'
tp983
F1
s(g542
S'DCCP'
tp984
F4
s(S'CP'
S'CDPPPPP'
tp985
F5
s(S'MP'
S'MADVVDP'
tp986
F15
s(S'DP'
S'DDADVNNP'
tp987
F1
s(S'VP'
S'VVVAP'
tp988
F11
s(g244
S'PDDP'
tp989
F80
s(S'MP'
S'MVDDP'
tp990
F8
s(S'PP'
S'PCCP'
tp991
F4
s(S'PP'
S'ADVAPNP'
tp992
F2
s(g154
S'AAAPVP'
tp993
F2
s(g917
S'NNVP'
tp994
F203
s(S'NP'
S'ADVNNCP'
tp995
F2
s(S'AP'
S'AADVADVADVADVNP'
tp996
F1
s(S'VP'
S'AAVADVADVNNP'
tp997
F1
s(S'PP'
S'AAAPDDP'
tp998
F1
s(S'AP'
S'ADVADVACP'
tp999
F3
s(S'NP'
S'NAANP'
tp1000
F1
s(S'VP'
S'VVDDP'
tp1001
F16
s(S'DP'
S'DAANP'
tp1002
F46
s(S'NP'
S'NNNPPP'
tp1003
F3
s(S'AP'
p1004
S'ADDP'
tp1005
F70
s(S'PP'
S'APPAP'
tp1006
F1
s(g875
S'PNNNNP'
tp1007
F4
s(S'NP'
S'ANNCP'
tp1008
F1
s(S'VP'
S'ADVVVAP'
tp1009
F10
s(S'PP'
S'ADVPPNP'
tp1010
F17
s(S'VP'
S'VADVADVADVVP'
tp1011
F9
s(g266
S'NNADVADVVP'
tp1012
F1
s(S'NP'
S'NNVVVVVP'
tp1013
F2
s(S'VP'
S'VVADVADVADVNNP'
tp1014
F1
s(S'CP'
S'CADVADVDPP'
tp1015
F3
s(S'CP'
S'ADVADVADVCDP'
tp1016
F1
s(S'DP'
p1017
S'DPPP'
tp1018
F180
s(S'DP'
S'DADVADVADVNNP'
tp1019
F2
s(g734
S'DAVVP'
tp1020
F1
s(S'CP'
S'CCCCAADDP'
tp1021
F1
s(S'CP'
S'ADVADVADVCCDP'
tp1022
F1
s(S'VP'
p1023
S'VANNP'
tp1024
F3
s(S'NP'
S'NNAVP'
tp1025
F8
s(S'NP'
S'NNAAPP'
tp1026
F1
s(S'NP'
S'NMMMP'
tp1027
F1
s(S'PP'
S'PPPANP'
tp1028
F1
s(S'MP'
S'ADVADVMVVP'
tp1029
F1
s(g821
S'AVVDDDP'
tp1030
F1
s(g486
S'ADVPNP'
tp1031
F18
s(S'PP'
S'PPDP'
tp1032
F90
s(S'VP'
S'ADVVANNP'
tp1033
F1
s(S'MP'
S'MAVDP'
tp1034
F1
s(S'VP'
S'ADVADVVADVAANP'
tp1035
F1
s(g416
S'ADVADVADVPVP'
tp1036
F2
s(S'AP'
S'ADVADVAACP'
tp1037
F1
s(S'VP'
S'AVVAAP'
tp1038
F1
s(S'NP'
S'NADVADVADVPP'
tp1039
F1
s(S'VP'
S'VADVACP'
tp1040
F1
s(S'AP'
S'ADVACCP'
tp1041
F1
s(S'AP'
S'AAPPP'
tp1042
F1
s(S'NP'
S'AAANMP'
tp1043
F1
s(S'DP'
S'DDCP'
tp1044
F2
s(S'VP'
S'VVVVVPP'
tp1045
F1
s(S'MP'
S'MADVADVVVNNP'
tp1046
F1
s(S'NP'
S'NNNNNCP'
tp1047
F2
s(S'PP'
S'PAANNP'
tp1048
F1
s(S'PP'
S'PPADVDDP'
tp1049
F2
s(S'AP'
S'ADVADVAADP'
tp1050
F2
s(g124
S'NAP'
tp1051
F314
s(g259
S'NNAAP'
tp1052
F6
s(S'MP'
S'MADVADVADVVPP'
tp1053
F1
s(g52
S'VAAAP'
tp1054
F8
s(S'VP'
S'ADVVVADVAP'
tp1055
F2
s(g802
S'ADVADVADVADVVVPP'
tp1056
F2
s(g478
S'NNNNNADVCCP'
tp1057
F1
s(S'VP'
S'VVP'
tp1058
F122
s(S'MP'
S'ADVMNP'
tp1059
F1
s(g576
S'DDAPP'
tp1060
F9
s(S'PP'
S'PNNNNNP'
tp1061
F1
s(S'VP'
S'AVADVPPP'
tp1062
F1
s(S'AP'
S'AAADP'
tp1063
F20
s(S'AP'
S'ACCCP'
tp1064
F1
s(S'PP'
S'APNP'
tp1065
F33
s(S'VP'
S'VVVNNP'
tp1066
F7
s(S'AP'
S'ADVADVAAP'
tp1067
F1
s(g440
S'DDVVP'
tp1068
F14
s(S'AP'
S'AAADDP'
tp1069
F4
s(S'VP'
S'VVVNP'
tp1070
F35
s(S'MP'
S'MNPP'
tp1071
F1
s(S'VP'
S'ADVADVADVVVCCP'
tp1072
F1
s(S'NP'
S'NAMP'
tp1073
F4
s(g348
S'VVVADVANP'
tp1074
F1
s(S'MP'
S'MVANP'
tp1075
F2
s(S'AP'
S'AAADDDP'
tp1076
F1
s(g682
S'ADVADVDDPP'
tp1077
F1
s(g881
S'MVNNP'
tp1078
F1
s(S'MP'
S'MADVVPPP'
tp1079
F1
s(S'CP'
S'CDPP'
tp1080
F1237
s(S'NP'
S'NNADVPP'
tp1081
F1
s(S'MP'
S'MVVNNP'
tp1082
F2
s(S'AP'
S'ADDDP'
tp1083
F6
s(S'AP'
S'AADVADVADVPPP'
tp1084
F1
s(S'DP'
S'ADVDVVP'
tp1085
F3
s(S'VP'
S'ADVADVADVVVNNP'
tp1086
F1
s(g486
S'ADVADVPADVVP'
tp1087
F1
s(S'NP'
S'NADVADVADVANP'
tp1088
F1
s(S'NP'
S'NNNNADVADVADVVVP'
tp1089
F1
s(S'CP'
p1090
S'ADVCDP'
tp1091
F22
s(S'AP'
S'ADVAAP'
tp1092
F6
s(S'VP'
S'ADVADVVNP'
tp1093
F12
s(S'AP'
S'AAAAPPP'
tp1094
F1
s(S'PP'
S'PPPNNNNNP'
tp1095
F1
s(g228
S'ADVADVVNNP'
tp1096
F2
s(g391
S'NNNNPPP'
tp1097
F1
s(S'VP'
p1098
S'VAAVP'
tp1099
F2
s(S'CP'
S'ADVACDP'
tp1100
F1
s(g231
S'ADVADVVCP'
tp1101
F2
s(S'PP'
S'PPNNP'
tp1102
F26
s(g394
S'ADVPPADVVP'
tp1103
F1
s(S'PP'
S'ADVPAVP'
tp1104
F1
s(S'MP'
S'MADVADVNVP'
tp1105
F1
s(S'PP'
S'PPMP'
tp1106
F1
s(S'PP'
S'PADVADVADVVVP'
tp1107
F1
s(g1023
S'ADVVAVP'
tp1108
F1
s(S'VP'
S'VDP'
tp1109
F1236
s(S'MP'
S'MMADVADVVP'
tp1110
F1
s(S'NP'
S'NADVAP'
tp1111
F5
s(S'VP'
p1112
S'AVDDP'
tp1113
F8
s(S'DP'
S'DADVNP'
tp1114
F14
s(S'DP'
S'DDCCP'
tp1115
F1
s(g1017
S'DAP'
tp1116
F111
s(S'MP'
S'MAVNP'
tp1117
F1
s(g249
S'CADPP'
tp1118
F46
s(S'NP'
S'NNNNNDP'
tp1119
F1
s(S'NP'
S'NADVAVP'
tp1120
F1
s(S'PP'
S'PPAVP'
tp1121
F3
s(S'NP'
S'ADVNMMP'
tp1122
F1
s(S'VP'
S'VVDDDDP'
tp1123
F1
s(S'NP'
S'NNVVVP'
tp1124
F6
s(S'MP'
S'MADVADVVDP'
tp1125
F6
s(S'PP'
S'PPDDDP'
tp1126
F3
s(g148
S'AVPP'
tp1127
F27
s(S'NP'
S'NADVADVMP'
tp1128
F1
s(S'CP'
S'CAADPPP'
tp1129
F2
s(S'DP'
S'DDNNNNP'
tp1130
F2
s(S'VP'
S'VVADVDP'
tp1131
F1
s(S'CP'
S'CDDPPPPP'
tp1132
F2
s(S'CP'
S'CDPPPP'
tp1133
F7
s(S'VP'
S'AVADVADVDP'
tp1134
F1
s(S'VP'
S'VADVADVCCP'
tp1135
F1
s(S'VP'
S'AAVDP'
tp1136
F4
s(S'DP'
S'AADNNP'
tp1137
F1
s(S'NP'
S'AAANNVP'
tp1138
F1
s(S'CP'
S'ACCDP'
tp1139
F1
s(S'NP'
S'NNADVCCP'
tp1140
F1
s(S'AP'
S'AAAPP'
tp1141
F6
s(S'DP'
S'ADPPPP'
tp1142
F1
s(S'VP'
S'ADVVADVAP'
tp1143
F5
s(S'DP'
S'DADVADVPP'
tp1144
F5
s(S'NP'
S'AANVVP'
tp1145
F5
s(S'PP'
S'PPPNP'
tp1146
F15
s(S'NP'
S'NADVAPP'
tp1147
F2
s(S'AP'
S'ADVADVADVAADDP'
tp1148
F1
s(S'NP'
S'AAANPP'
tp1149
F2
s(S'VP'
S'ADVADVADVVNP'
tp1150
F3
s(S'PP'
S'PADVADVNP'
tp1151
F3
s(S'VP'
S'ADVADVVAP'
tp1152
F7
s(g185
S'ADPP'
tp1153
F70
s(S'PP'
S'APAAP'
tp1154
F2
s(S'PP'
S'PPPVVP'
tp1155
F2
s(g141
S'NNADVVVP'
tp1156
F6
s(S'NP'
S'NADVANP'
tp1157
F4
s(g1112
S'VADVPP'
tp1158
F3
s(S'CP'
S'CDDPPP'
tp1159
F15
s(S'NP'
S'NNP'
tp1160
F4
s(S'CP'
S'CCADVDDP'
tp1161
F2
s(S'PP'
S'PVVVVP'
tp1162
F2
s(g168
S'ADVPVP'
tp1163
F9
s(g638
S'NADVADVADVVVP'
tp1164
F11
s(S'AP'
S'ADVADVAVP'
tp1165
F2
s(g1098
S'AAVAAP'
tp1166
F1
s(g429
S'PPCCCP'
tp1167
F1
s(S'PP'
S'PPVVVP'
tp1168
F1
s(S'VP'
S'ADVVANP'
tp1169
F4
s(g321
S'PPPPPPVVP'
tp1170
F1
s(g729
S'ADVPDP'
tp1171
F11
s(S'VP'
S'VVNNNNP'
tp1172
F1
s(g734
S'DDDAVP'
tp1173
F1
s(S'NP'
S'ANNPP'
tp1174
F6
s(S'PP'
S'PPDDDDP'
tp1175
F1
s(g60
S'MVADVAP'
tp1176
F13
s(S'NP'
S'NCP'
tp1177
F803
s(S'MP'
S'MVADVADVVP'
tp1178
F1
s(S'CP'
S'CADVDPPP'
tp1179
F5
s(S'VP'
S'ADVVVPP'
tp1180
F9
s(S'NP'
S'ADVANDP'
tp1181
F1
s(S'AP'
S'AAAP'
tp1182
F9
s(S'CP'
S'CDDADVADVPP'
tp1183
F1
s(S'VP'
S'VAADP'
tp1184
F3
s(S'PP'
S'ADVPDDP'
tp1185
F1
s(S'DP'
S'AAAADNP'
tp1186
F1
s(S'NP'
S'AANDP'
tp1187
F4
s(g319
S'CDAPPP'
tp1188
F1
s(S'MP'
S'MVCCP'
tp1189
F1
s(S'NP'
S'NNCCP'
tp1190
F14
s(S'MP'
S'MNVP'
tp1191
F13
s(S'NP'
S'AANAP'
tp1192
F3
s(g1090
S'ADVADVCCDP'
tp1193
F3
s(S'NP'
S'AANCCP'
tp1194
F1
s(S'MP'
S'MVPPPP'
tp1195
F1
s(S'PP'
S'PADVADVAP'
tp1196
F1
s(S'VP'
p1197
S'VAPP'
tp1198
F27
s(S'MP'
S'MADVVANP'
tp1199
F3
s(S'VP'
S'ADVVDP'
tp1200
F91
s(S'PP'
S'PAACP'
tp1201
F1
s(S'PP'
S'APADVNP'
tp1202
F1
s(S'DP'
S'DADVPP'
tp1203
F29
s(S'AP'
S'AMP'
tp1204
F2
s(g593
S'CCADP'
tp1205
F7
s(S'NP'
S'ADVANVVVP'
tp1206
F1
s(S'DP'
S'ADVDAP'
tp1207
F1
s(S'PP'
S'AAPDDDP'
tp1208
F1
s(S'DP'
S'AADDADVVP'
tp1209
F1
s(g1004
S'ADVAPP'
tp1210
F39
s(S'PP'
S'ADVADVPVVP'
tp1211
F1
s(S'PP'
S'ADVADVPADVNNNP'
tp1212
F1
s(g761
S'ADVDAVP'
tp1213
F2
s(S'AP'
S'ADVADVANP'
tp1214
F3
s(S'CP'
S'AACDP'
tp1215
F8
s(S'NP'
S'NNNCCP'
tp1216
F1
s(S'CP'
S'CAADPPPP'
tp1217
F1
s(S'CP'
S'CCDDDP'
tp1218
F3
s(g219
S'ADVDPPP'
tp1219
F7
s(g68
S'DVP'
tp1220
F896
s(g408
S'NADVADVADVADVVVP'
tp1221
F3
s(S'NP'
S'ADVNPP'
tp1222
F7
s(g290
S'ADVADVADVVVNP'
tp1223
F5
s(S'CP'
S'CDADVADVADVADVPPP'
tp1224
F1
s(S'NP'
S'NNCCCP'
tp1225
F1
s(g330
S'PADVADVDDP'
tp1226
F1
s(S'AP'
S'AVP'
tp1227
F70
s(S'NP'
S'NADVVP'
tp1228
F66
s(S'CP'
S'CDAAAPP'
tp1229
F2
s(g499
S'DDDADVADVANP'
tp1230
F1
s(S'VP'
S'VCCCP'
tp1231
F4
s(S'CP'
S'AAACDP'
tp1232
F1
s(S'VP'
S'ADVVPPP'
tp1233
F1
s(S'DP'
S'DDPPP'
tp1234
F27
s(S'MP'
S'MADVADVADVVDP'
tp1235
F2
s(S'AP'
S'ADVADVADVAPP'
tp1236
F1
s(S'NP'
S'ADVNMP'
tp1237
F14
s(S'NP'
S'NNAP'
tp1238
F26
s(S'DP'
S'AAAADADVPPP'
tp1239
F1
s(S'CP'
S'ADVACADVDP'
tp1240
F1
s(S'MP'
S'MADVVCP'
tp1241
F1
s(S'PP'
S'PPANP'
tp1242
F6
s(S'VP'
S'VVADVADVDP'
tp1243
F1
s(S'NP'
S'NNADVAP'
tp1244
F1
s(g413
S'VNP'
tp1245
F871
s(S'VP'
S'ADVADVADVADVVVDP'
tp1246
F1
s(g1197
S'VANP'
tp1247
F56
s(S'CP'
S'CADVDPP'
tp1248
F32
s(S'VP'
S'VADVAP'
tp1249
F82
s(S'PP'
S'PPADVNP'
tp1250
F2
s(S'PP'
S'AAPVVVP'
tp1251
F1
s(S'DP'
S'DDDDVP'
tp1252
F4
s(g444
S'ADVADVVVDP'
tp1253
F7
s(g526
S'NADVPPP'
tp1254
F1
s.