ccollections
defaultdict
p1
(c__builtin__
float
p2
tRp3
(S'DP'
S'DADVAPP'
tp4
F2
s(S'VP'
S'VVAAAP'
tp5
F1
s(S'PP'
S'PAAANP'
tp6
F2
s(S'DP'
S'ADDPP'
tp7
F1
s(S'DP'
S'DDAP'
tp8
F3
s(S'VP'
S'ADVVVNP'
tp9
F3
s(S'AP'
S'AADDDP'
tp10
F1
s(S'CP'
S'CCDDDDP'
tp11
F1
s(S'AP'
S'AVVVP'
tp12
F1
s(S'PP'
S'PAPP'
tp13
F5
s(S'DP'
p14
S'DDPPPPP'
tp15
F2
s(S'VP'
S'VVADVADVADVNP'
tp16
F1
s(S'DP'
p17
S'DNP'
tp18
F415
s(S'NP'
S'ADVNDP'
tp19
F1
s(S'NP'
S'ADVNPPP'
tp20
F1
s(S'CP'
S'CDPPP'
tp21
F47
s(S'VP'
S'AVADVDDP'
tp22
F1
s(S'VP'
S'VADP'
tp23
F18
s(S'DP'
S'DNNNNP'
tp24
F1
s(S'DP'
p25
S'DAAP'
tp26
F4
s(S'VP'
p27
S'AAVPPP'
tp28
F1
s(S'VP'
p29
S'VAVP'
tp30
F3
s(S'DP'
p31
S'DAADP'
tp32
F1
s(S'DP'
S'ADNNP'
tp33
F3
s(S'VP'
p34
S'VADVVVP'
tp35
F1
s(S'VP'
S'ADVVNP'
tp36
F19
s(S'MP'
S'MVDP'
tp37
F16
s(S'PP'
p38
S'PPPP'
tp39
F19
s(S'VP'
p40
S'VVVVDDP'
tp41
F2
s(S'DP'
S'DDDNP'
tp42
F3
s(S'VP'
S'VACP'
tp43
F6
s(S'AP'
S'AAAVP'
tp44
F1
s(S'DP'
p45
S'DDADVADVDP'
tp46
F1
s(S'DP'
p47
S'DADVVP'
tp48
F9
s(S'VP'
S'ADVADVVDDP'
tp49
F1
s(S'PP'
p50
S'PADVNNP'
tp51
F2
s(S'NP'
S'NDDDP'
tp52
F1
s(S'NP'
S'NCCCP'
tp53
F2
s(S'VP'
p54
S'VCP'
tp55
F120
s(S'NP'
S'NMMP'
tp56
F2
s(S'NP'
S'NANP'
tp57
F1
s(S'VP'
p58
S'ADVVAAP'
tp59
F2
s(S'DP'
p60
S'DDDNNP'
tp61
F2
s(S'PP'
S'PAP'
tp62
F116
s(S'VP'
S'VADVADVAP'
tp63
F3
s(S'PP'
p64
S'ADVPPVP'
tp65
F3
s(S'NP'
S'ANPPP'
tp66
F3
s(S'PP'
S'PPADVDP'
tp67
F1
s(S'PP'
p68
S'PNP'
tp69
F318
s(S'DP'
p70
S'DDP'
tp71
F54
s(S'MP'
S'MADVADVVAP'
tp72
F1
s(S'NP'
p73
S'NNNPP'
tp74
F4
s(S'VP'
S'VCCP'
tp75
F11
s(S'VP'
S'ADVVVDDP'
tp76
F1
s(S'CP'
p77
S'AACCDP'
tp78
F1
s(S'DP'
S'DDAANP'
tp79
F3
s(S'NP'
S'NMP'
tp80
F56
s(S'DP'
S'DDDDPP'
tp81
F2
s(S'NP'
S'NAAAPP'
tp82
F1
s(g38
S'PDP'
tp83
F385
s(S'PP'
p84
S'PADVNP'
tp85
F11
s(S'DP'
S'DADVADVVP'
tp86
F1
s(S'MP'
S'MVVAAAP'
tp87
F1
s(S'AP'
S'ANP'
tp88
F1
s(S'PP'
S'ADVPAAP'
tp89
F1
s(S'PP'
S'PADVPP'
tp90
F1
s(S'NP'
p91
S'NNADVCP'
tp92
F1
s(S'PP'
S'AAPPPP'
tp93
F2
s(g17
S'DPPPP'
tp94
F10
s(S'DP'
S'DDANP'
tp95
F2
s(S'NP'
p96
S'NACP'
tp97
F15
s(S'AP'
S'ADVAVP'
tp98
F2
s(g73
S'NCCP'
tp99
F58
s(S'DP'
S'DADVADVVVP'
tp100
F1
s(S'NP'
S'NNCP'
tp101
F55
s(S'NP'
S'AANPPP'
tp102
F1
s(S'NP'
S'NADVADVVP'
tp103
F3
s(g70
S'DDDDP'
tp104
F2
s(S'DP'
S'DDAPP'
tp105
F5
s(S'VP'
S'AVNP'
tp106
F7
s(S'VP'
S'VVADP'
tp107
F1
s(S'PP'
S'ADVPVVP'
tp108
F1
s(S'DP'
S'ADADVNP'
tp109
F1
s(S'VP'
S'VADVVP'
tp110
F3
s(S'NP'
S'ANADVVP'
tp111
F2
s(S'PP'
S'APADVADVADVDP'
tp112
F1
s(S'NP'
S'NCCCCP'
tp113
F3
s(S'CP'
S'CCCDP'
tp114
F2
s(S'VP'
S'ADVVAP'
tp115
F9
s(S'PP'
p116
S'PPAAPP'
tp117
F1
s(S'PP'
S'APDP'
tp118
F43
s(S'VP'
S'ADVVNNP'
tp119
F1
s(S'NP'
S'NNADVADVADVADVVP'
tp120
F1
s(S'VP'
S'VVANP'
tp121
F4
s(S'VP'
S'VVVVDP'
tp122
F3
s(S'VP'
p123
S'ADVVVP'
tp124
F2
s(S'PP'
S'ADVADVADVPDP'
tp125
F1
s(S'DP'
S'DADVADVADVPP'
tp126
F2
s(S'CP'
S'CCCADP'
tp127
F1
s(S'MP'
S'MADVVNP'
tp128
F2
s(S'PP'
p129
S'PAAP'
tp130
F19
s(S'NP'
S'ADVANCP'
tp131
F1
s(S'DP'
S'DNNP'
tp132
F76
s(S'DP'
p133
S'DPPPPP'
tp134
F3
s(S'CP'
S'CDDPPPP'
tp135
F1
s(S'CP'
S'CCADVDP'
tp136
F2
s(S'VP'
S'ADVADVADVVVDP'
tp137
F1
s(S'VP'
S'AAVDDP'
tp138
F1
s(S'NP'
p139
S'NNNVP'
tp140
F3
s(S'PP'
S'PAAVVP'
tp141
F1
s(S'VP'
S'VADVNNP'
tp142
F1
s(S'PP'
S'PADVVP'
tp143
F9
s(g68
S'APAP'
tp144
F4
s(S'AP'
S'APP'
tp145
F53
s(S'NP'
S'NADVMP'
tp146
F1
s(S'AP'
p147
S'AAP'
tp148
F5
s(S'VP'
S'VADVADVVP'
tp149
F1
s(S'CP'
S'CADVADPP'
tp150
F1
s(S'AP'
S'AAADVDDP'
tp151
F1
s(S'NP'
S'ADVANPP'
tp152
F1
s(S'MP'
S'MVVCP'
tp153
F1
s(S'DP'
p154
S'DAAVP'
tp155
F3
s(g77
S'CDDDDPP'
tp156
F1
s(S'MP'
p157
S'MVVVNP'
tp158
F1
s(S'PP'
S'PAANP'
tp159
F3
s(S'PP'
S'PPVVP'
tp160
F4
s(S'VP'
S'VAACP'
tp161
F1
s(g154
S'ADVDDPP'
tp162
F1
s(S'PP'
S'AADVPADVNNNP'
tp163
F1
s(S'MP'
S'MVNP'
tp164
F15
s(S'DP'
S'ADVADNP'
tp165
F1
s(S'PP'
S'PAVP'
tp166
F14
s(S'MP'
S'ADVMVP'
tp167
F1
s(S'VP'
S'VVVPP'
tp168
F8
s(S'NP'
S'NNADP'
tp169
F1
s(S'DP'
S'DADP'
tp170
F4
s(S'NP'
S'ANMMMP'
tp171
F1
s(S'AP'
S'ADVADP'
tp172
F3
s(S'PP'
S'APDDP'
tp173
F6
s(S'VP'
S'ADVADVVVNP'
tp174
F2
s(S'NP'
p175
S'ADVNAP'
tp176
F2
s(S'DP'
S'ADVDDDP'
tp177
F1
s(S'PP'
S'PPCP'
tp178
F3
s(S'PP'
p179
S'APVP'
tp180
F15
s(S'NP'
S'ADVADVANNVP'
tp181
F2
s(S'PP'
S'ADVPPPP'
tp182
F1
s(S'PP'
S'PPVP'
tp183
F28
s(S'VP'
S'VVCCCCP'
tp184
F1
s(S'VP'
p185
S'VADVDP'
tp186
F3
s(S'VP'
S'VAAP'
tp187
F19
s(S'NP'
S'ANDP'
tp188
F12
s(S'NP'
S'NVVP'
tp189
F93
s(g116
S'AAPVP'
tp190
F1
s(S'PP'
S'PPADP'
tp191
F2
s(S'VP'
S'VVNNP'
tp192
F2
s(S'CP'
p193
S'CDAPP'
tp194
F25
s(S'VP'
p195
S'VVAAP'
tp196
F4
s(g60
S'ADNP'
tp197
F20
s(S'DP'
p198
S'DDADVAP'
tp199
F1
s(S'VP'
S'ADVADVVNP'
tp200
F3
s(S'PP'
S'PADP'
tp201
F20
s(S'VP'
p202
S'ADVVVCP'
tp203
F1
s(S'NP'
S'NADVADVADVVVP'
tp204
F2
s(S'NP'
S'ANDDP'
tp205
F3
s(S'VP'
S'VVVDDP'
tp206
F2
s(g14
S'DAPP'
tp207
F45
s(S'VP'
S'AVVP'
tp208
F1
s(S'VP'
S'VVVVPP'
tp209
F1
s(S'VP'
S'ADVADVVPP'
tp210
F2
s(S'CP'
S'CCCCDDP'
tp211
F1
s(S'VP'
S'ADVADVADVVDP'
tp212
F1
s(g195
S'ADVADVVDP'
tp213
F3
s(S'PP'
S'PPPDP'
tp214
F2
s(S'PP'
S'AAAPDP'
tp215
F1
s(S'MP'
S'MVVAP'
tp216
F1
s(S'VP'
S'VDDDDP'
tp217
F1
s(S'DP'
S'DAAANP'
tp218
F1
s(S'DP'
p219
S'DADVANP'
tp220
F1
s(S'VP'
S'VAAPP'
tp221
F3
s(S'DP'
p222
S'ADVDNP'
tp223
F6
s(S'VP'
S'VVPP'
tp224
F58
s(S'DP'
S'ADADVPP'
tp225
F1
s(g157
S'MVPP'
tp226
F6
s(S'DP'
p227
S'ADVP'
tp228
F6
s(S'CP'
S'CDDPPP'
tp229
F9
s(S'NP'
p230
S'NNPP'
tp231
F21
s(S'NP'
S'AAANDP'
tp232
F1
s(S'DP'
S'DDDDNP'
tp233
F1
s(S'MP'
S'MVVDP'
tp234
F1
s(S'DP'
p235
S'DADVPPP'
tp236
F4
s(S'NP'
p237
S'ANVP'
tp238
F30
s(S'DP'
p239
S'DNNNP'
tp240
F6
s(S'DP'
S'ADVDDVP'
tp241
F3
s(S'PP'
S'PADVADVVP'
tp242
F1
s(S'VP'
S'VADVDDP'
tp243
F2
s(S'PP'
S'PVVVP'
tp244
F7
s(S'PP'
S'PMP'
tp245
F4
s(S'NP'
S'NNMMP'
tp246
F1
s(S'CP'
S'CCDP'
tp247
F103
s(S'DP'
S'ADVADVADVDPP'
tp248
F1
s(S'VP'
S'VADVANP'
tp249
F1
s(S'NP'
S'ADVADVADVNCP'
tp250
F1
s(g175
S'NVVVP'
tp251
F23
s(S'CP'
S'CDDDPP'
tp252
F6
s(S'CP'
p253
S'CDAAPP'
tp254
F4
s(g185
S'VVVDP'
tp255
F12
s(g68
S'PNNNP'
tp256
F3
s(S'CP'
p257
S'CCCCDP'
tp258
F3
s(S'AP'
S'AACCP'
tp259
F1
s(S'CP'
S'CADADVPP'
tp260
F1
s(S'VP'
S'ADVVVDP'
tp261
F1
s(g38
S'PPP'
tp262
F114
s(S'NP'
p263
S'NNADVDP'
tp264
F1
s(S'NP'
p265
S'NAVP'
tp266
F18
s(S'PP'
S'PADVAP'
tp267
F2
s(S'PP'
S'PADDP'
tp268
F1
s(S'DP'
p269
S'ADVDVP'
tp270
F5
s(S'NP'
S'NAAAP'
tp271
F1
s(g96
S'NADVVVP'
tp272
F9
s(g68
S'PPPPDP'
tp273
F1
s(S'MP'
S'MVVVVDP'
tp274
F1
s(S'VP'
S'ADVADVVVPP'
tp275
F1
s(S'CP'
S'ADVADVCCADP'
tp276
F1
s(S'VP'
S'VPP'
tp277
F196
s(g253
S'ADVCCDP'
tp278
F2
s(S'NP'
S'ANADVDDP'
tp279
F1
s(S'DP'
S'ADVDDPPP'
tp280
F1
s(S'DP'
S'ADVDDNP'
tp281
F2
s(S'NP'
S'NNNCP'
tp282
F2
s(S'PP'
p283
S'PADVDP'
tp284
F7
s(S'CP'
S'CDADVAPP'
tp285
F2
s(S'PP'
S'PPPADVADVADVDDP'
tp286
F1
s(S'MP'
S'MADVVAP'
tp287
F2
s(S'CP'
p288
S'CDDPP'
tp289
F38
s(S'DP'
S'DAAPP'
tp290
F7
s(g179
S'PVVP'
tp291
F39
s(S'CP'
S'CADPPP'
tp292
F2
s(S'AP'
S'AACP'
tp293
F10
s(S'VP'
S'ADVVCP'
tp294
F8
s(S'VP'
S'VPPP'
tp295
F28
s(S'VP'
S'AVCCP'
tp296
F1
s(S'DP'
S'ADADVVVP'
tp297
F1
s(S'VP'
p298
S'VVPPP'
tp299
F3
s(g34
S'ADVVVCCP'
tp300
F1
s(S'PP'
S'PPAP'
tp301
F14
s(S'DP'
p302
S'DVVP'
tp303
F39
s(S'DP'
S'DDDADVPPP'
tp304
F1
s(S'NP'
S'ANMP'
tp305
F1
s(S'AP'
S'APPP'
tp306
F3
s(S'PP'
S'ADVPPP'
tp307
F2
s(S'NP'
S'ADVADVNVP'
tp308
F1
s(S'VP'
S'VVVP'
tp309
F7
s(S'CP'
S'CADVDPP'
tp310
F16
s(S'NP'
S'ANCP'
tp311
F36
s(S'DP'
S'DCP'
tp312
F12
s(S'DP'
S'DVVVP'
tp313
F9
s(S'NP'
S'AAANCP'
tp314
F1
s(S'VP'
S'ADVVVVP'
tp315
F1
s(S'NP'
S'NNVVVVP'
tp316
F2
s(g14
S'DDDP'
tp317
F8
s(S'DP'
S'DDADVPP'
tp318
F2
s(S'NP'
S'ANVVP'
tp319
F6
s(S'NP'
S'NVVVVP'
tp320
F4
s(S'NP'
p321
S'NPPP'
tp322
F19
s(g302
S'DAVP'
tp323
F12
s(S'CP'
S'CDADVADVADVPP'
tp324
F2
s(S'AP'
p325
S'ACP'
tp326
F59
s(g50
S'AAPAP'
tp327
F1
s(g84
S'PPNP'
tp328
F39
s(S'NP'
S'NAADP'
tp329
F1
s(S'NP'
S'NNNNCCP'
tp330
F1
s(S'CP'
S'CDDADVPP'
tp331
F1
s(S'AP'
S'AAAADVCP'
tp332
F1
s(g147
S'ADP'
tp333
F324
s(S'PP'
S'ADVPPDDP'
tp334
F1
s(g47
S'DDPPPP'
tp335
F2
s(S'PP'
S'APVVP'
tp336
F2
s(S'DP'
S'ADVADVDDDNP'
tp337
F1
s(S'NP'
S'ADVANCCP'
tp338
F1
s(S'NP'
S'NNNNNNCP'
tp339
F1
s(S'DP'
S'DMP'
tp340
F2
s(S'DP'
S'DVVVVP'
tp341
F1
s(S'AP'
S'AAADP'
tp342
F5
s(S'NP'
p343
S'ANNVP'
tp344
F1
s(g123
S'VVAP'
tp345
F25
s(S'NP'
S'NNAPP'
tp346
F1
s(S'PP'
S'PADVADVDP'
tp347
F1
s(g239
S'ADVADVDNP'
tp348
F1
s(S'VP'
S'AAVCP'
tp349
F1
s(S'NP'
p350
S'NPP'
tp351
F247
s(S'PP'
S'PPPPNP'
tp352
F2
s(S'NP'
S'NVP'
tp353
F411
s(S'PP'
S'PAAVP'
tp354
F2
s(S'NP'
S'NAAPP'
tp355
F1
s(S'PP'
S'PPPPVP'
tp356
F1
s(g40
S'VADVADVADVAAP'
tp357
F1
s(S'NP'
S'AANVVP'
tp358
F2
s(S'AP'
S'ADVADVADVAADP'
tp359
F1
s(S'NP'
S'NADVADVVVP'
tp360
F2
s(g350
S'ANPP'
tp361
F35
s(S'PP'
p362
S'PPPPP'
tp363
F5
s(S'NP'
S'NNNPPPP'
tp364
F1
s(S'DP'
S'DDADVADVADVVVP'
tp365
F1
s(S'MP'
S'MVVPP'
tp366
F3
s(g25
S'ADVDPP'
tp367
F19
s(S'NP'
S'NPPPP'
tp368
F2
s(g227
S'ADDP'
tp369
F2
s(S'CP'
S'CAADPP'
tp370
F4
s(S'DP'
S'DDADVADVPPP'
tp371
F1
s(S'NP'
S'NAACP'
tp372
F4
s(S'PP'
S'PNNP'
tp373
F40
s(S'PP'
S'APNNP'
tp374
F1
s(S'VP'
S'AVAP'
tp375
F5
s(S'MP'
S'MMVP'
tp376
F3
s(S'PP'
S'PADVDDP'
tp377
F1
s(S'NP'
p378
S'ADVNCP'
tp379
F5
s(S'AP'
S'AADP'
tp380
F42
s(S'MP'
S'MPDDP'
tp381
F1
s(S'CP'
S'ACDP'
tp382
F22
s(S'DP'
S'DDADVADVVP'
tp383
F1
s(S'AP'
S'ADVANP'
tp384
F2
s(S'VP'
S'VVNP'
tp385
F30
s(S'NP'
S'NNACP'
tp386
F2
s(S'CP'
S'CDADVPPP'
tp387
F2
s(g54
S'VAP'
tp388
F192
s(S'VP'
S'VVVVNP'
tp389
F3
s(S'DP'
S'DDDPP'
tp390
F10
s(S'CP'
S'ADVCDDP'
tp391
F1
s(S'DP'
S'DDDPPP'
tp392
F1
s(S'AP'
S'AAACP'
tp393
F2
s(S'NP'
S'NAAP'
tp394
F6
s(S'NP'
S'NNDP'
tp395
F3
s(g362
S'PPPVP'
tp396
F6
s(S'AP'
S'AADDP'
tp397
F7
s(S'VP'
S'VAANP'
tp398
F1
s(S'VP'
S'AAVADVDDP'
tp399
F1
s(S'PP'
S'ADVPNNP'
tp400
F1
s(S'DP'
S'ADVADVADVDVP'
tp401
F1
s(S'VP'
S'VVDP'
tp402
F58
s(S'NP'
S'NNNDDP'
tp403
F2
s(S'AP'
S'AAACCP'
tp404
F2
s(g283
S'PANP'
tp405
F28
s(S'PP'
S'PDDDP'
tp406
F3
s(S'AP'
S'AAVP'
tp407
F5
s(S'AP'
S'AVVP'
tp408
F7
s(S'NP'
S'NDDP'
tp409
F14
s(S'AP'
S'ACCP'
tp410
F3
s(S'VP'
S'VVVVAP'
tp411
F1
s(g230
S'NDP'
tp412
F86
s(S'NP'
S'AAANVP'
tp413
F2
s(S'MP'
S'MVAAP'
tp414
F1
s(g133
S'DDVP'
tp415
F39
s(S'DP'
S'DAADVPP'
tp416
F1
s(S'NP'
S'AANVP'
tp417
F8
s(S'VP'
S'VNNNP'
tp418
F3
s(S'PP'
S'PCP'
tp419
F8
s(S'VP'
S'VADVADP'
tp420
F1
s(S'PP'
S'PAADP'
tp421
F2
s(S'DP'
S'ADVADVADVDDNP'
tp422
F1
s(S'NP'
S'ADVANVVP'
tp423
F1
s(S'NP'
S'NNNDP'
tp424
F1
s(S'AP'
S'ADVACP'
tp425
F8
s(g116
S'AAPNNP'
tp426
F1
s(S'VP'
S'VVVAP'
tp427
F5
s(g198
S'ADPPP'
tp428
F5
s(S'MP'
S'MVCP'
tp429
F1
s(g193
S'CCDDP'
tp430
F13
s(g321
S'NNADVVP'
tp431
F2
s(g263
S'ADVANAP'
tp432
F1
s(S'PP'
S'PPAAP'
tp433
F3
s(S'NP'
S'NNNNVP'
tp434
F2
s(S'VP'
S'VVCP'
tp435
F21
s(S'PP'
p436
S'PADVADVPP'
tp437
F1
s(S'NP'
S'AANCP'
tp438
F8
s(S'VP'
S'VADVNP'
tp439
F3
s(S'VP'
S'VVDDDP'
tp440
F1
s(g139
S'NNDDP'
tp441
F1
s(S'VP'
S'ADVVPP'
tp442
F3
s(S'VP'
S'VNNP'
tp443
F29
s(S'AP'
S'AADVDP'
tp444
F4
s(S'NP'
S'NADP'
tp445
F5
s(S'DP'
S'DDNP'
tp446
F53
s(S'NP'
S'NADVCP'
tp447
F4
s(S'DP'
S'DDNNP'
tp448
F7
s(g219
S'ADVDDADVVP'
tp449
F1
s(S'PP'
S'AAPPP'
tp450
F1
s(S'VP'
S'ADVAVPP'
tp451
F1
s(S'PP'
S'APCP'
tp452
F2
s(S'NP'
S'ADVADVNCP'
tp453
F1
s(S'DP'
S'AADPP'
tp454
F5
s(S'AP'
S'AADVADVVP'
tp455
F1
s(S'PP'
S'AAPDP'
tp456
F5
s(S'NP'
S'ANVVVP'
tp457
F1
s(S'DP'
S'DADVADVAP'
tp458
F1
s(S'MP'
S'MADVVDP'
tp459
F1
s(S'PP'
S'ADVAPVP'
tp460
F3
s(S'DP'
S'ADVDNNP'
tp461
F1
s(S'CP'
S'ACDDP'
tp462
F5
s(S'AP'
S'AAPP'
tp463
F5
s(S'AP'
S'ADVADVACCP'
tp464
F1
s(S'VP'
S'VVCCP'
tp465
F7
s(S'PP'
S'APPNP'
tp466
F1
s(S'DP'
S'DADVADVNP'
tp467
F1
s(S'PP'
S'ADVPANP'
tp468
F1
s(S'VP'
S'ADVADVADVADVVCP'
tp469
F1
s(S'VP'
S'VVVCCP'
tp470
F3
s(g378
S'NAPP'
tp471
F18
s(S'AP'
S'ADVADVADP'
tp472
F1
s(S'VP'
S'VVVCP'
tp473
F2
s(S'PP'
S'PADVAPP'
tp474
F1
s(g237
S'ANCCP'
tp475
F18
s(S'NP'
S'AANPP'
tp476
F7
s(S'NP'
S'NNCCP'
tp477
F8
s(S'NP'
S'NNMP'
tp478
F2
s(S'DP'
S'DDDVP'
tp479
F5
s(S'VP'
S'AAVPP'
tp480
F1
s(g50
S'PAAAP'
tp481
F5
s(S'DP'
S'DADVAP'
tp482
F1
s(S'CP'
S'CDDAPP'
tp483
F3
s(S'VP'
S'VVVPPP'
tp484
F2
s(S'NP'
S'ANAP'
tp485
F8
s(g31
S'AADADVPPP'
tp486
F1
s(S'MP'
S'MVAP'
tp487
F4
s(S'PP'
S'PVP'
tp488
F285
s(g269
S'DADVAVP'
tp489
F1
s(g257
S'CCCDDP'
tp490
F1
s(S'AP'
S'ADVADVAPP'
tp491
F1
s(S'DP'
S'DADVAAANP'
tp492
F1
s(S'AP'
S'AADVDDP'
tp493
F1
s(S'AP'
S'ADVAACP'
tp494
F1
s(S'NP'
S'ANNCP'
tp495
F2
s(S'PP'
S'PPADVPP'
tp496
F1
s(S'NP'
S'ADVADVADVNVP'
tp497
F1
s(S'PP'
S'PPDDP'
tp498
F1
s(g29
S'AVCP'
tp499
F6
s(S'MP'
S'MADVVADVADVANP'
tp500
F1
s(g14
S'DPP'
tp501
F516
s(g343
S'ADVNVP'
tp502
F6
s(S'DP'
S'DDDVVP'
tp503
F1
s(g14
S'DDPP'
tp504
F88
s(S'DP'
S'DDAVP'
tp505
F1
s(S'DP'
S'DANP'
tp506
F96
s(S'NP'
S'NADVPP'
tp507
F4
s(S'PP'
S'ADVADVPPNP'
tp508
F1
s(S'NP'
S'AANADVVP'
tp509
F1
s(g343
S'NAAVP'
tp510
F2
s(S'DP'
S'AADNP'
tp511
F3
s(S'CP'
S'CADVADVADVDPP'
tp512
F1
s(S'VP'
S'VADVCP'
tp513
F1
s(S'NP'
S'NADVCCP'
tp514
F2
s(S'NP'
S'NNAACP'
tp515
F1
s(S'NP'
S'NNNVVP'
tp516
F1
s(g64
S'PADVPPP'
tp517
F2
s(S'DP'
S'DCCP'
tp518
F2
s(S'PP'
S'ADVPADVADVDDDP'
tp519
F1
s(S'CP'
S'CDPPPPP'
tp520
F2
s(S'DP'
S'ADVADPP'
tp521
F1
s(S'DP'
S'DDADVVP'
tp522
F1
s(S'PP'
S'PDDP'
tp523
F43
s(S'NP'
S'ADVADVANVVP'
tp524
F1
s(S'MP'
S'MVDDP'
tp525
F2
s(S'PP'
S'PCCP'
tp526
F3
s(S'NP'
S'NNVP'
tp527
F50
s(S'AP'
S'ADVADVACP'
tp528
F1
s(S'VP'
p529
S'AVDP'
tp530
F22
s(S'NP'
S'NNP'
tp531
F2
s(g202
S'VVDDP'
tp532
F7
s(S'DP'
S'DAANP'
tp533
F15
s(S'AP'
S'ADDP'
tp534
F19
s(S'PP'
S'PNNNNP'
tp535
F2
s(S'VP'
p536
S'ADVVVAP'
tp537
F4
s(S'PP'
S'ADVPPNP'
tp538
F3
s(S'NP'
S'ADVNNNVP'
tp539
F1
s(S'CP'
S'CADVADVDPP'
tp540
F1
s(S'CP'
S'ADVADVADVCDP'
tp541
F1
s(S'DP'
p542
S'DPPP'
tp543
F77
s(S'DP'
S'ADVADVDAAP'
tp544
F1
s(S'DP'
S'AADPPP'
tp545
F1
s(g27
S'VANNP'
tp546
F2
s(S'NP'
S'NNAVP'
tp547
F1
s(S'NP'
S'NMMMP'
tp548
F1
s(S'PP'
S'PPNNNP'
tp549
F1
s(S'PP'
S'ADVPNP'
tp550
F9
s(S'PP'
S'PPDP'
tp551
F48
s(S'MP'
S'MAVDP'
tp552
F1
s(S'NP'
S'ANADVADVVP'
tp553
F1
s(g91
S'NAP'
tp554
F58
s(S'NP'
S'NNAAP'
tp555
F1
s(S'VP'
S'VAAAP'
tp556
F3
s(g536
S'ADVVVADVAP'
tp557
F1
s(S'VP'
S'VVP'
tp558
F35
s(S'NP'
S'NNVVP'
tp559
F21
s(g436
S'ADVADVPVP'
tp560
F1
s(g129
S'APNP'
tp561
F12
s(S'VP'
S'VVVNNP'
tp562
F2
s(S'DP'
S'DDDAPP'
tp563
F1
s(S'DP'
S'DDVVP'
tp564
F4
s(S'AP'
S'AAADDP'
tp565
F2
s(S'VP'
S'VVVNP'
tp566
F9
s(S'MP'
S'MVANP'
tp567
F1
s(S'DP'
S'ADVADVDDPP'
tp568
F1
s(g193
S'CDPP'
tp569
F399
s(S'MP'
S'MADVADVVDDP'
tp570
F1
s(S'AP'
S'ADDDP'
tp571
F3
s(S'NP'
S'NNADVADVVVP'
tp572
F2
s(S'VP'
S'VVAANP'
tp573
F1
s(S'MP'
S'MMMVP'
tp574
F1
s(S'CP'
S'ADVCDP'
tp575
F6
s(S'PP'
S'PPPPAP'
tp576
F1
s(S'NP'
S'NADVADVADVCP'
tp577
F1
s(S'NP'
S'NNNNPPP'
tp578
F1
s(S'VP'
S'VADVADVDP'
tp579
F1
s(S'PP'
S'PPNNP'
tp580
F9
s(g45
S'ADVADVDPP'
tp581
F2
s(S'VP'
S'VDP'
tp582
F386
s(S'NP'
S'AANVVVVP'
tp583
F1
s(S'VP'
S'AVDDP'
tp584
F5
s(S'DP'
p585
S'DADVNP'
tp586
F9
s(g302
S'DAP'
tp587
F33
s(S'CP'
S'CADPP'
tp588
F27
s(S'PP'
S'PPAVP'
tp589
F2
s(S'PP'
S'PPDDDP'
tp590
F1
s(S'VP'
S'AVPP'
tp591
F8
s(S'CP'
S'CAADPPP'
tp592
F1
s(S'CP'
S'CDDPPPPP'
tp593
F1
s(S'CP'
S'CDPPPP'
tp594
F5
s(S'VP'
S'VADVADVCCP'
tp595
F1
s(S'VP'
S'AAVDP'
tp596
F3
s(S'VP'
S'VVVVADVNNP'
tp597
F1
s(S'PP'
S'PANNP'
tp598
F1
s(S'PP'
S'APPP'
tp599
F2
s(S'DP'
S'DAPPP'
tp600
F1
s(S'CP'
S'CADVADVDDPP'
tp601
F1
s(S'PP'
S'PPPNP'
tp602
F4
s(S'PP'
S'PADVADVNP'
tp603
F1
s(S'VP'
S'ADVADVVAP'
tp604
F2
s(S'DP'
S'ADPP'
tp605
F42
s(S'NP'
S'NNADVVVP'
tp606
F1
s(S'CP'
S'CCADVDDP'
tp607
F1
s(S'PP'
S'PVVVVP'
tp608
F2
s(S'PP'
S'ADVPVP'
tp609
F5
s(S'DP'
S'DDADVADVADVNP'
tp610
F1
s(S'NP'
S'NNVVVP'
tp611
F2
s(S'VP'
S'ADVVANP'
tp612
F2
s(S'PP'
S'ADVPDP'
tp613
F3
s(S'NP'
S'ADVNNPP'
tp614
F1
s(g73
S'NCP'
tp615
F262
s(S'CP'
S'CADVDPPP'
tp616
F1
s(S'AP'
S'AAAP'
tp617
F1
s(S'VP'
p618
S'VAADP'
tp619
F3
s(S'PP'
S'ADVPDDP'
tp620
F2
s(S'VP'
S'AAVVDP'
tp621
F1
s(g58
S'VDDDP'
tp622
F7
s(S'MP'
S'MNVP'
tp623
F3
s(S'VP'
S'ADVADVADVVVCP'
tp624
F1
s(S'NP'
S'AANCCP'
tp625
F1
s(g298
S'VAPP'
tp626
F13
s(S'VP'
S'VDDP'
tp627
F42
s(S'VP'
S'ADVVDP'
tp628
F15
s(g585
S'DADVPP'
tp629
F16
s(S'CP'
S'CCADP'
tp630
F2
s(S'NP'
S'ADVNNCP'
tp631
F3
s(S'PP'
S'ADVADVADVPNP'
tp632
F1
s(S'AP'
S'ADVAPP'
tp633
F4
s(g235
S'ADVDAVP'
tp634
F1
s(S'CP'
S'AACDP'
tp635
F6
s(S'NP'
S'NNNCCP'
tp636
F1
s(S'CP'
S'CCDDDP'
tp637
F2
s(S'DP'
S'ADVDPPP'
tp638
F1
s(g542
S'DVP'
tp639
F309
s(g265
S'ADVNPP'
tp640
F3
s(g618
S'ADVADVADVVVNP'
tp641
F1
s(S'NP'
S'NNCCCP'
tp642
F2
s(g325
S'AVP'
tp643
F29
s(S'NP'
S'NADVVP'
tp644
F15
s(S'NP'
S'NNADVADVVP'
tp645
F1
s(g222
S'DDPPP'
tp646
F13
s(S'MP'
S'MADVADVADVVDP'
tp647
F1
s(S'NP'
S'ADVNMP'
tp648
F6
s(S'NP'
S'NNAP'
tp649
F7
s(S'VP'
S'ADVADVVVDP'
tp650
F2
s(S'MP'
S'MADVVCP'
tp651
F2
s(S'PP'
S'PPCCP'
tp652
F1
s(g288
S'CDADVPP'
tp653
F11
s(g529
S'VNP'
tp654
F224
s(S'VP'
S'VANP'
tp655
F14
s(S'VP'
S'VADVAP'
tp656
F11
s(S'NP'
S'ADVAAANCP'
tp657
F1
s.