ccollections
defaultdict
p1
(c__builtin__
float
p2
tRp3
(S'DP'
p4
S'DDAP'
tp5
F2
s(S'VP'
p6
S'ADVVVNP'
tp7
F5
s(S'AP'
S'AADDDP'
tp8
F1
s(S'CP'
p9
S'CCDDDDP'
tp10
F1
s(S'DP'
p11
S'DAANNP'
tp12
F1
s(S'AP'
S'AVVVP'
tp13
F1
s(S'PP'
p14
S'PAPP'
tp15
F7
s(S'PP'
p16
S'PADVNP'
tp17
F11
s(S'DP'
p18
S'DNP'
tp19
F220
s(S'NP'
S'ADVNDP'
tp20
F1
s(S'PP'
S'AAPDDP'
tp21
F1
s(S'VP'
S'ADVVNNP'
tp22
F1
s(S'CP'
p23
S'CDPPP'
tp24
F41
s(S'DP'
S'ADVDDVP'
tp25
F1
s(S'VP'
p26
S'VADP'
tp27
F7
s(S'DP'
S'DNNNNP'
tp28
F2
s(S'DP'
S'DAAP'
tp29
F4
s(S'AP'
S'AAADVADVPPP'
tp30
F1
s(S'PP'
S'PPAVP'
tp31
F3
s(S'PP'
S'PPPPPP'
tp32
F2
s(S'PP'
S'APPDP'
tp33
F1
s(S'DP'
S'DAADP'
tp34
F1
s(S'DP'
S'ADNNP'
tp35
F3
s(S'MP'
S'MDVP'
tp36
F2
s(S'DP'
S'ADVADVDPPP'
tp37
F1
s(S'VP'
S'ADVVNP'
tp38
F14
s(S'MP'
p39
S'MVDP'
tp40
F19
s(S'PP'
p41
S'PPPP'
tp42
F23
s(S'VP'
p43
S'VVVVDDP'
tp44
F1
s(S'DP'
S'DDDNP'
tp45
F2
s(S'VP'
p46
S'VACP'
tp47
F7
s(S'PP'
p48
S'PPAAP'
tp49
F2
s(S'DP'
S'DADVVP'
tp50
F6
s(S'VP'
S'ADVVVANP'
tp51
F1
s(S'PP'
p52
S'PADVNNP'
tp53
F2
s(S'AP'
S'AADVPP'
tp54
F1
s(S'VP'
S'AAVVP'
tp55
F1
s(S'NP'
p56
S'NADVVVP'
tp57
F16
s(S'VP'
p58
S'VCP'
tp59
F97
s(S'NP'
S'NMMP'
tp60
F4
s(S'VP'
S'ADVVAAP'
tp61
F1
s(S'PP'
S'ADVPNNP'
tp62
F2
s(g16
S'PAP'
tp63
F70
s(S'MP'
S'MMVVP'
tp64
F1
s(S'VP'
p65
S'VADVADVAP'
tp66
F3
s(S'VP'
S'VADVNP'
tp67
F6
s(S'PP'
p68
S'APVVP'
tp69
F2
s(S'PP'
S'PPADVDP'
tp70
F1
s(S'MP'
p71
S'AMVP'
tp72
F1
s(g48
S'PNP'
tp73
F264
s(g4
S'DDP'
tp74
F29
s(S'VP'
S'ADVVDDP'
tp75
F1
s(S'PP'
S'PAAP'
tp76
F9
s(S'MP'
S'MCDP'
tp77
F1
s(S'MP'
S'AMPP'
tp78
F1
s(S'DP'
S'DADVADVADVPP'
tp79
F2
s(S'NP'
S'NMP'
tp80
F96
s(g48
S'PDP'
tp81
F208
s(S'CP'
S'CCADVADVDP'
tp82
F1
s(S'PP'
S'PPADVVP'
tp83
F1
s(S'NP'
p84
S'ADVNVVP'
tp85
F2
s(S'VP'
S'VVVDDP'
tp86
F1
s(S'DP'
S'ADVDAPPP'
tp87
F1
s(S'CP'
S'CDADVADVPPP'
tp88
F1
s(S'NP'
S'NNADVADVADVVVP'
tp89
F1
s(S'AP'
p90
S'ANP'
tp91
F2
s(S'NP'
S'NADVADVADVVP'
tp92
F1
s(S'PP'
p93
S'PADVPP'
tp94
F1
s(S'NP'
S'ANVVVVP'
tp95
F1
s(S'DP'
S'DPPPP'
tp96
F9
s(S'DP'
p97
S'DDANP'
tp98
F8
s(S'NP'
p99
S'NACP'
tp100
F5
s(S'AP'
S'ADVAVP'
tp101
F2
s(S'NP'
p102
S'NCCP'
tp103
F25
s(S'VP'
S'VVADVCP'
tp104
F1
s(S'AP'
S'ADVAVVVP'
tp105
F1
s(S'NP'
p106
S'NNCP'
tp107
F29
s(S'DP'
S'ADVDDPP'
tp108
F4
s(S'NP'
S'NADVADVVP'
tp109
F1
s(g84
S'NNPPPP'
tp110
F1
s(S'VP'
p111
S'AVNP'
tp112
F8
s(S'VP'
S'VVADP'
tp113
F1
s(S'NP'
p114
S'NNNNADVVVP'
tp115
F1
s(S'AP'
S'AAADVVP'
tp116
F1
s(S'MP'
S'MADVVPPP'
tp117
F1
s(S'MP'
S'MVAAANP'
tp118
F1
s(g93
S'ADVPVVP'
tp119
F1
s(S'PP'
S'PPPPADVNP'
tp120
F1
s(S'VP'
S'ADVADVAVNP'
tp121
F1
s(S'VP'
S'VADVVP'
tp122
F5
s(S'VP'
S'ADVADVADVVNP'
tp123
F1
s(S'MP'
S'MVPPP'
tp124
F2
s(S'AP'
S'AAAAP'
tp125
F1
s(S'CP'
S'CCCDP'
tp126
F2
s(S'VP'
S'ADVVAP'
tp127
F4
s(S'PP'
p128
S'APDP'
tp129
F19
s(S'NP'
S'ADVNPPP'
tp130
F1
s(S'PP'
p131
S'PADVADVADVPP'
tp132
F1
s(S'AP'
p133
S'AADVCP'
tp134
F2
s(S'DP'
S'DDANNP'
tp135
F1
s(S'VP'
p136
S'VVANP'
tp137
F2
s(S'VP'
S'VVVVDP'
tp138
F4
s(S'VP'
S'ADVVVP'
tp139
F3
s(S'CP'
p140
S'CADADVPPP'
tp141
F1
s(S'AP'
S'AANP'
tp142
F1
s(S'MP'
S'MVVVCCP'
tp143
F1
s(S'MP'
S'MADVVNP'
tp144
F5
s(S'CP'
S'CDDADVADVADVPP'
tp145
F1
s(S'MP'
S'MPNNP'
tp146
F1
s(S'NP'
p147
S'ADVANCP'
tp148
F1
s(S'DP'
p149
S'DNNP'
tp150
F32
s(S'CP'
S'CADVDDPP'
tp151
F1
s(S'DP'
S'DPPPPP'
tp152
F5
s(S'CP'
S'CCADVDP'
tp153
F4
s(S'VP'
S'VVACP'
tp154
F2
s(S'VP'
S'AAVDDP'
tp155
F1
s(S'NP'
S'NNNVP'
tp156
F8
s(g14
S'PADVVP'
tp157
F9
s(S'PP'
S'APAP'
tp158
F1
s(S'NP'
S'NNADVADVMP'
tp159
F1
s(S'AP'
p160
S'APP'
tp161
F37
s(S'VP'
S'VAPPP'
tp162
F1
s(g14
S'PPADP'
tp163
F1
s(S'VP'
p164
S'VADVADVVP'
tp165
F3
s(S'VP'
S'VVAPP'
tp166
F1
s(S'NP'
p167
S'NAAACP'
tp168
F1
s(S'DP'
S'DAAVP'
tp169
F2
s(S'CP'
p170
S'CDDDDPP'
tp171
F1
s(S'PP'
S'PAANP'
tp172
F3
s(S'PP'
p173
S'PPVVP'
tp174
F3
s(S'VP'
S'VAACP'
tp175
F1
s(S'MP'
S'MVNP'
tp176
F21
s(S'DP'
S'ADVADVDDVP'
tp177
F1
s(S'AP'
S'ADVAADP'
tp178
F3
s(S'PP'
S'PAVP'
tp179
F9
s(S'VP'
p180
S'VVVPP'
tp181
F7
s(S'AP'
S'ADVACCP'
tp182
F1
s(S'AP'
p183
S'ADVADP'
tp184
F6
s(S'VP'
p185
S'VVADVPP'
tp186
F1
s(S'DP'
S'ADVDDP'
tp187
F2
s(S'PP'
S'APDDP'
tp188
F2
s(g46
S'ADVADVVVNP'
tp189
F5
s(S'PP'
p190
S'PPCP'
tp191
F1
s(S'PP'
S'APVP'
tp192
F11
s(S'VP'
S'ADVADVADVVCP'
tp193
F1
s(S'VP'
S'VVNP'
tp194
F49
s(S'NP'
S'ANNP'
tp195
F1
s(S'PP'
S'PPPNNP'
tp196
F2
s(S'PP'
S'PPVP'
tp197
F32
s(S'VP'
p198
S'VADVDP'
tp199
F6
s(S'VP'
p200
S'VAAP'
tp201
F12
s(S'NP'
S'ANDP'
tp202
F7
s(S'NP'
p203
S'NVVP'
tp204
F74
s(S'PP'
p205
S'AAPVP'
tp206
F3
s(g133
S'AAP'
tp207
F10
s(S'VP'
S'VMP'
tp208
F4
s(g111
S'VVNNP'
tp209
F12
s(S'CP'
p210
S'CDAPP'
tp211
F13
s(S'VP'
p212
S'VVAAP'
tp213
F3
s(S'CP'
S'CADVADPP'
tp214
F1
s(g212
S'ADVADVVVNNP'
tp215
F1
s(S'DP'
S'ADNP'
tp216
F10
s(S'PP'
S'AAPVVP'
tp217
F1
s(S'DP'
S'DDADVAP'
tp218
F1
s(S'PP'
S'PADP'
tp219
F12
s(S'VP'
S'ADVVVCP'
tp220
F2
s(S'CP'
S'CDAAAAPP'
tp221
F1
s(S'NP'
S'ANDDP'
tp222
F3
s(S'DP'
S'ADVADVDVP'
tp223
F2
s(S'DP'
S'DADVAP'
tp224
F2
s(S'DP'
S'DAPP'
tp225
F23
s(S'VP'
S'VVVVPP'
tp226
F2
s(S'PP'
S'ADVADVADVPPP'
tp227
F1
s(S'VP'
S'VADVAAP'
tp228
F1
s(S'DP'
p229
S'DDDDADVNNP'
tp230
F1
s(g164
S'ADVADVVDP'
tp231
F3
s(S'PP'
p232
S'PPPDP'
tp233
F2
s(S'DP'
S'DAAPPP'
tp234
F1
s(S'DP'
p235
S'DAAANP'
tp236
F1
s(S'VP'
p237
S'VAAPP'
tp238
F1
s(S'DP'
S'ADVDNP'
tp239
F3
s(g198
S'VVPP'
tp240
F27
s(S'CP'
S'AACDDP'
tp241
F1
s(S'MP'
S'MVPP'
tp242
F9
s(S'CP'
S'CADVADVDDPP'
tp243
F1
s(S'CP'
S'CDDPPP'
tp244
F2
s(S'CP'
S'ADVADVADVCDDP'
tp245
F1
s(S'VP'
S'ADVADVADVVVANP'
tp246
F1
s(g106
S'NNPP'
tp247
F18
s(S'DP'
S'DDDDNP'
tp248
F1
s(S'MP'
S'MVVDP'
tp249
F2
s(S'DP'
p250
S'DADVPPP'
tp251
F5
s(g106
S'ANVP'
tp252
F19
s(S'DP'
S'DNNNP'
tp253
F2
s(S'DP'
S'DDDAP'
tp254
F1
s(S'PP'
p255
S'PADVADVVP'
tp256
F2
s(S'VP'
S'VADVDDP'
tp257
F1
s(S'PP'
S'PVVVP'
tp258
F7
s(g68
S'PMP'
tp259
F4
s(S'NP'
S'NNMMP'
tp260
F1
s(S'CP'
p261
S'CCDP'
tp262
F53
s(S'NP'
p263
S'ADVNNDP'
tp264
F1
s(S'VP'
S'VADVANP'
tp265
F3
s(S'PP'
p266
S'ADVADVPPPP'
tp267
F1
s(S'NP'
S'NVVVP'
tp268
F17
s(S'CP'
S'CDDDPP'
tp269
F4
s(S'CP'
S'CDAAPP'
tp270
F2
s(S'VP'
S'VVVDP'
tp271
F11
s(S'PP'
p272
S'PDDDDP'
tp273
F1
s(S'PP'
S'PNNNP'
tp274
F6
s(S'MP'
S'MVVVAP'
tp275
F1
s(g23
S'CCCCDP'
tp276
F2
s(S'PP'
p277
S'AAPNP'
tp278
F2
s(g48
S'PPP'
tp279
F82
s(S'NP'
p280
S'NAVP'
tp281
F15
s(S'PP'
p282
S'PADVAP'
tp283
F2
s(S'MP'
S'AMDP'
tp284
F1
s(g97
S'ADVDVP'
tp285
F1
s(S'PP'
S'PPADVADVNP'
tp286
F2
s(S'NP'
S'NAAAP'
tp287
F2
s(S'AP'
S'AADVVVP'
tp288
F1
s(S'DP'
p289
S'DADVADVPPP'
tp290
F1
s(S'VP'
S'VAAAAP'
tp291
F1
s(g136
S'VPP'
tp292
F151
s(S'CP'
S'ADVCCDP'
tp293
F4
s(S'MP'
S'ADVADVMVP'
tp294
F2
s(S'DP'
S'ADVDDNP'
tp295
F1
s(S'NP'
p296
S'NNNCP'
tp297
F4
s(g128
S'PADVDP'
tp298
F3
s(S'CP'
S'CDADVAPP'
tp299
F1
s(S'DP'
S'DANNP'
tp300
F1
s(S'MP'
S'MADVVAP'
tp301
F1
s(S'PP'
S'PADVAAP'
tp302
F1
s(g210
S'CDDPP'
tp303
F28
s(S'DP'
p304
S'DAAPP'
tp305
F4
s(g48
S'PVVP'
tp306
F21
s(g133
S'AACP'
tp307
F7
s(S'VP'
S'ADVVCP'
tp308
F4
s(S'VP'
S'VPPP'
tp309
F18
s(S'VP'
S'ADVADVVVCCP'
tp310
F1
s(S'NP'
p311
S'NADVADVAVP'
tp312
F1
s(g6
S'VVPPP'
tp313
F1
s(S'NP'
S'NANP'
tp314
F1
s(g18
S'DVVP'
tp315
F27
s(S'NP'
S'ANMP'
tp316
F5
s(g190
S'PPAP'
tp317
F10
s(S'PP'
S'ADVPPP'
tp318
F2
s(S'NP'
S'ADVADVNVP'
tp319
F4
s(S'VP'
S'VVVP'
tp320
F7
s(g97
S'DDPPPP'
tp321
F2
s(S'NP'
S'ANCP'
tp322
F14
s(g97
S'DCP'
tp323
F16
s(S'NP'
S'ANNCP'
tp324
F2
s(S'VP'
S'ADVVCCP'
tp325
F1
s(g311
S'NNVVVVP'
tp326
F2
s(g11
S'DDDP'
tp327
F5
s(S'NP'
p328
S'NADVADVADVDDP'
tp329
F1
s(g149
S'DDADVPP'
tp330
F2
s(S'MP'
S'MVVVVNP'
tp331
F2
s(S'MP'
S'MAADP'
tp332
F1
s(S'NP'
p333
S'ANVVP'
tp334
F6
s(S'PP'
p335
S'PPPNNNP'
tp336
F1
s(S'NP'
S'NVVVVP'
tp337
F7
s(S'NP'
S'NPPP'
tp338
F16
s(S'PP'
S'PPAPP'
tp339
F1
s(S'AP'
S'APPP'
tp340
F4
s(g235
S'DAVP'
tp341
F10
s(S'VP'
S'AVVVP'
tp342
F2
s(S'CP'
S'CDADVADVADVPP'
tp343
F1
s(S'AP'
S'ADVAADVADVDP'
tp344
F1
s(g160
S'ACP'
tp345
F27
s(g14
S'PPNP'
tp346
F33
s(S'VP'
S'VVVVNNP'
tp347
F1
s(S'DP'
S'ADVP'
tp348
F5
s(S'AP'
p349
S'ADP'
tp350
F221
s(S'DP'
S'DDADVVP'
tp351
F1
s(S'DP'
S'DDAVP'
tp352
F2
s(g263
S'ANPPP'
tp353
F4
s(S'VP'
S'AAVDP'
tp354
F1
s(g14
S'PPPAVP'
tp355
F1
s(S'VP'
S'VAAANP'
tp356
F1
s(S'DP'
S'DVVVVP'
tp357
F1
s(S'PP'
S'PPPPNNP'
tp358
F1
s(g200
S'AVDP'
tp359
F17
s(S'NP'
S'ANNVP'
tp360
F1
s(S'VP'
S'VVAP'
tp361
F11
s(S'NP'
S'NNAPP'
tp362
F1
s(S'PP'
S'PADVADVDP'
tp363
F1
s(S'VP'
p364
S'ADVADVVPPP'
tp365
F1
s(g106
S'NPP'
tp366
F180
s(S'DP'
S'ADVADVADVDDPP'
tp367
F1
s(g106
S'NVP'
tp368
F350
s(S'PP'
S'PPVVVP'
tp369
F1
s(g52
S'PAAVP'
tp370
F1
s(g167
S'NAAPP'
tp371
F1
s(g185
S'VDDP'
tp372
F25
s(S'DP'
S'DMP'
tp373
F1
s(S'DP'
S'DADVAPP'
tp374
F1
s(g102
S'NADVADVVVP'
tp375
F6
s(S'NP'
p376
S'ANPP'
tp377
F31
s(g282
S'ADVPPDP'
tp378
F2
s(S'PP'
S'PPPPP'
tp379
F5
s(S'MP'
S'MVVPP'
tp380
F2
s(g128
S'PPPNP'
tp381
F3
s(S'NP'
p382
S'NNMMMP'
tp383
F1
s(S'DP'
p384
S'DDDDDP'
tp385
F1
s(S'PP'
S'PPVVVVP'
tp386
F2
s(S'AP'
S'ADVADVAVP'
tp387
F1
s(g149
S'ADDP'
tp388
F2
s(S'NP'
S'NADVAAP'
tp389
F1
s(S'NP'
p390
S'NNCCCCP'
tp391
F1
s(S'CP'
p392
S'CAADPP'
tp393
F2
s(g263
S'NAACP'
tp394
F2
s(g16
S'PNNP'
tp395
F47
s(S'PP'
S'APNNP'
tp396
F1
s(S'VP'
S'AVAP'
tp397
F2
s(S'MP'
S'MMVP'
tp398
F1
s(S'PP'
S'PADVDDP'
tp399
F2
s(S'PP'
S'PCCP'
tp400
F2
s(S'AP'
S'AADP'
tp401
F33
s(S'MP'
S'MMMADVADVVVP'
tp402
F1
s(g9
S'ACDP'
tp403
F13
s(S'NP'
S'NNDP'
tp404
F6
s(S'AP'
S'ADVANP'
tp405
F3
s(S'NP'
p406
S'NNACP'
tp407
F2
s(S'VP'
p408
S'ADVVVAAP'
tp409
F1
s(S'CP'
S'CDADVPPP'
tp410
F5
s(g136
S'VAP'
tp411
F140
s(S'VP'
S'VVVVNP'
tp412
F8
s(S'DP'
S'DDDPP'
tp413
F6
s(S'CP'
S'ADVCDDP'
tp414
F1
s(g205
S'PAAPP'
tp415
F5
s(S'MP'
S'MVVVDP'
tp416
F3
s(S'NP'
S'ADVANMMP'
tp417
F1
s(S'AP'
p418
S'AAACP'
tp419
F2
s(g111
S'ADVVVDP'
tp420
F6
s(g173
S'PPPVP'
tp421
F2
s(S'AP'
S'AADDP'
tp422
F5
s(S'NP'
S'NNNADVADVVP'
tp423
F1
s(S'VP'
p424
S'VADVADVADVCP'
tp425
F1
s(S'VP'
S'VAANP'
tp426
F2
s(S'DP'
S'DAAAAPP'
tp427
F1
s(S'MP'
S'MADVADVADVVNP'
tp428
F1
s(S'VP'
S'ADVADVADVADVVDP'
tp429
F1
s(S'MP'
S'MMVVVVP'
tp430
F1
s(g136
S'VVDP'
tp431
F38
s(S'MP'
S'MADP'
tp432
F7
s(g255
S'PPPDDP'
tp433
F1
s(S'DP'
S'DDADVNP'
tp434
F1
s(g232
S'PANP'
tp435
F9
s(S'PP'
S'PDDDP'
tp436
F2
s(S'NP'
S'AAANDDP'
tp437
F1
s(S'DP'
S'ADVADPP'
tp438
F1
s(S'AP'
S'AVVP'
tp439
F4
s(S'NP'
S'NDDP'
tp440
F3
s(S'MP'
S'MVADVDP'
tp441
F1
s(S'AP'
S'ACCP'
tp442
F6
s(g418
S'APPPP'
tp443
F1
s(g376
S'NDP'
tp444
F56
s(S'NP'
S'NNNNVVP'
tp445
F2
s(S'NP'
S'NADVADVADVVVP'
tp446
F1
s(S'DP'
S'DDVP'
tp447
F21
s(S'DP'
p448
S'ADVDACP'
tp449
F1
s(S'DP'
p450
S'ADADVPPP'
tp451
F1
s(S'NP'
S'AANVP'
tp452
F2
s(S'VP'
S'ADVVVNNP'
tp453
F1
s(S'VP'
S'VNNNP'
tp454
F2
s(S'MP'
S'MMVVVP'
tp455
F1
s(g68
S'PCP'
tp456
F14
s(S'NP'
S'NNPPP'
tp457
F2
s(S'CP'
S'ACADVDDP'
tp458
F1
s(S'NP'
S'ADVNNVP'
tp459
F2
s(g11
S'ADVADVADVDDNP'
tp460
F1
s(g237
S'VPPPP'
tp461
F1
s(S'NP'
S'ANNPP'
tp462
F1
s(g424
S'VCCP'
tp463
F15
s(S'MP'
S'MPAP'
tp464
F1
s(g183
S'AADVAP'
tp465
F1
s(S'AP'
S'ADVACP'
tp466
F1
s(g266
S'AAPNNP'
tp467
F1
s(S'VP'
S'VVVAP'
tp468
F4
s(S'DP'
p469
S'ADPPP'
tp470
F1
s(S'MP'
S'MVCP'
tp471
F5
s(S'CP'
S'CCDDP'
tp472
F3
s(S'NP'
S'NNADVVP'
tp473
F7
s(S'NP'
S'NAAP'
tp474
F7
s(g376
S'NNVVP'
tp475
F18
s(S'NP'
S'NNNNVP'
tp476
F1
s(S'VP'
p477
S'VVCP'
tp478
F20
s(g114
S'AANCP'
tp479
F4
s(g180
S'VAADP'
tp480
F3
s(g43
S'VVDDDP'
tp481
F1
s(S'AP'
S'ADVAVVP'
tp482
F1
s(g14
S'APPP'
tp483
F3
s(g180
S'ADVVPP'
tp484
F5
s(S'AP'
S'AAAADDP'
tp485
F1
s(g136
S'VNNP'
tp486
F34
s(S'AP'
S'AADVDP'
tp487
F1
s(g56
S'NADP'
tp488
F1
s(S'DP'
S'DCCP'
tp489
F1
s(g450
S'DDNP'
tp490
F29
s(S'CP'
S'ACADVDP'
tp491
F1
s(S'NP'
p492
S'NADVCP'
tp493
F2
s(S'DP'
S'DDNNP'
tp494
F2
s(S'NP'
S'ADVNCP'
tp495
F2
s(S'PP'
S'APCP'
tp496
F1
s(S'NP'
S'ADVADVNCP'
tp497
F1
s(S'DP'
S'DADVADVNNP'
tp498
F1
s(g469
S'AADPP'
tp499
F3
s(S'VP'
S'VVVAAP'
tp500
F1
s(S'NP'
S'NNNP'
tp501
F1
s(S'MP'
S'MADVVDP'
tp502
F2
s(S'MP'
S'MVVNP'
tp503
F4
s(g210
S'ACDDP'
tp504
F3
s(S'NP'
S'ADVADVNNCP'
tp505
F1
s(S'AP'
S'AAPP'
tp506
F3
s(S'VP'
S'VVCCP'
tp507
F3
s(S'VP'
S'ADVADVVVAAP'
tp508
F2
s(S'DP'
S'DADVVVP'
tp509
F2
s(g41
S'ADVPANP'
tp510
F1
s(S'VP'
S'VVVCCP'
tp511
F2
s(g333
S'NAPP'
tp512
F6
s(g272
S'APPVP'
tp513
F2
s(S'AP'
S'ADVADVADP'
tp514
F2
s(S'NP'
S'NADVDP'
tp515
F3
s(S'MP'
S'MVADVADVAP'
tp516
F1
s(S'VP'
S'VVVCP'
tp517
F2
s(g203
S'ANCCP'
tp518
F3
s(S'NP'
S'AANPP'
tp519
F2
s(S'VP'
S'VDDDP'
tp520
F4
s(S'NP'
S'NNMP'
tp521
F10
s(S'DP'
S'DDDVP'
tp522
F3
s(S'PP'
S'PAAAP'
tp523
F1
s(S'PP'
S'ADVADVPNP'
tp524
F1
s(S'PP'
S'PPPAP'
tp525
F1
s(S'CP'
S'CDDAPP'
tp526
F1
s(S'VP'
S'VVVPPP'
tp527
F2
s(S'NP'
S'ANAP'
tp528
F3
s(g39
S'MVAP'
tp529
F19
s(g48
S'PVP'
tp530
F159
s(S'AP'
S'ADVADVAPP'
tp531
F2
s(S'VP'
p532
S'VVAAAAP'
tp533
F1
s(S'VP'
S'VADVCCP'
tp534
F2
s(S'PP'
S'APPNNP'
tp535
F1
s(S'DP'
S'DVVVP'
tp536
F3
s(S'PP'
S'PPADVPP'
tp537
F1
s(g328
S'AANNPPP'
tp538
F1
s(S'NP'
S'NNADVADVPPP'
tp539
F1
s(S'PP'
p540
S'PPDDP'
tp541
F9
s(S'VP'
S'AVCP'
tp542
F2
s(S'DP'
S'DDVVVP'
tp543
F1
s(g18
S'DPP'
tp544
F321
s(S'DP'
S'ADVVP'
tp545
F1
s(g296
S'ADVNVP'
tp546
F11
s(S'MP'
S'MMADVADVVVP'
tp547
F1
s(S'DP'
S'DDPP'
tp548
F51
s(S'DP'
p549
S'DANP'
tp550
F54
s(S'PP'
S'AAPPVP'
tp551
F1
s(S'DP'
S'AADNP'
tp552
F1
s(g58
S'VADVCP'
tp553
F3
s(g492
S'NADVCCP'
tp554
F2
s(g114
S'NNAACP'
tp555
F1
s(g4
S'ADDPPP'
tp556
F1
s(S'NP'
S'ADVADVNMP'
tp557
F2
s(g68
S'ADVADVPPP'
tp558
F1
s(S'PP'
S'PPPPNP'
tp559
F2
s(g277
S'AAPDP'
tp560
F5
s(S'CP'
S'CADAPPP'
tp561
F1
s(g532
S'AVVDP'
tp562
F1
s(g128
S'PDDP'
tp563
F36
s(S'PP'
S'PPADVADVAVP'
tp564
F1
s(S'MP'
S'MVDDP'
tp565
F1
s(S'NP'
S'NNNADVVP'
tp566
F1
s(S'NP'
S'NNVP'
tp567
F73
s(S'PP'
S'APAAP'
tp568
F1
s(S'PP'
S'ADVADVADVPNP'
tp569
F2
s(g167
S'NNP'
tp570
F3
s(S'VP'
S'VVDDP'
tp571
F4
s(g304
S'DAANP'
tp572
F7
s(g133
S'ADDP'
tp573
F16
s(S'VP'
p574
S'ADVADVADVVNNP'
tp575
F1
s(g48
S'PNNNNP'
tp576
F1
s(S'VP'
S'ADVVVAP'
tp577
F2
s(g52
S'ADVPPNP'
tp578
F6
s(g574
S'VADVADVADVVP'
tp579
F1
s(S'CP'
S'CADVADVDPP'
tp580
F1
s(g18
S'DPPP'
tp581
F65
s(S'NP'
S'ADVANADVADVVVP'
tp582
F1
s(S'DP'
S'AADPPP'
tp583
F1
s(S'PP'
S'ADVADVPPNP'
tp584
F3
s(g147
S'NNAVP'
tp585
F1
s(S'NP'
S'NMMMP'
tp586
F2
s(g190
S'ADVPNP'
tp587
F2
s(g41
S'PPDP'
tp588
F24
s(S'MP'
S'MAVDP'
tp589
F1
s(g261
S'CADDPPP'
tp590
F1
s(g131
S'ADVADVADVPVP'
tp591
F1
s(S'NP'
p592
S'AAANMP'
tp593
F1
s(S'PP'
S'PPADVDDP'
tp594
F1
s(S'MP'
p595
S'MMAVP'
tp596
F1
s(S'NP'
S'NAP'
tp597
F48
s(S'VP'
S'VAAAP'
tp598
F1
s(g349
S'AACCCCP'
tp599
F1
s(g477
S'VVP'
tp600
F24
s(S'DP'
S'DDAPP'
tp601
F3
s(S'AP'
S'AAADP'
tp602
F4
s(S'PP'
S'APNP'
tp603
F4
s(S'VP'
S'VVVNNP'
tp604
F2
s(g384
S'DDVVP'
tp605
F7
s(S'VP'
S'VVVNP'
tp606
F9
s(g364
S'AVPPPP'
tp607
F1
s(g406
S'NAMP'
tp608
F2
s(g71
S'MVANP'
tp609
F3
s(g448
S'ADVADVDDPP'
tp610
F1
s(S'MP'
S'MVNNP'
tp611
F1
s(g23
S'CDPP'
tp612
F243
s(S'NP'
S'NNCCCP'
tp613
F1
s(S'AP'
S'ADDDP'
tp614
F1
s(g382
S'NNADVADVVVP'
tp615
F2
s(S'DP'
S'ADVDVVP'
tp616
F1
s(S'MP'
S'MMMVP'
tp617
F2
s(g43
S'ADVADVAVCP'
tp618
F1
s(g170
S'ADVCDP'
tp619
F7
s(g90
S'ADVAAP'
tp620
F1
s(S'VP'
S'ADVADVVNP'
tp621
F2
s(g106
S'NNNNPPP'
tp622
F1
s(g48
S'PPNNP'
tp623
F5
s(S'PP'
S'ADVAPPP'
tp624
F1
s(S'VP'
S'VADVADVNP'
tp625
F2
s(S'DP'
S'ADVADVDPP'
tp626
F2
s(g136
S'VDP'
tp627
F251
s(S'NP'
S'NADVAP'
tp628
F2
s(S'VP'
S'AVDDP'
tp629
F3
s(g289
S'DADVNP'
tp630
F3
s(g149
S'DAP'
tp631
F34
s(g392
S'CADPP'
tp632
F13
s(S'CP'
S'CADVDDADVPP'
tp633
F1
s(g26
S'ADVADVVVPP'
tp634
F1
s(g408
S'VVDDDDP'
tp635
F1
s(g229
S'ADAPPP'
tp636
F1
s(S'DP'
S'DADVADVADVADVVP'
tp637
F1
s(S'PP'
S'PPDDDP'
tp638
F1
s(S'VP'
S'AVPP'
tp639
F6
s(S'NP'
S'NADVADVMP'
tp640
F1
s(S'PP'
S'PAVVP'
tp641
F1
s(S'CP'
S'CDPPPP'
tp642
F6
s(S'DP'
S'ADVDAAPP'
tp643
F3
s(S'PP'
S'PANNP'
tp644
F1
s(S'AP'
S'AAAPP'
tp645
F1
s(g304
S'DAPPP'
tp646
F1
s(g250
S'DADVADVPP'
tp647
F3
s(g390
S'AANVVP'
tp648
F2
s(g450
S'ADVDPP'
tp649
F26
s(S'VP'
S'VANNP'
tp650
F1
s(S'PP'
S'PADVADVNP'
tp651
F3
s(S'CP'
p652
S'CADVDAAPP'
tp653
F2
s(g469
S'ADPP'
tp654
F16
s(S'AP'
S'AAAAVP'
tp655
F1
s(S'NP'
S'NNADVVVP'
tp656
F1
s(S'VP'
S'VADVPP'
tp657
F2
s(g16
S'ADVPVP'
tp658
F6
s(g549
S'DDDDPP'
tp659
F2
s(g229
S'ADMP'
tp660
F1
s(S'NP'
S'NNVVVP'
tp661
F4
s(S'PP'
S'PAMP'
tp662
F1
s(g14
S'ADVPDP'
tp663
F4
s(S'PP'
S'PPPVVP'
tp664
F2
s(g595
S'MVADVAP'
tp665
F4
s(g106
S'NCP'
tp666
F141
s(S'VP'
S'ADVVVPP'
tp667
F2
s(S'PP'
S'PPADVNNP'
tp668
F1
s(S'CP'
S'CCADVADVADVDDP'
tp669
F1
s(S'PP'
S'AAAAPVP'
tp670
F1
s(S'DP'
S'DADVNNP'
tp671
F2
s(g99
S'NNCCP'
tp672
F1
s(S'MP'
S'MNVP'
tp673
F3
s(S'MP'
S'MVADVADVVP'
tp674
F1
s(S'PP'
S'PADVADVAP'
tp675
F2
s(S'VP'
S'VAPP'
tp676
F4
s(S'NP'
S'NCCCP'
tp677
F1
s(g200
S'ADVVDP'
tp678
F9
s(S'DP'
S'DDADVADVADVPP'
tp679
F1
s(S'DP'
S'ADVDDADVPP'
tp680
F1
s(g549
S'DADVPP'
tp681
F10
s(g392
S'CCADP'
tp682
F2
s(g56
S'ADVNNCP'
tp683
F2
s(S'DP'
S'ADVDAP'
tp684
F1
s(g540
S'AAPDDDP'
tp685
F1
s(S'AP'
S'ADVAPP'
tp686
F8
s(g652
S'AACDP'
tp687
F4
s(S'DP'
S'ADVDPPP'
tp688
F2
s(g18
S'DVP'
tp689
F207
s(S'VP'
S'AVNNP'
tp690
F2
s(g280
S'ADVNPP'
tp691
F2
s(S'VP'
S'ADVADVADVVVNP'
tp692
F1
s(S'CP'
S'AAACDP'
tp693
F1
s(S'PP'
S'PADVADVDDP'
tp694
F1
s(S'AP'
S'AVP'
tp695
F21
s(S'NP'
S'NADVVP'
tp696
F8
s(S'VP'
S'ADVVPPP'
tp697
F1
s(S'DP'
S'DDPPP'
tp698
F9
s(g376
S'ADVNMP'
tp699
F4
s(g106
S'NNAP'
tp700
F4
s(g592
S'NNADVPPP'
tp701
F1
s(S'MP'
S'MADVVCP'
tp702
F1
s(S'PP'
S'PPANP'
tp703
F3
s(S'VP'
S'VVADVADVDP'
tp704
F1
s(S'PP'
S'PPCCP'
tp705
F1
s(g170
S'CDADVPP'
tp706
F7
s(S'VP'
S'VNP'
tp707
F192
s(g65
S'VANP'
tp708
F16
s(g140
S'CADVDPP'
tp709
F20
s(S'VP'
S'VADVAP'
tp710
F19
s(g335
S'PPADVNP'
tp711
F1
s(S'VP'
S'ADVADVVVDP'
tp712
F2
s(S'NP'
S'NADVPPP'
tp713
F1
s.