ccollections
defaultdict
p1
(c__builtin__
float
p2
tRp3
(S'DP'
S'DDPP'
tp4
F18
s(S'PP'
S'PPCP'
tp5
F1
s(S'DP'
S'DANP'
tp6
F8
s(S'PP'
S'APVP'
tp7
F1
s(S'PP'
p8
S'PPVVVVVP'
tp9
F1
s(S'NP'
p10
S'ANPP'
tp11
F5
s(S'PP'
S'AAPNP'
tp12
F1
s(g8
S'PPPPP'
tp13
F1
s(S'PP'
p14
S'ADVADVPDP'
tp15
F1
s(S'VP'
p16
S'VVNP'
tp17
F6
s(S'NP'
S'NADVCP'
tp18
F1
s(S'PP'
p19
S'PPPNP'
tp20
F2
s(S'PP'
S'AAPDDP'
tp21
F1
s(S'PP'
p22
S'PPVP'
tp23
F9
s(S'DP'
p24
S'DDAP'
tp25
F1
s(S'VP'
S'VVADVADVANP'
tp26
F1
s(S'PP'
p27
S'ADVPADVAVP'
tp28
F1
s(S'NP'
S'ADVADVANVP'
tp29
F1
s(S'VP'
p30
S'VADVDP'
tp31
F1
s(S'VP'
S'VVVVP'
tp32
F1
s(S'PP'
p33
S'PADVANP'
tp34
F1
s(S'NP'
p35
S'NADDP'
tp36
F1
s(S'DP'
S'DDP'
tp37
F9
s(g22
S'PADVNP'
tp38
F3
s(S'NP'
S'NVVP'
tp39
F8
s(S'DP'
p40
S'DNP'
tp41
F70
s(g8
S'PNNP'
tp42
F16
s(S'AP'
S'ADVACP'
tp43
F1
s(S'CP'
S'CDAPP'
tp44
F2
s(S'NP'
S'NNAAAAP'
tp45
F1
s(S'CP'
p46
S'CDPPP'
tp47
F12
s(S'NP'
p48
S'ADVANCCP'
tp49
F1
s(S'DP'
S'ADPPP'
tp50
F1
s(S'DP'
S'ADNP'
tp51
F3
s(S'DP'
S'DCCP'
tp52
F1
s(S'DP'
p53
S'AAAADPP'
tp54
F1
s(S'VP'
p55
S'VADP'
tp56
F4
s(S'PP'
p57
S'PADP'
tp58
F1
s(S'NP'
p59
S'ADVNCP'
tp60
F3
s(S'PP'
p61
S'AAPDP'
tp62
F1
s(S'AP'
p63
S'AADP'
tp64
F4
s(S'DP'
p65
S'DDCP'
tp66
F1
s(g61
S'PDDP'
tp67
F9
s(S'CP'
S'ACDP'
tp68
F2
s(S'VP'
p69
S'VADVVVP'
tp70
F1
s(g55
S'VVVDDP'
tp71
F1
s(S'NP'
p72
S'NNNCP'
tp73
F1
s(S'NP'
p74
S'NNACP'
tp75
F2
s(S'MP'
S'MDVP'
tp76
F1
s(S'DP'
p77
S'DAPP'
tp78
F5
s(S'VP'
p79
S'VAP'
tp80
F27
s(S'VP'
p81
S'ADVVNP'
tp82
F3
s(S'MP'
S'MVDP'
tp83
F3
s(S'DP'
p84
S'DDDPP'
tp85
F3
s(S'VP'
S'AVDP'
tp86
F3
s(S'PP'
S'PPPP'
tp87
F1
s(g63
S'ADVAPPP'
tp88
F2
s(S'VP'
S'ADVADVADVVDP'
tp89
F1
s(S'PP'
S'PPAAP'
tp90
F1
s(S'DP'
S'DAANP'
tp91
F6
s(S'AP'
S'ADDP'
tp92
F5
s(g40
S'DDDPPP'
tp93
F1
s(S'DP'
S'DADVVP'
tp94
F3
s(S'DP'
p95
S'ADAP'
tp96
F1
s(S'VP'
S'VVPPPP'
tp97
F1
s(S'DP'
p98
S'DANNP'
tp99
F1
s(S'NP'
p100
S'NNNCCCP'
tp101
F1
s(S'DP'
S'DAAANP'
tp102
F1
s(S'DP'
p103
S'DADVANP'
tp104
F1
s(S'VP'
S'VAAPP'
tp105
F2
s(g40
S'DPPP'
tp106
F21
s(S'DP'
S'ADVDNP'
tp107
F1
s(g10
S'NCCCP'
tp108
F1
s(g79
S'VCP'
tp109
F16
s(S'NP'
S'AANCCP'
tp110
F3
s(S'DP'
S'AADPPP'
tp111
F1
s(S'NP'
S'NDDP'
tp112
F3
s(S'NP'
p113
S'NNAVP'
tp114
F1
s(S'VP'
p115
S'ADVVAAP'
tp116
F1
s(S'NP'
S'NAVP'
tp117
F2
s(S'DP'
S'ADVP'
tp118
F4
s(S'VP'
p119
S'ADVVCCP'
tp120
F1
s(S'NP'
S'ANADVVP'
tp121
F1
s(S'PP'
S'PAP'
tp122
F20
s(S'PP'
S'ADVPNP'
tp123
F2
s(S'PP'
S'PPDP'
tp124
F10
s(S'NP'
p125
S'NNPP'
tp126
F8
s(S'NP'
p127
S'ANPPP'
tp128
F1
s(S'CP'
S'CDDAPP'
tp129
F3
s(g8
S'PNP'
tp130
F69
s(S'NP'
S'NAPP'
tp131
F1
s(g69
S'ADVVVCP'
tp132
F1
s(S'DP'
S'DNNNP'
tp133
F1
s(S'VP'
S'VVVVVNNNP'
tp134
F1
s(S'PP'
S'PADVNNP'
tp135
F1
s(S'PP'
S'PANP'
tp136
F3
s(S'CP'
S'CAADDPP'
tp137
F1
s(g100
S'NNNPP'
tp138
F2
s(S'VP'
S'VCCP'
tp139
F2
s(S'VP'
S'VAAP'
tp140
F4
s(S'PP'
p141
S'PAANNP'
tp142
F1
s(S'DP'
p143
S'DDAANP'
tp144
F1
s(S'AP'
S'ACP'
tp145
F3
s(S'CP'
S'CCDP'
tp146
F20
s(S'PP'
S'PAVVP'
tp147
F1
s(S'DP'
p148
S'ADDPP'
tp149
F1
s(g59
S'NAP'
tp150
F12
s(S'VP'
S'VPPP'
tp151
F6
s(g74
S'NMP'
tp152
F8
s(S'NP'
p153
S'NVVVP'
tp154
F2
s(S'CP'
S'CDDDPP'
tp155
F3
s(S'CP'
S'CDAAPP'
tp156
F3
s(S'NP'
p157
S'NDP'
tp158
F18
s(S'VP'
S'VVVDP'
tp159
F1
s(S'PP'
p160
S'PDDDDP'
tp161
F1
s(S'VP'
p162
S'ADVAVADVNP'
tp163
F1
s(g22
S'PVP'
tp164
F48
s(S'VP'
S'VVP'
tp165
F13
s(g95
S'DDVP'
tp166
F8
s(g8
S'PDP'
tp167
F65
s(g74
S'ANDP'
tp168
F2
s(S'PP'
S'ADVADVPVP'
tp169
F1
s(S'VP'
S'ADVADVVAANP'
tp170
F1
s(g61
S'APNP'
tp171
F1
s(g33
S'APNNP'
tp172
F1
s(g148
S'DDDDADDP'
tp173
F1
s(S'MP'
S'MMVP'
tp174
F1
s(g95
S'DDVVP'
tp175
F2
s(g103
S'ADDVP'
tp176
F1
s(g57
S'PPP'
tp177
F16
s(S'PP'
S'AAPVP'
tp178
F1
s(S'NP'
p179
S'NADVAPP'
tp180
F1
s(S'MP'
S'MVDDP'
tp181
F1
s(S'DP'
S'ADVADVDDNP'
tp182
F1
s(S'VP'
S'VVVADVANP'
tp183
F1
s(S'VP'
S'ADVAVNP'
tp184
F1
s(S'AP'
p185
S'ANP'
tp186
F1
s(S'PP'
S'PCP'
tp187
F5
s(S'NP'
S'NADVADVADVVP'
tp188
F2
s(g27
S'PADVPP'
tp189
F1
s(g46
S'CDPP'
tp190
F81
s(S'NP'
S'NNADVCP'
tp191
F1
s(S'PP'
S'PNNNP'
tp192
F1
s(S'VP'
S'VAAADDP'
tp193
F1
s(S'NP'
p194
S'NNDP'
tp195
F3
s(g103
S'DPPPP'
tp196
F3
s(S'DP'
S'DDANP'
tp197
F1
s(S'VP'
S'VPP'
tp198
F33
s(g59
S'NACP'
tp199
F2
s(g127
S'NCCP'
tp200
F12
s(S'CP'
S'ADVCDP'
tp201
F2
s(S'CP'
S'CDADVPP'
tp202
F2
s(g14
S'PPPADVANP'
tp203
F1
s(S'NP'
S'NNVP'
tp204
F9
s(S'DP'
S'AAADDNP'
tp205
F1
s(g100
S'NNCP'
tp206
F10
s(g24
S'ADVDDPP'
tp207
F2
s(S'VP'
S'VVPP'
tp208
F7
s(S'CP'
S'CCDDP'
tp209
F1
s(S'CP'
p210
S'CDDPP'
tp211
F10
s(g95
S'DDAPP'
tp212
F3
s(S'DP'
S'DAAPP'
tp213
F3
s(S'PP'
S'PVVP'
tp214
F4
s(S'CP'
S'CCADVADVDP'
tp215
F1
s(g115
S'AVNP'
tp216
F2
s(g160
S'PMMP'
tp217
F1
s(S'DP'
S'ADVADVDPP'
tp218
F1
s(g8
S'PPNNNP'
tp219
F3
s(S'NP'
S'AAANCCP'
tp220
F1
s(g157
S'NNVVP'
tp221
F4
s(S'DP'
S'DADVNP'
tp222
F2
s(g48
S'NADVADVPP'
tp223
F1
s(S'DP'
S'DAP'
tp224
F7
s(S'CP'
p225
S'CADPP'
tp226
F5
s(S'PP'
S'ADVPVVP'
tp227
F1
s(g100
S'AANCP'
tp228
F3
s(g81
S'VDP'
tp229
F68
s(g84
S'DVVP'
tp230
F12
s(g143
S'ADVADVDDVP'
tp231
F1
s(S'NP'
S'AANVP'
tp232
F2
s(S'VP'
p233
S'VVVP'
tp234
F1
s(S'NP'
S'NNDDP'
tp235
F1
s(S'CP'
S'CAADPPP'
tp236
F1
s(S'MP'
S'MVAPP'
tp237
F2
s(g141
S'PPAP'
tp238
F5
s(g55
S'ADVVPP'
tp239
F1
s(g74
S'NNAAPP'
tp240
F1
s(g210
S'CDPPPP'
tp241
F1
s(S'CP'
S'CADVDPP'
tp242
F2
s(S'VP'
S'AAVDP'
tp243
F1
s(S'NP'
S'NADP'
tp244
F1
s(S'CP'
S'CCCDP'
tp245
F1
s(g84
S'DDNP'
tp246
F15
s(g233
S'AVPP'
tp247
F3
s(S'PP'
S'PPNNP'
tp248
F5
s(g125
S'ANCP'
tp249
F3
s(S'PP'
p250
S'APDP'
tp251
F6
s(S'DP'
p252
S'DCP'
tp253
F2
s(g100
S'NNNNNPP'
tp254
F1
s(g194
S'ANNCP'
tp255
F1
s(g35
S'ADVANVP'
tp256
F2
s(g8
S'PPAANP'
tp257
F2
s(g157
S'AAANPP'
tp258
F1
s(S'VP'
S'ADVADVADVVADP'
tp259
F1
s(g53
S'ADPP'
tp260
F9
s(S'NP'
S'AANPP'
tp261
F2
s(g179
S'ADVADVNCP'
tp262
F1
s(S'VP'
S'VVVPP'
tp263
F1
s(g48
S'AANPPP'
tp264
F1
s(S'CP'
S'CDDPPP'
tp265
F3
s(S'CP'
S'CCADVDDP'
tp266
F1
s(g65
S'AADDPP'
tp267
F1
s(S'PP'
S'ADVPVP'
tp268
F1
s(S'VP'
S'VVDP'
tp269
F15
s(g157
S'NPPP'
tp270
F3
s(S'AP'
S'AADVADVDDP'
tp271
F1
s(S'AP'
S'AANP'
tp272
F1
s(S'NP'
S'NNVVVP'
tp273
F1
s(g185
S'ACCP'
tp274
F2
s(S'DP'
S'DAVP'
tp275
F1
s(S'PP'
S'PAAP'
tp276
F1
s(S'VP'
S'VAAAANP'
tp277
F1
s(g113
S'ADVNNPP'
tp278
F1
s(g77
S'DNNP'
tp279
F12
s(S'CP'
S'CADVDDPP'
tp280
F1
s(g100
S'NCP'
tp281
F68
s(S'AP'
S'AADDP'
tp282
F2
s(S'PP'
S'AAPAP'
tp283
F1
s(S'CP'
S'CCADVDP'
tp284
F1
s(g250
S'PPNP'
tp285
F8
s(g153
S'NNNVP'
tp286
F1
s(S'CP'
S'ACDDP'
tp287
F2
s(S'AP'
S'AAAADDP'
tp288
F1
s(g98
S'DADP'
tp289
F1
s(S'PP'
p290
S'PPPADVAAP'
tp291
F1
s(g119
S'AVVADVADVDDP'
tp292
F1
s(S'NP'
S'NNCCP'
tp293
F2
s(g16
S'VNNP'
tp294
F7
s(S'NP'
S'NNPPP'
tp295
F1
s(S'AP'
S'ADVAAPPP'
tp296
F1
s(S'AP'
S'ADP'
tp297
F51
s(S'PP'
p298
S'APAP'
tp299
F1
s(g46
S'CCCDDDP'
tp300
F1
s(S'AP'
S'APP'
tp301
F4
s(g194
S'NNNDP'
tp302
F1
s(S'CP'
S'CCADP'
tp303
F2
s(g290
S'PPADP'
tp304
F1
s(S'DP'
S'DADVPP'
tp305
F4
s(S'NP'
S'ANCCP'
tp306
F1
s(g40
S'DDDNNNNNP'
tp307
F1
s(S'DP'
S'DADVADVNP'
tp308
F1
s(g194
S'NNMP'
tp309
F2
s(S'MP'
S'MVVPP'
tp310
F1
s(S'NP'
S'ADVANVVVP'
tp311
F1
s(S'AP'
S'ADVAPP'
tp312
F1
s(g298
S'ADVAPNP'
tp313
F1
s(S'PP'
S'PAANP'
tp314
F2
s(g72
S'AAAANCP'
tp315
F1
s(S'AP'
S'AAADP'
tp316
F1
s(g157
S'ANVP'
tp317
F3
s(g125
S'ANAP'
tp318
F1
s(S'VP'
S'VVAP'
tp319
F3
s(S'DP'
S'ADVDPPP'
tp320
F1
s(g53
S'DVP'
tp321
F50
s(S'MP'
S'MVNP'
tp322
F2
s(g252
S'ADVDPP'
tp323
F2
s(S'DP'
S'DADVAVP'
tp324
F1
s(S'AP'
S'AVP'
tp325
F7
s(g125
S'NADVVP'
tp326
F2
s(g225
S'CAAAADPP'
tp327
F1
s(g57
S'PAVP'
tp328
F4
s(S'DP'
S'DDPPP'
tp329
F3
s(g100
S'NPP'
tp330
F53
s(S'VP'
S'VAPP'
tp331
F3
s(g125
S'NVP'
tp332
F62
s(g250
S'PPANP'
tp333
F1
s(g19
S'PAAVP'
tp334
F1
s(g153
S'AANNPPP'
tp335
F1
s(g95
S'DDNNP'
tp336
F2
s(g81
S'VNP'
tp337
F34
s(S'VP'
S'VDDP'
tp338
F8
s(g162
S'VADVAP'
tp339
F4
s(g141
S'APDDP'
tp340
F2
s(S'DP'
S'DDDP'
tp341
F2
s(g30
S'VVVAP'
tp342
F1
s(S'DP'
S'DADVADVPP'
tp343
F1
s(g40
S'DPP'
tp344
F96
s(S'NP'
S'ADVNVP'
tp345
F3
s(S'MP'
S'MVPP'
tp346
F1
s.