ccollections
defaultdict
p1
(c__builtin__
float
p2
tRp3
(S'CP'
S'CAAADPP'
tp4
F1
s(S'DP'
S'ADDPP'
tp5
F3
s(S'DP'
p6
S'DDAP'
tp7
F2
s(S'NP'
S'ADVANADVVP'
tp8
F1
s(S'DP'
S'DAANNP'
tp9
F1
s(S'PP'
p10
S'PAPP'
tp11
F4
s(S'PP'
S'PADVNP'
tp12
F2
s(S'VP'
p13
S'VVADVADVADVNP'
tp14
F1
s(S'DP'
p15
S'DNP'
tp16
F153
s(S'NP'
S'ADVNDP'
tp17
F1
s(S'PP'
p18
S'AAPDDP'
tp19
F1
s(S'CP'
S'CDPPP'
tp20
F26
s(S'VP'
S'VADP'
tp21
F5
s(S'CP'
p22
S'CDAAPPP'
tp23
F2
s(S'DP'
p24
S'DAAP'
tp25
F3
s(S'VP'
S'VAVP'
tp26
F1
s(S'PP'
S'APPDP'
tp27
F1
s(S'NP'
S'AAANVVVP'
tp28
F1
s(S'DP'
p29
S'ADNNP'
tp30
F1
s(S'VP'
S'ADVVNP'
tp31
F6
s(S'MP'
S'MVDP'
tp32
F8
s(S'NP'
S'AANNPP'
tp33
F2
s(S'PP'
p34
S'PPPP'
tp35
F8
s(S'DP'
S'DDDNP'
tp36
F1
s(S'VP'
S'VACP'
tp37
F1
s(S'AP'
S'AAAVP'
tp38
F1
s(S'DP'
S'DADVVP'
tp39
F1
s(S'VP'
S'VMMMP'
tp40
F1
s(S'NP'
S'NADVVVP'
tp41
F1
s(S'NP'
S'ANADVPP'
tp42
F1
s(S'VP'
p43
S'VCP'
tp44
F55
s(S'CP'
S'CAAADPPP'
tp45
F1
s(S'PP'
S'PAP'
tp46
F55
s(S'CP'
S'CDADVADVADVPP'
tp47
F1
s(S'NP'
S'ANNCCP'
tp48
F1
s(S'PP'
p49
S'PPADVDP'
tp50
F1
s(S'CP'
S'CADPPPP'
tp51
F1
s(S'PP'
p52
S'PNP'
tp53
F137
s(S'DP'
p54
S'DDP'
tp55
F24
s(S'NP'
S'NNNPP'
tp56
F2
s(S'NP'
p57
S'NNDP'
tp58
F4
s(S'CP'
S'AACCDP'
tp59
F1
s(g15
S'DDAANP'
tp60
F1
s(S'DP'
p61
S'DADVDDP'
tp62
F1
s(S'NP'
S'NMP'
tp63
F21
s(S'CP'
S'CADVDADVPP'
tp64
F1
s(S'VP'
p65
S'AAVNP'
tp66
F1
s(g52
S'PDP'
tp67
F156
s(S'DP'
S'DDPPPPP'
tp68
F1
s(S'NP'
p69
S'NACCP'
tp70
F3
s(S'PP'
p71
S'ADVPAAP'
tp72
F1
s(S'NP'
S'AANNADVVP'
tp73
F1
s(S'PP'
p74
S'AAPPPP'
tp75
F2
s(S'DP'
p76
S'DPPPP'
tp77
F8
s(g54
S'DDANP'
tp78
F4
s(S'NP'
p79
S'NACP'
tp80
F3
s(S'NP'
p81
S'NCCP'
tp82
F19
s(S'NP'
p83
S'NNCP'
tp84
F32
s(g61
S'ADVDDPP'
tp85
F1
s(S'DP'
S'DDDDP'
tp86
F3
s(S'VP'
S'AVNP'
tp87
F5
s(g65
S'VVADP'
tp88
F1
s(S'DP'
S'DDAAANP'
tp89
F1
s(S'NP'
S'NADVADVPP'
tp90
F1
s(S'PP'
p91
S'PPPAAANNP'
tp92
F1
s(S'VP'
S'VVMP'
tp93
F1
s(S'VP'
p94
S'VADVVP'
tp95
F1
s(S'CP'
S'CCCDP'
tp96
F3
s(S'VP'
S'AVNNP'
tp97
F1
s(S'VP'
S'VCCCP'
tp98
F3
s(S'PP'
p99
S'APDP'
tp100
F15
s(S'VP'
S'ADVVNNP'
tp101
F1
s(S'AP'
S'AADVCP'
tp102
F2
s(S'MP'
S'MVADVVP'
tp103
F1
s(S'VP'
S'VVVVDP'
tp104
F1
s(S'VP'
S'ADVVVP'
tp105
F1
s(S'DP'
S'DADVADVADVPP'
tp106
F1
s(S'PP'
S'PAAP'
tp107
F4
s(g15
S'DNNP'
tp108
F31
s(S'CP'
S'CCADVDP'
tp109
F1
s(S'DP'
p110
S'ADDNP'
tp111
F1
s(S'NP'
S'NNNVP'
tp112
F2
s(S'PP'
p113
S'PPAAPP'
tp114
F1
s(S'PP'
S'AAPPDP'
tp115
F1
s(S'PP'
p116
S'PPNNNNP'
tp117
F1
s(S'PP'
S'PADVVP'
tp118
F4
s(S'PP'
S'APAP'
tp119
F1
s(S'AP'
S'APP'
tp120
F22
s(S'CP'
S'CDDDADVPPP'
tp121
F1
s(S'AP'
S'AAP'
tp122
F6
s(S'CP'
S'CADVADPP'
tp123
F2
s(S'DP'
S'DAAAPP'
tp124
F1
s(S'MP'
S'MVVCP'
tp125
F2
s(S'DP'
p126
S'DAAVP'
tp127
F1
s(S'PP'
p128
S'PAANP'
tp129
F3
s(S'NP'
p130
S'ANVP'
tp131
F10
s(S'NP'
S'NNAAAP'
tp132
F1
s(S'MP'
S'MVNP'
tp133
F10
s(S'NP'
p134
S'ANAAP'
tp135
F1
s(S'PP'
S'PAVP'
tp136
F5
s(S'NP'
S'NNNNNP'
tp137
F1
s(S'VP'
S'VVVPP'
tp138
F1
s(S'AP'
S'ADVACCP'
tp139
F1
s(S'DP'
p140
S'DADP'
tp141
F2
s(S'AP'
S'ADVADP'
tp142
F1
s(S'CP'
S'ADVADVCDP'
tp143
F1
s(S'NP'
S'ADVNAP'
tp144
F1
s(S'DP'
S'DDADVADVADVVVP'
tp145
F1
s(S'PP'
S'APVP'
tp146
F7
s(S'VP'
S'ADVADVADVVVDDP'
tp147
F1
s(S'VP'
S'VVNP'
tp148
F17
s(S'PP'
S'PPPNNP'
tp149
F2
s(g74
S'PPVP'
tp150
F19
s(S'VP'
S'VAAP'
tp151
F4
s(S'NP'
p152
S'ANDP'
tp153
F5
s(S'NP'
S'NVVP'
tp154
F26
s(g113
S'AAPVP'
tp155
F1
s(g10
S'PPADP'
tp156
F1
s(S'VP'
S'VMP'
tp157
F5
s(S'CP'
S'CDAPP'
tp158
F10
s(S'VP'
p159
S'VVAPP'
tp160
F1
s(g29
S'ADNP'
tp161
F6
s(S'PP'
S'PADP'
tp162
F7
s(S'VP'
S'VVVDDP'
tp163
F1
s(g83
S'ADVADVADVNVP'
tp164
F1
s(g22
S'CADAPPP'
tp165
F1
s(S'PP'
S'PPPDP'
tp166
F3
s(S'DP'
p167
S'DAAPPP'
tp168
F2
s(S'PP'
S'AAAPDP'
tp169
F1
s(S'MP'
S'MVVAP'
tp170
F1
s(S'DP'
S'DAAANP'
tp171
F1
s(S'NP'
p172
S'ANADVVVP'
tp173
F1
s(S'DP'
S'ADVDNP'
tp174
F1
s(S'VP'
p175
S'VVPP'
tp176
F10
s(S'DP'
S'ADADVPP'
tp177
F2
s(S'MP'
S'MVPP'
tp178
F1
s(S'DP'
S'ADVP'
tp179
F4
s(S'CP'
S'CDDPPP'
tp180
F7
s(S'NP'
p181
S'NNPP'
tp182
F18
s(S'DP'
p183
S'DDDDNP'
tp184
F1
s(g49
S'ADVPADVADVDP'
tp185
F1
s(g24
S'DNNNP'
tp186
F5
s(S'DP'
p187
S'ADVDADVPP'
tp188
F1
s(S'PP'
S'PVVVP'
tp189
F1
s(S'PP'
S'PMP'
tp190
F1
s(S'CP'
p191
S'CCDP'
tp192
F30
s(S'NP'
S'ANNDP'
tp193
F1
s(S'DP'
S'AADDPP'
tp194
F1
s(S'NP'
S'NVVVP'
tp195
F2
s(S'CP'
p196
S'CDDDPP'
tp197
F5
s(S'CP'
p198
S'CDAAPP'
tp199
F4
s(S'VP'
S'VVVDP'
tp200
F2
s(g128
S'PNNNP'
tp201
F5
s(S'AP'
S'AACCP'
tp202
F1
s(S'PP'
S'AAPNP'
tp203
F4
s(S'CP'
S'CADADVPP'
tp204
F1
s(g52
S'PPP'
tp205
F32
s(g81
S'NAVP'
tp206
F8
s(S'PP'
S'PADVAP'
tp207
F2
s(S'DP'
S'ADVDVP'
tp208
F3
s(S'PP'
S'PPADVADVNP'
tp209
F1
s(S'NP'
S'NAAAP'
tp210
F1
s(S'PP'
S'PPPPDP'
tp211
F1
s(g183
S'ADVADVDNP'
tp212
F1
s(S'VP'
p213
S'VPP'
tp214
F91
s(S'PP'
S'AAAPPDP'
tp215
F1
s(S'CP'
S'ADVCCDP'
tp216
F1
s(S'NP'
S'NNNADVCP'
tp217
F1
s(S'CP'
p218
S'ACCDP'
tp219
F4
s(S'NP'
p220
S'NNNCP'
tp221
F7
s(S'PP'
p222
S'PADVDP'
tp223
F4
s(S'DP'
p224
S'DANNP'
tp225
F2
s(g198
S'CDDPP'
tp226
F25
s(S'DP'
p227
S'DAAPP'
tp228
F8
s(S'PP'
S'PVVP'
tp229
F12
s(S'CP'
S'CADPPP'
tp230
F2
s(S'AP'
S'AACP'
tp231
F2
s(g94
S'ADVVCP'
tp232
F2
s(S'VP'
p233
S'VPPP'
tp234
F11
s(S'VP'
S'VVPPP'
tp235
F4
s(S'NP'
S'NANP'
tp236
F1
s(S'DP'
S'DVVP'
tp237
F15
s(S'DP'
S'DDDADVPPP'
tp238
F1
s(S'PP'
S'PPAP'
tp239
F2
s(S'VP'
S'VVVP'
tp240
F6
s(S'CP'
S'CADVDPP'
tp241
F7
s(S'NP'
S'ANCP'
tp242
F15
s(S'DP'
S'DCP'
tp243
F6
s(S'DP'
S'DDDP'
tp244
F4
s(S'DP'
S'DDADVPP'
tp245
F1
s(S'MP'
S'MAADP'
tp246
F1
s(S'NP'
p247
S'ANVVP'
tp248
F3
s(g187
S'ADDNNP'
tp249
F1
s(S'VP'
S'VVDP'
tp250
F17
s(S'NP'
p251
S'NPPP'
tp252
F16
s(S'PP'
S'PPAPP'
tp253
F1
s(S'AP'
S'APPP'
tp254
F1
s(g76
S'DAVP'
tp255
F5
s(S'NP'
S'NNNMP'
tp256
F1
s(S'AP'
S'ACP'
tp257
F30
s(S'NP'
S'NDDDDP'
tp258
F1
s(S'PP'
S'PPNP'
tp259
F18
s(S'MP'
S'MADVVPP'
tp260
F1
s(g247
S'NAADP'
tp261
F1
s(S'DP'
S'AADVP'
tp262
F1
s(S'VP'
S'VAANNP'
tp263
F1
s(S'AP'
p264
S'ADP'
tp265
F102
s(S'NP'
S'AAANNCP'
tp266
F1
s(S'VP'
p267
S'AAAVDP'
tp268
F1
s(S'AP'
S'AAADP'
tp269
F4
s(g172
S'ANNVP'
tp270
F1
s(S'VP'
p271
S'VVAP'
tp272
F6
s(g79
S'NNAPP'
tp273
F2
s(S'MP'
S'MNADVVP'
tp274
F1
s(S'NP'
S'NNADVADVADVVP'
tp275
F1
s(g34
S'PADVADVDP'
tp276
F1
s(g251
S'NPP'
tp277
F127
s(g181
S'NVP'
tp278
F147
s(g13
S'VDDP'
tp279
F16
s(g57
S'NNNDDP'
tp280
F1
s(g181
S'ANPP'
tp281
F13
s(S'PP'
S'PPPPP'
tp282
F2
s(S'PP'
S'PPPNP'
tp283
F1
s(S'NP'
S'NPPPP'
tp284
F1
s(S'DP'
p285
S'ADDP'
tp286
F1
s(g191
S'CAADPP'
tp287
F5
s(S'NP'
S'NAACP'
tp288
F3
s(g116
S'PNNP'
tp289
F28
s(S'PP'
p290
S'APNNP'
tp291
F1
s(S'DP'
S'DDAAP'
tp292
F1
s(S'DP'
S'AAADPP'
tp293
F1
s(S'MP'
S'MNNVVP'
tp294
F1
s(S'NP'
p295
S'ADVNCP'
tp296
F2
s(g227
S'ADPP'
tp297
F20
s(S'VP'
S'VAPPP'
tp298
F1
s(S'CP'
S'ACDP'
tp299
F5
s(S'VP'
S'ADVVDDDP'
tp300
F1
s(g159
S'VCCP'
tp301
F4
s(S'AP'
S'ADVANP'
tp302
F1
s(S'NP'
S'NNACP'
tp303
F1
s(S'DP'
S'AAADPPP'
tp304
F1
s(g43
S'VAP'
tp305
F53
s(S'DP'
p306
S'DDDPP'
tp307
F9
s(S'CP'
S'ADVCDDP'
tp308
F1
s(S'NP'
S'AANNCP'
tp309
F1
s(S'AP'
S'AAVVP'
tp310
F1
s(S'DP'
S'DDDPPP'
tp311
F1
s(g233
S'ADVVVDP'
tp312
F1
s(g271
S'VAANP'
tp313
F3
s(S'NP'
S'NVVVVP'
tp314
F1
s(S'PP'
S'PPPDDP'
tp315
F1
s(S'VP'
S'ADVADVADVVAP'
tp316
F1
s(g285
S'DDADVNP'
tp317
F1
s(g91
S'PANP'
tp318
F14
s(S'DP'
S'AADNP'
tp319
F1
s(S'NP'
S'AANMP'
tp320
F1
s(S'AP'
p321
S'AAVP'
tp322
F2
s(S'NP'
S'NAAP'
tp323
F2
s(g181
S'NDDP'
tp324
F5
s(S'AP'
S'ACCP'
tp325
F3
s(g181
S'NDP'
tp326
F65
s(S'DP'
S'DDVP'
tp327
F14
s(g181
S'AANVP'
tp328
F5
s(g74
S'PCP'
tp329
F4
s(g152
S'NNPPP'
tp330
F1
s(S'PP'
S'PAADP'
tp331
F1
s(g295
S'NNNNNVP'
tp332
F2
s(S'PP'
S'PACP'
tp333
F1
s(S'NP'
S'NNNDP'
tp334
F2
s(S'NP'
S'ADVADVNMP'
tp335
F1
s(S'VP'
S'AVVDP'
tp336
F3
s(S'DP'
S'ADPPP'
tp337
F3
s(S'MP'
S'MVCP'
tp338
F5
s(S'CP'
S'CCDDP'
tp339
F6
s(S'NP'
S'NNADVVP'
tp340
F1
s(S'DP'
p341
S'ADVADVDMP'
tp342
F1
s(S'NP'
S'NAACCP'
tp343
F1
s(g79
S'NNVVP'
tp344
F8
s(S'NP'
S'NNNNVP'
tp345
F2
s(S'VP'
p346
S'VVCP'
tp347
F8
s(g130
S'AANCP'
tp348
F5
s(g213
S'VDP'
tp349
F122
s(S'AP'
S'AAAPP'
tp350
F1
s(S'VP'
S'ADVVPP'
tp351
F5
s(g346
S'VNNP'
tp352
F10
s(S'AP'
S'AADVDP'
tp353
F1
s(S'NP'
S'NADP'
tp354
F3
s(g306
S'DDNP'
tp355
F24
s(g172
S'NADVCP'
tp356
F2
s(g24
S'DDNNP'
tp357
F5
s(S'DP'
S'AADPP'
tp358
F6
s(S'NP'
p359
S'NNNNPP'
tp360
F2
s(S'NP'
S'ADVADVNNCP'
tp361
F1
s(S'AP'
S'AAPP'
tp362
F1
s(S'VP'
p363
S'VVCCP'
tp364
F4
s(S'PP'
S'APPNP'
tp365
F1
s(S'DP'
S'DADVADVNP'
tp366
F1
s(g113
S'ADVPANP'
tp367
F1
s(g251
S'NAPP'
tp368
F9
s(S'PP'
S'APPVP'
tp369
F2
s(S'VP'
S'VVVCP'
tp370
F2
s(S'NP'
S'ANCCP'
tp371
F1
s(g220
S'AANPP'
tp372
F8
s(S'NP'
S'NNCCP'
tp373
F4
s(S'NP'
S'NNMP'
tp374
F1
s(S'CP'
S'CADDPP'
tp375
F3
s(g290
S'PAAAP'
tp376
F1
s(S'PP'
S'PPPAP'
tp377
F3
s(S'CP'
S'CDDAPP'
tp378
F3
s(S'NP'
S'ANAP'
tp379
F2
s(S'MP'
S'MVAP'
tp380
F2
s(g52
S'PVP'
tp381
F102
s(S'VP'
S'VPPPP'
tp382
F1
s(S'DP'
S'DVVVP'
tp383
F3
s(S'DP'
S'DAPP'
tp384
F19
s(S'NP'
S'ADVADVANVP'
tp385
F1
s(S'PP'
p386
S'PPDDP'
tp387
F6
s(g175
S'AVCP'
tp388
F2
s(S'DP'
S'DDVVVP'
tp389
F1
s(S'NP'
S'NAVVP'
tp390
F1
s(g15
S'DPP'
tp391
F193
s(S'NP'
p392
S'ADVNVP'
tp393
F2
s(S'DP'
S'DDPP'
tp394
F36
s(g15
S'DANP'
tp395
F22
s(S'NP'
S'NADVPP'
tp396
F2
s(S'NP'
S'AAANADVVP'
tp397
F1
s(S'PP'
S'PDDDP'
tp398
F1
s(g363
S'VADVCP'
tp399
F1
s(S'NP'
S'NNNNCP'
tp400
F4
s(g392
S'NADVCCP'
tp401
F1
s(g183
S'ADVDAAP'
tp402
F1
s(S'NP'
S'NNAACP'
tp403
F3
s(S'NP'
S'NAAAPPP'
tp404
F1
s(S'PP'
S'AAPDP'
tp405
F3
s(g271
S'VVDDP'
tp406
F3
s(S'DP'
S'DDADVVP'
tp407
F1
s(S'PP'
S'PDDP'
tp408
F17
s(S'MP'
S'MVDDP'
tp409
F1
s(S'NP'
S'NNNADVVP'
tp410
F1
s(g359
S'NNVP'
tp411
F24
s(S'VP'
S'AVDP'
tp412
F9
s(S'NP'
S'NAANP'
tp413
F1
s(S'DP'
S'ADVADPP'
tp414
F2
s(g15
S'DAANP'
tp415
F13
s(S'AP'
S'ADDP'
tp416
F12
s(g71
S'ADVPPNP'
tp417
F1
s(S'NP'
S'ADVADVNVVP'
tp418
F1
s(S'CP'
S'CADDADVPP'
tp419
F1
s(S'CP'
S'CADVADVDPP'
tp420
F2
s(g54
S'DPPP'
tp421
F38
s(S'DP'
S'DAVVP'
tp422
F2
s(S'DP'
S'ADDADVPP'
tp423
F1
s(S'PP'
p424
S'ADVPNP'
tp425
F5
s(g18
S'PPDP'
tp426
F28
s(S'MP'
S'MAVDP'
tp427
F1
s(S'PP'
S'ADVADVADVPVP'
tp428
F1
s(S'PP'
S'PAANNP'
tp429
F1
s(g79
S'NAP'
tp430
F35
s(S'PP'
p431
S'ADVADVPADDP'
tp432
F1
s(S'VP'
S'VAAAP'
tp433
F1
s(S'NP'
S'NAAAPP'
tp434
F1
s(g346
S'VVP'
tp435
F12
s(g341
S'DDAPP'
tp436
F3
s(g386
S'APNP'
tp437
F11
s(S'VP'
S'VVVNNP'
tp438
F1
s(S'DP'
p439
S'DDVVP'
tp440
F4
s(S'AP'
S'AAADDP'
tp441
F2
s(S'VP'
S'VVVNP'
tp442
F2
s(g196
S'CDPP'
tp443
F165
s(S'MP'
S'MMMNP'
tp444
F1
s(S'CP'
S'ADVCDP'
tp445
F5
s(S'VP'
S'ADVADVVNP'
tp446
F1
s(S'VP'
S'ADVADVVCP'
tp447
F1
s(g99
S'PPNNP'
tp448
F1
s(S'CP'
S'CAADDPP'
tp449
F1
s(S'DP'
S'ADVADVDPP'
tp450
F3
s(S'VP'
S'VADVNP'
tp451
F2
s(S'NP'
S'NADVAP'
tp452
F1
s(S'VP'
S'AVDDP'
tp453
F1
s(S'DP'
S'DADVNP'
tp454
F1
s(g306
S'DAP'
tp455
F19
s(S'CP'
S'CADPP'
tp456
F13
s(S'NP'
S'NNNNNDP'
tp457
F1
s(S'PP'
S'PPAVP'
tp458
F1
s(g167
S'ADAPPP'
tp459
F1
s(S'VP'
S'AVPP'
tp460
F4
s(g126
S'DDNNNNP'
tp461
F1
s(S'VP'
S'VVADVDP'
tp462
F1
s(S'CP'
S'CDPPPP'
tp463
F6
s(S'VP'
S'AAVDP'
tp464
F1
s(S'VP'
S'VACCP'
tp465
F1
s(g222
S'APPP'
tp466
F2
s(g140
S'ADPPPP'
tp467
F1
s(g6
S'DAPPP'
tp468
F2
s(S'AP'
S'AAADVDP'
tp469
F1
s(g224
S'DMP'
tp470
F4
s(S'DP'
S'ADVDPP'
tp471
F11
s(S'NP'
S'NADVADVDP'
tp472
F1
s(S'PP'
S'PPAANP'
tp473
F1
s(S'PP'
S'PADVADVNP'
tp474
F1
s(g321
S'AADP'
tp475
F15
s(S'VP'
S'VADVADVNNP'
tp476
F1
s(g431
S'ADVPVP'
tp477
F2
s(S'NP'
S'NNVVVP'
tp478
F1
s(S'VP'
S'VVADVADVCP'
tp479
F1
s(S'PP'
S'ADVPDP'
tp480
F2
s(g251
S'NCP'
tp481
F132
s(S'CP'
S'CADVDPPP'
tp482
F1
s(S'VP'
S'ADVVVPP'
tp483
F1
s(S'VP'
p484
S'VAADP'
tp485
F1
s(S'AP'
S'AAMP'
tp486
F1
s(S'PP'
S'PPAAAP'
tp487
F1
s(g181
S'AANDP'
tp488
F3
s(g484
S'VADVADVANP'
tp489
F1
s(S'VP'
S'VDDDP'
tp490
F1
s(S'MP'
S'MNVP'
tp491
F4
s(S'NP'
S'AANCCP'
tp492
F2
s(S'VP'
S'VAPP'
tp493
F2
s(S'VP'
S'ADVVDP'
tp494
F4
s(g267
S'VAAAVP'
tp495
F1
s(g110
S'DADVPP'
tp496
F4
s(S'AP'
S'AMP'
tp497
F1
s(S'CP'
S'CCADP'
tp498
F2
s(g424
S'PPADDP'
tp499
F1
s(S'CP'
S'AACDP'
tp500
F6
s(g247
S'NNNCCP'
tp501
F1
s(S'CP'
S'CCDDDP'
tp502
F1
s(S'DP'
S'ADVDPPP'
tp503
F1
s(g306
S'DVP'
tp504
F118
s(g264
S'AVP'
tp505
F10
s(g134
S'NADVVP'
tp506
F3
s(g439
S'DDPPP'
tp507
F11
s(S'NP'
S'ADVNMP'
tp508
F1
s(g69
S'NNAP'
tp509
F5
s(S'PP'
S'PPANP'
tp510
F4
s(g218
S'CDADVPP'
tp511
F2
s(g43
S'VNP'
tp512
F113
s(g233
S'VANP'
tp513
F5
s(S'PP'
S'PPADVNP'
tp514
F1
s.