ccollections
defaultdict
p1
(c__builtin__
float
p2
tRp3
(S'NP'
p4
S'NNNVVVP'
tp5
F1
s(S'DP'
S'DDMP'
tp6
F1
s(S'DP'
p7
S'ADDPP'
tp8
F5
s(g7
S'DDAP'
tp9
F1
s(S'VP'
p10
S'ADVVVNP'
tp11
F1
s(S'CP'
p12
S'CCDDDDP'
tp13
F1
s(S'VP'
S'VVVVP'
tp14
F3
s(g7
S'DAANNP'
tp15
F3
s(S'NP'
S'NADDP'
tp16
F1
s(S'PP'
p17
S'PAPP'
tp18
F6
s(S'PP'
p19
S'PADVNP'
tp20
F13
s(S'DP'
p21
S'DNP'
tp22
F527
s(S'DP'
S'AADDNP'
tp23
F1
s(S'NP'
S'ADVNDP'
tp24
F2
s(S'PP'
S'AAPDDP'
tp25
F2
s(S'CP'
S'CDPPP'
tp26
F96
s(S'VP'
S'VADP'
tp27
F15
s(S'DP'
p28
S'DNNNNP'
tp29
F3
s(S'CP'
p30
S'CDAAPPP'
tp31
F1
s(S'NP'
S'ADVNCCP'
tp32
F2
s(S'PP'
S'PPPPPP'
tp33
F1
s(S'VP'
S'VAVP'
tp34
F2
s(S'PP'
S'APPDP'
tp35
F5
s(S'VP'
S'ADVADVADVVVPP'
tp36
F1
s(S'DP'
S'DAADP'
tp37
F1
s(S'CP'
S'ACDDDDP'
tp38
F2
s(S'VP'
S'ADVVNP'
tp39
F4
s(S'MP'
S'MVDP'
tp40
F21
s(S'PP'
p41
S'PADVANP'
tp42
F1
s(g4
S'AANNPP'
tp43
F2
s(g41
S'PPPP'
tp44
F39
s(S'DP'
S'DDDNP'
tp45
F6
s(S'PP'
S'PAAANP'
tp46
F3
s(S'VP'
S'VACP'
tp47
F5
s(S'PP'
S'PPAAP'
tp48
F1
s(S'DP'
S'DADVVP'
tp49
F6
s(S'AP'
S'AADVPP'
tp50
F2
s(S'NP'
p51
S'NADVACP'
tp52
F3
s(S'NP'
S'NDDDP'
tp53
F1
s(S'NP'
S'NADVVVP'
tp54
F4
s(S'VP'
p55
S'VCP'
tp56
F199
s(S'NP'
S'NMMP'
tp57
F3
s(S'NP'
S'NANP'
tp58
F1
s(S'NP'
S'AAAANPP'
tp59
F1
s(S'VP'
p60
S'ADVVCCP'
tp61
F3
s(g19
S'PAP'
tp62
F171
s(S'MP'
S'MADVVCCP'
tp63
F1
s(S'MP'
S'MMVVP'
tp64
F1
s(S'VP'
S'VADVADVAP'
tp65
F1
s(S'NP'
p66
S'ANNCCP'
tp67
F1
s(S'NP'
S'NNNAP'
tp68
F1
s(S'NP'
S'ANPPP'
tp69
F1
s(S'VP'
S'VADVANP'
tp70
F2
s(S'PP'
S'PNP'
tp71
F503
s(g7
S'ADAPP'
tp72
F1
s(S'DP'
p73
S'DDP'
tp74
F91
s(S'NP'
S'NNNPP'
tp75
F8
s(g10
S'VCCP'
tp76
F29
s(S'MP'
S'MCDP'
tp77
F2
s(S'PP'
S'ADVPCP'
tp78
F1
s(S'DP'
S'ADVADVADNP'
tp79
F1
s(S'DP'
S'DDAANP'
tp80
F1
s(S'NP'
S'NMP'
tp81
F65
s(S'VP'
S'AVVDDP'
tp82
F1
s(g19
S'PDP'
tp83
F525
s(S'PP'
S'PPADVVP'
tp84
F2
s(S'NP'
S'ADVNVVP'
tp85
F3
s(S'NP'
S'AAANVVP'
tp86
F1
s(S'VP'
S'VVVADVADVNNP'
tp87
F1
s(S'NP'
S'NACCP'
tp88
F1
s(S'AP'
S'ANP'
tp89
F2
s(S'PP'
p90
S'PADVPP'
tp91
F4
s(S'VP'
S'AAVPP'
tp92
F1
s(S'PP'
p93
S'ADVADVPPVVP'
tp94
F1
s(S'PP'
S'ADVAPDDDP'
tp95
F1
s(S'NP'
p96
S'ADVNACP'
tp97
F1
s(S'DP'
S'DPPPP'
tp98
F17
s(S'DP'
S'DDANP'
tp99
F4
s(g51
S'NACP'
tp100
F16
s(S'AP'
S'ADVAVP'
tp101
F2
s(S'NP'
p102
S'NCCP'
tp103
F76
s(S'AP'
S'ADVAVVVP'
tp104
F1
s(S'PP'
p105
S'PPNNNNNP'
tp106
F1
s(S'NP'
p107
S'NNCP'
tp108
F127
s(S'DP'
p109
S'ADVDDPP'
tp110
F3
s(S'NP'
p111
S'NADVADVVP'
tp112
F2
s(S'DP'
p113
S'DDDDP'
tp114
F8
s(S'DP'
S'DDAPP'
tp115
F7
s(S'VP'
p116
S'AVNP'
tp117
F8
s(S'NP'
S'NADVADVPP'
tp118
F1
s(S'DP'
S'ADADVNP'
tp119
F1
s(S'VP'
S'VADVVP'
tp120
F2
s(S'VP'
S'ADVADVADVVNP'
tp121
F1
s(S'MP'
S'MVAPP'
tp122
F1
s(S'PP'
S'AAPPAAP'
tp123
F1
s(S'NP'
S'ANADVVP'
tp124
F3
s(S'CP'
S'CDDDAPPP'
tp125
F1
s(S'DP'
S'DADVPPP'
tp126
F2
s(g66
S'NCCCCP'
tp127
F1
s(S'CP'
S'CCCDP'
tp128
F10
s(S'VP'
S'AVNNP'
tp129
F1
s(S'PP'
S'ADVPPNNP'
tp130
F1
s(S'VP'
S'VCCCP'
tp131
F3
s(g17
S'APDP'
tp132
F29
s(S'VP'
S'ADVVNNP'
tp133
F1
s(S'VP'
S'VVVAP'
tp134
F2
s(S'AP'
S'AVVVVP'
tp135
F1
s(S'VP'
S'VVANP'
tp136
F5
s(S'PP'
S'ADVPNNP'
tp137
F1
s(S'VP'
S'ADVVVP'
tp138
F2
s(S'PP'
S'PPPPPNP'
tp139
F1
s(S'DP'
S'DAAP'
tp140
F4
s(g96
S'ADVANCP'
tp141
F3
s(S'DP'
S'DNNP'
tp142
F129
s(S'CP'
S'CADVDDPP'
tp143
F3
s(S'DP'
S'DPPPPP'
tp144
F7
s(S'CP'
S'CDDPPPP'
tp145
F1
s(S'CP'
S'CCADVDP'
tp146
F2
s(S'VP'
S'VVNNNP'
tp147
F1
s(S'VP'
p148
S'VVACP'
tp149
F1
s(S'VP'
S'AAVDDP'
tp150
F1
s(S'DP'
S'ADDNP'
tp151
F1
s(S'NP'
p152
S'NNNVP'
tp153
F20
s(S'PP'
S'AAPPDP'
tp154
F1
s(S'NP'
p155
S'AAAAANPPPP'
tp156
F1
s(S'PP'
p157
S'PADVVP'
tp158
F5
s(S'NP'
S'ANNADVCP'
tp159
F1
s(S'PP'
S'PPPADP'
tp160
F1
s(S'PP'
S'APAP'
tp161
F6
s(S'AP'
S'APP'
tp162
F73
s(S'AP'
S'ACCCP'
tp163
F1
s(S'NP'
p164
S'NADVMP'
tp165
F2
s(S'AP'
S'AAP'
tp166
F14
s(S'VP'
p167
S'VADVADVVP'
tp168
F1
s(S'CP'
S'CADVADPP'
tp169
F1
s(S'NP'
p170
S'ADVADVNDP'
tp171
F1
s(S'DP'
S'DAAAPP'
tp172
F2
s(S'NP'
p173
S'ADVANPP'
tp174
F3
s(S'VP'
S'ADVADVVMP'
tp175
F1
s(S'DP'
S'DAAVP'
tp176
F3
s(S'CP'
S'CDDDDPP'
tp177
F4
s(S'MP'
S'MVVVNP'
tp178
F1
s(S'PP'
S'PAANP'
tp179
F12
s(S'NP'
S'ANVP'
tp180
F38
s(S'VP'
S'VAACP'
tp181
F2
s(S'VP'
S'VAAAP'
tp182
F4
s(S'VP'
S'VVAPP'
tp183
F1
s(S'VP'
p184
S'VVADVAAP'
tp185
F1
s(S'MP'
S'MVNP'
tp186
F15
s(S'NP'
S'NNANP'
tp187
F1
s(S'CP'
p188
S'CDDDPPP'
tp189
F3
s(S'DP'
S'ADVADNP'
tp190
F1
s(S'PP'
S'PAVP'
tp191
F14
s(S'MP'
S'ADVMVP'
tp192
F2
s(S'DP'
S'DDAPPP'
tp193
F1
s(S'VP'
S'VVVPP'
tp194
F8
s(S'MP'
S'MADVVPP'
tp195
F3
s(S'DP'
p196
S'DADP'
tp197
F2
s(S'AP'
S'ADVADP'
tp198
F4
s(S'DP'
p199
S'ADVDDP'
tp200
F2
s(S'PP'
p201
S'APDDP'
tp202
F3
s(S'NP'
S'ADVNAP'
tp203
F1
s(S'PP'
S'PPCP'
tp204
F2
s(S'PP'
S'APVP'
tp205
F6
s(S'MP'
S'MNNCP'
tp206
F1
s(S'MP'
S'MNCP'
tp207
F1
s(S'VP'
p208
S'VVNP'
tp209
F48
s(S'PP'
S'PPPNNP'
tp210
F1
s(g41
S'PPVP'
tp211
F34
s(S'VP'
S'VADVDP'
tp212
F2
s(g4
S'ANAVVVP'
tp213
F1
s(g60
S'VAAP'
tp214
F17
s(S'NP'
S'ANDP'
tp215
F9
s(S'NP'
p216
S'NVVP'
tp217
F98
s(S'PP'
S'AAPVP'
tp218
F3
s(g55
S'VMP'
tp219
F7
s(S'NP'
S'ANNAP'
tp220
F1
s(S'VP'
S'VVNNP'
tp221
F8
s(S'CP'
S'CDAPP'
tp222
F30
s(S'CP'
S'CDDAAPP'
tp223
F2
s(S'PP'
S'ADVPMP'
tp224
F1
s(S'DP'
S'ADVADVP'
tp225
F1
s(S'AP'
p226
S'AACCCP'
tp227
F1
s(S'DP'
p228
S'ADNP'
tp229
F21
s(S'DP'
S'DDADVAP'
tp230
F1
s(S'CP'
p231
S'ACCDP'
tp232
F3
s(S'PP'
p233
S'PADP'
tp234
F29
s(S'DP'
p235
S'AAAADPPP'
tp236
F1
s(S'NP'
S'ANDDP'
tp237
F1
s(S'DP'
S'ADVADVDVP'
tp238
F1
s(S'VP'
S'VVVDDP'
tp239
F4
s(S'DP'
p240
S'ADVDAANP'
tp241
F1
s(S'DP'
p242
S'DAPP'
tp243
F48
s(S'VP'
S'AVVP'
tp244
F1
s(S'NP'
S'NAAACP'
tp245
F1
s(S'VP'
S'ADVADVVPP'
tp246
F1
s(S'PP'
S'AAAPVP'
tp247
F1
s(S'VP'
S'ADVADVVDP'
tp248
F2
s(S'VP'
p249
S'AVVNP'
tp250
F1
s(S'NP'
S'NAAAAVP'
tp251
F1
s(S'DP'
S'DAAPPP'
tp252
F2
s(S'AP'
S'AAPPP'
tp253
F2
s(S'VP'
S'VDDDDP'
tp254
F1
s(S'DP'
S'DAAANP'
tp255
F3
s(S'DP'
S'DADVANP'
tp256
F1
s(S'VP'
S'VVAAP'
tp257
F2
s(g208
S'VAAPP'
tp258
F5
s(S'DP'
S'ADVDNP'
tp259
F2
s(S'VP'
S'VVPP'
tp260
F45
s(g188
S'CCADDP'
tp261
F1
s(g105
S'PAVVP'
tp262
F2
s(S'MP'
S'MVPP'
tp263
F10
s(S'DP'
S'ADVP'
tp264
F15
s(S'CP'
S'CDDPPP'
tp265
F12
s(g102
S'NNNNNCCP'
tp266
F1
s(S'NP'
p267
S'NNPP'
tp268
F72
s(S'CP'
S'CDDPPPPPP'
tp269
F1
s(S'DP'
S'DDDDNP'
tp270
F1
s(S'MP'
S'MVVDP'
tp271
F5
s(S'CP'
S'CDDDDPPP'
tp272
F1
s(S'PP'
S'PPVVP'
tp273
F3
s(S'DP'
S'DNNNP'
tp274
F14
s(S'MP'
S'MVADVCP'
tp275
F1
s(S'MP'
S'MPPDP'
tp276
F1
s(S'DP'
S'ADVDDVP'
tp277
F1
s(S'PP'
S'PADVADVVP'
tp278
F2
s(S'VP'
S'VADVDDP'
tp279
F1
s(S'PP'
S'PMMP'
tp280
F1
s(S'PP'
p281
S'PVVVP'
tp282
F6
s(S'PP'
p283
S'PMP'
tp284
F6
s(S'DP'
S'ADVADVDPP'
tp285
F1
s(S'CP'
S'CCDP'
tp286
F126
s(S'NP'
S'ANNDP'
tp287
F1
s(S'MP'
S'AMVP'
tp288
F1
s(S'PP'
S'PPNNNP'
tp289
F2
s(g7
S'AADDPP'
tp290
F3
s(S'NP'
S'NVVVP'
tp291
F19
s(S'CP'
S'CDDDPP'
tp292
F13
s(S'CP'
S'CDADVADVPP'
tp293
F3
s(S'VP'
p294
S'VVVDP'
tp295
F9
s(S'PP'
S'PDDDDP'
tp296
F1
s(S'PP'
p297
S'PNNNP'
tp298
F17
s(S'NP'
S'NNAAAP'
tp299
F1
s(S'CP'
S'CCCCDP'
tp300
F2
s(g226
S'AACCP'
tp301
F1
s(S'PP'
S'AAPNP'
tp302
F8
s(S'PP'
p303
S'PPP'
tp304
F160
s(S'AP'
S'ADVAACCP'
tp305
F1
s(S'NP'
S'NAVP'
tp306
F11
s(S'PP'
S'PADVAP'
tp307
F5
s(g249
S'AVVNNNP'
tp308
F1
s(S'DP'
S'ADVDVP'
tp309
F5
s(S'NP'
S'NAAAP'
tp310
F1
s(S'NP'
S'NCCCP'
tp311
F6
s(S'PP'
S'PPPPDP'
tp312
F4
s(S'MP'
S'MADVADVVPP'
tp313
F1
s(S'VP'
p314
S'VPP'
tp315
F268
s(S'MP'
S'AAMVP'
tp316
F1
s(S'MP'
S'ADVADVMVP'
tp317
F1
s(S'NP'
S'AANPPP'
tp318
F1
s(g107
S'NNNCP'
tp319
F17
s(S'PP'
S'PADVDP'
tp320
F8
s(S'CP'
S'CDADVAPP'
tp321
F2
s(S'AP'
S'ADVAADP'
tp322
F2
s(S'DP'
S'DANNP'
tp323
F6
s(S'PP'
S'PADVAAP'
tp324
F2
s(S'CP'
S'CDDPP'
tp325
F110
s(S'DP'
S'DAAPP'
tp326
F14
s(g283
S'PVVP'
tp327
F29
s(S'CP'
S'CADPPP'
tp328
F5
s(S'AP'
S'AACP'
tp329
F16
s(S'VP'
S'ADVVCP'
tp330
F10
s(S'VP'
S'VPPP'
tp331
F24
s(S'VP'
S'AVCCP'
tp332
F1
s(g249
S'AVVVDP'
tp333
F1
s(S'DP'
S'DVVP'
tp334
F59
s(g184
S'VVPPP'
tp335
F2
s(g297
S'PPAP'
tp336
F19
s(S'CP'
S'CDADVADVAPP'
tp337
F1
s(S'PP'
p338
S'PADVAVP'
tp339
F1
s(S'NP'
S'NNNNDP'
tp340
F2
s(g240
S'DADVADVAAP'
tp341
F1
s(S'NP'
S'ANMP'
tp342
F2
s(S'AP'
S'APPP'
tp343
F3
s(S'PP'
S'ADVPPP'
tp344
F2
s(S'VP'
S'VVVP'
tp345
F12
s(S'CP'
S'CADVDPP'
tp346
F12
s(S'NP'
p347
S'ANCP'
tp348
F53
s(S'DP'
S'DCP'
tp349
F17
s(S'NP'
p350
S'ANNCP'
tp351
F5
s(g170
S'AAANCP'
tp352
F4
s(S'VP'
p353
S'ADVVVVP'
tp354
F2
s(g111
S'NNVVVVP'
tp355
F1
s(S'NP'
S'NVVVVP'
tp356
F4
s(g242
S'DDDP'
tp357
F30
s(S'AP'
S'ADDDDP'
tp358
F2
s(S'DP'
S'DDADVPP'
tp359
F2
s(S'NP'
S'ANNVVP'
tp360
F1
s(g4
S'ANVVP'
tp361
F6
s(S'PP'
S'PPPNNNP'
tp362
F1
s(S'VP'
S'VVDP'
tp363
F61
s(S'NP'
S'NPPP'
tp364
F41
s(g148
S'VAPPP'
tp365
F1
s(g109
S'DAVP'
tp366
F15
s(S'VP'
S'VAAAANP'
tp367
F1
s(S'VP'
S'ADVAVCP'
tp368
F1
s(S'AP'
p369
S'ACP'
tp370
F96
s(S'PP'
S'PPNP'
tp371
F93
s(S'PP'
p372
S'PPPAP'
tp373
F1
s(g369
S'ADVACCP'
tp374
F1
s(S'NP'
S'NAADP'
tp375
F1
s(S'DP'
p376
S'AADVP'
tp377
F2
s(S'VP'
S'VVVVNNP'
tp378
F1
s(g105
S'APANP'
tp379
F1
s(S'CP'
S'CDDADVPP'
tp380
F1
s(g231
S'CCCDDP'
tp381
F2
s(S'AP'
S'ADP'
tp382
F331
s(S'NP'
S'NNNMP'
tp383
F1
s(S'DP'
S'DDADVVP'
tp384
F1
s(S'CP'
S'CADVDDPPP'
tp385
F1
s(g113
S'DDAVP'
tp386
F2
s(S'AP'
S'AADVADVADVVVP'
tp387
F1
s(S'NP'
S'AAAANNCP'
tp388
F1
s(S'NP'
S'AAANNCP'
tp389
F1
s(S'MP'
S'MADDP'
tp390
F1
s(S'PP'
S'PPPPNNP'
tp391
F1
s(S'MP'
S'MPNP'
tp392
F1
s(S'VP'
S'AVDP'
tp393
F21
s(g170
S'ANNVP'
tp394
F2
s(g353
S'VVAP'
tp395
F16
s(S'CP'
S'CDDDAPP'
tp396
F1
s(S'NP'
S'NNADVADVADVVP'
tp397
F1
s(S'DP'
S'AADDVVP'
tp398
F1
s(S'CP'
p399
S'ADVACDP'
tp400
F3
s(S'VP'
S'AAVCP'
tp401
F4
s(S'NP'
p402
S'NPP'
tp403
F352
s(S'PP'
S'PPPPNP'
tp404
F3
s(g102
S'NVP'
tp405
F542
s(S'PP'
S'PAAVP'
tp406
F3
s(S'NP'
S'NAAPP'
tp407
F3
s(S'VP'
p408
S'VDDP'
tp409
F49
s(S'NP'
S'AAADVANNPP'
tp410
F1
s(S'DP'
S'DMP'
tp411
F7
s(S'DP'
p412
S'DADVAPP'
tp413
F2
s(S'NP'
S'NNAACCP'
tp414
F1
s(S'NP'
S'NADVADVVVP'
tp415
F1
s(S'NP'
S'ANPP'
tp416
F44
s(S'PP'
S'ADVPPDP'
tp417
F1
s(g157
S'PPPPP'
tp418
F7
s(S'PP'
S'PPPNP'
tp419
F7
s(S'DP'
S'DDDDDP'
tp420
F1
s(S'NP'
S'ADVADVNPP'
tp421
F1
s(S'NP'
S'NPPPP'
tp422
F1
s(S'DP'
S'ADDP'
tp423
F5
s(g231
S'CAADPP'
tp424
F11
s(S'DP'
S'DADVADVVP'
tp425
F2
s(g4
S'NAACP'
tp426
F3
s(S'PP'
S'PNNP'
tp427
F104
s(g372
S'APNNP'
tp428
F2
s(S'DP'
S'DAAVVP'
tp429
F1
s(S'PP'
S'PAAADVANNP'
tp430
F1
s(S'MP'
S'MAAPDP'
tp431
F1
s(g249
S'AVAP'
tp432
F2
s(S'MP'
S'MMVP'
tp433
F2
s(S'NP'
p434
S'ADVNCP'
tp435
F11
s(g369
S'AADP'
tp436
F50
s(S'NP'
S'NAPPP'
tp437
F1
s(g399
S'ACDP'
tp438
F23
s(g19
S'PAAP'
tp439
F34
s(S'NP'
S'NNACP'
tp440
F3
s(S'CP'
S'CDADVPPP'
tp441
F1
s(S'VP'
S'VAP'
tp442
F202
s(S'VP'
S'VVVVNP'
tp443
F1
s(S'VP'
S'AAAAVDP'
tp444
F2
s(S'DP'
S'DDDPP'
tp445
F23
s(S'NP'
S'AANNCP'
tp446
F1
s(S'NP'
S'ANADVCP'
tp447
F1
s(S'CP'
S'CDAAPP'
tp448
F8
s(S'PP'
S'PAAPP'
tp449
F2
s(S'PP'
S'AAPAAP'
tp450
F1
s(S'MP'
S'MVVVDP'
tp451
F1
s(S'DP'
p452
S'DDDPPP'
tp453
F4
s(S'DP'
p454
S'DADVDP'
tp455
F3
s(g4
S'NNAVVP'
tp456
F1
s(S'CP'
S'AACCDP'
tp457
F1
s(S'AP'
S'AAACP'
tp458
F5
s(S'VP'
S'ADVVVDP'
tp459
F2
s(S'NP'
p460
S'NNDP'
tp461
F28
s(S'PP'
S'PPPVP'
tp462
F3
s(S'AP'
S'AADDP'
tp463
F5
s(S'VP'
S'VAANP'
tp464
F5
s(S'NP'
S'NADVADVADVVVP'
tp465
F1
s(S'PP'
S'PAAAAP'
tp466
F1
s(S'MP'
S'MVVVCP'
tp467
F1
s(g93
S'PADVADVPPP'
tp468
F1
s(S'MP'
S'MADP'
tp469
F1
s(S'PP'
S'PPPDDP'
tp470
F3
s(S'DP'
S'DDADVNP'
tp471
F1
s(g201
S'PANP'
tp472
F39
s(S'DP'
S'AADNP'
tp473
F2
s(S'DP'
S'ADVADPP'
tp474
F1
s(S'PP'
S'PAAAVVP'
tp475
F1
s(S'NP'
p476
S'AANMP'
tp477
F2
s(S'AP'
S'AAVP'
tp478
F5
s(S'AP'
S'AVVP'
tp479
F6
s(g152
S'NDDP'
tp480
F16
s(S'AP'
S'ACCP'
tp481
F19
s(S'NP'
S'NDP'
tp482
F154
s(S'NP'
S'AAANVP'
tp483
F1
s(g73
S'DDVP'
tp484
F50
s(S'NP'
S'AANVP'
tp485
F17
s(S'DP'
S'DDDAPPP'
tp486
F1
s(S'DP'
S'DADVADVAPP'
tp487
F1
s(S'DP'
S'ADDVP'
tp488
F1
s(S'VP'
p489
S'VNNNP'
tp490
F10
s(S'VP'
S'ADVADVADVVVCP'
tp491
F1
s(S'PP'
S'ADVPAP'
tp492
F3
s(S'DP'
S'DADDP'
tp493
F1
s(g19
S'PCP'
tp494
F34
s(S'NP'
S'NNPPP'
tp495
F5
s(S'PP'
S'PAADDP'
tp496
F1
s(S'PP'
S'PAADP'
tp497
F2
s(S'VP'
S'VPPPP'
tp498
F3
s(S'NP'
S'ANNPP'
tp499
F1
s(g155
S'NNNDP'
tp500
F4
s(S'AP'
S'ADVACP'
tp501
F9
s(g4
S'AANVVVP'
tp502
F3
s(S'DP'
S'ADVDDPPP'
tp503
F2
s(g249
S'AVVDP'
tp504
F1
s(g196
S'ADPPP'
tp505
F8
s(S'MP'
S'MVCP'
tp506
F6
s(S'PP'
S'PPAAANP'
tp507
F1
s(g12
S'CCDDP'
tp508
F22
s(S'NP'
S'NNADVVP'
tp509
F1
s(g66
S'AANNDP'
tp510
F1
s(S'DP'
S'DAAAAVP'
tp511
F1
s(S'NP'
S'NAAP'
tp512
F16
s(S'DP'
S'DADVNP'
tp513
F4
s(S'NP'
S'NAAMP'
tp514
F1
s(S'NP'
p515
S'NNNNVP'
tp516
F2
s(g60
S'VVCP'
tp517
F48
s(S'NP'
S'AANCP'
tp518
F19
s(g314
S'VDP'
tp519
F465
s(S'VP'
S'VVDDDP'
tp520
F1
s(S'VP'
S'AVVPP'
tp521
F1
s(S'PP'
p522
S'APPP'
tp523
F11
s(S'DP'
p524
S'DDDDPPP'
tp525
F2
s(S'VP'
S'ADVVPP'
tp526
F7
s(S'VP'
p527
S'VVADVANP'
tp528
F1
s(S'CP'
S'CDAPPP'
tp529
F3
s(S'VP'
S'VNNP'
tp530
F55
s(S'AP'
S'AADVDP'
tp531
F1
s(S'NP'
S'NADP'
tp532
F4
s(S'PP'
S'AAAPPP'
tp533
F1
s(S'DP'
S'DDNP'
tp534
F74
s(S'CP'
S'ACADVDP'
tp535
F1
s(g434
S'NADVCP'
tp536
F3
s(g28
S'DDNNP'
tp537
F6
s(S'PP'
S'AAPPP'
tp538
F2
s(S'VP'
S'VPPPPP'
tp539
F1
s(S'PP'
S'PPAAANNP'
tp540
F1
s(S'AP'
S'AADVADP'
tp541
F1
s(S'PP'
S'AAPADVDDP'
tp542
F1
s(g7
S'AADPP'
tp543
F13
s(g249
S'VVVAAP'
tp544
F1
s(S'NP'
p545
S'NNNNPP'
tp546
F2
s(S'VP'
p547
S'VVVVCP'
tp548
F2
s(S'DP'
S'DAAAANP'
tp549
F1
s(S'NP'
S'NNAADP'
tp550
F1
s(g281
S'AAPDP'
tp551
F9
s(g173
S'ANVVVP'
tp552
F1
s(S'DP'
S'ADVDNNP'
tp553
F2
s(g30
S'ACDDP'
tp554
F2
s(S'AP'
S'AAPP'
tp555
F12
s(S'VP'
S'VVCCP'
tp556
F3
s(g105
S'APPNP'
tp557
F2
s(g199
S'DADVADVNP'
tp558
F1
s(S'VP'
S'VADVADP'
tp559
F1
s(g164
S'AAANNCCP'
tp560
F1
s(S'DP'
S'DDPPPPPP'
tp561
F1
s(S'NP'
S'NAPP'
tp562
F12
s(S'PP'
p563
S'APPVP'
tp564
F2
s(S'NP'
S'NADVDP'
tp565
F1
s(S'VP'
S'VVVCP'
tp566
F7
s(S'NP'
S'ANCCP'
tp567
F5
s(g476
S'AANPP'
tp568
F8
s(S'NP'
S'NNCCP'
tp569
F12
s(S'NP'
S'NNMP'
tp570
F4
s(g412
S'DDDVP'
tp571
F5
s(g231
S'CADDPP'
tp572
F5
s(S'PP'
p573
S'PAAAP'
tp574
F2
s(S'PP'
S'ADVADVPNP'
tp575
F3
s(g412
S'DADVAP'
tp576
F5
s(S'CP'
S'CDDAPP'
tp577
F6
s(S'NP'
S'ANAP'
tp578
F8
s(S'MP'
S'MVAP'
tp579
F6
s(g303
S'PVP'
tp580
F346
s(S'VP'
S'VADVPPP'
tp581
F1
s(S'AP'
S'ADVADVAPP'
tp582
F1
s(S'NP'
S'ANNCCCCP'
tp583
F1
s(S'VP'
p584
S'VVVVDP'
tp585
F2
s(S'PP'
S'APPPP'
tp586
F2
s(g66
S'AANADVDDP'
tp587
F1
s(g196
S'DVVVP'
tp588
F8
s(g281
S'PPDDP'
tp589
F15
s(g184
S'AVCP'
tp590
F4
s(S'DP'
S'DDVVVP'
tp591
F1
s(g4
S'NAVVP'
tp592
F3
s(S'DP'
S'DPP'
tp593
F675
s(g402
S'ADVNVP'
tp594
F7
s(g73
S'DDPP'
tp595
F168
s(S'DP'
S'DANP'
tp596
F79
s(S'AP'
S'ADVAMP'
tp597
F1
s(S'VP'
S'VVAAAAANP'
tp598
F1
s(S'NP'
S'AANADVVP'
tp599
F1
s(S'NP'
S'NAAVP'
tp600
F3
s(S'PP'
S'PDDDP'
tp601
F7
s(S'VP'
S'VADVCP'
tp602
F5
s(S'NP'
S'NNNNCP'
tp603
F2
s(S'MP'
S'MDNP'
tp604
F1
s(S'NP'
S'ADVADVADVADVADVANCP'
tp605
F1
s(g452
S'ADDPPP'
tp606
F2
s(S'NP'
S'NNNVVP'
tp607
F2
s(S'NP'
S'NNP'
tp608
F4
s(S'AP'
S'AAAADP'
tp609
F3
s(S'DP'
S'DCCP'
tp610
F2
s(S'DP'
S'AADDP'
tp611
F1
s(S'CP'
S'CDPPPPP'
tp612
F6
s(S'MP'
S'MADVVDP'
tp613
F1
s(g563
S'PAPPP'
tp614
F1
s(S'PP'
p615
S'PDDP'
tp616
F79
s(S'MP'
S'MVDDP'
tp617
F2
s(S'PP'
S'PCCP'
tp618
F5
s(S'PP'
S'ADVAPNP'
tp619
F1
s(g460
S'NNVP'
tp620
F99
s(g267
S'NAANP'
tp621
F2
s(S'PP'
S'AAAPAP'
tp622
F1
s(g167
S'VVDDP'
tp623
F9
s(S'VP'
S'VAADDP'
tp624
F1
s(S'DP'
S'DAANP'
tp625
F35
s(S'PP'
S'PPPDP'
tp626
F6
s(S'AP'
S'ADDP'
tp627
F26
s(S'PP'
S'PNNNNP'
tp628
F1
s(S'VP'
S'ADVVVAP'
tp629
F1
s(S'PP'
S'ADVPPNP'
tp630
F2
s(g7
S'ADDAPPP'
tp631
F1
s(S'NP'
S'AAAANCCP'
tp632
F1
s(S'CP'
S'CADVADVDPP'
tp633
F1
s(g228
S'DPPP'
tp634
F143
s(S'CP'
S'CAAAADPPP'
tp635
F1
s(S'DP'
S'DAVVP'
tp636
F1
s(S'DP'
S'AADPPP'
tp637
F1
s(g515
S'NNAVP'
tp638
F2
s(S'VP'
S'AVVCP'
tp639
F2
s(S'NP'
S'NMMMP'
tp640
F1
s(S'PP'
S'PPPANP'
tp641
F1
s(S'PP'
S'ADVPNP'
tp642
F6
s(g233
S'PPDP'
tp643
F68
s(S'VP'
S'ADVVANNP'
tp644
F1
s(S'MP'
S'MAVDP'
tp645
F1
s(S'DP'
S'DDPPPP'
tp646
F2
s(S'AP'
S'ADVADVAACP'
tp647
F1
s(S'CP'
S'CCDDDP'
tp648
F3
s(g235
S'DDCP'
tp649
F1
s(g231
S'CCAADDP'
tp650
F1
s(S'PP'
S'PAANNP'
tp651
F1
s(S'AP'
S'AAAPP'
tp652
F1
s(S'MP'
S'MMAVP'
tp653
F1
s(S'NP'
S'NAP'
tp654
F107
s(g545
S'NNAAP'
tp655
F3
s(g522
S'ADVADVPPPP'
tp656
F1
s(S'NP'
S'AAAAANVP'
tp657
F1
s(g314
S'VVP'
tp658
F45
s(g347
S'NNVVP'
tp659
F17
s(S'PP'
S'APPADVDP'
tp660
F1
s(S'AP'
S'AAADP'
tp661
F6
s(S'PP'
S'APNP'
tp662
F24
s(g208
S'VVVNNP'
tp663
F2
s(S'DP'
S'DDDAPP'
tp664
F1
s(S'DP'
S'DDVVP'
tp665
F5
s(S'VP'
S'VVVNP'
tp666
F7
s(S'CP'
S'CDDAAAPP'
tp667
F2
s(S'VP'
S'VVVADVANP'
tp668
F1
s(S'MP'
S'MVANP'
tp669
F1
s(S'MP'
S'MVNNP'
tp670
F3
s(S'CP'
S'CDPP'
tp671
F589
s(S'MP'
S'MVVNNP'
tp672
F1
s(S'AP'
S'ADDDP'
tp673
F1
s(S'MP'
S'MVADVPP'
tp674
F1
s(g249
S'VVAANP'
tp675
F1
s(S'CP'
S'ADVCDP'
tp676
F10
s(g294
S'ADVADVVNP'
tp677
F1
s(g615
S'PADVADVDP'
tp678
F1
s(g584
S'ADVADVVCP'
tp679
F1
s(S'PP'
S'PPNNP'
tp680
F17
s(S'CP'
S'CAADDPP'
tp681
F2
s(g376
S'DDDNNP'
tp682
F1
s(g408
S'VADVNP'
tp683
F10
s(S'NP'
S'NADVAP'
tp684
F2
s(S'VP'
S'AVDDP'
tp685
F4
s(g547
S'ADVAVAP'
tp686
F1
s(S'DP'
S'DAP'
tp687
F45
s(g399
S'CADPP'
tp688
F50
s(g4
S'NNNNNDP'
tp689
F1
s(S'NP'
S'NADVAVP'
tp690
F1
s(S'PP'
S'PPAVP'
tp691
F2
s(S'PP'
S'PPDDDP'
tp692
F1
s(g489
S'AVPP'
tp693
F9
s(S'NP'
S'NADVADVMP'
tp694
F1
s(S'CP'
S'CAADPPP'
tp695
F1
s(S'DP'
S'DDNNNNP'
tp696
F3
s(S'CP'
S'CDPPPP'
tp697
F11
s(S'PP'
S'PPAADP'
tp698
F1
s(S'VP'
S'AAVDP'
tp699
F4
s(S'PP'
S'PANNP'
tp700
F4
s(S'NP'
S'NNAP'
tp701
F10
s(S'VP'
S'VACCP'
tp702
F1
s(S'NP'
S'NNDDP'
tp703
F3
s(S'DP'
S'DAPPP'
tp704
F4
s(S'DP'
S'DADVADVPP'
tp705
F3
s(S'NP'
S'AANVVP'
tp706
F2
s(g454
S'ADVDPP'
tp707
F18
s(S'PP'
S'PPAANP'
tp708
F2
s(S'NP'
S'AAANPP'
tp709
F3
s(S'PP'
S'PADVADVNP'
tp710
F1
s(S'VP'
S'ADVADVVAP'
tp711
F1
s(g242
S'ADPP'
tp712
F63
s(S'PP'
S'PPAAVP'
tp713
F1
s(S'VP'
S'VADVPP'
tp714
F4
s(S'DP'
S'DDAAPP'
tp715
F3
s(S'DP'
S'DDAAAPP'
tp716
F2
s(g90
S'ADVPVP'
tp717
F7
s(S'DP'
S'DDDDPP'
tp718
F6
s(S'NP'
S'NNVVVP'
tp719
F2
s(S'PP'
S'PAMP'
tp720
F1
s(g201
S'ADVPDP'
tp721
F10
s(S'PP'
S'PPPVVP'
tp722
F1
s(g350
S'NCP'
tp723
F479
s(S'CP'
S'CADVDPPP'
tp724
F3
s(S'PP'
S'AAAPNP'
tp725
F1
s(S'AP'
S'AAAP'
tp726
F1
s(g527
S'VAADP'
tp727
F1
s(g338
S'ADVPDDP'
tp728
F1
s(S'VP'
S'AAVVDP'
tp729
F1
s(S'NP'
S'AANDP'
tp730
F5
s(S'VP'
S'VDDDP'
tp731
F8
s(S'MP'
S'MNVP'
tp732
F3
s(S'NP'
S'AANAP'
tp733
F1
s(S'NP'
S'AANCCP'
tp734
F2
s(g116
S'VAPP'
tp735
F5
s(S'VP'
S'ADVVDP'
tp736
F11
s(g249
S'VADDP'
tp737
F1
s(S'DP'
S'DADVPP'
tp738
F21
s(S'AP'
S'AMP'
tp739
F1
s(S'CP'
S'CCADP'
tp740
F3
s(g267
S'NNNPPP'
tp741
F1
s(S'AP'
S'ADVAPP'
tp742
F9
s(g231
S'AACDP'
tp743
F7
s(g7
S'ADANP'
tp744
F1
s(S'MP'
S'MADVVNNP'
tp745
F1
s(g454
S'ADVDPPP'
tp746
F3
s(g21
S'DVP'
tp747
F390
s(S'NP'
S'ADVNPP'
tp748
F2
s(S'NP'
S'NNCCCP'
tp749
F1
s(g369
S'AVP'
tp750
F28
s(S'NP'
S'NADVVP'
tp751
F13
s(S'CP'
S'CDAAAPP'
tp752
F2
s(S'VP'
S'AAAVVDP'
tp753
F1
s(S'CP'
S'AAACDP'
tp754
F1
s(S'VP'
S'ADVVPPP'
tp755
F1
s(g524
S'DDPPP'
tp756
F23
s(S'NP'
S'ADVNMP'
tp757
F3
s(g167
S'ADVADVVVP'
tp758
F1
s(g233
S'PPANP'
tp759
F7
s(S'MP'
S'MCDDP'
tp760
F1
s(S'PP'
S'PPCCP'
tp761
F1
s(S'CP'
S'CDADVPP'
tp762
F13
s(S'VP'
S'VNP'
tp763
F312
s(S'VP'
S'VANP'
tp764
F26
s(g314
S'VADVAP'
tp765
F11
s(S'PP'
S'ADVADVAPVVP'
tp766
F1
s(S'VP'
S'VADVADVADP'
tp767
F1
s(g573
S'PPADVNP'
tp768
F3
s(S'PP'
S'AAPVVVP'
tp769
F1
s(S'DP'
S'DDDDVP'
tp770
F3
s(S'VP'
S'ADVADVVVDP'
tp771
F1
s(g216
S'NADVPPP'
tp772
F1
s.