ccollections
defaultdict
p1
(c__builtin__
float
p2
tRp3
(S'DP'
S'ADDPP'
tp4
F1
s(S'VP'
p5
S'ADVVVNP'
tp6
F2
s(S'CP'
p7
S'CCDDDDP'
tp8
F1
s(S'DP'
S'DAANNP'
tp9
F1
s(S'PP'
S'ADVADVPAP'
tp10
F1
s(S'PP'
p11
S'PAPP'
tp12
F4
s(S'PP'
S'PADVNP'
tp13
F3
s(S'DP'
p14
S'DNP'
tp15
F168
s(S'CP'
S'CDPPP'
tp16
F38
s(S'VP'
p17
S'VADP'
tp18
F2
s(S'DP'
S'DAAP'
tp19
F4
s(S'VP'
S'AAVPPP'
tp20
F1
s(S'VP'
p21
S'VAVP'
tp22
F1
s(S'PP'
p23
S'APPDP'
tp24
F1
s(S'PP'
S'APVP'
tp25
F4
s(S'MP'
S'MVDP'
tp26
F23
s(S'PP'
S'PPPP'
tp27
F8
s(S'DP'
S'DDDNP'
tp28
F2
s(S'VP'
S'VACP'
tp29
F4
s(S'DP'
p30
S'DADVVP'
tp31
F3
s(S'PP'
p32
S'PADVNNP'
tp33
F1
s(S'NP'
p34
S'AANADVADVVVP'
tp35
F1
s(S'VP'
S'AAVVP'
tp36
F1
s(S'NP'
S'NADVVVP'
tp37
F8
s(S'VP'
p38
S'VCP'
tp39
F71
s(S'NP'
S'NMMP'
tp40
F3
s(S'NP'
S'AAAANPP'
tp41
F1
s(S'PP'
p42
S'PAP'
tp43
F55
s(S'CP'
p44
S'CDADVAPP'
tp45
F1
s(S'PP'
S'PNP'
tp46
F197
s(S'DP'
S'ADDP'
tp47
F2
s(S'DP'
S'DDP'
tp48
F16
s(S'VP'
S'ADVVDDP'
tp49
F1
s(S'PP'
p50
S'PAAP'
tp51
F6
s(S'MP'
S'MCDP'
tp52
F4
s(S'NP'
S'ANADVAP'
tp53
F1
s(S'VP'
S'ADVADVADVVVAP'
tp54
F1
s(S'NP'
S'NMP'
tp55
F84
s(S'NP'
S'AAAAANVP'
tp56
F2
s(S'VP'
S'VMMP'
tp57
F1
s(S'PP'
S'PDP'
tp58
F139
s(S'CP'
S'CDAAPP'
tp59
F1
s(S'AP'
S'AAANP'
tp60
F1
s(S'PP'
p61
S'PPPADVVP'
tp62
F1
s(S'NP'
S'NADVADVADVVP'
tp63
F1
s(S'PP'
S'PPADVAP'
tp64
F1
s(S'DP'
S'DDANP'
tp65
F5
s(S'NP'
S'NACP'
tp66
F6
s(S'NP'
p67
S'NCCP'
tp68
F17
s(S'DP'
S'DADVADVVVP'
tp69
F1
s(S'DP'
S'ADVADAAP'
tp70
F1
s(S'NP'
p71
S'NNCP'
tp72
F13
s(S'DP'
S'ADVDDPP'
tp73
F1
s(S'DP'
S'DDDDP'
tp74
F2
s(S'VP'
p75
S'AVNP'
tp76
F3
s(S'VP'
S'VVADP'
tp77
F1
s(S'VP'
S'VADVVP'
tp78
F3
s(S'VP'
S'ADVADVADVVNP'
tp79
F1
s(S'MP'
S'MVPPP'
tp80
F2
s(S'MP'
S'ADVMMVVP'
tp81
F1
s(S'MP'
S'MADVVNNP'
tp82
F1
s(S'VP'
p83
S'ADVVAP'
tp84
F2
s(g11
S'APDP'
tp85
F11
s(S'AP'
S'AADVCP'
tp86
F1
s(S'VP'
S'ADVVVP'
tp87
F1
s(S'VP'
S'ADVAVADVADVADVCCP'
tp88
F1
s(S'MP'
S'MADVVNP'
tp89
F1
s(S'DP'
S'DNNP'
tp90
F29
s(S'CP'
p91
S'CADVDDPP'
tp92
F1
s(g7
S'CCADVDP'
tp93
F1
s(S'NP'
S'NNNVP'
tp94
F2
s(S'PP'
p95
S'PADVVP'
tp96
F3
s(S'DP'
S'DACP'
tp97
F1
s(S'AP'
p98
S'APP'
tp99
F30
s(S'NP'
S'NADVMP'
tp100
F4
s(S'PP'
S'PPADP'
tp101
F1
s(S'AP'
S'AAADVDDP'
tp102
F1
s(S'NP'
S'ADVANPP'
tp103
F1
s(S'VP'
S'VVVVPP'
tp104
F1
s(S'VP'
p105
S'VADVADVNP'
tp106
F1
s(S'CP'
S'CDDDDPP'
tp107
F1
s(S'PP'
S'PAANP'
tp108
F3
s(S'DP'
S'ADVDVP'
tp109
F2
s(S'PP'
S'PPVVP'
tp110
F3
s(S'MP'
S'MVNP'
tp111
F24
s(S'AP'
S'AADVCCP'
tp112
F1
s(S'CP'
S'CDDDPPP'
tp113
F1
s(S'PP'
S'PAVP'
tp114
F6
s(S'MP'
S'ADVMVP'
tp115
F5
s(S'VP'
S'VVVPP'
tp116
F5
s(S'MP'
S'MADVVPP'
tp117
F3
s(S'AP'
S'ADVADP'
tp118
F2
s(S'VP'
S'VVADVPP'
tp119
F1
s(S'PP'
S'APDDP'
tp120
F3
s(S'VP'
S'ADVADVVVNP'
tp121
F1
s(S'PP'
S'PPCP'
tp122
F1
s(S'VP'
S'ADVVNP'
tp123
F6
s(S'VP'
p124
S'VVNP'
tp125
F19
s(S'VP'
S'VADVADVAAP'
tp126
F1
s(S'PP'
S'PPVP'
tp127
F15
s(S'VP'
S'VADVDP'
tp128
F3
s(S'VP'
S'VAAP'
tp129
F5
s(S'NP'
S'ANDP'
tp130
F6
s(S'NP'
S'NVVP'
tp131
F51
s(g32
S'AAPVP'
tp132
F1
s(S'AP'
S'AAP'
tp133
F1
s(S'VP'
p134
S'VMP'
tp135
F2
s(S'NP'
p136
S'ANNAP'
tp137
F1
s(S'VP'
S'VVNNP'
tp138
F2
s(S'CP'
S'CDAPP'
tp139
F9
s(S'DP'
p140
S'ADVADVP'
tp141
F1
s(g140
S'ADNP'
tp142
F2
s(S'DP'
S'ADVDDPPP'
tp143
F1
s(S'PP'
S'PADP'
tp144
F6
s(S'DP'
S'DADVADVADVADVNP'
tp145
F1
s(S'DP'
S'ADVADVDVP'
tp146
F1
s(S'DP'
S'DADVAP'
tp147
F2
s(S'DP'
S'DAPP'
tp148
F11
s(S'MP'
S'MVVCP'
tp149
F1
s(S'NP'
S'AANNVVVP'
tp150
F1
s(S'DP'
S'DAAVP'
tp151
F2
s(S'VP'
S'ADVADVADVVDP'
tp152
F1
s(S'VP'
S'ADVADVVDP'
tp153
F3
s(S'PP'
S'PPPDP'
tp154
F1
s(S'AP'
S'AAPPP'
tp155
F1
s(S'DP'
S'ADVDNP'
tp156
F2
s(S'VP'
S'VVPP'
tp157
F20
s(S'CP'
S'CDDPP'
tp158
F18
s(S'MP'
S'MVPP'
tp159
F11
s(S'DP'
S'ADVP'
tp160
F2
s(S'MP'
S'MVADP'
tp161
F1
s(S'CP'
S'CDDPPP'
tp162
F5
s(S'NP'
S'NNPP'
tp163
F7
s(S'MP'
S'MVVDP'
tp164
F3
s(S'NP'
S'ANVP'
tp165
F7
s(S'DP'
S'ADVDDVP'
tp166
F2
s(S'VP'
p167
S'VADVADVPPP'
tp168
F1
s(S'NP'
S'AAAANDP'
tp169
F2
s(S'VP'
S'ADVVCP'
tp170
F3
s(S'PP'
S'PVVVP'
tp171
F1
s(g50
S'PMP'
tp172
F6
s(S'CP'
S'CCDP'
tp173
F22
s(S'DP'
S'AADDPP'
tp174
F1
s(g34
S'NVVVP'
tp175
F17
s(S'CP'
S'CDDDPP'
tp176
F2
s(S'PP'
S'PADVADVADVADVNP'
tp177
F1
s(S'PP'
S'PPADVVP'
tp178
F1
s(S'VP'
S'VVVDP'
tp179
F5
s(S'PP'
S'PNNNP'
tp180
F1
s(g95
S'PPP'
tp181
F35
s(S'MP'
S'MADVADVVADVAP'
tp182
F1
s(S'NP'
p183
S'NAVP'
tp184
F9
s(S'PP'
S'PADVAP'
tp185
F3
s(S'VP'
S'VVVANP'
tp186
F2
s(S'NP'
S'NAAAP'
tp187
F1
s(S'DP'
S'DAAAP'
tp188
F1
s(g38
S'VPP'
tp189
F103
s(S'CP'
S'ADVCCDP'
tp190
F1
s(S'MP'
S'ADVADVMVP'
tp191
F1
s(S'PP'
S'PADVDP'
tp192
F1
s(S'MP'
S'MADVADVADVVVAP'
tp193
F1
s(S'MP'
p194
S'MADVVAP'
tp195
F1
s(S'NP'
S'AAAANVP'
tp196
F2
s(S'DP'
S'DAAPP'
tp197
F2
s(S'PP'
S'PVVP'
tp198
F10
s(S'CP'
S'CADPPP'
tp199
F3
s(S'AP'
S'AACP'
tp200
F3
s(S'NP'
p201
S'NADVMMP'
tp202
F1
s(S'PP'
S'PMMP'
tp203
F1
s(S'VP'
p204
S'VPPP'
tp205
F9
s(S'VP'
p206
S'AVCCP'
tp207
F1
s(S'VP'
S'VVPPP'
tp208
F1
s(S'PP'
S'PPAP'
tp209
F6
s(S'DP'
S'DVVP'
tp210
F14
s(S'PP'
p211
S'PADVAVP'
tp212
F3
s(S'NP'
S'ANMP'
tp213
F1
s(S'AP'
S'APPP'
tp214
F3
s(S'PP'
S'ADVPPP'
tp215
F1
s(S'NP'
S'ADVADVNVP'
tp216
F1
s(S'VP'
S'VVVP'
tp217
F4
s(S'CP'
S'CADVDPP'
tp218
F10
s(S'NP'
S'ANCP'
tp219
F27
s(S'DP'
S'DCP'
tp220
F10
s(S'NP'
S'NNVVVVP'
tp221
F1
s(S'DP'
S'DDDP'
tp222
F3
s(S'DP'
p223
S'DDADVPP'
tp224
F2
s(S'NP'
p225
S'ANVVP'
tp226
F4
s(g136
S'NVVVVP'
tp227
F1
s(g71
S'NPPP'
tp228
F3
s(S'DP'
S'DAVP'
tp229
F5
s(S'NP'
S'NNNNMP'
tp230
F1
s(S'AP'
S'ACP'
tp231
F40
s(S'NP'
S'NDDDDP'
tp232
F1
s(S'PP'
S'PPNP'
tp233
F24
s(S'DP'
p234
S'AADVP'
tp235
F1
s(S'VP'
S'VAANNP'
tp236
F2
s(S'CP'
S'CDDADVPP'
tp237
F2
s(S'AP'
S'ADP'
tp238
F161
s(S'CP'
S'CADVDDPPP'
tp239
F1
s(S'DP'
S'DDAVP'
tp240
F1
s(g204
S'AVDP'
tp241
F16
s(g124
S'VVAP'
tp242
F10
s(S'NP'
p243
S'NPP'
tp244
F84
s(S'PP'
S'PPPPNP'
tp245
F1
s(g243
S'NVP'
tp246
F240
s(S'CP'
S'ADVCCDDP'
tp247
F2
s(S'VP'
S'VDDP'
tp248
F16
s(S'NP'
S'AANVVP'
tp249
F1
s(S'DP'
S'DADVAPP'
tp250
F1
s(S'NP'
S'NADVADVVVP'
tp251
F1
s(S'NP'
S'ANPP'
tp252
F14
s(g61
S'PPPPP'
tp253
F1
s(S'NP'
S'ADVADVADVADVNVVVP'
tp254
F1
s(S'MP'
S'MVVPP'
tp255
F4
s(S'NP'
p256
S'NPPPP'
tp257
F1
s(S'AP'
S'AADVADVDP'
tp258
F1
s(S'CP'
S'CAADPP'
tp259
F1
s(S'DP'
S'DADVADVVP'
tp260
F1
s(S'NP'
S'NAACP'
tp261
F1
s(S'PP'
S'PNNP'
tp262
F21
s(S'MP'
S'MMNP'
tp263
F1
s(g21
S'AVAP'
tp264
F1
s(S'MP'
S'MMVP'
tp265
F5
s(S'NP'
S'ADVNCP'
tp266
F3
s(S'DP'
S'ADPP'
tp267
F13
s(S'CP'
S'ACDP'
tp268
F11
s(g167
S'VCCP'
tp269
F3
s(S'AP'
S'ADVANP'
tp270
F1
s(S'NP'
S'NNACP'
tp271
F2
s(S'VP'
p272
S'VAP'
tp273
F89
s(S'DP'
S'DDDPP'
tp274
F4
s(g32
S'PAAPP'
tp275
F1
s(S'MP'
S'MVVVDP'
tp276
F1
s(S'DP'
S'DDDPPP'
tp277
F2
s(S'AP'
S'AAACP'
tp278
F1
s(S'VP'
S'ADVVVDP'
tp279
F4
s(S'MP'
S'MADVADVADVVVNP'
tp280
F1
s(S'AP'
S'AADDP'
tp281
F4
s(S'VP'
S'VAANP'
tp282
F3
s(S'MP'
S'MADVADVADVVNP'
tp283
F1
s(S'VP'
p284
S'VVDP'
tp285
F22
s(S'VP'
S'VVAADP'
tp286
F1
s(S'VP'
S'ADVADVADVVAP'
tp287
F1
s(S'AP'
S'AAACCP'
tp288
F1
s(S'PP'
S'PANP'
tp289
F9
s(S'NP'
S'AANMP'
tp290
F1
s(S'AP'
S'AAVP'
tp291
F1
s(S'NP'
S'NAAP'
tp292
F4
s(S'NP'
S'NDDP'
tp293
F8
s(S'AP'
S'ACCP'
tp294
F3
s(g67
S'NDP'
tp295
F38
s(S'NP'
S'AAANVP'
tp296
F4
s(S'DP'
S'DDVP'
tp297
F16
s(S'NP'
p298
S'AANVP'
tp299
F2
s(S'VP'
S'VNNNP'
tp300
F1
s(S'VP'
S'VADVADVPP'
tp301
F1
s(S'CP'
S'CDADVADVPP'
tp302
F1
s(g11
S'PCP'
tp303
F6
s(g67
S'NNPPP'
tp304
F1
s(S'PP'
S'PACP'
tp305
F1
s(S'AP'
S'ADVACP'
tp306
F5
s(S'VP'
p307
S'VVVAP'
tp308
F3
s(S'DP'
S'ADPPP'
tp309
F3
s(g194
S'MVCP'
tp310
F2
s(S'CP'
S'CCDDP'
tp311
F5
s(S'NP'
S'NNADVVP'
tp312
F1
s(S'VP'
p313
S'ADVADVADVVPP'
tp314
F1
s(S'NP'
S'ADVANAP'
tp315
F1
s(S'NP'
p316
S'NNVVP'
tp317
F5
s(g38
S'VVCP'
tp318
F18
s(S'NP'
S'AANCP'
tp319
F1
s(S'VP'
S'VADVNP'
tp320
F3
s(S'VP'
S'VVDDDP'
tp321
F1
s(S'AP'
S'ADVAVVP'
tp322
F1
s(S'NP'
S'NNDDP'
tp323
F1
s(S'VP'
S'ADVVPP'
tp324
F5
s(g75
S'VVADVANP'
tp325
F1
s(S'VP'
S'VNNP'
tp326
F15
s(S'DP'
S'DDNP'
tp327
F13
s(S'CP'
S'ACADVDP'
tp328
F2
s(S'DP'
S'DDNNP'
tp329
F1
s(g23
S'AAPPP'
tp330
F1
s(S'AP'
S'ADVADVAACP'
tp331
F1
s(S'VP'
S'VPPPPP'
tp332
F1
s(S'AP'
S'AADVADP'
tp333
F1
s(S'DP'
S'AADPP'
tp334
F1
s(S'NP'
S'AAAANVVP'
tp335
F1
s(S'PP'
p336
S'ADVPAP'
tp337
F1
s(g201
S'ADVADVADVADVNDP'
tp338
F1
s(S'MP'
p339
S'MVVNP'
tp340
F2
s(S'PP'
S'ADVADVPDP'
tp341
F1
s(S'CP'
S'ACDDP'
tp342
F2
s(S'AP'
S'AAPP'
tp343
F1
s(g336
S'PADVMP'
tp344
F1
s(g83
S'VADVADP'
tp345
F1
s(S'NP'
S'NAPP'
tp346
F2
s(S'AP'
S'ADVADVADP'
tp347
F2
s(S'VP'
S'VVVCP'
tp348
F1
s(S'NP'
S'ANCCP'
tp349
F2
s(g225
S'AANPP'
tp350
F6
s(g256
S'NNCCP'
tp351
F2
s(g316
S'NNMP'
tp352
F9
s(S'DP'
S'DDDVP'
tp353
F2
s(S'CP'
S'CADDPP'
tp354
F1
s(S'NP'
S'AAAANCP'
tp355
F2
s(S'CP'
S'CDDAPP'
tp356
F2
s(S'NP'
S'ANAP'
tp357
F2
s(S'MP'
S'MVAP'
tp358
F11
s(g42
S'PVP'
tp359
F131
s(S'MP'
S'MVDDDP'
tp360
F1
s(S'VP'
S'VADVCCP'
tp361
F2
s(S'NP'
S'ADVNAVP'
tp362
F1
s(S'DP'
S'DVVVP'
tp363
F1
s(S'NP'
S'ADVADVANVP'
tp364
F1
s(S'VP'
S'AVCP'
tp365
F1
s(S'NP'
S'NADVADVAP'
tp366
F1
s(S'DP'
p367
S'DPP'
tp368
F273
s(g140
S'DDPP'
tp369
F32
s(S'DP'
S'DANP'
tp370
F34
s(S'NP'
S'NADVPP'
tp371
F1
s(g30
S'DDAAAANP'
tp372
F1
s(S'VP'
S'VVVVANNP'
tp373
F1
s(S'PP'
S'APADVDDP'
tp374
F1
s(S'PP'
S'PDDDP'
tp375
F2
s(g5
S'ADVVVNNNP'
tp376
F1
s(g307
S'ADVADVVVPP'
tp377
F1
s(g339
S'MADVADVVNP'
tp378
F2
s(S'NP'
S'NNNVVP'
tp379
F1
s(S'NP'
S'ADVNMMP'
tp380
F1
s(S'PP'
S'AAPDP'
tp381
F1
s(S'MP'
S'MADVVDP'
tp382
F1
s(S'PP'
S'PDDP'
tp383
F9
s(S'PP'
S'PCCP'
tp384
F1
s(S'PP'
S'ADVAPNP'
tp385
F1
s(S'NP'
S'NNVP'
tp386
F26
s(S'VP'
S'VVDDP'
tp387
F2
s(g367
S'DAANP'
tp388
F9
s(S'NP'
S'AANCCCP'
tp389
F1
s(S'AP'
S'ADDP'
tp390
F7
s(S'PP'
S'PNNNNP'
tp391
F1
s(S'VP'
S'ADVVVAP'
tp392
F1
s(g313
S'VADVADVADVVP'
tp393
F2
s(S'DP'
S'DPPP'
tp394
F44
s(g91
S'ADVADVADVCCDP'
tp395
F1
s(S'PP'
S'ADVADVPPNP'
tp396
F1
s(S'NP'
S'NNAVP'
tp397
F1
s(S'AP'
S'AVVP'
tp398
F3
s(g211
S'ADVPNP'
tp399
F3
s(S'PP'
S'PPDP'
tp400
F13
s(g206
S'ADVVVADVDP'
tp401
F1
s(S'DP'
S'DDADVANP'
tp402
F1
s(S'MP'
S'MVVAP'
tp403
F1
s(g234
S'AADADVNP'
tp404
F1
s(S'NP'
S'NAP'
tp405
F44
s(S'NP'
S'NNAAP'
tp406
F2
s(S'VP'
S'VAAAP'
tp407
F1
s(S'VP'
S'ADVVVADVAP'
tp408
F1
s(g17
S'ADVAVNP'
tp409
F2
s(S'PP'
S'ADVPADP'
tp410
F1
s(S'DP'
S'DDAPP'
tp411
F3
s(S'AP'
S'AAADP'
tp412
F1
s(S'PP'
S'APNP'
tp413
F3
s(S'DP'
S'DDVVP'
tp414
F1
s(S'VP'
S'VVVNP'
tp415
F4
s(S'MP'
S'MVANP'
tp416
F1
s(S'CP'
S'CDPP'
tp417
F247
s(S'AP'
S'ADDDP'
tp418
F1
s(g183
S'NNDP'
tp419
F4
s(S'CP'
S'ADVCDP'
tp420
F1
s(S'AP'
S'ADVAAP'
tp421
F1
s(g134
S'ADVADVVNP'
tp422
F2
s(g95
S'PPNNP'
tp423
F5
s(S'CP'
S'CAADDPP'
tp424
F1
s(S'VP'
S'VDP'
tp425
F184
s(S'NP'
S'NADVAP'
tp426
F1
s(S'DP'
S'DADVNP'
tp427
F3
s(S'DP'
S'DAP'
tp428
F27
s(S'CP'
S'CADPP'
tp429
F8
s(S'PP'
S'PPAVP'
tp430
F1
s(S'MP'
S'MADVADVVDP'
tp431
F1
s(S'VP'
S'AVPP'
tp432
F3
s(S'NP'
S'NADVADVMP'
tp433
F1
s(g234
S'DADVADVPP'
tp434
F1
s(S'DP'
S'DMP'
tp435
F8
s(g14
S'ADVDPP'
tp436
F12
s(S'AP'
S'AADP'
tp437
F13
s(S'NP'
S'NNADVVVP'
tp438
F1
s(g284
S'VADVPP'
tp439
F1
s(S'DP'
S'ADVDANP'
tp440
F1
s(S'PP'
S'ADVPVP'
tp441
F1
s(S'DP'
S'DDDDPP'
tp442
F2
s(S'NP'
S'NNVVVP'
tp443
F1
s(S'PP'
S'ADVPDP'
tp444
F1
s(S'MP'
S'MVVADVPP'
tp445
F1
s(S'NP'
S'NCP'
tp446
F154
s(S'CP'
S'CADVDPPP'
tp447
F1
s(S'AP'
S'AAAP'
tp448
F1
s(g105
S'VVP'
tp449
F15
s(S'NP'
S'AANDP'
tp450
F2
s(S'VP'
S'VDDDP'
tp451
F1
s(S'MP'
S'MNVP'
tp452
F1
s(S'NP'
S'AANAP'
tp453
F1
s(S'VP'
S'VAPP'
tp454
F4
s(S'VP'
S'ADVVDP'
tp455
F5
s(S'DP'
S'DADVPP'
tp456
F4
s(S'CP'
S'CCADP'
tp457
F2
s(S'NP'
S'ADVNNCP'
tp458
F1
s(g98
S'ADVAPP'
tp459
F6
s(g44
S'AACDP'
tp460
F1
s(S'CP'
S'CCDDDP'
tp461
F1
s(S'CP'
S'CCCDP'
tp462
F1
s(S'DP'
S'ADVDPPP'
tp463
F2
s(S'DP'
S'DVP'
tp464
F159
s(S'NP'
S'ADVNPP'
tp465
F3
s(S'VP'
S'ADVADVADVVVNP'
tp466
F1
s(S'AP'
S'AVP'
tp467
F12
s(g298
S'NADVVP'
tp468
F3
s(S'NP'
S'AAANNVP'
tp469
F1
s(S'DP'
S'DDPPP'
tp470
F7
s(S'NP'
S'ADVNMP'
tp471
F2
s(S'NP'
S'NNAP'
tp472
F1
s(S'MP'
S'MADVVCP'
tp473
F1
s(S'PP'
S'PPANP'
tp474
F1
s(g223
S'DDADVADVANP'
tp475
F1
s(S'MP'
S'MDDADVADVANP'
tp476
F1
s(S'CP'
S'CDADVPP'
tp477
F4
s(g272
S'VNP'
tp478
F123
s(S'VP'
S'VANP'
tp479
F8
s(g124
S'VADVAP'
tp480
F8
s(S'DP'
S'DDDDVP'
tp481
F1
s(S'VP'
S'ADVADVVVDP'
tp482
F1
s.