ccollections
defaultdict
p1
(c__builtin__
float
p2
tRp3
(S'NP'
S'AAAANAP'
tp4
F2
s(S'VP'
S'VVAAAP'
tp5
F1
s(S'NP'
S'NAMP'
tp6
F1
s(S'PP'
S'ADVADVPPAP'
tp7
F1
s(S'CP'
S'CAAADPP'
tp8
F1
s(S'PP'
S'PAAANP'
tp9
F1
s(S'DP'
S'ADDPP'
tp10
F2
s(S'NP'
S'ADVNNMP'
tp11
F1
s(S'DP'
S'DDAP'
tp12
F4
s(S'VP'
S'ADVVVNP'
tp13
F9
s(S'AP'
S'AADDDP'
tp14
F1
s(S'PP'
S'ADVADVADVPPVP'
tp15
F1
s(S'VP'
S'VVVVP'
tp16
F1
s(S'DP'
S'DAANNP'
tp17
F1
s(S'AP'
p18
S'AVVVP'
tp19
F1
s(S'NP'
p20
S'AAAANPPP'
tp21
F1
s(S'NP'
S'ADVNAPP'
tp22
F1
s(S'PP'
p23
S'PADVNP'
tp24
F52
s(S'DP'
p25
S'DNP'
tp26
F862
s(S'MP'
S'MVVAAP'
tp27
F1
s(S'NP'
p28
S'ADVNDP'
tp29
F2
s(S'PP'
S'AAPDDP'
tp30
F1
s(S'VP'
S'ADVADVAVADVNP'
tp31
F1
s(S'NP'
S'NNNMMP'
tp32
F1
s(S'CP'
S'CDPPP'
tp33
F86
s(S'PP'
S'ADVPPANP'
tp34
F1
s(S'VP'
S'VADP'
tp35
F21
s(S'DP'
S'DNNNNP'
tp36
F5
s(S'DP'
S'DAAP'
tp37
F13
s(S'VP'
S'AAVPPP'
tp38
F1
s(S'PP'
p39
S'PPPPPP'
tp40
F2
s(S'VP'
S'VADVADVADVAP'
tp41
F1
s(S'VP'
p42
S'VAVP'
tp43
F3
s(S'PP'
S'APPDP'
tp44
F1
s(S'CP'
S'CADVADVDPPP'
tp45
F1
s(S'VP'
S'ADVADVADVVVPP'
tp46
F1
s(S'DP'
S'ADNNP'
tp47
F2
s(S'VP'
S'AVADVDP'
tp48
F1
s(S'AP'
S'AAADVPPP'
tp49
F1
s(S'MP'
S'MDVP'
tp50
F1
s(S'VP'
S'VVVAVP'
tp51
F1
s(S'PP'
S'APVP'
tp52
F9
s(S'MP'
S'MVDP'
tp53
F95
s(S'PP'
S'PADVANP'
tp54
F5
s(S'PP'
S'PPPP'
tp55
F34
s(S'NP'
S'NNADVADVADVADVVP'
tp56
F1
s(S'DP'
S'DDDNP'
tp57
F2
s(S'DP'
p58
S'DDMP'
tp59
F1
s(S'MP'
S'MMADVVP'
tp60
F2
s(S'VP'
S'VACP'
tp61
F8
s(S'AP'
S'AAAVP'
tp62
F2
s(S'PP'
S'PPPAAP'
tp63
F1
s(S'DP'
S'DADVVP'
tp64
F24
s(S'NP'
S'ADVADVANADVVVP'
tp65
F1
s(S'PP'
S'PADVNNP'
tp66
F2
s(S'VP'
S'AAVVADVNP'
tp67
F1
s(S'NP'
S'AANADVADVVVP'
tp68
F1
s(S'NP'
S'NADVACP'
tp69
F1
s(S'NP'
S'NAAVVP'
tp70
F1
s(S'NP'
S'NDDDP'
tp71
F3
s(S'NP'
S'NADVVVP'
tp72
F36
s(S'CP'
S'CADVDAPP'
tp73
F1
s(S'NP'
S'ANADVPP'
tp74
F1
s(S'VP'
S'VCP'
tp75
F250
s(S'MP'
S'MVVANP'
tp76
F2
s(S'NP'
p77
S'ADVNNP'
tp78
F1
s(S'NP'
p79
S'NMMP'
tp80
F16
s(S'VP'
S'VVAANNP'
tp81
F2
s(S'VP'
S'ADVVAAP'
tp82
F2
s(S'NP'
p83
S'AAAANPP'
tp84
F3
s(S'VP'
S'ADVVCCP'
tp85
F2
s(S'PP'
S'ADVPADP'
tp86
F1
s(S'PP'
p87
S'PAP'
tp88
F260
s(S'MP'
S'MADVVCCP'
tp89
F1
s(S'MP'
S'MMVVP'
tp90
F2
s(S'DP'
S'DDADVADVPP'
tp91
F1
s(S'PP'
S'ADVPPVP'
tp92
F4
s(S'NP'
S'ANADVADVADVADVVP'
tp93
F1
s(S'NP'
S'NNNAP'
tp94
F2
s(S'NP'
S'ANPPP'
tp95
F4
s(S'NP'
S'NNNNVVVP'
tp96
F1
s(S'CP'
S'CCDDDDP'
tp97
F2
s(S'VP'
S'AAVNNP'
tp98
F1
s(g87
S'PNP'
tp99
F827
s(S'AP'
S'AADVADVDP'
tp100
F2
s(S'DP'
p101
S'DDP'
tp102
F26
s(S'MP'
S'MADVADVVAP'
tp103
F2
s(S'VP'
S'ADVVDDP'
tp104
F5
s(S'NP'
p105
S'NNNPP'
tp106
F4
s(S'NP'
S'NNDP'
tp107
F16
s(S'VP'
S'ADVVVDDP'
tp108
F1
s(S'MP'
S'MVVVANP'
tp109
F1
s(S'DP'
S'DDAANP'
tp110
F2
s(S'NP'
p111
S'NNADVADVCP'
tp112
F1
s(S'AP'
S'AANP'
tp113
F2
s(S'AP'
S'ADVADVAVVP'
tp114
F1
s(S'NP'
S'NMP'
tp115
F360
s(S'NP'
S'ADVNCCP'
tp116
F1
s(S'NP'
S'AAAAANVVP'
tp117
F1
s(S'NP'
S'ADVADVADVADVNDP'
tp118
F1
s(S'DP'
S'DDDDPP'
tp119
F4
s(S'VP'
S'AAVNP'
tp120
F1
s(g87
S'PDP'
tp121
F764
s(S'DP'
S'DDPPPPP'
tp122
F2
s(S'CP'
S'CDADVADVPP'
tp123
F3
s(S'NP'
S'ADVNVVP'
tp124
F7
s(S'AP'
S'AAANP'
tp125
F1
s(S'VP'
S'VNNNNP'
tp126
F4
s(S'PP'
S'ADVADVADVADVPDP'
tp127
F1
s(S'VP'
S'VVVDDP'
tp128
F2
s(S'CP'
S'CDADVADVPPP'
tp129
F1
s(S'VP'
S'ADVADVADVADVADVVVDP'
tp130
F1
s(S'VP'
S'AVAAP'
tp131
F2
s(S'NP'
S'NACCP'
tp132
F1
s(S'AP'
S'ANP'
tp133
F2
s(S'PP'
S'ADVPAAP'
tp134
F1
s(S'NP'
S'NADVADVADVVP'
tp135
F8
s(S'PP'
S'PADVPP'
tp136
F2
s(S'PP'
S'PDDDDP'
tp137
F1
s(S'VP'
S'AAVPP'
tp138
F3
s(S'VP'
p139
S'VVADVNP'
tp140
F2
s(S'MP'
S'MVACP'
tp141
F1
s(S'NP'
S'ANVVVVP'
tp142
F1
s(S'DP'
p143
S'DPPPP'
tp144
F18
s(S'DP'
S'DDANP'
tp145
F17
s(S'NP'
p146
S'NACP'
tp147
F13
s(S'AP'
S'ADVAVP'
tp148
F8
s(S'NP'
S'NCCP'
tp149
F76
s(S'DP'
p150
S'DADVADVVVP'
tp151
F3
s(S'AP'
S'AAAADP'
tp152
F3
s(S'VP'
S'ADVVAANP'
tp153
F1
s(S'VP'
S'VVVVVP'
tp154
F1
s(S'NP'
p155
S'NNCP'
tp156
F49
s(S'DP'
p157
S'ADVDDPP'
tp158
F3
s(S'NP'
S'NADVADVVP'
tp159
F3
s(S'NP'
S'NNPPPP'
tp160
F2
s(S'DP'
S'DDDDP'
tp161
F1
s(g139
S'AVNP'
tp162
F13
s(S'VP'
p163
S'VVADP'
tp164
F3
s(S'NP'
S'AANNVVVVP'
tp165
F1
s(S'VP'
S'ADVAVADVDDP'
tp166
F1
s(g146
S'ADVNDDP'
tp167
F1
s(S'NP'
S'NADVADVPP'
tp168
F1
s(S'MP'
S'MADVADVVANP'
tp169
F1
s(S'AP'
S'ADVADVANNP'
tp170
F1
s(S'VP'
S'ADVADVADVADVVNNP'
tp171
F1
s(S'VP'
S'VVVANP'
tp172
F1
s(S'VP'
S'ADVADVVVADVAP'
tp173
F1
s(g23
S'ADVAPDP'
tp174
F4
s(S'VP'
S'VVMP'
tp175
F1
s(S'VP'
S'VADVVP'
tp176
F17
s(S'CP'
S'ACCDDP'
tp177
F1
s(S'VP'
S'ADVADVADVVNP'
tp178
F5
s(S'MP'
S'MVAPP'
tp179
F1
s(S'MP'
S'MVPPP'
tp180
F2
s(g105
S'ANADVVP'
tp181
F5
s(S'NP'
S'AAAANVVP'
tp182
F1
s(S'PP'
S'ADVPPAAP'
tp183
F2
s(S'CP'
S'CCCDP'
tp184
F7
s(g42
S'AVNNP'
tp185
F1
s(S'VP'
S'VCCCP'
tp186
F3
s(S'PP'
S'APDP'
tp187
F48
s(S'NP'
S'NAAPPP'
tp188
F1
s(S'VP'
S'VADVNNP'
tp189
F1
s(S'VP'
S'ADVVNNP'
tp190
F1
s(S'AP'
S'AADVCP'
tp191
F3
s(S'AP'
S'AVVVVP'
tp192
F1
s(S'VP'
S'ADVAVCCP'
tp193
F2
s(S'MP'
S'MVADVVP'
tp194
F1
s(S'VP'
S'VVANP'
tp195
F8
s(S'VP'
p196
S'VVVVDP'
tp197
F10
s(S'VP'
S'ADVVVP'
tp198
F6
s(S'PP'
S'PPPPPNP'
tp199
F1
s(S'CP'
S'CADADVPPP'
tp200
F1
s(S'DP'
S'DADVADVADVPP'
tp201
F3
s(S'NP'
S'NADVADVADVADVDP'
tp202
F1
s(S'MP'
S'MVVAANNP'
tp203
F1
s(S'MP'
S'MADVVNP'
tp204
F12
s(S'NP'
S'NANP'
tp205
F6
s(S'PP'
S'ADVADVPAVP'
tp206
F1
s(S'DP'
p207
S'DNNP'
tp208
F150
s(S'CP'
S'CADVDDPP'
tp209
F1
s(S'DP'
S'DPPPPP'
tp210
F7
s(S'CP'
S'CDDPPPP'
tp211
F3
s(S'CP'
p212
S'CCADVDP'
tp213
F8
s(S'VP'
S'ADVADVADVVVDP'
tp214
F4
s(S'VP'
S'VVACP'
tp215
F1
s(S'VP'
S'AAVDDP'
tp216
F2
s(S'NP'
S'NADVADVADVADVADVVVP'
tp217
F1
s(S'NP'
S'NNNVP'
tp218
F11
s(S'PP'
p219
S'PPAAPP'
tp220
F1
s(g196
S'VDP'
tp221
F891
s(S'PP'
S'AAPPDP'
tp222
F2
s(S'DP'
S'DDADVADVADVVP'
tp223
F1
s(S'VP'
S'VVANNP'
tp224
F1
s(S'PP'
S'PADVVP'
tp225
F15
s(S'DP'
S'DADVADVADVPPP'
tp226
F1
s(S'MP'
S'MVVDDP'
tp227
F1
s(S'PP'
S'APAP'
tp228
F4
s(S'AP'
p229
S'APP'
tp230
F118
s(S'VP'
S'VVVADVANNP'
tp231
F1
s(S'NP'
S'NADVMP'
tp232
F4
s(S'AP'
S'AADVADVADVDP'
tp233
F2
s(S'VP'
S'VADVADVVP'
tp234
F1
s(S'VP'
S'VVAPP'
tp235
F1
s(S'NP'
S'ADVADVNDP'
tp236
F1
s(S'NP'
S'ADVANPP'
tp237
F8
s(S'VP'
S'VVVVPP'
tp238
F5
s(S'DP'
S'DAAVP'
tp239
F2
s(S'VP'
S'VVVAAP'
tp240
F1
s(S'MP'
S'MVVVNP'
tp241
F5
s(S'PP'
S'PAANP'
tp242
F17
s(S'PP'
S'PPADVADVNNP'
tp243
F1
s(S'NP'
p244
S'ANVP'
tp245
F66
s(S'VP'
S'VAACP'
tp246
F1
s(S'VP'
S'VVAVP'
tp247
F1
s(g111
S'NNAAAP'
tp248
F1
s(S'MP'
S'MVNP'
tp249
F73
s(S'MP'
S'AMVP'
tp250
F2
s(S'NP'
S'NNANP'
tp251
F1
s(S'VP'
S'ADVADVADVADVVCP'
tp252
F1
s(S'NP'
S'ADVANNADVAP'
tp253
F1
s(S'NP'
S'ANAAP'
tp254
F3
s(S'CP'
S'CDDDPPP'
tp255
F1
s(S'CP'
S'CADVADVDDPP'
tp256
F1
s(S'PP'
S'PAVP'
tp257
F28
s(S'MP'
S'ADVMVP'
tp258
F4
s(S'PP'
p259
S'ADVADVPPVP'
tp260
F1
s(S'MP'
S'MADVADVADVVCP'
tp261
F1
s(S'VP'
S'VVVPP'
tp262
F34
s(S'DP'
S'ADVDADP'
tp263
F1
s(S'PP'
p264
S'APPPP'
tp265
F2
s(S'DP'
S'DADP'
tp266
F1
s(S'VP'
S'VVAANP'
tp267
F2
s(S'AP'
S'ADVADP'
tp268
F5
s(S'VP'
S'VVVVAAP'
tp269
F3
s(S'MP'
S'MADVADVADVADVVCP'
tp270
F1
s(S'MP'
S'MADVVADVANP'
tp271
F1
s(S'PP'
S'APDDP'
tp272
F9
s(S'NP'
S'AAANNVVVVP'
tp273
F1
s(S'VP'
S'ADVADVVVNP'
tp274
F5
s(S'DP'
S'DDVVVVP'
tp275
F1
s(S'AP'
S'ADVAAVP'
tp276
F1
s(S'DP'
S'DAAAVP'
tp277
F2
s(S'PP'
S'PPCP'
tp278
F1
s(S'PP'
S'APPPPPP'
tp279
F1
s(S'VP'
S'ADVVNP'
tp280
F40
s(S'DP'
S'DAAAP'
tp281
F1
s(S'VP'
p282
S'VVNP'
tp283
F109
s(S'NP'
S'ANNP'
tp284
F1
s(S'PP'
p285
S'PPPNNP'
tp286
F2
s(S'NP'
p287
S'AANADVCP'
tp288
F1
s(S'PP'
p289
S'PPVP'
tp290
F47
s(S'MP'
S'MVVAANP'
tp291
F1
s(S'VP'
S'VADVDP'
tp292
F4
s(S'MP'
S'MVVVPP'
tp293
F2
s(S'NP'
S'AANADVADVADVPP'
tp294
F1
s(g196
S'VAAP'
tp295
F46
s(S'CP'
S'ADVCDDP'
tp296
F3
s(g83
S'ANDP'
tp297
F22
s(S'NP'
p298
S'NVVP'
tp299
F238
s(S'PP'
S'AAPVP'
tp300
F2
s(S'AP'
S'AAP'
tp301
F25
s(S'VP'
S'VMP'
tp302
F3
s(S'NP'
S'ANNAP'
tp303
F1
s(S'AP'
S'AAAVVP'
tp304
F1
s(S'VP'
S'VVNNP'
tp305
F13
s(S'CP'
S'CDAPP'
tp306
F26
s(S'VP'
S'VVAAP'
tp307
F4
s(S'MP'
S'MMPP'
tp308
F1
s(S'DP'
S'ADVADVP'
tp309
F2
s(S'DP'
S'ADVADVDDVP'
tp310
F1
s(S'DP'
S'ADNP'
tp311
F18
s(g219
S'AAPVVP'
tp312
F1
s(S'PP'
S'PPPPAP'
tp313
F1
s(S'PP'
S'PADP'
tp314
F20
s(S'VP'
p315
S'ADVVVCP'
tp316
F9
s(S'MP'
S'MVNNNNP'
tp317
F1
s(S'NP'
S'ANDDP'
tp318
F1
s(S'AP'
S'AAADVAP'
tp319
F1
s(S'DP'
S'DNNNNNP'
tp320
F1
s(g143
S'DADVAP'
tp321
F4
s(S'PP'
S'ADVADVPMP'
tp322
F1
s(S'DP'
S'ADVDAANP'
tp323
F1
s(S'DP'
S'DAPP'
tp324
F51
s(S'VP'
S'AVVP'
tp325
F1
s(S'MP'
S'MVVCP'
tp326
F6
s(S'VP'
S'ADVADVVPP'
tp327
F7
s(S'NP'
S'NNNADVDDP'
tp328
F1
s(S'VP'
S'VADVADVNP'
tp329
F4
s(S'VP'
S'ADVADVADVVDP'
tp330
F3
s(S'CP'
S'CADPPPP'
tp331
F1
s(S'PP'
S'PPADVADVADVADVVP'
tp332
F1
s(S'VP'
S'ADVADVVDP'
tp333
F7
s(S'AP'
S'ADVAVVVVP'
tp334
F1
s(S'PP'
S'PPPDP'
tp335
F7
s(S'PP'
S'AAAPDP'
tp336
F1
s(S'DP'
S'DDAAVP'
tp337
F1
s(S'AP'
p338
S'AAPPP'
tp339
F2
s(S'VP'
S'VDDDDP'
tp340
F2
s(S'DP'
S'DAAANP'
tp341
F7
s(S'DP'
p342
S'DADVANP'
tp343
F8
s(S'VP'
p344
S'VAAPP'
tp345
F1
s(S'DP'
S'ADVDNP'
tp346
F4
s(S'VP'
S'VVPP'
tp347
F99
s(S'VP'
S'VADVAPP'
tp348
F1
s(S'CP'
S'CDDPP'
tp349
F60
s(S'CP'
S'AACDDP'
tp350
F2
s(S'MP'
S'MVPP'
tp351
F59
s(S'DP'
S'ADVP'
tp352
F18
s(S'CP'
p353
S'CDDPPP'
tp354
F9
s(S'NP'
S'AAAANCP'
tp355
F1
s(S'PP'
S'AAPMP'
tp356
F1
s(S'NP'
S'NNPP'
tp357
F57
s(S'CP'
S'CDDPPPPPP'
tp358
F1
s(S'DP'
S'DDDDNP'
tp359
F2
s(S'MP'
S'MVVDP'
tp360
F9
s(S'AP'
p361
S'AACP'
tp362
F22
s(S'PP'
S'PPVVP'
tp363
F7
s(S'VP'
S'AAAVDDP'
tp364
F1
s(S'VP'
S'VVADVCCP'
tp365
F1
s(S'DP'
p366
S'DNNNP'
tp367
F21
s(S'DP'
S'ADVDDVP'
tp368
F3
s(S'DP'
S'ADVDADVAANP'
tp369
F1
s(S'PP'
p370
S'PADVADVVP'
tp371
F3
s(S'NP'
S'AAAANDP'
tp372
F6
s(S'MP'
S'MADVADVADVADVADVVDP'
tp373
F1
s(S'PP'
S'PVVVP'
tp374
F5
s(S'PP'
S'PMP'
tp375
F15
s(S'NP'
S'NNMMP'
tp376
F2
s(S'DP'
S'ADADVNNP'
tp377
F1
s(S'CP'
S'CCDP'
tp378
F141
s(S'NP'
S'ANNDP'
tp379
F1
s(S'DP'
S'ADVADVADVDPP'
tp380
F1
s(S'VP'
S'VADVANP'
tp381
F6
s(S'PP'
p382
S'PPNNNP'
tp383
F2
s(S'NP'
S'ADVAANPP'
tp384
F1
s(S'NP'
S'NVVVP'
tp385
F66
s(S'CP'
S'CDDDPP'
tp386
F6
s(S'PP'
S'PADVADVADVADVNP'
tp387
F1
s(S'PP'
S'PPADVVP'
tp388
F3
s(S'VP'
S'VVVDP'
tp389
F27
s(S'NP'
S'NADVAP'
tp390
F5
s(g285
S'PNNNP'
tp391
F12
s(S'MP'
p392
S'MVVVAP'
tp393
F1
s(S'CP'
S'CCCCDP'
tp394
F1
s(S'VP'
S'VAAPPP'
tp395
F1
s(S'PP'
S'APADVNNP'
tp396
F1
s(S'PP'
S'AAPNP'
tp397
F3
s(S'AP'
S'ADVAAAP'
tp398
F1
s(S'VP'
S'ADVVVDP'
tp399
F11
s(S'PP'
p400
S'PPP'
tp401
F123
s(S'PP'
S'ADVADVPAP'
tp402
F1
s(S'NP'
S'NNVVP'
tp403
F23
s(S'NP'
S'NAVP'
tp404
F21
s(S'PP'
S'ADVAPNNP'
tp405
F1
s(S'PP'
S'PADVAP'
tp406
F12
s(S'DP'
S'DDNNNP'
tp407
F4
s(S'PP'
S'PADDP'
tp408
F1
s(S'NP'
p409
S'ANADVCCP'
tp410
F1
s(S'DP'
S'ADVDVP'
tp411
F8
s(S'NP'
S'NAAAP'
tp412
F4
s(S'NP'
S'NCCCP'
tp413
F4
s(S'DP'
S'DADVADVPPP'
tp414
F2
s(S'NP'
S'NNDDP'
tp415
F2
s(S'MP'
S'MVVVVDP'
tp416
F1
s(S'MP'
S'MADVADVVPP'
tp417
F4
s(S'DP'
p418
S'ADVADVDNP'
tp419
F2
s(g196
S'VPP'
tp420
F523
s(S'NP'
S'ADVADVANNCCP'
tp421
F1
s(S'CP'
S'ADVCCDP'
tp422
F3
s(S'AP'
p423
S'ADVADVADVACP'
tp424
F1
s(S'CP'
S'ACCDP'
tp425
F1
s(S'NP'
S'NNNCP'
tp426
F10
s(S'PP'
S'PADVDP'
tp427
F9
s(S'CP'
S'CDADVAPP'
tp428
F3
s(S'AP'
S'ADVAADP'
tp429
F3
s(S'DP'
S'DANNP'
tp430
F2
s(S'MP'
S'MADVVAP'
tp431
F5
s(S'PP'
S'PADVAAP'
tp432
F2
s(S'NP'
S'AAAANVP'
tp433
F12
s(g366
S'DAAPP'
tp434
F11
s(S'PP'
S'PVVP'
tp435
F52
s(S'CP'
S'CADPPP'
tp436
F5
s(S'DP'
S'DADVPPP'
tp437
F8
s(S'VP'
S'ADVAVDDP'
tp438
F1
s(S'VP'
S'VADVADVADVADVNP'
tp439
F1
s(g282
S'ADVVCP'
tp440
F14
s(S'PP'
S'ADVPPAP'
tp441
F2
s(S'VP'
S'VPPP'
tp442
F61
s(S'VP'
S'ADVADVVVCCP'
tp443
F3
s(S'VP'
S'AVCCP'
tp444
F1
s(g77
S'NADVADVAVP'
tp445
F1
s(S'VP'
S'VVPPP'
tp446
F12
s(S'AP'
S'AADVADVCP'
tp447
F1
s(S'MP'
S'MADVADVADVADVVPP'
tp448
F1
s(S'NP'
S'ADVNAMP'
tp449
F1
s(S'PP'
S'PPAP'
tp450
F22
s(S'DP'
S'DVVP'
tp451
F86
s(S'MP'
S'MADVADVVCCP'
tp452
F1
s(S'MP'
S'MAAVDDP'
tp453
F1
s(S'NP'
S'NNNNDP'
tp454
F1
s(S'NP'
S'NNNVVP'
tp455
F1
s(S'PP'
S'PPADVADVADVADVNP'
tp456
F1
s(S'NP'
S'ANMP'
tp457
F18
s(S'AP'
S'APPP'
tp458
F13
s(g23
S'ADVPPP'
tp459
F5
s(S'NP'
S'ADVADVNVP'
tp460
F4
s(S'VP'
S'VVVP'
tp461
F5
s(S'CP'
S'CADVDPP'
tp462
F30
s(S'NP'
S'ADVADVNNVP'
tp463
F1
s(S'NP'
p464
S'ANCP'
tp465
F69
s(S'VP'
p466
S'ADVADVADVVDDP'
tp467
F1
s(S'DP'
p468
S'DCP'
tp469
F44
s(S'NP'
p470
S'ANNCP'
tp471
F2
s(S'NP'
S'AAANCP'
tp472
F1
s(S'AP'
S'AAAPP'
tp473
F1
s(S'VP'
S'ADVVVVP'
tp474
F1
s(S'NP'
p475
S'NNVVVVP'
tp476
F4
s(S'DP'
S'DDDP'
tp477
F4
s(S'NP'
S'NADVADVADVDDP'
tp478
F1
s(S'DP'
S'DDADVPP'
tp479
F3
s(S'MP'
S'MVVVVNP'
tp480
F3
s(S'NP'
p481
S'ANVVP'
tp482
F18
s(S'NP'
S'NVVVVP'
tp483
F19
s(S'NP'
S'NPPP'
tp484
F54
s(S'PP'
S'PPAPP'
tp485
F1
s(S'DP'
S'AADVVP'
tp486
F1
s(S'MP'
S'MMADVADVADVADVVP'
tp487
F1
s(g25
S'DAVP'
tp488
F37
s(S'VP'
S'ADVADVADVADVVNP'
tp489
F1
s(S'NP'
S'NNNMP'
tp490
F9
s(S'NP'
S'NNNNMP'
tp491
F1
s(g361
S'ACP'
tp492
F144
s(S'PP'
S'PADVADVNNP'
tp493
F1
s(g87
S'PPNP'
tp494
F94
s(S'AP'
S'ADVACCP'
tp495
F3
s(S'NP'
S'NAADP'
tp496
F1
s(S'VP'
S'ADVVADVDP'
tp497
F1
s(S'MP'
S'MVADVADVNP'
tp498
F1
s(S'AP'
S'ADVAACP'
tp499
F1
s(S'NP'
S'ADVAAANPP'
tp500
F1
s(S'CP'
S'CDDADVPP'
tp501
F2
s(S'CP'
S'CCCDDP'
tp502
F2
s(S'AP'
p503
S'ADP'
tp504
F924
s(S'VP'
S'AAAVCCCP'
tp505
F1
s(g157
S'DDAVP'
tp506
F1
s(S'AP'
S'AADVADVADVVVP'
tp507
F1
s(S'NP'
S'ADVADVADVNNPP'
tp508
F1
s(S'NP'
S'ADVADVADVADVNVP'
tp509
F2
s(S'DP'
S'DVVVVP'
tp510
F3
s(S'PP'
S'PPPPNNP'
tp511
F1
s(S'VP'
S'VVPPPP'
tp512
F1
s(S'NP'
S'NADVADVAP'
tp513
F1
s(S'VP'
S'ADVADVVNNP'
tp514
F2
s(S'VP'
S'VADVPPP'
tp515
F3
s(S'VP'
S'AVDP'
tp516
F57
s(S'NP'
S'ANNVP'
tp517
F2
s(S'VP'
p518
S'VVAP'
tp519
F56
s(S'MP'
S'MVVVADVANNP'
tp520
F1
s(S'PP'
S'ADVADVPPPNP'
tp521
F1
s(g370
S'PADVADVDP'
tp522
F4
s(S'DP'
S'ADPPPP'
tp523
F1
s(S'VP'
S'VVAAANNP'
tp524
F1
s(S'VP'
S'AAVCP'
tp525
F2
s(g20
S'NPP'
tp526
F647
s(S'PP'
S'PPPPNP'
tp527
F8
s(S'NP'
S'NVP'
tp528
F1387
s(S'VP'
S'ADVADVVANP'
tp529
F1
s(S'PP'
S'PAAVP'
tp530
F4
s(g77
S'NAAPP'
tp531
F3
s(S'NP'
S'ADVANDDP'
tp532
F1
s(S'NP'
S'ADVNAP'
tp533
F2
s(S'VP'
S'VDDP'
tp534
F76
s(S'NP'
S'ADVADVNACP'
tp535
F2
s(S'DP'
S'DADVADVPP'
tp536
F7
s(S'NP'
S'NNAAMP'
tp537
F1
s(S'PP'
S'PADVAVP'
tp538
F1
s(S'NP'
S'AANNVP'
tp539
F1
s(S'DP'
S'DDADVADVADVNNP'
tp540
F1
s(S'NP'
S'AANVVP'
tp541
F6
s(S'DP'
S'DADVAPP'
tp542
F4
s(S'DP'
S'DDDDVVP'
tp543
F2
s(S'VP'
S'ADVADVVAP'
tp544
F2
s(S'MP'
S'MAAAAP'
tp545
F1
s(S'NP'
S'NADVADVVVP'
tp546
F11
s(S'NP'
S'ANPP'
tp547
F148
s(S'PP'
S'ADVPPDP'
tp548
F1
s(S'PP'
S'PPPPP'
tp549
F2
s(g475
S'NNNPPPP'
tp550
F1
s(S'VP'
S'VVAAAPP'
tp551
F1
s(S'MP'
S'MVVPP'
tp552
F17
s(S'DP'
S'ADVDPP'
tp553
F41
s(S'CP'
S'CDADVADVADVADVPP'
tp554
F1
s(g146
S'ADVADVNPP'
tp555
F2
s(S'NP'
S'NPPPP'
tp556
F3
s(g101
S'ADDP'
tp557
F2
s(S'NP'
p558
S'NADVAAP'
tp559
F1
s(S'VP'
S'VVVMP'
tp560
F1
s(S'CP'
S'CAADPP'
tp561
F6
s(S'AP'
S'AADVADVADVCCP'
tp562
F1
s(S'DP'
S'DADVADVVP'
tp563
F6
s(g464
S'NAACP'
tp564
F4
s(S'PP'
S'PNNP'
tp565
F80
s(S'NP'
S'AAANADVVVP'
tp566
F1
s(S'PP'
S'APNNP'
tp567
F1
s(S'AP'
S'AAPPPPP'
tp568
F1
s(S'DP'
S'AAADPP'
tp569
F1
s(g150
S'DDACP'
tp570
F1
s(S'AP'
S'ADVAVVVP'
tp571
F1
s(S'VP'
S'AVAP'
tp572
F3
s(S'MP'
p573
S'MMVP'
tp574
F13
s(S'PP'
S'PADVDDP'
tp575
F1
s(S'NP'
S'ADVADVNDDP'
tp576
F1
s(S'NP'
S'ADVNCP'
tp577
F8
s(S'DP'
S'ADPP'
tp578
F66
s(S'VP'
S'ADVAVCP'
tp579
F2
s(S'VP'
S'ADVADVADVVANP'
tp580
F1
s(S'NP'
S'NAPPP'
tp581
F1
s(S'CP'
S'ACDP'
tp582
F29
s(S'PP'
S'PAAP'
tp583
F36
s(S'VP'
S'ADVADVADVVVP'
tp584
F2
s(S'AP'
S'ADVANP'
tp585
F10
s(S'NP'
S'NNACP'
tp586
F2
s(S'CP'
S'CDADVPPP'
tp587
F7
s(g518
S'VAP'
tp588
F497
s(S'MP'
S'MMAAVP'
tp589
F1
s(S'VP'
S'VVVVNP'
tp590
F13
s(S'DP'
S'DDDPP'
tp591
F12
s(S'PP'
p592
S'ADVADVADVADVPPNP'
tp593
F1
s(S'NP'
S'AANNCP'
tp594
F1
s(S'VP'
S'VADVADVAAP'
tp595
F1
s(S'CP'
S'CDAAPP'
tp596
F6
s(S'PP'
S'PAAPP'
tp597
F1
s(S'NP'
p598
S'ANADVAP'
tp599
F1
s(S'MP'
S'MVVVDP'
tp600
F5
s(S'MP'
S'MNMP'
tp601
F1
s(S'VP'
S'ADVADVVVAP'
tp602
F2
s(S'DP'
S'DDDPPP'
tp603
F1
s(S'VP'
S'ADVAVDP'
tp604
F4
s(S'DP'
S'ADAP'
tp605
F1
s(S'MP'
S'MVVCCP'
tp606
F1
s(S'PP'
S'APADVVP'
tp607
F1
s(S'CP'
S'CCADVADP'
tp608
F2
s(S'DP'
S'DDDAP'
tp609
F1
s(S'NP'
S'NNNNNADVADVVVP'
tp610
F1
s(S'AP'
S'AAACP'
tp611
F2
s(g503
S'AVVP'
tp612
F22
s(S'PP'
S'PPPVP'
tp613
F3
s(S'AP'
S'AADDP'
tp614
F5
s(g558
S'NNNADVADVVP'
tp615
F1
s(S'PP'
S'AAPAAAP'
tp616
F1
s(S'VP'
S'VAANP'
tp617
F9
s(S'PP'
S'PPPCP'
tp618
F1
s(S'PP'
S'ADVPNNP'
tp619
F2
s(S'VP'
S'ADVADVADVADVVDP'
tp620
F1
s(S'MP'
S'MMVVVVP'
tp621
F1
s(g418
S'ADVADVADVDVP'
tp622
F2
s(g196
S'VVDP'
tp623
F117
s(S'PP'
S'PAAAAP'
tp624
F1
s(S'MP'
S'MVVVCP'
tp625
F3
s(g259
S'PADVADVPPP'
tp626
F1
s(S'VP'
S'ADVVADVANP'
tp627
F1
s(g392
S'MADP'
tp628
F9
s(S'PP'
S'PPPDDP'
tp629
F1
s(S'VP'
S'ADVADVADVVAP'
tp630
F1
s(S'CP'
S'CCAADP'
tp631
F1
s(S'MP'
S'ADVMAVP'
tp632
F1
s(S'PP'
S'APVVP'
tp633
F1
s(S'DP'
S'DDADVNP'
tp634
F3
s(S'PP'
S'PANP'
tp635
F97
s(S'PP'
S'PDDDP'
tp636
F6
s(S'NP'
p637
S'ANNMP'
tp638
F2
s(S'DP'
S'ADVADPP'
tp639
F2
s(S'NP'
S'AANMP'
tp640
F8
s(S'AP'
S'AAVP'
tp641
F12
s(S'NP'
S'NAAP'
tp642
F22
s(S'VP'
S'VADVADVAP'
tp643
F8
s(S'NP'
S'NDDP'
tp644
F16
s(S'CP'
S'ADVADVCDP'
tp645
F3
s(S'VP'
S'VADVCP'
tp646
F5
s(S'AP'
S'ACCP'
tp647
F23
s(S'VP'
S'VVVVAP'
tp648
F6
s(S'DP'
S'ADVADVADVADVDMP'
tp649
F1
s(S'VP'
S'AVPPP'
tp650
F1
s(g20
S'NDP'
tp651
F141
s(S'VP'
S'VVADVADVCP'
tp652
F1
s(S'NP'
S'AAANVP'
tp653
F11
s(S'MP'
S'MVAAP'
tp654
F3
s(g468
S'DDVP'
tp655
F67
s(S'DP'
S'ADADVPPP'
tp656
F1
s(S'MP'
S'MADVADVADVVNNP'
tp657
F1
s(S'NP'
S'AANVP'
tp658
F22
s(S'PP'
S'PPADVANP'
tp659
F1
s(S'VP'
S'ADVVVNNP'
tp660
F3
s(S'DP'
S'ADDVP'
tp661
F1
s(g315
S'VNNNP'
tp662
F9
s(S'VP'
S'VADVADVPP'
tp663
F2
s(S'PP'
S'ADVPAP'
tp664
F4
s(g637
S'NNNNVVP'
tp665
F2
s(S'PP'
S'PCP'
tp666
F18
s(g20
S'NNPPP'
tp667
F6
s(S'PP'
S'PPVVVP'
tp668
F1
s(S'PP'
S'PAADP'
tp669
F2
s(S'NP'
S'ADVNNVP'
tp670
F2
s(S'DP'
S'ADVADVADVDDNP'
tp671
F1
s(S'VP'
S'VPPPP'
tp672
F4
s(S'NP'
S'ANNPP'
tp673
F2
s(g163
S'VCCP'
tp674
F19
s(S'MP'
S'MVNNNP'
tp675
F1
s(S'NP'
S'NNNDP'
tp676
F1
s(g229
S'ADVACP'
tp677
F17
s(S'NP'
S'AANVVVP'
tp678
F2
s(S'NP'
S'ADVADVNMP'
tp679
F1
s(S'DP'
S'DDADVVP'
tp680
F2
s(g298
S'NNVP'
tp681
F152
s(S'MP'
S'MVCP'
tp682
F17
s(S'CP'
S'CCDDP'
tp683
F10
s(S'NP'
S'NNADVVP'
tp684
F6
s(S'PP'
S'PPADVADVVP'
tp685
F1
s(S'VP'
S'ADVADVADVVPP'
tp686
F1
s(S'MP'
S'MVADVADVADVVP'
tp687
F1
s(S'MP'
S'MADVADVADVVPP'
tp688
F1
s(S'PP'
S'PPAAP'
tp689
F6
s(S'NP'
S'NNNNVP'
tp690
F7
s(S'VP'
S'VVCP'
tp691
F49
s(S'MP'
S'MVVVVPP'
tp692
F2
s(S'NP'
S'AANCP'
tp693
F12
s(S'VP'
S'VADVNP'
tp694
F15
s(S'AP'
S'ADVAVVP'
tp695
F5
s(S'VP'
S'AVAAAP'
tp696
F1
s(S'AP'
S'AADVADVADVADVVP'
tp697
F1
s(S'PP'
S'APPP'
tp698
F7
s(S'VP'
S'ADVVPP'
tp699
F24
s(S'MP'
S'MNNVP'
tp700
F1
s(g409
S'ADVNNVVP'
tp701
F1
s(S'VP'
p702
S'VNNP'
tp703
F76
s(S'AP'
S'AADVDP'
tp704
F5
s(S'NP'
S'NADP'
tp705
F3
s(S'CP'
S'ADVCCDDP'
tp706
F1
s(S'DP'
S'DDNP'
tp707
F77
s(S'NP'
p708
S'NADVCP'
tp709
F7
s(S'NP'
p710
S'NNADVAP'
tp711
F1
s(S'PP'
S'AAPPP'
tp712
F2
s(S'VP'
S'ADVAVPP'
tp713
F1
s(S'NP'
S'ADVANVP'
tp714
F5
s(S'VP'
S'ADVVVVPP'
tp715
F1
s(S'AP'
S'AADVADP'
tp716
F2
s(S'DP'
S'DAADVNP'
tp717
F1
s(S'NP'
S'ADVADVNCP'
tp718
F3
s(S'NP'
S'ANNNPP'
tp719
F1
s(S'DP'
S'AADPP'
tp720
F7
s(S'DP'
S'ADVDAPP'
tp721
F1
s(S'MP'
S'MADVVVCP'
tp722
F1
s(S'AP'
S'AAAADVDDP'
tp723
F1
s(S'VP'
S'VVVVCP'
tp724
F1
s(S'MP'
S'MADVVPP'
tp725
F7
s(S'NP'
S'AAAANADVVP'
tp726
F1
s(S'AP'
S'AADVADVVP'
tp727
F2
s(S'CP'
S'CDPPPPP'
tp728
F4
s(S'NP'
S'ANVVVP'
tp729
F3
s(S'NP'
p730
S'NADVADVCCP'
tp731
F1
s(S'MP'
S'MVVNP'
tp732
F12
s(S'CP'
S'CDDADVPPP'
tp733
F1
s(S'DP'
S'ADVDNNP'
tp734
F1
s(S'CP'
S'ACDDP'
tp735
F3
s(S'NP'
S'ADVADVNNCP'
tp736
F1
s(S'NP'
S'ANADVADVADVVP'
tp737
F1
s(S'AP'
S'AAPP'
tp738
F14
s(S'VP'
S'VVCCP'
tp739
F5
s(S'DP'
S'DMMP'
tp740
F2
s(S'DP'
S'DADVVVP'
tp741
F5
s(S'DP'
S'DADVADVNP'
tp742
F4
s(S'PP'
S'ADVPANP'
tp743
F1
s(S'NP'
S'AADVNADVVVVP'
tp744
F1
s(S'AP'
S'ADVANNP'
tp745
F1
s(S'DP'
S'DDPPPPPP'
tp746
F1
s(S'NP'
S'NAPP'
tp747
F32
s(S'AP'
S'ADVADVADP'
tp748
F1
s(g730
S'NADVDP'
tp749
F4
s(S'VP'
S'VVVCP'
tp750
F12
s(S'PP'
S'ADVAPADVDDP'
tp751
F1
s(S'DP'
S'DADVADVADVVP'
tp752
F3
s(g708
S'ANCCP'
tp753
F11
s(g481
S'AANPP'
tp754
F4
s(S'VP'
S'VDDDP'
tp755
F5
s(g244
S'NNMP'
tp756
F34
s(S'DP'
S'DDDVP'
tp757
F10
s(S'MP'
S'MVVANNP'
tp758
F1
s(S'DP'
S'DDADVVVP'
tp759
F1
s(S'DP'
S'ADVADVDVP'
tp760
F4
s(S'CP'
S'CADDPP'
tp761
F2
s(S'PP'
S'PAAAP'
tp762
F2
s(S'PP'
S'ADVADVPNP'
tp763
F4
s(g592
S'PPPAP'
tp764
F2
s(S'CP'
S'CDDAPP'
tp765
F5
s(S'VP'
S'VVVPPP'
tp766
F2
s(S'NP'
S'ANAP'
tp767
F19
s(S'MP'
S'MVAP'
tp768
F35
s(g400
S'PVP'
tp769
F551
s(S'MP'
S'MVDDDP'
tp770
F1
s(S'DP'
S'DADVAVP'
tp771
F5
s(S'AP'
S'ADVADVAPP'
tp772
F3
s(S'MP'
S'AAMVP'
tp773
F1
s(S'MP'
S'MADVADVVCP'
tp774
F1
s(S'PP'
S'PADVADVAP'
tp775
F2
s(S'DP'
p776
S'DVVVP'
tp777
F18
s(S'MP'
S'MVADVNP'
tp778
F1
s(S'VP'
S'VCCCCP'
tp779
F1
s(g598
S'ADVADVANVP'
tp780
F1
s(S'AP'
S'ADVAAVVP'
tp781
F1
s(S'PP'
S'PPDDP'
tp782
F6
s(S'VP'
S'AVCP'
tp783
F4
s(S'DP'
S'DDVVVP'
tp784
F1
s(S'MP'
S'MADVVANP'
tp785
F1
s(g25
S'DPP'
tp786
F1246
s(S'DP'
S'ADVVP'
tp787
F1
s(S'NP'
S'ADVNVP'
tp788
F30
s(S'MP'
S'MMADVADVVVP'
tp789
F1
s(S'CP'
S'CDADVADVADVPP'
tp790
F2
s(S'DP'
p791
S'DDPP'
tp792
F108
s(S'DP'
S'DDADVPPP'
tp793
F1
s(g791
S'DANP'
tp794
F184
s(S'NP'
S'NADVPP'
tp795
F4
s(S'VP'
S'AVDDDDP'
tp796
F1
s(S'PP'
S'ADVADVPPNP'
tp797
F1
s(S'NP'
S'AAANCCP'
tp798
F2
s(S'NP'
S'AANADVVP'
tp799
F1
s(S'NP'
S'NAAVP'
tp800
F2
s(S'DP'
S'AADNP'
tp801
F3
s(S'CP'
S'CADVADVADVDPP'
tp802
F1
s(S'AP'
S'AAAAPP'
tp803
F1
s(S'DP'
S'ADVADVDPPP'
tp804
F1
s(S'NP'
S'NNNNCP'
tp805
F2
s(S'NP'
S'NADVCCP'
tp806
F2
s(g101
S'DADVPP'
tp807
F32
s(S'VP'
S'VADVAAP'
tp808
F3
s(S'NP'
S'ADVNMMP'
tp809
F1
s(S'NP'
S'NNP'
tp810
F1
s(S'DP'
S'DCCP'
tp811
F3
s(S'PP'
S'ADVADVPPP'
tp812
F1
s(S'AP'
S'AADDDDP'
tp813
F1
s(S'PP'
S'AAPDP'
tp814
F3
s(S'MP'
S'MADVVDP'
tp815
F8
s(S'DP'
S'DDADVNNP'
tp816
F1
s(S'VP'
S'VVVAP'
tp817
F10
s(S'VP'
S'VVADVADVNNP'
tp818
F1
s(S'PP'
p819
S'PDDP'
tp820
F61
s(S'MP'
S'MVDDP'
tp821
F6
s(S'VP'
S'VVCCCP'
tp822
F1
s(S'PP'
S'ADVAPNP'
tp823
F2
s(g470
S'NNNADVVP'
tp824
F1
s(S'NP'
S'ANADVADVADVVVP'
tp825
F1
s(S'DP'
S'ADPPP'
tp826
F6
s(S'VP'
S'ADVVANP'
tp827
F1
s(S'PP'
S'PPPMP'
tp828
F1
s(S'PP'
S'AAAPDDP'
tp829
F1
s(S'NP'
S'NAANP'
tp830
F1
s(S'VP'
S'VVDDP'
tp831
F17
s(S'DP'
S'DDADVAAP'
tp832
F1
s(g207
S'DAANP'
tp833
F30
s(S'AP'
S'ADDP'
tp834
F59
s(S'VP'
S'ADVADVADVVNNP'
tp835
F1
s(S'VP'
S'ADVADVADVVCP'
tp836
F3
s(S'VP'
S'ADVVVAP'
tp837
F5
s(S'PP'
S'ADVPPNP'
tp838
F6
s(g466
S'VADVADVADVVP'
tp839
F2
s(S'MP'
S'MADVADVVDP'
tp840
F1
s(S'NP'
S'ADVADVNNMP'
tp841
F1
s(S'MP'
S'MVVADVAP'
tp842
F1
s(g776
S'DPPP'
tp843
F124
s(S'DP'
S'ADVADVDAAP'
tp844
F1
s(S'DP'
S'AADVVVP'
tp845
F1
s(g342
S'AADPPP'
tp846
F4
s(S'CP'
S'ADVADVADVCCDP'
tp847
F1
s(S'VP'
S'VANNP'
tp848
F3
s(S'NP'
S'NNAVP'
tp849
F2
s(S'VP'
S'AAVADVPP'
tp850
F1
s(S'DP'
S'DDNNP'
tp851
F10
s(S'NP'
S'NMMMP'
tp852
F1
s(S'PP'
S'PPPANP'
tp853
F1
s(S'NP'
S'NNNADVVVP'
tp854
F2
s(S'PP'
S'ADVPNP'
tp855
F11
s(g400
S'PPDP'
tp856
F75
s(S'VP'
S'ADVVANNP'
tp857
F1
s(S'MP'
S'MAVDP'
tp858
F6
s(S'PP'
S'ADVADVADVPVP'
tp859
F2
s(S'VP'
S'ADVVVADVDP'
tp860
F1
s(S'PP'
S'ADVADVPVVP'
tp861
F1
s(S'DP'
S'DDADP'
tp862
F1
s(S'MP'
S'MVVAP'
tp863
F5
s(S'AP'
S'AAVVVVP'
tp864
F1
s(S'NP'
S'ANADVADVVP'
tp865
F1
s(S'AP'
S'ANNP'
tp866
F2
s(S'AP'
S'ADVADVAADP'
tp867
F1
s(S'MP'
S'MVVVPPP'
tp868
F1
s(S'PP'
S'PAPP'
tp869
F1
s(g28
S'NAP'
tp870
F245
s(S'NP'
S'NNAAP'
tp871
F3
s(S'NP'
S'ADVANAP'
tp872
F1
s(g344
S'VAAAP'
tp873
F3
s(S'NP'
S'NAAAPP'
tp874
F1
s(S'VP'
S'VVP'
tp875
F79
s(S'DP'
S'DDAPP'
tp876
F8
s(S'PP'
S'ADVADVPVP'
tp877
F2
s(S'AP'
S'AAADP'
tp878
F11
s(S'PP'
S'APNP'
tp879
F27
s(S'VP'
S'VVVNNP'
tp880
F5
s(S'AP'
S'ADVADVAAP'
tp881
F1
s(S'DP'
S'DDVVP'
tp882
F12
s(S'CP'
S'CADVADVDPP'
tp883
F7
s(S'VP'
S'VVVNP'
tp884
F25
s(S'NP'
S'AAANMMP'
tp885
F1
s(S'AP'
S'AAAAP'
tp886
F1
s(S'NP'
S'NNADVPP'
tp887
F2
s(S'MP'
S'MVANP'
tp888
F9
s(S'DP'
S'ADVADVDDPP'
tp889
F1
s(S'MP'
S'MVNNP'
tp890
F7
s(S'CP'
S'CDPP'
tp891
F999
s(S'MP'
S'MVVNNP'
tp892
F5
s(S'AP'
S'ADDDP'
tp893
F6
s(S'NP'
S'NNADVADVVVP'
tp894
F2
s(S'DP'
S'ADVDVVP'
tp895
F2
s(S'MP'
S'MMMVP'
tp896
F1
s(S'VP'
S'ADVADVADVVVNNP'
tp897
F1
s(S'DP'
S'ADVDADVADVPPPP'
tp898
F1
s(S'VP'
S'ADVADVADVADVADVVDP'
tp899
F1
s(S'VP'
S'VADVAAANP'
tp900
F1
s(S'CP'
S'ADVCDP'
tp901
F13
s(S'AP'
S'ADVAAP'
tp902
F3
s(S'VP'
S'ADVADVVNP'
tp903
F4
s(S'MP'
S'MADVADVADVVNP'
tp904
F1
s(S'PP'
S'ADVPVVP'
tp905
F1
s(S'CP'
S'ADVACDP'
tp906
F1
s(S'VP'
S'ADVADVVCP'
tp907
F3
s(S'VP'
S'VADVADVDP'
tp908
F4
s(g87
S'PPNNP'
tp909
F15
s(S'PP'
S'ADVPAVP'
tp910
F1
s(S'PP'
S'PPMP'
tp911
F2
s(S'DP'
S'ADVADVDPP'
tp912
F10
s(S'VP'
S'VAADP'
tp913
F4
s(S'NP'
S'AANVVVVP'
tp914
F1
s(S'VP'
S'AVDDP'
tp915
F8
s(S'DP'
S'DADVNP'
tp916
F7
s(S'DP'
S'DAP'
tp917
F124
s(S'CP'
S'CADPP'
tp918
F52
s(S'NP'
S'NADVAVP'
tp919
F5
s(S'PP'
S'PPAVP'
tp920
F4
s(S'DP'
S'DADVADVADVADVPPP'
tp921
F1
s(S'VP'
S'ADVADVVCCP'
tp922
F1
s(S'VP'
S'AVPP'
tp923
F16
s(S'MP'
S'MADVAVDDP'
tp924
F1
s(S'CP'
S'CAADPPP'
tp925
F3
s(S'VP'
S'VVADVDP'
tp926
F1
s(g212
S'CDDPPPPP'
tp927
F2
s(S'CP'
S'CDPPPP'
tp928
F8
s(g702
S'AAVDP'
tp929
F5
s(S'DP'
S'AADNNP'
tp930
F1
s(S'PP'
S'PANNP'
tp931
F1
s(S'VP'
S'ADVADVADVADVVPP'
tp932
F2
s(g287
S'ADVANMP'
tp933
F1
s(S'VP'
S'VACCP'
tp934
F1
s(S'PP'
S'PPADP'
tp935
F2
s(S'MP'
S'MVANNP'
tp936
F2
s(g423
S'AAADVDP'
tp937
F1
s(S'DP'
S'DMP'
tp938
F23
s(S'NP'
S'ADVADVADVNMP'
tp939
F1
s(g819
S'PPPNP'
tp940
F15
s(S'NP'
S'NADVAPP'
tp941
F2
s(S'NP'
S'AAANPP'
tp942
F2
s(S'NP'
S'ADVANCCP'
tp943
F1
s(g23
S'PADVADVNP'
tp944
F6
s(S'DP'
S'DADVMP'
tp945
F1
s(S'AP'
S'AADP'
tp946
F126
s(S'AP'
S'AAAAVP'
tp947
F1
s(g289
S'PPAAVP'
tp948
F2
s(S'NP'
S'NNADVVVP'
tp949
F2
s(S'VP'
S'VADVPP'
tp950
F1
s(g353
S'CCADVDDP'
tp951
F1
s(S'PP'
S'PVVVVP'
tp952
F1
s(S'PP'
S'ADVPVP'
tp953
F9
s(g710
S'NADVADVADVVVP'
tp954
F5
s(S'AP'
S'ADVAADDP'
tp955
F1
s(S'NP'
S'ADVANCP'
tp956
F3
s(S'NP'
S'NNVVVP'
tp957
F11
s(S'PP'
S'PADVADVADVNP'
tp958
F1
s(S'PP'
S'ADVPDP'
tp959
F9
s(S'NP'
S'ADVNNPP'
tp960
F2
s(g382
S'PPDDDDP'
tp961
F4
s(S'MP'
S'MVADVAP'
tp962
F7
s(g20
S'NCP'
tp963
F521
s(S'VP'
S'ADVADVVVPP'
tp964
F1
s(S'CP'
S'CADVDPPP'
tp965
F2
s(S'VP'
S'ADVVVPP'
tp966
F4
s(S'PP'
S'AAAPNP'
tp967
F1
s(S'NP'
S'ADVANDP'
tp968
F3
s(S'AP'
S'AAAP'
tp969
F5
s(S'CP'
S'CDDADVADVPP'
tp970
F1
s(g39
S'PPPPVP'
tp971
F3
s(S'AP'
S'AAMP'
tp972
F1
s(g298
S'AANDP'
tp973
F3
s(S'DP'
S'DADVNNP'
tp974
F2
s(S'NP'
S'NNCCP'
tp975
F7
s(S'MP'
S'MNVP'
tp976
F10
s(S'NP'
S'AANAP'
tp977
F3
s(S'CP'
S'ADVADVCCDP'
tp978
F1
s(S'MP'
S'MVADVADVVP'
tp979
F1
s(S'PP'
S'PCCP'
tp980
F3
s(S'VP'
S'VAPP'
tp981
F23
s(S'NP'
S'NPPPPP'
tp982
F2
s(g573
S'MAVNP'
tp983
F2
s(S'VP'
S'ADVVDP'
tp984
F48
s(S'AP'
S'ADDDDP'
tp985
F1
s(S'NP'
S'AAANMP'
tp986
F1
s(S'DP'
S'DDPPPP'
tp987
F5
s(S'VP'
S'VVADVAP'
tp988
F2
s(S'AP'
S'AMP'
tp989
F9
s(S'CP'
S'CCADP'
tp990
F3
s(g708
S'ADVNNCP'
tp991
F2
s(S'DP'
p992
S'ADVDAP'
tp993
F1
s(S'PP'
S'ADVADVADVPNP'
tp994
F2
s(g338
S'ADVAPP'
tp995
F23
s(g101
S'DDADVAPP'
tp996
F2
s(S'PP'
p997
S'ADVPPVVP'
tp998
F1
s(S'PP'
S'AAPADVADVDDP'
tp999
F1
s(g18
S'ADVADVANP'
tp1000
F2
s(g58
S'ADMMP'
tp1001
F1
s(S'CP'
S'AACDP'
tp1002
F3
s(g155
S'NNNCCP'
tp1003
F2
s(S'MP'
S'MADVADVVNNP'
tp1004
F1
s(S'DP'
S'ADVDPPP'
tp1005
F5
s(g207
S'DVP'
tp1006
F834
s(S'VP'
S'ADVVAP'
tp1007
F7
s(S'NP'
S'ADVNPP'
tp1008
F11
s(S'VP'
S'ADVADVADVVVNP'
tp1009
F1
s(S'CP'
S'CDADVADVADVADVPPP'
tp1010
F1
s(S'AP'
S'AVP'
tp1011
F70
s(S'DP'
S'DDDDVP'
tp1012
F4
s(g708
S'NADVVP'
tp1013
F30
s(S'NP'
S'NNADVADVVP'
tp1014
F2
s(S'VP'
S'VVADVPPP'
tp1015
F1
s(S'VP'
S'ADVVPPP'
tp1016
F1
s(g992
S'DDPPP'
tp1017
F17
s(S'MP'
S'MADVADVADVVDP'
tp1018
F1
s(g79
S'ADVNMP'
tp1019
F17
s(S'NP'
S'NNAP'
tp1020
F17
s(S'MP'
S'MADVVCP'
tp1021
F2
s(S'PP'
S'PPANP'
tp1022
F8
s(S'DP'
S'DDADVADVANP'
tp1023
F1
s(S'CP'
S'CDADVPP'
tp1024
F16
s(S'VP'
S'VNP'
tp1025
F665
s(S'VP'
S'VANP'
tp1026
F59
s(g997
S'PADVPPP'
tp1027
F2
s(g139
S'VADVAP'
tp1028
F46
s(g264
S'PPADVNP'
tp1029
F2
s(S'DP'
S'DADVADVADVADVPP'
tp1030
F1
s(S'VP'
S'ADVADVVVDP'
tp1031
F5
s(S'NP'
S'AANNAP'
tp1032
F2
s.