ccollections
defaultdict
p1
(c__builtin__
float
p2
tRp3
(S'DP'
S'DDPP'
tp4
F3
s(S'DP'
p5
S'DANP'
tp6
F8
s(S'NP'
S'ANPP'
tp7
F3
s(S'VP'
p8
S'ADVVDP'
tp9
F4
s(S'MP'
S'MNCP'
tp10
F1
s(S'PP'
S'ADVADVPDP'
tp11
F1
s(S'VP'
S'VVNP'
tp12
F6
s(S'PP'
S'PPPNNP'
tp13
F1
s(S'PP'
p14
S'PPVP'
tp15
F6
s(S'VP'
p16
S'ADVVVNP'
tp17
F1
s(S'VP'
p18
S'VADVDP'
tp19
F1
s(S'AP'
p20
S'AADVADVDP'
tp21
F1
s(S'VP'
S'VVADVAP'
tp22
F1
s(S'DP'
S'AADNP'
tp23
F1
s(S'VP'
S'VAAP'
tp24
F1
s(S'NP'
p25
S'ANDP'
tp26
F1
s(S'NP'
S'NVVP'
tp27
F19
s(g5
S'DNP'
tp28
F76
s(S'PP'
S'PNNP'
tp29
F4
s(S'NP'
S'NCCP'
tp30
F3
s(S'CP'
p31
S'CDAPP'
tp32
F3
s(S'VP'
S'VVAAP'
tp33
F1
s(S'NP'
S'NNNVVP'
tp34
F1
s(g31
S'CDPPP'
tp35
F5
s(S'VP'
S'VVAPP'
tp36
F1
s(S'DP'
S'DCCP'
tp37
F1
s(S'VP'
S'VADVADVADVADVDP'
tp38
F1
s(S'PP'
S'PADP'
tp39
F1
s(S'NP'
S'ADVNCP'
tp40
F2
s(S'DP'
S'ADPP'
tp41
F2
s(S'PP'
S'PDDP'
tp42
F2
s(S'CP'
S'ACDP'
tp43
F1
s(S'DP'
S'ADVADVDVP'
tp44
F1
s(S'DP'
S'DADVAP'
tp45
F1
s(S'NP'
S'NNVVVVP'
tp46
F1
s(S'AP'
S'ADVANP'
tp47
F2
s(S'AP'
S'AADVDDP'
tp48
F1
s(S'DP'
p49
S'DAPP'
tp50
F4
s(S'VP'
p51
S'VAP'
tp52
F40
s(S'VP'
S'ADVVNP'
tp53
F5
s(S'MP'
S'MVDP'
tp54
F3
s(S'DP'
S'DDDPP'
tp55
F1
s(S'PP'
S'PPPP'
tp56
F4
s(S'DP'
S'ADVADPP'
tp57
F2
s(S'DP'
S'DAANP'
tp58
F1
s(S'VP'
S'ADVADVVDP'
tp59
F1
s(S'AP'
S'ADDP'
tp60
F4
s(S'MP'
S'MNMP'
tp61
F1
s(S'AP'
S'ADVADDP'
tp62
F1
s(S'DP'
S'DADVVP'
tp63
F2
s(S'DP'
S'DADVDP'
tp64
F1
s(S'PP'
p65
S'ADVPPNP'
tp66
F1
s(S'MP'
S'MADVADVVDP'
tp67
F1
s(S'DP'
S'DAAANP'
tp68
F1
s(S'VP'
S'ADVVVDP'
tp69
F1
s(g5
S'DPPP'
tp70
F11
s(S'NP'
S'NNDP'
tp71
F1
s(S'NP'
p72
S'NCCCP'
tp73
F3
s(S'VP'
S'VVPP'
tp74
F5
s(g65
S'PPNNP'
tp75
F1
s(S'NP'
p76
S'NNAVP'
tp77
F1
s(S'MP'
S'MVPP'
tp78
F2
s(g5
S'ADVP'
tp79
F1
s(g51
S'ADVVCCP'
tp80
F1
s(S'PP'
S'PAP'
tp81
F20
s(S'MP'
S'MADVVCCP'
tp82
F1
s(S'PP'
S'PVVP'
tp83
F5
s(S'PP'
p84
S'PPDP'
tp85
F3
s(S'NP'
S'NNPP'
tp86
F2
s(S'CP'
S'CADPPPP'
tp87
F1
s(g14
S'PNP'
tp88
F71
s(S'DP'
S'ADVADVADVADVDPP'
tp89
F1
s(S'DP'
p90
S'DNNNP'
tp91
F1
s(S'DP'
S'DDP'
tp92
F3
s(S'PP'
S'PANP'
tp93
F1
s(S'AP'
S'ACCP'
tp94
F1
s(S'PP'
S'PVVVP'
tp95
F2
s(S'PP'
S'APADVADVDDP'
tp96
F1
s(g72
S'NAAP'
tp97
F1
s(S'CP'
S'CCDP'
tp98
F9
s(S'NP'
p99
S'NAP'
tp100
F19
s(S'VP'
S'VPPP'
tp101
F3
s(g25
S'NMP'
tp102
F19
s(S'NP'
S'NVVVP'
tp103
F5
s(S'CP'
S'CDDDPP'
tp104
F1
s(S'NP'
p105
S'NDP'
tp106
F14
s(S'PP'
S'PNNNP'
tp107
F1
s(S'PP'
S'PVP'
tp108
F45
s(S'VP'
S'VVP'
tp109
F6
s(S'DP'
S'DDVP'
tp110
F6
s(g14
S'PDP'
tp111
F68
s(S'NP'
p112
S'NNVVP'
tp113
F2
s(S'VP'
S'VADVPPP'
tp114
F1
s(S'PP'
p115
S'APNP'
tp116
F2
s(S'PP'
S'PPADVADVDP'
tp117
F1
s(S'CP'
S'CADVADVDPP'
tp118
F1
s(S'VP'
S'VCP'
tp119
F36
s(S'NP'
p120
S'NAVP'
tp121
F2
s(S'PP'
S'ADVPDP'
tp122
F1
s(S'DP'
S'ADVADVDDNP'
tp123
F1
s(S'DP'
S'DVVVP'
tp124
F2
s(S'PP'
S'PCP'
tp125
F6
s(S'MP'
S'MVNNP'
tp126
F1
s(S'CP'
S'CDPP'
tp127
F107
s(S'PP'
S'PAADP'
tp128
F1
s(S'DP'
S'ADVDVP'
tp129
F3
s(S'AP'
S'ADDDP'
tp130
F1
s(S'NP'
S'NADVVVP'
tp131
F2
s(S'NP'
S'NNADVADVVVP'
tp132
F1
s(S'VP'
S'VCCP'
tp133
F2
s(S'DP'
S'DPPPP'
tp134
F1
s(S'DP'
S'DDANP'
tp135
F1
s(S'VP'
S'VPP'
tp136
F53
s(S'NP'
S'NACP'
tp137
F1
s(S'AP'
S'ADVAVP'
tp138
F1
s(S'AP'
S'ADVACP'
tp139
F2
s(S'AP'
S'ADVAAP'
tp140
F1
s(S'NP'
S'NNVP'
tp141
F19
s(S'PP'
S'PADVDP'
tp142
F1
s(S'NP'
S'NNCP'
tp143
F3
s(S'AP'
S'ACP'
tp144
F7
s(S'MP'
S'MADVVAP'
tp145
F1
s(S'CP'
S'CDDPP'
tp146
F2
s(S'DP'
S'DADVADVPP'
tp147
F1
s(g25
S'NNADVVP'
tp148
F1
s(g112
S'AAAAANCP'
tp149
F1
s(S'PP'
S'PPMP'
tp150
F1
s(S'VP'
p151
S'AVNP'
tp152
F2
s(S'VP'
S'VVADP'
tp153
F1
s(S'DP'
S'ADVADVDPP'
tp154
F1
s(g51
S'VDP'
tp155
F88
s(S'NP'
S'NADVAP'
tp156
F1
s(S'DP'
S'DADVNP'
tp157
F2
s(S'VP'
p158
S'AVDDP'
tp159
F1
s(S'VP'
S'VVCP'
tp160
F1
s(g90
S'DAP'
tp161
F9
s(S'CP'
S'CADPP'
tp162
F1
s(S'DP'
S'ADVADVDVVP'
tp163
F1
s(S'VP'
S'VADVNP'
tp164
F4
s(S'DP'
S'DVVP'
tp165
F3
s(S'VP'
S'VDDDP'
tp166
F1
s(S'AP'
S'ADVAVVP'
tp167
F1
s(S'VP'
S'VVVNP'
tp168
F2
s(g8
S'VADVVP'
tp169
F3
s(g99
S'ADVADVADVNMP'
tp170
F1
s(S'VP'
S'VVVNNP'
tp171
F1
s(g115
S'PPAP'
tp172
F5
s(g51
S'ADVVPP'
tp173
F2
s(S'VP'
S'VNNP'
tp174
F14
s(g16
S'VADVADVCCP'
tp175
F1
s(S'AP'
S'AADVDP'
tp176
F1
s(S'CP'
S'CCCDP'
tp177
F3
s(S'VP'
S'ADVVAP'
tp178
F2
s(S'DP'
S'DDNP'
tp179
F4
s(S'DP'
S'DDNNP'
tp180
F2
s(S'NP'
S'ANCP'
tp181
F6
s(g84
S'APDP'
tp182
F7
s(S'NP'
S'AANVVP'
tp183
F1
s(g90
S'DCP'
tp184
F10
s(S'PP'
S'PPPNP'
tp185
F1
s(S'PP'
S'PPP'
tp186
F9
s(S'NP'
S'AAANPP'
tp187
F2
s(g18
S'ADVVVVP'
tp188
F1
s(S'AP'
S'AADP'
tp189
F7
s(S'VP'
S'VVVNNNP'
tp190
F1
s(S'NP'
S'NVVVVP'
tp191
F1
s(g51
S'VVVPP'
tp192
F3
s(S'VP'
S'VADVPP'
tp193
F1
s(S'CP'
S'CDDPPP'
tp194
F1
s(S'VP'
S'VVDP'
tp195
F13
s(S'NP'
p196
S'NPPP'
tp197
F1
s(g25
S'NNVVVP'
tp198
F1
s(S'PP'
p199
S'PADVADVADVNP'
tp200
F1
s(g49
S'DAVP'
tp201
F1
s(S'PP'
S'PAAP'
tp202
F2
s(S'NP'
S'NNNMP'
tp203
F1
s(g5
S'DNNP'
tp204
F7
s(S'MP'
S'MVADVAP'
tp205
F1
s(S'NP'
p206
S'NCP'
tp207
F51
s(S'AP'
S'AADDP'
tp208
F1
s(S'CP'
S'CADVDPPP'
tp209
F1
s(S'MP'
S'MVVNP'
tp210
F2
s(S'PP'
S'PPNP'
tp211
F6
s(g105
S'NNNVP'
tp212
F1
s(S'CP'
S'CDPPPP'
tp213
F1
s(S'DP'
S'DADVVVP'
tp214
F1
s(S'PP'
S'PADVVP'
tp215
F1
s(S'NP'
S'NNCCP'
tp216
F1
s(S'VP'
p217
S'VVVP'
tp218
F3
s(S'CP'
S'ADVADVCCDP'
tp219
F1
s(S'AP'
S'ADP'
tp220
F84
s(S'PP'
S'APAP'
tp221
F1
s(g196
S'NAPP'
tp222
F5
s(S'AP'
S'APP'
tp223
F9
s(S'MP'
S'MVADVADVAP'
tp224
F1
s(S'VP'
S'VVVCP'
tp225
F3
s(g76
S'AANVP'
tp226
F1
s(S'CP'
S'CADVADPP'
tp227
F2
s(S'AP'
S'AMP'
tp228
F1
s(S'NP'
S'NNMP'
tp229
F2
s(S'VP'
S'VVVVPP'
tp230
F2
s(S'DP'
S'DAAVP'
tp231
F1
s(S'MP'
S'MNVP'
tp232
F1
s(S'PP'
S'PADVNP'
tp233
F1
s(S'PP'
S'PAANP'
tp234
F1
s(g151
S'AVDP'
tp235
F3
s(S'NP'
S'ANVP'
tp236
F1
s(S'NP'
S'ANAP'
tp237
F1
s(g217
S'VVAP'
tp238
F4
s(S'MP'
S'MVAP'
tp239
F2
s(S'DP'
S'ADVDPPP'
tp240
F2
s(S'DP'
S'DVP'
tp241
F73
s(S'MP'
S'MVNP'
tp242
F9
s(g20
S'AVP'
tp243
F3
s(g120
S'NADVVP'
tp244
F3
s(g199
S'PAVP'
tp245
F1
s(g158
S'ADVVPPP'
tp246
F2
s(S'DP'
S'DDPPP'
tp247
F1
s(S'NP'
S'ADVNMP'
tp248
F1
s(S'NP'
S'NNAP'
tp249
F1
s(g25
S'NPP'
tp250
F45
s(S'VP'
S'VAPP'
tp251
F1
s(g206
S'NVP'
tp252
F161
s(S'DP'
S'ADPPPP'
tp253
F1
s(S'VP'
S'VNP'
tp254
F58
s(S'VP'
S'VANP'
tp255
F1
s(S'VP'
S'VDDP'
tp256
F4
s(S'PP'
S'PPDDP'
tp257
F1
s(S'VP'
S'VADVAP'
tp258
F4
s(S'VP'
S'ADVADVVVNP'
tp259
F1
s(g5
S'DPP'
tp260
F129
s(S'NP'
S'ADVNVP'
tp261
F4
s(S'DP'
S'DDDVVP'
tp262
F1
s.