ccollections
defaultdict
p1
(c__builtin__
float
p2
tRp3
(S'DP'
p4
S'ADDPP'
tp5
F1
s(S'DP'
p6
S'DDAP'
tp7
F2
s(S'VP'
S'VVVVP'
tp8
F1
s(S'PP'
S'PAPP'
tp9
F1
s(S'PP'
S'PADVNP'
tp10
F1
s(S'DP'
p11
S'DNP'
tp12
F79
s(S'VP'
p13
S'AAAVPP'
tp14
F1
s(S'CP'
p15
S'CDPPP'
tp16
F20
s(S'VP'
p17
S'VADP'
tp18
F5
s(S'DP'
S'DNNNNP'
tp19
F2
s(S'CP'
p20
S'CDAAPPP'
tp21
F1
s(S'DP'
p22
S'DAAP'
tp23
F4
s(S'PP'
S'APPDP'
tp24
F1
s(S'DP'
S'ADNNP'
tp25
F1
s(S'VP'
p26
S'VADVVVP'
tp27
F1
s(S'PP'
p28
S'APVP'
tp29
F4
s(S'MP'
S'MVDP'
tp30
F7
s(S'PP'
p31
S'PADVANP'
tp32
F3
s(S'PP'
p33
S'PPPP'
tp34
F8
s(S'VP'
p35
S'VACP'
tp36
F1
s(S'PP'
p37
S'PPAAP'
tp38
F1
s(S'DP'
S'DADVVP'
tp39
F2
s(S'CP'
p40
S'CADVDAPP'
tp41
F1
s(S'VP'
p42
S'VCP'
tp43
F40
s(S'NP'
p44
S'NMMP'
tp45
F1
s(S'VP'
S'ADVVCCP'
tp46
F1
s(g28
S'PAP'
tp47
F50
s(S'DP'
S'AADDDP'
tp48
F1
s(S'NP'
p49
S'NNNAP'
tp50
F1
s(S'CP'
S'CADPPPP'
tp51
F1
s(S'PP'
p52
S'PNP'
tp53
F93
s(S'VP'
S'VVNNNNNP'
tp54
F2
s(S'DP'
p55
S'DDP'
tp56
F26
s(S'NP'
S'NNNPP'
tp57
F1
s(S'PP'
p58
S'PAAP'
tp59
F6
s(g44
S'NMP'
tp60
F15
s(S'PP'
S'PPMMP'
tp61
F1
s(S'VP'
S'AAVNP'
tp62
F1
s(S'VP'
p63
S'VMMP'
tp64
F1
s(g52
S'PDP'
tp65
F92
s(S'VP'
S'VNNNNP'
tp66
F1
s(S'NP'
p67
S'AAANVVP'
tp68
F1
s(S'NP'
p69
S'NNADVCP'
tp70
F1
s(S'DP'
S'DPPPP'
tp71
F2
s(S'NP'
S'NACP'
tp72
F1
s(S'NP'
S'NCCP'
tp73
F12
s(S'AP'
S'AAAADP'
tp74
F1
s(S'NP'
p75
S'NNCP'
tp76
F24
s(S'VP'
p77
S'VVAVP'
tp78
F1
s(S'VP'
S'AVNP'
tp79
F5
s(g15
S'CCCDP'
tp80
F3
s(S'VP'
p81
S'VCCCP'
tp82
F1
s(S'PP'
p83
S'APDP'
tp84
F8
s(S'NP'
S'NNNNNPP'
tp85
F1
s(S'VP'
S'VVANP'
tp86
F1
s(S'VP'
S'ADVVVP'
tp87
F1
s(S'NP'
S'NNADVANP'
tp88
F1
s(S'MP'
S'MADVVNP'
tp89
F1
s(S'NP'
S'ADVANCP'
tp90
F4
s(S'DP'
p91
S'DNNP'
tp92
F19
s(S'NP'
S'NNNVP'
tp93
F2
s(S'PP'
S'PADVVP'
tp94
F2
s(S'DP'
S'DACP'
tp95
F1
s(S'PP'
S'APAP'
tp96
F3
s(S'CP'
S'ADVADVCDP'
tp97
F1
s(S'AP'
p98
S'ACCCP'
tp99
F1
s(S'AP'
S'AAP'
tp100
F2
s(g42
S'VVAPP'
tp101
F1
s(S'MP'
S'MVVCP'
tp102
F2
s(g91
S'DAAVP'
tp103
F2
s(S'PP'
p104
S'PAANP'
tp105
F2
s(S'VP'
p106
S'VVVANP'
tp107
F1
s(S'PP'
S'PPVVP'
tp108
F2
s(S'VP'
S'VAACP'
tp109
F2
s(S'MP'
S'MVNP'
tp110
F4
s(S'NP'
S'NNNNP'
tp111
F1
s(g49
S'ANAAP'
tp112
F1
s(S'PP'
S'PAVP'
tp113
F5
s(S'AP'
S'ADVADP'
tp114
F1
s(S'AP'
S'APP'
tp115
F16
s(S'DP'
S'ADVDDP'
tp116
F1
s(S'PP'
p117
S'APDDP'
tp118
F1
s(S'VP'
p119
S'ADVVNP'
tp120
F3
s(S'VP'
S'VVNP'
tp121
F7
s(S'PP'
S'PPPNNP'
tp122
F1
s(g33
S'PPVP'
tp123
F11
s(S'VP'
p124
S'VAAP'
tp125
F2
s(S'NP'
p126
S'ANDP'
tp127
F4
s(S'NP'
p128
S'NVVP'
tp129
F12
s(S'VP'
p130
S'VMP'
tp131
F1
s(S'VP'
p132
S'VVNNP'
tp133
F3
s(g15
S'CDAPP'
tp134
F11
s(S'DP'
S'ADNP'
tp135
F9
s(S'PP'
p136
S'PADP'
tp137
F6
s(g26
S'ADVVVCP'
tp138
F1
s(S'NP'
p139
S'ANDDP'
tp140
F2
s(S'DP'
p141
S'DAPP'
tp142
F15
s(S'VP'
p143
S'AVVP'
tp144
F2
s(S'VP'
S'ADVADVVPP'
tp145
F1
s(S'VP'
S'ADVADVVDP'
tp146
F2
s(S'PP'
S'PPPDP'
tp147
F1
s(g91
S'DAAPPP'
tp148
F1
s(S'DP'
S'DAAANP'
tp149
F1
s(S'DP'
S'ADVDNP'
tp150
F1
s(g17
S'VVPP'
tp151
F8
s(S'CP'
p152
S'CCADDP'
tp153
F1
s(S'CP'
S'AACDDP'
tp154
F1
s(S'MP'
p155
S'MVPP'
tp156
F3
s(S'DP'
p157
S'ADVP'
tp158
F6
s(g20
S'CDDPPP'
tp159
F2
s(S'NP'
p160
S'NNPP'
tp161
F13
s(S'CP'
S'CAADPPPP'
tp162
F1
s(S'MP'
S'MVVDP'
tp163
F1
s(g139
S'ANVP'
tp164
F4
s(g55
S'DNNNP'
tp165
F4
s(S'VP'
S'ADVVCP'
tp166
F3
s(S'PP'
p167
S'PMP'
tp168
F3
s(S'DP'
S'DAAAVVP'
tp169
F1
s(S'CP'
S'CCDP'
tp170
F21
s(S'NP'
p171
S'ANNDP'
tp172
F1
s(S'NP'
S'ADVADVADVNNVVP'
tp173
F1
s(S'DP'
p174
S'AADDPP'
tp175
F1
s(g126
S'NVVVP'
tp176
F4
s(S'CP'
S'CDDDPP'
tp177
F4
s(S'CP'
p178
S'CDAAPP'
tp179
F5
s(S'VP'
S'VVVDP'
tp180
F1
s(g58
S'PNNNP'
tp181
F3
s(S'PP'
S'AAPNP'
tp182
F3
s(S'PP'
p183
S'PPP'
tp184
F40
s(g171
S'NAVP'
tp185
F4
s(S'DP'
S'DDNNNP'
tp186
F1
s(S'DP'
S'ADVDVP'
tp187
F2
s(S'DP'
S'DAAADP'
tp188
F1
s(g42
S'VPP'
tp189
F55
s(S'MP'
S'MVADDP'
tp190
F1
s(g98
S'AAAACP'
tp191
F1
s(S'NP'
p192
S'NNNCP'
tp193
F5
s(S'PP'
S'PADVDP'
tp194
F2
s(S'CP'
S'CDDPP'
tp195
F22
s(S'DP'
S'DAAPP'
tp196
F5
s(g83
S'PVVP'
tp197
F6
s(S'AP'
S'AACP'
tp198
F3
s(S'DP'
S'DADVADVADVNNP'
tp199
F1
s(S'VP'
S'VPPP'
tp200
F2
s(S'VP'
p201
S'VVPPP'
tp202
F1
s(S'NP'
p203
S'NNNNNVVP'
tp204
F1
s(S'PP'
S'PPAP'
tp205
F1
s(S'DP'
p206
S'DVVP'
tp207
F16
s(S'NP'
S'ANMP'
tp208
F1
s(S'AP'
S'APPP'
tp209
F2
s(g17
S'VVVP'
tp210
F2
s(S'CP'
S'CADVDPP'
tp211
F3
s(S'MP'
S'MMADP'
tp212
F1
s(g192
S'ANCP'
tp213
F11
s(S'DP'
S'DCP'
tp214
F5
s(S'VP'
S'VAAACP'
tp215
F1
s(g91
S'DDDP'
tp216
F4
s(S'DP'
S'DDADVPP'
tp217
F2
s(S'DP'
S'ADDNNP'
tp218
F1
s(S'VP'
S'VVDP'
tp219
F14
s(g139
S'NPPP'
tp220
F4
s(S'DP'
p221
S'DAVP'
tp222
F7
s(S'VP'
S'AVVVP'
tp223
F1
s(S'AP'
S'ACP'
tp224
F28
s(g136
S'PPNP'
tp225
F19
s(g174
S'ADVDAPP'
tp226
F1
s(S'CP'
S'CDDADVPP'
tp227
F1
s(S'CP'
S'CCCDDP'
tp228
F1
s(S'AP'
S'ADP'
tp229
F51
s(S'PP'
S'ADVPVP'
tp230
F3
s(S'DP'
S'DDAVP'
tp231
F2
s(S'VP'
S'AVDP'
tp232
F4
s(S'PP'
S'PCCCP'
tp233
F1
s(S'VP'
p234
S'VVAP'
tp235
F3
s(g160
S'NPP'
tp236
F76
s(g160
S'NVP'
tp237
F76
s(S'PP'
S'PAAVP'
tp238
F1
s(S'NP'
p239
S'NAAPP'
tp240
F1
s(g234
S'VDDP'
tp241
F8
s(S'NP'
S'ANPP'
tp242
F16
s(S'PP'
S'PPPPP'
tp243
F2
s(g206
S'ADVDPP'
tp244
F4
s(S'DP'
p245
S'DDDDDP'
tp246
F1
s(g128
S'NPPPP'
tp247
F1
s(S'CP'
S'CAADPP'
tp248
F2
s(S'DP'
S'DDADVADVPPP'
tp249
F1
s(S'NP'
S'NAACP'
tp250
F1
s(g52
S'PNNP'
tp251
F25
s(S'MP'
S'MMNP'
tp252
F1
s(S'DP'
S'AAADPP'
tp253
F2
s(S'VP'
S'AVAP'
tp254
F1
s(g155
S'MMVP'
tp255
F1
s(g28
S'APAAAAP'
tp256
F1
s(g221
S'ADPP'
tp257
F17
s(S'CP'
S'ACDP'
tp258
F4
s(S'VP'
S'VCCP'
tp259
F8
s(S'NP'
S'NNACP'
tp260
F1
s(S'VP'
p261
S'VAP'
tp262
F24
s(S'DP'
S'DDDPP'
tp263
F4
s(g157
S'ADADVVP'
tp264
F1
s(S'NP'
S'NAAP'
tp265
F2
s(S'AP'
S'AADDP'
tp266
F1
s(g130
S'VAANP'
tp267
F3
s(S'NP'
p268
S'NADVADVCP'
tp269
F1
s(S'PP'
S'PPPCP'
tp270
F1
s(S'MP'
S'MPNP'
tp271
F1
s(g37
S'PANP'
tp272
F13
s(S'PP'
S'PDDDP'
tp273
F1
s(S'AP'
S'AAVP'
tp274
F2
s(S'AP'
S'AVVP'
tp275
F2
s(S'NP'
S'NDDP'
tp276
F2
s(S'CP'
S'CDDADVADVPPP'
tp277
F1
s(S'AP'
S'ACCP'
tp278
F1
s(S'VP'
S'AVPPP'
tp279
F1
s(g160
S'NDP'
tp280
F33
s(S'NP'
S'AAANVP'
tp281
F1
s(g55
S'DDVP'
tp282
F4
s(S'NP'
S'AANVP'
tp283
F2
s(S'VP'
S'VNNNP'
tp284
F1
s(g239
S'NNNNVVP'
tp285
F1
s(S'PP'
S'APADVDP'
tp286
F1
s(g167
S'PCP'
tp287
F1
s(g139
S'NNPPP'
tp288
F2
s(S'PP'
S'PAADDP'
tp289
F1
s(S'PP'
S'PAADP'
tp290
F2
s(g130
S'VPPPP'
tp291
F3
s(S'NP'
S'NNNDP'
tp292
F1
s(S'AP'
S'ADVACP'
tp293
F2
s(S'PP'
p294
S'PAPPP'
tp295
F1
s(g69
S'NNVP'
tp296
F15
s(g126
S'NNAAVP'
tp297
F1
s(g160
S'NCP'
tp298
F87
s(S'CP'
S'CCDDP'
tp299
F1
s(g75
S'NAACCP'
tp300
F1
s(S'NP'
S'NNVVP'
tp301
F7
s(S'NP'
S'NNNNVP'
tp302
F1
s(S'VP'
S'VVCP'
tp303
F4
s(S'NP'
S'AANCP'
tp304
F3
s(g13
S'VADVNP'
tp305
F1
s(g77
S'ADVVPP'
tp306
F1
s(S'NP'
S'NAAAAP'
tp307
F1
s(g40
S'CDAPPP'
tp308
F3
s(S'VP'
S'VNNP'
tp309
F9
s(S'AP'
S'AADVDP'
tp310
F1
s(S'NP'
S'NADP'
tp311
F1
s(g201
S'AAAVVDP'
tp312
F1
s(S'NP'
S'NADVCP'
tp313
F1
s(S'DP'
S'DDNNP'
tp314
F3
s(S'DP'
p315
S'AADPP'
tp316
F2
s(g128
S'NNNNPP'
tp317
F1
s(S'PP'
S'ADVADVPPDP'
tp318
F1
s(S'AP'
S'AADVADVVP'
tp319
F1
s(S'AP'
S'AAPP'
tp320
F2
s(g119
S'VVCCP'
tp321
F2
s(S'PP'
S'APPNP'
tp322
F1
s(g139
S'NAPP'
tp323
F5
s(g294
S'APPVP'
tp324
F3
s(g234
S'VVVCP'
tp325
F1
s(g203
S'ANCCP'
tp326
F1
s(S'NP'
S'AANPP'
tp327
F2
s(S'NP'
S'NNCCP'
tp328
F2
s(g67
S'NNMP'
tp329
F1
s(S'DP'
S'DDDVP'
tp330
F3
s(S'VP'
S'AAVPP'
tp331
F1
s(g152
S'CADDPP'
tp332
F1
s(S'PP'
S'PAAAP'
tp333
F1
s(g20
S'CDDAPP'
tp334
F2
s(S'NP'
S'ANAP'
tp335
F1
s(g83
S'PVP'
tp336
F72
s(g35
S'AVCP'
tp337
F2
s(g11
S'DPP'
tp338
F120
s(g171
S'ADVNVP'
tp339
F2
s(g55
S'DDPP'
tp340
F28
s(g55
S'DANP'
tp341
F17
s(S'NP'
S'NADVPP'
tp342
F1
s(S'CP'
S'AACCADVDP'
tp343
F1
s(g33
S'AAPPVP'
tp344
F1
s(S'DP'
S'AADPPPP'
tp345
F1
s(S'DP'
S'AADNP'
tp346
F2
s(g124
S'VADVCP'
tp347
F1
s(S'NP'
S'NNNNCP'
tp348
F3
s(S'NP'
S'NNAACP'
tp349
F1
s(g4
S'ADDPPP'
tp350
F1
s(g31
S'AAPDP'
tp351
F3
s(g143
S'VVVAP'
tp352
F2
s(g83
S'PDDP'
tp353
F12
s(g117
S'PCCP'
tp354
F1
s(g81
S'VVDDP'
tp355
F3
s(S'DP'
S'DAANP'
tp356
F3
s(S'AP'
S'ADDP'
tp357
F5
s(S'PP'
S'PNNNNP'
tp358
F1
s(g171
S'ADVADVNVVP'
tp359
F1
s(S'CP'
S'CADVADVDPP'
tp360
F1
s(S'DP'
S'DPPP'
tp361
F29
s(g315
S'DAVVP'
tp362
F1
s(g13
S'VANNP'
tp363
F1
s(S'PP'
S'PPPANP'
tp364
F1
s(S'PP'
S'ADVPNP'
tp365
F2
s(g28
S'PPDP'
tp366
F7
s(S'MP'
S'MVPPPP'
tp367
F1
s(S'MP'
S'MAVDP'
tp368
F1
s(S'DP'
p369
S'DDPPPP'
tp370
F1
s(S'NP'
S'AAANMP'
tp371
F1
s(g268
S'ANADVADVVP'
tp372
F1
s(S'NP'
S'NAP'
tp373
F21
s(S'VP'
S'VAAAP'
tp374
F1
s(g81
S'VVP'
tp375
F15
s(g91
S'DDAPP'
tp376
F3
s(S'AP'
S'AAADP'
tp377
F1
s(g183
S'APNP'
tp378
F8
s(g369
S'DDVVP'
tp379
F1
s(S'AP'
S'AAADDP'
tp380
F1
s(S'VP'
S'VVVNP'
tp381
F2
s(S'MP'
S'MVANP'
tp382
F1
s(S'DP'
S'ADVADVDDPP'
tp383
F1
s(S'CP'
S'CDPP'
tp384
F108
s(S'NP'
p385
S'NNCCCP'
tp386
F1
s(S'AP'
S'ADDDP'
tp387
F1
s(S'NP'
S'NNDP'
tp388
F5
s(S'CP'
S'ADVCDP'
tp389
F3
s(g37
S'PPNNP'
tp390
F5
s(g40
S'CAADDPP'
tp391
F1
s(S'DP'
S'ADVADVDPP'
tp392
F1
s(g261
S'VDP'
tp393
F64
s(g239
S'NADVAP'
tp394
F1
s(S'VP'
S'AVDDP'
tp395
F1
s(S'DP'
S'DAP'
tp396
F9
s(g178
S'CADPP'
tp397
F14
s(g13
S'AVPP'
tp398
F4
s(S'CP'
S'CDPPPP'
tp399
F2
s(g81
S'AAVDP'
tp400
F1
s(g6
S'ADPPPP'
tp401
F1
s(S'DP'
S'DAPPP'
tp402
F4
s(g141
S'DMP'
tp403
F5
s(S'PP'
S'PPPNP'
tp404
F3
s(S'PP'
S'PPAANP'
tp405
F1
s(g104
S'PADVADVNP'
tp406
F1
s(S'AP'
S'AADP'
tp407
F13
s(S'AP'
p408
S'AAAAVP'
tp409
F1
s(S'CP'
S'CCAAADP'
tp410
F1
s(g245
S'DDDDPP'
tp411
F1
s(g139
S'NNVVVP'
tp412
F2
s(S'VP'
S'VVNNNNP'
tp413
F2
s(S'PP'
S'PPDDDDP'
tp414
F1
s(S'PP'
S'PPAAANP'
tp415
F1
s(S'CP'
S'CADVDPPP'
tp416
F1
s(g408
S'AAAP'
tp417
F3
s(S'VP'
S'VAADP'
tp418
F1
s(g385
S'AANDP'
tp419
F2
s(g132
S'VDDDP'
tp420
F1
s(S'MP'
S'MNVP'
tp421
F1
s(g132
S'VAPP'
tp422
F1
s(S'VP'
S'ADVVDP'
tp423
F1
s(S'VP'
S'VADDP'
tp424
F1
s(S'DP'
S'DADVPP'
tp425
F3
s(S'AP'
S'AMP'
tp426
F1
s(S'CP'
S'CCADP'
tp427
F3
s(S'NP'
S'ADVANVVVP'
tp428
F1
s(g178
S'AACDP'
tp429
F3
s(S'NP'
S'NNNNNNVVVVP'
tp430
F1
s(S'CP'
S'CCADVADVDDP'
tp431
F1
s(g22
S'ADVDPPP'
tp432
F1
s(g55
S'DVP'
tp433
F69
s(g40
S'AAACDP'
tp434
F1
s(S'AP'
S'AVP'
tp435
F3
s(S'NP'
S'NADVVP'
tp436
F1
s(S'DP'
S'DDNP'
tp437
F13
s(g106
S'ADVVPPP'
tp438
F1
s(g91
S'DDPPP'
tp439
F2
s(S'NP'
S'NNAP'
tp440
F5
s(S'MP'
S'MADVVCP'
tp441
F2
s(S'CP'
S'CDADVPP'
tp442
F2
s(g42
S'VNP'
tp443
F63
s(g77
S'VANP'
tp444
F4
s(g63
S'VADVAP'
tp445
F1
s.