ccollections
defaultdict
p1
(c__builtin__
float
p2
tRp3
(S'AP'
S'ADVADVADVAADP'
tp4
F1
s(S'MP'
S'MMDP'
tp5
F1
s(S'VP'
S'VVAAAP'
tp6
F3
s(S'NP'
S'NAMP'
tp7
F3
s(S'PP'
S'ADVADVPPAP'
tp8
F1
s(S'NP'
S'AANDDP'
tp9
F1
s(S'NP'
S'NNNVVVP'
tp10
F2
s(S'PP'
S'AAPPAAAAP'
tp11
F1
s(S'CP'
p12
S'CAAADPP'
tp13
F1
s(S'PP'
S'PAAANP'
tp14
F3
s(S'DP'
p15
S'ADDPP'
tp16
F2
s(S'VP'
S'ADVVADVADVCCCP'
tp17
F1
s(S'DP'
S'DDAP'
tp18
F15
s(S'VP'
S'ADVVVNP'
tp19
F43
s(S'PP'
S'PNNNNNP'
tp20
F1
s(S'AP'
S'AADDDP'
tp21
F2
s(S'CP'
S'CCDDDDP'
tp22
F2
s(S'VP'
p23
S'VVVVP'
tp24
F9
s(S'DP'
S'DAANNP'
tp25
F2
s(S'VP'
S'ADVVVANNP'
tp26
F2
s(S'AP'
S'AVVVP'
tp27
F7
s(S'PP'
S'ADVADVPAP'
tp28
F3
s(S'PP'
S'PAPP'
tp29
F35
s(S'DP'
S'ADVDDPPPP'
tp30
F1
s(S'PP'
S'PADVNP'
tp31
F90
s(S'DP'
p32
S'DNP'
tp33
F1294
s(S'CP'
S'CDADVADVPPP'
tp34
F2
s(S'MP'
S'MVVAAP'
tp35
F3
s(S'NP'
S'ADVNDP'
tp36
F6
s(S'PP'
p37
S'AAPDDP'
tp38
F4
s(S'CP'
S'ADVADVCDDP'
tp39
F1
s(S'NP'
S'NNNAAP'
tp40
F1
s(S'PP'
p41
S'ADVPPADVVP'
tp42
F1
s(S'CP'
p43
S'CDPPP'
tp44
F257
s(S'MP'
S'ADVADVMMAVP'
tp45
F1
s(S'VP'
S'VADP'
tp46
F52
s(S'DP'
S'DNNNNP'
tp47
F4
s(S'CP'
S'CDAAPPP'
tp48
F3
s(S'DP'
S'DAAP'
tp49
F16
s(S'MP'
S'MADVVVAP'
tp50
F1
s(S'PP'
p51
S'PPPPPP'
tp52
F7
s(S'AP'
p53
S'AVVVVP'
tp54
F2
s(S'DP'
S'DADVADVADVADVVP'
tp55
F1
s(S'PP'
S'APPDP'
tp56
F3
s(S'CP'
S'CADVADVDPPP'
tp57
F1
s(S'VP'
S'ADVADVADVVVPP'
tp58
F4
s(S'DP'
S'DAADP'
tp59
F3
s(S'DP'
S'ADNNP'
tp60
F5
s(S'VP'
S'VADVVVP'
tp61
F3
s(S'MP'
S'MDVP'
tp62
F3
s(S'PP'
S'PADVADVAAP'
tp63
F1
s(S'DP'
S'ADVADVDPPP'
tp64
F1
s(S'PP'
S'APVP'
tp65
F48
s(S'MP'
p66
S'MVDP'
tp67
F109
s(S'PP'
S'PADVANP'
tp68
F8
s(S'NP'
S'AANNPP'
tp69
F1
s(S'NP'
S'ADVNCCP'
tp70
F1
s(S'PP'
p71
S'PPPP'
tp72
F94
s(S'VP'
S'VVVVDDP'
tp73
F4
s(S'DP'
p74
S'DDDNP'
tp75
F7
s(S'VP'
p76
S'VACP'
tp77
F19
s(S'AP'
S'AAAVP'
tp78
F1
s(S'PP'
S'PPAAP'
tp79
F10
s(S'VP'
p80
S'VVVAAAP'
tp81
F3
s(S'DP'
S'DADVVP'
tp82
F39
s(S'VP'
S'ADVVVANP'
tp83
F3
s(S'PP'
S'ADVADVADVPDP'
tp84
F1
s(S'PP'
S'PADVNNP'
tp85
F5
s(S'AP'
p86
S'AADVPP'
tp87
F1
s(S'NP'
S'AANADVADVVVP'
tp88
F2
s(S'NP'
S'NADVACP'
tp89
F2
s(S'NP'
S'NAAVVP'
tp90
F1
s(S'VP'
S'AAVVP'
tp91
F1
s(S'NP'
p92
S'NADVVVP'
tp93
F98
s(S'CP'
S'CADVDAPP'
tp94
F4
s(S'VP'
S'VCP'
tp95
F757
s(S'MP'
S'MVVANP'
tp96
F1
s(S'NP'
S'NMMP'
tp97
F21
s(S'DP'
S'DADVADVADVVP'
tp98
F4
s(S'VP'
S'VVVADVADVDDP'
tp99
F1
s(S'NP'
p100
S'AAAANPP'
tp101
F1
s(S'DP'
S'ADADVADVPPP'
tp102
F1
s(S'PP'
S'ADVPNNP'
tp103
F1
s(S'PP'
p104
S'PAP'
tp105
F681
s(S'PP'
p106
S'PPANNP'
tp107
F3
s(S'MP'
S'MMVVP'
tp108
F3
s(S'DP'
S'DDDADVPP'
tp109
F1
s(S'VP'
S'VADVADVAP'
tp110
F21
s(S'NP'
p111
S'ANNCCP'
tp112
F2
s(S'PP'
p113
S'ADVPPVP'
tp114
F13
s(S'CP'
S'ADVCDDDP'
tp115
F1
s(S'NP'
S'ADVADVADVADVNMP'
tp116
F2
s(S'NP'
S'NNNAP'
tp117
F1
s(S'NP'
S'ANPPP'
tp118
F3
s(S'AP'
S'ADVADVAVVP'
tp119
F3
s(S'NP'
S'NAAAVP'
tp120
F1
s(S'PP'
S'PPADVDP'
tp121
F3
s(S'NP'
S'ANADVANP'
tp122
F1
s(S'MP'
S'MAADDP'
tp123
F1
s(S'VP'
S'VAAAP'
tp124
F9
s(S'VP'
S'VADVANP'
tp125
F9
s(S'PP'
p126
S'PNP'
tp127
F1780
s(S'NP'
S'AAANNDP'
tp128
F1
s(S'VP'
S'VVADVADVNP'
tp129
F1
s(S'PP'
S'PAAADP'
tp130
F1
s(S'AP'
S'AADVADVADVADVCP'
tp131
F1
s(S'VP'
S'AVNNNP'
tp132
F1
s(S'DP'
p133
S'DDP'
tp134
F194
s(S'VP'
S'VVVVMP'
tp135
F1
s(S'MP'
p136
S'MADVADVCDP'
tp137
F1
s(S'MP'
S'MADVADVVAP'
tp138
F5
s(S'VP'
S'ADVVDDP'
tp139
F8
s(S'NP'
p140
S'NNNPP'
tp141
F11
s(S'NP'
S'NNDP'
tp142
F30
s(S'CP'
S'CCCCCADP'
tp143
F1
s(S'MP'
S'MCDP'
tp144
F31
s(S'PP'
S'ADVPCP'
tp145
F1
s(S'CP'
S'CADVADVDDPP'
tp146
F1
s(S'DP'
S'ADVADVADNP'
tp147
F1
s(S'DP'
S'DDAANP'
tp148
F1
s(S'DP'
S'DADVDDP'
tp149
F1
s(S'VP'
S'ADVADVADVVVAP'
tp150
F2
s(S'VP'
S'VVADVVP'
tp151
F1
s(S'VP'
S'ADVADVVVCP'
tp152
F3
s(S'NP'
p153
S'NMP'
tp154
F570
s(S'CP'
S'AACDDDDP'
tp155
F1
s(S'MP'
S'MAVDDP'
tp156
F1
s(S'DP'
S'DDDDDNP'
tp157
F1
s(S'DP'
S'ADCP'
tp158
F2
s(S'CP'
S'CADVDADVPP'
tp159
F1
s(S'VP'
S'VAAADP'
tp160
F2
s(S'PP'
S'PADVADVADVADVNP'
tp161
F3
s(S'VP'
S'AAVNP'
tp162
F3
s(S'VP'
S'VMMP'
tp163
F1
s(S'PP'
p164
S'PDP'
tp165
F1369
s(S'DP'
S'DDPPPPP'
tp166
F2
s(S'CP'
S'CCADVADVDP'
tp167
F3
s(S'CP'
S'CDAAPP'
tp168
F18
s(S'NP'
S'ADVNVVP'
tp169
F4
s(S'VP'
S'VNNNNP'
tp170
F4
s(S'NP'
S'AAANVVP'
tp171
F1
s(S'NP'
S'AANADVAP'
tp172
F1
s(S'DP'
S'DADVADVVP'
tp173
F7
s(S'VP'
S'AVAAP'
tp174
F1
s(S'NP'
S'ADVNADVMP'
tp175
F1
s(S'MP'
S'MAVAP'
tp176
F1
s(S'PP'
S'PPPADVVP'
tp177
F1
s(S'NP'
S'NNADVADVADVVVP'
tp178
F1
s(S'NP'
p179
S'NACCP'
tp180
F1
s(S'AP'
S'ANP'
tp181
F9
s(S'PP'
S'ADVPAAP'
tp182
F1
s(g179
S'NADVADVADVVP'
tp183
F8
s(S'PP'
p184
S'PADVPP'
tp185
F17
s(S'MP'
S'MVADVANP'
tp186
F2
s(S'NP'
S'NNADVCP'
tp187
F4
s(S'VP'
S'VVADVNP'
tp188
F5
s(S'VP'
p189
S'VVVADVADVAP'
tp190
F1
s(S'DP'
S'DDAAPPP'
tp191
F1
s(S'NP'
S'ADVANCP'
tp192
F6
s(S'PP'
S'AAPPPP'
tp193
F1
s(S'NP'
S'ADVADVNMMP'
tp194
F2
s(S'DP'
p195
S'DPPPP'
tp196
F48
s(S'DP'
S'DDANP'
tp197
F20
s(S'PP'
p198
S'PADVADP'
tp199
F1
s(S'NP'
p200
S'NACP'
tp201
F29
s(S'AP'
S'ADVAVP'
tp202
F14
s(S'NP'
p203
S'NCCP'
tp204
F213
s(S'CP'
p205
S'CDDDDPPP'
tp206
F1
s(S'DP'
S'DADVADVVVP'
tp207
F1
s(S'AP'
S'ADVAVVVP'
tp208
F1
s(S'CP'
S'CADVDDPP'
tp209
F8
s(S'VP'
p210
S'VVVVVP'
tp211
F2
s(S'NP'
p212
S'NNCP'
tp213
F192
s(S'DP'
p214
S'ADVDDPP'
tp215
F15
s(S'NP'
S'NADVADVVP'
tp216
F16
s(S'MP'
S'MNPP'
tp217
F1
s(S'DP'
S'ADVADVDDMMP'
tp218
F1
s(S'VP'
S'ADVADVADVADVVVNP'
tp219
F2
s(S'DP'
p220
S'DDDDP'
tp221
F10
s(S'DP'
S'DDDDDPPP'
tp222
F1
s(S'PP'
S'PPAAAAAP'
tp223
F1
s(S'MP'
S'MVAAAP'
tp224
F1
s(S'MP'
p225
S'MAAADP'
tp226
F1
s(S'MP'
S'MMADVADVVP'
tp227
F1
s(S'VP'
p228
S'AVNP'
tp229
F32
s(S'VP'
p230
S'VVADP'
tp231
F6
s(S'PP'
S'AAPPAP'
tp232
F1
s(S'DP'
S'DDAVVP'
tp233
F1
s(S'NP'
S'NADVADVMMP'
tp234
F1
s(S'NP'
S'NADVADVPP'
tp235
F1
s(S'MP'
S'MVAAANP'
tp236
F1
s(S'VP'
S'VVNNNP'
tp237
F3
s(S'PP'
S'ADVPVVP'
tp238
F4
s(S'DP'
S'ADVADVDANP'
tp239
F1
s(S'MP'
S'MVVNP'
tp240
F21
s(S'PP'
S'ADVAPDP'
tp241
F5
s(S'VP'
p242
S'AVDDDP'
tp243
F1
s(S'VP'
S'VADVVP'
tp244
F42
s(g15
S'AAADPP'
tp245
F1
s(S'VP'
S'ADVADVADVVNP'
tp246
F7
s(S'DP'
S'ADVADVADVDDPP'
tp247
F1
s(S'PP'
S'AAAPDDDDDP'
tp248
F1
s(S'MP'
S'MVPPP'
tp249
F6
s(S'NP'
S'ANADVVP'
tp250
F6
s(S'PP'
S'ADVAPVP'
tp251
F2
s(S'PP'
S'PNNNNP'
tp252
F4
s(S'AP'
p253
S'AAAAP'
tp254
F2
s(S'PP'
p255
S'PPPPPDDP'
tp256
F1
s(S'DP'
S'DADVPPP'
tp257
F29
s(S'PP'
S'ADVPADVNP'
tp258
F1
s(g212
S'NCCCCP'
tp259
F1
s(S'MP'
S'MADVVNNP'
tp260
F3
s(g228
S'AVNNP'
tp261
F3
s(S'PP'
S'ADVPPNNP'
tp262
F4
s(S'VP'
S'VCCCP'
tp263
F5
s(S'AP'
S'AAADVPP'
tp264
F1
s(S'NP'
S'ADVANADVCP'
tp265
F1
s(S'DP'
S'DDADVADVADVPPP'
tp266
F1
s(g164
S'APDP'
tp267
F98
s(S'PP'
S'ADVADVAPNP'
tp268
F1
s(S'VP'
S'VADVADVAAP'
tp269
F1
s(S'NP'
p270
S'NNNNNPP'
tp271
F1
s(S'NP'
S'NAAPPP'
tp272
F1
s(S'PP'
p273
S'ADVPPAVP'
tp274
F1
s(S'VP'
S'ADVVNNP'
tp275
F12
s(S'PP'
p276
S'PADVADVADVPP'
tp277
F2
s(S'AP'
S'AADVCP'
tp278
F3
s(S'VP'
S'VVADVADVVP'
tp279
F1
s(S'NP'
S'NADDP'
tp280
F1
s(S'NP'
S'ANADVADVADVVVP'
tp281
F1
s(S'MP'
S'MVADVVP'
tp282
F1
s(S'DP'
S'DDANNP'
tp283
F1
s(S'AP'
S'AADVACP'
tp284
F1
s(S'PP'
S'ADVPPPPP'
tp285
F1
s(S'VP'
S'VVANP'
tp286
F12
s(S'NP'
S'ADVNNVVVP'
tp287
F1
s(S'VP'
S'VVVVDP'
tp288
F13
s(S'VP'
S'ADVVVP'
tp289
F6
s(S'DP'
S'DDAAAP'
tp290
F1
s(S'PP'
S'PADVCCP'
tp291
F1
s(S'CP'
S'CADADVPPP'
tp292
F3
s(S'NP'
S'NNMMMMP'
tp293
F1
s(S'AP'
S'AANP'
tp294
F1
s(S'AP'
S'AAPP'
tp295
F36
s(S'MP'
S'MADVVNP'
tp296
F40
s(S'VP'
S'VVVPPPP'
tp297
F1
s(g71
S'PAAP'
tp298
F83
s(S'NP'
p299
S'NANP'
tp300
F10
s(S'DP'
S'DNNP'
tp301
F233
s(S'VP'
p302
S'ADVVAANP'
tp303
F2
s(S'DP'
S'DPPPPP'
tp304
F10
s(S'CP'
S'CDDPPPP'
tp305
F2
s(S'CP'
S'CCADVDP'
tp306
F18
s(S'VP'
S'ADVADVADVVVDP'
tp307
F3
s(S'VP'
S'VVACP'
tp308
F5
s(S'VP'
S'AAVDDP'
tp309
F1
s(S'DP'
S'DADVADVADVDP'
tp310
F1
s(S'DP'
S'ADDNP'
tp311
F3
s(S'NP'
p312
S'NNNVP'
tp313
F20
s(S'PP'
S'PAAVVP'
tp314
F1
s(S'VP'
S'VADVNNP'
tp315
F5
s(g255
S'AAPPDP'
tp316
F1
s(S'MP'
S'MACP'
tp317
F2
s(S'NP'
S'NADVADVADVADVADVVVP'
tp318
F1
s(S'VP'
S'VVANNP'
tp319
F1
s(g51
S'PADVVP'
tp320
F34
s(S'DP'
p321
S'DACP'
tp322
F1
s(S'DP'
S'DADVADVADVPPP'
tp323
F2
s(S'VP'
S'ADVVVAANNP'
tp324
F1
s(S'DP'
S'DADVVVP'
tp325
F8
s(S'PP'
S'PPPADP'
tp326
F1
s(S'PP'
S'APAP'
tp327
F13
s(S'VP'
p328
S'ADVADVVDDP'
tp329
F3
s(S'AP'
p330
S'APP'
tp331
F270
s(S'CP'
S'ADVCCADP'
tp332
F2
s(S'DP'
S'ADVDDCP'
tp333
F1
s(S'VP'
S'VAPPP'
tp334
F1
s(S'CP'
S'CDDDADVPPP'
tp335
F1
s(S'NP'
S'NADVMP'
tp336
F6
s(S'PP'
p337
S'PPADP'
tp338
F6
s(g328
S'VADVADVVP'
tp339
F6
s(S'VP'
S'VVAPP'
tp340
F2
s(S'DP'
p341
S'DAAAPP'
tp342
F1
s(S'AP'
S'AAADVDDP'
tp343
F1
s(g140
S'ADVANPP'
tp344
F5
s(S'MP'
S'MVVCP'
tp345
F4
s(S'DP'
S'DAAVP'
tp346
F13
s(S'CP'
S'CDDDDPP'
tp347
F3
s(S'NP'
S'NNNNNMMP'
tp348
F1
s(S'MP'
S'MVVVNP'
tp349
F6
s(S'PP'
p350
S'PAANP'
tp351
F26
s(S'VP'
S'VADVADVCP'
tp352
F2
s(S'NP'
S'NADVADVPPP'
tp353
F1
s(S'PP'
S'PPVVP'
tp354
F20
s(S'VP'
S'VAACP'
tp355
F2
s(S'MP'
S'ADVADVMVP'
tp356
F2
s(S'VP'
S'ADVADVVVVNP'
tp357
F1
s(S'NP'
S'NNAAAP'
tp358
F1
s(S'MP'
S'MVNP'
tp359
F154
s(S'DP'
S'ADVADVDDVP'
tp360
F3
s(S'PP'
S'PADVADVADVAP'
tp361
F1
s(S'NP'
S'NNNNP'
tp362
F2
s(S'AP'
S'AADVCCP'
tp363
F3
s(S'NP'
S'ANAAP'
tp364
F1
s(S'AP'
S'ADVAADP'
tp365
F5
s(S'DP'
S'ADVADNP'
tp366
F3
s(S'PP'
p367
S'PAVP'
tp368
F47
s(S'CP'
S'CDADVADVAPP'
tp369
F1
s(S'MP'
S'ADVMVP'
tp370
F9
s(S'DP'
S'ADADVADVADVPPP'
tp371
F1
s(S'NP'
S'ANAAAP'
tp372
F1
s(S'MP'
S'MDANP'
tp373
F1
s(g53
S'AADVVVP'
tp374
F2
s(S'MP'
S'MADVVADVAP'
tp375
F1
s(S'NP'
S'NNADVADVMP'
tp376
F1
s(S'VP'
S'VVVPP'
tp377
F37
s(S'NP'
S'NNADP'
tp378
F3
s(S'DP'
p379
S'ADVDADP'
tp380
F1
s(S'CP'
S'ADVCADP'
tp381
F1
s(S'MP'
S'MADVVADVANP'
tp382
F1
s(S'MP'
S'MADVVPP'
tp383
F20
s(S'DP'
S'DADP'
tp384
F13
s(S'MP'
S'MADVVVCP'
tp385
F1
s(S'AP'
S'ADVADP'
tp386
F25
s(S'CP'
S'ADVADVCDP'
tp387
F7
s(S'VP'
S'VVADVPP'
tp388
F1
s(S'DP'
S'ADVDDP'
tp389
F1
s(S'PP'
S'APDDP'
tp390
F9
s(S'VP'
S'ADVADVVVNP'
tp391
F4
s(S'NP'
p392
S'ADVNAP'
tp393
F3
s(S'DP'
S'ADVDDDP'
tp394
F1
s(S'DP'
S'DDDDVVP'
tp395
F2
s(S'DP'
S'ADVADVDAP'
tp396
F1
s(S'MP'
S'MDVVP'
tp397
F1
s(S'NP'
S'AANADVVVP'
tp398
F1
s(S'NP'
S'ADVANADVADVVP'
tp399
F1
s(S'VP'
p400
S'ADVVNP'
tp401
F83
s(S'MP'
S'MADVADVVPP'
tp402
F7
s(S'DP'
S'DPPPPPP'
tp403
F1
s(S'MP'
S'MNNCP'
tp404
F1
s(S'CP'
S'CADVADPPP'
tp405
F3
s(S'VP'
S'ADVADVADVVCP'
tp406
F1
s(S'PP'
S'PPMMMMP'
tp407
F1
s(g189
S'VVNP'
tp408
F222
s(S'AP'
S'ADVAAAP'
tp409
F2
s(S'PP'
S'ADVPPPP'
tp410
F5
s(g71
S'PPVP'
tp411
F131
s(S'CP'
S'ADVADVCADVDP'
tp412
F1
s(S'MP'
S'MVVVVCP'
tp413
F1
s(g337
S'PPPADVNNP'
tp414
F1
s(S'VP'
p415
S'VADVDP'
tp416
F23
s(S'MP'
p417
S'MVVVPP'
tp418
F5
s(S'VP'
S'VVADVAP'
tp419
F8
s(S'VP'
S'VAAP'
tp420
F87
s(g179
S'NNADVAVP'
tp421
F1
s(S'VP'
S'VVVANNP'
tp422
F1
s(S'PP'
S'ADVADVADVADVPPNP'
tp423
F1
s(S'NP'
S'ANDP'
tp424
F39
s(g392
S'NVVP'
tp425
F379
s(S'PP'
S'AAPVP'
tp426
F10
s(S'AP'
S'AAP'
tp427
F62
s(S'VP'
S'VMP'
tp428
F24
s(g111
S'ANPPPP'
tp429
F2
s(S'VP'
S'ADVVMP'
tp430
F2
s(S'VP'
S'VVNNP'
tp431
F30
s(S'CP'
S'CDAPP'
tp432
F104
s(S'VP'
S'VVAAP'
tp433
F21
s(S'MP'
S'MMPP'
tp434
F1
s(S'DP'
S'ADVADVP'
tp435
F1
s(S'NP'
p436
S'ANCCP'
tp437
F45
s(S'VP'
S'ADVADVVVNNP'
tp438
F1
s(g195
S'ADNP'
tp439
F49
s(S'CP'
S'CDDDPPP'
tp440
F1
s(S'PP'
S'PPPPAP'
tp441
F2
s(g51
S'PADP'
tp442
F57
s(S'VP'
S'ADVVVCP'
tp443
F15
s(S'PP'
S'AAAAPNP'
tp444
F2
s(S'NP'
S'NADVADVADVVVP'
tp445
F9
s(S'NP'
S'ANDDP'
tp446
F7
s(S'CP'
S'CDDADVADVADVPPP'
tp447
F1
s(S'PP'
S'ADVADVADVPPPNP'
tp448
F1
s(S'DP'
S'DADVMP'
tp449
F1
s(S'DP'
S'ADVADVDVP'
tp450
F3
s(S'DP'
S'DADVAP'
tp451
F16
s(S'VP'
S'VVVVVDP'
tp452
F1
s(S'PP'
S'ADVADVPMP'
tp453
F1
s(S'NP'
S'NADVADVADVCP'
tp454
F1
s(S'CP'
S'ADVADVACDP'
tp455
F1
s(S'DP'
S'DAPP'
tp456
F180
s(S'PP'
S'ADVPADVVP'
tp457
F1
s(S'VP'
p458
S'ADVVADVADVAP'
tp459
F1
s(S'VP'
S'AVVP'
tp460
F2
s(S'VP'
S'VVVVPP'
tp461
F10
s(S'VP'
S'ADVADVVPP'
tp462
F11
s(S'MP'
S'MADVVVNP'
tp463
F1
s(S'MP'
S'MADVADVVNP'
tp464
F6
s(S'AP'
S'AADVADVADVPP'
tp465
F1
s(S'VP'
S'VADVAAP'
tp466
F7
s(S'VP'
p467
S'ADVADVADVVDP'
tp468
F13
s(S'CP'
S'CADPPPP'
tp469
F1
s(S'VP'
S'VVAANP'
tp470
F1
s(S'VP'
S'ADVADVVDP'
tp471
F18
s(S'PP'
S'PPPDP'
tp472
F9
s(S'DP'
S'DAAPPP'
tp473
F4
s(S'AP'
S'AAVVP'
tp474
F2
s(S'DP'
S'DDAAVP'
tp475
F1
s(S'MP'
S'MVVAP'
tp476
F5
s(S'NP'
p477
S'NNNCCCP'
tp478
F1
s(S'VP'
S'VDDDDP'
tp479
F2
s(S'DP'
S'DAAANP'
tp480
F4
s(S'DP'
S'DDADVADP'
tp481
F1
s(S'DP'
p482
S'DADVANP'
tp483
F7
s(S'NP'
S'ANADVVVP'
tp484
F11
s(S'VP'
S'VAAPP'
tp485
F4
s(S'NP'
S'NADVADVAPP'
tp486
F1
s(S'DP'
S'ADVDNP'
tp487
F15
s(S'PP'
S'PPPPANP'
tp488
F1
s(S'VP'
p489
S'VVPP'
tp490
F161
s(g458
S'VADVAPP'
tp491
F1
s(S'NP'
S'AAAANVP'
tp492
F2
s(S'VP'
S'VVAAAANNP'
tp493
F1
s(S'DP'
S'ADADVPP'
tp494
F3
s(S'PP'
p495
S'PAVVP'
tp496
F1
s(S'MP'
S'MVPP'
tp497
F76
s(S'DP'
S'ADVP'
tp498
F38
s(S'MP'
S'MVADP'
tp499
F2
s(S'CP'
p500
S'CDDPPP'
tp501
F24
s(S'NP'
S'NNADVADVAP'
tp502
F1
s(S'PP'
S'PPPAP'
tp503
F5
s(g92
S'NNPP'
tp504
F111
s(S'CP'
S'AACCDDP'
tp505
F1
s(S'CP'
S'CCCADVDP'
tp506
F2
s(S'DP'
S'DDDDNP'
tp507
F1
s(S'MP'
S'MVVDP'
tp508
F18
s(g477
S'AAAAANCP'
tp509
F1
s(S'PP'
S'PPADVAAP'
tp510
F1
s(S'NP'
p511
S'ANVP'
tp512
F107
s(S'DP'
S'DADVADVADVADVPP'
tp513
F1
s(S'MP'
S'MVVPPPP'
tp514
F1
s(g341
S'DDDDDVP'
tp515
F1
s(S'DP'
S'DNNNP'
tp516
F16
s(S'DP'
S'ADVDADVPP'
tp517
F2
s(S'NP'
S'NADVMMP'
tp518
F1
s(S'DP'
S'ADVDDVP'
tp519
F6
s(S'VP'
S'VADVADVPPP'
tp520
F2
s(S'PP'
p521
S'PADVADVVP'
tp522
F7
s(S'VP'
S'VADVDDP'
tp523
F3
s(S'VP'
S'ADVVCP'
tp524
F38
s(S'PP'
S'PVVVP'
tp525
F20
s(S'PP'
S'PMP'
tp526
F63
s(S'NP'
S'NNMMP'
tp527
F3
s(S'PP'
S'PADVADVADVVP'
tp528
F2
s(S'PP'
S'ADVPPAP'
tp529
F2
s(g43
S'CCDP'
tp530
F422
s(S'NP'
S'ADVNNDP'
tp531
F1
s(S'DP'
S'ADVADVADVDPP'
tp532
F4
s(S'MP'
S'AMVP'
tp533
F6
s(S'VP'
S'VPPP'
tp534
F95
s(S'CP'
S'ADVADVADVADVCDP'
tp535
F1
s(S'VP'
S'VADVADVANP'
tp536
F2
s(g511
S'NVVVP'
tp537
F97
s(S'CP'
S'CDDDPP'
tp538
F23
s(S'CP'
S'CDDDDDPPP'
tp539
F1
s(S'CP'
S'CDADVADVPP'
tp540
F8
s(S'VP'
S'ADVADVVVVP'
tp541
F1
s(g400
S'VVVDP'
tp542
F43
s(S'PP'
S'PDDDDP'
tp543
F2
s(g104
S'PNNNP'
tp544
F28
s(S'MP'
S'MVVVAP'
tp545
F1
s(S'CP'
p546
S'CCCCDP'
tp547
F6
s(S'DP'
S'DDDCCP'
tp548
F1
s(S'PP'
S'PADVADVADVNNP'
tp549
F1
s(S'AP'
S'AACCP'
tp550
F6
s(S'PP'
S'AAPNP'
tp551
F6
s(S'VP'
S'VVVVADVVP'
tp552
F1
s(S'CP'
S'CADADVPP'
tp553
F3
s(S'PP'
S'PADVVVP'
tp554
F2
s(S'PP'
p555
S'PPP'
tp556
F518
s(S'AP'
S'ADVAACCP'
tp557
F1
s(S'NP'
S'NNANP'
tp558
F1
s(S'NP'
S'NAVP'
tp559
F63
s(S'PP'
S'PADVAP'
tp560
F17
s(g482
S'DDNNNP'
tp561
F5
s(S'VP'
S'VVADVNNP'
tp562
F1
s(S'PP'
S'PPPADVNP'
tp563
F2
s(S'PP'
S'PADDP'
tp564
F3
s(S'DP'
S'ADVDVP'
tp565
F31
s(S'PP'
S'PPADVADVNP'
tp566
F1
s(S'NP'
S'NAAAP'
tp567
F1
s(S'NP'
S'NCCCP'
tp568
F12
s(S'DP'
p569
S'DADVADVPPP'
tp570
F3
s(S'AP'
S'AADVVP'
tp571
F5
s(S'PP'
S'PPPPDP'
tp572
F2
s(S'MP'
S'MVVVVDP'
tp573
F2
s(g214
S'DAAAP'
tp574
F3
s(S'DP'
S'ADVADVDNP'
tp575
F3
s(S'AP'
S'AAADVCP'
tp576
F1
s(S'VP'
S'VPP'
tp577
F881
s(S'DP'
S'DADVAAANP'
tp578
F1
s(S'CP'
S'ADVCCDP'
tp579
F15
s(S'VP'
S'ADVADVVVP'
tp580
F2
s(S'CP'
S'ACCDP'
tp581
F2
s(S'AP'
S'AAAACP'
tp582
F2
s(S'VP'
S'VVADVADVADVAAP'
tp583
F1
s(S'NP'
S'NNNCP'
tp584
F13
s(S'PP'
S'PADVDP'
tp585
F25
s(S'CP'
S'CDADVAPP'
tp586
F5
s(S'VP'
S'VAAAAP'
tp587
F2
s(S'DP'
S'DANNP'
tp588
F8
s(S'MP'
S'MADVVAP'
tp589
F14
s(S'PP'
p590
S'PADVAAP'
tp591
F5
s(g546
S'CDDPP'
tp592
F232
s(g273
S'PPPADVPPP'
tp593
F1
s(S'DP'
S'DAAPP'
tp594
F33
s(S'PP'
S'PVVP'
tp595
F128
s(S'CP'
S'CADPPP'
tp596
F9
s(S'AP'
p597
S'AACP'
tp598
F42
s(g74
S'ADVADDP'
tp599
F1
s(S'VP'
S'ADVAVDDP'
tp600
F1
s(g555
S'PMMP'
tp601
F3
s(g417
S'MCCDP'
tp602
F1
s(S'PP'
S'PPNNNP'
tp603
F4
s(S'VP'
S'AVCCP'
tp604
F2
s(S'NP'
S'NADVADVAVP'
tp605
F1
s(S'PP'
S'PPADVADVDP'
tp606
F1
s(S'DP'
S'ADVADVDDNP'
tp607
F2
s(S'VP'
S'VVPPP'
tp608
F13
s(S'NP'
S'NNNNNVVP'
tp609
F1
s(S'DP'
S'ADVDADVVVP'
tp610
F1
s(S'VP'
S'ADVVVCCP'
tp611
F3
s(S'PP'
p612
S'PPAP'
tp613
F58
s(S'DP'
p614
S'DVVP'
tp615
F139
s(S'PP'
S'PADVAVP'
tp616
F2
s(S'VP'
S'VVVADVAP'
tp617
F4
s(S'NP'
S'NNNNDP'
tp618
F1
s(S'DP'
S'DDDADVPPP'
tp619
F1
s(S'NP'
p620
S'AAANADVADVADVPP'
tp621
F1
s(S'PP'
p622
S'ADVADVPPVP'
tp623
F1
s(S'NP'
S'ANMP'
tp624
F23
s(S'AP'
S'APPP'
tp625
F13
s(S'PP'
S'ADVPPP'
tp626
F10
s(S'DP'
S'ADVADPPP'
tp627
F3
s(S'NP'
S'ADVADVNVP'
tp628
F8
s(S'VP'
S'ADVVAAP'
tp629
F3
s(S'VP'
S'VVVP'
tp630
F39
s(S'NP'
S'ADVNNCCP'
tp631
F1
s(S'CP'
S'CADVDPP'
tp632
F75
s(S'VP'
S'ADVVVAANP'
tp633
F2
s(S'VP'
S'ADVADVVCCP'
tp634
F1
s(S'AP'
S'ADVAAADVDP'
tp635
F1
s(S'PP'
S'AAPNNP'
tp636
F4
s(S'PP'
S'ADVADVPPNP'
tp637
F3
s(S'AP'
S'ACCCCP'
tp638
F1
s(S'NP'
p639
S'ANCP'
tp640
F170
s(S'VP'
S'VADVADVACP'
tp641
F1
s(S'DP'
S'DCP'
tp642
F108
s(g379
S'DVVVP'
tp643
F20
s(S'VP'
S'ADVVCCP'
tp644
F1
s(S'VP'
S'VADVADVADVCCP'
tp645
F1
s(S'DP'
S'DADVADVADVNP'
tp646
F1
s(S'PP'
S'PPADVPP'
tp647
F1
s(S'NP'
S'NNVVVVP'
tp648
F10
s(S'PP'
S'ADVADVADVPPNP'
tp649
F2
s(g133
S'DDDP'
tp650
F41
s(S'AP'
S'ADDDDP'
tp651
F2
s(S'DP'
S'DDADVPP'
tp652
F14
s(S'MP'
S'MVVVVNP'
tp653
F1
s(S'MP'
S'MAADP'
tp654
F4
s(g270
S'ANVVP'
tp655
F30
s(S'NP'
S'NVVVVP'
tp656
F30
s(S'NP'
S'NPPP'
tp657
F72
s(S'VP'
S'AAVADVDDP'
tp658
F1
s(S'PP'
S'PPAPP'
tp659
F2
s(S'VP'
S'ADVADVADVADVVVP'
tp660
F1
s(S'VP'
S'ADVVNNNP'
tp661
F1
s(S'VP'
S'VVADVDP'
tp662
F1
s(S'DP'
S'DAVP'
tp663
F51
s(S'VP'
S'AVVVP'
tp664
F1
s(S'VP'
S'ADVADVADVADVVNP'
tp665
F1
s(S'VP'
p666
S'ADVAVCP'
tp667
F2
s(S'NP'
S'NNNNMP'
tp668
F3
s(S'AP'
S'ACP'
tp669
F391
s(S'PP'
S'AAPAP'
tp670
F1
s(S'NP'
S'NDDDDP'
tp671
F1
s(S'PP'
S'PADVADVNNP'
tp672
F2
s(g71
S'PPNP'
tp673
F214
s(S'AP'
p674
S'ADVACCP'
tp675
F11
s(S'NP'
S'NAADP'
tp676
F2
s(S'DP'
S'AAADNNP'
tp677
F2
s(S'DP'
S'ADVDAPP'
tp678
F4
s(S'CP'
S'CDDPPPPP'
tp679
F1
s(S'MP'
S'MMMMVP'
tp680
F2
s(S'DP'
S'AADVP'
tp681
F1
s(S'VP'
p682
S'VVVANP'
tp683
F4
s(S'PP'
S'PPPADVDDP'
tp684
F1
s(S'MP'
S'MADVADVADVADVVNP'
tp685
F1
s(S'VP'
p686
S'VAANNP'
tp687
F1
s(S'MP'
S'MADVADVADVADVVAP'
tp688
F1
s(g686
S'VVVNNNNNP'
tp689
F1
s(S'VP'
S'ADVADVAVNNNP'
tp690
F1
s(S'CP'
S'CDDADVPP'
tp691
F6
s(g500
S'CCCDDP'
tp692
F4
s(S'AP'
S'ADP'
tp693
F1541
s(S'DP'
S'DDADVVP'
tp694
F5
s(S'PP'
S'APMP'
tp695
F1
s(S'DP'
S'DDPPPP'
tp696
F2
s(S'PP'
S'APVVP'
tp697
F6
s(S'VP'
S'VVCCCP'
tp698
F1
s(S'DP'
S'DMMP'
tp699
F1
s(S'NP'
S'ADVANCCP'
tp700
F1
s(S'NP'
S'AAANNCP'
tp701
F1
s(g80
S'ADVADVADVADVADVVVNP'
tp702
F1
s(S'PP'
S'ADVPAAVP'
tp703
F1
s(S'NP'
S'ADVADVNNVP'
tp704
F1
s(S'VP'
S'VAAANP'
tp705
F2
s(S'MP'
S'MADDP'
tp706
F2
s(S'DP'
p707
S'DADVADP'
tp708
F1
s(S'VP'
p709
S'VVPPPP'
tp710
F2
s(S'VP'
S'ADVADVVNNP'
tp711
F3
s(S'PP'
S'PANNP'
tp712
F3
s(g253
S'AAADP'
tp713
F34
s(S'NP'
S'ANNVP'
tp714
F7
s(S'VP'
S'VVAP'
tp715
F103
s(S'NP'
S'NNAPP'
tp716
F1
s(S'AP'
S'ADVAMP'
tp717
F1
s(S'PP'
S'ADVPPADVNP'
tp718
F1
s(S'NP'
S'NNADVADVADVVP'
tp719
F1
s(S'DP'
p720
S'AADDVVP'
tp721
F1
s(S'PP'
S'PPNNNNNP'
tp722
F1
s(S'CP'
S'ADVACDP'
tp723
F5
s(S'PP'
S'APPVVP'
tp724
F1
s(S'PP'
S'PPADVVP'
tp725
F5
s(S'VP'
S'AAVCP'
tp726
F3
s(S'NP'
p727
S'NNADVCCP'
tp728
F2
s(g153
S'NPP'
tp729
F1014
s(S'PP'
S'PPPPNP'
tp730
F9
s(g477
S'NVP'
tp731
F2277
s(S'CP'
S'CCCCADVDDP'
tp732
F1
s(S'CP'
S'CADVADPP'
tp733
F1
s(S'CP'
S'ADVCCDDP'
tp734
F2
s(S'VP'
p735
S'VVNNNNP'
tp736
F2
s(S'PP'
S'AAPPNP'
tp737
F2
s(S'NP'
p738
S'NAAPP'
tp739
F6
s(S'PP'
S'PPPPVP'
tp740
F2
s(S'MP'
S'ADVMMVP'
tp741
F1
s(S'PP'
p742
S'PPDDDDDP'
tp743
F1
s(S'VP'
p744
S'VDDP'
tp745
F118
s(S'VP'
S'ADVVADVAP'
tp746
F2
s(S'AP'
S'ADVADVADVADP'
tp747
F1
s(S'PP'
p748
S'ADVADVADVADVPNP'
tp749
F1
s(S'DP'
S'DAAAAP'
tp750
F1
s(S'AP'
S'AAADVDP'
tp751
F4
s(S'NP'
S'ADVNADVADVCP'
tp752
F1
s(S'NP'
S'AANNVP'
tp753
F2
s(S'NP'
S'AANVVP'
tp754
F13
s(S'DP'
p755
S'DADVAPP'
tp756
F9
s(S'PP'
S'AAPNNNP'
tp757
F1
s(S'PP'
S'ADVAPAP'
tp758
F2
s(g738
S'NADVADVVVP'
tp759
F21
s(g203
S'ANPP'
tp760
F134
s(g198
S'ADVPPDP'
tp761
F4
s(g521
S'PPPPP'
tp762
F19
s(S'NP'
S'ADVANVVVVP'
tp763
F1
s(S'PP'
S'ADVADVPDP'
tp764
F4
s(S'PP'
S'PPCP'
tp765
F7
s(S'MP'
S'MVVPP'
tp766
F15
s(S'VP'
S'ADVVADVADVCP'
tp767
F1
s(S'PP'
S'PPPNP'
tp768
F29
s(S'NP'
S'AAANVVVVP'
tp769
F1
s(S'PP'
S'PPVVVVP'
tp770
F2
s(S'DP'
S'AADVDDADVADVVVVP'
tp771
F1
s(S'AP'
S'ADVADVAVP'
tp772
F6
s(S'DP'
S'ADDP'
tp773
F5
s(S'NP'
S'NADVAAP'
tp774
F1
s(g203
S'NNCCCCP'
tp775
F4
s(S'VP'
S'VVVADVDP'
tp776
F1
s(S'CP'
S'CAADPP'
tp777
F12
s(S'PP'
S'PADVADVADVADVVP'
tp778
F1
s(S'DP'
S'DDADVADVPPP'
tp779
F2
s(S'NP'
S'NAACP'
tp780
F7
s(S'CP'
S'CDAAAAPP'
tp781
F1
s(g126
S'PNNP'
tp782
F256
s(S'VP'
S'VADVACP'
tp783
F1
s(S'CP'
S'CDADVADVADVPPP'
tp784
F2
s(S'PP'
S'APNNP'
tp785
F5
s(S'DP'
S'DDDADVADVPPP'
tp786
F1
s(S'DP'
S'DDAAP'
tp787
F2
s(S'NP'
S'NCCCCCP'
tp788
F1
s(S'VP'
S'ADVADVVMP'
tp789
F1
s(S'AP'
S'AAAAACP'
tp790
F1
s(S'VP'
S'AVAP'
tp791
F7
s(S'MP'
S'MMVP'
tp792
F21
s(S'PP'
S'PADVDDP'
tp793
F2
s(S'PP'
S'ADVADVAPDP'
tp794
F2
s(S'MP'
S'MNCP'
tp795
F4
s(g738
S'ADVNCP'
tp796
F31
s(S'DP'
S'DDADVADVPP'
tp797
F3
s(S'DP'
p798
S'ADPP'
tp799
F178
s(S'NP'
S'ADVADVNCP'
tp800
F2
s(S'CP'
S'CADVADVADVADVDDPP'
tp801
F1
s(S'AP'
S'AADVADVADVVP'
tp802
F1
s(S'NP'
S'NAPPP'
tp803
F1
s(S'CP'
S'ACDP'
tp804
F58
s(S'NP'
S'ADVADVADVNPP'
tp805
F1
s(S'VP'
S'ADVVDDDP'
tp806
F1
s(S'VP'
S'VCCP'
tp807
F84
s(S'NP'
S'ANADVADVVVP'
tp808
F3
s(S'VP'
S'ADVADVVAAP'
tp809
F2
s(S'AP'
S'ADVANP'
tp810
F18
s(S'PP'
S'PADVADVADVPPP'
tp811
F1
s(S'NP'
S'NNACP'
tp812
F2
s(S'AP'
S'ADVADDDP'
tp813
F1
s(S'CP'
S'CDADVPPP'
tp814
F19
s(S'VP'
S'VAP'
tp815
F860
s(S'VP'
S'VVVVNP'
tp816
F18
s(g225
S'MNVVP'
tp817
F2
s(g220
S'DDDPP'
tp818
F45
s(S'CP'
S'ADVCDDP'
tp819
F3
s(S'NP'
S'AANNCP'
tp820
F4
s(g742
S'ADVPMP'
tp821
F3
s(S'VP'
S'VADVMP'
tp822
F1
s(g37
S'PAAPP'
tp823
F4
s(S'CP'
S'AACDDP'
tp824
F1
s(S'CP'
S'CADVADVADVADVDPP'
tp825
F1
s(S'AP'
S'ADVAAPP'
tp826
F1
s(S'MP'
S'MVVVDP'
tp827
F9
s(S'MP'
S'MAVPP'
tp828
F2
s(S'VP'
S'ADVADVVVAP'
tp829
F3
s(S'DP'
S'DDDPPP'
tp830
F4
s(S'VP'
S'ADVAVDP'
tp831
F1
s(g614
S'ADAP'
tp832
F6
s(S'DP'
S'DADVDP'
tp833
F3
s(S'MP'
S'MVVCCP'
tp834
F1
s(S'PP'
p835
S'APADVVP'
tp836
F1
s(S'CP'
S'CCADVADP'
tp837
F2
s(S'PP'
S'AAPPVP'
tp838
F1
s(S'PP'
S'PADVADVADP'
tp839
F1
s(S'AP'
p840
S'AAACP'
tp841
F7
s(S'DP'
S'ADADVVP'
tp842
F1
s(S'VP'
S'ADVVVDP'
tp843
F26
s(S'MP'
S'MAVP'
tp844
F1
s(g521
S'PPPVP'
tp845
F14
s(S'AP'
p846
S'AADDP'
tp847
F15
s(S'MP'
S'MADVVADVADVCP'
tp848
F1
s(S'VP'
p849
S'ADVVADVVVVP'
tp850
F1
s(S'DP'
S'DDAAAAP'
tp851
F1
s(S'VP'
S'VADVADVADVCP'
tp852
F1
s(S'VP'
S'VAANP'
tp853
F9
s(S'VP'
S'ADVVAAAP'
tp854
F1
s(S'NP'
S'NADVADVCP'
tp855
F3
s(S'DP'
S'DAAAAPP'
tp856
F2
s(S'MP'
S'MADVADVADVVNP'
tp857
F2
s(S'VP'
S'ADVADVADVADVVDP'
tp858
F1
s(S'MP'
S'MMVVVVP'
tp859
F2
s(S'VP'
S'VVDP'
tp860
F192
s(S'PP'
S'PAAAAP'
tp861
F2
s(S'MP'
S'MVVVCP'
tp862
F1
s(g136
S'AMVVP'
tp863
F1
s(S'DP'
S'ADPPPPP'
tp864
F1
s(S'MP'
S'MPNP'
tp865
F1
s(S'VP'
S'ADVVADVANP'
tp866
F1
s(S'VP'
S'VVAADP'
tp867
F1
s(S'MP'
S'MADP'
tp868
F45
s(g51
S'PPPDDP'
tp869
F3
s(S'VP'
S'AAVVNP'
tp870
F1
s(S'CP'
S'CCAADP'
tp871
F2
s(S'PP'
S'ADVADVPPANP'
tp872
F1
s(S'DP'
S'DDADVNP'
tp873
F2
s(S'PP'
p874
S'PANP'
tp875
F109
s(S'DP'
S'AADNP'
tp876
F4
s(S'NP'
S'ANNMP'
tp877
F2
s(S'NP'
S'NADVDDP'
tp878
F1
s(S'DP'
S'ADVADVDAVP'
tp879
F1
s(g707
S'ADVADPP'
tp880
F6
s(g682
S'ADVVVNNNP'
tp881
F1
s(S'DP'
S'ADVDDVVP'
tp882
F1
s(S'NP'
S'AANMP'
tp883
F12
s(S'AP'
S'AAVP'
tp884
F29
s(S'NP'
S'NAAP'
tp885
F31
s(S'DP'
S'AADDDP'
tp886
F1
s(S'NP'
S'NDDP'
tp887
F30
s(S'VP'
S'VVVMP'
tp888
F1
s(S'MP'
S'MVADVDP'
tp889
F2
s(g840
S'ACCP'
tp890
F52
s(S'DP'
S'DDADVADVADVADVVVP'
tp891
F1
s(S'NP'
S'NNVVVP'
tp892
F17
s(S'VP'
S'VVVVAP'
tp893
F5
s(S'VP'
S'AVPPP'
tp894
F3
s(S'PP'
S'ADVPAANP'
tp895
F1
s(g477
S'NDP'
tp896
F373
s(S'NP'
S'NNNNVVP'
tp897
F3
s(S'MP'
S'ADVADVMCCCP'
tp898
F1
s(S'AP'
S'AADVADVDP'
tp899
F1
s(S'AP'
S'APPPP'
tp900
F2
s(S'MP'
S'MVAAP'
tp901
F3
s(S'DP'
S'DDVP'
tp902
F148
s(S'VP'
S'VDDDDDP'
tp903
F1
s(S'DP'
S'ADADVPPP'
tp904
F3
s(S'NP'
S'AAAANNVVVP'
tp905
F1
s(g200
S'AANVP'
tp906
F22
s(S'PP'
S'PPADVANP'
tp907
F2
s(S'VP'
S'ADVVVNNP'
tp908
F9
s(S'DP'
S'DADVADVAPP'
tp909
F2
s(S'DP'
S'ADDVP'
tp910
F3
s(S'VP'
S'VNNNP'
tp911
F17
s(S'VP'
S'ADVADVADVVVCP'
tp912
F1
s(S'AP'
S'AAAAVVP'
tp913
F1
s(S'VP'
S'VADVADVPP'
tp914
F1
s(S'PP'
S'ADVPAP'
tp915
F8
s(S'MP'
S'MVVNNP'
tp916
F2
s(S'PP'
S'PPPPVVP'
tp917
F1
s(S'NP'
S'AAANVP'
tp918
F3
s(S'PP'
p919
S'APADVDP'
tp920
F3
s(S'PP'
S'PCP'
tp921
F76
s(S'NP'
S'NNPPP'
tp922
F5
s(g612
S'PAADDP'
tp923
F1
s(S'VP'
S'VAACCP'
tp924
F1
s(g350
S'PAADP'
tp925
F4
s(S'NP'
S'ADVNNVP'
tp926
F4
s(S'MP'
S'MDNP'
tp927
F1
s(S'NP'
S'ADVANVVP'
tp928
F5
s(S'MP'
S'MADVADVVCP'
tp929
F1
s(S'NP'
S'ADVNNPP'
tp930
F1
s(g748
S'PACP'
tp931
F1
s(S'NP'
S'NADVADVDDP'
tp932
F1
s(S'VP'
S'ADVVADVAANP'
tp933
F1
s(S'AP'
S'AADVAP'
tp934
F4
s(S'NP'
S'NNNDP'
tp935
F3
s(S'PP'
S'PPVVVP'
tp936
F4
s(S'AP'
S'ADVANNNP'
tp937
F1
s(S'VP'
S'ADVVVPPP'
tp938
F2
s(S'AP'
S'ADVACP'
tp939
F55
s(S'NP'
S'AANVVVP'
tp940
F5
s(g153
S'ADVADVNMP'
tp941
F4
s(S'VP'
S'AVVDP'
tp942
F1
s(S'VP'
S'ADVADVAVDP'
tp943
F1
s(S'DP'
S'ADPPP'
tp944
F15
s(S'AP'
S'ADVADVAADVVP'
tp945
F1
s(S'NP'
S'NNAAVP'
tp946
F3
s(S'MP'
S'MVCP'
tp947
F30
s(S'CP'
S'CCDDP'
tp948
F47
s(S'VP'
S'ADVADVADVADVVVAADP'
tp949
F1
s(S'NP'
S'NNADVVP'
tp950
F12
s(S'VP'
S'ADVADVADVVPP'
tp951
F2
s(S'DP'
S'DDADP'
tp952
F1
s(S'DP'
S'DADVADVADVVVP'
tp953
F1
s(S'MP'
S'MVMP'
tp954
F1
s(S'NP'
S'ADVANAP'
tp955
F1
s(S'MP'
S'MADVADVADVVVPP'
tp956
F1
s(S'MP'
S'MVVADVAP'
tp957
F3
s(S'NP'
S'NNVVP'
tp958
F45
s(S'NP'
S'NNNNVP'
tp959
F4
s(g735
S'VVCP'
tp960
F88
s(S'MP'
S'MVAANP'
tp961
F1
s(S'NP'
S'ADVADVADVADVNVP'
tp962
F1
s(S'NP'
p963
S'AANCP'
tp964
F25
s(g489
S'VADVNP'
tp965
F22
s(S'VP'
S'VVDDDP'
tp966
F1
s(S'AP'
S'ADVAVVP'
tp967
F11
s(S'MP'
S'MDCP'
tp968
F1
s(S'AP'
S'AADVADVADVADVVP'
tp969
F1
s(S'PP'
S'APPP'
tp970
F33
s(S'DP'
p971
S'DDDDPPP'
tp972
F1
s(S'VP'
p973
S'ADVVPP'
tp974
F44
s(S'VP'
S'VVADVANP'
tp975
F2
s(S'CP'
S'CADVADVADVDDPP'
tp976
F1
s(g205
S'CDAPPP'
tp977
F1
s(S'VP'
S'VNNP'
tp978
F149
s(S'AP'
S'AADVDP'
tp979
F22
s(g709
S'ADVADVVVANP'
tp980
F1
s(S'NP'
S'NADP'
tp981
F8
s(S'MP'
S'MMCP'
tp982
F1
s(S'DP'
p983
S'DDNP'
tp984
F117
s(S'CP'
S'ACADVDP'
tp985
F2
s(g639
S'NADVCP'
tp986
F35
s(S'NP'
S'NNADVAP'
tp987
F3
s(S'PP'
S'AAPPP'
tp988
F3
s(g755
S'DDDVVVP'
tp989
F1
s(S'VP'
S'VPPPPP'
tp990
F1
s(S'CP'
S'CADADVADVPPP'
tp991
F1
s(S'PP'
S'PADVADVVVP'
tp992
F2
s(S'NP'
S'ADVANVP'
tp993
F13
s(S'NP'
S'ADVNAAP'
tp994
F1
s(S'PP'
S'ADVADVPPAAAP'
tp995
F1
s(S'PP'
S'APCP'
tp996
F1
s(S'AP'
S'AADVADP'
tp997
F1
s(S'NP'
S'AANAAP'
tp998
F1
s(S'AP'
S'ADVADDP'
tp999
F5
s(S'DP'
S'ADVADVDADVADVADVPPPP'
tp1000
F1
s(S'DP'
p1001
S'AADPP'
tp1002
F22
s(S'VP'
p1003
S'VVVAAP'
tp1004
F3
s(S'PP'
S'APPNP'
tp1005
F1
s(S'AP'
S'ADVAADVADVADVVP'
tp1006
F1
s(S'VP'
S'VVNNNNNP'
tp1007
F1
s(g666
S'ADVADVADVVAAP'
tp1008
F1
s(g210
S'VVVVCP'
tp1009
F6
s(S'DP'
S'DAAAANP'
tp1010
F1
s(S'VP'
S'VAAANNP'
tp1011
F2
s(S'NP'
S'NNNP'
tp1012
F2
s(S'PP'
S'PAANNP'
tp1013
F2
s(S'AP'
S'AADVADVVP'
tp1014
F2
s(S'MP'
S'MDVVVVP'
tp1015
F1
s(S'PP'
S'AAPDP'
tp1016
F17
s(g299
S'ANVVVP'
tp1017
F10
s(S'DP'
S'DADVADVAP'
tp1018
F2
s(S'DP'
S'ADVVP'
tp1019
F4
s(S'CP'
S'CDDADVPPP'
tp1020
F2
s(S'NP'
S'AAANCP'
tp1021
F2
s(S'DP'
S'ADVDNNP'
tp1022
F2
s(S'PP'
S'ADVADVADVADVPPNNP'
tp1023
F1
s(S'CP'
S'ACDDP'
tp1024
F7
s(S'NP'
S'ADVADVNNCP'
tp1025
F2
s(S'DP'
S'DDDDDPP'
tp1026
F2
s(S'AP'
S'AADVADVDDP'
tp1027
F3
s(S'CP'
S'CCCADP'
tp1028
F3
s(S'NP'
S'ADVADVADVNNAP'
tp1029
F1
s(S'VP'
S'VVCCP'
tp1030
F14
s(S'NP'
S'NADVADVADVADVVP'
tp1031
F1
s(g622
S'PPPADVADVPPP'
tp1032
F1
s(S'VP'
S'ADVADVVVADVADVAP'
tp1033
F1
s(S'PP'
S'PADVMP'
tp1034
F2
s(S'VP'
S'VVVVNNP'
tp1035
F3
s(S'DP'
S'DADVADVNP'
tp1036
F1
s(S'VP'
S'VADVADP'
tp1037
F2
s(S'AP'
S'ADVANNP'
tp1038
F2
s(S'VP'
S'VVVCCP'
tp1039
F1
s(S'NP'
S'NAPP'
tp1040
F34
s(S'PP'
S'APPVP'
tp1041
F2
s(S'AP'
S'ADVADVADP'
tp1042
F1
s(S'NP'
p1043
S'NADVDP'
tp1044
F2
s(S'MP'
S'MVADVADVAP'
tp1045
F1
s(S'VP'
S'VVVCP'
tp1046
F15
s(S'PP'
S'APDDDP'
tp1047
F1
s(S'CP'
S'ADVADVCADP'
tp1048
F1
s(S'PP'
S'PADVAPP'
tp1049
F2
s(S'DP'
S'DAMP'
tp1050
F1
s(S'NP'
S'AANPP'
tp1051
F11
s(S'DP'
S'DDAAAPP'
tp1052
F1
s(S'NP'
S'NNMP'
tp1053
F62
s(S'DP'
S'DDDVP'
tp1054
F12
s(g242
S'AAVPP'
tp1055
F4
s(S'MP'
S'MNVP'
tp1056
F19
s(g12
S'CADDPP'
tp1057
F2
s(S'PP'
p1058
S'PAAAP'
tp1059
F9
s(S'PP'
S'ADVADVPNP'
tp1060
F7
s(g1003
S'VVVDDP'
tp1061
F4
s(S'CP'
S'CDDAPP'
tp1062
F8
s(S'VP'
S'VVVPPP'
tp1063
F5
s(S'NP'
S'ANAP'
tp1064
F16
s(S'MP'
S'MVAP'
tp1065
F61
s(S'PP'
S'AAPADVADVDDP'
tp1066
F1
s(S'PP'
S'PVP'
tp1067
F1169
s(g415
S'VADVPPP'
tp1068
F4
s(S'PP'
S'AAPADVADVDP'
tp1069
F1
s(g1058
S'PPADVAP'
tp1070
F4
s(S'DP'
S'DADVAVP'
tp1071
F1
s(S'AP'
S'ADVADVAPP'
tp1072
F10
s(S'VP'
S'ADVVAADP'
tp1073
F1
s(S'PP'
S'PPADVVVP'
tp1074
F3
s(S'CP'
S'CDDDADVADVPPP'
tp1075
F1
s(g23
S'VADVCCP'
tp1076
F7
s(S'NP'
S'ADVAAANVP'
tp1077
F1
s(S'AP'
S'AADVDDP'
tp1078
F6
s(S'VP'
S'VPPPP'
tp1079
F10
s(S'VP'
S'ADVADVADVVVP'
tp1080
F1
s(S'AP'
S'ADVAACP'
tp1081
F6
s(S'NP'
S'ADVNAVP'
tp1082
F3
s(S'NP'
S'ADVAANVP'
tp1083
F1
s(S'NP'
S'ANNCP'
tp1084
F9
s(S'VP'
S'VAPP'
tp1085
F25
s(S'NP'
S'ADVNNAP'
tp1086
F1
s(g835
S'ADVADVPPDP'
tp1087
F1
s(S'MP'
S'MVADVNP'
tp1088
F1
s(S'VP'
S'VCCCCP'
tp1089
F1
s(S'DP'
S'ADVADVADVDNP'
tp1090
F2
s(S'NP'
S'ADVADVANVP'
tp1091
F2
s(S'VP'
S'VADVADVVVP'
tp1092
F2
s(S'PP'
S'PPDDP'
tp1093
F19
s(g228
S'AVCP'
tp1094
F21
s(g720
S'DDVVVP'
tp1095
F4
s(S'AP'
S'ADVAADVADVVVP'
tp1096
F1
s(S'NP'
S'ADVNNPPP'
tp1097
F1
s(S'DP'
p1098
S'DPP'
tp1099
F2605
s(S'NP'
S'ADVNVP'
tp1100
F60
s(S'DP'
S'DDDVVP'
tp1101
F4
s(g1098
S'DDPP'
tp1102
F384
s(S'DP'
S'DDADVPPP'
tp1103
F3
s(S'DP'
S'DDAVP'
tp1104
F4
s(g133
S'DANP'
tp1105
F268
s(S'NP'
S'ADVADVNAP'
tp1106
F1
s(g727
S'NADVPP'
tp1107
F8
s(S'PP'
S'ADVPPVVP'
tp1108
F1
s(S'PP'
S'PPPMP'
tp1109
F1
s(S'CP'
S'CADADVADVADVPPP'
tp1110
F1
s(S'MP'
S'MAAAP'
tp1111
F1
s(S'DP'
p1112
S'DDAAAANP'
tp1113
F1
s(S'NP'
S'NADVADP'
tp1114
F1
s(S'MP'
S'MMAP'
tp1115
F1
s(S'VP'
S'ADVADVADVVPPP'
tp1116
F1
s(S'PP'
S'ADVADVADVPPDP'
tp1117
F1
s(S'NP'
S'AANADVVP'
tp1118
F2
s(S'NP'
S'NAAVP'
tp1119
F6
s(S'DP'
S'ADNNNP'
tp1120
F1
s(S'MP'
S'MADVADVAVP'
tp1121
F1
s(g590
S'PDDDP'
tp1122
F11
s(S'CP'
S'CADVADVADVDPP'
tp1123
F2
s(S'AP'
S'AAAAPP'
tp1124
F1
s(S'VP'
S'VADVCP'
tp1125
F19
s(S'PP'
S'PPPVVP'
tp1126
F3
s(S'NP'
S'NNNNAP'
tp1127
F1
s(S'PP'
S'PMMMP'
tp1128
F1
s(S'NP'
S'NNNNCP'
tp1129
F1
s(S'NP'
S'AANNADVVVP'
tp1130
F1
s(S'NP'
S'NADVCCP'
tp1131
F6
s(S'MP'
S'MADVVVPP'
tp1132
F2
s(S'NP'
S'NNAACP'
tp1133
F1
s(S'AP'
p1134
S'ADVAAPPPPP'
tp1135
F1
s(S'AP'
S'ADVAADVADVVP'
tp1136
F1
s(S'NP'
S'NNNVVP'
tp1137
F10
s(S'NP'
S'NNVVVVVP'
tp1138
F1
s(g113
S'PADVPPP'
tp1139
F10
s(S'CP'
S'AACDDDP'
tp1140
F1
s(S'VP'
S'VADVADVNP'
tp1141
F5
s(S'DP'
S'DCCP'
tp1142
F15
s(S'PP'
S'ADVADVPPP'
tp1143
F1
s(S'AP'
S'AADDDDP'
tp1144
F1
s(S'CP'
S'CDPPPPP'
tp1145
F9
s(S'MP'
S'MADVVDP'
tp1146
F29
s(S'VP'
S'VVVAP'
tp1147
F12
s(S'VP'
S'VVADVADVNNP'
tp1148
F1
s(S'PP'
S'PDDP'
tp1149
F108
s(S'AP'
S'ADVADVADVADVAVP'
tp1150
F1
s(g674
S'ADVACCCP'
tp1151
F1
s(S'MP'
S'MVDDP'
tp1152
F8
s(g919
S'PCCP'
tp1153
F10
s(S'PP'
S'ADVAPNP'
tp1154
F3
s(S'NP'
p1155
S'ADVANADVVVP'
tp1156
F1
s(S'NP'
S'NNNADVPP'
tp1157
F1
s(S'NP'
S'NNNADVVP'
tp1158
F2
s(S'NP'
S'AAAANCP'
tp1159
F1
s(S'NP'
S'NNVP'
tp1160
F297
s(S'NP'
S'ADVANVVVP'
tp1161
F1
s(g41
S'PADVADVADVDP'
tp1162
F2
s(S'AP'
S'AADVADVCP'
tp1163
F1
s(S'PP'
S'APPPPP'
tp1164
F1
s(S'AP'
S'ADVADVACP'
tp1165
F6
s(S'VP'
S'AVDP'
tp1166
F88
s(S'NP'
S'NNP'
tp1167
F2
s(S'VP'
S'VVDDP'
tp1168
F20
s(S'DP'
S'DDADVAAP'
tp1169
F1
s(S'DP'
S'DAANP'
tp1170
F45
s(S'DP'
S'DVVVVP'
tp1171
F3
s(S'AP'
S'ADDP'
tp1172
F133
s(S'VP'
S'ADVADVADVVNNP'
tp1173
F1
s(S'VP'
p1174
S'ADVADVVVADVDP'
tp1175
F2
s(S'NP'
S'AAAANNAP'
tp1176
F1
s(S'VP'
S'ADVVVAP'
tp1177
F13
s(S'PP'
S'ADVPPNP'
tp1178
F24
s(g467
S'VADVADVADVVP'
tp1179
F7
s(S'NP'
S'ADVADVNVVP'
tp1180
F1
s(S'NP'
S'ADVNCCCP'
tp1181
F1
s(S'DP'
S'DADVADVADVADVPPP'
tp1182
F2
s(g436
S'ADVADVNNMP'
tp1183
F1
s(S'CP'
S'CADVADVDPP'
tp1184
F21
s(g849
S'ADVVVVAP'
tp1185
F1
s(g133
S'DPPP'
tp1186
F382
s(S'DP'
S'DAVVP'
tp1187
F1
s(S'DP'
S'AADPPP'
tp1188
F3
s(S'CP'
S'ADVADVADVCCDP'
tp1189
F1
s(S'VP'
S'VANNP'
tp1190
F3
s(S'NP'
S'NNAVP'
tp1191
F7
s(S'PP'
S'ADVPADVADVVP'
tp1192
F1
s(S'DP'
S'DDNNP'
tp1193
F17
s(S'AP'
S'AVVP'
tp1194
F28
s(S'NP'
S'NNNADVVVP'
tp1195
F3
s(S'VP'
S'AVVDDDP'
tp1196
F1
s(S'PP'
S'ADVPNP'
tp1197
F53
s(g51
S'PPDP'
tp1198
F120
s(S'MP'
S'MAVDP'
tp1199
F11
s(S'CP'
S'CCDDDDDP'
tp1200
F2
s(g276
S'ADVADVADVPVP'
tp1201
F2
s(S'DP'
S'ADVDCP'
tp1202
F3
s(S'PP'
S'PPPAAP'
tp1203
F1
s(g846
S'ADVADVAACP'
tp1204
F2
s(S'PP'
S'APPPP'
tp1205
F4
s(S'PP'
S'ADVADVPVVP'
tp1206
F1
s(S'NP'
S'NNNNPP'
tp1207
F2
s(S'AP'
S'AAPPP'
tp1208
F1
s(S'AP'
S'AAVVVVP'
tp1209
F1
s(g321
S'DDCP'
tp1210
F4
s(S'CP'
S'CCADVADVDDP'
tp1211
F1
s(g302
S'ADVVAP'
tp1212
F42
s(S'NP'
S'ANADVADVVP'
tp1213
F1
s(S'NP'
S'NNADVADVAPP'
tp1214
F1
s(S'VP'
S'VMMMP'
tp1215
F1
s(S'AP'
p1216
S'AAAPP'
tp1217
F6
s(S'MP'
S'MADVADP'
tp1218
F1
s(S'MP'
S'MMAVP'
tp1219
F2
s(S'NP'
S'NNADVADP'
tp1220
F1
s(g100
S'NAP'
tp1221
F346
s(S'NP'
S'NNAAP'
tp1222
F5
s(g495
S'ADVADVPPPP'
tp1223
F1
s(S'DP'
S'AAADNP'
tp1224
F1
s(S'NP'
S'NPPPP'
tp1225
F4
s(S'VP'
S'ADVAVNP'
tp1226
F2
s(g228
S'ADVADVADVADVVVPP'
tp1227
F1
s(S'VP'
p1228
S'VVP'
tp1229
F164
s(S'MP'
S'ADVMNP'
tp1230
F2
s(S'VP'
S'VVVDDDP'
tp1231
F1
s(S'DP'
S'DDAPP'
tp1232
F13
s(S'PP'
S'ADVADVPVP'
tp1233
F2
s(S'MP'
S'MAPP'
tp1234
F2
s(g874
S'APNP'
tp1235
F64
s(S'VP'
S'VVVNNP'
tp1236
F7
s(S'VP'
S'VADVADVADVADVAP'
tp1237
F1
s(S'AP'
S'AADVADVPP'
tp1238
F2
s(S'DP'
S'DDVVP'
tp1239
F15
s(S'AP'
S'AAADDP'
tp1240
F4
s(g1228
S'VVVNP'
tp1241
F64
s(S'PP'
S'PPPANNP'
tp1242
F1
s(S'NP'
S'ADVADVANMP'
tp1243
F1
s(S'VP'
S'VAAPPP'
tp1244
F1
s(S'CP'
S'ADVADVADVCADP'
tp1245
F1
s(S'CP'
S'CDDAAAPP'
tp1246
F1
s(S'NP'
S'NNADVPP'
tp1247
F1
s(S'MP'
S'MVANP'
tp1248
F9
s(S'AP'
S'AAADDDP'
tp1249
F1
s(g755
S'ADVADVDDPP'
tp1250
F4
s(S'MP'
S'MVNNP'
tp1251
F15
s(S'MP'
S'MADVVPPP'
tp1252
F1
s(g500
S'CDPP'
tp1253
F2125
s(S'MP'
S'MADVADVVDDP'
tp1254
F1
s(S'NP'
S'AAAANNVP'
tp1255
F2
s(S'MP'
S'MMMNP'
tp1256
F1
s(S'CP'
S'ADVADVCCCDP'
tp1257
F1
s(S'NP'
S'NNNNNVP'
tp1258
F1
s(g597
S'ADDDP'
tp1259
F8
s(S'MP'
S'MVADVPP'
tp1260
F1
s(S'NP'
S'NNADVADVVVP'
tp1261
F3
s(S'DP'
S'ADVDVVP'
tp1262
F4
s(S'MP'
S'MMMVP'
tp1263
F1
s(S'DP'
S'ADVADVADVADVDPP'
tp1264
F1
s(S'VP'
S'ADVADVADVVVNNP'
tp1265
F1
s(S'MP'
S'MADVAVP'
tp1266
F1
s(S'VP'
S'VDDDP'
tp1267
F11
s(S'DP'
S'DCCCP'
tp1268
F1
s(S'CP'
S'ADVCDP'
tp1269
F61
s(S'AP'
S'ADVAAP'
tp1270
F6
s(g230
S'ADVADVVNP'
tp1271
F21
s(S'PP'
S'PPPADVANP'
tp1272
F1
s(S'PP'
p1273
S'ADVADVAPDDP'
tp1274
F1
s(g312
S'NNNNPPP'
tp1275
F2
s(S'DP'
S'DADVADVAVP'
tp1276
F1
s(S'PP'
S'PADVADVDP'
tp1277
F3
s(S'VP'
S'ADVADVVCP'
tp1278
F6
s(S'VP'
S'VADVADVDP'
tp1279
F4
s(g104
S'PPNNP'
tp1280
F32
s(S'PP'
S'PPPNNP'
tp1281
F4
s(g367
S'ADVAPPP'
tp1282
F4
s(S'PP'
S'PADVCP'
tp1283
F3
s(S'PP'
S'PPMP'
tp1284
F5
s(S'NP'
S'NNNAACP'
tp1285
F1
s(S'PP'
S'PADVADVADVVVP'
tp1286
F3
s(g983
S'ADVADVDPP'
tp1287
F24
s(g744
S'VDP'
tp1288
F1418
s(S'NP'
S'ADVNVVVP'
tp1289
F1
s(S'NP'
S'NADVAP'
tp1290
F16
s(S'VP'
S'AVDDP'
tp1291
F13
s(S'PP'
S'ADVADVPPNNP'
tp1292
F2
s(S'DP'
S'DADVNP'
tp1293
F18
s(g1001
S'DAP'
tp1294
F206
s(S'CP'
S'CADPP'
tp1295
F116
s(S'NP'
S'NADVAVP'
tp1296
F2
s(S'PP'
S'PPAVP'
tp1297
F4
s(S'NP'
S'ADVNMMP'
tp1298
F2
s(S'VP'
S'VVDDDDP'
tp1299
F1
s(g66
S'MADVADVVDP'
tp1300
F6
s(S'PP'
S'PPDDDP'
tp1301
F1
s(S'VP'
S'AVPP'
tp1302
F30
s(S'NP'
S'NADVADVMP'
tp1303
F2
s(S'CP'
S'CAADPPP'
tp1304
F1
s(S'DP'
S'DDNNNNP'
tp1305
F2
s(S'MP'
S'MMADVADVADVVP'
tp1306
F1
s(S'MP'
S'MVVADVNP'
tp1307
F1
s(S'VP'
S'VVVACP'
tp1308
F1
s(S'PP'
S'PPADVADVDDP'
tp1309
F1
s(S'NP'
S'ADVNAPP'
tp1310
F1
s(S'CP'
S'CDPPPP'
tp1311
F27
s(S'VP'
S'VADVADVCCP'
tp1312
F2
s(S'VP'
S'AAVDP'
tp1313
F18
s(S'PP'
S'APVVVVP'
tp1314
F1
s(S'MP'
S'MVNNNP'
tp1315
F1
s(S'NP'
S'ADVANMP'
tp1316
F2
s(S'PP'
S'ADVADVADVPPNNP'
tp1317
F1
s(S'NP'
p1318
S'NNDDP'
tp1319
F8
s(S'DP'
S'ADPPPP'
tp1320
F1
s(g971
S'DAPPP'
tp1321
F5
s(S'DP'
S'DADVADVPP'
tp1322
F13
s(S'DP'
S'DMP'
tp1323
F25
s(g798
S'ADVDPP'
tp1324
F111
s(g620
S'NADVAPP'
tp1325
F2
s(S'VP'
S'VAVP'
tp1326
F4
s(S'PP'
S'PPAANP'
tp1327
F1
s(S'NP'
S'AAANPP'
tp1328
F3
s(g164
S'PADVADVNP'
tp1329
F10
s(S'VP'
S'ADVADVVAP'
tp1330
F6
s(S'AP'
S'AADP'
tp1331
F208
s(S'MP'
S'MVAPP'
tp1332
F2
s(g1043
S'NNADVVVP'
tp1333
F5
s(S'NP'
S'NADVANP'
tp1334
F2
s(g1174
S'VADVPP'
tp1335
F12
s(S'PP'
S'PADVADVADVADVVVP'
tp1336
F1
s(S'DP'
S'ADVDANP'
tp1337
F4
s(S'CP'
S'CCADVDDP'
tp1338
F3
s(S'PP'
S'PVVVVP'
tp1339
F4
s(g106
S'ADVPVP'
tp1340
F37
s(S'DP'
S'DDDDPP'
tp1341
F9
s(S'CP'
S'ADVADVADVCDDP'
tp1342
F1
s(S'VP'
S'ADVVADVACP'
tp1343
F1
s(S'VP'
S'ADVVANP'
tp1344
F6
s(S'VP'
S'ADVADVVAANP'
tp1345
F1
s(S'PP'
S'PAMP'
tp1346
F3
s(g184
S'ADVPDP'
tp1347
F19
s(S'PP'
S'PAAVP'
tp1348
F8
s(S'VP'
S'ADVVADP'
tp1349
F2
s(S'NP'
S'ANNPP'
tp1350
F6
s(S'MP'
S'MVADVAP'
tp1351
F14
s(g477
S'NCP'
tp1352
F1246
s(S'VP'
S'ADVADVVVPP'
tp1353
F6
s(S'CP'
S'CADVDPPP'
tp1354
F6
s(S'VP'
S'ADVVVPP'
tp1355
F20
s(g1273
S'PPADVNNP'
tp1356
F1
s(S'PP'
S'AAAPNP'
tp1357
F1
s(S'AP'
S'AAAADP'
tp1358
F3
s(S'DP'
S'DDADVVVP'
tp1359
F1
s(g1134
S'AAAP'
tp1360
F9
s(S'CP'
S'CDDADVADVPP'
tp1361
F3
s(g973
S'VAADP'
tp1362
F7
s(g330
S'AAMP'
tp1363
F5
s(g76
S'VADVADVADVDP'
tp1364
F1
s(S'PP'
S'PPAAAP'
tp1365
F2
s(S'PP'
S'ADVPDDP'
tp1366
F3
s(S'DP'
S'AADADVPP'
tp1367
F1
s(S'VP'
S'AAVVDP'
tp1368
F1
s(S'NP'
S'AANDP'
tp1369
F6
s(S'DP'
S'ADVADVADVADVDDPP'
tp1370
F1
s(S'MP'
S'MVCCP'
tp1371
F4
s(S'DP'
S'DADVNNP'
tp1372
F2
s(S'CP'
S'CCCDP'
tp1373
F16
s(S'NP'
S'NNCCP'
tp1374
F37
s(S'VP'
S'ADVADVADVADVVAP'
tp1375
F2
s(g1155
S'AANAP'
tp1376
F3
s(S'CP'
S'ADVADVCCDP'
tp1377
F2
s(S'NP'
S'AANCCP'
tp1378
F5
s(S'DP'
S'AADDNNP'
tp1379
F1
s(S'NP'
S'NPPPPP'
tp1380
F1
s(S'MP'
S'MADVVANP'
tp1381
F1
s(S'NP'
S'NNNNNAANP'
tp1382
F1
s(g1228
S'ADVVDP'
tp1383
F105
s(S'DP'
S'DDADVADVADVPP'
tp1384
F1
s(S'PP'
S'APADVNP'
tp1385
F2
s(S'DP'
S'DADVPP'
tp1386
F85
s(g86
S'AMP'
tp1387
F32
s(S'CP'
S'CCADP'
tp1388
F14
s(S'NP'
S'ADVNNCP'
tp1389
F4
s(S'DP'
S'ADVDAP'
tp1390
F1
s(S'PP'
S'ADVADVADVPNP'
tp1391
F2
s(S'NP'
S'NNNPPP'
tp1392
F1
s(g1216
S'ADVAPP'
tp1393
F49
s(S'DP'
S'DDADVAPP'
tp1394
F2
s(S'CP'
S'CDDADVAPP'
tp1395
F2
s(S'NP'
S'ADVANADVADVCP'
tp1396
F1
s(g569
S'ADVDAVP'
tp1397
F1
s(S'NP'
S'AAANDP'
tp1398
F2
s(S'AP'
S'ADVADVANP'
tp1399
F1
s(S'CP'
S'AACDP'
tp1400
F9
s(S'NP'
S'NNNCCP'
tp1401
F5
s(S'CP'
S'CCDDDP'
tp1402
F9
s(S'MP'
S'MADVADVVNNP'
tp1403
F1
s(S'DP'
S'ADVDPPP'
tp1404
F10
s(g1112
S'DVP'
tp1405
F1282
s(g1318
S'NADVADVADVADVVVP'
tp1406
F3
s(S'NP'
S'ADVNPP'
tp1407
F3
s(S'VP'
S'ADVADVADVVVNP'
tp1408
F6
s(S'CP'
S'CDADVADVADVADVPPP'
tp1409
F2
s(S'NP'
S'NNCCCP'
tp1410
F2
s(S'PP'
S'PADVADVDDP'
tp1411
F1
s(g330
S'AVP'
tp1412
F144
s(g200
S'NADVVP'
tp1413
F96
s(S'MP'
S'MDDDNP'
tp1414
F1
s(S'NP'
S'NNNMP'
tp1415
F8
s(S'VP'
S'ADVVPPP'
tp1416
F2
s(g32
S'DDPPP'
tp1417
F42
s(S'AP'
S'AAAAADDP'
tp1418
F1
s(S'NP'
S'ADVNMP'
tp1419
F31
s(g639
S'NNAP'
tp1420
F25
s(S'VP'
S'VADVADVNNP'
tp1421
F1
s(S'NP'
S'NNADVPPP'
tp1422
F1
s(S'MP'
S'MADVVCP'
tp1423
F6
s(S'PP'
S'PPANP'
tp1424
F9
s(S'MP'
S'MCDDP'
tp1425
F2
s(S'VP'
S'AAAVNP'
tp1426
F1
s(S'NP'
S'ADVNAAAP'
tp1427
F1
s(S'CP'
S'CDADVPP'
tp1428
F50
s(S'VP'
S'VNP'
tp1429
F1276
s(S'VP'
S'ADVADVADVADVVVDP'
tp1430
F1
s(S'VP'
S'VANP'
tp1431
F73
s(S'VP'
S'VADVAP'
tp1432
F115
s(S'NP'
S'ANADVAP'
tp1433
F2
s(S'DP'
S'DDDANP'
tp1434
F1
s(S'PP'
S'PPADVNP'
tp1435
F7
s(S'PP'
S'AAPVVVP'
tp1436
F1
s(S'DP'
S'DDDDVP'
tp1437
F2
s(S'VP'
S'ADVADVVVDP'
tp1438
F10
s(S'MP'
S'MADVVAAP'
tp1439
F1
s(S'VP'
S'ADVADVVVAAP'
tp1440
F1
s(g963
S'NADVPPP'
tp1441
F5
s.