ccollections
defaultdict
p1
(c__builtin__
float
p2
tRp3
(S'DP'
S'DDAP'
tp4
F1
s(S'DP'
S'DAANNP'
tp5
F1
s(S'PP'
p6
S'PAPP'
tp7
F4
s(S'DP'
S'DADVADVADVAP'
tp8
F1
s(S'PP'
S'PADVNP'
tp9
F5
s(S'DP'
p10
S'DNP'
tp11
F228
s(S'CP'
S'CDPPP'
tp12
F20
s(S'VP'
S'VADP'
tp13
F1
s(S'DP'
S'DNNNNP'
tp14
F2
s(S'DP'
S'DAAP'
tp15
F2
s(S'VP'
p16
S'VAVP'
tp17
F1
s(S'VP'
S'ADVADVADVVVPP'
tp18
F1
s(S'VP'
S'ADVVNP'
tp19
F6
s(S'MP'
S'MVDP'
tp20
F11
s(S'PP'
S'PADVANP'
tp21
F1
s(S'PP'
p22
S'PPPP'
tp23
F12
s(S'DP'
S'DDDNP'
tp24
F3
s(S'MP'
S'MMADVVP'
tp25
F1
s(S'AP'
S'AAAVP'
tp26
F1
s(S'PP'
S'PPAAP'
tp27
F1
s(S'NP'
p28
S'NNADVADVADVPPP'
tp29
F1
s(S'NP'
S'NCCCP'
tp30
F2
s(S'VP'
S'VCP'
tp31
F75
s(S'NP'
S'NMMP'
tp32
F2
s(S'NP'
p33
S'AAAANPP'
tp34
F2
s(S'PP'
p35
S'PAP'
tp36
F56
s(S'CP'
S'CDADVADVADVPP'
tp37
F1
s(S'PP'
S'ADVPPVP'
tp38
F1
s(S'NP'
S'NNNNVVVP'
tp39
F1
s(S'PP'
p40
S'PNP'
tp41
F193
s(S'DP'
S'DDP'
tp42
F9
s(S'VP'
S'ADVADVAVADVDP'
tp43
F1
s(S'VP'
S'ADVVDDP'
tp44
F1
s(S'NP'
S'NNNPP'
tp45
F3
s(S'VP'
p46
S'VCCP'
tp47
F8
s(S'MP'
S'MCDP'
tp48
F1
s(S'DP'
S'DDDDPPPP'
tp49
F1
s(S'NP'
p50
S'NMP'
tp51
F57
s(S'MP'
p52
S'MPADVVP'
tp53
F1
s(S'NP'
S'AAAAANVP'
tp54
F1
s(S'PP'
S'PDP'
tp55
F210
s(S'CP'
S'CDADVADVPP'
tp56
F2
s(S'VP'
S'VVVDDP'
tp57
F1
s(S'MP'
p58
S'MADVVNP'
tp59
F1
s(S'NP'
S'NADVADVADVVP'
tp60
F2
s(S'VP'
S'AAVPP'
tp61
F1
s(S'DP'
S'DPPPP'
tp62
F6
s(S'DP'
p63
S'DDANP'
tp64
F3
s(S'NP'
S'NACP'
tp65
F5
s(S'NP'
p66
S'NCCP'
tp67
F27
s(S'NP'
S'NNCP'
tp68
F25
s(S'DP'
p69
S'ADVDDPP'
tp70
F2
s(S'NP'
S'NADVADVVP'
tp71
F1
s(S'VP'
p72
S'AVNP'
tp73
F2
s(S'VP'
S'ADVADVVVADVPP'
tp74
F1
s(S'PP'
S'ADVAPDP'
tp75
F1
s(S'VP'
p76
S'VADVVP'
tp77
F1
s(g46
S'ADVADVADVVNP'
tp78
F1
s(g28
S'ANADVVP'
tp79
F1
s(S'CP'
S'CCCDP'
tp80
F1
s(S'DP'
S'DADVADVADVADVPP'
tp81
F1
s(g72
S'ADVVNNP'
tp82
F2
s(S'VP'
S'VVADVADVVP'
tp83
F1
s(g72
S'VVANP'
tp84
F4
s(S'PP'
S'ADVPNNP'
tp85
F1
s(S'CP'
S'CADADVPPP'
tp86
F1
s(S'DP'
S'DADVADVADVPP'
tp87
F2
s(S'NP'
p88
S'ADVNCP'
tp89
F1
s(S'PP'
p90
S'PAAP'
tp91
F9
s(S'NP'
S'NANP'
tp92
F2
s(S'DP'
S'DNNP'
tp93
F35
s(S'CP'
S'CADVDDPP'
tp94
F1
s(S'CP'
S'CDDPPPP'
tp95
F1
s(S'VP'
p96
S'ADVADVADVVVDP'
tp97
F1
s(S'VP'
S'AAVDDP'
tp98
F1
s(S'NP'
S'NNNVP'
tp99
F2
s(S'AP'
S'AAAAAAP'
tp100
F1
s(S'PP'
S'PADVVP'
tp101
F3
s(S'PP'
S'APAP'
tp102
F1
s(S'AP'
S'APP'
tp103
F30
s(S'NP'
S'AAANNPP'
tp104
F1
s(g50
S'NADVMP'
tp105
F2
s(S'AP'
S'AADVADVADVDP'
tp106
F1
s(S'VP'
p107
S'VADVADVVP'
tp108
F2
s(S'CP'
S'CADVADPP'
tp109
F1
s(S'AP'
p110
S'AADVADVVVP'
tp111
F1
s(S'DP'
S'DAAVP'
tp112
F1
s(S'MP'
S'MVVVNP'
tp113
F1
s(S'PP'
S'PAANP'
tp114
F2
s(S'NP'
p115
S'ANVP'
tp116
F21
s(S'MP'
S'MVNP'
tp117
F14
s(S'CP'
S'CDDDDPPPP'
tp118
F1
s(S'DP'
p119
S'ADVADNP'
tp120
F1
s(S'AP'
S'ADVADVADVANNP'
tp121
F1
s(S'PP'
S'PAVP'
tp122
F7
s(S'MP'
S'ADVMVP'
tp123
F1
s(S'VP'
p124
S'VVVPP'
tp125
F6
s(S'AP'
S'ADVACCP'
tp126
F1
s(S'DP'
p127
S'DADP'
tp128
F3
s(S'AP'
S'ADVADP'
tp129
F2
s(S'PP'
S'APDDP'
tp130
F1
s(S'MP'
S'MVAAAAP'
tp131
F1
s(S'PP'
S'APVP'
tp132
F10
s(S'VP'
p133
S'VVNP'
tp134
F25
s(S'VP'
S'VVVCP'
tp135
F2
s(g6
S'PPVP'
tp136
F10
s(S'VP'
S'VADVDP'
tp137
F3
s(S'MP'
S'MVVVPP'
tp138
F1
s(S'VP'
S'VAAP'
tp139
F12
s(S'NP'
S'ANDP'
tp140
F7
s(S'NP'
p141
S'NVVP'
tp142
F49
s(S'AP'
S'AAP'
tp143
F4
s(S'VP'
p144
S'VMP'
tp145
F3
s(S'VP'
S'VVNNP'
tp146
F2
s(S'CP'
S'CDAPP'
tp147
F9
s(S'VP'
S'VVAAP'
tp148
F2
s(S'DP'
S'ADVADVP'
tp149
F1
s(S'DP'
S'ADVADVDDVP'
tp150
F2
s(S'DP'
p151
S'ADNP'
tp152
F4
s(S'PP'
S'PADP'
tp153
F4
s(S'VP'
S'ADVVVCP'
tp154
F2
s(S'NP'
S'ANDDP'
tp155
F1
s(S'DP'
S'ADVADVDVP'
tp156
F1
s(S'DP'
S'DADVAP'
tp157
F3
s(S'DP'
S'DAPP'
tp158
F14
s(S'VP'
S'ADVADVVPP'
tp159
F1
s(S'MP'
S'MADVADVVNP'
tp160
F1
s(g107
S'ADVADVVDP'
tp161
F1
s(S'PP'
S'PPPDP'
tp162
F2
s(S'PP'
S'AAAPDP'
tp163
F1
s(S'DP'
S'ADVDNP'
tp164
F1
s(g144
S'VVPP'
tp165
F19
s(S'CP'
S'CDDPP'
tp166
F32
s(S'DP'
S'DADVVP'
tp167
F4
s(S'PP'
S'PAVVP'
tp168
F1
s(S'MP'
p169
S'MVPP'
tp170
F4
s(g119
S'ADVP'
tp171
F3
s(S'CP'
S'CDDPPP'
tp172
F4
s(g169
S'ADVMVVP'
tp173
F1
s(S'NP'
S'NNPP'
tp174
F24
s(S'CP'
S'CAADPPPP'
tp175
F1
s(S'MP'
p176
S'MVVDP'
tp177
F2
s(S'AP'
S'AACP'
tp178
F4
s(S'PP'
S'PPVVP'
tp179
F1
s(S'DP'
S'DNNNP'
tp180
F2
s(S'DP'
S'ADVDDVP'
tp181
F1
s(S'VP'
S'VADVDDP'
tp182
F1
s(S'NP'
S'AAAANDP'
tp183
F1
s(S'PP'
S'PMP'
tp184
F2
s(S'CP'
p185
S'CCDP'
tp186
F47
s(S'VP'
S'VADVANP'
tp187
F1
s(S'NP'
S'NVVVP'
tp188
F13
s(S'CP'
S'CDDDPP'
tp189
F1
s(S'CP'
S'CDAAPP'
tp190
F6
s(g16
S'VVVDP'
tp191
F6
s(S'PP'
S'PNNNP'
tp192
F6
s(S'CP'
S'CCCCDP'
tp193
F1
s(S'NP'
p194
S'ANMMP'
tp195
F1
s(S'PP'
S'AAPNP'
tp196
F1
s(g22
S'PPP'
tp197
F25
s(S'NP'
p198
S'NAVP'
tp199
F6
s(S'PP'
S'PADVAP'
tp200
F2
s(S'DP'
p201
S'ADVDVP'
tp202
F5
s(S'NP'
S'NAAAP'
tp203
F1
s(S'NP'
p204
S'NADVVVP'
tp205
F4
s(S'DP'
S'DAAAP'
tp206
F1
s(g185
S'CADPP'
tp207
F8
s(g133
S'VPP'
tp208
F116
s(g151
S'ADVDDNP'
tp209
F1
s(S'NP'
S'NNNCP'
tp210
F1
s(S'PP'
S'PADVDP'
tp211
F1
s(S'CP'
S'CDADVAPP'
tp212
F1
s(S'NP'
S'AAAANVP'
tp213
F1
s(S'DP'
S'DAAPP'
tp214
F7
s(S'PP'
p215
S'PVVP'
tp216
F16
s(S'DP'
p217
S'DADVPPP'
tp218
F1
s(S'VP'
S'ADVVCP'
tp219
F2
s(g96
S'VPPP'
tp220
F12
s(S'PP'
S'PPADVADVDP'
tp221
F1
s(S'VP'
S'VVPPP'
tp222
F1
s(S'PP'
S'PPAP'
tp223
F3
s(S'DP'
p224
S'DVVP'
tp225
F29
s(S'NP'
S'NAAP'
tp226
F5
s(S'NP'
S'ADVADVNVP'
tp227
F2
s(S'VP'
S'VVVP'
tp228
F4
s(S'CP'
S'CADVDPP'
tp229
F7
s(S'NP'
p230
S'ANCP'
tp231
F19
s(g224
S'DCP'
tp232
F14
s(S'NP'
S'AAANCP'
tp233
F1
s(S'NP'
S'NNVVVVP'
tp234
F1
s(S'PP'
S'ADVADVADVPPNP'
tp235
F1
s(S'DP'
S'DDDP'
tp236
F2
s(S'NP'
S'ANVVP'
tp237
F3
s(S'VP'
S'VVDP'
tp238
F32
s(g28
S'NPPP'
tp239
F10
s(S'DP'
S'DAVP'
tp240
F5
s(S'VP'
S'ADVADVADVADVVNP'
tp241
F1
s(S'NP'
S'NNNMP'
tp242
F2
s(S'AP'
S'ACP'
tp243
F22
s(S'PP'
p244
S'AAPAP'
tp245
F2
s(g35
S'PPNP'
tp246
F19
s(S'PP'
p247
S'PPPAP'
tp248
F2
s(g69
S'AADVP'
tp249
F1
s(S'NP'
S'NNNNCCP'
tp250
F1
s(S'VP'
S'VVVVNNP'
tp251
F1
s(S'CP'
S'CCCDDP'
tp252
F1
s(S'AP'
S'ADP'
tp253
F176
s(S'DP'
p254
S'DDAVP'
tp255
F1
s(S'NP'
S'ADVANCCP'
tp256
F1
s(S'DP'
S'DVVVVP'
tp257
F1
s(S'AP'
S'AAADP'
tp258
F8
s(S'PP'
S'PPADVDP'
tp259
F1
s(g72
S'VVAP'
tp260
F10
s(S'VP'
p261
S'VAAAPP'
tp262
F1
s(S'NP'
p263
S'NPP'
tp264
F142
s(g263
S'NVP'
tp265
F337
s(S'PP'
S'PAAVP'
tp266
F3
s(S'NP'
S'NAAPP'
tp267
F1
s(S'VP'
p268
S'VDDP'
tp269
F10
s(S'PP'
S'ADVADVADVADVPNP'
tp270
F1
s(S'DP'
S'DMP'
tp271
F3
s(S'DP'
S'DADVAPP'
tp272
F3
s(S'NP'
S'ANPP'
tp273
F25
s(S'PP'
S'PPPPP'
tp274
F1
s(g52
S'MPDP'
tp275
F1
s(S'MP'
S'MVVPP'
tp276
F1
s(S'DP'
p277
S'ADVDPP'
tp278
F8
s(S'NP'
S'NPPPP'
tp279
F1
s(S'CP'
S'CAADPP'
tp280
F2
s(S'DP'
S'DADVADVVP'
tp281
F1
s(g194
S'NAACP'
tp282
F1
s(S'PP'
p283
S'PNNP'
tp284
F24
s(S'DP'
S'DAAANNP'
tp285
F1
s(S'VP'
S'VVADVADVDDP'
tp286
F1
s(S'MP'
S'MMVP'
tp287
F1
s(S'PP'
S'PADVDDP'
tp288
F1
s(g35
S'PCCP'
tp289
F2
s(S'DP'
p290
S'ADPP'
tp291
F13
s(S'CP'
p292
S'ACDP'
tp293
F6
s(g28
S'NNDP'
tp294
F3
s(S'AP'
S'ADVANP'
tp295
F2
s(g292
S'CDADVPPP'
tp296
F1
s(S'VP'
S'VAP'
tp297
F97
s(S'VP'
S'VVVVNP'
tp298
F2
s(S'DP'
S'DDDPP'
tp299
F1
s(S'VP'
S'VADVMP'
tp300
F1
s(S'VP'
S'ADVADVVVAP'
tp301
F2
s(g277
S'DADVDP'
tp302
F1
s(S'AP'
S'AAACP'
tp303
F1
s(S'CP'
S'CDADVADVADVADVPP'
tp304
F1
s(S'PP'
S'PPPVP'
tp305
F1
s(S'AP'
S'AADDP'
tp306
F2
s(S'VP'
p307
S'VAANP'
tp308
F1
s(S'DP'
S'ADVADVADVDVP'
tp309
F1
s(S'NP'
S'NVVVVP'
tp310
F2
s(S'MP'
S'MADP'
tp311
F1
s(S'AP'
S'AAACCP'
tp312
F1
s(g283
S'PANP'
tp313
F17
s(S'DP'
S'ADVADPP'
tp314
F1
s(S'MP'
S'ADVAMVP'
tp315
F1
s(S'CP'
S'CADVADVADVADVDPP'
tp316
F1
s(S'NP'
S'AANMP'
tp317
F1
s(S'AP'
S'AAVP'
tp318
F1
s(S'AP'
S'AVVP'
tp319
F1
s(S'NP'
S'NDDP'
tp320
F2
s(S'AP'
S'ACCP'
tp321
F6
s(S'VP'
S'VVVVAP'
tp322
F1
s(g141
S'NDP'
tp323
F39
s(S'NP'
S'AAANVP'
tp324
F2
s(g277
S'DDVP'
tp325
F12
s(S'DP'
S'ADADVPPP'
tp326
F1
s(S'NP'
S'AANVP'
tp327
F2
s(S'VP'
S'VNNNP'
tp328
F1
s(S'NP'
S'NNNNVVP'
tp329
F1
s(S'PP'
S'PCP'
tp330
F4
s(S'VP'
S'VADVADP'
tp331
F1
s(S'VP'
S'VPPPP'
tp332
F1
s(S'NP'
S'NNNDP'
tp333
F1
s(S'AP'
S'ADVACP'
tp334
F6
s(S'NP'
S'AANVVVP'
tp335
F1
s(S'VP'
S'AVVDP'
tp336
F1
s(g198
S'NNVP'
tp337
F35
s(S'MP'
S'MVCP'
tp338
F4
s(g263
S'NCP'
tp339
F144
s(S'CP'
S'CCDDP'
tp340
F3
s(S'NP'
S'NNADVVP'
tp341
F3
s(S'DP'
S'DADVADVADVVVP'
tp342
F1
s(S'NP'
S'NNVVP'
tp343
F3
s(S'NP'
S'NNNNVP'
tp344
F1
s(S'VP'
S'VVCP'
tp345
F11
s(g261
S'ADVVVPP'
tp346
F1
s(S'NP'
S'AANCP'
tp347
F1
s(S'VP'
p348
S'VDP'
tp349
F235
s(g215
S'APPP'
tp350
F3
s(S'VP'
S'ADVVPP'
tp351
F4
s(S'VP'
S'VNNP'
tp352
F12
s(S'AP'
S'AADVDP'
tp353
F1
s(S'NP'
S'NADP'
tp354
F1
s(S'DP'
S'DDNP'
tp355
F10
s(S'NP'
S'NADVCP'
tp356
F1
s(S'DP'
S'DDNNP'
tp357
F1
s(S'PP'
p358
S'AAPPP'
tp359
F1
s(g63
S'AADPP'
tp360
F2
s(S'NP'
S'ANVVVP'
tp361
F1
s(g176
S'MVVNP'
tp362
F3
s(S'AP'
S'AADVADVDDP'
tp363
F1
s(S'AP'
S'AAPP'
tp364
F4
s(S'VP'
S'VVCCP'
tp365
F1
s(S'NP'
S'NADVADVADVADVVP'
tp366
F1
s(S'MP'
S'AAAMVP'
tp367
F1
s(g230
S'NNPPP'
tp368
F2
s(g66
S'NAPP'
tp369
F11
s(g358
S'ADVPPPP'
tp370
F1
s(S'NP'
S'ANCCP'
tp371
F2
s(g28
S'AANPP'
tp372
F3
s(g307
S'VDDDP'
tp373
F3
s(g33
S'NNMP'
tp374
F2
s(g217
S'DDDVP'
tp375
F1
s(S'PP'
S'PAAAP'
tp376
F1
s(S'PP'
S'ADVADVPNP'
tp377
F2
s(S'NP'
S'AAAANCP'
tp378
F3
s(S'NP'
S'ANAP'
tp379
F5
s(S'MP'
p380
S'MVAP'
tp381
F7
s(g40
S'PVP'
tp382
F107
s(S'DP'
S'DVVVP'
tp383
F2
s(S'VP'
S'VCCCCP'
tp384
F1
s(S'VP'
S'AVCP'
tp385
F1
s(S'DP'
S'DDVVVP'
tp386
F1
s(g10
S'DPP'
tp387
F297
s(S'NP'
S'ADVNVP'
tp388
F4
s(S'DP'
S'DDPP'
tp389
F45
s(S'DP'
S'DANP'
tp390
F47
s(S'NP'
S'NADVPP'
tp391
F3
s(S'DP'
S'AADPPPP'
tp392
F1
s(g358
S'PDDDP'
tp393
F1
s(S'MP'
S'MDNP'
tp394
F1
s(g201
S'DADVADVAVP'
tp395
F1
s(S'PP'
S'AAPDP'
tp396
F3
s(S'MP'
S'MADVVDP'
tp397
F1
s(S'VP'
S'VVVAP'
tp398
F1
s(S'PP'
S'PDDP'
tp399
F11
s(g58
S'MVDDP'
tp400
F1
s(S'NP'
S'ADVANADVVVP'
tp401
F1
s(g110
S'AADVDDP'
tp402
F1
s(S'AP'
S'ADVADVACP'
tp403
F1
s(S'VP'
S'AVDP'
tp404
F15
s(S'NP'
S'NNP'
tp405
F1
s(S'VP'
S'VVDDP'
tp406
F5
s(S'DP'
S'DAANP'
tp407
F6
s(S'AP'
S'ADDP'
tp408
F9
s(S'VP'
S'ADVADVADVVCP'
tp409
F1
s(S'VP'
S'VADVADVADVVP'
tp410
F1
s(S'CP'
S'CADVADVDPP'
tp411
F1
s(g290
S'DPPP'
tp412
F36
s(S'PP'
S'PNNNNP'
tp413
F1
s(g28
S'NNAVP'
tp414
F1
s(g247
S'ADVPNP'
tp415
F2
s(S'PP'
S'PPDP'
tp416
F18
s(S'PP'
S'ADVADVADVPVP'
tp417
F1
s(S'DP'
p418
S'ADVDCP'
tp419
F1
s(S'DP'
S'DDPPPP'
tp420
F1
s(S'DP'
S'ADVADVADVADVDPP'
tp421
F1
s(S'NP'
S'ANADVADVVP'
tp422
F1
s(S'MP'
S'MADVADP'
tp423
F1
s(S'MP'
S'MMAVP'
tp424
F1
s(S'NP'
S'NAP'
tp425
F35
s(S'VP'
S'VAAAP'
tp426
F2
s(S'VP'
p427
S'ADVVVADVAP'
tp428
F1
s(g268
S'VVP'
tp429
F14
s(g127
S'DADVNP'
tp430
F2
s(S'PP'
S'ADVADVPVP'
tp431
F1
s(S'PP'
S'APNP'
tp432
F7
s(S'VP'
S'VVVNNP'
tp433
F1
s(S'DP'
S'DDVVP'
tp434
F1
s(g427
S'VVVNP'
tp435
F6
s(S'MP'
S'MVNNP'
tp436
F2
s(S'NP'
S'NADVAMP'
tp437
F1
s(S'CP'
S'CDPP'
tp438
F242
s(S'NP'
S'NNADVADVVVP'
tp439
F2
s(S'CP'
S'ADVCDP'
tp440
F1
s(S'PP'
S'AAPVVP'
tp441
F1
s(S'VP'
S'ADVADVVNP'
tp442
F3
s(S'PP'
S'PPNNP'
tp443
F1
s(g418
S'ADVADVDPP'
tp444
F1
s(S'NP'
S'NADVAP'
tp445
F2
s(S'VP'
S'AVDDP'
tp446
F1
s(S'DP'
S'DAP'
tp447
F18
s(S'VP'
S'VAAAAP'
tp448
F1
s(S'PP'
S'PPAVP'
tp449
F2
s(S'VP'
S'AVPP'
tp450
F5
s(S'CP'
S'AACDDP'
tp451
F1
s(S'CP'
S'CDPPPP'
tp452
F5
s(S'VP'
S'AAVDP'
tp453
F2
s(S'VP'
S'ADVADVADVADVVPP'
tp454
F1
s(S'VP'
S'ADVADVVVP'
tp455
F1
s(S'DP'
S'DADVADVPP'
tp456
F3
s(S'NP'
S'AANVVP'
tp457
F2
s(S'PP'
p458
S'PPPNP'
tp459
F3
s(g204
S'AAANPP'
tp460
F1
s(S'MP'
S'MVVVDDP'
tp461
F1
s(S'PP'
S'PADVADVNP'
tp462
F2
s(S'AP'
S'AADP'
tp463
F26
s(S'PP'
S'PPAAVP'
tp464
F1
s(g458
S'ADVPVP'
tp465
F1
s(S'NP'
S'NADVADVADVVVP'
tp466
F1
s(g115
S'NNVVVP'
tp467
F2
s(S'PP'
S'ADVPDP'
tp468
F2
s(S'PP'
S'PPPVVP'
tp469
F1
s(S'AP'
S'AAADVADP'
tp470
F1
s(g22
S'PPAAANP'
tp471
F1
s(S'CP'
S'CADVDPPP'
tp472
F1
s(S'NP'
S'NAAAMP'
tp473
F1
s(S'AP'
S'AAAP'
tp474
F1
s(g88
S'NNCCP'
tp475
F4
s(g380
S'MNVP'
tp476
F9
s(g244
S'PADVADVAP'
tp477
F1
s(S'VP'
S'VAPP'
tp478
F4
s(g76
S'ADVVDP'
tp479
F7
s(g254
S'DADVPP'
tp480
F2
s(S'CP'
S'CCADP'
tp481
F1
s(S'MP'
S'MADVVDDP'
tp482
F1
s(S'PP'
S'ADVADVADVPNP'
tp483
F1
s(S'AP'
S'ADVAPP'
tp484
F4
s(S'CP'
S'AACDP'
tp485
F1
s(S'DP'
S'ADVDPPP'
tp486
F1
s(S'DP'
S'DVP'
tp487
F151
s(S'AP'
S'AVP'
tp488
F10
s(S'NP'
S'NADVVP'
tp489
F4
s(S'DP'
S'DDPPP'
tp490
F5
s(S'NP'
S'ADVNMP'
tp491
F2
s(S'NP'
S'NNAP'
tp492
F2
s(g90
S'PPANP'
tp493
F1
s(S'MP'
S'MCDDP'
tp494
F1
s(S'CP'
S'CDADVPP'
tp495
F1
s(g348
S'VNP'
tp496
F116
s(S'VP'
S'VANP'
tp497
F11
s(g124
S'VADVAP'
tp498
F5
s(S'PP'
S'APDP'
tp499
F12
s(S'VP'
S'ADVADVVVDP'
tp500
F1
s(S'NP'
S'AANNAP'
tp501
F1
s.