ccollections
defaultdict
p1
(c__builtin__
float
p2
tRp3
(S'VP'
S'VVAAAP'
tp4
F1
s(S'DP'
S'ADDPP'
tp5
F2
s(S'NP'
S'ADVNNMP'
tp6
F1
s(S'VP'
S'ADVVVNP'
tp7
F4
s(S'AP'
S'AADDDP'
tp8
F1
s(S'VP'
S'VVVVP'
tp9
F1
s(S'VP'
S'ADVADVADVVVADVAP'
tp10
F1
s(S'NP'
p11
S'NADDP'
tp12
F1
s(S'VP'
S'VVADVVP'
tp13
F1
s(S'PP'
p14
S'PAPP'
tp15
F2
s(S'PP'
p16
S'PADVNP'
tp17
F6
s(S'DP'
p18
S'DNP'
tp19
F218
s(S'CP'
p20
S'CDPPP'
tp21
F25
s(S'VP'
S'AVADVDDP'
tp22
F1
s(S'VP'
S'VADP'
tp23
F12
s(S'AP'
S'ADVAADVCP'
tp24
F1
s(S'DP'
p25
S'DAAP'
tp26
F2
s(S'VP'
S'VAVP'
tp27
F2
s(S'VP'
S'ADVVNP'
tp28
F9
s(S'MP'
S'MVDP'
tp29
F24
s(S'PP'
S'PADVANP'
tp30
F1
s(S'PP'
p31
S'PPPP'
tp32
F8
s(S'AP'
S'ADVAPPP'
tp33
F1
s(S'DP'
S'DDDNP'
tp34
F1
s(S'MP'
S'MMADVVP'
tp35
F1
s(S'VP'
S'VACP'
tp36
F1
s(S'DP'
S'DADVVP'
tp37
F4
s(S'PP'
S'PADVNNP'
tp38
F1
s(S'AP'
S'AADVPP'
tp39
F1
s(S'NP'
p40
S'AANADVADVVVP'
tp41
F1
s(S'NP'
p42
S'NADVVVP'
tp43
F7
s(S'VP'
S'VCP'
tp44
F75
s(S'MP'
S'MVVANP'
tp45
F1
s(S'NP'
S'NMMP'
tp46
F3
s(S'NP'
p47
S'NNADVAP'
tp48
F1
s(S'VP'
S'VVVAAP'
tp49
F1
s(S'PP'
S'ADVPADP'
tp50
F1
s(S'PP'
S'PAP'
tp51
F54
s(S'NP'
S'ADVNNDP'
tp52
F1
s(S'VP'
S'VADVADVAP'
tp53
F1
s(S'PP'
S'ADVPPVP'
tp54
F1
s(S'VP'
S'VADVNP'
tp55
F1
s(S'NP'
S'NNNAP'
tp56
F1
s(S'NP'
S'ANPPP'
tp57
F2
s(S'PP'
S'PPADVDP'
tp58
F1
s(S'MP'
S'AMVP'
tp59
F1
s(S'PP'
S'PNP'
tp60
F203
s(S'DP'
S'DDP'
tp61
F11
s(S'VP'
S'ADVVDDP'
tp62
F1
s(S'NP'
S'NNNPP'
tp63
F1
s(S'NP'
S'NNDP'
tp64
F8
s(S'MP'
p65
S'MCDP'
tp66
F1
s(S'DP'
S'DDAANP'
tp67
F1
s(S'NP'
p68
S'NMP'
tp69
F63
s(S'VP'
S'AVADVPP'
tp70
F1
s(S'VP'
p71
S'AAVNP'
tp72
F2
s(S'PP'
p73
S'PDP'
tp74
F185
s(S'CP'
p75
S'CDADVADVPP'
tp76
F1
s(S'CP'
S'CDADVADVPPP'
tp77
F1
s(S'MP'
S'MVVAAAP'
tp78
F1
s(S'AP'
S'ANP'
tp79
F2
s(S'NP'
p80
S'NNADVCP'
tp81
F1
s(S'VP'
S'VVADVNP'
tp82
F1
s(S'MP'
S'MMMVVP'
tp83
F1
s(S'NP'
p84
S'ADVNACP'
tp85
F1
s(S'DP'
S'DPPPP'
tp86
F4
s(S'NP'
S'NACP'
tp87
F6
s(S'NP'
p88
S'NCCP'
tp89
F8
s(S'AP'
S'AAAP'
tp90
F1
s(S'DP'
p91
S'DADVADVVVP'
tp92
F1
s(S'VP'
S'VANNP'
tp93
F2
s(g88
S'NNCP'
tp94
F16
s(S'NP'
S'AANPPP'
tp95
F1
s(S'NP'
S'NADVADVVP'
tp96
F1
s(S'MP'
S'MNPP'
tp97
F1
s(g71
S'AVNP'
tp98
F5
s(S'PP'
S'ADVPVVP'
tp99
F1
s(S'VP'
S'VADVVP'
tp100
F6
s(S'MP'
S'MVAPP'
tp101
F1
s(S'MP'
p102
S'MVPPP'
tp103
F2
s(S'PP'
S'ADVPAPP'
tp104
F1
s(S'DP'
p105
S'DADVPPP'
tp106
F2
s(S'CP'
S'CCCDP'
tp107
F2
s(S'VP'
S'ADVVAP'
tp108
F4
s(S'AP'
p109
S'AAADDP'
tp110
F1
s(S'PP'
S'APDP'
tp111
F18
s(S'AP'
S'AADVCP'
tp112
F1
s(S'DP'
S'DNNNNP'
tp113
F1
s(S'VP'
S'VVANP'
tp114
F1
s(S'VP'
S'VVVVDP'
tp115
F2
s(S'NP'
S'ADVADVNNPP'
tp116
F1
s(S'MP'
S'MADVVNP'
tp117
F1
s(S'PP'
S'PAAP'
tp118
F6
s(S'NP'
S'NANP'
tp119
F2
s(g18
S'DNNP'
tp120
F49
s(S'CP'
p121
S'CADVDDPP'
tp122
F1
s(S'DP'
S'DPPPPP'
tp123
F1
s(S'CP'
S'CDDPPPP'
tp124
F1
s(g75
S'CCADVDP'
tp125
F1
s(S'VP'
p126
S'VVACP'
tp127
F1
s(S'NP'
S'NNNVP'
tp128
F4
s(S'PP'
p129
S'PADVVP'
tp130
F1
s(S'VP'
S'ADVADVVPPP'
tp131
F1
s(S'AP'
S'APP'
tp132
F36
s(S'MP'
S'ADVMAVVP'
tp133
F1
s(S'NP'
S'NADVMP'
tp134
F1
s(S'PP'
S'PPADP'
tp135
F1
s(S'VP'
p136
S'VADVADVVP'
tp137
F1
s(g121
S'CADVADPP'
tp138
F1
s(S'NP'
S'AANNMMP'
tp139
F1
s(S'AP'
p140
S'AAADVDDP'
tp141
F1
s(S'NP'
S'ADVANPP'
tp142
F2
s(S'VP'
S'VVVVPP'
tp143
F1
s(S'DP'
S'DAAVP'
tp144
F1
s(S'MP'
S'MVVVNP'
tp145
F1
s(S'PP'
S'PAANP'
tp146
F5
s(S'PP'
S'PPVVP'
tp147
F2
s(S'DP'
p148
S'ADVDDPP'
tp149
F3
s(S'MP'
S'MVNP'
tp150
F19
s(S'NP'
S'ANAAP'
tp151
F2
s(S'AP'
S'ADVAADP'
tp152
F1
s(S'PP'
p153
S'PAVP'
tp154
F9
s(S'MP'
S'ADVMVP'
tp155
F1
s(S'VP'
S'VVVPP'
tp156
F2
s(S'NP'
p157
S'NNADP'
tp158
F1
s(S'MP'
S'MADVVPP'
tp159
F2
s(S'DP'
S'DADP'
tp160
F2
s(S'AP'
S'ADVADP'
tp161
F2
s(g105
S'ADVDDP'
tp162
F2
s(S'PP'
S'APDDP'
tp163
F1
s(S'VP'
S'ADVADVVVNP'
tp164
F2
s(S'NP'
p165
S'ADVNAP'
tp166
F1
s(S'PP'
S'PPCP'
tp167
F1
s(g129
S'APVP'
tp168
F2
s(S'MP'
S'MNCP'
tp169
F1
s(S'VP'
S'VVNP'
tp170
F29
s(g31
S'PPVP'
tp171
F13
s(S'VP'
S'VADVDP'
tp172
F2
s(S'VP'
S'VVADVAP'
tp173
F2
s(S'VP'
p174
S'VAAP'
tp175
F18
s(S'NP'
S'NNADVAVP'
tp176
F1
s(g84
S'ANDP'
tp177
F9
s(S'NP'
S'NVVP'
tp178
F55
s(g109
S'AAP'
tp179
F2
s(S'VP'
S'VMP'
tp180
F3
s(S'VP'
S'VVNNP'
tp181
F2
s(S'CP'
S'CDAPP'
tp182
F11
s(S'VP'
S'VVAAP'
tp183
F1
s(S'VP'
S'VVAPP'
tp184
F1
s(g25
S'ADNP'
tp185
F11
s(S'PP'
S'PADP'
tp186
F11
s(S'VP'
p187
S'ADVVVCP'
tp188
F1
s(S'DP'
S'DADVAP'
tp189
F1
s(S'DP'
S'DAPP'
tp190
F15
s(S'VP'
S'ADVADVVPP'
tp191
F1
s(S'VP'
S'ADVADVVDP'
tp192
F1
s(S'PP'
S'PPPDP'
tp193
F2
s(S'MP'
S'MVVAP'
tp194
F2
s(S'DP'
S'DAAANP'
tp195
F2
s(S'VP'
p196
S'VAAPP'
tp197
F1
s(S'DP'
p198
S'ADVDNP'
tp199
F3
s(S'VP'
S'VVPP'
tp200
F29
s(S'CP'
p201
S'CDDPP'
tp202
F19
s(S'MP'
S'MVPP'
tp203
F13
s(S'DP'
p204
S'ADVP'
tp205
F6
s(S'CP'
S'CDDPPP'
tp206
F2
s(S'NP'
S'NNPP'
tp207
F16
s(S'MP'
S'MVADVNP'
tp208
F1
s(S'NP'
S'AAAAANCP'
tp209
F1
s(S'NP'
S'ANVP'
tp210
F20
s(g148
S'DNNNP'
tp211
F5
s(S'DP'
S'ADVDDVP'
tp212
F3
s(S'VP'
S'VADVDDP'
tp213
F1
s(S'PP'
S'PVVVP'
tp214
F1
s(S'PP'
S'PMP'
tp215
F4
s(g201
S'CCDP'
tp216
F22
s(S'NP'
S'ANNDP'
tp217
F1
s(S'VP'
p218
S'VADVANP'
tp219
F1
s(S'NP'
S'NVVVP'
tp220
F11
s(S'CP'
S'CDDDPP'
tp221
F3
s(S'CP'
S'CDAAPP'
tp222
F1
s(S'VP'
S'VVVDP'
tp223
F9
s(S'MP'
S'MVACP'
tp224
F1
s(S'CP'
S'CCCCDP'
tp225
F1
s(S'PP'
S'APADVNNP'
tp226
F1
s(g140
S'AACCP'
tp227
F1
s(g153
S'PPP'
tp228
F22
s(S'NP'
S'NAVP'
tp229
F7
s(S'PP'
S'PADVAP'
tp230
F4
s(S'DP'
S'ADVDVP'
tp231
F4
s(S'NP'
S'NCCCP'
tp232
F2
s(S'DP'
S'DADVADVPPP'
tp233
F1
s(S'DP'
p234
S'ADVADVDNP'
tp235
F1
s(S'VP'
S'VPP'
tp236
F124
s(S'CP'
S'ADVCCDP'
tp237
F2
s(S'CP'
S'ACCDP'
tp238
F1
s(S'DP'
p239
S'ADVDDNP'
tp240
F2
s(S'NP'
S'NNNCP'
tp241
F3
s(g14
S'PADVDP'
tp242
F5
s(S'DP'
p243
S'DANNP'
tp244
F1
s(S'PP'
S'PADVAAP'
tp245
F1
s(S'NP'
S'AAAANVP'
tp246
F6
s(S'DP'
p247
S'DAAPP'
tp248
F1
s(S'PP'
S'PVVP'
tp249
F10
s(S'CP'
p250
S'CADPPP'
tp251
F1
s(S'VP'
S'VVVPPP'
tp252
F1
s(S'VP'
S'ADVVCP'
tp253
F1
s(S'VP'
p254
S'VPPP'
tp255
F13
s(S'MP'
S'MVVVVAP'
tp256
F1
s(S'DP'
S'ADADVVVP'
tp257
F1
s(S'VP'
p258
S'VVPPP'
tp259
F1
s(S'VP'
p260
S'ADVVVCCP'
tp261
F1
s(S'PP'
p262
S'PPAP'
tp263
F2
s(S'DP'
p264
S'DVVP'
tp265
F22
s(S'NP'
S'ANMP'
tp266
F5
s(S'AP'
S'APPP'
tp267
F2
s(S'VP'
S'VVVP'
tp268
F1
s(S'DP'
S'DDPPPP'
tp269
F1
s(S'NP'
S'ANCP'
tp270
F20
s(g18
S'DCP'
tp271
F13
s(S'NP'
S'ANNCP'
tp272
F1
s(S'NP'
S'AAANCP'
tp273
F1
s(S'VP'
S'ADVVVVP'
tp274
F1
s(S'DP'
p275
S'DADVCP'
tp276
F1
s(g47
S'NNVVVVP'
tp277
F2
s(S'DP'
p278
S'DDDP'
tp279
F3
s(g278
S'DDADVPP'
tp280
F5
s(S'MP'
S'MVVVVNP'
tp281
F1
s(g84
S'ANVVP'
tp282
F7
s(S'VP'
S'VVDP'
tp283
F33
s(g88
S'NPPP'
tp284
F10
s(S'DP'
S'DAVP'
tp285
F5
s(S'VP'
S'ADVADVADVADVVNP'
tp286
F1
s(S'NP'
S'NNNMP'
tp287
F1
s(S'AP'
S'ACP'
tp288
F27
s(S'PP'
S'PADVADVNNP'
tp289
F1
s(g73
S'PPNP'
tp290
F30
s(S'MP'
S'MADVADVVPPP'
tp291
F1
s(S'NP'
S'ADVADVANPP'
tp292
F1
s(g275
S'AADVP'
tp293
F1
s(S'PP'
S'PPPPDDP'
tp294
F1
s(S'CP'
S'CDDADVPP'
tp295
F3
s(S'AP'
p296
S'ADP'
tp297
F143
s(S'CP'
S'CADVDPP'
tp298
F7
s(S'DP'
S'DVVVVP'
tp299
F1
s(S'DP'
S'DADVADP'
tp300
F1
s(S'VP'
S'VVPPPP'
tp301
F1
s(S'VP'
p302
S'AVDP'
tp303
F12
s(S'VP'
p304
S'VVAP'
tp305
F13
s(S'CP'
S'CADPPPP'
tp306
F1
s(S'NP'
p307
S'NPP'
tp308
F154
s(g307
S'NVP'
tp309
F275
s(S'PP'
S'PPVVVP'
tp310
F1
s(g153
S'PAAVP'
tp311
F2
s(S'VP'
S'VDDP'
tp312
F13
s(S'NP'
S'AANVVP'
tp313
F1
s(S'NP'
S'NADVADVVVP'
tp314
F3
s(g68
S'ANPP'
tp315
F31
s(S'PP'
S'ADVPPDP'
tp316
F3
s(S'PP'
p317
S'PPPPP'
tp318
F1
s(S'MP'
S'MPDP'
tp319
F1
s(S'MP'
S'MVVPP'
tp320
F4
s(S'DP'
S'ADVDPP'
tp321
F9
s(S'AP'
S'AAADVCCP'
tp322
F1
s(g243
S'ADDP'
tp323
F1
s(S'MP'
S'MVAADP'
tp324
F1
s(S'CP'
S'CAADPP'
tp325
F5
s(S'PP'
S'PNNP'
tp326
F28
s(S'AP'
S'AANNP'
tp327
F1
s(S'VP'
S'AVAP'
tp328
F1
s(S'MP'
S'MMVP'
tp329
F1
s(g16
S'PADVDDP'
tp330
F2
s(S'NP'
S'ADVNCP'
tp331
F1
s(S'AP'
S'AADP'
tp332
F24
s(S'CP'
S'ACDP'
tp333
F11
s(g302
S'VCCP'
tp334
F6
s(S'AP'
S'ADVANP'
tp335
F1
s(S'NP'
S'NNACP'
tp336
F1
s(S'MP'
S'MDNNP'
tp337
F1
s(S'VP'
S'VAP'
tp338
F80
s(S'VP'
S'VVVVNP'
tp339
F3
s(S'DP'
S'DDDPP'
tp340
F5
s(S'CP'
p341
S'ADVCDDP'
tp342
F1
s(S'VP'
S'VADVMP'
tp343
F1
s(S'MP'
S'MVVVDP'
tp344
F1
s(S'VP'
p345
S'ADVADVVVAP'
tp346
F2
s(S'VP'
S'ADVAVDP'
tp347
F2
s(g247
S'ADAP'
tp348
F1
s(S'VP'
p349
S'ADVVVDP'
tp350
F5
s(g317
S'PPPVP'
tp351
F2
s(S'VP'
S'VAANP'
tp352
F1
s(S'VP'
p353
S'VADVADVADVADVVP'
tp354
F1
s(g353
S'ADVADVADVADVVDP'
tp355
F1
s(S'NP'
S'NVVVVP'
tp356
F1
s(S'PP'
S'PAAAAP'
tp357
F1
s(S'VP'
p358
S'VVAADP'
tp359
F1
s(S'MP'
S'MADP'
tp360
F4
s(S'PP'
p361
S'PANP'
tp362
F16
s(S'NP'
p363
S'ANNMP'
tp364
F1
s(S'MP'
S'MVVPPP'
tp365
F1
s(g363
S'AANMP'
tp366
F2
s(S'NP'
S'NAAP'
tp367
F3
s(S'NP'
S'NDDP'
tp368
F2
s(S'AP'
S'ACCP'
tp369
F2
s(g345
S'VVVVAP'
tp370
F1
s(S'NP'
p371
S'NDP'
tp372
F58
s(S'PP'
S'PADVADVADVNP'
tp373
F1
s(g148
S'DDVP'
tp374
F14
s(S'NP'
S'AANVP'
tp375
F3
s(S'VP'
S'VNNNP'
tp376
F2
s(S'PP'
S'ADVPAP'
tp377
F1
s(g165
S'ADVNADVVVVP'
tp378
F1
s(S'PP'
S'PCP'
tp379
F8
s(g40
S'NNPPP'
tp380
F2
s(S'PP'
S'PAADP'
tp381
F2
s(S'NP'
S'ADVNNVP'
tp382
F1
s(S'VP'
S'VPPPP'
tp383
F1
s(S'NP'
p384
S'ANNPP'
tp385
F1
s(S'MP'
S'MVNNNP'
tp386
F2
s(S'AP'
S'ADVACP'
tp387
F1
s(g187
S'AVVDP'
tp388
F1
s(S'DP'
S'ADPPP'
tp389
F2
s(S'MP'
S'MVCP'
tp390
F1
s(S'CP'
p391
S'CCDDP'
tp392
F2
s(g307
S'NNADVVP'
tp393
F4
s(S'NP'
S'NNVVP'
tp394
F5
s(g384
S'NNNNVP'
tp395
F1
s(g126
S'VVCP'
tp396
F7
s(S'NP'
S'AANCP'
tp397
F2
s(g196
S'VDP'
tp398
F186
s(S'VP'
S'VVVVVNP'
tp399
F1
s(S'PP'
p400
S'APPP'
tp401
F1
s(g218
S'ADVVPP'
tp402
F4
s(S'AP'
S'AAAADDP'
tp403
F1
s(g71
S'VNNP'
tp404
F18
s(S'AP'
S'AADVDP'
tp405
F2
s(g258
S'ADVADVVVANP'
tp406
F1
s(S'NP'
S'NADP'
tp407
F1
s(S'DP'
S'DDNP'
tp408
F21
s(S'PP'
S'ADVADVPPP'
tp409
F1
s(S'DP'
S'DDNNP'
tp410
F3
s(g400
S'PADVADVVVP'
tp411
F1
s(S'NP'
S'NAADP'
tp412
F1
s(g204
S'AADPP'
tp413
F6
s(S'NP'
S'AAAANVVP'
tp414
F5
s(S'NP'
S'NNNNPP'
tp415
F1
s(S'DP'
S'DADVADVANP'
tp416
F1
s(S'VP'
S'VVVVCP'
tp417
F1
s(g239
S'DAAAANP'
tp418
F1
s(S'CP'
S'CDPPPPP'
tp419
F1
s(S'NP'
S'ANVVVP'
tp420
F1
s(S'MP'
S'MADVVDP'
tp421
F2
s(g102
S'MVVNP'
tp422
F2
s(S'CP'
p423
S'ACDDP'
tp424
F2
s(S'AP'
S'AAPP'
tp425
F4
s(g254
S'VVCCP'
tp426
F1
s(S'NP'
S'NADVADVADVADVVP'
tp427
F1
s(S'DP'
S'DADVVVP'
tp428
F3
s(S'AP'
S'ADVANNP'
tp429
F1
s(g11
S'NAPP'
tp430
F10
s(S'AP'
S'ADVADVADP'
tp431
F1
s(g157
S'NADVDP'
tp432
F2
s(S'VP'
S'VVVCP'
tp433
F2
s(S'NP'
S'ANCCP'
tp434
F1
s(g384
S'AANPP'
tp435
F1
s(S'NP'
S'NNCCP'
tp436
F2
s(g371
S'NNMP'
tp437
F11
s(S'CP'
S'CADDPP'
tp438
F1
s(S'PP'
S'PAAAP'
tp439
F1
s(g84
S'AAAANCP'
tp440
F2
s(g250
S'CDDAPP'
tp441
F1
s(S'NP'
S'ANAP'
tp442
F5
s(S'MP'
S'MVAP'
tp443
F4
s(g73
S'PVP'
tp444
F107
s(S'VP'
S'VADVPPP'
tp445
F2
s(S'AP'
S'AADVDDP'
tp446
F1
s(S'DP'
S'DVVVP'
tp447
F3
s(S'VP'
S'VCCCCP'
tp448
F1
s(S'NP'
S'ADVADVADVNVP'
tp449
F1
s(S'NP'
S'NNADVADVPPP'
tp450
F1
s(S'DP'
p451
S'DPP'
tp452
F264
s(g363
S'ADVNVP'
tp453
F3
s(S'DP'
S'DDDVVP'
tp454
F1
s(g451
S'DDPP'
tp455
F27
s(S'DP'
S'DANP'
tp456
F62
s(S'NP'
S'NADVPP'
tp457
F1
s(S'NP'
S'ADVNVVVP'
tp458
F1
s(S'NP'
S'AANADVVP'
tp459
F2
s(S'PP'
S'APADVDDP'
tp460
F1
s(S'DP'
S'AADNP'
tp461
F3
s(S'NP'
S'NNNNMMMP'
tp462
F1
s(S'VP'
S'VADVCP'
tp463
F1
s(S'NP'
S'NNNNCP'
tp464
F1
s(g42
S'NADVCCP'
tp465
F1
s(S'NP'
S'NNNVVP'
tp466
F1
s(S'NP'
S'NNVVVVVP'
tp467
F1
s(g198
S'DCCP'
tp468
F3
s(S'DP'
S'AADDP'
tp469
F1
s(g73
S'AAPDP'
tp470
F2
s(S'VP'
S'VVDDP'
tp471
F3
s(S'VP'
S'VVVAP'
tp472
F3
s(S'PP'
S'PDDP'
tp473
F18
s(g65
S'MVDDP'
tp474
F1
s(S'NP'
S'NNNADVVP'
tp475
F1
s(S'NP'
S'NNVP'
tp476
F39
s(g423
S'CCCCCDP'
tp477
F1
s(g148
S'ADVADPP'
tp478
F2
s(S'DP'
S'DAANP'
tp479
F9
s(S'AP'
S'ADDP'
tp480
F11
s(S'PP'
S'PNNNNP'
tp481
F2
s(S'PP'
S'ADVPPNP'
tp482
F1
s(S'MP'
S'MVVADVAP'
tp483
F1
s(S'VP'
S'ADVVVVAP'
tp484
F1
s(g18
S'DPPP'
tp485
F36
s(S'DP'
S'DMMMP'
tp486
F1
s(S'PP'
S'ADVADVPPNP'
tp487
F2
s(S'VP'
S'ADVADVADVADVADVVPP'
tp488
F1
s(S'AP'
S'AVVP'
tp489
F4
s(S'MP'
S'ADVADVMVVP'
tp490
F1
s(S'PP'
S'ADVPNP'
tp491
F6
s(g361
S'PPDP'
tp492
F19
s(S'AP'
S'AAPPP'
tp493
F1
s(S'NP'
S'AAANMP'
tp494
F1
s(S'NP'
S'NAP'
tp495
F33
s(S'VP'
S'VAAAP'
tp496
F1
s(S'VP'
S'ADVAVNP'
tp497
F1
s(g304
S'VVP'
tp498
F19
s(g204
S'DDAPP'
tp499
F3
s(S'AP'
S'AAADP'
tp500
F1
s(g31
S'APNP'
tp501
F11
s(S'VP'
p502
S'VVVNNP'
tp503
F2
s(S'AP'
S'ADVADVAAP'
tp504
F1
s(S'DP'
S'DDVVP'
tp505
F2
s(S'CP'
S'CADVADVDPP'
tp506
F2
s(g174
S'VVVNP'
tp507
F7
s(S'PP'
S'PPPANNP'
tp508
F1
s(S'NP'
S'NAMP'
tp509
F1
s(S'MP'
S'MVANP'
tp510
F3
s(g201
S'CDPP'
tp511
F212
s(S'NP'
S'NNADVADVVVP'
tp512
F1
s(S'MP'
S'MMMVP'
tp513
F1
s(S'CP'
S'ADVCDP'
tp514
F4
s(g296
S'ADVAAP'
tp515
F1
s(g262
S'ADVPPPPP'
tp516
F1
s(S'VP'
p517
S'VAAVP'
tp518
F1
s(g136
S'ADVADVVCP'
tp519
F1
s(S'VP'
S'VADVADVDP'
tp520
F1
s(S'PP'
S'PPNNP'
tp521
F2
s(S'DP'
S'ADVADVDPP'
tp522
F2
s(S'VP'
S'VAADP'
tp523
F2
s(g80
S'AANVVVVP'
tp524
F2
s(S'VP'
S'AVDDP'
tp525
F2
s(S'DP'
S'DADVNP'
tp526
F4
s(g264
S'DAP'
tp527
F25
s(g20
S'CADPP'
tp528
F18
s(S'NP'
S'NADVAVP'
tp529
F2
s(g358
S'ADVADVVVPP'
tp530
F1
s(S'VP'
S'AVPP'
tp531
F3
s(S'NP'
S'NADVADVMP'
tp532
F1
s(g517
S'AAVCP'
tp533
F1
s(S'VP'
S'VVADVDP'
tp534
F1
s(S'CP'
S'CDPPPP'
tp535
F3
s(g91
S'ADPPPP'
tp536
F1
s(g234
S'DADVADVPP'
tp537
F1
s(S'DP'
S'DMP'
tp538
F6
s(S'PP'
S'PPPNP'
tp539
F3
s(S'PP'
S'PPAANP'
tp540
F1
s(S'NP'
S'AAANPP'
tp541
F1
s(g18
S'ADPP'
tp542
F22
s(S'NP'
S'NNADVVVP'
tp543
F1
s(g260
S'VADVPP'
tp544
F2
s(g358
S'VVCCCCCP'
tp545
F1
s(S'PP'
S'ADVPVP'
tp546
F2
s(S'NP'
S'NADVADVADVVVP'
tp547
F1
s(S'DP'
S'ADMP'
tp548
F1
s(S'NP'
S'NNVVVP'
tp549
F7
s(S'VP'
S'ADVVANP'
tp550
F1
s(S'PP'
S'ADVPDP'
tp551
F3
s(S'PP'
S'PPPVVP'
tp552
F2
s(S'MP'
S'MVADVAP'
tp553
F1
s(g88
S'NCP'
tp554
F134
s(S'VP'
S'ADVVVPP'
tp555
F1
s(S'AP'
S'AACP'
tp556
F8
s(S'MP'
S'MMADVADVADVADVADVVP'
tp557
F1
s(S'DP'
S'ADVVP'
tp558
F2
s(S'NP'
S'AANDP'
tp559
F2
s(S'DP'
S'DADVNNP'
tp560
F1
s(S'VP'
S'VDDDP'
tp561
F2
s(S'MP'
S'MNVP'
tp562
F1
s(S'NP'
S'AANCCP'
tp563
F1
s(S'PP'
S'PADVADVAP'
tp564
F1
s(g349
S'VAPP'
tp565
F6
s(S'MP'
S'MAVNP'
tp566
F1
s(g196
S'ADVVDP'
tp567
F15
s(S'DP'
S'DADVPP'
tp568
F6
s(g391
S'CCADP'
tp569
F1
s(S'AP'
S'AAAMP'
tp570
F1
s(S'AP'
S'ADVAPP'
tp571
F8
s(S'MP'
S'MNADVADVVP'
tp572
F1
s(g341
S'CCDDDP'
tp573
F2
s(g234
S'ADVDPPP'
tp574
F1
s(S'DP'
S'DVP'
tp575
F135
s(S'NP'
S'ADVNPP'
tp576
F1
s(S'AP'
S'AVP'
tp577
F11
s(g84
S'NADVVP'
tp578
F8
s(S'DP'
S'DDPPP'
tp579
F2
s(S'NP'
S'ADVNMP'
tp580
F4
s(g363
S'NNAP'
tp581
F3
s(S'PP'
S'PPANP'
tp582
F2
s(S'CP'
S'CDADVPP'
tp583
F4
s(S'VP'
S'VNP'
tp584
F131
s(S'VP'
S'VANP'
tp585
F13
s(S'VP'
S'VADVAP'
tp586
F6
s(g502
S'ADVADVVVDP'
tp587
F1
s(S'NP'
S'NADVPPP'
tp588
F1
s.