ccollections
defaultdict
p1
(c__builtin__
float
p2
tRp3
(S'CP'
S'CAAADPP'
tp4
F1
s(S'DP'
S'DDAP'
tp5
F1
s(S'VP'
p6
S'ADVVVNP'
tp7
F1
s(S'NP'
p8
S'NADDP'
tp9
F1
s(S'NP'
S'AAAANPPP'
tp10
F1
s(S'PP'
p11
S'PADVNP'
tp12
F5
s(S'DP'
p13
S'DNP'
tp14
F165
s(S'CP'
S'CDPPP'
tp15
F15
s(S'VP'
p16
S'VADP'
tp17
F2
s(S'DP'
S'DAAP'
tp18
F2
s(S'PP'
p19
S'PPPPPP'
tp20
F1
s(S'VP'
S'VAVP'
tp21
F1
s(S'VP'
p22
S'ADVVNP'
tp23
F9
s(S'MP'
p24
S'MVDP'
tp25
F12
s(S'NP'
p26
S'AANNPP'
tp27
F1
s(S'PP'
p28
S'PPPP'
tp29
F2
s(S'VP'
p30
S'VACP'
tp31
F1
s(S'PP'
S'PPAAP'
tp32
F1
s(S'DP'
S'DADVVP'
tp33
F4
s(S'NP'
S'NADVVVP'
tp34
F5
s(S'VP'
p35
S'VCP'
tp36
F43
s(S'NP'
S'NMMP'
tp37
F4
s(S'VP'
S'ADVVAAP'
tp38
F1
s(S'VP'
S'VVVVDP'
tp39
F2
s(S'PP'
S'PAP'
tp40
F49
s(S'MP'
S'MMVVP'
tp41
F1
s(S'VP'
S'VADVADVAP'
tp42
F2
s(S'NP'
S'NNNAP'
tp43
F1
s(S'NP'
S'ANPPP'
tp44
F1
s(S'MP'
S'AMVP'
tp45
F1
s(S'PP'
p46
S'PNP'
tp47
F123
s(S'MP'
p48
S'MADVCDP'
tp49
F1
s(S'PP'
S'APADVAVP'
tp50
F1
s(S'DP'
p51
S'DDP'
tp52
F10
s(S'VP'
S'ADVVDDP'
tp53
F1
s(g11
S'PAAP'
tp54
F5
s(S'AP'
S'ADVADVAVVP'
tp55
F1
s(g16
S'ADVADVVVCP'
tp56
F1
s(S'NP'
p57
S'NMP'
tp58
F55
s(g46
S'PDP'
tp59
F145
s(S'CP'
S'CCADVADVDP'
tp60
F1
s(S'CP'
S'CDADVADVPP'
tp61
F2
s(S'AP'
S'ANP'
tp62
F3
s(S'VP'
p63
S'VVADVNP'
tp64
F1
s(S'VP'
S'AAVDDDDP'
tp65
F1
s(S'DP'
S'DPPPP'
tp66
F4
s(S'NP'
p67
S'NACP'
tp68
F5
s(S'AP'
S'ADVAVP'
tp69
F1
s(S'NP'
S'NCCP'
tp70
F6
s(S'VP'
S'VVVVVP'
tp71
F2
s(S'NP'
p72
S'NNCP'
tp73
F14
s(S'DP'
S'ADVDDPP'
tp74
F2
s(S'NP'
S'NADVADVVP'
tp75
F1
s(S'DP'
S'DDDDP'
tp76
F1
s(S'VP'
p77
S'VVADP'
tp78
F1
s(S'VP'
S'VVMP'
tp79
F1
s(S'VP'
S'VADVVP'
tp80
F3
s(S'NP'
p81
S'ADVADVADVNMP'
tp82
F1
s(S'MP'
S'MAAP'
tp83
F1
s(S'MP'
S'MVPPP'
tp84
F1
s(S'NP'
S'ANADVVP'
tp85
F1
s(S'CP'
S'CCCDP'
tp86
F2
s(S'VP'
S'ADVVAP'
tp87
F6
s(S'PP'
S'APDP'
tp88
F8
s(g35
S'ADVVNNP'
tp89
F2
s(S'AP'
S'AADVCP'
tp90
F1
s(S'VP'
S'VVANP'
tp91
F1
s(S'PP'
S'ADVPNNP'
tp92
F1
s(S'VP'
S'ADVVVP'
tp93
F1
s(S'MP'
S'MADVVNP'
tp94
F3
s(S'DP'
S'DNNP'
tp95
F31
s(S'CP'
S'CADVDDPP'
tp96
F1
s(S'CP'
S'CCADVDP'
tp97
F2
s(S'NP'
S'NNNVP'
tp98
F1
s(S'PP'
S'PADVVP'
tp99
F2
s(S'PP'
p100
S'APAP'
tp101
F2
s(S'AP'
S'APP'
tp102
F20
s(S'NP'
S'NADVMP'
tp103
F2
s(S'AP'
S'AAP'
tp104
F4
s(S'NP'
p105
S'ADVANPP'
tp106
F2
s(S'VP'
S'VADVADVNP'
tp107
F1
s(S'MP'
p108
S'MAAADVDP'
tp109
F1
s(S'PP'
S'PAANP'
tp110
F4
s(S'NP'
p111
S'ANVP'
tp112
F12
s(S'VP'
S'VAACP'
tp113
F1
s(S'MP'
S'MVNP'
tp114
F8
s(S'PP'
p115
S'PAVP'
tp116
F3
s(S'MP'
S'ADVMVP'
tp117
F4
s(S'VP'
p118
S'ADVVMP'
tp119
F1
s(S'VP'
S'VVVPP'
tp120
F5
s(S'AP'
S'ADVACCP'
tp121
F1
s(S'DP'
p122
S'ADVDVVP'
tp123
F1
s(S'AP'
S'ADVADP'
tp124
F3
s(S'NP'
S'ADVNAP'
tp125
F1
s(S'PP'
S'PPCP'
tp126
F1
s(S'PP'
S'APVP'
tp127
F6
s(S'VP'
S'VVNP'
tp128
F12
s(S'PP'
p129
S'PPPNNP'
tp130
F1
s(g28
S'PPVP'
tp131
F13
s(S'VP'
S'VAAP'
tp132
F9
s(S'NP'
S'ANDP'
tp133
F3
s(S'NP'
S'NVVP'
tp134
F30
s(S'VP'
S'VMP'
tp135
F2
s(S'VP'
S'VVNNP'
tp136
F1
s(S'CP'
S'CDAPP'
tp137
F11
s(g122
S'ADNP'
tp138
F4
s(S'PP'
S'PADP'
tp139
F4
s(g77
S'ADVVVCP'
tp140
F2
s(S'DP'
S'DADVAP'
tp141
F1
s(S'DP'
S'DAPP'
tp142
F18
s(g30
S'ADVADVVPP'
tp143
F2
s(S'MP'
S'MADVADVVNP'
tp144
F1
s(S'VP'
S'ADVADVVDP'
tp145
F2
s(S'PP'
S'PPPDP'
tp146
F1
s(g24
S'MVVAP'
tp147
F1
s(S'DP'
S'DAAANP'
tp148
F1
s(S'DP'
S'DADVANP'
tp149
F1
s(S'VP'
S'VAAPP'
tp150
F1
s(S'VP'
p151
S'VVPP'
tp152
F7
s(S'MP'
S'MVPP'
tp153
F8
s(g13
S'ADVP'
tp154
F1
s(S'DP'
S'DDAAPP'
tp155
F1
s(g105
S'NNPP'
tp156
F15
s(S'DP'
S'DDDDNP'
tp157
F1
s(S'MP'
S'MVVDP'
tp158
F2
s(S'AP'
S'AACP'
tp159
F5
s(S'DP'
S'DNNNP'
tp160
F2
s(S'PP'
S'PVVVP'
tp161
F2
s(S'PP'
p162
S'PMP'
tp163
F8
s(S'CP'
S'CCDP'
tp164
F16
s(S'NP'
S'ANNDP'
tp165
F2
s(S'VP'
S'VADVANP'
tp166
F1
s(S'NP'
S'NVVVP'
tp167
F13
s(S'CP'
S'CDDDPP'
tp168
F1
s(S'CP'
S'CDAAPP'
tp169
F1
s(S'VP'
S'VVVDP'
tp170
F5
s(S'PP'
S'PNNNP'
tp171
F3
s(S'PP'
S'AAPNP'
tp172
F2
s(S'VP'
S'ADVVVDP'
tp173
F3
s(g115
S'PPP'
tp174
F6
s(S'NP'
S'NAVP'
tp175
F1
s(S'PP'
S'PADVAP'
tp176
F4
s(S'MP'
S'MNNDP'
tp177
F1
s(S'PP'
S'APVVVP'
tp178
F1
s(S'NP'
S'NCCCP'
tp179
F2
s(S'MP'
S'MVVVVDP'
tp180
F1
s(S'MP'
S'MADVADVVPP'
tp181
F1
s(S'VP'
p182
S'VPP'
tp183
F94
s(S'NP'
S'NNNCP'
tp184
F1
s(S'DP'
S'DANNP'
tp185
F2
s(S'CP'
S'CDDPP'
tp186
F12
s(S'DP'
S'DAAPP'
tp187
F1
s(S'PP'
S'PVVP'
tp188
F6
s(S'DP'
S'DADVPPP'
tp189
F2
s(S'VP'
S'ADVVCP'
tp190
F4
s(g16
S'VPPP'
tp191
F9
s(S'PP'
S'PPAP'
tp192
F1
s(S'DP'
S'DVVP'
tp193
F10
s(S'DP'
S'DDDDAP'
tp194
F1
s(S'NP'
S'ANMP'
tp195
F1
s(S'AP'
S'APPP'
tp196
F1
s(S'NP'
S'ADVADVNVP'
tp197
F2
s(S'VP'
S'VVVP'
tp198
F2
s(S'CP'
S'CADVDPP'
tp199
F6
s(S'NP'
S'ADVADVNNVP'
tp200
F1
s(S'VP'
S'AVMP'
tp201
F1
s(S'NP'
p202
S'ANCP'
tp203
F16
s(S'DP'
S'DCP'
tp204
F8
s(S'DP'
S'DVVVP'
tp205
F3
s(S'NP'
S'AAANCP'
tp206
F1
s(S'NP'
S'NNVVVVP'
tp207
F1
s(S'DP'
S'DDDP'
tp208
F2
s(S'DP'
p209
S'DDADVPP'
tp210
F1
s(S'MP'
S'MVVVVNP'
tp211
F1
s(S'NP'
S'ANVVP'
tp212
F1
s(S'VP'
S'VVDP'
tp213
F25
s(g72
S'NPPP'
tp214
F5
s(S'DP'
S'ADDDP'
tp215
F1
s(S'DP'
S'DAVP'
tp216
F4
s(S'AP'
p217
S'ACP'
tp218
F26
s(S'NP'
S'NDDDDP'
tp219
F1
s(S'PP'
p220
S'PADVADVNNP'
tp221
F1
s(g46
S'PPNP'
tp222
F10
s(S'NP'
p223
S'ADVADVANPP'
tp224
F1
s(S'DP'
S'ADVDAPP'
tp225
F1
s(S'VP'
S'VAANNP'
tp226
F1
s(S'CP'
S'CDDADVPP'
tp227
F1
s(S'AP'
S'ADP'
tp228
F137
s(g48
S'MVVP'
tp229
F1
s(S'AP'
S'AAADP'
tp230
F1
s(g118
S'VVAP'
tp231
F10
s(S'NP'
S'NNAPP'
tp232
F1
s(S'CP'
S'CADPPPP'
tp233
F1
s(S'NP'
p234
S'NPP'
tp235
F108
s(S'NP'
p236
S'NNNP'
tp237
F1
s(g234
S'NVP'
tp238
F173
s(S'PP'
S'PAAVP'
tp239
F1
s(S'VP'
S'VDDP'
tp240
F7
s(g217
S'AAADVDP'
tp241
F1
s(S'NP'
S'AANVVP'
tp242
F1
s(S'NP'
S'NADVADVVVP'
tp243
F2
s(g111
S'ANPP'
tp244
F14
s(S'MP'
S'MVVPP'
tp245
F1
s(S'PP'
S'PPPNP'
tp246
F2
s(S'NP'
p247
S'NPPPP'
tp248
F1
s(S'DP'
S'DDADVADVPPP'
tp249
F2
s(g115
S'PNNP'
tp250
F14
s(S'DP'
S'AAADPP'
tp251
F1
s(S'MP'
S'MMVP'
tp252
F4
s(g220
S'PADVDDP'
tp253
F1
s(S'AP'
S'AADP'
tp254
F18
s(S'CP'
S'ACDP'
tp255
F5
s(S'VP'
S'VCCP'
tp256
F4
s(S'AP'
S'ADVANP'
tp257
F1
s(S'CP'
S'CDADVPPP'
tp258
F2
s(g35
S'VAP'
tp259
F74
s(S'VP'
S'VVVVNP'
tp260
F1
s(S'DP'
S'DDDPP'
tp261
F2
s(S'NP'
S'NNAVVP'
tp262
F1
s(S'NP'
S'NAAP'
tp263
F4
s(S'VP'
p264
S'VAANP'
tp265
F3
s(S'MP'
S'MADP'
tp266
F2
s(S'PP'
p267
S'PPPDDP'
tp268
F2
s(S'AP'
S'AMMP'
tp269
F1
s(S'PP'
S'PANP'
tp270
F8
s(S'DP'
S'AADNP'
tp271
F2
s(S'AP'
S'AVVP'
tp272
F2
s(S'NP'
S'NDDP'
tp273
F1
s(S'CP'
S'CDDADVADVPPP'
tp274
F1
s(S'AP'
S'ACCP'
tp275
F6
s(g234
S'NDP'
tp276
F37
s(g6
S'AVADVADVPPP'
tp277
F1
s(g81
S'AAANVP'
tp278
F1
s(S'MP'
p279
S'MVAAP'
tp280
F1
s(S'DP'
S'DDVP'
tp281
F12
s(S'NP'
S'AANVP'
tp282
F7
s(S'DP'
S'ADDVP'
tp283
F1
s(S'VP'
S'VNNNP'
tp284
F1
s(g19
S'PPPPVVP'
tp285
F1
s(S'PP'
S'APADVDP'
tp286
F1
s(S'PP'
p287
S'PCP'
tp288
F5
s(S'PP'
S'PAADP'
tp289
F2
s(S'AP'
S'ADVACP'
tp290
F5
s(S'VP'
S'VVVAP'
tp291
F3
s(S'NP'
p292
S'NNVP'
tp293
F17
s(S'MP'
S'MVCP'
tp294
F5
s(S'CP'
S'CCDDP'
tp295
F2
s(S'NP'
S'NNADVVP'
tp296
F1
s(S'NP'
S'NNVVP'
tp297
F2
s(g151
S'VVCP'
tp298
F8
s(S'NP'
S'AANCP'
tp299
F2
s(g182
S'VDP'
tp300
F149
s(S'AP'
S'ADVAVVP'
tp301
F2
s(S'PP'
S'APPP'
tp302
F2
s(S'VP'
S'ADVVPP'
tp303
F10
s(S'VP'
S'VNNP'
tp304
F6
s(S'DP'
S'DDNP'
tp305
F6
s(g8
S'NADVCP'
tp306
F1
s(S'DP'
S'DDADVVVP'
tp307
F1
s(S'VP'
S'ADVAVPP'
tp308
F1
s(S'DP'
S'ADVDDVVP'
tp309
F1
s(S'PP'
S'ADVADVPPDP'
tp310
F1
s(S'CP'
S'CDDADVPPP'
tp311
F1
s(S'CP'
S'ACDDP'
tp312
F2
s(S'AP'
S'AAPP'
tp313
F5
s(S'DP'
p314
S'DMMP'
tp315
F1
s(S'PP'
S'PADVMP'
tp316
F1
s(g234
S'AAAAANPP'
tp317
F1
s(g292
S'NAPP'
tp318
F3
s(g8
S'NADVDP'
tp319
F1
s(S'VP'
S'VVVCP'
tp320
F3
s(S'NP'
S'ANCCP'
tp321
F5
s(S'NP'
S'AANPP'
tp322
F2
s(g202
S'NNMP'
tp323
F6
s(S'DP'
S'DDDVP'
tp324
F2
s(S'MP'
S'MDANP'
tp325
F1
s(S'CP'
S'CDDAPP'
tp326
F2
s(g67
S'ANAP'
tp327
F4
s(g108
S'MVAP'
tp328
F14
s(g162
S'PVP'
tp329
F94
s(g264
S'VADVPPP'
tp330
F1
s(S'VP'
S'AAAVVPP'
tp331
F1
s(S'NP'
S'ANNCP'
tp332
F1
s(S'PP'
S'PPDDP'
tp333
F2
s(g30
S'AVCP'
tp334
F2
s(g223
S'NNADVADVANP'
tp335
F1
s(S'DP'
S'DPP'
tp336
F231
s(S'NP'
S'ADVNVP'
tp337
F1
s(g314
S'DDDVVP'
tp338
F1
s(g51
S'DDPP'
tp339
F18
s(S'DP'
S'DDADVPPP'
tp340
F1
s(S'DP'
S'DANP'
tp341
F29
s(S'PP'
S'PDDDP'
tp342
F2
s(g63
S'VADVCP'
tp343
F1
s(S'MP'
S'MDNP'
tp344
F1
s(S'NP'
S'NNNVVP'
tp345
F1
s(g267
S'ADVADVPPP'
tp346
F1
s(S'PP'
p347
S'AAPDP'
tp348
F1
s(S'MP'
S'MADVVDP'
tp349
F4
s(g46
S'PDDP'
tp350
F6
s(g279
S'MVDDP'
tp351
F1
s(g13
S'DDAAAAANP'
tp352
F1
s(S'VP'
S'AVDP'
tp353
F5
s(S'NP'
S'NNP'
tp354
F2
s(S'DP'
S'DAANP'
tp355
F3
s(S'AP'
S'ADDP'
tp356
F10
s(g347
S'ADVPPNP'
tp357
F4
s(S'CP'
S'CADVADVDPP'
tp358
F2
s(g13
S'DPPP'
tp359
F23
s(S'PP'
S'ADVADVPPNP'
tp360
F2
s(S'PP'
S'ADVPNP'
tp361
F2
s(g100
S'PPDP'
tp362
F15
s(S'MP'
S'MAVDP'
tp363
F2
s(g247
S'NAAAVVP'
tp364
F1
s(g234
S'NAP'
tp365
F25
s(S'VP'
S'VAAAP'
tp366
F1
s(S'VP'
S'VVP'
tp367
F9
s(g122
S'DDAPP'
tp368
F2
s(S'PP'
S'ADVADVPVP'
tp369
F1
s(S'PP'
S'APNP'
tp370
F6
s(S'DP'
S'DDVVP'
tp371
F1
s(S'VP'
S'VVVNP'
tp372
F7
s(S'NP'
S'NAMP'
tp373
F1
s(S'MP'
S'MVANP'
tp374
F1
s(S'CP'
S'CDPP'
tp375
F186
s(g81
S'NNADVADVVVP'
tp376
F2
s(S'NP'
S'NNDP'
tp377
F7
s(S'VP'
S'AVVPPP'
tp378
F1
s(S'CP'
S'ADVCDP'
tp379
F4
s(S'VP'
S'ADVADVVNP'
tp380
F1
s(S'DP'
S'ADVADVDPP'
tp381
F3
s(S'VP'
S'VADVNP'
tp382
F2
s(S'NP'
S'NADVAP'
tp383
F1
s(S'DP'
p384
S'DAP'
tp385
F20
s(S'CP'
S'CADPP'
tp386
F3
s(S'NP'
S'NADVAVP'
tp387
F1
s(S'VP'
S'ADVADVVVPP'
tp388
F2
s(S'CP'
S'CDPPPP'
tp389
F4
s(S'PP'
S'PANNP'
tp390
F1
s(S'NP'
S'ADVANMP'
tp391
F1
s(g287
S'ADVPAAANP'
tp392
F1
s(S'DP'
S'ADPPPP'
tp393
F1
s(S'DP'
S'DADVADVPP'
tp394
F2
s(S'DP'
S'DMP'
tp395
F4
s(g384
S'ADVDPP'
tp396
F8
s(S'PP'
S'PPAANP'
tp397
F1
s(g236
S'AAANPP'
tp398
F1
s(S'PP'
S'PADVADVNP'
tp399
F1
s(S'DP'
S'DADVMP'
tp400
F1
s(S'DP'
S'ADPP'
tp401
F5
s(S'CP'
S'CDDPPP'
tp402
F1
s(S'CP'
S'CCADVDDP'
tp403
F1
s(S'PP'
S'ADVPVP'
tp404
F1
s(g209
S'DDADVADVADVNP'
tp405
F1
s(S'NP'
S'NNVVVP'
tp406
F4
s(S'DP'
S'ADVDADVVP'
tp407
F1
s(S'MP'
S'MVADVAP'
tp408
F1
s(g57
S'NCP'
tp409
F109
s(S'VP'
S'VDDDP'
tp410
F1
s(S'MP'
S'MNVP'
tp411
F1
s(S'VP'
S'VAPP'
tp412
F2
s(g22
S'ADVVDP'
tp413
F16
s(S'DP'
S'DADVPP'
tp414
F5
s(S'CP'
S'CCADP'
tp415
F1
s(S'AP'
S'ADVAPP'
tp416
F2
s(S'CP'
S'AACDP'
tp417
F1
s(S'NP'
S'NNNCCP'
tp418
F1
s(S'DP'
S'DVP'
tp419
F132
s(S'NP'
S'ADVNPP'
tp420
F4
s(g217
S'AVP'
tp421
F6
s(g26
S'NADVVP'
tp422
F6
s(S'NP'
S'NNADVADVVP'
tp423
F1
s(S'VP'
S'ADVVPPP'
tp424
F1
s(S'DP'
S'DDPPP'
tp425
F1
s(S'NP'
S'ADVNMP'
tp426
F2
s(S'NP'
S'NNAP'
tp427
F1
s(g129
S'PPANP'
tp428
F1
s(S'CP'
S'CDADVPP'
tp429
F5
s(g182
S'VNP'
tp430
F98
s(S'VP'
S'VANP'
tp431
F9
s(S'VP'
S'VADVAP'
tp432
F7
s(S'VP'
S'ADVADVVVDP'
tp433
F2
s.