ccollections
defaultdict
p1
(c__builtin__
float
p2
tRp3
(S'CP'
S'CAAADPP'
tp4
F1
s(S'DP'
S'DDMP'
tp5
F1
s(S'DP'
S'DDAP'
tp6
F4
s(S'VP'
p7
S'ADVVVNP'
tp8
F6
s(S'AP'
S'AADDDP'
tp9
F2
s(S'PP'
p10
S'ADVADVADVPPVP'
tp11
F1
s(S'DP'
S'DAANNP'
tp12
F1
s(S'PP'
p13
S'PAPP'
tp14
F4
s(S'PP'
S'PADVNP'
tp15
F11
s(S'DP'
p16
S'DNP'
tp17
F309
s(S'CP'
S'CDADVADVPPP'
tp18
F1
s(S'NP'
p19
S'ADVNDP'
tp20
F3
s(S'CP'
p21
S'CDPPP'
tp22
F42
s(S'VP'
S'VADP'
tp23
F9
s(S'DP'
p24
S'DAAP'
tp25
F4
s(S'MP'
S'MNNNNNVVP'
tp26
F1
s(S'AP'
S'AADVADVADVDP'
tp27
F1
s(S'CP'
S'CADVADVDPPP'
tp28
F1
s(S'DP'
p29
S'ADNNP'
tp30
F4
s(S'NP'
S'AANNCCP'
tp31
F1
s(S'MP'
S'MVDP'
tp32
F24
s(S'PP'
S'PADVANP'
tp33
F1
s(S'PP'
S'PPPP'
tp34
F15
s(S'DP'
S'DDDNP'
tp35
F3
s(S'VP'
S'VACP'
tp36
F4
s(S'PP'
p37
S'PPPAAP'
tp38
F1
s(S'MP'
S'MMMDP'
tp39
F1
s(S'PP'
p40
S'PADVNNP'
tp41
F1
s(S'AP'
S'AADVPP'
tp42
F2
s(S'NP'
S'NDDDP'
tp43
F1
s(S'NP'
p44
S'NADVVVP'
tp45
F17
s(S'VP'
S'VCP'
tp46
F118
s(S'MP'
S'MVVANP'
tp47
F1
s(S'NP'
p48
S'NMMP'
tp49
F5
s(S'PP'
S'PAP'
tp50
F74
s(S'MP'
S'MVADDP'
tp51
F1
s(S'MP'
S'MMVVP'
tp52
F2
s(S'VP'
p53
S'VADVADVAP'
tp54
F5
s(S'PP'
p55
S'ADVPPVP'
tp56
F1
s(S'VP'
S'VADVNP'
tp57
F3
s(S'DP'
S'ADVADVDADVPPPP'
tp58
F1
s(S'CP'
S'CADPPPP'
tp59
F2
s(S'PP'
p60
S'PNP'
tp61
F288
s(S'CP'
S'CADVADVDADVPPPP'
tp62
F1
s(g16
S'DDP'
tp63
F15
s(S'NP'
S'NNNPP'
tp64
F3
s(S'PP'
p65
S'PAAP'
tp66
F7
s(S'NP'
S'AAAAANADVADVVVP'
tp67
F1
s(S'PP'
S'ADVADVPPDP'
tp68
F1
s(S'PP'
p69
S'ADVADVPADVADVVVVP'
tp70
F1
s(S'NP'
p71
S'NMP'
tp72
F111
s(S'CP'
S'CADVDADVPP'
tp73
F1
s(g60
S'PDP'
tp74
F295
s(S'NP'
S'ADVNVVP'
tp75
F1
s(S'MP'
S'MNNVP'
tp76
F1
s(S'NP'
S'AAANVVP'
tp77
F2
s(S'NP'
S'NNADVMP'
tp78
F1
s(S'AP'
S'ANP'
tp79
F1
s(S'DP'
p80
S'DPPPP'
tp81
F10
s(S'DP'
p82
S'DDANP'
tp83
F2
s(S'PP'
p84
S'ADVPADP'
tp85
F1
s(S'AP'
S'ADVAVP'
tp86
F2
s(S'NP'
p87
S'NCCP'
tp88
F20
s(S'DP'
p89
S'ADVADPP'
tp90
F2
s(S'AP'
S'ADVAVVVP'
tp91
F1
s(S'NP'
p92
S'NNCP'
tp93
F43
s(S'DP'
p94
S'ADVDDPP'
tp95
F4
s(g87
S'NADVADVVP'
tp96
F3
s(S'DP'
S'DDAPP'
tp97
F3
s(S'PP'
S'PPAP'
tp98
F3
s(S'VP'
S'AVNP'
tp99
F1
s(S'VP'
p100
S'VVADP'
tp101
F3
s(S'PP'
p102
S'ADVPVVP'
tp103
F1
s(S'VP'
S'VVADVCP'
tp104
F1
s(S'MP'
S'MVVNP'
tp105
F2
s(S'PP'
p106
S'ADVAPDP'
tp107
F1
s(S'VP'
S'VVMP'
tp108
F1
s(S'VP'
p109
S'VADVVP'
tp110
F2
s(S'MP'
S'MVPPP'
tp111
F2
s(S'VP'
S'ADVADVADVADVVAP'
tp112
F1
s(S'DP'
S'DADVPPP'
tp113
F9
s(S'NP'
S'NCCCCP'
tp114
F1
s(S'VP'
S'AVNNP'
tp115
F1
s(S'PP'
p116
S'ADVPPNNP'
tp117
F2
s(S'PP'
S'APDP'
tp118
F15
s(S'CP'
S'ADVCCADVDP'
tp119
F1
s(S'VP'
S'ADVVNNP'
tp120
F1
s(S'VP'
S'VVANP'
tp121
F2
s(S'VP'
S'VVVVDP'
tp122
F2
s(S'VP'
S'ADVVVP'
tp123
F1
s(S'PP'
S'ADVADVADVPDP'
tp124
F1
s(S'DP'
S'DADVADVADVPP'
tp125
F1
s(S'MP'
S'MADVVNP'
tp126
F10
s(S'DP'
S'ADVADNNP'
tp127
F1
s(S'NP'
S'ADVANCP'
tp128
F1
s(g16
S'DNNP'
tp129
F69
s(S'CP'
S'CADVDDPP'
tp130
F2
s(g94
S'DPPPPP'
tp131
F1
s(S'CP'
S'CCADVDP'
tp132
F1
s(S'VP'
p133
S'VVNNNP'
tp134
F2
s(S'VP'
S'VVACP'
tp135
F1
s(S'MP'
S'MADVADVADVADVVDP'
tp136
F1
s(S'DP'
S'ADDNP'
tp137
F1
s(S'NP'
S'NNNVP'
tp138
F10
s(S'VP'
p139
S'VADVNNP'
tp140
F2
s(S'PP'
S'PADVVP'
tp141
F6
s(S'DP'
S'DADVADVADVPPP'
tp142
F2
s(S'MP'
S'MVVDDP'
tp143
F1
s(S'PP'
p144
S'APAP'
tp145
F4
s(S'AP'
p146
S'APP'
tp147
F39
s(S'AP'
S'AAP'
tp148
F11
s(S'NP'
p149
S'ADVANPP'
tp150
F2
s(S'VP'
S'VVVVPP'
tp151
F3
s(S'VP'
S'VADVADVNP'
tp152
F1
s(S'CP'
S'CDDDDPP'
tp153
F1
s(S'MP'
S'MVVVNP'
tp154
F2
s(S'PP'
S'PAANP'
tp155
F4
s(S'PP'
p156
S'PPVVP'
tp157
F2
s(S'VP'
S'ADVADVVVVNP'
tp158
F1
s(S'MP'
S'MVNP'
tp159
F18
s(S'NP'
S'NNANP'
tp160
F1
s(S'NP'
S'ADVADVAAANPP'
tp161
F1
s(S'NP'
S'ANAAP'
tp162
F2
s(S'AP'
S'ADVAADP'
tp163
F1
s(S'PP'
S'PAVP'
tp164
F8
s(S'MP'
S'ADVMVP'
tp165
F2
s(S'VP'
S'VVVPP'
tp166
F2
s(S'AP'
S'ADVACCP'
tp167
F2
s(S'DP'
S'DADP'
tp168
F3
s(S'AP'
S'ADVADP'
tp169
F4
s(S'CP'
S'ADVADVCDP'
tp170
F1
s(S'VP'
p171
S'VVADVPP'
tp172
F1
s(S'PP'
S'APDDP'
tp173
F1
s(S'VP'
S'ADVADVVVNP'
tp174
F3
s(S'NP'
S'ADVNAP'
tp175
F1
s(S'PP'
S'PPCP'
tp176
F3
s(S'VP'
S'ADVVNP'
tp177
F14
s(S'VP'
p178
S'VVNP'
tp179
F43
s(S'PP'
S'PPVP'
tp180
F19
s(S'VP'
S'VVCCCCP'
tp181
F1
s(S'VP'
S'VADVDP'
tp182
F1
s(S'VP'
S'VAAP'
tp183
F20
s(S'NP'
p184
S'ANDP'
tp185
F8
s(g92
S'NVVP'
tp186
F86
s(S'PP'
p187
S'AAPVP'
tp188
F1
s(g139
S'VMP'
tp189
F3
s(S'VP'
p190
S'VVNNP'
tp191
F4
s(S'CP'
S'CDAPP'
tp192
F14
s(S'VP'
S'VVAAP'
tp193
F1
s(S'DP'
S'ADVADVDDVP'
tp194
F1
s(S'DP'
p195
S'ADNP'
tp196
F9
s(S'PP'
S'AAPVVP'
tp197
F1
s(S'NP'
p198
S'ADVNNPP'
tp199
F1
s(S'MP'
S'ADVADVMVP'
tp200
F1
s(S'PP'
S'PADP'
tp201
F9
s(S'VP'
S'ADVVVCP'
tp202
F2
s(S'DP'
S'DADVADVADVADVNP'
tp203
F1
s(S'DP'
S'ADVADVDVP'
tp204
F2
s(S'DP'
S'DADVAP'
tp205
F2
s(S'VP'
S'AVVCCP'
tp206
F1
s(S'DP'
p207
S'DAPP'
tp208
F22
s(S'MP'
S'MVVCP'
tp209
F1
s(g7
S'ADVADVVPP'
tp210
F1
s(S'CP'
S'CCCCDDP'
tp211
F1
s(S'VP'
S'VADVAAP'
tp212
F1
s(S'VP'
S'ADVADVADVVDP'
tp213
F2
s(g65
S'AAAPVP'
tp214
F1
s(S'NP'
S'ADVADVNNDP'
tp215
F3
s(S'VP'
p216
S'ADVADVVDP'
tp217
F2
s(S'PP'
S'PPPDP'
tp218
F5
s(S'MP'
S'MVVVDP'
tp219
F1
s(S'MP'
S'MVVAP'
tp220
F3
s(S'VP'
p221
S'VDDDDP'
tp222
F1
s(S'DP'
S'DAAANP'
tp223
F3
s(S'DP'
S'DADVANP'
tp224
F3
s(S'VP'
S'VAAPP'
tp225
F1
s(S'DP'
p226
S'ADVDNP'
tp227
F1
s(S'VP'
p228
S'VVPP'
tp229
F40
s(S'CP'
S'CDDPP'
tp230
F29
s(S'DP'
S'DADVVP'
tp231
F7
s(S'MP'
p232
S'MVPP'
tp233
F21
s(g82
S'ADVP'
tp234
F8
s(S'MP'
S'MVADP'
tp235
F1
s(S'CP'
S'CAADADVPPP'
tp236
F1
s(S'VP'
p237
S'VVVVAAANP'
tp238
F1
s(S'NP'
S'NNPP'
tp239
F28
s(S'PP'
S'ADVADVADVPPAACP'
tp240
F1
s(S'NP'
p241
S'AAANDP'
tp242
F1
s(S'MP'
S'MVVDP'
tp243
F5
s(g216
S'VVVPPP'
tp244
F1
s(g184
S'ANVP'
tp245
F21
s(S'DP'
S'DADVADVADVADVPP'
tp246
F1
s(S'VP'
S'VVADVCCP'
tp247
F1
s(S'DP'
S'DNNNP'
tp248
F5
s(g29
S'ADVDADVPP'
tp249
F1
s(S'DP'
S'ADVDDVP'
tp250
F2
s(S'VP'
S'VADVDDP'
tp251
F1
s(S'PP'
S'PVVVP'
tp252
F4
s(S'PP'
S'PMP'
tp253
F4
s(S'PP'
S'PADVADVADVVP'
tp254
F1
s(S'CP'
S'CCDP'
tp255
F46
s(S'NP'
S'ADVNNDP'
tp256
F1
s(S'VP'
S'VADVANP'
tp257
F1
s(S'PP'
S'PPNNNP'
tp258
F1
s(g87
S'NVVVP'
tp259
F5
s(S'CP'
S'CDDDPP'
tp260
F9
s(S'CP'
p261
S'CDAAPP'
tp262
F3
s(S'VP'
S'VVVDP'
tp263
F4
s(S'PP'
S'PNNNP'
tp264
F6
s(g261
S'CCCCDP'
tp265
F1
s(S'PP'
S'AAPNP'
tp266
F2
s(S'AP'
S'ADVADVAADVADVADVVP'
tp267
F1
s(S'PP'
S'PADVVVP'
tp268
F2
s(g144
S'PPP'
tp269
F45
s(S'NP'
S'NAVP'
tp270
F11
s(S'DP'
p271
S'ADVADVDDNP'
tp272
F2
s(S'DP'
S'DDNNNP'
tp273
F2
s(S'DP'
S'ADVDVP'
tp274
F1
s(g89
S'ADVADVDDP'
tp275
F1
s(S'DP'
S'DADVADVPPP'
tp276
F1
s(g48
S'ADVADVADVNVP'
tp277
F1
s(S'DP'
p278
S'ADVADVDNP'
tp279
F1
s(S'VP'
p280
S'VPP'
tp281
F212
s(S'CP'
S'ADVCCDP'
tp282
F2
s(S'DP'
p283
S'ADVDDPPP'
tp284
F1
s(S'DP'
S'ADVDDNP'
tp285
F1
s(S'NP'
S'NNNCP'
tp286
F1
s(S'PP'
p287
S'PADVDP'
tp288
F2
s(g283
S'DANNP'
tp289
F2
s(S'MP'
S'MADVVAP'
tp290
F2
s(S'PP'
S'PADVAAP'
tp291
F1
s(S'NP'
p292
S'AAAANVP'
tp293
F2
s(g55
S'PPPADVPPP'
tp294
F1
s(g24
S'DAAPP'
tp295
F4
s(S'PP'
p296
S'PVVP'
tp297
F19
s(S'AP'
p298
S'AACP'
tp299
F5
s(S'VP'
S'ADVAVDDP'
tp300
F1
s(g190
S'ADVVCP'
tp301
F7
s(S'PP'
S'ADVPPAP'
tp302
F1
s(g228
S'VPPP'
tp303
F24
s(S'NP'
S'ADVADVADVNMMP'
tp304
F1
s(S'PP'
S'PPADVADVDP'
tp305
F1
s(S'VP'
S'VVPPP'
tp306
F3
s(S'NP'
S'NNNNNVVP'
tp307
F1
s(S'VP'
S'ADVVVCCP'
tp308
F1
s(S'NP'
S'NANP'
tp309
F2
s(g80
S'DVVP'
tp310
F42
s(g198
S'ANMP'
tp311
F2
s(S'AP'
S'APPP'
tp312
F6
s(S'NP'
S'ADVADVNVP'
tp313
F3
s(g100
S'VVVP'
tp314
F4
s(S'CP'
S'CADVDPP'
tp315
F6
s(S'NP'
S'ANCP'
tp316
F22
s(g16
S'DCP'
tp317
F15
s(S'DP'
S'DDAAPP'
tp318
F1
s(S'DP'
S'DADVADVADVNP'
tp319
F1
s(g241
S'NNVVVVP'
tp320
F1
s(S'PP'
S'ADVADVADVPPNP'
tp321
F2
s(g271
S'DDDP'
tp322
F6
s(S'AP'
S'ADDDDP'
tp323
F2
s(S'DP'
S'DDADVPP'
tp324
F2
s(S'NP'
S'ANNVVP'
tp325
F1
s(S'NP'
p326
S'ANVVP'
tp327
F4
s(S'NP'
S'NVVVVP'
tp328
F5
s(S'AP'
S'ADVAAP'
tp329
F1
s(S'NP'
S'NPPP'
tp330
F15
s(S'VP'
S'ADVVNNNP'
tp331
F1
s(S'DP'
S'DAVP'
tp332
F5
s(S'NP'
S'NNNMP'
tp333
F2
s(S'AP'
S'ACP'
tp334
F48
s(S'PP'
S'AAPAP'
tp335
F1
s(g65
S'PAAAPP'
tp336
F1
s(S'PP'
S'PPNP'
tp337
F37
s(S'MP'
S'MADVVPP'
tp338
F2
s(S'NP'
S'NAADP'
tp339
F1
s(S'DP'
S'ADVDAPP'
tp340
F1
s(S'VP'
S'VAANNP'
tp341
F1
s(S'CP'
S'CCCDDP'
tp342
F1
s(g146
S'ADP'
tp343
F317
s(S'PP'
S'APMP'
tp344
F1
s(S'DP'
S'DDPPPP'
tp345
F2
s(S'DP'
S'ADVDAAPP'
tp346
F1
s(S'DP'
S'DVVVVP'
tp347
F1
s(S'VP'
S'ADVADVVNNP'
tp348
F1
s(S'VP'
S'AVDP'
tp349
F16
s(g280
S'VVAP'
tp350
F23
s(g44
S'NNAPP'
tp351
F2
s(S'PP'
S'PADVADVDP'
tp352
F3
s(g92
S'NPP'
tp353
F199
s(S'PP'
p354
S'PPPPNP'
tp355
F2
s(g92
S'NVP'
tp356
F464
s(S'PP'
S'PAAVP'
tp357
F3
s(S'NP'
S'NAAPP'
tp358
F2
s(S'VP'
S'VDDP'
tp359
F43
s(S'DP'
S'DMP'
tp360
F4
s(S'NP'
S'NADVADVVVP'
tp361
F5
s(S'NP'
S'ANPP'
tp362
F36
s(S'PP'
S'ADVPPDP'
tp363
F2
s(S'PP'
p364
S'PPPPP'
tp365
F3
s(g116
S'ADVADVPDP'
tp366
F2
s(S'MP'
S'MVVPP'
tp367
F4
s(S'PP'
S'PPPNP'
tp368
F8
s(S'CP'
S'CDADVADVADVADVPP'
tp369
F1
s(S'NP'
S'NPPPP'
tp370
F3
s(g271
S'ADDP'
tp371
F1
s(S'CP'
S'CAADPP'
tp372
F1
s(g60
S'PNNP'
tp373
F39
s(S'CP'
S'CDADVADVADVPPP'
tp374
F2
s(g37
S'APNNP'
tp375
F2
s(S'DP'
S'DDAAP'
tp376
F1
s(S'DP'
S'AAADPP'
tp377
F1
s(S'VP'
p378
S'AVAP'
tp379
F2
s(S'MP'
S'MMVP'
tp380
F3
s(S'PP'
S'PADVDDP'
tp381
F2
s(S'NP'
S'ADVNCP'
tp382
F3
s(g82
S'ADPP'
tp383
F25
s(S'VP'
S'VAPPP'
tp384
F1
s(S'CP'
S'ACDP'
tp385
F8
s(S'VP'
p386
S'VCCP'
tp387
F12
s(g10
S'PADVADVADVPPP'
tp388
F1
s(S'VP'
S'ADVVVAAP'
tp389
F1
s(S'CP'
S'CDADVPPP'
tp390
F6
s(g280
S'VAP'
tp391
F194
s(S'VP'
S'VVVVNP'
tp392
F1
s(S'DP'
S'DDDPP'
tp393
F12
s(g187
S'PAAPP'
tp394
F1
s(S'AP'
p395
S'AAVVP'
tp396
F1
s(S'MP'
S'MNMP'
tp397
F1
s(S'VP'
S'ADVADVVVAP'
tp398
F1
s(S'DP'
S'ADAP'
tp399
F2
s(S'NP'
S'AANMP'
tp400
F6
s(S'CP'
S'CCADVADP'
tp401
F2
s(S'PP'
p402
S'PADVADVADP'
tp403
F1
s(S'DP'
S'DDDMP'
tp404
F1
s(S'VP'
S'ADVVVDP'
tp405
F7
s(g364
S'PPPVP'
tp406
F4
s(S'AP'
S'AADDP'
tp407
F3
s(S'VP'
S'VAANP'
tp408
F2
s(S'NP'
S'NADVADVCP'
tp409
F1
s(S'NP'
S'AANNP'
tp410
F1
s(S'VP'
S'ADVADVADVADVVDP'
tp411
F1
s(S'MP'
S'MMVVVVP'
tp412
F1
s(S'DP'
S'ADVADVADVDVP'
tp413
F1
s(g228
S'VVDP'
tp414
F46
s(S'MP'
S'MVVVCP'
tp415
F1
s(S'MP'
S'MADP'
tp416
F3
s(S'NP'
S'NNNDDP'
tp417
F1
s(S'PP'
p418
S'PANP'
tp419
F18
s(S'PP'
S'PDDDP'
tp420
F4
s(S'DP'
S'DADVADVNNP'
tp421
F2
s(S'MP'
S'MVVPPP'
tp422
F1
s(S'PP'
S'APADVADVDDP'
tp423
F1
s(S'AP'
S'AAVP'
tp424
F3
s(S'AP'
S'AVVP'
tp425
F2
s(S'NP'
S'NDDP'
tp426
F6
s(g40
S'APPDDP'
tp427
F1
s(S'DP'
S'ADVADVDPPP'
tp428
F1
s(S'PP'
S'ADVPPPNP'
tp429
F1
s(S'AP'
S'ACCP'
tp430
F5
s(S'DP'
S'DAAVP'
tp431
F2
s(S'NP'
S'NDP'
tp432
F71
s(S'VP'
S'VAAAADP'
tp433
F1
s(S'NP'
S'AAANVP'
tp434
F3
s(S'MP'
S'MVAAP'
tp435
F1
s(g24
S'DDVP'
tp436
F41
s(S'NP'
S'AANVP'
tp437
F4
s(S'VP'
S'VNNNP'
tp438
F4
s(S'MP'
S'MADVADVADVVNNP'
tp439
F1
s(S'PP'
S'ADVPAP'
tp440
F1
s(S'PP'
S'PCP'
tp441
F10
s(S'NP'
p442
S'NNPPP'
tp443
F3
s(S'PP'
S'PAADP'
tp444
F1
s(S'NP'
S'ADVNNVP'
tp445
F1
s(S'DP'
S'AADADVPPP'
tp446
F1
s(g178
S'VPPPP'
tp447
F5
s(S'PP'
S'PPPVVP'
tp448
F2
s(g116
S'PACP'
tp449
F1
s(S'NP'
S'NNNDP'
tp450
F2
s(S'AP'
S'ADVACP'
tp451
F3
s(S'NP'
S'ADVADVNMP'
tp452
F1
s(S'VP'
S'VVVAP'
tp453
F3
s(g92
S'NNVP'
tp454
F63
s(g19
S'AAAAANAAP'
tp455
F1
s(S'CP'
S'CCDDP'
tp456
F5
s(S'NP'
S'NNADVVP'
tp457
F2
s(g292
S'NAAP'
tp458
F12
s(S'NP'
S'ADVANAP'
tp459
F2
s(g71
S'NNVVP'
tp460
F11
s(S'NP'
S'NNNNVP'
tp461
F1
s(S'VP'
S'VVCP'
tp462
F21
s(S'MP'
S'MVVVVPP'
tp463
F1
s(g149
S'AANCP'
tp464
F1
s(S'VP'
S'VAADP'
tp465
F4
s(S'VP'
S'VVDDDP'
tp466
F2
s(S'AP'
S'ADVAVVP'
tp467
F1
s(S'PP'
p468
S'PPAAPPP'
tp469
F1
s(g418
S'APPP'
tp470
F2
s(S'VP'
S'ADVVPP'
tp471
F4
s(S'PP'
S'ADVADVADVADVPDP'
tp472
F1
s(g386
S'VNNP'
tp473
F24
s(S'AP'
S'AADVDP'
tp474
F1
s(S'NP'
S'NADP'
tp475
F1
s(S'DP'
S'DDNP'
tp476
F36
s(S'CP'
S'ACADVDP'
tp477
F1
s(S'NP'
S'NADVCP'
tp478
F1
s(S'DP'
p479
S'DDNNP'
tp480
F10
s(g378
S'VPPPPP'
tp481
F1
s(g84
S'PADVADVVVP'
tp482
F1
s(S'NP'
p483
S'ADVADVANPP'
tp484
F1
s(S'DP'
S'AADPP'
tp485
F2
s(S'AP'
S'ADVADVAVVVP'
tp486
F1
s(S'DP'
S'DADVADVANP'
tp487
F1
s(S'VP'
S'VVVVCP'
tp488
F1
s(S'NP'
S'ADVADVADVADVNDP'
tp489
F1
s(S'NP'
S'NNNVVVVP'
tp490
F1
s(S'PP'
S'PADVADVADVADVDP'
tp491
F1
s(S'CP'
S'CDDADVPPP'
tp492
F1
s(S'CP'
S'ACDDP'
tp493
F1
s(S'VP'
S'ADVVCCCP'
tp494
F1
s(S'AP'
S'AAPP'
tp495
F5
s(S'AP'
S'ADVADVACCP'
tp496
F1
s(g53
S'VVCCP'
tp497
F3
s(S'NP'
S'NADVADVADVADVVP'
tp498
F1
s(S'DP'
S'DADVVVP'
tp499
F1
s(g106
S'ADVPANP'
tp500
F1
s(S'VP'
S'VADVADP'
tp501
F1
s(S'NP'
S'NAPP'
tp502
F5
s(S'AP'
S'ADVADVADP'
tp503
F1
s(S'VP'
S'VVVCP'
tp504
F3
s(g402
S'APDDDP'
tp505
F1
s(S'NP'
S'ANCCP'
tp506
F2
s(S'NP'
p507
S'AANPP'
tp508
F4
s(S'VP'
S'VDDDP'
tp509
F3
s(g507
S'NNMP'
tp510
F10
s(S'DP'
p511
S'DDDVP'
tp512
F6
s(S'VP'
S'VADVADVADVPPP'
tp513
F1
s(S'PP'
S'PAAAP'
tp514
F1
s(S'PP'
S'ADVADVPNP'
tp515
F2
s(S'VP'
S'VVVDDP'
tp516
F1
s(S'CP'
S'CADVADVADVDPPP'
tp517
F1
s(S'CP'
S'CDDAPP'
tp518
F2
s(S'NP'
S'ANAP'
tp519
F13
s(S'MP'
S'MVAP'
tp520
F12
s(g133
S'VADVADVDDP'
tp521
F1
s(g296
S'PVP'
tp522
F183
s(S'DP'
S'DADVAVP'
tp523
F1
s(S'VP'
S'VADVCCP'
tp524
F2
s(S'AP'
S'ADVAACP'
tp525
F1
s(S'DP'
p526
S'DVVVP'
tp527
F3
s(S'PP'
p528
S'PPADVPP'
tp529
F1
s(S'PP'
S'PADVAP'
tp530
F2
s(g442
S'AANADVANP'
tp531
F1
s(g296
S'PPDDP'
tp532
F5
s(S'VP'
S'AVCP'
tp533
F1
s(S'DP'
S'DDVVVP'
tp534
F1
s(S'NP'
S'NAVVP'
tp535
F1
s(g16
S'DPP'
tp536
F429
s(g326
S'ADVNVP'
tp537
F6
s(S'DP'
S'DDDVVP'
tp538
F2
s(S'DP'
S'DDPP'
tp539
F48
s(S'DP'
S'DDADVPPP'
tp540
F2
s(g82
S'DANP'
tp541
F75
s(S'NP'
S'NADVPP'
tp542
F2
s(S'NP'
S'NNADVADVPP'
tp543
F1
s(g468
S'AAPPVP'
tp544
F1
s(S'NP'
S'AANADVVP'
tp545
F1
s(S'NP'
S'NAAVP'
tp546
F1
s(S'DP'
S'ADVADVADPP'
tp547
F1
s(S'PP'
S'PAACP'
tp548
F1
s(S'DP'
S'AADNP'
tp549
F5
s(S'NP'
S'NACP'
tp550
F5
s(S'VP'
S'VADVCP'
tp551
F1
s(S'MP'
S'MDNP'
tp552
F1
s(S'PP'
p553
S'PADVPPP'
tp554
F1
s(S'PP'
S'AAPDP'
tp555
F4
s(S'MP'
S'MADVVDP'
tp556
F3
s(S'DP'
S'DDADVVP'
tp557
F2
s(g84
S'PDDP'
tp558
F32
s(S'MP'
S'MVDDP'
tp559
F3
s(S'PP'
S'PCCP'
tp560
F1
s(g395
S'AADVDDP'
tp561
F1
s(S'AP'
S'ADVADVACP'
tp562
F2
s(S'VP'
S'VVDDP'
tp563
F6
s(S'DP'
S'DAANP'
tp564
F15
s(g298
S'ADDP'
tp565
F32
s(S'VP'
S'ADVADVADVVNNP'
tp566
F2
s(g102
S'PNNNNP'
tp567
F1
s(g109
S'ADVVVAP'
tp568
F1
s(S'PP'
S'ADVPPNP'
tp569
F7
s(S'VP'
S'VADVADVADVVP'
tp570
F1
s(S'CP'
S'CADVADVDPP'
tp571
F2
s(g16
S'DPPP'
tp572
F60
s(S'DP'
S'AADPPP'
tp573
F1
s(S'NP'
S'NNAVP'
tp574
F1
s(S'NP'
S'NMMMP'
tp575
F1
s(S'NP'
S'ANADVMP'
tp576
F1
s(g287
S'ADVPNP'
tp577
F10
s(g60
S'PPDP'
tp578
F33
s(S'MP'
S'MVPPPP'
tp579
F1
s(S'NP'
S'NADVADVADVPP'
tp580
F1
s(S'DP'
S'DDCP'
tp581
F1
s(S'VP'
S'VADVADVAAANP'
tp582
F1
s(S'NP'
S'AAAANADVVP'
tp583
F1
s(S'NP'
S'NAP'
tp584
F87
s(S'NP'
S'NNAAP'
tp585
F1
s(S'VP'
S'ADVVVADVAP'
tp586
F1
s(S'DP'
S'ADVADVADVADVDNNP'
tp587
F1
s(S'VP'
S'VVP'
tp588
F23
s(g283
S'DADVNP'
tp589
F6
s(S'AP'
S'AAADP'
tp590
F1
s(S'PP'
p591
S'APNP'
tp592
F8
s(S'VP'
S'VVVNNP'
tp593
F1
s(g195
S'DDVVP'
tp594
F4
s(S'AP'
S'AAADDP'
tp595
F1
s(S'VP'
S'VVVNP'
tp596
F6
s(S'DP'
S'ADVADVADVDPPP'
tp597
F1
s(S'MP'
S'MVANP'
tp598
F3
s(S'MP'
S'MVNNP'
tp599
F1
s(g21
S'CDPP'
tp600
F323
s(S'AP'
S'ADDDP'
tp601
F2
s(S'NP'
S'NNADVADVVVP'
tp602
F1
s(S'NP'
S'NNDP'
tp603
F7
s(S'CP'
S'ADVCDP'
tp604
F3
s(g69
S'PADVADVPP'
tp605
F1
s(S'VP'
S'ADVADVVNP'
tp606
F1
s(g354
S'PPNNP'
tp607
F4
s(S'DP'
S'ADVADVDPP'
tp608
F2
s(g280
S'VDP'
tp609
F304
s(S'MP'
S'MVADVNNP'
tp610
F1
s(g483
S'NADVAP'
tp611
F2
s(g237
S'AVDDP'
tp612
F1
s(g207
S'DAP'
tp613
F39
s(S'CP'
S'CADPP'
tp614
F18
s(S'PP'
S'PPAVP'
tp615
F1
s(S'MP'
S'MADVADVVDP'
tp616
F1
s(g37
S'PPDDDP'
tp617
F1
s(S'VP'
S'AVPP'
tp618
F5
s(S'NP'
S'NADVADVMP'
tp619
F1
s(S'CP'
S'CAADPPP'
tp620
F1
s(g591
S'PPADVADVDDP'
tp621
F1
s(S'CP'
S'CDPPPP'
tp622
F5
s(S'VP'
S'VADVADVCCP'
tp623
F1
s(S'VP'
S'AAVDP'
tp624
F6
s(S'NP'
S'ADVANMP'
tp625
F1
s(S'DP'
S'ADPPPP'
tp626
F2
s(g526
S'DADVADVPP'
tp627
F3
s(S'NP'
S'AANVVP'
tp628
F3
s(S'DP'
S'ADVDPP'
tp629
F9
s(S'NP'
S'NADVAPP'
tp630
F1
s(g354
S'PADVADVNP'
tp631
F3
s(S'CP'
S'CADVDAAPP'
tp632
F1
s(S'AP'
S'AADP'
tp633
F45
s(S'NP'
S'NNADVVVP'
tp634
F2
s(S'VP'
S'VADVPP'
tp635
F1
s(S'CP'
S'CDDPPP'
tp636
F3
s(S'CP'
S'CCADVDDP'
tp637
F2
s(S'PP'
S'ADVPVP'
tp638
F5
s(g479
S'DDDDPP'
tp639
F2
s(S'NP'
S'NNVVVP'
tp640
F3
s(g156
S'PADVADVADVNP'
tp641
F1
s(S'PP'
S'ADVPDP'
tp642
F5
s(g19
S'ANNPP'
tp643
F1
s(S'MP'
S'MVADVAP'
tp644
F2
s(g184
S'NCP'
tp645
F157
s(S'CP'
S'CADVDPPP'
tp646
F1
s(g221
S'ADVVVPP'
tp647
F3
s(S'NP'
S'NNNADP'
tp648
F1
s(S'AP'
S'AAAP'
tp649
F2
s(g528
S'ADVPDDP'
tp650
F1
s(S'VP'
S'ADVVVADVADVAP'
tp651
F1
s(S'NP'
S'AANDP'
tp652
F2
s(g13
S'APVP'
tp653
F4
s(g44
S'NNCCP'
tp654
F4
s(g232
S'MNVP'
tp655
F8
s(S'NP'
S'AANAP'
tp656
F1
s(S'CP'
S'ADVADVCCDP'
tp657
F1
s(g139
S'VAPP'
tp658
F4
s(S'MP'
S'MAVNP'
tp659
F1
s(S'VP'
S'ADVVDP'
tp660
F8
s(S'VP'
S'VADDP'
tp661
F1
s(S'MP'
S'MVVDDDP'
tp662
F1
s(g226
S'DADVPP'
tp663
F15
s(S'CP'
S'CCADP'
tp664
F1
s(S'PP'
S'ADVADVADVPNP'
tp665
F1
s(S'AP'
S'ADVAPP'
tp666
F4
s(g553
S'ADVPPVVP'
tp667
F1
s(S'CP'
S'AACDP'
tp668
F2
s(S'NP'
S'NNNCCP'
tp669
F1
s(S'NP'
S'NAAAP'
tp670
F1
s(S'DP'
S'ADVDPPP'
tp671
F1
s(g16
S'DVP'
tp672
F274
s(g171
S'ADVVAP'
tp673
F6
s(S'AP'
S'AVP'
tp674
F19
s(S'NP'
S'NADVVP'
tp675
F5
s(g511
S'DDPPP'
tp676
F5
s(S'NP'
S'ADVNMP'
tp677
F6
s(g184
S'NNAP'
tp678
F7
s(S'VP'
S'VADVADVNNP'
tp679
F1
s(S'MP'
S'MADVVCP'
tp680
F1
s(S'PP'
S'PPANP'
tp681
F1
s(S'MP'
S'MCDDP'
tp682
F1
s(S'PP'
S'PPCCP'
tp683
F1
s(S'CP'
S'CDADVPP'
tp684
F7
s(g228
S'VNP'
tp685
F185
s(S'VP'
S'VANP'
tp686
F4
s(S'VP'
S'VADVAP'
tp687
F9
s(g278
S'DDDDVP'
tp688
F2
s(g133
S'ADVADVVVDP'
tp689
F4
s(g292
S'AANNAP'
tp690
F1
s.