ccollections
defaultdict
p1
(c__builtin__
float
p2
tRp3
(S'DP'
p4
S'DDAP'
tp5
F4
s(S'VP'
S'ADVVVNP'
tp6
F2
s(S'VP'
p7
S'VVVVP'
tp8
F1
s(S'DP'
S'DAANNP'
tp9
F2
s(S'PP'
p10
S'PAPP'
tp11
F2
s(S'PP'
S'PADVNP'
tp12
F5
s(S'DP'
p13
S'DNP'
tp14
F160
s(S'NP'
p15
S'ADVNDP'
tp16
F2
s(S'CP'
S'CDPPP'
tp17
F13
s(S'VP'
p18
S'VADP'
tp19
F5
s(S'NP'
S'ADVNCCP'
tp20
F1
s(S'CP'
p21
S'CADVADVDPPP'
tp22
F1
s(S'DP'
p23
S'ADNNP'
tp24
F1
s(S'MP'
S'MDVP'
tp25
F1
s(g10
S'APVP'
tp26
F2
s(S'MP'
S'MVDP'
tp27
F16
s(S'NP'
S'AAAAANDP'
tp28
F1
s(S'PP'
p29
S'PPPP'
tp30
F8
s(S'DP'
p31
S'DDDNP'
tp32
F2
s(S'VP'
p33
S'VACP'
tp34
F2
s(S'DP'
S'DADVVP'
tp35
F4
s(S'VP'
S'VVADDP'
tp36
F1
s(S'AP'
S'AADVPP'
tp37
F1
s(S'NP'
p38
S'NADVVVP'
tp39
F3
s(S'VP'
p40
S'VCP'
tp41
F36
s(S'NP'
S'NMMP'
tp42
F1
s(S'NP'
p43
S'AAAANPP'
tp44
F1
s(g13
S'DDDNNP'
tp45
F1
s(S'PP'
p46
S'PAP'
tp47
F54
s(S'PP'
p48
S'PPANNP'
tp49
F1
s(S'CP'
S'CDADVADVADVPP'
tp50
F1
s(S'AP'
S'ADVAADVVP'
tp51
F1
s(S'NP'
S'NPPPP'
tp52
F1
s(S'MP'
S'AMVP'
tp53
F1
s(S'PP'
p54
S'PNP'
tp55
F124
s(S'DP'
S'DDP'
tp56
F5
s(S'MP'
S'MADVADVVAP'
tp57
F1
s(S'VP'
S'ADVVDDP'
tp58
F1
s(S'NP'
p59
S'NNNPP'
tp60
F1
s(S'NP'
S'NNDP'
tp61
F7
s(S'MP'
S'MCDP'
tp62
F1
s(S'NP'
S'NMP'
tp63
F30
s(S'PP'
S'PDP'
tp64
F135
s(S'DP'
S'DDPPPPP'
tp65
F1
s(S'NP'
S'ADVNVVP'
tp66
F1
s(S'DP'
S'ADVADVADVADNP'
tp67
F1
s(S'AP'
S'ANP'
tp68
F1
s(S'NP'
p69
S'NADVADVADVVP'
tp70
F3
s(S'VP'
S'VVADVNP'
tp71
F1
s(S'DP'
S'DPPPP'
tp72
F3
s(S'DP'
S'DDANP'
tp73
F2
s(S'NP'
p74
S'NACP'
tp75
F2
s(S'AP'
p76
S'ADVAVP'
tp77
F1
s(S'NP'
p78
S'NCCP'
tp79
F11
s(S'AP'
S'AAAADP'
tp80
F1
s(S'NP'
p81
S'NNCP'
tp82
F17
s(S'NP'
S'NADVADVVP'
tp83
F1
s(S'VP'
S'AVNP'
tp84
F1
s(S'VP'
p85
S'VVADP'
tp86
F1
s(S'VP'
p87
S'AVDDDP'
tp88
F1
s(S'VP'
S'ADVADVADVVNP'
tp89
F1
s(S'CP'
S'CCCDP'
tp90
F1
s(S'CP'
S'CCCADVADVDDP'
tp91
F1
s(S'PP'
S'APDP'
tp92
F6
s(S'VP'
S'ADVVNNP'
tp93
F2
s(S'VP'
S'VVANP'
tp94
F2
s(S'VP'
S'VVVVDP'
tp95
F1
s(S'VP'
S'ADVVVP'
tp96
F1
s(S'DP'
S'DADVADVADVPP'
tp97
F1
s(S'NP'
S'ADVNCP'
tp98
F2
s(S'PP'
S'PAAP'
tp99
F5
s(g13
S'DNNP'
tp100
F25
s(S'CP'
S'CCADVDP'
tp101
F3
s(S'NP'
S'AAANAP'
tp102
F1
s(S'DP'
S'ADDNP'
tp103
F2
s(S'NP'
p104
S'NNNVP'
tp105
F4
s(S'PP'
S'PADVVP'
tp106
F2
s(S'AP'
p107
S'APP'
tp108
F28
s(S'AP'
S'AAP'
tp109
F3
s(g33
S'VVAPP'
tp110
F1
s(S'NP'
S'ADVANPP'
tp111
F2
s(S'MP'
p112
S'MVVCP'
tp113
F1
s(S'VP'
S'VADVADVNP'
tp114
F2
s(S'PP'
S'PAANP'
tp115
F3
s(S'PP'
S'PPVVP'
tp116
F2
s(S'NP'
S'AAAAAANVVP'
tp117
F1
s(S'MP'
S'MVNP'
tp118
F6
s(S'DP'
S'DDDDDDNP'
tp119
F1
s(S'NP'
S'ANAAP'
tp120
F1
s(g54
S'PAVP'
tp121
F9
s(S'VP'
S'VVVPP'
tp122
F4
s(S'AP'
S'ADVADP'
tp123
F1
s(S'PP'
S'APDDP'
tp124
F2
s(S'VP'
p125
S'ADVADVVVNP'
tp126
F1
s(S'PP'
S'PPCP'
tp127
F1
s(S'VP'
S'ADVVNP'
tp128
F5
s(S'VP'
S'VVNP'
tp129
F20
s(g29
S'PPVP'
tp130
F11
s(S'VP'
S'VVADVAP'
tp131
F1
s(S'VP'
S'VAAP'
tp132
F8
s(S'NP'
p133
S'ANDP'
tp134
F7
s(S'NP'
p135
S'NVVP'
tp136
F37
s(S'VP'
p137
S'VMP'
tp138
F3
s(S'CP'
S'CDAPP'
tp139
F4
s(S'VP'
S'VVAAP'
tp140
F1
s(S'DP'
S'ADNP'
tp141
F3
s(S'VP'
S'VVVVCP'
tp142
F2
s(S'VP'
S'ADVVVCP'
tp143
F1
s(g13
S'DNNNNNP'
tp144
F1
s(S'DP'
S'DADVAP'
tp145
F1
s(S'NP'
S'ADVANNVP'
tp146
F1
s(S'DP'
p147
S'DAPP'
tp148
F9
s(S'VP'
S'ADVADVVPP'
tp149
F1
s(S'VP'
S'ADVADVADVVDP'
tp150
F2
s(S'MP'
p151
S'MVVAP'
tp152
F1
s(S'DP'
S'DADVANP'
tp153
F1
s(S'NP'
p154
S'ANADVVVP'
tp155
F3
s(S'VP'
p156
S'VVPP'
tp157
F18
s(S'MP'
S'MVPP'
tp158
F1
s(S'DP'
S'ADVP'
tp159
F4
s(S'NP'
p160
S'NNPP'
tp161
F6
s(S'MP'
S'MVVDP'
tp162
F2
s(S'AP'
S'AACP'
tp163
F2
s(S'NP'
p164
S'ANVP'
tp165
F20
s(g4
S'DNNNP'
tp166
F2
s(S'VP'
S'VVVANNP'
tp167
F1
s(S'CP'
S'CCDP'
tp168
F15
s(S'VP'
p169
S'VAAVP'
tp170
F1
s(g164
S'NVVVP'
tp171
F11
s(S'CP'
S'CDDDPP'
tp172
F3
s(S'CP'
S'CDAAPP'
tp173
F3
s(S'VP'
S'VVVDP'
tp174
F3
s(g48
S'PNNNP'
tp175
F3
s(S'VP'
S'ADVVVDP'
tp176
F1
s(S'PP'
p177
S'PPP'
tp178
F27
s(S'NP'
S'NAVP'
tp179
F4
s(S'PP'
S'PADVAP'
tp180
F1
s(S'PP'
S'PADDP'
tp181
F1
s(S'DP'
p182
S'ADVDVP'
tp183
F4
s(S'NP'
S'NAAAP'
tp184
F2
s(S'NP'
S'NCCCP'
tp185
F1
s(g125
S'VAAAAP'
tp186
F1
s(g156
S'VPP'
tp187
F80
s(S'CP'
S'ADVCCDP'
tp188
F1
s(S'DP'
S'ADVDDNP'
tp189
F1
s(S'NP'
S'NNNCP'
tp190
F1
s(S'PP'
S'PADVDP'
tp191
F2
s(S'DP'
p192
S'DANNP'
tp193
F1
s(S'CP'
S'CDDPP'
tp194
F25
s(S'DP'
S'DAAPP'
tp195
F5
s(g54
S'PVVP'
tp196
F9
s(S'NP'
S'AAAAANCP'
tp197
F1
s(S'VP'
S'VPPP'
tp198
F10
s(g85
S'VVPPP'
tp199
F2
s(g160
S'NNNNNVVP'
tp200
F2
s(g112
S'MVPPP'
tp201
F1
s(S'DP'
S'DVVP'
tp202
F13
s(S'PP'
p203
S'PADVAVP'
tp204
F1
s(S'NP'
p205
S'ANMP'
tp206
F1
s(S'PP'
p207
S'PPAP'
tp208
F2
s(S'DP'
S'ADVVP'
tp209
F1
s(S'NP'
S'ADVADVNVP'
tp210
F1
s(S'VP'
S'VVVP'
tp211
F2
s(S'CP'
S'CADVDPP'
tp212
F7
s(g15
S'ANCP'
tp213
F12
s(S'DP'
S'DCP'
tp214
F7
s(g43
S'ANNCP'
tp215
F1
s(S'DP'
S'DDDP'
tp216
F3
s(S'DP'
p217
S'DDADVPP'
tp218
F1
s(S'NP'
S'ANVVP'
tp219
F6
s(S'NP'
S'NVVVVP'
tp220
F3
s(g160
S'NPPP'
tp221
F7
s(S'VP'
S'VAAAADP'
tp222
F1
s(S'DP'
p223
S'DAVP'
tp224
F5
s(S'VP'
S'VADVADVAP'
tp225
F1
s(S'AP'
S'ACP'
tp226
F17
s(S'PP'
S'AAPAP'
tp227
F1
s(S'PP'
S'PAAAPP'
tp228
F1
s(S'PP'
S'PPNP'
tp229
F14
s(g21
S'CDDADVPP'
tp230
F1
s(g107
S'ADP'
tp231
F142
s(S'DP'
S'AAAADPP'
tp232
F1
s(S'DP'
S'DVVVVP'
tp233
F2
s(S'NP'
S'AAAAANMP'
tp234
F1
s(S'AP'
S'AAADP'
tp235
F5
s(S'NP'
S'ANNVP'
tp236
F1
s(g87
S'VVAP'
tp237
F14
s(S'MP'
S'MNADVVP'
tp238
F1
s(g160
S'NPP'
tp239
F99
s(S'PP'
S'PPPPNP'
tp240
F1
s(g160
S'NVP'
tp241
F194
s(S'VP'
S'VDDP'
tp242
F15
s(S'NP'
S'AANNVP'
tp243
F2
s(S'NP'
S'ANCCCP'
tp244
F1
s(g81
S'ANPP'
tp245
F21
s(S'VP'
S'VAAAAPP'
tp246
F1
s(g46
S'PPPNP'
tp247
F3
s(S'AP'
S'ADVADVAVP'
tp248
F1
s(S'PP'
S'PNNP'
tp249
F15
s(S'VP'
S'AVAP'
tp250
F1
s(S'MP'
S'MMVP'
tp251
F1
s(S'PP'
S'PCCP'
tp252
F1
s(S'AP'
S'AADP'
tp253
F25
s(S'AP'
S'AADVADVADVVP'
tp254
F1
s(S'VP'
S'ADVADVADVVANNP'
tp255
F1
s(S'CP'
S'ACDP'
tp256
F3
s(S'VP'
S'VCCP'
tp257
F4
s(S'AP'
S'ADVANP'
tp258
F4
s(S'VP'
p259
S'VAP'
tp260
F61
s(S'VP'
S'VVVVNP'
tp261
F1
s(S'DP'
S'DDDPP'
tp262
F4
s(S'PP'
S'ADVPMP'
tp263
F1
s(S'AP'
S'AAVVP'
tp264
F1
s(S'NP'
S'ANDDDP'
tp265
F1
s(S'NP'
S'NAAP'
tp266
F7
s(S'VP'
S'VAANP'
tp267
F3
s(g87
S'VVDP'
tp268
F23
s(S'DP'
S'DDADVNP'
tp269
F1
s(S'PP'
p270
S'PANP'
tp271
F13
s(S'DP'
S'AADNP'
tp272
F1
s(S'VP'
S'VVADVADVADVPP'
tp273
F1
s(g151
S'MVVPPP'
tp274
F1
s(S'AP'
S'AAVP'
tp275
F1
s(S'AP'
S'AVVP'
tp276
F3
s(S'NP'
S'NDDP'
tp277
F4
s(g217
S'ADVADVDPPP'
tp278
F1
s(S'AP'
S'ACCP'
tp279
F3
s(S'VP'
S'AVPPP'
tp280
F1
s(S'NP'
p281
S'NDP'
tp282
F40
s(S'DP'
S'DDVP'
tp283
F6
s(g135
S'AANVP'
tp284
F4
s(S'VP'
S'VNNNP'
tp285
F2
s(S'PP'
S'ADVPAP'
tp286
F1
s(g177
S'PCP'
tp287
F7
s(g160
S'NNPPP'
tp288
F4
s(S'PP'
S'PAADP'
tp289
F1
s(g205
S'NNNMP'
tp290
F1
s(S'NP'
S'NNNDP'
tp291
F1
s(S'AP'
S'ADVACP'
tp292
F4
s(S'VP'
S'AVVDP'
tp293
F1
s(S'NP'
S'NNVP'
tp294
F22
s(S'CP'
S'CCDDP'
tp295
F3
s(S'NP'
S'NNADVVP'
tp296
F2
s(S'VP'
S'ADVADVADVVPP'
tp297
F1
s(g104
S'NNVVP'
tp298
F8
s(S'VP'
S'VVCP'
tp299
F4
s(g69
S'AANCP'
tp300
F4
s(g137
S'VADVNP'
tp301
F2
s(g33
S'ADVAVAP'
tp302
F1
s(S'PP'
S'APPP'
tp303
F1
s(S'VP'
S'ADVVPP'
tp304
F3
s(S'VP'
S'VVADVANP'
tp305
F1
s(S'CP'
S'CDAPPP'
tp306
F1
s(S'VP'
S'VNNP'
tp307
F19
s(S'AP'
S'AADVDP'
tp308
F3
s(g154
S'NADP'
tp309
F1
s(g182
S'DDNP'
tp310
F12
s(S'DP'
S'DDNNP'
tp311
F1
s(S'PP'
S'AAPPP'
tp312
F1
s(S'NP'
S'ADVANVP'
tp313
F1
s(S'AP'
p314
S'ADVADDP'
tp315
F1
s(S'PP'
S'PADP'
tp316
F4
s(S'NP'
S'AAAANADVVP'
tp317
F1
s(g59
S'ANVVVP'
tp318
F1
s(S'MP'
S'MVVNP'
tp319
F1
s(S'CP'
p320
S'ACDDP'
tp321
F1
s(S'AP'
S'AAPP'
tp322
F5
s(S'VP'
S'VVCCP'
tp323
F1
s(g281
S'NAPP'
tp324
F4
s(S'PP'
S'APPVP'
tp325
F1
s(S'NP'
p326
S'NADVDP'
tp327
F1
s(g259
S'VVVCP'
tp328
F2
s(S'PP'
S'APDDDP'
tp329
F2
s(S'MP'
S'MVDDP'
tp330
F1
s(g38
S'AANPP'
tp331
F7
s(S'NP'
S'NNMP'
tp332
F3
s(S'DP'
S'DDDVP'
tp333
F4
s(g203
S'PAAAP'
tp334
F2
s(g74
S'ANAP'
tp335
F7
s(S'MP'
S'MVAP'
tp336
F2
s(g54
S'PVP'
tp337
F87
s(g4
S'DADVAVP'
tp338
F1
s(S'DP'
S'DVVVP'
tp339
F2
s(S'PP'
S'PPDDP'
tp340
F1
s(S'VP'
S'AVCP'
tp341
F1
s(g13
S'DPP'
tp342
F189
s(S'NP'
S'ADVNVP'
tp343
F4
s(S'DP'
S'DDDVVP'
tp344
F1
s(S'DP'
p345
S'DDPP'
tp346
F33
s(g23
S'DANP'
tp347
F34
s(S'VP'
S'VVVVADVADVCCP'
tp348
F1
s(S'NP'
S'AANADVVP'
tp349
F1
s(S'PP'
S'PDDDP'
tp350
F1
s(S'VP'
S'VADVCP'
tp351
F2
s(S'NP'
S'NADVCCP'
tp352
F1
s(S'DP'
S'DCCP'
tp353
F1
s(S'PP'
S'AAPDP'
tp354
F2
s(g7
S'VVVAP'
tp355
F3
s(S'PP'
S'PDDP'
tp356
F10
s(S'DP'
p357
S'DADVADVADVVP'
tp358
F1
s(g18
S'AVDP'
tp359
F16
s(S'NP'
S'NNP'
tp360
F1
s(g33
S'VVDDP'
tp361
F3
s(S'DP'
S'DAANP'
tp362
F9
s(S'VP'
S'ADVADVADVVCP'
tp363
F1
s(S'AP'
S'ADDP'
tp364
F4
s(S'NP'
S'ADVADVNVVP'
tp365
F1
s(S'CP'
S'CADVADVDPP'
tp366
F2
s(S'DP'
S'DPPP'
tp367
F16
s(S'DP'
S'DAVVP'
tp368
F1
s(S'NP'
S'NNAVP'
tp369
F2
s(g270
S'ADVPNP'
tp370
F6
s(g54
S'PPDP'
tp371
F10
s(S'MP'
S'MAVDP'
tp372
F2
s(S'PP'
S'PPADVDDP'
tp373
F1
s(S'NP'
S'NAP'
tp374
F40
s(S'NP'
S'NNAAP'
tp375
F1
s(S'VP'
S'VAAAP'
tp376
F2
s(S'NP'
S'AAAAANVP'
tp377
F2
s(g314
S'AAADDDDDDP'
tp378
F1
s(S'VP'
S'ADVAVNP'
tp379
F1
s(g40
S'VVP'
tp380
F18
s(g31
S'DDAPP'
tp381
F1
s(S'PP'
S'APNP'
tp382
F2
s(S'VP'
S'VVVNNP'
tp383
F1
s(S'DP'
S'DDVVP'
tp384
F1
s(S'VP'
S'VVVNP'
tp385
F3
s(S'NP'
S'NAMP'
tp386
F1
s(S'MP'
S'MVANP'
tp387
F3
s(S'DP'
S'ADVADVDDPP'
tp388
F1
s(S'MP'
S'MVNNP'
tp389
F1
s(S'CP'
S'CDPP'
tp390
F151
s(S'AP'
S'ADDDP'
tp391
F3
s(S'NP'
S'NNADVADVVVP'
tp392
F1
s(S'CP'
S'ADVCDP'
tp393
F2
s(g54
S'PPNNP'
tp394
F1
s(g192
S'ADVADVDPP'
tp395
F2
s(g87
S'VDP'
tp396
F165
s(S'PP'
S'PPPADVNP'
tp397
F1
s(S'NP'
S'NADVAP'
tp398
F1
s(S'VP'
S'AVDDP'
tp399
F1
s(g23
S'DADVNP'
tp400
F1
s(g147
S'DAP'
tp401
F10
s(g320
S'CADPP'
tp402
F5
s(S'PP'
S'PPAVP'
tp403
F1
s(S'CP'
S'CDDPPPPP'
tp404
F1
s(S'CP'
S'CDPPPP'
tp405
F3
s(g169
S'AAVDP'
tp406
F1
s(S'PP'
S'PANNP'
tp407
F1
s(S'DP'
S'DAPPP'
tp408
F1
s(g223
S'DMP'
tp409
F4
s(S'DP'
S'ADVDPP'
tp410
F10
s(S'VP'
S'ADVADVVAP'
tp411
F1
s(g357
S'ADPP'
tp412
F10
s(g203
S'ADVPVP'
tp413
F2
s(g345
S'DAAP'
tp414
F4
s(g133
S'NNVVVP'
tp415
F3
s(S'PP'
S'ADVPDP'
tp416
F2
s(g164
S'ANNPP'
tp417
F2
s(g15
S'NCP'
tp418
F96
s(S'CP'
S'CADVDPPP'
tp419
F1
s(S'VP'
S'ADVVVPP'
tp420
F1
s(S'NP'
S'ADVANDP'
tp421
F1
s(S'AP'
S'AAAP'
tp422
F2
s(S'CP'
S'CDADVPP'
tp423
F6
s(S'NP'
S'AANDP'
tp424
F1
s(S'CP'
S'ADVADVCCDP'
tp425
F1
s(S'VP'
S'VAPP'
tp426
F2
s(S'VP'
S'ADVVDP'
tp427
F5
s(S'DP'
S'DADVPP'
tp428
F11
s(S'CP'
S'CCADP'
tp429
F1
s(S'PP'
S'ADVADVADVPNP'
tp430
F2
s(g76
S'ADVAPP'
tp431
F2
s(g207
S'PADVADVADVADP'
tp432
F1
s(S'NP'
S'NNNCCP'
tp433
F1
s(S'CP'
S'CCDDDP'
tp434
F1
s(S'DP'
S'ADVDPPP'
tp435
F1
s(S'DP'
S'DVP'
tp436
F134
s(S'AP'
S'AVP'
tp437
F15
s(g78
S'NADVVP'
tp438
F7
s(S'NP'
S'AAANNVP'
tp439
F1
s(S'VP'
S'ADVVPPP'
tp440
F1
s(S'DP'
S'DDPPP'
tp441
F2
s(g326
S'ADVNMP'
tp442
F1
s(S'NP'
S'NNAP'
tp443
F5
s(S'PP'
S'PPANP'
tp444
F2
s(S'DP'
S'DDADVVVP'
tp445
F1
s(g87
S'VNP'
tp446
F101
s(S'VP'
S'VANP'
tp447
F12
s(S'VP'
S'VADVAP'
tp448
F5
s.