ccollections
defaultdict
p1
(c__builtin__
float
p2
tRp3
(S'NP'
S'AAAANAP'
tp4
F2
s(S'DP'
S'ADDPP'
tp5
F2
s(S'NP'
S'ADVNNMP'
tp6
F1
s(S'VP'
p7
S'ADVVVNP'
tp8
F7
s(S'AP'
S'AADDDP'
tp9
F1
s(S'VP'
p10
S'VVVVP'
tp11
F1
s(S'DP'
p12
S'DAANNP'
tp13
F1
s(S'NP'
S'ANADVADVAAP'
tp14
F1
s(S'PP'
S'PAPP'
tp15
F1
s(S'PP'
S'PADVNP'
tp16
F6
s(S'DP'
p17
S'DNP'
tp18
F413
s(S'PP'
S'AAPDDP'
tp19
F1
s(S'CP'
S'CDPPP'
tp20
F34
s(S'VP'
p21
S'VADP'
tp22
F13
s(S'DP'
S'DNNNNP'
tp23
F1
s(S'DP'
S'DAAP'
tp24
F12
s(S'PP'
S'PPAVP'
tp25
F1
s(S'VP'
S'VAVP'
tp26
F1
s(S'PP'
p27
S'APPDP'
tp28
F1
s(S'DP'
p29
S'DAADP'
tp30
F1
s(S'DP'
p31
S'ADNNP'
tp32
F4
s(S'VP'
p33
S'VADVVVP'
tp34
F1
s(S'MP'
S'MDVP'
tp35
F1
s(S'PP'
S'APVP'
tp36
F6
s(S'MP'
S'MVDP'
tp37
F27
s(S'CP'
S'AAACCDP'
tp38
F1
s(S'PP'
p39
S'PPPP'
tp40
F12
s(S'DP'
p41
S'DDDNP'
tp42
F5
s(g21
S'VACP'
tp43
F4
s(S'DP'
S'DADVVP'
tp44
F9
s(S'PP'
S'PADVNNP'
tp45
F1
s(S'AP'
S'AADVPP'
tp46
F1
s(S'VP'
S'AAVVP'
tp47
F1
s(S'NP'
S'NADVVVP'
tp48
F7
s(S'VP'
S'VCP'
tp49
F170
s(S'NP'
S'NMMP'
tp50
F6
s(S'NP'
S'ADVADVNNCCP'
tp51
F1
s(S'VP'
p52
S'ADVVAAP'
tp53
F2
s(S'NP'
S'AAAANPP'
tp54
F2
s(S'PP'
S'ADVPNNP'
tp55
F2
s(S'PP'
S'PAP'
tp56
F94
s(S'MP'
S'MMVVP'
tp57
F1
s(S'VP'
S'VADVADVAP'
tp58
F3
s(S'NP'
p59
S'ANNCCP'
tp60
F1
s(S'PP'
S'ADVPPVP'
tp61
F1
s(S'NP'
S'NNNAP'
tp62
F1
s(S'NP'
S'ANPPP'
tp63
F4
s(S'NP'
p64
S'NAAAVP'
tp65
F1
s(S'NP'
S'NNNNVVVP'
tp66
F1
s(S'VP'
S'ADVADVVPPP'
tp67
F1
s(S'PP'
p68
S'PNP'
tp69
F361
s(S'DP'
S'DDDADVADVNNP'
tp70
F1
s(S'DP'
S'DDP'
tp71
F30
s(S'VP'
S'ADVVDDP'
tp72
F4
s(S'NP'
p73
S'NNNPP'
tp74
F4
s(S'PP'
S'PAAP'
tp75
F11
s(S'MP'
S'MCDP'
tp76
F3
s(S'NP'
S'ANADVAP'
tp77
F1
s(S'DP'
S'DDAANP'
tp78
F4
s(S'VP'
S'ADVADVVVCP'
tp79
F1
s(S'NP'
p80
S'NMP'
tp81
F120
s(S'CP'
S'CADVDADVPP'
tp82
F1
s(S'VP'
S'AAVNP'
tp83
F1
s(g68
S'PDP'
tp84
F394
s(S'CP'
S'CCADVADVDP'
tp85
F1
s(S'CP'
S'CDADVADVPP'
tp86
F2
s(S'AP'
S'AAANP'
tp87
F1
s(S'NP'
S'AAANVVP'
tp88
F1
s(S'CP'
S'CDADVADVPPP'
tp89
F1
s(S'AP'
S'ANP'
tp90
F3
s(S'PP'
S'PADVPP'
tp91
F2
s(S'VP'
S'AAVPP'
tp92
F1
s(S'VP'
p93
S'VVADVNP'
tp94
F1
s(S'NP'
p95
S'ANVVVVP'
tp96
F2
s(S'MP'
S'MVVADVADVDP'
tp97
F1
s(S'DP'
S'DPPPP'
tp98
F4
s(S'DP'
S'DDANP'
tp99
F1
s(S'PP'
S'PADVADP'
tp100
F1
s(S'NP'
p101
S'NACP'
tp102
F6
s(S'AP'
S'ADVAVP'
tp103
F4
s(S'NP'
p104
S'NCCP'
tp105
F28
s(S'DP'
S'DADVADVVVP'
tp106
F3
s(S'AP'
S'AAAADP'
tp107
F1
s(S'NP'
p108
S'NNCP'
tp109
F31
s(g31
S'ADVDDPP'
tp110
F3
s(S'NP'
p111
S'NADVADVVP'
tp112
F3
s(S'DP'
S'DPPPPP'
tp113
F1
s(S'VP'
p114
S'AVNP'
tp115
F6
s(S'VP'
S'VVADP'
tp116
F4
s(S'NP'
S'ADVNDDP'
tp117
F1
s(S'DP'
p118
S'DDAAANP'
tp119
F1
s(S'PP'
S'PADVADVANP'
tp120
F1
s(S'VP'
S'ADVADVADVVVDP'
tp121
F1
s(S'PP'
S'ADVPVVP'
tp122
F2
s(S'VP'
S'VADVVP'
tp123
F8
s(S'CP'
S'ACCDDP'
tp124
F1
s(S'MP'
S'MVVVDDP'
tp125
F1
s(S'MP'
S'MVAPP'
tp126
F1
s(S'NP'
p127
S'ADVADVADVNNDP'
tp128
F1
s(S'NP'
S'ANADVVP'
tp129
F1
s(S'PP'
S'PPAAAADDP'
tp130
F1
s(S'PP'
S'ADVPADVNP'
tp131
F1
s(S'NP'
S'NCCCCP'
tp132
F1
s(S'CP'
S'CCCDP'
tp133
F4
s(g21
S'ADVVAP'
tp134
F8
s(g7
S'VCCCP'
tp135
F2
s(S'PP'
S'APDP'
tp136
F27
s(S'NP'
S'NNNAAP'
tp137
F1
s(S'DP'
S'AAAADDNP'
tp138
F1
s(S'MP'
S'MVADVVP'
tp139
F1
s(S'DP'
p140
S'DDANNP'
tp141
F1
s(S'PP'
p142
S'AAPPDP'
tp143
F1
s(g10
S'VVANP'
tp144
F1
s(S'VP'
S'VVVVDP'
tp145
F5
s(S'VP'
S'ADVVVP'
tp146
F1
s(S'CP'
S'CADADVPPP'
tp147
F1
s(S'AP'
S'AANP'
tp148
F1
s(S'MP'
S'MVVVCCP'
tp149
F1
s(S'MP'
S'MADVVNP'
tp150
F3
s(S'NP'
p151
S'ADVANCP'
tp152
F2
s(S'DP'
S'DNNP'
tp153
F86
s(S'CP'
S'CADVDDPP'
tp154
F1
s(S'DP'
S'ADVADVDDNP'
tp155
F2
s(S'CP'
S'CCADVDP'
tp156
F2
s(S'VP'
S'VVNNNP'
tp157
F1
s(S'VP'
S'ADVADVVVAANNP'
tp158
F1
s(g33
S'AAVDDP'
tp159
F3
s(S'NP'
S'NNNVP'
tp160
F10
s(S'VP'
S'VADVNNP'
tp161
F1
s(S'AP'
p162
S'AAAAAAP'
tp163
F1
s(S'VP'
S'VVANNP'
tp164
F1
s(S'PP'
S'PADVVP'
tp165
F10
s(S'DP'
p166
S'DACP'
tp167
F1
s(S'PP'
S'APAP'
tp168
F3
s(S'NP'
S'NANP'
tp169
F4
s(S'CP'
S'ADVADVCDP'
tp170
F2
s(S'NP'
S'AANADVVVP'
tp171
F1
s(S'NP'
p172
S'NADVMP'
tp173
F1
s(S'AP'
S'AAP'
tp174
F15
s(S'VP'
S'VADVADVVP'
tp175
F1
s(S'VP'
S'VVAPP'
tp176
F1
s(S'NP'
S'ADVADVNDP'
tp177
F1
s(S'VP'
p178
S'VADVADVNP'
tp179
F3
s(S'MP'
S'MPVP'
tp180
F1
s(S'MP'
S'MVVVNP'
tp181
F1
s(S'PP'
S'PAANP'
tp182
F2
s(S'VP'
S'VADVADVCP'
tp183
F1
s(S'DP'
S'ADVDVP'
tp184
F3
s(S'PP'
S'PPVVP'
tp185
F4
s(S'VP'
p186
S'VAACP'
tp187
F1
s(S'VP'
S'VVAVP'
tp188
F1
s(S'MP'
S'MVNP'
tp189
F36
s(S'NP'
S'ANAAP'
tp190
F1
s(S'AP'
p191
S'ADVAADP'
tp192
F4
s(S'PP'
S'PAVP'
tp193
F12
s(S'MP'
p194
S'ADVMVP'
tp195
F3
s(S'DP'
S'ADVDVVP'
tp196
F1
s(S'VP'
p197
S'VVVPP'
tp198
F9
s(S'MP'
S'MADVVPP'
tp199
F2
s(S'DP'
p200
S'DADP'
tp201
F2
s(S'DP'
S'DADVADVPPP'
tp202
F1
s(S'AP'
S'ADVADP'
tp203
F6
s(S'AP'
S'APP'
tp204
F56
s(S'DP'
S'ADVDDP'
tp205
F1
s(S'PP'
p206
S'APDDP'
tp207
F3
s(S'VP'
S'ADVADVVVNP'
tp208
F2
s(S'DP'
S'DDVVVVP'
tp209
F1
s(S'NP'
S'NNACCP'
tp210
F1
s(S'PP'
S'APPP'
tp211
F1
s(S'DP'
S'DAAAVP'
tp212
F1
s(S'VP'
S'ADVVNP'
tp213
F16
s(S'PP'
S'AAAAPPDP'
tp214
F1
s(S'MP'
S'MNCP'
tp215
F1
s(S'VP'
S'VVNP'
tp216
F33
s(S'PP'
S'ADVPPPP'
tp217
F1
s(S'PP'
S'PPVP'
tp218
F32
s(S'CP'
S'ACCADVDDP'
tp219
F1
s(S'VP'
S'VADVDP'
tp220
F2
s(S'MP'
S'MVVVPP'
tp221
F2
s(S'VP'
S'VVADVAP'
tp222
F2
s(S'VP'
p223
S'VAAP'
tp224
F16
s(S'NP'
p225
S'ANDP'
tp226
F15
s(S'NP'
S'NVVP'
tp227
F76
s(g206
S'AAPVP'
tp228
F4
s(S'VP'
S'ADVADVADVADVVVDDP'
tp229
F1
s(S'VP'
S'VMP'
tp230
F3
s(S'NP'
S'ANNAP'
tp231
F3
s(S'VP'
p232
S'VVNNP'
tp233
F7
s(S'CP'
S'CDAPP'
tp234
F6
s(S'VP'
S'VVAAP'
tp235
F2
s(S'DP'
S'ADVADVP'
tp236
F1
s(S'DP'
S'ADNP'
tp237
F11
s(g162
S'AAAAADP'
tp238
F2
s(S'PP'
S'PADP'
tp239
F17
s(S'VP'
S'ADVVVCP'
tp240
F2
s(S'NP'
S'ANDDP'
tp241
F2
s(S'PP'
p242
S'AAAAPNNP'
tp243
F1
s(S'DP'
S'ADVADVDVP'
tp244
F1
s(S'DP'
p245
S'DADVAP'
tp246
F7
s(S'DP'
S'DAPP'
tp247
F17
s(g114
S'AVVP'
tp248
F2
s(S'VP'
S'ADVADVVPP'
tp249
F2
s(S'MP'
S'MADVADVVNP'
tp250
F1
s(S'DP'
S'DAAVP'
tp251
F3
s(S'VP'
p252
S'ADVADVADVVDP'
tp253
F1
s(S'VP'
S'VVAANP'
tp254
F1
s(S'VP'
S'ADVADVVDP'
tp255
F6
s(S'PP'
S'PPPDP'
tp256
F2
s(S'MP'
S'MVVVDP'
tp257
F1
s(S'DP'
S'DDAAVP'
tp258
F1
s(S'MP'
S'MVVAP'
tp259
F1
s(g52
S'VDDDDP'
tp260
F1
s(S'DP'
S'DADVANP'
tp261
F2
s(S'NP'
S'ANADVVVP'
tp262
F2
s(S'VP'
S'VAAPP'
tp263
F1
s(S'DP'
S'ADANNP'
tp264
F1
s(S'DP'
S'ADVDNP'
tp265
F3
s(S'VP'
p266
S'VVPP'
tp267
F43
s(S'CP'
S'CDDPP'
tp268
F41
s(S'CP'
S'AACDDP'
tp269
F1
s(S'MP'
S'MVPP'
tp270
F15
s(S'DP'
p271
S'ADVP'
tp272
F8
s(S'MP'
S'MVADP'
tp273
F2
s(S'VP'
S'VADVADVNNP'
tp274
F1
s(g80
S'NNPP'
tp275
F31
s(S'NP'
p276
S'ADVADVADVADVNNCCP'
tp277
F1
s(S'DP'
S'DDDDNP'
tp278
F1
s(S'MP'
S'MVVDP'
tp279
F9
s(S'AP'
S'AACP'
tp280
F11
s(S'NP'
p281
S'ANVP'
tp282
F14
s(S'DP'
S'DNNNP'
tp283
F15
s(S'DP'
S'ADVDADVPP'
tp284
F1
s(g271
S'ADVDDVP'
tp285
F3
s(S'PP'
S'PADVADVVP'
tp286
F3
s(S'NP'
S'ANAP'
tp287
F15
s(S'NP'
S'AAAANDP'
tp288
F1
s(S'DP'
S'DADVADVADVNNP'
tp289
F1
s(S'PP'
S'PVVVP'
tp290
F5
s(S'PP'
p291
S'PMP'
tp292
F3
s(S'PP'
S'PADVADVADVVP'
tp293
F1
s(g142
S'PAAPPP'
tp294
F1
s(S'CP'
p295
S'CCDP'
tp296
F63
s(S'MP'
S'AMVP'
tp297
F2
s(S'NP'
S'NAAACCP'
tp298
F1
s(S'VP'
S'VADVADVANP'
tp299
F1
s(g225
S'NVVVP'
tp300
F23
s(S'CP'
S'CDDDPP'
tp301
F6
s(S'CP'
S'CDAAPP'
tp302
F3
s(S'PP'
S'PAAVP'
tp303
F3
s(S'VP'
S'VVVDP'
tp304
F22
s(S'PP'
S'PDDDDP'
tp305
F1
s(g291
S'PNNNP'
tp306
F5
s(S'CP'
S'CCCCDP'
tp307
F1
s(S'PP'
S'PADVADVADVNNP'
tp308
F1
s(S'AP'
S'AACCP'
tp309
F1
s(S'PP'
S'AAPNP'
tp310
F1
s(S'PP'
p311
S'PPP'
tp312
F44
s(g104
S'NAVP'
tp313
F7
s(S'PP'
p314
S'PADVAP'
tp315
F2
s(S'DP'
S'DDNNNP'
tp316
F1
s(S'VP'
S'VVVANP'
tp317
F1
s(S'NP'
S'NAAAP'
tp318
F1
s(S'NP'
S'NCCCP'
tp319
F1
s(S'DP'
S'ADVADVDNNP'
tp320
F1
s(S'AP'
S'AADVVP'
tp321
F2
s(g39
S'PPPPDP'
tp322
F1
s(S'MP'
S'MADVADVVPP'
tp323
F1
s(S'DP'
p324
S'ADVADVDNP'
tp325
F1
s(S'CP'
S'CADPP'
tp326
F20
s(S'VP'
p327
S'VPP'
tp328
F237
s(S'CP'
S'ADVCCDP'
tp329
F1
s(S'DP'
S'ADVDDPPP'
tp330
F1
s(S'NP'
p331
S'NNNCP'
tp332
F3
s(S'PP'
S'PADVDP'
tp333
F6
s(S'CP'
S'CDDDPPP'
tp334
F1
s(S'DP'
S'DANNP'
tp335
F5
s(S'MP'
S'MADVVAP'
tp336
F3
s(S'PP'
p337
S'PADVAAP'
tp338
F2
s(S'NP'
S'AAAANVP'
tp339
F10
s(S'DP'
S'DAAPP'
tp340
F4
s(S'PP'
p341
S'PVVP'
tp342
F27
s(S'CP'
S'CADPPP'
tp343
F4
s(S'DP'
S'DADVPPP'
tp344
F4
s(S'VP'
S'ADVVCP'
tp345
F7
s(S'MP'
S'MCCDP'
tp346
F1
s(S'VP'
S'VPPP'
tp347
F26
s(g17
S'ADDDPPP'
tp348
F1
s(S'DP'
S'ADADVVVP'
tp349
F1
s(g178
S'VVPPP'
tp350
F7
s(g33
S'ADVVVCCP'
tp351
F1
s(S'NP'
S'ADVNAMP'
tp352
F1
s(S'PP'
S'PPAP'
tp353
F7
s(g17
S'DVVP'
tp354
F36
s(g186
S'VVVADVAP'
tp355
F1
s(S'NP'
S'ADVADVANADVAP'
tp356
F1
s(S'NP'
S'ANMP'
tp357
F1
s(S'AP'
p358
S'APPP'
tp359
F3
s(S'PP'
S'ADVPPP'
tp360
F1
s(S'VP'
S'AAAVVP'
tp361
F1
s(g197
S'VVVP'
tp362
F8
s(S'CP'
S'CADVDPP'
tp363
F20
s(S'NP'
p364
S'ADVADVNNVP'
tp365
F1
s(S'VP'
S'VVVADVVP'
tp366
F1
s(S'NP'
p367
S'ANCP'
tp368
F33
s(g271
S'DCP'
tp369
F26
s(S'VP'
S'ADVVVVP'
tp370
F1
s(S'AP'
S'AAADVADVADVADVVP'
tp371
F1
s(S'NP'
S'NNVVVVP'
tp372
F1
s(S'NP'
S'ADVADVANAAP'
tp373
F1
s(S'DP'
S'DDDP'
tp374
F4
s(S'DP'
S'DDADVPP'
tp375
F1
s(S'MP'
S'MVVVVNP'
tp376
F1
s(S'NP'
S'ANNVVP'
tp377
F2
s(S'NP'
S'ANVVP'
tp378
F5
s(g327
S'VVDP'
tp379
F73
s(S'NP'
S'NPPP'
tp380
F25
s(S'DP'
S'ADVADVDAAPP'
tp381
F1
s(S'MP'
S'AMVVP'
tp382
F1
s(S'DP'
S'DAVP'
tp383
F14
s(S'NP'
S'NNNMP'
tp384
F2
s(S'NP'
S'NNNNMP'
tp385
F1
s(S'AP'
S'ACP'
tp386
F52
s(S'VP'
S'AVVVVP'
tp387
F1
s(g68
S'PPNP'
tp388
F39
s(S'NP'
S'ADVADVNVP'
tp389
F1
s(S'AP'
S'ADVACCP'
tp390
F1
s(S'DP'
S'AADVP'
tp391
F2
s(S'PP'
S'PPPPDDP'
tp392
F1
s(S'VP'
p393
S'VAANNP'
tp394
F1
s(S'CP'
S'CDDADVPP'
tp395
F1
s(S'AP'
S'ADP'
tp396
F405
s(S'CP'
S'CADVDDPPP'
tp397
F1
s(S'DP'
S'DDAVP'
tp398
F2
s(S'AP'
S'ADVAADDP'
tp399
F1
s(S'PP'
S'ADVADVPPNNNP'
tp400
F1
s(S'DP'
S'DVVVVP'
tp401
F1
s(S'VP'
S'AAAVDP'
tp402
F2
s(S'VP'
S'AVDP'
tp403
F20
s(S'NP'
S'ANNVP'
tp404
F1
s(S'VP'
S'VVAP'
tp405
F22
s(S'NP'
p406
S'NNAPP'
tp407
F1
s(S'NP'
S'ADVNACCP'
tp408
F1
s(S'PP'
S'PADVADVDP'
tp409
F2
s(S'VP'
S'VAAAPP'
tp410
F1
s(S'CP'
S'CADPPPP'
tp411
F1
s(S'NP'
p412
S'NPP'
tp413
F270
s(S'VP'
p414
S'ADVADVVAP'
tp415
F2
s(g151
S'NADVANP'
tp416
F1
s(S'MP'
S'MADVADVADVVAAP'
tp417
F1
s(S'VP'
S'VVVVAANP'
tp418
F1
s(g276
S'NAAPP'
tp419
F1
s(S'VP'
S'VDDP'
tp420
F38
s(S'AP'
S'AAADVDP'
tp421
F1
s(S'NP'
p422
S'AANNVP'
tp423
F1
s(S'DP'
S'DMP'
tp424
F10
s(S'DP'
S'DADVAPP'
tp425
F1
s(S'NP'
S'ANCCCP'
tp426
F1
s(S'NP'
p427
S'ANPP'
tp428
F43
s(S'PP'
p429
S'ADVPPDP'
tp430
F3
s(S'PP'
S'ADVADVPDP'
tp431
F1
s(S'MP'
S'MVVPP'
tp432
F2
s(g41
S'ADVDPP'
tp433
F25
s(S'NP'
S'NPPPP'
tp434
F3
s(S'DP'
S'ADDP'
tp435
F2
s(S'NP'
S'NADVAAP'
tp436
F1
s(S'CP'
S'CAADPP'
tp437
F2
s(S'DP'
S'DADVADVVP'
tp438
F1
s(S'NP'
S'NAACP'
tp439
F2
s(g341
S'PNNP'
tp440
F48
s(S'PP'
S'APNNP'
tp441
F1
s(S'VP'
S'ADVADVAVVP'
tp442
F1
s(S'NP'
S'NNNNMMP'
tp443
F1
s(S'VP'
S'AVAP'
tp444
F2
s(S'MP'
S'MMVP'
tp445
F6
s(S'PP'
S'PADVDDP'
tp446
F2
s(S'NP'
p447
S'ADVNCP'
tp448
F5
s(S'AP'
S'AADP'
tp449
F42
s(S'CP'
S'ACDP'
tp450
F10
s(g266
S'VCCP'
tp451
F23
s(S'AP'
S'ADVANP'
tp452
F5
s(S'NP'
S'NNACP'
tp453
F1
s(S'VP'
S'VAAAAPPP'
tp454
F1
s(S'CP'
S'CDADVPPP'
tp455
F4
s(g327
S'VAP'
tp456
F190
s(S'VP'
p457
S'VVVVNP'
tp458
F4
s(S'MP'
S'MNVVP'
tp459
F1
s(S'DP'
p460
S'DDDPP'
tp461
F10
s(S'PP'
S'PPPNNP'
tp462
F1
s(S'NP'
S'AANNCP'
tp463
F1
s(S'PP'
S'ADVPMP'
tp464
F1
s(g206
S'PAAPP'
tp465
F1
s(S'AP'
S'AAVVP'
tp466
F1
s(S'DP'
S'DDDPPP'
tp467
F1
s(S'VP'
S'ADVAVDP'
tp468
F1
s(g324
S'ADAP'
tp469
F1
s(g200
S'ADADVVP'
tp470
F1
s(S'VP'
S'ADVVVDP'
tp471
F3
s(S'PP'
S'PPPVP'
tp472
F1
s(S'AP'
S'AADDP'
tp473
F1
s(S'VP'
p474
S'VAANP'
tp475
F3
s(S'NP'
S'NADVADVCP'
tp476
F1
s(S'DP'
p477
S'DAAAAPP'
tp478
F1
s(S'NP'
S'NVVVVP'
tp479
F6
s(g194
S'MADP'
tp480
F3
s(S'VP'
S'ADVADVADVVAP'
tp481
F1
s(S'DP'
S'DDADVNP'
tp482
F1
s(S'PP'
p483
S'PANP'
tp484
F21
s(S'NP'
S'AANMP'
tp485
F1
s(S'AP'
S'AAVP'
tp486
F8
s(S'NP'
S'NAAP'
tp487
F9
s(g427
S'NDDP'
tp488
F11
s(S'PP'
S'PADVMP'
tp489
F1
s(S'AP'
S'ACCP'
tp490
F5
s(S'VP'
S'AVPPP'
tp491
F1
s(S'NP'
S'NDP'
tp492
F111
s(S'NP'
S'AAANVP'
tp493
F4
s(S'MP'
S'MVAAP'
tp494
F2
s(g324
S'DDVP'
tp495
F25
s(S'DP'
S'ADADVPPP'
tp496
F1
s(g331
S'AANVP'
tp497
F7
s(g429
S'PPADVANP'
tp498
F1
s(S'VP'
S'VNNNP'
tp499
F2
s(S'VP'
S'VADVADVPP'
tp500
F1
s(S'PP'
S'ADVPAP'
tp501
F1
s(S'PP'
S'PCP'
tp502
F13
s(g447
S'NNPPP'
tp503
F4
s(g64
S'ADVNNVP'
tp504
F1
s(S'VP'
S'ADVAVCP'
tp505
F2
s(S'NP'
S'NNNDP'
tp506
F3
s(S'AP'
S'ADVACP'
tp507
F6
s(S'NP'
S'AANVVVP'
tp508
F1
s(S'VP'
S'VVVAP'
tp509
F3
s(S'DP'
S'ADPPP'
tp510
F7
s(S'NP'
S'NNAAVP'
tp511
F1
s(S'MP'
S'MVCP'
tp512
F5
s(S'CP'
S'CCDDP'
tp513
F6
s(S'NP'
S'NNADVVP'
tp514
F3
s(S'DP'
S'DDADP'
tp515
F1
s(S'NP'
S'NNNADVMP'
tp516
F1
s(S'NP'
p517
S'NNVVP'
tp518
F20
s(g364
S'NNNNVP'
tp519
F5
s(S'VP'
S'VVCP'
tp520
F12
s(S'NP'
S'AANCP'
tp521
F7
s(g223
S'VADVNP'
tp522
F1
s(S'AP'
S'ADVAVVP'
tp523
F3
s(S'NP'
S'NNDDP'
tp524
F3
s(S'VP'
S'ADVVPP'
tp525
F9
s(S'CP'
S'CADVADVADVDDPP'
tp526
F1
s(S'NP'
S'ADVNNVVP'
tp527
F1
s(S'VP'
S'VNNP'
tp528
F38
s(S'AP'
S'AADVDP'
tp529
F2
s(S'NP'
S'NADP'
tp530
F2
s(S'MP'
S'MDDDNP'
tp531
F1
s(S'CP'
S'ACADVDP'
tp532
F1
s(S'NP'
S'NADVCP'
tp533
F2
s(g118
S'DDNNP'
tp534
F5
s(S'VP'
S'VPPPPP'
tp535
F1
s(S'PP'
S'PADVADVVVP'
tp536
F1
s(S'VP'
S'ADVVVVPP'
tp537
F1
s(g406
S'ADVADVNCP'
tp538
F2
s(g29
S'AADPP'
tp539
F3
s(g101
S'NNNNPP'
tp540
F2
s(S'VP'
S'ADVADVADVVAAP'
tp541
F1
s(S'DP'
S'DADVADVANP'
tp542
F1
s(S'VP'
S'VVVVCP'
tp543
F1
s(g358
S'AADVADVVP'
tp544
F1
s(S'CP'
S'CDPPPPP'
tp545
F1
s(S'NP'
S'ANVVVP'
tp546
F1
s(S'MP'
S'MVVNP'
tp547
F1
s(S'CP'
S'CDDADVPPP'
tp548
F1
s(S'CP'
p549
S'ACDDP'
tp550
F2
s(S'AP'
S'AAPP'
tp551
F9
s(S'AP'
S'ADVADVACCP'
tp552
F1
s(g93
S'VVCCP'
tp553
F2
s(S'CP'
S'CADVADVDAAPP'
tp554
F1
s(S'NP'
S'ADVNANP'
tp555
F1
s(S'DP'
S'DADVVVP'
tp556
F2
s(S'DP'
S'DADVADVNP'
tp557
F1
s(S'NP'
S'AAAAANPP'
tp558
F2
s(S'VP'
S'VVVCCP'
tp559
F2
s(g281
S'NAPP'
tp560
F12
s(S'PP'
p561
S'APPVP'
tp562
F1
s(g73
S'NADVDP'
tp563
F1
s(S'VP'
S'VVVCP'
tp564
F2
s(g517
S'ANCCP'
tp565
F5
s(g101
S'AANPP'
tp566
F7
s(S'NP'
S'NNCCP'
tp567
F2
s(S'NP'
S'NNMP'
tp568
F16
s(S'DP'
p569
S'DDDVP'
tp570
F7
s(S'CP'
S'CADDPP'
tp571
F2
s(S'PP'
S'PAAAP'
tp572
F3
s(S'PP'
S'ADVADVPNP'
tp573
F1
s(S'VP'
S'VVVDDP'
tp574
F3
s(S'PP'
S'PPADVADVVVP'
tp575
F1
s(S'CP'
S'CDDAPP'
tp576
F2
s(g108
S'ADVANVVP'
tp577
F1
s(S'MP'
S'MVAP'
tp578
F11
s(S'VP'
S'VADVADVDDP'
tp579
F1
s(g311
S'PVP'
tp580
F236
s(g232
S'VADVPPP'
tp581
F3
s(S'DP'
S'DADVAVP'
tp582
F4
s(S'AP'
S'ADVADVAPP'
tp583
F1
s(S'VP'
S'VADVCCP'
tp584
F1
s(S'MP'
S'MVVVVAANP'
tp585
F1
s(S'DP'
S'DVVVP'
tp586
F8
s(S'DP'
S'DDDDNNNP'
tp587
F1
s(S'DP'
S'ADVADVADVDNP'
tp588
F1
s(g172
S'ADVADVANVP'
tp589
F1
s(S'PP'
S'PPDDP'
tp590
F2
s(S'VP'
S'AVCP'
tp591
F4
s(S'DP'
S'DDVVVP'
tp592
F1
s(g17
S'DPP'
tp593
F540
s(S'NP'
S'ADVNVP'
tp594
F3
s(g166
S'DDPP'
tp595
F70
s(S'DP'
S'DDADVPPP'
tp596
F1
s(g166
S'DANP'
tp597
F92
s(g295
S'ACADDDP'
tp598
F1
s(S'NP'
S'AANADVVP'
tp599
F1
s(g95
S'NAAVP'
tp600
F4
s(g561
S'PDDDP'
tp601
F3
s(S'MP'
S'MDNP'
tp602
F1
s(S'DP'
S'DADVADVAVP'
tp603
F1
s(g59
S'NNNVVP'
tp604
F4
s(S'DP'
S'DCCP'
tp605
F1
s(S'MP'
S'MAAAVDP'
tp606
F1
s(S'NP'
S'NNAANP'
tp607
F1
s(S'PP'
S'AAPDP'
tp608
F1
s(S'MP'
S'MADVVDP'
tp609
F1
s(S'VP'
S'VVADVADVNNP'
tp610
F1
s(g242
S'PDDP'
tp611
F25
s(S'MP'
S'MVDDP'
tp612
F2
s(S'PP'
S'PCCP'
tp613
F1
s(S'PP'
S'ADVAPNP'
tp614
F1
s(g191
S'AADVDDP'
tp615
F1
s(S'NP'
S'NADVADVVVP'
tp616
F1
s(S'AP'
S'ADVADVACP'
tp617
F3
s(S'NP'
S'NNP'
tp618
F1
s(S'VP'
S'VVDDP'
tp619
F6
s(g569
S'DAANP'
tp620
F23
s(S'AP'
S'ADDP'
tp621
F26
s(g68
S'PNNNNP'
tp622
F5
s(g27
S'PPAPPP'
tp623
F1
s(S'VP'
S'ADVVVAP'
tp624
F2
s(S'PP'
S'ADVPPNP'
tp625
F4
s(g252
S'VADVADVADVVP'
tp626
F1
s(S'NP'
S'ADVADVNVVP'
tp627
F1
s(S'NP'
S'ADVADVNNMP'
tp628
F1
s(S'CP'
S'CADVADVDPP'
tp629
F5
s(g460
S'DPPP'
tp630
F56
s(S'MP'
S'MVPPP'
tp631
F1
s(g127
S'NNAVP'
tp632
F3
s(S'AP'
S'AVVP'
tp633
F6
s(S'PP'
S'ADVPNP'
tp634
F6
s(g483
S'PPDP'
tp635
F50
s(S'DP'
S'ADVDDADVPP'
tp636
F1
s(S'NP'
S'ADVADVADVADVNADVVVVP'
tp637
F1
s(S'AP'
S'AAPPP'
tp638
F2
s(g412
S'NNVP'
tp639
F112
s(S'DP'
S'DDCP'
tp640
F1
s(S'AP'
S'ADVADVAADP'
tp641
F1
s(S'DP'
S'ADVDADVNP'
tp642
F1
s(g367
S'NAP'
tp643
F119
s(S'NP'
S'ADVANAP'
tp644
F1
s(S'VP'
S'VAAAP'
tp645
F2
s(S'NP'
S'AAAAANVP'
tp646
F3
s(S'VP'
S'VADVANP'
tp647
F1
s(S'VP'
S'VVP'
tp648
F21
s(S'DP'
S'DDAPP'
tp649
F3
s(S'PP'
S'ADVADVPVP'
tp650
F1
s(S'AP'
S'AAADP'
tp651
F5
s(S'PP'
S'APNP'
tp652
F8
s(S'DP'
S'DDVVP'
tp653
F6
s(S'VP'
S'VVVNP'
tp654
F10
s(S'NP'
S'NAMP'
tp655
F2
s(S'MP'
S'MVNNP'
tp656
F2
s(g549
S'CDPP'
tp657
F423
s(S'MP'
S'MVVNNP'
tp658
F1
s(S'AP'
S'ADDDP'
tp659
F7
s(S'NP'
S'NNADVADVVVP'
tp660
F3
s(g73
S'NNDP'
tp661
F11
s(S'CP'
S'ADVCDP'
tp662
F2
s(S'VP'
S'ADVADVVNP'
tp663
F4
s(S'PP'
S'PPNNP'
tp664
F3
s(S'PP'
S'PPMP'
tp665
F1
s(g140
S'ADVADVDPP'
tp666
F6
s(g266
S'VDP'
tp667
F421
s(g73
S'NADVAP'
tp668
F7
s(S'VP'
S'AVDDP'
tp669
F1
s(S'DP'
S'DADVNP'
tp670
F4
s(S'DP'
p671
S'DAP'
tp672
F75
s(g393
S'VAAAAP'
tp673
F1
s(S'CP'
S'CADVDDADVPP'
tp674
F1
s(S'VP'
S'ADVADVVVPP'
tp675
F1
s(S'MP'
S'MADVADVVDP'
tp676
F2
s(g337
S'PPDDDP'
tp677
F1
s(g457
S'AVPP'
tp678
F5
s(S'DP'
S'DDNNNNP'
tp679
F3
s(S'VP'
S'VVADVDP'
tp680
F1
s(S'CP'
S'CDPPPP'
tp681
F4
s(S'MP'
S'MVADVADVADVDP'
tp682
F1
s(S'VP'
S'AAVDP'
tp683
F6
s(S'PP'
S'PANNP'
tp684
F1
s(S'VP'
S'ADVADVADVADVVPP'
tp685
F1
s(S'NP'
S'ADVANMP'
tp686
F1
s(S'AP'
S'AAAPP'
tp687
F1
s(S'DP'
S'ADPPPP'
tp688
F1
s(g41
S'DAPPP'
tp689
F1
s(S'DP'
S'DADVADVPP'
tp690
F2
s(S'NP'
S'AANVVP'
tp691
F5
s(S'PP'
S'PPPNP'
tp692
F3
s(S'NP'
S'NADVADVDP'
tp693
F1
s(S'PP'
S'PADVADVNP'
tp694
F1
s(S'DP'
S'ADVADVADVDDPP'
tp695
F1
s(g671
S'ADPP'
tp696
F28
s(S'PP'
S'PPPVVP'
tp697
F1
s(S'NP'
S'NNADVVVP'
tp698
F3
s(g101
S'NVP'
tp699
F568
s(S'VP'
S'VADVPP'
tp700
F1
s(S'CP'
S'CDDPPP'
tp701
F1
s(S'CP'
S'CCADVDDP'
tp702
F1
s(S'PP'
S'ADVPVP'
tp703
F4
s(g111
S'NADVADVADVVVP'
tp704
F4
s(S'NP'
S'NNVVVP'
tp705
F5
s(S'DP'
S'DDADVADVADVADVNNP'
tp706
F1
s(S'PP'
S'ADVPDP'
tp707
F2
s(S'VP'
S'VVNNNNP'
tp708
F1
s(g422
S'ANNPP'
tp709
F4
s(S'MP'
S'MVADVAP'
tp710
F1
s(g225
S'NCP'
tp711
F238
s(S'PP'
S'AAAPNP'
tp712
F1
s(S'NP'
S'ADVANDP'
tp713
F2
s(S'AP'
S'AAAP'
tp714
F3
s(S'VP'
S'VADVADVADVDP'
tp715
F1
s(S'NP'
S'AANDP'
tp716
F2
s(S'DP'
S'DADVNNP'
tp717
F2
s(S'VP'
S'VDDDP'
tp718
F6
s(S'MP'
S'MNVP'
tp719
F3
s(S'NP'
p720
S'AANAP'
tp721
F3
s(S'VP'
S'VAPP'
tp722
F18
s(S'VP'
S'ADVVDP'
tp723
F21
s(S'NP'
S'ADVADVADVNNVP'
tp724
F1
s(g245
S'DADVPP'
tp725
F14
s(S'AP'
S'AMP'
tp726
F2
s(S'CP'
S'CCADP'
tp727
F1
s(S'NP'
S'ADVNNCP'
tp728
F1
s(S'DP'
S'ADVDAP'
tp729
F1
s(S'NP'
S'NNNPPP'
tp730
F1
s(S'AP'
S'ADVAPP'
tp731
F9
s(S'CP'
S'AACDP'
tp732
F2
s(S'CP'
S'CCDDDP'
tp733
F1
s(g12
S'DVP'
tp734
F343
s(g720
S'NADVADVADVADVVVP'
tp735
F1
s(S'NP'
S'ADVNPP'
tp736
F1
s(g414
S'ADVADVADVVVNP'
tp737
F3
s(g314
S'PADVADVDDP'
tp738
F1
s(S'AP'
S'AVP'
tp739
F21
s(g80
S'NADVVP'
tp740
F15
s(g477
S'DDNP'
tp741
F41
s(S'DP'
S'DDPPP'
tp742
F5
s(S'NP'
S'ADVNMP'
tp743
F2
s(g108
S'NNAP'
tp744
F11
s(S'MP'
S'MADVVCP'
tp745
F1
s(S'PP'
S'PPANP'
tp746
F1
s(g474
S'VVADVADVDP'
tp747
F1
s(S'CP'
S'CDADVPP'
tp748
F9
s(S'VP'
S'VNP'
tp749
F264
s(S'VP'
S'VANP'
tp750
F14
s(S'VP'
S'VADVAP'
tp751
F16
s(S'VP'
S'ADVADVVVDP'
tp752
F3
s(g427
S'AANNAP'
tp753
F2
s.