ccollections
defaultdict
p1
(c__builtin__
float
p2
tRp3
(S'DP'
p4
S'DADVAPP'
tp5
F2
s(S'DP'
p6
S'DDPP'
tp7
F18
s(S'AP'
S'AVVP'
tp8
F1
s(S'DP'
S'DANP'
tp9
F27
s(S'VP'
S'AVVP'
tp10
F1
s(S'MP'
S'MVNNNP'
tp11
F1
s(S'NP'
S'ANPP'
tp12
F13
s(S'MP'
S'MVADVADVAP'
tp13
F1
s(S'PP'
S'PPPPP'
tp14
F1
s(S'MP'
S'MPDP'
tp15
F1
s(S'VP'
p16
S'VVNP'
tp17
F9
s(S'MP'
p18
S'MVVPP'
tp19
F2
s(S'PP'
S'PAAANP'
tp20
F1
s(S'DP'
S'ADDPP'
tp21
F1
s(S'PP'
p22
S'PPVP'
tp23
F6
s(S'DP'
p24
S'ADVADVDPPP'
tp25
F1
s(S'VP'
S'ADVVVNP'
tp26
F1
s(S'NP'
S'NVVVVP'
tp27
F1
s(S'AP'
S'AADDDP'
tp28
F2
s(S'MP'
S'MVVVPP'
tp29
F1
s(S'DP'
S'DAANNP'
tp30
F1
s(S'DP'
S'AADNP'
tp31
F2
s(S'VP'
S'VAAP'
tp32
F7
s(S'VP'
p33
S'ADVADVVVPP'
tp34
F1
s(S'PP'
S'PAPP'
tp35
F1
s(S'NP'
S'ANDP'
tp36
F2
s(S'NP'
p37
S'NVVP'
tp38
F22
s(S'DP'
p39
S'DNP'
tp40
F109
s(S'VP'
S'VVDDP'
tp41
F1
s(S'PP'
p42
S'PNNP'
tp43
F6
s(S'PP'
S'PPAANNP'
tp44
F1
s(S'NP'
p45
S'NCCP'
tp46
F7
s(S'VP'
S'VVNNP'
tp47
F1
s(S'CP'
S'CDAPP'
tp48
F7
s(S'CP'
p49
S'CDPPP'
tp50
F10
s(S'VP'
S'ADVVCP'
tp51
F1
s(S'DP'
S'ADPPP'
tp52
F3
s(S'DP'
S'ADNP'
tp53
F4
s(S'VP'
p54
S'AVAP'
tp55
F2
s(S'VP'
S'VADP'
tp56
F6
s(S'PP'
S'PADP'
tp57
F4
s(S'NP'
p58
S'ADVNCP'
tp59
F1
s(g33
S'ADVVVCP'
tp60
F2
s(S'AP'
S'AADP'
tp61
F13
s(S'PP'
p62
S'PDDP'
tp63
F7
s(S'NP'
p64
S'NAPPP'
tp65
F1
s(g49
S'ACDP'
tp66
F4
s(S'PP'
S'APPDP'
tp67
F1
s(S'CP'
p68
S'CADVADVDPPP'
tp69
F1
s(S'PP'
S'PAAP'
tp70
F6
s(S'NP'
S'AAANVVVP'
tp71
F1
s(S'NP'
S'AAAAANPPP'
tp72
F1
s(g37
S'NNVP'
tp73
F13
s(S'PP'
S'PPPNP'
tp74
F1
s(g39
S'DAPP'
tp75
F11
s(S'NP'
S'NADVADVVVP'
tp76
F1
s(S'VP'
S'VAP'
tp77
F42
s(g62
S'APVP'
tp78
F6
s(S'VP'
S'VVVVPP'
tp79
F1
s(S'DP'
S'DADVAAP'
tp80
F1
s(S'MP'
S'MVDP'
tp81
F7
s(S'DP'
p82
S'DDDPP'
tp83
F1
s(S'NP'
S'AANNPP'
tp84
F1
s(S'NP'
p85
S'AANNCP'
tp86
F1
s(S'PP'
S'PPPP'
tp87
F2
s(S'DP'
S'DDDP'
tp88
F1
s(g4
S'DDDNP'
tp89
F1
s(S'CP'
S'CADPPPP'
tp90
F1
s(S'DP'
p91
S'DAANP'
tp92
F9
s(S'VP'
p93
S'ADVADVVDP'
tp94
F2
s(S'PP'
S'PPPDP'
tp95
F1
s(S'AP'
S'ADDP'
tp96
F5
s(S'DP'
p97
S'DADVVP'
tp98
F2
s(S'VP'
p99
S'VADVADVADVVP'
tp100
F1
s(S'MP'
S'MVVAP'
tp101
F1
s(S'CP'
S'CDADVPP'
tp102
F2
s(S'VP'
S'VVANP'
tp103
F1
s(S'VP'
S'ADVVVDP'
tp104
F2
s(S'DP'
S'DPPP'
tp105
F12
s(S'NP'
S'NNDP'
tp106
F1
s(S'NP'
S'NADVVVP'
tp107
F5
s(S'PP'
S'PPNNP'
tp108
F1
s(S'VP'
p109
S'VVPP'
tp110
F11
s(S'NP'
S'AAAANVP'
tp111
F1
s(S'NP'
p112
S'NMMP'
tp113
F1
s(g112
S'NNAVP'
tp114
F1
s(S'NP'
p115
S'NNADVAP'
tp116
F1
s(S'MP'
S'MVPP'
tp117
F6
s(S'VP'
S'VAANP'
tp118
F2
s(g16
S'ADVVCCP'
tp119
F1
s(S'PP'
S'PAP'
tp120
F36
s(S'VP'
S'VADVADVAP'
tp121
F1
s(S'PP'
S'ADVPNP'
tp122
F2
s(g39
S'DDADVADVADVADVAPP'
tp123
F1
s(g99
S'ADVADVADVVDP'
tp124
F1
s(S'PP'
S'PPDP'
tp125
F11
s(S'DP'
S'ADVADVADVDVP'
tp126
F1
s(S'NP'
p127
S'NNPP'
tp128
F4
s(g18
S'MAVDP'
tp129
F1
s(S'CP'
S'CDDADVPP'
tp130
F1
s(S'MP'
S'MVVDP'
tp131
F1
s(S'PP'
p132
S'PPVVP'
tp133
F1
s(g62
S'PNP'
tp134
F92
s(S'PP'
S'ADVAPDP'
tp135
F1
s(S'MP'
S'MADP'
tp136
F1
s(S'PP'
S'PPPVP'
tp137
F1
s(S'CP'
S'CCAADP'
tp138
F2
s(S'DP'
S'DDP'
tp139
F10
s(S'DP'
S'DDADVNP'
tp140
F1
s(S'PP'
S'PANP'
tp141
F8
s(S'NP'
S'NNNPP'
tp142
F1
s(g109
S'VCCP'
tp143
F3
s(S'CP'
S'CADVADVADVDPP'
tp144
F1
s(S'PP'
S'PMP'
tp145
F1
s(S'AP'
S'AAAPP'
tp146
F1
s(g45
S'NDDP'
tp147
F1
s(S'CP'
p148
S'CCDP'
tp149
F10
s(g91
S'ADVADVADVDPP'
tp150
F1
s(S'NP'
S'NAP'
tp151
F20
s(S'MP'
S'AMVP'
tp152
F1
s(S'MP'
S'MVVVADVADVVP'
tp153
F1
s(S'NP'
S'NMP'
tp154
F31
s(S'PP'
S'PPAP'
tp155
F1
s(g45
S'NVVVP'
tp156
F5
s(S'NP'
p157
S'NDP'
tp158
F23
s(S'NP'
S'AAANVP'
tp159
F1
s(S'PP'
p160
S'PNNNP'
tp161
F2
s(g62
S'PVP'
tp162
F74
s(S'VP'
S'VVP'
tp163
F11
s(g39
S'DDVP'
tp164
F5
s(g62
S'PDP'
tp165
F110
s(S'PP'
S'PADVNP'
tp166
F2
s(S'PP'
S'ADVADVPVP'
tp167
F1
s(S'AP'
S'AACCP'
tp168
F1
s(S'NP'
S'AANVP'
tp169
F3
s(S'VP'
S'VADVVP'
tp170
F2
s(S'AP'
S'ADVADVAAP'
tp171
F1
s(S'DP'
S'DDVVP'
tp172
F1
s(S'CP'
S'CADVADVDPP'
tp173
F2
s(g22
S'PPP'
tp174
F19
s(S'VP'
S'VMP'
tp175
F1
s(S'NP'
S'NAVP'
tp176
F3
s(g160
S'ADVPDP'
tp177
F1
s(g58
S'NAMP'
tp178
F1
s(S'VP'
S'VAAADP'
tp179
F1
s(S'PP'
S'ADVPAAP'
tp180
F1
s(S'MP'
S'MADVVNP'
tp181
F2
s(g160
S'PADVPP'
tp182
F1
s(S'CP'
S'CDPP'
tp183
F113
s(S'VP'
S'AAVPP'
tp184
F2
s(S'MP'
S'MDNP'
tp185
F1
s(S'NP'
p186
S'NAAAP'
tp187
F1
s(S'CP'
S'CDPPPP'
tp188
F1
s(S'NP'
S'NNNMP'
tp189
F1
s(S'AP'
S'ADVADVAMP'
tp190
F1
s(S'VP'
S'VCP'
tp191
F42
s(S'DP'
S'DPPPP'
tp192
F1
s(S'DP'
S'DDANP'
tp193
F1
s(g109
S'VPP'
tp194
F60
s(S'NP'
p195
S'NACP'
tp196
F4
s(S'AP'
S'ADVACP'
tp197
F2
s(S'CP'
S'ADVCDP'
tp198
F2
s(S'VP'
S'VVVAP'
tp199
F1
s(S'VP'
S'VANNP'
tp200
F1
s(g157
S'NNNCP'
tp201
F2
s(S'CP'
S'CDADVAPP'
tp202
F1
s(g127
S'NNCP'
tp203
F13
s(S'AP'
S'ADVAADP'
tp204
F1
s(S'MP'
p205
S'MVCP'
tp206
F1
s(S'AP'
S'ACP'
tp207
F20
s(S'MP'
S'MADVVAP'
tp208
F1
s(S'CP'
S'CCDDP'
tp209
F4
s(S'CP'
S'CDDPP'
tp210
F10
s(S'DP'
S'DDAPP'
tp211
F1
s(S'DP'
S'DAAPP'
tp212
F1
s(g62
S'PVVP'
tp213
F7
s(S'CP'
S'CADPPP'
tp214
F3
s(S'AP'
S'AACP'
tp215
F2
s(S'DP'
p216
S'DDADP'
tp217
F1
s(S'VP'
S'VVADP'
tp218
F1
s(S'DP'
S'ADVADVDPP'
tp219
F2
s(S'VP'
S'VPPP'
tp220
F7
s(S'NP'
S'NNVVP'
tp221
F2
s(S'VP'
p222
S'VVDDDP'
tp223
F1
s(S'DP'
S'DAP'
tp224
F8
s(S'CP'
S'CADPP'
tp225
F7
s(g64
S'AANCP'
tp226
F4
s(g109
S'VDP'
tp227
F83
s(S'DP'
S'DVVP'
tp228
F4
s(g186
S'NAAP'
tp229
F2
s(S'NP'
S'NNNAP'
tp230
F1
s(g22
S'APNP'
tp231
F3
s(S'VP'
p232
S'VVVP'
tp233
F2
s(g109
S'AVPP'
tp234
F2
s(S'DP'
p235
S'AAADPP'
tp236
F1
s(S'VP'
S'VNNNNP'
tp237
F1
s(S'NP'
S'ANMP'
tp238
F2
s(S'MP'
S'MVPPP'
tp239
F2
s(S'NP'
S'NNNNMP'
tp240
F1
s(S'CP'
S'CADVADVADVDDPP'
tp241
F1
s(S'VP'
p242
S'VNNP'
tp243
F4
s(g148
S'CADVDPP'
tp244
F3
s(g54
S'AAVDP'
tp245
F2
s(S'VP'
S'AVNNP'
tp246
F1
s(S'DP'
S'ADPPPP'
tp247
F1
s(S'DP'
S'DDNP'
tp248
F7
s(S'NP'
S'NADVCP'
tp249
F2
s(g39
S'DDNNP'
tp250
F2
s(S'NP'
S'ANCP'
tp251
F14
s(S'PP'
S'APDP'
tp252
F7
s(S'DP'
S'DMP'
tp253
F1
s(g235
S'DCP'
tp254
F3
s(g39
S'ADVDPP'
tp255
F3
s(g232
S'VNNNP'
tp256
F1
s(g205
S'MMVP'
tp257
F1
s(S'DP'
S'ADVADVADVDDPP'
tp258
F1
s(S'DP'
S'ADPP'
tp259
F13
s(g42
S'PPAAVP'
tp260
F1
s(g222
S'VVVPP'
tp261
F5
s(S'DP'
S'DDADVPP'
tp262
F1
s(S'VP'
S'VVADVAPP'
tp263
F1
s(g97
S'AADPP'
tp264
F3
s(S'NP'
p265
S'ANVVP'
tp266
F2
s(g160
S'ADVPVP'
tp267
F1
s(S'VP'
S'VVDP'
tp268
F14
s(g157
S'NPPP'
tp269
F5
s(S'DP'
S'DAAP'
tp270
F1
s(S'AP'
S'ACCP'
tp271
F2
s(S'AP'
S'APPP'
tp272
F3
s(S'DP'
S'DAVP'
tp273
F6
s(S'AP'
S'AADVADVVP'
tp274
F1
s(g265
S'NANP'
tp275
F1
s(g6
S'DNNP'
tp276
F13
s(g157
S'NCP'
tp277
F74
s(g68
S'CDDPPPP'
tp278
F1
s(S'DP'
S'DADVADVAP'
tp279
F1
s(S'MP'
S'MADVVDP'
tp280
F1
s(S'VP'
S'VAAAAP'
tp281
F2
s(S'PP'
S'PPNP'
tp282
F9
s(S'PP'
S'ADVAPVP'
tp283
F1
s(S'VP'
S'VAADP'
tp284
F2
s(S'VP'
S'ADVADVADVADVVDP'
tp285
F1
s(S'AP'
S'AAPP'
tp286
F2
s(g216
S'DADP'
tp287
F1
s(S'AP'
S'ADVAACP'
tp288
F1
s(S'NP'
S'NADVADVADVADVVP'
tp289
F1
s(S'PP'
S'AAPDP'
tp290
F1
s(S'VP'
S'ADVVNP'
tp291
F2
s(S'NP'
S'NNCCP'
tp292
F1
s(S'MP'
S'MNVP'
tp293
F3
s(S'AP'
S'AAAADP'
tp294
F2
s(g82
S'DDDDP'
tp295
F1
s(g148
S'CCCDDP'
tp296
F1
s(S'AP'
S'ADP'
tp297
F83
s(S'PP'
S'PADVADVAP'
tp298
F1
s(g242
S'VAPP'
tp299
F2
s(S'VP'
S'VDDP'
tp300
F7
s(S'AP'
S'APP'
tp301
F20
s(g24
S'DDPPPP'
tp302
F1
s(S'VP'
S'ADVVDP'
tp303
F4
s(S'PP'
S'APDDDP'
tp304
F1
s(S'VP'
S'VADDP'
tp305
F1
s(S'AP'
S'AAP'
tp306
F1
s(S'DP'
S'DADVPP'
tp307
F3
s(S'VP'
S'AVCP'
tp308
F2
s(S'NP'
S'AANPP'
tp309
F5
s(S'AP'
S'AMP'
tp310
F1
s(S'NP'
S'NNMP'
tp311
F2
s(g93
S'VVVADVADVVP'
tp312
F1
s(S'DP'
S'DDDVP'
tp313
F2
s(S'PP'
S'PAADP'
tp314
F1
s(g4
S'DAAVP'
tp315
F1
s(S'AP'
S'ADVAPP'
tp316
F4
s(S'VP'
S'VVPPPP'
tp317
F1
s(S'PP'
p318
S'PAANP'
tp319
F2
s(S'VP'
S'AVDP'
tp320
F8
s(g85
S'ANNVP'
tp321
F1
s(S'NP'
S'ANVP'
tp322
F8
s(S'NP'
S'ANAP'
tp323
F5
s(S'VP'
S'VVAP'
tp324
F6
s(S'MP'
S'MVAP'
tp325
F4
s(S'NP'
S'AAAAAANVVP'
tp326
F1
s(g39
S'DVP'
tp327
F83
s(S'MP'
S'MVNP'
tp328
F5
s(g157
S'NNCCCP'
tp329
F1
s(S'AP'
S'AVP'
tp330
F7
s(S'NP'
S'NADVVP'
tp331
F1
s(g62
S'PAVP'
tp332
F6
s(S'NP'
S'NNNNNP'
tp333
F1
s(S'PP'
S'PADVAAP'
tp334
F1
s(g115
S'ADVNMP'
tp335
F1
s(g157
S'NPP'
tp336
F60
s(g195
S'NAPP'
tp337
F5
s(S'NP'
S'NVP'
tp338
F109
s(g132
S'ADVAPPPP'
tp339
F1
s(S'DP'
S'DPP'
tp340
F137
s(g318
S'PAAVP'
tp341
F2
s(S'PP'
S'PADVADVADVDP'
tp342
F1
s(g109
S'VNP'
tp343
F57
s(S'VP'
S'VANP'
tp344
F8
s(S'AP'
S'ADVADVADP'
tp345
F2
s(S'PP'
S'PPDDP'
tp346
F2
s(S'VP'
S'VADVAP'
tp347
F2
s(S'DP'
S'DADVADVPP'
tp348
F1
s(g62
S'ADVADVADVADVAPDP'
tp349
F1
s(S'NP'
S'ADVNVP'
tp350
F1
s(S'PP'
S'APPP'
tp351
F1
s.