ccollections
defaultdict
p1
(c__builtin__
float
p2
tRp3
(S'MP'
S'MMDP'
tp4
F1
s(S'NP'
S'AAAANAP'
tp5
F2
s(S'NP'
S'NNNVVVP'
tp6
F1
s(S'DP'
S'DDMP'
tp7
F1
s(S'PP'
S'AAAPPVP'
tp8
F1
s(S'DP'
p9
S'DDAP'
tp10
F3
s(S'VP'
S'ADVVVNP'
tp11
F10
s(S'AP'
p12
S'AADDDP'
tp13
F1
s(S'NP'
S'ADVANVP'
tp14
F1
s(S'VP'
S'VVADVVP'
tp15
F2
s(S'PP'
p16
S'PAPP'
tp17
F2
s(S'PP'
S'PADVNP'
tp18
F25
s(S'VP'
S'VVADVADVADVNP'
tp19
F1
s(S'DP'
S'DNP'
tp20
F438
s(S'MP'
S'MVVAAP'
tp21
F1
s(S'PP'
S'AAPDDP'
tp22
F2
s(S'NP'
S'NNNMMP'
tp23
F1
s(S'CP'
p24
S'CDPPP'
tp25
F52
s(S'PP'
S'ADVPPANP'
tp26
F1
s(S'VP'
p27
S'VADP'
tp28
F17
s(S'VP'
S'ADVADVVAP'
tp29
F2
s(S'DP'
S'DAAP'
tp30
F7
s(S'PP'
p31
S'PPPPPP'
tp32
F2
s(S'VP'
S'VADVADVADVAP'
tp33
F1
s(S'VP'
p34
S'VAVP'
tp35
F3
s(S'VP'
p36
S'ADVADVADVVVPP'
tp37
F2
s(S'DP'
S'DAADP'
tp38
F1
s(S'DP'
S'ADNNP'
tp39
F3
s(S'AP'
S'AAADVPPP'
tp40
F1
s(S'MP'
S'MDVP'
tp41
F1
s(S'VP'
S'ADVVNP'
tp42
F21
s(S'NP'
S'ADVNADVACP'
tp43
F1
s(S'MP'
S'MVDP'
tp44
F39
s(S'NP'
S'AAAAAANVVP'
tp45
F1
s(S'PP'
S'ADVPAMP'
tp46
F1
s(S'PP'
S'PPPP'
tp47
F12
s(S'DP'
S'DDDNP'
tp48
F6
s(S'DP'
S'AAAADADVVP'
tp49
F1
s(S'VP'
S'VACP'
tp50
F5
s(S'AP'
S'AAAVP'
tp51
F1
s(S'PP'
S'PPAAP'
tp52
F3
s(S'DP'
S'DADVVP'
tp53
F10
s(S'MP'
S'MVVADVDP'
tp54
F1
s(S'PP'
p55
S'PADVNNP'
tp56
F3
s(S'AP'
S'AADVPP'
tp57
F1
s(S'NP'
S'NDDDP'
tp58
F4
s(S'NP'
p59
S'NADVVVP'
tp60
F25
s(S'VP'
p61
S'VCP'
tp62
F144
s(S'NP'
S'NMMP'
tp63
F7
s(S'NP'
S'AAAANPP'
tp64
F1
s(S'PP'
p65
S'PAP'
tp66
F103
s(S'NP'
S'ANNDP'
tp67
F1
s(S'DP'
p68
S'DDDADVPP'
tp69
F1
s(S'VP'
S'VADVADVAP'
tp70
F3
s(S'PP'
p71
S'ADVPPVP'
tp72
F1
s(S'VP'
S'VADVNP'
tp73
F3
s(S'PP'
p74
S'APVVP'
tp75
F1
s(S'MP'
p76
S'AMVP'
tp77
F1
s(S'PP'
p78
S'PNP'
tp79
F414
s(S'DP'
p80
S'ADDP'
tp81
F1
s(S'DP'
p82
S'DDP'
tp83
F26
s(S'VP'
p84
S'ADVVDDP'
tp85
F2
s(S'NP'
S'NNNPP'
tp86
F4
s(S'PP'
S'PAAP'
tp87
F16
s(S'VP'
S'ADVVVDDP'
tp88
F2
s(S'MP'
S'MCDP'
tp89
F3
s(S'PP'
S'ADVPCP'
tp90
F1
s(S'DP'
S'DDAANP'
tp91
F1
s(S'AP'
S'AANP'
tp92
F1
s(S'NP'
p93
S'NMP'
tp94
F165
s(S'NP'
S'AAAAANVVP'
tp95
F1
s(S'PP'
S'PPPPPVVP'
tp96
F1
s(S'VP'
S'AAVNP'
tp97
F1
s(S'VP'
S'VMMP'
tp98
F3
s(g78
S'PDP'
tp99
F442
s(S'DP'
S'DDPPPPP'
tp100
F1
s(S'CP'
S'CDAAPP'
tp101
F4
s(S'NP'
S'ADVNVVP'
tp102
F2
s(S'AP'
S'AAANP'
tp103
F1
s(S'VP'
S'VNNNNP'
tp104
F1
s(S'MP'
S'MADVVNP'
tp105
F5
s(S'NP'
p106
S'NNADVMP'
tp107
F1
s(S'NP'
S'NNADVADVADVVVP'
tp108
F1
s(S'MP'
S'MADVADVADVADVADVVCCP'
tp109
F1
s(S'AP'
S'ANP'
tp110
F9
s(S'NP'
S'NADVADVADVVP'
tp111
F3
s(S'DP'
S'ADVADMP'
tp112
F1
s(S'PP'
S'PADVPP'
tp113
F3
s(S'MP'
S'MVADVANP'
tp114
F1
s(S'VP'
S'AAVPP'
tp115
F1
s(S'VP'
S'VVADVNP'
tp116
F1
s(S'NP'
p117
S'ANVVVVP'
tp118
F2
s(S'DP'
S'DPPPP'
tp119
F11
s(S'DP'
S'DDANP'
tp120
F2
s(S'PP'
S'PADVADP'
tp121
F3
s(S'NP'
S'NACP'
tp122
F8
s(S'AP'
S'ADVAVP'
tp123
F4
s(S'NP'
p124
S'NCCP'
tp125
F49
s(S'CP'
S'CDDDDPPP'
tp126
F1
s(S'AP'
S'AAAADP'
tp127
F1
s(S'VP'
p128
S'VVVVVP'
tp129
F1
s(g93
S'NNCP'
tp130
F54
s(S'NP'
S'AANPPP'
tp131
F1
s(S'NP'
S'NADVADVVP'
tp132
F6
s(S'DP'
S'DDDDP'
tp133
F1
s(S'DP'
S'DDAPP'
tp134
F1
s(S'VP'
p135
S'AVNP'
tp136
F8
s(S'MP'
S'MAPP'
tp137
F1
s(S'VP'
S'VVNNNP'
tp138
F1
s(S'DP'
S'ADADVNP'
tp139
F1
s(S'VP'
p140
S'AVDDDP'
tp141
F1
s(g84
S'VADVVP'
tp142
F8
s(S'NP'
p143
S'ADVADVADVNMP'
tp144
F1
s(S'VP'
S'ADVADVADVVNP'
tp145
F1
s(S'MP'
S'MVAPP'
tp146
F1
s(S'MP'
S'MVPPP'
tp147
F1
s(S'PP'
S'ADVAPVP'
tp148
F1
s(S'NP'
S'NCCCCP'
tp149
F1
s(S'CP'
S'CCCDP'
tp150
F3
s(S'VP'
S'ADVVAP'
tp151
F9
s(S'PP'
S'ADVPPNNP'
tp152
F1
s(S'VP'
S'VCCCP'
tp153
F1
s(S'PP'
S'APDP'
tp154
F31
s(S'NP'
S'NAAPPP'
tp155
F2
s(S'VP'
S'ADVVNNP'
tp156
F2
s(S'MP'
S'MVADVVP'
tp157
F1
s(S'DP'
S'DDANNP'
tp158
F1
s(S'VP'
p159
S'VVANP'
tp160
F4
s(S'VP'
S'VVVVDP'
tp161
F8
s(S'VP'
S'ADVVVP'
tp162
F3
s(S'PP'
S'ADVADVADVPDP'
tp163
F1
s(S'CP'
S'ADVACDP'
tp164
F1
s(g80
S'DADVADVADVPP'
tp165
F3
s(S'NP'
S'ADVNCCP'
tp166
F2
s(S'DP'
p167
S'ADVADNNP'
tp168
F1
s(S'NP'
S'NANP'
tp169
F1
s(g82
S'DNNP'
tp170
F106
s(S'CP'
S'CADVDDPP'
tp171
F2
s(S'DP'
S'DPPPPP'
tp172
F4
s(S'CP'
S'CCADVDP'
tp173
F2
s(S'VP'
p174
S'ADVADVADVVVDP'
tp175
F3
s(S'VP'
S'AAVDDP'
tp176
F2
s(S'NP'
S'NNNVP'
tp177
F11
s(S'VP'
S'VADVNNP'
tp178
F3
s(S'PP'
S'AAPPDP'
tp179
F1
s(S'PP'
S'PADVVP'
tp180
F10
s(S'VP'
S'ADVADVADVADVADVVCCP'
tp181
F1
s(S'MP'
S'MVVDDP'
tp182
F2
s(S'DP'
S'DADVVVP'
tp183
F2
s(S'PP'
p184
S'APAP'
tp185
F3
s(S'AP'
S'APP'
tp186
F67
s(S'NP'
S'NADVMP'
tp187
F1
s(S'DP'
S'DDDDDADVADVPP'
tp188
F1
s(S'AP'
S'AAP'
tp189
F6
s(S'VP'
p190
S'VADVADVVP'
tp191
F3
s(S'VP'
S'VVVVPPPP'
tp192
F1
s(S'AP'
S'AAADVDDP'
tp193
F1
s(S'NP'
S'ADVANPP'
tp194
F2
s(S'VP'
S'VVVVPP'
tp195
F6
s(S'DP'
p196
S'DAAVP'
tp197
F7
s(S'CP'
p198
S'CDDDDPP'
tp199
F3
s(S'MP'
p200
S'MPVP'
tp201
F1
s(S'MP'
S'MVVVNP'
tp202
F1
s(S'PP'
p203
S'PAANP'
tp204
F5
s(S'VP'
S'VVVANP'
tp205
F1
s(S'NP'
p206
S'ANVP'
tp207
F33
s(S'DP'
S'ADVDDPP'
tp208
F2
s(S'VP'
p209
S'VVAPP'
tp210
F2
s(S'MP'
S'MVNP'
tp211
F46
s(S'DP'
S'ADDDP'
tp212
F1
s(S'PP'
S'ADVADVPANP'
tp213
F1
s(S'PP'
S'PAVP'
tp214
F11
s(S'MP'
S'ADVMVP'
tp215
F1
s(S'PP'
p216
S'ADVADVPPVP'
tp217
F1
s(S'VP'
S'ADVVMP'
tp218
F1
s(S'VP'
S'VVVPP'
tp219
F6
s(S'NP'
S'NNADVADVVVP'
tp220
F1
s(S'NP'
S'ADVADVANDP'
tp221
F1
s(S'MP'
S'MADVVPP'
tp222
F5
s(S'DP'
S'DADP'
tp223
F2
s(S'DP'
S'DAAAPPP'
tp224
F1
s(S'AP'
p225
S'ADVADP'
tp226
F8
s(S'NP'
p227
S'ADVNNVVP'
tp228
F1
s(S'PP'
p229
S'APDDP'
tp230
F6
s(S'VP'
S'ADVADVVVNP'
tp231
F1
s(S'DP'
S'DDVVVVP'
tp232
F3
s(S'NP'
S'ADVNAP'
tp233
F1
s(S'NP'
S'AAAANAAP'
tp234
F1
s(S'DP'
S'DDADVADVADVVVP'
tp235
F1
s(g16
S'APVP'
tp236
F9
s(S'DP'
p237
S'DPPPPPP'
tp238
F1
s(g59
S'NAAP'
tp239
F8
s(S'NP'
S'ANNP'
tp240
F1
s(S'PP'
S'ADVPPPP'
tp241
F1
s(g78
S'PPVP'
tp242
F19
s(S'VP'
p243
S'VADVDP'
tp244
F5
s(g174
S'VVADVAP'
tp245
F1
s(S'VP'
p246
S'VAAP'
tp247
F25
s(S'PP'
S'ADVADVADVADVPPNP'
tp248
F1
s(S'NP'
S'ANDP'
tp249
F17
s(g206
S'NVVP'
tp250
F105
s(S'PP'
p251
S'AAPVP'
tp252
F6
s(S'VP'
S'VMP'
tp253
F4
s(S'NP'
S'ANNAP'
tp254
F2
s(S'VP'
p255
S'VVNNP'
tp256
F4
s(S'CP'
S'CDAPP'
tp257
F19
s(S'VP'
S'VVAAP'
tp258
F6
s(S'DP'
S'ADVADVDDVP'
tp259
F2
s(S'DP'
S'ADNP'
tp260
F13
s(S'MP'
S'ADVMAP'
tp261
F1
s(S'DP'
S'DDADVAP'
tp262
F1
s(S'PP'
p263
S'PADP'
tp264
F9
s(S'VP'
S'ADVVVCP'
tp265
F2
s(S'NP'
S'ANDDP'
tp266
F2
s(S'DP'
S'ADVADVADVP'
tp267
F1
s(S'DP'
S'ADVADVDVP'
tp268
F2
s(S'DP'
S'DADVAP'
tp269
F3
s(S'VP'
S'VVVVVDP'
tp270
F2
s(S'DP'
S'DAPP'
tp271
F32
s(S'VP'
S'AVVP'
tp272
F1
s(S'MP'
p273
S'MVVCP'
tp274
F1
s(S'VP'
S'ADVADVVPP'
tp275
F3
s(S'MP'
S'MAAVDP'
tp276
F3
s(S'VP'
S'ADVADVADVVDP'
tp277
F5
s(S'VP'
S'ADVADVVDP'
tp278
F6
s(S'PP'
p279
S'PPPDP'
tp280
F4
s(S'VP'
S'VVAAANP'
tp281
F1
s(S'DP'
S'DDAAVP'
tp282
F1
s(S'MP'
S'MVVAP'
tp283
F1
s(S'VP'
S'VDDDDP'
tp284
F1
s(S'DP'
S'DAAANP'
tp285
F2
s(S'DP'
S'DADVANP'
tp286
F1
s(S'NP'
S'ANADVVVP'
tp287
F1
s(g243
S'ADVADVVVAP'
tp288
F1
s(S'DP'
S'ADVDNP'
tp289
F6
s(S'VP'
S'VVPP'
tp290
F42
s(S'MP'
S'MVPP'
tp291
F24
s(S'DP'
p292
S'ADVP'
tp293
F8
s(S'MP'
p294
S'MVADP'
tp295
F1
s(S'CP'
S'CDDPPP'
tp296
F2
s(S'NP'
p297
S'NNPP'
tp298
F29
s(S'VP'
S'VVAADVDDP'
tp299
F1
s(S'CP'
S'CCCADVDP'
tp300
F1
s(S'DP'
S'DDDDNP'
tp301
F2
s(S'MP'
S'MVVDP'
tp302
F8
s(S'AP'
S'AACP'
tp303
F13
s(S'PP'
S'PPVVP'
tp304
F8
s(S'DP'
S'DNNNP'
tp305
F8
s(g9
S'ADVDDVP'
tp306
F7
s(S'PP'
S'PADVADVVP'
tp307
F1
s(S'VP'
S'VADVDDP'
tp308
F1
s(S'NP'
S'AAAANDP'
tp309
F1
s(S'PP'
S'PMMP'
tp310
F1
s(S'PP'
S'PVVVP'
tp311
F1
s(g263
S'PMP'
tp312
F10
s(S'NP'
S'NNMMP'
tp313
F2
s(S'PP'
p314
S'PADVADVADVVP'
tp315
F1
s(g24
S'CCDP'
tp316
F87
s(S'NP'
p317
S'ADVNNDP'
tp318
F2
s(S'VP'
S'VADVANP'
tp319
F3
s(S'PP'
S'PPNNNP'
tp320
F1
s(S'DP'
S'AADDPP'
tp321
F1
s(S'NP'
S'NVVVP'
tp322
F32
s(S'CP'
S'CDDDPP'
tp323
F7
s(S'CP'
S'CDADVADVPP'
tp324
F1
s(S'VP'
p325
S'VVVDP'
tp326
F22
s(S'PP'
S'PDDDDP'
tp327
F2
s(S'PP'
S'PNNNP'
tp328
F4
s(g78
S'PVP'
tp329
F229
s(S'CP'
S'CCCCDP'
tp330
F2
s(S'MP'
S'MVDDDP'
tp331
F1
s(S'AP'
S'AACCP'
tp332
F2
s(S'VP'
S'VVVVADVVP'
tp333
F1
s(g78
S'PADVVVP'
tp334
F1
s(g78
S'PPP'
tp335
F84
s(S'NP'
p336
S'NAVP'
tp337
F13
s(S'PP'
S'PADVAP'
tp338
F4
s(S'DP'
S'DDNNNP'
tp339
F1
s(S'VP'
S'VVVVCCP'
tp340
F1
s(S'DP'
S'ADVDVP'
tp341
F7
s(S'NP'
S'NAAAP'
tp342
F1
s(S'NP'
S'NCCCP'
tp343
F1
s(S'AP'
S'AADVVP'
tp344
F1
s(g71
S'PPPPDP'
tp345
F2
s(S'MP'
S'MVVVVDP'
tp346
F3
s(S'DP'
S'DAAAP'
tp347
F2
s(S'CP'
S'ADVADVCCADP'
tp348
F1
s(S'VP'
S'VAAAAP'
tp349
F1
s(g27
S'VPP'
tp350
F249
s(S'CP'
S'ADVCCDP'
tp351
F3
s(S'AP'
S'ADVADVADVACP'
tp352
F1
s(S'DP'
S'ADVDDNP'
tp353
F2
s(S'NP'
S'NNNCP'
tp354
F5
s(S'PP'
S'PADVDP'
tp355
F6
s(S'CP'
S'CDADVAPP'
tp356
F1
s(g198
S'CCCAADP'
tp357
F1
s(S'DP'
S'DANNP'
tp358
F3
s(S'MP'
S'MADVVAP'
tp359
F1
s(S'CP'
p360
S'CDDPP'
tp361
F62
s(S'DP'
p362
S'DAAPP'
tp363
F8
s(S'PP'
S'PVVP'
tp364
F24
s(S'CP'
S'CADPPP'
tp365
F3
s(S'DP'
S'DADVPPP'
tp366
F7
s(g61
S'ADVVCP'
tp367
F6
s(S'PP'
S'ADVPPAP'
tp368
F1
s(S'VP'
S'VPPP'
tp369
F26
s(S'VP'
S'AVCCP'
tp370
F1
s(g36
S'VVPPP'
tp371
F9
s(g106
S'ADVANCCCCP'
tp372
F1
s(g65
S'PPAP'
tp373
F7
s(g82
S'DVVP'
tp374
F57
s(S'PP'
S'PPADVADVADVVP'
tp375
F1
s(S'VP'
S'VVVADVAP'
tp376
F1
s(S'VP'
S'ADVADVVVPPPPP'
tp377
F1
s(S'DP'
S'DDDADVPPP'
tp378
F1
s(S'PP'
p379
S'ADVPADVDDP'
tp380
F1
s(S'NP'
S'ANMP'
tp381
F4
s(S'AP'
S'APPP'
tp382
F2
s(S'PP'
S'ADVPPP'
tp383
F1
s(S'NP'
S'ADVADVNVP'
tp384
F4
s(g36
S'VVVP'
tp385
F8
s(S'CP'
S'CADVDPP'
tp386
F20
s(S'VP'
S'VVVVVNNP'
tp387
F1
s(S'NP'
S'ANCP'
tp388
F43
s(S'DP'
S'DCP'
tp389
F21
s(g255
S'ADVVVVP'
tp390
F1
s(S'NP'
S'NNVVVVP'
tp391
F4
s(S'NP'
S'NVVVVP'
tp392
F15
s(S'DP'
S'DDDP'
tp393
F4
s(S'VP'
S'VVADVADVPPP'
tp394
F1
s(S'DP'
S'DDADVPP'
tp395
F2
s(S'MP'
S'MAADP'
tp396
F1
s(S'NP'
S'ANVVP'
tp397
F16
s(S'VP'
S'VVDP'
tp398
F97
s(S'NP'
p399
S'NPPP'
tp400
F22
s(S'MP'
S'MMVVP'
tp401
F2
s(g74
S'PPAPP'
tp402
F1
s(S'DP'
S'AADVVP'
tp403
F1
s(S'DP'
S'DAVP'
tp404
F20
s(S'VP'
p405
S'ADVAVCP'
tp406
F1
s(S'AP'
S'ACP'
tp407
F38
s(g229
S'PPNP'
tp408
F60
s(S'NP'
p409
S'ADVADVANPP'
tp410
F2
s(S'NP'
S'ADVADVANVP'
tp411
F1
s(g128
S'VVVVNNP'
tp412
F1
s(S'CP'
S'CDDADVPP'
tp413
F2
s(S'AP'
S'ADP'
tp414
F402
s(S'PP'
S'ADVPPDDP'
tp415
F1
s(S'DP'
S'DDAVP'
tp416
F3
s(S'VP'
S'VVCCCP'
tp417
F1
s(S'VP'
S'VAAANP'
tp418
F1
s(S'DP'
S'DVVVVP'
tp419
F1
s(S'VP'
S'VVPPPP'
tp420
F1
s(S'NP'
S'NADVADVAP'
tp421
F1
s(g200
S'MPNP'
tp422
F1
s(g12
S'AAADP'
tp423
F8
s(S'VP'
S'VVAP'
tp424
F23
s(g317
S'NNAPP'
tp425
F1
s(S'NP'
S'NNADVADVADVVP'
tp426
F1
s(g314
S'PADVADVDP'
tp427
F1
s(S'DP'
S'ADVADVDNP'
tp428
F1
s(S'VP'
S'AAVCP'
tp429
F1
s(g124
S'NPP'
tp430
F321
s(S'DP'
S'ADVADVADVDDPP'
tp431
F1
s(g124
S'NVP'
tp432
F550
s(S'CP'
S'ADVCCDDP'
tp433
F1
s(S'PP'
S'PAAVP'
tp434
F1
s(g379
S'AAPPNP'
tp435
F1
s(S'NP'
S'NAAPP'
tp436
F1
s(g31
S'PPPPVP'
tp437
F2
s(S'VP'
S'VDDP'
tp438
F47
s(S'NP'
S'AANVVP'
tp439
F2
s(S'DP'
S'DADVAPP'
tp440
F1
s(g409
S'ANCCCP'
tp441
F1
s(g124
S'ANPP'
tp442
F57
s(S'PP'
S'ADVPPDP'
tp443
F1
s(S'PP'
S'PPPPP'
tp444
F4
s(S'MP'
S'MVVPP'
tp445
F3
s(S'DP'
S'ADVDPP'
tp446
F27
s(S'CP'
S'CCCCAADP'
tp447
F1
s(S'DP'
S'DDDDDP'
tp448
F1
s(S'NP'
S'NPPPP'
tp449
F1
s(S'AP'
S'AADVADVDP'
tp450
F1
s(S'NP'
S'ADVNADP'
tp451
F1
s(S'CP'
S'CDDDADVPP'
tp452
F1
s(S'CP'
S'CAADPP'
tp453
F5
s(S'DP'
S'DADVADVVP'
tp454
F5
s(S'NP'
S'NAACP'
tp455
F1
s(g203
S'PNNP'
tp456
F62
s(S'DP'
S'DDAAP'
tp457
F2
s(S'MP'
S'MMNP'
tp458
F1
s(S'MP'
p459
S'MMVP'
tp460
F11
s(S'PP'
S'PADVDDP'
tp461
F1
s(S'NP'
S'ADVNCP'
tp462
F5
s(S'DP'
S'ADPP'
tp463
F37
s(g135
S'VAPPP'
tp464
F1
s(g360
S'ACDP'
tp465
F11
s(S'NP'
S'AAAAANAP'
tp466
F1
s(S'NP'
p467
S'NNDP'
tp468
F18
s(S'AP'
S'ADVANP'
tp469
F9
s(S'VP'
S'VVNP'
tp470
F54
s(S'CP'
S'CDADVPPP'
tp471
F4
s(g159
S'VAP'
tp472
F192
s(S'VP'
S'VVVVNP'
tp473
F9
s(S'MP'
S'MNVVP'
tp474
F3
s(S'DP'
S'DDDPP'
tp475
F11
s(S'PP'
S'PPPNNP'
tp476
F1
s(g9
S'AADAP'
tp477
F1
s(g251
S'PAAPP'
tp478
F3
s(S'MP'
S'MVVVANP'
tp479
F1
s(g294
S'MADVVVNP'
tp480
F1
s(g459
S'MVVVDP'
tp481
F4
s(g117
S'NNPPPPP'
tp482
F2
s(S'VP'
S'ADVAVDP'
tp483
F1
s(S'PP'
S'APADVADVDDP'
tp484
F1
s(S'PP'
S'PADVADVADP'
tp485
F1
s(S'AP'
S'AAACP'
tp486
F2
s(S'VP'
S'ADVVVDP'
tp487
F8
s(S'PP'
S'PPPVP'
tp488
F5
s(S'AP'
S'AADDP'
tp489
F8
s(S'NP'
S'NNNNVVP'
tp490
F2
s(S'MP'
S'MADVNVP'
tp491
F1
s(S'DP'
S'DDDVVVVVP'
tp492
F1
s(S'DP'
S'DADVAAP'
tp493
F1
s(S'VP'
S'VAANP'
tp494
F3
s(S'DP'
S'ADVADVADVDVP'
tp495
F1
s(S'DP'
p496
S'DDDDPP'
tp497
F3
s(g216
S'PADVADVPPP'
tp498
F1
s(S'MP'
S'MADP'
tp499
F4
s(S'VP'
S'ADVADVADVVAP'
tp500
F2
s(g198
S'CCAADP'
tp501
F2
s(S'PP'
S'PANP'
tp502
F33
s(S'DP'
S'AADNP'
tp503
F4
s(g409
S'NADVDDP'
tp504
F1
s(S'DP'
S'ADVADPP'
tp505
F1
s(S'NP'
S'AANMP'
tp506
F2
s(S'AP'
S'AAVP'
tp507
F2
s(S'VP'
S'ADVADVVAAP'
tp508
F1
s(S'NP'
p509
S'NDDP'
tp510
F10
s(g225
S'ACCP'
tp511
F6
s(S'VP'
S'VVVVAP'
tp512
F1
s(S'VP'
S'AVPPP'
tp513
F1
s(g124
S'NDP'
tp514
F117
s(S'PP'
S'PADVADVADVNP'
tp515
F1
s(g509
S'AAANVP'
tp516
F3
s(S'MP'
S'MVAAP'
tp517
F1
s(S'DP'
S'DDVP'
tp518
F36
s(S'NP'
p519
S'AANVP'
tp520
F6
s(S'VP'
S'VVVVVCP'
tp521
F1
s(S'VP'
S'ADVVVNNP'
tp522
F1
s(S'VP'
S'VNNNP'
tp523
F5
s(S'PP'
S'PPPAAAP'
tp524
F1
s(g140
S'VADVADVPP'
tp525
F1
s(S'PP'
S'ADVPAP'
tp526
F2
s(S'PP'
S'ADVPPADVDP'
tp527
F1
s(S'PP'
S'APADVDP'
tp528
F1
s(g78
S'PCP'
tp529
F22
s(g467
S'NNPPP'
tp530
F4
s(S'PP'
S'PPVVVP'
tp531
F1
s(S'PP'
p532
S'PAADP'
tp533
F5
s(S'NP'
S'ADVNNVP'
tp534
F3
s(g405
S'VVMMMMP'
tp535
F1
s(S'NP'
S'NADVCCP'
tp536
F2
s(S'VP'
S'VPPPP'
tp537
F3
s(g237
S'AADVDDANP'
tp538
F1
s(S'VP'
S'VCCP'
tp539
F13
s(S'AP'
S'AADVAP'
tp540
F1
s(S'NP'
S'NNNDP'
tp541
F1
s(S'AP'
S'ADVACP'
tp542
F15
s(S'NP'
S'AANVVVP'
tp543
F1
s(S'PP'
S'AAPNNP'
tp544
F1
s(S'VP'
S'VVVAP'
tp545
F6
s(g292
S'ADPPP'
tp546
F6
s(S'PP'
S'PADVANP'
tp547
F1
s(S'CP'
S'CCDDP'
tp548
F10
s(S'NP'
p549
S'NNADVVP'
tp550
F2
s(S'DP'
S'ADVADVDMP'
tp551
F1
s(S'DP'
S'DADVADVADVVVP'
tp552
F1
s(g519
S'NNVVP'
tp553
F27
s(S'NP'
S'NAAMP'
tp554
F2
s(S'NP'
S'NNNNVP'
tp555
F1
s(S'VP'
S'VVCP'
tp556
F17
s(S'MP'
S'MAAVPP'
tp557
F1
s(S'MP'
S'MVVVVPP'
tp558
F1
s(S'NP'
S'AANCP'
tp559
F3
s(S'VP'
S'VAADP'
tp560
F3
s(S'AP'
S'ADVAVVP'
tp561
F1
s(S'VP'
S'AVVPP'
tp562
F1
s(S'PP'
S'APPP'
tp563
F2
s(S'DP'
S'DDDDPPP'
tp564
F1
s(S'VP'
S'ADVVPP'
tp565
F11
s(S'VP'
S'VVADVANP'
tp566
F1
s(S'CP'
S'CADVADVADVDDPP'
tp567
F1
s(S'VP'
S'VNNP'
tp568
F35
s(S'AP'
S'AADVDP'
tp569
F3
s(S'NP'
S'ADVANDP'
tp570
F1
s(S'NP'
S'NADP'
tp571
F3
s(g196
S'DDNP'
tp572
F48
s(S'NP'
S'NADVCP'
tp573
F1
s(S'DP'
S'DDNNP'
tp574
F8
s(S'PP'
S'AAPPP'
tp575
F1
s(g399
S'NNADVADVCCP'
tp576
F1
s(S'PP'
S'APCP'
tp577
F1
s(g143
S'ADVADVNCP'
tp578
F1
s(g167
S'AADPP'
tp579
F10
s(g34
S'VVVAAP'
tp580
F2
s(g124
S'NNNNPP'
tp581
F2
s(S'VP'
S'VVVVCP'
tp582
F1
s(S'MP'
S'MADVADVAPP'
tp583
F1
s(S'NP'
S'NNNVVVVP'
tp584
F1
s(S'PP'
S'AAPDP'
tp585
F3
s(S'NP'
S'ANVVVP'
tp586
F4
s(S'MP'
S'MVVNP'
tp587
F5
s(S'CP'
S'CDDADVPPP'
tp588
F1
s(S'DP'
S'ADVDNNP'
tp589
F1
s(S'CP'
S'ACDDP'
tp590
F3
s(S'AP'
S'AAPP'
tp591
F7
s(S'AP'
S'ADVADVACCP'
tp592
F1
s(S'PP'
S'APPNP'
tp593
F1
s(S'DP'
S'DADVADVNP'
tp594
F1
s(S'PP'
S'ADVPANP'
tp595
F1
s(g27
S'VVVCCP'
tp596
F1
s(g206
S'NAPP'
tp597
F17
s(S'AP'
S'ADVADVADP'
tp598
F1
s(S'NP'
S'NADVDP'
tp599
F2
s(S'MP'
S'MADVVVNNP'
tp600
F1
s(S'CP'
S'CDAAAPPP'
tp601
F1
s(S'NP'
S'ANCCP'
tp602
F10
s(S'NP'
S'AANPP'
tp603
F4
s(S'VP'
S'VDDDP'
tp604
F2
s(S'NP'
S'NNMP'
tp605
F17
s(S'DP'
S'DDDVP'
tp606
F6
s(S'PP'
S'PAAAP'
tp607
F2
s(S'PP'
S'ADVADVPNP'
tp608
F3
s(S'VP'
S'VVVDDP'
tp609
F1
s(g336
S'ANAP'
tp610
F7
s(S'MP'
S'MVAP'
tp611
F13
s(S'MP'
S'MVVVAP'
tp612
F3
s(S'VP'
S'VADVPPP'
tp613
F3
s(S'DP'
S'DADVAVP'
tp614
F1
s(S'AP'
S'ADVADVAPP'
tp615
F2
s(S'MP'
S'AAMVP'
tp616
F2
s(g496
S'AADPPPPP'
tp617
F1
s(S'NP'
S'ADVADVADVNMMP'
tp618
F1
s(g209
S'VADVCCP'
tp619
F2
s(S'CP'
S'ACDDDP'
tp620
F1
s(S'AP'
S'AADVDDP'
tp621
F3
s(S'MP'
S'MADVADVVCP'
tp622
F1
s(S'AP'
S'ADVAACP'
tp623
F1
s(S'PP'
S'ADVADVADVPDDP'
tp624
F1
s(g292
S'DVVVP'
tp625
F7
s(S'VP'
S'VCCCCP'
tp626
F1
s(S'MP'
S'MMMMVP'
tp627
F1
s(g227
S'NNADVADVPPP'
tp628
F2
s(S'PP'
S'PPDDP'
tp629
F6
s(S'DP'
S'DDVVVP'
tp630
F2
s(S'NP'
S'NAVVP'
tp631
F1
s(S'DP'
S'DPP'
tp632
F608
s(g336
S'ADVNVP'
tp633
F13
s(S'DP'
S'DDDVVP'
tp634
F2
s(S'CP'
S'CDADVADVADVPP'
tp635
F1
s(g292
S'DDPP'
tp636
F91
s(S'DP'
S'DDADVPPP'
tp637
F1
s(S'DP'
S'DANP'
tp638
F116
s(S'NP'
S'NADVPP'
tp639
F8
s(S'VP'
p640
S'AVDDDDP'
tp641
F1
s(S'NP'
S'NAAVP'
tp642
F5
s(S'PP'
S'PDDDP'
tp643
F5
s(g640
S'VADVCP'
tp644
F2
s(S'NP'
S'ANNDDP'
tp645
F1
s(S'DP'
S'DDDADVADVNP'
tp646
F1
s(S'NP'
S'ANADVADVANP'
tp647
F1
s(S'NP'
S'NNNVVP'
tp648
F1
s(S'NP'
S'NNVVVVVP'
tp649
F1
s(S'DP'
S'DDADVADVVVP'
tp650
F1
s(S'NP'
S'ADVNMMP'
tp651
F1
s(S'DP'
S'DCCP'
tp652
F2
s(S'CP'
S'CDPPPPP'
tp653
F4
s(S'MP'
S'MADVVDP'
tp654
F6
s(g68
S'DDADVNNP'
tp655
F2
s(S'DP'
S'DDADVVP'
tp656
F1
s(g184
S'PDDP'
tp657
F34
s(S'MP'
S'MVDDP'
tp658
F4
s(S'PP'
S'PCCP'
tp659
F3
s(S'NP'
S'NVVVVVP'
tp660
F1
s(g124
S'NNVP'
tp661
F97
s(S'NP'
S'NADVADVVVP'
tp662
F2
s(S'MP'
S'MVVVNNP'
tp663
F1
s(S'AP'
S'ADVADVACP'
tp664
F1
s(S'VP'
S'AVDP'
tp665
F36
s(S'VP'
S'VVDDP'
tp666
F12
s(S'DP'
S'DAANP'
tp667
F17
s(g297
S'AANCCCP'
tp668
F1
s(S'AP'
S'ADDP'
tp669
F26
s(S'NP'
S'NNNVVVVVP'
tp670
F1
s(S'VP'
S'ADVADVADVVNNP'
tp671
F1
s(g78
S'PNNNNP'
tp672
F2
s(S'VP'
S'ADVVVAP'
tp673
F3
s(S'PP'
S'ADVPPNP'
tp674
F6
s(S'VP'
S'VADVADVADVVP'
tp675
F1
s(S'NP'
S'ADVADVNNMP'
tp676
F1
s(S'NP'
S'AAAANCCP'
tp677
F1
s(S'VP'
S'VVVCP'
tp678
F1
s(S'CP'
S'CADVADVDPP'
tp679
F3
s(g82
S'DPPP'
tp680
F79
s(S'PP'
S'ADVADVPPNP'
tp681
F1
s(S'AP'
S'AVVP'
tp682
F18
s(S'DP'
S'DDADVADVNP'
tp683
F2
s(g31
S'ADVPNP'
tp684
F11
s(S'PP'
S'PPDP'
tp685
F36
s(S'MP'
S'MAVDP'
tp686
F4
s(S'CP'
S'CCDDDDDP'
tp687
F1
s(S'DP'
S'DDPPPP'
tp688
F1
s(S'DP'
S'DDCP'
tp689
F1
s(S'CP'
S'CCAADDP'
tp690
F1
s(S'PP'
S'PPADVDDP'
tp691
F1
s(S'AP'
S'AAAPP'
tp692
F1
s(S'NP'
S'NAP'
tp693
F90
s(S'NP'
S'NNAAP'
tp694
F1
s(S'VP'
S'VAAAP'
tp695
F3
s(S'NP'
p696
S'AAAAANVP'
tp697
F3
s(S'VP'
S'VVP'
tp698
F43
s(S'DP'
S'DADVNP'
tp699
F4
s(S'PP'
S'ADVADVPVP'
tp700
F1
s(g532
S'PADVADVANP'
tp701
F1
s(S'PP'
S'APNP'
tp702
F13
s(S'VP'
S'VVVNNP'
tp703
F4
s(S'DP'
S'DDVVP'
tp704
F7
s(S'AP'
S'AAADDP'
tp705
F2
s(S'VP'
S'VVVNP'
tp706
F14
s(g143
S'NAMP'
tp707
F1
s(S'MP'
S'MVANP'
tp708
F3
s(S'AP'
S'AAADDDP'
tp709
F1
s(S'DP'
S'ADVDAVVP'
tp710
F1
s(S'MP'
S'MVNNP'
tp711
F1
s(S'CP'
S'CDPP'
tp712
F469
s(S'PP'
S'PAAAADP'
tp713
F1
s(S'AP'
S'ADDDP'
tp714
F3
s(S'CP'
S'ADVCADP'
tp715
F1
s(g273
S'MMMVP'
tp716
F1
s(S'CP'
S'ADVCDP'
tp717
F2
s(S'VP'
S'ADVADVVNP'
tp718
F5
s(g203
S'PPPPAANP'
tp719
F1
s(g190
S'ADVADVVCP'
tp720
F2
s(S'VP'
S'VADVADVDP'
tp721
F1
s(S'PP'
S'PPNNP'
tp722
F5
s(S'PP'
S'PPMP'
tp723
F2
s(S'DP'
S'ADVADVDPP'
tp724
F3
s(g159
S'VDP'
tp725
F396
s(S'NP'
S'NADVAP'
tp726
F3
s(g55
S'ADVADVPPNNP'
tp727
F2
s(S'DP'
S'DAP'
tp728
F49
s(S'CP'
S'CADPP'
tp729
F25
s(S'NP'
p730
S'NADVAVP'
tp731
F2
s(S'DP'
S'DADVADVADVADVPPP'
tp732
F1
s(S'PP'
S'PPDDDP'
tp733
F2
s(g34
S'AVPP'
tp734
F5
s(S'VP'
S'VVADVDP'
tp735
F1
s(S'CP'
S'CDPPPP'
tp736
F9
s(g325
S'AAVDP'
tp737
F13
s(g279
S'PANNP'
tp738
F2
s(S'NP'
p739
S'NMMMP'
tp740
F1
s(g549
S'NNDDP'
tp741
F3
s(S'DP'
S'DADVADVPP'
tp742
F3
s(S'DP'
S'DMP'
tp743
F13
s(S'PP'
S'PPPNP'
tp744
F7
s(S'NP'
S'NADVADVDP'
tp745
F1
s(S'NP'
S'AAANPP'
tp746
F1
s(S'PP'
S'PADVADVNP'
tp747
F1
s(S'PP'
S'PPPPNP'
tp748
F5
s(S'AP'
S'AADP'
tp749
F52
s(S'NP'
S'NNADVVVP'
tp750
F3
s(S'VP'
S'VADVPP'
tp751
F3
s(S'VP'
S'VADVADVNNP'
tp752
F1
s(S'PP'
S'ADVPVP'
tp753
F8
s(S'NP'
S'NADVADVADVVVP'
tp754
F4
s(S'DP'
S'ADMP'
tp755
F1
s(S'NP'
S'ADVANCP'
tp756
F1
s(S'NP'
S'NNVVVP'
tp757
F2
s(S'VP'
S'ADVVANP'
tp758
F2
s(S'PP'
S'ADVPDP'
tp759
F7
s(S'NP'
S'ANNPP'
tp760
F1
s(S'PP'
S'PPDDDDP'
tp761
F1
s(S'MP'
S'MVADVAP'
tp762
F4
s(S'NP'
S'NCP'
tp763
F291
s(g159
S'ADVVVPP'
tp764
F10
s(S'DP'
S'DDADVVVP'
tp765
F1
s(S'AP'
S'AAAP'
tp766
F1
s(S'VP'
S'VADVADVADVDP'
tp767
F1
s(S'PP'
S'PPAAAP'
tp768
F1
s(S'PP'
S'ADVPDDP'
tp769
F2
s(g730
S'AANDP'
tp770
F3
s(g76
S'MVCCP'
tp771
F3
s(g739
S'ANADVPPP'
tp772
F1
s(S'VP'
S'VADVADVANP'
tp773
F1
s(g696
S'NNCCP'
tp774
F8
s(S'MP'
S'MNVP'
tp775
F8
s(S'NP'
S'AANAP'
tp776
F1
s(g297
S'AANCCP'
tp777
F1
s(g246
S'VAPP'
tp778
F14
s(g143
S'NPPPPP'
tp779
F1
s(S'VP'
S'ADVVDP'
tp780
F22
s(S'DP'
S'DADVPP'
tp781
F17
s(S'AP'
S'AMP'
tp782
F1
s(S'CP'
S'CCADP'
tp783
F4
s(S'NP'
S'ADVNNCP'
tp784
F2
s(g263
S'ADVADVADVPNP'
tp785
F1
s(S'AP'
S'ADVAPP'
tp786
F13
s(S'CP'
S'AACDP'
tp787
F1
s(S'CP'
S'CCDDDP'
tp788
F2
s(S'MP'
S'MADVVNNP'
tp789
F1
s(g292
S'DVP'
tp790
F350
s(S'NP'
S'ADVNPP'
tp791
F2
s(S'VP'
S'ADVADVADVVVNP'
tp792
F1
s(S'CP'
S'CDADVADVADVADVPPP'
tp793
F1
s(S'PP'
S'PADVADVDDP'
tp794
F1
s(S'AP'
S'AVP'
tp795
F18
s(S'NP'
S'NADVVP'
tp796
F22
s(S'NP'
S'NNNMP'
tp797
F3
s(S'VP'
S'ADVVPPP'
tp798
F2
s(S'DP'
S'DDPPP'
tp799
F7
s(S'MP'
S'MADVADVADVVDP'
tp800
F2
s(S'NP'
S'ADVNMP'
tp801
F9
s(S'NP'
S'NNAP'
tp802
F6
s(S'PP'
S'PPANP'
tp803
F1
s(S'CP'
S'CDADVPP'
tp804
F11
s(g159
S'VNP'
tp805
F279
s(S'NP'
S'AAANADVAP'
tp806
F1
s(S'VP'
S'VANP'
tp807
F23
s(S'VP'
S'VADVAP'
tp808
F32
s(S'PP'
S'PPADVNP'
tp809
F2
s(g362
S'DDDDVP'
tp810
F2
s(S'VP'
S'ADVADVVVDP'
tp811
F1
s.