ccollections
defaultdict
p1
(c__builtin__
float
p2
tRp3
(S'PP'
S'PAAANP'
tp4
F1
s(S'DP'
S'ADDPP'
tp5
F1
s(S'NP'
S'ADVNNMP'
tp6
F1
s(S'DP'
S'DDAP'
tp7
F2
s(S'VP'
p8
S'ADVVVNP'
tp9
F5
s(S'VP'
S'VVVVP'
tp10
F2
s(S'DP'
S'DAANNP'
tp11
F1
s(S'AP'
S'AVVVP'
tp12
F1
s(S'NP'
S'AAAANPPP'
tp13
F1
s(S'DP'
p14
S'DDDDDNP'
tp15
F1
s(S'PP'
S'PADVNP'
tp16
F17
s(S'DP'
p17
S'DNP'
tp18
F581
s(S'PP'
S'PPADVAVP'
tp19
F1
s(S'NP'
S'ADVNDP'
tp20
F1
s(S'PP'
S'AAPDDP'
tp21
F2
s(S'PP'
p22
S'APPNNNP'
tp23
F1
s(S'CP'
S'CDPPP'
tp24
F54
s(S'VP'
S'VADP'
tp25
F12
s(S'DP'
p26
S'DNNNNP'
tp27
F1
s(S'DP'
p28
S'DAAP'
tp29
F5
s(S'MP'
S'MNVVVP'
tp30
F1
s(S'VP'
S'VAVP'
tp31
F2
s(S'CP'
S'CADVADVDPPP'
tp32
F1
s(S'DP'
p33
S'ADNNP'
tp34
F3
s(S'NP'
S'AANAAP'
tp35
F1
s(S'VP'
S'ADVVNP'
tp36
F20
s(S'MP'
S'MVDP'
tp37
F43
s(S'PP'
S'PADVANP'
tp38
F1
s(S'PP'
S'PPPP'
tp39
F9
s(g8
S'VVVVDDP'
tp40
F2
s(S'AP'
S'ADVAPPP'
tp41
F1
s(S'DP'
p42
S'DDDNP'
tp43
F5
s(S'VP'
S'VACP'
tp44
F3
s(S'DP'
S'DADVVP'
tp45
F9
s(S'NP'
S'AANPPPP'
tp46
F1
s(S'PP'
S'PADVNNP'
tp47
F1
s(S'AP'
S'AADVPP'
tp48
F2
s(S'NP'
S'NCCCP'
tp49
F4
s(S'NP'
S'NAADP'
tp50
F1
s(S'VP'
p51
S'VCP'
tp52
F192
s(S'MP'
S'MVVANP'
tp53
F1
s(S'NP'
S'NMMP'
tp54
F5
s(S'PP'
S'PPVVP'
tp55
F4
s(S'NP'
S'NANP'
tp56
F1
s(S'VP'
S'ADVVAAP'
tp57
F1
s(S'NP'
p58
S'AAAANPP'
tp59
F1
s(S'VP'
S'ADVVCCP'
tp60
F1
s(S'PP'
p61
S'PAP'
tp62
F118
s(S'NP'
S'ADVADVADVNNMP'
tp63
F1
s(S'MP'
S'MMVVP'
tp64
F2
s(S'VP'
S'VADVADVAP'
tp65
F3
s(S'PP'
p66
S'ADVPPVP'
tp67
F2
s(S'NP'
S'ADVADVADVADVNMP'
tp68
F1
s(S'NP'
S'ANPPP'
tp69
F1
s(S'MP'
p70
S'AMVP'
tp71
F2
s(S'PP'
p72
S'PNP'
tp73
F477
s(S'NP'
S'ADVANADVVP'
tp74
F1
s(S'DP'
S'DDP'
tp75
F39
s(S'MP'
S'MADVADVVAP'
tp76
F1
s(S'VP'
S'ADVVDDP'
tp77
F3
s(S'NP'
S'NNNPP'
tp78
F1
s(S'NP'
p79
S'NNDP'
tp80
F16
s(S'MP'
S'MCDP'
tp81
F4
s(S'NP'
p82
S'NMP'
tp83
F140
s(S'MP'
S'MAVDDP'
tp84
F1
s(S'PP'
S'PAPP'
tp85
F7
s(S'NP'
S'AAAANADVVP'
tp86
F1
s(S'MP'
S'MDAVP'
tp87
F1
s(S'NP'
S'NAAAPP'
tp88
F1
s(S'VP'
S'AAVNP'
tp89
F1
s(S'VP'
S'VMMP'
tp90
F1
s(g72
S'PDP'
tp91
F535
s(S'DP'
p92
S'DDPPPPP'
tp93
F1
s(S'CP'
S'CCADVADVDP'
tp94
F2
s(S'VP'
S'VAMP'
tp95
F1
s(S'NP'
S'ADVNVVP'
tp96
F1
s(S'VP'
S'VNNNNP'
tp97
F1
s(S'MP'
S'MNNVP'
tp98
F1
s(S'NP'
S'AAANVVP'
tp99
F1
s(S'NP'
S'NNADVADVADVVVP'
tp100
F1
s(S'AP'
S'ANP'
tp101
F3
s(S'PP'
S'PADVPP'
tp102
F4
s(S'NP'
S'NNADVCP'
tp103
F1
s(S'VP'
S'VVADVNP'
tp104
F2
s(S'VP'
S'VVDDP'
tp105
F6
s(S'PP'
S'ADVADVAPPP'
tp106
F1
s(S'DP'
S'DPPPP'
tp107
F11
s(S'DP'
S'DDANP'
tp108
F5
s(g82
S'NACP'
tp109
F7
s(S'NP'
S'NNNNDDP'
tp110
F1
s(S'NP'
S'NCCP'
tp111
F33
s(S'MP'
p112
S'MVVADVNP'
tp113
F1
s(S'DP'
S'DADVADVVVP'
tp114
F1
s(S'VP'
S'VANNP'
tp115
F3
s(S'NP'
p116
S'NNCP'
tp117
F55
s(S'DP'
S'ADVDDPP'
tp118
F2
s(S'NP'
S'NADVADVVP'
tp119
F1
s(S'DP'
S'DDDDP'
tp120
F1
s(S'DP'
S'DDAPP'
tp121
F3
s(S'VP'
S'AVNP'
tp122
F7
s(S'DP'
S'DDAAANP'
tp123
F1
s(S'NP'
p124
S'NADVADVPP'
tp125
F2
s(S'PP'
S'ADVAPDP'
tp126
F1
s(S'VP'
S'VADVVP'
tp127
F11
s(S'VP'
S'ADVADVADVVNP'
tp128
F1
s(S'MP'
S'MVAPP'
tp129
F1
s(S'MP'
S'MVPPP'
tp130
F1
s(S'NP'
p131
S'ANADVVP'
tp132
F2
s(S'VP'
S'ADVADVADVADVVAP'
tp133
F1
s(S'CP'
S'CCCDP'
tp134
F6
s(S'VP'
S'ADVVAP'
tp135
F9
s(S'PP'
S'ADVPPNNP'
tp136
F1
s(S'VP'
S'VCCCP'
tp137
F2
s(S'PP'
p138
S'APDP'
tp139
F42
s(S'VP'
S'ADVVNNP'
tp140
F2
s(S'AP'
S'AADVCP'
tp141
F1
s(S'VP'
p142
S'VVADVADVVP'
tp143
F1
s(S'MP'
S'MVADVVP'
tp144
F1
s(S'VP'
S'VVANP'
tp145
F5
s(S'VP'
S'VVVVDP'
tp146
F7
s(S'VP'
S'ADVVVP'
tp147
F3
s(S'NP'
p148
S'ADVADVNNPP'
tp149
F1
s(S'AP'
S'ADVAAADP'
tp150
F1
s(S'MP'
S'MADVVNP'
tp151
F8
s(S'NP'
p152
S'ADVANCP'
tp153
F2
s(g14
S'DNNP'
tp154
F105
s(S'CP'
S'CADVDDPP'
tp155
F2
s(S'DP'
S'DPPPPP'
tp156
F4
s(S'CP'
S'CCADVDP'
tp157
F2
s(g33
S'ADDNP'
tp158
F1
s(S'NP'
p159
S'NNNVP'
tp160
F4
s(S'VP'
S'VADVNNP'
tp161
F1
s(S'PP'
S'PADVVP'
tp162
F7
s(S'DP'
S'DADVVVP'
tp163
F4
s(S'PP'
S'APAP'
tp164
F3
s(S'AP'
S'APP'
tp165
F58
s(S'NP'
S'NADVMP'
tp166
F2
s(S'AP'
p167
S'AAP'
tp168
F7
s(S'VP'
p169
S'VADVADVVP'
tp170
F1
s(S'VP'
p171
S'VVAPP'
tp172
F3
s(S'DP'
S'DADVADVNP'
tp173
F1
s(S'NP'
S'ADVANPP'
tp174
F1
s(S'VP'
S'VVVVPP'
tp175
F2
s(S'DP'
p176
S'DAAVP'
tp177
F4
s(S'CP'
S'CDDDDPP'
tp178
F2
s(S'MP'
S'MVADVAP'
tp179
F1
s(S'MP'
S'MVVVNP'
tp180
F2
s(g61
S'PAANP'
tp181
F6
s(S'VP'
S'VVVANP'
tp182
F1
s(S'NP'
p183
S'ANVP'
tp184
F29
s(S'VP'
S'VAACP'
tp185
F1
s(S'NP'
p186
S'NNNDDDP'
tp187
F1
s(S'MP'
S'MVNP'
tp188
F38
s(S'AP'
S'ADVAADP'
tp189
F1
s(S'DP'
S'ADVADNP'
tp190
F1
s(S'PP'
p191
S'PAVP'
tp192
F15
s(S'MP'
S'ADVMVP'
tp193
F3
s(S'MP'
S'MDANP'
tp194
F1
s(S'DP'
S'DDAPPP'
tp195
F1
s(S'VP'
S'VVVPP'
tp196
F6
s(S'AP'
S'ADVACCP'
tp197
F1
s(S'DP'
S'DADP'
tp198
F3
s(S'AP'
S'ADVADP'
tp199
F4
s(S'NP'
S'ADVNNVVP'
tp200
F1
s(S'VP'
p201
S'VVADVPP'
tp202
F1
s(S'PP'
S'APDDP'
tp203
F7
s(S'VP'
S'ADVADVVVNP'
tp204
F3
s(S'NP'
S'ADVNAP'
tp205
F1
s(S'PP'
p206
S'AAPNNNP'
tp207
F1
s(S'PP'
S'PPCP'
tp208
F1
s(S'PP'
S'APVP'
tp209
F8
s(S'VP'
S'VVNP'
tp210
F51
s(S'PP'
S'PPPNNP'
tp211
F2
s(S'PP'
S'PPVP'
tp212
F27
s(S'VP'
S'VADVDP'
tp213
F2
s(S'NP'
S'ADVANNPP'
tp214
F1
s(S'DP'
p215
S'DDDPP'
tp216
F18
s(S'VP'
S'VAAP'
tp217
F14
s(S'NP'
S'ANDP'
tp218
F15
s(S'NP'
p219
S'NVVP'
tp220
F126
s(S'PP'
S'AAPVP'
tp221
F3
s(S'PP'
S'PPADP'
tp222
F1
s(S'VP'
S'VMP'
tp223
F7
s(S'NP'
S'ANNAP'
tp224
F1
s(S'VP'
S'VVNNP'
tp225
F1
s(S'CP'
p226
S'CDAPP'
tp227
F23
s(S'VP'
S'VVAAP'
tp228
F3
s(S'NP'
S'ADVADVADVANADVVVP'
tp229
F1
s(S'CP'
S'CADVADPP'
tp230
F1
s(g215
S'ADNP'
tp231
F19
s(g191
S'PADP'
tp232
F22
s(S'DP'
S'DDAAAPP'
tp233
F1
s(g148
S'NADVADVADVVVP'
tp234
F1
s(S'NP'
S'ANDDP'
tp235
F1
s(S'PP'
S'ADVADVADVPPPNP'
tp236
F1
s(S'VP'
S'VVVDDP'
tp237
F3
s(S'VP'
S'VVVVVDP'
tp238
F1
s(S'DP'
p239
S'DAPP'
tp240
F34
s(S'PP'
S'ADVPPPPP'
tp241
F1
s(S'VP'
S'AVVP'
tp242
F1
s(S'VP'
p243
S'VADVADVNNP'
tp244
F1
s(S'DP'
S'DDDDADVNNP'
tp245
F1
s(S'PP'
S'AAAPVP'
tp246
F2
s(g142
S'ADVADVVDP'
tp247
F4
s(S'PP'
S'PPPDP'
tp248
F3
s(S'VP'
p249
S'VVAAANP'
tp250
F1
s(S'PP'
p251
S'AAAPDP'
tp252
F1
s(S'PP'
S'ADVPADVMP'
tp253
F1
s(g249
S'VDDDDP'
tp254
F2
s(S'DP'
S'DADVANP'
tp255
F2
s(S'VP'
p256
S'VAAPP'
tp257
F5
s(S'DP'
S'ADVDNP'
tp258
F2
s(S'VP'
S'VVPP'
tp259
F54
s(g186
S'ADVANADVADVADVVP'
tp260
F1
s(g116
S'AAAANVP'
tp261
F1
s(g70
S'MVPP'
tp262
F23
s(g215
S'ADVP'
tp263
F12
s(S'MP'
S'MVADP'
tp264
F1
s(S'CP'
S'CAADADVPPP'
tp265
F1
s(S'PP'
S'PPPAP'
tp266
F1
s(S'NP'
S'NNPP'
tp267
F26
s(S'DP'
S'DDDDNP'
tp268
F2
s(S'MP'
S'MVVDP'
tp269
F2
s(S'DP'
S'DADVPPP'
tp270
F4
s(S'MP'
S'MADVADVADVVDP'
tp271
F1
s(S'DP'
S'DNNNP'
tp272
F7
s(g176
S'ADVDDVP'
tp273
F1
s(S'VP'
S'VADVADVPPP'
tp274
F1
s(S'PP'
S'PADVADVVP'
tp275
F1
s(S'VP'
p276
S'VADVDDP'
tp277
F1
s(S'NP'
S'AANDDDP'
tp278
F1
s(S'PP'
S'PVVVP'
tp279
F3
s(S'PP'
S'PMP'
tp280
F9
s(S'NP'
p281
S'NNMMP'
tp282
F1
s(S'CP'
S'CCDP'
tp283
F57
s(S'NP'
S'ADVNNDP'
tp284
F1
s(S'DP'
S'ADVADVADVDPP'
tp285
F1
s(S'VP'
S'VADVANP'
tp286
F3
s(S'NP'
S'NVVVP'
tp287
F20
s(S'CP'
S'CDDDPP'
tp288
F10
s(S'PP'
S'PADVADVADVADVNP'
tp289
F1
s(S'CP'
S'CDAAPP'
tp290
F4
s(S'VP'
S'VVVDP'
tp291
F11
s(S'PP'
S'PNNNP'
tp292
F4
s(S'MP'
S'MADVVDP'
tp293
F6
s(S'PP'
S'PADVADVADVNNP'
tp294
F2
s(S'PP'
S'AAPNP'
tp295
F2
s(S'VP'
S'ADVVVDP'
tp296
F3
s(S'PP'
p297
S'PPP'
tp298
F80
s(g58
S'NAVP'
tp299
F28
s(S'PP'
S'PADVAP'
tp300
F1
s(S'DP'
S'DDNNNP'
tp301
F1
s(S'VP'
S'VVPPP'
tp302
F3
s(S'DP'
S'ADVDVP'
tp303
F4
s(S'NP'
S'NADVVVP'
tp304
F14
s(S'DP'
S'DADVADVPPP'
tp305
F1
s(S'AP'
S'AADVVP'
tp306
F1
s(S'PP'
p307
S'PPPPDP'
tp308
F3
s(S'MP'
S'MVVVVDP'
tp309
F1
s(S'MP'
S'MADVADVVPP'
tp310
F1
s(S'VP'
p311
S'VPP'
tp312
F311
s(S'VP'
S'VADVANNP'
tp313
F1
s(S'CP'
S'ADVCCDP'
tp314
F3
s(S'DP'
p315
S'ADVDDNP'
tp316
F3
s(g281
S'NNNCP'
tp317
F3
s(g206
S'PADVDP'
tp318
F2
s(S'CP'
S'CDADVAPP'
tp319
F1
s(S'DP'
p320
S'DANNP'
tp321
F1
s(S'MP'
S'MADVVAP'
tp322
F2
s(g138
S'PADVAAP'
tp323
F2
s(g226
S'CDDPP'
tp324
F59
s(S'DP'
p325
S'DAAPP'
tp326
F7
s(S'PP'
S'PVVP'
tp327
F32
s(S'CP'
S'CADPPP'
tp328
F1
s(S'AP'
S'AACP'
tp329
F6
s(S'VP'
S'ADVAVDDP'
tp330
F1
s(S'VP'
S'ADVVCP'
tp331
F7
s(S'VP'
S'VPPP'
tp332
F26
s(S'CP'
S'CDADVADVAPP'
tp333
F2
s(S'PP'
S'ADVADVAPVVVP'
tp334
F1
s(S'PP'
S'PPAP'
tp335
F14
s(S'DP'
S'DVVP'
tp336
F49
s(S'NP'
p337
S'ANMP'
tp338
F5
s(S'AP'
S'APPP'
tp339
F4
s(S'PP'
S'ADVPPP'
tp340
F2
s(S'NP'
S'ADVADVNVP'
tp341
F2
s(S'VP'
S'VVVP'
tp342
F11
s(g124
S'ADVNNCCP'
tp343
F1
s(S'CP'
S'CADVDPP'
tp344
F19
s(g219
S'ANCP'
tp345
F43
s(S'DP'
S'DCP'
tp346
F20
s(S'NP'
S'AAANCP'
tp347
F1
s(S'VP'
S'ADVVVVP'
tp348
F1
s(S'MP'
S'MAVDP'
tp349
F1
s(S'NP'
S'NNVVVVP'
tp350
F2
s(S'DP'
p351
S'DDDP'
tp352
F5
s(g131
S'ANVVP'
tp353
F17
s(S'NP'
S'NVVVVP'
tp354
F10
s(S'NP'
S'NPPP'
tp355
F26
s(S'DP'
S'DAVP'
tp356
F18
s(S'NP'
S'NNNMP'
tp357
F3
s(S'NP'
S'NNNNMP'
tp358
F1
s(S'AP'
S'ACP'
tp359
F67
s(S'PP'
S'AAPAP'
tp360
F1
s(S'NP'
S'NDDDDP'
tp361
F1
s(S'PP'
S'PPNP'
tp362
F49
s(S'NP'
S'ADVADVANPP'
tp363
F1
s(g92
S'AADVP'
tp364
F1
s(S'PP'
S'PPPADVAAP'
tp365
F1
s(S'PP'
S'PPPPDDP'
tp366
F1
s(S'AP'
S'ADP'
tp367
F410
s(S'PP'
S'APMP'
tp368
F1
s(g26
S'DDPPPP'
tp369
F2
s(S'VP'
S'VVADVADVADVDDP'
tp370
F1
s(S'VP'
p371
S'AAVDP'
tp372
F4
s(S'DP'
S'DVVVVP'
tp373
F2
s(S'DP'
S'ADVADVDDNP'
tp374
F1
s(S'AP'
S'AAADP'
tp375
F5
s(S'NP'
S'ANNVP'
tp376
F2
s(S'VP'
S'VVAP'
tp377
F18
s(S'NP'
S'NNAPP'
tp378
F1
s(S'NP'
S'NNADVADVADVVP'
tp379
F1
s(S'CP'
S'CADVDADVADVADVPPPP'
tp380
F1
s(S'VP'
S'VAAAPP'
tp381
F1
s(S'DP'
p382
S'AADDPPP'
tp383
F1
s(S'PP'
S'AAAPADVDDP'
tp384
F1
s(S'NP'
p385
S'NPP'
tp386
F375
s(S'VP'
S'ADVADVVAP'
tp387
F1
s(g385
S'NVP'
tp388
F698
s(S'PP'
S'PAAVP'
tp389
F2
s(S'NP'
S'NAAPP'
tp390
F3
s(S'DP'
S'DDDDNNP'
tp391
F1
s(g51
S'VDDP'
tp392
F42
s(S'NP'
S'NNAAMP'
tp393
F1
s(S'NP'
S'AANNVP'
tp394
F2
s(S'DP'
S'DMP'
tp395
F7
s(g351
S'DADVAPP'
tp396
F3
s(S'NP'
S'AAADVNADVADVPPPP'
tp397
F1
s(S'PP'
S'ADVAPAP'
tp398
F1
s(S'NP'
S'NADVADVVVP'
tp399
F3
s(g385
S'ANPP'
tp400
F38
s(S'PP'
S'ADVPPDP'
tp401
F1
s(S'PP'
p402
S'PPPPP'
tp403
F3
s(S'MP'
S'MPDP'
tp404
F1
s(S'PP'
S'ADVADVPDP'
tp405
F1
s(S'MP'
S'MVVPP'
tp406
F4
s(S'PP'
S'PPPNP'
tp407
F4
s(S'VP'
S'VVAAPP'
tp408
F1
s(g82
S'ADVADVNPP'
tp409
F1
s(S'NP'
S'NPPPP'
tp410
F1
s(S'NP'
S'ANPPPPP'
tp411
F1
s(S'DP'
S'ADDP'
tp412
F1
s(S'CP'
S'CAADPP'
tp413
F7
s(S'DP'
S'DADVADVVP'
tp414
F1
s(S'NP'
p415
S'NAACP'
tp416
F1
s(S'PP'
S'PNNP'
tp417
F42
s(g22
S'APNNP'
tp418
F2
s(g382
S'DDAAP'
tp419
F1
s(S'MP'
S'MMNP'
tp420
F1
s(S'VP'
S'AVAP'
tp421
F1
s(S'MP'
S'MMVP'
tp422
F4
s(S'PP'
S'PADVDDP'
tp423
F2
s(S'DP'
S'ADVDADVADVADVPPPP'
tp424
F1
s(S'NP'
S'ADVNCP'
tp425
F6
s(S'AP'
S'AADP'
tp426
F45
s(S'CP'
p427
S'ACDP'
tp428
F12
s(g191
S'PAAP'
tp429
F14
s(S'AP'
S'ADVANP'
tp430
F2
s(S'CP'
S'CDADVPPP'
tp431
F4
s(g371
S'VAP'
tp432
F206
s(S'VP'
S'VVVVNP'
tp433
F5
s(g112
S'MNVVP'
tp434
F1
s(S'VP'
S'VVADVADVANP'
tp435
F1
s(S'DP'
S'ADVADVDDNNP'
tp436
F1
s(S'PP'
S'PAAPP'
tp437
F1
s(S'VP'
S'VVPPPPP'
tp438
F1
s(S'AP'
S'ADVAAPP'
tp439
F1
s(S'AP'
S'AAVVP'
tp440
F2
s(S'VP'
S'ADVAVDP'
tp441
F1
s(S'DP'
S'DADVDP'
tp442
F1
s(g82
S'NAAP'
tp443
F11
s(g402
S'PPPVP'
tp444
F4
s(S'AP'
S'AADDP'
tp445
F2
s(S'CP'
S'AACDDDDP'
tp446
F1
s(g315
S'DADVAAP'
tp447
F1
s(S'VP'
S'VAANP'
tp448
F8
s(S'VP'
S'AAVADVDDP'
tp449
F1
s(S'MP'
S'MADVADVADVVNP'
tp450
F1
s(S'VP'
p451
S'VVDP'
tp452
F88
s(S'MP'
S'MADP'
tp453
F3
s(S'VP'
S'ADVADVADVVAP'
tp454
F1
s(S'CP'
S'CCAADP'
tp455
F1
s(S'DP'
S'DDADVNP'
tp456
F1
s(g72
S'PANP'
tp457
F28
s(S'NP'
S'AANMP'
tp458
F2
s(S'AP'
S'AAVP'
tp459
F5
s(S'AP'
S'AVVP'
tp460
F13
s(g337
S'NDDP'
tp461
F13
s(S'AP'
S'ACCP'
tp462
F4
s(S'VP'
S'AAVPPPP'
tp463
F1
s(g79
S'NDP'
tp464
F126
s(S'VP'
S'VVADVADVCP'
tp465
F1
s(S'NP'
p466
S'AAANVP'
tp467
F2
s(S'MP'
S'MVAAP'
tp468
F1
s(S'DP'
p469
S'DDVP'
tp470
F37
s(g79
S'AANVP'
tp471
F16
s(S'NP'
S'ADVNCCP'
tp472
F1
s(S'VP'
p473
S'ADVVVNNP'
tp474
F3
s(S'DP'
S'DADVADVAPP'
tp475
F2
s(S'VP'
S'VNNNP'
tp476
F3
s(S'PP'
S'ADVPAP'
tp477
F2
s(S'NP'
S'NNNNVVP'
tp478
F1
s(g307
S'PCP'
tp479
F5
s(g82
S'NNPPP'
tp480
F4
s(S'PP'
S'PAADP'
tp481
F4
s(S'NP'
S'ADVNNVP'
tp482
F2
s(S'DP'
S'AADADVPPP'
tp483
F1
s(S'VP'
S'VPPPP'
tp484
F2
s(S'VP'
S'VCCP'
tp485
F14
s(S'NP'
S'NNNDP'
tp486
F1
s(S'AP'
S'ADVACP'
tp487
F4
s(S'NP'
S'AANVVVP'
tp488
F1
s(S'NP'
S'ADVADVNMP'
tp489
F4
s(S'DP'
S'DDADVVP'
tp490
F1
s(g116
S'NNVP'
tp491
F76
s(S'NP'
S'NNNAAAAPP'
tp492
F1
s(S'NP'
S'NNAAVP'
tp493
F1
s(S'MP'
S'MVCP'
tp494
F7
s(S'CP'
S'CCDDP'
tp495
F6
s(S'NP'
S'NNADVVP'
tp496
F4
s(S'DP'
S'DDADP'
tp497
F1
s(S'DP'
S'DADVADVADVVVP'
tp498
F1
s(g466
S'NNVVP'
tp499
F19
s(S'NP'
S'NNNNVP'
tp500
F1
s(S'VP'
S'VVCP'
tp501
F14
s(S'NP'
S'AANCP'
tp502
F5
s(S'VP'
S'VADVNP'
tp503
F4
s(S'VP'
S'VVDDDP'
tp504
F1
s(S'AP'
S'ADVAVVP'
tp505
F1
s(S'VP'
S'AVDP'
tp506
F39
s(S'AP'
S'AAAPP'
tp507
F1
s(S'PP'
S'PPADVANP'
tp508
F1
s(S'VP'
S'ADVVPP'
tp509
F7
s(S'CP'
S'CADVADVADVDDPP'
tp510
F1
s(S'CP'
S'CDAPPP'
tp511
F2
s(g276
S'VNNP'
tp512
F35
s(S'VP'
S'ADVADVVVANP'
tp513
F1
s(g82
S'NADP'
tp514
F5
s(S'DP'
S'DDNP'
tp515
F41
s(S'CP'
S'CAADDPPP'
tp516
F1
s(S'DP'
S'DDNNP'
tp517
F10
s(S'NP'
S'ADVANVP'
tp518
F1
s(S'AP'
S'AADVADP'
tp519
F1
s(S'PP'
S'AAAAPDP'
tp520
F1
s(S'NP'
S'ADVADVNCP'
tp521
F1
s(S'AP'
S'ADVADDP'
tp522
F1
s(S'DP'
S'AADPP'
tp523
F10
s(g201
S'VVVAAP'
tp524
F1
s(S'PP'
S'APPNP'
tp525
F1
s(S'NP'
S'NNNNPP'
tp526
F1
s(S'PP'
p527
S'ADVADVPPPNP'
tp528
F1
s(S'DP'
S'AAADVP'
tp529
F1
s(S'CP'
S'CDPPPPP'
tp530
F3
s(S'NP'
S'ANVVVP'
tp531
F1
s(S'NP'
S'NADVADVCCP'
tp532
F1
s(S'MP'
S'MVVNP'
tp533
F5
s(g427
S'CAAADDPP'
tp534
F1
s(S'PP'
S'PPPADVDP'
tp535
F1
s(S'AP'
S'AAPP'
tp536
F11
s(S'VP'
S'VVCCP'
tp537
F4
s(S'NP'
S'NADVADVADVADVVP'
tp538
F1
s(S'NP'
S'ADVNANP'
tp539
F1
s(S'PP'
S'APDDDDP'
tp540
F1
s(S'DP'
S'DAAAPP'
tp541
F1
s(S'NP'
p542
S'NAPP'
tp543
F14
s(S'PP'
S'APPVP'
tp544
F1
s(S'AP'
S'ADVADVADP'
tp545
F2
s(S'NP'
S'NADVDP'
tp546
F1
s(g171
S'VVVCP'
tp547
F1
s(S'PP'
S'APDDDP'
tp548
F1
s(S'NP'
S'ANCCP'
tp549
F5
s(S'NP'
S'AANPP'
tp550
F7
s(S'NP'
S'NNCCP'
tp551
F3
s(S'NP'
S'NNMP'
tp552
F18
s(S'DP'
S'DDDVP'
tp553
F5
s(S'PP'
S'ADVADVPNNP'
tp554
F1
s(S'PP'
S'PAAAP'
tp555
F2
s(S'PP'
S'ADVADVPNP'
tp556
F2
s(S'NP'
p557
S'AAAANCP'
tp558
F1
s(S'CP'
S'CDDAPP'
tp559
F2
s(S'NP'
S'ANAP'
tp560
F6
s(S'DP'
S'ADVADVADVDDNP'
tp561
F1
s(S'MP'
S'MVAP'
tp562
F12
s(g297
S'PVP'
tp563
F319
s(S'VP'
S'VADVPPP'
tp564
F1
s(S'DP'
S'DADVAVP'
tp565
F1
s(S'AP'
S'ADVADVAPP'
tp566
F1
s(S'MP'
S'AAMVP'
tp567
F1
s(S'PP'
S'PADVADVADVCCP'
tp568
F1
s(S'VP'
S'VADVCCP'
tp569
F1
s(S'AP'
S'ADVAACP'
tp570
F1
s(S'DP'
S'DVVVP'
tp571
F5
s(g415
S'ADVNNAP'
tp572
F1
s(S'NP'
S'AAAANADVVVP'
tp573
F1
s(S'DP'
S'DDDNNNNP'
tp574
F1
s(S'VP'
S'VCCCCP'
tp575
F1
s(S'NP'
S'ADVADVADVNVP'
tp576
F1
s(g251
S'PPDDP'
tp577
F2
s(S'VP'
S'AVCP'
tp578
F2
s(S'NP'
S'NADVADVAP'
tp579
F1
s(g14
S'DPP'
tp580
F657
s(S'NP'
S'ADVNVP'
tp581
F11
s(g239
S'DDPP'
tp582
F84
s(S'DP'
S'DDAVP'
tp583
F2
s(g215
S'DANP'
tp584
F98
s(S'NP'
S'NADVPP'
tp585
F2
s(g527
S'PAAADVNP'
tp586
F1
s(S'DP'
S'DDAAAANP'
tp587
F1
s(S'VP'
S'ADVADVVPP'
tp588
F1
s(g297
S'PDDDP'
tp589
F5
s(S'CP'
S'CADVADVADVDPP'
tp590
F1
s(S'DP'
S'ADVADVDPPP'
tp591
F1
s(S'AP'
S'ADVAVP'
tp592
F2
s(S'NP'
S'NADVCCP'
tp593
F2
s(S'NP'
S'NNNVVP'
tp594
F2
s(S'NP'
S'NNVVVVVP'
tp595
F1
s(g66
S'PADVPPP'
tp596
F1
s(g28
S'DCCP'
tp597
F1
s(g320
S'AADDP'
tp598
F2
s(S'PP'
S'PPPPNP'
tp599
F3
s(S'PP'
S'AAPDP'
tp600
F8
s(S'VP'
S'ADVADVADVVDP'
tp601
F2
s(S'DP'
S'DADVAP'
tp602
F2
s(S'PP'
p603
S'PDDP'
tp604
F35
s(S'MP'
S'MVDDP'
tp605
F5
s(S'NP'
S'NNNADVVP'
tp606
F1
s(S'DP'
S'ADPPP'
tp607
F1
s(S'MP'
S'MADVVDDP'
tp608
F2
s(g14
S'DDDADVADVNP'
tp609
F1
s(S'NP'
S'NNP'
tp610
F1
s(g17
S'ADVADPP'
tp611
F1
s(S'DP'
p612
S'DAANP'
tp613
F21
s(g167
S'ADDP'
tp614
F29
s(S'PP'
S'PNNNNP'
tp615
F2
s(S'VP'
S'ADVVVAP'
tp616
F3
s(S'PP'
S'ADVPPNP'
tp617
F3
s(S'NP'
S'ADVADVNVVP'
tp618
F1
s(S'CP'
S'CADVADVDPP'
tp619
F4
s(g215
S'DPPP'
tp620
F81
s(S'DP'
S'AADPPP'
tp621
F1
s(S'CP'
S'ADVADVADVCCDP'
tp622
F1
s(S'PP'
S'ADVADVPPNP'
tp623
F2
s(S'AP'
S'AAAP'
tp624
F1
s(S'NP'
S'NNAVP'
tp625
F3
s(g603
S'ADVPNP'
tp626
F6
s(g297
S'PPDP'
tp627
F43
s(S'MP'
S'MVPPPP'
tp628
F1
s(S'PP'
S'PPAAADP'
tp629
F1
s(S'AP'
S'AAPPP'
tp630
F1
s(S'DP'
S'DDCP'
tp631
F1
s(S'DP'
S'DDAMP'
tp632
F1
s(S'PP'
S'PAANNP'
tp633
F1
s(S'AP'
S'ANNP'
tp634
F2
s(g219
S'NAP'
tp635
F90
s(S'VP'
S'ADVVVADVAP'
tp636
F1
s(S'MP'
S'MADVADVVVNP'
tp637
F1
s(S'VP'
S'VVP'
tp638
F29
s(S'DP'
p639
S'DADVNP'
tp640
F6
s(S'PP'
S'ADVADVPVP'
tp641
F1
s(S'PP'
S'APNP'
tp642
F12
s(S'VP'
S'VVVNNP'
tp643
F1
s(S'DP'
S'DDVVP'
tp644
F2
s(g256
S'VVVNP'
tp645
F9
s(S'CP'
S'CDDAAAPP'
tp646
F1
s(S'MP'
S'MVANP'
tp647
F2
s(S'MP'
S'MVNNP'
tp648
F4
s(g427
S'CDPP'
tp649
F538
s(S'AP'
S'ADDDP'
tp650
F1
s(g297
S'PDDDDDP'
tp651
F1
s(S'CP'
S'ADVCDP'
tp652
F2
s(S'AP'
S'ADVAAP'
tp653
F2
s(S'PP'
S'PPPPAP'
tp654
F1
s(g14
S'AAADDPP'
tp655
F1
s(S'NP'
S'NNNNPPP'
tp656
F2
s(S'VP'
S'ADVADVVCP'
tp657
F1
s(S'PP'
S'PPNNP'
tp658
F5
s(S'PP'
S'ADVAPPP'
tp659
F1
s(S'PP'
S'PPMP'
tp660
F2
s(S'CP'
S'CCADDP'
tp661
F1
s(S'DP'
S'ADVADVDPP'
tp662
F6
s(S'VP'
S'VDP'
tp663
F509
s(S'NP'
S'NADVAP'
tp664
F3
s(S'VP'
S'AVDDP'
tp665
F2
s(S'CP'
S'ADVADVCDDP'
tp666
F1
s(g469
S'DAP'
tp667
F49
s(S'CP'
S'CADPP'
tp668
F36
s(S'PP'
S'PPAVP'
tp669
F4
s(S'CP'
S'CCCCDP'
tp670
F1
s(S'VP'
S'VVDDDDP'
tp671
F1
s(S'MP'
S'MADVADVVDP'
tp672
F1
s(S'PP'
S'PPDDDP'
tp673
F1
s(g201
S'AVPP'
tp674
F19
s(S'CP'
S'CAADPPP'
tp675
F1
s(S'DP'
S'DDNNNNP'
tp676
F1
s(S'VP'
S'VVADVDP'
tp677
F1
s(S'CP'
S'CDADVADVPP'
tp678
F2
s(S'PP'
S'PPADVADVDDP'
tp679
F1
s(S'CP'
S'CDDPPPPP'
tp680
F1
s(S'CP'
S'CDPPPP'
tp681
F10
s(g249
S'VADVADVCCP'
tp682
F1
s(S'VP'
S'VADVADVADVNP'
tp683
F1
s(S'DP'
S'AADNNP'
tp684
F2
s(g169
S'ADVADVVVP'
tp685
F1
s(g183
S'NNDDP'
tp686
F2
s(S'DP'
S'DAPPP'
tp687
F2
s(S'DP'
S'DADVADVPP'
tp688
F3
s(S'NP'
S'AANVVP'
tp689
F3
s(g325
S'ADVDPP'
tp690
F22
s(g191
S'PPAANP'
tp691
F1
s(S'PP'
S'PADVADVNP'
tp692
F7
s(S'DP'
S'ADVADVADVDDPP'
tp693
F1
s(g14
S'ADPP'
tp694
F49
s(S'NP'
S'NNADVVVP'
tp695
F3
s(S'CP'
S'CDDPPP'
tp696
F6
s(S'VP'
S'ADVADVADVVANP'
tp697
F1
s(S'PP'
S'PVVVVP'
tp698
F1
s(S'PP'
S'ADVPVP'
tp699
F8
s(S'DP'
S'DDDDPP'
tp700
F2
s(S'NP'
S'NNVVVP'
tp701
F2
s(g473
S'ADVVANP'
tp702
F1
s(S'DP'
S'DDDNNP'
tp703
F1
s(S'PP'
S'ADVPDP'
tp704
F5
s(g152
S'ANNPP'
tp705
F2
s(S'MP'
S'MVVADVPP'
tp706
F1
s(g385
S'NCP'
tp707
F365
s(S'MP'
S'MDNP'
tp708
F1
s(S'CP'
S'CADVDPPP'
tp709
F2
s(S'VP'
S'ADVVVPP'
tp710
F5
s(S'PP'
S'PPADVNNP'
tp711
F3
s(S'NP'
S'ADVANDP'
tp712
F1
s(S'DP'
S'ADVVP'
tp713
F1
s(S'VP'
S'VAADP'
tp714
F3
s(S'NP'
S'AANDP'
tp715
F1
s(S'MP'
S'MVCCP'
tp716
F2
s(g42
S'DADVNNP'
tp717
F3
s(S'VP'
S'VDDDP'
tp718
F7
s(S'MP'
S'MNVP'
tp719
F7
s(S'VP'
S'ADVADVADVVVCP'
tp720
F2
s(S'CP'
S'ADVADVCCDP'
tp721
F2
s(S'VP'
S'VAPP'
tp722
F16
s(S'NP'
S'NPPPPP'
tp723
F1
s(g451
S'ADVVDP'
tp724
F28
s(S'VP'
S'VADDP'
tp725
F1
s(S'NP'
S'ADVADVADVNNVP'
tp726
F1
s(g612
S'DADVPP'
tp727
F15
s(S'VP'
S'VVADVAP'
tp728
F6
s(S'CP'
S'CCADP'
tp729
F3
s(g542
S'ADVNNCP'
tp730
F1
s(S'AP'
S'ADVAPP'
tp731
F12
s(S'CP'
S'AACDP'
tp732
F1
s(S'CP'
S'CCDDDP'
tp733
F2
s(g639
S'ADVDPPP'
tp734
F2
s(S'DP'
S'DVP'
tp735
F436
s(S'VP'
S'AVNNP'
tp736
F1
s(g557
S'ADVNPP'
tp737
F3
s(g243
S'ADVADVADVVVNP'
tp738
F1
s(S'PP'
S'PADVADVDDP'
tp739
F1
s(S'AP'
S'AVP'
tp740
F30
s(g466
S'NADVVP'
tp741
F19
s(S'CP'
S'CDAAAPP'
tp742
F1
s(S'DP'
S'DDPPP'
tp743
F10
s(S'NP'
S'ADVNMP'
tp744
F5
s(g159
S'NNAP'
tp745
F6
s(S'PP'
S'PPANP'
tp746
F1
s(S'MP'
S'MCDDP'
tp747
F1
s(S'CP'
S'CDADVPP'
tp748
F10
s(g311
S'VNP'
tp749
F342
s(S'NP'
S'ANADVPPP'
tp750
F1
s(S'VP'
S'VANP'
tp751
F14
s(g451
S'VADVAP'
tp752
F16
s(S'DP'
S'DDDDAPP'
tp753
F1
s(S'VP'
S'VVVAP'
tp754
F2
s(S'VP'
S'ADVADVVVDP'
tp755
F1
s.