ccollections
defaultdict
p1
(c__builtin__
float
p2
tRp3
(S'NP'
S'AANDDP'
tp4
F1
s(S'PP'
S'PAAANP'
tp5
F1
s(S'VP'
S'ADVVVNP'
tp6
F2
s(S'AP'
S'ADVAAVVP'
tp7
F1
s(S'VP'
S'VVADVVP'
tp8
F1
s(S'PP'
S'PADVNP'
tp9
F4
s(S'DP'
p10
S'DNP'
tp11
F125
s(S'CP'
S'CDPPP'
tp12
F20
s(S'VP'
p13
S'VADP'
tp14
F2
s(S'DP'
S'DAAP'
tp15
F4
s(S'VP'
p16
S'VAVP'
tp17
F1
s(S'MP'
S'MDVP'
tp18
F1
s(S'VP'
S'ADVVNP'
tp19
F8
s(S'MP'
S'MVDP'
tp20
F11
s(S'PP'
S'PADVANP'
tp21
F1
s(S'PP'
S'PPPP'
tp22
F1
s(S'DP'
S'DADVVP'
tp23
F2
s(S'VP'
S'VVANP'
tp24
F1
s(S'NP'
p25
S'NAAVVP'
tp26
F1
s(S'NP'
S'NCCCP'
tp27
F2
s(S'VP'
S'VCP'
tp28
F42
s(S'NP'
S'NMMP'
tp29
F2
s(S'VP'
p30
S'VVVPP'
tp31
F2
s(S'NP'
S'AAAANPP'
tp32
F1
s(S'PP'
p33
S'PAP'
tp34
F36
s(S'DP'
S'DDADVADVPP'
tp35
F1
s(S'PP'
S'ADVPPVP'
tp36
F2
s(S'CP'
S'CADPPPP'
tp37
F1
s(S'PP'
p38
S'PNP'
tp39
F142
s(S'DP'
S'DDP'
tp40
F14
s(S'PP'
S'PAAP'
tp41
F4
s(S'DP'
S'DDAANP'
tp42
F1
s(S'NP'
p43
S'NMP'
tp44
F44
s(S'MP'
S'MAVDDP'
tp45
F1
s(S'PP'
S'PDP'
tp46
F103
s(S'NP'
p47
S'ADVNVVP'
tp48
F1
s(S'NP'
S'NADVADVADVVP'
tp49
F1
s(S'PP'
p50
S'PADVPP'
tp51
F1
s(g25
S'ADVNACP'
tp52
F1
s(g10
S'DPPPP'
tp53
F4
s(S'DP'
S'DDANP'
tp54
F2
s(S'NP'
S'NACP'
tp55
F1
s(S'NP'
S'NCCP'
tp56
F14
s(S'NP'
p57
S'NNCP'
tp58
F13
s(S'DP'
S'ADVDDPP'
tp59
F1
s(S'NP'
S'NADVADVVP'
tp60
F2
s(S'MP'
S'MAAADP'
tp61
F1
s(S'PP'
S'PNNNNNP'
tp62
F1
s(S'VP'
S'AVNP'
tp63
F2
s(S'PP'
S'ADVAPDP'
tp64
F1
s(S'VP'
S'VADVVP'
tp65
F6
s(S'VP'
S'ADVADVADVVNP'
tp66
F1
s(S'PP'
S'ADVADVPPANP'
tp67
F1
s(S'AP'
S'AAADVADVVP'
tp68
F1
s(S'CP'
S'CCCDP'
tp69
F4
s(S'VP'
p70
S'ADVVAP'
tp71
F3
s(S'VP'
S'VCCCP'
tp72
F2
s(S'PP'
p73
S'APDP'
tp74
F4
s(S'VP'
S'AAVVADVNP'
tp75
F1
s(S'VP'
S'ADVVVP'
tp76
F1
s(S'NP'
S'NAVP'
tp77
F4
s(S'MP'
S'MADVVNP'
tp78
F4
s(S'NP'
p79
S'ADVANCP'
tp80
F2
s(S'DP'
p81
S'DNNP'
tp82
F20
s(S'CP'
S'CADVDDPP'
tp83
F1
s(S'CP'
S'CCADVDP'
tp84
F2
s(S'VP'
S'ADVADVADVVVDP'
tp85
F1
s(S'NP'
S'NNNVP'
tp86
F1
s(S'PP'
p87
S'PPNNNNP'
tp88
F2
s(S'PP'
p89
S'PADVVP'
tp90
F1
s(S'PP'
S'APAP'
tp91
F1
s(S'NP'
S'ADVNNVVP'
tp92
F1
s(S'NP'
S'NADVMP'
tp93
F1
s(S'DP'
S'DDDAANP'
tp94
F1
s(S'AP'
p95
S'AAP'
tp96
F3
s(S'VP'
S'VADVADVVP'
tp97
F4
s(g47
S'ADVANPP'
tp98
F3
s(S'VP'
p99
S'VADVADVNP'
tp100
F2
s(S'PP'
S'PAANP'
tp101
F1
s(S'VP'
S'VVVANP'
tp102
F1
s(S'PP'
S'PPVVP'
tp103
F1
s(S'VP'
S'VVADVAAP'
tp104
F1
s(S'MP'
S'MVNP'
tp105
F11
s(S'PP'
S'PAVP'
tp106
F4
s(S'PP'
S'PPADVNNP'
tp107
F1
s(S'AP'
S'ADVACCP'
tp108
F1
s(S'AP'
S'ADVADP'
tp109
F1
s(S'AP'
p110
S'APP'
tp111
F16
s(S'PP'
S'APDDP'
tp112
F2
s(S'VP'
S'ADVADVVVNP'
tp113
F1
s(S'MP'
S'MNACP'
tp114
F1
s(S'PP'
S'AAPNNNP'
tp115
F1
s(S'PP'
S'APVP'
tp116
F2
s(S'DP'
S'DDADVADVAP'
tp117
F1
s(S'VP'
S'VVNP'
tp118
F20
s(S'PP'
p119
S'PPVP'
tp120
F12
s(S'VP'
S'VADVDP'
tp121
F2
s(S'VP'
S'VVADVAP'
tp122
F1
s(S'VP'
S'VAAP'
tp123
F5
s(S'NP'
p124
S'ANDP'
tp125
F6
s(S'NP'
p126
S'NVVP'
tp127
F36
s(S'VP'
S'VMP'
tp128
F1
s(S'VP'
p129
S'VVNNP'
tp130
F2
s(S'CP'
S'CDAPP'
tp131
F1
s(S'CP'
S'CDDAAPP'
tp132
F1
s(S'DP'
S'ADNP'
tp133
F1
s(S'VP'
S'VVVVCP'
tp134
F1
s(S'VP'
S'ADVVVCP'
tp135
F1
s(S'DP'
S'ADVADVDVP'
tp136
F1
s(S'NP'
S'ADVADVADVNVP'
tp137
F1
s(S'VP'
p138
S'ADVADVADVVDP'
tp139
F3
s(S'VP'
p140
S'ADVADVVDP'
tp141
F4
s(S'PP'
S'PPPDP'
tp142
F1
s(S'MP'
S'MVVAP'
tp143
F3
s(S'DP'
S'DADVANP'
tp144
F4
s(S'VP'
S'VAAPP'
tp145
F1
s(S'DP'
S'ADVDNP'
tp146
F1
s(g30
S'VVPP'
tp147
F14
s(S'CP'
S'CDDPP'
tp148
F11
s(S'MP'
S'MVPP'
tp149
F2
s(S'CP'
S'CADVADVDDPP'
tp150
F1
s(S'DP'
S'DDAAPP'
tp151
F1
s(S'MP'
S'ADVMVVP'
tp152
F1
s(S'NP'
S'NNPP'
tp153
F5
s(S'NP'
S'NADVADVPPP'
tp154
F1
s(S'MP'
S'MVVDP'
tp155
F2
s(g110
S'AACP'
tp156
F3
s(S'NP'
S'ANVP'
tp157
F9
s(S'DP'
S'DNNNP'
tp158
F1
s(S'VP'
S'ADVVVDDDP'
tp159
F1
s(S'NP'
S'ADVANVVP'
tp160
F1
s(S'PP'
S'PMP'
tp161
F4
s(S'NP'
S'NNMMP'
tp162
F1
s(S'CP'
S'CCDP'
tp163
F26
s(S'DP'
S'ADVADVADVDPP'
tp164
F1
s(S'VP'
S'VADVANP'
tp165
F3
s(g126
S'NVVVP'
tp166
F17
s(S'CP'
S'CDDDPP'
tp167
F2
s(S'CP'
S'CDAAPP'
tp168
F1
s(g129
S'VVVDP'
tp169
F8
s(g87
S'PVP'
tp170
F91
s(g89
S'APADVNNP'
tp171
F1
s(S'PP'
S'AAPNP'
tp172
F1
s(g89
S'PPP'
tp173
F14
s(g99
S'ADVADVVVDDP'
tp174
F1
s(S'PP'
S'PADVAP'
tp175
F3
s(S'VP'
p176
S'ADVVAPP'
tp177
F1
s(S'DP'
p178
S'ADVDVP'
tp179
F2
s(S'NP'
S'NADVVVP'
tp180
F5
s(S'CP'
S'CCADVADVADVDP'
tp181
F1
s(S'VP'
S'VPP'
tp182
F66
s(S'NP'
S'NNNCP'
tp183
F3
s(S'PP'
S'PADVDP'
tp184
F1
s(S'MP'
S'MADVVAP'
tp185
F2
s(S'NP'
S'AAAANVP'
tp186
F5
s(S'DP'
S'DAAPP'
tp187
F2
s(S'PP'
S'PVVP'
tp188
F7
s(S'CP'
S'CADPPP'
tp189
F1
s(S'DP'
S'DADVPPP'
tp190
F3
s(S'VP'
S'ADVVCP'
tp191
F3
s(g176
S'VPPP'
tp192
F5
s(S'VP'
p193
S'VVPPP'
tp194
F2
s(S'PP'
S'PPAP'
tp195
F2
s(S'DP'
S'DVVP'
tp196
F10
s(S'AP'
S'APPP'
tp197
F1
s(S'PP'
S'ADVPPP'
tp198
F1
s(S'NP'
S'ADVADVNVP'
tp199
F1
s(g140
S'VVVP'
tp200
F1
s(S'CP'
p201
S'CADVDPP'
tp202
F5
s(S'NP'
S'ANCP'
tp203
F18
s(S'DP'
S'DCP'
tp204
F10
s(S'NP'
S'NNVVVVP'
tp205
F3
s(S'DP'
S'DDDP'
tp206
F3
s(S'DP'
S'DDADVPP'
tp207
F1
s(S'NP'
S'ANVVP'
tp208
F1
s(S'NP'
S'NVVVVP'
tp209
F1
s(S'NP'
S'NPPP'
tp210
F7
s(S'DP'
S'DAVP'
tp211
F4
s(S'NP'
p212
S'NNNMP'
tp213
F1
s(S'NP'
S'NNNNMP'
tp214
F1
s(g95
S'ACP'
tp215
F19
s(g73
S'PPNP'
tp216
F16
s(S'CP'
p217
S'CDDADVPP'
tp218
F1
s(g95
S'ADP'
tp219
F158
s(S'VP'
S'VADVADVADVNP'
tp220
F1
s(S'AP'
S'AAADP'
tp221
F1
s(g13
S'VVAP'
tp222
F10
s(g43
S'NPP'
tp223
F87
s(S'NP'
S'NNNP'
tp224
F1
s(S'NP'
p225
S'NVP'
tp226
F233
s(S'VP'
S'VDDP'
tp227
F12
s(S'NP'
S'AANVVP'
tp228
F1
s(S'DP'
S'DADVAPP'
tp229
F1
s(g124
S'NADVADVVVP'
tp230
F4
s(S'NP'
S'ANPP'
tp231
F17
s(S'PP'
S'ADVPPDP'
tp232
F1
s(g38
S'PPPNP'
tp233
F4
s(S'AP'
S'ADVADVAVP'
tp234
F1
s(S'AP'
S'AADVADVDP'
tp235
F1
s(S'CP'
S'CAADPP'
tp236
F1
s(S'NP'
S'NAACP'
tp237
F1
s(g87
S'PNNP'
tp238
F15
s(S'PP'
S'APNNP'
tp239
F1
s(S'MP'
S'MMVP'
tp240
F3
s(S'AP'
S'AADP'
tp241
F17
s(S'CP'
p242
S'ACDP'
tp243
F3
s(S'NP'
S'NNDP'
tp244
F3
s(S'AP'
S'ADVANP'
tp245
F1
s(g242
S'CCCCDDP'
tp246
F1
s(S'CP'
S'CDADVPPP'
tp247
F1
s(S'VP'
p248
S'VAP'
tp249
F88
s(S'VP'
S'VVVVNP'
tp250
F2
s(S'DP'
S'DDDPP'
tp251
F3
s(S'AP'
S'AAACP'
tp252
F1
s(S'AP'
S'AVVP'
tp253
F1
s(S'AP'
S'ADVADVAADVDP'
tp254
F1
s(S'VP'
p255
S'VAANP'
tp256
F3
s(S'VP'
S'VVDP'
tp257
F18
s(S'MP'
S'MADP'
tp258
F2
s(S'PP'
S'PANP'
tp259
F7
s(S'NP'
S'AANMP'
tp260
F1
s(S'NP'
S'NAAP'
tp261
F5
s(S'NP'
S'NDDP'
tp262
F1
s(S'AP'
S'ACCP'
tp263
F1
s(S'VP'
S'VVVVAP'
tp264
F1
s(g43
S'NDP'
tp265
F26
s(S'NP'
S'AAANVP'
tp266
F1
s(S'MP'
S'MVAAP'
tp267
F2
s(S'DP'
S'DDVP'
tp268
F12
s(S'NP'
S'AANVP'
tp269
F2
s(g16
S'VNNNP'
tp270
F2
s(S'PP'
S'PCP'
tp271
F8
s(g57
S'NNPPP'
tp272
F2
s(S'VP'
S'VCCP'
tp273
F8
s(S'NP'
S'NNNDP'
tp274
F2
s(S'AP'
S'ADVACP'
tp275
F2
s(g124
S'ADVADVNMP'
tp276
F2
s(S'VP'
S'AVVDP'
tp277
F1
s(g178
S'ADPPP'
tp278
F1
s(S'CP'
S'CCDDP'
tp279
F2
s(S'NP'
S'NNADVVP'
tp280
F1
s(S'VP'
S'VVADVADVAP'
tp281
F1
s(S'VP'
S'ADVADVADVVPP'
tp282
F1
s(S'MP'
S'MADVADVADVVPP'
tp283
F1
s(g126
S'NNVVP'
tp284
F8
s(g57
S'NNNNVP'
tp285
F2
s(S'VP'
S'VVCP'
tp286
F4
s(S'MP'
S'MVAANP'
tp287
F1
s(S'NP'
S'AANCP'
tp288
F3
s(g248
S'VDP'
tp289
F144
s(S'AP'
S'ADVAVVP'
tp290
F1
s(S'AP'
S'AAAPP'
tp291
F1
s(S'VP'
S'ADVVPP'
tp292
F1
s(g70
S'VNNP'
tp293
F20
s(S'DP'
S'DDNP'
tp294
F10
s(S'DP'
S'DDNNP'
tp295
F1
s(S'NP'
S'ADVANVP'
tp296
F1
s(S'DP'
S'AADPP'
tp297
F1
s(S'NP'
S'AAAANVVP'
tp298
F3
s(S'PP'
S'PADP'
tp299
F3
s(S'CP'
S'CDDADVPPP'
tp300
F1
s(S'DP'
S'ADVDNNP'
tp301
F1
s(S'AP'
S'AAPP'
tp302
F3
s(S'AP'
S'ADVADVACCP'
tp303
F1
s(S'VP'
S'VVCCP'
tp304
F1
s(S'DP'
S'DADVVVP'
tp305
F1
s(S'VP'
S'VVVCCP'
tp306
F1
s(S'NP'
S'NAPP'
tp307
F3
s(S'NP'
S'NADVDP'
tp308
F1
s(S'VP'
S'VVVCP'
tp309
F2
s(g79
S'ANCCP'
tp310
F1
s(S'NP'
S'NNMP'
tp311
F6
s(S'NP'
S'ANAP'
tp312
F3
s(S'MP'
S'MVAP'
tp313
F2
s(S'MP'
S'MVVVAP'
tp314
F1
s(S'VP'
S'VADVPPP'
tp315
F1
s(S'DP'
S'DVVVP'
tp316
F4
s(g70
S'VCCCCP'
tp317
F1
s(S'DP'
p318
S'DAPP'
tp319
F8
s(g119
S'PPDDP'
tp320
F1
s(g255
S'AVCP'
tp321
F1
s(S'NP'
S'NADVADVAP'
tp322
F1
s(g225
S'NAVVP'
tp323
F1
s(g81
S'DPP'
tp324
F231
s(S'NP'
S'ADVNVP'
tp325
F2
s(S'DP'
S'DDPP'
tp326
F19
s(S'DP'
S'DDADVPPP'
tp327
F1
s(S'DP'
S'DANP'
tp328
F31
s(S'NP'
p329
S'NAAVP'
tp330
F1
s(S'MP'
S'MNAVP'
tp331
F1
s(S'PP'
p332
S'PADVPPP'
tp333
F1
s(S'DP'
S'DCCP'
tp334
F1
s(g38
S'AAPDP'
tp335
F3
s(S'VP'
S'ADVADVADVVDDP'
tp336
F1
s(S'VP'
S'VVVAP'
tp337
F3
s(S'PP'
S'PDDP'
tp338
F5
s(S'MP'
S'MVDDP'
tp339
F1
s(S'NP'
S'NNVP'
tp340
F19
s(S'VP'
S'AVDP'
tp341
F9
s(S'VP'
S'VVDDP'
tp342
F4
s(S'DP'
S'DAANP'
tp343
F4
s(S'AP'
S'ADDP'
tp344
F11
s(S'PP'
S'PNNNNP'
tp345
F1
s(S'PP'
S'ADVPPNP'
tp346
F2
s(g138
S'VADVADVADVVP'
tp347
F1
s(S'CP'
S'CADVADVDPP'
tp348
F1
s(S'DP'
S'DPPP'
tp349
F26
s(S'DP'
S'DDADVADVNP'
tp350
F1
s(g33
S'ADVPNP'
tp351
F2
s(S'PP'
S'PPDP'
tp352
F9
s(S'MP'
S'MAVDP'
tp353
F1
s(S'DP'
S'DDCP'
tp354
F1
s(g212
S'NAP'
tp355
F28
s(S'VP'
S'VAAAP'
tp356
F1
s(S'NP'
S'AAAAANVP'
tp357
F1
s(g16
S'VVP'
tp358
F10
s(S'PP'
S'ADVADVPVP'
tp359
F1
s(S'PP'
S'APNP'
tp360
F2
s(g30
S'VVVNNP'
tp361
F2
s(S'VP'
S'VVVNP'
tp362
F2
s(S'DP'
S'ADVADVDDPP'
tp363
F1
s(S'MP'
S'MVNNP'
tp364
F2
s(g201
S'CDPP'
tp365
F159
s(S'CP'
S'ADVCADP'
tp366
F1
s(S'AP'
S'ADVAAP'
tp367
F1
s(S'PP'
S'PPNNP'
tp368
F2
s(g332
S'ADVPPADVVP'
tp369
F1
s(S'DP'
S'ADVADVDPP'
tp370
F1
s(S'NP'
S'NADVAP'
tp371
F1
s(S'VP'
S'AVDDP'
tp372
F2
s(g81
S'DAP'
tp373
F19
s(S'CP'
S'CADPP'
tp374
F10
s(S'VP'
S'ADVADVVVPP'
tp375
F1
s(g16
S'AVPP'
tp376
F1
s(S'MP'
S'MVADVADVNP'
tp377
F1
s(S'CP'
S'CDPPPP'
tp378
F3
s(S'VP'
S'AAVDP'
tp379
F1
s(S'DP'
S'ADPPPP'
tp380
F1
s(g318
S'ADVP'
tp381
F4
s(g81
S'ADVDPP'
tp382
F8
s(S'NP'
S'AAANPP'
tp383
F1
s(S'VP'
S'ADVADVVAP'
tp384
F2
s(S'DP'
S'ADPP'
tp385
F12
s(S'CP'
S'CDDPPP'
tp386
F2
s(g50
S'ADVPVP'
tp387
F1
s(S'NP'
S'NADVADVADVVVP'
tp388
F2
s(g126
S'NNVVVP'
tp389
F1
s(g57
S'NCP'
tp390
F89
s(S'CP'
S'CADVDPPP'
tp391
F1
s(S'VP'
S'ADVVVPP'
tp392
F2
s(S'NP'
S'NNNNNADVCP'
tp393
F1
s(g329
S'NNCCP'
tp394
F2
s(S'NP'
S'AANAP'
tp395
F1
s(g70
S'VAPP'
tp396
F2
s(S'VP'
S'ADVVDP'
tp397
F10
s(S'DP'
S'DADVPP'
tp398
F2
s(S'NP'
S'ADVANVVVP'
tp399
F1
s(S'AP'
S'ADVAPP'
tp400
F3
s(g217
S'AACDP'
tp401
F1
s(S'CP'
S'CCDDDP'
tp402
F1
s(S'DP'
S'ADVDPPP'
tp403
F1
s(g81
S'DVP'
tp404
F127
s(g193
S'ADVADVADVVVNP'
tp405
F1
s(g95
S'AVP'
tp406
F12
s(S'NP'
S'NADVVP'
tp407
F8
s(S'DP'
S'DDPPP'
tp408
F3
s(S'MP'
S'MADVADVADVVDP'
tp409
F1
s(S'NP'
S'ADVNMP'
tp410
F1
s(S'NP'
S'NNAP'
tp411
F1
s(S'MP'
S'MADVVCP'
tp412
F1
s(S'PP'
S'PPANP'
tp413
F2
s(S'MP'
S'MCDDP'
tp414
F1
s(S'CP'
S'CDADVPP'
tp415
F2
s(g248
S'VNP'
tp416
F106
s(S'VP'
S'VANP'
tp417
F6
s(S'VP'
S'VADVAP'
tp418
F6
s(S'VP'
S'ADVADVVVDP'
tp419
F1
s.