ccollections
defaultdict
p1
(c__builtin__
float
p2
tRp3
(S'VP'
S'VVAAAP'
tp4
F1
s(S'DP'
S'ADVADVADVADVDDNP'
tp5
F1
s(S'PP'
S'PAAANP'
tp6
F2
s(S'MP'
S'MADVVANP'
tp7
F1
s(S'DP'
S'DDAP'
tp8
F7
s(S'VP'
S'ADVVVNP'
tp9
F4
s(S'VP'
S'ADVADVVVPPP'
tp10
F1
s(S'NP'
S'AANVVVVP'
tp11
F1
s(S'DP'
S'DAANNP'
tp12
F1
s(S'AP'
S'AVVVP'
tp13
F1
s(S'VP'
S'VVADVVP'
tp14
F1
s(S'PP'
p15
S'PAPP'
tp16
F8
s(S'PP'
S'PADVNP'
tp17
F14
s(S'DP'
p18
S'DNP'
tp19
F768
s(S'PP'
S'PPADVAVP'
tp20
F1
s(S'NP'
S'ADVNDP'
tp21
F2
s(S'PP'
p22
S'AAPDDP'
tp23
F1
s(S'CP'
p24
S'CDPPP'
tp25
F72
s(S'VP'
S'VADP'
tp26
F20
s(S'DP'
S'DNNNNP'
tp27
F1
s(S'DP'
S'DAAP'
tp28
F7
s(S'PP'
S'PPAVP'
tp29
F2
s(S'PP'
S'PPPPPP'
tp30
F1
s(S'VP'
S'VADVADVADVAP'
tp31
F2
s(S'VP'
p32
S'VAVP'
tp33
F4
s(S'PP'
S'APPDP'
tp34
F2
s(S'DP'
S'ADNNP'
tp35
F4
s(S'PP'
S'APVP'
tp36
F16
s(S'MP'
S'MVDP'
tp37
F58
s(S'PP'
S'PADVANP'
tp38
F2
s(S'PP'
S'PPPP'
tp39
F31
s(S'AP'
S'ADVAPPP'
tp40
F1
s(S'DP'
S'DDDNP'
tp41
F4
s(S'DP'
S'DDMP'
tp42
F3
s(S'MP'
S'MMADVVP'
tp43
F1
s(S'VP'
p44
S'VACP'
tp45
F4
s(S'AP'
p46
S'AAAVP'
tp47
F2
s(S'DP'
S'DADVVP'
tp48
F21
s(S'VP'
S'ADVADVVDDP'
tp49
F1
s(S'DP'
S'DDDDPPPP'
tp50
F1
s(S'PP'
S'PADVNNP'
tp51
F1
s(S'NP'
S'NDDDP'
tp52
F1
s(S'NP'
p53
S'NCCCP'
tp54
F2
s(S'NP'
p55
S'ANADVPP'
tp56
F2
s(S'VP'
p57
S'VCP'
tp58
F94
s(S'NP'
S'NMMP'
tp59
F8
s(S'NP'
S'NANP'
tp60
F3
s(S'PP'
S'PPPPPDP'
tp61
F1
s(S'VP'
S'ADVVCCP'
tp62
F1
s(S'PP'
p63
S'PAP'
tp64
F164
s(S'MP'
p65
S'MADVVCCP'
tp66
F1
s(S'MP'
S'MMVVP'
tp67
F1
s(S'DP'
S'DDADVADVPP'
tp68
F2
s(S'NP'
S'ANNCCP'
tp69
F1
s(S'MP'
S'MVADVNP'
tp70
F2
s(S'NP'
S'NNNAP'
tp71
F1
s(S'NP'
S'ANPPP'
tp72
F4
s(S'PP'
p73
S'PNP'
tp74
F566
s(S'AP'
S'AADVADVDP'
tp75
F1
s(S'PP'
S'PAAADP'
tp76
F1
s(S'DP'
p77
S'DDP'
tp78
F52
s(S'VP'
S'ADVVDDP'
tp79
F1
s(S'NP'
S'NNNPP'
tp80
F5
s(S'PP'
S'PAAP'
tp81
F19
s(S'MP'
p82
S'MCDP'
tp83
F4
s(S'NP'
S'ANADVAP'
tp84
F2
s(S'VP'
S'VVVVVDDP'
tp85
F2
s(S'DP'
S'DDAANP'
tp86
F1
s(S'NP'
S'NMP'
tp87
F130
s(S'VP'
S'VAAADP'
tp88
F1
s(g63
S'PDP'
tp89
F695
s(S'DP'
S'DDPPPPP'
tp90
F1
s(S'CP'
S'CDADVADVPP'
tp91
F2
s(S'NP'
S'ADVNVVP'
tp92
F1
s(S'VP'
S'VNNNNP'
tp93
F1
s(S'NP'
S'AAANVVP'
tp94
F2
s(S'VP'
S'AVAAP'
tp95
F1
s(S'NP'
p96
S'NNADVADVADVVVP'
tp97
F1
s(S'AP'
S'ANP'
tp98
F3
s(S'NP'
S'NADVADVADVVP'
tp99
F4
s(S'PP'
p100
S'PADVPP'
tp101
F4
s(S'DP'
S'DDDPP'
tp102
F11
s(S'VP'
S'VVADVNP'
tp103
F1
s(S'VP'
S'VVDDP'
tp104
F5
s(S'NP'
S'ANVVVVP'
tp105
F4
s(S'DP'
S'DPPPP'
tp106
F12
s(S'DP'
S'DDANP'
tp107
F9
s(S'PP'
S'PADVADP'
tp108
F2
s(S'NP'
S'NACP'
tp109
F16
s(S'AP'
S'ADVAVP'
tp110
F5
s(g55
S'NCCP'
tp111
F73
s(S'MP'
S'MVVADVNP'
tp112
F1
s(S'DP'
S'DADVADVVVP'
tp113
F1
s(S'AP'
S'AAAADP'
tp114
F2
s(S'NP'
S'NADVADVDDP'
tp115
F1
s(S'NP'
p116
S'NNCP'
tp117
F46
s(S'DP'
S'ADVDDPP'
tp118
F5
s(S'NP'
S'NADVADVVP'
tp119
F8
s(S'DP'
p120
S'DDDDP'
tp121
F2
s(S'DP'
S'DDAPP'
tp122
F1
s(S'VP'
S'AVNP'
tp123
F12
s(S'VP'
p124
S'VVADP'
tp125
F4
s(S'NP'
S'ADVNDDP'
tp126
F1
s(S'VP'
S'VVNNNP'
tp127
F1
s(S'PP'
S'ADVPVVP'
tp128
F1
s(S'PP'
S'ADVAPDP'
tp129
F2
s(S'PP'
S'AAPNP'
tp130
F1
s(S'VP'
S'VADVVP'
tp131
F5
s(S'NP'
S'ADVADVADVNMP'
tp132
F1
s(S'MP'
S'MVAPP'
tp133
F1
s(S'MP'
S'MVPPP'
tp134
F2
s(S'NP'
S'ANADVVP'
tp135
F3
s(S'PP'
p136
S'ADVPADVDP'
tp137
F1
s(S'CP'
p138
S'CCCDP'
tp139
F3
s(S'VP'
S'AVNNP'
tp140
F1
s(S'VP'
S'VCCCP'
tp141
F1
s(S'PP'
p142
S'APDP'
tp143
F51
s(S'VP'
S'ADVVNNP'
tp144
F2
s(S'MP'
S'MNPP'
tp145
F1
s(S'AP'
S'AVVVVP'
tp146
F1
s(S'DP'
S'DDANNP'
tp147
F1
s(S'VP'
S'VVANP'
tp148
F3
s(S'VP'
p149
S'VVVVDP'
tp150
F6
s(S'VP'
S'ADVVVP'
tp151
F2
s(S'VP'
S'ADVADVVVDDP'
tp152
F1
s(S'AP'
S'AADVMMP'
tp153
F1
s(S'NP'
p154
S'ADVADVNNPP'
tp155
F1
s(S'MP'
S'MADVVNP'
tp156
F5
s(g32
S'ADVADVADVVCCP'
tp157
F1
s(S'DP'
p158
S'DNNP'
tp159
F118
s(S'CP'
S'CADVDDPP'
tp160
F3
s(S'DP'
S'DPPPPP'
tp161
F1
s(S'CP'
S'CDDPPPP'
tp162
F1
s(S'CP'
S'CCADVDP'
tp163
F4
s(S'VP'
p164
S'ADVADVADVVVDP'
tp165
F2
s(S'DP'
p166
S'ADDNP'
tp167
F1
s(S'NP'
S'NNNVP'
tp168
F7
s(S'PP'
p169
S'PPNNNNP'
tp170
F2
s(S'PP'
S'PADVVP'
tp171
F11
s(S'PP'
S'PADVADVADVAP'
tp172
F1
s(S'PP'
S'APAP'
tp173
F3
s(S'AP'
S'APP'
tp174
F112
s(S'CP'
S'CADPPPPP'
tp175
F1
s(S'NP'
S'NADVMP'
tp176
F2
s(S'AP'
S'AAP'
tp177
F11
s(S'VP'
p178
S'VADVADVVP'
tp179
F2
s(S'NP'
S'ADVANPP'
tp180
F3
s(S'VP'
S'VVVVPP'
tp181
F5
s(S'MP'
S'MVVVNP'
tp182
F1
s(S'PP'
p183
S'PAANP'
tp184
F10
s(S'VP'
S'VADVADVCP'
tp185
F1
s(S'PP'
S'PPADVADVNNP'
tp186
F1
s(S'NP'
S'ANVP'
tp187
F68
s(S'MP'
S'MVNP'
tp188
F23
s(S'CP'
S'CDDDDPPPP'
tp189
F1
s(S'DP'
S'ADVADVDDP'
tp190
F1
s(S'AP'
S'ADVAADP'
tp191
F2
s(S'DP'
S'ADVADNP'
tp192
F1
s(g183
S'PAVP'
tp193
F12
s(S'MP'
S'ADVMVP'
tp194
F2
s(S'PP'
p195
S'ADVADVPPVP'
tp196
F1
s(S'VP'
S'ADVVMP'
tp197
F1
s(S'MP'
S'MADVADVADVVCP'
tp198
F1
s(S'VP'
S'VVVPP'
tp199
F18
s(S'NP'
S'NNADP'
tp200
F1
s(S'MP'
S'MADVVPP'
tp201
F4
s(S'DP'
S'DADP'
tp202
F6
s(S'DP'
S'ADVDVVP'
tp203
F1
s(S'AP'
S'ADVADP'
tp204
F6
s(S'CP'
S'ADVADVCDP'
tp205
F2
s(S'DP'
S'ADVDDP'
tp206
F1
s(g169
S'APDDP'
tp207
F6
s(S'DP'
S'DDVVVVP'
tp208
F1
s(g53
S'ADVNAP'
tp209
F1
s(S'DP'
S'DDDDVVP'
tp210
F1
s(S'VP'
S'ADVVNP'
tp211
F16
s(S'DP'
p212
S'ADVDMMP'
tp213
F1
s(S'VP'
S'ADVADVADVVCP'
tp214
F1
s(S'VP'
p215
S'VVNP'
tp216
F63
s(S'PP'
p217
S'PPPNNP'
tp218
F3
s(S'PP'
p219
S'PPVP'
tp220
F43
s(S'VP'
S'VADVDP'
tp221
F5
s(S'DP'
S'AADVVVVP'
tp222
F1
s(S'VP'
S'VVADVAP'
tp223
F2
s(S'VP'
S'VAAP'
tp224
F29
s(S'NP'
S'ANDP'
tp225
F33
s(S'NP'
p226
S'NVVP'
tp227
F137
s(g136
S'AAPVP'
tp228
F1
s(S'PP'
S'PPADP'
tp229
F2
s(g149
S'VMP'
tp230
F10
s(S'NP'
p231
S'AANNMP'
tp232
F1
s(g164
S'VVNNP'
tp233
F5
s(S'CP'
S'CDAPP'
tp234
F41
s(g124
S'VVAAP'
tp235
F3
s(S'DP'
p236
S'ADNP'
tp237
F27
s(S'AP'
S'AAAAADP'
tp238
F1
s(S'PP'
p239
S'PADP'
tp240
F27
s(S'VP'
S'ADVVVCP'
tp241
F4
s(S'NP'
S'ANDDP'
tp242
F2
s(S'DP'
S'ADVADVADVP'
tp243
F1
s(S'DP'
S'ADVADVDVP'
tp244
F2
s(S'DP'
S'DADVAP'
tp245
F7
s(S'PP'
S'ADVADVPMP'
tp246
F1
s(S'DP'
S'DAPP'
tp247
F55
s(S'VP'
p248
S'ADVVADVADVAP'
tp249
F1
s(S'MP'
p250
S'MVVCP'
tp251
F3
s(S'VP'
S'ADVADVVPP'
tp252
F4
s(S'VP'
S'ADVADVADVVDP'
tp253
F5
s(S'NP'
S'ADVADVNNDP'
tp254
F1
s(g178
S'ADVADVVDP'
tp255
F8
s(g217
S'PPPDP'
tp256
F10
s(S'DP'
S'DAAPPP'
tp257
F1
s(S'MP'
S'MVVAP'
tp258
F2
s(S'VP'
S'VDDDDP'
tp259
F2
s(S'DP'
S'DAAANP'
tp260
F2
s(S'VP'
S'VADVADVDP'
tp261
F3
s(S'DP'
p262
S'DADVANP'
tp263
F1
s(S'NP'
S'ANADVVVP'
tp264
F1
s(S'VP'
S'VAAPP'
tp265
F2
s(S'DP'
S'ADVDNP'
tp266
F9
s(S'VP'
S'VVPP'
tp267
F77
s(S'VP'
p268
S'VVVCCP'
tp269
F3
s(S'DP'
p270
S'ADADVPP'
tp271
F2
s(S'MP'
S'MVPP'
tp272
F27
s(S'DP'
S'ADVP'
tp273
F16
s(S'MP'
S'MVADP'
tp274
F1
s(S'CP'
S'CDDPPP'
tp275
F8
s(S'NP'
S'NNPP'
tp276
F31
s(S'CP'
S'CDDPPPPPP'
tp277
F1
s(S'NP'
S'AAANDP'
tp278
F2
s(S'DP'
S'DDDDNP'
tp279
F1
s(S'MP'
S'MVVDP'
tp280
F10
s(S'AP'
S'AACP'
tp281
F11
s(S'PP'
S'PPVVP'
tp282
F4
s(S'DP'
S'DNNNP'
tp283
F13
s(S'DP'
S'ADVDDVP'
tp284
F3
s(S'PP'
S'PADVADVVP'
tp285
F1
s(S'VP'
S'VADVDDP'
tp286
F1
s(S'PP'
S'PMMP'
tp287
F1
s(S'PP'
p288
S'PMP'
tp289
F12
s(g24
S'CCDP'
tp290
F118
s(S'DP'
S'ADVADVADVDPP'
tp291
F2
s(S'PP'
p292
S'PADVADVADP'
tp293
F1
s(S'VP'
S'VADVANP'
tp294
F3
s(S'DP'
S'AAAAAADAAANNNNP'
tp295
F1
s(S'NP'
S'NVVVP'
tp296
F46
s(S'CP'
S'CDDDPP'
tp297
F9
s(S'CP'
S'CDAAPP'
tp298
F2
s(S'VP'
S'VVVDP'
tp299
F27
s(S'PP'
S'PDDDDP'
tp300
F1
s(S'PP'
S'PNNNP'
tp301
F8
s(S'NP'
S'ANMMP'
tp302
F1
s(S'AP'
S'AACCP'
tp303
F1
s(S'VP'
S'VVMP'
tp304
F2
s(S'AP'
S'ADVAAAP'
tp305
F1
s(S'CP'
S'CADADVPP'
tp306
F1
s(S'PP'
p307
S'PADVVVP'
tp308
F2
s(g63
S'PPP'
tp309
F123
s(S'NP'
S'NAVP'
tp310
F20
s(g288
S'PADVAP'
tp311
F7
s(S'NP'
S'ANNPPP'
tp312
F1
s(S'VP'
S'VVVVCCP'
tp313
F1
s(g120
S'ADVDVP'
tp314
F8
s(S'NP'
S'NADVVVP'
tp315
F14
s(S'AP'
S'AADVVP'
tp316
F2
s(S'PP'
S'PPPPDP'
tp317
F2
s(S'MP'
S'MADVADVVPP'
tp318
F2
s(S'DP'
S'ADVADVDNP'
tp319
F2
s(S'AP'
S'AAADVCP'
tp320
F1
s(S'VP'
p321
S'VPP'
tp322
F369
s(S'PP'
S'PPADVVVP'
tp323
F1
s(S'CP'
p324
S'ADVCCDP'
tp325
F4
s(S'DP'
S'ADVDDNP'
tp326
F2
s(S'NP'
S'NNNCP'
tp327
F7
s(S'PP'
S'PADVDP'
tp328
F3
s(S'CP'
p329
S'CDADVAPP'
tp330
F1
s(S'CP'
S'CDDDPPP'
tp331
F1
s(S'DP'
S'DANNP'
tp332
F1
s(S'MP'
S'MADVVAP'
tp333
F3
s(S'CP'
S'CDDPP'
tp334
F71
s(g166
S'DAAPP'
tp335
F3
s(S'PP'
S'PVVP'
tp336
F33
s(S'CP'
S'CADPPP'
tp337
F5
s(S'DP'
S'DADVPPP'
tp338
F5
s(S'VP'
S'ADVVCP'
tp339
F4
s(g321
S'VPPP'
tp340
F39
s(g136
S'PPADVADVDP'
tp341
F1
s(g57
S'AVVVDP'
tp342
F1
s(S'DP'
S'ADVADVDDNP'
tp343
F1
s(S'VP'
p344
S'VVPPP'
tp345
F6
s(S'VP'
S'ADVVVCCP'
tp346
F1
s(g219
S'PPAP'
tp347
F19
s(S'DP'
S'DVVP'
tp348
F49
s(S'NP'
S'ANMP'
tp349
F15
s(S'AP'
S'APPP'
tp350
F12
s(S'PP'
S'ADVPPP'
tp351
F2
s(S'NP'
S'ADVADVNVP'
tp352
F1
s(S'VP'
S'VVVP'
tp353
F7
s(g138
S'CADVDPP'
tp354
F13
s(S'PP'
S'ADVAPPPP'
tp355
F1
s(S'NP'
S'ANCP'
tp356
F54
s(S'DP'
S'DCP'
tp357
F8
s(S'NP'
S'ANNCP'
tp358
F1
s(S'VP'
S'ADVVVVP'
tp359
F1
s(g212
S'DADVADVADVNP'
tp360
F1
s(S'NP'
S'NNVVVVP'
tp361
F3
s(S'DP'
S'DDDP'
tp362
F13
s(S'NP'
S'NADVADVADVDDP'
tp363
F1
s(S'DP'
S'DDADVPP'
tp364
F1
s(S'MP'
S'MAADP'
tp365
F1
s(S'NP'
p366
S'ANVVP'
tp367
F20
s(S'NP'
p368
S'NVVVVP'
tp369
F7
s(S'NP'
p370
S'NPPP'
tp371
F46
s(S'PP'
S'PPAPP'
tp372
F1
s(S'DP'
S'DDDDDDDDDPPPPP'
tp373
F1
s(g120
S'DAVP'
tp374
F18
s(S'NP'
S'NNNMP'
tp375
F2
s(S'AP'
S'ACP'
tp376
F77
s(g142
S'PPNP'
tp377
F82
s(S'NP'
S'NAADP'
tp378
F1
s(S'NP'
S'NNADVADVADVADVADVVP'
tp379
F1
s(S'DP'
S'ADVDAPP'
tp380
F1
s(S'NP'
S'NNNNCCP'
tp381
F1
s(S'VP'
S'VAANNP'
tp382
F2
s(S'CP'
S'CDDADVPP'
tp383
F1
s(S'DP'
S'AADNP'
tp384
F2
s(S'AP'
S'ADP'
tp385
F336
s(S'DP'
S'DADVADVADVVP'
tp386
F1
s(S'PP'
S'APMP'
tp387
F2
s(S'DP'
S'DDPPPP'
tp388
F3
s(g268
S'VVADVADVADVDDP'
tp389
F1
s(S'PP'
S'APVVP'
tp390
F1
s(g82
S'MADVADVADVVVCP'
tp391
F1
s(S'PP'
S'PPPAVP'
tp392
F1
s(S'DP'
S'DVVVVP'
tp393
F1
s(S'VP'
S'VVPPPP'
tp394
F1
s(S'VP'
S'ADVADVVNNP'
tp395
F1
s(g46
S'AAADP'
tp396
F4
s(S'VP'
S'VVAP'
tp397
F24
s(S'NP'
S'NNAPP'
tp398
F1
s(S'NP'
S'NNADVADVADVVP'
tp399
F1
s(S'PP'
S'PPADVVP'
tp400
F1
s(g195
S'PADVADVPPP'
tp401
F1
s(S'VP'
S'VVVVADVDP'
tp402
F1
s(g226
S'NPP'
tp403
F592
s(g344
S'ADVADVVAP'
tp404
F1
s(g116
S'NVP'
tp405
F591
s(S'PP'
S'PPVVVP'
tp406
F1
s(S'PP'
S'PAAVP'
tp407
F1
s(S'PP'
S'PPPPVP'
tp408
F2
s(S'MP'
S'ADVMMVP'
tp409
F1
s(S'DP'
S'DDDDNNP'
tp410
F1
s(S'VP'
S'VDDP'
tp411
F52
s(S'VP'
S'ADVVADVAP'
tp412
F2
s(S'AP'
S'ADVADVADVADP'
tp413
F1
s(S'NP'
S'ADVNVP'
tp414
F15
s(S'PP'
S'ADVADVADVADVPNP'
tp415
F1
s(S'DP'
S'DAAAAP'
tp416
F1
s(S'DP'
S'DADVADVPP'
tp417
F5
s(S'PP'
p418
S'ADVPPVP'
tp419
F3
s(S'DP'
S'DMP'
tp420
F33
s(S'DP'
p421
S'DADVAPP'
tp422
F1
s(S'NP'
S'NADVADVVVP'
tp423
F7
s(S'NP'
S'ANPP'
tp424
F126
s(S'PP'
S'ADVPPDP'
tp425
F1
s(S'PP'
p426
S'PPPPP'
tp427
F4
s(S'MP'
S'MPDP'
tp428
F2
s(S'PP'
S'ADVADVPDP'
tp429
F1
s(S'MP'
S'MVVPP'
tp430
F6
s(g77
S'ADVDPP'
tp431
F15
s(S'NP'
S'AAANNNNAAP'
tp432
F1
s(S'NP'
S'NPPPP'
tp433
F4
s(S'DP'
S'ADDP'
tp434
F2
s(g231
S'NADVAAP'
tp435
F1
s(g329
S'CAADPP'
tp436
F3
s(S'DP'
p437
S'DADVADVVP'
tp438
F2
s(S'NP'
S'NAACP'
tp439
F2
s(g73
S'PNNP'
tp440
F77
s(S'PP'
S'APNNP'
tp441
F1
s(S'PP'
S'PPPPNNNNNNNNP'
tp442
F1
s(S'VP'
S'AVAP'
tp443
F2
s(S'MP'
S'MMVP'
tp444
F11
s(S'PP'
p445
S'PADVDDP'
tp446
F3
s(S'NP'
p447
S'ADVNCP'
tp448
F6
s(S'DP'
S'ADPP'
tp449
F66
s(S'MP'
S'MADVVADVADVAP'
tp450
F1
s(g324
S'ACDP'
tp451
F22
s(S'VP'
S'VCCP'
tp452
F12
s(S'NP'
S'ANADVADVVVP'
tp453
F1
s(S'AP'
S'ADVANP'
tp454
F4
s(S'NP'
S'NNACP'
tp455
F2
s(S'CP'
S'CDADVPPP'
tp456
F4
s(S'VP'
p457
S'VAP'
tp458
F198
s(S'VP'
S'VVVVNP'
tp459
F5
s(S'DP'
S'ADVADVDDNNP'
tp460
F1
s(S'VP'
S'VADVADVAAP'
tp461
F1
s(S'CP'
S'ACADVADVDDP'
tp462
F1
s(S'MP'
S'MVVVDP'
tp463
F2
s(S'NP'
S'NNPPPPP'
tp464
F1
s(S'DP'
S'DDDPPP'
tp465
F1
s(S'VP'
S'ADVAVDP'
tp466
F1
s(S'MP'
S'MVVCCP'
tp467
F2
s(g22
S'PPADVADVADVNNP'
tp468
F1
s(S'AP'
S'AAACP'
tp469
F2
s(S'DP'
S'ADADVVP'
tp470
F1
s(S'VP'
S'ADVVVDP'
tp471
F6
s(S'PP'
S'PAAMP'
tp472
F1
s(S'MP'
S'MANVP'
tp473
F1
s(g426
S'PPPVP'
tp474
F4
s(S'AP'
S'AADDP'
tp475
F4
s(S'DP'
S'ADVDPPPP'
tp476
F1
s(S'VP'
S'VAANP'
tp477
F4
s(S'VP'
S'VVDP'
tp478
F101
s(S'PP'
S'PAAAAP'
tp479
F1
s(S'MP'
S'MVVVCP'
tp480
F1
s(S'MP'
S'MDDAP'
tp481
F1
s(S'MP'
S'MPNP'
tp482
F2
s(S'VP'
S'ADVVADVANP'
tp483
F1
s(S'MP'
S'MADP'
tp484
F1
s(S'DP'
S'DDADVNP'
tp485
F1
s(S'PP'
S'PANP'
tp486
F71
s(S'MP'
S'MADVVADVAP'
tp487
F2
s(S'NP'
S'ANNMP'
tp488
F2
s(S'DP'
S'DADVADVNNP'
tp489
F1
s(S'NP'
S'AANMP'
tp490
F3
s(S'AP'
S'AAVP'
tp491
F7
s(S'AP'
S'AVVP'
tp492
F10
s(S'VP'
S'VADVADVAP'
tp493
F1
s(S'NP'
p494
S'NDDP'
tp495
F25
s(S'MP'
S'MADVADVVVPP'
tp496
F1
s(S'NP'
p497
S'NADVCCP'
tp498
F2
s(S'AP'
p499
S'ACCP'
tp500
F12
s(S'NP'
S'ADVADVANCP'
tp501
F1
s(S'VP'
p502
S'AVPPP'
tp503
F1
s(S'AP'
S'APPPP'
tp504
F1
s(g368
S'NDP'
tp505
F212
s(S'NP'
S'AAANVP'
tp506
F1
s(g236
S'DDVP'
tp507
F50
s(S'NP'
S'ANADVADVDP'
tp508
F1
s(S'NP'
S'AANVP'
tp509
F8
s(S'PP'
S'PPADVANP'
tp510
F2
s(S'VP'
p511
S'VNNNP'
tp512
F2
s(S'PP'
S'ADVPAP'
tp513
F4
s(S'PP'
S'APADVDP'
tp514
F1
s(g22
S'PCP'
tp515
F7
s(S'NP'
S'NNPPP'
tp516
F4
s(S'CP'
S'ACADVDDP'
tp517
F1
s(S'PP'
S'PAADP'
tp518
F3
s(S'NP'
S'ADVNNVP'
tp519
F1
s(S'NP'
p520
S'NNNNNCCCCCP'
tp521
F1
s(S'NP'
p522
S'ADVANVVP'
tp523
F2
s(S'VP'
S'VPPPP'
tp524
F2
s(S'VP'
S'VVVVANP'
tp525
F1
s(S'PP'
p526
S'PACP'
tp527
F1
s(S'MP'
S'MPAP'
tp528
F2
s(S'CP'
S'CCCCCDDDDDDDDDP'
tp529
F1
s(S'AP'
p530
S'ADVACP'
tp531
F3
s(S'NP'
S'AANVVVP'
tp532
F2
s(S'NP'
S'ADVADVNMP'
tp533
F2
s(S'VP'
S'VVVAP'
tp534
F6
s(S'DP'
S'ADPPP'
tp535
F7
s(S'AP'
S'ADVADVAADVVP'
tp536
F1
s(S'MP'
S'MVCP'
tp537
F11
s(S'CP'
S'CCDDP'
tp538
F11
s(S'NP'
S'NNADVVP'
tp539
F4
s(S'NP'
p540
S'AANNDP'
tp541
F1
s(S'VP'
S'ADVADVADVVPP'
tp542
F1
s(S'NP'
S'NAAP'
tp543
F6
s(S'MP'
S'MVMP'
tp544
F2
s(S'MP'
S'MADVADVADVVPP'
tp545
F1
s(S'DP'
S'AAADNP'
tp546
F1
s(S'MP'
S'MVVADVAP'
tp547
F2
s(S'PP'
S'PPAAP'
tp548
F3
s(S'NP'
S'NNNNVP'
tp549
F2
s(g44
S'VVCP'
tp550
F24
s(S'NP'
S'AANCP'
tp551
F11
s(g215
S'VDP'
tp552
F568
s(S'AP'
S'ADVAVVP'
tp553
F7
s(S'NP'
S'NNDDP'
tp554
F7
s(S'VP'
S'ADVVPP'
tp555
F17
s(S'VP'
S'ADVVVPPP'
tp556
F1
s(S'CP'
S'CDAPPP'
tp557
F2
s(g457
S'VNNP'
tp558
F36
s(S'AP'
S'AADVDP'
tp559
F3
s(S'NP'
p560
S'NADP'
tp561
F4
s(S'DP'
S'DDNP'
tp562
F67
s(S'NP'
S'NADVCP'
tp563
F5
s(S'DP'
S'DDNNP'
tp564
F8
s(S'PP'
S'AAPPP'
tp565
F1
s(g15
S'APAVVVP'
tp566
F1
s(S'VP'
S'VPPPPP'
tp567
F1
s(S'VP'
S'ADVAVPP'
tp568
F2
s(g560
S'ADVANVP'
tp569
F2
s(g497
S'AANAAP'
tp570
F1
s(g421
S'AADPP'
tp571
F3
s(S'VP'
S'VVVAAP'
tp572
F1
s(S'NP'
S'NNNNPP'
tp573
F2
s(S'DP'
S'DADVADVANP'
tp574
F1
s(S'VP'
p575
S'VVVVCP'
tp576
F2
s(S'MP'
S'MAVAP'
tp577
F1
s(S'AP'
S'AADVADVVP'
tp578
F1
s(S'CP'
S'CDPPPPP'
tp579
F1
s(S'NP'
S'ANVVVP'
tp580
F5
s(g270
S'DADVADVAP'
tp581
F1
s(S'MP'
S'MVVNP'
tp582
F5
s(S'CP'
S'ACDDP'
tp583
F2
s(S'AP'
S'AAPP'
tp584
F15
s(S'VP'
S'VVCCP'
tp585
F7
s(S'DP'
S'DADVVVP'
tp586
F4
s(S'DP'
S'ADVADVADVDDAP'
tp587
F1
s(S'DP'
S'DDPPPPPP'
tp588
F1
s(g370
S'NAPP'
tp589
F29
s(S'NP'
S'NADVDP'
tp590
F4
s(S'PP'
S'ADVPPPP'
tp591
F1
s(g307
S'APDDDP'
tp592
F2
s(S'MP'
S'MVDDP'
tp593
F1
s(S'NP'
S'ANCCP'
tp594
F8
s(S'NP'
S'AANPP'
tp595
F9
s(S'NP'
S'NNCCP'
tp596
F12
s(S'NP'
S'NNMP'
tp597
F17
s(S'DP'
S'DDDVP'
tp598
F10
s(S'VP'
S'AAVPP'
tp599
F2
s(S'DP'
S'DDADVVVP'
tp600
F3
s(S'MP'
S'MPANP'
tp601
F1
s(g292
S'PAAAP'
tp602
F2
s(S'PP'
S'ADVADVPNP'
tp603
F3
s(S'PP'
S'PPPAP'
tp604
F1
s(S'CP'
S'CDDAPP'
tp605
F1
s(S'NP'
S'AANAP'
tp606
F2
s(S'VP'
p607
S'VVVPPP'
tp608
F1
s(S'NP'
S'ANAP'
tp609
F8
s(S'DP'
p610
S'ADVADVADVDDNP'
tp611
F1
s(g65
S'MVAP'
tp612
F18
s(g73
S'PVP'
tp613
F310
s(S'VP'
S'VADVPPP'
tp614
F1
s(S'DP'
S'DADVAVP'
tp615
F1
s(S'MP'
S'AAMVP'
tp616
F1
s(S'VP'
S'VADVCCP'
tp617
F2
s(S'NP'
S'NNADVADVADVADVPP'
tp618
F1
s(S'VP'
S'VADVADVADVADVDDP'
tp619
F1
s(S'DP'
S'DVVVP'
tp620
F8
s(S'PP'
S'ADVADVPPDP'
tp621
F1
s(S'NP'
S'ADVADVADVNVP'
tp622
F1
s(g239
S'PPDDP'
tp623
F5
s(S'VP'
S'AVCP'
tp624
F4
s(S'AP'
S'ADVAADVADVVVP'
tp625
F1
s(S'DP'
S'DPP'
tp626
F662
s(S'CP'
S'CADVADVDDPP'
tp627
F1
s(S'AP'
S'AAADVVVP'
tp628
F1
s(g18
S'DDPP'
tp629
F116
s(S'DP'
S'DDAVP'
tp630
F2
s(S'DP'
S'DANP'
tp631
F198
s(S'AP'
S'ADVAMP'
tp632
F2
s(S'NP'
S'NADVPP'
tp633
F2
s(g154
S'AANADVVP'
tp634
F2
s(S'NP'
S'NAAVP'
tp635
F3
s(S'PP'
S'PDDDP'
tp636
F7
s(S'CP'
S'CADVADVADVDPP'
tp637
F1
s(S'VP'
S'VADVCP'
tp638
F2
s(S'NP'
S'NNNNCP'
tp639
F2
s(g447
S'ADVADVADVNNVP'
tp640
F1
s(S'MP'
S'MDNP'
tp641
F3
s(S'NP'
S'NNNVVP'
tp642
F1
s(S'NP'
S'NNVVVVVP'
tp643
F2
s(g418
S'PADVPPP'
tp644
F1
s(S'DP'
S'DCCP'
tp645
F2
s(S'PP'
S'AAPDP'
tp646
F3
s(S'MP'
p647
S'MADVVDP'
tp648
F11
s(g63
S'PDDP'
tp649
F75
s(S'PP'
S'PADVAPP'
tp650
F1
s(g526
S'PCCP'
tp651
F1
s(g494
S'NNVP'
tp652
F96
s(S'AP'
S'AADVADVCP'
tp653
F1
s(S'AP'
S'ADVADVACP'
tp654
F1
s(g32
S'AVDP'
tp655
F31
s(S'NP'
S'NNP'
tp656
F1
s(S'DP'
S'ADVADPP'
tp657
F1
s(S'DP'
S'DAANP'
tp658
F27
s(S'AP'
S'ADDP'
tp659
F25
s(S'PP'
S'PNNNNP'
tp660
F1
s(S'VP'
S'ADVVVAP'
tp661
F2
s(S'PP'
S'ADVPPNP'
tp662
F2
s(g520
S'NNNNNNNNVVP'
tp663
F1
s(S'VP'
S'VVVCP'
tp664
F4
s(S'AP'
S'AADVDDP'
tp665
F1
s(S'CP'
S'CADVADVDPP'
tp666
F4
s(g236
S'DPPP'
tp667
F110
s(S'NP'
S'AANADVADVPPP'
tp668
F1
s(S'VP'
S'VANNP'
tp669
F2
s(S'AP'
S'AAAP'
tp670
F3
s(S'NP'
S'NNAVP'
tp671
F2
s(S'NP'
S'ANNAAP'
tp672
F1
s(S'PP'
S'PPPANP'
tp673
F1
s(S'PP'
S'ADVPNP'
tp674
F11
s(g73
S'PPDP'
tp675
F75
s(S'AP'
S'ADVADVADVAVVP'
tp676
F2
s(S'MP'
S'MAVDP'
tp677
F5
s(S'PP'
S'PAAAAAP'
tp678
F1
s(S'DP'
S'DDCP'
tp679
F1
s(g445
S'PPADVDDP'
tp680
F1
s(g530
S'AAAPP'
tp681
F1
s(g226
S'NAP'
tp682
F95
s(S'NP'
S'NNAAP'
tp683
F2
s(S'NP'
S'ADVANAP'
tp684
F1
s(S'VP'
S'VAAAP'
tp685
F2
s(S'VP'
S'ADVVVADVAP'
tp686
F1
s(g215
S'VVP'
tp687
F46
s(S'NP'
S'NNVVP'
tp688
F26
s(S'PP'
S'ADVADVPVP'
tp689
F1
s(S'DP'
S'ADVADVADVDDVP'
tp690
F1
s(S'PP'
S'APNP'
tp691
F17
s(S'VP'
S'VVVNNP'
tp692
F2
s(S'DP'
S'DDDAPP'
tp693
F1
s(S'DP'
S'DDVVP'
tp694
F5
s(S'DP'
S'ADPPPPP'
tp695
F1
s(S'VP'
S'VVVNP'
tp696
F10
s(S'PP'
S'PPADVADVADVDP'
tp697
F1
s(S'NP'
S'NNADVPP'
tp698
F2
s(S'AP'
S'ADVADVAAPP'
tp699
F1
s(S'MP'
S'MVANP'
tp700
F1
s(S'DP'
S'ADVADVDDPP'
tp701
F2
s(g647
S'MVNNP'
tp702
F2
s(S'CP'
S'CDPP'
tp703
F512
s(S'MP'
S'MVVNNP'
tp704
F1
s(S'AP'
S'ADDDP'
tp705
F2
s(S'MP'
S'MVADVPP'
tp706
F1
s(S'NP'
S'NNDP'
tp707
F19
s(S'CP'
S'ADVCDP'
tp708
F8
s(S'VP'
p709
S'ADVADVVNP'
tp710
F5
s(g250
S'MVADVADVDP'
tp711
F1
s(S'PP'
S'APMMP'
tp712
F1
s(S'VP'
S'AAVDP'
tp713
F2
s(S'PP'
S'PPNNP'
tp714
F8
s(S'PP'
S'PPMP'
tp715
F5
s(S'DP'
S'ADVADVDPP'
tp716
F5
s(S'VP'
S'VADVNP'
tp717
F7
s(S'PP'
S'PPPADVNP'
tp718
F1
s(S'NP'
S'NADVAP'
tp719
F2
s(S'VP'
S'AVDDP'
tp720
F4
s(g77
S'DADVNP'
tp721
F11
s(g437
S'DAP'
tp722
F74
s(S'CP'
S'CADPP'
tp723
F52
s(S'NP'
S'NADVAVP'
tp724
F1
s(S'VP'
S'ADVADVVVPP'
tp725
F5
s(S'MP'
S'MADVADVVDP'
tp726
F3
s(S'PP'
S'PPDDDP'
tp727
F1
s(S'VP'
S'AVPP'
tp728
F13
s(S'DP'
S'DDNNNNP'
tp729
F1
s(S'VP'
S'VVADVDP'
tp730
F2
s(S'CP'
S'CDDPPPPP'
tp731
F1
s(S'CP'
S'CDPPPP'
tp732
F10
s(S'VP'
S'VADVADVADVNP'
tp733
F1
s(g262
S'AADNNP'
tp734
F1
s(S'PP'
S'PANNP'
tp735
F3
s(S'NP'
S'ADVANMP'
tp736
F2
s(S'PP'
S'APPP'
tp737
F9
s(g610
S'DAPPP'
tp738
F2
s(S'AP'
S'AAADVDP'
tp739
F1
s(g96
S'AANADVADVDDP'
tp740
F1
s(S'CP'
S'CCADP'
tp741
F2
s(S'PP'
S'PPPNP'
tp742
F8
s(S'NP'
S'NADVAPP'
tp743
F1
s(S'PP'
S'PADVADVNP'
tp744
F3
s(S'PP'
S'PPPPNP'
tp745
F2
s(S'AP'
S'AADP'
tp746
F50
s(g522
S'NADVANP'
tp747
F1
s(g575
S'VADVPP'
tp748
F6
s(S'DP'
S'DDAAPP'
tp749
F1
s(S'CP'
S'CCADVDDP'
tp750
F1
s(S'PP'
S'PVVVVP'
tp751
F2
s(g100
S'ADVPVP'
tp752
F4
s(S'NP'
S'NADVADVADVVVP'
tp753
F1
s(S'AP'
S'ADVADVAVP'
tp754
F1
s(S'NP'
S'ADVANCP'
tp755
F1
s(S'NP'
S'NNVVVP'
tp756
F6
s(g248
S'ADVVANP'
tp757
F1
s(S'PP'
S'ADVPDP'
tp758
F9
s(g511
S'ADVVADP'
tp759
F1
s(S'NP'
S'ANNPP'
tp760
F1
s(S'PP'
S'PPDDDDP'
tp761
F1
s(S'MP'
S'MVADVAP'
tp762
F2
s(g226
S'NCP'
tp763
F403
s(S'CP'
S'CADVDPPP'
tp764
F2
s(S'VP'
S'ADVVVPP'
tp765
F5
s(S'NP'
S'ADVANDP'
tp766
F1
s(S'DP'
S'ADVVP'
tp767
F2
s(S'CP'
S'CDDADVADVPP'
tp768
F1
s(S'AP'
S'AAMP'
tp769
F1
s(g540
S'AANDP'
tp770
F1
s(S'VP'
S'VDDDP'
tp771
F6
s(S'MP'
S'MNVP'
tp772
F3
s(S'VP'
S'VANP'
tp773
F28
s(S'VP'
S'VAPP'
tp774
F21
s(S'MP'
S'MAVNP'
tp775
F1
s(g709
S'ADVVDP'
tp776
F41
s(g502
S'VADDP'
tp777
F1
s(S'PP'
S'APADVNP'
tp778
F1
s(g158
S'DADVPP'
tp779
F14
s(S'PP'
S'PADVADVADVDDP'
tp780
F1
s(S'AP'
S'AMP'
tp781
F5
s(S'NP'
S'AANVVP'
tp782
F4
s(S'DP'
S'ADVDAP'
tp783
F1
s(S'NP'
S'NNNPPP'
tp784
F1
s(S'AP'
S'ADVAPP'
tp785
F13
s(S'MP'
S'MVVVPP'
tp786
F2
s(S'CP'
S'AACDP'
tp787
F2
s(S'CP'
S'CCDDDP'
tp788
F3
s(S'DP'
S'ADVDPPP'
tp789
F2
s(g18
S'DVP'
tp790
F445
s(S'VP'
p791
S'ADVVAP'
tp792
F11
s(S'NP'
S'ADVNPP'
tp793
F2
s(g499
S'AVP'
tp794
F44
s(S'NP'
S'NADVVP'
tp795
F22
s(g607
S'ADVVPPP'
tp796
F1
s(S'DP'
S'DDPPP'
tp797
F12
s(S'NP'
S'NNNMMP'
tp798
F1
s(g366
S'ADVNMP'
tp799
F5
s(S'NP'
S'NNAP'
tp800
F7
s(S'PP'
S'PPANP'
tp801
F5
s(S'DP'
S'DDADVADVANP'
tp802
F1
s(S'CP'
S'CDADVPP'
tp803
F11
s(g215
S'VNP'
tp804
F287
s(g344
S'ADVADVADVVVCP'
tp805
F1
s(g791
S'VADVAP'
tp806
F22
s(S'DP'
S'DDDANP'
tp807
F1
s(g22
S'PPADVNP'
tp808
F1
s(S'DP'
S'DDDDVP'
tp809
F1
s(S'VP'
S'ADVADVVVDP'
tp810
F3
s(S'NP'
S'AANNAP'
tp811
F1
s.