ccollections
defaultdict
p1
(c__builtin__
float
p2
tRp3
(S'VBP'
p4
S'NNP'
p5
tp6
F1
s(S'PRP'
p7
S'PRP'
p8
tp9
F1
s(Vrulers
S'NNS'
p10
tp11
F1
s(VEnglishe
g5
tp12
F1
s(g5
S'.'
tp13
F4
s(S'('
S'WP'
p14
tp15
F1
s(Vdo
g4
tp16
F2
s(VFor
S'IN'
p17
tp18
F4
s(Vcease
S'NN'
p19
tp20
F1
s(Vselves
g10
tp21
F1
s(S'VB'
p22
S'.'
tp23
F3
s(S'IN'
p24
g19
tp25
F13
s(S'IN'
p26
S'JJR'
p27
tp28
F1
s(S'WDT'
p29
S'IN'
p30
tp31
F1
s(Vfurnysh
g22
tp32
F1
s(S'CC'
p33
g27
tp34
F1
s(g10
S'RBS'
p35
tp36
F1
s(Vchiefest
S'JJS'
p37
tp38
F2
s(Vas
g26
tp39
F10
s(g10
S'.'
tp40
F3
s(S'VBD'
p41
g5
tp42
F3
s(Vshewe
g22
tp43
F2
s(S'VBN'
p44
g7
tp45
F2
s(Vrequired
g41
tp46
F1
s(S','
g26
tp47
F16
s(g44
S')'
tp48
F1
s(g19
g19
tp49
F15
s(Vmove
g22
tp50
F1
s(S'RB'
p51
S'.'
tp52
F2
s(S'IN'
p53
S'WRB'
p54
tp55
F1
s(S'DT'
p56
g5
tp57
F2
s(g10
S'PRP$'
p58
tp59
F1
s(S','
g41
tp60
F1
s(Vfurth
g19
tp61
F1
s(VYe
g51
tp62
F1
s(Vbad
S'JJ'
p63
tp64
F1
s(S'PRP'
p65
S'MD'
p66
tp67
F10
s(g7
g22
tp68
F1
s(Vplaged
g44
tp69
F1
s(Vtherfore
g22
tp70
F1
s(Vhelpe
g19
tp71
F2
s(VChauncellour
g5
tp72
F1
s(S':'
S'JJ'
p73
tp74
F1
s(g51
S'VBZ'
p75
tp76
F1
s(Vshame
g19
tp77
F1
s(g41
g19
tp78
F2
s(Vfrom
g53
tp79
F2
s(Vbene
g19
tp80
F1
s(Vdeserved
g73
tp81
F1
s(Vcalling
S'VBG'
p82
tp83
F1
s(S':'
g5
tp84
F1
s(S'('
S'WP$'
p85
tp86
F1
s(Vwaueryng
g19
tp87
F1
s(Vshal
g41
tp88
F1
s(Vhipocrisy
g19
tp89
F1
s(Vperused
g41
tp90
F1
s(Vnoble
g73
tp91
F1
s(Vthe
S'DT'
p92
tp93
F25
s(Vwith
g30
tp94
F6
s(Vdyuers
g10
tp95
F1
s(VI
S'PRP'
p96
tp97
F13
s(g75
g92
tp98
F3
s(Vfirst
g51
tp99
F1
s(Vdiligently
g51
tp100
F1
s(Vtoylers
g10
tp101
F1
s(Vend
g22
tp102
F1
s(Vor
S'CC'
p103
tp104
F3
s(S'('
S'IN'
p105
tp106
F3
s(Vfaine
g19
tp107
F1
s(Vpunished
g44
tp108
F1
s(Vboth
g56
tp109
F3
s(S')'
g51
tp110
F2
s(g26
g51
tp111
F5
s(Vinfamy
g19
tp112
F2
s(Vwere
S'VBD'
p113
tp114
F1
s(g22
g44
tp115
F3
s(g22
g5
tp116
F1
s(S','
g4
tp117
F1
s(g19
S'DT'
p118
tp119
F2
s(Vnow
S'RB'
p120
tp121
F1
s(g10
g65
tp122
F1
s(g51
g22
tp123
F2
s(g51
g73
tp124
F5
s(Vministracion
g19
tp125
F2
s(Vgathered
g44
tp126
F1
s(Vmore
g27
tp127
F1
s(Vowne
g19
tp128
F1
s(Vlike
g73
tp129
F1
s(Voffre
g41
tp130
F1
s(S','
g65
tp131
F8
s(g22
g10
tp132
F2
s(S','
S'MD'
p133
tp134
F1
s(g44
S'IN'
p135
tp136
F8
s(S','
g22
tp137
F2
s(V.iiii
g5
tp138
F1
s(S'RB'
p139
g44
tp140
F5
s(Vcan
g133
tp141
F2
s(S','
g92
tp142
F3
s(VBut
S'CC'
p143
tp144
F1
s(Vhyndred
g44
tp145
F1
s(Vwyt
g19
tp146
F2
s(Vbeseche
g19
tp147
F1
s(g10
g26
tp148
F5
s(g51
g96
tp149
F2
s(g66
g22
tp150
F14
s(Vgods
g10
tp151
F1
s(g135
g92
tp152
F17
s(Vsuffer
g22
tp153
F1
s(Vcountreymen
g10
tp154
F1
s(g73
g65
tp155
F1
s(Vtill
g22
tp156
F1
s(S')'
S'IN'
p157
tp158
F1
s(Vhonourable
g73
tp159
F1
s(g73
S'TO'
p160
tp161
F3
s(Vgraunt
g19
tp162
F1
s(g41
g26
tp163
F3
s(Vsee
g22
tp164
F2
s(g41
g41
tp165
F1
s(Vadmonished
g44
tp166
F1
s(g10
g22
tp167
F1
s(Vthan
S'IN'
p168
tp169
F2
s(S'CC'
p170
g41
tp171
F2
s(Vfall
g19
tp172
F2
s(VLydgate
g5
tp173
F1
s(Van
g56
tp174
F1
s(Vmalice
g19
tp175
F1
s(Vvnpunished
g44
tp176
F1
s(S'PRP$'
p177
g19
tp178
F6
s(Vmatter
g19
tp179
F1
s(g19
S'RB'
p180
tp181
F3
s(Vset
g44
tp182
F1
s(Vlord
g19
tp183
F2
s(Vrenowme
g19
tp184
F1
s(g54
g26
tp185
F1
s(g63
g41
tp186
F1
s(g5
g7
tp187
F4
s(g10
g4
tp188
F2
s(g7
g37
tp189
F1
s(g5
g19
tp190
F6
s(S'JJ'
p191
g26
tp192
F2
s(Vslyppery
g19
tp193
F1
s(S'VBG'
p194
g170
tp195
F1
s(g73
S':'
tp196
F1
s(VWhiche
g5
tp197
F1
s(Vdelt
g19
tp198
F1
s(VLidgates
g5
tp199
F1
s(Vpresumption
g19
tp200
F1
s(g19
g73
tp201
F2
s(Vheretofore
g19
tp202
F1
s(VAnd
S'CC'
p203
tp204
F1
s(g180
g135
tp205
F3
s(VHowe
g5
tp206
F2
s(Vhelpe
g44
tp207
F1
s(Vmyrrour
g19
tp208
F2
s(Vskyll
g19
tp209
F1
s(g135
g17
tp210
F5
s(g10
g33
tp211
F4
s(Vloking
g19
tp212
F1
s(Vleft
g44
tp213
F1
s(Vvertue
g19
tp214
F2
s(Vstorye
g19
tp215
F1
s(g10
S','
tp216
F10
s(g65
g160
tp217
F5
s(Vhe
g7
tp218
F7
s(g19
S'.'
tp219
F3
s(S'PRP'
p220
g75
tp221
F2
s(Vbesides
g26
tp222
F1
s(Vchiefly
g19
tp223
F1
s(g22
g33
tp224
F3
s(Vhumble
g73
tp225
F1
s(Vprocured
g41
tp226
F1
s(S'PRP$'
p227
g73
tp228
F3
s(Vall
g56
tp229
F3
s(S','
g191
tp230
F2
s(Vno
g56
tp231
F1
s(Vwer
g41
tp232
F1
s(Vshameful
g73
tp233
F1
s(g10
g10
tp234
F1
s(Vwurke
g19
tp235
F1
s(Vhaue
g19
tp236
F1
s(VIustice
g5
tp237
F3
s(g19
g135
tp238
F21
s(VMyrrour
g5
tp239
F1
s(g19
S','
tp240
F31
s(g4
S'IN'
p241
tp242
F1
s(Vvices
g10
tp243
F2
s(g44
g227
tp244
F1
s(Va
S'DT'
p245
tp246
F6
s(g4
g44
tp247
F1
s(S':'
g170
tp248
F3
s(V&
g170
tp249
F7
s(g41
S'VB'
p250
tp251
F1
s(g22
g19
tp252
F1
s(g41
g92
tp253
F3
s(g85
g10
tp254
F1
s(Vconsider
g22
tp255
F1
s(Vmany
g191
tp256
F3
s(Vhim
S'PRP'
p257
tp258
F2
s(Vis
g75
tp259
F5
s(Vdeath
S'NN'
p260
tp261
F1
s(Vsuch
g73
tp262
F3
s(g10
g19
tp263
F1
s(Vvndertake
g22
tp264
F1
s(S'VBN'
p265
g44
tp266
F1
s(g51
S','
tp267
F4
s(Vthem
g8
tp268
F5
s(VSo
g170
tp269
F1
s(Vben
g44
tp270
F1
s(g51
S'NN'
p271
tp272
F3
s(Vylande
g19
tp273
F1
s(Vye
g73
tp274
F1
s(S'DT'
p275
g75
tp276
F1
s(S'VBP'
p277
S')'
tp278
F1
s(Vme
S'PRP'
p279
tp280
F1
s(g73
S','
tp281
F6
s(Vbeen
g265
tp282
F1
s(g5
S':'
tp283
F1
s(Vskape
g22
tp284
F1
s(g73
g19
tp285
F14
s(Voccupied
g44
tp286
F1
s(Vlacked
g44
tp287
F1
s(VHiparrites
g5
tp288
F1
s(g35
g51
tp289
F1
s(Vhere
S'RB'
p290
tp291
F3
s(VWhan
g26
tp292
F1
s(g118
g120
tp293
F2
s(g250
g73
tp294
F2
s(VBochas
g5
tp295
F1
s(g250
g56
tp296
F7
s(Vnamely
g51
tp297
F1
s(g160
S'NN'
p298
tp299
F1
s(Vwill
S'MD'
p300
tp301
F1
s(Vscripture
g19
tp302
F1
s(Vshew
g22
tp303
F1
s(Vdiseases
S'VBZ'
p304
tp305
F1
s(VVVilliam
g5
tp306
F1
s(Vour
S'PRP$'
p307
tp308
F1
s(VWhan
g5
tp309
F1
s(g8
g24
tp310
F5
s(Vtherfore
g19
tp311
F1
s(Vshift
g22
tp312
F1
s(g22
g8
tp313
F9
s(Ventended
g41
tp314
F1
s(Vmeddle
g22
tp315
F1
s(Vprocure
g22
tp316
F1
s(S','
g160
tp317
F2
s(Vcontynewed
g41
tp318
F1
s(g157
g7
tp319
F12
s(Vestablished
g41
tp320
F1
s(Veyther
g51
tp321
F1
s(Vhaue
g22
tp322
F2
s(Vaccept
g22
tp323
F1
s(g65
S','
tp324
F4
s(Vhandes
g10
tp325
F1
s(Vdue
g73
tp326
F1
s(V:
S':'
tp327
F9
s(Vpart
S'NN'
p328
tp329
F1
s(Vmade
g44
tp330
F1
s(Vprinte
g22
tp331
F1
s(Vhorrible
g73
tp332
F1
s(g180
g92
tp333
F1
s(g19
g5
tp334
F4
s(Vpreuayle
g22
tp335
F1
s(g22
g135
tp336
F7
s(Vbeseche
g4
tp337
F1
s(Vwhereby
g51
tp338
F1
s(Vglas
g19
tp339
F1
s(g5
g5
tp340
F3
s(Vhowe
g4
tp341
F1
s(Vchiefest
g19
tp342
F1
s(g22
g22
tp343
F1
s(Vyeare
g19
tp344
F1
s(Vtrust
g4
tp345
F1
s(Vlearning
g194
tp346
F1
s(g8
g92
tp347
F1
s(g298
g160
tp348
F4
s(g17
g5
tp349
F12
s(g180
g51
tp350
F5
s(g8
g180
tp351
F5
s(g41
g44
tp352
F6
s(V)
S')'
tp353
F6
s(Vallowed
g44
tp354
F1
s(Val
g73
tp355
F1
s(Vcounsailed
g44
tp356
F1
s(Vso
g26
tp357
F1
s(g5
g41
tp358
F4
s(Vpriuye
g19
tp359
F1
s(Vattayne
g22
tp360
F2
s(Vsum
g19
tp361
F2
s(V(
S'('
tp362
F6
s(g160
g22
tp363
F22
s(Vmy
S'PRP$'
p364
tp365
F4
s(Vrefused
g41
tp366
F1
s(g19
g44
tp367
F2
s(g160
g92
tp368
F2
s(Vbe
g250
tp369
F9
s(S'NNS'
p370
g160
tp371
F3
s(Vfauourably
g51
tp372
F1
s(g65
S')'
tp373
F2
s(Vmayntayne
g73
tp374
F1
s(S')'
g4
tp375
F1
s(g73
g33
tp376
F1
s(g4
g139
tp377
F2
s(g271
S':'
tp378
F4
s(S'RB'
p379
g10
tp380
F1
s(Vany
g118
tp381
F4
s(Vit
g220
tp382
F18
s(g170
g82
tp383
F1
s(Vthankles
g10
tp384
F1
s(Vmay
g66
tp385
F6
s(Vselfe
g19
tp386
F1
s(g22
S'('
tp387
F1
s(g160
g58
tp388
F1
s(Vrewarde
g19
tp389
F1
s(Vexcepte
g304
tp390
F1
s(Vfauorably
g51
tp391
F1
s(g194
g65
tp392
F1
s(g73
g10
tp393
F7
s(Vordeyner
g19
tp394
F1
s(Vgoverners
g10
tp395
F1
s(S'PRP'
p396
g4
tp397
F7
s(g92
g19
tp398
F30
s(Vworshipfull
g19
tp399
F1
s(Viudgemente
g19
tp400
F1
s(g19
g304
tp401
F1
s(S'IN'
p402
g177
tp403
F11
s(g26
S'MD'
p404
tp405
F1
s(Vtime
g298
tp406
F4
s(Vvnder
g4
tp407
F1
s(Vwield
g22
tp408
F1
s(g4
g92
tp409
F1
s(VIn
g26
tp410
F1
s(g27
g10
tp411
F1
s(Vothers
S'NNS'
p412
tp413
F1
s(Vhath
g19
tp414
F2
s(g113
g73
tp415
F1
s(Vaduyse
g19
tp416
F1
s(g5
g133
tp417
F1
s(VWhat
S'WP'
p418
tp419
F1
s(Vthrough
g26
tp420
F1
s(Vwhere
g54
tp421
F1
s(Vlicenced
g41
tp422
F1
s(Vshall
g404
tp423
F5
s(Vsundrye
g19
tp424
F1
s(g33
S'JJ'
p425
tp426
F1
s(Vin
g241
tp427
F17
s(Vaccepte
g22
tp428
F1
s(Vstande
g22
tp429
F1
s(VAthlas
g5
tp430
F1
s(Vbeseching
g194
tp431
F1
s(Vselues
g10
tp432
F1
s(Vare
g277
tp433
F3
s(Vread
g22
tp434
F1
s(g5
S'('
tp435
F2
s(g29
g96
tp436
F1
s(S')'
g96
tp437
F1
s(Vtheir
g227
tp438
F3
s(g22
S','
tp439
F1
s(Vdoinges
g10
tp440
F1
s(Vpurposed
g44
tp441
F1
s(g241
S','
tp442
F1
s(g304
g135
tp443
F1
s(Vhave
g22
tp444
F3
s(g133
g180
tp445
F1
s(g92
g63
tp446
F8
s(Vdalyed
g44
tp447
F1
s(Vsooner
g19
tp448
F1
s(g44
g19
tp449
F4
s(Vrude
g73
tp450
F1
s(V.
S'.'
tp451
F17
s(S','
g51
tp452
F7
s(Vmurdered
g44
tp453
F1
s(VA
g5
tp454
F1
s(g33
g241
tp455
F9
s(Vglory
g19
tp456
F1
s(Vestymacion
g19
tp457
F1
s(g160
g5
tp458
F1
s(Vcharge
g19
tp459
F1
s(VGods
g5
tp460
F4
s(VIudasses
g10
tp461
F1
s(Vaffayres
g10
tp462
F1
s(Vhonering
g194
tp463
F1
s(Vwhych
g4
tp464
F1
s(Vwhose
g85
tp465
F1
s(S','
g44
tp466
F1
s(Vvice
S'NN'
p467
tp468
F1
s(Voffices
S'NNS'
p469
tp470
F1
s(S':'
g51
tp471
F1
s(Vother
g425
tp472
F3
s(Vpaynes
g10
tp473
F1
s(g227
g10
tp474
F9
s(Vwhye
S'WP'
p475
tp476
F1
s(g41
S','
tp477
F1
s(Vtherof
g19
tp478
F1
s(g304
g96
tp479
F1
s(S','
g10
tp480
F1
s(g51
g41
tp481
F4
s(g44
g33
tp482
F1
s(Vbeare
g4
tp483
F1
s(Vnamed
g41
tp484
F1
s(g257
S'.'
tp485
F2
s(S')'
g404
tp486
F1
s(Vrather
g379
tp487
F1
s(VMagistrates
g5
tp488
F1
s(g467
g250
tp489
F2
s(Veternall
g73
tp490
F1
s(Vanye
g10
tp491
F1
s(Venterpryse
g19
tp492
F1
s(Vyou
g65
tp493
F12
s(Veuill
g19
tp494
F1
s(g41
S'.'
tp495
F1
s(Vdiligent
g19
tp496
F1
s(g220
g73
tp497
F1
s(Vof
g135
tp498
F23
s(Vheaven
g19
tp499
F1
s(Vby
g402
tp500
F4
s(Vlords
g10
tp501
F1
s(Vnacions
g10
tp502
F1
s(Vsinne
g19
tp503
F1
s(g44
S','
tp504
F7
s(Vvtterly
g51
tp505
F1
s(Venuied
g44
tp506
F1
s(Vname
g19
tp507
F3
s(g22
g180
tp508
F4
s(Valone
g51
tp509
F1
s(Vthat
g26
tp510
F8
s(g241
g194
tp511
F1
s(Vpunishment
g19
tp512
F1
s(Vdeceytes
g304
tp513
F1
s(Vsuffreth
g44
tp514
F1
s(S':'
g29
tp515
F2
s(Vpresente
g19
tp516
F1
s(S','
g304
tp517
F2
s(g10
g180
tp518
F2
s(g19
g220
tp519
F2
s(S'CC'
p520
g4
tp521
F1
s(S':'
g19
tp522
F1
s(VBaldvvin
g5
tp523
F1
s(S','
g29
tp524
F2
s(Vpatarne
g19
tp525
F1
s(g92
g37
tp526
F2
s(Vmen
S'NNS'
p527
tp528
F1
s(Vweighty
g73
tp529
F1
s(g75
g44
tp530
F1
s(g33
g10
tp531
F3
s(Vvertuous
g73
tp532
F1
s(S','
g475
tp533
F1
s(Vso
g51
tp534
F8
s(VThe
S'DT'
p535
tp536
F1
s(Vbecause
g26
tp537
F2
s(g8
g10
tp538
F1
s(Vintituled
g41
tp539
F1
s(g92
g370
tp540
F2
s(Vyet
g51
tp541
F4
s(Vhand
S'NN'
p542
tp543
F1
s(Vmight
S'MD'
p544
tp545
F2
s(Vready
g73
tp546
F1
s(Vmeane
g19
tp547
F1
s(g35
g73
tp548
F1
s(Vthey
g396
tp549
F2
s(VYours
g10
tp550
F1
s(Vchiefe
g19
tp551
F1
s(VMaries
g5
tp552
F1
s(Vfor
g24
tp553
F9
s(g41
g51
tp554
F1
s(g41
g170
tp555
F1
s(g82
g5
tp556
F1
s(g19
S'('
tp557
F1
s(Vskarce
g19
tp558
F1
s(g33
g51
tp559
F1
s(g4
S','
tp560
F1
s(Vgraunted
g44
tp561
F1
s(Vmeanes
g10
tp562
F1
s(g4
g58
tp563
F1
s(Vdishonour
g4
tp564
F1
s(Vende
g19
tp565
F1
s(Vearnest
g37
tp566
F1
s(g4
g257
tp567
F5
s(Vlady
g19
tp568
F1
s(Vtooke
g41
tp569
F1
s(Vtake
g22
tp570
F2
s(g37
g271
tp571
F2
s(Vtranslated
g44
tp572
F1
s(VGod
g5
tp573
F7
s(VAmen
g10
tp574
F1
s(Vdivyls
g22
tp575
F1
s(Vbut
g520
tp576
F5
s(g22
g160
tp577
F1
s(Vgrace
g19
tp578
F1
s(Vvnto
g26
tp579
F2
s(Valthough
g157
tp580
F2
s(V,
S','
tp581
F73
s(g191
g44
tp582
F1
s(Vspoilers
g10
tp583
F1
s(g5
g160
tp584
F1
s(g277
g73
tp585
F1
s(Vpeople
g370
tp586
F1
s(g96
g35
tp587
F1
s(Vescaped
g41
tp588
F1
s(g26
g277
tp589
F3
s(Vwhiche
g19
tp590
F1
s(V?
S'.'
tp591
F1
s(S','
g194
tp592
F2
s(g27
g96
tp593
F1
s(Vrest
g19
tp594
F1
s(VFortune
g5
tp595
F1
s(Vplage
g19
tp596
F1
s(Vhym
g19
tp597
F1
s(g180
g160
tp598
F6
s(Vapte
g73
tp599
F1
s(g10
S')'
tp600
F1
s(Vamendment
S'NN'
p601
tp602
F1
s(g475
g220
tp603
F1
s(Vif
g105
tp604
F3
s(Vwhom
g14
tp605
F1
s(Vsum
g73
tp606
F1
s(g22
S':'
tp607
F1
s(Vbooke
g19
tp608
F2
s(g29
g5
tp609
F1
s(g10
S'('
tp610
F2
s(VStafford
g5
tp611
F1
s(g75
g5
tp612
F1
s(g5
g402
tp613
F3
s(Vmost
g35
tp614
F2
s(Vcontinued
g44
tp615
F1
s(Vthinkyng
g73
tp616
F1
s(VPrinces
g10
tp617
F2
s(Vwhile
g26
tp618
F1
s(Vhis
g177
tp619
F3
s(Vthen
S'RB'
p620
tp621
F1
s(Vyea
g22
tp622
F1
s(g41
g160
tp623
F1
s(Voccasion
g19
tp624
F1
s(Vlieutenauntes
g10
tp625
F1
s(Vlyked
g41
tp626
F1
s(Vperfourmed
g10
tp627
F1
s(Vshortly
g51
tp628
F1
s(Vinto
S'IN'
p629
tp630
F1
s(g170
g19
tp631
F10
s(VThis
g275
tp632
F1
s(Vcovet
g22
tp633
F1
s(S'('
g92
tp634
F1
s(Vand
g33
tp635
F22
s(Vabuse
g19
tp636
F1
s(Vfinde
g22
tp637
F1
s(g170
g56
tp638
F2
s(g56
g241
tp639
F1
s(Vthereto
g19
tp640
F1
s(Vsuche
g19
tp641
F2
s(Vwhich
g29
tp642
F4
s(VIustices
g10
tp643
F1
s(g10
S':'
tp644
F1
s(g135
g10
tp645
F7
s(Vhumbly
g51
tp646
F2
s(Vpunish
g73
tp647
F1
s(g304
S','
tp648
F1
s(VOffices
g10
tp649
F1
s(Vyour
g58
tp650
F7
s(g290
g33
tp651
F1
s(Vwas
g41
tp652
F4
s(g404
g5
tp653
F1
s(Vgaineful
g73
tp654
F1
s(Vchief
g73
tp655
F1
s(Vgood
g73
tp656
F3
s(Voffice
g271
tp657
F4
s(Vhear
g22
tp658
F1
s(Vhad
g41
tp659
F4
s(g5
g51
tp660
F1
s(Vkinde
g19
tp661
F1
s(Vfew
S'JJ'
p662
tp663
F1
s(S','
g170
tp664
F17
s(S','
g5
tp665
F2
s(Vlefte
g19
tp666
F1
s(Vvpon
g22
tp667
F1
s(Vhath
g41
tp668
F2
s(g170
g96
tp669
F2
s(g191
g56
tp670
F2
s(Vlately
g51
tp671
F1
s(Vnevertheles
g10
tp672
F1
s(g37
g33
tp673
F1
s(Vshameles
g10
tp674
F1
s(g194
g44
tp675
F1
s(Vvttermost
g19
tp676
F1
s(g19
g364
tp677
F1
s(Vsoner
g19
tp678
F1
s(Vmuch
g73
tp679
F1
s(VKinges
g5
tp680
F1
s(g33
g160
tp681
F1
s(Vprinted
g41
tp682
F1
s(Vthis
S'DT'
p683
tp684
F4
s(g19
g41
tp685
F6
s(g170
g22
tp686
F4
s(g26
g73
tp687
F11
s(S','
g19
tp688
F2
s(Vofficers
g10
tp689
F1
s(Vas
g51
tp690
F3
s(Vplages
g10
tp691
F1
s(g29
g4
tp692
F1
s(g10
g44
tp693
F1
s(Vagoe
g19
tp694
F1
s(Vhonors
g10
tp695
F1
s(g5
S')'
tp696
F1
s(Vtherfore
g4
tp697
F1
s(g19
g404
tp698
F2
s(Vbooke
g41
tp699
F1
s(Vto
g160
tp700
F27
s(VPrinter
g5
tp701
F1
s(g22
g177
tp702
F2
s(Vwher
g27
tp703
F1
s(Veuen
g19
tp704
F1
s(Vset
g22
tp705
F1
s(Vboldly
g51
tp706
F1
s(Vbegun
S'VBN'
p707
tp708
F1
s(Vauncestors
g10
tp709
F1
s(Vpassyng
g19
tp710
F1
s(Vnever
g139
tp711
F1
s(Vtheim
g19
tp712
F1
s(Vhave
g4
tp713
F3
s(g14
g92
tp714
F2
s(Voften
S'RB'
p715
tp716
F1
s(g520
g44
tp717
F2
s(g7
g41
tp718
F11
s(Vwell
g51
tp719
F2
s(Vcall
g22
tp720
F1
s(Vnot
g180
tp721
F5
s(Vtherin
g10
tp722
F1
s(VQuene
g5
tp723
F1
s(g4
g170
tp724
F1
s(g118
S':'
tp725
F1
s(g19
g33
tp726
F4
s(g19
g10
tp727
F2
s(Vcalleth
g19
tp728
F1
s(Voffred
g41
tp729
F1
s(g5
S','
tp730
F6
s(Vfowle
g73
tp731
F1
s(g5
g75
tp732
F1
s(g41
g220
tp733
F5
s(VBoccas
g5
tp734
F1
s(Vable
S'JJ'
p735
tp736
F1
s.