ccollections
defaultdict
p1
(c__builtin__
float
p2
tRp3
(Vaskt
S'VB'
p4
tp5
F2
s(Vcourse
S'NN'
p6
tp7
F1
s(VFor
S'IN'
p8
tp9
F18
s(VParlor
S'NNP'
p10
tp11
F1
s(Vmended
S'VBN'
p12
tp13
F1
s(S'IN'
p14
S'NN'
p15
tp16
F478
s(Vgaue
S'NN'
p17
tp18
F1
s(VBarge
g10
tp19
F4
s(Vvs
S'FW'
p20
tp21
F1
s(VYour
S'PRP$'
p22
tp23
F1
s(Vwaine
g17
tp24
F1
s(Vwag
g17
tp25
F1
s(VAnno
g10
tp26
F1
s(Vmortall
g17
tp27
F1
s(Vyes
S'RB'
p28
tp29
F2
s(Vsuffer
S'VBP'
p30
tp31
F1
s(Vknowe
g4
tp32
F5
s(Vagainst
S'IN'
p33
tp34
F12
s(VTo
S'TO'
p35
tp36
F9
s(Vlikt
S'VBZ'
p37
tp38
F1
s(Vfaults
S'NNS'
p39
tp40
F4
s(Vagree
g30
tp41
F1
s(VParamour
g17
tp42
F1
s(Vcase
S'NN'
p43
tp44
F1
s(Vcalled
g12
tp45
F9
s(VVVas
g10
tp46
F2
s(g28
S'VBZ'
p47
tp48
F17
s(Vhaunt
g4
tp49
F1
s(Vblows
g39
tp50
F1
s(Vhigher
S'JJR'
p51
tp52
F2
s(Veke
S'JJ'
p53
tp54
F1
s(Vlawe
g17
tp55
F3
s(Vstretching
S'VBG'
p56
tp57
F1
s(Vlength
S'PDT'
p58
tp59
F1
s(Vconscience
g17
tp60
F2
s(Vinquisition
g17
tp61
F1
s(Vmidst
g17
tp62
F1
s(Vprotested
S'VBD'
p63
tp64
F2
s(S'CD'
p65
g12
tp66
F1
s(Vfaile
g4
tp67
F1
s(Vsecrecie
g17
tp68
F2
s(Vcoates
g39
tp69
F1
s(VGossips
g10
tp70
F2
s(Vperceiuing
g17
tp71
F3
s(Vsutes
g39
tp72
F1
s(g17
S'DT'
p73
tp74
F88
s(Vsolacing
g56
tp75
F1
s(S'RB'
p76
g4
tp77
F95
s(Vtold
g63
tp78
F10
s(Vshoulde
g17
tp79
F1
s(S'NN'
p80
S'WDT'
p81
tp82
F30
s(Vmore
g51
tp83
F14
s(Vsingular
g53
tp84
F1
s(Vplaid
g12
tp85
F1
s(g10
S'WRB'
p86
tp87
F4
s(Vtransport
g4
tp88
F1
s(Vlonger
g28
tp89
F1
s(Vsaide
g63
tp90
F1
s(S'WP'
p91
g37
tp92
F13
s(Vnoon
g17
tp93
F1
s(g56
g17
tp94
F51
s(VProcters
g39
tp95
F1
s(Vconducted
g63
tp96
F1
s(Vwhen
S'WRB'
p97
tp98
F67
s(Vwarme
g53
tp99
F1
s(g53
S'MD'
p100
tp101
F7
s(VFriars
g10
tp102
F1
s(Vkniues
g39
tp103
F1
s(Vfounde
g30
tp104
F1
s(S'CC'
p105
g105
tp106
F1
s(Vknowne
g30
tp107
F1
s(Vneare
g4
tp108
F1
s(Vwheresoeuer
g91
tp109
F1
s(Vreform
g4
tp110
F1
s(Vperceiued
g63
tp111
F6
s(g10
S'CC'
p112
tp113
F81
s(Vbeloued
g12
tp114
F1
s(Vgoe
g53
tp115
F1
s(Vbrase
g17
tp116
F1
s(Vafter
S'IN'
p117
tp118
F41
s(g105
g20
tp119
F1
s(Vbargaine
g17
tp120
F1
s(Vhusbande
g17
tp121
F1
s(VPalemo
g10
tp122
F1
s(VFarmar
g10
tp123
F3
s(Vwork
g17
tp124
F1
s(Vakes
g39
tp125
F1
s(Vawooke
g30
tp126
F1
s(VLords
S'NNPS'
p127
tp128
F1
s(Vofficiall
g17
tp129
F1
s(Vhearing
g17
tp130
F4
s(Vanswerd
g28
tp131
F1
s(Vnaile
g17
tp132
F1
s(Vcholler
g17
tp133
F3
s(VPhilosophie
g10
tp134
F2
s(Vprotesting
g56
tp135
F1
s(Veasilie
g28
tp136
F1
s(VPopes
g10
tp137
F1
s(Vwilfull
g53
tp138
F1
s(Vaforesaide
g30
tp139
F1
s(Vverie
g28
tp140
F1
s(Veither
S'DT'
p141
tp142
F5
s(Vdiscourse
g4
tp143
F2
s(Vreturned
g63
tp144
F7
s(Vhostesse
g17
tp145
F2
s(Vfling
g56
tp146
F1
s(Vsea
g17
tp147
F2
s(Varmd
g37
tp148
F1
s(Vgo
g30
tp149
F1
s(Vpride
g17
tp150
F1
s(VWhiles
g39
tp151
F2
s(Vmost
S'JJS'
p152
tp153
F5
s(Vioyne
g53
tp154
F1
s(Vrustling
g17
tp155
F1
s(Vparents
g39
tp156
F2
s(Vfurie
g17
tp157
F2
s(Vblot
g17
tp158
F1
s(VPoeticall
g10
tp159
F1
s(Vformost
g17
tp160
F2
s(VGentlemans
g127
tp161
F1
s(VTherefore
g28
tp162
F3
s(VTeame
g17
tp163
F1
s(Vpleasant
g4
tp164
F2
s(VSicilia
g10
tp165
F8
s(Vwasht
g53
tp166
F1
s(Vye
g4
tp167
F5
s(VMachomite
g10
tp168
F2
s(Vpassions
g39
tp169
F5
s(Vperceiue
g30
tp170
F2
s(Vmaruailed
g12
tp171
F1
s(VClarkes
g39
tp172
F1
s(Vhir
g28
tp173
F3
s(Vhir
g37
tp174
F1
s(g28
S'RBS'
p175
tp176
F1
s(Vbright
g12
tp177
F1
s(Vvntied
g63
tp178
F1
s(VDick
g10
tp179
F2
s(Vskins
g39
tp180
F1
s(Vclothes
g39
tp181
F7
s(Vpast
g17
tp182
F2
s(Vclocke
g17
tp183
F5
s(VChamber
g10
tp184
F9
s(VDecameron
g10
tp185
F1
s(S'VB'
p186
S'CD'
p187
tp188
F4
s(Vende
g17
tp189
F2
s(VSophistications
g39
tp190
F1
s(Vrich
g53
tp191
F3
s(Vrepent
g17
tp192
F1
s(Veyther
g28
tp193
F1
s(VCitty
g10
tp194
F1
s(VPoetry
g10
tp195
F1
s(Vget
g4
tp196
F5
s(Vmerry
g4
tp197
F1
s(Vpossible
S'JJ'
p198
tp199
F1
s(Vfearing
g56
tp200
F1
s(Vbarkes
g39
tp201
F1
s(Vcommend
g4
tp202
F1
s(VPope
g10
tp203
F1
s(Vwell
g17
tp204
F1
s(VSicilian
g53
tp205
F2
s(Val
g53
tp206
F1
s(Vquestioned
g63
tp207
F1
s(VPhilosophicall
g10
tp208
F2
s(Vsorrowed
g12
tp209
F1
s(Vagast
g12
tp210
F1
s(Vstaid
g12
tp211
F1
s(Vviads
g39
tp212
F1
s(Vhirs
g39
tp213
F1
s(Vdishonest
g53
tp214
F1
s(Vknaue
g17
tp215
F7
s(Vmerrily
g53
tp216
F1
s(Vpuld
g37
tp217
F2
s(Vsolemne
g30
tp218
F1
s(Vstir
g63
tp219
F1
s(Vconsent
g17
tp220
F5
s(Vphisnomy
g17
tp221
F1
s(Vbid
g30
tp222
F3
s(Vdescanting
g56
tp223
F1
s(Vdraught
g17
tp224
F1
s(Vexpecting
g56
tp225
F4
s(VMars
g10
tp226
F1
s(g91
g28
tp227
F4
s(Vwounded
g63
tp228
F1
s(VRouers
g127
tp229
F1
s(VColliers
g10
tp230
F3
s(Vmerie
g39
tp231
F1
s(Vreferre
g4
tp232
F1
s(Vkist
g17
tp233
F3
s(Vtowards
S'IN'
p234
tp235
F2
s(Vfeare
g17
tp236
F11
s(Vchanced
g63
tp237
F1
s(Vdump
g17
tp238
F1
s(Vmeanly
g28
tp239
F1
s(VMonkes
g10
tp240
F7
s(Vafternoone
g17
tp241
F2
s(Vglorious
g53
tp242
F1
s(Vspace
S'NN'
p243
tp244
F3
s(Vswan
g17
tp245
F1
s(Vnarrowly
g28
tp246
F1
s(Vwine
g17
tp247
F5
s(Vblame
g4
tp248
F1
s(S'IN'
p249
S'.'
tp250
F4
s(Vremember
g4
tp251
F2
s(Vsleeues
g39
tp252
F1
s(Vwatch
g4
tp253
F1
s(Vtherevpon
g17
tp254
F1
s(Vbuxsome
g17
tp255
F1
s(Vforsooth
g141
tp256
F3
s(g152
g53
tp257
F4
s(VGentlemen
g10
tp258
F9
s(S'('
g4
tp259
F7
s(Vhard
g4
tp260
F1
s(Vquit
g17
tp261
F1
s(Vhonor
g17
tp262
F1
s(Vcal
g53
tp263
F1
s(Vnest
g17
tp264
F1
s(Vmirth
g17
tp265
F1
s(Vvp
g39
tp266
F5
s(g56
g73
tp267
F52
s(Vsatisfied
g53
tp268
F1
s(Vhorse
g17
tp269
F4
s(S'PRP'
p270
S'JJ'
p271
tp272
F25
s(Vwel-beloued
g12
tp273
F1
s(Vlooke
g63
tp274
F4
s(VThese
S'DT'
p275
tp276
F1
s(g56
g187
tp277
F3
s(Vvnknowne
g17
tp278
F1
s(Vbrought
g53
tp279
F1
s(g12
g63
tp280
F4
s(Vbusilie
g17
tp281
F1
s(Vthreatninges
g39
tp282
F1
s(g112
g58
tp283
F5
s(Vworne
g53
tp284
F1
s(Vlaying
g56
tp285
F2
s(Vmaruaile
g30
tp286
F1
s(VQueene
g10
tp287
F1
s(g81
g28
tp288
F2
s(Varriued
g12
tp289
F1
s(Vhammering
g56
tp290
F1
s(g4
S'WRB'
p291
tp292
F10
s(VThe
S'DT'
p293
tp294
F52
s(Vreadie
g53
tp295
F1
s(Vsudden
g53
tp296
F1
s(Vcrab
g17
tp297
F1
s(g17
g187
tp298
F3
s(VEke
g10
tp299
F1
s(Vknowe
g39
tp300
F1
s(Vaccustomed
g53
tp301
F4
s(g51
S':'
tp302
F1
s(VIacomine
g10
tp303
F9
s(Vwoe
g53
tp304
F1
s(S'VBD'
p305
S'RB'
p306
tp307
F154
s(Vah
g105
tp308
F1
s(g30
S'PRP$'
p309
tp310
F17
s(Vswindge
g63
tp311
F1
s(Vmaner
g17
tp312
F4
s(Vinuented
g12
tp313
F2
s(Vaccording
S'VBG'
p314
tp315
F5
s(g152
g17
tp316
F15
s(Vperry
g17
tp317
F1
s(VWel
g10
tp318
F2
s(Vthy
g17
tp319
F1
s(Vabsolutely
g28
tp320
F1
s(Vwhite
S'JJ'
p321
tp322
F1
s(Vfatte
g17
tp323
F1
s(Vout
g28
tp324
F1
s(Vappointed
g63
tp325
F5
s(Vsignifie
g4
tp326
F1
s(Vsoild
g53
tp327
F1
s(g10
S'EX'
p328
tp329
F2
s(S'RP'
p330
g58
tp331
F1
s(Vmasse
g17
tp332
F1
s(Vwiping
g56
tp333
F1
s(Vliberall
g17
tp334
F1
s(VAlas
g10
tp335
F3
s(Vamaze
g17
tp336
F1
s(Vkinswoman
g17
tp337
F2
s(g81
g10
tp338
F5
s(Vdrunke
g30
tp339
F1
s(Vmorne
g17
tp340
F2
s(VTopace
g17
tp341
F1
s(Vout
g30
tp342
F1
s(Vcommit
g30
tp343
F1
s(Vdowne
g63
tp344
F1
s(VWhich
g81
tp345
F1
s(Vvpon
g28
tp346
F2
s(g12
g330
tp347
F4
s(Vquoth
g141
tp348
F29
s(Vhue
g17
tp349
F1
s(Vbandy
g4
tp350
F1
s(Vcrost
g63
tp351
F1
s(Vaction
S'NN'
p352
tp353
F1
s(Vqualities
g39
tp354
F2
s(Vsackes
g39
tp355
F1
s(Vdrie
g53
tp356
F1
s(Vwoulde
g4
tp357
F1
s(VGallies
g10
tp358
F2
s(Vcourtesie
g17
tp359
F2
s(g152
g112
tp360
F1
s(Vbetweene
g63
tp361
F2
s(Vgard
g17
tp362
F1
s(Vdowne
g28
tp363
F1
s(g91
S'PRP$'
p364
tp365
F1
s(Vguilt
g17
tp366
F1
s(Vmuch
g53
tp367
F19
s(Vserue
g17
tp368
F4
s(Vdeuised
g63
tp369
F1
s(Vconuersation
g17
tp370
F1
s(Vhaue
g30
tp371
F31
s(Vagaine
g17
tp372
F17
s(Vreceiue
g4
tp373
F1
s(S'CD'
p374
g39
tp375
F21
s(Vimpression
g17
tp376
F1
s(Vwomans
g53
tp377
F1
s(g330
g39
tp378
F1
s(Vwhipt
g63
tp379
F1
s(Vfrosen
g53
tp380
F1
s(Vlay
g4
tp381
F9
s(Vridde
g17
tp382
F1
s(V8
S'CD'
p383
tp384
F2
s(Vneuer
g17
tp385
F4
s(Vbee
g53
tp386
F2
s(VHorse
g17
tp387
F1
s(VIf
S'IN'
p388
tp389
F6
s(Vtrunck
g17
tp390
F1
s(Vseas
g39
tp391
F1
s(Vnot
g76
tp392
F144
s(Vsalute
g17
tp393
F1
s(Vperceiued
g17
tp394
F1
s(Vdone
S'VBN'
p395
tp396
F27
s(Vgarded
g12
tp397
F1
s(Vbasket
g17
tp398
F6
s(Vcobler
g17
tp399
F2
s(Vsuffering
g56
tp400
F1
s(Vsyr
g37
tp401
F2
s(Vvineger
g17
tp402
F1
s(Vdeparted
g63
tp403
F5
s(Vlye
g4
tp404
F1
s(Vfelowship
g17
tp405
F1
s(Vcome
g12
tp406
F11
s(Vmuse
g17
tp407
F1
s(Vfel
g37
tp408
F1
s(Vgan
g53
tp409
F3
s(Vlooke
g17
tp410
F5
s(g4
S'.'
tp411
F19
s(Vfinding
g56
tp412
F7
s(Vknight
g17
tp413
F1
s(Vthinke
g17
tp414
F6
s(g17
g97
tp415
F34
s(Vhumor
g17
tp416
F2
s(Vverdict
g17
tp417
F1
s(S'DT'
p418
g20
tp419
F1
s(Vsicknesse
g17
tp420
F1
s(Veuer
g17
tp421
F18
s(Vpraying
g56
tp422
F1
s(Vhonorable
g53
tp423
F1
s(Vthrust
g17
tp424
F1
s(S','
S'WRB'
p425
tp426
F64
s(VAlehouse
g10
tp427
F1
s(Vdisposition
g17
tp428
F1
s(VIacomyn
g10
tp429
F1
s(Viest
g4
tp430
F1
s(Vspeede
g37
tp431
F1
s(Vspie
g30
tp432
F1
s(Vtaking
g56
tp433
F12
s(Vlasse
g17
tp434
F1
s(Vdivers
g39
tp435
F1
s(Vcalme
g39
tp436
F1
s(Vcleane
g53
tp437
F3
s(Vhads
g39
tp438
F1
s(Vcontent
g53
tp439
F9
s(Veuery
g53
tp440
F7
s(Vknit
g17
tp441
F1
s(Vfaine
g17
tp442
F6
s(Vgoose
g17
tp443
F1
s(g30
S'NN'
p444
tp445
F15
s(S'MD'
p446
S'IN'
p447
tp448
F5
s(S')'
g28
tp449
F1
s(Vhir
g58
tp450
F3
s(VTarltons
g10
tp451
F5
s(g187
S'TO'
p452
tp453
F2
s(S'CC'
p454
g37
tp455
F21
s(Vbright
g53
tp456
F1
s(Vthirty
g17
tp457
F1
s(Vsought
g12
tp458
F2
s(VSantus
g10
tp459
F1
s(Vmatch
g17
tp460
F3
s(Vloues
g39
tp461
F8
s(Vgood
g53
tp462
F65
s(Vgripe
g17
tp463
F1
s(Vment
g17
tp464
F1
s(Vsend
g4
tp465
F7
s(Valready
S'RB'
p466
tp467
F2
s(Vwatermen
g39
tp468
F1
s(Vreverance
g17
tp469
F1
s(g20
S'VBD'
p470
tp471
F1
s(Vpleasantly
g28
tp472
F3
s(Vring
g56
tp473
F1
s(g234
g418
tp474
F840
s(Vconsidering
S'VBG'
p475
tp476
F1
s(S'NNS'
p477
g4
tp478
F10
s(VLoues
g10
tp479
F1
s(VShould
g10
tp480
F1
s(Vsport
g17
tp481
F7
s(VCardnars
g39
tp482
F1
s(Vlooked
g63
tp483
F3
s(Vplease
g4
tp484
F3
s(Vbeds
g39
tp485
F3
s(V6
g65
tp486
F2
s(Vwaies
g39
tp487
F1
s(Van
g141
tp488
F58
s(Vextremely
S'RB'
p489
tp490
F2
s(S'IN'
p491
g187
tp492
F18
s(Vebbe
g4
tp493
F1
s(Vhonour
g17
tp494
F1
s(Vcap
g17
tp495
F1
s(Vbest
g175
tp496
F1
s(S','
g105
tp497
F854
s(Vfortunate
g4
tp498
F1
s(g56
g112
tp499
F7
s(Vblowe
g17
tp500
F2
s(Vbutter
g17
tp501
F2
s(Vreason
S'NN'
p502
tp503
F3
s(Vtext
g17
tp504
F1
s(Vfeminine
g53
tp505
F1
s(Vnotable
g53
tp506
F1
s(Vgrieued
g63
tp507
F1
s(Vbroad
S'JJ'
p508
tp509
F4
s(Vblunt
g53
tp510
F1
s(Vhaue
g17
tp511
F14
s(Voh
g234
tp512
F1
s(g30
g234
tp513
F52
s(Vrising
g56
tp514
F2
s(S'MD'
p515
S','
tp516
F10
s(Vworthy
g53
tp517
F3
s(Vful
g53
tp518
F2
s(Vaide
g17
tp519
F1
s(Vdinner
g17
tp520
F3
s(Vdeerer
g17
tp521
F1
s(Vbehinde
g17
tp522
F1
s(g12
g28
tp523
F32
s(Vspit
g63
tp524
F1
s(VMizaldo
g10
tp525
F6
s(Vaccidents
g39
tp526
F1
s(Vwheele
g17
tp527
F3
s(Vlouers
g39
tp528
F10
s(Vshal
g37
tp529
F1
s(VCourtiers
g127
tp530
F1
s(Vlost
g63
tp531
F1
s(Vsatterday
g17
tp532
F1
s(Vbeare
g234
tp533
F1
s(Vleaue
g37
tp534
F1
s(Vsoeuer
g63
tp535
F1
s(Vamarous
g53
tp536
F1
s(Vyt
g37
tp537
F1
s(Vinsight
g17
tp538
F2
s(VNightingale
g10
tp539
F1
s(Vliquor
g63
tp540
F1
s(Vdemauded
g63
tp541
F1
s(VDeade
g10
tp542
F1
s(Vheere
g328
tp543
F1
s(Vminde
g17
tp544
F6
s(g63
S':'
tp545
F17
s(S'PRP'
p546
g330
tp547
F16
s(Vpercing
g17
tp548
F1
s(Vsmile
g53
tp549
F1
s(Vrecompence
g17
tp550
F1
s(Vgot
g63
tp551
F11
s(Vmaried
g12
tp552
F3
s(Vour
S'PRP$'
p553
tp554
F16
s(Vpartizan
g17
tp555
F2
s(Vspoken
g12
tp556
F1
s(Veuening
g17
tp557
F2
s(g4
g270
tp558
F153
s(g141
S')'
tp559
F1
s(Vpuld
g17
tp560
F1
s(Vsinging
g17
tp561
F1
s(Vblame
g17
tp562
F1
s(Vringleader
g17
tp563
F1
s(Vso
g53
tp564
F1
s(Vvsage
g17
tp565
F1
s(VSow
g10
tp566
F2
s(Vfruition
g17
tp567
F1
s(VKing
g17
tp568
F1
s(Vmother
g30
tp569
F1
s(Vremaine
g4
tp570
F1
s(g47
g175
tp571
F2
s(VClim
g10
tp572
F1
s(Vsom
g53
tp573
F1
s(Vsleepe
g17
tp574
F17
s(S'VBZ'
p575
g10
tp576
F3
s(Vhaps
g39
tp577
F1
s(g63
g12
tp578
F163
s(g56
S':'
tp579
F2
s(Vvexe
g4
tp580
F2
s(Vsafety
S'NN'
p581
tp582
F1
s(Vmeditation
g17
tp583
F1
s(Vhouse
S'NN'
p584
tp585
F45
s(VPeacockly
g10
tp586
F1
s(Vaffability
g17
tp587
F1
s(Vcomforted
g53
tp588
F1
s(Valas
g39
tp589
F5
s(VGallies
g39
tp590
F1
s(Vbona
g234
tp591
F1
s(Vamongst
g330
tp592
F1
s(S'PRP'
p593
S')'
tp594
F12
s(Vmishap
g17
tp595
F2
s(Vbrought
g63
tp596
F9
s(Vlearning
g17
tp597
F5
s(Vfollow
g4
tp598
F1
s(Vtrim
g53
tp599
F1
s(Vsister
g17
tp600
F2
s(Vacquaintance
g17
tp601
F1
s(Vselfe
g17
tp602
F18
s(Vheare
g4
tp603
F11
s(Vsundry
g17
tp604
F3
s(S'PRP'
p605
g30
tp606
F268
s(S'PRP$'
p607
g20
tp608
F1
s(VLazarus
g10
tp609
F1
s(Vmartirdome
g17
tp610
F1
s(VLemman
g10
tp611
F2
s(VThat
g141
tp612
F6
s(VBookes
g10
tp613
F1
s(Vwarmth
g17
tp614
F1
s(Vdiscourst
g4
tp615
F1
s(Vlesse
g53
tp616
F2
s(Vturkey
g17
tp617
F1
s(Vbetweene
g234
tp618
F3
s(Vclenly
g17
tp619
F1
s(Vcherries
g39
tp620
F3
s(Vshe
S'PRP'
p621
tp622
F119
s(g291
g452
tp623
F2
s(VClough
g10
tp624
F1
s(VSophistrie
g10
tp625
F1
s(Vexperience
g17
tp626
F2
s(Vpresently
g28
tp627
F5
s(Vdowne
g17
tp628
F17
s(Vbiter
g17
tp629
F1
s(Vhowe
g53
tp630
F1
s(VTaber
g10
tp631
F1
s(Vconcluded
g12
tp632
F1
s(VMyzaldos
g10
tp633
F2
s(Vthemselues
g39
tp634
F7
s(V.
S'.'
tp635
F392
s(Vponder
g17
tp636
F1
s(Vblusht
g4
tp637
F1
s(VNon
g10
tp638
F1
s(Vnewe
g17
tp639
F2
s(g37
S'.'
tp640
F4
s(Vdepart
g4
tp641
F1
s(Vwhose
S'WP$'
p642
tp643
F9
s(Vspeake
g4
tp644
F5
s(S','
g12
tp645
F17
s(VFriar
g10
tp646
F2
s(VBerwick
g10
tp647
F1
s(Vgoe
g30
tp648
F3
s(Venuie
g17
tp649
F1
s(VBacke
g10
tp650
F1
s(V--
S':'
tp651
F3
s(Vhir
g63
tp652
F2
s(Vprouiso
g17
tp653
F1
s(g17
g28
tp654
F83
s(Vcombred
g12
tp655
F1
s(Vneuer
g28
tp656
F6
s(Vlosse
g17
tp657
F1
s(Vwoondred
g63
tp658
F1
s(VShip
g10
tp659
F1
s(Vwhipcord
g17
tp660
F1
s(Vcauill
g17
tp661
F1
s(Vsuffered
g12
tp662
F1
s(Vsom
g28
tp663
F1
s(S':'
S'UH'
p664
tp665
F1
s(Vaffections
g39
tp666
F1
s(Vye
g17
tp667
F10
s(Vwooed
g30
tp668
F1
s(Vknowes
g37
tp669
F1
s(Venioyed
g63
tp670
F1
s(Vnoted
g63
tp671
F1
s(Vbaggage
g17
tp672
F1
s(Vsenselesse
g30
tp673
F1
s(Vcuckold
g17
tp674
F2
s(g10
g330
tp675
F1
s(Vto
g452
tp676
F689
s(Vkings
g39
tp677
F1
s(Vliuings
g39
tp678
F1
s(Vheard
g30
tp679
F2
s(g51
S','
tp680
F2
s(Vseldome
g17
tp681
F1
s(Vdismaied
g63
tp682
F1
s(Vdungeon
g17
tp683
F1
s(Vdrying
g56
tp684
F1
s(S':'
g328
tp685
F2
s(Vwhit
g53
tp686
F1
s(Vsmocke
g17
tp687
F1
s(VPrior
g10
tp688
F51
s(Vmeeting
g17
tp689
F1
s(VCappe
g10
tp690
F1
s(Vwhensoeuer
g17
tp691
F3
s(VAbbey
g10
tp692
F3
s(Vaboue
g17
tp693
F1
s(Vsate
g53
tp694
F1
s(Vbecause
g234
tp695
F21
s(Vdoth
g30
tp696
F1
s(Vbidding
g56
tp697
F2
s(VDrinke
g17
tp698
F1
s(Vvproare
g17
tp699
F1
s(VArts
g39
tp700
F2
s(Vreseruing
g56
tp701
F1
s(Vrags
g17
tp702
F1
s(Vfoure
g53
tp703
F1
s(Vcryed
g63
tp704
F3
s(Vtherfore
g28
tp705
F3
s(VSchollers
g39
tp706
F3
s(Vhusbad
g17
tp707
F1
s(Vvnto
g20
tp708
F3
s(Veuerie
g53
tp709
F5
s(Vgrace
g17
tp710
F3
s(Vfinest
g152
tp711
F2
s(VLinnen
g10
tp712
F1
s(Vinsuing
g17
tp713
F1
s(Vbrotherhood
g17
tp714
F1
s(Vchurch
g17
tp715
F2
s(Vstore
g17
tp716
F1
s(Vmeete
g30
tp717
F1
s(Vstood
g17
tp718
F2
s(Vflap
g17
tp719
F1
s(VMuch
g28
tp720
F1
s(Vkeepe
g4
tp721
F6
s(Vaskt
g37
tp722
F2
s(g37
g17
tp723
F20
s(Vwho
g91
tp724
F50
s(Vpardon
g4
tp725
F1
s(Vfalne
g53
tp726
F1
s(Vlodging
g17
tp727
F2
s(Vsoule
g53
tp728
F1
s(Vsmiths
g53
tp729
F2
s(Vescapt
g17
tp730
F1
s(Vtast
g53
tp731
F1
s(Vescape
g4
tp732
F1
s(VFrom
g234
tp733
F1
s(Vblubbered
g63
tp734
F1
s(Vcontinued
g12
tp735
F3
s(Vcomicall
g53
tp736
F1
s(Vsweet
g53
tp737
F5
s(Vbody
g17
tp738
F2
s(Vwherefore
g30
tp739
F1
s(VThis
S'DT'
p740
tp741
F20
s(Vasked
g63
tp742
F4
s(Vforlorne
g17
tp743
F1
s(VLemmon
g10
tp744
F1
s(VDeuils
g39
tp745
F1
s(Vpromised
g12
tp746
F1
s(S'('
g452
tp747
F2
s(Vfaire
g28
tp748
F1
s(Vhied
g63
tp749
F4
s(Vhauntes
g37
tp750
F1
s(g447
g39
tp751
F67
s(Vhauing
g56
tp752
F15
s(Vsetteth
g17
tp753
F1
s(Vtolde
g12
tp754
F1
s(S'MD'
p755
g10
tp756
F1
s(Vtwise
g4
tp757
F2
s(VMaiesties
g10
tp758
F1
s(Vmeaning
g17
tp759
F1
s(Vchilds
g39
tp760
F1
s(Vwhome
g234
tp761
F1
s(Vbashfull
g4
tp762
F1
s(Vfathers
g39
tp763
F2
s(Vattempted
g63
tp764
F1
s(Vdaintie
g53
tp765
F1
s(Vmindes
g39
tp766
F2
s(Vcontrarie
g53
tp767
F1
s(VMaister
g10
tp768
F7
s(VTully
g10
tp769
F1
s(Vwater
S'NN'
p770
tp771
F8
s(Vagain
S'RB'
p772
tp773
F1
s(Vvalewed
g63
tp774
F1
s(Vrichest
g17
tp775
F1
s(Vshoomakers
g39
tp776
F1
s(VFriars
g39
tp777
F1
s(Vsawe
g63
tp778
F1
s(Vmault
g17
tp779
F1
s(Vgentle
g30
tp780
F1
s(Vgone
S'VBN'
p781
tp782
F14
s(VScull
g10
tp783
F16
s(VMaide
g10
tp784
F1
s(VHis
S'PRP$'
p785
tp786
F19
s(Vruns
g39
tp787
F1
s(Vslie
g53
tp788
F1
s(Vgasing
g56
tp789
F1
s(Vfleas
g53
tp790
F1
s(Vment
g63
tp791
F2
s(Vsynode
g17
tp792
F1
s(Vsatisfied
g12
tp793
F1
s(Vkneele
g4
tp794
F1
s(Vdesirous
g53
tp795
F3
s(Vquencht
g17
tp796
F1
s(VHomer
g10
tp797
F1
s(Vpassing
g17
tp798
F1
s(Voportunity
g17
tp799
F5
s(Vmischance
g17
tp800
F1
s(Vcounted
g63
tp801
F1
s(Vpasse
g4
tp802
F13
s(Vneuer
g12
tp803
F1
s(Voft
g53
tp804
F4
s(Vpresetly
g28
tp805
F1
s(Vexcellent
g53
tp806
F2
s(Vaccompanied
g12
tp807
F1
s(g17
g546
tp808
F169
s(Vbeleeued
g63
tp809
F1
s(Vthrust
g63
tp810
F1
s(Vcut
g12
tp811
F1
s(VPalmestrie
g10
tp812
F1
s(VMarias
g10
tp813
F1
s(Vconsider
g4
tp814
F1
s(Vforked
g53
tp815
F1
s(Vmust
S'MD'
p816
tp817
F17
s(Vstarke
g17
tp818
F1
s(Vbound
g4
tp819
F1
s(g270
g112
tp820
F28
s(Vknowest
g152
tp821
F1
s(Vfauours
g39
tp822
F1
s(Vgan
g30
tp823
F1
s(Vlaw
S'NN'
p824
tp825
F7
s(Vtherfore
g234
tp826
F1
s(VSiken
g10
tp827
F1
s(Vbeware
g4
tp828
F1
s(Vstarke
g53
tp829
F1
s(Val
g330
tp830
F2
s(Vinstruct
g4
tp831
F1
s(Vverie
g39
tp832
F2
s(Vsight
g17
tp833
F9
s(Voutward
g17
tp834
F1
s(Vearnest
g17
tp835
F1
s(Vnotified
g53
tp836
F1
s(Vpraier
g17
tp837
F2
s(Vprobable
g53
tp838
F1
s(VUp
g28
tp839
F1
s(Vfarewell
g28
tp840
F1
s(Vbould
g17
tp841
F1
s(Vhumorous
g53
tp842
F1
s(Vknockt
g4
tp843
F1
s(Vwitty
g4
tp844
F1
s(Vouertaken
g53
tp845
F1
s(VBarne
g10
tp846
F1
s(Vassoon
g28
tp847
F1
s(Vhimselfe
g58
tp848
F1
s(Vhookes
g39
tp849
F1
s(S':'
S'JJ'
p850
tp851
F12
s(Vbound
g12
tp852
F2
s(VClarkes
g10
tp853
F1
s(Vbecame
S'VBD'
p854
tp855
F1
s(Voffered
g12
tp856
F1
s(Vcarry
g4
tp857
F4
s(VHaue
g10
tp858
F1
s(Vhighlie
g17
tp859
F1
s(Vwakte
g17
tp860
F2
s(VPeacocks
g10
tp861
F1
s(Vpeeces
g39
tp862
F1
s(S'CC'
p863
g91
tp864
F15
s(Vhad
g12
tp865
F1
s(Vdiscouered
g63
tp866
F2
s(S'('
S'IN'
p867
tp868
F14
s(Vdeny
g4
tp869
F1
s(Vsupposed
g63
tp870
F1
s(VStill
S'RB'
p871
tp872
F1
s(S'('
g63
tp873
F1
s(Vfortunam
g17
tp874
F1
s(Vdirection
S'NN'
p875
tp876
F1
s(Vpathers
g39
tp877
F1
s(g4
g10
tp878
F16
s(Venterteinement
g17
tp879
F1
s(Vfaine
g4
tp880
F1
s(Vinsomuch
g53
tp881
F4
s(Vamed
g63
tp882
F1
s(Vconceit
g17
tp883
F1
s(Vspying
g56
tp884
F2
s(g141
g91
tp885
F1
s(Vplease
g30
tp886
F1
s(Vsyluer
g17
tp887
F1
s(Vmistres
g39
tp888
F4
s(Vseeme
g30
tp889
F1
s(VCaste
g17
tp890
F1
s(Vfreighted
g12
tp891
F1
s(Vmorrow
g4
tp892
F6
s(Vsuccesse
g17
tp893
F3
s(Vpray
g30
tp894
F6
s(Vlaide
g28
tp895
F1
s(VFancies
g39
tp896
F1
s(Vknockt
g20
tp897
F1
s(VSir
S'NNP'
p898
tp899
F2
s(Vtrickt
g53
tp900
F1
s(Vreuenge
g17
tp901
F7
s(Vfel
g63
tp902
F3
s(VMarians
g10
tp903
F2
s(Vbetween
S'IN'
p904
tp905
F2
s(Vcleare
g17
tp906
F1
s(VSculs
g10
tp907
F4
s(Vderision
g17
tp908
F1
s(VAct
S'NNP'
p909
tp910
F3
s(Vvisage
g17
tp911
F6
s(S':'
S'CD'
p912
tp913
F1
s(Vamongst
g17
tp914
F1
s(Vsigne
g17
tp915
F1
s(Vfee
g17
tp916
F1
s(Vmistresse
g30
tp917
F1
s(Vsmith
g53
tp918
F1
s(Vholyday
g17
tp919
F1
s(Vshee
g4
tp920
F6
s(Vdroncke
g53
tp921
F1
s(Vsee
g4
tp922
F26
s(Vscholler
g17
tp923
F11
s(Vwrung
g4
tp924
F1
s(g291
g364
tp925
F9
s(Vallowed
g63
tp926
F1
s(Vtrotted
g63
tp927
F1
s(Vdoctrine
g17
tp928
F2
s(Vkeepers
g39
tp929
F1
s(Vhappinesse
g17
tp930
F1
s(Vfraile
g53
tp931
F1
s(Vbarge
g17
tp932
F6
s(Vneighbour
g28
tp933
F1
s(Vhope
g30
tp934
F7
s(g234
g20
tp935
F2
s(Vquiet
g53
tp936
F2
s(Vextreame
g17
tp937
F1
s(VIestes
g39
tp938
F1
s(Vloue
g4
tp939
F3
s(Vquestioning
g56
tp940
F1
s(g12
g152
tp941
F1
s(Vfinger
g17
tp942
F1
s(Vvp
g20
tp943
F5
s(Vdrie
g30
tp944
F1
s(Vcoueted
g63
tp945
F1
s(Vfullie
g28
tp946
F1
s(g81
g755
tp947
F5
s(Vsat
g63
tp948
F10
s(Vfor
S'IN'
p949
tp950
F255
s(Vconclusion
g17
tp951
F1
s(Vmeane
g17
tp952
F2
s(Vknowe
g30
tp953
F1
s(Vturned
g63
tp954
F3
s(Vnipped
g53
tp955
F1
s(Vmixture
g17
tp956
F1
s(g30
g395
tp957
F16
s(Vparish
g17
tp958
F2
s(Vcome
g30
tp959
F8
s(Vfuerit
g17
tp960
F1
s(Vdaughter
g17
tp961
F10
s(Vdurst
g37
tp962
F1
s(Vdetermining
g56
tp963
F1
s(Vimagin
g4
tp964
F1
s(Vat
S'IN'
p965
tp966
F144
s(Vhonest
g28
tp967
F1
s(VGoe
g10
tp968
F1
s(Vcontents
g39
tp969
F2
s(Vbargemen
g39
tp970
F1
s(Vabsence
g17
tp971
F2
s(Vgenerallie
g12
tp972
F1
s(Veuening
g56
tp973
F2
s(Varmes
g39
tp974
F2
s(VSeeing
g56
tp975
F1
s(Vspin
g4
tp976
F1
s(Vdiscurtesie
g17
tp977
F1
s(Vstrange
g53
tp978
F4
s(Vyonder
g17
tp979
F2
s(Vdrempt
g37
tp980
F1
s(Vcommaunded
g63
tp981
F3
s(Vbelonged
g12
tp982
F1
s(g418
S'RB'
p983
tp984
F22
s(Vlonger
g51
tp985
F1
s(Varrand
g53
tp986
F1
s(Vdoost
g17
tp987
F1
s(Vrose
S'VBD'
p988
tp989
F5
s(Vglasse
g17
tp990
F4
s(Vfortune
g17
tp991
F7
s(VAle
g10
tp992
F3
s(Vtherfore
g17
tp993
F1
s(Vbeauteous
g53
tp994
F1
s(Vbehauior
g17
tp995
F1
s(Vworde
g17
tp996
F2
s(VTibullus
g10
tp997
F1
s(Vreported
g12
tp998
F1
s(Vhaue
g4
tp999
F49
s(Vpenitent
g17
tp1000
F1
s(Vmerriest
g152
tp1001
F1
s(Vchops
g39
tp1002
F1
s(VSaint
g10
tp1003
F1
s(g12
g755
tp1004
F1
s(Vcaught
g63
tp1005
F1
s(Vfully
S'RB'
p1006
tp1007
F1
s(Vexecute
g4
tp1008
F1
s(g63
g53
tp1009
F119
s(Vcontained
g12
tp1010
F1
s(g447
S'NNP'
p1011
tp1012
F176
s(Vthousand
g17
tp1013
F1
s(Vsundry
g53
tp1014
F2
s(Vioining
g56
tp1015
F1
s(VArte
g10
tp1016
F1
s(Vkindlie
g17
tp1017
F1
s(Vioynts
g39
tp1018
F1
s(g452
g186
tp1019
F441
s(VBatcheler
g10
tp1020
F1
s(Vread
g17
tp1021
F1
s(Vcolour
g53
tp1022
F1
s(Vmerry
g53
tp1023
F5
s(Vmerrie
g12
tp1024
F1
s(Venuying
g56
tp1025
F1
s(Vmaids
g39
tp1026
F1
s(Vany
S'DT'
p1027
tp1028
F23
s(Vpleased
g63
tp1029
F4
s(Vchin
g53
tp1030
F1
s(Vsong
g17
tp1031
F4
s(Vdaie
g28
tp1032
F1
s(Vabout
g234
tp1033
F17
s(Vwits
g39
tp1034
F2
s(Vsport
g4
tp1035
F1
s(Vforsooth
g53
tp1036
F1
s(VTrumpington
g10
tp1037
F1
s(Vdeceiued
g12
tp1038
F3
s(S':'
g39
tp1039
F10
s(Vlusty
g53
tp1040
F1
s(Vstumbling
g56
tp1041
F2
s(Vgoing
S'VBG'
p1042
tp1043
F6
s(Vwritten
S'VBN'
p1044
tp1045
F1
s(Vbreeche
g17
tp1046
F1
s(Vwinde
g17
tp1047
F4
s(Vtould
g12
tp1048
F1
s(VFaint
g10
tp1049
F1
s(Vpartake
g4
tp1050
F1
s(Vchat
g39
tp1051
F1
s(Vward
g17
tp1052
F1
s(Vtellen
g30
tp1053
F1
s(Vcontent
g4
tp1054
F3
s(Vdemaunded
g63
tp1055
F2
s(Vwalking
g56
tp1056
F3
s(Vhelpt
g37
tp1057
F1
s(Vkilling
g17
tp1058
F1
s(Vworke
g63
tp1059
F1
s(Vtalked
g63
tp1060
F1
s(Vill
g53
tp1061
F2
s(Vlightnes
g39
tp1062
F1
s(Vale
g17
tp1063
F2
s(VGospel
g53
tp1064
F1
s(Vwhiles
g39
tp1065
F3
s(Vhearest
g152
tp1066
F1
s(Vslipt
g17
tp1067
F1
s(Vconueied
g63
tp1068
F2
s(Vlong
g53
tp1069
F12
s(Vpatienter
g17
tp1070
F1
s(Vsuspect
g4
tp1071
F1
s(g63
S','
tp1072
F104
s(Vpast
g30
tp1073
F2
s(Vcompanie
g17
tp1074
F6
s(Vrestored
g63
tp1075
F1
s(VEnglad
g10
tp1076
F1
s(Vboldlie
g17
tp1077
F1
s(Vtapsters
g39
tp1078
F1
s(Vbin
g4
tp1079
F1
s(Vthanke
g4
tp1080
F1
s(VNurses
g39
tp1081
F1
s(Vhuble
g53
tp1082
F1
s(Vsower
g17
tp1083
F1
s(Vboult
g17
tp1084
F1
s(Vsuppose
g17
tp1085
F1
s(Vwroong
g53
tp1086
F2
s(Veuery
g17
tp1087
F11
s(Vfloate
g53
tp1088
F1
s(Vwithin
S'IN'
p1089
tp1090
F11
s(g10
g53
tp1091
F15
s(Vgaine
g53
tp1092
F1
s(Vglaunce
g17
tp1093
F2
s(Vvntill
g20
tp1094
F1
s(Vconuersant
g17
tp1095
F1
s(Vseate
g17
tp1096
F1
s(Vsigh
g17
tp1097
F3
s(Vpunisht
g17
tp1098
F2
s(Vbehind
g234
tp1099
F2
s(g4
g39
tp1100
F14
s(Vfeare
g53
tp1101
F1
s(Vdelight
g4
tp1102
F1
s(Vsheete
g17
tp1103
F2
s(Vas
g30
tp1104
F1
s(Vdronkard
g17
tp1105
F1
s(Vpale
g17
tp1106
F3
s(Vneerely
g28
tp1107
F1
s(VWas
g10
tp1108
F3
s(VMarian
g17
tp1109
F1
s(Vkindly
g28
tp1110
F1
s(VMaria
g10
tp1111
F2
s(Vart
g17
tp1112
F5
s(Vpuld
g63
tp1113
F1
s(Vcertaine
g17
tp1114
F6
s(Vriche
g17
tp1115
F1
s(Vorder
S'NN'
p1116
tp1117
F2
s(g127
S'IN'
p1118
tp1119
F1
s(VCherryhinton
g10
tp1120
F13
s(Val
g17
tp1121
F8
s(Vyeomen
g30
tp1122
F1
s(Vcause
g17
tp1123
F13
s(Vwherefore
S'RBR'
p1124
tp1125
F1
s(V,
S','
tp1126
F2251
s(g53
g12
tp1127
F5
s(Vpurgatorie
g17
tp1128
F3
s(VWickham
g10
tp1129
F1
s(Vshears
g39
tp1130
F1
s(Vwatchworde
g17
tp1131
F1
s(Vthinkes
g37
tp1132
F1
s(Vpoint
g4
tp1133
F1
s(Veate
g4
tp1134
F3
s(Vlong
g28
tp1135
F7
s(Voft
g4
tp1136
F1
s(Vhands
g39
tp1137
F5
s(g76
g452
tp1138
F40
s(Vwaies
g37
tp1139
F1
s(Valwaies
g37
tp1140
F1
s(Vearly
g53
tp1141
F1
s(VBy
S'IN'
p1142
tp1143
F4
s(S':'
g56
tp1144
F6
s(Vthen
S'RB'
p1145
tp1146
F75
s(Vpittifull
g17
tp1147
F1
s(Vmee
g17
tp1148
F10
s(Vwhatsoeuer
g105
tp1149
F1
s(Vfire
g17
tp1150
F5
s(Vcald
g37
tp1151
F2
s(VLilie
g10
tp1152
F1
s(Vgreedilie
g53
tp1153
F1
s(Vfinde
g4
tp1154
F7
s(Vrichly
g28
tp1155
F1
s(VDogge
g10
tp1156
F1
s(g80
S'WP'
p1157
tp1158
F7
s(Vworldlie
g53
tp1159
F1
s(Vwhich
g81
tp1160
F50
s(VChrists
g39
tp1161
F1
s(Vdesired
g63
tp1162
F7
s(Vdeere
g17
tp1163
F2
s(Vdiligence
g17
tp1164
F2
s(Vmiracle
g17
tp1165
F4
s(S'RB'
p1166
g112
tp1167
F13
s(Vfit
g53
tp1168
F2
s(Vmischiefe
g17
tp1169
F1
s(Vwonder
g17
tp1170
F1
s(Vfront
g17
tp1171
F1
s(g10
g28
tp1172
F20
s(Vwrite
g30
tp1173
F1
s(Vcloathes
g39
tp1174
F5
s(Vgraunt
g4
tp1175
F1
s(S'('
g28
tp1176
F1
s(Vlaid
g63
tp1177
F5
s(g58
g234
tp1178
F1
s(Vsolitarie
g53
tp1179
F1
s(S'DT'
p1180
g86
tp1181
F3
s(Vwhatsoeuer
g30
tp1182
F1
s(Vbloudy
g17
tp1183
F1
s(Vpollax
g17
tp1184
F1
s(S'VBG'
p1185
g12
tp1186
F5
s(Vpassing
g56
tp1187
F6
s(Vlongd
g37
tp1188
F1
s(VLitter
g10
tp1189
F1
s(VDorter
g10
tp1190
F2
s(Vworst
g152
tp1191
F3
s(g112
g4
tp1192
F95
s(g491
g53
tp1193
F229
s(Vwhat
g91
tp1194
F71
s(Vglad
g39
tp1195
F1
s(g10
g4
tp1196
F8
s(Vthee
g234
tp1197
F2
s(Vgreater
S'JJR'
p1198
tp1199
F2
s(Vabilitie
g17
tp1200
F1
s(Vwhereat
g30
tp1201
F1
s(Vmade
g63
tp1202
F40
s(g965
g454
tp1203
F10
s(Vcommodities
g39
tp1204
F1
s(Vfare
g17
tp1205
F3
s(VArt
g10
tp1206
F3
s(g546
g20
tp1207
F4
s(VChristallyne
g10
tp1208
F1
s(Vbeene
g12
tp1209
F5
s(Vwiues
g37
tp1210
F1
s(Vvp
g330
tp1211
F1
s(Vtooth
g17
tp1212
F1
s(Vwery
g17
tp1213
F1
s(Vpromisd
g30
tp1214
F1
s(VIealousie
g10
tp1215
F1
s(g10
g47
tp1216
F28
s(VRicher
g10
tp1217
F1
s(Vhaire
g17
tp1218
F5
s(Valehouse
g17
tp1219
F1
s(Vmotio
g17
tp1220
F1
s(Vliue
g17
tp1221
F1
s(Vwidow
g17
tp1222
F2
s(Vroundly
g28
tp1223
F1
s(S'PRP'
p1224
S'PRP'
p1225
tp1226
F10
s(Vrise
g4
tp1227
F2
s(Vcrowde
g17
tp1228
F1
s(Vbusie
g12
tp1229
F1
s(g53
S')'
tp1230
F4
s(Vprancke
g17
tp1231
F1
s(VMarie
g10
tp1232
F1
s(Vhalbert
g17
tp1233
F1
s(VFryars
g10
tp1234
F3
s(g39
S'.'
tp1235
F47
s(Vshewe
g4
tp1236
F1
s(Vdisparagment
g17
tp1237
F2
s(Vwhip
g17
tp1238
F4
s(S':'
S'PRP'
p1239
tp1240
F27
s(Vsoone
g17
tp1241
F2
s(Vhower
g17
tp1242
F5
s(Vyard
g17
tp1243
F1
s(Vvnitie
g17
tp1244
F1
s(Vbrowes
g17
tp1245
F1
s(Vcates
g39
tp1246
F1
s(Vhimselfe
g30
tp1247
F2
s(g63
g17
tp1248
F115
s(Vcompire
g17
tp1249
F1
s(Vperemptorie
g17
tp1250
F1
s(VPriory
g10
tp1251
F7
s(Vdesired
g53
tp1252
F1
s(Vold
S'JJ'
p1253
tp1254
F29
s(S':'
g10
tp1255
F29
s(Vsaluted
g63
tp1256
F5
s(VIestes
g10
tp1257
F1
s(Vconsent
g4
tp1258
F1
s(Vfitting
g56
tp1259
F1
s(g47
g418
tp1260
F73
s(Vwanted
g63
tp1261
F2
s(Vmarrying
g56
tp1262
F1
s(VCommens
g39
tp1263
F1
s(Vlumynous
g53
tp1264
F1
s(Vfauours
g17
tp1265
F1
s(Vor
S'CC'
p1266
tp1267
F39
s(Vdesiring
g56
tp1268
F3
s(Vforth
g28
tp1269
F1
s(g117
S'('
tp1270
F1
s(Vsit
g30
tp1271
F3
s(Vmouth
g17
tp1272
F1
s(Vqualifie
g4
tp1273
F1
s(Vwenching
g17
tp1274
F1
s(Vliked
g63
tp1275
F1
s(Vrun
g30
tp1276
F2
s(Vfrosty
g53
tp1277
F1
s(Vvertues
g39
tp1278
F2
s(Vmee
g30
tp1279
F1
s(Vlost
g12
tp1280
F1
s(Vbee
g4
tp1281
F20
s(Vended
g63
tp1282
F1
s(Vneither
g105
tp1283
F4
s(Vshakt
g63
tp1284
F1
s(Vbin
g12
tp1285
F4
s(Vinwarde
g17
tp1286
F1
s(Vfill
g4
tp1287
F1
s(Vtast
g17
tp1288
F1
s(g37
g39
tp1289
F8
s(Vwilt
g53
tp1290
F3
s(Vwheresoeuer
g17
tp1291
F1
s(Vinside
g17
tp1292
F1
s(VColledge
g10
tp1293
F1
s(Vbetweene
g17
tp1294
F8
s(Vhindered
g12
tp1295
F1
s(Vquite
g28
tp1296
F1
s(Vstart
g17
tp1297
F1
s(Vmasters
g39
tp1298
F1
s(Vcast
g63
tp1299
F3
s(Vcouered
g63
tp1300
F1
s(g53
g452
tp1301
F38
s(Vcited
g63
tp1302
F1
s(Vfoot
g17
tp1303
F1
s(Vintelligence
g17
tp1304
F1
s(VGood
g53
tp1305
F1
s(Vmiserably
g28
tp1306
F1
s(Vwounded
g53
tp1307
F1
s(Veares
g39
tp1308
F3
s(Vcheere
g17
tp1309
F2
s(Vmichers
g39
tp1310
F1
s(Vasking
g56
tp1311
F2
s(Vlaughing
g56
tp1312
F4
s(S'JJ'
p1313
S':'
tp1314
F28
s(Vserue
g4
tp1315
F3
s(Vhitherto
g17
tp1316
F1
s(Vspake
g30
tp1317
F1
s(Viarred
g53
tp1318
F1
s(Vlying
g17
tp1319
F1
s(Vlockt
g37
tp1320
F1
s(Vshake
g4
tp1321
F1
s(VLend
g4
tp1322
F1
s(Vsuspecting
g56
tp1323
F1
s(Vould
g755
tp1324
F1
s(g91
S'NNS'
p1325
tp1326
F1
s(g4
g112
tp1327
F14
s(Vprotector
g17
tp1328
F1
s(Vkerne
g53
tp1329
F1
s(Vvnworthy
g53
tp1330
F1
s(Vfancies
g39
tp1331
F2
s(Vcleere
g28
tp1332
F1
s(Vtender
g17
tp1333
F1
s(Vbride
g30
tp1334
F1
s(Vdelightfull
g53
tp1335
F2
s(Vcomunication
g17
tp1336
F1
s(VRobin
g10
tp1337
F4
s(VRomney
g10
tp1338
F4
s(VParentage
g10
tp1339
F1
s(Vturnd
g63
tp1340
F1
s(g20
g4
tp1341
F2
s(Vwant
g53
tp1342
F1
s(Vmany
g850
tp1343
F20
s(Vwhipt
g234
tp1344
F1
s(Vsuch
g53
tp1345
F53
s(Vsit
g4
tp1346
F4
s(Vsufficientlie
g4
tp1347
F1
s(Vye
g53
tp1348
F15
s(Vlend
g4
tp1349
F1
s(Vwretch
g30
tp1350
F1
s(Vteeth
g39
tp1351
F4
s(Vsurpasse
g4
tp1352
F1
s(g867
g91
tp1353
F9
s(Vreuealed
g12
tp1354
F3
s(VSafe
g30
tp1355
F1
s(Vattired
g63
tp1356
F1
s(VSmithes
g10
tp1357
F1
s(Veasilie
g17
tp1358
F2
s(Vcolour
g17
tp1359
F2
s(Vwan
g17
tp1360
F1
s(Vloue
g17
tp1361
F31
s(Vspeeches
g39
tp1362
F4
s(VTroilus
g17
tp1363
F1
s(Vaske
g4
tp1364
F4
s(g37
g330
tp1365
F5
s(Vrecounted
g63
tp1366
F1
s(Vhonest
g17
tp1367
F3
s(VGraie
g4
tp1368
F1
s(Vimbracing
g56
tp1369
F1
s(g17
S'VBP'
p1370
tp1371
F19
s(Vreuege
g4
tp1372
F1
s(Vcunning
g56
tp1373
F1
s(VSonday
g10
tp1374
F1
s(S':'
g63
tp1375
F3
s(Vhope
g17
tp1376
F5
s(Vseeke
g4
tp1377
F2
s(Vexamples
g39
tp1378
F1
s(Vbona
g12
tp1379
F1
s(Vbetrothed
g63
tp1380
F1
s(Vstraight
g17
tp1381
F2
s(g20
g53
tp1382
F1
s(Vnext
g53
tp1383
F19
s(g1370
g477
tp1384
F11
s(Vkindnesse
g17
tp1385
F1
s(VCourt
S'NNP'
p1386
tp1387
F3
s(Vpleasing
g53
tp1388
F1
s(Vvt
g17
tp1389
F1
s(VAl
g234
tp1390
F1
s(Vlusty
g17
tp1391
F1
s(g364
S','
tp1392
F3
s(Vheade
g17
tp1393
F2
s(VBeares
g10
tp1394
F1
s(Vmaried
g63
tp1395
F1
s(Voh
g17
tp1396
F3
s(Vconsider
g51
tp1397
F1
s(Vsolemnitie
g17
tp1398
F1
s(Vmickle
g17
tp1399
F1
s(S'IN'
p1400
g12
tp1401
F11
s(VHung
g10
tp1402
F1
s(Vliued
g63
tp1403
F4
s(VPrometheus
g10
tp1404
F1
s(Ventered
g63
tp1405
F1
s(VNot
S'RB'
p1406
tp1407
F1
s(g1027
g51
tp1408
F8
s(Vfrost
g17
tp1409
F1
s(VLiue
g10
tp1410
F1
s(Vsome
g1180
tp1411
F36
s(Viarres
g39
tp1412
F1
s(Vwiues
g39
tp1413
F16
s(VStraight
g755
tp1414
F1
s(Vhoist
g17
tp1415
F1
s(VVenus
g10
tp1416
F5
s(VYe
g10
tp1417
F1
s(Vdead
g53
tp1418
F6
s(Vcalled
g63
tp1419
F6
s(Vperished
g12
tp1420
F1
s(S')'
g186
tp1421
F3
s(Vinfamy
g17
tp1422
F1
s(Vbowle
g17
tp1423
F1
s(Vvs
g330
tp1424
F1
s(g1145
g1370
tp1425
F9
s(VFather
g10
tp1426
F6
s(Vweigh
g234
tp1427
F1
s(Vhoping
g56
tp1428
F4
s(Vknauishly
g28
tp1429
F1
s(Vwitte
g12
tp1430
F1
s(g186
S','
tp1431
F86
s(Vlearned
g63
tp1432
F2
s(Vseene
g12
tp1433
F4
s(Vbrethren
g39
tp1434
F5
s(Vfetch
g17
tp1435
F2
s(Vgreeued
g63
tp1436
F3
s(Vhonesty
g17
tp1437
F1
s(Vcurtesie
g17
tp1438
F7
s(Vneither
g4
tp1439
F1
s(g37
g364
tp1440
F5
s(Vnewes
g37
tp1441
F2
s(Vlimits
g39
tp1442
F1
s(Vloued
g12
tp1443
F3
s(Vcharge
g17
tp1444
F1
s(Vfellow
g30
tp1445
F1
s(Vbesmiered
g53
tp1446
F1
s(Vwooe
g4
tp1447
F2
s(VCoblers
g127
tp1448
F2
s(Vtold
g12
tp1449
F1
s(Vpassengers
g39
tp1450
F2
s(Vattire
g17
tp1451
F2
s(g47
g53
tp1452
F30
s(VVnlesse
g10
tp1453
F1
s(VWife
g10
tp1454
F4
s(Vbreath
g17
tp1455
F1
s(Vhurt
g12
tp1456
F1
s(Vrepose
g4
tp1457
F1
s(Vende
g20
tp1458
F1
s(g141
g58
tp1459
F7
s(VBridegrome
g10
tp1460
F1
s(Vrycher
g17
tp1461
F1
s(Vcensure
g17
tp1462
F2
s(Vproofe
g17
tp1463
F2
s(Ventred
g12
tp1464
F1
s(g12
g58
tp1465
F1
s(Vfarewell
g30
tp1466
F2
s(Vof
g491
tp1467
F493
s(Vchest
g17
tp1468
F2
s(Vexecution
g17
tp1469
F1
s(Vsucke
g17
tp1470
F1
s(Vapplie
g4
tp1471
F1
s(Vcoforted
g63
tp1472
F1
s(Vstood
g63
tp1473
F9
s(Vgifts
g39
tp1474
F2
s(Valwaies
g39
tp1475
F2
s(Vmend
g4
tp1476
F1
s(Vresoluing
g56
tp1477
F2
s(Vgossipping
g56
tp1478
F1
s(g39
g187
tp1479
F1
s(Vtould
g30
tp1480
F1
s(Vdesire
g17
tp1481
F3
s(VOh
g10
tp1482
F1
s(Vinke
g17
tp1483
F1
s(VKings
g10
tp1484
F3
s(Vrecompted
g12
tp1485
F1
s(Vgo
g4
tp1486
F14
s(Vmuch
g28
tp1487
F6
s(Vdead
g17
tp1488
F1
s(Vdid
S'VBD'
p1489
tp1490
F27
s(Vpale
g12
tp1491
F1
s(Vsaid
S'VBD'
p1492
tp1493
F23
s(Vsaile
g17
tp1494
F2
s(Vlegge
g17
tp1495
F1
s(VMothers
g39
tp1496
F1
s(Vioynted
g63
tp1497
F1
s(Vnowe
g30
tp1498
F1
s(Vaccorded
g63
tp1499
F1
s(Vneeds
g39
tp1500
F1
s(Vyet
g105
tp1501
F4
s(Vfainted
g12
tp1502
F1
s(Vobiect
g17
tp1503
F3
s(Vforth
g17
tp1504
F2
s(Vstept
g17
tp1505
F1
s(VIoue
g10
tp1506
F1
s(VBeene
g10
tp1507
F1
s(VLike
S'IN'
p1508
tp1509
F4
s(VSecretary
S'NNP'
p1510
tp1511
F1
s(S':'
g28
tp1512
F44
s(Vcoie
g17
tp1513
F1
s(Vshalt
g17
tp1514
F4
s(Vtell
g30
tp1515
F2
s(Vprofound
g17
tp1516
F2
s(Vfaining
g56
tp1517
F1
s(Vsheep
g17
tp1518
F1
s(V'
S'POS'
p1519
tp1520
F1
s(VFortune
g10
tp1521
F5
s(Vhardly
g28
tp1522
F1
s(Vif
g1400
tp1523
F68
s(S'DT'
p1524
g12
tp1525
F7
s(Vhir
g30
tp1526
F2
s(g28
g1124
tp1527
F4
s(Vwhoredome
g17
tp1528
F1
s(Vfoule
g53
tp1529
F1
s(Vgossipping
g17
tp1530
F1
s(VSatterday
g10
tp1531
F5
s(Vdiscommending
g56
tp1532
F1
s(Vorderly
g28
tp1533
F3
s(VCatherin
g10
tp1534
F3
s(Vwearie
g17
tp1535
F1
s(VParents
g39
tp1536
F3
s(Vhoist
g30
tp1537
F1
s(Vintertained
g63
tp1538
F1
s(Vwarde
g17
tp1539
F1
s(S'WP'
p1540
g10
tp1541
F3
s(Vbare
g4
tp1542
F1
s(Vmee
g12
tp1543
F1
s(Vking
g56
tp1544
F1
s(VLiuing
g56
tp1545
F2
s(Vreuengde
g17
tp1546
F1
s(Vcommand
g17
tp1547
F1
s(Vdunces
g39
tp1548
F1
s(Vplaintes
g39
tp1549
F1
s(Vfar
S'RB'
p1550
tp1551
F4
s(Vbuttons
g39
tp1552
F1
s(Vbefore
g234
tp1553
F23
s(Vwoon
g53
tp1554
F1
s(VCap
g17
tp1555
F1
s(Vsecrete
g17
tp1556
F1
s(Vwalke
g4
tp1557
F2
s(Vconfessed
g63
tp1558
F1
s(Vinstance
S'NN'
p1559
tp1560
F3
s(VTush
g10
tp1561
F2
s(Vsheaths
g39
tp1562
F1
s(Vcall
g17
tp1563
F1
s(VMilke
g10
tp1564
F1
s(Vlingring
g56
tp1565
F1
s(Vdeale
g53
tp1566
F1
s(VWhile
S'IN'
p1567
tp1568
F1
s(Vprouided
g12
tp1569
F1
s(Vsupper
g4
tp1570
F1
s(Vwrong
g63
tp1571
F1
s(Vhaue
g63
tp1572
F5
s(VSpaine
g17
tp1573
F1
s(Vtoong
g53
tp1574
F1
s(Vresolution
g17
tp1575
F3
s(Vwonderful
g53
tp1576
F1
s(Vcoaly
g53
tp1577
F1
s(Vwhetteth
g39
tp1578
F1
s(Vsupper
g53
tp1579
F1
s(Vbriefe
g12
tp1580
F1
s(Vcomming
g17
tp1581
F2
s(Vawake
g17
tp1582
F1
s(g81
g1370
tp1583
F10
s(Vblue
g39
tp1584
F1
s(Vground
g17
tp1585
F1
s(Vdust
g17
tp1586
F1
s(Vsackelesse
g12
tp1587
F1
s(Vgrinde
g53
tp1588
F1
s(g4
g607
tp1589
F66
s(Vmee
g4
tp1590
F2
s(VTmisa
g10
tp1591
F1
s(Vsick
g53
tp1592
F1
s(Vbeldame
g17
tp1593
F1
s(Vcousel
g17
tp1594
F1
s(g51
g63
tp1595
F1
s(Vqualified
g12
tp1596
F1
s(Vhartily
g28
tp1597
F2
s(Vcast
g17
tp1598
F1
s(Vmanifestlie
g53
tp1599
F1
s(Vnut
g17
tp1600
F1
s(Vfro
g17
tp1601
F1
s(Vsaw
g17
tp1602
F1
s(VLooke
g10
tp1603
F1
s(Vpaire
g17
tp1604
F1
s(Vvp
g37
tp1605
F1
s(Vsteuen
g17
tp1606
F1
s(g141
S':'
tp1607
F6
s(VMaiestie
g10
tp1608
F1
s(Vwithall
g17
tp1609
F3
s(Vyt
g28
tp1610
F2
s(S':'
g17
tp1611
F64
s(Vlustie
g17
tp1612
F1
s(g328
g187
tp1613
F1
s(Vadmitted
g12
tp1614
F3
s(Vmanners
g39
tp1615
F2
s(g30
g10
tp1616
F3
s(Vqueane
g17
tp1617
F1
s(Vwe
g1239
tp1618
F23
s(g10
S'.'
tp1619
F68
s(Vyeeld
g4
tp1620
F3
s(Vyoung
S'JJ'
p1621
tp1622
F5
s(VSalem
g10
tp1623
F1
s(Vred
g53
tp1624
F4
s(Vknaue
g53
tp1625
F1
s(Vsorrowes
g17
tp1626
F1
s(Vmilke
g17
tp1627
F1
s(Vcreature
g17
tp1628
F3
s(Vanon
g37
tp1629
F1
s(Vmariage
g17
tp1630
F3
s(Vshifted
g63
tp1631
F1
s(Vhee
g22
tp1632
F1
s(g39
g309
tp1633
F5
s(Vseat
g17
tp1634
F1
s(Vlookt
g28
tp1635
F1
s(Vdeepe
g17
tp1636
F4
s(Vtherefore
g28
tp1637
F28
s(Vsomewhere
g28
tp1638
F1
s(Vdidst
g17
tp1639
F3
s(Vperswasion
g17
tp1640
F1
s(VPeters
S'NNP'
p1641
tp1642
F5
s(Vsound
g17
tp1643
F2
s(Vwanton
g17
tp1644
F5
s(Vshame
g17
tp1645
F2
s(Vbristled
g63
tp1646
F1
s(Vsay
g4
tp1647
F9
s(Vtraine
g17
tp1648
F1
s(Vgates
g39
tp1649
F2
s(Vdwelt
g63
tp1650
F1
s(Vdolore
g17
tp1651
F1
s(VHimp
g10
tp1652
F1
s(VHe
S'PRP'
p1653
tp1654
F10
s(Vhearest
g17
tp1655
F1
s(Vdebonaire
g17
tp1656
F1
s(Vliues
g37
tp1657
F2
s(Vcoulde
g30
tp1658
F3
s(Vinuited
g12
tp1659
F1
s(g39
g1224
tp1660
F17
s(Vamaine
g17
tp1661
F2
s(Vpaches
g39
tp1662
F1
s(VTauerne
g10
tp1663
F3
s(Vhorses
g39
tp1664
F1
s(Vfelowes
g17
tp1665
F1
s(Vels
g30
tp1666
F1
s(Vdeliuered
g63
tp1667
F3
s(Vforward
g28
tp1668
F2
s(Vsaw
g63
tp1669
F13
s(Vhostel
g17
tp1670
F1
s(VLordship
g10
tp1671
F1
s(Vwit
g17
tp1672
F5
s(Vpardon
g17
tp1673
F3
s(V3
g187
tp1674
F2
s(Vbeating
g56
tp1675
F2
s(Vwhit
g17
tp1676
F2
s(Vhealed
g12
tp1677
F1
s(Vholy-dayes
g39
tp1678
F2
s(Vreade
g4
tp1679
F4
s(Vburied
g12
tp1680
F3
s(Vpetticoate
g17
tp1681
F2
s(Vdo
g4
tp1682
F4
s(Vespeciallie
g39
tp1683
F1
s(VScul
g10
tp1684
F7
s(VGossippes
g39
tp1685
F1
s(Vcunningly
g28
tp1686
F3
s(Vrisen
g12
tp1687
F1
s(Vloase
g4
tp1688
F1
s(Vquoth
g28
tp1689
F3
s(Vverifie
g4
tp1690
F1
s(Viealous
g53
tp1691
F15
s(Vcarcasse
g17
tp1692
F1
s(Vmiddle
g53
tp1693
F2
s(g63
S')'
tp1694
F1
s(Vestate
S'NN'
p1695
tp1696
F1
s(Vgraunt
g17
tp1697
F1
s(Vletter
S'NN'
p1698
tp1699
F13
s(Vmight
g515
tp1700
F35
s(Vcald
g17
tp1701
F1
s(Vgrindstone
g17
tp1702
F1
s(Vthine
g17
tp1703
F1
s(Vtormetors
g39
tp1704
F1
s(Vshew
g4
tp1705
F4
s(Vweare
g17
tp1706
F1
s(Vdispaire
g17
tp1707
F1
s(Vhard
g53
tp1708
F13
s(Vthank
g30
tp1709
F1
s(Vafraide
g17
tp1710
F1
s(g454
g187
tp1711
F11
s(VNeptunus
g10
tp1712
F1
s(Vkeyes
g39
tp1713
F1
s(Vfamiliar
S'JJ'
p1714
tp1715
F6
s(Vextraordinarie
g17
tp1716
F1
s(Vpate
g17
tp1717
F2
s(g444
g53
tp1718
F46
s(g28
g91
tp1719
F3
s(Vpitty
g53
tp1720
F1
s(Vown
g53
tp1721
F2
s(Vbetter
g51
tp1722
F2
s(g234
g491
tp1723
F99
s(Vloose
g53
tp1724
F1
s(g39
g112
tp1725
F40
s(Vconueniently
g28
tp1726
F1
s(Vwishing
g56
tp1727
F2
s(Vwoulde
g53
tp1728
F1
s(VTruly
g28
tp1729
F1
s(Vconstancie
g17
tp1730
F1
s(VPriorie
g10
tp1731
F2
s(Vestimation
g17
tp1732
F3
s(Voffer
g4
tp1733
F1
s(Vfalles
g37
tp1734
F1
s(Vinsomuch
g17
tp1735
F3
s(Vdiscredit
g4
tp1736
F1
s(Vconsented
g12
tp1737
F1
s(Vforlorne
g53
tp1738
F1
s(Vheere
g28
tp1739
F4
s(Vdoost
g152
tp1740
F1
s(VEuerie
g10
tp1741
F2
s(Vkitchin
g17
tp1742
F1
s(VDiogenes
g10
tp1743
F1
s(Vneighbour
g234
tp1744
F1
s(Vlatchet
g17
tp1745
F2
s(Vpractises
g39
tp1746
F1
s(Vneighbor
g17
tp1747
F1
s(Vdurst
g53
tp1748
F1
s(Veasely
g28
tp1749
F1
s(Vkept
g63
tp1750
F8
s(S','
g364
tp1751
F15
s(g17
g328
tp1752
F6
s(Vformer
S'JJ'
p1753
tp1754
F2
s(VMothers
g10
tp1755
F1
s(VRochester
g10
tp1756
F1
s(g91
g53
tp1757
F4
s(Vforked
g63
tp1758
F1
s(Vfit
g12
tp1759
F1
s(Vlight
g17
tp1760
F5
s(Vsleeue
g17
tp1761
F1
s(Vfather
g17
tp1762
F17
s(Vneuer
g39
tp1763
F2
s(Vinfortunate
g17
tp1764
F1
s(g58
g364
tp1765
F4
s(Vfaulty
g17
tp1766
F1
s(Vpatient
g53
tp1767
F1
s(Vtwenty
g17
tp1768
F1
s(VArmes
g10
tp1769
F1
s(VWell
g10
tp1770
F1
s(Voutcrie
g17
tp1771
F1
s(Vcouent
g17
tp1772
F2
s(Vwherupon
g234
tp1773
F3
s(Vknockt
g17
tp1774
F2
s(VRouer
g10
tp1775
F1
s(VMyzaldo
g10
tp1776
F13
s(VCuckoldry
g10
tp1777
F1
s(Vking
g17
tp1778
F13
s(Vbeauties
g39
tp1779
F2
s(VThen
S'RB'
p1780
tp1781
F20
s(Vforenoone
g17
tp1782
F1
s(Vready
g17
tp1783
F1
s(Vfancy
g17
tp1784
F1
s(g97
g418
tp1785
F28
s(Vhappened
g12
tp1786
F1
s(Vwore
g234
tp1787
F1
s(Vpittying
g56
tp1788
F1
s(Vfit
g17
tp1789
F1
s(VEcclesia
g10
tp1790
F3
s(Vneedes
g37
tp1791
F1
s(Vbeere
g53
tp1792
F1
s(Vround
g17
tp1793
F1
s(VConteining
g56
tp1794
F6
s(S'WRB'
p1795
g39
tp1796
F5
s(Vpin
g17
tp1797
F1
s(Vpretty
g53
tp1798
F1
s(Vwise
g53
tp1799
F1
s(Vcarefully
g28
tp1800
F1
s(Vmill
g17
tp1801
F1
s(Vdealt
g53
tp1802
F1
s(Vexcellencie
g17
tp1803
F4
s(Vfriends
g39
tp1804
F10
s(Vcommending
g56
tp1805
F2
s(g12
S':'
tp1806
F18
s(Vweek
S'NN'
p1807
tp1808
F1
s(g452
S','
tp1809
F2
s(g39
g37
tp1810
F1
s(Vbreak
g17
tp1811
F1
s(Vthings
S'NNS'
p1812
tp1813
F4
s(Vpromist
g37
tp1814
F1
s(Vtis
g17
tp1815
F2
s(Viealousie
g17
tp1816
F5
s(Vfetcht
g63
tp1817
F2
s(g37
g546
tp1818
F20
s(Vmarket
S'NN'
p1819
tp1820
F4
s(Vtearmes
g39
tp1821
F1
s(Vflower
g17
tp1822
F1
s(Vwood
g17
tp1823
F1
s(Vfought
g63
tp1824
F1
s(Vapace
g17
tp1825
F1
s(Vsecrets
g39
tp1826
F2
s(Vfeakes
g39
tp1827
F1
s(Vfild
g30
tp1828
F1
s(Vthence
g17
tp1829
F2
s(Vrestore
g63
tp1830
F1
s(Vhate
g4
tp1831
F1
s(Vpresent
g17
tp1832
F2
s(Vfinished
g12
tp1833
F2
s(VI
g605
tp1834
F270
s(VSmithfield
g10
tp1835
F1
s(Vtowne
g17
tp1836
F7
s(Vroome
g17
tp1837
F2
s(Vwrinckled
g53
tp1838
F1
s(Voportet
g755
tp1839
F1
s(Vholy
g17
tp1840
F1
s(Vhie
g53
tp1841
F3
s(Vthou
g28
tp1842
F2
s(Vshooes
g39
tp1843
F2
s(g1239
g127
tp1844
F1
s(Vwatching
g56
tp1845
F2
s(Vdoue
g17
tp1846
F1
s(Vgreatest
g152
tp1847
F1
s(Vsubmit
g4
tp1848
F1
s(Vmorrowe
g4
tp1849
F1
s(Vfauour
g4
tp1850
F1
s(Vlongde
g37
tp1851
F1
s(Vfieldes
g39
tp1852
F1
s(Vexamin
g30
tp1853
F1
s(VUpon
g234
tp1854
F11
s(Vforsooth
g4
tp1855
F1
s(Vtrudgd
g58
tp1856
F1
s(Violly
g28
tp1857
F1
s(Vwoulde
g17
tp1858
F7
s(Vincreast
g30
tp1859
F1
s(VCaueat
g10
tp1860
F1
s(VMarian
g53
tp1861
F11
s(S','
g76
tp1862
F103
s(Vpinte
g17
tp1863
F1
s(g291
g17
tp1864
F28
s(Vbell
g17
tp1865
F1
s(Vneede
g755
tp1866
F1
s(VChannell
g10
tp1867
F1
s(Vfixe
g4
tp1868
F1
s(Vnewes
g17
tp1869
F3
s(Vstop
g4
tp1870
F1
s(Vyerking
g56
tp1871
F1
s(VOr
g105
tp1872
F3
s(Vdegree
g17
tp1873
F2
s(Vwife
S'NN'
p1874
tp1875
F109
s(g76
g187
tp1876
F4
s(VFro
g10
tp1877
F1
s(Vother
g1313
tp1878
F36
s(Vwoords
g39
tp1879
F1
s(Viesting
g56
tp1880
F1
s(VAxiomes
g39
tp1881
F1
s(Vright
g28
tp1882
F1
s(Vyee
g17
tp1883
F1
s(Vcal
g4
tp1884
F1
s(Viests
g39
tp1885
F1
s(Vceasing
g17
tp1886
F2
s(Vmyserie
g17
tp1887
F1
s(Vgranted
g12
tp1888
F1
s(Vra
g4
tp1889
F1
s(VGowne
g10
tp1890
F1
s(VNymphs
g10
tp1891
F1
s(VAmphitrites
g10
tp1892
F1
s(Vfatal
g53
tp1893
F1
s(Vglaunced
g63
tp1894
F1
s(Vthou
g17
tp1895
F17
s(Vprouiding
g17
tp1896
F1
s(VUilleine
g10
tp1897
F1
s(Vgoodwife
g17
tp1898
F1
s(Vshould
S'MD'
p1899
tp1900
F55
s(Vmans
g39
tp1901
F1
s(Vheede
g17
tp1902
F2
s(Vsynewes
g17
tp1903
F1
s(Vfounde
g63
tp1904
F1
s(Vaxiomes
g39
tp1905
F1
s(Vworse
g17
tp1906
F1
s(VIestes
g37
tp1907
F1
s(Vsometime
g28
tp1908
F2
s(VMarrian
g10
tp1909
F1
s(Vonelie
g53
tp1910
F2
s(Vdisparagement
g17
tp1911
F1
s(Vwoont
g17
tp1912
F1
s(Vmen
g477
tp1913
F23
s(Vstole
g28
tp1914
F1
s(Vaged
g63
tp1915
F1
s(g418
g175
tp1916
F4
s(Vamisse
g28
tp1917
F1
s(Vtill
g4
tp1918
F10
s(VOuid
g10
tp1919
F2
s(g330
g234
tp1920
F14
s(VCouent
g17
tp1921
F1
s(VInuectiue
g10
tp1922
F1
s(Vtalke
g4
tp1923
F3
s(VAxle
g10
tp1924
F1
s(Vwittie
g53
tp1925
F1
s(g234
S'RB'
p1926
tp1927
F34
s(Veye
S'NN'
p1928
tp1929
F4
s(Vwalk
g4
tp1930
F1
s(Vnose
g28
tp1931
F1
s(VShee
g10
tp1932
F6
s(Vwherein
g17
tp1933
F2
s(Vonely
g53
tp1934
F1
s(VInnocent
g10
tp1935
F2
s(Vperswaded
g12
tp1936
F2
s(VSpaniards
g10
tp1937
F1
s(Vsimply
S'RB'
p1938
tp1939
F2
s(Vstepping
g53
tp1940
F1
s(Vcloister
g17
tp1941
F1
s(Vwept
g63
tp1942
F1
s(Vvnto
g63
tp1943
F1
s(Vnow
S'RB'
p1944
tp1945
F18
s(Vyeares
g39
tp1946
F4
s(Vship
g17
tp1947
F2
s(Vchastitie
g17
tp1948
F1
s(Vaboue
g39
tp1949
F1
s(VFryars
g39
tp1950
F1
s(Vbrauerie
g17
tp1951
F1
s(Vscoulded
g12
tp1952
F1
s(g39
g53
tp1953
F15
s(Vcontented
g63
tp1954
F1
s(g56
g53
tp1955
F21
s(Vpeople
S'NNS'
p1956
tp1957
F9
s(Vhold
g4
tp1958
F1
s(g234
g30
tp1959
F5
s(Voffend
g30
tp1960
F2
s(Voft
g28
tp1961
F1
s(Vah
g4
tp1962
F1
s(Voportunitie
g53
tp1963
F1
s(Vlinnen
g28
tp1964
F1
s(Vkinde
g4
tp1965
F2
s(Vwealth
g17
tp1966
F2
s(Vrenenged
g12
tp1967
F1
s(g39
S')'
tp1968
F2
s(Vtooke
g63
tp1969
F17
s(Vlength
g17
tp1970
F1
s(VPierro
g10
tp1971
F4
s(g56
g364
tp1972
F19
s(Vamongst
g4
tp1973
F2
s(Vnew
S'JJ'
p1974
tp1975
F9
s(Vcomes
S'VBZ'
p1976
tp1977
F3
s(Vtake
g30
tp1978
F6
s(Veyed
g63
tp1979
F1
s(Vright
g53
tp1980
F2
s(Vhir
g12
tp1981
F1
s(Vberayed
g53
tp1982
F1
s(Vhooked
g63
tp1983
F1
s(Vserued
g12
tp1984
F1
s(Vpriuie
g17
tp1985
F2
s(Vverse
g17
tp1986
F1
s(Vchild
g17
tp1987
F1
s(Vpriuitie
g17
tp1988
F1
s(Vdaie
g17
tp1989
F3
s(Vabuse
g17
tp1990
F1
s(Vwoone
g28
tp1991
F1
s(Vtels
g37
tp1992
F1
s(S','
g546
tp1993
F175
s(Vpast
g63
tp1994
F2
s(Vchilde
g17
tp1995
F1
s(Vseene
g30
tp1996
F1
s(Vtoe
g17
tp1997
F5
s(S':'
S'MD'
p1998
tp1999
F2
s(VYet
g105
tp2000
F1
s(VIsenbras
g39
tp2001
F1
s(Vyour
g607
tp2002
F51
s(VPartisan
g10
tp2003
F1
s(Vtil
g53
tp2004
F1
s(Vcarried
g12
tp2005
F2
s(VBride
g10
tp2006
F1
s(VButterie
g10
tp2007
F1
s(Vperfection
g17
tp2008
F2
s(Vsuter
g17
tp2009
F1
s(Vlinnen
g17
tp2010
F8
s(Vstept
g63
tp2011
F2
s(Vpitty
g17
tp2012
F1
s(Vhee
g4
tp2013
F9
s(Vslaues
g39
tp2014
F1
s(g37
g76
tp2015
F36
s(V;
S':'
tp2016
F52
s(Vshalt
g63
tp2017
F1
s(Vloue
g755
tp2018
F1
s(Vassoone
g28
tp2019
F3
s(Vconfirming
g56
tp2020
F1
s(Vvttermost
g17
tp2021
F4
s(Vreasons
S'NNS'
p2022
tp2023
F1
s(Vfacit
g17
tp2024
F3
s(Vcraude
g53
tp2025
F1
s(Vshamelesse
g53
tp2026
F2
s(Veuer
g37
tp2027
F2
s(VEuery
g10
tp2028
F1
s(g4
g328
tp2029
F1
s(Vmake
g30
tp2030
F6
s(Vcontinue
g4
tp2031
F1
s(Vtoy
g17
tp2032
F1
s(Vbreech
g17
tp2033
F1
s(Vworlde
g17
tp2034
F2
s(Vscull
g17
tp2035
F7
s(Vset
g4
tp2036
F2
s(Vliue
g30
tp2037
F1
s(Vtormented
g12
tp2038
F1
s(Vbloud
g53
tp2039
F1
s(Vfurther
g28
tp2040
F2
s(VPaphos
g10
tp2041
F1
s(Vdoore
g17
tp2042
F27
s(Vplaid
g17
tp2043
F1
s(Vbuy
g4
tp2044
F1
s(VIs
g37
tp2045
F1
s(Vtraunce
g17
tp2046
F1
s(VGentlewoman
g10
tp2047
F5
s(Vleere
g30
tp2048
F1
s(Vpurpose
g53
tp2049
F2
s(Valas
g37
tp2050
F1
s(Vvnkinde
g53
tp2051
F1
s(Vmoney
S'NN'
p2052
tp2053
F1
s(g112
g1124
tp2054
F1
s(Vebbe
g17
tp2055
F1
s(Vdespight
g17
tp2056
F1
s(Vsparkling
g56
tp2057
F1
s(Vsoule
g37
tp2058
F1
s(Veate
g30
tp2059
F1
s(Vdeedes
g39
tp2060
F1
s(Vbye
g17
tp2061
F1
s(Vdelicates
g39
tp2062
F1
s(S','
g63
tp2063
F91
s(Vgoe
g37
tp2064
F1
s(Vhaue
g37
tp2065
F4
s(g51
g39
tp2066
F4
s(Vbring
g4
tp2067
F6
s(g328
g17
tp2068
F1
s(VChaire
g17
tp2069
F1
s(Vwet
g30
tp2070
F2
s(Val
g4
tp2071
F1
s(Vwert
g17
tp2072
F1
s(Vmake
g17
tp2073
F1
s(g30
S':'
tp2074
F10
s(Vels
g39
tp2075
F1
s(Vverie
g53
tp2076
F3
s(Vthanckt
g63
tp2077
F1
s(Vwith
g447
tp2078
F270
s(VPriors
g127
tp2079
F5
s(Vdiseased
g63
tp2080
F1
s(VErgo
g10
tp2081
F1
s(Vhow
g291
tp2082
F42
s(Vworship
g17
tp2083
F2
s(Vswadling
g56
tp2084
F1
s(Vthinke
g4
tp2085
F7
s(Vtermes
g39
tp2086
F1
s(Vforty
g17
tp2087
F1
s(Vlooke
g30
tp2088
F1
s(Vran
g63
tp2089
F6
s(Vsonne
g30
tp2090
F1
s(Vtales
g39
tp2091
F9
s(Vbring
g56
tp2092
F1
s(VSo
g28
tp2093
F6
s(Vcold
g17
tp2094
F5
s(Vperhaps
S'RB'
p2095
tp2096
F5
s(g30
g452
tp2097
F16
s(Vvnto
g17
tp2098
F4
s(Vsuspitious
g53
tp2099
F4
s(Vstrokes
g39
tp2100
F1
s(g81
g97
tp2101
F2
s(Vamazed
g12
tp2102
F1
s(VPoets
g10
tp2103
F1
s(g56
g330
tp2104
F8
s(Vrifeled
g12
tp2105
F1
s(Vwatcht
g17
tp2106
F1
s(Vvnlesse
g17
tp2107
F2
s(Vmouthed
g12
tp2108
F1
s(Vnoting
g56
tp2109
F1
s(g10
g73
tp2110
F27
s(Vhalfe
g12
tp2111
F1
s(Vseason
S'NN'
p2112
tp2113
F1
s(Vknowledge
g17
tp2114
F1
s(Vhowe
g4
tp2115
F1
s(VHostes
g127
tp2116
F1
s(g30
g100
tp2117
F2
s(Vbone
g17
tp2118
F1
s(Vtortures
g39
tp2119
F2
s(Vnothing
g444
tp2120
F18
s(VIxion
g10
tp2121
F1
s(Vwere
g305
tp2122
F96
s(VDowrie
g10
tp2123
F1
s(Vcompany
S'NN'
p2124
tp2125
F10
s(Vbest
g152
tp2126
F6
s(Vmatter
g17
tp2127
F17
s(g605
g309
tp2128
F8
s(Vfound
g63
tp2129
F21
s(Vhood
g17
tp2130
F1
s(Voportunitie
g17
tp2131
F1
s(Voh
g664
tp2132
F1
s(Vparamour
g17
tp2133
F2
s(Vwham
g17
tp2134
F1
s(Vblind
g17
tp2135
F1
s(Vput
g4
tp2136
F9
s(Vnoise
g17
tp2137
F2
s(Vspeede
g17
tp2138
F1
s(Vcum
g17
tp2139
F1
s(Vpretie
g53
tp2140
F1
s(g28
g234
tp2141
F166
s(Vword
S'NN'
p2142
tp2143
F2
s(Vpiercing
g56
tp2144
F1
s(Vvaine
g17
tp2145
F5
s(Vswincked
g63
tp2146
F1
s(g53
g175
tp2147
F1
s(Vcharily
g28
tp2148
F1
s(Vhe
g593
tp2149
F377
s(Vselfe
g63
tp2150
F1
s(Vhumble
g53
tp2151
F2
s(Vstand
g17
tp2152
F1
s(g141
g1124
tp2153
F7
s(Vvp
g63
tp2154
F2
s(Vhir
g20
tp2155
F1
s(VAwdreys
g10
tp2156
F1
s(g187
g491
tp2157
F26
s(VAmandi
g10
tp2158
F1
s(Vparentage
g17
tp2159
F1
s(VQuem
g10
tp2160
F3
s(Vthankt
g17
tp2161
F1
s(VAmongst
g4
tp2162
F1
s(Vwee
g63
tp2163
F1
s(Vvnkind
g17
tp2164
F1
s(Vaie
g17
tp2165
F1
s(VRichard
g1011
tp2166
F1
s(Vwall
g17
tp2167
F3
s(Vmanifest
g152
tp2168
F1
s(Vbrought
g17
tp2169
F1
s(Vslip
g4
tp2170
F1
s(VParliament
g10
tp2171
F3
s(Vcut
g17
tp2172
F1
s(S','
g328
tp2173
F14
s(Vdaily
g53
tp2174
F1
s(Vreturn
g17
tp2175
F1
s(Vmaking
g56
tp2176
F2
s(Vtolde
g63
tp2177
F2
s(Vlin
g17
tp2178
F1
s(Vnight-cap
g53
tp2179
F1
s(Vpleasure
g4
tp2180
F1
s(Vchaste
g17
tp2181
F1
s(VFie
g10
tp2182
F1
s(Vput
g63
tp2183
F4
s(Vlay
g53
tp2184
F3
s(Vsetting
g56
tp2185
F2
s(Vmercie
g17
tp2186
F1
s(Vpersuasion
g17
tp2187
F1
s(Vcould
S'MD'
p2188
tp2189
F48
s(g4
g418
tp2190
F182
s(Vgasers
g37
tp2191
F1
s(Vteats
g39
tp2192
F1
s(Vhir
g39
tp2193
F5
s(Vfallen
g12
tp2194
F2
s(Vsoone
g28
tp2195
F1
s(Vfelt
g63
tp2196
F1
s(Vshiue
g17
tp2197
F1
s(Vthreshould
g17
tp2198
F1
s(Vsatisfied
g63
tp2199
F2
s(Vlaide
g4
tp2200
F1
s(Vbore
g63
tp2201
F2
s(Vblush
g4
tp2202
F1
s(Vdwelled
g12
tp2203
F1
s(Vnone
g17
tp2204
F14
s(VLords
g39
tp2205
F2
s(Vthong
g17
tp2206
F1
s(VIocund
g10
tp2207
F1
s(Vthankt
g234
tp2208
F1
s(Vsumptuous
g53
tp2209
F1
s(Vcurtens
g39
tp2210
F1
s(g56
g97
tp2211
F4
s(Vneighbour
g53
tp2212
F1
s(Vleather
g17
tp2213
F2
s(Vnight
S'NN'
p2214
tp2215
F40
s(Vpaltring
g17
tp2216
F1
s(VApple
g10
tp2217
F1
s(g53
g1926
tp2218
F16
s(Vanswer
g17
tp2219
F2
s(Vworld
S'NN'
p2220
tp2221
F6
s(Vaduent
g53
tp2222
F1
s(VGray
g53
tp2223
F1
s(Vwily
g28
tp2224
F1
s(Vsharpe
g17
tp2225
F1
s(Vfoolish
g53
tp2226
F1
s(Vthrong
g17
tp2227
F1
s(Vdooings
g39
tp2228
F1
s(Vspeake
g17
tp2229
F2
s(g39
S','
tp2230
F178
s(Vbridegrome
g17
tp2231
F1
s(Vwash
g53
tp2232
F1
s(VVermilion
g17
tp2233
F1
s(Vouersight
g17
tp2234
F1
s(VWiues
g10
tp2235
F1
s(Vindure
g17
tp2236
F1
s(Vtree
g17
tp2237
F5
s(Vofte
g53
tp2238
F1
s(g234
g515
tp2239
F1
s(Vhastilie
g53
tp2240
F1
s(Vfoole
g53
tp2241
F1
s(Vshoulde
g39
tp2242
F2
s(VCuckowe
g10
tp2243
F2
s(Vthroughout
S'IN'
p2244
tp2245
F2
s(g425
S'.'
tp2246
F3
s(VIn
g234
tp2247
F14
s(Veare
g17
tp2248
F2
s(Vinquire
g4
tp2249
F3
s(Vtalke
g17
tp2250
F5
s(Vcaried
g12
tp2251
F1
s(Vdelighted
g63
tp2252
F1
s(Vcassocke
g17
tp2253
F1
s(Vlasciuious
g53
tp2254
F1
s(Vbred
g63
tp2255
F1
s(g1370
g56
tp2256
F7
s(Vradiant
g17
tp2257
F1
s(Vtheir
S'PRP$'
p2258
tp2259
F82
s(VM.
S'NNP'
p2260
tp2261
F3
s(Vsweat
g17
tp2262
F1
s(Vfauoures
g39
tp2263
F1
s(VAble
g53
tp2264
F1
s(VNegromancy
g17
tp2265
F1
s(VOratours
g10
tp2266
F1
s(Vdiscouered
g12
tp2267
F1
s(Vgentleme
g17
tp2268
F1
s(Vheresie
g17
tp2269
F1
s(Vtale
g17
tp2270
F17
s(g105
g1400
tp2271
F172
s(VGods
g10
tp2272
F3
s(Vindeede
g30
tp2273
F2
s(Vbefallen
g12
tp2274
F1
s(Vvice
S'NN'
p2275
tp2276
F1
s(Vthere
g28
tp2277
F49
s(Vremitted
g12
tp2278
F1
s(Vawoke
g63
tp2279
F1
s(Vloose
g4
tp2280
F1
s(Veates
g37
tp2281
F1
s(Vfeede
g4
tp2282
F2
s(Vfier
g17
tp2283
F8
s(Vearly
g28
tp2284
F2
s(Vgiue
g53
tp2285
F1
s(Vawry
g17
tp2286
F1
s(VToule
g10
tp2287
F1
s(Vsilence
g17
tp2288
F4
s(Vclapt
g63
tp2289
F1
s(Vlothsome
g17
tp2290
F1
s(Vlesson
g53
tp2291
F1
s(Vstuffe
g17
tp2292
F2
s(Vyours
g39
tp2293
F1
s(Vwote
g30
tp2294
F1
s(Vstir
g4
tp2295
F1
s(Vby
S'IN'
p2296
tp2297
F111
s(Vteltale
g17
tp2298
F1
s(VNow
S'RB'
p2299
tp2300
F3
s(Vcried
g63
tp2301
F6
s(Vwholy
g37
tp2302
F1
s(Vfoole
g17
tp2303
F11
s(Vmanner
g17
tp2304
F5
s(Vhonestest
g152
tp2305
F1
s(Voh
g53
tp2306
F1
s(Vpublish
g53
tp2307
F1
s(Vsupposing
g56
tp2308
F2
s(g187
g81
tp2309
F3
s(Vdight
g12
tp2310
F1
s(Vleg
g17
tp2311
F1
s(Vwelcomed
g63
tp2312
F1
s(Vher
g546
tp2313
F7
s(VFeare
g10
tp2314
F1
s(VSmithy
g10
tp2315
F1
s(Vheauy
g53
tp2316
F2
s(Vidle
g53
tp2317
F3
s(VShoppe
g17
tp2318
F1
s(Vmiller
g17
tp2319
F1
s(Vplotte
g17
tp2320
F1
s(g10
g309
tp2321
F4
s(Vwhereupon
g91
tp2322
F1
s(Vtorment
g4
tp2323
F1
s(g56
g965
tp2324
F79
s(Vmens
g39
tp2325
F5
s(Vfaire
g4
tp2326
F2
s(g10
g642
tp2327
F1
s(VThat
g81
tp2328
F1
s(g17
S'('
tp2329
F14
s(Vfaith
g53
tp2330
F1
s(Vprofession
g17
tp2331
F2
s(g30
g546
tp2332
F74
s(Vfast
g30
tp2333
F1
s(Vnowe
g53
tp2334
F1
s(Vstaide
g63
tp2335
F1
s(Vissue
g17
tp2336
F2
s(Vsquire
g17
tp2337
F1
s(Vsleightes
g37
tp2338
F1
s(g30
g30
tp2339
F3
s(g755
g452
tp2340
F2
s(Vfind
g4
tp2341
F3
s(VAh
g10
tp2342
F1
s(Vharke
g4
tp2343
F1
s(Vcotented
g63
tp2344
F1
s(g305
g127
tp2345
F1
s(Vadooe
g12
tp2346
F1
s(Vgentleman
g17
tp2347
F9
s(VMercurie
g10
tp2348
F1
s(Vcheerful
g53
tp2349
F1
s(g53
S'('
tp2350
F1
s(Vwhe
g17
tp2351
F2
s(VRoode
g10
tp2352
F1
s(Vbooth
g17
tp2353
F1
s(g328
g63
tp2354
F18
s(Vpetticote
g17
tp2355
F1
s(Vcharged
g63
tp2356
F1
s(Vlims
g39
tp2357
F1
s(Vembracst
g37
tp2358
F1
s(Vwhom
g1157
tp2359
F10
s(Vfast
g28
tp2360
F6
s(Vboyes
g39
tp2361
F1
s(Vvnder
g17
tp2362
F7
s(VWherein
g10
tp2363
F1
s(Vgame
S'NN'
p2364
tp2365
F3
s(Vthus
g1926
tp2366
F49
s(Vtragedy
g17
tp2367
F1
s(Vhis
g364
tp2368
F433
s(Vconceites
g39
tp2369
F2
s(Vworldly
g28
tp2370
F1
s(Vmickle
g28
tp2371
F1
s(Vbestowed
g63
tp2372
F2
s(g51
g17
tp2373
F4
s(Vis
g47
tp2374
F119
s(g47
g328
tp2375
F1
s(Vcunning
g17
tp2376
F1
s(Vhusbads
g39
tp2377
F1
s(Vyeeld
g53
tp2378
F1
s(Vstaid
g63
tp2379
F1
s(Viar
g17
tp2380
F1
s(Vhowe
g28
tp2381
F1
s(Vforsake
g4
tp2382
F1
s(VL.
S'NNP'
p2383
tp2384
F1
s(Vshop
g17
tp2385
F8
s(Vincreaseth
g17
tp2386
F1
s(Vdelt
g12
tp2387
F1
s(Velse
g28
tp2388
F3
s(g10
g56
tp2389
F37
s(Vsweeping
g17
tp2390
F1
s(Vwept
g17
tp2391
F3
s(Vdrinke
g30
tp2392
F1
s(Vstake
S'NN'
p2393
tp2394
F5
s(Vminute
g17
tp2395
F1
s(Vhanging
g56
tp2396
F1
s(Vdammage
g17
tp2397
F1
s(Vwhet
g4
tp2398
F1
s(Vcarelesse
g53
tp2399
F1
s(Vwherfore
g17
tp2400
F1
s(Voff
g330
tp2401
F10
s(Vlookes
g39
tp2402
F2
s(Vfair
g53
tp2403
F1
s(Vnaye
g17
tp2404
F1
s(Veie
g17
tp2405
F8
s(Vlasht
g4
tp2406
F1
s(Vthinke
g28
tp2407
F2
s(Vstands
g37
tp2408
F1
s(Vparentes
g39
tp2409
F1
s(g91
g30
tp2410
F2
s(Vrecourse
g17
tp2411
F1
s(g97
g1370
tp2412
F4
s(Vsaying
g17
tp2413
F1
s(Vbrused
g12
tp2414
F1
s(Valas
g105
tp2415
F1
s(g141
g452
tp2416
F7
s(Veuerie
g17
tp2417
F1
s(Vseauen
g17
tp2418
F1
s(Vweathercocke
g17
tp2419
F1
s(Vchinke
g17
tp2420
F1
s(g91
g73
tp2421
F11
s(g605
g63
tp2422
F522
s(Vperceiued
g12
tp2423
F3
s(Vwild
g63
tp2424
F1
s(Vwhome
g30
tp2425
F1
s(g270
g425
tp2426
F6
s(S'PRP'
p2427
g10
tp2428
F4
s(VRing
g56
tp2429
F1
s(VTherefore
g17
tp2430
F1
s(VLogick
g10
tp2431
F1
s(Vfellow
g53
tp2432
F1
s(Vtrustie
g17
tp2433
F1
s(Vleaned
g63
tp2434
F1
s(Vhonest
g152
tp2435
F4
s(Vvp
g17
tp2436
F29
s(Vhir
g17
tp2437
F169
s(Vdunstable
g53
tp2438
F1
s(g63
g755
tp2439
F1
s(Vaboue
g53
tp2440
F1
s(Venterprise
g17
tp2441
F1
s(Vposse
g17
tp2442
F1
s(Vhetherto
g17
tp2443
F1
s(g816
S'.'
tp2444
F2
s(Vthrumbe
g17
tp2445
F1
s(Vchaunce
g30
tp2446
F1
s(Vobscure
g17
tp2447
F1
s(Vtogether
g28
tp2448
F18
s(Vtell
g17
tp2449
F2
s(g81
g418
tp2450
F2
s(Valewiues
g39
tp2451
F1
s(Vproper
g17
tp2452
F2
s(Vverie
g17
tp2453
F7
s(VTunyse
g10
tp2454
F2
s(Vment
g53
tp2455
F1
s(Vwhatsoeuer
g53
tp2456
F1
s(g15
g17
tp2457
F491
s(Vflie
g17
tp2458
F1
s(Vreturned
g12
tp2459
F1
s(g234
g97
tp2460
F4
s(Vincessant
g53
tp2461
F1
s(Vsmiling
g56
tp2462
F1
s(Vcorrecting
g17
tp2463
F1
s(Vbrittle
g53
tp2464
F2
s(g270
g4
tp2465
F68
s(Vfetch
g4
tp2466
F5
s(Vsmall
S'JJ'
p2467
tp2468
F1
s(VChryseis
g10
tp2469
F1
s(Vshoulde
g30
tp2470
F1
s(g328
g141
tp2471
F3
s(Vdanger
g17
tp2472
F1
s(Vfrom
g14
tp2473
F40
s(Vdesire
g4
tp2474
F2
s(Vstaiers
g39
tp2475
F1
s(Vchastly
g28
tp2476
F1
s(Vdwell
g17
tp2477
F1
s(Vsmart
g53
tp2478
F1
s(Vdiscouer
g30
tp2479
F1
s(Vend
g4
tp2480
F3
s(Vwildsome
g53
tp2481
F1
s(g1926
g364
tp2482
F11
s(Vimprinted
g12
tp2483
F1
s(Vcoloure
g17
tp2484
F1
s(Vliue
g28
tp2485
F1
s(Vaffaires
g39
tp2486
F2
s(Vridet
g17
tp2487
F1
s(Vplot
g17
tp2488
F3
s(Vcame
S'VBD'
p2489
tp2490
F60
s(VGraues-end
g10
tp2491
F1
s(g53
g186
tp2492
F6
s(Vshines
g39
tp2493
F1
s(Vraisd
g37
tp2494
F1
s(Voperation
S'NN'
p2495
tp2496
F1
s(VChamberlaine
g17
tp2497
F2
s(Vbloudie
g53
tp2498
F2
s(Vgathered
g12
tp2499
F3
s(Vdarke
g53
tp2500
F1
s(Vlere
g28
tp2501
F1
s(Vscorne
g4
tp2502
F1
s(Vcreede
g17
tp2503
F1
s(Vdismall
g53
tp2504
F1
s(Vgotten
g4
tp2505
F1
s(Vfile
g17
tp2506
F1
s(g97
g10
tp2507
F21
s(Vseuen
g17
tp2508
F1
s(g28
g58
tp2509
F5
s(Vamased
g53
tp2510
F1
s(Vwittes
g39
tp2511
F1
s(Vhead
g30
tp2512
F2
s(S')'
g949
tp2513
F4
s(Vpretty
g28
tp2514
F1
s(Vperchaunce
g17
tp2515
F1
s(Vpolicie
g17
tp2516
F3
s(Vmotion
g17
tp2517
F3
s(VSomner
g10
tp2518
F2
s(VAcquainted
g12
tp2519
F1
s(Vtill
g234
tp2520
F5
s(Vfall
g17
tp2521
F3
s(Vouerreacht
g234
tp2522
F1
s(Vhauing
g17
tp2523
F1
s(g28
g152
tp2524
F2
s(Vaffixed
g63
tp2525
F1
s(g291
g234
tp2526
F11
s(g53
g470
tp2527
F24
s(Vprofited
g53
tp2528
F1
s(Vsaies
g37
tp2529
F1
s(Vbrooke
g4
tp2530
F1
s(Vtrie
g17
tp2531
F1
s(Vsat
g17
tp2532
F1
s(Vseene
g53
tp2533
F1
s(g330
S','
tp2534
F8
s(g10
g1124
tp2535
F2
s(Vsing
g4
tp2536
F1
s(g17
S'.'
tp2537
F211
s(Violly
g53
tp2538
F1
s(Vdeepely
g28
tp2539
F1
s(g309
g53
tp2540
F53
s(g452
g28
tp2541
F1
s(Vpatience
g17
tp2542
F9
s(Vc.
g17
tp2543
F8
s(Vbrethren
g4
tp2544
F1
s(Vsoules
g39
tp2545
F2
s(Vstal
g17
tp2546
F1
s(Vmean
g53
tp2547
F1
s(Vled
g63
tp2548
F2
s(Vfel
g17
tp2549
F3
s(Vread
g12
tp2550
F2
s(Vyt
g10
tp2551
F1
s(Vhell
g4
tp2552
F1
s(Vneedy
g17
tp2553
F1
s(g10
g127
tp2554
F2
s(Vkisses
g39
tp2555
F1
s(Vforefortunat
g37
tp2556
F1
s(Vmeant
g17
tp2557
F2
s(Vfell
S'VBD'
p2558
tp2559
F31
s(Vplacst
g12
tp2560
F1
s(Vslipping
g56
tp2561
F3
s(Vthrewe
g37
tp2562
F1
s(Vstature
g17
tp2563
F1
s(VBillingsgate
g10
tp2564
F1
s(Vrailing
g56
tp2565
F1
s(Vheads
g39
tp2566
F1
s(Vstriue
g17
tp2567
F1
s(VVniuersities
g39
tp2568
F1
s(VNaiades
g10
tp2569
F1
s(S','
S')'
tp2570
F1
s(g2427
g17
tp2571
F23
s(Vslaunder
g17
tp2572
F2
s(Vspied
g63
tp2573
F6
s(Vopenly
g28
tp2574
F1
s(Vgoe
g17
tp2575
F6
s(Vhit
g63
tp2576
F1
s(Vsupt
g30
tp2577
F1
s(Vpresent
g53
tp2578
F5
s(g186
g53
tp2579
F65
s(Vmaide
g4
tp2580
F1
s(Vmeans
g39
tp2581
F2
s(VPeter
S'NNP'
p2582
tp2583
F17
s(Vbeaten
g12
tp2584
F2
s(Vlouingly
g28
tp2585
F2
s(Vthresh
g4
tp2586
F1
s(Vdie
g53
tp2587
F2
s(Vtrust
g17
tp2588
F2
s(Vtolde
g4
tp2589
F4
s(Vknowing
g56
tp2590
F2
s(Vsuspected
g53
tp2591
F1
s(VAbot
g10
tp2592
F1
s(Vmeane
g30
tp2593
F2
s(g17
g10
tp2594
F73
s(Vseruice
g17
tp2595
F1
s(VArtificer
g10
tp2596
F1
s(Vnor
S'CC'
p2597
tp2598
F18
s(Vsweetelie
g17
tp2599
F1
s(Vproperest
g17
tp2600
F1
s(Vsonnes
g39
tp2601
F2
s(Vmade
g12
tp2602
F11
s(Vrage
g17
tp2603
F2
s(Vreply
g17
tp2604
F1
s(Vcares
g37
tp2605
F1
s(Vment
g30
tp2606
F2
s(Vholde
g4
tp2607
F1
s(Vsolemnely
g28
tp2608
F1
s(Vdosen
g53
tp2609
F1
s(Vswore
g28
tp2610
F1
s(Vaccount
g17
tp2611
F1
s(Vnose
g53
tp2612
F1
s(VBeing
g56
tp2613
F2
s(VNone
g17
tp2614
F1
s(Vshrewde
g53
tp2615
F1
s(Vhostell
g17
tp2616
F1
s(Vcommended
g63
tp2617
F3
s(Vsnugly
g28
tp2618
F1
s(Vcomely
g28
tp2619
F1
s(Vneuer
g37
tp2620
F1
s(VCuckold
g10
tp2621
F19
s(Vso
g234
tp2622
F19
s(g10
g63
tp2623
F159
s(Vsat
g30
tp2624
F1
s(Vsaide
g4
tp2625
F2
s(Vwottes
g37
tp2626
F1
s(Vbare
g17
tp2627
F2
s(g305
g39
tp2628
F22
s(VIncontinent
g10
tp2629
F2
s(g63
g309
tp2630
F54
s(Vbe
g186
tp2631
F124
s(Vlawes
g17
tp2632
F1
s(VSocrates
g37
tp2633
F1
s(Vpennance
g17
tp2634
F1
s(Vthanks
g39
tp2635
F2
s(VTowne
g17
tp2636
F1
s(Vloue
g28
tp2637
F1
s(Vbreake
g4
tp2638
F3
s(Vyea
g105
tp2639
F1
s(g1524
S','
tp2640
F32
s(Vbeganne
g37
tp2641
F1
s(Vknewe
g4
tp2642
F1
s(g374
S':'
tp2643
F1
s(VVirgins
g10
tp2644
F1
s(Veaten
g30
tp2645
F1
s(Vgrinde
g4
tp2646
F2
s(Vhard
g28
tp2647
F3
s(g452
g1157
tp2648
F3
s(Vvariable
g53
tp2649
F2
s(Vconfesse
g30
tp2650
F1
s(g56
S')'
tp2651
F1
s(Vface
g17
tp2652
F17
s(VChamberpot
g10
tp2653
F1
s(Vthreescore
g17
tp2654
F2
s(Vspirit
g17
tp2655
F6
s(Vdistinguish
g30
tp2656
F1
s(Vtrie
g4
tp2657
F1
s(Vwooll
g17
tp2658
F1
s(Vdead
g4
tp2659
F1
s(Vhard
g17
tp2660
F1
s(Vreadie
g12
tp2661
F3
s(Vdowne
g330
tp2662
F1
s(Vswath
g4
tp2663
F1
s(Vartificially
g28
tp2664
F1
s(Vgate
g17
tp2665
F3
s(Vgallimaufre
g17
tp2666
F1
s(g81
g1225
tp2667
F10
s(g56
g51
tp2668
F1
s(g37
g105
tp2669
F5
s(Vlodgicke
g17
tp2670
F1
s(Vinwarde
g53
tp2671
F1
s(Vmaid
g17
tp2672
F1
s(Vwarning
g17
tp2673
F2
s(Vall
g28
tp2674
F1
s(Veasilie
g10
tp2675
F1
s(Vcapen
g17
tp2676
F1
s(Vbeing
g1185
tp2677
F32
s(g37
g58
tp2678
F4
s(Vfine
g53
tp2679
F5
s(Vbeat
g63
tp2680
F1
s(g4
g330
tp2681
F17
s(Vreceiued
g63
tp2682
F3
s(Vvp
g53
tp2683
F7
s(Vrepent
g4
tp2684
F1
s(Vdowne
g37
tp2685
F2
s(Vpained
g53
tp2686
F1
s(Vpraised
g63
tp2687
F1
s(g86
g328
tp2688
F1
s(VBell
S'NNP'
p2689
tp2690
F1
s(Vlaught
g63
tp2691
F5
s(VGiuen
g10
tp2692
F1
s(Vtould
g53
tp2693
F1
s(Vlemmon
g17
tp2694
F1
s(Vhir
g755
tp2695
F1
s(g63
g56
tp2696
F24
s(Vouer
g234
tp2697
F2
s(Vcomfort
g17
tp2698
F4
s(VSaterday
g53
tp2699
F1
s(Vmarriage
g4
tp2700
F1
s(Vremained
g63
tp2701
F1
s(Vtake
g17
tp2702
F1
s(Vmaister
g53
tp2703
F1
s(VMethode
g10
tp2704
F1
s(Vpraies
g39
tp2705
F1
s(g425
g291
tp2706
F5
s(g4
g37
tp2707
F1
s(g81
g56
tp2708
F1
s(VUniuersitie
g17
tp2709
F1
s(Vstanding
g56
tp2710
F1
s(S','
g81
tp2711
F42
s(VSummer
g10
tp2712
F2
s(Vhead-peece
g17
tp2713
F1
s(Vinioying
g56
tp2714
F1
s(VSaturnistes
g37
tp2715
F1
s(Vbesmeere
g28
tp2716
F1
s(Vburying
g56
tp2717
F1
s(Vsummers
g39
tp2718
F1
s(Vdoth
g105
tp2719
F1
s(Vdrinke
g17
tp2720
F8
s(Vwrinckles
g39
tp2721
F1
s(VCourser
g10
tp2722
F1
s(Vblowes
g17
tp2723
F4
s(Vhand
S'NN'
p2724
tp2725
F9
s(Vexternall
g17
tp2726
F1
s(Vvs
g53
tp2727
F1
s(Vcurst
g53
tp2728
F1
s(Vlabour
g17
tp2729
F3
s(Vdescription
g17
tp2730
F2
s(Vcradle
g53
tp2731
F1
s(Vawoke
g17
tp2732
F2
s(Vthough
g234
tp2733
F14
s(Vlinnen
g30
tp2734
F1
s(Vmarried
g63
tp2735
F3
s(Vcrabbe
g17
tp2736
F1
s(g30
S','
tp2737
F26
s(Veither
g105
tp2738
F2
s(Vhornes
g39
tp2739
F4
s(VEmptor
g17
tp2740
F1
s(g53
S'JJ'
p2741
tp2742
F63
s(Vtwise
g17
tp2743
F3
s(Vcladding
g56
tp2744
F1
s(Vleane
g28
tp2745
F1
s(Vbut
g454
tp2746
F181
s(VCensorius
g10
tp2747
F1
s(Vflinging
g56
tp2748
F1
s(VAll
g58
tp2749
F1
s(VA
g10
tp2750
F1
s(VLetter
g10
tp2751
F2
s(Vbrethren
g17
tp2752
F1
s(Vnappy
g53
tp2753
F1
s(S','
g1042
tp2754
F74
s(Vfortunes
g39
tp2755
F4
s(Vweake
g53
tp2756
F1
s(VSucklings
g10
tp2757
F1
s(Vshadowed
g63
tp2758
F1
s(VCuckoldes
g10
tp2759
F1
s(g53
g56
tp2760
F8
s(Vdustie
g17
tp2761
F1
s(Vdiuers
g39
tp2762
F4
s(VDame
g10
tp2763
F3
s(Vstept
g30
tp2764
F2
s(Vreuealed
g63
tp2765
F6
s(VSo
g234
tp2766
F1
s(VAt
S'IN'
p2767
tp2768
F24
s(g175
g10
tp2769
F1
s(Vseeing
g17
tp2770
F2
s(Vmost
g175
tp2771
F11
s(Vsauce
g17
tp2772
F1
s(Vgratefullie
g53
tp2773
F1
s(Vleaden
g53
tp2774
F1
s(Vonlie
g4
tp2775
F1
s(Vwelcomd
g30
tp2776
F1
s(Vshortly
g28
tp2777
F1
s(Vnecke
g17
tp2778
F3
s(Vtipled
g12
tp2779
F1
s(Vgoodman
g53
tp2780
F1
s(Vbold
g17
tp2781
F1
s(S','
g187
tp2782
F3
s(Vmaisters
g39
tp2783
F6
s(Vsylence
g17
tp2784
F1
s(Vsore
g28
tp2785
F6
s(VHauen
g10
tp2786
F1
s(Vdiligently
g28
tp2787
F1
s(Vcare
g30
tp2788
F1
s(Voffer
g17
tp2789
F1
s(Vhappen
g4
tp2790
F1
s(Vdescried
g63
tp2791
F1
s(Vkeeping
S'VBG'
p2792
tp2793
F1
s(Vhead
g17
tp2794
F18
s(Vdare
g30
tp2795
F1
s(S','
g10
tp2796
F62
s(Vwithall
g53
tp2797
F1
s(VFaire
g10
tp2798
F1
s(Vpull
g17
tp2799
F1
s(g4
g175
tp2800
F1
s(Vbodies
g39
tp2801
F1
s(Vmarriage
g17
tp2802
F3
s(Vexcuse
g17
tp2803
F3
s(S','
g17
tp2804
F95
s(Vfellow
g17
tp2805
F5
s(VBegan
g10
tp2806
F1
s(Vpepper
g17
tp2807
F1
s(Vpoeticall
g53
tp2808
F1
s(Vfroth
g17
tp2809
F1
s(VSchollers
g10
tp2810
F8
s(Vtawnie
g17
tp2811
F1
s(Vwhole
g53
tp2812
F16
s(VBartolos
g10
tp2813
F1
s(Vworse
g4
tp2814
F1
s(Voffences
g39
tp2815
F1
s(Vcuning
g56
tp2816
F1
s(VSicilians
g127
tp2817
F1
s(Vdeadly
g28
tp2818
F1
s(Vteares
g39
tp2819
F5
s(Vopen
g30
tp2820
F1
s(Vthee
g4
tp2821
F2
s(Vcredulous
g53
tp2822
F1
s(Vsonne
g53
tp2823
F1
s(Vplace
g17
tp2824
F17
s(Vtucked
g12
tp2825
F1
s(Vtrouble
S'NN'
p2826
tp2827
F3
s(Vcaused
g63
tp2828
F1
s(g30
g112
tp2829
F4
s(Vaway
g330
tp2830
F5
s(Vtis
g4
tp2831
F2
s(g17
g39
tp2832
F90
s(Vbore
g28
tp2833
F1
s(VIt
S'PRP'
p2834
tp2835
F3
s(g20
g621
tp2836
F2
s(Vwhensoeuer
g30
tp2837
F1
s(g664
g1998
tp2838
F1
s(g863
g425
tp2839
F32
s(Vloathing
g56
tp2840
F1
s(Vdrunke
g17
tp2841
F3
s(VMariners
g127
tp2842
F1
s(Vdecorum
g17
tp2843
F1
s(Vdemaunding
g56
tp2844
F1
s(Vmeete
g17
tp2845
F1
s(Vwonted
g53
tp2846
F1
s(Vslipt
g4
tp2847
F1
s(Vstraight
g4
tp2848
F2
s(Vdubde
g17
tp2849
F1
s(Vman
g80
tp2850
F54
s(Vhuswife
g17
tp2851
F1
s(Vlittle
g53
tp2852
F10
s(VBefore
g234
tp2853
F2
s(Vsubdue
g53
tp2854
F1
s(Vvse
g17
tp2855
F2
s(Vfables
g39
tp2856
F1
s(Vvnreuenged
g12
tp2857
F1
s(Vwearie
g53
tp2858
F2
s(Vpint
g17
tp2859
F1
s(VCouent
g10
tp2860
F1
s(Vreuenge
g4
tp2861
F3
s(Vparting
g56
tp2862
F1
s(Vfauoured
g53
tp2863
F1
s(Vobeied
g63
tp2864
F1
s(Vsoonest
g30
tp2865
F2
s(Vquick
g53
tp2866
F1
s(Vdogrell
g17
tp2867
F1
s(Veuerie
g63
tp2868
F1
s(Vappeare
g4
tp2869
F2
s(VPrior
g53
tp2870
F2
s(VTush
g17
tp2871
F1
s(Vshal
g63
tp2872
F3
s(Ventred
g63
tp2873
F4
s(g328
g47
tp2874
F7
s(Vbowers
g39
tp2875
F1
s(Vweepe
g4
tp2876
F1
s(Vwantonnesse
g17
tp2877
F1
s(VWhich
g10
tp2878
F1
s(Vshaking
g17
tp2879
F1
s(Vblacke
g53
tp2880
F1
s(Vloude
g17
tp2881
F1
s(Vhowsoeuer
g17
tp2882
F3
s(Vdormatiue
g17
tp2883
F1
s(Vpreiudice
g17
tp2884
F2
s(VAbbot
g10
tp2885
F36
s(g37
g187
tp2886
F2
s(Vcontinuall
g17
tp2887
F1
s(Vdecreed
g12
tp2888
F1
s(Vreadye
g28
tp2889
F1
s(Vgot
g12
tp2890
F1
s(Vdranke
g30
tp2891
F2
s(Vfamous
g53
tp2892
F4
s(Vdealing
g56
tp2893
F1
s(Vfaire
g53
tp2894
F4
s(Vmorrow
g37
tp2895
F1
s(Vreadie
g4
tp2896
F1
s(VDicke
g10
tp2897
F1
s(Vgentlewoma
g53
tp2898
F1
s(Vturnde
g234
tp2899
F1
s(Vfellowe
g17
tp2900
F1
s(Vforsweare
g17
tp2901
F1
s(VPotentate
g10
tp2902
F1
s(Vdoubtful
g53
tp2903
F1
s(VAntick
g10
tp2904
F1
s(Vouer
g546
tp2905
F2
s(Vlowd
g53
tp2906
F1
s(g291
g53
tp2907
F11
s(Vsuffer
g4
tp2908
F7
s(VAristotle
g10
tp2909
F3
s(g51
g53
tp2910
F1
s(Vhee
g17
tp2911
F91
s(Vhandsome
g53
tp2912
F1
s(g1489
g33
tp2913
F176
s(g63
g63
tp2914
F4
s(Vkeene
g53
tp2915
F1
s(Vwisht
g63
tp2916
F3
s(Vvpon
g63
tp2917
F1
s(Vcheekes
g39
tp2918
F3
s(Vselfe
g4
tp2919
F1
s(VTom
g10
tp2920
F9
s(g28
S':'
tp2921
F19
s(Veleuen
g17
tp2922
F1
s(Vgaue
g4
tp2923
F2
s(VVulcan
g53
tp2924
F1
s(Vhir
g4
tp2925
F43
s(Vmooued
g12
tp2926
F1
s(Vsounde
g17
tp2927
F1
s(Vaside
g17
tp2928
F1
s(Varms
g39
tp2929
F1
s(Vwoorst
g17
tp2930
F1
s(Vbury
g17
tp2931
F1
s(Vtaile
g17
tp2932
F1
s(Vkild
g4
tp2933
F2
s(VArts
g37
tp2934
F1
s(VCalisto
g10
tp2935
F1
s(g546
g37
tp2936
F71
s(Vcustome
g17
tp2937
F2
s(S'JJ'
p2938
g97
tp2939
F1
s(VParamour
g10
tp2940
F3
s(Vbetters
g39
tp2941
F2
s(Vweeke
g91
tp2942
F1
s(Vfeast
g28
tp2943
F1
s(Vgoddesse
g17
tp2944
F1
s(Vfurther
g1124
tp2945
F2
s(Vsauour
g17
tp2946
F1
s(Vsympathie
g17
tp2947
F1
s(VHereticke
g10
tp2948
F2
s(Vvertuous
g53
tp2949
F1
s(Vpleasing
g17
tp2950
F1
s(Vawake
g53
tp2951
F1
s(Vchatted
g63
tp2952
F1
s(Vbacke
g4
tp2953
F1
s(Vdeade
g12
tp2954
F1
s(Vturney
g17
tp2955
F1
s(VTunise
g10
tp2956
F7
s(Vaboue
g63
tp2957
F1
s(Vtheres
g37
tp2958
F1
s(Vconcluded
g63
tp2959
F4
s(Vsate
g17
tp2960
F3
s(g28
g17
tp2961
F44
s(Vshee
g63
tp2962
F1
s(Vlaughed
g12
tp2963
F1
s(Vhither
g17
tp2964
F2
s(VDe
g10
tp2965
F1
s(Vrecount
g4
tp2966
F1
s(Vseeke
g30
tp2967
F1
s(Vwhinyard
g17
tp2968
F1
s(Vgan
g39
tp2969
F1
s(Vthoughts
g39
tp2970
F1
s(Vhistories
g39
tp2971
F1
s(VMother
g10
tp2972
F2
s(Vwine
g30
tp2973
F1
s(Vlate
g28
tp2974
F3
s(Vknow
g30
tp2975
F2
s(g81
g37
tp2976
F19
s(Vresorted
g12
tp2977
F1
s(Vcompanions
g39
tp2978
F3
s(Vpilch
g17
tp2979
F1
s(g1400
g593
tp2980
F394
s(Vmeete
g4
tp2981
F1
s(VPhilosophers
g10
tp2982
F1
s(VIest
g10
tp2983
F2
s(Vpoore
g28
tp2984
F2
s(VTheir
g22
tp2985
F1
s(Vhee
g546
tp2986
F2
s(Vil
g17
tp2987
F1
s(Vhowe
g30
tp2988
F3
s(Vasse
g53
tp2989
F1
s(Vclimbe
g53
tp2990
F1
s(Vheauens
g39
tp2991
F2
s(Vsad
g17
tp2992
F2
s(Vcostlie
g17
tp2993
F1
s(Vgaue
g30
tp2994
F2
s(g1124
g1145
tp2995
F8
s(Vshut
g17
tp2996
F1
s(g28
g28
tp2997
F126
s(Vbid
g63
tp2998
F3
s(VWell
g28
tp2999
F10
s(VChurchyard
g10
tp3000
F1
s(Vstranger
g17
tp3001
F3
s(g593
S'('
tp3002
F2
s(VThy
g4
tp3003
F1
s(Vboy
g17
tp3004
F1
s(Vgreefe
g17
tp3005
F3
s(Vwiser
g17
tp3006
F1
s(Vknowen
g53
tp3007
F1
s(Vabuses
g37
tp3008
F1
s(Vdowne
g234
tp3009
F3
s(Vamongst
g63
tp3010
F2
s(g4
g1124
tp3011
F3
s(VBartolo
g10
tp3012
F5
s(g112
g56
tp3013
F56
s(Vshirt
g17
tp3014
F3
s(Vchaunced
g63
tp3015
F2
s(Vburning
g17
tp3016
F1
s(Vfoul
g37
tp3017
F1
s(Vrocke
g17
tp3018
F1
s(Vhonycombe
g17
tp3019
F1
s(Vease
g17
tp3020
F2
s(Vcroked
g12
tp3021
F1
s(Vdaye
g17
tp3022
F1
s(Vpatientlie
g53
tp3023
F1
s(Vmeere
g53
tp3024
F1
s(Vsolemly
g63
tp3025
F1
s(Vwhere
g86
tp3026
F69
s(Vale
g53
tp3027
F2
s(VParlour
g10
tp3028
F1
s(Vhusband
g17
tp3029
F53
s(Vanimi
g28
tp3030
F1
s(Vare
g1370
tp3031
F30
s(Vdepriue
g4
tp3032
F1
s(Vguest
g17
tp3033
F1
s(Vcatch
g4
tp3034
F1
s(Vtriumphes
g39
tp3035
F1
s(Vplay
g17
tp3036
F1
s(g1540
g152
tp3037
F1
s(Vdisseted
g63
tp3038
F1
s(Verected
g12
tp3039
F1
s(VThy
g10
tp3040
F1
s(Vcontentes
g39
tp3041
F1
s(Vwine
g4
tp3042
F1
s(g56
g4
tp3043
F1
s(Vcontinued
g63
tp3044
F5
s(Vtaking
g53
tp3045
F1
s(Vgrowne
g53
tp3046
F1
s(g4
g20
tp3047
F2
s(Vwondring
g56
tp3048
F1
s(Vdoores
g39
tp3049
F3
s(Vrifle
g4
tp3050
F1
s(Vwhatsoeuer
g17
tp3051
F2
s(Vought
g755
tp3052
F1
s(Vmost
g17
tp3053
F1
s(Vgaze
g17
tp3054
F1
s(Vhence
g17
tp3055
F3
s(Vdiuers
g37
tp3056
F1
s(g330
S':'
tp3057
F3
s(Vcommendations
g39
tp3058
F2
s(Vshakt
g30
tp3059
F1
s(S')'
g1899
tp3060
F1
s(Vconcidere
g17
tp3061
F1
s(Vsuspition
g17
tp3062
F8
s(Vchampion
g17
tp3063
F1
s(Vgreat
g271
tp3064
F43
s(Vfast
g53
tp3065
F1
s(Vlept
g63
tp3066
F1
s(Vvp
g234
tp3067
F5
s(VCobler
g10
tp3068
F69
s(Vfruites
g39
tp3069
F1
s(Vdroonkennesse
g17
tp3070
F1
s(Vsinne
g17
tp3071
F1
s(Vbroaths
g39
tp3072
F1
s(Vpriesthood
g17
tp3073
F1
s(Vsecret
g53
tp3074
F2
s(Vstring
g17
tp3075
F9
s(Vtaught
g63
tp3076
F1
s(Vleaue
g17
tp3077
F5
s(Vnowe
g4
tp3078
F1
s(Vprattles
g39
tp3079
F1
s(Vlay
g63
tp3080
F9
s(Vpummell
g17
tp3081
F1
s(Vreuengd
g53
tp3082
F1
s(VKatherine
g10
tp3083
F17
s(Venter
g4
tp3084
F1
s(Vrapt
g17
tp3085
F1
s(Vrunne
g37
tp3086
F1
s(Vfelt
g17
tp3087
F1
s(Vlight
g53
tp3088
F4
s(Vpouerty
g17
tp3089
F1
s(g1225
g56
tp3090
F13
s(Vgiues
g37
tp3091
F1
s(Vskill
g17
tp3092
F1
s(Vsoone
g53
tp3093
F2
s(g1239
g39
tp3094
F2
s(Vart
g330
tp3095
F1
s(Vthreedes
g39
tp3096
F1
s(g12
g607
tp3097
F8
s(Vcleane
g17
tp3098
F7
s(Vcountry
S'NN'
p3099
tp3100
F1
s(Vhungrie
g17
tp3101
F2
s(Vloth
g141
tp3102
F1
s(Vstatie
g17
tp3103
F1
s(Vparetage
g17
tp3104
F1
s(Vvowed
g63
tp3105
F2
s(g22
g2427
tp3106
F1
s(Vwhipt
g17
tp3107
F2
s(Vhope
g4
tp3108
F1
s(g330
g187
tp3109
F1
s(Vson
g17
tp3110
F1
s(Vfellowship
g17
tp3111
F1
s(Vsolitarie
g12
tp3112
F1
s(Vbosome
g17
tp3113
F1
s(Vhusbandes
g39
tp3114
F1
s(Vcudgell
g17
tp3115
F1
s(Vbrieflie
g17
tp3116
F1
s(Vtush
g17
tp3117
F5
s(VGod
g10
tp3118
F10
s(Vmother
g17
tp3119
F33
s(Vliquor
g17
tp3120
F1
s(Vrun
g17
tp3121
F1
s(Vditty
g17
tp3122
F1
s(Vwashing
g56
tp3123
F1
s(Vkept
g12
tp3124
F1
s(Valso
S'RB'
p3125
tp3126
F2
s(Vlies
g37
tp3127
F2
s(Vneeds
g37
tp3128
F1
s(Vpassed
g12
tp3129
F5
s(Vdoth
g20
tp3130
F1
s(Vleaue
g30
tp3131
F1
s(VLechery
g10
tp3132
F3
s(Vtill
g30
tp3133
F3
s(VFridaies
g10
tp3134
F1
s(g30
g58
tp3135
F6
s(Vlaide
g17
tp3136
F2
s(Vregistred
g12
tp3137
F1
s(Vkey
g17
tp3138
F1
s(Vbrought
g12
tp3139
F6
s(VKing
g10
tp3140
F9
s(VPriory
g17
tp3141
F1
s(Vdie
g4
tp3142
F2
s(Vroial
g53
tp3143
F1
s(Vtis
g755
tp3144
F1
s(Vdemaund
g17
tp3145
F1
s(Vyarde
g17
tp3146
F1
s(Vhee
g28
tp3147
F1
s(Vhelpe
g4
tp3148
F1
s(Vloaf
g17
tp3149
F1
s(Vforrowes
g17
tp3150
F1
s(g91
g447
tp3151
F16
s(Vforgiue
g63
tp3152
F1
s(VLether
g10
tp3153
F1
s(Vbring
g30
tp3154
F3
s(Vhumbly
g28
tp3155
F1
s(Vbed
g63
tp3156
F1
s(VMonke
g10
tp3157
F10
s(Vresorting
g56
tp3158
F1
s(Vhad
g63
tp3159
F150
s(Vlearne
g4
tp3160
F2
s(Vstout
g17
tp3161
F2
s(Vpromised
g63
tp3162
F5
s(Vfitted
g12
tp3163
F1
s(Vaside
g28
tp3164
F1
s(VTragedie
g10
tp3165
F1
s(g330
g418
tp3166
F25
s(Vvs
g4
tp3167
F1
s(Vstudied
g12
tp3168
F1
s(Vamorous
g53
tp3169
F6
s(Vauncient
g53
tp3170
F2
s(Vbonnet
g53
tp3171
F1
s(VOares
g39
tp3172
F1
s(Vafterwards
g39
tp3173
F1
s(Vwedded
g63
tp3174
F1
s(VMimus
g10
tp3175
F1
s(Vopened
g63
tp3176
F6
s(g17
g20
tp3177
F1
s(g1519
g39
tp3178
F1
s(VPurgatory
g10
tp3179
F2
s(g2296
g642
tp3180
F1
s(S')'
g37
tp3181
F2
s(Volde
g53
tp3182
F4
s(Vbega
g37
tp3183
F1
s(VPallas
g10
tp3184
F1
s(Vinough
g17
tp3185
F1
s(Vpurpose
g17
tp3186
F4
s(Vaiming
g56
tp3187
F1
s(VPurgatorie
g10
tp3188
F3
s(Vrustling
g56
tp3189
F1
s(Vname
g17
tp3190
F5
s(Vworks
g37
tp3191
F1
s(Vpurgatorio
g17
tp3192
F1
s(Voften
S'RB'
p3193
tp3194
F2
s(VImitating
g10
tp3195
F1
s(Vremembrance
g17
tp3196
F4
s(Vslipt
g12
tp3197
F1
s(Vyore
g17
tp3198
F1
s(Vdeclared
g12
tp3199
F1
s(Vwherefore
g17
tp3200
F3
s(VCaunterburie
g10
tp3201
F8
s(Vplaced
g12
tp3202
F3
s(Vouer
g330
tp3203
F4
s(Vrunning
g56
tp3204
F2
s(Vawakt
g30
tp3205
F1
s(Vhuswiferie
g17
tp3206
F1
s(Vtoucht
g17
tp3207
F2
s(S'EX'
p3208
g452
tp3209
F1
s(VVintners
g10
tp3210
F1
s(VHermia
g10
tp3211
F3
s(g187
g1157
tp3212
F1
s(Vprooued
g63
tp3213
F1
s(Veach
S'DT'
p3214
tp3215
F5
s(Vassoone
g17
tp3216
F7
s(Vwoma
g17
tp3217
F1
s(g30
g328
tp3218
F2
s(Vgoes
S'VBZ'
p3219
tp3220
F3
s(Vdoone
g28
tp3221
F2
s(Vthrise
g17
tp3222
F2
s(Vsort
g17
tp3223
F1
s(g81
S'NN'
p3224
tp3225
F6
s(Vweak
S'JJ'
p3226
tp3227
F1
s(Vmerrie
g4
tp3228
F1
s(Vcharme
g17
tp3229
F3
s(Vyt
g39
tp3230
F2
s(g56
g39
tp3231
F11
s(Vsecretly
g28
tp3232
F2
s(Vdeerly
g28
tp3233
F1
s(Vsighing
g17
tp3234
F1
s(Vstanding
g17
tp3235
F2
s(VCountry
g10
tp3236
F6
s(g12
g546
tp3237
F14
s(VGarde
g10
tp3238
F3
s(Vwore
g63
tp3239
F1
s(VIle
g10
tp3240
F1
s(Viniurie
g37
tp3241
F1
s(Vlie
g17
tp3242
F2
s(Vlisten
g4
tp3243
F1
s(Vfained
g63
tp3244
F2
s(Vseemed
g63
tp3245
F3
s(Vvppon
g234
tp3246
F2
s(VAngels
g127
tp3247
F2
s(Vverses
g39
tp3248
F6
s(VAurea
g10
tp3249
F1
s(S')'
g418
tp3250
F5
s(VSyr
g10
tp3251
F2
s(Vspending
g56
tp3252
F1
s(Vbesturre
g4
tp3253
F1
s(Veuer
g53
tp3254
F4
s(Vlaugh
g152
tp3255
F1
s(Vscambled
g63
tp3256
F1
s(Vdoubt
g17
tp3257
F2
s(Vexceptions
g39
tp3258
F1
s(Vage
S'NN'
p3259
tp3260
F2
s(Vreuerence
g17
tp3261
F2
s(Vneuer
g755
tp3262
F1
s(Vlet
g63
tp3263
F2
s(Vfreend
g17
tp3264
F3
s(Vborne
g17
tp3265
F1
s(Vmore
g1124
tp3266
F23
s(Vcondiscended
g63
tp3267
F1
s(Vperformed
g63
tp3268
F2
s(Vwoulden
g53
tp3269
F1
s(g51
g234
tp3270
F10
s(Vmarrieth
g37
tp3271
F1
s(Vgolde
g17
tp3272
F1
s(Vdissemble
g4
tp3273
F1
s(Vbretheren
g17
tp3274
F1
s(S','
g4
tp3275
F38
s(Vfostereth
g37
tp3276
F1
s(g30
g81
tp3277
F1
s(Vpartes
g39
tp3278
F1
s(Vfedde
g4
tp3279
F1
s(Vgentlemanlike
g17
tp3280
F1
s(Veuer
g20
tp3281
F1
s(g28
g605
tp3282
F79
s(Vplagust
g17
tp3283
F1
s(Vcloth
g17
tp3284
F3
s(Vfools
g39
tp3285
F1
s(g291
g4
tp3286
F3
s(g2938
g546
tp3287
F38
s(Vwould
g446
tp3288
F59
s(Vinryching
g56
tp3289
F1
s(VSisiphus
g10
tp3290
F1
s(Vperswaded
g63
tp3291
F3
s(Vexclaime
g4
tp3292
F1
s(Vwhiles
g37
tp3293
F3
s(Vdrawing
g56
tp3294
F2
s(VFaith
g10
tp3295
F1
s(Vquieting
g17
tp3296
F1
s(Vconiectures
g39
tp3297
F1
s(Vfarre
g17
tp3298
F1
s(Vopen
g53
tp3299
F8
s(Vwhim
g17
tp3300
F1
s(Vthird
g53
tp3301
F2
s(Vloues
g37
tp3302
F2
s(Vmanie
g17
tp3303
F1
s(S':'
g1180
tp3304
F51
s(VLegenda
g10
tp3305
F1
s(Vvniuersitie
g17
tp3306
F2
s(Vyoongmen
g30
tp3307
F1
s(Venemies
g39
tp3308
F2
s(Vdescribe
g4
tp3309
F2
s(Vtitle
g17
tp3310
F1
s(Vfemal
g53
tp3311
F1
s(Vrightly
g28
tp3312
F1
s(VShop
g10
tp3313
F1
s(VCuckolde
g10
tp3314
F7
s(Vquoth
g105
tp3315
F42
s(g12
g418
tp3316
F29
s(Vneuer
g4
tp3317
F4
s(Vwot
g30
tp3318
F1
s(Vearnestlie
g30
tp3319
F1
s(Vletters
S'NNS'
p3320
tp3321
F5
s(VGrecia
g10
tp3322
F1
s(g2244
g58
tp3323
F25
s(Vserued
g63
tp3324
F1
s(Vcome
g4
tp3325
F27
s(Vskild
g17
tp3326
F1
s(Vprior
g53
tp3327
F1
s(Vcotrary
g53
tp3328
F1
s(Ventertaine
g53
tp3329
F1
s(Va
g73
tp3330
F544
s(Vsleepie
g12
tp3331
F1
s(Vcurteouslie
g17
tp3332
F1
s(Vmist
g4
tp3333
F1
s(Viest
g17
tp3334
F2
s(g330
g112
tp3335
F3
s(Veating
g56
tp3336
F1
s(Vbee
g17
tp3337
F3
s(Vdeath
S'NN'
p3338
tp3339
F5
s(VCuckhold
g10
tp3340
F1
s(Veuery
g28
tp3341
F7
s(g291
g37
tp3342
F3
s(Vwilbe
g28
tp3343
F1
s(VAs
g28
tp3344
F3
s(Vthem
g2427
tp3345
F89
s(Vfriendes
g39
tp3346
F4
s(Vpreparing
g56
tp3347
F1
s(Vskin
g10
tp3348
F1
s(Vfull
g2741
tp3349
F14
s(Vmad
g53
tp3350
F2
s(Vauoid
g4
tp3351
F2
s(Vinward
g53
tp3352
F4
s(Vbeen
S'VBN'
p3353
tp3354
F1
s(VPearle
g10
tp3355
F1
s(Vcontemplate
g4
tp3356
F1
s(Vinfamie
g17
tp3357
F2
s(Vtell
g4
tp3358
F12
s(VFarewell
g17
tp3359
F1
s(Vbagge
g17
tp3360
F1
s(Vwelking
g17
tp3361
F1
s(Vlash
g17
tp3362
F2
s(Vfoorth
g17
tp3363
F2
s(Vobay
g4
tp3364
F1
s(Vshewed
g63
tp3365
F3
s(Vpast
g12
tp3366
F1
s(Vrestored
g12
tp3367
F1
s(Vmarke
g4
tp3368
F1
s(Valmost
S'RB'
p3369
tp3370
F18
s(Vyere
g28
tp3371
F1
s(g81
g63
tp3372
F47
s(Vdiscouer
g4
tp3373
F1
s(Vbusinesse
g234
tp3374
F1
s(Vbeate
g4
tp3375
F2
s(Vdaies
g39
tp3376
F4
s(VCaute
g10
tp3377
F1
s(Vspirite
g17
tp3378
F3
s(Vcountrie
g17
tp3379
F3
s(VAudrey
g10
tp3380
F3
s(Vthirdingdeal
g37
tp3381
F1
s(Vstorie
g17
tp3382
F1
s(VLonger
g51
tp3383
F1
s(Vfields
g39
tp3384
F1
s(VDutchmen
g10
tp3385
F1
s(Vsignior
g53
tp3386
F3
s(Vmisfortune
g17
tp3387
F2
s(g112
g152
tp3388
F4
s(g1124
g1370
tp3389
F1
s(Vstuffed
g17
tp3390
F1
s(VPhoebus
g10
tp3391
F1
s(Vparted
g12
tp3392
F1
s(Vwitnesse
g4
tp3393
F1
s(g1370
g28
tp3394
F50
s(Vlaughter
g17
tp3395
F4
s(Vpraisd
g30
tp3396
F1
s(Vcalde
g4
tp3397
F1
s(g141
g949
tp3398
F29
s(Vimitated
g12
tp3399
F1
s(Vmor
g53
tp3400
F1
s(Vthoughtes
g39
tp3401
F1
s(Vbeating
g17
tp3402
F2
s(Vheare
g17
tp3403
F1
s(Vheere
g12
tp3404
F1
s(Vforsooth
g30
tp3405
F1
s(g447
g309
tp3406
F339
s(Vpriuy
g17
tp3407
F1
s(VPalermo
g10
tp3408
F4
s(Vperpetuall
g53
tp3409
F1
s(Vpast
g234
tp3410
F2
s(g187
S'NN'
p3411
tp3412
F17
s(Vdiscredited
g12
tp3413
F1
s(Vblest
g152
tp3414
F1
s(VTarlton
g10
tp3415
F3
s(S'CD'
p3416
S','
tp3417
F3
s(Vanswered
g63
tp3418
F3
s(Vruby
g17
tp3419
F1
s(Vyesterday
S'NN'
p3420
tp3421
F2
s(Vblessed
g63
tp3422
F1
s(Vfortnight
g17
tp3423
F1
s(Vprouides
g37
tp3424
F1
s(Vfriendes
g37
tp3425
F1
s(g593
g81
tp3426
F4
s(Vinterteined
g63
tp3427
F1
s(Vpittie
g4
tp3428
F1
s(Vpractise
g17
tp3429
F3
s(Vswaine
g17
tp3430
F1
s(S'NNP'
p3431
g452
tp3432
F22
s(Vbeganne
g17
tp3433
F2
s(Vcittie
g17
tp3434
F3
s(Vknauish
g30
tp3435
F1
s(Vshifts
g39
tp3436
F1
s(Vfortie
g53
tp3437
F1
s(g364
g28
tp3438
F2
s(Vbed
g4
tp3439
F2
s(VAdmiral
g10
tp3440
F6
s(g4
g51
tp3441
F5
s(Vwhe
g4
tp3442
F1
s(Vfamished
g12
tp3443
F1
s(Vwherevpon
g17
tp3444
F4
s(Vconditions
S'NNS'
p3445
tp3446
F3
s(Vcaptaine
g17
tp3447
F1
s(Vflatte
g17
tp3448
F1
s(Vsetled
g63
tp3449
F1
s(Vyong
g53
tp3450
F4
s(Vcommaundement
g17
tp3451
F1
s(Vsixe
g17
tp3452
F1
s(S','
g39
tp3453
F5
s(Vthanke
g30
tp3454
F1
s(g12
g112
tp3455
F6
s(g664
S','
tp3456
F2
s(Vtaske
g53
tp3457
F1
s(g80
g4
tp3458
F24
s(Vvaliat
g17
tp3459
F1
s(Vtherefore
g234
tp3460
F2
s(Vdudeb
g12
tp3461
F1
s(Vlookt
g30
tp3462
F1
s(Vgiue
g30
tp3463
F1
s(Vclacke
g17
tp3464
F1
s(g127
g17
tp3465
F10
s(Vmee
g39
tp3466
F1
s(g867
g56
tp3467
F27
s(Vblacke
g17
tp3468
F3
s(VMutinie
g10
tp3469
F1
s(Vsorie
g53
tp3470
F1
s(Vsooner
g4
tp3471
F1
s(Vgraue
g53
tp3472
F1
s(Vsteede
g17
tp3473
F1
s(Vclock
g17
tp3474
F3
s(Vgiftes
g39
tp3475
F1
s(Vcomforted
g63
tp3476
F2
s(VLilies
g10
tp3477
F1
s(Vsame
S'JJ'
p3478
tp3479
F2
s(Vdeuouring
g56
tp3480
F1
s(Vtolde
g17
tp3481
F3
s(Vforge
g17
tp3482
F1
s(g39
g949
tp3483
F118
s(VMistres
g10
tp3484
F1
s(Vcomparison
g17
tp3485
F1
s(Vfurtherance
g17
tp3486
F1
s(Vweeping
g17
tp3487
F2
s(Vresidence
g17
tp3488
F1
s(Vrushing
g56
tp3489
F1
s(Vwil
g17
tp3490
F3
s(Vsees
g39
tp3491
F1
s(Vaskt
g28
tp3492
F1
s(Vfall
g4
tp3493
F3
s(Vsterued
g12
tp3494
F1
s(Vwench
g17
tp3495
F13
s(VIdea
g10
tp3496
F1
s(Vthee
g39
tp3497
F1
s(Vmatters
g39
tp3498
F2
s(Vclean
g53
tp3499
F1
s(g86
S','
tp3500
F1
s(Vdoo
g53
tp3501
F3
s(Vyt
g4
tp3502
F1
s(Vintreating
g56
tp3503
F1
s(Vonelye
g234
tp3504
F1
s(Vhard
g63
tp3505
F1
s(VAlthough
S'IN'
p3506
tp3507
F1
s(Vquoth
g30
tp3508
F5
s(Vtake
g4
tp3509
F12
s(Vruminate
g17
tp3510
F1
s(Vlast
g2938
tp3511
F41
s(Vquelque
g17
tp3512
F1
s(Vamongest
g4
tp3513
F1
s(Valthough
S'IN'
p3514
tp3515
F8
s(VCaunterbury
g17
tp3516
F1
s(Vafoord
g4
tp3517
F1
s(Vhauen
g17
tp3518
F1
s(Vearlie
g28
tp3519
F1
s(Vfriend
g17
tp3520
F8
s(S':'
g642
tp3521
F2
s(Vskin
g17
tp3522
F1
s(Vwhores
g39
tp3523
F2
s(Vdetermined
g12
tp3524
F1
s(Vamended
g12
tp3525
F1
s(Vwool
g17
tp3526
F1
s(g63
g330
tp3527
F19
s(Vstepping
g56
tp3528
F2
s(Vput
g12
tp3529
F1
s(VMasters
g10
tp3530
F1
s(Vrid
g53
tp3531
F1
s(Vfiue
g17
tp3532
F1
s(Vtoo
S'RB'
p3533
tp3534
F10
s(Vknees
g39
tp3535
F2
s(g39
g1519
tp3536
F1
s(Vthankt
g30
tp3537
F1
s(VKinges
g10
tp3538
F1
s(VLouers
g39
tp3539
F6
s(Vtawny
g17
tp3540
F1
s(g112
g17
tp3541
F167
s(Vhaue
g53
tp3542
F1
s(Vflie
g30
tp3543
F1
s(Vdark
g53
tp3544
F1
s(Vout
g330
tp3545
F38
s(Vskippe
g4
tp3546
F1
s(g63
g91
tp3547
F2
s(Vwished
g63
tp3548
F2
s(Vholines
g39
tp3549
F1
s(Vcraftilie
g17
tp3550
F1
s(Vbegan
S'VBD'
p3551
tp3552
F34
s(VCuckold
g17
tp3553
F1
s(VAsse
g10
tp3554
F3
s(Vpleasd
g17
tp3555
F1
s(VVsurers
g39
tp3556
F1
s(Vgirle
g17
tp3557
F1
s(Vsafe
g17
tp3558
F1
s(Vthou
g12
tp3559
F1
s(Von
g249
tp3560
F76
s(Vhear
g4
tp3561
F1
s(Vdelight
g53
tp3562
F1
s(Vmockt
g53
tp3563
F1
s(Vgratefully
g28
tp3564
F2
s(Vbruised
g12
tp3565
F1
s(Vconceiue
g4
tp3566
F1
s(Vdrencht
g12
tp3567
F1
s(g305
g51
tp3568
F3
s(Vstarres
g39
tp3569
F1
s(Vhimselfe
g53
tp3570
F1
s(VCourting
g10
tp3571
F1
s(Vend
g17
tp3572
F7
s(Vagreed
g63
tp3573
F9
s(VBee
g10
tp3574
F1
s(Vconiured
g53
tp3575
F1
s(g53
g10
tp3576
F72
s(Vwhore
g17
tp3577
F2
s(Vshewes
g37
tp3578
F1
s(Vfootcloth
g17
tp3579
F1
s(Vliue
g4
tp3580
F3
s(g37
g63
tp3581
F2
s(Vpig
g17
tp3582
F1
s(Vindeuour
g17
tp3583
F1
s(g39
g12
tp3584
F11
s(Vpelt
g17
tp3585
F1
s(g97
g58
tp3586
F1
s(Voccupation
g17
tp3587
F1
s(Vpleasing
g56
tp3588
F1
s(Vconceits
g39
tp3589
F1
s(Vtorment
g17
tp3590
F1
s(VTombe
g17
tp3591
F1
s(Vswinking
g56
tp3592
F1
s(Vpacket
g17
tp3593
F2
s(Vdowne
g4
tp3594
F7
s(Vfairest
g152
tp3595
F2
s(Vhide
g4
tp3596
F2
s(Vget
g17
tp3597
F1
s(Vreply
g4
tp3598
F1
s(Vthinks
g37
tp3599
F1
s(Vcaried
g63
tp3600
F2
s(g63
g187
tp3601
F8
s(Vfalne
g28
tp3602
F1
s(Veloquence
g17
tp3603
F1
s(Vstandish
g53
tp3604
F1
s(Valong
g28
tp3605
F1
s(Vdeparture
g17
tp3606
F2
s(Vhurt
g17
tp3607
F1
s(VSpaine
g10
tp3608
F2
s(g81
g1400
tp3609
F6
s(Vheauie
g17
tp3610
F1
s(Vsculs
g17
tp3611
F2
s(Vlike
g234
tp3612
F34
s(VIesus
g10
tp3613
F1
s(Vmesse
g17
tp3614
F4
s(Vsaide
g28
tp3615
F1
s(Vsorts
g39
tp3616
F2
s(Vhir
g53
tp3617
F90
s(VAlepot
g17
tp3618
F1
s(Vbreake
g17
tp3619
F1
s(g418
g374
tp3620
F20
s(Vbad
S'JJ'
p3621
tp3622
F5
s(VEnglish
g10
tp3623
F1
s(Vneither
g141
tp3624
F3
s(Vworth
g234
tp3625
F2
s(Vhelpe
g17
tp3626
F1
s(Vtreasure
g17
tp3627
F1
s(Vsommon
g4
tp3628
F1
s(Vrumour
g17
tp3629
F1
s(Vweeke
g17
tp3630
F3
s(Vchast
g17
tp3631
F1
s(Vwill
g755
tp3632
F62
s(Vtrauell
g17
tp3633
F2
s(Vconueyed
g12
tp3634
F1
s(VPirat
g10
tp3635
F1
s(Vshow
g17
tp3636
F1
s(Vdeuise
g4
tp3637
F2
s(g37
g291
tp3638
F2
s(Vere
g97
tp3639
F1
s(Vbirdes
g39
tp3640
F1
s(g28
g53
tp3641
F191
s(Vcurtisans
g39
tp3642
F1
s(Vparlor
g17
tp3643
F2
s(Vsweete
g4
tp3644
F1
s(g28
g395
tp3645
F48
s(Vkercher
g546
tp3646
F1
s(Vmercie
g30
tp3647
F1
s(Vnarrow
g53
tp3648
F2
s(g63
g328
tp3649
F2
s(Vconuenient
g53
tp3650
F1
s(Vcorner
g17
tp3651
F2
s(Vgentlemen
g39
tp3652
F11
s(Vgrafted
g12
tp3653
F1
s(Vlowe
g17
tp3654
F1
s(Vdarkenes
g39
tp3655
F1
s(g1224
g51
tp3656
F3
s(Vside
g17
tp3657
F7
s(Vdresse
g4
tp3658
F1
s(Vnaked
g53
tp3659
F1
s(Vweedes
g37
tp3660
F1
s(Vye
g28
tp3661
F6
s(g664
g10
tp3662
F3
s(g477
g100
tp3663
F15
s(g270
g1124
tp3664
F1
s(Vsoueraignty
g17
tp3665
F1
s(Vbeside
g17
tp3666
F1
s(g112
g3551
tp3667
F180
s(Vfeeding
g56
tp3668
F1
s(g309
g17
tp3669
F452
s(g30
g37
tp3670
F4
s(Vdoone
g30
tp3671
F1
s(Vdeparted
g53
tp3672
F2
s(VE
g10
tp3673
F1
s(g53
g234
tp3674
F118
s(VChurch
g10
tp3675
F3
s(g328
g755
tp3676
F3
s(VEgiptian
g53
tp3677
F1
s(Vbend
g4
tp3678
F1
s(Vrewarded
g12
tp3679
F1
s(g234
g63
tp3680
F8
s(Vpledgde
g63
tp3681
F1
s(Vdoubted
g12
tp3682
F1
s(Vstaires
g39
tp3683
F10
s(Vbetweene
g37
tp3684
F2
s(Vbonny
g17
tp3685
F1
s(Vcharged
g12
tp3686
F1
s(Vthink
g4
tp3687
F1
s(VCoblere
g10
tp3688
F1
s(VTushe
g10
tp3689
F1
s(Vbrethren
g30
tp3690
F1
s(Vthee
g28
tp3691
F1
s(Vprocured
g63
tp3692
F1
s(Vsent
g63
tp3693
F10
s(VFarmer
g10
tp3694
F4
s(Vawakt
g17
tp3695
F3
s(Vsheene
g17
tp3696
F2
s(g17
g14
tp3697
F741
s(Vblowes
g4
tp3698
F1
s(VAlexander
g10
tp3699
F5
s(Vrecreation
g17
tp3700
F2
s(Vowne
g53
tp3701
F6
s(Vhung
g63
tp3702
F2
s(Vpublishing
g17
tp3703
F1
s(Vbookes
g39
tp3704
F2
s(Venough
g330
tp3705
F1
s(Vpasse
g20
tp3706
F1
s(g17
g1124
tp3707
F2
s(Vwenches
g39
tp3708
F3
s(Vfancie
g53
tp3709
F1
s(g20
g141
tp3710
F5
s(g642
g39
tp3711
F2
s(g4
g816
tp3712
F2
s(Vdeclare
g4
tp3713
F1
s(VNymphe
g10
tp3714
F1
s(Vgaine
g17
tp3715
F1
s(Vlearne
g53
tp3716
F1
s(Vstroakes
g39
tp3717
F1
s(Voldest
g152
tp3718
F1
s(Vsee
g30
tp3719
F9
s(Vfashion
S'NN'
p3720
tp3721
F1
s(Vknife
g17
tp3722
F1
s(g12
g17
tp3723
F28
s(Vrespect
g30
tp3724
F1
s(Vhaste
g17
tp3725
F2
s(Vpotions
g39
tp3726
F1
s(Vsomewhat
g28
tp3727
F2
s(Vansweres
g39
tp3728
F1
s(Vvse
g4
tp3729
F1
s(g491
S':'
tp3730
F8
s(Vtumbling
g56
tp3731
F1
s(Vproude
g17
tp3732
F2
s(Vprie
g4
tp3733
F1
s(VSecondly
g28
tp3734
F1
s(Vweather
g17
tp3735
F3
s(Vwatchword
g17
tp3736
F1
s(Vpittie
g17
tp3737
F1
s(g127
g63
tp3738
F1
s(VKnit
g10
tp3739
F1
s(Vwatch
g17
tp3740
F4
s(S','
g452
tp3741
F33
s(Vearnest
g53
tp3742
F2
s(g234
g186
tp3743
F4
s(Vmeate
g17
tp3744
F3
s(Veuer
g12
tp3745
F3
s(g152
g76
tp3746
F2
s(VHow
g97
tp3747
F4
s(g63
g86
tp3748
F4
s(Vsinnes
g39
tp3749
F2
s(Vindeed
S'RB'
p3750
tp3751
F2
s(g309
g755
tp3752
F2
s(VAbout
g234
tp3753
F1
s(Vgray
g53
tp3754
F2
s(Vgaue
g53
tp3755
F2
s(Vconteines
g39
tp3756
F1
s(VNurse
g10
tp3757
F1
s(Vportion
S'NN'
p3758
tp3759
F1
s(VDoost
g10
tp3760
F1
s(g17
g452
tp3761
F160
s(Vfoure
g17
tp3762
F4
s(Vlearnd
g12
tp3763
F1
s(Vvaines
g39
tp3764
F1
s(g546
g76
tp3765
F74
s(Vmarked
g63
tp3766
F1
s(Vhealth
S'NN'
p3767
tp3768
F1
s(Vvs
g10
tp3769
F1
s(Vintierlie
g17
tp3770
F1
s(Vsaint
g17
tp3771
F5
s(g17
g1489
tp3772
F362
s(Vfeare
g30
tp3773
F3
s(g39
g452
tp3774
F32
s(Vsure
g53
tp3775
F4
s(Vdisparage
g30
tp3776
F1
s(Vonce
g28
tp3777
F6
s(g17
S':'
tp3778
F278
s(VThey
S'PRP'
p3779
tp3780
F2
s(Vwhatsoeuer
g152
tp3781
F1
s(Vmay
g1998
tp3782
F21
s(Vdesire
g30
tp3783
F1
s(g56
g452
tp3784
F23
s(Vslander
g17
tp3785
F1
s(Vvpon
g17
tp3786
F11
s(Vgould
g17
tp3787
F1
s(g53
g39
tp3788
F116
s(Vsing
g56
tp3789
F3
s(Vstrumpet
g17
tp3790
F2
s(Vdouble
g53
tp3791
F1
s(VAfter
S'IN'
p3792
tp3793
F2
s(Vtime
S'NN'
p3794
tp3795
F35
s(Vwisest
g152
tp3796
F2
s(Vturne
g17
tp3797
F2
s(Vbeautie
g53
tp3798
F1
s(Vreuenged
g63
tp3799
F1
s(Vswines
g39
tp3800
F1
s(g28
g328
tp3801
F2
s(VPirates
g127
tp3802
F1
s(Vhonest
g53
tp3803
F1
s(Vshall
g100
tp3804
F31
s(Vcheefe
g17
tp3805
F1
s(Vheauy
g17
tp3806
F1
s(Vperforme
g4
tp3807
F1
s(Veffect
S'NN'
p3808
tp3809
F2
s(VVVith
g10
tp3810
F1
s(Vstead
g17
tp3811
F1
s(Vfloure
g17
tp3812
F1
s(Vforehead
g17
tp3813
F1
s(Vstately
g53
tp3814
F1
s(g234
S','
tp3815
F27
s(VUniuersitie
g10
tp3816
F1
s(S','
g1124
tp3817
F1
s(Vsecrete
g53
tp3818
F1
s(Vtruth
g30
tp3819
F1
s(g141
g30
tp3820
F4
s(g51
g37
tp3821
F1
s(g452
g10
tp3822
F31
s(S'('
g58
tp3823
F1
s(Vgratulation
g17
tp3824
F1
s(Vtrow
g30
tp3825
F1
s(Vhighly
S'RB'
p3826
tp3827
F1
s(Vhot
g53
tp3828
F1
s(Vbreechlesse
g39
tp3829
F1
s(Vdish
g17
tp3830
F2
s(Vgin
g17
tp3831
F1
s(Vliued
g12
tp3832
F3
s(g81
g374
tp3833
F1
s(Vprouerbe
g17
tp3834
F3
s(Vfoule
g17
tp3835
F1
s(Vpunishment
g17
tp3836
F6
s(VShee
g4
tp3837
F1
s(Vmeanings
g39
tp3838
F1
s(Vgold
g17
tp3839
F3
s(Vwake
g4
tp3840
F3
s(Vdown
g330
tp3841
F7
s(Vvtter
g53
tp3842
F1
s(Vwil
g37
tp3843
F1
s(Vday
S'NN'
p3844
tp3845
F39
s(g63
S'.'
tp3846
F7
s(Vdrew
g63
tp3847
F1
s(Vnews
S'NN'
p3848
tp3849
F1
s(Vmarie
g30
tp3850
F1
s(Vgrossly
g28
tp3851
F1
s(Vdoth
g17
tp3852
F1
s(VAbbey
g17
tp3853
F1
s(Vreturne
g53
tp3854
F1
s(Vplay
g4
tp3855
F5
s(Vfround
g17
tp3856
F1
s(Vrush
g17
tp3857
F1
s(Vnewes
g39
tp3858
F1
s(g1124
S':'
tp3859
F1
s(VSocrates
g10
tp3860
F1
s(Vmakes
g575
tp3861
F5
s(g53
g37
tp3862
F2
s(Vseruant
g17
tp3863
F1
s(Vtram
g17
tp3864
F1
s(g141
S'.'
tp3865
F5
s(Vyt
g30
tp3866
F1
s(Vbeleeueth
g37
tp3867
F1
s(Vreach
g17
tp3868
F2
s(Vfaith
g17
tp3869
F3
s(Vtherefore
g17
tp3870
F2
s(Vserious
S'JJ'
p3871
tp3872
F1
s(Vthey
g1225
tp3873
F207
s(Vshut
g63
tp3874
F2
s(Vwalking
g17
tp3875
F1
s(Vtall
g53
tp3876
F2
s(Vthree
g3416
tp3877
F6
s(Vtowards
g39
tp3878
F6
s(Vrecouered
g63
tp3879
F1
s(Vpartaker
g17
tp3880
F1
s(Vshoote
g17
tp3881
F1
s(Vmier
g17
tp3882
F1
s(VCarters
g127
tp3883
F1
s(Vheard
g12
tp3884
F1
s(Vvp
g30
tp3885
F3
s(Vouergon
g17
tp3886
F1
s(Vquoth
g58
tp3887
F20
s(Vlaugh
g4
tp3888
F1
s(Vmaugre
g234
tp3889
F1
s(Vpleasant
g53
tp3890
F8
s(g37
S':'
tp3891
F2
s(Vfrowne
g17
tp3892
F1
s(g2427
g152
tp3893
F1
s(Vthankes
g39
tp3894
F1
s(g4
g452
tp3895
F40
s(Vmisfortunes
g39
tp3896
F3
s(VPhysition
g17
tp3897
F1
s(VMagicke
g10
tp3898
F2
s(Vtroubled
g63
tp3899
F1
s(Vpardon
g28
tp3900
F1
s(g270
g175
tp3901
F1
s(Vobedience
g4
tp3902
F1
s(Vcry
g4
tp3903
F2
s(Vpery-patetian
g53
tp3904
F1
s(V7
S'CD'
p3905
tp3906
F2
s(Vrest
g17
tp3907
F20
s(Vcurled
g53
tp3908
F1
s(Veleauen
g17
tp3909
F1
s(Vcleere
g4
tp3910
F1
s(g30
g86
tp3911
F1
s(Vsaw
g53
tp3912
F1
s(VNoli
g53
tp3913
F1
s(Vbene
g330
tp3914
F1
s(g4
S':'
tp3915
F24
s(Vconfirmd
g4
tp3916
F1
s(VMistres
g39
tp3917
F5
s(Vshee
g53
tp3918
F19
s(Vdied
g63
tp3919
F1
s(Vindifferent
g17
tp3920
F1
s(Vmaruaile
g17
tp3921
F1
s(g47
S')'
tp3922
F1
s(Vhaire
g30
tp3923
F1
s(g91
g56
tp3924
F7
s(Vkild
g53
tp3925
F2
s(Vbetweene
g53
tp3926
F1
s(Vheartilie
g30
tp3927
F1
s(S'('
g141
tp3928
F3
s(VYou
S'PRP'
p3929
tp3930
F1
s(Vbag
g17
tp3931
F1
s(g22
g91
tp3932
F1
s(Vhowe
g37
tp3933
F1
s(Vattendants
g39
tp3934
F1
s(Vgrosse
g53
tp3935
F1
s(g664
g53
tp3936
F1
s(Vbase
g53
tp3937
F1
s(Vbreakefast
g58
tp3938
F1
s(Vstole
g63
tp3939
F1
s(Vrake
g17
tp3940
F1
s(Vsauour
g4
tp3941
F1
s(Vmisuse
g17
tp3942
F1
s(Vvsing
g56
tp3943
F1
s(Vthou
g30
tp3944
F2
s(VPoore
g28
tp3945
F1
s(VIeffrey
g10
tp3946
F1
s(S')'
g30
tp3947
F2
s(VCrocodiles
g39
tp3948
F1
s(Vhath
g63
tp3949
F4
s(Vconcord
g17
tp3950
F1
s(g53
g73
tp3951
F42
s(Vflouds
g17
tp3952
F1
s(VThere
g3208
tp3953
F3
s(Vconteined
g12
tp3954
F1
s(Vfoud
g63
tp3955
F1
s(VCoole
g10
tp3956
F2
s(g10
g12
tp3957
F4
s(VSatten
g10
tp3958
F1
s(Vwet
g17
tp3959
F3
s(Vamongst
g234
tp3960
F2
s(Vaduaunce
g4
tp3961
F1
s(Vexperiment
g17
tp3962
F2
s(Vmo
g17
tp3963
F1
s(VHelena
g10
tp3964
F1
s(Vhearts
g39
tp3965
F1
s(g328
g593
tp3966
F5
s(Vpalace
g17
tp3967
F1
s(g17
S'MD'
p3968
tp3969
F68
s(Vmarries
g39
tp3970
F1
s(Vbold
g53
tp3971
F2
s(Vvnloosed
g53
tp3972
F1
s(Vsir
g53
tp3973
F6
s(g112
g309
tp3974
F48
s(Vwander
g30
tp3975
F1
s(Venuious
g53
tp3976
F1
s(Vpatiently
g28
tp3977
F1
s(Vassoone
g37
tp3978
F1
s(Valder
g17
tp3979
F1
s(VFryar
g10
tp3980
F1
s(Vswinke
g4
tp3981
F1
s(VBabes
g10
tp3982
F1
s(Vfrend
g17
tp3983
F1
s(Vwhereupon
g17
tp3984
F3
s(g2597
S','
tp3985
F1
s(VCittie
g10
tp3986
F2
s(Vfarre
g53
tp3987
F7
s(VPublius
g10
tp3988
F1
s(Vcamest
g17
tp3989
F1
s(Vtwenty
g28
tp3990
F1
s(VHuffe
g10
tp3991
F1
s(Vdo
g30
tp3992
F9
s(Vdaily
g28
tp3993
F1
s(Vthought
g12
tp3994
F5
s(Vstrumpets
g39
tp3995
F1
s(Vlow
g53
tp3996
F1
s(Vgowne
g17
tp3997
F5
s(VDoctor
g10
tp3998
F1
s(Vwaspish
g53
tp3999
F1
s(Vvnderstand
g17
tp4000
F1
s(Vcalme
g17
tp4001
F1
s(g12
g97
tp4002
F1
s(Vconsented
g63
tp4003
F1
s(Vberayde
g234
tp4004
F1
s(g63
g58
tp4005
F9
s(VProctor
g10
tp4006
F10
s(VSurgions
g10
tp4007
F1
s(Vlet
g4
tp4008
F22
s(Vtall
g17
tp4009
F1
s(g452
g1253
tp4010
F5
s(Vinioy
g4
tp4011
F1
s(Vslept
g63
tp4012
F2
s(Vfable
g53
tp4013
F1
s(Vremembring
g56
tp4014
F1
s(Vtil
g4
tp4015
F1
s(Vbetray
g17
tp4016
F1
s(Vset
g63
tp4017
F2
s(Vassuredlie
g330
tp4018
F1
s(VThus
g28
tp4019
F18
s(Vwhether
S'IN'
p4020
tp4021
F5
s(VRowlad
g10
tp4022
F4
s(Vpraiers
g39
tp4023
F7
s(Vstreete
g53
tp4024
F1
s(Vforked
g12
tp4025
F1
s(Vreceiued
g12
tp4026
F1
s(Vcandle
g17
tp4027
F3
s(Vwishing
g17
tp4028
F1
s(Vchaunt
g4
tp4029
F1
s(g4
g30
tp4030
F1
s(Vsmylde
g17
tp4031
F1
s(Vmaruel
g30
tp4032
F2
s(g395
S'.'
tp4033
F13
s(Vneedes
g4
tp4034
F1
s(Vferas
g39
tp4035
F1
s(Vboate
g17
tp4036
F1
s(Vdeliverd
g30
tp4037
F1
s(g53
g58
tp4038
F1
s(Vsuspence
g17
tp4039
F1
s(g17
g127
tp4040
F2
s(Vbriefly
g4
tp4041
F1
s(g305
g10
tp4042
F24
s(Vmarke
g37
tp4043
F1
s(Vwore
g51
tp4044
F1
s(g81
g105
tp4045
F1
s(VCitie
g10
tp4046
F1
s(Vstriuing
g56
tp4047
F1
s(Vstreet
g17
tp4048
F1
s(Vlarge
S'JJ'
p4049
tp4050
F5
s(Vprisoner
g17
tp4051
F1
s(g3968
S':'
tp4052
F3
s(Vcrownd
g37
tp4053
F1
s(Vyt
g53
tp4054
F2
s(Vbetweene
g4
tp4055
F1
s(Vroode
g17
tp4056
F1
s(g30
g91
tp4057
F2
s(Vhimselfe
g4
tp4058
F2
s(Vlie
g53
tp4059
F1
s(Vpuld
g4
tp4060
F1
s(Vflesh
g17
tp4061
F1
s(Vassoone
g53
tp4062
F1
s(Vneere
g28
tp4063
F2
s(Vseld
g12
tp4064
F1
s(g22
S':'
tp4065
F1
s(Vtwo
g374
tp4066
F27
s(Vtwenty
g53
tp4067
F1
s(VYea
g10
tp4068
F1
s(Vcompounded
g12
tp4069
F1
s(Vkisse
g17
tp4070
F3
s(Vpretious
g53
tp4071
F1
s(Vstand
g30
tp4072
F2
s(Vwarrant
g30
tp4073
F4
s(Vmuskells
g39
tp4074
F1
s(g10
g3848
tp4075
F202
s(Vrime
g17
tp4076
F1
s(Vchaffe
g39
tp4077
F1
s(Vapparel
g17
tp4078
F1
s(Vreuiuing
g56
tp4079
F1
s(Vbuie
g4
tp4080
F1
s(VFull
g10
tp4081
F1
s(Vsyr
g28
tp4082
F1
s(VSocrates
g39
tp4083
F1
s(Vdoe
g30
tp4084
F6
s(Vcreeping
g56
tp4085
F1
s(g418
g17
tp4086
F1112
s(Vturning
g17
tp4087
F1
s(Vwanton
g53
tp4088
F1
s(Vreliefe
g17
tp4089
F1
s(Vsepulchers
g39
tp4090
F1
s(Vloue
g53
tp4091
F2
s(Vtrauerst
g63
tp4092
F1
s(Vthresh
g28
tp4093
F1
s(VTendring
g56
tp4094
F1
s(g2214
S','
tp4095
F1008
s(VLetters
g39
tp4096
F1
s(Vknaues
g39
tp4097
F2
s(Vsaying
g56
tp4098
F7
s(g63
g4
tp4099
F8
s(Vfree
g53
tp4100
F4
s(Vthats
g39
tp4101
F1
s(g63
g73
tp4102
F236
s(Vanswere
g17
tp4103
F2
s(Vleisure
g17
tp4104
F2
s(VPriors
g10
tp4105
F1
s(VMarket
g10
tp4106
F1
s(Vfortune
g30
tp4107
F1
s(VScholler
g10
tp4108
F14
s(Vaduersis
g17
tp4109
F1
s(Vproper
g53
tp4110
F1
s(Vneighbour
g17
tp4111
F3
s(Vme
S'PRP'
p4112
tp4113
F60
s(g53
S','
tp4114
F111
s(g10
S':'
tp4115
F47
s(Vexcepteth
g37
tp4116
F1
s(Vschismes
g37
tp4117
F1
s(VWhereupon
g234
tp4118
F1
s(Vclipt
g4
tp4119
F1
s(Vtakes
S'VBZ'
p4120
tp4121
F1
s(Vopen
g4
tp4122
F1
s(Vhied
g53
tp4123
F1
s(VCardes
g10
tp4124
F1
s(VAn
S'DT'
p4125
tp4126
F1
s(g1145
g418
tp4127
F78
s(Vno
g141
tp4128
F57
s(Vtickled
g12
tp4129
F1
s(VWith
S'IN'
p4130
tp4131
F8
s(Vwhipping
g17
tp4132
F1
s(Vgiuen
g12
tp4133
F3
s(Vaccept
g4
tp4134
F2
s(g91
g63
tp4135
F28
s(g12
g452
tp4136
F45
s(Vtilt
g53
tp4137
F1
s(Vhee
g37
tp4138
F5
s(Vdiuided
g63
tp4139
F1
s(Vknauish
g53
tp4140
F1
s(Vinferre
g4
tp4141
F1
s(Vgan
g17
tp4142
F2
s(Vmerrie
g17
tp4143
F6
s(Vabroad
g306
tp4144
F10
s(Vreadines
g39
tp4145
F1
s(Vdehort
g17
tp4146
F1
s(g20
g12
tp4147
F1
s(Vbehold
g4
tp4148
F2
s(Vreuiled
g63
tp4149
F1
s(Vcries
g39
tp4150
F1
s(Vstreetes
g39
tp4151
F3
s(Vcaused
g53
tp4152
F1
s(VIndeede
g10
tp4153
F2
s(Vchide
g17
tp4154
F1
s(Vsyr
g53
tp4155
F9
s(Vfalse
g53
tp4156
F2
s(Vfauour
g17
tp4157
F3
s(S'DT'
p4158
g81
tp4159
F2
s(Vlend
g30
tp4160
F1
s(VCambridge
g10
tp4161
F18
s(Vchargd
g4
tp4162
F1
s(Vdeale
g4
tp4163
F1
s(Vtimber
g4
tp4164
F1
s(Vcomming
g56
tp4165
F10
s(Vothers
S'NNS'
p4166
tp4167
F3
s(Vbed
g17
tp4168
F29
s(VSommers
g10
tp4169
F1
s(Vnights
g39
tp4170
F3
s(g56
g10
tp4171
F3
s(S':'
g1540
tp4172
F10
s(Vonelie
g4
tp4173
F1
s(g91
g186
tp4174
F2
s(Vessence
g17
tp4175
F1
s(Vbacke
g53
tp4176
F1
s(Vvnder
g30
tp4177
F1
s(g30
g73
tp4178
F50
s(g454
g53
tp4179
F79
s(VSparrow
g10
tp4180
F1
s(g642
g53
tp4181
F3
s(Vboards
g39
tp4182
F1
s(Vcure
g17
tp4183
F1
s(Vthee
g17
tp4184
F13
s(Vsuercoate
g17
tp4185
F1
s(VManie
g10
tp4186
F1
s(g127
g452
tp4187
F2
s(Vwoodcocke
g17
tp4188
F1
s(Vgroped
g63
tp4189
F2
s(Vassoone
g4
tp4190
F1
s(Vpinched
g12
tp4191
F1
s(VDoue
g10
tp4192
F1
s(Vtarriance
g17
tp4193
F1
s(VLuna
g10
tp4194
F1
s(Vmaist
g17
tp4195
F3
s(Vabiliments
g39
tp4196
F1
s(VQuest
g10
tp4197
F1
s(Vbeaten
g4
tp4198
F1
s(Vmist
g17
tp4199
F2
s(Vwooer
g17
tp4200
F1
s(VIade
g10
tp4201
F1
s(Vther
g17
tp4202
F1
s(Vyou
g1224
tp4203
F162
s(Vhap
g17
tp4204
F2
s(g175
g53
tp4205
F8
s(Vaffectionate
g53
tp4206
F1
s(g37
g56
tp4207
F3
s(Vquoth
g234
tp4208
F2
s(Vbegin
g4
tp4209
F1
s(Vsailed
g63
tp4210
F1
s(Vthat
g234
tp4211
F274
s(Vwisht
g37
tp4212
F1
s(Vpromises
g39
tp4213
F2
s(S','
g47
tp4214
F22
s(Vnightes
g39
tp4215
F1
s(Vpoore
g234
tp4216
F1
s(g418
g152
tp4217
F24
s(VMinda
g10
tp4218
F1
s(Vnecke
g53
tp4219
F2
s(Vplaid
g234
tp4220
F1
s(Vrequest
g17
tp4221
F2
s(Vcolde
g4
tp4222
F1
s(VLasse
g10
tp4223
F1
s(Veuer
g30
tp4224
F2
s(Vplumes
g39
tp4225
F2
s(Vcrowne
g17
tp4226
F1
s(Vforgetfull
g17
tp4227
F1
s(Vshee
g17
tp4228
F83
s(Vbeat
g17
tp4229
F1
s(Vperceiue
g12
tp4230
F1
s(Vvnbound
g63
tp4231
F1
s(VFarmers
g10
tp4232
F2
s(Vshillings
g39
tp4233
F1
s(VDiuinitie
g10
tp4234
F1
s(g63
g105
tp4235
F17
s(Vattonemet
g17
tp4236
F1
s(g53
g152
tp4237
F2
s(VHostesse
g17
tp4238
F1
s(Vbeautifull
g53
tp4239
F2
s(Vquoth
g53
tp4240
F3
s(Vran
g17
tp4241
F2
s(Vgaines
g39
tp4242
F1
s(Vgon
g17
tp4243
F1
s(Vcarde
g4
tp4244
F1
s(VBooke
g10
tp4245
F2
s(Vroughlie
g17
tp4246
F1
s(g10
g81
tp4247
F16
s(Vlent
g17
tp4248
F1
s(Vchaunce
g17
tp4249
F3
s(VWill
g10
tp4250
F1
s(Vpaines
g39
tp4251
F3
s(Vstrike
g4
tp4252
F1
s(Vplace
g30
tp4253
F1
s(Vaboue
g12
tp4254
F1
s(g53
g112
tp4255
F31
s(Vleft
g63
tp4256
F7
s(Vshee
g12
tp4257
F2
s(Vwalked
g63
tp4258
F3
s(Vnon
g53
tp4259
F1
s(VAudreies
g10
tp4260
F1
s(Vhid
g17
tp4261
F1
s(Vtenne
g17
tp4262
F1
s(Vwrote
S'VBD'
p4263
tp4264
F2
s(Vfrolick
g53
tp4265
F1
s(Vaffection
g17
tp4266
F3
s(Vfamilies
S'NNS'
p4267
tp4268
F3
s(Vwrittes
g37
tp4269
F1
s(VAccount
g10
tp4270
F1
s(Vbeforne
g4
tp4271
F1
s(Valtogether
g28
tp4272
F1
s(Vbound
g17
tp4273
F1
s(Vprinciples
g39
tp4274
F2
s(g330
g364
tp4275
F7
s(Vrid
g30
tp4276
F1
s(Vwillingly
g28
tp4277
F2
s(Vthrew
g63
tp4278
F6
s(Vattended
g12
tp4279
F1
s(VHighnesse
g10
tp4280
F1
s(Vbloudy
g4
tp4281
F1
s(VAustins
g39
tp4282
F1
s(Vthickest
g17
tp4283
F1
s(Vbefore
g28
tp4284
F1
s(Vroyall
g53
tp4285
F1
s(Vdispatch
g4
tp4286
F1
s(Vproue
g4
tp4287
F2
s(g10
g39
tp4288
F21
s(Vdauncing
g56
tp4289
F1
s(Vsnaffle
g17
tp4290
F1
s(Venioye
g28
tp4291
F1
s(Vreueale
g4
tp4292
F2
s(Vcourtesies
g39
tp4293
F1
s(Veury
g17
tp4294
F1
s(Vfauored
g63
tp4295
F2
s(Vwhatsoeuer
g58
tp4296
F2
s(Vdurty
g53
tp4297
F1
s(Vshort
g53
tp4298
F6
s(Vsage
g17
tp4299
F1
s(VFarmer
g17
tp4300
F1
s(Vlowd
g17
tp4301
F1
s(Vflea
g17
tp4302
F2
s(VIealousy
g10
tp4303
F1
s(Vchance
S'NN'
p4304
tp4305
F3
s(Vafraid
g17
tp4306
F1
s(Vhalfe
g4
tp4307
F2
s(g39
g175
tp4308
F1
s(Vpuffing
g17
tp4309
F1
s(Vcondition
g17
tp4310
F1
s(VFarrier
g10
tp4311
F2
s(Vlookt
g4
tp4312
F1
s(VCroyden
g10
tp4313
F1
s(Vvp
g28
tp4314
F3
s(Vhath
g37
tp4315
F6
s(g97
g593
tp4316
F85
s(g39
g152
tp4317
F2
s(Vhorning
g17
tp4318
F1
s(Vcourt
S'NN'
p4319
tp4320
F5
s(VSuch
g53
tp4321
F2
s(Vknowen
g12
tp4322
F2
s(VBawd
g10
tp4323
F1
s(Vhap
g4
tp4324
F1
s(Vsomething
S'NN'
p4325
tp4326
F1
s(Vprison
g17
tp4327
F2
s(Vgiuing
g56
tp4328
F2
s(Vbeene
g17
tp4329
F5
s(VTauerne
g17
tp4330
F2
s(Vwee
g17
tp4331
F6
s(g664
g39
tp4332
F1
s(Vneuer
g234
tp4333
F1
s(Vsmile
g4
tp4334
F1
s(Vwil
g63
tp4335
F1
s(Vbewitch
g4
tp4336
F1
s(V!
S'.'
tp4337
F1
s(Vciuill
g17
tp4338
F1
s(VLownes
g10
tp4339
F1
s(Vwrite
g28
tp4340
F1
s(Vmorning
g15
tp4341
F16
s(Vexposition
g17
tp4342
F2
s(Vaske
g30
tp4343
F1
s(Vmeat
g17
tp4344
F2
s(Vplacst
g17
tp4345
F1
s(Vwhippe
g17
tp4346
F1
s(Vhave
g30
tp4347
F1
s(Vvnto
g39
tp4348
F3
s(Vhammer
g17
tp4349
F1
s(Vfall
g30
tp4350
F2
s(Vdoth
g755
tp4351
F1
s(Vdarke
g17
tp4352
F6
s(Vhumours
g39
tp4353
F1
s(Vfolly
g17
tp4354
F2
s(Vwhile
g234
tp4355
F15
s(Vwinter
g17
tp4356
F1
s(Vdemanding
g56
tp4357
F1
s(Voffred
g63
tp4358
F2
s(Vfound
g12
tp4359
F3
s(Vblewe
g17
tp4360
F1
s(Vwaited
g63
tp4361
F1
s(VClarke
g10
tp4362
F4
s(S'('
g81
tp4363
F1
s(Vindued
g12
tp4364
F1
s(Vreconciled
g63
tp4365
F2
s(Vcup
g17
tp4366
F5
s(V2
g912
tp4367
F2
s(Vdwelt
g30
tp4368
F1
s(Vview
g17
tp4369
F1
s(Vfind
g30
tp4370
F2
s(Vprankes
g39
tp4371
F1
s(S'('
g1157
tp4372
F1
s(g867
g81
tp4373
F1
s(Vsupper
g51
tp4374
F1
s(VGrauesend
g10
tp4375
F2
s(Vgash
g17
tp4376
F1
s(Vaccident
g17
tp4377
F1
s(S','
g949
tp4378
F333
s(Vsleeude
g17
tp4379
F1
s(Vpittifully
g28
tp4380
F1
s(g152
g141
tp4381
F3
s(Vpresentlie
g20
tp4382
F1
s(S':'
g452
tp4383
F4
s(Vbetrayed
g12
tp4384
F1
s(Vthat
g81
tp4385
F72
s(Vwench
g37
tp4386
F1
s(VBoccace
g10
tp4387
F1
s(Vpowers
g39
tp4388
F1
s(Vpleasure
g17
tp4389
F3
s(Vsafe
g53
tp4390
F2
s(Vbroils
g39
tp4391
F1
s(Vdowne
g12
tp4392
F1
s(Vsuspecteth
g17
tp4393
F1
s(VAugustines
g127
tp4394
F1
s(Vhir
g546
tp4395
F4
s(VChristmas
g10
tp4396
F2
s(VClowdes
g10
tp4397
F1
s(Vfaithfully
g28
tp4398
F1
s(VThat
g234
tp4399
F4
s(Vdistresse
g17
tp4400
F2
s(g1524
g1225
tp4401
F39
s(Vsturdie
g17
tp4402
F1
s(Vhigh
g53
tp4403
F2
s(Vfirst
g28
tp4404
F2
s(g10
g91
tp4405
F7
s(Vhole
g17
tp4406
F1
s(Vsencelesse
g17
tp4407
F1
s(Vwriters
g39
tp4408
F1
s(VLorde
g10
tp4409
F2
s(Vsolemne
g53
tp4410
F1
s(S'VBG'
p4411
S'.'
tp4412
F5
s(Vbefalles
g39
tp4413
F1
s(Vlap
g17
tp4414
F1
s(Vboth
g141
tp4415
F19
s(Vcountrey
g17
tp4416
F3
s(g86
g56
tp4417
F3
s(Vtownesmen
g39
tp4418
F1
s(Vdescant
g4
tp4419
F1
s(g186
g12
tp4420
F57
s(Vperswade
g30
tp4421
F1
s(Vquickly
S'RB'
p4422
tp4423
F1
s(Vreuenues
g39
tp4424
F1
s(Vdisagreement
g17
tp4425
F1
s(Vplod
g4
tp4426
F1
s(Vful
g17
tp4427
F1
s(Vfrolike
g17
tp4428
F1
s(Vsubtilly
g28
tp4429
F1
s(Vperson
S'NN'
p4430
tp4431
F1
s(Vplaye
g4
tp4432
F1
s(VLandresse
g10
tp4433
F3
s(Vere
g53
tp4434
F1
s(Varose
g63
tp4435
F2
s(Vfoorth
g4
tp4436
F1
s(Vhapned
g12
tp4437
F1
s(Vsith
g17
tp4438
F2
s(Vhead
g53
tp4439
F2
s(Vspectacles
g39
tp4440
F1
s(Vdwelled
g63
tp4441
F2
s(VSycilia
g10
tp4442
F1
s(Vgenerall
g17
tp4443
F1
s(Vsettle
g4
tp4444
F2
s(Vlie
g30
tp4445
F1
s(Vhorne
g17
tp4446
F8
s(Vslumbred
g12
tp4447
F1
s(Vbushel
g17
tp4448
F1
s(Vresolued
g12
tp4449
F5
s(Vbride
g17
tp4450
F2
s(Vquicklie
g17
tp4451
F1
s(Vcharities
g39
tp4452
F1
s(VLethe
g10
tp4453
F1
s(g1124
g2741
tp4454
F9
s(Vwrought
g63
tp4455
F2
s(Vsleightly
g28
tp4456
F1
s(Vpassed
g63
tp4457
F3
s(Vtunne
g53
tp4458
F1
s(Vfauourer
g17
tp4459
F1
s(Vfamily
S'NN'
p4460
tp4461
F1
s(VMaster
g10
tp4462
F1
s(Vcold
g53
tp4463
F2
s(Vheard
g4
tp4464
F1
s(Vbreakefast
g17
tp4465
F1
s(Vtould
g4
tp4466
F1
s(Vface
g30
tp4467
F1
s(S':'
g4
tp4468
F8
s(Vheares
g39
tp4469
F1
s(Vdronckard
g17
tp4470
F1
s(Vanother
S'DT'
p4471
tp4472
F2
s(Vdroonkard
g17
tp4473
F1
s(Vcompare
g17
tp4474
F1
s(Vholden
g12
tp4475
F1
s(Vhonestie
g17
tp4476
F1
s(Valtum
g17
tp4477
F1
s(VHairy
g10
tp4478
F1
s(Vcontrarie
g17
tp4479
F2
s(Vhoorded
g63
tp4480
F1
s(Vbeldam
g17
tp4481
F1
s(Vfearefull
g17
tp4482
F2
s(Vskill
g4
tp4483
F1
s(Vsir
g17
tp4484
F3
s(Vflesh
g53
tp4485
F1
s(Vgiuen
g53
tp4486
F1
s(g452
g477
tp4487
F3
s(Vlooking
S'VBG'
p4488
tp4489
F5
s(Vstumpes
g39
tp4490
F1
s(VRing
g10
tp4491
F2
s(Vmickle
g39
tp4492
F1
s(Vstraight
g28
tp4493
F3
s(g39
g17
tp4494
F16
s(Vannointed
g63
tp4495
F1
s(Vconsenting
g56
tp4496
F1
s(g56
S','
tp4497
F7
s(Vministred
g12
tp4498
F1
s(Vleapt
g17
tp4499
F1
s(Vcorne
g17
tp4500
F1
s(VWhen
g1795
tp4501
F28
s(g91
g1899
tp4502
F2
s(Vwade
g4
tp4503
F1
s(Vshrowded
g12
tp4504
F1
s(Vcleere
g53
tp4505
F1
s(Vmaister
g28
tp4506
F1
s(Vere
g28
tp4507
F3
s(S','
g664
tp4508
F1
s(Vhirselfe
g17
tp4509
F1
s(VPierce
g10
tp4510
F1
s(Vscul
g17
tp4511
F3
s(Vwhither
g17
tp4512
F1
s(Vsince
S'IN'
p4513
tp4514
F8
s(Vvillany
g17
tp4515
F1
s(Vsonne
g17
tp4516
F5
s(Vmaketh
g37
tp4517
F1
s(Vintended
g63
tp4518
F1
s(Vcoast
g17
tp4519
F2
s(Vdiscourse
g17
tp4520
F2
s(V1
S'CD'
p4521
tp4522
F2
s(VAsses
g10
tp4523
F3
s(Vgoe
g56
tp4524
F1
s(g270
g447
tp4525
F118
s(Vbrier
g17
tp4526
F1
s(g187
g10
tp4527
F17
s(g4
g1118
tp4528
F107
s(VNegromancie
g10
tp4529
F1
s(Vvalor
g17
tp4530
F1
s(g1011
g10
tp4531
F75
s(VTauernes
g10
tp4532
F1
s(Vyeare
g17
tp4533
F3
s(Vhimselfe
g17
tp4534
F24
s(Vignorant
g17
tp4535
F1
s(Vclappe
g4
tp4536
F1
s(Vrash
g17
tp4537
F1
s(Vlooked
g12
tp4538
F1
s(S'CD'
p4539
g73
tp4540
F1
s(Vplaced
g63
tp4541
F1
s(VAprill
g10
tp4542
F2
s(Vchaunces
g39
tp4543
F1
s(Vmad
g17
tp4544
F2
s(VRumney
g17
tp4545
F1
s(VKatherins
g10
tp4546
F1
s(VRather
g28
tp4547
F1
s(Vvoice
g17
tp4548
F2
s(Vsending
g17
tp4549
F1
s(g17
g12
tp4550
F31
s(g452
g418
tp4551
F91
s(VBrothers
g39
tp4552
F1
s(VNo
g664
tp4553
F1
s(VAda
g10
tp4554
F1
s(Vexceeding
g56
tp4555
F1
s(S':'
g1124
tp4556
F1
s(Vmedled
g12
tp4557
F2
s(Vabide
g4
tp4558
F3
s(Vtroth
g17
tp4559
F2
s(g51
g306
tp4560
F3
s(Vafore
g28
tp4561
F1
s(VHospitalitie
g10
tp4562
F1
s(Vploughman
g17
tp4563
F1
s(Vparled
g63
tp4564
F1
s(Vgotten
g30
tp4565
F1
s(Vwind
g17
tp4566
F2
s(Vintreated
g53
tp4567
F1
s(Vshrikes
g39
tp4568
F1
s(g364
g2296
tp4569
F3
s(Vheart
S'NN'
p4570
tp4571
F12
s(Vstoode
g30
tp4572
F1
s(Vbanquet
g63
tp4573
F1
s(Vhorns
g39
tp4574
F1
s(Vremeber
g30
tp4575
F1
s(Vfourescore
g28
tp4576
F1
s(Viniury
g17
tp4577
F1
s(Vleefer
g17
tp4578
F1
s(VHostesse
g10
tp4579
F6
s(Vdallie
g4
tp4580
F1
s(Vwitte
g17
tp4581
F2
s(Vfinde
g17
tp4582
F2
s(Vmaide
g17
tp4583
F5
s(Vshot
g17
tp4584
F1
s(VDarby
g10
tp4585
F1
s(Vpersonage
g17
tp4586
F1
s(Vshal
g30
tp4587
F4
s(Vbenches
g39
tp4588
F1
s(Vprise
g17
tp4589
F2
s(g328
g12
tp4590
F2
s(Vsate
g30
tp4591
F2
s(Vvntill
g17
tp4592
F2
s(Vaway
g28
tp4593
F23
s(VSheffielde
g10
tp4594
F1
s(g39
g81
tp4595
F9
s(Vaffoord
g4
tp4596
F2
s(Vabasht
g17
tp4597
F1
s(Vlines
S'NNS'
p4598
tp4599
F1
s(Vlet
g12
tp4600
F1
s(VChrysolite
g10
tp4601
F1
s(Vwheelebarow
g17
tp4602
F1
s(Vfalne
g12
tp4603
F1
s(Vwinded
g63
tp4604
F1
s(Vhowe
g39
tp4605
F2
s(VLatine
g10
tp4606
F1
s(Voutward
g53
tp4607
F2
s(g37
g100
tp4608
F1
s(Vmart
g17
tp4609
F1
s(Vlearnd
g234
tp4610
F1
s(Vhotter
g17
tp4611
F1
s(Vvnderstande
g4
tp4612
F1
s(Vweele
g30
tp4613
F1
s(VCharles
S'NNP'
p4614
tp4615
F1
s(Vplaine
g17
tp4616
F2
s(Vhall
g17
tp4617
F1
s(Vhistory
S'NN'
p4618
tp4619
F1
s(g187
g37
tp4620
F1
s(Varriual
g53
tp4621
F1
s(VSweete
g10
tp4622
F1
s(VPanthers
g10
tp4623
F1
s(Vsorrowfull
g53
tp4624
F2
s(Vdrinke
g37
tp4625
F1
s(Vcontinuallie
g30
tp4626
F1
s(Vquart
g17
tp4627
F3
s(Vblew
g17
tp4628
F1
s(Vgreatly
g28
tp4629
F2
s(Vmarry
g30
tp4630
F1
s(g76
g291
tp4631
F11
s(S':'
g81
tp4632
F14
s(g127
S','
tp4633
F1
s(VWickam
g10
tp4634
F2
s(Vgrow
g4
tp4635
F2
s(Vfamisht
g17
tp4636
F1
s(VMault
g17
tp4637
F1
s(Vwelcome
g17
tp4638
F1
s(Vwarmed
g63
tp4639
F1
s(Vshake
g30
tp4640
F1
s(Val
g39
tp4641
F1
s(Vru
g4
tp4642
F1
s(Vstraight
g63
tp4643
F7
s(Vyet
g28
tp4644
F43
s(Vwedding
g17
tp4645
F3
s(Vfault
g17
tp4646
F8
s(Vtowne
g4
tp4647
F1
s(g1157
S','
tp4648
F1
s(g17
S')'
tp4649
F12
s(Vreade
g30
tp4650
F1
s(g328
g53
tp4651
F2
s(Vtooke
g30
tp4652
F1
s(Velderbere
g17
tp4653
F1
s(g1225
g12
tp4654
F3
s(VHawke
g17
tp4655
F1
s(Vthou
g53
tp4656
F15
s(Vraild
g30
tp4657
F1
s(Val
g234
tp4658
F1
s(Vleaue
g4
tp4659
F3
s(Vdye
g30
tp4660
F1
s(Vfalse
g28
tp4661
F1
s(Vdissention
g17
tp4662
F2
s(Vho
g17
tp4663
F1
s(VFill
g10
tp4664
F1
s(Vvsed
g63
tp4665
F2
s(Vbreak
g4
tp4666
F1
s(Vperceiuing
g56
tp4667
F1
s(VPropertius
g10
tp4668
F1
s(VCloister
g10
tp4669
F1
s(Vwoont
g53
tp4670
F2
s(Vpledge
g4
tp4671
F1
s(VMarians
g127
tp4672
F1
s(Vmarry
g17
tp4673
F6
s(Vcheefelie
g53
tp4674
F1
s(Vwooing
g17
tp4675
F1
s(Vshee
g30
tp4676
F3
s(Vamen
g39
tp4677
F1
s(VAnacreon
g10
tp4678
F1
s(Vtrewat
g17
tp4679
F1
s(Vconuerseth
g39
tp4680
F1
s(Vbooke
g17
tp4681
F11
s(VMistresse
g10
tp4682
F1
s(g39
S':'
tp4683
F47
s(Vsilence
g4
tp4684
F1
s(VMarian
g10
tp4685
F11
s(Vsearcher
g17
tp4686
F1
s(Vcounsaile
g17
tp4687
F2
s(Vloosers
g39
tp4688
F1
s(Vstand
g4
tp4689
F6
s(g81
g395
tp4690
F3
s(Vvery
g28
tp4691
F19
s(Vglad
g53
tp4692
F6
s(Vtruth
g17
tp4693
F2
s(Vsuffered
g63
tp4694
F2
s(Vplaine
g53
tp4695
F1
s(Vworke
g4
tp4696
F1
s(Vwelcome
g53
tp4697
F2
s(g330
g28
tp4698
F4
s(Vconiectured
g63
tp4699
F3
s(Vpamphlet
g17
tp4700
F1
s(Vlet
g53
tp4701
F1
s(Vwordes
g39
tp4702
F1
s(Vgaue
g63
tp4703
F5
s(Vlaught
g17
tp4704
F6
s(Vsent
g17
tp4705
F4
s(Vhie
g37
tp4706
F1
s(Vbeginne
g17
tp4707
F1
s(Vgreefe
g53
tp4708
F1
s(VDiana
g10
tp4709
F1
s(Vhumours
g17
tp4710
F1
s(g454
g452
tp4711
F18
s(Vforgetting
g56
tp4712
F1
s(Vsore
g17
tp4713
F5
s(g112
g755
tp4714
F13
s(VLeather
g10
tp4715
F1
s(Vgentle
g53
tp4716
F1
s(Vout
g234
tp4717
F35
s(VHere
S'RB'
p4718
tp4719
F2
s(Vparted
g63
tp4720
F2
s(Velse
g4
tp4721
F1
s(Vheaded
g12
tp4722
F1
s(Vbonnie
g17
tp4723
F1
s(g141
g112
tp4724
F1
s(Vmischeefe
g39
tp4725
F1
s(VWhy
S'WRB'
p4726
tp4727
F5
s(VNoble
g53
tp4728
F1
s(Vinch
g17
tp4729
F1
s(Vgase
g17
tp4730
F2
s(Vset
g17
tp4731
F1
s(Vready
g53
tp4732
F6
s(Vvppon
g17
tp4733
F2
s(Vadamant
g53
tp4734
F1
s(Vtry
g4
tp4735
F1
s(g141
g47
tp4736
F12
s(Vagaine
g53
tp4737
F3
s(Vmerilie
g53
tp4738
F1
s(Vbottle
g53
tp4739
F1
s(Vscoffe
g17
tp4740
F1
s(Vparticular
g53
tp4741
F1
s(Vbrest
g17
tp4742
F1
s(Vveluet
g17
tp4743
F1
s(Vbidde
g4
tp4744
F1
s(Vbedde
g17
tp4745
F3
s(Vknocke
g37
tp4746
F1
s(VAduersis
g10
tp4747
F1
s(Vsir
g20
tp4748
F1
s(g491
g51
tp4749
F3
s(Vinterteining
g56
tp4750
F1
s(Vspit
g17
tp4751
F1
s(g607
g10
tp4752
F68
s(Vgrasse
g53
tp4753
F1
s(Vwide
S'JJ'
p4754
tp4755
F2
s(VPriors
g39
tp4756
F1
s(Vamongest
g152
tp4757
F2
s(Vdeceipt
g17
tp4758
F1
s(Vwarily
g28
tp4759
F1
s(VOh
g664
tp4760
F7
s(Vproportioned
g12
tp4761
F3
s(Vcouple
g17
tp4762
F3
s(g175
g1938
tp4763
F2
s(Vmaruell
g30
tp4764
F1
s(g187
g56
tp4765
F3
s(Vforgot
g12
tp4766
F1
s(Vsecond
g53
tp4767
F2
s(g3208
g4
tp4768
F3
s(Vfrier
g17
tp4769
F1
s(VDouer
g10
tp4770
F1
s(g127
g3968
tp4771
F1
s(VWhat
g1540
tp4772
F9
s(g37
g91
tp4773
F1
s(g37
g452
tp4774
F10
s(VWould
g10
tp4775
F1
s(Vduncerie
g17
tp4776
F1
s(Vcleane
g30
tp4777
F1
s(Vtill
g17
tp4778
F11
s(Vthou
g4
tp4779
F3
s(Vtruely
g28
tp4780
F3
s(Vwhipt
g30
tp4781
F1
s(g152
g39
tp4782
F7
s(Vfrostie
g17
tp4783
F3
s(Vsolemplie
g17
tp4784
F1
s(g141
g553
tp4785
F17
s(Vglauncing
g56
tp4786
F1
s(Vpromise
g17
tp4787
F4
s(Vtriall
g17
tp4788
F1
s(VApollo
g10
tp4789
F2
s(g112
g418
tp4790
F152
s(S','
g446
tp4791
F8
s(Vextreames
g39
tp4792
F1
s(Vworth
g30
tp4793
F1
s(g112
g546
tp4794
F121
s(Vbeautie
g17
tp4795
F5
s(Vgraft
g4
tp4796
F1
s(Vgiue
g4
tp4797
F9
s(Vwhome
g17
tp4798
F2
s(Vashamed
g12
tp4799
F1
s(Vnuptials
g39
tp4800
F1
s(Vbreefe
g12
tp4801
F1
s(Vbyrd
g17
tp4802
F1
s(Vleysure
g17
tp4803
F1
s(g1124
g867
tp4804
F1
s(Vliues
g39
tp4805
F2
s(Vwher
g28
tp4806
F1
s(Vyoongman
g17
tp4807
F1
s(Vfetcht
g17
tp4808
F1
s(VDaughter
g17
tp4809
F1
s(Vdown
g28
tp4810
F3
s(Vquoth
g37
tp4811
F9
s(Vneuer
g30
tp4812
F2
s(Vbones
g39
tp4813
F1
s(Vworthie
g187
tp4814
F1
s(Vpast
g53
tp4815
F4
s(g234
g328
tp4816
F5
s(Vlaie
g53
tp4817
F1
s(Vwalkt
g37
tp4818
F1
s(S')'
g17
tp4819
F3
s(Vstil
g12
tp4820
F1
s(VSomners
g10
tp4821
F1
s(Vtide
g17
tp4822
F2
s(g546
g141
tp4823
F63
s(Vcasement
g17
tp4824
F3
s(Vperish
g4
tp4825
F2
s(VMagistrate
g10
tp4826
F1
s(Vrake
g4
tp4827
F1
s(VGentlema
g10
tp4828
F1
s(Vhusband
g30
tp4829
F3
s(Vcalde
g17
tp4830
F1
s(Vimagined
g63
tp4831
F1
s(Vwarne
g30
tp4832
F1
s(S','
g850
tp4833
F45
s(Vwakt
g17
tp4834
F1
s(Vblith
g17
tp4835
F1
s(Vprocure
g4
tp4836
F1
s(Vbook
S'NN'
p4837
tp4838
F1
s(Vsomwhat
g12
tp4839
F1
s(Vkeepe
g20
tp4840
F1
s(Vsimple
g17
tp4841
F1
s(Vwant
g4
tp4842
F2
s(Vsquare
g53
tp4843
F1
s(Vcrowd
g17
tp4844
F1
s(Vrested
g63
tp4845
F2
s(VPhisitio
g17
tp4846
F1
s(Vwished
g12
tp4847
F1
s(Vtill
g53
tp4848
F1
s(Veffectually
g28
tp4849
F1
s(S','
S'('
tp4850
F1
s(Vhat
g17
tp4851
F1
s(g452
g56
tp4852
F3
s(Vwoondering
g56
tp4853
F1
s(VHir
g10
tp4854
F5
s(Vpresence
S'NN'
p4855
tp4856
F3
s(VCreame
g10
tp4857
F3
s(Vknockt
g37
tp4858
F1
s(Vsooth
g4
tp4859
F1
s(Vpoore
g17
tp4860
F28
s(Vtil
g234
tp4861
F1
s(Vtaken
S'VBN'
p4862
tp4863
F11
s(Vwrit
g17
tp4864
F1
s(Vgaust
g30
tp4865
F1
s(Vhere
S'RB'
p4866
tp4867
F14
s(Vapples
g39
tp4868
F1
s(Vfancie
g17
tp4869
F3
s(Vtie
g4
tp4870
F1
s(Vdowne
g30
tp4871
F1
s(VRowland
g10
tp4872
F57
s(Vpart
S'NN'
p4873
tp4874
F11
s(Vpatientlie
g30
tp4875
F1
s(VGoodfellow
g10
tp4876
F4
s(Vsoong
g37
tp4877
F1
s(VMy
g22
tp4878
F1
s(Vmadde
g17
tp4879
F1
s(Vone
g187
tp4880
F51
s(Vfees
S'NNS'
p4881
tp4882
F1
s(Vdiscontented
g12
tp4883
F3
s(Vmaketh
g63
tp4884
F1
s(VCuckold
g12
tp4885
F1
s(g39
g39
tp4886
F16
s(Vmothers
g39
tp4887
F1
s(g20
g17
tp4888
F3
s(VClownes
g10
tp4889
F1
s(Vblew
g63
tp4890
F2
s(Vbetweene
g30
tp4891
F2
s(Vhart
g17
tp4892
F4
s(V)
S')'
tp4893
F40
s(Vblood
g17
tp4894
F1
s(Vwild
g53
tp4895
F1
s(Vscapt
g17
tp4896
F1
s(Vespying
g56
tp4897
F1
s(Vstolne
g56
tp4898
F1
s(Valiue
g53
tp4899
F1
s(Vpen
g53
tp4900
F2
s(VProctor
g17
tp4901
F1
s(Vconceited
g53
tp4902
F1
s(VFathers
g39
tp4903
F2
s(VMaisters
g10
tp4904
F1
s(g1124
g39
tp4905
F1
s(Vsee
g17
tp4906
F1
s(g86
g3533
tp4907
F5
s(V4
S'CD'
p4908
tp4909
F2
s(Vwhatsoeuer
g4
tp4910
F1
s(Vmans
g53
tp4911
F1
s(Vgesse
g30
tp4912
F1
s(VMany
g53
tp4913
F1
s(g452
g309
tp4914
F68
s(Vbutterflies
g39
tp4915
F1
s(Vgiuen
g4
tp4916
F1
s(Vkinges
g37
tp4917
F1
s(Vscarse
g17
tp4918
F3
s(Vchildren
g1325
tp4919
F2
s(Vburne
g234
tp4920
F1
s(Vfortunes
g37
tp4921
F1
s(Vthou
g328
tp4922
F1
s(Veyes
g39
tp4923
F1
s(Vvnto
g234
tp4924
F5
s(g127
g39
tp4925
F1
s(Vfreends
g39
tp4926
F1
s(g152
g491
tp4927
F7
s(Vwhie
g17
tp4928
F1
s(g10
g1998
tp4929
F22
s(Vchafe
g53
tp4930
F1
s(Vcredit
S'NN'
p4931
tp4932
F6
s(Vwhereby
g17
tp4933
F2
s(Vsake
g30
tp4934
F4
s(Vread
g4
tp4935
F1
s(Vdurst
g30
tp4936
F1
s(Vsleepe
g4
tp4937
F1
s(Vlaught
g28
tp4938
F1
s(Vsailde
g53
tp4939
F1
s(Vespied
g63
tp4940
F3
s(Vexample
S'NN'
p4941
tp4942
F2
s(VVulcan
g10
tp4943
F1
s(Vhasted
g63
tp4944
F1
s(S'('
g105
tp4945
F8
s(Vnone
g28
tp4946
F1
s(Vwilt
g17
tp4947
F2
s(Vrecompensed
g12
tp4948
F1
s(g4
g58
tp4949
F6
s(Vpoint
g17
tp4950
F1
s(Vcertaine
g53
tp4951
F1
s(Vfeare
g4
tp4952
F1
s(Vnature
g53
tp4953
F1
s(Vchamber
g17
tp4954
F14
s(Vfrenzie
g17
tp4955
F1
s(VLatin
g10
tp4956
F1
s(g949
g152
tp4957
F4
s(Vpots
g39
tp4958
F1
s(Vmase
g17
tp4959
F2
s(g309
g39
tp4960
F154
s(VWestminster
g10
tp4961
F1
s(g418
g127
tp4962
F13
s(Vdowne
g53
tp4963
F1
s(Vgetting
S'VBG'
p4964
tp4965
F1
s(Vthinke
g234
tp4966
F1
s(g28
g63
tp4967
F68
s(Vamends
g39
tp4968
F1
s(Vbrowantler
g17
tp4969
F1
s(VSmiths
g10
tp4970
F13
s(Vdiscoursed
g63
tp4971
F1
s(Vwakens
g37
tp4972
F1
s(Vturnd
g53
tp4973
F1
s(Vhalfepenny
g17
tp4974
F1
s(Vlamented
g12
tp4975
F1
s(Vyt
g17
tp4976
F8
s(Vsorry
g53
tp4977
F2
s(Vpriuate
g17
tp4978
F2
s(Vpleasant
g17
tp4979
F3
s(g12
S','
tp4980
F51
s(g17
g58
tp4981
F5
s(Vespecially
S'RB'
p4982
tp4983
F5
s(Vanswere
g28
tp4984
F1
s(g112
g12
tp4985
F4
s(Vhospitals
g39
tp4986
F1
s(Vseeing
g56
tp4987
F37
s(Vlate
g53
tp4988
F1
s(Vappointed
g12
tp4989
F4
s(Vthink
g30
tp4990
F1
s(Vshed
g53
tp4991
F1
s(Vwelcommed
g63
tp4992
F1
s(g1266
g39
tp4993
F34
s(Vdye
g4
tp4994
F1
s(Vlying
g56
tp4995
F1
s(S','
g91
tp4996
F51
s(Vso
g28
tp4997
F167
s(Vwilie
g17
tp4998
F1
s(Vgotten
g12
tp4999
F1
s(Vbrother
g17
tp5000
F1
s(Vcarrie
g4
tp5001
F2
s(Vcounsell
g17
tp5002
F1
s(Vrighter
g17
tp5003
F1
s(Vprettie
g17
tp5004
F1
s(Vchose
g63
tp5005
F1
s(Vknauery
g17
tp5006
F1
s(VLearning
g56
tp5007
F1
s(Vacquaint
g4
tp5008
F1
s(VCuckow
g10
tp5009
F2
s(Vraine
g17
tp5010
F3
s(VCloake
g10
tp5011
F1
s(Vfamiliars
g39
tp5012
F1
s(Vsacke
g17
tp5013
F7
s(Vripen
g4
tp5014
F1
s(Vthanked
g63
tp5015
F2
s(Vtrembling
g17
tp5016
F1
s(VAll
g141
tp5017
F2
s(Vdoing
g4411
tp5018
F1
s(Vintreate
g4
tp5019
F1
s(Vwoman
S'NN'
p5020
tp5021
F37
s(Vware
g4
tp5022
F1
s(g12
g10
tp5023
F8
s(Vexpectation
g17
tp5024
F1
s(Vmarred
g12
tp5025
F1
s(Vrepentant
g17
tp5026
F1
s(Vsnout
g17
tp5027
F1
s(g91
g452
tp5028
F1
s(Vdisguised
g12
tp5029
F1
s(g28
g39
tp5030
F3
s(Vwhereupon
g234
tp5031
F2
s(VPrinciples
g10
tp5032
F1
s(Vvow
g17
tp5033
F1
s(Vdormatiue
g53
tp5034
F1
s(VOf
S'IN'
p5035
tp5036
F8
s(Vcrie
g30
tp5037
F1
s(Vdally
g28
tp5038
F1
s(Vkissing
g56
tp5039
F2
s(Vinto
g1118
tp5040
F49
s(VChaos
g10
tp5041
F1
s(Vconueied
g12
tp5042
F2
s(g10
g605
tp5043
F23
s(g664
g141
tp5044
F1
s(VSunshine
g10
tp5045
F1
s(Vpatterne
g17
tp5046
F1
s(Vcausing
g56
tp5047
F1
s(Vbitter
g53
tp5048
F1
s(VHee
g10
tp5049
F1
s(Vimpossible
g53
tp5050
F1
s(g4726
g305
tp5051
F2
s(Vbringing
g56
tp5052
F1
s(Vfayre
g53
tp5053
F1
s(VLunaticke
g10
tp5054
F3
s(Vproba
g17
tp5055
F1
s(Vtoken
g17
tp5056
F3
s(Vshadowe
g17
tp5057
F1
s(Valone
g53
tp5058
F1
s(Vcasting
g56
tp5059
F1
s(Vdishonour
g17
tp5060
F1
s(Vreading
g56
tp5061
F1
s(Vmaruailed
g63
tp5062
F1
s(VAnd
g863
tp5063
F45
s(Vconceald
g37
tp5064
F1
s(Vbethought
g63
tp5065
F2
s(Vdore
g17
tp5066
F12
s(VCabridge
g10
tp5067
F1
s(g546
S':'
tp5068
F30
s(Vdrinke
g4
tp5069
F2
s(g47
g152
tp5070
F1
s(Vforwarde
g53
tp5071
F1
s(Vdoone
g17
tp5072
F1
s(g4
g4
tp5073
F19
s(Venter
g30
tp5074
F1
s(Vcondemnes
g39
tp5075
F1
s(g81
g850
tp5076
F2
s(Vcredite
g17
tp5077
F1
s(VSouthwarke
g10
tp5078
F1
s(Vbald
g17
tp5079
F1
s(g3431
S')'
tp5080
F5
s(Vbusinesse
g17
tp5081
F2
s(g112
S'('
tp5082
F1
s(Vputting
S'VBG'
p5083
tp5084
F2
s(Vviewed
g63
tp5085
F1
s(VLady
g10
tp5086
F1
s(Vpurgatory
g17
tp5087
F6
s(Vfaire
g17
tp5088
F21
s(VPalace
g10
tp5089
F1
s(VDomus
g10
tp5090
F1
s(g39
g56
tp5091
F14
s(VVVhen
g10
tp5092
F1
s(Vreuenged
g12
tp5093
F4
s(Vgrasse
g17
tp5094
F3
s(Vpasse
g37
tp5095
F1
s(Vwhome
g4
tp5096
F1
s(Vfoolishly
g28
tp5097
F1
s(Vpuld
g30
tp5098
F1
s(Vchase
g17
tp5099
F1
s(Vdeepe
g53
tp5100
F1
s(Vsorrowed
g63
tp5101
F1
s(VYes
g664
tp5102
F2
s(g175
g452
tp5103
F1
s(Vcease
g17
tp5104
F1
s(Vlaughing
g30
tp5105
F1
s(VPoetrie
g10
tp5106
F1
s(VA
g141
tp5107
F6
s(Vsitting
g56
tp5108
F5
s(VCuckows
g10
tp5109
F1
s(Vope
g17
tp5110
F1
s(VMaisters
g39
tp5111
F5
s(VPernassus
g10
tp5112
F1
s(Vaie
g37
tp5113
F1
s(Vsecrecie
g39
tp5114
F1
s(Vlineaments
g39
tp5115
F1
s(Vchat
g4
tp5116
F3
s(g546
g446
tp5117
F186
s(g270
g91
tp5118
F4
s(g1198
g418
tp5119
F1
s(Vsailes
g39
tp5120
F2
s(g56
g1926
tp5121
F23
s(Vneighbours
g39
tp5122
F17
s(VRuffler
g10
tp5123
F1
s(Vmercie
g20
tp5124
F1
s(Vcals
g39
tp5125
F1
s(Vtooke
g17
tp5126
F3
s(Vpound
S'NN'
p5127
tp5128
F1
s(Vmultitude
g17
tp5129
F1
s(Vcruse
g17
tp5130
F1
s(Vredresse
g63
tp5131
F1
s(g127
g10
tp5132
F2
s(S':'
g86
tp5133
F22
s(Vweene
g30
tp5134
F2
s(Vwhome
g53
tp5135
F1
s(Vcharm
g17
tp5136
F1
s(VConcubines
g10
tp5137
F1
s(Vshewe
g17
tp5138
F1
s(Vlife
S'NN'
p5139
tp5140
F14
s(Vprattle
g53
tp5141
F1
s(Vcease
g4
tp5142
F1
s(Vvnde
g17
tp5143
F1
s(Vstir
g17
tp5144
F2
s(S'('
g374
tp5145
F1
s(g374
g621
tp5146
F2
s(Vconsideration
g17
tp5147
F1
s(VConuocation
g10
tp5148
F1
s(g53
g30
tp5149
F3
s(VWine
g10
tp5150
F2
s(Vdronke
g17
tp5151
F1
s(g12
g949
tp5152
F126
s(Vpromise
g4
tp5153
F2
s(Vresorted
g63
tp5154
F1
s(Vdraw
g4
tp5155
F1
s(Vleads
g37
tp5156
F1
s(g446
g4
tp5157
F258
s(g141
g418
tp5158
F26
s(VGoddesse
g10
tp5159
F1
s(VCan
g755
tp5160
F1
s(Vcoulde
g63
tp5161
F1
s(VSoueraignty
g10
tp5162
F1
s(S')'
g112
tp5163
F9
s(Vshade
g17
tp5164
F1
s(Vsuffred
g63
tp5165
F1
s(Vnoses
g39
tp5166
F1
s(Vamend
g4
tp5167
F1
s(Voffence
g17
tp5168
F4
s(g28
g56
tp5169
F29
s(VMizaldoes
g10
tp5170
F1
s(Vgaue
g37
tp5171
F1
s(Vbeyond
S'IN'
p5172
tp5173
F1
s(Vheard
g63
tp5174
F13
s(Vhold
g30
tp5175
F3
s(VTherfore
g546
tp5176
F1
s(S':'
g949
tp5177
F79
s(VFleet
g10
tp5178
F1
s(VSo
g10
tp5179
F1
s(Vsmile
g17
tp5180
F3
s(VScholler
g17
tp5181
F1
s(VOrisons
g127
tp5182
F1
s(VSmith
g3431
tp5183
F64
s(Vforce
g17
tp5184
F5
s(Vnowe
g28
tp5185
F2
s(Vone
g17
tp5186
F4
s(Vblowing
g17
tp5187
F1
s(g63
g452
tp5188
F125
s(g17
g152
tp5189
F1
s(Vma
g17
tp5190
F1
s(Vsimple
g53
tp5191
F6
s(VZantippa
g10
tp5192
F3
s(Vwaxe
g4
tp5193
F1
s(Vglauncst
g63
tp5194
F1
s(g12
g53
tp5195
F12
s(VLouer
g10
tp5196
F3
s(Vhath
g17
tp5197
F19
s(Vfraternity
g17
tp5198
F1
s(VHampe
g10
tp5199
F1
s(g28
S'('
tp5200
F5
s(Vhate
g17
tp5201
F2
s(Vall
g141
tp5202
F112
s(g330
S'.'
tp5203
F2
s(Vvalew
g17
tp5204
F1
s(Vworkes
g39
tp5205
F1
s(Vbeat
g4
tp5206
F1
s(Vvenison
g17
tp5207
F1
s(VUniuersities
g39
tp5208
F1
s(Vdiuerse
g4
tp5209
F1
s(Vanad
g53
tp5210
F1
s(Vcolde
g17
tp5211
F2
s(VNo
g141
tp5212
F6
s(g39
g30
tp5213
F74
s(Vhalfe
g53
tp5214
F1
s(Vsaluted
g12
tp5215
F1
s(g17
g330
tp5216
F1
s(g30
g4
tp5217
F14
s(Vwindow
g17
tp5218
F3
s(Vcorporis
g17
tp5219
F1
s(Vruminating
g56
tp5220
F1
s(Vwell
g28
tp5221
F49
s(Vaccompting
g56
tp5222
F1
s(Vwie
g17
tp5223
F1
s(Vwarre
g4
tp5224
F1
s(g53
g17
tp5225
F672
s(Vmornnig
g39
tp5226
F1
s(Vsyr
g17
tp5227
F5
s(VOn
S'IN'
p5228
tp5229
F1
s(Vpotion
g17
tp5230
F3
s(Vnose
g17
tp5231
F4
s(Vmake
g4
tp5232
F31
s(VArt
g17
tp5233
F2
s(Vwarm
g63
tp5234
F1
s(Vfauoured
g63
tp5235
F2
s(Vwalles
g39
tp5236
F1
s(Vsufficient
g53
tp5237
F3
s(Vsweet
g17
tp5238
F1
s(Vwed
g4
tp5239
F1
s(Vreioiced
g63
tp5240
F1
s(Vquoth
g17
tp5241
F17
s(Vlore
g17
tp5242
F1
s(Vgrowne
g17
tp5243
F1
s(VWhere
g97
tp5244
F2
s(Vasses
g39
tp5245
F1
s(V:
S':'
tp5246
F497
s(S','
g642
tp5247
F5
s(Vprose
g17
tp5248
F1
s(g63
g1124
tp5249
F1
s(Vfisht
g17
tp5250
F1
s(VArtes
g10
tp5251
F1
s(VSike
g10
tp5252
F1
s(Vdeuised
g53
tp5253
F1
s(Vconiecturing
g56
tp5254
F1
s(Vsawe
g30
tp5255
F2
s(Vstaring
g56
tp5256
F1
s(Vhunger
g17
tp5257
F1
s(Vdeuised
g12
tp5258
F1
s(Vrest
g4
tp5259
F1
s(Vthinking
g56
tp5260
F4
s(VAustins
g10
tp5261
F1
s(Vdemaunde
g17
tp5262
F1
s(Vthither
g17
tp5263
F2
s(Vheard
g28
tp5264
F1
s(Vblythe
g17
tp5265
F1
s(VCountrie
g10
tp5266
F1
s(Vile
g53
tp5267
F1
s(g56
g1239
tp5268
F37
s(Vwoone
g17
tp5269
F1
s(VOne
g187
tp5270
F1
s(Vwise
g17
tp5271
F4
s(Vconceiues
g39
tp5272
F1
s(Vphesant
g17
tp5273
F1
s(VGraues
g10
tp5274
F1
s(Vsuspicion
g17
tp5275
F1
s(Vprofite
g17
tp5276
F1
s(Vstoutly
g28
tp5277
F1
s(Vamong
S'IN'
p5278
tp5279
F1
s(g1524
g328
tp5280
F1
s(Vthought
g53
tp5281
F1
s(Vtel
g4
tp5282
F4
s(Vpigge
g17
tp5283
F1
s(Vstrong
S'JJ'
p5284
tp5285
F5
s(Vdelight
g17
tp5286
F1
s(Vdesires
g39
tp5287
F5
s(VYet
g10
tp5288
F1
s(Vall
g58
tp5289
F35
s(Vdrink
g17
tp5290
F1
s(Vbefell
g17
tp5291
F2
s(Vpulled
g63
tp5292
F1
s(VMarshe
g10
tp5293
F1
s(Vset
g12
tp5294
F4
s(g664
g17
tp5295
F2
s(V5
S'CD'
p5296
tp5297
F2
s(VRowland
g17
tp5298
F3
s(g53
S'.'
tp5299
F18
s(Vyt
g546
tp5300
F2
s(Vsooner
g17
tp5301
F3
s(Vtown
S'NN'
p5302
tp5303
F2
s(VLeman
g10
tp5304
F1
s(g374
g53
tp5305
F3
s(Vheard
g17
tp5306
F1
s(Vquarter
S'NN'
p5307
tp5308
F1
s(Vfulfill
g4
tp5309
F1
s(Vreacht
g17
tp5310
F2
s(Vnobles
g39
tp5311
F1
s(Vearnestly
g28
tp5312
F4
s(Vouer
g28
tp5313
F3
s(Vkingdome
g17
tp5314
F5
s(Vnay
g17
tp5315
F2
s(Vwrit
g37
tp5316
F2
s(Vdinner
g4
tp5317
F3
s(Vreport
g17
tp5318
F3
s(Vbed
g12
tp5319
F2
s(Vhee
g53
tp5320
F18
s(Volde
g17
tp5321
F6
s(Vhir
g22
tp5322
F2
s(Vheauenly
g53
tp5323
F1
s(Vlicense
g17
tp5324
F1
s(Vvilde
g53
tp5325
F1
s(Vdrabs
g17
tp5326
F1
s(Vwent
g470
tp5327
F80
s(Vmorsels
g39
tp5328
F1
s(Vgoe
g4
tp5329
F13
s(Vknowe
g17
tp5330
F2
s(Vanger
g17
tp5331
F3
s(Vgallops
g53
tp5332
F1
s(VGentleman
g10
tp5333
F1
s(Vi.d.ob
g17
tp5334
F1
s(Vas
g234
tp5335
F195
s(VGarden
g10
tp5336
F1
s(Vcall
g4
tp5337
F3
s(g39
g28
tp5338
F21
s(Vmeant
g63
tp5339
F1
s(g112
S'VBP'
p5340
tp5341
F9
s(Vdispute
g4
tp5342
F1
s(Vlesse
g17
tp5343
F1
s(Vmelancholy
g17
tp5344
F2
s(Vcompounded
g63
tp5345
F1
s(Vsought
g63
tp5346
F2
s(Vmusicke
g17
tp5347
F1
s(Vworse
g51
tp5348
F2
s(Vdelights
g39
tp5349
F1
s(VHostes
g10
tp5350
F1
s(Vmaister
g17
tp5351
F4
s(Vsubaudi
g17
tp5352
F1
s(Vlouer
g63
tp5353
F1
s(Vdoe
g37
tp5354
F2
s(g1185
g56
tp5355
F1
s(Vattired
g12
tp5356
F1
s(Vhande
g17
tp5357
F3
s(VCountrey
g10
tp5358
F1
s(Vashamed
g63
tp5359
F1
s(Vdisprooued
g12
tp5360
F1
s(g112
g28
tp5361
F215
s(Vwinne
g53
tp5362
F1
s(Vharme
g17
tp5363
F1
s(VHound
g10
tp5364
F1
s(Vscull
g53
tp5365
F1
s(Vbeginning
g17
tp5366
F2
s(g187
g51
tp5367
F1
s(Vwenches
g37
tp5368
F1
s(VChaucer
g10
tp5369
F5
s(Veies
g39
tp5370
F5
s(Vhowe
g17
tp5371
F2
s(Vlawe
g4
tp5372
F1
s(Vcomfortlesse
g4
tp5373
F1
s(VParis
S'NNP'
p5374
tp5375
F2
s(Vwily
g53
tp5376
F2
s(Vwords
S'NNS'
p5377
tp5378
F4
s(Vconsenting
g17
tp5379
F1
s(Vstond
g17
tp5380
F1
s(Vhearing
g56
tp5381
F9
s(Vfel
g4
tp5382
F1
s(g81
g452
tp5383
F1
s(Vonset
g17
tp5384
F1
s(Velbow
g17
tp5385
F1
s(VDid
g10
tp5386
F1
s(Vinfamous
g53
tp5387
F1
s(Vsupply
g4
tp5388
F1
s(Vvs
g17
tp5389
F3
s(Vloued
g63
tp5390
F14
s(Vturning
g56
tp5391
F1
s(Voccasion
g17
tp5392
F5
s(Vinuention
g17
tp5393
F2
s(Vdegrees
g39
tp5394
F4
s(Vagree
g4
tp5395
F1
s(g10
g249
tp5396
F117
s(Vfro
g53
tp5397
F1
s(Vstil
g17
tp5398
F3
s(Vpostscript
g17
tp5399
F1
s(Vlightly
g28
tp5400
F2
s(Vgiue
g63
tp5401
F1
s(Vsweat
g4
tp5402
F1
s(Vfauouring
g17
tp5403
F1
s(Vbodie
g17
tp5404
F2
s(g39
g1124
tp5405
F2
s(g127
g30
tp5406
F2
s(Vspeak
g4
tp5407
F1
s(g271
g127
tp5408
F3
s(Vmet
g63
tp5409
F5
s(Vskorne
g17
tp5410
F1
s(Vrusht
g17
tp5411
F1
s(Vsmocker
g17
tp5412
F1
s(Vhee
g30
tp5413
F2
s(VRose
g10
tp5414
F1
s(Vlie
g4
tp5415
F5
s(Vflaile
g17
tp5416
F3
s(Vheartily
g28
tp5417
F5
s(S','
g58
tp5418
F4
s(g306
S','
tp5419
F125
s(Vneeded
g63
tp5420
F1
s(g17
g309
tp5421
F11
s(Vtragedie
g17
tp5422
F1
s(Vsheepe
g17
tp5423
F3
s(Vplaine
g30
tp5424
F1
s(Vperemptorily
g28
tp5425
F1
s(Vquoth
g56
tp5426
F1
s(VVVhich
g10
tp5427
F1
s(Vgracious
g53
tp5428
F3
s(Vpassion
g17
tp5429
F2
s(Vsaide
g17
tp5430
F1
s(Vmine
g53
tp5431
F1
s(Vlockes
g39
tp5432
F1
s(Vaffirmde
g17
tp5433
F1
s(VRapier
g10
tp5434
F1
s(Vabused
g53
tp5435
F1
s(Vmate
g17
tp5436
F1
s(Venioy
g4
tp5437
F2
s(Vbrauely
g28
tp5438
F1
s(VGentlewomen
g10
tp5439
F1
s(Vvile
g53
tp5440
F1
s(VAmbrosia
g10
tp5441
F1
s(Vaccorded
g12
tp5442
F1
s(Vdenied
g63
tp5443
F1
s(Vlitle
g17
tp5444
F1
s(g270
g187
tp5445
F3
s(g305
g175
tp5446
F1
s(Vcorrect
g53
tp5447
F1
s(Vbrake
g30
tp5448
F1
s(Vsaith
g17
tp5449
F1
s(S'('
g17
tp5450
F1
s(g63
g546
tp5451
F211
s(Vherein
g17
tp5452
F2
s(Vcountenance
g17
tp5453
F4
s(Vwild
g4
tp5454
F1
s(Vmoone
g17
tp5455
F1
s(Vnomine
g53
tp5456
F1
s(Vable
S'JJ'
p5457
tp5458
F2
s(Vdetermined
g63
tp5459
F2
s(Vthee
g30
tp5460
F1
s(Vconquest
g152
tp5461
F1
s(VTroian
g53
tp5462
F1
s(Vioints
g39
tp5463
F1
s(Vmeanest
g152
tp5464
F1
s(g20
g10
tp5465
F1
s(g1180
g63
tp5466
F13
s(S':'
g309
tp5467
F3
s(Vextremitie
g17
tp5468
F3
s(VLoue
g10
tp5469
F11
s(S','
g20
tp5470
F4
s(Vsix
S'CD'
p5471
tp5472
F1
s(Vsuffers
g37
tp5473
F1
s(Vcollation
g17
tp5474
F1
s(Vpeecing
g17
tp5475
F1
s(Vperiod
S'NN'
p5476
tp5477
F1
s(Vmorrow
g17
tp5478
F5
s(Vpretty
g17
tp5479
F1
s(VMaides
g10
tp5480
F1
s(Vhate
g30
tp5481
F2
s(Vexercise
g17
tp5482
F1
s(Vthe
g418
tp5483
F1146
s(Vbrow
g17
tp5484
F2
s(g30
g330
tp5485
F3
s(Vminded
g63
tp5486
F1
s(Vcount
g30
tp5487
F1
s(Vconuenient
g17
tp5488
F1
s(VCoblers
g10
tp5489
F8
s(Vrationem
g17
tp5490
F1
s(S','
g1370
tp5491
F20
s(Vc.
g53
tp5492
F1
s(VEmbleame
g10
tp5493
F1
s(Vyarde
g53
tp5494
F1
s(g39
g10
tp5495
F8
s(Vheld
g63
tp5496
F4
s(Vearnestlie
g4
tp5497
F1
s(Vcalde
g63
tp5498
F1
s(VIacomins
g10
tp5499
F1
s(Vdescribe
g17
tp5500
F1
s(Vregresse
g17
tp5501
F1
s(Vequall
g28
tp5502
F1
s(Vcan
g3968
tp5503
F21
s(S','
g1180
tp5504
F67
s(Vshal
g53
tp5505
F2
s(VVVhen
g17
tp5506
F1
s(VTitle
g10
tp5507
F1
s(g127
S':'
tp5508
F1
s(Vfame
g17
tp5509
F1
s(Vwitty
g17
tp5510
F1
s(Vshiftes
g39
tp5511
F1
s(Vnature
g17
tp5512
F2
s(Vmist
g30
tp5513
F1
s(Vsi
g17
tp5514
F1
s(Vlynnen
g17
tp5515
F1
s(g91
g4837
tp5516
F26
s(Vdeade
g17
tp5517
F1
s(Vlifted
g63
tp5518
F1
s(Vinsultantem
g17
tp5519
F1
s(g4112
g328
tp5520
F2
s(Vnoted
g12
tp5521
F1
s(Vcranke
g37
tp5522
F1
s(Vbedde
g30
tp5523
F1
s(g20
g447
tp5524
F3
s(Vfarewell
g17
tp5525
F3
s(Vdoe
g4
tp5526
F6
s(g53
g4539
tp5527
F4
s(g63
g20
tp5528
F1
s(Vfrog
g17
tp5529
F1
s(Vborne
g12
tp5530
F1
s(Vsay
g30
tp5531
F10
s(Vpromotion
g17
tp5532
F1
s(Vpocket
g17
tp5533
F3
s(VYet
g28
tp5534
F2
s(Veuery
g141
tp5535
F5
s(Voath
g17
tp5536
F2
s(Vvowe
g17
tp5537
F2
s(Vadmitted
g63
tp5538
F1
s(Vquoth
g127
tp5539
F1
s(VGated
g10
tp5540
F1
s(Vaboue
g30
tp5541
F1
s(Vhumour
g17
tp5542
F4
s(Vfearest
g152
tp5543
F1
s(Vleft
g12
tp5544
F2
s(Vsmothered
g12
tp5545
F2
s(Vthee
g53
tp5546
F4
s(Vhalfe
g17
tp5547
F2
s(Vcommaund
g4
tp5548
F1
s(S')'
g1185
tp5549
F1
s(Vsparres
g39
tp5550
F1
s(Vacquainted
g12
tp5551
F2
s(VHauing
g56
tp5552
F1
s(Vshifted
g12
tp5553
F1
s(Vpicture
g17
tp5554
F1
s(Vbeleeue
g4
tp5555
F1
s(Vhued
g63
tp5556
F1
s(Vte
g17
tp5557
F1
s(Vcoulde
g17
tp5558
F4
s(VNay
g10
tp5559
F2
s(Vglaunces
g39
tp5560
F1
s(Vmyrth
g17
tp5561
F2
s(Vappeare
g17
tp5562
F1
s(Vwednesday
g53
tp5563
F2
s(Violity
g17
tp5564
F1
s(Vhast
g17
tp5565
F5
s(Vfortuned
g63
tp5566
F1
s(Vhim
g270
tp5567
F257
s(Vtourned
g63
tp5568
F1
s(Vtruncke
g17
tp5569
F5
s(Vdescant
g17
tp5570
F2
s(Vabode
g37
tp5571
F1
s(VHostell
g10
tp5572
F3
s(Vaskt
g63
tp5573
F1
s(Vconner
g17
tp5574
F1
s(Vwithout
S'IN'
p5575
tp5576
F22
s(g56
g91
tp5577
F5
s(Vcommaunding
g56
tp5578
F1
s(g330
g91
tp5579
F1
s(Veat
g4
tp5580
F2
s(g452
g17
tp5581
F34
s(Vdeserued
g12
tp5582
F1
s(Vsend
g30
tp5583
F3
s(VSpirit
g10
tp5584
F1
s(VLambe
g10
tp5585
F2
s(Vmace
g17
tp5586
F1
s(Vabidden
g12
tp5587
F1
s(VSun
S'NNP'
p5588
tp5589
F1
s(Vye
g234
tp5590
F1
s(Vmistresse
g17
tp5591
F1
s(Vroialtie
g17
tp5592
F1
s(Vflocking
g56
tp5593
F1
s(Vshift
g4
tp5594
F1
s(Vwomens
g37
tp5595
F2
s(VSeamen
g10
tp5596
F1
s(Vstoode
g17
tp5597
F3
s(VSo
g105
tp5598
F1
s(g546
S','
tp5599
F144
s(Vmendes
g39
tp5600
F1
s(Vwil
g53
tp5601
F1
s(Vthese
S'DT'
p5602
tp5603
F18
s(Vbene
g12
tp5604
F1
s(Vcomedie
g17
tp5605
F2
s(Vthere
g328
tp5606
F41
s(g454
g10
tp5607
F37
s(Vmaruelling
g56
tp5608
F1
s(Vpassionate
g17
tp5609
F2
s(g152
S','
tp5610
F7
s(Vmessenger
g17
tp5611
F1
s(Vlay
g17
tp5612
F6
s(Vshoulde
g53
tp5613
F1
s(VCherrihinton
g10
tp5614
F1
s(VRubie
g10
tp5615
F1
s(g127
g81
tp5616
F1
s(Vcomforted
g12
tp5617
F2
s(Vmy
g309
tp5618
F109
s(Vaccompted
g63
tp5619
F1
s(Vsyr
g4
tp5620
F2
s(Vinstancies
g39
tp5621
F1
s(Vshowre
g17
tp5622
F1
s(Vvnguents
g39
tp5623
F1
s(Viades
g39
tp5624
F1
s(Vtrull
g17
tp5625
F2
s(Vweare
g4
tp5626
F3
s(VLordes
g39
tp5627
F1
s(Vbeforne
g17
tp5628
F1
s(Vcome
g17
tp5629
F2
s(Vsatisfie
g4
tp5630
F3
s(Vwearie
g12
tp5631
F1
s(Vbelly
g28
tp5632
F2
s(Vbeyonde
g234
tp5633
F1
s(g12
g39
tp5634
F6
s(Vfit
g4
tp5635
F1
s(Vpunishing
g56
tp5636
F1
s(Vextremes
g39
tp5637
F1
s(Val
g12
tp5638
F1
s(Vfaine
g53
tp5639
F4
s(Vmaruellous
g53
tp5640
F1
s(Vhill
g17
tp5641
F1
s(Vshelter
g17
tp5642
F1
s(Vvenis
g17
tp5643
F1
s(Vmaister
g4
tp5644
F1
s(Vperform
g4
tp5645
F1
s(Vagaine
g4
tp5646
F2
s(Vin
g867
tp5647
F368
s(Vrunne
g4
tp5648
F1
s(Vpull
g30
tp5649
F1
s(Vaduantage
g17
tp5650
F1
s(Vcut
g63
tp5651
F1
s(Vcompasse
g17
tp5652
F1
s(g10
S'('
tp5653
F13
s(Vsilent
g17
tp5654
F1
s(Vrush
g4
tp5655
F1
s(VRouland
g10
tp5656
F1
s(g47
g234
tp5657
F26
s(VMy
g10
tp5658
F1
s(g73
g53
tp5659
F316
s(VCato
g10
tp5660
F1
s(Vhath
g4
tp5661
F1
s(Vkend
g4
tp5662
F1
s(Vshee
g39
tp5663
F5
s(Vvolly
g28
tp5664
F1
s(Vbee
g30
tp5665
F2
s(Vprotestation
g17
tp5666
F1
s(Vsighes
g39
tp5667
F1
s(Vwagge
g4
tp5668
F1
s(Vhowre
g17
tp5669
F1
s(Vdoo
g37
tp5670
F1
s(VNeighbours
g10
tp5671
F1
s(Vtyed
g63
tp5672
F1
s(g4
g470
tp5673
F10
s(VPamphlet
g17
tp5674
F1
s(Vprooue
g17
tp5675
F1
s(Vlaughing
g17
tp5676
F3
s(VPowdred
g10
tp5677
F1
s(g73
g56
tp5678
F13
s(Vquoth
g4
tp5679
F12
s(Vopportunity
S'NN'
p5680
tp5681
F2
s(Vtis
g53
tp5682
F1
s(g270
S'.'
tp5683
F21
s(Vyoong
g53
tp5684
F4
s(Vfollies
g39
tp5685
F2
s(Vwrit
g63
tp5686
F2
s(Vkept
g53
tp5687
F1
s(Vcraued
g63
tp5688
F2
s(Vesse
g17
tp5689
F1
s(Vdiscoursing
g56
tp5690
F2
s(Veuer
g4
tp5691
F2
s(Vspit
g4
tp5692
F2
s(Vdigestion
g17
tp5693
F1
s(Vneeds
g4
tp5694
F2
s(Vcertaine
g4
tp5695
F1
s(Vblades
g39
tp5696
F1
s(Vcheare
g17
tp5697
F1
s(Vconsumed
g12
tp5698
F1
s(Vgan
g755
tp5699
F1
s(Vhelde
g53
tp5700
F1
s(g186
g4866
tp5701
F57
s(VIuno
g10
tp5702
F1
s(Vforgiuen
g17
tp5703
F1
s(g30
g51
tp5704
F2
s(g330
g4
tp5705
F1
s(Vpersuaded
g63
tp5706
F1
s(Vwelcome
g4
tp5707
F1
s(Vcontent
g17
tp5708
F4
s(Vcarry
g30
tp5709
F1
s(VProcter
g10
tp5710
F1
s(Vbeare
g4
tp5711
F2
s(VSeated
g12
tp5712
F1
s(Vcheer
g17
tp5713
F1
s(VTrumpe
g17
tp5714
F1
s(g755
g63
tp5715
F4
s(Vvndid
g4
tp5716
F1
s(Vgriefe
g17
tp5717
F3
s(g39
g97
tp5718
F2
s(Vfleas
g39
tp5719
F4
s(g47
g12
tp5720
F19
s(VTurtle
g10
tp5721
F1
s(g39
g305
tp5722
F66
s(VForge
g10
tp5723
F1
s(Vwomen
S'NNS'
p5724
tp5725
F5
s(Vclapt
g30
tp5726
F1
s(Ventring
g56
tp5727
F1
s(Vthinke
g30
tp5728
F10
s(Vrussling
g17
tp5729
F1
s(Vsound
g53
tp5730
F1
s(VYours
g39
tp5731
F3
s(Vhelpe
g37
tp5732
F1
s(Vreadie
g30
tp5733
F1
s(Vbeauty
g17
tp5734
F4
s(Vbanisht
g12
tp5735
F1
s(Vscorn
g53
tp5736
F1
s(Vwoulde
g39
tp5737
F2
s(Vthose
g4158
tp5738
F3
s(VAssoone
g28
tp5739
F3
s(g1540
S'.'
tp5740
F2
s(Vmaners
g39
tp5741
F1
s(Vwhipping
g56
tp5742
F2
s(Viesting
g17
tp5743
F1
s(Vsiluer
g17
tp5744
F1
s(Vdefloure
g4
tp5745
F1
s(Vseeme
g4
tp5746
F2
s(Viogd
g53
tp5747
F1
s(Vplots
g39
tp5748
F1
s(Vconuey
g4
tp5749
F2
s(VMuse
g17
tp5750
F1
s(Vreadinesse
g17
tp5751
F1
s(Vcontaining
g56
tp5752
F1
s(V?
S'.'
tp5753
F74
s(Vpittance
g17
tp5754
F1
s(Vneither
g28
tp5755
F1
s(g1124
g17
tp5756
F1
s(Vstile
g17
tp5757
F1
s(Vmerrily
g28
tp5758
F2
s(Vpould
g12
tp5759
F1
s(Vhomely
g28
tp5760
F1
s(Vforsooth
g17
tp5761
F2
s(g105
g328
tp5762
F5
s(Vstraw
g17
tp5763
F1
s(Vthicke
g17
tp5764
F1
s(VWhereon
g10
tp5765
F1
s(Vwaxed
g63
tp5766
F3
s(g39
S'('
tp5767
F2
s(Vsometimes
g28
tp5768
F5
s(Vneuer
g53
tp5769
F4
s(Vamende
g4
tp5770
F1
s(VHome
g10
tp5771
F1
s(Vsapientem
g4
tp5772
F1
s(g452
g58
tp5773
F1
s(Vfast
g63
tp5774
F1
s(Vshalbe
g20
tp5775
F1
s(Vlike
g53
tp5776
F7
s(Vhatches
g39
tp5777
F1
s(Vconcourse
g17
tp5778
F2
s(Vstoode
g63
tp5779
F2
s(Vtoucht
g4
tp5780
F1
s(Vexceeded
g63
tp5781
F1
s(VCould
g10
tp5782
F1
s(VVVell
g10
tp5783
F1
s(g30
g63
tp5784
F7
s(Vnecesse
g17
tp5785
F1
s(Vwomens
g39
tp5786
F1
s(Vstill
g1166
tp5787
F15
s(Vsuch
g58
tp5788
F18
s(Vgranted
g63
tp5789
F1
s(VEuen
g10
tp5790
F1
s(Vmerry
g17
tp5791
F9
s(Vcopanions
g39
tp5792
F1
s(Vproclaming
g56
tp5793
F1
s(Vbetter
g1124
tp5794
F1
s(Vchopt
g17
tp5795
F1
s(VLord
g10
tp5796
F9
s(Vopportunitie
g53
tp5797
F1
s(Vgraue
g17
tp5798
F3
s(VGentlemen
g39
tp5799
F2
s(Vknocking
g56
tp5800
F2
s(VAlcmena
g10
tp5801
F1
s(Vcommaunded
g12
tp5802
F1
s(g28
g10
tp5803
F23
s(Vshouldred
g63
tp5804
F1
s(Vtherein
g28
tp5805
F1
s(Vattyred
g63
tp5806
F1
s(Vfellows
g39
tp5807
F2
s(Vwoonted
g53
tp5808
F2
s(Venough
g28
tp5809
F4
s(Vhouses
S'NNS'
p5810
tp5811
F4
s(VIacomin
g10
tp5812
F20
s(Vlitle
g53
tp5813
F4
s(Vsees
g37
tp5814
F1
s(Vonely
g28
tp5815
F13
s(Vwisht
g17
tp5816
F2
s(Vyea
g17
tp5817
F2
s(Vreueale
g17
tp5818
F1
s(g452
S'.'
tp5819
F1
s(Vsortes
g39
tp5820
F1
s(Vwoulde
g63
tp5821
F1
s(Vwrite
g4
tp5822
F1
s(Vcomparisons
g39
tp5823
F1
s(Vcunninglie
g17
tp5824
F1
s(Vbegun
S'VBN'
p5825
tp5826
F1
s(Vdumpe
g17
tp5827
F2
s(VTitle
g17
tp5828
F1
s(Vspot
g17
tp5829
F1
s(VAwdrey
g10
tp5830
F12
s(Vway
g3224
tp5831
F18
s(Vsundrie
g17
tp5832
F1
s(Vnaie
g28
tp5833
F1
s(Vwin
g4
tp5834
F1
s(Vashamde
g53
tp5835
F2
s(g127
g418
tp5836
F1
s(VRumney
g10
tp5837
F1
s(g17
g454
tp5838
F186
s(Vwept
g12
tp5839
F1
s(Vvp
g4
tp5840
F4
s(VBillinsgate
g10
tp5841
F1
s(Vtied
g12
tp5842
F1
s(Vfeared
g63
tp5843
F1
s(g642
g584
tp5844
F4
s(Voyles
g39
tp5845
F1
s(Vsite
S'NN'
p5846
tp5847
F1
s(Vholding
g56
tp5848
F1
s(Vwoont
g12
tp5849
F1
s(VSante
g10
tp5850
F1
s(VBanckeside
g10
tp5851
F1
s(g234
g37
tp5852
F5
s(VCome
g10
tp5853
F1
s(VPlowman
g10
tp5854
F1
s(g234
g452
tp5855
F16
s(Vinduce
g30
tp5856
F1
s(Vheauily
g28
tp5857
F1
s(Vdreames
g39
tp5858
F1
s(Vhould
g58
tp5859
F1
s(Vsupper
g17
tp5860
F3
s(Vmerrie
g53
tp5861
F1
s(Vdie
g17
tp5862
F1
s(Vdifference
S'NN'
p5863
tp5864
F1
s(Vtooke
g12
tp5865
F1
s(VFarmars
g10
tp5866
F2
s(Vsenses
g39
tp5867
F2
s(Vcommest
g152
tp5868
F1
s(Viurisdiction
g17
tp5869
F1
s(Vtake
g12
tp5870
F1
s(Vsent
g12
tp5871
F2
s(Vcuckold
g4
tp5872
F1
s(Vgraciouslie
g30
tp5873
F1
s(S','
g51
tp5874
F1
s(g28
S'.'
tp5875
F23
s(g418
g10
tp5876
F517
s(Vhowse
g17
tp5877
F2
s(Vmuse
g4
tp5878
F1
s(Vamitie
g17
tp5879
F1
s(Vdescribe
g37
tp5880
F1
s(g607
g56
tp5881
F2
s(Vthought
g17
tp5882
F4
s(g81
g39
tp5883
F1
s(Vnimble
g53
tp5884
F1
s(Vsweete
g53
tp5885
F8
s(VMickle
g10
tp5886
F2
s(Vhast
g63
tp5887
F1
s(VMoonke
g10
tp5888
F1
s(Vopened
g12
tp5889
F2
s(Vheard
g22
tp5890
F1
s(Vcutte
g4
tp5891
F1
s(Vvpo
g17
tp5892
F1
s(Vmother
g28
tp5893
F1
s(Vegresse
g17
tp5894
F1
s(Vabroade
g17
tp5895
F1
s(Vscarse
g4
tp5896
F3
s(Vintreated
g12
tp5897
F1
s(Vcarried
g63
tp5898
F5
s(Vhome
g17
tp5899
F49
s(Vsoeuer
g17
tp5900
F2
s(Vrise
g17
tp5901
F2
s(Vswearing
g56
tp5902
F2
s(Vholy
g53
tp5903
F4
s(g755
g605
tp5904
F16
s(g1027
g515
tp5905
F3
s(Vbourded
g12
tp5906
F1
s(Vowne
g17
tp5907
F2
s(Vscorne
g17
tp5908
F1
s(VTruely
g28
tp5909
F1
s(Vand
g112
tp5910
F982
s(Vcommitted
g63
tp5911
F1
s(VInde
g10
tp5912
F1
s(Vpot
g17
tp5913
F3
s(Vwage
S'NN'
p5914
tp5915
F1
s(Vbehauiour
g17
tp5916
F1
s(Vchat
g17
tp5917
F2
s(Vfurther
g53
tp5918
F3
s(Vmaken
g4
tp5919
F1
s(Vpasse
g17
tp5920
F2
s(g20
g20
tp5921
F1
s(Vmaides
g39
tp5922
F1
s(VCaunterbury
g10
tp5923
F2
s(VSonne
g10
tp5924
F1
s(Vglowes
g37
tp5925
F1
s(Vpraises
g39
tp5926
F1
s(Vsentence
g17
tp5927
F2
s(Vperpetuall
g17
tp5928
F1
s(Vhome
g28
tp5929
F1
s(VSchollerlike
g10
tp5930
F1
s(Vcrue
g17
tp5931
F1
s(g53
g20
tp5932
F2
s(Vbobde
g53
tp5933
F1
s(g30
g152
tp5934
F1
s(Vcomely
g53
tp5935
F2
s(Vquestions
S'NNS'
p5936
tp5937
F1
s(Vheare
g30
tp5938
F2
s(Vstay
g4
tp5939
F3
s(Vioy
g17
tp5940
F3
s(V(
S'('
tp5941
F41
s(VTaper
g10
tp5942
F1
s(Vdeare
g30
tp5943
F1
s(g1224
g452
tp5944
F46
s(Vtwaine
g17
tp5945
F1
s(Vmarrie
g17
tp5946
F1
s(Vreades
g37
tp5947
F1
s(Vshee
g37
tp5948
F2
s(Vlinnen
g20
tp5949
F1
s(VRedde
g10
tp5950
F1
s(Vproude
g53
tp5951
F1
s(Vcurteous
g53
tp5952
F2
s(Vspeechlesse
g17
tp5953
F1
s(g86
g755
tp5954
F1
s(Vvild
g53
tp5955
F1
s(Vthing
g3411
tp5956
F4
s(Vvnlesse
g20
tp5957
F1
s(Vdeeper
g17
tp5958
F1
s(Vcommaund
g17
tp5959
F2
s(Vstayed
g12
tp5960
F1
s(g491
g127
tp5961
F1
s(Vsmothering
g56
tp5962
F1
s(g28
g755
tp5963
F10
s(Vprofest
g17
tp5964
F1
s(Vboord
g17
tp5965
F1
s(Vpenyworts
g39
tp5966
F1
s(VAs
g234
tp5967
F8
s(Vsheetes
g39
tp5968
F3
s(Vcreame
g17
tp5969
F1
s(Vstarting
g56
tp5970
F1
s(S':'
g454
tp5971
F153
s(V&
g105
tp5972
F156
s(g4
g17
tp5973
F132
s(Vfirst
g53
tp5974
F7
s(Vinquiry
g17
tp5975
F1
s(Vshot
g63
tp5976
F1
s(Vwinding
g17
tp5977
F1
s(g12
g12
tp5978
F5
s(Vgramercie
g53
tp5979
F1
s(Vworking-dayes
g39
tp5980
F2
s(Vparlous
g53
tp5981
F1
s(Viarre
g53
tp5982
F1
s(Vsurely
g28
tp5983
F1
s(g1124
S'.'
tp5984
F3
s(Vintreat
g17
tp5985
F1
s(Vblinded
g53
tp5986
F1
s(Vgentlewoman
g17
tp5987
F4
s(g91
g97
tp5988
F1
s(Vwee
g53
tp5989
F5
s(VPloughswaine
g10
tp5990
F1
s(Vnaked
g12
tp5991
F1
s(Vraised
g63
tp5992
F2
s(Vflocked
g63
tp5993
F2
s(Vstroake
g17
tp5994
F1
s(Vfeast
g17
tp5995
F1
s(Vgleesome
g17
tp5996
F1
s(Vquiddities
g39
tp5997
F1
s(Vhose
g17
tp5998
F2
s(Vshape
g4
tp5999
F1
s(Vpampred
g63
tp6000
F1
s(Vdiscredit
g17
tp6001
F3
s(Vdesired
g12
tp6002
F1
s(VPillory
g10
tp6003
F1
s(Vwil
g30
tp6004
F10
s(Vidlenes
g37
tp6005
F1
s(VSchollers
g127
tp6006
F1
s(Vtied
g63
tp6007
F3
s(g30
S'.'
tp6008
F9
s(Vwel
g17
tp6009
F6
s(Vfie
g17
tp6010
F1
s(Vtestifie
g4
tp6011
F1
s(Vlearning
g56
tp6012
F3
s(VFigures
g39
tp6013
F1
s(Vvnto
g53
tp6014
F2
s(Vlaid
g12
tp6015
F5
s(Vpunish
g4
tp6016
F1
s(Vwhatsoeuer
g37
tp6017
F1
s(Vtherefore
g4
tp6018
F1
s(Vgrowing
g56
tp6019
F1
s(Vdigresse
g30
tp6020
F1
s(Vgrew
S'VBD'
p6021
tp6022
F7
s(Vthought
g63
tp6023
F27
s(Vneighbors
g39
tp6024
F1
s(Vstumbled
g63
tp6025
F2
s(g56
g63
tp6026
F3
s(g10
g20
tp6027
F2
s(Vlowde
g17
tp6028
F1
s(g446
g2826
tp6029
F1
s(Vaduanced
g12
tp6030
F1
s(Vclose
g28
tp6031
F2
s(Vaimed
g12
tp6032
F1
s(g20
g607
tp6033
F3
s(Vtwere
g328
tp6034
F1
s(Vfriendlie
g53
tp6035
F1
s(g1124
g452
tp6036
F2
s(Vranne
g37
tp6037
F1
s(Vassuredly
g28
tp6038
F3
s(Vstampe
g53
tp6039
F1
s(Vlaugh
g17
tp6040
F5
s(g39
g5602
tp6041
F9
s(Vit
g546
tp6042
F188
s(VAdmirall
g10
tp6043
F3
s(Vstone
g17
tp6044
F4
s(Vlist
g30
tp6045
F1
s(VBarke
g10
tp6046
F1
s(Vnutbrowne
g53
tp6047
F1
s(g17
g56
tp6048
F29
s(Vsate
g4
tp6049
F2
s(Vamased
g63
tp6050
F1
s(Vdoe
g17
tp6051
F2
s(Veight
g4539
tp6052
F2
s(Vlouely
g28
tp6053
F2
s(Vbeaten
g17
tp6054
F1
s(Vmaiestrie
g17
tp6055
F1
s(Vsupposeth
g17
tp6056
F1
s(Vbeene
g53
tp6057
F1
s(VSitting
g56
tp6058
F1
s(Vtrudging
g17
tp6059
F1
s(Vspeed
g17
tp6060
F1
s(Vagreeing
g56
tp6061
F1
s(Vthrough
g234
tp6062
F7
s(Vweepe
g30
tp6063
F1
s(g10
g30
tp6064
F14
s(Vkist
g4
tp6065
F2
s(Vfeed
g4
tp6066
F1
s(Vexcept
g234
tp6067
F1
s(Vdescant
g53
tp6068
F1
s(S')'
g605
tp6069
F5
s(Vevery
S'DT'
p6070
tp6071
F1
s(Vhonnie
g17
tp6072
F1
s(Vgan
g37
tp6073
F2
s(VUp
g234
tp6074
F1
s(g1998
g4866
tp6075
F53
s(Vbloud
g17
tp6076
F1
s(Vdoost
g4
tp6077
F1
s(Vdistrackt
g17
tp6078
F1
s(Vdost
g17
tp6079
F2
s(Vexceedingly
g28
tp6080
F1
s(Vwherevpon
g234
tp6081
F1
s(VTowne
g10
tp6082
F3
s(g187
g112
tp6083
F2
s(Vbeeing
g56
tp6084
F5
s(Vpaide
g63
tp6085
F1
s(Vthat
g141
tp6086
F88
s(Vhoure
g17
tp6087
F3
s(Vmansion
g17
tp6088
F1
s(Vsmith
g17
tp6089
F11
s(Vpainted
g53
tp6090
F2
s(Voftentimes
g39
tp6091
F1
s(Vdisgrace
g17
tp6092
F1
s(Vshee
g28
tp6093
F5
s(Vhammers
g39
tp6094
F3
s(Vbacke
g17
tp6095
F7
s(Vfiftie
g17
tp6096
F1
s(Vclowtes
g39
tp6097
F1
s(S','
g152
tp6098
F2
s(g100
g141
tp6099
F6
s(Vrather
g983
tp6100
F8
s(g418
g39
tp6101
F135
s(g364
g127
tp6102
F1
s(Vtables
g39
tp6103
F2
s(Vguestes
g39
tp6104
F1
s(Vnoyse
g17
tp6105
F1
s(Vwherupon
g17
tp6106
F3
s(Vresolued
g63
tp6107
F7
s(Vcare
g17
tp6108
F1
s(Vtoongs
g39
tp6109
F1
s(g330
g452
tp6110
F3
s(Vdeerest
g152
tp6111
F1
s(Vliked
g12
tp6112
F1
s(Vher
g22
tp6113
F27
s(Valone
g28
tp6114
F4
s(VSemelin
g10
tp6115
F1
s(Vquoth
g63
tp6116
F3
s(Vbawdy
g53
tp6117
F1
s(g12
g1124
tp6118
F1
s(Vlighted
g63
tp6119
F1
s(VGallies
g127
tp6120
F1
s(Vended
g12
tp6121
F2
s(Vconiecture
g4
tp6122
F2
s(Vrestore
g4
tp6123
F1
s(Vworke
g17
tp6124
F10
s(Vtimes
g39
tp6125
F3
s(Vwant
g30
tp6126
F2
s(Vgill
g17
tp6127
F1
s(g58
g418
tp6128
F79
s(Vbald
g53
tp6129
F1
s(Vthy
g53
tp6130
F24
s(g56
g58
tp6131
F1
s(g53
g364
tp6132
F4
s(Vlikewise
g28
tp6133
F1
s(Vapron
g17
tp6134
F1
s(Vschollers
g39
tp6135
F9
s(Vconfusion
g17
tp6136
F1
s(Vhighlie
g28
tp6137
F1
s(Vmeanes
g39
tp6138
F8
s(Vhistorie
g17
tp6139
F1
s(Vwhile
g17
tp6140
F6
s(Vleauing
g56
tp6141
F1
s(Vshaking
g56
tp6142
F1
s(Vpaper
S'NN'
p6143
tp6144
F2
s(VTantalus
g10
tp6145
F1
s(Vhundreth
g53
tp6146
F1
s(VChildren
g10
tp6147
F1
s(Vapparell
g17
tp6148
F2
s(Vbeastes
g39
tp6149
F1
s(Vprettie
g53
tp6150
F2
s(g30
g53
tp6151
F47
s(Vashes
g39
tp6152
F1
s(Vlikewise
g4
tp6153
F1
s(Vlockt
g63
tp6154
F1
s(Vwilling
S'JJ'
p6155
tp6156
F2
s(Vsake
g17
tp6157
F3
s(Vloines
g39
tp6158
F1
s(VCuckolds
g10
tp6159
F2
s(Vspoke
g17
tp6160
F1
s(Vwherein
g328
tp6161
F1
s(VHued
g10
tp6162
F1
s(Vsnuffe
g17
tp6163
F1
s(g91
g1224
tp6164
F17
s(Vvisit
g234
tp6165
F1
s(g47
S'('
tp6166
F1
s(Valiue
g17
tp6167
F1
s(Vague
g17
tp6168
F1
s(Vwas
g63
tp6169
F322
s(Vstudie
g17
tp6170
F4
s(Vthither
g28
tp6171
F7
s(Vsackefull
g17
tp6172
F1
s(Vafraid
g53
tp6173
F1
s(Vbowle
g53
tp6174
F1
s(Vwhy
g425
tp6175
F14
s(Vdoo
g4
tp6176
F3
s(Vwinters
g39
tp6177
F1
s(Vvpon
g234
tp6178
F18
s(g37
g30
tp6179
F3
s(Vproportion
g17
tp6180
F1
s(g452
g270
tp6181
F13
s(Vtumbling
g17
tp6182
F1
s(Vdiuorce
g17
tp6183
F1
s(g328
g1370
tp6184
F2
s(Vsapere
g28
tp6185
F1
s(Vcreuise
g17
tp6186
F1
s(g1976
S','
tp6187
F6
s(VChurche
g10
tp6188
F1
s(VBut
S'CC'
p6189
tp6190
F15
s(Vsightes
g39
tp6191
F1
s(Vam
g5340
tp6192
F25
s(Vleast
g152
tp6193
F4
s(Vstrength
S'NN'
p6194
tp6195
F1
s(Vhie
g17
tp6196
F3
s(Vapparrell
g17
tp6197
F7
s(Vpeace
g17
tp6198
F2
s(Vconsumes
g39
tp6199
F1
s(VPhilosopher
g10
tp6200
F2
s(Vprooue
g4
tp6201
F1
s(VPirate
g10
tp6202
F2
s(VMarry
g10
tp6203
F1
s(Vknew
g63
tp6204
F9
s(Vlies
g39
tp6205
F1
s(Vbest
g4
tp6206
F2
s(Vwant
g17
tp6207
F1
s(Vthinking
g17
tp6208
F2
s(Vthis
g1524
tp6209
F161
s(Vwomens
g53
tp6210
F2
s(VNowe
g10
tp6211
F2
s(Vshutting
g56
tp6212
F1
s(g37
g20
tp6213
F1
s(Vdiscredite
g30
tp6214
F1
s(g17
g37
tp6215
F64
s(Vbade
g17
tp6216
F1
s(Vdetermination
g17
tp6217
F2
s(Vlatter
g53
tp6218
F1
s(Vlouer
g17
tp6219
F5
s(Vshoo
g17
tp6220
F1
s(Vwinne
g4
tp6221
F1
s(g4
g91
tp6222
F11
s(Vsorrow
g53
tp6223
F1
s(Veuen
g17
tp6224
F1
s(Vstones
g39
tp6225
F1
s(Vhastily
g28
tp6226
F4
s(Vouer
g17
tp6227
F5
s(Vtruelie
g17
tp6228
F1
s(g452
g1124
tp6229
F1
s(Vbetrothed
g12
tp6230
F2
s(VSquint
g17
tp6231
F1
s(Vthou
g37
tp6232
F1
s(Vonly
g28
tp6233
F2
s(Vbetide
g17
tp6234
F1
s(Vtrue
S'JJ'
p6235
tp6236
F5
s(g141
g4
tp6237
F5
s(Vload
g17
tp6238
F1
s(g10
S','
tp6239
F305
s(S')'
g97
tp6240
F1
s(Vchew
g4
tp6241
F1
s(Vas
g28
tp6242
F45
s(Vfather
g51
tp6243
F1
s(S')'
g2489
tp6244
F3
s.