ccollections
defaultdict
p1
(c__builtin__
float
p2
tRp3
(Vcourse
S'NN'
p4
tp5
F2
s(VFor
S'IN'
p6
tp7
F15
s(S'IN'
p8
S'NN'
p9
tp10
F307
s(VJury
S'NNP'
p11
tp12
F1
s(Vdamned
S'VBD'
p13
tp14
F1
s(Vgoodly
S'RB'
p15
tp16
F1
s(Vswashbucklers
S'NNS'
p17
tp18
F1
s(S'DT'
p19
S'JJS'
p20
tp21
F41
s(VYour
S'PRP$'
p22
tp23
F1
s(Vneighbourhood
g9
tp24
F1
s(Vmortall
g9
tp25
F2
s(Vofficiall
g9
tp26
F1
s(Vknowe
S'VB'
p27
tp28
F1
s(Vagainst
S'IN'
p29
tp30
F18
s(VTo
S'TO'
p31
tp32
F6
s(Vgiue
g9
tp33
F2
s(Vfaults
g17
tp34
F2
s(Vbyrth
g9
tp35
F1
s(Vtyme
g9
tp36
F1
s(Vlicke
g27
tp37
F1
s(Vtherfore
g27
tp38
F1
s(Vcalled
S'VBN'
p39
tp40
F3
s(Vobiect
S'VBP'
p41
tp42
F1
s(g15
S'VBZ'
p43
tp44
F28
s(Vhigher
S'JJR'
p45
tp46
F1
s(VTush
g11
tp47
F2
s(Vlawe
g9
tp48
F1
s(Vstudy
g41
tp49
F1
s(Vemploy
g27
tp50
F1
s(Vtread
g41
tp51
F1
s(Vconscience
g9
tp52
F17
s(Vfantasticall
S'JJ'
p53
tp54
F1
s(Vprotested
g13
tp55
F1
s(g20
S'NNPS'
p56
tp57
F1
s(Vsparing
S'VBG'
p58
tp59
F1
s(Vfaile
g27
tp60
F1
s(Vregarded
g53
tp61
F1
s(Vsoles
g17
tp62
F1
s(Vglouer
g9
tp63
F1
s(S'WDT'
p64
g15
tp65
F3
s(S'IN'
p66
g15
tp67
F27
s(Vimmortall
g27
tp68
F1
s(Vsutes
g17
tp69
F6
s(Vvs
S'FW'
p70
tp71
F1
s(g9
S'DT'
p72
tp73
F63
s(g15
g27
tp74
F96
s(Vtold
g13
tp75
F4
s(Vcouetise
g41
tp76
F1
s(Vhonour
g17
tp77
F2
s(Vaccepted
g39
tp78
F2
s(S'NN'
p79
g64
tp80
F25
s(Vmore
g45
tp81
F21
s(Vboon
g9
tp82
F1
s(g27
g17
tp83
F31
s(Vauthenticall
g9
tp84
F1
s(Vbestow
g43
tp85
F1
s(Vplaid
g39
tp86
F1
s(g11
S'WRB'
p87
tp88
F1
s(Vhomilie
g53
tp89
F1
s(S'WP'
p90
S'VBZ'
p91
tp92
F14
s(g58
g9
tp93
F29
s(Vdebts
g17
tp94
F1
s(Vcirca
g9
tp95
F1
s(Vwhen
S'WRB'
p96
tp97
F57
s(Vwer
g45
tp98
F1
s(S'JJ'
p99
S'MD'
p100
tp101
F3
s(Vfeathers
g17
tp102
F1
s(VInuidus
g11
tp103
F1
s(Vsoules
g43
tp104
F1
s(Vget
g41
tp105
F3
s(S'CC'
p106
S'CC'
p107
tp108
F1
s(Vanye
g53
tp109
F1
s(Vcoloured
g53
tp110
F1
s(g11
S'CC'
p111
tp112
F36
s(Vdeale
g9
tp113
F1
s(Vbrase
g9
tp114
F1
s(g17
g27
tp115
F7
s(Vleather
g106
tp116
F1
s(Vmerrilie
g27
tp117
F1
s(Vobscurely
g15
tp118
F1
s(Vgoeth
g27
tp119
F1
s(VIewell
g11
tp120
F1
s(Vsheeps
g53
tp121
F1
s(Vwork
g9
tp122
F1
s(Vscite
g27
tp123
F1
s(Vspende
g27
tp124
F3
s(Vhearing
g9
tp125
F1
s(Vcholler
g9
tp126
F1
s(VPryse
g11
tp127
F1
s(Vhouldeth
g43
tp128
F1
s(Vfewe
g53
tp129
F2
s(Vaways
g17
tp130
F1
s(VLandelordes
g17
tp131
F1
s(Vyeomen
g17
tp132
F1
s(Vchaunce
g43
tp133
F1
s(Vhospitalitie
g9
tp134
F1
s(Veither
g72
tp135
F3
s(Vdiscourse
g27
tp136
F3
s(Vreturned
g13
tp137
F2
s(S'VBD'
p138
g41
tp139
F2
s(Vacquainted
g13
tp140
F1
s(Vsuckats
g17
tp141
F1
s(Vscriuener
g9
tp142
F1
s(Vlookte
g41
tp143
F1
s(Vveluet
g53
tp144
F7
s(VO
g11
tp145
F1
s(Vcome
g53
tp146
F2
s(Vpride
g9
tp147
F13
s(Vmost
g20
tp148
F6
s(Vpuritan
g9
tp149
F1
s(Vfauores
g17
tp150
F1
s(Vwoonderfull
g9
tp151
F1
s(Vapproues
g43
tp152
F1
s(Vshifte
g9
tp153
F2
s(Vdresse
g41
tp154
F1
s(Vparents
g17
tp155
F2
s(Vblot
g9
tp156
F1
s(VCaualiers
g17
tp157
F1
s(Vattempt
g27
tp158
F1
s(Vformost
g9
tp159
F3
s(g20
S'CD'
p160
tp161
F1
s(S'JJ'
p162
S'WP'
p163
tp164
F2
s(Vpopuli
g43
tp165
F1
s(VTherefore
g15
tp166
F2
s(VLondon
S'NNP'
p167
tp168
F7
s(Vgrown
g39
tp169
F1
s(Vmawes
g9
tp170
F2
s(VDagger
g11
tp171
F1
s(Vsixteen
g53
tp172
F1
s(Vye
g27
tp173
F1
s(Vsides
S'NNS'
p174
tp175
F1
s(Vhir
g15
tp176
F1
s(Vsith
g27
tp177
F1
s(VContent
g11
tp178
F1
s(Vfetcheth
g13
tp179
F1
s(Vskins
g17
tp180
F3
s(Vproue
g43
tp181
F1
s(Vgathered
g13
tp182
F2
s(Vdeuourer
g9
tp183
F1
s(Voppression
g9
tp184
F1
s(Vforren
g53
tp185
F2
s(g27
S'CD'
p186
tp187
F14
s(Vbids
g17
tp188
F1
s(Vinfourmer
g9
tp189
F1
s(Vloath
g41
tp190
F1
s(Vbadly
g15
tp191
F1
s(Vrich
g53
tp192
F3
s(Vstolne
g27
tp193
F1
s(Vleft
g9
tp194
F1
s(Veyther
g15
tp195
F1
s(Vhandes
g17
tp196
F1
s(Vruine
g27
tp197
F1
s(Vchamberlain
g9
tp198
F1
s(Viet
g27
tp199
F2
s(Vhearbe
g53
tp200
F1
s(Vsayd
g13
tp201
F1
s(Vcracke
g27
tp202
F1
s(VAdder
g11
tp203
F1
s(VPride
g11
tp204
F1
s(Vbreefe
g53
tp205
F3
s(Vpossible
S'JJ'
p206
tp207
F3
s(Vcountenaunce
g9
tp208
F1
s(Vwitlesse
g9
tp209
F1
s(Vdispleasure
g27
tp210
F1
s(VUeluet
g11
tp211
F16
s(Vcrosse
g9
tp212
F2
s(Val
g53
tp213
F2
s(Vcrates
g17
tp214
F1
s(VSilke
g11
tp215
F1
s(Vtaunted
g39
tp216
F2
s(Vsissars
g17
tp217
F2
s(Vmighte
g41
tp218
F1
s(Vextorting
g53
tp219
F1
s(Vfiery
g9
tp220
F1
s(Vquestioned
g13
tp221
F2
s(Vproperties
S'NNS'
p222
tp223
F1
s(Vbearde
g9
tp224
F3
s(Vshooemakers
g17
tp225
F1
s(VLandelord
g11
tp226
F1
s(Vknaue
g9
tp227
F12
s(Vcarde
g9
tp228
F1
s(Vbands
g43
tp229
F1
s(Vfifte
g9
tp230
F1
s(Vmarks
g17
tp231
F1
s(Vqualified
g13
tp232
F1
s(Vbetter
g27
tp233
F1
s(Vshred
g53
tp234
F1
s(Vconsent
g9
tp235
F2
s(Vtroupe
g9
tp236
F1
s(Vlike
g43
tp237
F2
s(Vheele
g9
tp238
F1
s(Vdishonesty
g9
tp239
F1
s(S'DT'
p240
S'('
tp241
F1
s(VLimarchides
g11
tp242
F1
s(VSkinner
g11
tp243
F3
s(Vmurders
g17
tp244
F1
s(Vfeare
g9
tp245
F3
s(Vchanced
g13
tp246
F1
s(Vmeanly
g15
tp247
F1
s(S':'
g20
tp248
F1
s(Vglorious
g53
tp249
F3
s(Vprickes
g43
tp250
F1
s(Vnecessary
S'JJ'
p251
tp252
F2
s(Veuen
g27
tp253
F1
s(Vhundred
g53
tp254
F2
s(Vwine
g9
tp255
F10
s(S'IN'
p256
S'.'
tp257
F7
s(Vperiwigs
g17
tp258
F1
s(V22
S'CD'
p259
tp260
F1
s(Vniggardnesse
g9
tp261
F1
s(Vsleeues
g17
tp262
F1
s(Vmaintainance
g9
tp263
F1
s(Vpounde
g9
tp264
F2
s(Vvnder
g70
tp265
F1
s(S'('
g53
tp266
F5
s(Vforsooth
g72
tp267
F1
s(Vatalarum
g9
tp268
F1
s(g20
g53
tp269
F3
s(VGentlemen
g11
tp270
F14
s(S'('
S'VB'
p271
tp272
F1
s(Vneuerthelesse
g9
tp273
F1
s(Vhonor
g9
tp274
F8
s(VTinker
g11
tp275
F2
s(VClowne
g11
tp276
F1
s(VMaidmarian
g11
tp277
F1
s(g58
g72
tp278
F27
s(Vpan-
g9
tp279
F1
s(Vmeetes
g43
tp280
F1
s(S'PRP'
p281
g53
tp282
F17
s(Vpaines
g17
tp283
F4
s(Vlooke
g13
tp284
F5
s(Vdore
g41
tp285
F1
s(VThese
S'DT'
p286
tp287
F2
s(Vcarrie
g41
tp288
F1
s(Vpointed
g13
tp289
F1
s(Vantientie
g9
tp290
F1
s(g58
g186
tp291
F2
s(Vvnknowne
g9
tp292
F1
s(Vgyrte
g39
tp293
F1
s(g39
S'VBD'
p294
tp295
F1
s(Vvrge
g27
tp296
F1
s(Vwandered
g13
tp297
F1
s(V11
S'CD'
p298
tp299
F1
s(g111
S'PDT'
p300
tp301
F1
s(Vshare
S'NN'
p302
tp303
F1
s(Vworne
g53
tp304
F3
s(Vouerweening
g9
tp305
F1
s(VPrince
g9
tp306
F2
s(Vlookt
g15
tp307
F1
s(Vblockhead
g9
tp308
F1
s(Vdrugs
S'NNS'
p309
tp310
F1
s(g27
g87
tp311
F5
s(Vearn
g41
tp312
F2
s(Vtelst
g9
tp313
F1
s(VThe
S'DT'
p314
tp315
F24
s(Vcaper
g41
tp316
F1
s(Vdesarts
g17
tp317
F2
s(Vsex
g41
tp318
F1
s(S'NN'
p319
S'CD'
p320
tp321
F1
s(Vleft
g13
tp322
F2
s(Vrednes
g17
tp323
F1
s(Vweede
g9
tp324
F1
s(Vsawcy
g53
tp325
F1
s(g138
S'RB'
p326
tp327
F67
s(Vtheeues
g17
tp328
F1
s(Vfaced
g39
tp329
F2
s(Vyeomanrie
g9
tp330
F2
s(Veuery
g43
tp331
F2
s(g41
S'PRP$'
p332
tp333
F35
s(Vworking
g58
tp334
F1
s(Vmaner
g9
tp335
F1
s(Vinuented
g39
tp336
F1
s(g20
g9
tp337
F16
s(Vflower
g9
tp338
F1
s(VWel
g11
tp339
F1
s(Vbrewer
g9
tp340
F1
s(Vwhite
S'JJ'
p341
tp342
F4
s(Vvampey
g41
tp343
F1
s(Vqd
g41
tp344
F1
s(Venuie
g27
tp345
F2
s(Vsole
g9
tp346
F1
s(Vmasse
g9
tp347
F1
s(Vaduanst
g15
tp348
F1
s(Vcomplain
g41
tp349
F1
s(Vpriuy
g27
tp350
F1
s(Vwiping
g58
tp351
F1
s(Vliuer
g9
tp352
F2
s(Vnimbly
g15
tp353
F1
s(Vsoberly
g15
tp354
F1
s(Vamaze
g9
tp355
F1
s(Vglosing
g58
tp356
F1
s(Vvalie
g9
tp357
F1
s(Vcannes
g17
tp358
F1
s(Vholden
g53
tp359
F1
s(Vwil
g90
tp360
F1
s(Vgote
g9
tp361
F1
s(Vdocksey
g9
tp362
F1
s(g39
S'RP'
p363
tp364
F5
s(g43
S'RBR'
p365
tp366
F3
s(Vbles
g43
tp367
F1
s(Vvillaine
g9
tp368
F1
s(Vgarnished
g13
tp369
F1
s(Vsupporter
g9
tp370
F1
s(Vlisten
g9
tp371
F1
s(Vaction
S'NN'
p372
tp373
F2
s(Vagaynst
g53
tp374
F3
s(g363
S'PRP$'
p375
tp376
F2
s(VUintners
g17
tp377
F1
s(Vseruile
g53
tp378
F1
s(Vfilthie
g9
tp379
F1
s(Vstart
g27
tp380
F1
s(Vcourtesie
g9
tp381
F3
s(Vfoe
g15
tp382
F1
s(VBatchelers
g17
tp383
F1
s(g20
g111
tp384
F1
s(Vbetweene
g13
tp385
F1
s(Vgard
g9
tp386
F1
s(g90
g332
tp387
F2
s(VOne
g186
tp388
F1
s(Vmuch
g53
tp389
F7
s(Vlooser
g45
tp390
F1
s(Vbeholding
g58
tp391
F1
s(Vallurement
g9
tp392
F1
s(Vagaine
g9
tp393
F4
s(Vcutpurses
g17
tp394
F1
s(Vneates
g53
tp395
F1
s(Vreceiue
g27
tp396
F1
s(Vbeefe
g9
tp397
F5
s(Vlowt
g9
tp398
F1
s(Vsifte
g41
tp399
F1
s(Vspanish
g53
tp400
F1
s(Vlay
g27
tp401
F2
s(V8
S'CD'
p402
tp403
F1
s(Vneuer
g9
tp404
F2
s(Vbee
g53
tp405
F2
s(Vpowling
g58
tp406
F1
s(Vsteale
g53
tp407
F1
s(VOleum
g11
tp408
F1
s(Vpennie
g9
tp409
F1
s(VIf
g66
tp410
F8
s(Vnot
g326
tp411
F158
s(Vdrinking
g9
tp412
F3
s(Vdone
S'VBN'
p413
tp414
F2
s(Vbasket
g9
tp415
F1
s(Vsuberches
g17
tp416
F1
s(Vdeparted
g13
tp417
F1
s(Vcome
g39
tp418
F6
s(VCounsaile
g11
tp419
F1
s(Vvoid
g53
tp420
F1
s(Vvseth
g9
tp421
F1
s(Vlooke
g9
tp422
F2
s(g27
S'.'
tp423
F6
s(Vknight
g9
tp424
F4
s(Vthinke
g9
tp425
F2
s(Vdefendant
g9
tp426
F2
s(g9
g96
tp427
F20
s(Vhumor
g9
tp428
F6
s(VSeamster
g9
tp429
F1
s(VTurkie
g11
tp430
F1
s(Vcuts
g17
tp431
F1
s(Vverdict
g9
tp432
F6
s(g326
g300
tp433
F1
s(Vmisse
g9
tp434
F1
s(Veuer
g9
tp435
F2
s(Vslipt
g43
tp436
F1
s(Vhonorable
g53
tp437
F2
s(Vpurphled
g13
tp438
F1
s(Vextorting
g9
tp439
F2
s(Vdropped
g53
tp440
F1
s(VLabels
g11
tp441
F1
s(S','
S'WRB'
p442
tp443
F38
s(Vart
g8
tp444
F1
s(Vdisposition
g9
tp445
F2
s(Vflea
g41
tp446
F1
s(Vcluster
g9
tp447
F2
s(Vouerpasse
g41
tp448
F1
s(Vswore
g15
tp449
F3
s(VChrists
g17
tp450
F1
s(Vneatly
g15
tp451
F3
s(Vwander
g27
tp452
F1
s(VCourts
g11
tp453
F1
s(Vkicking
g58
tp454
F1
s(g186
S':'
tp455
F2
s(Vdiscourse
g53
tp456
F1
s(VSadler
g11
tp457
F3
s(Vstroke
g9
tp458
F1
s(Vdooth
g9
tp459
F1
s(Vmurmureth
g43
tp460
F1
s(Vbaker
g9
tp461
F1
s(Vcontent
g53
tp462
F10
s(Vscorneth
g43
tp463
F2
s(Veuery
g53
tp464
F4
s(Vdreames
g43
tp465
F1
s(Vmates
g17
tp466
F1
s(g41
g9
tp467
F23
s(S'MD'
p468
S'IN'
p469
tp470
F5
s(S')'
g15
tp471
F3
s(VAshen
g11
tp472
F1
s(Vgoodfellow
g9
tp473
F2
s(g41
S','
tp474
F26
s(Vmasse
g41
tp475
F1
s(S'CD'
p476
S'TO'
p477
tp478
F1
s(S'CC'
p479
g91
tp480
F21
s(Vboast
g9
tp481
F1
s(Vtop
g9
tp482
F1
s(Vnap
g9
tp483
F1
s(Vsought
g39
tp484
F1
s(Vfollowe
g27
tp485
F1
s(Vdoone
g39
tp486
F2
s(Vstage
g9
tp487
F1
s(Vgood
g53
tp488
F41
s(Vritch
g9
tp489
F1
s(Vvnfit
g53
tp490
F1
s(Vrakehell
g9
tp491
F2
s(Vquaint
g9
tp492
F4
s(VLac
g11
tp493
F1
s(Viustice
g9
tp494
F1
s(Vinsolent
g9
tp495
F1
s(Vpromoteth
S'MD'
p496
tp497
F1
s(g469
S'DT'
p498
tp499
F697
s(Valas
S'UH'
p500
tp501
F1
s(Vafter
S'IN'
p502
tp503
F12
s(Vwilinesse
g9
tp504
F1
s(Vimploied
g39
tp505
F1
s(Vcompare
g27
tp506
F1
s(Vshering
g58
tp507
F1
s(Vplaied
g39
tp508
F1
s(Vlooked
g13
tp509
F1
s(Vplease
g27
tp510
F5
s(Vgreased
g39
tp511
F1
s(Vthird
g53
tp512
F6
s(Vextorting
g58
tp513
F3
s(Vgoodfellowship
g9
tp514
F1
s(V6
S'CD'
p515
tp516
F1
s(Voccupations
g17
tp517
F3
s(Vsappe
g9
tp518
F1
s(Vthorough
g8
tp519
F1
s(Van
g72
tp520
F53
s(Vbras
g17
tp521
F1
s(Vtrickte
g39
tp522
F1
s(VTubalcain
g11
tp523
F1
s(S'IN'
p524
g186
tp525
F19
s(Vclothbreeches
g43
tp526
F1
s(Vhonour
g9
tp527
F2
s(Vcap
g9
tp528
F3
s(Vbest
S'RBS'
p529
tp530
F2
s(g58
g111
tp531
F6
s(Vreleeuing
g58
tp532
F1
s(Vbridegroome
g9
tp533
F1
s(Vhardy
g53
tp534
F1
s(Vwitch
g9
tp535
F1
s(Vseeks
g17
tp536
F1
s(Vreason
S'NN'
p537
tp538
F10
s(VDeuils
g11
tp539
F3
s(Vgaoler
g9
tp540
F2
s(Vfround
g39
tp541
F1
s(Vnotable
g53
tp542
F1
s(Vmocking
g58
tp543
F1
s(Vnay
g8
tp544
F1
s(Vill
g39
tp545
F1
s(VHell
g11
tp546
F1
s(Vbroad
S'JJ'
p547
tp548
F4
s(Vhaue
g9
tp549
F17
s(Vwormes
g17
tp550
F2
s(g41
g469
tp551
F82
s(Vrising
g58
tp552
F1
s(Vallow
g27
tp553
F2
s(Vpersons
g17
tp554
F2
s(Vfoot-cloth
g9
tp555
F1
s(S'MD'
p556
S','
tp557
F3
s(Vworthy
g53
tp558
F5
s(Vful
g53
tp559
F2
s(Vinueigh
g27
tp560
F1
s(g56
g43
tp561
F1
s(Vcontented
g39
tp562
F1
s(Vvp
g15
tp563
F1
s(Vouerwhipte
g41
tp564
F1
s(Vbetray
g27
tp565
F1
s(Vfrequent
g53
tp566
F1
s(Vshredde
g9
tp567
F1
s(Vlost
g13
tp568
F1
s(Vbaubie
g9
tp569
F1
s(Vgreeted
g13
tp570
F1
s(Vdissemblings
g17
tp571
F1
s(VSyrenlike
g11
tp572
F1
s(Vchuffe
g9
tp573
F2
s(S'PRP'
p574
g363
tp575
F7
s(Vfalshood
g9
tp576
F2
s(Vrecompence
g9
tp577
F1
s(Vgot
g13
tp578
F4
s(Vcouentrie
g9
tp579
F1
s(VMounsier
g45
tp580
F1
s(Vour
S'PRP$'
p581
tp582
F14
s(VBroker
g11
tp583
F2
s(Vcarefullie
g27
tp584
F1
s(g27
S'PRP'
p585
tp586
F135
s(Vvaleweth
g43
tp587
F1
s(Vcapers
g17
tp588
F1
s(g72
S')'
tp589
F1
s(Vindifferency
g9
tp590
F1
s(Vmatche
g9
tp591
F1
s(Vsowes
g9
tp592
F1
s(VIacke
g11
tp593
F1
s(Vpurest
g20
tp594
F1
s(Vsom
g53
tp595
F1
s(Vsleepe
g9
tp596
F1
s(Vlaye
g27
tp597
F1
s(Vhomespunne
g53
tp598
F1
s(g13
g39
tp599
F49
s(S'VBG'
p600
S':'
tp601
F1
s(Vpraise
g41
tp602
F1
s(Vdeare
g9
tp603
F1
s(Vhouse
S'NN'
p604
tp605
F13
s(Vbin
g53
tp606
F2
s(Vprooues
g43
tp607
F1
s(Valledge
g41
tp608
F1
s(VWherevppon
g8
tp609
F1
s(Vnine
g160
tp610
F1
s(Vcognisance
g9
tp611
F2
s(Vspoiles
g53
tp612
F1
s(Valas
g17
tp613
F2
s(S'PRP'
p614
S')'
tp615
F8
s(Vlearning
g9
tp616
F2
s(VEringion
g11
tp617
F1
s(Vwaterman
g53
tp618
F1
s(Vyeast
g9
tp619
F1
s(Vselfe
g9
tp620
F11
s(Vheare
g27
tp621
F3
s(Vdisplaie
g27
tp622
F1
s(Vsel
g27
tp623
F2
s(S'PRP'
p624
S'VBP'
p625
tp626
F412
s(S'PRP$'
p627
g70
tp628
F1
s(Vproudlye
g15
tp629
F1
s(Vtrims
g43
tp630
F1
s(Vknow
g27
tp631
F1
s(Vblush
g9
tp632
F1
s(VYeomen
g17
tp633
F1
s(Vstandes
g43
tp634
F1
s(Vfaces
S'VBZ'
p635
tp636
F3
s(Viackets
g17
tp637
F1
s(Vlesse
g53
tp638
F1
s(Vplainely
g15
tp639
F1
s(Vimbroidered
g53
tp640
F1
s(Vshe
S'PRP'
p641
tp642
F2
s(VLooking
g58
tp643
F1
s(Vaire
g9
tp644
F2
s(g442
g477
tp645
F1
s(Vexperience
g9
tp646
F1
s(Vdowne
g9
tp647
F10
s(VTailor
g11
tp648
F6
s(Vkeeper
g9
tp649
F1
s(Vgagliardi
g9
tp650
F1
s(Vhaind
g9
tp651
F1
s(Vdining
g53
tp652
F1
s(Vthemselues
g17
tp653
F18
s(V.
S'.'
tp654
F346
s(Vdriuen
g39
tp655
F1
s(Vtogither
g9
tp656
F2
s(Vioyner
g9
tp657
F2
s(Viudge
g9
tp658
F1
s(Vheere
g43
tp659
F1
s(Vthread
g53
tp660
F1
s(Vsaieng
g9
tp661
F1
s(Vdepart
g27
tp662
F2
s(Vwhose
S'WP$'
p663
tp664
F9
s(Vspeake
g27
tp665
F3
s(S','
g39
tp666
F3
s(VCommon
g53
tp667
F1
s(Vknewe
g9
tp668
F1
s(Vmisrule
g9
tp669
F2
s(Vgoe
g41
tp670
F2
s(Venuie
g9
tp671
F1
s(Vringes
g17
tp672
F1
s(Vfift
g9
tp673
F1
s(V--
S':'
tp674
F1
s(Vprince
g9
tp675
F2
s(Vthemselues
g43
tp676
F1
s(Vprouiso
g9
tp677
F1
s(Vintended
g39
tp678
F1
s(Vpartiall
g9
tp679
F1
s(Vneuer
g15
tp680
F9
s(VDiebus
g11
tp681
F2
s(V19
g186
tp682
F1
s(Vdraper
g9
tp683
F3
s(Vwoondred
g13
tp684
F1
s(Vintreat
g27
tp685
F2
s(Vsworne
g39
tp686
F1
s(Vtap
g27
tp687
F1
s(Vpriuately
g15
tp688
F1
s(Vknowes
g43
tp689
F3
s(Vsels
g17
tp690
F1
s(Vseeling
g58
tp691
F1
s(Vgarden
g9
tp692
F1
s(Vpalms
g17
tp693
F1
s(VImpiger
g11
tp694
F1
s(VApuleius
g11
tp695
F1
s(Vto
g477
tp696
F547
s(Vkings
g17
tp697
F3
s(Vheard
g41
tp698
F1
s(g45
S','
tp699
F5
s(Vseldome
g9
tp700
F1
s(Vcomplaine
g27
tp701
F1
s(Vreprobate
g9
tp702
F1
s(Vwalkes
g17
tp703
F1
s(Vshamste
g9
tp704
F1
s(Vgrandius
g9
tp705
F1
s(Vsighte
g9
tp706
F1
s(Vmeeting
g9
tp707
F2
s(Vcontinually
g15
tp708
F1
s(Vbecause
g8
tp709
F5
s(Vgo
g41
tp710
F1
s(Vlarge
S'JJ'
p711
tp712
F4
s(Vstand
g41
tp713
F3
s(Vforty
g53
tp714
F2
s(Vboies
g17
tp715
F3
s(Vdifferent
S'JJ'
p716
tp717
F2
s(Vdoth
g72
tp718
F1
s(Vriche
g27
tp719
F1
s(Vfoure
g53
tp720
F1
s(Vexamin
g27
tp721
F1
s(Vtherfore
g15
tp722
F4
s(VDoues
g17
tp723
F1
s(Vcruell
g15
tp724
F1
s(Vconsidered
g39
tp725
F1
s(VNext
g8
tp726
F1
s(VNor
g106
tp727
F1
s(Vmeddle
g27
tp728
F1
s(Vdeed
g9
tp729
F1
s(Vgrace
g9
tp730
F2
s(Vdieng
g53
tp731
F1
s(Vfinest
g20
tp732
F1
s(Vsayde
g9
tp733
F1
s(Vforward
g9
tp734
F2
s(Vcaprina
g9
tp735
F1
s(VHerbe
g11
tp736
F1
s(Vlecherous
g53
tp737
F1
s(Vstore
g9
tp738
F1
s(Vcreepeth
g9
tp739
F1
s(Vdeceiuing
g58
tp740
F2
s(Vdrawne
g39
tp741
F2
s(Vkeepe
g27
tp742
F4
s(Vbat
g9
tp743
F1
s(Vstockings
g17
tp744
F1
s(Vregarded
g13
tp745
F1
s(Vvsurie
g9
tp746
F2
s(Vbarly
g15
tp747
F1
s(g43
g9
tp748
F23
s(Vwho
g90
tp749
F10
s(Vwritte
g13
tp750
F1
s(Vbit
g43
tp751
F1
s(Vgrounds
g17
tp752
F1
s(g363
g111
tp753
F1
s(Vmastership
g9
tp754
F1
s(Vfustian
g53
tp755
F1
s(Vfaggots
g17
tp756
F1
s(Vtweluemonth
g9
tp757
F1
s(Vbeg
g43
tp758
F1
s(Vsweet
g53
tp759
F1
s(Vvsurer
g9
tp760
F2
s(Vbody
g9
tp761
F3
s(Vsilkes
g43
tp762
F1
s(VThis
S'DT'
p763
tp764
F4
s(Vasked
g13
tp765
F7
s(Vmaye
g41
tp766
F2
s(VApothecaries
g56
tp767
F1
s(Vcommeth
g9
tp768
F1
s(VJohn
S'NNP'
p769
tp770
F1
s(Vlead
g9
tp771
F1
s(S'IN'
p772
g17
tp773
F99
s(Vhauing
g58
tp774
F2
s(Vtill
g496
tp775
F1
s(Vcarcases
g17
tp776
F1
s(Vbicause
g8
tp777
F5
s(Vleaning
g58
tp778
F2
s(Vsold
g13
tp779
F1
s(Vfathers
g17
tp780
F6
s(Vlecherie
g9
tp781
F1
s(Vdaintie
g53
tp782
F2
s(Vmindes
g17
tp783
F1
s(Vpraye
g41
tp784
F1
s(VMaister
g11
tp785
F2
s(Vpreach
g27
tp786
F1
s(Vherbe
g53
tp787
F1
s(Vwater
S'NN'
p788
tp789
F5
s(Vagain
S'RB'
p790
tp791
F1
s(Vfrequent
g13
tp792
F1
s(Vboung
g9
tp793
F1
s(Vquibs
g9
tp794
F1
s(Vhauing
g53
tp795
F1
s(Vproud
g9
tp796
F3
s(Vcheckerd
g9
tp797
F1
s(Vgone
S'VBN'
p798
tp799
F2
s(Vtrades
g17
tp800
F2
s(Vofficers
g17
tp801
F1
s(VLast
S'JJ'
p802
tp803
F1
s(Vhonestest
g20
tp804
F1
s(Vvillanie
g27
tp805
F1
s(Vdiscerne
g27
tp806
F1
s(VHis
S'PRP$'
p807
tp808
F2
s(Vdemure
g53
tp809
F1
s(Vdesirous
g53
tp810
F1
s(Vhandiecrafts
g17
tp811
F1
s(Vcheefest
g20
tp812
F2
s(Vdreg
g43
tp813
F1
s(Vtailes
g17
tp814
F1
s(Vcounted
g13
tp815
F1
s(Vshittle
g9
tp816
F1
s(Vpasse
g27
tp817
F2
s(Vforfeit
g53
tp818
F1
s(Vneuer
g39
tp819
F3
s(Vstoode
g13
tp820
F1
s(Vparfumer
g9
tp821
F1
s(Vstockes
g17
tp822
F1
s(Vmust
S'MD'
p823
tp824
F22
s(Vhares
g17
tp825
F1
s(Vcontemne
g27
tp826
F1
s(S'PRP'
p827
g106
tp828
F23
s(Vfauours
g17
tp829
F1
s(VAdam
g11
tp830
F1
s(Vtherfore
g8
tp831
F1
s(VTenant
g9
tp832
F1
s(Vbee
g43
tp833
F1
s(Val
g363
tp834
F1
s(Vfretting
g9
tp835
F1
s(Vphysitian
g9
tp836
F1
s(Vmap
g9
tp837
F1
s(Vsatisfyed
g39
tp838
F1
s(VUeluetbreeches
g11
tp839
F4
s(VGlorioso
g11
tp840
F1
s(Voutward
g9
tp841
F1
s(Vtush
g8
tp842
F1
s(Vpluckt
g41
tp843
F1
s(Vseuere
g53
tp844
F1
s(Vpraier
g9
tp845
F1
s(VCaualiers
g11
tp846
F1
s(VCompanie
g11
tp847
F1
s(Vwarm
g27
tp848
F1
s(Vhumorous
g53
tp849
F1
s(VBarne
g11
tp850
F1
s(Vfeeding
g9
tp851
F1
s(Vhimselfe
g300
tp852
F1
s(S':'
g53
tp853
F2
s(Vloose
g27
tp854
F1
s(Vcarry
g27
tp855
F1
s(Vteare
g9
tp856
F1
s(Vparticulars
g17
tp857
F1
s(VCourtyers
g17
tp858
F1
s(S'CC'
p859
g90
tp860
F4
s(VG.
g11
tp861
F1
s(S'('
S'IN'
p862
tp863
F6
s(Vdeny
g27
tp864
F1
s(Vsupposed
g13
tp865
F1
s(Vfitted
g13
tp866
F1
s(Vbenefite
g27
tp867
F1
s(g27
g11
tp868
F11
s(Vvanitie
g9
tp869
F1
s(Vyouth
g9
tp870
F3
s(Vvp
g106
tp871
F1
s(g496
g91
tp872
F2
s(S'DT'
p873
g90
tp874
F1
s(Vgowned
g53
tp875
F1
s(Vplease
g41
tp876
F1
s(Vgood
g41
tp877
F1
s(Vmistres
g17
tp878
F1
s(Vcoold
g39
tp879
F1
s(Vpettie
g53
tp880
F1
s(Vlecture
g9
tp881
F1
s(Vpray
g41
tp882
F5
s(Vwelted
g39
tp883
F1
s(Vassured
g39
tp884
F1
s(VSir
S'NNP'
p885
tp886
F1
s(Vfel
g13
tp887
F1
s(VNapes
g11
tp888
F1
s(Vbetween
S'IN'
p889
tp890
F2
s(Vheele
g281
tp891
F1
s(Vlordships
g17
tp892
F2
s(Vcraunce
g9
tp893
F1
s(VAct
S'NNP'
p894
tp895
F1
s(S':'
S'CD'
p896
tp897
F1
s(Vamongst
g9
tp898
F1
s(Vparticularly
S'RB'
p899
tp900
F1
s(Vfee
g9
tp901
F1
s(VItaly
S'NNP'
p902
tp903
F1
s(Vshewed
g13
tp904
F1
s(Vholyday
g9
tp905
F1
s(Vgentility
g9
tp906
F2
s(Vvnkindnesse
g9
tp907
F1
s(Vsee
g27
tp908
F17
s(Vhelpes
g43
tp909
F1
s(Vthan
S'IN'
p910
tp911
F13
s(g96
S'PRP$'
p912
tp913
F5
s(Vproue
g53
tp914
F2
s(Vpartiall
g53
tp915
F1
s(Vwaiting
g58
tp916
F1
s(Vbegge
g363
tp917
F1
s(Vvnreasonably
g15
tp918
F2
s(Vpurchase
g41
tp919
F1
s(Vcouet
g9
tp920
F1
s(Vpolish
g27
tp921
F1
s(Vweauer
g9
tp922
F1
s(Vcapacities
g17
tp923
F1
s(Vqd
g17
tp924
F1
s(Vbuyeth
g53
tp925
F2
s(Vhope
g41
tp926
F3
s(Vruffle
g27
tp927
F1
s(g8
g70
tp928
F2
s(Vquiet
g53
tp929
F5
s(Vextreame
g9
tp930
F1
s(Vappearance
g9
tp931
F1
s(Vmine
g9
tp932
F3
s(Vloue
g27
tp933
F1
s(Vfellowe
g15
tp934
F1
s(Veaw
g9
tp935
F1
s(Vbegged
g13
tp936
F1
s(g39
g27
tp937
F1
s(Vcommodity
S'NN'
p938
tp939
F4
s(Vrubd
g39
tp940
F1
s(Vlocke
g9
tp941
F1
s(Vgraibeards
g17
tp942
F1
s(Vformeth
g43
tp943
F1
s(Vvp
g70
tp944
F2
s(g64
g496
tp945
F7
s(Vhande
g9
tp946
F3
s(Vconcealed
g13
tp947
F1
s(Vchines
g17
tp948
F2
s(Vlucke
g9
tp949
F1
s(Vcoosen
g41
tp950
F1
s(Viogging
g58
tp951
F1
s(Vhighest
S'JJS'
p952
tp953
F2
s(g625
g39
tp954
F28
s(Vpointes
g43
tp955
F1
s(Vparish
g9
tp956
F1
s(Vspur
g9
tp957
F1
s(Vcome
g41
tp958
F7
s(Vfedde
g9
tp959
F1
s(Vdaughter
g9
tp960
F1
s(Vboth
g106
tp961
F1
s(Vwipes
g43
tp962
F1
s(Vwound
g27
tp963
F1
s(Vpleasure
g9
tp964
F6
s(Vat
S'IN'
p965
tp966
F69
s(Vforgets
g17
tp967
F1
s(Vbudget
S'NN'
p968
tp969
F3
s(Vbare
g13
tp970
F1
s(Veuening
g58
tp971
F1
s(Vcompanien
g9
tp972
F1
s(Vantient
g41
tp973
F1
s(Varmes
g17
tp974
F1
s(Vveluets
g17
tp975
F3
s(Vget
g27
tp976
F5
s(Vstrange
g53
tp977
F5
s(VBarrow
g11
tp978
F1
s(Vhurtfull
g53
tp979
F1
s(Vaduanst
g8
tp980
F1
s(g498
g15
tp981
F14
s(Vproclaime
g9
tp982
F1
s(Vdoost
g9
tp983
F3
s(Vimprisoned
g39
tp984
F1
s(Vberries
g17
tp985
F1
s(Vglasse
g9
tp986
F1
s(Vdrench
g9
tp987
F1
s(VGospell
g11
tp988
F1
s(Vtherfore
g9
tp989
F1
s(Vbeauteous
g53
tp990
F1
s(Vcarpentar
g9
tp991
F1
s(Vbehauior
g9
tp992
F1
s(Vworde
g9
tp993
F1
s(Vreported
g39
tp994
F1
s(Vhaue
g27
tp995
F39
s(VBelsebub
g11
tp996
F1
s(Vhuswiues
g17
tp997
F1
s(Vtriers
g17
tp998
F1
s(Vdirectly
S'RB'
p999
tp1000
F1
s(VPrinces
g56
tp1001
F1
s(Vgrease
g27
tp1002
F1
s(Vreasonable
g53
tp1003
F4
s(Vmenne
g9
tp1004
F2
s(Vthrust
g15
tp1005
F1
s(g13
g53
tp1006
F42
s(Vsundaies
g17
tp1007
F1
s(g8
g11
tp1008
F96
s(Vthousand
g9
tp1009
F1
s(Vyearne
g300
tp1010
F1
s(Vfickle
g9
tp1011
F1
s(VChaucer
g11
tp1012
F1
s(Vpedler
g9
tp1013
F1
s(Vlawier
g9
tp1014
F1
s(Vpressing
g58
tp1015
F1
s(Vioynts
g17
tp1016
F2
s(g477
g27
tp1017
F396
s(S':'
g11
tp1018
F11
s(Vgesse
g27
tp1019
F1
s(VNegromancer
g11
tp1020
F1
s(Vsiluer
g9
tp1021
F3
s(S'('
S'PRP'
p1022
tp1023
F1
s(Vmerrie
g39
tp1024
F1
s(VRopemaker
g11
tp1025
F1
s(Vany
S'DT'
p1026
tp1027
F36
s(VKilcalfe
g11
tp1028
F1
s(Vstaid
g9
tp1029
F1
s(Vneedes
g17
tp1030
F1
s(Vabout
g8
tp1031
F12
s(Vwits
g17
tp1032
F2
s(Vhowe
g9
tp1033
F1
s(Vtrusse
g27
tp1034
F2
s(Vdeceiued
g39
tp1035
F1
s(Vrakehels
g17
tp1036
F1
s(S':'
g17
tp1037
F2
s(Vnay
g53
tp1038
F1
s(Vlusty
g53
tp1039
F1
s(Vsoberlye
g53
tp1040
F1
s(Vworker
g9
tp1041
F1
s(Vlaid
g9
tp1042
F1
s(V13
S'CD'
p1043
tp1044
F1
s(Vappendices
g17
tp1045
F1
s(Vdaunsing
g58
tp1046
F1
s(VApothicarie
g11
tp1047
F1
s(Vfelonies
g17
tp1048
F1
s(Vstraunge
g9
tp1049
F1
s(Vgoing
g600
tp1050
F8
s(VSoldado
g11
tp1051
F1
s(Vfist
g9
tp1052
F2
s(Vbreed
g41
tp1053
F1
s(Vouer
g41
tp1054
F1
s(Vfurres
g17
tp1055
F1
s(VAway
g15
tp1056
F1
s(Vglad
g39
tp1057
F1
s(Vvnbuttond
g9
tp1058
F1
s(Vstarting
g58
tp1059
F1
s(Vcurled
g13
tp1060
F1
s(Vcontent
g27
tp1061
F1
s(Vneedlesse
g9
tp1062
F1
s(Vinstruct
g41
tp1063
F1
s(Vdemaunded
g13
tp1064
F2
s(Vwalking
g58
tp1065
F3
s(Vquest
g20
tp1066
F11
s(Vslie
g9
tp1067
F1
s(Vvnconscionable
g53
tp1068
F1
s(Vill
g53
tp1069
F4
s(Vquam
g9
tp1070
F1
s(Vpawne
g27
tp1071
F2
s(Vrootes
g17
tp1072
F1
s(g58
S'.'
tp1073
F5
s(Vlong
g53
tp1074
F5
s(g138
S','
tp1075
F31
s(Vcarkasse
g9
tp1076
F1
s(Vpast
g41
tp1077
F1
s(Vcompanie
g9
tp1078
F3
s(Vquite
g27
tp1079
F1
s(Vtapsters
g17
tp1080
F1
s(Vscitation
g9
tp1081
F1
s(Vtaught
g39
tp1082
F2
s(Vcries
g43
tp1083
F1
s(Vcoutenance
g27
tp1084
F1
s(Vnowe
g9
tp1085
F1
s(g53
g64
tp1086
F2
s(Vsower
g9
tp1087
F1
s(Vsanctus
g9
tp1088
F1
s(Vminds
g17
tp1089
F3
s(Vbestow
g27
tp1090
F3
s(Veuery
g9
tp1091
F5
s(Vwithin
S'IN'
p1092
tp1093
F3
s(g11
S'JJ'
p1094
tp1095
F5
s(g363
g11
tp1096
F1
s(Vioint
g9
tp1097
F1
s(Vforestalling
g53
tp1098
F1
s(Vdiuell
g9
tp1099
F1
s(Vgouerned
g39
tp1100
F1
s(Vparting
g9
tp1101
F1
s(Vbehind
g8
tp1102
F1
s(Vhonestly
g15
tp1103
F2
s(Vdeuiseth
g43
tp1104
F1
s(Vsattins
g17
tp1105
F2
s(VUallye
g11
tp1106
F1
s(Vpike
g9
tp1107
F4
s(Vthervpon
g9
tp1108
F1
s(Vsaieng
g13
tp1109
F1
s(Vwherein
g90
tp1110
F1
s(Vpeeped
g13
tp1111
F1
s(Vprickes
g17
tp1112
F1
s(Vchurle
g9
tp1113
F2
s(VTallow
g8
tp1114
F1
s(Vart
g9
tp1115
F6
s(Vfewer
g45
tp1116
F1
s(Vbringes
g43
tp1117
F2
s(Vrespecting
g9
tp1118
F1
s(Vorder
S'NN'
p1119
tp1120
F2
s(Vlearnd
g53
tp1121
F1
s(Vspunne
g9
tp1122
F1
s(g56
g772
tp1123
F1
s(Vplain
g53
tp1124
F1
s(Vsoule
g9
tp1125
F4
s(Val
g9
tp1126
F4
s(VCherry
g11
tp1127
F1
s(Vinterseamed
g39
tp1128
F1
s(Vcause
g9
tp1129
F8
s(V,
S','
tp1130
F1816
s(g53
g39
tp1131
F4
s(Vwhom
g163
tp1132
F4
s(Vtreasons
g17
tp1133
F1
s(Vdisaduantage
g9
tp1134
F1
s(Vestates
g17
tp1135
F2
s(VBellows
g11
tp1136
F1
s(Veate
g27
tp1137
F3
s(Vlong
g15
tp1138
F8
s(Vconsumption
g9
tp1139
F1
s(Vhands
g17
tp1140
F7
s(g326
g477
tp1141
F49
s(Vmoathes
g17
tp1142
F1
s(Vvacation
g9
tp1143
F1
s(Vdelight
g13
tp1144
F1
s(g529
g39
tp1145
F1
s(S':'
g58
tp1146
F1
s(Vsteed
g9
tp1147
F1
s(Vmiser
g9
tp1148
F1
s(Vspeakes
g43
tp1149
F1
s(Vthen
S'RB'
p1150
tp1151
F80
s(Voccasion
g9
tp1152
F1
s(Vmee
g9
tp1153
F11
s(Vmonie
g9
tp1154
F6
s(Vread
g13
tp1155
F1
s(Vfire
g9
tp1156
F1
s(Vbegins
g43
tp1157
F1
s(Vfinde
g27
tp1158
F1
s(Vwaters
g43
tp1159
F1
s(Vgallant
g9
tp1160
F1
s(Vhimselfe
g9
tp1161
F17
s(Vwhich
g64
tp1162
F42
s(Vplough
g53
tp1163
F1
s(Vdesired
g13
tp1164
F1
s(Vplaies
g43
tp1165
F1
s(Vdiligence
g9
tp1166
F1
s(g15
g111
tp1167
F8
s(Vchalenge
g9
tp1168
F1
s(Vhops
g43
tp1169
F1
s(g320
g912
tp1170
F2
s(Vfront
g9
tp1171
F1
s(Vprice
S'NN'
p1172
tp1173
F3
s(Vthred
g53
tp1174
F1
s(g11
g15
tp1175
F14
s(Vdrapers
g17
tp1176
F1
s(Vframing
g9
tp1177
F1
s(Vpitie
g9
tp1178
F2
s(Vcloathes
g17
tp1179
F1
s(Vopimis
g9
tp1180
F1
s(Vregard
g27
tp1181
F1
s(Vhis
g912
tp1182
F244
s(VCloth
g11
tp1183
F25
s(Vlaid
g13
tp1184
F2
s(Vmannes
g17
tp1185
F2
s(g72
g96
tp1186
F2
s(Vthredbare
g53
tp1187
F1
s(Vneates
g17
tp1188
F1
s(g58
g39
tp1189
F4
s(Vpassing
g58
tp1190
F4
s(Vhose
g27
tp1191
F1
s(Vworst
g20
tp1192
F2
s(S'CC'
p1193
g27
tp1194
F93
s(g6
g53
tp1195
F153
s(Vrapier
g9
tp1196
F1
s(Vwhat
g90
tp1197
F63
s(Vlaced
g39
tp1198
F1
s(g11
g27
tp1199
F2
s(Vbooke
g13
tp1200
F1
s(Vopinion
S'NN'
p1201
tp1202
F2
s(Vgreater
S'JJR'
p1203
tp1204
F2
s(g9
g15
tp1205
F67
s(Vmade
g13
tp1206
F7
s(g256
g479
tp1207
F3
s(Vcommodities
g17
tp1208
F5
s(Vesquier
g45
tp1209
F1
s(Vtoucht
g53
tp1210
F1
s(Vwherto
g9
tp1211
F1
s(VArt
g11
tp1212
F1
s(g574
g70
tp1213
F2
s(Vbeene
g39
tp1214
F3
s(Vvp
g363
tp1215
F1
s(Vframe
g9
tp1216
F1
s(Vsecond
g9
tp1217
F2
s(Vroomes
g17
tp1218
F1
s(Vwery
g9
tp1219
F1
s(VWolfe
g11
tp1220
F1
s(VHonor
g11
tp1221
F1
s(g11
g43
tp1222
F19
s(Vhowsoeuer
g13
tp1223
F2
s(Vhaire
g9
tp1224
F3
s(Vliuery
g9
tp1225
F1
s(Vwhile
g9
tp1226
F2
s(Vspend
g41
tp1227
F2
s(VOthers
g17
tp1228
F1
s(Valehouse
g9
tp1229
F2
s(Vlawe
g17
tp1230
F1
s(Vliue
g9
tp1231
F1
s(g827
g624
tp1232
F9
s(Vslouenlie
g9
tp1233
F1
s(g53
S')'
tp1234
F1
s(Vgoodes
g17
tp1235
F1
s(Veaten
g43
tp1236
F1
s(Vtailor
g9
tp1237
F1
s(Vangels
g17
tp1238
F2
s(g17
S'.'
tp1239
F49
s(Vcooke
g9
tp1240
F2
s(Vwaterman
g9
tp1241
F2
s(Vvs
g281
tp1242
F1
s(Vvintner
g9
tp1243
F3
s(Vwhip
g9
tp1244
F1
s(Vbetweene
g9
tp1245
F2
s(S':'
g1022
tp1246
F16
s(Vsoone
g9
tp1247
F3
s(Vhower
g9
tp1248
F1
s(Vhonest
g39
tp1249
F1
s(Vcoosening
g58
tp1250
F1
s(Vbrowes
g9
tp1251
F2
s(Vstung
g9
tp1252
F1
s(Vesteeme
g9
tp1253
F2
s(Vfranklie
g53
tp1254
F1
s(Vwoorth
g8
tp1255
F2
s(Vfauor
g15
tp1256
F1
s(g13
g9
tp1257
F39
s(Vperemptorie
g9
tp1258
F1
s(VHearing
g58
tp1259
F1
s(Vold
S'JJ'
p1260
tp1261
F10
s(Vplague
g41
tp1262
F1
s(Vstuffes
g13
tp1263
F1
s(Vmysterie
g9
tp1264
F1
s(Vsaluted
g13
tp1265
F2
s(Vtrick
g27
tp1266
F1
s(g91
g19
tp1267
F100
s(Vwanted
g13
tp1268
F1
s(Vor
g479
tp1269
F86
s(Vpasseth
g43
tp1270
F1
s(Vforth
g15
tp1271
F1
s(g8
S'('
tp1272
F1
s(Vmouth
g9
tp1273
F1
s(Vbarke
g9
tp1274
F1
s(Vstraight
g13
tp1275
F3
s(Vseen
S'VBN'
p1276
tp1277
F1
s(Vburial
g9
tp1278
F1
s(Vvertues
g17
tp1279
F5
s(Vvalour
g9
tp1280
F2
s(Vmee
g53
tp1281
F1
s(Vmashe
g43
tp1282
F1
s(Vbee
g27
tp1283
F19
s(Vneither
g106
tp1284
F3
s(Vforestaller
g9
tp1285
F1
s(Vcraft
g9
tp1286
F6
s(VPedler
g11
tp1287
F1
s(Vpretended
g13
tp1288
F1
s(Vdisdaine
g9
tp1289
F1
s(Vfill
g27
tp1290
F2
s(g43
g17
tp1291
F12
s(VUeluet
g41
tp1292
F1
s(Vsaist
g53
tp1293
F1
s(Vmaister
g45
tp1294
F2
s(Vwilt
g53
tp1295
F2
s(Vwoorth
g53
tp1296
F2
s(Vcricket
g9
tp1297
F1
s(Vfeedeth
g13
tp1298
F1
s(Vquite
g15
tp1299
F1
s(Vexhort
g9
tp1300
F1
s(g53
g477
tp1301
F39
s(Vsnowt
g9
tp1302
F1
s(Vintelligence
g9
tp1303
F1
s(Vfourth
S'JJ'
p1304
tp1305
F4
s(Vshewing
g58
tp1306
F1
s(Vquiddits
g17
tp1307
F1
s(Vpaies
g43
tp1308
F1
s(Vcountriman
g9
tp1309
F2
s(Vwhoe
g17
tp1310
F1
s(Vdressing
g58
tp1311
F1
s(Vornamentes
g17
tp1312
F1
s(Veares
g17
tp1313
F7
s(Vbreches
g17
tp1314
F1
s(g53
S':'
tp1315
F2
s(Vill
g9
tp1316
F1
s(Vserue
g27
tp1317
F2
s(Vbottle-ale
g53
tp1318
F1
s(Vtaste
g9
tp1319
F1
s(Vinward
g9
tp1320
F1
s(Vshake
g27
tp1321
F1
s(Vlice
g9
tp1322
F1
s(Vpresse
g9
tp1323
F1
s(Vhates
g43
tp1324
F1
s(Vscuruy
g9
tp1325
F1
s(VHerald
g11
tp1326
F1
s(g90
S'NNS'
p1327
tp1328
F1
s(g27
g479
tp1329
F17
s(Vashamde
g15
tp1330
F1
s(Vcloth
g53
tp1331
F2
s(Vmayster
g9
tp1332
F1
s(Vshamefull
g53
tp1333
F1
s(Vfaceth
g17
tp1334
F1
s(VNeapolitane
g11
tp1335
F1
s(Vcoram
g9
tp1336
F1
s(Vswaines
g17
tp1337
F1
s(g663
g20
tp1338
F1
s(g70
g27
tp1339
F1
s(Vfooles
g17
tp1340
F9
s(Vtreading
g58
tp1341
F1
s(Vselling
g58
tp1342
F3
s(Vmany
S'JJ'
p1343
tp1344
F16
s(Vaqua
g9
tp1345
F1
s(Vsuch
g53
tp1346
F57
s(Vsit
g27
tp1347
F2
s(Veuen
g17
tp1348
F1
s(VSouldiors
g17
tp1349
F1
s(VTaylors
g56
tp1350
F2
s(Vlend
g27
tp1351
F2
s(VMoris-daunce
g11
tp1352
F1
s(Vwretch
g41
tp1353
F1
s(S'IN'
p1354
g163
tp1355
F4
s(g912
g15
tp1356
F1
s(Voathes
g17
tp1357
F1
s(Vprofit
g9
tp1358
F4
s(Vattired
g13
tp1359
F1
s(Vcolour
g9
tp1360
F3
s(Vbenefit
g9
tp1361
F1
s(Vloue
g9
tp1362
F2
s(Vspeeches
g17
tp1363
F1
s(Vvber
g11
tp1364
F1
s(Vneedle
g17
tp1365
F1
s(Vaske
g27
tp1366
F2
s(Vknacks
g17
tp1367
F1
s(Vhonest
g9
tp1368
F6
s(Vpase
g9
tp1369
F1
s(Vbetter
g45
tp1370
F7
s(Vstird
g13
tp1371
F1
s(g9
g41
tp1372
F12
s(Vcommitteth
g43
tp1373
F1
s(Vtreatises
g17
tp1374
F1
s(Vconquest
g9
tp1375
F1
s(Vcunning
g58
tp1376
F1
s(Vmuffled
g13
tp1377
F1
s(Vwombs
g9
tp1378
F1
s(Vresolue
g27
tp1379
F1
s(Vforemost
g9
tp1380
F1
s(Vsixteene
g27
tp1381
F1
s(Vsuffise
g9
tp1382
F3
s(Vhope
g9
tp1383
F2
s(VBatchelers
g11
tp1384
F1
s(VUicar
g9
tp1385
F1
s(Vseeke
g27
tp1386
F3
s(Vleaking
g58
tp1387
F1
s(VApologie
g11
tp1388
F1
s(Varle
g9
tp1389
F1
s(Vbought
g9
tp1390
F1
s(S'EX'
p1391
g965
tp1392
F1
s(Vwhereas
g90
tp1393
F1
s(Vnouices
g17
tp1394
F2
s(g70
g53
tp1395
F2
s(Vwhereas
g53
tp1396
F1
s(Vnext
g53
tp1397
F2
s(g41
S'NNS'
p1398
tp1399
F20
s(Vmillar
g9
tp1400
F1
s(Vbridle
g27
tp1401
F1
s(Vmortal
g53
tp1402
F1
s(Vdistinction
g9
tp1403
F1
s(Vgenerall
g53
tp1404
F1
s(Vhogshead
g9
tp1405
F2
s(Vbubasted
g39
tp1406
F1
s(Vfatal
g53
tp1407
F1
s(Vgest
g41
tp1408
F1
s(Vsith
g13
tp1409
F3
s(Vbrauery
g9
tp1410
F7
s(Vdriues
g43
tp1411
F1
s(Voyle
g9
tp1412
F1
s(VSuppose
g11
tp1413
F1
s(g17
g53
tp1414
F9
s(Vsuppose
g41
tp1415
F1
s(Vcomes
S'VBZ'
p1416
tp1417
F10
s(g8
g39
tp1418
F7
s(Vseemes
g43
tp1419
F2
s(Vwithal
g41
tp1420
F1
s(Vliued
g13
tp1421
F1
s(Vclowted
g39
tp1422
F1
s(Vobiect
g27
tp1423
F2
s(Vsunday
g53
tp1424
F1
s(Vvnder
g27
tp1425
F1
s(Viury
g9
tp1426
F5
s(VNot
S'RB'
p1427
tp1428
F2
s(S':'
g27
tp1429
F5
s(Vconceipt
g9
tp1430
F1
s(Vgrowne
g39
tp1431
F1
s(Vsome
S'DT'
p1432
tp1433
F53
s(Vwiues
g17
tp1434
F7
s(Vempanelled
g13
tp1435
F1
s(Vsayth
g9
tp1436
F1
s(g70
g91
tp1437
F1
s(g45
g17
tp1438
F9
s(Vsue
g27
tp1439
F1
s(Vwings
g17
tp1440
F1
s(Vcalled
g13
tp1441
F1
s(Vcreditor
g9
tp1442
F1
s(Vfurthest
g20
tp1443
F1
s(g15
g41
tp1444
F7
s(VCurriers
g11
tp1445
F1
s(Vdisseison
g9
tp1446
F4
s(Vhoping
g58
tp1447
F1
s(VLodgike
g9
tp1448
F1
s(Vmatch
g27
tp1449
F1
s(Vfallowes
g9
tp1450
F1
s(Vstorming
g58
tp1451
F1
s(Vlearned
g13
tp1452
F2
s(Vgraundcies
g17
tp1453
F1
s(Vwoorth
g27
tp1454
F1
s(VGasroigne
g11
tp1455
F1
s(Vveluetbreeche
g9
tp1456
F1
s(Vfines
g17
tp1457
F1
s(g43
g332
tp1458
F10
s(Vseruingemen
g17
tp1459
F1
s(Vworne
g9
tp1460
F1
s(Vgodlinesse
g9
tp1461
F1
s(Vscornefull
g53
tp1462
F1
s(Vpayre
g9
tp1463
F3
s(Vexamine
g27
tp1464
F1
s(Vcharge
g9
tp1465
F3
s(Vbecam
g9
tp1466
F1
s(Vfellow
g41
tp1467
F1
s(Vtrumpet
g9
tp1468
F1
s(Vsports
S'NNS'
p1469
tp1470
F1
s(Vsildome
g41
tp1471
F1
s(Vprank
g27
tp1472
F1
s(Vcapital
g9
tp1473
F1
s(g43
g53
tp1474
F50
s(Vbreath
g9
tp1475
F1
s(Vproue
g9
tp1476
F1
s(Vcheeke
g9
tp1477
F1
s(Vtheyr
g53
tp1478
F4
s(VSince
S'IN'
p1479
tp1480
F1
s(Vtheirs
g17
tp1481
F1
s(Vproofe
g9
tp1482
F1
s(g58
S'IN'
p1483
tp1484
F39
s(S'VBN'
p1485
g300
tp1486
F1
s(Vball
g9
tp1487
F1
s(Vcow
g9
tp1488
F1
s(Vskoffing
g58
tp1489
F1
s(Vof
g469
tp1490
F504
s(Vslumber
g9
tp1491
F1
s(Valwaies
g17
tp1492
F1
s(Veie
g9
tp1493
F4
s(Vsat
g27
tp1494
F1
s(Vdrunken
g53
tp1495
F2
s(VAuri
g11
tp1496
F1
s(g17
g476
tp1497
F1
s(Vdefense
S'NN'
p1498
tp1499
F1
s(Vshoulde
g41
tp1500
F1
s(Vdesire
g9
tp1501
F4
s(Vpulpit
g9
tp1502
F1
s(Voftner
g15
tp1503
F1
s(Vfools
g53
tp1504
F1
s(Vgo
g27
tp1505
F9
s(Vmuch
g15
tp1506
F4
s(Vtrusse
g43
tp1507
F1
s(Vshuffle
g58
tp1508
F1
s(Vreceiue
g41
tp1509
F2
s(Vcamphire
g9
tp1510
F1
s(Vdid
S'VBD'
p1511
tp1512
F16
s(Vneedy
g9
tp1513
F1
s(Vforbidden
g53
tp1514
F1
s(g70
g111
tp1515
F2
s(Vmine
g281
tp1516
F1
s(VRasor
g11
tp1517
F1
s(VSceuola
g11
tp1518
F1
s(Vhidden
g9
tp1519
F1
s(Vsignes
g17
tp1520
F1
s(Vlawyers
S'NNS'
p1521
tp1522
F2
s(Vseuere
g15
tp1523
F1
s(Vabsolue
g27
tp1524
F1
s(Vpeacocks
g17
tp1525
F1
s(Vforth
g9
tp1526
F2
s(Vmisers
g17
tp1527
F1
s(Vpatient
g9
tp1528
F1
s(Vstept
g9
tp1529
F1
s(VUeluetbreeches
g17
tp1530
F2
s(Vfleetes
g43
tp1531
F1
s(Vinsolent
g53
tp1532
F1
s(S':'
g15
tp1533
F16
s(Vshalt
g9
tp1534
F1
s(Vtell
g41
tp1535
F1
s(VCantes
g11
tp1536
F1
s(Vvostra
g53
tp1537
F1
s(Vmee
g496
tp1538
F1
s(Vpeece
g9
tp1539
F5
s(Vhardly
g15
tp1540
F1
s(Vif
g862
tp1541
F88
s(Vsofte
g9
tp1542
F1
s(g72
g39
tp1543
F2
s(Vliketh
g43
tp1544
F1
s(Vcountenaunce
g27
tp1545
F1
s(g15
g365
tp1546
F3
s(Vconsciences
g17
tp1547
F1
s(Vfetch
g41
tp1548
F2
s(Vfoule
g53
tp1549
F1
s(Vsore
g15
tp1550
F1
s(Vlesson
g9
tp1551
F1
s(Vvnfold
g27
tp1552
F1
s(Vonce
g9
tp1553
F1
s(Vyouth
g53
tp1554
F1
s(Vieatting
g58
tp1555
F1
s(Vwishes
g17
tp1556
F1
s(S'WP'
p1557
S'NNP'
p1558
tp1559
F1
s(Vcommand
g9
tp1560
F1
s(Vfar
S'RB'
p1561
tp1562
F2
s(Vghessing
g58
tp1563
F1
s(Vbuttons
g17
tp1564
F2
s(Vbefore
g8
tp1565
F16
s(Vminded
g39
tp1566
F1
s(Vwalke
g27
tp1567
F2
s(Vdrosse
g9
tp1568
F3
s(Vhelp
g9
tp1569
F1
s(Vouerslip
g27
tp1570
F1
s(Vtimberd
g9
tp1571
F1
s(Villis
g27
tp1572
F1
s(Vfed
g9
tp1573
F1
s(VEue
g11
tp1574
F1
s(Vnewe
g17
tp1575
F1
s(Vpartial
g53
tp1576
F1
s(Vcommonly
g15
tp1577
F2
s(Vharm
g9
tp1578
F2
s(Vprouided
g39
tp1579
F1
s(Vargue
g41
tp1580
F1
s(Vhaue
g13
tp1581
F5
s(Vgrewe
g9
tp1582
F1
s(VWell
g15
tp1583
F13
s(Vtouching
g58
tp1584
F1
s(Vbriefe
g39
tp1585
F1
s(Vcomming
g9
tp1586
F1
s(Vdetermine
g27
tp1587
F1
s(g64
g41
tp1588
F14
s(Vskolding
g58
tp1589
F1
s(Vground
g9
tp1590
F2
s(Vdust
g9
tp1591
F1
s(Vfopperies
g17
tp1592
F2
s(Vmuse
g9
tp1593
F1
s(Vslaue
g9
tp1594
F1
s(g27
g912
tp1595
F111
s(Vfray
g9
tp1596
F1
s(Vmony
g9
tp1597
F4
s(Vpouerty
g9
tp1598
F1
s(Vqualified
g39
tp1599
F1
s(Vregardeth
g43
tp1600
F2
s(Vbreeches
g17
tp1601
F73
s(Vcast
g9
tp1602
F2
s(g13
S':'
tp1603
F6
s(Vliquor
g9
tp1604
F1
s(Vfro
g9
tp1605
F1
s(VLooke
g11
tp1606
F1
s(Vpaire
g9
tp1607
F7
s(Vvp
g43
tp1608
F1
s(VCormorant
g11
tp1609
F1
s(Vbricke
g9
tp1610
F1
s(Vshoomaker
g9
tp1611
F14
s(g72
S':'
tp1612
F2
s(Vmorpue
g53
tp1613
F1
s(VNobilitie
g11
tp1614
F1
s(Vsuds
g9
tp1615
F1
s(Vdrowsie
g9
tp1616
F2
s(Vboorde
g9
tp1617
F1
s(Vproclaimed
g39
tp1618
F1
s(Vcrackt
g9
tp1619
F1
s(Vwoorse
g9
tp1620
F1
s(Vtroubled
g39
tp1621
F3
s(Vsower
g45
tp1622
F2
s(Vmanners
g17
tp1623
F2
s(Vclime
g27
tp1624
F1
s(Vnecessitye
g8
tp1625
F1
s(g41
g11
tp1626
F4
s(Vqueane
g9
tp1627
F1
s(Vwe
S'PRP'
p1628
tp1629
F21
s(Viourneyeng
g39
tp1630
F1
s(g11
S'.'
tp1631
F59
s(Vtale
g53
tp1632
F1
s(Vtrugge
g9
tp1633
F1
s(Vred
g53
tp1634
F1
s(Vknaue
g53
tp1635
F1
s(Vcheapest
g20
tp1636
F1
s(g17
g332
tp1637
F1
s(Vdeuoure
g27
tp1638
F1
s(Vcuckhold
g9
tp1639
F1
s(Vvndooing
g58
tp1640
F1
s(Vtherefore
g15
tp1641
F24
s(VPeters
S'NNP'
p1642
tp1643
F1
s(Vcrossing
g58
tp1644
F1
s(Vwanton
g9
tp1645
F2
s(Vplea
g9
tp1646
F1
s(Vaunswere
g15
tp1647
F1
s(Vspots
g17
tp1648
F1
s(Vshame
g9
tp1649
F2
s(Vsay
g27
tp1650
F13
s(V15
S'CD'
p1651
tp1652
F1
s(Vvillanies
g17
tp1653
F3
s(VIacket
g11
tp1654
F1
s(Vesteeming
g58
tp1655
F1
s(Vsight
g9
tp1656
F1
s(VCourtnoll
g11
tp1657
F1
s(VGentility
g11
tp1658
F2
s(Vpulde
g9
tp1659
F1
s(g17
g614
tp1660
F21
s(Vvitler
g9
tp1661
F1
s(Vwrought
g9
tp1662
F1
s(g365
g498
tp1663
F2
s(Vselfe
g43
tp1664
F1
s(Vdeliuered
g13
tp1665
F2
s(Vforward
g15
tp1666
F2
s(Vsaw
g13
tp1667
F8
s(Vwit
g9
tp1668
F3
s(V3
g186
tp1669
F1
s(Vgoosecap
g9
tp1670
F1
s(VPlautus
g11
tp1671
F1
s(Vcolourd
g53
tp1672
F1
s(Vwhit
g9
tp1673
F2
s(VPerhaps
S'RB'
p1674
tp1675
F1
s(Vearle
g9
tp1676
F1
s(Vxi
g9
tp1677
F1
s(Varrogancie
g9
tp1678
F1
s(Vdo
g27
tp1679
F4
s(VEsquire
g11
tp1680
F2
s(Vamongst
g43
tp1681
F1
s(Vsugars
g17
tp1682
F1
s(Vcunningly
g15
tp1683
F4
s(Vsprung
g9
tp1684
F1
s(Vlaies
g43
tp1685
F1
s(Vspade
g9
tp1686
F2
s(Vvppe
g17
tp1687
F1
s(Vhouses
S'NNS'
p1688
tp1689
F3
s(Vcommon
S'JJ'
p1690
tp1691
F5
s(Vmiddle
g53
tp1692
F1
s(Vbene
g15
tp1693
F1
s(Vdesperate
g53
tp1694
F1
s(Vcarpers
g17
tp1695
F1
s(Vwot
g43
tp1696
F1
s(Vgraunt
g9
tp1697
F1
s(Vvaine
g53
tp1698
F2
s(Vreadie
g53
tp1699
F1
s(Vseruants
g17
tp1700
F1
s(Vthine
g9
tp1701
F1
s(VSex
g11
tp1702
F1
s(VWheras
g8
tp1703
F1
s(Vinuented
g13
tp1704
F3
s(Vperswade
g13
tp1705
F1
s(Vvndoone
g9
tp1706
F1
s(Vshomakers
g17
tp1707
F1
s(Vhard
g53
tp1708
F1
s(Vtrot
g27
tp1709
F1
s(Vscarce
g53
tp1710
F1
s(g107
g186
tp1711
F13
s(Vfamiliar
S'JJ'
p1712
tp1713
F1
s(S'NN'
p1714
g53
tp1715
F27
s(Vstrangers
g17
tp1716
F1
s(Vmanifested
g39
tp1717
F1
s(Vown
g53
tp1718
F4
s(g8
g8
tp1719
F104
s(Vloose
g53
tp1720
F1
s(g17
g111
tp1721
F90
s(Vconueniently
g15
tp1722
F1
s(Vdels
g17
tp1723
F1
s(Vsubstiltie
g9
tp1724
F1
s(Vwoulde
g53
tp1725
F1
s(Vfloure
g9
tp1726
F1
s(Vnatiue
g53
tp1727
F2
s(VLawyers
g17
tp1728
F1
s(Vchastising
g58
tp1729
F1
s(Vmercer
g9
tp1730
F4
s(Vforfeit
g9
tp1731
F3
s(Vdrew
g13
tp1732
F1
s(VMillainer
g11
tp1733
F1
s(Vheere
g15
tp1734
F3
s(VAprons
g17
tp1735
F1
s(Vpulleth
g9
tp1736
F1
s(Vkitchin
g9
tp1737
F1
s(Vrowing
g9
tp1738
F1
s(Vrespect
g9
tp1739
F1
s(Vcherish
g27
tp1740
F1
s(g45
g477
tp1741
F3
s(Vfingers
g17
tp1742
F2
s(Vpractises
g17
tp1743
F1
s(Vneighbor
g9
tp1744
F2
s(Vprincocre
g27
tp1745
F1
s(S','
g627
tp1746
F16
s(Vthee
g17
tp1747
F1
s(Vformer
S'JJ'
p1748
tp1749
F1
s(Vdiscourst
g41
tp1750
F1
s(Vselleth
g9
tp1751
F1
s(Vgol
g53
tp1752
F1
s(V1
g896
tp1753
F1
s(g90
g53
tp1754
F2
s(VSo
g15
tp1755
F1
s(Vlight
g9
tp1756
F3
s(Vcorrection
g9
tp1757
F1
s(Vfather
g9
tp1758
F5
s(Vgestures
g17
tp1759
F1
s(VIurie
g11
tp1760
F9
s(Vbooteth
g43
tp1761
F1
s(Vworthie
g41
tp1762
F1
s(Vfetch
g27
tp1763
F1
s(Vrefuse
g9
tp1764
F2
s(Vmee
g281
tp1765
F1
s(g300
g332
tp1766
F1
s(VCooke
g11
tp1767
F1
s(Vrequireth
g43
tp1768
F1
s(Vhath
g53
tp1769
F1
s(Vtwenty
g9
tp1770
F2
s(VFrench
g11
tp1771
F1
s(Vmens
g43
tp1772
F2
s(Vfeede
g9
tp1773
F1
s(Vskirtes
g17
tp1774
F1
s(Vbirth
g9
tp1775
F3
s(Vpride
g27
tp1776
F2
s(Vturns
g43
tp1777
F1
s(Vretailing
g9
tp1778
F1
s(Vking
g9
tp1779
F1
s(Vbusd
g9
tp1780
F1
s(Vkitchen
g9
tp1781
F1
s(VThen
S'RB'
p1782
tp1783
F4
s(Vimposeth
g43
tp1784
F2
s(VFlushing
g11
tp1785
F1
s(g96
g19
tp1786
F21
s(VFides
g11
tp1787
F1
s(Vten
g53
tp1788
F4
s(Vfarmer
g9
tp1789
F2
s(Vsalt
g9
tp1790
F1
s(Vfit
g9
tp1791
F2
s(Vlabour
g70
tp1792
F1
s(VIndeed
S'RB'
p1793
tp1794
F6
s(Vmind
g9
tp1795
F5
s(Vexempted
g39
tp1796
F1
s(Vmeans
g43
tp1797
F1
s(Vneedes
g43
tp1798
F1
s(Vprowdest
g9
tp1799
F1
s(Vswartrutting
g58
tp1800
F1
s(Vround
g9
tp1801
F2
s(g96
g17
tp1802
F4
s(Vpin
g9
tp1803
F1
s(VBaptist
g11
tp1804
F1
s(Vfeet
S'NNS'
p1805
tp1806
F5
s(Vpretty
g53
tp1807
F1
s(Vidolatry
g9
tp1808
F1
s(Vpearle
g9
tp1809
F2
s(Vtake
g27
tp1810
F12
s(Vfriends
g17
tp1811
F9
s(Vcommending
g58
tp1812
F1
s(g39
S':'
tp1813
F1
s(Vletteth
g13
tp1814
F1
s(g477
S','
tp1815
F3
s(g17
g43
tp1816
F7
s(Vbase
g9
tp1817
F11
s(Vcaueat
g9
tp1818
F1
s(Vtis
g9
tp1819
F4
s(Vplate
g9
tp1820
F1
s(g43
g281
tp1821
F53
s(Vmarket
S'NN'
p1822
tp1823
F4
s(Vbretheren
g39
tp1824
F1
s(Vtearmes
g17
tp1825
F1
s(Vobscure
g53
tp1826
F1
s(Vcheefe
g41
tp1827
F1
s(Vapace
g9
tp1828
F1
s(Vsecrets
g17
tp1829
F1
s(Vbriskly
g9
tp1830
F1
s(Vrefuse
g53
tp1831
F1
s(Vclaime
g41
tp1832
F1
s(Vsit
g53
tp1833
F1
s(Vsuche
g41
tp1834
F1
s(Vwast
g27
tp1835
F1
s(VI
g1022
tp1836
F307
s(Vroome
g9
tp1837
F1
s(Vlightnesse
g9
tp1838
F1
s(Vdestruction
g9
tp1839
F1
s(Vshooes
g17
tp1840
F2
s(Vcorrect
g27
tp1841
F1
s(Vgreatest
g20
tp1842
F1
s(VPeasant
g11
tp1843
F1
s(Vlandlordes
g17
tp1844
F1
s(S':'
g91
tp1845
F1
s(VUpon
g8
tp1846
F1
s(Vshouell
g9
tp1847
F1
s(Vwoulde
g9
tp1848
F2
s(VCourtier
g11
tp1849
F2
s(S','
g15
tp1850
F106
s(g96
g9
tp1851
F16
s(VChandler
g11
tp1852
F2
s(Vrash
g9
tp1853
F1
s(Vnewes
g9
tp1854
F2
s(Vgreasie
g53
tp1855
F1
s(Vshepheard
g9
tp1856
F2
s(Vmaintayne
g27
tp1857
F1
s(Vtroope
g9
tp1858
F2
s(Vdegree
g9
tp1859
F2
s(Vnames
g17
tp1860
F9
s(S'RB'
p1861
g320
tp1862
F2
s(VGlouer
g11
tp1863
F1
s(Vother
g99
tp1864
F39
s(Vpeacock
g9
tp1865
F1
s(Vcontrouersie
g9
tp1866
F9
s(Vmonye
g9
tp1867
F1
s(Vrusset
g9
tp1868
F3
s(Vright
g15
tp1869
F1
s(Vsith
g43
tp1870
F2
s(VBasciareli
g11
tp1871
F1
s(Vmaintaynance
g9
tp1872
F1
s(Vpecus
g9
tp1873
F1
s(Vfaulkner
g9
tp1874
F1
s(Vcounterfait
g9
tp1875
F1
s(Vfat
g53
tp1876
F4
s(Vgranted
g39
tp1877
F1
s(Vprepare
g27
tp1878
F1
s(Vthou
g9
tp1879
F12
s(Vpoore
g27
tp1880
F2
s(Vsnap
g9
tp1881
F1
s(Vshould
g100
tp1882
F33
s(VSumner
g11
tp1883
F1
s(Vantient
g9
tp1884
F2
s(Vmans
g17
tp1885
F7
s(Vstoode
g41
tp1886
F1
s(g477
S':'
tp1887
F1
s(Vprofit
g27
tp1888
F1
s(Vpounds
g17
tp1889
F4
s(Vlay
g70
tp1890
F1
s(Vdelatory
g9
tp1891
F1
s(Vfaultes
g17
tp1892
F1
s(Vwrits
g17
tp1893
F1
s(Vextremos
g106
tp1894
F1
s(Vmen
g1398
tp1895
F42
s(S'MD'
p1896
g96
tp1897
F1
s(Vgrim
g53
tp1898
F1
s(Vscoures
g43
tp1899
F1
s(g873
g529
tp1900
F4
s(Vlewd
g53
tp1901
F1
s(VRapyer
g11
tp1902
F1
s(Vtill
g27
tp1903
F1
s(g363
g8
tp1904
F9
s(Vtalke
g27
tp1905
F1
s(Vrotten
g53
tp1906
F1
s(Veye
S'NN'
p1907
tp1908
F4
s(Veither
g15
tp1909
F4
s(Vwherein
g9
tp1910
F1
s(Vfrankly
g15
tp1911
F1
s(Vdisport
g27
tp1912
F1
s(Vbullocke
g9
tp1913
F1
s(Vwept
g13
tp1914
F1
s(Vpewter
g9
tp1915
F2
s(Vsubtill
g9
tp1916
F1
s(Vbrauerie
g9
tp1917
F4
s(Vdies
g17
tp1918
F1
s(g58
g53
tp1919
F11
s(Vouerthrowne
g9
tp1920
F1
s(Vsollemnlie
g53
tp1921
F1
s(Vpeople
S'NNS'
p1922
tp1923
F5
s(Vnature
g53
tp1924
F1
s(g8
g625
tp1925
F14
s(Voffend
g41
tp1926
F1
s(Vwasted
g13
tp1927
F1
s(Vchangelings
g17
tp1928
F1
s(Vfellowes
g9
tp1929
F5
s(VButchers
g11
tp1930
F1
s(Valcumie
g9
tp1931
F1
s(Vgathered
g39
tp1932
F2
s(Vvse
g41
tp1933
F4
s(Vwealth
g9
tp1934
F9
s(Vrobd
g9
tp1935
F1
s(g17
S')'
tp1936
F7
s(Vreckonings
g17
tp1937
F1
s(Vtooke
g13
tp1938
F1
s(Vlength
g9
tp1939
F3
s(g58
g332
tp1940
F9
s(Vnew
S'JJ'
p1941
tp1942
F5
s(Vtake
g41
tp1943
F2
s(Vhopes
g17
tp1944
F1
s(Vpricks
g17
tp1945
F1
s(Vpinch
g27
tp1946
F2
s(Vpriuie
g9
tp1947
F1
s(Vwaighty
g53
tp1948
F1
s(Vchild
g9
tp1949
F3
s(Vdoo
g41
tp1950
F1
s(Vabuse
g9
tp1951
F1
s(Vapply
g41
tp1952
F1
s(g20
g91
tp1953
F1
s(Vturnde
g9
tp1954
F1
s(Vreadie
g9
tp1955
F1
s(Vyour
g627
tp1956
F123
s(Vcontemned
g13
tp1957
F1
s(Vattempteth
g8
tp1958
F1
s(Vthigh
g9
tp1959
F1
s(Vappeasing
g9
tp1960
F1
s(Vaduersary
g9
tp1961
F1
s(Vfew
S'JJ'
p1962
tp1963
F3
s(Vdrudges
g17
tp1964
F1
s(Vincroching
g58
tp1965
F1
s(Vbegge
g27
tp1966
F2
s(Vyearn
g27
tp1967
F1
s(Viugler
g9
tp1968
F2
s(Veate
g9
tp1969
F2
s(Vhee
g27
tp1970
F6
s(Vsword
g9
tp1971
F1
s(Vlend
g53
tp1972
F1
s(Vpay
g41
tp1973
F1
s(g43
g15
tp1974
F44
s(V;
S':'
tp1975
F1
s(VPort
g11
tp1976
F1
s(Vsnap
g27
tp1977
F1
s(Vreasons
g1327
tp1978
F2
s(VAristides
g11
tp1979
F1
s(VNomine
g11
tp1980
F1
s(Vbetwixt
g53
tp1981
F1
s(Vdisplayeng
g9
tp1982
F1
s(Variued
g39
tp1983
F1
s(Veuer
g43
tp1984
F1
s(Vhap
g41
tp1985
F1
s(Vbeggar
g9
tp1986
F1
s(VApoticaries
g11
tp1987
F1
s(g27
g1391
tp1988
F1
s(Vhospitality
g9
tp1989
F3
s(Vbreech
g9
tp1990
F4
s(Vworlde
g9
tp1991
F1
s(Vantient
g53
tp1992
F4
s(Vset
g27
tp1993
F3
s(Vputteth
g17
tp1994
F1
s(Vsaddles
g17
tp1995
F1
s(Vprotesteth
g9
tp1996
F1
s(VGaoler
g11
tp1997
F1
s(Vbloud
g53
tp1998
F1
s(Vno
g15
tp1999
F1
s(Vfurther
g15
tp2000
F1
s(Venimie
g9
tp2001
F2
s(Vbadde
g9
tp2002
F1
s(Vproue
g41
tp2003
F2
s(Vmalapert
g53
tp2004
F1
s(Vbuy
g27
tp2005
F7
s(VIs
g43
tp2006
F1
s(Vsilke
g53
tp2007
F1
s(Vbrimmes
g17
tp2008
F1
s(Valate
g9
tp2009
F1
s(VGentlewoman
g11
tp2010
F1
s(Vmoney
S'NN'
p2011
tp2012
F6
s(Vvnthriftes
g17
tp2013
F1
s(Vinner
g53
tp2014
F1
s(Vpoison
g9
tp2015
F1
s(Vbuies
g43
tp2016
F2
s(Vrixare
g9
tp2017
F1
s(Vpuffing
g58
tp2018
F1
s(Vfop
g9
tp2019
F1
s(Vquoth
g72
tp2020
F11
s(Vthirde
g9
tp2021
F2
s(V9
S'CD'
p2022
tp2023
F1
s(Vplaintiffe
g39
tp2024
F1
s(Vsucker
g9
tp2025
F1
s(Vskeine
g9
tp2026
F1
s(Vholiday
g9
tp2027
F1
s(Vfailes
g43
tp2028
F1
s(S','
g294
tp2029
F31
s(VIustice
g11
tp2030
F1
s(Vmisorder
g27
tp2031
F1
s(Vgoe
g43
tp2032
F1
s(Vhaue
g43
tp2033
F4
s(Vcourteously
g15
tp2034
F2
s(Vbring
g27
tp2035
F8
s(Vthemselues
g41
tp2036
F2
s(Vdelvd
g9
tp2037
F1
s(g1391
g9
tp2038
F2
s(Vanswered
g39
tp2039
F1
s(VNoueltye
g11
tp2040
F1
s(Vexempt
g41
tp2041
F1
s(Val
g27
tp2042
F1
s(g41
S':'
tp2043
F3
s(Vdissembling
g9
tp2044
F1
s(Vthighes
g17
tp2045
F1
s(Vcompoundeth
g43
tp2046
F1
s(Vwith
g524
tp2047
F192
s(VCalues
g11
tp2048
F3
s(Vraise
g41
tp2049
F1
s(Vveriuice
g9
tp2050
F1
s(Vhow
g442
tp2051
F23
s(Vworship
g9
tp2052
F8
s(Vvppe
g9
tp2053
F9
s(VGranado
g11
tp2054
F1
s(Vthinke
g27
tp2055
F1
s(Vforty
g9
tp2056
F1
s(Vlined
g13
tp2057
F1
s(Voile
g9
tp2058
F2
s(Vlooke
g41
tp2059
F1
s(Vaime
g53
tp2060
F1
s(Vtales
g17
tp2061
F1
s(S')'
g27
tp2062
F1
s(Vperhaps
S'RB'
p2063
tp2064
F12
s(g41
g477
tp2065
F34
s(Vvnto
g9
tp2066
F3
s(Vsuspitious
g53
tp2067
F1
s(g64
g96
tp2068
F1
s(Vnewe
g53
tp2069
F1
s(Vvserers
g17
tp2070
F1
s(g58
g363
tp2071
F1
s(Vskild
g41
tp2072
F1
s(Vlike
g53
tp2073
F1
s(Vmarts
g17
tp2074
F2
s(Vvnlesse
g9
tp2075
F2
s(Vflat
g53
tp2076
F1
s(VBlame
g11
tp2077
F1
s(Vshirts
g17
tp2078
F1
s(g11
g19
tp2079
F6
s(Vmarchants
g17
tp2080
F1
s(Vequitie
g9
tp2081
F2
s(Vtied
g39
tp2082
F1
s(Vpacing
g9
tp2083
F1
s(Varested
g39
tp2084
F1
s(Vvplandish
g53
tp2085
F1
s(Vmonthly
g15
tp2086
F1
s(Vamount
g27
tp2087
F1
s(Vgiueth
g43
tp2088
F1
s(Vwere
g138
tp2089
F68
s(Vpence
g9
tp2090
F15
s(Vvppe
g15
tp2091
F1
s(Vinterest
S'NN'
p2092
tp2093
F2
s(Vdeere
g15
tp2094
F4
s(Vprecise
g15
tp2095
F2
s(Vmatter
g9
tp2096
F11
s(Vvickar
g9
tp2097
F4
s(Vproude
g53
tp2098
F2
s(Vouerglased
g39
tp2099
F1
s(Vfound
g13
tp2100
F2
s(Vbottome
g9
tp2101
F2
s(Vthinges
g43
tp2102
F1
s(Vcotes
g17
tp2103
F1
s(Vdistressed
g53
tp2104
F1
s(Vpouch
g53
tp2105
F1
s(Vwisedome
g9
tp2106
F1
s(Vput
g27
tp2107
F6
s(Vhose
g9
tp2108
F3
s(Vqd
g13
tp2109
F1
s(Vpretie
g53
tp2110
F1
s(g15
g8
tp2111
F141
s(Vword
S'NN'
p2112
tp2113
F4
s(Vchallenged
g39
tp2114
F1
s(g27
S','
tp2115
F35
s(Vpottes
g17
tp2116
F1
s(Vfour
S'CD'
p2117
tp2118
F1
s(Vheresies
g17
tp2119
F1
s(Vhe
g614
tp2120
F260
s(Vspunged
g39
tp2121
F1
s(Vthird
g9
tp2122
F1
s(Vhumble
g53
tp2123
F3
s(Vbawdie
g9
tp2124
F3
s(Vshal
g41
tp2125
F4
s(g19
g365
tp2126
F4
s(Vauthoritie
g17
tp2127
F1
s(Vquasi
g53
tp2128
F1
s(g186
g469
tp2129
F21
s(Vwithall
g41
tp2130
F1
s(Vstocke
g9
tp2131
F1
s(Vparentage
g9
tp2132
F1
s(Vbeg
g41
tp2133
F1
s(VBeside
g11
tp2134
F2
s(Vskinner
g15
tp2135
F1
s(Vworkman
g9
tp2136
F1
s(Vvpstarts
g17
tp2137
F4
s(Vwall
g9
tp2138
F1
s(Vhil
g9
tp2139
F1
s(Vpreach
g41
tp2140
F1
s(VParliament
g11
tp2141
F1
s(Vknighte
g9
tp2142
F1
s(Vcut
g9
tp2143
F4
s(VHexamiter
g11
tp2144
F1
s(Vcote
g9
tp2145
F1
s(S','
g1391
tp2146
F8
s(Vmaking
g58
tp2147
F5
s(Vtolde
g13
tp2148
F2
s(VCow
g11
tp2149
F1
s(Vremembred
g39
tp2150
F1
s(Vannered
g13
tp2151
F1
s(Vdrinking
g58
tp2152
F2
s(Vverye
g27
tp2153
F1
s(Vsheets
g17
tp2154
F1
s(Vbraines
g17
tp2155
F1
s(Vput
g13
tp2156
F1
s(VWe
S'PRP'
p2157
tp2158
F1
s(Vsetting
g58
tp2159
F1
s(Vheauie
g27
tp2160
F1
s(VProuerbe
g11
tp2161
F1
s(Vcould
g556
tp2162
F11
s(g27
g1026
tp2163
F185
s(Vrehearse
g27
tp2164
F1
s(VHall
g11
tp2165
F1
s(VDier
g11
tp2166
F2
s(Vmildly
g15
tp2167
F1
s(g70
g477
tp2168
F1
s(Vbellowsmender
g9
tp2169
F1
s(Vfallen
g39
tp2170
F1
s(Vstale
g9
tp2171
F1
s(Vthou
g13
tp2172
F1
s(Vpray
g9
tp2173
F1
s(Vlegges
g17
tp2174
F5
s(Vcontempt
g9
tp2175
F1
s(Vnone
g9
tp2176
F21
s(VLords
g17
tp2177
F1
s(Vbacks
g17
tp2178
F6
s(Vslubber
g27
tp2179
F1
s(Vproued
g39
tp2180
F1
s(Vpesant
g9
tp2181
F1
s(Vsumptuous
g53
tp2182
F2
s(g58
g87
tp2183
F1
s(Vbrests
g17
tp2184
F1
s(Vleather
g9
tp2185
F8
s(Vnight
S'NN'
p2186
tp2187
F7
s(Vshuffle
g13
tp2188
F1
s(Vpomp
g9
tp2189
F1
s(g53
g15
tp2190
F9
s(Vworld
g319
tp2191
F8
s(g326
g1398
tp2192
F5
s(Vchalenge
g41
tp2193
F3
s(Vsprang
g13
tp2194
F1
s(Vallowe
g9
tp2195
F2
s(Vweaponlesse
g41
tp2196
F1
s(Vextraordinarie
g27
tp2197
F1
s(Vholde
g41
tp2198
F1
s(VHerbalists
g17
tp2199
F1
s(Vsharpe
g9
tp2200
F1
s(Vappeale
g41
tp2201
F1
s(VPriest
g11
tp2202
F1
s(Vpurgations
g17
tp2203
F1
s(Vdrawne
g53
tp2204
F1
s(Vprinces
g17
tp2205
F2
s(Vloose
g41
tp2206
F1
s(Vtree
g9
tp2207
F1
s(Vpluckt
g43
tp2208
F1
s(g8
S'MD'
p2209
tp2210
F9
s(Vfoole
g53
tp2211
F1
s(VIn
g8
tp2212
F4
s(VBowbies
g11
tp2213
F1
s(VR.
S'NNP'
p2214
tp2215
F1
s(Vvnfit
g27
tp2216
F1
s(Vvouchsafe
g9
tp2217
F1
s(Vhousholdstuf
g9
tp2218
F1
s(Veare
g9
tp2219
F1
s(Vinquire
g27
tp2220
F2
s(Vtalke
g9
tp2221
F1
s(Vbred
g13
tp2222
F1
s(g100
g1398
tp2223
F2
s(Vhalfe
g9
tp2224
F4
s(Vtheir
g332
tp2225
F142
s(Vclaim
g41
tp2226
F1
s(Vsweat
g9
tp2227
F2
s(Vtrust
g27
tp2228
F3
s(Vattire
g9
tp2229
F1
s(Vprerogatiues
g43
tp2230
F1
s(Vreuerently
g15
tp2231
F1
s(g111
S'IN'
p2232
tp2233
F114
s(VGods
g11
tp2234
F3
s(Vindeede
g41
tp2235
F1
s(Vcard
g43
tp2236
F1
s(Vsumner
g9
tp2237
F3
s(Vweares
g43
tp2238
F1
s(Vvice
S'NN'
p2239
tp2240
F2
s(Vfortye
g43
tp2241
F1
s(Vcourtiouslye
g27
tp2242
F1
s(Vthere
g15
tp2243
F12
s(Vfil
g53
tp2244
F1
s(Vdoubt
g27
tp2245
F1
s(Vdisorder
g9
tp2246
F1
s(Vparts
S'NNS'
p2247
tp2248
F1
s(g43
g1416
tp2249
F3
s(VWaterman
g11
tp2250
F3
s(Vwhipcord
g9
tp2251
F1
s(Vstiffened
g39
tp2252
F1
s(Vbootes
g43
tp2253
F1
s(Vqd
g9
tp2254
F33
s(Vwicker
g9
tp2255
F1
s(Vyeere
g9
tp2256
F1
s(Vtincture
g9
tp2257
F1
s(VBattlear
g11
tp2258
F1
s(Vpreferment
g27
tp2259
F1
s(Vstuffe
g9
tp2260
F9
s(VLamiae
g11
tp2261
F1
s(Vserieants
g17
tp2262
F1
s(Vsoone
g27
tp2263
F2
s(Vfinde
g41
tp2264
F1
s(VCaesar
g11
tp2265
F1
s(Vbought
g13
tp2266
F2
s(Vby
g2232
tp2267
F123
s(Vvnlesse
g8
tp2268
F1
s(Vmonsterous
g53
tp2269
F1
s(Vplain
g9
tp2270
F3
s(VNow
S'RB'
p2271
tp2272
F5
s(Vknoweth
g43
tp2273
F1
s(Vfoole
g9
tp2274
F1
s(Vmaister
g41
tp2275
F1
s(Vpaide
g53
tp2276
F1
s(Vobiection
g9
tp2277
F2
s(Vcerteine
g9
tp2278
F1
s(Vwoorse
g8
tp2279
F1
s(VCamels
g11
tp2280
F1
s(Vrapyer
g9
tp2281
F3
s(Vcashierd
g39
tp2282
F1
s(Vholye
g9
tp2283
F1
s(g186
g64
tp2284
F4
s(Vfilthy
g53
tp2285
F3
s(g9
g614
tp2286
F127
s(Vclap
g9
tp2287
F1
s(Vresident
g53
tp2288
F1
s(Vbreefly
g53
tp2289
F1
s(Vwasting
g58
tp2290
F1
s(Vchop
g9
tp2291
F1
s(g11
g332
tp2292
F2
s(Vreceiuer
g9
tp2293
F1
s(Vsooths
g13
tp2294
F1
s(Vtorment
g27
tp2295
F1
s(Vruffes
g9
tp2296
F1
s(Vcoms
g43
tp2297
F1
s(Vmens
g17
tp2298
F2
s(Vspeaking
g58
tp2299
F1
s(Vmaintaineth
g27
tp2300
F1
s(Vchambers
g17
tp2301
F1
s(g9
S'('
tp2302
F8
s(Viollie
g53
tp2303
F1
s(Vvnthrift
g9
tp2304
F1
s(Vdark
g9
tp2305
F1
s(Vwelthy
g53
tp2306
F2
s(Vprofession
g9
tp2307
F1
s(Vwhereat
g9
tp2308
F1
s(g41
g281
tp2309
F87
s(Varrest
g41
tp2310
F1
s(Vissue
g9
tp2311
F3
s(Vsuted
g39
tp2312
F1
s(Vhadde
g41
tp2313
F2
s(Vsale
S'NN'
p2314
tp2315
F3
s(Vfind
g27
tp2316
F7
s(VCadwaller
g11
tp2317
F1
s(Vgentleman
g9
tp2318
F10
s(Vconclude
g41
tp2319
F1
s(Vrate
S'NN'
p2320
tp2321
F1
s(Vworks
g17
tp2322
F1
s(g1391
g13
tp2323
F9
s(Vweeds
g17
tp2324
F1
s(Vmender
g9
tp2325
F1
s(Vlims
g17
tp2326
F1
s(Vfacultie
g9
tp2327
F1
s(Vrequiers
g43
tp2328
F1
s(Vimpudent
g53
tp2329
F2
s(Vhide
g27
tp2330
F1
s(Vfast
g15
tp2331
F2
s(Vheres
g43
tp2332
F1
s(Vvnder
g9
tp2333
F1
s(Vbrowe
g9
tp2334
F1
s(Vdriuen
g53
tp2335
F1
s(Vthus
g1861
tp2336
F22
s(Vhospitalitie
g53
tp2337
F1
s(Vvillanie
g9
tp2338
F2
s(Vbrag
g27
tp2339
F1
s(g1203
g9
tp2340
F20
s(VCommon
g11
tp2341
F4
s(Vscratch
g27
tp2342
F1
s(Vwhoe
g9
tp2343
F1
s(Vdissolued
g39
tp2344
F1
s(Vsins
g17
tp2345
F1
s(Vyeeld
g53
tp2346
F1
s(Vdunghill
g53
tp2347
F2
s(Vdrudge
g9
tp2348
F1
s(Vdrop
g9
tp2349
F1
s(S'('
g2209
tp2350
F1
s(Vvtterly
g53
tp2351
F1
s(Vclients
S'NNS'
p2352
tp2353
F1
s(Vshop
g9
tp2354
F4
s(VS.
S'NNP'
p2355
tp2356
F2
s(Vbarber
g9
tp2357
F3
s(Velse
g15
tp2358
F4
s(g11
g58
tp2359
F5
s(Vfoot
g9
tp2360
F3
s(Vmeale
g53
tp2361
F1
s(Vgarnish
g53
tp2362
F1
s(Vbusye
g9
tp2363
F1
s(Vcurrit
g53
tp2364
F1
s(Vexcepted
g13
tp2365
F1
s(Vnosegaies
g17
tp2366
F1
s(Vperiwig
g9
tp2367
F1
s(Vskin
g13
tp2368
F1
s(Vbutterd
g27
tp2369
F1
s(VAngels
g11
tp2370
F1
s(Vhaue
g281
tp2371
F1
s(Vspruce
g9
tp2372
F1
s(Voff
g363
tp2373
F3
s(Vrespecteth
g9
tp2374
F1
s(Vlether
g9
tp2375
F1
s(Vrightlye
g53
tp2376
F1
s(Vcuts
g43
tp2377
F1
s(Vhung
g9
tp2378
F1
s(Vcutting
g58
tp2379
F1
s(VTartar
g11
tp2380
F1
s(V17
S'CD'
p2381
tp2382
F1
s(g163
g41
tp2383
F9
s(VAmbodexters
g17
tp2384
F1
s(VBoores
g17
tp2385
F1
s(Vsithe
g9
tp2386
F1
s(Vhee
g39
tp2387
F3
s(Vlifting
g9
tp2388
F1
s(Vgrow
g9
tp2389
F1
s(Vvicinumque
g53
tp2390
F1
s(g163
g1432
tp2391
F5
s(VEngland
S'NNP'
p2392
tp2393
F11
s(S'PRP'
p2394
g138
tp2395
F210
s(Vsensuall
g53
tp2396
F1
s(g2394
g96
tp2397
F8
s(g827
g11
tp2398
F10
s(Vblesse
g27
tp2399
F1
s(Vcraue
g41
tp2400
F1
s(Vhomely
g53
tp2401
F1
s(Vhonest
g20
tp2402
F17
s(Vvp
g9
tp2403
F19
s(Vclapt
g9
tp2404
F1
s(Vhir
g9
tp2405
F5
s(Vspied
g13
tp2406
F2
s(Vreuerenst
g9
tp2407
F1
s(Vdooth
g15
tp2408
F1
s(Vaboue
g53
tp2409
F1
s(Vgrow
g27
tp2410
F4
s(Vshames
g17
tp2411
F1
s(g496
S'.'
tp2412
F2
s(Vcredite
g53
tp2413
F1
s(Vtogether
g15
tp2414
F3
s(g64
g72
tp2415
F2
s(VDutchman
g11
tp2416
F4
s(Vquoth
g15
tp2417
F2
s(Vvnreasonable
g53
tp2418
F1
s(g9
g9
tp2419
F385
s(Vstudye
g9
tp2420
F1
s(Vdignitie
g9
tp2421
F2
s(Vsmiling
g58
tp2422
F2
s(Vsmoke
g9
tp2423
F2
s(VNeedams
g11
tp2424
F1
s(g614
g27
tp2425
F93
s(Vconuey
g9
tp2426
F1
s(VLimbo
g11
tp2427
F1
s(Vsmall
S'JJ'
p2428
tp2429
F8
s(Vtheselues
g17
tp2430
F1
s(Vfrom
S'IN'
p2431
tp2432
F30
s(Vbush
g9
tp2433
F4
s(Vdesire
g27
tp2434
F2
s(Vdoong
g15
tp2435
F1
s(Vend
g27
tp2436
F1
s(VOh
g11
tp2437
F1
s(g1150
g375
tp2438
F9
s(Vcourtiers
g17
tp2439
F1
s(Vliue
g15
tp2440
F3
s(Vmidnight
g9
tp2441
F1
s(Vpincheth
g53
tp2442
F1
s(Vcame
S'VBD'
p2443
tp2444
F14
s(VTaffata
g56
tp2445
F1
s(Vgoldsmiths
g53
tp2446
F1
s(Vlippe
g9
tp2447
F1
s(g53
g271
tp2448
F9
s(Vwaxe
g41
tp2449
F1
s(Vlace
g9
tp2450
F5
s(Vliuing
g9
tp2451
F4
s(g15
S')'
tp2452
F2
s(Vshew
g27
tp2453
F5
s(Vnow
S'RB'
p2454
tp2455
F14
s(Vtearm
g27
tp2456
F1
s(Vdeuill
g9
tp2457
F1
s(Vbeste
g43
tp2458
F1
s(VDoth
g11
tp2459
F1
s(Vlees
g17
tp2460
F2
s(Vsaye
g27
tp2461
F2
s(Vtrimlye
g53
tp2462
F1
s(Vblow
g9
tp2463
F2
s(g96
g11
tp2464
F7
s(Vstinking
g53
tp2465
F1
s(Vseuen
g9
tp2466
F2
s(Vwittes
g17
tp2467
F1
s(Vhead
g41
tp2468
F1
s(S')'
g8
tp2469
F4
s(Vfrolikly
g15
tp2470
F1
s(VOstrie
g11
tp2471
F1
s(Vpolicie
g9
tp2472
F1
s(Vmotion
g9
tp2473
F2
s(Vpresumptuous
g53
tp2474
F1
s(Vheeles
g17
tp2475
F2
s(Vtill
g8
tp2476
F2
s(Vfall
g9
tp2477
F2
s(g15
g20
tp2478
F2
s(g442
g8
tp2479
F10
s(g162
g13
tp2480
F6
s(VMusicke
g11
tp2481
F1
s(Vpenall
g9
tp2482
F1
s(Vyuough
g9
tp2483
F1
s(Vmousier
g45
tp2484
F1
s(Vministers
g17
tp2485
F1
s(Vsaies
g43
tp2486
F1
s(Vinfinite
g53
tp2487
F2
s(Vwaights
g17
tp2488
F1
s(VCurrier
g11
tp2489
F9
s(g363
S','
tp2490
F4
s(g17
S','
tp2491
F299
s(g9
S'.'
tp2492
F196
s(Vyarne
g9
tp2493
F1
s(Vgradmother
g9
tp2494
F1
s(Vpaieng
g43
tp2495
F1
s(g332
g53
tp2496
F57
s(g477
g15
tp2497
F3
s(VSaffron
g11
tp2498
F1
s(Vdoth
g27
tp2499
F1
s(Vtempring
g9
tp2500
F1
s(Vseruice
g9
tp2501
F2
s(Vsinister
g9
tp2502
F1
s(Vconuersant
g27
tp2503
F1
s(Vpillory
g9
tp2504
F2
s(Vscum
g9
tp2505
F1
s(Vwee
g43
tp2506
F1
s(Vgainer
g9
tp2507
F1
s(Vkisses
g17
tp2508
F1
s(Vworkmanship
g9
tp2509
F1
s(Vfell
S'VBD'
p2510
tp2511
F4
s(Vfall
g15
tp2512
F1
s(Vhalfe
g41
tp2513
F1
s(Vbestowed
g13
tp2514
F1
s(Vtoies
g17
tp2515
F1
s(Vcheese
g9
tp2516
F2
s(Vheads
g17
tp2517
F5
s(g827
g9
tp2518
F8
s(Vseeke
g39
tp2519
F1
s(Vfruit
g9
tp2520
F1
s(Vmisfortune
g58
tp2521
F1
s(Vgoe
g9
tp2522
F3
s(Vline
S'NN'
p2523
tp2524
F1
s(Vheadlesse
g9
tp2525
F1
s(Vpresent
g53
tp2526
F1
s(g27
g53
tp2527
F69
s(VPeter
S'NNP'
p2528
tp2529
F10
s(Vvox
g70
tp2530
F1
s(Vpardon
g41
tp2531
F2
s(Vbrokers
S'NNS'
p2532
tp2533
F2
s(Vtolde
g27
tp2534
F1
s(Vbid
g27
tp2535
F1
s(Vmeane
g41
tp2536
F2
s(Vaduersarie
g27
tp2537
F1
s(Vhowesoeuer
g9
tp2538
F1
s(Vworships
g17
tp2539
F2
s(VArtificer
g11
tp2540
F1
s(Vnor
S'CC'
p2541
tp2542
F25
s(Vobiecte
g9
tp2543
F1
s(Vrub
g9
tp2544
F1
s(Vcares
g43
tp2545
F2
s(Vhoppers
g17
tp2546
F1
s(Vmade
g39
tp2547
F10
s(g9
g11
tp2548
F48
s(Vthereof
g9
tp2549
F1
s(Vment
g41
tp2550
F1
s(Vholde
g27
tp2551
F1
s(Vwyfe
g9
tp2552
F2
s(VShepheard
g11
tp2553
F1
s(Vquayntlye
g9
tp2554
F1
s(Vscore
g9
tp2555
F2
s(Vnose
g53
tp2556
F2
s(Vwronging
g58
tp2557
F1
s(Vrepentace
g9
tp2558
F1
s(Vbeautified
g13
tp2559
F1
s(Vyet
g106
tp2560
F2
s(Vbeside
g15
tp2561
F3
s(Vneuer
g43
tp2562
F1
s(Vpriuate
g53
tp2563
F1
s(g11
g13
tp2564
F37
s(Vbare
g9
tp2565
F4
s(g13
g17
tp2566
F15
s(Vcurious
g53
tp2567
F3
s(Vsound
g27
tp2568
F1
s(g13
g912
tp2569
F17
s(Vbe
g271
tp2570
F193
s(Vlawes
g9
tp2571
F1
s(Vpennance
g9
tp2572
F1
s(Vbreake
g27
tp2573
F1
s(Vyea
g106
tp2574
F1
s(g72
S','
tp2575
F24
s(Vbandes
g17
tp2576
F1
s(Vstaple
g9
tp2577
F1
s(Vbowe
g9
tp2578
F1
s(Vdauncing
g9
tp2579
F2
s(VEligies
g17
tp2580
F1
s(Vhoong
g15
tp2581
F1
s(Vhard
g15
tp2582
F2
s(g477
g90
tp2583
F2
s(Vbackward
g15
tp2584
F1
s(Vayde
g9
tp2585
F1
s(Vprofite
g27
tp2586
F1
s(g64
g332
tp2587
F1
s(Vfaced
g13
tp2588
F2
s(Vface
g9
tp2589
F8
s(Vthreescore
g9
tp2590
F2
s(VPrinter
g9
tp2591
F1
s(Vspirit
g9
tp2592
F2
s(Vspeedily
g15
tp2593
F1
s(Vprouideth
g27
tp2594
F1
s(Vrealme
g9
tp2595
F1
s(Vpennall
g9
tp2596
F1
s(Vwooll
g9
tp2597
F4
s(Vtwine
g27
tp2598
F1
s(VNeatherstocke
g11
tp2599
F1
s(Vsollace
g27
tp2600
F1
s(Vseemeth
g43
tp2601
F1
s(Vnittie
g53
tp2602
F1
s(Vapparelled
g13
tp2603
F1
s(Vgate
g9
tp2604
F1
s(g64
g2394
tp2605
F6
s(Vsubteller
g9
tp2606
F1
s(Vadmit
g9
tp2607
F1
s(Vafternoon
S'NN'
p2608
tp2609
F1
s(g43
g107
tp2610
F11
s(Vlier
g9
tp2611
F1
s(Vmaid
g9
tp2612
F1
s(Vwarning
g9
tp2613
F1
s(Vempanell
g27
tp2614
F1
s(Vad
S'NN'
p2615
tp2616
F1
s(g332
g635
tp2617
F2
s(Vbeing
S'VBG'
p2618
tp2619
F12
s(g43
g300
tp2620
F1
s(VFlorentine
g11
tp2621
F1
s(Vfine
g53
tp2622
F3
s(Vneuer
g72
tp2623
F2
s(g27
g363
tp2624
F14
s(Vtapster
g9
tp2625
F1
s(Vpamphlets
g17
tp2626
F1
s(Vabuseth
g43
tp2627
F1
s(Vvp
g53
tp2628
F4
s(Vabsolute
g53
tp2629
F1
s(Vland
g41
tp2630
F1
s(Vspices
g17
tp2631
F3
s(Vcleane
g53
tp2632
F1
s(Vflattring
g9
tp2633
F1
s(VIury
g9
tp2634
F2
s(Vmorteses
g17
tp2635
F1
s(Vwhereas
g27
tp2636
F1
s(Vlaught
g13
tp2637
F1
s(Vsubtiltie
g13
tp2638
F1
s(Vtrade
g9
tp2639
F4
s(g294
g58
tp2640
F8
s(Vouer
g8
tp2641
F4
s(Vlyke
g365
tp2642
F1
s(Vcomfort
g9
tp2643
F1
s(Vshoone
g9
tp2644
F3
s(Vpoints
g17
tp2645
F2
s(Vso
g8
tp2646
F17
s(Viustificat
g9
tp2647
F1
s(Vmaister
g53
tp2648
F2
s(Vwherewith
g8
tp2649
F1
s(Vneyther
g45
tp2650
F1
s(Vgirles
g17
tp2651
F1
s(g64
g58
tp2652
F2
s(Vconceale
g41
tp2653
F1
s(Vcitizens
g17
tp2654
F1
s(VInformer
g11
tp2655
F1
s(Vputs
g43
tp2656
F3
s(VBeggars
g17
tp2657
F1
s(Vhastie
g9
tp2658
F1
s(Vskin
g9
tp2659
F2
s(Vsweare
g27
tp2660
F4
s(VGolde
g11
tp2661
F1
s(Vhand
S'NN'
p2662
tp2663
F6
s(Vcoulour
g9
tp2664
F1
s(Vdebt
S'NN'
p2665
tp2666
F1
s(Vauthority
g9
tp2667
F1
s(Vbegger
g9
tp2668
F1
s(Vswore
g9
tp2669
F1
s(Vthough
g8
tp2670
F22
s(g39
S'RB'
p2671
tp2672
F12
s(Vfeeles
g43
tp2673
F1
s(Vhide
g41
tp2674
F1
s(Vgets
S'VBZ'
p2675
tp2676
F2
s(Vindos
g9
tp2677
F1
s(Veither
g106
tp2678
F2
s(Vimpouerishing
g9
tp2679
F1
s(Vbuier
g9
tp2680
F2
s(Vwing
g9
tp2681
F1
s(Vprecept
g9
tp2682
F1
s(g53
g53
tp2683
F62
s(Vpreache
g27
tp2684
F1
s(Vmounsieur
g27
tp2685
F1
s(Vwoondring
g58
tp2686
F1
s(Vtwise
g9
tp2687
F2
s(Vstirring
g58
tp2688
F1
s(Vbut
g107
tp2689
F153
s(Vpeacockes
g17
tp2690
F1
s(VPer
g11
tp2691
F1
s(Vkeepe
g43
tp2692
F1
s(Vmonethes
g17
tp2693
F2
s(VAll
g300
tp2694
F1
s(VA
g11
tp2695
F1
s(Vwherevpon
g9
tp2696
F2
s(S','
g58
tp2697
F26
s(Vhaire
g27
tp2698
F1
s(Vsweareth
g17
tp2699
F1
s(Vfortunes
g17
tp2700
F2
s(Vespied
g39
tp2701
F1
s(Vshew
g41
tp2702
F1
s(g2271
g45
tp2703
F2
s(Vskore
g9
tp2704
F1
s(g53
g58
tp2705
F6
s(Vvertue
g41
tp2706
F2
s(Vpolicie
g17
tp2707
F1
s(Vdiuers
g17
tp2708
F2
s(Vnie
g15
tp2709
F1
s(VSo
g8
tp2710
F3
s(VAt
S'IN'
p2711
tp2712
F4
s(VTearmers
g11
tp2713
F1
s(Vlayd
g53
tp2714
F1
s(Vmost
g529
tp2715
F6
s(Vpainfully
g15
tp2716
F1
s(Vimagination
g9
tp2717
F2
s(Vbroken
g53
tp2718
F1
s(Vnecke
g9
tp2719
F1
s(Vattending
g58
tp2720
F3
s(Vcharity
g9
tp2721
F1
s(Vgoodman
g53
tp2722
F2
s(Vcarelesse
g9
tp2723
F1
s(Vcleered
g39
tp2724
F2
s(Vmaisters
g17
tp2725
F1
s(g529
g58
tp2726
F1
s(Vbrewesse
g9
tp2727
F1
s(Vdiligently
g15
tp2728
F1
s(Vchallenge
g27
tp2729
F1
s(Vcare
g41
tp2730
F3
s(Vpassing
g53
tp2731
F1
s(Vdicker
g9
tp2732
F1
s(Vfilling
g9
tp2733
F1
s(Vparishioners
g17
tp2734
F4
s(Vhungry
g53
tp2735
F3
s(Vhead
g9
tp2736
F6
s(Vmadge
g9
tp2737
F1
s(Vcruel
g9
tp2738
F1
s(S','
g11
tp2739
F34
s(Vthee
g27
tp2740
F1
s(Vlana
g70
tp2741
F1
s(Vbrasil
g9
tp2742
F1
s(Vprecept
g8
tp2743
F1
s(g271
g529
tp2744
F1
s(VFense-schoole
g53
tp2745
F1
s(VBruers
g11
tp2746
F1
s(Vperemptory
g15
tp2747
F1
s(Vthrift
S'NN'
p2748
tp2749
F1
s(VHonest
g11
tp2750
F1
s(Vsinnes
g17
tp2751
F2
s(Vregard
g9
tp2752
F1
s(Vmass
g41
tp2753
F1
s(VCandles
g11
tp2754
F1
s(S')'
g64
tp2755
F1
s(S','
g9
tp2756
F103
s(Vfellow
g9
tp2757
F5
s(Vpepper
g9
tp2758
F1
s(Vcormorant
g9
tp2759
F1
s(Vfroth
g9
tp2760
F1
s(Vwhole
g53
tp2761
F6
s(VPrinter
g11
tp2762
F3
s(Vstooped
g13
tp2763
F1
s(Vliued
g39
tp2764
F1
s(g56
S'.'
tp2765
F1
s(Voffences
g17
tp2766
F1
s(Vdeadly
g15
tp2767
F1
s(Vopen
g41
tp2768
F1
s(Vgropeth
g17
tp2769
F1
s(Vplace
g9
tp2770
F14
s(VSailor
g11
tp2771
F1
s(Vrents
g17
tp2772
F1
s(Vcaused
g13
tp2773
F1
s(g625
g107
tp2774
F11
s(Vaway
g363
tp2775
F3
s(Vtis
g27
tp2776
F1
s(g9
g17
tp2777
F101
s(Vshrews
g27
tp2778
F1
s(Vclimbe
g17
tp2779
F1
s(Vnice
g53
tp2780
F1
s(VVox
g11
tp2781
F1
s(Vmeaner
g9
tp2782
F1
s(Vwish
g41
tp2783
F2
s(VIt
S'PRP'
p2784
tp2785
F6
s(g70
g1022
tp2786
F1
s(Vofficials
S'NNS'
p2787
tp2788
F1
s(Vvouchsafing
g58
tp2789
F1
s(Vvale
g9
tp2790
F1
s(Vpourblinde
g53
tp2791
F1
s(Vhearbe
g9
tp2792
F1
s(g111
g87
tp2793
F10
s(Vdeceiue
g27
tp2794
F1
s(Vmixt
g9
tp2795
F1
s(Vlow
g53
tp2796
F3
s(VEnglishe
g11
tp2797
F2
s(Vpocket
g27
tp2798
F1
s(Vyouths
g17
tp2799
F3
s(Vstraight
g27
tp2800
F1
s(Vman
S'NN'
p2801
tp2802
F41
s(Vlittle
g53
tp2803
F19
s(g138
g11
tp2804
F11
s(Vvse
g9
tp2805
F2
s(Veuen
g41
tp2806
F1
s(Vpint
g9
tp2807
F2
s(Vplaisterer
g9
tp2808
F2
s(Vrubbing
g58
tp2809
F1
s(Vsattin
g9
tp2810
F2
s(Vpresse
g27
tp2811
F2
s(g17
g90
tp2812
F1
s(Vreuenge
g27
tp2813
F1
s(Vlaps
g17
tp2814
F1
s(Voffer
g41
tp2815
F1
s(Vayre
g9
tp2816
F1
s(VRuby
g11
tp2817
F1
s(Vappeare
g27
tp2818
F1
s(Vshal
g13
tp2819
F2
s(Vfostered
g13
tp2820
F1
s(g1391
g91
tp2821
F9
s(VSaylor
g11
tp2822
F1
s(Vbrest
g20
tp2823
F1
s(VScipio
g11
tp2824
F1
s(Vhabet
g9
tp2825
F1
s(Vverye
g9
tp2826
F1
s(Vgrow
g41
tp2827
F1
s(Vkings
g43
tp2828
F1
s(Vblacke
g53
tp2829
F1
s(Vdescry
g27
tp2830
F1
s(Vspends
g43
tp2831
F1
s(Vhowsoeuer
g9
tp2832
F1
s(Vapparell
g15
tp2833
F1
s(Vagaine
g27
tp2834
F1
s(Vchecke
g27
tp2835
F1
s(Vphrases
g17
tp2836
F1
s(Vhonestmen
g17
tp2837
F1
s(g91
g186
tp2838
F5
s(Vsnake
g9
tp2839
F1
s(g477
g39
tp2840
F1
s(Vleather
g45
tp2841
F2
s(Vvseth
g43
tp2842
F1
s(VPillorie
g11
tp2843
F2
s(g39
g625
tp2844
F2
s(VPlough
g11
tp2845
F2
s(Vtin
g9
tp2846
F1
s(Vfamous
g53
tp2847
F2
s(VDicke
g11
tp2848
F1
s(Vcreep
g27
tp2849
F2
s(Vfellowe
g9
tp2850
F2
s(Vforma
g53
tp2851
F1
s(Vlips
g17
tp2852
F2
s(Vfactor
g9
tp2853
F1
s(Vcause
g41
tp2854
F2
s(Vautem
g9
tp2855
F1
s(Vdogs
g17
tp2856
F1
s(Vkind
S'NN'
p2857
tp2858
F2
s(VIoyner
g11
tp2859
F2
s(Valterius
g9
tp2860
F1
s(VMercers
g11
tp2861
F1
s(Vouer
g281
tp2862
F1
s(Vleach
g9
tp2863
F1
s(Vhoushold
g9
tp2864
F1
s(Vsuffer
g27
tp2865
F4
s(Vwantons
g17
tp2866
F1
s(Vtwinckling
g9
tp2867
F1
s(g45
g53
tp2868
F1
s(Vnotice
g9
tp2869
F1
s(Vhee
g9
tp2870
F30
s(Vsayd
g9
tp2871
F5
s(VMusitian
g53
tp2872
F1
s(Vpractise
g41
tp2873
F1
s(Vhandsome
g53
tp2874
F1
s(g442
g20
tp2875
F2
s(g13
g469
tp2876
F65
s(VGentrie
g11
tp2877
F1
s(Vknauerie
g41
tp2878
F1
s(g13
g13
tp2879
F3
s(Vsadler
g9
tp2880
F1
s(VChancery
g11
tp2881
F1
s(VClarks
g11
tp2882
F1
s(VTom
g11
tp2883
F1
s(g15
S':'
tp2884
F3
s(Vpasse
g41
tp2885
F3
s(Vlande
g9
tp2886
F1
s(Vwickednesse
g27
tp2887
F1
s(VCamerard
g11
tp2888
F1
s(Vgald
g9
tp2889
F1
s(Vnon
g9
tp2890
F1
s(Vfight
g13
tp2891
F1
s(g614
g43
tp2892
F146
s(g53
g87
tp2893
F2
s(Vbetters
g17
tp2894
F1
s(Varrowe
g9
tp2895
F1
s(VTanner
g11
tp2896
F7
s(Vwillinglie
g17
tp2897
F1
s(Vchallenge
g41
tp2898
F4
s(Vseeking
S'VBG'
p2899
tp2900
F1
s(Vsauour
g9
tp2901
F1
s(Vpantophle
g9
tp2902
F1
s(Vskorne
g41
tp2903
F2
s(VWherevpon
g8
tp2904
F1
s(VGarners
g17
tp2905
F1
s(Vplaine
g53
tp2906
F6
s(Vvictories
g17
tp2907
F1
s(Vsolemnly
g15
tp2908
F1
s(Vaboue
g13
tp2909
F1
s(VUsurie
g11
tp2910
F1
s(Viourneyman
g9
tp2911
F1
s(g15
g9
tp2912
F39
s(Vselfe
g53
tp2913
F1
s(Vcontreys
g17
tp2914
F1
s(Vsensour
g9
tp2915
F1
s(Vpreached
g13
tp2916
F1
s(Vfedde
g15
tp2917
F1
s(Vdraue
g9
tp2918
F1
s(Vseeke
g41
tp2919
F3
s(V21
S'CD'
p2920
tp2921
F1
s(Vthoughts
g17
tp2922
F2
s(Vmonth
S'NN'
p2923
tp2924
F4
s(VTan-fats
g53
tp2925
F1
s(Vnecessarie
g53
tp2926
F1
s(VLawyer
g11
tp2927
F4
s(Vadmit
g27
tp2928
F1
s(Vdeales
g43
tp2929
F1
s(Vknow
g41
tp2930
F13
s(g64
g43
tp2931
F30
s(Vhousekeeping
g9
tp2932
F1
s(Vcrimson
g9
tp2933
F1
s(Vcompanions
g17
tp2934
F6
s(Vwearing
g9
tp2935
F2
s(g8
g614
tp2936
F397
s(Vgoods
S'NNS'
p2937
tp2938
F3
s(Vlyke
g9
tp2939
F1
s(Vtauerne
g9
tp2940
F2
s(VPhilosophers
g11
tp2941
F1
s(Vpoore
g15
tp2942
F2
s(Vcofers
g17
tp2943
F1
s(Vfresh
g53
tp2944
F2
s(Vswears
g43
tp2945
F2
s(Vgoodmanne
g9
tp2946
F1
s(VSquire
g11
tp2947
F1
s(Vfrank
g53
tp2948
F1
s(g111
g477
tp2949
F21
s(Vouerloades
g43
tp2950
F1
s(Vgaue
g41
tp2951
F3
s(g365
g1150
tp2952
F4
s(g1150
g15
tp2953
F100
s(Vmende
g27
tp2954
F1
s(Vbeside
g27
tp2955
F2
s(Vfollowing
g58
tp2956
F1
s(VBrainfoord
g11
tp2957
F1
s(Vkersie
g9
tp2958
F1
s(Vstranger
g9
tp2959
F1
s(VSydon
g11
tp2960
F1
s(Vbase
g53
tp2961
F2
s(g585
S'('
tp2962
F1
s(Vthee
g15
tp2963
F1
s(Vabuses
g43
tp2964
F1
s(Vcombat
g9
tp2965
F1
s(Vdowne
g8
tp2966
F1
s(VNuma
g11
tp2967
F1
s(g111
g58
tp2968
F23
s(g27
g13
tp2969
F2
s(Vshirt
g9
tp2970
F1
s(Vreede
g27
tp2971
F1
s(Vbuies
g17
tp2972
F1
s(Vresident
g9
tp2973
F1
s(Vpitfals
g17
tp2974
F1
s(Vpredi
g9
tp2975
F1
s(Vfacing
g9
tp2976
F1
s(Vease
g9
tp2977
F3
s(Vdaye
g9
tp2978
F1
s(Vhumors
g17
tp2979
F1
s(Vcals
g43
tp2980
F1
s(Vsilkes
g17
tp2981
F3
s(Vwhere
g87
tp2982
F21
s(Vbeene
g27
tp2983
F1
s(VKnight
g11
tp2984
F2
s(Vruler
g9
tp2985
F1
s(Vare
g625
tp2986
F75
s(Vbraue
g39
tp2987
F1
s(Vantientest
g53
tp2988
F1
s(Vpinche
g41
tp2989
F1
s(Vcatch
g27
tp2990
F2
s(Vfraternity
g9
tp2991
F1
s(Vplay
g9
tp2992
F3
s(VMusick
g11
tp2993
F1
s(Vcompany
S'NN'
p2994
tp2995
F12
s(VGreenwiche
g11
tp2996
F1
s(VArtes
g11
tp2997
F1
s(g58
g27
tp2998
F3
s(Vgrowne
g53
tp2999
F2
s(g27
g70
tp3000
F2
s(Vwondring
g58
tp3001
F1
s(Vchalleng
g9
tp3002
F1
s(Vrifle
g27
tp3003
F1
s(Vtricks
g17
tp3004
F2
s(Vwhatsoeuer
g9
tp3005
F3
s(Vgreate
g9
tp3006
F1
s(Vought
g496
tp3007
F1
s(Vburne
g27
tp3008
F1
s(Vstitch
g9
tp3009
F1
s(Vworshippe
g9
tp3010
F1
s(Vdiuers
g43
tp3011
F1
s(Vnay
g9
tp3012
F1
s(Vfraye
g9
tp3013
F1
s(Vfinall
g53
tp3014
F2
s(Vpinch
g41
tp3015
F1
s(Vbelongs
g41
tp3016
F1
s(Vas
g8
tp3017
F168
s(Vwel
g43
tp3018
F1
s(Vlook
g41
tp3019
F1
s(Vmaintaine
g53
tp3020
F1
s(Vgreat
S'JJ'
p3021
tp3022
F27
s(Veldest
g20
tp3023
F1
s(Vtrap
g27
tp3024
F1
s(Vsold
g39
tp3025
F1
s(Vod
g53
tp3026
F1
s(Vmean
g27
tp3027
F1
s(Vsteppe
g9
tp3028
F1
s(Vacquaintace
g9
tp3029
F1
s(Val
g15
tp3030
F4
s(Vsecret
g53
tp3031
F2
s(Vtaught
g13
tp3032
F3
s(Vleaue
g9
tp3033
F3
s(Vhair
g9
tp3034
F1
s(Vbowsie
g9
tp3035
F3
s(Venter
g27
tp3036
F1
s(Vselling
g9
tp3037
F1
s(Vbottle
g9
tp3038
F1
s(Vcutte
g9
tp3039
F1
s(Vchaire
g9
tp3040
F1
s(Vaboute
g43
tp3041
F1
s(Vlight
g53
tp3042
F2
s(Vcombing
g58
tp3043
F1
s(g624
g58
tp3044
F12
s(Vgiues
g43
tp3045
F1
s(Vcall
g41
tp3046
F1
s(g624
g17
tp3047
F5
s(Valmesdeedes
g17
tp3048
F1
s(Vdamaske
g9
tp3049
F1
s(Vready
g53
tp3050
F1
s(g39
g912
tp3051
F1
s(Vtongue
g9
tp3052
F1
s(Vcountry
S'NN'
p3053
tp3054
F9
s(Vcount
g27
tp3055
F1
s(Vbacke
g15
tp3056
F1
s(Vbawd
g9
tp3057
F1
s(Vvowed
g13
tp3058
F1
s(Vexcesse
g9
tp3059
F2
s(Vlie
g43
tp3060
F1
s(Vfantastike
g9
tp3061
F1
s(g363
g476
tp3062
F1
s(VLambe
g11
tp3063
F2
s(Vtwist
g9
tp3064
F1
s(VChrist
g9
tp3065
F1
s(Vcomfort
g27
tp3066
F1
s(Vbosome
g9
tp3067
F1
s(Vhusbandes
g17
tp3068
F2
s(Vcudgell
g9
tp3069
F1
s(Vtush
g9
tp3070
F3
s(VGod
g11
tp3071
F9
s(Vmother
g9
tp3072
F2
s(Vpoor
S'JJ'
p3073
tp3074
F1
s(g9
g365
tp3075
F2
s(Valso
S'RB'
p3076
tp3077
F3
s(Vbuy
g41
tp3078
F4
s(Vturnd
g41
tp3079
F1
s(Vwelsh
g9
tp3080
F1
s(Venuies
g17
tp3081
F1
s(Vhang
g27
tp3082
F1
s(VTaylor
g11
tp3083
F4
s(Vleaue
g41
tp3084
F5
s(Vimport
g9
tp3085
F1
s(g41
g300
tp3086
F2
s(Vhornet
g9
tp3087
F1
s(Vlieger
g9
tp3088
F1
s(Vperceiue
g8
tp3089
F1
s(Vmery
g9
tp3090
F1
s(Vkey
g9
tp3091
F1
s(Vshamlesse
g53
tp3092
F1
s(Vbroome
g53
tp3093
F1
s(Vbrought
g39
tp3094
F6
s(Vdie
g27
tp3095
F1
s(Vmonethes
g53
tp3096
F1
s(Vhomly
g9
tp3097
F1
s(Vpenal
g53
tp3098
F1
s(Vhee
g15
tp3099
F1
s(Vinwards
g17
tp3100
F1
s(Vfirste
g9
tp3101
F1
s(Vhelpe
g27
tp3102
F3
s(Vtried
g13
tp3103
F1
s(g90
g8
tp3104
F5
s(Vanswer
g27
tp3105
F2
s(VCambricke
g11
tp3106
F1
s(Vbring
g41
tp3107
F3
s(Vhumbly
g15
tp3108
F1
s(Vcast
g27
tp3109
F2
s(Vwithall
g9
tp3110
F5
s(Vhad
g13
tp3111
F47
s(Vlearne
g27
tp3112
F1
s(Vruffions
g17
tp3113
F1
s(Vsmels
g17
tp3114
F1
s(Vxxiiy
g9
tp3115
F1
s(Vdarker
g9
tp3116
F1
s(Vstartvps
g9
tp3117
F1
s(Vdormers
g17
tp3118
F1
s(Vwaxed
g41
tp3119
F1
s(Vshapes
g17
tp3120
F1
s(g363
g19
tp3121
F11
s(Vvs
g27
tp3122
F2
s(Vbare
g43
tp3123
F1
s(Vamorous
g53
tp3124
F1
s(Vhowers
g17
tp3125
F1
s(Vseeme
g43
tp3126
F1
s(Vstroakes
g17
tp3127
F1
s(g2748
g70
tp3128
F1
s(Vmalt
g9
tp3129
F3
s(Vfragrant
g53
tp3130
F1
s(Volde
g53
tp3131
F3
s(Vtwelue
g53
tp3132
F1
s(Vsuppose
g13
tp3133
F2
s(Vinough
g9
tp3134
F1
s(Vpurpose
g9
tp3135
F2
s(Vsowse
g9
tp3136
F1
s(Vname
g9
tp3137
F2
s(VCoue
g11
tp3138
F1
s(Vbawdy
g53
tp3139
F1
s(Vdawbed
g39
tp3140
F1
s(Vfans
g17
tp3141
F1
s(Voften
S'RB'
p3142
tp3143
F2
s(Vbande
g9
tp3144
F1
s(VCitizen
g11
tp3145
F2
s(Vqd
g15
tp3146
F3
s(Vremembrance
g9
tp3147
F1
s(Vwore
g15
tp3148
F1
s(Vwherein
g41
tp3149
F1
s(Vouer
g363
tp3150
F1
s(Vlefte
g9
tp3151
F1
s(Vwonderfully
g15
tp3152
F1
s(Vwolues
g17
tp3153
F1
s(Vrunning
g58
tp3154
F1
s(Vmelancholy
g53
tp3155
F1
s(Vwoonder
g9
tp3156
F1
s(Vglisters
g17
tp3157
F1
s(g1391
g477
tp3158
F1
s(Vneedle
g9
tp3159
F5
s(Vtired
g39
tp3160
F1
s(g271
g20
tp3161
F2
s(Vhunted
g13
tp3162
F1
s(Vwitches
g17
tp3163
F1
s(Vwaste
g27
tp3164
F1
s(Vassoone
g9
tp3165
F1
s(g41
g1391
tp3166
F3
s(Vgoes
S'VBZ'
p3167
tp3168
F4
s(Vwoulde
g41
tp3169
F5
s(Vsort
g9
tp3170
F3
s(Vdisdained
g39
tp3171
F1
s(g64
g9
tp3172
F5
s(VMiller
g1558
tp3173
F1
s(S','
g64
tp3174
F37
s(g58
g17
tp3175
F11
s(Vcoates
g17
tp3176
F1
s(Vgaine
g9
tp3177
F1
s(Vstanding
g9
tp3178
F1
s(g39
g574
tp3179
F11
s(Vwore
g13
tp3180
F3
s(Vimpaneled
g39
tp3181
F1
s(Vlie
g9
tp3182
F1
s(Vseemed
g13
tp3183
F6
s(Vvppon
g8
tp3184
F1
s(Vodde
g53
tp3185
F1
s(S')'
g19
tp3186
F2
s(Vheere
g1391
tp3187
F1
s(Vhastie
g53
tp3188
F1
s(Vedge
g9
tp3189
F2
s(Vtenters
g17
tp3190
F1
s(Vdames
g17
tp3191
F1
s(Vscarse
g41
tp3192
F2
s(Vspending
g58
tp3193
F1
s(Vbeside
g8
tp3194
F2
s(g332
g20
tp3195
F1
s(Vpaye
g27
tp3196
F1
s(VTytle
g11
tp3197
F1
s(Vdoubt
g9
tp3198
F5
s(Vvse
g27
tp3199
F3
s(Vage
S'NN'
p3200
tp3201
F5
s(Vreuerence
g9
tp3202
F2
s(Vneuer
g496
tp3203
F1
s(Vlet
g13
tp3204
F3
s(Vknowne
g39
tp3205
F2
s(Vplead
g41
tp3206
F1
s(Vborne
g9
tp3207
F1
s(Vbrawles
g17
tp3208
F1
s(Vpatron
g17
tp3209
F1
s(Vhowsoeuer
g27
tp3210
F1
s(Vmore
g365
tp3211
F16
s(VDeuine
g11
tp3212
F2
s(Vbason
g9
tp3213
F1
s(Vmirabilis
g9
tp3214
F1
s(g45
g910
tp3215
F9
s(Vvpon
g53
tp3216
F2
s(Vgolde
g9
tp3217
F1
s(Vbackes
g17
tp3218
F3
s(Vbuilding
g58
tp3219
F1
s(S','
g27
tp3220
F27
s(Vpaynted
g13
tp3221
F1
s(VArtes
g17
tp3222
F1
s(Vaduanceth
g9
tp3223
F1
s(g15
g614
tp3224
F73
s(Vstriue
g41
tp3225
F1
s(Vcloth
g9
tp3226
F13
s(Vearth
g9
tp3227
F2
s(g53
g281
tp3228
F20
s(VChrist
g11
tp3229
F5
s(Vweather
g9
tp3230
F1
s(Vpair
g9
tp3231
F1
s(Vwould
S'MD'
p3232
tp3233
F27
s(Vswoorde
g9
tp3234
F1
s(Vplenty
g9
tp3235
F1
s(Vdrawing
g58
tp3236
F4
s(Voperations
S'NNS'
p3237
tp3238
F1
s(Vfarre
g9
tp3239
F2
s(Vopen
g53
tp3240
F2
s(Vcaps
g17
tp3241
F1
s(Vvales
g17
tp3242
F2
s(Vtenth
g9
tp3243
F1
s(S':'
g72
tp3244
F10
s(Vidlenesse
g9
tp3245
F1
s(Vsith
g53
tp3246
F1
s(VGrasier
g11
tp3247
F4
s(Vcollier
g9
tp3248
F1
s(Vlose
g27
tp3249
F1
s(Vaffirme
g41
tp3250
F1
s(VCesar
g11
tp3251
F2
s(Vdiscusse
g27
tp3252
F1
s(Vtitle
g9
tp3253
F6
s(Vacquaintance
g9
tp3254
F4
s(Vsmild
g70
tp3255
F1
s(Vquoth
g106
tp3256
F14
s(g39
g19
tp3257
F11
s(Vneuer
g27
tp3258
F1
s(Vsaist
g9
tp3259
F2
s(Viurie
g9
tp3260
F20
s(VGrocer
g11
tp3261
F4
s(Vpowdering
g58
tp3262
F1
s(Vcosen
g53
tp3263
F1
s(Vletters
S'NNS'
p3264
tp3265
F1
s(g469
g300
tp3266
F5
s(VParrish-garden
g11
tp3267
F1
s(Vcome
g27
tp3268
F12
s(Vperemptory
g53
tp3269
F1
s(Ventertaine
g53
tp3270
F1
s(Va
g498
tp3271
F524
s(Vpay
g27
tp3272
F2
s(Vpawnes
g17
tp3273
F2
s(Vmanhood
g9
tp3274
F1
s(Vvsed
g39
tp3275
F3
s(Vvallie
g9
tp3276
F2
s(Vaffaires
g43
tp3277
F1
s(g476
S'.'
tp3278
F3
s(Viest
g9
tp3279
F1
s(Vdeclare
g9
tp3280
F1
s(S','
g477
tp3281
F36
s(Veating
g58
tp3282
F2
s(Vbee
g9
tp3283
F4
s(Vdistrust
g41
tp3284
F1
s(Veuery
g15
tp3285
F2
s(Vasse
g9
tp3286
F2
s(VCage
g11
tp3287
F1
s(Vpawne
g9
tp3288
F4
s(Vthem
g574
tp3289
F140
s(Vfriendes
g17
tp3290
F1
s(Vyrons
g17
tp3291
F1
s(Vtayle
g9
tp3292
F1
s(Vstatute
g9
tp3293
F8
s(Vsteppng
g9
tp3294
F1
s(Vmechanicall
g9
tp3295
F1
s(Vchecked
g13
tp3296
F1
s(Vfull
S'JJ'
p3297
tp3298
F12
s(Vmad
g53
tp3299
F2
s(Vinward
g53
tp3300
F1
s(Vlaw
S'NN'
p3301
tp3302
F7
s(g20
g15
tp3303
F1
s(Vtell
g27
tp3304
F4
s(Vweedes
g17
tp3305
F1
s(Vprofered
g39
tp3306
F1
s(Vplaintiffe
g53
tp3307
F1
s(Vbagge
g9
tp3308
F2
s(Vlash
g9
tp3309
F1
s(Vprincox
g9
tp3310
F1
s(Vspels
g17
tp3311
F1
s(Vdiscends
g43
tp3312
F1
s(Vofficer
S'NN'
p3313
tp3314
F1
s(Vyes
g500
tp3315
F1
s(Vwanton
g20
tp3316
F1
s(VDictator
g11
tp3317
F1
s(Vquid
g53
tp3318
F1
s(Vbeside
g41
tp3319
F1
s(VCircle
g9
tp3320
F1
s(Vgentleman
g53
tp3321
F1
s(Vpleas
g17
tp3322
F2
s(Vmarke
g27
tp3323
F1
s(Valmost
S'RB'
p3324
tp3325
F7
s(Vyere
g15
tp3326
F2
s(g64
g13
tp3327
F21
s(Vsecond
g53
tp3328
F3
s(Vturne
g27
tp3329
F2
s(Vdaies
g17
tp3330
F2
s(Vdue
g53
tp3331
F2
s(VMaygame
g11
tp3332
F1
s(Vworlds
g17
tp3333
F2
s(g363
g614
tp3334
F1
s(Vlikenesse
g9
tp3335
F1
s(Vrings
g17
tp3336
F2
s(Vpeniworth
g9
tp3337
F2
s(Vpleadeth
g9
tp3338
F1
s(Vtie
g41
tp3339
F1
s(Vawrye
g9
tp3340
F2
s(Vedgeth
g27
tp3341
F1
s(Vspoiled
g39
tp3342
F1
s(Vchoose
g15
tp3343
F1
s(Vcommendable
g53
tp3344
F2
s(Vfields
g17
tp3345
F1
s(Vsignior
g53
tp3346
F1
s(VSurgion
g11
tp3347
F1
s(g111
g20
tp3348
F5
s(Vwants
S'VBZ'
p3349
tp3350
F2
s(Vpartiality
g9
tp3351
F1
s(VRochell
g11
tp3352
F1
s(Vlight
g13
tp3353
F1
s(Vbread
g9
tp3354
F4
s(VHe
S'PRP'
p3355
tp3356
F3
s(Vadaies
g43
tp3357
F4
s(Vprint
g27
tp3358
F1
s(g41
g2671
tp3359
F48
s(Vgylt
g9
tp3360
F2
s(Vbee
g8
tp3361
F1
s(g72
g469
tp3362
F26
s(Vcompast
g13
tp3363
F1
s(Vaunswer
g27
tp3364
F1
s(Vliues
g43
tp3365
F1
s(Vcourteous
g53
tp3366
F1
s(g469
g912
tp3367
F293
s(Vinuenter
g9
tp3368
F1
s(Vpacking
g9
tp3369
F1
s(Vboone
g9
tp3370
F3
s(Vpast
g8
tp3371
F2
s(g186
g9
tp3372
F30
s(Vblest
g20
tp3373
F1
s(Vcoales
g17
tp3374
F1
s(Vpies
g17
tp3375
F1
s(g320
S','
tp3376
F15
s(Vanswered
g13
tp3377
F3
s(Vfoure
g9
tp3378
F5
s(Vobiected
g39
tp3379
F1
s(g614
g64
tp3380
F4
s(VBarber
g11
tp3381
F1
s(Vpractise
g9
tp3382
F1
s(Vgreedily
g15
tp3383
F1
s(Vscrutine
g27
tp3384
F1
s(Vsels
g43
tp3385
F1
s(Vbeganne
g9
tp3386
F1
s(VClothworker
g11
tp3387
F5
s(Vfortie
g53
tp3388
F1
s(Vschoole
g9
tp3389
F4
s(Vweeping
g58
tp3390
F1
s(VSpanyarde
g11
tp3391
F1
s(Vinueigh
g53
tp3392
F1
s(Vplanted
g39
tp3393
F1
s(Vc.
g27
tp3394
F1
s(Vtennants
g17
tp3395
F1
s(VWaterbearer
g11
tp3396
F2
s(Vquerister
g9
tp3397
F1
s(Vburst
g43
tp3398
F1
s(g27
g45
tp3399
F1
s(Vheere
g53
tp3400
F1
s(Vfine
g41
tp3401
F1
s(Vclapping
g58
tp3402
F1
s(Vgrandfathers
g17
tp3403
F2
s(Vmarchant
g9
tp3404
F4
s(Vmonie
g39
tp3405
F1
s(Vconditions
S'NNS'
p3406
tp3407
F1
s(Vangels
g53
tp3408
F1
s(Vworshipfull
g53
tp3409
F3
s(Vyong
g53
tp3410
F5
s(Vcald
g41
tp3411
F1
s(Valongst
g8
tp3412
F1
s(Vdregs
g17
tp3413
F1
s(Vgrant
g41
tp3414
F1
s(S','
g17
tp3415
F29
s(Vfarewell
g41
tp3416
F1
s(g500
S','
tp3417
F2
s(Vpursse
g9
tp3418
F2
s(Vclowted
g53
tp3419
F1
s(S'NN'
p3420
g27
tp3421
F17
s(Vdiapred
g13
tp3422
F1
s(VKnaue
g11
tp3423
F1
s(Vcareles
g17
tp3424
F1
s(Vcostlye
g9
tp3425
F4
s(Vlookt
g41
tp3426
F2
s(Vseuerally
g15
tp3427
F1
s(Vwife
S'NN'
p3428
tp3429
F5
s(Vwhither
g8
tp3430
F1
s(Vsets
g43
tp3431
F4
s(Vreforme
g27
tp3432
F1
s(g56
g2662
tp3433
F3
s(g2232
g58
tp3434
F46
s(Vblacke
g9
tp3435
F4
s(Vquoth
g70
tp3436
F1
s(Vbuyeng
g9
tp3437
F1
s(S':'
g9
tp3438
F13
s(Vpumps
g17
tp3439
F1
s(Vneuer
g106
tp3440
F1
s(Vspoiling
g58
tp3441
F1
s(Vaspire
g27
tp3442
F1
s(Vlandes
g17
tp3443
F3
s(Vhomely
g15
tp3444
F2
s(Vskore
g41
tp3445
F1
s(g17
g8
tp3446
F180
s(Vvse
g8
tp3447
F1
s(Vmight
S'MD'
p3448
tp3449
F17
s(Vresidence
g9
tp3450
F1
s(Vwil
g9
tp3451
F6
s(Vwretch
g9
tp3452
F1
s(Vbrat
g9
tp3453
F1
s(VHeauen
g11
tp3454
F1
s(Vcoffers
g17
tp3455
F1
s(VColliar
g11
tp3456
F3
s(Vwench
g9
tp3457
F2
s(g9
g529
tp3458
F1
s(Vfilthye
g53
tp3459
F1
s(Vfannes
g17
tp3460
F1
s(Vforth
g363
tp3461
F1
s(Vmatters
g17
tp3462
F1
s(Vvpstart
g9
tp3463
F11
s(Vdei
g9
tp3464
F1
s(VMai
g11
tp3465
F1
s(Vshifting
g58
tp3466
F1
s(Vespetially
g15
tp3467
F1
s(Vaboute
g53
tp3468
F1
s(Vdub
g41
tp3469
F1
s(Vlast
g162
tp3470
F10
s(Vvnlesse
g27
tp3471
F1
s(Vgeometricall
g53
tp3472
F1
s(Valthough
S'IN'
p3473
tp3474
F11
s(Vthousande
g9
tp3475
F1
s(Vfrounst
g27
tp3476
F1
s(Vstraw
g9
tp3477
F2
s(Vfleet
g27
tp3478
F1
s(Vmaidenheads
g17
tp3479
F1
s(Vwanted
g53
tp3480
F1
s(Vfriend
g9
tp3481
F6
s(Vcouetous
g53
tp3482
F2
s(Vserieants
g43
tp3483
F1
s(Vcraftie
g9
tp3484
F1
s(Vblesse
g9
tp3485
F1
s(Vwhores
g17
tp3486
F1
s(g2510
g363
tp3487
F4
s(Vstepping
g58
tp3488
F3
s(Vput
g39
tp3489
F3
s(VCaius
g11
tp3490
F1
s(g56
g58
tp3491
F1
s(Vhundreth
g9
tp3492
F2
s(Vmorrice
g9
tp3493
F1
s(Vtoo
S'RB'
p3494
tp3495
F10
s(Vcoole
g53
tp3496
F1
s(Vknees
g17
tp3497
F2
s(Vhang
g13
tp3498
F2
s(Vdigression
g9
tp3499
F1
s(Vlittle
g27
tp3500
F1
s(g111
S'NN'
p3501
tp3502
F127
s(Vhaue
g53
tp3503
F6
s(Vout
g363
tp3504
F23
s(Vtaber
g9
tp3505
F1
s(Vbankerouts
g17
tp3506
F1
s(g13
g90
tp3507
F6
s(Vblason
g27
tp3508
F1
s(Vslashes
g17
tp3509
F1
s(Vsoght
g13
tp3510
F1
s(Vbegan
S'VBD'
p3511
tp3512
F4
s(VAsse
g11
tp3513
F3
s(Voff
g8
tp3514
F2
s(Vhorsse
g43
tp3515
F1
s(Von
g1483
tp3516
F46
s(g476
g823
tp3517
F1
s(Vvpon
g9
tp3518
F7
s(Vbuilde
g9
tp3519
F1
s(Vveluetbreeches
g11
tp3520
F1
s(g13
g45
tp3521
F1
s(Vworthily
g15
tp3522
F1
s(Vcrafty
g53
tp3523
F1
s(Vchoice
g3501
tp3524
F2
s(Vhoped
g13
tp3525
F1
s(Vtrior
g53
tp3526
F1
s(VTaylors
g17
tp3527
F1
s(Vworth
g9
tp3528
F4
s(Vend
g9
tp3529
F9
s(S')'
g90
tp3530
F1
s(Vagreed
g13
tp3531
F2
s(Vfauour
g53
tp3532
F1
s(VDaunsing
g11
tp3533
F1
s(Vvictuals
g17
tp3534
F1
s(g53
g11
tp3535
F43
s(Vwhore
g9
tp3536
F1
s(Vchallenge
g9
tp3537
F6
s(Vliue
g27
tp3538
F1
s(g43
g13
tp3539
F1
s(Vindeede
g9
tp3540
F1
s(g17
g39
tp3541
F11
s(Vpouch
g9
tp3542
F1
s(Voccupation
g9
tp3543
F4
s(Vagainste
g53
tp3544
F1
s(Vstopping
g58
tp3545
F1
s(Vconceits
g17
tp3546
F1
s(g574
g332
tp3547
F5
s(Vbreede
g8
tp3548
F1
s(Vheadlesse
g53
tp3549
F1
s(Vmaw
g41
tp3550
F1
s(Vfurniture
g9
tp3551
F1
s(Vvnles
g43
tp3552
F1
s(Vdowne
g27
tp3553
F6
s(Vprerogatiue
g9
tp3554
F2
s(Vsubtle
g27
tp3555
F1
s(Vbetweene
g43
tp3556
F1
s(Vdenye
g27
tp3557
F1
s(Vscismes
g17
tp3558
F1
s(VChristian
g11
tp3559
F1
s(Vfelts
g17
tp3560
F1
s(Vwhereas
g17
tp3561
F3
s(Vscuruie
g43
tp3562
F1
s(g13
g186
tp3563
F9
s(Vyerne
g43
tp3564
F1
s(Vplaintiffe
g9
tp3565
F1
s(Vaboue
g27
tp3566
F3
s(Veloquence
g9
tp3567
F1
s(S','
g186
tp3568
F1
s(Vbicause
g43
tp3569
F1
s(Vfarre
g43
tp3570
F1
s(Vsir
g13
tp3571
F2
s(Vworkwomen
g17
tp3572
F1
s(g64
g8
tp3573
F6
s(g111
g45
tp3574
F5
s(Vfacst
g9
tp3575
F2
s(Vparty
g1714
tp3576
F1
s(Vpouch
g15
tp3577
F1
s(Veuill
g53
tp3578
F1
s(Vdiebus
g9
tp3579
F1
s(Vlike
g8
tp3580
F42
s(VIesus
g11
tp3581
F1
s(Vcertain
S'JJ'
p3582
tp3583
F1
s(Vhir
g53
tp3584
F1
s(Vrequires
S'VBZ'
p3585
tp3586
F1
s(Vburnt
g9
tp3587
F1
s(g240
g320
tp3588
F30
s(Vforwarde
g9
tp3589
F1
s(Vbad
S'JJ'
p3590
tp3591
F17
s(Vhay
g9
tp3592
F2
s(Vmarle
g9
tp3593
F1
s(Vneither
g72
tp3594
F4
s(Vserue
g53
tp3595
F1
s(Vestate
S'NN'
p3596
tp3597
F1
s(Vpolde
g39
tp3598
F1
s(g58
g365
tp3599
F1
s(Vhonours
g17
tp3600
F2
s(Vclapt
g39
tp3601
F1
s(Vbene
g9
tp3602
F1
s(Vfart
g9
tp3603
F1
s(Vaduaunst
g53
tp3604
F1
s(Vpresume
g27
tp3605
F1
s(Vweeke
g9
tp3606
F2
s(Vwill
g496
tp3607
F58
s(Vslouenly
g53
tp3608
F1
s(Vcutler
g41
tp3609
F1
s(VAutem
g11
tp3610
F1
s(Vpuffe
g53
tp3611
F1
s(Vpasture
g9
tp3612
F1
s(Vbanished
g39
tp3613
F1
s(Vbusie
g9
tp3614
F1
s(g772
g96
tp3615
F4
s(g15
g53
tp3616
F117
s(Vrepentance
g27
tp3617
F1
s(Vmeasels
g17
tp3618
F1
s(Vpinde
g15
tp3619
F1
s(g15
g39
tp3620
F34
s(VHonorable
g53
tp3621
F1
s(g13
g1391
tp3622
F1
s(Vgentlemen
g17
tp3623
F10
s(Vpinne
g9
tp3624
F1
s(g2394
g45
tp3625
F7
s(Vside
g9
tp3626
F8
s(Vknowne
g53
tp3627
F1
s(Vvnworthie
g53
tp3628
F1
s(g500
g11
tp3629
F1
s(Vdrunken
g17
tp3630
F1
s(V23
S'CD'
p3631
tp3632
F1
s(Vwind
g27
tp3633
F1
s(Vgraue
g9
tp3634
F1
s(g106
S'VBD'
p3635
tp3636
F60
s(Vshift
g9
tp3637
F1
s(g912
g9
tp3638
F342
s(g41
g91
tp3639
F2
s(Vcurtall
g9
tp3640
F2
s(Vesquire
g9
tp3641
F1
s(Vsoldiors
g17
tp3642
F1
s(Vbeseem
g27
tp3643
F1
s(Vwaight
g9
tp3644
F1
s(g53
g8
tp3645
F74
s(g1391
g823
tp3646
F3
s(VRue
g11
tp3647
F2
s(Vsolitarle
g53
tp3648
F1
s(Vfoggie
g53
tp3649
F1
s(g2232
g3635
tp3650
F7
s(Vboke
g9
tp3651
F1
s(Vcures
g17
tp3652
F1
s(VTushe
g11
tp3653
F1
s(Vchaines
g17
tp3654
F1
s(Vsent
g13
tp3655
F2
s(Vrequired
g39
tp3656
F1
s(Vempanelled
g39
tp3657
F1
s(Vmustachios
g17
tp3658
F1
s(VFarmer
g11
tp3659
F2
s(VApplesquires
g17
tp3660
F1
s(Vdaisie
g9
tp3661
F1
s(Vparties
S'NNS'
p3662
tp3663
F3
s(g9
g1483
tp3664
F687
s(Vblowing
g58
tp3665
F1
s(Vowne
g53
tp3666
F7
s(Vsetting
g9
tp3667
F1
s(Vbookes
g17
tp3668
F2
s(Valas
g53
tp3669
F1
s(Vmeere
g96
tp3670
F1
s(Vwenches
g17
tp3671
F2
s(Vperfect
g53
tp3672
F1
s(g70
g498
tp3673
F2
s(g663
g17
tp3674
F5
s(Vtroth
g17
tp3675
F1
s(g27
g3232
tp3676
F3
s(Vnumber
S'NN'
p3677
tp3678
F1
s(Vextract
g27
tp3679
F1
s(Vblade
g9
tp3680
F2
s(Vlearned
g39
tp3681
F1
s(Vframd
g39
tp3682
F1
s(Vhorsseheeles
g17
tp3683
F1
s(Vself
g9
tp3684
F1
s(VWallon
g11
tp3685
F1
s(Vsee
g41
tp3686
F8
s(Vfashion
S'NN'
p3687
tp3688
F1
s(VComming
g58
tp3689
F1
s(Vcholericke
g53
tp3690
F1
s(Vdouble
g9
tp3691
F1
s(Vpert
g53
tp3692
F2
s(Vrespect
g41
tp3693
F1
s(Vagayne
g8
tp3694
F1
s(g39
S')'
tp3695
F2
s(Vambitiously
g15
tp3696
F1
s(Vsomewhat
g15
tp3697
F1
s(Vwondred
g13
tp3698
F2
s(g1483
S':'
tp3699
F2
s(Vhen
g9
tp3700
F1
s(Vproude
g9
tp3701
F1
s(Vfield
S'NN'
p3702
tp3703
F1
s(Ventised
g53
tp3704
F1
s(Vlawiers
g17
tp3705
F1
s(Vextreamely
g15
tp3706
F1
s(Vpittie
g9
tp3707
F1
s(Vact
g9
tp3708
F1
s(g477
g320
tp3709
F3
s(Vbanisht
g9
tp3710
F1
s(Vdowne
g106
tp3711
F1
s(Vdrawn
g39
tp3712
F1
s(Vflatterers
g17
tp3713
F1
s(g442
g1416
tp3714
F1
s(Vmeate
g9
tp3715
F4
s(VPearle
g11
tp3716
F1
s(VHow
g96
tp3717
F4
s(Vpils
g17
tp3718
F1
s(Vhee
g13
tp3719
F2
s(Vabuses
g17
tp3720
F1
s(Vdooth
g41
tp3721
F1
s(Vworthinesse
g9
tp3722
F1
s(Vindeed
S'RB'
p3723
tp3724
F5
s(Vsubtill
g53
tp3725
F1
s(g375
g496
tp3726
F1
s(Vsack
g9
tp3727
F1
s(Vrequested
g13
tp3728
F2
s(Vdiscords
g17
tp3729
F1
s(Vvirginis
g9
tp3730
F1
s(Vhundreth
g17
tp3731
F1
s(Vgray
g53
tp3732
F1
s(Vsogger
g9
tp3733
F1
s(Vsicke
g9
tp3734
F1
s(g281
g498
tp3735
F51
s(g9
g477
tp3736
F122
s(Vruby
g9
tp3737
F1
s(g281
g326
tp3738
F47
s(Vvrgent
g9
tp3739
F2
s(Vcommenwelth
g9
tp3740
F1
s(Vfollowed
g13
tp3741
F4
s(Vmaistership
g9
tp3742
F2
s(Vaccounted
g13
tp3743
F1
s(g43
S'.'
tp3744
F1
s(Vshoulde
g43
tp3745
F2
s(Vtaffata
g9
tp3746
F3
s(Vhatred
g13
tp3747
F1
s(Vsaint
g9
tp3748
F8
s(Vshadowes
g43
tp3749
F1
s(g17
g477
tp3750
F46
s(Vsure
g53
tp3751
F2
s(Vthinkest
g20
tp3752
F1
s(Vonce
g15
tp3753
F5
s(g9
S':'
tp3754
F79
s(VThey
S'PRP'
p3755
tp3756
F6
s(Vmay
g468
tp3757
F23
s(g2899
g477
tp3758
F8
s(Vtallowe
g9
tp3759
F1
s(Vaimeth
g9
tp3760
F1
s(VDeuill
g11
tp3761
F6
s(Vwipe
g27
tp3762
F1
s(g53
g17
tp3763
F218
s(Vcottage
g9
tp3764
F1
s(Vdouble
g53
tp3765
F2
s(Vpaces
g17
tp3766
F2
s(VHaberdasher
g11
tp3767
F2
s(VAfter
S'IN'
p3768
tp3769
F1
s(Vtime
S'NN'
p3770
tp3771
F11
s(Vonely
g15
tp3772
F5
s(Vquestion
g27
tp3773
F1
s(Vturne
g9
tp3774
F3
s(Vsubtile
g9
tp3775
F1
s(g15
g1391
tp3776
F2
s(Vbrasse
g9
tp3777
F2
s(Vhonest
g53
tp3778
F4
s(Vshall
g2209
tp3779
F31
s(Vcheefe
g9
tp3780
F2
s(VSacke
g11
tp3781
F1
s(Vstead
g9
tp3782
F1
s(Vband
g9
tp3783
F1
s(Vthin
g53
tp3784
F3
s(Vbacon
g9
tp3785
F1
s(Vstately
g53
tp3786
F1
s(g965
S','
tp3787
F17
s(Vrapyers
g17
tp3788
F1
s(Vspare
g27
tp3789
F1
s(Vremember
g41
tp3790
F2
s(g1485
g9
tp3791
F18
s(g72
g41
tp3792
F7
s(Vbuye
g27
tp3793
F1
s(Vdrawer
g9
tp3794
F1
s(g477
g11
tp3795
F11
s(VBaker
S'NNP'
p3796
tp3797
F1
s(Vhighly
S'RB'
p3798
tp3799
F3
s(Vhot
g53
tp3800
F2
s(Vbroke
g15
tp3801
F1
s(Voffices
S'NNS'
p3802
tp3803
F1
s(g64
g186
tp3804
F1
s(Vscrape
g27
tp3805
F2
s(Vheate
g9
tp3806
F3
s(Vpompous
g53
tp3807
F1
s(Vstaffe
g9
tp3808
F4
s(Vblamed
g39
tp3809
F1
s(Vgrote
g9
tp3810
F1
s(Vconsorts
g17
tp3811
F1
s(Vplaintife
g9
tp3812
F1
s(Vpunishment
g9
tp3813
F1
s(Viugling
g9
tp3814
F1
s(Vgold
g9
tp3815
F3
s(Vbeere
g1391
tp3816
F1
s(Vwil
g43
tp3817
F2
s(Vday
S'NN'
p3818
tp3819
F14
s(Vcarefull
g9
tp3820
F1
s(Vplaisterer
g41
tp3821
F1
s(g13
S'.'
tp3822
F5
s(Vdoubte
g41
tp3823
F1
s(Vsomtime
g41
tp3824
F1
s(Vsue
g43
tp3825
F1
s(Vdrawe
g27
tp3826
F3
s(Vdoth
g9
tp3827
F2
s(Vplay
g27
tp3828
F4
s(Vrush
g9
tp3829
F2
s(Vtogither
g15
tp3830
F1
s(Vthought
g39
tp3831
F2
s(g53
S'VBZ'
p3832
tp3833
F4
s(g72
S'.'
tp3834
F5
s(Vfaith
g9
tp3835
F1
s(Vcostly
S'JJ'
p3836
tp3837
F5
s(Vten
g15
tp3838
F1
s(Vtherefore
g9
tp3839
F2
s(Vserious
S'JJ'
p3840
tp3841
F1
s(Vthey
g624
tp3842
F222
s(Vconflict
g9
tp3843
F1
s(Vshut
g13
tp3844
F1
s(Vouerreach
g27
tp3845
F1
s(Vraines
g17
tp3846
F1
s(Vdisturbing
g58
tp3847
F1
s(Vthree
g476
tp3848
F19
s(Vtowards
g17
tp3849
F2
s(Vbill
S'NN'
p3850
tp3851
F4
s(Vbyll
g9
tp3852
F1
s(Vvp
g41
tp3853
F1
s(Vpufte
g53
tp3854
F1
s(Vlaugh
g27
tp3855
F1
s(Vcanne
g41
tp3856
F1
s(Vcommonwealth
g9
tp3857
F1
s(g574
g20
tp3858
F2
s(Vslaughters
g17
tp3859
F1
s(g27
g477
tp3860
F25
s(Vwee
g41
tp3861
F1
s(VSattin
g11
tp3862
F1
s(Vpitcht
g9
tp3863
F1
s(VMyllaner
g11
tp3864
F1
s(VHusbandman
g11
tp3865
F2
s(Vhungry
g9
tp3866
F1
s(Vhides
g17
tp3867
F2
s(Vouerworne
g53
tp3868
F2
s(Vbounge
g9
tp3869
F1
s(Vquest
g9
tp3870
F3
s(V7
S'CD'
p3871
tp3872
F1
s(Vrest
g9
tp3873
F8
s(Vwars
g17
tp3874
F1
s(Vcleere
g27
tp3875
F1
s(g41
g96
tp3876
F7
s(Vhatte
g9
tp3877
F1
s(Vslender
g9
tp3878
F1
s(Vspied
g39
tp3879
F1
s(Vfayre
g9
tp3880
F1
s(g27
S':'
tp3881
F2
s(Vropes
g17
tp3882
F1
s(Vdownwardes
g17
tp3883
F1
s(Vtwentie
g9
tp3884
F1
s(Vwhatsoeuer
g13
tp3885
F1
s(VPrinces
g17
tp3886
F2
s(Vbellies
g17
tp3887
F1
s(Vdesarts
g43
tp3888
F1
s(g20
g1022
tp3889
F3
s(VNaye
g39
tp3890
F1
s(Vpesants
g17
tp3891
F3
s(Vnay
g70
tp3892
F1
s(S'('
g72
tp3893
F1
s(VYou
S'PRP'
p3894
tp3895
F2
s(Vnearer
g8
tp3896
F1
s(Vkilleth
g43
tp3897
F1
s(Vmoths
g17
tp3898
F1
s(Vdignitie
g53
tp3899
F1
s(Vherball
g9
tp3900
F1
s(VCouentry
g11
tp3901
F1
s(VMurrey
g11
tp3902
F1
s(Vcoulde
g43
tp3903
F1
s(Vpacking
g58
tp3904
F3
s(g41
g320
tp3905
F4
s(Vbeagart
g9
tp3906
F1
s(Vsaith
g13
tp3907
F1
s(Vstole
g13
tp3908
F1
s(Vstart
g41
tp3909
F3
s(Vvalued
g39
tp3910
F1
s(Vresolued
g39
tp3911
F1
s(Vthou
g41
tp3912
F2
s(VEnglane
g11
tp3913
F1
s(S')'
g41
tp3914
F2
s(Vhath
g13
tp3915
F3
s(Vsuppose
g27
tp3916
F2
s(g53
g72
tp3917
F29
s(VThere
S'EX'
p3918
tp3919
F2
s(Vcarrieng
g41
tp3920
F2
s(Vlighted
g39
tp3921
F1
s(g11
g39
tp3922
F3
s(Vwet
g9
tp3923
F1
s(VAprill
g11
tp3924
F1
s(Vartificial
g53
tp3925
F1
s(Vpresuming
g58
tp3926
F1
s(Vcur
g9
tp3927
F1
s(VUppon
g8
tp3928
F1
s(Vdila
g9
tp3929
F1
s(Vcoat
g41
tp3930
F1
s(Vfeared
g13
tp3931
F1
s(Vcloaths
g17
tp3932
F1
s(g9
g100
tp3933
F39
s(Vbold
g53
tp3934
F2
s(Vsir
g53
tp3935
F5
s(g111
g332
tp3936
F35
s(Vspan
g9
tp3937
F1
s(Vdeceyue
g27
tp3938
F1
s(Vthred
g39
tp3939
F1
s(Vtoke
g53
tp3940
F1
s(Vdangerous
g53
tp3941
F2
s(Vdisaduauntage
g9
tp3942
F1
s(Vtwits
g17
tp3943
F1
s(Vfitter
g9
tp3944
F1
s(Vfarre
g53
tp3945
F1
s(Vskinne
g9
tp3946
F2
s(VCitizens
g56
tp3947
F1
s(Vwhye
g41
tp3948
F1
s(Vbushell
g9
tp3949
F1
s(Vdo
g41
tp3950
F1
s(Vprayers
g17
tp3951
F1
s(Vrowle
g9
tp3952
F1
s(Vprospereth
g43
tp3953
F1
s(g43
g90
tp3954
F1
s(Vcoine
g9
tp3955
F3
s(Vmakes
S'VBZ'
p3956
tp3957
F7
s(Vdrunke
g9
tp3958
F1
s(Vgowne
g9
tp3959
F2
s(VDoctor
g11
tp3960
F1
s(Vsofter
g45
tp3961
F1
s(g625
g529
tp3962
F2
s(Vfilche
g17
tp3963
F1
s(Vwelthiest
g20
tp3964
F1
s(Vfarme
g9
tp3965
F1
s(Vrode
g13
tp3966
F1
s(Vbids
g43
tp3967
F1
s(g1511
g300
tp3968
F1
s(Vimagined
g13
tp3969
F1
s(Vvnsought
g15
tp3970
F1
s(Vlet
g27
tp3971
F22
s(Vvtteraunce
g9
tp3972
F1
s(VDutch
g56
tp3973
F1
s(g477
g53
tp3974
F4
s(Vpraised
g39
tp3975
F1
s(Vsir
g27
tp3976
F2
s(Vset
g13
tp3977
F3
s(Vfond
g9
tp3978
F2
s(Vbird
g9
tp3979
F1
s(Vwrangle
g27
tp3980
F1
s(Vpraiers
g17
tp3981
F1
s(Vsolde
g9
tp3982
F1
s(Vdignities
g17
tp3983
F1
s(Vpowdered
g39
tp3984
F1
s(Vmerited
g13
tp3985
F1
s(Vwealthy
g53
tp3986
F1
s(Vbragant
g9
tp3987
F1
s(Vhazard
g27
tp3988
F1
s(Vindifferent
g53
tp3989
F2
s(Vtumbles
g43
tp3990
F1
s(Vweltring
g58
tp3991
F1
s(Vpist
g41
tp3992
F1
s(g39
S'.'
tp3993
F5
s(Vpowders
g17
tp3994
F2
s(Vtapistred
g39
tp3995
F1
s(Vthereby
g9
tp3996
F1
s(Vcounter
g9
tp3997
F2
s(VBefore
g8
tp3998
F1
s(Vsquires
g17
tp3999
F1
s(Vdepart
g9
tp4000
F1
s(Vcursses
g17
tp4001
F1
s(Vwore
g45
tp4002
F1
s(Vstriuing
g58
tp4003
F1
s(Vstreet
g9
tp4004
F2
s(Vbrooches
g17
tp4005
F1
s(Vbetweene
g27
tp4006
F1
s(g41
g90
tp4007
F2
s(Vhimselfe
g27
tp4008
F2
s(VKitchin
g11
tp4009
F1
s(Vbloudshotten
g9
tp4010
F1
s(Vshrewdly
g15
tp4011
F1
s(Vmeale
g9
tp4012
F1
s(Vinfernall
g53
tp4013
F1
s(Vkeepes
g43
tp4014
F2
s(Vneere
g15
tp4015
F2
s(Vbrauerye
g9
tp4016
F1
s(Vmeanes
g17
tp4017
F3
s(Vexactions
g17
tp4018
F1
s(Vsufferance
g9
tp4019
F1
s(Vfrowning
g9
tp4020
F1
s(Vimperfections
g17
tp4021
F2
s(Vtwo
g320
tp4022
F27
s(Vtwenty
g53
tp4023
F3
s(Vkeepe
g41
tp4024
F4
s(Vsow
g9
tp4025
F1
s(Vpretious
g53
tp4026
F2
s(Vshal
g9
tp4027
F2
s(Vwarrant
g41
tp4028
F2
s(g11
g9
tp4029
F112
s(Vapparel
g9
tp4030
F1
s(Vantiquity
g9
tp4031
F1
s(Vdash
g9
tp4032
F1
s(Vincumbs
g9
tp4033
F1
s(Vtenement
g9
tp4034
F2
s(Vvertue
g9
tp4035
F10
s(Vdoe
g41
tp4036
F4
s(g19
g9
tp4037
F989
s(Vloue
g53
tp4038
F2
s(Vmethought
g13
tp4039
F1
s(Vlawfull
g53
tp4040
F2
s(Vhousekeeper
g9
tp4041
F1
s(Vfilthie
g53
tp4042
F1
s(g2239
S','
tp4043
F811
s(Vthirsty
g53
tp4044
F1
s(Vtoppe
g9
tp4045
F1
s(Vfaire
g41
tp4046
F1
s(VPhysitian
g53
tp4047
F1
s(Vknaues
g17
tp4048
F6
s(Vworth
g53
tp4049
F3
s(Vten
g9
tp4050
F2
s(g1511
g27
tp4051
F3
s(Vsuppeled
g39
tp4052
F1
s(Vblack
S'JJ'
p4053
tp4054
F1
s(g13
g1432
tp4055
F88
s(Valike
g53
tp4056
F1
s(Vwringeth
g53
tp4057
F1
s(Vsighte
g17
tp4058
F1
s(Vdaunger
g9
tp4059
F1
s(Vcufs
g9
tp4060
F1
s(Vthick
g9
tp4061
F1
s(Vinquest
g9
tp4062
F1
s(Vstriuing
g9
tp4063
F1
s(VSerieant
g11
tp4064
F1
s(g15
S','
tp4065
F76
s(Vhazard
g41
tp4066
F1
s(Vextraordinary
S'JJ'
p4067
tp4068
F1
s(Vproper
g53
tp4069
F2
s(Vneighbour
g9
tp4070
F1
s(VFrenchwoman
g11
tp4071
F1
s(Vme
g827
tp4072
F45
s(g53
S','
tp4073
F86
s(VPrince
g11
tp4074
F2
s(g902
S':'
tp4075
F7
s(VNul
g11
tp4076
F2
s(Vworne
g13
tp4077
F1
s(Vreceiuing
g58
tp4078
F1
s(Vwring
g58
tp4079
F2
s(Vfoode
g9
tp4080
F1
s(Vawaye
g9
tp4081
F1
s(Vshal
g15
tp4082
F1
s(Vtakes
S'VBZ'
p4083
tp4084
F1
s(Vxii
g9
tp4085
F2
s(VWaldon
g11
tp4086
F1
s(Vdraw
g41
tp4087
F1
s(Vaid
g9
tp4088
F1
s(Vopen
g27
tp4089
F1
s(Vlibbet
g9
tp4090
F1
s(g17
g17
tp4091
F18
s(Vno
g72
tp4092
F60
s(VTam
g11
tp4093
F1
s(VWith
S'IN'
p4094
tp4095
F1
s(VApothecaries
g17
tp4096
F1
s(Vgiuen
g39
tp4097
F2
s(Vmet
g39
tp4098
F2
s(Vhumility
g9
tp4099
F1
s(Vturnes
g17
tp4100
F1
s(g90
g13
tp4101
F13
s(g39
g477
tp4102
F18
s(Vouerglaseth
g27
tp4103
F1
s(Vdrunkard
g9
tp4104
F1
s(Vforth
g53
tp4105
F1
s(Vpleads
g17
tp4106
F1
s(Vlaye
g41
tp4107
F2
s(Vthere
g1391
tp4108
F26
s(Vcoms
g17
tp4109
F1
s(Vmerrie
g9
tp4110
F2
s(Vabroad
S'RB'
p4111
tp4112
F4
s(Vvncouth
g9
tp4113
F1
s(Vstroger
g9
tp4114
F1
s(VBesides
g8
tp4115
F4
s(VCanturbury
g9
tp4116
F1
s(VCommonwealth
g11
tp4117
F2
s(VEnglishmen
g11
tp4118
F1
s(Vdeseruing
g9
tp4119
F1
s(Vstreetes
g17
tp4120
F1
s(VInfinit
g11
tp4121
F1
s(Vfalse
g53
tp4122
F5
s(Vsubstantial
S'JJ'
p4123
tp4124
F1
s(Vfauour
g9
tp4125
F7
s(g1432
g64
tp4126
F2
s(VCambridge
g11
tp4127
F1
s(Vdeale
g27
tp4128
F3
s(Vcomming
g58
tp4129
F6
s(Vventer
g27
tp4130
F1
s(Vcal
g41
tp4131
F1
s(Vothers
S'NNS'
p4132
tp4133
F1
s(Vdemanded
g13
tp4134
F2
s(Vvy
g9
tp4135
F1
s(Vbed
g9
tp4136
F2
s(Vsmilde
g41
tp4137
F2
s(Vpluck
g27
tp4138
F1
s(g58
g11
tp4139
F2
s(S':'
g90
tp4140
F3
s(g90
g27
tp4141
F5
s(Vpenc
g9
tp4142
F1
s(Vtreason
g9
tp4143
F1
s(Vreioice
g27
tp4144
F1
s(Vbacke
g53
tp4145
F1
s(Vvnder
g41
tp4146
F2
s(g41
g72
tp4147
F82
s(g13
g635
tp4148
F1
s(Vtanned
g39
tp4149
F4
s(Vhalfemoone
g9
tp4150
F1
s(Vbricklaier
g9
tp4151
F2
s(g111
g53
tp4152
F75
s(Vturnd
g9
tp4153
F1
s(Vpaies
g17
tp4154
F1
s(Vbehalfe
g9
tp4155
F1
s(Vconge
g9
tp4156
F1
s(g663
g3021
tp4157
F1
s(Vleaue
g53
tp4158
F2
s(Vclokes
g17
tp4159
F1
s(VPhysition
g11
tp4160
F1
s(Vthee
g9
tp4161
F1
s(Vkindred
g39
tp4162
F1
s(Vwoorth
g9
tp4163
F1
s(g56
g477
tp4164
F3
s(Vneither
g41
tp4165
F1
s(Vsaid
S'VBD'
p4166
tp4167
F13
s(Vgarments
g17
tp4168
F1
s(g477
g138
tp4169
F1
s(Vgoodman
g41
tp4170
F1
s(g43
g27
tp4171
F6
s(Vpreuent
g27
tp4172
F1
s(Vaske
g9
tp4173
F1
s(Vbudded
g39
tp4174
F1
s(Vnourisht
g53
tp4175
F1
s(Viuror
g9
tp4176
F1
s(Vmare
g9
tp4177
F2
s(Vheate
g27
tp4178
F1
s(Vtroop
g9
tp4179
F1
s(Vmarry
g15
tp4180
F1
s(Vyea
g53
tp4181
F1
s(Vsubtlety
g43
tp4182
F1
s(Vbee
g17
tp4183
F1
s(VWhye
g11
tp4184
F1
s(Vliking
g9
tp4185
F1
s(Vcrie
g9
tp4186
F1
s(Vther
g9
tp4187
F1
s(Vyou
g2394
tp4188
F248
s(Vpease
g9
tp4189
F3
s(Vliberality
g9
tp4190
F1
s(Vchimny
g9
tp4191
F1
s(g529
g53
tp4192
F6
s(VNowe
g11
tp4193
F1
s(Vrent
g9
tp4194
F2
s(Vthat
g8
tp4195
F155
s(Vchanged
g13
tp4196
F1
s(Vwherfore
g8
tp4197
F1
s(Vmonths
S'NNS'
p4198
tp4199
F2
s(Vbanke
g9
tp4200
F2
s(g500
S'('
tp4201
F1
s(Vsadnesse
g9
tp4202
F1
s(Vsnuff
g9
tp4203
F1
s(Vpoore
g8
tp4204
F1
s(g39
g1391
tp4205
F1
s(Vexacting
g58
tp4206
F1
s(g45
g11
tp4207
F4
s(Vnecke
g53
tp4208
F1
s(Vwary
g53
tp4209
F1
s(Vnotes
g17
tp4210
F1
s(Vwalkes
g43
tp4211
F1
s(VFarmers
g11
tp4212
F1
s(Vshillings
g17
tp4213
F3
s(g13
g107
tp4214
F7
s(Vwronged
g39
tp4215
F1
s(g53
g20
tp4216
F1
s(Vfiste
g9
tp4217
F1
s(Vshootes
g43
tp4218
F1
s(VGentle
g11
tp4219
F2
s(Vquoth
g53
tp4220
F4
s(Vcreast
g9
tp4221
F1
s(Velectuaries
g17
tp4222
F1
s(Vwherof
g9
tp4223
F1
s(Vlike
g41
tp4224
F4
s(Vmaintaine
g27
tp4225
F1
s(Vblowne
g9
tp4226
F1
s(Vartificer
g17
tp4227
F1
s(Vwer
g41
tp4228
F1
s(g11
g64
tp4229
F3
s(Vlent
g9
tp4230
F1
s(Vfine
g9
tp4231
F1
s(Vbeare
g9
tp4232
F6
s(Vchaunce
g9
tp4233
F1
s(Vwashte
g39
tp4234
F1
s(Vvprightly
g15
tp4235
F1
s(Vbloudsucketh
g27
tp4236
F1
s(VTaylor
g9
tp4237
F1
s(g96
g15
tp4238
F8
s(Vwoofe
g9
tp4239
F1
s(Vsolicited
g39
tp4240
F1
s(Vyeares
g43
tp4241
F1
s(Vquarel
g9
tp4242
F1
s(Vwalked
g13
tp4243
F2
s(Vamorets
g17
tp4244
F1
s(Vtenne
g9
tp4245
F1
s(Vdriue
g27
tp4246
F1
s(Vweight
g9
tp4247
F1
s(Vharlotry
g9
tp4248
F1
s(VSpanish
g53
tp4249
F2
s(Vfals
g17
tp4250
F2
s(Vqualities
g17
tp4251
F1
s(Vhaue
g41
tp4252
F53
s(g476
g17
tp4253
F14
s(Vstaieng
g9
tp4254
F2
s(Vpossibilitie
g17
tp4255
F1
s(Vsir
g43
tp4256
F4
s(g11
g17
tp4257
F50
s(Vhauocke
g9
tp4258
F1
s(Vsons
g17
tp4259
F2
s(Vstroue
g41
tp4260
F1
s(Vsuche
g9
tp4261
F4
s(Vlease
g9
tp4262
F1
s(Vlifts
g17
tp4263
F2
s(Vshort
g53
tp4264
F6
s(Vspendthriftes
g17
tp4265
F1
s(Vlaide
g53
tp4266
F1
s(Vneyther
g15
tp4267
F2
s(Vbawdrie
g9
tp4268
F1
s(Vrayseth
g43
tp4269
F1
s(Vbegin
g41
tp4270
F1
s(S','
g107
tp4271
F555
s(Vtorne
g41
tp4272
F1
s(Vhalfe
g27
tp4273
F2
s(Vbutterflies
g17
tp4274
F1
s(Vbeguile
g27
tp4275
F1
s(Vbewraid
g13
tp4276
F1
s(Vdrest
g20
tp4277
F1
s(VCroyden
g11
tp4278
F1
s(Villis
g9
tp4279
F2
s(Vhath
g43
tp4280
F13
s(g87
g624
tp4281
F43
s(Vcourt
S'NN'
p4282
tp4283
F7
s(VSuch
g53
tp4284
F2
s(Vcouerlets
g17
tp4285
F1
s(Vwound
g9
tp4286
F1
s(Vveluetbreeches
g17
tp4287
F5
s(Vsomething
S'NN'
p4288
tp4289
F1
s(Vprison
g9
tp4290
F1
s(Vgiuing
g58
tp4291
F1
s(Vbeene
g9
tp4292
F3
s(Vwee
g9
tp4293
F3
s(g90
g107
tp4294
F2
s(Vneuer
g8
tp4295
F1
s(Vquarters
g17
tp4296
F1
s(Vparliament
g9
tp4297
F2
s(Vhenhouses
g17
tp4298
F1
s(Vwil
g13
tp4299
F1
s(Vhonors
g17
tp4300
F1
s(V!
S'.'
tp4301
F1
s(Vbaite
g9
tp4302
F1
s(Vmorning
S'NN'
p4303
tp4304
F1
s(g476
g271
tp4305
F1
s(Vwearing
g58
tp4306
F2
s(Vaske
g41
tp4307
F1
s(VPoet
g11
tp4308
F4
s(Vmeat
g9
tp4309
F5
s(Vmonie
g45
tp4310
F1
s(Vsmoke
g27
tp4311
F1
s(Vneere
g53
tp4312
F1
s(Vfall
g41
tp4313
F2
s(Vsuperiour
g9
tp4314
F1
s(Vwelth
g41
tp4315
F1
s(Vlauender
g9
tp4316
F1
s(Vwhile
g8
tp4317
F6
s(Vstincking
g9
tp4318
F1
s(VM.
S'NNP'
p4319
tp4320
F7
s(g363
g58
tp4321
F1
s(Vfound
g39
tp4322
F2
s(Vcuriously
g15
tp4323
F1
s(Vcondemne
g27
tp4324
F2
s(Vterrible
g53
tp4325
F2
s(S'('
g64
tp4326
F1
s(Vrenewed
g39
tp4327
F1
s(Vcup
g9
tp4328
F3
s(V2
S'CD'
p4329
tp4330
F2
s(g365
g2443
tp4331
F1
s(S'WRB'
p4332
g53
tp4333
F9
s(Vfiue
g53
tp4334
F1
s(VTitles
g17
tp4335
F1
s(Vprankes
g17
tp4336
F1
s(Vshadow
g27
tp4337
F1
s(g772
g64
tp4338
F1
s(Vneedie
g9
tp4339
F1
s(Vaduersary
g53
tp4340
F1
s(Vaccordes
g17
tp4341
F1
s(S','
g8
tp4342
F287
s(Vbidde
g41
tp4343
F1
s(Vvpstart
g53
tp4344
F4
s(Vfil
g27
tp4345
F2
s(Vvine
g9
tp4346
F1
s(S':'
g477
tp4347
F1
s(Val
g41
tp4348
F3
s(Vshoppe
g9
tp4349
F3
s(Vshauen
g53
tp4350
F1
s(Vthat
g64
tp4351
F57
s(Vchoose
g27
tp4352
F1
s(Vwears
g43
tp4353
F1
s(Vnoueltye
g70
tp4354
F1
s(Vfauour
g17
tp4355
F1
s(Vwherein
g8
tp4356
F2
s(Vgrudging
g9
tp4357
F1
s(Vmaketh
g17
tp4358
F1
s(Vper
g8
tp4359
F1
s(VThat
g8
tp4360
F1
s(g72
g1022
tp4361
F18
s(g27
S')'
tp4362
F1
s(Vhigh
g53
tp4363
F12
s(Vfirst
g15
tp4364
F8
s(g11
g90
tp4365
F2
s(Vhole
g9
tp4366
F2
s(Vfaith
g53
tp4367
F1
s(VLorde
g11
tp4368
F1
s(Vsleightes
g17
tp4369
F1
s(Vslipt
g9
tp4370
F1
s(Vtanner
g9
tp4371
F1
s(Vquarrell
g9
tp4372
F2
s(VGarbellers
g11
tp4373
F1
s(Vlayd
g43
tp4374
F1
s(Vdesperat
g9
tp4375
F1
s(Vorderly
g53
tp4376
F1
s(Vloue
g41
tp4377
F2
s(Vboth
g72
tp4378
F25
s(Vbewray
g27
tp4379
F1
s(Vcountrey
g9
tp4380
F3
s(g271
g39
tp4381
F55
s(Vimbollishing
g58
tp4382
F1
s(VHide
g11
tp4383
F1
s(Vwormseed
g9
tp4384
F1
s(Vquickly
S'RB'
p4385
tp4386
F1
s(Vrunne
g41
tp4387
F1
s(Vcustomers
S'NNS'
p4388
tp4389
F2
s(Vbin
g9
tp4390
F1
s(Vful
g9
tp4391
F1
s(Vperson
g79
tp4392
F1
s(Vplaye
g27
tp4393
F2
s(Vbrawled
g13
tp4394
F1
s(Vyeomanrie
g11
tp4395
F1
s(Vcorrespondent
g9
tp4396
F1
s(g496
g11
tp4397
F1
s(Vcontrouersies
g17
tp4398
F2
s(Vtwise
g27
tp4399
F1
s(Vqd
g53
tp4400
F3
s(Vwaterbearer
g9
tp4401
F1
s(VVeluet
g11
tp4402
F4
s(Vsith
g9
tp4403
F9
s(Vskinnes
g17
tp4404
F2
s(Vbraue
g15
tp4405
F1
s(Vclownes
g53
tp4406
F1
s(Vseamed
g39
tp4407
F1
s(Vgroat
g9
tp4408
F2
s(Vsundaye
g9
tp4409
F1
s(Vtryumph
g9
tp4410
F1
s(Vwealths
g53
tp4411
F1
s(Vscabberd
g9
tp4412
F1
s(Vhorne
g9
tp4413
F1
s(Vspeake
g41
tp4414
F3
s(VMarchant
g11
tp4415
F1
s(Vafore
g8
tp4416
F5
s(Vconserues
g17
tp4417
F1
s(Vdale
g9
tp4418
F1
s(Vsacra
g13
tp4419
F1
s(Vapt
g53
tp4420
F1
s(Vsin
g9
tp4421
F1
s(Vlowlinesse
g53
tp4422
F1
s(Vdoone
g53
tp4423
F1
s(Vlord
g9
tp4424
F1
s(Vlaunching
g58
tp4425
F1
s(Vciuile
g9
tp4426
F1
s(g365
g53
tp4427
F7
s(Vsearch
g9
tp4428
F1
s(Vdusty
g53
tp4429
F1
s(Vscattered
g13
tp4430
F1
s(Vsewed
g13
tp4431
F1
s(Vpresumption
g9
tp4432
F2
s(Vallegations
g17
tp4433
F1
s(Vanswer
g41
tp4434
F1
s(VEpaminodas
g11
tp4435
F1
s(Vargument
g9
tp4436
F1
s(VAre
g11
tp4437
F1
s(g19
g45
tp4438
F21
s(Vbesides
g8
tp4439
F2
s(Vmorter
g9
tp4440
F1
s(Vanother
S'DT'
p4441
tp4442
F3
s(Vsayd
g27
tp4443
F1
s(VKite
g11
tp4444
F1
s(Vfading
g58
tp4445
F1
s(Villiberalitie
g9
tp4446
F1
s(Vresolution
g9
tp4447
F1
s(Vbraue
g9
tp4448
F4
s(Vholden
g39
tp4449
F1
s(Vhonestie
g9
tp4450
F5
s(Vclothbreeches
g17
tp4451
F8
s(Vhorsse
g9
tp4452
F1
s(Vplenty
g15
tp4453
F1
s(Vskill
g27
tp4454
F1
s(Vsir
g9
tp4455
F13
s(VMiserere
g11
tp4456
F1
s(Vbawdy
g9
tp4457
F2
s(Vgiuen
g53
tp4458
F2
s(g477
g17
tp4459
F2
s(Vlooking
S'VBG'
p4460
tp4461
F4
s(Vmechanical
g53
tp4462
F1
s(Vmeasure
g27
tp4463
F2
s(Vextremity
g9
tp4464
F1
s(Vstraight
g15
tp4465
F2
s(g17
g9
tp4466
F25
s(Vinueigh
g41
tp4467
F1
s(g58
S','
tp4468
F8
s(Vmist
g9
tp4469
F1
s(Vbewray
g41
tp4470
F1
s(Vleader
S'NN'
p4471
tp4472
F1
s(Vcorne
g9
tp4473
F4
s(VJuniper
g11
tp4474
F1
s(VWhen
S'WRB'
p4475
tp4476
F2
s(Vvsurers
g17
tp4477
F1
s(g90
g496
tp4478
F1
s(Vcleere
g53
tp4479
F1
s(g11
S','
tp4480
F183
s(Vpreferment
g9
tp4481
F1
s(Vweapon
g9
tp4482
F2
s(Vresist
g27
tp4483
F1
s(VCurrier
g9
tp4484
F1
s(S','
g500
tp4485
F1
s(Vweekes
g17
tp4486
F1
s(Vwidowes
g53
tp4487
F1
s(Vsince
S'IN'
p4488
tp4489
F5
s(Vknot
g9
tp4490
F1
s(Vdarke
g43
tp4491
F1
s(Vdiscarded
g13
tp4492
F2
s(Vmaketh
g43
tp4493
F2
s(Vdrue
g43
tp4494
F1
s(Vdiscourse
g9
tp4495
F3
s(VMe
g11
tp4496
F1
s(Vcarnation
g9
tp4497
F1
s(Vhoushold
g53
tp4498
F1
s(Vcombe
g9
tp4499
F1
s(Vtand
g27
tp4500
F1
s(g585
g772
tp4501
F91
s(g896
g11
tp4502
F23
s(g27
g256
tp4503
F127
s(g11
g11
tp4504
F25
s(Vshoomakers
g17
tp4505
F2
s(VTauernes
g11
tp4506
F1
s(Vyeare
g9
tp4507
F7
s(VPoets
g56
tp4508
F1
s(g186
g4441
tp4509
F6
s(Vtrimd
g39
tp4510
F1
s(Vwherein
g43
tp4511
F1
s(Vamongst
g8
tp4512
F5
s(Vbreadth
g9
tp4513
F1
s(Vabuseth
g53
tp4514
F1
s(Vdranke
g15
tp4515
F1
s(Vstomach
g9
tp4516
F2
s(g9
g39
tp4517
F25
s(g477
g19
tp4518
F78
s(Vthink
g41
tp4519
F1
s(V12
S'CD'
p4520
tp4521
F1
s(Vexceeding
g58
tp4522
F1
s(Vabide
g27
tp4523
F1
s(g45
g3798
tp4524
F1
s(Vcarkase
g9
tp4525
F1
s(Vdeuises
g17
tp4526
F1
s(Vtearmed
g39
tp4527
F1
s(Vmorninges
g17
tp4528
F1
s(Vnearer
g9
tp4529
F1
s(Voutlandish
g53
tp4530
F1
s(Vwind
g9
tp4531
F1
s(Vcurling
g9
tp4532
F1
s(Vfountaine
g9
tp4533
F1
s(Vgarde
g9
tp4534
F1
s(Vcapons
g17
tp4535
F1
s(Vmeant
g41
tp4536
F2
s(Vshreds
g17
tp4537
F1
s(Vseemed
g39
tp4538
F1
s(Vwrong
g15
tp4539
F1
s(VHostesse
g11
tp4540
F1
s(Vsloppe
g9
tp4541
F1
s(VMercer
g11
tp4542
F1
s(Voriginall
g53
tp4543
F1
s(Vlift
g27
tp4544
F1
s(Vparson
g9
tp4545
F1
s(Vprise
g9
tp4546
F1
s(g1391
g39
tp4547
F1
s(Vpots
g17
tp4548
F2
s(Vcauses
g17
tp4549
F1
s(g17
g64
tp4550
F14
s(Vaffoord
g27
tp4551
F1
s(Vstatutes
g17
tp4552
F6
s(Vyoonge
g9
tp4553
F1
s(Vkeepe
g9
tp4554
F1
s(Vscholars
g17
tp4555
F1
s(Vsignoria
g9
tp4556
F1
s(Vpeeuish
g53
tp4557
F1
s(Voutward
g53
tp4558
F1
s(Vwor
g9
tp4559
F1
s(VUeluet
g27
tp4560
F1
s(Vesteemed
g53
tp4561
F1
s(Vpaynes
g17
tp4562
F1
s(VPlayer
g11
tp4563
F2
s(Vgrudge
g27
tp4564
F1
s(Vso
g43
tp4565
F1
s(Valms
g17
tp4566
F1
s(Vthys
g9
tp4567
F1
s(Vcharmes
g17
tp4568
F1
s(Vhall
g9
tp4569
F2
s(V3.
g186
tp4570
F2
s(Vpetty
g53
tp4571
F1
s(Vrost
g9
tp4572
F1
s(Vfeathered
g39
tp4573
F1
s(Vwarpe
g9
tp4574
F1
s(Vquart
g9
tp4575
F1
s(Vblew
g9
tp4576
F1
s(Vlending
g9
tp4577
F1
s(Vmarry
g41
tp4578
F1
s(Vwrittes
g17
tp4579
F1
s(g326
g442
tp4580
F4
s(VTyre
g11
tp4581
F1
s(S':'
g64
tp4582
F3
s(g56
S','
tp4583
F2
s(Vdistillation
g9
tp4584
F1
s(Vvalley
g9
tp4585
F3
s(Vmounsier
g45
tp4586
F1
s(Vstocks
S'NNS'
p4587
tp4588
F1
s(Vpretended
g53
tp4589
F1
s(VMercator
g11
tp4590
F1
s(Vshoulder
g9
tp4591
F1
s(Val
g17
tp4592
F1
s(Vmaidens
g17
tp4593
F2
s(VEnglande
g11
tp4594
F2
s(Vgotten
g27
tp4595
F1
s(Vyet
g15
tp4596
F45
s(Vweed
g9
tp4597
F1
s(VNoblemen
g17
tp4598
F1
s(Vfault
g9
tp4599
F5
s(g9
S')'
tp4600
F2
s(Vlimb
g9
tp4601
F1
s(Vtrespasse
g9
tp4602
F1
s(Vfauor
g9
tp4603
F2
s(Venemie
g9
tp4604
F1
s(Vthou
g53
tp4605
F7
s(Vmedow
g53
tp4606
F1
s(Val
g8
tp4607
F1
s(Vexalteth
g43
tp4608
F1
s(Vleaue
g27
tp4609
F1
s(Vlurking
g9
tp4610
F1
s(Vchimnies
g17
tp4611
F3
s(Vchurlishlye
g9
tp4612
F1
s(Vyester
g45
tp4613
F1
s(Voiles
g17
tp4614
F1
s(Vruin
g9
tp4615
F1
s(Vsnatch
g9
tp4616
F1
s(g41
g365
tp4617
F1
s(Vperceiue
g27
tp4618
F4
s(Vstuffing
g9
tp4619
F1
s(Vvnsheathed
g17
tp4620
F1
s(V&
g106
tp4621
F56
s(Vwoont
g53
tp4622
F1
s(Vlabour
g9
tp4623
F2
s(Vmarry
g9
tp4624
F2
s(Vhomespun
g53
tp4625
F1
s(VHesperides
g11
tp4626
F1
s(Vshieres
g17
tp4627
F1
s(Vappeared
g13
tp4628
F2
s(Vstept
g41
tp4629
F3
s(Vbooke
g9
tp4630
F3
s(VMistresse
g11
tp4631
F1
s(g17
S':'
tp4632
F24
s(Vexceed
g27
tp4633
F3
s(Vholes
g17
tp4634
F3
s(Vbale
g27
tp4635
F1
s(Vscarlet
g9
tp4636
F1
s(Vpendaunt
g9
tp4637
F1
s(Vsubtilties
g17
tp4638
F1
s(Vbrocage
g9
tp4639
F1
s(Vcounsaile
g9
tp4640
F2
s(Vpower
S'NN'
p4641
tp4642
F1
s(Vstand
g27
tp4643
F2
s(Vspie
g27
tp4644
F1
s(Vshackle
g41
tp4645
F1
s(Vmaruelled
g13
tp4646
F1
s(Vseeming
g58
tp4647
F1
s(Vvery
g15
tp4648
F8
s(Vdrownd
g39
tp4649
F1
s(Vglad
g53
tp4650
F1
s(Vplatters
g17
tp4651
F1
s(Vtruth
g9
tp4652
F2
s(Vwandering
g58
tp4653
F1
s(Vblabbe
g27
tp4654
F1
s(Vwelcome
g53
tp4655
F3
s(Vtrauel
g9
tp4656
F1
s(Vriches
g17
tp4657
F2
s(Vinstead
S'RB'
p4658
tp4659
F1
s(g363
g1861
tp4660
F1
s(Vlet
g53
tp4661
F1
s(Vthread
g9
tp4662
F2
s(VMethought
g11
tp4663
F1
s(Vrobes
g9
tp4664
F1
s(Vmerchant
g9
tp4665
F2
s(Vgaue
g13
tp4666
F1
s(Vspared
g39
tp4667
F1
s(VBayly
g11
tp4668
F1
s(Vsurgion
g9
tp4669
F3
s(VTailors
g11
tp4670
F1
s(Vstubborne
g53
tp4671
F1
s(VBrewer
g45
tp4672
F1
s(Vspun
g39
tp4673
F1
s(Vraised
g39
tp4674
F1
s(Vstand
g9
tp4675
F4
s(Vforgetting
g58
tp4676
F1
s(g39
g479
tp4677
F5
s(g2541
g1896
tp4678
F9
s(Vtrauell
g27
tp4679
F1
s(VLeather
g11
tp4680
F4
s(Vconsultation
g9
tp4681
F1
s(Vgentle
g53
tp4682
F2
s(Vout
g8
tp4683
F27
s(VDinner
g11
tp4684
F2
s(Vqouth
g9
tp4685
F1
s(VWhereas
g11
tp4686
F2
s(Veuidence
g9
tp4687
F1
s(VCapons
g11
tp4688
F1
s(Vdoth
g43
tp4689
F1
s(Vprid
g9
tp4690
F1
s(g72
g111
tp4691
F2
s(Vnecessity
g9
tp4692
F1
s(VWhy
g4332
tp4693
F13
s(VNoble
g53
tp4694
F1
s(Vwish
g53
tp4695
F1
s(Vearable
g53
tp4696
F1
s(Vwronges
g17
tp4697
F1
s(Vset
g9
tp4698
F1
s(Vbroacht
g9
tp4699
F1
s(Vvppon
g9
tp4700
F1
s(Vneedles
g17
tp4701
F1
s(VBricklaier
g11
tp4702
F1
s(Vcuriouslye
g17
tp4703
F1
s(Vcoat
g9
tp4704
F1
s(Vscornd
g41
tp4705
F1
s(Vagaine
g53
tp4706
F2
s(Vbrest
g9
tp4707
F1
s(Vwhereon
g43
tp4708
F1
s(Vstumbled
g39
tp4709
F1
s(Vperemtorie
g15
tp4710
F1
s(g58
g91
tp4711
F2
s(VTime
g11
tp4712
F1
s(VFrenchman
g11
tp4713
F1
s(VSaturne
g11
tp4714
F1
s(Vminister
S'NN'
p4715
tp4716
F1
s(Vdiar
g9
tp4717
F1
s(Vglad
g9
tp4718
F2
s(Vblessed
g53
tp4719
F1
s(VNobleman
g11
tp4720
F1
s(Vde
g8
tp4721
F1
s(Vmaketh
g9
tp4722
F2
s(Vwert
g53
tp4723
F1
s(g469
g45
tp4724
F5
s(g912
g11
tp4725
F18
s(Vwrong
g27
tp4726
F1
s(Vamongest
g20
tp4727
F1
s(Vworsted
g13
tp4728
F1
s(VLastly
g15
tp4729
F1
s(Vsuffice
g27
tp4730
F1
s(Vdeceipt
g9
tp4731
F1
s(VOh
g500
tp4732
F4
s(Vcouple
g9
tp4733
F1
s(Vplead
g27
tp4734
F2
s(Vbaselie
g17
tp4735
F1
s(Vmaruell
g41
tp4736
F2
s(Vdiscouer
g27
tp4737
F1
s(Vmaye
g43
tp4738
F2
s(g1391
g27
tp4739
F4
s(Vmule
g9
tp4740
F1
s(Vropemaker
g9
tp4741
F5
s(VWhat
g1557
tp4742
F10
s(Vawrie
g58
tp4743
F1
s(Vbororing
g9
tp4744
F1
s(g43
g477
tp4745
F20
s(VGermaines
g56
tp4746
F1
s(Vbelly
g15
tp4747
F1
s(Vthrust
g53
tp4748
F1
s(Vtill
g9
tp4749
F1
s(Vthou
g27
tp4750
F2
s(Vpauperis
g9
tp4751
F1
s(VDarbies
g11
tp4752
F1
s(g20
g17
tp4753
F14
s(VStephen
g11
tp4754
F1
s(Vlooke
g27
tp4755
F1
s(Vbackward
g9
tp4756
F1
s(g873
g332
tp4757
F5
s(Vloath
g53
tp4758
F1
s(Vpromise
g9
tp4759
F2
s(Vtriall
g9
tp4760
F1
s(g107
g19
tp4761
F123
s(Vmasking
g58
tp4762
F1
s(S','
g100
tp4763
F6
s(Vmercilesse
g9
tp4764
F2
s(g107
g624
tp4765
F79
s(Vgraundfathers
g17
tp4766
F1
s(Vbroker
g9
tp4767
F4
s(Vgiue
g27
tp4768
F4
s(VDiuell
g11
tp4769
F1
s(Vwhome
g9
tp4770
F3
s(Vashamed
g39
tp4771
F1
s(Vwrapt
g9
tp4772
F3
s(Vbreefe
g39
tp4773
F2
s(VGoldsmith
g11
tp4774
F1
s(Vlowlie
g53
tp4775
F1
s(Vweake
g41
tp4776
F1
s(Vliues
g17
tp4777
F3
s(Vwher
g15
tp4778
F1
s(Vthemselues
g27
tp4779
F1
s(Vgraunte
g27
tp4780
F1
s(VDaughter
g9
tp4781
F1
s(Vdown
g15
tp4782
F1
s(g1398
g496
tp4783
F13
s(Vneuer
g41
tp4784
F1
s(Vbones
g17
tp4785
F3
s(Vaccompanied
g13
tp4786
F1
s(g772
g1391
tp4787
F5
s(g1276
g87
tp4788
F1
s(g17
g663
tp4789
F1
s(Vvalue
S'NN'
p4790
tp4791
F3
s(Vtrowel
g9
tp4792
F1
s(Vstil
g39
tp4793
F1
s(VBurgans
g56
tp4794
F1
s(Vsearch
g27
tp4795
F2
s(Vchamphier
g45
tp4796
F1
s(VGentlewomen
g17
tp4797
F1
s(Vwithoute
g9
tp4798
F1
s(VWorshipfull
g11
tp4799
F1
s(Vknyfe
g9
tp4800
F1
s(Vnose
g15
tp4801
F1
s(Vfit
g41
tp4802
F1
s(Vput
g41
tp4803
F4
s(Vshoulders
g17
tp4804
F2
s(Vpouertie
g9
tp4805
F1
s(Vhoped
g9
tp4806
F1
s(g11
g45
tp4807
F1
s(S','
g53
tp4808
F45
s(Vbranches
g17
tp4809
F1
s(Vloath
g9
tp4810
F1
s(Vletting
g58
tp4811
F1
s(Vsimple
g9
tp4812
F1
s(Vgoldsmith
g9
tp4813
F2
s(Vwant
g27
tp4814
F2
s(Vwheras
g90
tp4815
F1
s(VShal
g11
tp4816
F1
s(Vtrash
g27
tp4817
F1
s(Vvsing
g58
tp4818
F1
s(g477
g58
tp4819
F1
s(Vpresence
S'NN'
p4820
tp4821
F1
s(Vsup
g27
tp4822
F1
s(Vthousand
g186
tp4823
F2
s(g2675
g45
tp4824
F5
s(Vaustere
g15
tp4825
F1
s(Vfolloweth
g9
tp4826
F1
s(Vmonster
g9
tp4827
F1
s(Vpoore
g9
tp4828
F48
s(Vtil
g8
tp4829
F1
s(Vconsist
g27
tp4830
F1
s(Vtaken
g1485
tp4831
F4
s(Vhere
S'RB'
p4832
tp4833
F10
s(Vdowne
g41
tp4834
F2
s(VWeauer
g11
tp4835
F2
s(Vpart
S'NN'
p4836
tp4837
F8
s(Vfriende
g9
tp4838
F2
s(Voffenses
g17
tp4839
F1
s(Vapparell
g27
tp4840
F1
s(Vone
g186
tp4841
F48
s(Vfees
S'NNS'
p4842
tp4843
F1
s(Vcheape
g9
tp4844
F3
s(Vsolitarie
g9
tp4845
F1
s(Vleane
g9
tp4846
F1
s(g326
g19
tp4847
F45
s(VFox
g11
tp4848
F1
s(Vscornefully
g15
tp4849
F1
s(Vmast
g39
tp4850
F1
s(g70
g9
tp4851
F4
s(Vgroned
g39
tp4852
F1
s(Vhell
g9
tp4853
F4
s(Vempty
g15
tp4854
F1
s(Voaker
g9
tp4855
F1
s(Vhart
g9
tp4856
F3
s(V)
S')'
tp4857
F27
s(Vblood
g9
tp4858
F2
s(Vcutler
g9
tp4859
F1
s(Vallowed
g39
tp4860
F1
s(VMary
g11
tp4861
F6
s(VExchange
S'NNP'
p4862
tp4863
F1
s(Vreumycast
g9
tp4864
F1
s(VCaligula
g11
tp4865
F1
s(Vgaines
g17
tp4866
F3
s(VBreeches
g11
tp4867
F2
s(Vbeare
g53
tp4868
F1
s(Vstep
g9
tp4869
F1
s(g53
g111
tp4870
F39
s(V4
S'CD'
p4871
tp4872
F2
s(Vbene
g53
tp4873
F1
s(Vgesse
g41
tp4874
F5
s(g477
g332
tp4875
F19
s(Vhandicrafts
g17
tp4876
F1
s(Vgraunt
g41
tp4877
F1
s(Vinhabit
g9
tp4878
F1
s(Vscarse
g9
tp4879
F1
s(Vslop
g9
tp4880
F1
s(Vchildren
S'NNS'
p4881
tp4882
F3
s(Vwhether
S'IN'
p4883
tp4884
F13
s(Vgreate
g53
tp4885
F1
s(Vthou
g1391
tp4886
F1
s(Vchallenges
g17
tp4887
F2
s(VWhereat
g9
tp4888
F1
s(Vpastures
g17
tp4889
F2
s(Vanew
g363
tp4890
F1
s(g20
g2232
tp4891
F6
s(g11
g496
tp4892
F12
s(Vcredit
S'NN'
p4893
tp4894
F5
s(Vtransitory
g9
tp4895
F1
s(VWigginton
g11
tp4896
F1
s(Vverdit
g9
tp4897
F1
s(Vmember
S'NN'
p4898
tp4899
F3
s(Vread
g27
tp4900
F1
s(Vmarching
g9
tp4901
F1
s(Vespied
g13
tp4902
F3
s(VBlessed
g39
tp4903
F1
s(Vtoong
g9
tp4904
F1
s(S'('
g106
tp4905
F3
s(Vtogyther
g9
tp4906
F1
s(Vpoint
g9
tp4907
F1
s(VHawk
g11
tp4908
F1
s(Vcertaine
g53
tp4909
F1
s(Vhold
g27
tp4910
F6
s(Vchamber
g9
tp4911
F3
s(VOxe
g11
tp4912
F1
s(Vbelonged
g13
tp4913
F1
s(Vvppe
g27
tp4914
F3
s(Vblemish
g9
tp4915
F1
s(g8
g20
tp4916
F4
s(Vtoll
g9
tp4917
F1
s(Vaway
g15
tp4918
F13
s(Vmase
g9
tp4919
F1
s(g375
g17
tp4920
F181
s(VWestminster
g11
tp4921
F2
s(g19
g56
tp4922
F8
s(Vgetting
S'VBG'
p4923
tp4924
F1
s(Vthinke
g8
tp4925
F1
s(g15
g138
tp4926
F23
s(Vmeasure
g9
tp4927
F3
s(Vleases
g17
tp4928
F2
s(Vwonders
g17
tp4929
F1
s(Vsuteable
g53
tp4930
F1
s(Vwrests
g43
tp4931
F1
s(Vnorisheth
g496
tp4932
F1
s(Vserpents
g17
tp4933
F1
s(Vwouen
g9
tp4934
F1
s(Vpriuate
g9
tp4935
F1
s(g2117
g13
tp4936
F1
s(Vinquired
g13
tp4937
F3
s(Vcounts
g43
tp4938
F1
s(g39
S','
tp4939
F37
s(Vpoinard
g9
tp4940
F1
s(g9
g300
tp4941
F4
s(Vanswere
g15
tp4942
F1
s(Vstrowted
g13
tp4943
F1
s(g111
g39
tp4944
F6
s(Vseeing
g58
tp4945
F9
s(Vlate
g53
tp4946
F2
s(Vappointed
g39
tp4947
F1
s(Vtwentye
g53
tp4948
F1
s(Vhundred
g186
tp4949
F2
s(Vtaketh
g43
tp4950
F1
s(g111
g17
tp4951
F58
s(Vpeak
g9
tp4952
F1
s(Vseene
g9
tp4953
F2
s(Vsquare
g27
tp4954
F1
s(S','
g90
tp4955
F33
s(Vso
g15
tp4956
F114
s(Vknauerie
g9
tp4957
F5
s(VBeside
g8
tp4958
F6
s(Vbrother
g9
tp4959
F3
s(Vrebus
g9
tp4960
F1
s(Vdisdain
g9
tp4961
F1
s(Vknauery
g9
tp4962
F1
s(g70
g912
tp4963
F1
s(Vinkhorne
g53
tp4964
F1
s(Vneather
g53
tp4965
F1
s(Vsacke
g9
tp4966
F2
s(Vbuttred
g53
tp4967
F1
s(Vthanked
g13
tp4968
F1
s(VTaffata
g11
tp4969
F1
s(VInamerato
g11
tp4970
F1
s(Veager
g53
tp4971
F1
s(Vchewing
g9
tp4972
F1
s(Vfrouned
g39
tp4973
F1
s(VAmen
g17
tp4974
F1
s(Vsensor
g9
tp4975
F1
s(Vdip
g41
tp4976
F1
s(Vdoing
S'VBG'
p4977
tp4978
F1
s(g326
g56
tp4979
F1
s(Vvnto
g8
tp4980
F11
s(VEsquires
g11
tp4981
F1
s(Vsell
g41
tp4982
F2
s(Vshoulde
g13
tp4983
F1
s(Vissue
g27
tp4984
F1
s(Vvnles
g17
tp4985
F1
s(g39
g11
tp4986
F6
s(Vmeanes
g43
tp4987
F1
s(Vsouldiers
g17
tp4988
F1
s(Vlawyer
S'NN'
p4989
tp4990
F1
s(VCunnie
g11
tp4991
F1
s(Vextortions
g17
tp4992
F1
s(Vgotten
g39
tp4993
F1
s(Vweapons
S'NNS'
p4994
tp4995
F1
s(Vwoman
S'NN'
p4996
tp4997
F2
s(g477
g365
tp4998
F1
s(VHeerein
g11
tp4999
F1
s(Vconclude
g27
tp5000
F2
s(Vpedlar
g53
tp5001
F1
s(VOf
S'IN'
p5002
tp5003
F1
s(Vduke
g9
tp5004
F1
s(Vyea
g27
tp5005
F1
s(g43
g363
tp5006
F2
s(Vsmoke
g13
tp5007
F1
s(Vinto
S'IN'
p5008
tp5009
F32
s(Vwanton
g27
tp5010
F1
s(g11
g1022
tp5011
F16
s(Vpranke
g27
tp5012
F2
s(Vseeme
g41
tp5013
F3
s(Vcausing
g58
tp5014
F1
s(Vbitter
g53
tp5015
F3
s(Vclaret
g9
tp5016
F1
s(Vslouenlie
g17
tp5017
F1
s(Vdebate
g9
tp5018
F1
s(g87
g13
tp5019
F1
s(Vdealings
g17
tp5020
F1
s(Vtheyr
g41
tp5021
F1
s(g58
g64
tp5022
F1
s(Vbreake
g41
tp5023
F1
s(Vcasting
g58
tp5024
F1
s(Vynough
g8
tp5025
F1
s(VAnd
g859
tp5026
F21
s(Vdropt
g41
tp5027
F1
s(Vpurses
g17
tp5028
F1
s(Varrested
g39
tp5029
F1
s(Vward
g27
tp5030
F1
s(Vbethought
g13
tp5031
F1
s(Vdore
g9
tp5032
F1
s(g281
S':'
tp5033
F8
s(Vdrinke
g27
tp5034
F1
s(Vbenison
g9
tp5035
F1
s(S')'
g1391
tp5036
F1
s(g43
g20
tp5037
F1
s(V10
S'CD'
p5038
tp5039
F1
s(Vtwentie
g53
tp5040
F1
s(Vdoone
g9
tp5041
F4
s(g27
g27
tp5042
F16
s(Vdamped
g13
tp5043
F1
s(VIudges
g11
tp5044
F1
s(Vcredite
g9
tp5045
F1
s(Vdrink
g9
tp5046
F1
s(Vdoublet
g9
tp5047
F2
s(g11
S')'
tp5048
F3
s(Vidols
g17
tp5049
F1
s(Vdogge
g9
tp5050
F1
s(Vresolutions
g17
tp5051
F1
s(g2541
S'('
tp5052
F1
s(Vreckoning
g58
tp5053
F1
s(Vputting
S'VBG'
p5054
tp5055
F1
s(VPaunsie
g11
tp5056
F1
s(Vcredited
g53
tp5057
F1
s(Vextortion
g9
tp5058
F2
s(Vfaire
g9
tp5059
F6
s(Vdicing
g58
tp5060
F1
s(Vbladders
g17
tp5061
F1
s(S'NNS'
p5062
g58
tp5063
F13
s(Vpace
S'NN'
p5064
tp5065
F2
s(Vbeate
g41
tp5066
F1
s(Vgreet
g41
tp5067
F1
s(Veuacuate
g9
tp5068
F1
s(Vpolling
g58
tp5069
F1
s(Vtwoe
g9
tp5070
F1
s(Vvsurie
g27
tp5071
F1
s(Vleapt
g41
tp5072
F1
s(Vstrait
g27
tp5073
F1
s(Vgrasse
g9
tp5074
F1
s(Vkinge
g9
tp5075
F1
s(g500
g19
tp5076
F1
s(VYes
g500
tp5077
F1
s(Vcease
g9
tp5078
F1
s(Vstuffe
g17
tp5079
F1
s(Vcoystrell
g9
tp5080
F1
s(VA
g72
tp5081
F5
s(Vsharpe
g53
tp5082
F1
s(Vforefathers
g17
tp5083
F1
s(Vtalking
S'VBG'
p5084
tp5085
F1
s(Vdoubleing
g9
tp5086
F1
s(Vrackt
g9
tp5087
F1
s(Vtwelue
g9
tp5088
F1
s(VTubalcane
g11
tp5089
F1
s(Vinstruments
S'NNS'
p5090
tp5091
F1
s(Vslangrel
g9
tp5092
F1
s(Vplough
g9
tp5093
F2
s(Vbeard
g27
tp5094
F1
s(Vspent
g39
tp5095
F1
s(Vwounds
g17
tp5096
F1
s(g624
g496
tp5097
F157
s(g585
g90
tp5098
F7
s(g45
g19
tp5099
F4
s(VTis
g11
tp5100
F1
s(g58
g1150
tp5101
F17
s(Vwatchet
g9
tp5102
F1
s(Vcosenages
g17
tp5103
F1
s(Vpound
S'NN'
p5104
tp5105
F6
s(Vcalling
S'VBG'
p5106
tp5107
F3
s(Vbetwixt
g9
tp5108
F2
s(Vther
g106
tp5109
F1
s(VPeacocke
g11
tp5110
F1
s(Vhinds
g17
tp5111
F1
s(Vplainelie
g9
tp5112
F1
s(S':'
g87
tp5113
F3
s(Vspoile
g9
tp5114
F2
s(Vsue
g41
tp5115
F1
s(Vpoundes
g17
tp5116
F1
s(Vmonstrous
g53
tp5117
F5
s(VGing
g9
tp5118
F1
s(Vwhome
g53
tp5119
F3
s(Vsixt
g9
tp5120
F2
s(Vlife
S'NN'
p5121
tp5122
F7
s(Vpannels
g17
tp5123
F1
s(Vexecutioner
g41
tp5124
F1
s(Vreferre
g41
tp5125
F1
s(Vtoken
g9
tp5126
F1
s(Vspend
g27
tp5127
F2
s(Vpainted
g53
tp5128
F1
s(Vkeep
g41
tp5129
F1
s(Vbarrels
g17
tp5130
F1
s(Vbroaker
g9
tp5131
F1
s(Vmesures
g17
tp5132
F1
s(Vpearch
g41
tp5133
F1
s(g186
g1022
tp5134
F2
s(g1343
g41
tp5135
F2
s(Vmaye
g9
tp5136
F2
s(g39
g965
tp5137
F99
s(VOuse
g11
tp5138
F1
s(Vvery
g53
tp5139
F1
s(Vdraw
g27
tp5140
F5
s(Vnecessarie
g15
tp5141
F1
s(g20
S'.'
tp5142
F6
s(g496
g27
tp5143
F190
s(Vfurnish
g27
tp5144
F1
s(g72
g240
tp5145
F5
s(Vagainste
g9
tp5146
F1
s(Vlambe
g9
tp5147
F2
s(S')'
g479
tp5148
F3
s(Voffence
g9
tp5149
F1
s(g15
g58
tp5150
F14
s(Vskinner
g9
tp5151
F1
s(V-
S':'
tp5152
F1
s(Vheard
g13
tp5153
F1
s(VIewels
g11
tp5154
F1
s(Vhold
g41
tp5155
F7
s(Vquestioning
g9
tp5156
F1
s(Vpaying
S'VBG'
p5157
tp5158
F1
s(Vveluet
g9
tp5159
F28
s(S':'
g772
tp5160
F25
s(VFleet
g11
tp5161
F1
s(VSo
g11
tp5162
F1
s(VSmith
S'NNP'
p5163
tp5164
F1
s(Vbestowe
g41
tp5165
F1
s(VFenell
g11
tp5166
F1
s(Vwrong
g53
tp5167
F1
s(Vforce
g9
tp5168
F1
s(V18
S'CD'
p5169
tp5170
F1
s(Vnowe
g15
tp5171
F1
s(Vamongst
g39
tp5172
F1
s(Vbase
g27
tp5173
F1
s(Vconiunction
g9
tp5174
F1
s(g13
g477
tp5175
F25
s(g9
g20
tp5176
F2
s(Vharte
g9
tp5177
F2
s(Vpointes
g17
tp5178
F1
s(Vbooks
S'NNS'
p5179
tp5180
F1
s(Vsimple
g53
tp5181
F6
s(Vgrowe
g27
tp5182
F1
s(g39
g53
tp5183
F6
s(Vfolloweth
g43
tp5184
F1
s(Vbrooke
g41
tp5185
F1
s(Vhath
g9
tp5186
F27
s(Vhie
g27
tp5187
F1
s(Vtrickt
g9
tp5188
F1
s(g4111
S'('
tp5189
F3
s(Vconceaue
g41
tp5190
F1
s(Vall
g72
tp5191
F53
s(VDomaneere
g27
tp5192
F1
s(VMusco
g11
tp5193
F1
s(Vsealed
g39
tp5194
F1
s(Vstept
g13
tp5195
F2
s(Vmortes
g17
tp5196
F2
s(Vcarries
g3832
tp5197
F4
s(Vyouthfull
g53
tp5198
F1
s(Vgenerally
g2671
tp5199
F4
s(Vtooting
g9
tp5200
F1
s(Vaspyre
g27
tp5201
F1
s(Valone
g9
tp5202
F1
s(Vgrant
g9
tp5203
F1
s(Vexcessiue
g53
tp5204
F2
s(V14
S'CD'
p5205
tp5206
F1
s(g17
g41
tp5207
F92
s(Vhunteth
g43
tp5208
F2
s(Vhalfe
g53
tp5209
F3
s(Viust
g53
tp5210
F1
s(Vends
g17
tp5211
F1
s(Vadicted
g39
tp5212
F1
s(g41
g27
tp5213
F12
s(Vwell
g15
tp5214
F21
s(Vhusbandman
g9
tp5215
F1
s(VGeorges
g11
tp5216
F1
s(Vagaynst
g8
tp5217
F1
s(g53
g79
tp5218
F468
s(Vassunder
g9
tp5219
F1
s(VDiadems
g56
tp5220
F1
s(Voh
g9
tp5221
F1
s(Vvpstartes
g17
tp5222
F1
s(Vnose
g9
tp5223
F4
s(Vmake
g27
tp5224
F41
s(VArt
g9
tp5225
F1
s(Vweakest
g20
tp5226
F1
s(Vsweet
g9
tp5227
F1
s(VLady
g9
tp5228
F1
s(Vrennish
g53
tp5229
F1
s(Vquoth
g9
tp5230
F10
s(Vgrowne
g9
tp5231
F1
s(Vneighbourhood
g53
tp5232
F1
s(VWhere
g96
tp5233
F1
s(Vasses
g17
tp5234
F1
s(Vlately
g15
tp5235
F1
s(V:
S':'
tp5236
F143
s(S','
g663
tp5237
F8
s(Vresteth
g43
tp5238
F1
s(g13
g365
tp5239
F1
s(Vrelieue
g27
tp5240
F1
s(Vhoppe
g9
tp5241
F1
s(Vwhye
g8
tp5242
F1
s(VWeasels
g11
tp5243
F1
s(VNoblemen
g11
tp5244
F1
s(Vhalters
g17
tp5245
F2
s(VGentilitie
g11
tp5246
F1
s(Vsawe
g41
tp5247
F3
s(Vlodging
g58
tp5248
F1
s(Vwelt
g27
tp5249
F1
s(Vthoroughly
g15
tp5250
F1
s(Vnip
g27
tp5251
F1
s(Vdisgest
g27
tp5252
F1
s(VOther
S'JJ'
p5253
tp5254
F1
s(Vdreame
g9
tp5255
F3
s(Vquarell
g9
tp5256
F1
s(Vfoster
g27
tp5257
F1
s(Vredde
g9
tp5258
F1
s(Vseuenth
g9
tp5259
F1
s(g58
g281
tp5260
F16
s(VFabritius
g11
tp5261
F1
s(VDooth
g11
tp5262
F1
s(Vknottes
g17
tp5263
F1
s(Vthinkes
g17
tp5264
F2
s(Vwise
g9
tp5265
F4
s(Vdrunke
g39
tp5266
F1
s(Vprofite
g9
tp5267
F1
s(Vierken
g9
tp5268
F1
s(Vdammages
g17
tp5269
F1
s(Vamong
g1354
tp5270
F2
s(Vbind
g27
tp5271
F1
s(Vtel
g27
tp5272
F1
s(Vcontains
g43
tp5273
F1
s(Vstrong
S'JJ'
p5274
tp5275
F3
s(Vcounters
g17
tp5276
F1
s(Vdelight
g9
tp5277
F1
s(Vyeelde
g27
tp5278
F1
s(VTallow
g11
tp5279
F1
s(Vdesires
g17
tp5280
F1
s(Vall
g300
tp5281
F12
s(Vcarion
g9
tp5282
F1
s(Vset
g39
tp5283
F4
s(Vremnaunts
g17
tp5284
F1
s(g500
g9
tp5285
F2
s(Vsubsidye
g9
tp5286
F1
s(V5
S'CD'
p5287
tp5288
F1
s(Vsalt
g43
tp5289
F1
s(Vmix
g41
tp5290
F1
s(Vbootes
g17
tp5291
F2
s(Vbusinesse
g9
tp5292
F1
s(g53
S'.'
tp5293
F11
s(Vsooner
g9
tp5294
F2
s(VSith
g11
tp5295
F1
s(VMarchandize
g11
tp5296
F1
s(VLucifer
g11
tp5297
F1
s(g320
g53
tp5298
F3
s(Vsupplication
g9
tp5299
F1
s(Vconsist
g9
tp5300
F1
s(Vmake
g41
tp5301
F13
s(Vquarter
S'NN'
p5302
tp5303
F3
s(Vvillainie
g9
tp5304
F1
s(Vattired
g39
tp5305
F1
s(Vbrought
g13
tp5306
F5
s(VPhilopo
g11
tp5307
F1
s(VItalianate
g11
tp5308
F1
s(Vguests
g17
tp5309
F2
s(Vrecald
g58
tp5310
F1
s(Vsattyn
g9
tp5311
F1
s(Vveluet
g43
tp5312
F1
s(Vtried
g39
tp5313
F2
s(Vabuse
g27
tp5314
F1
s(Vhumanitie
g9
tp5315
F1
s(Vallegation
g9
tp5316
F2
s(Vbreefe
g15
tp5317
F1
s(Vmettals
g17
tp5318
F2
s(Vslippe
g41
tp5319
F1
s(Vcouenants
g43
tp5320
F1
s(Vreport
g9
tp5321
F1
s(Vcalues
g17
tp5322
F1
s(Vmarke
g41
tp5323
F1
s(Vhee
g53
tp5324
F9
s(Volde
g9
tp5325
F3
s(Vchoplogicke
g9
tp5326
F1
s(VCrowne
g11
tp5327
F1
s(Vracketh
g43
tp5328
F1
s(Vhusbadman
g9
tp5329
F1
s(Vsleight
g53
tp5330
F1
s(Vgoodfellowes
g27
tp5331
F1
s(Vwent
g294
tp5332
F7
s(Vsmoothlie
g9
tp5333
F1
s(Vgoe
g27
tp5334
F2
s(VGentleman
g11
tp5335
F11
s(Vmistresse
g70
tp5336
F1
s(Vgumd
g53
tp5337
F1
s(Vworkeman
g9
tp5338
F1
s(Vcall
g27
tp5339
F1
s(g17
g326
tp5340
F34
s(Vmeant
g13
tp5341
F1
s(g2541
g41
tp5342
F9
s(Vflea
g27
tp5343
F1
s(Vfranke
g53
tp5344
F1
s(Vgodlye
g27
tp5345
F1
s(Vlesse
g9
tp5346
F1
s(Vwedded
g39
tp5347
F1
s(Vouches
g17
tp5348
F1
s(Vworse
g45
tp5349
F1
s(Vsacke
g53
tp5350
F1
s(Vleping
g58
tp5351
F1
s(Vinforced
g39
tp5352
F1
s(Vrather
S'RB'
p5353
tp5354
F8
s(Vgreedinesse
g9
tp5355
F1
s(Valleaged
g13
tp5356
F1
s(VUsher
g11
tp5357
F3
s(Vallaye
g27
tp5358
F1
s(Vmaister
g9
tp5359
F12
s(Vpaye
g15
tp5360
F1
s(Vknowe
g41
tp5361
F4
s(Vcomposition
g9
tp5362
F1
s(Vende
g9
tp5363
F2
s(g2618
g58
tp5364
F1
s(Vdawbed
g13
tp5365
F1
s(Vfor
g772
tp5366
F232
s(VCountrey
g11
tp5367
F5
s(Vtryers
g17
tp5368
F1
s(Vturned
g13
tp5369
F3
s(g859
g15
tp5370
F156
s(Vchurl
g9
tp5371
F1
s(VCormorants
g17
tp5372
F2
s(g186
g45
tp5373
F1
s(Vclaret
g53
tp5374
F1
s(VArte
g11
tp5375
F1
s(VBellowsmender
g11
tp5376
F1
s(Vchere
g9
tp5377
F1
s(Veies
g17
tp5378
F2
s(Vknowes
g9
tp5379
F1
s(Vgoodfellows
g17
tp5380
F1
s(Vshuffled
g39
tp5381
F1
s(VDunces
g17
tp5382
F1
s(Vwords
S'NNS'
p5383
tp5384
F1
s(Vsaies
g17
tp5385
F1
s(Vraise
g27
tp5386
F2
s(Vwoulde
g43
tp5387
F1
s(Vcheap
g53
tp5388
F1
s(VClothbreeches
g11
tp5389
F14
s(Vcarle
g9
tp5390
F1
s(Vdominier
g27
tp5391
F1
s(Vlogicke
g41
tp5392
F1
s(Vdeaw
g9
tp5393
F1
s(Vbuff
g9
tp5394
F1
s(Vpopuli
g53
tp5395
F1
s(Vprincipio
g9
tp5396
F1
s(Vvp
g8
tp5397
F4
s(Vinuentions
g17
tp5398
F1
s(Vvs
g9
tp5399
F9
s(Vturning
g58
tp5400
F2
s(Venimies
g17
tp5401
F1
s(Vdegrees
g17
tp5402
F2
s(g9
g90
tp5403
F4
s(g11
g469
tp5404
F52
s(g9
g45
tp5405
F2
s(VUsurers
g56
tp5406
F1
s(Vcommunalitie
g9
tp5407
F1
s(Vauthentical
g53
tp5408
F1
s(Vlightly
g15
tp5409
F2
s(VOuse
g9
tp5410
F1
s(Vorcharde
g9
tp5411
F1
s(Vwert
g27
tp5412
F1
s(g56
g41
tp5413
F1
s(Vspeak
g27
tp5414
F1
s(Vgreseth
g43
tp5415
F1
s(g53
g56
tp5416
F2
s(Vmet
g13
tp5417
F4
s(g20
g11
tp5418
F2
s(Vlost
g39
tp5419
F1
s(Vnettles
g17
tp5420
F2
s(Vpapistrie
g53
tp5421
F1
s(Vbrowne
g53
tp5422
F2
s(Vhee
g41
tp5423
F2
s(Voffice
S'NN'
p5424
tp5425
F6
s(VSuppose
g27
tp5426
F2
s(VThursday
S'NNP'
p5427
tp5428
F1
s(Vreplied
g13
tp5429
F1
s(Vsunke
g39
tp5430
F1
s(Vplainly
g15
tp5431
F1
s(Vimmediatly
g15
tp5432
F1
s(Vneeded
g13
tp5433
F3
s(Vwore
g9
tp5434
F1
s(Vcountries
S'NNS'
p5435
tp5436
F2
s(V16
S'CD'
p5437
tp5438
F1
s(Vcrosbitten
g43
tp5439
F1
s(Vcompanye
g9
tp5440
F2
s(Vsaide
g9
tp5441
F1
s(VChristall
g53
tp5442
F1
s(Vmine
g53
tp5443
F4
s(Vlockes
g17
tp5444
F1
s(Vdownefall
g9
tp5445
F1
s(Vsmith
g41
tp5446
F1
s(VPlaisterer
g11
tp5447
F1
s(Vdeuil
g9
tp5448
F1
s(Vsissors
g17
tp5449
F1
s(Vblushing
g58
tp5450
F1
s(VInonerati
g11
tp5451
F1
s(Vborne
g53
tp5452
F5
s(VGentlewomen
g11
tp5453
F1
s(Vlitle
g9
tp5454
F1
s(g585
g320
tp5455
F3
s(VCommons
g56
tp5456
F1
s(Vwoolfe
g9
tp5457
F1
s(S'('
g9
tp5458
F8
s(g13
g827
tp5459
F75
s(Vcloake
g9
tp5460
F2
s(Vdislike
g27
tp5461
F1
s(Vherein
g9
tp5462
F1
s(Vghost
g9
tp5463
F1
s(Vcountenance
g9
tp5464
F4
s(Vix
g9
tp5465
F1
s(g502
g365
tp5466
F1
s(Vable
S'JJ'
p5467
tp5468
F6
s(Vplaies
g17
tp5469
F1
s(Vkisseth
g27
tp5470
F1
s(Vknee
g9
tp5471
F4
s(VHeretikes
g11
tp5472
F1
s(Vblameth
g43
tp5473
F1
s(VHow
g11
tp5474
F1
s(g1432
g13
tp5475
F8
s(S':'
g627
tp5476
F1
s(Vwhole
g9
tp5477
F1
s(Vamisse
g9
tp5478
F1
s(Vchimnie
g9
tp5479
F1
s(Vherbe
g9
tp5480
F1
s(Vdiscent
g9
tp5481
F1
s(Vauntient
g53
tp5482
F3
s(S','
g70
tp5483
F3
s(Vsix
S'CD'
p5484
tp5485
F7
s(Vbeggering
g58
tp5486
F1
s(Vlady
g9
tp5487
F1
s(Vmean
g41
tp5488
F3
s(g20
g477
tp5489
F1
s(Vpendant
g9
tp5490
F1
s(Vtrugges
g17
tp5491
F1
s(Vsnaft
g9
tp5492
F1
s(Vkeep
g27
tp5493
F2
s(Vbellowsmender
g41
tp5494
F1
s(VIury
g11
tp5495
F7
s(Vperboile
g27
tp5496
F1
s(Vthe
g19
tp5497
F839
s(Vleather
g15
tp5498
F2
s(g41
g363
tp5499
F1
s(Vminded
g13
tp5500
F1
s(VAske
g11
tp5501
F1
s(Vpowder
g27
tp5502
F1
s(Viudgement
g9
tp5503
F1
s(Vconuenient
g9
tp5504
F1
s(Vhats
g17
tp5505
F1
s(Vwisht
g41
tp5506
F1
s(Vvpon
g41
tp5507
F2
s(S','
g41
tp5508
F17
s(g17
g11
tp5509
F2
s(Vperle
g53
tp5510
F1
s(Vheld
g13
tp5511
F2
s(Vprouided
g13
tp5512
F1
s(Vhaue
g39
tp5513
F2
s(S','
g624
tp5514
F213
s(Vgoeth
g53
tp5515
F1
s(Vcan
g1896
tp5516
F50
s(S','
g72
tp5517
F125
s(Vshal
g53
tp5518
F2
s(Vfame
g9
tp5519
F2
s(Vliue
g41
tp5520
F1
s(Vgentlemes
g17
tp5521
F1
s(Vskipiack
g9
tp5522
F1
s(Vnature
g9
tp5523
F1
s(VFrenchefied
g39
tp5524
F1
s(g90
g9
tp5525
F15
s(Vhonourable
g53
tp5526
F2
s(Vmaisser
g41
tp5527
F1
s(Vskild
g27
tp5528
F1
s(Vboast
g8
tp5529
F1
s(Vmeant
g53
tp5530
F1
s(Vdoe
g27
tp5531
F3
s(g53
g476
tp5532
F4
s(VGlover
g11
tp5533
F1
s(Vsay
g41
tp5534
F11
s(Vauaunt
g9
tp5535
F1
s(Vpocket
g9
tp5536
F2
s(Vcleane
g9
tp5537
F2
s(VYet
g15
tp5538
F2
s(Veuery
g72
tp5539
F1
s(Voffended
g39
tp5540
F1
s(Voath
g9
tp5541
F1
s(Vsimples
g17
tp5542
F1
s(Vinquirie
g53
tp5543
F1
s(Vden
g9
tp5544
F1
s(Vresort
g41
tp5545
F1
s(Vaboue
g41
tp5546
F1
s(Vtinkar
g9
tp5547
F1
s(Vleft
g39
tp5548
F2
s(Vthee
g53
tp5549
F1
s(g41
g58
tp5550
F9
s(Vforsooth
g43
tp5551
F2
s(Vlone
g9
tp5552
F1
s(Vskie
g9
tp5553
F1
s(S')'
g58
tp5554
F1
s(Vneighbours
g53
tp5555
F1
s(Vquintessence
g9
tp5556
F1
s(Vacquainted
g39
tp5557
F2
s(Vsalutation
g9
tp5558
F1
s(VCollier
g11
tp5559
F1
s(Vrequest
g27
tp5560
F1
s(Vpaintings
g17
tp5561
F1
s(Vcast
g39
tp5562
F1
s(VIncubus
g11
tp5563
F1
s(Vafrayde
g17
tp5564
F1
s(Vhast
g9
tp5565
F3
s(Vhim
g585
tp5566
F114
s(Vis
g91
tp5567
F130
s(Vdeceitfull
g9
tp5568
F1
s(g320
g20
tp5569
F1
s(VK.
g11
tp5570
F1
s(g19
g477
tp5571
F8
s(Vwithout
S'IN'
p5572
tp5573
F18
s(g58
g90
tp5574
F2
s(Vhath
g41
tp5575
F3
s(VLet
g27
tp5576
F1
s(VClothbreeches
g17
tp5577
F3
s(Vreading
g9
tp5578
F1
s(Vallowe
g41
tp5579
F1
s(g477
g3301
tp5580
F4
s(Vyron
g9
tp5581
F1
s(Vsend
g41
tp5582
F1
s(Vmace
g9
tp5583
F1
s(VMaior
g11
tp5584
F1
s(Vleauing
g58
tp5585
F3
s(Vpatience
g9
tp5586
F1
s(Vamongst
g41
tp5587
F1
s(Vmeant
g9
tp5588
F1
s(Vdrowsie
g41
tp5589
F1
s(g281
S','
tp5590
F125
s(Vwhereas
g96
tp5591
F1
s(Valas
g9
tp5592
F2
s(Vtricke
g27
tp5593
F1
s(Vwil
g53
tp5594
F2
s(Vthese
g240
tp5595
F33
s(Vhee
g43
tp5596
F3
s(Vbene
g39
tp5597
F2
s(Vgather
g9
tp5598
F1
s(Vpacke
g9
tp5599
F1
s(VChecke
g11
tp5600
F1
s(Vnigh
g53
tp5601
F1
s(g111
g11
tp5602
F34
s(S'('
g11
tp5603
F1
s(Vmerry
g300
tp5604
F1
s(Vsalutations
g17
tp5605
F1
s(Vclownes
g17
tp5606
F2
s(g20
S','
tp5607
F14
s(Vierkin
g9
tp5608
F1
s(Vmarrie
g27
tp5609
F1
s(g87
g1391
tp5610
F3
s(VCarpenter
S'NNP'
p5611
tp5612
F1
s(Vfast
g9
tp5613
F1
s(Vmy
g375
tp5614
F81
s(VAssoon
g15
tp5615
F1
s(Vworme
g9
tp5616
F1
s(Vsergeant
g9
tp5617
F1
s(Vearnestlie
g17
tp5618
F1
s(Vfriend
g53
tp5619
F1
s(Vlookes
g17
tp5620
F4
s(Valit
g9
tp5621
F1
s(VLeaden
g11
tp5622
F1
s(Vfollie
g9
tp5623
F1
s(Vouermuch
g53
tp5624
F1
s(Vexpenses
S'NNS'
p5625
tp5626
F1
s(Vweare
g27
tp5627
F7
s(Vhandicraftes
g17
tp5628
F1
s(Vabuser
g9
tp5629
F1
s(Vrespecteth
g27
tp5630
F1
s(VEsquire
g9
tp5631
F1
s(Vcome
g9
tp5632
F1
s(Valias
g27
tp5633
F1
s(Vbeleeue
g41
tp5634
F1
s(Vsealers
g17
tp5635
F1
s(Voh
g43
tp5636
F1
s(g39
g17
tp5637
F6
s(Vadmit
g41
tp5638
F1
s(Vcounted
g39
tp5639
F1
s(Vtherevpon
g8
tp5640
F1
s(Vexecute
g27
tp5641
F2
s(Vmaruellous
g53
tp5642
F1
s(g56
g111
tp5643
F1
s(VAngell
g11
tp5644
F1
s(Vhill
g9
tp5645
F3
s(Vmetamorphosed
g39
tp5646
F1
s(Vlowe
g53
tp5647
F1
s(Vin
g256
tp5648
F294
s(Vaduantage
g9
tp5649
F1
s(Vverdicte
g9
tp5650
F1
s(Vclose
g53
tp5651
F1
s(Vcut
g13
tp5652
F2
s(Vmecanical
g53
tp5653
F1
s(Vcompasse
g9
tp5654
F3
s(Vproudelye
g9
tp5655
F1
s(g11
S'('
tp5656
F7
s(Vpore
g9
tp5657
F5
s(Vmawe
g9
tp5658
F1
s(VSignior
g53
tp5659
F1
s(Vbrawling
g58
tp5660
F1
s(g43
g8
tp5661
F33
s(Varrest
g27
tp5662
F3
s(Vtort
g9
tp5663
F1
s(g873
g53
tp5664
F295
s(VCato
g11
tp5665
F1
s(Vhath
g27
tp5666
F4
s(Vfilching
g9
tp5667
F1
s(Vsaxa
g9
tp5668
F1
s(Vbee
g41
tp5669
F2
s(Vlies
g43
tp5670
F1
s(Vmine
g27
tp5671
F1
s(Vglory
g9
tp5672
F3
s(Vmaiestrates
g17
tp5673
F1
s(Vteach
g27
tp5674
F2
s(Vdoo
g43
tp5675
F1
s(Vdere
g64
tp5676
F1
s(Vbracelets
g17
tp5677
F2
s(Vextorte
g41
tp5678
F1
s(Vours
g17
tp5679
F1
s(Vbearded
g13
tp5680
F1
s(Vstrouting
g58
tp5681
F1
s(Vsute
g9
tp5682
F2
s(Vprooue
g9
tp5683
F1
s(VTullie
g11
tp5684
F1
s(Vvnder
g8
tp5685
F2
s(Vwholeday
g9
tp5686
F1
s(Vsleights
g17
tp5687
F1
s(g498
g58
tp5688
F9
s(Vloste
g15
tp5689
F1
s(g281
S'.'
tp5690
F20
s(Vhad-
g9
tp5691
F1
s(Vrentes
g17
tp5692
F1
s(Vyoong
g53
tp5693
F13
s(Vfollies
g17
tp5694
F1
s(g111
g64
tp5695
F1
s(Veuer
g27
tp5696
F1
s(Vseekes
g17
tp5697
F1
s(Vworthy
g9
tp5698
F2
s(Vcertaine
g27
tp5699
F1
s(Varmor
g27
tp5700
F1
s(Vbreeches
g43
tp5701
F3
s(Vconsumed
g39
tp5702
F1
s(Vslauering
g9
tp5703
F1
s(g27
g15
tp5704
F28
s(g41
g45
tp5705
F3
s(Vdespised
g13
tp5706
F1
s(Vpersuaded
g13
tp5707
F1
s(S'('
g70
tp5708
F1
s(Vwelcome
g27
tp5709
F1
s(Vcontent
g9
tp5710
F3
s(Vasketh
g15
tp5711
F1
s(Vbeare
g27
tp5712
F1
s(Vseale
g9
tp5713
F2
s(Vplague
g9
tp5714
F1
s(VArchdeacons
g11
tp5715
F1
s(VApoticarie
g11
tp5716
F3
s(g17
g96
tp5717
F4
s(Vfleas
g17
tp5718
F1
s(Vdeeme
g41
tp5719
F1
s(g91
g39
tp5720
F13
s(Vpatris
g9
tp5721
F1
s(g17
g13
tp5722
F39
s(Vwomen
g5062
tp5723
F10
s(Vwarnd
g41
tp5724
F1
s(Vinconstant
g9
tp5725
F1
s(Vgrounde
g9
tp5726
F1
s(Vthinke
g41
tp5727
F2
s(Vawaye
g300
tp5728
F1
s(VCuckeulds
g11
tp5729
F1
s(Vbetwixt
g27
tp5730
F1
s(Vthose
S'DT'
p5731
tp5732
F9
s(V20
S'CD'
p5733
tp5734
F1
s(VAssoone
g15
tp5735
F2
s(Vlittle
g15
tp5736
F3
s(Vfetcht
g27
tp5737
F1
s(Vflowers
g17
tp5738
F4
s(Vneuer
g70
tp5739
F1
s(Vfurred
g53
tp5740
F1
s(Vseeme
g27
tp5741
F1
s(Vplaier
g9
tp5742
F1
s(VMalapart
g11
tp5743
F1
s(Vministerie
g9
tp5744
F1
s(VGet
g27
tp5745
F1
s(Vcompanye
g27
tp5746
F1
s(Vconuey
g27
tp5747
F1
s(g11
g477
tp5748
F13
s(Vtriacle
g9
tp5749
F1
s(Vsteale
g9
tp5750
F1
s(V?
S'.'
tp5751
F53
s(Vprickar
g9
tp5752
F1
s(Vwhisper
g27
tp5753
F1
s(Vtherefore
g8
tp5754
F2
s(Vchangde
g53
tp5755
F1
s(g365
g9
tp5756
F3
s(Vneighbourhoode
g9
tp5757
F1
s(g363
g53
tp5758
F1
s(Valmes
g17
tp5759
F5
s(Vsame
S'JJ'
p5760
tp5761
F2
s(Vforsooth
g9
tp5762
F4
s(Vcanst
g17
tp5763
F1
s(Vlack
g27
tp5764
F1
s(g107
g1391
tp5765
F3
s(g4332
S'('
tp5766
F1
s(Vprimde
g41
tp5767
F1
s(Vwaxed
g13
tp5768
F1
s(Vforced
g39
tp5769
F1
s(g17
S'('
tp5770
F4
s(Vneuer
g53
tp5771
F1
s(Vtemper
g27
tp5772
F1
s(Vprisoners
g17
tp5773
F1
s(g477
g300
tp5774
F2
s(Vsilke
g9
tp5775
F2
s(g41
g13
tp5776
F9
s(Vbalde
g9
tp5777
F1
s(Vslenderly
g53
tp5778
F1
s(Vmorts
g17
tp5779
F1
s(Vtheyr
g9
tp5780
F2
s(Vwomens
g17
tp5781
F1
s(Vstill
S'RB'
p5782
tp5783
F2
s(Vneed
g41
tp5784
F3
s(Vsuch
g300
tp5785
F5
s(Vformicarum
g9
tp5786
F1
s(Vmerry
g9
tp5787
F1
s(Vcommence
g27
tp5788
F1
s(VIupiter
g11
tp5789
F1
s(Vpromising
g58
tp5790
F1
s(VLord
g11
tp5791
F3
s(Vdropsie
g9
tp5792
F1
s(Vpaiment
g9
tp5793
F1
s(Vwaspishe
g9
tp5794
F1
s(Vamongest
g58
tp5795
F1
s(Vsunday
g9
tp5796
F1
s(Vvalueth
g43
tp5797
F1
s(Vserieant
g9
tp5798
F1
s(g1150
g11
tp5799
F10
s(VBe
g11
tp5800
F1
s(Vfourtye
g53
tp5801
F1
s(Vhalfe
g39
tp5802
F1
s(Vhastilie
g9
tp5803
F1
s(g8
g27
tp5804
F1
s(g13
S'WRB'
p5805
tp5806
F4
s(Vfayth
g53
tp5807
F2
s(Vfooted
g39
tp5808
F1
s(Venough
g15
tp5809
F2
s(g9
g13
tp5810
F101
s(Vwilfully
g15
tp5811
F1
s(Vlitle
g53
tp5812
F1
s(Vsees
g43
tp5813
F1
s(VShirifs
g11
tp5814
F1
s(S')'
g477
tp5815
F2
s(Vyea
g9
tp5816
F5
s(Vheard
g58
tp5817
F1
s(Vsortes
g17
tp5818
F1
s(VMartin
g11
tp5819
F1
s(Vwrite
g27
tp5820
F1
s(Vwash
g27
tp5821
F2
s(VCalabria
g11
tp5822
F1
s(Vhuge
S'JJ'
p5823
tp5824
F1
s(Vdumpe
g9
tp5825
F1
s(Vspot
g9
tp5826
F1
s(Vway
S'NN'
p5827
tp5828
F7
s(Vhauocke
g13
tp5829
F1
s(Vpompilius
g9
tp5830
F1
s(VDraper
g11
tp5831
F2
s(Vhalfpeny
g9
tp5832
F1
s(Vbribar
g9
tp5833
F1
s(Vdied
g13
tp5834
F2
s(g9
g107
tp5835
F185
s(Vindebted
g39
tp5836
F1
s(Vyearelie
g43
tp5837
F1
s(Vseene
g27
tp5838
F1
s(Vhowe
g27
tp5839
F1
s(Vliuing
g58
tp5840
F1
s(Vpreuented
g39
tp5841
F1
s(g1391
g281
tp5842
F1
s(g663
g9
tp5843
F2
s(Vvpon
g8
tp5844
F26
s(Vconcele
g27
tp5845
F1
s(Vrare
g53
tp5846
F2
s(Vdefence
g9
tp5847
F1
s(Vdiscarding
g9
tp5848
F1
s(g8
g3167
tp5849
F7
s(Vdregges
g17
tp5850
F1
s(VButcher
g11
tp5851
F4
s(Vpriest
g9
tp5852
F2
s(g8
g477
tp5853
F23
s(Vdoo
g9
tp5854
F3
s(Vproude
g15
tp5855
F1
s(Vproud
g53
tp5856
F11
s(Vappoynted
g13
tp5857
F1
s(Vfolies
g17
tp5858
F1
s(Vsupper
g9
tp5859
F1
s(Vdie
g9
tp5860
F2
s(Vartificiall
g9
tp5861
F1
s(Vreadye
g39
tp5862
F1
s(Vfoppe
g53
tp5863
F1
s(Vthimble
g53
tp5864
F1
s(Vrapier
g45
tp5865
F1
s(Vdifference
S'NN'
p5866
tp5867
F1
s(Vbeggars
g17
tp5868
F1
s(Vsithe
g53
tp5869
F2
s(Vsent
g39
tp5870
F1
s(Vdeale
g41
tp5871
F1
s(S','
g45
tp5872
F2
s(g15
S'.'
tp5873
F14
s(g498
g11
tp5874
F216
s(VHonos
g11
tp5875
F1
s(Vanie
g53
tp5876
F1
s(Vwarne
g27
tp5877
F1
s(VItalian
g53
tp5878
F3
s(Vnothing
S'NN'
p5879
tp5880
F4
s(Vexempts
g17
tp5881
F1
s(g332
g5106
tp5882
F3
s(Vintertein
g9
tp5883
F1
s(Vdrunkennesse
g9
tp5884
F2
s(Vbeste
g9
tp5885
F1
s(Vitcheth
g43
tp5886
F1
s(Voddes
g17
tp5887
F1
s(g64
g5062
tp5888
F1
s(Vouer
g43
tp5889
F1
s(Vwantonly
g15
tp5890
F1
s(Vsweete
g53
tp5891
F1
s(Vpublike
g53
tp5892
F2
s(Vseame
g27
tp5893
F1
s(Vhast
g13
tp5894
F1
s(Vsits
g43
tp5895
F1
s(Vcutte
g27
tp5896
F1
s(Vdwel
g41
tp5897
F1
s(Vbare
g53
tp5898
F1
s(Vabroade
g9
tp5899
F1
s(Vscarse
g27
tp5900
F1
s(Vbewtie
g9
tp5901
F1
s(Vhome
g9
tp5902
F6
s(Vblinds
g17
tp5903
F1
s(Vsodden
g53
tp5904
F1
s(Vrecreat
g27
tp5905
F1
s(VDoctors
g56
tp5906
F1
s(Vcloke
g9
tp5907
F4
s(Vholy
g53
tp5908
F2
s(Vmerit
g15
tp5909
F1
s(g2209
g281
tp5910
F17
s(g873
g100
tp5911
F3
s(Vgouernement
g9
tp5912
F1
s(Vowne
g9
tp5913
F9
s(Vcontrarie
g17
tp5914
F1
s(Vand
g111
tp5915
F698
s(Vgetteth
g43
tp5916
F1
s(S')'
g300
tp5917
F1
s(Vpot
g9
tp5918
F2
s(Vsimplenesse
g9
tp5919
F1
s(Vvnborne
g9
tp5920
F1
s(Vmacressit
g9
tp5921
F1
s(Vscorned
g13
tp5922
F1
s(Vfurther
g53
tp5923
F1
s(g27
g58
tp5924
F8
s(Vpasse
g9
tp5925
F2
s(Vpurse
g9
tp5926
F2
s(Vguire
g9
tp5927
F1
s(Vtaw
g41
tp5928
F1
s(VHides
g11
tp5929
F1
s(Vcost
g9
tp5930
F3
s(Vpawn
g9
tp5931
F1
s(Vpraises
g17
tp5932
F1
s(Vsquare
g9
tp5933
F1
s(Vmittigated
g39
tp5934
F1
s(Vwalketh
g43
tp5935
F1
s(VTenne
g11
tp5936
F1
s(Vgather
g27
tp5937
F2
s(Vcrue
g9
tp5938
F5
s(VKersie
g11
tp5939
F1
s(g711
g70
tp5940
F1
s(Vshomaker
g9
tp5941
F1
s(Vseuen
g53
tp5942
F1
s(Vinuectiue
g9
tp5943
F1
s(Vdriue
g41
tp5944
F1
s(Vbest
g20
tp5945
F6
s(VTake
g27
tp5946
F1
s(g41
g20
tp5947
F2
s(Vheare
g41
tp5948
F1
s(VBurgesses
g11
tp5949
F1
s(Veighteene
g9
tp5950
F1
s(Vpretiously
g15
tp5951
F1
s(Vstay
g27
tp5952
F1
s(Vcomplaints
g17
tp5953
F1
s(Voxe
g9
tp5954
F1
s(V(
S'('
tp5955
F29
s(g585
g477
tp5956
F41
s(Vtrug
g9
tp5957
F2
s(Veuente
g27
tp5958
F1
s(VProud
g11
tp5959
F1
s(Vcurteous
g53
tp5960
F1
s(Vstate
S'NN'
p5961
tp5962
F1
s(Vpaltry
g27
tp5963
F1
s(Vbayard
g9
tp5964
F1
s(g5805
g3232
tp5965
F3
s(Vback
g15
tp5966
F1
s(Vthing
g3420
tp5967
F3
s(Vvnlesse
g70
tp5968
F1
s(Vdeeper
g9
tp5969
F1
s(Vreuenewes
g9
tp5970
F1
s(VBay
g11
tp5971
F1
s(Vwatcheth
g43
tp5972
F1
s(g524
g56
tp5973
F1
s(Vchargeable
g9
tp5974
F1
s(g1150
g823
tp5975
F7
s(Vboord
g9
tp5976
F1
s(VAs
g8
tp5977
F9
s(Vtil
g9
tp5978
F4
s(VMarrye
g11
tp5979
F1
s(Vact
g27
tp5980
F1
s(Vfauour
g41
tp5981
F1
s(Vgluttons
g17
tp5982
F1
s(S':'
g111
tp5983
F29
s(Vpay
g9
tp5984
F2
s(g27
g9
tp5985
F81
s(Vfirst
g53
tp5986
F13
s(Vlower
g45
tp5987
F1
s(Voldman
g9
tp5988
F1
s(Vwitted
g13
tp5989
F2
s(Vsoldier
g45
tp5990
F1
s(g72
g91
tp5991
F9
s(VToledo
g11
tp5992
F1
s(Vstars
g17
tp5993
F1
s(Vgentlewoman
g9
tp5994
F1
s(g90
g96
tp5995
F1
s(Vfortunee
g9
tp5996
F1
s(Vspared
g13
tp5997
F1
s(Vpedigree
g9
tp5998
F1
s(Vprinckocks
g17
tp5999
F1
s(g1561
g363
tp6000
F1
s(Vcrownes
g17
tp6001
F1
s(Vfellowes
g43
tp6002
F1
s(Vone
g9
tp6003
F4
s(Vexclaime
g15
tp6004
F1
s(Vknowne
g9
tp6005
F1
s(Vomit
g41
tp6006
F2
s(Vquaintly
g15
tp6007
F2
s(Vsmild
g9
tp6008
F1
s(Vspecial
g53
tp6009
F1
s(Vwil
g41
tp6010
F6
s(Vliberall
g53
tp6011
F1
s(Vforfeite
g9
tp6012
F1
s(g41
S'.'
tp6013
F5
s(Vwel
g9
tp6014
F4
s(Vwarrior
g9
tp6015
F1
s(Vvppe
g53
tp6016
F1
s(Vfie
g9
tp6017
F2
s(VGreenwood
g11
tp6018
F1
s(Vlearning
g58
tp6019
F1
s(Vneyther
g106
tp6020
F2
s(Vlaid
g39
tp6021
F1
s(Vpunish
g27
tp6022
F2
s(g271
g300
tp6023
F2
s(Vthis
g873
tp6024
F71
s(VCircum
g11
tp6025
F1
s(Vremorse
g9
tp6026
F2
s(Vgrew
g3635
tp6027
F8
s(Vrhethoricke
g9
tp6028
F1
s(Vincountred
g13
tp6029
F1
s(Vthought
g13
tp6030
F5
s(Vneighbors
g17
tp6031
F2
s(Vstumbled
g13
tp6032
F1
s(g11
g70
tp6033
F1
s(Vbould
g53
tp6034
F1
s(Vfrequent
g41
tp6035
F1
s(Vaduanced
g39
tp6036
F1
s(Vaimed
g39
tp6037
F1
s(Vgowns
g17
tp6038
F1
s(Vostlers
g17
tp6039
F1
s(g17
g72
tp6040
F13
s(Vit
g281
tp6041
F156
s(Vpull
g27
tp6042
F1
s(Vstone
g9
tp6043
F1
s(Vdrie
g9
tp6044
F1
s(Vanswerable
g53
tp6045
F1
s(g9
g2899
tp6046
F12
s(Vtruly
g15
tp6047
F1
s(Vcompanies
S'NNS'
p6048
tp6049
F1
s(Vdoe
g9
tp6050
F2
s(Vlands
g17
tp6051
F3
s(VMartins
g11
tp6052
F1
s(Veight
S'CD'
p6053
tp6054
F3
s(Vbeaten
g9
tp6055
F2
s(Vinferd
g27
tp6056
F1
s(Vwast
g53
tp6057
F1
s(Vbeene
g53
tp6058
F1
s(Vneighbours
g17
tp6059
F4
s(Vforce
g27
tp6060
F2
s(Vspeed
g9
tp6061
F1
s(Vthrough
g8
tp6062
F5
s(Vweepe
g41
tp6063
F1
s(g11
g625
tp6064
F4
s(Vnappe
g9
tp6065
F1
s(Vfeed
g27
tp6066
F1
s(g326
g64
tp6067
F1
s(Vexcept
g8
tp6068
F1
s(VEnglish
g53
tp6069
F3
s(S')'
g2394
tp6070
F4
s(Vsubstantiall
g9
tp6071
F1
s(Vsell
g27
tp6072
F6
s(Vhollande
g9
tp6073
F1
s(g496
g15
tp6074
F49
s(VNo
g72
tp6075
F3
s(Vtunning
g9
tp6076
F1
s(Vfatall
g53
tp6077
F1
s(Veaten
g13
tp6078
F1
s(Vclarke
g9
tp6079
F1
s(Vexpirde
g53
tp6080
F1
s(g186
g479
tp6081
F6
s(Vbeeing
g58
tp6082
F4
s(Vweigh
g27
tp6083
F1
s(Vwaye
g9
tp6084
F1
s(Vcut
g27
tp6085
F1
s(Vthat
g72
tp6086
F45
s(Vhoure
g9
tp6087
F1
s(Vsmith
g9
tp6088
F1
s(Vbegotten
g39
tp6089
F1
s(Vsonne
g9
tp6090
F6
s(Vbacke
g9
tp6091
F3
s(Vsildom
g9
tp6092
F1
s(Vbeare
g41
tp6093
F1
s(Vlike
g17
tp6094
F1
s(Vinformer
g9
tp6095
F5
s(S','
g20
tp6096
F2
s(VAstrological
g53
tp6097
F1
s(g823
g19
tp6098
F4
s(Vpenaltie
g9
tp6099
F2
s(g72
g1398
tp6100
F101
s(g332
g56
tp6101
F1
s(Vdarest
g20
tp6102
F1
s(Vbutcher
g9
tp6103
F2
s(Vlewd
g9
tp6104
F1
s(Vcare
g9
tp6105
F2
s(Vneed
g9
tp6106
F1
s(g363
g477
tp6107
F2
s(Vpractised
g13
tp6108
F1
s(g9
g912
tp6109
F17
s(Valone
g15
tp6110
F3
s(Vdressing
g9
tp6111
F1
s(Vwisheth
g27
tp6112
F1
s(Vsolam
g9
tp6113
F1
s(Vquoth
g13
tp6114
F1
s(Vmar-tooles
g17
tp6115
F1
s(Vqualitie
g9
tp6116
F1
s(Vbeere
g9
tp6117
F3
s(Vforestalleth
g43
tp6118
F1
s(VCutler
g11
tp6119
F2
s(Vtis
g43
tp6120
F1
s(Vtimes
g17
tp6121
F2
s(Vduties
g17
tp6122
F1
s(Vproudly
g15
tp6123
F3
s(Vfaint
g9
tp6124
F1
s(Vvsher
g45
tp6125
F1
s(Vshew
g9
tp6126
F3
s(Vwant
g41
tp6127
F4
s(Vcompanion
g9
tp6128
F1
s(Vprooue
g27
tp6129
F1
s(Vright
g9
tp6130
F3
s(Vthy
g53
tp6131
F15
s(Vwasht
g27
tp6132
F1
s(g53
g375
tp6133
F4
s(Vacquainted
g53
tp6134
F1
s(Vquestion
g9
tp6135
F4
s(Vapron
g9
tp6136
F1
s(VNay
g11
tp6137
F5
s(Vconfusion
g9
tp6138
F1
s(Vfeede
g41
tp6139
F1
s(Vquestiond
g41
tp6140
F3
s(Vcraftilyer
g9
tp6141
F1
s(Vamiable
g53
tp6142
F1
s(Vpaper
S'NN'
p6143
tp6144
F2
s(Vbehinde
g53
tp6145
F1
s(VTantalus
g11
tp6146
F1
s(Vdishonourable
g53
tp6147
F1
s(Vforget
g27
tp6148
F1
s(Vsaylor
g9
tp6149
F1
s(VHarts
g11
tp6150
F1
s(Vapparell
g9
tp6151
F11
s(Vdisease
g9
tp6152
F1
s(Vsuffers
g17
tp6153
F1
s(g625
g53
tp6154
F61
s(VPewterer
g11
tp6155
F1
s(Vwhorehouses
g17
tp6156
F1
s(Vtrespas
g39
tp6157
F1
s(Vlikewise
g27
tp6158
F1
s(VCycuratus
g11
tp6159
F1
s(Vruffe
g9
tp6160
F2
s(Vwilling
S'JJ'
p6161
tp6162
F3
s(Vsake
g9
tp6163
F1
s(Vpert
g9
tp6164
F1
s(Vphysicke
g9
tp6165
F1
s(VTruly
g11
tp6166
F1
s(Vknaueries
g17
tp6167
F3
s(g90
g2394
tp6168
F15
s(Vdooth
g27
tp6169
F1
s(Vplaced
g39
tp6170
F1
s(VIohn
g11
tp6171
F4
s(g91
S'('
tp6172
F1
s(Vknew
g17
tp6173
F1
s(Vhungrie
g15
tp6174
F1
s(Vwas
g13
tp6175
F99
s(Vcarrie
g53
tp6176
F1
s(Vthither
g15
tp6177
F1
s(Vvanities
g17
tp6178
F1
s(Vdeuotion
g9
tp6179
F2
s(Vsayde
g43
tp6180
F1
s(Vhast
g22
tp6181
F1
s(Vwhy
g5805
tp6182
F12
s(Vdoo
g27
tp6183
F1
s(Voutwarde
g27
tp6184
F1
s(Vmerchants
g17
tp6185
F1
s(Vtrier
g9
tp6186
F1
s(Vcring
g58
tp6187
F1
s(Vreuersios
g17
tp6188
F1
s(g43
g41
tp6189
F2
s(Vdearth
g9
tp6190
F1
s(g477
g827
tp6191
F21
s(Vforfeitures
g17
tp6192
F1
s(Vwelt
g9
tp6193
F1
s(Vchurlish
g53
tp6194
F1
s(Vfind
g9
tp6195
F1
s(Vbeard
g9
tp6196
F2
s(Vfares
g17
tp6197
F1
s(g91
S','
tp6198
F10
s(Vqueasie
g41
tp6199
F1
s(Vrefined
g39
tp6200
F1
s(VBut
g1193
tp6201
F16
s(Vinferred
g53
tp6202
F1
s(Vvndooeth
g41
tp6203
F1
s(g186
g15
tp6204
F1
s(VChandlers
g11
tp6205
F1
s(Vgolden
S'JJ'
p6206
tp6207
F2
s(Vmast
g41
tp6208
F1
s(Vflourished
g39
tp6209
F2
s(Vam
S'VBP'
p6210
tp6211
F26
s(Vcompassing
g58
tp6212
F1
s(Vleast
g20
tp6213
F8
s(Vraiseth
g43
tp6214
F1
s(Vbewraies
g17
tp6215
F1
s(Vsmel
g27
tp6216
F1
s(g300
g19
tp6217
F21
s(Vprefermente
g9
tp6218
F1
s(g496
g106
tp6219
F2
s(VMarry
g11
tp6220
F5
s(Vcoosenage
g9
tp6221
F3
s(Vland
g9
tp6222
F7
s(VKent
g11
tp6223
F1
s(Vodde
g9
tp6224
F1
s(VSpiritus
g11
tp6225
F1
s(g43
g70
tp6226
F1
s(Vwhereas
g8
tp6227
F4
s(g9
g43
tp6228
F76
s(Vvision
g9
tp6229
F1
s(Vtoward
S'IN'
p6230
tp6231
F1
s(Vshoo
g9
tp6232
F3
s(Venimy
g9
tp6233
F1
s(g27
g90
tp6234
F6
s(Vsir
g41
tp6235
F2
s(VCityzens
g17
tp6236
F1
s(Veuen
g9
tp6237
F1
s(Vouer
g9
tp6238
F5
s(Vvnwillingly
g15
tp6239
F1
s(Vexcrements
g17
tp6240
F1
s(Vworke
g9
tp6241
F2
s(Vexcellently
g15
tp6242
F1
s(Vhide
g53
tp6243
F1
s(S','
g43
tp6244
F24
s(Vdapper
g9
tp6245
F1
s(Vthou
g43
tp6246
F2
s(Vonly
g15
tp6247
F16
s(Vtrue
g1094
tp6248
F6
s(g873
g271
tp6249
F2
s(Vload
g9
tp6250
F1
s(Vcattell
g9
tp6251
F2
s(Vhindrance
g9
tp6252
F1
s(Vcontented
g53
tp6253
F1
s(Vas
g15
tp6254
F29
s(Vsmooth
g9
tp6255
F1
s(S')'
g13
tp6256
F1
s(Vtoies
g43
tp6257
F1
s.