ccollections
defaultdict
p1
(c__builtin__
float
p2
tRp3
(Vhath
S'NN'
p4
tp5
F1
s(V,
S','
tp6
F32
s(Vsome
S'DT'
p7
tp8
F4
s(S'IN'
p9
S'PRP'
p10
tp11
F1
s(Vdoo
g4
tp12
F1
s(Vconstancie
g4
tp13
F1
s(Vease
g4
tp14
F1
s(S'VBN'
p15
S'DT'
p16
tp17
F1
s(Vvvith
g4
tp18
F1
s(S'MD'
p19
S'.'
tp20
F1
s(VVenus
S'NNP'
p21
tp22
F2
s(S'CD'
p23
g4
tp24
F1
s(S'RB'
p25
S'VB'
p26
tp27
F2
s(Vlove
S'JJ'
p28
tp29
F1
s(Vvvoonder
g4
tp30
F1
s(Vvvherewith
g4
tp31
F2
s(g9
g4
tp32
F13
s(g15
g21
tp33
F1
s(S'VBZ'
p34
S'CC'
p35
tp36
F1
s(S':'
S'RB'
p37
tp38
F2
s(Vall
S'DT'
p39
tp40
F1
s(Vbootles
S'NNS'
p41
tp42
F1
s(g41
S'PRP'
p43
tp44
F1
s(g23
S','
tp45
F1
s(g23
S'IN'
p46
tp47
F1
s(VPoems
S'NNPS'
p48
tp49
F1
s(Vhonoar
S'RB'
p50
tp51
F1
s(Vboote
g4
tp52
F1
s(Vall
S'PDT'
p53
tp54
F1
s(Vin
g46
tp55
F3
s(Vhonestie
g4
tp56
F1
s(Vpoisoned
g15
tp57
F1
s(Vmurtherer
g4
tp58
F1
s(g41
S'.'
tp59
F1
s(Vshape
g4
tp60
F1
s(g4
S'IN'
p61
tp62
F16
s(g26
g10
tp63
F1
s(g4
S','
tp64
F14
s(g50
g53
tp65
F1
s(S'VBP'
p66
g9
tp67
F2
s(Vlike
g9
tp68
F1
s(Vnature
g4
tp69
F1
s(Vhonney
g4
tp70
F1
s(Vviolence
g4
tp71
F1
s(VIf
S'IN'
p72
tp73
F1
s(S'PRP'
p74
S'WDT'
p75
tp76
F1
s(S','
g9
tp77
F4
s(Va
S'DT'
p78
tp79
F5
s(g50
S'JJR'
p80
tp81
F1
s(g4
g4
tp82
F16
s(Vshee
g15
tp83
F1
s(Vimage
S'NN'
p84
tp85
F1
s(Vtyrant
g4
tp86
F1
s(g34
g4
tp87
F1
s(g50
S','
tp88
F3
s(g21
S'.'
tp89
F2
s(g7
g21
tp90
F5
s(S'VB'
p91
S','
tp92
F2
s(S','
S'FW'
p93
tp94
F1
s(Vif
S'IN'
p95
tp96
F1
s(Vnot
g25
tp97
F5
s(S':'
S'CC'
p98
tp99
F2
s(g16
g15
tp100
F1
s(Vthou
g4
tp101
F2
s(Vfarre
g50
tp102
F1
s(S'DT'
p103
S','
tp104
F1
s(Vtake
g66
tp105
F1
s(Vthat
g75
tp106
F1
s(Vheavenlie
g28
tp107
F1
s(Voracle
g4
tp108
F1
s(Vhave
g26
tp109
F1
s(g19
g25
tp110
F3
s(VLadies
g41
tp111
F1
s(Vthese
S'DT'
p112
tp113
F2
s(Vtherefore
g50
tp114
F1
s(g10
S'MD'
p115
tp116
F4
s(g78
S'JJ'
p117
tp118
F2
s(Voccasion
g4
tp119
F1
s(Vhim
g74
tp120
F1
s(Vis
S'VBZ'
p121
tp122
F4
s(Vit
g10
tp123
F6
s(g15
g4
tp124
F2
s(Vtoo
S'RB'
p125
tp126
F1
s(Vcommende
g66
tp127
F1
s(Vmore
g80
tp128
F1
s(Vvvhat
g9
tp129
F1
s(g21
g9
tp130
F2
s(g41
S':'
tp131
F4
s(Vcourtesie
g4
tp132
F1
s(Vsmall
S'JJ'
p133
tp134
F1
s(Vsuch
g28
tp135
F1
s(V.
S'.'
tp136
F4
s(S':'
g28
tp137
F2
s(Vchange
g4
tp138
F1
s(S','
g25
tp139
F2
s(Vhis
S'PRP$'
p140
tp141
F1
s(Vbastard
g4
tp142
F1
s(Vsighes
g41
tp143
F1
s(S'CC'
p144
g9
tp145
F2
s(g21
g84
tp146
F1
s(g10
g91
tp147
F1
s(S'VBD'
p148
g4
tp149
F1
s(Vheede
g4
tp150
F1
s(Venemie
g4
tp151
F1
s(S'JJS'
p152
g4
tp153
F1
s(Vfrom
S'IN'
p154
tp155
F1
s(g26
S':'
tp156
F2
s(Vbee
g26
tp157
F2
s(g37
g4
tp158
F1
s(VLove
g21
tp159
F2
s(Vmuse
g4
tp160
F1
s(Vvvorthie
g4
tp161
F1
s(VThis
S'DT'
p162
tp163
F1
s(g162
g121
tp164
F1
s(Vassurance
g4
tp165
F1
s(Vtemple
g4
tp166
F1
s(Vwhose
S'WP$'
p167
tp168
F1
s(Vchaste
g4
tp169
F1
s(g133
S','
tp170
F2
s(Vthe
g16
tp171
F10
s(Vvvorld
g4
tp172
F1
s(Vvvhich
g66
tp173
F1
s(VI
g43
tp174
F6
s(S','
g43
tp175
F1
s(Vwill
g19
tp176
F1
s(g21
S':'
tp177
F2
s(Vmy
S'PRP$'
p178
tp179
F2
s(g48
S':'
tp180
F1
s(g28
g4
tp181
F7
s(Vspoile
g4
tp182
F1
s(g121
g28
tp183
F1
s(S','
g28
tp184
F1
s(Vought
g19
tp185
F1
s(Vinjuriouslie
g4
tp186
F1
s(g140
g41
tp187
F1
s(Vor
S'CC'
p188
tp189
F2
s(g4
g21
tp190
F3
s(Vvulgare
g4
tp191
F1
s(Vminde
g4
tp192
F1
s(g66
g15
tp193
F2
s(g26
S'PRP$'
p194
tp195
F2
s(g112
g48
tp196
F1
s(Vunder
S'IN'
p197
tp198
F1
s(Vvvere
g50
tp199
F2
s(g115
g91
tp200
F4
s(Vcourtizan
g4
tp201
F1
s(Vprecisest
g4
tp202
F1
s(Vfound
g148
tp203
F1
s(VLearnings
g21
tp204
F1
s(VMOLLINEVX
g21
tp205
F1
s(Vvvhich
g93
tp206
F1
s(V;
S':'
tp207
F3
s(VBut
g98
tp208
F1
s(Vmake
g26
tp209
F1
s(Vas
g9
tp210
F4
s(Vhead
g4
tp211
F1
s(Vthou
g15
tp212
F2
s(Vkinduesse
g41
tp213
F1
s(g66
g4
tp214
F1
s(g121
S','
tp215
F1
s(Vperhaps
S'RB'
p216
tp217
F1
s(g9
g50
tp218
F1
s(g178
g21
tp219
F1
s(g16
g41
tp220
F3
s(S':'
g15
tp221
F2
s(VThue
g21
tp222
F1
s(Vleast
g152
tp223
F1
s(g91
g15
tp224
F1
s(g21
S','
tp225
F3
s(VLadie
g21
tp226
F1
s(Vvertues
g41
tp227
F1
s(g15
g121
tp228
F1
s(Vpittie
g4
tp229
F1
s(Vconceit
g4
tp230
F2
s(Vsonne
g34
tp231
F1
s(Vone
g23
tp232
F3
s(Vsatisfied
g28
tp233
F1
s(Vvvoondering
g4
tp234
F1
s(g144
g50
tp235
F3
s(g80
S'IN'
p236
tp237
F1
s(g75
g34
tp238
F1
s(Vmislike
g26
tp239
F1
s(Vno
g39
tp240
F1
s(g125
g133
tp241
F1
s(Vmonarch
g4
tp242
F1
s(Vfavours
g41
tp243
F1
s(g148
S'TO'
p244
tp245
F1
s(Vpoemes
g41
tp246
F1
s(Vnor
S'CC'
p247
tp248
F1
s(Vlies
g41
tp249
F1
s(Vof
S'IN'
p250
tp251
F13
s(Vcruell
g4
tp252
F1
s(Vby
g61
tp253
F3
s(g21
g39
tp254
F1
s(g28
g41
tp255
F1
s(S':'
g10
tp256
F3
s(Vand
g144
tp257
F7
s(g25
g21
tp258
F2
s(g35
g16
tp259
F5
s(Vvvord
g4
tp260
F1
s(VPatronesse
g21
tp261
F1
s(g15
g9
tp262
F3
s(Vperson
S'NN'
p263
tp264
F1
s(V:
S':'
tp265
F22
s(Vbeloved
g15
tp266
F1
s(Vmade
g15
tp267
F1
s(Vcan
S'MD'
p268
tp269
F1
s(Vordinarie
g4
tp270
F1
s(S','
g78
tp271
F3
s(VDiana
g21
tp272
F1
s(Verre
g4
tp273
F1
s(Vchaste
g15
tp274
F1
s(Vher
g194
tp275
F1
s(Vthis
g103
tp276
F1
s(Vprison
g4
tp277
F1
s(g26
g78
tp278
F4
s(Vto
g244
tp279
F2
s(Verrour
g4
tp280
F1
s(Vhappie
g4
tp281
F1
s(Vadmiration
g4
tp282
F1
s(g4
g148
tp283
F2
s(Vlove
g4
tp284
F3
s(Vcommon
g117
tp285
F1
s(Voffered
g148
tp286
F1
s(g46
g28
tp287
F1
s(Vfurious
g28
tp288
F1
s(S':'
g4
tp289
F14
s(VColledge
g21
tp290
F1
s(S','
g4
tp291
F6
s(g250
g16
tp292
F8
s(S'('
g21
tp293
F1
s(g41
g15
tp294
F1
s(Vat
S'IN'
p295
tp296
F2
s(S'IN'
p297
g167
tp298
F1
s(g16
g152
tp299
F1
s(Vhonoured
g15
tp300
F1
s(Vhave
g66
tp301
F2
s(g21
S')'
tp302
F1
s(g144
g28
tp303
F1
s(g50
g125
tp304
F1
s(Vnothing
S'NN'
p305
tp306
F2
s(g263
g19
tp307
F3
s(g121
g78
tp308
F1
s(Vthat
g9
tp309
F3
s(V)
S')'
tp310
F1
s(g144
g26
tp311
F1
s(g194
g244
tp312
F1
s(g4
g50
tp313
F2
s(VMinerva
g21
tp314
F1
s(Vmade
g148
tp315
F1
s(Vtrueth
g4
tp316
F1
s(g148
g295
tp317
F1
s(g41
g4
tp318
F1
s(g21
g21
tp319
F1
s(Vfairer
g4
tp320
F1
s(g121
g21
tp321
F1
s(Vmeane
g66
tp322
F1
s(g35
g140
tp323
F1
s(Vname
g4
tp324
F1
s(VLICIA
g21
tp325
F2
s(g41
g250
tp326
F1
s(Vvvay
g4
tp327
F1
s(Vfarre
g4
tp328
F2
s(Vvoorthie
g4
tp329
F1
s(V(
S'('
tp330
F1
s(g244
g26
tp331
F2
s(S','
g144
tp332
F10
s(g53
g16
tp333
F1
s(Vthan
g236
tp334
F1
s(Vfaith
g4
tp335
F1
s(Vthanke
g26
tp336
F1
s(g43
g148
tp337
F1
s(Vvvith
g28
tp338
F1
s(Van
g39
tp339
F1
s(Vknowe
g66
tp340
F1
s(Vbe
g91
tp341
F4
s(Vvvhatsoever
g4
tp342
F1
s(g178
g4
tp343
F1
s(Vportende
g28
tp344
F1
s(VReader
g21
tp345
F1
s(Vbase
g4
tp346
F1
s(VIt
S'PRP'
p347
tp348
F1
s(g21
S'('
tp349
F1
s(Vtake
g26
tp350
F2
s(Vthousandes
g41
tp351
F1
s(g247
g268
tp352
F1
s(S')'
g66
tp353
F1
s(Vkinde
g4
tp354
F1
s(S','
g26
tp355
F2
s(g9
g23
tp356
F2
s(S','
g121
tp357
F1
s(g4
S':'
tp358
F16
s(g50
g41
tp359
F1
s(Vthus
g37
tp360
F1
s(g72
g15
tp361
F2
s(Vhonour
g4
tp362
F1
s(Vvvithout
g4
tp363
F1
s(g35
g23
tp364
F1
s(Vinconstancie
g4
tp365
F1
s(Vloves
g34
tp366
F1
s(g305
g35
tp367
F2
s(Vmay
g115
tp368
F5
s(Vvvoorthinesse
g4
tp369
F1
s(S','
g66
tp370
F1
s(Vheartes
g41
tp371
F1
s(g10
S','
tp372
F2
s(g66
g78
tp373
F2
s(g15
S','
tp374
F1
s(g4
g43
tp375
F4
s(VDiscipline
g21
tp376
F1
s(g4
g28
tp377
F1
s(Vfedde
g4
tp378
F1
s(Vrespecting
g4
tp379
F2
s(Vvvhich
g4
tp380
F1
s(Vasteeme
g50
tp381
F1
s(g43
g66
tp382
F5
s(Vfor
g297
tp383
F1
s(g93
g43
tp384
F1
s(g216
g197
tp385
F1
s(Vthat
g39
tp386
F1
s(Vyet
S'CC'
p387
tp388
F1
s(Vimpudant
g28
tp389
F1
s(g250
g41
tp390
F5
s(g9
g61
tp391
F1
s(g9
g178
tp392
F1
s(Vtears
g41
tp393
F1
s(Vmonster
g4
tp394
F1
s(Vshadowed
g15
tp395
F1
s(g21
g34
tp396
F2
s(g41
S','
tp397
F2
s(Vtreason
g4
tp398
F1
s(g16
g4
tp399
F12
s(Vbut
g35
tp400
F3
s.