ccollections
defaultdict
p1
(c__builtin__
float
p2
tRp3
(S'CC'
p4
S'RBR'
p5
tp6
F2
s(Vwe
S'PRP'
p7
tp8
F2
s(S'NNP'
p9
S'.'
tp10
F6
s(S'IN'
p11
S'WDT'
p12
tp13
F1
s(Vpast
S'RB'
p14
tp15
F1
s(VRetribution
g9
tp16
F1
s(S'VB'
p17
S'.'
tp18
F1
s(Vsensible
S'JJ'
p19
tp20
F1
s(S'IN'
p21
S'NN'
p22
tp23
F15
s(Vendueth
S'VBD'
p24
tp25
F1
s(VHistory
g9
tp26
F2
s(Vman
S'NN'
p27
tp28
F2
s(g4
S'JJR'
p29
tp30
F2
s(VNARRATIVE
g9
tp31
F2
s(VPollicy
g9
tp32
F1
s(Vthought
S'VBN'
p33
tp34
F1
s(Vsharpe
g19
tp35
F1
s(Vfelicitie
g22
tp36
F1
s(S'NNS'
p37
S'.'
tp38
F2
s(g24
g9
tp39
F2
s(Vvse
g22
tp40
F4
s(VMagnitude
g9
tp41
F1
s(S','
g11
tp42
F15
s(S','
g29
tp43
F1
s(g22
g22
tp44
F4
s(VLoue
g9
tp45
F1
s(S'WP'
p46
S'MD'
p47
tp48
F1
s(Vshewes
g22
tp49
F1
s(S'DT'
p50
g9
tp51
F15
s(Vknowe
g17
tp52
F1
s(S','
g24
tp53
F5
s(Vbarbarous
g19
tp54
F1
s(Vagainst
S'IN'
p55
tp56
F1
s(VIustice
g9
tp57
F1
s(Vconferreth
g22
tp58
F1
s(Vtherefore
g14
tp59
F2
s(S','
S'WRB'
p60
tp61
F1
s(Vhaue
S'VBZ'
p62
tp63
F1
s(Vpleasure
g22
tp64
F1
s(Veducation
g22
tp65
F1
s(VParabolical
g9
tp66
F1
s(g62
S'NNPS'
p67
tp68
F1
s(Vinterchanged
g33
tp69
F1
s(Vsubtile
g19
tp70
F1
s(Vappeare
g17
tp71
F1
s(Vdemonstrate
g17
tp72
F1
s(S':'
g9
tp73
F2
s(S'EX'
p74
g62
tp75
F1
s(VPrinces
g9
tp76
F1
s(Vthe
S'DT'
p77
tp78
F47
s(Vwith
S'IN'
p79
tp80
F9
s(VI
S'PRP'
p81
tp82
F1
s(VMisteries
g37
tp83
F1
s(g62
g77
tp84
F6
s(g67
g9
tp85
F1
s(VIupiter
g9
tp86
F1
s(g9
S'VBP'
p87
tp88
F1
s(VLibels
g9
tp89
F1
s(VWhich
g9
tp90
F1
s(VAppedices
g67
tp91
F1
s(Vhow
S'WRB'
p92
tp93
F1
s(VPrinces
g37
tp94
F1
s(Vor
S'CC'
p95
tp96
F8
s(Vbeast
g22
tp97
F1
s(S'('
g11
tp98
F1
s(Vcalled
g24
tp99
F1
s(S'WRB'
p100
g77
tp101
F1
s(Vbring
S'VBG'
p102
tp103
F1
s(Vlife
S'NN'
p104
tp105
F1
s(S'VBZ'
p106
g100
tp107
F1
s(Vthink
g87
tp108
F1
s(Vboth
g50
tp109
F1
s(g33
S'.'
tp110
F1
s(Vwere
S'VBD'
p111
tp112
F3
s(Vmore
g5
tp113
F6
s(g24
S'NN'
p114
tp115
F1
s(S'VBP'
p116
S','
tp117
F1
s(Vconceit
g22
tp118
F2
s(S'NN'
p119
g50
tp120
F3
s(Vnow
S'RB'
p121
tp122
F1
s(g121
g4
tp123
F1
s(g4
g106
tp124
F1
s(VCentaure
g9
tp125
F1
s(g37
g9
tp126
F1
s(S'RB'
p127
g17
tp128
F2
s(Vbee
g17
tp129
F1
s(g14
g19
tp130
F3
s(VReuealed
g9
tp131
F1
s(Vmore
g29
tp132
F3
s(Vlike
g19
tp133
F1
s(Vand
g4
tp134
F38
s(S'CC'
p135
g77
tp136
F8
s(Vactions
S'NNS'
p137
tp138
F2
s(g33
S'IN'
p139
tp140
F1
s(g14
g33
tp141
F1
s(Vcan
S'MD'
p142
tp143
F1
s(Vconsort
g22
tp144
F1
s(S'CC'
p145
g7
tp146
F1
s(g9
g77
tp147
F1
s(Vagreement
S'NN'
p148
tp149
F1
s(Vdiscipline
g22
tp150
F1
s(Vfained
g19
tp151
F2
s(g100
g9
tp152
F1
s(S'MD'
p153
g17
tp154
F2
s(Vinsinuations
g37
tp155
F1
s(g102
g22
tp156
F3
s(Vtaxatios
g37
tp157
F1
s(Vnature
g22
tp158
F1
s(Vseuen
g22
tp159
F1
s(Vopen
g19
tp160
F1
s(Vwhen
g100
tp161
F2
s(g60
S'JJ'
p162
tp163
F1
s(g21
g77
tp164
F29
s(VOrations
g9
tp165
F1
s(Vside
g22
tp166
F1
s(g5
g139
tp167
F1
s(VProgenuit
g9
tp168
F1
s(g19
S'TO'
p169
tp170
F3
s(Vliues
g37
tp171
F1
s(g14
g102
tp172
F1
s(Vopposite
g14
tp173
F1
s(S'PRP'
p174
g5
tp175
F1
s(g9
g4
tp176
F10
s(g9
S'PRP$'
p177
tp178
F1
s(g24
g24
tp179
F1
s(Vfall
g22
tp180
F1
s(VExtremam
g9
tp181
F1
s(Van
g50
tp182
F1
s(VFable
g9
tp183
F2
s(S':'
g11
tp184
F3
s(S':'
g50
tp185
F1
s(g177
g22
tp186
F6
s(VActions
g9
tp187
F2
s(Vhauing
g22
tp188
F1
s(g14
S':'
tp189
F1
s(VChronicles
g9
tp190
F1
s(VChyron
g9
tp191
F1
s(Vobscure
g17
tp192
F1
s(Vkeepe
g87
tp193
F1
s(S'JJ'
p194
g24
tp195
F1
s(Vbinde
g17
tp196
F1
s(VMusicke
g9
tp197
F1
s(g9
g22
tp198
F6
s(g19
g139
tp199
F2
s(Vwisedome
g22
tp200
F2
s(VSubiects
g9
tp201
F1
s(g24
g169
tp202
F1
s(S','
g9
tp203
F6
s(g14
g11
tp204
F9
s(V(
S'('
tp205
F1
s(Vfit
g19
tp206
F1
s(g37
g4
tp207
F5
s(Vreason
g119
tp208
F3
s(Vvertue
g22
tp209
F1
s(Vwho
g46
tp210
F2
s(g137
S','
tp211
F13
s(Vdoe
g87
tp212
F2
s(g77
g22
tp213
F32
s(g22
S'.'
tp214
F2
s(g33
g19
tp215
F1
s(S'PRP'
p216
g62
tp217
F4
s(Vbesides
g11
tp218
F1
s(g17
g4
tp219
F1
s(Vanother
S'DT'
p220
tp221
F1
s(g92
g169
tp222
F1
s(Vestimation
g22
tp223
F1
s(Vissues
S'NNS'
p224
tp225
F1
s(VALLVSIVE
g9
tp226
F2
s(Vsatisfieth
g62
tp227
F1
s(Vall
g50
tp228
F1
s(VEuents
g37
tp229
F1
s(VHistorie
g9
tp230
F3
s(g22
g21
tp231
F31
s(g22
S','
tp232
F14
s(g87
g11
tp233
F2
s(Verect
g17
tp234
F1
s(Veuer
g14
tp235
F1
s(Vviolence
g22
tp236
F1
s(VLetters
g37
tp237
F1
s(Va
S'DT'
p238
tp239
F5
s(Vraise
g22
tp240
F1
s(Vretire
g17
tp241
F1
s(Vaide
g22
tp242
F1
s(Vappeareth
g62
tp243
F1
s(g17
g19
tp244
F2
s(g116
g33
tp245
F2
s(S':'
g145
tp246
F2
s(V&
g135
tp247
F4
s(Villustrate
g22
tp248
F1
s(g14
g5
tp249
F1
s(Vvigor
g22
tp250
F1
s(Vreuenge
g22
tp251
F1
s(Vdiuisio
g22
tp252
F1
s(Vis
g106
tp253
F13
s(VVice
g9
tp254
F1
s(g24
S'IN'
p255
tp256
F4
s(g22
S'RP'
p257
tp258
F1
s(g37
g119
tp259
F1
s(Viust
g19
tp260
F1
s(g5
g19
tp261
F3
s(VRarenesse
g9
tp262
F1
s(g14
S','
tp263
F2
s(Vthem
g174
tp264
F2
s(Vat
S'IN'
p265
tp266
F1
s(Vdoth
g50
tp267
F1
s(Vremembred
g33
tp268
F1
s(g87
g17
tp269
F1
s(Vsee
g87
tp270
F3
s(g14
S'NN'
p271
tp272
F1
s(VState
g9
tp273
F1
s(Vwell
g14
tp274
F1
s(g50
g106
tp275
F2
s(Vparticipation
g22
tp276
F1
s(g19
S','
tp277
F4
s(g62
g127
tp278
F4
s(g9
S':'
tp279
F4
s(Vdelectation
g22
tp280
F1
s(Vfable
g19
tp281
F1
s(g19
g22
tp282
F6
s(Vremaineth
g62
tp283
F1
s(Vminde
g22
tp284
F1
s(Vpresent
g19
tp285
F1
s(Vneuerthelesse
g47
tp286
F1
s(Vexcluded
g24
tp287
F1
s(Vfaineth
g62
tp288
F1
s(g11
S'IN'
p289
tp290
F8
s(Vbowe
g17
tp291
F1
s(VParables
g9
tp292
F1
s(Vbriefe
g19
tp293
F1
s(g17
S'DT'
p294
tp295
F7
s(Vnecessitie
g22
tp296
F1
s(g169
g22
tp297
F1
s(Vwill
g47
tp298
F1
s(Vordinarie
g37
tp299
F1
s(VSecrets
g37
tp300
F1
s(Vvisible
g19
tp301
F1
s(VMagnanimitie
g9
tp302
F1
s(g127
g50
tp303
F4
s(g12
g62
tp304
F5
s(Vancient
g19
tp305
F1
s(VMinde
g9
tp306
F1
s(VEpistles
g9
tp307
F1
s(g17
g216
tp308
F2
s(Virritata
g22
tp309
F1
s(Vnor
S'CC'
p310
tp311
F1
s(VDeoru
g9
tp312
F1
s(Vstoode
g22
tp313
F1
s(g12
g24
tp314
F1
s(g11
g216
tp315
F7
s(VHeroicall
g9
tp316
F1
s(Vhaue
g17
tp317
F1
s(g46
g24
tp318
F1
s(V:
S':'
tp319
F7
s(Vpart
g114
tp320
F3
s(VChoosing
g102
tp321
F1
s(Vexamples
g37
tp322
F2
s(g174
g79
tp323
F2
s(g22
g9
tp324
F6
s(Vforth
g19
tp325
F1
s(Vthereof
g22
tp326
F1
s(g17
g139
tp327
F1
s(g33
g169
tp328
F1
s(Vthere
g74
tp329
F1
s(Vthese
S'DT'
p330
tp331
F1
s(g4
g9
tp332
F10
s(Vinuolued
g33
tp333
F1
s(g4
g169
tp334
F1
s(g22
g169
tp335
F3
s(g21
g9
tp336
F25
s(g127
g14
tp337
F3
s(g24
g33
tp338
F1
s(Vtherefore
g17
tp339
F1
s(VRebellion
g9
tp340
F2
s(g9
g9
tp341
F8
s(Vspeciall
g22
tp342
F1
s(V)
S')'
tp343
F1
s(Vvulgar
g22
tp344
F1
s(Vconspired
g24
tp345
F1
s(g4
g67
tp346
F1
s(Vcomonly
g19
tp347
F1
s(g9
g24
tp348
F5
s(g19
S'RB'
p349
tp350
F1
s(g33
S':'
tp351
F1
s(g169
g17
tp352
F9
s(Vterra
g22
tp353
F1
s(Vparables
g37
tp354
F1
s(Vdiuisios
g37
tp355
F1
s(g24
g37
tp356
F2
s(VVariations
g37
tp357
F1
s(Vbe
S'VB'
p358
tp359
F1
s(S'NNS'
p360
g169
tp361
F2
s(g50
g12
tp362
F1
s(Vsure
g19
tp363
F1
s(VMirth
g9
tp364
F1
s(Vthings
g360
tp365
F2
s(VREPRESENTATIVE
g9
tp366
F2
s(g19
g95
tp367
F2
s(g17
g9
tp368
F1
s(S'NN'
p369
S':'
tp370
F4
s(g62
g174
tp371
F1
s(g11
g33
tp372
F1
s(Vany
S'DT'
p373
tp374
F2
s(Vit
g216
tp375
F9
s(Vmay
g153
tp376
F1
s(S'VBG'
p377
g169
tp378
F1
s(g169
S'PRP$'
p379
tp380
F1
s(Vsuccesses
g37
tp381
F1
s(g19
g37
tp382
F6
s(VMonarchies
g9
tp383
F2
s(g7
g87
tp384
F5
s(Vcourbing
g22
tp385
F1
s(Vlearning
g102
tp386
F1
s(Vsome
g294
tp387
F2
s(g139
g177
tp388
F4
s(Vforth
g22
tp389
F1
s(S':'
g37
tp390
F1
s(VAesope
g9
tp391
F1
s(VNARRTION
g9
tp392
F1
s(VRebels
g9
tp393
F1
s(VThat
g50
tp394
F1
s(g87
g77
tp395
F3
s(VIn
g11
tp396
F1
s(g67
g4
tp397
F1
s(g29
g37
tp398
F1
s(Vfable
g22
tp399
F1
s(Vmeere
g19
tp400
F1
s(VHieroglyphikes
g9
tp401
F1
s(g111
g19
tp402
F2
s(g9
g153
tp403
F2
s(g37
S'PRP'
p404
tp405
F1
s(Vwhere
g60
tp406
F1
s(VSo
g14
tp407
F3
s(Vwanted
g24
tp408
F1
s(g4
g19
tp409
F4
s(Vin
g139
tp410
F20
s(S'RB'
p411
g87
tp412
F1
s(Vdesires
g37
tp413
F1
s(VMightie
g9
tp414
F1
s(Vare
g116
tp415
F3
s(g12
g7
tp416
F1
s(Vtheir
g177
tp417
F4
s(g17
S','
tp418
F1
s(Valternatiue
g19
tp419
F1
s(g11
g100
tp420
F1
s(g62
g11
tp421
F6
s(g47
g121
tp422
F3
s(Vtendeth
g22
tp423
F1
s(g238
g19
tp424
F8
s(g19
S'.'
tp425
F1
s(g33
g22
tp426
F1
s(Vpropoundeth
g62
tp427
F1
s(g37
g12
tp428
F1
s(Vrude
g19
tp429
F1
s(V.
S'.'
tp430
F14
s(S','
g127
tp431
F7
s(VBriareus
g9
tp432
F1
s(VPARABOLICALL
g9
tp433
F1
s(Vouerthrowne
g22
tp434
F1
s(g145
g11
tp435
F2
s(Vpoint
g22
tp436
F1
s(Vneede
g47
tp437
F1
s(g169
g9
tp438
F2
s(Vpeople
S'NNS'
p439
tp440
F2
s(VMachiauell
g9
tp441
F1
s(Vbeeing
g102
tp442
F1
s(Vtaught
g19
tp443
F1
s(VGods
g9
tp444
F2
s(Vlong
g14
tp445
F1
s(Vfeare
g17
tp446
F1
s(Vsometimes
g14
tp447
F2
s(Vbrought
g24
tp448
F1
s(Vsubiect
g19
tp449
F1
s(S'CC'
p450
g74
tp451
F1
s(VHistory
g22
tp452
F2
s(Vthat
g50
tp453
F5
s(VPleasure
g9
tp454
F1
s(Vvp
g19
tp455
F1
s(Vother
g162
tp456
F2
s(VSororem
g9
tp457
F1
s(g106
g19
tp458
F1
s(Vfaines
g62
tp459
F1
s(VGreater
g9
tp460
F1
s(VPoesie
g9
tp461
F7
s(g24
S','
tp462
F2
s(g77
g67
tp463
F2
s(Vtherof
g22
tp464
F1
s(Vexcesses
g37
tp465
F1
s(Vas
g11
tp466
F12
s(Vmentioned
g24
tp467
F1
s(Vrather
g411
tp468
F1
s(VNature
g22
tp469
F1
s(g77
g37
tp470
F13
s(g102
g77
tp471
F1
s(g102
g255
tp472
F1
s(Vgreat
S'JJ'
p473
tp474
F1
s(Vhistory
g369
tp475
F1
s(Vexpounded
g24
tp476
F3
s(VWarrs
g9
tp477
F1
s(g24
S'.'
tp478
F1
s(g7
g194
tp479
F1
s(Vbuckle
g22
tp480
F1
s(Vvarietie
g37
tp481
F1
s(Vof
g21
tp482
F34
s(Vby
g289
tp483
F6
s(Vmans
g37
tp484
F1
s(VParens
g9
tp485
F1
s(Vdeliuered
g33
tp486
F1
s(g33
S','
tp487
F2
s(Vcome
g17
tp488
F1
s(VNeuerthelesse
g9
tp489
F1
s(VEarth
g9
tp490
F1
s(VPARABOLICAL
g9
tp491
F1
s(g14
g92
tp492
F1
s(g17
g14
tp493
F2
s(Vplay
g17
tp494
F1
s(Vto
g169
tp495
F17
s(g289
g102
tp496
F1
s(S','
S'FW'
p497
tp498
F1
s(g95
g33
tp499
F1
s(S','
g62
tp500
F2
s(VActs
g67
tp501
F1
s(g22
g216
tp502
F2
s(Vcongruities
g37
tp503
F1
s(S','
g12
tp504
F6
s(Vbut
S'CC'
p505
tp506
F2
s(Vlesse
g22
tp507
F1
s(VPOESY
g9
tp508
F1
s(Vfained
g24
tp509
F2
s(Vactuall
g22
tp510
F1
s(Vmen
S'NNS'
p511
tp512
F1
s(Vvt
g497
tp513
F1
s(Vtimes
g37
tp514
F4
s(g106
g33
tp515
F1
s(g95
g37
tp516
F7
s(Vdoth
g135
tp517
F1
s(g37
g24
tp518
F2
s(Vsame
S'JJ'
p519
tp520
F1
s(Vbelongeth
g62
tp521
F1
s(S','
g46
tp522
F2
s(Vso
g14
tp523
F3
s(VThe
S'DT'
p524
tp525
F2
s(Vbecause
g11
tp526
F5
s(g37
g21
tp527
F13
s(Vyet
g14
tp528
F1
s(g169
g77
tp529
F4
s(Vabsolutenesse
g22
tp530
F1
s(VEuents
g9
tp531
F1
s(Vmuch
g14
tp532
F1
s(Vstates
g37
tp533
F1
s(Vthey
g404
tp534
F4
s(g22
S')'
tp535
F1
s(Vfor
g255
tp536
F3
s(g24
g14
tp537
F7
s(VMan
g9
tp538
F1
s(g22
S'('
tp539
F1
s(Vthose
S'DT'
p540
tp541
F2
s(g4
g14
tp542
F2
s(g5
g377
tp543
F1
s(S','
g116
tp544
F1
s(VIllam
g9
tp545
F1
s(g5
g9
tp546
F1
s(VCoeo
g9
tp547
F1
s(Vmaner
g22
tp548
F1
s(g19
g19
tp549
F1
s(g67
g21
tp550
F1
s(Vaccording
g377
tp551
F1
s(VMoralitie
g9
tp552
F1
s(Vlast
g194
tp553
F1
s(Vretaine
g17
tp554
F1
s(Vperhibent
g22
tp555
F1
s(Vmother
g22
tp556
F2
s(Vcause
g22
tp557
F1
s(Vdoth
g14
tp558
F1
s(Vvnto
g11
tp559
F2
s(V,
S','
tp560
F77
s(Varguments
g37
tp561
F1
s(Vwee
g12
tp562
F2
s(Vmerits
g37
tp563
F1
s(Valso
S'RB'
p564
tp565
F1
s(g116
g19
tp566
F1
s(g9
g12
tp567
F1
s(Vauthorised
g33
tp568
F1
s(Vproprietie
g22
tp569
F1
s(S':'
g14
tp570
F3
s(g62
g169
tp571
F1
s(Vexpresse
g17
tp572
F2
s(Vrest
g22
tp573
F2
s(g497
g22
tp574
F1
s(VPOESIE
g9
tp575
F1
s(Vagreable
g19
tp576
F1
s(g29
g9
tp577
F1
s(Vfirst
g14
tp578
F1
s(Vaccesse
g37
tp579
F1
s(Vslanders
g37
tp580
F1
s(g87
g411
tp581
F1
s(Vhands
g37
tp582
F1
s(g14
g169
tp583
F2
s(g62
g22
tp584
F1
s(g162
g102
tp585
F1
s(VMind
g9
tp586
F2
s(Vif
S'IN'
p587
tp588
F1
s(g67
g102
tp589
F1
s(Vhundreth
g22
tp590
F1
s(g24
g50
tp591
F1
s(g24
g5
tp592
F1
s(Vlater
g14
tp593
F1
s(VOf
S'IN'
p594
tp595
F1
s(S':'
g102
tp596
F1
s(g9
g11
tp597
F8
s(g22
g33
tp598
F1
s(Vvnder
g22
tp599
F1
s(Vwas
g24
tp600
F8
s(Vbrought
g33
tp601
F1
s(Vhis
g379
tp602
F2
s(Vthen
g349
tp603
F3
s(Vsentences
g37
tp604
F1
s(Vmany
S'JJ'
p605
tp606
F1
s(VGyants
g67
tp607
F1
s(Vhaue
g87
tp608
F1
s(Vrepresenteth
g22
tp609
F1
s(VNature
g9
tp610
F1
s(Vinto
S'IN'
p611
tp612
F1
s(g4
g22
tp613
F12
s(Vout
g257
tp614
F1
s(Vsubtiltie
g22
tp615
F1
s(S','
g216
tp616
F2
s(Vcomon
g19
tp617
F1
s(Vsubmitting
g102
tp618
F1
s(Vaptest
g14
tp619
F1
s(Vwhich
g12
tp620
F8
s(g37
S':'
tp621
F1
s(VAchilles
g9
tp622
F1
s(VEuents
g67
tp623
F1
s(Vbefore
g11
tp624
F3
s(Vdiuinesse
g22
tp625
F1
s(VEnceladoque
g9
tp626
F1
s(VBut
g450
tp627
F1
s(Vso
g11
tp628
F1
s(VVertue
g9
tp629
F1
s(VFeminine
g22
tp630
F1
s(VIngenuously
g14
tp631
F1
s(Von
S'IN'
p632
tp633
F1
s(Vhad
g24
tp634
F1
s(VRegions
g37
tp635
F1
s(VFables
g9
tp636
F3
s(g9
g14
tp637
F1
s(VProuidence
g9
tp638
F1
s(S','
g4
tp639
F24
s(VAnd
g145
tp640
F5
s(S','
g169
tp641
F1
s(VFame
g9
tp642
F1
s(Vhath
g24
tp643
F1
s(S','
g50
tp644
F2
s(g605
g77
tp645
F1
s(Vhath
g62
tp646
F1
s(Vincounters
g37
tp647
F1
s(g14
g9
tp648
F4
s(V;
S':'
tp649
F6
s(g216
S':'
tp650
F1
s(VLyon
g9
tp651
F1
s(Vira
g22
tp652
F1
s(Vvnexpected
g19
tp653
F1
s(Vdiuine
g22
tp654
F1
s(Vmuch
g19
tp655
F1
s(Vimitation
g22
tp656
F1
s(S'JJ'
p657
g9
tp658
F8
s(Vthis
S'DT'
p659
tp660
F2
s(Vdeuised
g24
tp661
F1
s(g22
g24
tp662
F7
s(g145
g17
tp663
F4
s(g145
g47
tp664
F1
s(g21
g657
tp665
F9
s(g22
g106
tp666
F1
s(Vas
g14
tp667
F2
s(Vonely
g14
tp668
F1
s(g12
g116
tp669
F3
s(Vhearts
g37
tp670
F1
s(S')'
g106
tp671
F1
s(g29
g22
tp672
F1
s(g119
g142
tp673
F1
s(Vdoth
g62
tp674
F1
s(Vapplied
g24
tp675
F1
s(Vthat
g11
tp676
F11
s(VPallas
g9
tp677
F1
s(Vexposition
g22
tp678
F2
s(Vserueth
g22
tp679
F1
s(Vpurpose
g22
tp680
F1
s(VHeathen
g9
tp681
F1
s(Vwarre
g22
tp682
F1
s(Vkind
g271
tp683
F2
s(g659
g139
tp684
F1
s(g216
g24
tp685
F4
s(VFoxe
g9
tp686
F1
s(g24
S':'
tp687
F1
s(VReligion
g9
tp688
F1
s(VPhilosophy
g9
tp689
F1
s(Vnot
g127
tp690
F4
s(Vmalignitie
g22
tp691
F1
s(Vrarely
g14
tp692
F1
s(g22
g4
tp693
F9
s(g22
g37
tp694
F1
s(VImage
g22
tp695
F1
s(Vtrue
g657
tp696
F3
s(g37
g14
tp697
F1
s(g9
S','
tp698
F38
s(g257
g14
tp699
F1
s(g9
g62
tp700
F6
s(Vwhereas
g37
tp701
F1
s(g24
g174
tp702
F1
s(Vcorruptly
g14
tp703
F1
s(VHierogliphikes
g9
tp704
F1
s(g21
g137
tp705
F12
s(Vsuppressed
g33
tp706
F1
s(Vguile
g22
tp707
F1
s(g79
g5
tp708
F1
s(Vioyned
g24
tp709
F1
s.