ccollections
defaultdict
p1
(c__builtin__
float
p2
tRp3
(S'VBP'
p4
S'NNP'
p5
tp6
F1
s(Vensnar
S'NN'
p7
tp8
F1
s(Vflew
S'VBD'
p9
tp10
F6
s(Vwe
S'PRP'
p11
tp12
F13
s(g5
S'.'
tp13
F39
s(VCosin
g5
tp14
F1
s(VFor
S'IN'
p15
tp16
F4
s(Vyeeld
S'VB'
p17
tp18
F1
s(S'IN'
p19
g7
tp20
F63
s(S'RP'
p21
g5
tp22
F1
s(Vyoung
S'JJ'
p23
tp24
F1
s(Vcharme
g7
tp25
F1
s(S'VBG'
p26
S'NNS'
p27
tp28
F2
s(S'PRP$'
p29
g5
tp30
F21
s(Vmerit
g7
tp31
F3
s(Vstanding
g7
tp32
F1
s(Vpared
g9
tp33
F2
s(VCountry
g5
tp34
F2
s(Vaccusations
g27
tp35
F2
s(S'VBN'
p36
S'PRP'
p37
tp38
F10
s(g27
S'PRP$'
p39
tp40
F1
s(Vcause
g7
tp41
F2
s(Vagainst
S'IN'
p42
tp43
F15
s(VTo
S'TO'
p44
tp45
F1
s(Vprey
S'JJ'
p46
tp47
F1
s(Vseemed
g9
tp48
F1
s(Vfearing
g7
tp49
F1
s(Vgifts
g27
tp50
F1
s(Vpen
g7
tp51
F1
s(Vcalled
g36
tp52
F6
s(VSpincke
g5
tp53
F1
s(Vshame
g7
tp54
F2
s(Vedge
g7
tp55
F1
s(Vsay
g17
tp56
F4
s(S'EX'
p57
S'VB'
p58
tp59
F1
s(Vhigher
S'JJR'
p60
tp61
F1
s(VHe
S'PRP'
p62
tp63
F1
s(Vtread
g4
tp64
F1
s(g27
S'PRP'
p65
tp66
F10
s(Vconscience
g7
tp67
F2
s(VSparrowes
g5
tp68
F2
s(Vamaine
g7
tp69
F1
s(Vloving
g7
tp70
F3
s(Vaffraid
g36
tp71
F1
s(S'VBZ'
p72
S'TO'
p73
tp74
F2
s(Vobeysance
g7
tp75
F1
s(Vfaile
g17
tp76
F1
s(VDoves
g27
tp77
F1
s(Vcertainly
S'RB'
p78
tp79
F1
s(Vsaw
g9
tp80
F2
s(Vseene
g7
tp81
F1
s(Vtill
g7
tp82
F3
s(Vwit
g7
tp83
F1
s(Vpardon
g7
tp84
F2
s(S'IN'
p85
S'RB'
p86
tp87
F15
s(Vcosen
g7
tp88
F2
s(Vdesarts
g27
tp89
F1
s(Vtwigge
g7
tp90
F1
s(Vprais
g36
tp91
F1
s(Vmore
S'RBR'
p92
tp93
F3
s(S'JJS'
p94
g27
tp95
F2
s(VCoby
S'PDT'
p96
tp97
F1
s(Vlooke
g17
tp98
F2
s(S'RB'
p99
g17
tp100
F24
s(VItalian
g5
tp101
F1
s(Vtold
g9
tp102
F7
s(Vpolicy
S'NN'
p103
tp104
F2
s(Vperforme
g4
tp105
F1
s(S'DT'
p106
g29
tp107
F6
s(g7
S'WDT'
p108
tp109
F10
s(Vmore
g60
tp110
F2
s(Vpromise
g7
tp111
F1
s(Vbuilding
g26
tp112
F1
s(Vbroken
g36
tp113
F1
s(VBuzzard
g5
tp114
F10
s(S'CC'
p115
g106
tp116
F42
s(VMountaine
g5
tp117
F1
s(S','
S'MD'
p118
tp119
F4
s(S','
g17
tp120
F4
s(g46
S'POS'
p121
tp122
F1
s(g5
S'WRB'
p123
tp124
F1
s(Vamongst
S'VBZ'
p125
tp126
F1
s(g115
g65
tp127
F14
s(Vcunningly
g86
tp128
F1
s(S'('
g27
tp129
F2
s(VMountibankes
g5
tp130
F1
s(VRapax
g5
tp131
F10
s(g17
S'DT'
p132
tp133
F44
s(Vmute
g7
tp134
F1
s(g86
S'PRP'
p135
tp136
F27
s(S'WP'
p137
g125
tp138
F2
s(VRome
g5
tp139
F1
s(S'VBG'
p140
g7
tp141
F13
s(Vhouses
S'NNS'
p142
tp143
F1
s(Vhid
g9
tp144
F1
s(Vwhen
g123
tp145
F12
s(S'CD'
p146
g4
tp147
F1
s(S'JJ'
p148
S'MD'
p149
tp150
F5
s(Vfeathers
g27
tp151
F3
s(g148
g135
tp152
F6
s(Vfellowes
g125
tp153
F1
s(Vbrother
g7
tp154
F1
s(Vinvention
g7
tp155
F2
s(Vlimed
g46
tp156
F1
s(Vwould
S'MD'
p157
tp158
F22
s(Vpresent
g17
tp159
F1
s(Vcontriv
g4
tp160
F1
s(Vdesert
g7
tp161
F3
s(g5
S'CC'
p162
tp163
F22
s(g106
S'('
tp164
F1
s(Vopen
g46
tp165
F1
s(Vaske
g17
tp166
F1
s(g27
g58
tp167
F1
s(Vperceived
g36
tp168
F1
s(g27
S'MD'
p169
tp170
F8
s(S':'
g132
tp171
F5
s(Vbones
g27
tp172
F1
s(VCourt-
g5
tp173
F1
s(Vnotes
g27
tp174
F2
s(Vpast
g46
tp175
F1
s(g85
g57
tp176
F5
s(Vsnare
g7
tp177
F1
s(S'CC'
p178
g146
tp179
F2
s(Venemies
g27
tp180
F1
s(Vpraise
g17
tp181
F1
s(Vdeceived
g9
tp182
F1
s(Vlose
g17
tp183
F1
s(Vcowards
g27
tp184
F1
s(Vhearing
g7
tp185
F1
s(Vthereat
g7
tp186
F1
s(g7
g46
tp187
F3
s(Vused
g9
tp188
F1
s(Vfear
g17
tp189
F1
s(Vcarefull
g36
tp190
F1
s(Vsufficient
g46
tp191
F1
s(g37
S'DT'
p192
tp193
F16
s(VIle
g5
tp194
F1
s(Vno
g86
tp195
F1
s(g85
g19
tp196
F40
s(g27
g162
tp197
F8
s(Vwishing
g26
tp198
F1
s(Vflie
g17
tp199
F2
s(Vbeleeving
g26
tp200
F1
s(Vsweetly
g86
tp201
F1
s(Vdivers
g125
tp202
F1
s(Vprepared
g46
tp203
F1
s(Vequitie
g86
tp204
F1
s(VMagistrate
g5
tp205
F1
s(Vflew
g4
tp206
F1
s(g36
g132
tp207
F12
s(VKing
g26
tp208
F1
s(Vhainous
g46
tp209
F1
s(VCrow
g5
tp210
F8
s(Vserved
g9
tp211
F1
s(Vcomplayned
g9
tp212
F1
s(S','
g46
tp213
F2
s(Vdown
g21
tp214
F1
s(S'IN'
p215
g96
tp216
F4
s(Vreturned
g9
tp217
F1
s(Vconsented
g36
tp218
F3
s(Vcome
g17
tp219
F9
s(Vwont
g86
tp220
F1
s(Vhollow
g46
tp221
F1
s(VO
g5
tp222
F2
s(Va
g192
tp223
F130
s(Vrespect
g7
tp224
F2
s(Vmost
g94
tp225
F1
s(Vboughes
g27
tp226
F2
s(Vpoetrias
g7
tp227
F1
s(Vkept
g9
tp228
F1
s(Vappeare
g125
tp229
F1
s(S','
g39
tp230
F5
s(S'VBD'
p231
g162
tp232
F3
s(S'NN'
p233
g57
tp234
F2
s(Vformer
S'JJ'
p235
tp236
F9
s(Vtherefore
g86
tp237
F23
s(g108
S'NNS'
p238
tp239
F1
s(Vdeath
S'NN'
p240
tp241
F4
s(S','
S'('
tp242
F2
s(Vbehaved
g9
tp243
F2
s(Vperpetuall
g17
tp244
F1
s(Vgreevances
g27
tp245
F2
s(Vignorant
g46
tp246
F1
s(VTherefore
g86
tp247
F2
s(g37
g17
tp248
F22
s(Vthem
S'PRP'
p249
tp250
F44
s(Vcowardly
g46
tp251
F1
s(Vworkemanship
g7
tp252
F1
s(Vtayle
g7
tp253
F1
s(Vfolloweth
g7
tp254
F1
s(Vlight
g7
tp255
F1
s(Vluckily
g86
tp256
F1
s(Vfull
S'JJ'
p257
tp258
F2
s(Vcase
S'NN'
p259
tp260
F1
s(Vadversaries
g27
tp261
F1
s(Vpoore
g7
tp262
F2
s(Vredresse
g17
tp263
F1
s(Vchatter
g17
tp264
F2
s(Vremedy
g7
tp265
F1
s(Vtell
g17
tp266
F4
s(g73
g46
tp267
F3
s(Vhere
S'RB'
p268
tp269
F1
s(Vstarke
g86
tp270
F1
s(Vtie
g17
tp271
F1
s(Vnamely
g86
tp272
F1
s(VFrench
g5
tp273
F1
s(VEagles
g5
tp274
F4
s(VMy
S'PRP$'
p275
tp276
F4
s(Vbirth
g7
tp277
F1
s(g17
S'CD'
p278
tp279
F4
s(Vone
g278
tp280
F24
s(VMagnanimitie
g5
tp281
F1
s(Vrich
g46
tp282
F3
s(Vtide
g85
tp283
F1
s(g108
g9
tp284
F8
s(Vhaunt
g17
tp285
F1
s(Vpermit
g17
tp286
F1
s(Vget
g17
tp287
F2
s(Vruine
g17
tp288
F1
s(Vdue
g46
tp289
F1
s(Vdoe
g46
tp290
F2
s(VThen
S'RB'
p291
tp292
F4
s(VCawvvood
g17
tp293
F1
s(g36
g72
tp294
F1
s(g27
g238
tp295
F3
s(Vraine
g46
tp296
F1
s(S'WRB'
p297
g132
tp298
F15
s(Vsav
g7
tp299
F1
s(Vfearing
g26
tp300
F1
s(Vmind
g7
tp301
F2
s(VSylvia
g5
tp302
F4
s(Vseing
g26
tp303
F2
s(Vround
g7
tp304
F4
s(S'WRB'
p305
g27
tp306
F1
s(Vkindred
g36
tp307
F2
s(Vfields
g27
tp308
F1
s(V)
S')'
tp309
F10
s(Vrequite
g17
tp310
F1
s(Vblood
g7
tp311
F1
s(Vcarefully
g86
tp312
F1
s(Vsuspected
g9
tp313
F1
s(Vsway
g17
tp314
F1
s(VMaides
g5
tp315
F1
s(VVice-regent
g46
tp316
F1
s(Vstretch
g17
tp317
F1
s(Vuntimely
g86
tp318
F1
s(g73
g108
tp319
F1
s(VThus
g86
tp320
F2
s(Vtis
g7
tp321
F2
s(Vsee
g7
tp322
F1
s(Vquills
g125
tp323
F1
s(g46
g162
tp324
F3
s(g4
g86
tp325
F11
s(g125
g249
tp326
F6
s(Vlaughter
g7
tp327
F1
s(Vbanishment
g7
tp328
F1
s(Vmans
g46
tp329
F1
s(S'DT'
p330
g215
tp331
F5
s(g73
g29
tp332
F6
s(Vpitty
g17
tp333
F1
s(Vchildren
S'NNS'
p334
tp335
F1
s(Vdeare
g46
tp336
F2
s(Vfarther
g46
tp337
F1
s(Vthence
g7
tp338
F2
s(g215
g29
tp339
F98
s(Vbut
g115
tp340
F49
s(VPoets
S'NNPS'
p341
tp342
F1
s(VEmbleme
g5
tp343
F1
s(Vconsent
g7
tp344
F1
s(Vsuckers
g27
tp345
F1
s(Vmaketh
g27
tp346
F1
s(Veyes
g27
tp347
F1
s(Vbutteries
g27
tp348
F1
s(VAstrologer
g5
tp349
F2
s(g278
g7
tp350
F7
s(g94
g215
tp351
F3
s(Vdissimulation
g7
tp352
F1
s(g5
g157
tp353
F12
s(g5
g96
tp354
F1
s(Vdestruction
g7
tp355
F1
s(g146
S','
tp356
F1
s(g46
g36
tp357
F2
s(Vanswered
g9
tp358
F2
s(g137
S'RB'
p359
tp360
F5
s(VViceregent
g5
tp361
F1
s(Vsake
g4
tp362
F1
s(Vfortnight
g7
tp363
F1
s(Vgreatest
g94
tp364
F2
s(Vmurders
g27
tp365
F1
s(g135
g108
tp366
F3
s(Vtowards
g85
tp367
F1
s(Vlaid
g36
tp368
F1
s(Vpractise
g7
tp369
F1
s(Vblooddy
g46
tp370
F1
s(Vpromise
g4
tp371
F1
s(Vboldnesse
g7
tp372
F1
s(VVerses
g27
tp373
F1
s(Vbushie
g7
tp374
F1
s(Vchanced
g9
tp375
F1
s(Vsticke
g7
tp376
F3
s(Vpull
g85
tp377
F1
s(VUertues
g27
tp378
F1
s(Vpunish
g17
tp379
F1
s(Vrequitall
g7
tp380
F1
s(Vnecessary
S'JJ'
p381
tp382
F3
s(S','
g86
tp383
F19
s(S'VBG'
p384
g297
tp385
F1
s(g123
g7
tp386
F2
s(g17
g60
tp387
F1
s(Vuse
g17
tp388
F2
s(Vpleaded
g36
tp389
F1
s(Vremember
g17
tp390
F1
s(Vcloath
g7
tp391
F1
s(Vstop
g17
tp392
F1
s(Vmeant
g4
tp393
F1
s(Vunlesse
g46
tp394
F1
s(Vother
S'JJ'
p395
tp396
F15
s(Vafraid
g9
tp397
F1
s(Vaway
g86
tp398
F7
s(g94
g46
tp399
F4
s(Vtherefore
g85
tp400
F1
s(g29
g27
tp401
F55
s(S'('
g17
tp402
F1
s(S'DT'
p403
g341
tp404
F6
s(Vunder
S'IN'
p405
tp406
F3
s(Vgetting
S'VBG'
p407
tp408
F2
s(Varrowes
g7
tp409
F1
s(S','
g27
tp410
F8
s(g359
g231
tp411
F16
s(S'VBN'
p412
g162
tp413
F1
s(Vseldome
g46
tp414
F1
s(Vflye
g7
tp415
F1
s(Vhaving
S'VBG'
p416
tp417
F12
s(g121
g39
tp418
F1
s(VFowler
g5
tp419
F3
s(Vunderstand
g17
tp420
F2
s(Vnest
g7
tp421
F1
s(VMagpie
g5
tp422
F5
s(Vseated
g36
tp423
F1
s(g140
g192
tp424
F21
s(g7
g17
tp425
F2
s(Vthou
g7
tp426
F1
s(Vlimed
g9
tp427
F1
s(VEagleshippe
g5
tp428
F1
s(Vstory
S'NN'
p429
tp430
F1
s(S'PRP'
p431
g46
tp432
F6
s(Vsorry
g46
tp433
F1
s(Vshould
g118
tp434
F12
s(Vmans
g27
tp435
F1
s(g278
g231
tp436
F3
s(Vheede
g7
tp437
F1
s(VMeeting
g7
tp438
F1
s(Vremitting
g26
tp439
F1
s(g36
S','
tp440
F10
s(g7
g96
tp441
F2
s(Vfluttered
g9
tp442
F1
s(Vsometime
g86
tp443
F2
s(Vaccounted
g9
tp444
F1
s(Vespecially
S'RB'
p445
tp446
F1
s(Vclose
g46
tp447
F1
s(S'IN'
p448
g26
tp449
F16
s(g162
g36
tp450
F3
s(VHebrew
g5
tp451
F1
s(VUice-regency
g5
tp452
F1
s(g162
g96
tp453
F2
s(Vseeing
g26
tp454
F4
s(Vperking
g26
tp455
F1
s(VQueene
g5
tp456
F1
s(VGoose
g5
tp457
F4
s(Vlawfull
g36
tp458
F1
s(Vmen
g238
tp459
F8
s(Vshrovetide
g7
tp460
F1
s(Vcombats
g27
tp461
F1
s(Vbegun
S'VBN'
p462
tp463
F1
s(g162
g27
tp464
F15
s(Vravishment
g7
tp465
F2
s(g17
g297
tp466
F6
s(S','
g137
tp467
F25
s(Vso
g86
tp468
F37
s(VThe
g403
tp469
F33
s(VLevat
g5
tp470
F1
s(g27
g85
tp471
F29
s(VScrivener
g5
tp472
F1
s(Vtill
g17
tp473
F3
s(g21
S'IN'
p474
tp475
F5
s(Vmight
S'MD'
p476
tp477
F9
s(Vshot
g17
tp478
F1
s(Veye
S'NN'
p479
tp480
F1
s(Vprotection
S'NN'
p481
tp482
F1
s(Veither
g86
tp483
F1
s(Vsyllable
g46
tp484
F1
s(Vpeepe
g17
tp485
F1
s(Vthought
g86
tp486
F1
s(VMaiesty
g5
tp487
F1
s(VLimestrawes
g5
tp488
F1
s(VPhillip
g5
tp489
F1
s(g9
g86
tp490
F34
s(Vthinking
g26
tp491
F2
s(g86
g73
tp492
F12
s(Vhighnesse
g7
tp493
F1
s(Vup
g86
tp494
F1
s(Vchattering
g7
tp495
F1
s(Vmatters
g27
tp496
F4
s(Vgovernment
S'NN'
p497
tp498
F2
s(VBirds
g341
tp499
F2
s(Vbird
g46
tp500
F1
s(g4
g39
tp501
F6
s(Vaffoords
g125
tp502
F1
s(VNero
g5
tp503
F1
s(g7
S'DT'
p504
tp505
F8
s(VAlthough
S'IN'
p506
tp507
F1
s(Vloving
g26
tp508
F3
s(Vtake
g17
tp509
F5
s(g94
S'NN'
p510
tp511
F5
s(Vlast
g148
tp512
F10
s(Vyeares
g27
tp513
F1
s(Vpewter
g7
tp514
F1
s(Vdoing
S'VBG'
p515
tp516
F1
s(Vintreate
g17
tp517
F1
s(Vwhite
S'JJ'
p518
tp519
F1
s(Vout
g86
tp520
F1
s(Vappointed
g9
tp521
F1
s(g140
g257
tp522
F4
s(Vwit
g46
tp523
F2
s(Vshunning
g26
tp524
F1
s(Vhold
g17
tp525
F1
s(g36
g5
tp526
F6
s(Vescaped
g9
tp527
F2
s(Vfriend
g7
tp528
F2
s(VMorrall
g5
tp529
F1
s(Vsignifie
g17
tp530
F1
s(Vhedge
g46
tp531
F1
s(VLady
g46
tp532
F1
s(Vpaine
g7
tp533
F2
s(Vfellowes
g7
tp534
F1
s(g5
g57
tp535
F1
s(Vgotten
g36
tp536
F3
s(g94
S':'
tp537
F2
s(Vwealth
g7
tp538
F2
s(g27
S')'
tp539
F1
s(g9
g21
tp540
F4
s(Vtooke
g9
tp541
F6
s(Vput
g36
tp542
F1
s(g26
g29
tp543
F9
s(VAssembly
g5
tp544
F2
s(Vnew
S'JJ'
p545
tp546
F1
s(Vconclude
g17
tp547
F1
s(Vtake
g4
tp548
F1
s(Vwhereupon
g85
tp549
F2
s(g108
g5
tp550
F1
s(Vit
g431
tp551
F39
s(VCawwood
g5
tp552
F16
s(Vupon
g85
tp553
F25
s(VLapwing
g5
tp554
F1
s(VTyrants
g27
tp555
F1
s(Vsat
g36
tp556
F1
s(Vinto
S'IN'
p557
tp558
F24
s(g162
g7
tp559
F27
s(VWhich
g108
tp560
F2
s(Vsummoned
g36
tp561
F1
s(Vpurpose
g46
tp562
F1
s(g36
g21
tp563
F2
s(VLarkes
g5
tp564
F1
s(VDoe
g5
tp565
F1
s(Vquoth
g106
tp566
F1
s(g9
g137
tp567
F1
s(Vlaught
g36
tp568
F1
s(Vperills
g27
tp569
F1
s(Vbringing
g26
tp570
F1
s(Vsubjects
g27
tp571
F1
s(Vrequited
g9
tp572
F2
s(Vbegan
S'VBD'
p573
tp574
F22
s(Voff
g85
tp575
F1
s(Vyour
S'PRP$'
p576
tp577
F21
s(Vframed
g9
tp578
F1
s(Vqualities
g27
tp579
F1
s(Vvictory
g7
tp580
F1
s(Vgive
g17
tp581
F8
s(Vhee
g27
tp582
F1
s(Vcreepe
g17
tp583
F1
s(VGreat
g5
tp584
F1
s(Vfew
S'JJ'
p585
tp586
F2
s(Vspeede
g7
tp587
F1
s(VAnd
S'CC'
p588
tp589
F14
s(VArabian
g5
tp590
F1
s(Vworthily
g86
tp591
F1
s(Vpreferring
g26
tp592
F1
s(Vstarres
g27
tp593
F1
s(Vcourtesie
g7
tp594
F1
s(Vhoped
g9
tp595
F1
s(VCommonalty
g5
tp596
F1
s(Vthen
S'RB'
p597
tp598
F8
s(Vpay
g4
tp599
F1
s(g125
g86
tp600
F8
s(VThough
g85
tp601
F1
s(Vchanged
g36
tp602
F3
s(Vworth
g7
tp603
F1
s(Vdore
g7
tp604
F1
s(V;
S':'
tp605
F33
s(Vend
g7
tp606
F4
s(g37
S':'
tp607
F6
s(Vpretend
g17
tp608
F1
s(Vmuch
g46
tp609
F3
s(Vreasons
S'NNS'
p610
tp611
F1
s(Vpecke
g17
tp612
F1
s(g46
g5
tp613
F29
s(g125
g9
tp614
F1
s(Vagaine
g7
tp615
F2
s(Vneeds
g86
tp616
F1
s(g27
g36
tp617
F4
s(g123
g96
tp618
F2
s(Vdaring
g26
tp619
F1
s(Valbeit
g85
tp620
F2
s(Vmake
g4
tp621
F4
s(VEagleship
g7
tp622
F1
s(Vdismaide
g7
tp623
F1
s(Vconceits
g27
tp624
F1
s(Vmelody
g7
tp625
F1
s(Vfaire
g7
tp626
F2
s(Vhereafter
g7
tp627
F1
s(VSwallow
g5
tp628
F1
s(Vloyall
g7
tp629
F1
s(Vbared
g46
tp630
F1
s(Vtop
g7
tp631
F1
s(Vambition
g7
tp632
F1
s(VWarrens
g5
tp633
F1
s(Vle
g125
tp634
F1
s(Vashamed
g36
tp635
F1
s(Vbeate
g4
tp636
F1
s(VCuckooes
g5
tp637
F1
s(Vviolently
g86
tp638
F1
s(Vpronounce
g17
tp639
F1
s(Vdowne
g17
tp640
F1
s(Vbarne
g46
tp641
F1
s(VIf
S'IN'
p642
tp643
F3
s(VVVhen
g5
tp644
F1
s(Vnot
g99
tp645
F27
s(Vnature
g7
tp646
F6
s(Vdone
S'VBN'
p647
tp648
F1
s(Vworthiest
g94
tp649
F2
s(Vrediculous
g46
tp650
F1
s(Vroyall
g7
tp651
F1
s(VEgges
g27
tp652
F1
s(Vhoarse
g17
tp653
F1
s(Vnote
g7
tp654
F1
s(Vavoid
g17
tp655
F2
s(g9
g146
tp656
F1
s(Valwayes
g21
tp657
F1
s(Vafford
g4
tp658
F1
s(Vout
g21
tp659
F6
s(Vcome
g36
tp660
F3
s(Vmoney
S'NN'
p661
tp662
F1
s(Vrejoycing
g26
tp663
F1
s(Vliberty
g7
tp664
F2
s(Vdeparture
g7
tp665
F2
s(Venemy
g7
tp666
F1
s(Vselves
g27
tp667
F1
s(g17
S'.'
tp668
F4
s(Vthinke
g7
tp669
F1
s(g7
g297
tp670
F7
s(g108
g448
tp671
F1
s(Vsitting
g26
tp672
F2
s(g86
g96
tp673
F1
s(Vlike
g85
tp674
F6
s(Vspoke
g9
tp675
F1
s(Vknow
g17
tp676
F2
s(Vmove
g17
tp677
F1
s(Vsorts
g27
tp678
F1
s(S'WP$'
p679
g26
tp680
F1
s(S','
g9
tp681
F14
s(Vpraying
g26
tp682
F1
s(VIustice
g5
tp683
F6
s(g504
g278
tp684
F5
s(VEnglish
g5
tp685
F1
s(Vevenings
g27
tp686
F1
s(g65
g476
tp687
F64
s(S','
g123
tp688
F6
s(g37
g137
tp689
F1
s(g57
g140
tp690
F1
s(Vbring
g17
tp691
F2
s(S'VBG'
p692
g86
tp693
F18
s(Vdevice
g7
tp694
F1
s(Vanswered
g36
tp695
F2
s(Vtreasure
g7
tp696
F1
s(Vodious
g46
tp697
F1
s(Vlearned
g46
tp698
F1
s(VChapter
g7
tp699
F1
s(Vspake
g7
tp700
F2
s(Vpulling
g7
tp701
F1
s(Vsuckt
g36
tp702
F1
s(Vtaking
g26
tp703
F4
s(Vwith
g474
tp704
F50
s(Vweeke
g7
tp705
F2
s(Vbigge
g46
tp706
F1
s(Vwill
g169
tp707
F18
s(S':'
g297
tp708
F1
s(g5
g4
tp709
F3
s(Vleave
g4
tp710
F1
s(Vupon
g86
tp711
F1
s(Vhow
g297
tp712
F17
s(Vadoe
g36
tp713
F1
s(g17
S'('
tp714
F1
s(Vthinke
g17
tp715
F1
s(Vthrough
g85
tp716
F3
s(Vreleefe
g17
tp717
F1
s(Vcontent
g46
tp718
F2
s(Vcalled
g9
tp719
F4
s(Vcosin
g7
tp720
F1
s(Vlife
S'NN'
p721
tp722
F9
s(VSong-booke
g5
tp723
F1
s(g4
g7
tp724
F5
s(g169
g42
tp725
F6
s(g4
g73
tp726
F7
s(Vspend
g17
tp727
F1
s(g4
S','
tp728
F6
s(g108
g123
tp729
F2
s(g278
g73
tp730
F1
s(g115
g125
tp731
F5
s(VClocke
g5
tp732
F1
s(Vmerrily
g7
tp733
F1
s(Vorge
g17
tp734
F1
s(g86
g46
tp735
F38
s(g26
g21
tp736
F3
s(Vheretofore
g86
tp737
F1
s(VSpringe
g5
tp738
F1
s(Vdelivered
g9
tp739
F2
s(Vlike
g46
tp740
F4
s(g36
g474
tp741
F53
s(Vgood
g46
tp742
F7
s(Vabsent
g36
tp743
F1
s(Vresorted
g9
tp744
F1
s(VDesart
g5
tp745
F3
s(g5
g132
tp746
F63
s(Vequitie
g7
tp747
F1
s(Vcolected
g9
tp748
F1
s(VSchollers
g5
tp749
F1
s(g118
g17
tp750
F97
s(Vhungry
g46
tp751
F1
s(Viustice
g7
tp752
F4
s(g9
g57
tp753
F1
s(Vlove
g7
tp754
F1
s(Vknowledge
g7
tp755
F2
s(Vknowne
g17
tp756
F4
s(g85
g106
tp757
F270
s(Vconsidering
g384
tp758
F1
s(g4
g169
tp759
F2
s(VLearning
g5
tp760
F1
s(Vguiltie
g46
tp761
F1
s(Vside
g7
tp762
F1
s(Vwives
g27
tp763
F1
s(Vamend
g17
tp764
F1
s(Vafter
S'IN'
p765
tp766
F3
s(Vnothing
S'NN'
p767
tp768
F2
s(Von
S'IN'
p769
tp770
F12
s(Vavium
g7
tp771
F1
s(g86
S'VBG'
p772
tp773
F11
s(Vestablishing
g7
tp774
F1
s(Vattendance
g7
tp775
F1
s(VShepheards
g5
tp776
F1
s(Vsteeple
g7
tp777
F1
s(Vstrangle
g7
tp778
F1
s(Vwere
S'VBD'
p779
tp780
F14
s(Veven
g86
tp781
F1
s(Vheard
g9
tp782
F2
s(Vbarre
g7
tp783
F1
s(VRhyme
g5
tp784
F1
s(g115
g9
tp785
F26
s(Van
g106
tp786
F8
s(S':'
g215
tp787
F13
s(g29
g7
tp788
F119
s(Vmatter
g7
tp789
F4
s(Vioy
g7
tp790
F1
s(VAlbeit
g85
tp791
F1
s(S'PRP'
p792
g576
tp793
F2
s(Vkinde
g7
tp794
F1
s(Vbottome
g7
tp795
F4
s(g474
g278
tp796
F16
s(Vhonour
g7
tp797
F3
s(Vwrong
g46
tp798
F1
s(g46
g19
tp799
F29
s(g26
g162
tp800
F2
s(g57
S'MD'
p801
tp802
F1
s(Vsweete
g7
tp803
F1
s(Vput
g17
tp804
F4
s(Vnoise
g7
tp805
F1
s(g573
g73
tp806
F28
s(Vdevise
g7
tp807
F2
s(g19
g231
tp808
F2
s(Vbirds
g27
tp809
F16
s(g86
g85
tp810
F46
s(Vword
S'NN'
p811
tp812
F1
s(Vpiercing
g26
tp813
F1
s(VStarling
g26
tp814
F1
s(Vbutter
g7
tp815
F1
s(Vreason
S'NN'
p816
tp817
F8
s(Vhe
g135
tp818
F79
s(Vprove
g17
tp819
F4
s(g36
S'JJ'
p820
tp821
F4
s(Vhath
g7
tp822
F6
s(Vflye
g86
tp823
F1
s(Vresort
g17
tp824
F1
s(VCorvos
g5
tp825
F1
s(g86
S'('
tp826
F2
s(g106
g92
tp827
F1
s(Vsent
g9
tp828
F4
s(Vall
g106
tp829
F28
s(Vsheweth
g17
tp830
F1
s(g278
g19
tp831
F8
s(g21
S'.'
tp832
F1
s(VBirds
g5
tp833
F22
s(Vsubiect
g7
tp834
F1
s(Vparentage
g7
tp835
F1
s(g7
g215
tp836
F155
s(Vpowder
g7
tp837
F1
s(g4
g85
tp838
F20
s(Vexpect
g4
tp839
F1
s(Vowne
g46
tp840
F7
s(g169
S','
tp841
F1
s(Vworthy
g46
tp842
F1
s(VIackedaw
g5
tp843
F1
s(Vresort
g7
tp844
F1
s(VThrush
g5
tp845
F2
s(Vscattered
g46
tp846
F1
s(Vsoever
g7
tp847
F1
s(Vbloud
g7
tp848
F1
s(g679
g27
tp849
F2
s(g17
g169
tp850
F1
s(Vdeclare
g17
tp851
F4
s(Vspeaker
g7
tp852
F1
s(Vlearned
g36
tp853
F1
s(Vrule
g17
tp854
F4
s(Vamending
g26
tp855
F1
s(S','
g57
tp856
F2
s(Viust
g46
tp857
F2
s(g57
S'VBP'
p858
tp859
F1
s(g169
g29
tp860
F1
s(Vpipe
g7
tp861
F2
s(Vlacke
g17
tp862
F1
s(Vmaking
g26
tp863
F4
s(VPhisitions
g341
tp864
F1
s(g4
g17
tp865
F1
s(Vsee
g4
tp866
F1
s(Vwell
g86
tp867
F2
s(Vbraines
g27
tp868
F1
s(VBuzard
g5
tp869
F8
s(Vput
g9
tp870
F3
s(Vcontriv
g36
tp871
F1
s(VWe
S'PRP'
p872
tp873
F1
s(Vsetting
g26
tp874
F1
s(Vupon
g46
tp875
F1
s(g46
g7
tp876
F115
s(Vavoide
g17
tp877
F1
s(Vsomewhat
g86
tp878
F2
s(Vminde
g7
tp879
F3
s(Vever
S'RB'
p880
tp881
F2
s(Vinsteed
g7
tp882
F1
s(g37
g21
tp883
F3
s(Vcould
g149
tp884
F11
s(Vdecided
g36
tp885
F1
s(VThankefulnesse
g5
tp886
F1
s(VUerses
g27
tp887
F3
s(Vtumbling
g26
tp888
F1
s(Vbrings
g125
tp889
F1
s(Vmake
g17
tp890
F22
s(Vgagling
g26
tp891
F1
s(Vfield
S'NN'
p892
tp893
F1
s(Vsat
g9
tp894
F1
s(Vweather
g7
tp895
F2
s(Vmaybe
g86
tp896
F1
s(Vinflamed
g36
tp897
F1
s(Vgot
g9
tp898
F1
s(g46
g21
tp899
F1
s(Vour
S'PRP$'
p900
tp901
F1
s(g341
S'VBD'
p902
tp903
F3
s(Vcommitted
g36
tp904
F3
s(g73
g146
tp905
F1
s(Vspoken
g36
tp906
F2
s(g17
g37
tp907
F58
s(VHawke
g5
tp908
F41
s(S','
g73
tp909
F9
s(VHow
g123
tp910
F10
s(Vfelt
g9
tp911
F1
s(V:
S':'
tp912
F11
s(S','
g679
tp913
F2
s(Vhapned
g9
tp914
F1
s(Vworthinesse
g7
tp915
F1
s(Vendure
g17
tp916
F1
s(Vdowne
g46
tp917
F1
s(Vbills
S'NNS'
p918
tp919
F1
s(Vlegges
g27
tp920
F1
s(VSoveraignety
g5
tp921
F1
s(Vnone
g7
tp922
F1
s(Vthereunto
g85
tp923
F1
s(g17
g17
tp924
F7
s(Vlabourer
g7
tp925
F1
s(Vthrive
g4
tp926
F1
s(g7
g73
tp927
F44
s(VKings
g27
tp928
F1
s(Vsleepe
g7
tp929
F1
s(Vfight
g4
tp930
F1
s(g125
g5
tp931
F3
s(g135
g359
tp932
F7
s(g779
g36
tp933
F32
s(Vurged
g36
tp934
F1
s(VCarkasse
g5
tp935
F1
s(Vbrests
g27
tp936
F1
s(Vneedes
g86
tp937
F2
s(Vnight
S'NN'
p938
tp939
F1
s(Vhouse
S'NN'
p940
tp941
F1
s(Vgave
S'VBD'
p942
tp943
F3
s(g46
g597
tp944
F3
s(VComplaint
g5
tp945
F1
s(Vcommand
g17
tp946
F1
s(Vworld
S'NN'
p947
tp948
F4
s(VPrognes
g341
tp949
F1
s(Vteaching
g26
tp950
F1
s(Vbushes
g27
tp951
F2
s(Vpunishments
g27
tp952
F1
s(g27
g73
tp953
F7
s(Vreturne
g7
tp954
F2
s(Vsure
g46
tp955
F2
s(g135
S')'
tp956
F4
s(Vonce
g86
tp957
F3
s(g7
S':'
tp958
F20
s(Vfoolish
g46
tp959
F1
s(VThorne
g5
tp960
F1
s(Vmay
S'MD'
p961
tp962
F18
s(Vdesire
g4
tp963
F1
s(Vselfe
g7
tp964
F8
s(g772
g73
tp965
F8
s(Vheare
g17
tp966
F6
s(Veloquent
g46
tp967
F1
s(Vspeake
g7
tp968
F2
s(Vends
g46
tp969
F1
s(Vwipe
g17
tp970
F1
s(VTitmouse
g5
tp971
F1
s(g26
g37
tp972
F13
s(g820
S'NNS'
p973
tp974
F50
s(S'PRP'
p975
g4
tp976
F106
s(Vwhat
g137
tp977
F10
s(g132
g7
tp978
F191
s(Vwise
g7
tp979
F1
s(Vsing
g26
tp980
F2
s(g85
S')'
tp981
F1
s(Vtree
g7
tp982
F13
s(Vcoldest
g94
tp983
F1
s(VAfter
S'IN'
p984
tp985
F5
s(Vcalamitie
g7
tp986
F1
s(g85
g961
tp987
F7
s(Vtime
g233
tp988
F7
s(VSubiects
g27
tp989
F5
s(VThat
g106
tp990
F1
s(Vamong
S'IN'
p991
tp992
F2
s(VBird
g5
tp993
F2
s(Vbeake
g7
tp994
F3
s(Vostentation
g7
tp995
F1
s(VPeece
g5
tp996
F2
s(Vwarmth
g7
tp997
F1
s(Vshall
g801
tp998
F10
s(VYet
g5
tp999
F1
s(Vall
g96
tp1000
F13
s(Veffect
S'NN'
p1001
tp1002
F1
s(VVVith
g5
tp1003
F1
s(Vboast
g17
tp1004
F1
s(g58
g341
tp1005
F1
s(Vshe
S'PRP'
p1006
tp1007
F10
s(Vset
g36
tp1008
F2
s(Vaime
g7
tp1009
F1
s(Vtheir
S'PRP$'
p1010
tp1011
F29
s(Vscorne
g4
tp1012
F1
s(Vpresently
g86
tp1013
F6
s(Ves
g125
tp1014
F1
s(g215
S','
tp1015
F11
s(Vdowne
g7
tp1016
F3
s(g57
g779
tp1017
F7
s(Vcountrimen
g27
tp1018
F1
s(V!
S'.'
tp1019
F1
s(Vaccuser
g7
tp1020
F1
s(Voutrages
g27
tp1021
F1
s(Vescaping
g26
tp1022
F1
s(g46
S'.'
tp1023
F5
s(Vsooner
g7
tp1024
F11
s(g36
g7
tp1025
F7
s(Vchiefe
g46
tp1026
F1
s(g106
g4
tp1027
F3
s(V.
S'.'
tp1028
F157
s(g278
S'JJ'
p1029
tp1030
F3
s(Vheard
g7
tp1031
F2
s(g162
g85
tp1032
F33
s(Vwrite
g17
tp1033
F1
s(Vabout
g86
tp1034
F1
s(g7
g65
tp1035
F37
s(Vagaine
g4
tp1036
F1
s(Vbrought
g9
tp1037
F4
s(Vwhose
g679
tp1038
F3
s(Vspeake
g17
tp1039
F10
s(S','
g36
tp1040
F2
s(VBlackbird
g5
tp1041
F1
s(Vprefer
g36
tp1042
F1
s(Vvice
S'NN'
p1043
tp1044
F1
s(Vearnestly
g86
tp1045
F1
s(Vthere
g86
tp1046
F6
s(Vcruelty
g7
tp1047
F2
s(Vgoe
g4
tp1048
F1
s(Vunto
g7
tp1049
F6
s(VPoetas
g5
tp1050
F1
s(Vfeede
g17
tp1051
F1
s(Vaccordingly
g86
tp1052
F2
s(Vfriend
g4
tp1053
F1
s(Vsilence
g7
tp1054
F1
s(Vpunishment
g7
tp1055
F2
s(VDame
g7
tp1056
F1
s(Vreceive
g17
tp1057
F1
s(VRubert
g85
tp1058
F1
s(Vlaugh
g46
tp1059
F1
s(VLanguage
g7
tp1060
F1
s(Vhee
g46
tp1061
F1
s(VMost
g94
tp1062
F1
s(Vkilling
g26
tp1063
F1
s(Vfinde
g4
tp1064
F4
s(VCrowne
g5
tp1065
F3
s(Vvoid
g17
tp1066
F1
s(Vday
S'NN'
p1067
tp1068
F5
s(Vcarefull
g7
tp1069
F2
s(Vsworne
g36
tp1070
F1
s(g9
S'.'
tp1071
F1
s(Vaffections
g27
tp1072
F1
s(Vby
g448
tp1073
F38
s(Vwent
S'VBD'
p1074
tp1075
F4
s(Vfive
S'CD'
p1076
tp1077
F1
s(Vchirping
g7
tp1078
F2
s(VNow
S'RB'
p1079
tp1080
F1
s(Vknowes
g125
tp1081
F1
s(Vdeliver
g17
tp1082
F2
s(Vcried
g9
tp1083
F1
s(Vgoe
g17
tp1084
F1
s(VCuckoo
g7
tp1085
F2
s(Vnoose
g7
tp1086
F3
s(Vobiection
g7
tp1087
F1
s(V'd
g121
tp1088
F1
s(Vmanner
g7
tp1089
F6
s(Vesteemed
g36
tp1090
F1
s(Vfoule
g7
tp1091
F1
s(Vto
g73
tp1092
F204
s(Vsooner
g86
tp1093
F1
s(Vwonder
g17
tp1094
F1
s(Vcondemned
g9
tp1095
F1
s(Vfrosty
g17
tp1096
F1
s(Vadminister
g17
tp1097
F1
s(Vmeant
g9
tp1098
F1
s(Vthorne
g7
tp1099
F1
s(g162
g4
tp1100
F2
s(Vlegg
g4
tp1101
F1
s(Vlamentable
g46
tp1102
F1
s(g36
g137
tp1103
F1
s(Vsought
g9
tp1104
F1
s(Vdelivered
g36
tp1105
F1
s(Vloud
g46
tp1106
F1
s(VLanguages
g27
tp1107
F1
s(Vsayes
g27
tp1108
F3
s(VOwle
g5
tp1109
F7
s(Vharmonious
g46
tp1110
F1
s(Vconfused
g46
tp1111
F1
s(VIvytree
g5
tp1112
F1
s(Vbecause
g85
tp1113
F7
s(VVox
g5
tp1114
F1
s(Vbidding
g26
tp1115
F1
s(g5
g39
tp1116
F1
s(Vtherefore
g7
tp1117
F3
s(Vturfe
g7
tp1118
F2
s(Vthey
g65
tp1119
F37
s(VArts
g27
tp1120
F1
s(Vseverall
g7
tp1121
F2
s(Vbehold
g17
tp1122
F1
s(VPoets
g27
tp1123
F1
s(Vthree
S'CD'
p1124
tp1125
F2
s(VWoodcocks
g5
tp1126
F1
s(Vyeere
g86
tp1127
F1
s(Vfaire
g17
tp1128
F2
s(Vtowards
g27
tp1129
F3
s(VThat
g108
tp1130
F1
s(g7
S'('
tp1131
F2
s(Vtemperance
g7
tp1132
F1
s(S'CC'
p1133
S'RB'
p1134
tp1135
F71
s(Vwhereat
g7
tp1136
F1
s(Vcryed
g9
tp1137
F1
s(Vheard
g36
tp1138
F6
s(g4
g37
tp1139
F12
s(Vunto
g85
tp1140
F28
s(Vpleasant
g46
tp1141
F1
s(g26
g5
tp1142
F2
s(Vslaughters
g27
tp1143
F1
s(Vthankes
g27
tp1144
F4
s(g17
g73
tp1145
F10
s(g4
g4
tp1146
F1
s(Vsummon
g17
tp1147
F1
s(Vintreat
g17
tp1148
F1
s(g169
g73
tp1149
F2
s(Vsoone
g9
tp1150
F1
s(Vwords
S'NNS'
p1151
tp1152
F7
s(g9
g341
tp1153
F1
s(Vsaies
g27
tp1154
F3
s(VRoiall
g46
tp1155
F1
s(Vrest
g7
tp1156
F3
s(Vcome
g4
tp1157
F1
s(Vhearing
g26
tp1158
F3
s(g60
g5
tp1159
F1
s(Vcleere
g17
tp1160
F1
s(Vbloody
g46
tp1161
F1
s(Vbeginning
g26
tp1162
F1
s(Vcharged
g9
tp1163
F1
s(VBeing
g5
tp1164
F1
s(g125
g7
tp1165
F1
s(VCounseller
g5
tp1166
F1
s(Vwho
g137
tp1167
F26
s(Vpardon
g17
tp1168
F1
s(Vwhom
S'WP'
p1169
tp1170
F1
s(Vlong
g86
tp1171
F2
s(Vaccusation
g7
tp1172
F1
s(Vcoyne
g17
tp1173
F1
s(Vhath
g96
tp1174
F1
s(Voccasion
g7
tp1175
F1
s(S')'
g5
tp1176
F1
s(Vdigged
g9
tp1177
F1
s(Vspoones
g27
tp1178
F1
s(g7
g137
tp1179
F1
s(g5
g85
tp1180
F60
s(Vus
S'PRP'
p1181
tp1182
F5
s(Vfell
S'VBD'
p1183
tp1184
F2
s(VPrinces
g27
tp1185
F1
s(Vthus
S'RB'
p1186
tp1187
F3
s(Vgrant
g17
tp1188
F1
s(g137
g26
tp1189
F2
s(Vwhile
g85
tp1190
F2
s(Vhis
g29
tp1191
F87
s(Vrepaire
g17
tp1192
F1
s(g60
g7
tp1193
F6
s(Vbody
g7
tp1194
F4
s(VCommon
g5
tp1195
F2
s(VThis
S'DT'
p1196
tp1197
F1
s(Vaway
g21
tp1198
F6
s(VYou
S'PRP'
p1199
tp1200
F1
s(Vasked
g9
tp1201
F1
s(Vfellowes
g46
tp1202
F1
s(VBirding-peece
g5
tp1203
F1
s(Venforced
g36
tp1204
F1
s(VPatrimony
g5
tp1205
F1
s(Vswore
g9
tp1206
F1
s(Vcrieth
g125
tp1207
F1
s(Vspoken
g125
tp1208
F1
s(g85
g27
tp1209
F20
s(VGraygoose
g5
tp1210
F1
s(Vcare
g7
tp1211
F2
s(g4
g278
tp1212
F1
s(Vrunning
g26
tp1213
F1
s(Vlost
g36
tp1214
F1
s(Vmurthers
g27
tp1215
F1
s(Vflew
g46
tp1216
F1
s(Velse
g86
tp1217
F3
s(Vhee
g4
tp1218
F2
s(g5
g140
tp1219
F21
s(Vmingled
g36
tp1220
F1
s(VEmpire
g5
tp1221
F1
s(VRooke
g5
tp1222
F40
s(Vtalents
g27
tp1223
F6
s(VProclamation
g5
tp1224
F5
s(Vswing
g7
tp1225
F1
s(Vacceptable
g46
tp1226
F1
s(Vlovingly
g86
tp1227
F1
s(Vsolitary
g46
tp1228
F1
s(Vmindes
g27
tp1229
F1
s(Vhath
g9
tp1230
F2
s(g46
g192
tp1231
F8
s(Vplentifully
g86
tp1232
F1
s(Vlowest
g94
tp1233
F1
s(VArabia
g5
tp1234
F3
s(S','
g96
tp1235
F1
s(g86
S','
tp1236
F24
s(Voff
g21
tp1237
F5
s(Vhaire
g7
tp1238
F3
s(Vher
g275
tp1239
F13
s(VBridge
g5
tp1240
F1
s(Vamongst
g85
tp1241
F4
s(Vpresence
S'NN'
p1242
tp1243
F1
s(Vfrosts
g27
tp1244
F1
s(Vbough
g7
tp1245
F1
s(Vgone
S'VBN'
p1246
tp1247
F2
s(Vplay
g17
tp1248
F1
s(Vinfluence
g7
tp1249
F1
s(Vhearts
g27
tp1250
F3
s(g137
g4
tp1251
F2
s(Vfluttering
g26
tp1252
F1
s(VSubjects
g27
tp1253
F1
s(Vditties
g27
tp1254
F1
s(g7
g157
tp1255
F13
s(Vdayes
g27
tp1256
F1
s(Vanswer
g7
tp1257
F1
s(Vgracious
g46
tp1258
F1
s(Vpared
g36
tp1259
F1
s(g297
g73
tp1260
F3
s(Vthemselves
S'PRP'
p1261
tp1262
F3
s(S'CC'
p1263
g39
tp1264
F5
s(Vrewards
g27
tp1265
F1
s(g137
g106
tp1266
F3
s(Vhedges
g27
tp1267
F1
s(g135
g9
tp1268
F108
s(VEagle
g5
tp1269
F22
s(Vjudgement
g7
tp1270
F1
s(Vleave
g17
tp1271
F1
s(g4
g21
tp1272
F2
s(Vvpright
g7
tp1273
F1
s(Vpasse
g17
tp1274
F2
s(Vfictions
g27
tp1275
F1
s(V'd
g5
tp1276
F1
s(g573
S'RBS'
p1277
tp1278
F1
s(Vexcellent
g46
tp1279
F3
s(g27
g268
tp1280
F4
s(Vaccompanied
g36
tp1281
F1
s(Vmarke
g7
tp1282
F1
s(Vher
g431
tp1283
F1
s(Vsaith
g7
tp1284
F3
s(S'('
g7
tp1285
F1
s(Vwhereby
g123
tp1286
F1
s(g9
g37
tp1287
F43
s(VParvis
g5
tp1288
F2
s(Vbacke
g94
tp1289
F1
s(Vcomplaine
g17
tp1290
F2
s(Vcountenance
g7
tp1291
F1
s(Vcurse
g7
tp1292
F1
s(Vchange
g17
tp1293
F1
s(g85
g125
tp1294
F3
s(Vfarre
g46
tp1295
F2
s(Vable
S'JJ'
p1296
tp1297
F1
s(Vmust
S'MD'
p1298
tp1299
F3
s(Vsorrowes
g7
tp1300
F1
s(g975
g162
tp1301
F3
s(Vdissembled
g9
tp1302
F1
s(Vtogether
g86
tp1303
F6
s(Vlent
g4
tp1304
F1
s(S'IN'
p1305
g73
tp1306
F4
s(Vhight
g7
tp1307
F1
s(Vsight
g7
tp1308
F2
s(g106
g9
tp1309
F5
s(Vtaken
S'VBN'
p1310
tp1311
F2
s(Vopenly
g86
tp1312
F1
s(g7
g7
tp1313
F41
s(g36
g123
tp1314
F1
s(VProdigall
g5
tp1315
F1
s(Vdignitie
g7
tp1316
F1
s(S'('
g137
tp1317
F1
s(VSister
g5
tp1318
F2
s(Vlet
g17
tp1319
F2
s(VPardon
g5
tp1320
F5
s(VBarne
g5
tp1321
F1
s(S'JJS'
p1322
g73
tp1323
F1
s(Vsmall
S'JJ'
p1324
tp1325
F7
s(Vmiles
S'NNS'
p1326
tp1327
F1
s(Vdelighted
g36
tp1328
F1
s(Vmedicine
g7
tp1329
F1
s(Vdanger
g7
tp1330
F7
s(Vfrom
S'IN'
p1331
tp1332
F15
s(Vdegree
g17
tp1333
F1
s(Vset
g9
tp1334
F2
s(Vdesire
g17
tp1335
F2
s(Vbird
g7
tp1336
F4
s(Vplumed
g36
tp1337
F1
s(Vthe
g132
tp1338
F402
s(VI
g975
tp1339
F129
s(Vadmire
g17
tp1340
F1
s(Vencouragement
g7
tp1341
F1
s(Vlabour
g46
tp1342
F1
s(Vend
g17
tp1343
F1
s(Vfriendship
g7
tp1344
F1
s(g86
g1010
tp1345
F7
s(Vaffaires
g27
tp1346
F1
s(S'('
g85
tp1347
F5
s(Vcame
g231
tp1348
F17
s(g46
g17
tp1349
F1
s(g17
g5
tp1350
F8
s(g36
S'.'
tp1351
F3
s(Vfaine
g17
tp1352
F1
s(S','
g4
tp1353
F3
s(Vsave
g17
tp1354
F1
s(Vnow
g1134
tp1355
F11
s(Vspying
g26
tp1356
F1
s(S'DT'
p1357
S'.'
tp1358
F1
s(Vpeeping
g26
tp1359
F1
s(Vheld
g9
tp1360
F1
s(Vrubbe
g17
tp1361
F1
s(Vgathered
g36
tp1362
F1
s(Vpath
g7
tp1363
F1
s(Vplease
g4
tp1364
F1
s(S'NNP'
p1365
g431
tp1366
F6
s(Vseeme
g4
tp1367
F1
s(S','
g135
tp1368
F72
s(Vgiving
S'VBG'
p1369
tp1370
F2
s(Vcan
S'MD'
p1371
tp1372
F14
s(Vquicknesse
g7
tp1373
F1
s(S','
g403
tp1374
F15
s(Vhold
g7
tp1375
F2
s(g7
g341
tp1376
F3
s(Vnamed
g36
tp1377
F1
s(Vthereunto
g7
tp1378
F1
s(Vbeades
g27
tp1379
F1
s(Vfowlers
g27
tp1380
F1
s(S'WRB'
p1381
g5
tp1382
F9
s(VIackdaw
g5
tp1383
F2
s(Vforgive
g17
tp1384
F1
s(VCedar
g5
tp1385
F2
s(Vtelling
g26
tp1386
F3
s(Vornaments
g27
tp1387
F1
s(g137
g7
tp1388
F2
s(VRapax
g17
tp1389
F1
s(S')'
S'IN'
p1390
tp1391
F3
s(Vprisoner
g7
tp1392
F1
s(Vamongst
g7
tp1393
F1
s(Vsigne
g7
tp1394
F1
s(Vcold
g7
tp1395
F1
s(Vhimselfe
g17
tp1396
F2
s(Vwarble
g46
tp1397
F1
s(Vclawes
g7
tp1398
F1
s(Vdoe
g17
tp1399
F3
s(Vsee
g17
tp1400
F2
s(g820
g146
tp1401
F2
s(Vkeepes
g125
tp1402
F1
s(Vblindfolded
g36
tp1403
F2
s(Vsuspition
g7
tp1404
F1
s(Vthan
S'IN'
p1405
tp1406
F4
s(Vroiall
g7
tp1407
F2
s(VWheate
g5
tp1408
F1
s(Vover
g85
tp1409
F5
s(g305
g39
tp1410
F1
s(Vhopping
g26
tp1411
F1
s(Vtwo
g146
tp1412
F5
s(g297
g1305
tp1413
F1
s(g46
g9
tp1414
F3
s(g27
g4
tp1415
F20
s(g5
g7
tp1416
F39
s(Vtunes
g27
tp1417
F3
s(VNor
g5
tp1418
F1
s(Vhope
g4
tp1419
F6
s(Vresigned
g36
tp1420
F2
s(VGreeke
g5
tp1421
F1
s(VSubstitute
g7
tp1422
F2
s(Vquiet
g46
tp1423
F1
s(Vamplifie
g17
tp1424
F1
s(g21
S','
tp1425
F4
s(Vleft
g36
tp1426
F1
s(g27
S','
tp1427
F90
s(Vdoe
g4
tp1428
F5
s(Vwithall
g17
tp1429
F1
s(g7
S'.'
tp1430
F62
s(Vturning
g7
tp1431
F1
s(Vaside
g21
tp1432
F1
s(Viniustice
g7
tp1433
F1
s(g4
g416
tp1434
F2
s(g1010
g46
tp1435
F27
s(g73
g86
tp1436
F1
s(VCoby
g5
tp1437
F2
s(S')'
g26
tp1438
F1
s(g108
g149
tp1439
F2
s(Vpicture
g7
tp1440
F1
s(g7
S','
tp1441
F193
s(Vfor
g1305
tp1442
F70
s(Vsubstitute
g7
tp1443
F3
s(Vlucke
g7
tp1444
F1
s(Vhighest
g1322
tp1445
F1
s(Vsaying
g26
tp1446
F2
s(Vwitnesses
g27
tp1447
F1
s(Vworth
g46
tp1448
F1
s(Vwhence
g7
tp1449
F2
s(g4
g36
tp1450
F21
s(g5
g341
tp1451
F2
s(g902
g17
tp1452
F7
s(Vfree
g46
tp1453
F5
s(Vdaughter
g7
tp1454
F2
s(g9
g192
tp1455
F53
s(VCapitoll
g5
tp1456
F1
s(Vhast
g7
tp1457
F2
s(Vhim
g37
tp1458
F68
s(Vis
g72
tp1459
F37
s(Vremit
g17
tp1460
F1
s(VNightingall
g5
tp1461
F3
s(Vat
S'IN'
p1462
tp1463
F25
s(Vsheepe
g7
tp1464
F1
s(Vabsence
g7
tp1465
F8
s(VCocks
g5
tp1466
F1
s(g1357
g73
tp1467
F1
s(g792
g7
tp1468
F3
s(Vwithout
S'IN'
p1469
tp1470
F2
s(VCoward
g5
tp1471
F1
s(Vaccuse
g17
tp1472
F2
s(Vme
g792
tp1473
F45
s(g46
S','
tp1474
F17
s(g137
g9
tp1475
F9
s(Vthickets
g27
tp1476
F1
s(g5
S':'
tp1477
F8
s(Vstrange
g46
tp1478
F1
s(Vafraid
g4
tp1479
F1
s(Vfoode
g7
tp1480
F1
s(Vbasenesse
g7
tp1481
F1
s(VLet
g17
tp1482
F1
s(g106
g86
tp1483
F5
s(g17
g46
tp1484
F12
s(Vbonds
S'NNS'
p1485
tp1486
F1
s(Vrose
S'VBD'
p1487
tp1488
F1
s(g73
g240
tp1489
F1
s(Vtrust
g7
tp1490
F1
s(VSouldiers
g5
tp1491
F1
s(Vbid
g17
tp1492
F1
s(g1134
g132
tp1493
F16
s(Vno
g106
tp1494
F29
s(g60
S'.'
tp1495
F1
s(VRoyall
g5
tp1496
F1
s(Vmeant
g7
tp1497
F1
s(Vmercy
g7
tp1498
F6
s(g249
S','
tp1499
F60
s(Vmade
g36
tp1500
F11
s(g7
g5
tp1501
F10
s(Vbended
g9
tp1502
F1
s(Vthereof
g7
tp1503
F4
s(Vegges
g27
tp1504
F2
s(Vhee
g125
tp1505
F1
s(Vthere
g57
tp1506
F13
s(Vsubiects
g27
tp1507
F3
s(g9
g7
tp1508
F13
s(VPersius
g5
tp1509
F1
s(g36
g169
tp1510
F3
s(Vcaught
g9
tp1511
F3
s(g162
g5
tp1512
F18
s(g9
g46
tp1513
F14
s(g4
g297
tp1514
F3
s(Vpearch
g7
tp1515
F1
s(VBesides
g85
tp1516
F7
s(g474
g5
tp1517
F52
s(Vhurt
g17
tp1518
F3
s(g94
S','
tp1519
F1
s(Vthese
S'DT'
p1520
tp1521
F11
s(Vknowne
g27
tp1522
F2
s(VGeese
g46
tp1523
F1
s(VCommonwealth
g5
tp1524
F3
s(g1381
g57
tp1525
F1
s(Vravished
g36
tp1526
F1
s(Vso
g85
tp1527
F15
s(g5
g779
tp1528
F56
s(S'DT'
p1529
g679
tp1530
F1
s(g73
g17
tp1531
F157
s(Vmy
g39
tp1532
F72
s(Vfeared
g36
tp1533
F1
s(g9
g27
tp1534
F4
s(Vread
g7
tp1535
F1
s(Vhatefull
g7
tp1536
F1
s(g9
g1010
tp1537
F16
s(Vbe
g58
tp1538
F39
s(g106
g108
tp1539
F3
s(Vtidings
g27
tp1540
F1
s(Vfriend
g46
tp1541
F1
s(Vsimplicitie
g7
tp1542
F1
s(Vrhume
g7
tp1543
F1
s(Vcomming
g26
tp1544
F1
s(S'DT'
p1545
S','
tp1546
F2
s(Vhedge
g7
tp1547
F3
s(Vany
S'DT'
p1548
tp1549
F10
s(Vtooke
g46
tp1550
F2
s(Vbest
g94
tp1551
F4
s(Vtender
g4
tp1552
F1
s(Vpleased
g9
tp1553
F1
s(Vothers
g973
tp1554
F1
s(Vneedes
g27
tp1555
F1
s(Vsong
g7
tp1556
F1
s(Vcommend
g17
tp1557
F1
s(Vabout
g85
tp1558
F9
s(g249
g94
tp1559
F2
s(S':'
g137
tp1560
F1
s(Vobey
g17
tp1561
F2
s(VPies
g5
tp1562
F1
s(g36
g27
tp1563
F3
s(Vcounted
g36
tp1564
F2
s(Vdespise
g17
tp1565
F1
s(Vbetrayd
g36
tp1566
F2
s(S':'
g27
tp1567
F1
s(VDove
g5
tp1568
F1
s(g4
g132
tp1569
F28
s(Vfaine
g46
tp1570
F1
s(Vday-light
g7
tp1571
F1
s(Vmounted
g36
tp1572
F1
s(VLattine
g5
tp1573
F1
s(VFinch
g5
tp1574
F1
s(Vagaine
g17
tp1575
F2
s(Vdemurely
g86
tp1576
F1
s(g115
g46
tp1577
F10
s(Vgoing
g772
tp1578
F2
s(Vin
g19
tp1579
F75
s(Vowne
g27
tp1580
F1
s(Vcut
g9
tp1581
F1
s(VDaughter
g5
tp1582
F1
s(Vbetraying
g26
tp1583
F1
s(VSpeech
g5
tp1584
F8
s(Vabsent
g46
tp1585
F1
s(Vsafetie
g7
tp1586
F1
s(g5
S'('
tp1587
F1
s(g108
g135
tp1588
F9
s(Vbehalfe
g7
tp1589
F4
s(VTake
g17
tp1590
F1
s(VSparrow
g5
tp1591
F1
s(VLawyeres
g5
tp1592
F1
s(VPhysitions
g341
tp1593
F1
s(g72
g19
tp1594
F9
s(Vhole
g7
tp1595
F1
s(Vshort
g86
tp1596
F1
s(Vthee
g7
tp1597
F1
s(VMay
g1365
tp1598
F4
s(Vreceived
g36
tp1599
F1
s(Vdoe
g27
tp1600
F2
s(Vwalking
g26
tp1601
F1
s(Vbeing
g140
tp1602
F23
s(VCantare
g5
tp1603
F1
s(VPhilomel
g5
tp1604
F7
s(VSheepe
g5
tp1605
F1
s(Vcrosse
g7
tp1606
F1
s(Vlove
g17
tp1607
F1
s(VFuit
g5
tp1608
F1
s(Vthornes
g27
tp1609
F1
s(Vtyed
g9
tp1610
F1
s(g17
g21
tp1611
F11
s(Vwont
g46
tp1612
F1
s(Vbraine
g7
tp1613
F1
s(VCorvino
g5
tp1614
F3
s(Vforthwith
g17
tp1615
F1
s(VPleasure
g5
tp1616
F1
s(Vhop
g4
tp1617
F1
s(Vleapt
g125
tp1618
F1
s(S'VBZ'
p1619
g17
tp1620
F2
s(VEagleship
g5
tp1621
F2
s(Vlong
g46
tp1622
F2
s(Vparchment
g7
tp1623
F1
s(Vswong
g46
tp1624
F1
s(Vshewed
g36
tp1625
F3
s(g9
S','
tp1626
F10
s(VLaw
g7
tp1627
F1
s(Vcommanded
g9
tp1628
F3
s(VMorgage
g7
tp1629
F1
s(g132
g26
tp1630
F4
s(g37
S'.'
tp1631
F14
s(g231
g26
tp1632
F7
s(Vbrevity
g7
tp1633
F1
s(Vknow
g7
tp1634
F1
s(Vyou
S'PRP'
p1635
tp1636
F48
s(Vpoints
g27
tp1637
F1
s(Vcruell
g7
tp1638
F1
s(Vcries
g125
tp1639
F1
s(Vworthy
g7
tp1640
F3
s(Vsecurely
g86
tp1641
F1
s(Vdayly
g36
tp1642
F1
s(g72
g515
tp1643
F1
s(Vbeloved
g36
tp1644
F5
s(g17
g86
tp1645
F8
s(Vbegin
g17
tp1646
F1
s(Vcharging
g26
tp1647
F1
s(Vproclaime
g46
tp1648
F1
s(Vthat
g85
tp1649
F77
s(S','
g125
tp1650
F7
s(Vbeare
g17
tp1651
F2
s(Vseale
g7
tp1652
F1
s(Vtrechery
g7
tp1653
F1
s(g5
g820
tp1654
F2
s(Vstanding
g26
tp1655
F1
s(S','
g108
tp1656
F13
s(Vgriefe
g7
tp1657
F1
s(Vwritten
g412
tp1658
F1
s(g27
g1381
tp1659
F1
s(Vsing
g4
tp1660
F1
s(g72
g36
tp1661
F8
s(Vequally
g86
tp1662
F2
s(Vseate
g7
tp1663
F1
s(Vdoth
g1263
tp1664
F1
s(g27
g779
tp1665
F15
s(Vgrave
g7
tp1666
F1
s(Vwomen
S'NNS'
p1667
tp1668
F1
s(Vsingle
S'JJ'
p1669
tp1670
F1
s(g17
g27
tp1671
F4
s(VColumber
g5
tp1672
F1
s(Vcrowne
g7
tp1673
F1
s(VStarling
g5
tp1674
F2
s(Vpicke
g4
tp1675
F1
s(Vdelight
g17
tp1676
F1
s(Vleave
g46
tp1677
F1
s(Vhand
S'NN'
p1678
tp1679
F2
s(Vshee
g7
tp1680
F1
s(Vthinke
g4
tp1681
F4
s(Vauthority
g7
tp1682
F1
s(VSubiects
g341
tp1683
F3
s(Vjoy
g7
tp1684
F1
s(Vthough
g85
tp1685
F6
s(g36
g86
tp1686
F9
s(Vthose
g1529
tp1687
F3
s(Vrosted
g9
tp1688
F1
s(g46
g94
tp1689
F1
s(Vwaggish
g46
tp1690
F1
s(Vwrongs
g27
tp1691
F2
s(Vskill
g36
tp1692
F1
s(Vwing
g7
tp1693
F7
s(g46
g46
tp1694
F9
s(Vhide
g17
tp1695
F1
s(g137
g65
tp1696
F4
s(VMercy
g5
tp1697
F1
s(VOwles
g5
tp1698
F2
s(Vexpose
g17
tp1699
F1
s(VTrayter
g5
tp1700
F1
s(g85
g123
tp1701
F3
s(V,
S','
tp1702
F619
s(Vuntimely
g46
tp1703
F1
s(Vhated
g36
tp1704
F1
s(VCuckoo
g5
tp1705
F11
s(g5
g73
tp1706
F16
s(Vwalking
g46
tp1707
F1
s(Vthings
S'NNS'
p1708
tp1709
F2
s(VLacedemonians
g341
tp1710
F4
s(V?
S'.'
tp1711
F2
s(g132
g149
tp1712
F1
s(S','
g26
tp1713
F27
s(Vprofesse
g4
tp1714
F1
s(Vstickes
g27
tp1715
F2
s(Vpaines
g27
tp1716
F3
s(Vraigne
g7
tp1717
F1
s(Vweake
g46
tp1718
F1
s(Vfast
g86
tp1719
F1
s(Vsame
S'JJ'
p1720
tp1721
F4
s(Vshew
g4
tp1722
F2
s(Vleft
g9
tp1723
F1
s(Vnihil
g27
tp1724
F1
s(VOke
g5
tp1725
F1
s(g148
g26
tp1726
F1
s(Vhid
g7
tp1727
F1
s(Vattention
S'NN'
p1728
tp1729
F2
s(Vgot
g36
tp1730
F1
s(VAt
S'IN'
p1731
tp1732
F2
s(g27
S'('
tp1733
F1
s(Vsometimes
g86
tp1734
F2
s(Vprinciples
g27
tp1735
F1
s(Vmost
g1277
tp1736
F1
s(g21
g275
tp1737
F5
s(Vlands
g27
tp1738
F1
s(Vwhatsoever
g125
tp1739
F1
s(Vhimselfe
g46
tp1740
F2
s(Vesteemed
g9
tp1741
F3
s(g1124
g1326
tp1742
F5
s(Vmee
g7
tp1743
F1
s(Vbefore
g86
tp1744
F2
s(Vroyall
g46
tp1745
F1
s(Vnecke
g7
tp1746
F1
s(Vdiligent
g46
tp1747
F1
s(Vfire
g7
tp1748
F1
s(Vpreheminence
g17
tp1749
F1
s(Venditement
g7
tp1750
F1
s(g5
g27
tp1751
F5
s(Vdeserve
g4
tp1752
F1
s(Vkin
g46
tp1753
F2
s(S'VBP'
p1754
g9
tp1755
F1
s(Vfinde
g17
tp1756
F6
s(VPower
g5
tp1757
F1
s(Votherwise
g86
tp1758
F1
s(Vmelodious
g46
tp1759
F1
s(Vstill
S'RB'
p1760
tp1761
F5
s(Vwhich
g108
tp1762
F30
s(Vshort
g46
tp1763
F1
s(Vgranted
g9
tp1764
F1
s(Voffer
g7
tp1765
F1
s(Vhands
g27
tp1766
F3
s(Vbring
g46
tp1767
F1
s(g86
g162
tp1768
F1
s(Vfit
g46
tp1769
F1
s(Vkeeping
g692
tp1770
F1
s(Vtherefore
g4
tp1771
F2
s(Vpromising
g26
tp1772
F1
s(Vhead
g7
tp1773
F10
s(g99
g36
tp1774
F15
s(VLord
g5
tp1775
F1
s(g5
g86
tp1776
F3
s(Vchance
S'NN'
p1777
tp1778
F2
s(S','
g162
tp1779
F216
s(Vpromise
g17
tp1780
F1
s(Vdare
g4
tp1781
F2
s(S','
g5
tp1782
F29
s(Vcondition
g7
tp1783
F1
s(g94
g135
tp1784
F1
s(Vproved
g9
tp1785
F2
s(Vhath
g125
tp1786
F2
s(g297
g11
tp1787
F12
s(g291
g5
tp1788
F4
s(VLeaves
g5
tp1789
F1
s(Vtherein
g86
tp1790
F2
s(g85
g17
tp1791
F1
s(g140
g412
tp1792
F11
s(Vbeene
g7
tp1793
F3
s(VMouse
g5
tp1794
F1
s(Vworst
g94
tp1795
F1
s(g7
g9
tp1796
F40
s(g178
g17
tp1797
F20
s(Vsayes
g17
tp1798
F1
s(g474
g820
tp1799
F28
s(Vhens
g27
tp1800
F2
s(Vafterward
g86
tp1801
F5
s(Vonely
g86
tp1802
F6
s(g5
g58
tp1803
F3
s(S')'
g73
tp1804
F1
s(Vdeserveth
g17
tp1805
F1
s(VKnowledge
g5
tp1806
F1
s(Vinventing
g26
tp1807
F1
s(Vwhile
g17
tp1808
F1
s(Vopinion
S'NN'
p1809
tp1810
F3
s(Vwhole
g46
tp1811
F3
s(g58
g26
tp1812
F2
s(Vtooles
g125
tp1813
F1
s(Vmorning
S'NN'
p1814
tp1815
F2
s(g7
g86
tp1816
F7
s(Vmade
g9
tp1817
F9
s(VPoet
g5
tp1818
F2
s(g341
S'.'
tp1819
F1
s(Vboldly
g86
tp1820
F2
s(Vslaying
g26
tp1821
F1
s(Voffences
g27
tp1822
F5
s(g448
g162
tp1823
F2
s(Vnever
g359
tp1824
F6
s(Vhave
g4
tp1825
F29
s(Vflye
g4
tp1826
F1
s(Vway
g510
tp1827
F7
s(Vayme
g7
tp1828
F1
s(VArt
g5
tp1829
F2
s(Vallotted
g36
tp1830
F1
s(Vbeene
g36
tp1831
F2
s(VRubert
g17
tp1832
F1
s(VLinguist
g7
tp1833
F1
s(Vplace
g7
tp1834
F3
s(Vassurance
g7
tp1835
F1
s(Vfolly
g7
tp1836
F1
s(Vcaused
g9
tp1837
F1
s(g1754
g115
tp1838
F3
s(VUertue
g5
tp1839
F1
s(g7
g162
tp1840
F22
s(g7
g27
tp1841
F15
s(Vcunning
g7
tp1842
F1
s(VRoy
S'NNP'
p1843
tp1844
F1
s(Vlives
g27
tp1845
F1
s(g5
g72
tp1846
F9
s(Vapplaud
g17
tp1847
F1
s(Vwish
g4
tp1848
F1
s(Vcondemne
g17
tp1849
F2
s(VIt
S'PRP'
p1850
tp1851
F1
s(VClarke
g5
tp1852
F1
s(Vflying
g26
tp1853
F3
s(g57
g975
tp1854
F1
s(S'('
g108
tp1855
F1
s(Vthereon
g7
tp1856
F1
s(VFlywill
g5
tp1857
F6
s(Ventreating
g26
tp1858
F1
s(VCaw
g5
tp1859
F1
s(Vcreepe
g4
tp1860
F1
s(Vlustily
g86
tp1861
F1
s(g162
g297
tp1862
F6
s(VBirds
g27
tp1863
F6
s(g37
g975
tp1864
F7
s(Vinstruct
g17
tp1865
F1
s(Vrise
g17
tp1866
F1
s(Vblinde
g7
tp1867
F1
s(g474
g108
tp1868
F1
s(g820
S')'
tp1869
F1
s(Vcellers
g27
tp1870
F1
s(Vman
S'NN'
p1871
tp1872
F2
s(Vinuiry
g7
tp1873
F1
s(VCockpit
g5
tp1874
F1
s(VTyrant
g5
tp1875
F1
s(Vtooke
g36
tp1876
F1
s(g27
S'.'
tp1877
F20
s(Vlittle
g46
tp1878
F5
s(g9
g5
tp1879
F10
s(Vsent
g36
tp1880
F1
s(S','
S'IN'
p1881
tp1882
F111
s(S':'
g975
tp1883
F3
s(g86
S'.'
tp1884
F5
s(Vsoone
g7
tp1885
F1
s(g106
g5
tp1886
F306
s(Vthat
g108
tp1887
F5
s(Vsafe
g46
tp1888
F1
s(Vsway
g7
tp1889
F1
s(Vfetch
g17
tp1890
F1
s(g29
g26
tp1891
F3
s(Vdirectly
S'RB'
p1892
tp1893
F1
s(Vappeare
g17
tp1894
F5
s(VLovers
g5
tp1895
F1
s(VSexton
g5
tp1896
F1
s(Vnimble
g46
tp1897
F1
s(Vold
g1029
tp1898
F3
s(S':'
g5
tp1899
F2
s(Vsweete
g46
tp1900
F5
s(VThat
g85
tp1901
F1
s(g57
g72
tp1902
F1
s(g106
g135
tp1903
F9
s(V'd
g7
tp1904
F1
s(VCocke
g5
tp1905
F6
s(g72
g192
tp1906
F11
s(Vhigh
g46
tp1907
F2
s(g5
g137
tp1908
F1
s(Vfar
S'RB'
p1909
tp1910
F1
s(Vrespect
g17
tp1911
F1
s(Vride
g17
tp1912
F1
s(Vsatisfie
g9
tp1913
F1
s(Vor
g178
tp1914
F23
s(Vup
g21
tp1915
F6
s(Vcarried
g9
tp1916
F2
s(Vflew
g36
tp1917
F1
s(g1305
S'('
tp1918
F1
s(Vsit
g4
tp1919
F1
s(Vmouth
g7
tp1920
F1
s(Vaod
g7
tp1921
F1
s(VMars
g5
tp1922
F1
s(Vboth
g106
tp1923
F1
s(g58
g36
tp1924
F26
s(Vvertues
g27
tp1925
F1
s(Vvalour
g7
tp1926
F1
s(VWren
g5
tp1927
F8
s(g169
g249
tp1928
F3
s(VWill
g5
tp1929
F1
s(Vplease
g17
tp1930
F4
s(Vneither
g1263
tp1931
F1
s(VSpeech
g7
tp1932
F1
s(Vfaire
g46
tp1933
F1
s(Vand
g162
tp1934
F224
s(Vlive
g46
tp1935
F1
s(Vcraft
g7
tp1936
F3
s(Vfacts
g27
tp1937
F1
s(Vcrimes
g27
tp1938
F1
s(VQuailes
g5
tp1939
F1
s(Vjustice
g7
tp1940
F1
s(Vfurther
g46
tp1941
F1
s(Vguilty
S'JJ'
p1942
tp1943
F2
s(Vdoes
g1619
tp1944
F2
s(g297
g46
tp1945
F3
s(Vsuffer
g17
tp1946
F2
s(Vmaides
g27
tp1947
F1
s(Vquite
g86
tp1948
F1
s(Vhee
g7
tp1949
F6
s(Vround
g4
tp1950
F2
s(g46
g73
tp1951
F14
s(Vwhereupon
g7
tp1952
F2
s(g9
g85
tp1953
F35
s(Vvoyces
g27
tp1954
F1
s(Vsubscribed
g36
tp1955
F1
s(VDitties
g27
tp1956
F1
s(V'd
g169
tp1957
F12
s(Vprivate
S'JJ'
p1958
tp1959
F1
s(Vabove
g85
tp1960
F1
s(VTom
g5
tp1961
F1
s(Veares
g27
tp1962
F3
s(VCosen
g5
tp1963
F5
s(g169
g36
tp1964
F1
s(Venjoy
g17
tp1965
F1
s(Vfilled
g36
tp1966
F1
s(g92
g46
tp1967
F3
s(g132
g94
tp1968
F13
s(VNightingall
g7
tp1969
F1
s(g46
S':'
tp1970
F1
s(Vscattered
g9
tp1971
F1
s(VCawwood
g9
tp1972
F1
s(VHavvkes
g5
tp1973
F1
s(g1754
g94
tp1974
F1
s(Vlet
g7
tp1975
F1
s(Vpraise
g7
tp1976
F2
s(Vtaste
g7
tp1977
F1
s(Vheare
g4
tp1978
F2
s(Vbury
g7
tp1979
F1
s(Vcomplaints
g27
tp1980
F2
s(Vcold
g46
tp1981
F2
s(V(
S'('
tp1982
F11
s(g249
g73
tp1983
F16
s(g132
g60
tp1984
F9
s(Vset
g4
tp1985
F1
s(g431
g125
tp1986
F19
s(Vuniust
g46
tp1987
F1
s(g137
g610
tp1988
F2
s(g17
g162
tp1989
F3
s(Vanother
g1545
tp1990
F2
s(Vwindes
g27
tp1991
F1
s(VTalents
g27
tp1992
F3
s(g297
g149
tp1993
F1
s(Vlay
g94
tp1994
F1
s(Vdischarged
g36
tp1995
F2
s(Vfetching
g26
tp1996
F1
s(Vpraeterea
g46
tp1997
F1
s(Vthing
S'NN'
p1998
tp1999
F1
s(Vstampe
g7
tp2000
F1
s(Vcompassionate
g17
tp2001
F1
s(Vclift
g7
tp2002
F1
s(VAquila
g5
tp2003
F1
s(g4
g72
tp2004
F1
s(Vdayes
g7
tp2005
F1
s(VSwinge
g7
tp2006
F1
s(g86
g476
tp2007
F2
s(VAs
g85
tp2008
F1
s(VRobin
g5
tp2009
F9
s(Vcredas
g7
tp2010
F1
s(Vhave
g17
tp2011
F15
s(VParentage
g5
tp2012
F1
s(S':'
g162
tp2013
F15
s(V&
g1263
tp2014
F6
s(Vdanger
g17
tp2015
F1
s(VWinter
g5
tp2016
F2
s(g99
g92
tp2017
F1
s(Vlooking
S'VBG'
p2018
tp2019
F1
s(Vmany
g820
tp2020
F20
s(Vfirst
g46
tp2021
F4
s(Vlower
g60
tp2022
F1
s(Vspeech
g7
tp2023
F16
s(Vbacke
g17
tp2024
F1
s(Vsuch
g46
tp2025
F5
s(g27
g7
tp2026
F4
s(Vsit
g17
tp2027
F1
s(Vshot
g9
tp2028
F3
s(g192
g46
tp2029
F108
s(g36
g36
tp2030
F1
s(Vbehoveth
g125
tp2031
F2
s(g140
S','
tp2032
F3
s(Vcruell
g36
tp2033
F1
s(g86
g7
tp2034
F5
s(Vselfe
g46
tp2035
F2
s(g106
g72
tp2036
F2
s(g215
g137
tp2037
F2
s(VWhen
S'WRB'
p2038
tp2039
F4
s(Vheadach
g7
tp2040
F1
s(g137
g149
tp2041
F4
s(Vunknowne
g46
tp2042
F1
s(g1277
g86
tp2043
F1
s(Vpreferment
g7
tp2044
F1
s(Vcolour
g7
tp2045
F2
s(Vhistories
g27
tp2046
F1
s(Vere
g86
tp2047
F1
s(Vbreeding
g7
tp2048
F1
s(VPitfall
g5
tp2049
F3
s(Veasily
S'RB'
p2050
tp2051
F1
s(Vspeeches
g27
tp2052
F4
s(VAiry
g5
tp2053
F1
s(Vchattering
g26
tp2054
F1
s(Vperceiving
g26
tp2055
F1
s(VRubert
g5
tp2056
F6
s(Vshew
g17
tp2057
F6
s(Vsince
S'IN'
p2058
tp2059
F4
s(Vheaded
g9
tp2060
F1
s(Vthousand
g46
tp2061
F1
s(Vbetter
g60
tp2062
F5
s(Vomit
g4
tp2063
F1
s(Vpublike
g46
tp2064
F2
s(Vknow
g4
tp2065
F8
s(g7
g4
tp2066
F1
s(g108
g72
tp2067
F8
s(Vflye
g17
tp2068
F1
s(Vcunning
g26
tp2069
F4
s(Vreward
g7
tp2070
F2
s(g85
g249
tp2071
F138
s(Vformerly
g86
tp2072
F1
s(VTraytor
g5
tp2073
F1
s(Vhope
g7
tp2074
F3
s(VAnser
g5
tp2075
F2
s(VScepter
g5
tp2076
F5
s(Vdunghill
g7
tp2077
F1
s(Vseeke
g17
tp2078
F1
s(Vpart
S'NN'
p2079
tp2080
F1
s(g37
g1305
tp2081
F37
s(g17
g85
tp2082
F50
s(g4
S'.'
tp2083
F3
s(g5
g5
tp2084
F27
s(VLanguages
g5
tp2085
F2
s(VMavis
g5
tp2086
F3
s(Vwhereon
g7
tp2087
F2
s(g341
g17
tp2088
F1
s(Vunderneath
g85
tp2089
F1
s(VIackdawes
g5
tp2090
F2
s(Vhimselfe
g7
tp2091
F11
s(Vclappe
g17
tp2092
F2
s(Vdeclared
g9
tp2093
F1
s(Vnext
g46
tp2094
F3
s(g4
g27
tp2095
F2
s(g86
g86
tp2096
F22
s(Vbid
g9
tp2097
F1
s(VHawkes
g5
tp2098
F6
s(Vtherefore
g17
tp2099
F1
s(VLatin
g5
tp2100
F1
s(Vbelov
g46
tp2101
F1
s(Vkindnesse
g7
tp2102
F1
s(VCourt
S'NNP'
p2103
tp2104
F11
s(Vthought
g9
tp2105
F2
s(VWood
g5
tp2106
F3
s(g26
g942
tp2107
F1
s(Vguts
g27
tp2108
F1
s(Vvoice
g7
tp2109
F1
s(Vunto
g46
tp2110
F2
s(g275
S','
tp2111
F1
s(Vboy
g7
tp2112
F2
s(g7
g36
tp2113
F9
s(g73
g132
tp2114
F28
s(Vbesides
g27
tp2115
F2
s(VTable
g46
tp2116
F1
s(Vraine
g7
tp2117
F1
s(Vended
g9
tp2118
F1
s(Vill
g46
tp2119
F1
s(Vamongst
g9
tp2120
F1
s(g27
g46
tp2121
F3
s(Vvoyce
g46
tp2122
F1
s(Vunable
g46
tp2123
F1
s(Vlaugh
g7
tp2124
F2
s(g1151
g132
tp2125
F3
s(VEvery
g5
tp2126
F1
s(g162
g140
tp2127
F18
s(Vseemes
g125
tp2128
F1
s(Vstrife
g46
tp2129
F1
s(Vbloody
g7
tp2130
F5
s(Vcircle
g7
tp2131
F1
s(g7
g140
tp2132
F2
s(Vsmaller
S'JJR'
p2133
tp2134
F1
s(Vsome
g330
tp2135
F15
s(Vcomming
g7
tp2136
F1
s(VFliwell
g5
tp2137
F1
s(Vdoe
g7
tp2138
F7
s(VMaybird
g5
tp2139
F4
s(Vheart
S'NN'
p2140
tp2141
F3
s(Vrespected
g36
tp2142
F1
s(Vnames
g27
tp2143
F1
s(VHowever
S'RB'
p2144
tp2145
F1
s(VSongs
g27
tp2146
F1
s(Vacknwledge
g17
tp2147
F1
s(Vapplause
g7
tp2148
F1
s(g60
g27
tp2149
F2
s(Vbarley
g7
tp2150
F1
s(Viniury
g7
tp2151
F1
s(Vdead
g46
tp2152
F3
s(Vwings
g27
tp2153
F3
s(Vwhere
g1381
tp2154
F2
s(VSo
g86
tp2155
F4
s(Vlove
g4
tp2156
F1
s(Vappeareth
g7
tp2157
F1
s(Vcease
g17
tp2158
F1
s(g86
g4
tp2159
F4
s(VWoodcocke
g5
tp2160
F4
s(Vare
g858
tp2161
F11
s(S')'
g975
tp2162
F3
s(g17
S','
tp2163
F17
s(Vstrawes
g7
tp2164
F2
s(Vcatch
g17
tp2165
F1
s(Vlearned
g9
tp2166
F1
s(Vpurposed
g36
tp2167
F1
s(Vseene
g36
tp2168
F3
s(Vsate
g4
tp2169
F3
s(Vdesiring
g7
tp2170
F1
s(g476
g99
tp2171
F16
s(VNo
g106
tp2172
F1
s(VPoeticke
g5
tp2173
F1
s(Vabundance
g7
tp2174
F1
s(g973
g108
tp2175
F2
s(Vtherein
g7
tp2176
F1
s(g125
g29
tp2177
F2
s(Vlines
S'NNS'
p2178
tp2179
F1
s(Vdoth
g125
tp2180
F1
s(Veffected
g36
tp2181
F1
s(Vscratching
g26
tp2182
F1
s(g278
g178
tp2183
F2
s(Vbeeing
g26
tp2184
F1
s(Vcontinued
g9
tp2185
F1
s(VWoods
g5
tp2186
F2
s(Vcut
g17
tp2187
F1
s(Vthat
g106
tp2188
F16
s(Vhoure
g7
tp2189
F1
s(Vurges
g125
tp2190
F1
s(Vvoyce
g7
tp2191
F5
s(Vplucke
g17
tp2192
F1
s(Vrequired
g36
tp2193
F1
s(g72
g381
tp2194
F10
s(Vstoope
g4
tp2195
F1
s(Vbreath
g7
tp2196
F1
s(Vought
g169
tp2197
F4
s(Vdisgrace
g7
tp2198
F1
s(Vnecessity
g7
tp2199
F1
s(Vbacke
g7
tp2200
F1
s(Vbirding
g26
tp2201
F1
s(VShepherds
g27
tp2202
F1
s(Vbeare
g4
tp2203
F1
s(g36
g73
tp2204
F9
s(Vas
g85
tp2205
F46
s(VSo
g85
tp2206
F1
s(g1371
g132
tp2207
F5
s(Vrather
S'RB'
p2208
tp2209
F1
s(Vdistributed
g9
tp2210
F1
s(VPye
g5
tp2211
F3
s(g106
g27
tp2212
F34
s(Vcomplained
g9
tp2213
F1
s(VCarrion
g5
tp2214
F1
s(Vproofe
g7
tp2215
F1
s(g26
g85
tp2216
F17
s(Vgreat
S'JJ'
p2217
tp2218
F16
s(VPolicy
g5
tp2219
F1
s(g278
g125
tp2220
F1
s(Vof
g215
tp2221
F147
s(Vmaymed
g9
tp2222
F1
s(Vchange
g7
tp2223
F1
s(Vduring
g1881
tp2224
F2
s(S','
g7
tp2225
F21
s(Vstood
g9
tp2226
F3
s(Vstring
g7
tp2227
F1
s(g21
g73
tp2228
F1
s(Vclout
g7
tp2229
F2
s(Vgoverne
g17
tp2230
F2
s(Vcrime
S'NN'
p2231
tp2232
F1
s(g7
g39
tp2233
F1
s(Vchildrens
g27
tp2234
F1
s(Vlay
g9
tp2235
F1
s(Vfoote
g7
tp2236
F1
s(Vperceived
g9
tp2237
F3
s(Vtreading
g7
tp2238
F1
s(S':'
g108
tp2239
F2
s(g36
g92
tp2240
F1
s(g341
S','
tp2241
F5
s(Vmelos
g7
tp2242
F1
s(Vlighted
g9
tp2243
F1
s(Vprove
g4
tp2244
F1
s(Vchuse
g17
tp2245
F2
s(Vrunne
g125
tp2246
F1
s(Vended
g36
tp2247
F1
s(Vwelfare
g7
tp2248
F1
s(Vevery
g504
tp2249
F5
s(g108
g132
tp2250
F1
s(Vwhatsoever
g86
tp2251
F1
s(Vperill
g7
tp2252
F1
s(Vlight
g46
tp2253
F1
s(Vtimes
g27
tp2254
F6
s(Vdesire
g7
tp2255
F1
s(g135
g140
tp2256
F7
s(Vdeceived
g36
tp2257
F1
s(Vcall
g4
tp2258
F1
s(Vskill
g7
tp2259
F1
s(Vbelongeth
g125
tp2260
F1
s(Vbeseech
g4
tp2261
F1
s(VKings
g5
tp2262
F4
s(Vstraight
g9
tp2263
F2
s(g792
g27
tp2264
F2
s(Vyet
g86
tp2265
F18
s(g96
g132
tp2266
F15
s(Vmuch
g86
tp2267
F4
s(Vthy
g46
tp2268
F1
s(g36
g576
tp2269
F2
s(Vtongue
g7
tp2270
F3
s(g416
g96
tp2271
F1
s(g46
g39
tp2272
F2
s(Vrecord
g7
tp2273
F1
s(g7
S')'
tp2274
F3
s(Vprepare
g17
tp2275
F1
s(Vdid
g902
tp2276
F5
s(Vsaid
S'VBD'
p2277
tp2278
F2
s(Vconsider
g17
tp2279
F2
s(g792
g36
tp2280
F2
s(Venable
g17
tp2281
F1
s(VLambe
g5
tp2282
F1
s(Vwhile
g7
tp2283
F4
s(Vlegge
g7
tp2284
F2
s(Vprotect
g17
tp2285
F1
s(Vindeede
g7
tp2286
F1
s(Vcomplaint
g7
tp2287
F2
s(Vyet
g1263
tp2288
F2
s(Vworme
g7
tp2289
F1
s(Vpeaceably
g86
tp2290
F1
s(Vmother
g7
tp2291
F3
s(Vforth
g7
tp2292
F3
s(Vpicas
g7
tp2293
F1
s(VPegascium
g5
tp2294
F1
s(VDesarts
g27
tp2295
F1
s(Vhorse
g7
tp2296
F1
s(Valso
S'RB'
p2297
tp2298
F2
s(Vlies
g125
tp2299
F1
s(g4
g395
tp2300
F12
s(VPartridges
g5
tp2301
F1
s(Vpulled
g36
tp2302
F1
s(VPolitition
g7
tp2303
F1
s(S':'
g86
tp2304
F1
s(Vstraines
g27
tp2305
F1
s(Vfamiliarity
g7
tp2306
F1
s(Vgenerally
S'RB'
p2307
tp2308
F1
s(g975
g5
tp2309
F5
s(Vwilling
S'JJ'
p2310
tp2311
F1
s(Vsake
g7
tp2312
F1
s(Vshiftings
g27
tp2313
F1
s(Vfurthers
g125
tp2314
F1
s(Vpeece
g7
tp2315
F1
s(VWelchmen
g27
tp2316
F1
s(g17
g7
tp2317
F30
s(Vif
g1390
tp2318
F23
s(g106
g36
tp2319
F2
s(VProgne
g5
tp2320
F1
s(g1754
g96
tp2321
F1
s(Vbird
g9
tp2322
F1
s(VWood
g7
tp2323
F2
s(Vbread
g46
tp2324
F1
s(g27
S':'
tp2325
F7
s(Vshed
g17
tp2326
F1
s(Vwas
g9
tp2327
F50
s(Vbrought
g36
tp2328
F4
s(VKing
g5
tp2329
F18
s(Vthither
g86
tp2330
F1
s(Vafraid
g46
tp2331
F1
s(Vdie
g17
tp2332
F2
s(VNature
g5
tp2333
F1
s(Vsufferings
g27
tp2334
F1
s(Vwhy
g305
tp2335
F5
s(VSpring
g7
tp2336
F2
s(VTemperance
g5
tp2337
F1
s(Vhelpe
g17
tp2338
F1
s(Vpower
S'NN'
p2339
tp2340
F6
s(g125
g4
tp2341
F1
s(Vstand
g17
tp2342
F4
s(g137
g19
tp2343
F2
s(VMay-
g5
tp2344
F1
s(g73
g37
tp2345
F7
s(Vanswer
g17
tp2346
F1
s(g275
g29
tp2347
F1
s(Vsets
g125
tp2348
F1
s(Vdoubting
g26
tp2349
F1
s(Vwatcht
g9
tp2350
F1
s(Vreade
g7
tp2351
F1
s(Vfolded
g36
tp2352
F1
s(Vvery
g86
tp2353
F6
s(Vglad
g46
tp2354
F3
s(g72
S','
tp2355
F4
s(Vbefore
g85
tp2356
F5
s(g36
g4
tp2357
F1
s(Vgive
g46
tp2358
F1
s(VBut
g1133
tp2359
F9
s(Vwalke
g17
tp2360
F1
s(Vindeede
g85
tp2361
F1
s(VMelodies
g27
tp2362
F1
s(Vhad
g9
tp2363
F46
s(Vam
g1754
tp2364
F22
s(Vwarrant
g7
tp2365
F1
s(Vleast
g94
tp2366
F3
s(Vstrength
S'NN'
p2367
tp2368
F1
s(Vpromised
g9
tp2369
F1
s(Vwing
g26
tp2370
F1
s(Vpeace
g7
tp2371
F1
s(g21
g86
tp2372
F3
s(Valwayes
g27
tp2373
F3
s(Vbirding-peece
g7
tp2374
F1
s(Vfed
g7
tp2375
F1
s(g21
g132
tp2376
F6
s(g157
g115
tp2377
F1
s(Vsate
g7
tp2378
F3
s(Vlost
g9
tp2379
F1
s(Vknew
g9
tp2380
F1
s(Vgenerous
g46
tp2381
F1
s(g162
g73
tp2382
F8
s(Vthinking
g7
tp2383
F1
s(Vafterwards
g27
tp2384
F1
s(VKingly
g5
tp2385
F2
s(Vthis
g1357
tp2386
F28
s(Vappeares
g27
tp2387
F2
s(g341
g7
tp2388
F2
s(g1263
g1371
tp2389
F2
s(Vmeete
g46
tp2390
F1
s(g2140
g72
tp2391
F9
s(Vout
g85
tp2392
F9
s(g108
g4
tp2393
F5
s(Vdarling
g7
tp2394
F1
s(VMosse
g5
tp2395
F1
s(Vhusband
g7
tp2396
F1
s(Vtoward
S'IN'
p2397
tp2398
F1
s(Vground
g7
tp2399
F2
s(Vcompany
S'NN'
p2400
tp2401
F2
s(g17
g137
tp2402
F3
s(VPallas
g5
tp2403
F1
s(g341
g26
tp2404
F1
s(g17
g29
tp2405
F44
s(Vpurpose
g7
tp2406
F2
s(Vname
g7
tp2407
F1
s(Vcry
g46
tp2408
F1
s(Vworke
g7
tp2409
F1
s(Vset
g7
tp2410
F1
s(Vready
g46
tp2411
F3
s(Vlaughed
g36
tp2412
F1
s(Vmalitious
g46
tp2413
F1
s(VRex
g5
tp2414
F2
s(Vtagges
g27
tp2415
F1
s(Vrainy
g46
tp2416
F1
s(Vprey
g17
tp2417
F1
s(Vretiring
g7
tp2418
F1
s(VNest
g5
tp2419
F1
s(Vindeede
g46
tp2420
F1
s(Vonly
g86
tp2421
F1
s(VSoveraigne
g5
tp2422
F1
s(VMaiestie
g5
tp2423
F2
s(Vwont
g4
tp2424
F1
s(Vbrest
g7
tp2425
F1
s(Vtrue
S'JJ'
p2426
tp2427
F4
s(Vbeleeve
g17
tp2428
F3
s(g5
S','
tp2429
F159
s(VRobert
S'NNP'
p2430
tp2431
F2
s(Vas
g86
tp2432
F3
s(Vforked
g46
tp2433
F1
s(VTereneus
g5
tp2434
F2
s(g58
g94
tp2435
F1
s(S')'
g9
tp2436
F1
s(Vfrosty
g46
tp2437
F1
s(g4
g57
tp2438
F1
s.