ccollections
defaultdict
p1
(c__builtin__
float
p2
tRp3
(S'VBP'
p4
S'NNP'
p5
tp6
F1
s(Vwe
S'PRP'
p7
tp8
F1
s(Vjust
S'RB'
p9
tp10
F1
s(S'VB'
p11
S'.'
tp12
F1
s(S'IN'
p13
S'NN'
p14
tp15
F14
s(Vtriumphs
g14
tp16
F1
s(S'VBG'
p17
S'NNS'
p18
tp19
F2
s(S'RBS'
p20
S'DT'
p21
tp22
F1
s(Vvaliantly
S'RB'
p23
tp24
F1
s(Vmajestick
S'JJ'
p25
tp26
F1
s(g14
g14
tp27
F3
s(S'WP'
p28
S'MD'
p29
tp30
F1
s(S'RB'
p31
S'.'
tp32
F1
s(S'DT'
p33
g5
tp34
F1
s(Vagainst
S'IN'
p35
tp36
F1
s(VLastly
g23
tp37
F1
s(Vthat
S'WDT'
p38
tp39
F1
s(Vsuffers
S'VBZ'
p40
tp41
F1
s(S'PRP'
p42
S'MD'
p43
tp44
F1
s(S','
S'WRB'
p45
tp46
F1
s(Vcelebrate
g11
tp47
F1
s(g42
S'VB'
p48
tp49
F2
s(Vlead
g11
tp50
F1
s(S'VBG'
p51
g23
tp52
F1
s(Vwould
g43
tp53
F2
s(Vupon
S'IN'
p54
tp55
F1
s(Vappeare
g11
tp56
F1
s(Vfrom
S'IN'
p57
tp58
F4
s(Vset
S'VBD'
p59
tp60
F1
s(Vinspired
g25
tp61
F1
s(Vthe
g33
tp62
F25
s(Vwith
S'IN'
p63
tp64
F4
s(Vbeside
g54
tp65
F1
s(S'VBZ'
p66
g33
tp67
F3
s(Vhigh
g25
tp68
F2
s(g5
g4
tp69
F2
s(Vdayly
g14
tp70
F1
s(Vworship
g14
tp71
F1
s(VKingdoms
g5
tp72
F1
s(g40
S'TO'
p73
tp74
F1
s(Vor
S'CC'
p75
tp76
F3
s(Vdelight
g14
tp77
F1
s(Vup
S'RP'
p78
tp79
F1
s(S'('
g54
tp80
F1
s(Vrelapses
g18
tp81
F1
s(Vlife
S'NN'
p82
tp83
F1
s(VMartyrs
g5
tp84
F1
s(Vboth
g21
tp85
F1
s(g13
g9
tp86
F1
s(Vintermingling
g17
tp87
F1
s(VPoetasters
g18
tp88
F1
s(g48
S'VBN'
p89
tp90
F2
s(Vbenefit
g14
tp91
F1
s(Vabilities
g18
tp92
F1
s(S','
S'VBP'
p93
tp94
F1
s(Vhalleluja
g14
tp95
F1
s(S'JJS'
p96
S'NNS'
p97
tp98
F1
s(Vnow
S'RB'
p99
tp100
F1
s(Vyouth
g14
tp101
F1
s(S'RB'
p102
g11
tp103
F1
s(S'DT'
p104
g43
tp105
F1
s(Vguift
g14
tp106
F1
s(g17
g78
tp107
F1
s(g104
S'PRP$'
p108
tp109
F1
s(g14
g38
tp110
F1
s(S','
g28
tp111
F1
s(Vand
S'CC'
p112
tp113
F36
s(S'CC'
p114
g33
tp115
F4
s(Vdescribe
g14
tp116
F1
s(S','
S'MD'
p117
tp118
F1
s(g89
g63
tp119
F1
s(S'RB'
p120
g89
tp121
F2
s(S','
S'DT'
p122
tp123
F2
s(g5
g33
tp124
F1
s(Vappear
g4
tp125
F2
s(g14
S'NNPS'
p126
tp127
F1
s(Vvictorious
g25
tp128
F1
s(Vjustice
g14
tp129
F1
s(g4
S','
tp130
F1
s(S'MD'
p131
g11
tp132
F5
s(g21
S'DT'
p133
tp134
F1
s(Vsolid
g25
tp135
F1
s(Vscars
g18
tp136
F1
s(g13
S'DT'
p137
tp138
F17
s(g25
g131
tp139
F2
s(g25
g42
tp140
F1
s(Vlibidinous
g25
tp141
F1
s(VChrist
g5
tp142
F1
s(S')'
S'IN'
p143
tp144
F1
s(g25
g73
tp145
F1
s(S'POS'
p146
g112
tp147
F1
s(Vfaith
g14
tp148
F1
s(Vwere
S'VBD'
p149
tp150
F1
s(Vbeyond
S'IN'
p151
tp152
F1
s(g5
g112
tp153
F3
s(S','
g143
tp154
F4
s(g112
g59
tp155
F1
s(Vover
g54
tp156
F2
s(V'd
g29
tp157
F1
s(Voccasion
g25
tp158
F1
s(Van
g21
tp159
F1
s(S'PRP$'
p160
g14
tp161
F7
s(Vmatter
g14
tp162
F1
s(VTeaching
g17
tp163
F1
s(g23
g96
tp164
F2
s(Vjudicious
g25
tp165
F1
s(g97
g4
tp166
F1
s(Venemies
g18
tp167
F1
s(g5
g14
tp168
F3
s(g25
g54
tp169
F2
s(V's
g146
tp170
F1
s(g14
g25
tp171
F2
s(Vreligion
g14
tp172
F1
s(Vautority
g14
tp173
F1
s(V(
S'('
tp174
F1
s(g18
g112
tp175
F3
s(Vargument
g14
tp176
F1
s(g18
S','
tp177
F2
s(VAlmightinesse
g5
tp178
F1
s(Vhe
S'PRP'
p179
tp180
F2
s(g14
S'.'
tp181
F2
s(Vherselfe
g14
tp182
F1
s(Vsmoothnesse
g14
tp183
F1
s(g179
g40
tp184
F2
s(Vhath
g14
tp185
F1
s(g11
g112
tp186
F1
s(S'RB'
p187
g143
tp188
F5
s(VLyrick
g5
tp189
F1
s(Vall
g21
tp190
F2
s(S','
g25
tp191
F1
s(VPini
g5
tp192
F1
s(g54
S'PDT'
p193
tp194
F3
s(S'NN'
p195
g13
tp196
F17
s(g14
S','
tp197
F9
s(g93
g143
tp198
F5
s(Va
g137
tp199
F6
s(Vbook
S'NN'
p200
tp201
F1
s(Vcherish
g11
tp202
F1
s(Vsuttleties
g18
tp203
F1
s(Vmost
g96
tp204
F2
s(S':'
g112
tp205
F3
s(g59
g33
tp206
F1
s(g78
g112
tp207
F2
s(Vis
g66
tp208
F5
s(Vfrequent
g25
tp209
F1
s(Vsoft
g25
tp210
F1
s(Vsuch
g25
tp211
F1
s(g73
g17
tp212
F1
s(Vignorant
g25
tp213
F1
s(g23
S','
tp214
F2
s(Vwill
g29
tp215
F1
s(Vrugged
g89
tp216
F2
s(Vsee
g4
tp217
F1
s(Vwithout
S'IN'
p218
tp219
F1
s(g25
S','
tp220
F5
s(S'IN'
p221
g28
tp222
F1
s(Vlaw
S'NN'
p223
tp224
F1
s(g25
g195
tp225
F15
s(Vsuck
g4
tp226
F1
s(g33
g23
tp227
F2
s(Vever
S'RB'
p228
tp229
F1
s(Vfaulty
g14
tp230
F1
s(Vthoughts
g18
tp231
F1
s(g48
g25
tp232
F1
s(g11
S'DT'
p233
tp234
F3
s(Veasily
g120
tp235
F1
s(Vdelicious
g25
tp236
F1
s(Vwheresoever
g54
tp237
F1
s(Vchanges
g18
tp238
F1
s(g4
g160
tp239
F1
s(Vour
S'PRP$'
p240
tp241
F1
s(Vfortune
g11
tp242
F1
s(Vsufficient
g25
tp243
F1
s(Vknow
g4
tp244
F1
s(g82
g4
tp245
F1
s(g38
g66
tp246
F3
s(Vvertu
g14
tp247
F3
s(Vpaint
g11
tp248
F1
s(S','
g73
tp249
F6
s(g54
g42
tp250
F3
s(V:
S':'
tp251
F3
s(Vmade
g89
tp252
F1
s(Vequipage
g14
tp253
F1
s(g18
g18
tp254
F1
s(Vindeed
g31
tp255
F2
s(g11
g143
tp256
F3
s(Vwhatsoever
g45
tp257
F1
s(VSaint
g5
tp258
F1
s(g5
g5
tp259
F2
s(Vmind
g14
tp260
F1
s(g112
g5
tp261
F4
s(Vprovidence
g14
tp262
F1
s(Vsevenfold
g25
tp263
F1
s(Vsongs
g18
tp264
F1
s(g13
g5
tp265
F9
s(g187
g23
tp266
F2
s(g96
S','
tp267
F1
s(g149
g89
tp268
F1
s(Vthese
g133
tp269
F2
s(V)
S')'
tp270
F1
s(Vpaths
g18
tp271
F1
s(Vhaving
S'VBG'
p272
tp273
F1
s(Vconfirm
g11
tp274
F1
s(Vtune
g14
tp275
F1
s(g112
g126
tp276
F2
s(S'JJ'
p277
g31
tp278
F1
s(g57
g218
tp279
F2
s(g73
g11
tp280
F9
s(Vmy
g108
tp281
F1
s(Vlofty
g25
tp282
F1
s(g73
g122
tp283
F3
s(Vbe
g48
tp284
F7
s(Vbane
g14
tp285
F1
s(g21
g38
tp286
F2
s(g48
g120
tp287
F3
s(Vthings
g97
tp288
F2
s(Vheard
g23
tp289
F1
s(g25
g112
tp290
F8
s(g4
g99
tp291
F1
s(g14
S':'
tp292
F2
s(S'NNS'
p293
g33
tp294
F2
s(g133
S','
tp295
F1
s(g112
g17
tp296
F2
s(Vimitat
g11
tp297
F1
s(Vothers
S'NNS'
p298
tp299
F1
s(g21
g14
tp300
F9
s(Vincomparable
g25
tp301
F1
s(g25
g18
tp302
F7
s(g42
g4
tp303
F3
s(Vkinds
g18
tp304
F1
s(VOr
S'CC'
p305
tp306
F1
s(Vsing
g17
tp307
F1
s(Vsome
g122
tp308
F2
s(VTragedy
g5
tp309
F1
s(g143
S'PRP$'
p310
tp311
F4
s(Vsymphonies
g18
tp312
F1
s(Vthroughout
S'IN'
p313
tp314
F1
s(g93
g33
tp315
F1
s(g126
g112
tp316
F1
s(V'd
S'CD'
p317
tp318
F1
s(Vsanctity
g14
tp319
F1
s(g96
g221
tp320
F1
s(g14
g73
tp321
F2
s(VChorus
g14
tp322
F1
s(Vthrough
g54
tp323
F2
s(g317
S','
tp324
F1
s(Vshall
g131
tp325
F1
s(g112
g25
tp326
F13
s(Vall
g193
tp327
F4
s(Vin
g143
tp328
F14
s(g122
S'('
tp329
F1
s(Vbestow
g59
tp330
F1
s(Vare
g93
tp331
F3
s(Vinbreed
g11
tp332
F1
s(g38
g42
tp333
F1
s(Vgrave
g25
tp334
F1
s(Vtheir
g310
tp335
F3
s(g11
S','
tp336
F1
s(Vstately
g25
tp337
F1
s(g218
S','
tp338
F2
s(Vexample
S'NN'
p339
tp340
F1
s(g29
g187
tp341
F2
s(Vhonesty
g14
tp342
F1
s(g33
g25
tp343
F15
s(g25
S'.'
tp344
F1
s(Vglorious
g25
tp345
F1
s(g160
g23
tp346
F1
s(V.
S'.'
tp347
F5
s(S','
g187
tp348
F2
s(g45
g14
tp349
F1
s(g305
S'IN'
p350
tp351
F2
s(Vwhole
g25
tp352
F1
s(Vwily
g25
tp353
F1
s(VGods
g5
tp354
F2
s(g11
g78
tp355
F1
s(Vcorruption
g14
tp356
F1
s(Vpoesy
g14
tp357
F1
s(g112
g28
tp358
F3
s(Vthat
g21
tp359
F2
s(Vunlesse
g25
tp360
F1
s(g143
g96
tp361
F2
s(Vsolemn
g14
tp362
F1
s(g66
g25
tp363
F3
s(g23
g59
tp364
F1
s(g89
g112
tp365
F2
s(Vas
g54
tp366
F1
s(VHymns
g5
tp367
F2
s(g122
g298
tp368
F14
s(g17
g33
tp369
F1
s(g17
g54
tp370
F2
s(Vgreat
S'JJ'
p371
tp372
F1
s(Veasy
g25
tp373
F2
s(Vaffections
g18
tp374
F1
s(Vof
g13
tp375
F25
s(Vdeplore
g11
tp376
F1
s(Vby
g221
tp377
F1
s(Vmans
g18
tp378
F1
s(VThese
S'DT'
p379
tp380
F1
s(g89
S','
tp381
F1
s(Vguest
g96
tp382
F1
s(Vinterludes
g18
tp383
F1
s(VSaints
g5
tp384
F1
s(VApocalyps
g5
tp385
F1
s(VPareus
g5
tp386
F1
s(Vespecially
S'RB'
p387
tp388
F1
s(Valone
g23
tp389
F1
s(Vto
g73
tp390
F14
s(Vconsistence
g14
tp391
F1
s(Vadmiration
g14
tp392
F1
s(VActs
g126
tp393
F1
s(Vwithin
S'IN'
p394
tp395
F1
s(g112
g93
tp396
F1
s(S','
g38
tp397
F1
s(Vcommenting
g17
tp398
F1
s(Vevery
S'DT'
p399
tp400
F1
s(Vcall
g25
tp401
F1
s(Vwhatsoever
g23
tp402
F1
s(VStates
g126
tp403
F1
s(Vmen
S'NNS'
p404
tp405
F1
s(Vpulpit
g14
tp406
F1
s(g112
g18
tp407
F3
s(Vmain
S'JJ'
p408
tp409
F1
s(Vmagnifick
g25
tp410
F1
s(Vso
g23
tp411
F1
s(g298
g143
tp412
F17
s(Vyet
g23
tp413
F1
s(g193
g33
tp414
F4
s(Vtreatable
g25
tp415
F1
s(VOdes
g5
tp416
F1
s(Vthey
g42
tp417
F6
s(Vcomposition
g14
tp418
F1
s(g14
S')'
tp419
F1
s(VNation
g14
tp420
F1
s(Vcritical
S'JJ'
p421
tp422
F1
s(g14
g20
tp423
F1
s(Vdeeds
g18
tp424
F1
s(Vthough
g54
tp425
F3
s(Vcivility
g14
tp426
F1
s(Vthose
g233
tp427
F3
s(Vart
g14
tp428
F1
s(S'CC'
p429
g23
tp430
F1
s(Vholy
g25
tp431
F1
s(Vdifficult
g277
tp432
F2
s(Vamiable
g25
tp433
F1
s(S'NN'
p434
g33
tp435
F2
s(Vprophets
g18
tp436
F1
s(g126
g63
tp437
F2
s(g96
g14
tp438
F1
s(Vsublime
g25
tp439
F1
s(Vpleasant
g25
tp440
F2
s(VGod
g5
tp441
F1
s(Vbut
g429
tp442
F2
s(g11
g73
tp443
F3
s(Vdoing
g51
tp444
F1
s(Vseeds
g18
tp445
F1
s(V,
S','
tp446
F31
s(Vwrought
g89
tp447
F1
s(Vpeople
g293
tp448
F1
s(S','
g17
tp449
F1
s(g23
g421
tp450
F3
s(Vdarus
g14
tp451
F1
s(g23
g73
tp452
F1
s(Vwho
g28
tp453
F2
s(g28
g179
tp454
F3
s(Vif
g350
tp455
F1
s(Vnot
g187
tp456
F2
s(g17
g160
tp457
F1
s(VIohn
g5
tp458
F1
s(Vrefluxes
g18
tp459
F1
s(Vtemper
g14
tp460
F1
s(Vright
g25
tp461
F1
s(Vbooke
g14
tp462
F1
s(g14
g28
tp463
F1
s(g5
g13
tp464
F1
s(g18
S':'
tp465
F1
s(VChurch
g14
tp466
F1
s(g28
g272
tp467
F1
s(Vhis
S'PRP$'
p468
tp469
F1
s(Vthen
g102
tp470
F1
s(Vinstances
g18
tp471
F1
s(Vlook
g14
tp472
F1
s(VNations
g18
tp473
F1
s(g112
g14
tp474
F7
s(Vsoon
S'RB'
p475
tp476
F1
s(Vabuse
g14
tp477
F1
s(Vpower
S'NN'
p478
tp479
F1
s(Vout
g78
tp480
F1
s(S','
g42
tp481
F1
s(Vpublick
g25
tp482
F1
s(Vmay
g117
tp483
F2
s(g14
g146
tp484
F1
s(Vwhich
g38
tp485
F3
s(Vmost
g20
tp486
F1
s(g13
g18
tp487
F1
s(Vvery
g23
tp488
F1
s(Vallay
g11
tp489
F1
s(g40
S','
tp490
F1
s(g9
g112
tp491
F1
s(g89
g4
tp492
F1
s(VBut
S'CC'
p493
tp494
F1
s(g73
g240
tp495
F1
s(Vgood
g25
tp496
F1
s(Voffice
S'NN'
p497
tp498
F1
s(g5
g17
tp499
F1
s(Vthrone
g14
tp500
F1
s(g5
g23
tp501
F1
s(Vwritings
g18
tp502
F1
s(S','
g429
tp503
F8
s(VAnd
g114
tp504
F2
s(Vdrest
g96
tp505
F1
s(Vgentry
g14
tp506
F1
s(S','
g193
tp507
F1
s(Vworthy
g4
tp508
F1
s(Vend
g14
tp509
F1
s(Vimage
g195
tp510
F1
s(Vher
g160
tp511
F2
s(Vmuch
g25
tp512
F1
s(g25
g5
tp513
F3
s(Vthis
g104
tp514
F2
s(Vperturbations
g18
tp515
F1
s(g112
g11
tp516
F2
s(VScenes
g126
tp517
F1
s(g350
g25
tp518
F7
s(Vshutting
g17
tp519
F1
s(Vwhat
g28
tp520
F4
s(g14
g66
tp521
F2
s(g14
g117
tp522
F1
s(Vopinion
g434
tp523
F1
s(Vharping
g17
tp524
F1
s(Vdivine
g14
tp525
F1
s(Vthat
g54
tp526
F1
s(Vpious
g25
tp527
F1
s(Vpassion
g14
tp528
F1
s(g14
g23
tp529
F1
s(VTruth
g5
tp530
F1
s(Velegantly
g23
tp531
F1
s(Vworks
g40
tp532
F1
s(Vwhereas
g40
tp533
F1
s(g28
g137
tp534
F1
s(g42
g149
tp535
F1
s(g18
g51
tp536
F1
s(Vframe
g14
tp537
F1
s(Vwherein
g4
tp538
F1
s(Vrarely
g23
tp539
F1
s(Vgeneral
g25
tp540
F1
s(g14
g112
tp541
F9
s(Vtrue
S'JJ'
p542
tp543
F1
s(g18
g228
tp544
F1
s(Vfound
g89
tp545
F1
s(g5
S','
tp546
F4
s(g5
g66
tp547
F1
s(Vagonies
g18
tp548
F1
s(g59
g317
tp549
F1
s(Vgrave
g11
tp550
F1
s(g5
g542
tp551
F1
s(VCallimachus
g5
tp552
F1
s.