ccollections
defaultdict
p1
(c__builtin__
float
p2
tRp3
(Veloquence
S'NN'
p4
tp5
F1
s(Vhelps
S'VBZ'
p6
tp7
F1
s(Vinspired
S'VBD'
p8
tp9
F1
s(Vwe
S'PRP'
p10
tp11
F5
s(Vacts
S'NNS'
p12
tp13
F1
s(S'NNP'
p14
S'.'
tp15
F1
s(S'PRP'
p16
S'CC'
p17
tp18
F1
s(Vpoore
g4
tp19
F1
s(S'IN'
p20
S'WDT'
p21
tp22
F3
s(Vsort
g4
tp23
F1
s(VFor
S'IN'
p24
tp25
F3
s(Vselves
g12
tp26
F4
s(S'IN'
p27
g4
tp28
F18
s(Vlook
S'VB'
p29
tp30
F1
s(Vdaily
S'RB'
p31
tp32
F2
s(Vyoung
S'JJ'
p33
tp34
F1
s(g4
S'WRB'
p35
tp36
F1
s(g21
g20
tp37
F1
s(S'TO'
p38
g16
tp39
F2
s(Vmoneyes
g12
tp40
F1
s(VSisters
g12
tp41
F1
s(Vthirher
g4
tp42
F1
s(Vdisabled
S'JJ'
p43
tp44
F1
s(S'NNS'
p45
S'.'
tp46
F12
s(Vverie
g4
tp47
F1
s(VCountry
g14
tp48
F1
s(S'DT'
p49
g8
tp50
F2
s(S':'
S'PRP$'
p51
tp52
F2
s(VPuppit-plays
g12
tp53
F1
s(S'VBN'
p54
S'PRP'
p55
tp56
F1
s(Vwitnesse
S'VBP'
p57
tp58
F1
s(Vstock
S'NN'
p59
tp60
F2
s(S','
S'IN'
p61
tp62
F22
s(S','
S'JJR'
p63
tp64
F1
s(Valready
S'RB'
p65
tp66
F1
s(g4
g4
tp67
F8
s(VTippling
g14
tp68
F1
s(Vsorts
g12
tp69
F2
s(S'DT'
p70
g14
tp71
F8
s(VFirst
g31
tp72
F1
s(Vnecessities
g12
tp73
F1
s(Vthat
g21
tp74
F7
s(Vten
g4
tp75
F1
s(g10
S'MD'
p76
tp77
F3
s(S','
g35
tp78
F2
s(Vmoney
S'NN'
p79
tp80
F1
s(g55
g29
tp81
F1
s(Vgotten
g12
tp82
F1
s(S'JJS'
p83
g38
tp84
F1
s(S'VBG'
p85
g31
tp86
F2
s(Vnothing
S'NN'
p87
tp88
F1
s(Vtwelve-pence
g4
tp89
F1
s(Vexigents
g12
tp90
F1
s(g43
g38
tp91
F1
s(g31
S'VBZ'
p92
tp93
F2
s(Vexhausted
g54
tp94
F1
s(g8
g4
tp95
F1
s(VChristmas
g14
tp96
F1
s(VTaverne
g14
tp97
F1
s(Vexpensive
g43
tp98
F1
s(Vfrom
S'IN'
p99
tp100
F1
s(Vold
S'JJ'
p101
tp102
F4
s(VBountifull
g14
tp103
F1
s(S':'
g14
tp104
F1
s(Vspirits
g12
tp105
F1
s(Vdistresse
g4
tp106
F1
s(Vmultitude
g4
tp107
F1
s(S'EX'
p108
g92
tp109
F1
s(VBridewell
g14
tp110
F1
s(Vthe
g70
tp111
F31
s(Vdolefull
g43
tp112
F1
s(Vwith
S'IN'
p113
tp114
F15
s(VI
S'PRP'
p115
tp116
F1
s(Vinforme
g29
tp117
F1
s(g6
g70
tp118
F1
s(g51
g83
tp119
F1
s(Vvery
g31
tp120
F2
s(Vfaces
S'VBZ'
p121
tp122
F1
s(Vhalf
g43
tp123
F1
s(Vdisturbers
g12
tp124
F1
s(g31
g51
tp125
F1
s(g6
g38
tp126
F2
s(Vor
S'CC'
p127
tp128
F3
s(g14
S'PDT'
p129
tp130
F1
s(Vage
S'NN'
p131
tp132
F1
s(VTragedies
g12
tp133
F1
s(Vreallv
g29
tp134
F1
s(Vever
S'RB'
p135
tp136
F1
s(Vbables
g12
tp137
F1
s(Vstinck
g4
tp138
F1
s(Vpoetical
g43
tp139
F1
s(Vfrequently
g31
tp140
F1
s(VTire-men
g14
tp141
F1
s(g21
g31
tp142
F3
s(g113
S'RB'
p143
tp144
F3
s(Vsacrifice
g4
tp145
F1
s(VCitizens
g12
tp146
F1
s(VTragedies
S'NNPS'
p147
tp148
F1
s(Vwere
S'VBD'
p149
tp150
F4
s(Vseen
S'VBN'
p151
tp152
F1
s(S'VB'
p153
g151
tp154
F7
s(Vmore
S'RBR'
p155
tp156
F1
s(Vaudendi
g4
tp157
F1
s(Vinforced
g54
tp158
F1
s(S','
S'VBP'
p159
tp160
F4
s(Vunderstanding
g85
tp161
F1
s(Vablest
g83
tp162
F1
s(g4
S'DT'
p163
tp164
F5
s(Vnow
S'RB'
p165
tp166
F4
s(VBe
g29
tp167
F1
s(Vwomen
S'NNS'
p168
tp169
F1
s(Vlasciviousnesse
g4
tp170
F1
s(S'RB'
p171
g153
tp172
F3
s(VWill
g14
tp173
F1
s(g31
g43
tp174
F11
s(S'DT'
p175
S'WP'
p176
tp177
F1
s(Vdistraction
g4
tp178
F1
s(Vfamous
g43
tp179
F1
s(Vjustly
g31
tp180
F1
s(Vand
g17
tp181
F49
s(S','
g10
tp182
F8
s(Vpenny
g4
tp183
F1
s(Vso
g31
tp184
F6
s(Vdo
g29
tp185
F1
s(Vactions
S'NNS'
p186
tp187
F1
s(Vstage
g4
tp188
F3
s(g54
S'IN'
p189
tp190
F12
s(S','
g29
tp191
F1
s(g171
g54
tp192
F6
s(Vcan
S'MD'
p193
tp194
F2
s(Vsee
g29
tp195
F1
s(S','
S'DT'
p196
tp197
F6
s(g14
g70
tp198
F1
s(Vflags
g12
tp199
F1
s(g29
g70
tp200
F5
s(VTavernes
g14
tp201
F1
s(g31
g10
tp202
F1
s(S'MD'
p203
g29
tp204
F6
s(Vdogs
g12
tp205
F1
s(Vballads
g12
tp206
F1
s(g85
g4
tp207
F1
s(Vashamed
g54
tp208
F1
s(Vknowledge
g4
tp209
F1
s(Vencited
g54
tp210
F1
s(Vnightly
g31
tp211
F1
s(Vwhen
S'WRB'
p212
tp213
F1
s(S'IN'
p214
g70
tp215
F34
s(g57
S'MD'
p216
tp217
F2
s(Vbetweene
g4
tp218
F1
s(VHarlots
g14
tp219
F1
s(Vquite
g31
tp220
F2
s(Vlike
g61
tp221
F3
s(VAct
S'NNP'
p222
tp223
F1
s(Vsoules
g6
tp224
F1
s(Vmeerly
g31
tp225
F1
s(Vwould
g203
tp226
F1
s(Vwell-stuffed
g43
tp227
F1
s(Vcivill
g4
tp228
F1
s(Vinto-
g43
tp229
F1
s(Vhad
g8
tp230
F3
s(Vimpoverished
g43
tp231
F1
s(Vmis-fortunes
g12
tp232
F1
s(Vmotion
g4
tp233
F1
s(g14
g17
tp234
F6
s(Vchapmen
g12
tp235
F1
s(Vwhips
g12
tp236
F1
s(Vinterest
S'NN'
p237
tp238
F1
s(Vsharers
g12
tp239
F1
s(Vthan
g214
tp240
F2
s(g12
g203
tp241
F1
s(g17
g8
tp242
F2
s(Vmaintenance
g4
tp243
F1
s(g38
g12
tp244
F1
s(Vusually
S'RB'
p245
tp246
F1
s(V'd
g216
tp247
F1
s(Vdetriment
g43
tp248
F1
s(Van
S'DT'
p249
tp250
F2
s(Vstipends
g12
tp251
F1
s(Vbest
g83
tp252
F1
s(Vexact
g43
tp253
F1
s(S'PRP$'
p254
g4
tp255
F15
s(VVirgins
g12
tp256
F1
s(S':'
S'PRP'
p257
tp258
F1
s(Vhard
g43
tp259
F1
s(g21
g257
tp260
F1
s(g57
g121
tp261
F1
s(g43
g149
tp262
F1
s(Vthey
g257
tp263
F13
s(Vselling
g85
tp264
F1
s(g12
g57
tp265
F4
s(g155
g43
tp266
F1
s(g14
g4
tp267
F2
s(g43
g27
tp268
F8
s(S':'
g20
tp269
F2
s(Vill
g4
tp270
F1
s(S':'
S'DT'
p271
tp272
F2
s(Vsuffer
g57
tp273
F1
s(Vtaxed
g54
tp274
F1
s(S'VBD'
p275
g38
tp276
F5
s(Vused
g8
tp277
F3
s(Vseeme
g4
tp278
F1
s(g61
S'VBD'
p279
tp280
F2
s(VPoets
g12
tp281
F1
s(Vactuate
g29
tp282
F1
s(g31
S'IN'
p283
tp284
F7
s(Vabject
g43
tp285
F1
s(g189
g20
tp286
F14
s(g12
g17
tp287
F7
s(Veither
g31
tp288
F1
s(Vcountenances
g12
tp289
F1
s(Vvertue
g4
tp290
F2
s(Vrepresentations
g12
tp291
F1
s(Vacquaintance
g4
tp292
F1
s(g12
S','
tp293
F39
s(g70
g63
tp294
F1
s(g70
g4
tp295
F29
s(g4
S'.'
tp296
F2
s(Vstealing
g85
tp297
F1
s(Vrepaire
g57
tp298
F1
s(Vprecious
g43
tp299
F1
s(Vhath
g4
tp300
F1
s(g29
S'CC'
p301
tp302
F5
s(Vdelectable
g43
tp303
F1
s(Vwriting
g85
tp304
F1
s(g254
g43
tp305
F12
s(Vtender
g29
tp306
F1
s(Vpractices
S'NNS'
p307
tp308
F1
s(Vglanced
g54
tp309
F1
s(Venamoured
g54
tp310
F1
s(Vall
g249
tp311
F2
s(S','
g43
tp312
F6
s(Veither
g249
tp313
F1
s(Vancient
g43
tp314
F1
s(g283
g129
tp315
F1
s(Vgrand
S'JJ'
p316
tp317
F2
s(Vcome
g29
tp318
F2
s(Vlibet
g4
tp319
F1
s(g4
g214
tp320
F28
s(g4
S','
tp321
F27
s(g57
g113
tp322
F5
s(g6
S'IN'
p323
tp324
F1
s(g283
S'CD'
p325
tp326
F1
s(Vowne
g43
tp327
F2
s(Va
g196
tp328
F8
s(Vpersons
g12
tp329
F2
s(Vpay
g29
tp330
F1
s(Vpenny-pamphlets
g12
tp331
F1
s(Vworthy
g43
tp332
F1
s(Vwont
g54
tp333
F1
s(Vact
g29
tp334
F2
s(Vworth
g43
tp335
F1
s(g38
g43
tp336
F2
s(Vbrutish
g43
tp337
F1
s(Vmost
g83
tp338
F1
s(g57
g54
tp339
F7
s(S':'
g17
tp340
F4
s(Vabove
g61
tp341
F1
s(Vappearance
g4
tp342
F1
s(Vsocietie
g4
tp343
F1
s(g29
g4
tp344
F2
s(S','
g51
tp345
F4
s(g149
g271
tp346
F2
s(Vhoures
g12
tp347
F1
s(Vfirst
g43
tp348
F1
s(Vis
g92
tp349
F5
s(Vformer
S'JJ'
p350
tp351
F3
s(Vmoths
g12
tp352
F1
s(Vlicence
g4
tp353
F2
s(Vlearned
g54
tp354
F1
s(Vsuch
g43
tp355
F5
s(Vpipe
g4
tp356
F1
s(Vheads
g12
tp357
F1
s(S'VBN'
p358
g54
tp359
F1
s(g31
S','
tp360
F3
s(Vthem
g55
tp361
F6
s(Vat
S'IN'
p362
tp363
F7
s(Vfaining
g85
tp364
F1
s(VActors
g12
tp365
F1
s(Vmiseries
g12
tp366
F1
s(Vthirty
g43
tp367
F1
s(Vdestin
g57
tp368
F1
s(Vforrests
g12
tp369
F1
s(S'DT'
p370
g92
tp371
F1
s(g43
S','
tp372
F5
s(Vwhither
g63
tp373
F1
s(Vyounger
g63
tp374
F1
s(Vbeen
g358
tp375
F1
s(g176
g8
tp376
F1
s(g14
S':'
tp377
F2
s(g51
g31
tp378
F1
s(g43
g4
tp379
F19
s(Vdependants
g12
tp380
F1
s(VAlmanack-makers
g12
tp381
F1
s(Vwealthy
g43
tp382
F1
s(g70
g31
tp383
F1
s(Vreceptacles
g12
tp384
F1
s(g29
g43
tp385
F1
s(Vere
g31
tp386
F1
s(Vrighteous
g43
tp387
F1
s(Vmusique
g4
tp388
F1
s(Vtwenty
g4
tp389
F1
s(V:
S':'
tp390
F5
s(Vlively
g43
tp391
F1
s(Vwill
g216
tp392
F2
s(VCrowne-pieces
g12
tp393
F1
s(Vliving
g85
tp394
F1
s(Vbattels
g12
tp395
F1
s(Vcloaks
g12
tp396
F1
s(Vour
g51
tp397
F23
s(Vbetter
g63
tp398
F1
s(g131
g159
tp399
F1
s(Vshares
S'NNS'
p400
tp401
F2
s(g12
g186
tp402
F4
s(g21
g6
tp403
F1
s(Vno
g249
tp404
F2
s(Valmost
S'RB'
p405
tp406
F1
s(g29
g55
tp407
F5
s(Vnor
S'CC'
p408
tp409
F1
s(VBeasts
g6
tp410
F1
s(S','
g38
tp411
F2
s(g21
g8
tp412
F7
s(S'IN'
p413
g10
tp414
F12
s(VAgamemnons
g14
tp415
F1
s(Vformerly
g31
tp416
F2
s(Vshame
g4
tp417
F1
s(VInns
g14
tp418
F1
s(S'PRP'
p419
S','
tp420
F5
s(Vget
g29
tp421
F1
s(VTheir
S'PRP$'
p422
tp423
F1
s(Vreduced
g8
tp424
F1
s(Vprincipall
g4
tp425
F1
s(g212
g175
tp426
F1
s(g16
g189
tp427
F6
s(VDragon
g14
tp428
F1
s(g29
g113
tp429
F4
s(g54
g38
tp430
F8
s(Venter
g29
tp431
F1
s(Vthere
g108
tp432
F1
s(Vthese
g271
tp433
F4
s(VCity
S'NNP'
p434
tp435
F1
s(Vnone
g4
tp436
F2
s(Vhorse-load
g4
tp437
F1
s(Vdignities
g12
tp438
F1
s(g17
g14
tp439
F5
s(Vprovidence
g4
tp440
F1
s(g4
g38
tp441
F6
s(Vcommission
S'NN'
p442
tp443
F1
s(g189
g14
tp444
F12
s(g171
g31
tp445
F6
s(g16
S'RB'
p446
tp447
F4
s(Vmusike
g43
tp448
F1
s(g149
g54
tp449
F3
s(VPriests
g12
tp450
F1
s(g14
g14
tp451
F5
s(V)
S')'
tp452
F2
s(Vrepresent
g4
tp453
F1
s(g35
g108
tp454
F1
s(Vgrew
g279
tp455
F1
s(Vhaving
S'VBG'
p456
tp457
F4
s(Vconceptions
g12
tp458
F1
s(Vloftie
g4
tp459
F1
s(g17
g147
tp460
F1
s(VGentry
g14
tp461
F1
s(g43
S'RB'
p462
tp463
F1
s(Vfriends
g12
tp464
F3
s(g54
S':'
tp465
F1
s(g38
g29
tp466
F26
s(Vfeared
g54
tp467
F1
s(S'NN'
p468
g54
tp469
F1
s(Vpersecute
g4
tp470
F1
s(g17
g29
tp471
F5
s(Vbe
g153
tp472
F8
s(g175
g21
tp473
F1
s(VPhoebus
g14
tp474
F2
s(g12
g43
tp475
F2
s(VBeing
g14
tp476
F1
s(VNecessitle
g14
tp477
F1
s(S')'
g159
tp478
F1
s(Vnecessitie
g31
tp479
F1
s(g43
g17
tp480
F3
s(g159
g171
tp481
F8
s(g4
S':'
tp482
F5
s(Vheavenly
g43
tp483
F1
s(g370
S','
tp484
F2
s(Vany
S'DT'
p485
tp486
F5
s(g113
g43
tp487
F10
s(g127
g85
tp488
F2
s(S','
g54
tp489
F1
s(g485
g189
tp490
F4
s(g38
g51
tp491
F1
s(VBuxsome
g14
tp492
F1
s(g85
g55
tp493
F1
s(S'JJ'
p494
g12
tp495
F25
s(Vdegraded
g54
tp496
F1
s(g257
g57
tp497
F13
s(g79
g456
tp498
F1
s(Vchildren
S'NNS'
p499
tp500
F1
s(Vtyrant
g43
tp501
F1
s(Vgrowne
g54
tp502
F1
s(Vsome
g49
tp503
F6
s(Vagaine
g4
tp504
F1
s(g113
g254
tp505
F29
s(g54
g12
tp506
F1
s(Vcalamitie
g4
tp507
F1
s(VMusike
g4
tp508
F1
s(Vtime
S'NN'
p509
tp510
F1
s(S':'
g12
tp511
F1
s(g31
g147
tp512
F1
s(Vlibertie
g54
tp513
F1
s(S'PRP'
p514
g6
tp515
F2
s(g57
g70
tp516
F3
s(Vmeet
g57
tp517
F1
s(Vknow
g29
tp518
F1
s(g8
g6
tp519
F1
s(g147
g17
tp520
F1
s(g12
g54
tp521
F1
s(g63
g12
tp522
F1
s(Vothers
S'NNS'
p523
tp524
F2
s(Vsung
g54
tp525
F1
s(Vroome
g4
tp526
F1
s(Vrepairing
g85
tp527
F1
s(g83
g189
tp528
F1
s(g8
g43
tp529
F2
s(Vmeaner
g29
tp530
F1
s(Vwhat
g176
tp531
F1
s(g12
g257
tp532
F3
s(Vwhere
g35
tp533
F4
s(Vshall
S'MD'
p534
tp535
F2
s(g17
g494
tp536
F8
s(g176
g31
tp537
F1
s(Vdissolution
g4
tp538
F1
s(Vall
g129
tp539
F2
s(Vin
g20
tp540
F17
s(g31
g57
tp541
F3
s(Vstead
g4
tp542
F2
s(Vgenerall
g4
tp543
F1
s(Vare
g159
tp544
F13
s(Vuncontrolled
g43
tp545
F1
s(Vservice
g4
tp546
F1
s(Vexchanges
S'NNS'
p547
tp548
F1
s(VEnglish
g43
tp549
F1
s(Vunheard
g4
tp550
F1
s(Vtheir
g254
tp551
F26
s(g29
S','
tp552
F2
s(Vsweat
g4
tp553
F1
s(g57
g400
tp554
F1
s(g362
S','
tp555
F1
s(Vgettings
g12
tp556
F1
s(g456
g54
tp557
F1
s(Vhave
g29
tp558
F1
s(g76
g31
tp559
F3
s(Vshifts
g12
tp560
F1
s(Vwant
g43
tp561
F1
s(Vinstinct
g4
tp562
F1
s(g196
g43
tp563
F11
s(Vconvince
g29
tp564
F1
s(g400
g21
tp565
F2
s(Vcharming
g85
tp566
F1
s(g49
g57
tp567
F1
s(V.
S'.'
tp568
F13
s(Vbeing
S'VBG'
p569
tp570
F4
s(S','
g31
tp571
F5
s(Vrelations
S'NNS'
p572
tp573
F1
s(VHouse-keepers
g12
tp574
F1
s(g35
g4
tp575
F1
s(g17
g61
tp576
F3
s(Vexamine
g29
tp577
F1
s(Vdayes
g12
tp578
F1
s(Vdivine
g4
tp579
F1
s(Vuse
g29
tp580
F1
s(S':'
S'('
tp581
F1
s(Vtwo
g325
tp582
F1
s(Vours
g12
tp583
F1
s(VSouldiers
g12
tp584
F1
s(Vthat
g249
tp585
F2
s(Vdegree
g4
tp586
F1
s(Vbelonged
g8
tp587
F1
s(Vvice
S'NN'
p588
tp589
F1
s(S'('
g43
tp590
F1
s(Vother
g494
tp591
F1
s(g362
g83
tp592
F1
s(VMistresses
g12
tp593
F1
s(g92
g43
tp594
F1
s(Vlong
g43
tp595
F1
s(Vfeast
g29
tp596
F1
s(g254
g12
tp597
F25
s(VGentlemen
g14
tp598
F2
s(Vsharply
g462
tp599
F1
s(g8
S','
tp600
F2
s(g12
S':'
tp601
F5
s(Vunder
g323
tp602
F3
s(Vvisited
g54
tp603
F1
s(S','
g12
tp604
F3
s(g135
g275
tp605
F3
s(VBell
S'NNP'
p606
tp607
F1
s(g54
g17
tp608
F1
s(S','
g216
tp609
F2
s(S'('
g413
tp610
F1
s(g43
g85
tp611
F1
s(Vsilence
g4
tp612
F1
s(Vas
g61
tp613
F7
s(S','
g83
tp614
F1
s(Vcourses
g12
tp615
F1
s(VHouses
g12
tp616
F2
s(S','
g147
tp617
F1
s(S')'
g216
tp618
F1
s(g70
g12
tp619
F10
s(Vbeneficiall
g249
tp620
F1
s(g569
g70
tp621
F6
s(Valwayes
g43
tp622
F1
s(VHelicorian
g43
tp623
F1
s(Vmouthes
g12
tp624
F1
s(VFooles
g12
tp625
F1
s(Vyou
S'PRP'
p626
tp627
F4
s(g626
S'JJ'
p628
tp629
F1
s(Vtribulation
g4
tp630
F1
s(Vdependance
g4
tp631
F1
s(Vthemselves
g16
tp632
F6
s(Vof
g189
tp633
F45
s(VTapsters
g12
tp634
F1
s(Vwee
g4
tp635
F1
s(Vby
g27
tp636
F9
s(Vdisperst
g43
tp637
F1
s(Vdare
g6
tp638
F1
s(Vrest
g4
tp639
F1
s(S'RBS'
p640
g43
tp641
F1
s(Vduring
S'IN'
p642
tp643
F1
s(VSack
g14
tp644
F1
s(g54
S','
tp645
F3
s(Vordinarie
g4
tp646
F1
s(VPlayes
g29
tp647
F1
s(Vexpressed
g54
tp648
F1
s(VQuid
g14
tp649
F1
s(Vpunished
g8
tp650
F1
s(g29
g31
tp651
F1
s(VHired-men
g12
tp652
F1
s(Vmanner
g4
tp653
F1
s(Vprostituted
g54
tp654
F1
s(Vto
g38
tp655
F33
s(g283
g569
tp656
F4
s(Vadmiration
g4
tp657
F1
s(Vturned
g8
tp658
F1
s(Vquitted
g8
tp659
F1
s(g147
S','
tp660
F1
s(g17
g129
tp661
F1
s(g12
g31
tp662
F3
s(g4
g257
tp663
F2
s(g17
g57
tp664
F3
s(Vsacred
g8
tp665
F1
s(Vdull
g4
tp666
F1
s(Vsupplying
g85
tp667
F1
s(S','
g21
tp668
F9
s(g70
g83
tp669
F1
s(Vevery
S'DT'
p670
tp671
F1
s(g547
g35
tp672
F2
s(VTheatres
g12
tp673
F1
s(Vmen
S'NNS'
p674
tp675
F1
s(Vworse
g63
tp676
F1
s(Vtimes
g12
tp677
F1
s(g92
g54
tp678
F1
s(g10
g456
tp679
F1
s(Vharmonious
g43
tp680
F1
s(g17
g12
tp681
F7
s(Vpockets
g12
tp682
F1
s(g70
g640
tp683
F1
s(Vvery
g4
tp684
F1
s(S','
S'WP'
p685
tp686
F2
s(Vadorne
g29
tp687
F1
s(g29
g12
tp688
F2
s(VThe
S'DT'
p689
tp690
F1
s(g12
g189
tp691
F21
s(Vlewd
g43
tp692
F1
s(Vannuall
g4
tp693
F1
s(Vyet
g31
tp694
F2
s(Vlarge
S'JJ'
p695
tp696
F1
s(g129
g370
tp697
F3
s(Vmight
S'MD'
p698
tp699
F1
s(g54
g51
tp700
F1
s(Vwore
g57
tp701
F1
s(Vnay
g31
tp702
F1
s(Vinexplicable
g43
tp703
F1
s(Vexcite
g29
tp704
F1
s(g43
g51
tp705
F1
s(g4
S')'
tp706
F1
s(Vwalk
g29
tp707
F1
s(Vcrowding
g4
tp708
F1
s(VLand-lords
g14
tp709
F1
s(g85
g61
tp710
F7
s(Vmens
g12
tp711
F1
s(Vgreat
g628
tp712
F2
s(Vfor
g283
tp713
F11
s(Vdid
g275
tp714
F2
s(Vshillings
g12
tp715
F3
s(VNay
g14
tp716
F4
s(g8
g31
tp717
F4
s(g8
g17
tp718
F1
s(Vthough
g61
tp719
F2
s(VErra
g14
tp720
F1
s(g65
S')'
tp721
F1
s(Vup
g31
tp722
F1
s(Vitch
g57
tp723
F1
s(g4
S'('
tp724
F1
s(Vthose
g175
tp725
F4
s(Vquitted
g54
tp726
F1
s(g17
g31
tp727
F4
s(g57
S','
tp728
F1
s(Vprofession
g4
tp729
F1
s(Vpublike
g4
tp730
F1
s(Vwrite
g43
tp731
F1
s(g57
g254
tp732
F1
s(Vcherish
g29
tp733
F1
s(Vheard
g54
tp734
F1
s(Vcomplaint
g4
tp735
F1
s(Vfellowship
g4
tp736
F1
s(g101
g43
tp737
F3
s(Vcomfort
g29
tp738
F1
s(g83
g4
tp739
F1
s(Vpriviledge
g4
tp740
F1
s(Vafforded
g8
tp741
F1
s(Vtranck
g43
tp742
F1
s(Vbut
g301
tp743
F3
s(g29
g38
tp744
F2
s(Vwee
g57
tp745
F1
s(V,
S','
tp746
F110
s(g216
g38
tp747
F1
s(g14
g38
tp748
F2
s(g38
g196
tp749
F1
s(Vallure
g29
tp750
F1
s(g63
g214
tp751
F1
s(g85
g43
tp752
F2
s(g159
g43
tp753
F2
s(Vraptures
g12
tp754
F1
s(S'CC'
p755
g176
tp756
F1
s(g54
g14
tp757
F1
s(S':'
g31
tp758
F1
s(Vbefallen
g4
tp759
F1
s(g61
g57
tp760
F2
s(V?
S'.'
tp761
F2
s(Vpassed
g54
tp762
F1
s(g31
g49
tp763
F1
s(S','
g85
tp764
F10
s(Vvaluable
g4
tp765
F1
s(Vstories
g12
tp766
F1
s(VPaters
g14
tp767
F1
s(VLasses
g14
tp768
F1
s(Vlaughter
g4
tp769
F1
s(g31
g38
tp770
F3
s(g92
S'NN'
p771
tp772
F1
s(VPick-pockets
g12
tp773
F1
s(Vslender
g4
tp774
F1
s(Vrewarded
g8
tp775
F1
s(Vmaintaine
g29
tp776
F1
s(Vif
g413
tp777
F2
s(Vwhom
g685
tp778
F1
s(g85
g254
tp779
F1
s(g271
g54
tp780
F2
s(Vwell-governed
g43
tp781
F1
s(g147
g569
tp782
F1
s(VCastalian
g43
tp783
F1
s(Vboyes
g12
tp784
F1
s(Vfamilies
g45
tp785
F1
s(g43
g63
tp786
F1
s(Vhopes
g12
tp787
F1
s(Vit
g514
tp788
F4
s(S':'
g85
tp789
F1
s(g222
g362
tp790
F2
s(Vmost
g640
tp791
F1
s(Vupon
g61
tp792
F3
s(Vmis-fortune
g4
tp793
F1
s(Vattribute
g4
tp794
F1
s(Vthus
S'RB'
p795
tp796
F1
s(VKing
g14
tp797
F1
s(Vthen
g446
tp798
F1
s(Vbargaines
g12
tp799
F1
s(Vunmade
g43
tp800
F1
s(g63
g4
tp801
F2
s(Vonly
g31
tp802
F1
s(Vcomplaine
g43
tp803
F1
s(Vshortly
g31
tp804
F1
s(VMacenas
g14
tp805
F1
s(Vinto
S'IN'
p806
tp807
F3
s(g17
g4
tp808
F7
s(Vcollars
g12
tp809
F1
s(VOrphens
g14
tp810
F1
s(Vcompelled
g54
tp811
F1
s(g14
g12
tp812
F3
s(g14
g626
tp813
F1
s(Vmiraculous
g43
tp814
F1
s(Vscratch
g29
tp815
F1
s(g685
g20
tp816
F1
s(g301
g70
tp817
F3
s(Vmay
g76
tp818
F1
s(Venforced
g54
tp819
F4
s(Vmeere
g31
tp820
F1
s(Vwomens
g12
tp821
F1
s(Vstill
S'RB'
p822
tp823
F1
s(Vwhich
g21
tp824
F8
s(Vsuch
g129
tp825
F1
s(VKings
g14
tp826
F1
s(Vus
g419
tp827
F5
s(Vsaluting
g85
tp828
F1
s(g149
g12
tp829
F3
s(g362
g12
tp830
F8
s(Vfar
g143
tp831
F1
s(g143
g155
tp832
F1
s(g92
S','
tp833
F1
s(Vyour
S'PRP$'
p834
tp835
F2
s(g165
g301
tp836
F2
s(VHolidayes
g14
tp837
F1
s(Vsecond-dayes
g12
tp838
F1
s(Vwas
g8
tp839
F2
s(Vpropheticke
g4
tp840
F1
s(Vgood
g43
tp841
F2
s(Von
S'IN'
p842
tp843
F3
s(Vwretches
g12
tp844
F1
s(Vleast
g83
tp845
F1
s(g14
g165
tp846
F1
s(S','
g17
tp847
F17
s(Vbound
g6
tp848
F1
s(VAnd
g755
tp849
F1
s(Vpeace
g4
tp850
F1
s(Vnaturall
g43
tp851
F1
s(Vup
g61
tp852
F1
s(Vlanguage
g468
tp853
F1
s(g17
g626
tp854
F2
s(Velegance
g4
tp855
F1
s(Vcontemptible
g43
tp856
F1
s(VOur
S'PRP$'
p857
tp858
F3
s(Vdepending
g85
tp859
F1
s(Vcourtesie
g4
tp860
F1
s(Vhath
g6
tp861
F1
s(g35
g257
tp862
F2
s(g6
g171
tp863
F3
s(Vheld
g54
tp864
F1
s(VDoore-keepers
g147
tp865
F1
s(Vsalary
g43
tp866
F1
s(V;
S':'
tp867
F11
s(g55
S':'
tp868
F2
s(Vexcuse
g29
tp869
F1
s(Vtwentie
g43
tp870
F1
s(Vmuch
g43
tp871
F2
s(Vorgan-pipes
g12
tp872
F1
s(g14
g8
tp873
F1
s(VParkers
g14
tp874
F1
s(g628
g14
tp875
F8
s(Vthis
g370
tp876
F5
s(g4
g8
tp877
F2
s(Vcomplaine
g57
tp878
F1
s(Vmusique
g43
tp879
F1
s(Vward-robe
g4
tp880
F1
s(VHolbourne-bridge
g14
tp881
F1
s(g159
g63
tp882
F1
s(g6
g8
tp883
F1
s(S','
g588
tp884
F3
s(g4
g6
tp885
F3
s(Vas
g31
tp886
F1
s(Vliving
g4
tp887
F1
s(Vout
g61
tp888
F7
s(g21
g159
tp889
F1
s(Vuse
g4
tp890
F3
s(Vfrolick
g29
tp891
F1
s(VPotentates
g14
tp892
F1
s(Vcrackt
g4
tp893
F1
s(g21
S','
tp894
F1
s(g325
g12
tp895
F1
s(Vscorned
g8
tp896
F1
s(Vcloaths
g12
tp897
F2
s(VMartin
g14
tp898
F1
s(g4
g193
tp899
F1
s(Vcompany
g771
tp900
F1
s(Vmake
g57
tp901
F1
s(Vgrievously
g31
tp902
F1
s(Vthat
g61
tp903
F8
s(VTobacco-men
g14
tp904
F1
s(Vfuture
g43
tp905
F1
s(g29
g51
tp906
F7
s(Vkin
g4
tp907
F1
s(Vstones
g12
tp908
F1
s(Vallowance
g4
tp909
F1
s(g17
g51
tp910
F3
s(V(
S'('
tp911
F2
s(Vwander
g57
tp912
F1
s(Vendevours
g12
tp913
F1
s(g31
g4
tp914
F1
s(Vhonesty
g54
tp915
F1
s(Vhave
g57
tp916
F8
s(Vrecoverie
g4
tp917
F1
s(g176
g196
tp918
F1
s(Vwithout
S'IN'
p919
tp920
F1
s(Vrobbed
g54
tp921
F1
s(g10
g8
tp922
F5
s(VJudges
g12
tp923
F1
s(Vformed
g8
tp924
F1
s(Vwandring
g85
tp925
F1
s(Vhouses
S'NNS'
p926
tp927
F2
s(g8
S':'
tp928
F1
s(Vdowne
g29
tp929
F1
s(VNobility
g14
tp930
F1
s(g51
g14
tp931
F1
s(Vscarce
g29
tp932
F1
s(Vnot
g171
tp933
F12
s(Vrents
g12
tp934
F1
s(Vdrop
g4
tp935
F1
s(g57
g17
tp936
F1
s(Vunjustly
g31
tp937
F1
s(g83
g31
tp938
F1
s(g4
g17
tp939
F6
s(g4
g12
tp940
F10
s(Vcessation
g4
tp941
F1
s(VTrumpetters
g12
tp942
F1
s(Vwho
g176
tp943
F2
s(g14
S','
tp944
F17
s(Vsakes
g12
tp945
F1
s(Vbeleeving
g85
tp946
F1
s(Vamplified
g54
tp947
F1
s(g54
g31
tp948
F1
s(Vterrible
g43
tp949
F1
s(g149
g514
tp950
F2
s(Vencouraged
g8
tp951
F1
s(Vconsent
g4
tp952
F1
s(VInstruments
g12
tp953
F1
s(VVacation
g4
tp954
F1
s(Veach
g163
tp955
F1
s(VComedies
g147
tp956
F1
s(Vmeane
g57
tp957
F1
s(Vfarre
g43
tp958
F1
s.