ccollections
defaultdict
p1
(c__builtin__
float
p2
tRp3
(Vcourse
S'NN'
p4
tp5
F6
s(Vyielding
S'NN'
p6
tp7
F2
s(VFor
S'IN'
p8
tp9
F13
s(Vtears
S'NNS'
p10
tp11
F15
s(Vfountain
g6
tp12
F1
s(V-Yes
S'IN'
p13
tp14
F1
s(VLiberty
S'NNP'
p15
tp16
F1
s(S'IN'
p17
g6
tp18
F573
s(Vmount
S'VB'
p19
tp20
F1
s(VCrowds
g15
tp21
F1
s(Vtroublesome
g6
tp22
F1
s(VMaterials
g10
tp23
F1
s(S'VBN'
p24
S'EX'
p25
tp26
F1
s(VYour
S'PRP$'
p27
tp28
F4
s(Vresolve
S'VBP'
p29
tp30
F3
s(Vmore-think
g6
tp31
F1
s(Vstay
g24
tp32
F1
s(Vas
g19
tp33
F1
s(Vgrasp
g6
tp34
F1
s(Vyes
S'RB'
p35
tp36
F1
s(Vsuffer
g29
tp37
F7
s(Vsawst
g6
tp38
F1
s(Vlieu
g6
tp39
F2
s(Vagainst
S'IN'
p40
tp41
F20
s(VTo
S'TO'
p42
tp43
F5
s(Vunnecessary
S'JJ'
p44
tp45
F1
s(V-left
g24
tp46
F1
s(Vfaults
g10
tp47
F1
s(Vsort
g6
tp48
F2
s(Vregret
g6
tp49
F2
s(Vask
g6
tp50
F3
s(VCouch
g15
tp51
F1
s(Vunmatch
g44
tp52
F1
s(Varriv
g6
tp53
F3
s(Vruffled
g24
tp54
F1
s(VMonsieur
g19
tp55
F1
s(Vtwaiting
S'VBG'
p56
tp57
F1
s(VVoice
g15
tp58
F9
s(g35
S'VBZ'
p59
tp60
F39
s(Vhaunt
g19
tp61
F1
s(Vguile
g6
tp62
F1
s(Vhigher
S'JJR'
p63
tp64
F1
s(Vpurer
g6
tp65
F1
s(VRivals
g59
tp66
F1
s(Vmistaken
g44
tp67
F2
s(Vtread
g29
tp68
F1
s(Vconscience
g6
tp69
F1
s(Vform
g24
tp70
F2
s(Vprotested
S'VBD'
p71
tp72
F1
s(Vwhene'er
S'CC'
p73
tp74
F1
s(Vform
g29
tp75
F1
s(S'CD'
p76
g24
tp77
F1
s(Vimagining
g6
tp78
F1
s(Vgives
S'VBZ'
p79
tp80
F7
s(S'WDT'
p81
g35
tp82
F16
s(VFour
g15
tp83
F1
s(Vfain
g29
tp84
F1
s(g13
g35
tp85
F118
s(Vmoment
S'NN'
p86
tp87
F14
s(Vcompleat
g19
tp88
F1
s(S'NN'
p89
S'DT'
p90
tp91
F63
s(S'RB'
p92
g19
tp93
F251
s(Vtold
g71
tp94
F7
s(Vadore
g19
tp95
F1
s(Vfavours
g10
tp96
F2
s(Vprevail
g44
tp97
F1
s(g6
g81
tp98
F67
s(Vmore
g63
tp99
F71
s(VSong
g15
tp100
F1
s(Vsick
g6
tp101
F1
s(Vbroken
g24
tp102
F1
s(Vsingular
g44
tp103
F1
s(Vtrembling
g44
tp104
F2
s(g15
S'WRB'
p105
tp106
F17
s(Vhurry
g6
tp107
F2
s(Vrepented
g24
tp108
F2
s(Vrestless
g44
tp109
F1
s(Vcommandest
g29
tp110
F1
s(S'WP'
p111
g59
tp112
F47
s(Varrives
g59
tp113
F1
s(g56
g6
tp114
F101
s(Vsolid
g44
tp115
F4
s(Vviews
g59
tp116
F1
s(S'RP'
p117
g24
tp118
F1
s(VKisses
g15
tp119
F2
s(Vwhen
S'WRB'
p120
tp121
F125
s(Vgloomy
g44
tp122
F1
s(Vviolation
g6
tp123
F1
s(g44
S'MD'
p124
tp125
F201
s(S'UH'
p126
g71
tp127
F1
s(Vsat
g71
tp128
F1
s(Vrepent
g29
tp129
F1
s(Vblesses
g10
tp130
F1
s(Vdress
g19
tp131
F3
s(Vtear
g29
tp132
F3
s(S'CC'
p133
g73
tp134
F3
s(Vside
g19
tp135
F1
s(S'.'
S')'
tp136
F4
s(Vcry
g29
tp137
F4
s(VGaze
g15
tp138
F1
s(Vapplauses
g10
tp139
F1
s(g15
S'CC'
p140
tp141
F148
s(Vmay'st
S'FW'
p142
tp143
F1
s(Veven
g24
tp144
F1
s(Vafter
S'IN'
p145
tp146
F28
s(Vinclines
g59
tp147
F1
s(Vdistraction
g6
tp148
F1
s(Vdeceit
g6
tp149
F1
s(Vrepeating
g56
tp150
F1
s(Vwork
g6
tp151
F2
s(S"''"
p152
S'VB'
p153
tp154
F1
s(VQuestion
g6
tp155
F1
s(Vinrage
g19
tp156
F1
s(Vhearing
g6
tp157
F2
s(g124
S'('
tp158
F2
s(Vartfull
g44
tp159
F1
s(VShame
g15
tp160
F1
s(Vfact
S'NN'
p161
tp162
F2
s(Vbears
g59
tp163
F1
s(Voblig
g44
tp164
F4
s(Vrenounc
g24
tp165
F1
s(Vsuggests
g59
tp166
F1
s(Vtoucht
g6
tp167
F1
s(Vtorture
g44
tp168
F1
s(Venter
g6
tp169
F1
s(Vwhate
g44
tp170
F1
s(VCesario
g6
tp171
F2
s(VAmour
g15
tp172
F2
s(Vrelation
g6
tp173
F2
s(Vtoil
g29
tp174
F1
s(Veither
g90
tp175
F5
s(Vunseen
g44
tp176
F3
s(Vshameful
g44
tp177
F6
s(Vbreaks
g59
tp178
F3
s(g71
S'VBP'
p179
tp180
F1
s(Vviolence
g6
tp181
F5
s(V-I
g73
tp182
F4
s(Vshrunk
g24
tp183
F1
s(Vgo
g29
tp184
F5
s(VO
g15
tp185
F3
s(Vwild
g6
tp186
F1
s(Vcome
g44
tp187
F1
s(Vpride
g6
tp188
F2
s(VBank
S'NNP'
p189
tp190
F2
s(Vmost
S'JJS'
p191
tp192
F8
s(Vtreachery
g6
tp193
F2
s(Vexcels
g10
tp194
F1
s(Vpresses
g10
tp195
F1
s(V-Marriages
g10
tp196
F1
s(Vsence
g6
tp197
F1
s(VGate
g15
tp198
F3
s(g120
S'VBN'
p199
tp200
F4
s(Vparents
g10
tp201
F2
s(Vattempt
g19
tp202
F2
s(VFop
g15
tp203
F1
s(Vsecur
g19
tp204
F1
s(Vshorten
g19
tp205
F1
s(g191
g76
tp206
F3
s(Vungratefully
g35
tp207
F1
s(g44
S'WP'
p208
tp209
F1
s(Vignorant
g44
tp210
F1
s(VTherefore
g35
tp211
F1
s(Vreceiv
g44
tp212
F3
s(Vjilt
g19
tp213
F1
s(Vgrown
g24
tp214
F3
s(Vpleas
g142
tp215
F1
s(Vsighs
g59
tp216
F1
s(VMiracle
g15
tp217
F2
s(Vrecalling
g56
tp218
F1
s(Vjudging
g56
tp219
F2
s(Vye
g19
tp220
F4
s(Vsides
S'NNS'
p221
tp222
F2
s(Vluckily
g35
tp223
F2
s(Vpassions
g10
tp224
F3
s(Vretrieve
g29
tp225
F1
s(Vcase
S'NN'
p226
tp227
F1
s(Vflattering
g6
tp228
F1
s(Vanimates
g59
tp229
F1
s(Vheights
g10
tp230
F1
s(Vfill
g44
tp231
F1
s(Vdances
g10
tp232
F1
s(S'JJ'
p233
g191
tp234
F3
s(VEast
g15
tp235
F1
s(Vless
g73
tp236
F1
s(VCryes
g15
tp237
F1
s(Vnew-given
g44
tp238
F1
s(Vmighty
g44
tp239
F7
s(Vconsultation
g6
tp240
F1
s(VDart
g15
tp241
F1
s(VAuthority
g6
tp242
F1
s(Voh
g35
tp243
F6
s(Vdistracting
g56
tp244
F3
s(Vpast
g6
tp245
F3
s(VRobbers
g15
tp246
F1
s(Vnegligence
g6
tp247
F3
s(VGallery
g15
tp248
F1
s(VChamber
g15
tp249
F6
s(g19
g76
tp250
F10
s(Vconceal
g6
tp251
F1
s(Vbids
g10
tp252
F1
s(Vimpose
g29
tp253
F1
s(Vmischiefs
g19
tp254
F1
s(Vsighs
g10
tp255
F16
s(Vrich
g44
tp256
F3
s(Vwrites
g59
tp257
F2
s(Vrepent
g6
tp258
F1
s(V'em
g10
tp259
F2
s(Varraign
g44
tp260
F1
s(S':'
g142
tp261
F2
s(Vget
g19
tp262
F6
s(Vruine
g19
tp263
F5
s(Vlasting
g56
tp264
F1
s(g124
g56
tp265
F1
s(Vpreservation
g6
tp266
F1
s(VPride
g15
tp267
F3
s(Vworn-out
g44
tp268
F1
s(Vapproach
g29
tp269
F2
s(Vpossible
S'JJ'
p270
tp271
F11
s(Vdiscovery
g6
tp272
F11
s(Vt'other
g35
tp273
F1
s(Vdread
g6
tp274
F2
s(Vundergo
g19
tp275
F1
s(Vbegot
g24
tp276
F1
s(Vabominable
g44
tp277
F1
s(Vseek
g19
tp278
F2
s(V-all
g6
tp279
F1
s(V-none
g6
tp280
F1
s(Vgayety
g19
tp281
F1
s(Vfading
g6
tp282
F1
s(Vdecree
g6
tp283
F1
s(Vindiscreet
g6
tp284
F1
s(Vpurpose
g19
tp285
F1
s(Voffended
g71
tp286
F1
s(Vwrap't
g44
tp287
F1
s(Vlasting
g44
tp288
F2
s(Vtouch
g19
tp289
F5
s(Vuniverse
g6
tp290
F1
s(VWomen
g10
tp291
F1
s(Vbeneath
g13
tp292
F3
s(S'TO'
p293
g81
tp294
F6
s(g124
g76
tp295
F4
s(Vravishing
g56
tp296
F7
s(V-in
g44
tp297
F2
s(VYouth
g24
tp298
F2
s(Vconvicted
g71
tp299
F1
s(g191
g19
tp300
F2
s(VTorments
g15
tp301
F1
s(Vlazy
g44
tp302
F1
s(Vthou
g10
tp303
F3
s(Vswift
g6
tp304
F2
s(Vhurryed
g24
tp305
F1
s(Vtalk
g6
tp306
F1
s(Vsustain
g44
tp307
F1
s(Vfarther
g44
tp308
F2
s(Vcharms
g59
tp309
F1
s(Vconsent
g6
tp310
F5
s(Vadore
g35
tp311
F2
s(VBill
g15
tp312
F2
s(Vmeet
g29
tp313
F2
s(Vbid
g29
tp314
F1
s(Vlike
g59
tp315
F1
s(Vmodesty
g44
tp316
F1
s(Vexpecting
g56
tp317
F5
s(Valive
g44
tp318
F1
s(S')'
g191
tp319
F1
s(g81
g19
tp320
F5
s(g111
S'RB'
p321
tp322
F17
s(Vless
S'RBR'
p323
tp324
F8
s(Vdefenceless
g6
tp325
F3
s(Vwounded
g71
tp326
F1
s(VGuard
g15
tp327
F1
s(Vkist
g6
tp328
F1
s(Vdares
g10
tp329
F1
s(Vtowards
g13
tp330
F6
s(Vmightier
g63
tp331
F4
s(Vhappy
g44
tp332
F38
s(Vpromise
g29
tp333
F1
s(VCouncellor
g6
tp334
F1
s(Vconvenient
g6
tp335
F1
s(Voutstrip
g19
tp336
F1
s(VTeeth
g15
tp337
F1
s(Vwant
g44
tp338
F1
s(S':'
g191
tp339
F2
s(Vchaffer
g19
tp340
F1
s(Vglorious
g44
tp341
F19
s(Vnecessary
S'JJ'
p342
tp343
F7
s(Vaversion
g6
tp344
F3
s(VTreachery
g6
tp345
F2
s(Vhundred
g44
tp346
F3
s(Vwine
g6
tp347
F1
s(Vmistaken
g15
tp348
F1
s(Vblame
g19
tp349
F3
s(g13
S'.'
tp350
F10
s(Vunsigh't
g44
tp351
F1
s(VServants
g10
tp352
F2
s(Vthefts
g10
tp353
F3
s(Vremember
g19
tp354
F11
s(Vbewitching
g44
tp355
F2
s(Vtimes
g59
tp356
F2
s(S'('
g44
tp357
F3
s(Vcharacter
g6
tp358
F2
s(Vshou
g59
tp359
F3
s(Vsolemn
g6
tp360
F2
s(g191
g44
tp361
F12
s(Vaccidentally
g35
tp362
F1
s(S'('
g19
tp363
F4
s(Vpowr
g44
tp364
F1
s(VGardens
g15
tp365
F1
s(Vrecanted
g71
tp366
F1
s(Vdamn
g24
tp367
F1
s(Vlovers
g10
tp368
F1
s(Vjealous
g19
tp369
F1
s(g29
S'PDT'
p370
tp371
F6
s(Vroad
S'NN'
p372
tp373
F4
s(Vshou
g6
tp374
F15
s(VRoving
g15
tp375
F1
s(Vshow'ring
g44
tp376
F1
s(S'VBG'
p377
g90
tp378
F48
s(Vgay
g44
tp379
F1
s(Venvy
g142
tp380
F1
s(VVeil
g15
tp381
F1
s(Vhorse
g6
tp382
F3
s(S'PRP'
p383
g44
tp384
F62
s(VLanguage
g15
tp385
F3
s(Vstay
g29
tp386
F1
s(Vinnocence
g6
tp387
F6
s(VSeaman
g15
tp388
F1
s(g56
g76
tp389
F2
s(S'WRB'
p390
g140
tp391
F2
s(Vreserv
g44
tp392
F1
s(g140
g370
tp393
F15
s(Vshare
S'NN'
p394
tp395
F2
s(Vintrinsick
g44
tp396
F2
s(Vinterrupt
g19
tp397
F1
s(Vshocks
g59
tp398
F2
s(VPrince
g6
tp399
F3
s(Vswor'st
g6
tp400
F1
s(Vinterrupted
g24
tp401
F1
s(Vfir
g59
tp402
F1
s(Vlest
g191
tp403
F7
s(Vcrying
g56
tp404
F1
s(Vlearnt
g59
tp405
F1
s(Vchosen
g71
tp406
F1
s(g19
g120
tp407
F20
s(Vcaptive
g6
tp408
F1
s(VThe
S'DT'
p409
tp410
F15
s(VSometimes
g35
tp411
F1
s(Vsudden
g44
tp412
F7
s(Vnobler
g35
tp413
F1
s(VFain
g6
tp414
F1
s(g6
g76
tp415
F12
s(Vconfession
g6
tp416
F2
s(Valighted
g24
tp417
F1
s(VPatience
g6
tp418
F1
s(VConqueror
g15
tp419
F2
s(Vruffl
g44
tp420
F1
s(V-Mistress
g19
tp421
F1
s(Vcompetition
S'NN'
p422
tp423
F1
s(Vdispers
g10
tp424
F1
s(VNation
g6
tp425
F2
s(Vsweetning
g56
tp426
F1
s(g71
S'RB'
p427
tp428
F101
s(VBrisk
g15
tp429
F1
s(Vclosely
S'RB'
p430
tp431
F3
s(Vcounterfeited
g24
tp432
F1
s(Vworking
g56
tp433
F1
s(S')'
g27
tp434
F1
s(Vpersues
g29
tp435
F1
s(Veffects
S'NNS'
p436
tp437
F13
s(g191
g6
tp438
F35
s(Vflower
g6
tp439
F2
s(Vimaginary
g44
tp440
F1
s(Vthy
g6
tp441
F11
s(Vabsolutely
g35
tp442
F3
s(Vwhite
S'JJ'
p443
tp444
F11
s(g19
g81
tp445
F2
s(Vvaster
g6
tp446
F1
s(Vfiner
g63
tp447
F1
s(Vdignity
g6
tp448
F1
s(Vcoward
g44
tp449
F1
s(Vor'e
g13
tp450
F1
s(Vunkindness
g6
tp451
F1
s(Vfickle
g44
tp452
F6
s(Vslackens
g10
tp453
F1
s(Venters
g59
tp454
F1
s(VLady
g44
tp455
F1
s(g15
g25
tp456
F4
s(g27
g390
tp457
F1
s(Vsmell
g29
tp458
F1
s(VPlot
g15
tp459
F1
s(Vcomplain
g29
tp460
F1
s(Vfragments
g10
tp461
F1
s(Vescap
g24
tp462
F2
s(Vswear
g35
tp463
F1
s(Vconvinc
g29
tp464
F1
s(Vvows
g10
tp465
F17
s(Vnimbly
g35
tp466
F1
s(VAlas
g15
tp467
F7
s(g81
g15
tp468
F6
s(VIndustry
g6
tp469
F1
s(Vmeasures
g10
tp470
F2
s(Vwear
g6
tp471
F1
s(VRaptures
g10
tp472
F1
s(Valtogether
g35
tp473
F1
s(V-VVell
g29
tp474
F1
s(Vhurt
g71
tp475
F1
s(VTyrants
g10
tp476
F1
s(Vextasie
g6
tp477
F1
s(Vsat
g24
tp478
F2
s(VNight
g6
tp479
F1
s(Vnoisie
g6
tp480
F1
s(Vcry
g44
tp481
F1
s(S'VBN'
p482
g117
tp483
F8
s(Vpossess
g44
tp484
F1
s(S'VBZ'
p485
g323
tp486
F1
s(Vvital
g44
tp487
F1
s(VEight
g15
tp488
F4
s(Vlaught
g24
tp489
F1
s(Vdomestick
g10
tp490
F1
s(VProvinces
g10
tp491
F1
s(Vend
g29
tp492
F1
s(Vaction
S'NN'
p493
tp494
F4
s(V-will
g13
tp495
F1
s(Vespouse
g19
tp496
F1
s(VSovereignty
g15
tp497
F1
s(VCrown
g15
tp498
F2
s(Vdisdaining
g6
tp499
F1
s(Vqualities
g10
tp500
F1
s(Vgive
g19
tp501
F41
s(VLeagues
g15
tp502
F1
s(Vravisht
g6
tp503
F2
s(VTrees
g15
tp504
F2
s(Vshaded
g71
tp505
F1
s(Vtrifles
g10
tp506
F1
s(Vrallied
g71
tp507
F1
s(Vform
g44
tp508
F7
s(Vvast
g6
tp509
F1
s(Vup
g13
tp510
F2
s(Vunheeded
g44
tp511
F1
s(Vstart
g19
tp512
F1
s(Vpreferring
g56
tp513
F1
s(VCondy
g15
tp514
F1
s(Vform
g19
tp515
F1
s(S'('
S'NNS'
p516
tp517
F1
s(Vunconcern
g44
tp518
F7
s(g191
g140
tp519
F2
s(Vwinds
g10
tp520
F2
s(g111
S'PRP$'
p521
tp522
F6
s(Vhad
g35
tp523
F1
s(Vcrystal
g44
tp524
F1
s(VRelation
g6
tp525
F1
s(Vmuch
g44
tp526
F41
s(Vpurity
g6
tp527
F1
s(VLovely
g35
tp528
F2
s(VReputation
g15
tp529
F1
s(Vtold
g6
tp530
F2
s(Vtame
g19
tp531
F3
s(VSad
g15
tp532
F1
s(Vlonger
g35
tp533
F3
s(Vpowerful
S'JJ'
p534
tp535
F3
s(Vwise
g6
tp536
F2
s(Vfeeble
g44
tp537
F11
s(Vaffair
g6
tp538
F7
s(Vinjurer
g6
tp539
F1
s(Vfollowing
g44
tp540
F2
s(g117
g10
tp541
F1
s(Vlay
g19
tp542
F13
s(Varrive
g6
tp543
F2
s(Vperceiv
g29
tp544
F2
s(VRates
g10
tp545
F1
s(Vblessed'st
g6
tp546
F1
s(Vdiscard
g19
tp547
F1
s(Vmarried
g24
tp548
F4
s(Vdark
g6
tp549
F2
s(g191
S'.'
tp550
F2
s(VHorse
g6
tp551
F1
s(Vupbraiding
g44
tp552
F1
s(Vreaching
g56
tp553
F1
s(VIf
S'IN'
p554
tp555
F8
s(Vbelov
g24
tp556
F3
s(Vlanguid
g44
tp557
F1
s(Vnot
S'RB'
p558
tp559
F428
s(Vchanc
g59
tp560
F1
s(Vdone
g199
tp561
F13
s(Vperjur
g6
tp562
F4
s(Vcontain
g19
tp563
F1
s(Vsuffering
g56
tp564
F1
s(Valone
g19
tp565
F1
s(VSt.
S'NNP'
p566
tp567
F4
s(Vmile
g6
tp568
F2
s(Vtransports
g10
tp569
F7
s(Vimpertinently
g35
tp570
F1
s(Vlye
g19
tp571
F2
s(Vall
g19
tp572
F5
s(Vcome
g24
tp573
F4
s(Vtruths
g10
tp574
F1
s(Vthreatnings
g10
tp575
F1
s(g19
S'.'
tp576
F35
s(g6
g120
tp577
F26
s(Vobject
g6
tp578
F12
s(g558
g370
tp579
F6
s(VWomen
g15
tp580
F9
s(Vdelay
g6
tp581
F4
s(V-They
g19
tp582
F1
s(Vodd
g44
tp583
F1
s(Vsex
g6
tp584
F3
s(Vobliges
g59
tp585
F1
s(Vyields
g59
tp586
F1
s(VShe
S'PRP'
p587
tp588
F6
s(S','
S'WRB'
p589
tp590
F105
s(Vpass
g19
tp591
F5
s(Vart
g13
tp592
F1
s(V-and
g6
tp593
F5
s(Vpermit
g44
tp594
F1
s(VPhilanders
g10
tp595
F1
s(VTry
g15
tp596
F1
s(Vwhich
g81
tp597
F159
s(VFolly
g15
tp598
F1
s(Vwander
g19
tp599
F2
s(Vfasten
g19
tp600
F1
s(Vconsult
g6
tp601
F1
s(Vne
g44
tp602
F3
s(Vheav
g6
tp603
F2
s(Vresemblance
g6
tp604
F2
s(Vnicely
g35
tp605
F1
s(Vstroke
g6
tp606
F1
s(Vassume
g44
tp607
F1
s(Vleave
g29
tp608
F5
s(Vlose
g29
tp609
F2
s(Vadoe
g24
tp610
F1
s(VKingdoms
g15
tp611
F3
s(Vtrick
g44
tp612
F1
s(Vdisappointed
g44
tp613
F1
s(Vfain
g19
tp614
F2
s(Vcontent
g44
tp615
F3
s(S'VBP'
p616
S'NN'
p617
tp618
F27
s(g124
S'IN'
p619
tp620
F145
s(S')'
S'RB'
p621
tp622
F2
s(Vfrantick
g44
tp623
F2
s(Vhazard
g6
tp624
F2
s(S':'
g370
tp625
F3
s(g29
S','
tp626
F80
s(Vloves
g10
tp627
F4
s(Vhappen
g6
tp628
F1
s(Vdisquiet
g44
tp629
F1
s(g76
g293
tp630
F1
s(g140
g485
tp631
F49
s(Vweary
g44
tp632
F3
s(Vbright
g44
tp633
F3
s(Vcall'st
g19
tp634
F1
s(VGaze
g19
tp635
F1
s(Vfavouring
g56
tp636
F2
s(Vmatch
g6
tp637
F2
s(VCoronet
g15
tp638
F1
s(Vgood
g44
tp639
F23
s(Vbusy
g44
tp640
F1
s(Vadjacent
g44
tp641
F1
s(Vfrivolous
g44
tp642
F1
s(VInsensible
g15
tp643
F1
s(Vchid
g29
tp644
F2
s(Vsend
g19
tp645
F9
s(VGranting
g56
tp646
F1
s(Vwillful
g44
tp647
F1
s(V-then
g44
tp648
F1
s(Vdestin
g6
tp649
F2
s(g17
S'DT'
p650
tp651
F1106
s(Vconsidering
S'VBG'
p652
tp653
F3
s(Vomen
g10
tp654
F1
s(Vdisappears
g59
tp655
F1
s(Valas
g126
tp656
F5
s(g10
g19
tp657
F4
s(Vplac
g6
tp658
F1
s(Vsport
g6
tp659
F2
s(Vfled
g44
tp660
F1
s(VAdieu
g15
tp661
F1
s(Vdecencies
g10
tp662
F1
s(Vfidelity
g6
tp663
F1
s(Vplease
g19
tp664
F3
s(Vprice
S'NN'
p665
tp666
F3
s(Vprize
g6
tp667
F1
s(Vjustifie
g19
tp668
F5
s(Vlanguishing
g56
tp669
F6
s(Valteration
g6
tp670
F1
s(Vsecret
g6
tp671
F6
s(Van
g90
tp672
F99
s(Vperplexes
g10
tp673
F1
s(Vlive
g19
tp674
F19
s(Voblige
g44
tp675
F1
s(Vunknown
g44
tp676
F5
s(Vextremely
S'RB'
p677
tp678
F1
s(g13
g76
tp679
F24
s(VVigor
g15
tp680
F1
s(Vhonour
g6
tp681
F24
s(Vbest
S'RBS'
p682
tp683
F3
s(Vfortunate
g19
tp684
F1
s(g56
g140
tp685
F11
s(Vgravity
g6
tp686
F1
s(Vruns
g59
tp687
F3
s(Vblended
g24
tp688
F1
s(S'NNPS'
p689
g19
tp690
F1
s(g29
g152
tp691
F6
s(Vconquer
g19
tp692
F3
s(Vrailings
g10
tp693
F1
s(Vrob
g59
tp694
F1
s(Vreason
S'NN'
p695
tp696
F12
s(Vneglect
g19
tp697
F1
s(Vflowry
g6
tp698
F1
s(Vprove
g19
tp699
F3
s(VLiberty
g24
tp700
F1
s(Vbeneath
g6
tp701
F2
s(Vtricks
g10
tp702
F2
s(Vgaz
g6
tp703
F1
s(Vlanguage
S'NN'
p704
tp705
F2
s(g29
g13
tp706
F114
s(Vrising
g56
tp707
F3
s(VConquests
g59
tp708
F1
s(Vdesign
g24
tp709
F2
s(Vallow
g19
tp710
F2
s(g323
g19
tp711
F3
s(VRavish't
g15
tp712
F1
s(g124
S','
tp713
F43
s(S'PRP$'
p714
S'PRP'
p715
tp716
F7
s(Vhope
g19
tp717
F3
s(Vadvantages
g10
tp718
F4
s(VPassion
g6
tp719
F11
s(VVanquisht
g15
tp720
F1
s(Vsoever
g6
tp721
F1
s(g689
g59
tp722
F1
s(Vcontented
g24
tp723
F1
s(V'd
g142
tp724
F1
s(Vbetray
g19
tp725
F7
s(Vyes
g10
tp726
F1
s(Vsure
g73
tp727
F1
s(Vsmil
g44
tp728
F2
s(Vpursuit
g6
tp729
F4
s(g25
g29
tp730
F1
s(Vlost
g71
tp731
F4
s(Vall-powerful
g44
tp732
F1
s(Vincessantly
g35
tp733
F1
s(Vforest
g6
tp734
F1
s(Vdays
S'NNS'
p735
tp736
F9
s(Vamarous
g44
tp737
F1
s(Vdeals
g59
tp738
F1
s(Vrestoring
g6
tp739
F1
s(g29
S')'
tp740
F5
s(VDulness
g15
tp741
F1
s(Vrallies
g10
tp742
F1
s(Vfreed
g24
tp743
F1
s(Vsmooth
g44
tp744
F2
s(Vfugitive
g44
tp745
F2
s(VShipwreck
g15
tp746
F1
s(Vinfallibly
g35
tp747
F1
s(Vever
S'RB'
p748
tp749
F56
s(g71
S':'
tp750
F20
s(g715
g117
tp751
F22
s(Vreproaches
g10
tp752
F8
s(Vhated
g71
tp753
F1
s(Vfalshood
g6
tp754
F3
s(Vrecompence
g6
tp755
F3
s(Vfaithfullest
g191
tp756
F1
s(Vgot
g71
tp757
F10
s(Vcensuring
g6
tp758
F2
s(Vmiss
g19
tp759
F1
s(Vunequal
g44
tp760
F1
s(Vwou
g71
tp761
F6
s(Vour
S'PRP$'
p762
tp763
F55
s(Vshun
g19
tp764
F1
s(Vextravagance
g6
tp765
F2
s(VBirch
g15
tp766
F1
s(g19
g715
tp767
F509
s(Vretains
g10
tp768
F1
s(V-Oh
g13
tp769
F3
s(V'd
g10
tp770
F28
s(Vequipage
g6
tp771
F2
s(Vendure
g19
tp772
F1
s(V'Till
g76
tp773
F1
s(Vguard
g6
tp774
F2
s(VKing
g6
tp775
F1
s(Vrape
g6
tp776
F1
s(g59
g682
tp777
F1
s(VDorilus
g15
tp778
F2
s(Vpant
g19
tp779
F1
s(V're
g179
tp780
F40
s(g59
g15
tp781
F27
s(g71
g24
tp782
F85
s(VMind
g6
tp783
F1
s(g56
S':'
tp784
F5
s(Vmaintain
g59
tp785
F1
s(Vsustain
g6
tp786
F1
s(Vlov
g29
tp787
F14
s(Vresign
g19
tp788
F1
s(V've
S'VBP'
p789
tp790
F12
s(Vhouse
S'NN'
p791
tp792
F7
s(Vrenounce
g19
tp793
F1
s(Vopportunities
g10
tp794
F1
s(Vhurrying
g56
tp795
F1
s(Vsuccess
S'NN'
p796
tp797
F2
s(Vcommand
g19
tp798
F4
s(Vinhabitants
g10
tp799
F2
s(Vbelieve
g29
tp800
F11
s(VReasonings
g15
tp801
F1
s(Vrais
g24
tp802
F1
s(Vnine
S'CD'
p803
tp804
F1
s(VCharmer
g6
tp805
F1
s(Vlook't
g6
tp806
F1
s(Vdy
g29
tp807
F11
s(VApproach
g15
tp808
F1
s(Valas
g10
tp809
F5
s(Vfrighted
g24
tp810
F1
s(Vvisit
g6
tp811
F3
s(g715
S')'
tp812
F9
s(Vmomentary
g44
tp813
F2
s(Vbrought
g71
tp814
F8
s(Vfollow
g19
tp815
F4
s(g126
g10
tp816
F1
s(g126
g59
tp817
F1
s(Vsister
g6
tp818
F4
s(Vdeed
g19
tp819
F1
s(Vsatiated
g24
tp820
F2
s(g81
S'('
tp821
F1
s(Vanew
g6
tp822
F2
s(Vairy
g44
tp823
F1
s(Vconverse
g6
tp824
F1
s(S'PRP'
p825
g29
tp826
F914
s(Vhead-strong
g44
tp827
F1
s(Vcondemn
g6
tp828
F1
s(VCrime
g15
tp829
F1
s(Vfervent
g44
tp830
F1
s(Vaugmented
g24
tp831
F1
s(Vmurmuring
g6
tp832
F1
s(Vapproach
g6
tp833
F14
s(VJudgment
g15
tp834
F1
s(g15
g153
tp835
F27
s(VThat
g90
tp836
F5
s(Vknow
g19
tp837
F20
s(Vblush
g6
tp838
F1
s(V-here
g35
tp839
F1
s(Vsmile
g19
tp840
F2
s(Vunsteady
g44
tp841
F1
s(Vcoming
g6
tp842
F2
s(Vboldness
g6
tp843
F1
s(Vwarmth
g6
tp844
F1
s(V-you
g19
tp845
F1
s(V-if
g19
tp846
F3
s(g191
S'VBD'
p847
tp848
F1
s(Vimagine
g19
tp849
F6
s(Vhours
S'NNS'
p850
tp851
F25
s(Vfrights
g10
tp852
F1
s(Vbounty
g6
tp853
F3
s(Vtempest
g6
tp854
F1
s(Vagreable
g44
tp855
F1
s(VTreasures
g10
tp856
F1
s(Vshe
S'PRP'
p857
tp858
F98
s(Vservice
g6
tp859
F1
s(g390
g293
tp860
F5
s(VAccent
g6
tp861
F1
s(VSighs
g15
tp862
F8
s(Vnobly
g35
tp863
F3
s(VCalm
g15
tp864
F1
s(V'twill
S'POS'
p865
tp866
F1
s(Vhabitation
g6
tp867
F1
s(VCoverts
g10
tp868
F1
s(VVeins
g10
tp869
F1
s(Vessay
g29
tp870
F1
s(Vminutes
S'NNS'
p871
tp872
F3
s(Vdull
g44
tp873
F22
s(Vbehoves
g10
tp874
F1
s(Vtraverse
g19
tp875
F2
s(Vcapable
g44
tp876
F8
s(V.
S'.'
tp877
F303
s(Vforlorn
g24
tp878
F1
s(Vricher
g6
tp879
F1
s(g59
S'.'
tp880
F7
s(Vdepart
g19
tp881
F5
s(VArms
g15
tp882
F7
s(V'twould
g44
tp883
F1
s(VMinute
g6
tp884
F1
s(g865
g44
tp885
F7
s(Vwhose
S'WP$'
p886
tp887
F25
s(S','
g24
tp888
F18
s(Vrepos
g6
tp889
F1
s(Vaccept
g6
tp890
F1
s(Vdedicated
g24
tp891
F1
s(Vliv
g29
tp892
F1
s(Vcease
g19
tp893
F1
s(Vlanguish
g19
tp894
F2
s(V--
S':'
tp895
F405
s(Vwhilst
g29
tp896
F1
s(Vrouls
g59
tp897
F1
s(VHonour
g19
tp898
F1
s(S'NN'
p899
g35
tp900
F169
s(Vintended
g24
tp901
F1
s(VJoy
g15
tp902
F2
s(Vwhatever
g81
tp903
F3
s(Vjudgment
g6
tp904
F2
s(Vpropensity
g6
tp905
F1
s(Vreceive
g19
tp906
F13
s(Vvisited
g24
tp907
F1
s(Vchange
g19
tp908
F3
s(Vinevitable
g44
tp909
F1
s(V-For
g29
tp910
F1
s(Vhearty
g44
tp911
F1
s(Vkilling
g56
tp912
F3
s(Vunequall
g44
tp913
F1
s(g19
g152
tp914
F2
s(Vquarrel
g6
tp915
F3
s(Vlingring
g44
tp916
F1
s(S':'
g126
tp917
F50
s(V-Love
g19
tp918
F1
s(Vye
g6
tp919
F5
s(Vremains
g10
tp920
F1
s(Vdoubt
g29
tp921
F3
s(Vlisten
g29
tp922
F1
s(Vconvenient
g44
tp923
F1
s(Vshow
g29
tp924
F1
s(V'd
g865
tp925
F42
s(Vkindled
g71
tp926
F1
s(Vto
g293
tp927
F1174
s(VStage
g6
tp928
F1
s(g63
S','
tp929
F12
s(Vdaub
g19
tp930
F1
s(VCouncellors
g10
tp931
F1
s(Vcreate
g19
tp932
F3
s(Vruin
g19
tp933
F3
s(Vcall
g44
tp934
F4
s(S':'
S'EX'
p935
tp936
F8
s(Vcover
g6
tp937
F1
s(Vremiss
g44
tp938
F1
s(g10
g142
tp939
F1
s(VSubject
g15
tp940
F2
s(Vcriminal
g44
tp941
F9
s(Vclasp
g6
tp942
F2
s(Vcontinually
g35
tp943
F2
s(VLanguishment
g6
tp944
F2
s(Vunfortunate
g44
tp945
F5
s(Vbecause
g13
tp946
F12
s(VHour
g15
tp947
F2
s(Vlarge
S'JJ'
p948
tp949
F2
s(VLordship
g6
tp950
F3
s(Vlyable
g44
tp951
F1
s(Vstand
g29
tp952
F3
s(Vpursuing
g56
tp953
F1
s(Vhonour
g24
tp954
F2
s(Vdifferent
S'JJ'
p955
tp956
F4
s(Vconjure
g19
tp957
F2
s(Vfansie
g19
tp958
F1
s(V-when
g73
tp959
F1
s(Vdear
g13
tp960
F1
s(Vcautious
g44
tp961
F2
s(V-hear
g13
tp962
F1
s(Vcoupling
g56
tp963
F1
s(Vlasting
g6
tp964
F1
s(V\u005c
g19
tp965
F1
s(Vpermitted
g24
tp966
F1
s(Vconsidered
g24
tp967
F1
s(V-Sweet
g19
tp968
F1
s(Vshou
g71
tp969
F4
s(VNor
g73
tp970
F5
s(Vsole
g44
tp971
F2
s(Vgreedy
g6
tp972
F1
s(VYes
g15
tp973
F1
s(Vpityless
g6
tp974
F2
s(Vobstinate
g6
tp975
F1
s(Vunheedy
g44
tp976
F2
s(Vdeed
g6
tp977
F4
s(Vobey
g19
tp978
F4
s(Vgrace
g6
tp979
F3
s(Vcou
g29
tp980
F20
s(Vforward
g6
tp981
F1
s(Vunconfin
g44
tp982
F1
s(VTrade
S'NNP'
p983
tp984
F1
s(Vinsuing
g6
tp985
F1
s(Vmerits
g10
tp986
F2
s(V'd
g24
tp987
F5
s(Vopening
g44
tp988
F1
s(Vfearfull
g6
tp989
F1
s(Vstore
g6
tp990
F6
s(Vforfeit
g6
tp991
F1
s(Vsatisfied
g44
tp992
F1
s(VSurgeon
g15
tp993
F2
s(VFool
g15
tp994
F2
s(Vmoments
g10
tp995
F5
s(S'JJR'
p996
g15
tp997
F2
s(Vwelcomes
g10
tp998
F1
s(V-But
g126
tp999
F1
s(VMatrimonial
g15
tp1000
F2
s(g79
g6
tp1001
F37
s(Vdistracted
g44
tp1002
F1
s(Vwho
g111
tp1003
F84
s(Vpardon
g19
tp1004
F2
s(Vdisappointment
g6
tp1005
F2
s(Vsuppos
g44
tp1006
F1
s(Vplant
S'NN'
p1007
tp1008
F1
s(g117
g140
tp1009
F1
s(VFrom
g13
tp1010
F4
s(Vcontinued
g24
tp1011
F1
s(g152
g293
tp1012
F1
s(VVirgin
g6
tp1013
F1
s(Vsweet
g44
tp1014
F4
s(Vbody
g6
tp1015
F10
s(V-till
g19
tp1016
F1
s(Vunderstand
g29
tp1017
F2
s(VHouse
S'NNP'
p1018
tp1019
F4
s(Vboard
S'NN'
p1020
tp1021
F1
s(VThis
S'DT'
p1022
tp1023
F5
s(Vcuriously
g35
tp1024
F1
s(Vdelicate
g44
tp1025
F6
s(Vlong
g13
tp1026
F1
s(VUnder
S'IN'
p1027
tp1028
F1
s(Vdemand
g19
tp1029
F1
s(Vdreamt
g24
tp1030
F1
s(Vdurst
g19
tp1031
F1
s(S'('
g293
tp1032
F3
s(Vdeath
S'NN'
p1033
tp1034
F17
s(Vlead
g6
tp1035
F1
s(g619
S'NNS'
p1036
tp1037
F88
s(Vten
g19
tp1038
F1
s(Vdamn
g59
tp1039
F1
s(V-Or
g29
tp1040
F1
s(g124
g566
tp1041
F23
s(VOx
g15
tp1042
F1
s(Vmeet
g6
tp1043
F1
s(VConcern
g15
tp1044
F1
s(Vsensibly
g35
tp1045
F1
s(Vmeaning
g6
tp1046
F4
s(Vrevealing
g56
tp1047
F1
s(Vyield
g19
tp1048
F6
s(Vimploy
g6
tp1049
F2
s(Vthence
g19
tp1050
F1
s(Vsolitary
g44
tp1051
F1
s(Voutrage
g6
tp1052
F2
s(Vabsent
g6
tp1053
F2
s(Voblige
g142
tp1054
F1
s(Vindure
g19
tp1055
F1
s(VErasto
g15
tp1056
F1
s(Vagain
S'RB'
p1057
tp1058
F26
s(Vflattery
g6
tp1059
F2
s(Vstudying
g56
tp1060
F1
s(V-by
g71
tp1061
F2
s(Vproud
g6
tp1062
F1
s(Vcommended
g44
tp1063
F1
s(Vdoubts
g10
tp1064
F1
s(Vgone
S'VBN'
p1065
tp1066
F17
s(Vdisorder
g19
tp1067
F1
s(Vliving
g6
tp1068
F3
s(Vtormentingly
g35
tp1069
F1
s(Vbear
g19
tp1070
F9
s(g81
S','
tp1071
F5
s(VHis
S'PRP$'
p1072
tp1073
F2
s(Velevates
g59
tp1074
F1
s(Vturns
g10
tp1075
F3
s(VPerfumes
g15
tp1076
F2
s(VRepeat
g6
tp1077
F1
s(VAdvance
g15
tp1078
F1
s(Vforbear
g44
tp1079
F2
s(VPoliticians
g689
tp1080
F1
s(Vsatisfied
g24
tp1081
F1
s(Vordinary
g44
tp1082
F1
s(Vholds
S'VBZ'
p1083
tp1084
F2
s(Vcounted
g71
tp1085
F1
s(VOdours
g15
tp1086
F1
s(Vjoining
g56
tp1087
F1
s(VHeav'n
g29
tp1088
F1
s(Vjoys
g19
tp1089
F2
s(VSpeechless
g6
tp1090
F1
s(VPardon
g19
tp1091
F1
s(VHusband
g15
tp1092
F8
s(Vbodes
g59
tp1093
F1
s(Vdimpl
g6
tp1094
F1
s(V'd
g15
tp1095
F27
s(Voft
g44
tp1096
F2
s(Vexcellent
g44
tp1097
F3
s(g6
g825
tp1098
F171
s(Vhint
g6
tp1099
F1
s(Velse
g35
tp1100
F7
s(Vconsider
g19
tp1101
F7
s(Vmust
S'MD'
p1102
tp1103
F74
s(VAmbition
g15
tp1104
F3
s(Vrecompense
g19
tp1105
F1
s(Velevated
g71
tp1106
F2
s(Valone
g29
tp1107
F1
s(g383
g133
tp1108
F26
s(Vgreediness
g6
tp1109
F1
s(Vintimate
g44
tp1110
F1
s(Vmove
g29
tp1111
F1
s(Vlest
g13
tp1112
F3
s(Vdiscover
g35
tp1113
F7
s(Vbeautiful
g35
tp1114
F1
s(Vpersue
g6
tp1115
F1
s(Vinstruct
g19
tp1116
F1
s(Vsight
g6
tp1117
F11
s(Vwitness
g6
tp1118
F1
s(Vdiscourses
g10
tp1119
F1
s(Vdrown
g44
tp1120
F1
s(Vdread
g19
tp1121
F1
s(VGown
g15
tp1122
F2
s(VOath
g15
tp1123
F1
s(Vjoins
g10
tp1124
F1
s(VEasy
g15
tp1125
F1
s(Vleft
g44
tp1126
F1
s(Ve
g19
tp1127
F1
s(g63
g56
tp1128
F2
s(S':'
S'JJ'
p1129
tp1130
F100
s(Vfondness
g6
tp1131
F2
s(Vbound
g24
tp1132
F1
s(Vcoldness
g6
tp1133
F4
s(Vbecame
S'VBD'
p1134
tp1135
F3
s(Vcontradicted
g71
tp1136
F1
s(Vswiftly
g35
tp1137
F1
s(Vretriev
g24
tp1138
F1
s(Vwert
g29
tp1139
F1
s(Vcarry
g19
tp1140
F1
s(Vvaluable
g44
tp1141
F1
s(VCloaths
g15
tp1142
F1
s(Vsoften
g19
tp1143
F1
s(V-or
g19
tp1144
F2
s(Vlook
g19
tp1145
F14
s(Vwreck
g19
tp1146
F1
s(Vwou
g6
tp1147
F24
s(Vshock
g6
tp1148
F3
s(Vready
g29
tp1149
F1
s(g140
g111
tp1150
F25
s(Vhad
g24
tp1151
F1
s(S'('
g13
tp1152
F38
s(Vdefending
g56
tp1153
F1
s(Vsigher
g6
tp1154
F2
s(Vdeny
g19
tp1155
F3
s(Vunstudyed
g10
tp1156
F1
s(Vdishevel
g6
tp1157
F1
s(VStill
S'RB'
p1158
tp1159
F2
s(S'('
S'VBD'
p1160
tp1161
F2
s(Vdirection
S'NN'
p1162
tp1163
F2
s(Vthink
g29
tp1164
F22
s(g19
g15
tp1165
F71
s(Vcontinu
g6
tp1166
F1
s(Vlov
g6
tp1167
F1
s(Vdiscreet
g35
tp1168
F1
s(Vglows
g10
tp1169
F1
s(Vgriefs
g44
tp1170
F1
s(Vretreat
g6
tp1171
F10
s(Vforsaken
g44
tp1172
F1
s(Vyouth
g6
tp1173
F12
s(Vposting
g56
tp1174
F1
s(g124
g485
tp1175
F4
s(S'DT'
p1176
g111
tp1177
F1
s(Vsafely
g35
tp1178
F2
s(Vplease
g29
tp1179
F5
s(VLaughing
g56
tp1180
F1
s(Venvious
g44
tp1181
F3
s(Vtenderest
g6
tp1182
F1
s(g15
g383
tp1183
F83
s(Vprescribe
g19
tp1184
F1
s(VBreasts
g10
tp1185
F1
s(Vbinds
g10
tp1186
F1
s(Vmorrow
g19
tp1187
F3
s(Vhold
g6
tp1188
F2
s(Vlive
g29
tp1189
F7
s(Vcarrest
g6
tp1190
F1
s(Vclapt
g59
tp1191
F1
s(Vdimpled
g44
tp1192
F1
s(Vbetween
S'IN'
p1193
tp1194
F10
s(Vours
g19
tp1195
F2
s(VVictim
g15
tp1196
F3
s(Vfix
g10
tp1197
F1
s(Vdamn
g19
tp1198
F1
s(Vtorn
g24
tp1199
F1
s(VAct
S'NNP'
p1200
tp1201
F2
s(S':'
g76
tp1202
F7
s(Vpermits
g59
tp1203
F3
s(Vparticularly
S'RB'
p1204
tp1205
F1
s(Vfee
g6
tp1206
F1
s(Vzeal
g6
tp1207
F2
s(Vprattle
g44
tp1208
F1
s(Vstays
g59
tp1209
F1
s(Vis't
g44
tp1210
F1
s(Vjealousie
g6
tp1211
F9
s(Vsee
g19
tp1212
F51
s(Vthan
S'IN'
p1213
tp1214
F88
s(Varm
g24
tp1215
F1
s(VThrone
g15
tp1216
F1
s(Vfetter
g19
tp1217
F1
s(VGuardian
g44
tp1218
F1
s(Vwaiting
g56
tp1219
F11
s(Vdeign
g24
tp1220
F1
s(Vmoments
g59
tp1221
F2
s(Vsweets
g10
tp1222
F2
s(g865
S'NN'
p1223
tp1224
F51
s(Vfurious
g44
tp1225
F1
s(Vsilent
g44
tp1226
F23
s(g13
g142
tp1227
F2
s(Vquiet
g44
tp1228
F5
s(Vexercises
g10
tp1229
F1
s(Vgloomy
g71
tp1230
F1
s(Vuneasie
g44
tp1231
F2
s(Vrises
g59
tp1232
F1
s(Vuncontroul
g44
tp1233
F1
s(Vappearance
g6
tp1234
F2
s(Vmine
g6
tp1235
F17
s(VOfficers
g10
tp1236
F1
s(Vbroke
g6
tp1237
F1
s(V-what
g111
tp1238
F2
s(Vcomply
g6
tp1239
F1
s(Veat
g6
tp1240
F1
s(S'VBN'
p1241
g191
tp1242
F1
s(g24
g153
tp1243
F2
s(Vcommodity
S'NN'
p1244
tp1245
F1
s(Vloath
g29
tp1246
F2
s(VCabal
g15
tp1247
F5
s(Vdried
g24
tp1248
F1
s(VJilt
g15
tp1249
F1
s(g81
S'MD'
p1250
tp1251
F41
s(VArts
g10
tp1252
F2
s(VAlliance
g15
tp1253
F2
s(Vdespairing
g56
tp1254
F2
s(Vconcealed
g71
tp1255
F1
s(Vconclusion
g6
tp1256
F1
s(Vresolves
g10
tp1257
F2
s(Vretire
g19
tp1258
F5
s(Vhighest
S'JJS'
p1259
tp1260
F2
s(Vscarce
g71
tp1261
F1
s(Vwhence
g6
tp1262
F6
s(g29
g24
tp1263
F115
s(Vraise
g19
tp1264
F3
s(Vcome
g29
tp1265
F5
s(Vbrighter
g6
tp1266
F1
s(VGarments
g10
tp1267
F2
s(VSilent
g6
tp1268
F1
s(VLanguish
g29
tp1269
F1
s(Vdare
g19
tp1270
F1
s(Vdurst
g59
tp1271
F3
s(Vimagin
g19
tp1272
F4
s(Vwound
g19
tp1273
F1
s(Vreserve
g6
tp1274
F1
s(Vgasping
g56
tp1275
F1
s(VCrowns
g15
tp1276
F2
s(Vabove
g44
tp1277
F2
s(Vat
S'IN'
p1278
tp1279
F169
s(Vdown
g13
tp1280
F2
s(Vpreserve
g6
tp1281
F2
s(Vabsence
g6
tp1282
F3
s(VThough
g15
tp1283
F1
s(Vswearing
g6
tp1284
F1
s(Vdisguis
g6
tp1285
F1
s(Vstews
g6
tp1286
F1
s(Vdesign
g19
tp1287
F2
s(Vstrange
g44
tp1288
F8
s(Vlavishly
g44
tp1289
F1
s(Vyonder
g6
tp1290
F1
s(Vso.
g24
tp1291
F1
s(g90
S'RB'
p1292
tp1293
F35
s(Vpall
g19
tp1294
F1
s(Vlonger
g63
tp1295
F2
s(VAdmirer
g19
tp1296
F1
s(Vrose
S'VBD'
p1297
tp1298
F2
s(Vfortune
g6
tp1299
F12
s(Vchanges
g10
tp1300
F1
s(Vbreath
g19
tp1301
F1
s(Vlive-long
g44
tp1302
F2
s(Vwak
g59
tp1303
F1
s(Vabject
g44
tp1304
F2
s(V-oh
g15
tp1305
F1
s(Vbeg
g13
tp1306
F1
s(Vpretty
g44
tp1307
F4
s(Vvivacity
g6
tp1308
F2
s(Vvigor
g6
tp1309
F2
s(Vbecome
g19
tp1310
F3
s(Vown
g29
tp1311
F1
s(Vbreeze
g6
tp1312
F1
s(VNations
g15
tp1313
F1
s(Vrank
g6
tp1314
F1
s(Vsin
g19
tp1315
F1
s(Vaway
g19
tp1316
F3
s(Vblush
g44
tp1317
F1
s(Vadvancing
g6
tp1318
F1
s(g24
g124
tp1319
F56
s(Vcou
g10
tp1320
F1
s(Vreasonable
g44
tp1321
F6
s(Vcaught
g71
tp1322
F1
s(Vdirected
g24
tp1323
F1
s(Vwake
g29
tp1324
F1
s(Vvastness
g6
tp1325
F1
s(g847
g44
tp1326
F75
s(S'IN'
p1327
g15
tp1328
F486
s(Vconvey
g44
tp1329
F1
s(Vthousand
g6
tp1330
F13
s(VPore
g6
tp1331
F1
s(Vfetter
g35
tp1332
F1
s(g865
g29
tp1333
F1
s(Vinterrupting
g56
tp1334
F1
s(Vamongst
g13
tp1335
F1
s(Vundo
g29
tp1336
F1
s(Vpressing
g56
tp1337
F5
s(Vfearing
g56
tp1338
F1
s(g293
g19
tp1339
F710
s(Vcooling
g6
tp1340
F1
s(Vpardon
g13
tp1341
F1
s(Vintirely
g35
tp1342
F3
s(Vread
g6
tp1343
F1
s(Vcolour
g44
tp1344
F1
s(g865
g825
tp1345
F6
s(VYouth
g6
tp1346
F6
s(S'('
g825
tp1347
F5
s(Vspeaking
g44
tp1348
F1
s(Vdazling
g6
tp1349
F1
s(Vdog
g29
tp1350
F1
s(Vany
S'DT'
p1351
tp1352
F74
s(Vevasion
g6
tp1353
F1
s(Vabout
g13
tp1354
F20
s(Vpierc
g59
tp1355
F1
s(VPeticoat
g15
tp1356
F1
s(VWhose
g44
tp1357
F1
s(Vthou'st
g29
tp1358
F1
s(Vrival
g44
tp1359
F1
s(Vconsent
g19
tp1360
F1
s(S':'
g10
tp1361
F15
s(VHead
g15
tp1362
F1
s(Vadores
g59
tp1363
F3
s(Vmighty
g10
tp1364
F2
s(VJessamine
g15
tp1365
F1
s(Vwantonly
g35
tp1366
F1
s(VSovereign
g15
tp1367
F1
s(Vincounter
g6
tp1368
F1
s(Vpassest
g6
tp1369
F1
s(Vgoing
S'VBG'
p1370
tp1371
F10
s(Vsend'st
g6
tp1372
F1
s(Vimbraces
g10
tp1373
F1
s(VStars
g15
tp1374
F1
s(Vsweetness
g6
tp1375
F3
s(Vcalmness
g6
tp1376
F2
s(Vtoils
g10
tp1377
F3
s(VLampoons
g15
tp1378
F1
s(VLimb
g6
tp1379
F1
s(Vplain
g35
tp1380
F2
s(Vtrance
g6
tp1381
F1
s(Vrecesses
g10
tp1382
F1
s(Vmidst
g6
tp1383
F4
s(Vover
g117
tp1384
F2
s(Vsubtilty
g6
tp1385
F1
s(Vdearly
g35
tp1386
F1
s(VMurder
g15
tp1387
F3
s(Vfortune
g44
tp1388
F1
s(VWhore
g15
tp1389
F2
s(Vseem
g29
tp1390
F2
s(Vwalking
g56
tp1391
F2
s(Vkilling
g6
tp1392
F4
s(Vwords
S'NNS'
p1393
tp1394
F13
s(Vsullenly
g35
tp1395
F2
s(Vill
g44
tp1396
F6
s(Vdress
g6
tp1397
F2
s(VLimb
g15
tp1398
F1
s(Vidly
g35
tp1399
F1
s(Vattone
g19
tp1400
F1
s(Vurg
g44
tp1401
F2
s(Vvengeance
g6
tp1402
F4
s(V-all
g19
tp1403
F1
s(Vfrowns
g35
tp1404
F1
s(VRival
g15
tp1405
F6
s(Vsignaliz
g29
tp1406
F1
s(Vlong
g44
tp1407
F5
s(Vsuspect
g19
tp1408
F1
s(g71
S','
tp1409
F58
s(Vcommanded
g71
tp1410
F2
s(Vunthinking
g44
tp1411
F2
s(Vdisappoint
g19
tp1412
F2
s(Vpast
g29
tp1413
F1
s(Vdenials
g10
tp1414
F1
s(Ventrance
g6
tp1415
F1
s(Vhers
g10
tp1416
F2
s(Vimportunities
g10
tp1417
F1
s(Vseizes
g59
tp1418
F3
s(Vprosperous
g44
tp1419
F2
s(VDorillus
g15
tp1420
F24
s(Vbreaking
g6
tp1421
F1
s(Vplays
g10
tp1422
F1
s(VSure
g44
tp1423
F1
s(VPressings
g15
tp1424
F1
s(VBurlesque
g15
tp1425
F1
s(Vexcessive
g44
tp1426
F1
s(Vsupportable
g6
tp1427
F1
s(VFoundation
g15
tp1428
F1
s(Vdesigning
g56
tp1429
F2
s(g44
g81
tp1430
F1
s(VName
g15
tp1431
F1
s(Vtouches
g10
tp1432
F3
s(Vbaseness
g6
tp1433
F1
s(Vfool
g24
tp1434
F1
s(g81
g370
tp1435
F1
s(VPlains
g15
tp1436
F1
s(Vgenerous
g44
tp1437
F17
s(VEnvying
g56
tp1438
F1
s(Vthreatens
g59
tp1439
F1
s(Vminds
g10
tp1440
F1
s(Vfan
g59
tp1441
F1
s(Vbestow
g19
tp1442
F1
s(Vwithin
S'IN'
p1443
tp1444
F8
s(g15
g44
tp1445
F22
s(VHundred
g15
tp1446
F1
s(VCoachman
g15
tp1447
F1
s(g117
g15
tp1448
F2
s(Vregard
g29
tp1449
F1
s(Vunspeakable
g44
tp1450
F3
s(Vboth
g90
tp1451
F31
s(g25
g293
tp1452
F1
s(Vcanst
g44
tp1453
F1
s(Vpossess
g19
tp1454
F5
s(Vsigh
g6
tp1455
F7
s(Vparting
g6
tp1456
F1
s(Vbehind
g13
tp1457
F4
s(Vthou'dst
g44
tp1458
F1
s(Vpains
g59
tp1459
F2
s(Vfram
g6
tp1460
F1
s(Vsighs
g6
tp1461
F1
s(g19
S'NNS'
p1462
tp1463
F21
s(Vsleepless
g44
tp1464
F2
s(Virrecoverable
g44
tp1465
F1
s(V's
g59
tp1466
F46
s(Vdoatingly
g35
tp1467
F1
s(Vpale
g6
tp1468
F3
s(VGlories
g10
tp1469
F1
s(Vtemptations
g10
tp1470
F1
s(VWit
g15
tp1471
F5
s(VWas
g15
tp1472
F1
s(Vposted
g71
tp1473
F1
s(V'twere
g15
tp1474
F1
s(Vgrown
g6
tp1475
F1
s(Vkindly
g35
tp1476
F1
s(g865
g1327
tp1477
F6
s(Vart
g6
tp1478
F23
s(VCharming
g15
tp1479
F16
s(VFant
g15
tp1480
F1
s(Vsparkling
g56
tp1481
F1
s(V-this
g44
tp1482
F1
s(VGoodness
g15
tp1483
F2
s(Vorder
S'NN'
p1484
tp1485
F20
s(Vsubdues
g59
tp1486
F1
s(Vwither
g29
tp1487
F1
s(V-oh
g6
tp1488
F4
s(g689
S'IN'
p1489
tp1490
F1
s(Vplain
g44
tp1491
F1
s(Vsoft
g44
tp1492
F73
s(g589
g111
tp1493
F1
s(Vcause
g6
tp1494
F12
s(S'MD'
p1495
g81
tp1496
F3
s(Vexpose
g19
tp1497
F3
s(Vmov
g124
tp1498
F1
s(Vecstasie
g6
tp1499
F1
s(V,
S','
tp1500
F4282
s(S'JJ'
p1501
g24
tp1502
F11
s(VWits
g15
tp1503
F1
s(VKnees
g10
tp1504
F1
s(Vbask
g59
tp1505
F1
s(g124
g111
tp1506
F3
s(Vransom
g19
tp1507
F1
s(g1241
g71
tp1508
F3
s(Vpoint
g19
tp1509
F2
s(Vfast
g35
tp1510
F3
s(Vload
g19
tp1511
F2
s(Vdriving
g56
tp1512
F1
s(Vhands
g10
tp1513
F19
s(V-say
g29
tp1514
F1
s(g35
g293
tp1515
F100
s(VPockets
g10
tp1516
F1
s(VDaphne
g15
tp1517
F1
s(Vdespairs
g6
tp1518
F1
s(Vearly
g44
tp1519
F4
s(VBy
S'IN'
p1520
tp1521
F1
s(S':'
g56
tp1522
F6
s(VAdorer
g15
tp1523
F2
s(Verror
g6
tp1524
F1
s(Vthen
S'RB'
p1525
tp1526
F101
s(Vsad
g44
tp1527
F12
s(Vread
g71
tp1528
F2
s(Vfire
g6
tp1529
F7
s(Vsullenness
g6
tp1530
F1
s(Vgrasp
g29
tp1531
F2
s(Vespous
g44
tp1532
F1
s(VParadise
g15
tp1533
F1
s(Vbegins
g59
tp1534
F1
s(VPower
g15
tp1535
F3
s(Vglowing
g56
tp1536
F3
s(Vsay
g6
tp1537
F1
s(Vrichly
g35
tp1538
F1
s(VLysander
g15
tp1539
F7
s(Vagree
g19
tp1540
F1
s(VRace
g15
tp1541
F1
s(VThrones
g10
tp1542
F1
s(Vsnowy
g6
tp1543
F2
s(Vspread
g24
tp1544
F1
s(Vmiracle
g6
tp1545
F2
s(Vdearest
g191
tp1546
F6
s(g35
g140
tp1547
F27
s(Vfit
g44
tp1548
F3
s(Vperfect
g19
tp1549
F1
s(Vinsensibility
g6
tp1550
F1
s(Vwonder
g6
tp1551
F5
s(Vdownward
g35
tp1552
F1
s(Vhigh-way-gate
g44
tp1553
F1
s(Vintire
g44
tp1554
F3
s(g15
g35
tp1555
F76
s(VFriend
g15
tp1556
F1
s(Vover-whelm
g44
tp1557
F1
s(Vwrite
g29
tp1558
F2
s(g133
g152
tp1559
F5
s(g865
g35
tp1560
F7
s(VHeaven
g35
tp1561
F1
s(S'('
g35
tp1562
F5
s(Vlately
g35
tp1563
F1
s(Vlaid
g71
tp1564
F5
s(g370
g13
tp1565
F1
s(Veithers
g10
tp1566
F1
s(Vinsensibly
g35
tp1567
F1
s(g90
g105
tp1568
F9
s(Vescapes
g10
tp1569
F1
s(Vindure
g44
tp1570
F1
s(Vloses
g59
tp1571
F1
s(VLimbs
g15
tp1572
F1
s(S'VBG'
p1573
g24
tp1574
F16
s(Vpardon
g59
tp1575
F1
s(Vpassing
g56
tp1576
F5
s(VLitter
g15
tp1577
F1
s(Vinvites
g59
tp1578
F2
s(VCreation
g6
tp1579
F4
s(VPrice
g15
tp1580
F1
s(Vworst
g191
tp1581
F11
s(g140
g19
tp1582
F268
s(Vstopt
g19
tp1583
F1
s(Voccasioned
g71
tp1584
F1
s(Vwhat
g111
tp1585
F161
s(Vkill
g29
tp1586
F1
s(VHeards
g15
tp1587
F1
s(Vthee
g13
tp1588
F5
s(Vluckey
g44
tp1589
F1
s(Vopinion
S'NN'
p1590
tp1591
F9
s(Vgreater
g996
tp1592
F4
s(V-Come
g44
tp1593
F1
s(Vtransporting
g44
tp1594
F1
s(g293
g689
tp1595
F1
s(Vne
g29
tp1596
F1
s(VHost
g15
tp1597
F1
s(Vmade
g71
tp1598
F40
s(Vfeeds
g59
tp1599
F1
s(VGuinneys
g15
tp1600
F1
s(Vlucky
g44
tp1601
F2
s(Vador
g29
tp1602
F1
s(VTorment
g15
tp1603
F2
s(S'IN'
p1604
g133
tp1605
F12
s(Vnever
S'RB'
p1606
tp1607
F68
s(Vresolv
g6
tp1608
F2
s(VArt
g15
tp1609
F2
s(Vcozen
g6
tp1610
F1
s(Vbath
g19
tp1611
F1
s(Vframe
g6
tp1612
F1
s(Vfearful
g44
tp1613
F2
s(VSay
g15
tp1614
F1
s(V-At
g13
tp1615
F1
s(Vhurries
g10
tp1616
F1
s(Vimployed
g24
tp1617
F2
s(Vconceal
g44
tp1618
F2
s(Vnoisie
g44
tp1619
F1
s(Vduty
g6
tp1620
F5
s(Vresentment
g6
tp1621
F4
s(VPresence
g15
tp1622
F1
s(g15
S'VBZ'
p1623
tp1624
F105
s(g81
g25
tp1625
F1
s(Vdeplorable
g44
tp1626
F4
s(VWoman
g15
tp1627
F16
s(Vdoes
S'VBZ'
p1628
tp1629
F16
s(g27
g153
tp1630
F2
s(VPhilander
g6
tp1631
F34
s(g715
g715
tp1632
F40
s(VSisters
g10
tp1633
F1
s(Vrise
g19
tp1634
F3
s(Vbusie
g24
tp1635
F1
s(VNative
g44
tp1636
F1
s(g44
S')'
tp1637
F5
s(Vperfidy
g6
tp1638
F2
s(Vdear
g6
tp1639
F23
s(Vforlorn
g44
tp1640
F3
s(Vsworn
g44
tp1641
F2
s(VCurles
g15
tp1642
F1
s(g10
S'.'
tp1643
F38
s(Vsimplicity
g6
tp1644
F1
s(VPistol
g15
tp1645
F1
s(VHeart
g15
tp1646
F11
s(Vtill
g59
tp1647
F1
s(Vfainting
g44
tp1648
F1
s(S':'
g383
tp1649
F143
s(Vneglected
g71
tp1650
F2
s(VFools
g15
tp1651
F6
s(Vconceated
g71
tp1652
F1
s(Vmournfull
g44
tp1653
F1
s(VBelfont
g15
tp1654
F2
s(Vsource
S'NN'
p1655
tp1656
F1
s(Vundone
g29
tp1657
F1
s(Vlearnt
g13
tp1658
F1
s(Vwavering
g56
tp1659
F1
s(Vrules
S'NNS'
p1660
tp1661
F4
s(Vstruggle
g6
tp1662
F2
s(Vpossest
g29
tp1663
F1
s(Vbled
g71
tp1664
F1
s(Vwondrous
g44
tp1665
F21
s(g71
g6
tp1666
F53
s(Vnet
g44
tp1667
F1
s(Vaddrest
g19
tp1668
F1
s(Vhinder
g6
tp1669
F1
s(Vold
S'JJ'
p1670
tp1671
F10
s(S':'
g15
tp1672
F56
s(Vrepose
g44
tp1673
F2
s(VMarried
g71
tp1674
F1
s(Vabandon
g29
tp1675
F3
s(VJudges
g15
tp1676
F1
s(Vlikes
g10
tp1677
F1
s(g485
S'DT'
p1678
tp1679
F137
s(Vwanted
g71
tp1680
F1
s(Vmarrying
g56
tp1681
F1
s(Vwaking
g56
tp1682
F2
s(Vtry
g29
tp1683
F1
s(Vheavy
g44
tp1684
F2
s(Vor
S'CC'
p1685
tp1686
F186
s(VNatures
g10
tp1687
F1
s(Vup
g117
tp1688
F27
s(Vforth
g35
tp1689
F1
s(g13
S'('
tp1690
F3
s(Vsit
g29
tp1691
F3
s(Vmouth
g6
tp1692
F2
s(VStars
g10
tp1693
F1
s(VFellow-Subjects
g10
tp1694
F1
s(Vhadst
g6
tp1695
F3
s(Vrun
g29
tp1696
F3
s(Vprovok
g44
tp1697
F1
s(Vcoupled
g24
tp1698
F1
s(Vfifty
g6
tp1699
F1
s(g865
S':'
tp1700
F4
s(Vseen
S'VBN'
p1701
tp1702
F18
s(Vsouls
g10
tp1703
F3
s(VS.
S'NNP'
p1704
tp1705
F1
s(Vgaz
g44
tp1706
F1
s(Vbravery
g6
tp1707
F2
s(Vmee
g44
tp1708
F1
s(VCeremonies
g689
tp1709
F1
s(S')'
S':'
tp1710
F1
s(Vspies
g10
tp1711
F1
s(Vneither
g73
tp1712
F1
s(Vfails
g59
tp1713
F3
s(Vactive
S'JJ'
p1714
tp1715
F1
s(VVillains
g15
tp1716
F1
s(Vlive
g44
tp1717
F4
s(Vsurprise
g6
tp1718
F3
s(Venterprize
g6
tp1719
F2
s(Vfill
g19
tp1720
F1
s(Vguilty
S'JJ'
p1721
tp1722
F9
s(g59
S'NNS'
p1723
tp1724
F5
s(Vcoming
g56
tp1725
F19
s(Vfortifying
g56
tp1726
F1
s(Vwilt
g44
tp1727
F1
s(Vattir
g59
tp1728
F1
s(Vshore
g6
tp1729
F3
s(VMinute
g15
tp1730
F4
s(VTyrant
g15
tp1731
F4
s(Vquite
g35
tp1732
F7
s(VGoddess
g6
tp1733
F1
s(Vcast
g71
tp1734
F2
s(g124
g323
tp1735
F3
s(g44
g293
tp1736
F107
s(VCold
g15
tp1737
F1
s(Vloaded
g24
tp1738
F1
s(Vflies
g59
tp1739
F1
s(Vsurround
g19
tp1740
F1
s(Vspeaks
g10
tp1741
F2
s(Vacceptance
g6
tp1742
F1
s(Vlay
g29
tp1743
F4
s(Vnearest
g191
tp1744
F2
s(VViolin
g15
tp1745
F1
s(Vassist
g19
tp1746
F1
s(Vaccurs
g59
tp1747
F1
s(Vmerit
g19
tp1748
F1
s(Vwounded
g44
tp1749
F1
s(VIll
g15
tp1750
F1
s(VJealousy
g15
tp1751
F1
s(g63
g714
tp1752
F2
s(g111
g689
tp1753
F1
s(Vrevolutions
g10
tp1754
F1
s(Vceremony
g6
tp1755
F4
s(Vwakes
g59
tp1756
F1
s(Vstrow
g44
tp1757
F1
s(V-cried
g71
tp1758
F1
s(Vowns
S'VBZ'
p1759
tp1760
F2
s(Vinspire
g19
tp1761
F3
s(Vbefray
g6
tp1762
F1
s(Vbelow
g13
tp1763
F1
s(Vdressing
g56
tp1764
F3
s(S'JJ'
p1765
S':'
tp1766
F76
s(Vne'r
g35
tp1767
F1
s(Vill
g6
tp1768
F1
s(Vadoring
g44
tp1769
F1
s(Vcurtains
g10
tp1770
F1
s(Vtaste
g6
tp1771
F2
s(VBlessed
g44
tp1772
F1
s(Vmystick
g44
tp1773
F1
s(Vtravers
g10
tp1774
F1
s(Vwhispering
g6
tp1775
F1
s(VOrnaments
g10
tp1776
F1
s(Vraging
g56
tp1777
F5
s(g111
g10
tp1778
F1
s(g19
g140
tp1779
F56
s(Vpresident
S'NN'
p1780
tp1781
F1
s(Vremoved
g24
tp1782
F1
s(Vfeaver
g6
tp1783
F1
s(VWinds
g15
tp1784
F2
s(Vwar
S'NN'
p1785
tp1786
F1
s(Vshamefull
g44
tp1787
F1
s(Vcapacity
S'NN'
p1788
tp1789
F1
s(Vtender
g6
tp1790
F27
s(Vadministring
g56
tp1791
F1
s(VCommend
g19
tp1792
F1
s(V-never
g19
tp1793
F1
s(Vshape
g6
tp1794
F7
s(Vflatter
g63
tp1795
F1
s(g10
g117
tp1796
F1
s(Vpreserv
g24
tp1797
F1
s(Vheavy
g6
tp1798
F1
s(Vvigorous
g44
tp1799
F3
s(Vconsiderate
g6
tp1800
F1
s(Vloose
g6
tp1801
F1
s(VTreason
g15
tp1802
F5
s(Vinfluence
g19
tp1803
F1
s(V-Oh
g29
tp1804
F1
s(Vmany
g1129
tp1805
F17
s(Vabandoned
g24
tp1806
F3
s(VArms
g10
tp1807
F16
s(V'd
g13
tp1808
F9
s(Vsuch
g44
tp1809
F47
s(VMaid
g6
tp1810
F2
s(VBridegroom
g15
tp1811
F2
s(Vunderstood
g71
tp1812
F1
s(VEcho
g15
tp1813
F3
s(Vrave
g19
tp1814
F6
s(Vsaw
g6
tp1815
F2
s(Vlend
g19
tp1816
F1
s(Vteeth
g10
tp1817
F1
s(VBrilljard
g19
tp1818
F2
s(S'IN'
p1819
g111
tp1820
F29
s(Vtimerous
g44
tp1821
F2
s(Vmarry
g19
tp1822
F5
s(Vunregarded
g71
tp1823
F3
s(Vinviting
g56
tp1824
F1
s(Vtole
g19
tp1825
F1
s(Vsuffer
g24
tp1826
F1
s(Vhappyer
g6
tp1827
F2
s(g17
g865
tp1828
F1
s(Vburns
g10
tp1829
F2
s(g682
g1327
tp1830
F1
s(Vsecresie
g6
tp1831
F1
s(Vhinderer
g6
tp1832
F1
s(Vvictim
g19
tp1833
F1
s(Veasily
S'RB'
p1834
tp1835
F7
s(Vjudge
g6
tp1836
F5
s(g865
g390
tp1837
F1
s(Vneeded
g71
tp1838
F2
s(Vtremblings
g10
tp1839
F1
s(Vshew
g19
tp1840
F3
s(Vhonest
g6
tp1841
F2
s(Vconfident
g44
tp1842
F3
s(Vpresumption
g6
tp1843
F1
s(Vthousand
g44
tp1844
F8
s(Vbetter
g63
tp1845
F3
s(g6
g29
tp1846
F36
s(VTreachery
g15
tp1847
F1
s(Vconquest
g6
tp1848
F4
s(Vblessing
g56
tp1849
F2
s(Vexpected
g71
tp1850
F1
s(Vcunning
g56
tp1851
F1
s(Vpitiful
g44
tp1852
F1
s(S':'
g71
tp1853
F16
s(VTraytor
g15
tp1854
F1
s(VWife
g19
tp1855
F1
s(Vhope
g6
tp1856
F4
s(Vpernicious
g44
tp1857
F1
s(VRoom
g15
tp1858
F1
s(Vsolemn
g19
tp1859
F1
s(Vhad'st
g6
tp1860
F1
s(VHyacinth
g15
tp1861
F1
s(Vjest
g6
tp1862
F1
s(Vinspires
g59
tp1863
F1
s(Vreveal
g44
tp1864
F1
s(Vrifled
g44
tp1865
F1
s(g935
g1489
tp1866
F3
s(Vrelates
g59
tp1867
F1
s(Vprospect
g6
tp1868
F3
s(Vwretched
g44
tp1869
F7
s(g142
g44
tp1870
F1
s(Vnext
g44
tp1871
F2
s(g29
g10
tp1872
F13
s(Vmortal
g44
tp1873
F3
s(VCrowd
g15
tp1874
F2
s(Vsettled
g44
tp1875
F1
s(Vpry
g19
tp1876
F1
s(Vfeable
g44
tp1877
F1
s(Vbelov
g44
tp1878
F2
s(Vcourted
g24
tp1879
F1
s(VCourt
S'NNP'
p1880
tp1881
F4
s(Vhappen
g29
tp1882
F1
s(Vpreserve
g19
tp1883
F4
s(Vfatal
g44
tp1884
F42
s(VWood
g15
tp1885
F8
s(Vdebauch
g44
tp1886
F2
s(Voblig
g35
tp1887
F3
s(Vreconcil
g44
tp1888
F1
s(g27
S','
tp1889
F5
s(Vforever
g35
tp1890
F1
s(VTell
g19
tp1891
F4
s(Vlilting
g44
tp1892
F1
s(Vloathing
g6
tp1893
F1
s(Vfancy
g44
tp1894
F6
s(Vserve
g19
tp1895
F2
s(Voh
g6
tp1896
F6
s(Vingrate
g44
tp1897
F1
s(g10
g44
tp1898
F18
s(Vsuppose
g29
tp1899
F2
s(Vheavenly
g44
tp1900
F1
s(VHaloo
g15
tp1901
F1
s(g13
g24
tp1902
F13
s(Vom
g6
tp1903
F2
s(Vmended
g71
tp1904
F1
s(Vperjur
g19
tp1905
F1
s(VNot
S'RB'
p1906
tp1907
F3
s(g90
g63
tp1908
F40
s(Vmight'st
g10
tp1909
F1
s(VTryal
g15
tp1910
F1
s(Vnonsence
g6
tp1911
F1
s(Vfain
g6
tp1912
F1
s(Vrail
g6
tp1913
F2
s(Vsome
S'DT'
p1914
tp1915
F61
s(Vrough
g44
tp1916
F5
s(Vfixt
g24
tp1917
F3
s(Vconfounded
g24
tp1918
F2
s(V-By
g44
tp1919
F1
s(Vroyal
g6
tp1920
F1
s(VVenus
g15
tp1921
F1
s(g63
g10
tp1922
F6
s(Vattoneing
g56
tp1923
F1
s(Vwhat
g19
tp1924
F1
s(Vfavourite
g6
tp1925
F1
s(Vdead
g44
tp1926
F11
s(Vwings
g10
tp1927
F1
s(S')'
g19
tp1928
F2
s(Vinfamy
g6
tp1929
F3
s(VAssignation
g6
tp1930
F2
s(Vdrop
g19
tp1931
F1
s(VVows
g59
tp1932
F1
s(g35
g29
tp1933
F75
s(VFather
g15
tp1934
F18
s(V-This
g6
tp1935
F1
s(VCharity
g15
tp1936
F1
s(Vdisputed
g71
tp1937
F1
s(Vdying
g56
tp1938
F8
s(VRage
g6
tp1939
F1
s(g19
S','
tp1940
F174
s(Vwellcome
g6
tp1941
F2
s(Vtells
g10
tp1942
F3
s(Vprotested
g24
tp1943
F1
s(Vhonesty
g6
tp1944
F2
s(Vdancing
g6
tp1945
F3
s(VGuinnies
g10
tp1946
F1
s(Vvitious
g44
tp1947
F1
s(g59
g27
tp1948
F30
s(VRural
g44
tp1949
F1
s(g24
S'('
tp1950
F1
s(Vlimits
g10
tp1951
F2
s(VAnointed
g15
tp1952
F1
s(Vcharge
g6
tp1953
F2
s(Vfellow
g29
tp1954
F1
s(Vkiss
g19
tp1955
F3
s(Vfickle
g19
tp1956
F1
s(Vtold
g24
tp1957
F4
s(Vrouted
g71
tp1958
F1
s(g124
g10
tp1959
F5
s(Vreserving
g6
tp1960
F1
s(g485
g44
tp1961
F119
s(Varrive
g44
tp1962
F1
s(Vpassion
g6
tp1963
F37
s(VPrayers
g689
tp1964
F3
s(VBeauties
g10
tp1965
F3
s(Vproduce
g19
tp1966
F3
s(Vundrest
g35
tp1967
F1
s(Vashameful
g44
tp1968
F1
s(Vdeceit
g10
tp1969
F1
s(g56
g1278
tp1970
F87
s(VUndaunted
g24
tp1971
F1
s(g24
g370
tp1972
F2
s(Vdreadful
g44
tp1973
F2
s(Ventertain
g44
tp1974
F1
s(Vwreck
g24
tp1975
F1
s(Vof
g1327
tp1976
F923
s(VDominion
g15
tp1977
F1
s(Vendeavour
g44
tp1978
F1
s(Vdethrone
g19
tp1979
F1
s(Vslumber
g6
tp1980
F2
s(VColour
g15
tp1981
F1
s(Vstood
g71
tp1982
F1
s(Vround
g71
tp1983
F1
s(Vwishes
g59
tp1984
F1
s(Vrevenge
g6
tp1985
F9
s(VKin
g15
tp1986
F1
s(Vsecuring
g56
tp1987
F1
s(Vkeeps
g19
tp1988
F1
s(Vcommands
g59
tp1989
F1
s(Vdisadvantages
g10
tp1990
F1
s(Vunkind
g19
tp1991
F1
s(Vconverse
g29
tp1992
F1
s(VDenial
g15
tp1993
F1
s(Vgriefs
g6
tp1994
F1
s(Vdissipate
g19
tp1995
F1
s(Vflow
g6
tp1996
F2
s(Vdesire
g6
tp1997
F9
s(VOh
g15
tp1998
F24
s(Vpunctilio
g6
tp1999
F1
s(Vflow'ry
g6
tp2000
F1
s(V'till
g152
tp2001
F2
s(Vfools
g44
tp2002
F1
s(Vdye
g6
tp2003
F1
s(Vstedfast
g6
tp2004
F1
s(Vgo
g19
tp2005
F19
s(Vmuch
g35
tp2006
F24
s(Vappease
g19
tp2007
F1
s(Vunregarding
g44
tp2008
F1
s(VDecrees
g15
tp2009
F2
s(V'd
g715
tp2010
F2
s(VNeck
g15
tp2011
F3
s(Vunresistably
g35
tp2012
F1
s(VCall
g19
tp2013
F1
s(VVulture
g6
tp2014
F1
s(VBrother
g6
tp2015
F4
s(Vher
g19
tp2016
F2
s(Vdid
g1160
tp2017
F43
s(Vsaid
S'VBD'
p2018
tp2019
F12
s(Vmine
g715
tp2020
F1
s(Vinterruptions
g10
tp2021
F1
s(Vbeautiful
g44
tp2022
F3
s(Vdifficulties
g10
tp2023
F2
s(Vbarren
g6
tp2024
F1
s(Vunlucky
g44
tp2025
F6
s(Vmay'st
g24
tp2026
F1
s(Vaffords
g59
tp2027
F1
s(Vhidden
g6
tp2028
F1
s(Vneeds
g10
tp2029
F1
s(Vsparkle
g6
tp2030
F1
s(Vyet
g73
tp2031
F3
s(S'CC'
p2032
g126
tp2033
F20
s(Valter
g35
tp2034
F1
s(Vunlike
S'IN'
p2035
tp2036
F3
s(Vforth
g6
tp2037
F2
s(Varriv
g44
tp2038
F6
s(Vtrophies
g10
tp2039
F1
s(V-for
g44
tp2040
F4
s(Vbring
g6
tp2041
F2
s(g124
g682
tp2042
F4
s(Vkindle
g29
tp2043
F1
s(Vproof
g6
tp2044
F2
s(Vabide
g6
tp2045
F1
s(Vcause
g19
tp2046
F1
s(Vbounds
g10
tp2047
F1
s(S':'
g35
tp2048
F71
s(Vshalt
g6
tp2049
F2
s(Vtell
g29
tp2050
F3
s(Vshadows
g10
tp2051
F1
s(Vplease
g6
tp2052
F1
s(Vsecurely
g35
tp2053
F1
s(VSpies
g10
tp2054
F2
s(Vurge
g6
tp2055
F1
s(V'
g865
tp2056
F1
s(VFortune
g15
tp2057
F12
s(Vundo
g44
tp2058
F2
s(Vinsipid
g19
tp2059
F1
s(Vmature
g44
tp2060
F1
s(Vgain
g19
tp2061
F3
s(Vhardly
g35
tp2062
F2
s(V't
g15
tp2063
F17
s(Vwicked
g44
tp2064
F1
s(Vif
g1604
tp2065
F117
s(g1176
g24
tp2066
F15
s(g293
S'NNS'
p2067
tp2068
F4
s(VFellows
g15
tp2069
F1
s(V-I
g29
tp2070
F2
s(Vbright
g71
tp2071
F1
s(VSense
g6
tp2072
F1
s(Vshed
g19
tp2073
F1
s(V-do
g124
tp2074
F1
s(Valong
g13
tp2075
F1
s(Vyea
g35
tp2076
F1
s(Vtortures
g10
tp2077
F1
s(Vspirited
g44
tp2078
F1
s(VParents
g10
tp2079
F7
s(Vunworthy
g44
tp2080
F1
s(Vsufferings
g10
tp2081
F5
s(Vgrief
g6
tp2082
F4
s(Vwishes
g10
tp2083
F11
s(g208
g15
tp2084
F23
s(Vadd
g19
tp2085
F8
s(Vbare
g19
tp2086
F1
s(Vformal
g44
tp2087
F3
s(Vcommand
g6
tp2088
F3
s(S'('
S'VBG'
p2089
tp2090
F2
s(Vthey'r
g6
tp2091
F1
s(Vconcerns
g10
tp2092
F2
s(Vfar
S'RB'
p2093
tp2094
F19
s(VMonarch
g6
tp2095
F1
s(Vallay
g19
tp2096
F2
s(Vbefore
g13
tp2097
F36
s(Vblasphemy
g6
tp2098
F1
s(VRemove
g19
tp2099
F1
s(Vpractice
S'NN'
p2100
tp2101
F2
s(Vhelp
g6
tp2102
F3
s(VFigure
g15
tp2103
F1
s(Vheads
g59
tp2104
F1
s(Vcall
g6
tp2105
F6
s(g191
g370
tp2106
F1
s(Vbreast
g6
tp2107
F4
s(Vill
g35
tp2108
F1
s(VRethorick
g15
tp2109
F1
s(Vadoring
g6
tp2110
F2
s(Vuse
g6
tp2111
F2
s(Vunvalu
g44
tp2112
F2
s(Vconvince
g6
tp2113
F1
s(VCheek
g15
tp2114
F1
s(Vlingring
g56
tp2115
F1
s(Vcalls
g59
tp2116
F2
s(V-Oh
g10
tp2117
F1
s(VDear
g15
tp2118
F4
s(VHands
g15
tp2119
F1
s(VWhile
S'IN'
p2120
tp2121
F4
s(VMeads
g15
tp2122
F1
s(Vtalks
g10
tp2123
F1
s(Vargue
g29
tp2124
F2
s(Vinspir
g44
tp2125
F1
s(V-Despair
g6
tp2126
F1
s(Vreviewing
g6
tp2127
F1
s(V-I
g13
tp2128
F1
s(Vresolution
g6
tp2129
F7
s(Vrob
g19
tp2130
F2
s(Vhonest
g191
tp2131
F7
s(Vtiresome
g44
tp2132
F1
s(Vtouching
g56
tp2133
F1
s(VCoast
S'NNP'
p2134
tp2135
F1
s(g81
g29
tp2136
F36
s(Vfondnesses
g10
tp2137
F1
s(Vdelays
g10
tp2138
F1
s(Vground
g6
tp2139
F2
s(Vrend
g19
tp2140
F1
s(Vbottom
g6
tp2141
F2
s(g13
S'JJ'
p2142
tp2143
F318
s(Vsurpris
g6
tp2144
F1
s(Vapproaches
g10
tp2145
F1
s(g19
g521
tp2146
F267
s(Vabandon
g44
tp2147
F1
s(Vincomparably
g35
tp2148
F1
s(Vowning
g56
tp2149
F1
s(VLife
g6
tp2150
F1
s(Vsick
g44
tp2151
F2
s(Vmix
g19
tp2152
F2
s(Vresplendent
g6
tp2153
F1
s(g63
g847
tp2154
F1
s(Vabandoning
g56
tp2155
F1
s(VLetter
g6
tp2156
F6
s(Vinnocently
g35
tp2157
F3
s(VBlessing
g15
tp2158
F1
s(VWrit
g15
tp2159
F1
s(Vye
g44
tp2160
F8
s(Vscarce
g19
tp2161
F1
s(Vsend
g44
tp2162
F1
s(VNest
g15
tp2163
F1
s(VRule
g15
tp2164
F1
s(Vdetain
g19
tp2165
F3
s(Vcertainty
g6
tp2166
F1
s(g27
g81
tp2167
F2
s(Vpitch
g24
tp2168
F1
s(VCounterscarps
g15
tp2169
F1
s(g25
g76
tp2170
F1
s(Vup
g19
tp2171
F2
s(Vassur
g44
tp2172
F1
s(Vchose
g19
tp2173
F1
s(Vover
g19
tp2174
F1
s(S'VBP'
p2175
g15
tp2176
F19
s(Vsensible
g44
tp2177
F4
s(S'('
g714
tp2178
F1
s(Vwe
S'PRP'
p2179
tp2180
F54
s(g15
S'.'
tp2181
F215
s(Ve
g24
tp2182
F2
s(Vcharming
g6
tp2183
F11
s(Vtill
g35
tp2184
F2
s(Vinlarge
g19
tp2185
F1
s(VLoves
g10
tp2186
F1
s(VYoung
g15
tp2187
F3
s(Vyoung
S'JJ'
p2188
tp2189
F29
s(Vreflect
g6
tp2190
F1
s(VNine
g15
tp2191
F1
s(Vinnocence
g19
tp2192
F2
s(Vred
g44
tp2193
F2
s(Vlanguishing
g6
tp2194
F3
s(Vshouldst
g44
tp2195
F1
s(Vaesario
g6
tp2196
F11
s(Vprophesie
g29
tp2197
F1
s(Vcomplection
g6
tp2198
F1
s(Vcreature
g6
tp2199
F5
s(Valready
S'RB'
p2200
tp2201
F12
s(g111
g1495
tp2202
F19
s(g10
g27
tp2203
F11
s(Vseat
g6
tp2204
F1
s(Vconquer
g6
tp2205
F2
s(Vunseemly
g44
tp2206
F1
s(Vspeak
g6
tp2207
F1
s(Vtherefore
g35
tp2208
F7
s(Vbid
g6
tp2209
F2
s(Valas
g44
tp2210
F1
s(Vsound
g6
tp2211
F3
s(Vwanton
g6
tp2212
F8
s(Vbesides
g6
tp2213
F1
s(Vintitle
g6
tp2214
F1
s(Vclock
g6
tp2215
F1
s(Vrefuge
g6
tp2216
F4
s(V-so
g6
tp2217
F1
s(Vshame
g6
tp2218
F13
s(Vsay
g19
tp2219
F23
s(Vjustify
g19
tp2220
F1
s(Vdwelt
g71
tp2221
F1
s(Vmadness
g19
tp2222
F1
s(VHe
S'PRP'
p2223
tp2224
F3
s(VFoolish
g44
tp2225
F1
s(VPrize
g15
tp2226
F1
s(VTest
g6
tp2227
F1
s(g516
g825
tp2228
F54
s(Voblig
g6
tp2229
F1
s(VCompany
g15
tp2230
F1
s(Vsmile
g29
tp2231
F1
s(Vredeem
g19
tp2232
F1
s(Vreduc
g24
tp2233
F1
s(Vrecord
g19
tp2234
F1
s(Vmighty
g29
tp2235
F1
s(Vforward
g35
tp2236
F6
s(Vsaw
g71
tp2237
F28
s(g124
g24
tp2238
F3
s(Vo'er
g13
tp2239
F1
s(Vstor
g44
tp2240
F1
s(Vtedious
g44
tp2241
F18
s(VMinutes
g15
tp2242
F3
s(Vcheaper
g63
tp2243
F1
s(V'till
g73
tp2244
F1
s(VLordship
g15
tp2245
F4
s(Vwit
g6
tp2246
F7
s(Vrenew
g19
tp2247
F1
s(VPerson
g15
tp2248
F6
s(Vbeating
g56
tp2249
F1
s(Voffering
g56
tp2250
F1
s(Vkilling
g44
tp2251
F1
s(Vinvention
g6
tp2252
F1
s(VPerhaps
S'RB'
p2253
tp2254
F4
s(Vbeyond
S'IN'
p2255
tp2256
F4
s(Vunattended
g44
tp2257
F2
s(Vtremble
g29
tp2258
F3
s(Vdo
g19
tp2259
F36
s(Vinamour
g44
tp2260
F1
s(g44
g865
tp2261
F9
s(VMonarchy
g15
tp2262
F1
s(V-good
g6
tp2263
F1
s(Vmiseries
g10
tp2264
F1
s(Vdoom
g6
tp2265
F3
s(Vinconveniences
g10
tp2266
F1
s(Vpassage
g6
tp2267
F1
s(Vgoodness
g6
tp2268
F3
s(Vexpected
g44
tp2269
F1
s(Vpowerfull
g24
tp2270
F1
s(Vcommon
g2142
tp2271
F6
s(Vhonour
g44
tp2272
F1
s(Vbinding
g6
tp2273
F1
s(Vdriven
g35
tp2274
F1
s(Vmurther
g6
tp2275
F2
s(g71
S')'
tp2276
F3
s(Vcurst
g24
tp2277
F1
s(VTide
g15
tp2278
F1
s(Vdesperate
g44
tp2279
F1
s(VCowards
g10
tp2280
F1
s(Vjoyn
g6
tp2281
F2
s(Vreverence
g6
tp2282
F2
s(VLightning
g56
tp2283
F2
s(Vcomparison
g6
tp2284
F1
s(VPantings
g15
tp2285
F1
s(Vthine
g6
tp2286
F7
s(Vwish
g19
tp2287
F2
s(Vweeping
g6
tp2288
F2
s(VSex
g15
tp2289
F3
s(Vwhither
g6
tp2290
F2
s(Vnaked
g44
tp2291
F2
s(g56
g689
tp2292
F1
s(Vperswade
g71
tp2293
F2
s(VKiss
g15
tp2294
F1
s(Vcadence
g6
tp2295
F1
s(Vcanst
g29
tp2296
F1
s(VAdvocate
g15
tp2297
F2
s(g6
g6
tp2298
F374
s(Vmost
g19
tp2299
F1
s(VGodlike
g15
tp2300
F4
s(Veverlasting
g56
tp2301
F10
s(Vextravagantly
g35
tp2302
F1
s(Vpropose
g29
tp2303
F1
s(g140
g76
tp2304
F14
s(Vhazard
g35
tp2305
F1
s(Vpraise
g19
tp2306
F1
s(Vimbracing
g56
tp2307
F1
s(VPhilander
g19
tp2308
F11
s(Vuntainted
g44
tp2309
F1
s(Vrenounce
g29
tp2310
F1
s(Vremain
g6
tp2311
F1
s(Vshort-liv
g44
tp2312
F1
s(S'NN'
p2313
g44
tp2314
F58
s(Vraging
g6
tp2315
F4
s(Vhast
g370
tp2316
F1
s(Vfree
g19
tp2317
F1
s(Vagreeable
g44
tp2318
F3
s(Vown
g44
tp2319
F31
s(Vgrateful
g44
tp2320
F1
s(VDamn
g15
tp2321
F3
s(g13
g1819
tp2322
F105
s(Vloose
g44
tp2323
F11
s(g2067
g140
tp2324
F89
s(Vassume
g29
tp2325
F1
s(Vwishing
g56
tp2326
F2
s(Vsweetly
g35
tp2327
F1
s(Vpromis
g24
tp2328
F1
s(Vspeak
g29
tp2329
F2
s(Vslumbring
g56
tp2330
F1
s(V't
g25
tp2331
F7
s(Vcarier
g6
tp2332
F1
s(VTears
g15
tp2333
F5
s(Vindulg
g44
tp2334
F1
s(g63
S':'
tp2335
F10
s(Voffer
g19
tp2336
F1
s(VDressing
g15
tp2337
F1
s(Vdown
g117
tp2338
F18
s(g152
g1685
tp2339
F2
s(Vdrew
g71
tp2340
F1
s(Vnauseated
g24
tp2341
F2
s(Vlessening
g6
tp2342
F1
s(Vravings
g10
tp2343
F2
s(Vwherewith
g71
tp2344
F1
s(Vruine
g6
tp2345
F15
s(Vrespect
g6
tp2346
F6
s(Vproceeds
g10
tp2347
F1
s(g63
g293
tp2348
F4
s(Vfingers
g10
tp2349
F2
s(VThink
g19
tp2350
F1
s(Vblest
g24
tp2351
F1
s(Vruffling
g56
tp2352
F1
s(VBeech
g15
tp2353
F1
s(Vslept
g24
tp2354
F1
s(Vkept
g71
tp2355
F3
s(Vperjuries
g10
tp2356
F2
s(S','
g521
tp2357
F190
s(Vlull
g44
tp2358
F1
s(Vapparition
g6
tp2359
F1
s(VLanguishing
g56
tp2360
F1
s(g6
g25
tp2361
F3
s(Vthee
g10
tp2362
F11
s(Vlavish
g19
tp2363
F1
s(VMothers
g15
tp2364
F1
s(V't
g152
tp2365
F58
s(Vsacrifice
g19
tp2366
F4
s(Vhour
S'NN'
p2367
tp2368
F23
s(g111
g44
tp2369
F13
s(Vrespit
g6
tp2370
F1
s(Vthou'lt
g19
tp2371
F1
s(Vlight
g6
tp2372
F7
s(Vwish
g6
tp2373
F3
s(Vsufferer
g6
tp2374
F1
s(Vsecure
g44
tp2375
F1
s(VLooking
g15
tp2376
F1
s(Vhalf
g44
tp2377
F3
s(Vcontinued
g44
tp2378
F1
s(Vcanst
g6
tp2379
F5
s(VAssociation
S'NNP'
p2380
tp2381
F4
s(Vpatient
g44
tp2382
F2
s(V-Says
g59
tp2383
F1
s(Vknew
g29
tp2384
F1
s(Vrecover
g44
tp2385
F1
s(Vthink
g6
tp2386
F2
s(VEwes
g6
tp2387
F1
s(VAngel-
g15
tp2388
F1
s(VArmes
g15
tp2389
F2
s(g29
g521
tp2390
F55
s(Vimportunity
g6
tp2391
F1
s(Vly
g35
tp2392
F1
s(Vwonderous
g44
tp2393
F3
s(Vturns
g59
tp2394
F1
s(Vye
g73
tp2395
F2
s(Vinestimable
g44
tp2396
F1
s(Vadvance
g59
tp2397
F1
s(Vfirm
g44
tp2398
F1
s(Vexcess
g6
tp2399
F6
s(Vbeauties
g10
tp2400
F2
s(VThen
S'RB'
p2401
tp2402
F3
s(Vimpulse
g44
tp2403
F1
s(Vready
g6
tp2404
F3
s(Vfancy
g6
tp2405
F10
s(g589
g650
tp2406
F29
s(Vten
g44
tp2407
F1
s(V't
g59
tp2408
F5
s(Vfit
g6
tp2409
F7
s(Vdemanded
g71
tp2410
F1
s(Vmind
g6
tp2411
F7
s(V-he
g44
tp2412
F1
s(Vmeans
g59
tp2413
F1
s(VRobe
g15
tp2414
F1
s(Vaffirmative
g6
tp2415
F1
s(Vinglorious
g44
tp2416
F3
s(Vround
g6
tp2417
F5
s(g120
g10
tp2418
F1
s(Vconfident
g6
tp2419
F1
s(g140
g682
tp2420
F1
s(VWings
g15
tp2421
F1
s(Vfeet
S'NNS'
p2422
tp2423
F18
s(VSexes
g15
tp2424
F2
s(Vwise
g44
tp2425
F3
s(VGlories
g15
tp2426
F2
s(Vcarefully
g35
tp2427
F1
s(VAges
g10
tp2428
F1
s(Vassum
g59
tp2429
F1
s(V-my
g44
tp2430
F1
s(g140
g689
tp2431
F1
s(Vfriends
g10
tp2432
F2
s(g24
S':'
tp2433
F26
s(g293
S','
tp2434
F2
s(Vbehold
g29
tp2435
F1
s(Vinfinitly
g35
tp2436
F1
s(V'twou
g124
tp2437
F1
s(Vextasy
g6
tp2438
F1
s(Vstretch
g19
tp2439
F2
s(Vbase
g6
tp2440
F4
s(Vthings
g516
tp2441
F18
s(S')'
g29
tp2442
F6
s(Vbusie
g44
tp2443
F1
s(g59
g715
tp2444
F94
s(Vcanst
g59
tp2445
F1
s(Vwood
g6
tp2446
F1
s(Vfought
g71
tp2447
F1
s(Vforsworn
g44
tp2448
F2
s(Vbreaking
g44
tp2449
F1
s(Vfeature
g6
tp2450
F2
s(Vsadness
g6
tp2451
F2
s(Vapace
g6
tp2452
F2
s(Vsecrets
g10
tp2453
F3
s(VEnemies
g10
tp2454
F1
s(Vprefer
g19
tp2455
F1
s(Vo'th
g44
tp2456
F2
s(Vdid'st
g6
tp2457
F1
s(Vthence
g6
tp2458
F6
s(Vtoucht
g24
tp2459
F1
s(Vhate
g19
tp2460
F2
s(Vpresent
g6
tp2461
F1
s(VRebels
g15
tp2462
F3
s(VI
g825
tp2463
F1171
s(g1241
S'VBG'
p2464
tp2465
F4
s(g111
S'('
tp2466
F1
s(Vamorously
g35
tp2467
F1
s(Vdissimulation
g6
tp2468
F2
s(Vdestruction
g6
tp2469
F3
s(Vholy
g6
tp2470
F1
s(Vthou
g35
tp2471
F2
s(VCaresses
g10
tp2472
F1
s(Vundoe
g44
tp2473
F2
s(Vabated
g71
tp2474
F2
s(VRebel
g15
tp2475
F1
s(Vgreatest
g191
tp2476
F6
s(Vchide
g19
tp2477
F1
s(Vact
g29
tp2478
F1
s(Vbaser
g63
tp2479
F1
s(S':'
g485
tp2480
F8
s(Vpermit
g19
tp2481
F6
s(Vsign
g6
tp2482
F2
s(Vcaptive
g44
tp2483
F1
s(Vhave
g19
tp2484
F73
s(g76
g886
tp2485
F1
s(Vcharming
g56
tp2486
F44
s(S','
g35
tp2487
F204
s(VCupid
g15
tp2488
F1
s(g390
g6
tp2489
F28
s(g24
g76
tp2490
F3
s(Vrash
g6
tp2491
F1
s(Vexpence
g6
tp2492
F2
s(Vstop
g19
tp2493
F5
s(VStory
g6
tp2494
F1
s(VOr
g73
tp2495
F3
s(Vdegree
g6
tp2496
F3
s(Vanew
g35
tp2497
F4
s(Vwife
S'NN'
p2498
tp2499
F1
s(Vboasted
g24
tp2500
F3
s(g558
g76
tp2501
F9
s(Vreserved
g24
tp2502
F1
s(Vother
g1765
tp2503
F49
s(Vconduct
g6
tp2504
F4
s(Vdisobey
g44
tp2505
F1
s(Vcount
g29
tp2506
F1
s(Vcry
g6
tp2507
F14
s(Vinvocations
g10
tp2508
F1
s(Vi
g44
tp2509
F1
s(Vdrudg
g6
tp2510
F1
s(Vrecover
g29
tp2511
F2
s(Vconveniency
g6
tp2512
F2
s(Vwitty
g44
tp2513
F2
s(VCowley
g15
tp2514
F1
s(Vpossesion
g6
tp2515
F1
s(Vunderstand
g19
tp2516
F7
s(Vgranted
g24
tp2517
F1
s(VHeroine
g15
tp2518
F1
s(VNymphs
g15
tp2519
F1
s(VBall
g15
tp2520
F1
s(Vprepare
g19
tp2521
F2
s(Vthou
g6
tp2522
F74
s(VBoughs
g15
tp2523
F4
s(Vsuffice
g6
tp2524
F1
s(VDiadem
g15
tp2525
F2
s(Vshould
S'MD'
p2526
tp2527
F20
s(Voutright
g35
tp2528
F1
s(Vrust
g29
tp2529
F1
s(g293
S':'
tp2530
F3
s(Vwept
g19
tp2531
F1
s(VGiant
g15
tp2532
F1
s(VProtestor
g15
tp2533
F1
s(Vfantome
g44
tp2534
F1
s(Vargu
g6
tp2535
F1
s(V-ah
g19
tp2536
F2
s(Vlay
g142
tp2537
F1
s(V-Who
g44
tp2538
F1
s(Vundoing
g56
tp2539
F2
s(VFern
g15
tp2540
F1
s(Vproperty
S'NN'
p2541
tp2542
F1
s(Vinsensibly
g19
tp2543
F1
s(VFruit
g15
tp2544
F1
s(V-adieu
g6
tp2545
F3
s(Vvictims
S'NNS'
p2546
tp2547
F1
s(Vdedicate
g19
tp2548
F1
s(Vnumbred
g71
tp2549
F1
s(Vmen
g1036
tp2550
F9
s(Vstay
g6
tp2551
F3
s(g124
g589
tp2552
F8
s(Vunsuccess
g6
tp2553
F1
s(g1678
g682
tp2554
F26
s(Vgood-natur
g44
tp2555
F1
s(Vadvice
g6
tp2556
F3
s(VChild
g15
tp2557
F7
s(Vextended
g24
tp2558
F4
s(Vunwilling
g44
tp2559
F2
s(Vquits
g59
tp2560
F2
s(Vsurpasses
g59
tp2561
F1
s(g293
g650
tp2562
F144
s(g117
S'IN'
p2563
tp2564
F26
s(Vcurses
g10
tp2565
F1
s(g63
g191
tp2566
F1
s(VAssignation
g15
tp2567
F1
s(V-Swear
g29
tp2568
F1
s(Vwalk
g19
tp2569
F2
s(Veither
g35
tp2570
F5
s(Vreceived
g24
tp2571
F2
s(Vwherein
g6
tp2572
F3
s(Vdid'st
g59
tp2573
F1
s(Vleading
g56
tp2574
F1
s(Vcruelly
g35
tp2575
F2
s(Vgraces
g59
tp2576
F1
s(Vassisted
g71
tp2577
F1
s(Vguessing
g56
tp2578
F1
s(VBorn
g15
tp2579
F1
s(Vforbids
g10
tp2580
F1
s(Vcomplain
g19
tp2581
F1
s(VFortunes
g10
tp2582
F2
s(VDenice
g15
tp2583
F2
s(Vexclaim
g19
tp2584
F1
s(VCharming
g56
tp2585
F6
s(VWrite
g29
tp2586
F1
s(Vappear
g19
tp2587
F2
s(Vblessing
g6
tp2588
F6
s(VGates
g15
tp2589
F1
s(Vcompos
g6
tp2590
F1
s(Vloving
g56
tp2591
F4
s(VCupids
g15
tp2592
F1
s(Vexpos
g29
tp2593
F3
s(Vblessings
g10
tp2594
F3
s(Vslow
g44
tp2595
F1
s(Vpray
g44
tp2596
F1
s(Vdies
g10
tp2597
F1
s(g1573
g44
tp2598
F38
s(Vperceive
g29
tp2599
F3
s(Vpeople
g1462
tp2600
F3
s(Vhold
g19
tp2601
F3
s(VThree
g15
tp2602
F2
s(Vspeaking
g6
tp2603
F1
s(g13
g29
tp2604
F13
s(Voft
g35
tp2605
F1
s(Vah
g19
tp2606
F2
s(g689
g1573
tp2607
F2
s(Vrepose
g6
tp2608
F16
s(Vunretrivable
g44
tp2609
F1
s(Vuniversal
g44
tp2610
F1
s(Vundoubted
g44
tp2611
F1
s(Vwealth
g6
tp2612
F1
s(Vpath
g6
tp2613
F3
s(g850
S')'
tp2614
F4
s(Vlength
g6
tp2615
F1
s(Vfled
g24
tp2616
F3
s(g56
g521
tp2617
F46
s(Vamongst
g19
tp2618
F2
s(Vnew
g1501
tp2619
F30
s(Vcomes
S'VBZ'
p2620
tp2621
F9
s(Vtake
g29
tp2622
F11
s(Vpreparations
g10
tp2623
F1
s(Vright
g44
tp2624
F2
s(Vhopes
g10
tp2625
F6
s(Vvoid
g6
tp2626
F1
s(Vroot
g6
tp2627
F1
s(Vheedless
g6
tp2628
F1
s(Vpursue
g29
tp2629
F3
s(Vask
g29
tp2630
F7
s(Vmistook
g24
tp2631
F1
s(VDebauchery
g15
tp2632
F1
s(Vchild
g6
tp2633
F1
s(Vcontinuance
g6
tp2634
F1
s(g191
g485
tp2635
F2
s(VMixing
g56
tp2636
F1
s(Vgaudy
g6
tp2637
F2
s(VTears
g10
tp2638
F2
s(g126
g293
tp2639
F1
s(VVertues
g15
tp2640
F1
s(S':'
S'MD'
p2641
tp2642
F4
s(VYet
g73
tp2643
F1
s(Vdearly
g44
tp2644
F1
s(Vexpect
g19
tp2645
F6
s(Vintreague
g6
tp2646
F1
s(Vyour
g521
tp2647
F279
s(Vovertake
g19
tp2648
F1
s(Vdint
g6
tp2649
F1
s(g105
g76
tp2650
F4
s(Vdifferences
g10
tp2651
F1
s(Vcarried
g24
tp2652
F3
s(Vretribution
g6
tp2653
F1
s(Vfew
S'JJ'
p2654
tp2655
F8
s(Vpromises
g59
tp2656
F1
s(Vperfection
g6
tp2657
F2
s(VForgiver
g15
tp2658
F1
s(Vbrisk
g44
tp2659
F3
s(Vtriumphant
g44
tp2660
F1
s(VEyes
g15
tp2661
F9
s(VFountain
g6
tp2662
F1
s(Vfalse
g19
tp2663
F1
s(g1623
g35
tp2664
F115
s(V-Tell
g19
tp2665
F1
s(Vexcuses
g59
tp2666
F1
s(Vlov
g59
tp2667
F2
s(Vwou
g19
tp2668
F9
s(Vo'er
g6
tp2669
F1
s(Vreserv
g29
tp2670
F1
s(Vwell-born
g44
tp2671
F1
s(Vconfirming
g56
tp2672
F1
s(Vsorrows
g10
tp2673
F1
s(Vreasons
S'NNS'
p2674
tp2675
F4
s(VShape
g15
tp2676
F1
s(Vdefend
g19
tp2677
F2
s(Vupo
g44
tp2678
F1
s(Vincreas
g44
tp2679
F1
s(g120
g15
tp2680
F6
s(V-there
g25
tp2681
F1
s(VWhich
g44
tp2682
F1
s(g19
g25
tp2683
F4
s(Vmake
g29
tp2684
F12
s(Vdelay
g19
tp2685
F1
s(Vhid
g19
tp2686
F1
s(Vinduc
g44
tp2687
F1
s(Vspring
g6
tp2688
F2
s(Vset
g19
tp2689
F11
s(VFops
g15
tp2690
F1
s(Venviron
g19
tp2691
F1
s(Vfolding
g56
tp2692
F2
s(Vno
g35
tp2693
F16
s(V-that
g111
tp2694
F2
s(VSuperscription
g6
tp2695
F1
s(Vwouldst
g71
tp2696
F1
s(VEvening
g15
tp2697
F1
s(VYour
g15
tp2698
F3
s(VCharacter
g15
tp2699
F2
s(V-except
g13
tp2700
F1
s(Valter
g19
tp2701
F2
s(Vpossest
g35
tp2702
F2
s(Vyounger.
g6
tp2703
F1
s(Vlessen
g19
tp2704
F1
s(Vbuy
g19
tp2705
F1
s(VBed
g15
tp2706
F10
s(VIs
g59
tp2707
F2
s(Vwalk
g6
tp2708
F1
s(Vinrich
g6
tp2709
F1
s(VHonour
g6
tp2710
F2
s(g191
g25
tp2711
F1
s(g142
g124
tp2712
F3
s(Vdearer
g6
tp2713
F2
s(Vsoftness
g6
tp2714
F11
s(Vswear
g19
tp2715
F6
s(Vconsultations
g10
tp2716
F1
s(Vthriv
g71
tp2717
F1
s(Vafflicting
g6
tp2718
F1
s(Vbless
g6
tp2719
F1
s(g140
g323
tp2720
F3
s(VHonour
g27
tp2721
F1
s(Vlanguish
g29
tp2722
F6
s(Vliberty
g6
tp2723
F1
s(Vstyle
S'NN'
p2724
tp2725
F1
s(Venemy
g6
tp2726
F1
s(Vyielded
g71
tp2727
F3
s(Vselves
g10
tp2728
F3
s(Vart
g19
tp2729
F2
s(VSmile
g15
tp2730
F1
s(Vunconceivable
g44
tp2731
F1
s(Vconfidents
g10
tp2732
F1
s(Vfortify
g19
tp2733
F1
s(VVirgin
g15
tp2734
F5
s(Vmutiners
g10
tp2735
F1
s(Vterm
S'NN'
p2736
tp2737
F2
s(V-may
g29
tp2738
F1
s(Vreply
g29
tp2739
F2
s(Vtolerable
g44
tp2740
F1
s(S','
g71
tp2741
F78
s(Vunlocking
g56
tp2742
F1
s(g142
g485
tp2743
F5
s(S'PRP'
p2744
g25
tp2745
F3
s(Vliv
g24
tp2746
F2
s(Vcontemplation
g6
tp2747
F1
s(VFace
g6
tp2748
F3
s(Vbring
g19
tp2749
F14
s(Vpoliticks
g10
tp2750
F1
s(Vfavour
g29
tp2751
F1
s(Vcontrivance
g6
tp2752
F1
s(Vblessed
g24
tp2753
F1
s(Vwert
g6
tp2754
F6
s(Vdeclin
g6
tp2755
F1
s(Vmake
g6
tp2756
F1
s(g29
S':'
tp2757
F24
s(V-With
g13
tp2758
F1
s(Vdissembling
g6
tp2759
F1
s(Vloll
g19
tp2760
F1
s(VLanguage
g6
tp2761
F1
s(Vwith
g1489
tp2762
F428
s(Vurg
g29
tp2763
F2
s(Vcessation
g6
tp2764
F1
s(Vtransporting
g6
tp2765
F2
s(Vhow
g390
tp2766
F88
s(VStupid
g15
tp2767
F1
s(VCounsel
g15
tp2768
F1
s(g19
S'('
tp2769
F8
s(Vdarts
g10
tp2770
F1
s(Vconvenience
g6
tp2771
F1
s(Vran
g71
tp2772
F1
s(Vtales
g10
tp2773
F1
s(Vbring
g56
tp2774
F2
s(Vcold
g6
tp2775
F5
s(V-begon
g6
tp2776
F1
s(Vperhaps
S'RB'
p2777
tp2778
F15
s(g29
g293
tp2779
F48
s(VFarm
g15
tp2780
F1
s(Vinsensible
g44
tp2781
F4
s(Vquitted
g24
tp2782
F1
s(VCountenance
g15
tp2783
F2
s(g81
g120
tp2784
F2
s(VMercy
g15
tp2785
F1
s(V-as
g44
tp2786
F2
s(Vinsignificant
g6
tp2787
F1
s(g56
g117
tp2788
F11
s(Vresolute
g44
tp2789
F1
s(Vlike
g44
tp2790
F1
s(Vguilt
g24
tp2791
F1
s(Vfortitude
g6
tp2792
F4
s(g15
g1678
tp2793
F54
s(Vimagining
g56
tp2794
F1
s(Vknowledge
g6
tp2795
F3
s(Vartery
g6
tp2796
F1
s(Vo'erjoy
g6
tp2797
F1
s(Vpitious
g44
tp2798
F1
s(Vmedium
g6
tp2799
F1
s(VRustick
g15
tp2800
F1
s(g29
g1495
tp2801
F215
s(VDamnation
g15
tp2802
F1
s(Vunquiet
g44
tp2803
F1
s(Vimpetuous
g44
tp2804
F1
s(Vreturn
g29
tp2805
F2
s(Vapproach't
g13
tp2806
F1
s(Vnothing
S'NN'
p2807
tp2808
F32
s(g126
g1604
tp2809
F1
s(Vwont
g6
tp2810
F1
s(Vadds
S'VBZ'
p2811
tp2812
F1
s(Vsatisfie
g71
tp2813
F1
s(VLoyalty
g15
tp2814
F6
s(Vwere
g847
tp2815
F79
s(VUmbrage
g6
tp2816
F1
s(Vpermitted
g71
tp2817
F3
s(VBooks
g10
tp2818
F1
s(Vscorn
g71
tp2819
F2
s(Vfarther
g35
tp2820
F3
s(Vunsuccessful
g44
tp2821
F1
s(Vhoping
g56
tp2822
F1
s(Vswelling
g56
tp2823
F3
s(Vinterest
S'NN'
p2824
tp2825
F10
s(Volus
g6
tp2826
F1
s(Vcaptives
g10
tp2827
F1
s(Vbest
g191
tp2828
F4
s(Vmatter
g6
tp2829
F2
s(Vdire
g44
tp2830
F3
s(S'PRP'
p2831
g714
tp2832
F20
s(Vaccent
g6
tp2833
F1
s(Vfound
g71
tp2834
F18
s(Vresisted
g24
tp2835
F1
s(Vcou
g59
tp2836
F3
s(g152
g485
tp2837
F54
s(Vsubtle
g44
tp2838
F1
s(Vlistning
g6
tp2839
F1
s(VCharm
g19
tp2840
F1
s(Vscape
g19
tp2841
F1
s(Vput
g19
tp2842
F11
s(Vnoise
g6
tp2843
F6
s(Vundo
g19
tp2844
F2
s(Vrepentance
g6
tp2845
F6
s(g35
g1489
tp2846
F238
s(Vword
S'NN'
p2847
tp2848
F18
s(Vfreedome
g6
tp2849
F1
s(Vfortified
g44
tp2850
F1
s(Vwhat
g81
tp2851
F2
s(Vinclos
g6
tp2852
F1
s(Vsuppos
g6
tp2853
F1
s(Vtenderly
g35
tp2854
F1
s(Vpeacefull
g6
tp2855
F1
s(Vhe
S'PRP'
p2856
tp2857
F172
s(Vdull
g6
tp2858
F6
s(Vcalm
g44
tp2859
F7
s(Vhumble
g44
tp2860
F4
s(Voutside
g6
tp2861
F1
s(g1678
g323
tp2862
F22
s(g76
g17
tp2863
F18
s(Vglimps
g10
tp2864
F1
s(Vwanting
g6
tp2865
F1
s(Vbeg
g29
tp2866
F4
s(Vreward
g19
tp2867
F1
s(Vvow-breach
g6
tp2868
F1
s(Vfavour
g10
tp2869
F1
s(Vsubmissive
g44
tp2870
F1
s(Vinterrupting
g6
tp2871
F1
s(Vslip
g19
tp2872
F1
s(VArtillery
g15
tp2873
F2
s(Vvow
g19
tp2874
F2
s(Vbear
g6
tp2875
F2
s(Vinsuing
g56
tp2876
F1
s(Vrule
g19
tp2877
F1
s(Vthereabouts
g10
tp2878
F1
s(S','
g25
tp2879
F24
s(Vauthentick
g6
tp2880
F1
s(Vreturn
g6
tp2881
F10
s(Vmaking
g56
tp2882
F7
s(Vdispencing
g6
tp2883
F1
s(Vfant
g44
tp2884
F1
s(VSin
g15
tp2885
F1
s(Vlistening
g56
tp2886
F1
s(VLaughing
g15
tp2887
F2
s(Vconstancy
g6
tp2888
F2
s(Vrevenging
g56
tp2889
F1
s(VBeauties
g15
tp2890
F1
s(VWomans
g689
tp2891
F1
s(Vput
g71
tp2892
F7
s(Vhumane
g6
tp2893
F2
s(Vimpertinence
g6
tp2894
F1
s(VWe
S'PRP'
p2895
tp2896
F1
s(VMalice
g15
tp2897
F1
s(Vsecure
g19
tp2898
F9
s(Vspightfull
g24
tp2899
F1
s(Vfly
g29
tp2900
F4
s(Vcould
S'MD'
p2901
tp2902
F25
s(Varriv
g29
tp2903
F1
s(Vaffirm
g13
tp2904
F1
s(g19
g90
tp2905
F374
s(VCourage
g15
tp2906
F1
s(Vreserves
S'NNS'
p2907
tp2908
F1
s(Vglad
g6
tp2909
F2
s(Vcontemn
g10
tp2910
F1
s(Vsigh
g19
tp2911
F1
s(V-Thus
g19
tp2912
F1
s(VFrights
g15
tp2913
F1
s(VBastile
g15
tp2914
F1
s(Vfury
g6
tp2915
F2
s(Vfallen
g24
tp2916
F2
s(V-But
g59
tp2917
F1
s(Vstole
g29
tp2918
F1
s(Venquiry
g6
tp2919
F1
s(Vhapned
g71
tp2920
F1
s(Vfeels
g10
tp2921
F1
s(V-Why
g19
tp2922
F1
s(Vbespeak
g19
tp2923
F1
s(Vthou
g71
tp2924
F5
s(Vblush
g19
tp2925
F2
s(V'twill
g124
tp2926
F8
s(VJett
g15
tp2927
F1
s(Vcontempt
g6
tp2928
F3
s(VUnreasonable
g44
tp2929
F1
s(Vnone
g6
tp2930
F10
s(Vfortify
g44
tp2931
F1
s(VNimph
g15
tp2932
F1
s(Vhaughty
g6
tp2933
F1
s(Vpaid
g24
tp2934
F1
s(Vinform
g19
tp2935
F5
s(Vforsakes
g59
tp2936
F1
s(VGrave
g15
tp2937
F4
s(V-farewell
g126
tp2938
F1
s(Voff-spring
g44
tp2939
F1
s(Vspace
S'NN'
p2940
tp2941
F1
s(g56
g390
tp2942
F2
s(V-hear
g44
tp2943
F1
s(Vfloods
g10
tp2944
F1
s(VPinks
g15
tp2945
F1
s(VJewel
g15
tp2946
F1
s(VCoxcombs
g15
tp2947
F1
s(Vnight
S'NN'
p2948
tp2949
F50
s(Vthou'lt
g6
tp2950
F1
s(Vconfirm
g19
tp2951
F1
s(Vgave
S'VBD'
p2952
tp2953
F22
s(Vlonely
g35
tp2954
F1
s(g44
g35
tp2955
F36
s(Vanswer
g6
tp2956
F3
s(Vall-saving
g44
tp2957
F1
s(Vworld
S'NN'
p2958
tp2959
F33
s(Vbeholding
g56
tp2960
F2
s(VPray
g15
tp2961
F1
s(Varound
g13
tp2962
F2
s(VEyes
g10
tp2963
F16
s(VWeeder
g6
tp2964
F1
s(VSilvia
g6
tp2965
F21
s(Vreap
g19
tp2966
F4
s(Vfrail
g6
tp2967
F1
s(Vfoolish
g44
tp2968
F4
s(Vgrasp
g19
tp2969
F2
s(VPriest
g15
tp2970
F5
s(Vprophetick
g6
tp2971
F1
s(VWoods
g15
tp2972
F1
s(Vmistaken
g29
tp2973
F2
s(Vsing
g19
tp2974
F1
s(V-Yet
g13
tp2975
F1
s(Vtorturing
g6
tp2976
F1
s(V't
g142
tp2977
F5
s(Vfear
g29
tp2978
F20
s(Vthine
g19
tp2979
F1
s(VWeeder
g15
tp2980
F1
s(Vblasting
g56
tp2981
F1
s(g1213
g124
tp2982
F19
s(Vthroughout
S'IN'
p2983
tp2984
F2
s(VSenate-House
g6
tp2985
F1
s(g589
S'.'
tp2986
F3
s(VIn
g13
tp2987
F4
s(VTower
g15
tp2988
F1
s(Vbehold
g71
tp2989
F4
s(V-but
g29
tp2990
F1
s(Vdeath-like
g44
tp2991
F1
s(Vfelicity
g6
tp2992
F2
s(Vpasses
g59
tp2993
F1
s(Vdaring
g56
tp2994
F2
s(Vclasp
g44
tp2995
F1
s(Vturn
g19
tp2996
F5
s(VBodies
g10
tp2997
F1
s(Vshew
g44
tp2998
F1
s(Vfleeting
g44
tp2999
F1
s(VFelony
g15
tp3000
F1
s(Vtrust
g19
tp3001
F9
s(Vbehold
g6
tp3002
F1
s(VSea
g15
tp3003
F3
s(Voh
g13
tp3004
F7
s(Vdivinity
g6
tp3005
F1
s(Voutrages
g10
tp3006
F1
s(VParents
g15
tp3007
F3
s(VFear
g15
tp3008
F1
s(Virrecoverably
g35
tp3009
F1
s(Vchange
g29
tp3010
F1
s(Vpress
g29
tp3011
F7
s(g140
g13
tp3012
F165
s(Vbreath
g6
tp3013
F9
s(Vreach
g6
tp3014
F1
s(Vweary
g6
tp3015
F1
s(Vparcell
g6
tp3016
F1
s(VGods
g15
tp3017
F8
s(Vconsum
g6
tp3018
F1
s(Vunadvis
g44
tp3019
F2
s(VSwains
g15
tp3020
F2
s(Vo
g29
tp3021
F3
s(Vvice
S'NN'
p3022
tp3023
F1
s(Vthere
g35
tp3024
F24
s(Vcruelty
g6
tp3025
F2
s(Vye
g63
tp3026
F1
s(Vdoubt
g19
tp3027
F1
s(g124
g179
tp3028
F1
s(Vpleasing
g56
tp3029
F1
s(V'll
S'MD'
p3030
tp3031
F55
s(Vdisorder
g6
tp3032
F9
s(Vparts
S'NNS'
p3033
tp3034
F2
s(g485
S'VBZ'
p3035
tp3036
F9
s(Vearly
g35
tp3037
F3
s(Vdeal
g19
tp3038
F1
s(Vopprest
g117
tp3039
F1
s(Vunkind
g44
tp3040
F3
s(Vforgot
g6
tp3041
F1
s(Vdiscarded
g24
tp3042
F1
s(VEvasions
g15
tp3043
F1
s(Vsilence
g6
tp3044
F11
s(Vordain
g19
tp3045
F1
s(g323
g650
tp3046
F2
s(VMost
g191
tp3047
F1
s(Vdevilish
g44
tp3048
F1
s(Vyours
g10
tp3049
F3
s(Vworthy
g44
tp3050
F1
s(Vstir
g19
tp3051
F1
s(Vby
g619
tp3052
F240
s(Vapprehended
g24
tp3053
F1
s(Valliance
g6
tp3054
F1
s(Vname
g44
tp3055
F1
s(VGlance
g6
tp3056
F1
s(Vplain
g6
tp3057
F1
s(VNow
S'RB'
p3058
tp3059
F3
s(Vmischief
g6
tp3060
F2
s(Vdeliver
g19
tp3061
F2
s(Vcried
g71
tp3062
F12
s(VDream
g6
tp3063
F1
s(VWed
g29
tp3064
F1
s(Vconceal
g71
tp3065
F1
s(Vsting
g56
tp3066
F1
s(Vmanner
g6
tp3067
F6
s(Vpicture
g6
tp3068
F1
s(Voh
g44
tp3069
F20
s(Vsooner
g35
tp3070
F1
s(g76
g81
tp3071
F3
s(Vquick
g6
tp3072
F1
s(Vher
g715
tp3073
F39
s(V-draw
g19
tp3074
F1
s(Vblown
g44
tp3075
F1
s(Vidle
g44
tp3076
F1
s(VBliss
g15
tp3077
F1
s(Vpropose
g35
tp3078
F1
s(Vshades
g59
tp3079
F1
s(VWindow
g15
tp3080
F2
s(g15
g714
tp3081
F30
s(Vendeavour
g19
tp3082
F2
s(VMother
g6
tp3083
F3
s(VHerculean
g15
tp3084
F1
s(Vtorment
g19
tp3085
F1
s(Vriding
g6
tp3086
F1
s(Ventred
g24
tp3087
F2
s(Vgrieves
g59
tp3088
F1
s(g15
g886
tp3089
F2
s(Vscorn
g19
tp3090
F7
s(Vunfortunately
g35
tp3091
F1
s(Vspeaking
g56
tp3092
F3
s(VMan
g15
tp3093
F9
s(g6
S'('
tp3094
F19
s(VLovers
g689
tp3095
F1
s(VPurse
g15
tp3096
F1
s(Vyes
g19
tp3097
F1
s(Vreproach
g6
tp3098
F3
s(g29
g715
tp3099
F172
s(Vfill
g6
tp3100
F2
s(VReign
g15
tp3101
F4
s(Vlong
g29
tp3102
F2
s(Vty
g6
tp3103
F1
s(Vgaz
g59
tp3104
F1
s(Vhost
g6
tp3105
F1
s(Vjoin
g19
tp3106
F2
s(VTales
g10
tp3107
F1
s(g29
g179
tp3108
F7
s(Vown
g13
tp3109
F2
s(Varguments
g10
tp3110
F1
s(g124
g293
tp3111
F60
s(Vfind
g19
tp3112
F34
s(VAh
g15
tp3113
F12
s(Vdoat
g6
tp3114
F1
s(Vsecurity
S'NN'
p3115
tp3116
F2
s(g682
g715
tp3117
F1
s(Vform
g6
tp3118
F6
s(Vprotest
g19
tp3119
F1
s(Vdistinctions
g10
tp3120
F1
s(g44
S'('
tp3121
F3
s(Vforces
g10
tp3122
F1
s(Vconscious
g44
tp3123
F3
s(g25
g71
tp3124
F6
s(Velevated
g44
tp3125
F1
s(VDying
g56
tp3126
F1
s(Vinforms
g10
tp3127
F1
s(Vpursued
g24
tp3128
F1
s(Vweeds
g10
tp3129
F1
s(Vrestrain
g19
tp3130
F4
s(VSister
g19
tp3131
F1
s(Vpresidents
g10
tp3132
F1
s(Vridicul
g44
tp3133
F1
s(VCroud
g15
tp3134
F1
s(Vwhom
g208
tp3135
F23
s(VCabaret
g15
tp3136
F1
s(Vages
g10
tp3137
F2
s(Vlong
g35
tp3138
F13
s(Vthy
g13
tp3139
F1
s(V'd
g71
tp3140
F8
s(Vthus
S'RB'
p3141
tp3142
F41
s(Vhis
S'PRP$'
p3143
tp3144
F184
s(Vlet
g29
tp3145
F2
s(Vspoke
g63
tp3146
F1
s(g63
g6
tp3147
F21
s(VCommon
g15
tp3148
F1
s(VAlcoves
g15
tp3149
F1
s(Vinnocent
g6
tp3150
F3
s(g485
g25
tp3151
F2
s(Vcarelesly
g35
tp3152
F2
s(Vsoon
g321
tp3153
F26
s(Vcunning
g6
tp3154
F1
s(g865
g19
tp3155
F3
s(g126
g19
tp3156
F9
s(Vwou
g29
tp3157
F29
s(VAlliance
g6
tp3158
F1
s(Vdrudge
g6
tp3159
F2
s(VChildish
g44
tp3160
F1
s(Vbreathing
g56
tp3161
F2
s(Vfaintly
g35
tp3162
F2
s(Vhalf-breath
g44
tp3163
F1
s(V'em
g715
tp3164
F27
s(Vappear
g6
tp3165
F1
s(Vstorehouse
g6
tp3166
F1
s(g1129
g63
tp3167
F4
s(Vbreak'st
g13
tp3168
F1
s(Vborn
g24
tp3169
F14
s(Vjilted
g24
tp3170
F1
s(VBaby
g15
tp3171
F1
s(Vsubject
g6
tp3172
F1
s(VParty
S'NNP'
p3173
tp3174
F3
s(g15
g56
tp3175
F10
s(VEmpire
g15
tp3176
F4
s(VCabinets
g10
tp3177
F1
s(g126
g152
tp3178
F2
s(VVictor
g15
tp3179
F3
s(Vdecay
g19
tp3180
F1
s(Vminute
g6
tp3181
F13
s(VProtestations
g15
tp3182
F1
s(Vview
g6
tp3183
F5
s(Vbefall
g19
tp3184
F2
s(Vreply
g19
tp3185
F4
s(Vthinks
g59
tp3186
F1
s(VAngels
g15
tp3187
F2
s(g865
g24
tp3188
F1
s(g35
g120
tp3189
F14
s(Vflowing
g44
tp3190
F1
s(Voff
g117
tp3191
F2
s(Vexcuse
g19
tp3192
F2
s(Vlov
g71
tp3193
F1
s(VDevotion
g15
tp3194
F2
s(Vfair
g44
tp3195
F18
s(Vsatisfie
g6
tp3196
F1
s(VHumanity
g15
tp3197
F2
s(Vstrongest
g191
tp3198
F1
s(Vhung
g6
tp3199
F1
s(Vinfluence
g6
tp3200
F1
s(Vstands
g59
tp3201
F1
s(Vdefective
g44
tp3202
F1
s(g111
g29
tp3203
F25
s(g120
g29
tp3204
F11
s(Vdiscretion
g6
tp3205
F2
s(g126
g24
tp3206
F1
s(Vsolemn
g44
tp3207
F2
s(Vbutting
g44
tp3208
F1
s(Venjoyments
g10
tp3209
F1
s(Vhudled
g24
tp3210
F1
s(Vstealth
g6
tp3211
F4
s(g208
g650
tp3212
F8
s(Vlie
g19
tp3213
F1
s(g2856
g71
tp3214
F338
s(V-It
g44
tp3215
F1
s(VConfident
g15
tp3216
F1
s(g825
g120
tp3217
F8
s(g715
g15
tp3218
F31
s(Vbrown
g6
tp3219
F1
s(VNo
g35
tp3220
F1
s(Vensuing
g56
tp3221
F1
s(Vwhither
g44
tp3222
F1
s(Vimaginable
g44
tp3223
F1
s(Vrecovery
S'NN'
p3224
tp3225
F2
s(VWife
g6
tp3226
F1
s(Vrais
g44
tp3227
F1
s(Vstoln
g6
tp3228
F1
s(Vdivine
g44
tp3229
F2
s(Vunmanly
g35
tp3230
F1
s(Vlust
g6
tp3231
F1
s(Vreviv
g6
tp3232
F1
s(g71
g124
tp3233
F21
s(VPopish
g6
tp3234
F1
s(Vbail
g19
tp3235
F1
s(Vblew
g35
tp3236
F1
s(V-My
g44
tp3237
F3
s(Vsuspect
g29
tp3238
F1
s(VMaids
g15
tp3239
F2
s(Venterprise
g6
tp3240
F1
s(Vdurst
g35
tp3241
F1
s(Vhear
g6
tp3242
F1
s(Vhast
g29
tp3243
F2
s(Vleap
g59
tp3244
F1
s(Vlooker
g6
tp3245
F1
s(VHeavens
g59
tp3246
F5
s(Vacts
g10
tp3247
F5
s(Vshames
g10
tp3248
F1
s(S'MD'
p3249
S'.'
tp3250
F10
s(Vpast
g35
tp3251
F1
s(Vcurled
g24
tp3252
F1
s(Vtogether
g35
tp3253
F5
s(Vtell
g6
tp3254
F1
s(g81
g650
tp3255
F8
s(Vgay
g6
tp3256
F13
s(V'twere
g35
tp3257
F3
s(Vmonarch
g6
tp3258
F1
s(Vtorturing
g56
tp3259
F1
s(VMurther
g15
tp3260
F1
s(Vbeats
g10
tp3261
F2
s(Vfears
g10
tp3262
F28
s(VStorm
g15
tp3263
F1
s(Varm
g6
tp3264
F2
s(VNotions
g15
tp3265
F2
s(Vher
g6
tp3266
F1
s(Vfear
g19
tp3267
F6
s(Vgiven
S'VBN'
p3268
tp3269
F14
s(Vsworn
g24
tp3270
F3
s(Vsmiling
g56
tp3271
F6
s(Vdwells
g10
tp3272
F1
s(VPrisoner
g15
tp3273
F1
s(VWishes
g15
tp3274
F3
s(Vback-Stairs
g6
tp3275
F1
s(Vinstrument
g6
tp3276
F1
s(VHeaven
g6
tp3277
F1
s(g715
g19
tp3278
F159
s(Veducation
g6
tp3279
F1
s(g152
S'PRP'
p3280
tp3281
F1
s(V-Oh
g44
tp3282
F8
s(Vpreserv
g10
tp3283
F1
s(Vsmall
S'JJ'
p3284
tp3285
F4
s(Vlover
g6
tp3286
F3
s(Vserving
g56
tp3287
F1
s(Vt'other
g6
tp3288
F1
s(g25
g90
tp3289
F3
s(VGold
g15
tp3290
F1
s(Vdanger
g6
tp3291
F10
s(Vpretending
g56
tp3292
F2
s(Vfrom
S'IN'
p3293
tp3294
F165
s(Vcaution
g6
tp3295
F2
s(Vhear
g29
tp3296
F2
s(Vunbecoming
g44
tp3297
F1
s(Vcharacters
g10
tp3298
F1
s(V-folly
g35
tp3299
F1
s(Voh
g10
tp3300
F2
s(Vend
g19
tp3301
F4
s(Vwondring
g56
tp3302
F1
s(Vimpotence
g6
tp3303
F1
s(g35
g521
tp3304
F43
s(g81
g619
tp3305
F10
s(g19
g865
tp3306
F3
s(Vlavish
g44
tp3307
F3
s(Vravisht
g29
tp3308
F1
s(VMistress
g6
tp3309
F1
s(Vcame
S'VBD'
p3310
tp3311
F14
s(g44
g19
tp3312
F14
s(Vcompells
g59
tp3313
F1
s(Vpromising
g44
tp3314
F1
s(Vestablish
S'VB'
p3315
tp3316
F1
s(V-No
g126
tp3317
F1
s(S'RB'
p3318
S')'
tp3319
F9
s(V-That
g111
tp3320
F1
s(Vnow
S'RB'
p3321
tp3322
F74
s(V-that
g81
tp3323
F1
s(Vwouldst
g10
tp3324
F1
s(Vnearer
g44
tp3325
F1
s(Vcomplaisance
g6
tp3326
F1
s(VCause
g15
tp3327
F5
s(g44
g152
tp3328
F5
s(Vblow
g6
tp3329
F1
s(Vfansying
g56
tp3330
F1
s(Vpost
g6
tp3331
F1
s(VWings
g10
tp3332
F2
s(VNose
g19
tp3333
F1
s(Vtelling
g56
tp3334
F2
s(Velevation
g6
tp3335
F1
s(g90
g142
tp3336
F1
s(VAges
g15
tp3337
F3
s(Vjudge
g19
tp3338
F1
s(Vcheat
g6
tp3339
F4
s(g191
g111
tp3340
F1
s(S')'
g1489
tp3341
F15
s(Vpretty
g35
tp3342
F4
s(Vseems
S'VBZ'
p3343
tp3344
F4
s(Vsave
g29
tp3345
F1
s(Vmystery
g6
tp3346
F1
s(Vadjust
g19
tp3347
F1
s(g865
g15
tp3348
F30
s(Vmotion
g6
tp3349
F8
s(Vinconstant
g19
tp3350
F1
s(g191
g81
tp3351
F1
s(VCowardise
g15
tp3352
F1
s(Vbusied
g24
tp3353
F1
s(Vtill
g13
tp3354
F6
s(Vover
g13
tp3355
F9
s(Vfall
g6
tp3356
F6
s(Vdy
g6
tp3357
F5
s(Vinspir
g6
tp3358
F1
s(V-The
g71
tp3359
F1
s(Venough
g44
tp3360
F12
s(g621
g191
tp3361
F3
s(Vravishing
g44
tp3362
F1
s(g105
g145
tp3363
F9
s(Vwit
g59
tp3364
F1
s(S'JJ'
p3365
g71
tp3366
F11
s(Vtale-bearing
g44
tp3367
F1
s(Vfortune
g10
tp3368
F1
s(Vshelter
g19
tp3369
F1
s(Vtill
g25
tp3370
F1
s(Vtranscend'st
g35
tp3371
F1
s(Vmethinks
g59
tp3372
F1
s(Vinfinite
g44
tp3373
F5
s(Vunperceiv
g44
tp3374
F2
s(Vsat
g6
tp3375
F1
s(Vfinish
g44
tp3376
F1
s(Vusurpt
g44
tp3377
F1
s(g117
S','
tp3378
F12
s(g15
g323
tp3379
F6
s(VIdol
g15
tp3380
F1
s(Vbliss
g6
tp3381
F4
s(g1036
S','
tp3382
F329
s(g6
S'.'
tp3383
F248
s(V'em
g865
tp3384
F3
s(Vtransported
g44
tp3385
F3
s(Venvy
g6
tp3386
F2
s(VGermans
g689
tp3387
F1
s(Vwildness
g6
tp3388
F4
s(g521
g44
tp3389
F359
s(g293
g35
tp3390
F3
s(VSend
g19
tp3391
F2
s(Vc.
g6
tp3392
F1
s(Vwhisper
g13
tp3393
F1
s(Vallied
g24
tp3394
F1
s(Vresided
g24
tp3395
F1
s(Vburst
g35
tp3396
F1
s(V-farewell
g15
tp3397
F1
s(Vfinish
g19
tp3398
F2
s(Vread
g24
tp3399
F1
s(Vdregs
g6
tp3400
F1
s(VAdvantages
g15
tp3401
F1
s(VPillow
g15
tp3402
F1
s(Vwounded
g24
tp3403
F2
s(V'twixt
g152
tp3404
F1
s(g15
g689
tp3405
F2
s(Vkisses
g10
tp3406
F9
s(Vtear
g19
tp3407
F1
s(Vhowever
S'RB'
p3408
tp3409
F6
s(Vreproachful
g19
tp3410
F1
s(Vfell
S'VBD'
p3411
tp3412
F7
s(Vslipping
g56
tp3413
F1
s(Vstedfast
g44
tp3414
F1
s(Vwilt
g29
tp3415
F1
s(Vraver
g6
tp3416
F1
s(Vstature
g6
tp3417
F1
s(Vfloor
S'NN'
p3418
tp3419
F2
s(g191
g124
tp3420
F1
s(g152
g120
tp3421
F1
s(Vbusie
g29
tp3422
F1
s(VDeath
g15
tp3423
F5
s(Vdisarm
g29
tp3424
F1
s(S','
S')'
tp3425
F1
s(g715
g6
tp3426
F23
s(Ventertain
g19
tp3427
F7
s(Vinfeebled
g44
tp3428
F1
s(Vperish
g6
tp3429
F1
s(V-And
g19
tp3430
F2
s(Vprostitution
g6
tp3431
F1
s(V-there
g35
tp3432
F1
s(Vsuited
g71
tp3433
F1
s(Vline
S'NN'
p3434
tp3435
F2
s(Vpresent
g44
tp3436
F7
s(g153
g44
tp3437
F146
s(Vmeans
g10
tp3438
F1
s(Vpress
g6
tp3439
F3
s(Vtorture
g6
tp3440
F3
s(Vtrust
g6
tp3441
F2
s(Vspight
g6
tp3442
F10
s(Vknowing
g56
tp3443
F7
s(Vfuture
g6
tp3444
F3
s(Vpiety
g6
tp3445
F1
s(Vreply
g6
tp3446
F5
s(g63
S'.'
tp3447
F6
s(Vnor
S'CC'
p3448
tp3449
F58
s(Vdistance
g6
tp3450
F4
s(Vdelusion
g6
tp3451
F1
s(Vcruel
g24
tp3452
F2
s(Vmade
g24
tp3453
F23
s(Vcharms
g10
tp3454
F4
s(Vrage
g6
tp3455
F19
s(g6
g15
tp3456
F99
s(VFace
g15
tp3457
F2
s(Vstart
g59
tp3458
F1
s(VCity
S'NNP'
p3459
tp3460
F3
s(VBail
g15
tp3461
F1
s(Vaccount
g6
tp3462
F9
s(Vpointed
g24
tp3463
F2
s(Vbreath
g73
tp3464
F1
s(Vyears
S'NNS'
p3465
tp3466
F12
s(Vcomplaint
g6
tp3467
F1
s(Vreturn
g44
tp3468
F1
s(Vundress
g29
tp3469
F1
s(Vfates
g59
tp3470
F1
s(Vlov
g44
tp3471
F5
s(Vhurt
g19
tp3472
F1
s(VLov
g15
tp3473
F4
s(Vfixt
g10
tp3474
F2
s(V'd
g35
tp3475
F1
s(VTulips
g15
tp3476
F1
s(Vvulgar
g6
tp3477
F2
s(VCuckold
g15
tp3478
F1
s(Vso
g13
tp3479
F17
s(g15
g71
tp3480
F80
s(Vlawful
g44
tp3481
F1
s(VAwfull
g15
tp3482
F1
s(Vkindl
g24
tp3483
F1
s(Vthou'rt
g6
tp3484
F1
s(Vrusht
g29
tp3485
F1
s(g71
g10
tp3486
F3
s(g71
g3143
tp3487
F43
s(g24
g35
tp3488
F33
s(Vrefreshing
g56
tp3489
F1
s(Vhappyer
g35
tp3490
F1
s(Vtidings
g10
tp3491
F4
s(Vnoysey
g44
tp3492
F1
s(Vburnt
g19
tp3493
F2
s(Vtender
g63
tp3494
F1
s(g714
g76
tp3495
F2
s(g90
S','
tp3496
F108
s(Vadvanc
g6
tp3497
F1
s(Vdoting
g6
tp3498
F1
s(Vdispute
g6
tp3499
F2
s(Vprints
g10
tp3500
F1
s(g76
S':'
tp3501
F8
s(Valways
S'RB'
p3502
tp3503
F2
s(Vreturning
g6
tp3504
F1
s(V't
g124
tp3505
F6
s(Vconceiving
g56
tp3506
F1
s(Vcruel
g6
tp3507
F17
s(g293
g208
tp3508
F9
s(Vregard
g6
tp3509
F1
s(Vtaking
g56
tp3510
F8
s(Vassume
g19
tp3511
F1
s(g81
g762
tp3512
F6
s(V-these
g44
tp3513
F2
s(Vface
g6
tp3514
F33
s(VLovers
g10
tp3515
F4
s(Vthine
g44
tp3516
F1
s(Vspirit
g6
tp3517
F2
s(Vdisguise
g6
tp3518
F1
s(Vfury
g19
tp3519
F1
s(V-to
g44
tp3520
F3
s(Vcovert
g44
tp3521
F1
s(Vawful
g44
tp3522
F2
s(g152
g71
tp3523
F7
s(g71
g81
tp3524
F1
s(Vdisobedient
g6
tp3525
F1
s(Vnumbers
S'NNS'
p3526
tp3527
F1
s(Vgate
g6
tp3528
F1
s(VMaid
g15
tp3529
F57
s(Vseven
S'CD'
p3530
tp3531
F1
s(Vforetold
g24
tp3532
F1
s(Vtides
g10
tp3533
F1
s(V-a
g29
tp3534
F1
s(g81
g825
tp3535
F47
s(Vpleas
g6
tp3536
F1
s(Vgood
g6
tp3537
F4
s(Vthreatning
g6
tp3538
F1
s(Vafternoon
S'NN'
p3539
tp3540
F1
s(g485
g133
tp3541
F24
s(Vprovision
S'NN'
p3542
tp3543
F2
s(Vmaid
g6
tp3544
F1
s(Vobstinately
g35
tp3545
F2
s(Vall
g35
tp3546
F2
s(g714
S'VBZ'
p3547
tp3548
F1
s(Vdisappointed
g24
tp3549
F1
s(VNight-gown
g15
tp3550
F1
s(Vbeing
g1573
tp3551
F54
s(Veccho
g6
tp3552
F1
s(g59
g370
tp3553
F4
s(VKey
g44
tp3554
F1
s(Vfine
g44
tp3555
F7
s(Vunhapy
g44
tp3556
F1
s(Vextend
g19
tp3557
F1
s(VVertues
g10
tp3558
F1
s(Voccasion
g19
tp3559
F1
s(Vlove
g19
tp3560
F34
s(g19
g117
tp3561
F23
s(Vurge
g19
tp3562
F3
s(VHistory
g6
tp3563
F1
s(VPapers
g15
tp3564
F1
s(Vupbraided
g71
tp3565
F1
s(Vabsolute
g44
tp3566
F1
s(Vrepent
g19
tp3567
F1
s(Vsure
g19
tp3568
F1
s(Vsharply
S'RB'
p3569
tp3570
F1
s(Valarm
g6
tp3571
F1
s(g120
g25
tp3572
F1
s(Vsurrendering
g6
tp3573
F1
s(VLadyship
g6
tp3574
F1
s(Vhair
g6
tp3575
F6
s(Vengage
g19
tp3576
F1
s(Vgrasping
g44
tp3577
F1
s(V-then
g19
tp3578
F1
s(Vpowerfull
g44
tp3579
F1
s(g71
g56
tp3580
F17
s(Vreceiving
g56
tp3581
F1
s(Vjealousies
g10
tp3582
F3
s(Vcomfort
g6
tp3583
F3
s(VWar
g15
tp3584
F3
s(Vcorrespondence
g6
tp3585
F1
s(Vname
g19
tp3586
F1
s(Vescape
g6
tp3587
F6
s(Vawfull
g6
tp3588
F1
s(Vloath
g19
tp3589
F1
s(Vinform
g6
tp3590
F5
s(VGlory
g6
tp3591
F1
s(VFame
g15
tp3592
F1
s(VTablets
g10
tp3593
F2
s(Vfires
g10
tp3594
F2
s(g19
g1623
tp3595
F3
s(Vdied
g24
tp3596
F4
s(g81
g56
tp3597
F2
s(VAss
g15
tp3598
F1
s(g117
S')'
tp3599
F1
s(Vputs
g59
tp3600
F1
s(VChastity
g15
tp3601
F1
s(S','
g81
tp3602
F102
s(Vgiddy
g10
tp3603
F1
s(Vequal
g19
tp3604
F1
s(Vsheltred
g71
tp3605
F1
s(Vengag
g6
tp3606
F1
s(Vprovided
g24
tp3607
F1
s(VStates
g689
tp3608
F1
s(Vfancy
g71
tp3609
F1
s(Vinjuring
g56
tp3610
F1
s(Vbare
g6
tp3611
F1
s(Vlanguishing
g44
tp3612
F1
s(Vdiscover
g19
tp3613
F5
s(Vdespair
g6
tp3614
F4
s(V-alas
g10
tp3615
F1
s(Vhand
S'NN'
p3616
tp3617
F31
s(g1685
g886
tp3618
F3
s(VGreatness
g15
tp3619
F1
s(Vleasure
g6
tp3620
F1
s(Vdescription
g6
tp3621
F1
s(Vfoolish
g29
tp3622
F1
s(Vgovern
g19
tp3623
F1
s(Vauthority
g6
tp3624
F1
s(Vpursee
g19
tp3625
F1
s(VSouls
g15
tp3626
F2
s(Vthough
g13
tp3627
F51
s(Vbe
g153
tp3628
F260
s(Vremains
g59
tp3629
F2
s(Vheat
g19
tp3630
F1
s(Vconceal'd.
g6
tp3631
F1
s(Veither
g73
tp3632
F3
s(Vpronounce
g6
tp3633
F1
s(Vcomplisance
g6
tp3634
F1
s(V'twill
g73
tp3635
F2
s(VBastill
g15
tp3636
F1
s(g44
g44
tp3637
F180
s(VGoddess
g15
tp3638
F3
s(VWishing
g15
tp3639
F1
s(VAggressor
g15
tp3640
F1
s(Vashort
g44
tp3641
F1
s(VPrise
g6
tp3642
F1
s(Vbut
g133
tp3643
F348
s(Vloanly
g35
tp3644
F1
s(Vinevitably
g35
tp3645
F2
s(V-hast
g44
tp3646
F1
s(Vuntimely
g44
tp3647
F1
s(VAll
g370
tp3648
F1
s(Vmistake
g6
tp3649
F5
s(V-No
g19
tp3650
F1
s(Vfade
g19
tp3651
F2
s(VJustice
g6
tp3652
F1
s(Vaid
g19
tp3653
F1
s(VLetter
g15
tp3654
F20
s(Veternal
g44
tp3655
F34
s(V-haste
g6
tp3656
F3
s(Vforeign
S'JJ'
p3657
tp3658
F1
s(Vendur
g29
tp3659
F1
s(S','
g56
tp3660
F68
s(VCheeks
g15
tp3661
F1
s(Vstories
g10
tp3662
F2
s(VTemptation
g15
tp3663
F2
s(Vpermit
g29
tp3664
F1
s(Vshew
g29
tp3665
F2
s(g35
g63
tp3666
F17
s(Vlose
g35
tp3667
F1
s(g44
g56
tp3668
F33
s(VSister
g44
tp3669
F1
s(VCeremony
g15
tp3670
F2
s(VAltar
g15
tp3671
F1
s(VCaballs
g15
tp3672
F1
s(Vrestless
g6
tp3673
F3
s(VAt
S'IN'
p3674
tp3675
F2
s(V-the
g6
tp3676
F1
s(Vseeing
g6
tp3677
F1
s(Vmost
g682
tp3678
F41
s(VWalls
g15
tp3679
F1
s(V-but
g24
tp3680
F1
s(Vimagination
g6
tp3681
F5
s(Vunty
g19
tp3682
F1
s(Vdazling
g56
tp3683
F1
s(VExcuse
g15
tp3684
F1
s(g15
g682
tp3685
F1
s(Vbroken
g44
tp3686
F6
s(Vtorment
g6
tp3687
F3
s(Vunfit
g44
tp3688
F2
s(Vdiligent
g44
tp3689
F1
s(Vattending
g56
tp3690
F1
s(Vcharity
g6
tp3691
F3
s(Vbold
g6
tp3692
F1
s(S','
g76
tp3693
F8
s(Vmangled
g71
tp3694
F1
s(Vexpected
g24
tp3695
F3
s(VContemplation
g15
tp3696
F1
s(g6
g191
tp3697
F3
s(Voffer
g6
tp3698
F2
s(Vhappen
g19
tp3699
F1
s(Vruin
g44
tp3700
F2
s(Vleave
g24
tp3701
F1
s(VLuster
g15
tp3702
F1
s(Vgrown
g44
tp3703
F1
s(Vconcern
S'NN'
p3704
tp3705
F9
s(Vhead
g6
tp3706
F2
s(g35
g24
tp3707
F85
s(Ve
g44
tp3708
F6
s(Vdare
g29
tp3709
F9
s(Vopens
g59
tp3710
F3
s(S','
g15
tp3711
F181
s(VFlute
g6
tp3712
F1
s(Vthee
g19
tp3713
F23
s(Vtrick
g6
tp3714
F3
s(Vungraciously
g35
tp3715
F1
s(Vwildly
g35
tp3716
F1
s(Vadmittance
g6
tp3717
F1
s(V-Hell
g6
tp3718
F2
s(Vcontroul
g6
tp3719
F2
s(Vcourted
g71
tp3720
F1
s(V-when
g44
tp3721
F1
s(VCourtship
g15
tp3722
F1
s(Vlook
g6
tp3723
F16
s(Vlabour
g19
tp3724
F1
s(Vmarriage
g6
tp3725
F2
s(V-at
g19
tp3726
F1
s(Vcheck
g6
tp3727
F2
s(Vexcuse
g6
tp3728
F6
s(S')'
g81
tp3729
F1
s(S','
g6
tp3730
F162
s(Vvanisht
g13
tp3731
F1
s(Vchid
g59
tp3732
F1
s(VNight
g15
tp3733
F18
s(Vflatter
g24
tp3734
F1
s(Vstifled
g44
tp3735
F1
s(Vsatisfy
g6
tp3736
F1
s(Vwhole
g44
tp3737
F5
s(VTriumphing
g15
tp3738
F1
s(Vrack
g19
tp3739
F1
s(Vbreathless
g6
tp3740
F1
s(Vambitious
g44
tp3741
F2
s(Vobject
g19
tp3742
F1
s(Vopen
g29
tp3743
F2
s(Vattend
g29
tp3744
F2
s(Vplace
g6
tp3745
F14
s(Vforgiving
g6
tp3746
F1
s(Vglides
g59
tp3747
F1
s(Vesteem
g29
tp3748
F2
s(g29
g133
tp3749
F24
s(Vaway
g117
tp3750
F2
s(g6
g10
tp3751
F83
s(Vhappyness
g6
tp3752
F1
s(Vnice
g44
tp3753
F2
s(VIt
S'PRP'
p3754
tp3755
F1
s(Vfaints
g10
tp3756
F1
s(g142
g2744
tp3757
F3
s(Vflying
g56
tp3758
F1
s(Vblest
g44
tp3759
F1
s(Vpower
S'NN'
p3760
tp3761
F26
s(Vi
g29
tp3762
F1
s(g126
g124
tp3763
F2
s(VLove
g19
tp3764
F15
s(g140
g120
tp3765
F42
s(Vnonsense
g44
tp3766
F2
s(Vstrengthen
g19
tp3767
F1
s(Vmixt
g6
tp3768
F2
s(Vlow
g44
tp3769
F4
s(Vdully
g35
tp3770
F4
s(Vbehalf
g6
tp3771
F1
s(Vamaze
g19
tp3772
F1
s(Vdistant
g6
tp3773
F1
s(Vjust
g1292
tp3774
F18
s(Vman
S'NN'
p3775
tp3776
F34
s(Vassure
g6
tp3777
F1
s(Vsomthing
g56
tp3778
F1
s(Vunmov
g44
tp3779
F1
s(V-have
g29
tp3780
F1
s(Vlittle
g44
tp3781
F45
s(Vbleat
g6
tp3782
F1
s(g71
g15
tp3783
F30
s(Vdaily
g44
tp3784
F1
s(Vtowards
g19
tp3785
F2
s(VGown
g44
tp3786
F1
s(Vpursued
g19
tp3787
F1
s(g10
g111
tp3788
F3
s(Vincense
g6
tp3789
F1
s(VChristianity
g6
tp3790
F1
s(Vpromis
g6
tp3791
F3
s(Vparting
g56
tp3792
F1
s(Vreign
g19
tp3793
F1
s(Vfixt
g6
tp3794
F2
s(VSilvia
g15
tp3795
F267
s(Vresolve
g19
tp3796
F6
s(Vwoods
g10
tp3797
F1
s(Vravish
g29
tp3798
F1
s(Vstream
g6
tp3799
F2
s(Vsmother
g6
tp3800
F1
s(Voffer
g29
tp3801
F1
s(VEvening
g6
tp3802
F1
s(Vwhisper
g6
tp3803
F1
s(Vimpos
g6
tp3804
F1
s(g865
S','
tp3805
F8
s(VLovers
g15
tp3806
F7
s(Vsighing
g56
tp3807
F5
s(Vconjugal
g19
tp3808
F1
s(Vfail
g44
tp3809
F1
s(g25
g1623
tp3810
F33
s(V-even
g35
tp3811
F1
s(Vjourney
g6
tp3812
F3
s(VFoscario
g6
tp3813
F1
s(Vhimself
S'PRP'
p3814
tp3815
F7
s(VRendevouz
g15
tp3816
F1
s(VCore
g15
tp3817
F1
s(Vburnt
g59
tp3818
F1
s(VFort
g15
tp3819
F1
s(Vchecking
g56
tp3820
F1
s(VBird
g6
tp3821
F1
s(Vgrow
g29
tp3822
F4
s(Vplainer
g6
tp3823
F1
s(Vpaws
g44
tp3824
F1
s(VRout
g15
tp3825
F1
s(Vdisperse
g59
tp3826
F1
s(VCowslips
g15
tp3827
F1
s(Videa
S'NN'
p3828
tp3829
F1
s(Vresolv
g19
tp3830
F1
s(g485
g76
tp3831
F2
s(Vsnake
g6
tp3832
F1
s(Vpermit
g6
tp3833
F1
s(Vprotestations
g10
tp3834
F2
s(Vhated
g24
tp3835
F3
s(Vdecreed
g24
tp3836
F1
s(Vgilded
g44
tp3837
F1
s(Vunaccountable
g44
tp3838
F2
s(Vtruth
g6
tp3839
F11
s(VArgument
g6
tp3840
F1
s(Vdistaster
g6
tp3841
F1
s(Vdealing
g56
tp3842
F1
s(Vquality
g6
tp3843
F1
s(VSoftness
g15
tp3844
F1
s(VTouches
g15
tp3845
F1
s(Vlips
g10
tp3846
F5
s(Vkind
S'NN'
p3847
tp3848
F24
s(g17
g126
tp3849
F1
s(g589
g44
tp3850
F28
s(Vsuffer
g19
tp3851
F8
s(g63
g44
tp3852
F7
s(Vnotice
g6
tp3853
F4
s(Vhandsome
g44
tp3854
F1
s(g390
g191
tp3855
F1
s(g71
g1327
tp3856
F93
s(Vnicety
g6
tp3857
F1
s(g71
g2018
tp3858
F3
s(Vdamnation-day
g6
tp3859
F1
s(V'd
g124
tp3860
F829
s(Vadvise
g29
tp3861
F1
s(Vprivate
S'JJ'
p3862
tp3863
F5
s(VCoxcomb
g15
tp3864
F3
s(VRemember
g15
tp3865
F3
s(g677
S':'
tp3866
F77
s(Vpenitence
g6
tp3867
F1
s(Vsilent
g6
tp3868
F3
s(VLovely
g15
tp3869
F6
s(Vdeprives
g59
tp3870
F1
s(VHeavens
g10
tp3871
F6
s(VCajus
g15
tp3872
F1
s(Vmalicious
g44
tp3873
F4
s(Varms
g10
tp3874
F16
s(V-alas
g126
tp3875
F1
s(VMarriage
g6
tp3876
F4
s(Vceremonious
g44
tp3877
F1
s(Vnobility
g6
tp3878
F1
s(VRivolets
g689
tp3879
F1
s(Vthank
g19
tp3880
F1
s(Vsins
g59
tp3881
F1
s(VTremble
g44
tp3882
F1
s(Vdesparing
g56
tp3883
F2
s(Vbelieving
g6
tp3884
F2
s(g715
g1623
tp3885
F156
s(Vcustome
g6
tp3886
F2
s(Vtraveller
g6
tp3887
F1
s(g44
g589
tp3888
F2
s(Vfarm
g6
tp3889
F1
s(Voblige
g13
tp3890
F1
s(Vtriumphant
g29
tp3891
F1
s(Vimmediately
S'RB'
p3892
tp3893
F9
s(Vexprest
g191
tp3894
F2
s(Voh
g126
tp3895
F90
s(Vrouling
g6
tp3896
F1
s(Ventertaining
g56
tp3897
F1
s(Vstrictly
g35
tp3898
F1
s(Vseize
g19
tp3899
F3
s(Vovercame
g44
tp3900
F1
s(Vbauble
g6
tp3901
F1
s(Vdanger
g63
tp3902
F1
s(Vdrown
g29
tp3903
F1
s(VCherubin
g15
tp3904
F1
s(Vpleasing
g6
tp3905
F1
s(Vdeparted
g44
tp3906
F2
s(Vread
g29
tp3907
F2
s(Vthrow
g19
tp3908
F5
s(Veminent
g44
tp3909
F1
s(Vshort
g35
tp3910
F1
s(Veasie
g6
tp3911
F4
s(Vretreat
g19
tp3912
F2
s(VGods
g10
tp3913
F1
s(Vstupid
g44
tp3914
F1
s(g29
g865
tp3915
F2
s(VCharmes
g15
tp3916
F1
s(VImage
g15
tp3917
F1
s(Vfixt
g19
tp3918
F1
s(Vconcluded
g71
tp3919
F2
s(g35
g6
tp3920
F64
s(VQueens
g10
tp3921
F1
s(VPaper
g15
tp3922
F6
s(S','
g13
tp3923
F582
s(Vspread
g6
tp3924
F1
s(VLucre
g15
tp3925
F1
s(VWatch
g6
tp3926
F1
s(Vwearied
g44
tp3927
F1
s(g56
S'PRP'
p3928
tp3929
F40
s(VConfirm
g15
tp3930
F1
s(Vreceive
g44
tp3931
F1
s(Vserious
S'JJ'
p3932
tp3933
F2
s(VWrite
g15
tp3934
F1
s(VHonours
g15
tp3935
F2
s(Vdestiny
g6
tp3936
F4
s(Vchang
g44
tp3937
F3
s(Vgrieve
g29
tp3938
F1
s(Vthoughts
g10
tp3939
F18
s(Vlikeness
g6
tp3940
F1
s(Vdull
g19
tp3941
F2
s(Vattended
g71
tp3942
F2
s(Vblooming
g56
tp3943
F3
s(VMother
g15
tp3944
F8
s(Vadmit
g19
tp3945
F2
s(Vfeign
g19
tp3946
F2
s(VBelieve
g19
tp3947
F1
s(Vknow
g29
tp3948
F31
s(Vviolent
g44
tp3949
F4
s(Vobtain
S'VB'
p3950
tp3951
F1
s(Vreward
g6
tp3952
F2
s(g13
g825
tp3953
F564
s(Veys
g10
tp3954
F1
s(VSigh
g15
tp3955
F3
s(Vdescend
g6
tp3956
F1
s(Vinjur
g6
tp3957
F3
s(Vrewarded
g24
tp3958
F3
s(Vcompos
g44
tp3959
F1
s(Vpart
S'NN'
p3960
tp3961
F26
s(VConversations
g10
tp3962
F1
s(Vborrow
g29
tp3963
F1
s(Vsplendour
g6
tp3964
F1
s(Vbe'st
g6
tp3965
F2
s(Vprofess
g44
tp3966
F1
s(Vcommanding
g56
tp3967
F2
s(V-Come
g19
tp3968
F2
s(Vbeheld
g29
tp3969
F2
s(g63
g124
tp3970
F4
s(g25
g35
tp3971
F3
s(Vinjury
g6
tp3972
F1
s(Vmistook
g71
tp3973
F1
s(Vsad
g6
tp3974
F1
s(Vreturn
g19
tp3975
F7
s(Vfixt
g29
tp3976
F1
s(g90
g865
tp3977
F2
s(Vdeck
g19
tp3978
F1
s(Vincourag
g6
tp3979
F1
s(g323
g35
tp3980
F9
s(Vlyes
g59
tp3981
F1
s(Vwell-judging
g44
tp3982
F1
s(g35
g35
tp3983
F220
s(Vbid
g71
tp3984
F1
s(VState
g15
tp3985
F2
s(Vcalm
g19
tp3986
F5
s(VVassal
g15
tp3987
F2
s(Vfollowing
g56
tp3988
F2
s(Vinconsistent
g44
tp3989
F1
s(VJoys
g15
tp3990
F2
s(Vo
g44
tp3991
F4
s(Vbewitches
g59
tp3992
F1
s(Vstranger
g6
tp3993
F4
s(Vwou
g44
tp3994
F8
s(g1278
g682
tp3995
F3
s(Vsure
g29
tp3996
F3
s(Vbesides
g10
tp3997
F3
s(Vwingy
g6
tp3998
F1
s(Vthee
g35
tp3999
F15
s(VJesamin
g15
tp4000
F1
s(Vamongst
g71
tp4001
F1
s(VCesario
g15
tp4002
F16
s(g153
g323
tp4003
F2
s(VWomans
g15
tp4004
F1
s(Vblow
g13
tp4005
F1
s(g140
g56
tp4006
F73
s(Vunspotted
g44
tp4007
F1
s(VCoach-man
g15
tp4008
F1
s(g124
g117
tp4009
F6
s(V-Let
g19
tp4010
F2
s(Vconfess
g19
tp4011
F4
s(VMonarch
g15
tp4012
F5
s(Vtye
g19
tp4013
F1
s(Vsigh't
g19
tp4014
F1
s(VPalace
g15
tp4015
F1
s(Venvying
g44
tp4016
F1
s(Vdrudgery
g6
tp4017
F1
s(Vclaim
g6
tp4018
F4
s(VVillage
g6
tp4019
F1
s(V-Pulling
g56
tp4020
F1
s(Vnext
g13
tp4021
F1
s(Vease
g6
tp4022
F10
s(g25
g1573
tp4023
F4
s(Vtorture
g19
tp4024
F1
s(Vhastning
g56
tp4025
F1
s(Vspoke
g29
tp4026
F1
s(Vwhere
g105
tp4027
F88
s(Vlove
g29
tp4028
F11
s(Vhoarded
g44
tp4029
F1
s(VDoves
g15
tp4030
F1
s(Vruler
g6
tp4031
F1
s(Vendur
g142
tp4032
F1
s(Vare
g616
tp4033
F115
s(Vprejudical
g44
tp4034
F1
s(Vhastned
g71
tp4035
F1
s(g323
g24
tp4036
F1
s(Vdepend
g29
tp4037
F1
s(Vdestine
g29
tp4038
F1
s(VCabinet
g15
tp4039
F5
s(Vburst
g29
tp4040
F1
s(Vflys
g59
tp4041
F1
s(Vplay
g6
tp4042
F4
s(Vharmless
g6
tp4043
F1
s(Vmighty
g35
tp4044
F2
s(Vregarded
g24
tp4045
F1
s(VCesario
g19
tp4046
F1
s(Vconvince
g19
tp4047
F4
s(Vtook
S'VBD'
p4048
tp4049
F13
s(VMusick
g15
tp4050
F2
s(Voffend
g19
tp4051
F1
s(Vstab
g19
tp4052
F1
s(Vflaxen
g44
tp4053
F1
s(VYouth
g15
tp4054
F20
s(Vtreat
g19
tp4055
F1
s(Voff-spring
g6
tp4056
F1
s(VHeauen
g15
tp4057
F1
s(g56
g19
tp4058
F3
s(VOh
g44
tp4059
F1
s(g90
g133
tp4060
F10
s(Vrifle
g19
tp4061
F2
s(Varm
g44
tp4062
F1
s(Vheaves
g10
tp4063
F2
s(Vmass
g6
tp4064
F1
s(Vca
S'MD'
p4065
tp4066
F1
s(Vought
g124
tp4067
F7
s(Vhence
g6
tp4068
F2
s(VPage
g15
tp4069
F2
s(Vnay
g6
tp4070
F4
s(Vundone
g35
tp4071
F6
s(VWhy
S'WRB'
p4072
tp4073
F5
s(Vas
g13
tp4074
F235
s(VBetrayer
g15
tp4075
F1
s(Vimaginations
g10
tp4076
F2
s(S')'
g2641
tp4077
F3
s(Vlearn
g44
tp4078
F1
s(Vlook
g29
tp4079
F11
s(Vthief
g6
tp4080
F1
s(Vgreat
S'JJ'
p4081
tp4082
F44
s(V-begon
g19
tp4083
F1
s(VBloom
g6
tp4084
F1
s(Vcruel.
g44
tp4085
F1
s(Veasy
g44
tp4086
F2
s(Vfool
g6
tp4087
F4
s(Vknowst
g6
tp4088
F1
s(Vmean
g19
tp4089
F2
s(Vsigh
g59
tp4090
F1
s(g44
g689
tp4091
F11
s(Vsecret
g44
tp4092
F6
s(Vstring
g6
tp4093
F1
s(Vtaught
g71
tp4094
F3
s(Vterrify
g19
tp4095
F1
s(Vnumerous
g44
tp4096
F2
s(Vunless
S'IN'
p4097
tp4098
F8
s(Vlay
g71
tp4099
F14
s(Vignoble
g44
tp4100
F1
s(VInterest
g191
tp4101
F1
s(Vrevile
g19
tp4102
F1
s(Venter
g19
tp4103
F2
s(V-that
g13
tp4104
F1
s(Vbreaking
g56
tp4105
F1
s(Vsnatch
g19
tp4106
F3
s(Vlight
g44
tp4107
F4
s(Vcreated
g71
tp4108
F3
s(Vapparent
g44
tp4109
F1
s(g383
g377
tp4110
F28
s(Vresignation
S'NN'
p4111
tp4112
F1
s(Vjoin
g44
tp4113
F1
s(Vcall
g29
tp4114
F6
s(Vfounded
g24
tp4115
F1
s(Vbeseech
g29
tp4116
F1
s(Vpromis
g44
tp4117
F1
s(Vdouble
g19
tp4118
F2
s(g383
g10
tp4119
F12
s(Vart
g117
tp4120
F1
s(Vvow
g44
tp4121
F1
s(g24
g521
tp4122
F18
s(Vtongue
g6
tp4123
F5
s(VDearest
g15
tp4124
F1
s(Vpersons
g10
tp4125
F2
s(VArts
g15
tp4126
F3
s(VWind
g15
tp4127
F1
s(Vforget
g19
tp4128
F5
s(Vunsuspected
g44
tp4129
F1
s(Vbasks
g44
tp4130
F1
s(Vdismiss
g6
tp4131
F1
s(Vgiddy
g44
tp4132
F1
s(Vthine
g29
tp4133
F1
s(Vindear
g44
tp4134
F1
s(VDull
g15
tp4135
F2
s(Vpleases
g59
tp4136
F2
s(VGod
g15
tp4137
F27
s(Vtollerable
g44
tp4138
F1
s(Vpoor
S'JJ'
p4139
tp4140
F22
s(Vkindling
g56
tp4141
F1
s(g3141
g865
tp4142
F1
s(Vreflection
g6
tp4143
F1
s(Vkept
g24
tp4144
F2
s(Vloss
S'NN'
p4145
tp4146
F2
s(Vlies
g59
tp4147
F1
s(Vneeds
g59
tp4148
F3
s(Vrail
g19
tp4149
F1
s(Velevated
g24
tp4150
F2
s(VKnow
g15
tp4151
F2
s(Vill-favour
g44
tp4152
F1
s(Vrelieve
g19
tp4153
F2
s(VPhilander
g15
tp4154
F170
s(Vis't
g29
tp4155
F1
s(VHeavens
g15
tp4156
F5
s(Vbelieving
g56
tp4157
F3
s(VProphetick
g15
tp4158
F1
s(VAwful
g15
tp4159
F1
s(Vfavourably
g35
tp4160
F1
s(Vmind
g19
tp4161
F2
s(V't
g73
tp4162
F14
s(VSieges
g15
tp4163
F1
s(Vbrought
g24
tp4164
F5
s(Vfaithless
g44
tp4165
F5
s(Vcrys
g44
tp4166
F1
s(Vconvinc
g19
tp4167
F1
s(Vinstances
g10
tp4168
F1
s(Vdie
g19
tp4169
F3
s(Vscorn
g6
tp4170
F1
s(Vhinkwhere
g6
tp4171
F1
s(Vcrush
g19
tp4172
F1
s(Vadorn
g44
tp4173
F4
s(VNature
g15
tp4174
F8
s(g90
S':'
tp4175
F29
s(Vweep
g19
tp4176
F1
s(Vworthy
g6
tp4177
F1
s(Valarm
g19
tp4178
F2
s(Vde
g142
tp4179
F1
s(Vunwishing
g56
tp4180
F1
s(Vshamefull
g6
tp4181
F1
s(Vcompleted
g24
tp4182
F1
s(Vbusiness
g899
tp4183
F30
s(VLodgings
g15
tp4184
F1
s(Vtried
g71
tp4185
F2
s(g111
g17
tp4186
F5
s(Vanswer
g19
tp4187
F4
s(Vgay
g24
tp4188
F1
s(VWord
g15
tp4189
F1
s(Vdisgust
g6
tp4190
F1
s(Vdoubting
g56
tp4191
F2
s(Voverloaded
g71
tp4192
F1
s(Vflatteries
g10
tp4193
F1
s(Vbring
g29
tp4194
F1
s(Vharbour
g29
tp4195
F1
s(Vpast
g19
tp4196
F1
s(Vdestroy
g19
tp4197
F3
s(Vslave
g19
tp4198
F1
s(VSlave
g15
tp4199
F1
s(Vall.
g29
tp4200
F1
s(Vfledg
g6
tp4201
F1
s(Vshoud'st
g29
tp4202
F1
s(Vhad
g71
tp4203
F111
s(Vperjur
g44
tp4204
F8
s(Vburning
g6
tp4205
F1
s(VThunderbolts
g15
tp4206
F1
s(VBlush
g15
tp4207
F1
s(Vsupposed
g24
tp4208
F2
s(Vprerogative
g6
tp4209
F1
s(Vaside
g35
tp4210
F3
s(S'('
g24
tp4211
F2
s(Vbelov
g6
tp4212
F3
s(Vfatally
g35
tp4213
F3
s(Vshapes
g10
tp4214
F2
s(Vcounted
g44
tp4215
F1
s(Vsinking
g6
tp4216
F1
s(Vfirst
g44
tp4217
F22
s(Vkist
g44
tp4218
F1
s(Vinsupportable
g44
tp4219
F6
s(VRavish
g19
tp4220
F1
s(Vdrowsie
g6
tp4221
F1
s(Vamorous
g44
tp4222
F9
s(Vbehold
g35
tp4223
F1
s(Vunguarded
g71
tp4224
F2
s(VLodgings
g10
tp4225
F1
s(Vself
g6
tp4226
F56
s(Vcondescention
g6
tp4227
F1
s(Vkill
g44
tp4228
F1
s(Vesteem
g19
tp4229
F1
s(Vrecover
g24
tp4230
F1
s(Vforc
g29
tp4231
F2
s(Vlisteners
g10
tp4232
F1
s(VGarments
g15
tp4233
F2
s(g1193
g886
tp4234
F2
s(V-not
g44
tp4235
F1
s(Vnonsensical
g44
tp4236
F1
s(Vlaws
S'NNS'
p4237
tp4238
F6
s(Vsubdu
g24
tp4239
F1
s(Vfragrant
g44
tp4240
F2
s(Vneed
g71
tp4241
F1
s(Vdirect
g19
tp4242
F1
s(VJudg
g15
tp4243
F4
s(Vfuture
g44
tp4244
F1
s(Vdecency
g6
tp4245
F1
s(Vpurpose
g6
tp4246
F1
s(Vsee
g29
tp4247
F17
s(VPrize
g19
tp4248
F1
s(VLove
g29
tp4249
F6
s(Vname
g6
tp4250
F14
s(Vso
g19
tp4251
F1
s(VTool
g6
tp4252
F1
s(Vdullness
g19
tp4253
F1
s(Vleague
g6
tp4254
F1
s(Vcommit
g19
tp4255
F2
s(Vdissembl
g19
tp4256
F1
s(VTable-Book
g15
tp4257
F1
s(Vye
g715
tp4258
F1
s(Vtraverse
g29
tp4259
F1
s(Vremembrance
g6
tp4260
F3
s(VChildren
g15
tp4261
F1
s(Vprejudice
g6
tp4262
F1
s(V-do
g6
tp4263
F1
s(Vout-side
g44
tp4264
F1
s(VSilvia
g19
tp4265
F2
s(Vinnumerable
g44
tp4266
F1
s(VLord
g6
tp4267
F1
s(Vmelancholy
g44
tp4268
F5
s(Vknown
g24
tp4269
F6
s(Vearnestness
g6
tp4270
F1
s(g76
g111
tp4271
F1
s(Vinventions
g10
tp4272
F1
s(Vreproached
g24
tp4273
F1
s(Vdelicately
g35
tp4274
F2
s(g153
g191
tp4275
F6
s(Veach
S'DT'
p4276
tp4277
F7
s(Vcares
g10
tp4278
F3
s(Vinvents
g10
tp4279
F1
s(g29
g25
tp4280
F1
s(VBook
g15
tp4281
F1
s(Vsilly
g35
tp4282
F2
s(VImpatient
g15
tp4283
F1
s(Vpossession
g6
tp4284
F3
s(g81
g6
tp4285
F15
s(Vweak
S'JJ'
p4286
tp4287
F2
s(Vlovely
g35
tp4288
F18
s(Vpants
g10
tp4289
F2
s(g56
g10
tp4290
F45
s(Vleaf
g6
tp4291
F1
s(VPassions
g15
tp4292
F2
s(Vsighing
g6
tp4293
F1
s(g25
g133
tp4294
F1
s(Vdo't
g19
tp4295
F5
s(Vreproach
g19
tp4296
F2
s(Vcensorious
g44
tp4297
F1
s(Vgreatness
g6
tp4298
F1
s(V-but
g6
tp4299
F4
s(Vdrops
g10
tp4300
F1
s(g24
g383
tp4301
F41
s(Vimpatience
g6
tp4302
F3
s(Vinsupportable
g6
tp4303
F1
s(Vrashnesses
g59
tp4304
F1
s(Vshaded
g44
tp4305
F1
s(Vimagin
g6
tp4306
F2
s(Vlisten
g19
tp4307
F1
s(Vrecompense
g6
tp4308
F2
s(VDamons
g10
tp4309
F1
s(Vsupper
g19
tp4310
F1
s(V-But
g19
tp4311
F4
s(VAngels
g689
tp4312
F2
s(Vlead
g19
tp4313
F1
s(S')'
S'DT'
p4314
tp4315
F2
s(Vbeholds
g59
tp4316
F1
s(Vlonging
g6
tp4317
F1
s(Vconfusions
g10
tp4318
F1
s(Vsollicited
g24
tp4319
F1
s(Vhopeless
g44
tp4320
F1
s(VRoad
g15
tp4321
F1
s(S'PRP$'
p4322
g191
tp4323
F10
s(Vdedicate
g29
tp4324
F1
s(Vwickedness
g6
tp4325
F1
s(Vvouchsafe
g19
tp4326
F1
s(Vdoubt
g6
tp4327
F3
s(Vage
S'NN'
p4328
tp4329
F1
s(Vkisses
g59
tp4330
F1
s(VRavisher
g15
tp4331
F2
s(Vdown-cast
g44
tp4332
F1
s(Ve
g13
tp4333
F1
s(Vcease
g29
tp4334
F1
s(Vintend
g19
tp4335
F1
s(Vplead
g29
tp4336
F2
s(Vspyes
g6
tp4337
F1
s(Vpity
g6
tp4338
F13
s(Vmore
g323
tp4339
F65
s(Vnatural
S'JJ'
p4340
tp4341
F6
s(Vsworn
g6
tp4342
F1
s(Vshower
g6
tp4343
F1
s(g63
g1213
tp4344
F37
s(Vslave
g6
tp4345
F6
s(Vconjure
g29
tp4346
F5
s(Vdissemble
g19
tp4347
F1
s(g589
g152
tp4348
F2
s(V-again
g19
tp4349
F1
s(VCovert
g15
tp4350
F1
s(Vdeaths
g10
tp4351
F1
s(Vunderstood
g6
tp4352
F1
s(Vblame
g29
tp4353
F1
s(Vmerit
g6
tp4354
F2
s(S','
g19
tp4355
F146
s(VStory
g15
tp4356
F1
s(VBills
g10
tp4357
F1
s(VJuno
g15
tp4358
F1
s(Vappear
g29
tp4359
F6
s(VLips
g15
tp4360
F6
s(Vgentleness
g19
tp4361
F1
s(g1525
g825
tp4362
F101
s(Vlov
g24
tp4363
F2
s(Vbeneath
g44
tp4364
F1
s(Vearth
g6
tp4365
F6
s(Vfools
g10
tp4366
F1
s(Vhid
g71
tp4367
F1
s(Vreceived
g71
tp4368
F2
s(g120
g19
tp4369
F5
s(Vjoys
g6
tp4370
F21
s(g44
g383
tp4371
F57
s(VTouching
g15
tp4372
F1
s(Vpair
g6
tp4373
F3
s(Vwould
g1250
tp4374
F38
s(Vpresent
g19
tp4375
F1
s(Vdirected
g71
tp4376
F2
s(Vincline
g29
tp4377
F1
s(Vperswaded
g71
tp4378
F1
s(Vplenty
g6
tp4379
F1
s(Vdrawing
g56
tp4380
F1
s(V-thy
g44
tp4381
F1
s(VFaith
g15
tp4382
F1
s(Vflight
S'NN'
p4383
tp4384
F12
s(Vmerciful
g44
tp4385
F1
s(Vfelicities
g10
tp4386
F1
s(Vtalk
g19
tp4387
F3
s(Vopen
g44
tp4388
F6
s(VRape
g15
tp4389
F2
s(Vmighty
g6
tp4390
F16
s(VCurse
g6
tp4391
F7
s(VWritten
g15
tp4392
F1
s(Vweigh
g44
tp4393
F1
s(S':'
g1678
tp4394
F105
s(V-your
g44
tp4395
F1
s(Vsav
g44
tp4396
F1
s(VKingdom
g15
tp4397
F2
s(VBellfont
g15
tp4398
F36
s(Vaccidents
g10
tp4399
F1
s(VSoveraign
g15
tp4400
F1
s(Venemies
g10
tp4401
F2
s(Vloves
g59
tp4402
F12
s(VCautions
g15
tp4403
F1
s(Vlose
g19
tp4404
F6
s(V's
g865
tp4405
F138
s(Vconfirm
g29
tp4406
F3
s(Vcurst
g44
tp4407
F1
s(Vtill
g24
tp4408
F1
s(VLeaf
g15
tp4409
F1
s(Vunblushing
g56
tp4410
F1
s(Vheaven
g35
tp4411
F1
s(Vrepay
g19
tp4412
F1
s(Vtitle
g6
tp4413
F6
s(Vbeauty
g6
tp4414
F13
s(Vpretence
g6
tp4415
F3
s(Vdeclension
g6
tp4416
F1
s(Vbarbarous
g44
tp4417
F1
s(Vsurrounds
g59
tp4418
F1
s(Vfled
g71
tp4419
F3
s(Vpanting
g56
tp4420
F2
s(V-Oh
g6
tp4421
F9
s(Vstrangely
g35
tp4422
F1
s(g1701
g650
tp4423
F29
s(Vencreas
g35
tp4424
F1
s(Vbeget
g19
tp4425
F1
s(Vadvanc
g44
tp4426
F1
s(Vfail
g19
tp4427
F1
s(Vpasport
g6
tp4428
F1
s(g1489
g370
tp4429
F58
s(Vcome
g19
tp4430
F13
s(Vunusual
S'JJ'
p4431
tp4432
F5
s(VGlorious
g15
tp4433
F6
s(Vsupport
g19
tp4434
F5
s(Vpresent
g71
tp4435
F1
s(Vstreams
g6
tp4436
F1
s(Vconfirm
g24
tp4437
F1
s(Va
g1678
tp4438
F701
s(VBeauty
g6
tp4439
F4
s(Vpay
g19
tp4440
F3
s(Vnearer
g63
tp4441
F1
s(Vheap
g29
tp4442
F1
s(VPalaces
g10
tp4443
F1
s(g76
S'.'
tp4444
F3
s(S','
g293
tp4445
F67
s(Vconjugal
g6
tp4446
F1
s(Vadventurer
g6
tp4447
F1
s(Vundoer
g6
tp4448
F1
s(Vfallow
g19
tp4449
F1
s(Vrender
g24
tp4450
F1
s(Vseparation
g6
tp4451
F2
s(VMurtherer
g15
tp4452
F1
s(Vunspotted
g24
tp4453
F1
s(VPhilosophy
g6
tp4454
F1
s(VAs
g35
tp4455
F1
s(Vmerits
g59
tp4456
F1
s(Vrigid
g44
tp4457
F1
s(Vmarried
g71
tp4458
F1
s(V'd
g117
tp4459
F1
s(Vthem
S'PRP'
p4460
tp4461
F6
s(Vly
g6
tp4462
F2
s(Vbears
g10
tp4463
F1
s(Vpreparing
g56
tp4464
F1
s(VNose
g15
tp4465
F1
s(Varm
g19
tp4466
F1
s(Vnever-dying
g44
tp4467
F1
s(Vfull
S'JJ'
p4468
tp4469
F11
s(Vmad
g44
tp4470
F11
s(Vbeen
g1241
tp4471
F40
s(Vcontemplate
g19
tp4472
F1
s(Vbeats
g6
tp4473
F1
s(Vtell
g19
tp4474
F32
s(VIngratitude
g15
tp4475
F1
s(VInterest
g15
tp4476
F5
s(Vconceiv
g6
tp4477
F1
s(g124
g3365
tp4478
F5
s(Vapartment
g6
tp4479
F5
s(Vreserv
g6
tp4480
F2
s(Vravisht
g19
tp4481
F1
s(Vtrembles
g59
tp4482
F1
s(Vbeliever
g6
tp4483
F1
s(Vyes
g126
tp4484
F23
s(Vlove-quarrel
g44
tp4485
F1
s(VConquerour
g15
tp4486
F1
s(Vcommanded
g24
tp4487
F1
s(Vdiscours
g24
tp4488
F1
s(Vimmense
g44
tp4489
F1
s(Vpleas
g10
tp4490
F5
s(Vpain
g6
tp4491
F11
s(Vguarded
g24
tp4492
F2
s(Valmost
g92
tp4493
F19
s(g81
g71
tp4494
F45
s(Vsecond
g44
tp4495
F1
s(Vspoils
g10
tp4496
F1
s(Vadvantage
g6
tp4497
F8
s(g24
g485
tp4498
F1
s(VGuards
g10
tp4499
F2
s(Vworlds
g10
tp4500
F2
s(Vprint
g6
tp4501
F3
s(Vstrengthens
g59
tp4502
F1
s(VGive
g19
tp4503
F2
s(V-'tis
g142
tp4504
F1
s(Vwhisper
g63
tp4505
F2
s(Vhas
g1623
tp4506
F97
s(g111
g81
tp4507
F1
s(Vpost
g19
tp4508
F1
s(Vsufficient
g6
tp4509
F2
s(VArmes
g689
tp4510
F1
s(Vprefer
g29
tp4511
F3
s(VAngels
g19
tp4512
F1
s(Vrepresent
g6
tp4513
F1
s(Vrevolution
g6
tp4514
F1
s(VNymph
g15
tp4515
F2
s(Vadventure
g6
tp4516
F8
s(VWomens
g15
tp4517
F1
s(Vingage
g6
tp4518
F1
s(Vmisfortune
g6
tp4519
F3
s(g140
g191
tp4520
F7
s(Vwants
g3547
tp4521
F4
s(Vweigh
g29
tp4522
F1
s(Vupon
g6
tp4523
F2
s(Vimproves
g59
tp4524
F1
s(Vsurprising
g44
tp4525
F4
s(Vknotty
g44
tp4526
F1
s(Vcareful
g44
tp4527
F2
s(Vlight
g71
tp4528
F2
s(Vmelancholy
g142
tp4529
F1
s(Vpursute
g6
tp4530
F1
s(Vfavour
g19
tp4531
F2
s(VProperty
g6
tp4532
F3
s(Vparted
g24
tp4533
F4
s(g29
g558
tp4534
F179
s(Vfail
g29
tp4535
F4
s(Vyielded
g24
tp4536
F2
s(g90
g17
tp4537
F63
s(V-and
g19
tp4538
F6
s(Vthrown
g24
tp4539
F3
s(Vupbraidings
g10
tp4540
F1
s(VMothers
g689
tp4541
F1
s(Vmadly
g35
tp4542
F1
s(Vfircer
g6
tp4543
F1
s(Vdecay
g6
tp4544
F1
s(Vcomplement
g6
tp4545
F1
s(g1819
g762
tp4546
F560
s(VDear
g44
tp4547
F1
s(Vunattended
g71
tp4548
F1
s(Vthoughtfull
g35
tp4549
F1
s(Vdeny
g29
tp4550
F2
s(Voh
g124
tp4551
F4
s(Vpast
g13
tp4552
F2
s(g76
g6
tp4553
F30
s(Vblest
g191
tp4554
F12
s(g76
S','
tp4555
F26
s(Vfavour
g24
tp4556
F1
s(Vdiscovering
g56
tp4557
F2
s(Vyesterday
S'NN'
p4558
tp4559
F1
s(Vblessed
g71
tp4560
F1
s(Vlong
g19
tp4561
F1
s(VAgue
g15
tp4562
F2
s(g2856
g81
tp4563
F13
s(Vpac
g6
tp4564
F1
s(Vborn
g44
tp4565
F2
s(Vreseize
g19
tp4566
F1
s(Vunrest
g19
tp4567
F1
s(Vweeping
g56
tp4568
F3
s(g27
g35
tp4569
F19
s(Vcharmer
g6
tp4570
F4
s(Vglance
g6
tp4571
F4
s(g153
g63
tp4572
F12
s(Vagitated
g24
tp4573
F1
s(VAh
g6
tp4574
F1
s(VCuckold
g19
tp4575
F1
s(Vartfully
g35
tp4576
F1
s(Vpowerfull
g6
tp4577
F2
s(Vpursu
g24
tp4578
F1
s(V-shall
g19
tp4579
F1
s(Vsafety
S'NN'
p4580
tp4581
F7
s(Vcool
g19
tp4582
F3
s(Vwait
g29
tp4583
F6
s(Vdy
g44
tp4584
F1
s(VSince
S'IN'
p4585
tp4586
F2
s(S','
g10
tp4587
F25
s(Vpreacht
g19
tp4588
F1
s(g24
g140
tp4589
F20
s(Vpretends
g59
tp4590
F1
s(Vvanish
g19
tp4591
F1
s(g126
S','
tp4592
F81
s(Vlooks
g59
tp4593
F7
s(g865
g714
tp4594
F14
s(Vnay
g10
tp4595
F1
s(VMajesty
g15
tp4596
F1
s(Vlist
g6
tp4597
F1
s(Voutcast
g6
tp4598
F1
s(g6
g19
tp4599
F26
s(Vsuddain
g6
tp4600
F1
s(Vtheft
g6
tp4601
F1
s(Vprudently
g35
tp4602
F2
s(Valarms
g10
tp4603
F1
s(Vstops
g10
tp4604
F1
s(Vstory
S'NN'
p4605
tp4606
F16
s(Vsilken
g44
tp4607
F1
s(Vbewitching
g56
tp4608
F3
s(Vravishments
g10
tp4609
F1
s(VCurse
g15
tp4610
F2
s(Vgay
g19
tp4611
F1
s(Vreturn
g59
tp4612
F1
s(Vimplore
g13
tp4613
F1
s(Vsets
g59
tp4614
F1
s(Valter
g6
tp4615
F1
s(Vdebated
g24
tp4616
F1
s(VDark
g15
tp4617
F1
s(Vapproaching
g56
tp4618
F7
s(Vbetray
g13
tp4619
F1
s(VBody
g6
tp4620
F1
s(Vproves
g59
tp4621
F1
s(Vscorn
g24
tp4622
F1
s(g689
g6
tp4623
F2
s(Vresolv
g29
tp4624
F2
s(Vcheek
g6
tp4625
F1
s(g619
g56
tp4626
F129
s(Vassistance
g6
tp4627
F1
s(Vpossess
g29
tp4628
F2
s(S':'
g1244
tp4629
F118
s(g714
g63
tp4630
F1
s(Vrender
g19
tp4631
F9
s(Vmarks
g10
tp4632
F1
s(VCottage
g15
tp4633
F3
s(Vresolv
g24
tp4634
F2
s(Vcou
g71
tp4635
F2
s(Vheart-broken
g44
tp4636
F1
s(Vadorn
g29
tp4637
F1
s(Veternally
g35
tp4638
F9
s(Vpardon
g6
tp4639
F1
s(VBrilljard
g15
tp4640
F14
s(Vaspire
g19
tp4641
F1
s(VI'l
g15
tp4642
F1
s(Vsame
S'JJ'
p4643
tp4644
F21
s(Vsmil
g29
tp4645
F1
s(Vdoor
g6
tp4646
F3
s(g10
g1327
tp4647
F267
s(Vnauseous
g44
tp4648
F1
s(Vunconsidering
g56
tp4649
F2
s(Vmight
S'MD'
p4650
tp4651
F24
s(VHugonots
g15
tp4652
F1
s(Vrushing
g56
tp4653
F2
s(V-yet
g44
tp4654
F1
s(VAdorable
g15
tp4655
F3
s(Vdefensive
g44
tp4656
F1
s(V-But
g13
tp4657
F1
s(Vfall
g19
tp4658
F11
s(Vshap
g44
tp4659
F1
s(VPolitician
g15
tp4660
F1
s(VIdea
g15
tp4661
F1
s(VCabals
g15
tp4662
F2
s(VGracious
g15
tp4663
F1
s(Vaid
g13
tp4664
F1
s(Vup
g35
tp4665
F3
s(Vmatters
g10
tp4666
F1
s(Vpossess
g6
tp4667
F3
s(g589
S','
tp4668
F16
s(Vdifficult
S'JJ'
p4669
tp4670
F1
s(VLips
g10
tp4671
F1
s(VMost
g682
tp4672
F1
s(g152
g6
tp4673
F4
s(Vdawn
g6
tp4674
F1
s(VBasket
g6
tp4675
F1
s(VVisions
g10
tp4676
F1
s(Vtake
g19
tp4677
F22
s(Vunimploy
g44
tp4678
F1
s(Vlast
g3365
tp4679
F44
s(VAgony
g15
tp4680
F3
s(VTrophy
g19
tp4681
F1
s(VConquest
g15
tp4682
F1
s(VBlisses
g59
tp4683
F1
s(Valthough
S'IN'
p4684
tp4685
F1
s(Vrobust
g6
tp4686
F1
s(Vshunning
g56
tp4687
F1
s(Vfriend
g6
tp4688
F4
s(Vfantom
g6
tp4689
F1
s(Vonly
g44
tp4690
F5
s(VMagick
g15
tp4691
F2
s(Vfrighten
g19
tp4692
F1
s(Vforc
g44
tp4693
F4
s(Vbrightness
g6
tp4694
F1
s(VMorning
g15
tp4695
F3
s(Vwelcom
g29
tp4696
F1
s(VWretches
g15
tp4697
F1
s(VInterest
g6
tp4698
F2
s(g865
S'.'
tp4699
F11
s(g71
g117
tp4700
F10
s(Vask
g24
tp4701
F1
s(Vtoyl
g6
tp4702
F1
s(Vtyes
g6
tp4703
F2
s(Vdistracted
g24
tp4704
F2
s(g293
g140
tp4705
F1
s(Vsnatcht
g19
tp4706
F1
s(VMasters
g15
tp4707
F1
s(Vrid
g44
tp4708
F1
s(VThousand
g76
tp4709
F3
s(VSpeeches
g15
tp4710
F1
s(g10
g865
tp4711
F5
s(Vupon
g13
tp4712
F32
s(Vchange
g6
tp4713
F7
s(Vsurpriz
g44
tp4714
F6
s(VPity
g15
tp4715
F2
s(g140
g6
tp4716
F268
s(Vstrove
g19
tp4717
F1
s(Vout
g117
tp4718
F32
s(g865
g650
tp4719
F7
s(VWedding-day
g15
tp4720
F1
s(g71
g111
tp4721
F2
s(Vbrink
g6
tp4722
F1
s(Virreconcilable
g44
tp4723
F1
s(g689
g44
tp4724
F1
s(Vbegan
S'VBD'
p4725
tp4726
F4
s(Vnets
g10
tp4727
F1
s(Voff
g13
tp4728
F3
s(Vunsafe
g44
tp4729
F1
s(Vfortunate
g44
tp4730
F2
s(Vthou
g24
tp4731
F3
s(Vordain
g24
tp4732
F1
s(Von
g2563
tp4733
F214
s(Vhear
g19
tp4734
F10
s(Vobdurate
g44
tp4735
F1
s(g76
g1495
tp4736
F3
s(VAmorous
g15
tp4737
F1
s(VHeavenly
g15
tp4738
F5
s(Vperswade
g19
tp4739
F6
s(Vharden
g6
tp4740
F1
s(Vfatigues
g10
tp4741
F4
s(Vrendred
g24
tp4742
F3
s(g4048
g63
tp4743
F1
s(Vsigh
g44
tp4744
F8
s(Vimploy
g19
tp4745
F1
s(Vdesparing
g6
tp4746
F1
s(Vupon
g44
tp4747
F1
s(Vconceive
g19
tp4748
F3
s(Vend
g6
tp4749
F10
s(S')'
g111
tp4750
F2
s(Vfrown
g6
tp4751
F2
s(Vpretend
g19
tp4752
F3
s(Vdrawn
g6
tp4753
F2
s(Vflame
g6
tp4754
F25
s(Vchase
g19
tp4755
F1
s(VBranches
g15
tp4756
F1
s(g2142
g15
tp4757
F386
s(Vreplies
g59
tp4758
F1
s(VEquipage
g15
tp4759
F1
s(Vungovernable
g44
tp4760
F1
s(Vrule
g6
tp4761
F1
s(Vbosom
g6
tp4762
F1
s(g10
g3268
tp4763
F7
s(g589
g370
tp4764
F3
s(Vinsensible
g6
tp4765
F2
s(Vmark
g44
tp4766
F1
s(VHumour
g15
tp4767
F1
s(Vstopping
g56
tp4768
F1
s(VRavishing
g15
tp4769
F3
s(Vappointments
g10
tp4770
F1
s(Vshortly
g35
tp4771
F2
s(Vowe
g19
tp4772
F1
s(Vpityless
g19
tp4773
F1
s(g1327
S')'
tp4774
F2
s(Vloose
g35
tp4775
F1
s(Vunwonted
g44
tp4776
F2
s(VLover
g6
tp4777
F2
s(Vgavest
g191
tp4778
F1
s(Vfeabless
g6
tp4779
F1
s(VCadet
g15
tp4780
F2
s(Vrate
S'NN'
p4781
tp4782
F7
s(VLeague
g6
tp4783
F1
s(Vconverted
g24
tp4784
F1
s(VFeaver
g6
tp4785
F1
s(Vhide
g19
tp4786
F9
s(Vabandon
g19
tp4787
F4
s(Vfantastick
g44
tp4788
F1
s(Vtorments
g10
tp4789
F6
s(Vboasting
g6
tp4790
F1
s(Vfarthest
g191
tp4791
F1
s(Vseem
g19
tp4792
F1
s(VMerciful
g15
tp4793
F1
s(VBravery
g15
tp4794
F2
s(Vdisguis
g44
tp4795
F1
s(Vmercyful
g44
tp4796
F1
s(Vrun
g19
tp4797
F5
s(VFlight
g15
tp4798
F1
s(g71
g76
tp4799
F6
s(Vdeparting
g56
tp4800
F1
s(Vnegligently
g35
tp4801
F1
s(g323
g2856
tp4802
F2
s(Vimposing
g56
tp4803
F1
s(Veloquence
g6
tp4804
F3
s(Vquench
g19
tp4805
F1
s(Vundiverting
g44
tp4806
F1
s(Vfaithful
g44
tp4807
F2
s(Vflights
g10
tp4808
F1
s(Vcharm
g29
tp4809
F1
s(Vbelieve
g19
tp4810
F19
s(Vtrifling
g6
tp4811
F1
s(g133
g63
tp4812
F5
s(Vadmir
g44
tp4813
F1
s(Vwou
g111
tp4814
F1
s(Vparty
S'NN'
p4815
tp4816
F2
s(VWrack
g15
tp4817
F1
s(VSufferer
g15
tp4818
F1
s(Vraving
g56
tp4819
F7
s(Vlike
g13
tp4820
F41
s(Vexpression
g6
tp4821
F1
s(Vstock
S'NN'
p4822
tp4823
F4
s(Voffers
g10
tp4824
F1
s(Vclos
g29
tp4825
F1
s(Vcertain
S'JJ'
p4826
tp4827
F6
s(Vmove
g19
tp4828
F2
s(Vcriminal
g6
tp4829
F1
s(Vravish't
g44
tp4830
F1
s(Vcruel
g44
tp4831
F6
s(Vdealt
g24
tp4832
F1
s(Vrequires
S'VBZ'
p4833
tp4834
F1
s(Vburnt
g6
tp4835
F1
s(S'DT'
p4836
g76
tp4837
F19
s(Vbad
S'JJ'
p4838
tp4839
F1
s(VTraytor
g6
tp4840
F2
s(Vneither
g90
tp4841
F2
s(Vjudgments
g10
tp4842
F1
s(VSounds
g15
tp4843
F1
s(Vworth
g13
tp4844
F2
s(V-fail
g59
tp4845
F1
s(Vtreasure
g6
tp4846
F4
s(V-Adieu
g6
tp4847
F1
s(Vfeebly
g35
tp4848
F1
s(Vproof
g44
tp4849
F1
s(VOld
g15
tp4850
F2
s(Vpursu
g6
tp4851
F1
s(Vmethod
g6
tp4852
F2
s(Vbegon.
g6
tp4853
F1
s(VSenate
S'NNP'
p4854
tp4855
F1
s(Vwill
g124
tp4856
F166
s(Vvictim
g6
tp4857
F2
s(Vhasted
g24
tp4858
F1
s(Vvain
g44
tp4859
F3
s(VSix
g15
tp4860
F2
s(Vbearing
g56
tp4861
F1
s(Vyield
g6
tp4862
F1
s(VDoor
g15
tp4863
F2
s(Vbloom
g6
tp4864
F1
s(Vconceal
g24
tp4865
F1
s(g485
g105
tp4866
F2
s(Vbusie
g6
tp4867
F4
s(Vshalt
g44
tp4868
F1
s(Vinchanter
g6
tp4869
F1
s(g13
g120
tp4870
F17
s(Vearth
g19
tp4871
F2
s(g59
g152
tp4872
F1
s(VWhigg
g15
tp4873
F3
s(g35
g44
tp4874
F337
s(VMorals
g10
tp4875
F1
s(Vwarn
g19
tp4876
F1
s(Vbriskly
g44
tp4877
F1
s(Vconjunction
g6
tp4878
F1
s(Vapproaches
g59
tp4879
F1
s(Vcurst
g19
tp4880
F1
s(VAdoration
g15
tp4881
F2
s(Vseiz
g19
tp4882
F1
s(Vindustrious
g44
tp4883
F1
s(g71
g25
tp4884
F4
s(Vlove
g6
tp4885
F82
s(Vbroke
g24
tp4886
F2
s(Vcorner
g6
tp4887
F2
s(g2744
g63
tp4888
F11
s(Vprospects
g10
tp4889
F1
s(Vside
g6
tp4890
F4
s(Vpronounce
g19
tp4891
F2
s(Vyou'r
g6
tp4892
F1
s(g126
g15
tp4893
F23
s(Vremain
g29
tp4894
F5
s(g111
g76
tp4895
F1
s(g3928
g323
tp4896
F6
s(Vvein
g6
tp4897
F2
s(Veternity
g6
tp4898
F2
s(VPrinciples
g10
tp4899
F1
s(Vattend
g19
tp4900
F3
s(Vadvance
g6
tp4901
F4
s(g140
g71
tp4902
F78
s(Vclear
g44
tp4903
F2
s(VDish
g15
tp4904
F2
s(Valas
g29
tp4905
F1
s(g714
g6
tp4906
F694
s(Vcontrary
g44
tp4907
F2
s(g29
g485
tp4908
F13
s(Vinfuse
g19
tp4909
F1
s(Vesteem
g6
tp4910
F6
s(Vunguarded
g44
tp4911
F1
s(g44
g13
tp4912
F188
s(Voblige
g19
tp4913
F1
s(Vdoubted
g44
tp4914
F1
s(g25
g124
tp4915
F3
s(Vbend
g19
tp4916
F1
s(Veverlasting
g6
tp4917
F2
s(Vneedless
g44
tp4918
F1
s(Vexperience
g6
tp4919
F2
s(g13
g71
tp4920
F11
s(VMelancholly
g15
tp4921
F1
s(Vdoubted
g24
tp4922
F3
s(Vsecure
g6
tp4923
F1
s(Vexperienc
g44
tp4924
F1
s(Vthink
g19
tp4925
F34
s(Vperfum
g59
tp4926
F1
s(Vstop
g71
tp4927
F1
s(Vgasp
g6
tp4928
F1
s(Vsent
g71
tp4929
F5
s(Vfond
g29
tp4930
F1
s(Vrefuses
g59
tp4931
F1
s(Vspread
g29
tp4932
F1
s(Vquarry
g6
tp4933
F1
s(VBirds
g15
tp4934
F1
s(Vimploy
g44
tp4935
F2
s(Vall-seeing
g44
tp4936
F1
s(Vgrotto
g6
tp4937
F1
s(g6
g1819
tp4938
F1061
s(VNo
g15
tp4939
F2
s(VMan
g6
tp4940
F5
s(Vlives
g59
tp4941
F2
s(Vbehind
g117
tp4942
F1
s(Vimployment
g6
tp4943
F1
s(g6
g323
tp4944
F6
s(V-such
g44
tp4945
F1
s(VCabals
g10
tp4946
F1
s(Vcurosity
g6
tp4947
F1
s(VMadam
g15
tp4948
F16
s(Vwou
g59
tp4949
F4
s(Vperfect
g44
tp4950
F2
s(Vadvance
g35
tp4951
F1
s(g886
g10
tp4952
F1
s(Vupbraid
g19
tp4953
F3
s(Vsullen
g24
tp4954
F1
s(Vfilling
g56
tp4955
F2
s(g19
g124
tp4956
F77
s(Vnumber
g617
tp4957
F1
s(VSex
g6
tp4958
F7
s(Vlastly
g35
tp4959
F2
s(VClasps
g15
tp4960
F1
s(g10
g886
tp4961
F2
s(V-repent
g19
tp4962
F1
s(g124
g521
tp4963
F49
s(Vnameless
g35
tp4964
F1
s(Vhelping
S'VBG'
p4965
tp4966
F1
s(VGather
g15
tp4967
F1
s(VTwo
S'CD'
p4968
tp4969
F2
s(Vshafts
g6
tp4970
F1
s(Vconsider
g29
tp4971
F3
s(VApartment
g15
tp4972
F5
s(Vaiming
g56
tp4973
F1
s(Vbetook
g19
tp4974
F1
s(Vasham
g44
tp4975
F1
s(Vdestin
g29
tp4976
F1
s(Vsurmounts
g59
tp4977
F1
s(VCurtains
g15
tp4978
F1
s(Vne
g19
tp4979
F1
s(Vabsence
g19
tp4980
F1
s(Vbelief
g6
tp4981
F2
s(Vdew
g6
tp4982
F1
s(Vimprecations
g59
tp4983
F1
s(VCoach
g15
tp4984
F5
s(VChevalier
g15
tp4985
F1
s(Vhaste
g6
tp4986
F18
s(g24
S')'
tp4987
F4
s(Vdivide
g19
tp4988
F1
s(Vindulgence
g6
tp4989
F1
s(Vtheir
g4322
tp4990
F45
s(Vpresents
g10
tp4991
F1
s(g865
g71
tp4992
F2
s(Vdesign
g29
tp4993
F6
s(g13
S':'
tp4994
F39
s(Vbegets
g59
tp4995
F1
s(g29
g81
tp4996
F2
s(Vbrings
g59
tp4997
F2
s(Vbeholders
g10
tp4998
F1
s(VDoctrine
g59
tp4999
F1
s(VParts
g10
tp5000
F1
s(Vassault
g6
tp5001
F2
s(Vincreasing
g56
tp5002
F1
s(Vhasting
g56
tp5003
F2
s(VMurder
g6
tp5004
F2
s(g689
g847
tp5005
F1
s(Vact
g6
tp5006
F1
s(Vcommitted
g24
tp5007
F4
s(g293
g76
tp5008
F1
s(Vswore
g29
tp5009
F1
s(VEpistles
g15
tp5010
F1
s(Vsweeter
g6
tp5011
F1
s(Vabodes
g10
tp5012
F1
s(Vdrawn
g24
tp5013
F1
s(Vthou
g73
tp5014
F2
s(g589
g1628
tp5015
F10
s(Vfalsely
g35
tp5016
F1
s(VRepetition
g15
tp5017
F1
s(g191
g1525
tp5018
F6
s(VHow
g120
tp5019
F1
s(VMistress
g15
tp5020
F8
s(Vbodies
g10
tp5021
F1
s(Vingagement
g6
tp5022
F2
s(Vindeed
S'RB'
p5023
tp5024
F10
s(g3143
g124
tp5025
F1
s(VAbout
g13
tp5026
F1
s(Vinstruct
g6
tp5027
F2
s(g63
g59
tp5028
F1
s(Vdarst
g6
tp5029
F1
s(VAbandon
g15
tp5030
F1
s(V-while
g44
tp5031
F1
s(Vpity
g29
tp5032
F1
s(VRaillery
g15
tp5033
F1
s(Vwoud'st
g10
tp5034
F1
s(g6
g293
tp5035
F262
s(Vdisplease
g19
tp5036
F1
s(Vrelenting
g6
tp5037
F1
s(Vprevent
g44
tp5038
F1
s(g383
g35
tp5039
F213
s(Vaffairs
S'NNS'
p5040
tp5041
F3
s(Vnoises
g10
tp5042
F1
s(Vnought
g24
tp5043
F1
s(Vlevity
g6
tp5044
F1
s(Vback
g19
tp5045
F3
s(VEarth
g15
tp5046
F5
s(Vinterview
S'NN'
p5047
tp5048
F1
s(V-in
g71
tp5049
F1
s(Vslavery
g6
tp5050
F1
s(Vt'other
g19
tp5051
F1
s(Vmixt
g44
tp5052
F1
s(Vsnowy
g44
tp5053
F1
s(VGo
g15
tp5054
F1
s(g10
g293
tp5055
F32
s(Vsure
g44
tp5056
F29
s(Vall-tempting
g6
tp5057
F1
s(VAwe
g15
tp5058
F1
s(Vonce
g35
tp5059
F13
s(Vseizing
g56
tp5060
F1
s(VTriumph
g15
tp5061
F1
s(g2100
S':'
tp5062
F444
s(Vheats
g10
tp5063
F1
s(Vdread
g29
tp5064
F1
s(Vrash
g44
tp5065
F1
s(Vshou'dst
g6
tp5066
F1
s(Vproduce
g29
tp5067
F1
s(Vmay
g3249
tp5068
F63
s(Vdesire
g29
tp5069
F1
s(g56
g293
tp5070
F26
s(g44
g10
tp5071
F331
s(Vmarries
g59
tp5072
F1
s(Vyield
g29
tp5073
F1
s(Vsorrow
g6
tp5074
F3
s(Vdouble
g44
tp5075
F2
s(VOrphan
g15
tp5076
F1
s(Vsuffer
g6
tp5077
F3
s(VDeity
g15
tp5078
F4
s(VAfter
S'IN'
p5079
tp5080
F3
s(VSons
g689
tp5081
F1
s(VPicture
g6
tp5082
F1
s(Vtime
S'NN'
p5083
tp5084
F32
s(V-or
g6
tp5085
F1
s(Vgain
g29
tp5086
F1
s(Vrace
S'NN'
p5087
tp5088
F6
s(Vluxurious
g44
tp5089
F2
s(VIdea
g6
tp5090
F1
s(VOfficer
g15
tp5091
F1
s(Vdiversions
g10
tp5092
F1
s(Vsubtile
g6
tp5093
F1
s(Vprecedents
g10
tp5094
F1
s(Vprepar
g44
tp5095
F1
s(g3321
g25
tp5096
F4
s(Varts
g10
tp5097
F5
s(Vshall
g2641
tp5098
F119
s(Veffect
S'NN'
p5099
tp5100
F2
s(g3928
g370
tp5101
F7
s(Vpossesses
g59
tp5102
F3
s(Vease
g19
tp5103
F4
s(Vye
g35
tp5104
F7
s(Vamongst
g35
tp5105
F1
s(VPardon
g29
tp5106
F1
s(g293
S')'
tp5107
F1
s(Vthin
g44
tp5108
F1
s(Vawfull
g44
tp5109
F1
s(VTomaso
g15
tp5110
F1
s(g1278
S','
tp5111
F48
s(Vgrac
g19
tp5112
F1
s(S','
g323
tp5113
F4
s(Vtrusts
g59
tp5114
F1
s(Vspare
g19
tp5115
F4
s(g24
g6
tp5116
F29
s(Vapprehension
g6
tp5117
F1
s(g1914
g29
tp5118
F13
s(Vsevere
g35
tp5119
F1
s(Vsigh
g29
tp5120
F3
s(V-take
g19
tp5121
F1
s(VMarried
g15
tp5122
F8
s(g293
g15
tp5123
F77
s(Vbeg
g6
tp5124
F1
s(Vstrove
g29
tp5125
F1
s(VCloud
g15
tp5126
F1
s(Vrigorous
g44
tp5127
F1
s(Vsoever
g71
tp5128
F1
s(Vsacrificing
g56
tp5129
F1
s(Vhot
g44
tp5130
F1
s(Vart
g29
tp5131
F3
s(Vdid'st
g44
tp5132
F1
s(g81
S'CD'
p5133
tp5134
F2
s(VCrown
g44
tp5135
F1
s(Vhush
g19
tp5136
F1
s(Vsooth
g73
tp5137
F1
s(VAdvocates
g10
tp5138
F1
s(Vvanish
g44
tp5139
F2
s(Vpunishment
g6
tp5140
F1
s(Vrated
g24
tp5141
F1
s(Vwake
g19
tp5142
F1
s(Vcontrive
g29
tp5143
F1
s(Vfold
g19
tp5144
F1
s(Vbow
g6
tp5145
F1
s(VLoad
g15
tp5146
F1
s(Vday
S'NN'
p5147
tp5148
F32
s(Vcarefull
g6
tp5149
F1
s(g126
g111
tp5150
F4
s(Vthy
g71
tp5151
F1
s(g71
S'.'
tp5152
F7
s(Ve
g29
tp5153
F2
s(Vnews
S'NN'
p5154
tp5155
F6
s(VLivery
g15
tp5156
F1
s(Vexactly
g35
tp5157
F3
s(Vliv
g6
tp5158
F1
s(VBox
g15
tp5159
F1
s(Vplung
g44
tp5160
F1
s(Vtraversing
g56
tp5161
F1
s(Vback
g117
tp5162
F3
s(Vsacrilegious
g44
tp5163
F1
s(Vanothers
g10
tp5164
F1
s(g3143
g293
tp5165
F2
s(Vrush
g6
tp5166
F1
s(Vriding
g56
tp5167
F1
s(Vgraver
g6
tp5168
F1
s(g323
S':'
tp5169
F3
s(V-Farewell
g35
tp5170
F1
s(Vthought
g24
tp5171
F4
s(g1765
g485
tp5172
F7
s(Vadmittance
g29
tp5173
F1
s(S'('
g126
tp5174
F5
s(Vloud
g44
tp5175
F3
s(Vstartled
g24
tp5176
F1
s(Vdevis
g6
tp5177
F1
s(Vdesign
g6
tp5178
F12
s(g90
S'.'
tp5179
F9
s(g886
g616
tp5180
F1
s(Vassignation
g6
tp5181
F2
s(g682
g6
tp5182
F1
s(Vfaith
g6
tp5183
F7
s(V-A
g19
tp5184
F1
s(Vtherefore
g6
tp5185
F1
s(Vcompass
g6
tp5186
F1
s(Vinvent
g19
tp5187
F1
s(g27
S':'
tp5188
F9
s(Vthey
S'PRP'
p5189
tp5190
F80
s(Vcertainty
g19
tp5191
F1
s(VEloquence
g6
tp5192
F1
s(VGraces
g10
tp5193
F1
s(Vthree
S'CD'
p5194
tp5195
F7
s(Vtowards
g10
tp5196
F5
s(Vadore
g29
tp5197
F3
s(Vfollow
g44
tp5198
F1
s(Vespouse
g29
tp5199
F1
s(VIntreaties
g15
tp5200
F1
s(Vwhispers
g10
tp5201
F3
s(VGlorious
g44
tp5202
F6
s(Vdrag
g29
tp5203
F1
s(Vwhene
g44
tp5204
F1
s(Vheard
g24
tp5205
F6
s(Vbetray
g29
tp5206
F1
s(Vlaugh
g19
tp5207
F1
s(Vador
g6
tp5208
F2
s(VFair
g15
tp5209
F1
s(Vled
g24
tp5210
F2
s(Vpleasant
g44
tp5211
F2
s(g485
S':'
tp5212
F11
s(Vbreathings
g10
tp5213
F1
s(g1573
g15
tp5214
F90
s(g19
g293
tp5215
F94
s(Vmisfortunes
g10
tp5216
F1
s(Vfir
g24
tp5217
F1
s(Vstraying
g56
tp5218
F1
s(Vproduc
g44
tp5219
F1
s(Valowd
g35
tp5220
F1
s(Vtyes
g10
tp5221
F1
s(VGhost
g15
tp5222
F1
s(Vobedience
g19
tp5223
F1
s(V-nay
g6
tp5224
F1
s(Vbelieves
S'VBZ'
p5225
tp5226
F1
s(Vsleep
g19
tp5227
F5
s(Vcry
g19
tp5228
F2
s(V-no
g19
tp5229
F1
s(Vrest
g6
tp5230
F6
s(Vadded
g24
tp5231
F1
s(VArrival
g15
tp5232
F1
s(Vpurchase
g19
tp5233
F1
s(Vassur
g35
tp5234
F1
s(Vdotes
g59
tp5235
F1
s(Vbetrays
g59
tp5236
F2
s(Vsent
g19
tp5237
F1
s(g29
g105
tp5238
F3
s(V-Not
g29
tp5239
F1
s(Vslender
g6
tp5240
F1
s(g15
g865
tp5241
F105
s(V-By
g73
tp5242
F1
s(Vhasts
g59
tp5243
F1
s(g19
S':'
tp5244
F64
s(Vdepriv
g44
tp5245
F2
s(Vtrouble
S'NN'
p5246
tp5247
F4
s(Vcou
g6
tp5248
F15
s(Vcompetent
g6
tp5249
F1
s(VEarth
g6
tp5250
F2
s(Vindifferent
g6
tp5251
F1
s(Vsuffering
g6
tp5252
F3
s(Vus
g3280
tp5253
F45
s(g485
S')'
tp5254
F2
s(g191
g5189
tp5255
F7
s(Vfamisht
g44
tp5256
F1
s(VDotage
g6
tp5257
F1
s(Vexpress
g44
tp5258
F1
s(Vunactive
g44
tp5259
F1
s(VEmpire
g6
tp5260
F1
s(VBlisses
g15
tp5261
F1
s(Vunwearied
g44
tp5262
F2
s(S'('
g1678
tp5263
F6
s(VYou
g2831
tp5264
F13
s(g27
g111
tp5265
F1
s(g865
g485
tp5266
F1
s(g126
g44
tp5267
F16
s(Vpaleness
g6
tp5268
F1
s(g29
g76
tp5269
F5
s(Vne
g71
tp5270
F1
s(Vbase
g44
tp5271
F2
s(Vpass
g6
tp5272
F5
s(Vdawne
g6
tp5273
F1
s(Vmingle
g19
tp5274
F1
s(Vstart
g29
tp5275
F1
s(Vplay
g29
tp5276
F3
s(Vvanisht
g6
tp5277
F1
s(Vdeform
g6
tp5278
F1
s(Vthou
g29
tp5279
F3
s(Vdrag
g6
tp5280
F1
s(Vdeluded
g71
tp5281
F2
s(VGame
g15
tp5282
F3
s(Vacceptable
g44
tp5283
F1
s(Vassignations
g10
tp5284
F1
s(g4139
g1678
tp5285
F60
s(Vview
g19
tp5286
F4
s(VThere
g935
tp5287
F3
s(Vfound
g19
tp5288
F2
s(VBrute
g15
tp5289
F1
s(VBirth
g15
tp5290
F2
s(Vpursu
g29
tp5291
F2
s(Vwait
g6
tp5292
F2
s(VConqueror.
g15
tp5293
F1
s(g15
g24
tp5294
F5
s(Vstoln
g44
tp5295
F1
s(Vventur
g29
tp5296
F1
s(Vruinous
g44
tp5297
F1
s(VAlexis
g15
tp5298
F11
s(Vexperiment
g6
tp5299
F1
s(Vpassionately
g35
tp5300
F1
s(Vunwarn
g44
tp5301
F2
s(Vplay
g19
tp5302
F4
s(Vdiverted
g24
tp5303
F2
s(Vmistaken
g24
tp5304
F5
s(Vself
g44
tp5305
F3
s(Veffort
S'NN'
p5306
tp5307
F1
s(Vhearts
g10
tp5308
F3
s(Vchild
g19
tp5309
F1
s(Vbefell
g19
tp5310
F1
s(Vangers
g10
tp5311
F1
s(g6
g1495
tp5312
F277
s(Vstaying
g56
tp5313
F1
s(Vbold
g44
tp5314
F3
s(Vbreath
g29
tp5315
F1
s(Vfear
g6
tp5316
F25
s(Vravishingly
g35
tp5317
F1
s(Vthemselves
S'PRP'
p5318
tp5319
F4
s(g140
g27
tp5320
F71
s(Vuseless
g44
tp5321
F1
s(Vforgive
g29
tp5322
F2
s(Vshady
g44
tp5323
F1
s(Vloading
g56
tp5324
F1
s(VWarrants
g10
tp5325
F1
s(VAnger
g15
tp5326
F1
s(Vinvective
g44
tp5327
F1
s(Vpreferr
g19
tp5328
F1
s(Vleave
g19
tp5329
F16
s(VLover
g19
tp5330
F1
s(Vbeneath
g19
tp5331
F2
s(Vshou
g44
tp5332
F5
s(Vplunge
g19
tp5333
F1
s(VWalks
g15
tp5334
F1
s(Vindustry
S'NN'
p5335
tp5336
F4
s(Vvast
g44
tp5337
F15
s(Vheight
g6
tp5338
F6
s(VVein
g15
tp5339
F2
s(Vraillery
g6
tp5340
F1
s(VDestiny
g15
tp5341
F1
s(g73
S','
tp5342
F5
s(Vobscurity
g6
tp5343
F1
s(VQueen
g15
tp5344
F1
s(Vwish
g44
tp5345
F6
s(Vpasses
g10
tp5346
F1
s(Vmiscalls
g59
tp5347
F1
s(Vpanting
g44
tp5348
F1
s(VCommands
g10
tp5349
F1
s(V-see
g29
tp5350
F1
s(Vfather
g6
tp5351
F1
s(Vapproach
g19
tp5352
F2
s(Vdo
g29
tp5353
F60
s(Vovercome
g117
tp5354
F1
s(Vprayers
g10
tp5355
F4
s(VHero
g15
tp5356
F6
s(Vdeck
g6
tp5357
F1
s(Vdaily
g35
tp5358
F1
s(Vmakes
g3035
tp5359
F15
s(Vjoys
g44
tp5360
F1
s(Vfiction
g6
tp5361
F1
s(VWheel
g15
tp5362
F1
s(Vsofter
g63
tp5363
F4
s(g29
g682
tp5364
F1
s(Vsuit
g6
tp5365
F1
s(Vsupported
g24
tp5366
F2
s(Vbrave
g24
tp5367
F1
s(V-'Twas
g19
tp5368
F1
s(Vobedience
g6
tp5369
F2
s(Vunderstands
g59
tp5370
F1
s(Vserenity
g6
tp5371
F1
s(g71
g370
tp5372
F8
s(Vresolv
g44
tp5373
F9
s(V-come
g19
tp5374
F1
s(Vlet
g19
tp5375
F77
s(VGrace
g15
tp5376
F1
s(VPardon
g15
tp5377
F4
s(Vunpardonable
g44
tp5378
F1
s(g293
g44
tp5379
F8
s(VMajestick
g15
tp5380
F1
s(Vslaves
g10
tp5381
F1
s(Vdoating
g44
tp5382
F1
s(Vmangled
g44
tp5383
F1
s(VCoaches
g15
tp5384
F1
s(Vbargain
g6
tp5385
F1
s(Vbetray
g6
tp5386
F11
s(Vset
g71
tp5387
F3
s(VThus
g35
tp5388
F7
s(Vfond
g6
tp5389
F35
s(Vwhether
S'IN'
p5390
tp5391
F10
s(Vseize
g6
tp5392
F1
s(g370
g3143
tp5393
F7
s(Vapprehends
g59
tp5394
F2
s(Vcheeks
g6
tp5395
F2
s(Vsurpast
g29
tp5396
F1
s(VSwear
g29
tp5397
F1
s(Vimpatiently
g35
tp5398
F2
s(Vindifferent
g44
tp5399
F4
s(Vclaim
g19
tp5400
F1
s(g19
g179
tp5401
F8
s(Vattacks
g10
tp5402
F1
s(VCreation
g15
tp5403
F1
s(g24
S'.'
tp5404
F9
s(Vmeeting
g6
tp5405
F1
s(Vservice
g19
tp5406
F1
s(Vly
g29
tp5407
F3
s(Vsave
g19
tp5408
F10
s(Vhorrour
g6
tp5409
F2
s(S','
g682
tp5410
F1
s(Vdefeated
g24
tp5411
F1
s(Vfast
g19
tp5412
F1
s(Vrising
g6
tp5413
F1
s(VTown
g15
tp5414
F6
s(Vvain
g6
tp5415
F17
s(Vresolved
g24
tp5416
F1
s(VTorment
g6
tp5417
F1
s(Vwrit
g29
tp5418
F2
s(VCountesses
g15
tp5419
F1
s(Vconceives
g59
tp5420
F1
s(g71
S'('
tp5421
F2
s(Vforgive
g19
tp5422
F2
s(Vcircumstantial
g44
tp5423
F1
s(Vmixing
g56
tp5424
F1
s(Vtalking
S'VBG'
p5425
tp5426
F2
s(Vunprepar
g44
tp5427
F1
s(g124
S':'
tp5428
F44
s(V-When
g6
tp5429
F1
s(VFire
g15
tp5430
F1
s(g29
g111
tp5431
F5
s(Vimagin
g44
tp5432
F1
s(Vforbid
g19
tp5433
F1
s(Vsacred
g44
tp5434
F18
s(Vless
g6
tp5435
F1
s(Vfurnish
g19
tp5436
F1
s(Vexcusing
g56
tp5437
F1
s(Vgrass
g6
tp5438
F1
s(Vafflicts
g59
tp5439
F1
s(Vfruitless
g6
tp5440
F1
s(Vsufferance
g6
tp5441
F1
s(VJilting
g56
tp5442
F1
s(Vtrembled
g71
tp5443
F1
s(VActions
g15
tp5444
F1
s(VEvenings
g15
tp5445
F1
s(Vsacred
g24
tp5446
F1
s(Vthrown
g6
tp5447
F1
s(Vrelate
g19
tp5448
F1
s(V-Damn
g19
tp5449
F1
s(Vtwo
S'CD'
p5450
tp5451
F12
s(Vreceive
g29
tp5452
F4
s(Vfortunate
g6
tp5453
F1
s(Vpretious
g44
tp5454
F3
s(Vemploy
g29
tp5455
F1
s(g10
g29
tp5456
F85
s(g15
g6
tp5457
F181
s(V-spoke
g71
tp5458
F1
s(VPursue
g19
tp5459
F1
s(Vdismist
g19
tp5460
F1
s(Vthickest
g191
tp5461
F1
s(Vdoubtfull
g44
tp5462
F1
s(Vimportant
S'JJ'
p5463
tp5464
F1
s(Vfierce
g44
tp5465
F1
s(Vangry
g44
tp5466
F9
s(VWill
g124
tp5467
F1
s(Vswear
g29
tp5468
F15
s(Vfreedoms
g10
tp5469
F1
s(Vsmell
g6
tp5470
F1
s(Vgrow
g44
tp5471
F1
s(g124
S')'
tp5472
F5
s(Vvertue
g6
tp5473
F6
s(g650
g6
tp5474
F1182
s(g117
g650
tp5475
F24
s(g323
g27
tp5476
F5
s(Vneck
g6
tp5477
F2
s(Vdishonest
g191
tp5478
F1
s(Vwhispering
g56
tp5479
F2
s(Vmethought
g71
tp5480
F1
s(VMadness
g15
tp5481
F6
s(Vprov
g44
tp5482
F1
s(Vbewitching
g6
tp5483
F3
s(g4314
g117
tp5484
F1
s(g6
S','
tp5485
F1215
s(Vdamnation
g6
tp5486
F1
s(Vquitting
g56
tp5487
F3
s(VBillet
g15
tp5488
F2
s(VLetters
g10
tp5489
F7
s(Vthere.
g29
tp5490
F1
s(Vsaying
g56
tp5491
F1
s(Vworth
g44
tp5492
F4
s(g71
g19
tp5493
F10
s(Vfree
g44
tp5494
F2
s(VGrandure
g15
tp5495
F1
s(Vblack
S'JJ'
p5496
tp5497
F2
s(g71
g650
tp5498
F127
s(Vslow-pac
g44
tp5499
F1
s(S':'
g29
tp5500
F32
s(Vswifter
g6
tp5501
F1
s(g35
S','
tp5502
F252
s(Vconduct
g19
tp5503
F4
s(Vreverend
g19
tp5504
F1
s(Vextraordinary
S'JJ'
p5505
tp5506
F1
s(Vproper
g44
tp5507
F2
s(VLove
g15
tp5508
F165
s(Vme
g2744
tp5509
F617
s(Vwanting
g56
tp5510
F1
s(g44
S','
tp5511
F245
s(VPrince
g15
tp5512
F6
s(Vundone
g76
tp5513
F1
s(S'.'
S':'
tp5514
F17
s(Vtruest
g191
tp5515
F1
s(V-go
g6
tp5516
F1
s(Vmurmuring
g56
tp5517
F2
s(Vcontriv
g6
tp5518
F1
s(Vsteals
g10
tp5519
F1
s(VDemon
g15
tp5520
F1
s(Vexpos
g44
tp5521
F4
s(V-for
g73
tp5522
F1
s(VMischief
g15
tp5523
F1
s(VWigg
g15
tp5524
F1
s(Vdraw
g29
tp5525
F1
s(Vaid
g6
tp5526
F5
s(Vexpire
g19
tp5527
F1
s(V-but
g44
tp5528
F3
s(Vborn
g19
tp5529
F3
s(Vgivest
g191
tp5530
F1
s(Vkeeps
g142
tp5531
F1
s(V-But
g6
tp5532
F5
s(Vinstructions
g10
tp5533
F1
s(g10
g1393
tp5534
F11
s(Vno
g90
tp5535
F209
s(Vthink'st
g6
tp5536
F2
s(g682
S','
tp5537
F2
s(VWith
S'IN'
p5538
tp5539
F1
s(VLorships
g15
tp5540
F1
s(Vmercy
g6
tp5541
F6
s(VLordships
g15
tp5542
F2
s(Vmet
g24
tp5543
F3
s(g111
g71
tp5544
F31
s(g24
g293
tp5545
F47
s(Vear
g6
tp5546
F1
s(Vlanguish
g44
tp5547
F3
s(Vthere
g25
tp5548
F54
s(V-he
g29
tp5549
F1
s(Vafford
g19
tp5550
F2
s(Vvalued
g44
tp5551
F1
s(Vlov
g19
tp5552
F1
s(VFather
g6
tp5553
F3
s(S','
g152
tp5554
F36
s(Vabroad
S'RB'
p5555
tp5556
F4
s(Vdispence
g19
tp5557
F3
s(Vcry
g59
tp5558
F2
s(VDream
g15
tp5559
F1
s(VBesides
g13
tp5560
F1
s(Vfright
g6
tp5561
F3
s(V-To
g44
tp5562
F1
s(Vdate
S'NN'
p5563
tp5564
F3
s(Vbehold
g19
tp5565
F5
s(Vhither
g35
tp5566
F1
s(Vfold
g6
tp5567
F1
s(Vsight
g24
tp5568
F2
s(Vself
g59
tp5569
F1
s(Vsubmit
g6
tp5570
F1
s(Vundefended
g44
tp5571
F1
s(Vfalse
g44
tp5572
F36
s(Vsubstantial
S'JJ'
p5573
tp5574
F2
s(Vshou
g19
tp5575
F4
s(Vill
g19
tp5576
F2
s(Vvisibly
g35
tp5577
F1
s(Vreceiv
g24
tp5578
F1
s(g1176
g81
tp5579
F19
s(Vsober
g6
tp5580
F1
s(Vgive
g29
tp5581
F3
s(VClubs
g15
tp5582
F1
s(Vpassionate
g44
tp5583
F2
s(VFrench
g44
tp5584
F3
s(Vunadorn
g29
tp5585
F1
s(Vveins
g10
tp5586
F1
s(Vothers
S'NNS'
p5587
tp5588
F7
s(Vhardned
g24
tp5589
F2
s(Vbed
g6
tp5590
F4
s(Vnights
g10
tp5591
F3
s(Vrav
g29
tp5592
F1
s(g857
g191
tp5593
F2
s(Vwoud'st
g6
tp5594
F2
s(Vshouldst
g6
tp5595
F1
s(S':'
g111
tp5596
F32
s(Vclumsey
g6
tp5597
F1
s(Vtatter
g6
tp5598
F1
s(V'd
g6
tp5599
F27
s(g111
g19
tp5600
F1
s(Vbleeding
g56
tp5601
F4
s(VThieves
g15
tp5602
F1
s(Vstrike
g6
tp5603
F1
s(g29
g650
tp5604
F151
s(Vdismist
g6
tp5605
F1
s(Vrecommended
g71
tp5606
F1
s(Vdear
g19
tp5607
F3
s(Vreach
g19
tp5608
F2
s(Vnicest
g191
tp5609
F1
s(Vreceiv
g19
tp5610
F1
s(VHours
g15
tp5611
F1
s(g140
g44
tp5612
F193
s(V't
g715
tp5613
F4
s(VTale
g15
tp5614
F1
s(V't
g19
tp5615
F1
s(VTake
g19
tp5616
F3
s(Vsighings
g10
tp5617
F1
s(VSnatcht
g15
tp5618
F1
s(Vcircling
g56
tp5619
F1
s(Vevening
g6
tp5620
F2
s(g886
g44
tp5621
F8
s(VWheels
g15
tp5622
F1
s(Vcure
g6
tp5623
F2
s(Vfair
g6
tp5624
F3
s(Vthee
g6
tp5625
F118
s(g56
g370
tp5626
F3
s(Vrude
g44
tp5627
F2
s(Vinterpret
g29
tp5628
F1
s(Vslavish
g44
tp5629
F1
s(VPriests
g10
tp5630
F1
s(Vimpart
g19
tp5631
F1
s(Vtast
g25
tp5632
F1
s(Vhaunts
g10
tp5633
F1
s(VWrit
g29
tp5634
F1
s(Vforc
g6
tp5635
F1
s(VCause
g6
tp5636
F1
s(Vordering
g56
tp5637
F1
s(Vpray
g19
tp5638
F2
s(Vhorrid
g6
tp5639
F1
s(Vfits
g59
tp5640
F1
s(g59
g19
tp5641
F6
s(Vfoppish
g44
tp5642
F1
s(Vlook
g73
tp5643
F1
s(Vhappiness
g6
tp5644
F13
s(Vvain
g29
tp5645
F1
s(g191
g29
tp5646
F1
s(VMurmering
g15
tp5647
F1
s(VBalls
g15
tp5648
F1
s(V-My
g19
tp5649
F1
s(Vyear
S'NN'
p5650
tp5651
F1
s(Vdie
g29
tp5652
F1
s(VRape
g6
tp5653
F2
s(Vinterrupted
g44
tp5654
F2
s(Vhush
g6
tp5655
F1
s(VRobbery
g15
tp5656
F1
s(Vmist
g6
tp5657
F1
s(VStrawberries
g689
tp5658
F2
s(V-know
g44
tp5659
F1
s(Vbank
S'NN'
p5660
tp5661
F2
s(Vyou
g383
tp5662
F514
s(VBosom
g15
tp5663
F5
s(g682
g44
tp5664
F34
s(VPlate
g15
tp5665
F1
s(Vaffectionate
g44
tp5666
F1
s(Vjudges
S'NNS'
p5667
tp5668
F2
s(g485
g56
tp5669
F5
s(Vbegin
g19
tp5670
F1
s(Vthat
g13
tp5671
F283
s(Voh
g19
tp5672
F3
s(Vwisht
g59
tp5673
F1
s(Vaud
g6
tp5674
F1
s(S','
g59
tp5675
F50
s(Vproceeding
g56
tp5676
F1
s(Vmonths
S'NNS'
p5677
tp5678
F3
s(V-Ha
g6
tp5679
F1
s(Vform
g35
tp5680
F1
s(Vheld
g24
tp5681
F3
s(g152
S','
tp5682
F3
s(g650
g191
tp5683
F50
s(Vripen
g44
tp5684
F1
s(Vwritten
S'VBN'
p5685
tp5686
F1
s(Vpursue
g19
tp5687
F7
s(Vrefusing
g56
tp5688
F1
s(Vrequest
g6
tp5689
F1
s(Vblushes
g10
tp5690
F5
s(Vpossibly
g35
tp5691
F6
s(Vlewd
g59
tp5692
F1
s(Vgrave
g6
tp5693
F4
s(V't
g76
tp5694
F12
s(Vsingle
S'JJ'
p5695
tp5696
F6
s(Vthee
g24
tp5697
F3
s(Vforgetfull
g6
tp5698
F1
s(Veve
g6
tp5699
F1
s(Vcheck
g19
tp5700
F1
s(Vbeat
g6
tp5701
F1
s(Vwary
g44
tp5702
F1
s(Vconvicted
g24
tp5703
F1
s(V-Oh
g73
tp5704
F1
s(Vdespise
g6
tp5705
F1
s(Vadorer
g6
tp5706
F1
s(Vmelting
g56
tp5707
F1
s(Vregarded
g71
tp5708
F1
s(Vsurprize
g6
tp5709
F2
s(Vgrain
g6
tp5710
F2
s(g71
g140
tp5711
F10
s(Vdear
g29
tp5712
F1
s(Vuses
g59
tp5713
F1
s(Vbreak
g6
tp5714
F1
s(Vperfidious
g44
tp5715
F4
s(V-I
g71
tp5716
F1
s(Vah
g44
tp5717
F1
s(Vwrongs
g10
tp5718
F1
s(Vdelivering
g56
tp5719
F1
s(Vencourag
g44
tp5720
F1
s(VThou
g15
tp5721
F2
s(Vearnest
g191
tp5722
F1
s(Vrevengefull
g19
tp5723
F1
s(VHands
g10
tp5724
F3
s(Vlike
g29
tp5725
F1
s(VImpatient
g44
tp5726
F1
s(Vcalmes
g59
tp5727
F1
s(VTable-book
g15
tp5728
F1
s(V-but
g19
tp5729
F2
s(VTomb
g15
tp5730
F1
s(VEternal
g15
tp5731
F2
s(VTyranny
g15
tp5732
F1
s(VAttractions
g15
tp5733
F1
s(g15
g81
tp5734
F27
s(Vnautious
g44
tp5735
F1
s(Vremov
g44
tp5736
F1
s(VConsider
g19
tp5737
F4
s(Vobjects
g10
tp5738
F4
s(Vkiss
g44
tp5739
F2
s(Veither
g19
tp5740
F2
s(Vtis
g6
tp5741
F1
s(VFreedoms
g15
tp5742
F1
s(Vn't
S'RB'
p5743
tp5744
F5
s(Vstrike
g19
tp5745
F2
s(g44
g1685
tp5746
F116
s(Vleft
g71
tp5747
F16
s(Vhid
g6
tp5748
F1
s(Vtrusty
g44
tp5749
F1
s(Vvain
g35
tp5750
F2
s(Vweight
g6
tp5751
F3
s(Vsit
g6
tp5752
F1
s(Vhorror
g6
tp5753
F1
s(Vappointed
g44
tp5754
F2
s(Vprinciples
g10
tp5755
F2
s(VSot
g15
tp5756
F1
s(Vdoating
g56
tp5757
F1
s(g117
g27
tp5758
F4
s(Vjoyfull
g6
tp5759
F2
s(Vshou
g73
tp5760
F1
s(Vstarting
g6
tp5761
F1
s(Vhitherto
g24
tp5762
F1
s(Vthrew
g71
tp5763
F4
s(Vattended
g24
tp5764
F2
s(Vruffled
g71
tp5765
F1
s(Vshou
g29
tp5766
F23
s(g4968
g10
tp5767
F18
s(Vbefore
g35
tp5768
F3
s(VPen
g15
tp5769
F2
s(Vdispatch
g19
tp5770
F1
s(Vcontribute
g29
tp5771
F1
s(Vsalute
g6
tp5772
F1
s(g15
g10
tp5773
F37
s(Vfinding
g56
tp5774
F2
s(Vreproaching
g56
tp5775
F1
s(Vhastens
g10
tp5776
F1
s(Vresolve
g6
tp5777
F4
s(VTongue
g6
tp5778
F2
s(Vkill
g24
tp5779
F2
s(Vlease
g6
tp5780
F1
s(Vshort
g44
tp5781
F6
s(Vdarkness
g6
tp5782
F2
s(VPrinces
g10
tp5783
F1
s(VVertue
g15
tp5784
F13
s(V-she
g44
tp5785
F1
s(Vbegin
g29
tp5786
F1
s(VFuries
g10
tp5787
F1
s(Vfolly
g35
tp5788
F2
s(Vallow
g29
tp5789
F1
s(Vchance
S'NN'
p5790
tp5791
F6
s(S','
g140
tp5792
F1041
s(VVows
g10
tp5793
F7
s(Vclos
g24
tp5794
F1
s(Vcondition
g6
tp5795
F3
s(g111
g56
tp5796
F7
s(VHell
g15
tp5797
F5
s(Vdrest
g191
tp5798
F3
s(Vconsequently
g35
tp5799
F1
s(Vperjur
g24
tp5800
F2
s(g120
g383
tp5801
F114
s(g10
g191
tp5802
F1
s(Vcircle
g29
tp5803
F1
s(VLeaves
g15
tp5804
F1
s(VTory
g15
tp5805
F1
s(Vo'reflow
g13
tp5806
F1
s(Vforsworn
g6
tp5807
F1
s(Vtortur
g6
tp5808
F1
s(Vwound
g6
tp5809
F1
s(VVassals
g10
tp5810
F1
s(Vstalk
g6
tp5811
F1
s(Vsomething
S'NN'
p5812
tp5813
F18
s(Vjoy
g29
tp5814
F1
s(VSacred
g15
tp5815
F2
s(Vmayst
g6
tp5816
F1
s(Vnotion
g6
tp5817
F1
s(Vimbrace
g6
tp5818
F5
s(VLute
g15
tp5819
F1
s(g111
g133
tp5820
F3
s(Vbefallen
g6
tp5821
F1
s(V-thou
g44
tp5822
F1
s(Vrelief
g6
tp5823
F2
s(VBrother
g15
tp5824
F34
s(Vanswering
g56
tp5825
F1
s(VMourner
g15
tp5826
F1
s(V!
S'.'
tp5827
F237
s(V't
g865
tp5828
F1
s(Vfurther
g44
tp5829
F1
s(Vdivine
g6
tp5830
F6
s(Vwrite
g35
tp5831
F1
s(Vmorning
S'NN'
p5832
tp5833
F10
s(Vobey
g44
tp5834
F1
s(g682
g133
tp5835
F1
s(Vboldly
g35
tp5836
F1
s(Vpromiscuously
g35
tp5837
F1
s(Vhigh
g44
tp5838
F2
s(Vhave
g29
tp5839
F172
s(Vchang
g71
tp5840
F1
s(VAfternoon
g15
tp5841
F1
s(Vhalf
g6
tp5842
F2
s(Vfall
g29
tp5843
F4
s(Vprest
g6
tp5844
F1
s(Vbabler
g6
tp5845
F1
s(Vhears
g59
tp5846
F1
s(Vmutual
S'JJ'
p5847
tp5848
F4
s(Vappeas
g44
tp5849
F1
s(Vfolly
g6
tp5850
F2
s(Vwhile
g13
tp5851
F44
s(Vfitted
g24
tp5852
F1
s(Vpressure
g6
tp5853
F1
s(g191
g90
tp5854
F3
s(g117
g56
tp5855
F1
s(VCottages
g15
tp5856
F2
s(VDoom
g6
tp5857
F1
s(Vpurse
g6
tp5858
F1
s(Vfound
g24
tp5859
F11
s(Vmeeting
g56
tp5860
F2
s(Vsense
g6
tp5861
F26
s(Vwaited
g71
tp5862
F6
s(Vuncommon
g44
tp5863
F1
s(Vprevent
g19
tp5864
F6
s(S'('
g81
tp5865
F6
s(Vrender
g6
tp5866
F4
s(V-yet
g35
tp5867
F3
s(VBirds
g10
tp5868
F1
s(VWoods
g10
tp5869
F1
s(Vmine
g24
tp5870
F1
s(Vfind
g29
tp5871
F12
s(Vlanguishes
g59
tp5872
F1
s(S'('
g111
tp5873
F2
s(g17
g81
tp5874
F24
s(Vaid
g44
tp5875
F1
s(VHistory
g15
tp5876
F2
s(VDelight
g15
tp5877
F1
s(Vknowst
g19
tp5878
F1
s(g27
g24
tp5879
F5
s(Vapproacht
g29
tp5880
F1
s(Vaccident
g6
tp5881
F6
s(Vobligations
g10
tp5882
F2
s(Vweakness
S'NN'
p5883
tp5884
F6
s(g886
g15
tp5885
F3
s(Vevils
g59
tp5886
F1
s(Vsurpriz
g24
tp5887
F1
s(Vtransported
g24
tp5888
F1
s(S':'
g293
tp5889
F17
s(Vwarm
g44
tp5890
F4
s(VWednesday
S'NNP'
p5891
tp5892
F2
s(VSweet-heart
g15
tp5893
F1
s(Vthat
g81
tp5894
F171
s(Vunhappiness
g6
tp5895
F1
s(Veager
g6
tp5896
F2
s(Vcaress
g6
tp5897
F1
s(Vpowers
g10
tp5898
F7
s(Vpleasure
g6
tp5899
F17
s(Vsafe
g44
tp5900
F10
s(VNeither
g73
tp5901
F1
s(Vair
g6
tp5902
F5
s(VLoyal
g15
tp5903
F1
s(Vafford
g13
tp5904
F1
s(g865
g293
tp5905
F2
s(Vfickle
g6
tp5906
F1
s(VThat
g13
tp5907
F1
s(g4314
g383
tp5908
F23
s(Vexcus
g24
tp5909
F1
s(g19
S')'
tp5910
F6
s(g865
g56
tp5911
F4
s(Vjoys
g10
tp5912
F13
s(VIndecency
g15
tp5913
F1
s(Vfirst
g35
tp5914
F7
s(g15
g208
tp5915
F10
s(VArgument
g15
tp5916
F1
s(Vwhistler
g19
tp5917
F1
s(Vdeny
g6
tp5918
F1
s(Vfalse
g6
tp5919
F1
s(VRival
g44
tp5920
F3
s(g56
S'.'
tp5921
F3
s(Vcontributes
g59
tp5922
F1
s(VLovely
g44
tp5923
F2
s(Vjoy
g19
tp5924
F1
s(g120
g1573
tp5925
F7
s(Vprevail
g6
tp5926
F1
s(Vpleading
g56
tp5927
F1
s(g153
g24
tp5928
F111
s(Vyours
g19
tp5929
F3
s(VFauxburgh
g15
tp5930
F1
s(Vhonest
g29
tp5931
F1
s(Vquickly
S'RB'
p5932
tp5933
F7
s(g13
g152
tp5934
F4
s(Vthank
g71
tp5935
F1
s(Vinward
g35
tp5936
F1
s(Vawaken
g24
tp5937
F1
s(VKnaves
g10
tp5938
F1
s(Vperson
g89
tp5939
F5
s(V-curse
g19
tp5940
F1
s(Vruine
g29
tp5941
F2
s(Vcou'd.
g29
tp5942
F1
s(VQuality
g6
tp5943
F2
s(VPaths
g15
tp5944
F1
s(Vunkind
g6
tp5945
F2
s(Vprest
g29
tp5946
F2
s(Vhapned
g24
tp5947
F1
s(V-For
g44
tp5948
F2
s(VGratitude
g15
tp5949
F1
s(Vpensive
g44
tp5950
F1
s(Vduller
g6
tp5951
F5
s(Vgenerosity
g6
tp5952
F2
s(Voh
g71
tp5953
F1
s(Vimagin
g29
tp5954
F4
s(Vplays
g59
tp5955
F1
s(V-thus
g35
tp5956
F1
s(Vunhappily
g35
tp5957
F1
s(Vshades
g10
tp5958
F10
s(Vdiscoveries
g10
tp5959
F1
s(Vtoyl
g19
tp5960
F1
s(Vconsummate
g19
tp5961
F1
s(V-by
g19
tp5962
F1
s(Vretir
g44
tp5963
F4
s(Vrepeated
g44
tp5964
F1
s(Vapt
g44
tp5965
F1
s(Vsin
g6
tp5966
F12
s(VTrophees
g15
tp5967
F1
s(Vdo't
g6
tp5968
F1
s(Vo'recome
g24
tp5969
F1
s(Vhalf
g370
tp5970
F2
s(Vbless
g19
tp5971
F4
s(VIllustrious
g15
tp5972
F1
s(g323
g44
tp5973
F21
s(Vclasping
g6
tp5974
F1
s(Vsearch
g6
tp5975
F2
s(VDevinity
g15
tp5976
F1
s(Vcustome
g19
tp5977
F1
s(Vpassed
g71
tp5978
F1
s(Vamongst
g44
tp5979
F2
s(Vbreeds
g10
tp5980
F1
s(Vanswer
g29
tp5981
F2
s(VSister
g6
tp5982
F3
s(VCharmer
g15
tp5983
F11
s(Vfamily
S'NN'
p5984
tp5985
F1
s(VMaster
g15
tp5986
F3
s(Vcold
g44
tp5987
F16
s(Vtransporting
g56
tp5988
F1
s(Vargument
g6
tp5989
F4
s(VSir
S'NNP'
p5990
tp5991
F7
s(Vbestow
g6
tp5992
F1
s(VMiracles
g15
tp5993
F1
s(Vface
g29
tp5994
F2
s(S':'
g19
tp5995
F163
s(Vseveral
S'JJ'
p5996
tp5997
F2
s(Vprecious
g44
tp5998
F1
s(Vbesides
g13
tp5999
F5
s(Vanother
S'DT'
p6000
tp6001
F15
s(Vwhither
g35
tp6002
F3
s(Vturn
g6
tp6003
F5
s(VWriting
g56
tp6004
F1
s(Vfaint
g29
tp6005
F7
s(VModesty
g15
tp6006
F3
s(Vblest
g35
tp6007
F2
s(Vflesh
g44
tp6008
F1
s(Vfansie
g29
tp6009
F1
s(g35
g323
tp6010
F22
s(Vlooking
S'VBG'
p6011
tp6012
F7
s(V-yet
g29
tp6013
F1
s(Vfrantick
g6
tp6014
F1
s(g1723
g4822
tp6015
F15
s(VDeath
g6
tp6016
F2
s(Vlets
g59
tp6017
F1
s(Vwaitest
g19
tp6018
F1
s(VEducation
g6
tp6019
F1
s(g56
S','
tp6020
F20
s(Vslightest
g29
tp6021
F1
s(VRuffl
g15
tp6022
F1
s(VCuriosity
g15
tp6023
F2
s(Vunimployed
g44
tp6024
F1
s(V-the
g44
tp6025
F1
s(VWhen
S'WRB'
p6026
tp6027
F4
s(VPleasures
g15
tp6028
F1
s(Vtortur
g44
tp6029
F1
s(V-if
g6
tp6030
F1
s(Vweapon
g6
tp6031
F1
s(Vresist
g19
tp6032
F2
s(Vinfidelity
g6
tp6033
F1
s(V't
g6
tp6034
F19
s(Vunpress
g44
tp6035
F1
s(S','
g126
tp6036
F63
s(Vconflicts
g10
tp6037
F2
s(VThetis
g19
tp6038
F1
s(Vtoiles
g10
tp6039
F2
s(Vperceiving
g56
tp6040
F1
s(Vliving
g56
tp6041
F1
s(Vsince
S'IN'
p6042
tp6043
F45
s(Voffers
g59
tp6044
F1
s(Vknot
g6
tp6045
F1
s(Vhot-brain
g6
tp6046
F1
s(Vpoverty
g6
tp6047
F1
s(Vsurveying
g56
tp6048
F2
s(Vpeaceable
g44
tp6049
F1
s(Vwitness
g44
tp6050
F2
s(Vdiscourse
g6
tp6051
F1
s(Vneed
g24
tp6052
F1
s(VMoney
g15
tp6053
F1
s(Vseiz
g6
tp6054
F1
s(Vspoyls
g6
tp6055
F1
s(Veternal
g19
tp6056
F1
s(Vperforming
g56
tp6057
F1
s(g715
g2563
tp6058
F225
s(VCharms
g15
tp6059
F13
s(g76
g15
tp6060
F7
s(g19
g1819
tp6061
F210
s(Vsealing
g56
tp6062
F1
s(VSword
g6
tp6063
F1
s(Vfault
g6
tp6064
F6
s(g15
g15
tp6065
F164
s(VKinsman
g15
tp6066
F1
s(Vroughly
S'RB'
p6067
tp6068
F1
s(Vfifty
g44
tp6069
F1
s(Vrudely
g35
tp6070
F1
s(V-'twas
g44
tp6071
F1
s(V-but
g13
tp6072
F1
s(Vev'n
g6
tp6073
F1
s(VTen
g76
tp6074
F3
s(S'CD'
p6075
g1678
tp6076
F7
s(Vinfectious
g44
tp6077
F1
s(VLaughter
g15
tp6078
F1
s(Vcurious
g44
tp6079
F1
s(Vresistance
g6
tp6080
F4
s(Vravish
g19
tp6081
F1
s(Vmankind
g6
tp6082
F1
s(Vhaving
g377
tp6083
F8
s(Vrelieves
g10
tp6084
F1
s(Vimployed
g44
tp6085
F1
s(VWedding
g15
tp6086
F1
s(VAdorable
g44
tp6087
F9
s(Vvoice
g6
tp6088
F13
s(Vlessen
g6
tp6089
F1
s(Vwheel
g6
tp6090
F1
s(Vreadily
g35
tp6091
F1
s(Vincens
g44
tp6092
F1
s(VVows
g15
tp6093
F14
s(g6
g24
tp6094
F21
s(g10
g323
tp6095
F1
s(Vmistaken
g19
tp6096
F1
s(Vnegligent
g6
tp6097
F1
s(VNo
g126
tp6098
F6
s(VPistols
g15
tp6099
F1
s(Vreceiv
g29
tp6100
F4
s(Vunable
g44
tp6101
F5
s(g10
g63
tp6102
F1
s(VLeaves
g10
tp6103
F1
s(g63
g1525
tp6104
F2
s(VProstitute
g6
tp6105
F1
s(Vrouz
g6
tp6106
F1
s(Vloud
g19
tp6107
F1
s(Vnearer
g6
tp6108
F1
s(VSoul
g15
tp6109
F77
s(Vfarther
g63
tp6110
F2
s(g27
g13
tp6111
F6
s(Vsets
g10
tp6112
F1
s(Vheart
g1223
tp6113
F85
s(VRage
g15
tp6114
F1
s(Vmeant
g29
tp6115
F1
s(VLast
S'JJ'
p6116
tp6117
F1
s(VBeguiler
g15
tp6118
F1
s(Vwearying
g56
tp6119
F1
s(V-Brilljard
g15
tp6120
F1
s(Vrouse
g19
tp6121
F1
s(VTreasure
g6
tp6122
F1
s(VCommand
g15
tp6123
F1
s(Vdangerous
g44
tp6124
F6
s(Vinsinuate
g19
tp6125
F1
s(VFarm
g6
tp6126
F5
s(Vfortified
g24
tp6127
F1
s(Vdelaying
g56
tp6128
F1
s(Vshot
g6
tp6129
F1
s(Vwon
g71
tp6130
F1
s(Vexposes
g59
tp6131
F1
s(Vlift
g19
tp6132
F1
s(VWitchcraft
g15
tp6133
F1
s(Venvying
g56
tp6134
F1
s(Vhasten
g19
tp6135
F1
s(Voaths
g10
tp6136
F2
s(VPerjur
g15
tp6137
F1
s(V-Ah
g6
tp6138
F1
s(g516
g81
tp6139
F23
s(Vfainting
g56
tp6140
F2
s(Vhangs
g10
tp6141
F1
s(Vappointment
g6
tp6142
F1
s(Vfold
g71
tp6143
F1
s(Vawak
g59
tp6144
F1
s(VForty
g15
tp6145
F1
s(VTitles
g15
tp6146
F2
s(VJewels
g15
tp6147
F1
s(V'd
g152
tp6148
F6
s(VGod-like
g44
tp6149
F1
s(Vnative
g44
tp6150
F4
s(Vyields
g10
tp6151
F5
s(Vinform
g44
tp6152
F1
s(g59
g124
tp6153
F38
s(Vleudly
g35
tp6154
F1
s(Vtir
g19
tp6155
F3
s(Vfrenzy
g323
tp6156
F1
s(Vshoud'st
g73
tp6157
F1
s(Vhotter
g6
tp6158
F1
s(Vself
g71
tp6159
F5
s(g142
S','
tp6160
F1
s(Vdecline
g6
tp6161
F1
s(Vbyas
g6
tp6162
F1
s(Vcontrive
g44
tp6163
F2
s(VFountains
g15
tp6164
F1
s(Vbar
g6
tp6165
F1
s(Va-day
g44
tp6166
F1
s(VCrowded
g15
tp6167
F1
s(Vcharmes
g10
tp6168
F1
s(Vheight
g71
tp6169
F1
s(Vhid
g24
tp6170
F1
s(Vreveng
g44
tp6171
F1
s(g76
g59
tp6172
F16
s(VSound
g6
tp6173
F1
s(Vflowing
g56
tp6174
F1
s(Vseeking
S'VBG'
p6175
tp6176
F1
s(Vtempting
g56
tp6177
F3
s(Vdream
g6
tp6178
F2
s(Vpityous
g44
tp6179
F1
s(Vdeluding
g56
tp6180
F1
s(S':'
g81
tp6181
F16
s(g689
S','
tp6182
F7
s(Vundeny
g44
tp6183
F1
s(Vfearless
g44
tp6184
F1
s(V-remember
g19
tp6185
F5
s(Vo'recome
g142
tp6186
F1
s(Vgrow
g19
tp6187
F8
s(Vhide
g35
tp6188
F1
s(Vhurt
g29
tp6189
F1
s(Virresistable
g44
tp6190
F1
s(Vshow
g19
tp6191
F1
s(Vevery
g4836
tp6192
F82
s(VLoves
g15
tp6193
F1
s(VTen
g15
tp6194
F3
s(VNature
g6
tp6195
F2
s(Vcircumstances
S'NNS'
p6196
tp6197
F6
s(g293
g13
tp6198
F4
s(Vyet
g35
tp6199
F79
s(Vdeceive
g19
tp6200
F1
s(VDorillus
g19
tp6201
F1
s(Vwedding
g6
tp6202
F2
s(Vfresh
g44
tp6203
F3
s(g126
g29
tp6204
F1
s(g111
S','
tp6205
F7
s(g6
S')'
tp6206
F27
s(Vunthinking
g6
tp6207
F1
s(g25
g44
tp6208
F2
s(Vresist
g44
tp6209
F1
s(g383
g1701
tp6210
F11
s(Vcry
g71
tp6211
F1
s(Vthou
g44
tp6212
F59
s(VStrawbery
g15
tp6213
F1
s(Vfern
g6
tp6214
F1
s(Vfatal
g6
tp6215
F1
s(Vgazing
g56
tp6216
F2
s(VHypocrite
g15
tp6217
F1
s(Vdye
g29
tp6218
F2
s(Vbuild
g19
tp6219
F2
s(Vfalse
g35
tp6220
F3
s(Vgain
g6
tp6221
F5
s(Vnotions
g10
tp6222
F1
s(Vlooks
g10
tp6223
F7
s(g191
g24
tp6224
F1
s(Vruin
g6
tp6225
F3
s(VGlory
g15
tp6226
F12
s(Vbreak
g19
tp6227
F5
s(Vgenerously
g35
tp6228
F2
s(Vretrieve
g19
tp6229
F1
s(VVow
g15
tp6230
F5
s(VMurder
g19
tp6231
F1
s(Vsuffocate
g29
tp6232
F1
s(VHorse
g15
tp6233
F2
s(VArguments
g10
tp6234
F4
s(VCocettre
g15
tp6235
F1
s(Voppose
g29
tp6236
F1
s(VNight
g24
tp6237
F1
s(VAction
g15
tp6238
F1
s(Vabandon
g6
tp6239
F1
s(Vmarry
g6
tp6240
F2
s(VCannace
g15
tp6241
F1
s(Vlanguish
g6
tp6242
F1
s(Vtempting
g6
tp6243
F1
s(Vraptures
g10
tp6244
F1
s(Vsoft
g71
tp6245
F1
s(Vpanting
g6
tp6246
F2
s(g10
S':'
tp6247
F96
s(Vpass
g24
tp6248
F1
s(V-adieu.
g142
tp6249
F1
s(Vpinion
g6
tp6250
F1
s(g682
g19
tp6251
F1
s(Vsilence
g19
tp6252
F2
s(Vadmiring
g56
tp6253
F1
s(Vtroublesome
g44
tp6254
F2
s(Vguess
g19
tp6255
F6
s(V-When
g13
tp6256
F1
s(g126
S'.'
tp6257
F12
s(VPoppy
g15
tp6258
F1
s(Vstand
g19
tp6259
F6
s(Vsoftness
g19
tp6260
F1
s(Vtryal
g6
tp6261
F1
s(Vgrows
g10
tp6262
F1
s(Vvery
g35
tp6263
F20
s(Vinsue
g19
tp6264
F1
s(VFeaver
g15
tp6265
F1
s(g482
g29
tp6266
F4
s(Vhast
g44
tp6267
F5
s(Vfulsome
g44
tp6268
F1
s(Vears
g10
tp6269
F1
s(Vgo.
g19
tp6270
F1
s(Vcommands
g10
tp6271
F10
s(VApetite
g15
tp6272
F1
s(Vwelcome
g44
tp6273
F4
s(Vshine
g6
tp6274
F1
s(VSpeaking
g15
tp6275
F1
s(Vretreat
g29
tp6276
F1
s(Vmortal
g6
tp6277
F1
s(Vinclined
g44
tp6278
F1
s(Vinstead
S'RB'
p6279
tp6280
F2
s(g117
g35
tp6281
F4
s(VShou
g15
tp6282
F1
s(VPray
g19
tp6283
F1
s(Vhidden
g44
tp6284
F1
s(Vamazement
g6
tp6285
F1
s(VCermonious
g15
tp6286
F1
s(Vsubtil
g44
tp6287
F2
s(Vsent
g6
tp6288
F1
s(Vailes
g10
tp6289
F1
s(Vcurse
g19
tp6290
F3
s(Vatchiev
g44
tp6291
F1
s(Vcooling
g56
tp6292
F1
s(g133
g293
tp6293
F32
s(Vforgetting
g56
tp6294
F2
s(S'CC'
p6295
g124
tp6296
F64
s(Vgentle
g44
tp6297
F2
s(Vout
g13
tp6298
F16
s(VGownmen
g15
tp6299
F1
s(VJudge
S'NNP'
p6300
tp6301
F1
s(Vparted
g71
tp6302
F3
s(Vclose
g44
tp6303
F3
s(Vdictates
g10
tp6304
F3
s(Vreign
g6
tp6305
F1
s(VGood
g15
tp6306
F1
s(Vkills
g59
tp6307
F1
s(Vnecessity
g6
tp6308
F1
s(Vblest
g6
tp6309
F1
s(VNoble
g44
tp6310
F4
s(Vsurprize
g19
tp6311
F1
s(Vseiz
g44
tp6312
F3
s(Vself
g715
tp6313
F17
s(Vasked
g71
tp6314
F1
s(Vlot
g6
tp6315
F1
s(Vready
g44
tp6316
F9
s(Vutter
g44
tp6317
F3
s(Vwheree'er
g6
tp6318
F1
s(Vvanity
g6
tp6319
F6
s(Vturn
g29
tp6320
F5
s(Vtry
g19
tp6321
F4
s(VCourage
g19
tp6322
F1
s(Vrarely
g35
tp6323
F3
s(Vdishonour
g44
tp6324
F1
s(Vswear
g44
tp6325
F2
s(VCharms
g10
tp6326
F5
s(VTask
g15
tp6327
F1
s(Vhast
g19
tp6328
F2
s(VCoward
g6
tp6329
F1
s(Vwait
g19
tp6330
F10
s(Vthrowing
g56
tp6331
F1
s(Vblessed
g44
tp6332
F3
s(Vshowing
g56
tp6333
F1
s(Vrapid
g44
tp6334
F1
s(Vwert
g44
tp6335
F1
s(VLetters
g15
tp6336
F6
s(g17
g63
tp6337
F9
s(Vfo
g6
tp6338
F1
s(Vcourage
g6
tp6339
F11
s(g762
g15
tp6340
F386
s(Vunexperienc
g44
tp6341
F1
s(Vadorations
g10
tp6342
F1
s(Vmurtherer
g6
tp6343
F1
s(VBlood
g15
tp6344
F4
s(Vends
g59
tp6345
F1
s(Vrich
g19
tp6346
F1
s(Vamusement
g6
tp6347
F1
s(Vnew-wean
g44
tp6348
F1
s(Vreflecting
S'VBG'
p6349
tp6350
F1
s(Vheir
g6
tp6351
F1
s(Vadvantageous
g44
tp6352
F1
s(Vsuffice
g19
tp6353
F6
s(VOh
g126
tp6354
F66
s(Vpitifull
g6
tp6355
F1
s(Vcalm
g35
tp6356
F1
s(Venter
g44
tp6357
F1
s(Vcouple
g6
tp6358
F1
s(Vconfess
g29
tp6359
F10
s(Vplead
g19
tp6360
F4
s(Vforgot
g24
tp6361
F1
s(Vpersues
g10
tp6362
F1
s(Vraue
g29
tp6363
F1
s(V-to
g19
tp6364
F1
s(V'twixt
g865
tp6365
F2
s(g25
g153
tp6366
F4
s(Vsounds
g10
tp6367
F1
s(Vemploy
g44
tp6368
F2
s(Vpoorly
g35
tp6369
F4
s(Vsigh't
g6
tp6370
F1
s(S')'
g10
tp6371
F2
s(Vcabal
g19
tp6372
F1
s(Vretire
g6
tp6373
F2
s(Vrepeat
g19
tp6374
F2
s(Vcharge
g19
tp6375
F2
s(VWhat
S'WP'
p6376
tp6377
F23
s(Vsuccesless
g19
tp6378
F1
s(VClouds
g15
tp6379
F1
s(g59
g111
tp6380
F3
s(Vloving
g6
tp6381
F3
s(g2620
g293
tp6382
F21
s(Vhasty
g44
tp6383
F4
s(VCharm
g15
tp6384
F1
s(Vcertainly
S'RB'
p6385
tp6386
F5
s(Vgrasp
g44
tp6387
F1
s(Vshun
g44
tp6388
F2
s(VBruits
g15
tp6389
F1
s(Vscorn
g29
tp6390
F1
s(Vtill
g6
tp6391
F11
s(Vthou
g19
tp6392
F15
s(Vdivided
g24
tp6393
F1
s(Vimpos
g44
tp6394
F1
s(g191
g735
tp6395
F5
s(VMatrimony
g15
tp6396
F1
s(Vfound
g29
tp6397
F1
s(Vimpose
g44
tp6398
F1
s(g90
g521
tp6399
F69
s(Vwounding
g56
tp6400
F2
s(Vloath
g44
tp6401
F2
s(Vreturns
g10
tp6402
F1
s(g140
g650
tp6403
F188
s(S','
g1495
tp6404
F40
s(g140
g825
tp6405
F164
s(Vnewblown
g44
tp6406
F1
s(Vgraft
g19
tp6407
F1
s(Vdesart
g19
tp6408
F1
s(VGrasp
g15
tp6409
F1
s(Vrevenge
g19
tp6410
F6
s(Vunadvisedly
g35
tp6411
F1
s(Vlewd
g44
tp6412
F1
s(VGoldsmith
g15
tp6413
F1
s(Vceremonies
g10
tp6414
F1
s(Vunresistable
g44
tp6415
F2
s(Vprinciple
g6
tp6416
F1
s(Vbauk
g29
tp6417
F1
s(VLove-sick
g15
tp6418
F2
s(VLover
g15
tp6419
F34
s(Vtill
g19
tp6420
F18
s(Vtame
g44
tp6421
F3
s(g323
g1819
tp6422
F8
s(Vlanguishment
g6
tp6423
F3
s(Vanxious
g44
tp6424
F2
s(g865
g140
tp6425
F15
s(Vsenseless
g44
tp6426
F1
s(Vdown
g35
tp6427
F6
s(g10
g3249
tp6428
F22
s(Vbelieve
g44
tp6429
F1
s(VSavages
g15
tp6430
F1
s(Vunbrave
g44
tp6431
F1
s(Vdisguises
g10
tp6432
F1
s(VAntonio
g15
tp6433
F1
s(Vdy
g19
tp6434
F16
s(g4314
g71
tp6435
F23
s(Vpast
g44
tp6436
F10
s(g1604
g25
tp6437
F7
s(VPut
g19
tp6438
F1
s(Vproffer
g6
tp6439
F1
s(S')'
g6
tp6440
F9
s(Vranging
g56
tp6441
F1
s(Vhottest
g191
tp6442
F1
s(VAmours
g15
tp6443
F1
s(Vgot
g24
tp6444
F1
s(Vbold
g24
tp6445
F1
s(Vingage
g19
tp6446
F2
s(Vvalue
S'NN'
p6447
tp6448
F10
s(Vsearch
g19
tp6449
F2
s(Vcold
g24
tp6450
F1
s(Vequal
g44
tp6451
F6
s(g715
g90
tp6452
F78
s(Vdistributing
g56
tp6453
F1
s(VMessenger
g15
tp6454
F1
s(VTools
g10
tp6455
F1
s(Vthicket
g6
tp6456
F1
s(Vdrove
g71
tp6457
F2
s(VLeague
g15
tp6458
F3
s(Vinjure
g19
tp6459
F2
s(Vfit
g29
tp6460
F2
s(Vown
g19
tp6461
F11
s(g15
g63
tp6462
F1
s(Vcorrupt
g19
tp6463
F1
s(g81
g59
tp6464
F79
s(Vshadow
g24
tp6465
F1
s(Vspoke
g24
tp6466
F1
s(S','
g44
tp6467
F181
s(Vmessengers
g10
tp6468
F1
s(Vdegrees
g59
tp6469
F1
s(Vaddress
g19
tp6470
F1
s(Vunregarded
g44
tp6471
F5
s(VOak
g15
tp6472
F3
s(VMarket
g6
tp6473
F1
s(Vterrour
g6
tp6474
F1
s(Vevent
S'NN'
p6475
tp6476
F1
s(Vloath
g6
tp6477
F3
s(Vconsents
g10
tp6478
F1
s(g25
g714
tp6479
F2
s(Vunperceiv
g29
tp6480
F1
s(Vhides
g10
tp6481
F1
s(Vconceited
g24
tp6482
F1
s(VHands
g59
tp6483
F1
s(Vwant
g19
tp6484
F1
s(Vstubborn
g44
tp6485
F3
s(Vcrowd
g6
tp6486
F1
s(Vrested
g71
tp6487
F1
s(VDay
g15
tp6488
F1
s(Vdispos
g19
tp6489
F1
s(Vtill
g44
tp6490
F2
s(Veffectually
g35
tp6491
F1
s(S','
S'('
tp6492
F21
s(g293
g56
tp6493
F3
s(VLonging
g15
tp6494
F1
s(Vsoftest
g191
tp6495
F4
s(Vdismal
g44
tp6496
F1
s(Vsay'st
g29
tp6497
F1
s(Vpresence
S'NN'
p6498
tp6499
F6
s(VBetray
g13
tp6500
F1
s(Vthousand
g76
tp6501
F11
s(g59
g63
tp6502
F10
s(Vdisappointed
g71
tp6503
F1
s(VKey
g15
tp6504
F2
s(VShepherd
g15
tp6505
F1
s(g117
g899
tp6506
F3
s(Vtaken
g482
tp6507
F16
s(Vwrit
g6
tp6508
F4
s(Vrendred
g71
tp6509
F4
s(Vinconsistent
g6
tp6510
F1
s(Vhere
S'RB'
p6511
tp6512
F31
s(VMistriss
g15
tp6513
F1
s(VYouthful
g44
tp6514
F1
s(Vfavour
g6
tp6515
F5
s(Vfatigue
g6
tp6516
F1
s(Vtie
g19
tp6517
F2
s(Vneglect
g6
tp6518
F3
s(Vdangers
g10
tp6519
F1
s(VMy
g27
tp6520
F15
s(g126
g589
tp6521
F13
s(Vone
g76
tp6522
F74
s(VHusband
g6
tp6523
F1
s(VLoves-secrets
g10
tp6524
F1
s(Vprattle
g6
tp6525
F2
s(Vaffords
g10
tp6526
F1
s(Vbreeds
g59
tp6527
F1
s(Vopposite
g44
tp6528
F1
s(Vfor't
g6
tp6529
F2
s(g6
g152
tp6530
F3
s(Vdestructive
g44
tp6531
F6
s(Vfeebler
g6
tp6532
F2
s(VNero
g15
tp6533
F1
s(g35
g650
tp6534
F97
s(Vsending
g56
tp6535
F1
s(Vfaithfull
g44
tp6536
F1
s(Vburst
g19
tp6537
F1
s(V-a
g19
tp6538
F1
s(g142
g2367
tp6539
F3
s(Verrour
g6
tp6540
F3
s(Vwrecking
g56
tp6541
F1
s(Vvertue
g24
tp6542
F1
s(Vcarcass
g6
tp6543
F1
s(Vhell
g6
tp6544
F1
s(VServant
g15
tp6545
F2
s(Vfaithless
g6
tp6546
F8
s(Vsunk
g24
tp6547
F1
s(VRival
g19
tp6548
F1
s(VFamily
g15
tp6549
F3
s(Vdecrees
g59
tp6550
F1
s(V)
S')'
tp6551
F105
s(Vblood
g6
tp6552
F10
s(Vwild
g44
tp6553
F10
s(Vrestores
g59
tp6554
F1
s(Vcozening
g56
tp6555
F1
s(Vmean
g44
tp6556
F3
s(VOaths
g15
tp6557
F3
s(VComb-box
g15
tp6558
F1
s(Vkneeling
g56
tp6559
F1
s(Vindecent
g44
tp6560
F1
s(Vpen
g44
tp6561
F1
s(g323
g10
tp6562
F1
s(Vsee
g6
tp6563
F3
s(g105
g35
tp6564
F28
s(Vimplor
g6
tp6565
F1
s(Vincouragement
g6
tp6566
F1
s(Vcharm
g59
tp6567
F1
s(Vrepose
g29
tp6568
F1
s(g293
g521
tp6569
F108
s(Vsucceed
S'VB'
p6570
tp6571
F1
s(Vits
g27
tp6572
F28
s(Vdefended
g71
tp6573
F1
s(Vexamined
g24
tp6574
F1
s(Vdurst
g44
tp6575
F2
s(VPromethian
g44
tp6576
F1
s(Vthou
g25
tp6577
F8
s(VChild
g44
tp6578
F1
s(Veyes
g10
tp6579
F36
s(Vundone
g6
tp6580
F9
s(VRivers
g15
tp6581
F1
s(g191
g17
tp6582
F19
s(Vheave
g29
tp6583
F1
s(g15
g124
tp6584
F74
s(Vcredit
S'NN'
p6585
tp6586
F3
s(Vflashes
g59
tp6587
F1
s(Vtransitory
g6
tp6588
F1
s(Vgratitude
g6
tp6589
F3
s(Vsake
g29
tp6590
F2
s(Vkindled
g24
tp6591
F1
s(Vblind
g19
tp6592
F1
s(VFriend
g6
tp6593
F1
s(VSobriety
g15
tp6594
F1
s(Vread
g19
tp6595
F6
s(Vgrave
g44
tp6596
F2
s(Vbrute
g6
tp6597
F1
s(VDreams
g15
tp6598
F1
s(Vador
g19
tp6599
F1
s(VConscience
g15
tp6600
F1
s(VCriminal
g15
tp6601
F1
s(Vexample
S'NN'
p6602
tp6603
F2
s(Vhasted
g71
tp6604
F1
s(Vposterity
g6
tp6605
F2
s(S'('
g140
tp6606
F7
s(Vrecover
g6
tp6607
F1
s(Vfly
g6
tp6608
F4
s(Vsuccour
g6
tp6609
F1
s(Vwilt
g6
tp6610
F3
s(Vtherefore
g19
tp6611
F1
s(V-what
g81
tp6612
F1
s(Vuse
g19
tp6613
F1
s(Vchamber
g6
tp6614
F2
s(Vopens
g10
tp6615
F1
s(VCouncellor
g15
tp6616
F2
s(Vunloving
g44
tp6617
F1
s(Vblemish
g6
tp6618
F1
s(Vhead
g19
tp6619
F1
s(g1278
g191
tp6620
F23
s(VDorinda
g15
tp6621
F2
s(Vaway
g35
tp6622
F33
s(g521
g10
tp6623
F218
s(Vupon
g19
tp6624
F4
s(g650
g689
tp6625
F6
s(Vunder
S'IN'
p6626
tp6627
F8
s(Vgetting
S'VBG'
p6628
tp6629
F1
s(Vafflict
g19
tp6630
F2
s(g35
g71
tp6631
F79
s(Vamends
g10
tp6632
F1
s(Vwonders
g10
tp6633
F3
s(V-turn
g29
tp6634
F1
s(Vundoing
g44
tp6635
F5
s(Vdirections
g10
tp6636
F1
s(Vawake
g19
tp6637
F1
s(Vbroke
g71
tp6638
F7
s(VNobler
g15
tp6639
F1
s(Vhinted
g24
tp6640
F1
s(V'd
g73
tp6641
F1
s(Vdesigns
g10
tp6642
F1
s(Vglittering
g6
tp6643
F1
s(Vsmil
g19
tp6644
F1
s(g5450
g71
tp6645
F6
s(Vconceive
g44
tp6646
F1
s(VAlexis
g19
tp6647
F1
s(g24
S','
tp6648
F84
s(VBeauty
g15
tp6649
F21
s(VMertilla
g15
tp6650
F32
s(VCares
g15
tp6651
F1
s(Vespecially
S'RB'
p6652
tp6653
F2
s(V-you
g44
tp6654
F2
s(Vtranquility
g6
tp6655
F1
s(Vcried
g29
tp6656
F1
s(g1685
g482
tp6657
F16
s(Vmadness
g6
tp6658
F3
s(Vgaz
g24
tp6659
F1
s(Vseeing
g56
tp6660
F7
s(Vlate
g44
tp6661
F6
s(Vappointed
g24
tp6662
F1
s(Vdiscover
g29
tp6663
F3
s(Vpossest
g44
tp6664
F1
s(g825
S'('
tp6665
F8
s(Vblown
g24
tp6666
F1
s(Vlightning
g6
tp6667
F1
s(g140
g10
tp6668
F80
s(Vdye
g19
tp6669
F1
s(Vlying
g56
tp6670
F1
s(Vknows
g10
tp6671
F3
s(Vinclining
g56
tp6672
F2
s(VTorism
g15
tp6673
F1
s(S','
g208
tp6674
F84
s(Vso
g35
tp6675
F235
s(Vfrighted
g71
tp6676
F1
s(Vfright
g71
tp6677
F2
s(Vrude
g6
tp6678
F2
s(Vdisdain
g6
tp6679
F3
s(Vchose
g71
tp6680
F1
s(Vcritical
S'JJ'
p6681
tp6682
F1
s(VVillain
g15
tp6683
F1
s(Vcourtship
g6
tp6684
F1
s(Vbusie
g19
tp6685
F1
s(Vspyes
g10
tp6686
F1
s(g323
g56
tp6687
F1
s(Vbelongs
g59
tp6688
F1
s(V-I
g10
tp6689
F1
s(Vdefence.
g6
tp6690
F1
s(Vfinishes
g59
tp6691
F1
s(Vtrembling
g6
tp6692
F7
s(Vstep
g6
tp6693
F1
s(Veager
g44
tp6694
F7
s(Vseiz
g59
tp6695
F2
s(Vdoing
g2464
tp6696
F1
s(Vlock
g44
tp6697
F1
s(Vrecourse
g24
tp6698
F1
s(Vimpatient
g44
tp6699
F7
s(VThicket
g15
tp6700
F3
s(g24
g15
tp6701
F14
s(VLaws
g15
tp6702
F3
s(Vevidences
g10
tp6703
F1
s(V-as
g6
tp6704
F1
s(Vfarther
g715
tp6705
F1
s(Vthou
g13
tp6706
F3
s(Vunnatural
g44
tp6707
F3
s(V-Could
g59
tp6708
F1
s(Vcareless
g6
tp6709
F2
s(Vgraceful
g44
tp6710
F1
s(VBasket
g15
tp6711
F7
s(Vuse
g29
tp6712
F1
s(g191
S':'
tp6713
F2
s(g111
g293
tp6714
F4
s(Vply
g24
tp6715
F1
s(Vinfernal
g44
tp6716
F1
s(Vwoman
S'NN'
p6717
tp6718
F2
s(g1292
g10
tp6719
F6
s(Varound
g35
tp6720
F1
s(Vador
g44
tp6721
F1
s(Vtoys
g6
tp6722
F1
s(Vbosome
g44
tp6723
F1
s(Vdamp
g19
tp6724
F1
s(Vvow
g6
tp6725
F2
s(Vnonsense
g6
tp6726
F5
s(VFetters
g10
tp6727
F1
s(Vshoud'st
g6
tp6728
F2
s(Vinto
S'IN'
p6729
tp6730
F58
s(g126
g90
tp6731
F1
s(Vbitter
g44
tp6732
F1
s(g6
g865
tp6733
F59
s(Vpast
g59
tp6734
F1
s(Vpains
g10
tp6735
F3
s(Vimpossible
g44
tp6736
F7
s(Vpleas
g44
tp6737
F7
s(g589
g847
tp6738
F17
s(Vlaugh
g13
tp6739
F1
s(VWorld
g15
tp6740
F9
s(Vcredited
g24
tp6741
F1
s(g56
g81
tp6742
F1
s(VSpirits
g15
tp6743
F1
s(VGreat
g15
tp6744
F1
s(Vsentiments
g10
tp6745
F1
s(Vreading
g56
tp6746
F2
s(Vwitholds
g10
tp6747
F1
s(VAnd
g6295
tp6748
F9
s(Vdropt
g29
tp6749
F1
s(Varrested
g24
tp6750
F1
s(Vconfusedly
g35
tp6751
F1
s(Vplaying
g44
tp6752
F1
s(VApartment
g6
tp6753
F4
s(Vtrembling
g56
tp6754
F14
s(VMile
g15
tp6755
F1
s(Vmurmur
g59
tp6756
F1
s(g59
g117
tp6757
F1
s(g715
S':'
tp6758
F122
s(Vimage
S'NN'
p6759
tp6760
F2
s(S')'
g25
tp6761
F2
s(g485
g191
tp6762
F3
s(VRoses
g15
tp6763
F2
s(Vwriting
g6
tp6764
F1
s(VDorilus
g19
tp6765
F1
s(g19
g19
tp6766
F18
s(V-Alas
g10
tp6767
F1
s(Vravish
g44
tp6768
F2
s(S')'
g485
tp6769
F4
s(V-to
g81
tp6770
F2
s(g111
g152
tp6771
F1
s(g81
g44
tp6772
F6
s(Vfight
g19
tp6773
F2
s(Vuntune
g19
tp6774
F1
s(V-is
g44
tp6775
F1
s(Vtruly
g35
tp6776
F2
s(Vdecrepid
g44
tp6777
F1
s(Vharsh
g44
tp6778
F1
s(VDivine
g15
tp6779
F6
s(g105
S':'
tp6780
F4
s(g15
S')'
tp6781
F17
s(Vsoonest
g19
tp6782
F1
s(Vcatching
g6
tp6783
F1
s(Vfired
g71
tp6784
F1
s(Vdivert
g19
tp6785
F5
s(g140
S'('
tp6786
F1
s(Vheat
g6
tp6787
F3
s(Vround
g19
tp6788
F3
s(Vfansied
g71
tp6789
F3
s(Vputting
S'VBG'
p6790
tp6791
F1
s(Vhopeful
g44
tp6792
F1
s(VLady
g15
tp6793
F9
s(Vvow
g29
tp6794
F1
s(VBoys
g15
tp6795
F1
s(Vconsiderations
g10
tp6796
F3
s(Veasie
g35
tp6797
F1
s(VRavishing
g56
tp6798
F3
s(Vlest
g35
tp6799
F1
s(g2422
g56
tp6800
F6
s(Vpace
S'NN'
p6801
tp6802
F2
s(VMen
g15
tp6803
F2
s(V-No
g44
tp6804
F1
s(Vadmirable
g44
tp6805
F1
s(Vtaring
g56
tp6806
F1
s(VLanguishing
g15
tp6807
F4
s(Vnear
g13
tp6808
F16
s(Vunjustly
g35
tp6809
F1
s(VMaist
g15
tp6810
F1
s(Vstab
g71
tp6811
F1
s(g714
g682
tp6812
F1
s(Vnauseated
g44
tp6813
F1
s(Venchanted
g24
tp6814
F1
s(Vsurpris
g44
tp6815
F1
s(Vprevention
g6
tp6816
F1
s(Vplacing
g56
tp6817
F1
s(Vmyself
g715
tp6818
F1
s(Vsupport
g29
tp6819
F1
s(VInstruments
g10
tp6820
F1
s(g44
g25
tp6821
F1
s(Vquit
g19
tp6822
F6
s(Vtore
g35
tp6823
F1
s(VYes
g126
tp6824
F4
s(V-the
g71
tp6825
F1
s(Vpresage
g19
tp6826
F1
s(VLaw
g15
tp6827
F3
s(Vinflam
g6
tp6828
F1
s(Vingaging
g6
tp6829
F1
s(Vliv
g19
tp6830
F1
s(Vfrail
g44
tp6831
F2
s(VGay
g15
tp6832
F1
s(Vfond
g44
tp6833
F8
s(Vreturning
g56
tp6834
F2
s(VAdventure
g15
tp6835
F1
s(VVision
g15
tp6836
F1
s(Vutterance
g6
tp6837
F1
s(VDefend
g19
tp6838
F1
s(VSacrifice
g15
tp6839
F1
s(Vtouch
g29
tp6840
F2
s(Vmethinks
g10
tp6841
F6
s(VLoving
g56
tp6842
F1
s(Vmanage
g19
tp6843
F1
s(VFlocks
g15
tp6844
F1
s(Vart
g59
tp6845
F1
s(Vrefused
g71
tp6846
F1
s(g63
g383
tp6847
F5
s(Vwounds
g10
tp6848
F4
s(g825
g4650
tp6849
F374
s(Vthee
g63
tp6850
F1
s(g383
g111
tp6851
F7
s(g63
g650
tp6852
F2
s(Vdissembles
g10
tp6853
F1
s(g1573
g35
tp6854
F28
s(Vdevice
g6
tp6855
F1
s(Vbeliev
g6
tp6856
F1
s(Vah
g6
tp6857
F2
s(Villustrious
g44
tp6858
F2
s(VThink
g6
tp6859
F1
s(Vodious
g44
tp6860
F1
s(Vunfortunate
g19
tp6861
F1
s(Vthither
g73
tp6862
F1
s(Vfalls
g59
tp6863
F1
s(Vwonder
g29
tp6864
F3
s(Vharden
g44
tp6865
F2
s(Vcalling
S'VBG'
p6866
tp6867
F2
s(Vamongst
g6
tp6868
F1
s(Vmultitude
g6
tp6869
F1
s(Vnoble
g44
tp6870
F15
s(Vinlarges
g59
tp6871
F1
s(Vout-rival
g44
tp6872
F1
s(Vmighty
g19
tp6873
F1
s(Vto't
g6
tp6874
F1
s(VOthella
g15
tp6875
F1
s(g689
g15
tp6876
F2
s(S':'
g120
tp6877
F23
s(g15
g29
tp6878
F31
s(Vfarther
g6
tp6879
F3
s(Vfaithless
g35
tp6880
F1
s(Vcomplexion
g6
tp6881
F1
s(Vcried
g24
tp6882
F1
s(Vreap
g44
tp6883
F1
s(Vmonstrous
g44
tp6884
F2
s(Vcharm
g6
tp6885
F7
s(Vlife
S'NN'
p6886
tp6887
F51
s(Vsanctuary
g44
tp6888
F1
s(Vchain
S'NN'
p6889
tp6890
F1
s(Vsacrifice
g6
tp6891
F7
s(VMistress
g19
tp6892
F1
s(Vpeevish
g44
tp6893
F2
s(Vfalling
g2089
tp6894
F4
s(Vpainted
g44
tp6895
F1
s(Vgirl
g6
tp6896
F1
s(VMarius
g15
tp6897
F1
s(VMossy
g15
tp6898
F1
s(Vthreats
g10
tp6899
F1
s(S'('
g76
tp6900
F1
s(g76
g2856
tp6901
F4
s(Vconsideration
g6
tp6902
F1
s(Vtremble
g44
tp6903
F1
s(g44
g179
tp6904
F25
s(Vwalk
g29
tp6905
F3
s(Vgently
g35
tp6906
F1
s(Vkist
g19
tp6907
F2
s(VDullness
g15
tp6908
F1
s(g24
g1819
tp6909
F146
s(Vunnecessarily
g35
tp6910
F1
s(Vthy
g19
tp6911
F13
s(Vdrain
g6
tp6912
F1
s(Vleads
g59
tp6913
F3
s(g370
g81
tp6914
F1
s(VSilvia
g44
tp6915
F1
s(g1495
g19
tp6916
F728
s(g4314
g1678
tp6917
F10
s(VCan
g124
tp6918
F2
s(Vkiss
g29
tp6919
F2
s(S')'
g140
tp6920
F11
s(Vwhispers
g59
tp6921
F1
s(Vshade
g6
tp6922
F2
s(Vrapture
g6
tp6923
F2
s(Vcom'st
g6
tp6924
F1
s(Voffence
g6
tp6925
F1
s(g35
g56
tp6926
F42
s(Vflatterer
g6
tp6927
F4
s(Vcou
g19
tp6928
F1
s(Vreasonings
g10
tp6929
F1
s(Vvain
g19
tp6930
F1
s(VPage
g6
tp6931
F7
s(g323
g124
tp6932
F1
s(Vjustly
g35
tp6933
F1
s(V-
S':'
tp6934
F67
s(Vheard
g71
tp6935
F5
s(Vabhorrence
g6
tp6936
F1
s(VPowers
g10
tp6937
F4
s(Vfac
g6
tp6938
F1
s(VCaesario
g15
tp6939
F2
s(g120
g762
tp6940
F14
s(S':'
g17
tp6941
F155
s(V-Be
g44
tp6942
F2
s(Vobscure
g19
tp6943
F1
s(VChariot
g15
tp6944
F19
s(Vdishonour
g6
tp6945
F2
s(Vbatteries
g10
tp6946
F1
s(Vtenderest
g191
tp6947
F2
s(Vmethods
g10
tp6948
F1
s(Vgrieve
g19
tp6949
F2
s(Vwrong
g44
tp6950
F2
s(Vforce
g6
tp6951
F11
s(Vbedewing
g56
tp6952
F1
s(Vone
g6
tp6953
F4
s(Vfright
g19
tp6954
F2
s(g3310
g293
tp6955
F24
s(Vsurprise
g19
tp6956
F1
s(Vjealous
g44
tp6957
F12
s(VPrise
g15
tp6958
F1
s(Vremove
g19
tp6959
F4
s(Vsimple
g44
tp6960
F1
s(Vknows
g59
tp6961
F14
s(Vbetimes
g10
tp6962
F1
s(Vgaining
g56
tp6963
F1
s(VMelinda
g6
tp6964
F3
s(VNative
g15
tp6965
F1
s(g24
g44
tp6966
F26
s(Vinrag
g6
tp6967
F1
s(V'till
g29
tp6968
F1
s(Vperching
g6
tp6969
F1
s(g558
S'('
tp6970
F7
s(Vcarry
g44
tp6971
F1
s(Vcommanding
g6
tp6972
F1
s(Vhate
g6
tp6973
F3
s(Vall
g90
tp6974
F297
s(Vconversation
g6
tp6975
F3
s(Vneglected
g24
tp6976
F3
s(g117
S'.'
tp6977
F1
s(Vspread
g19
tp6978
F1
s(Vaddition
S'NN'
p6979
tp6980
F4
s(Vfletch't
g6
tp6981
F1
s(Vexpect
g29
tp6982
F3
s(Vwander
g6
tp6983
F1
s(Vcarries
S'VBZ'
p6984
tp6985
F2
s(Vsuggest
g19
tp6986
F1
s(VValour
g15
tp6987
F1
s(V\u005c
g15
tp6988
F19
s(Vpressings
g10
tp6989
F1
s(VPorcellane
g15
tp6990
F1
s(Vuncertainly
g35
tp6991
F1
s(Vabove
g13
tp6992
F9
s(Vtread
g19
tp6993
F1
s(Vexpress
g29
tp6994
F1
s(Vdevotion
g6
tp6995
F2
s(Vtormenting
g56
tp6996
F2
s(Vbloud
g6
tp6997
F1
s(VParents
g689
tp6998
F4
s(Vview
g29
tp6999
F3
s(VNay
g6
tp7000
F1
s(VMarried
g24
tp7001
F2
s(g6
g117
tp7002
F2
s(Venterview
g6
tp7003
F1
s(Vundrest
g191
tp7004
F3
s(g29
g19
tp7005
F11
s(Vfill
g24
tp7006
F1
s(Vtry
g59
tp7007
F1
s(Vdear
g44
tp7008
F89
s(Vexcellent
g6
tp7009
F2
s(Vruminating
g56
tp7010
F1
s(Vdemonstration
g6
tp7011
F1
s(Vthou
g59
tp7012
F6
s(VEven
g35
tp7013
F1
s(Vunbecoming
g56
tp7014
F1
s(Vtenderness
g6
tp7015
F4
s(Vwayward
g44
tp7016
F1
s(VPrisons
g15
tp7017
F1
s(g44
g6
tp7018
F1077
s(Vinconsiderable
g44
tp7019
F1
s(Vstrangers
g10
tp7020
F1
s(V-I
g6
tp7021
F1
s(V-And
g29
tp7022
F2
s(V;
S':'
tp7023
F778
s(Vchang
g29
tp7024
F1
s(Vmake
g19
tp7025
F52
s(Vsevere
g44
tp7026
F2
s(VArt
g6
tp7027
F3
s(Vdisadvantagious
g44
tp7028
F1
s(Vcrueller
g29
tp7029
F1
s(VWeaves
g59
tp7030
F1
s(g44
g117
tp7031
F1
s(Vsullen
g6
tp7032
F1
s(Vsufficient
g44
tp7033
F3
s(Vsweet
g6
tp7034
F2
s(VLady
g6
tp7035
F6
s(V'twill
g152
tp7036
F3
s(Vstop
g6
tp7037
F4
s(Vraving
g6
tp7038
F2
s(Vhope
g29
tp7039
F5
s(VWhere
g120
tp7040
F5
s(V:
S':'
tp7041
F382
s(S','
g886
tp7042
F11
s(g71
g323
tp7043
F1
s(Vmad
g6
tp7044
F4
s(Vunpossest
g191
tp7045
F2
s(Vdepend
g19
tp7046
F1
s(Vdiverting
g56
tp7047
F1
s(Vrepeat
g59
tp7048
F1
s(Vallay
g71
tp7049
F1
s(Vhumour
g19
tp7050
F1
s(Vly
g19
tp7051
F2
s(VHonour
g15
tp7052
F41
s(Vfix
g19
tp7053
F6
s(Vcarpet
g6
tp7054
F1
s(Vconvey
g19
tp7055
F3
s(Vrenders
g59
tp7056
F1
s(V-towards
g10
tp7057
F1
s(V-Oh
g19
tp7058
F5
s(Vfive
g5133
tp7059
F3
s(VFoscario
g15
tp7060
F12
s(Vstorm
g6
tp7061
F5
s(Vrest
g19
tp7062
F1
s(Vshort-breath
g44
tp7063
F1
s(VName
g6
tp7064
F1
s(Vthither
g6
tp7065
F1
s(Vheard
g35
tp7066
F2
s(Vceas
g24
tp7067
F1
s(Vrecompence
g19
tp7068
F1
s(Vtoil
g6
tp7069
F2
s(V-Methinks
g10
tp7070
F1
s(Vimbrace
g19
tp7071
F1
s(VVincent
g15
tp7072
F2
s(V-But
g44
tp7073
F6
s(VGroves
g15
tp7074
F4
s(VOne
g76
tp7075
F3
s(Vdiseas
g44
tp7076
F2
s(V-such
g370
tp7077
F2
s(Vfixt
g44
tp7078
F4
s(Vt'other
g73
tp7079
F1
s(Vrun
g24
tp7080
F1
s(Vo
g124
tp7081
F1
s(Vsuspicion
g6
tp7082
F3
s(VEternal
g44
tp7083
F1
s(Vincorrigible
g44
tp7084
F3
s(Vamong
S'IN'
p7085
tp7086
F2
s(Vbind
g19
tp7087
F2
s(Vspoke
g71
tp7088
F2
s(Vthought
g44
tp7089
F2
s(Vevident
g44
tp7090
F1
s(Vappears
S'VBZ'
p7091
tp7092
F2
s(Vcontains
g59
tp7093
F2
s(Vstrong
S'JJ'
p7094
tp7095
F3
s(Vdelight
g6
tp7096
F5
s(Vtrial
S'NN'
p7097
tp7098
F1
s(VListener
g15
tp7099
F1
s(V-Will
g19
tp7100
F1
s(Vdesires
g10
tp7101
F11
s(Vall
g370
tp7102
F117
s(VNever
g35
tp7103
F1
s(Vtame
g6
tp7104
F1
s(Vboast
g19
tp7105
F2
s(VBeauties
g689
tp7106
F1
s(VPrayers
g10
tp7107
F3
s(Vtransport
g6
tp7108
F6
s(V-thus
g6
tp7109
F1
s(Vset
g24
tp7110
F3
s(Vabandoned
g71
tp7111
F1
s(Vsays
S'VBZ'
p7112
tp7113
F6
s(g126
g6
tp7114
F12
s(Vflowing
g6
tp7115
F1
s(V-haste
g71
tp7116
F1
s(Vinvolv
g44
tp7117
F1
s(Vobedient
g44
tp7118
F1
s(VNuptials
g10
tp7119
F2
s(g44
S'.'
tp7120
F20
s(Vincrease
g19
tp7121
F2
s(Vsooner
g6
tp7122
F2
s(V'twould
g152
tp7123
F1
s(Vto't
g19
tp7124
F1
s(VBoy
g15
tp7125
F4
s(g5133
g44
tp7126
F20
s(Vheard
g6
tp7127
F1
s(Vmatrimonial
g44
tp7128
F1
s(Vtrivial
g44
tp7129
F2
s(Vquarter
S'NN'
p7130
tp7131
F2
s(Vprest
g191
tp7132
F3
s(g63
g81
tp7133
F1
s(Vnobles
g10
tp7134
F1
s(VAdoration
g6
tp7135
F1
s(Vearnestly
g35
tp7136
F1
s(Vyours
g35
tp7137
F1
s(Vflatters
g10
tp7138
F1
s(Vfancy
g29
tp7139
F3
s(Vvows
g59
tp7140
F3
s(Vabuse
g19
tp7141
F2
s(Vtouches
g35
tp7142
F1
s(g117
S':'
tp7143
F4
s(Vexcesses
g10
tp7144
F1
s(Vintrigue
g6
tp7145
F2
s(g323
S','
tp7146
F17
s(Vargued
g71
tp7147
F1
s(Vbarter
g6
tp7148
F1
s(VCoxcomb
g6
tp7149
F1
s(Vsubmitted
g24
tp7150
F1
s(S':'
g24
tp7151
F6
s(Vner'e
g19
tp7152
F1
s(g25
S':'
tp7153
F1
s(Vgreens
g10
tp7154
F1
s(VPoliticks
g10
tp7155
F1
s(Vpain
g19
tp7156
F2
s(Vwent
S'VBD'
p7157
tp7158
F11
s(Vlabours
g59
tp7159
F1
s(Vamidst
g13
tp7160
F1
s(Vpromised
g24
tp7161
F1
s(V-Softly
g35
tp7162
F1
s(VBounty
g15
tp7163
F2
s(g126
g35
tp7164
F3
s(Vanger
g6
tp7165
F6
s(Vwaits
g59
tp7166
F2
s(Vfir
g6
tp7167
F1
s(VGentleman
g15
tp7168
F2
s(Vsecret
g29
tp7169
F1
s(VGarden
g15
tp7170
F18
s(Vwonder
g19
tp7171
F1
s(Vcall
g19
tp7172
F24
s(g850
g35
tp7173
F42
s(Vmeant
g71
tp7174
F2
s(g140
g2175
tp7175
F67
s(Vsacred
g71
tp7176
F2
s(Vovertaken
g24
tp7177
F1
s(Vdirect
g29
tp7178
F1
s(Vborrow
g19
tp7179
F1
s(Vrailing
g6
tp7180
F1
s(Vprefer
g44
tp7181
F1
s(Vtrees
g10
tp7182
F1
s(Vmelancholy
g6
tp7183
F1
s(Vcloaths
g6
tp7184
F1
s(Vsought
g71
tp7185
F2
s(g558
g111
tp7186
F9
s(V-By
g19
tp7187
F2
s(Vworse
g63
tp7188
F5
s(Vdelights
g10
tp7189
F3
s(VMelinda
g15
tp7190
F26
s(Vfreedome
g44
tp7191
F1
s(Vswear
g6
tp7192
F2
s(Vways
S'NNS'
p7193
tp7194
F5
s(Vambition
g6
tp7195
F1
s(Vcomposition
g6
tp7196
F3
s(Vposture
g6
tp7197
F1
s(g56
g56
tp7198
F4
s(Vfor
g17
tp7199
F393
s(Vabandon
g24
tp7200
F2
s(VWise
g15
tp7201
F1
s(Vreluctancy
g6
tp7202
F1
s(g140
g35
tp7203
F220
s(Vdwell
g29
tp7204
F1
s(Vroving
g56
tp7205
F1
s(Vbeginning
g6
tp7206
F2
s(Vconfounded
g71
tp7207
F2
s(Vglimmering
g6
tp7208
F1
s(g76
g63
tp7209
F1
s(VC
g15
tp7210
F11
s(VConversation
g15
tp7211
F1
s(VShades
g15
tp7212
F4
s(Vtire
g19
tp7213
F1
s(g142
S':'
tp7214
F1
s(Vbanish't
g71
tp7215
F1
s(Vdispos
g44
tp7216
F1
s(VParis
S'NNP'
p7217
tp7218
F12
s(Veasier
g63
tp7219
F2
s(VMertila
g15
tp7220
F3
s(Vconsenting
g6
tp7221
F1
s(Vinnocent
g44
tp7222
F4
s(Vundisputably
g35
tp7223
F1
s(Vhearing
g56
tp7224
F3
s(Vpall
g29
tp7225
F1
s(Vrashness
g6
tp7226
F1
s(Vinfamous
g44
tp7227
F6
s(Vforbid
g6
tp7228
F1
s(V-I
g44
tp7229
F8
s(Vsupply
g19
tp7230
F1
s(Vtemper
g6
tp7231
F1
s(Vsatisfaction
g6
tp7232
F9
s(Vcontinue
g29
tp7233
F2
s(Vpropose
g19
tp7234
F1
s(Vteach
g29
tp7235
F2
s(Vturning
g56
tp7236
F1
s(Voccasion
g6
tp7237
F8
s(S','
S':'
tp7238
F42
s(Vmixtures
g10
tp7239
F1
s(Vpursuits
g10
tp7240
F1
s(Vdegrees
g10
tp7241
F2
s(g3775
g208
tp7242
F11
s(g15
g13
tp7243
F301
s(g6
g63
tp7244
F8
s(Vlovely
g44
tp7245
F29
s(Vcreatures
g10
tp7246
F1
s(g689
g383
tp7247
F1
s(Vsoul
g6
tp7248
F33
s(VTryal
g6
tp7249
F1
s(Vlightly
g35
tp7250
F1
s(Vharbour
g19
tp7251
F2
s(Vclear
g19
tp7252
F1
s(VAffairs
g689
tp7253
F1
s(Vtouch
g6
tp7254
F5
s(g689
g29
tp7255
F2
s(Vspeak
g19
tp7256
F9
s(Vswore
g71
tp7257
F1
s(Vmet
g71
tp7258
F5
s(Vconstitution
g6
tp7259
F1
s(Vleaves
g59
tp7260
F1
s(g191
g15
tp7261
F2
s(Vlost
g24
tp7262
F21
s(Vafflicting
g56
tp7263
F1
s(Vunreasonable
g44
tp7264
F4
s(Vresist
g6
tp7265
F1
s(Voffice
S'NN'
p7266
tp7267
F1
s(Vbosted
g24
tp7268
F1
s(Vmingled
g24
tp7269
F1
s(Vyes
g73
tp7270
F2
s(Vshoud'st
g44
tp7271
F2
s(VRose
g15
tp7272
F1
s(Vinvitation
g6
tp7273
F1
s(Veverlasting
g44
tp7274
F1
s(Vdispose
g19
tp7275
F1
s(VThursday
S'NNP'
p7276
tp7277
F1
s(Vflattering
g56
tp7278
F1
s(Vpiercing
g6
tp7279
F1
s(Vseparate
g44
tp7280
F1
s(VFavour
g15
tp7281
F1
s(S','
g370
tp7282
F3
s(Vwretched
g71
tp7283
F4
s(Vfawnes
g10
tp7284
F1
s(Vreminding
g56
tp7285
F2
s(VSpell
g15
tp7286
F2
s(Vwork
g19
tp7287
F2
s(Vbelieve
g6
tp7288
F1
s(VWho
g111
tp7289
F2
s(Vher
g27
tp7290
F178
s(Vsight
g71
tp7291
F1
s(V'T
g6
tp7292
F4
s(Vavoid
g19
tp7293
F1
s(Vtrembler
g6
tp7294
F1
s(Vlays
g59
tp7295
F1
s(Vdistant
g44
tp7296
F3
s(VBed-side
g15
tp7297
F1
s(VBeams
g15
tp7298
F1
s(g44
g682
tp7299
F2
s(VVVorld
g15
tp7300
F1
s(V-Hast
g44
tp7301
F1
s(Vundeniable
g44
tp7302
F1
s(VWife
g15
tp7303
F11
s(Vtear
g6
tp7304
F3
s(Vmine
g44
tp7305
F14
s(Vwholly
g35
tp7306
F5
s(Vpossess'st
g6
tp7307
F1
s(Vtorn
g10
tp7308
F1
s(VAdditions
g10
tp7309
F1
s(Vswore
g19
tp7310
F1
s(Vmiss
g29
tp7311
F2
s(Vtone
g6
tp7312
F2
s(Vforgot
g71
tp7313
F3
s(Vblushing
g56
tp7314
F5
s(VWretched
g44
tp7315
F1
s(Vdenied
g71
tp7316
F1
s(g2179
g5450
tp7317
F2
s(Vundaunted
g71
tp7318
F1
s(g71
g682
tp7319
F4
s(Vpermission
g6
tp7320
F3
s(Vfainted
g71
tp7321
F3
s(Vreceiving
g6
tp7322
F1
s(Vpieces
g10
tp7323
F2
s(VRoman
g15
tp7324
F1
s(Vadded
g71
tp7325
F2
s(S'('
g6
tp7326
F4
s(g1160
g825
tp7327
F184
s(Vinjur
g44
tp7328
F1
s(V-let
g19
tp7329
F5
s(Vcurse
g6
tp7330
F5
s(Vable
S'JJ'
p7331
tp7332
F7
s(Vdissemble
g29
tp7333
F1
s(Vdecline
g19
tp7334
F2
s(Vdisoblig
g44
tp7335
F2
s(Vcharm
g44
tp7336
F1
s(Vthee
g29
tp7337
F1
s(Vconquest
g191
tp7338
F1
s(VGlass
g15
tp7339
F1
s(Vaffording
g56
tp7340
F1
s(Vhardy
g59
tp7341
F1
s(Vbartering
g6
tp7342
F1
s(Vravishing
g6
tp7343
F3
s(Vmeanest
g191
tp7344
F2
s(g15
S':'
tp7345
F258
s(VStreams
g15
tp7346
F2
s(g142
g15
tp7347
F1
s(Vtriumphing
g6
tp7348
F1
s(Vnobler
g44
tp7349
F1
s(S':'
g521
tp7350
F24
s(Vtir
g44
tp7351
F1
s(VWars
g10
tp7352
F1
s(S','
g142
tp7353
F5
s(Vdesir
g44
tp7354
F2
s(V-What
g111
tp7355
F3
s(Vsix
g6075
tp7356
F1
s(Vdivert
g6
tp7357
F1
s(Vdrive
g19
tp7358
F1
s(VSister
g15
tp7359
F28
s(Vmean
g29
tp7360
F1
s(VAngel
g15
tp7361
F14
s(g191
g293
tp7362
F1
s(VGroves
g10
tp7363
F3
s(Vpursues
g59
tp7364
F1
s(VVisits
g10
tp7365
F1
s(VMeadow
g15
tp7366
F7
s(Vravisht
g24
tp7367
F1
s(Vkeep
g19
tp7368
F5
s(g191
g120
tp7369
F1
s(Vclamours
g10
tp7370
F1
s(Vhate
g29
tp7371
F4
s(Vrancounter
g6
tp7372
F3
s(V'twould
g124
tp7373
F2
s(Vthe
g650
tp7374
F1366
s(g29
g117
tp7375
F5
s(Vye
g29
tp7376
F1
s(Vofficious
g44
tp7377
F2
s(Vhazards
g10
tp7378
F3
s(Vthy
g29
tp7379
F1
s(Vviolated
g24
tp7380
F1
s(Vblushing
g6
tp7381
F1
s(Vfondly
g35
tp7382
F3
s(Vsoftly
g35
tp7383
F4
s(VCourtship
g6
tp7384
F1
s(VA
g90
tp7385
F5
s(VPrimrose
g15
tp7386
F1
s(VTormentor
g15
tp7387
F1
s(VScepters
g15
tp7388
F1
s(Vwisht
g29
tp7389
F1
s(Vfaint
g6
tp7390
F7
s(S','
g29
tp7391
F67
s(g1723
g15
tp7392
F9
s(VHonour
g76
tp7393
F2
s(Vpursu'st
g6
tp7394
F1
s(VRelief
g15
tp7395
F1
s(V-oh
g44
tp7396
F2
s(Vintricate
g44
tp7397
F1
s(V
g44
tp7398
F1
s(Vlike
g19
tp7399
F9
s(S','
g825
tp7400
F375
s(Vgiving
S'VBG'
p7401
tp7402
F3
s(Vhumanity
g6
tp7403
F3
s(Vinclos
g44
tp7404
F1
s(Vgaze
g29
tp7405
F2
s(Vcan
g1495
tp7406
F177
s(S','
g90
tp7407
F282
s(VTitle
g15
tp7408
F3
s(g689
S':'
tp7409
F4
s(Vfame
g6
tp7410
F21
s(Vdespis
g6
tp7411
F2
s(Vnature
g6
tp7412
F9
s(Vmist
g29
tp7413
F1
s(Vunresolv
g44
tp7414
F1
s(Vlain
g35
tp7415
F1
s(g111
g6
tp7416
F27
s(Vlifted
g71
tp7417
F2
s(Vdamnation
g19
tp7418
F1
s(Vlampoon
g6
tp7419
F1
s(Vhellish
g44
tp7420
F1
s(Vhonourable
g44
tp7421
F1
s(Vbrand
S'NN'
p7422
tp7423
F2
s(Vcompanion
g6
tp7424
F1
s(VDivinity
g15
tp7425
F3
s(Vintitles
g10
tp7426
F1
s(g142
g1489
tp7427
F1
s(Vmeant
g44
tp7428
F1
s(g44
g76
tp7429
F36
s(Vdetested
g24
tp7430
F1
s(Vsay
g29
tp7431
F34
s(VDoves
g59
tp7432
F1
s(Vbetray
g71
tp7433
F1
s(g865
g10
tp7434
F6
s(Vfailing
g56
tp7435
F1
s(Vbreach
g6
tp7436
F2
s(Vserve
g29
tp7437
F1
s(VYet
g35
tp7438
F5
s(Vsuspected
g24
tp7439
F1
s(Vnay
g35
tp7440
F4
s(Vforsworn
g24
tp7441
F1
s(VSword
g15
tp7442
F6
s(Voath
g6
tp7443
F1
s(Vcontribute
g19
tp7444
F2
s(VGrove
g15
tp7445
F20
s(Vprayer
g6
tp7446
F1
s(Vburn
g29
tp7447
F1
s(Veagerly
g35
tp7448
F2
s(Vo'rejoy
g6
tp7449
F2
s(g865
g323
tp7450
F1
s(Vhumour
g6
tp7451
F4
s(Vpleas
g29
tp7452
F1
s(VMoon
S'NNP'
p7453
tp7454
F2
s(Vleft
g24
tp7455
F6
s(Vthee
g44
tp7456
F16
s(VWere
g120
tp7457
F1
s(Vremember
g6
tp7458
F1
s(Vmelted
g71
tp7459
F1
s(g29
g56
tp7460
F15
s(Vquestion
g6
tp7461
F2
s(V-However
g19
tp7462
F1
s(Vcrys
g6
tp7463
F1
s(VWitness
g15
tp7464
F1
s(Vmeet
g19
tp7465
F10
s(S')'
g56
tp7466
F1
s(VEve
g15
tp7467
F1
s(Vacquainted
g24
tp7468
F1
s(Vinvited
g24
tp7469
F1
s(VDalliance
g15
tp7470
F1
s(Vviolent
g6
tp7471
F1
s(Vrewards
g10
tp7472
F1
s(Vresult
g6
tp7473
F1
s(Vdisturb
g6
tp7474
F1
s(VSilvio
g15
tp7475
F1
s(Vswift
g44
tp7476
F3
s(Vwitnesses
g10
tp7477
F2
s(Vcast
g24
tp7478
F1
s(Vmightest
g191
tp7479
F1
s(Vcontinual
g44
tp7480
F1
s(Vhast
g6
tp7481
F36
s(Vhim
g3928
tp7482
F129
s(Vis
g485
tp7483
F339
s(Vextreams
g10
tp7484
F1
s(Vbough
g6
tp7485
F1
s(g4314
g293
tp7486
F12
s(Vremaining
g56
tp7487
F2
s(Vwithout
S'IN'
p7488
tp7489
F61
s(VGidon
g15
tp7490
F1
s(Vseek
g6
tp7491
F1
s(VAge
g15
tp7492
F12
s(VBastard
g15
tp7493
F1
s(Vingag
g24
tp7494
F1
s(g56
g111
tp7495
F3
s(g886
g35
tp7496
F1
s(Veasiness
g6
tp7497
F2
s(VNights
g689
tp7498
F1
s(VLet
g19
tp7499
F5
s(Vstomack
g6
tp7500
F1
s(Vdire
g6
tp7501
F1
s(g25
g6
tp7502
F4
s(Veat
g19
tp7503
F1
s(Vrepeat
g6
tp7504
F1
s(Vcondemnation
g6
tp7505
F1
s(Vweeders
g10
tp7506
F1
s(Vdelusive
g44
tp7507
F1
s(g293
g4822
tp7508
F22
s(Vsend
g29
tp7509
F2
s(Vreaches
g59
tp7510
F1
s(VAdvancers
g10
tp7511
F1
s(Vmalice
g6
tp7512
F3
s(Vwhile
g6
tp7513
F7
s(Vprevent
g6
tp7514
F3
s(Vslowly
g6
tp7515
F1
s(VSun
S'NNP'
p7516
tp7517
F6
s(Vpatience
g6
tp7518
F2
s(Vamongst
g29
tp7519
F2
s(Vdiscovering
g6
tp7520
F1
s(VFollies
g10
tp7521
F1
s(Vmeant
g6
tp7522
F1
s(VSo
g73
tp7523
F1
s(g383
S','
tp7524
F323
s(Vperplex
g73
tp7525
F1
s(Vtempt
g29
tp7526
F1
s(Valas
g6
tp7527
F4
s(VInsensibility
g15
tp7528
F2
s(VConductor
g15
tp7529
F1
s(Vunawares
g10
tp7530
F2
s(VBreast
g15
tp7531
F3
s(Vbasely
g35
tp7532
F2
s(Varmed
g24
tp7533
F1
s(Vlain
g24
tp7534
F1
s(Vthese
S'DT'
p7535
tp7536
F29
s(Vcurst
g35
tp7537
F1
s(Vdagger
g6
tp7538
F1
s(Vcoming
g44
tp7539
F1
s(Vattonement
g6
tp7540
F2
s(Vtrust
g29
tp7541
F2
s(g140
g15
tp7542
F174
s(VHeaven
g15
tp7543
F85
s(Vcourage
g19
tp7544
F2
s(S'('
g15
tp7545
F2
s(VWidows
g15
tp7546
F1
s(VBarbarous
g15
tp7547
F1
s(g191
S','
tp7548
F12
s(Vpleasures
g10
tp7549
F1
s(Vamazed
g44
tp7550
F1
s(Vmessenger
g6
tp7551
F1
s(Vlay
g6
tp7552
F2
s(Vkinder
g24
tp7553
F1
s(VPrinces
g689
tp7554
F1
s(Vreal
g233
tp7555
F7
s(Vconquests
g10
tp7556
F1
s(VSupper
g15
tp7557
F1
s(Vgift
g6
tp7558
F1
s(Vrecall
g19
tp7559
F1
s(Vfast
g6
tp7560
F2
s(V-Have
g29
tp7561
F1
s(Vmy
g714
tp7562
F1012
s(Vbosome
g6
tp7563
F5
s(Vconquer
g29
tp7564
F1
s(Vchang
g6
tp7565
F3
s(g15
g76
tp7566
F1
s(VPen
g6
tp7567
F1
s(Vunhappy
g44
tp7568
F15
s(Vplump
g6
tp7569
F2
s(Vslowly
g35
tp7570
F1
s(VCourage
g6
tp7571
F1
s(Vretreats
g10
tp7572
F1
s(Vtorn
g44
tp7573
F1
s(Vtop
g44
tp7574
F1
s(Vcome
g6
tp7575
F1
s(Vsatisfie
g19
tp7576
F1
s(g27
g847
tp7577
F2
s(Vfierceness
g6
tp7578
F2
s(Voh
g59
tp7579
F1
s(Vgentle
g19
tp7580
F1
s(g24
g10
tp7581
F9
s(Vadmit
g29
tp7582
F1
s(Vcounted
g24
tp7583
F2
s(Vdespise
g19
tp7584
F1
s(Vwise
g19
tp7585
F1
s(Vdespis
g29
tp7586
F1
s(Vextremes
g10
tp7587
F2
s(Vproffer
g29
tp7588
F1
s(Vless
g63
tp7589
F11
s(g689
g140
tp7590
F1
s(Vfirm
g6
tp7591
F2
s(Vspightfull
g6
tp7592
F1
s(Vkindle
g19
tp7593
F1
s(VRavisher
g6
tp7594
F1
s(VCerimony
g6
tp7595
F1
s(Vrun
g6
tp7596
F1
s(Vperform
g19
tp7597
F2
s(VNeck
g6
tp7598
F1
s(VVillage
g15
tp7599
F2
s(Vin
g1819
tp7600
F465
s(Vpull
g29
tp7601
F1
s(Valarming
g56
tp7602
F1
s(Vintroduction
g6
tp7603
F1
s(VDaughter
g15
tp7604
F4
s(Vbetraying
g56
tp7605
F4
s(Vextreamly
g35
tp7606
F3
s(VDutchess
g15
tp7607
F9
s(g15
S'('
tp7608
F11
s(Vdeserve
g19
tp7609
F2
s(Vexcess
g44
tp7610
F4
s(Vcharg
g44
tp7611
F1
s(Vpersuing
g56
tp7612
F1
s(Vdefer
g29
tp7613
F1
s(Vset
g29
tp7614
F4
s(Vwriting
g56
tp7615
F2
s(Vadoring
g56
tp7616
F3
s(VConfusion
g6
tp7617
F1
s(g59
g1819
tp7618
F64
s(Vcrowd
g29
tp7619
F1
s(VMy
g15
tp7620
F5
s(g650
g44
tp7621
F736
s(VMarried
g44
tp7622
F1
s(Vhappier
g63
tp7623
F3
s(Vwou'dst
g6
tp7624
F1
s(V-this
g6
tp7625
F1
s(Valso
g3318
tp7626
F2
s(Vdresses
g59
tp7627
F1
s(Vdistracted
g71
tp7628
F1
s(g29
S'('
tp7629
F4
s(Vmine
g19
tp7630
F4
s(Vmaintain
g6
tp7631
F1
s(Vglory
g6
tp7632
F5
s(Vcontradict
g19
tp7633
F1
s(Vluster
g63
tp7634
F1
s(Ve
g35
tp7635
F2
s(VUngenerous
g44
tp7636
F1
s(g19
g847
tp7637
F5
s(VPleasure
g15
tp7638
F2
s(Vfarewell
g19
tp7639
F1
s(Vrais
g59
tp7640
F1
s(Vsoft
g6
tp7641
F1
s(VRavishing
g6
tp7642
F1
s(VForm
g6
tp7643
F1
s(Vdo't
g44
tp7644
F1
s(Veasie
g19
tp7645
F1
s(g90
g56
tp7646
F49
s(Vopportunity
S'NN'
p7647
tp7648
F10
s(Vinslav
g44
tp7649
F1
s(g715
S'.'
tp7650
F55
s(g140
g81
tp7651
F8
s(VCriminals
g10
tp7652
F2
s(Vapprehensions
g10
tp7653
F1
s(Vcoy
g6
tp7654
F1
s(Vinnocent
g19
tp7655
F1
s(VThrone
g6
tp7656
F1
s(Vroul
g6
tp7657
F1
s(Vneed
g19
tp7658
F2
s(Vinfinitely
g35
tp7659
F1
s(Vcries
g10
tp7660
F1
s(Vwitness
g19
tp7661
F2
s(Vcareful
g6
tp7662
F1
s(g19
g35
tp7663
F134
s(Vdeign
g19
tp7664
F2
s(g789
g63
tp7665
F2
s(g117
g19
tp7666
F1
s(Vmiserable
g44
tp7667
F1
s(Vsprings
g10
tp7668
F1
s(Vcontent
g6
tp7669
F2
s(Vcarry
g29
tp7670
F2
s(Vmurmurring
g6
tp7671
F1
s(Vreviling
g56
tp7672
F2
s(Vmaid
g71
tp7673
F1
s(Vingaging
g56
tp7674
F1
s(g558
g152
tp7675
F1
s(Vplague
g6
tp7676
F1
s(g124
g71
tp7677
F2
s(g25
g191
tp7678
F1
s(VNuptial
g15
tp7679
F2
s(VCuckolding
g56
tp7680
F1
s(VCountess
g15
tp7681
F4
s(g10
g120
tp7682
F4
s(Ve
g6
tp7683
F7
s(Vfaint
g19
tp7684
F2
s(Vsing
g29
tp7685
F1
s(g1623
g24
tp7686
F63
s(Vequally
g35
tp7687
F1
s(Vcurse
g29
tp7688
F1
s(Vlanguisher
g6
tp7689
F1
s(VMorning
g56
tp7690
F1
s(g10
g847
tp7691
F22
s(Vdescending
g56
tp7692
F1
s(Vcompassionate
g29
tp7693
F1
s(Vwomen
g2067
tp7694
F1
s(Vbaited
g24
tp7695
F1
s(Vrepenting
g56
tp7696
F1
s(Vreviv
g29
tp7697
F1
s(Vconsent
g44
tp7698
F1
s(Vanswer
g59
tp7699
F1
s(Vinconstant
g6
tp7700
F1
s(Ventring
g56
tp7701
F1
s(Voh
g73
tp7702
F3
s(Vrepose
g19
tp7703
F2
s(Vduskish
g44
tp7704
F1
s(Vopening
g56
tp7705
F4
s(Vbanisht
g24
tp7706
F1
s(Vscorn
g44
tp7707
F1
s(Vprofound
g44
tp7708
F1
s(Vjoy
g6
tp7709
F57
s(Vdestin
g44
tp7710
F4
s(Vthose
g1176
tp7711
F64
s(Vunderstanding
g56
tp7712
F1
s(g208
S'.'
tp7713
F5
s(Vmotions
g10
tp7714
F3
s(Vflowers
g10
tp7715
F4
s(Vheighten
g29
tp7716
F1
s(Vcou
g44
tp7717
F2
s(Vinvoke
g44
tp7718
F1
s(VFlowers
g10
tp7719
F1
s(VBe
g19
tp7720
F1
s(Vrepeated
g24
tp7721
F4
s(Vproclaim
g19
tp7722
F3
s(VLife
g15
tp7723
F19
s(g15
g293
tp7724
F67
s(Vleaving
g56
tp7725
F1
s(Vadorns
g10
tp7726
F1
s(Vme.
g6
tp7727
F1
s(Vslights
g59
tp7728
F1
s(V?
S'.'
tp7729
F211
s(Vinspired
g24
tp7730
F1
s(Vstrove
g71
tp7731
F1
s(VAir
S'NNP'
p7732
tp7733
F2
s(VAlmighty
g15
tp7734
F6
s(g323
g5563
tp7735
F3
s(Vinviting
g6
tp7736
F1
s(g117
g44
tp7737
F2
s(Vawe
g6
tp7738
F1
s(VBeralti
g15
tp7739
F3
s(Vhomely
g35
tp7740
F1
s(Vsing
g6
tp7741
F1
s(g140
g25
tp7742
F3
s(Vdeaf
g6
tp7743
F1
s(Vunapprehensive
g44
tp7744
F1
s(Vknew
g124
tp7745
F1
s(Vteadious
g44
tp7746
F1
s(Vtoo
S'RB'
p7747
tp7748
F91
s(g3465
S'('
tp7749
F10
s(Vsometimes
g35
tp7750
F6
s(Vafflicting
g44
tp7751
F1
s(Vdark
g44
tp7752
F4
s(Vundoing
g6
tp7753
F6
s(Vundone
g44
tp7754
F16
s(Vbereft
g6
tp7755
F1
s(Vdiscover
g44
tp7756
F2
s(Vis't
g19
tp7757
F1
s(Vvanisht
g29
tp7758
F1
s(g293
g370
tp7759
F4
s(VCount
g15
tp7760
F10
s(VI'le
g15
tp7761
F2
s(Vdifficulty
g6
tp7762
F2
s(Vexceeded
g71
tp7763
F1
s(Vrests
g59
tp7764
F1
s(V-if
g44
tp7765
F1
s(g29
g71
tp7766
F8
s(Vdeceive
g44
tp7767
F1
s(Vrefulgent
g44
tp7768
F1
s(VClock
g15
tp7769
F4
s(VStage
g15
tp7770
F1
s(Vstill
g621
tp7771
F44
s(Vneed
g29
tp7772
F8
s(Vsuch
g370
tp7773
F12
s(Vbashfull
g44
tp7774
F1
s(Vbleeding
g6
tp7775
F1
s(Vgloriously
g35
tp7776
F2
s(Vscanted
g24
tp7777
F1
s(Vspightful
g44
tp7778
F2
s(VLord
g15
tp7779
F16
s(Vhappens
g59
tp7780
F1
s(Vinjure
g6
tp7781
F1
s(V-good
g71
tp7782
F1
s(Vhappier
g44
tp7783
F1
s(V-and
g29
tp7784
F7
s(Vtoyles
g10
tp7785
F1
s(V-Were
g35
tp7786
F1
s(VKing
g15
tp7787
F14
s(Vgaiety
g6
tp7788
F1
s(VClock
g6
tp7789
F1
s(VSon
g15
tp7790
F7
s(VTongue
g15
tp7791
F3
s(VLanguish
g19
tp7792
F1
s(Vtouch
g44
tp7793
F4
s(g35
g15
tp7794
F62
s(VBe
g15
tp7795
F1
s(Vflatter
g323
tp7796
F1
s(g1213
g19
tp7797
F9
s(g71
g390
tp7798
F3
s(VMankind
g15
tp7799
F4
s(Vfriend
g24
tp7800
F1
s(Vdisappointments
g10
tp7801
F1
s(Vfarewell
g29
tp7802
F1
s(Venough
g35
tp7803
F17
s(g6
g71
tp7804
F114
s(Vwhene
g111
tp7805
F1
s(Vwak
g29
tp7806
F1
s(Vaged
g24
tp7807
F1
s(Vkinds
g10
tp7808
F1
s(Vsees
g59
tp7809
F2
s(Vwisht
g6
tp7810
F1
s(S')'
g293
tp7811
F9
s(Vsilently
g35
tp7812
F1
s(g293
S'.'
tp7813
F2
s(Vreceiv
g59
tp7814
F2
s(VPowers
g15
tp7815
F1
s(Vimaginary
g6
tp7816
F1
s(VCavalier
g15
tp7817
F1
s(Vwrite
g19
tp7818
F5
s(VEloquence
g15
tp7819
F2
s(VMornings
g15
tp7820
F1
s(VFingers
g10
tp7821
F1
s(VPersons
g689
tp7822
F1
s(Vdelicate
g6
tp7823
F1
s(VGentleness
g15
tp7824
F1
s(Vflatter
g6
tp7825
F3
s(Vecstasies
g10
tp7826
F1
s(Vbegun
S'VBN'
p7827
tp7828
F1
s(V-oh
g19
tp7829
F3
s(Vconstant
g44
tp7830
F1
s(Vway
S'NN'
p7831
tp7832
F31
s(Vhence
g35
tp7833
F1
s(Vtall
g44
tp7834
F2
s(Vfly
g19
tp7835
F6
s(Vwin
g19
tp7836
F1
s(VMonsieur
g15
tp7837
F12
s(Vdissembl
g6
tp7838
F1
s(VReligion
g15
tp7839
F1
s(Vwhene'er
g35
tp7840
F1
s(Vdied
g71
tp7841
F1
s(Vchecks
g10
tp7842
F2
s(g6
g140
tp7843
F308
s(Vindebted
g24
tp7844
F1
s(Ventering
g56
tp7845
F1
s(Vventure
S'NN'
p7846
tp7847
F4
s(Vresist
g29
tp7848
F1
s(g25
g715
tp7849
F2
s(g886
g6
tp7850
F11
s(Vholding
g56
tp7851
F1
s(Vdefence
g6
tp7852
F1
s(Vwon
g24
tp7853
F3
s(Vgrant
g44
tp7854
F1
s(Vheavenly
g35
tp7855
F1
s(g13
g1623
tp7856
F16
s(Vheedless
g44
tp7857
F1
s(VCome
g15
tp7858
F3
s(g714
S'('
tp7859
F1
s(g13
g293
tp7860
F31
s(Vdisturb
g19
tp7861
F1
s(Vproud
g44
tp7862
F2
s(Vbind
g13
tp7863
F1
s(Vbegon
g19
tp7864
F1
s(Vsyllable
g6
tp7865
F1
s(Vrefin
g6
tp7866
F1
s(Vdie
g6
tp7867
F1
s(VTrophies
g10
tp7868
F1
s(Vsenses
g10
tp7869
F3
s(VRate
g15
tp7870
F1
s(Vinconstancy
g6
tp7871
F2
s(VChild
g6
tp7872
F1
s(Vexpress
g19
tp7873
F6
s(Vsent
g24
tp7874
F10
s(Vdisobey
g19
tp7875
F1
s(S','
g63
tp7876
F4
s(g1525
S'.'
tp7877
F31
s(g409
g15
tp7878
F665
s(Vshowers
g10
tp7879
F1
s(Vdisarm
g44
tp7880
F2
s(Vclearly
S'RB'
p7881
tp7882
F1
s(Vcruel
g19
tp7883
F1
s(VMust
g15
tp7884
F1
s(Vinfant
g44
tp7885
F1
s(VForgive
g15
tp7886
F1
s(g27
g1573
tp7887
F64
s(Vthought
g6
tp7888
F41
s(Vcharming
g44
tp7889
F4
s(Vaccursed
g44
tp7890
F1
s(Vmere
g35
tp7891
F1
s(Vsignified
g24
tp7892
F1
s(VRobes
g15
tp7893
F1
s(g81
g1036
tp7894
F4
s(Vnimble
g44
tp7895
F1
s(VDevoir
g15
tp7896
F1
s(S'('
g886
tp7897
F2
s(VBelinda
g15
tp7898
F1
s(Vcensures
g10
tp7899
F1
s(Vhast
g71
tp7900
F3
s(Vsits
g59
tp7901
F1
s(Vfolded
g24
tp7902
F1
s(Vgaze
g19
tp7903
F5
s(V'm
S'VBP'
p7904
tp7905
F16
s(VReligious
g15
tp7906
F1
s(Vdumb
g44
tp7907
F1
s(Vhoushould
g6
tp7908
F1
s(Vcarried
g71
tp7909
F1
s(Vhome
g6
tp7910
F1
s(VTyrannies
g15
tp7911
F1
s(Vfainting
g6
tp7912
F7
s(Vrise
g6
tp7913
F2
s(VMartyrs
g15
tp7914
F1
s(Vwondred
g24
tp7915
F1
s(Vunchangeable
g44
tp7916
F2
s(Vdiversion
g6
tp7917
F1
s(Vholy
g44
tp7918
F2
s(Vforbear
g19
tp7919
F1
s(VMarry
g19
tp7920
F1
s(Vvainly
g35
tp7921
F1
s(g124
g715
tp7922
F159
s(g650
g124
tp7923
F9
s(Veven
g35
tp7924
F39
s(Vand
g140
tp7925
F1635
s(Vdire
g19
tp7926
F1
s(S')'
g370
tp7927
F1
s(Vsoftning
g56
tp7928
F1
s(Vyonder
g63
tp7929
F1
s(Vjustice
g6
tp7930
F1
s(Vreconcile
g19
tp7931
F1
s(g19
g1573
tp7932
F9
s(Vobliged
g71
tp7933
F1
s(Venvy
g29
tp7934
F1
s(Vabandon
g142
tp7935
F1
s(Vfenc
g6
tp7936
F1
s(Vinjoyment
g6
tp7937
F1
s(S':'
g152
tp7938
F2
s(Vpress
g19
tp7939
F6
s(Vviolate
g19
tp7940
F1
s(VLords
g15
tp7941
F1
s(Vsoul
g44
tp7942
F1
s(Vmadder
g6
tp7943
F1
s(Vcost
g6
tp7944
F1
s(Vshoots
g10
tp7945
F1
s(Vuncertain
g44
tp7946
F2
s(Vthough
g35
tp7947
F2
s(Vo
g19
tp7948
F2
s(Vlead
g29
tp7949
F1
s(Vfor't
g19
tp7950
F1
s(Vsentence
g6
tp7951
F2
s(Vcontradictions
g10
tp7952
F1
s(Valarm
g44
tp7953
F1
s(Vincline
g19
tp7954
F1
s(Vgather
g19
tp7955
F1
s(V'em
g19
tp7956
F1
s(Vformalities
g10
tp7957
F1
s(Vrenders
g10
tp7958
F4
s(g44
g142
tp7959
F2
s(Vsurvey
S'NN'
p7960
tp7961
F2
s(Vlistener
g6
tp7962
F2
s(Vbate
g19
tp7963
F1
s(V'T
g152
tp7964
F3
s(Vlet
g6
tp7965
F3
s(V'd
g44
tp7966
F3
s(Vquestions
S'NNS'
p7967
tp7968
F2
s(Vstay
g19
tp7969
F5
s(Vcomplaints
g10
tp7970
F4
s(Vknow
g10
tp7971
F1
s(V(
S'('
tp7972
F103
s(Vslaughter
g6
tp7973
F1
s(VTaper
g15
tp7974
F1
s(VDevil
g15
tp7975
F1
s(g715
g293
tp7976
F86
s(Vsmile
g6
tp7977
F5
s(Vstate
S'NN'
p7978
tp7979
F2
s(g390
g1495
tp7980
F13
s(g714
g90
tp7981
F2
s(Vback
g35
tp7982
F20
s(Vthing
S'NN'
p7983
tp7984
F39
s(g689
g111
tp7985
F1
s(VMarriage
g15
tp7986
F3
s(VCassandria
g15
tp7987
F1
s(g13
g689
tp7988
F2
s(VCottage
g6
tp7989
F10
s(g35
g124
tp7990
F32
s(Vunbound
g44
tp7991
F1
s(VTemptations
g10
tp7992
F1
s(Vact
g19
tp7993
F3
s(S':'
g140
tp7994
F276
s(V&
g73
tp7995
F1
s(VCreature
g6
tp7996
F2
s(g19
g6
tp7997
F130
s(VHeav'n
g15
tp7998
F26
s(Vruin
g24
tp7999
F3
s(VImagin
g6
tp8000
F1
s(Vcalmly
g19
tp8001
F1
s(g1241
g24
tp8002
F7
s(VFamily
g6
tp8003
F1
s(Vcarefull
g44
tp8004
F1
s(Vmodest
S'JJ'
p8005
tp8006
F1
s(Vsubsist
g6
tp8007
F1
s(g90
g485
tp8008
F24
s(g126
g825
tp8009
F6
s(Vslow
g19
tp8010
F1
s(Vones
g1723
tp8011
F8
s(Vsurely
g35
tp8012
F9
s(Vflown
g6
tp8013
F1
s(Vwondering
g56
tp8014
F1
s(g323
S'.'
tp8015
F2
s(VFate
g15
tp8016
F7
s(VSpark
g15
tp8017
F1
s(Vpreserving
g6
tp8018
F1
s(Vtransplant
g19
tp8019
F1
s(Vstars
g10
tp8020
F3
s(g682
g6385
tp8021
F4
s(VNews
g15
tp8022
F1
s(Vimposition
g6
tp8023
F1
s(V'd
g19
tp8024
F3
s(Vrecover
g19
tp8025
F3
s(Vbreeding
g6
tp8026
F1
s(g81
g865
tp8027
F1
s(Vdesperately
g35
tp8028
F1
s(Vconceal
g19
tp8029
F2
s(Vcan'st
g44
tp8030
F1
s(VPrey
g15
tp8031
F1
s(Vwhither
g323
tp8032
F1
s(VHumane
g15
tp8033
F1
s(Vconfirm
g44
tp8034
F4
s(Vhint
g19
tp8035
F1
s(Vask
g19
tp8036
F7
s(Vspare
g44
tp8037
F1
s(Vintelligible
g44
tp8038
F1
s(Vadorable
g44
tp8039
F20
s(Vunfortunate
g6
tp8040
F1
s(Vmortality
g6
tp8041
F1
s(g29
S'.'
tp8042
F7
s(V-Oh
g126
tp8043
F1
s(Vadvance
g19
tp8044
F3
s(Vthinking
g6
tp8045
F1
s(Vsoul
g19
tp8046
F2
s(V-it
g44
tp8047
F1
s(Vlaid
g24
tp8048
F6
s(Vpunish
g19
tp8049
F1
s(Vcharm
g19
tp8050
F3
s(g19
g370
tp8051
F10
s(VRebellion
g15
tp8052
F2
s(Vgrowing
g56
tp8053
F1
s(Vsaw
g19
tp8054
F1
s(Vremorse
g6
tp8055
F1
s(Vpaths
g10
tp8056
F2
s(Vgrew
S'VBD'
p8057
tp8058
F3
s(Vappetite
g6
tp8059
F3
s(Vpiercing
g56
tp8060
F2
s(Vthought
g71
tp8061
F21
s(g56
g3411
tp8062
F1
s(g15
g142
tp8063
F4
s(g124
g7846
tp8064
F10
s(Vbrave
g6
tp8065
F1
s(Vregardless
g19
tp8066
F1
s(Vretain
g19
tp8067
F1
s(g6
g142
tp8068
F2
s(Vclose
g35
tp8069
F1
s(Vdisfavour
g6
tp8070
F2
s(Vadieu
g44
tp8071
F1
s(g323
g293
tp8072
F1
s(Vado
g6
tp8073
F1
s(Vlonger
g323
tp8074
F4
s(Vexpectation
g6
tp8075
F1
s(Vfinishing
g56
tp8076
F1
s(VBody
g15
tp8077
F3
s(Vlaugh
g6
tp8078
F2
s(Vvented
g24
tp8079
F1
s(g10
g1678
tp8080
F12
s(Vwhenever
g120
tp8081
F1
s(Vit
g715
tp8082
F379
s(Vpull
g19
tp8083
F1
s(Vcruel
g59
tp8084
F1
s(Vimpertinent
g6
tp8085
F1
s(V-ah
g6
tp8086
F1
s(Vheartbreaking
g56
tp8087
F1
s(Vsympathy
g44
tp8088
F1
s(Vdistinguish
g19
tp8089
F1
s(Vthink'st
g13
tp8090
F1
s(g133
S':'
tp8091
F2
s(g5812
g56
tp8092
F30
s(Vabsolute
g6
tp8093
F1
s(VPassion
g15
tp8094
F6
s(VPurling
g56
tp8095
F1
s(Vparly
g35
tp8096
F1
s(Veight
S'CD'
p8097
tp8098
F2
s(Vbeaten
g6
tp8099
F1
s(Vresenting
g56
tp8100
F1
s(V'd
g76
tp8101
F46
s(VGarden-grove
g15
tp8102
F1
s(Vpersue
g19
tp8103
F1
s(Vforce
g19
tp8104
F2
s(Vstopt
g29
tp8105
F1
s(Vspeed
g6
tp8106
F3
s(Vempty
g6
tp8107
F1
s(Vthrough
g13
tp8108
F22
s(Vdarling
g6
tp8109
F2
s(Vkill
g19
tp8110
F5
s(VReasoning
g15
tp8111
F1
s(VSoul
g6
tp8112
F14
s(Vcustom
g6
tp8113
F2
s(Vsigh't
g29
tp8114
F2
s(Vinsipid
g44
tp8115
F1
s(Vvision
g6
tp8116
F1
s(g558
g81
tp8117
F3
s(Vexcept
g13
tp8118
F3
s(VSuns
g689
tp8119
F1
s(S')'
g2856
tp8120
F17
s(Vstinted
g24
tp8121
F1
s(VDaughter
g44
tp8122
F1
s(VTranquility
g15
tp8123
F1
s(Vshone
g6
tp8124
F1
s(Vstakes
g10
tp8125
F1
s(Vserene
g6
tp8126
F2
s(g1495
g92
tp8127
F201
s(VNo
g90
tp8128
F19
s(Vtormenting
g44
tp8129
F2
s(Vreturn
g24
tp8130
F1
s(Vbanish
g19
tp8131
F3
s(Vdost
g6
tp8132
F2
s(Vreflected
g24
tp8133
F1
s(VConquests
g10
tp8134
F1
s(VPiety
g15
tp8135
F1
s(Vunfinish
g44
tp8136
F1
s(g76
g140
tp8137
F10
s(Vblisses
g10
tp8138
F1
s(Vbate
g6
tp8139
F1
s(Vthat
g90
tp8140
F125
s(Vglittering
g56
tp8141
F1
s(VRoyal
g15
tp8142
F5
s(Vcant
g6
tp8143
F1
s(VPeople
g10
tp8144
F1
s(Vugliness
g44
tp8145
F1
s(VAmbition
g6
tp8146
F1
s(Vstark
g44
tp8147
F1
s(Vdisquiers
g10
tp8148
F1
s(Vsooth
g44
tp8149
F1
s(VPeace
g15
tp8150
F1
s(VNation
g15
tp8151
F1
s(VMurthers
g15
tp8152
F1
s(Vbeaten
g44
tp8153
F1
s(Vtells
g59
tp8154
F2
s(S','
g191
tp8155
F11
s(Vmeets
g59
tp8156
F1
s(Vrange
g19
tp8157
F1
s(g124
g90
tp8158
F79
s(Vrather
g427
tp8159
F14
s(g650
g10
tp8160
F150
s(Vconsulting
g56
tp8161
F2
s(g3143
g689
tp8162
F2
s(Vart
g35
tp8163
F3
s(V-But
g29
tp8164
F1
s(Vnearness
g6
tp8165
F1
s(V\u005c
g6
tp8166
F2
s(g191
g714
tp8167
F6
s(Voh
g715
tp8168
F1
s(Vfriendless
g44
tp8169
F2
s(Voriginal
g44
tp8170
F3
s(Vsuddainly
g44
tp8171
F1
s(Vbase
g24
tp8172
F1
s(Vbreaths
g10
tp8173
F1
s(Vpetition
g6
tp8174
F1
s(Vcare
g6
tp8175
F15
s(Vfate
g6
tp8176
F13
s(g117
g293
tp8177
F3
s(Vcrime
g2313
tp8178
F9
s(g6
g714
tp8179
F29
s(Vpurely
g35
tp8180
F1
s(Valone
g35
tp8181
F19
s(Vobligation
g6
tp8182
F2
s(g1241
g323
tp8183
F1
s(Vpossest
g19
tp8184
F2
s(Vsmiles
g10
tp8185
F4
s(Vended
g24
tp8186
F3
s(Vapprehensive
g44
tp8187
F1
s(Vexplain
g19
tp8188
F1
s(Vrestore
g19
tp8189
F3
s(Vaspects
g10
tp8190
F1
s(Vfrighted
g44
tp8191
F1
s(V-at
g6
tp8192
F1
s(VIrrecoverable
g44
tp8193
F1
s(Vtimes
g10
tp8194
F11
s(Vhinder
g19
tp8195
F4
s(VRabble
g15
tp8196
F1
s(VDesigns
g15
tp8197
F1
s(VCry
g15
tp8198
F5
s(Vwant
g29
tp8199
F4
s(Voften
S'RB'
p8200
tp8201
F24
s(g370
g650
tp8202
F126
s(VTrial
g44
tp8203
F1
s(Vfarewell
g6
tp8204
F2
s(Vright
g6
tp8205
F8
s(Vthy
g44
tp8206
F156
s(V-What
g13
tp8207
F2
s(Vsolitude
g6
tp8208
F1
s(g1129
g521
tp8209
F36
s(Vlone
g6
tp8210
F2
s(Vshaded
g24
tp8211
F1
s(Vwatchful
g44
tp8212
F1
s(VLove.
g15
tp8213
F1
s(VHeav'n
g19
tp8214
F1
s(VNay
g15
tp8215
F4
s(Varrive
g19
tp8216
F6
s(Vconfusion
g6
tp8217
F13
s(V-Go
g44
tp8218
F1
s(VJove
g15
tp8219
F2
s(VEquipage
g6
tp8220
F2
s(V-though
g13
tp8221
F1
s(VThousands
g10
tp8222
F1
s(Vretaining
g56
tp8223
F1
s(Vdares
g59
tp8224
F5
s(Vresolving
g56
tp8225
F1
s(Vdiscompos
g44
tp8226
F2
s(Vnay
g73
tp8227
F2
s(VBosome
g15
tp8228
F4
s(VCreature
g15
tp8229
F3
s(Vshin
g29
tp8230
F1
s(Vpaper
S'NN'
p8231
tp8232
F1
s(Vbeguiler
g6
tp8233
F1
s(Vtormenting
g6
tp8234
F2
s(VRapes
g15
tp8235
F1
s(Vridiculous
g44
tp8236
F1
s(Vdisease
g6
tp8237
F1
s(Vreally
S'RB'
p8238
tp8239
F2
s(Vwaiting
g6
tp8240
F1
s(Vsuffers
g10
tp8241
F1
s(g616
g44
tp8242
F126
s(Vominous
g44
tp8243
F1
s(Vbred
g24
tp8244
F1
s(Vmeager
g63
tp8245
F1
s(Vgenerally
S'RB'
p8246
tp8247
F1
s(V-punish
g19
tp8248
F1
s(Vwilling
S'JJ'
p8249
tp8250
F5
s(Vsake
g6
tp8251
F5
s(Vdissembled
g24
tp8252
F1
s(Vpublick
g6
tp8253
F5
s(Vsupposed
g44
tp8254
F1
s(Vbreath
g44
tp8255
F1
s(g208
g2179
tp8256
F49
s(Vconjuring
g56
tp8257
F1
s(Vsupported
g71
tp8258
F3
s(Vupbraid
g13
tp8259
F1
s(Vinditing
g6
tp8260
F1
s(VHair
g15
tp8261
F7
s(Vrebells
g59
tp8262
F1
s(Vdistinctly
g35
tp8263
F1
s(Vdrest
g6
tp8264
F1
s(Vdiminisht
g6
tp8265
F1
s(V'em
g15
tp8266
F5
s(Vtracing
g56
tp8267
F1
s(Vspoil
g6
tp8268
F1
s(Vwas
g71
tp8269
F193
s(Vimpatient
g6
tp8270
F8
s(VRhetorick
g15
tp8271
F1
s(g126
g714
tp8272
F8
s(Vprescribe
g6
tp8273
F2
s(Vonly
g35
tp8274
F54
s(VCanticles
g15
tp8275
F1
s(Vwhy
g589
tp8276
F48
s(VSpring
g6
tp8277
F2
s(Vdespairing
g6
tp8278
F1
s(Vmiraculous
g44
tp8279
F1
s(g7112
g616
tp8280
F1
s(Vhated
g44
tp8281
F1
s(Vproportion
g6
tp8282
F3
s(Vshine
g19
tp8283
F1
s(g293
g383
tp8284
F66
s(VFire
g6
tp8285
F2
s(Vsalvages
g10
tp8286
F1
s(S'('
g323
tp8287
F1
s(Vspreading
g56
tp8288
F1
s(Vprettily
g35
tp8289
F2
s(VMouth
g15
tp8290
F3
s(g59
S','
tp8291
F37
s(VMahomet
g15
tp8292
F1
s(VHaste
g6
tp8293
F2
s(Vunderstood
g24
tp8294
F1
s(VMertilla
g6
tp8295
F2
s(VBut
g2032
tp8296
F29
s(V-I
g19
tp8297
F7
s(g76
g35
tp8298
F2
s(Vterms
S'NNS'
p8299
tp8300
F1
s(Vsmiles
g59
tp8301
F1
s(Vdepends
g59
tp8302
F5
s(Vdrives
g59
tp8303
F1
s(Vyielding
g56
tp8304
F1
s(VGracious
g44
tp8305
F1
s(Vam
g2175
tp8306
F108
s(Vleast
g191
tp8307
F29
s(Vmaintain
g19
tp8308
F2
s(Vremote
g44
tp8309
F1
s(Vstrength
S'NN'
p8310
tp8311
F7
s(Vbark
g6
tp8312
F1
s(Vpeace
g6
tp8313
F5
s(Vraffling
g6
tp8314
F1
s(Vconfidence
g6
tp8315
F1
s(Vbetray
g44
tp8316
F5
s(Vfuel
g6
tp8317
F1
s(Vneedless
g6
tp8318
F1
s(VMystery
g6
tp8319
F1
s(g124
g140
tp8320
F16
s(Vhop
g6
tp8321
F1
s(Vtakes
S'VBZ'
p8322
tp8323
F1
s(VObedience
g15
tp8324
F1
s(Vaffronts
g10
tp8325
F1
s(Vknew
g71
tp8326
F16
s(Vbest
g19
tp8327
F1
s(VRams
g15
tp8328
F1
s(Vmad
g73
tp8329
F1
s(Vwant
g6
tp8330
F6
s(Vfinds
g59
tp8331
F2
s(Vthis
g4314
tp8332
F222
s(S'('
g191
tp8333
F1
s(VThousand
g15
tp8334
F31
s(Vrave
g29
tp8335
F12
s(Vretain
g29
tp8336
F1
s(VOpera
g15
tp8337
F1
s(g6
g59
tp8338
F131
s(V-thou
g19
tp8339
F2
s(Vlatter
g44
tp8340
F1
s(V'twere
g76
tp8341
F1
s(VLove
g6
tp8342
F5
s(Vtoward
S'IN'
p8343
tp8344
F1
s(Vtaught
g6
tp8345
F1
s(Vshallow
g44
tp8346
F1
s(g19
g111
tp8347
F17
s(Vperfume
g6
tp8348
F1
s(Vmanagement
S'NN'
p8349
tp8350
F2
s(Vfolded
g44
tp8351
F1
s(Vinsensibles
g10
tp8352
F1
s(V't
g24
tp8353
F1
s(VBloody
g15
tp8354
F1
s(VSparks
g15
tp8355
F1
s(g44
g126
tp8356
F1
s(Varriv
g35
tp8357
F1
s(Vdisadvantage
g6
tp8358
F1
s(V't
g44
tp8359
F1
s(Vwell
g35
tp8360
F41
s(g63
g140
tp8361
F1
s(Vpardon
g44
tp8362
F1
s(VUnfortunate
g15
tp8363
F3
s(Vdwell'st
g6
tp8364
F1
s(Vgoal
S'NN'
p8365
tp8366
F1
s(Valoud
g6
tp8367
F5
s(Vtrue
S'JJ'
p8368
tp8369
F25
s(g4314
g19
tp8370
F8
s(VConqueress
g15
tp8371
F1
s(g15
S','
tp8372
F1045
s(Vtrampling
g6
tp8373
F1
s(Vslave
g44
tp8374
F1
s(Vdeluded
g24
tp8375
F1
s(Vforgotten
g24
tp8376
F4
s(S')'
g589
tp8377
F2
s(Vas
g35
tp8378
F48
s(VMortal
g15
tp8379
F2
s(Vrepetitions
g10
tp8380
F1
s(Vindearing
g56
tp8381
F1
s(S')'
g71
tp8382
F7
s(Vlear
g29
tp8383
F1
s(Vuntouch
g44
tp8384
F2
s(Voblig
g29
tp8385
F2
s.