ccollections
defaultdict
p1
(c__builtin__
float
p2
tRp3
(VHobbinol
S'NNP'
p4
tp5
F1
s(g4
S'.'
tp6
F10
s(VFor
S'IN'
p7
tp8
F1
s(S'JJ'
p9
S')'
tp10
F1
s(S'VB'
p11
S'.'
tp12
F2
s(S'IN'
p13
S'NN'
p14
tp15
F1
s(Vyoung
S'JJ'
p16
tp17
F1
s(S'WDT'
p18
S'DT'
p19
tp20
F1
s(VMico
g4
tp21
F1
s(S'PRP$'
p22
g4
tp23
F3
s(Vdifference
S'NN'
p24
tp25
F1
s(Vlittle
S'JJ'
p26
tp27
F2
s(VYour
g22
tp28
F1
s(Vharp
g11
tp29
F1
s(S':'
g22
tp30
F1
s(VCare
g4
tp31
F1
s(VTales
g4
tp32
F1
s(VEndive
g4
tp33
F1
s(VMedly
g4
tp34
F1
s(S'RB'
p35
S'.'
tp36
F1
s(Vdescribed
S'VBN'
p37
tp38
F1
s(VKing-Cup
g4
tp39
F1
s(VTo
S'TO'
p40
tp41
F2
s(S','
S'WRB'
p42
tp43
F3
s(S'PRP'
p44
g11
tp45
F2
s(S'VBG'
p46
S'RB'
p47
tp48
F1
s(Vpursue
S'NN'
p49
tp50
F1
s(S')'
S'DT'
p51
tp52
F1
s(Vore
g47
tp53
F1
s(g47
S'VBZ'
p54
tp55
F1
s(VMeadow
g4
tp56
F1
s(Vdance
g11
tp57
F1
s(VTale
g4
tp58
F1
s(S'VBD'
p59
g49
tp60
F1
s(Vfrom
S'IN'
p61
tp62
F3
s(S':'
g4
tp63
F1
s(VOld
g4
tp64
F1
s(Vthe
g19
tp65
F26
s(Vwith
S'IN'
p66
tp67
F2
s(VI
S'PRP'
p68
tp69
F4
s(S'VBZ'
p70
g19
tp71
F2
s(Vblue
g49
tp72
F1
s(g4
S'MD'
p73
tp74
F1
s(Vhow
g42
tp75
F3
s(g70
S'TO'
p76
tp77
F2
s(Vdevised
g37
tp78
F1
s(Vup
S'RP'
p79
tp80
F1
s(VDaisies
g4
tp81
F1
s(S'('
S'IN'
p82
tp83
F1
s(VCuddy
g4
tp84
F1
s(Vpublick
g26
tp85
F1
s(Vcame
S'VBD'
p86
tp87
F1
s(S'POS'
p88
g4
tp89
F1
s(g11
S'VBP'
p90
tp91
F1
s(Vthink
g90
tp92
F1
s(g11
g4
tp93
F1
s(g82
S'RB'
p94
tp95
F1
s(S'VBD'
p96
g13
tp97
F2
s(Vpity
g49
tp98
F1
s(S'VB'
p99
g37
tp100
F3
s(VPigmy
g4
tp101
F1
s(S'CC'
p102
g26
tp103
F1
s(Vnow
g35
tp104
F1
s(S'MD'
p105
g44
tp106
F2
s(g47
g26
tp107
F4
s(Vsing
g49
tp108
F1
s(S'DT'
p109
S'PRP$'
p110
tp111
F1
s(VFairy
g4
tp112
F1
s(VSong
g4
tp113
F1
s(VHark
g4
tp114
F1
s(Vand
g102
tp115
F13
s(g102
g19
tp116
F4
s(Vdeceives
g70
tp117
F1
s(g37
S'IN'
p118
tp119
F2
s(g47
g37
tp120
F1
s(g4
S'WRB'
p121
tp122
F1
s(S'CC'
p123
g68
tp124
F1
s(VTheology
g4
tp125
F2
s(g4
g19
tp126
F1
s(g49
S'NNPS'
p127
tp128
F1
s(Vlingring
g49
tp129
F1
s(S'MD'
p130
g11
tp131
F4
s(Vchief
g49
tp132
F1
s(g121
g26
tp133
F1
s(S'IN'
p134
g109
tp135
F13
s(S'WP'
p136
g49
tp137
F1
s(VWHAT
g136
tp138
F1
s(VRouts
g4
tp139
F1
s(VBranches
S'NNS'
p140
tp141
F1
s(Vpretty
g47
tp142
F1
s(Vwould
S'MD'
p143
tp144
F1
s(S'PDT'
p145
g19
tp146
F1
s(g4
g46
tp147
F3
s(Vthan
S'IN'
p148
tp149
F1
s(Vparticularly
S'RB'
p150
tp151
F1
s(VReason
g4
tp152
F1
s(g140
S'MD'
p153
tp154
F1
s(Vare
S'VBP'
p155
tp156
F3
s(Vwere
g59
tp157
F1
s(Vplease
g11
tp158
F1
s(S'JJS'
p159
g18
tp160
F1
s(g4
g102
tp161
F3
s(S','
g13
tp162
F5
s(Vsay
g90
tp163
F1
s(VMr.
S'NNP'
p164
tp165
F1
s(V'd
g73
tp166
F2
s(Vtuneful
g26
tp167
F2
s(Vbest
g159
tp168
F1
s(S'PRP$'
p169
g49
tp170
F5
s(g49
g47
tp171
F2
s(g47
S':'
tp172
F1
s(VSo
g4
tp173
F1
s(VDance
g4
tp174
F1
s(g140
g90
tp175
F2
s(g4
g49
tp176
F9
s(g26
S'IN'
p177
tp178
F2
s(VMoulin
g4
tp179
F1
s(g26
S':'
tp180
F1
s(S'EX'
p181
S'MD'
p182
tp183
F1
s(V's
g88
tp184
F1
s(VGrass
g4
tp185
F1
s(S'DT'
p186
g4
tp187
F21
s(VAnd
S'CC'
p188
tp189
F8
s(g150
g118
tp190
F2
s(Vown
g26
tp191
F1
s(V(
S'('
tp192
F1
s(g140
g102
tp193
F1
s(VImitation
g4
tp194
F2
s(g140
S','
tp195
F3
s(S'PRP'
p196
g76
tp197
F1
s(S'DT'
p198
g49
tp199
F14
s(g49
S'.'
tp200
F5
s(Vseveral
S'JJ'
p201
tp202
F1
s(VAbout
g13
tp203
F1
s(VSongs
g140
tp204
F1
s(S'PRP'
p205
g70
tp206
F1
s(Vhath
g49
tp207
F1
s(VLaurel
g4
tp208
F1
s(Vbalmy
g49
tp209
F1
s(S'PRP$'
p210
g26
tp211
F4
s(Vbeneath
g49
tp212
F1
s(g42
g143
tp213
F1
s(Vall
g109
tp214
F2
s(S','
g16
tp215
F1
s(Vtender
g49
tp216
F1
s(VGreen
g4
tp217
F2
s(VBirds
g4
tp218
F1
s(g49
g66
tp219
F5
s(g49
S','
tp220
F5
s(g90
g13
tp221
F2
s(VWay
g4
tp222
F1
s(VWith
S'IN'
p223
tp224
F1
s(Va
S'DT'
p225
tp226
F2
s(VSome
S'DT'
p227
tp228
F1
s(Vplay
g49
tp229
F1
s(g155
g37
tp230
F1
s(S':'
g123
tp231
F3
s(VThrush
g4
tp232
F1
s(Vgambol
g49
tp233
F1
s(g37
g47
tp234
F1
s(VPersons
g140
tp235
F1
s(S','
g40
tp236
F2
s(VDay
g4
tp237
F1
s(Vmany
S'JJ'
p238
tp239
F1
s(Vis
g54
tp240
F4
s(Vleisure
g49
tp241
F1
s(Vlavish
g11
tp242
F1
s(Vtill
g26
tp243
F1
s(VWitches
g4
tp244
F1
s(g140
g49
tp245
F1
s(VUpraise
g4
tp246
F1
s(g47
S','
tp247
F2
s(Vwill
g73
tp248
F1
s(Vself
g49
tp249
F1
s(VFairies
g4
tp250
F1
s(g11
S','
tp251
F1
s(VGoblet
g4
tp252
F1
s(Vme
g196
tp253
F1
s(S'JJ'
p254
S','
tp255
F2
s(VHearts
g4
tp256
F1
s(VPoplar
g4
tp257
F1
s(VFountain
g4
tp258
F1
s(Vbeen
S'VBN'
p259
tp260
F1
s(g4
S':'
tp261
F2
s(Vgreen
g49
tp262
F1
s(g26
g49
tp263
F2
s(Vhere
S'RB'
p264
tp265
F1
s(Vdevoid
g49
tp266
F1
s(Vever
g94
tp267
F1
s(VSports
g140
tp268
F1
s(Vcould
g105
tp269
F1
s(V;
S':'
tp270
F3
s(Vcapable
g26
tp271
F1
s(g11
g19
tp272
F6
s(Vnamely
g47
tp273
F1
s(VAiry
g4
tp274
F1
s(Vreaches
g70
tp275
F1
s(Ventirely
g47
tp276
F1
s(VMy
g22
tp277
F1
s(Vthese
g186
tp278
F1
s(VSun
S'NNP'
p279
tp280
F1
s(Vour
g210
tp281
F3
s(g47
g186
tp282
F2
s(g18
g54
tp283
F2
s(Vancient
g26
tp284
F2
s(Vshift
g11
tp285
F1
s(g11
S'PRP'
p286
tp287
F2
s(VWanton
g4
tp288
F1
s(g13
g205
tp289
F4
s(VSoil
g4
tp290
F1
s(VPoetry
g4
tp291
F1
s(g68
S','
tp292
F2
s(VHow
S'WRB'
p293
tp294
F1
s(g11
S'IN'
p295
tp296
F2
s(Vmerry
g11
tp297
F1
s(V:
S':'
tp298
F2
s(Vpart
g14
tp299
F1
s(Vmade
g37
tp300
F2
s(VAncients
g140
tp301
F1
s(g37
g54
tp302
F1
s(g286
S'IN'
p303
tp304
F2
s(g49
g4
tp305
F8
s(VTheir
g22
tp306
F1
s(g42
g19
tp307
F2
s(Vthere
g181
tp308
F1
s(g164
g4
tp309
F13
s(VDress
g4
tp310
F1
s(g102
g4
tp311
F9
s(g49
g76
tp312
F2
s(Vsuch
g26
tp313
F1
s(g295
g4
tp314
F14
s(g47
g47
tp315
F2
s(g96
S'VBN'
p316
tp317
F1
s(VPope
g4
tp318
F1
s(Vwell
g49
tp319
F1
s(Vrustick
g49
tp320
F1
s(V)
S')'
tp321
F1
s(VBramble-Bush
g4
tp322
F1
s(Vclimbs
g70
tp323
F1
s(g4
g96
tp324
F6
s(g13
g134
tp325
F3
s(g76
g11
tp326
F10
s(Vmy
g110
tp327
F2
s(VSweets
g127
tp328
F1
s(g49
g259
tp329
F2
s(Vbe
g99
tp330
F3
s(VMirth
g4
tp331
F2
s(Vintroduced
g37
tp332
F1
s(g293
g47
tp333
F1
s(g155
g47
tp334
F1
s(g49
S':'
tp335
F1
s(g140
g225
tp336
F1
s(Vit
g205
tp337
F3
s(Vmay
g130
tp338
F1
s(Ventertaining
g26
tp339
F1
s(Vabout
g13
tp340
F1
s(VWoodbine
g4
tp341
F1
s(Vits
g22
tp342
F1
s(VPlace
g49
tp343
F1
s(g26
g140
tp344
F7
s(g68
g90
tp345
F3
s(Vrustical
g26
tp346
F1
s(Vuniversally
g47
tp347
F1
s(g177
g210
tp348
F3
s(VShade
g4
tp349
F1
s(Vbreathe
g11
tp350
F1
s(V'Mong
g4
tp351
F1
s(VHead
g4
tp352
F2
s(g90
g19
tp353
F2
s(VIn
g13
tp354
F2
s(VWont
g4
tp355
F1
s(VHue
g4
tp356
F1
s(g4
g145
tp357
F1
s(Vthrough
g13
tp358
F1
s(Vshall
g182
tp359
F1
s(g4
g90
tp360
F2
s(Vall
g145
tp361
F1
s(Vin
g303
tp362
F3
s(Vtempt
g11
tp363
F1
s(g94
g90
tp364
F1
s(VFlow'r
g4
tp365
F1
s(VSayings
g4
tp366
F1
s(Vextreamly
g47
tp367
F1
s(S'RBR'
p368
S'VBN'
p369
tp370
F1
s(VExamples
g140
tp371
F1
s(Vtheir
g169
tp372
F3
s(Vcircling
g46
tp373
F1
s(Vstrew
g96
tp374
F1
s(Vmantling
g46
tp375
F1
s(g136
g368
tp376
F1
s(Vfair
g49
tp377
F1
s(g225
S'JJ'
p378
tp379
F5
s(g26
S'.'
tp380
F1
s(Vall
g47
tp381
F1
s(VMusick
g4
tp382
F1
s(g70
g22
tp383
F2
s(VPastoral
g4
tp384
F1
s(V.
S'.'
tp385
F13
s(Vbeing
S'VBG'
p386
tp387
F3
s(S','
g47
tp388
F2
s(Vmine
g11
tp389
F1
s(g76
g4
tp390
F1
s(Vdeftly
g47
tp391
F1
s(VPastoral
g26
tp392
F1
s(Varound
g13
tp393
F1
s(g88
g26
tp394
F1
s(Vthat
g109
tp395
F1
s(VCowslip
g4
tp396
F1
s(Vdewy
g49
tp397
F1
s(Vflowing
g46
tp398
F1
s(VGoldfinch
g4
tp399
F1
s(VHob-thrushes
g4
tp400
F1
s(V--
S':'
tp401
F1
s(VFairies
g140
tp402
F1
s(g210
g140
tp403
F2
s(g96
S','
tp404
F3
s(Vlearn
g11
tp405
F1
s(Vdeal
g11
tp406
F1
s(g19
g46
tp407
F2
s(Vmade
g96
tp408
F2
s(Vas
g13
tp409
F2
s(Vchange
g11
tp410
F1
s(g51
g140
tp411
F2
s(g386
g19
tp412
F1
s(VWhilome
g4
tp413
F1
s(g11
S'PRP$'
p414
tp415
F2
s(V\u005c
g49
tp416
F1
s(VGround
g49
tp417
F1
s(g86
S'.'
tp418
F1
s(Vof
g177
tp419
F12
s(Vby
g118
tp420
F2
s(VWarblings
g140
tp421
F1
s(g26
g127
tp422
F1
s(g37
S','
tp423
F2
s(VOaten
g4
tp424
F1
s(VFame
g4
tp425
F1
s(g37
g18
tp426
F1
s(Vto
g76
tp427
F9
s(g13
g46
tp428
F3
s(VGarden
g4
tp429
F1
s(Vwarbled
g96
tp430
F1
s(S','
g70
tp431
F1
s(VAlbino
g4
tp432
F1
s(VHamlets
g140
tp433
F1
s(g4
g254
tp434
F1
s(g19
g159
tp435
F1
s(Vevery
S'DT'
p436
tp437
F1
s(VGoblins
g4
tp438
F1
s(g73
g66
tp439
F2
s(g140
g96
tp440
F1
s(Vso
g47
tp441
F2
s(VThe
g51
tp442
F7
s(g140
g177
tp443
F3
s(g79
g13
tp444
F1
s(g4
g110
tp445
F2
s(VLads
g4
tp446
F1
s(Vthey
g44
tp447
F4
s(VViolet
g4
tp448
F1
s(VPoets
g140
tp449
F1
s(Vseen
g369
tp450
F1
s(VArts
g4
tp451
F1
s(VIts
g414
tp452
F1
s(Vdid
S'VBD'
p453
tp454
F1
s(VDances
g4
tp455
F1
s(Vsaid
S'VBD'
p456
tp457
F1
s(Vadown
g13
tp458
F1
s(Vbeautiful
g26
tp459
F1
s(g49
S'('
tp460
F1
s(VLobbin
g4
tp461
F1
s(g102
g150
tp462
F2
s(VReed
g4
tp463
F1
s(g90
g169
tp464
F1
s(Vantick
g49
tp465
F1
s(Vvarious
S'JJ'
p466
tp467
F1
s(g26
g26
tp468
F2
s(g127
g13
tp469
F1
s(VNor
S'CC'
p470
tp471
F1
s(Vjoin
g11
tp472
F1
s(g46
g4
tp473
F5
s(Vbut
g123
tp474
F1
s(V,
S','
tp475
F45
s(VTHE
g109
tp476
F2
s(VFeet
g4
tp477
F1
s(Vwhite
g254
tp478
F1
s(g4
g76
tp479
F2
s(g155
g26
tp480
F3
s(Vspringing
g49
tp481
F1
s(g37
g4
tp482
F1
s(S':'
g47
tp483
F1
s(V?
S'.'
tp484
F3
s(Vrest
g49
tp485
F1
s(Vcheerful
g26
tp486
F1
s(g259
g456
tp487
F1
s(V'
g88
tp488
F2
s(g4
g181
tp489
F1
s(VThro
g4
tp490
F1
s(VLasses
g4
tp491
F1
s(g47
g76
tp492
F2
s(g4
g88
tp493
F3
s(Vif
g82
tp494
F2
s(Vshould
g153
tp495
F1
s(Vheedless
g49
tp496
F1
s(g4
g177
tp497
F9
s(Vus
g286
tp498
F1
s(Vmerry
g49
tp499
F1
s(Vupon
g13
tp500
F1
s(VKing
g4
tp501
F1
s(Vhis
S'PRP$'
p502
tp503
F1
s(Vfor
g295
tp504
F2
s(Vsweet
g26
tp505
F1
s(g188
g49
tp506
F2
s(Vwhy
g121
tp507
F1
s(VSpring
g49
tp508
F1
s(VThis
g198
tp509
F1
s(g4
g140
tp510
F1
s(VRing
g4
tp511
F1
s(g4
g44
tp512
F1
s(g37
g79
tp513
F1
s(VEglantine
g4
tp514
F1
s(Vgaudy
g49
tp515
F1
s(g127
g155
tp516
F1
s(VStore
g4
tp517
F1
s(VConsort
g4
tp518
F2
s(Vwhich
g18
tp519
F3
s(Vgrows
g140
tp520
F1
s(Vbring
g90
tp521
F1
s(Vvery
g47
tp522
F3
s(Vtrue
g9
tp523
F1
s(Vbe-spread
g49
tp524
F1
s(VElves
g70
tp525
F1
s(Vbetter
g368
tp526
F1
s(Vwas
g96
tp527
F1
s(Vgolden
g378
tp528
F1
s(Vconsecrate
g49
tp529
F1
s(Von
g134
tp530
F2
s(VClimate
g4
tp531
F1
s(VSports
g127
tp532
F1
s(Vhad
g96
tp533
F1
s(g4
g47
tp534
F2
s(S','
g102
tp535
F16
s(VRose
g4
tp536
F1
s(VGame
g4
tp537
F1
s(S','
g4
tp538
F11
s(VShepherds
g4
tp539
F3
s(VGreen
g26
tp540
F1
s(Vyearn
g11
tp541
F1
s(S','
g19
tp542
F3
s(Vretained
g37
tp543
F1
s(Vadmist
g70
tp544
F1
s(VElms
g4
tp545
F1
s(g42
g205
tp546
F1
s(g54
g47
tp547
F3
s(VWhile
S'IN'
p548
tp549
F1
s(VProverbial
g4
tp550
F1
s(g205
S':'
tp551
F1
s(Vupon
g90
tp552
F1
s(g386
g37
tp553
F1
s(VWho
g136
tp554
F1
s(VSuperstition
g49
tp555
F1
s(Vchase
g11
tp556
F1
s(g26
g4
tp557
F10
s(Vthis
S'DT'
p558
tp559
F2
s(Vsmelling
g46
tp560
F1
s(VChanges
g140
tp561
F1
s(g49
g96
tp562
F1
s(g188
g11
tp563
F3
s(V-O
g470
tp564
F1
s(g470
g105
tp565
F1
s(g177
g26
tp566
F6
s(VRound
g4
tp567
F1
s(S','
g49
tp568
F1
s(g49
g70
tp569
F1
s(VSprights
g140
tp570
F1
s(Vout
g13
tp571
F1
s(g4
g11
tp572
F1
s(Vup-rears
g70
tp573
F1
s(V!
S'.'
tp574
F4
s(Vunite
g90
tp575
F1
s(g49
g130
tp576
F3
s(Vmake
g90
tp577
F1
s(VSports
g4
tp578
F1
s(Vthat
g13
tp579
F5
s(VMoon-light
g26
tp580
F1
s(Vpleasing
g46
tp581
F1
s(VShade
g49
tp582
F1
s(Vfollowing
g26
tp583
F1
s(Vambitious
g26
tp584
F1
s(Vfill
g90
tp585
F1
s(g205
g59
tp586
F1
s(Vobvious
g26
tp587
F1
s(Vwin
g11
tp588
F1
s(VSky
g4
tp589
F1
s(Vdapper
g49
tp590
F1
s(VTh
g4
tp591
F1
s(Vdone
g316
tp592
F1
s(VGambols
g4
tp593
F1
s(Vonly
g47
tp594
F1
s(g49
g140
tp595
F1
s(VCustoms
g4
tp596
F1
s(Vseem
g11
tp597
F1
s(g4
S','
tp598
F25
s(Vknown
g37
tp599
F1
s(Vlovingly
g47
tp600
F1
s(g4
g70
tp601
F3
s(g88
g18
tp602
F1
s(g453
g68
tp603
F2
s(VQueen
g4
tp604
F1
s(VVine
g4
tp605
F1
s(Vwhen
g293
tp606
F1
s(Vcombine
g49
tp607
F1
s(VLo
g4
tp608
F1
s(g188
g293
tp609
F1
s.