ccollections
defaultdict
p1
(c__builtin__
float
p2
tRp3
(VMeans
S'NNPS'
p4
tp5
F1
s(VMercury
S'NNP'
p6
tp7
F1
s(VWork
g6
tp8
F1
s(g6
S'.'
tp9
F22
s(S'IN'
p10
S'WDT'
p11
tp12
F4
s(Vdo
S'VBP'
p13
tp14
F1
s(VFor
S'IN'
p15
tp16
F6
s(Vquantum
S'VB'
p17
tp18
F1
s(g17
S'.'
tp19
F1
s(S'IN'
p20
S'NN'
p21
tp22
F2
s(S'JJ'
p23
S'MD'
p24
tp25
F1
s(Vtogether
S'RB'
p26
tp27
F3
s(g11
S'DT'
p28
tp29
F1
s(S'PRP$'
p30
g6
tp31
F14
s(S'NNS'
p32
S'.'
tp33
F2
s(Vlike
S'IN'
p34
tp35
F1
s(S','
g34
tp36
F14
s(Vnisi
g23
tp37
F1
s(S':'
S'PRP'
p38
tp39
F2
s(VIliads
g6
tp40
F1
s(S'WP'
p41
g24
tp42
F1
s(g26
S'.'
tp43
F3
s(S'DT'
p44
g6
tp45
F51
s(S','
S'VBD'
p46
tp47
F2
s(VTo
S'TO'
p48
tp49
F3
s(VDedication
g6
tp50
F1
s(Vthat
g11
tp51
F1
s(Vthan
S'IN'
p52
tp53
F1
s(Vbad
S'JJ'
p54
tp55
F1
s(VEnglish
g6
tp56
F1
s(S'PRP'
p57
S'MD'
p58
tp59
F17
s(S'PRP'
p60
g17
tp61
F2
s(S')'
S'DT'
p62
tp63
F1
s(VFerment
g6
tp64
F1
s(VNodus
g6
tp65
F1
s(Vmiddle
S'NN'
p66
tp67
F1
s(VAuthors
g6
tp68
F1
s(VTale
g6
tp69
F1
s(Vsay
g17
tp70
F1
s(Vbecame
S'VBD'
p71
tp72
F1
s(Vdanger
g66
tp73
F1
s(VComposition
g6
tp74
F1
s(S'EX'
p75
g17
tp76
F1
s(VChapter
g66
tp77
F1
s(Vfrom
S'IN'
p78
tp79
F6
s(Vold
S'JJ'
p80
tp81
F1
s(VOld
g6
tp82
F2
s(VLetters
g6
tp83
F1
s(S'EX'
p84
S'VBZ'
p85
tp86
F1
s(S'DT'
p87
g57
tp88
F4
s(Vwhether
S'IN'
p89
tp90
F1
s(Vthe
g28
tp91
F46
s(Vwith
S'IN'
p92
tp93
F9
s(VI
g57
tp94
F5
s(g85
S'DT'
p95
tp96
F2
s(S'PRP$'
p97
S'JJS'
p98
tp99
F1
s(Vremaining
S'VBG'
p100
tp101
F1
s(Vmidst
g66
tp102
F1
s(g98
g4
tp103
F1
s(VTheory
g6
tp104
F1
s(g85
S'TO'
p105
tp106
F4
s(Vor
S'CC'
p107
tp108
F8
s(VEpick
g6
tp109
F2
s(Vintersit
g66
tp110
F1
s(S'('
g20
tp111
F2
s(g85
S','
tp112
F1
s(g17
g6
tp113
F5
s(VCreation
g6
tp114
F1
s(S'VBP'
p115
g105
tp116
F1
s(VPerson
g6
tp117
F1
s(VSkill
g6
tp118
F1
s(Vseen
S'VBN'
p119
tp120
F1
s(S'VB'
p121
S'VBN'
p122
tp123
F10
s(g13
S','
tp124
F2
s(VPainter
g6
tp125
F1
s(VEye
g6
tp126
F1
s(g98
g32
tp127
F1
s(S'RB'
p128
S'CC'
p129
tp130
F1
s(VBe
g17
tp131
F1
s(S'RB'
p132
g17
tp133
F5
s(g87
g24
tp134
F2
s(g26
S'JJ'
p135
tp136
F3
s(Vburnt
g32
tp137
F1
s(g66
g11
tp138
F1
s(VTown
g6
tp139
F1
s(g6
S'PRP'
p140
tp141
F3
s(g107
S'DT'
p142
tp143
F4
s(VImages
g6
tp144
F1
s(Vdo
g17
tp145
F2
s(S','
S'MD'
p146
tp147
F1
s(g122
S'IN'
p148
tp149
F6
s(S','
g17
tp150
F5
s(VCapital
g6
tp151
F1
s(g26
g122
tp152
F2
s(Vheap
g23
tp153
F1
s(VStory
g6
tp154
F1
s(Vpromise
g17
tp155
F1
s(VThe
S'DT'
p156
tp157
F1
s(S','
g87
tp158
F6
s(g6
g62
tp159
F2
s(VBut
S'CC'
p160
tp161
F3
s(VAlphabet
g6
tp162
F1
s(VJuno
g6
tp163
F1
s(Vmake
g17
tp164
F4
s(VQuality
g66
tp165
F1
s(S'RB'
p166
g38
tp167
F1
s(g58
g121
tp168
F20
s(Vstrain
g13
tp169
F1
s(VDescription
g66
tp170
F1
s(g100
g66
tp171
F1
s(V-For
S'VBZ'
p172
tp173
F1
s(Velse
g26
tp174
F1
s(Vwhen
S'WRB'
p175
tp176
F1
s(g10
g44
tp177
F53
s(VParts
g32
tp178
F1
s(VZephyr
g6
tp179
F1
s(VAdventures
g6
tp180
F1
s(VSight
g6
tp181
F1
s(g38
S'JJR'
p182
tp183
F1
s(g23
S'PRP'
p184
tp185
F2
s(VConsistency
g6
tp186
F1
s(Vcast
g46
tp187
F1
s(g23
g105
tp188
F3
s(Vadvise
g17
tp189
F1
s(S'RB'
p190
S'VBG'
p191
tp192
F1
s(VDescriptions
g6
tp193
F1
s(Vremain
g13
tp194
F1
s(VSpirits
g32
tp195
F1
s(VPiece
g6
tp196
F1
s(VOriginals
g32
tp197
F1
s(S'POS'
p198
g6
tp199
F2
s(VUse
g6
tp200
F2
s(VVirgil
g6
tp201
F3
s(g6
g107
tp202
F10
s(VPrescription
g66
tp203
F1
s(V-
S':'
tp204
F1
s(VSuccidaneum
g66
tp205
F1
s(Vover
g34
tp206
F1
s(Vprepared
g122
tp207
F1
s(g129
g46
tp208
F2
s(Vtill
g34
tp209
F1
s(Vcompleate
g66
tp210
F1
s(VAuster
g6
tp211
F1
s(V'd
g146
tp212
F1
s(Van
g44
tp213
F6
s(S':'
S'IN'
p214
tp215
F3
s(S':'
g28
tp216
F2
s(S'PRP$'
p217
g66
tp218
F6
s(VGrecisms
g6
tp219
F1
s(VOccasion
g6
tp220
F1
s(g26
S':'
tp221
F1
s(Vsubsist
g17
tp222
F1
s(Vgather
g17
tp223
F2
s(Vtwo
S'CD'
p224
tp225
F4
s(Vsubject
g23
tp226
F1
s(S'IN'
p227
g84
tp228
F1
s(VPut
g17
tp229
F1
s(g107
g224
tp230
F2
s(g6
g66
tp231
F3
s(g23
g20
tp232
F6
s(Vbest
g98
tp233
F2
s(g23
S':'
tp234
F1
s(V's
g198
tp235
F3
s(VHorace
g6
tp236
F1
s(Venough
g23
tp237
F1
s(Vput
g17
tp238
F1
s(Vblowing
g66
tp239
F1
s(g46
g105
tp240
F1
s(g66
g66
tp241
F1
s(g34
g46
tp242
F1
s(Vequal
g23
tp243
F1
s(Vtheir
S'PRP$'
p244
tp245
F1
s(Vanswer
g13
tp246
F1
s(S'RB'
p247
g34
tp248
F6
s(Vown
g23
tp249
F1
s(Vconquer
g17
tp250
F2
s(VMaster
g6
tp251
F1
s(Veasier
g182
tp252
F1
s(V(
S'('
tp253
F4
s(S'RP'
p254
S','
tp255
F1
s(S'MD'
p256
S')'
tp257
F1
s(g32
S','
tp258
F4
s(S':'
g17
tp259
F2
s(Vhe
g140
tp260
F3
s(g66
S'.'
tp261
F6
s(VSimiles
g6
tp262
F2
s(g38
g85
tp263
F8
s(g17
g107
tp264
F1
s(g119
g28
tp265
F2
s(g97
S'JJ'
p266
tp267
F2
s(g32
g184
tp268
F1
s(VQuantity
g6
tp269
F1
s(Vrequired
g122
tp270
F1
s(S','
g23
tp271
F3
s(Vdignus
g66
tp272
F1
s(Vsufficit
g66
tp273
F1
s(Vthing
S'NN'
p274
tp275
F1
s(g224
g10
tp276
F3
s(Vacquainted
g122
tp277
F1
s(g148
S'PDT'
p278
tp279
F2
s(VBillows
g6
tp280
F1
s(VLightning
g6
tp281
F1
s(VLinguists
g32
tp282
F1
s(g66
S','
tp283
F7
s(g13
S'IN'
p284
tp285
F1
s(VWith
S'IN'
p286
tp287
F1
s(Vapplyed
g46
tp288
F1
s(g284
S'CD'
p289
tp290
F3
s(VAs
g34
tp291
F1
s(VMan
g66
tp292
F1
s(Va
g95
tp293
F23
s(VCourse
g6
tp294
F1
s(VExtract
g17
tp295
F1
s(VVirtues
g32
tp296
F1
s(Vthrow
g17
tp297
F1
s(VAccident
g66
tp298
F1
s(g13
S'VBN'
p299
tp300
F3
s(S':'
g129
tp301
F4
s(g6
g4
tp302
F1
s(g46
S'RB'
p303
tp304
F1
s(g129
g4
tp305
F1
s(g17
S'NN'
p306
tp307
F3
s(g71
g95
tp308
F2
s(Vmany
S'JJ'
p309
tp310
F1
s(Vhim
g60
tp311
F8
s(Vis
g85
tp312
F16
s(Vformer
g266
tp313
F1
s(Vextract
g17
tp314
F1
s(Vlet
g17
tp315
F1
s(S','
S'('
tp316
F1
s(Vlearned
g122
tp317
F1
s(g84
g115
tp318
F2
s(Vquantity
g66
tp319
F1
s(g122
g122
tp320
F1
s(g26
S','
tp321
F2
s(S')'
g54
tp322
F1
s(Vthem
S'PRP'
p323
tp324
F13
s(Vat
g214
tp325
F4
s(Vdown
g34
tp326
F1
s(Vfamiliarly
g26
tp327
F1
s(g26
g66
tp328
F1
s(Vup
g34
tp329
F1
s(Vwithout
S'IN'
p330
tp331
F3
s(Vextricate
g17
tp332
F1
s(Vwell
g26
tp333
F5
s(S'DT'
p334
g85
tp335
F2
s(VProfessor
g6
tp336
F1
s(VPaper
g6
tp337
F1
s(Vput
g46
tp338
F1
s(VQuicksand
g6
tp339
F1
s(Vsetting
g100
tp340
F1
s(Vbeen
g299
tp341
F1
s(VGenius
g6
tp342
F2
s(g6
S':'
tp343
F6
s(VWhen
S'WRB'
p344
tp345
F1
s(g23
g66
tp346
F10
s(VNecessities
g4
tp347
F1
s(Vhere
g128
tp348
F1
s(VLet
g17
tp349
F1
s(Vexact
g23
tp350
F1
s(g60
g254
tp351
F1
s(g121
g23
tp352
F7
s(Vdarkening
g100
tp353
F1
s(Vcould
S'MD'
p354
tp355
F1
s(Vevaporate
g17
tp356
F1
s(g17
S'DT'
p357
tp358
F11
s(g198
S'NN'
p359
tp360
F1
s(g48
g21
tp361
F1
s(VArt
g66
tp362
F1
s(VMetaphors
g4
tp363
F1
s(VSkirmish
g66
tp364
F1
s(VBurning
g6
tp365
F1
s(Vmollifie
g46
tp366
F1
s(VBelianis
g6
tp367
F1
s(Vsince
S'IN'
p368
tp369
F1
s(VImitator
g6
tp370
F1
s(VThunder
g6
tp371
F1
s(Vour
g30
tp372
F2
s(VMale
g6
tp373
F1
s(Vsufficient
g23
tp374
F1
s(Vone
g289
tp375
F4
s(g11
g172
tp376
F1
s(Vno
g44
tp377
F5
s(g17
g60
tp378
F12
s(g32
g121
tp379
F1
s(g11
g46
tp380
F1
s(g34
g38
tp381
F14
s(Vneed
g122
tp382
F1
s(VAdventure
g66
tp383
F1
s(VPoetry
g6
tp384
F1
s(Vnotorious
g23
tp385
F1
s(g41
g71
tp386
F1
s(VHeroes
g6
tp387
F1
s(VThen
g132
tp388
F1
s(V:
S':'
tp389
F5
s(g122
g85
tp390
F1
s(VHistory-books
g6
tp391
F1
s(g323
g214
tp392
F12
s(g21
g6
tp393
F3
s(g289
g6
tp394
F2
s(g17
g34
tp395
F10
s(g122
g105
tp396
F3
s(VDays
g32
tp397
F1
s(Vthere
g84
tp398
F3
s(Vthese
g357
tp399
F6
s(VDescription
g6
tp400
F1
s(VLanguages
g6
tp401
F1
s(VSmoak
g66
tp402
F1
s(g172
S'RBS'
p403
tp404
F1
s(VHeaven
g6
tp405
F1
s(VDevils
g6
tp406
F1
s(g38
g44
tp407
F2
s(g66
g105
tp408
F2
s(VFemale
g6
tp409
F1
s(Vthicken
g17
tp410
F1
s(g115
g32
tp411
F1
s(g148
g6
tp412
F31
s(g190
g26
tp413
F3
s(g323
g26
tp414
F4
s(g6
g97
tp415
F2
s(g17
g278
tp416
F1
s(Vwell
g66
tp417
F1
s(g6
g6
tp418
F14
s(VDamage
g66
tp419
F1
s(VDeities
g6
tp420
F1
s(V)
S')'
tp421
F4
s(VBrew
g6
tp422
F1
s(g10
S'.'
tp423
F1
s(Vso
g34
tp424
F1
s(g6
g46
tp425
F1
s(Vuse
g17
tp426
F1
s(VCollection
g66
tp427
F1
s(g105
g17
tp428
F19
s(Vreadily
g26
tp429
F1
s(g66
g122
tp430
F2
s(g48
g87
tp431
F7
s(g105
S','
tp432
F1
s(g32
g85
tp433
F1
s(g46
g217
tp434
F1
s(g299
g26
tp435
F2
s(g32
g105
tp436
F2
s(Vsure
g23
tp437
F2
s(VName
g66
tp438
F2
s(S'('
g57
tp439
F1
s(VCambridge
g6
tp440
F1
s(g115
g26
tp441
F2
s(Vdetermined
g122
tp442
F1
s(g66
S':'
tp443
F3
s(g87
S','
tp444
F1
s(Vany
g142
tp445
F8
s(g92
S'JJ'
p446
tp447
F4
s(VRomance
g6
tp448
F1
s(Vmay
g24
tp449
F10
s(Vthrown
g122
tp450
F1
s(Vinvolve
g17
tp451
F1
s(g105
g217
tp452
F3
s(VChange
g6
tp453
F1
s(g107
g6
tp454
F11
s(Vmean
g13
tp455
F1
s(g100
g323
tp456
F3
s(g23
g32
tp457
F6
s(VImpossibilities
g6
tp458
F1
s(VConclusion
g6
tp459
F1
s(g57
g13
tp460
F10
s(S':'
g41
tp461
F1
s(g95
g66
tp462
F15
s(VAuthors
g32
tp463
F1
s(g11
g30
tp464
F2
s(g10
g217
tp465
F11
s(g122
g32
tp466
F1
s(VRelief
g66
tp467
F1
s(Vtime
g359
tp468
F1
s(Vwisest
g98
tp469
F1
s(VExcellent
g23
tp470
F1
s(VSeparate
g17
tp471
F1
s(VHowever
S'RB'
p472
tp473
F1
s(VTasso
g6
tp474
F1
s(VThat
g44
tp475
F2
s(VHead
g6
tp476
F2
s(g13
g28
tp477
F4
s(Vcertain
S'JJ'
p478
tp479
F1
s(g41
S'('
tp480
F1
s(VVenus
g6
tp481
F1
s(VBookseller
g6
tp482
F1
s(Vevident
g23
tp483
F1
s(VAdd
g6
tp484
F1
s(VPerplexity
g6
tp485
F1
s(g6
S'MD'
p486
tp487
F5
s(Vwill
g146
tp488
F6
s(Vhonest
g23
tp489
F1
s(g289
S','
tp490
F1
s(S')'
g17
tp491
F1
s(g6
g13
tp492
F2
s(Vall
g278
tp493
F3
s(Vin
g148
tp494
F19
s(g26
g13
tp495
F1
s(Vgreatest
g98
tp496
F1
s(Vare
g115
tp497
F4
s(Voftentimes
g26
tp498
F1
s(g6
S'('
tp499
F1
s(g11
g184
tp500
F2
s(S':'
g172
tp501
F1
s(VTake
g17
tp502
F3
s(g34
g78
tp503
F10
s(g17
S','
tp504
F3
s(Vset
g13
tp505
F1
s(g330
S','
tp506
F1
s(Vimmediately
g247
tp507
F1
s(VFase
g6
tp508
F1
s(g85
g148
tp509
F2
s(Vvindice
g66
tp510
F1
s(Vhave
g17
tp511
F3
s(g146
g190
tp512
F4
s(V'll
S'MD'
p513
tp514
F1
s(g95
g23
tp515
F16
s(g23
S'.'
tp516
F1
s(g32
g11
tp517
F1
s(Vnecessary
S'JJ'
p518
tp519
F3
s(V.
S'.'
tp520
F42
s(Vbeing
g191
tp521
F2
s(S','
g247
tp522
F3
s(g224
g23
tp523
F1
s(g129
g34
tp524
F6
s(VJupiter
g6
tp525
F1
s(g122
g289
tp526
F1
s(VVerse
g6
tp527
F2
s(VMonmouth
g6
tp528
F1
s(g172
S'.'
tp529
F1
s(VQualities
g32
tp530
F2
s(VNec
g6
tp531
F1
s(VConflagration
g6
tp532
F1
s(VTempest
g6
tp533
F2
s(Vthere
g26
tp534
F1
s(g274
g26
tp535
F1
s(Vother
g446
tp536
F2
s(V--
S':'
tp537
F2
s(Vbred
g122
tp538
F1
s(g85
g23
tp539
F6
s(g98
g23
tp540
F1
s(Vlong
g23
tp541
F1
s(Vparts
S'NNS'
p542
tp543
F1
s(g97
g32
tp544
F3
s(Vfancy
g13
tp545
F1
s(VPage
g6
tp546
F1
s(Vcelebrated
g23
tp547
F1
s(g142
g100
tp548
F1
s(g122
g129
tp549
F1
s(VClouds
g6
tp550
F1
s(VHuman
g6
tp551
F1
s(Vfoam
g13
tp552
F1
s(Vas
g34
tp553
F4
s(g60
S'.'
tp554
F3
s(VRain
g6
tp555
F1
s(g146
g28
tp556
F2
s(VModern
g6
tp557
F1
s(Vserves
g172
tp558
F1
s(g357
g32
tp559
F8
s(VTroy
g6
tp560
F1
s(g100
g28
tp561
F1
s(VInciderit
g6
tp562
F1
s(Vgreat
g135
tp563
F2
s(Vtwelve
g66
tp564
F1
s(VDawbings
g32
tp565
F1
s(VUnder-Characters
g32
tp566
F1
s(Vafford
g172
tp567
F1
s(Vyou
g184
tp568
F16
s(g323
S','
tp569
F3
s(Vimitate
g17
tp570
F1
s(VDeus
g6
tp571
F1
s(VLanguage
g6
tp572
F1
s(Vseek
g23
tp573
F1
s(Vshould
g58
tp574
F2
s(VSound
g66
tp575
F1
s(Vby
S'IN'
p576
tp577
F5
s(Vaway
g26
tp578
F1
s(VThese
S'DT'
p579
tp580
F1
s(g122
S','
tp581
F2
s(g85
S'VBG'
p582
tp583
F1
s(VAssistance
g66
tp584
F1
s(VApplication
g6
tp585
F1
s(g17
g26
tp586
F1
s(Vmanner
g66
tp587
F1
s(g21
g148
tp588
F14
s(Vlay
g46
tp589
F1
s(Vto
g105
tp590
F28
s(S')'
S'.'
tp591
F1
s(g148
g100
tp592
F4
s(g129
S'VBN'
p593
tp594
F1
s(VGreece
g6
tp595
F1
s(g4
S','
tp596
F2
s(Vcall
g17
tp597
F1
s(VOriginal
g6
tp598
F1
s(g32
g26
tp599
F1
s(Vtranslate
g66
tp600
F1
s(Vchuse
g17
tp601
F1
s(Vnever
S'RB'
p602
tp603
F1
s(VHero
g6
tp604
F5
s(Vthought
g122
tp605
F3
s(g28
g98
tp606
F5
s(S':'
g75
tp607
F1
s(VSeason
g66
tp608
F1
s(VVolatile
g6
tp609
F1
s(g24
g148
tp610
F1
s(VGreek
g6
tp611
F3
s(g38
g191
tp612
F1
s(Vpossibly
g26
tp613
F1
s(g28
g403
tp614
F1
s(S','
g41
tp615
F3
s(Vunfortunate
g23
tp616
F1
s(Vbecause
g34
tp617
F1
s(g32
g10
tp618
F6
s(Vunwilling
g23
tp619
F1
s(VHour
g6
tp620
F1
s(Vlarge
S'JJ'
p621
tp622
F1
s(g278
g28
tp623
F4
s(Vsudden
g23
tp624
F1
s(g403
g23
tp625
F1
s(Vthey
S'PRP'
p626
tp627
F4
s(VWit
g6
tp628
F1
s(VFable
g23
tp629
F1
s(VLearning
g100
tp630
F1
s(S'NN'
p631
g17
tp632
F3
s(Vfor
g20
tp633
F13
s(VEpisode
g6
tp634
F1
s(VMilton
g6
tp635
F2
s(Vbe
g121
tp636
F20
s(Vthose
g62
tp637
F3
s(S'CC'
p638
g26
tp639
F2
s(S','
g13
tp640
F2
s(Vsufficiently
g26
tp641
F1
s(g13
g323
tp642
F2
s(VDiction
g6
tp643
F1
s(g182
g105
tp644
F1
s(VHands
g32
tp645
F1
s(Vaccording
g582
tp646
F1
s(Vtake
g17
tp647
F2
s(g98
g66
tp648
F2
s(Vcircumstanced
g122
tp649
F1
s(S'WP'
p650
g184
tp651
F1
s(Vbut
g638
tp652
F3
s(g17
g105
tp653
F1
s(Vloudest
g98
tp654
F1
s(V,
S','
tp655
F72
s(g23
g122
tp656
F1
s(VOverplus
g6
tp657
F1
s(Vabsolutely
g26
tp658
F1
s(VAntiquity
g6
tp659
F2
s(g6
g105
tp660
F5
s(Vfind
g17
tp661
F2
s(g191
g518
tp662
F1
s(g6
g11
tp663
F2
s(VHebraisms
g6
tp664
F1
s(VMistake
g6
tp665
F1
s(Vspeaking
g66
tp666
F1
s(VBooks
g6
tp667
F1
s(g17
S':'
tp668
F2
s(VBusiness
g6
tp669
F1
s(VAir
S'NNP'
p670
tp671
F1
s(VMix
g6
tp672
F1
s(VMachines
g32
tp673
F1
s(VPurpose
g6
tp674
F1
s(g129
g38
tp675
F2
s(Vcompose
g46
tp676
F1
s(Vsame
S'JJ'
p677
tp678
F1
s(VBattel
g6
tp679
F2
s(Vapplying
g100
tp680
F1
s(Vobserve
g13
tp681
F1
s(g26
g105
tp682
F1
s(Vwho
g41
tp683
F3
s(g6
g198
tp684
F3
s(Vif
g227
tp685
F3
s(Vwhom
g650
tp686
F1
s(Vof
g10
tp687
F40
s(Vproceed
g17
tp688
F1
s(g13
g278
tp689
F1
s(Vtake
g13
tp690
F1
s(VPersons
g32
tp691
F1
s(VScope
g6
tp692
F1
s(Vtoo
g303
tp693
F1
s(VLegend
g6
tp694
F1
s(Vit
g38
tp695
F14
s(g403
g6
tp696
F1
s(VNames
g6
tp697
F1
s(g6
g148
tp698
F28
s(g32
S':'
tp699
F3
s(Vwas
g46
tp700
F1
s(VGround
g6
tp701
F1
s(Vdirect
g23
tp702
F1
s(Vhis
g217
tp703
F5
s(Vmodestly
g26
tp704
F1
s(g224
g32
tp705
F1
s(Vreserve
g17
tp706
F1
s(Vinto
g284
tp707
F4
s(VBoreas
g6
tp708
F1
s(g582
g105
tp709
F1
s(VThis
g334
tp710
F1
s(S'('
g28
tp711
F1
s(VYou
S'PRP'
p712
tp713
F1
s(Vand
g129
tp714
F29
s(VAllegory
g6
tp715
F1
s(Vout
g254
tp716
F1
s(Vlay
g17
tp717
F1
s(VPick
g17
tp718
F1
s(S','
g38
tp719
F4
s(g62
g10
tp720
F5
s(VTake
g66
tp721
F1
s(Vfear
g13
tp722
F1
s(g85
g289
tp723
F1
s(Vwhich
g11
tp724
F7
s(Vsuch
g278
tp725
F1
s(Vmost
g403
tp726
F2
s(V'em
g38
tp727
F1
s(VWorld
g6
tp728
F1
s(g92
g32
tp729
F1
s(Vvery
g26
tp730
F1
s(g115
g224
tp731
F1
s(Vyour
g97
tp732
F18
s(Vbefore
g34
tp733
F2
s(Vlost
g122
tp734
F1
s(g122
g115
tp735
F1
s(Vupon
g34
tp736
F3
s(Vgive
g17
tp737
F1
s(Vabout
g34
tp738
F1
s(Vfortunate
g23
tp739
F1
s(Vinstance
g21
tp740
F2
s(Vgood
g23
tp741
F4
s(Von
S'IN'
p742
tp743
F2
s(VPatron
g6
tp744
F1
s(VSorts
g32
tp745
F1
s(Vleast
g98
tp746
F1
s(g6
g26
tp747
F4
s(S','
g129
tp748
F20
s(Vcan
g256
tp749
F5
s(S','
g6
tp750
F8
s(g98
g184
tp751
F1
s(Vuse
g66
tp752
F1
s(Vsurvey
g306
tp753
F1
s(VMoral
g6
tp754
F1
s(g54
g44
tp755
F1
s(VSpice
g6
tp756
F1
s(Vfirst
g23
tp757
F1
s(VThere
g75
tp758
F1
s(g344
g184
tp759
F2
s(VGods
g6
tp760
F2
s(Vmarry
g17
tp761
F1
s(Vknew
g46
tp762
F1
s(VGeffry
g6
tp763
F1
s(V;
S':'
tp764
F10
s(Vend
g66
tp765
F1
s(VPoet
g66
tp766
F1
s(Vwork
g17
tp767
F1
s(Vborrowed
g122
tp768
F1
s(g191
g122
tp769
F1
s(VAdventures
g32
tp770
F1
s(VAuthor
g6
tp771
F1
s(g160
g105
tp772
F3
s(Vafterwards
g32
tp773
F1
s(g23
g6
tp774
F12
s(Vthis
g87
tp775
F6
s(Vkeep
g17
tp776
F1
s(VPoem
g6
tp777
F5
s(Vself
g66
tp778
F1
s(g129
g17
tp779
F7
s(VDescriptions
g32
tp780
F1
s(Vdraw
g17
tp781
F1
s(VRemember
g6
tp782
F1
s(g631
g85
tp783
F2
s(Vas
g26
tp784
F1
s(VLeft-hand
g6
tp785
F1
s(Vout
g34
tp786
F3
s(g6
g121
tp787
F2
s(VLeisure
g66
tp788
F1
s(VHere
g166
tp789
F1
s(g6
S')'
tp790
F3
s(g306
g146
tp791
F1
s(Vthat
g34
tp792
F4
s(VPieces
g32
tp793
F1
s(Vreduced
g122
tp794
F1
s(g17
g97
tp795
F6
s(VPoet
g6
tp796
F2
s(g4
S'.'
tp797
F1
s(Vset
g17
tp798
F1
s(g107
g97
tp799
F1
s(g89
g107
tp800
F2
s(VGeneral
g6
tp801
F1
s(VOccasions
g32
tp802
F1
s(Vhave
g13
tp803
F3
s(VEurus
g6
tp804
F1
s(VHomer
g6
tp805
F3
s(Vway
g631
tp806
F2
s(Vready
g23
tp807
F2
s(g57
g46
tp808
F1
s(VANOTHER
g6
tp809
F1
s(Vvenerable
g23
tp810
F1
s(VMen
g6
tp811
F1
s(Vselect
g17
tp812
F1
s(Vignorant
g23
tp813
F1
s(VIf
S'IN'
p814
tp815
F2
s(Vnot
g190
tp816
F4
s(VDon
g6
tp817
F1
s(Vtrouble
S'NN'
p818
tp819
F1
s(Vdone
g593
tp820
F1
s(g66
g107
tp821
F1
s(Vfound
g122
tp822
F2
s(g6
S','
tp823
F40
s(Vknown
g122
tp824
F1
s(g66
g38
tp825
F1
s(g6
g172
tp826
F2
s(VIt
S'PRP'
p827
tp828
F1
s(VParadise
g6
tp829
F1
s(Vprevent
g17
tp830
F1
s(Vwould
g486
tp831
F2
s(g46
g60
tp832
F4
s(g518
S','
tp833
F1
s(g11
g84
tp834
F1
s(Vall
g44
tp835
F3
s(g478
g84
tp836
F1
s(g638
g175
tp837
F1
s.