ccollections
defaultdict
p1
(c__builtin__
float
p2
tRp3
(Vblessed
S'JJ'
p4
tp5
F1
s(VBook
S'NNP'
p6
tp7
F1
s(S'RBR'
p8
S'.'
tp9
F3
s(Vsensible
g4
tp10
F2
s(V'Father
S'JJR'
p11
tp12
F1
s(S'VBP'
p13
g6
tp14
F11
s(Vflew
S'VBD'
p15
tp16
F1
s(Vwe
S'PRP'
p17
tp18
F60
s(g6
S'.'
tp19
F194
s(VCordials
S'NNS'
p20
tp21
F1
s(Ve
S'VBN'
p22
tp23
F1
s(VParadise
g6
tp24
F1
s(Vusual
g4
tp25
F4
s(V'The
S"''"
p26
tp27
F1
s(VFor
S'IN'
p28
tp29
F2
s(S'WDT'
p30
S'NN'
p31
tp32
F3
s(Vthick
g4
tp33
F1
s(Vstrove
S'NN'
p34
tp35
F1
s(S'IN'
p36
g34
tp37
F71
s(S'IN'
p38
g11
tp39
F1
s(Vmedicinal
g4
tp40
F1
s(S','
g30
tp41
F70
s(Vlovely
S'RB'
p42
tp43
F3
s(Vaccomplished
g4
tp44
F1
s(Vyoung
S'JJ'
p45
tp46
F28
s(VObstacles
g20
tp47
F1
s(S'VBG'
p48
g20
tp49
F5
s(VRepose
g6
tp50
F3
s(VThrone
g6
tp51
F1
s(VCoach
g6
tp52
F3
s(S'PRP$'
p53
g6
tp54
F282
s(g26
S','
tp55
F3
s(VDanger
g34
tp56
F1
s(VMahometan
g6
tp57
F2
s(g22
S'EX'
p58
tp59
F1
s(Vreproach
S'VB'
p60
tp61
F1
s(VFury
g34
tp62
F2
s(VBlood
g6
tp63
F4
s(VThankful
g4
tp64
F1
s(VCountry
g6
tp65
F12
s(g22
S'PRP'
p66
tp67
F41
s(VKnife
g34
tp68
F1
s(Vmodestly
g42
tp69
F1
s(VStairs
g6
tp70
F1
s(V'Madam
g34
tp71
F1
s(Vrelate
g60
tp72
F2
s(Vguess
g13
tp73
F1
s(Valready
S'RB'
p74
tp75
F3
s(VAmazement
g6
tp76
F1
s(VFlames
g6
tp77
F1
s(Vput
g60
tp78
F6
s(Vwore
g15
tp79
F1
s(Vreflecting
S'VBG'
p80
tp81
F1
s(VQuestion
g34
tp82
F1
s(Vshifted
g15
tp83
F1
s(VSympathy
g6
tp84
F1
s(Vjoyful
g4
tp85
F2
s(g20
S'PRP$'
p86
tp87
F1
s(VCordials
g6
tp88
F1
s(g20
S'WRB'
p89
tp90
F1
s(VHackney
g6
tp91
F1
s(Vbarbarous
g4
tp92
F1
s(Vsurvive
g60
tp93
F1
s(VProofs
g6
tp94
F1
s(g6
S'PDT'
p95
tp96
F1
s(Vagainst
S'IN'
p97
tp98
F3
s(VTo
S'TO'
p99
tp100
F4
s(S'JJS'
p101
S'TO'
p102
tp103
F1
s(Vsupport
g60
tp104
F3
s(VDacier
g6
tp105
F1
s(Vspeak
g34
tp106
F2
s(VOh
S'UH'
p107
tp108
F3
s(Vseemed
g15
tp109
F16
s(VGate
g6
tp110
F9
s(Vtherefore
g42
tp111
F6
s(Vput
g34
tp112
F1
s(Vconfess
g13
tp113
F1
s(VAngels
S'NNPS'
p114
tp115
F1
s(Vcase
S'NN'
p116
tp117
F1
s(V'Why
g107
tp118
F1
s(Vsmiled
g15
tp119
F2
s(Vcalled
g22
tp120
F6
s(Vperished
g15
tp121
F1
s(VStreets
g6
tp122
F2
s(S'CD'
p123
g48
tp124
F2
s(VVoice
g6
tp125
F1
s(Vwait
g34
tp126
F2
s(VBrooks
S'NNP'
p127
tp128
F1
s(Vdeeply
g42
tp129
F3
s(Vsecond
g4
tp130
F3
s(Vdeclaring
g48
tp131
F2
s(Vsay
g60
tp132
F2
s(g58
g60
tp133
F2
s(Vcontinuing
g34
tp134
F1
s(VChristianity
g6
tp135
F3
s(Vlonging
g34
tp136
F1
s(VRustling
g6
tp137
F1
s(VHe
S'PRP'
p138
tp139
F38
s(VLetters
g6
tp140
F3
s(Vretire
g34
tp141
F2
s(VCircumstances
g20
tp142
F2
s(V'Don
g123
tp143
F1
s(Vrepeat
g60
tp144
F1
s(VTongue
g34
tp145
F1
s(Vcrying
g48
tp146
F1
s(Vlength
g95
tp147
F1
s(VTestimonies
g20
tp148
F1
s(VHonours
g6
tp149
F1
s(Vfloated
g15
tp150
F2
s(VEnjoyments
g20
tp151
F1
s(Vweak
S'JJ'
p152
tp153
F6
s(g20
g66
tp154
F19
s(VMother
g6
tp155
F3
s(VRoad
g6
tp156
F6
s(g86
g101
tp157
F5
s(Voverjoyed
g22
tp158
F2
s(Vdaily
g42
tp159
F3
s(g101
g114
tp160
F3
s(Veasy
g4
tp161
F3
s(Vago
g42
tp162
F2
s(Vassisting
g34
tp163
F1
s(S'VBZ'
p164
g102
tp165
F10
s(Vdoubt
g34
tp166
F2
s(VWriter
g6
tp167
F1
s(Vage
S'NN'
p168
tp169
F1
s(g34
S'PRP$'
p170
tp171
F3
s(Vwholesom
g60
tp172
F1
s(VNannon
g6
tp173
F1
s(VLand
g6
tp174
F5
s(VPot
g6
tp175
F1
s(VSalt-Meat
g6
tp176
F1
s(Vconfined
g22
tp177
F1
s(Vsecretly
g42
tp178
F4
s(Vsaw
g15
tp179
F28
s(Vuse
g60
tp180
F1
s(Vtedious
g4
tp181
F2
s(Vlength
g101
tp182
F1
s(Vtill
g34
tp183
F10
s(g30
S'RB'
p184
tp185
F5
s(VMyrtles
g6
tp186
F1
s(V3
g123
tp187
F1
s(S'IN'
p188
S'RB'
p189
tp190
F23
s(Vplayed
g22
tp191
F1
s(Vthink
g60
tp192
F6
s(VNeatness
g6
tp193
F1
s(Vfatigued
g4
tp194
F1
s(Vmore
g8
tp195
F20
s(Vfictitious
g4
tp196
F1
s(VEmpires
g114
tp197
F1
s(Vwished
g15
tp198
F1
s(Vbar
g60
tp199
F1
s(g101
g20
tp200
F4
s(VPassengers
g114
tp201
F1
s(Vbehind
g188
tp202
F3
s(g11
S'IN'
p203
tp204
F8
s(VVessels
g6
tp205
F1
s(Vtold
g15
tp206
F15
s(Vdejected
g22
tp207
F1
s(VPerhaps
S'RB'
p208
tp209
F1
s(V'Pray
g123
tp210
F1
s(V'Hoist
S'PRP'
p211
tp212
F1
s(Vembellished
g22
tp213
F1
s(S'DT'
p214
S'PRP$'
p215
tp216
F15
s(Vnoblest
g101
tp217
F1
s(Vmore
g11
tp218
F14
s(VServices
g20
tp219
F1
s(Vsick
g34
tp220
F2
s(VRelations
g6
tp221
F3
s(Vrecovered
g15
tp222
F2
s(S'CC'
p223
S'DT'
p224
tp225
F100
s(Vprudent
g4
tp226
F1
s(Vso
g42
tp227
F81
s(Vdo
g60
tp228
F16
s(S','
S'MD'
p229
tp230
F20
s(S','
g60
tp231
F45
s(Vrepenting
g48
tp232
F1
s(VStory
g6
tp233
F3
s(Vamongst
S'VBZ'
p234
tp235
F1
s(Vdesisted
g22
tp236
F1
s(S'CC'
p237
S'PRP'
p238
tp239
F68
s(VAugust
S'NNP'
p240
tp241
F2
s(VEagle-eyed
g6
tp242
F1
s(Vcruelly
g42
tp243
F1
s(VDeportment
g34
tp244
F1
s(Vshrink
g60
tp245
F1
s(VConsiderations
g20
tp246
F1
s(Vsupped
g15
tp247
F1
s(VLips
g6
tp248
F1
s(VYour
g53
tp249
F4
s(g60
S'DT'
p250
tp251
F126
s(VEffects
g20
tp252
F2
s(g42
S'PRP'
p253
tp254
F55
s(S'WP'
p255
g164
tp256
F11
s(VJewels
g20
tp257
F1
s(Vrevenge
g60
tp258
F2
s(S'VBG'
p259
g34
tp260
F11
s(VCell
g6
tp261
F3
s(Vcommon
S'JJ'
p262
tp263
F1
s(VTwigs
g6
tp264
F1
s(Vreached
g15
tp265
F6
s(Vconducted
g15
tp266
F3
s(g26
S':'
tp267
F1
s(Vwhen
S'WRB'
p268
tp269
F31
s(VRains
g6
tp270
F1
s(Vbuy
g34
tp271
F1
s(Vreceived
g15
tp272
F7
s(Vfaithful
g4
tp273
F5
s(g123
g13
tp274
F1
s(Vlearn
g22
tp275
F1
s(g15
S')'
tp276
F1
s(VResolution
g34
tp277
F1
s(g4
S'PRP'
p278
tp279
F21
s(Vitself
S'PRP'
p280
tp281
F6
s(Vtame
g4
tp282
F1
s(g8
g203
tp283
F4
s(Vanxious
g4
tp284
F1
s(Vwould
S'MD'
p285
tp286
F55
s(Vdelicious
g4
tp287
F1
s(VCalais
g6
tp288
F1
s(Vadding
S'VBG'
p289
tp290
F1
s(Vadvise
g60
tp291
F2
s(Vkissed
g15
tp292
F1
s(VServices
g114
tp293
F1
s(S'CC'
p294
S'CC'
p295
tp296
F2
s(S'POS'
p297
g237
tp298
F4
s(VPassages
g20
tp299
F1
s(VPeople
g20
tp300
F1
s(Vquestionless
g34
tp301
F1
s(VFaith
g6
tp302
F4
s(VFountains
g20
tp303
F1
s(VHall
g6
tp304
F1
s(g6
g237
tp305
F179
s(VDaughter
g34
tp306
F5
s(Vthine
g34
tp307
F1
s(VTable
g6
tp308
F1
s(Vtempestuous
g4
tp309
F1
s(Vtalk
g60
tp310
F4
s(VStranger
g6
tp311
F1
s(Vopen
g4
tp312
F3
s(V'That
g188
tp313
F1
s(Vecchoed
g22
tp314
F1
s(Vafter
S'IN'
p315
tp316
F23
s(Vsteered
g22
tp317
F1
s(g20
S'MD'
p318
tp319
F5
s(Vmighty
g34
tp320
F2
s(Vremain
g60
tp321
F1
s(VMr.
S'NNP'
p322
tp323
F1
s(Vpreserving
g48
tp324
F1
s(VFactory
g6
tp325
F1
s(VEvening
g48
tp326
F2
s(VView
g6
tp327
F2
s(VCustom
g6
tp328
F1
s(Vdispleased
g22
tp329
F1
s(S':'
g250
tp330
F36
s(Vimportune
g60
tp331
F2
s(VVirgins
g20
tp332
F2
s(Vlate
g42
tp333
F1
s(Vbehaved
g15
tp334
F1
s(Vinimitable
g4
tp335
F1
s(Vla
S'FW'
p336
tp337
F3
s(Vhard
g4
tp338
F1
s(Vaccompanied
g15
tp339
F2
s(Vplunder
g60
tp340
F1
s(Vpast
g4
tp341
F1
s(VDispose
g6
tp342
F1
s(g188
g58
tp343
F4
s(VAffection
g6
tp344
F2
s(VMischiefs
g6
tp345
F1
s(S')'
g34
tp346
F2
s(Vscarce
g4
tp347
F3
s(S'CC'
p348
S'CD'
p349
tp350
F11
s(VRobinson
g6
tp351
F1
s(VFire-Place
g6
tp352
F1
s(Vrendered
g22
tp353
F1
s(Vshield
g60
tp354
F1
s(Vobtained
g22
tp355
F1
s(Vconducted
g22
tp356
F4
s(Vlose
g60
tp357
F3
s(VChocolate
g6
tp358
F1
s(V's
g297
tp359
F115
s(Vmelancholly
g42
tp360
F1
s(VPresent
g6
tp361
F1
s(VDispleasure
g34
tp362
F1
s(Vused
g15
tp363
F4
s(Vher
g34
tp364
F1
s(Vperish
g13
tp365
F1
s(Vagreeable
g4
tp366
F1
s(Vroam
g34
tp367
F1
s(Voffering
g48
tp368
F1
s(Vrender
g13
tp369
F1
s(S'PRP'
p370
g250
tp371
F48
s(Vown
g4
tp372
F16
s(Vgrateful
g4
tp373
F2
s(VCircumference
g6
tp374
F1
s(VMessenger
g6
tp375
F1
s(g188
g36
tp376
F44
s(g20
g237
tp377
F23
s(Vdrove
g15
tp378
F3
s(Vventured
g15
tp379
F3
s(Vseizing
g48
tp380
F2
s(Vwake
g13
tp381
F1
s(Vutmost
g34
tp382
F1
s(Vprotesting
g48
tp383
F1
s(Vsweetly
g42
tp384
F1
s(Venter
g34
tp385
F1
s(Vperish
g60
tp386
F1
s(Vinjure
g60
tp387
F2
s(Vfit
g13
tp388
F1
s(Vask
g13
tp389
F1
s(Vfled
g15
tp390
F5
s(Vmoving
g4
tp391
F1
s(g22
g224
tp392
F33
s(VNeck
g6
tp393
F1
s(Vconsecrated
g22
tp394
F1
s(Vaboard
g34
tp395
F1
s(Vpersuade
g60
tp396
F1
s(g6
g11
tp397
F3
s(Vproper
g22
tp398
F1
s(g15
g95
tp399
F9
s(VTears
g6
tp400
F13
s(Vwithal
g34
tp401
F2
s(V'Monsieur
g336
tp402
F1
s(Vbetwixt
g60
tp403
F1
s(Vpale
g4
tp404
F1
s(V'No
g26
tp405
F1
s(Vspare
g4
tp406
F1
s(S','
g4
tp407
F35
s(Vdispatched
g15
tp408
F2
s(Veither
g214
tp409
F2
s(Vair
g60
tp410
F1
s(Vdown
S'RP'
p411
tp412
F6
s(VMisfortune
g6
tp413
F4
s(g38
g95
tp414
F17
s(Vwhereas
g20
tp415
F1
s(Vreturned
g15
tp416
F16
s(Vdrew
g15
tp417
F3
s(Vwherein
g34
tp418
F1
s(Vconcealed
g22
tp419
F3
s(Vcome
g60
tp420
F3
s(VStay
g34
tp421
F1
s(VCup
g6
tp422
F1
s(VProphet
g6
tp423
F2
s(Vimpracticable
g4
tp424
F1
s(VHood
g34
tp425
F1
s(Vtalked
g15
tp426
F1
s(VEase
g6
tp427
F1
s(Vgo
g13
tp428
F3
s(Vprocure
g60
tp429
F3
s(Va
g224
tp430
F336
s(VBeauty
g34
tp431
F1
s(Vpay
g60
tp432
F3
s(VExile
g34
tp433
F1
s(Vadvisable
g4
tp434
F1
s(VCourse
g6
tp435
F1
s(g11
g102
tp436
F1
s(VPalaces
g20
tp437
F1
s(VMissionary
g6
tp438
F1
s(Vmost
g101
tp439
F4
s(g123
S'.'
tp440
F8
s(S'DT'
p441
g164
tp442
F4
s(VHands
g234
tp443
F1
s(VConsequences
g114
tp444
F1
s(Vkept
g15
tp445
F2
s(Vwant
g60
tp446
F3
s(S','
S'PRP$'
p447
tp448
F65
s(VEmbraces
g20
tp449
F2
s(VSorrows
g6
tp450
F3
s(Vdrawn
g22
tp451
F1
s(Voffered
g15
tp452
F1
s(VDay
g6
tp453
F29
s(Vmagnificently
g42
tp454
F1
s(VTrial
g6
tp455
F2
s(g89
g22
tp456
F3
s(Vchearful
g4
tp457
F2
s(Vtill
g4
tp458
F2
s(VVice
g6
tp459
F1
s(V't
g6
tp460
F1
s(Vwhilst
g188
tp461
F2
s(V't
g26
tp462
F3
s(S','
S'('
tp463
F2
s(Vforward
g42
tp464
F1
s(VConcern
g6
tp465
F4
s(VFasting
g6
tp466
F1
s(V'No
g34
tp467
F1
s(Vup
g42
tp468
F5
s(Vdismal
g4
tp469
F5
s(Vmarried
g15
tp470
F1
s(Vtall
g34
tp471
F1
s(g255
g4
tp472
F2
s(Vruinous
g4
tp473
F1
s(Vgrown
g22
tp474
F3
s(Vamongst
g13
tp475
F1
s(Vnotwithstanding
g48
tp476
F1
s(g164
g11
tp477
F2
s(Vplead
g60
tp478
F1
s(VDagger
g6
tp479
F1
s(VKey
g6
tp480
F1
s(V'
g26
tp481
F144
s(Vseparate
g60
tp482
F2
s(Vtill
g42
tp483
F1
s(VBiscuit
g6
tp484
F6
s(Vunpardonable
g4
tp485
F1
s(Vtransported
g22
tp486
F2
s(VCourse
g34
tp487
F1
s(VQuires
g20
tp488
F1
s(VUsage
g34
tp489
F1
s(Vclean
g4
tp490
F1
s(Vinward
g4
tp491
F1
s(Vbeen
S'VBN'
p492
tp493
F25
s(VProvidence
g6
tp494
F16
s(Vordered
g22
tp495
F4
s(Vlead
g60
tp496
F1
s(Vtaken
S'VBN'
p497
tp498
F10
s(Venquire
g60
tp499
F1
s(g102
g4
tp500
F6
s(VCourt-Hall
g6
tp501
F1
s(Vbelonging
g48
tp502
F3
s(Vhere
S'RB'
p503
tp504
F41
s(VHabits
g6
tp505
F2
s(VVillagers
g20
tp506
F1
s(S'MD'
p507
S'JJ'
p508
tp509
F2
s(Vdoubtless
g22
tp510
F1
s(V12th
g123
tp511
F1
s(Vunenjoyed
g34
tp512
F1
s(g95
g447
tp513
F1
s(Vcontinued
g4
tp514
F1
s(Vgallant
g4
tp515
F1
s(S'NNS'
p516
g250
tp517
F4
s(Vsmall
S'JJ'
p518
tp519
F7
s(V'd
g20
tp520
F1
s(Vpressed
g15
tp521
F1
s(VDirect
g4
tp522
F1
s(Vwelcome
g4
tp523
F1
s(Vyes
g107
tp524
F1
s(VApartments
g20
tp525
F1
s(VFrench
g6
tp526
F1
s(VAccident
g6
tp527
F1
s(VAdmiration
g6
tp528
F1
s(VBottle
g6
tp529
F5
s(VMen
g60
tp530
F1
s(Vdifficult
S'JJ'
p531
tp532
F2
s(V'Lovely
g42
tp533
F1
s(VChamber
g6
tp534
F8
s(VMy
g53
tp535
F7
s(Vsurvived
g15
tp536
F1
s(g349
g114
tp537
F2
s(g60
S'CD'
p538
tp539
F5
s(Vconceal
g34
tp540
F1
s(Vone
g123
tp541
F43
s(Vrestored
g22
tp542
F1
s(VMeeting
g34
tp543
F1
s(VProvidence
g34
tp544
F1
s(VEntering
g48
tp545
F1
s(Vrich
g4
tp546
F7
s(Valmost
S'RB'
p547
tp548
F6
s(VFarewell
g6
tp549
F1
s(VMen
g20
tp550
F1
s(S'RB'
p551
g234
tp552
F9
s(VFarewel
g6
tp553
F1
s(Vburnt
g42
tp554
F1
s(VAttendance
g6
tp555
F1
s(g30
g15
tp556
F41
s(Vawaked
g4
tp557
F1
s(Vluckless
g34
tp558
F2
s(VBlood
g34
tp559
F1
s(Vmiles
S'NNS'
p560
tp561
F2
s(Vprepare
g60
tp562
F1
s(g34
g26
tp563
F1
s(Vget
g60
tp564
F16
s(Vdue
g4
tp565
F1
s(g60
S'IN'
p566
tp567
F113
s(VVioletta
g6
tp568
F34
s(Vrifling
g48
tp569
F1
s(VThen
S'RB'
p570
tp571
F11
s(VGlimpse
g6
tp572
F1
s(Vnevertheless
g42
tp573
F1
s(g184
g250
tp574
F37
s(VFirst
g42
tp575
F1
s(g22
g102
tp576
F56
s(Vguard
g34
tp577
F1
s(VConstancy
g34
tp578
F1
s(Vten
g4
tp579
F2
s(Voffered
g22
tp580
F1
s(Vpossible
S'JJ'
p581
tp582
F5
s(Vorder
S'NN'
p583
tp584
F2
s(Vfearing
g48
tp585
F3
s(VPart
g34
tp586
F1
s(Vfit
g34
tp587
F1
s(Vhas
S'VBZ'
p588
tp589
F29
s(V'Do
g26
tp590
F2
s(VCabbin
g6
tp591
F1
s(VServant
g6
tp592
F6
s(Vfaithless
g34
tp593
F1
s(Vgrievous
g4
tp594
F1
s(Vsailed
g22
tp595
F1
s(VBand
g6
tp596
F1
s(VScimiters
g114
tp597
F1
s(g15
g89
tp598
F3
s(Vround
g34
tp599
F2
s(g89
g20
tp600
F1
s(VAlms
g6
tp601
F1
s(Vplundered
g15
tp602
F2
s(g237
S'RBS'
p603
tp604
F1
s(Vabominable
g4
tp605
F1
s(VPope
g6
tp606
F1
s(Vprefer
g13
tp607
F1
s(Vinduced
g22
tp608
F1
s(Vseek
g60
tp609
F1
s(Vcrossed
g15
tp610
F2
s(V)
S')'
tp611
F10
s(Venraged
g15
tp612
F1
s(Vcarefully
g42
tp613
F2
s(Vaccording
S'VBG'
p614
tp615
F4
s(VCircumstance
g6
tp616
F2
s(V1705\u005c
g123
tp617
F1
s(g237
g114
tp618
F6
s(Vfeel
g60
tp619
F2
s(g237
g101
tp620
F5
s(Vfears
g234
tp621
F1
s(Vupon
g34
tp622
F1
s(Vstilled
g22
tp623
F1
s(g22
S':'
tp624
F23
s(VSecurity
g6
tp625
F1
s(Vlasting
g4
tp626
F1
s(VVertue
g34
tp627
F1
s(Vintrusted
g15
tp628
F1
s(g102
S','
tp629
F5
s(Vsplendid
g22
tp630
F1
s(Vfail
g22
tp631
F1
s(Vbreak
g34
tp632
F2
s(VSailors
g114
tp633
F5
s(Venters
g234
tp634
F1
s(Vfavour
g60
tp635
F1
s(Vbase
g34
tp636
F3
s(VStrife
g6
tp637
F1
s(Vthings
S'NNS'
p638
tp639
F9
s(VThus
g42
tp640
F6
s(Vlanded
g15
tp641
F2
s(Vshipwrecked
g22
tp642
F1
s(Vsee
g34
tp643
F1
s(S'JJ'
p644
g237
tp645
F29
s(S'VBP'
p646
S'RB'
p647
tp648
F36
s(VManners
g20
tp649
F1
s(g234
g280
tp650
F20
s(VPhysick
g6
tp651
F1
s(VBon-
g6
tp652
F1
s(Vimproved
g4
tp653
F1
s(VPretenders
g6
tp654
F1
s(g101
g60
tp655
F1
s(Vfail
g13
tp656
F2
s(g214
S'IN'
p657
tp658
F21
s(VConvent
g6
tp659
F3
s(VHole
g6
tp660
F2
s(Vrelates
g234
tp661
F1
s(g102
g86
tp662
F53
s(Vserved
g22
tp663
F1
s(Vits
g53
tp664
F2
s(Vprevailed
g22
tp665
F1
s(VWant
g6
tp666
F2
s(VEnemies
g20
tp667
F2
s(Vprefer
g60
tp668
F1
s(VPainting
g6
tp669
F1
s(Vawhile
g34
tp670
F1
s(g11
g22
tp671
F1
s(V'But
g123
tp672
F1
s(Vhast
g34
tp673
F1
s(Vthence
g34
tp674
F3
s(VAid
g6
tp675
F1
s(g188
g53
tp676
F227
s(Vrevived
g22
tp677
F3
s(VResentments
g114
tp678
F1
s(VBlessing
g34
tp679
F1
s(Vimprove
g60
tp680
F2
s(Vdried
g15
tp681
F1
s(Vconsent
g34
tp682
F3
s(VCarcases
g20
tp683
F1
s(Vconceive
g34
tp684
F1
s(Vadore
g42
tp685
F1
s(Vstarted
g15
tp686
F1
s(g13
g411
tp687
F3
s(g492
g48
tp688
F2
s(Vappearing
g48
tp689
F1
s(VGoing
g48
tp690
F1
s(Vpast
g188
tp691
F1
s(VSummon
g6
tp692
F1
s(Vnaked
g4
tp693
F1
s(S'CD'
p694
g34
tp695
F8
s(Vbowing
g48
tp696
F1
s(Vreturn
g60
tp697
F15
s(g101
g188
tp698
F4
s(Vexpecting
g48
tp699
F1
s(Vwhene'er
g60
tp700
F1
s(VDisposition
g6
tp701
F1
s(g6
S'MD'
p702
tp703
F67
s(VTo-morrow
g6
tp704
F1
s(g349
S','
tp705
F21
s(Vdespise
g13
tp706
F1
s(Vhonourably
g42
tp707
F1
s(Vanswered
g15
tp708
F19
s(VServant
g4
tp709
F1
s(g255
g184
tp710
F8
s(Vless
g8
tp711
F3
s(Vlonging
g48
tp712
F1
s(g238
g114
tp713
F2
s(Vtransitory
g34
tp714
F1
s(S'VBP'
p715
g603
tp716
F1
s(VDistance
g34
tp717
F2
s(VTurkish
g6
tp718
F1
s(Vparting
g48
tp719
F1
s(VComing
g6
tp720
F1
s(Vgreatest
g101
tp721
F9
s(Vsubmit
g60
tp722
F1
s(VThence
g34
tp723
F1
s(VSummer-house
g6
tp724
F1
s(VFriend
g34
tp725
F4
s(VAgue
g6
tp726
F1
s(g138
g30
tp727
F1
s(Vcharmed
g4
tp728
F1
s(Vtowards
g188
tp729
F1
s(Vbestowed
g22
tp730
F2
s(Vaid
g60
tp731
F1
s(Vcured
g15
tp732
F1
s(Vpermit
g60
tp733
F4
s(Vdreamt
g234
tp734
F1
s(V'Sir
g6
tp735
F1
s(Vhappy
g4
tp736
F17
s(VConscience
g6
tp737
F2
s(VTrust
S'NNP'
p738
tp739
F2
s(VWinds
g6
tp740
F2
s(VChurch-
g4
tp741
F1
s(V're
S'VBP'
p742
tp743
F6
s(Vcarrying
g48
tp744
F1
s(VVengeance
g6
tp745
F1
s(VDisorder
g6
tp746
F4
s(Vhave
g60
tp747
F22
s(Vchanced
g15
tp748
F2
s(g114
g42
tp749
F1
s(Vhasted
g15
tp750
F6
s(Vdreadfully
g42
tp751
F1
s(VTable
g34
tp752
F2
s(Vwalked
g22
tp753
F1
s(VLinen
g6
tp754
F3
s(Vfly
g34
tp755
F1
s(g215
S'RB'
p756
tp757
F3
s(Vnecessary
S'JJ'
p758
tp759
F1
s(Vcharming
g48
tp760
F3
s(VSense
g34
tp761
F2
s(S','
S'RB'
p762
tp763
F60
s(VCompany
g6
tp764
F7
s(VRemainder
g6
tp765
F1
s(Vaffable
g4
tp766
F1
s(g89
g34
tp767
F6
s(VHopes
g20
tp768
F1
s(g60
g95
tp769
F2
s(Vfar
S'RB'
p770
tp771
F3
s(g22
S'CD'
p772
tp773
F3
s(VPiles
g6
tp774
F1
s(VTransport
g34
tp775
F1
s(VMind
g34
tp776
F1
s(g6
g30
tp777
F16
s(g60
g11
tp778
F7
s(S'IN'
p779
S'.'
tp780
F8
s(VEuropeans
g114
tp781
F1
s(VServants
g20
tp782
F20
s(Vremember
g60
tp783
F3
s(VWild-Hogs
g20
tp784
F1
s(VSlumbers
g20
tp785
F1
s(Vclapping
g48
tp786
F1
s(Vwatch
g60
tp787
F2
s(Vsurprized
g4
tp788
F1
s(VFear
g34
tp789
F2
s(VPacket
g6
tp790
F1
s(g36
S'WRB'
p791
tp792
F1
s(Vremove
g60
tp793
F2
s(Vbelonged
g15
tp794
F1
s(VLetter
g6
tp795
F2
s(Vomit
g60
tp796
F1
s(g756
g123
tp797
F3
s(VSeas
g6
tp798
F4
s(Veternal
g4
tp799
F4
s(Vother
S'JJ'
p800
tp801
F16
s(VEast-India
g6
tp802
F1
s(S'IN'
p803
g101
tp804
F4
s(Vtreated
g15
tp805
F3
s(Vaway
g42
tp806
F10
s(g101
g4
tp807
F2
s(Vreveal
g60
tp808
F3
s(VTrunks
g6
tp809
F1
s(VNext
g4
tp810
F1
s(Va-while
g4
tp811
F1
s(S'PRP$'
p812
g20
tp813
F97
s(VStrangers
g6
tp814
F2
s(V'Now
g123
tp815
F2
s(VRed
g6
tp816
F1
s(VGardens
g6
tp817
F3
s(g250
g114
tp818
F22
s(Vunder
S'IN'
p819
tp820
F8
s(Vattentively
g42
tp821
F1
s(VProcure
g34
tp822
F1
s(S','
S'NNS'
p823
tp824
F2
s(g189
g15
tp825
F76
s(g22
g237
tp826
F4
s(VWorks
g6
tp827
F1
s(VShore
g6
tp828
F10
s(VCourt
S'NNP'
p829
tp830
F2
s(Vexpress
g34
tp831
F1
s(VVaults
g6
tp832
F1
s(g297
g170
tp833
F1
s(VSatisfaction
g6
tp834
F4
s(Vunderstand
g60
tp835
F1
s(VNature
g34
tp836
F1
s(VFiction
g6
tp837
F1
s(Vseated
g22
tp838
F1
s(VTransports
g20
tp839
F1
s(g48
g214
tp840
F62
s(Vstared
g15
tp841
F2
s(Vbroke
g15
tp842
F4
s(Vfatal
g4
tp843
F6
s(VDuty
g6
tp844
F2
s(Vthou
g34
tp845
F1
s(Vdeposed
g15
tp846
F1
s(g114
g411
tp847
F1
s(VBoughs
g6
tp848
F1
s(VPrayers
g6
tp849
F1
s(Vsatisfied
g4
tp850
F1
s(Vguess
g34
tp851
F1
s(Vappeared
g22
tp852
F1
s(VTrees
g20
tp853
F1
s(g238
g4
tp854
F31
s(Vmiraculously
g42
tp855
F1
s(Vgain
g60
tp856
F1
s(Vspeechless
g4
tp857
F1
s(Vshould
g229
tp858
F38
s(Vantient
g34
tp859
F1
s(VSpoils
g6
tp860
F1
s(Vwherever
g268
tp861
F1
s(g772
g15
tp862
F2
s(Vashore
g34
tp863
F3
s(Vadmiring
g48
tp864
F1
s(g102
S':'
tp865
F2
s(Vsatisfied
g22
tp866
F4
s(VThese
S'DT'
p867
tp868
F8
s(Vobserved
g15
tp869
F1
s(VSecrecy
g6
tp870
F1
s(Vthink
g13
tp871
F1
s(Vhazard
g60
tp872
F2
s(Vproposed
g15
tp873
F1
s(g22
S','
tp874
F82
s(Vexcelled
g22
tp875
F1
s(Vsummon
g234
tp876
F1
s(g34
g95
tp877
F1
s(VHaste
g6
tp878
F2
s(Vwaked
g15
tp879
F1
s(VBeauty
g6
tp880
F5
s(g538
g102
tp881
F1
s(VTreat
g34
tp882
F1
s(VBody
g34
tp883
F1
s(VAbout
g42
tp884
F1
s(g114
g34
tp885
F2
s(Vespecially
S'RB'
p886
tp887
F1
s(VAlmighty
g6
tp888
F1
s(VAffairs
g6
tp889
F1
s(g566
g48
tp890
F47
s(Valtered
g15
tp891
F1
s(g237
g22
tp892
F11
s(g237
g95
tp893
F4
s(Vshare
S'NN'
p894
tp895
F2
s(S':'
g34
tp896
F19
s(Vsteal
g60
tp897
F1
s(g447
g11
tp898
F1
s(Vrender
g60
tp899
F6
s(VChaplain
g6
tp900
F1
s(S'VBD'
p901
g114
tp902
F1
s(VNobleman
g6
tp903
F2
s(Vstepped
g15
tp904
F1
s(Vdistracted
g22
tp905
F1
s(Venjoins
g234
tp906
F1
s(VCottage
g6
tp907
F6
s(Vthou
g60
tp908
F1
s(VBe
g6
tp909
F1
s(Vdoubtless
g4
tp910
F1
s(Vuniversal
g4
tp911
F1
s(Vdedicate
g60
tp912
F2
s(g107
S':'
tp913
F2
s(Vcomforted
g15
tp914
F2
s(VFrance
S'NNP'
p915
tp916
F26
s(VFavourite
g6
tp917
F4
s(VRedeemer
g6
tp918
F1
s(g26
S'('
tp919
F1
s(VTree
g6
tp920
F4
s(VManner
g6
tp921
F3
s(Vineffectual
g4
tp922
F1
s(g237
g20
tp923
F9
s(Vspoke
g42
tp924
F1
s(VHappiness
g6
tp925
F2
s(VHabitation
g34
tp926
F1
s(Vhomely
g42
tp927
F1
s(g250
g603
tp928
F16
s(VVows
g6
tp929
F1
s(S','
g255
tp930
F87
s(Vborn
g34
tp931
F1
s(VChild
g6
tp932
F6
s(VDevotions
g20
tp933
F1
s(VThe
S'DT'
p934
tp935
F77
s(VBalm
g6
tp936
F1
s(g20
S'IN'
p937
tp938
F68
s(Vunwilling
g4
tp939
F2
s(VSometimes
g42
tp940
F1
s(Vtill
g60
tp941
F11
s(g20
g8
tp942
F2
s(g411
g38
tp943
F21
s(Vlive
g34
tp944
F1
s(Vmight
S'MD'
p945
tp946
F17
s(VLovers
g6
tp947
F1
s(Vbesides
g20
tp948
F1
s(V'My
g6
tp949
F1
s(VPerson
g6
tp950
F8
s(g34
g123
tp951
F3
s(VUndertakings
g20
tp952
F1
s(Vclasped
g15
tp953
F1
s(VVessels
g20
tp954
F1
s(VTaxations
g6
tp955
F1
s(VBoards
g6
tp956
F1
s(g184
g255
tp957
F4
s(Vbehave
g13
tp958
F1
s(Vwalk
g60
tp959
F6
s(Vrude
g34
tp960
F1
s(Veither
g42
tp961
F1
s(Vreceived
g22
tp962
F11
s(Vforbidding
g48
tp963
F1
s(Vchose
g15
tp964
F1
s(VInfamy
g6
tp965
F3
s(Vfall
g60
tp966
F2
s(g11
S':'
tp967
F2
s(VNation
g34
tp968
F3
s(Vmoment
S'NN'
p969
tp970
F1
s(VWreck
g6
tp971
F1
s(Vdiscern
g60
tp972
F1
s(Vdeficient
g4
tp973
F1
s(VVillain
g6
tp974
F5
s(VLands
g6
tp975
F1
s(g901
g42
tp976
F170
s(Vcease
g34
tp977
F1
s(Vmoved
g15
tp978
F1
s(VManuel
g6
tp979
F19
s(VUncertainties
g6
tp980
F1
s(Vpolite
g4
tp981
F1
s(Vgathered
g15
tp982
F3
s(Vshift
g60
tp983
F1
s(Vesteem
g13
tp984
F1
s(Venvy
g13
tp985
F1
s(g237
g58
tp986
F6
s(Vowed
g15
tp987
F1
s(Vwonder
g60
tp988
F1
s(g20
g114
tp989
F1
s(g89
S','
tp990
F7
s(Vwrite
g4
tp991
F1
s(g13
g215
tp992
F15
s(Vspread
g234
tp993
F1
s(VThings
g20
tp994
F3
s(VMiles
g20
tp995
F1
s(Vscarce
g15
tp996
F1
s(V'No
g123
tp997
F3
s(Vappear
g60
tp998
F1
s(Vdied
g22
tp999
F1
s(VGates
g6
tp1000
F1
s(Vforesaw
g15
tp1001
F1
s(VBring
g60
tp1002
F1
s(g34
g250
tp1003
F11
s(S')'
g53
tp1004
F1
s(VVisitors
g20
tp1005
F1
s(Vstepping
g48
tp1006
F1
s(Vdepriving
g48
tp1007
F1
s(Vthanked
g15
tp1008
F4
s(VGalleon
g6
tp1009
F1
s(Vtake
g60
tp1010
F23
s(g101
g34
tp1011
F13
s(Vwept
g15
tp1012
F2
s(VPresents
g20
tp1013
F2
s(V1706
g123
tp1014
F1
s(Vfourteen
g4
tp1015
F3
s(VSummer-
g4
tp1016
F1
s(Ve'er
g34
tp1017
F1
s(Vlast
g508
tp1018
F10
s(Vpresent
g13
tp1019
F1
s(V'She
g34
tp1020
F1
s(Vfashionable
g4
tp1021
F1
s(Vship
g34
tp1022
F1
s(Vwaited
g22
tp1023
F2
s(Vdoing
S'VBG'
p1024
tp1025
F2
s(g756
g114
tp1026
F3
s(VSecrets
g114
tp1027
F1
s(Vthy
g34
tp1028
F1
s(Vsell
g13
tp1029
F1
s(g60
g30
tp1030
F1
s(Vlonger
g8
tp1031
F5
s(Vout
g42
tp1032
F1
s(g42
g60
tp1033
F93
s(VToland
g6
tp1034
F1
s(S'VBG'
p1035
S'JJ'
p1036
tp1037
F16
s(VDesire
g6
tp1038
F1
s(VDotard
g6
tp1039
F1
s(Vrendered
g15
tp1040
F2
s(Vhold
g60
tp1041
F1
s(S'VBN'
p1042
g6
tp1043
F13
s(VSpain
S'NNP'
p1044
tp1045
F2
s(VMisfortunes
g20
tp1046
F4
s(VJuly
S'NNP'
p1047
tp1048
F1
s(Vonly
g4
tp1049
F5
s(VMischief
g34
tp1050
F1
s(VPocket
g6
tp1051
F1
s(g234
g255
tp1052
F1
s(g114
g48
tp1053
F1
s(VInfancy
g34
tp1054
F1
s(Vventure
S'NN'
p1055
tp1056
F4
s(VMorning
g6
tp1057
F9
s(Vsaved
g22
tp1058
F4
s(g6
g58
tp1059
F1
s(VBread
g6
tp1060
F7
s(VBasket
g6
tp1061
F1
s(VMake
g60
tp1062
F1
s(Vgeneral
g4
tp1063
F1
s(VBedding
g6
tp1064
F1
s(VMerchants
g20
tp1065
F2
s(g255
g102
tp1066
F3
s(Vwealth
g34
tp1067
F1
s(VCave
g6
tp1068
F3
s(g297
S'.'
tp1069
F1
s(Vgoverned
g15
tp1070
F1
s(Vwiping
g48
tp1071
F1
s(VExtremity
g6
tp1072
F1
s(Vsafely
g42
tp1073
F8
s(g15
g411
tp1074
F21
s(Vfollow
g60
tp1075
F4
s(Vlength
g34
tp1076
F5
s(Vput
g22
tp1077
F4
s(Vheavenly
g4
tp1078
F1
s(g48
g447
tp1079
F30
s(Vamongst
g60
tp1080
F1
s(Vnew
S'JJ'
p1081
tp1082
F6
s(Vconclude
g60
tp1083
F1
s(Vcreate
g60
tp1084
F2
s(V'From
g26
tp1085
F1
s(VPrinciples
g6
tp1086
F1
s(VWounds
g6
tp1087
F1
s(Vusing
S'VBG'
p1088
tp1089
F1
s(S'NN'
p1090
g30
tp1091
F7
s(g30
g6
tp1092
F15
s(VChurches
g6
tp1093
F3
s(Vpreserved
g22
tp1094
F7
s(VAccount
g6
tp1095
F5
s(VLetters
g20
tp1096
F1
s(Vstay
g13
tp1097
F3
s(Vfoolish
g4
tp1098
F1
s(Vforced
g22
tp1099
F3
s(VMoment
g6
tp1100
F3
s(Vupon
g188
tp1101
F22
s(Vtrust
g13
tp1102
F1
s(VGold
g34
tp1103
F2
s(Valtogether
g42
tp1104
F1
s(VDistinctions
g6
tp1105
F1
s(VJoseph
S'NNP'
p1106
tp1107
F32
s(g234
g411
tp1108
F1
s(Vweary
g4
tp1109
F1
s(VPretence
g34
tp1110
F3
s(Vhusband
g60
tp1111
F1
s(VAccount
g34
tp1112
F3
s(g26
g34
tp1113
F3
s(VEastern
g6
tp1114
F1
s(VPity
g6
tp1115
F1
s(VApollo
g6
tp1116
F1
s(Vinto
g657
tp1117
F50
s(g237
g34
tp1118
F33
s(Vchild
g34
tp1119
F1
s(VTenderness
g6
tp1120
F2
s(Vinvent
g60
tp1121
F2
s(VDestiny
g6
tp1122
F1
s(VBrook
g6
tp1123
F1
s(Vobliged
g22
tp1124
F2
s(VConsequence
g6
tp1125
F2
s(Vout
g411
tp1126
F18
s(VSheets
g6
tp1127
F1
s(g22
g411
tp1128
F6
s(VHorseman
g6
tp1129
F1
s(Vbelong
g60
tp1130
F1
s(Vbitter
g4
tp1131
F1
s(Vcongratulated
g22
tp1132
F1
s(Vpublick
g4
tp1133
F1
s(g164
g8
tp1134
F1
s(VNights
g114
tp1135
F1
s(V'That
g255
tp1136
F3
s(Vkept
g234
tp1137
F1
s(VTears
g20
tp1138
F2
s(g34
g297
tp1139
F4
s(Vacted
g15
tp1140
F1
s(S':'
g1035
tp1141
F16
s(Vimpossible
g4
tp1142
F4
s(g15
g255
tp1143
F2
s(VDaughters
g20
tp1144
F1
s(Vbowed
g15
tp1145
F1
s(g268
S'VBD'
p1146
tp1147
F3
s(S':'
g702
tp1148
F1
s(Vmost
g603
tp1149
F21
s(VWorld
g6
tp1150
F14
s(Vbegan
S'VBD'
p1151
tp1152
F7
s(Vbig
S'JJ'
p1153
tp1154
F1
s(Vchained
g22
tp1155
F1
s(VCause
g6
tp1156
F1
s(Vwatched
g15
tp1157
F1
s(Vyour
g215
tp1158
F75
s(Vrefuse
g60
tp1159
F2
s(Vcauses
g234
tp1160
F1
s(Vopen
g60
tp1161
F1
s(V'Importune
g26
tp1162
F1
s(Vgive
g60
tp1163
F15
s(Vovertake
g60
tp1164
F1
s(VSpirits
g6
tp1165
F2
s(VTrees
g6
tp1166
F1
s(VLoss
g34
tp1167
F1
s(VPreservation
g34
tp1168
F2
s(Von
g779
tp1169
F63
s(VGreat
g6
tp1170
F3
s(Vhear
g60
tp1171
F7
s(Vcontinually
g42
tp1172
F1
s(Vremained
g22
tp1173
F2
s(VVirtue
g60
tp1174
F1
s(Vcarried
g22
tp1175
F1
s(VBride
g6
tp1176
F1
s(g6
g89
tp1177
F6
s(VNumbers
g6
tp1178
F1
s(Vfew
S'JJ'
p1179
tp1180
F8
s(VCastles
g6
tp1181
F1
s(Vexalted
g4
tp1182
F1
s(VBarrels
g20
tp1183
F1
s(VBreakfast
g6
tp1184
F1
s(VAnd
S'CC'
p1185
tp1186
F19
s(Vbesought
g34
tp1187
F1
s(VHeavenly
g6
tp1188
F1
s(Vordered
g15
tp1189
F4
s(Vup
g188
tp1190
F2
s(Vwillingly
g42
tp1191
F3
s(VEyes
g6
tp1192
F5
s(Vresolved
g22
tp1193
F5
s(Vintailed
g15
tp1194
F1
s(g15
g11
tp1195
F1
s(Vexpressed
g15
tp1196
F3
s(Vrecommend
g60
tp1197
F1
s(V'Adieu
g123
tp1198
F1
s(VOur
S'PRP$'
p1199
tp1200
F2
s(Vchoice
S'NN'
p1201
tp1202
F2
s(Vform
g60
tp1203
F1
s(Vhoped
g15
tp1204
F4
s(VApartment
g34
tp1205
F3
s(g4
g20
tp1206
F94
s(Vtrembling
g48
tp1207
F2
s(g164
g756
tp1208
F23
s(g101
g237
tp1209
F2
s(VMons
g6
tp1210
F1
s(Vbound
g188
tp1211
F1
s(V;
S':'
tp1212
F380
s(VDeliverer
g6
tp1213
F1
s(g211
S':'
tp1214
F57
s(Vagreed
g15
tp1215
F4
s(Vpossessed
g22
tp1216
F3
s(VPort
g6
tp1217
F16
s(Vdrawn
g34
tp1218
F1
s(Vnamed
g22
tp1219
F1
s(S'WP'
p1220
g170
tp1221
F1
s(Vdoubtless
g60
tp1222
F5
s(Vfollowed
g22
tp1223
F2
s(Veight
S'CD'
p1224
tp1225
F1
s(VAdventures
g20
tp1226
F2
s(V'Insolent
g4
tp1227
F1
s(VRelation
g34
tp1228
F1
s(Vmuch
g4
tp1229
F21
s(g60
g60
tp1230
F9
s(Vrisqued
g22
tp1231
F1
s(VWants
g20
tp1232
F1
s(g4
g6
tp1233
F428
s(Vfares
g234
tp1234
F1
s(VHope
g34
tp1235
F2
s(Venter
g13
tp1236
F1
s(VPerson
g34
tp1237
F1
s(g30
g4
tp1238
F1
s(Vsurvived
g22
tp1239
F1
s(Vperceived
g15
tp1240
F5
s(VRound
g6
tp1241
F1
s(Vthinks
g234
tp1242
F1
s(VWhilst
g6
tp1243
F1
s(Vneeds
g42
tp1244
F1
s(g107
g34
tp1245
F1
s(VDam
g6
tp1246
F2
s(g53
S'.'
tp1247
F3
s(VDivine
g6
tp1248
F3
s(VAccidents
g20
tp1249
F1
s(VAmbassador
g6
tp1250
F3
s(g6
g603
tp1251
F1
s(Vdaring
g48
tp1252
F1
s(V'They
g26
tp1253
F1
s(g6
S')'
tp1254
F6
s(VFountain
g6
tp1255
F5
s(Vmake
g13
tp1256
F2
s(VBed
g34
tp1257
F2
s(Vpious
g4
tp1258
F3
s(Vinstrumental
g4
tp1259
F1
s(Vcontinue
g60
tp1260
F5
s(VLives
g20
tp1261
F4
s(Vpleasing
g48
tp1262
F1
s(Valong
g411
tp1263
F2
s(Vperformed
g15
tp1264
F1
s(Vfollowing
g4
tp1265
F1
s(Vputting
S'VBG'
p1266
tp1267
F1
s(Vviewed
g15
tp1268
F1
s(Vantient
g4
tp1269
F1
s(Vset
g60
tp1270
F3
s(Vfear
g4
tp1271
F1
s(VExcess
g6
tp1272
F1
s(Vwarned
g22
tp1273
F1
s(VDelights
g20
tp1274
F1
s(VPalace
g6
tp1275
F5
s(Vfolding
g48
tp1276
F1
s(VGeneral
g6
tp1277
F3
s(VCrime
g6
tp1278
F1
s(Vprocuring
g48
tp1279
F1
s(Vfind
g13
tp1280
F3
s(Vno
g42
tp1281
F8
s(Vstudy
g60
tp1282
F1
s(g53
g937
tp1283
F14
s(VThose
S'DT'
p1284
tp1285
F1
s(Vbecoming
S'VBG'
p1286
tp1287
F1
s(VTent
g34
tp1288
F1
s(VUrge
g188
tp1289
F1
s(VMen
g6
tp1290
F12
s(VPublick
g6
tp1291
F1
s(Vinjured
g22
tp1292
F1
s(Vadmirable
g4
tp1293
F1
s(Vcast
g34
tp1294
F1
s(VCharacter
g6
tp1295
F1
s(Vunwelcome
g4
tp1296
F1
s(VIf
S'IN'
p1297
tp1298
F3
s(V'Speak
g26
tp1299
F1
s(Vnot
g756
tp1300
F129
s(Vdepart
g60
tp1301
F3
s(VDecay
g6
tp1302
F1
s(Vsparkling
g4
tp1303
F1
s(Vdone
g1042
tp1304
F10
s(VGrief
g34
tp1305
F1
s(Vbuy
g60
tp1306
F1
s(VBed
g6
tp1307
F14
s(VEnd
g34
tp1308
F2
s(Vincapable
g4
tp1309
F2
s(Vinformed
g22
tp1310
F6
s(Vstrait
g60
tp1311
F1
s(Vdisagreeable
g4
tp1312
F1
s(VHold
g34
tp1313
F1
s(Vbetween
S'IN'
p1314
tp1315
F3
s(VHorse-Litter
g34
tp1316
F1
s(VOut-Room
g6
tp1317
F1
s(VBravery
g6
tp1318
F1
s(Vdispleased
g4
tp1319
F1
s(Vdisappeared
g15
tp1320
F1
s(Vheartily
g42
tp1321
F1
s(VChristian
g6
tp1322
F7
s(VDog
g6
tp1323
F2
s(VVillage
g34
tp1324
F3
s(Vfired
g22
tp1325
F1
s(Vavoid
g60
tp1326
F4
s(VSt.
S'NNP'
p1327
tp1328
F2
s(g15
g123
tp1329
F9
s(Vmyself
g211
tp1330
F15
s(Vdeparted
g15
tp1331
F5
s(Vlye
g60
tp1332
F2
s(Vdooming
g48
tp1333
F1
s(Vdescended
g15
tp1334
F1
s(V'Alas
g123
tp1335
F1
s(Vcome
g22
tp1336
F5
s(VOrator
g6
tp1337
F1
s(VPeople
g6
tp1338
F1
s(Vquit
g60
tp1339
F3
s(VYes
g107
tp1340
F2
s(g237
g8
tp1341
F1
s(VPortion
g34
tp1342
F1
s(Vinner
g4
tp1343
F1
s(g297
g224
tp1344
F1
s(Valong
g42
tp1345
F2
s(VJudgment
g6
tp1346
F1
s(V'What
g188
tp1347
F2
s(Vpoison
g34
tp1348
F1
s(Vprosper
g11
tp1349
F1
s(g603
g102
tp1350
F2
s(Vyielded
g15
tp1351
F2
s(g60
S'.'
tp1352
F27
s(Vbelieve
g60
tp1353
F3
s(VSign
g6
tp1354
F1
s(VQuarrel
g6
tp1355
F1
s(Vstopped
g22
tp1356
F1
s(g34
g268
tp1357
F6
s(V'My
g297
tp1358
F1
s(VTomorrow
g6
tp1359
F1
s(g348
g11
tp1360
F2
s(VA
g214
tp1361
F4
s(V'Madam
g26
tp1362
F2
s(Vmoved
g22
tp1363
F1
s(VVirgin
g6
tp1364
F1
s(Vreturning
g48
tp1365
F9
s(Vremoved
g15
tp1366
F1
s(Vpursued
g15
tp1367
F3
s(VArdelisa
g6
tp1368
F102
s(VMerchant
g6
tp1369
F3
s(g756
g95
tp1370
F3
s(Vlike
g188
tp1371
F13
s(VWomen
g6
tp1372
F3
s(VKnees
g6
tp1373
F1
s(Vlifted
g15
tp1374
F3
s(VTrial
g34
tp1375
F1
s(Vmethinks
g20
tp1376
F1
s(Vknow
g60
tp1377
F9
s(Vsuffered
g15
tp1378
F1
s(Vsooner
g60
tp1379
F1
s(S','
g15
tp1380
F195
s(Vsuiting
g48
tp1381
F4
s(VManner
g34
tp1382
F3
s(VCircumstances
g114
tp1383
F1
s(Vwilful
g4
tp1384
F1
s(Vrequires
S'VBZ'
p1385
tp1386
F1
s(Vsafe
g13
tp1387
F1
s(S'PRP'
p1388
g58
tp1389
F2
s(S'DT'
p1390
g123
tp1391
F17
s(VFriendship
g6
tp1392
F6
s(Vbad
S'JJ'
p1393
tp1394
F1
s(VEnglish
g6
tp1395
F1
s(Vneither
g214
tp1396
F4
s(g238
S'MD'
p1397
tp1398
F201
s(S','
g89
tp1399
F68
s(S'PRP'
p1400
g255
tp1401
F6
s(g11
g250
tp1402
F1
s(VMattress
g6
tp1403
F1
s(Vpass
g60
tp1404
F5
s(Vbring
g60
tp1405
F11
s(VPensions
g20
tp1406
F1
s(Vseemed
g22
tp1407
F1
s(Vsuited
g15
tp1408
F1
s(g48
S'RB'
p1409
tp1410
F26
s(Vplaced
g15
tp1411
F2
s(Vanswered
g22
tp1412
F1
s(Vincensed
g22
tp1413
F1
s(Villustrious
g4
tp1414
F1
s(VPlanks
g6
tp1415
F1
s(Vde
g22
tp1416
F1
s(VNatives
g20
tp1417
F2
s(Vodious
g4
tp1418
F1
s(Vmiddle
g34
tp1419
F1
s(Vblessed
g22
tp1420
F3
s(Voverspread
g188
tp1421
F2
s(Vreligious
g4
tp1422
F3
s(Vsend
g34
tp1423
F2
s(VBegone
g34
tp1424
F1
s(Vspake
g34
tp1425
F1
s(Vbringing
g48
tp1426
F3
s(Vforce
g60
tp1427
F2
s(Vcalling
S'VBG'
p1428
tp1429
F1
s(Vtender
g4
tp1430
F1
s(VOld
g6
tp1431
F1
s(Vamongst
g34
tp1432
F1
s(g772
S':'
tp1433
F1
s(VExcess
g34
tp1434
F1
s(Vnoble
g4
tp1435
F29
s(Vtaking
g48
tp1436
F9
s(Vwith
g38
tp1437
F230
s(VCousin
g6
tp1438
F3
s(VElement
g6
tp1439
F1
s(VFowl
g6
tp1440
F1
s(VTill
g6
tp1441
F1
s(Vwill
g1397
tp1442
F69
s(VDeparture
g34
tp1443
F6
s(VLooks
g6
tp1444
F1
s(S':'
g268
tp1445
F12
s(VChristian
g4
tp1446
F17
s(Vsustain
g60
tp1447
F1
s(Vfarther
g34
tp1448
F2
s(Vleave
g13
tp1449
F7
s(VTerrass-Walks
g20
tp1450
F1
s(Vsail
g13
tp1451
F1
s(Vhow
S'WRB'
p1452
tp1453
F13
s(Vparticularly
S'RB'
p1454
tp1455
F1
s(VGoat
g6
tp1456
F5
s(Vcompliment
g60
tp1457
F1
s(VValue
g6
tp1458
F2
s(VSaviour
g123
tp1459
F1
s(g26
g6
tp1460
F6
s(VMagnificence
g6
tp1461
F1
s(Vbeautiful
g234
tp1462
F1
s(Vrepent
g34
tp1463
F1
s(VSide
g6
tp1464
F2
s(VCloset
g6
tp1465
F1
s(VDistress
g6
tp1466
F5
s(Vimpious
g4
tp1467
F1
s(Vcontent
g4
tp1468
F1
s(Vwhere
g89
tp1469
F70
s(Vran
g15
tp1470
F2
s(Vloved
g15
tp1471
F6
s(Vescape
g34
tp1472
F1
s(VCompany
g4
tp1473
F1
s(Vfrequently
g42
tp1474
F4
s(VSoldiers
g20
tp1475
F1
s(Vbear
g4
tp1476
F1
s(VNoon
g6
tp1477
F4
s(V'Ask
g26
tp1478
F1
s(Vopen
g411
tp1479
F1
s(VFleet
g6
tp1480
F1
s(g13
g34
tp1481
F6
s(Vremarkable
g34
tp1482
F1
s(Vperhaps
S'RB'
p1483
tp1484
F5
s(g13
g102
tp1485
F14
s(VMonths
g20
tp1486
F7
s(Vapproaching
g48
tp1487
F1
s(Vinsensible
g4
tp1488
F3
s(Vsomebody
g34
tp1489
F1
s(VMean
g4
tp1490
F1
s(Vspend
g60
tp1491
F1
s(Vfalling
S'VBG'
p1492
tp1493
F4
s(Vpillaged
g22
tp1494
F1
s(g13
S','
tp1495
F20
s(VBowstring
g6
tp1496
F1
s(g101
g15
tp1497
F1
s(Vamazed
g22
tp1498
F1
s(VMercy
g6
tp1499
F2
s(g237
g234
tp1500
F10
s(Vreserved
g15
tp1501
F1
s(g647
g4
tp1502
F85
s(g123
S'PRP'
p1503
tp1504
F1
s(Vheretofore
g42
tp1505
F1
s(g4
g715
tp1506
F2
s(VMorning
g34
tp1507
F2
s(g101
g30
tp1508
F1
s(VBoat
g6
tp1509
F24
s(Vdelivered
g15
tp1510
F2
s(Vhours
S'NNS'
p1511
tp1512
F1
s(VWine
g6
tp1513
F13
s(VProspects
g20
tp1514
F1
s(Vgratify
g60
tp1515
F1
s(g42
g13
tp1516
F11
s(g22
g566
tp1517
F158
s(VEncouragement
g6
tp1518
F2
s(g42
g22
tp1519
F91
s(Voccasioned
g22
tp1520
F1
s(Vsee
g60
tp1521
F23
s(g6
g214
tp1522
F59
s(Vpleased
g4
tp1523
F4
s(VFeuillade
g6
tp1524
F9
s(Voffended
g4
tp1525
F1
s(VReport
g6
tp1526
F1
s(Vleads
g234
tp1527
F1
s(Vrefused
g15
tp1528
F1
s(Vsend
g60
tp1529
F9
s(VCargo
g6
tp1530
F1
s(g702
g60
tp1531
F250
s(g15
g58
tp1532
F4
s(VStern
g6
tp1533
F1
s(Vbelieved
g15
tp1534
F2
s(g214
g250
tp1535
F7
s(VCan
g1397
tp1536
F1
s(Vravaged
g15
tp1537
F1
s(VGardiners
g20
tp1538
F1
s(VFriends
g114
tp1539
F1
s(Vmention
g60
tp1540
F1
s(VFlesh
g6
tp1541
F1
s(g779
g250
tp1542
F655
s(Vdisturb
g60
tp1543
F2
s(g13
S'MD'
p1544
tp1545
F3
s(VSight
g6
tp1546
F10
s(Valas
g107
tp1547
F4
s(Vside
g34
tp1548
F1
s(VStools
g6
tp1549
F1
s(Vdown
g42
tp1550
F6
s(Vnothing
g31
tp1551
F20
s(Vlanding
g34
tp1552
F1
s(Vhandy
g4
tp1553
F1
s(VAdieu
g6
tp1554
F1
s(VPretence
g6
tp1555
F1
s(VWinter
g6
tp1556
F1
s(g255
g772
tp1557
F1
s(Vdissemble
g60
tp1558
F1
s(VFriers
g6
tp1559
F1
s(Vdiscovered
g22
tp1560
F5
s(Vwere
g901
tp1561
F86
s(Vlooked
g15
tp1562
F3
s(Vrude
g60
tp1563
F1
s(Vbeyond
S'IN'
p1564
tp1565
F1
s(Vrelieve
g60
tp1566
F2
s(Voverheard
g4
tp1567
F1
s(VBeds
g6
tp1568
F2
s(Vheard
g15
tp1569
F5
s(Vfarther
g42
tp1570
F3
s(g11
g6
tp1571
F2
s(Vdrink
g60
tp1572
F2
s(g336
g336
tp1573
F1
s(Vperpetual
g4
tp1574
F1
s(Vherself
g211
tp1575
F4
s(VArchipelago
g6
tp1576
F1
s(VPrinciples
g20
tp1577
F1
s(VUproar
g6
tp1578
F1
s(V'Alas
g107
tp1579
F1
s(g237
g15
tp1580
F120
s(VTreasures
g20
tp1581
F1
s(Vclear
g4
tp1582
F1
s(Vshift
g34
tp1583
F1
s(Van
g214
tp1584
F26
s(Vaboard
g13
tp1585
F1
s(S':'
g188
tp1586
F52
s(g86
g34
tp1587
F185
s(Vcontrary
g4
tp1588
F1
s(VVillain
g34
tp1589
F1
s(Vlive
g60
tp1590
F4
s(Vimplored
g15
tp1591
F1
s(Vextremely
S'RB'
p1592
tp1593
F2
s(Vfound
g15
tp1594
F23
s(Vsubject
g4
tp1595
F1
s(Vcontinuing
g48
tp1596
F2
s(VInclinations
g20
tp1597
F1
s(g188
g123
tp1598
F35
s(Vso
g295
tp1599
F2
s(g26
g164
tp1600
F6
s(V'Slaves
g234
tp1601
F1
s(VE
g6
tp1602
F1
s(Vpulling
g48
tp1603
F1
s(VWaters
g6
tp1604
F1
s(Vbest
g603
tp1605
F2
s(Vwrong
g4
tp1606
F1
s(g1179
g188
tp1607
F88
s(Vforce
g34
tp1608
F1
s(Vspread
g34
tp1609
F1
s(g48
g237
tp1610
F4
s(V'Sister
g11
tp1611
F1
s(VChoice
g6
tp1612
F1
s(Vwilt
g15
tp1613
F1
s(VHeat
g6
tp1614
F1
s(Vchearfully
g42
tp1615
F1
s(Vsupposed
g15
tp1616
F5
s(Vimprobable
g4
tp1617
F2
s(Vask
g60
tp1618
F2
s(g15
g102
tp1619
F99
s(S'NN'
p1620
g101
tp1621
F1
s(Vrewarded
g22
tp1622
F2
s(Vundo
g60
tp1623
F1
s(g937
g901
tp1624
F2
s(VFoot
g6
tp1625
F1
s(Vprepared
g15
tp1626
F3
s(Vnobly
g42
tp1627
F3
s(g114
g60
tp1628
F1
s(Vadvertised
g22
tp1629
F1
s(g756
g937
tp1630
F84
s(VPermit
g6
tp1631
F1
s(Vflamed
g15
tp1632
F1
s(VWere
g42
tp1633
F1
s(Vwhat
g30
tp1634
F1
s(g8
g102
tp1635
F1
s(Vreason
S'NN'
p1636
tp1637
F2
s(Vsurlily
g42
tp1638
F1
s(Vtenderly
g42
tp1639
F4
s(Vearly
g4
tp1640
F2
s(VAgonies
g20
tp1641
F1
s(Vwhenever
g34
tp1642
F1
s(Vthat
g42
tp1643
F1
s(Vhe
g253
tp1644
F304
s(Vsometimes
g60
tp1645
F1
s(Vprove
g60
tp1646
F2
s(g22
S'JJ'
p1647
tp1648
F13
s(VFeatures
g6
tp1649
F1
s(VMagnificence
g34
tp1650
F1
s(Vhumble
g4
tp1651
F2
s(Vprocured
g15
tp1652
F1
s(Vpresently
g42
tp1653
F3
s(S'RB'
p1654
S'('
tp1655
F1
s(VAvanturer
g6
tp1656
F1
s(Vpiously
g42
tp1657
F1
s(Vaccompany
g60
tp1658
F1
s(g214
g8
tp1659
F8
s(Vthank
g13
tp1660
F3
s(Vsent
g15
tp1661
F7
s(Vtouched
g15
tp1662
F1
s(Vall
g214
tp1663
F77
s(VMount
g6
tp1664
F1
s(VRelations
g20
tp1665
F1
s(g188
S','
tp1666
F31
s(g123
S'IN'
p1667
tp1668
F26
s(Vneglected
g22
tp1669
F1
s(VPlaces
g20
tp1670
F2
s(g411
S'.'
tp1671
F3
s(VBirds
g6
tp1672
F1
s(Vwanting
g34
tp1673
F2
s(Vspread
g60
tp1674
F1
s(V'Father
g211
tp1675
F2
s(Vsell
g60
tp1676
F2
s(Vdoubtless
g34
tp1677
F4
s(VPursuit
g6
tp1678
F1
s(g34
g779
tp1679
F206
s(V'Is
g188
tp1680
F1
s(VSufferings
g20
tp1681
F1
s(Vfreight
g15
tp1682
F1
s(Vlabouring
g4
tp1683
F1
s(VWay
g6
tp1684
F9
s(Vsupposed
g22
tp1685
F1
s(Vwander
g34
tp1686
F1
s(VMan
g34
tp1687
F12
s(Vconfusedly
g42
tp1688
F1
s(g22
g812
tp1689
F16
s(VEscape
g6
tp1690
F2
s(g1544
S','
tp1691
F14
s(Vworthy
g4
tp1692
F4
s(Vhope
g60
tp1693
F3
s(VAcknowledgments
g20
tp1694
F3
s(Vconvinced
g15
tp1695
F1
s(Vconsequently
g42
tp1696
F1
s(Vprayed
g13
tp1697
F1
s(g26
g779
tp1698
F2
s(g31
g8
tp1699
F1
s(VTravellers
g20
tp1700
F1
s(g507
g756
tp1701
F73
s(Vdrove
g60
tp1702
F2
s(VDiscovery
g6
tp1703
F3
s(VMadam
g6
tp1704
F9
s(Vmanifest
g101
tp1705
F1
s(Vperfect
g4
tp1706
F2
s(Vtill
g13
tp1707
F1
s(VLove
g34
tp1708
F1
s(VPersons
g20
tp1709
F2
s(S'WP$'
p1710
g20
tp1711
F2
s(VDays
g234
tp1712
F1
s(Vbetray
g60
tp1713
F2
s(Vowe
g13
tp1714
F1
s(g60
g1397
tp1715
F1
s(VKid
g6
tp1716
F3
s(VSex
g34
tp1717
F4
s(VTroop
g6
tp1718
F2
s(Vdeclare
g60
tp1719
F2
s(Vbaptised
g15
tp1720
F1
s(Vcut
g34
tp1721
F1
s(Vspare
g60
tp1722
F1
s(Vlearned
g22
tp1723
F5
s(Vsoft
g4
tp1724
F2
s(Vthereabouts
g20
tp1725
F1
s(S','
g58
tp1726
F6
s(g58
g646
tp1727
F2
s(g1397
g86
tp1728
F3
s(Vcumbersome
g4
tp1729
F1
s(Vlost
g15
tp1730
F2
s(Vreturn
g34
tp1731
F2
s(Vmaking
g48
tp1732
F3
s(Vdoubted
g15
tp1733
F1
s(VSin
g6
tp1734
F7
s(Vloves
g234
tp1735
F1
s(VReality
g6
tp1736
F1
s(VApartment
g6
tp1737
F1
s(g13
g60
tp1738
F3
s(VWritings
g20
tp1739
F1
s(Vdrinking
g48
tp1740
F1
s(VDiscourse
g6
tp1741
F5
s(Vdear
g4
tp1742
F23
s(Vremember
g13
tp1743
F1
s(Vwell
g42
tp1744
F21
s(Vmove
g34
tp1745
F1
s(VConfession
g6
tp1746
F1
s(Vconsiderable
g4
tp1747
F2
s(VSaviour
g6
tp1748
F1
s(Vput
g15
tp1749
F6
s(Vthankfully
g42
tp1750
F1
s(VVenice
g6
tp1751
F8
s(S'RB'
p1752
g6
tp1753
F30
s(VWe
S'PRP'
p1754
tp1755
F4
s(Vperishing
g48
tp1756
F2
s(Vsetting
g48
tp1757
F1
s(Vyounger
g11
tp1758
F1
s(VDebates
g114
tp1759
F1
s(VTurks
g234
tp1760
F1
s(g20
g30
tp1761
F7
s(VPassports
g6
tp1762
F1
s(g4
g34
tp1763
F83
s(VDeaths
g20
tp1764
F1
s(Vwitness
g60
tp1765
F1
s(VCastle
g34
tp1766
F1
s(Vsecure
g60
tp1767
F3
s(Vcast
g13
tp1768
F1
s(VMortality
g34
tp1769
F1
s(VLeaves
g6
tp1770
F1
s(VShipwreck
g6
tp1771
F2
s(g53
g237
tp1772
F3
s(VStrangers
g114
tp1773
F1
s(Vrespectful
g4
tp1774
F1
s(VPenitence
g6
tp1775
F1
s(Vever
g189
tp1776
F14
s(Vpresents
g20
tp1777
F1
s(Vingratiated
g4
tp1778
F1
s(g15
S':'
tp1779
F25
s(g370
g411
tp1780
F7
s(VSteps
g20
tp1781
F1
s(Vflatter
g60
tp1782
F1
s(Vcould
g318
tp1783
F46
s(g188
S':'
tp1784
F9
s(Vswallowed
g22
tp1785
F2
s(Vbrings
g234
tp1786
F1
s(Vunaffected
g4
tp1787
F1
s(Vmake
g60
tp1788
F16
s(VCourage
g6
tp1789
F1
s(VParts
g20
tp1790
F1
s(Vsat
g15
tp1791
F5
s(Vspake
g60
tp1792
F1
s(Vajar
g20
tp1793
F1
s(g214
g13
tp1794
F3
s(Vhateful
g4
tp1795
F1
s(Vstripping
g48
tp1796
F1
s(Vgot
g15
tp1797
F7
s(Vreaping
g48
tp1798
F1
s(Vsigh
g60
tp1799
F1
s(Vdesires
g234
tp1800
F1
s(Vobtaining
g48
tp1801
F1
s(Vyourselves
g20
tp1802
F1
s(VMurder
g34
tp1803
F1
s(Vour
g86
tp1804
F42
s(Vtill
g22
tp1805
F1
s(Vact
g34
tp1806
F1
s(Vsweet
g34
tp1807
F1
s(VLady
g34
tp1808
F20
s(g102
g123
tp1809
F1
s(VConsul
g6
tp1810
F38
s(g11
g20
tp1811
F2
s(Vkept
g13
tp1812
F1
s(VSeraglio
g6
tp1813
F3
s(g60
g1400
tp1814
F237
s(g34
g4
tp1815
F3
s(Vthousand
g13
tp1816
F1
s(VPhysician
g4
tp1817
F1
s(VCastle
g6
tp1818
F1
s(Vsilent
g4
tp1819
F5
s(S'WRB'
p1820
S'VBZ'
p1821
tp1822
F1
s(Vshot
g4
tp1823
F1
s(Vsignal
g4
tp1824
F1
s(Vlawless
g4
tp1825
F1
s(VHow
g268
tp1826
F2
s(VMistress
g6
tp1827
F2
s(Vangry
g4
tp1828
F1
s(Vtragical
g4
tp1829
F1
s(V:
S':'
tp1830
F112
s(S','
g1710
tp1831
F10
s(Vtho
g34
tp1832
F1
s(V'Now
g107
tp1833
F2
s(Vrestored
g15
tp1834
F1
s(VDoors
g114
tp1835
F1
s(Vindeed
S'RB'
p1836
tp1837
F2
s(VSet
g6
tp1838
F1
s(VSea-Fowls
g6
tp1839
F1
s(VAbsence
g34
tp1840
F4
s(Vpretty
g42
tp1841
F1
s(V'come
g297
tp1842
F1
s(Vnone
g34
tp1843
F4
s(VPossession
g6
tp1844
F1
s(V'Yes
g107
tp1845
F1
s(Vdefy
g13
tp1846
F1
s(VBeef
g6
tp1847
F1
s(g164
g603
tp1848
F3
s(Vloaded
g15
tp1849
F1
s(Vinform
g60
tp1850
F7
s(Vsomething
S'NN'
p1851
tp1852
F5
s(V'None
g123
tp1853
F1
s(VHonour
g6
tp1854
F9
s(g34
g102
tp1855
F65
s(Vdisplease
g60
tp1856
F1
s(VRuin
g6
tp1857
F9
s(Vrenders
g234
tp1858
F1
s(VFeet
g6
tp1859
F5
s(g1821
g6
tp1860
F7
s(g278
g42
tp1861
F94
s(g901
g22
tp1862
F166
s(VMark
g6
tp1863
F2
s(g48
S':'
tp1864
F3
s(Vdamning
g34
tp1865
F1
s(Vseized
g22
tp1866
F2
s(Vthither
g411
tp1867
F1
s(g123
g237
tp1868
F4
s(Vfive
S'CD'
p1869
tp1870
F11
s(V'Welcome
g34
tp1871
F1
s(Vrenounce
g60
tp1872
F1
s(Vbid
g60
tp1873
F2
s(Vconspired
g15
tp1874
F1
s(Vmouldy
g34
tp1875
F1
s(Vfollowed
g15
tp1876
F4
s(Vundress
g60
tp1877
F2
s(Vgave
S'VBD'
p1878
tp1879
F10
s(Vsucceeded
g15
tp1880
F1
s(g4
g42
tp1881
F7
s(Vsuddenly
g42
tp1882
F1
s(Vbelieve
g13
tp1883
F1
s(VCoxswain
g6
tp1884
F2
s(Vtraffick
g60
tp1885
F1
s(Venough
g42
tp1886
F5
s(Vstarved
g15
tp1887
F1
s(Vcuriously
g42
tp1888
F1
s(VPockets
g20
tp1889
F1
s(V'He
g34
tp1890
F2
s(Vrest
g60
tp1891
F4
s(Vfilled
g15
tp1892
F1
s(Vdestitute
g34
tp1893
F1
s(VGo
g6
tp1894
F2
s(Vthinking
g48
tp1895
F2
s(g411
S','
tp1896
F8
s(VShip
g34
tp1897
F9
s(g20
g102
tp1898
F21
s(VEyes
g20
tp1899
F10
s(Vsure
g4
tp1900
F4
s(VVenetian
g4
tp1901
F4
s(Vinherit
g13
tp1902
F1
s(VShutting
g48
tp1903
F1
s(Vsustained
g22
tp1904
F1
s(Vonce
g42
tp1905
F5
s(Vlift
g234
tp1906
F1
s(Vdetermined
g22
tp1907
F2
s(g1090
S':'
tp1908
F76
s(VFood
g34
tp1909
F1
s(V'Father
g123
tp1910
F2
s(Vguided
g22
tp1911
F1
s(VThey
g1388
tp1912
F31
s(Vstirred
g15
tp1913
F1
s(VPriest
g6
tp1914
F29
s(VChief
g4
tp1915
F1
s(VSea-Birds
g20
tp1916
F1
s(VMarchioness
g6
tp1917
F1
s(Vmay
g702
tp1918
F30
s(Vdesire
g13
tp1919
F1
s(g614
g102
tp1920
F40
s(VVisit
g34
tp1921
F2
s(VMarquis
g6
tp1922
F12
s(VChange
g6
tp1923
F2
s(VPlace
g34
tp1924
F15
s(g48
S'PRP'
p1925
tp1926
F48
s(g102
g11
tp1927
F1
s(VCountry-house
g6
tp1928
F2
s(VOne
g123
tp1929
F6
s(Vretired
g15
tp1930
F4
s(g278
g13
tp1931
F192
s(V'Here
g58
tp1932
F1
s(S','
g34
tp1933
F37
s(Vthee
g4
tp1934
F1
s(VHumanity
g6
tp1935
F1
s(Vwise
g34
tp1936
F2
s(Vsurprized
g22
tp1937
F6
s(VPassage
g6
tp1938
F1
s(VSailors
g6
tp1939
F3
s(VLot
g34
tp1940
F1
s(VAfter
S'IN'
p1941
tp1942
F7
s(Vabandon
g60
tp1943
F2
s(g188
g285
tp1944
F9
s(VPicture
g34
tp1945
F1
s(Vtime
g1620
tp1946
F12
s(VPistoles
g6
tp1947
F1
s(VRochmount
g6
tp1948
F4
s(Vspared
g22
tp1949
F1
s(Vrecollecting
g48
tp1950
F1
s(VThat
g214
tp1951
F1
s(Vlived
g22
tp1952
F5
s(VCompanions
g20
tp1953
F1
s(g791
S'.'
tp1954
F1
s(Vspoke
g15
tp1955
F7
s(Vdismissed
g15
tp1956
F1
s(VIn
g188
tp1957
F11
s(Vblush
g34
tp1958
F1
s(g20
S'VBN'
p1959
tp1960
F2
s(VOfficer
g6
tp1961
F1
s(Vshine
g60
tp1962
F1
s(VFury
g6
tp1963
F2
s(Vcommodious
g4
tp1964
F1
s(Vcontains
g234
tp1965
F1
s(Vstrong
S'JJ'
p1966
tp1967
F2
s(VMendoza
g6
tp1968
F1
s(Vdeath-like
g4
tp1969
F1
s(VTowers
g114
tp1970
F1
s(VBrother
g6
tp1971
F8
s(VBlessings
g20
tp1972
F2
s(VWater
g6
tp1973
F8
s(Vshall
g507
tp1974
F52
s(VPlace
g6
tp1975
F14
s(Vall
g95
tp1976
F43
s(Vimagine
g60
tp1977
F1
s(VFlood
g6
tp1978
F3
s(VHand
g34
tp1979
F1
s(g60
g114
tp1980
F1
s(VHorses
g6
tp1981
F1
s(g238
g95
tp1982
F5
s(VTell
g60
tp1983
F1
s(Vdelightful
g4
tp1984
F1
s(VMarquiss
g6
tp1985
F1
s(VPeople
g114
tp1986
F1
s(Vwhilst
g295
tp1987
F1
s(Vrefit
g60
tp1988
F1
s(Vshe
S'PRP'
p1989
tp1990
F81
s(Vset
g22
tp1991
F3
s(g1452
g102
tp1992
F3
s(Vweep
g60
tp1993
F1
s(VSanctity
g6
tp1994
F1
s(Vtheir
g812
tp1995
F68
s(VScents
g20
tp1996
F1
s(Vcaressed
g22
tp1997
F1
s(Vsays
S'VBZ'
p1998
tp1999
F2
s(V'Your
g123
tp2000
F1
s(Venjoyed
g234
tp2001
F1
s(Vtrust
g60
tp2002
F3
s(Vhonoured
g4
tp2003
F1
s(Vunloaded
g15
tp2004
F1
s(VDram
g6
tp2005
F2
s(Vsooner
g42
tp2006
F1
s(Vbrutish
g4
tp2007
F1
s(S','
g8
tp2008
F1
s(Vdistrust
g60
tp2009
F1
s(g164
g4
tp2010
F30
s(Vescaping
g48
tp2011
F2
s(g4
S'.'
tp2012
F32
s(VLad
g6
tp2013
F2
s(Vsooner
g34
tp2014
F2
s(g22
g31
tp2015
F12
s(Vstopped
g15
tp2016
F3
s(VCrucifix
g6
tp2017
F1
s(VProspect
g6
tp2018
F1
s(Vcapable
g4
tp2019
F2
s(Vcursed
g22
tp2020
F2
s(V.
S'.'
tp2021
F481
s(Vswoon
g34
tp2022
F1
s(VBoy
g6
tp2023
F30
s(g538
g1081
tp2024
F11
s(Vsee
g4
tp2025
F1
s(g237
S'IN'
p2026
tp2027
F87
s(VNotice
g6
tp2028
F4
s(Vconclude
g34
tp2029
F1
s(g102
g6
tp2030
F81
s(Vbeg
g34
tp2031
F2
s(Vweary
g34
tp2032
F1
s(Vabout
g42
tp2033
F1
s(VLadies
g114
tp2034
F7
s(Vend
g34
tp2035
F2
s(g234
S'.'
tp2036
F5
s(VOpportunities
g114
tp2037
F1
s(VQualities
g20
tp2038
F2
s(Vforbids
g234
tp2039
F1
s(Vdivert
g60
tp2040
F1
s(VDid
g6
tp2041
F1
s(Vbrought
g15
tp2042
F11
s(g297
g4
tp2043
F5
s(VSurgery
g6
tp2044
F1
s(Vwhose
g1710
tp2045
F14
s(Vhot
g4
tp2046
F1
s(S','
g22
tp2047
F21
s(VWish
g6
tp2048
F1
s(Vearnestly
g42
tp2049
F1
s(Vthere
g42
tp2050
F29
s(Vyours
g42
tp2051
F1
s(Vdoubt
g60
tp2052
F1
s(V1705
g123
tp2053
F1
s(VSoon
g42
tp2054
F1
s(VPeace
g6
tp2055
F2
s(Vsurmount
g60
tp2056
F1
s(VFear
g6
tp2057
F1
s(VDomingo
g6
tp2058
F4
s(V'll
S'MD'
p2059
tp2060
F12
s(Vwhilst
g13
tp2061
F2
s(V'Now
g297
tp2062
F1
s(Vtried
g22
tp2063
F1
s(VZeal
g6
tp2064
F1
s(Vearly
g42
tp2065
F3
s(Vlearn
g60
tp2066
F1
s(VJoy
g6
tp2067
F11
s(Vwhatever
g30
tp2068
F3
s(VVertue
g6
tp2069
F1
s(VSlave
g34
tp2070
F1
s(Vnamed
g15
tp2071
F1
s(VSea-Port
g6
tp2072
F2
s(Vlocked
g15
tp2073
F2
s(Vassured
g15
tp2074
F2
s(Vreceive
g60
tp2075
F2
s(Vproduced
g22
tp2076
F1
s(Vchange
g60
tp2077
F1
s(S':'
g22
tp2078
F3
s(VShip
g6
tp2079
F50
s(Vunused
g4
tp2080
F1
s(Vminutes
S'NNS'
p2081
tp2082
F1
s(g15
g603
tp2083
F1
s(VUncle
g34
tp2084
F4
s(Vdear
g188
tp2085
F1
s(Vsuffered
g22
tp2086
F1
s(VEnemy
g6
tp2087
F2
s(Vintreat
g60
tp2088
F1
s(Vyours
g20
tp2089
F1
s(Vforfeit
g34
tp2090
F1
s(g447
g278
tp2091
F2
s(g15
S'.'
tp2092
F26
s(VTo-morrow
g34
tp2093
F1
s(S':'
g107
tp2094
F1
s(VSleep
g6
tp2095
F1
s(VSuccess
g6
tp2096
F2
s(VLady
g6
tp2097
F34
s(Vstir
g60
tp2098
F2
s(VAngel
g6
tp2099
F1
s(Vby
g566
tp2100
F88
s(VBox
g6
tp2101
F4
s(Vwent
S'VBD'
p2102
tp2103
F34
s(Vendangering
g48
tp2104
F1
s(VNow
g551
tp2105
F5
s(VTongues
g20
tp2106
F1
s(Vdeliver
g60
tp2107
F6
s(Vdivide
g60
tp2108
F1
s(VMeat
g6
tp2109
F4
s(Vcried
g15
tp2110
F9
s(Vdoubt
g13
tp2111
F2
s(g15
g715
tp2112
F1
s(VNecessity
g34
tp2113
F1
s(Vloved
g22
tp2114
F2
s(Vback
g411
tp2115
F1
s(VAssistance
g34
tp2116
F1
s(Vconvenient
g4
tp2117
F2
s(Vsupplied
g22
tp2118
F2
s(Vhopes
g234
tp2119
F2
s(Vsacrilegious
g4
tp2120
F1
s(VGentleman
g6
tp2121
F3
s(V'It
g26
tp2122
F2
s(V'Come
g34
tp2123
F1
s(Vto
g102
tp2124
F774
s(g53
g102
tp2125
F2
s(g8
g901
tp2126
F1
s(Vbusied
g15
tp2127
F1
s(VGarden
g6
tp2128
F4
s(Vretire
g60
tp2129
F2
s(g11
S','
tp2130
F5
s(VJourney
g34
tp2131
F1
s(VPork
g6
tp2132
F1
s(Vcall
g60
tp2133
F2
s(VFriendship
g34
tp2134
F1
s(VInsolence
g6
tp2135
F1
s(g20
g42
tp2136
F9
s(Vher
g211
tp2137
F52
s(VCommander
g6
tp2138
F2
s(V'Just
g4
tp2139
F1
s(g237
g13
tp2140
F13
s(Vled
g15
tp2141
F1
s(Vmarried
g4
tp2142
F1
s(Vforbid
g15
tp2143
F1
s(Vbeseech
g60
tp2144
F1
s(Vsupplying
g48
tp2145
F1
s(VDays
g6
tp2146
F6
s(Vthought
g22
tp2147
F2
s(VDisquiet
g4
tp2148
F1
s(VConvents
g6
tp2149
F1
s(g8
S','
tp2150
F2
s(Vhonoured
g22
tp2151
F1
s(g4
g234
tp2152
F2
s(g22
g255
tp2153
F2
s(S':'
g58
tp2154
F4
s(Vcircumcised
g22
tp2155
F1
s(Vdelivered
g22
tp2156
F1
s(Voften
S'RB'
p2157
tp2158
F1
s(Vworse
g11
tp2159
F1
s(VPrior
g6
tp2160
F1
s(S')'
g285
tp2161
F1
s(VQuestions
g20
tp2162
F1
s(Vmeeting
g34
tp2163
F2
s(Vcriminal
g4
tp2164
F1
s(Vordered
g4
tp2165
F1
s(S'DT'
p2166
S'.'
tp2167
F7
s(VOpportunity
g6
tp2168
F10
s(Vfancied
g15
tp2169
F1
s(Vunfortunate
g4
tp2170
F6
s(VMonths
g6
tp2171
F4
s(VDogs
g6
tp2172
F1
s(VMonth
g6
tp2173
F2
s(Vhollow
g4
tp2174
F2
s(Vfull
S'JJ'
p2175
tp2176
F9
s(VMidnight
g6
tp2177
F2
s(Vlarge
S'JJ'
p2178
tp2179
F6
s(V'Speak
g123
tp2180
F1
s(g646
g114
tp2181
F2
s(g6
g447
tp2182
F11
s(Vways
S'NNS'
p2183
tp2184
F2
s(VCharge
g6
tp2185
F1
s(VMessage
g34
tp2186
F7
s(g53
S':'
tp2187
F5
s(VArt
g6
tp2188
F2
s(Vthey
S'PRP'
p2189
tp2190
F199
s(Vpursuing
g48
tp2191
F1
s(VEloquence
g34
tp2192
F1
s(VCross
g6
tp2193
F1
s(Vreduce
S'VB'
p2194
tp2195
F1
s(g348
g791
tp2196
F9
s(VMoney
g34
tp2197
F1
s(VGuilt
g6
tp2198
F2
s(Vthree
g772
tp2199
F15
s(VProvisions
g6
tp2200
F3
s(Ventered
g22
tp2201
F1
s(Vdifferent
S'JJ'
p2202
tp2203
F1
s(Vfor
g36
tp2204
F160
s(VProvisions
g20
tp2205
F3
s(Vtempted
g15
tp2206
F1
s(Vknocked
g22
tp2207
F1
s(Vmarried
g22
tp2208
F1
s(VMan
g6
tp2209
F12
s(Vfear
g42
tp2210
F1
s(Vwanting
g48
tp2211
F6
s(VDays
g114
tp2212
F3
s(Vbuilt
g34
tp2213
F1
s(g237
g42
tp2214
F92
s(VEntertainment
g34
tp2215
F1
s(Vdwell
g13
tp2216
F1
s(g20
S'VBG'
p2217
tp2218
F5
s(Vpermitted
g22
tp2219
F2
s(Vreveal
g15
tp2220
F1
s(VEducation
g6
tp2221
F2
s(VReturn
g6
tp2222
F5
s(VCaptive
g6
tp2223
F1
s(g13
S'PRP'
p2224
tp2225
F28
s(Vworth
g4
tp2226
F1
s(VWealth
g6
tp2227
F4
s(Vhollowing
g34
tp2228
F1
s(Vsubmit
g13
tp2229
F2
s(Vlaid
g34
tp2230
F1
s(Vexposed
g22
tp2231
F1
s(VNor
g295
tp2232
F1
s(VConversation
g6
tp2233
F4
s(Vled
g22
tp2234
F2
s(VThanks
g6
tp2235
F3
s(Vdragged
g22
tp2236
F1
s(VNoise
g34
tp2237
F1
s(Vbrake
g60
tp2238
F1
s(VDishonour
g6
tp2239
F2
s(Vinhuman
g34
tp2240
F1
s(g48
g6
tp2241
F24
s(g1042
g95
tp2242
F1
s(g60
g102
tp2243
F63
s(VAlas
g107
tp2244
F2
s(Vproceed
g60
tp2245
F2
s(VVisier
g6
tp2246
F4
s(VFamilies
g20
tp2247
F2
s(V'Secure
g26
tp2248
F1
s(VAccident
g34
tp2249
F1
s(Vsure
g42
tp2250
F1
s(VMoor
g6
tp2251
F2
s(g1397
g102
tp2252
F5
s(V'They
g60
tp2253
F1
s(Vmerits
g20
tp2254
F1
s(Vfind
g60
tp2255
F21
s(V'So
g26
tp2256
F1
s(Vcontinual
g4
tp2257
F1
s(VReturns
g6
tp2258
F1
s(Vshattered
g4
tp2259
F1
s(V'Charming
g48
tp2260
F2
s(Vmerciless
g34
tp2261
F3
s(VBooks
g6
tp2262
F2
s(VObservation
g6
tp2263
F1
s(Vsleep
g60
tp2264
F5
s(Vnasty
g4
tp2265
F1
s(Vrest
g34
tp2266
F5
s(VTongue
g6
tp2267
F2
s(Vconclude
g13
tp2268
F1
s(VDiscourse
g34
tp2269
F1
s(Vcome
g13
tp2270
F2
s(VFool
g6
tp2271
F2
s(Vmoments
g20
tp2272
F1
s(Vhearing
g48
tp2273
F2
s(VBonhome
g6
tp2274
F2
s(g58
g15
tp2275
F8
s(Vspent
g22
tp2276
F2
s(Vthither
g34
tp2277
F4
s(VSweetmeats
g114
tp2278
F1
s(Vbloody
g4
tp2279
F1
s(VTemple
g6
tp2280
F1
s(VConversation
g34
tp2281
F3
s(Vdeparted
g22
tp2282
F1
s(g234
g34
tp2283
F2
s(Vread
g15
tp2284
F1
s(Vslender
g34
tp2285
F1
s(Vlives
g234
tp2286
F7
s(Vwho
g255
tp2287
F83
s(VMind
g6
tp2288
F4
s(g6
g297
tp2289
F104
s(VElements
g20
tp2290
F1
s(Vwhom
g1220
tp2291
F30
s(Vforbid
g34
tp2292
F1
s(VLieutenant
g6
tp2293
F1
s(S','
g102
tp2294
F69
s(Vlong
g42
tp2295
F12
s(Vrepair
g60
tp2296
F1
s(VChests
g6
tp2297
F1
s(g26
g1752
tp2298
F2
s(Vpropose
g60
tp2299
F1
s(Vdied
g15
tp2300
F5
s(VExamination
g6
tp2301
F1
s(Vturning
g48
tp2302
F3
s(VEarth
g34
tp2303
F1
s(Vescape
g60
tp2304
F5
s(V''Tis
g26
tp2305
F1
s(VDuty
g34
tp2306
F1
s(Vspent
g15
tp2307
F2
s(g34
g255
tp2308
F1
s(VSultan
g6
tp2309
F7
s(g31
g11
tp2310
F1
s(Vspread
g22
tp2311
F1
s(Vburned
g22
tp2312
F1
s(VProsperity
g6
tp2313
F1
s(Vthus
g1409
tp2314
F13
s(Vlovely
g4
tp2315
F5
s(g255
g1035
tp2316
F4
s(Vnear
g188
tp2317
F7
s(Vhis
g447
tp2318
F224
s(V'Christian
g4
tp2319
F1
s(Vmean
g60
tp2320
F1
s(VPaleness
g6
tp2321
F3
s(Vde
g6
tp2322
F10
s(VAcknowledgments
g6
tp2323
F1
s(Vsweet
g4
tp2324
F6
s(VGhosts
g20
tp2325
F1
s(VSea-side
g6
tp2326
F1
s(g11
g34
tp2327
F3
s(Vbody
g34
tp2328
F4
s(g102
g114
tp2329
F1
s(VArms
g6
tp2330
F2
s(VCompassion
g6
tp2331
F2
s(VLeading
g48
tp2332
F1
s(VHouse
S'NNP'
p2333
tp2334
F44
s(Vboard
S'NN'
p2335
tp2336
F4
s(VThis
S'DT'
p2337
tp2338
F21
s(Vaway
g411
tp2339
F5
s(Vsoon
S'RB'
p2340
tp2341
F25
s(VFidelity
g6
tp2342
F1
s(VYou
S'PRP'
p2343
tp2344
F7
s(VAffairs
g114
tp2345
F1
s(VTenants
g20
tp2346
F1
s(Vcareful
g4
tp2347
F2
s(Vdelicate
g4
tp2348
F1
s(VTurk
g6
tp2349
F12
s(VAffections
g20
tp2350
F1
s(V'Dear
g4
tp2351
F2
s(VSeven
g6
tp2352
F1
s(VVisit
g6
tp2353
F1
s(g114
g13
tp2354
F4
s(Vspeak
g60
tp2355
F9
s(Vhappily
g42
tp2356
F1
s(VRemains
g6
tp2357
F1
s(Vduring
S'IN'
p2358
tp2359
F1
s(g123
g694
tp2360
F1
s(Vdrop
g34
tp2361
F1
s(Vreflected
g15
tp2362
F2
s(VMatter
g34
tp2363
F1
s(Vmet
g15
tp2364
F1
s(g38
g20
tp2365
F16
s(VOrder
g6
tp2366
F3
s(Vpacking
g48
tp2367
F2
s(VChance
g6
tp2368
F1
s(g101
g1106
tp2369
F1
s(Vten
g60
tp2370
F1
s(VIs
g234
tp2371
F2
s(Vlost
g22
tp2372
F6
s(Vborn
g22
tp2373
F2
s(VPost
g34
tp2374
F1
s(Vstaid
g13
tp2375
F1
s(Vabundance
g34
tp2376
F1
s(g1397
g6
tp2377
F1
s(VSlaves
g114
tp2378
F2
s(Vescape
g13
tp2379
F1
s(VSea-Voyage
g34
tp2380
F1
s(Vfound
g22
tp2381
F7
s(g6
g48
tp2382
F40
s(V'And
g42
tp2383
F1
s(Vwalk
g34
tp2384
F1
s(V'To
g123
tp2385
F1
s(VEmpire
g6
tp2386
F2
s(Vwept
g34
tp2387
F1
s(g234
g447
tp2388
F13
s(Vyield
g60
tp2389
F4
s(Vdispose
g60
tp2390
F2
s(VPedro
g6
tp2391
F1
s(VComplaint
g34
tp2392
F1
s(g15
g101
tp2393
F3
s(V'Sir
g123
tp2394
F1
s(VCorner
g6
tp2395
F2
s(VLeaves
g20
tp2396
F1
s(g4
g224
tp2397
F12
s(VOpinion
g34
tp2398
F1
s(Vreplied
g15
tp2399
F19
s(VRestoratives
g6
tp2400
F1
s(Vcontained
g15
tp2401
F2
s(Vcustomary
g4
tp2402
F2
s(VDeath
g34
tp2403
F7
s(VThere
S'EX'
p2404
tp2405
F2
s(VFrancis
g6
tp2406
F15
s(Vtherefore
g188
tp2407
F1
s(VFavour
g6
tp2408
F4
s(VBirth
g6
tp2409
F3
s(Vshews
g234
tp2410
F1
s(S','
g95
tp2411
F1
s(Vwater
S'NN'
p2412
tp2413
F1
s(VAngels
g6
tp2414
F3
s(Vagain
g1654
tp2415
F20
s(VBed-chamber
g6
tp2416
F1
s(Vwork
g60
tp2417
F2
s(Voff
g411
tp2418
F15
s(VReluctance
g6
tp2419
F1
s(VDispute
g6
tp2420
F1
s(Vwrought
g4
tp2421
F1
s(Vaccepted
g15
tp2422
F1
s(S'NNP'
p2423
g22
tp2424
F7
s(VDevotion
g6
tp2425
F1
s(Vfair
g4
tp2426
F8
s(Vmakes
S'VBZ'
p2427
tp2428
F1
s(VSuccessor
g6
tp2429
F1
s(Vthem
g1400
tp2430
F111
s(Vravish
g60
tp2431
F1
s(Vterrible
g4
tp2432
F1
s(Vtowards
g234
tp2433
F1
s(Vstrongest
g101
tp2434
F1
s(VCowards
g6
tp2435
F1
s(Vpassionately
g42
tp2436
F2
s(VShame
g6
tp2437
F1
s(V'In
g234
tp2438
F1
s(Vconstrained
g22
tp2439
F1
s(Vmanner
g34
tp2440
F8
s(Vmeagre
g34
tp2441
F2
s(Vdiverted
g22
tp2442
F2
s(Vliving
g34
tp2443
F3
s(VLast
S'JJ'
p2444
tp2445
F1
s(VToken
g6
tp2446
F1
s(VTurkish
g4
tp2447
F9
s(Vbear
g60
tp2448
F1
s(Vfeared
g15
tp2449
F1
s(g30
S','
tp2450
F7
s(g255
g13
tp2451
F7
s(VHis
S'PRP$'
p2452
tp2453
F3
s(g1820
g646
tp2454
F3
s(g34
g1397
tp2455
F12
s(VQuilt
g6
tp2456
F2
s(Vstaying
g48
tp2457
F1
s(Vprevail
g60
tp2458
F1
s(Vebbing
g48
tp2459
F1
s(VWife
g6
tp2460
F2
s(Vworshipped
g22
tp2461
F1
s(Vbold
g4
tp2462
F2
s(VBills
g6
tp2463
F1
s(V'Yes
g123
tp2464
F2
s(VMisery
g6
tp2465
F2
s(VTruth
g6
tp2466
F3
s(VPoles
g6
tp2467
F1
s(VSickness
g6
tp2468
F1
s(Vmine
g4
tp2469
F3
s(VParts
g6
tp2470
F1
s(Vwholly
g42
tp2471
F3
s(g237
g812
tp2472
F47
s(Vuseless
g4
tp2473
F1
s(Vdesirous
g4
tp2474
F1
s(VBirth
g34
tp2475
F1
s(VGreens
g6
tp2476
F1
s(VSounds
g114
tp2477
F1
s(Valarmed
g22
tp2478
F3
s(g1400
g34
tp2479
F10
s(VPension
g6
tp2480
F1
s(VHomer
g6
tp2481
F1
s(g102
g315
tp2482
F1
s(VSecret
g6
tp2483
F2
s(VEngland
S'NNP'
p2484
tp2485
F1
s(g2189
g901
tp2486
F549
s(Vpreserved
g15
tp2487
F5
s(VTime
g34
tp2488
F2
s(VWoman
g6
tp2489
F3
s(VCalmness
g6
tp2490
F1
s(Voccasioned
g15
tp2491
F1
s(Vleave
g60
tp2492
F11
s(VSick
g6
tp2493
F1
s(Vretiring
g34
tp2494
F1
s(VHad
g6
tp2495
F1
s(g211
g6
tp2496
F19
s(VHusband
g6
tp2497
F4
s(Vvile
g4
tp2498
F2
s(VDon
g6
tp2499
F19
s(Vhelp
g60
tp2500
F1
s(Vdenied
g15
tp2501
F2
s(VConfession
g34
tp2502
F1
s(VGentlemen
g20
tp2503
F1
s(Vimaginable
g4
tp2504
F2
s(Vaccompanies
g20
tp2505
F1
s(VQuality
g6
tp2506
F3
s(g211
g123
tp2507
F1
s(VWalks
g6
tp2508
F2
s(Voft
g4
tp2509
F1
s(Valive
g4
tp2510
F5
s(VConclusion
g6
tp2511
F1
s(Vstrengthened
g15
tp2512
F1
s(Vfainted
g15
tp2513
F3
s(Vaccompanied
g22
tp2514
F4
s(g34
g211
tp2515
F66
s(VMoments
g20
tp2516
F1
s(VDoor
g6
tp2517
F5
s(VHarbour
g6
tp2518
F2
s(Vtired
g4
tp2519
F1
s(V'Madam
g123
tp2520
F5
s(Vdivine
g4
tp2521
F1
s(Vremains
g234
tp2522
F1
s(g15
g370
tp2523
F207
s(g348
S','
tp2524
F31
s(Vtrade
g60
tp2525
F3
s(V'My
g234
tp2526
F1
s(VQueen
g6
tp2527
F1
s(Vwish
g4
tp2528
F2
s(Vobtained
g15
tp2529
F1
s(Vdesire
g60
tp2530
F1
s(VConfusion
g6
tp2531
F1
s(Vdenies
g234
tp2532
F1
s(Vsuspect
g13
tp2533
F1
s(Velse
g42
tp2534
F2
s(Vmoving
g48
tp2535
F3
s(Vshedding
g48
tp2536
F2
s(Vmust
S'MD'
p2537
tp2538
F23
s(VEars
g20
tp2539
F1
s(Vapproaching
g34
tp2540
F2
s(Vwhilst
g34
tp2541
F5
s(VAmbition
g6
tp2542
F1
s(Vsmile
g60
tp2543
F1
s(Vdetermined
g15
tp2544
F4
s(VVault
g34
tp2545
F1
s(VCome
g6
tp2546
F1
s(g211
g237
tp2547
F31
s(Vmelt
g34
tp2548
F1
s(VPity
g34
tp2549
F1
s(g53
g297
tp2550
F5
s(Vdo
g13
tp2551
F13
s(VDeath-like
g4
tp2552
F2
s(VSuspicion
g34
tp2553
F2
s(Vinterrupt
g4
tp2554
F1
s(Vboding
g34
tp2555
F1
s(V'Alas
g20
tp2556
F5
s(Vlest
g188
tp2557
F1
s(Vtogether
g42
tp2558
F14
s(Vobligingly
g42
tp2559
F1
s(g30
g224
tp2560
F13
s(Vtied
g15
tp2561
F2
s(VBanquetting-House
g6
tp2562
F1
s(Vgay
g34
tp2563
F2
s(Vproper
g34
tp2564
F2
s(VPalaces
g6
tp2565
F1
s(Vincreased
g15
tp2566
F1
s(Vseparated
g22
tp2567
F1
s(Vherself
g34
tp2568
F1
s(Venabled
g22
tp2569
F1
s(Vthoughtful
g34
tp2570
F1
s(g336
g6
tp2571
F20
s(Vsight
g34
tp2572
F1
s(g2337
g15
tp2573
F17
s(Vtell
g60
tp2574
F7
s(S':'
g53
tp2575
F11
s(VStorm
g6
tp2576
F7
s(Vgrant
g60
tp2577
F1
s(Vsecured
g22
tp2578
F1
s(VEntertainment
g6
tp2579
F1
s(Vloved
g4
tp2580
F1
s(Vbrave
g22
tp2581
F1
s(Vconvenient
g60
tp2582
F1
s(g22
g89
tp2583
F1
s(VIngratitude
g6
tp2584
F1
s(Vreturned
g22
tp2585
F7
s(Vconsented
g15
tp2586
F6
s(Vfear
g60
tp2587
F6
s(Vgiven
S'VBN'
p2588
tp2589
F9
s(S','
g336
tp2590
F1
s(Vprobable
g4
tp2591
F1
s(V'My
g295
tp2592
F1
s(Vimagined
g15
tp2593
F1
s(S'('
g1220
tp2594
F1
s(VPrisoner
g6
tp2595
F1
s(Vguide
g34
tp2596
F2
s(VWishes
g6
tp2597
F2
s(VQuilts
g6
tp2598
F1
s(Vdrive
g60
tp2599
F2
s(Vlock
g60
tp2600
F1
s(VSister
g6
tp2601
F2
s(Vlet
g60
tp2602
F22
s(Vcomply
g60
tp2603
F1
s(g370
g60
tp2604
F48
s(Vequalled
g15
tp2605
F1
s(VBashaws
g6
tp2606
F1
s(VRequest
g6
tp2607
F3
s(Vbelow
g34
tp2608
F1
s(g26
g238
tp2609
F6
s(VDrops
g6
tp2610
F2
s(Vomitted
g15
tp2611
F1
s(Vlikewise
g34
tp2612
F4
s(VRashness
g6
tp2613
F2
s(S':'
g4
tp2614
F6
s(VDowny
g6
tp2615
F1
s(VTerrors
g20
tp2616
F1
s(g58
g250
tp2617
F1
s(Vkeep
g60
tp2618
F7
s(V'here
g297
tp2619
F1
s(Vbecame
S'VBD'
p2620
tp2621
F4
s(Vsearching
g48
tp2622
F1
s(Vremembring
g48
tp2623
F1
s(Vcatching
g48
tp2624
F1
s(V'How
g26
tp2625
F1
s(Vpretending
g48
tp2626
F2
s(Vfrom
S'IN'
p2627
tp2628
F80
s(Vhoped
g22
tp2629
F1
s(Vcarry
g60
tp2630
F4
s(VMuch
g4
tp2631
F1
s(Vset
g15
tp2632
F5
s(VForce
g6
tp2633
F3
s(VFathers
g20
tp2634
F1
s(Vfond
g34
tp2635
F1
s(Vvaluable
g4
tp2636
F3
s(VCoverlids
g6
tp2637
F1
s(VHolland
g6
tp2638
F1
s(VVillainy
g6
tp2639
F2
s(VGrief
g6
tp2640
F3
s(Vthe
g250
tp2641
F961
s(Vcruel
g4
tp2642
F2
s(VI
g278
tp2643
F250
s(VHistory
g6
tp2644
F1
s(Vblue
g34
tp2645
F1
s(Vconceive
g60
tp2646
F1
s(Vend
g60
tp2647
F2
s(VPartitions
g6
tp2648
F1
s(Vbesought
g15
tp2649
F1
s(VAdvice
g6
tp2650
F1
s(Vbefallen
g22
tp2651
F3
s(VConscience
g34
tp2652
F3
s(g756
g170
tp2653
F10
s(VDistraction
g6
tp2654
F1
s(g223
g255
tp2655
F8
s(Vhad
g22
tp2656
F2
s(VStreets
g20
tp2657
F1
s(g30
g38
tp2658
F3
s(g114
S'.'
tp2659
F7
s(S'('
g188
tp2660
F3
s(Vapplaud
g13
tp2661
F1
s(VCreator
g6
tp2662
F2
s(VTurkey
g6
tp2663
F10
s(Vdeny
g60
tp2664
F3
s(VMistress
g34
tp2665
F1
s(Vcame
g1146
tp2666
F21
s(S'('
S'VBD'
p2667
tp2668
F3
s(g4
g60
tp2669
F1
s(g60
g13
tp2670
F3
s(Vvile
g34
tp2671
F1
s(g60
g6
tp2672
F33
s(Valong
g188
tp2673
F1
s(S'VBN'
p2674
S'.'
tp2675
F25
s(VStreets
g114
tp2676
F1
s(Vshared
g15
tp2677
F1
s(Vwhether
S'IN'
p2678
tp2679
F1
s(Vacquaint
g60
tp2680
F4
s(g42
S')'
tp2681
F1
s(VHorse-litter
g6
tp2682
F1
s(S','
g13
tp2683
F20
s(Vsave
g60
tp2684
F3
s(Vcurse
g60
tp2685
F1
s(Vgean
g4
tp2686
F1
s(VOpportunity
g34
tp2687
F1
s(Vnow
g184
tp2688
F56
s(Vscruple
g34
tp2689
F1
s(Vyouth
g34
tp2690
F1
s(g20
g6
tp2691
F3
s(VMethods
g6
tp2692
F1
s(Velder
g34
tp2693
F1
s(VGuards
g6
tp2694
F1
s(VHuts
g20
tp2695
F2
s(S'DT'
p2696
g255
tp2697
F4
s(VFrailty
g34
tp2698
F1
s(V170
g123
tp2699
F1
s(VJustice
g6
tp2700
F5
s(VName
g34
tp2701
F11
s(Vrising
g34
tp2702
F2
s(VTown
g6
tp2703
F1
s(V
g4
tp2704
F1
s(g6
g278
tp2705
F83
s(S','
g278
tp2706
F201
s(VTravels
g6
tp2707
F1
s(Vgiving
S'VBG'
p2708
tp2709
F5
s(Vaccomplish
g60
tp2710
F1
s(Vfreighted
g22
tp2711
F1
s(Vlonely
g4
tp2712
F1
s(Voverjoy
g60
tp2713
F1
s(Vcan
g1544
tp2714
F28
s(Vvain
g34
tp2715
F4
s(S','
g214
tp2716
F103
s(Vdepended
g22
tp2717
F1
s(g34
g114
tp2718
F2
s(Vpray
g13
tp2719
F2
s(VVirtue
g6
tp2720
F7
s(Vlive
g13
tp2721
F2
s(VTitle
g6
tp2722
F5
s(Vdressed
g4
tp2723
F1
s(Vbleat
g34
tp2724
F1
s(g268
g6
tp2725
F12
s(g114
S':'
tp2726
F2
s(Vuttered
g15
tp2727
F1
s(VSir
S'NNP'
p2728
tp2729
F1
s(VMusquets
g20
tp2730
F1
s(VGodfather
g6
tp2731
F1
s(Vforgive
g60
tp2732
F2
s(Vpast
g34
tp2733
F1
s(VHour
g6
tp2734
F1
s(VMilk
g34
tp2735
F1
s(Vdirected
g22
tp2736
F2
s(Vtelling
g48
tp2737
F8
s(VCoffers
g6
tp2738
F1
s(Vtired
g22
tp2739
F1
s(Vhoisted
g15
tp2740
F1
s(Vsustained
g15
tp2741
F1
s(Vtalking
S'VBG'
p2742
tp2743
F1
s(VDelays
g6
tp2744
F1
s(Vwant
g13
tp2745
F1
s(Vhellish
g4
tp2746
F1
s(Vhighly
S'RB'
p2747
tp2748
F2
s(Vhonourable
g4
tp2749
F1
s(S':'
g123
tp2750
F18
s(g1397
S':'
tp2751
F1
s(Vseems
S'VBZ'
p2752
tp2753
F2
s(VFire
g6
tp2754
F2
s(VCare
g6
tp2755
F6
s(VNoise
g6
tp2756
F2
s(VPowder
g6
tp2757
F2
s(Vsent
g22
tp2758
F6
s(VBrandy
g6
tp2759
F1
s(VPiece
g6
tp2760
F1
s(VItaly
S'NNP'
p2761
tp2762
F1
s(g297
g6
tp2763
F69
s(Vshewed
g15
tp2764
F5
s(VDistance
g6
tp2765
F1
s(VSpeak
g34
tp2766
F1
s(VSides
g6
tp2767
F1
s(Vforbid
g60
tp2768
F2
s(VLeghorne
g6
tp2769
F1
s(Vsacred
g4
tp2770
F1
s(VThoughts
g114
tp2771
F2
s(VInstruction
g6
tp2772
F1
s(VClosets
g6
tp2773
F1
s(g4
S'CD'
p2774
tp2775
F2
s(Vdying
g34
tp2776
F1
s(Vrepaired
g22
tp2777
F1
s(Vthan
g203
tp2778
F20
s(Vsay
g13
tp2779
F1
s(Vtrust
g34
tp2780
F2
s(VVillage
g6
tp2781
F3
s(Vtill
g188
tp2782
F3
s(Vover
g188
tp2783
F5
s(g89
g812
tp2784
F3
s(V'Madam
g211
tp2785
F1
s(S','
g11
tp2786
F3
s(VOdes
g6
tp2787
F1
s(Vfailing
g48
tp2788
F1
s(Vcommanded
g22
tp2789
F1
s(VRoom
g34
tp2790
F1
s(VLads
g6
tp2791
F1
s(Vprostrating
g34
tp2792
F1
s(Vtwo
g538
tp2793
F16
s(VWonders
g6
tp2794
F1
s(Vwaiting
g48
tp2795
F2
s(Vserve
g13
tp2796
F1
s(Vembraced
g22
tp2797
F1
s(Vsuspected
g22
tp2798
F3
s(Vhonoured
g15
tp2799
F2
s(VIsland
g6
tp2800
F12
s(g4
g901
tp2801
F6
s(VFloor
g6
tp2802
F1
s(VKnife
g6
tp2803
F1
s(VSword
g6
tp2804
F1
s(Vquestioned
g22
tp2805
F1
s(g20
g13
tp2806
F14
s(VLeanness
g6
tp2807
F1
s(Vshut
g15
tp2808
F1
s(g6
g34
tp2809
F79
s(VHorace
g6
tp2810
F1
s(VRushes
g6
tp2811
F6
s(VComfort
g6
tp2812
F1
s(Vshaped
g22
tp2813
F2
s(VWisdom
g6
tp2814
F1
s(g297
g34
tp2815
F15
s(VInfidels
g20
tp2816
F1
s(Vhope
g13
tp2817
F7
s(Vfierce
g4
tp2818
F1
s(VHaving
g48
tp2819
F2
s(Vcatched
g15
tp2820
F2
s(V'Are
g26
tp2821
F1
s(Vpresented
g15
tp2822
F1
s(Vmine
g34
tp2823
F2
s(Vleft
g22
tp2824
F7
s(VAn
S'DT'
p2825
tp2826
F1
s(g20
S','
tp2827
F92
s(Vsplendidly
g42
tp2828
F1
s(g250
g34
tp2829
F210
s(g34
S'.'
tp2830
F67
s(V'Home
g123
tp2831
F1
s(VComparison
g6
tp2832
F1
s(Veat
g34
tp2833
F1
s(Vleave
g34
tp2834
F1
s(Vmean
g34
tp2835
F1
s(Vkilled
g15
tp2836
F2
s(VCivility
g6
tp2837
F2
s(g715
g259
tp2838
F7
s(Vshut
g13
tp2839
F1
s(V/
g34
tp2840
F1
s(VFriers
g20
tp2841
F1
s(g86
g4
tp2842
F69
s(VWitness
g6
tp2843
F1
s(VBack-Shops
g6
tp2844
F1
s(Vforced
g15
tp2845
F1
s(Vmeet
g60
tp2846
F6
s(Vdead
g34
tp2847
F2
s(VQuickset-Hedges
g20
tp2848
F1
s(Vperfectly
g42
tp2849
F3
s(VCondition
g34
tp2850
F2
s(Vvirtuous
g4
tp2851
F2
s(VEnds
g20
tp2852
F2
s(Vacquainted
g22
tp2853
F2
s(Vc.
g34
tp2854
F1
s(Vguessed
g15
tp2855
F2
s(Vinvited
g22
tp2856
F1
s(Vplaited
g4
tp2857
F1
s(g30
g318
tp2858
F8
s(VRight
g6
tp2859
F1
s(Vdiscern
g4
tp2860
F1
s(Vesteemed
g22
tp2861
F2
s(g34
S','
tp2862
F169
s(Vunable
g4
tp2863
F4
s(g6
g1710
tp2864
F1
s(Vconcealed
g15
tp2865
F2
s(Vsheltered
g22
tp2866
F1
s(VHorror
g6
tp2867
F1
s(Vfinish
g60
tp2868
F1
s(Vmournful
g4
tp2869
F1
s(VCompany
g34
tp2870
F1
s(VSome
S'DT'
p2871
tp2872
F3
s(Vturned
g15
tp2873
F3
s(VJames
S'NNP'
p2874
tp2875
F1
s(Vhighest
S'JJS'
p2876
tp2877
F1
s(Vrecommended
g22
tp2878
F1
s(Vsaying
g48
tp2879
F14
s(Vbegging
g34
tp2880
F1
s(g26
g13
tp2881
F1
s(Vwhence
g34
tp2882
F6
s(g646
g22
tp2883
F45
s(Vdwell
g60
tp2884
F1
s(S'NNP'
p2885
g114
tp2886
F4
s(VDifficulty
g6
tp2887
F1
s(Vdefenseless
g34
tp2888
F1
s(S'VBD'
p2889
g60
tp2890
F5
s(VShe
S'PRP'
p2891
tp2892
F13
s(Vhowever
S'RB'
p2893
tp2894
F2
s(Vblack
g644
tp2895
F3
s(g15
g2696
tp2896
F209
s(Vaffords
g20
tp2897
F1
s(Vfell
S'VBD'
p2898
tp2899
F11
s(Vdare
g60
tp2900
F1
s(Vhim
g370
tp2901
F148
s(Vis
g164
tp2902
F102
s(VLamentations
g20
tp2903
F1
s(VHabits
g234
tp2904
F1
s(VSweet-meats
g6
tp2905
F1
s(VMarket
g6
tp2906
F1
s(Vgains
g823
tp2907
F1
s(Vunknown
g4
tp2908
F1
s(Vten
g123
tp2909
F2
s(VWishes
g20
tp2910
F1
s(Ventirely
g42
tp2911
F1
s(VTwin-Kid
g6
tp2912
F1
s(g42
S','
tp2913
F130
s(VSwine
g6
tp2914
F1
s(Vdined
g15
tp2915
F1
s(Vat
g803
tp2916
F82
s(Vattended
g22
tp2917
F1
s(Vfurnished
g15
tp2918
F1
s(Vconduct
g60
tp2919
F2
s(VDeath
g6
tp2920
F23
s(Vextraordinary
S'JJ'
p2921
tp2922
F3
s(VFood
g6
tp2923
F12
s(g214
g102
tp2924
F1
s(VGrottoes
g6
tp2925
F2
s(VState
g6
tp2926
F2
s(Vwithout
S'IN'
p2927
tp2928
F6
s(VLove
g6
tp2929
F10
s(VAge
g6
tp2930
F3
s(g1035
g8
tp2931
F1
s(VGardens
g20
tp2932
F1
s(Vswearing
g34
tp2933
F2
s(Vme
g1503
tp2934
F129
s(g4
S','
tp2935
F113
s(VPrince
g6
tp2936
F1
s(g255
g15
tp2937
F60
s(g6
S':'
tp2938
F155
s(VArmy
g6
tp2939
F6
s(Vstrange
g4
tp2940
F2
s(Vfeeding
g48
tp2941
F1
s(Venjoys
g234
tp2942
F1
s(Vplucked
g15
tp2943
F1
s(VLords
g20
tp2944
F1
s(VMasts
g20
tp2945
F3
s(VHabitation
g6
tp2946
F1
s(Vdivided
g15
tp2947
F2
s(VLet
g60
tp2948
F4
s(g214
g42
tp2949
F10
s(Vlonger
g11
tp2950
F3
s(Vpresent
g4
tp2951
F1
s(Vtakes
S'VBZ'
p2952
tp2953
F1
s(g411
g255
tp2954
F4
s(S'VB'
p2955
g4
tp2956
F29
s(Veat
g60
tp2957
F5
s(VGround
g6
tp2958
F1
s(S')'
g15
tp2959
F1
s(VMischief
g6
tp2960
F1
s(VShew
g6
tp2961
F1
s(Vrose
S'VBD'
p2962
tp2963
F3
s(Vshining
g34
tp2964
F1
s(g102
g1055
tp2965
F8
s(Vdesolate
g4
tp2966
F1
s(Vmade
g22
tp2967
F11
s(Varrived
g15
tp2968
F11
s(Ventertained
g22
tp2969
F3
s(VRetreat
g34
tp2970
F1
s(Vinstantly
g42
tp2971
F1
s(Vwhile
g34
tp2972
F4
s(Vprevent
g34
tp2973
F1
s(Vasked
g22
tp2974
F2
s(Vknowing
g48
tp2975
F4
s(Vburied
g15
tp2976
F1
s(g2404
S','
tp2977
F1
s(V'Day
g34
tp2978
F1
s(Vconceived
g22
tp2979
F1
s(Vwish
g60
tp2980
F1
s(g20
g20
tp2981
F1
s(VOwners
g20
tp2982
F1
s(Vno
g214
tp2983
F50
s(Vencouraged
g15
tp2984
F2
s(Vunbarred
g15
tp2985
F1
s(Vbefore
g13
tp2986
F1
s(VWith
S'IN'
p2987
tp2988
F5
s(g11
S'.'
tp2989
F1
s(Vnor
S'CC'
p2990
tp2991
F10
s(VSeamen
g6
tp2992
F4
s(g20
g60
tp2993
F1
s(Vnay
g295
tp2994
F1
s(Vbroken
g4
tp2995
F1
s(Vdistance
g34
tp2996
F1
s(Vheard
g22
tp2997
F1
s(Vbecome
g60
tp2998
F1
s(Vmet
g22
tp2999
F1
s(VDisgrace
g6
tp3000
F2
s(Vaccept
g60
tp3001
F2
s(VSeparation
g6
tp3002
F1
s(g66
S','
tp3003
F235
s(Vdance
g60
tp3004
F1
s(V'Pardon
g26
tp3005
F1
s(Valas
g34
tp3006
F2
s(g791
g441
tp3007
F14
s(VTent
g6
tp3008
F2
s(Vrequisite
g4
tp3009
F1
s(g34
g6
tp3010
F44
s(VFace
g6
tp3011
F12
s(Vconstrained
g15
tp3012
F1
s(VBreast
g6
tp3013
F3
s(Vlain
g22
tp3014
F1
s(Vthere
g58
tp3015
F29
s(Vthese
S'DT'
p3016
tp3017
F44
s(VCity
S'NNP'
p3018
tp3019
F8
s(Vplunge
g60
tp3020
F1
s(VUncle
g188
tp3021
F1
s(Vwhile
g188
tp3022
F3
s(Veat
g13
tp3023
F4
s(Vcaught
g15
tp3024
F1
s(VHeaven
g188
tp3025
F1
s(VFreedom
g6
tp3026
F1
s(Valways
S'RB'
p3027
tp3028
F3
s(VFather
g34
tp3029
F4
s(g237
g6
tp3030
F213
s(Varriving
g48
tp3031
F1
s(Vabroad
S'RB'
p3032
tp3033
F4
s(VHeaven
g6
tp3034
F12
s(Vprophetick
g4
tp3035
F1
s(Vovercame
g42
tp3036
F1
s(Vvowed
g15
tp3037
F1
s(Venslave
g60
tp3038
F1
s(g15
g4
tp3039
F68
s(VHerbs
g6
tp3040
F1
s(V'Father
g295
tp3041
F2
s(VWarehouses
g6
tp3042
F1
s(Vcontained
g22
tp3043
F1
s(g1667
g6
tp3044
F363
s(VStrength
g6
tp3045
F2
s(VImpatience
g34
tp3046
F1
s(Vthousand
g34
tp3047
F1
s(Vamazed
g4
tp3048
F1
s(VCordials
g60
tp3049
F1
s(Vhither
g42
tp3050
F2
s(g297
g13
tp3051
F1
s(g89
g58
tp3052
F1
s(Vneeded
g22
tp3053
F1
s(VPrinces
g114
tp3054
F1
s(VSail-Cloth
g6
tp3055
F1
s(Vravished
g22
tp3056
F2
s(VCoolness
g6
tp3057
F1
s(Vdressed
g22
tp3058
F4
s(Vso
g188
tp3059
F9
s(Vinterrupting
g48
tp3060
F1
s(g6
g15
tp3061
F276
s(Vsat
g13
tp3062
F1
s(Vwelcome
g60
tp3063
F1
s(VHollow
g6
tp3064
F1
s(VRefreshments
g6
tp3065
F1
s(g102
g2955
tp3066
F427
s(Vmy
g170
tp3067
F147
s(Vfeared
g22
tp3068
F1
s(Vmeeting
g48
tp3069
F1
s(g15
S'NNS'
p3070
tp3071
F5
s(VChambers
g114
tp3072
F1
s(VMosques
g20
tp3073
F1
s(g15
g447
tp3074
F60
s(Vbe
g2955
tp3075
F116
s(VYouth
g34
tp3076
F2
s(VChains
g6
tp3077
F1
s(VConversion
g34
tp3078
F1
s(g214
g30
tp3079
F8
s(VHut
g6
tp3080
F4
s(Vregale
g60
tp3081
F1
s(Vgravely
g42
tp3082
F1
s(V'No
g107
tp3083
F1
s(VFriends
g6
tp3084
F4
s(VBow-string
g6
tp3085
F1
s(VWay
g34
tp3086
F1
s(g170
g123
tp3087
F1
s(g441
S','
tp3088
F20
s(Vany
S'DT'
p3089
tp3090
F28
s(Vpassionate
g4
tp3091
F2
s(VFrench
g4
tp3092
F20
s(Vstaid
g34
tp3093
F1
s(Vmurder
g60
tp3094
F1
s(Vpleased
g15
tp3095
F4
s(VPower
g34
tp3096
F1
s(Vothers
g3070
tp3097
F7
s(Vdemanded
g15
tp3098
F2
s(Ventertaining
g4
tp3099
F1
s(Vinvolve
g60
tp3100
F2
s(VHand
g6
tp3101
F9
s(Vabout
g188
tp3102
F16
s(Vbecome
g22
tp3103
F1
s(Vcruel
g34
tp3104
F6
s(S','
g26
tp3105
F43
s(g102
g1220
tp3106
F9
s(VThunderbolt
g6
tp3107
F1
s(Vcome
g34
tp3108
F2
s(S':'
g255
tp3109
F3
s(Vsighed
g15
tp3110
F2
s(Vbelonging
g34
tp3111
F4
s(VNight
g6
tp3112
F31
s(g30
g812
tp3113
F5
s(Vassisted
g22
tp3114
F1
s(Vplenty
g4
tp3115
F1
s(Vefface
g60
tp3116
F1
s(g22
g20
tp3117
F2
s(VHope
g6
tp3118
F1
s(VMen
g34
tp3119
F3
s(VMisfortunes
g6
tp3120
F4
s(VYear
g34
tp3121
F4
s(S':'
g20
tp3122
F2
s(VSteps
g6
tp3123
F1
s(VFires
g20
tp3124
F1
s(VFrame
g6
tp3125
F1
s(VTerms
S'NNS'
p3126
tp3127
F2
s(Vescaping
g34
tp3128
F1
s(Vpoor
S'JJ'
p3129
tp3130
F8
s(VHead
g6
tp3131
F2
s(g13
g441
tp3132
F37
s(Vless
g11
tp3133
F3
s(Vdevoted
g22
tp3134
F2
s(VSteward
g6
tp3135
F2
s(g114
g237
tp3136
F2
s(Vunexpectedly
g42
tp3137
F1
s(Vadores
g234
tp3138
F1
s(V'Oh
g123
tp3139
F1
s(Vdear
g60
tp3140
F1
s(Vdesolate
g34
tp3141
F3
s(VSovereign
g6
tp3142
F1
s(Vwanted
g22
tp3143
F1
s(g26
g15
tp3144
F11
s(Vretiring
g48
tp3145
F1
s(Vreach
g60
tp3146
F1
s(Vnicest
g101
tp3147
F1
s(VHours
g6
tp3148
F6
s(Vwanted
g15
tp3149
F2
s(g237
g4
tp3150
F56
s(Vplunged
g15
tp3151
F1
s(Vlustful
g4
tp3152
F3
s(Vgoing
g259
tp3153
F21
s(Vin
g937
tp3154
F316
s(VMaid
g6
tp3155
F21
s(Vbegging
g48
tp3156
F2
s(VPassport
g34
tp3157
F1
s(Vseven
S'CD'
p3158
tp3159
F1
s(VBoatswain
g6
tp3160
F1
s(VDaughter
g6
tp3161
F7
s(VDestruction
g34
tp3162
F1
s(Vsurprized
g15
tp3163
F1
s(g6
S'('
tp3164
F3
s(Vsilent
g34
tp3165
F2
s(VVessel
g34
tp3166
F1
s(VBlushes
g6
tp3167
F1
s(VRaiment
g6
tp3168
F2
s(VTrade
S'NNP'
p3169
tp3170
F1
s(Vplentiful
g4
tp3171
F2
s(Vobserve
g60
tp3172
F2
s(Vset
g13
tp3173
F3
s(VRansom
g6
tp3174
F1
s(V'Father
g42
tp3175
F1
s(VSadness
g6
tp3176
F1
s(g1710
g4
tp3177
F2
s(Vtake
g13
tp3178
F1
s(Vimmediately
S'RB'
p3179
tp3180
F7
s(g234
g188
tp3181
F11
s(Vembracing
g48
tp3182
F3
s(Vdown
g34
tp3183
F1
s(Vfastened
g15
tp3184
F1
s(Vstarting
g48
tp3185
F1
s(VBeds
g20
tp3186
F1
s(Vshort
g42
tp3187
F1
s(Vswol'n
g4
tp3188
F1
s(VSentiments
g6
tp3189
F1
s(g250
g4
tp3190
F353
s(Vvisit
g13
tp3191
F1
s(Vgoverned
g22
tp3192
F1
s(Vupon
g42
tp3193
F1
s(Vhappier
g11
tp3194
F1
s(g101
S','
tp3195
F3
s(Vall
g42
tp3196
F1
s(VCabin
g6
tp3197
F1
s(Vdistinguished
g22
tp3198
F1
s(Vintreated
g15
tp3199
F1
s(VEnd
g6
tp3200
F1
s(VMatch
g34
tp3201
F1
s(Vseem
g13
tp3202
F1
s(Vwalking
g48
tp3203
F3
s(VBoats
g6
tp3204
F1
s(Vbeing
g1035
tp3205
F54
s(Vdistracted
g15
tp3206
F1
s(VBeauclair
g6
tp3207
F3
s(Vmine
g60
tp3208
F2
s(VRespect
g6
tp3209
F6
s(Vcounselled
g15
tp3210
F2
s(VFamily
g6
tp3211
F20
s(g13
g8
tp3212
F1
s(Vfine
g4
tp3213
F2
s(Vimpart
g60
tp3214
F1
s(V'From
g188
tp3215
F1
s(VDread
g6
tp3216
F2
s(Vwords
g516
tp3217
F1
s(Voccasion
g60
tp3218
F3
s(Vlove
g60
tp3219
F3
s(g114
g102
tp3220
F8
s(g60
g411
tp3221
F22
s(VVessel
g6
tp3222
F6
s(Vordering
g48
tp3223
F3
s(g60
g15
tp3224
F2
s(Vsaid
g2667
tp3225
F70
s(VHistory
g34
tp3226
F1
s(Vpray
g60
tp3227
F1
s(VPriest
g34
tp3228
F1
s(VPleasure
g6
tp3229
F5
s(Vhonour
g53
tp3230
F1
s(VDoubts
g20
tp3231
F1
s(Vrefuse
g13
tp3232
F1
s(VTempest
g6
tp3233
F2
s(Vpreferred
g15
tp3234
F1
s(Vunaccustomed
g4
tp3235
F1
s(g1821
g60
tp3236
F1
s(Vanticipate
g60
tp3237
F1
s(Vup
g411
tp3238
F27
s(VCorina
g6
tp3239
F1
s(Vlong
g4
tp3240
F7
s(VSorrow
g6
tp3241
F2
s(Vinterruping
g48
tp3242
F1
s(Vshewed
g22
tp3243
F3
s(VEmperors
g20
tp3244
F1
s(g15
S','
tp3245
F133
s(Vcommanded
g15
tp3246
F4
s(VCrime
g34
tp3247
F2
s(VShips
g20
tp3248
F1
s(g250
g48
tp3249
F12
s(Vwild
g4
tp3250
F4
s(Vstruck
g15
tp3251
F1
s(Vdie
g13
tp3252
F1
s(Vcovered
g4
tp3253
F1
s(VParlours
g6
tp3254
F1
s(VRuins
g6
tp3255
F1
s(g2224
S'.'
tp3256
F64
s(Vbroached
g22
tp3257
F1
s(Vchained
g15
tp3258
F1
s(g237
g30
tp3259
F1
s(g15
g259
tp3260
F23
s(Vwatched
g22
tp3261
F1
s(V'till
g297
tp3262
F1
s(Vreceiving
g48
tp3263
F1
s(Vkept
g4
tp3264
F1
s(VOut-Doors
g20
tp3265
F1
s(Vprosperous
g4
tp3266
F1
s(Vrefresh
g60
tp3267
F1
s(VAffection
g34
tp3268
F5
s(Vaddressed
g15
tp3269
F1
s(Vyou
g238
tp3270
F226
s(Vnear
g42
tp3271
F3
s(Vpoints
g20
tp3272
F1
s(VSure
g4
tp3273
F1
s(g22
g114
tp3274
F1
s(Vdiscoursing
g48
tp3275
F1
s(VWar
g6
tp3276
F6
s(Vremained
g15
tp3277
F3
s(VPenitent
g6
tp3278
F2
s(VBook-sellers
g6
tp3279
F1
s(VHold
g6
tp3280
F2
s(Vblast
g60
tp3281
F1
s(g603
g4
tp3282
F19
s(VSupper
g6
tp3283
F5
s(Vdesigning
g48
tp3284
F2
s(g4
g30
tp3285
F1
s(VSpaniard
g6
tp3286
F1
s(VName
g6
tp3287
F1
s(VRest
g6
tp3288
F3
s(VChristian
g34
tp3289
F1
s(g164
g48
tp3290
F3
s(Vfeasted
g15
tp3291
F1
s(VQuestions
g6
tp3292
F2
s(Venchanted
g15
tp3293
F1
s(Vdeserved
g22
tp3294
F1
s(Vexpressed
g22
tp3295
F1
s(Vgenerous
g4
tp3296
F4
s(g3089
g89
tp3297
F2
s(Vbring
g48
tp3298
F1
s(VFork
g6
tp3299
F1
s(Vbegin
g60
tp3300
F2
s(Vsailed
g15
tp3301
F3
s(Vcharging
g48
tp3302
F1
s(g30
g1035
tp3303
F3
s(VSea
g6
tp3304
F11
s(Vthat
g188
tp3305
F127
s(Vdown
g188
tp3306
F1
s(Vchanged
g15
tp3307
F1
s(Vcarry
g13
tp3308
F2
s(VArrival
g6
tp3309
F3
s(Vengaging
g48
tp3310
F1
s(S','
g234
tp3311
F14
s(Vagreed
g22
tp3312
F1
s(VGallipoli
g6
tp3313
F1
s(Vrequiring
g48
tp3314
F1
s(Vdisordered
g22
tp3315
F1
s(Vwithin
S'IN'
p3316
tp3317
F3
s(g6
g644
tp3318
F20
s(Vpassed
g15
tp3319
F8
s(VLongueville
g6
tp3320
F17
s(VHuts
g6
tp3321
F3
s(g411
g6
tp3322
F3
s(Vsubmit
g34
tp3323
F1
s(Vgladly
g42
tp3324
F1
s(g250
g101
tp3325
F18
s(VFishes
g6
tp3326
F1
s(VSummer
g6
tp3327
F1
s(g211
g297
tp3328
F1
s(VNannetta
g6
tp3329
F29
s(g234
g1452
tp3330
F1
s(Vcan'st
g34
tp3331
F1
s(Vprovided
g22
tp3332
F3
s(VBlack
g6
tp3333
F3
s(g702
g38
tp3334
F3
s(Vmean
g4
tp3335
F1
s(VYears
g20
tp3336
F7
s(g164
g22
tp3337
F41
s(Vpossibly
g42
tp3338
F1
s(VTreasures
g114
tp3339
F1
s(Vpossess
g60
tp3340
F2
s(Vconvoy
g60
tp3341
F1
s(VWines
g20
tp3342
F1
s(g20
g2620
tp3343
F32
s(Vdescending
g48
tp3344
F1
s(VSlaves
g6
tp3345
F3
s(Vfalse
g4
tp3346
F1
s(VSide
g34
tp3347
F1
s(Vsingle
S'JJ'
p3348
tp3349
F1
s(Vdiscover
g60
tp3350
F4
s(g60
g20
tp3351
F5
s(Vdespair
g34
tp3352
F1
s(Vprevents
g20
tp3353
F1
s(V's
g234
tp3354
F3
s(VMeans
g6
tp3355
F4
s(Vfirst
g60
tp3356
F1
s(g297
S':'
tp3357
F1
s(Vpale
g34
tp3358
F2
s(VLeghorn
g6
tp3359
F1
s(VPalace
g34
tp3360
F1
s(VExpressions
g6
tp3361
F1
s(g237
g1710
tp3362
F1
s(VSeignior
g6
tp3363
F1
s(VIndia
g6
tp3364
F1
s(Vfreed
g22
tp3365
F1
s(Vourselves
g211
tp3366
F1
s(g297
g278
tp3367
F2
s(Vopening
g48
tp3368
F5
s(Vrun
g60
tp3369
F1
s(VBlack-Tower
g6
tp3370
F1
s(VDesign
g34
tp3371
F3
s(Vkindly
g42
tp3372
F1
s(Vprofound
g4
tp3373
F2
s(VSouls
g6
tp3374
F3
s(g901
g348
tp3375
F5
s(Vthough
g188
tp3376
F9
s(VBanks
g6
tp3377
F1
s(g492
g42
tp3378
F38
s(Vthose
g2696
tp3379
F15
s(VFruits
g20
tp3380
F1
s(VTreasure
g6
tp3381
F4
s(Vgets
S'VBZ'
p3382
tp3383
F1
s(VSlaves
g234
tp3384
F1
s(Vverified
g22
tp3385
F1
s(VAnxiety
g6
tp3386
F1
s(g1220
S'.'
tp3387
F1
s(VTransaction
g34
tp3388
F1
s(Vran
g34
tp3389
F1
s(Vinfamous
g4
tp3390
F1
s(VGoodness
g6
tp3391
F3
s(VDay-break
g6
tp3392
F2
s(Vdiverted
g15
tp3393
F1
s(Vadorned
g15
tp3394
F1
s(VAmongst
g6
tp3395
F1
s(Vstrictest
g34
tp3396
F1
s(g4
g1647
tp3397
F27
s(VHands
g20
tp3398
F5
s(g114
g1667
tp3399
F8
s(Vinformed
g15
tp3400
F2
s(Vplain
g4
tp3401
F1
s(Vhither
g11
tp3402
F1
s(Vsearched
g15
tp3403
F2
s(Vhide
g60
tp3404
F2
s(S':'
g234
tp3405
F2
s(Vtranslated
g22
tp3406
F1
s(VDisdain
g6
tp3407
F1
s(VEighteen
g4
tp3408
F1
s(Vstirring
g48
tp3409
F2
s(VTalk
g34
tp3410
F2
s(VFlowers
g20
tp3411
F1
s(Vbut
g348
tp3412
F115
s(Vstay
g34
tp3413
F2
s(Vexpose
g60
tp3414
F1
s(VPicardy
g6
tp3415
F5
s(Vprovides
S'VBZ'
p3416
tp3417
F1
s(Venter
g15
tp3418
F1
s(VLevant
g6
tp3419
F1
s(V,
S','
tp3420
F2358
s(g4
g22
tp3421
F7
s(Vherewith
g34
tp3422
F1
s(VLife
g6
tp3423
F21
s(VStains
g20
tp3424
F1
s(VAll
g95
tp3425
F3
s(VConcern
g34
tp3426
F3
s(VUnion
S'NNP'
p3427
tp3428
F1
s(g6
g102
tp3429
F96
s(VMeditation
g6
tp3430
F1
s(VHelp
g6
tp3431
F1
s(VTransport
g6
tp3432
F2
s(g102
g30
tp3433
F6
s(VKnees
g20
tp3434
F2
s(Vleaving
g48
tp3435
F11
s(Vcome
g15
tp3436
F1
s(g2537
g123
tp3437
F1
s(V'Now
g34
tp3438
F1
s(Vfine
g34
tp3439
F2
s(Vdry
g4
tp3440
F1
s(V?
S'.'
tp3441
F57
s(VGrand
S'NNP'
p3442
tp3443
F5
s(VCarcases
g6
tp3444
F1
s(g60
S':'
tp3445
F26
s(S','
g48
tp3446
F155
s(Vwhilst
g15
tp3447
F2
s(VAir
S'NNP'
p3448
tp3449
F4
s(VCheeks
g6
tp3450
F1
s(g8
g34
tp3451
F1
s(Vn't
S'RB'
p3452
tp3453
F3
s(VEuropean
g4
tp3454
F1
s(g22
g1151
tp3455
F3
s(Vpurchased
g15
tp3456
F1
s(g411
g4
tp3457
F2
s(Vplace
g13
tp3458
F2
s(Vfast
g42
tp3459
F1
s(Vsame
S'JJ'
p3460
tp3461
F11
s(VActions
g20
tp3462
F1
s(VSherbets
g6
tp3463
F1
s(S'VBG'
p3464
g411
tp3465
F11
s(Vprevented
g22
tp3466
F2
s(Vleft
g15
tp3467
F19
s(g42
g11
tp3468
F5
s(Vdishonour
g60
tp3469
F1
s(Vhands
g20
tp3470
F1
s(VDeclaration
g6
tp3471
F1
s(g42
g102
tp3472
F42
s(Vwalked
g15
tp3473
F3
s(VPost-Chaise
g34
tp3474
F1
s(g4
g48
tp3475
F2
s(V'We
g26
tp3476
F1
s(Vkilled
g22
tp3477
F1
s(Vtrusty
g4
tp3478
F1
s(Vadvise
g34
tp3479
F1
s(VImpression
g6
tp3480
F1
s(VCrisis
g34
tp3481
F1
s(Vgot
g22
tp3482
F2
s(Vtoo
S'RB'
p3483
tp3484
F9
s(Vobeyed
g22
tp3485
F1
s(VSpanish
g4
tp3486
F1
s(VAt
S'IN'
p3487
tp3488
F39
s(VFavourites
g20
tp3489
F1
s(Vsometimes
g42
tp3490
F4
s(VWedding
g6
tp3491
F1
s(Vwhilst
g60
tp3492
F2
s(Vinclined
g15
tp3493
F3
s(VDinner
g34
tp3494
F1
s(Vundoing
g34
tp3495
F1
s(V1st
g123
tp3496
F1
s(Vsurprizing
g48
tp3497
F1
s(VSolitude
g6
tp3498
F1
s(g411
g447
tp3499
F8
s(Vunhappy
g4
tp3500
F6
s(Vinvite
g60
tp3501
F1
s(VConstancy
g6
tp3502
F2
s(Vcontradict
g60
tp3503
F1
s(VCourtiers
g6
tp3504
F1
s(Vmanaged
g15
tp3505
F1
s(Vthen
g762
tp3506
F38
s(Vthrew
g15
tp3507
F3
s(Vesteemed
g15
tp3508
F1
s(VEmperor
g34
tp3509
F1
s(VViolence
g6
tp3510
F2
s(g102
g95
tp3511
F1
s(Vsad
g4
tp3512
F2
s(VExcuse
g6
tp3513
F1
s(g123
g20
tp3514
F27
s(Vbefore
g42
tp3515
F3
s(Vuneasy
g4
tp3516
F3
s(S')'
g6
tp3517
F1
s(VCount
g6
tp3518
F37
s(VSeparation
g34
tp3519
F3
s(Vtreated
g22
tp3520
F1
s(VServant
g34
tp3521
F1
s(Vdestroyed
g22
tp3522
F1
s(Vincensed
g15
tp3523
F1
s(Vattending
g48
tp3524
F1
s(g6
g20
tp3525
F5
s(Vdeserve
g13
tp3526
F1
s(Vnearer
g42
tp3527
F1
s(VBy
S'IN'
p3528
tp3529
F4
s(VFever
g6
tp3530
F1
s(g13
g15
tp3531
F6
s(S','
g123
tp3532
F13
s(VPower
g6
tp3533
F3
s(Vfinding
g48
tp3534
F4
s(Vconceal
g60
tp3535
F1
s(Vexpected
g22
tp3536
F1
s(VAbode
g6
tp3537
F1
s(VAncestors
g20
tp3538
F1
s(VQualifications
g20
tp3539
F1
s(Vstill
S'RB'
p3540
tp3541
F4
s(g6
g1667
tp3542
F323
s(Vwhich
g30
tp3543
F142
s(Vneed
g13
tp3544
F2
s(Vsuch
g95
tp3545
F5
s(Vus
g66
tp3546
F54
s(Vshort
g4
tp3547
F1
s(Vdesired
g15
tp3548
F4
s(Vgranted
g15
tp3549
F1
s(Voffer
g34
tp3550
F1
s(Vemployed
g13
tp3551
F1
s(Vseated
g15
tp3552
F2
s(V'I
g20
tp3553
F1
s(VOnce
g42
tp3554
F1
s(Vdearest
g101
tp3555
F1
s(g503
g348
tp3556
F5
s(Vloosed
g15
tp3557
F1
s(Vfit
g4
tp3558
F2
s(VLives
g234
tp3559
F1
s(Vdrove
g22
tp3560
F2
s(Vbetter
g8
tp3561
F2
s(VLusts
g20
tp3562
F1
s(Vtherefore
g13
tp3563
F3
s(Vsought
g22
tp3564
F1
s(Vserving
g48
tp3565
F1
s(VImpatience
g6
tp3566
F1
s(Vgood
g4
tp3567
F34
s(VLord
g6
tp3568
F61
s(VFebruary
S'NNP'
p3569
tp3570
F1
s(Vstood
g15
tp3571
F7
s(VStrangers
g20
tp3572
F1
s(VUse
g6
tp3573
F2
s(g6
g189
tp3574
F71
s(Vspilt
g22
tp3575
F1
s(VFriend
g6
tp3576
F8
s(Vseduce
g60
tp3577
F1
s(S','
g237
tp3578
F548
s(Vdare
g13
tp3579
F1
s(VEmperor
g6
tp3580
F3
s(S','
g6
tp3581
F105
s(Vobserved
g22
tp3582
F1
s(VWonder
g6
tp3583
F1
s(VSeat
g6
tp3584
F1
s(VNecessities
g20
tp3585
F1
s(g297
g3483
tp3586
F2
s(g101
g2189
tp3587
F1
s(Vproved
g15
tp3588
F1
s(Vdeflowered
g15
tp3589
F1
s(VRum
g6
tp3590
F3
s(VHeaven
g42
tp3591
F1
s(VHell
g6
tp3592
F2
s(Vsinning
g48
tp3593
F1
s(VSon
g6
tp3594
F12
s(VDelos
g6
tp3595
F1
s(VCloth
g6
tp3596
F1
s(Vlaid
g15
tp3597
F4
s(Vview
g60
tp3598
F2
s(VSerenity
g6
tp3599
F1
s(Ventertained
g15
tp3600
F3
s(VSafety
g34
tp3601
F2
s(g89
g253
tp3602
F56
s(Vlye
g34
tp3603
F2
s(S'.'
g26
tp3604
F132
s(Vmelancholy
g20
tp3605
F2
s(VInner-Room
g6
tp3606
F2
s(Vne'er
g34
tp3607
F1
s(VLimbs
g6
tp3608
F1
s(VCrust
g6
tp3609
F1
s(Vunlade
g60
tp3610
F1
s(g203
g60
tp3611
F2
s(Vtreacherous
g4
tp3612
F1
s(g2217
g22
tp3613
F39
s(VVassals
g20
tp3614
F2
s(VMankind
g6
tp3615
F2
s(Vpassing
g48
tp3616
F2
s(VLitter
g6
tp3617
F1
s(Vsettled
g15
tp3618
F1
s(VPilot
g6
tp3619
F1
s(VPrice
g6
tp3620
F1
s(VHeaven
g60
tp3621
F1
s(Vrefused
g22
tp3622
F1
s(g34
g15
tp3623
F45
s(g237
g60
tp3624
F79
s(Vmanifests
g234
tp3625
F1
s(VDomez-Dure
g6
tp3626
F5
s(Vprayed
g22
tp3627
F1
s(g566
g4
tp3628
F92
s(VSkins
g6
tp3629
F1
s(Vwhat
g255
tp3630
F68
s(VFrenchmen
g6
tp3631
F1
s(VOrphan
g6
tp3632
F2
s(Vinnocently
g42
tp3633
F1
s(Vreport
g60
tp3634
F1
s(g6
g60
tp3635
F16
s(Vthee
g188
tp3636
F1
s(VDagger
g34
tp3637
F2
s(g102
S'.'
tp3638
F5
s(VSantoin
g6
tp3639
F1
s(Vinsensible
g34
tp3640
F1
s(VKnowledge
g6
tp3641
F3
s(g11
g42
tp3642
F1
s(V!
S'.'
tp3643
F44
s(Vimportuned
g15
tp3644
F1
s(VSearch
g6
tp3645
F1
s(VSafety
g6
tp3646
F2
s(Vwhole
g4
tp3647
F4
s(Vdivine
g34
tp3648
F1
s(VQuality
g34
tp3649
F2
s(VPieces
g20
tp3650
F2
s(VThoughts
g20
tp3651
F6
s(Vmorning
S'NN'
p3652
tp3653
F1
s(VParents
g20
tp3654
F1
s(g123
g60
tp3655
F1
s(g34
g503
tp3656
F23
s(Varose
g34
tp3657
F1
s(Vmade
g15
tp3658
F23
s(V'Yes
g26
tp3659
F1
s(VLoss
g6
tp3660
F1
s(Vlucky
g4
tp3661
F2
s(Vboldly
g42
tp3662
F2
s(Vhuge
S'JJ'
p3663
tp3664
F1
s(VComplaints
g20
tp3665
F1
s(VVinevil
g6
tp3666
F9
s(Vinnocent
g34
tp3667
F1
s(g937
g223
tp3668
F4
s(VMay
g2885
tp3669
F4
s(Vnever
S'RB'
p3670
tp3671
F15
s(Vhave
g13
tp3672
F47
s(VNews
g22
tp3673
F2
s(Vtowards
g20
tp3674
F1
s(VAfternoon
g6
tp3675
F1
s(Vconstant
g4
tp3676
F1
s(Vway
S'NN'
p3677
tp3678
F3
s(VRelations
g114
tp3679
F2
s(Vhence
g42
tp3680
F1
s(Vhalf
g34
tp3681
F1
s(Vacts
g234
tp3682
F1
s(Vtall
g4
tp3683
F2
s(Vfly
g60
tp3684
F6
s(Vdiscovered
g15
tp3685
F6
s(VManne
g6
tp3686
F1
s(Vhate
g60
tp3687
F1
s(Vwin
g60
tp3688
F1
s(VNourishment
g6
tp3689
F1
s(VMonsieur
g6
tp3690
F14
s(VReligion
g6
tp3691
F2
s(V'My
g123
tp3692
F4
s(VTaste
g6
tp3693
F1
s(VUpon
g188
tp3694
F1
s(Vdared
g15
tp3695
F2
s(Vprosper
g60
tp3696
F2
s(g123
g164
tp3697
F1
s(VDoors
g6
tp3698
F1
s(Vopening
g34
tp3699
F1
s(Vcaused
g15
tp3700
F2
s(g13
g237
tp3701
F1
s(V'we
g295
tp3702
F1
s(VPainting
g48
tp3703
F1
s(g34
g237
tp3704
F46
s(Vrecovering
g48
tp3705
F1
s(VLadies
g6
tp3706
F9
s(g34
g20
tp3707
F4
s(Vviewing
g48
tp3708
F1
s(Vc.
g13
tp3709
F1
s(Ventering
g48
tp3710
F5
s(Vasked
g15
tp3711
F3
s(VPresence
g6
tp3712
F1
s(g6
g164
tp3713
F75
s(Vsense
g34
tp3714
F1
s(Vwish
g13
tp3715
F2
s(Vwaited
g15
tp3716
F2
s(VIt
S'PRP'
p3717
tp3718
F7
s(Vuncommon
g4
tp3719
F1
s(Vprevent
g60
tp3720
F7
s(S':'
g26
tp3721
F1
s(g58
g238
tp3722
F4
s(g30
g58
tp3723
F2
s(V'Forgive
g123
tp3724
F1
s(V'Then
g297
tp3725
F1
s(VArdelisa
g60
tp3726
F1
s(Vprize
g13
tp3727
F2
s(V2
g694
tp3728
F1
s(VOffer
g6
tp3729
F1
s(Vdoes
g1821
tp3730
F4
s(VShelves
g6
tp3731
F1
s(VBarrels
g6
tp3732
F1
s(g53
g60
tp3733
F1
s(VLove
g60
tp3734
F1
s(Vescaped
g22
tp3735
F1
s(Vsail
g34
tp3736
F1
s(g188
g164
tp3737
F5
s(VInto
g6
tp3738
F1
s(VMeans
g114
tp3739
F3
s(g58
g48
tp3740
F2
s(VSon-in-Law
g6
tp3741
F1
s(Vsickly
g34
tp3742
F1
s(g211
g1925
tp3743
F8
s(g53
S'('
tp3744
F1
s(g188
g102
tp3745
F11
s(Vlow
g4
tp3746
F1
s(Vrise
g60
tp3747
F2
s(VCarpenter
S'NNP'
p3748
tp3749
F1
s(S':'
g297
tp3750
F2
s(g937
g30
tp3751
F59
s(Vpainted
g4
tp3752
F1
s(Vpleased
g22
tp3753
F3
s(Vjust
g1752
tp3754
F10
s(VLamp
g6
tp3755
F3
s(VKindness
g6
tp3756
F3
s(Vlook
g60
tp3757
F3
s(VClothes
g6
tp3758
F6
s(Vwhither
g295
tp3759
F1
s(Vaccomplished
g15
tp3760
F1
s(Vman
S'NN'
p3761
tp3762
F1
s(g6
g411
tp3763
F1
s(Vprovide
g60
tp3764
F4
s(VDelight
g6
tp3765
F2
s(g26
g4
tp3766
F2
s(Vdear
g34
tp3767
F2
s(VPresence
g34
tp3768
F1
s(Veducated
g22
tp3769
F1
s(Vdebauched
g22
tp3770
F1
s(Vequalled
g22
tp3771
F1
s(VContents
g20
tp3772
F1
s(g20
S'.'
tp3773
F31
s(Vlittle
g4
tp3774
F16
s(VEarth
g6
tp3775
F2
s(g15
g6
tp3776
F71
s(VMerchant-Ships
g6
tp3777
F1
s(Vcharitable
g4
tp3778
F1
s(VChild
g34
tp3779
F1
s(VAttendants
g20
tp3780
F1
s(V'You
g297
tp3781
F1
s(Vexpress
g60
tp3782
F3
s(g1710
g6
tp3783
F7
s(Vhiring
g48
tp3784
F1
s(Vspake
g13
tp3785
F2
s(S','
g36
tp3786
F348
s(Vungrateful
g4
tp3787
F2
s(VPrayer
g6
tp3788
F3
s(Vaccordingly
g42
tp3789
F1
s(S':'
g138
tp3790
F73
s(VDesires
g20
tp3791
F1
s(g20
g255
tp3792
F2
s(VConsul
g34
tp3793
F2
s(g42
S'.'
tp3794
F45
s(g250
g6
tp3795
F1039
s(VGoods
g6
tp3796
F11
s(S':'
g102
tp3797
F3
s(Vhide
g42
tp3798
F1
s(VCome
g22
tp3799
F1
s(Vwracked
g15
tp3800
F1
s(Vreign
g60
tp3801
F1
s(VWork
g34
tp3802
F1
s(Vthat
g30
tp3803
F43
s(Vresolve
g60
tp3804
F3
s(V'where
g58
tp3805
F1
s(Vchoose
g60
tp3806
F2
s(Vmusing
g48
tp3807
F1
s(Vsafe
g4
tp3808
F15
s(VRooms
g6
tp3809
F2
s(Vstaid
g15
tp3810
F2
s(VEvening
g34
tp3811
F3
s(VThings
g6
tp3812
F1
s(VInto
g188
tp3813
F1
s(g170
g48
tp3814
F13
s(VShall
g60
tp3815
F1
s(Vrelating
g48
tp3816
F2
s(V'Go
g123
tp3817
F1
s(Vthought
g34
tp3818
F2
s(Vcharming
g4
tp3819
F3
s(g297
S','
tp3820
F10
s(VAim
g6
tp3821
F1
s(VJapan
S'NNP'
p3822
tp3823
F1
s(g15
g34
tp3824
F20
s(Vreclaim
g60
tp3825
F1
s(Vcontains
g20
tp3826
F1
s(g297
g102
tp3827
F2
s(Vcontrived
g13
tp3828
F1
s(Vbring
g13
tp3829
F1
s(Vdesired
g4
tp3830
F1
s(Vold
g1647
tp3831
F22
s(Vbear
g13
tp3832
F1
s(Vsensual
g4
tp3833
F1
s(Vrequesting
g48
tp3834
F1
s(S':'
g6
tp3835
F26
s(VThat
g188
tp3836
F1
s(Vseeks
g34
tp3837
F1
s(g58
g164
tp3838
F5
s(g2696
g253
tp3839
F19
s(VDiamonds
g6
tp3840
F2
s(g42
g48
tp3841
F20
s(Vconsent
g60
tp3842
F6
s(g297
g48
tp3843
F2
s(Vsettle
g60
tp3844
F1
s(Vhimself
g1925
tp3845
F22
s(g164
g214
tp3846
F23
s(V'My
g26
tp3847
F7
s(Vfirst
g42
tp3848
F6
s(g6
g255
tp3849
F7
s(VPreserve
g6
tp3850
F1
s(VJust
g42
tp3851
F1
s(VConsent
g34
tp3852
F1
s(Vtry
g13
tp3853
F1
s(Vmidst
g34
tp3854
F2
s(Vloaded
g4
tp3855
F1
s(Vleast
g4
tp3856
F1
s(Vmurdered
g4
tp3857
F1
s(g11
g297
tp3858
F1
s(Vor
g223
tp3859
F53
s(Vgrow
g13
tp3860
F1
s(Vdesiring
g48
tp3861
F1
s(g48
S'.'
tp3862
F4
s(Vcarried
g15
tp3863
F4
s(Vhome
g34
tp3864
F16
s(Vforth
g42
tp3865
F1
s(VWindows
g6
tp3866
F1
s(Vstood
g22
tp3867
F1
s(Vconvinced
g22
tp3868
F2
s(Vbegged
g15
tp3869
F3
s(VHunger
g6
tp3870
F1
s(VReasons
g20
tp3871
F2
s(VReprehensions
g6
tp3872
F1
s(VPray
g34
tp3873
F1
s(Vbrave
g60
tp3874
F1
s(VBurial
g6
tp3875
F1
s(Vliked
g15
tp3876
F2
s(VTroops
g6
tp3877
F1
s(Venraged
g4
tp3878
F1
s(Vrun
g13
tp3879
F1
s(Vacquainted
g15
tp3880
F1
s(Vboth
g214
tp3881
F11
s(VSilver
g6
tp3882
F2
s(g211
g8
tp3883
F3
s(VSkill
g6
tp3884
F1
s(Vseen
g2674
tp3885
F10
s(g2955
g22
tp3886
F68
s(Vpropagating
g48
tp3887
F1
s(VBassa
g6
tp3888
F7
s(VRelief
g6
tp3889
F1
s(g164
g123
tp3890
F4
s(Vdelivering
g48
tp3891
F1
s(VCondition
g6
tp3892
F2
s(VEye
g6
tp3893
F1
s(VHaste
g34
tp3894
F1
s(g1397
g238
tp3895
F15
s(Vquickly
S'RB'
p3896
tp3897
F3
s(Vdecreed
g22
tp3898
F1
s(Vjoined
g15
tp3899
F1
s(g441
g229
tp3900
F3
s(Veven
g42
tp3901
F4
s(Vpossessed
g15
tp3902
F3
s(V'The
g123
tp3903
F2
s(VDisturbance
g6
tp3904
F1
s(Vneither
g295
tp3905
F3
s(Vfamous
g4
tp3906
F1
s(Vconveyed
g22
tp3907
F1
s(Vand
g237
tp3908
F865
s(VWords
g6
tp3909
F23
s(Vcommitted
g15
tp3910
F1
s(Vkeeps
g234
tp3911
F1
s(Vlive
g4
tp3912
F2
s(Vworthier
g11
tp3913
F1
s(Vnearest
g101
tp3914
F2
s(VSoftness
g6
tp3915
F1
s(Vaboard
g42
tp3916
F5
s(VIbrahim
g6
tp3917
F2
s(S')'
g95
tp3918
F1
s(Vpretended
g15
tp3919
F1
s(Ventertained
g4
tp3920
F1
s(VGoats
g6
tp3921
F1
s(Vthirteen
g4
tp3922
F1
s(Vblessed
g15
tp3923
F2
s(Vfill
g60
tp3924
F1
s(Varose
g15
tp3925
F2
s(g60
g1035
tp3926
F3
s(Vobliged
g15
tp3927
F1
s(Vcoming
g48
tp3928
F4
s(VRopes
g6
tp3929
F1
s(Vkind
S'NN'
p3930
tp3931
F1
s(VBeliever
g6
tp3932
F1
s(Vwiped
g15
tp3933
F1
s(g38
g8
tp3934
F1
s(VTurks
g6
tp3935
F9
s(VStay
g6
tp3936
F2
s(VImagination
g6
tp3937
F1
s(Vcovering
g48
tp3938
F2
s(VHarmony
g6
tp3939
F1
s(g1452
g4
tp3940
F8
s(Vpensive
g4
tp3941
F1
s(Vsuffer
g60
tp3942
F3
s(g1710
g34
tp3943
F3
s(VHeart
g6
tp3944
F5
s(g11
S'JJ'
p3945
tp3946
F2
s(Vdrank
g15
tp3947
F2
s(Vcast
g15
tp3948
F2
s(g4
g102
tp3949
F54
s(VSticks
g6
tp3950
F1
s(Vtormented
g15
tp3951
F1
s(VCold
g6
tp3952
F2
s(Vloaded
g22
tp3953
F2
s(Vhandsome
g4
tp3954
F4
s(VChance
g34
tp3955
F1
s(Vutmost
g4
tp3956
F2
s(Vdays
S'NNS'
p3957
tp3958
F5
s(VReason
g6
tp3959
F6
s(Vthough
g42
tp3960
F2
s(VSandals
g20
tp3961
F1
s(g15
g657
tp3962
F133
s(Vlay
g13
tp3963
F1
s(Varrived
g22
tp3964
F3
s(VHardships
g6
tp3965
F1
s(VBushes
g6
tp3966
F2
s(Vfourth
S'JJ'
p3967
tp3968
F1
s(Vassist
g60
tp3969
F4
s(Vshewing
g48
tp3970
F2
s(g15
g15
tp3971
F2
s(VRigging
g6
tp3972
F1
s(V'But
g42
tp3973
F1
s(Vseventeen
g4
tp3974
F1
s(V'What
g255
tp3975
F1
s(VMaster
g34
tp3976
F3
s(VRabbits
g6
tp3977
F1
s(Vmerit
g60
tp3978
F1
s(VHopes
g6
tp3979
F3
s(Vprivate
S'JJ'
p3980
tp3981
F2
s(Vpursued
g22
tp3982
F1
s(V'd
g1397
tp3983
F2
s(g11
g86
tp3984
F1
s(VOccasion
g6
tp3985
F2
s(g1654
S':'
tp3986
F32
s(Vwounded
g15
tp3987
F1
s(VEast-Indies
g20
tp3988
F1
s(Vprecious
g4
tp3989
F1
s(Vlord
g34
tp3990
F1
s(Veat
g234
tp3991
F1
s(g30
g238
tp3992
F60
s(VEnemy
g34
tp3993
F1
s(VStorm
g34
tp3994
F1
s(VChains
g20
tp3995
F1
s(Vfree
g4
tp3996
F1
s(VFreedom
g34
tp3997
F1
s(Venjoy
g60
tp3998
F3
s(Vfilled
g22
tp3999
F2
s(g8
g4
tp4000
F13
s(Vsearch
g34
tp4001
F3
s(Vbest
g101
tp4002
F9
s(g4
S':'
tp4003
F29
s(Vhandsomely
g42
tp4004
F1
s(VDishes
g6
tp4005
F1
s(Vstepp
g60
tp4006
F1
s(Vresolutely
g42
tp4007
F1
s(Vwithal
g4
tp4008
F1
s(Vdecked
g22
tp4009
F1
s(Vtaste
g34
tp4010
F1
s(g34
g34
tp4011
F10
s(VPacket
g34
tp4012
F1
s(Vinward
g34
tp4013
F1
s(Vbury
g34
tp4014
F1
s(Vcharmed
g15
tp4015
F1
s(VBreath
g34
tp4016
F1
s(Vill
g42
tp4017
F1
s(Vstay
g60
tp4018
F9
s(Vfixed
g15
tp4019
F1
s(g1047
g123
tp4020
F1
s(VMaster
g6
tp4021
F3
s(Vdire
g4
tp4022
F1
s(V(
S'('
tp4023
F9
s(Vaddressing
g48
tp4024
F1
s(VSon
g34
tp4025
F2
s(VOrnaments
g20
tp4026
F1
s(S':'
g60
tp4027
F12
s(Vseveral
S'JJ'
p4028
tp4029
F3
s(Vdescending
g34
tp4030
F1
s(Vsuspecting
g48
tp4031
F2
s(g211
g2952
tp4032
F41
s(Vbesides
g188
tp4033
F1
s(VHorse-Litter
g6
tp4034
F2
s(VInfidel
g6
tp4035
F3
s(g60
g237
tp4036
F12
s(Vanother
g2166
tp4037
F19
s(VCyclades
g6
tp4038
F1
s(g26
g447
tp4039
F1
s(VCountry-
g6
tp4040
F1
s(Vreconcile
g34
tp4041
F1
s(Vcost
g60
tp4042
F1
s(VCreek
g6
tp4043
F1
s(Vinvited
g4
tp4044
F1
s(VRumour
g6
tp4045
F1
s(Vcare
g34
tp4046
F2
s(VVirtue
g34
tp4047
F2
s(VSlaves
g20
tp4048
F6
s(g268
g507
tp4049
F4
s(Vwhither
g42
tp4050
F2
s(VLights
g20
tp4051
F1
s(g53
g224
tp4052
F6
s(Vback
g42
tp4053
F5
s(Vthing
g1090
tp4054
F10
s(Voblige
g188
tp4055
F1
s(Vresisting
g48
tp4056
F1
s(Vtender
g34
tp4057
F4
s(g188
g114
tp4058
F3
s(g13
g1821
tp4059
F1
s(VCaptive
g4
tp4060
F1
s(VTrading
g34
tp4061
F1
s(Vjoyfully
g42
tp4062
F2
s(Vexpiate
g34
tp4063
F1
s(VExpectations
g20
tp4064
F1
s(g503
g507
tp4065
F9
s(VNonsense
g6
tp4066
F1
s(VEggs
g6
tp4067
F1
s(Vseize
g60
tp4068
F1
s(VAs
g188
tp4069
F4
s(Vcover
g60
tp4070
F1
s(g20
g411
tp4071
F1
s(VLives
g114
tp4072
F1
s(VJourney
g6
tp4073
F5
s(VModesty
g6
tp4074
F2
s(VNay
g6
tp4075
F1
s(VString
g48
tp4076
F1
s(Vact
g60
tp4077
F1
s(Vsleeping
g48
tp4078
F1
s(Vaccompany
g4
tp4079
F1
s(V'Because
g188
tp4080
F1
s(S':'
g237
tp4081
F154
s(V&
g295
tp4082
F2
s(Vheroick
g34
tp4083
F1
s(VPart
g6
tp4084
F5
s(VCreature
g34
tp4085
F1
s(g60
g34
tp4086
F25
s(g42
g8
tp4087
F9
s(Vlooking
g3464
tp4088
F11
s(Vmany
S'JJ'
p4089
tp4090
F17
s(Vabandoned
g22
tp4091
F2
s(VFriendships
g6
tp4092
F1
s(VArms
g20
tp4093
F11
s(Vgreedy
g34
tp4094
F1
s(VSpoon
g6
tp4095
F1
s(Vconfine
g60
tp4096
F1
s(VNannon
g34
tp4097
F1
s(Vsuch
g4
tp4098
F29
s(Vsit
g60
tp4099
F2
s(Vbecause
g188
tp4100
F5
s(Vbelow
g188
tp4101
F1
s(Vthee
g34
tp4102
F2
s(VHands
g6
tp4103
F3
s(VLeave
g6
tp4104
F5
s(VChristians
g114
tp4105
F6
s(Vfavoured
g22
tp4106
F1
s(VWould
g1397
tp4107
F1
s(VGardens
g114
tp4108
F1
s(Vrelated
g15
tp4109
F3
s(VEducation
g34
tp4110
F2
s(Vconsenting
g48
tp4111
F1
s(g1088
S','
tp4112
F31
s(VPitcher
g6
tp4113
F1
s(Vmodest
S'JJ'
p4114
tp4115
F3
s(Vshew
g234
tp4116
F2
s(Vprevented
g15
tp4117
F2
s(g42
g34
tp4118
F6
s(Vglorious
g4
tp4119
F2
s(VCuriosity
g6
tp4120
F1
s(Vproceeding
g34
tp4121
F1
s(Vsells
S'VBZ'
p4122
tp4123
F1
s(Voblige
g60
tp4124
F1
s(VPaper
g6
tp4125
F3
s(VTreatises
g20
tp4126
F1
s(Vhither
g34
tp4127
F2
s(Vones
S'NNS'
p4128
tp4129
F2
s(VHero
g34
tp4130
F1
s(Vweeping
g48
tp4131
F1
s(Vvillainous
g4
tp4132
F1
s(VFate
g6
tp4133
F8
s(g1667
g255
tp4134
F24
s(VDemonstrations
g20
tp4135
F2
s(Vfaithful
g34
tp4136
F1
s(VGroves
g6
tp4137
F1
s(g255
g1397
tp4138
F10
s(VInstant
g6
tp4139
F1
s(Vmarry
g60
tp4140
F7
s(g603
g42
tp4141
F2
s(VBeasts
g6
tp4142
F1
s(VNews
g6
tp4143
F22
s(Vrude
g4
tp4144
F1
s(VExcellencies
g6
tp4145
F1
s(Vresist
g60
tp4146
F1
s(g756
g411
tp4147
F2
s(VHabit
g6
tp4148
F8
s(VVictim
g34
tp4149
F1
s(VDeliverance
g34
tp4150
F3
s(Vattended
g15
tp4151
F5
s(Vrecover
g60
tp4152
F1
s(Vsearched
g22
tp4153
F1
s(S','
g107
tp4154
F10
s(Vraised
g15
tp4155
F1
s(VEvents
g20
tp4156
F2
s(Veasily
S'RB'
p4157
tp4158
F1
s(VLover
g6
tp4159
F9
s(VConvent
g34
tp4160
F3
s(Vfear
g34
tp4161
F4
s(Vwhither
g34
tp4162
F1
s(Vliving
g48
tp4163
F3
s(Vassassinated
g22
tp4164
F1
s(Vshew
g60
tp4165
F2
s(Vsince
g2026
tp4166
F25
s(VEsteem
g6
tp4167
F1
s(VJoyeuxe
g6
tp4168
F6
s(Venjoying
g34
tp4169
F1
s(Vfeign
g60
tp4170
F2
s(VCrucifix
g34
tp4171
F1
s(VRetreat
g6
tp4172
F2
s(V'Heavens
g234
tp4173
F1
s(Vthousand
g4
tp4174
F1
s(Vbetter
g11
tp4175
F4
s(Vomit
g13
tp4176
F1
s(Vknow
g13
tp4177
F8
s(g34
g13
tp4178
F4
s(Vviolent
g4
tp4179
F1
s(g30
g164
tp4180
F17
s(Vconcluded
g15
tp4181
F3
s(Vexpected
g15
tp4182
F4
s(VSoldiers
g6
tp4183
F1
s(Vsteer
g60
tp4184
F1
s(VNations
g6
tp4185
F1
s(Vmurdered
g22
tp4186
F4
s(Vreward
g34
tp4187
F1
s(Vseconded
g15
tp4188
F1
s(S':'
g15
tp4189
F3
s(VHeir
g6
tp4190
F2
s(g188
g17
tp4191
F321
s(Vwishing
g48
tp4192
F1
s(VMoney
g6
tp4193
F4
s(Vsinking
g34
tp4194
F1
s(Vhope
g34
tp4195
F1
s(Vretired
g22
tp4196
F1
s(VRoom
g6
tp4197
F9
s(VReturn
g34
tp4198
F1
s(Vpart
S'NN'
p4199
tp4200
F5
s(Vcounsels
g60
tp4201
F1
s(VPleasure
g34
tp4202
F2
s(g280
g937
tp4203
F105
s(VCharms
g6
tp4204
F1
s(g123
g6
tp4205
F25
s(VConversations
g20
tp4206
F1
s(VCustoms
g20
tp4207
F2
s(g13
S'.'
tp4208
F5
s(VDays
g20
tp4209
F8
s(Vhappened
g22
tp4210
F5
s(VSilence
g6
tp4211
F4
s(Vcondemn
g60
tp4212
F1
s(VBody
g6
tp4213
F1
s(Vadvanced
g15
tp4214
F1
s(g6
g6
tp4215
F137
s(Vcommanding
g48
tp4216
F2
s(Vrudely
g42
tp4217
F1
s(VReports
g20
tp4218
F1
s(g58
g42
tp4219
F1
s(VIsles
g6
tp4220
F1
s(g58
g36
tp4221
F2
s(Vconsulted
g15
tp4222
F1
s(Vbribe
g60
tp4223
F1
s(Vcoldly
g42
tp4224
F2
s(Vsad
g34
tp4225
F1
s(Vwretched
g4
tp4226
F3
s(Vfinds
g234
tp4227
F1
s(VCaptain
g6
tp4228
F38
s(Vopen
g15
tp4229
F1
s(VFears
g20
tp4230
F4
s(Vlooked
g22
tp4231
F2
s(Vafterwards
g20
tp4232
F1
s(g123
g2166
tp4233
F12
s(g8
g42
tp4234
F1
s(VConstantinople
g6
tp4235
F21
s(Vnext
g4
tp4236
F10
s(g13
g20
tp4237
F4
s(Vlyes
g234
tp4238
F3
s(g42
g42
tp4239
F79
s(Vbid
g15
tp4240
F5
s(VCrowd
g6
tp4241
F1
s(VInhabitants
g20
tp4242
F3
s(Vgrowing
g48
tp4243
F2
s(Vbeauteous
g4
tp4244
F1
s(VLatin
g6
tp4245
F1
s(Vmajestick
g34
tp4246
F1
s(VJoys
g6
tp4247
F1
s(Vgrew
S'VBD'
p4248
tp4249
F5
s(Vhaving
g2217
tp4250
F26
s(Vpreserve
g60
tp4251
F4
s(Vthought
g15
tp4252
F15
s(VOrder
g34
tp4253
F2
s(VWood
g6
tp4254
F15
s(g1035
g15
tp4255
F4
s(Vcold
g4
tp4256
F2
s(g6
g336
tp4257
F18
s(g114
g15
tp4258
F9
s(Vwithheld
g22
tp4259
F1
s(Vindisposed
g22
tp4260
F1
s(Vunto
g4
tp4261
F1
s(g447
S','
tp4262
F10
s(g1397
g1055
tp4263
F1
s(VPassion
g34
tp4264
F7
s(g34
g22
tp4265
F5
s(Vinsolent
g60
tp4266
F1
s(g102
g250
tp4267
F117
s(Vdesigned
g15
tp4268
F2
s(VRemedies
g114
tp4269
F1
s(Vdistant
g4
tp4270
F2
s(Vserve
g60
tp4271
F2
s(VDeep
g6
tp4272
F1
s(Vobliging
g48
tp4273
F1
s(Vknows
g234
tp4274
F1
s(VNecessity
g6
tp4275
F1
s(Vexceeding
g48
tp4276
F1
s(g20
g4
tp4277
F5
s(Vdress
g34
tp4278
F1
s(Vprosper
g188
tp4279
F1
s(Vshining
g48
tp4280
F2
s(g2955
g8
tp4281
F1
s(VFaiths
g20
tp4282
F1
s(Vsuppose
g13
tp4283
F2
s(VSail
g6
tp4284
F8
s(g189
g20
tp4285
F1
s(Vcomes
S'VBZ'
p4286
tp4287
F2
s(g188
g22
tp4288
F6
s(Vit
g211
tp4289
F89
s(g237
g2217
tp4290
F29
s(Vdisdained
g15
tp4291
F1
s(Vurge
g60
tp4292
F1
s(Voverwhelmed
g15
tp4293
F1
s(V'T
g123
tp4294
F1
s(Vfour
g349
tp4295
F2
s(Vstop
g60
tp4296
F1
s(VService
S'NNP'
p4297
tp4298
F4
s(Vapprehensive
g34
tp4299
F1
s(Vcommended
g22
tp4300
F1
s(Vbloody
g34
tp4301
F1
s(Vwaste
g34
tp4302
F1
s(VTrifle
g6
tp4303
F3
s(g1400
g102
tp4304
F80
s(Ventered
g15
tp4305
F20
s(VSoul
g6
tp4306
F15
s(g214
g11
tp4307
F5
s(Vwind
g34
tp4308
F1
s(g34
g614
tp4309
F2
s(Vburning
g34
tp4310
F1
s(Vsome
S'DT'
p4311
tp4312
F75
s(VRemorse
g6
tp4313
F3
s(g259
g268
tp4314
F2
s(V'A
g123
tp4315
F2
s(g297
g20
tp4316
F6
s(Vimpoverished
g22
tp4317
F1
s(VFeature
g34
tp4318
F1
s(VEvening
g6
tp4319
F5
s(VRage
g6
tp4320
F3
s(Vlived
g15
tp4321
F7
s(VAttention
g6
tp4322
F1
s(g211
g101
tp4323
F1
s(Vsent
g234
tp4324
F1
s(Vweighed
g22
tp4325
F1
s(VPlenty
g6
tp4326
F4
s(VBed-side
g6
tp4327
F1
s(VSatisfaction
g34
tp4328
F1
s(VTrunk
g6
tp4329
F6
s(VVenetian
g6
tp4330
F1
s(Vforewarn
g60
tp4331
F2
s(S'('
g4
tp4332
F1
s(VDesign
g6
tp4333
F6
s(Vease
g34
tp4334
F1
s(VDeliverance
g6
tp4335
F1
s(VVenus
g6
tp4336
F1
s(VIntreaties
g114
tp4337
F1
s(VFace
g34
tp4338
F5
s(Vtorture
g60
tp4339
F1
s(V'Ah
g123
tp4340
F1
s(VBreast
g34
tp4341
F1
s(g255
S':'
tp4342
F1
s(VSeaman
g6
tp4343
F1
s(Vbetwixt
g34
tp4344
F3
s(Vruminate
g60
tp4345
F1
s(VTreasure
g34
tp4346
F3
s(Vdead
g4
tp4347
F11
s(Vthrough
g188
tp4348
F4
s(Vcalled
g15
tp4349
F8
s(VSo
g42
tp4350
F8
s(Vlove
g13
tp4351
F2
s(g6
g646
tp4352
F15
s(VCommand
g6
tp4353
F2
s(VEffects
g114
tp4354
F1
s(VSoul
g34
tp4355
F2
s(VFather
g6
tp4356
F62
s(g95
g30
tp4357
F1
s(Vknocking
g48
tp4358
F1
s(Vrecited
g22
tp4359
F1
s(Vinclosed
g15
tp4360
F1
s(Vare
g646
tp4361
F60
s(Vsafe
g34
tp4362
F1
s(g756
g30
tp4363
F1
s(Vrehearsed
g15
tp4364
F1
s(Vexcept
g188
tp4365
F1
s(VWelfare
g6
tp4366
F1
s(Vdying
g48
tp4367
F2
s(VRage
g34
tp4368
F1
s(VDiversions
g20
tp4369
F1
s(S')'
g2189
tp4370
F1
s(VCabinet
g6
tp4371
F7
s(g60
S','
tp4372
F48
s(Vrelated
g22
tp4373
F2
s(Vhorrid
g4
tp4374
F1
s(VDoors
g20
tp4375
F2
s(Vfetching
g48
tp4376
F1
s(Vearthen
g34
tp4377
F1
s(g2404
g22
tp4378
F3
s(Vtells
g20
tp4379
F1
s(VAccordingly
g42
tp4380
F2
s(Vabove
g188
tp4381
F5
s(VLadies
g20
tp4382
F8
s(VNo
g214
tp4383
F4
s(VSalt-Beef
g6
tp4384
F1
s(Vcivilly
g42
tp4385
F1
s(Vavoided
g15
tp4386
F1
s(Vtook
S'VBD'
p4387
tp4388
F15
s(g255
g101
tp4389
F1
s(VReward
g6
tp4390
F4
s(Vpacked
g15
tp4391
F2
s(VOrange
g6
tp4392
F1
s(VWhere
g268
tp4393
F1
s(S')'
g297
tp4394
F2
s(Vreflected
g22
tp4395
F1
s(VYouth
g6
tp4396
F4
s(Vfeast
g60
tp4397
F1
s(Vtreat
g60
tp4398
F1
s(VTell
g6
tp4399
F1
s(VPiety
g6
tp4400
F1
s(VPersons
g6
tp4401
F2
s(Vbehind
g34
tp4402
F1
s(g370
g447
tp4403
F3
s(Vpurchase
g34
tp4404
F1
s(Vdescrie
g60
tp4405
F1
s(Vcontinued
g15
tp4406
F8
s(V've
S'VBP'
p4407
tp4408
F2
s(VProse
g6
tp4409
F1
s(VPassions
g20
tp4410
F1
s(VTitles
g6
tp4411
F1
s(Vproceeded
g15
tp4412
F1
s(VJewels
g6
tp4413
F8
s(VGentlemen
g6
tp4414
F1
s(Vthat
g214
tp4415
F48
s(Vearthly
g4
tp4416
F2
s(g255
S','
tp4417
F5
s(Vconsult
g60
tp4418
F1
s(Vnative
g4
tp4419
F5
s(g234
g507
tp4420
F2
s(Vca
S'MD'
p4421
tp4422
F1
s(Vapply
g60
tp4423
F2
s(Vforbad
g60
tp4424
F1
s(Vrequired
g22
tp4425
F2
s(VCountry
g34
tp4426
F5
s(Vought
g1397
tp4427
F6
s(Vyourself
g211
tp4428
F4
s(Vdelayed
g22
tp4429
F1
s(Vhence
g34
tp4430
F4
s(V'Stranger
g6
tp4431
F1
s(VMarble
g6
tp4432
F1
s(VNation
g6
tp4433
F2
s(g411
S':'
tp4434
F3
s(VSins
g20
tp4435
F1
s(VLook
g6
tp4436
F1
s(VSentence
g6
tp4437
F1
s(VHomes
g20
tp4438
F1
s(Vtells
g234
tp4439
F1
s(Vrest
g101
tp4440
F2
s(VDream
g34
tp4441
F2
s(VConduct
g6
tp4442
F1
s(Vas
g188
tp4443
F96
s(Vgetting
S'VBG'
p4444
tp4445
F3
s(VSo
g188
tp4446
F1
s(VRevenge
g6
tp4447
F1
s(Vborrow
g60
tp4448
F1
s(g229
g4311
tp4449
F13
s(Vrather
S'RB'
p4450
tp4451
F5
s(VEstate
g2423
tp4452
F10
s(g4311
g20
tp4453
F80
s(Vmumble
g60
tp4454
F1
s(g48
g803
tp4455
F51
s(Vgreat
S'JJ'
p4456
tp4457
F34
s(g447
g114
tp4458
F2
s(Vfail
g34
tp4459
F1
s(Vseized
g15
tp4460
F1
s(Vwhilst
g4
tp4461
F1
s(VEscape
g34
tp4462
F1
s(Vbound
g60
tp4463
F1
s(VIngenuity
g6
tp4464
F2
s(Veldest
g101
tp4465
F1
s(VDespair
g34
tp4466
F1
s(Vdreadful
g4
tp4467
F9
s(Vimitate
g60
tp4468
F1
s(Vinnocent
g4
tp4469
F1
s(Vspacious
g4
tp4470
F1
s(Vsold
g22
tp4471
F1
s(Vpretends
g234
tp4472
F2
s(Vthemselves
g2224
tp4473
F11
s(g95
g42
tp4474
F1
s(Vof
g1667
tp4475
F408
s(VConvulsions
g6
tp4476
F1
s(Vlargest
g101
tp4477
F1
s(Vlet
g13
tp4478
F1
s(VIntelligence
g6
tp4479
F1
s(V'Twill
g1397
tp4480
F1
s(VPeace
g34
tp4481
F1
s(Vdepose
g60
tp4482
F1
s(g4456
g114
tp4483
F9
s(Vattempted
g22
tp4484
F1
s(VSpies
g6
tp4485
F1
s(Vblew
g34
tp4486
F1
s(VVenetians
g114
tp4487
F2
s(Vfate
g34
tp4488
F1
s(Vgreatly
g42
tp4489
F1
s(Vtaught
g15
tp4490
F1
s(g411
g102
tp4491
F7
s(g107
S','
tp4492
F6
s(g756
g89
tp4493
F1
s(Vher
g53
tp4494
F134
s(Vmend
g60
tp4495
F1
s(Vfasted
g15
tp4496
F1
s(Valone
g42
tp4497
F7
s(Vlay
g15
tp4498
F4
s(Vprofane
g13
tp4499
F1
s(VPocket
g34
tp4500
F1
s(S':'
g30
tp4501
F8
s(g114
S','
tp4502
F19
s(VSun
S'NNP'
p4503
tp4504
F3
s(Venter
g60
tp4505
F2
s(g60
g1452
tp4506
F7
s(V2d
g123
tp4507
F1
s(g13
g937
tp4508
F23
s(Vunworthy
g4
tp4509
F1
s(VMarch
S'NNP'
p4510
tp4511
F2
s(Vapprehensive
g4
tp4512
F1
s(Vwound
g188
tp4513
F1
s(Vshed
g15
tp4514
F1
s(Vevery
g1390
tp4515
F9
s(Vconversed
g15
tp4516
F1
s(Verect
g60
tp4517
F1
s(Vconveyed
g15
tp4518
F1
s(Vaboard
g188
tp4519
F5
s(VGold
g6
tp4520
F7
s(VCrew
g6
tp4521
F1
s(VEnjoyment
g6
tp4522
F1
s(Vtimes
g20
tp4523
F2
s(Vpartly
S'RB'
p4524
tp4525
F1
s(g253
g48
tp4526
F12
s(Vdeceived
g22
tp4527
F2
s(VMortality
g6
tp4528
F2
s(Vagreeably
g42
tp4529
F2
s(Vvertuous
g4
tp4530
F1
s(Vgazed
g15
tp4531
F1
s(VHead
g34
tp4532
F1
s(g255
g441
tp4533
F10
s(Vused
g22
tp4534
F1
s(VDesigns
g6
tp4535
F2
s(VImpostor
g6
tp4536
F1
s(Vreported
g22
tp4537
F1
s(VExpressions
g20
tp4538
F1
s(VOsmin
g6
tp4539
F14
s(Vyet
g42
tp4540
F18
s(V'T
g26
tp4541
F1
s(g95
g214
tp4542
F49
s(Vgo
g60
tp4543
F38
s(Vmuch
g42
tp4544
F23
s(Vthy
g4
tp4545
F3
s(g8
g2955
tp4546
F4
s(VAnchors
g20
tp4547
F1
s(Vfresh
g4
tp4548
F2
s(g48
g95
tp4549
F1
s(VDeed
g6
tp4550
F3
s(g644
g447
tp4551
F4
s(g34
S')'
tp4552
F2
s(Vfinish
g4
tp4553
F1
s(Vslept
g15
tp4554
F1
s(Voval
g34
tp4555
F1
s(Vfollow
g13
tp4556
F1
s(Vlikewise
g42
tp4557
F2
s(Vempty
g4
tp4558
F1
s(VBrother
g34
tp4559
F1
s(g34
g60
tp4560
F3
s(VWind
g6
tp4561
F3
s(Vdid
g2889
tp4562
F20
s(Vcried
g4
tp4563
F1
s(g89
g36
tp4564
F1
s(VWords
g20
tp4565
F16
s(Varrive
g60
tp4566
F1
s(Vconsider
g60
tp4567
F2
s(g2224
g22
tp4568
F13
s(Vstrove
g13
tp4569
F1
s(Vbeautiful
g4
tp4570
F3
s(V1\u005c
g123
tp4571
F1
s(VIntreaty
g6
tp4572
F1
s(Vthou
g4
tp4573
F1
s(Vadmired
g15
tp4574
F2
s(Vcertain
g3945
tp4575
F3
s(Vcomplied
g22
tp4576
F1
s(g13
S':'
tp4577
F4
s(Vson
g34
tp4578
F1
s(Vresolving
g48
tp4579
F1
s(g26
g250
tp4580
F2
s(Vprotect
g60
tp4581
F1
s(VEsteem
g34
tp4582
F1
s(VForces
g20
tp4583
F1
s(Vsincere
g42
tp4584
F1
s(VCreature
g6
tp4585
F1
s(Vresigned
g4
tp4586
F1
s(Vgiddy
g4
tp4587
F1
s(Vforth
g4
tp4588
F1
s(VDown
g6
tp4589
F1
s(Vashore
g42
tp4590
F7
s(Vuseless
g42
tp4591
F1
s(Vcomfort
g60
tp4592
F4
s(VSituation
g6
tp4593
F1
s(VHorseback
g6
tp4594
F1
s(Valter
g42
tp4595
F1
s(VParian
g4
tp4596
F1
s(VIntent
g34
tp4597
F1
s(Vsix
g2774
tp4598
F7
s(VGod
g6
tp4599
F31
s(Vstabbed
g15
tp4600
F1
s(Vforth
g34
tp4601
F4
s(V29th
g123
tp4602
F1
s(Vvisit
g60
tp4603
F3
s(VChildren
g6
tp4604
F4
s(Vrunning
g48
tp4605
F1
s(g101
g22
tp4606
F1
s(Vcontrived
g15
tp4607
F1
s(VGlory
g6
tp4608
F1
s(Vbreak
g60
tp4609
F1
s(VSnares
g6
tp4610
F1
s(Vdelivers
g20
tp4611
F1
s(Vkept
g22
tp4612
F1
s(Vgenerously
g42
tp4613
F1
s(Vreally
g647
tp4614
F1
s(VHer
g53
tp4615
F1
s(Valso
S'RB'
p4616
tp4617
F2
s(Vuseful
g4
tp4618
F2
s(g13
g4
tp4619
F26
s(Vwish'd-for
g4
tp4620
F1
s(VRepublick
g6
tp4621
F1
s(VSecretary
S'NNP'
p4622
tp4623
F1
s(S':'
g762
tp4624
F24
s(Vbred
g22
tp4625
F1
s(Vpre-ingaged
g4
tp4626
F1
s(VConfidence
g34
tp4627
F1
s(VHabits
g20
tp4628
F3
s(Vpassed
g22
tp4629
F4
s(Vtell
g13
tp4630
F1
s(Vkill
g60
tp4631
F2
s(Vdecay
g4
tp4632
F1
s(Vsecurely
g42
tp4633
F1
s(Vprocure
g34
tp4634
F1
s(Vwilling
S'JJ'
p4635
tp4636
F1
s(VLiberty
g6
tp4637
F2
s(VFortune
g6
tp4638
F13
s(VCoat
g34
tp4639
F1
s(VAction
g6
tp4640
F1
s(Vpublick
g34
tp4641
F1
s(Vwithdraw
g60
tp4642
F1
s(VPitfalls
g20
tp4643
F1
s(VSons
g6
tp4644
F1
s(VLanguage
g6
tp4645
F2
s(VNarrative
g4
tp4646
F1
s(Vcrowded
g22
tp4647
F1
s(Vhardly
g42
tp4648
F1
s(Vseparated
g15
tp4649
F1
s(VEarthen
g6
tp4650
F1
s(VTreatment
g34
tp4651
F1
s(VThought
g6
tp4652
F2
s(g255
g278
tp4653
F43
s(Vif
S'IN'
p4654
tp4655
F52
s(Vundisturbed
g4
tp4656
F2
s(Vlifting
g48
tp4657
F3
s(g214
g22
tp4658
F2
s(VFrier
g6
tp4659
F1
s(g13
g95
tp4660
F2
s(VHorses
g20
tp4661
F1
s(Vappeared
g15
tp4662
F6
s(VWood
g34
tp4663
F1
s(VCasks
g6
tp4664
F1
s(VMeats
g6
tp4665
F1
s(VVoyage
g34
tp4666
F5
s(VLust
g6
tp4667
F2
s(g20
S':'
tp4668
F31
s(Vwas
g15
tp4669
F207
s(Vcondescended
g15
tp4670
F1
s(Vbrought
g22
tp4671
F24
s(V'Die
g123
tp4672
F1
s(VKing
g6
tp4673
F2
s(V'God
g26
tp4674
F1
s(Vvicious
g4
tp4675
F1
s(Vthither
g42
tp4676
F2
s(Vsavage
g4
tp4677
F1
s(Vcast
g22
tp4678
F2
s(VDiscourses
g20
tp4679
F1
s(Vdie
g60
tp4680
F10
s(VMahometans
g114
tp4681
F2
s(VCables
g6
tp4682
F1
s(VFranciscan
g6
tp4683
F1
s(Vsilently
g42
tp4684
F1
s(Vconvey
g13
tp4685
F1
s(VDevil
g6
tp4686
F1
s(VSenators
g114
tp4687
F1
s(VNature
g6
tp4688
F5
s(Vcrying
g34
tp4689
F2
s(Vremoved
g22
tp4690
F1
s(Vwhy
g791
tp4691
F6
s(Vfrequent
g4
tp4692
F2
s(VSpring
g34
tp4693
F1
s(Vprevail
g34
tp4694
F1
s(Vde
g336
tp4695
F17
s(VFrenchman
g6
tp4696
F1
s(g107
S'.'
tp4697
F9
s(g1220
g6
tp4698
F15
s(VSailors
g20
tp4699
F5
s(VMilk
g6
tp4700
F2
s(g255
g937
tp4701
F2
s(Vlate
g4
tp4702
F1
s(Vvisited
g15
tp4703
F3
s(g102
g370
tp4704
F54
s(VShips
g6
tp4705
F1
s(VSays
g234
tp4706
F1
s(Vanswer
g60
tp4707
F1
s(S'('
g1035
tp4708
F1
s(Ve
g60
tp4709
F2
s(VFire
g34
tp4710
F3
s(VWord
g6
tp4711
F3
s(VPlate
g6
tp4712
F1
s(VProphet
g34
tp4713
F1
s(Vdoubting
g48
tp4714
F2
s(Vburning
g48
tp4715
F2
s(Vseeming
g48
tp4716
F1
s(Vwithdrew
g34
tp4717
F2
s(VGuns
g6
tp4718
F2
s(Vvery
g42
tp4719
F15
s(VFatigue
g6
tp4720
F1
s(VTemper
g6
tp4721
F2
s(Vsubmitted
g15
tp4722
F1
s(Vpast
g60
tp4723
F1
s(Venough
g4
tp4724
F1
s(Vglad
g4
tp4725
F1
s(Vcast
g60
tp4726
F1
s(g164
S','
tp4727
F12
s(VMahomet
g6
tp4728
F13
s(Vbefore
g188
tp4729
F19
s(g22
g742
tp4730
F1
s(Vdestroy
g60
tp4731
F2
s(VSlave
g6
tp4732
F13
s(VRecital
g6
tp4733
F2
s(VBut
g294
tp4734
F12
s(Vtravel
g60
tp4735
F1
s(Vforgot
g15
tp4736
F1
s(Vwash
g60
tp4737
F1
s(g123
g762
tp4738
F1
s(Vhelp
g34
tp4739
F1
s(Vhad
g15
tp4740
F120
s(Vam
g715
tp4741
F28
s(VDeck
g6
tp4742
F1
s(Vsupposing
g48
tp4743
F1
s(Vleast
g101
tp4744
F3
s(Vmelancholy
g4
tp4745
F1
s(Vpromised
g15
tp4746
F2
s(V'Who
g26
tp4747
F1
s(Vacknowledge
g60
tp4748
F1
s(g411
g74
tp4749
F4
s(Vaside
g42
tp4750
F1
s(VFeet
g34
tp4751
F2
s(Vuse
g34
tp4752
F1
s(VWaves
g6
tp4753
F1
s(Vdrowned
g22
tp4754
F3
s(VCottage
g34
tp4755
F4
s(VWidower
g6
tp4756
F2
s(Vgone
g1959
tp4757
F16
s(V'Yet
g26
tp4758
F1
s(g411
g250
tp4759
F13
s(Vfirst
g4
tp4760
F12
s(Vexorbitant
g4
tp4761
F1
s(Vwaked
g22
tp4762
F1
s(V20th
g123
tp4763
F1
s(Vinsupportable
g4
tp4764
F1
s(VDear
g6
tp4765
F1
s(g22
g22
tp4766
F6
s(Vknew
g15
tp4767
F10
s(Vextreme
g34
tp4768
F1
s(Vcompletely
g42
tp4769
F2
s(Vbefal
g60
tp4770
F1
s(VCruso
g6
tp4771
F1
s(Vamorous
g4
tp4772
F1
s(Vsail
g60
tp4773
F1
s(Vfelt
g15
tp4774
F1
s(Vglut
g60
tp4775
F1
s(VWall
S'NNP'
p4776
tp4777
F1
s(Valive
g13
tp4778
F1
s(g60
g42
tp4779
F41
s(VEunuchs
g6
tp4780
F3
s(Vwant
g34
tp4781
F4
s(g237
g102
tp4782
F13
s(Vthinking
g34
tp4783
F1
s(g2166
g297
tp4784
F1
s(Vthis
g441
tp4785
F98
s(VCouple
g6
tp4786
F1
s(VAssistance
g6
tp4787
F1
s(Vself
g34
tp4788
F1
s(VPursuers
g20
tp4789
F1
s(Vcommand
g13
tp4790
F1
s(g1185
g702
tp4791
F21
s(VFelicity
g6
tp4792
F1
s(VPleasure-Houses
g6
tp4793
F1
s(VCoast
S'NNP'
p4794
tp4795
F7
s(Vresolved
g15
tp4796
F9
s(g34
g164
tp4797
F10
s(Vas
g42
tp4798
F13
s(Vout
g188
tp4799
F12
s(g30
g13
tp4800
F6
s(VQuantity
g34
tp4801
F1
s(Vvanished
g15
tp4802
F1
s(Vhastened
g22
tp4803
F1
s(VSaints
g20
tp4804
F1
s(g1667
g1710
tp4805
F2
s(VBeasts
g20
tp4806
F1
s(VHere
S'RB'
p4807
tp4808
F15
s(Vparted
g15
tp4809
F3
s(Vfeeble
g4
tp4810
F1
s(VCompliments
g20
tp4811
F1
s(Vfragrant
g4
tp4812
F1
s(VMaid-
g6
tp4813
F1
s(VDonna
g6
tp4814
F3
s(VHealth
S'NNP'
p4815
tp4816
F2
s(Vheaded
g22
tp4817
F1
s(VHome
g34
tp4818
F1
s(VOrisons
g6
tp4819
F1
s(Vsink
g34
tp4820
F1
s(VFurniture
g6
tp4821
F1
s(g60
g255
tp4822
F13
s(g214
g348
tp4823
F2
s(VSplendor
g6
tp4824
F1
s(Vfuture
g4
tp4825
F2
s(g60
g86
tp4826
F88
s(Vpurpose
g34
tp4827
F1
s(Vsee
g13
tp4828
F3
s(VWhy
g1820
tp4829
F3
s(Vembraced
g15
tp4830
F7
s(Vleaped
g15
tp4831
F1
s(VLife
g34
tp4832
F5
s(Vhappened
g15
tp4833
F2
s(Vsick
g4
tp4834
F8
s(Vdangerous
g4
tp4835
F1
s(Vthirty
g4
tp4836
F1
s(Vpunished
g188
tp4837
F1
s(VPlunder
g6
tp4838
F1
s(VSea-Fowl
g6
tp4839
F1
s(Vexcellently
g42
tp4840
F1
s(g58
g6
tp4841
F1
s(V'St
g34
tp4842
F1
s(VLetter
g34
tp4843
F2
s(Vcommit
g60
tp4844
F1
s(Vready
g4
tp4845
F6
s(VShot
g6
tp4846
F1
s(Vdestroy
g15
tp4847
F1
s(V'd
g15
tp4848
F1
s(Vformed
g15
tp4849
F2
s(VReflection
g6
tp4850
F1
s(VImagination
g34
tp4851
F1
s(VBlessing
g6
tp4852
F1
s(VInfidels
g6
tp4853
F4
s(VFriends
g20
tp4854
F6
s(Vtry
g60
tp4855
F3
s(VCatherina
g6
tp4856
F2
s(Ventrusted
g22
tp4857
F2
s(Vfinished
g15
tp4858
F3
s(V'Are
g188
tp4859
F1
s(VCourage
g60
tp4860
F1
s(VNobility
g6
tp4861
F2
s(Vcursed
g15
tp4862
F1
s(g11
g237
tp4863
F1
s(VTarpaulin
g6
tp4864
F1
s(Vscarce
g60
tp4865
F1
s(Vplaced
g22
tp4866
F3
s(Vonly
g42
tp4867
F18
s(g214
S':'
tp4868
F1
s(Veach
S'DT'
p4869
tp4870
F6
s(VConspiracy
g6
tp4871
F1
s(Vparticular
g4
tp4872
F1
s(VAnchor
g6
tp4873
F5
s(VLord
g34
tp4874
F2
s(Vtrue
S'JJ'
p4875
tp4876
F3
s(Vbelong
g4
tp4877
F1
s(g214
g60
tp4878
F2
s(Vimposed
g22
tp4879
F1
s(g6
S','
tp4880
F1085
s(Vseeing
g48
tp4881
F9
s(VKinds
g6
tp4882
F1
s(Vforgotten
g22
tp4883
F1
s(VHermit
g6
tp4884
F5
s(Vnaked
g15
tp4885
F1
s(VBails
g6
tp4886
F1
s(g58
g123
tp4887
F1
s(VTime
g6
tp4888
F16
s(Vhuman
g4
tp4889
F1
s(VRising-sun
g6
tp4890
F1
s(Vputs
g234
tp4891
F1
s(Vable
g1036
tp4892
F13
s(Vdelicately
g42
tp4893
F2
s(Vwait
g60
tp4894
F3
s(VVenture
g34
tp4895
F1
s(Vvictualled
g22
tp4896
F1
s(VServants
g6
tp4897
F7
s(Vfirm
g60
tp4898
F1
s(Vthrowing
g48
tp4899
F3
s.