ccollections
defaultdict
p1
(c__builtin__
float
p2
tRp3
(Vquit
S'VB'
p4
tp5
F1
s(VMeans
S'NNPS'
p6
tp7
F1
s(S'CC'
p8
S'RBR'
p9
tp10
F2
s(S'VBP'
p11
S'NNP'
p12
tp13
F2
s(Vwe
S'PRP'
p14
tp15
F4
s(g12
S'.'
tp16
F18
s(Vproud
S'JJ'
p17
tp18
F1
s(S'IN'
p19
S'WDT'
p20
tp21
F2
s(VFor
S'IN'
p22
tp23
F1
s(VCase
g12
tp24
F1
s(VDisposition
S'NN'
p25
tp26
F1
s(VLiberty
g12
tp27
F2
s(S'IN'
p28
g25
tp29
F3
s(VHistory
g12
tp30
F1
s(Vtogether
S'RB'
p31
tp32
F1
s(Vyoung
S'JJ'
p33
tp34
F1
s(S'VBG'
p35
S'NNS'
p36
tp37
F2
s(VMaterials
g36
tp38
F1
s(S"''"
p39
g17
tp40
F1
s(S'PRP$'
p41
g12
tp42
F5
s(Vproper
g25
tp43
F1
s(Vfind
g11
tp44
F2
s(VAdmirers
g6
tp45
F1
s(g36
S'.'
tp46
F1
s(S'VBD'
p47
g12
tp48
F1
s(VCountry
g12
tp49
F1
s(Vrise
g4
tp50
F1
s(S','
S'IN'
p51
tp52
F33
s(g25
g25
tp53
F1
s(VLabours
g12
tp54
F1
s(g17
S'VBZ'
p55
tp56
F1
s(S'DT'
p57
g12
tp58
F64
s(Vgiven
S'VBN'
p59
tp60
F1
s(Vbarbarous
g17
tp61
F1
s(Vadvantageous
g17
tp62
F1
s(VManner
g25
tp63
F1
s(Vagainst
S'IN'
p64
tp65
F3
s(VTo
S'TO'
p66
tp67
F1
s(Vthat
g20
tp68
F4
s(Vbad
S'JJ'
p69
tp70
F1
s(S'RB'
p71
S'PRP$'
p72
tp73
F1
s(S'PRP'
p74
S'MD'
p75
tp76
F4
s(S','
S'WRB'
p77
tp78
F2
s(Vratify
S'VBN'
p79
tp80
F1
s(S'NN'
p81
g9
tp82
F1
s(Vunpardonable
g17
tp83
F1
s(Vendless
g17
tp84
F1
s(S'TO'
p85
g17
tp86
F2
s(VCommerce
S'NNP'
p87
tp88
F1
s(Vtho
g25
tp89
F2
s(g31
S'VBZ'
p90
tp91
F2
s(VDeference
g25
tp92
F1
s(Vupon
g28
tp93
F4
s(Vbecame
S'VBD'
p94
tp95
F2
s(Vtreated
g79
tp96
F1
s(Vlearned
g17
tp97
F2
s(Vfrom
S'IN'
p98
tp99
F5
s(Vhigher
S'JJR'
p100
tp101
F2
s(Vold
S'JJ'
p102
tp103
F1
s(VReverence
g12
tp104
F1
s(VLetters
g12
tp105
F2
s(Vpresume
g4
tp106
F1
s(Vindependent
S'JJ'
p107
tp108
F1
s(Vthe
g57
tp109
F71
s(Vwith
g19
tp110
F10
s(g6
S'MD'
p111
tp112
F1
s(VI
g74
tp113
F12
s(VResident
g12
tp114
F1
s(Vwill
S'MD'
p115
tp116
F3
s(Vbegan
S'VBD'
p117
tp118
F1
s(Vequally
g31
tp119
F1
s(g12
S'WP'
p120
tp121
F1
s(Vfar
S'RB'
p122
tp123
F1
s(Vfarther
g25
tp124
F1
s(Vvain
g17
tp125
F1
s(VCompany
g12
tp126
F4
s(g31
S'VBN'
p127
tp128
F2
s(S'VBZ'
p129
g85
tp130
F6
s(Vor
S'CC'
p131
tp132
F4
s(VWriter
g12
tp133
F1
s(S'('
S'IN'
p134
tp135
F1
s(Vaffect
g4
tp136
F1
s(VStories
g36
tp137
F1
s(Vgives
g90
tp138
F1
s(g11
g25
tp139
F2
s(g115
S'IN'
p140
tp141
F5
s(Vboth
S'DT'
p142
tp143
F3
s(Vdivided
g79
tp144
F1
s(g11
g85
tp145
F1
s(Vwere
S'VBD'
p146
tp147
F1
s(S'VB'
p148
g79
tp149
F9
s(VPortion
g25
tp150
F1
s(VPedants
g12
tp151
F1
s(VPhilosophy
g12
tp152
F2
s(Vsave
g4
tp153
F1
s(g25
g57
tp154
F1
s(VLearned
g79
tp155
F1
s(Vbefore
g28
tp156
F3
s(g8
g55
tp157
F2
s(g71
g148
tp158
F7
s(g71
g17
tp159
F14
s(Vall
S'PDT'
p160
tp161
F1
s(Vmore
g100
tp162
F1
s(Vfamous
g17
tp163
F1
s(Vand
g8
tp164
F59
s(g8
S'DT'
p165
tp166
F8
s(S','
g111
tp167
F2
s(g79
S'IN'
p168
tp169
F8
s(Vchosen
g79
tp170
F1
s(Vgood
g17
tp171
F3
s(g12
g77
tp172
F1
s(Vcan
g75
tp173
F3
s(VThe
S'DT'
p174
tp175
F5
s(S','
g142
tp176
F8
s(Vacquir
g79
tp177
F1
s(g12
g142
tp178
F2
s(VBut
S'CC'
p179
tp180
F2
s(VCountrymen
g36
tp181
F1
s(VTitle
g12
tp182
F1
s(Vmake
g4
tp183
F1
s(VRival
g25
tp184
F1
s(g31
S'PRP'
p185
tp186
F1
s(g11
S','
tp187
F3
s(g111
g148
tp188
F14
s(Vcommon
S'JJ'
p189
tp190
F5
s(VLearned
g12
tp191
F2
s(VTis
g25
tp192
F1
s(Vwhen
S'WRB'
p193
tp194
F1
s(VPeople
g12
tp195
F1
s(g140
g57
tp196
F75
s(Veasily
S'RB'
p197
tp198
F1
s(g17
g115
tp199
F4
s(g11
g115
tp200
F2
s(VLearning
g12
tp201
F2
s(g17
g74
tp202
F1
s(Vnothing
g81
tp203
F1
s(g17
g85
tp204
F1
s(Vseems
S'VBZ'
p205
tp206
F1
s(g160
g57
tp207
F1
s(VWomen
g12
tp208
F2
s(VReason
g12
tp209
F1
s(VQuarter
g12
tp210
F1
s(S'POS'
p211
g12
tp212
F1
s(S'VBD'
p213
g28
tp214
F3
s(VWorlds
g12
tp215
F1
s(Veven
g31
tp216
F1
s(g55
g12
tp217
F2
s(g12
g131
tp218
F19
s(Vanimal
g17
tp219
F1
s(S'DT'
p220
S'CD'
p221
tp222
F2
s(VWarmth
g12
tp223
F1
s(VSex
g12
tp224
F5
s(VPrinciples
g36
tp225
F1
s(Vthan
S'IN'
p226
tp227
F6
s(g36
g115
tp228
F1
s(g8
g47
tp229
F3
s(Vover
g28
tp230
F1
s(V'd
g115
tp231
F14
s(VIntelligence
g25
tp232
F1
s(VView
g12
tp233
F1
s(Van
g142
tp234
F3
s(Vbest
S'JJS'
p235
tp236
F2
s(S':'
g174
tp237
F1
s(S'PRP$'
p238
g25
tp239
F8
s(VRace
g25
tp240
F1
s(VOccasion
g12
tp241
F1
s(Vbetwixt
g28
tp242
F1
s(VUnderstandings
g36
tp243
F1
s(Vtwo
S'CD'
p244
tp245
F1
s(g185
g72
tp246
F1
s(Vextremely
S'RB'
p247
tp248
F1
s(g28
g221
tp249
F1
s(g12
g74
tp250
F2
s(Vemploy
g11
tp251
F1
s(g36
S'VBP'
p252
tp253
F1
s(VExercise
g25
tp254
F1
s(g9
S'JJ'
p255
tp256
F5
s(g12
g25
tp257
F3
s(g17
g28
tp258
F10
s(Vneighbouring
g17
tp259
F1
s(S':'
g22
tp260
F2
s(g17
S':'
tp261
F2
s(V's
g211
tp262
F1
s(VInfluence
g12
tp263
F1
s(S'VBD'
p264
g85
tp265
F2
s(Vjealous
g17
tp266
F2
s(Vinexcusable
g17
tp267
F1
s(Vagreeable
g17
tp268
F1
s(Vunguided
g79
tp269
F1
s(g55
g57
tp270
F3
s(VFools
g12
tp271
F1
s(VInclination
g25
tp272
F1
s(S','
g12
tp273
F4
s(g31
g140
tp274
F7
s(Vjoin
g25
tp275
F1
s(Vcold
g17
tp276
F1
s(V(
S'('
tp277
F1
s(g36
g8
tp278
F4
s(Vthink
g4
tp279
F1
s(VSubjection
g12
tp280
F1
s(VOperations
g12
tp281
F2
s(g36
S','
tp282
F13
s(g57
g100
tp283
F2
s(Vhe
S'PRP'
p284
tp285
F2
s(g25
S'.'
tp286
F4
s(g79
g17
tp287
F1
s(VLabour
g12
tp288
F1
s(VPublic
g12
tp289
F2
s(S'VBN'
p290
g57
tp291
F1
s(g12
g211
tp292
F1
s(S'JJ'
p293
g193
tp294
F1
s(S'PRP$'
p295
g17
tp296
F7
s(g57
g9
tp297
F1
s(Vrecluse
g25
tp298
F1
s(Vall
g142
tp299
F2
s(S','
g17
tp300
F1
s(Vno
g142
tp301
F4
s(g140
g160
tp302
F1
s(g20
g75
tp303
F1
s(VNation
g25
tp304
F1
s(Vaddress
g4
tp305
F1
s(Vdead
g17
tp306
F1
s(g235
S'IN'
p307
tp308
F1
s(VPerfection
g12
tp309
F1
s(g25
g307
tp310
F25
s(g25
S','
tp311
F8
s(Vthread-bare
g17
tp312
F1
s(g11
g140
tp313
F3
s(VAs
g28
tp314
F3
s(Vconversible
g17
tp315
F4
s(VMan
g25
tp316
F2
s(Va
g165
tp317
F21
s(Vpay
g4
tp318
F1
s(Vworthy
g17
tp319
F1
s(Vaffected
g79
tp320
F1
s(g39
g129
tp321
F1
s(Vmost
g235
tp322
F2
s(g11
g79
tp323
F2
s(S':'
S'CC'
p324
tp325
F13
s(g75
g71
tp326
F6
s(g100
g25
tp327
F1
s(Vterrify
g17
tp328
F1
s(VHands
g55
tp329
F1
s(Vwou
g55
tp330
F1
s(VPart
g12
tp331
F1
s(VWrack
g4
tp332
F1
s(g4
g25
tp333
F1
s(Vstubborn
g17
tp334
F1
s(Vextends
g55
tp335
F1
s(g47
g165
tp336
F3
s(g12
g252
tp337
F3
s(VReflections
g36
tp338
F1
s(Vhim
S'PRP'
p339
tp340
F1
s(Vis
g129
tp341
F13
s(g193
g79
tp342
F1
s(VSex
g25
tp343
F1
s(VRacine
g12
tp344
F2
s(V't
g12
tp345
F1
s(Vlet
g4
tp346
F1
s(V't
g39
tp347
F1
s(Vlearned
g79
tp348
F2
s(Vsuch
g17
tp349
F5
s(g4
S','
tp350
F1
s(g290
g79
tp351
F1
s(Vunintelligible
g17
tp352
F1
s(S'PRP'
p353
g4
tp354
F5
s(Vthem
S'PRP'
p355
tp356
F11
s(Vat
S'IN'
p357
tp358
F3
s(VLeisure
g25
tp359
F1
s(VDiscourse
g12
tp360
F1
s(Vwithout
g51
tp361
F5
s(Vwell
g31
tp362
F4
s(S'DT'
p363
g55
tp364
F2
s(VAge
g12
tp365
F2
s(VEven
g31
tp366
F1
s(VStun
g12
tp367
F1
s(Vme
S'PRP'
p368
tp369
F1
s(S'JJ'
p370
S','
tp371
F7
s(VHearts
g12
tp372
F1
s(g129
g31
tp373
F3
s(VSuperiority
g12
tp374
F1
s(g22
g120
tp375
F2
s(Vbeen
g290
tp376
F2
s(g120
g47
tp377
F1
s(VDominions
g12
tp378
F1
s(g12
S':'
tp379
F7
s(VEntertainment
g12
tp380
F2
s(g17
g25
tp381
F20
s(VCharacters
g36
tp382
F1
s(Vunprofitable
g17
tp383
F1
s(g185
S')'
tp384
F1
s(VLet
g4
tp385
F2
s(g165
g31
tp386
F3
s(Vcontinued
g17
tp387
F1
s(g148
g17
tp388
F7
s(Vcould
S'MD'
p389
tp390
F1
s(g307
S':'
tp391
F1
s(VSense
g12
tp392
F2
s(g226
g140
tp393
F4
s(Vbrings
g55
tp394
F1
s(g148
g165
tp395
F13
s(Vsevere
g17
tp396
F1
s(g85
S'NN'
p397
tp398
F1
s(Vconceal
g4
tp399
F1
s(VWILL
g12
tp400
F1
s(g142
g11
tp401
F1
s(VSides
g12
tp402
F1
s(VWriting
g12
tp403
F1
s(Vworn
g79
tp404
F1
s(Vsince
S'IN'
p405
tp406
F1
s(VGallantry
g12
tp407
F3
s(Vour
g295
tp408
F5
s(VMale
g12
tp409
F1
s(Vsufficient
g17
tp410
F1
s(Vbetter
g100
tp411
F1
s(Vone
g221
tp412
F1
s(VLeague
g12
tp413
F2
s(S'RB'
p414
g57
tp415
F1
s(g20
g129
tp416
F3
s(VThought
g12
tp417
F2
s(VAllusion
g25
tp418
F1
s(Vindeed
S'RB'
p419
tp420
F2
s(g4
g355
tp421
F8
s(Vnor
S'CC'
p422
tp423
F2
s(VDifficulty
g12
tp424
F1
s(S','
g85
tp425
F4
s(g20
g47
tp426
F2
s(g28
S'PRP'
p427
tp428
F12
s(Vbetwixt
g47
tp429
F1
s(VPoetry
g12
tp430
F1
s(VTopics
g36
tp431
F2
s(VTheir
g41
tp432
F1
s(VAuthority
g12
tp433
F1
s(V:
S':'
tp434
F6
s(g79
g85
tp435
F1
s(S'PRP'
p436
g140
tp437
F6
s(g25
g12
tp438
F2
s(VCorneille
g12
tp439
F1
s(VCells
g12
tp440
F1
s(g4
S'IN'
p441
tp442
F4
s(g77
g220
tp443
F1
s(VStile
g12
tp444
F1
s(g12
g12
tp445
F5
s(Vapproach
g11
tp446
F1
s(Vpossible
S'JJ'
p447
tp448
F1
s(g79
g115
tp449
F2
s(Vmuch
g17
tp450
F1
s(VPart
g25
tp451
F1
s(Vfit
g25
tp452
F1
s(Vfair
g17
tp453
F2
s(Valways
S'RB'
p454
tp455
F2
s(g8
g12
tp456
F20
s(Vsociable
g17
tp457
F1
s(S'RP'
p458
g339
tp459
F1
s(VPerfections
g12
tp460
F1
s(VHonour
g12
tp461
F1
s(g355
g165
tp462
F2
s(g25
g85
tp463
F4
s(Vcommission
S'NN'
p464
tp465
F1
s(g307
g12
tp466
F50
s(g31
g31
tp467
F6
s(g235
S','
tp468
F1
s(VState
g12
tp469
F1
s(Vimprov
g25
tp470
F1
s(VMind
g25
tp471
F1
s(Vthese
S'DT'
p472
tp473
F3
s(g20
g36
tp474
F1
s(g19
g31
tp475
F1
s(Vhaving
S'VBG'
p476
tp477
F1
s(Vpreserve
g4
tp478
F1
s(Vso
g28
tp479
F1
s(Vaffect
g11
tp480
F1
s(g12
S'VBD'
p481
tp482
F6
s(g17
g71
tp483
F1
s(Vtake
g4
tp484
F1
s(VEssays
g36
tp485
F1
s(g85
g4
tp486
F22
s(Vmy
g72
tp487
F5
s(VDelicacy
g12
tp488
F1
s(g85
g165
tp489
F9
s(Vrepose
g4
tp490
F1
s(Vbe
g148
tp491
F22
s(g6
g85
tp492
F1
s(Vunjust
g31
tp493
F1
s(Vmanufacturing
g25
tp494
F1
s(VThat
g28
tp495
F2
s(S')'
g252
tp496
F1
s(g77
g31
tp497
F1
s(g252
g71
tp498
F5
s(g25
S':'
tp499
F4
s(g71
g36
tp500
F1
s(g363
S','
tp501
F1
s(Vany
S'DT'
p502
tp503
F3
s(Vit
g185
tp504
F8
s(Vhas
S'VBZ'
p505
tp506
F1
s(g142
S'IN'
p507
tp508
F5
s(g85
g238
tp509
F2
s(VPrize
g12
tp510
F1
s(S','
g39
tp511
F1
s(Vimport
g4
tp512
F1
s(g17
g36
tp513
F14
s(VSuch
g17
tp514
F2
s(S':'
g4
tp515
F1
s(g14
g11
tp516
F14
s(VEnemies
g36
tp517
F2
s(S','
g25
tp518
F2
s(VExpression
g12
tp519
F1
s(g165
g25
tp520
F17
s(VDread
g12
tp521
F1
s(Vfarther
g17
tp522
F1
s(Vher
g41
tp523
F2
s(VPassion
g12
tp524
F1
s(Vutterly
g17
tp525
F1
s(g134
g238
tp526
F15
s(Vabandon
g4
tp527
F1
s(S','
g11
tp528
F2
s(Vworn
g4
tp529
F1
s(Voffensive
g17
tp530
F1
s(Vover
g458
tp531
F1
s(g20
g11
tp532
F2
s(VThat
g142
tp533
F1
s(g284
g129
tp534
F5
s(g11
g57
tp535
F7
s(VCompany
g25
tp536
F1
s(VIn
g28
tp537
F2
s(V'd
g221
tp538
F1
s(g100
g36
tp539
F1
s(Vchimerical
g25
tp540
F1
s(VSeries
g12
tp541
F1
s(Vpromote
g4
tp542
F1
s(VSovereign
g12
tp543
F1
s(g47
g17
tp544
F1
s(g12
g115
tp545
F2
s(VDependence
g25
tp546
F1
s(Vwhere
g77
tp547
F3
s(g17
g79
tp548
F2
s(Vshall
S'MD'
p549
tp550
F4
s(g8
g17
tp551
F11
s(g120
S'RB'
p552
tp553
F2
s(Vrequire
g11
tp554
F2
s(Vin
g140
tp555
F21
s(Vcultivated
g79
tp556
F1
s(g552
g11
tp557
F3
s(VTribunal
g12
tp558
F1
s(VDistance
g25
tp559
F1
s(Vamong
S'IN'
p560
tp561
F1
s(Vare
g252
tp562
F7
s(Vshe
g427
tp563
F1
s(Vdepend
g11
tp564
F1
s(g12
S'('
tp565
F1
s(g20
g74
tp566
F2
s(VTrade
S'NNP'
p567
tp568
F1
s(Vtheir
g238
tp569
F12
s(Vobserve
g4
tp570
F1
s(g90
g8
tp571
F1
s(g307
S','
tp572
F2
s(Vperpetually
g31
tp573
F1
s(Vhave
g4
tp574
F2
s(VPossibility
g12
tp575
F1
s(VColleges
g36
tp576
F1
s(VRepublic
g12
tp577
F1
s(g142
g17
tp578
F34
s(g17
S'.'
tp579
F3
s(VReality
g12
tp580
F1
s(Vdull
g17
tp581
F2
s(g355
g31
tp582
F3
s(g55
S'PRP$'
p583
tp584
F2
s(VTaste
g25
tp585
F4
s(Vseem
g11
tp586
F1
s(V.
S'.'
tp587
F27
s(Vbeing
S'VBG'
p588
tp589
F1
s(S','
g31
tp590
F9
s(VFemales
g36
tp591
F1
s(g25
g39
tp592
F2
s(g583
g6
tp593
F1
s(g8
g51
tp594
F4
s(Vrational
g17
tp595
F1
s(VNegligence
g25
tp596
F1
s(g11
g9
tp597
F1
s(g85
g12
tp598
F4
s(VDuties
g36
tp599
F1
s(g4
g100
tp600
F2
s(g185
S','
tp601
F3
s(g28
S'.'
tp602
F1
s(g226
g85
tp603
F3
s(Vfurnish
g17
tp604
F2
s(Vchiefly
g4
tp605
F1
s(g4
g458
tp606
F2
s(g4
g47
tp607
F1
s(VPreparation
g25
tp608
F1
s(VUse
g25
tp609
F1
s(g131
g120
tp610
F1
s(Vthat
g142
tp611
F10
s(VPleasure
g12
tp612
F1
s(Vthere
g31
tp613
F2
s(Vflown
g79
tp614
F1
s(Vnative
g17
tp615
F1
s(Vmoaping
g25
tp616
F1
s(g55
g115
tp617
F1
s(Vother
S'JJ'
p618
tp619
F2
s(g357
g235
tp620
F1
s(VDefect
g12
tp621
F1
s(g129
g370
tp622
F2
s(g235
g17
tp623
F1
s(Vlong
g17
tp624
F1
s(Vinseparable
g17
tp625
F1
s(VEmployment
g12
tp626
F1
s(VObjects
g36
tp627
F1
s(g295
g36
tp628
F6
s(VBooks
g12
tp629
F5
s(g213
S','
tp630
F1
s(g142
g6
tp631
F2
s(VUnderstanding
g12
tp632
F2
s(Vcelebrated
g17
tp633
F1
s(VConfidence
g25
tp634
F1
s(g552
g47
tp635
F2
s(g79
g8
tp636
F2
s(Vpretends
g55
tp637
F1
s(VMortals
g36
tp638
F1
s(Vwhatever
g20
tp639
F2
s(VChat
g12
tp640
F1
s(g221
g307
tp641
F1
s(Vas
g28
tp642
F14
s(g355
S'.'
tp643
F2
s(g115
g57
tp644
F1
s(g57
g36
tp645
F5
s(Vconsulted
g47
tp646
F1
s(g35
g98
tp647
F1
s(Vgreat
S'JJ'
p648
tp649
F7
s(S','
g74
tp650
F8
s(Vtender
g25
tp651
F1
s(S','
g588
tp652
F2
s(Vsearch
g11
tp653
F1
s(g221
g55
tp654
F1
s(VMethod
g12
tp655
F1
s(g8
g6
tp656
F1
s(Vof
g307
tp657
F73
s(VApprobation
g12
tp658
F1
s(Vby
g441
tp659
F6
s(VSubject
g12
tp660
F1
s(Vwent
g264
tp661
F1
s(VReasonings
g36
tp662
F1
s(S'RBS'
p663
g17
tp664
F1
s(VCompass
g12
tp665
F1
s(g17
g6
tp666
F2
s(g79
S','
tp667
F6
s(VDelivery
g12
tp668
F1
s(g8
g235
tp669
F1
s(VBeauty
g12
tp670
F1
s(VCommission
S'NNP'
p671
tp672
F1
s(g148
g31
tp673
F5
s(VFellow-Creatures
g36
tp674
F1
s(Valone
g31
tp675
F2
s(VRecourse
g12
tp676
F1
s(Vthat
g28
tp677
F8
s(VInformation
g12
tp678
F1
s(g307
g35
tp679
F4
s(g100
S','
tp680
F1
s(VVengeance
g25
tp681
F1
s(g6
S','
tp682
F2
s(S','
g129
tp683
F1
s(Vsurround
g47
tp684
F1
s(Vgossipping
g35
tp685
F1
s(Vwithin
S'IN'
p686
tp687
F1
s(S'CC'
p688
g11
tp689
F2
s(Vrender
g4
tp690
F1
s(Vmutually
g31
tp691
F1
s(Vabove
g28
tp692
F1
s(Vdispute
g4
tp693
F1
s(Vpasses
g36
tp694
F1
s(S','
g20
tp695
F8
s(VStates
g36
tp696
F1
s(Vmakes
S'VBZ'
p697
tp698
F1
s(g57
g235
tp699
F2
s(Vevery
g220
tp700
F3
s(Vcou
g47
tp701
F1
s(Vidle
g17
tp702
F1
s(Vpursue
g4
tp703
F1
s(VBashfulness
g12
tp704
F1
s(VRespect
g25
tp705
F1
s(VFavourite
g12
tp706
F1
s(VBelles
g12
tp707
F1
s(g505
g290
tp708
F1
s(VManner
g12
tp709
F3
s(Vcall
g11
tp710
F1
s(g8
g36
tp711
F1
s(g57
g663
tp712
F1
s(VEffect
g12
tp713
F1
s(S','
g120
tp714
F5
s(Vso
g31
tp715
F5
s(VPolitics
g12
tp716
F1
s(Vbecause
g28
tp717
F1
s(g36
g307
tp718
F15
s(Vpresum
g17
tp719
F1
s(VExperience
g12
tp720
F2
s(g458
g19
tp721
F1
s(g12
g295
tp722
F2
s(Vendeavour
g4
tp723
F1
s(Vserious
S'JJ'
p724
tp725
F1
s(Vthey
S'PRP'
p726
tp727
F4
s(Vperverts
g55
tp728
F1
s(Vsound
g17
tp729
F1
s(Vdefensive
g17
tp730
F1
s(VVerdict
g12
tp731
F1
s(VCorrespondence
g25
tp732
F1
s(VNAN
g12
tp733
F1
s(Vmore
g9
tp734
F5
s(Vfor
g134
tp735
F9
s(Vdid
g481
tp736
F1
s(Vsaid
g213
tp737
F2
s(g94
g31
tp738
F3
s(Vconsider
g4
tp739
F1
s(Vpolite
g17
tp740
F2
s(g79
g31
tp741
F1
s(Vly
g25
tp742
F1
s(Vthose
S'DT'
p743
tp744
F2
s(g8
g31
tp745
F2
s(Vsecluded
g47
tp746
F1
s(VLettres
g12
tp747
F1
s(Vdifficult
g255
tp748
F1
s(Vbelongs
g55
tp749
F1
s(VEducation
g12
tp750
F1
s(VPosterity
g12
tp751
F1
s(g11
g436
tp752
F3
s(VCreatures
g36
tp753
F1
s(g235
g36
tp754
F1
s(g17
g107
tp755
F2
s(VKind
g12
tp756
F2
s(g6
g307
tp757
F1
s(VFair
g12
tp758
F3
s(g235
g25
tp759
F1
s(VRules
g12
tp760
F1
s(VConversation
g12
tp761
F8
s(VSovereigns
g12
tp762
F2
s(Vlast
S'JJ'
p763
tp764
F1
s(g476
g12
tp765
F2
s(g39
g79
tp766
F1
s(Vbut
g688
tp767
F5
s(g4
g85
tp768
F1
s(V,
S','
tp769
F118
s(S'.'
g39
tp770
F1
s(VTHE
g142
tp771
F1
s(VLife
g12
tp772
F4
s(g115
g85
tp773
F3
s(g12
g85
tp774
F4
s(Vmention
g11
tp775
F1
s(Vfind
g4
tp776
F1
s(Veasier
g100
tp777
F1
s(g252
g17
tp778
F3
s(V'd
g79
tp779
F1
s(g12
g20
tp780
F3
s(g28
g11
tp781
F1
s(VObservation
g12
tp782
F2
s(V?
S'.'
tp783
F3
s(VAscendant
g12
tp784
F1
s(VObservations
g36
tp785
F1
s(VExercises
g36
tp786
F1
s(Vventure
g397
tp787
F1
s(Vsome
S'DT'
p788
tp789
F1
s(g8
g14
tp790
F1
s(Vreside
g4
tp791
F1
s(Vsame
g293
tp792
F5
s(Vreceives
g55
tp793
F1
s(Vbecome
g11
tp794
F1
s(Vobserve
g11
tp795
F1
s(Vdelighted
g17
tp796
F1
s(Vcomplain
g11
tp797
F1
s(g31
g85
tp798
F4
s(g129
g464
tp799
F1
s(Vkept
g47
tp800
F1
s(Vwho
g120
tp801
F6
s(VMind
g12
tp802
F3
s(g120
g14
tp803
F1
s(Velegant
g17
tp804
F1
s(Vif
S'IN'
p805
tp806
F1
s(g697
g355
tp807
F1
s(S','
g72
tp808
F1
s(g57
g79
tp809
F3
s(g4
S':'
tp810
F1
s(Vdisplays
g55
tp811
F1
s(g17
g100
tp812
F1
s(VSolitude
g12
tp813
F2
s(g20
g12
tp814
F2
s(Vaddress
g11
tp815
F1
s(Vsometimes
g31
tp816
F2
s(VOf
S'IN'
p817
tp818
F1
s(VDuty
g25
tp819
F1
s(VFrom
g28
tp820
F1
s(VBy
S'IN'
p821
tp822
F1
s(Vseverest
g17
tp823
F1
s(g12
g307
tp824
F51
s(Vmost
g663
tp825
F1
s(VMoment
g12
tp826
F1
s(VBalance
g12
tp827
F1
s(Vwas
g47
tp828
F2
s(Vbrought
g79
tp829
F1
s(Valtogether
g31
tp830
F1
s(Vhis
g583
tp831
F3
s(VRidicule
g12
tp832
F2
s(Vshou
g11
tp833
F1
s(g244
g36
tp834
F1
s(VReaders
g6
tp835
F1
s(Vinto
g168
tp836
F3
s(g36
S':'
tp837
F1
s(V)
S')'
tp838
F1
s(VDisposition
g12
tp839
F1
s(VEnd
g25
tp840
F1
s(VStudy
g12
tp841
F2
s(VAffairs
g6
tp842
F1
s(g120
g12
tp843
F1
s(VPannic
g12
tp844
F1
s(Vout
g458
tp845
F1
s(VAffections
g36
tp846
F1
s(Vfinding
g35
tp847
F1
s(Vmay
g111
tp848
F3
s(Vexpected
g79
tp849
F2
s(VMust
g12
tp850
F2
s(Vstill
g414
tp851
F3
s(VLadies
g36
tp852
F2
s(Vwhich
g20
tp853
F7
s(Vneed
g11
tp854
F1
s(Vus
g353
tp855
F1
s(VWorld
g12
tp856
F5
s(g307
g36
tp857
F1
s(Vvery
g31
tp858
F2
s(VTemper
g12
tp859
F1
s(g55
S','
tp860
F4
s(VComplexion
g12
tp861
F1
s(g71
g688
tp862
F1
s(Vlost
g79
tp863
F1
s(g79
g252
tp864
F1
s(Valone
g17
tp865
F1
s(Vresign
g4
tp866
F1
s(VMeasure
g25
tp867
F1
s(Vgive
g4
tp868
F1
s(Vhop
g17
tp869
F1
s(Vendeavour
g11
tp870
F1
s(Von
g507
tp871
F5
s(Vhad
g47
tp872
F1
s(VShare
g25
tp873
F1
s(Vam
S'VBP'
p874
tp875
F1
s(g221
g115
tp876
F1
s(VEmpire
g12
tp877
F1
s(Vleast
g235
tp878
F1
s(g12
g31
tp879
F4
s(Vborrowing
g35
tp880
F1
s(S','
g688
tp881
F25
s(VOpinion
g12
tp882
F1
s(g11
g221
tp883
F1
s(VAnd
g324
tp884
F3
s(VFacility
g12
tp885
F1
s(Vvain
g25
tp886
F1
s(Vconcerning
g35
tp887
F1
s(VCommodities
g12
tp888
F1
s(VDegree
g12
tp889
F1
s(g648
g165
tp890
F3
s(g115
g8
tp891
F1
s(g17
g8
tp892
F1
s(g77
g284
tp893
F1
s(g31
g12
tp894
F2
s(Vlevell
g17
tp895
F1
s(Vcommonly
g31
tp896
F1
s(VRespects
g6
tp897
F1
s(V;
S':'
tp898
F11
s(g419
S','
tp899
F3
s(Vamorous
g17
tp900
F1
s(g355
S':'
tp901
F1
s(g588
g79
tp902
F1
s(VMankind
g12
tp903
F3
s(VDevotion
g12
tp904
F2
s(V'T
g25
tp905
F1
s(g4
g148
tp906
F1
s(g8
g85
tp907
F4
s(g17
g12
tp908
F37
s(Vthis
g363
tp909
F11
s(Vunaccustom
g17
tp910
F1
s(g238
g235
tp911
F1
s(g688
g148
tp912
F4
s(VAdvantage
g25
tp913
F1
s(g8
g75
tp914
F5
s(g51
g17
tp915
F17
s(Vimmers
g36
tp916
F1
s(VSociety
g12
tp917
F1
s(Vwhat
g120
tp918
F3
s(Vstands
g55
tp919
F1
s(g25
g129
tp920
F2
s(g47
g355
tp921
F2
s(Vgentle
g17
tp922
F1
s(VVerdict
g25
tp923
F1
s(g12
g148
tp924
F3
s(VAmbassador
g12
tp925
F2
s(g120
g252
tp926
F4
s(VKnowledge
g12
tp927
F2
s(VSubjects
g36
tp928
F1
s(g25
g115
tp929
F3
s(g47
g115
tp930
F1
s(VCommentators
g6
tp931
F1
s(Vwhole
g17
tp932
F1
s(Vto
g85
tp933
F39
s(VThoughts
g36
tp934
F1
s(VLives
g36
tp935
F1
s(g4
g583
tp936
F2
s(VJudgment
g25
tp937
F2
s(VPoet
g12
tp938
F1
s(g6
S'.'
tp939
F1
s(Vthemselves
g436
tp940
F1
s(VLife
g25
tp941
F1
s(g179
g72
tp942
F1
s(Vbegun
g127
tp943
F1
s(Vhigh
g17
tp944
F1
s(VPleasure
g25
tp945
F2
s(Vnever
g552
tp946
F3
s(Vhave
g11
tp947
F6
s(VConclusions
g36
tp948
F1
s(Vconstant
g17
tp949
F1
s(Vproper
g17
tp950
F1
s(g427
g47
tp951
F2
s(VJudges
g36
tp952
F4
s(Vobvious
g17
tp953
F2
s(VShyness
g12
tp954
F1
s(VMen
g12
tp955
F7
s(Vtotally
g31
tp956
F1
s(V'
g39
tp957
F3
s(Vmutual
S'JJ'
p958
tp959
F1
s(g100
g8
tp960
F2
s(Vsovereign
g17
tp961
F1
s(Vnot
g71
tp962
F10
s(VManners
g12
tp963
F1
s(V'twou
g221
tp964
F1
s(Vknow
g11
tp965
F2
s(V'd
g12
tp966
F3
s(Vonly
g31
tp967
F1
s(VThing
g25
tp968
F1
s(g25
g8
tp969
F4
s(Vhappily
g31
tp970
F1
s(Vparticular
g17
tp971
F3
s(Vfound
g79
tp972
F2
s(Ventertain
g4
tp973
F1
s(g12
S','
tp974
F60
s(g25
g284
tp975
F2
s(g12
g129
tp976
F7
s(Vjustness
g25
tp977
F1
s(VRemarks
g12
tp978
F1
s(Vas
g31
tp979
F5
s(g8
S','
tp980
F2
s(VTime
g12
tp981
F1
s(Vassur
g17
tp982
F1
s(Vhuman
g17
tp983
F1
s(Vmyself
g185
tp984
F3
s(g12
g17
tp985
F1
s(Vdesire
g4
tp986
F1
s(Vdelicate
g17
tp987
F1
s(Veach
S'DT'
p988
tp989
F1
s(VHeads
g12
tp990
F1
s(VBlemishes
g12
tp991
F1
s(Vable
g370
tp992
F1
s(Vmust
S'MD'
p993
tp994
F2
s.