ccollections
defaultdict
p1
(c__builtin__
float
p2
tRp3
(S'VBP'
p4
S'NNP'
p5
tp6
F1
s(Vlow
S'JJ'
p7
tp8
F1
s(Vpoet
S'NN'
p9
tp10
F1
s(Vwe
S'PRP'
p11
tp12
F1
s(Vfeather
g7
tp13
F1
s(S'WP'
p14
S'IN'
p15
tp16
F1
s(S'IN'
p17
S'WDT'
p18
tp19
F1
s(Vdiversities
S'NNS'
p20
tp21
F1
s(Vdo
S'VBP'
p22
tp23
F1
s(Vjust
S'RB'
p24
tp25
F1
s(S'VB'
p26
S'.'
tp27
F3
s(Vsyllable
g9
tp28
F1
s(S'IN'
p29
g9
tp30
F29
s(Vdeep
g9
tp31
F1
s(g14
g9
tp32
F2
s(S','
g18
tp33
F1
s(Vcritick
g9
tp34
F1
s(Vman
S'NN'
p35
tp36
F1
s(S'VBG'
p37
g20
tp38
F1
s(VA
S'DT'
p39
tp40
F2
s(g5
S':'
tp41
F3
s(Vduration
g9
tp42
F1
s(Vhorrendum
g9
tp43
F1
s(Vmade
S'VBN'
p44
tp45
F1
s(g20
S'.'
tp46
F4
s(g26
S'PRP'
p47
tp48
F1
s(Vhewing
g37
tp49
F1
s(Vsmil
g9
tp50
F1
s(Vlike
S'IN'
p51
tp52
F3
s(Vresemble
g26
tp53
F1
s(VSkirted
S'VBD'
p54
tp55
F1
s(S','
g51
tp56
F15
s(Vwide
S'JJ'
p57
tp58
F1
s(g9
g9
tp59
F17
s(g20
g14
tp60
F1
s(Vwore
g54
tp61
F2
s(S'RB'
p62
S'.'
tp63
F1
s(Vbuzz
g26
tp64
F1
s(Vdescribed
g44
tp65
F2
s(Vgiven
S'VBN'
p66
tp67
F1
s(S','
S'VBD'
p68
tp69
F2
s(Vmountain
g9
tp70
F1
s(VEach
S'DT'
p71
tp72
F1
s(Vsix
S'CD'
p73
tp74
F1
s(VTo
S'TO'
p75
tp76
F1
s(Vthat
g18
tp77
F2
s(Vunweildy
g7
tp78
F1
s(Vvolubility
g9
tp79
F1
s(VEnglish
g5
tp80
F1
s(Vtherefore
S'RB'
p81
tp82
F3
s(g47
S'MD'
p83
tp84
F2
s(Vvariety
g9
tp85
F1
s(Vcelebrate
g26
tp86
F1
s(Vrepresentation
g9
tp87
F1
s(Vverses
g20
tp88
F1
s(Vsound
g9
tp89
F8
s(Vunworthy
g51
tp90
F1
s(Vpair
g9
tp91
F2
s(Vquick
g7
tp92
F1
s(Vcasual
g7
tp93
F1
s(S'PRP$'
p94
g37
tp95
F1
s(S':'
g7
tp96
F1
s(g81
S'VBZ'
p97
tp98
F3
s(Vplayer
S'NN'
p99
tp100
F1
s(Vpoets
g20
tp101
F1
s(g54
S'NN'
p102
tp103
F2
s(g22
S':'
tp104
F1
s(Vfrom
S'IN'
p105
tp106
F3
s(Vhigher
S'JJR'
p107
tp108
F1
s(Vmentioned
g44
tp109
F1
s(Vark
g9
tp110
F1
s(Vhear
g22
tp111
F1
s(S':'
g5
tp112
F4
s(VHe
S'PRP'
p113
tp114
F1
s(Vsymmetrical
g7
tp115
F1
s(VThus
g81
tp116
F2
s(g17
g107
tp117
F1
s(Vresemblance
g9
tp118
F2
s(V'd
g9
tp119
F1
s(Vimages
g20
tp120
F2
s(Vought
g54
tp121
F1
s(Vwith
S'IN'
p122
tp123
F8
s(Vpassing
g9
tp124
F1
s(Vcurls
g9
tp125
F1
s(Vhimself
S'PRP'
p126
tp127
F1
s(g97
S'DT'
p128
tp129
F3
s(Vhard
g9
tp130
F1
s(Vlabour
g7
tp131
F1
s(Vcessation
g9
tp132
F1
s(VSky-tinctur
g5
tp133
F1
s(g75
S'PRP'
p134
tp135
F1
s(Vexhibit
g26
tp136
F1
s(Vheavy
g7
tp137
F1
s(Vcolour
g9
tp138
F1
s(Vcomparison
g7
tp139
F1
s(S'VBZ'
p140
S'TO'
p141
tp142
F2
s(Vor
S'CC'
p143
tp144
F5
s(g9
S'WRB'
p145
tp146
F2
s(Vconformity
g9
tp147
F1
s(Vthrough
g51
tp148
F2
s(Vreach
g26
tp149
F1
s(Vchaos
g9
tp150
F1
s(Vcertainly
S'RB'
p151
tp152
F1
s(Van
g39
tp153
F5
s(Vspondaick
g9
tp154
F1
s(Vcame
g68
tp155
F1
s(Vo'er
g51
tp156
F1
s(g18
g81
tp157
F1
s(g22
g9
tp158
F2
s(g83
g17
tp159
F4
s(Vimpressed
g44
tp160
F1
s(g51
g81
tp161
F2
s(g22
g141
tp162
F1
s(Vhour
S'NN'
p163
tp164
F1
s(Videa
S'NN'
p165
tp166
F2
s(Vmodulations
g20
tp167
F1
s(S'VB'
p168
g44
tp169
F8
s(g5
g22
tp170
F2
s(Vjarr
g26
tp171
F1
s(g9
g128
tp172
F4
s(S'JJS'
p173
g54
tp174
F1
s(Vnow
S'RB'
p175
tp176
F2
s(S'CC'
p177
g97
tp178
F1
s(g83
g134
tp179
F1
s(S'NNS'
p180
g5
tp181
F1
s(S'RB'
p182
g168
tp183
F7
s(S'RB'
p184
g7
tp185
F9
s(Vtruth
g9
tp186
F1
s(Vstripling
g9
tp187
F1
s(g39
S'PRP$'
p188
tp189
F1
s(g7
g4
tp190
F1
s(g9
g18
tp191
F2
s(Vgrowl
g26
tp192
F1
s(S'WRB'
p193
g128
tp194
F1
s(Vand
S'CC'
p195
tp196
F45
s(S'CC'
p197
S'DT'
p198
tp199
F8
s(Vflight
S'NN'
p200
tp201
F1
s(S','
S'MD'
p202
tp203
F2
s(g44
g51
tp204
F16
s(S','
g26
tp205
F1
s(S'RB'
p206
g44
tp207
F7
s(Vcan
g202
tp208
F7
s(Vplumes
g20
tp209
F1
s(S','
g128
tp210
F3
s(VBut
S'CC'
p211
tp212
F1
s(Vblow
g9
tp213
F1
s(Vpassage
g9
tp214
F1
s(Vcorrespondent
g9
tp215
F1
s(Vcelebrated
g44
tp216
F1
s(g81
S'PRP'
p217
tp218
F2
s(g83
g168
tp219
F11
s(Vkind
S'NN'
p220
tp221
F2
s(Vfailure
g9
tp222
F1
s(g37
g9
tp223
F2
s(S'DT'
p224
g198
tp225
F1
s(Vnature
g9
tp226
F1
s(Vearth
g9
tp227
F2
s(Vbetween
S'IN'
p228
tp229
F2
s(Vclad
g97
tp230
F1
s(Vwhen
g145
tp231
F3
s(Vmiddle
g7
tp232
F1
s(g29
g128
tp233
F57
s(Vmail
g26
tp234
F1
s(g7
g83
tp235
F3
s(Veminent
g7
tp236
F1
s(Vtow'rds
g20
tp237
F1
s(Vimpetuous
g7
tp238
F1
s(Videas
g20
tp239
F1
s(S':'
g73
tp240
F1
s(g83
S':'
tp241
F2
s(Vseems
g140
tp242
F1
s(Vattributed
g44
tp243
F1
s(S'RB'
p244
g37
tp245
F1
s(Vreverence
g9
tp246
F1
s(Vsuccession
g9
tp247
F2
s(g54
S'IN'
p248
tp249
F4
s(Vlooked
g54
tp250
F1
s(Vformed
g44
tp251
F1
s(VVirgil
g5
tp252
F1
s(Vwarble
g7
tp253
F1
s(Vmus.
g9
tp254
F1
s(V-
S':'
tp255
F5
s(Vafter
g15
tp256
F1
s(Vthan
S'IN'
p257
tp258
F1
s(S'NNS'
p259
g83
tp260
F1
s(g195
g54
tp261
F2
s(Vthird
g7
tp262
F1
s(Voceano
g9
tp263
F1
s(V'd
g83
tp264
F13
s(Vhinges
g20
tp265
F1
s(VYouth
g5
tp266
F1
s(Vcadence
g9
tp267
F1
s(S':'
g51
tp268
F9
s(S':'
g128
tp269
F3
s(g94
g9
tp270
F10
s(Vprocumbit
g22
tp271
F1
s(VSo
g5
tp272
F1
s(Vtwo
S'CD'
p273
tp274
F1
s(Vimplored
g54
tp275
F1
s(VParturiunt
g9
tp276
F1
s(Venormous
S'JJ'
p277
tp278
F1
s(g17
g273
tp279
F1
s(Voffended
g44
tp280
F1
s(g20
g4
tp281
F7
s(g20
S'WP$'
p282
tp283
F1
s(g5
g9
tp284
F3
s(g7
g17
tp285
F5
s(Vforce
g9
tp286
F1
s(g37
g195
tp287
F1
s(Vnearly
g244
tp288
F2
s(S'EX'
p289
S'MD'
p290
tp291
F1
s(Vcontribute
g26
tp292
F1
s(Vsyllables
g20
tp293
F1
s(Vdesigns
g97
tp294
F1
s(V's
S'POS'
p295
tp296
F2
s(Vblind
g9
tp297
F1
s(Vecho
g9
tp298
F1
s(Vtrembled
g54
tp299
F1
s(Vcoelum
g9
tp300
F1
s(g54
g141
tp301
F1
s(Vfierce
g7
tp302
F1
s(Vmusician
g9
tp303
F1
s(Vridiculus
g9
tp304
F1
s(S','
g5
tp305
F4
s(S'RB'
p306
g29
tp307
F5
s(Vdoubted
g44
tp308
F1
s(g22
S"''"
p309
tp310
F1
s(Vtune
g26
tp311
F1
s(g26
S','
tp312
F6
s(g20
g195
tp313
F3
s(Vloins
g20
tp314
F1
s(Vstruggling
g37
tp315
F1
s(Vvessel
g9
tp316
F1
s(g20
S','
tp317
F13
s(g128
g9
tp318
F74
s(g9
S'.'
tp319
F21
s(g44
g7
tp320
F1
s(g217
g140
tp321
F10
s(Vfled
g54
tp322
F1
s(Vwaist
g9
tp323
F1
s(g44
S'DT'
p324
tp325
F5
s(S'IN'
p326
g289
tp327
F1
s(Vcheek
g7
tp328
F1
s(Vgait
g9
tp329
F1
s(S'PRP$'
p330
g7
tp331
F1
s(Vdimensions
g20
tp332
F1
s(Vstarry
g9
tp333
F1
s(Vall
g39
tp334
F2
s(S','
g7
tp335
F4
s(Vstrongly
g81
tp336
F1
s(Veither
g39
tp337
F2
s(Vno
g39
tp338
F3
s(Vneglected
g44
tp339
F1
s(S'IN'
p340
S'PDT'
p341
tp342
F2
s(VHell
g5
tp343
F1
s(Vbroad
S'JJ'
p344
tp345
F1
s(Vresounded
g54
tp346
F1
s(Vunusual
S'JJ'
p347
tp348
F1
s(g9
g29
tp349
F52
s(g9
S','
tp350
F40
s(g22
S'IN'
p351
tp352
F2
s(Vmontes
g20
tp353
F1
s(Vobservations
g20
tp354
F1
s(Vexhibits
g97
tp355
F1
s(Vshade
g26
tp356
F1
s(Va
g198
tp357
F21
s(VSome
S'DT'
p358
tp359
F1
s(VInsulting
g5
tp360
F1
s(Vshew
g54
tp361
F1
s(Vjarring
g37
tp362
F1
s(Vhave
g26
tp363
F1
s(g4
g44
tp364
F5
s(S':'
S'CC'
p365
tp366
F10
s(V&
g197
tp367
F1
s(Vexpress
g22
tp368
F1
s(Venobled
g44
tp369
F1
s(Vexanimisque
g9
tp370
F1
s(Vhowever
S'RB'
p371
tp372
F1
s(g26
g9
tp373
F3
s(g54
g39
tp374
F9
s(V'd
g54
tp375
F1
s(Vmany
S'JJ'
p376
tp377
F2
s(Vis
S'VBZ'
p378
tp379
F10
s(VMilton
g5
tp380
F4
s(Vdiscourse
g9
tp381
F1
s(Vdeath
S'NN'
p382
tp383
F2
s(Vbreadth
g9
tp384
F1
s(Vsuch
g7
tp385
F3
s(g20
g9
tp386
F1
s(Vgates
g20
tp387
F1
s(g83
S'PRP$'
p388
tp389
F1
s(S'VBN'
p390
g44
tp391
F1
s(g371
S','
tp392
F3
s(Vbeautiful
g7
tp393
F1
s(Vleviathans
g20
tp394
F1
s(Vtermination
g9
tp395
F1
s(Vat
S'IN'
p396
tp397
F4
s(Vextraordinary
S'JJ'
p398
tp399
F1
s(g81
g9
tp400
F2
s(Vproper
g7
tp401
F1
s(Vperceptible
g7
tp402
F1
s(Vzone
S'CD'
p403
tp404
F1
s(Vwell
g81
tp405
F1
s(g224
g378
tp406
F1
s(Vye
g26
tp407
F1
s(VSternitur
g9
tp408
F1
s(S'RP'
p409
g382
tp410
F1
s(g7
S','
tp411
F7
s(g220
g26
tp412
F1
s(g81
g5
tp413
F2
s(VWe
S'PRP'
p414
tp415
F3
s(g351
g14
tp416
F2
s(Vbeen
g390
tp417
F1
s(g14
g54
tp418
F1
s(VShadow
g5
tp419
F1
s(g7
S':'
tp420
F2
s(VWhen
g193
tp421
F1
s(g398
S'NN'
p422
tp423
F42
s(Vseraph
g9
tp424
F1
s(Vline
S'NN'
p425
tp426
F4
s(Vhere
S'RB'
p427
tp428
F1
s(Vsunk
g22
tp429
F1
s(Vfelt
g54
tp430
F1
s(Vfly
g22
tp431
F1
s(g39
g182
tp432
F1
s(Vdipp
g7
tp433
F1
s(g26
g7
tp434
F1
s(Vmeans
g20
tp435
F1
s(S'IN'
p436
S':'
tp437
F1
s(g26
g39
tp438
F9
s(g295
g9
tp439
F2
s(Vclangor
g9
tp440
F1
s(g141
S'NN'
p441
tp442
F2
s(Vchimerical
g7
tp443
F1
s(Vwill
g83
tp444
F3
s(S'VBZ'
p445
g66
tp446
F6
s(Vsince
S'IN'
p447
tp448
F2
s(Vnox.
g9
tp449
F1
s(Vwriter
g9
tp450
F1
s(Vbirth
g9
tp451
F1
s(Vour
g330
tp452
F3
s(Vfortune
g26
tp453
F1
s(Vox
g9
tp454
F1
s(g9
g4
tp455
F2
s(g217
g122
tp456
F2
s(g18
g97
tp457
F1
s(Vcubit
g9
tp458
F1
s(Vancient
g7
tp459
F1
s(Vindeed
S'RB'
p460
tp461
F1
s(VWith
g351
tp462
F4
s(g9
g7
tp463
F3
s(Vstop
g9
tp464
F1
s(S','
g141
tp465
F3
s(Vboth
g197
tp466
F1
s(g447
g217
tp467
F8
s(Vnascetur
g7
tp468
F1
s(Vharmony
g9
tp469
F4
s(g134
S','
tp470
F1
s(Vstole
g22
tp471
F1
s(Vdeep
g7
tp472
F1
s(Venquiry
g9
tp473
F1
s(Vbeauties
g20
tp474
F1
s(V'd
g20
tp475
F1
s(V:
S':'
tp476
F10
s(g22
S'.'
tp477
F1
s(Vrepresentative
g7
tp478
F1
s(Vthen
g62
tp479
F1
s(g244
g128
tp480
F7
s(g9
g5
tp481
F2
s(Vear
g9
tp482
F1
s(Vfancy
g9
tp483
F1
s(g26
g122
tp484
F3
s(g44
g141
tp485
F1
s(Vthere
g289
tp486
F2
s(Vfault
g9
tp487
F1
s(Vthese
g324
tp488
F6
s(VEvery
g39
tp489
F1
s(Vdiscovery
g9
tp490
F1
s(Vhas
g445
tp491
F11
s(Valways
g206
tp492
F1
s(Vmind
g9
tp493
F1
s(g195
g5
tp494
F2
s(Vdactylick
g9
tp495
F1
s(Vimitation
g9
tp496
F1
s(VThen
S'RB'
p497
tp498
F1
s(Vfoe
g9
tp499
F1
s(g422
g141
tp500
F6
s(Vangelick
g7
tp501
F1
s(Vfix
g26
tp502
F1
s(Vround
g9
tp503
F1
s(Vreluctant
g9
tp504
F1
s(g4
g20
tp505
F1
s(g51
g5
tp506
F9
s(g182
g184
tp507
F8
s(VDescent
g9
tp508
F1
s(Vspace
S'NN'
p509
tp510
F1
s(g54
g44
tp511
F1
s(Vapparently
S'RB'
p512
tp513
F1
s(Vfeet
g180
tp514
F1
s(Vaddressed
g54
tp515
F1
s(VLatin
g5
tp516
F1
s(Vsingly
g81
tp517
F1
s(Vrepresent
g9
tp518
F1
s(Vnoises
g20
tp519
F1
s(g18
g7
tp520
F1
s(Vnight
S'NN'
p521
tp522
F1
s(Vassigned
g44
tp523
F1
s(g5
g54
tp524
F2
s(g7
g81
tp525
F2
s(Vretarding
g37
tp526
F1
s(Vworld
S'NN'
p527
tp528
F1
s(Vcherub
g9
tp529
F1
s(g51
g29
tp530
F2
s(g141
g26
tp531
F17
s(S'MD'
p532
S'NN'
p533
tp534
F1
s(g9
g44
tp535
F1
s(g37
g26
tp536
F1
s(g141
g128
tp537
F6
s(Vcolour
g7
tp538
F1
s(S'NNS'
p539
g445
tp540
F1
s(g54
g94
tp541
F1
s(Vnothing
g102
tp542
F3
s(Vbe
g168
tp543
F11
s(g259
g141
tp544
F1
s(Vstretch
g26
tp545
F1
s(Vev'ry
g26
tp546
F1
s(Vacting
g37
tp547
F1
s(g141
g18
tp548
F1
s(Vmouse
g9
tp549
F1
s(Vcompensated
g44
tp550
F1
s(Vlay
g9
tp551
F1
s(Vreason
S'NN'
p552
tp553
F1
s(g7
g143
tp554
F3
s(g4
g244
tp555
F7
s(Vhung
g9
tp556
F1
s(g9
S':'
tp557
F22
s(g97
g134
tp558
F1
s(VTripping
g37
tp559
F1
s(Vencumbering
g37
tp560
F1
s(Vit
g47
tp561
F5
s(g195
g37
tp562
F2
s(Vruit
g9
tp563
F1
s(Vdifficulty
g9
tp564
F3
s(Vsudden
g7
tp565
F2
s(g358
g29
tp566
F6
s(Vfully
S'RB'
p567
tp568
F1
s(Vaction
S'NN'
p569
tp570
F2
s(g37
g141
tp571
F1
s(Vconformities
g20
tp572
F1
s(g83
g409
tp573
F1
s(Veminently
g81
tp574
F1
s(VNot
g306
tp575
F1
s(VSuch
g7
tp576
F1
s(S'PRP'
p577
g4
tp578
F9
s(g9
g37
tp579
F2
s(Vhe
g217
tp580
F15
s(Vsignify
g22
tp581
F1
s(Vsome
S'DT'
p582
tp583
F1
s(Vthe
g128
tp584
F72
s(g295
g20
tp585
F1
s(g29
g94
tp586
F8
s(Vwhales
g20
tp587
F1
s(Vface
g9
tp588
F1
s(g51
g532
tp589
F1
s(Vtime
S'NN'
p590
tp591
F3
s(S':'
g20
tp592
F1
s(VDionysius
g5
tp593
F1
s(Vpoetick
g9
tp594
F1
s(Vdiscover
g22
tp595
F1
s(g5
g26
tp596
F1
s(Vancients
g20
tp597
F1
s(VI
S'PRP'
p598
tp599
F2
s(g22
g128
tp600
F3
s(VIn
g51
tp601
F2
s(Vlineaments
g20
tp602
F1
s(V'd
g403
tp603
F1
s(g107
S'NNS'
p604
tp605
F1
s(Vshook
g26
tp606
F1
s(Vappears
S'VBZ'
p607
tp608
F1
s(Vtoil
g9
tp609
F1
s(Vversification
g9
tp610
F1
s(Vstrong
S'JJ'
p611
tp612
F1
s(g5
g83
tp613
F4
s(Vwhat
g14
tp614
F2
s(g20
g217
tp615
F2
s(Vwings
g20
tp616
F2
s(g403
S','
tp617
F1
s(Vslow
g7
tp618
F3
s(Vundeniably
g81
tp619
F1
s(g195
g7
tp620
F8
s(Vnumbers
g259
tp621
F3
s(Vmaypole
g9
tp622
F1
s(Vall
g341
tp623
F2
s(Vin
g17
tp624
F18
s(Vtold
g44
tp625
F1
s(Vhumi
g7
tp626
F1
s(Vare
g4
tp627
F11
s(Velapsa
g22
tp628
F1
s(Vblind
g7
tp629
F1
s(VOpen
g5
tp630
F1
s(Vheel
g26
tp631
F1
s(Vmurmurs
g9
tp632
F1
s(g18
g577
tp633
F4
s(S':'
g378
tp634
F1
s(Vher
g188
tp635
F1
s(Vtheir
S'PRP$'
p636
tp637
F2
s(Vcaelestial
g26
tp638
F1
s(Vmantling
g37
tp639
F1
s(V--
S':'
tp640
F5
s(g97
g29
tp641
F2
s(Vplay
g9
tp642
F1
s(g202
g182
tp643
F6
s(Vcreaking
g9
tp644
F1
s(Vebb
g9
tp645
F1
s(g39
g398
tp646
F30
s(S'JJ'
p647
S'.'
tp648
F5
s(g26
g83
tp649
F1
s(g20
g18
tp650
F3
s(Vpause
g9
tp651
F1
s(Vlines
g539
tp652
F4
s(Vseem
g22
tp653
F1
s(V.
S'.'
tp654
F33
s(S','
g306
tp655
F6
s(VVertitur
g5
tp656
F1
s(g143
g51
tp657
F6
s(VEt
g5
tp658
F1
s(Veffected
g44
tp659
F1
s(Vgrate
g22
tp660
F1
s(VFrom
g26
tp661
F1
s(Vwriters
g20
tp662
F1
s(Vperhaps
S'RB'
p663
tp664
F1
s(Vtrumpet
g9
tp665
F1
s(g295
g7
tp666
F1
s(Vdescribed
g54
tp667
F1
s(S','
g44
tp668
F1
s(Vthat
g39
tp669
F5
s(Vthere
g81
tp670
F1
s(Vpursu
g9
tp671
F1
s(g9
g244
tp672
F3
s(Vsridens
g20
tp673
F1
s(g97
g83
tp674
F1
s(Vother
S'JJ'
p675
tp676
F2
s(g396
g173
tp677
F1
s(Vimpression
g9
tp678
F1
s(Vcoronet
g9
tp679
F1
s(g97
g7
tp680
F4
s(Vcombined
g44
tp681
F1
s(Vhappiness
g9
tp682
F1
s(Vback
g81
tp683
F1
s(g388
g20
tp684
F7
s(g54
S','
tp685
F2
s(Vintended
g44
tp686
F1
s(Vunder
S'IN'
p687
tp688
F1
s(VWallowing
g5
tp689
F1
s(S','
g20
tp690
F1
s(g81
g54
tp691
F4
s(Vtells
g97
tp692
F1
s(Vmeasure
g9
tp693
F2
s(Vstopp
g44
tp694
F1
s(Vas
g51
tp695
F6
s(Vhair
g9
tp696
F1
s(VSo
g51
tp697
F1
s(Vgold
g9
tp698
F2
s(Vrather
S'RB'
p699
tp700
F1
s(VMaia
g5
tp701
F1
s(g324
g20
tp702
F19
s(g68
g37
tp703
F1
s(g37
g128
tp704
F1
s(g37
g51
tp705
F3
s(Vgreat
S'JJ'
p706
tp707
F1
s(Vpassages
g20
tp708
F1
s(Vmeaning
g9
tp709
F1
s(Vdelights
g97
tp710
F1
s(VMov
g5
tp711
F1
s(Vattainable
g7
tp712
F1
s(Vday
g441
tp713
F1
s(Vpetty
g7
tp714
F1
s(Veasy
g7
tp715
F2
s(Vtremens
g20
tp716
F1
s(Vye
g9
tp717
F1
s(Vof
g29
tp718
F57
s(VSound
g9
tp719
F1
s(Vby
S'IN'
p720
tp721
F10
s(Vanalogy
g9
tp722
F1
s(Vmotion
g9
tp723
F3
s(Vflowing
g37
tp724
F1
s(Vstood
g54
tp725
F1
s(Vpropriety
g9
tp726
F2
s(g44
S','
tp727
F4
s(Vapproaching
g37
tp728
F1
s(Vdescriptions
g20
tp729
F1
s(S','
g193
tp730
F1
s(Vname
g9
tp731
F1
s(g9
g94
tp732
F1
s(Vcommitted
g54
tp733
F1
s(Vto
g141
tp734
F26
s(g720
g37
tp735
F1
s(g14
g175
tp736
F1
s(Vadmiration
g9
tp737
F1
s(S':'
g18
tp738
F1
s(Vmark
g26
tp739
F1
s(VGirt
g5
tp740
F1
s(S','
g378
tp741
F2
s(g20
g81
tp742
F3
s(g9
g217
tp743
F4
s(Vlate
g7
tp744
F1
s(Vrecoil
g9
tp745
F1
s(Vdoors
g20
tp746
F1
s(Vmodes
g20
tp747
F1
s(Vthunder
g9
tp748
F1
s(Vhalting
g9
tp749
F1
s(g20
g145
tp750
F1
s(Vpronounced
g44
tp751
F1
s(Vflow
g9
tp752
F1
s(Vtimes
g20
tp753
F1
s(Vshoulder
g9
tp754
F1
s(Vequally
g81
tp755
F1
s(g195
g20
tp756
F2
s(Vwing
g37
tp757
F1
s(Vskill
g9
tp758
F1
s(VMeasur
g5
tp759
F1
s(S','
g14
tp760
F2
s(Vdiscover
g26
tp761
F1
s(Vso
g81
tp762
F2
s(VThe
S'DT'
p763
tp764
F2
s(g20
g29
tp765
F12
s(Vyet
g81
tp766
F1
s(g341
g324
tp767
F2
s(Vsagitta
g9
tp768
F1
s(Vmuch
g81
tp769
F1
s(Vfragrance
g9
tp770
F1
s(Vcompass
g9
tp771
F1
s(Vfall
g9
tp772
F2
s(g9
g403
tp773
F2
s(Vascent
g9
tp774
F1
s(Vthey
g577
tp775
F5
s(Vsound
g7
tp776
F1
s(g7
g94
tp777
F1
s(Vbeauty
g9
tp778
F1
s(Vdescription
g9
tp779
F2
s(Vlimb
g9
tp780
F1
s(Vhideous
g7
tp781
F1
s(Vdifferent
g647
tp782
F1
s(Vfor
g326
tp783
F3
s(VWords
g20
tp784
F1
s(g54
S'RB'
p785
tp786
F1
s(g54
g197
tp787
F1
s(Vthough
g51
tp788
F1
s(Vinterruptions
g20
tp789
F1
s(g44
g699
tp790
F1
s(g177
g175
tp791
F7
s(S','
g22
tp792
F1
s(Vwarbling
g9
tp793
F1
s(Veither
g197
tp794
F1
s(Vrear
g7
tp795
F1
s(Vson
g9
tp796
F1
s(Vmountains
g20
tp797
F1
s(Vadaptations
g20
tp798
F1
s(Virregularity
g9
tp799
F1
s(g54
g409
tp800
F1
s(Vfill
g9
tp801
F1
s(VHarsh
g5
tp802
F1
s(Vconsidered
g44
tp803
F2
s(Vyet
g197
tp804
F1
s(g7
g7
tp805
F1
s(Vefforts
S'NNS'
p806
tp807
F1
s(Vbuild
g26
tp808
F1
s(Vsoft
g7
tp809
F1
s(Vconsists
g97
tp810
F1
s(Vlength
g9
tp811
F3
s(Vbut
g365
tp812
F10
s(g26
g141
tp813
F3
s(Vgrace
g9
tp814
F2
s(V,
S','
tp815
F84
s(Vpraise
g9
tp816
F1
s(Vhell
g9
tp817
F1
s(Vplume
g9
tp818
F1
s(g5
g141
tp819
F2
s(Vfestivity
g9
tp820
F1
s(g37
g7
tp821
F1
s(g4
g7
tp822
F2
s(g44
S'.'
tp823
F2
s(g5
g18
tp824
F1
s(Vwords
S'NNS'
p825
tp826
F1
s(S':'
S'RB'
p827
tp828
F2
s(V?
S'.'
tp829
F2
s(VRaphael
g5
tp830
F1
s(Vform
g9
tp831
F2
s(Vornament
g9
tp832
F1
s(Vbos.
g9
tp833
F1
s(g409
S'JJ'
p834
tp835
F1
s(V'
g295
tp836
F2
s(Vregal
g7
tp837
F1
s(g44
g83
tp838
F1
s(Vsame
S'JJ'
p839
tp840
F4
s(Vtimber
g26
tp841
F1
s(Vlabour
g9
tp842
F2
s(g81
g141
tp843
F3
s(Vremarkably
g81
tp844
F2
s(g445
g552
tp845
F1
s(Vinfernal
g7
tp846
F1
s(Vwho
g14
tp847
F4
s(g5
g295
tp848
F4
s(Vcircuit
g9
tp849
F1
s(Vnuptial
g7
tp850
F1
s(Venumeration
g9
tp851
F1
s(Vattention
g422
tp852
F2
s(Vlong
g81
tp853
F1
s(Vproduct
S'NN'
p854
tp855
F1
s(Vmeasures
g20
tp856
F1
s(Vsometimes
g81
tp857
F5
s(VOf
g248
tp858
F1
s(Vadverse
g7
tp859
F1
s(g5
g51
tp860
F1
s(g20
S':'
tp861
F3
s(Vwas
g54
tp862
F2
s(Vcaves
g20
tp863
F1
s(Vthus
g827
tp864
F2
s(Vhis
g94
tp865
F11
s(Vimagination
g9
tp866
F1
s(Vgrain
g26
tp867
F1
s(Vtardy
g9
tp868
F1
s(Vcorporeal
g7
tp869
F2
s(Vhiss
g26
tp870
F1
s(g273
g20
tp871
F2
s(Vbody
g9
tp872
F1
s(Vverse
g9
tp873
F3
s(Vbroken
g7
tp874
F1
s(Vmeasure
g26
tp875
F1
s(VMelodious
g7
tp876
F1
s(Vinto
S'IN'
p877
tp878
F1
s(g195
g9
tp879
F18
s(Vfrequent
g7
tp880
F1
s(VThis
S'DT'
p881
tp882
F1
s(VSuitable
g7
tp883
F1
s(Vprime
g7
tp884
F1
s(g5
g126
tp885
F1
s(Vpower
S'NN'
p886
tp887
F2
s(Vout
g409
tp888
F2
s(Vheav'n
g9
tp889
F1
s(VUnder
S'IN'
p890
tp891
F1
s(S','
g598
tp892
F1
s(Vmay
g532
tp893
F3
s(Vsimilitude
g9
tp894
F1
s(VBalo
g5
tp895
F1
s(Vhappily
g81
tp896
F1
s(g9
g14
tp897
F1
s(Vwhich
g18
tp898
F8
s(Vsubjects
g20
tp899
F1
s(Vus
g134
tp900
F3
s(g29
g259
tp901
F5
s(Vvery
g81
tp902
F4
s(Vcounteract
g26
tp903
F1
s(g607
S','
tp904
F2
s(Varrow
g9
tp905
F1
s(Vcried
g54
tp906
F1
s(Vupon
g51
tp907
F3
s(Vgive
g26
tp908
F1
s(Vterms
g604
tp909
F1
s(g403
g94
tp910
F1
s(Von
g436
tp911
F5
s(g5
g37
tp912
F1
s(Vfoot
g9
tp913
F1
s(Vhad
g54
tp914
F2
s(Vfugit
g22
tp915
F1
s(S','
g289
tp916
F1
s(Varchfiend
g9
tp917
F1
s(Vleast
g173
tp918
F1
s(Vimitated
g54
tp919
F1
s(Vlong
g7
tp920
F2
s(S','
g143
tp921
F29
s(Vsprinkled
g44
tp922
F1
s(Vbreast
g9
tp923
F1
s(VAnd
g177
tp924
F3
s(Vobserved
g44
tp925
F2
s(Vrepresentations
g20
tp926
F1
s(Vimaged
g44
tp927
F1
s(Vlanguage
S'NN'
p928
tp929
F3
s(g365
g217
tp930
F4
s(Vregard
g26
tp931
F1
s(g376
g198
tp932
F1
s(Vsigh
g7
tp933
F1
s(Vconsequently
g81
tp934
F1
s(Vinterea
g9
tp935
F1
s(Velegance
g9
tp936
F1
s(g7
g20
tp937
F13
s(g145
g217
tp938
F3
s(Vscarlet
g9
tp939
F1
s(VBoatus
g5
tp940
F1
s(g445
g206
tp941
F9
s(Vlaborious
g7
tp942
F1
s(Vstudied
g44
tp943
F1
s(V;
S':'
tp944
F26
s(Vdiffus
g9
tp945
F1
s(g217
S':'
tp946
F2
s(Vimage
g533
tp947
F1
s(Vprogress
g9
tp948
F1
s(VWho
g14
tp949
F1
s(g168
g81
tp950
F1
s(Vmuch
g7
tp951
F1
s(g195
g141
tp952
F3
s(g289
g4
tp953
F1
s(g7
g5
tp954
F3
s(Vthis
g224
tp955
F7
s(Vlevity
g9
tp956
F1
s(g9
g54
tp957
F2
s(g195
g26
tp958
F4
s(Vexcellencies
g20
tp959
F2
s(g51
g7
tp960
F19
s(g14
g365
tp961
F1
s(S','
g9
tp962
F4
s(g928
g445
tp963
F8
s(g18
g22
tp964
F3
s(Vdefective
g7
tp965
F1
s(g825
g44
tp966
F2
s(VBegan
g5
tp967
F1
s(g14
g22
tp968
F1
s(VHis
g388
tp969
F2
s(V!
S'.'
tp970
F3
s(Vwhose
g282
tp971
F1
s(g9
g83
tp972
F10
s(Vopinion
S'NN'
p973
tp974
F1
s(VSatan
g5
tp975
F1
s(Vthat
g51
tp976
F8
s(Vheav'nly
g81
tp977
F1
s(Venforce
g26
tp978
F1
s(Vfeign
g97
tp979
F1
s(g26
g94
tp980
F4
s(Vmelody
g9
tp981
F1
s(Vproduced
g44
tp982
F1
s(g309
g5
tp983
F1
s(Vdowny
g7
tp984
F1
s(S':'
S'.'
tp985
F1
s(Vrough
g7
tp986
F1
s(Vhuge
g834
tp987
F2
s(g365
g330
tp988
F1
s(VStridor
g5
tp989
F1
s(g105
g197
tp990
F1
s(Vnever
g785
tp991
F1
s(Vexternal
g7
tp992
F1
s(Vhave
g22
tp993
F2
s(g20
g128
tp994
F2
s(VHomer
g5
tp995
F2
s(Vwithout
S'IN'
p996
tp997
F1
s(Voften
g184
tp998
F1
s(Vambition
g9
tp999
F1
s(g217
g54
tp1000
F10
s(Vtall
g7
tp1001
F1
s(g20
g37
tp1002
F1
s(Vcast
g9
tp1003
F1
s(Vsluices
g20
tp1004
F1
s(Vheavens
g20
tp1005
F2
s(Vcredulous
g7
tp1006
F1
s(Vreaders
g20
tp1007
F1
s(V'
g309
tp1008
F1
s(VIf
g340
tp1009
F1
s(Vremarkable
g7
tp1010
F1
s(Vnot
g182
tp1011
F8
s(VTh
g5
tp1012
F2
s(Vrepresented
g54
tp1013
F1
s(Vonly
g81
tp1014
F3
s(g9
g195
tp1015
F16
s(Vbulk
g9
tp1016
F3
s(g9
g20
tp1017
F4
s(Vthighs
g20
tp1018
F1
s(Vdivine
g22
tp1019
F1
s(Vminute
g7
tp1020
F1
s(Vfound
g44
tp1021
F2
s(Vheight
g9
tp1022
F1
s(g5
S','
tp1023
F5
s(S':'
g9
tp1024
F2
s(g5
g445
tp1025
F3
s(Vcolours
g97
tp1026
F1
s(Vpassions
g20
tp1027
F1
s(g282
g973
tp1028
F1
s(Vrepetitions
g20
tp1029
F1
s(Veach
S'DT'
p1030
tp1031
F1
s(Vconfusion
g9
tp1032
F1
s(Vmust
g290
tp1033
F1
s.