ccollections
defaultdict
p1
(c__builtin__
float
p2
tRp3
(S'IN'
p4
S'TO'
p5
tp6
F1
s(Vpoet
S'NN'
p7
tp8
F2
s(Vwe
S'PRP'
p9
tp10
F2
s(S'MD'
p11
S'.'
tp12
F1
s(S'IN'
p13
S'WDT'
p14
tp15
F3
s(Vtill
S'RB'
p16
tp17
F1
s(Vviolation
g7
tp18
F1
s(S'VB'
p19
S'.'
tp20
F3
s(Vsyllable
g7
tp21
F2
s(S'IN'
p22
g7
tp23
F31
s(g22
S'JJR'
p24
tp25
F2
s(Vweak
S'JJ'
p26
tp27
F2
s(g14
S'DT'
p28
tp29
F2
s(Vman
S'NN'
p30
tp31
F1
s(S'VBZ'
p32
S'RBR'
p33
tp34
F1
s(Vmakes
S'VBZ'
p35
tp36
F1
s(Vseparated
S'VBN'
p37
tp38
F1
s(V-Eyes
S'NNS'
p39
tp40
F1
s(g39
S'.'
tp41
F2
s(VWhen
S'WRB'
p42
tp43
F1
s(VBefore
S'IN'
p44
tp45
F1
s(Vharp
g19
tp46
F1
s(Vprivilege
g7
tp47
F1
s(g16
S'PDT'
p48
tp49
F1
s(Vcompliance
g7
tp50
F1
s(S','
g44
tp51
F14
s(Vwide
S'JJ'
p52
tp53
F1
s(V'till
g19
tp54
F1
s(Vetiam
g7
tp55
F1
s(g7
g7
tp56
F21
s(g16
S'.'
tp57
F1
s(g28
S'NNP'
p58
tp59
F2
s(S','
S'VBD'
p60
tp61
F3
s(Vbind
g19
tp62
F1
s(VTo
S'TO'
p63
tp64
F4
s(Vthat
g14
tp65
F2
s(Vredounded
S'VBD'
p66
tp67
F1
s(Vwoods
g39
tp68
F1
s(VEnglish
g58
tp69
F3
s(S'WP'
p70
S'VBP'
p71
tp72
F1
s(Vtherefore
g16
tp73
F1
s(S'PRP'
p74
S'MD'
p75
tp76
F4
s(Vvariety
g7
tp77
F2
s(S'PRP'
p78
S'VB'
p79
tp80
F1
s(g24
g39
tp81
F1
s(VGlar
g58
tp82
F1
s(Vperiod
S'NN'
p83
tp84
F1
s(Vsound
g7
tp85
F3
s(Vstaid
g66
tp86
F1
s(Vwanton
g7
tp87
F1
s(Vdisposition
g7
tp88
F1
s(Vgan
S'JJ'
p89
tp90
F1
s(VTending
S'VBG'
p91
tp92
F1
s(S':'
g89
tp93
F2
s(Vthought
g7
tp94
F1
s(Vsecond
g89
tp95
F2
s(Vupon
g44
tp96
F4
s(Vkeep
g19
tp97
F1
s(Vunsatisfied
g89
tp98
F1
s(VRhadope
g58
tp99
F1
s(Vdanger
g7
tp100
F2
s(S','
g70
tp101
F1
s(g89
g11
tp102
F1
s(VThither
g58
tp103
F1
s(Vfrom
S'IN'
p104
tp105
F5
s(Vold
S'JJ'
p106
tp107
F2
s(Vfail
g89
tp108
F1
s(VHe
S'PRP'
p109
tp110
F4
s(Vcomplete
g89
tp111
F1
s(VThus
g16
tp112
F1
s(S'EX'
p113
g32
tp114
F1
s(VTorments
g58
tp115
F1
s(Vthe
g28
tp116
F66
s(Vwith
S'IN'
p117
tp118
F17
s(VOn
S'IN'
p119
tp120
F1
s(VI
S'PRP'
p121
tp122
F1
s(g32
g28
tp123
F6
s(Vhigh
g89
tp124
F2
s(VRegent
g58
tp125
F1
s(Vremaining
g91
tp126
F1
s(Vimmortal
g89
tp127
F1
s(S'VBZ'
p128
g5
tp129
F1
s(Vor
S'CC'
p130
tp131
F12
s(Vhorrid
g7
tp132
F1
s(VCharm
g58
tp133
F1
s(S'CC'
p134
g39
tp135
F2
s(Vconstitute
g19
tp136
F1
s(Vlosing
g91
tp137
F1
s(Vchaos
g7
tp138
F1
s(S'CD'
p139
S','
tp140
F1
s(Vconfined
g37
tp141
F1
s(Vpoetical
g89
tp142
F1
s(Vfrequently
g16
tp143
F2
s(Vthough
g16
tp144
F1
s(Vinquire
g19
tp145
F1
s(g14
g16
tp146
F1
s(g11
g117
tp147
F3
s(g19
g58
tp148
F1
s(Vperhaps
S'RB'
p149
tp150
F4
s(g44
S'RB'
p151
tp152
F2
s(g71
g5
tp153
F1
s(Vwere
g60
tp154
F1
s(Vseen
S'VBN'
p155
tp156
F1
s(g79
g37
tp157
F11
s(Vmore
g33
tp158
F2
s(g128
g139
tp159
F1
s(g7
g28
tp160
F2
s(Vdanc
g71
tp161
F1
s(g151
S'CC'
p162
tp163
F1
s(g134
g128
tp164
F1
s(VHermes
g58
tp165
F1
s(g24
g4
tp166
F1
s(S'RB'
p167
S'JJ'
p168
tp169
F8
s(S'DT'
p170
g70
tp171
F1
s(Vpreserved
g37
tp172
F1
s(g89
S'VBP'
p173
tp174
F1
s(S'NN'
p175
g14
tp176
F2
s(Vsingle
S'JJ'
p177
tp178
F2
s(Vjoint
g89
tp179
F1
s(VSong
g58
tp180
F1
s(Vbroken
g37
tp181
F1
s(Vand
g134
tp182
F29
s(S','
g74
tp183
F5
s(g37
S'IN'
p184
tp185
F6
s(S','
g79
tp186
F2
s(g16
g37
tp187
F3
s(Vcan
S'MD'
p188
tp189
F2
s(VReserv
g58
tp190
F1
s(g162
g78
tp191
F1
s(Vdisjoined
g37
tp192
F1
s(Vappear
g71
tp193
F1
s(VInvested
g66
tp194
F1
s(g42
g58
tp195
F1
s(g19
g28
tp196
F6
s(Vblessedness
g7
tp197
F1
s(g66
S'('
tp198
F1
s(S'MD'
p199
g79
tp200
F10
s(VThrice
g58
tp201
F1
s(g91
S'NN'
p202
tp203
F1
s(Vnature
g7
tp204
F1
s(Visles
g39
tp205
F2
s(Von
S'IN'
p206
tp207
F2
s(Vwhen
S'WRB'
p208
tp209
F1
s(Vgroves
g39
tp210
F1
s(g117
S'DT'
p211
tp212
F53
s(Veasily
S'RB'
p213
tp214
F1
s(Vsuffer
g19
tp215
F1
s(g71
g11
tp216
F2
s(g89
S'PRP'
p217
tp218
F1
s(g33
g4
tp219
F3
s(S')'
g206
tp220
F1
s(g89
g5
tp221
F4
s(g11
S':'
tp222
F1
s(Vvanquish
g89
tp223
F1
s(Vutmost
g89
tp224
F1
s(Vsuccession
g7
tp225
F1
s(Vdiscovered
g37
tp226
F1
s(S'VBD'
p227
S'IN'
p228
tp229
F3
s(Vsingly
g16
tp230
F1
s(V-
S':'
tp231
F1
s(Vsacred
g89
tp232
F2
s(Vvales
g39
tp233
F1
s(Vlyrick
g89
tp234
F1
s(Vafter
g228
tp235
F1
s(Vperceived
g37
tp236
F1
s(Vthan
g4
tp237
F8
s(g39
g188
tp238
F2
s(S'CC'
p239
g66
tp240
F2
s(Vthird
g89
tp241
F4
s(V'd
g11
tp242
F7
s(VThou
g58
tp243
F1
s(Vallowed
g66
tp244
F1
s(Vread
g19
tp245
F1
s(Vease
g7
tp246
F1
s(S':'
S'IN'
p247
tp248
F6
s(S':'
g28
tp249
F2
s(S'PRP$'
p250
g7
tp251
F12
s(g16
S':'
tp252
F1
s(S':'
g78
tp253
F2
s(Vderides
g39
tp254
F1
s(g7
g33
tp255
F2
s(Vwrath
g7
tp256
F1
s(g247
g113
tp257
F1
s(g4
S'CD'
p258
tp259
F2
s(S"''"
p260
g89
tp261
F1
s(Vherb
g7
tp262
F1
s(g39
g71
tp263
F4
s(g33
g89
tp264
F1
s(g58
g7
tp265
F5
s(g89
S'IN'
p266
tp267
F6
s(g89
S':'
tp268
F3
s(Vsyllables
g39
tp269
F4
s(Vgrim
g7
tp270
F1
s(Vrolling
g91
tp271
F1
s(V's
S'POS'
p272
tp273
F1
s(Vour
S'PRP$'
p274
tp275
F2
s(g66
g5
tp276
F1
s(VWill
g11
tp277
F1
s(VAnd
S'CC'
p278
tp279
F1
s(S'RB'
p280
g117
tp281
F4
s(g71
g260
tp282
F1
s(Vflood
g7
tp283
F1
s(g44
g44
tp284
F4
s(g39
g134
tp285
F2
s(Vrocks
g39
tp286
F1
s(Vausterely
g16
tp287
F1
s(Vsounded
g37
tp288
F2
s(g39
S','
tp289
F22
s(S'PRP'
p290
g5
tp291
F1
s(Vhe
g74
tp292
F3
s(g7
S'.'
tp293
F18
s(g78
g32
tp294
F4
s(Vtwo
S'CD'
p295
tp296
F1
s(Vbeast
g7
tp297
F1
s(g19
g134
tp298
F1
s(Vanother
g211
tp299
F3
s(g37
S'DT'
p300
tp301
F1
s(g58
g272
tp302
F1
s(S'PRP$'
p303
S'JJ'
p304
tp305
F5
s(g5
g16
tp306
F1
s(Vfail
g19
tp307
F1
s(Vfirst
g89
tp308
F2
s(g39
S'PRP'
p309
tp310
F1
s(Vall
S'DT'
p311
tp312
F3
s(Vback
g16
tp313
F1
s(Vmessengers
g39
tp314
F1
s(Veither
g311
tp315
F2
s(g295
g117
tp316
F3
s(g14
g11
tp317
F1
s(VShedding
g91
tp318
F1
s(g7
g22
tp319
F45
s(g7
S','
tp320
F25
s(Vbard
g7
tp321
F1
s(g71
g22
tp322
F2
s(g149
g188
tp323
F1
s(VWith
S'IN'
p324
tp325
F2
s(VAs
g44
tp326
F2
s(S'JJ'
p327
g28
tp328
F1
s(Va
S'DT'
p329
tp330
F12
s(S'MD'
p331
S','
tp332
F2
s(Vretire
g19
tp333
F1
s(Vstop
g7
tp334
F1
s(Vglimmering
g7
tp335
F1
s(g24
g63
tp336
F1
s(Vplay
g7
tp337
F1
s(Vmost
S'JJS'
p338
tp339
F1
s(Vhorizon
g7
tp340
F1
s(S':'
g162
tp341
F8
s(Vgenerally
g167
tp342
F1
s(Vfree
g89
tp343
F1
s(Vdeclares
g128
tp344
F1
s(Vwant
g19
tp345
F1
s(g5
g39
tp346
F1
s(V'd
g66
tp347
F1
s(Vhim
g290
tp348
F5
s(Vis
g32
tp349
F7
s(Vfrequent
g89
tp350
F1
s(g130
g295
tp351
F1
s(Vconfine
g19
tp352
F1
s(Vsuch
g89
tp353
F1
s(S','
g208
tp354
F2
s(Vpipe
g7
tp355
F1
s(g16
S','
tp356
F5
s(Vdefend
g71
tp357
F1
s(Vthem
S'PRP'
p358
tp359
F1
s(Vat
S'IN'
p360
tp361
F5
s(g66
g28
tp362
F1
s(Vfather
g7
tp363
F1
s(Vnotwithstanding
g91
tp364
F1
s(g208
g74
tp365
F1
s(g16
g7
tp366
F2
s(Vtalk
g71
tp367
F1
s(Vwithout
S'IN'
p368
tp369
F1
s(Vwinged
g89
tp370
F1
s(Vlight
g7
tp371
F1
s(Vwell
g16
tp372
F1
s(S'DT'
p373
S'VBZ'
p374
tp375
F1
s(Vwakeful
g89
tp376
F1
s(S'CC'
p377
g280
tp378
F2
s(Vquotation
g7
tp379
F1
s(Vfourth
S'JJ'
p380
tp381
F3
s(g89
S','
tp382
F10
s(g32
g16
tp383
F1
s(g44
S'WP'
p384
tp385
F1
s(Vwatch
g71
tp386
F1
s(g78
S','
tp387
F3
s(g58
S':'
tp388
F1
s(Vprop
g7
tp389
F1
s(g39
g14
tp390
F2
s(S'JJ'
p391
g7
tp392
F33
s(Vprune
g7
tp393
F1
s(Vline
S'NN'
p394
tp395
F6
s(Vhere
S'RB'
p396
tp397
F1
s(Vpleiades
g39
tp398
F1
s(Vintercourse
g7
tp399
F1
s(g48
g250
tp400
F1
s(g28
g16
tp401
F2
s(Vclose
g7
tp402
F2
s(Vrod
g7
tp403
F1
s(VWisdom
g58
tp404
F1
s(g79
g89
tp405
F1
s(Vere
g16
tp406
F1
s(Vcould
S'MD'
p407
tp408
F2
s(Verrands
g39
tp409
F1
s(Vmake
g19
tp410
F2
s(Vneglect
g7
tp411
F1
s(g272
g7
tp412
F1
s(g5
g7
tp413
F1
s(VBeast
g58
tp414
F1
s(Vpast'ral
g89
tp415
F1
s(Vvariation
g7
tp416
F1
s(Vshew
g19
tp417
F1
s(Vsince
S'IN'
p418
tp419
F1
s(Vsprung
g66
tp420
F1
s(Vthey
g309
tp421
F1
s(g19
g139
tp422
F2
s(Vsufficient
g89
tp423
F1
s(Vone
g139
tp424
F3
s(g7
g71
tp425
F1
s(Vemotions
g39
tp426
F1
s(Vgardens
g39
tp427
F1
s(g9
g184
tp428
F1
s(Vpain
g7
tp429
F1
s(Vno
g311
tp430
F3
s(g19
g358
tp431
F1
s(g7
g89
tp432
F2
s(Vnor
S'CC'
p433
tp434
F1
s(Vmusical
g89
tp435
F1
s(S','
g63
tp436
F2
s(Vcorrupts
g128
tp437
F1
s(g44
g78
tp438
F7
s(Vdistance
g7
tp439
F1
s(Vharmony
g7
tp440
F5
s(Vheard
g7
tp441
F1
s(Vsignal
g89
tp442
F1
s(g70
g227
tp443
F2
s(Vseldom
g19
tp444
F1
s(Vdue
g89
tp445
F1
s(V'd
g39
tp446
F1
s(S':'
S':'
tp447
F4
s(Vpart
g202
tp448
F5
s(Vmade
g37
tp449
F1
s(S'RB'
p450
g329
tp451
F3
s(g7
g58
tp452
F8
s(Vear
g7
tp453
F3
s(g79
g266
tp454
F6
s(g37
g5
tp455
F3
s(Vworlds
g39
tp456
F1
s(Vthere
g113
tp457
F1
s(Vfarthest
g89
tp458
F1
s(Vfish
g89
tp459
F2
s(g58
g58
tp460
F1
s(Vgray
g89
tp461
F1
s(Vdelight
g7
tp462
F1
s(Vpresence
S'NN'
p463
tp464
F1
s(Vmore
g24
tp465
F1
s(Vhas
g374
tp466
F2
s(Valways
S'RB'
p467
tp468
F1
s(VAssist
g89
tp469
F1
s(Vsomething
S'NN'
p470
tp471
F2
s(Vsavage
g7
tp472
F1
s(Vversification
g7
tp473
F1
s(Vevil
g89
tp474
F1
s(Vblew
g66
tp475
F2
s(S'WRB'
p476
g39
tp477
F1
s(g71
g39
tp478
F1
s(g266
g58
tp479
F4
s(Vgrowth
S'NN'
p480
tp481
F1
s(Vremain
g19
tp482
F2
s(g66
g37
tp483
F2
s(Vfields
g39
tp484
F1
s(V)
S')'
tp485
F1
s(Vpaths
g39
tp486
F1
s(Vwild
g89
tp487
F1
s(Vfive
S'CD'
p488
tp489
F1
s(Vallowed
g37
tp490
F1
s(Vimplores
g39
tp491
F1
s(Vgave
S'VBD'
p492
tp493
F1
s(g89
g151
tp494
F3
s(Vworld
S'NN'
p495
tp496
F1
s(Vvoice
g7
tp497
F1
s(g37
S':'
tp498
F1
s(g5
g19
tp499
F20
s(Vlasting
g89
tp500
F1
s(Vfiery
g7
tp501
F1
s(g5
g28
tp502
F8
s(Vmembers
S'NNS'
p503
tp504
F1
s(Vwherever
g44
tp505
F1
s(Vsound
g19
tp506
F1
s(g66
S'PRP$'
p507
tp508
F2
s(Vclamour
g7
tp509
F1
s(Vbe
g79
tp510
F15
s(Vtaking
g91
tp511
F1
s(S'NNS'
p512
g5
tp513
F2
s(Vlonger
g33
tp514
F1
s(VFirst
g58
tp515
F1
s(Vexpectation
g7
tp516
F1
s(Vonce
g16
tp517
F1
s(g89
g134
tp518
F4
s(Vadaptation
g7
tp519
F1
s(g128
g78
tp520
F1
s(g211
S','
tp521
F3
s(S'IN'
p522
g37
tp523
F2
s(Vit
g78
tp524
F10
s(Vdisjecti
g7
tp525
F1
s(Vlast
g327
tp526
F1
s(Vsister
g7
tp527
F1
s(g311
g22
tp528
F3
s(Vmusick
g19
tp529
F1
s(g91
g5
tp530
F1
s(Vits
S'PRP$'
p531
tp532
F2
s(Vbow'rs
g19
tp533
F1
s(g89
g39
tp534
F19
s(Vconnecting
g91
tp535
F1
s(VOne
g139
tp536
F1
s(Vregard
g7
tp537
F1
s(g290
g71
tp538
F3
s(S','
g7
tp539
F2
s(S'DT'
p540
g7
tp541
F51
s(VDrawn
g58
tp542
F1
s(Vsome
g540
tp543
F4
s(g58
g66
tp544
F2
s(Vsled
g66
tp545
F1
s(g266
g303
tp546
F6
s(Vaccents
g39
tp547
F1
s(S':'
g39
tp548
F1
s(Vproportions
g39
tp549
F1
s(g58
g19
tp550
F1
s(Vrace
S'NN'
p551
tp552
F1
s(Vancients
g39
tp553
F1
s(g71
g28
tp554
F2
s(Vless
g24
tp555
F1
s(VIn
g44
tp556
F2
s(Vsung
g48
tp557
F1
s(V'd
g139
tp558
F2
s(g139
g7
tp559
F3
s(Vdim
g7
tp560
F1
s(Vappears
S'VBZ'
p561
tp562
F1
s(Vassociate
g89
tp563
F1
s(g7
g5
tp564
F7
s(Vstrong
S'JJ'
p565
tp566
F2
s(g58
g11
tp567
F4
s(Vwill
g11
tp568
F7
s(Vthrough
g44
tp569
F1
s(Vwhere
g476
tp570
F1
s(VSo
g16
tp571
F2
s(VConfounded
g58
tp572
F1
s(g134
g391
tp573
F11
s(Vnumbers
g512
tp574
F1
s(Vall
g48
tp575
F1
s(Vin
g266
tp576
F17
s(Vtore
g66
tp577
F1
s(g16
g71
tp578
F2
s(Vjocund
g7
tp579
F1
s(VPure
g58
tp580
F1
s(Vare
g173
tp581
F2
s(Vround
g7
tp582
F1
s(g33
g37
tp583
F1
s(Vparticipate
g71
tp584
F1
s(g14
g78
tp585
F1
s(g71
g91
tp586
F1
s(VA
g58
tp587
F1
s(Veast
g7
tp588
F1
s(Vtheir
g303
tp589
F2
s(g19
S','
tp590
F4
s(Valmighty
g7
tp591
F1
s(g44
S','
tp592
F2
s(g272
S'DT'
p593
tp594
F1
s(Vhave
g19
tp595
F1
s(g11
S'RB'
p596
tp597
F7
s(Vheroick
g7
tp598
F1
s(g28
g89
tp599
F35
s(g89
S'.'
tp600
F5
s(Vglorious
g89
tp601
F2
s(g37
g7
tp602
F1
s(Vyounger
g24
tp603
F1
s(VHer
g531
tp604
F2
s(Vnecessary
g168
tp605
F1
s(Vpause
g7
tp606
F1
s(g128
g531
tp607
F2
s(VSense
g7
tp608
F1
s(Vseem
g71
tp609
F2
s(V.
S'.'
tp610
F36
s(Vbeing
S'VBG'
p611
tp612
F1
s(S','
g16
tp613
F8
s(g7
g260
tp614
F1
s(Vrapture
g19
tp615
F1
s(g162
g266
tp616
F7
s(Vfar
S'RB'
p617
tp618
F1
s(Vweaker
g7
tp619
F1
s(Vth
g7
tp620
F1
s(VOreb
g58
tp621
F1
s(Vmuse
g7
tp622
F1
s(Vtrumpet
g7
tp623
F2
s(Vae
g7
tp624
F1
s(g272
g89
tp625
F1
s(Vdoubt
g7
tp626
F1
s(Vthat
g311
tp627
F2
s(V'd
g260
tp628
F1
s(g16
g488
tp629
F1
s(Vthere
g16
tp630
F1
s(Veternal
g89
tp631
F1
s(Vflow'ry
g89
tp632
F1
s(Vregularity
g7
tp633
F1
s(Vsatisfies
g128
tp634
F1
s(Vother
g304
tp635
F4
s(V--
S':'
tp636
F5
s(g128
g89
tp637
F3
s(g91
S'.'
tp638
F1
s(Vhappiness
g7
tp639
F1
s(Vwar
S'NN'
p640
tp641
F1
s(Vought
g11
tp642
F1
s(g66
S','
tp643
F1
s(Vparts
S'NNS'
p644
tp645
F1
s(g303
g39
tp646
F1
s(Vstrongly
g16
tp647
F1
s(g202
g16
tp648
F4
s(g16
g66
tp649
F2
s(g28
g91
tp650
F1
s(Vmeasure
g7
tp651
F1
s(S'('
g44
tp652
F1
s(Vjudgment
g7
tp653
F1
s(Vroad
S'NN'
p654
tp655
F1
s(Vas
g44
tp656
F6
s(g290
S'.'
tp657
F2
s(g407
g28
tp658
F1
s(Vrather
g450
tp659
F1
s(Vgranted
g37
tp660
F1
s(Vchange
g19
tp661
F1
s(g28
g39
tp662
F11
s(S':'
g37
tp663
F1
s(g91
g28
tp664
F1
s(g91
g44
tp665
F3
s(Vgreat
g391
tp666
F2
s(Vpassages
g39
tp667
F1
s(Vtones
g39
tp668
F1
s(VBoth
g58
tp669
F2
s(V\u005c
g7
tp670
F3
s(g66
S'.'
tp671
F1
s(g358
g89
tp672
F1
s(Vshould
g75
tp673
F2
s(Vby
g184
tp674
F4
s(VDefaming
g91
tp675
F1
s(g130
g250
tp676
F3
s(Vcare
g7
tp677
F1
s(Vgulph
g7
tp678
F1
s(g37
S','
tp679
F6
s(Vdrown
g7
tp680
F1
s(g91
g139
tp681
F1
s(g66
g391
tp682
F3
s(g149
g42
tp683
F1
s(g79
g16
tp684
F4
s(Vsometime
g16
tp685
F1
s(V'd
g272
tp686
F1
s(Valone
g16
tp687
F1
s(g14
g91
tp688
F1
s(Vto
g5
tp689
F28
s(Vdwelt
g71
tp690
F1
s(g22
g91
tp691
F2
s(Vadmiration
g7
tp692
F1
s(Vgraze
g19
tp693
F1
s(S','
g128
tp694
F2
s(g39
g16
tp695
F2
s(S':'
g470
tp696
F2
s(Vovergrown
g7
tp697
F1
s(g58
g89
tp698
F4
s(Vreed
g7
tp699
F1
s(Vcommands
g128
tp700
F1
s(S','
g14
tp701
F3
s(Vdivided
g89
tp702
F1
s(Vsun
g7
tp703
F1
s(g28
g338
tp704
F1
s(Vevery
S'DT'
p705
tp706
F1
s(g89
g32
tp707
F2
s(Vawe
g7
tp708
F1
s(Vinterrupted
g37
tp709
F1
s(Vlight
g89
tp710
F1
s(Vsounds
g39
tp711
F1
s(Vflow
g89
tp712
F1
s(Vboth
g311
tp713
F2
s(g78
g611
tp714
F2
s(Vdidst
g7
tp715
F2
s(Vharmonious
g89
tp716
F3
s(Vmembra
g7
tp717
F1
s(g58
g39
tp718
F1
s(g211
S'.'
tp719
F2
s(g37
S'.'
tp720
F1
s(Vso
g16
tp721
F3
s(VThe
S'DT'
p722
tp723
F4
s(Vbecause
g44
tp724
F2
s(g39
g22
tp725
F8
s(g66
g39
tp726
F2
s(g48
g722
tp727
F1
s(Vmight
S'MD'
p728
tp729
F1
s(Vmuch
g16
tp730
F1
s(Vthy
g89
tp731
F2
s(Vtherefore
g7
tp732
F1
s(Vcompass
g7
tp733
F1
s(g91
g48
tp734
F1
s(Vbosom
g7
tp735
F1
s(g7
S')'
tp736
F1
s(Vsyllable
g89
tp737
F2
s(Vthree
g258
tp738
F2
s(Vnight
S'NN'
p739
tp740
F2
s(Vplaced
g37
tp741
F1
s(g384
g78
tp742
F1
s(VThracian
g89
tp743
F1
s(Vfor
g247
tp744
F5
s(VSome
S'DT'
p745
tp746
F1
s(g66
g16
tp747
F2
s(Vsupernal
g89
tp748
F1
s(Vthough
g44
tp749
F1
s(g37
g450
tp750
F3
s(Vthose
g170
tp751
F4
s(Va-period
g7
tp752
F1
s(Vthou
g89
tp753
F1
s(VHesperian
g89
tp754
F1
s(Vlongitude
g7
tp755
F1
s(Vson
g7
tp756
F1
s(Vrays
g39
tp757
F1
s(Vsuspend
g71
tp758
F1
s(Vregular
g89
tp759
F1
s(Vfowl
g7
tp760
F2
s(Vpleas
g89
tp761
F1
s(Vbeginning
g7
tp762
F2
s(Vorder
S'NN'
p763
tp764
F1
s(Vdawn
g7
tp765
F1
s(g89
g89
tp766
F4
s(g16
g24
tp767
F2
s(g338
g202
tp768
F1
s(VDawn
g58
tp769
F1
s(g7
S':'
tp770
F13
s(Vnow
g280
tp771
F3
s(VGod
g58
tp772
F3
s(Vbut
g162
tp773
F6
s(g19
g5
tp774
F1
s(Vgrace
g7
tp775
F1
s(Vday
S'NN'
p776
tp777
F2
s(V,
S','
tp778
F93
s(Vwhom
g384
tp779
F1
s(g11
g5
tp780
F1
s(Vwisdom
g7
tp781
F1
s(g596
g19
tp782
F7
s(g91
g89
tp783
F1
s(g173
g26
tp784
F2
s(VLop
g58
tp785
F1
s(VLike
S'IN'
p786
tp787
F1
s(Vseventh
g89
tp788
F1
s(S':'
g16
tp789
F2
s(Vtrain
g7
tp790
F1
s(Vform
g7
tp791
F1
s(S','
g91
tp792
F4
s(Vended
g66
tp793
F1
s(Vsuperfluous
g89
tp794
F1
s(Vrefinements
g39
tp795
F1
s(Vrest
g7
tp796
F3
s(g33
g7
tp797
F1
s(Vconclude
g71
tp798
F1
s(VLay
g58
tp799
F1
s(V'
g272
tp800
F1
s(VNor
g239
tp801
F1
s(Vfountain
g16
tp802
F1
s(Vdrouze
g19
tp803
F1
s(Vhands
g39
tp804
F2
s(g16
g5
tp805
F4
s(VOr
g58
tp806
F1
s(g32
g202
tp807
F1
s(Vfewer
g24
tp808
F1
s(Vwho
g70
tp809
F3
s(Vimpure
g7
tp810
F1
s(Vif
g522
tp811
F1
s(g5
g33
tp812
F1
s(Vof
g22
tp813
F34
s(Vwrote
g227
tp814
F1
s(Vlong
g16
tp815
F1
s(Vhexameters
g39
tp816
F1
s(g16
g33
tp817
F2
s(Vunited
g37
tp818
F2
s(Vconnects
g128
tp819
F2
s(VHypocrites
g39
tp820
F1
s(Vmeasures
g39
tp821
F3
s(Vopiate
g7
tp822
F1
s(Vsometimes
g16
tp823
F1
s(VOf
S'IN'
p824
tp825
F4
s(VShoots
g58
tp826
F1
s(VFrom
g44
tp827
F1
s(g128
g58
tp828
F1
s(g7
g70
tp829
F1
s(g58
g266
tp830
F6
s(g39
S':'
tp831
F3
s(Vwas
g66
tp832
F4
s(Vhis
g250
tp833
F6
s(Vsweet
g89
tp834
F1
s(Vgeneral
g89
tp835
F1
s(VFortunate
g58
tp836
F1
s(g24
g7
tp837
F1
s(Vascending
g7
tp838
F1
s(Vverse
g7
tp839
F7
s(Vcelestial
g7
tp840
F1
s(Vinto
g13
tp841
F2
s(g134
g7
tp842
F9
s(Vhills
g39
tp843
F1
s(S','
S':'
tp844
F1
s(VThis
g373
tp845
F3
s(Vsoon
S'RB'
p846
tp847
F1
s(g58
g290
tp848
F1
s(g70
g58
tp849
F1
s(Vbright
g89
tp850
F2
s(Vheav'n
g7
tp851
F2
s(Vproportion
g7
tp852
F1
s(g134
g28
tp853
F8
s(Vmay
g199
tp854
F3
s(g7
g272
tp855
F2
s(Vimpossible
g89
tp856
F1
s(Vstill
g596
tp857
F2
s(Vwhich
g14
tp858
F8
s(Vneed
g71
tp859
F1
s(Vus
g217
tp860
F1
s(g22
g39
tp861
F4
s(Vvery
g16
tp862
F2
s(Vstood
g66
tp863
F1
s(Vleaves
g128
tp864
F2
s(g71
g531
tp865
F1
s(g374
S','
tp866
F2
s(g14
g66
tp867
F1
s(Vbefore
g44
tp868
F1
s(Vlost
g37
tp869
F1
s(Vhexameter
g7
tp870
F1
s(Vbetter
g33
tp871
F3
s(VBut
g377
tp872
F4
s(g11
g58
tp873
F1
s(Vears
g39
tp874
F1
s(VDevour
g58
tp875
F1
s(Vsubject
g7
tp876
F1
s(V-more
g16
tp877
F1
s(V-with
g89
tp878
F1
s(Vhad
g66
tp879
F1
s(S','
g89
tp880
F2
s(g58
g16
tp881
F3
s(Vnecessity
g7
tp882
F1
s(S','
g134
tp883
F26
s(Vperfection
g7
tp884
F1
s(g71
g139
tp885
F2
s(S','
g58
tp886
F10
s(Vobserved
g37
tp887
F1
s(Vsupposed
g37
tp888
F2
s(S','
g540
tp889
F6
s(g58
g128
tp890
F1
s(Vchoice
S'NN'
p891
tp892
F1
s(Vlamp
g7
tp893
F1
s(Vdoom
g7
tp894
F2
s(Vpure
g7
tp895
F1
s(Vpauses
g39
tp896
F5
s(VMeanwhile
S'RB'
p897
tp898
F1
s(g846
g58
tp899
F1
s(V;
S':'
tp900
F18
s(Vend
g7
tp901
F2
s(Vconverse
g7
tp902
F1
s(Vpassage
g7
tp903
F1
s(Vliberties
g39
tp904
F1
s(g611
g37
tp905
F1
s(Vcrew
g7
tp906
F1
s(Vher
g531
tp907
F1
s(Vpassing
g91
tp908
F1
s(g19
g19
tp909
F1
s(g130
g5
tp910
F1
s(g89
g58
tp911
F3
s(Vthis
g300
tp912
F2
s(Vwalk
g39
tp913
F1
s(Vrout
g7
tp914
F1
s(g7
g66
tp915
F5
s(g130
g79
tp916
F3
s(g433
g407
tp917
F1
s(g22
g89
tp918
F12
s(Vsixth
g89
tp919
F3
s(Vinfluence
g7
tp920
F2
s(Vrule
g7
tp921
F1
s(Vwhat
g70
tp922
F1
s(g7
g32
tp923
F6
s(Vas
g16
tp924
F1
s(g14
g71
tp925
F3
s(Vleaving
g7
tp926
F1
s(g258
g39
tp927
F3
s(VHis
g507
tp928
F3
s(Vsend
g19
tp929
F1
s(V!
S'.'
tp930
F1
s(Vthee
g66
tp931
F1
s(g7
g11
tp932
F11
s(Vwilderness
g7
tp933
F1
s(Vthat
g44
tp934
F5
s(g19
g7
tp935
F1
s(g19
g303
tp936
F3
s(g260
S','
tp937
F1
s(Vseldom
g16
tp938
F1
s(Vhappened
g66
tp939
F1
s(V(
S'('
tp940
F1
s(Vsolemn
g89
tp941
F1
s(Vre-salute
g19
tp942
F1
s(Vnever
S'RB'
p943
tp944
F2
s(Vmix
g19
tp945
F1
s(Vprose
g89
tp946
F1
s(g78
g66
tp947
F6
s(Vfam
g71
tp948
F1
s(Vwak
g7
tp949
F1
s(g66
S':'
tp950
F2
s(V'
g260
tp951
F1
s(Vcountenance
g7
tp952
F1
s(VIf
S'IN'
p953
tp954
F1
s(Vverge
g7
tp955
F1
s(Vnot
g151
tp956
F6
s(Vwalls
g39
tp957
F1
s(g377
g70
tp958
F1
s(V'd
g58
tp959
F1
s(V-What
g44
tp960
F1
s(Vonly
g16
tp961
F2
s(g763
g134
tp962
F7
s(g480
g39
tp963
F1
s(Vfound
g37
tp964
F1
s(g58
S','
tp965
F5
s(Vhappy
g89
tp966
F3
s(Vventure
S'NN'
p967
tp968
F1
s(Vrun
g19
tp969
F1
s(Vsense
g7
tp970
F1
s(g66
g290
tp971
F2
s(g134
S','
tp972
F1
s(Vfull
S'JJ'
p973
tp974
F2
s(VLeucothea
g58
tp975
F1
s(Vbegins
g128
tp976
F1
s(Vdescended
g66
tp977
F1
s(g16
g16
tp978
F5
s(Vwild
g19
tp979
F1
s(Veach
g593
tp980
F1
s(Vminister
g175
tp981
F1
s(g44
g32
tp982
F1
s(Varcadian
g89
tp983
F1
s(Vmust
g331
tp984
F1
s.