ccollections
defaultdict
p1
(c__builtin__
float
p2
tRp3
(Veloquence
S'NN'
p4
tp5
F1
s(Vindisputably
S'RB'
p6
tp7
F1
s(Vappeared
S'VBD'
p8
tp9
F1
s(S'IN'
p10
S'TO'
p11
tp12
F1
s(Vwe
S'PRP'
p13
tp14
F5
s(Vunplucked
g8
tp15
F1
s(S'NNP'
p16
S'.'
tp17
F1
s(Vopportunity
S'NN'
p18
tp19
F1
s(S'IN'
p20
S'WDT'
p21
tp22
F4
s(VFor
S'IN'
p23
tp24
F1
s(g21
g4
tp25
F3
s(S'IN'
p26
g4
tp27
F40
s(Vboldly
g6
tp28
F1
s(Vtogether
g6
tp29
F1
s(Vdiscover
g6
tp30
F1
s(g21
S'DT'
p31
tp32
F1
s(Vman
S'NN'
p33
tp34
F2
s(S'VBG'
p35
S'NNS'
p36
tp37
F2
s(Vgloomy
S'JJ'
p38
tp39
F1
s(Vcompetitor
g4
tp40
F1
s(Vcourage
g4
tp41
F1
s(Vfind
S'VBP'
p42
tp43
F1
s(Vintelligent
g38
tp44
F1
s(g36
S'.'
tp45
F4
s(Vlittle
g38
tp46
F1
s(Varises
g36
tp47
F1
s(Vpastoral
g38
tp48
F1
s(Vlike
S'IN'
p49
tp50
F1
s(S'VBN'
p51
S'PRP'
p52
tp53
F2
s(Vimitation
g4
tp54
F2
s(Vstock
S'NN'
p55
tp56
F1
s(S','
S'IN'
p57
tp58
F22
s(Valready
S'RB'
p59
tp60
F1
s(g4
g4
tp61
F3
s(Vvehicles
S'NNS'
p62
tp63
F1
s(S'JJ'
p64
S'VBZ'
p65
tp66
F1
s(S'RP'
p67
g49
tp68
F1
s(Vdescribed
g51
tp69
F1
s(S','
g8
tp70
F3
s(Vproduced
g8
tp71
F1
s(Vlady
g4
tp72
F1
s(S'DT'
p73
S'CD'
p74
tp75
F1
s(Vdeparture
g4
tp76
F1
s(Vvolubility
g4
tp77
F1
s(VShe
S'PRP'
p78
tp79
F2
s(Vtherefore
g6
tp80
F3
s(S'PRP'
p81
S'MD'
p82
tp83
F5
s(S','
S'WRB'
p84
tp85
F4
s(g81
S'WP'
p86
tp87
F1
s(Vpleasure
g4
tp88
F1
s(Vbeyond
S'IN'
p89
tp90
F1
s(Vsound
g4
tp91
F1
s(VItalian
g38
tp92
F1
s(Vavarice
g4
tp93
F1
s(g11
S'JJ'
p94
tp95
F1
s(Vperished
g8
tp96
F1
s(Vsmall
S'JJ'
p97
tp98
F1
s(Vhonours
g36
tp99
F1
s(g6
S'VBZ'
p100
tp101
F1
s(Vlikely
g38
tp102
F1
s(Vpoets
g36
tp103
F4
s(Vmultiplied
g51
tp104
F1
s(Vfable
g38
tp105
F1
s(S','
g86
tp106
F1
s(Vunderstanding
g4
tp107
F1
s(Vold
S'JJ'
p108
tp109
F1
s(Vopinions
g36
tp110
F1
s(Vcharacters
g36
tp111
F1
s(VHe
S'PRP'
p112
tp113
F1
s(Vqueen
g4
tp114
F1
s(S'EX'
p115
S'VBZ'
p116
tp117
F3
s(S'DT'
p118
g81
tp119
F1
s(Vwhether
S'IN'
p120
tp121
F1
s(Vthe
g31
tp122
F54
s(Vwith
g20
tp123
F10
s(VI
S'PRP'
p124
tp125
F1
s(Vinserted
g51
tp126
F1
s(Vhimself
S'PRP'
p127
tp128
F3
s(g100
g31
tp129
F7
s(Vvirtues
g36
tp130
F1
s(g16
S'WP'
p131
tp132
F1
s(Vfar
S'RB'
p133
tp134
F1
s(Vhow
S'WRB'
p135
tp136
F1
s(Vconfessed
g51
tp137
F2
s(Vunexhausted
g38
tp138
F1
s(g6
S'PRP$'
p139
tp140
F2
s(g100
g11
tp141
F1
s(Vor
S'CC'
p142
tp143
F7
s(Vso
g6
tp144
F6
s(Vage
S'NN'
p145
tp146
F3
s(Vattentively
g6
tp147
F1
s(Vcontent
g38
tp148
F1
s(Vcensured
g51
tp149
F1
s(Vtales
g36
tp150
F1
s(Vindebted
g38
tp151
F1
s(g21
g6
tp152
F1
s(Vthoughts
g36
tp153
F2
s(Vboth
S'DT'
p154
tp155
F1
s(Vperhaps
S'RB'
p156
tp157
F2
s(g49
g6
tp158
F5
s(g42
g11
tp159
F1
s(g8
S'IN'
p160
tp161
F3
s(Vseen
S'VBN'
p162
tp163
F1
s(S'VB'
p164
g51
tp165
F10
s(Vmore
S'RBR'
p166
tp167
F4
s(Vaccosts
g100
tp168
F1
s(S','
g42
tp169
F2
s(Vseldom
g38
tp170
F1
s(g4
g73
tp171
F6
s(S'CC'
p172
g100
tp173
F2
s(Vyouth
g4
tp174
F1
s(g172
g6
tp175
F5
s(S'JJR'
p176
g10
tp177
F3
s(Vbecoming
S'VBG'
p178
tp179
F1
s(S'RB'
p180
g38
tp181
F15
s(S'DT'
p182
g86
tp183
F1
s(Vunshaken
g38
tp184
F1
s(Vdefeated
g51
tp185
F1
s(Vnovelty
g4
tp186
F1
s(g4
g21
tp187
F1
s(Vmore
g176
tp188
F2
s(Vconveyed
g51
tp189
F1
s(Vlike
g38
tp190
F2
s(Vjustly
g6
tp191
F1
s(g84
g31
tp192
F1
s(Vand
g172
tp193
F31
s(Vscience
g4
tp194
F2
s(S','
g13
tp195
F3
s(Vtenour
g4
tp196
F1
s(Vgiving
S'VBG'
p197
tp198
F2
s(S','
S'MD'
p199
tp200
F4
s(g51
S'IN'
p201
tp202
F11
s(g6
g51
tp203
F9
s(Vcan
g199
tp204
F8
s(Vfountains
g100
tp205
F1
s(Vused
g51
tp206
F1
s(S','
g31
tp207
F6
s(Vfiction
g4
tp208
F2
s(g16
g31
tp209
F3
s(VBut
S'CC'
p210
tp211
F1
s(Vimproper
g38
tp212
F1
s(Vpassage
g4
tp213
F1
s(Vdeviate
S'VB'
p214
tp215
F1
s(Vsystems
S'NNS'
p216
tp217
F1
s(Vnarrow
g38
tp218
F2
s(Vonce
g6
tp219
F1
s(g199
g214
tp220
F16
s(Vkind
S'NN'
p221
tp222
F1
s(g197
g4
tp223
F1
s(g154
S'DT'
p224
tp225
F1
s(Vknowledge
g4
tp226
F3
s(Vearth
g4
tp227
F1
s(Vsuffering
g35
tp228
F1
s(Vferocity
g4
tp229
F1
s(Vwhen
g84
tp230
F3
s(g89
g154
tp231
F37
s(Vsheep
g38
tp232
F1
s(g166
g10
tp233
F2
s(Vnothing
S'NN'
p234
tp235
F1
s(g38
g11
tp236
F6
s(Vtraces
g36
tp237
F1
s(Vseems
S'VBZ'
p238
tp239
F1
s(Vadditions
g36
tp240
F1
s(Vcontemptuous
g38
tp241
F1
s(Vscarcely
g6
tp242
F1
s(Vvariety
g4
tp243
F1
s(Vwritten
S'VBN'
p244
tp245
F1
s(g36
g82
tp246
F1
s(Vwere
S'VBD'
p247
tp248
F3
s(Veven
g6
tp249
F1
s(Vpraises
g36
tp250
F1
s(g16
g172
tp251
F1
s(Venforcing
g35
tp252
F1
s(Vperpetual
g38
tp253
F1
s(Vthan
g10
tp254
F7
s(Vadvance
g4
tp255
F1
s(g172
g8
tp256
F1
s(Van
g154
tp257
F1
s(S':'
g49
tp258
F4
s(Vancient
g214
tp259
F1
s(S'PRP$'
p260
g4
tp261
F22
s(Vraces
g36
tp262
F1
s(S':'
S'PRP'
p263
tp264
F1
s(Vtraveller
g4
tp265
F1
s(Vstile
g4
tp266
F1
s(Vsubject
g38
tp267
F1
s(Vincidents
g36
tp268
F1
s(g201
g74
tp269
F4
s(Vwritings
g36
tp270
F1
s(Vmethods
g36
tp271
F1
s(Vhonour
g4
tp272
F1
s(S'NNS'
p273
g42
tp274
F2
s(g166
g38
tp275
F1
s(Vsearch
g4
tp276
F1
s(g38
g49
tp277
F6
s(S','
g172
tp278
F23
s(g38
S':'
tp279
F4
s(g6
S'.'
tp280
F1
s(g214
g74
tp281
F1
s(Varms
g36
tp282
F1
s(g8
g11
tp283
F4
s(Vwarrior
g38
tp284
F1
s(Vendeavours
g100
tp285
F1
s(g31
g16
tp286
F3
s(g6
g201
tp287
F5
s(Vword
S'NN'
p288
tp289
F1
s(Vown
g38
tp290
F5
s(Vpiercing
g35
tp291
F1
s(g49
g57
tp292
F4
s(Villustration
g4
tp293
F1
s(Vargument
g4
tp294
F1
s(Vnaturally
g6
tp295
F1
s(Vreason
S'NN'
p296
tp297
F1
s(g33
g131
tp298
F1
s(S'NNS'
p299
S','
tp300
F13
s(g127
g11
tp301
F3
s(S':'
g214
tp302
F1
s(Vhe
g263
tp303
F7
s(g4
S'.'
tp304
F21
s(Vacknowledged
g8
tp305
F1
s(Vunobserved
g51
tp306
F1
s(g263
g100
tp307
F8
s(Vtwo
S'CD'
p308
tp309
F1
s(g86
g273
tp310
F2
s(g214
g142
tp311
F1
s(Vanother
g118
tp312
F3
s(g244
g154
tp313
F1
s(Vhurried
g51
tp314
F1
s(g139
g38
tp315
F6
s(Vmeet
g214
tp316
F1
s(Vall
g154
tp317
F3
s(VVirgil
g16
tp318
F1
s(Vconversation
g4
tp319
F1
s(g74
g57
tp320
F2
s(g36
g36
tp321
F1
s(g21
S'MD'
p322
tp323
F1
s(S'NN'
p324
g26
tp325
F45
s(VCarthage
g16
tp326
F1
s(g4
S','
tp327
F36
s(g42
g49
tp328
F2
s(g6
g322
tp329
F1
s(Vrepeating
g35
tp330
F1
s(Vevent
S'NN'
p331
tp332
F1
s(Vthat
g21
tp333
F4
s(Vexerting
g35
tp334
F1
s(Vdeceive
g214
tp335
F1
s(Va
g224
tp336
F18
s(Vcontrive
g214
tp337
F1
s(S'MD'
p338
S','
tp339
F1
s(Vrespect
g4
tp340
F1
s(Vrhyme
g4
tp341
F1
s(g4
g166
tp342
F1
s(g42
g51
tp343
F3
s(S':'
g172
tp344
F13
s(Vencrease
g42
tp345
F1
s(g214
g139
tp346
F2
s(Vwant
g214
tp347
F1
s(S','
S'PRP$'
p348
tp349
F2
s(g6
g166
tp350
F1
s(Vbring
g214
tp351
F2
s(Vauthor
g4
tp352
F1
s(VOdyssey
g16
tp353
F1
s(Vhim
S'PRP'
p354
tp355
F4
s(Vis
g65
tp356
F12
s(Vtiresome
g214
tp357
F1
s(Vnumber
S'NN'
p358
tp359
F1
s(VGreeks
g16
tp360
F1
s(VAjax
g16
tp361
F6
s(Vsuch
g38
tp362
F1
s(S','
g115
tp363
F2
s(g115
S'VBP'
p364
tp365
F1
s(Vfurnished
g51
tp366
F1
s(S'VBN'
p367
g51
tp368
F1
s(g6
S','
tp369
F1
s(Vbeautiful
g38
tp370
F1
s(g13
g214
tp371
F2
s(Vthem
S'PRP'
p372
tp373
F2
s(Vat
g160
tp374
F6
s(Vorator
g4
tp375
F1
s(Vpower
S'NN'
p376
tp377
F3
s(Vconsider
g42
tp378
F1
s(g35
S','
tp379
F1
s(Vconstancy
g4
tp380
F1
s(Vus
S'PRP'
p381
tp382
F1
s(g182
g11
tp383
F1
s(Vterms
S'NNS'
p384
tp385
F1
s(Vproper
g38
tp386
F1
s(Vrectitude
g4
tp387
F1
s(VEven
g6
tp388
F1
s(Vhitherto
g6
tp389
F1
s(Vdistribution
S'NN'
p390
tp391
F1
s(Vtenderness
g4
tp392
F1
s(Vsurely
g6
tp393
F2
s(g38
S','
tp394
F7
s(Vbeen
g367
tp395
F2
s(VProvidence
g16
tp396
F1
s(g38
S'NN'
p397
tp398
F34
s(Vobliquity
g4
tp399
F1
s(Vunited
g8
tp400
F1
s(Vhope
g4
tp401
F1
s(Vturns
g100
tp402
F2
s(g64
g38
tp403
F1
s(g11
g36
tp404
F1
s(Vpresent
g38
tp405
F1
s(g154
g139
tp406
F1
s(Vpredecessors
g36
tp407
F1
s(g164
g38
tp408
F4
s(Vcould
g322
tp409
F3
s(Vsplendor
g4
tp410
F1
s(VUlysses
g36
tp411
F3
s(Vinstruction
g4
tp412
F1
s(Vmute
g4
tp413
F1
s(g214
g31
tp414
F7
s(VDido
g16
tp415
F2
s(g11
g4
tp416
F1
s(Vadmit
g214
tp417
F1
s(Vdifficult
S'JJ'
p418
tp419
F1
s(Vsince
S'IN'
p420
tp421
F1
s(Vlength
g4
tp422
F1
s(Vimproprieties
g36
tp423
F1
s(Vthese
S'DT'
p424
tp425
F1
s(Vburden
g4
tp426
F1
s(Vour
g260
tp427
F5
s(Vthousand
g38
tp428
F2
s(VHomeric
g16
tp429
F1
s(Vone
g74
tp430
F6
s(Vconceived
g51
tp431
F1
s(g4
g364
tp432
F1
s(g6
g182
tp433
F4
s(g21
g100
tp434
F2
s(Vno
g154
tp435
F6
s(Valmost
S'RB'
p436
tp437
F1
s(g214
g354
tp438
F1
s(Vpraise
g4
tp439
F1
s(Vnor
S'CC'
p440
tp441
F2
s(S','
g11
tp442
F2
s(g21
g8
tp443
F1
s(g10
g127
tp444
F11
s(Vcollective
g38
tp445
F1
s(g127
S','
tp446
F2
s(Vseldom
g214
tp447
F1
s(Vdue
g38
tp448
F2
s(g214
g201
tp449
F4
s(Vbeauties
g36
tp450
F1
s(V:
S':'
tp451
F1
s(Vpart
S'NN'
p452
tp453
F1
s(g42
S'.'
tp454
F1
s(VRomans
S'NNPS'
p455
tp456
F1
s(g372
S'IN'
p457
tp458
F5
s(g4
g16
tp459
F1
s(Vear
g4
tp460
F1
s(Vtravels
g36
tp461
F1
s(Vrecesses
g100
tp462
F1
s(g214
g16
tp463
F1
s(Vthere
g115
tp464
F3
s(g8
S'NN'
p465
tp466
F1
s(Vnone
g4
tp467
F1
s(Vhaughty
g4
tp468
F1
s(Vhas
S'VBZ'
p469
tp470
F6
s(Valways
S'RB'
p471
tp472
F2
s(g172
g16
tp473
F3
s(Vlearning
g35
tp474
F1
s(Vbooks
g299
tp475
F1
s(g4
g11
tp476
F6
s(Vhaired
g4
tp477
F1
s(g74
g118
tp478
F1
s(g166
g6
tp479
F1
s(g57
g16
tp480
F8
s(g180
g6
tp481
F4
s(g112
S'RB'
p482
tp483
F3
s(Vthousand
g4
tp484
F2
s(Vtravel
g42
tp485
F1
s(Vfrom
g457
tp486
F5
s(Vfields
g36
tp487
F1
s(Vfollowing
g35
tp488
F1
s(Vway
S'NN'
p489
tp490
F1
s(Vpaths
g36
tp491
F1
s(Vallowed
g51
tp492
F1
s(Vpleasing
g38
tp493
F1
s(Vso
g49
tp494
F1
s(g16
g8
tp495
F2
s(Vdenunciation
g4
tp496
F1
s(Vparticle
g4
tp497
F1
s(Vassistance
g4
tp498
F1
s(Vworld
g324
tp499
F1
s(g51
S':'
tp500
F1
s(g11
g164
tp501
F25
s(g6
g36
tp502
F1
s(g4
g51
tp503
F3
s(g11
g31
tp504
F11
s(g36
g172
tp505
F2
s(g36
g65
tp506
F1
s(S'VBD'
p507
g348
tp508
F2
s(Vendeavoured
g8
tp509
F1
s(Vbe
g164
tp510
F12
s(Vpeculiarities
g36
tp511
F1
s(g36
g11
tp512
F5
s(g154
g21
tp513
F1
s(Vclaims
g100
tp514
F1
s(Vgive
g42
tp515
F1
s(g164
g166
tp516
F1
s(g38
S'CC'
p517
tp518
F4
s(g364
g180
tp519
F6
s(Vlearning
g4
tp520
F1
s(Vfollow
g214
tp521
F2
s(g36
g224
tp522
F1
s(g118
S','
tp523
F2
s(Vany
S'DT'
p524
tp525
F6
s(Vexcelled
g8
tp526
F1
s(g142
g35
tp527
F2
s(g154
g57
tp528
F1
s(Vinfluence
g4
tp529
F1
s(g11
g348
tp530
F1
s(Vfavoured
g51
tp531
F1
s(Vexpress
g214
tp532
F1
s(Vmay
S'MD'
p533
tp534
F2
s(g11
g131
tp535
F1
s(g38
g36
tp536
F17
s(VOne
g74
tp537
F1
s(Vregard
g4
tp538
F1
s(g13
g42
tp539
F7
s(S','
g4
tp540
F3
s(g31
g4
tp541
F49
s(VIliad
g16
tp542
F1
s(Vsome
S'DT'
p543
tp544
F3
s(Vassisted
g51
tp545
F1
s(Vburst
g51
tp546
F1
s(g57
g260
tp547
F11
s(Vimprove
g214
tp548
F1
s(g20
S'MD'
p549
tp550
F2
s(Vunpleasing
g38
tp551
F1
s(Vpersidy
g4
tp552
F1
s(Vassertions
g36
tp553
F1
s(Vpainter
g4
tp554
F1
s(Vinjured
g38
tp555
F1
s(Vhero
g4
tp556
F1
s(Vancients
g36
tp557
F1
s(g156
g74
tp558
F1
s(g42
g154
tp559
F2
s(VIn
g49
tp560
F1
s(Vemploy
g214
tp561
F1
s(Vtermination
g4
tp562
F1
s(g74
g4
tp563
F3
s(Vboundless
g4
tp564
F1
s(Vothers
g273
tp565
F2
s(Vwalked
g8
tp566
F1
s(Vevident
g38
tp567
F1
s(g517
S'PRP$'
p568
tp569
F3
s(Vappears
g116
tp570
F1
s(g8
g38
tp571
F2
s(Vwhere
S'WRB'
p572
tp573
F1
s(Varts
g36
tp574
F1
s(g142
S'JJ'
p575
tp576
F3
s(Vall
S'PDT'
p577
tp578
F2
s(Vin
g201
tp579
F20
s(g6
g42
tp580
F1
s(VItalians
g455
tp581
F1
s(Vgreatest
S'JJS'
p582
tp583
F1
s(Vare
g364
tp584
F6
s(Vshewn
g51
tp585
F1
s(Vshe
S'PRP'
p586
tp587
F1
s(Vimmoveable
g38
tp588
F1
s(g4
S'JJ'
p589
tp590
F1
s(g21
g81
tp591
F5
s(Vresent
g214
tp592
F1
s(Vtheir
g139
tp593
F5
s(g214
S','
tp594
F3
s(Vclaim
g42
tp595
F1
s(Vclamour
g4
tp596
F1
s(Vdominion
g4
tp597
F1
s(g23
S','
tp598
F1
s(Vconvenient
g4
tp599
F1
s(g65
g160
tp600
F1
s(Vhave
g214
tp601
F5
s(g199
g180
tp602
F4
s(Vmuch
g214
tp603
F1
s(g31
g38
tp604
F27
s(g38
S'.'
tp605
F3
s(g36
g21
tp606
F4
s(Vdignity
g4
tp607
F1
s(VSpenser
g16
tp608
F1
s(V.
S'.'
tp609
F33
s(Vbeing
S'VBG'
p610
tp611
F1
s(S','
g6
tp612
F2
s(Vtale
g4
tp613
F1
s(g247
g51
tp614
F6
s(S'WRB'
p615
g4
tp616
F1
s(g172
g120
tp617
F7
s(Vexamine
g214
tp618
F1
s(g214
g577
tp619
F1
s(Vpoint
g4
tp620
F1
s(Vteach
g214
tp621
F1
s(g214
g176
tp622
F2
s(Vinhabitants
g36
tp623
F1
s(Vremember
g214
tp624
F1
s(VAchilles
g36
tp625
F1
s(Vdisgrace
g4
tp626
F1
s(Vinventor
g4
tp627
F1
s(S','
g51
tp628
F1
s(Vthat
g154
tp629
F4
s(g524
g517
tp630
F1
s(Vperiod
S'NN'
p631
tp632
F1
s(g86
S','
tp633
F1
s(S':'
g6
tp634
F1
s(Vother
g64
tp635
F5
s(Vobliges
g36
tp636
F1
s(Vconduct
g4
tp637
F1
s(Vaway
g6
tp638
F3
s(g65
g38
tp639
F5
s(Vunexplored
g38
tp640
F1
s(Vaccordingly
g6
tp641
F1
s(g260
g36
tp642
F6
s(Vreply
g4
tp643
F1
s(Vdiction
g4
tp644
F2
s(g8
S','
tp645
F1
s(S'DT'
p646
g455
tp647
F2
s(Vlearn
g214
tp648
F1
s(g100
g52
tp649
F3
s(S','
g36
tp650
F2
s(g482
g8
tp651
F1
s(Vblamed
g51
tp652
F1
s(g162
g517
tp653
F1
s(Veither
g154
tp654
F1
s(g51
g11
tp655
F5
s(Vsilence
g4
tp656
F2
s(Vas
g49
tp657
F7
s(Vhearers
g36
tp658
F1
s(Vdirections
g36
tp659
F1
s(g31
g36
tp660
F18
s(g172
g21
tp661
F1
s(VTroy
g16
tp662
F2
s(g35
g31
tp663
F6
s(g35
g10
tp664
F1
s(S'NN'
p665
g214
tp666
F1
s(Vrecommending
g35
tp667
F1
s(g154
g35
tp668
F1
s(g74
g65
tp669
F1
s(Vgain
g214
tp670
F1
s(Vfollowed
g8
tp671
F1
s(Vshould
g549
tp672
F2
s(Voriginal
g38
tp673
F1
s(Vby
S'IN'
p674
tp675
F15
s(Vinfinitely
g6
tp676
F1
s(Vshine
g214
tp677
F1
s(Vgave
g507
tp678
F1
s(Vattempted
g51
tp679
F1
s(Vpropriety
g4
tp680
F1
s(g51
S','
tp681
F10
s(Vanger
g4
tp682
F1
s(Vsubmission
g4
tp683
F1
s(Vprofess
g42
tp684
F1
s(Vjudgment
g4
tp685
F1
s(Vher
g568
tp686
F2
s(Vadjudged
g51
tp687
F1
s(Vimagery
g4
tp688
F1
s(Vto
g11
tp689
F43
s(g57
g178
tp690
F14
s(g172
g51
tp691
F1
s(Vwonder
g214
tp692
F1
s(S','
g65
tp693
F3
s(g273
g6
tp694
F2
s(Vher
g52
tp695
F1
s(Vregions
g36
tp696
F1
s(Vstanza
g4
tp697
F4
s(S','
g21
tp698
F6
s(Vmakes
S'VBZ'
p699
tp700
F1
s(g31
g582
tp701
F1
s(Vevery
g73
tp702
F4
s(Vallusions
g36
tp703
F1
s(g51
S'JJR'
p704
tp705
F1
s(Vcombinations
g36
tp706
F1
s(Vburlesque
g4
tp707
F1
s(Vfaculties
g36
tp708
F1
s(Vmen
S'NNS'
p709
tp710
F1
s(Vtimes
g36
tp711
F1
s(g469
g51
tp712
F5
s(Vequally
g6
tp713
F1
s(g172
g36
tp714
F3
s(g36
g8
tp715
F4
s(Vskill
g4
tp716
F1
s(g31
S'RBS'
p717
tp718
F1
s(Vgrave
g4
tp719
F1
s(Vwomen
S'NNS'
p720
tp721
F1
s(Vsingle
S'JJ'
p722
tp723
F1
s(g214
g36
tp724
F2
s(VThe
g646
tp725
F5
s(Vbecause
g49
tp726
F1
s(g36
g201
tp727
F28
s(Vtowards
g36
tp728
F1
s(Vsimilar
S'JJ'
p729
tp730
F1
s(Vyet
g6
tp731
F2
s(Vemployed
g51
tp732
F1
s(g577
g224
tp733
F4
s(Vmight
g338
tp734
F3
s(Vimbecillity
g4
tp735
F1
s(g717
g38
tp736
F1
s(Vtongue
g4
tp737
F2
s(Vthey
g81
tp738
F9
s(Vcomposition
g4
tp739
F1
s(Vallotted
g51
tp740
F1
s(Vlabour
g4
tp741
F1
s(Vdeserves
g36
tp742
F1
s(Vdisdain
g4
tp743
F1
s(g81
g8
tp744
F8
s(Vtime
g665
tp745
F3
s(Vdifferent
S'JJ'
p746
tp747
F1
s(Vfor
S'IN'
p748
tp749
F5
s(Vextending
g35
tp750
F1
s(Vacrimony
g4
tp751
F1
s(g8
g6
tp752
F4
s(Vthough
g49
tp753
F1
s(g51
g436
tp754
F4
s(Vaudience
S'NN'
p755
tp756
F1
s(Vthose
g182
tp757
F3
s(Vart
g4
tp758
F1
s(g42
g135
tp759
F1
s(g42
S','
tp760
F1
s(g42
g260
tp761
F1
s(Vlittle
g6
tp762
F1
s(Vtreasures
g36
tp763
F1
s(Vflowers
g36
tp764
F1
s(Vreproach
g4
tp765
F1
s(Vdied
g51
tp766
F1
s(g42
g372
tp767
F1
s(Vresembles
g100
tp768
F1
s(Vrhymes
g36
tp769
F2
s(Vconsidered
g51
tp770
F2
s(Vwho
g86
tp771
F3
s(g582
g358
tp772
F1
s(Vpossibility
S'NN'
p773
tp774
F1
s(Vsword
g4
tp775
F1
s(Vcopying
g35
tp776
F1
s(g100
S':'
tp777
F1
s(Vveneration
g4
tp778
F1
s(Vprevailed
g51
tp779
F1
s(Vintellects
g36
tp780
F1
s(Vbut
g517
tp781
F14
s(g214
g11
tp782
F2
s(Vpronounces
g100
tp783
F1
s(V,
S','
tp784
F93
s(g38
g51
tp785
F1
s(g199
g13
tp786
F1
s(g180
g214
tp787
F4
s(Vloss
S'NN'
p788
tp789
F1
s(g178
g38
tp790
F2
s(g364
g38
tp791
F1
s(g51
S'.'
tp792
F2
s(Vwords
S'NNS'
p793
tp794
F3
s(Vsupplies
g36
tp795
F1
s(Vforeign
g94
tp796
F1
s(Vonly
g38
tp797
F1
s(Vsolider
g4
tp798
F1
s(g214
S':'
tp799
F2
s(Veither
g214
tp800
F1
s(Vornament
g4
tp801
F1
s(Vfixed
g51
tp802
F1
s(Vwars
g36
tp803
F1
s(Vadaptation
g4
tp804
F1
s(Vattention
S'NN'
p805
tp806
F1
s(Vapplaud
g4
tp807
F1
s(Vsame
S'JJ'
p808
tp809
F3
s(Vcomprehend
g214
tp810
F1
s(Vuniformity
g4
tp811
F1
s(g6
g11
tp812
F3
s(g517
g115
tp813
F1
s(g4
S':'
tp814
F8
s(g131
g263
tp815
F1
s(Vwhom
g131
tp816
F3
s(Vdisappointment
g4
tp817
F1
s(g135
g6
tp818
F1
s(Vof
g57
tp819
F61
s(Vnew
g575
tp820
F3
s(Vsupply
g214
tp821
F1
s(Vspecies
g36
tp822
F1
s(g8
g31
tp823
F3
s(Vforced
g51
tp824
F1
s(VAt
S'IN'
p825
tp826
F1
s(Vsometimes
g6
tp827
F1
s(Vit
g52
tp828
F5
s(Vdisplay
g214
tp829
F1
s(g16
g201
tp830
F1
s(g36
S':'
tp831
F3
s(Vqualities
g36
tp832
F1
s(Vwas
g8
tp833
F7
s(Vgraces
g36
tp834
F1
s(Vimagination
g4
tp835
F2
s(g11
g577
tp836
F1
s(g704
S'NN'
p837
tp838
F1
s(Vescape
g214
tp839
F1
s(Vinto
g26
tp840
F2
s(g172
g4
tp841
F8
s(Vwhy
g615
tp842
F1
s(Vsullenness
g4
tp843
F1
s(VThis
S'DT'
p844
tp845
F1
s(g16
g36
tp846
F1
s(Videal
g38
tp847
F1
s(g131
g16
tp848
F1
s(Vadd
g214
tp849
F1
s(Vout
g67
tp850
F1
s(g51
g67
tp851
F1
s(Vuniversal
g4
tp852
F1
s(g172
g31
tp853
F5
s(g11
g372
tp854
F1
s(g455
g364
tp855
F2
s(Vdeveloved
g8
tp856
F1
s(Vunlettered
g38
tp857
F1
s(Vallegory
g4
tp858
F2
s(Vrestraint
g4
tp859
F1
s(Vstill
g482
tp860
F1
s(Vwhich
g21
tp861
F14
s(Vsuch
g577
tp862
F2
s(Vmost
g717
tp863
F1
s(Vend
g42
tp864
F1
s(Vconceived
g8
tp865
F1
s(g674
g299
tp866
F7
s(Vvery
g6
tp867
F2
s(Vforsake
g214
tp868
F1
s(Vexpect
g214
tp869
F1
s(g65
S','
tp870
F2
s(Vpacify
g214
tp871
F1
s(Vlost
g51
tp872
F1
s(Vtruth
g4
tp873
F2
s(Vmode
g4
tp874
F1
s(Vupon
g49
tp875
F1
s(Vpractice
g465
tp876
F1
s(Vdumb
g38
tp877
F1
s(Vdarkened
g38
tp878
F1
s(Von
S'IN'
p879
tp880
F2
s(Vhad
g8
tp881
F3
s(Vam
S'VBP'
p882
tp883
F1
s(g74
g533
tp884
F1
s(S'NNP'
p885
g6
tp886
F1
s(Vnecessity
g4
tp887
F1
s(Vfew
S'JJ'
p888
tp889
F1
s(Vremote
g38
tp890
F1
s(Vstrength
g837
tp891
F1
s(Vits
g568
tp892
F4
s(Vobserved
g51
tp893
F1
s(Vidleness
g4
tp894
F1
s(Vuse
g4
tp895
F1
s(Vsuperior
g38
tp896
F1
s(Vlanguage
S'NN'
p897
tp898
F3
s(g517
g586
tp899
F2
s(VJohnson
g885
tp900
F1
s(Veminently
g6
tp901
F1
s(Vhis
g348
tp902
F15
s(Vheroes
g36
tp903
F1
s(Vfirst
g38
tp904
F1
s(VThere
S'EX'
p905
tp906
F1
s(g84
g263
tp907
F3
s(Vpeculiarly
g6
tp908
F1
s(g65
g6
tp909
F7
s(S','
g577
tp910
F2
s(Vexcuses
g100
tp911
F1
s(Vbesides
g100
tp912
F1
s(V;
S':'
tp913
F19
s(Vmaking
g35
tp914
F2
s(Vamorous
g38
tp915
F1
s(Voverborn
g51
tp916
F1
s(g131
g348
tp917
F1
s(g214
g6
tp918
F3
s(Vmuch
g38
tp919
F3
s(g214
g214
tp920
F2
s(g517
g11
tp921
F3
s(g38
g16
tp922
F2
s(Vthis
S'DT'
p923
tp924
F1
s(g55
g8
tp925
F7
s(g142
g214
tp926
F1
s(g440
g199
tp927
F2
s(g457
g575
tp928
F15
s(g21
g260
tp929
F1
s(Vhereditary
g38
tp930
F1
s(Vwhat
g86
tp931
F2
s(g4
g65
tp932
F9
s(g21
g364
tp933
F2
s(Vgenius
g4
tp934
F3
s(Vclaims
g36
tp935
F1
s(Vvision
g4
tp936
F1
s(g21
S','
tp937
F1
s(g86
g42
tp938
F2
s(VHis
S'PRP$'
p939
tp940
F3
s(Vschools
S'NNS'
p941
tp942
F1
s(g4
g549
tp943
F5
s(Vgreater
g704
tp944
F1
s(Vdiversified
g38
tp945
F1
s(Vthat
g49
tp946
F8
s(g214
g86
tp947
F2
s(Vprevail
g214
tp948
F1
s(g214
g4
tp949
F1
s(g6
g81
tp950
F2
s(Vancient
g4
tp951
F1
s(g4
g6
tp952
F2
s(Vfear
g4
tp953
F1
s(Vbusied
g8
tp954
F1
s(Vthemselves
S'PRP'
p955
tp956
F1
s(Vtired
g51
tp957
F1
s(Vfabulous
g38
tp958
F1
s(Vhave
g42
tp959
F3
s(Vwithout
S'IN'
p960
tp961
F4
s(Voften
S'RB'
p962
tp963
F1
s(Vsucceeding
g35
tp964
F1
s(Vwiser
g176
tp965
F1
s(Venemy
g4
tp966
F1
s(Vmadness
g4
tp967
F1
s(Vrude
g42
tp968
F1
s(g35
g348
tp969
F4
s(Vhand
S'NN'
p970
tp971
F1
s(Vcommon
S'JJ'
p972
tp973
F2
s(g52
g572
tp974
F1
s(VIf
S'IN'
p975
tp976
F1
s(Vsentiments
g36
tp977
F1
s(Vnot
g180
tp978
F5
s(Vteach
g42
tp979
F1
s(Vrarely
g6
tp980
F1
s(Vsparkling
g38
tp981
F1
s(Vvicious
g38
tp982
F1
s(Vrecurrence
g4
tp983
F1
s(Vonly
g6
tp984
F4
s(g118
S':'
tp985
F1
s(g4
g172
tp986
F8
s(g4
g36
tp987
F5
s(Vparticular
g38
tp988
F1
s(Vphrase
g4
tp989
F1
s(Vfound
g51
tp990
F1
s(Vresentment
g4
tp991
F1
s(g16
S','
tp992
F8
s(Vknown
g51
tp993
F1
s(g4
g127
tp994
F1
s(g16
g469
tp995
F1
s(VMilton
g16
tp996
F1
s(Vsense
g4
tp997
F1
s(VIt
S'PRP'
p998
tp999
F2
s(Vfromed
g51
tp1000
F1
s(Vuniform
g38
tp1001
F1
s(g8
g955
tp1002
F1
s(g172
S','
tp1003
F2
s(Vfull
g589
tp1004
F1
s(Vinventions
g36
tp1005
F1
s(Vbusiness
g397
tp1006
F1
s(Vdiversity
g4
tp1007
F1
s(Vwholly
g6
tp1008
F1
s(Vchief
g4
tp1009
F1
s(Vable
S'JJ'
p1010
tp1011
F2
s(Vmust
g82
tp1012
F4
s.