ccollections
defaultdict
p1
(c__builtin__
float
p2
tRp3
(S'VBP'
p4
S'NNP'
p5
tp6
F2
s(S'CC'
p7
S'RBR'
p8
tp9
F3
s(S'IN'
p10
S'TO'
p11
tp12
F1
s(Vpoet
S'NN'
p13
tp14
F4
s(Vwe
S'PRP'
p15
tp16
F7
s(S'IN'
p17
S'WDT'
p18
tp19
F5
s(Vdo
g4
tp20
F2
s(VFor
S'IN'
p21
tp22
F2
s(Vpleased
S'VBN'
p23
tp24
F1
s(g8
g7
tp25
F2
s(Vsyllable
g13
tp26
F1
s(S'IN'
p27
g13
tp28
F22
s(Vweak
S'JJ'
p29
tp30
F3
s(Vtogether
S'RB'
p31
tp32
F2
s(Vuncrop
S'JJ'
p33
tp34
F2
s(g18
S'DT'
p35
tp36
F6
s(Vstudious
g33
tp37
F1
s(S'CC'
p38
S'JJR'
p39
tp40
F1
s(Vmoved
g23
tp41
F1
s(Vmakes
S'VBZ'
p42
tp43
F1
s(Vdesire
g13
tp44
F1
s(S'NNS'
p45
S'.'
tp46
F3
s(Vsenses
g45
tp47
F1
s(Vrequired
S'VBD'
p48
tp49
F1
s(S','
g10
tp50
F17
s(Valready
S'RB'
p51
tp52
F2
s(g13
g13
tp53
F12
s(g33
g13
tp54
F51
s(Vretrograde
S'VB'
p55
tp56
F1
s(S'DT'
p57
g5
tp58
F2
s(Vgiven
S'VBN'
p59
tp60
F2
s(S','
g48
tp61
F1
s(Vundertook
g4
tp62
F1
s(VTo
S'TO'
p63
tp64
F2
s(S'PRP'
p65
S'CD'
p66
tp67
F1
s(Vthat
g18
tp68
F4
s(V-This
g4
tp69
F1
s(Vtherefore
g31
tp70
F4
s(S'PRP'
p71
S'MD'
p72
tp73
F3
s(S','
S'WRB'
p74
tp75
F3
s(Vpowers
g45
tp76
F1
s(S'PRP'
p77
S'VB'
p78
tp79
F1
s(Vverses
g45
tp80
F1
s(Vpeculiar
g33
tp81
F1
s(Vsound
g13
tp82
F2
s(Vair
g13
tp83
F2
s(Vdisposition
g13
tp84
F1
s(S'VBZ'
p85
S'NNPS'
p86
tp87
F2
s(S':'
g33
tp88
F2
s(S'RB'
p89
S'VBZ'
p90
tp91
F3
s(Vsecond
g33
tp92
F6
s(Vsonnet
g13
tp93
F1
s(Vdirectly
S'RB'
p94
tp95
F1
s(Vobservations
g45
tp96
F1
s(S','
S'WP'
p97
tp98
F2
s(Vinvented
g23
tp99
F1
s(Vfrom
S'IN'
p100
tp101
F5
s(Vexcepting
S'VBG'
p102
tp103
F1
s(Vaudience
S'NN'
p104
tp105
F1
s(S'RBS'
p106
g45
tp107
F1
s(g33
S'MD'
p108
tp109
F2
s(VThus
g31
tp110
F2
s(Vninth
g33
tp111
F1
s(V'd
g13
tp112
F1
s(Vthe
g35
tp113
F82
s(Vwith
S'IN'
p114
tp115
F9
s(VI
g71
tp116
F2
s(Vhimself
S'PRP'
p117
tp118
F1
s(Vwill
g108
tp119
F6
s(Vdarkness
g13
tp120
F1
s(S':'
S'WRB'
p121
tp122
F2
s(VWhich
g5
tp123
F2
s(Vopposed
g23
tp124
F1
s(Vhow
S'WRB'
p125
tp126
F1
s(Vremarkably
g31
tp127
F2
s(VDryden
g5
tp128
F1
s(Vor
g7
tp129
F8
s(Vviolated
g23
tp130
F1
s(Vage
S'NN'
p131
tp132
F1
s(Vwings
g45
tp133
F2
s(S'CD'
p134
S','
tp135
F1
s(Vfinite
g13
tp136
F1
s(Vpoetical
g33
tp137
F1
s(Vparagraphs
g13
tp138
F1
s(Vlife
S'NN'
p139
tp140
F1
s(Vthou
g55
tp141
F2
s(S'VBP'
p142
g13
tp143
F1
s(g108
g17
tp144
F3
s(Vboth
S'DT'
p145
tp146
F8
s(S'IN'
p147
g31
tp148
F7
s(g23
S'.'
tp149
F1
s(Vstarry
g33
tp150
F1
s(Vdistichs
g13
tp151
F1
s(Vwere
S'VBD'
p152
tp153
F1
s(Vtyranny
g13
tp154
F1
s(g78
g23
tp155
F9
s(Vmore
g8
tp156
F5
s(S'VBZ'
p157
g66
tp158
F1
s(Vplace
g13
tp159
F3
s(S'NN'
p160
g35
tp161
F1
s(Vnow
S'RB'
p162
tp163
F2
s(g114
g125
tp164
F1
s(S'MD'
p165
g77
tp166
F1
s(S'RB'
p167
g55
tp168
F7
s(Vmad'st
g48
tp169
F2
s(g39
g39
tp170
F1
s(S'DT'
p171
g108
tp172
F1
s(S'RB'
p173
g33
tp174
F11
s(Vrevels
g45
tp175
F1
s(g145
S'PRP$'
p176
tp177
F1
s(g13
g18
tp178
F2
s(Vsingle
S'JJ'
p179
tp180
F3
s(Vconveyed
g23
tp181
F1
s(Vand
g38
tp182
F41
s(S','
S'PRP'
p183
tp184
F3
s(S','
g108
tp185
F4
s(g23
g17
tp186
F17
s(g31
g23
tp187
F9
s(Vcan
S'MD'
p188
tp189
F3
s(Vpure
g33
tp190
F2
s(S','
g35
tp191
F9
s(g176
g23
tp192
F1
s(Vpassage
g13
tp193
F1
s(Vdeviate
g55
tp194
F1
s(Vfill
g55
tp195
F2
s(Vpurple
g33
tp196
F1
s(S':'
g4
tp197
F1
s(Vdialect
g13
tp198
F1
s(Vblessedness
g13
tp199
F1
s(g31
g71
tp200
F1
s(g108
g78
tp201
F18
s(Vproportionate
g33
tp202
F1
s(g102
g13
tp203
F1
s(S'DT'
p204
g35
tp205
F2
s(Vknowledge
g13
tp206
F1
s(Vfainter
g13
tp207
F1
s(Vaberration
g13
tp208
F1
s(Vearth
g13
tp209
F4
s(Vdisgusting
g13
tp210
F1
s(Vwhen
g74
tp211
F7
s(g125
g33
tp212
F3
s(g10
g35
tp213
F56
s(Vrectify
g33
tp214
F1
s(g4
g108
tp215
F2
s(Vitself
S'PRP'
p216
tp217
F1
s(Vnotice
g13
tp218
F1
s(Vinvention
g13
tp219
F1
s(Vlarge
S'JJ'
p220
tp221
F2
s(Vstudiously
g31
tp222
F1
s(Vpair
g13
tp223
F4
s(g33
g11
tp224
F3
s(Vbarely
g31
tp225
F1
s(Vcadences
g45
tp226
F1
s(Vcriticks
g45
tp227
F1
s(Vscarcely
g31
tp228
F1
s(Vadds
S'VBZ'
p229
tp230
F1
s(Vuncertain
g33
tp231
F1
s(Vopposite
g31
tp232
F1
s(S'POS'
p233
g5
tp234
F1
s(g48
g114
tp235
F1
s(V-
S':'
tp236
F1
s(Vsee
g55
tp237
F1
s(g33
g66
tp238
F3
s(Vopen
g33
tp239
F2
s(Vperpetual
g33
tp240
F1
s(g45
g55
tp241
F1
s(Vthan
S'IN'
p242
tp243
F3
s(g45
g188
tp244
F2
s(g38
g48
tp245
F5
s(Vthird
g33
tp246
F1
s(Vover
g10
tp247
F1
s(V'd
g108
tp248
F8
s(Van
g145
tp249
F2
s(Vmusick
g13
tp250
F2
s(S':'
g10
tp251
F2
s(S':'
S'DT'
p252
tp253
F3
s(S'PRP$'
p254
S'NN'
p255
tp256
F6
s(Vfault
g13
tp257
F1
s(Vtwo
g66
tp258
F4
s(Vsmile
g13
tp259
F1
s(Vtraveller
g13
tp260
F1
s(Vsubstantial
S'JJ'
p261
tp262
F1
s(g33
g48
tp263
F1
s(S'IN'
p264
g134
tp265
F2
s(Vreading
g102
tp266
F1
s(Vcadence
g13
tp267
F1
s(Vwork
g13
tp268
F1
s(g8
g33
tp269
F5
s(g5
g13
tp270
F7
s(g33
g27
tp271
F9
s(g220
S':'
tp272
F2
s(Vsyllables
g45
tp273
F6
s(VPartakers
g86
tp274
F2
s(V's
g233
tp275
F1
s(Vour
g176
tp276
F3
s(Vpassed
g48
tp277
F1
s(g13
g33
tp278
F1
s(Vtaste
g13
tp279
F1
s(VHave
g5
tp280
F1
s(Vemploys
g90
tp281
F1
s(VAnd
S'CC'
p282
tp283
F5
s(S'RB'
p284
g10
tp285
F11
s(g10
g114
tp286
F2
s(V\u005c
g13
tp287
F4
s(g45
g38
tp288
F1
s(Vreason
S'NN'
p289
tp290
F1
s(Vharmless
g33
tp291
F1
s(Vbliss
g13
tp292
F1
s(g45
S','
tp293
F11
s(Vmixed
g33
tp294
F2
s(Vhe
g183
tp295
F4
s(g13
S'.'
tp296
F22
s(g183
g229
tp297
F3
s(Vglobe
g13
tp298
F1
s(Vextol
g4
tp299
F2
s(g55
g7
tp300
F1
s(Vanother
S'DT'
p301
tp302
F2
s(g142
g102
tp303
F1
s(Vaccent
g13
tp304
F6
s(Vvoluntary
g33
tp305
F1
s(g254
S'JJ'
p306
tp307
F6
s(Vall
g145
tp308
F1
s(S','
S'JJ'
p309
tp310
F5
s(g102
g45
tp311
F1
s(g134
S'IN'
p312
tp313
F1
s(g10
S'PDT'
p314
tp315
F1
s(g18
g165
tp316
F2
s(Vgrossly
g31
tp317
F1
s(Vprecepts
g45
tp318
F1
s(Vunusual
S'JJ'
p319
tp320
F1
s(g13
g27
tp321
F45
s(Vsuperiority
g13
tp322
F1
s(g131
S','
tp323
F52
s(Vlights
g90
tp324
F1
s(VAs
g10
tp325
F1
s(Vread
g23
tp326
F1
s(Va
S'DT'
p327
tp328
F11
s(g108
S','
tp329
F1
s(Vseldom
g13
tp330
F1
s(Vrespect
g13
tp331
F1
s(Vhorizon
g13
tp332
F1
s(S':'
g38
tp333
F4
s(Vcontinual
g33
tp334
F1
s(g39
g13
tp335
F1
s(Vmerely
g31
tp336
F1
s(Vgenerally
S'RB'
p337
tp338
F1
s(g55
g254
tp339
F2
s(g55
g13
tp340
F2
s(g48
g35
tp341
F6
s(Vauthor
g13
tp342
F1
s(Vmany
S'JJ'
p343
tp344
F1
s(Vhim
S'PRP'
p345
tp346
F3
s(Vis
S'VBZ'
p347
tp348
F15
s(g117
g59
tp349
F2
s(S'NNS'
p350
g142
tp351
F3
s(S'EX'
p352
g142
tp353
F2
s(g13
S'RP'
p354
tp355
F1
s(g108
g38
tp356
F1
s(Vjoyless
g13
tp357
F1
s(g33
g97
tp358
F2
s(S'VBN'
p359
g23
tp360
F1
s(S'RB'
p361
S','
tp362
F6
s(Vat
g147
tp363
F5
s(g157
g39
tp364
F1
s(Vwearied
g23
tp365
F1
s(Vwithout
S'IN'
p366
tp367
F3
s(Vperceptible
g33
tp368
F1
s(V'
S"''"
p369
tp370
F1
s(Varriv
g13
tp371
F2
s(Vfourth
S'JJ'
p372
tp373
F2
s(Vpassions
g45
tp374
F1
s(g33
S','
tp375
F9
s(g13
g78
tp376
F1
s(Vnearer
g33
tp377
F1
s(Vdefects
g45
tp378
F1
s(Vshady
g33
tp379
F2
s(Vbeen
g359
tp380
F1
s(g13
g369
tp381
F1
s(Vmoon
g13
tp382
F1
s(g97
g108
tp383
F4
s(Vinverted
g23
tp384
F1
s(Vline
S'NN'
p385
tp386
F5
s(Vhere
g89
tp387
F2
s(Vperceive
g55
tp388
F1
s(Vcommitting
g102
tp389
F1
s(Vthoughts
g45
tp390
F1
s(g78
g33
tp391
F2
s(g55
S'DT'
p392
tp393
F8
s(g233
g13
tp394
F1
s(Vdelicious
g33
tp395
F2
s(Vdangers
g45
tp396
F1
s(S'NN'
p397
g63
tp398
F4
s(g4
S'PRP$'
p399
tp400
F1
s(Vvariation
g13
tp401
F1
s(Vunequal
g33
tp402
F1
s(Vtopicks
g45
tp403
F1
s(Vcomplete
g33
tp404
F1
s(Vcommitted
g23
tp405
F1
s(Vone
g134
tp406
F3
s(g13
g142
tp407
F2
s(g31
g35
tp408
F2
s(g18
g347
tp409
F1
s(Vperception
g13
tp410
F1
s(Vthee
g13
tp411
F1
s(g13
g5
tp412
F3
s(g55
g345
tp413
F3
s(Vmusical
g33
tp414
F1
s(S','
g11
tp415
F1
s(g18
g152
tp416
F4
s(g10
g183
tp417
F13
s(Vharmony
g13
tp418
F6
s(g345
S','
tp419
F3
s(Vseldom
g55
tp420
F1
s(Vbeauties
g45
tp421
F1
s(V:
S':'
tp422
F2
s(g74
g35
tp423
F3
s(Vprose
g13
tp424
F1
s(g345
g100
tp425
F4
s(Vindeed
g361
tp426
F2
s(Vear
g13
tp427
F1
s(g55
g10
tp428
F7
s(g23
g11
tp429
F2
s(Vthou
g48
tp430
F1
s(Vthere
g352
tp431
F2
s(Vimputed
g23
tp432
F1
s(Vpossible
S'JJ'
p433
tp434
F1
s(VEvery
g145
tp435
F1
s(Vbought
g13
tp436
F1
s(Vnone
g13
tp437
F1
s(Vhas
g157
tp438
F6
s(Valways
g173
tp439
F4
s(Vaffected
g33
tp440
F1
s(Vversification
g13
tp441
F1
s(g66
g327
tp442
F1
s(g27
g5
tp443
F5
s(g167
g284
tp444
F9
s(g77
g173
tp445
F4
s(g33
g33
tp446
F4
s(Vunderstanding
g13
tp447
F1
s(Vthese
S'DT'
p448
tp449
F1
s(Venlightened
g48
tp450
F1
s(VCowley
g5
tp451
F1
s(Vnight
S'NN'
p452
tp453
F2
s(Vallowed
g23
tp454
F1
s(Vseries
S'NN'
p455
tp456
F1
s(Vthought
g48
tp457
F1
s(Vfeel
g55
tp458
F1
s(Venchanted
g48
tp459
F1
s(Vwants
g85
tp460
F2
s(g23
S':'
tp461
F2
s(g11
g78
tp462
F10
s(g385
g23
tp463
F1
s(g11
g327
tp464
F9
s(VThou
g13
tp465
F1
s(Vrepose
g55
tp466
F1
s(g45
g90
tp467
F3
s(Vbe
g78
tp468
F12
s(g45
g11
tp469
F2
s(g392
g18
tp470
F2
s(g48
S'JJS'
p471
tp472
F1
s(S'VBG'
p473
S'JJ'
p474
tp475
F2
s(S'NNS'
p476
g33
tp477
F1
s(Vonce
g31
tp478
F2
s(Vdecline
g4
tp479
F1
s(g29
g38
tp480
F6
s(g4
g167
tp481
F4
s(Vlearning
g13
tp482
F1
s(g13
S':'
tp483
F11
s(g42
g65
tp484
F2
s(g252
S','
tp485
F2
s(Vany
S'DT'
p486
tp487
F4
s(Vit
g77
tp488
F7
s(S'CC'
p489
g473
tp490
F1
s(g39
g31
tp491
F1
s(Vobscure
g33
tp492
F1
s(VCourage
g13
tp493
F1
s(Vmay
g165
tp494
F9
s(Vround
g4
tp495
F1
s(Vcriticism
S'NN'
p496
tp497
F1
s(g11
S'WP'
p498
tp499
F1
s(g102
g65
tp500
F1
s(g309
g45
tp501
F15
s(Vcouplet
g13
tp502
F1
s(g71
g4
tp503
F11
s(Vimperfection
g13
tp504
F1
s(g35
g13
tp505
F71
s(Vgenius
g13
tp506
F1
s(Vbeheld
g48
tp507
F1
s(Vsome
g204
tp508
F3
s(Varbitrary
g33
tp509
F1
s(g13
g347
tp510
F14
s(g27
g254
tp511
F8
s(Vaccents
g45
tp512
F3
s(g59
g45
tp513
F1
s(Vavoiding
g102
tp514
F1
s(g10
g108
tp515
F2
s(S','
g4
tp516
F1
s(Vunpleasing
g33
tp517
F1
s(Vapproach
g13
tp518
F1
s(Vwaves
g90
tp519
F1
s(Vrace
g397
tp520
F2
s(g4
g35
tp521
F1
s(Vcertain
S'JJ'
p522
tp523
F1
s(VIn
g10
tp524
F5
s(V'd
g134
tp525
F1
s(g134
S'NN'
p526
tp527
F3
s(Vothers
S'NNS'
p528
tp529
F1
s(Vfaculty
g13
tp530
F1
s(g48
g343
tp531
F2
s(Vstrong
g474
tp532
F2
s(g5
g108
tp533
F1
s(Vexactness
g13
tp534
F1
s(Vdelight
g13
tp535
F1
s(Vthrough
g10
tp536
F1
s(Vwhere
g121
tp537
F3
s(Vshall
g72
tp538
F4
s(g38
g309
tp539
F10
s(Vnumbers
g476
tp540
F1
s(Vless
g8
tp541
F3
s(Vall
g314
tp542
F2
s(Vin
g264
tp543
F24
s(g31
g4
tp544
F2
s(V-a
g33
tp545
F1
s(Vsoon
S'RB'
p546
tp547
F1
s(Voffence
g13
tp548
F1
s(V-His
g33
tp549
F1
s(Vare
g142
tp550
F11
s(Vexercised
g23
tp551
F1
s(g8
g23
tp552
F1
s(Vprejudices
g45
tp553
F1
s(Vmore
g39
tp554
F3
s(g23
g35
tp555
F2
s(Vus
g65
tp556
F7
s(Vtheir
g399
tp557
F3
s(g55
S','
tp558
F2
s(g10
S','
tp559
F1
s(g90
g10
tp560
F1
s(g108
g167
tp561
F5
s(g33
g74
tp562
F1
s(g204
g33
tp563
F41
s(g33
S'.'
tp564
F5
s(g23
g13
tp565
F1
s(Vabundance
g13
tp566
F2
s(g45
g18
tp567
F1
s(Vnecessary
S'JJ'
p568
tp569
F1
s(g90
S'PRP$'
p570
tp571
F2
s(Valso
S'RB'
p572
tp573
F2
s(Vcapable
g33
tp574
F1
s(Vlines
g350
tp575
F4
s(g145
g4
tp576
F2
s(V.
S'.'
tp577
F32
s(Vbeing
g473
tp578
F2
s(S','
S'RB'
p579
tp580
F5
s(g38
g27
tp581
F7
s(Vpoint
g13
tp582
F1
s(VNecessity
g13
tp583
F1
s(VThy
g5
tp584
F2
s(g55
g39
tp585
F1
s(g13
g77
tp586
F3
s(Vth
g13
tp587
F1
s(Vcarried
g33
tp588
F1
s(Vlove
g55
tp589
F1
s(g38
g97
tp590
F2
s(Vthat
g145
tp591
F3
s(Vperiod
S'NN'
p592
tp593
F1
s(g97
S','
tp594
F1
s(Vsky
g13
tp595
F4
s(S'NN'
p596
g51
tp597
F6
s(Vother
S'JJ'
p598
tp599
F3
s(V--
S':'
tp600
F4
s(g347
g33
tp601
F2
s(g471
g33
tp602
F1
s(g399
g45
tp603
F1
s(Vomnipotent
g13
tp604
F2
s(g48
S','
tp605
F3
s(Vunder
S'IN'
p606
tp607
F2
s(g572
g48
tp608
F2
s(g23
g489
tp609
F1
s(Vhast
g471
tp610
F1
s(Veach
S'DT'
p611
tp612
F1
s(Vmeasure
g13
tp613
F3
s(Vhaving
S'VBG'
p614
tp615
F1
s(Vas
g10
tp616
F7
s(g108
g145
tp617
F3
s(Vrather
g579
tp618
F1
s(g35
g45
tp619
F13
s(g38
g18
tp620
F1
s(g473
g35
tp621
F4
s(g102
g10
tp622
F4
s(Vgreat
S'JJ'
p623
tp624
F1
s(Vabound
g13
tp625
F1
s(Vthou
g13
tp626
F1
s(Vday
S'NN'
p627
tp628
F2
s(VDoes
g5
tp629
F1
s(Vfinish
g13
tp630
F1
s(Vparagraph
g13
tp631
F1
s(Vmetrical
g33
tp632
F1
s(Vof
g27
tp633
F46
s(Vby
g17
tp634
F16
s(Vrest
g13
tp635
F1
s(Vseek
g4
tp636
F2
s(Vforsaken
g23
tp637
F1
s(Vdeliver
g55
tp638
F1
s(g23
S','
tp639
F3
s(Vfate
g13
tp640
F1
s(Vneed
g13
tp641
F1
s(Vgift
g13
tp642
F2
s(Vmislead
g55
tp643
F1
s(Vexpressed
g23
tp644
F1
s(g5
g114
tp645
F1
s(g78
g31
tp646
F1
s(V'd
g233
tp647
F2
s(Vto
g11
tp648
F19
s(g27
g102
tp649
F7
s(g38
g23
tp650
F2
s(Vconsidered
g48
tp651
F1
s(g86
S','
tp652
F2
s(VBoth
g145
tp653
F2
s(S','
g157
tp654
F3
s(g45
g31
tp655
F4
s(Vborrowed
g48
tp656
F1
s(Vregions
g45
tp657
F1
s(Vappointed
g23
tp658
F1
s(S','
g18
tp659
F2
s(Vsun
g13
tp660
F1
s(Vtotal
g33
tp661
F1
s(Vevery
S'DT'
p662
tp663
F4
s(g31
g11
tp664
F2
s(Vcombinations
g45
tp665
F1
s(g157
g252
tp666
F5
s(Vmen
S'NNS'
p667
tp668
F1
s(Vsounds
g45
tp669
F2
s(g347
g23
tp670
F3
s(Vequally
g31
tp671
F3
s(Vharmonious
g33
tp672
F1
s(g38
g45
tp673
F1
s(g45
g48
tp674
F1
s(Vsensible
g33
tp675
F1
s(g301
S'.'
tp676
F1
s(Vgoodness
g13
tp677
F2
s(g4
g11
tp678
F2
s(Vunderstood
g13
tp679
F1
s(Vpromis
g33
tp680
F1
s(VThe
g57
tp681
F5
s(Vbecause
g10
tp682
F2
s(g45
g27
tp683
F16
s(Vyet
g31
tp684
F2
s(g48
g45
tp685
F2
s(g314
g35
tp686
F2
s(Vthy
g33
tp687
F4
s(g13
g134
tp688
F1
s(Vthey
S'PRP'
p689
tp690
F3
s(Vcomposition
g13
tp691
F1
s(Vrest
g55
tp692
F1
s(VOrdain
g5
tp693
F1
s(g282
g74
tp694
F2
s(Vsyllable
g33
tp695
F2
s(Vdifferent
S'JJ'
p696
tp697
F1
s(Vfor
S'IN'
p698
tp699
F2
s(Vconcludes
g90
tp700
F1
s(g48
g31
tp701
F2
s(VMilton
g5
tp702
F5
s(Vgrammarians
g45
tp703
F1
s(Vthose
g392
tp704
F2
s(Vart
g13
tp705
F3
s(g38
g31
tp706
F2
s(Vcited
g23
tp707
F1
s(g4
S','
tp708
F4
s(Vacute
g13
tp709
F1
s(Vdifficult
S'JJ'
p710
tp711
F2
s(Vsufficiently
g31
tp712
F1
s(Vregular
g33
tp713
F2
s(Vrigour
g13
tp714
F1
s(Vthough
g10
tp715
F3
s(Vappear
g55
tp716
F2
s(Vorb
g13
tp717
F1
s(Vorder
g526
tp718
F1
s(g369
g13
tp719
F1
s(Vconsidered
g23
tp720
F2
s(Vuncertain
g13
tp721
F1
s(Vfalls
g55
tp722
F2
s(Vconferred
g23
tp723
F1
s(Vador
g13
tp724
F1
s(Vsoft
g33
tp725
F1
s(Vlast
S'JJ'
p726
tp727
F1
s(VGod
g5
tp728
F2
s(Vbut
g489
tp729
F6
s(g55
g11
tp730
F2
s(Vif
S'IN'
p731
tp732
F1
s(Vpeculiar
g13
tp733
F1
s(g38
g90
tp734
F4
s(V,
S','
tp735
F110
s(Vbusy
g33
tp736
F1
s(g142
g23
tp737
F2
s(Vacting
g102
tp738
F1
s(Vkept
g23
tp739
F1
s(Vallure
g55
tp740
F1
s(g39
g242
tp741
F1
s(Vloss
S'NN'
p742
tp743
F1
s(Vsleep
g13
tp744
F2
s(g142
S'JJ'
p745
tp746
F4
s(g142
g8
tp747
F2
s(g5
g18
tp748
F2
s(Vwords
S'NNS'
p749
tp750
F2
s(S':'
g167
tp751
F2
s(Vrequire
g55
tp752
F1
s(Vobjects
g45
tp753
F1
s(Vstood
g13
tp754
F2
s(S','
g102
tp755
F1
s(Vinterdiction
g13
tp756
F1
s(Vfixed
g23
tp757
F1
s(Vunendear
g33
tp758
F1
s(Vcompensates
g90
tp759
F1
s(Vsame
S'JJ'
p760
tp761
F5
s(Vsuppose
g4
tp762
F1
s(Vbarren
g45
tp763
F1
s(VReigns
g5
tp764
F1
s(g233
S'.'
tp765
F1
s(g489
g352
tp766
F1
s(Vcrown
g13
tp767
F1
s(Vsuffers
g45
tp768
F1
s(Vwho
g97
tp769
F8
s(Vexactly
g31
tp770
F1
s(Vwhom
g498
tp771
F1
s(Vshould
S'MD'
p772
tp773
F2
s(Vnew
g309
tp774
F2
s(Vattention
g160
tp775
F3
s(g31
g8
tp776
F2
s(Vhopes
g45
tp777
F1
s(Vtoo
S'RB'
p778
tp779
F2
s(Vdiminution
g13
tp780
F1
s(g18
g5
tp781
F1
s(Vdetriment
g13
tp782
F1
s(Vmetre
g13
tp783
F1
s(Vsometimes
g31
tp784
F3
s(VOf
S'IN'
p785
tp786
F1
s(Vdegrees
g45
tp787
F1
s(Vdisplay
g55
tp788
F1
s(VFalse
g33
tp789
F1
s(Vmost
g106
tp790
F1
s(Vupon
g10
tp791
F9
s(Vground
g13
tp792
F2
s(Vwillingly
g31
tp793
F1
s(Vhis
g254
tp794
F7
s(Vimagination
g13
tp795
F1
s(Vrecurrence
g13
tp796
F1
s(g11
g314
tp797
F1
s(g167
g614
tp798
F2
s(g66
g45
tp799
F2
s(Vverse
g13
tp800
F4
s(Vunworthy
g33
tp801
F1
s(Vawake
g4
tp802
F1
s(Vinto
g312
tp803
F1
s(g38
g13
tp804
F6
s(Vinsufficient
g33
tp805
F1
s(VThis
g171
tp806
F1
s(Vrests
g90
tp807
F1
s(g5
g689
tp808
F2
s(Vpower
S'NN'
p809
tp810
F1
s(Vout
g354
tp811
F1
s(Vheav'n
g13
tp812
F2
s(g38
g35
tp813
F9
s(g486
g27
tp814
F1
s(Venforced
g23
tp815
F1
s(Vobserved
g48
tp816
F1
s(g13
g233
tp817
F2
s(g13
g97
tp818
F2
s(Vfifth
g13
tp819
F1
s(Vwhich
g18
tp820
F11
s(Vlabour
g45
tp821
F1
s(g45
S':'
tp822
F2
s(Vshort
g33
tp823
F1
s(g27
g476
tp824
F11
s(Vvery
g31
tp825
F3
s(Vlaw
S'NN'
p826
tp827
F1
s(Vlustre
g45
tp828
F1
s(g90
S','
tp829
F1
s(Vabate
g55
tp830
F1
s(Verrors
g45
tp831
F1
s(Vbefore
g10
tp832
F1
s(Vseem
g55
tp833
F1
s(VBut
S'CC'
p834
tp835
F4
s(Vgive
g55
tp836
F1
s(Vterms
S'NNS'
p837
tp838
F1
s(Vgolden
g306
tp839
F1
s(g33
g233
tp840
F1
s(Von
S'IN'
p841
tp842
F1
s(Vhelp
g13
tp843
F1
s(Vhad
g48
tp844
F3
s(Vstriking
g102
tp845
F1
s(g5
g89
tp846
F1
s(Vfew
g745
tp847
F1
s(Vexamination
g13
tp848
F1
s(S','
g38
tp849
F41
s(g65
g8
tp850
F1
s(Vperfection
g13
tp851
F1
s(S','
g5
tp852
F5
s(Vobserved
g23
tp853
F2
s(Vpeace
g13
tp854
F1
s(Vexpresses
g90
tp855
F1
s(Vemploy
g13
tp856
F1
s(Vadorn
g13
tp857
F1
s(Vuse
g13
tp858
F1
s(Vlanguage
g596
tp859
F1
s(Vlodge
g13
tp860
F2
s(g5
g90
tp861
F1
s(Vrhyme
g13
tp862
F1
s(g354
g35
tp863
F1
s(Vfirst
g33
tp864
F6
s(Vlamp
g13
tp865
F1
s(g145
g74
tp866
F2
s(Vpure
g13
tp867
F2
s(g74
g15
tp868
F5
s(g347
g173
tp869
F13
s(Vsense
g13
tp870
F1
s(Vknew
g48
tp871
F1
s(Vinversion
g13
tp872
F1
s(V;
S':'
tp873
F13
s(Vpole
g13
tp874
F1
s(g33
g473
tp875
F1
s(g7
g11
tp876
F2
s(Vconfess
g55
tp877
F1
s(g33
g5
tp878
F2
s(Vthis
g252
tp879
F8
s(Vtiresome
g33
tp880
F1
s(g13
g48
tp881
F2
s(g38
g55
tp882
F2
s(Vregularly
g31
tp883
F1
s(g38
g72
tp884
F2
s(g100
g33
tp885
F13
s(Vrelieving
g102
tp886
F1
s(Vrule
g13
tp887
F1
s(S','
g13
tp888
F7
s(Videas
g45
tp889
F2
s(g18
g142
tp890
F1
s(Vbear
g55
tp891
F1
s(VHere
S'RB'
p892
tp893
F2
s(g97
g4
tp894
F3
s(VHis
g570
tp895
F1
s(V!
S'.'
tp896
F2
s(Vinfinite
g13
tp897
F1
s(g13
g188
tp898
F7
s(Vwhole
g33
tp899
F1
s(Vthat
g10
tp900
F5
s(Vancient
g13
tp901
F1
s(Vwas
g48
tp902
F1
s(Vmade
g48
tp903
F2
s(Vmelody
g13
tp904
F1
s(Vrescue
g55
tp905
F1
s(Vshafts
g45
tp906
F1
s(Vthemselves
S'PRP'
p907
tp908
F1
s(Vwake
g4
tp909
F1
s(Vharlots
g45
tp910
F1
s(Vhave
g4
tp911
F1
s(g528
g35
tp912
F2
s(Vresplendent
g13
tp913
F1
s(Vconstant
g33
tp914
F1
s(g498
g327
tp915
F1
s(Vway
g255
tp916
F1
s(g183
g48
tp917
F4
s(Vmingling
g102
tp918
F1
s(g4
S'.'
tp919
F1
s(Voffensive
g33
tp920
F1
s(Vlove
g13
tp921
F1
s(Vattend
g4
tp922
F1
s(Vturn
g4
tp923
F2
s(Vupon
g33
tp924
F2
s(Vjoining
g102
tp925
F1
s(g48
S':'
tp926
F1
s(Vlicentious
g33
tp927
F1
s(Vmutual
S'JJ'
p928
tp929
F2
s(VIf
S'IN'
p930
tp931
F1
s(Vflow
g13
tp932
F1
s(Vnot
g167
tp933
F11
s(Vtouched
g23
tp934
F2
s(Vvicious
g33
tp935
F1
s(V'd
g5
tp936
F2
s(Vonly
g31
tp937
F2
s(g13
g7
tp938
F3
s(g152
g106
tp939
F1
s(g13
g45
tp940
F4
s(VMaker
g5
tp941
F2
s(Vminute
g33
tp942
F1
s(Ventering
g102
tp943
F1
s(g5
S','
tp944
F7
s(S':'
g13
tp945
F2
s(Vhappy
g33
tp946
F1
s(Vcover
g13
tp947
F1
s(VRoman
g5
tp948
F1
s(Varise
g13
tp949
F1
s(VIt
S'PRP'
p950
tp951
F1
s(g48
g117
tp952
F1
s(g834
S','
tp953
F1
s(Vfound
g23
tp954
F1
s(Vsuffer
g39
tp955
F1
s(Vloveless
g13
tp956
F1
s(Vinjures
g90
tp957
F1
s(Vprobably
g284
tp958
F1
s(g4
g352
tp959
F1
s.