ccollections
defaultdict
p1
(c__builtin__
float
p2
tRp3
(Vaccustom
S'VB'
p4
tp5
F1
s(Vadmirably
S'RB'
p6
tp7
F3
s(Vcourse
S'NN'
p8
tp9
F5
s(Vfiery
S'JJ'
p10
tp11
F1
s(Vusual
g10
tp12
F11
s(VFor
S'IN'
p13
tp14
F29
s(S'IN'
p15
S'NN'
p16
tp17
F869
s(Vought
S'VBD'
p18
tp19
F1
s(Vstagnate
g4
tp20
F1
s(Vtension
g16
tp21
F18
s(VPHILOSOPHICAL
S'NNP'
p22
tp23
F3
s(Vmaligna
g16
tp24
F1
s(Vdriven
S'VBN'
p25
tp26
F1
s(Vsuffer
S'VBP'
p27
tp28
F4
s(Vagainst
S'IN'
p29
tp30
F10
s(VTo
S'TO'
p31
tp32
F13
s(Vunnecessary
g10
tp33
F1
s(Vfaults
S'NNS'
p34
tp35
F2
s(Vpossession
g16
tp36
F1
s(Vmaterial
g10
tp37
F2
s(Vcase
S'NN'
p38
tp39
F17
s(Vcalled
g25
tp40
F21
s(Vsera
g16
tp41
F1
s(S'RB'
p42
S'VBZ'
p43
tp44
F67
s(Vmultiplied
g25
tp45
F1
s(Vreliefs
g34
tp46
F2
s(Vhigher
S'JJR'
p47
tp48
F3
s(Vemploy
g4
tp49
F1
s(Vinquisition
g16
tp50
F1
s(Vbeings
g34
tp51
F2
s(Vreclines
g43
tp52
F1
s(Vinvolved
g25
tp53
F1
s(Vconfined
g25
tp54
F2
s(Vgives
S'VBZ'
p55
tp56
F9
s(Vcensured
g25
tp57
F1
s(Vbraced
g25
tp58
F2
s(S'WDT'
p59
g6
tp60
F18
s(Vcriticisim
g16
tp61
F1
s(Vlinks
g34
tp62
F2
s(S'IN'
p63
g6
tp64
F91
s(Vlargiundo
g16
tp65
F2
s(Vmoment
S'NN'
p66
tp67
F4
s(Vcompleat
g4
tp68
F1
s(S'NN'
p69
S'DT'
p70
tp71
F61
s(Vpreparation
g16
tp72
F2
s(g6
S'VB'
p73
tp74
F162
s(Vtests
g34
tp75
F1
s(Vallowed
g10
tp76
F1
s(g16
g59
tp77
F73
s(Vmore
g47
tp78
F42
s(Vbranch
g16
tp79
F3
s(Vbroken
g25
tp80
F1
s(Vsingular
g10
tp81
F1
s(g4
g34
tp82
F13
s(Vobserve
g16
tp83
F1
s(g22
S'WRB'
p84
tp85
F1
s(Vdeadly
g10
tp86
F1
s(Vhurry
g16
tp87
F2
s(Vlonger
g6
tp88
F1
s(Vmake
g4
tp89
F33
s(S'WP'
p90
g43
tp91
F30
s(Varrives
g43
tp92
F2
s(S'VBG'
p93
g16
tp94
F25
s(Vsolid
g10
tp95
F5
s(Vwhen
S'WRB'
p96
tp97
F88
s(Vgloomy
g10
tp98
F4
s(V26
S'CD'
p99
tp100
F1
s(Vconsiders
g43
tp101
F3
s(S'JJ'
p102
S'MD'
p103
tp104
F12
s(Vpistils
g34
tp105
F1
s(Vindefinite
g10
tp106
F1
s(Vnemorumque
g10
tp107
F1
s(S'CC'
p108
S'CC'
p109
tp110
F3
s(Vexamine
g27
tp111
F3
s(VLIGHT
g16
tp112
F1
s(Vcoloured
g10
tp113
F2
s(g22
g108
tp114
F26
s(Vadjacent
g10
tp115
F1
s(Vafter
S'IN'
p116
tp117
F21
s(S'TO'
p118
g34
tp119
F14
s(Vductile
g10
tp120
F1
s(Vbuilt
g25
tp121
F3
s(Vsuggesting
g93
tp122
F1
s(Vrepeating
g93
tp123
F1
s(Vanxiety
g16
tp124
F3
s(Vwork
g16
tp125
F12
s(Vspeaks
g43
tp126
F1
s(Vhearing
g16
tp127
F6
s(Vshun
g4
tp128
F3
s(Vused
g18
tp129
F1
s(Vfact
S'NN'
p130
tp131
F6
s(Vbears
g43
tp132
F2
s(Vvibrating
g93
tp133
F1
s(Vdissimilar
g10
tp134
F1
s(Vglaring
g10
tp135
F1
s(Vplaces
g34
tp136
F1
s(Vpartizans
g34
tp137
F1
s(Vrelation
g16
tp138
F8
s(Veither
S'DT'
p139
tp140
F7
s(VDesigns
g34
tp141
F1
s(Vreturned
g18
tp142
F2
s(Vsea
g16
tp143
F4
s(Vviolence
g16
tp144
F2
s(Vgo
g27
tp145
F3
s(VO
g22
tp146
F1
s(Vrough
g6
tp147
F1
s(Vedifices
g34
tp148
F2
s(Vpride
g16
tp149
F2
s(Vmost
S'JJS'
p150
tp151
F23
s(Vlisp
g4
tp152
F1
s(Vmotus
g16
tp153
F1
s(Vauthor
g16
tp154
F3
s(Vagree
g27
tp155
F3
s(S'WRB'
p156
g25
tp157
F4
s(Vparents
g34
tp158
F1
s(Vwhilst
S'IN'
p159
tp160
F3
s(Vattempt
g4
tp161
F3
s(S'JJ'
p162
g90
tp163
F2
s(Vignorant
g10
tp164
F1
s(VTherefore
g6
tp165
F3
s(VLondon
S'NNP'
p166
tp167
F1
s(Vdeeply
g6
tp168
F1
s(Vnotwithstanding
g93
tp169
F4
s(Vvary
g27
tp170
F6
s(V'
S"''"
p171
tp172
F2
s(Vannex
g4
tp173
F1
s(Vsides
S'NNS'
p174
tp175
F1
s(Vpassions
g34
tp176
F71
s(Vanimates
g43
tp177
F1
s(Vordered
g25
tp178
F1
s(Vlead
g4
tp179
F1
s(g10
g150
tp180
F1
s(Vrepeats
g34
tp181
F2
s(Vreasoning
g16
tp182
F6
s(Vspotted
g10
tp183
F1
s(Vmighty
g10
tp184
F1
s(Vforegoing
g16
tp185
F6
s(Vtragical
g10
tp186
F1
s(Vchildhood
g16
tp187
F1
s(Vflood
g16
tp188
F1
s(Vbasis
S'NN'
p189
tp190
F3
s(Vwithdraw
g27
tp191
F1
s(g73
S'CD'
p192
tp193
F9
s(Vdiffer
g27
tp194
F2
s(Vsurrounded
g18
tp195
F1
s(Vextension
g16
tp196
F3
s(Vrouse
g16
tp197
F1
s(Vpreservation
g16
tp198
F3
s(Vapproach
g27
tp199
F1
s(Vpossible
S'JJ'
p200
tp201
F8
s(Vorder
S'NN'
p202
tp203
F6
s(VFine
g22
tp204
F1
s(Vadmitting
g93
tp205
F1
s(VFonte
g22
tp206
F1
s(VCustom
g16
tp207
F1
s(Vaffected
g10
tp208
F6
s(Vdread
g16
tp209
F1
s(Vceased
g25
tp210
F4
s(Vdesigned
g25
tp211
F11
s(Vanimos
g10
tp212
F1
s(VGRIEF
g22
tp213
F1
s(VHence
g16
tp214
F2
s(Vabominable
g10
tp215
F1
s(Vapparently
S'RB'
p216
tp217
F1
s(Vserviceable
g10
tp218
F1
s(Vfeel
g4
tp219
F4
s(Vferebat
g16
tp220
F1
s(Vd
g16
tp221
F1
s(VFifthly
g6
tp222
F1
s(Vcorporeal
g16
tp223
F2
s(Vlasting
g10
tp224
F1
s(Vloqui
g16
tp225
F1
s(Vfanatic
g10
tp226
F1
s(Vuniverse
g16
tp227
F2
s(VWomen
g34
tp228
F1
s(Vproperties
S'NNS'
p229
tp230
F10
s(g118
g59
tp231
F7
s(Vgesture
g16
tp232
F3
s(Vaccurately
g6
tp233
F1
s(Vmentioned
g18
tp234
F1
s(Vwidely
S'RB'
p235
tp236
F1
s(Vmarks
g34
tp237
F1
s(Vvirtue
g16
tp238
F6
s(Vconsent
g16
tp239
F2
s(Vcharacteristical
g10
tp240
F1
s(Vancients
g34
tp241
F1
s(Vforgot
g10
tp242
F1
s(Vappearing
g93
tp243
F1
s(Vexpressive
g10
tp244
F3
s(Vtended
g25
tp245
F1
s(Valive
g10
tp246
F1
s(Vpush
g27
tp247
F1
s(VWE
g22
tp248
F1
s(g90
g6
tp249
F2
s(Vless
S'RBR'
p250
tp251
F8
s(Vwounded
g18
tp252
F1
s(Vtowards
g159
tp253
F3
s(Vbestowed
g25
tp254
F1
s(Vhappy
g10
tp255
F3
s(Vtacit
g10
tp256
F1
s(Vderived
g25
tp257
F4
s(Vglorious
g10
tp258
F1
s(Vnecessary
S'JJ'
p259
tp260
F24
s(Vpleasantest
g16
tp261
F1
s(Vhundred
g10
tp262
F2
s(Venquiring
g93
tp263
F1
s(Vwine
g16
tp264
F1
s(Vtail
g16
tp265
F4
s(VFeeling
g93
tp266
F1
s(g159
S'.'
tp267
F9
s(Vremember
g4
tp268
F2
s(Vbattle
S'NN'
p269
tp270
F1
s(Vcharacter
g16
tp271
F3
s(Vconstantly
g6
tp272
F6
s(Vsolemn
g16
tp273
F1
s(g150
S'JJ'
p274
tp275
F8
s(Vaccidentally
g6
tp276
F1
s(Vtherefore
g159
tp277
F2
s(Vae
g16
tp278
F5
s(Vapprobation
g16
tp279
F2
s(Vsecondarily
g6
tp280
F1
s(Vcovet
g16
tp281
F1
s(Vpillars
g34
tp282
F3
s(Vpoem
g16
tp283
F2
s(Vsupposes
g43
tp284
F2
s(Vobscuri
g16
tp285
F1
s(Vsublimity
g16
tp286
F6
s(Vroad
S'NN'
p287
tp288
F2
s(Vclime
g16
tp289
F1
s(Vstenches
g34
tp290
F1
s(g250
S'VBZ'
p291
tp292
F1
s(Vmirth
g16
tp293
F2
s(g93
g70
tp294
F97
s(Vsatisfied
g10
tp295
F2
s(Vproof
g16
tp296
F2
s(Vhorse
g16
tp297
F4
s(S'PRP'
p298
g10
tp299
F21
s(Vgain
g4
tp300
F1
s(VArabian
g10
tp301
F1
s(Vviolets
g34
tp302
F1
s(VThese
S'DT'
p303
tp304
F9
s(Vseek
g27
tp305
F2
s(Vpomp
g16
tp306
F1
s(Vtinged
g25
tp307
F2
s(Vintimately
g6
tp308
F1
s(g93
g192
tp309
F3
s(g10
g6
tp310
F43
s(Vrepetition
g16
tp311
F8
s(Vfibres
g34
tp312
F4
s(V11
S'CD'
p313
tp314
F1
s(g108
S'PDT'
p315
tp316
F7
s(Vshare
S'NN'
p317
tp318
F8
s(VAstonishment
g22
tp319
F1
s(Vparallel
g4
tp320
F1
s(Vinterrupt
g4
tp321
F2
s(Vsucceeded
g25
tp322
F2
s(Vmodes
g34
tp323
F5
s(Vtotal
g10
tp324
F3
s(VMR.
g22
tp325
F1
s(Vsecured
g25
tp326
F1
s(VAmericans
S'NNPS'
p327
tp328
F1
s(VThe
S'DT'
p329
tp330
F154
s(Vanalysing
g93
tp331
F1
s(Vdepending
g93
tp332
F1
s(Vsudden
g10
tp333
F12
s(g16
S'CD'
p334
tp335
F3
s(Vleft
g18
tp336
F2
s(g6
g90
tp337
F4
s(Vprotection
S'NN'
p338
tp339
F1
s(Vtyranny
g16
tp340
F1
s(Vflattered
g25
tp341
F1
s(S'JJR'
p342
S':'
tp343
F1
s(S'VBD'
p344
S'RB'
p345
tp346
F56
s(Vtroubles
g34
tp347
F1
s(VAntinous
g22
tp348
F1
s(Vclosely
S'RB'
p349
tp350
F5
s(g27
S'PRP$'
p351
tp352
F15
s(Vear-drum
g10
tp353
F1
s(S')'
S'PRP$'
p354
tp355
F1
s(Vaccording
S'VBG'
p356
tp357
F6
s(g150
g16
tp358
F43
s(Vscource
g16
tp359
F1
s(Vflower
g16
tp360
F3
s(Vwaited
g25
tp361
F1
s(Vabsolutely
g6
tp362
F5
s(Vwhite
S'JJ'
p363
tp364
F2
s(g4
g59
tp365
F2
s(Vfiner
g47
tp366
F1
s(Vdignity
g16
tp367
F6
s(Vsmelling
g16
tp368
F1
s(VFear
g16
tp369
F1
s(Vtold
g18
tp370
F1
s(Vattention
S'NN'
p371
tp372
F11
s(Vperspective
g16
tp373
F2
s(Vdistinct
g16
tp374
F1
s(Voperate
g4
tp375
F5
s(VSodom
g22
tp376
F1
s(Vvivid
g16
tp377
F1
s(VThings
g34
tp378
F1
s(Vdelightful
g10
tp379
F4
s(g59
g22
tp380
F4
s(Vmeasures
g34
tp381
F1
s(Vnerve
g16
tp382
F1
s(Valtogether
g6
tp383
F5
s(VNO
g139
tp384
F1
s(g25
S'RP'
p385
tp386
F9
s(S'VBZ'
p387
g250
tp388
F10
s(Vdiminishing
g93
tp389
F1
s(Vcollected
g25
tp390
F1
s(Vpapillae
g16
tp391
F1
s(Vcessation
g16
tp392
F3
s(Vqualities
g34
tp393
F33
s(Vgive
g4
tp394
F14
s(Vfireworks
g34
tp395
F1
s(Vendearments
g34
tp396
F1
s(Vthrone
g16
tp397
F1
s(Vorgans
g43
tp398
F2
s(Vup
g159
tp399
F1
s(Vstart
g4
tp400
F3
s(g93
g298
tp401
F29
s(Vform
g4
tp402
F6
s(Vmisty
g16
tp403
F1
s(g150
g108
tp404
F3
s(Vmuch
g10
tp405
F25
s(Vpartition
g16
tp406
F1
s(Vbeholding
g93
tp407
F3
s(Vpierce
g16
tp408
F1
s(Vchuse
g27
tp409
F1
s(Vpowerful
S'JJ'
p410
tp411
F7
s(Vundertake
g4
tp412
F1
s(Vtalis
g159
tp413
F1
s(Vfeeble
g10
tp414
F1
s(Vaeq
g16
tp415
F1
s(Vimpression
g16
tp416
F18
s(Vfollowing
g10
tp417
F3
s(Vproduced
g25
tp418
F12
s(Vparallel
g16
tp419
F1
s(VLap
g22
tp420
F1
s(g385
g34
tp421
F2
s(Vreturns
g43
tp422
F2
s(Vreview
g16
tp423
F2
s(Vlay
g4
tp424
F3
s(Vindependently
g6
tp425
F1
s(V8
S'CD'
p426
tp427
F1
s(Vexcludes
g43
tp428
F1
s(Vdark
g16
tp429
F3
s(g150
S'.'
tp430
F1
s(VThose
S'DT'
p431
tp432
F6
s(VIf
S'IN'
p433
tp434
F18
s(Vlanguid
g10
tp435
F2
s(Vnot
g345
tp436
F242
s(Vengrosses
g43
tp437
F1
s(Vassociations
g34
tp438
F2
s(Vdone
S'VBN'
p439
tp440
F10
s(Vingenious
g10
tp441
F1
s(Varises
g43
tp442
F9
s(Vincapable
g10
tp443
F4
s(Vdispleased
g10
tp444
F1
s(Vmagnificent
g10
tp445
F1
s(Vconsequent
g10
tp446
F2
s(Vmediocrity
g16
tp447
F3
s(Vextreme
g10
tp448
F1
s(Vglaring
g93
tp449
F1
s(Vcome
g25
tp450
F2
s(Vtruths
g34
tp451
F1
s(Vpoet
g16
tp452
F3
s(Vinfirmities
g34
tp453
F1
s(g4
S'.'
tp454
F22
s(Vsurprised
g18
tp455
F1
s(g16
g96
tp456
F12
s(Vpropagation
g16
tp457
F1
s(Vamong
S'IN'
p458
tp459
F6
s(Vparallelogram
g16
tp460
F1
s(g10
g298
tp461
F22
s(g6
g315
tp462
F3
s(Vull
g10
tp463
F1
s(VSimple
g10
tp464
F1
s(Vvehicles
S'NNS'
p465
tp466
F1
s(VProportion
g16
tp467
F4
s(VIn
g159
tp468
F43
s(Vdescribed
g25
tp469
F2
s(Vsex
g16
tp470
F8
s(VWhoever
g22
tp471
F1
s(S','
g96
tp472
F55
s(Vpass
g4
tp473
F6
s(Vdisposition
g16
tp474
F12
s(VTartary
g22
tp475
F1
s(Vtraces
g34
tp476
F1
s(Vmiddle
g16
tp477
F2
s(Vconstituent
g16
tp478
F2
s(Vpublic
g16
tp479
F1
s(S'CD'
p480
S':'
tp481
F4
s(Vresemblance
g16
tp482
F6
s(Vrepresented
g18
tp483
F1
s(Vfour-footed
g10
tp484
F1
s(Vstroke
g16
tp485
F9
s(Vtorch
g16
tp486
F1
s(Vnurses
g34
tp487
F1
s(Vdeterminate
g16
tp488
F4
s(Vleave
g27
tp489
F1
s(Vlose
g27
tp490
F2
s(g171
g22
tp491
F1
s(Vshrub
g16
tp492
F1
s(VSOLITUDE
g22
tp493
F1
s(Vcontent
g10
tp494
F1
s(Vmates
g34
tp495
F1
s(g27
g16
tp496
F32
s(S'MD'
p497
S'IN'
p498
tp499
F12
s(S')'
S'RB'
p500
tp501
F1
s(Vhazard
g16
tp502
F2
s(Vactors
g34
tp503
F1
s(S':'
g315
tp504
F3
s(S'VBP'
p505
S','
tp506
F56
s(g192
g118
tp507
F2
s(g109
S'VBZ'
p508
tp509
F28
s(Vmistake
g16
tp510
F5
s(Vbright
g10
tp511
F3
s(Vlimit
g4
tp512
F1
s(Vsought
g25
tp513
F1
s(Vacquired
g25
tp514
F1
s(Vrelapse
g27
tp515
F1
s(Vstage
g16
tp516
F1
s(Vgood
g10
tp517
F22
s(Vcombination
g16
tp518
F1
s(Vsameness
g16
tp519
F1
s(Vpleasantly
g6
tp520
F1
s(Vupon
g385
tp521
F2
s(S'IN'
p522
S'DT'
p523
tp524
F2138
s(Vconsidering
S'VBG'
p525
tp526
F6
s(Vfigure
g16
tp527
F18
s(Vrationale
g16
tp528
F1
s(Vplease
g4
tp529
F2
s(Vthird
g10
tp530
F4
s(Valteration
g16
tp531
F4
s(Vsecret
g16
tp532
F1
s(Vwarmer
g16
tp533
F1
s(Van
g139
tp534
F158
s(Vlive
g4
tp535
F1
s(Vspiders
g34
tp536
F1
s(Vextremely
S'RB'
p537
tp538
F6
s(g522
g192
tp539
F51
s(Vhonour
g16
tp540
F3
s(VINFINITE
g22
tp541
F1
s(Vendeavoured
g25
tp542
F1
s(g93
g108
tp543
F12
s(Vgravity
g16
tp544
F1
s(Vimprobable
g10
tp545
F1
s(Vruns
g43
tp546
F2
s(VHAVING
g16
tp547
F3
s(Vtheir
S'PRP$'
p548
tp549
F137
s(Vprovidence
g16
tp550
F4
s(Vthem.
g16
tp551
F1
s(Vreason
S'NN'
p552
tp553
F28
s(Vneglect
g4
tp554
F1
s(Vmodesty
g4
tp555
F1
s(Vsays
S'VBZ'
p556
tp557
F2
s(Vprove
g4
tp558
F3
s(Vobstruction
g16
tp559
F1
s(Vdrowsiness
g4
tp560
F1
s(VTHE
g22
tp561
F10
s(Vfeminine
g10
tp562
F1
s(Vengraving
g93
tp563
F1
s(Vresulting
g93
tp564
F2
s(Vstrongly
g6
tp565
F10
s(Vsections
g34
tp566
F1
s(Vbroad
S'JJ'
p567
tp568
F1
s(Vdoubtless
g16
tp569
F1
s(VLonginus
g22
tp570
F1
s(Vcreep
g27
tp571
F1
s(g27
g15
tp572
F155
s(Vrising
g93
tp573
F1
s(Vflow
g4
tp574
F1
s(Vallow
g4
tp575
F1
s(Vpersons
g34
tp576
F9
s(Vraise
g16
tp577
F1
s(S'MD'
p578
S','
tp579
F11
s(Vworthy
g10
tp580
F2
s(Vsoever
g16
tp581
F2
s(VBUT
g22
tp582
F3
s(Vfrequent
g10
tp583
F4
s(Vspeaker
g16
tp584
F1
s(Vpursuit
g16
tp585
F2
s(Vannexed
g10
tp586
F1
s(S'EX'
p587
g505
tp588
F23
s(g10
S'.'
tp589
F92
s(S'WRB'
p590
S'PRP'
p591
tp592
F76
s(Vdays
S'NNS'
p593
tp594
F1
s(Vjessamine
g16
tp595
F1
s(Vmove
g16
tp596
F1
s(VAntiquite
g22
tp597
F1
s(Varise
g6
tp598
F1
s(Vspreading
g10
tp599
F1
s(Vsmooth
g10
tp600
F20
s(Vperceive
g4
tp601
F6
s(Vinfallibly
g6
tp602
F1
s(Vever
S'RB'
p603
tp604
F23
s(S'PRP'
p605
g385
tp606
F3
s(VASSOCIATION
g22
tp607
F1
s(Vapproved
g25
tp608
F1
s(Vjoined
g25
tp609
F2
s(Vcapable
g16
tp610
F1
s(Vunequal
g10
tp611
F2
s(Vour
g351
tp612
F132
s(Vspoken
g25
tp613
F2
s(g4
g298
tp614
F124
s(Vattach
g4
tp615
F1
s(g139
S')'
tp616
F1
s(Vfeel
g27
tp617
F3
s(Vunited
g10
tp618
F6
s(VHungary
g22
tp619
F1
s(Vimminent
g10
tp620
F5
s(Vpositively
g6
tp621
F1
s(Vguard
g16
tp622
F1
s(g43
S'RBS'
p623
tp624
F6
s(Vfinal
S'JJ'
p625
tp626
F3
s(g387
g22
tp627
F8
s(g18
g25
tp628
F28
s(g93
S':'
tp629
F5
s(Vsafety
S'NN'
p630
tp631
F1
s(Vhouse
S'NN'
p632
tp633
F1
s(Vadded
g25
tp634
F4
s(Vsuddenly
g6
tp635
F14
s(Vassistance
g16
tp636
F2
s(Vbelieve
g27
tp637
F17
s(Vsweet
g4
tp638
F1
s(Vmomentary
g10
tp639
F1
s(Vdetermined
g25
tp640
F1
s(Vclassed
g25
tp641
F1
s(Venjoyed
g18
tp642
F2
s(Vglare
g16
tp643
F1
s(Vseverity
g16
tp644
F2
s(S'PRP'
p645
g27
tp646
F563
s(Vkingly
g6
tp647
F1
s(Vaugmented
g25
tp648
F2
s(Vteeth
g16
tp649
F1
s(Vapproach
g16
tp650
F1
s(Vreflected
g10
tp651
F1
s(VThat
g139
tp652
F6
s(VPLEASURE
g22
tp653
F3
s(Vauxiliary
g16
tp654
F1
s(Vcertain
S'JJ'
p655
tp656
F34
s(Vunsteady
g10
tp657
F1
s(Vfaculty
g16
tp658
F5
s(Vfaces
S'VBZ'
p659
tp660
F1
s(Vwarmth
g16
tp661
F3
s(Vcollapse
g16
tp662
F1
s(Vconjunction
g16
tp663
F1
s(Vhours
S'NNS'
p664
tp665
F1
s(Vbounty
g16
tp666
F1
s(Vresult
g27
tp667
F1
s(Vwhilst
S'CC'
p668
tp669
F1
s(Vshe
S'PRP'
p670
tp671
F2
s(Vservice
g16
tp672
F2
s(g96
g118
tp673
F2
s(Vtimidity
g16
tp674
F1
s(Vexperience
g16
tp675
F18
s(Vblackness
g16
tp676
F4
s(Vhabitation
g16
tp677
F1
s(Vcities
S'NNS'
p678
tp679
F1
s(Vpresentible
g10
tp680
F1
s(VSaunderson
g22
tp681
F1
s(Vdull
g10
tp682
F1
s(Vtraverse
g4
tp683
F1
s(Vcapable
g10
tp684
F25
s(V.
S'.'
tp685
F1065
s(Vlively
g6
tp686
F2
s(Vobserves
g43
tp687
F2
s(S'VBZ'
p688
S'.'
tp689
F13
s(Vgradations
g34
tp690
F2
s(Vmaiming
g16
tp691
F1
s(S'POS'
p692
g10
tp693
F2
s(VWITH
g22
tp694
F1
s(Vamazing
g10
tp695
F1
s(S','
g25
tp696
F16
s(Vdigest
g4
tp697
F1
s(V--
S':'
tp698
F10
s(Vprince
g16
tp699
F1
s(Vwhilst
g27
tp700
F1
s(Vintended
g25
tp701
F2
s(Viter
g16
tp702
F2
s(Vrivers
g34
tp703
F1
s(Vreverence
g4
tp704
F1
s(Vwhatever
g59
tp705
F22
s(Vjudgment
g16
tp706
F3
s(V19
g192
tp707
F1
s(Vlikewise
g27
tp708
F1
s(Vreferring
g93
tp709
F1
s(Vreceive
g4
tp710
F4
s(Vweaker
g47
tp711
F3
s(Vexcite
g25
tp712
F1
s(Vchange
g4
tp713
F3
s(Vevil
g16
tp714
F1
s(Vcareer
g16
tp715
F1
s(Vsuffered
g25
tp716
F4
s(Vmoderate
g10
tp717
F2
s(Vtransparent
g16
tp718
F2
s(Vaffections
g34
tp719
F16
s(Vdowny
g16
tp720
F1
s(Vluxury
g16
tp721
F1
s(Vimportance
g16
tp722
F2
s(Vconvulsion
g16
tp723
F4
s(Vsmooth
g668
tp724
F5
s(Vloveliness
g16
tp725
F1
s(Vlisten
g27
tp726
F1
s(Vfoundation
g16
tp727
F2
s(Vwhites
g34
tp728
F1
s(Vargue
g4
tp729
F1
s(Vto
g118
tp730
F995
s(Vpainted
g25
tp731
F4
s(g47
S','
tp732
F6
s(VPleasure
g16
tp733
F1
s(VFEAR
g22
tp734
F1
s(Vthunder
g16
tp735
F1
s(g25
g90
tp736
F1
s(g25
g47
tp737
F1
s(S':'
g587
tp738
F9
s(Vcapti
g10
tp739
F1
s(Vcovered
g18
tp740
F1
s(Vhence
g4
tp741
F1
s(VFeeling
g22
tp742
F2
s(Vbetwixt
g43
tp743
F1
s(Vcontinually
g6
tp744
F8
s(V''
g171
tp745
F6
s(Vbotanists
g34
tp746
F1
s(Vbecause
g159
tp747
F45
s(Vsystems
S'NNS'
p748
tp749
F1
s(Vgradual
g10
tp750
F1
s(Vlarge
S'JJ'
p751
tp752
F11
s(Vsplendid
g10
tp753
F1
s(Vyards
g34
tp754
F2
s(Vstand
g27
tp755
F7
s(VBeauty
g16
tp756
F2
s(Vdifferent
S'JJ'
p757
tp758
F30
s(Vmelted
g25
tp759
F1
s(Vfiner
g16
tp760
F3
s(Vtorment
g10
tp761
F1
s(Vcautious
g10
tp762
F1
s(Vaevire
g16
tp763
F1
s(Vcroud
g4
tp764
F1
s(Vconsidered
g25
tp765
F30
s(Vsubmit
g27
tp766
F1
s(VNor
g668
tp767
F2
s(Vsole
g10
tp768
F2
s(VMen
g16
tp769
F1
s(Vgrace
g16
tp770
F1
s(Vutensils
g34
tp771
F1
s(Vtempus
g16
tp772
F1
s(Vsucceeds
S'VBZ'
p773
tp774
F1
s(Vimitator
g16
tp775
F2
s(Vperfections
g34
tp776
F1
s(Vkindness
g16
tp777
F1
s(Vcannon
g16
tp778
F2
s(Vcomprehend
g4
tp779
F1
s(VTurning
g93
tp780
F1
s(g43
g16
tp781
F52
s(Vcold
g4
tp782
F1
s(Vwho
g90
tp783
F47
s(Vdisappointment
g16
tp784
F2
s(VVienna
g22
tp785
F1
s(Vgrounds
g34
tp786
F1
s(Vunited
g25
tp787
F7
s(g385
g108
tp788
F1
s(Vsatisfies
g34
tp789
F1
s(VFrom
g159
tp790
F4
s(Vaeque
g16
tp791
F1
s(Vcontinued
g25
tp792
F4
s(Vsence
g16
tp793
F1
s(Vneighbouring
g16
tp794
F2
s(Vsweet
g10
tp795
F8
s(Vbody
g16
tp796
F59
s(Vunderstand
g27
tp797
F1
s(Vreleased
g25
tp798
F1
s(Vcertainty
g10
tp799
F1
s(VThis
S'DT'
p800
tp801
F37
s(Vdelicate
g10
tp802
F10
s(VUnder
S'IN'
p803
tp804
F1
s(Vexists
g43
tp805
F2
s(S'('
g118
tp806
F2
s(Vshewn
g10
tp807
F1
s(g522
S'NNS'
p808
tp809
F232
s(Vlanguor
g16
tp810
F2
s(Vris'n
g16
tp811
F1
s(Vmeet
g16
tp812
F1
s(g22
S'VBZ'
p813
tp814
F51
s(Vinterea
g16
tp815
F1
s(Vcompatible
g10
tp816
F1
s(Vwater
S'NN'
p817
tp818
F14
s(Vagain
S'RB'
p819
tp820
F6
s(Vfruits
g34
tp821
F2
s(Vflattery
g16
tp822
F2
s(Vterrible
g10
tp823
F23
s(Ventire
S'JJ'
p824
tp825
F5
s(Vgone
S'VBN'
p826
tp827
F2
s(Vdaily
g16
tp828
F1
s(Vimperfection
g16
tp829
F3
s(Vdisorder
g4
tp830
F1
s(Vuses
g34
tp831
F2
s(Vliving
g16
tp832
F1
s(Vbear
g4
tp833
F2
s(g59
S','
tp834
F5
s(Vproportionably
g6
tp835
F1
s(VHis
S'PRP$'
p836
tp837
F1
s(Vhurtful
g10
tp838
F1
s(Venjoying
g93
tp839
F1
s(Vfitness
g16
tp840
F6
s(Vunlocks
g43
tp841
F1
s(Vpursued
g25
tp842
F1
s(VPRESERVATION
g22
tp843
F1
s(Vsatisfied
g25
tp844
F4
s(Vdesirous
g10
tp845
F1
s(Vordinary
g10
tp846
F10
s(Vdelicacy
g16
tp847
F6
s(VHomer
g22
tp848
F5
s(Vholds
S'VBZ'
p849
tp850
F2
s(Vmihi
g16
tp851
F1
s(Vvenerable
g10
tp852
F2
s(Vjoining
g93
tp853
F2
s(Vtotally
g6
tp854
F2
s(V'd
g22
tp855
F1
s(VOUR
g22
tp856
F5
s(Vexcellent
g10
tp857
F9
s(Vstrengthened
g18
tp858
F1
s(Vaccompanied
g25
tp859
F4
s(g385
g6
tp860
F2
s(Vaether
g16
tp861
F1
s(Vreducible
g10
tp862
F1
s(Vcut
g25
tp863
F1
s(Vmoving
g93
tp864
F5
s(Vgather
g27
tp865
F1
s(Vmust
S'MD'
p866
tp867
F59
s(Vlatet
g43
tp868
F1
s(Vspectator
g16
tp869
F1
s(Velevated
g18
tp870
F1
s(S'PRP'
p871
g108
tp872
F3
s(Vlaw
S'NN'
p873
tp874
F3
s(Vmazes
g34
tp875
F1
s(Vmove
g27
tp876
F1
s(Vcreation
g16
tp877
F4
s(Vcalf
g16
tp878
F1
s(Vbeautiful
g6
tp879
F1
s(Vcouched
g25
tp880
F1
s(Vattribute
g4
tp881
F2
s(Vsight
g16
tp882
F18
s(V11.
g192
tp883
F1
s(Vcontinues
S'VBZ'
p884
tp885
F6
s(VQuale
g22
tp886
F1
s(Vquickness
g16
tp887
F1
s(Venforces
g43
tp888
F1
s(VCacus
g22
tp889
F1
s(Vprobable
g10
tp890
F5
s(Varisen
g25
tp891
F3
s(Vremote
g16
tp892
F2
s(VMAGNIFICENCE
g22
tp893
F2
s(Vlikewise
g16
tp894
F2
s(S':'
g10
tp895
F13
s(Vfondness
g16
tp896
F1
s(Vestablished
g10
tp897
F1
s(Vbecame
S'VBD'
p898
tp899
F1
s(S'FW'
p900
g16
tp901
F2
s(Vswiftly
g6
tp902
F1
s(Vcarry
g4
tp903
F2
s(VORIGIN
g22
tp904
F5
s(Vvaluable
g10
tp905
F2
s(Vepithets
g34
tp906
F1
s(Vpictures
g34
tp907
F3
s(Vsurface
g16
tp908
F14
s(Vparticulars
g34
tp909
F7
s(Vfriendship
g16
tp910
F2
s(Vshock
g16
tp911
F3
s(Vaffected
g18
tp912
F3
s(VHinc
g22
tp913
F1
s(Vhad
g25
tp914
F4
s(Vattentively
g6
tp915
F2
s(S'('
S'IN'
p916
tp917
F10
s(Vsues
g34
tp918
F1
s(VStill
S'RB'
p919
tp920
F3
s(Vskins
g34
tp921
F1
s(Vdirection
S'NN'
p922
tp923
F13
s(Vthink
g27
tp924
F11
s(Vopaca
g159
tp925
F1
s(Vbelong
g16
tp926
F1
s(VAll
g139
tp927
F4
s(Vforsaken
g10
tp928
F1
s(Vclass
S'NN'
p929
tp930
F3
s(Vsympathy
g16
tp931
F7
s(g578
g387
tp932
F2
s(S'DT'
p933
g90
tp934
F7
s(Vsafely
g6
tp935
F1
s(VENQUIRY
g22
tp936
F3
s(Vallowing
S'VBG'
p937
tp938
F2
s(g22
g298
tp939
F7
s(Vplants
S'NNS'
p940
tp941
F2
s(VHercules
g22
tp942
F1
s(Varises
g34
tp943
F4
s(Vfluid
g10
tp944
F1
s(Vunaffecting
g10
tp945
F1
s(Vbetween
S'IN'
p946
tp947
F21
s(Vmechanically
g6
tp948
F1
s(Vconfined
g10
tp949
F1
s(Vtribute
g16
tp950
F1
s(Vlivelier
g47
tp951
F1
s(Vtorn
g25
tp952
F1
s(Vsharp
S'JJ'
p953
tp954
F4
s(Vparticularly
S'RB'
p955
tp956
F2
s(VItaly
S'NNP'
p957
tp958
F2
s(Vsee
g4
tp959
F10
s(Vdistresses
g43
tp960
F1
s(Vsubservient
g16
tp961
F1
s(Vthan
S'IN'
p962
tp963
F118
s(Vendeavour
g4
tp964
F3
s(g156
g351
tp965
F4
s(Vexist
g4
tp966
F2
s(Vindeterminate
g16
tp967
F1
s(Vrepeated
g18
tp968
F1
s(Varrangement
g16
tp969
F1
s(Vunconnected
g10
tp970
F1
s(Vpurpose
g10
tp971
F2
s(g692
g16
tp972
F11
s(Vsilent
g10
tp973
F1
s(Vquiet
g10
tp974
F1
s(VPART
g16
tp975
F4
s(Vliable
g10
tp976
F4
s(Vrises
g43
tp977
F2
s(Vintolerable
g10
tp978
F1
s(Vpremonitions
g34
tp979
F1
s(Vopposite
g27
tp980
F1
s(Vquit
g27
tp981
F1
s(Vimpulse
g16
tp982
F2
s(Vgentle
g34
tp983
F1
s(Vliquid
g16
tp984
F1
s(Vcathedrals
g34
tp985
F1
s(Vice
g16
tp986
F1
s(Vtough
S'JJ'
p987
tp988
F1
s(Vfinger
g16
tp989
F1
s(Vperfectly
g6
tp990
F2
s(Vgrand
S'JJ'
p991
tp992
F13
s(Vguarded
g25
tp993
F1
s(g59
S'MD'
p994
tp995
F31
s(Valmost
S'RB'
p996
tp997
F28
s(VIts
S'PRP$'
p998
tp999
F2
s(Vwhimsical
g10
tp1000
F1
s(Vconclusion
g16
tp1001
F1
s(Vignes
g34
tp1002
F1
s(Vturned
g18
tp1003
F1
s(Vhighest
S'JJS'
p1004
tp1005
F9
s(Vwhence
g16
tp1006
F5
s(Veyelids
g34
tp1007
F1
s(Vmixture
g16
tp1008
F2
s(Vaffecting
g10
tp1009
F6
s(Vdwell
g4
tp1010
F3
s(Vsource
S'NN'
p1011
tp1012
F10
s(Vraise
g4
tp1013
F5
s(Vpink
g4
tp1014
F1
s(Vcome
g27
tp1015
F6
s(Vintervals
g34
tp1016
F3
s(Vtruly
g4
tp1017
F1
s(Vmixtures
g34
tp1018
F1
s(Vdare
g4
tp1019
F1
s(Vboth
g668
tp1020
F2
s(Vroused
g25
tp1021
F3
s(Vgains
S'NNS'
p1022
tp1023
F2
s(Vlie
g4
tp1024
F1
s(Vreport
g27
tp1025
F1
s(Vat
S'IN'
p1026
tp1027
F101
s(VBEAUTY
g22
tp1028
F10
s(Vtasted
g25
tp1029
F1
s(g118
S'WP$'
p1030
tp1031
F1
s(Vabsence
g16
tp1032
F2
s(VDii
g22
tp1033
F1
s(Vlabour
g27
tp1034
F1
s(Voccurrences
g34
tp1035
F2
s(Vproved
g25
tp1036
F2
s(Vexamine
g16
tp1037
F1
s(Vstrange
g10
tp1038
F5
s(VSingula
g22
tp1039
F1
s(Vexemplified
g18
tp1040
F1
s(Vlonger
g47
tp1041
F5
s(Vrose
S'VBD'
p1042
tp1043
F7
s(Vne
g16
tp1044
F1
s(Vbodily
g6
tp1045
F5
s(Vfortune
g16
tp1046
F2
s(VTRAGEDY
g22
tp1047
F1
s(Ventertained
g25
tp1048
F3
s(Vvariation
g16
tp1049
F2
s(Vtasteing
g16
tp1050
F1
s(VPursued
g22
tp1051
F1
s(Vextensive
g10
tp1052
F2
s(VDifficulty
g22
tp1053
F1
s(Vbecome
g4
tp1054
F2
s(Vreported
g25
tp1055
F1
s(Vmuscular
g10
tp1056
F2
s(Vgreen
g10
tp1057
F5
s(Vdiscover
g4
tp1058
F7
s(Vrank
g16
tp1059
F3
s(Vmonarchs
g16
tp1060
F2
s(Vcounterfeit
g4
tp1061
F1
s(Vconfounded
g18
tp1062
F1
s(g523
g1030
tp1063
F1
s(Vreasonable
g10
tp1064
F2
s(Vsensations
g34
tp1065
F4
s(Vmethodical
g10
tp1066
F1
s(Vfully
S'RB'
p1067
tp1068
F3
s(Vvastness
g16
tp1069
F3
s(VPolyphemus
g22
tp1070
F1
s(g18
g10
tp1071
F18
s(Vuse
g159
tp1072
F1
s(Vlessening
g10
tp1073
F1
s(g159
g22
tp1074
F87
s(Vthousand
g16
tp1075
F2
s(Vbest
g6
tp1076
F2
s(Vinconveniencies
g34
tp1077
F1
s(Vinodorous
g10
tp1078
F2
s(VSUDDENNESS
g22
tp1079
F1
s(Vsources
S'NNS'
p1080
tp1081
F2
s(Vpressing
g93
tp1082
F1
s(Vdiscovery
g16
tp1083
F1
s(g118
g4
tp1084
F538
s(VOF
g22
tp1085
F5
s(Vimmunity
g16
tp1086
F2
s(S'('
g591
tp1087
F2
s(Vintroduced
g25
tp1088
F2
s(Vcompensate
g4
tp1089
F1
s(Vpublish
g4
tp1090
F1
s(Vany
g523
tp1091
F235
s(Vconformity
g16
tp1092
F1
s(Vpleased
g18
tp1093
F1
s(Vsublimer
g16
tp1094
F1
s(Vsong
g16
tp1095
F1
s(Vabout
g159
tp1096
F12
s(Vcolonnade
g16
tp1097
F4
s(Vhumped
g25
tp1098
F1
s(Varbitrary
g10
tp1099
F2
s(S':'
S'NNS'
p1100
tp1101
F7
s(Vestimating
g93
tp1102
F1
s(Vdiffuse
g16
tp1103
F1
s(Vstairs
g34
tp1104
F1
s(Vcoloured
g18
tp1105
F1
s(V13
S'CD'
p1106
tp1107
F1
s(Vbeauty
g10
tp1108
F1
s(VQuam
g22
tp1109
F2
s(Vhigh
g10
tp1110
F6
s(Vgoing
S'VBG'
p1111
tp1112
F1
s(Vcompasses
g43
tp1113
F1
s(Vpresenting
g93
tp1114
F3
s(Vsweetness
g16
tp1115
F8
s(Vexercised
g25
tp1116
F2
s(Vplain
g6
tp1117
F1
s(Voaks
g34
tp1118
F1
s(Vobserve
g4
tp1119
F10
s(Vvegetables
g34
tp1120
F1
s(Vover
g385
tp1121
F1
s(Vreference
g16
tp1122
F4
s(Vsubtilty
g16
tp1123
F1
s(Vprevents
g34
tp1124
F1
s(Vseem
g27
tp1125
F12
s(Vrational
g10
tp1126
F3
s(Vexhalat
g668
tp1127
F1
s(Vpurpureum
g27
tp1128
F1
s(Vwell
g16
tp1129
F1
s(Vbitterness
g16
tp1130
F2
s(Vspecious
g10
tp1131
F1
s(Vloca
g16
tp1132
F1
s(Vill
g10
tp1133
F6
s(Vnumine
g10
tp1134
F1
s(Vidly
g6
tp1135
F1
s(Vshewn
g4
tp1136
F1
s(Vlong
g10
tp1137
F8
s(Vred
g4
tp1138
F1
s(Voblong
g10
tp1139
F1
s(Vshaken
g25
tp1140
F1
s(Ventrance
g16
tp1141
F1
s(Vglobes
g34
tp1142
F3
s(Voverpower
g4
tp1143
F1
s(Vempire
g16
tp1144
F2
s(Vsweetness
g6
tp1145
F1
s(Vexcites
g43
tp1146
F3
s(Vexcessive
g10
tp1147
F3
s(g162
g59
tp1148
F5
s(Vinstructed
g25
tp1149
F1
s(Vtouches
g34
tp1150
F2
s(Vconclude
g27
tp1151
F1
s(Vcalculated
g25
tp1152
F3
s(Vsugar
g16
tp1153
F6
s(Vgenerous
g10
tp1154
F2
s(VThirdly
g6
tp1155
F4
s(Vsuppose
g16
tp1156
F1
s(Vimagery
g16
tp1157
F1
s(Vthreatens
g43
tp1158
F1
s(Vminds
g34
tp1159
F13
s(Vpurpose
g4
tp1160
F1
s(Vsurround
g18
tp1161
F1
s(Vscai
g16
tp1162
F1
s(g22
g10
tp1163
F9
s(VNATURAL
g10
tp1164
F1
s(Vregard
g27
tp1165
F5
s(Vmoderated
g25
tp1166
F1
s(Vinsufficiency
g16
tp1167
F1
s(Vpossess
g4
tp1168
F1
s(Vphysiognomist
g16
tp1169
F1
s(Vsigh
g16
tp1170
F1
s(Valta
g10
tp1171
F1
s(Vbehind
g159
tp1172
F1
s(Vequidistant
g10
tp1173
F1
s(Vclaiming
g93
tp1174
F1
s(V's
g43
tp1175
F26
s(VCritics
g34
tp1176
F1
s(Vmagistrate
g16
tp1177
F1
s(Vpale
g16
tp1178
F2
s(Vgrandeur
g16
tp1179
F8
s(VLittleness
g22
tp1180
F1
s(Vcomposure
g16
tp1181
F1
s(Vannimals
g34
tp1182
F1
s(Vgrown
g16
tp1183
F1
s(Vattentive
g10
tp1184
F3
s(Vindulging
g93
tp1185
F1
s(Vart
g16
tp1186
F21
s(Vimmediate
g10
tp1187
F1
s(Vadorned
g18
tp1188
F1
s(Vowes
g43
tp1189
F2
s(Vvarious
S'JJ'
p1190
tp1191
F7
s(Vdiscoverable
g10
tp1192
F1
s(g327
g1026
tp1193
F1
s(Vplain
g10
tp1194
F2
s(Vsoft
g10
tp1195
F12
s(Vcause
g16
tp1196
F85
s(V,
S','
tp1197
F2780
s(g10
g25
tp1198
F9
s(Vpersonal
S'JJ'
p1199
tp1200
F1
s(Vsleep
g16
tp1201
F3
s(Vundoubtedly
g6
tp1202
F5
s(Vignoscendo
g16
tp1203
F1
s(Vmetaphors
g34
tp1204
F1
s(S'VBN'
p1205
S'VBD'
p1206
tp1207
F5
s(Vvaliant
g16
tp1208
F1
s(Vhands
g34
tp1209
F2
s(g6
g118
tp1210
F67
s(Vgenerate
g4
tp1211
F1
s(Vadverting
g16
tp1212
F1
s(g27
g385
tp1213
F6
s(Vdelight
g18
tp1214
F1
s(Vbe
g73
tp1215
F353
s(Vdeformed
g25
tp1216
F3
s(Vsciences
g34
tp1217
F1
s(g623
g25
tp1218
F2
s(Vanimarum
g16
tp1219
F1
s(Vearly
g10
tp1220
F2
s(VBy
S'IN'
p1221
tp1222
F5
s(S':'
g93
tp1223
F2
s(Vdiminutive
g10
tp1224
F2
s(VWithout
g159
tp1225
F1
s(Verror
g16
tp1226
F1
s(VTHOUGH
g159
tp1227
F1
s(Vsocieties
g34
tp1228
F1
s(Vthen
S'RB'
p1229
tp1230
F25
s(Vexcelling
g93
tp1231
F1
s(Vfail
g27
tp1232
F3
s(Vexpanded
g10
tp1233
F1
s(Vuneasy
g10
tp1234
F3
s(Vread
g18
tp1235
F1
s(Vfire
g16
tp1236
F3
s(Vinsist
g4
tp1237
F1
s(Vwaters
g43
tp1238
F1
s(Vagree
g4
tp1239
F1
s(Vkeeps
g43
tp1240
F1
s(Vwhich
g59
tp1241
F359
s(Vsheds
g34
tp1242
F1
s(Vsub
g16
tp1243
F4
s(Vvacuities
g34
tp1244
F1
s(g6
g108
tp1245
F15
s(Vfit
g10
tp1246
F6
s(VWorks
g34
tp1247
F1
s(Vfamine
g16
tp1248
F1
s(Vwonder
g16
tp1249
F1
s(Voils
g34
tp1250
F1
s(g22
S'RB'
p1251
tp1252
F10
s(Vregard
g4
tp1253
F1
s(Voperate
g16
tp1254
F2
s(Vmechanism
g16
tp1255
F2
s(Vinsensibly
g6
tp1256
F3
s(g523
g156
tp1257
F6
s(S'.'
g171
tp1258
F4
s(Vloses
g43
tp1259
F1
s(S'VBG'
p1260
g25
tp1261
F20
s(Vpassing
g93
tp1262
F1
s(Vworst
g150
tp1263
F2
s(S'CC'
p1264
g4
tp1265
F46
s(Vcustom
g4
tp1266
F1
s(S'IN'
p1267
g10
tp1268
F418
s(Vwhat
g90
tp1269
F87
s(g22
g4
tp1270
F4
s(Vdisposing
g93
tp1271
F1
s(Vruins
g34
tp1272
F1
s(Vopinion
S'NN'
p1273
tp1274
F11
s(Vgreater
g342
tp1275
F22
s(g16
g6
tp1276
F145
s(Vmade
g18
tp1277
F4
s(Vfoundations
g34
tp1278
F2
s(Vmodification
g16
tp1279
F2
s(g522
g668
tp1280
F6
s(Vnever
S'RB'
p1281
tp1282
F40
s(Vassociated
g10
tp1283
F2
s(Vpoorest
g150
tp1284
F1
s(VFITNESS
g22
tp1285
F2
s(Vframe
g16
tp1286
F2
s(Veffert
g10
tp1287
F1
s(Vremarkable
g10
tp1288
F10
s(Vhurries
g34
tp1289
F1
s(Vgrandeur
g4
tp1290
F1
s(Vcross
g16
tp1291
F6
s(VPhysiognomy
g22
tp1292
F1
s(Vventures
S'NNS'
p1293
tp1294
F1
s(Vabbe
g16
tp1295
F1
s(g16
g1030
tp1296
F1
s(Vtouch
g16
tp1297
F15
s(Vaffect
g10
tp1298
F2
s(S'PRP'
p1299
g645
tp1300
F2
s(Vrise
g4
tp1301
F1
s(g10
S')'
tp1302
F2
s(Vexpects
S'VBZ'
p1303
tp1304
F1
s(Vangels
g34
tp1305
F2
s(Voperate
g27
tp1306
F5
s(g34
S'.'
tp1307
F174
s(Vsimplicity
g16
tp1308
F2
s(Vwhilst
g90
tp1309
F1
s(Vacknowledged
g10
tp1310
F1
s(Vmeet
g27
tp1311
F1
s(S':'
S'PRP'
p1312
tp1313
F69
s(Vmode
g16
tp1314
F5
s(Vdecorations
g34
tp1315
F1
s(Vshouting
g16
tp1316
F1
s(Vrules
S'NNS'
p1317
tp1318
F5
s(Vstruggle
g16
tp1319
F1
s(Vremote
g4
tp1320
F1
s(Vunoperative
g10
tp1321
F3
s(Vdirectly
g500
tp1322
F6
s(g18
g16
tp1323
F12
s(Vunderstanding
g16
tp1324
F5
s(Vold
S'JJ'
p1325
tp1326
F5
s(Vopinions
g34
tp1327
F5
s(S':'
g22
tp1328
F5
s(Vcolour
g4
tp1329
F1
s(Vcoarser
g16
tp1330
F1
s(g291
g523
tp1331
F276
s(Vwholly
g6
tp1332
F6
s(Vstrictly
g6
tp1333
F2
s(Vor
g1264
tp1334
F300
s(Vup
g385
tp1335
F14
s(Vsit
g27
tp1336
F1
s(Vmouth
g16
tp1337
F4
s(VWHATEVER
g59
tp1338
F1
s(S':'
g18
tp1339
F1
s(VCLEARNESS
g22
tp1340
F1
s(Vimaginations
g34
tp1341
F2
s(Vimpressed
g25
tp1342
F3
s(Vseen
S'VBN'
p1343
tp1344
F3
s(Vamaz
g10
tp1345
F1
s(Vplacid
g16
tp1346
F1
s(Voccurs
g43
tp1347
F2
s(g47
S'MD'
p1348
tp1349
F1
s(Vdragged
g10
tp1350
F1
s(Vneither
g668
tp1351
F3
s(Vfails
g43
tp1352
F1
s(Vconveyed
g25
tp1353
F1
s(Vdiscovering
g93
tp1354
F2
s(Vdubious
g10
tp1355
F1
s(Vsurprise
g16
tp1356
F3
s(Vcontrasted
g25
tp1357
F2
s(Vfill
g4
tp1358
F4
s(g43
g34
tp1359
F7
s(Vquills
g34
tp1360
F1
s(Vfearful
g10
tp1361
F1
s(Vsubject
g16
tp1362
F15
s(Vpurposely
g6
tp1363
F1
s(Vmostly
S'RB'
p1364
tp1365
F2
s(Vcheerful
g16
tp1366
F1
s(Vquite
g6
tp1367
F5
s(Vstart
g16
tp1368
F2
s(Vextravagant
g10
tp1369
F1
s(VPandere
g22
tp1370
F1
s(g10
g118
tp1371
F151
s(Vconvinced
g25
tp1372
F3
s(Vpolished
g18
tp1373
F3
s(VGood
g10
tp1374
F2
s(Vfourth
S'JJ'
p1375
tp1376
F1
s(Vcolonnades
g34
tp1377
F2
s(Vevenness
g16
tp1378
F2
s(Vroll
g27
tp1379
F1
s(Vengage
g27
tp1380
F2
s(Vapt
g10
tp1381
F3
s(Vbelow
g159
tp1382
F3
s(VSolitude
g22
tp1383
F1
s(g10
S':'
tp1384
F77
s(VMenelaus
g22
tp1385
F1
s(Vill
g16
tp1386
F2
s(Vtaste
g16
tp1387
F20
s(Vinward
g16
tp1388
F2
s(Vdeterminate
g10
tp1389
F1
s(Vbelong
g4
tp1390
F1
s(Vshake
g4
tp1391
F1
s(Vnaturally
g6
tp1392
F8
s(Vraging
g93
tp1393
F1
s(Vwhatsover
g16
tp1394
F1
s(g90
S'NNS'
p1395
tp1396
F7
s(g4
g108
tp1397
F16
s(Vremoved
g25
tp1398
F2
s(Vfancies
g34
tp1399
F2
s(Vwar
S'NN'
p1400
tp1401
F3
s(Vcapacity
S'NN'
p1402
tp1403
F3
s(VSetigerique
g22
tp1404
F1
s(Vshape
g16
tp1405
F14
s(Vabruptly
g6
tp1406
F1
s(Vrange
g16
tp1407
F1
s(Vvigorous
g10
tp1408
F1
s(g900
g4
tp1409
F1
s(S'``'
p1410
g139
tp1411
F4
s(Vinfluence
g4
tp1412
F1
s(Vinvestigate
g4
tp1413
F1
s(Vmany
g162
tp1414
F59
s(Vsuch
g10
tp1415
F106
s(Vsit
g4
tp1416
F1
s(Vreds
g34
tp1417
F1
s(Vunderstood
g18
tp1418
F1
s(Vlatter
g16
tp1419
F6
s(Varrival
g16
tp1420
F1
s(Vsearch
g16
tp1421
F1
s(Vparticular
g16
tp1422
F1
s(Vdeclivities
g34
tp1423
F1
s(VExtension
g16
tp1424
F1
s(VSince
S'IN'
p1425
tp1426
F3
s(Vmoves
g43
tp1427
F1
s(VIV
g22
tp1428
F1
s(Vheaven
g16
tp1429
F1
s(Verect
g10
tp1430
F1
s(Vmilk
g16
tp1431
F1
s(VGermany
S'NNP'
p1432
tp1433
F2
s(Vplanted
g25
tp1434
F2
s(VAlbunea
g22
tp1435
F2
s(Vconfigurations
g34
tp1436
F1
s(Veasily
S'RB'
p1437
tp1438
F12
s(Vjudge
g16
tp1439
F4
s(Vshew
g4
tp1440
F14
s(Vimproprieties
g34
tp1441
F2
s(Vswan
g16
tp1442
F1
s(Vbetter
g47
tp1443
F4
s(g16
g27
tp1444
F48
s(Vexpected
g18
tp1445
F1
s(Vmurdered
g25
tp1446
F1
s(Vrest
g150
tp1447
F1
s(VAlmost
g6
tp1448
F1
s(Vexamples
g34
tp1449
F5
s(VSaave
g22
tp1450
F1
s(Virritant
g27
tp1451
F1
s(Vexclusion
g16
tp1452
F3
s(g587
g15
tp1453
F2
s(Vanswer
g27
tp1454
F1
s(Vprospect
g16
tp1455
F3
s(Vprevent
g27
tp1456
F2
s(VContinued
g25
tp1457
F2
s(Vwhereas
g10
tp1458
F1
s(Vtriumph
g16
tp1459
F2
s(Vincorporate
g4
tp1460
F1
s(Vnext
g10
tp1461
F13
s(Vfauni
g10
tp1462
F1
s(g27
S'NNS'
p1463
tp1464
F22
s(Vdistinction
g16
tp1465
F5
s(Vsettled
g10
tp1466
F1
s(VSMELLS
g22
tp1467
F1
s(Vheightens
g34
tp1468
F1
s(Vpreserve
g4
tp1469
F1
s(Vfatal
g10
tp1470
F1
s(Vrex
g16
tp1471
F1
s(V16
S'CD'
p1472
tp1473
F1
s(Vforegoing
g10
tp1474
F1
s(Vserve
g4
tp1475
F1
s(V22
S'CD'
p1476
tp1477
F1
s(VSuppose
g22
tp1478
F3
s(g808
g655
tp1479
F17
s(Vsuppose
g27
tp1480
F1
s(Vcomes
S'VBZ'
p1481
tp1482
F2
s(g159
g25
tp1483
F6
s(VNot
S'RB'
p1484
tp1485
F1
s(Vlargely
S'RB'
p1486
tp1487
F1
s(Vcircle
g16
tp1488
F4
s(S':'
g4
tp1489
F13
s(Vdefend
g4
tp1490
F1
s(Vblue
g10
tp1491
F4
s(Vsome
g933
tp1492
F120
s(Vrough
g10
tp1493
F3
s(VSudden
g10
tp1494
F1
s(Vproportions
g34
tp1495
F23
s(Vconfounded
g25
tp1496
F1
s(Vripening
g16
tp1497
F1
s(VVenus
g22
tp1498
F2
s(VYe
g22
tp1499
F1
s(S')'
g291
tp1500
F3
s(Vinequalities
g34
tp1501
F1
s(Vgemitus
g16
tp1502
F1
s(Vdead
g10
tp1503
F3
s(Vcalled
g18
tp1504
F3
s(S')'
S'VB'
p1505
tp1506
F1
s(Vartist
g16
tp1507
F2
s(Vrequire
g27
tp1508
F1
s(Vinvariable
g10
tp1509
F1
s(g6
g27
tp1510
F45
s(Vsubstance
g16
tp1511
F3
s(Vrepeat
g4
tp1512
F2
s(Vbelongs
g34
tp1513
F1
s(Vregards
g27
tp1514
F1
s(Vsoftened
g25
tp1515
F2
s(Vexplained
g18
tp1516
F1
s(g171
g1410
tp1517
F1
s(Vimpulse
g27
tp1518
F1
s(g4
S','
tp1519
F98
s(Vexpert
g10
tp1520
F1
s(Vstand
g16
tp1521
F2
s(Vaffliction
g16
tp1522
F2
s(VFierce
g22
tp1523
F1
s(Vrestlessness
g16
tp1524
F1
s(Vcombined
g25
tp1525
F2
s(Vslides
g43
tp1526
F1
s(VALL
g139
tp1527
F1
s(Vexamine
g4
tp1528
F14
s(Vlimits
g34
tp1529
F1
s(Vrevolt
g16
tp1530
F1
s(Vsola
g16
tp1531
F1
s(Vfancy
g4
tp1532
F1
s(Vattended
g10
tp1533
F1
s(Vhorizontal
g10
tp1534
F1
s(Vcapital
g16
tp1535
F1
s(g43
g10
tp1536
F138
s(Vbreath
g16
tp1537
F2
s(Vproduce
g4
tp1538
F20
s(Vprick
g4
tp1539
F1
s(Vchanging
g93
tp1540
F2
s(VAnciently
g6
tp1541
F1
s(VFROM
g159
tp1542
F1
s(g93
S'IN'
p1543
tp1544
F46
s(g25
g315
tp1545
F2
s(Vdreadful
g10
tp1546
F1
s(Vhabit
g16
tp1547
F4
s(VSELF-PRESERVATION
g22
tp1548
F1
s(Vof
g522
tp1549
F1717
s(Vendure
g27
tp1550
F1
s(Vstood
g18
tp1551
F3
s(Voak
g16
tp1552
F1
s(VFourth
g22
tp1553
F1
s(Vdeceitful
g16
tp1554
F1
s(VSOUNDS
g22
tp1555
F1
s(g34
S'CD'
p1556
tp1557
F1
s(VSixthly
g6
tp1558
F1
s(Vexcites
g34
tp1559
F1
s(Vadapt
g27
tp1560
F1
s(Vconversed
g18
tp1561
F1
s(Vbarb
g16
tp1562
F1
s(Vdissipate
g4
tp1563
F1
s(Vdesire
g16
tp1564
F4
s(Vused
g25
tp1565
F15
s(Vconsequences
g34
tp1566
F1
s(VSTENCHES
g22
tp1567
F1
s(Vimposed
g25
tp1568
F1
s(Vshewn
g16
tp1569
F2
s(Vmuch
g6
tp1570
F34
s(Vunrestrained
g25
tp1571
F1
s(Vfollow
g27
tp1572
F1
s(Vinanimate
g10
tp1573
F1
s(Vdid
S'VBD'
p1574
tp1575
F8
s(Vhell
g4
tp1576
F1
s(Vsaid
g1206
tp1577
F25
s(Vbeautiful
g10
tp1578
F56
s(Videas
g159
tp1579
F1
s(Vdifficulties
g34
tp1580
F4
s(Vprevails
g43
tp1581
F1
s(Vspectacle
g16
tp1582
F1
s(Vproportioned
g10
tp1583
F2
s(Vyet
g668
tp1584
F11
s(Vpeacocks
g34
tp1585
F1
s(Vsensory
g10
tp1586
F1
s(VPhilosophical
g10
tp1587
F2
s(Vprevents
g43
tp1588
F2
s(Vvisit
g4
tp1589
F1
s(VNEXT
g6
tp1590
F1
s(Vcause
g4
tp1591
F8
s(Vbounds
g34
tp1592
F4
s(Vuseful
g10
tp1593
F4
s(Vchariot
g16
tp1594
F1
s(VLike
S'IN'
p1595
tp1596
F1
s(S':'
g6
tp1597
F22
s(VShorn
g22
tp1598
F1
s(Vprofound
g16
tp1599
F1
s(VHad
g22
tp1600
F1
s(Vattitude
g16
tp1601
F1
s(V'
g692
tp1602
F1
s(Vabstract
g10
tp1603
F3
s(Vdreary
g10
tp1604
F2
s(Vvisual
g10
tp1605
F10
s(Vproportionable
g10
tp1606
F1
s(Vwicked
g10
tp1607
F1
s(Vif
g916
tp1608
F103
s(g800
S'VBN'
p1609
tp1610
F12
s(Vpointed
g10
tp1611
F1
s(g6
g250
tp1612
F23
s(Vsudden
g16
tp1613
F1
s(Vlooking
S'VBG'
p1614
tp1615
F2
s(Vopiate
g16
tp1616
F1
s(Vseverest
g150
tp1617
F1
s(Voriginally
g6
tp1618
F7
s(Vmountainous
g10
tp1619
F1
s(Vexcite
g27
tp1620
F2
s(Valong
g159
tp1621
F8
s(Vfellow
g10
tp1622
F1
s(Vstandard
g16
tp1623
F8
s(Vunworthy
g10
tp1624
F1
s(Vsufferings
g34
tp1625
F2
s(VAny
g139
tp1626
F1
s(VAS
g159
tp1627
F3
s(Vgrief
g16
tp1628
F6
s(Vwishes
g34
tp1629
F1
s(S'WP'
p1630
g22
tp1631
F2
s(Vplane
g16
tp1632
F1
s(Vadd
g4
tp1633
F3
s(Vawe
g10
tp1634
F1
s(Vsmooth
g6
tp1635
F1
s(S'('
g937
tp1636
F1
s(Vconcerns
g34
tp1637
F1
s(Vdestined
g25
tp1638
F1
s(Vfar
S'RB'
p1639
tp1640
F38
s(Vascents
g34
tp1641
F1
s(Vugly
g6
tp1642
F2
s(Vbefore
g159
tp1643
F26
s(Vinadvertently
g6
tp1644
F1
s(Vconfine
g4
tp1645
F2
s(Vpractice
S'NN'
p1646
tp1647
F6
s(Vinstance
S'NN'
p1648
tp1649
F6
s(Vhelp
g16
tp1650
F1
s(Vborn
g25
tp1651
F2
s(Vappeal
g27
tp1652
F1
s(Vcall
g16
tp1653
F1
s(Vbreast
g16
tp1654
F1
s(Vill
g6
tp1655
F1
s(Vuse
g16
tp1656
F23
s(Vtremendous
g10
tp1657
F2
s(Vvirtue
g4
tp1658
F2
s(Vpartial
g10
tp1659
F1
s(Vartillery
g16
tp1660
F1
s(Vcommonly
g6
tp1661
F12
s(VFirst
g6
tp1662
F3
s(Vsignalizing
g93
tp1663
F1
s(Vdisordered
g10
tp1664
F1
s(Vinmost
g16
tp1665
F1
s(Vresolution
g16
tp1666
F1
s(Vshining
g93
tp1667
F2
s(Vwaste
g16
tp1668
F1
s(Vdetermine
g4
tp1669
F1
s(g59
g27
tp1670
F95
s(Vhabitudes
g34
tp1671
F1
s(Vfaithful
g10
tp1672
F1
s(Vessential
g10
tp1673
F3
s(Vground
g16
tp1674
F2
s(Vperceivable
g10
tp1675
F1
s(Vdust
g16
tp1676
F1
s(VSatan
g22
tp1677
F1
s(V25
S'CD'
p1678
tp1679
F1
s(g4
S'PRP$'
p1680
tp1681
F37
s(Vincomparably
g6
tp1682
F1
s(Vrepresents
g688
tp1683
F2
s(Vqualified
g25
tp1684
F1
s(Vrelaxes
g43
tp1685
F1
s(Vshoot
g4
tp1686
F1
s(Vcompositions
g34
tp1687
F3
s(Vinsinuate
g27
tp1688
F1
s(g1042
S':'
tp1689
F7
s(Vliquor
g16
tp1690
F5
s(S'DT'
p1691
S':'
tp1692
F17
s(Vdetain
g4
tp1693
F1
s(Vcertainty
g16
tp1694
F1
s(Vconfound
g4
tp1695
F2
s(Vauthentic
g10
tp1696
F1
s(Vadmitted
g25
tp1697
F3
s(Vtroubled
g25
tp1698
F1
s(Vmanners
g34
tp1699
F4
s(Vlaying
g93
tp1700
F1
s(VLydian
g10
tp1701
F1
s(g505
g22
tp1702
F3
s(Vsensible
g10
tp1703
F13
s(Vwe
g645
tp1704
F299
s(VSMOOTHNESS
g22
tp1705
F2
s(g22
S'.'
tp1706
F102
s(g159
g90
tp1707
F42
s(Vmissile
g16
tp1708
F1
s(g250
g1264
tp1709
F2
s(Vwhilst
g16
tp1710
F4
s(Vyoung
S'JJ'
p1711
tp1712
F3
s(Vefficacy
g16
tp1713
F1
s(Vred
g10
tp1714
F7
s(Vcreature
g16
tp1715
F4
s(Valready
S'RB'
p1716
tp1717
F4
s(Vsternness
g16
tp1718
F2
s(Vconcerned
g18
tp1719
F1
s(Vstale
g10
tp1720
F1
s(Vgennet
g16
tp1721
F1
s(g34
g548
tp1722
F3
s(Vmountain
g16
tp1723
F3
s(Vbarbarous
g10
tp1724
F2
s(VScrupea
g22
tp1725
F1
s(Vspeak
g16
tp1726
F1
s(Vtherefore
g6
tp1727
F16
s(Vsomewhere
g6
tp1728
F1
s(Vvariety
g16
tp1729
F25
s(Vdeadened
g25
tp1730
F1
s(Vsound
g16
tp1731
F15
s(Vwanton
g16
tp1732
F1
s(Vhumming
g16
tp1733
F1
s(Vconstitutes
g43
tp1734
F1
s(VIndulge
g22
tp1735
F1
s(Vsay
g4
tp1736
F22
s(V15
S'CD'
p1737
tp1738
F1
s(Vorgan
g43
tp1739
F1
s(Voracula
g16
tp1740
F1
s(Vdisgust
g16
tp1741
F1
s(Vmadness
g4
tp1742
F1
s(VHe
S'PRP'
p1743
tp1744
F5
s(Vswellings
g34
tp1745
F1
s(g34
g1312
tp1746
F48
s(Vwarmly
g6
tp1747
F1
s(Vhorses
g34
tp1748
F1
s(Vcolour
g16
tp1749
F15
s(Vforms
g34
tp1750
F4
s(Vdescent
g16
tp1751
F2
s(Vforward
g6
tp1752
F2
s(Vrelative
g27
tp1753
F1
s(Vinterprete
g10
tp1754
F1
s(V3
g192
tp1755
F1
s(g4
g156
tp1756
F10
s(VBeautiful
g22
tp1757
F1
s(Vunmixed
g10
tp1758
F2
s(Vshews
g27
tp1759
F1
s(Vinfinity
g16
tp1760
F11
s(Vforum
g16
tp1761
F1
s(Vinterrupted
g18
tp1762
F1
s(VWhereas
g159
tp1763
F1
s(Vcontribute
g16
tp1764
F1
s(Vdo
g4
tp1765
F10
s(Vchosen
g25
tp1766
F3
s(Vamongst
g43
tp1767
F1
s(VDeformity
g16
tp1768
F1
s(Vpassage
g16
tp1769
F4
s(Vmental
g10
tp1770
F6
s(Vexcite
g6
tp1771
F1
s(Vinclination
g16
tp1772
F2
s(Vcommon
S'JJ'
p1773
tp1774
F29
s(Vfrozen
g10
tp1775
F1
s(Vpleasurable
g10
tp1776
F1
s(Vperceived
g10
tp1777
F1
s(Vprejudicial
g10
tp1778
F4
s(Vreverence
g16
tp1779
F3
s(Vmight
S'MD'
p1780
tp1781
F21
s(Vstructure
S'NN'
p1782
tp1783
F2
s(Vpiece
g16
tp1784
F3
s(Vnaked
g10
tp1785
F2
s(Vscarcely
g6
tp1786
F5
s(VMr.
S'NNP'
p1787
tp1788
F8
s(Vcompassion
g16
tp1789
F2
s(Vfunctions
g34
tp1790
F2
s(Vincreases
g43
tp1791
F2
s(Vnatures
g34
tp1792
F1
s(g16
g16
tp1793
F164
s(Vhard
g10
tp1794
F7
s(Vattributed
g25
tp1795
F6
s(Vscarce
g10
tp1796
F2
s(g109
g192
tp1797
F10
s(Vfamiliar
S'JJ'
p1798
tp1799
F1
s(VSMALLNESS
g22
tp1800
F1
s(Vremain
g16
tp1801
F1
s(S'NN'
p1802
S'JJ'
p1803
tp1804
F52
s(Vagreeable
g10
tp1805
F17
s(Vown
g10
tp1806
F36
s(Vgrateful
g10
tp1807
F4
s(Vapple
S'NN'
p1808
tp1809
F2
s(Vaffect
g27
tp1810
F13
s(g63
S'IN'
p1811
tp1812
F132
s(g34
g108
tp1813
F77
s(Vassume
g27
tp1814
F1
s(Vseizing
g93
tp1815
F1
s(Vincredible
g10
tp1816
F1
s(Vswelling
g16
tp1817
F1
s(VCONCLUSION
g22
tp1818
F1
s(Vevinces
g43
tp1819
F1
s(Vimpressed
g10
tp1820
F1
s(Vspeak
g27
tp1821
F4
s(Vvacant
g10
tp1822
F1
s(Vpersuade
g4
tp1823
F3
s(Valternately
g6
tp1824
F3
s(Vinterpose
g4
tp1825
F1
s(Vdown
g385
tp1826
F14
s(Vlessening
g16
tp1827
F1
s(Vevince
g16
tp1828
F1
s(Vmuscles
g34
tp1829
F4
s(Vimagined
g25
tp1830
F2
s(Vaffects
g43
tp1831
F8
s(Vrespect
g16
tp1832
F5
s(g47
g118
tp1833
F4
s(Vredressed
g10
tp1834
F1
s(Vknown
g10
tp1835
F2
s(Vapplicable
g10
tp1836
F5
s(S','
S'PRP$'
p1837
tp1838
F16
s(Vdeal
g16
tp1839
F8
s(Vfallacious
g10
tp1840
F2
s(g16
g587
tp1841
F3
s(Vformer
S'JJ'
p1842
tp1843
F18
s(Vtremulous
g10
tp1844
F1
s(Vintermission
g16
tp1845
F1
s(Vabstracts
g34
tp1846
F4
s(Vhour
S'NN'
p1847
tp1848
F1
s(Vcloser
g47
tp1849
F1
s(g90
g10
tp1850
F3
s(Vmistaken
g25
tp1851
F3
s(Vlight
g16
tp1852
F29
s(Vseparate
g4
tp1853
F1
s(Vextreamly
g10
tp1854
F1
s(Vdissolved
g25
tp1855
F1
s(Vslightness
g16
tp1856
F1
s(Vsufferer
g16
tp1857
F1
s(Vgestures
g34
tp1858
F3
s(Vmoon
g16
tp1859
F2
s(Vunderstood
g6
tp1860
F1
s(Vbelonging
g93
tp1861
F8
s(g315
g548
tp1862
F1
s(Vcontinued
g10
tp1863
F2
s(Vlanguages
g34
tp1864
F2
s(Vexcluded
g18
tp1865
F1
s(Vwrist
g16
tp1866
F1
s(VMIND
g22
tp1867
F1
s(Vbirth
g16
tp1868
F2
s(Vstruck
g25
tp1869
F4
s(Vturns
g43
tp1870
F4
s(Vemotions
g34
tp1871
F9
s(Vconversant
g10
tp1872
F6
s(Vking
g16
tp1873
F2
s(Vexcess
g16
tp1874
F2
s(Vstrait
g16
tp1875
F2
s(VAddison
g22
tp1876
F1
s(Vkitchen
g16
tp1877
F1
s(Vbeauties
g34
tp1878
F3
s(Vfancy
g16
tp1879
F1
s(g96
S'DT'
p1880
tp1881
F50
s(Vten
g10
tp1882
F1
s(Vsalt
g16
tp1883
F9
s(Vfit
g16
tp1884
F4
s(VIndeed
S'RB'
p1885
tp1886
F3
s(Vmind
g16
tp1887
F89
s(Vmeans
g43
tp1888
F5
s(Vround
g16
tp1889
F7
s(g590
S'NNS'
p1890
tp1891
F11
s(g108
g623
tp1892
F3
s(Vmultiplication
g16
tp1893
F1
s(Vsweetmeat
g16
tp1894
F1
s(Vfeet
S'NNS'
p1895
tp1896
F1
s(Vcarefully
g6
tp1897
F2
s(Vassigned
g25
tp1898
F4
s(Veffects
S'NNS'
p1899
tp1900
F41
s(Vvibratory
g10
tp1901
F2
s(Vrapturous
g10
tp1902
F1
s(Vfriends
g34
tp1903
F3
s(g25
S':'
tp1904
F25
s(Vaccounts
g34
tp1905
F1
s(Vcharacters
g34
tp1906
F2
s(g118
S','
tp1907
F3
s(g34
g387
tp1908
F27
s(VINTO
g22
tp1909
F5
s(Vstretch
g4
tp1910
F1
s(Vthings
g808
tp1911
F95
s(S')'
g505
tp1912
F2
s(g43
g298
tp1913
F69
s(Vspirituous
g10
tp1914
F1
s(Vobscure
g10
tp1915
F4
s(Vwood
g16
tp1916
F2
s(Vpresented
g25
tp1917
F9
s(Vrelates
g43
tp1918
F1
s(Vsecrets
g34
tp1919
F2
s(Vnotion
g16
tp1920
F7
s(Vgenius
g16
tp1921
F1
s(Vmodified
g25
tp1922
F2
s(Vthence
g16
tp1923
F1
s(Vfinished
g25
tp1924
F2
s(Vperfugium
g16
tp1925
F1
s(Vabovementioned
g10
tp1926
F2
s(VBos
g22
tp1927
F1
s(g1205
g93
tp1928
F4
s(Vdim
g16
tp1929
F1
s(VCuriosity
g16
tp1930
F1
s(Vdestruction
g16
tp1931
F3
s(Vconference
S'NN'
p1932
tp1933
F1
s(Vgreatest
g150
tp1934
F14
s(Vshewn
g25
tp1935
F1
s(Vact
g27
tp1936
F1
s(S':'
g43
tp1937
F2
s(Vobey
g27
tp1938
F2
s(Vsign
g16
tp1939
F1
s(Vrepresented
g25
tp1940
F2
s(VUpon
g159
tp1941
F1
s(Vhave
g4
tp1942
F56
s(Vplaced
g18
tp1943
F1
s(Vcat
g16
tp1944
F1
s(S','
g345
tp1945
F126
s(Vhedgehog
g16
tp1946
F1
s(g590
g16
tp1947
F13
s(g25
g192
tp1948
F2
s(VRocks
g34
tp1949
F1
s(Vtaught
g10
tp1950
F1
s(VOr
g668
tp1951
F6
s(Vdegree
g16
tp1952
F34
s(Vsets
g34
tp1953
F2
s(Vnames
g34
tp1954
F4
s(g6
g192
tp1955
F3
s(Vprevails
g34
tp1956
F1
s(Vother
g274
tp1957
F143
s(Vpeacock
g16
tp1958
F1
s(Vconduct
g16
tp1959
F1
s(Vfriend
g16
tp1960
F1
s(Vcry
g16
tp1961
F1
s(Vmathematical
g10
tp1962
F1
s(Vright
g6
tp1963
F1
s(Vrecover
g27
tp1964
F1
s(Vceasing
g16
tp1965
F3
s(Vunderstand
g4
tp1966
F1
s(Vcontroversy
g16
tp1967
F1
s(Vsmoothness
g16
tp1968
F10
s(Vguess
g16
tp1969
F1
s(Vover-ruling
g10
tp1970
F1
s(Valtitude
g16
tp1971
F1
s(Vshould
g1348
tp1972
F58
s(Vclosing
g16
tp1973
F1
s(Vworse
g16
tp1974
F1
s(Vtossing
g16
tp1975
F1
s(Vdisquisition
g16
tp1976
F1
s(Vdescribing
g93
tp1977
F1
s(Vproperty
S'NN'
p1978
tp1979
F5
s(Vchanges
g43
tp1980
F1
s(Vdoubtless
g10
tp1981
F1
s(Vflowers
g43
tp1982
F1
s(Vmen
g1890
tp1983
F32
s(Vsounds
g34
tp1984
F21
s(Vemptiness
g16
tp1985
F1
s(g808
g73
tp1986
F3
s(Vcommunicated
g25
tp1987
F1
s(Vplaying
g93
tp1988
F1
s(Vshorter
g47
tp1989
F2
s(g70
g623
tp1990
F36
s(Vvoice
g16
tp1991
F4
s(Vextended
g25
tp1992
F2
s(Vpoems
g43
tp1993
F1
s(g118
g70
tp1994
F277
s(g385
g15
tp1995
F12
s(Vreasoning
g93
tp1996
F2
s(Vdisposed
g25
tp1997
F8
s(Veither
g6
tp1998
F7
s(Vwherein
g16
tp1999
F3
s(Vleading
g93
tp2000
F1
s(Vimpressions
g34
tp2001
F4
s(Vprompts
g43
tp2002
F1
s(Vsuggested
g25
tp2003
F1
s(Vappear
g4
tp2004
F11
s(Vsimply
S'RB'
p2005
tp2006
F13
s(Vjuvent
g16
tp2007
F1
s(Vghosts
g34
tp2008
F4
s(Velement
g16
tp2009
F1
s(Vindulgences
g34
tp2010
F1
s(Vslow
g10
tp2011
F1
s(S'VBG'
p2012
g10
tp2013
F21
s(Vpeople
S'NNS'
p2014
tp2015
F11
s(Vhold
g4
tp2016
F5
s(Vspeaking
g16
tp2017
F1
s(g159
g505
tp2018
F10
s(Vheld
g18
tp2019
F1
s(VTHIS
g22
tp2020
F1
s(Vadd
g27
tp2021
F1
s(Vorange
g16
tp2022
F2
s(Vuniversal
g10
tp2023
F2
s(Vappearances
g34
tp2024
F4
s(Vreceives
g43
tp2025
F3
s(Vconvulsions
g34
tp2026
F1
s(g34
S')'
tp2027
F2
s(Vlength
g16
tp2028
F12
s(g93
g351
tp2029
F14
s(Vamongst
g4
tp2030
F1
s(Vnew
g1803
tp2031
F18
s(Vtake
g27
tp2032
F11
s(Vinstant
g16
tp2033
F1
s(Vright
g10
tp2034
F11
s(Vvelocity
g16
tp2035
F1
s(Vpursue
g27
tp2036
F1
s(Vearthquake
S'NN'
p2037
tp2038
F1
s(Vgross
S'JJ'
p2039
tp2040
F2
s(Vdarkest
g150
tp2041
F1
s(Vjoined
g18
tp2042
F2
s(Vamounts
g34
tp2043
F1
s(Vchild
g16
tp2044
F2
s(Vdescribe
g27
tp2045
F1
s(Vabuse
g16
tp2046
F1
s(Vapply
g27
tp2047
F2
s(Vgaudy
g16
tp2048
F1
s(Vrequisite
g16
tp2049
F1
s(Vanimals
g34
tp2050
F24
s(Vextent
g16
tp2051
F9
s(Vcurrent
S'JJ'
p2052
tp2053
F2
s(Vyour
g1680
tp2054
F7
s(g156
g192
tp2055
F2
s(Vcarried
g25
tp2056
F5
s(Vfew
S'JJ'
p2057
tp2058
F10
s(Vperfection
g16
tp2059
F6
s(Vbrisk
g10
tp2060
F1
s(Vrepresentations
g34
tp2061
F4
s(Vattempt
g27
tp2062
F1
s(Vrecommend
g4
tp2063
F1
s(Vsword
g16
tp2064
F1
s(Vpauses
g34
tp2065
F1
s(g387
g6
tp2066
F236
s(Vchanged
g25
tp2067
F3
s(V;
S':'
tp2068
F728
s(Vreasons
S'NNS'
p2069
tp2070
F4
s(Vexamining
g93
tp2071
F2
s(Videas
g34
tp2072
F58
s(Vretains
g43
tp2073
F1
s(Vmake
g27
tp2074
F11
s(Vsympathy
g4
tp2075
F1
s(Vinstrumental
g10
tp2076
F1
s(Vcontinue
g4
tp2077
F4
s(Vwrinkled
g25
tp2078
F1
s(Vspring
g16
tp2079
F2
s(Vdiversified
g25
tp2080
F1
s(Vset
g4
tp2081
F1
s(Vhereafter
g16
tp2082
F2
s(VGeneral
g22
tp2083
F1
s(Vno
g6
tp2084
F1
s(Vfurther
g6
tp2085
F5
s(Vsoo
g10
tp2086
F1
s(Vviolently
g6
tp2087
F2
s(Vobjection
g16
tp2088
F3
s(Voblique
g10
tp2089
F1
s(Vlessen
g4
tp2090
F1
s(Vproducing
S'VBG'
p2091
tp2092
F7
s(VIs
g43
tp2093
F1
s(Vminute
g10
tp2094
F1
s(Vwalk
g16
tp2095
F1
s(Vrepresent
g27
tp2096
F3
s(Vtemporary
S'JJ'
p2097
tp2098
F1
s(Vdeprive
g27
tp2099
F1
s(Vnobody
g16
tp2100
F1
s(Velm
g16
tp2101
F1
s(Vdescend
g4
tp2102
F1
s(Vexperience
g27
tp2103
F1
s(Vpowerfully
g6
tp2104
F4
s(Vliver
g16
tp2105
F1
s(Vhoar
g16
tp2106
F1
s(g1264
g250
tp2107
F3
s(VNewton
g22
tp2108
F1
s(Vsilvis
g16
tp2109
F1
s(Vliberty
g16
tp2110
F3
s(Venemy
g16
tp2111
F2
s(Vdemonstrate
g4
tp2112
F1
s(Vsignify
g4
tp2113
F1
s(V9
S'CD'
p2114
tp2115
F1
s(Vrenews
g34
tp2116
F1
s(Virretrievably
g6
tp2117
F1
s(Vshut
g4
tp2118
F1
s(Vterm
S'NN'
p2119
tp2120
F1
s(Vgigantic
g10
tp2121
F1
s(Vtolerable
g10
tp2122
F2
s(S','
g1574
tp2123
F17
s(Vpresents
g43
tp2124
F3
s(Vcontemplation
g16
tp2125
F4
s(g47
g34
tp2126
F10
s(Vbring
g4
tp2127
F3
s(Vsecondary
g10
tp2128
F1
s(Vcontrivance
g16
tp2129
F3
s(Vanswered
g25
tp2130
F2
s(Vdeclining
S'VBG'
p2131
tp2132
F2
s(Vblessed
g25
tp2133
F1
s(Vefficient
g10
tp2134
F4
s(Vmake
g16
tp2135
F2
s(g27
S':'
tp2136
F16
s(Vdistances
g34
tp2137
F2
s(Vderive
g4
tp2138
F1
s(Vwith
g63
tp2139
F262
s(Vdiseased
g18
tp2140
F1
s(Vgenuine
g10
tp2141
F3
s(Vcelerity
g16
tp2142
F3
s(Vaction
S'NN'
p2143
tp2144
F7
s(Vhow
S'WRB'
p2145
tp2146
F22
s(Vworship
g16
tp2147
F1
s(Vtend
g4
tp2148
F2
s(Vfrequently
g6
tp2149
F12
s(Vtales
g34
tp2150
F2
s(VSo
g6
tp2151
F11
s(Vglasses
g34
tp2152
F1
s(Vperhaps
S'RB'
p2153
tp2154
F19
s(g27
g118
tp2155
F47
s(Vsteep
g10
tp2156
F1
s(Vinsensible
g10
tp2157
F3
s(Vquitted
g25
tp2158
F1
s(Venquire
g27
tp2159
F1
s(Vstrokes
g34
tp2160
F2
s(g59
g96
tp2161
F1
s(Vcomplicated
g10
tp2162
F1
s(Vdecreases
g34
tp2163
F1
s(Vdwarfish
g16
tp2164
F1
s(g93
g385
tp2165
F7
s(Vlike
g10
tp2166
F11
s(Vscience
g16
tp2167
F2
s(Vflat
g10
tp2168
F1
s(Vsuperstitions
g34
tp2169
F1
s(Vfortitude
g16
tp2170
F1
s(VRocks
g22
tp2171
F2
s(g22
g70
tp2172
F6
s(Vdepths
g34
tp2173
F1
s(Vagreement
S'NN'
p2174
tp2175
F1
s(Vwhirling
g93
tp2176
F2
s(VNOW
g6
tp2177
F2
s(Vseason
S'NN'
p2178
tp2179
F3
s(Vmelancholy
g43
tp2180
F1
s(Vknowledge
g16
tp2181
F6
s(VWHEN
g96
tp2182
F3
s(Vmedium
g16
tp2183
F3
s(g27
S'MD'
p2184
tp2185
F3
s(Vadvanced
g25
tp2186
F2
s(Vreturn
g27
tp2187
F1
s(Vnothing
S'NN'
p2188
tp2189
F30
s(Vamount
g4
tp2190
F1
s(Vtransparent
g10
tp2191
F2
s(Vmoderation
g16
tp2192
F1
s(Vadds
S'VBZ'
p2193
tp2194
F1
s(Vc.
g34
tp2195
F1
s(Vdiscovered
g25
tp2196
F1
s(Vwere
g344
tp2197
F49
s(Vgeometrical
g10
tp2198
F1
s(Vanimal
g10
tp2199
F6
s(Vfarther
g6
tp2200
F1
s(Vpresepibus
g16
tp2201
F1
s(Vcounsels
g34
tp2202
F1
s(Vcontradicts
g43
tp2203
F1
s(Vswelling
g93
tp2204
F1
s(Vexpectance
g16
tp2205
F1
s(Vbest
g150
tp2206
F10
s(Vdragged
g18
tp2207
F1
s(Vmatter
g16
tp2208
F7
s(S'PRP'
p2209
g1680
tp2210
F3
s(Vfound
g18
tp2211
F8
s(Vcontinuing
g93
tp2212
F1
s(Vso
g668
tp2213
F10
s(Vsubtle
g10
tp2214
F2
s(Vavenues
g34
tp2215
F1
s(Vblind
g16
tp2216
F4
s(Vput
g4
tp2217
F2
s(Vnoise
g16
tp2218
F1
s(S'RB'
p2219
g522
tp2220
F291
s(Vword
S'NN'
p2221
tp2222
F12
s(Vwhat
g59
tp2223
F1
s(Vconsisted
g25
tp2224
F1
s(Vfour
S'CD'
p2225
tp2226
F1
s(Vthat
g6
tp2227
F1
s(Vhe
S'PRP'
p2228
tp2229
F88
s(Vlearned
g18
tp2230
F1
s(Voutside
g16
tp2231
F1
s(Vwell-being
g16
tp2232
F1
s(Vspringy
g10
tp2233
F1
s(g329
g250
tp2234
F12
s(g192
g522
tp2235
F30
s(Vconvulsive
g10
tp2236
F3
s(Vmere
g10
tp2237
F6
s(Vfinished
g10
tp2238
F1
s(Vgradually
g6
tp2239
F3
s(Vcube
g16
tp2240
F1
s(Vwall
g16
tp2241
F5
s(Vsmells
g34
tp2242
F2
s(Vdeceit
g16
tp2243
F2
s(Vlamp
g16
tp2244
F1
s(S','
g587
tp2245
F16
s(V-A
g10
tp2246
F1
s(Vreturn
g16
tp2247
F1
s(Vmaking
g93
tp2248
F4
s(Vretain
g27
tp2249
F1
s(Vrely
g4
tp2250
F1
s(Vproduces
g34
tp2251
F1
s(Vsubsided
g25
tp2252
F1
s(Vimpertinence
g16
tp2253
F1
s(VWe
S'PRP'
p2254
tp2255
F15
s(Vsetting
g93
tp2256
F2
s(VThough
g159
tp2257
F1
s(Vdiminutives
g34
tp2258
F2
s(Vaggravating
g10
tp2259
F1
s(Vresembles
g43
tp2260
F2
s(Vweakened
g18
tp2261
F1
s(Vpersuasion
g16
tp2262
F2
s(g43
S'PRP$'
p2263
tp2264
F25
s(Vcould
S'MD'
p2265
tp2266
F19
s(Vallays
g34
tp2267
F1
s(g4
S'DT'
p2268
tp2269
F281
s(Vyield
g27
tp2270
F1
s(VSed
g16
tp2271
F1
s(Vadjoining
g16
tp2272
F1
s(Vpillar
g10
tp2273
F1
s(Vmultiplicity
g16
tp2274
F1
s(Vmathematics
g34
tp2275
F1
s(Vdeep
g10
tp2276
F4
s(Vfelt
g18
tp2277
F1
s(VVARIATION
g22
tp2278
F2
s(Vignorance
g16
tp2279
F1
s(Vsatisfied
g18
tp2280
F2
s(Voccupy
g43
tp2281
F1
s(Vabsolute
g4
tp2282
F1
s(Vcontempt
g16
tp2283
F1
s(Vcolours
g16
tp2284
F6
s(Vnone
g16
tp2285
F10
s(Vinform
g4
tp2286
F1
s(Vinduce
g4
tp2287
F1
s(Vworks
g34
tp2288
F11
s(Vspace
S'NN'
p2289
tp2290
F3
s(g93
g156
tp2291
F1
s(Vdenomination
g16
tp2292
F2
s(VRecherches
g22
tp2293
F1
s(Vnight
S'NN'
p2294
tp2295
F8
s(Vexperience
g4
tp2296
F2
s(Vgave
S'VBD'
p2297
tp2298
F7
s(g156
g108
tp2299
F1
s(Vworld
S'NN'
p2300
tp2301
F6
s(Vdispose
g27
tp2302
F1
s(Vpunishments
g34
tp2303
F1
s(Vimaginary
g10
tp2304
F1
s(VSanguine
g22
tp2305
F1
s(Vaccurate
g10
tp2306
F1
s(Vmaster-piece
g16
tp2307
F1
s(g387
g1206
tp2308
F3
s(Vloose
g27
tp2309
F1
s(Vbosom
g16
tp2310
F1
s(VIliad
g22
tp2311
F2
s(Vtree
g16
tp2312
F3
s(g159
g994
tp2313
F9
s(Vspirited
g18
tp2314
F1
s(g156
S'.'
tp2315
F1
s(Vodd
g10
tp2316
F2
s(Vpolished
g10
tp2317
F1
s(Vrelax
g4
tp2318
F4
s(Vexactness
g16
tp2319
F3
s(Vsunt
g16
tp2320
F1
s(Vanticipates
g43
tp2321
F1
s(Vaggregates
g34
tp2322
F1
s(Vpasses
g43
tp2323
F2
s(Vsurmounting
g16
tp2324
F1
s(Vturn
g4
tp2325
F2
s(Vabove
g18
tp2326
F1
s(VBecause
S'IN'
p2327
tp2328
F1
s(Vaffected
g25
tp2329
F30
s(Vchange
g27
tp2330
F1
s(g108
g1543
tp2331
F250
s(Vconclude
g16
tp2332
F1
s(Vconveying
g93
tp2333
F2
s(Vmetaphorical
g10
tp2334
F1
s(Vrecollect
g27
tp2335
F1
s(Vvice
S'NN'
p2336
tp2337
F2
s(Vnervous
g10
tp2338
F3
s(Vthere
g6
tp2339
F6
s(Vcruelty
g16
tp2340
F1
s(Vdoubt
g4
tp2341
F1
s(Vdisorder
g16
tp2342
F2
s(VGraham
g22
tp2343
F1
s(Vparts
S'NNS'
p2344
tp2345
F67
s(Vsuited
g25
tp2346
F1
s(Vvacuas
g34
tp2347
F1
s(Vearly
g6
tp2348
F1
s(Vdeal
g4
tp2349
F1
s(Vdens
g34
tp2350
F3
s(Vsilence
g16
tp2351
F4
s(Vstated
g25
tp2352
F1
s(Vsimilar
S'JJ'
p2353
tp2354
F20
s(VMost
g150
tp2355
F1
s(VCaesar
g22
tp2356
F1
s(Vadit
g16
tp2357
F1
s(Vby
g15
tp2358
F259
s(Vplain
g16
tp2359
F5
s(VNow
S'RB'
p2360
tp2361
F8
s(Vowe
g4
tp2362
F2
s(VPerfection
g22
tp2363
F1
s(Vmanner
g16
tp2364
F69
s(Vsupposing
g93
tp2365
F2
s(Vmark
g4
tp2366
F2
s(g192
g59
tp2367
F3
s(Vleg
g16
tp2368
F2
s(g16
g591
tp2369
F137
s(VJOY
g22
tp2370
F1
s(Vsatisfactions
g34
tp2371
F1
s(Vconjectures
g34
tp2372
F2
s(Vidle
g10
tp2373
F1
s(Vconsternation
g16
tp2374
F1
s(g47
g93
tp2375
F2
s(Vloudness
g16
tp2376
F2
s(VGreek
g22
tp2377
F1
s(Vtransfuse
g4
tp2378
F1
s(Vdegree
g10
tp2379
F2
s(Vabundantly
g6
tp2380
F1
s(Vconfused
g10
tp2381
F4
s(VSUCCESSION
g22
tp2382
F3
s(Vled
g18
tp2383
F1
s(g22
S'PRP$'
p2384
tp2385
F1
s(Vdispersed
g18
tp2386
F1
s(Vawaked
g25
tp2387
F1
s(Vexcite
g4
tp2388
F7
s(VPoets
g34
tp2389
F1
s(Vobjections
g34
tp2390
F1
s(Vgrieves
g43
tp2391
F1
s(VSome
S'DT'
p2392
tp2393
F4
s(Vspeaking
g93
tp2394
F2
s(g16
S'('
tp2395
F6
s(VObserve
g16
tp2396
F1
s(Vpublic
g10
tp2397
F1
s(Vensue
g16
tp2398
F1
s(Vrigour
g16
tp2399
F1
s(Vneed
g578
tp2400
F1
s(Vmuddy
g10
tp2401
F2
s(Vhabit
g4
tp2402
F1
s(g27
g605
tp2403
F67
s(Vjoin
g4
tp2404
F2
s(Vmover
g16
tp2405
F1
s(g27
g505
tp2406
F5
s(g578
g118
tp2407
F18
s(Vnitre
g16
tp2408
F1
s(Vfind
g4
tp2409
F13
s(Vcontinual
g10
tp2410
F3
s(Vsecurity
S'NN'
p2411
tp2412
F1
s(VII
g22
tp2413
F2
s(Vform
g16
tp2414
F9
s(Vdistinctions
g34
tp2415
F1
s(Vcheerful
g10
tp2416
F2
s(Vforces
g34
tp2417
F1
s(Vvehicle
S'NN'
p2418
tp2419
F3
s(g587
g18
tp2420
F2
s(Vdistresses
g34
tp2421
F4
s(Vuniformity
g16
tp2422
F6
s(Vmetaphorically
g6
tp2423
F2
s(Vwhom
g1630
tp2424
F7
s(Vlong
g6
tp2425
F9
s(VAMBITION
g22
tp2426
F2
s(Vdiminution
g16
tp2427
F6
s(Vrobust
g10
tp2428
F1
s(Vthus
g2219
tp2429
F10
s(Vtragedy
g16
tp2430
F4
s(Vcohesion
g16
tp2431
F1
s(Vhis
g2263
tp2432
F88
s(Vmelancholy
g34
tp2433
F1
s(Vwoe
g16
tp2434
F1
s(VEnquiry
g22
tp2435
F2
s(VPROVIDENCE
g22
tp2436
F1
s(g47
g16
tp2437
F34
s(Vmimicking
g93
tp2438
F2
s(g813
g587
tp2439
F1
s(Vwhatever
g4
tp2440
F1
s(Vsoon
S'RB'
p2441
tp2442
F7
s(Vcunning
g16
tp2443
F1
s(VDELIGHT
g22
tp2444
F1
s(Vboldness
g16
tp2445
F1
s(Vpurple
g16
tp2446
F1
s(Vduring
S'IN'
p2447
tp2448
F1
s(Vabstract
g4
tp2449
F1
s(Vconcomitant
g16
tp2450
F2
s(VGreeks
g22
tp2451
F3
s(Vactive
S'JJ'
p2452
tp2453
F2
s(Velse
g6
tp2454
F13
s(Vfoot
g16
tp2455
F1
s(Vgroans
g34
tp2456
F1
s(Vconscious
g43
tp2457
F1
s(Vminute
g16
tp2458
F1
s(VPART
g22
tp2459
F1
s(Vcloathed
g18
tp2460
F1
s(VSeventhly
g6
tp2461
F1
s(g150
g994
tp2462
F1
s(Vlimbs
g34
tp2463
F2
s(S'RB'
p2464
g156
tp2465
F8
s(Vlatter
g250
tp2466
F1
s(Voff
g385
tp2467
F3
s(Vfair
g10
tp2468
F3
s(Vstrongest
g150
tp2469
F9
s(Vinfluence
g16
tp2470
F9
s(Vstands
g43
tp2471
F2
s(V17
S'CD'
p2472
tp2473
F1
s(Vrepresent
g4
tp2474
F5
s(g90
g27
tp2475
F20
s(Vrecourse
g16
tp2476
F1
s(g96
g505
tp2477
F1
s(Vrecusantum
g16
tp2478
F1
s(Vsolemn
g10
tp2479
F1
s(Vacquiring
S'VBG'
p2480
tp2481
F1
s(g90
S'DT'
p2482
tp2483
F7
s(VEngland
S'NNP'
p2484
tp2485
F1
s(g591
g18
tp2486
F116
s(Vlessens
g43
tp2487
F1
s(g1299
g156
tp2488
F1
s(g298
g22
tp2489
F1
s(Vverge
g16
tp2490
F1
s(Vensuing
g93
tp2491
F1
s(Vhelp
g4
tp2492
F1
s(Vjudged
g25
tp2493
F1
s(Vgeneral
g10
tp2494
F36
s(Vmersas
g16
tp2495
F1
s(Vtotters
g34
tp2496
F1
s(Vremains
g43
tp2497
F5
s(Vlust
g16
tp2498
F2
s(g18
g1780
tp2499
F1
s(Vself-murder
g16
tp2500
F1
s(Vprobably
S'RB'
p2501
tp2502
F5
s(g59
g250
tp2503
F1
s(Vhelps
g43
tp2504
F1
s(Vstrove
g16
tp2505
F1
s(Veloquence
g16
tp2506
F2
s(Vacts
g34
tp2507
F1
s(g578
S'.'
tp2508
F5
s(Vexciting
g93
tp2509
F4
s(Vobscure
g16
tp2510
F1
s(Vtogether
g6
tp2511
F9
s(g59
g2268
tp2512
F33
s(Vgay
g16
tp2513
F1
s(Vhunt
g4
tp2514
F1
s(Vconverse
g27
tp2515
F1
s(Varm
g16
tp2516
F1
s(Vher
g16
tp2517
F1
s(Vfear
g4
tp2518
F2
s(Vgiven
S'VBN'
p2519
tp2520
F9
s(Vsubjecta
g16
tp2521
F1
s(Vdistressing
g93
tp2522
F1
s(Vreader
g16
tp2523
F2
s(Vproceeds
g34
tp2524
F4
s(Vinstrument
g16
tp2525
F1
s(Vheightnings
g34
tp2526
F1
s(Vunexpected
g10
tp2527
F1
s(Vversed
g25
tp2528
F1
s(Vrepresentation
g16
tp2529
F4
s(g171
g591
tp2530
F1
s(Voptic
g10
tp2531
F1
s(Vsmall
S'JJ'
p2532
tp2533
F27
s(Vlover
g16
tp2534
F1
s(Vno
g4
tp2535
F1
s(Vdanger
g16
tp2536
F28
s(Vowing
g93
tp2537
F14
s(Vfrom
g1543
tp2538
F216
s(Vcrosses
g34
tp2539
F1
s(Vcaution
g16
tp2540
F3
s(Vhear
g27
tp2541
F1
s(Vhowled
g18
tp2542
F1
s(Vdesire
g4
tp2543
F1
s(Vintricacy
g16
tp2544
F2
s(Vpassing
g16
tp2545
F1
s(VAN
g22
tp2546
F1
s(Vsituated
g10
tp2547
F1
s(Vblue
g16
tp2548
F3
s(g345
g351
tp2549
F7
s(Vantipathies
g34
tp2550
F1
s(Vtrifling
g16
tp2551
F1
s(Vcame
S'VBD'
p2552
tp2553
F3
s(g10
g4
tp2554
F7
s(Vpelican
g10
tp2555
F1
s(Vestablish
S'VB'
p2556
tp2557
F2
s(g73
g10
tp2558
F95
s(g6
S')'
tp2559
F2
s(Voperation
S'NN'
p2560
tp2561
F8
s(Vnow
S'RB'
p2562
tp2563
F9
s(Vrobs
g4
tp2564
F1
s(Vnoxious
g10
tp2565
F1
s(Vgathered
g25
tp2566
F1
s(Vdart
g16
tp2567
F1
s(Vsubstituted
g25
tp2568
F3
s(VDoth
g22
tp2569
F1
s(Vshrieks
g16
tp2570
F1
s(Vblow
g16
tp2571
F2
s(Vatris
g16
tp2572
F1
s(Vpreviously
S'RB'
p2573
tp2574
F3
s(g590
g22
tp2575
F3
s(Vconsistent
g10
tp2576
F7
s(Vorgans
g34
tp2577
F12
s(Vgods
g34
tp2578
F1
s(Vexamines
g43
tp2579
F1
s(Vjudge
g4
tp2580
F5
s(Vornaments
g34
tp2581
F1
s(VSOCIETY
g22
tp2582
F3
s(Vdependent
g16
tp2583
F1
s(S')'
g15
tp2584
F6
s(Vpretty
g6
tp2585
F7
s(Vseems
g813
tp2586
F21
s(Vbogs
g34
tp2587
F3
s(Vgo
g4
tp2588
F7
s(Vmotion
g16
tp2589
F18
s(g150
g59
tp2590
F2
s(Vagree
g10
tp2591
F2
s(Vdeviation
g16
tp2592
F6
s(Vconveyable
g16
tp2593
F1
s(Vdefinition
g16
tp2594
F1
s(Vover
g159
tp2595
F8
s(Vfall
g16
tp2596
F3
s(Venough
g10
tp2597
F1
s(g1229
g150
tp2598
F1
s(g96
g1267
tp2599
F5
s(g10
g898
tp2600
F2
s(Vremoving
g93
tp2601
F1
s(VHerein
g22
tp2602
F2
s(Vembraces
g34
tp2603
F1
s(Vimitation
g4
tp2604
F1
s(Vsubstances
g34
tp2605
F1
s(Vinfinite
g10
tp2606
F11
s(Vverge
g4
tp2607
F1
s(Villustration
g16
tp2608
F1
s(g385
S','
tp2609
F3
s(g34
S','
tp2610
F458
s(g16
S'.'
tp2611
F495
s(g351
g10
tp2612
F100
s(g118
g6
tp2613
F1
s(Vc.
g16
tp2614
F4
s(Vallied
g25
tp2615
F5
s(Vfinish
g4
tp2616
F1
s(Vessences
g34
tp2617
F1
s(VCampanella
g22
tp2618
F2
s(Vinformation
S'NN'
p2619
tp2620
F1
s(Vhowever
S'RB'
p2621
tp2622
F10
s(Vphilosophising
g16
tp2623
F1
s(Vstature
g16
tp2624
F2
s(Vcultivate
g27
tp2625
F1
s(Vhanging
g93
tp2626
F1
s(Vheads
g34
tp2627
F5
s(Vvibrations
g34
tp2628
F1
s(Vroom
S'NN'
p2629
tp2630
F4
s(Vattempting
g93
tp2631
F1
s(VDeath
g22
tp2632
F1
s(S','
S')'
tp2633
F2
s(g871
g16
tp2634
F3
s(Vafford
g16
tp2635
F1
s(Vtemple
g16
tp2636
F2
s(Vfruit
g16
tp2637
F2
s(Vappropriated
g25
tp2638
F1
s(Vindirectly
g6
tp2639
F1
s(Voccupied
g25
tp2640
F1
s(Vline
S'NN'
p2641
tp2642
F11
s(Vlesser
g47
tp2643
F4
s(Vrudentum
g16
tp2644
F1
s(Vexact
g10
tp2645
F9
s(Vpresent
g10
tp2646
F6
s(Vhorseback
g16
tp2647
F1
s(Vtails
g34
tp2648
F1
s(Vmeans
g34
tp2649
F17
s(Vviolet
g16
tp2650
F1
s(Vpress
g16
tp2651
F1
s(Vsprung
g18
tp2652
F1
s(Vknowing
g93
tp2653
F1
s(Vgratification
g16
tp2654
F1
s(Vterror
g16
tp2655
F32
s(g342
S'.'
tp2656
F1
s(Vnor
S'CC'
p2657
tp2658
F32
s(Vdistance
g16
tp2659
F3
s(VSWEETNESS
g22
tp2660
F2
s(Vmade
g25
tp2661
F18
s(g16
g22
tp2662
F24
s(Vswinging
g16
tp2663
F1
s(Vpainting
g16
tp2664
F10
s(Vsacra
g16
tp2665
F1
s(Vaccount
g16
tp2666
F3
s(Vexhalation
g16
tp2667
F1
s(Veither
g10
tp2668
F1
s(Vfill
g43
tp2669
F1
s(Vyears
S'NNS'
p2670
tp2671
F3
s(Vcompleatly
g6
tp2672
F1
s(Vornamental
g10
tp2673
F2
s(Vcuriosity
g16
tp2674
F5
s(Vvulgar
g16
tp2675
F3
s(Vbounded
g25
tp2676
F1
s(Vso
g159
tp2677
F3
s(Vpromise
g16
tp2678
F1
s(g22
g18
tp2679
F5
s(Vsection
g16
tp2680
F5
s(Vbare
g16
tp2681
F7
s(g18
g1100
tp2682
F1
s(g18
g2263
tp2683
F7
s(Veminent
g10
tp2684
F1
s(Vrotund
g16
tp2685
F2
s(S'DT'
p2686
S','
tp2687
F51
s(Vdispute
g16
tp2688
F1
s(Vconceiving
g93
tp2689
F1
s(Vcriticism
S'NN'
p2690
tp2691
F1
s(Vcruel
g16
tp2692
F1
s(Vtwice
g6
tp2693
F1
s(Vhard
g6
tp2694
F1
s(g118
g90
tp2695
F7
s(Vbackward
g6
tp2696
F1
s(Vtaking
g93
tp2697
F4
s(g59
g548
tp2698
F3
s(Vface
g16
tp2699
F2
s(Vspirit
g16
tp2700
F1
s(Vabound
g4
tp2701
F1
s(Vshook
g4
tp2702
F1
s(Vtransitions
g34
tp2703
F2
s(g18
g59
tp2704
F2
s(Vnumbers
g1395
tp2705
F1
s(Vseven
S'CD'
p2706
tp2707
F1
s(Vabsent
g10
tp2708
F1
s(g59
g645
tp2709
F94
s(Vinania
g16
tp2710
F1
s(Vopposite
g16
tp2711
F4
s(Vcontradiction
g16
tp2712
F1
s(g93
g47
tp2713
F1
s(g291
g109
tp2714
F7
s(Vprovision
S'NN'
p2715
tp2716
F1
s(Voperated
g18
tp2717
F3
s(Vobserver
g16
tp2718
F2
s(Vthirteen
g10
tp2719
F1
s(Voccupies
g43
tp2720
F1
s(Vbeing
g2012
tp2721
F46
s(g291
g315
tp2722
F3
s(Vprimarily
S'RB'
p2723
tp2724
F2
s(VCertain
g4
tp2725
F1
s(Vfine
g10
tp2726
F13
s(Vextend
g4
tp2727
F1
s(Vlove
g4
tp2728
F7
s(g4
g385
tp2729
F16
s(Vinsipid
g16
tp2730
F1
s(Vlust
g10
tp2731
F1
s(Vabsolute
g10
tp2732
F5
s(Villustrate
g4
tp2733
F6
s(Veagerness
g16
tp2734
F1
s(Vconsequence
g16
tp2735
F4
s(Vyourself
g298
tp2736
F1
s(Vhair
g16
tp2737
F1
s(Vengage
g4
tp2738
F1
s(g1410
g16
tp2739
F1
s(Vqu
g16
tp2740
F1
s(VUNDER
g159
tp2741
F1
s(g18
g93
tp2742
F2
s(Vopaque
g10
tp2743
F2
s(Vspasms
g34
tp2744
F2
s(Vheartiest
g150
tp2745
F1
s(Vcomfort
g16
tp2746
F3
s(Vunderstanding
g10
tp2747
F2
s(Vpoints
g34
tp2748
F5
s(Vpropriety
g16
tp2749
F4
s(Vconceive
g27
tp2750
F5
s(Vbloom
g16
tp2751
F1
s(g4
g387
tp2752
F1
s(Vrousing
g16
tp2753
F1
s(g59
g1260
tp2754
F6
s(VSUCH
g10
tp2755
F1
s(Vcandour
g16
tp2756
F1
s(Vpupil
g16
tp2757
F1
s(Vskin
g16
tp2758
F3
s(Vequal
g4
tp2759
F1
s(Vcombinations
g34
tp2760
F2
s(Vprovided
g25
tp2761
F1
s(VBlack
g22
tp2762
F3
s(Vremarkable
g16
tp2763
F1
s(Vsummers
g34
tp2764
F1
s(Villustrated
g25
tp2765
F2
s(Varose
g27
tp2766
F1
s(VItalians
g34
tp2767
F1
s(Vdespair
g16
tp2768
F1
s(Venfeeble
g4
tp2769
F1
s(Vtest
g16
tp2770
F2
s(Vhand
S'NN'
p2771
tp2772
F15
s(Vtouches
g43
tp2773
F2
s(Vproduced
g18
tp2774
F2
s(Vdescription
g16
tp2775
F15
s(Vourselves
g298
tp2776
F6
s(Vauthority
g16
tp2777
F5
s(Vtoads
g34
tp2778
F1
s(Vthough
g159
tp2779
F45
s(g25
g6
tp2780
F45
s(Vgets
S'VBZ'
p2781
tp2782
F1
s(Vdisposes
g34
tp2783
F1
s(Veither
g668
tp2784
F6
s(Vhardly
g6
tp2785
F9
s(g1004
S','
tp2786
F3
s(Vprecept
g16
tp2787
F1
s(Vconception
g16
tp2788
F4
s(Vpendulum
g16
tp2789
F1
s(Vblues
g34
tp2790
F1
s(Vconsists
g43
tp2791
F9
s(Vannex
g27
tp2792
F2
s(Vbut
g109
tp2793
F187
s(Vinevitably
g6
tp2794
F1
s(Vuntimely
g10
tp2795
F1
s(VAll
g315
tp2796
F2
s(Vgradation
g16
tp2797
F4
s(Vfade
g4
tp2798
F1
s(VA
g22
tp2799
F1
s(Veternal
g10
tp2800
F2
s(Vchurches
g34
tp2801
F1
s(Vforeign
S'JJ'
p2802
tp2803
F1
s(Vengaged
g25
tp2804
F1
s(S','
g93
tp2805
F26
s(Vfixed
g25
tp2806
F1
s(VHENCE
g159
tp2807
F1
s(Vsliding
g93
tp2808
F1
s(Vres
g43
tp2809
F1
s(Vshew
g27
tp2810
F1
s(g6
g342
tp2811
F21
s(Vwretchedness
g16
tp2812
F1
s(g274
g93
tp2813
F11
s(g118
g16
tp2814
F50
s(Vsuperiors
g34
tp2815
F1
s(Vqualification
g16
tp2816
F1
s(Vintervention
g16
tp2817
F4
s(Vaudita
g10
tp2818
F1
s(VAt
S'IN'
p2819
tp2820
F3
s(Vmost
g623
tp2821
F56
s(Vimagination
g16
tp2822
F26
s(Velevation
g16
tp2823
F1
s(Vclosed
g10
tp2824
F1
s(Vgrander
g16
tp2825
F4
s(Vantecedent
g16
tp2826
F1
s(Vunfit
g10
tp2827
F1
s(Vplundering
g93
tp2828
F1
s(Vdestroyed
g25
tp2829
F1
s(Vattending
g93
tp2830
F1
s(S','
g192
tp2831
F6
s(Vinsists
g43
tp2832
F1
s(Vexpected
g25
tp2833
F3
s(Vblossoms
g34
tp2834
F1
s(Vindistinct
g10
tp2835
F1
s(Vdiligently
g6
tp2836
F1
s(Vairs
g16
tp2837
F1
s(Vgratifications
g34
tp2838
F3
s(Vglaring
g16
tp2839
F2
s(Vhappen
g4
tp2840
F3
s(Vdum
g43
tp2841
F1
s(Vhungry
g10
tp2842
F1
s(Vrugged
g18
tp2843
F2
s(Vhead
g16
tp2844
F12
s(Vapproaches
g43
tp2845
F4
s(Vtotal
g16
tp2846
F1
s(Vtrifling
g10
tp2847
F1
s(Vcarriage
g16
tp2848
F2
s(S','
g22
tp2849
F18
s(Vobserved
g25
tp2850
F25
s(Vfairly
S'RB'
p2851
tp2852
F1
s(Vvaries
g43
tp2853
F5
s(VPERHAPS
g4
tp2854
F1
s(Vcolouring
g93
tp2855
F2
s(g73
g623
tp2856
F2
s(Vcorresponds
g43
tp2857
F1
s(Voccur
g27
tp2858
F1
s(Varcan
g385
tp2859
F1
s(Vbodies
g34
tp2860
F43
s(Vregard
g16
tp2861
F16
s(Vcheck
g16
tp2862
F3
s(Vguided
g25
tp2863
F2
s(Vmultitudes
g34
tp2864
F1
s(S','
g16
tp2865
F98
s(VKnowledge
g22
tp2866
F1
s(Vdiamonds
g34
tp2867
F1
s(Vwhole
g10
tp2868
F20
s(Vdiversified
g10
tp2869
F1
s(Vawakes
g43
tp2870
F3
s(Vbreathless
g16
tp2871
F1
s(Vfearce
g10
tp2872
F1
s(Vstimulus
g16
tp2873
F1
s(Vrock
g16
tp2874
F1
s(Vugliness
g16
tp2875
F2
s(Vrouse
g27
tp2876
F1
s(Vconversations
g34
tp2877
F2
s(Vattend
g27
tp2878
F1
s(Vjudiciously
g6
tp2879
F1
s(VQuod
g22
tp2880
F1
s(Vanswers
g43
tp2881
F1
s(VMere
g22
tp2882
F1
s(Vplace
g16
tp2883
F11
s(Vaptitude
g16
tp2884
F1
s(Vtrouble
S'NN'
p2885
tp2886
F1
s(g27
g108
tp2887
F9
s(Vaway
g385
tp2888
F2
s(Vfuries
g34
tp2889
F1
s(VWE
g59
tp2890
F1
s(Vnice
g10
tp2891
F1
s(Vlives
g34
tp2892
F4
s(VFew
g10
tp2893
F2
s(VIt
S'PRP'
p2894
tp2895
F61
s(Vmelancholy
g27
tp2896
F1
s(Vproposition
g16
tp2897
F1
s(Vcomposed
g25
tp2898
F4
s(Vvale
g16
tp2899
F1
s(Vunequally
g6
tp2900
F1
s(Vregards
g43
tp2901
F3
s(Vescaped
g25
tp2902
F1
s(g108
g96
tp2903
F30
s(Vunveiling
g93
tp2904
F1
s(Vloathing
g93
tp2905
F1
s(Vconfounds
g43
tp2906
F1
s(Vmixt
g16
tp2907
F2
s(Venabled
g25
tp2908
F1
s(VEst
g22
tp2909
F1
s(Vrolled
g18
tp2910
F1
s(Vjust
S'RB'
p2911
tp2912
F13
s(Vtrack
g16
tp2913
F2
s(Vman
S'NN'
p2914
tp2915
F52
s(S'NN'
p2916
g34
tp2917
F81
s(Vlittle
g10
tp2918
F42
s(VBefore
g159
tp2919
F1
s(Vvibrate
g4
tp2920
F1
s(g34
g90
tp2921
F5
s(Vwoods
g34
tp2922
F1
s(Vvastoque
g16
tp2923
F1
s(Vbeyond
S'IN'
p2924
tp2925
F9
s(Vquick
g10
tp2926
F6
s(Vsquares
g34
tp2927
F2
s(Vtriangle
g16
tp2928
F1
s(Vmentioned
g25
tp2929
F12
s(S'EX'
p2930
g387
tp2931
F37
s(Vjourney
g16
tp2932
F1
s(Vhimself
S'PRP'
p2933
tp2934
F11
s(Vhymn
g16
tp2935
F1
s(VChuse
g4
tp2936
F1
s(Valike
g6
tp2937
F2
s(VScipio
g22
tp2938
F1
s(Vphrensy
g16
tp2939
F1
s(Vgrow
g27
tp2940
F1
s(Vcompare
g4
tp2941
F1
s(VEXERCISE
g22
tp2942
F1
s(Vrelied
g25
tp2943
F1
s(Videa
S'NN'
p2944
tp2945
F86
s(VExcessive
g10
tp2946
F1
s(g387
g2225
tp2947
F10
s(g118
g25
tp2948
F1
s(VEye
g22
tp2949
F1
s(Vjollity
g16
tp2950
F1
s(Vblue
g6
tp2951
F1
s(VChevychase
g22
tp2952
F1
s(Vcontend
g27
tp2953
F1
s(Vtruth
g16
tp2954
F5
s(Vrequisite
g4
tp2955
F1
s(Vgot
g25
tp2956
F1
s(VSecondly
g6
tp2957
F4
s(Vquality
g16
tp2958
F20
s(Vcoats
g34
tp2959
F1
s(Vaugments
g34
tp2960
F1
s(Vunravelled
g25
tp2961
F1
s(Vverbal
g10
tp2962
F1
s(Vvestro
g16
tp2963
F1
s(Vcause
g27
tp2964
F6
s(Vdogs
g34
tp2965
F1
s(Vkind
S'NN'
p2966
tp2967
F23
s(Vdivisions
g34
tp2968
F1
s(Voperates
g43
tp2969
F5
s(Vcovering
g93
tp2970
F1
s(g96
g274
tp2971
F12
s(Vsuffer
g4
tp2972
F5
s(VAristotle
g22
tp2973
F1
s(g47
g10
tp2974
F15
s(Vourselves
g34
tp2975
F5
s(Vnotice
g16
tp2976
F1
s(Vhandsome
g10
tp2977
F2
s(VMode
g16
tp2978
F1
s(g18
g63
tp2979
F64
s(V6
S'CD'
p2980
tp2981
F1
s(g18
g1206
tp2982
F1
s(V'd
g578
tp2983
F2
s(Vdisentangle
g4
tp2984
F1
s(g6
S':'
tp2985
F28
s(Vslides
g34
tp2986
F1
s(Vquos
g16
tp2987
F1
s(Vshadow
g16
tp2988
F2
s(Varms
g34
tp2989
F3
s(VAfterwards
g34
tp2990
F1
s(Vsuper
g16
tp2991
F1
s(Vnon
g16
tp2992
F1
s(Vremarks
S'NNS'
p2993
tp2994
F2
s(Vvibrate
g27
tp2995
F1
s(Vpungent
g16
tp2996
F1
s(g2894
g387
tp2997
F370
s(Vmagnitude
g16
tp2998
F1
s(Vchiefly
g16
tp2999
F5
s(Vtraveller
g16
tp3000
F1
s(Vcauses
g34
tp3001
F25
s(Vshock
g4
tp3002
F1
s(Vconcurrence
g16
tp3003
F3
s(Vfurther
g250
tp3004
F2
s(Vrespective
g10
tp3005
F1
s(Vtye
g27
tp3006
F1
s(Vfas
g16
tp3007
F1
s(Vpleasing
g16
tp3008
F2
s(Vfriendly
g10
tp3009
F1
s(Vthrow
g4
tp3010
F2
s(Vsublime
g16
tp3011
F54
s(VPart
g22
tp3012
F3
s(Vstimulated
g25
tp3013
F1
s(Vconfessedly
g6
tp3014
F2
s(Vnegligent
g10
tp3015
F1
s(Vsoil
g16
tp3016
F2
s(Vquantity
g16
tp3017
F15
s(Vsmooth
g4
tp3018
F1
s(Venquiries
g34
tp3019
F1
s(g6
g16
tp3020
F33
s(Vnemorum
g6
tp3021
F1
s(VWHENEVER
g159
tp3022
F1
s(V21
S'CD'
p3023
tp3024
F1
s(Vtend
g27
tp3025
F1
s(Vphaenomena
g16
tp3026
F2
s(Vturn
g668
tp3027
F1
s(Vthoughts
g34
tp3028
F1
s(Vhistories
g34
tp3029
F1
s(VSOUND
g22
tp3030
F1
s(Vimitate
g16
tp3031
F1
s(Vcramps
g34
tp3032
F1
s(Vattach
g27
tp3033
F1
s(Voily
g6
tp3034
F1
s(Vlate
g6
tp3035
F1
s(Vdexterity
g16
tp3036
F1
s(Voperating
g93
tp3037
F1
s(Vknow
g27
tp3038
F7
s(Vviolent
g10
tp3039
F18
s(g59
g1481
tp3040
F119
s(Vcompanions
g34
tp3041
F1
s(Vdistinguishable
g10
tp3042
F2
s(VHAVE
g27
tp3043
F1
s(Vengagingly
g6
tp3044
F1
s(g916
g2228
tp3045
F455
s(Vgiddily
g6
tp3046
F1
s(Vimagine
g27
tp3047
F13
s(Vpart
S'NN'
p3048
tp3049
F37
s(VEt
g22
tp3050
F1
s(Vminuteness
g16
tp3051
F1
s(VTheir
g2384
tp3052
F1
s(Vtouches
g10
tp3053
F1
s(Vapparent
g16
tp3054
F1
s(Vlye
g27
tp3055
F1
s(Vblended
g25
tp3056
F1
s(g587
g1281
tp3057
F2
s(Vpartakes
g34
tp3058
F1
s(Vray
g16
tp3059
F2
s(Vmomentous
g10
tp3060
F1
s(Vvanishes
g34
tp3061
F1
s(g250
g6
tp3062
F11
s(g6
g1437
tp3063
F263
s(Vbeside
g4
tp3064
F1
s(Vmyrtle
g16
tp3065
F1
s(Vseries
S'NN'
p3066
tp3067
F2
s(Vintermitting
g93
tp3068
F1
s(Vstranger
g16
tp3069
F1
s(Vcaptivate
g27
tp3070
F1
s(Vbalance
g16
tp3071
F1
s(g1299
S'('
tp3072
F1
s(Vboy
g16
tp3073
F3
s(Vbesides
g34
tp3074
F4
s(Vdeviate
g16
tp3075
F1
s(Vastonishing
g93
tp3076
F1
s(Vunbroken
g10
tp3077
F1
s(g73
g250
tp3078
F1
s(g1264
g1260
tp3079
F34
s(Vrest
g27
tp3080
F1
s(Vrank
g18
tp3081
F1
s(Vretina
g16
tp3082
F2
s(Veffundens
g43
tp3083
F1
s(VVISION
g22
tp3084
F1
s(Vincertam
g16
tp3085
F1
s(Vingeniously
g6
tp3086
F1
s(Vnext
g159
tp3087
F1
s(Vease
g16
tp3088
F2
s(Vchuses
g43
tp3089
F1
s(Vwhere
g156
tp3090
F40
s(Vgloomy
g16
tp3091
F1
s(Vmention
g4
tp3092
F1
s(g315
g59
tp3093
F2
s(Vacquiescence
g16
tp3094
F1
s(VHere
S'RB'
p3095
tp3096
F7
s(Vare
g505
tp3097
F384
s(Vyelped
g18
tp3098
F1
s(Vclearness
g16
tp3099
F6
s(g250
g25
tp3100
F1
s(Vdepend
g27
tp3101
F6
s(Vcompleat
g16
tp3102
F1
s(Vrainbow
g16
tp3103
F1
s(Vplay
g16
tp3104
F1
s(Vabove
g159
tp3105
F2
s(Vconcert
g16
tp3106
F1
s(Vconvince
g4
tp3107
F3
s(Vinfinite
g16
tp3108
F3
s(g90
g150
tp3109
F1
s(Vcompany
S'NN'
p3110
tp3111
F2
s(Vsnuff
g10
tp3112
F1
s(VNothing
g16
tp3113
F3
s(Vcontinued
g18
tp3114
F2
s(Vipse
g16
tp3115
F1
s(Vdetermines
g43
tp3116
F1
s(Vought
g578
tp3117
F23
s(Vgaze
g16
tp3118
F1
s(Vhence
g16
tp3119
F4
s(Vassured
g10
tp3120
F1
s(Vunangular
g10
tp3121
F1
s(g385
S':'
tp3122
F2
s(Vclod
g16
tp3123
F1
s(Vunfinished
g10
tp3124
F1
s(Vas
g159
tp3125
F334
s(Vclimbing
g93
tp3126
F1
s(S')'
g578
tp3127
F1
s(Vswell
g16
tp3128
F2
s(Vlook
g27
tp3129
F4
s(Vacquiesce
g4
tp3130
F2
s(Vvariously
g6
tp3131
F1
s(Vimitate
g4
tp3132
F1
s(Vinnocent
g10
tp3133
F2
s(Vdistinguishing
g93
tp3134
F1
s(Vbecome
g27
tp3135
F2
s(Vmean
g4
tp3136
F4
s(Vanalogy
g16
tp3137
F6
s(Vdisposed
g10
tp3138
F1
s(Vattempted
g25
tp3139
F1
s(Vtaught
g18
tp3140
F1
s(Vaffirm
g16
tp3141
F1
s(VUNIFORMITY
g22
tp3142
F1
s(Vlowest
g150
tp3143
F1
s(Vunless
S'IN'
p3144
tp3145
F5
s(VBetween
g22
tp3146
F1
s(Vflowery
g16
tp3147
F1
s(Venter
g4
tp3148
F5
s(Vdemands
g43
tp3149
F1
s(Vbottle
g16
tp3150
F1
s(Vsun
g16
tp3151
F3
s(Vfelt
g16
tp3152
F1
s(Vindividual
g16
tp3153
F2
s(Vwhatsoever
g6
tp3154
F2
s(Vlight
g10
tp3155
F10
s(Vapparent
g10
tp3156
F5
s(g298
g93
tp3157
F1
s(Vdeceived
g25
tp3158
F2
s(Vear-drum
g16
tp3159
F1
s(Vcall
g27
tp3160
F15
s(Vagreeably
g6
tp3161
F2
s(Vskill
g16
tp3162
F4
s(Vfounded
g25
tp3163
F6
s(Vdiscovers
g43
tp3164
F1
s(g298
g1022
tp3165
F2
s(Vready
g10
tp3166
F1
s(Vtongue
g16
tp3167
F2
s(Vcountry
S'NN'
p3168
tp3169
F2
s(VIF
g22
tp3170
F1
s(VWords
g34
tp3171
F2
s(Vplantation
g16
tp3172
F1
s(Vlie
g43
tp3173
F1
s(g385
g192
tp3174
F2
s(Vstudy
g16
tp3175
F1
s(Vclears
g43
tp3176
F1
s(Vinquisitive
g10
tp3177
F1
s(Vdeception
g16
tp3178
F2
s(Vgiddy
g10
tp3179
F1
s(Vpleases
g43
tp3180
F4
s(Vbrutes
g34
tp3181
F4
s(VGod
g22
tp3182
F4
s(Vmother
g16
tp3183
F1
s(VTendere
g22
tp3184
F1
s(Vconfused
g25
tp3185
F1
s(Vreflection
g16
tp3186
F1
s(Vlassitude
g16
tp3187
F1
s(Vclimbing
g16
tp3188
F1
s(Vkept
g25
tp3189
F2
s(Vloss
S'NN'
p3190
tp3191
F3
s(Vlies
g43
tp3192
F1
s(Vpassed
g25
tp3193
F1
s(Vnecks
g34
tp3194
F2
s(Vwedge-like
g10
tp3195
F1
s(Vfamiliarity
g16
tp3196
F2
s(Vmistaken
g16
tp3197
F1
s(Vdoth
g900
tp3198
F1
s(Vendued
g25
tp3199
F3
s(Vrelieve
g4
tp3200
F1
s(Vliveliest
g150
tp3201
F1
s(g27
g315
tp3202
F4
s(Vspecies
g34
tp3203
F38
s(Vbrought
g25
tp3204
F4
s(Vdirect
g10
tp3205
F2
s(Vinstances
g34
tp3206
F5
s(Vrocky
g10
tp3207
F1
s(VPriam
g22
tp3208
F3
s(Vinwards
g34
tp3209
F1
s(Vde
g900
tp3210
F1
s(S','
g1410
tp3211
F2
s(Vdejection
g16
tp3212
F2
s(g90
g159
tp3213
F3
s(Vadvance
g27
tp3214
F1
s(Vanswer
g4
tp3215
F4
s(Vbeautiful
g4
tp3216
F1
s(Vmovements
g34
tp3217
F1
s(S','
g1890
tp3218
F45
s(Vunconcerned
g10
tp3219
F1
s(Vdestroy
g4
tp3220
F1
s(Vprivations
g34
tp3221
F1
s(Vhad
g18
tp3222
F26
s(Vexpressing
g93
tp3223
F2
s(Vsuccessively
g6
tp3224
F1
s(Vsupposed
g25
tp3225
F2
s(Vprerogative
g16
tp3226
F1
s(Velegance
g16
tp3227
F1
s(Vbrace
g4
tp3228
F1
s(Vfirst
g10
tp3229
F38
s(Vstudied
g25
tp3230
F3
s(Vprogress
g16
tp3231
F3
s(Vmethodize
g4
tp3232
F1
s(Vafterwards
g34
tp3233
F7
s(Vfittest
g150
tp3234
F1
s(g16
g900
tp3235
F2
s(Vrelieving
g93
tp3236
F1
s(Villuminated
g25
tp3237
F1
s(g498
g1030
tp3238
F1
s(Vlaws
S'NNS'
p3239
tp3240
F6
s(Vpurpose
g16
tp3241
F17
s(Vdeduction
g16
tp3242
F1
s(Vallowance
g16
tp3243
F1
s(Vname
g16
tp3244
F7
s(VLooks
g22
tp3245
F1
s(Vinvoluntarily
g6
tp3246
F1
s(Vprevalent
g10
tp3247
F1
s(Voften
g1251
tp3248
F30
s(Vrude
g27
tp3249
F1
s(Vclear
g27
tp3250
F2
s(VNOVELTY
g22
tp3251
F1
s(Vprejudice
g16
tp3252
F2
s(Vplaced
g25
tp3253
F1
s(Vwonderfully
g6
tp3254
F2
s(Vconcur
g27
tp3255
F1
s(Vskilful
g10
tp3256
F1
s(Vrunning
g93
tp3257
F3
s(Vmelancholy
g10
tp3258
F2
s(Vknown
g25
tp3259
F3
s(Vsimplest
g150
tp3260
F1
s(VIbant
g22
tp3261
F1
s(Vrugged
g16
tp3262
F1
s(Vbuilding
g16
tp3263
F7
s(g73
g150
tp3264
F1
s(VBEAUTIFUL
g22
tp3265
F6
s(Vcares
g34
tp3266
F1
s(Vattribute
g27
tp3267
F1
s(g27
g587
tp3268
F1
s(Vsort
g16
tp3269
F48
s(g59
g69
tp3270
F24
s(Vslight
g10
tp3271
F3
s(Vweak
S'JJ'
p3272
tp3273
F8
s(Vlovely
g6
tp3274
F4
s(Vform
g27
tp3275
F2
s(g93
g34
tp3276
F30
s(VGREATNESS
g22
tp3277
F1
s(Vrelaxing
g16
tp3278
F3
s(Vduration
g16
tp3279
F2
s(VNOR
g668
tp3280
F2
s(Vdwarfish
g10
tp3281
F1
s(Vgreatness
g16
tp3282
F16
s(g25
g298
tp3283
F27
s(VUNITY
g22
tp3284
F1
s(Vpainting
g93
tp3285
F9
s(Vseemed
g18
tp3286
F5
s(Vverses
g34
tp3287
F2
s(Vcaprice
g16
tp3288
F1
s(Vremedy
g16
tp3289
F2
s(Vrespects
g34
tp3290
F6
s(Vnil
g10
tp3291
F1
s(Vmaxima
g16
tp3292
F1
s(Vexplanation
g16
tp3293
F1
s(Vobservations
g34
tp3294
F5
s(Vtreating
g93
tp3295
F1
s(Vmilitary
g10
tp3296
F1
s(Vindulgence
g16
tp3297
F1
s(Vcorrespondent
g10
tp3298
F2
s(VUgliness
g16
tp3299
F1
s(Vsolidly
g6
tp3300
F1
s(g548
g150
tp3301
F7
s(Vdoubt
g16
tp3302
F4
s(Vage
S'NN'
p3303
tp3304
F3
s(Vprotuberance
g16
tp3305
F1
s(Vfills
g43
tp3306
F1
s(Vpity
g16
tp3307
F4
s(Vmore
g250
tp3308
F65
s(Vnatural
S'JJ'
p3309
tp3310
F28
s(Vcolourless
g16
tp3311
F2
s(Vperformed
g18
tp3312
F1
s(VUgliness
g22
tp3313
F1
s(Vdomos
g16
tp3314
F1
s(g47
g522
tp3315
F31
s(Vpolicy
S'NN'
p3316
tp3317
F1
s(Vdeaths
g34
tp3318
F1
s(Vunderstood
g16
tp3319
F1
s(S','
g73
tp3320
F22
s(Vsignification
g16
tp3321
F2
s(Vstrikes
g43
tp3322
F3
s(Vappear
g27
tp3323
F4
s(g6
g1312
tp3324
F34
s(Vearth
g16
tp3325
F2
s(Vsuffering
g93
tp3326
F1
s(Vafford
g27
tp3327
F1
s(Vchief
g16
tp3328
F1
s(Vreceived
g18
tp3329
F1
s(g156
g4
tp3330
F1
s(Vobject
g16
tp3331
F51
s(Vwould
g2184
tp3332
F47
s(Vpresent
g4
tp3333
F2
s(Vprompts
g27
tp3334
F1
s(Vaffect
g4
tp3335
F15
s(Vdrawing
g93
tp3336
F2
s(Voperations
S'NNS'
p3337
tp3338
F3
s(VVirgil
g22
tp3339
F2
s(Vflight
S'NN'
p3340
tp3341
F1
s(Vtalk
g4
tp3342
F1
s(Vopen
g10
tp3343
F3
s(Vmachines
S'NNS'
p3344
tp3345
F1
s(Vperceived
g25
tp3346
F4
s(VSEXES
g22
tp3347
F1
s(Vimpune
g16
tp3348
F1
s(Vprincipally
g6
tp3349
F7
s(Vdenied
g25
tp3350
F1
s(S':'
g70
tp3351
F92
s(Vafterwards
g43
tp3352
F2
s(Vaccidents
g34
tp3353
F1
s(Vloves
g43
tp3354
F2
s(Vpillar
g16
tp3355
F4
s(Vrendered
g25
tp3356
F1
s(Vabsurd
g10
tp3357
F1
s(Vdescribe
g4
tp3358
F2
s(Vregion
S'NN'
p3359
tp3360
F1
s(Vlose
g4
tp3361
F3
s(V's
g692
tp3362
F13
s(Vdruids
g34
tp3363
F1
s(Vensues
g43
tp3364
F2
s(Vheaven
g6
tp3365
F1
s(Vrightly
g6
tp3366
F2
s(Vapprehend
g4
tp3367
F1
s(g25
g2686
tp3368
F37
s(Vserved
g18
tp3369
F1
s(Vnecessitate
g159
tp3370
F1
s(g1543
g315
tp3371
F39
s(Vcome
g4
tp3372
F2
s(Vunusual
S'JJ'
p3373
tp3374
F2
s(Vendured
g25
tp3375
F2
s(Vacquire
g1505
tp3376
F4
s(Vovercome
g25
tp3377
F1
s(VAgain
g22
tp3378
F1
s(Va
g1880
tp3379
F755
s(Vhistorical
g10
tp3380
F1
s(Vnearer
g47
tp3381
F1
s(S'CD'
p3382
S'.'
tp3383
F8
s(S','
g118
tp3384
F57
s(Veating
g93
tp3385
F2
s(Vrelax
g27
tp3386
F2
s(Vdeath
S'NN'
p3387
tp3388
F13
s(Vcontributes
g34
tp3389
F1
s(Veyebrows
g34
tp3390
F1
s(Vgovernments
S'NNS'
p3391
tp3392
F1
s(V24
g3382
tp3393
F3
s(Vthem
g1299
tp3394
F99
s(Vsolely
g6
tp3395
F2
s(Vfull
S'JJ'
p3396
tp3397
F11
s(Vtheory
g16
tp3398
F6
s(Vinward
g10
tp3399
F1
s(Vbeen
g1205
tp3400
F37
s(Vassociated
g25
tp3401
F3
s(Vwell-
g10
tp3402
F1
s(Vtell
g4
tp3403
F2
s(Vvolantes
g34
tp3404
F1
s(Vnamely
g6
tp3405
F1
s(Vsoftness
g16
tp3406
F5
s(Vimmense
g10
tp3407
F4
s(Vpain
g16
tp3408
F87
s(Villustrations
g34
tp3409
F1
s(Vendure
g4
tp3410
F2
s(g59
g18
tp3411
F15
s(Vspoils
g34
tp3412
F1
s(Vcontradictory
g10
tp3413
F1
s(Vdue
g10
tp3414
F1
s(Vinflexion
g16
tp3415
F1
s(Vadvantage
g16
tp3416
F2
s(g25
g387
tp3417
F1
s(VLight
g22
tp3418
F3
s(Vstaggering
g16
tp3419
F1
s(VGive
g4
tp3420
F2
s(Vhas
g291
tp3421
F125
s(Vexistence
g16
tp3422
F3
s(VPHYSIOGNOMY
g22
tp3423
F1
s(Vdepth
g16
tp3424
F3
s(Vpitch
g16
tp3425
F2
s(Vsurfaces
g34
tp3426
F1
s(Vglossiness
g16
tp3427
F1
s(g10
g10
tp3428
F85
s(Vfields
g34
tp3429
F1
s(Vpurposes
g34
tp3430
F14
s(Vmisfortune
g16
tp3431
F2
s(g108
g150
tp3432
F4
s(Vwants
S'VBZ'
p3433
tp3434
F2
s(g250
g27
tp3435
F1
s(Vabates
g43
tp3436
F1
s(Vpartiality
g16
tp3437
F1
s(Vtrace
g4
tp3438
F1
s(Vfreedom
g16
tp3439
F1
s(Vcareful
g10
tp3440
F1
s(Vabsurdly
g6
tp3441
F1
s(Vsuppose
g10
tp3442
F1
s(Vpainful
g10
tp3443
F9
s(g27
g345
tp3444
F211
s(VTroy
g22
tp3445
F1
s(Vsad
g10
tp3446
F1
s(g933
g522
tp3447
F79
s(Vbeating
g16
tp3448
F1
s(Vet
g43
tp3449
F1
s(g522
g351
tp3450
F280
s(Varisen
g16
tp3451
F1
s(Vbounded
g10
tp3452
F1
s(VStonehenge
g22
tp3453
F1
s(g192
g16
tp3454
F40
s(Vspirits
g34
tp3455
F2
s(Vbeast
g16
tp3456
F1
s(g192
S','
tp3457
F10
s(g93
g505
tp3458
F1
s(Vanswered
g18
tp3459
F1
s(Vdu
g16
tp3460
F1
s(Vliquors
g34
tp3461
F2
s(g27
g623
tp3462
F5
s(Vtastes
g34
tp3463
F8
s(Vclearing
g93
tp3464
F1
s(Vromance
g16
tp3465
F1
s(g1299
g59
tp3466
F2
s(Vmention
g16
tp3467
F1
s(VExamples
g34
tp3468
F1
s(g22
g118
tp3469
F1
s(Vperpetually
g6
tp3470
F4
s(Vinstinct
g16
tp3471
F1
s(Vdites
g43
tp3472
F1
s(g351
g345
tp3473
F2
s(VBUILDING
g22
tp3474
F2
s(VPhlegeton
g22
tp3475
F1
s(Vindifference
g16
tp3476
F8
s(Vcieling
g16
tp3477
F1
s(g73
g47
tp3478
F7
s(Vcorruption
g16
tp3479
F1
s(Vgrandfathers
g34
tp3480
F1
s(Vconditions
S'NNS'
p3481
tp3482
F2
s(Varrive
g27
tp3483
F1
s(Vregularity
g16
tp3484
F2
s(VRocking
g93
tp3485
F1
s(Vgrant
g27
tp3486
F1
s(Vhinders
g43
tp3487
F1
s(g25
g108
tp3488
F10
s(S'UH'
p3489
S','
tp3490
F2
s(Vnakedness
g16
tp3491
F1
s(g16
g73
tp3492
F21
s(Vassociation
g16
tp3493
F8
s(Vcomplain
g16
tp3494
F1
s(Vstory
S'NN'
p3495
tp3496
F3
s(Vfollowed
g18
tp3497
F1
s(Vdisables
g43
tp3498
F1
s(Vperceptions
g34
tp3499
F1
s(Vwhither
g159
tp3500
F1
s(Vsaw
g18
tp3501
F1
s(Vsets
g43
tp3502
F1
s(Vattends
g43
tp3503
F1
s(Vapproaching
g93
tp3504
F1
s(Vsuccess
S'NN'
p3505
tp3506
F1
s(Vwonderful
g10
tp3507
F1
s(Vgliding
g16
tp3508
F1
s(g522
g93
tp3509
F182
s(Vcatastrophe
g16
tp3510
F1
s(Vpossess
g27
tp3511
F1
s(S':'
g16
tp3512
F19
s(Vblue
g4
tp3513
F1
s(Vclock
g16
tp3514
F1
s(Vaffright
g16
tp3515
F1
s(Vsummer
S'NN'
p3516
tp3517
F3
s(Vforge
g16
tp3518
F1
s(g34
g1811
tp3519
F561
s(Vknows
g43
tp3520
F3
s(Vcomparison
g16
tp3521
F8
s(Vwretch
g16
tp3522
F1
s(Vfall
g4
tp3523
F3
s(g16
g623
tp3524
F1
s(Vsoedantem
g16
tp3525
F1
s(Vup
g6
tp3526
F1
s(Vmatters
g34
tp3527
F1
s(Vclean
g10
tp3528
F1
s(Vdifficult
S'JJ'
p3529
tp3530
F4
s(g171
g16
tp3531
F1
s(Vshifting
g93
tp3532
F1
s(Vtake
g4
tp3533
F16
s(Vcaptious
g10
tp3534
F1
s(Vlast
S'JJ'
p3535
tp3536
F13
s(Vsuspend
g4
tp3537
F2
s(Vwinged
g18
tp3538
F1
s(Vgreenness
g16
tp3539
F1
s(Vshunning
g93
tp3540
F1
s(Vappoint
g4
tp3541
F1
s(Vwanted
g10
tp3542
F1
s(Vrequire
g4
tp3543
F1
s(Vdisagree
g4
tp3544
F1
s(Vonly
g10
tp3545
F8
s(Vbrightness
g16
tp3546
F1
s(Virresistible
g10
tp3547
F1
s(Vgrafting
g93
tp3548
F1
s(Vsecondly
g6
tp3549
F2
s(Vlearning
g16
tp3550
F1
s(Vboundaries
g34
tp3551
F1
s(g18
g385
tp3552
F1
s(Vrepresentatives
S'NNS'
p3553
tp3554
F1
s(Vput
g25
tp3555
F4
s(Vmollify
g4
tp3556
F1
s(VCaius
g22
tp3557
F2
s(Vcreate
g4
tp3558
F1
s(Vutility
S'NN'
p3559
tp3560
F2
s(VON
g159
tp3561
F4
s(Vrid
g10
tp3562
F1
s(Vinduce
g16
tp3563
F1
s(Vcontinuance
g16
tp3564
F1
s(Vconflagration
g16
tp3565
F1
s(Vupon
g159
tp3566
F64
s(Vchange
g16
tp3567
F14
s(Vindividuals
S'NNS'
p3568
tp3569
F2
s(Vaffecting
g16
tp3570
F1
s(Vdigression
g16
tp3571
F1
s(g108
g16
tp3572
F286
s(Vagitations
g34
tp3573
F1
s(Vout
g385
tp3574
F9
s(Vsimilitude
g16
tp3575
F2
s(Vtremble
g27
tp3576
F1
s(g18
g90
tp3577
F1
s(Vevents
S'NNS'
p3578
tp3579
F1
s(Vsubjects
g34
tp3580
F3
s(Vbegan
S'VBD'
p3581
tp3582
F1
s(Vcauses
g43
tp3583
F12
s(Von
S'IN'
p3584
tp3585
F161
s(Vhear
g4
tp3586
F1
s(g192
g578
tp3587
F3
s(Vwritings
g34
tp3588
F1
s(Vartists
g34
tp3589
F2
s(g18
g47
tp3590
F1
s(Vchoice
S'NN'
p3591
tp3592
F4
s(VDrave
g22
tp3593
F1
s(Vhoped
g18
tp3594
F1
s(g118
g47
tp3595
F1
s(Vfourthly
g6
tp3596
F1
s(Vupon
g10
tp3597
F2
s(Vconceive
g4
tp3598
F1
s(Vcontraction
g16
tp3599
F3
s(Vend
g16
tp3600
F21
s(Vagreed
g18
tp3601
F1
s(Vpretend
g4
tp3602
F1
s(Vdrawn
g16
tp3603
F2
s(Vceases
g43
tp3604
F1
s(g10
g22
tp3605
F12
s(Vbeasts
g34
tp3606
F4
s(Vglass
g16
tp3607
F4
s(Vrule
g16
tp3608
F12
s(g34
g587
tp3609
F2
s(g2014
g25
tp3610
F35
s(VDanube
g22
tp3611
F1
s(g96
g315
tp3612
F1
s(Vdaring
g93
tp3613
F1
s(Vestablished
g25
tp3614
F1
s(Vpleasing
g93
tp3615
F6
s(VAND
g22
tp3616
F3
s(Vcolouring
g16
tp3617
F6
s(Vbroken
g10
tp3618
F5
s(Vmischief
g16
tp3619
F1
s(Vdiligent
g10
tp3620
F3
s(Vliberal
g10
tp3621
F1
s(Vanalyse
g4
tp3622
F1
s(Vfurniture
g16
tp3623
F3
s(Vnocte
g10
tp3624
F2
s(Vpositive
S'JJ'
p3625
tp3626
F31
s(Vrate
S'NN'
p3627
tp3628
F1
s(Vingredient
g16
tp3629
F1
s(Vexaggerated
g10
tp3630
F1
s(Vdiffering
g93
tp3631
F3
s(Vascertain
g4
tp3632
F4
s(Vseem
g4
tp3633
F4
s(Vrun
g4
tp3634
F2
s(Vnakedly
g6
tp3635
F1
s(Vwhereas
g34
tp3636
F1
s(g18
S'CD'
p3637
tp3638
F1
s(Vlegs
g34
tp3639
F1
s(Vact
g18
tp3640
F1
s(Vindisputable
g10
tp3641
F1
s(Voscillatory
g10
tp3642
F1
s(Ventitle
g4
tp3643
F1
s(Valong
g6
tp3644
F1
s(Vinquiries
g34
tp3645
F1
s(g59
g1811
tp3646
F11
s(g108
g47
tp3647
F6
s(Vexamined
g18
tp3648
F1
s(VHector
g22
tp3649
F2
s(VAstonishment
g16
tp3650
F1
s(Vsmoothly
g6
tp3651
F1
s(Vlike
g159
tp3652
F18
s(Vexpression
g16
tp3653
F5
s(Vstock
S'NN'
p3654
tp3655
F1
s(Vknow
g4
tp3656
F11
s(Vmove
g4
tp3657
F2
s(Vsorts
g34
tp3658
F13
s(Vcriminal
g16
tp3659
F1
s(VChristendom
g22
tp3660
F1
s(Vrequires
S'VBZ'
p3661
tp3662
F3
s(g70
g334
tp3663
F27
s(Vbad
S'JJ'
p3664
tp3665
F4
s(Vneither
g139
tp3666
F4
s(Vjudgments
g34
tp3667
F1
s(Vabsurd
g25
tp3668
F1
s(VFINIS
g22
tp3669
F1
s(Vmodel
g16
tp3670
F1
s(Vcontrast
g16
tp3671
F1
s(Vmethod
g16
tp3672
F3
s(Vspeculation
S'NN'
p3673
tp3674
F1
s(Vsignificant
S'JJ'
p3675
tp3676
F1
s(Vviolence
g4
tp3677
F1
s(Vwill
g578
tp3678
F84
s(Vresult
g4
tp3679
F3
s(Vimpious
g10
tp3680
F1
s(Vpoetical
g10
tp3681
F1
s(VS
g22
tp3682
F1
s(Veligible
g10
tp3683
F1
s(Vexert
g4
tp3684
F1
s(g43
g2145
tp3685
F2
s(Vconqueror
g16
tp3686
F1
s(Vresume
g27
tp3687
F1
s(Vresults
S'NNS'
p3688
tp3689
F2
s(Vmisery
g16
tp3690
F3
s(g159
g96
tp3691
F16
s(g6
g10
tp3692
F332
s(Vimagine
g4
tp3693
F5
s(Vsettled
g25
tp3694
F1
s(g1437
g25
tp3695
F187
s(Vperpendicular
g16
tp3696
F1
s(Vseparately
g6
tp3697
F2
s(Vremoval
g16
tp3698
F15
s(Vpoet
g10
tp3699
F1
s(Vnarrow
g10
tp3700
F1
s(VOBSCURITY
g22
tp3701
F2
s(Vlove
g16
tp3702
F26
s(VAll
g22
tp3703
F1
s(Vsexes
g34
tp3704
F2
s(Vconcern
S'NN'
p3705
tp3706
F3
s(Vappeared
g18
tp3707
F2
s(g298
g47
tp3708
F2
s(Vside
g16
tp3709
F5
s(Vacquiesces
g34
tp3710
F1
s(Vremain
g27
tp3711
F1
s(Vcontemplates
g43
tp3712
F1
s(g2933
g250
tp3713
F4
s(Vdeep
g6
tp3714
F1
s(V23
S'CD'
p3715
tp3716
F1
s(Vprogression
g16
tp3717
F2
s(Vreflect
g4
tp3718
F1
s(Vperpetual
g10
tp3719
F1
s(Veternity
g16
tp3720
F2
s(Vattend
g4
tp3721
F2
s(g1264
g18
tp3722
F33
s(Vclear
g10
tp3723
F15
s(Vdrapery
g16
tp3724
F1
s(g2263
g16
tp3725
F239
s(Vcontrary
g10
tp3726
F13
s(Vfavourite
g10
tp3727
F2
s(Vglobe
g16
tp3728
F2
s(g27
g387
tp3729
F6
s(Vfens
g34
tp3730
F3
s(Vbelong
g27
tp3731
F9
s(g10
g522
tp3732
F277
s(g587
g994
tp3733
F5
s(Vemotion
g16
tp3734
F10
s(Vgrappling
g16
tp3735
F1
s(g159
g18
tp3736
F3
s(Vhalitus
g16
tp3737
F1
s(Vbirds
g34
tp3738
F5
s(Vdoubted
g25
tp3739
F1
s(Vexpansion
S'NN'
p3740
tp3741
F1
s(Vdisplayed
g25
tp3742
F1
s(Vthink
g4
tp3743
F8
s(Vgorging
g93
tp3744
F1
s(Venergy
S'NN'
p3745
tp3746
F1
s(Vrelated
g25
tp3747
F1
s(Vdimensions
g34
tp3748
F13
s(Vrequired
g25
tp3749
F2
s(Vsobriety
g16
tp3750
F1
s(g16
g522
tp3751
F1563
s(VLess
g47
tp3752
F1
s(VDARKNESS
g22
tp3753
F2
s(g25
g351
tp3754
F10
s(g16
g250
tp3755
F10
s(Vperfect
g10
tp3756
F9
s(g1030
g34
tp3757
F2
s(g4
g866
tp3758
F2
s(Vnumber
S'NN'
p3759
tp3760
F15
s(Voscillate
g4
tp3761
F1
s(Vamassed
g25
tp3762
F1
s(Vmentioning
g93
tp3763
F1
s(Voldest
g150
tp3764
F1
s(Vconsider
g27
tp3765
F1
s(Vsee
g27
tp3766
F7
s(Vfashion
S'NN'
p3767
tp3768
F1
s(Vperceptible
g10
tp3769
F3
s(VUGLINESS
g22
tp3770
F1
s(VELEGANCE
g22
tp3771
F1
s(Vrespect
g27
tp3772
F2
s(Vinteresting
g10
tp3773
F1
s(Vindolence
g4
tp3774
F1
s(Vdrakes
g34
tp3775
F1
s(Vgreen
g16
tp3776
F1
s(g439
S')'
tp3777
F1
s(Vbulky
g10
tp3778
F1
s(Vtap
g16
tp3779
F1
s(Vappropriated
g10
tp3780
F1
s(Vsomewhat
g6
tp3781
F9
s(Vdisorders
g34
tp3782
F1
s(Vpainters
g34
tp3783
F2
s(g159
S':'
tp3784
F4
s(Vrolling
g93
tp3785
F1
s(g27
g59
tp3786
F3
s(Vinordinate
g16
tp3787
F1
s(Vcelebrated
g25
tp3788
F1
s(Vfield
S'NN'
p3789
tp3790
F2
s(Vweather
g16
tp3791
F1
s(Vincreasing
g93
tp3792
F2
s(g327
g344
tp3793
F1
s(Vact
g16
tp3794
F5
s(g118
g192
tp3795
F4
s(Vstrangely
g6
tp3796
F1
s(Vremotely
g6
tp3797
F1
s(Vdistinct
g10
tp3798
F7
s(Vexhibits
g43
tp3799
F1
s(Vwatch
g16
tp3800
F2
s(Vdrawn
g25
tp3801
F4
s(g96
g508
tp3802
F1
s(Vcontemptible
g10
tp3803
F2
s(g150
g6
tp3804
F2
s(VHow
g96
tp3805
F9
s(Vfellows
g34
tp3806
F1
s(Vlubricator
g16
tp3807
F1
s(Vadhered
g18
tp3808
F1
s(Vindeed
S'RB'
p3809
tp3810
F16
s(g351
g578
tp3811
F1
s(Vimprovement
S'NN'
p3812
tp3813
F1
s(Vmilder
g16
tp3814
F1
s(Vsway
g6
tp3815
F1
s(g16
g118
tp3816
F207
s(g298
g6
tp3817
F85
s(Vinattention
g16
tp3818
F1
s(Vheightened
g25
tp3819
F2
s(VTrojans
g327
tp3820
F2
s(Vhealth
S'NN'
p3821
tp3822
F8
s(Vaffairs
S'NNS'
p3823
tp3824
F1
s(Vnoises
g34
tp3825
F1
s(Vcataract
g16
tp3826
F1
s(Vexperienced
g25
tp3827
F3
s(Venough
g6
tp3828
F8
s(Vmixt
g10
tp3829
F1
s(Vexcite
g10
tp3830
F3
s(Vextending
g93
tp3831
F1
s(VBeautiful
g10
tp3832
F1
s(Vmalis
g10
tp3833
F1
s(g1293
g118
tp3834
F40
s(Vsure
g10
tp3835
F6
s(Vtheatre
g16
tp3836
F1
s(Vmastiff
g16
tp3837
F1
s(Vacting
g93
tp3838
F4
s(Vonce
g6
tp3839
F15
s(g16
S':'
tp3840
F380
s(VThey
S'PRP'
p3841
tp3842
F7
s(Vlearn
g27
tp3843
F3
s(Vproduce
g27
tp3844
F15
s(Vmay
g103
tp3845
F116
s(Vdesire
g27
tp3846
F1
s(g93
g118
tp3847
F39
s(Vwhose
g1030
tp3848
F11
s(VPlace
g16
tp3849
F1
s(g10
g34
tp3850
F591
s(Vspectators
g34
tp3851
F3
s(Vdwells
g43
tp3852
F1
s(Vcottage
g16
tp3853
F1
s(Vdouble
g10
tp3854
F1
s(VAfter
S'IN'
p3855
tp3856
F3
s(Venthusiasms
g34
tp3857
F1
s(Vtime
g69
tp3858
F30
s(VLabour
g22
tp3859
F1
s(VIF
g159
tp3860
F1
s(Vumbr
g10
tp3861
F1
s(g2360
g587
tp3862
F6
s(Vidol
g16
tp3863
F1
s(Varts
g34
tp3864
F9
s(Vshall
g497
tp3865
F34
s(Veffect
S'NN'
p3866
tp3867
F74
s(Vpossesses
g43
tp3868
F2
s(Vye
g6
tp3869
F1
s(Vforehead
g16
tp3870
F1
s(Vuniversity
g16
tp3871
F1
s(Vfeelings
g34
tp3872
F11
s(Vconnection
S'NN'
p3873
tp3874
F3
s(g498
S','
tp3875
F36
s(S','
g250
tp3876
F1
s(Vresigns
g43
tp3877
F1
s(Vscenes
g34
tp3878
F4
s(Vremember
g27
tp3879
F1
s(g25
g16
tp3880
F21
s(Vapprehension
g16
tp3881
F4
s(g139
g27
tp3882
F17
s(g118
g22
tp3883
F9
s(Vabout
g6
tp3884
F1
s(Videas
g25
tp3885
F1
s(Vhighly
S'RB'
p3886
tp3887
F6
s(Vhot
g10
tp3888
F1
s(Vsurround
g27
tp3889
F1
s(Voffices
S'NNS'
p3890
tp3891
F1
s(Vvegetable
g10
tp3892
F4
s(VLOVE
g22
tp3893
F1
s(Vpunishment
g16
tp3894
F1
s(Vreconciling
g93
tp3895
F1
s(Vlanguid
g16
tp3896
F2
s(Vbox
g16
tp3897
F1
s(Vstrict
g10
tp3898
F2
s(Vincompatible
g10
tp3899
F2
s(Vday
S'NN'
p3900
tp3901
F11
s(g1206
S'.'
tp3902
F5
s(Vtenor
g10
tp3903
F1
s(VSounds
g34
tp3904
F1
s(Vexactly
g6
tp3905
F5
s(Vadapted
g25
tp3906
F8
s(Vendeavour
g27
tp3907
F1
s(Vstronger
g47
tp3908
F3
s(Vdescriptions
g34
tp3909
F3
s(Vnovice
g16
tp3910
F1
s(Vatque
g16
tp3911
F1
s(Vpole
g16
tp3912
F2
s(Vplay
g4
tp3913
F1
s(Voblong
g16
tp3914
F1
s(Vsuccessive
g10
tp3915
F3
s(g1880
g1410
tp3916
F1
s(Vimpracticable
g10
tp3917
F1
s(VTHERE
g587
tp3918
F2
s(Vthought
g25
tp3919
F2
s(g10
g387
tp3920
F19
s(VV.
g22
tp3921
F1
s(S'('
g3489
tp3922
F1
s(Vphenomenon
g16
tp3923
F1
s(Vconstant
g10
tp3924
F2
s(g1691
S'.'
tp3925
F9
s(Vromances
g34
tp3926
F2
s(Vtherefore
g16
tp3927
F2
s(Vcompass
g16
tp3928
F1
s(Vthey
g1312
tp3929
F189
s(Vthree
g334
tp3930
F8
s(Vtowards
g34
tp3931
F7
s(VSit
g22
tp3932
F1
s(Vfinely
g6
tp3933
F1
s(Vbill
S'NN'
p3934
tp3935
F1
s(Vcircumference
g16
tp3936
F1
s(Vheard
g25
tp3937
F1
s(Vbout
g16
tp3938
F1
s(Vnegro
g10
tp3939
F1
s(VOBJECTS
g22
tp3940
F1
s(Vpain
g27
tp3941
F3
s(Vexposed
g25
tp3942
F1
s(Vsublime
g10
tp3943
F22
s(Vled
g25
tp3944
F1
s(Vpleasant
g10
tp3945
F9
s(g43
S':'
tp3946
F10
s(Vrealms
g16
tp3947
F1
s(g298
g150
tp3948
F1
s(g4
g118
tp3949
F34
s(Vmisfortunes
g34
tp3950
F1
s(VWhoever
g59
tp3951
F2
s(Vannexed
g25
tp3952
F1
s(Vevidently
g6
tp3953
F3
s(Vsleep
g4
tp3954
F2
s(V7
S'CD'
p3955
tp3956
F2
s(Vrest
g16
tp3957
F13
s(VSuccession
g16
tp3958
F1
s(Vfigures
g34
tp3959
F1
s(g505
g96
tp3960
F3
s(Vobserving
g10
tp3961
F1
s(Vslender
g16
tp3962
F1
s(g22
g692
tp3963
F4
s(Vboys
g43
tp3964
F1
s(Vaccount
g4
tp3965
F5
s(g4
S':'
tp3966
F19
s(Vsuffering
g16
tp3967
F1
s(Vus
g605
tp3968
F108
s(VIMAGES
g22
tp3969
F1
s(g150
g591
tp3970
F1
s(Vstriking
g16
tp3971
F1
s(Vtriangles
g34
tp3972
F2
s(Vvaries
g34
tp3973
F1
s(Vstretches
g34
tp3974
F1
s(S'('
g70
tp3975
F2
s(Vuninterruptedly
g6
tp3976
F1
s(Vbag
g16
tp3977
F1
s(Vhappily
g6
tp3978
F1
s(Vlacu
g16
tp3979
F1
s(g505
g3637
tp3980
F3
s(Vchief
g10
tp3981
F1
s(Vabounds
g43
tp3982
F1
s(Vcalamity
g16
tp3983
F1
s(g118
g1260
tp3984
F1
s(Vconcerning
g93
tp3985
F13
s(Vsuppose
g4
tp3986
F8
s(g10
g1880
tp3987
F59
s(Vanguish
g10
tp3988
F1
s(Vlingua
g16
tp3989
F1
s(Vweakens
g43
tp3990
F1
s(Vshews
g43
tp3991
F1
s(Vimport
g16
tp3992
F1
s(g22
g25
tp3993
F2
s(Vexcited
g25
tp3994
F4
s(Vimitation
g16
tp3995
F19
s(Vcurious
g10
tp3996
F4
s(Vartificial
g10
tp3997
F4
s(Vexperiment
g16
tp3998
F1
s(Vbarriers
g34
tp3999
F1
s(Vliquids
g34
tp4000
F1
s(Vriver
g16
tp4001
F2
s(Veffort
S'NN'
p4002
tp4003
F2
s(Vhearts
g34
tp4004
F2
s(Vpalace
g16
tp4005
F2
s(g16
g1780
tp4006
F109
s(Vfear
g16
tp4007
F8
s(Vthemselves
S'PRP'
p4008
tp4009
F18
s(g108
g2263
tp4010
F18
s(VMelancholy
g22
tp4011
F1
s(Vrepeat
g27
tp4012
F1
s(g118
g1811
tp4013
F3
s(Vdissipated
g25
tp4014
F1
s(Vlooks
g34
tp4015
F1
s(Vleave
g4
tp4016
F3
s(Vindustry
S'NN'
p4017
tp4018
F2
s(Vvast
g10
tp4019
F9
s(Vheight
g16
tp4020
F9
s(Vaffixing
g93
tp4021
F1
s(Vrefer
g4
tp4022
F1
s(g1264
S','
tp4023
F3
s(Vobscurity
g16
tp4024
F4
s(Vdangerous
g10
tp4025
F4
s(Vwell-chosen
g10
tp4026
F1
s(g43
g59
tp4027
F2
s(Vdocility
g16
tp4028
F1
s(Vactually
S'RB'
p4029
tp4030
F6
s(Villustrate
g27
tp4031
F1
s(Vfather
g16
tp4032
F1
s(Vcorrespond
g16
tp4033
F1
s(Vapproach
g4
tp4034
F2
s(Vshewn
g34
tp4035
F1
s(Voperated
g25
tp4036
F1
s(VCompounded
g25
tp4037
F1
s(Vcopy
g4
tp4038
F1
s(g387
g90
tp4039
F1
s(Vmakes
S'VBZ'
p4040
tp4041
F16
s(Vlow
g10
tp4042
F4
s(Vfiction
g16
tp4043
F2
s(Vsofter
g47
tp4044
F1
s(Vtaken
g1609
tp4045
F9
s(Vsuit
g16
tp4046
F1
s(Vsupported
g25
tp4047
F1
s(VMagnitude
g22
tp4048
F1
s(Vincumber
g4
tp4049
F1
s(g25
g96
tp4050
F3
s(Vconsented
g18
tp4051
F1
s(Vparticles
g34
tp4052
F2
s(Vimagined
g18
tp4053
F2
s(Vlet
g4
tp4054
F18
s(Vgilding
g93
tp4055
F1
s(Vthirds
g34
tp4056
F1
s(Vpraised
g25
tp4057
F1
s(Vmagnorum
g16
tp4058
F1
s(Vfable
g10
tp4059
F1
s(Vinclinations
g34
tp4060
F1
s(VMuch
g10
tp4061
F1
s(VThus
g6
tp4062
F2
s(Vfond
g16
tp4063
F1
s(Vbird
g16
tp4064
F3
s(Vwhether
S'IN'
p4065
tp4066
F23
s(Vapproves
g43
tp4067
F1
s(Vmassive
g10
tp4068
F2
s(Vlakes
g34
tp4069
F3
s(Vleaping
g93
tp4070
F1
s(VCheselden
g22
tp4071
F2
s(Vindifferent
g10
tp4072
F1
s(g25
S'.'
tp4073
F40
s(Vfollows
S'VBZ'
p4074
tp4075
F5
s(VLocke
g22
tp4076
F3
s(Vjoint
g10
tp4077
F1
s(Vrising
g16
tp4078
F1
s(Vprovided
g18
tp4079
F1
s(Vvain
g16
tp4080
F1
s(Vseldom
g27
tp4081
F1
s(Vsilentia
g16
tp4082
F1
s(Vpartake
g16
tp4083
F1
s(Vconceives
g43
tp4084
F1
s(Vfailure
g16
tp4085
F1
s(Vspite
g16
tp4086
F2
s(Vapplied
g25
tp4087
F8
s(Vchiefly
g34
tp4088
F1
s(Vnurse
g16
tp4089
F2
s(VMilk
g16
tp4090
F1
s(Vcoolness
g10
tp4091
F1
s(Vstrained
g25
tp4092
F1
s(g578
S':'
tp4093
F2
s(g505
g90
tp4094
F2
s(Vformed
g25
tp4095
F13
s(Vsacred
g10
tp4096
F1
s(Vflesh
g16
tp4097
F1
s(Vfurnish
g4
tp4098
F1
s(Vbusiness
S'NN'
p4099
tp4100
F4
s(Vusually
S'RB'
p4101
tp4102
F3
s(Vassigned
g18
tp4103
F1
s(Vtwo
g3637
tp4104
F11
s(Vtwenty
g10
tp4105
F1
s(Vmadmen
g34
tp4106
F1
s(Vcompounded
g25
tp4107
F3
s(Vindulged
g25
tp4108
F1
s(Vhaud
g16
tp4109
F1
s(Vfixed
g10
tp4110
F1
s(g22
g16
tp4111
F30
s(VHorace
g22
tp4112
F1
s(Vsmooth
g139
tp4113
F1
s(Vantiquity
g16
tp4114
F1
s(Vsophism
g16
tp4115
F4
s(Velastic
g10
tp4116
F1
s(Vangry
g10
tp4117
F2
s(Vconformable
g10
tp4118
F2
s(g329
g22
tp4119
F40
s(Vone
g192
tp4120
F115
s(Vimitators
g34
tp4121
F1
s(Vshadowed
g25
tp4122
F1
s(g523
g16
tp4123
F2278
s(Vpoems
g34
tp4124
F5
s(Vbond
S'NN'
p4125
tp4126
F1
s(Voutline
g16
tp4127
F1
s(Vafflicted
g25
tp4128
F1
s(Vvirtuous
g10
tp4129
F2
s(Vinstantaneously
g6
tp4130
F1
s(g16
S','
tp4131
F1236
s(Vvehemently
g6
tp4132
F1
s(Vbeam
g16
tp4133
F1
s(Vworth
g10
tp4134
F6
s(VLOW
g22
tp4135
F1
s(Vforms
g43
tp4136
F2
s(Varising
g93
tp4137
F2
s(Vblack
S'JJ'
p4138
tp4139
F9
s(g18
g139
tp4140
F36
s(VOdyssey
g22
tp4141
F1
s(g6
S','
tp4142
F113
s(Vwaving
g93
tp4143
F1
s(Vumbram
g16
tp4144
F1
s(Vfertility
g16
tp4145
F1
s(Vextraordinary
S'JJ'
p4146
tp4147
F7
s(Vproper
g10
tp4148
F12
s(Vopposite
g10
tp4149
F6
s(Vme
g2209
tp4150
F21
s(Vwanting
g93
tp4151
F1
s(g953
S','
tp4152
F276
s(Vir
g10
tp4153
F1
s(g22
S':'
tp4154
F7
s(Vunite
g4
tp4155
F1
s(Vdeducible
g27
tp4156
F1
s(S'.'
S':'
tp4157
F1
s(Vtruest
g150
tp4158
F2
s(Vvehemence
g16
tp4159
F1
s(Vsentiment
g16
tp4160
F1
s(Vmurmuring
g93
tp4161
F1
s(Vminutely
g6
tp4162
F2
s(Vtakes
S'VBZ'
p4163
tp4164
F4
s(Vet
g668
tp4165
F2
s(Vremarked
g25
tp4166
F2
s(Vpreacher
g16
tp4167
F1
s(Vworn
g25
tp4168
F1
s(Vconclusions
g34
tp4169
F2
s(VAn
S'DT'
p4170
tp4171
F3
s(Vconceived
g25
tp4172
F2
s(Vgardens
g34
tp4173
F1
s(g808
g34
tp4174
F5
s(Vno
g139
tp4175
F103
s(g623
S','
tp4176
F1
s(VWith
S'IN'
p4177
tp4178
F7
s(Vdigging
g16
tp4179
F1
s(Vmet
g25
tp4180
F1
s(Vblends
g43
tp4181
F2
s(Vaccept
g4
tp4182
F1
s(VSpon
g22
tp4183
F1
s(g90
g18
tp4184
F10
s(g25
g118
tp4185
F106
s(Vear
g16
tp4186
F3
s(Vpreparative
g16
tp4187
F1
s(Vthere
g587
tp4188
F56
s(VAustria
g22
tp4189
F1
s(Vevenly
g6
tp4190
F1
s(VEvery
g139
tp4191
F4
s(Vafford
g4
tp4192
F2
s(S','
g171
tp4193
F1
s(VBesides
g159
tp4194
F6
s(Vpreventing
g93
tp4195
F1
s(Vbehold
g4
tp4196
F1
s(Vindulges
g43
tp4197
F1
s(Vcries
g34
tp4198
F2
s(g1410
g591
tp4199
F1
s(Vfalse
g10
tp4200
F1
s(VUntwisting
g93
tp4201
F1
s(g139
g59
tp4202
F24
s(Vsober
g16
tp4203
F2
s(Vaffecting
g93
tp4204
F15
s(Vgive
g27
tp4205
F6
s(Vcomplacency
g16
tp4206
F2
s(VFrench
g10
tp4207
F1
s(Vvarying
g93
tp4208
F1
s(Vrolled
g25
tp4209
F1
s(Vothers
g1100
tp4210
F39
s(Vconvinced
g10
tp4211
F2
s(Voculis
g16
tp4212
F1
s(Vbed
g16
tp4213
F1
s(S'.'
S')'
tp4214
F1
s(g93
g22
tp4215
F3
s(S':'
g90
tp4216
F3
s(Vkinds
g34
tp4217
F6
s(g90
g4
tp4218
F1
s(Vstandards
S'NNS'
p4219
tp4220
F1
s(Vcautiously
g6
tp4221
F1
s(Vstrike
g16
tp4222
F1
s(Vexpress
g4
tp4223
F4
s(Vallurements
g34
tp4224
F1
s(g1042
g387
tp4225
F4
s(Vclearly
S'RB'
p4226
tp4227
F5
s(Vfruit
g25
tp4228
F1
s(Vreach
g4
tp4229
F1
s(Vstatues
g34
tp4230
F2
s(Vminiature
g16
tp4231
F1
s(g108
g10
tp4232
F195
s(Vimitating
g16
tp4233
F2
s(V``
g1410
tp4234
F6
s(Vblossom
g16
tp4235
F1
s(Vmiseris
g10
tp4236
F1
s(Vagrees
g43
tp4237
F2
s(VInfinity
g22
tp4238
F1
s(Vdomestic
S'JJ'
p4239
tp4240
F1
s(Vcontracting
g93
tp4241
F2
s(Vfair
g16
tp4242
F2
s(VAlong
g159
tp4243
F1
s(Vgoverned
g25
tp4244
F1
s(Vsinks
g43
tp4245
F1
s(Vdistinguished
g25
tp4246
F2
s(VWhenever
g159
tp4247
F1
s(Vth
g16
tp4248
F1
s(VCause
g16
tp4249
F1
s(Vhut
g16
tp4250
F1
s(Vpray
g4
tp4251
F2
s(Vhorrid
g16
tp4252
F1
s(VSegnius
g22
tp4253
F1
s(VEurope
S'NNP'
p4254
tp4255
F1
s(g508
g4
tp4256
F1
s(VCOLOUR
g22
tp4257
F3
s(Vmists
g34
tp4258
F1
s(VAccording
S'VBG'
p4259
tp4260
F1
s(g150
g27
tp4261
F2
s(Vimitative
g10
tp4262
F3
s(Vviews
g34
tp4263
F1
s(Vdie
g27
tp4264
F1
s(Vchair
g16
tp4265
F2
s(Vtones
g34
tp4266
F2
s(Vyou
S'PRP'
p4267
tp4268
F42
s(Vremote
g27
tp4269
F2
s(Vje
g16
tp4270
F1
s(Vliberality
g16
tp4271
F1
s(Vindolence
g16
tp4272
F2
s(g623
g10
tp4273
F42
s(VRest
g22
tp4274
F1
s(g43
g2012
tp4275
F12
s(Vdependent
g10
tp4276
F1
s(Vmislead
g4
tp4277
F1
s(Vstreams
g34
tp4278
F1
s(Vugly
g10
tp4279
F1
s(Vbegin
g4
tp4280
F2
s(Vwhereas
g159
tp4281
F1
s(Vcommencing
g93
tp4282
F1
s(VDistinguishable
g22
tp4283
F1
s(Vacute
g10
tp4284
F2
s(Vwell-turned
g10
tp4285
F1
s(Vdusky
g10
tp4286
F1
s(S','
g387
tp4287
F125
s(Vheld
g25
tp4288
F1
s(Vboundary
g16
tp4289
F1
s(g70
g150
tp4290
F65
s(Vwritten
S'VBN'
p4291
tp4292
F1
s(Vpursue
g4
tp4293
F1
s(Vgreyhound
g16
tp4294
F1
s(Vturf
g16
tp4295
F2
s(Vblows
g34
tp4296
F1
s(Vpossibly
g6
tp4297
F7
s(VSimoisius
g22
tp4298
F1
s(Vsingle
S'JJ'
p4299
tp4300
F5
s(Vlunam
g16
tp4301
F1
s(Vcheck
g4
tp4302
F2
s(Vmembers
S'NNS'
p4303
tp4304
F1
s(Vbestowing
g93
tp4305
F1
s(Vnotes
g34
tp4306
F3
s(Vmelting
g93
tp4307
F2
s(Vrelative
g10
tp4308
F3
s(Vlifted
g25
tp4309
F1
s(Vconfirmed
g10
tp4310
F1
s(g18
g668
tp4311
F5
s(g6
g623
tp4312
F2
s(Vslopes
g34
tp4313
F1
s(Vperception
g16
tp4314
F1
s(Vlike
g27
tp4315
F2
s(Vglobular
g10
tp4316
F1
s(VTHE
g139
tp4317
F14
s(Vwisdom
g16
tp4318
F10
s(Vrecess
g16
tp4319
F1
s(Vtower
g16
tp4320
F4
s(Valmond
g16
tp4321
F1
s(Vobjects
g34
tp4322
F53
s(Vperplexity
g16
tp4323
F1
s(Veither
g4
tp4324
F2
s(Vbends
g43
tp4325
F1
s(Vstrike
g4
tp4326
F2
s(VAcheon
g22
tp4327
F1
s(Vbeams
g16
tp4328
F1
s(g2145
g6
tp4329
F13
s(Vengravings
g34
tp4330
F1
s(VNeither
g139
tp4331
F1
s(Velegant
g10
tp4332
F4
s(Vthereby
g6
tp4333
F1
s(Vwrote
S'VBD'
p4334
tp4335
F2
s(Vaffection
g16
tp4336
F12
s(Vamongst
g34
tp4337
F2
s(Vincumbrance
g16
tp4338
F1
s(Vsit
g16
tp4339
F1
s(Vhorror
g16
tp4340
F11
s(Vprinciples
g34
tp4341
F12
s(g385
g548
tp4342
F2
s(Vadulterate
g16
tp4343
F1
s(Vwillingly
g6
tp4344
F3
s(Vhitherto
g25
tp4345
F1
s(Vthat
g59
tp4346
F85
s(Vattended
g25
tp4347
F8
s(Vcomponent
g16
tp4348
F3
s(g2225
g2670
tp4349
F19
s(Vbefore
g6
tp4350
F5
s(Vsensibility
g16
tp4351
F3
s(g22
g1022
tp4352
F9
s(Vtroublesome
g27
tp4353
F1
s(Vproduce
g16
tp4354
F1
s(Vpurposes
g43
tp4355
F1
s(Vfinding
g93
tp4356
F1
s(Vartificers
g34
tp4357
F1
s(Vshort
g10
tp4358
F14
s(VAchilles
g22
tp4359
F2
s(Vdarkness
g16
tp4360
F27
s(Vsubordinate
g16
tp4361
F2
s(Vjump
g4
tp4362
F1
s(Vmoving
g16
tp4363
F1
s(Vbegin
g27
tp4364
F1
s(Vsleep
g6
tp4365
F1
s(Vchance
S'NN'
p4366
tp4367
F3
s(S','
g108
tp4368
F670
s(Voutlet
g16
tp4369
F1
s(VSpence
g22
tp4370
F1
s(Vcondition
g16
tp4371
F3
s(g90
g93
tp4372
F1
s(Varchangel
g16
tp4373
F2
s(Vlanguage
S'NN'
p4374
tp4375
F7
s(VTERROR
g16
tp4376
F1
s(Vconsequently
g6
tp4377
F10
s(Vincentive
g16
tp4378
F1
s(Vforest
g16
tp4379
F1
s(Vstalk
g16
tp4380
F1
s(Vsomething
g1802
tp4381
F25
s(Vfrighted
g25
tp4382
F1
s(Vsixth
g10
tp4383
F1
s(Vwatchwork
g16
tp4384
F1
s(VConcerning
g93
tp4385
F1
s(V!
S'.'
tp4386
F15
s(VFatidici
g22
tp4387
F1
s(Vowns
S'VBZ'
p4388
tp4389
F1
s(Vreduced
g25
tp4390
F2
s(Vhave
g27
tp4391
F146
s(Voccur
g4
tp4392
F1
s(Vacts
g43
tp4393
F1
s(VANOTHER
g22
tp4394
F3
s(Vdiscovered
g18
tp4395
F1
s(Vfall
g27
tp4396
F3
s(Vorators
g34
tp4397
F2
s(Vmutual
S'JJ'
p4398
tp4399
F2
s(Vtemples
g34
tp4400
F3
s(Vwhile
g159
tp4401
F3
s(VPainting
g93
tp4402
F1
s(Vpressure
g16
tp4403
F1
s(VMaker
g22
tp4404
F1
s(Vululare
g10
tp4405
F1
s(Vviewing
g93
tp4406
F2
s(Vfound
g25
tp4407
F35
s(Vsense
g16
tp4408
F42
s(Vuncommon
g10
tp4409
F3
s(Vprevent
g4
tp4410
F4
s(Vmoderated
g10
tp4411
F1
s(Vsofter
g16
tp4412
F1
s(Vpiled
g18
tp4413
F1
s(Vcup
g16
tp4414
F2
s(V2
S'CD'
p4415
tp4416
F1
s(Vdeemed
g25
tp4417
F1
s(Vactual
S'JJ'
p4418
tp4419
F10
s(Vproperly
g6
tp4420
F3
s(Vview
g16
tp4421
F20
s(Vweighing
g16
tp4422
F1
s(Vfind
g27
tp4423
F18
s(Vfuscous
g10
tp4424
F1
s(g15
g59
tp4425
F87
s(Vlook
g4
tp4426
F5
s(VDelight
g22
tp4427
F2
s(g548
g25
tp4428
F1
s(Vaccident
g16
tp4429
F4
s(Vweakness
S'NN'
p4430
tp4431
F12
s(S','
g15
tp4432
F612
s(Vmagnificence
g16
tp4433
F2
s(Vvine
g16
tp4434
F1
s(Vbeat
g27
tp4435
F1
s(S':'
g118
tp4436
F8
s(Vslid
g18
tp4437
F1
s(Vpowers
g34
tp4438
F14
s(Vpleasure
g16
tp4439
F109
s(Vair
g16
tp4440
F5
s(Vnigro
g16
tp4441
F1
s(Vwherein
g159
tp4442
F2
s(VSweet
g22
tp4443
F1
s(VSalust
g22
tp4444
F1
s(VGreek
g10
tp4445
F1
s(Vper
g159
tp4446
F3
s(VThat
g159
tp4447
F1
s(Vreinforces
g43
tp4448
F1
s(g2686
g591
tp4449
F23
s(Vimages
g34
tp4450
F19
s(g692
g2012
tp4451
F1
s(Vdistributed
g25
tp4452
F1
s(Vfirst
g6
tp4453
F13
s(Vmembrane
g16
tp4454
F1
s(Vwriters
g34
tp4455
F1
s(Vrespects
g43
tp4456
F1
s(Vexecuted
g25
tp4457
F2
s(g2012
S'.'
tp4458
F4
s(Vcontributes
g43
tp4459
F1
s(Vtaught
g25
tp4460
F1
s(Varch
g16
tp4461
F2
s(Vmagic
g16
tp4462
F1
s(Vboth
g139
tp4463
F21
s(g156
g93
tp4464
F1
s(Vlament
g18
tp4465
F1
s(g73
g439
tp4466
F171
s(VMacedon
g22
tp4467
F1
s(Vproductive
g16
tp4468
F1
s(Vprodigious
g10
tp4469
F1
s(Vquickly
g42
tp4470
F8
s(Vactions
S'NNS'
p4471
tp4472
F1
s(Vperson
S'NN'
p4473
tp4474
F13
s(VSYMPATHY
g22
tp4475
F3
s(Vcorrespondent
g16
tp4476
F3
s(Vsuitable
g10
tp4477
F3
s(Vfibra
g16
tp4478
F1
s(Vdelight
g6
tp4479
F1
s(Vdoes
g508
tp4480
F29
s(Vcalamitous
g10
tp4481
F1
s(Vamazes
g10
tp4482
F1
s(Vaures
g34
tp4483
F1
s(Vsettle
g4
tp4484
F3
s(Vshades
g34
tp4485
F5
s(Vdiscoveries
g34
tp4486
F1
s(Vclearer
g25
tp4487
F1
s(Vcastle
g16
tp4488
F2
s(Vbride
g16
tp4489
F1
s(Vhalf
g315
tp4490
F1
s(Vconfused
g18
tp4491
F2
s(Vnominal
g10
tp4492
F1
s(Venjoy
g4
tp4493
F1
s(g250
g655
tp4494
F46
s(Vwrought
g18
tp4495
F1
s(Vnisus
g16
tp4496
F1
s(Vrevolutions
g34
tp4497
F1
s(Vpraise
g16
tp4498
F2
s(Vaggregate
g10
tp4499
F2
s(Valta
g16
tp4500
F2
s(Vdimension
g16
tp4501
F4
s(Vheightening
g16
tp4502
F1
s(Vexists
g34
tp4503
F1
s(Vcold
g10
tp4504
F2
s(Vendued
g18
tp4505
F1
s(Vcompose
g27
tp4506
F2
s(g139
g47
tp4507
F33
s(Vseveral
S'JJ'
p4508
tp4509
F25
s(Vbesides
g159
tp4510
F8
s(Vanother
S'DT'
p4511
tp4512
F43
s(Vboldest
g150
tp4513
F1
s(Vturn
g16
tp4514
F3
s(Vdegrades
g43
tp4515
F1
s(Vexecution
g16
tp4516
F2
s(Vuppermost
g10
tp4517
F1
s(S','
g59
tp4518
F146
s(Vmuddy
g16
tp4519
F1
s(Vless
g10
tp4520
F1
s(Vsize
S'NN'
p4521
tp4522
F5
s(g274
g47
tp4523
F2
s(Vfashioned
g10
tp4524
F1
s(Vmechanical
g10
tp4525
F2
s(Vmeasure
g4
tp4526
F1
s(VStood
g22
tp4527
F1
s(S'NNS'
p4528
g16
tp4529
F11
s(VThere
g2930
tp4530
F15
s(g93
S','
tp4531
F23
s(Vrudeness
g16
tp4532
F1
s(VCuriosity
g22
tp4533
F1
s(Vdecide
g4
tp4534
F1
s(Vchains
g34
tp4535
F1
s(VWhen
g590
tp4536
F22
s(g90
g2184
tp4537
F9
s(Vproportional
g10
tp4538
F1
s(Vrelaxes
g4
tp4539
F1
s(Vheed
g16
tp4540
F1
s(Vdistinguish
g10
tp4541
F1
s(S','
g3489
tp4542
F1
s(Vnerves
g34
tp4543
F9
s(Vlively
g10
tp4544
F3
s(Vperceiving
g93
tp4545
F2
s(VHave
g27
tp4546
F1
s(Vsince
S'IN'
p4547
tp4548
F16
s(VVEGETABLES
g22
tp4549
F1
s(Vdisgust
g4
tp4550
F1
s(Vwitness
g10
tp4551
F1
s(Vdiscourse
g16
tp4552
F9
s(Vneed
g25
tp4553
F1
s(V1
S'CD'
p4554
tp4555
F3
s(Vharmony
g16
tp4556
F1
s(Vperforming
g93
tp4557
F3
s(Vhorrible
g10
tp4558
F1
s(g298
g159
tp4559
F106
s(S'CD'
p4560
g22
tp4561
F2
s(g73
g1543
tp4562
F176
s(Vhappened
g25
tp4563
F1
s(VSilence
g22
tp4564
F1
s(Vfault
g16
tp4565
F1
s(Vtumultuous
g10
tp4566
F1
s(g22
g22
tp4567
F60
s(Vinlet
g16
tp4568
F1
s(Vsubmits
g43
tp4569
F1
s(Vpresumed
g25
tp4570
F1
s(g4554
g329
tp4571
F15
s(Vattempt
g16
tp4572
F2
s(Vremain
g4
tp4573
F2
s(Vresistance
g16
tp4574
F3
s(Vbreadth
g16
tp4575
F1
s(Vmankind
g16
tp4576
F5
s(Vhaving
g1260
tp4577
F20
s(Vstomach
g16
tp4578
F2
s(Vwhatsoever
g16
tp4579
F2
s(Vdeformity
g16
tp4580
F3
s(Vindisposed
g25
tp4581
F1
s(Vreadily
g6
tp4582
F3
s(g16
g25
tp4583
F50
s(g34
g250
tp4584
F3
s(Vsacraverat
g16
tp4585
F1
s(Vendeavoured
g18
tp4586
F1
s(V12
S'CD'
p4587
tp4588
F1
s(Vstamp
g4
tp4589
F1
s(Vunable
g10
tp4590
F1
s(g808
g47
tp4591
F1
s(Vabide
g4
tp4592
F1
s(Vroot
g16
tp4593
F1
s(Vred
g25
tp4594
F1
s(Vblended
g18
tp4595
F1
s(g47
g2464
tp4596
F3
s(Vleonum
g16
tp4597
F1
s(Vundoubtedly
g10
tp4598
F1
s(Vnearer
g16
tp4599
F2
s(Vmixed
g10
tp4600
F7
s(VIT
g22
tp4601
F13
s(Vsmaller
S'JJR'
p4602
tp4603
F1
s(Vutterly
g10
tp4604
F1
s(Vdiverted
g25
tp4605
F1
s(Vheart
S'NN'
p4606
tp4607
F1
s(Vderive
g27
tp4608
F2
s(Vprimary
g10
tp4609
F3
s(Vdigested
g18
tp4610
F1
s(Vattached
g25
tp4611
F2
s(Vsignifies
g43
tp4612
F1
s(Vfavours
g16
tp4613
F1
s(Vpromote
g4
tp4614
F1
s(VWORDS
g22
tp4615
F3
s(Vprovinces
g34
tp4616
F1
s(Vsecretions
g34
tp4617
F1
s(Vlarger
S'JJR'
p4618
tp4619
F3
s(Vobserving
g93
tp4620
F2
s(Vmelts
g18
tp4621
F1
s(g10
g96
tp4622
F3
s(g808
g59
tp4623
F73
s(Vmix
g10
tp4624
F1
s(Vimpulses
g34
tp4625
F3
s(Vlines
S'NNS'
p4626
tp4627
F3
s(Vpacked
g18
tp4628
F1
s(Vdisregarded
g25
tp4629
F2
s(Vas
g4
tp4630
F1
s(Voppose
g4
tp4631
F1
s(Vinclined
g25
tp4632
F1
s(Veffected
g25
tp4633
F1
s(Vbecomes
g34
tp4634
F1
s(Vowing
g10
tp4635
F1
s(Varound
g159
tp4636
F1
s(Vpoetry
g4
tp4637
F1
s(Vnecessarily
g6
tp4638
F4
s(Voutward
g10
tp4639
F4
s(Vnative
g10
tp4640
F1
s(Vyields
g34
tp4641
F1
s(g43
g103
tp4642
F2
s(VO'er
g22
tp4643
F2
s(Vrank
g27
tp4644
F1
s(Vcaves
g43
tp4645
F2
s(Vsubsides
g34
tp4646
F1
s(Vsolids
g34
tp4647
F1
s(Vthing
g2916
tp4648
F64
s(VWHEN
g159
tp4649
F1
s(Vbar
g16
tp4650
F1
s(Vventured
g25
tp4651
F1
s(Vlean
g10
tp4652
F1
s(Vhall
g16
tp4653
F1
s(Vhistory
S'NN'
p4654
tp4655
F2
s(Vpetty
g10
tp4656
F1
s(S'CD'
p4657
g813
tp4658
F6
s(Vdues
g34
tp4659
F1
s(Vgreatness
g4
tp4660
F1
s(Vproduces
g43
tp4661
F9
s(Vimmense
g4
tp4662
F1
s(Vgreatly
g6
tp4663
F6
s(Vuseless
g10
tp4664
F1
s(Vsuperficial
g10
tp4665
F1
s(Vforming
g16
tp4666
F2
s(Vdream
g16
tp4667
F2
s(S':'
g59
tp4668
F16
s(g327
S','
tp4669
F2
s(Vconstituents
g34
tp4670
F4
s(Vgrow
g4
tp4671
F1
s(Vstriking
g10
tp4672
F10
s(Vterrors
g34
tp4673
F1
s(VDarkness
g22
tp4674
F1
s(Vlights
g34
tp4675
F5
s(VUniformity
g16
tp4676
F1
s(Vfaculties
g34
tp4677
F2
s(VRECAPITULATION
g22
tp4678
F3
s(Vshoulder
g16
tp4679
F1
s(Vmarbles
g34
tp4680
F1
s(Vcircumstances
S'NNS'
p4681
tp4682
F9
s(VAs
g159
tp4683
F11
s(Vconsiderably
g6
tp4684
F8
s(Vheathen
g16
tp4685
F2
s(Vyet
g6
tp4686
F44
s(Vcomposing
g93
tp4687
F1
s(Vconcession
g16
tp4688
F1
s(Vfresh
g10
tp4689
F1
s(Vapplied
g10
tp4690
F1
s(g90
S','
tp4691
F2
s(g16
S')'
tp4692
F10
s(Vharder
g47
tp4693
F1
s(Vlimb
g16
tp4694
F1
s(Venthusiasm
g16
tp4695
F1
s(Vpassages
g34
tp4696
F1
s(g298
g25
tp4697
F6
s(Vreckon
g4
tp4698
F1
s(Vpoterant
g16
tp4699
F1
s(Vstaggered
g25
tp4700
F1
s(VVacuity
g22
tp4701
F1
s(Vrays
g34
tp4702
F11
s(Vregular
g10
tp4703
F4
s(Vadditional
S'JJ'
p4704
tp4705
F1
s(Vraises
g43
tp4706
F7
s(Vcomplaint
g16
tp4707
F1
s(Vnotions
g34
tp4708
F4
s(Vtotter
g4
tp4709
F1
s(Vstick
g27
tp4710
F1
s(g150
g25
tp4711
F1
s(Vruin
g16
tp4712
F4
s(Vbreak
g4
tp4713
F1
s(Vdiffer
g16
tp4714
F1
s(g505
g250
tp4715
F8
s(Vhide
g16
tp4716
F1
s(Vmemory
g16
tp4717
F1
s(Vdeadens
g43
tp4718
F1
s(g4267
g4
tp4719
F48
s(Vsupport
g16
tp4720
F2
s(Vlabour
g16
tp4721
F10
s(Vincreased
g25
tp4722
F2
s(Vopened
g10
tp4723
F1
s(Vsum
g10
tp4724
F1
s(Vsensories
g34
tp4725
F1
s(Vdisplay
g4
tp4726
F1
s(g34
S':'
tp4727
F115
s(Vtroublesome
g10
tp4728
F2
s(Vinducing
g93
tp4729
F2
s(Vguess
g4
tp4730
F1
s(Vpower
S'NN'
p4731
tp4732
F35
s(Vintended
g18
tp4733
F3
s(Vstand
g4
tp4734
F3
s(Vaffects
g34
tp4735
F2
s(Vinferior
g10
tp4736
F5
s(Vseeming
g93
tp4737
F1
s(Vobservable
g10
tp4738
F1
s(Vvery
g6
tp4739
F133
s(g25
g505
tp4740
F3
s(Vsuffered
g18
tp4741
F1
s(Vaevamq
g16
tp4742
F1
s(Vears
g34
tp4743
F2
s(Vfemale
g10
tp4744
F1
s(Vfugit
g27
tp4745
F1
s(Vstriking
g93
tp4746
F1
s(Vmusic
S'NN'
p4747
tp4748
F8
s(Vmortal
g16
tp4749
F1
s(Vinclined
g10
tp4750
F2
s(Vinstead
S'RB'
p4751
tp4752
F3
s(Vformation
g16
tp4753
F1
s(Vsuperior
g10
tp4754
F1
s(Vhidden
g10
tp4755
F1
s(Vextreme
g16
tp4756
F1
s(Vraised
g25
tp4757
F3
s(Vsilentes
g43
tp4758
F1
s(g108
g118
tp4759
F42
s(VEYE
g22
tp4760
F1
s(g2657
g994
tp4761
F8
s(Vgentle
g10
tp4762
F4
s(Vout
g159
tp4763
F9
s(Vsonat
g16
tp4764
F1
s(Velse
g4
tp4765
F1
s(Vclose
g10
tp4766
F2
s(Vluminous
g10
tp4767
F2
s(Vtreat
g4
tp4768
F1
s(g2686
g1264
tp4769
F6
s(Vkills
g43
tp4770
F1
s(Vancient
g16
tp4771
F1
s(VWhy
S'WRB'
p4772
tp4773
F3
s(Vconnected
g25
tp4774
F3
s(Vsurprize
g4
tp4775
F1
s(Vset
g16
tp4776
F3
s(Vfood
S'NN'
p4777
tp4778
F1
s(Vcompound
g16
tp4779
F2
s(Vperishes
g34
tp4780
F1
s(Vturn
g27
tp4781
F6
s(Vtry
g4
tp4782
F2
s(Vcrouded
g25
tp4783
F1
s(Vlaid
g27
tp4784
F3
s(Vrarely
g6
tp4785
F2
s(Vparticular
g10
tp4786
F24
s(Vinterchangeably
g6
tp4787
F1
s(Venarrabile
g16
tp4788
F1
s(Vreads
g43
tp4789
F1
s(Vhuman
g10
tp4790
F16
s(Vcommonest
g16
tp4791
F1
s(Vdescriptive
g10
tp4792
F1
s(VDIFFICULTY
g16
tp4793
F1
s(Vscrutinized
g25
tp4794
F1
s(g63
g47
tp4795
F15
s(Vtransmitted
g25
tp4796
F1
s(Vtriumphs
g16
tp4797
F2
s(Vcourage
g16
tp4798
F2
s(Vroads
g34
tp4799
F1
s(g351
g22
tp4800
F3
s(Vcompliance
g16
tp4801
F2
s(Vamusement
g16
tp4802
F1
s(Vwide
S'JJ'
p4803
tp4804
F2
s(Vcomplexion
g16
tp4805
F1
s(Vreflecting
S'VBG'
p4806
tp4807
F2
s(Vtransient
g10
tp4808
F1
s(Vswine
g16
tp4809
F1
s(Vsupport
g4
tp4810
F1
s(Vproportioned
g25
tp4811
F2
s(Vpapers
g34
tp4812
F1
s(Vdo
g27
tp4813
F40
s(Vschemes
g34
tp4814
F1
s(g192
g2012
tp4815
F1
s(VPAIN
g22
tp4816
F4
s(Vsecond
g10
tp4817
F13
s(Vfashioned
g25
tp4818
F2
s(Vstalks
g34
tp4819
F1
s(g587
g73
tp4820
F1
s(Vpoorly
g6
tp4821
F1
s(Vfavourable
g10
tp4822
F1
s(VWhat
S'WP'
p4823
tp4824
F7
s(Vopposed
g25
tp4825
F2
s(g813
g118
tp4826
F53
s(Vexerted
g25
tp4827
F3
s(Vriant
g16
tp4828
F1
s(Vcertainly
S'RB'
p4829
tp4830
F18
s(Vraising
g93
tp4831
F8
s(Vdove
g16
tp4832
F1
s(Vvary
g4
tp4833
F2
s(Vtill
g16
tp4834
F1
s(Vdivided
g25
tp4835
F3
s(Vstates
g34
tp4836
F1
s(Valtered
g25
tp4837
F1
s(Vfictitious
g10
tp4838
F2
s(Vcontemplating
g93
tp4839
F1
s(g150
g34
tp4840
F18
s(g139
g351
tp4841
F16
s(Vnoblest
g150
tp4842
F1
s(Vgenerals
g34
tp4843
F1
s(Vreturns
g34
tp4844
F1
s(Vattended
g18
tp4845
F2
s(g108
g70
tp4846
F247
s(S','
g994
tp4847
F62
s(g108
g2228
tp4848
F105
s(Vprevious
S'JJ'
p4849
tp4850
F5
s(Vquits
g43
tp4851
F1
s(Vceremonies
g34
tp4852
F1
s(VFaucibus
g22
tp4853
F1
s(Vprinciple
g16
tp4854
F18
s(Vgeneration
S'NN'
p4855
tp4856
F3
s(Vitself
S'PRP'
p4857
tp4858
F42
s(g250
g63
tp4859
F6
s(Vsese
g10
tp4860
F1
s(Vunaccountable
g10
tp4861
F1
s(VDo
g27
tp4862
F1
s(Vsuccession
g16
tp4863
F13
s(Vlighted
g10
tp4864
F1
s(Vsociety
g16
tp4865
F20
s(Vdown
g6
tp4866
F2
s(Vimitate
g27
tp4867
F1
s(Vbeauty
g4
tp4868
F2
s(g34
g497
tp4869
F34
s(Vtokens
g34
tp4870
F2
s(g159
g587
tp4871
F10
s(Vattained
g25
tp4872
F1
s(S')'
g16
tp4873
F1
s(Vadmire
g27
tp4874
F2
s(Vbreaks
g34
tp4875
F1
s(Vremark
g16
tp4876
F6
s(Vappeal
g16
tp4877
F1
s(Vvalue
S'NN'
p4878
tp4879
F1
s(Vflashes
g34
tp4880
F1
s(Veye
S'NN'
p4881
tp4882
F47
s(Vequal
g10
tp4883
F11
s(g298
g1880
tp4884
F37
s(VTurn
g22
tp4885
F1
s(Vfro
g4
tp4886
F1
s(Vput
g27
tp4887
F1
s(Vconsecrated
g25
tp4888
F1
s(g22
g47
tp4889
F2
s(S','
g10
tp4890
F73
s(Vbrown
g10
tp4891
F1
s(Vfallen
g16
tp4892
F1
s(Vanatomist
g16
tp4893
F1
s(Vevent
S'NN'
p4894
tp4895
F1
s(Vbranches
g34
tp4896
F1
s(Vcritical
S'JJ'
p4897
tp4898
F1
s(Vbook
S'NN'
p4899
tp4900
F2
s(Vsickness
g16
tp4901
F2
s(Vfigurative
g10
tp4902
F1
s(VVincla
g22
tp4903
F1
s(Vimperfect
g10
tp4904
F2
s(Vdeserved
g25
tp4905
F1
s(Vsimple
g16
tp4906
F4
s(Vwant
g4
tp4907
F2
s(Vsquare
g10
tp4908
F1
s(Vrooting
g16
tp4909
F1
s(Vseized
g25
tp4910
F1
s(Veffectually
g6
tp4911
F6
s(S','
S'('
tp4912
F10
s(Vlabours
g16
tp4913
F1
s(Vvariegated
g10
tp4914
F1
s(Vframed
g25
tp4915
F2
s(Vdismal
g10
tp4916
F1
s(Vpresence
S'NN'
p4917
tp4918
F3
s(Vthousand
g192
tp4919
F1
s(g387
g47
tp4920
F8
s(Vcompares
g43
tp4921
F1
s(g385
g1802
tp4922
F3
s(Vstatue
g10
tp4923
F1
s(Vresembles
g34
tp4924
F1
s(Vconsist
g4
tp4925
F1
s(Vfeeling
g93
tp4926
F2
s(Vphysiognomy
g16
tp4927
F1
s(g118
g3625
tp4928
F17
s(Vhere
S'RB'
p4929
tp4930
F23
s(Vcomprehends
g34
tp4931
F1
s(Vapples
g34
tp4932
F1
s(Vportrait
g16
tp4933
F2
s(Vfavour
g16
tp4934
F2
s(Vpaint
g27
tp4935
F1
s(Vdangers
g34
tp4936
F1
s(Vobject
g10
tp4937
F7
s(Vsucceeding
g93
tp4938
F1
s(VMy
g2384
tp4939
F1
s(Vreceive
g27
tp4940
F5
s(Vprickly
g10
tp4941
F1
s(Vsmell
g16
tp4942
F7
s(Vmaterials
S'NNS'
p4943
tp4944
F3
s(VMen
g34
tp4945
F2
s(Vrelaxation
g16
tp4946
F17
s(g16
g171
tp4947
F2
s(VSPECIOUSNESS
g22
tp4948
F1
s(Vmouths
g34
tp4949
F1
s(S'RB'
p4950
g139
tp4951
F127
s(Vmothers
g34
tp4952
F1
s(Varise
g27
tp4953
F1
s(Vhell
g16
tp4954
F3
s(Vgrievous
g10
tp4955
F1
s(Vsect
g16
tp4956
F4
s(Vobstructions
g34
tp4957
F1
s(VVASTNESS
g22
tp4958
F1
s(V)
S')'
tp4959
F22
s(Vvoluptuous
g10
tp4960
F1
s(Vwild
g10
tp4961
F1
s(Vallowed
g25
tp4962
F8
s(Vengrafted
g25
tp4963
F1
s(Vdisagree
g16
tp4964
F1
s(Vmean
g10
tp4965
F4
s(VLittle
g10
tp4966
F1
s(Venters
g43
tp4967
F1
s(Vconstraint
g16
tp4968
F1
s(Vreality
g16
tp4969
F13
s(g655
g108
tp4970
F114
s(V4
g4657
tp4971
F1
s(VMany
g10
tp4972
F1
s(g118
g354
tp4973
F35
s(Vsucceed
S'VB'
p4974
tp4975
F3
s(Vits
g2384
tp4976
F114
s(Vexamined
g25
tp4977
F2
s(VSuch
g10
tp4978
F5
s(Vdiposition
g16
tp4979
F1
s(Vwalks
g27
tp4980
F1
s(Vchildren
g1463
tp4981
F6
s(Vconjecture
g16
tp4982
F1
s(Vincreases
g34
tp4983
F2
s(Vdoing
S'VBG'
p4984
tp4985
F2
s(Veyes
g34
tp4986
F9
s(Vsmooth
g25
tp4987
F2
s(Vlikewise
g10
tp4988
F1
s(Vadmire
g4
tp4989
F1
s(Vmajestic
g10
tp4990
F1
s(g150
g522
tp4991
F14
s(g22
g497
tp4992
F11
s(Vcredit
S'NN'
p4993
tp4994
F1
s(Vturned
g25
tp4995
F2
s(Vquibusimperium
g16
tp4996
F1
s(Vmember
S'NN'
p4997
tp4998
F2
s(Vread
g4
tp4999
F3
s(Vmonkey
g16
tp5000
F1
s(Vpapill
g16
tp5001
F1
s(Vdarkness
g10
tp5002
F3
s(Vexample
S'NN'
p5003
tp5004
F1
s(Vcompared
S'VBN'
p5005
tp5006
F1
s(S'('
g108
tp5007
F2
s(Vchiefly
g27
tp5008
F1
s(Vfly
g16
tp5009
F1
s(Vrelations
S'NNS'
p5010
tp5011
F3
s(g4
g315
tp5012
F8
s(Vpoint
g16
tp5013
F16
s(Vunproductive
g10
tp5014
F1
s(Vuse
g4
tp5015
F8
s(VAchilles
g34
tp5016
F1
s(Vaside
g10
tp5017
F1
s(Vchamber
g16
tp5018
F1
s(g108
g90
tp5019
F21
s(Vmaze
g16
tp5020
F1
s(Vproceed
g27
tp5021
F1
s(Vblemish
g16
tp5022
F1
s(g1026
g150
tp5023
F19
s(Vaway
g6
tp5024
F1
s(VTO
g118
tp5025
F2
s(g351
g34
tp5026
F145
s(g70
g327
tp5027
F4
s(Vunder
S'IN'
p5028
tp5029
F14
s(Vconstitute
g4
tp5030
F1
s(Vgetting
S'VBG'
p5031
tp5032
F1
s(Vmicroscope
g16
tp5033
F3
s(g6
g18
tp5034
F33
s(Vmeasure
g16
tp5035
F9
s(Vwonders
g34
tp5036
F1
s(Vsollicitus
g16
tp5037
F1
s(Vpaints
g34
tp5038
F1
s(Vbelieved
g25
tp5039
F1
s(Vpreference
g16
tp5040
F6
s(Vdesigns
g34
tp5041
F2
s(Vserpents
g34
tp5042
F1
s(Venumeration
g16
tp5043
F1
s(Vreconciles
g43
tp5044
F1
s(Vobserved
g18
tp5045
F3
s(Vpleasant
g16
tp5046
F1
s(Vproposed
g18
tp5047
F1
s(g439
S','
tp5048
F123
s(Vconfined
g18
tp5049
F1
s(Vflatter
g4
tp5050
F1
s(Vespecially
S'RB'
p5051
tp5052
F6
s(Vtranquility
g16
tp5053
F4
s(Vwearies
g43
tp5054
F1
s(Vadmiration
g16
tp5055
F7
s(g108
g25
tp5056
F12
s(Vmadness
g16
tp5057
F1
s(Vomitted
g25
tp5058
F1
s(Vroundness
g16
tp5059
F3
s(Vseeing
g93
tp5060
F5
s(Vlate
g10
tp5061
F1
s(Vappointed
g25
tp5062
F1
s(Vdiscover
g27
tp5063
F4
s(Vintroduce
g4
tp5064
F2
s(Vdressed
g18
tp5065
F1
s(Vstrengthening
g10
tp5066
F1
s(Vspecific
g10
tp5067
F1
s(Voccasions
g34
tp5068
F17
s(Vlightning
g16
tp5069
F1
s(g108
g34
tp5070
F91
s(S','
g90
tp5071
F20
s(Vso
g6
tp5072
F156
s(VSpelunca
g22
tp5073
F1
s(Vvigour
g16
tp5074
F3
s(Vear
g10
tp5075
F1
s(Valters
g34
tp5076
F1
s(Vrude
g16
tp5077
F1
s(Vcases
S'NNS'
p5078
tp5079
F18
s(Vphilosophers
g34
tp5080
F1
s(Vsoftens
g34
tp5081
F1
s(Vdiscern
g4
tp5082
F5
s(g250
g93
tp5083
F2
s(Vsharpness
g16
tp5084
F1
s(Vbelongs
g43
tp5085
F3
s(Vastonished
g25
tp5086
F1
s(Vmountains
g34
tp5087
F1
s(Vcolours
g34
tp5088
F14
s(Vcaused
g25
tp5089
F10
s(Vguides
g34
tp5090
F1
s(Vfourteen
g10
tp5091
F1
s(Vstep
g16
tp5092
F5
s(Veager
g10
tp5093
F1
s(Vpresent
g27
tp5094
F2
s(Vsmoother
g47
tp5095
F1
s(Vyouth
g16
tp5096
F1
s(Vjurisdictions
g34
tp5097
F1
s(Vcomposed
g18
tp5098
F1
s(Vdog
g16
tp5099
F1
s(Vmelting
g16
tp5100
F1
s(Venjoyment
g16
tp5101
F8
s(g1343
g166
tp5102
F3
s(Vunnatural
g10
tp5103
F4
s(Vsupera
g16
tp5104
F1
s(Vdeliver
g27
tp5105
F1
s(Vadventitious
g10
tp5106
F1
s(Vgraceful
g10
tp5107
F2
s(Vtransition
g16
tp5108
F3
s(Vsnout
g16
tp5109
F1
s(Vuse
g27
tp5110
F2
s(g150
S':'
tp5111
F3
s(Vplease
g27
tp5112
F3
s(Vwoman
S'NN'
p5113
tp5114
F4
s(g2562
g1293
tp5115
F15
s(VPain
g22
tp5116
F1
s(Vprophetic
g10
tp5117
F1
s(Vconclude
g4
tp5118
F7
s(Vdrum
g16
tp5119
F1
s(Vconnects
g43
tp5120
F1
s(VOf
S'IN'
p5121
tp5122
F16
s(Vpopular
S'JJ'
p5123
tp5124
F2
s(Vforest
g150
tp5125
F1
s(VPOETRY
g22
tp5126
F2
s(g43
g385
tp5127
F2
s(VGradual
g10
tp5128
F1
s(Vapprehend
g27
tp5129
F2
s(Vevils
g34
tp5130
F2
s(Vinto
S'IN'
p5131
tp5132
F65
s(VChaos
g22
tp5133
F2
s(Vascertained
g25
tp5134
F1
s(Vcausing
g93
tp5135
F3
s(Vbitter
g10
tp5136
F3
s(Veffences
g34
tp5137
F1
s(g2914
g692
tp5138
F10
s(Vpains
g34
tp5139
F10
s(Vimpossible
g10
tp5140
F14
s(Vbringing
g93
tp5141
F1
s(Vaffectation
g16
tp5142
F1
s(VBITTERS
g34
tp5143
F1
s(g93
g59
tp5144
F2
s(Vfatigued
g25
tp5145
F1
s(Vsentiments
g34
tp5146
F1
s(Virrevocabile
g10
tp5147
F1
s(VAnd
S'CC'
p5148
tp5149
F22
s(Vadministers
g43
tp5150
F1
s(Vcalculated
g18
tp5151
F1
s(Vowe
g27
tp5152
F1
s(Vcalamities
g34
tp5153
F1
s(g668
S':'
tp5154
F3
s(Vnocte
g16
tp5155
F1
s(g1299
S':'
tp5156
F33
s(Vimage
S'NN'
p5157
tp5158
F13
s(g43
g150
tp5159
F2
s(V10
g4560
tp5160
F1
s(Vfollowed
g25
tp5161
F1
s(Vpennis
g16
tp5162
F1
s(g4
g4
tp5163
F4
s(Vfavours
g34
tp5164
F1
s(Venter
g27
tp5165
F3
s(Vfire
g4
tp5166
F1
s(Vabsolute
g16
tp5167
F1
s(Vprofusion
g16
tp5168
F2
s(Vhiatu
g16
tp5169
F1
s(VFind
g27
tp5170
F1
s(Vheat
g16
tp5171
F1
s(Vputting
S'VBG'
p5172
tp5173
F2
s(Vvegetable
g16
tp5174
F1
s(Vremoves
g43
tp5175
F1
s(Vsublime
g6
tp5176
F2
s(Vrelieved
g18
tp5177
F1
s(g34
g93
tp5178
F19
s(VMen
g22
tp5179
F1
s(Vadmirable
g10
tp5180
F1
s(Vimpress
g27
tp5181
F1
s(Vcreatures
g34
tp5182
F7
s(Vdeduced
g25
tp5183
F1
s(g351
g623
tp5184
F1
s(Vsights
g34
tp5185
F3
s(Vavoid
g4
tp5186
F4
s(Vvariated
g10
tp5187
F1
s(Vmyself
g298
tp5188
F3
s(VBUILDING
g16
tp5189
F1
s(Vheated
g25
tp5190
F1
s(Vcataracts
g34
tp5191
F1
s(g623
g118
tp5192
F1
s(Vcease
g16
tp5193
F1
s(Vfinishing
g16
tp5194
F1
s(Vn't
S'RB'
p5195
tp5196
F1
s(Vstopped
g25
tp5197
F1
s(VA
g139
tp5198
F25
s(Vmoved
g25
tp5199
F3
s(Vreturning
g93
tp5200
F1
s(Vluporum
g16
tp5201
F1
s(Vresemble
g4
tp5202
F1
s(Vperniciem
g16
tp5203
F1
s(Vfabric
g16
tp5204
F1
s(Vinstruments
S'NNS'
p5205
tp5206
F3
s(g47
g298
tp5207
F1
s(g298
g2265
tp5208
F259
s(g298
g90
tp5209
F4
s(Vvulgarly
g6
tp5210
F1
s(g2091
g6
tp5211
F31
s(S':'
g192
tp5212
F2
s(Vodious
g10
tp5213
F3
s(Vfalls
g43
tp5214
F2
s(Vreligious
g10
tp5215
F1
s(S':'
g1780
tp5216
F2
s(Vmultitude
g16
tp5217
F2
s(Vnoble
g10
tp5218
F5
s(S':'
g96
tp5219
F8
s(Vtendency
g16
tp5220
F3
s(Vemerges
g43
tp5221
F1
s(Vmonstrous
g10
tp5222
F1
s(Vcharm
g16
tp5223
F1
s(Vproceeds
g43
tp5224
F1
s(Vself
g4
tp5225
F1
s(Vpass
g27
tp5226
F1
s(Vlife
S'NN'
p5227
tp5228
F14
s(Vlove
g27
tp5229
F6
s(Vchain
S'NN'
p5230
tp5231
F4
s(Vwinged
g10
tp5232
F2
s(VSUBLIME
g22
tp5233
F9
s(Vfalling
S'VBG'
p5234
tp5235
F6
s(Verrors
g34
tp5236
F1
s(Vsketches
g34
tp5237
F1
s(Vsuspended
g25
tp5238
F2
s(S'('
g3637
tp5239
F1
s(g2114
g2894
tp5240
F5
s(Vconsideration
g16
tp5241
F9
s(S'JJ'
p5242
g27
tp5243
F12
s(Vgently
g6
tp5244
F3
s(g25
g159
tp5245
F361
s(Vacquaintance
g6
tp5246
F1
s(Vpleased
g10
tp5247
F4
s(Vdraw
g4
tp5248
F3
s(Vleads
g43
tp5249
F2
s(g2265
g73
tp5250
F420
s(Vballads
g34
tp5251
F1
s(Vassignable
g10
tp5252
F2
s(g2686
g1880
tp5253
F13
s(S')'
g108
tp5254
F1
s(Vlectures
g34
tp5255
F1
s(Vshade
g16
tp5256
F1
s(Vmasses
g34
tp5257
F1
s(Vintention
g16
tp5258
F1
s(Vfatigue
g4
tp5259
F1
s(Vanimi
g16
tp5260
F1
s(Vwrithed
g25
tp5261
F1
s(g6
g93
tp5262
F35
s(Vreasonings
g34
tp5263
F3
s(g250
g994
tp5264
F1
s(Vjustly
g6
tp5265
F2
s(Vdiversity
g16
tp5266
F1
s(V-
S':'
tp5267
F6
s(Vabhorrence
g16
tp5268
F1
s(Vdrink
g4
tp5269
F2
s(Vhold
g27
tp5270
F3
s(Vdisorder
g25
tp5271
F1
s(S':'
g1543
tp5272
F142
s(Vtwisted
g25
tp5273
F1
s(Vobscure
g4
tp5274
F1
s(Vsubject
g10
tp5275
F4
s(Vreading
g93
tp5276
F4
s(Vmethods
g34
tp5277
F3
s(Vwrong
g10
tp5278
F4
s(Vforce
g16
tp5279
F16
s(V18
S'CD'
p5280
tp5281
F1
s(Vnearly
g2464
tp5282
F14
s(Vorigin
g16
tp5283
F5
s(Vone
g16
tp5284
F5
s(g344
g118
tp5285
F26
s(Vsurprise
g4
tp5286
F1
s(g16
g150
tp5287
F1
s(Vsometimes
g43
tp5288
F1
s(Vdrawing
g16
tp5289
F1
s(Vemploys
g43
tp5290
F1
s(Vdecays
g34
tp5291
F1
s(Vdestroys
g43
tp5292
F2
s(Vprojection
g16
tp5293
F1
s(Vsimple
g10
tp5294
F13
s(Vobjected
g25
tp5295
F2
s(Vsubservient
g27
tp5296
F1
s(g250
g118
tp5297
F1
s(Vocean
g16
tp5298
F3
s(Vrefrangibility
g16
tp5299
F2
s(Vequivocal
g10
tp5300
F1
s(g1205
g10
tp5301
F14
s(g1229
S'('
tp5302
F3
s(Vcoach
g16
tp5303
F1
s(Vinjustice
g16
tp5304
F1
s(VIDEAS
g22
tp5305
F6
s(Vall
g139
tp5306
F117
s(Vlinked
g10
tp5307
F1
s(Vconversation
g16
tp5308
F6
s(Vneglected
g25
tp5309
F1
s(g385
S'.'
tp5310
F1
s(Vperformance
S'NN'
p5311
tp5312
F2
s(Vintersection
g16
tp5313
F1
s(Vaddition
S'NN'
p5314
tp5315
F2
s(Vwaters
g34
tp5316
F2
s(Vfiring
g16
tp5317
F2
s(Vexpect
g27
tp5318
F2
s(Vcarries
S'VBZ'
p5319
tp5320
F3
s(Vsuggest
g4
tp5321
F2
s(V\u005c
g22
tp5322
F1
s(Vexaudiri
g16
tp5323
F1
s(Vspaces
g34
tp5324
F1
s(Vmerely
g6
tp5325
F15
s(Vgenerally
S'RB'
p5326
tp5327
F12
s(Vview
g27
tp5328
F1
s(V14
S'CD'
p5329
tp5330
F1
s(g229
g505
tp5331
F159
s(g16
g385
tp5332
F2
s(Vends
g34
tp5333
F3
s(Vexplication
g16
tp5334
F1
s(g27
g4
tp5335
F2
s(Vcurb
g16
tp5336
F1
s(Vdear
g10
tp5337
F2
s(Vdemonstration
g16
tp5338
F1
s(VEven
g6
tp5339
F3
s(Vtenderness
g16
tp5340
F3
s(Vphysical
g10
tp5341
F1
s(g10
g16
tp5342
F1096
s(V2\u005c
g192
tp5343
F1
s(Vinconsiderable
g10
tp5344
F1
s(VOn
S'IN'
p5345
tp5346
F9
s(Vcaligine
g16
tp5347
F1
s(Vpotion
g16
tp5348
F1
s(Vmembranous
g10
tp5349
F1
s(Vcontracted
g25
tp5350
F1
s(Vsevere
g10
tp5351
F1
s(Vweakest
g150
tp5352
F1
s(Vbetter
g6
tp5353
F2
s(VIMITATION
g22
tp5354
F2
s(Vsufficient
g10
tp5355
F8
s(Vsweet
g16
tp5356
F2
s(S')'
S','
tp5357
F1
s(Vporcupine
g16
tp5358
F1
s(V:
S':'
tp5359
F31
s(S','
g1030
tp5360
F6
s(VRomans
g327
tp5361
F1
s(g898
g250
tp5362
F2
s(Vgiant
g10
tp5363
F2
s(Vdepend
g4
tp5364
F2
s(Vaccounted
g25
tp5365
F2
s(Vattired
g10
tp5366
F1
s(Vphilosophy
g16
tp5367
F2
s(Vfix
g4
tp5368
F6
s(Vconvey
g4
tp5369
F1
s(Vdistasteful
g10
tp5370
F1
s(Vtempers
g34
tp5371
F1
s(Vcolder
g16
tp5372
F1
s(Vprecise
g10
tp5373
F1
s(Vthoroughly
g6
tp5374
F3
s(Vappearance
g16
tp5375
F16
s(Vterra
g16
tp5376
F1
s(Vsatisfactory
g10
tp5377
F1
s(Vstorm
g16
tp5378
F1
s(Vrest
g4
tp5379
F1
s(Vfounded
g18
tp5380
F1
s(g59
g10
tp5381
F2
s(Vlungs
g34
tp5382
F1
s(VSELF-
g22
tp5383
F1
s(VOur
g1837
tp5384
F2
s(Vwise
g16
tp5385
F1
s(Vhypocrisy
g16
tp5386
F1
s(Vfound
g16
tp5387
F1
s(Vrestores
g34
tp5388
F1
s(Vrun
g25
tp5389
F2
s(VDELICACY
g22
tp5390
F1
s(Vgrows
g43
tp5391
F2
s(Vguard
g4
tp5392
F1
s(Vconspires
g34
tp5393
F1
s(Vspoke
g18
tp5394
F1
s(Vmean
g16
tp5395
F1
s(Vetymology
g16
tp5396
F1
s(Vevident
g10
tp5397
F10
s(Vappears
S'VBZ'
p5398
tp5399
F9
s(Vcontains
g43
tp5400
F1
s(Vstrong
S'JJ'
p5401
tp5402
F24
s(Vdelight
g16
tp5403
F23
s(VWater
g22
tp5404
F3
s(Vdesires
g34
tp5405
F1
s(Vall
g315
tp5406
F49
s(Vnovelty
g16
tp5407
F7
s(VNever
g6
tp5408
F1
s(Vweariness
g16
tp5409
F3
s(Vrecovers
g34
tp5410
F1
s(Vneck
g16
tp5411
F9
s(Vuncertainty
S'NN'
p5412
tp5413
F3
s(Vblind
g10
tp5414
F1
s(Vpetals
g34
tp5415
F1
s(Vset
g25
tp5416
F1
s(VPeople
g34
tp5417
F1
s(Vgoblins
g34
tp5418
F3
s(Vdominion
g16
tp5419
F1
s(V5
S'CD'
p5420
tp5421
F1
s(VAdmiration
g16
tp5422
F1
s(Vest
g150
tp5423
F1
s(Vescaping
g93
tp5424
F1
s(Vtermination
g16
tp5425
F4
s(Vconsiderable
g10
tp5426
F10
s(g192
g1803
tp5427
F11
s(Vconsist
g16
tp5428
F2
s(Vtrivial
g10
tp5429
F1
s(Vquarter
S'NN'
p5430
tp5431
F1
s(Vattired
g25
tp5432
F1
s(Vbecause
g6
tp5433
F1
s(Vregna
g16
tp5434
F1
s(Vearnestly
g6
tp5435
F1
s(Vrhethoric
g16
tp5436
F1
s(Vfancy
g27
tp5437
F2
s(Vtried
g25
tp5438
F2
s(Vcelebrated
g10
tp5439
F1
s(Vcloudy
g16
tp5440
F2
s(Vimitated
g10
tp5441
F1
s(g250
S','
tp5442
F2
s(Vmaster
g16
tp5443
F1
s(Vcircumvectamur
g16
tp5444
F1
s(VRegardful
g22
tp5445
F1
s(Vdisastrous
g10
tp5446
F1
s(Vgreens
g34
tp5447
F1
s(Vtravels
g34
tp5448
F1
s(Vpain
g4
tp5449
F2
s(Vwent
S'VBD'
p5450
tp5451
F2
s(Vworked
g25
tp5452
F2
s(S':'
S'('
tp5453
F1
s(Vborder
g27
tp5454
F1
s(Vangle
g16
tp5455
F4
s(Vanger
g16
tp5456
F1
s(Vburlesque
g16
tp5457
F1
s(Vinvestigation
S'NN'
p5458
tp5459
F4
s(Vcall
g4
tp5460
F4
s(g2670
g2562
tp5461
F61
s(g108
g505
tp5462
F24
s(Vsacred
g18
tp5463
F1
s(Vmurder
g16
tp5464
F1
s(Vdirect
g27
tp5465
F1
s(Vpreface
g16
tp5466
F1
s(Vtrees
g34
tp5467
F3
s(Vmelancholy
g16
tp5468
F2
s(Vpercussion
g16
tp5469
F1
s(Vmodifications
g34
tp5470
F6
s(Vsought
g18
tp5471
F1
s(Vrange
g4
tp5472
F1
s(Vworse
g47
tp5473
F1
s(Varise
g4
tp5474
F7
s(Vlustre
g16
tp5475
F1
s(Vgallery
g16
tp5476
F1
s(Vfeeling
g16
tp5477
F16
s(Vmouldings
g34
tp5478
F1
s(Vways
g4528
tp5479
F8
s(Vambition
g16
tp5480
F2
s(Vcomposition
g16
tp5481
F3
s(Vposture
g16
tp5482
F1
s(g93
g2012
tp5483
F1
s(Vreassume
g4
tp5484
F1
s(Vgreat
S'JJ'
p5485
tp5486
F107
s(Vfor
g498
tp5487
F140
s(Venquiry
g16
tp5488
F11
s(VWise
g22
tp5489
F1
s(Vgiddiness
g16
tp5490
F1
s(Vretire
g4
tp5491
F1
s(Vdiversities
g34
tp5492
F1
s(g108
g2219
tp5493
F140
s(Vtenebris
g16
tp5494
F1
s(Vvoices
g34
tp5495
F1
s(Vbeginning
g16
tp5496
F6
s(Vtends
g43
tp5497
F4
s(Vseasons
g34
tp5498
F2
s(g27
g25
tp5499
F154
s(Vvaried
g25
tp5500
F1
s(Vendearing
g93
tp5501
F1
s(Vwords
S'NNS'
p5502
tp5503
F55
s(Veasy
g10
tp5504
F9
s(Vclearer
g16
tp5505
F1
s(Vhearing
g93
tp5506
F4
s(g59
g118
tp5507
F2
s(Vutterly
g6
tp5508
F1
s(Vcarrying
g93
tp5509
F3
s(Vpoetics
g34
tp5510
F1
s(Vfestoons
g34
tp5511
F1
s(Vtemper
g16
tp5512
F2
s(Vsatisfaction
g16
tp5513
F10
s(Vcorrespond
g4
tp5514
F1
s(Vcontinue
g27
tp5515
F4
s(Vconvenience
g4
tp5516
F1
s(Vpropose
g4
tp5517
F1
s(Vturning
g93
tp5518
F3
s(Voccasion
g16
tp5519
F5
s(Vfrequented
g25
tp5520
F1
s(Vdegrees
g34
tp5521
F6
s(g2914
g1630
tp5522
F9
s(g22
g159
tp5523
F36
s(g2188
g47
tp5524
F7
s(Vnear
g159
tp5525
F4
s(Vreduce
S'VB'
p5526
tp5527
F1
s(Vsoul
g16
tp5528
F10
s(VAlp
g22
tp5529
F1
s(Voff
g6
tp5530
F1
s(Vstroking
g93
tp5531
F1
s(Vclear
g4
tp5532
F1
s(Vcontrived
g25
tp5533
F2
s(Vinvented
g18
tp5534
F2
s(Vspeak
g4
tp5535
F2
s(Vlumen
g34
tp5536
F1
s(Vdisagreeable
g10
tp5537
F12
s(Vconstitution
g16
tp5538
F3
s(Vamuse
g16
tp5539
F2
s(Vleaves
g43
tp5540
F1
s(Vlost
g25
tp5541
F9
s(Vfugit
g10
tp5542
F1
s(Vunreasonable
g10
tp5543
F1
s(Vescape
g27
tp5544
F1
s(Vweary
g4
tp5545
F1
s(Voffice
S'NN'
p5546
tp5547
F2
s(VSuppose
g4
tp5548
F1
s(Vfate
g16
tp5549
F3
s(VALTHO
g22
tp5550
F1
s(Vmutilation
g16
tp5551
F1
s(Vconfesses
g43
tp5552
F1
s(Vwickedly
g6
tp5553
F1
s(Vrelaxing
g93
tp5554
F3
s(Vflattering
g93
tp5555
F1
s(Vtwitching
g16
tp5556
F1
s(Vseparate
g10
tp5557
F1
s(Vperformed
g25
tp5558
F1
s(Vsounds
g43
tp5559
F1
s(S','
g315
tp5560
F2
s(Vwork
g4
tp5561
F1
s(VWho
g90
tp5562
F1
s(g929
g351
tp5563
F3
s(Vexcessively
g6
tp5564
F2
s(Vcountries
S'NNS'
p5565
tp5566
F2
s(Vdistant
g10
tp5567
F1
s(Vtheirs
g298
tp5568
F1
s(VBlacklock
g22
tp5569
F2
s(Vsuperadded
g10
tp5570
F2
s(Vpassion
g16
tp5571
F53
s(Vtear
g16
tp5572
F1
s(Vvibration
g16
tp5573
F3
s(Vcatch
g27
tp5574
F1
s(Vdeference
g16
tp5575
F1
s(Vcomparative
g10
tp5576
F1
s(Vvapour
g16
tp5577
F1
s(Vobvious
g10
tp5578
F7
s(Vdisproportion
g16
tp5579
F3
s(Vaccompanies
g34
tp5580
F1
s(g298
g480
tp5581
F1
s(Vultimate
g10
tp5582
F1
s(Vpieces
g34
tp5583
F3
s(Vjustness
g16
tp5584
F1
s(S'('
g16
tp5585
F1
s(g18
g298
tp5586
F26
s(Voverpowers
g43
tp5587
F1
s(Vrobustness
g16
tp5588
F1
s(Vcountenance
g16
tp5589
F2
s(g63
g250
tp5590
F2
s(Vable
S'JJ'
p5591
tp5592
F6
s(VBLACKNESS
g22
tp5593
F2
s(Vmeanest
g150
tp5594
F2
s(VFEELING
g16
tp5595
F2
s(g900
g22
tp5596
F1
s(g1880
g1042
tp5597
F12
s(S':'
g548
tp5598
F5
s(Vwhole
g16
tp5599
F9
s(Vridicule
g16
tp5600
F1
s(Vmachine
S'NN'
p5601
tp5602
F1
s(Vmonstrorum
g16
tp5603
F1
s(S','
g900
tp5604
F1
s(Vartifice
g16
tp5605
F2
s(Vsuffers
g43
tp5606
F2
s(Vmean
g27
tp5607
F5
s(g150
g118
tp5608
F2
s(Vravaging
g93
tp5609
F1
s(Vcholic
g16
tp5610
F2
s(Vpursue
g16
tp5611
F1
s(Vsnuff-taker
g16
tp5612
F1
s(Vkeep
g4
tp5613
F2
s(Vefforts
S'NNS'
p5614
tp5615
F3
s(VOF
g159
tp5616
F7
s(Vdevils
g34
tp5617
F1
s(g150
g96
tp5618
F1
s(Vexercise
g16
tp5619
F5
s(Vformae
g4
tp5620
F1
s(Vindependent
S'JJ'
p5621
tp5622
F2
s(Vthe
g70
tp5623
F2136
s(VI
g591
tp5624
F277
s(Vmissed
g25
tp5625
F1
s(Vvirtues
g34
tp5626
F10
s(Vfidelibus
g16
tp5627
F1
s(g1880
g6
tp5628
F82
s(Vefficient
g16
tp5629
F1
s(VCreator
g22
tp5630
F4
s(VPerplexes
g22
tp5631
F1
s(Vassaults
g34
tp5632
F1
s(Vinduces
g43
tp5633
F3
s(Vproudly
g6
tp5634
F1
s(Vmodulations
g34
tp5635
F1
s(S','
g505
tp5636
F74
s(Vdefeat
g16
tp5637
F1
s(Vgloominess
g16
tp5638
F1
s(Vcommunication
g16
tp5639
F1
s(g34
g22
tp5640
F2
s(VLOUDNESS
g22
tp5641
F1
s(Vangles
g34
tp5642
F2
s(S','
g591
tp5643
F244
s(Vgiving
S'VBG'
p5644
tp5645
F3
s(Vdeceives
g43
tp5646
F1
s(Vcan
g994
tp5647
F135
s(S','
g70
tp5648
F209
s(Vmeasure
g27
tp5649
F1
s(Vauthors
g34
tp5650
F1
s(Vnature
g16
tp5651
F94
s(Vruggedness
g16
tp5652
F2
s(g90
g16
tp5653
F26
s(Vsocial
S'JJ'
p5654
tp5655
F7
s(Vwrinkles
g34
tp5656
F1
s(Vcold
g16
tp5657
F1
s(Vchanges
g34
tp5658
F3
s(Vbuildings
g34
tp5659
F4
s(Vfragrance
g16
tp5660
F1
s(S'JJ'
p5661
g192
tp5662
F11
s(Vsay
g27
tp5663
F11
s(VBesides
g22
tp5664
F1
s(Vleading
g10
tp5665
F2
s(Vshrill
g10
tp5666
F1
s(VYet
g6
tp5667
F2
s(Vuppermost
g25
tp5668
F1
s(Vsolitude
g16
tp5669
F5
s(Vcouncils
g34
tp5670
F1
s(Vutter
g10
tp5671
F1
s(Vcomparatively
g6
tp5672
F6
s(VHaving
g93
tp5673
F1
s(Veagerly
g6
tp5674
F1
s(Vbud
g16
tp5675
F1
s(Vmelted
g18
tp5676
F2
s(g27
g356
tp5677
F3
s(Vuneasiness
g16
tp5678
F6
s(Vstarry
g16
tp5679
F1
s(Vacquainted
g25
tp5680
F2
s(Vhandled
g25
tp5681
F2
s(Vviolent
g16
tp5682
F1
s(Vpicture
g16
tp5683
F10
s(Vconsidered
g18
tp5684
F1
s(Vresult
g16
tp5685
F1
s(Vunion
S'NN'
p5686
tp5687
F7
s(Vexhausts
g43
tp5688
F1
s(Vdependent
g4
tp5689
F1
s(Vpaintings
g34
tp5690
F1
s(VINTERMITTING
g16
tp5691
F1
s(Vconsider
g4
tp5692
F17
s(Vhim
g871
tp5693
F17
s(Vis
g387
tp5694
F706
s(Vqu
g10
tp5695
F1
s(VThird
g22
tp5696
F1
s(g4511
g118
tp5697
F8
s(Vclogged
g18
tp5698
F1
s(Vwithout
g1267
tp5699
F56
s(Vprofundity
g16
tp5700
F1
s(Vanalagous
g10
tp5701
F1
s(Vsupreme
g25
tp5702
F1
s(Veasiness
g16
tp5703
F1
s(VLet
g4
tp5704
F2
s(g385
g90
tp5705
F1
s(Vsunk
g10
tp5706
F1
s(Vdespotic
g10
tp5707
F1
s(Vbecomes
g43
tp5708
F3
s(Vagility
g16
tp5709
F1
s(Vapplication
g16
tp5710
F7
s(Ventirely
g6
tp5711
F6
s(Vsensation
g16
tp5712
F12
s(VTERROR
g22
tp5713
F1
s(Vasked
g25
tp5714
F1
s(Vamongst
g27
tp5715
F1
s(Vstruck
g10
tp5716
F1
s(Vreliefs
g16
tp5717
F1
s(Vseverally
g6
tp5718
F1
s(g1299
S','
tp5719
F102
s(Vrequisite
g10
tp5720
F7
s(Vsorbear
g4
tp5721
F1
s(Varmed
g25
tp5722
F1
s(VWhatever
g59
tp5723
F3
s(Vthese
g2686
tp5724
F97
s(Vaccompanies
g43
tp5725
F1
s(Valways
g4950
tp5726
F28
s(g108
g22
tp5727
F24
s(Vawful
g10
tp5728
F5
s(Vrack
g16
tp5729
F3
s(VTHAT
g139
tp5730
F1
s(Vad
S'NN'
p5731
tp5732
F1
s(VGRACE
g22
tp5733
F1
s(Vpleasures
g34
tp5734
F10
s(Vreferred
g25
tp5735
F1
s(Vsinking
g93
tp5736
F1
s(g156
g587
tp5737
F1
s(Vreal
g5661
tp5738
F20
s(g25
g994
tp5739
F2
s(Vmy
g354
tp5740
F26
s(Vpossibility
S'NN'
p5741
tp5742
F2
s(Vdemissa
g16
tp5743
F1
s(Vslights
g34
tp5744
F1
s(g22
g2980
tp5745
F1
s(Vpulse
g16
tp5746
F1
s(Vfluid
g16
tp5747
F4
s(Vstories
g34
tp5748
F1
s(VSublime
g22
tp5749
F3
s(Vstorms
g34
tp5750
F1
s(Vcircumstance
g16
tp5751
F1
s(Vunhappy
g10
tp5752
F1
s(Vslowly
g6
tp5753
F1
s(Vdirected
g25
tp5754
F2
s(Vregularly
g6
tp5755
F1
s(Vbelonging
g16
tp5756
F2
s(Vling
g16
tp5757
F1
s(g25
g34
tp5758
F4
s(Vadmit
g27
tp5759
F1
s(Vdolorous
g10
tp5760
F1
s(Vbear
g27
tp5761
F4
s(Vless
g47
tp5762
F9
s(Vexcite
g16
tp5763
F1
s(Vjuvenile
g16
tp5764
F1
s(Vperform
g4
tp5765
F1
s(Vin
g1811
tp5766
F780
s(Valarming
g93
tp5767
F1
s(Vvellicate
g4
tp5768
F1
s(Vbetraying
g93
tp5769
F1
s(Vrapidity
g16
tp5770
F1
s(Vnicety
g16
tp5771
F1
s(Vexcess
g10
tp5772
F1
s(Vdefer
g27
tp5773
F1
s(Vunderstood
g10
tp5774
F4
s(Vcorresponding
g10
tp5775
F1
s(Vadoring
g93
tp5776
F1
s(Vimmediately
S'RB'
p5777
tp5778
F10
s(g1481
g159
tp5779
F138
s(Vattraction
g16
tp5780
F3
s(g1880
g10
tp5781
F1114
s(VJust
g22
tp5782
F1
s(VCato
g22
tp5783
F2
s(g505
S'('
tp5784
F1
s(Vsphere
g16
tp5785
F2
s(Vglory
g16
tp5786
F2
s(Vcontradict
g4
tp5787
F1
s(Vsubterraneous
g10
tp5788
F1
s(Vdispositions
g34
tp5789
F3
s(Vours
g34
tp5790
F2
s(g73
g1206
tp5791
F8
s(VPleasure
g22
tp5792
F2
s(VTASTE
g22
tp5793
F2
s(VWhose
g22
tp5794
F1
s(Vprofessor
g16
tp5795
F1
s(Vdescribes
g43
tp5796
F3
s(g70
g93
tp5797
F18
s(Voil
S'NN'
p5798
tp5799
F10
s(Vopportunity
S'NN'
p5800
tp5801
F1
s(g591
S'.'
tp5802
F75
s(Vfollies
g34
tp5803
F1
s(g1264
g59
tp5804
F14
s(Vback
g16
tp5805
F2
s(Vrelaxing
g10
tp5806
F4
s(Vcartilage
g16
tp5807
F1
s(Varticle
S'NN'
p5808
tp5809
F3
s(Vneed
g4
tp5810
F1
s(Vinactive
g10
tp5811
F1
s(VPerfection
g16
tp5812
F1
s(Vinfinitely
g6
tp5813
F3
s(Vleaves
g34
tp5814
F6
s(Vhearer
g16
tp5815
F1
s(VAMONG
g22
tp5816
F1
s(Vrealities
g34
tp5817
F2
s(Vsagacity
g16
tp5818
F2
s(Vtrain
g16
tp5819
F1
s(Vexpressed
g25
tp5820
F1
s(g4
g6
tp5821
F96
s(g27
g47
tp5822
F4
s(Vmiserable
g10
tp5823
F1
s(Vcarry
g27
tp5824
F1
s(Vinarticulate
g16
tp5825
F1
s(Vengaging
g93
tp5826
F1
s(Vneither
g16
tp5827
F1
s(g4681
g156
tp5828
F2
s(g291
g25
tp5829
F139
s(Vequally
g6
tp5830
F5
s(Vpenetrate
g4
tp5831
F1
s(g808
g344
tp5832
F18
s(Vdescending
g93
tp5833
F1
s(Vwomen
S'NNS'
p5834
tp5835
F7
s(VIII
g22
tp5836
F1
s(Viris
g16
tp5837
F2
s(Vuninterrupted
g10
tp5838
F2
s(Vobserve
g27
tp5839
F3
s(Vsound
g10
tp5840
F1
s(Vbeauty
g16
tp5841
F124
s(Vpreceded
g25
tp5842
F1
s(Vjoy
g16
tp5843
F2
s(VMilton
g22
tp5844
F6
s(Vthose
g2268
tp5845
F62
s(Venquire
g4
tp5846
F4
s(V20
g1556
tp5847
F1
s(Vcritics
S'NNS'
p5848
tp5849
F1
s(Vlittle
g6
tp5850
F4
s(Vkeep
g27
tp5851
F2
s(Vmotions
g34
tp5852
F3
s(Vflowers
g34
tp5853
F8
s(Vlikelihood
g16
tp5854
F1
s(Vheighten
g27
tp5855
F1
s(Vutmost
g16
tp5856
F1
s(Vdistress
g16
tp5857
F4
s(Vdisagreeable
g16
tp5858
F1
s(Vrepeated
g25
tp5859
F3
s(Vproclaim
g4
tp5860
F1
s(Vagitation
g16
tp5861
F1
s(Vabated
g25
tp5862
F1
s(Vleaving
g93
tp5863
F2
s(Vpainful
g16
tp5864
F1
s(Vluce
g27
tp5865
F1
s(V?
S'.'
tp5866
F29
s(VCambridge
g22
tp5867
F1
s(Vneither
g6
tp5868
F1
s(Vornament
g16
tp5869
F1
s(VAlmighty
g22
tp5870
F1
s(g250
g16
tp5871
F5
s(Vstile
g16
tp5872
F1
s(g385
g10
tp5873
F1
s(Vawe
g16
tp5874
F2
s(Vsame
g102
tp5875
F83
s(Vbarren
g34
tp5876
F1
s(Vglorying
g16
tp5877
F1
s(Vreflections
g34
tp5878
F1
s(g108
g587
tp5879
F7
s(Vfruitful
g10
tp5880
F1
s(VObscure
g16
tp5881
F1
s(Vtoo
S'RB'
p5882
tp5883
F28
s(Vforced
g25
tp5884
F3
s(Vsometimes
g6
tp5885
F13
s(Vdark
g10
tp5886
F6
s(Vopposition
S'NN'
p5887
tp5888
F1
s(Vdistinctly
g6
tp5889
F2
s(Vfluidity
g16
tp5890
F2
s(g118
g315
tp5891
F5
s(Vastonishment
g16
tp5892
F4
s(Vdifficulty
g16
tp5893
F4
s(Vmellows
g43
tp5894
F1
s(S'VBP'
p5895
g18
tp5896
F4
s(Vpeaceful
g10
tp5897
F1
s(Vabstract
g16
tp5898
F1
s(Vharsh
g16
tp5899
F2
s(Votherwise
g6
tp5900
F10
s(g3955
S')'
tp5901
F1
s(Vstill
S'RB'
p5902
tp5903
F10
s(Vneed
g27
tp5904
F3
s(Vsuch
g315
tp5905
F31
s(Voccurred
g25
tp5906
F1
s(Vhalf-living
g10
tp5907
F1
s(Vbetter
g250
tp5908
F2
s(Vmoist
g16
tp5909
F1
s(VLord
g22
tp5910
F1
s(Vhappens
g43
tp5911
F3
s(Vcaves
g34
tp5912
F1
s(Vdiscerned
g25
tp5913
F1
s(Vhorrors
g34
tp5914
F1
s(Vexamination
g16
tp5915
F4
s(VOil
g16
tp5916
F1
s(Vnights
g34
tp5917
F1
s(Vprecarious
g10
tp5918
F2
s(Vanimal
g16
tp5919
F4
s(Vtouch
g10
tp5920
F2
s(Vamore
g16
tp5921
F1
s(g2005
g22
tp5922
F1
s(g498
g4
tp5923
F4
s(g18
g156
tp5924
F1
s(Vpolitic
g10
tp5925
F1
s(Vcontrary
g16
tp5926
F4
s(Vbestows
g34
tp5927
F1
s(Vsettled
g18
tp5928
F1
s(Vmanner
g27
tp5929
F1
s(Vkingdoms
g34
tp5930
F1
s(Vexception
g16
tp5931
F1
s(g16
g18
tp5932
F47
s(Vinspire
g27
tp5933
F2
s(Vstability
g16
tp5934
F1
s(Vangel
g16
tp5935
F2
s(Vaggregate
g16
tp5936
F1
s(Vsatisfy
g4
tp5937
F1
s(Vhuge
g5242
tp5938
F1
s(Vwatery
g16
tp5939
F1
s(Vdesign
g16
tp5940
F6
s(Vway
S'NN'
p5941
tp5942
F21
s(Vcongruity
g16
tp5943
F1
s(Vchannel
g16
tp5944
F1
s(Vgrating
g93
tp5945
F1
s(VBelieved
g18
tp5946
F1
s(Vash
g16
tp5947
F1
s(Voutweighs
g43
tp5948
F1
s(Vagreeing
g16
tp5949
F1
s(VINFINITY
g22
tp5950
F3
s(g16
g108
tp5951
F281
s(Vventure
S'NN'
p5952
tp5953
F3
s(Varise
g16
tp5954
F2
s(g2930
g298
tp5955
F1
s(g1030
g5227
tp5956
F8
s(Vmosaics
g34
tp5957
F1
s(Vcharacteristic
g10
tp5958
F1
s(Vnay
g10
tp5959
F1
s(Vdefence
g16
tp5960
F1
s(Vself-preservation
g16
tp5961
F7
s(g159
g43
tp5962
F17
s(g159
g118
tp5963
F43
s(Vobservation
g16
tp5964
F10
s(Vproportion
g16
tp5965
F40
s(Vpleased
g25
tp5966
F1
s(VConsulit
g22
tp5967
F1
s(g118
g2209
tp5968
F40
s(Vdifference
S'NN'
p5969
tp5970
F15
s(Vsenses
g34
tp5971
F28
s(Vwinding
g93
tp5972
F3
s(g27
g70
tp5973
F148
s(Vsmallness
g16
tp5974
F1
s(S','
g47
tp5975
F1
s(g6
S'.'
tp5976
F37
s(Vsystem
S'NN'
p5977
tp5978
F5
s(Vprosperity
g16
tp5979
F2
s(Vendless
g10
tp5980
F1
s(g548
g2012
tp5981
F14
s(Vthought
g16
tp5982
F1
s(Vpoets
g34
tp5983
F2
s(Vsignified
g25
tp5984
F1
s(g59
g3688
tp5985
F10
s(Vroars
g34
tp5986
F1
s(Vburthensome
g4
tp5987
F1
s(Vclearer
g47
tp5988
F1
s(Vmixes
g43
tp5989
F1
s(VBLackness
g22
tp5990
F1
s(Vhome
g16
tp5991
F1
s(Vnicest
g150
tp5992
F1
s(Vrise
g16
tp5993
F5
s(Vcircularly
g6
tp5994
F1
s(VSmoothness
g22
tp5995
F1
s(Vrunning
g16
tp5996
F1
s(Vpredominant
g10
tp5997
F1
s(g578
g4267
tp5998
F9
s(g1691
g2265
tp5999
F12
s(Veven
g6
tp6000
F44
s(Vpossessed
g18
tp6001
F1
s(Vgrosser
g16
tp6002
F1
s(Vshocked
g25
tp6003
F1
s(Vunderstood
g25
tp6004
F2
s(Vand
g108
tp6005
F1029
s(VMedicis
g22
tp6006
F1
s(Vdominions
g34
tp6007
F1
s(Vterror
g4
tp6008
F4
s(Vjustice
g16
tp6009
F2
s(Vfurther
g10
tp6010
F5
s(g73
g93
tp6011
F3
s(Visles
g34
tp6012
F1
s(Vlegs
g16
tp6013
F1
s(S':'
g171
tp6014
F1
s(Vproposing
g93
tp6015
F1
s(Vpress
g4
tp6016
F1
s(Vamounts
g43
tp6017
F1
s(Vcost
g16
tp6018
F1
s(Vuncertain
g10
tp6019
F8
s(Vthough
g6
tp6020
F2
s(Vrecollect
g4
tp6021
F1
s(VANIMALS
g22
tp6022
F2
s(Vsquare
g16
tp6023
F3
s(Venhanced
g25
tp6024
F2
s(Vsentence
g16
tp6025
F1
s(Vaffect
g16
tp6026
F1
s(Vmischiefs
g34
tp6027
F1
s(Vcoarse
g16
tp6028
F1
s(Vtuta
g16
tp6029
F1
s(Vimpress
g4
tp6030
F1
s(Vexceed
g27
tp6031
F2
s(VPain
g16
tp6032
F1
s(Vmoderated
g18
tp6033
F1
s(Vincidents
g34
tp6034
F1
s(Vsurvey
S'NN'
p6035
tp6036
F1
s(Vjudicious
g10
tp6037
F2
s(Vfilled
g25
tp6038
F2
s(Venlarged
g25
tp6039
F1
s(Vcroud
g16
tp6040
F3
s(Vwithal
g10
tp6041
F1
s(Vpalates
g34
tp6042
F1
s(VSMELL
g22
tp6043
F2
s(Vintend
g27
tp6044
F4
s(Vcomplaints
g34
tp6045
F1
s(V(
S'('
tp6046
F22
s(Vfitted
g25
tp6047
F9
s(g298
g118
tp6048
F29
s(Vhurried
g25
tp6049
F3
s(Vstate
S'NN'
p6050
tp6051
F22
s(g1030
g10
tp6052
F1
s(VAgamemnon
g22
tp6053
F1
s(g84
g103
tp6054
F1
s(Vback
g6
tp6055
F3
s(Vlucosque
g10
tp6056
F1
s(Vforgiving
g10
tp6057
F1
s(Vtwilight
g16
tp6058
F1
s(Vadorned
g25
tp6059
F1
s(Vstretch
g16
tp6060
F1
s(g1281
g2265
tp6061
F17
s(Vsmooth
g3489
tp6062
F1
s(Vpriori
g16
tp6063
F1
s(Vfemale
g16
tp6064
F1
s(Vact
g4
tp6065
F3
s(VVIRTUE
g22
tp6066
F1
s(S':'
g108
tp6067
F314
s(Vshapes
g34
tp6068
F2
s(V&
g668
tp6069
F5
s(g4
g16
tp6070
F38
s(g385
g1880
tp6071
F11
s(Vlower
g47
tp6072
F1
s(Vobjects
g43
tp6073
F1
s(g1205
g25
tp6074
F12
s(Vgratified
g25
tp6075
F2
s(g1691
g813
tp6076
F47
s(Vyellow
g10
tp6077
F1
s(Vones
S'NNS'
p6078
tp6079
F10
s(Vsurely
g6
tp6080
F7
s(g250
S'.'
tp6081
F2
s(Vstars
g34
tp6082
F2
s(Vf
g10
tp6083
F1
s(g623
g500
tp6084
F10
s(Vrecede
g27
tp6085
F1
s(Vaudience
S'NN'
p6086
tp6087
F1
s(Vsmallest
g150
tp6088
F1
s(Vraised
g18
tp6089
F3
s(Vconceal
g4
tp6090
F1
s(Vstudies
S'NNS'
p6091
tp6092
F2
s(Vsituation
S'NN'
p6093
tp6094
F2
s(Vresolver
g16
tp6095
F1
s(Vown
g27
tp6096
F3
s(Vprepare
g27
tp6097
F2
s(Vspare
g10
tp6098
F1
s(Vseldom
g4
tp6099
F2
s(Vdunghill
g16
tp6100
F1
s(VMephitim
g22
tp6101
F1
s(Vanimated
g25
tp6102
F2
s(g27
S'.'
tp6103
F10
s(Valtar
g16
tp6104
F1
s(Vadvance
g4
tp6105
F1
s(Vunuseful
g10
tp6106
F1
s(Vshewing
g93
tp6107
F3
s(Vthinking
g16
tp6108
F2
s(Vvaried
g10
tp6109
F2
s(Vreligion
g16
tp6110
F1
s(Vtexture
g16
tp6111
F2
s(Vevil
g10
tp6112
F3
s(Vtainted
g25
tp6113
F1
s(Vlaid
g25
tp6114
F3
s(Vfrontier
g16
tp6115
F1
s(Vtherefore
g4
tp6116
F3
s(Vursi
g10
tp6117
F1
s(Vremorse
g16
tp6118
F1
s(Vappetite
g16
tp6119
F2
s(Vthought
g18
tp6120
F3
s(Vhonouring
g93
tp6121
F1
s(g1260
g18
tp6122
F2
s(g22
g900
tp6123
F1
s(Vowned
g25
tp6124
F3
s(VResistance
g16
tp6125
F1
s(Vexertion
g16
tp6126
F2
s(g497
g5952
tp6127
F4
s(Vwherever
g159
tp6128
F1
s(Vregards
g34
tp6129
F1
s(Vslippery
g10
tp6130
F1
s(Vrouses
g43
tp6131
F1
s(Vconfide
g4
tp6132
F1
s(Vlonger
g250
tp6133
F3
s(Vexpectation
g16
tp6134
F8
s(g1022
g933
tp6135
F19
s(Vwhenever
g96
tp6136
F2
s(Vit
g298
tp6137
F572
s(Vlandscape
g16
tp6138
F3
s(Vstone
g16
tp6139
F1
s(Vpoetry
g16
tp6140
F18
s(Vsympathy
g10
tp6141
F2
s(Vdistinguish
g4
tp6142
F6
s(Vtenor
g16
tp6143
F1
s(g16
g93
tp6144
F31
s(Vtruly
g6
tp6145
F1
s(Vfear
g10
tp6146
F1
s(Veight
g480
tp6147
F1
s(VHowever
S'RB'
p6148
tp6149
F1
s(Vcombining
g93
tp6150
F2
s(Vbombast
g16
tp6151
F1
s(Vcomplexity
g16
tp6152
F1
s(Vproportioned
g18
tp6153
F1
s(Vdetest
g150
tp6154
F1
s(Vforce
g4
tp6155
F1
s(Vthrough
g159
tp6156
F14
s(Vdarling
g16
tp6157
F1
s(g22
g505
tp6158
F3
s(Vcustom
g16
tp6159
F6
s(Vinsipid
g10
tp6160
F4
s(g2360
g59
tp6161
F2
s(Vexcept
g159
tp6162
F4
s(Vstrengthened
g25
tp6163
F1
s(VEnglish
g10
tp6164
F1
s(S')'
g1312
tp6165
F1
s(Vfragility
g16
tp6166
F1
s(Vevery
g2482
tp6167
F73
s(Vdramatic
g10
tp6168
F1
s(Vhorrid
g10
tp6169
F1
s(Vgenitoris
g16
tp6170
F1
s(g2265
g6
tp6171
F113
s(VNo
g139
tp6172
F5
s(Vheroic
g16
tp6173
F1
s(Vwhirl
g4
tp6174
F1
s(Vreflected
g25
tp6175
F3
s(Vproductive
g10
tp6176
F8
s(Vastronomy
g16
tp6177
F1
s(g192
g1264
tp6178
F9
s(Venlivening
g93
tp6179
F2
s(Vthat
g139
tp6180
F125
s(Vsky
g16
tp6181
F1
s(Vapply
g4
tp6182
F1
s(Vugliness
g10
tp6183
F2
s(g18
S','
tp6184
F32
s(Vflourishing
g93
tp6185
F1
s(Vhammers
g34
tp6186
F2
s(VPhlegethon
g22
tp6187
F1
s(VTastes
g34
tp6188
F1
s(Vforming
g93
tp6189
F1
s(Vtells
g43
tp6190
F1
s(Vfounds
g43
tp6191
F1
s(VSo
g159
tp6192
F2
s(Vmeets
g43
tp6193
F3
s(VAmong
S'IN'
p6194
tp6195
F3
s(g578
g70
tp6196
F3
s(Vrather
S'RB'
p6197
tp6198
F20
s(Vderives
g43
tp6199
F1
s(g70
g229
tp6200
F564
s(Vnations
g34
tp6201
F1
s(Vrelaxed
g10
tp6202
F1
s(Vnearness
g16
tp6203
F1
s(Vfelt
g25
tp6204
F4
s(V\u005c
g16
tp6205
F4
s(Vsearch
g27
tp6206
F2
s(Vanalogous
g10
tp6207
F2
s(Voriginal
g10
tp6208
F9
s(Varchitecture
g16
tp6209
F4
s(Vsubstitution
g16
tp6210
F2
s(Vcare
g16
tp6211
F5
s(Vwarm
g16
tp6212
F1
s(Vample
g16
tp6213
F1
s(Vneed
g16
tp6214
F2
s(g385
g118
tp6215
F3
s(Vcrime
S'NN'
p6216
tp6217
F2
s(Vher
g2384
tp6218
F2
s(Valone
g6
tp6219
F3
s(Vinaction
g16
tp6220
F2
s(Vworks
g43
tp6221
F3
s(Vtone
g16
tp6222
F5
s(Vexplain
g4
tp6223
F7
s(Vtimes
g34
tp6224
F9
s(Vduties
g34
tp6225
F1
s(Vuntil
S'IN'
p6226
tp6227
F9
s(Vheterogeneous
g10
tp6228
F1
s(Vhinder
g4
tp6229
F1
s(Vfaint
g16
tp6230
F2
s(Vshew
g16
tp6231
F2
s(Vorgan
g16
tp6232
F4
s(Vwant
g27
tp6233
F1
s(g315
g139
tp6234
F80
s(Vright
g16
tp6235
F2
s(g93
g315
tp6236
F4
s(g259
g354
tp6237
F1
s(Vextended
g10
tp6238
F1
s(Vlikewise
g6
tp6239
F10
s(VNay
g22
tp6240
F2
s(Varrive
g4
tp6241
F1
s(Vconfusion
g16
tp6242
F5
s(Vdeviates
g43
tp6243
F1
s(Vreading
g16
tp6244
F1
s(Vet
g900
tp6245
F2
s(Vsufficiently
g6
tp6246
F9
s(Vamiable
g10
tp6247
F7
s(Vprincipalities
g34
tp6248
F1
s(Vnay
g668
tp6249
F3
s(Vdarkness
g4
tp6250
F1
s(Vdrain
g4
tp6251
F1
s(Vimmanis
g16
tp6252
F1
s(Vpropositions
g34
tp6253
F2
s(g10
g250
tp6254
F1
s(Veclipse
g16
tp6255
F2
s(Vgoverning
g16
tp6256
F1
s(Vinspires
g34
tp6257
F1
s(VWORDS
g10
tp6258
F1
s(VNumberless
g22
tp6259
F1
s(Vthirst
g16
tp6260
F2
s(Vdisease
g16
tp6261
F1
s(Vreally
S'RB'
p6262
tp6263
F6
s(Vsuffers
g34
tp6264
F2
s(g505
g10
tp6265
F102
s(Vparental
g10
tp6266
F1
s(Vquoi
g16
tp6267
F1
s(Vlikewise
g4
tp6268
F1
s(Vbreasts
g34
tp6269
F2
s(Vangular
g10
tp6270
F5
s(Vprincipal
g10
tp6271
F6
s(Vwilling
S'JJ'
p6272
tp6273
F1
s(Vlinking
g93
tp6274
F1
s(Vremarkably
g6
tp6275
F2
s(g90
g4267
tp6276
F26
s(VMOST
g150
tp6277
F1
s(Vwherein
g27
tp6278
F1
s(Vpoisonous
g10
tp6279
F2
s(Vstench
g16
tp6280
F2
s(Vasleep
g6
tp6281
F1
s(Vnarrative
g10
tp6282
F1
s(Vwas
g18
tp6283
F45
s(Vpalpable
g10
tp6284
F1
s(Vthither
g6
tp6285
F1
s(Vafraid
g10
tp6286
F2
s(Vblown
g16
tp6287
F1
s(Vobscured
g25
tp6288
F1
s(Vwhy
g84
tp6289
F13
s(g43
g27
tp6290
F1
s(Vbitters
g34
tp6291
F1
s(Vinaccessible
g10
tp6292
F1
s(Vresembling
g93
tp6293
F3
s(Vdispensing
g93
tp6294
F1
s(Vfind
g16
tp6295
F1
s(Vsensory
g16
tp6296
F4
s(Vhonour
g3489
tp6297
F1
s(VPerque
g22
tp6298
F1
s(g291
S','
tp6299
F64
s(Vaffectionate
g10
tp6300
F1
s(Vconstitute
g27
tp6301
F3
s(VBut
S'CC'
p6302
tp6303
F67
s(g192
g6
tp6304
F2
s(Vterms
S'NNS'
p6305
tp6306
F2
s(Vlikeness
g16
tp6307
F1
s(Vdepends
g43
tp6308
F5
s(Vdrives
g43
tp6309
F1
s(Vam
g5895
tp6310
F22
s(Vsociety
g4
tp6311
F1
s(Vleast
g150
tp6312
F14
s(Vremote
g10
tp6313
F1
s(Vstrength
S'NN'
p6314
tp6315
F18
s(VTHERE
g22
tp6316
F1
s(Vconnexion
g16
tp6317
F5
s(Vknew
g18
tp6318
F1
s(Vlies
g34
tp6319
F1
s(VGracefulness
g22
tp6320
F2
s(Vcrown
g25
tp6321
F1
s(VPRIVATION
g16
tp6322
F1
s(Vadorable
g10
tp6323
F1
s(Vland
g16
tp6324
F2
s(Vwant
g16
tp6325
F7
s(Vconvexa
g16
tp6326
F1
s(Vfinds
g43
tp6327
F2
s(Vthis
g1691
tp6328
F269
s(Vuniversally
g6
tp6329
F2
s(g371
g387
tp6330
F336
s(Vdetermination
g16
tp6331
F1
s(Vmeets
g34
tp6332
F1
s(Vlessening
g93
tp6333
F1
s(Vlatter
g10
tp6334
F2
s(Vblind
g27
tp6335
F1
s(Vthat
g159
tp6336
F369
s(g73
g90
tp6337
F12
s(Vmanagement
S'NN'
p6338
tp6339
F1
s(VBlushing
g22
tp6340
F1
s(Vformed
g18
tp6341
F1
s(Vwell
g6
tp6342
F41
s(Vprecipice
g16
tp6343
F3
s(g47
g108
tp6344
F4
s(Vhinders
g34
tp6345
F2
s(Vretiring
g16
tp6346
F1
s(Vinstruction
g16
tp6347
F1
s(Vwalls
g34
tp6348
F3
s(Vonly
g6
tp6349
F52
s(Veach
S'DT'
p6350
tp6351
F33
s(Vtrue
S'JJ'
p6352
tp6353
F14
s(Ventertain
g4
tp6354
F1
s(g22
S','
tp6355
F58
s(Vforgotten
g25
tp6356
F1
s(Vuniform
g10
tp6357
F15
s(Vas
g6
tp6358
F32
s(Vrepresent
g10
tp6359
F1
s(Vbeautiful
g16
tp6360
F24
s(Vsmooth
g16
tp6361
F3
s(Vwhither
g47
tp6362
F1
s(Vaffinity
g16
tp6363
F1
s(S')'
g18
tp6364
F2
s(VWhenever
g96
tp6365
F2
s(Vdefects
g34
tp6366
F1
s.