ccollections
defaultdict
p1
(c__builtin__
float
p2
tRp3
(Vdelighted
S'JJ'
p4
tp5
F1
s(Vwe
S'PRP'
p6
tp7
F3
s(S'IN'
p8
S'WDT'
p9
tp10
F2
s(Vpleased
S'VBN'
p11
tp12
F1
s(S'IN'
p13
S'NN'
p14
tp15
F24
s(Vman
S'NN'
p16
tp17
F2
s(S'CC'
p18
S'JJR'
p19
tp20
F1
s(S'NNS'
p21
S'.'
tp22
F1
s(Vpall
g14
tp23
F1
s(g11
g6
tp24
F1
s(S','
S'IN'
p25
tp26
F6
s(S':'
S'PRP'
p27
tp28
F1
s(Vacids
g21
tp29
F1
s(Voverpowered
g11
tp30
F1
s(Vpenetration
g14
tp31
F1
s(Vthat
g9
tp32
F1
s(Vfaults
g21
tp33
F1
s(Vharshness
g14
tp34
F1
s(Vwould
S'MD'
p35
tp36
F1
s(g9
g16
tp37
F1
s(Vsugar
g14
tp38
F4
s(S','
S'WP'
p39
tp40
F2
s(Vlimpid
g4
tp41
F1
s(Vfrom
S'IN'
p42
tp43
F1
s(VThus
S'RB'
p44
tp45
F4
s(S'EX'
p46
S'VBZ'
p47
tp48
F1
s(Vthe
S'DT'
p49
tp50
F31
s(Vwith
S'IN'
p51
tp52
F5
s(Vsits
S'VBZ'
p53
tp54
F1
s(g47
g49
tp55
F8
s(g47
S'TO'
p56
tp57
F1
s(Vor
S'CC'
p58
tp59
F4
s(Vtasteless
g14
tp60
F1
s(S'CC'
p61
g21
tp62
F1
s(Vcontent
g4
tp63
F1
s(Vconvenience
g14
tp64
F1
s(Vlife
S'NN'
p65
tp66
F1
s(Vtill
g14
tp67
F1
s(Vwit
g14
tp68
F4
s(g11
S'.'
tp69
F2
s(S'VB'
p70
g11
tp71
F2
s(Vmore
S'RBR'
p72
tp73
F1
s(Vnatural
S'JJ'
p74
tp75
F1
s(S'VBP'
p76
S','
tp77
F1
s(S'CC'
p78
g53
tp79
F2
s(Vhated
g11
tp80
F1
s(S'RB'
p81
g70
tp82
F2
s(g44
g4
tp83
F2
s(Vplease
g76
tp84
F1
s(Vcomplaisance
g14
tp85
F1
s(Vneither
S'CC'
p86
tp87
F1
s(Vmore
g19
tp88
F1
s(Vacidity
g14
tp89
F1
s(Vconveyed
g11
tp90
F1
s(Vand
g78
tp91
F31
s(S','
S'PRP'
p92
tp93
F1
s(S','
S'MD'
p94
tp95
F2
s(g11
S'IN'
p96
tp97
F6
s(Vlemon
g14
tp98
F1
s(g44
g11
tp99
F3
s(Vcan
S'MD'
p100
tp101
F3
s(Vused
g11
tp102
F1
s(S','
g49
tp103
F2
s(Vmake
S'VB'
p104
tp105
F1
s(Vrequisite
g76
tp106
F1
s(g39
g53
tp107
F1
s(g94
g104
tp108
F6
s(S'VBG'
p109
g14
tp110
F1
s(Vknowledge
g14
tp111
F1
s(Vnature
g14
tp112
F1
s(g44
S'PDT'
p113
tp114
F1
s(g96
g49
tp115
F14
s(g76
g94
tp116
F1
s(Vitself
S'PRP'
p117
tp118
F1
s(S'JJ'
p119
g56
tp120
F1
s(Vasperity
g14
tp121
F1
s(Vdiscovered
g11
tp122
F1
s(Vwere
S'VBD'
p123
tp124
F1
s(Vvein
g14
tp125
F1
s(Vtransacted
g11
tp126
F1
s(Vthan
S'IN'
p127
tp128
F2
s(g78
S'VBD'
p129
tp130
F1
s(Van
S'DT'
p131
tp132
F1
s(S':'
S'DT'
p133
tp134
F2
s(S'PRP$'
p135
g14
tp136
F3
s(S'NN'
p137
g14
tp138
F2
s(Vroughness
g14
tp139
F1
s(g21
g76
tp140
F2
s(g72
g4
tp141
F1
s(Vmerriment
g14
tp142
F1
s(g4
g127
tp143
F2
s(Vforce
g14
tp144
F1
s(Vspeaks
g53
tp145
F1
s(g14
S'JJ'
p146
tp147
F1
s(Vsubstances
g21
tp148
F1
s(Vtaste
g14
tp149
F1
s(S'RB'
p150
g13
tp151
F3
s(Vvolatile
g146
tp152
F1
s(Vagitates
g53
tp153
F1
s(S'RP'
p154
g53
tp155
F1
s(Vacquaintance
g14
tp156
F1
s(g21
S','
tp157
F4
s(Vmeekness
g14
tp158
F1
s(Vhe
g92
tp159
F2
s(g14
S'.'
tp160
F11
s(S'PRP'
p161
g47
tp162
F1
s(g104
g78
tp163
F1
s(Vanother
S'DT'
p164
tp165
F1
s(g11
g131
tp166
F1
s(Vhumble
g4
tp167
F1
s(Vchat
g21
tp168
F1
s(Vall
g131
tp169
F1
s(S','
g4
tp170
F1
s(Vconversation
g14
tp171
F2
s(Vallaying
g109
tp172
F1
s(Vsustenance
g104
tp173
F1
s(Vsublimed
g11
tp174
F1
s(g9
g100
tp175
F1
s(g14
g13
tp176
F28
s(g14
S','
tp177
F18
s(Vfigure
g4
tp178
F1
s(g76
S'IN'
p179
tp180
F1
s(g133
S'CD'
p181
tp182
F1
s(Va
S'DT'
p183
tp184
F1
s(Vvivacity
g14
tp185
F1
s(Vpride
g14
tp186
F1
s(Vhave
g104
tp187
F2
s(S'VBP'
p188
g11
tp189
F3
s(S':'
g78
tp190
F5
s(Vnauseate
g14
tp191
F1
s(g11
g44
tp192
F1
s(Vquickened
g11
tp193
F1
s(Vplainest
S'JJS'
p194
tp195
F1
s(Vis
g47
tp196
F14
s(Vroused
g11
tp197
F1
s(Vframed
g11
tp198
F1
s(g44
S','
tp199
F1
s(Vthem
S'PRP'
p200
tp201
F1
s(Vgratified
g11
tp202
F1
s(S'RB'
p203
g14
tp204
F4
s(Vproper
g4
tp205
F2
s(g49
S'VBZ'
p206
tp207
F1
s(g4
S','
tp208
F1
s(Vavoided
g129
tp209
F1
s(g39
g129
tp210
F1
s(Vassociated
g11
tp211
F1
s(g188
S'RBS'
p212
tp213
F1
s(g4
g14
tp214
F19
s(Vwater
S'NN'
p215
tp216
F2
s(Vidlenese
g4
tp217
F1
s(g104
g4
tp218
F2
s(Vcopiously
g44
tp219
F1
s(g104
g49
tp220
F6
s(g56
g14
tp221
F1
s(Vnegligence
g14
tp222
F1
s(Voppression
g14
tp223
F1
s(Vcourtesy
g14
tp224
F1
s(Vour
S'PRP$'
p225
tp226
F1
s(Vone
g181
tp227
F2
s(g14
g188
tp228
F2
s(Vemotions
g21
tp229
F1
s(Vviolent
g4
tp230
F1
s(g9
S'VBZ'
p231
tp232
F1
s(Vno
g131
tp233
F1
s(g104
g200
tp234
F1
s(Vprattle
g14
tp235
F1
s(Vnor
S'CC'
p236
tp237
F1
s(S'IN'
p238
g27
tp239
F3
s(Vbecome
g104
tp240
F1
s(Vaddress
g14
tp241
F1
s(g200
S','
tp242
F1
s(Vdue
g4
tp243
F1
s(Vignorance
g14
tp244
F1
s(Vfancy
g14
tp245
F2
s(g104
g179
tp246
F1
s(g11
g56
tp247
F1
s(Vdrank
g4
tp248
F1
s(Vhas
g231
tp249
F2
s(Valways
S'RB'
p250
tp251
F1
s(Vquenching
g109
tp252
F1
s(Vdistort
g104
tp253
F1
s(Vgrowth
S'NN'
p254
tp255
F1
s(g44
g44
tp256
F4
s(Vpunish
g104
tp257
F1
s(g129
g11
tp258
F1
s(g109
S':'
tp259
F1
s(Vsafety
S'NN'
p260
tp261
F1
s(Vcuriosity
g14
tp262
F1
s(Vblood
g14
tp263
F1
s(Vemblem
g14
tp264
F1
s(Vwants
g206
tp265
F1
s(Vworld
S'NN'
p266
tp267
F1
s(g11
S':'
tp268
F1
s(g56
g104
tp269
F6
s(Vmy
g135
tp270
F1
s(g14
g11
tp271
F2
s(Vfiery
g14
tp272
F1
s(Vbe
g70
tp273
F3
s(g146
g78
tp274
F4
s(g188
g44
tp275
F1
s(g14
S':'
tp276
F7
s(Vit
g161
tp277
F1
s(g78
g109
tp278
F1
s(Vseverity
g14
tp279
F1
s(Vits
S'PRP$'
p280
tp281
F1
s(S'JJ'
p282
g21
tp283
F4
s(g92
S'WP$'
p284
tp285
F1
s(Vtalk
g14
tp286
F1
s(g183
g14
tp287
F22
s(Vgenius
g14
tp288
F1
s(Vpungency
g14
tp289
F1
s(g13
g135
tp290
F2
s(Vface
g14
tp291
F1
s(Vspirit
g14
tp292
F1
s(Vless
g19
tp293
F1
s(g181
g14
tp294
F2
s(Vtorture
g104
tp295
F1
s(Vwill
g94
tp296
F5
s(Vintranced
g11
tp297
F1
s(VWater
S'NNP'
p298
tp299
F1
s(g78
g4
tp300
F3
s(Vall
g113
tp301
F3
s(Vin
S'IN'
p302
tp303
F2
s(S'RB'
p304
g76
tp305
F2
s(Vare
g188
tp306
F5
s(g92
g9
tp307
F1
s(Vluscious
g4
tp308
F1
s(Vcontradiction
g14
tp309
F1
s(Vrepresented
g11
tp310
F1
s(g284
g4
tp311
F1
s(Vspritely
g4
tp312
F1
s(g206
g13
tp313
F1
s(Vunmixt
g76
tp314
F1
s(g94
g44
tp315
F3
s(g49
g4
tp316
F11
s(Vdull
g4
tp317
F1
s(g27
g304
tp318
F3
s(Vnecessary
g119
tp319
F1
s(g131
g188
tp320
F1
s(V.
S'.'
tp321
F17
s(g78
g51
tp322
F2
s(Vquenched
g11
tp323
F1
s(Vimpart
g104
tp324
F1
s(Vbitterness
g14
tp325
F1
s(g104
g19
tp326
F1
s(Vwhose
g284
tp327
F1
s(S','
g11
tp328
F1
s(Vthat
g131
tp329
F1
s(Vother
g282
tp330
F2
s(Vpleasing
g109
tp331
F1
s(g9
g181
tp332
F1
s(Vrequired
g11
tp333
F1
s(g47
g4
tp334
F1
s(Vdiction
g14
tp335
F1
s(g104
g225
tp336
F1
s(g11
g78
tp337
F1
s(Vas
g96
tp338
F1
s(Vlooks
g53
tp339
F1
s(g117
S'.'
tp340
F1
s(Vrather
S'RB'
p341
tp342
F1
s(g49
g21
tp343
F3
s(Vcensure
g14
tp344
F2
s(g109
g49
tp345
F1
s(g129
S'.'
tp346
F1
s(Vinnocent
g4
tp347
F1
s(Vexactly
g44
tp348
F1
s(Vof
g13
tp349
F31
s(Vby
g8
tp350
F6
s(Vmitigates
g53
tp351
F1
s(g212
g4
tp352
F1
s(Vhearer
g14
tp353
F1
s(g11
S','
tp354
F7
s(Vsupplied
g11
tp355
F1
s(Vunless
g238
tp356
F1
s(Vmanner
g14
tp357
F1
s(Valone
g44
tp358
F1
s(g11
g9
tp359
F1
s(Vto
g56
tp360
F7
s(g13
g109
tp361
F2
s(g78
g11
tp362
F3
s(S','
g47
tp363
F1
s(g78
g113
tp364
F2
s(g21
g341
tp365
F1
s(S':'
g14
tp366
F1
s(Vdreaded
g11
tp367
F1
s(g49
g194
tp368
F1
s(Vhieroglyphick
g14
tp369
F1
s(Vevery
g133
tp370
F1
s(Vacid
g14
tp371
F1
s(g53
g11
tp372
F8
s(Vcall
g76
tp373
F1
s(Vpoured
g11
tp374
F1
s(g164
S'.'
tp375
F1
s(g76
g56
tp376
F2
s(g104
g21
tp377
F1
s(VThe
S'DT'
p378
tp379
F2
s(g21
g127
tp380
F3
s(g113
g49
tp381
F3
s(Vemployment
S'NN'
p382
tp383
F1
s(Vthey
g27
tp384
F3
s(Vinflame
g104
tp385
F1
s(Vfor
g179
tp386
F2
s(Vacrimony
g14
tp387
F1
s(g123
S'RB'
p388
tp389
F1
s(Vcivility
g14
tp390
F1
s(Vallays
g53
tp391
F1
s(g78
g150
tp392
F2
s(Veither
g86
tp393
F1
s(Vastonished
g11
tp394
F1
s(g194
g14
tp395
F1
s(Vbut
g18
tp396
F4
s(V,
S','
tp397
F33
s(Vjuices
g21
tp398
F1
s(Vthirst
g14
tp399
F1
s(g19
g13
tp400
F2
s(Vfind
g104
tp401
F1
s(Vonly
g4
tp402
F1
s(Veasy
g4
tp403
F2
s(Vdesue
g76
tp404
F1
s(Vadulation
g14
tp405
F1
s(Vmoments
g21
tp406
F1
s(Vsame
S'JJ'
p407
tp408
F1
s(VConversation
g14
tp409
F1
s(g44
g56
tp410
F2
s(g47
g14
tp411
F1
s(Vlusciousness
g14
tp412
F1
s(Vwho
g39
tp413
F2
s(Vif
g25
tp414
F1
s(g14
g9
tp415
F1
s(Vtoo
S'RB'
p416
tp417
F1
s(Vsometimes
g44
tp418
F1
s(VBy
S'IN'
p419
tp420
F1
s(Vtemper
g104
tp421
F1
s(Vmost
g212
tp422
F1
s(Vqualities
g21
tp423
F3
s(Vpalate
g14
tp424
F2
s(g78
g14
tp425
F19
s(Vsoon
g81
tp426
F2
s(Vbusiness
S'NN'
p427
tp428
F1
s(Vout
g154
tp429
F1
s(g11
g154
tp430
F1
s(g86
g49
tp431
F2
s(Vvapid
g4
tp432
F1
s(Vfrigidity
g14
tp433
F1
s(Vwhich
g9
tp434
F4
s(Vartless
g14
tp435
F1
s(g51
g21
tp436
F1
s(Vvery
g44
tp437
F2
s(Vgratifications
g21
tp438
F1
s(Vaffectation
g14
tp439
F1
s(Vthirst
g46
tp440
F1
s(Vtruth
g14
tp441
F2
s(Vreprehension
g14
tp442
F1
s(VBut
g61
tp443
F1
s(Vdetection
g14
tp444
F1
s(Vchief
g4
tp445
F1
s(Vhad
g129
tp446
F1
s(S','
g18
tp447
F16
s(Vinstead
g150
tp448
F1
s(Vuse
g14
tp449
F1
s(Vconvince
g14
tp450
F1
s(Vlanguage
g137
tp451
F1
s(g18
g27
tp452
F3
s(Vrecommend
g104
tp453
F1
s(Vaptly
g44
tp454
F1
s(Vfirst
g4
tp455
F1
s(g53
g44
tp456
F3
s(Vbehaviour
g14
tp457
F1
s(V;
S':'
tp458
F9
s(Vbowl
g14
tp459
F1
s(Vflattery
g14
tp460
F2
s(Vpunch
g14
tp461
F4
s(Vdiscouloured
g11
tp462
F1
s(Vwant
g14
tp463
F1
s(g27
g188
tp464
F3
s(Vthis
S'DT'
p465
tp466
F1
s(Vartificial
g4
tp467
F1
s(g14
g123
tp468
F1
s(g78
g104
tp469
F1
s(g13
g4
tp470
F7
s(S','
g14
tp471
F1
s(g14
g47
tp472
F13
s(Vgentle
g4
tp473
F1
s(Vshrinks
g14
tp474
F1
s(g14
g94
tp475
F5
s(Vcompany
S'NN'
p476
tp477
F1
s(Vthat
g96
tp478
F2
s(Vheat
g14
tp479
F1
s(Vsluggishness
g14
tp480
F1
s(g14
g416
tp481
F1
s(S'IN'
p482
g86
tp483
F1
s(Vnever
g203
tp484
F1
s(Vconstant
g4
tp485
F1
s(Vwithout
g482
tp486
F1
s(Voften
g304
tp487
F1
s(Vsatire
g14
tp488
F1
s(Vunwelcome
g4
tp489
F1
s(Vnot
g388
tp490
F1
s(Vwhile
g96
tp491
F1
s(Vingredient
g14
tp492
F1
s(Vonly
g44
tp493
F4
s(g14
g18
tp494
F13
s(Vinformed
g11
tp495
F1
s(g14
g21
tp496
F1
s(Vtrue
S'JJ'
p497
tp498
F1
s(g298
g47
tp499
F1
s(Vraillery
g14
tp500
F1
s(Vnobody
g14
tp501
F1
s(g9
g46
tp502
F1
s(Vsoftness
g14
tp503
F1
s(Vrepresentative
g14
tp504
F1
s(g51
g72
tp505
F1
s.