ccollections
defaultdict
p1
(c__builtin__
float
p2
tRp3
(VCome
S'NNP'
p4
tp5
F1
s(Vconfirms
S'VBZ'
p6
tp7
F1
s(S'IN'
p8
S'TO'
p9
tp10
F1
s(Vexclaimed
S'VBD'
p11
tp12
F1
s(Valong
S'RB'
p13
tp14
F1
s(g4
S'.'
tp15
F24
s(S'PRP'
p16
S'CC'
p17
tp18
F2
s(Vfather
S'NN'
p19
tp20
F2
s(Vde
g8
tp21
F1
s(VFor
S'IN'
p22
tp23
F1
s(Vprayers
S'NNS'
p24
tp25
F2
s(S'IN'
p26
g19
tp27
F17
s(Vweaver
g19
tp28
F1
s(Vyoung
S'JJ'
p29
tp30
F1
s(S'NN'
p31
S'WRB'
p32
tp33
F1
s(Vman
S'NN'
p34
tp35
F5
s(S'VBG'
p36
g24
tp37
F2
s(VA
S'DT'
p38
tp39
F2
s(g9
S'PRP'
p40
tp41
F1
s(Vlevel
g19
tp42
F1
s(Vfind
S'VBP'
p43
tp44
F1
s(Vya
S'PRP'
p45
tp46
F1
s(VEntering
g36
tp47
F1
s(g24
S'.'
tp48
F8
s(Vsmallest
S'JJS'
p49
tp50
F1
s(g11
g4
tp51
F1
s(Vlike
g8
tp52
F2
s(Vwad
g43
tp53
F1
s(Vneighbourhood
g19
tp54
F1
s(Vcreature
g19
tp55
F1
s(S','
g8
tp56
F8
s(VCovenant
g4
tp57
F1
s(g19
g19
tp58
F6
s(S'WP'
p59
S'MD'
p60
tp61
F2
s(S'RB'
p62
S'.'
tp63
F2
s(S'DT'
p64
g4
tp65
F9
s(S','
g11
tp66
F4
s(Vcompetency
g19
tp67
F1
s(VPedlar
g19
tp68
F1
s(Vprobable
S'JJ'
p69
tp70
F1
s(Vreprehensible
g69
tp71
F1
s(Vcredibility
g19
tp72
F1
s(Vthat
S'WDT'
p73
tp74
F5
s(VP.
g4
tp75
F2
s(Vten
g19
tp76
F1
s(S'PRP'
p77
S'MD'
p78
tp79
F5
s(S','
S'WRB'
p80
tp81
F1
s(S'PRP'
p82
S'VB'
p83
tp84
F9
s(VYe
g4
tp85
F1
s(Vanimal
g19
tp86
F1
s(Vyouke
g19
tp87
F2
s(S"''"
p88
g45
tp89
F2
s(Vcalled
S'VBN'
p90
tp91
F1
s(Vbribes
g19
tp92
F1
s(g69
g9
tp93
F2
s(Vupon
g8
tp94
F2
s(Vkeep
g83
tp95
F1
s(S'VBD'
p96
S'NN'
p97
tp98
F1
s(Vavails
g6
tp99
F1
s(g83
S'.'
tp100
F2
s(Vpetrifying
g69
tp101
F1
s(Vhigher
S'JJR'
p102
tp103
F1
s(Vmentioned
g90
tp104
F1
s(S':'
g4
tp105
F1
s(VHe
S'PRP'
p106
tp107
F4
s(S'EX'
p108
S'VBZ'
p109
tp110
F3
s(Vhurdies
g24
tp111
F1
s(Vtaking
g36
tp112
F1
s(Vwhether
g26
tp113
F2
s(Vthe
g64
tp114
F64
s(Vwith
S'IN'
p115
tp116
F3
s(VI
g77
tp117
F16
s(g4
g36
tp118
F1
s(Vhimself
S'PRP'
p119
tp120
F1
s(g109
S'DT'
p121
tp122
F8
s(Vhigh
g69
tp123
F1
s(VScotland
g4
tp124
F5
s(Vhow
g80
tp125
F2
s(Vtracks
g24
tp126
F1
s(Vago
g13
tp127
F1
s(S'VBZ'
p128
g9
tp129
F2
s(Vor
S'CC'
p130
tp131
F7
s(g36
S'.'
tp132
F1
s(Vhanged
g90
tp133
F1
s(Vobjection
g19
tp134
F1
s(Vmouth
g19
tp135
F1
s(Vran
g11
tp136
F2
s(VSo
g13
tp137
F1
s(Vdialogue
g19
tp138
F1
s(S'VBP'
p139
g19
tp140
F1
s(Vthink
g43
tp141
F2
s(S':'
g73
tp142
F1
s(g90
S'.'
tp143
F5
s(Vwere
S'VBD'
p144
tp145
F3
s(S'VB'
p146
g90
tp147
F7
s(Vinterruption
g19
tp148
F1
s(Vimpartiality
g19
tp149
F1
s(S','
g43
tp150
F1
s(VCHIVALRY
g4
tp151
F1
s(Voperation
S'NN'
p152
tp153
F1
s(Vtorches
g24
tp154
F1
s(g24
g45
tp155
F1
s(g78
S'PRP'
p156
tp157
F2
s(g102
S'IN'
p158
tp159
F2
s(g38
S'MD'
p160
tp161
F1
s(S'RB'
p162
g69
tp163
F6
s(Vtop
g19
tp164
F1
s(g32
g88
tp165
F1
s(g19
g73
tp166
F3
s(Vmore
g102
tp167
F2
s(Vlike
g69
tp168
F1
s(Vand
S'CC'
p169
tp170
F25
s(g130
g64
tp171
F11
s(Vindignation
g19
tp172
F1
s(g90
S'IN'
p173
tp174
F14
s(g162
g90
tp175
F3
s(Vcan
g60
tp176
F2
s(g17
g77
tp177
F2
s(VMODERN
g69
tp178
F1
s(Vdoubt
g19
tp179
F1
s(VSix
S'CD'
p180
tp181
F1
s(Vde'el
g19
tp182
F1
s(Vgauger
g19
tp183
F2
s(VReeky
g4
tp184
F1
s(g78
g83
tp185
F8
s(Ve'er
g83
tp186
F1
s(Vkind
S'NN'
p187
tp188
F1
s(g36
g19
tp189
F1
s(Von
S'IN'
p190
tp191
F3
s(VCorpus
g4
tp192
F1
s(Vdoes
g128
tp193
F2
s(Vmode
g19
tp194
F1
s(g80
S'JJ'
p195
tp196
F1
s(S'IN'
p197
g64
tp198
F37
s(Vprinciple
g19
tp199
F1
s(VWi
g4
tp200
F1
s(S'RP'
p201
g64
tp202
F1
s(Vobject
g19
tp203
F1
s(VHabeas
g4
tp204
F1
s(Vnothing
S'NN'
p205
tp206
F1
s(Vwould
g160
tp207
F3
s(Voffice
S'NN'
p208
tp209
F2
s(Vdirected
g11
tp210
F1
s(g13
g36
tp211
F1
s(Vpatriots
g24
tp212
F1
s(Vparticularly
S'RB'
p213
tp214
F1
s(S'POS'
p215
g4
tp216
F1
s(g11
g197
tp217
F4
s(Veven
g13
tp218
F1
s(VSpeak
g19
tp219
F1
s(g4
S'PRP$'
p220
tp221
F1
s(Vtalk
g83
tp222
F2
s(Vopen
g69
tp223
F1
s(Vdis
g69
tp224
F1
s(Vthan
g158
tp225
F3
s(g169
g11
tp226
F9
s(Vover
g8
tp227
F1
s(Vtravellers
g24
tp228
F1
s(Van
g38
tp229
F1
s(Vken
g83
tp230
F1
s(S':'
g121
tp231
F2
s(S'PRP$'
p232
g19
tp233
F15
s(Vmatter
g19
tp234
F1
s(g13
S':'
tp235
F2
s(S':'
g77
tp236
F2
s(Vjudiciary
g19
tp237
F1
s(Vmuckle
g69
tp238
F1
s(g4
g45
tp239
F1
s(Vhonour
g19
tp240
F1
s(S'FW'
p241
g4
tp242
F2
s(g24
g43
tp243
F5
s(Vmemoir
g19
tp244
F1
s(g4
g19
tp245
F3
s(g69
g197
tp246
F5
s(Vforce
g19
tp247
F1
s(Vgot
g90
tp248
F1
s(g215
g19
tp249
F2
s(Vreaders
g24
tp250
F1
s(Vguager
g19
tp251
F1
s(Vwitch
g19
tp252
F1
s(g11
g9
tp253
F3
s(VGuid
g4
tp254
F2
s(VHaving
g36
tp255
F1
s(Vequal
g69
tp256
F1
s(g162
g8
tp257
F4
s(Vi
g83
tp258
F1
s(g43
g88
tp259
F2
s(g8
g173
tp260
F4
s(VO
g19
tp261
F1
s(S','
g241
tp262
F1
s(Vthink
g83
tp263
F1
s(Vae
g13
tp264
F1
s(g24
S','
tp265
F7
s(g82
g9
tp266
F3
s(Ventered
g90
tp267
F1
s(Vhe
g16
tp268
F8
s(g19
S'.'
tp269
F54
s(g90
g69
tp270
F1
s(Vleave
g19
tp271
F1
s(VTEAGUE
g4
tp272
F1
s(g90
g121
tp273
F2
s(VTHE
g4
tp274
F1
s(g220
g69
tp275
F1
s(Vye
g24
tp276
F1
s(g32
g78
tp277
F1
s(Vintegrity
g19
tp278
F1
s(Vall
g38
tp279
F2
s(S','
g69
tp280
F1
s(Vthing
S'NN'
p281
tp282
F1
s(VWell
g13
tp283
F1
s(Vacquainted
g90
tp284
F1
s(Vrode
g90
tp285
F1
s(Vreturned
g11
tp286
F1
s(g73
g78
tp287
F1
s(Vdismissed
g90
tp288
F1
s(VScotchman
g4
tp289
F1
s(VOak
g4
tp290
F1
s(g19
g115
tp291
F33
s(Vna
g9
tp292
F1
s(g19
S','
tp293
F22
s(Vwi
g32
tp294
F1
s(g43
g8
tp295
F3
s(VIreland
g4
tp296
F1
s(Vled
g11
tp297
F1
s(Vread
g90
tp298
F1
s(Va
S'DT'
p299
tp300
F19
s(Vbook
g31
tp301
F1
s(Vweel
g19
tp302
F1
s(Vacknowledge
g43
tp303
F1
s(Vplay
g19
tp304
F1
s(Vexamined
g90
tp305
F1
s(g43
S'VBN'
p306
tp307
F1
s(S':'
g17
tp308
F5
s(VPatch
g4
tp309
F1
s(Vchurch
g19
tp310
F1
s(g180
S'.'
tp311
F3
s(S'``'
p312
S'DT'
p313
tp314
F1
s(g83
g19
tp315
F4
s(g144
g299
tp316
F6
s(Vgreat
S'JJ'
p317
tp318
F1
s(VReflections
g24
tp319
F2
s(Vmany
g195
tp320
F2
s(Vhim
g82
tp321
F8
s(Vis
g109
tp322
F20
s(Vnumber
S'NN'
p323
tp324
F1
s(VHIS
g4
tp325
F1
s(Vlower
g102
tp326
F1
s(Vmean
g43
tp327
F1
s(S','
g108
tp328
F2
s(S'EX'
p329
g139
tp330
F1
s(VDo
g83
tp331
F2
s(Vencounter
g83
tp332
F1
s(S'VBN'
p333
g90
tp334
F4
s(g13
S','
tp335
F4
s(Vkeepers
g24
tp336
F1
s(Vbairn
g19
tp337
F2
s(Vthem
g40
tp338
F5
s(Vat
S'IN'
p339
tp340
F5
s(Vye
g6
tp341
F1
s(Vconduct
g83
tp342
F1
s(Vaffronted
g90
tp343
F1
s(g6
g102
tp344
F1
s(g43
g83
tp345
F1
s(g13
S'NN'
p346
tp347
F1
s(Vwithout
S'IN'
p348
tp349
F1
s(Vlight
g19
tp350
F1
s(V'
g88
tp351
F9
s(g38
g128
tp352
F2
s(Vye
g83
tp353
F2
s(Vme
S'PRP'
p354
tp355
F3
s(g69
S','
tp356
F3
s(VHearts
g4
tp357
F1
s(VDe
g4
tp358
F1
s(VIV
g4
tp359
F3
s(Vbeen
g333
tp360
F4
s(g45
S','
tp361
F6
s(g4
S':'
tp362
F2
s(Vmoon
g19
tp363
F1
s(Vdeel
g19
tp364
F1
s(Vtaken
S'VBN'
p365
tp366
F1
s(VHow
g32
tp367
F1
s(g69
g19
tp368
F16
s(Voccupied
g90
tp369
F1
s(Vhere
g62
tp370
F3
s(VO'REGAN
g4
tp371
F1
s(VOn
S'IN'
p372
tp373
F1
s(VLet
g83
tp374
F2
s(Vfavour
g19
tp375
F1
s(g83
g69
tp376
F3
s(Veat
g83
tp377
F1
s(Vcould
g78
tp378
F3
s(Vlet
g83
tp379
F1
s(Vofficer
S'NN'
p380
tp381
F2
s(Vagain
S'RB'
p382
tp383
F2
s(g146
g64
tp384
F8
s(V's
g215
tp385
F1
s(Vkirk
g19
tp386
F1
s(Vfortune
g19
tp387
F1
s(g215
g80
tp388
F1
s(Vmade
g90
tp389
F1
s(VNiel
g4
tp390
F1
s(Vguid
g19
tp391
F1
s(Vemerging
g36
tp392
F1
s(VWhite
S'NNP'
p393
tp394
F1
s(Vour
S'PRP$'
p395
tp396
F1
s(Vbetter
g102
tp397
F1
s(Vcave
g19
tp398
F2
s(VLeague
g4
tp399
F1
s(g162
g64
tp400
F4
s(g73
g6
tp401
F2
s(Vno
g38
tp402
F4
s(g83
g82
tp403
F11
s(g19
g195
tp404
F2
s(VRyburn
g4
tp405
F1
s(Vnor
S'CC'
p406
tp407
F1
s(Vgae
g83
tp408
F1
s(S','
g9
tp409
F1
s(g73
g11
tp410
F2
s(g197
g45
tp411
F13
s(g32
g109
tp412
F1
s(V1
S'CD'
p413
tp414
F2
s(Vevidence
S'NN'
p415
tp416
F1
s(S'WP'
p417
g11
tp418
F2
s(Vget
g83
tp419
F1
s(Vdue
g69
tp420
F1
s(S'NNP'
p421
g108
tp422
F1
s(Vkitchen
g19
tp423
F2
s(V:
S':'
tp424
F2
s(Vpart
S'NN'
p425
tp426
F1
s(g90
g9
tp427
F2
s(Vcanna
g43
tp428
F1
s(g354
S'IN'
p429
tp430
F2
s(g19
g4
tp431
F2
s(S'CD'
p432
g4
tp433
F3
s(g83
S'IN'
p434
tp435
F6
s(g80
g38
tp436
F1
s(Vthere
g108
tp437
F4
s(g13
S'RB'
p438
tp439
F1
s(g4
g4
tp440
F16
s(Vhas
S'VBZ'
p441
tp442
F3
s(Vhell
g19
tp443
F1
s(Vget
g43
tp444
F1
s(Vhae
g19
tp445
F1
s(g130
g9
tp446
F1
s(VCaptain
g4
tp447
F7
s(g11
g69
tp448
F1
s(Vpetrefactions
g24
tp449
F1
s(g197
g4
tp450
F12
s(Vremain
g83
tp451
F1
s(Vworks
g24
tp452
F1
s(g11
g90
tp453
F14
s(Vvault
g19
tp454
F1
s(Vfrom
S'IN'
p455
tp456
F2
s(Vfeet
S'NNS'
p457
tp458
F1
s(Vwild
g69
tp459
F1
s(Vnight
g346
tp460
F2
s(VContaining
g36
tp461
F2
s(Vbreed
g19
tp462
F1
s(VCONTAINING
g19
tp463
F1
s(g4
g11
tp464
F6
s(Vright
g19
tp465
F3
s(g90
S':'
tp466
F1
s(g9
g146
tp467
F21
s(Vmy
S'PRP$'
p468
tp469
F3
s(Vmean
g69
tp470
F1
s(Vken
g43
tp471
F1
s(g19
S'VBN'
p472
tp473
F1
s(VOF
g4
tp474
F1
s(g9
g64
tp475
F11
s(g180
S'NNS'
p476
tp477
F1
s(VPhiladelphia
S'NNP'
p478
tp479
F1
s(g11
g232
tp480
F2
s(Vbe
g146
tp481
F10
s(g24
g9
tp482
F3
s(g130
g241
tp483
F1
s(Vvote
g19
tp484
F1
s(g24
g69
tp485
F1
s(VDeevils
g4
tp486
F1
s(Vheard
g13
tp487
F1
s(S'VBP'
p488
g162
tp489
F3
s(g19
S':'
tp490
F4
s(g109
g16
tp491
F3
s(g121
S','
tp492
F5
s(Vany
S'DT'
p493
tp494
F2
s(Vit
g45
tp495
F11
s(g169
g36
tp496
F1
s(g102
g213
tp497
F1
s(V4
g432
tp498
F1
s(VVOLUME
g4
tp499
F1
s(g180
S':'
tp500
F1
s(VRegaining
g36
tp501
F1
s(g45
g299
tp502
F1
s(Vabout
g8
tp503
F3
s(Vbecome
g90
tp504
F1
s(g9
g417
tp505
F1
s(VOur
S'PRP$'
p506
tp507
F1
s(g69
g24
tp508
F6
s(g64
g102
tp509
F2
s(g77
g488
tp510
F12
s(Vwhat
g417
tp511
F4
s(g64
g19
tp512
F82
s(Vtree
g19
tp513
F1
s(g173
g468
tp514
F9
s(Vwi
g19
tp515
F1
s(Vheart
S'NN'
p516
tp517
F1
s(Vsuspicion
g19
tp518
F1
s(Vdegradation
g19
tp519
F1
s(Vharangue
g19
tp520
F1
s(Vjury
S'NN'
p521
tp522
F1
s(S'PRP'
p523
g441
tp524
F11
s(g43
g64
tp525
F1
s(Vappearing
g36
tp526
F1
s(VModern
g69
tp527
F1
s(g329
S'VBG'
p528
tp529
F1
s(Vdinna
g19
tp530
F1
s(Vappears
S'VBZ'
p531
tp532
F1
s(Vinequalities
g24
tp533
F1
s(Vimpeach
g83
tp534
F1
s(g19
g9
tp535
F13
s(g43
g43
tp536
F1
s(VWhat
g59
tp537
F4
s(Vthrough
g8
tp538
F1
s(Varts
g24
tp539
F1
s(g4
g43
tp540
F1
s(Vgoing
S'VBG'
p541
tp542
F1
s(Vin
g173
tp543
F20
s(Vhours
g476
tp544
F1
s(Veffect
S'NN'
p545
tp546
F1
s(Vturkey
g19
tp547
F1
s(Vauthority
g19
tp548
F2
s(V``
g312
tp549
F1
s(Vare
g139
tp550
F3
s(Vclean
g83
tp551
F1
s(Vobliged
g90
tp552
F1
s(g73
S'PRP'
p553
tp554
F1
s(Vtowards
g8
tp555
F1
s(Vkick
g83
tp556
F1
s(Vtheir
S'PRP$'
p557
tp558
F2
s(g83
S','
tp559
F3
s(Vafternoon
S'NN'
p560
tp561
F1
s(Vgrade
g19
tp562
F1
s(g109
g17
tp563
F1
s(g8
S','
tp564
F4
s(g6
g429
tp565
F5
s(Vhave
g83
tp566
F3
s(Vabove
g8
tp567
F1
s(VNo
g38
tp568
F1
s(Vregarded
g90
tp569
F1
s(g64
g69
tp570
F10
s(S'JJ'
p571
S'.'
tp572
F4
s(g90
g19
tp573
F1
s(Vtook
S'VBD'
p574
tp575
F1
s(Vfind
g83
tp576
F1
s(V.
S'.'
tp577
F87
s(Vhundred
g69
tp578
F1
s(Vbeing
g528
tp579
F1
s(S','
g13
tp580
F2
s(VWhere
g32
tp581
F1
s(g19
g88
tp582
F5
s(g130
g197
tp583
F5
s(Vproper
g69
tp584
F1
s(Vpoint
g19
tp585
F2
s(VXCVII
g4
tp586
F1
s(g146
g102
tp587
F1
s(Vtail
g19
tp588
F1
s(g8
S'.'
tp589
F1
s(Vtalked
g11
tp590
F1
s(VAh
g19
tp591
F1
s(g83
g201
tp592
F1
s(Vtrow
g43
tp593
F1
s(Vcut
g83
tp594
F1
s(S'CC'
p595
g417
tp596
F1
s(Vthat
g38
tp597
F6
s(Vo
g43
tp598
F2
s(Vwife
S'NN'
p599
tp600
F1
s(VKnox
g4
tp601
F1
s(VDinna
g4
tp602
F2
s(VDoes
g6
tp603
F1
s(Vother
g571
tp604
F1
s(Vcommittee
S'NN'
p605
tp606
F1
s(g109
g69
tp607
F3
s(Vlong
g69
tp608
F1
s(Vcontinent
g19
tp609
F1
s(Vbreath
g19
tp610
F1
s(Vaccordingly
g13
tp611
F1
s(g220
g24
tp612
F3
s(Vhence
g19
tp613
F1
s(g11
S','
tp614
F3
s(g64
S'NNPS'
p615
tp616
F1
s(g6
g6
tp617
F1
s(Vproduce
g83
tp618
F1
s(Vquit
g19
tp619
F1
s(Vdinna
g43
tp620
F1
s(Velected
g90
tp621
F1
s(Vobnoxious
g69
tp622
F1
s(Vas
g8
tp623
F4
s(Vreferring
g36
tp624
F1
s(g82
S'.'
tp625
F13
s(VHenry
g4
tp626
F1
s(Vchanging
g36
tp627
F1
s(Vdown
g201
tp628
F1
s(g64
g24
tp629
F6
s(g36
g64
tp630
F5
s(g36
S'IN'
p631
tp632
F2
s(g83
g220
tp633
F3
s(S','
g77
tp634
F2
s(Vthought
g11
tp635
F1
s(S'RB'
p636
g11
tp637
F1
s(VSeceders
g615
tp638
F1
s(VDCC
g4
tp639
F1
s(Vattainable
g69
tp640
F1
s(Vbank
S'NN'
p641
tp642
F2
s(Vday
S'NN'
p643
tp644
F1
s(g83
g88
tp645
F1
s(Vyou
g156
tp646
F5
s(Vineffectual
g69
tp647
F1
s(g77
g69
tp648
F1
s(VSERVANT
g4
tp649
F1
s(Vof
g197
tp650
F32
s(Vby
g429
tp651
F4
s(Vcourt
S'NN'
p652
tp653
F1
s(VHawk
g4
tp654
F1
s(Vkintra
g19
tp655
F2
s(Vauld
g69
tp656
F1
s(Vfaid
g11
tp657
F1
s(Vgave
g96
tp658
F1
s(Vdeliver
g83
tp659
F2
s(Vcare
g19
tp660
F1
s(g90
S','
tp661
F2
s(Vgreatly
g13
tp662
F1
s(Voak
g19
tp663
F1
s(Vfir
g19
tp664
F1
s(g83
g13
tp665
F4
s(Vplay
g83
tp666
F1
s(Vnational
S'JJ'
p667
tp668
F1
s(Vto
g9
tp669
F36
s(g197
g36
tp670
F5
s(Vquoth
g241
tp671
F1
s(g130
g365
tp672
F1
s(Vmuckle
g19
tp673
F1
s(g615
S','
tp674
F1
s(S','
g109
tp675
F4
s(g24
g13
tp676
F1
s(S':'
g19
tp677
F1
s(Vaccompanying
g36
tp678
F1
s(g406
g43
tp679
F2
s(Ventrance
g19
tp680
F1
s(Vappointed
g90
tp681
F1
s(S','
g73
tp682
F1
s(g64
g49
tp683
F1
s(Vlairds
g24
tp684
F1
s(Vevery
S'DT'
p685
tp686
F1
s(g108
g11
tp687
F1
s(VBlack
g4
tp688
F1
s(Vlight
g69
tp689
F1
s(VFrance
g421
tp690
F1
s(Vtimes
g24
tp691
F1
s(g11
g24
tp692
F1
s(Vdevil
g19
tp693
F2
s(g169
g24
tp694
F1
s(Vhinder
g83
tp695
F1
s(Vmake
g83
tp696
F1
s(g38
S'.'
tp697
F1
s(S','
g417
tp698
F2
s(VO'Regan
g4
tp699
F1
s(VThe
g313
tp700
F8
s(g24
g8
tp701
F5
s(Vhollow
g69
tp702
F1
s(Vlarge
S'JJ'
p703
tp704
F1
s(Vmight
S'MD'
p705
tp706
F1
s(Vgo
g83
tp707
F1
s(Vstarted
g11
tp708
F1
s(Velect
g83
tp709
F1
s(Vcountry
S'NN'
p710
tp711
F1
s(Vthey
g553
tp712
F6
s(Valighted
g90
tp713
F1
s(g77
g11
tp714
F14
s(Varmy
g19
tp715
F2
s(Vcompetition
S'NN'
p716
tp717
F1
s(Vtime
S'NN'
p718
tp719
F2
s(Vrebellion
g19
tp720
F1
s(g19
g83
tp721
F2
s(Vfor
g434
tp722
F6
s(Vdid
S'VBD'
p723
tp724
F2
s(Vhell
g83
tp725
F1
s(g723
g162
tp726
F6
s(g13
g9
tp727
F3
s(Vup
g13
tp728
F1
s(VC.
S'NNP'
p729
tp730
F2
s(g169
g108
tp731
F1
s(Vgovernment
S'NN'
p732
tp733
F2
s(g43
S','
tp734
F1
s(g43
S'PRP$'
p735
tp736
F1
s(g88
g64
tp737
F4
s(g32
g553
tp738
F1
s(Vcompleat
g83
tp739
F1
s(g43
g77
tp740
F6
s(g88
g19
tp741
F1
s(Vauthorities
S'NNS'
p742
tp743
F2
s(Vthanked
g11
tp744
F1
s(Vtake
g83
tp745
F1
s(g49
g716
tp746
F1
s(Vfair
g69
tp747
F1
s(g4
g215
tp748
F1
s(Vbut
g17
tp749
F6
s(g83
g9
tp750
F1
s(Vdoing
S'VBG'
p751
tp752
F1
s(g130
g109
tp753
F1
s(V,
S','
tp754
F73
s(g729
g180
tp755
F2
s(g13
g83
tp756
F2
s(Vdignity
g19
tp757
F2
s(g43
g69
tp758
F3
s(g4
g73
tp759
F1
s(Vwords
S'NNS'
p760
tp761
F1
s(Vvillage
g19
tp762
F1
s(VBabylon
g4
tp763
F1
s(V?
S'.'
tp764
F15
s(Vtell
g43
tp765
F1
s(S','
g36
tp766
F1
s(VHonour
g180
tp767
F1
s(Vgentleman
g19
tp768
F1
s(V'
g215
tp769
F3
s(VADVENTURES
g4
tp770
F1
s(Vleft
g11
tp771
F3
s(g438
g102
tp772
F1
s(Vhands
g24
tp773
F2
s(Vreflections
g24
tp774
F1
s(g109
g205
tp775
F1
s(Vcaptain
g43
tp776
F1
s(VDid
g4
tp777
F2
s(Vo
g19
tp778
F6
s(Vwho
g417
tp779
F1
s(Vwicked
g69
tp780
F1
s(g417
g16
tp781
F2
s(g9
g19
tp782
F1
s(g162
g24
tp783
F1
s(g36
g232
tp784
F1
s(Vneibours
g24
tp785
F1
s(Vcounfeller
g69
tp786
F1
s(VKeep
g83
tp787
F1
s(Vguide
g43
tp788
F1
s(Voverruled
g90
tp789
F1
s(VM
g4
tp790
F1
s(S':'
g36
tp791
F1
s(g4
g173
tp792
F3
s(Vus
S'PRP'
p793
tp794
F4
s(Vtavern
g19
tp795
F1
s(Vwas
g11
tp796
F12
s(Vwhile
g8
tp797
F1
s(Vhis
g232
tp798
F6
s(Vapproved
g11
tp799
F1
s(Vthen
S'RB'
p800
tp801
F1
s(Vafraid
g69
tp802
F1
s(Vlook
g19
tp803
F1
s(Vhelp
g19
tp804
F1
s(Vrevenue
S'NN'
p805
tp806
F1
s(g102
g425
tp807
F2
s(Vjoined
g11
tp808
F1
s(Vread
g11
tp809
F1
s(Vinto
g631
tp810
F1
s(g169
g19
tp811
F2
s(VChivalry
g4
tp812
F1
s(g541
g9
tp813
F1
s(VThis
S'DT'
p814
tp815
F2
s(Vdukes
g24
tp816
F1
s(Vboots
g24
tp817
F1
s(VFarrago
g4
tp818
F1
s(Vpower
S'NN'
p819
tp820
F1
s(Vdelicate
g69
tp821
F1
s(Vlay
g83
tp822
F1
s(g6
g43
tp823
F1
s(VUnder
S'IN'
p824
tp825
F1
s(Vquality
g19
tp826
F1
s(Vquoth
g38
tp827
F1
s(VDuncan
g4
tp828
F5
s(g19
g215
tp829
F3
s(VJohn
S'NNP'
p830
tp831
F2
s(g11
g417
tp832
F1
s(Vwhich
g73
tp833
F1
s(g434
g24
tp834
F5
s(Vfar
g438
tp835
F2
s(V235
g180
tp836
F1
s(Vexpect
g83
tp837
F1
s(Vyour
g220
tp838
F5
s(Vbefore
g8
tp839
F1
s(Vtrap
g19
tp840
F1
s(VBut
g595
tp841
F3
s(Vhungry
g69
tp842
F1
s(g9
g232
tp843
F1
s(Vgood
g69
tp844
F1
s(VLord
g4
tp845
F1
s(Vdenies
g6
tp846
F1
s(Vhad
g11
tp847
F8
s(Vam
g488
tp848
F1
s(Vdeductions
g24
tp849
F1
s(S','
g169
tp850
F28
s(Vna
g69
tp851
F1
s(VHal
g4
tp852
F1
s(S','
g4
tp853
F8
s(Vadvancement
g19
tp854
F1
s(S','
g64
tp855
F5
s(g69
g493
tp856
F1
s(g36
g82
tp857
F2
s(VThere
g329
tp858
F2
s(Vfound
g83
tp859
F1
s(g441
g162
tp860
F6
s(Vwater
S'NN'
p861
tp862
F1
s(V;
S':'
tp863
F11
s(Vmaking
g36
tp864
F1
s(g45
S':'
tp865
F1
s(VPolicy
g19
tp866
F1
s(Vadministration
S'NN'
p867
tp868
F1
s(g9
g413
tp869
F1
s(g36
g90
tp870
F1
s(Vher
g735
tp871
F1
s(Vgie
g43
tp872
F1
s(Vcuff
g19
tp873
F1
s(Vmuch
g69
tp874
F1
s(g83
g83
tp875
F1
s(Vvictuals
g24
tp876
F1
s(g69
g4
tp877
F5
s(Vthis
g121
tp878
F10
s(Vwhore
g19
tp879
F1
s(VJuvenal
g4
tp880
F1
s(Venough
g13
tp881
F1
s(g380
g11
tp882
F7
s(g169
g83
tp883
F3
s(Vexperiment
g19
tp884
F1
s(Vgone
g472
tp885
F1
s(g429
g69
tp886
F4
s(Vbegin
g83
tp887
F1
s(Vdeer
g19
tp888
F1
s(S','
g34
tp889
F1
s(g19
g531
tp890
F3
s(Vas
g13
tp891
F2
s(Vout
g8
tp892
F1
s(g4
g83
tp893
F4
s(V94
g180
tp894
F1
s(VHere
S'RB'
p895
tp896
F1
s(Vtoward
S'IN'
p897
tp898
F1
s(Vlay
g11
tp899
F1
s(V!
S'.'
tp900
F16
s(Vopinion
S'NN'
p901
tp902
F1
s(Vthat
g8
tp903
F7
s(g38
g17
tp904
F1
s(Vjokeing
g36
tp905
F1
s(VAND
g4
tp906
F1
s(g19
g13
tp907
F6
s(Vexcellency
g19
tp908
F1
s(Vrock
g19
tp909
F1
s(g59
g109
tp910
F2
s(g88
g830
tp911
F2
s(VRome
g4
tp912
F1
s(Vmeat
g19
tp913
F1
s(Vna
g13
tp914
F1
s(Vnever
S'RB'
p915
tp916
F1
s(VBoys
g4
tp917
F1
s(Vhave
g43
tp918
F3
s(Vremanded
g11
tp919
F1
s(Vgie
g19
tp920
F1
s(Vae
g69
tp921
F1
s(Vway
g97
tp922
F3
s(Vready
g69
tp923
F1
s(Vambition
g19
tp924
F1
s(g59
S','
tp925
F1
s(Vchild
g19
tp926
F2
s(Vye
g45
tp927
F1
s(Voftentimes
g6
tp928
F1
s(VVOL
g4
tp929
F1
s(Vye
g69
tp930
F1
s(g354
g32
tp931
F1
s(Vhome
g19
tp932
F1
s(Vplace
g19
tp933
F1
s(Vcall
g83
tp934
F1
s(Vnot
g162
tp935
F8
s(Vwell
g13
tp936
F1
s(Vcustody
g19
tp937
F1
s(Vdone
g306
tp938
F1
s(Vonly
g13
tp939
F1
s(g121
S':'
tp940
F2
s(g19
g169
tp941
F1
s(Vde
g241
tp942
F1
s(g19
g24
tp943
F1
s(Vfound
g90
tp944
F2
s(Vwill
S'MD'
p945
tp946
F1
s(g4
S','
tp947
F11
s(g19
g82
tp948
F2
s(g4
g109
tp949
F1
s(VIt
g523
tp950
F8
s(g11
g82
tp951
F3
s(Vhangman
g19
tp952
F1
s(Vcut
g90
tp953
F1
s(V511
g180
tp954
F1
s(Vlang
g19
tp955
F1
s(Vname
g19
tp956
F1
s(Vwhen
g32
tp957
F1
s(Vwait
g83
tp958
F1
s(Vcome
g90
tp959
F2
s(Vprobably
g636
tp960
F1
s.