ccollections
defaultdict
p1
(c__builtin__
float
p2
tRp3
(Vquit
S'VB'
p4
tp5
F1
s(S'PRP'
p6
S'PRP'
p7
tp8
F1
s(S'IN'
p9
S'TO'
p10
tp11
F1
s(VBY
S'NNP'
p12
tp13
F1
s(g12
S'.'
tp14
F24
s(VLouisa
g12
tp15
F1
s(S'IN'
p16
S'NN'
p17
tp18
F6
s(Vlovely
S'RB'
p19
tp20
F1
s(g17
S'WRB'
p21
tp22
F1
s(Vframes
S'NNS'
p23
tp24
F1
s(S'PRP$'
p25
g12
tp26
F2
s(Vparty
S'NN'
p27
tp28
F1
s(g23
S'.'
tp29
F3
s(VYour
S'PRP$'
p30
tp31
F1
s(S'VBD'
p32
g12
tp33
F1
s(S'DT'
p34
g32
tp35
F2
s(Vtell
g4
tp36
F1
s(S'VBN'
p37
S'PRP'
p38
tp39
F2
s(Valready
S'RB'
p40
tp41
F1
s(g17
g17
tp42
F1
s(VMELFONT
g12
tp43
F1
s(S'WP'
p44
S'MD'
p45
tp46
F1
s(g19
S'.'
tp47
F2
s(S'DT'
p48
g12
tp49
F1
s(VOh
S'UH'
p50
tp51
F18
s(S'PRP'
p52
g45
tp53
F2
s(S','
S'WRB'
p54
tp55
F1
s(g6
g4
tp56
F3
s(Vapartment
g17
tp57
F1
s(S'CD'
p58
S'VBG'
p59
tp60
F1
s(VHARRISON
g12
tp61
F1
s(S'MD'
p62
g62
tp63
F1
s(Vthought
g17
tp64
F1
s(g32
g17
tp65
F1
s(Vfrom
S'IN'
p66
tp67
F1
s(S':'
g12
tp68
F1
s(VAgnes
g12
tp69
F1
s(Vthe
g48
tp70
F16
s(Vwith
S'IN'
p71
tp72
F3
s(VI
g7
tp73
F9
s(S'NNS'
p74
S'PRP'
p75
tp76
F2
s(VSMITH
g12
tp77
F1
s(VCAMPBELL
g12
tp78
F1
s(S'RB'
p79
g30
tp80
F1
s(Vor
S'CC'
p81
tp82
F1
s(S'WDT'
p83
g40
tp84
F1
s(g4
g12
tp85
F3
s(Vperhaps
S'RB'
p86
tp87
F1
s(S'VBP'
p88
g10
tp89
F1
s(g32
g9
tp90
F5
s(Vmore
S'RBR'
p91
tp92
F1
s(S','
g88
tp93
F1
s(S'IN'
p94
g21
tp95
F1
s(g62
g6
tp96
F1
s(S'RB'
p97
S'VB'
p98
tp99
F4
s(Vtold
g32
tp100
F1
s(g79
S'JJ'
p101
tp102
F3
s(g101
S'VBP'
p103
tp104
F1
s(V''
S"''"
p105
tp106
F5
s(Vand
S'CC'
p107
tp108
F9
s(S'CC'
p109
g34
tp110
F3
s(Vgently
g19
tp111
F1
s(Vactions
S'NNS'
p112
tp113
F1
s(g37
g16
tp114
F1
s(V-
S':'
tp115
F1
s(Vcan
S'MD'
p116
tp117
F1
s(Vunfortunate
g101
tp118
F1
s(S','
g34
tp119
F1
s(g21
g12
tp120
F1
s(Vmake
g4
tp121
F1
s(g44
S'VBZ'
p122
tp123
F1
s(g62
g98
tp124
F2
s(Vlove
g17
tp125
F1
s(Vwhen
g21
tp126
F2
s(g54
g101
tp127
F2
s(g66
g34
tp128
F8
s(g101
g62
tp129
F1
s(Vjoys
g17
tp130
F1
s(g101
g7
tp131
F2
s(VON
g12
tp132
F1
s(Vreturn
g88
tp133
F1
s(VMentoria
g12
tp134
F1
s(VVOLUMES
g12
tp135
F1
s(S'JJ'
p136
g10
tp137
F1
s(VLord
g12
tp138
F3
s(VAdieu
g12
tp139
F4
s(VDo
g88
tp140
F1
s(VAnna
g12
tp141
F1
s(Vcried
g37
tp142
F1
s(Vletter
S'NN'
p143
tp144
F1
s(g12
g10
tp145
F1
s(S'POS'
p146
g12
tp147
F1
s(Vaffluence
g17
tp148
F1
s(g12
g107
tp149
F2
s(VGood
g101
tp150
F1
s(VMENTORIA
g12
tp151
F4
s(g101
g58
tp152
F1
s(Vover
g9
tp153
F1
s(V'd
g62
tp154
F1
s(Vhinges
g23
tp155
F1
s(Van
S'DT'
p156
tp157
F1
s(S':'
g94
tp158
F1
s(g25
g17
tp159
F12
s(Vbride
g17
tp160
F1
s(g19
S':'
tp161
F2
s(VAlas
g156
tp162
F1
s(Vfound
g32
tp163
F1
s(VPRINTED
g12
tp164
F1
s(g71
g58
tp165
F1
s(VHeavens
g23
tp166
F1
s(Vbreaks
g23
tp167
F1
s(Vwork
g17
tp168
F1
s(g12
g17
tp169
F1
s(Voh
g50
tp170
F1
s(g101
g16
tp171
F1
s(Voblige
g4
tp172
F1
s(Vpocket
g17
tp173
F1
s(Vchear
g88
tp174
F1
s(VNor
g12
tp175
F1
s(Veagerly
g19
tp176
F1
s(Vequal
g101
tp177
F1
s(Vfeelings
g23
tp178
F1
s(Vemploys
S'VBZ'
p179
tp180
F1
s(S'PRP'
p181
S'DT'
p182
tp183
F1
s(VPART
g17
tp184
F2
s(g9
S'IN'
p185
tp186
F2
s(Vthink
g4
tp187
F1
s(g23
S','
tp188
F6
s(S'PRP'
p189
g10
tp190
F1
s(Venter
g17
tp191
F1
s(Vhe
g38
tp192
F2
s(g17
S'.'
tp193
F16
s(VEND
g17
tp194
F1
s(Vglides
g23
tp195
F1
s(S'VBN'
p196
g48
tp197
F2
s(VTHE
g12
tp198
F1
s(S'PRP$'
p199
g101
tp200
F2
s(Vforced
g32
tp201
F1
s(g156
g91
tp202
F1
s(Vweighed
g32
tp203
F1
s(Vall
g156
tp204
F2
s(S','
g101
tp205
F3
s(Vreturned
g32
tp206
F1
s(Vperformance
S'NN'
p207
tp208
F1
s(Vnovitiate
g17
tp209
F1
s(g207
g185
tp210
F8
s(Voverpowers
g23
tp211
F1
s(g17
S','
tp212
F12
s(Vpiqued
g32
tp213
F1
s(Vevent
S'NN'
p214
tp215
F1
s(Va
g182
tp216
F1
s(g45
S','
tp217
F1
s(g88
g37
tp218
F1
s(S':'
S'CC'
p219
tp220
F1
s(S'``'
p221
g156
tp222
F1
s(S','
g25
tp223
F3
s(g32
g48
tp224
F3
s(Vhim
g181
tp225
F2
s(Vis
g122
tp226
F2
s(Vdeath
S'NN'
p227
tp228
F1
s(Vput
g17
tp229
F1
s(Vrigid
g101
tp230
F1
s(g19
S','
tp231
F4
s(Vroom
S'NN'
p232
tp233
F1
s(Vthem
g189
tp234
F1
s(Vat
S'IN'
p235
tp236
F2
s(Vdown
g9
tp237
F1
s(Vunmix
g101
tp238
F1
s(S'PRP'
p239
S'NN'
p240
tp241
F1
s(Vme
g75
tp242
F6
s(g101
S','
tp243
F1
s(g91
S'.'
tp244
F1
s(g75
S','
tp245
F2
s(g12
S':'
tp246
F1
s(Vtaken
g196
tp247
F1
s(Vheaven
g17
tp248
F1
s(g101
S'NN'
p249
tp250
F8
s(Vline
S'NN'
p251
tp252
F1
s(VSCHOOL
g12
tp253
F1
s(Voh
g19
tp254
F1
s(S','
g50
tp255
F2
s(g4
g156
tp256
F3
s(VLADY
g12
tp257
F2
s(Vfortune
g17
tp258
F1
s(VWinworths
g12
tp259
F1
s(g4
g58
tp260
F1
s(Vone
g58
tp261
F2
s(S'RB'
p262
g48
tp263
F1
s(Vno
g156
tp264
F1
s(VMelfont
g12
tp265
F3
s(g4
g75
tp266
F6
s(VHER
g12
tp267
F1
s(S','
g10
tp268
F3
s(g71
g181
tp269
F2
s(S'WP'
p270
g32
tp271
F1
s(V'S
g146
tp272
F1
s(S':'
S':'
tp273
F1
s(g88
S'.'
tp274
F1
s(g75
g9
tp275
F1
s(g17
g12
tp276
F4
s(Vrank
g17
tp277
F1
s(g4
g235
tp278
F1
s(g37
g10
tp279
F2
s(VWINWORTHS
g12
tp280
F1
s(VNothing
g17
tp281
F1
s(g12
g12
tp282
F28
s(VROBERT
g12
tp283
F1
s(VOR
g219
tp284
F1
s(Vhas
S'VBZ'
p285
tp286
F2
s(g107
g12
tp287
F1
s(g19
S'IN'
p288
tp289
F1
s(VIN
g12
tp290
F3
s(S'RB'
p291
g19
tp292
F1
s(g7
S'RB'
p293
tp294
F2
s(g32
S'VBN'
p295
tp296
F1
s(g12
g32
tp297
F4
s(Vinterview
g249
tp298
F1
s(g221
g7
tp299
F1
s(VFOR
g12
tp300
F1
s(g10
g4
tp301
F5
s(Vmy
g25
tp302
F7
s(VOF
g12
tp303
F1
s(g10
g48
tp304
F3
s(Vbe
g98
tp305
F2
s(VDorcas
g17
tp306
F1
s(g88
g97
tp307
F1
s(g17
S':'
tp308
F1
s(Vit
g239
tp309
F2
s(Vunhappy
g101
tp310
F1
s(Vmay
g45
tp311
F2
s(Vreaped
g32
tp312
F1
s(g10
g30
tp313
F1
s(Vits
g30
tp314
F1
s(g101
g23
tp315
F1
s(g7
g88
tp316
F4
s(S','
g17
tp317
F2
s(Vchildren
S'NNS'
p318
tp319
F1
s(S'DT'
p320
g214
tp321
F14
s(g185
g30
tp322
F7
s(g30
g71
tp323
F1
s(g37
g23
tp324
F1
s(Vheart
S'NN'
p325
tp326
F1
s(Vtime
S'NN'
p327
tp328
F1
s(Vout
g9
tp329
F2
s(Vinjured
g101
tp330
F1
s(VIn
g9
tp331
F1
s(V'd
g58
tp332
F1
s(g58
S'NN'
p333
tp334
F1
s(VCaptain
g12
tp335
F1
s(g12
g62
tp336
F1
s(Vwill
g62
tp337
F2
s(g58
S','
tp338
F1
s(g107
g101
tp339
F2
s(Vin
g16
tp340
F6
s(VNever
g19
tp341
F1
s(Vmention
g4
tp342
F1
s(V``
g221
tp343
F5
s(VPure
g12
tp344
F1
s(Vare
g103
tp345
F1
s(Vromance
g17
tp346
F1
s(VMiss
g12
tp347
F1
s(Vconvent
g17
tp348
F1
s(Vwon
g32
tp349
F1
s(VWinworth
g12
tp350
F1
s(g288
S','
tp351
F1
s(g45
g97
tp352
F1
s(g54
S'VBP'
p353
tp354
F1
s(Verroneous
g101
tp355
F1
s(Vbenefit
g4
tp356
F1
s(g156
g101
tp357
F5
s(g136
S'.'
tp358
F1
s(g37
g17
tp359
F1
s(g30
g291
tp360
F1
s(Vhow
g54
tp361
F3
s(V.
S'.'
tp362
F45
s(S','
g79
tp363
F3
s(Vmurdered
g37
tp364
F1
s(g21
g17
tp365
F1
s(g107
g16
tp366
F2
s(g221
g109
tp367
F1
s(VTO
g12
tp368
F4
s(Vimprov
g101
tp369
F1
s(Vbrought
g32
tp370
F1
s(g109
g44
tp371
F1
s(Vwife
S'NN'
p372
tp373
F2
s(Vaffectionate
g17
tp374
F1
s(V--
S':'
tp375
F1
s(Vfriend
g17
tp376
F3
s(S'PRP$'
p377
g23
tp378
F5
s(Vright
g19
tp379
F1
s(S'VBD'
p380
S','
tp381
F2
s(S','
g23
tp382
F1
s(VFRIEND
g12
tp383
F1
s(Vlandlord
g17
tp384
F1
s(g181
S'.'
tp385
F5
s(Vgranted
g37
tp386
F1
s(Vmirth
g17
tp387
F1
s(g48
g23
tp388
F3
s(g98
g25
tp389
F2
s(g293
g32
tp390
F2
s(VDCC
g12
tp391
F1
s(Vday
g333
tp392
F2
s(Vyou
g6
tp393
F4
s(g380
S'.'
tp394
F1
s(VII
g12
tp395
F2
s(Vbeloved
g101
tp396
F1
s(Vwindows
g23
tp397
F1
s(Vof
g185
tp398
F4
s(g101
g83
tp399
F1
s(Vfate
g17
tp400
F1
s(Vloved
g37
tp401
F1
s(g12
g9
tp402
F1
s(Vher
g30
tp403
F9
s(Vrent
g17
tp404
F1
s(Vto
g10
tp405
F11
s(g221
g50
tp406
F2
s(g23
g19
tp407
F2
s(Vartful
g17
tp408
F1
s(S'CC'
p409
g88
tp410
F1
s(Vwritten
g295
tp411
F1
s(g285
g196
tp412
F3
s(VTo-morrow
g101
tp413
F1
s(Vfallen
g88
tp414
F1
s(g156
S'.'
tp415
F2
s(S','
g44
tp416
F1
s(Vdoor
g17
tp417
F1
s(VThe
g320
tp418
F2
s(g23
g94
tp419
F2
s(Vthy
g101
tp420
F3
s(Vthey
S'PRP'
p421
tp422
F1
s(VHorton
g12
tp423
F2
s(VYOUNG
g12
tp424
F2
s(VDORCAS
g12
tp425
F1
s(Varrears
g23
tp426
F1
s(g7
g380
tp427
F4
s(Vcompetition
S'NN'
p428
tp429
F1
s(Vfor
g94
tp430
F2
s(Vdid
g380
tp431
F3
s(Vaffecting
g101
tp432
F1
s(g32
g19
tp433
F2
s(Vmarried
g37
tp434
F1
s(Vthee
g23
tp435
F1
s(g81
g97
tp436
F1
s(g88
g30
tp437
F3
s(Vamiable
g101
tp438
F1
s(g353
g7
tp439
F2
s(g101
g101
tp440
F1
s(Vlength
g17
tp441
F1
s(Vmother
g17
tp442
F1
s(Vbut
g409
tp443
F2
s(Vinhuman
g17
tp444
F1
s(VAlas
g50
tp445
F6
s(V,
S','
tp446
F41
s(Vsusceptible
g101
tp447
F1
s(VTHE
g4
tp448
F1
s(VHer
g30
tp449
F1
s(Vfind
g4
tp450
F1
s(VA
g12
tp451
F1
s(VAGNES
g12
tp452
F3
s(S':'
g262
tp453
F1
s(VMARCHIONESS
g12
tp454
F1
s(V?
S'.'
tp455
F5
s(VLEAVING
g12
tp456
F1
s(Vfixed
g37
tp457
F1
s(Vsame
g136
tp458
F2
s(Vcontributed
g37
tp459
F1
s(g12
g146
tp460
F1
s(Vlong
g19
tp461
F1
s(VMISS
g12
tp462
F1
s(VLaura
g12
tp463
F2
s(Vtoo
g291
tp464
F2
s(VM
g12
tp465
F1
s(g122
g12
tp466
F1
s(Venquire
g17
tp467
F1
s(Vwas
g32
tp468
F5
s(Vthus
g79
tp469
F2
s(VXCIV
g12
tp470
F1
s(Vhis
g199
tp471
F1
s(VVieurville
g12
tp472
F3
s(Voff
g19
tp473
F1
s(Vjudgments
g23
tp474
F1
s(g107
g17
tp475
F2
s(g12
g23
tp476
F1
s(VYou
g52
tp477
F1
s(g50
S'.'
tp478
F25
s(VFrom
g9
tp479
F1
s(S','
g38
tp480
F3
s(g10
g75
tp481
F1
s(Vinterests
g74
tp482
F1
s(Vwhich
g83
tp483
F1
s(Vneed
g88
tp484
F1
s(g16
g23
tp485
F1
s(g179
S','
tp486
F1
s(Voff
g9
tp487
F1
s(Vyour
g377
tp488
F3
s(Vbefore
g9
tp489
F1
s(VBut
g109
tp490
F3
s(Vgive
g4
tp491
F1
s(Von
g288
tp492
F3
s(Vhad
g32
tp493
F1
s(Vam
g353
tp494
F2
s(g12
g79
tp495
F1
s(S','
g107
tp496
F8
s(S','
g12
tp497
F9
s(Vproved
g32
tp498
F1
s(Vlanguage
S'NN'
p499
tp500
F1
s(Vanguish
g101
tp501
F1
s(S'.'
g105
tp502
F5
s(Vmarry
g4
tp503
F2
s(VWhile
S'IN'
p504
tp505
F1
s(V;
S':'
tp506
F3
s(Vmuch
g101
tp507
F1
s(g101
g12
tp508
F2
s(Vthis
g34
tp509
F4
s(g17
g32
tp510
F6
s(g219
g4
tp511
F1
s(VAugustina
g12
tp512
F1
s(VSAMUEL
g12
tp513
F1
s(VHelena
g12
tp514
F1
s(Vwhat
g44
tp515
F3
s(Vmanner
g17
tp516
F1
s(g327
g179
tp517
F3
s(Vdetermination
g17
tp518
F1
s(VHere
g262
tp519
F1
s(V!
S'.'
tp520
F31
s(Vrenounce
g17
tp521
F1
s(Vwrite
g4
tp522
F1
s(Vthat
g9
tp523
F2
s(g333
g291
tp524
F2
s(VADDRESSED
g12
tp525
F1
s(Vforgiving
g59
tp526
F1
s(VLady
g12
tp527
F1
s(g109
g377
tp528
F2
s(Vnever
g293
tp529
F2
s(Vhave
g88
tp530
F1
s(g44
g4
tp531
F1
s(Vway
g240
tp532
F1
s(VTWO
g12
tp533
F1
s(g59
g251
tp534
F1
s(Vlooks
g23
tp535
F1
s(VWhat
g270
tp536
F1
s(VVOL
g12
tp537
F1
s(g6
g54
tp538
F1
s(Vnot
g97
tp539
F4
s(VCONTINUED
g12
tp540
F1
s(g17
g107
tp541
F2
s(g17
g23
tp542
F1
s(Vduty
g17
tp543
F1
s(VGracious
g101
tp544
F1
s(g12
S','
tp545
F10
s(g12
g122
tp546
F1
s(Vavoid
g4
tp547
F1
s(g32
g181
tp548
F3
s(VTime
g12
tp549
F1
s(Vprobability
g17
tp550
F1
s.