ccollections
defaultdict
p1
(c__builtin__
float
p2
tRp3
(Vsparkfing
S'VBG'
p4
tp5
F1
s(Vcourse
S'NN'
p6
tp7
F10
s(V`Know
S'JJ'
p8
tp9
F1
s(V`The
g8
tp10
F19
s(Vusual
g8
tp11
F1
s(VFor
S'IN'
p12
tp13
F6
s(Vtears
S'NNS'
p14
tp15
F1
s(Vmistake
S'VB'
p16
tp17
F1
s(S'IN'
p18
S'NN'
p19
tp20
F654
s(Vlength
S'PDT'
p21
tp22
F1
s(S'RP'
p23
S'NNP'
p24
tp25
F2
s(Vlevel
g19
tp26
F2
s(S'DT'
p27
S'JJS'
p28
tp29
F28
s(VYour
S'PRP$'
p30
tp31
F10
s(Vsticking
g4
tp32
F1
s(VReluctantly
S'RB'
p33
tp34
F1
s(Vdriven
S'VBN'
p35
tp36
F6
s(Vglanced
S'VBD'
p37
tp38
F2
s(Vgrasp
g19
tp39
F3
s(Vorphan
g19
tp40
F1
s(Vpaved
g8
tp41
F3
s(Vrichly
g8
tp42
F2
s(Vagainst
S'IN'
p43
tp44
F15
s(VTo
S'TO'
p45
tp46
F12
s(Vpossession
g19
tp47
F13
s(VShall
g19
tp48
F4
s(Vprecipices
g14
tp49
F1
s(Vhound
g19
tp50
F1
s(Vcase
S'NN'
p51
tp52
F5
s(Vcalled
g35
tp53
F11
s(Vleft
g19
tp54
F4
s(Vhigher
S'JJR'
p55
tp56
F3
s(V`Ask
S'IN'
p57
tp58
F1
s(VShame
g19
tp59
F1
s(Vtread
S'VBP'
p60
tp61
F1
s(S'CD'
p62
g35
tp63
F2
s(Vmoidores
g14
tp64
F1
s(Vgives
S'VBZ'
p65
tp66
F1
s(S'WDT'
p67
S'RB'
p68
tp69
F6
s(VKingston
S'NNP'
p70
tp71
F7
s(S'IN'
p72
g33
tp73
F85
s(Vfootsteps
g14
tp74
F1
s(Vintense
g8
tp75
F3
s(Vmoment
S'NN'
p76
tp77
F31
s(g19
S'DT'
p78
tp79
F118
s(Vremarked
g37
tp80
F1
s(Vsun-down
g8
tp81
F2
s(Vjuts
S'VBZ'
p82
tp83
F1
s(Vpreparation
g19
tp84
F1
s(S'RB'
p85
g16
tp86
F170
s(Vtold
g37
tp87
F11
s(V`Ilda
g19
tp88
F1
s(Vsalutes
g14
tp89
F1
s(g19
g67
tp90
F71
s(Vmore
g55
tp91
F22
s(Vbroken
g35
tp92
F2
s(Vsingular
g8
tp93
F4
s(Vbowed
g37
tp94
F2
s(g70
S'WRB'
p95
tp96
F1
s(Vtransport
g16
tp97
F2
s(VBenedictine
g70
tp98
F3
s(VConcealed
g70
tp99
F1
s(Vrestless
g8
tp100
F2
s(S'WP'
p101
S'VBZ'
p102
tp103
F24
s(g4
g19
tp104
F63
s(Vsolid
g8
tp105
F2
s(VIndians
S'NNPS'
p106
tp107
F1
s(g23
g35
tp108
F1
s(Vwhen
S'WRB'
p109
tp110
F69
s(Vgloomy
g8
tp111
F2
s(Vconsiders
g82
tp112
F1
s(g8
S'MD'
p113
tp114
F2
s(Vfeathers
g14
tp115
F1
s(Vwarlike
g19
tp116
F1
s(VArt
g19
tp117
F1
s(VBashaw
g70
tp118
F2
s(VPrincess
g70
tp119
F10
s(Vreefed
g19
tp120
F1
s(Vget
g60
tp121
F2
s(S'CC'
p122
S'CC'
p123
tp124
F2
s(Vstood
g82
tp125
F1
s(Vbags
g14
tp126
F2
s(Vpreceding
g19
tp127
F1
s(g70
g122
tp128
F33
s(VSPANISH
g70
tp129
F1
s(VCinqua
g70
tp130
F4
s(Vafter
S'IN'
p131
tp132
F61
s(Vcheerfully
g33
tp133
F2
s(Vitself
S'PRP'
p134
tp135
F1
s(VSanta
S'NNP'
p136
tp137
F3
s(Vinspiring
g4
tp138
F1
s(Vhung
g60
tp139
F1
s(g8
g23
tp140
F2
s(Vbuilt
g35
tp141
F1
s(Vanxiety
g19
tp142
F5
s(Vcorsair
g19
tp143
F102
s(Vwork
g19
tp144
F3
s(Vclambered
g35
tp145
F1
s(VEblis
g70
tp146
F1
s(Vmaimed
g37
tp147
F1
s(Vsoothe
g16
tp148
F1
s(Vhearing
g19
tp149
F1
s(Vvisible
g8
tp150
F12
s(Vknelt
g60
tp151
F1
s(Vused
g37
tp152
F1
s(Vfact
S'NN'
p153
tp154
F2
s(Vrender
g60
tp155
F1
s(VDona
g70
tp156
F16
s(Vpiratical
g8
tp157
F1
s(VPretending
g4
tp158
F1
s(Vnoticed
g37
tp159
F1
s(Vviz
g19
tp160
F1
s(Vembroidered
g35
tp161
F3
s(Vplaces
g14
tp162
F2
s(Vrelation
g19
tp163
F1
s(VExcellency
g19
tp164
F1
s(Vtoil
g60
tp165
F1
s(Veither
S'DT'
p166
tp167
F3
s(Vunseen
g8
tp168
F3
s(Vreturned
g37
tp169
F4
s(Vfling
g4
tp170
F1
s(g37
g60
tp171
F1
s(Vsuperiority
g19
tp172
F1
s(Vsea
g19
tp173
F42
s(Vawakened
g35
tp174
F2
s(Vviolence
g19
tp175
F2
s(Vvines
g14
tp176
F1
s(Vgo
g60
tp177
F3
s(Vunlocked
g35
tp178
F1
s(Vskyey
g19
tp179
F1
s(Vpride
g19
tp180
F2
s(Vascertained
g37
tp181
F1
s(Vmost
g28
tp182
F6
s(S'TO'
p183
S':'
tp184
F1
s(Vbattery
g19
tp185
F3
s(Vtreachery
g19
tp186
F6
s(Vponderous
g8
tp187
F1
s(Ven
g8
tp188
F1
s(VGate
g70
tp189
F1
s(Vfresh
g19
tp190
F1
s(Vdrawn
g82
tp191
F1
s(S'WRB'
p192
g35
tp193
F3
s(Vattempt
g16
tp194
F2
s(V25th
g8
tp195
F1
s(VPull
g70
tp196
F1
s(g28
S'CD'
p197
tp198
F2
s(Vmomently
g33
tp199
F1
s(Vignorant
g8
tp200
F1
s(Vcloudless
g8
tp201
F1
s(VLondon
S'NNP'
p202
tp203
F3
s(VMashallah
g19
tp204
F2
s(Vdeeply
g33
tp205
F6
s(Vnotwithstanding
g4
tp206
F1
s(V'
S"''"
p207
tp208
F690
s(Vsixteen
g8
tp209
F1
s(Vjudging
g4
tp210
F1
s(Vye
g16
tp211
F1
s(Vsides
S'NNS'
p212
tp213
F12
s(Vjib
g19
tp214
F1
s(V`What
g57
tp215
F1
s(VOR
g70
tp216
F1
s(Vordered
g35
tp217
F4
s(Vdances
g14
tp218
F3
s(VEast
g70
tp219
F2
s(Vrespects
g14
tp220
F1
s(V`It
g19
tp221
F21
s(Vjackets
g14
tp222
F1
s(Vclothes
g14
tp223
F1
s(Vpast
g19
tp224
F2
s(Vgoats
g14
tp225
F1
s(Vflood
g19
tp226
F1
s(Vgathered
g37
tp227
F3
s(Vshaken
g16
tp228
F1
s(Vwarbling
g4
tp229
F1
s(Vswept
g35
tp230
F1
s(VWest
g70
tp231
F7
s(Vascending
g4
tp232
F1
s(Vsurrounded
g37
tp233
F2
s(Vsighs
g14
tp234
F1
s(Vrich
g8
tp235
F9
s(Vrounded
g37
tp236
F2
s(Vshapely
g33
tp237
F1
s(Vget
g16
tp238
F13
s(Vrigging
g4
tp239
F2
s(Vtopmast
g19
tp240
F1
s(V-both
S'CC'
p241
tp242
F1
s(Vfurther
g60
tp243
F1
s(Vperilous
g8
tp244
F1
s(Vboth
g21
tp245
F1
s(Vinterval
g19
tp246
F1
s(Vpossible
S'JJ'
p247
tp248
F7
s(Vadorned
g37
tp249
F4
s(Vdiscovery
g19
tp250
F6
s(Vfaithfulness
g19
tp251
F1
s(VBellamont
g70
tp252
F1
s(Vmoalibe
g19
tp253
F1
s(Vreception
g19
tp254
F3
s(Vceased
g35
tp255
F4
s(Vsailed
g35
tp256
F4
s(Vwards
g14
tp257
F2
s(Vdawned
g37
tp258
F1
s(Vwell
g19
tp259
F1
s(Vseek
g16
tp260
F4
s(Vcrossed
g37
tp261
F2
s(Vinformed
g37
tp262
F3
s(Vfeel
g16
tp263
F3
s(Vcrooked
g8
tp264
F1
s(Vtiaras
g14
tp265
F1
s(Vtouch
g16
tp266
F1
s(Vescort
g19
tp267
F3
s(Vbeneath
g57
tp268
F20
s(Vsymmetrical
g8
tp269
F1
s(Vportico
g19
tp270
F1
s(g183
g67
tp271
F2
s(S'MD'
p272
g62
tp273
F1
s(Vcommenced
g37
tp274
F1
s(Vdo
g19
tp275
F2
s(Vcolors
g14
tp276
F2
s(Vobeyed
g35
tp277
F2
s(Vcrisis
S'NN'
p278
tp279
F1
s(VHa
g19
tp280
F1
s(g207
S'WP'
p281
tp282
F1
s(Vstretching
g4
tp283
F1
s(Vgesture
g19
tp284
F1
s(Vbeheld
g37
tp285
F2
s(Vfarther
g8
tp286
F1
s(Vkegs
g19
tp287
F3
s(Vbit
g37
tp288
F1
s(Vconsent
g19
tp289
F3
s(Vlest
g57
tp290
F1
s(Vexpressive
g8
tp291
F2
s(V`Every
g19
tp292
F1
s(Vexpecting
g4
tp293
F1
s(Vballast
g19
tp294
F1
s(g8
g35
tp295
F10
s(g67
g16
tp296
F1
s(g281
S'RB'
p297
tp298
F3
s(Vless
S'RBR'
p299
tp300
F5
s(Vwounded
g37
tp301
F1
s(Vhove
g35
tp302
F6
s(VClerk
g70
tp303
F1
s(Vcharmed
g8
tp304
F1
s(Vtowards
g57
tp305
F30
s(Vhappy
g8
tp306
F5
s(Vcavalry
g19
tp307
F2
s(Vpromise
g60
tp308
F2
s(Vpackages
g14
tp309
F4
s(Vlet
g57
tp310
F1
s(S':'
g28
tp311
F1
s(Vnecessary
S'JJ'
p312
tp313
F3
s(Vhundred
g8
tp314
F9
s(Vprincess
g19
tp315
F69
s(Vestablishments
g14
tp316
F1
s(Vwine
g19
tp317
F1
s(VTurkish
g19
tp318
F1
s(g57
S'.'
tp319
F22
s(Vwatch
g16
tp320
F5
s(Vbattle
S'NN'
p321
tp322
F5
s(Vholds
S'VBZ'
p323
tp324
F1
s(Vcharacter
g19
tp325
F8
s(Vconstantly
g33
tp326
F1
s(V`Tomorrow
g19
tp327
F1
s(Vsuspended
g37
tp328
F1
s(Vhove
g16
tp329
F1
s(g28
g8
tp330
F7
s(Vreveal
g16
tp331
F1
s(Vmingled
g37
tp332
F1
s(Vprosecuting
g4
tp333
F1
s(Vsmoked
g37
tp334
F1
s(Vtop-gallant
g8
tp335
F1
s(VEntered
g35
tp336
F1
s(V`would
g241
tp337
F1
s(V`The
g19
tp338
F7
s(Vmirth
g19
tp339
F1
s(g4
g27
tp340
F143
s(Vconfirm
g16
tp341
F1
s(Vmonkey-looking
g8
tp342
F1
s(Vsatisfied
g8
tp343
F2
s(Vhorse
g19
tp344
F17
s(S'PRP'
p345
g8
tp346
F18
s(Vho
g16
tp347
F1
s(VArabian
g8
tp348
F1
s(VThese
S'DT'
p349
tp350
F7
s(Vgave
S'VBD'
p351
tp352
F22
s(Vshot
g35
tp353
F4
s(VItalian
g8
tp354
F3
s(Vpointed
g37
tp355
F1
s(g4
S'CD'
p356
tp357
F4
s(Vestates
g14
tp358
F4
s(VEthiopian
g8
tp359
F2
s(VBoth
g166
tp360
F2
s(g122
g21
tp361
F3
s(Vshare
S'NN'
p362
tp363
F3
s(Vsucceeded
g35
tp364
F9
s(Vcolonel
g19
tp365
F1
s(Vrepassed
g37
tp366
F1
s(Vtotal
g8
tp367
F1
s(Vfather
g241
tp368
F1
s(VPrince
g19
tp369
F4
s(Vfinished
g35
tp370
F1
s(VRich
g8
tp371
F1
s(VAlgiers
g70
tp372
F8
s(VFrance
S'NNP'
p373
tp374
F1
s(Vsorrows
g14
tp375
F1
s(V`From
g57
tp376
F2
s(V-'tis
g19
tp377
F2
s(g16
S'WRB'
p378
tp379
F8
s(Vinterpreted
g35
tp380
F1
s(VThe
S'DT'
p381
tp382
F265
s(Vdepending
g4
tp383
F1
s(Vsudden
g8
tp384
F4
s(S'NN'
p385
g62
tp386
F9
s(Vconfession
g19
tp387
F1
s(Vcorsairing
g19
tp388
F1
s(g33
S'WP'
p389
tp390
F2
s(Vaccustomed
g8
tp391
F2
s(Vprotection
S'NN'
p392
tp393
F2
s(Vonward
g33
tp394
F1
s(Vbeneath
g21
tp395
F1
s(g37
S'RB'
p396
tp397
F251
s(Vmoved
g37
tp398
F4
s(Vladies
g14
tp399
F1
s(Vclosely
S'RB'
p400
tp401
F9
s(Vtaslec
g19
tp402
F1
s(VINGRAHAM
g70
tp403
F1
s(g60
g30
tp404
F21
s(Vafterwards
g57
tp405
F4
s(Vmarine
g19
tp406
F1
s(Vworking
g4
tp407
F4
s(VNew
S'NNP'
p408
tp409
F10
s(Vaccording
S'VBG'
p410
tp411
F5
s(g28
g19
tp412
F21
s(Vscattered
g35
tp413
F1
s(Vflower
g19
tp414
F2
s(Vcapture
g19
tp415
F5
s(V`Come
g19
tp416
F1
s(Vhonored
g37
tp417
F1
s(Vfrowning
g4
tp418
F1
s(Vwhite
S'JJ'
p419
tp420
F10
s(Vout
g33
tp421
F2
s(Vdignity
g19
tp422
F2
s(Vpowder
g35
tp423
F1
s(Vsenor
g8
tp424
F8
s(Vexertions
g14
tp425
F2
s(Vembrasures
g14
tp426
F3
s(Vregal
g8
tp427
F1
s(g30
g192
tp428
F1
s(Vyearly
g8
tp429
F2
s(Vsuperbly
g33
tp430
F1
s(Vaccept
g60
tp431
F1
s(Vfragments
g14
tp432
F1
s(Vmomoment
g19
tp433
F1
s(Vfountains
g14
tp434
F1
s(Vimbedded
g35
tp435
F1
s(g67
g70
tp436
F4
s(Vmeasures
g14
tp437
F1
s(Vrepairs
g14
tp438
F1
s(VSpanish
g8
tp439
F21
s(Vinspected
g37
tp440
F1
s(Vdipper
g19
tp441
F1
s(Vjagged
g8
tp442
F1
s(Vball
g166
tp443
F1
s(Vtops
g14
tp444
F3
s(Vmerchantman
g19
tp445
F2
s(VLook
g19
tp446
F1
s(S'VBN'
p447
g23
tp448
F27
s(Vodorous
g8
tp449
F1
s(Vannouncement
S'NN'
p450
tp451
F1
s(Vthundering
g4
tp452
F1
s(g102
g299
tp453
F1
s(Vkept
g82
tp454
F1
s(Vperpendicular
g8
tp455
F2
s(Vlisten
g19
tp456
F1
s(Vaction
S'NN'
p457
tp458
F5
s(Vbreezes
g14
tp459
F1
s(Vwatched
g37
tp460
F6
s(V`Noble
g8
tp461
F2
s(Vcity
S'NN'
p462
tp463
F11
s(VWithout
g57
tp464
F2
s(Vgive
g16
tp465
F13
s(Vharem
g19
tp466
F9
s(Vremained
g35
tp467
F1
s(Vthrone
g19
tp468
F6
s(Vup
g57
tp469
F7
s(V`Your
g8
tp470
F3
s(g4
S'PRP'
p471
tp472
F55
s(Vcomrades
g14
tp473
F1
s(Vmirrors
g14
tp474
F2
s(Vthen
g297
tp475
F75
s(Vdegraded
g35
tp476
F1
s(Vclimbed
g35
tp477
F1
s(VIndies
g106
tp478
F7
s(Vamidships
g14
tp479
F1
s(g281
S'PRP$'
p480
tp481
F1
s(VOne
g62
tp482
F15
s(Vsingularly
g33
tp483
F2
s(Vcrew
g19
tp484
F11
s(Vmuch
g8
tp485
F12
s(Vbeholding
g4
tp486
F2
s(Vslavers
g14
tp487
F1
s(Vcliff-bound
g19
tp488
F1
s(g30
S'.'
tp489
F9
s(VFamiliar
g19
tp490
F1
s(Vpowerful
S'JJ'
p491
tp492
F5
s(Varranged
g35
tp493
F1
s(Vatteudants
g14
tp494
F1
s(Vaffair
g19
tp495
F2
s(Vfollowing
g8
tp496
F2
s(Vgreen-houses
g14
tp497
F1
s(Vproduced
g35
tp498
F1
s(Vplacing
g19
tp499
F1
s(Vsheathed
g8
tp500
F1
s(Vquarter-railing
g8
tp501
F1
s(g23
g14
tp502
F2
s(Vnapkins
g14
tp503
F2
s(Vhid
g8
tp504
F1
s(Vwidening
g4
tp505
F1
s(Vlay
g16
tp506
F4
s(Vear
g60
tp507
F1
s(Vboarded
g35
tp508
F1
s(Vhills
g14
tp509
F4
s(Vdark
g19
tp510
F14
s(g28
S'.'
tp511
F4
s(Vindulge
g16
tp512
F1
s(Vreaching
g4
tp513
F5
s(VIf
S'IN'
p514
tp515
F18
s(Vseas
g14
tp516
F10
s(Vnot
g85
tp517
F196
s(Vincome
S'NN'
p518
tp519
F1
s(V`Three
g8
tp520
F1
s(Vdone
S'VBN'
p521
tp522
F18
s(Vincapable
g8
tp523
F1
s(Vcontain
g16
tp524
F2
s(Vconfidant
g19
tp525
F1
s(Vfiring
g4
tp526
F3
s(Vmagnificent
g8
tp527
F3
s(VSt.
S'NNP'
p528
tp529
F17
s(Vmile
g19
tp530
F9
s(Vdeparted
g37
tp531
F2
s(Vboldness
g35
tp532
F1
s(Vdisposed
g37
tp533
F1
s(Vpile
g19
tp534
F2
s(Vcome
g35
tp535
F13
s(Vdisapprobation
g19
tp536
F1
s(Vflush
g8
tp537
F1
s(Vreceived
g37
tp538
F7
s(g16
S'.'
tp539
F72
s(Vsurprised
g37
tp540
F1
s(g19
g109
tp541
F24
s(Vhumor
g19
tp542
F3
s(Vwiden
g60
tp543
F1
s(Vshipboard
g19
tp544
F1
s(Vpaved
g35
tp545
F1
s(Vobject
g19
tp546
F3
s(g85
g21
tp547
F4
s(Vmusket
g19
tp548
F1
s(Vdelay
g19
tp549
F3
s(S'WP$'
p550
g4
tp551
F1
s(Vrippling
g4
tp552
F1
s(Vsex
g19
tp553
F2
s(VShe
S'PRP'
p554
tp555
F52
s(S','
g192
tp556
F44
s(Vship
g8
tp557
F1
s(Vpass
g16
tp558
F6
s(Vpenetrated
g37
tp559
F2
s(Vtaib
g19
tp560
F1
s(VMoors
g14
tp561
F2
s(Vflown
g35
tp562
F1
s(Vmeditating
g4
tp563
F1
s(Vtaking
g4
tp564
F14
s(Vrepresented
g37
tp565
F1
s(VLively
g33
tp566
F1
s(Vstroke
g19
tp567
F1
s(Vfrigate
g19
tp568
F28
s(Vleave
g60
tp569
F3
s(VPeru
g70
tp570
F1
s(Vsnowy
g19
tp571
F1
s(Vpunch
g8
tp572
F1
s(VMirrors
g106
tp573
F1
s(Vforever
g19
tp574
F1
s(g207
g70
tp575
F2
s(Vcontent
g8
tp576
F5
s(Vsecret
g35
tp577
F1
s(S'VBP'
p578
g19
tp579
F19
s(g272
S'IN'
p580
tp581
F9
s(Vcrews
g14
tp582
F1
s(Vexisted
g35
tp583
F1
s(S':'
g21
tp584
F1
s(g60
S','
tp585
F12
s(Vtwenty-five
g8
tp586
F1
s(Vsaloons
g14
tp587
F1
s(g122
g82
tp588
F15
s(Vweary
g8
tp589
F1
s(Vbright
g8
tp590
F3
s(Vre-awakening
g19
tp591
F1
s(Vthirty
g19
tp592
F3
s(Vtop
g19
tp593
F2
s(V`Bring
g4
tp594
F1
s(Vstudden-sails
g14
tp595
F1
s(Vgood
g8
tp596
F31
s(Vdeafening
g4
tp597
F1
s(Vupward
g33
tp598
F1
s(Vsend
g16
tp599
F11
s(Vspiced
g8
tp600
F1
s(Vopening
g19
tp601
F6
s(Vendeavor
g16
tp602
F2
s(VHighlands
g70
tp603
F1
s(Vupon
g23
tp604
F1
s(Vring
g4
tp605
F1
s(S'IN'
p606
g27
tp607
F2141
s(g14
g16
tp608
F4
s(V`Surrender
g19
tp609
F1
s(Vcasket
g19
tp610
F3
s(Vdwell
g33
tp611
F1
s(Vroyal
g8
tp612
F2
s(Vlooked
g37
tp613
F15
s(Vmighty
g19
tp614
F1
s(Vcomplexions
g14
tp615
F1
s(Vprize
g19
tp616
F2
s(Vbul-buls
g8
tp617
F1
s(Vherself
S'PRP'
p618
tp619
F4
s(Vsecret
g19
tp620
F3
s(Vseamanship
g19
tp621
F1
s(Van
g166
tp622
F93
s(Vbackward
g33
tp623
F1
s(Vstealthily
g33
tp624
F2
s(Vextremely
S'RB'
p625
tp626
F1
s(Vchance
S'NN'
p627
tp628
F3
s(g57
g62
tp629
F75
s(Vbit
g19
tp630
F1
s(Vcap
g19
tp631
F7
s(g618
g28
tp632
F1
s(Vspread
g19
tp633
F1
s(g4
g122
tp634
F8
s(Vgravity
g19
tp635
F1
s(Vextended
g37
tp636
F1
s(Vfather
g33
tp637
F3
s(Vturn
g16
tp638
F4
s(Vcarved
g37
tp639
F1
s(Vhangings
g14
tp640
F1
s(Vrob
g82
tp641
F1
s(Vrepel
g16
tp642
F1
s(Vreason
S'NN'
p643
tp644
F1
s(Vneglect
g16
tp645
F1
s(Vprove
g16
tp646
F2
s(Vupward
g19
tp647
F1
s(Vobstruction
g19
tp648
F1
s(VAlgiers
g14
tp649
F1
s(Vpeasant
g19
tp650
F1
s(Vslain
g16
tp651
F1
s(VTHE
g70
tp652
F3
s(Vcarriages
g14
tp653
F2
s(Vtraitor
g19
tp654
F1
s(Vbeneath
g19
tp655
F1
s(Vstrongly
g33
tp656
F1
s(Vbroad
S'JJ'
p657
tp658
F9
s(Vdoubtless
g19
tp659
F3
s(Vwicket
g19
tp660
F1
s(g60
g57
tp661
F65
s(Vrising
g4
tp662
F4
s(g299
g16
tp663
F2
s(Vpersons
g14
tp664
F3
s(g272
S','
tp665
F7
s(g30
S'PRP'
p666
tp667
F3
s(Vful
g8
tp668
F1
s(Volive
g8
tp669
F2
s(Vcontented
g35
tp670
F1
s(Vhundred
g37
tp671
F5
s(Vbetray
g16
tp672
F5
s(Vharm
g16
tp673
F3
s(Vpursuit
g19
tp674
F5
s(S'EX'
p675
g578
tp676
F11
s(Vmercy
g618
tp677
F1
s(Vlost
g37
tp678
F4
s(Vattachment
g19
tp679
F1
s(Vdays
S'NNS'
p680
tp681
F17
s(Vturban
g19
tp682
F1
s(Vinnumerable
g8
tp683
F1
s(Vcool
g8
tp684
F2
s(Vproviding
g4
tp685
F1
s(Vrigging
g19
tp686
F5
s(Vpossessing
g4
tp687
F2
s(Vever
S'RB'
p688
tp689
F9
s(S'PRP'
p690
g23
tp691
F15
s(Vsmile
g8
tp692
F1
s(Vjoined
g35
tp693
F1
s(Vconsciousness
g19
tp694
F1
s(Vgot
g37
tp695
F8
s(Vlistening
g19
tp696
F1
s(Vour
S'PRP$'
p697
tp698
F50
s(VAdmiralty
g19
tp699
F1
s(VNe-bilirim
g8
tp700
F1
s(Vspoken
g35
tp701
F8
s(g16
g618
tp702
F238
s(Vfeel
g60
tp703
F5
s(Vcorridor
g19
tp704
F6
s(Vsinging
g19
tp705
F2
s(Vprevailing
g4
tp706
F1
s(Vendure
g16
tp707
F1
s(Vguard
g19
tp708
F2
s(Vgems
g14
tp709
F1
s(Vslew
g37
tp710
F1
s(Vdilemma
g19
tp711
F1
s(Vinterpreter
g19
tp712
F1
s(Vgilding
g19
tp713
F1
s(Vlake
g19
tp714
F1
s(Vpurest
g28
tp715
F1
s(Vfannings
g14
tp716
F1
s(VDoubtless
g70
tp717
F2
s(Vperils
g14
tp718
F1
s(Vsayest
g28
tp719
F1
s(V-`There
g675
tp720
F1
s(g37
S'VBN'
p721
tp722
F318
s(g4
S':'
tp723
F1
s(Vfountain
g19
tp724
F1
s(Vhouse
S'NN'
p725
tp726
F3
s(Voceupied
g35
tp727
F1
s(Vsuccess
S'NN'
p728
tp729
F5
s(Vsuddenly
g33
tp730
F4
s(Vassistance
g19
tp731
F2
s(Vbelieve
g60
tp732
F4
s(Vdisappeared
g37
tp733
F3
s(Vscales
g14
tp734
F1
s(Vnine
S'CD'
p735
tp736
F2
s(V`At
g8
tp737
F2
s(Vsuspicions
g14
tp738
F4
s(VTunis
g70
tp739
F34
s(Vvisit
g19
tp740
F4
s(Vbrought
g37
tp741
F5
s(Vdetermined
g35
tp742
F1
s(Vfreebooter
g19
tp743
F7
s(Vsister
g19
tp744
F3
s(Vglare
g19
tp745
F1
s(Vsixth
g8
tp746
F2
s(VHurl
g70
tp747
F1
s(S'PRP'
p748
g578
tp749
F339
s(Vsuperb
g8
tp750
F1
s(Vcloisters
g14
tp751
F1
s(Vpour
g16
tp752
F2
s(Vdischarged
g37
tp753
F6
s(Vapproach
g19
tp754
F3
s(Vwaves
g82
tp755
F1
s(g70
g70
tp756
F222
s(VThat
g166
tp757
F3
s(Vcertain
S'JJ'
p758
tp759
F3
s(Vassembled
g35
tp760
F2
s(Vcommodious
g8
tp761
F1
s(V`Call
g19
tp762
F1
s(Vblacker
g19
tp763
F1
s(Vfaces
S'VBZ'
p764
tp765
F1
s(Vthrice
g19
tp766
F3
s(Vsailing
g4
tp767
F5
s(Vvelvet
g19
tp768
F7
s(Vhours
S'NNS'
p769
tp770
F8
s(Vbraids
g14
tp771
F1
s(Vtempest
g19
tp772
F3
s(Vshe
S'PRP'
p773
tp774
F155
s(Vintentions
g14
tp775
F2
s(Vservice
g19
tp776
F8
s(g109
g183
tp777
F2
s(Vsave
g19
tp778
F1
s(VCorsair
g19
tp779
F1
s(Vhabitation
g19
tp780
F1
s(Vcities
S'NNS'
p781
tp782
F1
s(Vorders
S'NNS'
p783
tp784
F13
s(Vkeeper
g19
tp785
F1
s(Vminutes
S'NNS'
p786
tp787
F13
s(Vdull
g8
tp788
F3
s(S':'
S'``'
p789
tp790
F1
s(V.
S'.'
tp791
F1539
s(Vswoon
g19
tp792
F1
s(Vartful
g8
tp793
F1
s(Vback
g8
tp794
F1
s(Vlively
g33
tp795
F1
s(Vlances
g14
tp796
F1
s(Vsister
g33
tp797
F1
s(Vprepared
g37
tp798
F6
s(Vchooses
g82
tp799
F1
s(g323
S'.'
tp800
F16
s(Vdepart
g16
tp801
F1
s(V`Speak
g19
tp802
F1
s(Vdread
g60
tp803
F1
s(VInside
g70
tp804
F1
s(Vwhose
g550
tp805
F9
s(S','
g35
tp806
F39
s(V`Trust
g19
tp807
F1
s(Vmeats
g14
tp808
F1
s(Vdepressed
g37
tp809
F1
s(V--
S':'
tp810
F62
s(Vprince
g19
tp811
F26
s(Vintended
g35
tp812
F1
s(Vseaman
g19
tp813
F1
s(V`Not
g33
tp814
F1
s(Vstuck
g35
tp815
F2
s(Vwhatever
g67
tp816
F1
s(Vjudgment
g19
tp817
F1
s(Vnamed
g37
tp818
F1
s(VSierras
g70
tp819
F2
s(Vreceive
g16
tp820
F5
s(VShip
g70
tp821
F1
s(Vhesitated
g37
tp822
F1
s(Vkilling
g4
tp823
F1
s(Vcareer
g19
tp824
F3
s(Vsuffered
g35
tp825
F2
s(Vmanoeuvring
g4
tp826
F1
s(Vtransparent
g19
tp827
F1
s(Vye
g19
tp828
F1
s(Vclaimed
g35
tp829
F1
s(Vskyey
g8
tp830
F1
s(Vluxury
g19
tp831
F1
s(Vcarelessly
g33
tp832
F2
s(Vnoted
g37
tp833
F2
s(V-`treasure
g19
tp834
F1
s(Vgarden
g19
tp835
F7
s(Vpalms
g14
tp836
F1
s(Vpomegranatetree
g19
tp837
F1
s(Vreach
g60
tp838
F1
s(Vhopes
g82
tp839
F2
s(Vfoundation
g19
tp840
F1
s(Vblock
g19
tp841
F1
s(Vto
g183
tp842
F935
s(Vkings
g14
tp843
F1
s(Vheard
g60
tp844
F1
s(Vpainted
g35
tp845
F2
s(g55
S','
tp846
F2
s(Vhead-land
g19
tp847
F1
s(Vcongratulating
g4
tp848
F1
s(Vouside
g19
tp849
F1
s(V`Wonld
g19
tp850
F1
s(Vcloak
g19
tp851
F1
s(Vfire
g16
tp852
F3
s(Vthunder
g19
tp853
F5
s(Vsouthward
g33
tp854
F1
s(g35
g281
tp855
F2
s(S':'
g675
tp856
F2
s(Vgallops
g14
tp857
F1
s(Vcover
g19
tp858
F1
s(Vcovered
g37
tp859
F3
s(Vflag
g19
tp860
F18
s(Vreport
g19
tp861
F5
s(VSubject
g70
tp862
F1
s(Vcontinually
g33
tp863
F1
s(V''
g207
tp864
F7
s(Vunfortunate
g8
tp865
F1
s(Vbecause
g57
tp866
F2
s(Vlarge
S'JJ'
p867
tp868
F35
s(Vstarted
g37
tp869
F5
s(Vcalm
g19
tp870
F5
s(Vyards
g14
tp871
F8
s(Vtroops
g14
tp872
F1
s(Vstand
g60
tp873
F2
s(Valong
g8
tp874
F1
s(Vpay
g16
tp875
F2
s(Vdifferent
S'JJ'
p876
tp877
F2
s(Vloaned
g35
tp878
F1
s(Vcautious
g8
tp879
F1
s(Vroof
g19
tp880
F2
s(Vretinue
g19
tp881
F3
s(Vfringed
g37
tp882
F1
s(Vconsidered
g35
tp883
F1
s(Vmidshipman
g19
tp884
F1
s(Vdigging
g4
tp885
F1
s(Vobey
g16
tp886
F2
s(Vfooting
g19
tp887
F1
s(Vgrace
g19
tp888
F2
s(Vfinest
g28
tp889
F1
s(Vbusy
g8
tp890
F2
s(V`Mr.
g8
tp891
F1
s(Vforward
g19
tp892
F4
s(V`Two
g19
tp893
F1
s(Vapartments
g14
tp894
F3
s(Vopening
g8
tp895
F1
s(V`This
g19
tp896
F9
s(Vstood
g19
tp897
F1
s(Vshouted
g35
tp898
F2
s(Vscrutinized
g37
tp899
F1
s(Vspurred
g35
tp900
F1
s(Vmoments
g14
tp901
F17
s(Vdoors
g14
tp902
F4
s(g55
g70
tp903
F1
s(Vcannon
g19
tp904
F4
s(S'.'
S','
tp905
F1
s(Vconsisted
g37
tp906
F1
s(Vstockings
g14
tp907
F1
s(Vregarded
g37
tp908
F1
s(S'VBZ'
p909
g19
tp910
F5
s(VThou
g70
tp911
F1
s(Vwho
g281
tp912
F74
s(Vpardon
g16
tp913
F1
s(Vdisappointment
g19
tp914
F1
s(Vlodging
g19
tp915
F1
s(Vgrounds
g14
tp916
F4
s(Vunited
g35
tp917
F1
s(g23
g122
tp918
F5
s(Vlater
g33
tp919
F1
s(Vpour
g8
tp920
F1
s(VFrom
g57
tp921
F5
s(Vspent
g37
tp922
F1
s(V`Follow
g57
tp923
F2
s(Vjacket
g19
tp924
F3
s(Vlappets
g14
tp925
F1
s(Vde
g70
tp926
F4
s(Vsweet
g8
tp927
F1
s(Vbody
g19
tp928
F10
s(Vboard
S'NN'
p929
tp930
F61
s(Vreleased
g35
tp931
F1
s(Vcharger
g19
tp932
F1
s(VThis
S'DT'
p933
tp934
F41
s(Vassurance
g19
tp935
F1
s(Vasked
g37
tp936
F4
s(VUnder
S'IN'
p937
tp938
F2
s(Vdemand
g16
tp939
F2
s(Vdeep
g19
tp940
F1
s(Vexists
g82
tp941
F1
s(Vgaffeon
g19
tp942
F1
s(Vforecastle
g8
tp943
F1
s(Vrubies
g14
tp944
F3
s(Vtomato
g8
tp945
F1
s(S'IN'
p946
g14
tp947
F127
s(VEmbassador
g70
tp948
F4
s(Vleaning
g4
tp949
F4
s(VAmidships
g70
tp950
F1
s(Vterrific
g8
tp951
F1
s(Vmeet
g19
tp952
F1
s(Vresentment
g19
tp953
F1
s(Venormous
S'JJ'
p954
tp955
F2
s(Vbade
g60
tp956
F1
s(Vrevealing
g4
tp957
F1
s(Vyield
g16
tp958
F1
s(Vroam
g16
tp959
F1
s(Vfathers
g14
tp960
F1
s(Vattempted
g37
tp961
F1
s(Vsolitary
g8
tp962
F2
s(Veunuch
g8
tp963
F6
s(Vabsent
g19
tp964
F1
s(S'JJ'
p965
g281
tp966
F2
s(Vdefiance
g19
tp967
F1
s(Vwater
S'NN'
p968
tp969
F29
s(Vbesides
g82
tp970
F1
s(Vcalmly
g19
tp971
F1
s(Vagain
S'RB'
p972
tp973
F19
s(Vleap
g16
tp974
F1
s(Vfruits
g14
tp975
F1
s(Vlabors
g14
tp976
F1
s(Voverboard
g57
tp977
F2
s(VTherefore
g33
tp978
F1
s(Vdrank
g8
tp979
F1
s(Vswept
g8
tp980
F1
s(Vproud
g19
tp981
F1
s(Vterrible
g8
tp982
F3
s(Vdoubts
g14
tp983
F1
s(VSail
g70
tp984
F1
s(Vagitating
g4
tp985
F1
s(Vtrades
g14
tp986
F1
s(Vofficers
g14
tp987
F19
s(VLast
S'JJ'
p988
tp989
F2
s(VTurkish
g8
tp990
F1
s(Vbear
g16
tp991
F5
s(g67
S','
tp992
F2
s(VHis
S'PRP$'
p993
tp994
F41
s(Vretaken
g35
tp995
F1
s(Vwind
g8
tp996
F1
s(VTill
g16
tp997
F1
s(Vreached
g35
tp998
F3
s(Vcostumed
g37
tp999
F1
s(Vfigs
g14
tp1000
F1
s(Vpursued
g35
tp1001
F3
s(Vshowed
g37
tp1002
F7
s(Vsatisfied
g35
tp1003
F2
s(Vdesirous
g8
tp1004
F2
s(Vordinary
g8
tp1005
F1
s(Vhoards
g14
tp1006
F1
s(Vpassing
g19
tp1007
F3
s(Vwellknown
g8
tp1008
F1
s(VAmsterdam
g70
tp1009
F1
s(Vquick
g19
tp1010
F1
s(Vauspices
g14
tp1011
F1
s(Vmeanwhile
g19
tp1012
F11
s(Vpilot
g19
tp1013
F8
s(Vaccompanied
g35
tp1014
F1
s(Vher
g618
tp1015
F77
s(Viron
g19
tp1016
F3
s(Vforesail
g19
tp1017
F1
s(Vwaked
g35
tp1018
F3
s(Vshriek
g19
tp1019
F1
s(Vcut
g35
tp1020
F4
s(Vhurling
g4
tp1021
F1
s(Vdeepest
g28
tp1022
F1
s(Vmoving
g4
tp1023
F10
s(Vmust
S'MD'
p1024
tp1025
F41
s(VAnn
g70
tp1026
F1
s(Vaccounts
g82
tp1027
F1
s(VTaking
g4
tp1028
F2
s(Vtwenty
g62
tp1029
F1
s(Vprivilege
g19
tp1030
F1
s(VThirty
g70
tp1031
F1
s(Vheir
g19
tp1032
F2
s(S'PRP'
p1033
g122
tp1034
F55
s(Vcreation
g19
tp1035
F1
s(Vheights
g14
tp1036
F1
s(Vranged
g35
tp1037
F2
s(Vsight
g19
tp1038
F30
s(Voutward
g19
tp1039
F1
s(Vprepare
g19
tp1040
F1
s(S'('
g389
tp1041
F1
s(Vinterviews
g14
tp1042
F1
s(Vbrave
g8
tp1043
F4
s(Vgrappled
g35
tp1044
F1
s(S':'
S'JJ'
p1045
tp1046
F19
s(Vhesitate
g16
tp1047
F2
s(Vinfested
g37
tp1048
F1
s(Vbound
g35
tp1049
F1
s(Vbecame
S'VBD'
p1050
tp1051
F11
s(Vswiftly
g33
tp1052
F1
s(Vballs
g14
tp1053
F1
s(Vcarry
g16
tp1054
F11
s(Vvaluable
g8
tp1055
F2
s(Vcoin
g19
tp1056
F4
s(Vsurface
g19
tp1057
F3
s(Vfriendship
g19
tp1058
F5
s(Vshock
g19
tp1059
F1
s(g123
g281
tp1060
F3
s(VG.
g70
tp1061
F1
s(Vwealthy
g8
tp1062
F1
s(Vcontributions
g14
tp1063
F1
s(VEnglishman
g70
tp1064
F4
s(S'('
S'IN'
p1065
tp1066
F3
s(Vpreside
g16
tp1067
F1
s(V`a
g70
tp1068
F1
s(Vsupposed
g37
tp1069
F3
s(Vfitted
g37
tp1070
F2
s(Vdirection
S'NN'
p1071
tp1072
F14
s(Vthink
g60
tp1073
F8
s(g16
S'NNP'
p1074
tp1075
F10
s(Vthick
g8
tp1076
F2
s(V`I
g33
tp1077
F6
s(Vacquaint
g16
tp1078
F1
s(Vevents
S'NNS'
p1079
tp1080
F3
s(Vestablishment
g19
tp1081
F1
s(Vbelong
g19
tp1082
F1
s(VAll
g166
tp1083
F5
s(Vyouth
g19
tp1084
F3
s(Vsympathy
g19
tp1085
F4
s(S'DT'
p1086
g281
tp1087
F4
s(Vsafely
g33
tp1088
F8
s(Vplease
g60
tp1089
F1
s(Vsplendor
g19
tp1090
F2
s(S'NNP'
p1091
S'PRP'
p1092
tp1093
F8
s(Vplants
S'NNS'
p1094
tp1095
F1
s(VHercules
g70
tp1096
F1
s(VGazette
g70
tp1097
F1
s(Vhold
g19
tp1098
F3
s(Vpray
g60
tp1099
F2
s(Vtask
g19
tp1100
F1
s(VSir
S'NNP'
p1101
tp1102
F11
s(Vassures
g14
tp1103
F1
s(Vdomains
g14
tp1104
F1
s(Vbetween
S'IN'
p1105
tp1106
F20
s(Vforemast
g19
tp1107
F2
s(Vmechanically
g33
tp1108
F1
s(Vtribute
g19
tp1109
F2
s(VAct
S'NNP'
p1110
tp1111
F1
s(Vvisage
g19
tp1112
F4
s(Vtemptation
g19
tp1113
F2
s(VReine
g70
tp1114
F1
s(Vattract
g16
tp1115
F2
s(Vparticularly
S'RB'
p1116
tp1117
F2
s(Vcried
g35
tp1118
F10
s(Vzeal
g19
tp1119
F1
s(Vsee
g16
tp1120
F36
s(Vfifth
g8
tp1121
F2
s(Vwives
g14
tp1122
F1
s(Vthan
S'IN'
p1123
tp1124
F47
s(Vgilded
g37
tp1125
F1
s(g109
S'PRP$'
p1126
tp1127
F5
s(Vallowed
g37
tp1128
F1
s(Vwaiting
g4
tp1129
F5
s(g18
g789
tp1130
F1
s(Vembraced
g35
tp1131
F1
s(Vrepeated
g37
tp1132
F1
s(Vholy
g19
tp1133
F1
s(Vbreezes
g19
tp1134
F1
s(Vfalconets
g14
tp1135
F4
s(V-one
g19
tp1136
F1
s(Vbarge
g19
tp1137
F1
s(Vpoop-deck
g19
tp1138
F1
s(S'POS'
p1139
g19
tp1140
F68
s(S'VB'
p1141
g62
tp1142
F4
s(Vbrave
g16
tp1143
F1
s(Vhope
g60
tp1144
F3
s(Vquiet
g8
tp1145
F1
s(Vexercises
g14
tp1146
F1
s(Vappearance
g19
tp1147
F13
s(Vmine
g19
tp1148
F2
s(Vsounded
g35
tp1149
F1
s(Vclosed
g37
tp1150
F1
s(Veat
g19
tp1151
F1
s(Vleave
g19
tp1152
F4
s(g35
g16
tp1153
F1
s(Vwarm
g8
tp1154
F1
s(Vhanded
g37
tp1155
F1
s(Vforced
g37
tp1156
F2
s(Vfinger
g19
tp1157
F1
s(Vadvancing
g4
tp1158
F4
s(Vperfectly
g33
tp1159
F1
s(Vcliff
g19
tp1160
F10
s(g67
S'MD'
p1161
tp1162
F17
s(VIts
S'PRP$'
p1163
tp1164
F1
s(Vconcealed
g37
tp1165
F3
s(Vrichest
g28
tp1166
F1
s(Vretire
g16
tp1167
F6
s(Vwhence
g19
tp1168
F1
s(g578
g35
tp1169
F101
s(Vspur
g19
tp1170
F1
s(Vintervals
g14
tp1171
F4
s(Vdaughter
g19
tp1172
F25
s(VTwenty
g62
tp1173
F1
s(Vsenor
g16
tp1174
F2
s(Vspanker
g19
tp1175
F1
s(Vgains
S'NNS'
p1176
tp1177
F1
s(Vlie
g16
tp1178
F4
s(Vcrash
g19
tp1179
F1
s(Vabove
g8
tp1180
F1
s(Vat
g580
tp1181
F201
s(g19
S'('
tp1182
F1
s(V`I
g8
tp1183
F11
s(Vunderweigh
g8
tp1184
F8
s(Vverdure
g19
tp1185
F1
s(Vtrade
g16
tp1186
F1
s(VSeeing
g4
tp1187
F1
s(Vstrange
g8
tp1188
F4
s(Vyonder
g19
tp1189
F4
s(V28
S'CD'
p1190
tp1191
F1
s(g27
g33
tp1192
F19
s(VDescending
g4
tp1193
F1
s(Vtribes
g14
tp1194
F2
s(Vrose
S'VBD'
p1195
tp1196
F10
s(Vfortune
g19
tp1197
F2
s(Vinstantly
g33
tp1198
F5
s(Vnevertheless
g33
tp1199
F1
s(VLeaving
g4
tp1200
F1
s(Vpenetrating
g4
tp1201
F1
s(Vcompelled
g35
tp1202
F3
s(Vancient
g8
tp1203
F2
s(Vfirmly
g33
tp1204
F4
s(Vbecome
g16
tp1205
F2
s(Vreported
g35
tp1206
F2
s(Vgreen
g8
tp1207
F9
s(Vallows
g82
tp1208
F1
s(Vrank
g19
tp1209
F3
s(VSaint
g70
tp1210
F1
s(g35
S'MD'
p1211
tp1212
F2
s(Vcaught
g37
tp1213
F3
s(Vinjuries
g14
tp1214
F1
s(Vforests
g14
tp1215
F2
s(Vsavage
g19
tp1216
F1
s(g37
S'JJ'
p1217
tp1218
F85
s(VCORSAIR
g70
tp1219
F1
s(Vcontained
g35
tp1220
F1
s(g57
g70
tp1221
F220
s(Vhandle
g60
tp1222
F1
s(Vdeliberation
g19
tp1223
F1
s(Vthousand
g19
tp1224
F5
s(Vdressed
g35
tp1225
F6
s(Vday-time
g19
tp1226
F1
s(Vpressing
g4
tp1227
F1
s(g183
g16
tp1228
F517
s(Vfeared
g35
tp1229
F1
s(Vglassy
g19
tp1230
F1
s(Vread
g19
tp1231
F1
s(Vrepose
g16
tp1232
F1
s(Visland
g19
tp1233
F13
s(Vkey
g8
tp1234
F1
s(Vintroduced
g35
tp1235
F1
s(Vany
S'DT'
p1236
tp1237
F38
s(Vslain
g35
tp1238
F1
s(VPortuguese
g8
tp1239
F1
s(Vabout
g57
tp1240
F35
s(Vdefile
g19
tp1241
F1
s(S':'
g14
tp1242
F1
s(Vrobber
g19
tp1243
F1
s(Vlimbs
g19
tp1244
F1
s(Vchristian
g19
tp1245
F1
s(VHead
g70
tp1246
F3
s(Vdevoted
g35
tp1247
F1
s(Vreceding
g19
tp1248
F3
s(Vaviary
g19
tp1249
F1
s(V`and
g60
tp1250
F2
s(Vcoloured
g37
tp1251
F1
s(Vvessel
g8
tp1252
F2
s(Vcompactly
g33
tp1253
F1
s(VPrincess
g19
tp1254
F1
s(Vrattled
g35
tp1255
F1
s(Vsoldier
g19
tp1256
F2
s(Vstick
g16
tp1257
F1
s(Vgoing
S'VBG'
p1258
tp1259
F4
s(V`Where
g33
tp1260
F2
s(Vpresenting
g4
tp1261
F1
s(Vawaits
g82
tp1262
F2
s(Vcounter
g19
tp1263
F1
s(Vornamented
g35
tp1264
F1
s(Vpiece-meal
g19
tp1265
F1
s(Vobserve
g16
tp1266
F1
s(V`She
g19
tp1267
F8
s(V`Ho
g19
tp1268
F2
s(VTuscany
g70
tp1269
F2
s(Vfastened
g37
tp1270
F1
s(Vstarting
g4
tp1271
F1
s(Vplatform
g19
tp1272
F1
s(Vover
g23
tp1273
F2
s(Vreference
g19
tp1274
F1
s(Vwondering
g4
tp1275
F1
s(Vseem
g60
tp1276
F2
s(Vwalking
g4
tp1277
F3
s(Veluded
g35
tp1278
F1
s(Vseventy
g19
tp1279
F1
s(Vliterally
g33
tp1280
F1
s(Vdress
g19
tp1281
F1
s(Vidly
g33
tp1282
F1
s(Vpirate
g19
tp1283
F47
s(Vvengeance
g19
tp1284
F2
s(V`Cast
g33
tp1285
F1
s(Vdonations
g14
tp1286
F1
s(Vup
g23
tp1287
F62
s(Vlong
g8
tp1288
F18
s(Vsuspect
g16
tp1289
F5
s(g37
S','
tp1290
F65
s(Vcommanded
g37
tp1291
F4
s(VHidalgos
g70
tp1292
F1
s(Vmatins
g14
tp1293
F1
s(Vlargest
g28
tp1294
F1
s(Vpillow
g19
tp1295
F1
s(Ventrance
g19
tp1296
F14
s(VGibraltar.
g70
tp1297
F1
s(Vwishes
g82
tp1298
F1
s(Vpracticed
g8
tp1299
F1
s(Vprosperous
g8
tp1300
F3
s(Vempire
g19
tp1301
F1
s(S'FW'
p1302
S'.'
tp1303
F1
s(Vtraversed
g37
tp1304
F1
s(Vdey
g19
tp1305
F1
s(Vunbridled
g8
tp1306
F1
s(Vchief
g8
tp1307
F1
s(S'JJ'
p1308
g67
tp1309
F1
s(Vsir
g33
tp1310
F1
s(Vrowing
g4
tp1311
F1
s(Vemergency
S'NN'
p1312
tp1313
F2
s(Vrisk
g19
tp1314
F2
s(Varrested
g37
tp1315
F1
s(Vsubmission
g19
tp1316
F1
s(Vheadlong
g33
tp1317
F1
s(Varch
g19
tp1318
F1
s(Vsugar
g19
tp1319
F1
s(Vgenerous
g8
tp1320
F3
s(Varousing
g4
tp1321
F1
s(Vonher
g8
tp1322
F1
s(Vflask
g19
tp1323
F1
s(Vcaique
g19
tp1324
F5
s(V`Till
g19
tp1325
F1
s(Vcommanding
g8
tp1326
F1
s(V`if
g57
tp1327
F1
s(Vwithin
S'IN'
p1328
tp1329
F29
s(g70
g8
tp1330
F5
s(Vfather
g57
tp1331
F1
s(Vsuspected
g37
tp1332
F2
s(Vsplintered
g35
tp1333
F1
s(Venlarged
g37
tp1334
F1
s(Vpossess
g16
tp1335
F3
s(Valternative
g19
tp1336
F4
s(VLoose
g16
tp1337
F1
s(Vbehind
g57
tp1338
F11
s(g16
g14
tp1339
F14
s(Vnoon
g19
tp1340
F2
s(V`Tell
g16
tp1341
F1
s(V's
g82
tp1342
F1
s(Vpale
g19
tp1343
F2
s(Vgrandeur
g19
tp1344
F1
s(Vchapel
g19
tp1345
F2
s(Vfreedom
g19
tp1346
F1
s(VYork
S'NNP'
p1347
tp1348
F5
s(Vkindly
g33
tp1349
F1
s(Vinterruption
g19
tp1350
F1
s(Vshudder
g19
tp1351
F1
s(g1139
g18
tp1352
F2
s(Vart
g19
tp1353
F2
s(Vsteadily
g33
tp1354
F7
s(Vconfirmed
g35
tp1355
F1
s(Vbullion-freighted
g8
tp1356
F1
s(Vorder
S'NN'
p1357
tp1358
F13
s(Vvarious
S'JJ'
p1359
tp1360
F1
s(g106
g606
tp1361
F2
s(VBrazils
g70
tp1362
F1
s(Vsoft
g8
tp1363
F2
s(V`Unveil
g19
tp1364
F1
s(Vbravery
g19
tp1365
F3
s(Vcause
g19
tp1366
F8
s(Vexpose
g16
tp1367
F1
s(V,
S','
tp1368
F2213
s(Vburnished
g8
tp1369
F1
s(Vpersonal
S'JJ'
p1370
tp1371
F2
s(Vwithheld
g60
tp1372
F1
s(Vsleep
g19
tp1373
F1
s(g33
g27
tp1374
F63
s(Vchart
g19
tp1375
F1
s(Vslay
g19
tp1376
F1
s(g35
g37
tp1377
F4
s(Vcrimson
g8
tp1378
F2
s(Vlong
g33
tp1379
F11
s(Vpursuer
g19
tp1380
F1
s(Vprevented
g35
tp1381
F2
s(Vanimation
g19
tp1382
F4
s(Vhands
g14
tp1383
F19
s(g33
g183
tp1384
F50
s(Vemerged
g37
tp1385
F1
s(Vattention
S'NN'
p1386
tp1387
F4
s(Vbe
g1141
tp1388
F177
s(Vwave
g16
tp1389
F2
s(VAssist
g16
tp1390
F1
s(V`But
g33
tp1391
F1
s(Vearly
g8
tp1392
F1
s(VBy
S'IN'
p1393
tp1394
F10
s(S':'
g4
tp1395
F1
s(Vsteed
g19
tp1396
F1
s(Vmoonlight
g19
tp1397
F2
s(Valmondes
g14
tp1398
F1
s(Veventually
S'RB'
p1399
tp1400
F1
s(Vred-lining
g19
tp1401
F1
s(Viced
g35
tp1402
F1
s(Vsad
g8
tp1403
F7
s(Vread
g37
tp1404
F1
s(Vfire
g19
tp1405
F18
s(S','
S':'
tp1406
F5
s(Vcaiques
g14
tp1407
F1
s(VParadise
g70
tp1408
F1
s(Vlieth
g19
tp1409
F1
s(Vcaptains
g14
tp1410
F3
s(Vgallant
g19
tp1411
F1
s(Veffecting
g4
tp1412
F1
s(Vrichly
g33
tp1413
F5
s(Veluding
g4
tp1414
F1
s(Vwhich
g67
tp1415
F191
s(Vturbaned
g8
tp1416
F1
s(Vdesired
g37
tp1417
F3
s(VSenor
g70
tp1418
F2
s(Vheavier
g55
tp1419
F1
s(Vswinging
g4
tp1420
F2
s(S'RB'
p1421
g122
tp1422
F36
s(Vfit
g8
tp1423
F2
s(Vfig-tree
g8
tp1424
F1
s(Vwonder
g19
tp1425
F1
s(Vfront
g19
tp1426
F3
s(g70
S'RB'
p1427
tp1428
F21
s(Vappropriated
g37
tp1429
F2
s(Vbrothers
g14
tp1430
F4
s(g23
g67
tp1431
F1
s(g1139
g33
tp1432
F1
s(Vheeling
g19
tp1433
F1
s(Vregard
g16
tp1434
F1
s(g70
g207
tp1435
F1
s(Vlately
g33
tp1436
F1
s(Vlaid
g37
tp1437
F2
s(S'.'
g207
tp1438
F535
s(Vdomain
g19
tp1439
F2
s(Vassaulted
g35
tp1440
F1
s(S'VBG'
p1441
g35
tp1442
F42
s(Vpassing
g4
tp1443
F7
s(Vnarcotic
g8
tp1444
F1
s(Vworst
g28
tp1445
F1
s(Velated
g8
tp1446
F1
s(g241
g16
tp1447
F94
s(S'IN'
p1448
g8
tp1449
F238
s(Vconsair
g19
tp1450
F2
s(Vwhat
g281
tp1451
F34
s(g1091
g16
tp1452
F2
s(Vthee
g57
tp1453
F1
s(Vvidettes
g14
tp1454
F1
s(VTREMONT
g70
tp1455
F1
s(Vruins
g14
tp1456
F2
s(Vopinion
S'NN'
p1457
tp1458
F5
s(Vgreater
S'JJR'
p1459
tp1460
F3
s(Vdetermined
g8
tp1461
F3
s(g19
g33
tp1462
F136
s(Vmade
g37
tp1463
F19
s(Vseldom
g33
tp1464
F1
s(Vfoundations
g14
tp1465
F1
s(Voff
g33
tp1466
F3
s(Vnorth
g19
tp1467
F8
s(g606
g122
tp1468
F15
s(Veighty
g19
tp1469
F1
s(Vnever
S'RB'
p1470
tp1471
F13
s(Vfare
g19
tp1472
F1
s(Vvine-dresser
g19
tp1473
F4
s(Vjewels
g14
tp1474
F13
s(Vblazed
g35
tp1475
F3
s(Vsubdued
g35
tp1476
F1
s(Vframe
g19
tp1477
F2
s(Vcaptor
g19
tp1478
F1
s(Vlieutenant
g19
tp1479
F18
s(Vmeans
g19
tp1480
F2
s(Vcutlass
g19
tp1481
F1
s(Vbounded
g37
tp1482
F1
s(g70
g102
tp1483
F23
s(Vminerets
g14
tp1484
F1
s(Vsisters
g14
tp1485
F1
s(g67
g675
tp1486
F1
s(Vdipping
g4
tp1487
F1
s(Vcombustible
g8
tp1488
F1
s(g690
g618
tp1489
F24
s(Vsafer
g33
tp1490
F1
s(Vanchored
g57
tp1491
F1
s(Vleft
g8
tp1492
F4
s(Vencircled
g37
tp1493
F1
s(g247
S')'
tp1494
F1
s(Vcruising
g4
tp1495
F3
s(Vkneeled
g37
tp1496
F1
s(Vlighter
g8
tp1497
F1
s(Vexpects
S'VBZ'
p1498
tp1499
F1
s(VMancha
g19
tp1500
F1
s(S'NNS'
p1501
S'.'
tp1502
F216
s(Vreflected
g37
tp1503
F2
s(Vavariciously
g33
tp1504
F1
s(Vluxuries
g14
tp1505
F1
s(S':'
g554
tp1506
F12
s(VMEDITERRANEAN
g70
tp1507
F1
s(Vlanding
g19
tp1508
F2
s(V`And
g16
tp1509
F2
s(Vsource
S'NN'
p1510
tp1511
F1
s(Vyard
g19
tp1512
F2
s(Vher.
g19
tp1513
F1
s(Vsweep
g19
tp1514
F1
s(Vrules
S'NNS'
p1515
tp1516
F2
s(g1217
g183
tp1517
F64
s(Vsprung
g8
tp1518
F1
s(V`Shawls
g19
tp1519
F1
s(Vdirectly
g1427
tp1520
F5
s(g37
g19
tp1521
F57
s(Vunderstanding
g19
tp1522
F1
s(Vold
S'JJ'
p1523
tp1524
F7
s(Vcane
g19
tp1525
F1
s(S':'
g70
tp1526
F6
s(Vpriceless
g8
tp1527
F1
s(Vconsent
g16
tp1528
F1
s(VSuddenly
g33
tp1529
F3
s(Vfitting
g4
tp1530
F1
s(g82
g27
tp1531
F106
s(Vuniform
g19
tp1532
F1
s(Vremaining
g4
tp1533
F3
s(Vcourtier
g55
tp1534
F1
s(Vheavy
g8
tp1535
F14
s(Vor
S'CC'
p1536
tp1537
F77
s(Vgalleons
g14
tp1538
F4
s(Vforth
g33
tp1539
F1
s(Vconvinced
g35
tp1540
F1
s(Vmouth
g19
tp1541
F5
s(Vnorthern
g8
tp1542
F5
s(Vdeep-souled
g8
tp1543
F1
s(Vpeering
g4
tp1544
F1
s(V7\u005c
g62
tp1545
F1
s(Vtopmasts
g14
tp1546
F1
s(g1139
S':'
tp1547
F2
s(Vseen
g721
tp1548
F45
s(Vrigged
g35
tp1549
F1
s(Vdare
g19
tp1550
F1
s(Vcontracted
g37
tp1551
F1
s(Vended
g37
tp1552
F1
s(Vdiscern
g60
tp1553
F1
s(VEliseo
g70
tp1554
F3
s(Vneither
g241
tp1555
F1
s(Vconveyed
g35
tp1556
F3
s(Vchai
g19
tp1557
F2
s(Vsquall
g19
tp1558
F1
s(Vennuch
g19
tp1559
F1
s(Vcraft
g19
tp1560
F6
s(Vsurprise
g19
tp1561
F13
s(Vskilfully
g33
tp1562
F1
s(Vcomfortably
g33
tp1563
F1
s(Vguilty
S'JJ'
p1564
tp1565
F1
s(g82
g14
tp1566
F2
s(Vcoming
g4
tp1567
F7
s(Vfearful
g8
tp1568
F3
s(Vinside
g19
tp1569
F1
s(VStay
g70
tp1570
F1
s(Vshore
g19
tp1571
F50
s(Vcheerful
g19
tp1572
F2
s(Vquite
g33
tp1573
F3
s(Vcast
g37
tp1574
F3
s(Vbent
g19
tp1575
F1
s(V`Alla
g19
tp1576
F1
s(Vloaded
g35
tp1577
F5
s(Vutmost
g8
tp1578
F1
s(Vflies
g82
tp1579
F1
s(VAvarice
g70
tp1580
F1
s(Vsurround
g16
tp1581
F1
s(Vintelligence
g19
tp1582
F5
s(Vacceptance
g19
tp1583
F1
s(Vlay
g60
tp1584
F1
s(Vpolished
g37
tp1585
F1
s(Vnearest
g28
tp1586
F2
s(Vfourth
S'JJ'
p1587
tp1588
F4
s(Vill-manned
g8
tp1589
F1
s(VAllah
g33
tp1590
F2
s(Vwounded
g8
tp1591
F2
s(Vpa'ace
g19
tp1592
F1
s(Vroll
g60
tp1593
F1
s(Vceremony
g19
tp1594
F4
s(Vlaughing
g4
tp1595
F3
s(Vdestination
g19
tp1596
F1
s(Vbelow
g57
tp1597
F8
s(g8
S':'
tp1598
F9
s(V`Those
g33
tp1599
F1
s(Vtaste
g19
tp1600
F1
s(Vlying
g19
tp1601
F1
s(Vfoe
g19
tp1602
F1
s(Vconvents
g14
tp1603
F1
s(Vbelong
g16
tp1604
F1
s(Vpurchase
g16
tp1605
F1
s(V`whether
g241
tp1606
F1
s(Vsuspecting
g4
tp1607
F6
s(Vrefuse
g60
tp1608
F1
s(VEND
g19
tp1609
F1
s(g281
g14
tp1610
F1
s(g1141
g1536
tp1611
F11
s(g23
g109
tp1612
F1
s(Vremoved
g35
tp1613
F2
s(V`on
g70
tp1614
F1
s(VSlaves
g14
tp1615
F1
s(Vstar
g19
tp1616
F1
s(Vwar
S'NN'
p1617
tp1618
F18
s(Vcourier
g19
tp1619
F1
s(Vshape
g19
tp1620
F5
s(V`Mashallah
g19
tp1621
F1
s(Vneared
g37
tp1622
F1
s(Vtherefore
g19
tp1623
F1
s(Vunburied
g8
tp1624
F1
s(VKIDD
g70
tp1625
F1
s(Vhide-sacks
g14
tp1626
F1
s(Vrange
g19
tp1627
F10
s(Vvigorous
g8
tp1628
F1
s(Vhorizon
g19
tp1629
F9
s(VAjaib
g70
tp1630
F1
s(Vcolor
g19
tp1631
F1
s(Vsafe-port
g19
tp1632
F1
s(Vmany
S'JJ'
p1633
tp1634
F17
s(Vcrosair
g19
tp1635
F2
s(Varray
g19
tp1636
F1
s(Vsuch
g8
tp1637
F12
s(Vsit
g16
tp1638
F1
s(VDo
g16
tp1639
F5
s(VThrough
g57
tp1640
F1
s(Vunderstood
g37
tp1641
F1
s(V`And
g19
tp1642
F12
s(Vlatter
g19
tp1643
F1
s(Vwear
g16
tp1644
F1
s(Vgushing
g19
tp1645
F1
s(V`Well
g19
tp1646
F11
s(Varrival
g19
tp1647
F4
s(Vsearch
g19
tp1648
F1
s(Vteeth
g14
tp1649
F2
s(g580
g281
tp1650
F6
s(Vprofit
g19
tp1651
F1
s(Vmarry
g16
tp1652
F1
s(Vattired
g37
tp1653
F1
s(Vdoubling
g4
tp1654
F1
s(Vmilk
g19
tp1655
F1
s(Vanticipating
g4
tp1656
F1
s(V1844
g62
tp1657
F2
s(Vinland
g19
tp1658
F1
s(Veasily
S'RB'
p1659
tp1660
F2
s(V`Name
g19
tp1661
F2
s(Vpearls
g14
tp1662
F1
s(Vchased
g8
tp1663
F1
s(Vboatmen
g14
tp1664
F1
s(Vcourtesy
g19
tp1665
F1
s(Vsabre
g82
tp1666
F1
s(Vunseen
g19
tp1667
F1
s(Vpresumption
g19
tp1668
F1
s(Vthousand
g8
tp1669
F3
s(Vbetter
g55
tp1670
F2
s(Vantagonist
g19
tp1671
F1
s(g19
S'VBP'
p1672
tp1673
F36
s(Vblessing
g4
tp1674
F1
s(Vexpected
g37
tp1675
F1
s(Vcunning
g4
tp1676
F1
s(Vpitiful
g8
tp1677
F1
s(Vforemost
g19
tp1678
F2
s(VReina
g70
tp1679
F1
s(Vshrunk
g19
tp1680
F1
s(Vhope
g19
tp1681
F9
s(Vlawless
g16
tp1682
F1
s(Vfore-mast
g19
tp1683
F2
s(Vstreets
g14
tp1684
F3
s(Vretreating
g4
tp1685
F2
s(Vlest
g28
tp1686
F2
s(Vscuttled
g37
tp1687
F1
s(V`Sir
g19
tp1688
F1
s(g675
S'IN'
p1689
tp1690
F1
s(Vprospect
g19
tp1691
F1
s(Vprior
g33
tp1692
F1
s(Vglancing
g19
tp1693
F2
s(Vtriumph
g19
tp1694
F2
s(Vnext
g8
tp1695
F17
s(g60
g14
tp1696
F8
s(Vchivalrous
g8
tp1697
F2
s(VBaptista
g70
tp1698
F16
s(VCourt
S'NNP'
p1699
tp1700
F2
s(Vhappen
g60
tp1701
F2
s(Vpreserve
g16
tp1702
F2
s(Vmarble
g8
tp1703
F3
s(g30
S','
tp1704
F6
s(Vforever
g33
tp1705
F1
s(Vrefused
g37
tp1706
F2
s(Vconvoy
g16
tp1707
F2
s(Vtwenty-two
g19
tp1708
F1
s(Vserve
g16
tp1709
F13
s(Vruined
g8
tp1710
F1
s(Vsluggishly
g33
tp1711
F1
s(Vbeamed
g37
tp1712
F1
s(g14
g8
tp1713
F8
s(V`A
g19
tp1714
F1
s(Vpublicly
S'RB'
p1715
tp1716
F1
s(Vcomes
S'VBZ'
p1717
tp1718
F10
s(g1065
g35
tp1719
F9
s(Ventered
g37
tp1720
F20
s(VNot
S'RB'
p1721
tp1722
F2
s(Vcircle
g19
tp1723
F1
s(S':'
g16
tp1724
F4
s(Vdefend
g16
tp1725
F5
s(Vblue
g8
tp1726
F12
s(Voriental
g8
tp1727
F1
s(Vsome
S'DT'
p1728
tp1729
F49
s(Vwrecked
g35
tp1730
F1
s(Vrough
g8
tp1731
F1
s(Vavoiding
g4
tp1732
F1
s(Vproportions
g14
tp1733
F2
s(Veye-lashes
g14
tp1734
F1
s(Vpicaro
g19
tp1735
F1
s(V-By
g8
tp1736
F1
s(Vroyal
g19
tp1737
F2
s(g55
g14
tp1738
F3
s(Vchord
g19
tp1739
F1
s(Vrepairing
g4
tp1740
F1
s(Vdead
g8
tp1741
F7
s(Vwings
g14
tp1742
F1
s(Vcalled
g37
tp1743
F5
s(Vperished
g35
tp1744
F4
s(VSo
g33
tp1745
F2
s(Vrequire
g60
tp1746
F1
s(g33
g60
tp1747
F27
s(VFather
g70
tp1748
F3
s(Vhoping
g4
tp1749
F2
s(Vdying
g4
tp1750
F1
s(g207
g789
tp1751
F1
s(g16
S','
tp1752
F53
s(Vlearned
g37
tp1753
F3
s(Vaffliction
g19
tp1754
F2
s(Vbrethren
g14
tp1755
F1
s(Vposition
S'NN'
p1756
tp1757
F8
s(Vmourns
g82
tp1758
F1
s(g102
g480
tp1759
F28
s(Vcapture
g16
tp1760
F3
s(Vcompel
g16
tp1761
F1
s(Vcrowding
g4
tp1762
F1
s(Vreporting
g4
tp1763
F1
s(Vexamine
g16
tp1764
F2
s(Vlimits
g14
tp1765
F1
s(Vparadise
g16
tp1766
F1
s(Vcharge
g19
tp1767
F2
s(Vfancy
g16
tp1768
F2
s(Vtrumpet
g19
tp1769
F2
s(Vkiss
g16
tp1770
F1
s(Vconsult
g16
tp1771
F1
s(Vtold
g35
tp1772
F9
s(Vpassengers
g14
tp1773
F3
s(VBelfort
g16
tp1774
F1
s(Vinumerable
g8
tp1775
F1
s(g102
g8
tp1776
F48
s(Vsentinels
g14
tp1777
F1
s(Vcombatants
g14
tp1778
F1
s(Vbreath
g19
tp1779
F2
s(Vthickened
g35
tp1780
F1
s(Vmain-topsail
g8
tp1781
F1
s(Vlearn
g16
tp1782
F3
s(Vsixty
g8
tp1783
F1
s(Vsized
g35
tp1784
F1
s(Vhoused
g37
tp1785
F2
s(V`This
g8
tp1786
F3
s(Varoma
g19
tp1787
F1
s(g4
g57
tp1788
F174
s(Valoft
g33
tp1789
F11
s(V4\u005c
g62
tp1790
F1
s(g35
g21
tp1791
F1
s(Vball
g19
tp1792
F3
s(Vhabit
g19
tp1793
F1
s(Vof
g18
tp1794
F1260
s(Vlookout
g19
tp1795
F3
s(Vchest
g19
tp1796
F2
s(Vlet
g60
tp1797
F3
s(Vanchored
g37
tp1798
F2
s(Vduring
S'IN'
p1799
tp1800
F6
s(Vstood
g37
tp1801
F25
s(Vround
g37
tp1802
F4
s(Vrevenge
g19
tp1803
F1
s(Vunfastened
g37
tp1804
F1
s(Vdeposited
g37
tp1805
F3
s(V`Inshallah
g19
tp1806
F1
s(Vclasping
g4
tp1807
F2
s(Vhonor
g19
tp1808
F3
s(Varoma
g8
tp1809
F1
s(Vlooks
g82
tp1810
F2
s(VDistrict
g70
tp1811
F1
s(Vwistfully
g33
tp1812
F1
s(Vdesire
g19
tp1813
F8
s(Vmain
S'JJ'
p1814
tp1815
F4
s(Vgazed
g37
tp1816
F1
s(Vused
g35
tp1817
F3
s(Vpreviously
S'RB'
p1818
tp1819
F3
s(Vstern
g8
tp1820
F10
s(Vearned
g35
tp1821
F2
s(VHaroun-Almad
g70
tp1822
F1
s(Vgo
g16
tp1823
F20
s(Vmuch
g33
tp1824
F8
s(Vbreeze.
g19
tp1825
F1
s(Vdisabled
g37
tp1826
F1
s(Vdaughters
g14
tp1827
F1
s(Valighted
g37
tp1828
F1
s(Vdid
S'VBD'
p1829
tp1830
F33
s(Vcried
g8
tp1831
F2
s(Vhell
g16
tp1832
F1
s(Vsaid
S'VBD'
p1833
tp1834
F123
s(Vbeautiful
g8
tp1835
F18
s(Venable
g16
tp1836
F4
s(Vexclaim
g19
tp1837
F1
s(Varrived
g37
tp1838
F1
s(Vaffords
g82
tp1839
F1
s(Vsparkle
g19
tp1840
F1
s(Vyet
g241
tp1841
F1
s(Vfanned
g37
tp1842
F1
s(Vunlike
S'IN'
p1843
tp1844
F1
s(Vinstant
g8
tp1845
F3
s(Vforth
g19
tp1846
F3
s(Vblackest
g28
tp1847
F1
s(Vvisit
g16
tp1848
F6
s(Vpatient
g19
tp1849
F1
s(Vhearing
g4
tp1850
F3
s(VHer
g30
tp1851
F20
s(Vuseful
g8
tp1852
F1
s(Vmats
g14
tp1853
F1
s(S':'
g297
tp1854
F9
s(Vworkmanship
g19
tp1855
F1
s(Vamenity
g19
tp1856
F1
s(Vtell
g60
tp1857
F1
s(Vsecurely
g33
tp1858
F1
s(Vattitude
g19
tp1859
F1
s(V'
g1139
tp1860
F5
s(Vbent
g8
tp1861
F2
s(VGeorgian
g70
tp1862
F11
s(Vwithdraw
g16
tp1863
F1
s(Vcomplacently
g33
tp1864
F1
s(Vgain
g16
tp1865
F3
s(Vforks
g14
tp1866
F1
s(Vif
g1065
tp1867
F81
s(Vaft
g33
tp1868
F2
s(S'DT'
p1869
g35
tp1870
F11
s(g33
g299
tp1871
F8
s(Vswung
g19
tp1872
F1
s(Vshed
g16
tp1873
F1
s(Voriginally
g33
tp1874
F1
s(VEarl
g70
tp1875
F2
s(Vlook
g19
tp1876
F11
s(Vspirited
g8
tp1877
F1
s(Vcomrade
g19
tp1878
F2
s(Vawaiting
g4
tp1879
F1
s(Vgrief
g19
tp1880
F2
s(Vswept
g37
tp1881
F2
s(g389
g70
tp1882
F1
s(Vmunificent
g8
tp1883
F1
s(Vking
g4
tp1884
F2
s(g207
g8
tp1885
F2
s(Vcommand
g19
tp1886
F15
s(g1126
g1126
tp1887
F1
s(Vprecaution
g19
tp1888
F1
s(Vsenora
g82
tp1889
F1
s(Vdestined
g35
tp1890
F1
s(Vfishermen
g14
tp1891
F5
s(Vfar
S'RB'
p1892
tp1893
F21
s(Vflashed
g37
tp1894
F1
s(Vbuttons
g14
tp1895
F2
s(Vbriny
g19
tp1896
F1
s(Vbefore
g57
tp1897
F47
s(Vtrap
g19
tp1898
F1
s(Vmaterial
g19
tp1899
F1
s(Vembarked
g37
tp1900
F1
s(Vparcel
g19
tp1901
F1
s(Vfo
g8
tp1902
F1
s(Vpreached
g35
tp1903
F1
s(Vbreast
g19
tp1904
F2
s(Vstrengthening
g4
tp1905
F1
s(Vaddressing
g4
tp1906
F4
s(Vbefriend
g16
tp1907
F2
s(Vuse
g19
tp1908
F4
s(V`Si
g19
tp1909
F2
s(Vceased
g37
tp1910
F1
s(Vconverse
g16
tp1911
F1
s(Vbitten
g35
tp1912
F1
s(Vcalls
g82
tp1913
F1
s(VAmerica
S'NNP'
p1914
tp1915
F1
s(Vdollars
S'NNS'
p1916
tp1917
F8
s(Vartillery
g19
tp1918
F4
s(Vcrossed
g35
tp1919
F1
s(Vappalling
g8
tp1920
F1
s(Vconstruction
S'NN'
p1921
tp1922
F1
s(S'DT'
p1923
g1139
tp1924
F2
s(VWell
g33
tp1925
F5
s(Vrob
g16
tp1926
F1
s(Vremains
g82
tp1927
F1
s(VAlmad
g70
tp1928
F5
s(Vtouching
g4
tp1929
F1
s(g67
g60
tp1930
F9
s(Vcrashing
g19
tp1931
F1
s(Vmain-topgallant-crosstrees
g14
tp1932
F1
s(Vdust
g19
tp1933
F6
s(Vbottom
g19
tp1934
F2
s(g16
g30
tp1935
F141
s(Vdischarging
g4
tp1936
F1
s(Vdeserted
g37
tp1937
F1
s(Vtrowsers
g14
tp1938
F4
s(Valight
g8
tp1939
F1
s(Varmed
g8
tp1940
F1
s(g55
S'VBD'
p1941
tp1942
F1
s(Vcast
g19
tp1943
F1
s(g37
S':'
tp1944
F11
s(Vcrouched
g37
tp1945
F1
s(Vsplintering
g4
tp1946
F1
s(Vaddressed
g35
tp1947
F1
s(S'DT'
p1948
S':'
tp1949
F2
s(Vdetain
g16
tp1950
F5
s(Vslender
g55
tp1951
F1
s(Vdecide
g16
tp1952
F1
s(Vhill-side
g19
tp1953
F1
s(g37
g789
tp1954
F1
s(Vmisanthropy
g19
tp1955
F1
s(g675
g356
tp1956
F1
s(Vmanners
g14
tp1957
F1
s(VRemain
g19
tp1958
F1
s(VSmiles
g14
tp1959
F1
s(g578
g70
tp1960
F4
s(Vsensible
g8
tp1961
F1
s(Vwe
g748
tp1962
F87
s(g70
S'.'
tp1963
F204
s(Vbuccaneers
g14
tp1964
F1
s(Vscornfully
g33
tp1965
F1
s(Voverwhelmed
g35
tp1966
F1
s(VHo
g19
tp1967
F2
s(Vyoung
S'JJ'
p1968
tp1969
F63
s(Vred
g8
tp1970
F5
s(Vmurdered
g37
tp1971
F1
s(Vdispleasure
g19
tp1972
F1
s(Valready
S'RB'
p1973
tp1974
F6
s(Vsignal
g19
tp1975
F10
s(Vnight-glass
g19
tp1976
F1
s(g14
g30
tp1977
F4
s(Vseat
g19
tp1978
F1
s(Vmountain
g19
tp1979
F4
s(Vburned
g37
tp1980
F2
s(Vspeak
g19
tp1981
F1
s(Vdesecration
g19
tp1982
F1
s(Vtherefore
g33
tp1983
F7
s(Vcrossing
g4
tp1984
F2
s(Vsound
g19
tp1985
F4
s(Vforty-five
g8
tp1986
F1
s(Vsmiled
g37
tp1987
F1
s(Vapartment
g19
tp1988
F6
s(VMash-allah
g19
tp1989
F1
s(Vrefuge
g19
tp1990
F1
s(Vwell
S'UH'
p1991
tp1992
F1
s(Vlikely
g8
tp1993
F5
s(Vsay
g16
tp1994
F2
s(Vgates
g14
tp1995
F3
s(VHe
S'PRP'
p1996
tp1997
F124
s(VInstead
S'RB'
p1998
tp1999
F1
s(Vvolume
S'NN'
p2000
tp2001
F1
s(Vthreshold
g19
tp2002
F1
s(V`Six
g19
tp2003
F1
s(g14
g748
tp2004
F29
s(Vwarmly
g33
tp2005
F1
s(Vfishing
g19
tp2006
F6
s(VAre
g60
tp2007
F1
s(Vhorses
g14
tp2008
F3
s(Vsearch
g37
tp2009
F1
s(Vcrag
g19
tp2010
F2
s(Vazure
g19
tp2011
F1
s(Vforward
g33
tp2012
F8
s(Vsaw
g37
tp2013
F31
s(Vpardon
g19
tp2014
F2
s(VAriadne
g70
tp2015
F1
s(Vclinging
g4
tp2016
F1
s(Vsight
g8
tp2017
F1
s(Vstudded
g35
tp2018
F1
s(Vsermons
g14
tp2019
F1
s(Vsucceeded
g37
tp2020
F1
s(Vbecoming
S'VBG'
p2021
tp2022
F3
s(VPerhaps
S'RB'
p2023
tp2024
F2
s(Vcommerce
g19
tp2025
F1
s(Vvaults
g14
tp2026
F5
s(Vdistinguish
g8
tp2027
F1
s(Vboom
g19
tp2028
F1
s(Vtremble
g60
tp2029
F1
s(Vdo
g16
tp2030
F28
s(S'JJ'
p2031
g1139
tp2032
F1
s(Vdoom
g19
tp2033
F2
s(Vsprung
g19
tp2034
F4
s(Vsternly
g33
tp2035
F3
s(Vpassage
g19
tp2036
F15
s(Vroll
g16
tp2037
F1
s(Vrisen
g35
tp2038
F3
s(Vhouses
S'NNS'
p2039
tp2040
F1
s(Vcommon
S'JJ'
p2041
tp2042
F2
s(Varmed
g37
tp2043
F2
s(Vdancing
g4
tp2044
F1
s(Vsea
g16
tp2045
F4
s(Vkissed
g37
tp2046
F3
s(VPersian
g8
tp2047
F3
s(Vreverence
g19
tp2048
F11
s(Vcruised
g35
tp2049
F1
s(Veast
g8
tp2050
F1
s(Vdesert
g19
tp2051
F10
s(Vwish
g16
tp2052
F2
s(Vpiece
g19
tp2053
F4
s(Vnaked
g8
tp2054
F4
s(Vscarcely
g33
tp2055
F6
s(Vprompt
g8
tp2056
F2
s(VMr.
S'NNP'
p2057
tp2058
F2
s(Vdirect
g19
tp2059
F1
s(Vsince
S'IN'
p2060
tp2061
F11
s(Venergy
S'NN'
p2062
tp2063
F4
s(Vhonest
g19
tp2064
F1
s(Vhard
g8
tp2065
F2
s(Vthank
g60
tp2066
F1
s(Voverhanging
g19
tp2067
F1
s(Vconfident
g8
tp2068
F1
s(Vextravagantly
g33
tp2069
F1
s(VThep
g70
tp2070
F1
s(g1536
g356
tp2071
F38
s(Vdeceived
g37
tp2072
F1
s(Vrevisit
g16
tp2073
F1
s(Vfamiliar
S'JJ'
p2074
tp2075
F6
s(Vtipped
g37
tp2076
F1
s(Vremain
g19
tp2077
F1
s(g19
g1523
tp2078
F37
s(Vcrystal
g19
tp2079
F2
s(Vher
g19
tp2080
F1
s(Vfear
g16
tp2081
F7
s(Vagreeable
g8
tp2082
F1
s(Vunlocked
g8
tp2083
F1
s(Vown
g8
tp2084
F22
s(Vservices
S'NNS'
p2085
tp2086
F3
s(g606
g946
tp2087
F133
s(Vloose
g8
tp2088
F1
s(g14
g122
tp2089
F114
s(Vassume
g60
tp2090
F1
s(Vmantilla
g19
tp2091
F1
s(Vrespecting
g4
tp2092
F1
s(Vspeak
g60
tp2093
F2
s(Vchibouque
g19
tp2094
F1
s(Vscenes
g14
tp2095
F1
s(Vdown
g23
tp2096
F21
s(Vrode
g35
tp2097
F1
s(g207
g241
tp2098
F3
s(Vdrew
g37
tp2099
F4
s(Vimagined
g35
tp2100
F1
s(VSigned
g70
tp2101
F1
s(Vafforded
g35
tp2102
F1
s(Vrespect
g19
tp2103
F2
s(Vcherish
g16
tp2104
F1
s(Vanathema
g19
tp2105
F1
s(g55
g183
tp2106
F3
s(Vfingers
g14
tp2107
F3
s(VSenorita
g70
tp2108
F2
s(Vknown
g8
tp2109
F2
s(Vkept
g37
tp2110
F9
s(S','
S'PRP$'
p2111
tp2112
F48
s(Vdeal
g19
tp2113
F2
s(VOriental
g70
tp2114
F1
s(Vbent
g37
tp2115
F1
s(S'NN'
p2116
g675
tp2117
F6
s(Vformer
S'JJ'
p2118
tp2119
F4
s(Vcollation
g19
tp2120
F1
s(V't
g207
tp2121
F1
s(Vnorthward
g19
tp2122
F4
s(Vjuice
g19
tp2123
F1
s(Vhour
S'NN'
p2124
tp2125
F18
s(g345
g16
tp2126
F59
s(g101
g1564
tp2127
F2
s(Vriver
g19
tp2128
F5
s(V`That
g281
tp2129
F1
s(Vwhitest
g28
tp2130
F1
s(V`Still
g8
tp2131
F1
s(Vlight
g19
tp2132
F10
s(Vfather
g19
tp2133
F28
s(VProvidence
g70
tp2134
F2
s(Vmoon
g19
tp2135
F3
s(Vbelonging
g4
tp2136
F4
s(Vsunk
g60
tp2137
F1
s(VNevertheless
g33
tp2138
F2
s(g21
S'PRP$'
p2139
tp2140
F6
s(Vcushioned
g8
tp2141
F1
s(Vapproached
g35
tp2142
F1
s(Vwrist
g19
tp2143
F1
s(Vcouches
g14
tp2144
F1
s(Vfishing-craft
g19
tp2145
F1
s(Vtwenty
g19
tp2146
F3
s(Vlave
g16
tp2147
F1
s(Vpink
g8
tp2148
F1
s(Vtop-mast
g8
tp2149
F1
s(Vdefeated
g37
tp2150
F1
s(Vpescador
g19
tp2151
F7
s(Vdiscover
g19
tp2152
F1
s(Vbirth
g19
tp2153
F2
s(Vmourning
g4
tp2154
F1
s(Vstruck
g35
tp2155
F3
s(Vfirm
g8
tp2156
F2
s(Vking
g19
tp2157
F13
s(VBoston
S'NNP'
p2158
tp2159
F4
s(Vmiles
S'NNS'
p2160
tp2161
F14
s(Vstrait
g19
tp2162
F1
s(Vkeboabs
g16
tp2163
F1
s(VThen
S'RB'
p2164
tp2165
F4
s(Vready
g19
tp2166
F1
s(Vchiefs
g14
tp2167
F1
s(g35
g183
tp2168
F94
s(Vten
g8
tp2169
F5
s(Vcraven
g33
tp2170
F1
s(Vforesaw
g37
tp2171
F1
s(Vfit
g19
tp2172
F2
s(Vvisaged
g37
tp2173
F1
s(Vdishes
g14
tp2174
F6
s(Vdemanded
g37
tp2175
F4
s(Vmind
g19
tp2176
F5
s(Vmeans
g82
tp2177
F4
s(Vcalibre
g19
tp2178
F1
s(VOF
g57
tp2179
F2
s(Vlingered
g37
tp2180
F2
s(Vadvised
g37
tp2181
F1
s(Vsteered
g37
tp2182
F2
s(Vround
g19
tp2183
F8
s(Vfeet
S'NNS'
p2184
tp2185
F19
s(Vguns
g33
tp2186
F1
s(Vwise
g8
tp2187
F2
s(Vcarefully
g33
tp2188
F2
s(Vaft
g19
tp2189
F5
s(Vfriends
g14
tp2190
F3
s(Vtent
g19
tp2191
F1
s(g35
S':'
tp2192
F7
s(Vweek
S'NN'
p2193
tp2194
F1
s(Vaccounts
g14
tp2195
F1
s(Vinstruct
g16
tp2196
F1
s(g183
S','
tp2197
F5
s(g786
g102
tp2198
F4
s(Villusion
g19
tp2199
F1
s(Vinlets
g14
tp2200
F2
s(VHoly
g70
tp2201
F1
s(Vthings
S'NNS'
p2202
tp2203
F2
s(Vlion
g19
tp2204
F2
s(Vscoured
g35
tp2205
F1
s(g82
g471
tp2206
F26
s(Vobscure
g8
tp2207
F1
s(Vwater-
g8
tp2208
F1
s(Vpresented
g35
tp2209
F2
s(Vdamage
g19
tp2210
F1
s(Vsadness
g19
tp2211
F1
s(V`So
g19
tp2212
F5
s(Vlocking
g4
tp2213
F1
s(Vassumed
g37
tp2214
F1
s(Vprefer
g16
tp2215
F2
s(Vfavor
g19
tp2216
F1
s(Vhiding-place
g19
tp2217
F1
s(Vthence
g19
tp2218
F4
s(Vpresent
g19
tp2219
F2
s(Vdegeneracy
g19
tp2220
F1
s(VGeorge
S'NNP'
p2221
tp2222
F1
s(VGleason
g70
tp2223
F1
s(g60
g23
tp2224
F1
s(g35
g410
tp2225
F9
s(Vexcel
g60
tp2226
F1
s(Vcamels
g14
tp2227
F4
s(Vunwieldy
g8
tp2228
F1
s(V`That
g166
tp2229
F6
s(Vdestruction
g19
tp2230
F2
s(Vfellow
g16
tp2231
F2
s(Vglittered
g37
tp2232
F2
s(Vthy
g19
tp2233
F1
s(Vwatching
g4
tp2234
F14
s(S':'
g82
tp2235
F2
s(Vpermit
g16
tp2236
F2
s(Vhey
g19
tp2237
F1
s(Vthreads
g14
tp2238
F1
s(Vrepresented
g35
tp2239
F2
s(VUpon
g57
tp2240
F6
s(Vwoolen
g8
tp2241
F1
s(Vhave
g16
tp2242
F71
s(Vshawl-dance
g19
tp2243
F1
s(Vplaced
g37
tp2244
F10
s(VHaroun
g70
tp2245
F10
s(Vanchor
g16
tp2246
F4
s(Vcharming
g4
tp2247
F1
s(S','
S'RB'
p2248
tp2249
F106
s(g109
g2116
tp2250
F4
s(VCrowd
g70
tp2251
F1
s(Vbell
g19
tp2252
F2
s(g35
g356
tp2253
F4
s(Veleven
g33
tp2254
F1
s(Vexisted
g37
tp2255
F1
s(Vdignified
g37
tp2256
F1
s(Vstop
g16
tp2257
F2
s(Vdegree
g19
tp2258
F2
s(Vwife
S'NN'
p2259
tp2260
F3
s(g33
S'CD'
p2261
tp2262
F13
s(Vsuperb
g19
tp2263
F1
s(VElisco
g70
tp2264
F2
s(Vother
g2031
tp2265
F35
s(Vcostume
g19
tp2266
F9
s(Vconduct
g19
tp2267
F1
s(Vrequire
g16
tp2268
F2
s(Vcry
g19
tp2269
F1
s(Vbrother
g33
tp2270
F2
s(Vembarked
g35
tp2271
F1
s(Vright
g33
tp2272
F2
s(Vcross-trees
g14
tp2273
F1
s(Vwell-kept
g8
tp2274
F1
s(VEl
g70
tp2275
F4
s(Vpinnacle
g19
tp2276
F2
s(Vcorrectly
g33
tp2277
F1
s(Vunderstand
g16
tp2278
F1
s(Vseated
g35
tp2279
F6
s(Vprepare
g16
tp2280
F2
s(Vbattlement
g19
tp2281
F2
s(Vthou
g19
tp2282
F5
s(Vthoughtful
g8
tp2283
F2
s(Vshould
g1211
tp2284
F57
s(Vashore
g19
tp2285
F2
s(Vappalling
g4
tp2286
F1
s(Vclosing
g19
tp2287
F1
s(Vedges
g14
tp2288
F1
s(Vprofit
g16
tp2289
F1
s(Vsherbet
g19
tp2290
F2
s(Vpounds
g14
tp2291
F1
s(S','
g1302
tp2292
F2
s(Vtwo-thirds
g14
tp2293
F1
s(Vdescribing
g4
tp2294
F1
s(Vproperty
S'NN'
p2295
tp2296
F1
s(Vastern
g33
tp2297
F1
s(Vstepped
g37
tp2298
F2
s(Vchanges
g82
tp2299
F1
s(Vdoubtless
g8
tp2300
F2
s(VexGovernor
g19
tp2301
F1
s(Vbenediction
g19
tp2302
F1
s(Vsounds
g14
tp2303
F2
s(Vgrim
g8
tp2304
F2
s(Vthrobbed
g19
tp2305
F1
s(Vcommunicated
g35
tp2306
F1
s(Vineffectual
g8
tp2307
F1
s(g27
S'RBS'
p2308
tp2309
F11
s(Vcruisers
g14
tp2310
F1
s(Vman-of-war
g19
tp2311
F2
s(Vgun
g19
tp2312
F17
s(g183
g27
tp2313
F197
s(g23
g57
tp2314
F49
s(Vagates
g14
tp2315
F1
s(Vpursuers
g14
tp2316
F1
s(Veye
S'NN'
p2317
tp2318
F27
s(Vwalk
g16
tp2319
F2
s(Vreceived
g35
tp2320
F7
s(Vleading
g4
tp2321
F8
s(Vfrankly
g33
tp2322
F3
s(Vstamped
g8
tp2323
F1
s(Vpiloted
g37
tp2324
F2
s(Vcombating
g19
tp2325
F1
s(Vshivering
g4
tp2326
F1
s(V`unless
g19
tp2327
F1
s(Vowed
g37
tp2328
F1
s(Vamber
g19
tp2329
F1
s(V`shall
g33
tp2330
F1
s(Vappear
g16
tp2331
F2
s(Vblessing
g19
tp2332
F2
s(VSpaniards
g70
tp2333
F4
s(Vbade
g37
tp2334
F2
s(Vsimply
S'RB'
p2335
tp2336
F1
s(Vhurled
g35
tp2337
F1
s(VGalleon
g70
tp2338
F9
s(Vfears
g82
tp2339
F1
s(Vwept
g37
tp2340
F2
s(Velement
g19
tp2341
F1
s(Vgaping
g4
tp2342
F1
s(Vship
g19
tp2343
F88
s(Vnorth
g8
tp2344
F1
s(Vplunged
g35
tp2345
F1
s(Vdamages
S'NNS'
p2346
tp2347
F4
s(S'VBG'
p2348
g8
tp2349
F23
s(Vtke
g19
tp2350
F1
s(Vperceive
g60
tp2351
F1
s(Vpeople
S'NNS'
p2352
tp2353
F2
s(Vrendered
g37
tp2354
F2
s(Vhold
g16
tp2355
F2
s(Vspeaking
g19
tp2356
F1
s(g57
g578
tp2357
F1
s(Vwestward
g33
tp2358
F1
s(Vrepast
g19
tp2359
F2
s(Vconviction
g19
tp2360
F1
s(Vsouthward
g19
tp2361
F3
s(Vrepose
g19
tp2362
F1
s(Vglancing
g4
tp2363
F3
s(Vfisherman
g19
tp2364
F22
s(V`Ah
g14
tp2365
F1
s(Vsaved
g35
tp2366
F1
s(Vbasin
g82
tp2367
F1
s(Vsuppose
g60
tp2368
F2
s(Vwealth
g19
tp2369
F16
s(V`By
g8
tp2370
F1
s(Vcolours
g14
tp2371
F1
s(Vlength
g19
tp2372
F14
s(Vlead
g8
tp2373
F1
s(Vex-Governor
g19
tp2374
F1
s(S'VBG'
p2375
g1126
tp2376
F79
s(VGeorgian
g8
tp2377
F5
s(Vnew
S'JJ'
p2378
tp2379
F10
s(Vtake
g60
tp2380
F3
s(Vpreparations
g14
tp2381
F1
s(Vabide
g16
tp2382
F1
s(Vinstant
g19
tp2383
F10
s(Vright
g8
tp2384
F5
s(Vhopes
g14
tp2385
F3
s(Vvelocity
g19
tp2386
F1
s(Vmarch
g19
tp2387
F1
s(Vmast
g19
tp2388
F4
s(Vintruded
g35
tp2389
F1
s(Vdarkest
g28
tp2390
F1
s(Vjoined
g37
tp2391
F3
s(Vdaii
g14
tp2392
F1
s(Vchild
g19
tp2393
F2
s(Vtack
g19
tp2394
F1
s(Vrapine
g19
tp2395
F1
s(Vswept
g82
tp2396
F1
s(VTears
g14
tp2397
F1
s(Vcrippled
g35
tp2398
F1
s(VYet
g241
tp2399
F1
s(Vchained
g35
tp2400
F1
s(Vexpect
g16
tp2401
F1
s(Vyour
g2111
tp2402
F125
s(V`About
g33
tp2403
F1
s(g109
g62
tp2404
F1
s(Vcarried
g35
tp2405
F4
s(Vsurge
g19
tp2406
F1
s(Vfew
S'JJ'
p2407
tp2408
F35
s(Vcan
S'MD'
p2409
tp2410
F75
s(Vhumane
g19
tp2411
F1
s(Vtriumphant
g8
tp2412
F1
s(VArabian
g70
tp2413
F1
s(Vrecommend
g16
tp2414
F2
s(g8
g207
tp2415
F1
s(V`My
g8
tp2416
F2
s(Vsword
g19
tp2417
F8
s(g909
g33
tp2418
F78
s(Vchanged
g35
tp2419
F4
s(VMahommed
g70
tp2420
F1
s(Vmasts
g14
tp2421
F10
s(Vverde
g19
tp2422
F1
s(Vhateful
g8
tp2423
F2
s(Vpossessed
g35
tp2424
F2
s(VPort
g70
tp2425
F4
s(Vbrooch
g19
tp2426
F1
s(VMassachusetts
S'NNP'
p2427
tp2428
F2
s(Vbelts
g14
tp2429
F1
s(VHas
g70
tp2430
F1
s(Vfore-yard
g19
tp2431
F1
s(Vdisappeared
g35
tp2432
F1
s(Vsaca
g19
tp2433
F1
s(Vbenedicite
g19
tp2434
F1
s(VBritish
g8
tp2435
F11
s(Vspurn
g16
tp2436
F1
s(Vpost
g19
tp2437
F2
s(Vhospitality
g19
tp2438
F2
s(Vdelay
g16
tp2439
F3
s(V`Cheerfully
g33
tp2440
F1
s(Vcontinue
g16
tp2441
F1
s(Vbreech
g19
tp2442
F1
s(Vspring
g19
tp2443
F3
s(Vbaronet
g19
tp2444
F2
s(Vperceive
g8
tp2445
F1
s(Vset
g16
tp2446
F4
s(Vno
g33
tp2447
F4
s(Vfurther
g33
tp2448
F3
s(V`What
g33
tp2449
F6
s(VYour
g70
tp2450
F1
s(Vdetention
g19
tp2451
F1
s(Vcages
g14
tp2452
F2
s(Vfortresses
g14
tp2453
F1
s(Vfulfil
g16
tp2454
F2
s(Vrudder
g19
tp2455
F1
s(Vbuy
g16
tp2456
F1
s(Vhark
g19
tp2457
F1
s(Vdaring
g19
tp2458
F2
s(VIs
g82
tp2459
F3
s(Vwalk
g19
tp2460
F2
s(g1302
g2409
tp2461
F1
s(g30
S')'
tp2462
F1
s(Vdearer
g19
tp2463
F1
s(Vdescend
g16
tp2464
F1
s(Vdescended
g37
tp2465
F4
s(Vposted
g35
tp2466
F1
s(Vmoney
S'NN'
p2467
tp2468
F6
s(g122
g299
tp2469
F1
s(Vinner
g8
tp2470
F3
s(Vliberty
g19
tp2471
F8
s(Vaware
g19
tp2472
F1
s(Venemy
g19
tp2473
F11
s(Vyielded
g37
tp2474
F1
s(Vmantle
g8
tp2475
F1
s(Vleaped
g35
tp2476
F1
s(Vinamorata
g19
tp2477
F1
s(Vforwarded
g35
tp2478
F1
s(VVirgin
g70
tp2479
F1
s(V`Are
g19
tp2480
F2
s(Varomatic
g8
tp2481
F1
s(Vprepared
g35
tp2482
F1
s(Vbars
g14
tp2483
F2
s(Vlanding
g4
tp2484
F7
s(VXerifa
g14
tp2485
F1
s(S','
g37
tp2486
F111
s(Vmourned
g37
tp2487
F1
s(VEve
g70
tp2488
F1
s(Vstreaming
g4
tp2489
F2
s(Vcourteously
g33
tp2490
F1
s(Vbring
g16
tp2491
F6
s(Vsecondary
g8
tp2492
F1
s(Vanswered
g35
tp2493
F1
s(VStrange
g70
tp2494
F1
s(VArmed
g35
tp2495
F1
s(Vsailing
g19
tp2496
F3
s(g60
S':'
tp2497
F5
s(Vjewel
g19
tp2498
F1
s(Vbaser
g19
tp2499
F1
s(Vcross
g16
tp2500
F2
s(VTrusting
g4
tp2501
F1
s(Vwith
g946
tp2502
F467
s(VChristian
g8
tp2503
F2
s(Vmonastery
g19
tp2504
F32
s(Vvexation
g19
tp2505
F2
s(Vhow
g95
tp2506
F12
s(Virresolute
g19
tp2507
F1
s(Vworship
g19
tp2508
F2
s(Vsummits
g14
tp2509
F3
s(V`Now
g8
tp2510
F1
s(Vforty
g19
tp2511
F1
s(Vconvenience
g19
tp2512
F1
s(Vran
g37
tp2513
F1
s(Vtales
g14
tp2514
F2
s(Vglasses
g14
tp2515
F1
s(Vperhaps
S'RB'
p2516
tp2517
F4
s(g60
g183
tp2518
F24
s(Vsteep
g8
tp2519
F2
s(Vhundred
g35
tp2520
F2
s(Vpeaks
g14
tp2521
F2
s(VForward
g70
tp2522
F1
s(g4
g23
tp2523
F31
s(Vnavy-blue
g8
tp2524
F1
s(Vprosecute
g16
tp2525
F1
s(Vflat
g8
tp2526
F1
s(g70
g27
tp2527
F10
s(Vdepths
g14
tp2528
F1
s(VElena
g70
tp2529
F19
s(Vfeatures
g14
tp2530
F4
s(Vforth
g21
tp2531
F1
s(Vnoticing
g4
tp2532
F1
s(Vladen
g299
tp2533
F1
s(Vcommander
g19
tp2534
F1
s(Vreer
g19
tp2535
F1
s(g60
g272
tp2536
F3
s(Vbone
g19
tp2537
F1
s(Vreturn
g60
tp2538
F2
s(Vnothing
S'NN'
p2539
tp2540
F15
s(V`Bosh
g14
tp2541
F2
s(Vfore
g19
tp2542
F2
s(Vlineage
g19
tp2543
F1
s(Vdiscovered
g35
tp2544
F13
s(Vwere
g1941
tp2545
F150
s(VBooks
g14
tp2546
F1
s(Vunsuccessful
g8
tp2547
F1
s(Vrepeat
g16
tp2548
F1
s(S':'
S','
tp2549
F2
s(Vfringed
g35
tp2550
F2
s(Vwooded
g35
tp2551
F1
s(Vswelling
g4
tp2552
F1
s(Vinterest
S'NN'
p2553
tp2554
F14
s(Vpearls
g19
tp2555
F1
s(Vmarked
g8
tp2556
F1
s(Vbest
g28
tp2557
F11
s(Vmatter
g19
tp2558
F6
s(g690
g30
tp2559
F9
s(Vaccent
g19
tp2560
F1
s(Vfound
g37
tp2561
F10
s(Vfemale
g19
tp2562
F2
s(g207
g102
tp2563
F1
s(Vpulling
g4
tp2564
F2
s(V`I
g19
tp2565
F51
s(Vput
g16
tp2566
F11
s(Vnoise
g19
tp2567
F1
s(Vbridal
g19
tp2568
F2
s(Vspurred
g37
tp2569
F1
s(Vdozen
S'NN'
p2570
tp2571
F4
s(g33
g606
tp2572
F243
s(Vword
S'NN'
p2573
tp2574
F7
s(Vdespoil
g16
tp2575
F1
s(Vchey
g19
tp2576
F1
s(Vconsisted
g35
tp2577
F1
s(Vfour
S'CD'
p2578
tp2579
F32
s(Vthat
g33
tp2580
F1
s(Vhe
g1092
tp2581
F458
s(Vcalm
g8
tp2582
F1
s(Vdancers
g14
tp2583
F3
s(Vhumble
g8
tp2584
F4
s(Vostentatiously
g33
tp2585
F1
s(Voutside
g19
tp2586
F3
s(Vgloom
g19
tp2587
F1
s(Vmadness
g8
tp2588
F2
s(g27
g299
tp2589
F5
s(Vcommunicate
g8
tp2590
F1
s(Veighty
g16
tp2591
F1
s(g62
g18
tp2592
F59
s(Vdig
g16
tp2593
F2
s(Vblunderbusses
g14
tp2594
F1
s(Vmere
g8
tp2595
F1
s(Vdisturbed
g35
tp2596
F2
s(Vreleased
g37
tp2597
F1
s(Vgradually
g33
tp2598
F4
s(Vhereby
g33
tp2599
F1
s(Vmyself
g16
tp2600
F1
s(Vwall
g19
tp2601
F6
s(Vsundown
g8
tp2602
F1
s(Vredoubled
g37
tp2603
F1
s(VPaul
S'NNP'
p2604
tp2605
F1
s(Vlamp
g19
tp2606
F1
s(Vcut
g19
tp2607
F1
s(Vstables
g14
tp2608
F1
s(S','
g675
tp2609
F3
s(Vpipe
g19
tp2610
F2
s(Vreturn
g19
tp2611
F3
s(Vlies
g14
tp2612
F1
s(Vravine
g19
tp2613
F1
s(Vretain
g60
tp2614
F1
s(Vcamesk
g19
tp2615
F1
s(Vsubsided
g35
tp2616
F1
s(Vput
g37
tp2617
F6
s(Vwhither
g55
tp2618
F1
s(Vprovisions
S'NNS'
p2619
tp2620
F3
s(VWe
S'PRP'
p2621
tp2622
F27
s(Vsetting
g4
tp2623
F1
s(Vmusketry
g19
tp2624
F1
s(VThough
g57
tp2625
F1
s(Vtonight
g8
tp2626
F1
s(Vsecure
g16
tp2627
F1
s(Vmoorish
g8
tp2628
F1
s(Vworth
g19
tp2629
F1
s(Vpardoned
g35
tp2630
F1
s(Vearliest
g28
tp2631
F1
s(Vshown
S'VBN'
p2632
tp2633
F1
s(VGibraltar
g70
tp2634
F13
s(Vcould
g1161
tp2635
F78
s(Vdecided
g35
tp2636
F1
s(g16
g27
tp2637
F236
s(Vkindled
g35
tp2638
F1
s(Vplains
g14
tp2639
F2
s(Vdelicious
g8
tp2640
F1
s(VHall
g70
tp2641
F1
s(Vtestimony
g19
tp2642
F1
s(V`De
g8
tp2643
F1
s(Vrevived
g37
tp2644
F1
s(Vfallen
g35
tp2645
F6
s(VHaving
g4
tp2646
F4
s(Vstole
g60
tp2647
F1
s(Vdeep
g8
tp2648
F15
s(Vfelt
g37
tp2649
F11
s(VHighness
g19
tp2650
F1
s(Vsatisfied
g37
tp2651
F3
s(Vbore
g37
tp2652
F3
s(Vpray
g19
tp2653
F2
s(Vundergo
g16
tp2654
F1
s(VCountless
g70
tp2655
F1
s(Vcontempt
g19
tp2656
F1
s(Vnone
g19
tp2657
F3
s(Vmelons
g14
tp2658
F1
s(VTrabac
g70
tp2659
F11
s(Vpaid
g35
tp2660
F1
s(Vinform
g16
tp2661
F3
s(Vbacks
g14
tp2662
F2
s(Vnorthwardly
g33
tp2663
F1
s(Vsumptuous
g8
tp2664
F1
s(Vspace
S'NN'
p2665
tp2666
F2
s(g4
g95
tp2667
F1
s(Vnight
g2116
tp2668
F31
s(Vscandalised
g35
tp2669
F1
s(Vquay
g19
tp2670
F3
s(Vlonely
g33
tp2671
F1
s(g8
g33
tp2672
F24
s(Vanswer
g19
tp2673
F1
s(Vdeparting
g19
tp2674
F1
s(Vworld
S'NN'
p2675
tp2676
F5
s(Vyeur
g8
tp2677
F1
s(Vmistrust
g19
tp2678
F1
s(Vupward
g8
tp2679
F2
s(Voverlooked
g37
tp2680
F2
s(Vlinger
g19
tp2681
F1
s(Vpromptness
g19
tp2682
F1
s(Vhelmsman
g19
tp2683
F3
s(S'CD'
p2684
g23
tp2685
F1
s(Vprinces
g14
tp2686
F2
s(Vbosom
g19
tp2687
F5
s(g19
S'.'
tp2688
F1159
s(Vtree
g19
tp2689
F5
s(g57
g1161
tp2690
F3
s(Vthroughout
S'IN'
p2691
tp2692
F1
s(Vtransportation
S'NN'
p2693
tp2694
F2
s(V-`I
g60
tp2695
F1
s(g109
S'.'
tp2696
F1
s(VIn
g57
tp2697
F34
s(g14
g35
tp2698
F30
s(Valme
g19
tp2699
F2
s(VLong
g70
tp2700
F1
s(Vinherited
g35
tp2701
F1
s(Vbound
g37
tp2702
F2
s(Vnavigation
g19
tp2703
F2
s(Vunwittingly
g33
tp2704
F1
s(Vpasses
g82
tp2705
F1
s(Vclumsily
g33
tp2706
F1
s(Vtheir
g2139
tp2707
F88
s(V`How
g241
tp2708
F1
s(Vtrust
g16
tp2709
F5
s(VSea
g70
tp2710
F2
s(Vmirthful
g8
tp2711
F1
s(V`galleon
g70
tp2712
F1
s(Vflash
g19
tp2713
F2
s(Vtale
g19
tp2714
F1
s(g122
S'IN'
p2715
tp2716
F186
s(Vrushed
g35
tp2717
F1
s(Vconveying
g4
tp2718
F3
s(VJune
S'NNP'
p2719
tp2720
F2
s(VCushions
g14
tp2721
F1
s(Vgrimly
g33
tp2722
F1
s(Vsnow
g8
tp2723
F1
s(Vrepugnance
g19
tp2724
F2
s(Vthere
g33
tp2725
F19
s(VAbysinian
g8
tp2726
F1
s(Vdoubt
g16
tp2727
F2
s(Vmotives
g14
tp2728
F2
s(Vgirls
g14
tp2729
F2
s(Vaccordingly
g33
tp2730
F1
s(Vparts
S'NNS'
p2731
tp2732
F1
s(V5\u005c
g62
tp2733
F1
s(Vvisited
g35
tp2734
F2
s(Vchristian
g8
tp2735
F2
s(Vsilence
g19
tp2736
F7
s(VMoorish
g70
tp2737
F1
s(VXerifa
g70
tp2738
F12
s(Vfolded
g37
tp2739
F1
s(V`You
g33
tp2740
F1
s(Vkeys
g14
tp2741
F1
s(Vvine-dressers
g14
tp2742
F1
s(Vby
g1448
tp2743
F194
s(Vplain
g19
tp2744
F7
s(VNow
S'RB'
p2745
tp2746
F11
s(Vdeliver
g16
tp2747
F3
s(VSlinging
g4
tp2748
F1
s(Vcried
g37
tp2749
F16
s(Vwreathed
g35
tp2750
F2
s(Vmanner
g19
tp2751
F9
s(Vsupposing
g4
tp2752
F2
s(S'CD'
p2753
g67
tp2754
F3
s(Vdarted
g37
tp2755
F1
s(g76
g1092
tp2756
F223
s(Vherself
g19
tp2757
F1
s(Vsileut
g8
tp2758
F1
s(Vidle
g8
tp2759
F1
s(V`Almad
g8
tp2760
F1
s(Vconsternation
g19
tp2761
F3
s(Vslings
g14
tp2762
F1
s(Vclass
S'NN'
p2763
tp2764
F2
s(g70
g2111
tp2765
F1
s(Vascent
g19
tp2766
F3
s(Vriding
g19
tp2767
F2
s(Vhideous
g8
tp2768
F1
s(VTaib
g19
tp2769
F1
s(Vbegged
g35
tp2770
F1
s(Vcleared
g37
tp2771
F2
s(g70
g550
tp2772
F1
s(Vpaintings
g14
tp2773
F1
s(Vspeaking
g4
tp2774
F6
s(Vdeeds
g14
tp2775
F2
s(VAppear
g16
tp2776
F1
s(Vchambers
g14
tp2777
F1
s(Vembroidered
g8
tp2778
F3
s(Vcommanders
g14
tp2779
F2
s(Vsilenced
g37
tp2780
F1
s(Vpublic
g8
tp2781
F1
s(Vdissatisfaction
g19
tp2782
F1
s(Vsuperior
g19
tp2783
F1
s(Vbetrothed
g8
tp2784
F1
s(Vwitnesses
g14
tp2785
F1
s(Vreproach
g19
tp2786
F1
s(g578
g748
tp2787
F80
s(Vrespond
g60
tp2788
F1
s(Vcaptain
g19
tp2789
F47
s(Vjoin
g16
tp2790
F1
s(Vissue
g19
tp2791
F1
s(Vcarnage
g19
tp2792
F1
s(Vhid
g35
tp2793
F2
s(g60
g60
tp2794
F2
s(Vroared
g35
tp2795
F1
s(g272
g183
tp2796
F3
s(Vdrive
g19
tp2797
F1
s(Vfind
g16
tp2798
F10
s(Vcontinual
g8
tp2799
F1
s(Vsecurity
S'NN'
p2800
tp2801
F6
s(Vform
g19
tp2802
F1
s(Vgentleman
g19
tp2803
F2
s(Vcheerful
g8
tp2804
F1
s(Vknives
g14
tp2805
F1
s(g675
g37
tp2806
F23
s(Vregret
g16
tp2807
F1
s(Velevated
g8
tp2808
F1
s(Vhowever
S'RB'
p2809
tp2810
F10
s(Vcomposure
g19
tp2811
F1
s(Vassure
g16
tp2812
F2
s(Vwhom
g389
tp2813
F22
s(Vdart
g60
tp2814
F1
s(Vages
g14
tp2815
F1
s(Vfiled
g37
tp2816
F1
s(Vislands
g14
tp2817
F1
s(Vfast
g33
tp2818
F4
s(V`Our
g14
tp2819
F1
s(Vinvolved
g8
tp2820
F1
s(VEarldom
g19
tp2821
F1
s(Vgame
S'NN'
p2822
tp2823
F3
s(VF
g70
tp2824
F1
s(Vspread
g35
tp2825
F2
s(Vthus
S'RB'
p2826
tp2827
F6
s(Vhis
g1126
tp2828
F474
s(Vimprisoned
g37
tp2829
F1
s(Vsummit
g19
tp2830
F7
s(Vdoomed
g35
tp2831
F1
s(g55
g19
tp2832
F14
s(Vsoon
S'RB'
p2833
tp2834
F22
s(VHighness
g70
tp2835
F11
s(Vjumping
g19
tp2836
F1
s(Vpurple
g19
tp2837
F1
s(Vabreast
g19
tp2838
F3
s(Vbore
g57
tp2839
F1
s(g8
g55
tp2840
F2
s(Vtrod
g19
tp2841
F1
s(Vrestrained
g35
tp2842
F1
s(Vactive
S'JJ'
p2843
tp2844
F2
s(Vsubject
g19
tp2845
F2
s(Vstraits
g14
tp2846
F4
s(g70
g4
tp2847
F6
s(Vfoot
g19
tp2848
F9
s(Vintelligense
g19
tp2849
F1
s(Vresembled
g37
tp2850
F1
s(Vdefiles
g14
tp2851
F1
s(Vsprinkled
g35
tp2852
F1
s(Vwaiter
g19
tp2853
F1
s(Vminute
g19
tp2854
F2
s(Vview
g19
tp2855
F9
s(Vingenuous
g8
tp2856
F1
s(Vbrows
g14
tp2857
F1
s(Vcontained
g37
tp2858
F2
s(Vbutter-boat
g19
tp2859
F1
s(Vinhabitants
g14
tp2860
F1
s(g2164
g378
tp2861
F10
s(Vinvoluntary
g8
tp2862
F1
s(Voff
g23
tp2863
F23
s(Vprivately
S'RB'
p2864
tp2865
F1
s(Vfair
g8
tp2866
F19
s(Vstrongest
g28
tp2867
F1
s(Vhung
g19
tp2868
F2
s(Vinfluence
g19
tp2869
F3
s(Vtogether
g19
tp2870
F1
s(Vstands
g82
tp2871
F1
s(Vleak
g19
tp2872
F2
s(g281
g1672
tp2873
F8
s(g378
g60
tp2874
F1
s(Vdespatch
g19
tp2875
F2
s(Vcounts
g14
tp2876
F1
s(Vhaughtily
g33
tp2877
F2
s(Vearl
g19
tp2878
F1
s(Vexcellency
g19
tp2879
F10
s(V-`I
g70
tp2880
F1
s(Vsolemn
g8
tp2881
F3
s(Vperdu
g19
tp2882
F1
s(g281
g1948
tp2883
F3
s(VEngland
g1091
tp2884
F21
s(g1092
g1195
tp2885
F726
s(Vshivered
g37
tp2886
F1
s(Vhappening
g4
tp2887
F1
s(Vantelope
g19
tp2888
F1
s(Vmail
g19
tp2889
F1
s(g690
g109
tp2890
F3
s(g618
g70
tp2891
F3
s(Vdivision
S'NN'
p2892
tp2893
F1
s(Vverge
g19
tp2894
F2
s(Vpointed
g8
tp2895
F1
s(Vjudged
g35
tp2896
F1
s(VAllah
g19
tp2897
F1
s(Vcoloured
g35
tp2898
F1
s(Vintercept
g16
tp2899
F1
s(VKnowing
g4
tp2900
F2
s(Vleaned
g37
tp2901
F2
s(Vcareless
g8
tp2902
F2
s(Vhonest
g28
tp2903
F1
s(Vpolaccas
g19
tp2904
F1
s(g37
S'MD'
p2905
tp2906
F4
s(Vbecome
g19
tp2907
F1
s(Vsoups
g14
tp2908
F1
s(Vsuspect
g60
tp2909
F1
s(Vprobably
S'RB'
p2910
tp2911
F1
s(VCorsica
g70
tp2912
F6
s(Vkiosk
g19
tp2913
F1
s(g2409
S'.'
tp2914
F5
s(Vfastened
g35
tp2915
F1
s(Vpast
g33
tp2916
F1
s(Vtogether
g33
tp2917
F7
s(g67
g27
tp2918
F16
s(Vprincesses
g14
tp2919
F1
s(Vincreased
g37
tp2920
F6
s(VTuleiman
g70
tp2921
F1
s(Voctagonal
g8
tp2922
F1
s(Vknit
g16
tp2923
F1
s(Vfears
g14
tp2924
F3
s(Varm
g19
tp2925
F5
s(S'NN'
p2926
g19
tp2927
F261
s(Vsquared
g35
tp2928
F1
s(Vvillas
g14
tp2929
F1
s(Vreturned
g35
tp2930
F4
s(Vstrangers
g14
tp2931
F2
s(Vgiven
S'VBN'
p2932
tp2933
F11
s(Vsmiling
g4
tp2934
F2
s(Vsmoke
g19
tp2935
F12
s(V`Now
g19
tp2936
F10
s(Vwater-line
g19
tp2937
F1
s(Vpoop
g19
tp2938
F4
s(Vunexpected
g8
tp2939
F1
s(Vpledge
g19
tp2940
F1
s(Vcloser
g55
tp2941
F1
s(VGarcia
g70
tp2942
F9
s(g207
g1092
tp2943
F23
s(Vsmall
S'JJ'
p2944
tp2945
F13
s(Vlover
g19
tp2946
F5
s(Vserving
g4
tp2947
F1
s(g675
g1236
tp2948
F4
s(Vnearest
g57
tp2949
F1
s(Vdanger
g19
tp2950
F4
s(Vfrom
S'IN'
p2951
tp2952
F226
s(Vbroached
g37
tp2953
F1
s(Vcaution
g19
tp2954
F2
s(Vhear
g60
tp2955
F2
s(Vintrude
g16
tp2956
F1
s(V`They
g19
tp2957
F1
s(Vdesire
g16
tp2958
F1
s(V`Dare
g19
tp2959
F1
s(VHelmsman
g70
tp2960
F1
s(Vdwell
g19
tp2961
F1
s(Vchapeau
g19
tp2962
F1
s(Vblue
g19
tp2963
F4
s(Vaspect
g19
tp2964
F4
s(g33
g480
tp2965
F8
s(Vretreated
g35
tp2966
F1
s(Vmidnight
g19
tp2967
F3
s(Vplot
g19
tp2968
F1
s(Vcurved
g37
tp2969
F1
s(Vcame
S'VBD'
p2970
tp2971
F34
s(g8
g16
tp2972
F6
s(Vdrily
g33
tp2973
F1
s(Vlace
g19
tp2974
F2
s(Valong
g57
tp2975
F16
s(VIlda
g70
tp2976
F10
s(Vdeliberate
g16
tp2977
F1
s(Vsecluded
g37
tp2978
F1
s(Vnow
S'RB'
p2979
tp2980
F68
s(Vnearer
g8
tp2981
F1
s(Vgathered
g35
tp2982
F1
s(Vreclining
g4
tp2983
F1
s(Vmeans
g14
tp2984
F6
s(Vthir
g19
tp2985
F1
s(Vremoved
g37
tp2986
F1
s(Vdepended
g35
tp2987
F1
s(Vfile
g19
tp2988
F1
s(Vhastened
g37
tp2989
F1
s(S'WRB'
p2990
g70
tp2991
F1
s(Vbeaten
g35
tp2992
F1
s(Vglimpses
g14
tp2993
F1
s(Vjudge
g16
tp2994
F1
s(Vornaments
g14
tp2995
F1
s(Vobeys
g37
tp2996
F1
s(Vinfidel
g19
tp2997
F1
s(VGardner
g70
tp2998
F1
s(S')'
g946
tp2999
F1
s(Vpretty
g33
tp3000
F2
s(Vseems
S'VBZ'
p3001
tp3002
F7
s(Vsave
g60
tp3003
F1
s(Vbilirim
g19
tp3004
F1
s(Vmystery
g19
tp3005
F1
s(Vtowers
g14
tp3006
F3
s(g1139
g70
tp3007
F5
s(Vmotion
g19
tp3008
F2
s(g28
g67
tp3009
F1
s(Vhid
g60
tp3010
F1
s(Vtill
g57
tp3011
F3
s(Vover
g57
tp3012
F36
s(Vfall
g19
tp3013
F1
s(Vsurveyed
g37
tp3014
F4
s(Venough
g8
tp3015
F2
s(Vsheeted
g37
tp3016
F1
s(g33
g28
tp3017
F1
s(Vinterwoven
g8
tp3018
F1
s(g378
g606
tp3019
F6
s(g8
g37
tp3020
F17
s(Vremoving
g4
tp3021
F2
s(VNada
g33
tp3022
F3
s(Vquestioned
g35
tp3023
F1
s(Vceiled
g8
tp3024
F1
s(V`They
g8
tp3025
F1
s(VMadras
g70
tp3026
F1
s(Vministers
g14
tp3027
F1
s(Vinfinite
g8
tp3028
F1
s(Vobeyed
g37
tp3029
F1
s(Vdescribed
g35
tp3030
F1
s(Vcoffee
g19
tp3031
F1
s(g23
S','
tp3032
F12
s(Vshut
g35
tp3033
F1
s(Vgrasp
g16
tp3034
F1
s(g14
S','
tp3035
F224
s(Vfear
g60
tp3036
F7
s(Vappropriate
g8
tp3037
F1
s(VH.
S'NNP'
p3038
tp3039
F1
s(Vcustoms
g14
tp3040
F1
s(g30
g8
tp3041
F165
s(g183
g1892
tp3042
F1
s(Vpatience
g19
tp3043
F2
s(V`You
g19
tp3044
F10
s(Veaten
g16
tp3045
F1
s(Vc.
g19
tp3046
F3
s(VBeltort
g70
tp3047
F1
s(Vmean
g8
tp3048
F1
s(VFlanders
g70
tp3049
F1
s(Vled
g37
tp3050
F8
s(Vflashing
g8
tp3051
F1
s(Vbays
g14
tp3052
F1
s(Vwounded
g35
tp3053
F1
s(Vinformation
S'NN'
p3054
tp3055
F3
s(Vfalconet
g19
tp3056
F1
s(V`El
g70
tp3057
F1
s(g70
g106
tp3058
F7
s(Vurns
g14
tp3059
F1
s(VEnglish
g70
tp3060
F20
s(Vdistresses
g14
tp3061
F1
s(Vfell
S'VBD'
p3062
tp3063
F16
s(Vten
g19
tp3064
F1
s(Vdlspleasure
g19
tp3065
F1
s(Vscene
g19
tp3066
F10
s(Vtopgallantsails
g14
tp3067
F1
s(Vstature
g19
tp3068
F1
s(Vfloor
S'NN'
p3069
tp3070
F4
s(Vheads
g14
tp3071
F2
s(Vheadland
g19
tp3072
F5
s(V`Welcome
g19
tp3073
F2
s(Vroom
S'NN'
p3074
tp3075
F2
s(Vcoolly
g33
tp3076
F1
s(Vperched
g35
tp3077
F2
s(g618
g19
tp3078
F18
s(Vsunset
g35
tp3079
F1
s(Vdetail
g16
tp3080
F1
s(Vfruit
g19
tp3081
F1
s(Vopenly
g33
tp3082
F3
s(Vinfluential
g8
tp3083
F1
s(Vline
S'NN'
p3084
tp3085
F9
s(VROW
g70
tp3086
F1
s(Vpresent
g8
tp3087
F9
s(Vportionless
g19
tp3088
F1
s(Vsenor
g1302
tp3089
F1
s(g16
g8
tp3090
F51
s(Vbonds
S'NNS'
p3091
tp3092
F1
s(Vcapturing
g4
tp3093
F5
s(Vpipes
g14
tp3094
F2
s(Vselected
g35
tp3095
F1
s(Vpress
g19
tp3096
F1
s(Vtrust
g19
tp3097
F5
s(Vsprung
g37
tp3098
F4
s(Vknowing
g4
tp3099
F3
s(Vcaptured
g37
tp3100
F2
s(Vfuture
g19
tp3101
F1
s(Vfather
g299
tp3102
F1
s(Vterror
g19
tp3103
F2
s(g55
S'.'
tp3104
F3
s(Vnor
S'CC'
p3105
tp3106
F4
s(Vmonk
g19
tp3107
F12
s(Vdistance
g19
tp3108
F13
s(V`Only
g33
tp3109
F1
s(V`Benedicite
g33
tp3110
F2
s(Vnotorious
g8
tp3111
F1
s(Vspectacle
g19
tp3112
F1
s(Vcolumns
g19
tp3113
F3
s(Vmade
g35
tp3114
F14
s(g19
g70
tp3115
F36
s(Vspy-glass
g19
tp3116
F5
s(V`
S'``'
p3117
tp3118
F10
s(Vaccount
g19
tp3119
F4
s(Vscore
g19
tp3120
F3
s(Vpointed
g35
tp3121
F1
s(Vyears
S'NNS'
p3122
tp3123
F13
s(Vmountains
g82
tp3124
F1
s(Vswung
g37
tp3125
F1
s(Vsnugly
g33
tp3126
F1
s(Vcuriosity
g19
tp3127
F1
s(Veventful
g8
tp3128
F1
s(V`Had
g19
tp3129
F1
s(Vso
g57
tp3130
F4
s(S'NNP'
p3131
g1829
tp3132
F132
s(Vbanners
g14
tp3133
F2
s(Veunuchs
g19
tp3134
F1
s(Vbare
g19
tp3135
F1
s(g37
g1501
tp3136
F30
s(g37
g1126
tp3137
F98
s(Vbrief
g8
tp3138
F3
s(Vfurled
g35
tp3139
F1
s(Vthanks
g14
tp3140
F7
s(Vbrethren
g19
tp3141
F1
s(g30
g356
tp3142
F2
s(g1923
S','
tp3143
F11
s(Vmanage
g16
tp3144
F1
s(VSpaniard
g70
tp3145
F5
s(Vcloud
g19
tp3146
F9
s(Vgateway
g19
tp3147
F1
s(Vmurder
g16
tp3148
F1
s(Vsweetest
g28
tp3149
F1
s(Vwailing
g4
tp3150
F1
s(Vall.
g33
tp3151
F1
s(Vbecome
g35
tp3152
F3
s(VMediterranean
g70
tp3153
F4
s(Vcarriage
g19
tp3154
F1
s(Vtwice
g33
tp3155
F1
s(g183
g389
tp3156
F6
s(Vregard
g19
tp3157
F4
s(Vrejoined
g35
tp3158
F1
s(Vcounterfeit
g19
tp3159
F1
s(Vassume
g16
tp3160
F1
s(Vconquered
g35
tp3161
F1
s(g67
g30
tp3162
F11
s(Vpomegranates
g14
tp3163
F1
s(Vface
g19
tp3164
F21
s(Vthine
g8
tp3165
F3
s(V`Ahoy
g19
tp3166
F1
s(Vbreathe
g16
tp3167
F1
s(Vcaptivity
g19
tp3168
F2
s(Vspirit
g19
tp3169
F2
s(Vdisguise
g19
tp3170
F2
s(Vrobes
g14
tp3171
F2
s(g207
g37
tp3172
F123
s(Vretiring
g4
tp3173
F2
s(Vpiteously
g33
tp3174
F1
s(Vprior
g19
tp3175
F9
s(Vboats
g14
tp3176
F13
s(Vgate
g19
tp3177
F8
s(Vsilk
g19
tp3178
F5
s(Vseven
S'CD'
p3179
tp3180
F5
s(Vhamper
g19
tp3181
F2
s(Vrack
g19
tp3182
F1
s(g67
g773
tp3183
F66
s(VFerdinand
g70
tp3184
F25
s(Vdefied
g35
tp3185
F2
s(Vgood
g19
tp3186
F1
s(Vafternoon
S'NN'
p3187
tp3188
F3
s(S'VBZ'
p3189
g123
tp3190
F5
s(Vmarble
g19
tp3191
F1
s(V`Here
g33
tp3192
F1
s(Vsixty
g19
tp3193
F1
s(Vupon
g33
tp3194
F2
s(Vchapel
g8
tp3195
F1
s(VTwice
g33
tp3196
F1
s(g2139
g764
tp3197
F1
s(Vpesos
g19
tp3198
F4
s(Vbeing
g1441
tp3199
F35
s(Vaccommodation
g19
tp3200
F2
s(g102
g21
tp3201
F1
s(Vlose
g60
tp3202
F1
s(Vfine
g8
tp3203
F5
s(Vhenceforward
g19
tp3204
F1
s(Vrun
g82
tp3205
F1
s(Vlove
g16
tp3206
F1
s(g16
g23
tp3207
F29
s(Vurge
g16
tp3208
F2
s(Vdamage
g16
tp3209
F1
s(Vinspected
g35
tp3210
F1
s(Vland
g60
tp3211
F2
s(VMancha
g70
tp3212
F2
s(Vdiscern
g82
tp3213
F1
s(Vrepent
g16
tp3214
F1
s(Vspices
g14
tp3215
F1
s(Vdais
g19
tp3216
F2
s(Vsharply
S'RB'
p3217
tp3218
F1
s(Valarm
g19
tp3219
F2
s(V`Be
g37
tp3220
F1
s(Vpaced
g37
tp3221
F2
s(Vaddress
g37
tp3222
F1
s(Vhair
g19
tp3223
F6
s(g3117
g19
tp3224
F3
s(Vinterpret
g16
tp3225
F1
s(g37
g4
tp3226
F77
s(Vwatched
g35
tp3227
F3
s(Vreceiving
g4
tp3228
F1
s(Vcomfort
g19
tp3229
F3
s(Vnear
g33
tp3230
F3
s(Vpoints
g14
tp3231
F2
s(Vremained
g37
tp3232
F7
s(V`Your
g70
tp3233
F1
s(VFlight
g19
tp3234
F1
s(Vrescue
g19
tp3235
F1
s(Vinstinctively
g33
tp3236
F1
s(Vdignified
g8
tp3237
F1
s(Vtrifle
g19
tp3238
F2
s(Veagle
g19
tp3239
F1
s(Vshort
g19
tp3240
F1
s(g67
g4
tp3241
F1
s(VCastilian
g8
tp3242
F1
s(Vstanding
g4
tp3243
F22
s(S','
g67
tp3244
F49
s(Vdoscended
g37
tp3245
F1
s(Vhowling
g4
tp3246
F1
s(V-but
g19
tp3247
F1
s(Vtimber
g19
tp3248
F1
s(Vprovided
g35
tp3249
F2
s(VOffice
g70
tp3250
F2
s(Vplanned
g35
tp3251
F1
s(g3117
g45
tp3252
F1
s(Voutside
g57
tp3253
F2
s(Vdiscover
g16
tp3254
F5
s(Vdespair
g19
tp3255
F1
s(Vhand
S'NN'
p3256
tp3257
F38
s(Vfirst
g16
tp3258
F1
s(Vmorocco
g19
tp3259
F1
s(Vdescription
g19
tp3260
F2
s(Vhoisted
g35
tp3261
F2
s(Vourselves
g618
tp3262
F1
s(Vhail
g19
tp3263
F1
s(Vhalf-a-dozen
g8
tp3264
F1
s(Vboarded
g37
tp3265
F3
s(Vthough
g57
tp3266
F15
s(g721
g33
tp3267
F58
s(Vducats
g14
tp3268
F1
s(Vhardly
g33
tp3269
F8
s(Vtreasures
g14
tp3270
F23
s(Vlow-breathing
g8
tp3271
F1
s(Vwing
g19
tp3272
F3
s(Vtransferred
g35
tp3273
F1
s(Vmajesty
g19
tp3274
F6
s(VOwen
g70
tp3275
F3
s(VPIRATE
g70
tp3276
F1
s(Vstruck
g16
tp3277
F1
s(VOthers
g14
tp3278
F1
s(Vstirring
g4
tp3279
F1
s(g62
g183
tp3280
F5
s(Vbut
g123
tp3281
F111
s(VAll
g21
tp3282
F1
s(Vdeparted
g35
tp3283
F1
s(Vaid
g16
tp3284
F8
s(Vpirate-
g8
tp3285
F1
s(Vcabin
g19
tp3286
F7
s(Vengaged
g35
tp3287
F2
s(S','
g4
tp3288
F115
s(Vsixteen
g19
tp3289
F2
s(Vfortunes
g14
tp3290
F2
s(Vimprecations
g14
tp3291
F1
s(Vaccuracy
g19
tp3292
F1
s(VAmerican
g8
tp3293
F6
s(Vtrusting
g4
tp3294
F3
s(S'RB'
p3295
g55
tp3296
F9
s(Vveiled
g37
tp3297
F1
s(Vclenched
g37
tp3298
F1
s(Vcrown
g19
tp3299
F9
s(VSigned
g35
tp3300
F1
s(g8
g1441
tp3301
F17
s(Vkilled
g35
tp3302
F1
s(Vwinged
g37
tp3303
F1
s(VUnfortunately
g33
tp3304
F1
s(Vreconnoitred
g37
tp3305
F1
s(Vsenora
g16
tp3306
F2
s(VAt
S'IN'
p3307
tp3308
F25
s(g2308
g70
tp3309
F2
s(Vmost
g2308
tp3310
F16
s(Vinvite
g16
tp3311
F1
s(VPUBLISHER
g70
tp3312
F1
s(Vimagination
g19
tp3313
F1
s(VUnless
g57
tp3314
F1
s(Vbroken
g8
tp3315
F2
s(Vendows
g82
tp3316
F1
s(Vtowards
g23
tp3317
F1
s(Vgardener
g19
tp3318
F3
s(Vcharity
g19
tp3319
F1
s(Vtalents
g82
tp3320
F1
s(Vbondage
g19
tp3321
F7
s(S','
S'CD'
p3322
tp3323
F20
s(VOcean
g70
tp3324
F2
s(Vvesper
g8
tp3325
F1
s(Vmangled
g37
tp3326
F1
s(Vblossoms
g14
tp3327
F1
s(Vindistinct
g8
tp3328
F1
s(Vinterests
S'NNS'
p3329
tp3330
F2
s(g14
S':'
tp3331
F22
s(Vpassing
g8
tp3332
F1
s(VFeather
g70
tp3333
F1
s(Vdeliverence
g19
tp3334
F1
s(Vkeeping
S'VBG'
p3335
tp3336
F6
s(Vhead
g19
tp3337
F37
s(Vprospects
g14
tp3338
F1
s(Vvoluntarily
g33
tp3339
F1
s(Vexquisite
g8
tp3340
F4
s(Vcruel
g19
tp3341
F1
s(Vdare
g60
tp3342
F1
s(S','
g70
tp3343
F87
s(Vthee
g16
tp3344
F2
s(Vfairly
S'RB'
p3345
tp3346
F6
s(Vwindward
g16
tp3347
F4
s(Vwave
g19
tp3348
F1
s(Vsacked
g35
tp3349
F1
s(Vmuttered
g37
tp3350
F3
s(Vcompact
g19
tp3351
F2
s(Vmarriage
g19
tp3352
F3
s(V-at
g16
tp3353
F1
s(Vtrip
S'NN'
p3354
tp3355
F1
s(VSpanish
g70
tp3356
F1
s(Vprayed
g35
tp3357
F1
s(Vscimeter
g19
tp3358
F1
s(S','
g19
tp3359
F101
s(Vfellow
g19
tp3360
F5
s(Vfoam
g19
tp3361
F1
s(VNight
g70
tp3362
F1
s(Vreverend
g60
tp3363
F1
s(VSearch
g70
tp3364
F1
s(Vwhole
g8
tp3365
F6
s(Vspars
g14
tp3366
F5
s(Vrock
g19
tp3367
F23
s(VOnce
g57
tp3368
F1
s(Vresponse
S'NN'
p3369
tp3370
F1
s(g106
S'.'
tp3371
F4
s(Vannulling
g4
tp3372
F1
s(Voffences
g14
tp3373
F1
s(Vambitious
g8
tp3374
F5
s(Vtake
g8
tp3375
F1
s(Vobject
g16
tp3376
F2
s(Vflapping
g4
tp3377
F1
s(Vengraved
g35
tp3378
F1
s(Vmagazine
S'NN'
p3379
tp3380
F1
s(Vattendant
g8
tp3381
F1
s(Vassured
g35
tp3382
F2
s(Vplace
g19
tp3383
F22
s(Vbefore
g16
tp3384
F1
s(Vtrouble
S'NN'
p3385
tp3386
F2
s(Vcaused
g37
tp3387
F1
s(g578
g123
tp3388
F2
s(Vaway
g23
tp3389
F2
s(Vthanked
g35
tp3390
F2
s(g19
g14
tp3391
F90
s(Vbore
g33
tp3392
F1
s(VAnne
g70
tp3393
F2
s(Vlives
g14
tp3394
F2
s(VFew
g8
tp3395
F1
s(Vrapidly
g33
tp3396
F11
s(Vwishes
g14
tp3397
F3
s(Vwish
g60
tp3398
F5
s(VIt
S'PRP'
p3399
tp3400
F54
s(Vflying
g4
tp3401
F9
s(VThither
g57
tp3402
F1
s(Vproposition
g19
tp3403
F1
s(Vcomposed
g35
tp3404
F3
s(Vspray
g19
tp3405
F1
s(Vanswered
g8
tp3406
F2
s(Vsterling
g4
tp3407
F1
s(g122
g109
tp3408
F8
s(Vlow
g8
tp3409
F9
s(Vguards
g14
tp3410
F1
s(g60
g3117
tp3411
F1
s(Vdistant
g19
tp3412
F6
s(Vrolled
g37
tp3413
F1
s(Vjust
g396
tp3414
F14
s(Vrein
g19
tp3415
F1
s(Vyouths
g14
tp3416
F1
s(Vman
S'NN'
p3417
tp3418
F73
s(V`Will
g19
tp3419
F3
s(Vprovide
g16
tp3420
F1
s(Vsuccessful
S'JJ'
p3421
tp3422
F7
s(Vlittle
g8
tp3423
F23
s(Vinvade
g16
tp3424
F1
s(VBefore
g57
tp3425
F4
s(Vmeal
g19
tp3426
F2
s(Vtowards
g16
tp3427
F1
s(Vrubbing
g4
tp3428
F1
s(Vpursued
g16
tp3429
F1
s(g14
g281
tp3430
F6
s(Vincense
g19
tp3431
F1
s(VPor
g70
tp3432
F1
s(Vascended
g35
tp3433
F1
s(Vreclined
g37
tp3434
F2
s(Vparting
g4
tp3435
F1
s(Vreign
g16
tp3436
F1
s(Vsleeps
g14
tp3437
F1
s(Vself-possession
g19
tp3438
F2
s(Vwintry
g19
tp3439
F1
s(Vtrespass
g16
tp3440
F1
s(Voffer
g60
tp3441
F1
s(V`Alas
g14
tp3442
F1
s(VAllah
g70
tp3443
F4
s(Vingots
g14
tp3444
F2
s(Vwhisper
g19
tp3445
F1
s(Vinstructions
g14
tp3446
F1
s(g1139
S','
tp3447
F1
s(VEustaquio
g70
tp3448
F11
s(Veventide
g33
tp3449
F1
s(S'EX'
p3450
g82
tp3451
F41
s(Vjourney
g19
tp3452
F1
s(VKidd
g70
tp3453
F65
s(Vemergencies
g14
tp3454
F2
s(Valike
g33
tp3455
F1
s(VMoreover
S'RB'
p3456
tp3457
F1
s(Vattendance
g19
tp3458
F1
s(Vox-hide
g8
tp3459
F1
s(Vbark
g16
tp3460
F1
s(Vstood
g35
tp3461
F1
s(Vglove
g19
tp3462
F3
s(VSeveral
g8
tp3463
F2
s(Vdaylight
g33
tp3464
F1
s(Vdistant
g33
tp3465
F4
s(Vjets
g14
tp3466
F1
s(Videa
S'NN'
p3467
tp3468
F10
s(VGradually
g33
tp3469
F1
s(g65
g356
tp3470
F9
s(VMaldilo
g19
tp3471
F1
s(Vtearful
g8
tp3472
F3
s(Vgilded
g8
tp3473
F5
s(Vaquiline
g8
tp3474
F1
s(V10\u005c
g62
tp3475
F1
s(Vsenorita
g19
tp3476
F1
s(Vtruth
g19
tp3477
F1
s(Vsundry
g33
tp3478
F1
s(Vgot
g35
tp3479
F5
s(VCorsican
g8
tp3480
F1
s(VWill
g272
tp3481
F1
s(Vgazed
g35
tp3482
F1
s(Vknelt
g37
tp3483
F3
s(Vlips
g14
tp3484
F6
s(Vverbal
g8
tp3485
F1
s(Vshelf
g19
tp3486
F1
s(V`Yes
g19
tp3487
F19
s(Vdogs
g14
tp3488
F2
s(Vsmoke
g16
tp3489
F1
s(Vcovering
g4
tp3490
F1
s(V`are
g70
tp3491
F1
s(g109
g1308
tp3492
F4
s(Vsuffer
g16
tp3493
F4
s(g55
g8
tp3494
F5
s(Varound
g23
tp3495
F1
s(Vpersonally
g33
tp3496
F1
s(Vawaited
g37
tp3497
F1
s(Vhandsome
g8
tp3498
F5
s(VBerry
g70
tp3499
F1
s(Vflashing
g4
tp3500
F1
s(g37
g2951
tp3501
F329
s(Varrived
g35
tp3502
F1
s(g37
g37
tp3503
F7
s(Vsquadrons
g14
tp3504
F1
s(Vcastle
g19
tp3505
F4
s(Vprivate
S'JJ'
p3506
tp3507
F4
s(g33
S':'
tp3508
F21
s(VIndiaman
g70
tp3509
F3
s(Vfalcon.
g19
tp3510
F1
s(Vshaped
g8
tp3511
F1
s(Vshadow
g19
tp3512
F1
s(V`but
g82
tp3513
F1
s(Varms
g14
tp3514
F6
s(Vparterres
g14
tp3515
F2
s(Vconvert
g16
tp3516
F1
s(g4
g55
tp3517
F1
s(Veverything
S'NN'
p3518
tp3519
F1
s(VNez
g70
tp3520
F6
s(Vtaffrail
g19
tp3521
F1
s(VAround
g57
tp3522
F2
s(Vhands.
g19
tp3523
F1
s(g1092
g82
tp3524
F154
s(S'VBN'
p3525
g299
tp3526
F2
s(VInfidel
g70
tp3527
F2
s(Vgallop
g19
tp3528
F1
s(Vtowns
g14
tp3529
F1
s(S'JJ'
p3530
g109
tp3531
F3
s(Vcabinet
g19
tp3532
F1
s(Vengulphed
g35
tp3533
F1
s(Vrein
g33
tp3534
F1
s(VMexican
g70
tp3535
F2
s(Vdischarged
g35
tp3536
F1
s(V`By
g57
tp3537
F2
s(VCarlos
g70
tp3538
F8
s(VHaroum
g70
tp3539
F1
s(Vstrictly
g33
tp3540
F1
s(Vseize
g16
tp3541
F1
s(Vdeceive
g16
tp3542
F2
s(VPillars
g70
tp3543
F1
s(Vbeef
g19
tp3544
F1
s(Vwell
g60
tp3545
F1
s(Voverrunning
g4
tp3546
F1
s(Vfriendly
g8
tp3547
F3
s(V`To
g8
tp3548
F1
s(Vread
g60
tp3549
F2
s(Veminent
g8
tp3550
F1
s(V`Did
g19
tp3551
F3
s(Vyataghan
g19
tp3552
F1
s(Vjutted
g37
tp3553
F1
s(Vbrig
g8
tp3554
F1
s(Vconcluded
g37
tp3555
F1
s(Venquiries
g14
tp3556
F1
s(g33
g19
tp3557
F24
s(Vhither
g19
tp3558
F2
s(Vhelm
g19
tp3559
F3
s(VDancing
g70
tp3560
F1
s(Vbrows
g82
tp3561
F1
s(Vlip
g19
tp3562
F3
s(V`Two
g70
tp3563
F1
s(VWhile
S'IN'
p3564
tp3565
F5
s(V9\u005c
g62
tp3566
F1
s(Vdestiny
g19
tp3567
F3
s(Vthoughts
g14
tp3568
F5
s(Vmonth
S'NN'
p3569
tp3570
F4
s(VRomance
g19
tp3571
F1
s(Varranged
g37
tp3572
F1
s(VMother
g70
tp3573
F2
s(Vadmit
g16
tp3574
F2
s(Voily
g33
tp3575
F1
s(Vlate
g33
tp3576
F1
s(Vostrich
g19
tp3577
F1
s(Vknow
g60
tp3578
F19
s(Vobtain
S'VB'
p3579
tp3580
F3
s(Vrescued
g37
tp3581
F1
s(Vcrimson
g19
tp3582
F3
s(Vsteer
g16
tp3583
F4
s(Vcompanions
g14
tp3584
F2
s(Vdistinguishable
g8
tp3585
F1
s(g57
g618
tp3586
F611
s(Vgoods
S'NNS'
p3587
tp3588
F1
s(Vearthed
g35
tp3589
F1
s(Vpart
S'NN'
p3590
tp3591
F7
s(Vdespatched
g37
tp3592
F3
s(VTheir
g30
tp3593
F2
s(Vcommanding
g4
tp3594
F2
s(Vmanned
g35
tp3595
F3
s(g675
g33
tp3596
F1
s(Vinjury
g19
tp3597
F2
s(Vreturn
g16
tp3598
F6
s(Vsteering
g4
tp3599
F6
s(Vthought
g60
tp3600
F1
s(Vdeck
g16
tp3601
F1
s(g299
g33
tp3602
F6
s(Vshut
g19
tp3603
F1
s(g85
g33
tp3604
F144
s(Ventertainment
S'NN'
p3605
tp3606
F1
s(Vbeside
g16
tp3607
F1
s(Vfollowing
g4
tp3608
F1
s(Vaddressed
g37
tp3609
F2
s(V-`Come
g16
tp3610
F1
s(Vstranger
g19
tp3611
F4
s(Vsolve
g16
tp3612
F1
s(Vbalance
g19
tp3613
F1
s(Vcovered
g35
tp3614
F9
s(Vscimetars
g14
tp3615
F2
s(Vtrying
S'VBG'
p3616
tp3617
F1
s(Vcombat
g19
tp3618
F1
s(Vrelaid
g19
tp3619
F1
s(Vmain-mast
g19
tp3620
F1
s(Vshining
g4
tp3621
F1
s(Vnighest
g28
tp3622
F1
s(Varrives
g14
tp3623
F1
s(Vgold
g8
tp3624
F2
s(g23
g102
tp3625
F1
s(Vtopsail-driver
g8
tp3626
F1
s(g122
g4
tp3627
F86
s(Vfinally
S'RB'
p3628
tp3629
F2
s(Vwaterside
g19
tp3630
F1
s(Vheretical
g8
tp3631
F2
s(Vnettings
g14
tp3632
F1
s(Vdouble
g60
tp3633
F1
s(Vhoney
g19
tp3634
F2
s(VPalace
g70
tp3635
F1
s(Vaccept
g57
tp3636
F1
s(Vbattles
g14
tp3637
F1
s(Vdevise
g16
tp3638
F1
s(Vease
g19
tp3639
F1
s(V`Do
g19
tp3640
F5
s(g675
g4
tp3641
F1
s(Vhighlands
g14
tp3642
F1
s(Vsatin
g19
tp3643
F2
s(VFilled
g35
tp3644
F1
s(Vwhere
g192
tp3645
F32
s(Vlove
g60
tp3646
F1
s(V`Bir
g19
tp3647
F1
s(Vmention
g16
tp3648
F1
s(VBedouin
g70
tp3649
F1
s(VHere
S'RB'
p3650
tp3651
F15
s(Vruler
g19
tp3652
F1
s(Vare
g578
tp3653
F94
s(Vconvoy
g19
tp3654
F1
s(Vguest
g19
tp3655
F1
s(Vcrippled
g8
tp3656
F1
s(Vground
g19
tp3657
F10
s(Vrelated
g35
tp3658
F1
s(V`Such
g8
tp3659
F1
s(V`That
g33
tp3660
F1
s(Vtruly
g60
tp3661
F1
s(Vplay
g19
tp3662
F2
s(Vabove
g57
tp3663
F20
s(Vshoot
g19
tp3664
F1
s(V`Leave
g16
tp3665
F1
s(Vtook
S'VBD'
p3666
tp3667
F20
s(Voffend
g16
tp3668
F2
s(Vomitting
g4
tp3669
F1
s(VWhere
g109
tp3670
F1
s(Vjourneying
g4
tp3671
F1
s(Vcontinued
g37
tp3672
F3
s(Vacross
g19
tp3673
F2
s(Vproceeded
g37
tp3674
F6
s(Vbetrayed
g37
tp3675
F1
s(Vmass
g19
tp3676
F2
s(Vnereids
g14
tp3677
F1
s(Vbrim
g19
tp3678
F1
s(Vinnocent
g8
tp3679
F1
s(Vought
g272
tp3680
F2
s(Vyourself
g618
tp3681
F5
s(Vdelayed
g35
tp3682
F1
s(Vgaze
g19
tp3683
F6
s(Vstitch
g19
tp3684
F1
s(Vfreely
g33
tp3685
F1
s(g23
S':'
tp3686
F2
s(V-`robber
g70
tp3687
F1
s(Vas
g57
tp3688
F223
s(Vmyriads
g14
tp3689
F1
s(Vswell
g19
tp3690
F1
s(Vlook
g60
tp3691
F4
s(Vgreat
S'JJ'
p3692
tp3693
F24
s(Vtwelve
g19
tp3694
F3
s(Vembarkation
g19
tp3695
F1
s(Vecclesiastical
g8
tp3696
F1
s(Veasy
g8
tp3697
F2
s(Vcot
g19
tp3698
F3
s(Vsold
g35
tp3699
F1
s(Vmean
g16
tp3700
F2
s(Valongside
g19
tp3701
F1
s(g8
g106
tp3702
F1
s(Vattempted
g35
tp3703
F1
s(Vsecret
g8
tp3704
F4
s(g166
g70
tp3705
F258
s(Vnumerous
g8
tp3706
F5
s(Vport.
g19
tp3707
F1
s(Vunless
g72
tp3708
F2
s(Vlay
g37
tp3709
F8
s(Vturbans
g14
tp3710
F1
s(Vmate
g19
tp3711
F2
s(Venter
g16
tp3712
F6
s(Vfire
g60
tp3713
F1
s(Vstunted
g35
tp3714
F1
s(Vbreaking
g4
tp3715
F1
s(Vindividual
g19
tp3716
F1
s(Vlight
g8
tp3717
F7
s(Vcreated
g37
tp3718
F2
s(Vapparent
g8
tp3719
F2
s(S'PRP'
p3720
g4
tp3721
F13
s(Vdeceived
g35
tp3722
F1
s(Vskill
g19
tp3723
F2
s(Vdiscovers
g82
tp3724
F2
s(Vmelee
g19
tp3725
F1
s(Vhiding
g4
tp3726
F3
s(g1092
S'NNS'
p3727
tp3728
F2
s(Vlot
g19
tp3729
F1
s(VReza
g70
tp3730
F3
s(Vfragrance
g19
tp3731
F1
s(Vlives
g82
tp3732
F1
s(Vtongue
g19
tp3733
F2
s(Vcountry
S'NN'
p3734
tp3735
F5
s(Vcount
g16
tp3736
F1
s(Vloth
g166
tp3737
F1
s(Vwarriors
g14
tp3738
F2
s(VJames
g3131
tp3739
F1
s(Vbroken
g33
tp3740
F1
s(Vworthy
g8
tp3741
F1
s(Vhope
g16
tp3742
F1
s(Vstudy
g19
tp3743
F1
s(Vmocha
g19
tp3744
F1
s(g207
g27
tp3745
F1
s(Vprotect
g16
tp3746
F2
s(Vfriend
g19
tp3747
F10
s(Vjutting
g19
tp3748
F1
s(Vashore
g33
tp3749
F6
s(Vsea-port
g8
tp3750
F1
s(VGod
g70
tp3751
F1
s(Vmother
g19
tp3752
F2
s(Vpeculiar
g19
tp3753
F1
s(Vpoor
S'JJ'
p3754
tp3755
F9
s(Vescort
g16
tp3756
F1
s(Vkindling
g4
tp3757
F1
s(Vassailants
g14
tp3758
F1
s(Vkept
g35
tp3759
F4
s(Vloss
S'NN'
p3760
tp3761
F4
s(Vlies
g82
tp3762
F2
s(Vneeds
g82
tp3763
F1
s(Vpulled
g35
tp3764
F3
s(Vbracelets
g14
tp3765
F3
s(Vstranded
g35
tp3766
F1
s(Vglow
g19
tp3767
F1
s(Vpassed
g35
tp3768
F7
s(Vnecks
g14
tp3769
F1
s(Velevated
g35
tp3770
F3
s(Vbutton
g19
tp3771
F1
s(Vranged
g37
tp3772
F1
s(Vseparated
g37
tp3773
F1
s(Vpromontory
g19
tp3774
F8
s(Vultimately
g33
tp3775
F1
s(VAvoiding
g4
tp3776
F1
s(Vtenantry
g19
tp3777
F1
s(Vshading
g4
tp3778
F1
s(Vkey
g19
tp3779
F4
s(Vdoubtfully
g33
tp3780
F1
s(Vbrought
g35
tp3781
F7
s(VKing
g70
tp3782
F4
s(Vdisplaying
g4
tp3783
F1
s(Vdie
g16
tp3784
F4
s(Valike
g57
tp3785
F1
s(Vsilently
g33
tp3786
F2
s(Vcrying
g19
tp3787
F1
s(Vcolored
g8
tp3788
F1
s(Vsabres
g14
tp3789
F2
s(Vde
g1302
tp3790
F3
s(S','
g3117
tp3791
F3
s(Vbusiness
S'NN'
p3792
tp3793
F4
s(Vtried
g37
tp3794
F3
s(Vrose-water
g19
tp3795
F3
s(g281
g1448
tp3796
F2
s(Vanswer
g16
tp3797
F3
s(V`nothing
g4
tp3798
F1
s(Vmovements
g14
tp3799
F5
s(VXerita
g70
tp3800
F1
s(Vbrightly
g33
tp3801
F1
s(Vhumbly
g33
tp3802
F1
s(Vawhile
g33
tp3803
F1
s(V`I
g14
tp3804
F27
s(V`Advance
g19
tp3805
F1
s(Vdestroy
g16
tp3806
F1
s(Vtacked
g37
tp3807
F1
s(Vhad
g37
tp3808
F235
s(Vmoonlit
g19
tp3809
F1
s(Vstout
g19
tp3810
F1
s(Vpromised
g37
tp3811
F3
s(Vsupposed
g35
tp3812
F1
s(Vaside
g33
tp3813
F2
s(Vrope
g19
tp3814
F1
s(Velegance
g19
tp3815
F1
s(Vsinking
g19
tp3816
F1
s(Vfirst
g8
tp3817
F25
s(Vglowing
g19
tp3818
F2
s(Vdolphin
g19
tp3819
F1
s(Vcompletely
g33
tp3820
F2
s(Vprogress
g19
tp3821
F2
s(Vafterwards
g14
tp3822
F12
s(Vopened
g37
tp3823
F5
s(g16
g102
tp3824
F1
s(g33
g82
tp3825
F24
s(g1139
g14
tp3826
F15
s(Vsteersman
g8
tp3827
F1
s(Vswing
g4
tp3828
F1
s(Vfragrant
g8
tp3829
F3
s(V`You
g70
tp3830
F1
s(V`Stay
g19
tp3831
F1
s(Vuniforms
g14
tp3832
F1
s(Vpurpose
g19
tp3833
F7
s(Vhappened
g37
tp3834
F1
s(Vcontent
g19
tp3835
F2
s(Vname
g19
tp3836
F11
s(Vmet
g35
tp3837
F1
s(Vcarry
g60
tp3838
F1
s(Vshaped
g37
tp3839
F1
s(Vleague
g19
tp3840
F12
s(Voften
S'RB'
p3841
tp3842
F4
s(V`Seemed
g35
tp3843
F1
s(VMexico.
g70
tp3844
F1
s(Vpallor
g19
tp3845
F1
s(Vbreasts
g14
tp3846
F1
s(Voverhauled
g37
tp3847
F1
s(Vplaced
g35
tp3848
F8
s(Vrunning
g4
tp3849
F10
s(Vknown
g35
tp3850
F14
s(Vearnestness
g19
tp3851
F1
s(g62
g281
tp3852
F2
s(Vhues
g14
tp3853
F1
s(Vushered
g35
tp3854
F2
s(Vtired
g35
tp3855
F3
s(Vraven
g8
tp3856
F2
s(Veach
g1869
tp3857
F31
s(Vretired.
g60
tp3858
F1
s(Vchaplain
g19
tp3859
F1
s(g60
g675
tp3860
F2
s(Vgoes
g3189
tp3861
F4
s(Vinteresting
g8
tp3862
F1
s(Venvelope
g19
tp3863
F2
s(Vamid
S'IN'
p3864
tp3865
F4
s(Vsort
g19
tp3866
F8
s(g67
g51
tp3867
F4
s(Vslight
g8
tp3868
F2
s(Vskin
g19
tp3869
F1
s(Vlovely
g33
tp3870
F3
s(Vmoodiness
g19
tp3871
F1
s(g4
g14
tp3872
F29
s(Vhanded
g35
tp3873
F1
s(Vstanding
g19
tp3874
F1
s(Vchances
g14
tp3875
F1
s(g35
g618
tp3876
F54
s(VAfrican
g8
tp3877
F1
s(Vwore
g37
tp3878
F11
s(Vjoyful
g8
tp3879
F1
s(Vknown
g16
tp3880
F1
s(Vrecompense
g19
tp3881
F1
s(Vconcealed
g35
tp3882
F3
s(Vseemed
g37
tp3883
F17
s(Vshowing
g19
tp3884
F1
s(Vlead
g16
tp3885
F5
s(Vwithdrawing
g4
tp3886
F1
s(Viced
g8
tp3887
F1
s(Vcovert
g19
tp3888
F2
s(Vknots
g14
tp3889
F3
s(Vedge
g19
tp3890
F3
s(Vforcibly
g33
tp3891
F1
s(Vinvented
g35
tp3892
F1
s(VExecution
g70
tp3893
F1
s(Vmilitary
g8
tp3894
F1
s(V`On
g16
tp3895
F1
s(Vqueen
g19
tp3896
F1
s(Vourangoutang
g19
tp3897
F1
s(Vruled
g37
tp3898
F1
s(Vintricacies
g14
tp3899
F1
s(g697
g28
tp3900
F4
s(Vmatchlocks
g14
tp3901
F1
s(V`norther
g19
tp3902
F1
s(Vago
g33
tp3903
F7
s(Vasleep
g8
tp3904
F2
s(Vdoubt
g19
tp3905
F13
s(Vage
S'NN'
p3906
tp3907
F3
s(Vkisses
g82
tp3908
F1
s(VEmbarkation
g70
tp3909
F1
s(Vfathom
g19
tp3910
F1
s(Vlet
g37
tp3911
F1
s(Vmuzzles
g14
tp3912
F1
s(g14
g37
tp3913
F117
s(Vhuts
g14
tp3914
F1
s(V`do
g618
tp3915
F1
s(Voverhearing
g4
tp3916
F1
s(Vreplied
g35
tp3917
F1
s(Vpity
g19
tp3918
F3
s(Vmore
g299
tp3919
F18
s(Vnatural
S'JJ'
p3920
tp3921
F1
s(Vappertaining
g4
tp3922
F1
s(Vdropped
g37
tp3923
F4
s(Vshower
g19
tp3924
F2
s(Vcommeneed
g60
tp3925
F1
s(g55
g1123
tp3926
F25
s(Vslave
g19
tp3927
F15
s(V`Did
g16
tp3928
F1
s(VDutch
g8
tp3929
F2
s(Vnarrated
g35
tp3930
F1
s(Vclose-
g8
tp3931
F1
s(Vbuilding
g4
tp3932
F1
s(Vmuslin
g19
tp3933
F2
s(Vcommunicated
g37
tp3934
F2
s(S','
g16
tp3935
F23
s(Vfavorable
g8
tp3936
F2
s(V`See
g19
tp3937
F1
s(S'RB'
p3938
g3720
tp3939
F49
s(Vcloth
g19
tp3940
F2
s(Vventured
g37
tp3941
F1
s(Vearth
g19
tp3942
F2
s(Vchief
g19
tp3943
F7
s(V`No
g8
tp3944
F5
s(g8
g1092
tp3945
F19
s(Vpair
g19
tp3946
F1
s(Vwould
g2905
tp3947
F120
s(Vdirected
g37
tp3948
F3
s(Vsilver
g8
tp3949
F4
s(Vplenty
g19
tp3950
F1
s(Vdrawing
g4
tp3951
F3
s(Vdavit
g19
tp3952
F1
s(Vflight
S'NN'
p3953
tp3954
F6
s(Vpushed
g37
tp3955
F2
s(Vmerciful
g8
tp3956
F1
s(Vtalk
g16
tp3957
F2
s(Vopen
g8
tp3958
F12
s(Vimplicated
g35
tp3959
F1
s(Vpalm
g19
tp3960
F2
s(Vthird
g8
tp3961
F3
s(S':'
g27
tp3962
F26
s(Vfaltered
g37
tp3963
F1
s(Vafterwards
g82
tp3964
F1
s(Vperil
g19
tp3965
F3
s(Vsnare
g19
tp3966
F1
s(Vdolmas
g16
tp3967
F1
s(Venemies
g14
tp3968
F1
s(Vrepresenting
S'VBG'
p3969
tp3970
F3
s(Vdescribe
g16
tp3971
F1
s(Vregion
S'NN'
p3972
tp3973
F1
s(Vlose
g16
tp3974
F3
s(V's
g1139
tp3975
F92
s(Vbay
g21
tp3976
F1
s(Vlarboard
g19
tp3977
F1
s(Vsubsist
g60
tp3978
F1
s(Vlanding
g8
tp3979
F1
s(Voccupying
g4
tp3980
F1
s(Vtitle
g19
tp3981
F5
s(Vpretence
g19
tp3982
F1
s(VFar
g70
tp3983
F1
s(Vbridge
g19
tp3984
F1
s(Vsanguinary
g8
tp3985
F1
s(Vgossamer
g19
tp3986
F2
s(Vfled
g37
tp3987
F2
s(Vboldness
g19
tp3988
F2
s(VSerapis
g70
tp3989
F1
s(g3525
g166
tp3990
F100
s(Vfail
g16
tp3991
F4
s(Vembassador
g19
tp3992
F12
s(Vdaneing
g4
tp3993
F1
s(Vletters
S'NNS'
p3994
tp3995
F2
s(Vrelationship
S'NN'
p3996
tp3997
F1
s(g57
g21
tp3998
F19
s(Vcome
g16
tp3999
F8
s(Vunusual
S'JJ'
p4000
tp4001
F2
s(VProphet
g70
tp4002
F1
s(Va
g78
tp4003
F820
s(Vcompanionship
g19
tp4004
F1
s(Vcompanionway
g19
tp4005
F1
s(Vwatch
g19
tp4006
F3
s(VMexico
S'NNP'
p4007
tp4008
F4
s(Vyf
g60
tp4009
F1
s(Vchurch
g19
tp4010
F9
s(g62
S'.'
tp4011
F21
s(Vswept
g60
tp4012
F1
s(S','
g183
tp4013
F36
s(Vdeeper
g55
tp4014
F1
s(Vdeath
S'NN'
p4015
tp4016
F8
s(Vearnest
g8
tp4017
F3
s(VAs
g33
tp4018
F3
s(VMost-Noble
g8
tp4019
F1
s(Vmarried
g37
tp4020
F1
s(Vthem
g345
tp4021
F107
s(Vmissed
g37
tp4022
F1
s(Vgenial
g8
tp4023
F1
s(Vsaloon
g19
tp4024
F9
s(Vheavens
g14
tp4025
F1
s(Vgroup
S'NN'
p4026
tp4027
F4
s(Vfull
S'JJ'
p4028
tp4029
F23
s(Vbeen
g3525
tp4030
F79
s(Vho
g19
tp4031
F1
s(Vtell
g16
tp4032
F10
s(Vgets
S'VBZ'
p4033
tp4034
F3
s(V12th
g62
tp4035
F1
s(Vweeks
S'NNS'
p4036
tp4037
F1
s(Vofficer
S'NN'
p4038
tp4039
F15
s(Vseal
g19
tp4040
F2
s(Vsloops
g14
tp4041
F1
s(V`Bashasta
g19
tp4042
F1
s(Varresting
g4
tp4043
F1
s(Vreeled
g35
tp4044
F1
s(Vcommanded
g35
tp4045
F2
s(Vimmense
g8
tp4046
F4
s(Vter
g19
tp4047
F1
s(Vgentleman
g8
tp4048
F1
s(Vrestored
g35
tp4049
F1
s(Valmost
g2248
tp4050
F4
s(Vhundreds
g14
tp4051
F1
s(g67
g37
tp4052
F75
s(Vimpressive
g8
tp4053
F1
s(Vdue
g8
tp4054
F1
s(Vshot
g60
tp4055
F1
s(Vadvantage
g19
tp4056
F5
s(Vcost
g37
tp4057
F1
s(Varticles
g14
tp4058
F1
s(g23
g345
tp4059
F1
s(Vrings
g14
tp4060
F6
s(Vsulphurous
g8
tp4061
F1
s(Vhas
g909
tp4062
F83
s(Vdepth
g19
tp4063
F1
s(Venclose
g60
tp4064
F1
s(VBelfort
g70
tp4065
F103
s(V`I
g70
tp4066
F9
s(g8
g8
tp4067
F87
s(Vfields
g14
tp4068
F1
s(Vpurposes
g14
tp4069
F2
s(Vadventure
g19
tp4070
F3
s(Vmisfortune
g19
tp4071
F1
s(g122
g28
tp4072
F2
s(Vupon
g19
tp4073
F4
s(Vcaptured
g8
tp4074
F2
s(Vsurprising
g8
tp4075
F1
s(Vanchorage
g19
tp4076
F1
s(Vattentive
g8
tp4077
F1
s(Vdescended
g35
tp4078
F1
s(Vneat
g8
tp4079
F1
s(Voverboard
g33
tp4080
F3
s(Vpainful
g8
tp4081
F1
s(Vparted
g35
tp4082
F2
s(VLa
g70
tp4083
F2
s(g60
g33
tp4084
F78
s(Vmid-path
g19
tp4085
F1
s(Vpointing
g4
tp4086
F2
s(Vdias
g14
tp4087
F1
s(Vbrailed
g35
tp4088
F1
s(g1236
g18
tp4089
F59
s(Vthrown
g35
tp4090
F4
s(Vliberated
g35
tp4091
F1
s(VBueno
g19
tp4092
F1
s(Vmadly
g33
tp4093
F1
s(Vher
g30
tp4094
F291
s(g18
g697
tp4095
F554
s(Vsleuth
g19
tp4096
F1
s(VEthiopean
g70
tp4097
F2
s(Vdischarge
g19
tp4098
F2
s(Vpast
g57
tp4099
F4
s(Vinhabited
g35
tp4100
F1
s(g2578
g19
tp4101
F45
s(Vbowing
g4
tp4102
F1
s(Vsurrender
g16
tp4103
F2
s(Vurbans
g14
tp4104
F1
s(Vride
g16
tp4105
F4
s(g62
S','
tp4106
F8
s(Vanswered
g37
tp4107
F59
s(Valoof
g19
tp4108
F1
s(Vdiscovering
g4
tp4109
F7
s(Vyesterday
S'NN'
p4110
tp4111
F2
s(Vclearing
g4
tp4112
F1
s(Vheaves
g82
tp4113
F1
s(Vagitation
g19
tp4114
F2
s(Vromance
g19
tp4115
F1
s(V`Merely
g33
tp4116
F1
s(Vmines
g14
tp4117
F1
s(Vre-echoing
g4
tp4118
F1
s(g4007
g183
tp4119
F16
s(Vinstinct
g19
tp4120
F1
s(g1126
g85
tp4121
F7
s(Vhesitating
g4
tp4122
F1
s(Vglance
g19
tp4123
F9
s(Vc.
g16
tp4124
F1
s(Vindifference
g19
tp4125
F1
s(Vround
g8
tp4126
F1
s(Vwo
S'MD'
p4127
tp4128
F1
s(g16
g55
tp4129
F5
s(Vfastidious
g8
tp4130
F1
s(VAh
g19
tp4131
F1
s(Vcontaining
g4
tp4132
F7
s(Vdenunciations
g14
tp4133
F1
s(Vsafety
S'NN'
p4134
tp4135
F18
s(Vslinging
g4
tp4136
F1
s(Vremembered
g16
tp4137
F1
s(Vreply
g19
tp4138
F10
s(S','
g14
tp4139
F15
s(g35
g122
tp4140
F35
s(g1991
S','
tp4141
F1
s(Vsecuring
g4
tp4142
F3
s(Vironical
g8
tp4143
F1
s(VMajesty
g70
tp4144
F11
s(g19
g1141
tp4145
F10
s(Vhomage
g16
tp4146
F1
s(Vstory
S'NN'
p4147
tp4148
F9
s(Vburst
g19
tp4149
F2
s(Vcarved
g35
tp4150
F4
s(Vadrift
g19
tp4151
F1
s(Vapproaching
g4
tp4152
F3
s(Vhither
g21
tp4153
F1
s(Vwonderful
g8
tp4154
F4
s(Vinterview
S'NN'
p4155
tp4156
F3
s(Vattendant
g19
tp4157
F1
s(Vcheek
g19
tp4158
F5
s(g18
g4
tp4159
F168
s(Vpossess
g60
tp4160
F1
s(VCastillian
g70
tp4161
F1
s(Voverhung
g60
tp4162
F1
s(S':'
g19
tp4163
F20
s(Vrender
g16
tp4164
F1
s(V`These
g8
tp4165
F1
s(Vsooner
g16
tp4166
F1
s(Vbequests
g14
tp4167
F2
s(Vcombats
g14
tp4168
F1
s(Vsummer
S'NN'
p4169
tp4170
F2
s(Vdevil
g19
tp4171
F1
s(Vbecalmed
g35
tp4172
F2
s(Vdig
g60
tp4173
F1
s(Vheaps
g14
tp4174
F1
s(Vboarders
g14
tp4175
F1
s(Vdoor
g19
tp4176
F13
s(Vsecond
g16
tp4177
F1
s(g14
g18
tp4178
F402
s(Vancle
g19
tp4179
F2
s(Vmight
S'MD'
p4180
tp4181
F15
s(VFrangist
g8
tp4182
F1
s(Vkness
g19
tp4183
F1
s(Vresidence
g19
tp4184
F1
s(Vrushing
g4
tp4185
F1
s(VDo
g70
tp4186
F1
s(Vfall
g16
tp4187
F6
s(Vcoffers
g14
tp4188
F1
s(Vthee
g14
tp4189
F1
s(Vup
g33
tp4190
F14
s(Vclimate
g19
tp4191
F1
s(Vchased
g35
tp4192
F4
s(g2990
S','
tp4193
F1
s(Vdifficult
S'JJ'
p4194
tp4195
F3
s(Vregarding
g4
tp4196
F1
s(V`My
g19
tp4197
F1
s(g207
g19
tp4198
F2
s(Vdawn
g19
tp4199
F1
s(VAlthough
S'IN'
p4200
tp4201
F1
s(VTurkooman
g70
tp4202
F2
s(V`Throw
g16
tp4203
F1
s(Vtake
g16
tp4204
F33
s(g37
g28
tp4205
F1
s(Vlast
g1308
tp4206
F20
s(Valthough
S'IN'
p4207
tp4208
F4
s(Vattained
g37
tp4209
F1
s(Vsupporting
g4
tp4210
F1
s(Vpulse
g8
tp4211
F1
s(Vonly
g8
tp4212
F7
s(Vbullion
g19
tp4213
F12
s(Vupland
g19
tp4214
F1
s(Vmeant
g60
tp4215
F1
s(g1139
S'.'
tp4216
F2
s(Vwool
g19
tp4217
F1
s(g37
g23
tp4218
F33
s(Vfollow
g16
tp4219
F7
s(Vsenora
g14
tp4220
F1
s(Vput
g35
tp4221
F2
s(Vencountered
g37
tp4222
F1
s(Vusing
S'VBG'
p4223
tp4224
F1
s(Vtelescope
g19
tp4225
F1
s(Vrid
g8
tp4226
F1
s(Vmonks
g14
tp4227
F8
s(Vknees
g14
tp4228
F1
s(Vextent
g19
tp4229
F2
s(g14
g1139
tp4230
F2
s(Vupon
g57
tp4231
F161
s(Vchange
g19
tp4232
F1
s(Vsink
g16
tp4233
F6
s(Vestablishing
g4
tp4234
F1
s(g1536
g19
tp4235
F183
s(Vout
g23
tp4236
F34
s(Vexclamation
g19
tp4237
F1
s(Vohscure
g8
tp4238
F1
s(Vdisembark
g16
tp4239
F1
s(g37
g281
tp4240
F2
s(Vwished
g37
tp4241
F5
s(Vstation
g19
tp4242
F1
s(Vbegan
S'VBD'
p4243
tp4244
F12
s(Vpreperation
g19
tp4245
F1
s(Voff
g57
tp4246
F12
s(Vunsafe
g8
tp4247
F1
s(Von
g2715
tp4248
F222
s(Vhear
g16
tp4249
F3
s(Varmy
g19
tp4250
F2
s(Veleven
g8
tp4251
F1
s(Vhauled
g35
tp4252
F1
s(Vago
g57
tp4253
F1
s(g1195
g55
tp4254
F2
s(Vexpressed
g37
tp4255
F6
s(Vslightly
S'RB'
p4256
tp4257
F1
s(g207
g57
tp4258
F3
s(Vchoice
S'NN'
p4259
tp4260
F2
s(Vhoped
g37
tp4261
F1
s(Vleaden
g8
tp4262
F1
s(Vupon
g8
tp4263
F1
s(Vspec
g19
tp4264
F1
s(Vend
g19
tp4265
F12
s(Vfrown
g19
tp4266
F1
s(Vdrawn
g19
tp4267
F1
s(Vliberties
g14
tp4268
F1
s(Vtrrasure
g19
tp4269
F1
s(Vflame
g19
tp4270
F1
s(Vcouncil
g19
tp4271
F2
s(g8
g70
tp4272
F66
s(Vglass
g19
tp4273
F17
s(VPablo
g70
tp4274
F1
s(g909
g37
tp4275
F4
s(V`driver
g19
tp4276
F1
s(Vbehold
g37
tp4277
F1
s(Vdaring
g4
tp4278
F1
s(Voars
g14
tp4279
F2
s(Vpriceless
g19
tp4280
F1
s(Vnorth-west
g8
tp4281
F1
s(Vrescue
g16
tp4282
F1
s(Vmischief
g19
tp4283
F3
s(VJewels
g14
tp4284
F1
s(Vconstituted
g37
tp4285
F1
s(Vrefreshed
g35
tp4286
F1
s(Vcaptures
g82
tp4287
F1
s(V`Not
g19
tp4288
F2
s(Vpositive
S'JJ'
p4289
tp4290
F1
s(VHammel
g70
tp4291
F2
s(Vsnow-white
g8
tp4292
F2
s(Vrate
S'NN'
p4293
tp4294
F5
s(VSaharicks
g70
tp4295
F2
s(Vrelease
g19
tp4296
F1
s(Vfarthest
g28
tp4297
F1
s(Vascertain
g16
tp4298
F2
s(Vseem
g16
tp4299
F1
s(Vreply
g16
tp4300
F2
s(Vrun
g16
tp4301
F20
s(Vtopsails
g14
tp4302
F1
s(g37
g2578
tp4303
F19
s(Vwardrobe
g19
tp4304
F1
s(Vcentral
S'JJ'
p4305
tp4306
F1
s(Vnegligently
g33
tp4307
F1
s(Vimposing
g4
tp4308
F1
s(Vlanded
g35
tp4309
F2
s(Vquestion
g16
tp4310
F2
s(Vinspired
g37
tp4311
F1
s(Valong
g33
tp4312
F2
s(Vdeparture
g19
tp4313
F7
s(VIndian
g8
tp4314
F2
s(Vbelieve
g16
tp4315
F2
s(g67
S'IN'
p4316
tp4317
F2
s(g122
g55
tp4318
F3
s(Vexamined
g37
tp4319
F1
s(Vparty
S'NN'
p4320
tp4321
F11
s(Vintelligent
g8
tp4322
F2
s(Vdisabled
g8
tp4323
F1
s(Vlike
g57
tp4324
F30
s(Vexpression
g19
tp4325
F13
s(Vpledged
g37
tp4326
F2
s(Vknow
g16
tp4327
F12
s(Vsuffered
g37
tp4328
F1
s(Vshorn
g35
tp4329
F1
s(g299
g1123
tp4330
F5
s(Vguardians
g14
tp4331
F1
s(g78
g2753
tp4332
F32
s(Vbad
S'JJ'
p4333
tp4334
F1
s(Vunbroken
g8
tp4335
F1
s(Vneither
g166
tp4336
F1
s(Vtree
g8
tp4337
F1
s(Venlarging
g4
tp4338
F1
s(Vtreasure
g19
tp4339
F24
s(Vvista
g19
tp4340
F3
s(Vchebouque
g19
tp4341
F1
s(Vcoins
g14
tp4342
F1
s(Vlevelled
g35
tp4343
F1
s(Vmodel
g19
tp4344
F1
s(Vcontrast
g19
tp4345
F1
s(Vfort
g19
tp4346
F11
s(VAlmed
g70
tp4347
F1
s(Vfifteen
g33
tp4348
F1
s(Vwill
g272
tp4349
F150
s(Vestablishments.
g19
tp4350
F1
s(Vreceipt
g19
tp4351
F2
s(V`Harems
g14
tp4352
F1
s(Vvictim
g19
tp4353
F1
s(Vvain
g8
tp4354
F1
s(Vpillage
g19
tp4355
F1
s(Vsail
g60
tp4356
F3
s(Vwarmth
g19
tp4357
F2
s(Vletter
S'NN'
p4358
tp4359
F2
s(Vbearing
g4
tp4360
F2
s(Vescape
g19
tp4361
F9
s(Vresults
S'NNS'
p4362
tp4363
F1
s(g57
g109
tp4364
F1
s(g33
g8
tp4365
F143
s(Vafar
g33
tp4366
F1
s(Vchiselled
g37
tp4367
F1
s(Vsettled
g35
tp4368
F1
s(VMoslem
g70
tp4369
F1
s(Vindignation
g19
tp4370
F1
s(Vbalustrade
g19
tp4371
F1
s(g33
g35
tp4372
F158
s(Vnarrow
g8
tp4373
F4
s(g37
g675
tp4374
F2
s(Vlove
g19
tp4375
F7
s(Vbelieved
g37
tp4376
F2
s(V`Can
g19
tp4377
F3
s(Vappeared
g37
tp4378
F6
s(Vsombrero
g19
tp4379
F1
s(Vside
g19
tp4380
F35
s(Vascend
g16
tp4381
F4
s(Vinquired
g35
tp4382
F2
s(V`Pull
g19
tp4383
F1
s(Vremain
g60
tp4384
F1
s(Vproposed
g35
tp4385
F1
s(VRiver
g70
tp4386
F1
s(Vprecipitous
g8
tp4387
F1
s(Vreflect
g16
tp4388
F1
s(Vproprietor
g19
tp4389
F2
s(g122
g37
tp4390
F176
s(Vclear
g8
tp4391
F9
s(Vfeeding
g4
tp4392
F1
s(V`Besides
g57
tp4393
F1
s(g697
g4147
tp4394
F809
s(Vglobe
g19
tp4395
F1
s(Vturrets
g14
tp4396
F2
s(g60
g102
tp4397
F3
s(V`Mancha
g19
tp4398
F1
s(Vcacique
g19
tp4399
F1
s(Vdeparted
g8
tp4400
F1
s(g8
g57
tp4401
F155
s(Voblige
g16
tp4402
F1
s(Vsympathised
g37
tp4403
F1
s(g675
g2409
tp4404
F1
s(Vmeaning
g4
tp4405
F1
s(Vrewarded
g35
tp4406
F4
s(Vmanued
g35
tp4407
F1
s(g57
g37
tp4408
F10
s(Vapparent
g19
tp4409
F1
s(Vbirds
g14
tp4410
F3
s(Vsecure
g19
tp4411
F1
s(VFrangistan
g70
tp4412
F3
s(Vcruise
g16
tp4413
F6
s(Vthink
g16
tp4414
F5
s(Vrose-wood
g19
tp4415
F1
s(Vmillion
g2753
tp4416
F12
s(Ventered
g35
tp4417
F5
s(Vlotus-blossom
g19
tp4418
F1
s(Vcoul
g60
tp4419
F1
s(Vexpense
g19
tp4420
F1
s(Vcorpses
g14
tp4421
F1
s(Vpiously
g33
tp4422
F1
s(Vsettling
g4
tp4423
F2
s(Vsent
g37
tp4424
F3
s(Vrequired
g35
tp4425
F2
s(Vspurs
g14
tp4426
F1
s(Vproceed
g35
tp4427
F1
s(g19
g57
tp4428
F1652
s(VTyburn
g70
tp4429
F1
s(Vblowing
g4
tp4430
F3
s(g447
g2111
tp4431
F42
s(Vsquare
g60
tp4432
F1
s(g19
g299
tp4433
F4
s(Vperfect
g8
tp4434
F3
s(Vnumber
S'NN'
p4435
tp4436
F5
s(Vretirement
S'NN'
p4437
tp4438
F2
s(V`Perhaps
g14
tp4439
F3
s(Vlearned
g35
tp4440
F2
s(g272
g2111
tp4441
F2
s(VTwo
S'CD'
p4442
tp4443
F2
s(Voldest
g28
tp4444
F1
s(Vsee
g60
tp4445
F29
s(Vdivining
g4
tp4446
F2
s(Vbooty
g19
tp4447
F1
s(Vbelief
g19
tp4448
F1
s(Vflaunting
g8
tp4449
F1
s(Vflew
g37
tp4450
F2
s(Vfreight
g19
tp4451
F3
s(Vdenounce
g16
tp4452
F1
s(Vsomewhat
g33
tp4453
F1
s(g30
g122
tp4454
F10
s(Vpresents
g14
tp4455
F1
s(Vquarter-deck
g19
tp4456
F4
s(g606
S':'
tp4457
F6
s(Vbrings
g82
tp4458
F1
s(Vfield
S'NN'
p4459
tp4460
F2
s(Vweather
g19
tp4461
F1
s(Vready
g8
tp4462
F3
s(Vdesires
g82
tp4463
F2
s(Vpriory
g19
tp4464
F5
s(Villuminated
g8
tp4465
F1
s(g106
g1941
tp4466
F1
s(Vact
g19
tp4467
F4
s(g183
g62
tp4468
F4
s(Vstrangely
g33
tp4469
F2
s(Vsearch
g16
tp4470
F1
s(Vabodes
g14
tp4471
F1
s(Vdrawn
g35
tp4472
F1
s(g109
g102
tp4473
F4
s(Vornrmented
g35
tp4474
F1
s(Vsouthern
g8
tp4475
F3
s(VHow
g109
tp4476
F7
s(Vfellows
g14
tp4477
F2
s(Vfree
g16
tp4478
F1
s(Vbodies
g14
tp4479
F1
s(Vindeed
S'RB'
p4480
tp4481
F7
s(Vshores
g14
tp4482
F2
s(VAbout
g57
tp4483
F2
s(Vrecently
S'RB'
p4484
tp4485
F2
s(Vgray
g8
tp4486
F2
s(Vsweeping
g4
tp4487
F1
s(Vportion
S'NN'
p4488
tp4489
F5
s(VAlone
g33
tp4490
F1
s(g19
g183
tp4491
F246
s(S'PRP'
p4492
g33
tp4493
F132
s(VDesert
g70
tp4494
F11
s(Vmarked
g37
tp4495
F2
s(Vrecognized
g35
tp4496
F1
s(Vlooms
g14
tp4497
F1
s(Vfollowed
g37
tp4498
F8
s(Vexperienced
g35
tp4499
F1
s(Vaccounted
g37
tp4500
F1
s(Vadvances
g14
tp4501
F1
s(VPrevious
g8
tp4502
F1
s(Vsnowy
g8
tp4503
F1
s(Vfilled
g37
tp4504
F6
s(Vhundle
g19
tp4505
F1
s(g14
g183
tp4506
F57
s(Vsure
g8
tp4507
F1
s(Vhabited
g37
tp4508
F1
s(Vodds
g60
tp4509
F1
s(Vcondescended
g35
tp4510
F1
s(Vsustained
g35
tp4511
F1
s(Vonce
g33
tp4512
F37
s(Vwishing
g4
tp4513
F2
s(g19
S':'
tp4514
F116
s(VThey
S'PRP'
p4515
tp4516
F15
s(Vrash
g8
tp4517
F1
s(Vmay
S'MD'
p4518
tp4519
F31
s(Vgraciously
g33
tp4520
F3
s(Vdesire
g60
tp4521
F6
s(g410
g183
tp4522
F41
s(Veloquent
g8
tp4523
F1
s(Vsname
g19
tp4524
F1
s(Vsapphire
g19
tp4525
F1
s(g8
g14
tp4526
F328
s(Vclasps
g19
tp4527
F1
s(Vcottage
g19
tp4528
F1
s(Vsorrow
g19
tp4529
F2
s(Vcompelled
g37
tp4530
F1
s(Vpaces
g14
tp4531
F1
s(VAfter
S'IN'
p4532
tp4533
F12
s(Vpistols
g14
tp4534
F2
s(Vboxes
g14
tp4535
F5
s(Vtime
S'NN'
p4536
tp4537
F54
s(Vgain
g60
tp4538
F1
s(V`Through
g57
tp4539
F1
s(Vexplosion
g19
tp4540
F1
s(Vrace
S'NN'
p4541
tp4542
F1
s(Vlived
g35
tp4543
F1
s(Vluxurious
g8
tp4544
F2
s(g33
g675
tp4545
F2
s(Vshoulders
g14
tp4546
F7
s(Vhonest
g8
tp4547
F2
s(Vpenetrating
g19
tp4548
F3
s(Vdraw-bridge
g19
tp4549
F1
s(Vshall
g113
tp4550
F62
s(Veffect
S'NN'
p4551
tp4552
F4
s(Vfight
g19
tp4553
F2
s(g690
g21
tp4554
F1
s(Vport
g19
tp4555
F45
s(Vforehead
g19
tp4556
F3
s(Vband
g19
tp4557
F4
s(Vsailer
g19
tp4558
F1
s(Vfeelings
g14
tp4559
F1
s(V`Having
g4
tp4560
F1
s(Vstately
g8
tp4561
F2
s(g606
S','
tp4562
F19
s(S','
g299
tp4563
F1
s(Vspare
g16
tp4564
F3
s(Vkaftanji
g19
tp4565
F1
s(Vremember
g60
tp4566
F1
s(g35
g19
tp4567
F31
s(Vdiamonds
g14
tp4568
F11
s(Vstopped
g37
tp4569
F3
s(VGenoa
g70
tp4570
F4
s(S'DT'
p4571
g60
tp4572
F3
s(Vforbid
g82
tp4573
F1
s(g183
g1110
tp4574
F37
s(Vabout
g33
tp4575
F4
s(Vpressed
g35
tp4576
F1
s(V`Is
g19
tp4577
F2
s(Vhighly
S'RB'
p4578
tp4579
F1
s(Vsword
g60
tp4580
F1
s(Vdashing
g4
tp4581
F3
s(Vaback
g19
tp4582
F1
s(Vtopgallant-mast
g8
tp4583
F1
s(Vmidway
g19
tp4584
F1
s(Vlocked
g37
tp4585
F4
s(Vseverely
g33
tp4586
F1
s(Vgold
g19
tp4587
F45
s(Vpomegranate
g19
tp4588
F3
s(Vflashed
g35
tp4589
F2
s(Vbox
g19
tp4590
F1
s(Vday
S'NN'
p4591
tp4592
F44
s(g37
S'.'
tp4593
F26
s(Vwithdrawn
g60
tp4594
F1
s(Vwitnessed
g35
tp4595
F1
s(Vnews
S'NN'
p4596
tp4597
F11
s(Vaided
g37
tp4598
F1
s(Vafterwards
g33
tp4599
F1
s(Vstroked
g37
tp4600
F1
s(Vback
g23
tp4601
F2
s(g30
g183
tp4602
F5
s(VDiego
g70
tp4603
F1
s(Vbusied
g37
tp4604
F1
s(Vbathe
g16
tp4605
F1
s(V`You
g14
tp4606
F21
s(Vriding
g4
tp4607
F4
s(VGolden-cages
g70
tp4608
F1
s(g299
S':'
tp4609
F1
s(Vforbid
g37
tp4610
F1
s(Vmakes
S'VBZ'
p4611
tp4612
F1
s(g8
g82
tp4613
F3
s(VCastillian
g8
tp4614
F2
s(Vdelivered
g35
tp4615
F1
s(Vcruiser
g19
tp4616
F1
s(Vowned
g37
tp4617
F1
s(Vloud
g8
tp4618
F5
s(Vambassador
g19
tp4619
F1
s(Vstartled
g35
tp4620
F1
s(Vwealth
g33
tp4621
F1
s(Vvanished
g35
tp4622
F1
s(g166
S'.'
tp4623
F11
s(Vreach
g19
tp4624
F5
s(Vemployed
g35
tp4625
F3
s(Vfaith
g19
tp4626
F2
s(Vcostly
S'JJ'
p4627
tp4628
F4
s(Veighteen
g8
tp4629
F2
s(Vten
g33
tp4630
F1
s(Vpadre
g8
tp4631
F1
s(g30
S':'
tp4632
F5
s(Vthey
S'PRP'
p4633
tp4634
F70
s(Vwalking
g19
tp4635
F1
s(Vdisturbing
g4
tp4636
F1
s(Vthree
g356
tp4637
F39
s(Vransom
g19
tp4638
F1
s(g3117
g33
tp4639
F4
s(Vtowards
g14
tp4640
F11
s(Vfinely
g33
tp4641
F3
s(Vbill
S'NN'
p4642
tp4643
F1
s(Vdeck.
g19
tp4644
F1
s(Vtable
g19
tp4645
F2
s(Vpistol
g19
tp4646
F2
s(Vheard
g35
tp4647
F8
s(Vby-word
g19
tp4648
F1
s(Vgallant
g8
tp4649
F1
s(Vlaugh
g16
tp4650
F1
s(Valternative
g8
tp4651
F1
s(Vsublime
g8
tp4652
F1
s(Vled
g35
tp4653
F5
s(Vpleasant
g8
tp4654
F2
s(S'VBZ'
p4655
S':'
tp4656
F3
s(Vladen
g8
tp4657
F1
s(g16
g183
tp4658
F60
s(VAlas
g1991
tp4659
F1
s(Vnominally
g33
tp4660
F1
s(Vsaving
g4
tp4661
F3
s(Vspar
g19
tp4662
F2
s(VTunisian
g8
tp4663
F9
s(Vinterred
g35
tp4664
F1
s(Vevidently
g33
tp4665
F7
s(Vcapitan
g19
tp4666
F15
s(Vpruning
g4
tp4667
F2
s(Vquest
g19
tp4668
F1
s(Vsleep
g16
tp4669
F1
s(Vcry
g16
tp4670
F1
s(Vrest
g19
tp4671
F2
s(Vwars
g14
tp4672
F1
s(Vfigures
g14
tp4673
F1
s(Vfore-topmast
g19
tp4674
F1
s(Vmusketeers
g14
tp4675
F1
s(Vshoes
g14
tp4676
F1
s(Vdiamonds.
g19
tp4677
F1
s(Vdared
g37
tp4678
F1
s(Vintellect
g19
tp4679
F1
s(Vwalled
g8
tp4680
F1
s(Vindistinctly
g33
tp4681
F1
s(g60
g95
tp4682
F1
s(Vslender
g19
tp4683
F2
s(g70
g1139
tp4684
F34
s(Vconfirmation
g19
tp4685
F1
s(Vmane
g19
tp4686
F1
s(g16
S':'
tp4687
F7
s(Vrepair
g16
tp4688
F2
s(Vendowed
g35
tp4689
F1
s(Vadverse
g8
tp4690
F1
s(VSultan
g70
tp4691
F4
s(Vus
g471
tp4692
F46
s(Vburned
g35
tp4693
F1
s(Vdefy
g16
tp4694
F1
s(g28
g773
tp4695
F1
s(Vindividual
g8
tp4696
F1
s(VYou
S'PRP'
p4697
tp4698
F23
s(Vbag
g19
tp4699
F10
s(g30
g281
tp4700
F1
s(Vattendants
g14
tp4701
F2
s(Vbuccaneer
g19
tp4702
F4
s(Vfloated
g35
tp4703
F2
s(g60
g2578
tp4704
F4
s(Vsiver
g19
tp4705
F1
s(Vdwelling
g19
tp4706
F1
s(Vpass
g19
tp4707
F1
s(Vivory
g19
tp4708
F2
s(V8\u005c
g62
tp4709
F1
s(Vrespectable
g8
tp4710
F1
s(Vcaravan
g19
tp4711
F3
s(Vlists
g82
tp4712
F1
s(Vsuppose
g16
tp4713
F1
s(g8
g27
tp4714
F13
s(Vanguish
g8
tp4715
F1
s(VF.
g1074
tp4716
F2
s(Vview
g16
tp4717
F1
s(VThere
g3450
tp4718
F35
s(Vrevealed
g37
tp4719
F1
s(Vcommunicate
g16
tp4720
F1
s(Vlighted
g35
tp4721
F2
s(VSt
g70
tp4722
F7
s(Vswam
g60
tp4723
F1
s(g70
g35
tp4724
F3
s(Vexcited
g35
tp4725
F1
s(Vcurious
g8
tp4726
F2
s(Vexquisitely
g33
tp4727
F1
s(Vonward
g8
tp4728
F1
s(V`Companions
g14
tp4729
F1
s(Vfeared
g37
tp4730
F1
s(Vflaming
g4
tp4731
F1
s(Vpalace
g19
tp4732
F17
s(g19
g1211
tp4733
F129
s(Vsubsequently
g33
tp4734
F2
s(Vfore-yard
g8
tp4735
F2
s(V`True
g8
tp4736
F1
s(Vprevail
g16
tp4737
F1
s(VNeptune
g70
tp4738
F1
s(Vbold
g8
tp4739
F9
s(Vfear
g19
tp4740
F9
s(Vthemselves
S'PRP'
p4741
tp4742
F6
s(g122
g30
tp4743
F52
s(Vrepeat
g60
tp4744
F1
s(g183
g4316
tp4745
F2
s(Vsurged
S'VBD'
p4746
tp4747
F1
s(Vloading
g4
tp4748
F1
s(Vmounted
g8
tp4749
F3
s(Vattacked
g35
tp4750
F3
s(Vleave
g16
tp4751
F13
s(Vrare
g8
tp4752
F1
s(Vdefence
g19
tp4753
F4
s(Vtransfer
g16
tp4754
F1
s(Vcornelian
g8
tp4755
F1
s(Vvast
g8
tp4756
F8
s(Vheight
g19
tp4757
F6
s(VDesignate
g70
tp4758
F1
s(Vland
g16
tp4759
F7
s(VDestiny
g70
tp4760
F1
s(g122
S','
tp4761
F11
s(Vobscurity
g19
tp4762
F1
s(VQueen
g70
tp4763
F1
s(Vdangerous
g8
tp4764
F4
s(Vperfumed
g35
tp4765
F1
s(VAna
g70
tp4766
F23
s(Voffing
g19
tp4767
F2
s(Vdo
g60
tp4768
F18
s(Vheretic
g19
tp4769
F1
s(V`How
g19
tp4770
F2
s(VAmen
g33
tp4771
F1
s(Vgestures
g14
tp4772
F1
s(Vdeck
g19
tp4773
F51
s(Vdaily
g33
tp4774
F1
s(g4
g2905
tp4775
F1
s(Vpositiveness
g19
tp4776
F1
s(VHappy
g8
tp4777
F1
s(g578
g2308
tp4778
F1
s(Vsuit
g19
tp4779
F1
s(Vflour
g19
tp4780
F1
s(Vsupported
g35
tp4781
F1
s(Vrode
g37
tp4782
F1
s(g37
g21
tp4783
F8
s(Valonside
g33
tp4784
F1
s(Vbelt
g19
tp4785
F6
s(Vlet
g16
tp4786
F19
s(Vtall
g19
tp4787
F1
s(g183
g876
tp4788
F3
s(Vpraised
g35
tp4789
F1
s(VAbington
g70
tp4790
F2
s(Vslaves
g14
tp4791
F21
s(Vinherit
g16
tp4792
F1
s(Vflames
g14
tp4793
F5
s(Vpreparatory
g19
tp4794
F1
s(Vbargain
g19
tp4795
F1
s(Vset
g37
tp4796
F1
s(VPrior
g70
tp4797
F3
s(VThus
g33
tp4798
F2
s(Vfond
g19
tp4799
F1
s(Varoused
g37
tp4800
F1
s(Vwhether
S'IN'
p4801
tp4802
F5
s(Vencouragement
g19
tp4803
F1
s(Vpowdered
g35
tp4804
F1
s(Vfoes
g14
tp4805
F1
s(Vhalf
g8
tp4806
F1
s(Vanimated
g8
tp4807
F1
s(Vre-ascended
g37
tp4808
F1
s(Vlosing
g4
tp4809
F1
s(g106
S'('
tp4810
F1
s(Vsacks
g14
tp4811
F1
s(VAdmiralty
g70
tp4812
F3
s(Vindifferent
g8
tp4813
F3
s(g35
S'.'
tp4814
F63
s(VSquadron
g70
tp4815
F1
s(Voverseer
g19
tp4816
F1
s(Vfollows
g4655
tp4817
F3
s(Vrumor
g19
tp4818
F1
s(S','
g2308
tp4819
F1
s(Velder
g19
tp4820
F1
s(Vlatitude
g19
tp4821
F2
s(Vdefeated
g35
tp4822
F1
s(Vprinclples
g14
tp4823
F1
s(Vrising
g19
tp4824
F2
s(Vprovided
g37
tp4825
F1
s(Vsatisfying
g4
tp4826
F1
s(Vdelineated
g35
tp4827
F2
s(Vthereby
g19
tp4828
F1
s(Vdisplays
g14
tp4829
F1
s(Vvain
g19
tp4830
F1
s(Vresolved
g35
tp4831
F5
s(Vvictorious
g8
tp4832
F1
s(Vbriefly
g16
tp4833
F2
s(Vblood-thirsty
g8
tp4834
F1
s(Vmysteriously
g33
tp4835
F1
s(Vaver
g16
tp4836
F1
s(Vdepart
g19
tp4837
F1
s(Vspite
g19
tp4838
F1
s(Vauthorised
g37
tp4839
F1
s(Vhoisted
g37
tp4840
F5
s(Vtalking
S'VBG'
p4841
tp4842
F2
s(VJamaica
g70
tp4843
F5
s(Vstreet
g19
tp4844
F4
s(Vbrooches
g14
tp4845
F1
s(Vprisoner
g19
tp4846
F7
s(Vdemanded
g35
tp4847
F5
s(Vplan
g19
tp4848
F6
s(g60
g281
tp4849
F1
s(Vlingered
g35
tp4850
F2
s(Vsingly
g33
tp4851
F1
s(VSpeak
g19
tp4852
F1
s(Vfurnish
g16
tp4853
F1
s(Vsplendid
g8
tp4854
F2
s(Vlatteen
g8
tp4855
F1
s(Vmistrustfully
g33
tp4856
F1
s(Vexulting
g19
tp4857
F1
s(Voutside
g8
tp4858
F2
s(Vsacred
g35
tp4859
F1
s(VMy
g30
tp4860
F8
s(Vvessel
g19
tp4861
F68
s(Vtwo
g2261
tp4862
F57
s(Vtwenty
g8
tp4863
F3
s(Vreceive
g60
tp4864
F1
s(Vlamb
g19
tp4865
F1
s(Vspread
g16
tp4866
F1
s(Vindulged
g35
tp4867
F1
s(g14
g60
tp4868
F113
s(Vtomorrow
S'NN'
p4869
tp4870
F7
s(g70
g19
tp4871
F59
s(VColony
g70
tp4872
F1
s(VInfidels
g14
tp4873
F1
s(Vtravelled
g37
tp4874
F1
s(Vfierce
g8
tp4875
F4
s(Vangry
g8
tp4876
F3
s(Vmonk
g8
tp4877
F1
s(Vdash
g19
tp4878
F1
s(Vswear
g60
tp4879
F2
s(Vpresented
g37
tp4880
F4
s(g166
g19
tp4881
F2718
s(Vhold
g33
tp4882
F1
s(Vassumed
g35
tp4883
F1
s(Vmean
g19
tp4884
F1
s(Vturning
g19
tp4885
F1
s(Vneck
g19
tp4886
F5
s(Vleagues
g82
tp4887
F3
s(Vnewer
g55
tp4888
F1
s(VSouthward
g70
tp4889
F1
s(Vwonder
g16
tp4890
F2
s(Vquitting
g4
tp4891
F3
s(V`Mr
g16
tp4892
F1
s(Vbeam
g19
tp4893
F1
s(Vsaying
g4
tp4894
F1
s(Vworth
g8
tp4895
F2
s(VCapitan
g70
tp4896
F14
s(g1829
g16
tp4897
F3
s(Vfree
g8
tp4898
F14
s(Vblack
S'JJ'
p4899
tp4900
F18
s(g37
g27
tp4901
F443
s(S':'
g60
tp4902
F1
s(Vleisure
g19
tp4903
F3
s(Vajar
g19
tp4904
F1
s(VDeywho
g70
tp4905
F1
s(g297
S','
tp4906
F131
s(Vwaving
g4
tp4907
F2
s(Vreverend
g16
tp4908
F1
s(Vextraordinary
S'JJ'
p4909
tp4910
F1
s(Vproper
g8
tp4911
F2
s(Vsheltering
g19
tp4912
F1
s(Vme
g690
tp4913
F129
s(g8
S','
tp4914
F95
s(VPrince
g70
tp4915
F18
s(Vmosque
g19
tp4916
F2
s(Vhollows
g14
tp4917
F1
s(Vshrug
g19
tp4918
F1
s(Vtruck
S'NN'
p4919
tp4920
F1
s(V`As
g33
tp4921
F3
s(Vunite
g16
tp4922
F1
s(S'.'
S':'
tp4923
F2
s(Vemerald
g8
tp4924
F1
s(Vtakes
S'VBZ'
p4925
tp4926
F3
s(Vpavement
g19
tp4927
F2
s(Vsprung
g35
tp4928
F1
s(Vquick
g8
tp4929
F2
s(V`but
g19
tp4930
F1
s(Vaid
g19
tp4931
F7
s(Vworn
g35
tp4932
F2
s(V-but
g8
tp4933
F2
s(Vopen
g16
tp4934
F6
s(Vfollowers
g14
tp4935
F1
s(Vupper
g19
tp4936
F1
s(Vpounder
g19
tp4937
F1
s(VAn
S'DT'
p4938
tp4939
F2
s(Vmerchandise
S'NN'
p4940
tp4941
F1
s(Vbanquet
g19
tp4942
F4
s(Vgardens
g14
tp4943
F6
s(VSan
g24
tp4944
F7
s(Vno
g166
tp4945
F92
s(VWith
S'IN'
p4946
tp4947
F5
s(Vmercy
g19
tp4948
F1
s(VAnselmo
g70
tp4949
F2
s(Vineffectually
g33
tp4950
F1
s(Vfancy
g19
tp4951
F2
s(g281
g1941
tp4952
F46
s(g378
g78
tp4953
F29
s(Vsparkled
g37
tp4954
F1
s(Vforth
g8
tp4955
F1
s(Vear
g19
tp4956
F4
s(Vthere
g675
tp4957
F38
s(VXerifa
g19
tp4958
F5
s(VEvery
g166
tp4959
F1
s(Vafford
g16
tp4960
F2
s(V`A
g8
tp4961
F4
s(Vexplore
g16
tp4962
F1
s(S','
g207
tp4963
F161
s(Vabroad
S'RB'
p4964
tp4965
F2
s(Vdared
g35
tp4966
F1
s(VBesides
g57
tp4967
F4
s(Vback-ground
g19
tp4968
F1
s(Vfright
g19
tp4969
F1
s(Vhither
g33
tp4970
F1
s(VEnglishmen
g70
tp4971
F1
s(Vretired
g37
tp4972
F1
s(Voverheard
g60
tp4973
F1
s(Vsight
g35
tp4974
F1
s(Vsum
g19
tp4975
F1
s(Vtowards
g60
tp4976
F3
s(Vsubstantial
S'JJ'
p4977
tp4978
F2
s(Vvisibly
g33
tp4979
F1
s(Vdug
g35
tp4980
F1
s(g1086
g67
tp4981
F5
s(Vpersonages
g14
tp4982
F1
s(Vgravely
g33
tp4983
F3
s(Vflash
g33
tp4984
F1
s(Vgive
g60
tp4985
F4
s(Vsaints
g14
tp4986
F2
s(VFrench
g8
tp4987
F2
s(Vrolled
g35
tp4988
F2
s(Vveins
g14
tp4989
F1
s(Vothers
S'NNS'
p4990
tp4991
F7
s(Vpretext
g19
tp4992
F1
s(V`Into
g57
tp4993
F1
s(Vnights
g14
tp4994
F2
s(Vsenora
g19
tp4995
F1
s(Vgalloping
g4
tp4996
F2
s(Vpluck
g16
tp4997
F1
s(g3969
g70
tp4998
F6
s(S':'
g281
tp4999
F3
s(Vsighed
g37
tp5000
F1
s(Vladrones
g14
tp5001
F1
s(Vdesignated
g35
tp5002
F1
s(Vassisted
g35
tp5003
F2
s(V12\u005c
g62
tp5004
F1
s(g281
g16
tp5005
F1
s(Vtreason
g19
tp5006
F2
s(Venclosed
g37
tp5007
F1
s(Vascended
g37
tp5008
F1
s(Vcautiously
g33
tp5009
F2
s(Vsigns
S'NNS'
p5010
tp5011
F1
s(g60
g27
tp5012
F74
s(Vopened
g35
tp5013
F3
s(Vclearly
S'RB'
p5014
tp5015
F3
s(Vrelating
g4
tp5016
F1
s(Vhimself
g4492
tp5017
F35
s(Vgracefully
g33
tp5018
F1
s(Vreach
g16
tp5019
F18
s(Vstatues
g14
tp5020
F1
s(Vminiature
g19
tp5021
F1
s(g122
g8
tp5022
F94
s(Vplunged
g37
tp5023
F2
s(V``
g789
tp5024
F5
s(Vfurther
g16
tp5025
F1
s(Vblossom
g19
tp5026
F1
s(Vwell-directed
g8
tp5027
F1
s(Venquired
g35
tp5028
F1
s(Vtubed
g37
tp5029
F1
s(Vdrawn
g60
tp5030
F1
s(VTake
g16
tp5031
F1
s(V`Listen
g33
tp5032
F1
s(Vcircling
g4
tp5033
F2
s(Vindicative
g19
tp5034
F1
s(Vevening
g19
tp5035
F6
s(Vhire
g16
tp5036
F1
s(g550
g8
tp5037
F1
s(Vsaved
g37
tp5038
F3
s(Vblushed
g37
tp5039
F1
s(Vtwilight
g19
tp5040
F1
s(Ventrust
g60
tp5041
F1
s(Vthee
g19
tp5042
F10
s(VMay
S'NNP'
p5043
tp5044
F2
s(Vguide
g16
tp5045
F1
s(Vvineyards
g14
tp5046
F1
s(Vrude
g8
tp5047
F2
s(VGold
g19
tp5048
F1
s(Vplace
g16
tp5049
F5
s(VLuff
g16
tp5050
F1
s(Vembrace
g19
tp5051
F1
s(Vadmiringly
g33
tp5052
F1
s(Vinduced
g35
tp5053
F1
s(Vbrotherhood
g19
tp5054
F1
s(VDivan
g19
tp5055
F1
s(Vwont
g8
tp5056
F1
s(Vcadet
g19
tp5057
F1
s(Vchapeaus
g19
tp5058
F1
s(Vpeculiarities
g14
tp5059
F1
s(Vviews
g14
tp5060
F2
s(Vill-visaged
g8
tp5061
F1
s(Vyear
g385
tp5062
F3
s(Vbasin
g19
tp5063
F18
s(Vcrippled
g37
tp5064
F1
s(Vsurrounded
g35
tp5065
F6
s(Vmotive
g19
tp5066
F1
s(VColonel
g70
tp5067
F1
s(Vsorry
g35
tp5068
F1
s(Vbank
S'NN'
p5069
tp5070
F1
s(Vyou
g3720
tp5071
F274
s(V6\u005c
g62
tp5072
F1
s(Vthoughtfully
g33
tp5073
F3
s(g2308
g8
tp5074
F14
s(g102
g4
tp5075
F16
s(Vbarracks
g14
tp5076
F1
s(Vsailed
g37
tp5077
F6
s(Vmistress
g19
tp5078
F4
s(Vthat
g57
tp5079
F165
s(VGovernor
g70
tp5080
F3
s(S','
g82
tp5081
F9
s(Vmonths
S'NNS'
p5082
tp5083
F2
s(V`That
g57
tp5084
F5
s(Vheld
g35
tp5085
F4
s(Vendeavored
g37
tp5086
F1
s(Vpursue
g16
tp5087
F3
s(VSee
g16
tp5088
F3
s(V`Haif
g19
tp5089
F1
s(Vrefusing
g4
tp5090
F1
s(Vrequest
g19
tp5091
F2
s(Vpossibly
g33
tp5092
F2
s(Vquadrangle
g19
tp5093
F1
s(Vvesper
g19
tp5094
F1
s(Vsingle
S'JJ'
p5095
tp5096
F9
s(Velevating
g4
tp5097
F2
s(Vthee
g35
tp5098
F2
s(Veve
g19
tp5099
F3
s(Vspiritual
g8
tp5100
F1
s(V`And
g14
tp5101
F2
s(Vbeat
g19
tp5102
F1
s(Vcoloring
g4
tp5103
F1
s(Vnotes
g14
tp5104
F1
s(Vhospitalities
g14
tp5105
F1
s(Vlifted
g35
tp5106
F1
s(Vships
g14
tp5107
F12
s(g37
g123
tp5108
F17
s(V`Senor
g8
tp5109
F1
s(Vlongitude
g19
tp5110
F1
s(Vsilver
g16
tp5111
F1
s(Vearnest
g28
tp5112
F1
s(g299
g70
tp5113
F1
s(Vcotton
g19
tp5114
F1
s(V-`A
g8
tp5115
F2
s(Vporcelain
g19
tp5116
F2
s(Vforbear
g16
tp5117
F1
s(Vapish
g8
tp5118
F1
s(Vfrankness
g19
tp5119
F1
s(VTHE
g166
tp5120
F2
s(Vcoarse
g8
tp5121
F1
s(Vwisdom
g19
tp5122
F1
s(g70
g67
tp5123
F1
s(Vhalf-uneonscious
g8
tp5124
F1
s(Vtower
g19
tp5125
F2
s(Vfine
g19
tp5126
F1
s(Vpaused
g37
tp5127
F2
s(Vobjects
g14
tp5128
F1
s(VVera
g70
tp5129
F1
s(Vn't
g3938
tp5130
F4
s(Vstrike
g16
tp5131
F1
s(Vbeams
g19
tp5132
F3
s(g109
g33
tp5133
F3
s(Vleft
g37
tp5134
F14
s(Vwalked
g37
tp5135
F1
s(Velegant
g8
tp5136
F2
s(Vhid
g19
tp5137
F4
s(Vtrusty
g8
tp5138
F1
s(V`It
g8
tp5139
F2
s(Vaffection
g19
tp5140
F1
s(Vfamilies
S'NNS'
p5141
tp5142
F1
s(Vto-morrow
g19
tp5143
F1
s(Vweight
g19
tp5144
F3
s(Valtogether
g33
tp5145
F1
s(Vhorror
g19
tp5146
F1
s(Vbound
g19
tp5147
F1
s(g23
g697
tp5148
F14
s(Vbale
g8
tp5149
F1
s(Vgalleon
g19
tp5150
F106
s(Vthrew
g37
tp5151
F5
s(Vattended
g35
tp5152
F2
s(Vburn
g16
tp5153
F2
s(Vsouth-west
g19
tp5154
F1
s(g2261
g14
tp5155
F106
s(Vbefore
g33
tp5156
F3
s(Vescape
g16
tp5157
F13
s(Vtreated
g35
tp5158
F1
s(Vdemand
g19
tp5159
F2
s(Vcolonist
g19
tp5160
F2
s(Vsalute
g19
tp5161
F1
s(g70
g14
tp5162
F10
s(Vboots
g14
tp5163
F1
s(Vsons
g14
tp5164
F1
s(Vfinding
g4
tp5165
F5
s(g4
g675
tp5166
F1
s(Vshort
g8
tp5167
F10
s(Vdarkness
g19
tp5168
F6
s(Valert
g60
tp5169
F1
s(Vlikely
g33
tp5170
F1
s(Vsucceed
S'VB'
p5171
tp5172
F1
s(Vreboso
g19
tp5173
F1
s(S','
g1536
tp5174
F483
s(Voutlet
g19
tp5175
F2
s(Vgrasped
g37
tp5176
F1
s(Vcondition
g19
tp5177
F11
s(Vlanguage
S'NN'
p5178
tp5179
F3
s(Vdost
g19
tp5180
F1
s(Vabode
g19
tp5181
F1
s(g192
g773
tp5182
F67
s(Vcourt
S'NN'
p5183
tp5184
F11
s(V`We
g8
tp5185
F1
s(Vhusbands
g14
tp5186
F1
s(Vsomething
S'NN'
p5187
tp5188
F5
s(Vprison
g19
tp5189
F2
s(VSacred
g70
tp5190
F1
s(Vheaved
g35
tp5191
F1
s(g1441
g16
tp5192
F2
s(g281
g123
tp5193
F1
s(Vquarters
g14
tp5194
F2
s(Vput
g60
tp5195
F1
s(Vwake
g19
tp5196
F1
s(Vawkward
g8
tp5197
F1
s(Vcaptain
g16
tp5198
F2
s(Vpearl
g19
tp5199
F1
s(V!
S'.'
tp5200
F618
s(VSteadily
g33
tp5201
F1
s(Vmorning
g2926
tp5202
F25
s(Vreduced
g35
tp5203
F1
s(Vwearing
g4
tp5204
F1
s(VDuring
S'IN'
p5205
tp5206
F1
s(Vboldly
g33
tp5207
F3
s(Vfronting
g4
tp5208
F1
s(Vseizing
g4
tp5209
F1
s(Vhave
g60
tp5210
F148
s(Vkind
S'NN'
p5211
tp5212
F4
s(Vhalf
g19
tp5213
F6
s(Vdiscovered
g37
tp5214
F4
s(Vsabre
g19
tp5215
F4
s(Vapproached
g37
tp5216
F6
s(Vsilvery
g19
tp5217
F2
s(Vhull
g19
tp5218
F5
s(Vwhile
g57
tp5219
F38
s(g28
g78
tp5220
F2
s(g23
g4
tp5221
F2
s(VCadiz
g70
tp5222
F3
s(Vfound
g35
tp5223
F6
s(Vmeeting
g4
tp5224
F1
s(V`we
g14
tp5225
F1
s(Vwaited
g37
tp5226
F7
s(Vprevent
g16
tp5227
F3
s(Vrenewed
g35
tp5228
F1
s(Vcup
g19
tp5229
F1
s(V2
S'CD'
p5230
tp5231
F1
s(Vproperly
g33
tp5232
F1
s(Vrotunda
g19
tp5233
F3
s(VBirds
g14
tp5234
F1
s(Vmanifestations
g14
tp5235
F1
s(Vfind
g60
tp5236
F4
s(Vreplenished
g35
tp5237
F1
s(Vchallenged
g37
tp5238
F2
s(Vsouth
g33
tp5239
F2
s(g1689
g67
tp5240
F67
s(Vsequins
g14
tp5241
F3
s(VEnglishmen
g14
tp5242
F1
s(Vtwelve
g14
tp5243
F1
s(Vlook
g16
tp5244
F9
s(Vbloodshed
g35
tp5245
F1
s(Vahead
S'RB'
p5246
tp5247
F5
s(Vsharp
g1217
tp5248
F4
s(Vsail
g16
tp5249
F10
s(S','
g606
tp5250
F355
s(Vvine
g19
tp5251
F1
s(Vproceeded
g35
tp5252
F2
s(VDivan
g70
tp5253
F2
s(Vbetrayed
g35
tp5254
F3
s(Vbrave
g60
tp5255
F2
s(VEach
S'DT'
p5256
tp5257
F2
s(Vmischief
g16
tp5258
F1
s(Vcrept
g37
tp5259
F1
s(Vthat
g67
tp5260
F41
s(Vtill
g241
tp5261
F2
s(V`There
g33
tp5262
F4
s(Vpowers
g14
tp5263
F1
s(Vpleasure
g19
tp5264
F3
s(Vsafe
g8
tp5265
F4
s(Vair
g19
tp5266
F15
s(VPerched
g35
tp5267
F1
s(VCurtains
g14
tp5268
F1
s(Vfast-sinking
g8
tp5269
F1
s(Vbreeze
g19
tp5270
F10
s(Vadventures
g14
tp5271
F2
s(VGreek
g8
tp5272
F1
s(Vsea-board
g19
tp5273
F1
s(Vmonasteries
g14
tp5274
F1
s(Vill-fated
g8
tp5275
F1
s(VThat
g57
tp5276
F1
s(g166
g3720
tp5277
F18
s(g1139
g4
tp5278
F1
s(Vhigh
g8
tp5279
F13
s(Vfirst
g33
tp5280
F12
s(g70
g281
tp5281
F4
s(Vheavily
S'RB'
p5282
tp5283
F8
s(Vmidst
g19
tp5284
F3
s(Vremarkably
g33
tp5285
F1
s(Vfaith
g8
tp5286
F1
s(Vmanly
g8
tp5287
F1
s(Vexecuted
g35
tp5288
F2
s(g4
S'.'
tp5289
F19
s(V`Know
g19
tp5290
F1
s(Vjeweled
g8
tp5291
F1
s(Vlap
g19
tp5292
F1
s(Vsouth
g19
tp5293
F5
s(V1700.
g62
tp5294
F1
s(Vboth
g166
tp5295
F14
s(g109
g4
tp5296
F1
s(g16
g447
tp5297
F145
s(Vfowls
g19
tp5298
F1
s(Vpromoted
g35
tp5299
F2
s(Vquickly
S'RB'
p5300
tp5301
F2
s(Vbuilt
g16
tp5302
F1
s(Vsuspects
g82
tp5303
F1
s(Vrowers
g14
tp5304
F1
s(Vthrown
g16
tp5305
F2
s(V`nay
g70
tp5306
F1
s(Vperson
S'NN'
p5307
tp5308
F19
s(Vyok
g19
tp5309
F1
s(Vpure
g8
tp5310
F1
s(Vsuitable
g8
tp5311
F4
s(Vmillions
S'NNS'
p5312
tp5313
F2
s(Vfighting
g19
tp5314
F1
s(Vdoes
S'VBZ'
p5315
tp5316
F5
s(Vhabitual
g8
tp5317
F1
s(Vdried
g8
tp5318
F1
s(Vgenerosity
g19
tp5319
F1
s(VMohammed
g70
tp5320
F1
s(Vlie
g60
tp5321
F2
s(Vloosen
g16
tp5322
F1
s(Vshades
g14
tp5323
F1
s(Vill-looks
g14
tp5324
F1
s(VSound
g70
tp5325
F1
s(Vmutiny
g19
tp5326
F1
s(Vclose-fitted
g8
tp5327
F1
s(Vbride
g19
tp5328
F4
s(Vhalf
g21
tp5329
F21
s(Vlord
g19
tp5330
F19
s(Vlistened
g35
tp5331
F2
s(Vsun-light
g19
tp5332
F1
s(g299
g8
tp5333
F13
s(Vpomegranite
g8
tp5334
F1
s(Vfaithful
g19
tp5335
F1
s(Vpassed
g37
tp5336
F14
s(Vpraise
g19
tp5337
F1
s(Vfamily
S'NN'
p5338
tp5339
F2
s(Vsaw
g82
tp5340
F1
s(Vcold
g8
tp5341
F2
s(Vheard
g16
tp5342
F2
s(Vtreacherons
g14
tp5343
F1
s(VAre
g70
tp5344
F1
s(Vcaptive
g8
tp5345
F2
s(g166
g55
tp5346
F12
s(Vseveral
S'JJ'
p5347
tp5348
F12
s(Vprecious
g8
tp5349
F3
s(Vbesides
g57
tp5350
F5
s(Vanother
g1923
tp5351
F13
s(Vstamped
g35
tp5352
F1
s(VSending
g4
tp5353
F1
s(Vwhither
g33
tp5354
F1
s(Vturn
g19
tp5355
F2
s(Vexecution
g19
tp5356
F2
s(Vchiseled
g35
tp5357
F1
s(Vsir
g19
tp5358
F9
s(Vsize
S'NN'
p5359
tp5360
F4
s(Vfemales
g14
tp5361
F2
s(g183
g14
tp5362
F7
s(Vlooking
S'VBG'
p5363
tp5364
F19
s(Vbroadside
g19
tp5365
F2
s(Vmeasure
g16
tp5366
F1
s(Varchly
g33
tp5367
F1
s(Vextremity
g19
tp5368
F3
s(g14
g3187
tp5369
F9
s(g4
S','
tp5370
F16
s(Valongside
g60
tp5371
F1
s(Vleader
S'NN'
p5372
tp5373
F2
s(V-the
g8
tp5374
F2
s(Vrecollected
g37
tp5375
F1
s(Vchains
g14
tp5376
F8
s(Vrushed
g37
tp5377
F1
s(VWhen
g2990
tp5378
F13
s(g101
g113
tp5379
F11
s(V`If
g19
tp5380
F11
s(Vrealise
g16
tp5381
F1
s(Vunassisted
g8
tp5382
F1
s(Vweapon
g19
tp5383
F1
s(Vsmooth
g60
tp5384
F1
s(Vscil
g8
tp5385
F1
s(Vtold
g8
tp5386
F1
s(Vere
g33
tp5387
F1
s(Vwaved
g37
tp5388
F4
s(V't
g19
tp5389
F1
s(Vinvisible
g8
tp5390
F5
s(S','
g1991
tp5391
F1
s(Vinsurmountable
g8
tp5392
F1
s(Vbearer
g19
tp5393
F2
s(Vpriories
g14
tp5394
F1
s(VHave
g60
tp5395
F1
s(Vdresses
g14
tp5396
F2
s(Vknot
g19
tp5397
F1
s(g60
g28
tp5398
F1
s(V`What
g166
tp5399
F10
s(V`Keep
g16
tp5400
F1
s(Vpoverty
g19
tp5401
F2
s(Vsurveying
g4
tp5402
F4
s(V`Fear
g57
tp5403
F1
s(Vparcels
g14
tp5404
F1
s(Vcoast
g19
tp5405
F17
s(Vslung
g60
tp5406
F1
s(V1
g3322
tp5407
F2
s(Vformerly
g33
tp5408
F3
s(Vwish
g19
tp5409
F1
s(Vdetect
g16
tp5410
F2
s(g618
g1123
tp5411
F219
s(Vkaimac
g19
tp5412
F1
s(g16
g580
tp5413
F197
s(Vpannel
g19
tp5414
F1
s(Vhappened
g35
tp5415
F1
s(Vnarrative
g19
tp5416
F1
s(Vvalor
g19
tp5417
F1
s(Vcliffs
g14
tp5418
F1
s(Vdrunk
g19
tp5419
F1
s(VPiedro
g70
tp5420
F1
s(Vfifty
g8
tp5421
F2
s(Vinlet
g19
tp5422
F14
s(Vflags
g14
tp5423
F2
s(Vunderneath
g57
tp5424
F1
s(Vignorant
g19
tp5425
F1
s(Veunnch
g19
tp5426
F1
s(VCaptain
g70
tp5427
F5
s(Vlooked
g35
tp5428
F1
s(g356
g27
tp5429
F2
s(Vdeclared
g37
tp5430
F1
s(Vattempt
g19
tp5431
F2
s(Vremain
g16
tp5432
F10
s(Venveloped
g35
tp5433
F1
s(Vresistance
g19
tp5434
F3
s(Vbreadth
g19
tp5435
F1
s(Vmankind
g19
tp5436
F1
s(Vhaving
S'VBG'
p5437
tp5438
F26
s(Vengagement
g19
tp5439
F2
s(Vcollar
g19
tp5440
F1
s(Vaccompany
g19
tp5441
F1
s(Vrespectfully
g33
tp5442
F1
s(VGLEASON
g70
tp5443
F1
s(Vvoice
g19
tp5444
F13
s(Vreadily
g33
tp5445
F2
s(g19
g35
tp5446
F63
s(g14
g299
tp5447
F3
s(Vappalled
g37
tp5448
F1
s(Vexceeding
g4
tp5449
F1
s(Vunable
g8
tp5450
F4
s(Vgone
S'VBN'
p5451
tp5452
F10
s(Vdespatched
g35
tp5453
F5
s(g55
g33
tp5454
F3
s(Vperplexed
g37
tp5455
F1
s(Vprefers
g82
tp5456
F2
s(Vremind
g16
tp5457
F2
s(Vnearer
g19
tp5458
F2
s(Vmizzen
g8
tp5459
F1
s(Vwind
g19
tp5460
F28
s(g2139
g57
tp5461
F19
s(Vheart
S'NN'
p5462
tp5463
F16
s(Vbowsprit
g19
tp5464
F1
s(Vfrown
g8
tp5465
F1
s(Vnames
g14
tp5466
F1
s(Vtriumpling
g4
tp5467
F1
s(Vstyle
S'NN'
p5468
tp5469
F1
s(Vejaculated
g35
tp5470
F2
s(Vattached
g35
tp5471
F3
s(Vseemed
g35
tp5472
F1
s(Vnavy
g19
tp5473
F1
s(Vfox
g19
tp5474
F1
s(Veffort
S'NN'
p5475
tp5476
F2
s(Vlarger
S'JJR'
p5477
tp5478
F1
s(Vobserving
g4
tp5479
F2
s(Vshot
g19
tp5480
F22
s(Vreposed
g37
tp5481
F1
s(Vnoiselessly
g33
tp5482
F1
s(g14
g67
tp5483
F26
s(Vvolumes
g14
tp5484
F1
s(Vlines
S'NNS'
p5485
tp5486
F1
s(Vpacked
g37
tp5487
F1
s(Vsnow-which
g8
tp5488
F1
s(VShall
g70
tp5489
F1
s(Vstand
g19
tp5490
F1
s(Varound
g57
tp5491
F12
s(Vnecessarily
g33
tp5492
F1
s(VChristendom
g70
tp5493
F1
s(Vbay
g19
tp5494
F16
s(Vnative
g8
tp5495
F2
s(g82
g113
tp5496
F2
s(Vmain-topmast
g19
tp5497
F2
s(g381
g106
tp5498
F3
s(Vclassic
g8
tp5499
F1
s(Vauchored
g35
tp5500
F1
s(Vterrace.
g19
tp5501
F1
s(Vterritories
g14
tp5502
F1
s(VCharles
S'NNP'
p5503
tp5504
F8
s(Vplans
g14
tp5505
F1
s(Vswim
g16
tp5506
F1
s(Vhall
g19
tp5507
F6
s(Vblanched
g37
tp5508
F1
s(Vflowing
g4
tp5509
F4
s(Vgreatly
g33
tp5510
F2
s(Vthroat
g19
tp5511
F1
s(Vtorrents
g14
tp5512
F1
s(Vtempting
g4
tp5513
F1
s(Vpunished
g37
tp5514
F1
s(Vsurrendered
g37
tp5515
F1
s(Vfat
g8
tp5516
F1
s(Vslaves
g82
tp5517
F1
s(g106
S','
tp5518
F2
s(VLozana
g70
tp5519
F1
s(Vurged
g37
tp5520
F1
s(Vcontrol
g19
tp5521
F1
s(Vhear
g19
tp5522
F1
s(V2d
g62
tp5523
F1
s(Vshow
g16
tp5524
F6
s(Vpitch
g60
tp5525
F1
s(Vlights
g14
tp5526
F2
s(Vsea-robber
g8
tp5527
F1
s(Vdecision
S'NN'
p5528
tp5529
F4
s(Vunkindly
g33
tp5530
F1
s(Vyet
g33
tp5531
F28
s(Vfresh
g8
tp5532
F1
s(g281
S','
tp5533
F6
s(g19
S')'
tp5534
F1
s(V`and
g241
tp5535
F1
s(VJ.
S'NNP'
p5536
tp5537
F1
s(g1092
g3525
tp5538
F11
s(Vprecisely
g33
tp5539
F2
s(Vreverberated
g37
tp5540
F1
s(Vthou
g8
tp5541
F1
s(Vbusily
g33
tp5542
F1
s(Vregular
g8
tp5543
F1
s(Vadditional
S'JJ'
p5544
tp5545
F2
s(Vresigned
g8
tp5546
F1
s(Vgazing
g4
tp5547
F2
s(Vsituated
g35
tp5548
F1
s(Vbuild
g16
tp5549
F2
s(Vrood
g19
tp5550
F3
s(Vhiding
g8
tp5551
F1
s(Vpassenger
g19
tp5552
F3
s(Vgain
g19
tp5553
F1
s(Vmain-deck
g19
tp5554
F1
s(Vtotter
g16
tp5555
F1
s(Vfruitless
g8
tp5556
F1
s(Varound.
g166
tp5557
F1
s(Vruin
g19
tp5558
F4
s(Vbreak
g16
tp5559
F2
s(Vsoloon
g19
tp5560
F1
s(Vfilled
g8
tp5561
F1
s(Vsoldiers
g14
tp5562
F4
s(Vmarry
g19
tp5563
F1
s(Vincreased
g35
tp5564
F2
s(Vlamps
g14
tp5565
F1
s(Vlifting
g4
tp5566
F3
s(Vreverently
g33
tp5567
F1
s(VHark
g19
tp5568
F1
s(VJulio
g70
tp5569
F8
s(Valse
g16
tp5570
F1
s(Vattribute
g19
tp5571
F1
s(Vscarlet
g19
tp5572
F8
s(Vsilence
g16
tp5573
F1
s(Vhairy
g19
tp5574
F1
s(Vguess
g16
tp5575
F1
s(Vbriefly
g37
tp5576
F1
s(g1991
S'.'
tp5577
F2
s(Vpower
S'NN'
p5578
tp5579
F11
s(Villy-rewarded
g8
tp5580
F1
s(Vintended
g37
tp5581
F1
s(Vstand
g16
tp5582
F5
s(Vseats
g14
tp5583
F1
s(Vtrimmed
g35
tp5584
F1
s(Vburning
g4
tp5585
F3
s(Vgrows
g14
tp5586
F1
s(VJose
g33
tp5587
F1
s(Vvery
g33
tp5588
F28
s(Vglad
g8
tp5589
F1
s(Vhamlet
g19
tp5590
F1
s(Vshot
g82
tp5591
F1
s(Vdislodged
g35
tp5592
F1
s(g2932
g60
tp5593
F3
s(Vmode
g19
tp5594
F1
s(VFerninand
g70
tp5595
F1
s(Vears
g14
tp5596
F4
s(Vcommands
g14
tp5597
F1
s(Vfemale
g8
tp5598
F2
s(Vmagnanimity
g19
tp5599
F1
s(Vretreated
g37
tp5600
F1
s(Vwelcome
g8
tp5601
F3
s(Vstriking
g4
tp5602
F2
s(Vmusic
S'NN'
p5603
tp5604
F3
s(Vunderstood
g57
tp5605
F1
s(Vriches
g14
tp5606
F1
s(Vinstead
S'RB'
p5607
tp5608
F5
s(V`Nay
g19
tp5609
F2
s(Vsparkles
g14
tp5610
F1
s(g23
g33
tp5611
F2
s(Vsuperior
g8
tp5612
F1
s(Vlet
g8
tp5613
F1
s(Vdrowned
g35
tp5614
F1
s(Vthread
g19
tp5615
F4
s(Vrich
g82
tp5616
F1
s(Vmerchant
g19
tp5617
F2
s(Vspared
g35
tp5618
F1
s(Vsent
g19
tp5619
F1
s(Vtracks
g82
tp5620
F1
s(Vlament
g19
tp5621
F1
s(Vbowl
g19
tp5622
F1
s(Vraised
g35
tp5623
F2
s(VAuthor
g70
tp5624
F1
s(g122
g183
tp5625
F10
s(Vrakish
g8
tp5626
F1
s(Vduty
g19
tp5627
F5
s(g122
g2905
tp5628
F18
s(Vvicinity
g19
tp5629
F3
s(Vespecially
S'RB'
p5630
tp5631
F2
s(Vgentle
g8
tp5632
F4
s(Vout
g57
tp5633
F19
s(Vhastened
g35
tp5634
F1
s(Vcigar
g19
tp5635
F3
s(Vhusband
g19
tp5636
F1
s(Vparted
g37
tp5637
F1
s(Vnear
g8
tp5638
F1
s(Vpartook
g37
tp5639
F1
s(Vcompany
S'NN'
p5640
tp5641
F6
s(g4571
g122
tp5642
F2
s(Vcaptors
g14
tp5643
F1
s(VWhy
S'WRB'
p5644
tp5645
F2
s(Vleaped
g37
tp5646
F2
s(Vsolicited
g37
tp5647
F1
s(Vcreating
S'VBG'
p5648
tp5649
F1
s(Vwish
g8
tp5650
F2
s(V`Belfort
g19
tp5651
F1
s(Va-board
g19
tp5652
F1
s(Vwelcome
g57
tp5653
F1
s(VEscelentissimo
g70
tp5654
F1
s(Vfood
S'NN'
p5655
tp5656
F1
s(Vvanity
g19
tp5657
F1
s(VInfidels
g70
tp5658
F1
s(Vcovet
g60
tp5659
F1
s(Vtry
g16
tp5660
F3
s(Vslippers
g14
tp5661
F1
s(Vsurveyed
g35
tp5662
F1
s(Vbravely
g33
tp5663
F1
s(V`Well
g33
tp5664
F1
s(Vcakes
g14
tp5665
F1
s(Vmast-head
g8
tp5666
F1
s(g4
g102
tp5667
F1
s(Vseraglio
g8
tp5668
F1
s(Vhuman
g8
tp5669
F6
s(Vsprung
g82
tp5670
F2
s(Vclerk
g19
tp5671
F1
s(Vgrieve
g19
tp5672
F1
s(Vdesert
g8
tp5673
F1
s(Vwait
g16
tp5674
F5
s(VDe
g70
tp5675
F1
s(Vrepaid
g35
tp5676
F1
s(Vthrowing
g4
tp5677
F4
s(Vbethumored
g35
tp5678
F1
s(Vrapid
g8
tp5679
F3
s(Vexclaimed
g37
tp5680
F3
s(Vcolumn
g19
tp5681
F2
s(Vmoon-beams
g14
tp5682
F1
s(V`Heaven
g33
tp5683
F1
s(Veleventh
g8
tp5684
F1
s(g606
g55
tp5685
F13
s(VFrangist
g70
tp5686
F15
s(Vgathering
g19
tp5687
F2
s(Vcourage
g19
tp5688
F6
s(g2111
g70
tp5689
F22
s(Vbeach
g8
tp5690
F1
s(V1701
g62
tp5691
F1
s(Vwide
S'JJ'
p5692
tp5693
F4
s(VBosh
g70
tp5694
F1
s(Vreflecting
g2375
tp5695
F1
s(Vbuzz
g16
tp5696
F1
s(Vperish
g60
tp5697
F1
s(Vadvantageous
g8
tp5698
F1
s(Vretreating
g19
tp5699
F1
s(Vanchor
g19
tp5700
F12
s(Vpapers
g14
tp5701
F1
s(Vconfess
g60
tp5702
F1
s(Vpeculiar
g8
tp5703
F3
s(Vavarice
g19
tp5704
F1
s(g2261
g4
tp5705
F2
s(Vpass
g82
tp5706
F1
s(Vsecond
g8
tp5707
F3
s(Vmen
S'NNS'
p5708
tp5709
F43
s(Vcorrupted
g35
tp5710
F1
s(V`Hda
g19
tp5711
F1
s(VWhat
g101
tp5712
F15
s(Vsunset
g19
tp5713
F2
s(Vcocked
g8
tp5714
F1
s(Vshadows
g14
tp5715
F2
s(Vloving
g19
tp5716
F1
s(g102
g183
tp5717
F11
s(Veaten
g35
tp5718
F2
s(Vintimation
g19
tp5719
F2
s(Vcertainly
S'RB'
p5720
tp5721
F2
s(Vfloating
g4
tp5722
F1
s(Vtill
g19
tp5723
F2
s(Vfighting
g4
tp5724
F3
s(Vpounders
g14
tp5725
F1
s(Vacross
g57
tp5726
F10
s(g28
g14
tp5727
F4
s(Vvessels
g14
tp5728
F23
s(VCorsican
g70
tp5729
F2
s(Vplanning
g4
tp5730
F1
s(g166
g30
tp5731
F11
s(Vwounding
g4
tp5732
F2
s(Vtrays
g14
tp5733
F1
s(Vpromise
g19
tp5734
F7
s(Varrowy
g8
tp5735
F1
s(Vrecovered
g37
tp5736
F1
s(g122
g27
tp5737
F158
s(Vcaptured
g35
tp5738
F8
s(S','
g1161
tp5739
F19
s(Vgoblets
g14
tp5740
F2
s(g122
g748
tp5741
F92
s(Vprevious
g3530
tp5742
F2
s(Vrelating
g19
tp5743
F1
s(Vshaded
g8
tp5744
F1
s(Vreports
g14
tp5745
F1
s(Vnuptials
g14
tp5746
F1
s(Vreached
g37
tp5747
F21
s(Vfaithful
g8
tp5748
F4
s(Vchancel
g19
tp5749
F2
s(Vpursued
g37
tp5750
F1
s(Vtill
g16
tp5751
F4
s(Vcruel
g8
tp5752
F1
s(Vninety-four
g8
tp5753
F1
s(VEllena
g70
tp5754
F1
s(Vsmoking
g4
tp5755
F5
s(Vserpent
g19
tp5756
F1
s(VDo
g60
tp5757
F3
s(Vsuccession
g19
tp5758
F1
s(Vlighted
g8
tp5759
F1
s(Vdown
g33
tp5760
F9
s(Vsteered
g35
tp5761
F1
s(g769
g272
tp5762
F17
s(Vwild-asses
g14
tp5763
F1
s(Vrobbed
g37
tp5764
F1
s(Vaccompanied
g37
tp5765
F1
s(Vpast
g8
tp5766
F4
s(g1065
g675
tp5767
F11
s(Vground
g16
tp5768
F1
s(Vranging
g4
tp5769
F1
s(g35
g109
tp5770
F3
s(g14
g550
tp5771
F1
s(Vhorseman
g19
tp5772
F2
s(Vremark
g19
tp5773
F1
s(g23
g37
tp5774
F1
s(Vvalue
S'NN'
p5775
tp5776
F9
s(Vexist
g60
tp5777
F1
s(Vfoliage
g19
tp5778
F2
s(Vflashing
g19
tp5779
F2
s(Vdisposed
g35
tp5780
F1
s(Vequal
g8
tp5781
F2
s(g618
g166
tp5782
F37
s(Vdrove
g37
tp5783
F2
s(Vcalmly
g33
tp5784
F1
s(Vperish
g16
tp5785
F3
s(Vprepared
g8
tp5786
F1
s(Vbattlements
g14
tp5787
F1
s(g70
g55
tp5788
F2
s(Vpounced
g35
tp5789
F1
s(g67
g102
tp5790
F18
s(S','
g8
tp5791
F60
s(Vmessengers
g14
tp5792
F1
s(Vbrown
g8
tp5793
F1
s(Vdetachment
g19
tp5794
F1
s(VLanding
g4
tp5795
F1
s(Vcleft
g19
tp5796
F2
s(Vaddress
g16
tp5797
F2
s(Vbrass
g19
tp5798
F2
s(Vcoverts
g14
tp5799
F1
s(Vevent
S'NN'
p5800
tp5801
F1
s(Vbranches
g14
tp5802
F1
s(Vcritical
S'JJ'
p5803
tp5804
F2
s(Vseamen
g14
tp5805
F5
s(Vshoal
g19
tp5806
F1
s(Vletting
g4
tp5807
F2
s(Vcarpets
g14
tp5808
F6
s(Vwant
g16
tp5809
F1
s(V-`The
g8
tp5810
F1
s(Vsquare
g8
tp5811
F2
s(Vcrowd
g19
tp5812
F1
s(Voffered
g37
tp5813
F2
s(Vrested
g37
tp5814
F2
s(Vmoored
g35
tp5815
F3
s(Vseized
g35
tp5816
F3
s(Vabaft
g82
tp5817
F1
s(Vecclesiastics
g14
tp5818
F1
s(Veffectually
g33
tp5819
F1
s(S','
S'('
tp5820
F1
s(Vcoined
g8
tp5821
F1
s(Vhat
g19
tp5822
F2
s(g183
g4
tp5823
F6
s(Vgale
g19
tp5824
F6
s(Vpresence
S'NN'
p5825
tp5826
F14
s(Vruinous
g8
tp5827
F1
s(Vthousand
g62
tp5828
F11
s(g102
g55
tp5829
F2
s(Vaustere
g33
tp5830
F1
s(Vtiger
g19
tp5831
F1
s(g23
g19
tp5832
F1
s(Vgorgeous
g8
tp5833
F8
s(Vtriangular
g19
tp5834
F1
s(Vassisted
g37
tp5835
F1
s(Vinn
g19
tp5836
F1
s(Vtaken
g447
tp5837
F36
s(Vresounding
g4
tp5838
F1
s(Vhere
g1421
tp5839
F58
s(Vmassive
g8
tp5840
F3
s(Vclose
g19
tp5841
F5
s(Vsadly
g33
tp5842
F2
s(Vfleetest
g28
tp5843
F1
s(VCorsair
g70
tp5844
F2
s(Vblow
g16
tp5845
F2
s(V`How
g33
tp5846
F1
s(Vfleet
g19
tp5847
F5
s(Vscent
g16
tp5848
F1
s(Vbreeze
g16
tp5849
F1
s(Vone
g62
tp5850
F76
s(Vseated
g8
tp5851
F1
s(Vmaterials
S'NNS'
p5852
tp5853
F1
s(Vsear
g8
tp5854
F1
s(Vopposite
g8
tp5855
F4
s(Vreckless
g8
tp5856
F1
s(g14
g14
tp5857
F10
s(Vbuoyant
g8
tp5858
F1
s(Vsending
g4
tp5859
F4
s(Vtapestry
g19
tp5860
F3
s(Vgun-shot
g8
tp5861
F1
s(Vnorthward
g33
tp5862
F1
s(Vreposing
g4
tp5863
F1
s(Vsunk
g35
tp5864
F2
s(Vblew
g37
tp5865
F1
s(Vmuttered
g8
tp5866
F1
s(Vknelt
g19
tp5867
F1
s(V)
S')'
tp5868
F5
s(Vvoluptuous
g8
tp5869
F2
s(Vblood
g19
tp5870
F7
s(Vwild
g8
tp5871
F3
s(Vchair
g19
tp5872
F2
s(Vhomeward
g19
tp5873
F2
s(V`Oh
g19
tp5874
F3
s(Vsunlight
g19
tp5875
F2
s(Vlofty
g8
tp5876
F7
s(Vattack
g19
tp5877
F2
s(Vcomplained.
g19
tp5878
F1
s(Vkneeling
g4
tp5879
F2
s(Vcups
g14
tp5880
F1
s(Vdeep-toned
g8
tp5881
F1
s(Vintent
g19
tp5882
F1
s(Venters
g82
tp5883
F1
s(Vmaiden
g19
tp5884
F9
s(Vlanded
g37
tp5885
F4
s(g299
g14
tp5886
F1
s(g8
g122
tp5887
F92
s(Veager
g8
tp5888
F5
s(Vguns
g14
tp5889
F21
s(Vyatagan
g19
tp5890
F1
s(g183
g2139
tp5891
F75
s(Vserved
g35
tp5892
F2
s(VPowerful
g70
tp5893
F1
s(Vits
g30
tp5894
F35
s(Vdefended
g37
tp5895
F1
s(Vexamined
g35
tp5896
F1
s(VSuch
g8
tp5897
F1
s(Vdiamonds
g82
tp5898
F1
s(Vchildren
S'NNS'
p5899
tp5900
F3
s(Vbeech
g19
tp5901
F1
s(Vamethysts
g14
tp5902
F1
s(Vincreases
g14
tp5903
F1
s(Vrattled
g37
tp5904
F1
s(Vwhatever
g33
tp5905
F1
s(Veyes
g14
tp5906
F45
s(Vexpedition
g19
tp5907
F2
s(Vmagnificence
g19
tp5908
F4
s(VDesirous
g70
tp5909
F1
s(Vdisappear
g8
tp5910
F1
s(Vpictures
g14
tp5911
F1
s(Vmajestic
g8
tp5912
F1
s(g28
g18
tp5913
F7
s(g70
g272
tp5914
F11
s(Vherbage
g19
tp5915
F1
s(Vturned
g35
tp5916
F1
s(VHas
g82
tp5917
F1
s(Vaseended
g37
tp5918
F1
s(Vgratitude
g19
tp5919
F5
s(V-a
g8
tp5920
F5
s(Vsincere
g8
tp5921
F1
s(Volden
g8
tp5922
F1
s(Vlevelled
g37
tp5923
F3
s(Vread
g16
tp5924
F1
s(Vcentre
g19
tp5925
F1
s(Vconfiscated
g35
tp5926
F1
s(Vgrave
g8
tp5927
F1
s(Vfixed
g37
tp5928
F3
s(VTrust
S'NNP'
p5929
tp5930
F1
s(Vfortress
g19
tp5931
F4
s(Vexample
S'NN'
p5932
tp5933
F1
s(Vstern
g60
tp5934
F1
s(Vposterity
g19
tp5935
F1
s(Vtasted
g37
tp5936
F1
s(Vveiled
g35
tp5937
F1
s(Vpilauf
g19
tp5938
F1
s(Vfly
g19
tp5939
F2
s(V`but
g241
tp5940
F1
s(Vanticipated
g37
tp5941
F1
s(Vbanished
g37
tp5942
F1
s(Vpoint
g19
tp5943
F6
s(VThree
g62
tp5944
F1
s(Vheeded
g37
tp5945
F1
s(Vuse
g16
tp5946
F2
s(Vscudding
g8
tp5947
F1
s(Vchamber
g19
tp5948
F3
s(Vbelonged
g37
tp5949
F4
s(V`Methinks
g14
tp5950
F1
s(Vhad
g35
tp5951
F4
s(g580
g28
tp5952
F12
s(Vaway
g33
tp5953
F20
s(Vlightens
g82
tp5954
F1
s(g183
g183
tp5955
F1
s(VNext
g8
tp5956
F2
s(Vmeteors
g14
tp5957
F1
s(g30
g14
tp5958
F224
s(Ventertained
g37
tp5959
F1
s(Vunder
S'IN'
p5960
tp5961
F43
s(Vgetting
g2348
tp5962
F11
s(g3345
g37
tp5963
F121
s(Vwindows
g14
tp5964
F3
s(Vmeasure
g19
tp5965
F1
s(Vfires
g82
tp5966
F1
s(Vdirections
g14
tp5967
F3
s(Vquarter-decks
g14
tp5968
F1
s(Vsomehow
g19
tp5969
F2
s(Vbroke
g37
tp5970
F4
s(Vhinted
g35
tp5971
F1
s(Varch-traitor
g19
tp5972
F1
s(Vappeared
g35
tp5973
F1
s(g2578
g37
tp5974
F6
s(Vinquired
g37
tp5975
F1
s(Vobserved
g37
tp5976
F2
s(g35
S','
tp5977
F66
s(g19
g21
tp5978
F1
s(Vplums
g14
tp5979
F1
s(VPercy
g70
tp5980
F2
s(Vsincerity
g19
tp5981
F1
s(Vclose
g8
tp5982
F4
s(Vadmiration
g19
tp5983
F5
s(g122
g35
tp5984
F48
s(Vmadness
g19
tp5985
F1
s(Vseeing
g4
tp5986
F8
s(Vlate
g8
tp5987
F2
s(VPacha
g70
tp5988
F7
s(Vdiscover
g60
tp5989
F2
s(Vbulwarks
g14
tp5990
F3
s(VBear
S'NNP'
p5991
tp5992
F1
s(g1033
S'('
tp5993
F1
s(V`But
g16
tp5994
F3
s(Vhundred
g62
tp5995
F6
s(Vblown
g35
tp5996
F2
s(Vdestroy
g82
tp5997
F1
s(V`Anselmo
g19
tp5998
F2
s(V`Thanks
g14
tp5999
F2
s(g122
g14
tp6000
F58
s(Vpeak
g19
tp6001
F2
s(Vlying
g4
tp6002
F12
s(S','
g281
tp6003
F45
s(Vso
g33
tp6004
F62
s(Vscrutinize
g16
tp6005
F1
s(Vbrother
g19
tp6006
F4
s(Vear
g8
tp6007
F1
s(Vconducted
g35
tp6008
F1
s(Vfrigate
g8
tp6009
F1
s(Vflrmly
g19
tp6010
F1
s(V`Amen
g14
tp6011
F1
s(Vassumed
g8
tp6012
F2
s(Vdiscern
g16
tp6013
F3
s(VIsland
g70
tp6014
F6
s(Vcoward
g19
tp6015
F1
s(V`In
g57
tp6016
F1
s(Vwhither
g60
tp6017
F1
s(Vcultivate
g16
tp6018
F1
s(VIndia
g70
tp6019
F1
s(Vbelongs
g82
tp6020
F1
s(Vmountains
g14
tp6021
F9
s(Vsave
g16
tp6022
F6
s(Vcaused
g35
tp6023
F1
s(Vdetected
g35
tp6024
F2
s(Vvizier
g19
tp6025
F2
s(Vriddled
g37
tp6026
F1
s(Vthanked
g37
tp6027
F2
s(Vstationary
g8
tp6028
F1
s(V`and
g82
tp6029
F1
s(Vstep
g19
tp6030
F12
s(Vhung
g35
tp6031
F1
s(Vretreat
g19
tp6032
F1
s(V`Then
g16
tp6033
F2
s(Vadmiring
g4
tp6034
F1
s(Vdoing
S'VBG'
p6035
tp6036
F4
s(g33
g106
tp6037
F1
s(V`The
g14
tp6038
F1
s(Vwoman
S'NN'
p6039
tp6040
F7
s(Vincredulity
g19
tp6041
F1
s(Vcomposed
g37
tp6042
F1
s(Vclambered
g37
tp6043
F1
s(VCall
g21
tp6044
F1
s(g35
g70
tp6045
F36
s(Vescaped
g37
tp6046
F3
s(Vassuredly
g33
tp6047
F1
s(g102
g281
tp6048
F1
s(g16
g299
tp6049
F2
s(Vfigure
g19
tp6050
F1
s(Vcareless
g19
tp6051
F1
s(Vseaward
g19
tp6052
F3
s(Vjumped
g37
tp6053
F1
s(Vgraceful
g8
tp6054
F3
s(Vterrific
g19
tp6055
F2
s(g28
S':'
tp6056
F1
s(g281
g183
tp6057
F1
s(Vlaugh
g19
tp6058
F1
s(Vweapons
S'NNS'
p6059
tp6060
F2
s(Vexplaining
g4
tp6061
F1
s(Vdisguised
g35
tp6062
F1
s(g14
g27
tp6063
F20
s(Varound
g33
tp6064
F2
s(Vproceed
g16
tp6065
F5
s(Vdrum
g19
tp6066
F1
s(Vmanly
g33
tp6067
F1
s(VGALLEON
g70
tp6068
F1
s(g82
g23
tp6069
F7
s(Vwily
g19
tp6070
F1
s(VEastern
g70
tp6071
F2
s(Vinto
g1689
tp6072
F111
s(Vindependence
g19
tp6073
F1
s(Vascertained
g35
tp6074
F1
s(Vbitter
g8
tp6075
F2
s(Vshirt
g19
tp6076
F1
s(g19
g1139
tp6077
F58
s(Vunfeigned
g8
tp6078
F1
s(Vimpossible
g8
tp6079
F3
s(VCatholic
g70
tp6080
F2
s(g192
g37
tp6081
F3
s(Vbringing
g4
tp6082
F6
s(VFrangist
g19
tp6083
F1
s(Vtoken
g19
tp6084
F1
s(Vrefuse
g16
tp6085
F3
s(VGiaour
g70
tp6086
F1
s(Vresign
g16
tp6087
F1
s(Vfatigued
g35
tp6088
F1
s(VGreat
g70
tp6089
F2
s(Vcasting
g4
tp6090
F1
s(Vreading
g4
tp6091
F1
s(VAnd
S'CC'
p6092
tp6093
F7
s(V`True
g19
tp6094
F2
s(Vordered
g37
tp6095
F5
s(Vpostern
g19
tp6096
F2
s(Varrested
g35
tp6097
F2
s(Vowe
g60
tp6098
F1
s(Vtrembling
g4
tp6099
F1
s(Vbound
g57
tp6100
F2
s(Vkissing
g4
tp6101
F1
s(g618
S':'
tp6102
F10
s(Vfollowed
g35
tp6103
F4
s(Vwriting
g19
tp6104
F1
s(Vironically
g33
tp6105
F1
s(g16
g16
tp6106
F11
s(Vfavorite
g8
tp6107
F1
s(Vcamp
g19
tp6108
F3
s(Vspringing
g4
tp6109
F1
s(g67
g2407
tp6110
F1
s(Vfight
g16
tp6111
F2
s(Vsuccessfully
g33
tp6112
F2
s(Vsonorous
g8
tp6113
F1
s(V`You
g8
tp6114
F2
s(Vprofusion
g19
tp6115
F1
s(Vdistant
g60
tp6116
F1
s(V`Ah
g19
tp6117
F3
s(Vtimid
g60
tp6118
F1
s(Vdoublet
g19
tp6119
F1
s(VEffendi
g70
tp6120
F6
s(g70
S')'
tp6121
F2
s(Vfired
g37
tp6122
F2
s(Vheat
g19
tp6123
F2
s(Vround
g16
tp6124
F1
s(Vuttered
g37
tp6125
F2
s(V`Fisherman
g19
tp6126
F1
s(Vputting
S'VBG'
p6127
tp6128
F2
s(Vjewel-be-spangled
g8
tp6129
F1
s(Vanswer
g57
tp6130
F1
s(g14
g4
tp6131
F37
s(Vpace
S'NN'
p6132
tp6133
F4
s(Vstep
g16
tp6134
F1
s(Vkeen
g8
tp6135
F1
s(V`None
g19
tp6136
F1
s(Vsparkling
g8
tp6137
F2
s(Vnear
g57
tp6138
F17
s(Vschooner
g19
tp6139
F1
s(Vclouds
g14
tp6140
F2
s(VSpain
S'NNP'
p6141
tp6142
F16
s(g1126
g2308
tp6143
F2
s(Vnote
g19
tp6144
F1
s(V`By
g19
tp6145
F1
s(Vchase
g19
tp6146
F18
s(Vplacing
g4
tp6147
F4
s(Vprobability
g19
tp6148
F1
s(Vweighed
g35
tp6149
F1
s(Vmyself
g618
tp6150
F11
s(VYes
g1991
tp6151
F1
s(Vsurveyed
g82
tp6152
F1
s(Vromantic
g8
tp6153
F1
s(Vbeheld
g8
tp6154
F1
s(Vbrig
g19
tp6155
F51
s(Vsported
g35
tp6156
F1
s(Vstopped
g35
tp6157
F1
s(VA
g166
tp6158
F21
s(Vreturning
g4
tp6159
F1
s(Vchibouque-bearer
g19
tp6160
F1
s(Veh
g16
tp6161
F1
s(Vsoothing
g8
tp6162
F1
s(VESQ.
g70
tp6163
F1
s(Vo'clock
g19
tp6164
F1
s(Vbows
g82
tp6165
F1
s(VNorth
g70
tp6166
F1
s(g55
g618
tp6167
F2
s(Vspent
g35
tp6168
F1
s(Vemember
g60
tp6169
F1
s(Vcordial
g8
tp6170
F1
s(g4633
g1161
tp6171
F369
s(g618
g281
tp6172
F2
s(Vextremities
g14
tp6173
F1
s(Venjoin
g16
tp6174
F1
s(Vshouts
g14
tp6175
F1
s(g4
g33
tp6176
F50
s(Vmajestically
g33
tp6177
F3
s(Vreligious
g8
tp6178
F5
s(Voverhanging
g4
tp6179
F2
s(Vlocked
g35
tp6180
F1
s(Vpound
S'NN'
p6181
tp6182
F1
s(Vcalling
S'VBG'
p6183
tp6184
F3
s(Vguns
g19
tp6185
F5
s(Vnoble
g8
tp6186
F30
s(S':'
g109
tp6187
F1
s(Vfarther
g19
tp6188
F1
s(Vcalm
g35
tp6189
F1
s(Vtendency
g19
tp6190
F1
s(Vnavies
g14
tp6191
F1
s(Vbrackish
g8
tp6192
F1
s(Vwest
g19
tp6193
F2
s(Vlife
S'NN'
p6194
tp6195
F21
s(Vclouds
g19
tp6196
F1
s(Vsanctuary
g8
tp6197
F1
s(Vchain
S'NN'
p6198
tp6199
F3
s(Vgardner
g19
tp6200
F1
s(Vfalling
S'VBG'
p6201
tp6202
F6
s(g70
g1672
tp6203
F9
s(Vformed
g35
tp6204
F2
s(Vvaulted
g35
tp6205
F1
s(Vbarrels
g14
tp6206
F1
s(Vsuspended
g35
tp6207
F1
s(Vhurriedly
g33
tp6208
F1
s(g62
g666
tp6209
F2
s(Vconsideration
g19
tp6210
F1
s(g8
g60
tp6211
F3
s(Voccasionally
g33
tp6212
F1
s(Vwalk
g60
tp6213
F2
s(Vgratify
g16
tp6214
F1
s(g35
g606
tp6215
F460
s(Voccasioned
g35
tp6216
F1
s(Vvery
g8
tp6217
F2
s(Vrescued
g35
tp6218
F2
s(Vpleased
g8
tp6219
F4
s(Vthy
g16
tp6220
F1
s(VBlock
g70
tp6221
F1
s(Vleads
g82
tp6222
F1
s(g1211
g1141
tp6223
F460
s(Vmoor
g19
tp6224
F1
s(g166
g166
tp6225
F8
s(VCan
g272
tp6226
F3
s(Vshade
g19
tp6227
F1
s(Vtwelve
g8
tp6228
F1
s(g396
g4
tp6229
F63
s(Vconsummation
g19
tp6230
F1
s(V-rich
g8
tp6231
F1
s(Vbeyond
S'IN'
p6232
tp6233
F13
s(V-
S':'
tp6234
F30
s(Vheard
g37
tp6235
F3
s(Vhold
g60
tp6236
F1
s(Vusually
g68
tp6237
F4
s(Vpathway
g19
tp6238
F2
s(S':'
g4316
tp6239
F35
s(Vsmile
g19
tp6240
F16
s(Vstrewn
g21
tp6241
F1
s(Vescorting
g4
tp6242
F1
s(Vbatteries
g14
tp6243
F2
s(Vsleeping
g4
tp6244
F2
s(Vmodest
g1045
tp6245
F1
s(Vforce
g19
tp6246
F3
s(Vnearly
S'RB'
p6247
tp6248
F8
s(Vorigin
g19
tp6249
F2
s(Vone
g19
tp6250
F6
s(Vinterpreted
g37
tp6251
F1
s(g37
g183
tp6252
F116
s(Vsurprise
g16
tp6253
F1
s(Vpleasing
g4
tp6254
F1
s(Vdrawing
g19
tp6255
F1
s(Vremove
g16
tp6256
F2
s(Vbooks
S'NNS'
p6257
tp6258
F1
s(Vprojection
g19
tp6259
F1
s(Vsimple
g8
tp6260
F1
s(Vresumed
g37
tp6261
F2
s(Vknows
g82
tp6262
F1
s(Vocean
g19
tp6263
F3
s(Vgaining
g4
tp6264
F2
s(Vcatch
g16
tp6265
F1
s(g3525
g8
tp6266
F16
s(Vhath
g19
tp6267
F1
s(Vpadre
g19
tp6268
F1
s(Vshone
g19
tp6269
F3
s(Vaccompany
g16
tp6270
F6
s(Vodds
g14
tp6271
F1
s(Vweighed
g37
tp6272
F3
s(Vall
g166
tp6273
F58
s(Vconversation
g19
tp6274
F4
s(Vsealed
g35
tp6275
F4
s(Vneglected
g35
tp6276
F1
s(g23
S'.'
tp6277
F9
s(Vgalleries
g14
tp6278
F1
s(Vedifice
g19
tp6279
F2
s(Vcarpenter
g19
tp6280
F1
s(Vpowder
g19
tp6281
F1
s(Vwaters
g14
tp6282
F10
s(Vfiring
g19
tp6283
F2
s(Vhulls
g14
tp6284
F2
s(Vsuggest
g16
tp6285
F1
s(Vseldom
g19
tp6286
F1
s(Valongside
g33
tp6287
F2
s(VMogul
g70
tp6288
F1
s(Vrap
g16
tp6289
F1
s(Vcompressed
g35
tp6290
F1
s(VCircassian
g8
tp6291
F1
s(Vencircled
g35
tp6292
F1
s(Vgrant
g19
tp6293
F1
s(Vobey
g618
tp6294
F1
s(Vsky-light
g8
tp6295
F2
s(Veminence
g19
tp6296
F4
s(Vours
g33
tp6297
F2
s(g19
g23
tp6298
F3
s(Vpure
g19
tp6299
F1
s(g60
g16
tp6300
F3
s(Vwindow
g19
tp6301
F3
s(Vmeanwhile
g8
tp6302
F2
s(Vdemonstration
g19
tp6303
F1
s(VEven
g33
tp6304
F1
s(Vwayward
g8
tp6305
F1
s(g8
g19
tp6306
F1048
s(Varmor
g19
tp6307
F1
s(V2\u005c
g62
tp6308
F1
s(Vinconsiderable
g8
tp6309
F1
s(VOn
S'IN'
p6310
tp6311
F18
s(VBasin
g70
tp6312
F1
s(V`Let
g16
tp6313
F3
s(Vnose
g19
tp6314
F1
s(V;
S':'
tp6315
F190
s(Vmake
g16
tp6316
F27
s(Vsevere
g8
tp6317
F1
s(Vsat
g37
tp6318
F8
s(Vbetter
g33
tp6319
F1
s(Vastern
g8
tp6320
F4
s(Vcomplete
g8
tp6321
F1
s(Vroar
g19
tp6322
F5
s(Vsufficient
g8
tp6323
F1
s(Vsweet
g19
tp6324
F1
s(VConsul
g70
tp6325
F1
s(Vspreading
g19
tp6326
F1
s(Vbridal
g8
tp6327
F5
s(Vsilent
g8
tp6328
F6
s(Vexceedingly
g33
tp6329
F3
s(Vlodged
g35
tp6330
F1
s(Vtrusts
g14
tp6331
F1
s(V:
S':'
tp6332
F41
s(S','
g550
tp6333
F7
s(Vrocks
g82
tp6334
F1
s(Vwalled
g35
tp6335
F1
s(g37
g299
tp6336
F2
s(Vbecome
g82
tp6337
F1
s(V`How
g14
tp6338
F1
s(Vfault
g19
tp6339
F1
s(Vhammock
g19
tp6340
F1
s(Vthank
g19
tp6341
F1
s(Vcolonies
g14
tp6342
F2
s(Vloaded
g37
tp6343
F1
s(Vattired
g8
tp6344
F1
s(Vwestward
g19
tp6345
F1
s(Vcarpet
g19
tp6346
F5
s(Vconvey
g16
tp6347
F1
s(Vupper
g8
tp6348
F3
s(g207
g67
tp6349
F1
s(Vsipping
g4
tp6350
F1
s(Vfive
g2684
tp6351
F10
s(Vsails
g14
tp6352
F12
s(V-`Heaven
g8
tp6353
F1
s(Vimpressively
g33
tp6354
F1
s(Vthoroughly
g33
tp6355
F1
s(Vlevel
g37
tp6356
F1
s(Vmingled
g8
tp6357
F1
s(Vstorm
g19
tp6358
F13
s(Vrest
g16
tp6359
F1
s(Vthinking
g4
tp6360
F2
s(g37
g528
tp6361
F59
s(V`Now
g16
tp6362
F1
s(Vthither
g19
tp6363
F1
s(VAna
g33
tp6364
F2
s(Vhaif
g19
tp6365
F1
s(Vdescent
g19
tp6366
F1
s(Vdispersed
g8
tp6367
F1
s(Vprefer
g19
tp6368
F1
s(Vluckiest
g28
tp6369
F1
s(VOur
S'PRP$'
p6370
tp6371
F2
s(Vdoubtless
g16
tp6372
F2
s(Vwilderness
g19
tp6373
F1
s(Vrun
g35
tp6374
F8
s(Vsuspicion
g19
tp6375
F6
s(Vlighting
g4
tp6376
F2
s(Vamong
S'IN'
p6377
tp6378
F14
s(Vspoke
g37
tp6379
F8
s(Vbowl-like
g8
tp6380
F1
s(Vsupplant
g16
tp6381
F1
s(Vknow
g70
tp6382
F1
s(Vevident
g8
tp6383
F1
s(Vcontains
g82
tp6384
F2
s(Vstrong
S'JJ'
p6385
tp6386
F2
s(V`Kneel
g19
tp6387
F1
s(Vtrial
S'NN'
p6388
tp6389
F1
s(Vdesires
g14
tp6390
F1
s(Vall
g21
tp6391
F14
s(Vwaist
g19
tp6392
F3
s(Vnervously
g33
tp6393
F1
s(Vpulled
g37
tp6394
F6
s(Vtaunt
g19
tp6395
F1
s(Vdespatches
g14
tp6396
F1
s(Vclean
g16
tp6397
F1
s(Vca
S'MD'
p6398
tp6399
F1
s(Vheaven
g8
tp6400
F1
s(Vset
g35
tp6401
F15
s(Vbales
g14
tp6402
F1
s(Vdischarges
g14
tp6403
F1
s(Vfishing
g4
tp6404
F3
s(Vsays
S'VBZ'
p6405
tp6406
F4
s(Vcocoa
g19
tp6407
F2
s(V3\u005c
g62
tp6408
F1
s(Vleeward
g16
tp6409
F1
s(Vescaping
g4
tp6410
F5
s(g2031
S'.'
tp6411
F95
s(Vincrease
g16
tp6412
F2
s(Vsooner
g19
tp6413
F2
s(Vconsiderable
g8
tp6414
F2
s(Vtown
S'NN'
p6415
tp6416
F7
s(Vyounger
g55
tp6417
F1
s(V`Not
g14
tp6418
F1
s(g3322
g8
tp6419
F14
s(Vprompted
g37
tp6420
F1
s(Vheard
g19
tp6421
F3
s(Vmake
g60
tp6422
F1
s(Vquarter
S'NN'
p6423
tp6424
F8
s(VFelices
g14
tp6425
F1
s(Venchantment
g19
tp6426
F2
s(Vattired
g35
tp6427
F4
s(Vnobles
g14
tp6428
F2
s(Vdescribed
g37
tp6429
F1
s(Vguests
g14
tp6430
F4
s(Vearnestly
g33
tp6431
F10
s(Vovercome
g8
tp6432
F1
s(Vsteps
g14
tp6433
F4
s(Vwrapped
g35
tp6434
F1
s(Vthatched
g8
tp6435
F1
s(V-if
g57
tp6436
F1
s(Vtried
g35
tp6437
F1
s(Vtack
g16
tp6438
F1
s(Vcrowd
g16
tp6439
F1
s(Vlugger
g19
tp6440
F9
s(Vclarions
g14
tp6441
F1
s(Vsouthwardly
g33
tp6442
F1
s(Vmelody
g19
tp6443
F1
s(g299
S','
tp6444
F1
s(Vrisk
g16
tp6445
F2
s(Vnumbered
g37
tp6446
F1
s(S':'
g35
tp6447
F2
s(Vmaster
g19
tp6448
F7
s(VMoor
g70
tp6449
F1
s(Vnext
g33
tp6450
F2
s(Vwent
S'VBD'
p6451
tp6452
F12
s(Vpromised
g35
tp6453
F2
s(Vangle
g19
tp6454
F1
s(Vanger
g19
tp6455
F3
s(Vslain
g19
tp6456
F5
s(Vconfided
g35
tp6457
F1
s(Vacquiesced
g37
tp6458
F1
s(VAlhemdulillah
g19
tp6459
F1
s(Vstudied
g37
tp6460
F1
s(g2926
S','
tp6461
F1043
s(Vcall
g16
tp6462
F3
s(Vexchange
g19
tp6463
F2
s(V`See
g16
tp6464
F1
s(g14
g33
tp6465
F60
s(g122
g60
tp6466
F16
s(Vhanging
g19
tp6467
F1
s(Vtrees
g14
tp6468
F2
s(Vsought
g37
tp6469
F4
s(Vrobbers
g14
tp6470
F2
s(Vlustre
g19
tp6471
F1
s(Vgallery
g19
tp6472
F1
s(Vmerchant
g8
tp6473
F1
s(Vswear
g19
tp6474
F1
s(Vincessant
g8
tp6475
F1
s(Vfeeling
g19
tp6476
F4
s(Valoud
g23
tp6477
F1
s(Vways
S'NNS'
p6478
tp6479
F1
s(Vrepaired
g35
tp6480
F3
s(Vambition
g19
tp6481
F2
s(g4
g5437
tp6482
F1
s(Vfor
g4316
tp6483
F238
s(Vhither
g30
tp6484
F1
s(Vpirates
g14
tp6485
F17
s(Vturned
g37
tp6486
F9
s(g122
g3295
tp6487
F112
s(Vvoices
g14
tp6488
F1
s(Vpersevering
g19
tp6489
F1
s(Vfreebooters
g14
tp6490
F1
s(Veunuch
g19
tp6491
F2
s(Vcream
g19
tp6492
F2
s(g4442
g55
tp6493
F1
s(Vchor
g19
tp6494
F1
s(Vfelt
g35
tp6495
F1
s(VParis
S'NNP'
p6496
tp6497
F1
s(V`Then
g19
tp6498
F9
s(VHonesty
g70
tp6499
F1
s(Veasier
g55
tp6500
F1
s(Vwords
S'NNS'
p6501
tp6502
F11
s(Vcordage
g19
tp6503
F1
s(Vhesitation
g19
tp6504
F2
s(Vgrateful
g8
tp6505
F2
s(Vmocked
g35
tp6506
F1
s(Vsettle
g16
tp6507
F1
s(Vtints
g14
tp6508
F1
s(g62
g109
tp6509
F1
s(g67
g183
tp6510
F3
s(Vfervently
g33
tp6511
F1
s(Vcarrying
g4
tp6512
F2
s(Vfed
g35
tp6513
F1
s(Vmock
g60
tp6514
F1
s(Vstationed
g37
tp6515
F2
s(V`From
g16
tp6516
F1
s(Vsatisfaction
g19
tp6517
F11
s(Vcontinue
g60
tp6518
F1
s(Vturning
g4
tp6519
F9
s(Voccasion
g19
tp6520
F1
s(S')'
g2719
tp6521
F2
s(Vfrequented
g35
tp6522
F1
s(Vdegrees
g14
tp6523
F1
s(g19
g281
tp6524
F21
s(g70
g57
tp6525
F123
s(g2124
g55
tp6526
F5
s(Vlovely
g8
tp6527
F5
s(Veastward
g33
tp6528
F2
s(VFrangi
g70
tp6529
F1
s(Vsoul
g19
tp6530
F8
s(Vbeheld
g16
tp6531
F1
s(Vlightly
g33
tp6532
F4
s(Vstroking
g4
tp6533
F1
s(VEffenda
g70
tp6534
F4
s(Vcourt-yard
g19
tp6535
F1
s(Vinformed
g35
tp6536
F1
s(Vspeak
g16
tp6537
F3
s(g3117
g16
tp6538
F1
s(Vdelightfully
g33
tp6539
F1
s(g62
g2753
tp6540
F5
s(Vmet
g37
tp6541
F6
s(Vrepeatedly
g33
tp6542
F1
s(VAtlantic
g70
tp6543
F2
s(Vlost
g35
tp6544
F11
s(Vmingled
g35
tp6545
F1
s(Vanchored
g35
tp6546
F2
s(Vdispose
g16
tp6547
F1
s(Vfreed
g37
tp6548
F1
s(g23
g183
tp6549
F8
s(Vreplied
g37
tp6550
F5
s(Vpiercing
g19
tp6551
F1
s(Vplainly
g33
tp6552
F2
s(Vdropped
g35
tp6553
F1
s(S','
g21
tp6554
F1
s(Vmizen
g8
tp6555
F1
s(Vneeded
g37
tp6556
F1
s(Vwork
g16
tp6557
F1
s(VCongress
S'NNP'
p6558
tp6559
F1
s(Vretired
g35
tp6560
F3
s(VWho
g281
tp6561
F1
s(Vunfeeling
g8
tp6562
F1
s(V'T
g19
tp6563
F1
s(V`But
g19
tp6564
F6
s(V`Nothing
g4
tp6565
F4
s(Vdistant
g8
tp6566
F7
s(Vevidence
S'NN'
p6567
tp6568
F2
s(Vdown
g57
tp6569
F5
s(Vdiamond
g19
tp6570
F5
s(Vshows
g82
tp6571
F1
s(Vechoes
g14
tp6572
F1
s(Voff
g19
tp6573
F3
s(V`All
g19
tp6574
F1
s(Vpassion
g19
tp6575
F1
s(V`And
g57
tp6576
F1
s(Vmine
g8
tp6577
F2
s(Vwholly
g33
tp6578
F1
s(Voutline
g19
tp6579
F2
s(V`If
g57
tp6580
F3
s(Vknew
g16
tp6581
F2
s(Vvest
g19
tp6582
F1
s(VMajesty
g8
tp6583
F1
s(Vcomparative
g8
tp6584
F1
s(Vcanopy
g19
tp6585
F5
s(Vanti-room
g19
tp6586
F1
s(Vtone
g19
tp6587
F13
s(Vcheeks
g14
tp6588
F1
s(VSpain.
g70
tp6589
F1
s(Vhounds
g14
tp6590
F1
s(VDon
g70
tp6591
F32
s(Vtouched
g35
tp6592
F1
s(g345
g2261
tp6593
F1
s(Valoft
g19
tp6594
F1
s(Vstrewn
g8
tp6595
F2
s(g37
g2308
tp6596
F1
s(Vpermission
g19
tp6597
F1
s(Vwarlike
g8
tp6598
F2
s(Vpieces
g14
tp6599
F5
s(Vadded
g37
tp6600
F6
s(g37
g471
tp6601
F199
s(Vbreeches
g14
tp6602
F1
s(Vcountenance
g19
tp6603
F10
s(Vgrove
g19
tp6604
F1
s(g946
g299
tp6605
F2
s(Vable
S'JJ'
p6606
tp6607
F9
s(Vdetermined
g37
tp6608
F3
s(Vknee
g19
tp6609
F1
s(Vcommenced
g35
tp6610
F1
s(V`Carpets
g14
tp6611
F1
s(V74
g62
tp6612
F1
s(VFiend
g19
tp6613
F1
s(Vdecks
g14
tp6614
F7
s(g70
S':'
tp6615
F19
s(Vsun
g19
tp6616
F7
s(Vblast
g19
tp6617
F1
s(Vthoughtful
g19
tp6618
F1
s(g1302
g70
tp6619
F3
s(g933
g37
tp6620
F24
s(S':'
g1126
tp6621
F3
s(Vadjoining
g4
tp6622
F1
s(VAga
g70
tp6623
F1
s(Vmoral
g8
tp6624
F1
s(Vamount
g19
tp6625
F6
s(Vbroadly
g33
tp6626
F1
s(VAmerican
g70
tp6627
F17
s(Vsix
g197
tp6628
F6
s(Vbit
g16
tp6629
F1
s(Vlady
g19
tp6630
F14
s(Vdrive
g16
tp6631
F1
s(Vconspiracy
g19
tp6632
F1
s(Vmean
g60
tp6633
F1
s(V`hut
g241
tp6634
F1
s(Vexpressions
g14
tp6635
F2
s(Vstartling
g4
tp6636
F1
s(Vperiod
S'NN'
p6637
tp6638
F4
s(g28
g183
tp6639
F1
s(Vlove
g33
tp6640
F1
s(Vsailors
g14
tp6641
F4
s(Vprisons
g14
tp6642
F1
s(Vgun-carriages
g14
tp6643
F1
s(Vmorrow
g19
tp6644
F1
s(Vaware
g8
tp6645
F2
s(Vkeep
g16
tp6646
F12
s(Vmedicine
g19
tp6647
F1
s(Vsearching
g4
tp6648
F1
s(Vefforts
S'NNS'
p6649
tp6650
F1
s(Vbuckles
g14
tp6651
F2
s(V-my
g8
tp6652
F2
s(Vlonger
g33
tp6653
F1
s(Vthe
g27
tp6654
F2645
s(Vbrow
g19
tp6655
F10
s(VI
g666
tp6656
F429
s(Vmissed
g35
tp6657
F2
s(Vsuspicious
g8
tp6658
F1
s(Vhorsemen
g14
tp6659
F4
s(V`we
g1302
tp6660
F1
s(Vblushing
g19
tp6661
F1
s(V`But
g8
tp6662
F1
s(Vsoftly
g33
tp6663
F3
s(Vdense
g19
tp6664
F2
s(Vadvice
g19
tp6665
F1
s(VMorocco
g70
tp6666
F1
s(Vsequins
g82
tp6667
F1
s(Vfaint
g19
tp6668
F2
s(S','
g60
tp6669
F4
s(V`He
g19
tp6670
F14
s(g14
g70
tp6671
F6
s(Vheld
g37
tp6672
F3
s(VBeneath
g57
tp6673
F1
s(Vpath
g19
tp6674
F9
s(Vdanced
g35
tp6675
F1
s(Vdemeanor
g19
tp6676
F1
s(Vlike
g16
tp6677
F2
s(S','
g4492
tp6678
F143
s(Vgiving
S'VBG'
p6679
tp6680
F8
s(Vhumanity
g19
tp6681
F2
s(Vwestern
g8
tp6682
F2
s(Vwrists
g14
tp6683
F1
s(S','
g27
tp6684
F112
s(Vdouble
g16
tp6685
F1
s(g106
S':'
tp6686
F1
s(Vforth
g60
tp6687
F1
s(Vfame
g19
tp6688
F1
s(Vvisages
g14
tp6689
F2
s(Vhesitated
g35
tp6690
F1
s(Vnature
g19
tp6691
F1
s(g281
g19
tp6692
F7
s(Vastern
g60
tp6693
F1
s(Vlifted
g37
tp6694
F1
s(g789
g70
tp6695
F4
s(Vbequeath
g16
tp6696
F1
s(Vnoted
g35
tp6697
F1
s(Vtrusted
g37
tp6698
F3
s(Vbuildings
g14
tp6699
F1
s(g8
g2578
tp6700
F21
s(Vborne
g35
tp6701
F1
s(Vsay
g60
tp6702
F5
s(Vfarthest
g33
tp6703
F1
s(Veastern
g8
tp6704
F2
s(Vmahogany
g19
tp6705
F1
s(VYet
g33
tp6706
F1
s(Vsuspected
g35
tp6707
F4
s(Vflavored
g35
tp6708
F1
s(Voffended
g35
tp6709
F1
s(Vpalfrey
g19
tp6710
F1
s(Vlament
g16
tp6711
F1
s(Vfavored
g35
tp6712
F3
s(Vsteerage
g8
tp6713
F1
s(Vtaking
g19
tp6714
F1
s(Vrid
g16
tp6715
F1
s(Vprayer
g19
tp6716
F2
s(Veagerly
g33
tp6717
F3
s(Vregaining
g4
tp6718
F3
s(Vsun-rise
g8
tp6719
F1
s(Veighth
g8
tp6720
F3
s(Vleft
g35
tp6721
F8
s(Vhoisting
g4
tp6722
F1
s(Vthee
g8
tp6723
F2
s(Vcommissioned
g35
tp6724
F1
s(VFast
g70
tp6725
F1
s(g578
g4
tp6726
F16
s(Vmeet
g16
tp6727
F7
s(Vintending
g4
tp6728
F1
s(Vacquainted
g35
tp6729
F3
s(V-some
g8
tp6730
F1
s(Vresult
g19
tp6731
F1
s(Vunion
S'NN'
p6732
tp6733
F2
s(Vsheltered
g35
tp6734
F2
s(Vseraglio
g19
tp6735
F5
s(VSome
S'DT'
p6736
tp6737
F4
s(VCaptive
g70
tp6738
F1
s(VAli
g70
tp6739
F7
s(Vcast
g35
tp6740
F1
s(Vbroadsides
g14
tp6741
F1
s(VDated
g35
tp6742
F1
s(Vhast
g19
tp6743
F2
s(Vhim
g1033
tp6744
F204
s(Vis
g102
tp6745
F279
s(VDunderbergh
g70
tp6746
F1
s(Vshouted
g37
tp6747
F4
s(Vweighing
g4
tp6748
F1
s(Vloosed
g35
tp6749
F1
s(Vsquadron
g19
tp6750
F2
s(VFinding
g4
tp6751
F1
s(g166
g183
tp6752
F2
s(Vcafeghee
g19
tp6753
F1
s(Vwithout
S'IN'
p6754
tp6755
F58
s(Vouter
g19
tp6756
F3
s(Vthrow
g60
tp6757
F1
s(g4
g281
tp6758
F2
s(VDey
g19
tp6759
F1
s(Vtons
g1501
tp6760
F2
s(Vreader
g19
tp6761
F2
s(V`Thy
g8
tp6762
F1
s(Vvases
g14
tp6763
F4
s(VLet
g16
tp6764
F9
s(Vchagrin
g19
tp6765
F2
s(V`Was
g19
tp6766
F2
s(Vcarldom
g19
tp6767
F1
s(Vrepeat
g19
tp6768
F1
s(Vstudded
g37
tp6769
F2
s(g183
g4536
tp6770
F23
s(Ventirely
g33
tp6771
F1
s(Vson
g19
tp6772
F4
s(V`Standing
g4
tp6773
F1
s(Vmalice
g19
tp6774
F1
s(Vasked
g35
tp6775
F22
s(Vstowed
g35
tp6776
F2
s(Vignited
g37
tp6777
F1
s(VOrders
g14
tp6778
F1
s(Vtransferring
g4
tp6779
F1
s(V`Remain
g19
tp6780
F2
s(Vunearth
g60
tp6781
F1
s(Vtop-sails
g14
tp6782
F1
s(Vquiet
g19
tp6783
F1
s(Vha
g19
tp6784
F1
s(g618
S','
tp6785
F150
s(Vrounding
g4
tp6786
F1
s(V`La
g70
tp6787
F2
s(Vattack
g60
tp6788
F1
s(Varmed
g35
tp6789
F5
s(Vajar
g33
tp6790
F1
s(Vthese
g4571
tp6791
F30
s(Vdagger
g19
tp6792
F1
s(Vnigh
g8
tp6793
F1
s(Valways
S'RB'
p6794
tp6795
F11
s(Vtrust
g60
tp6796
F1
s(g122
g70
tp6797
F22
s(VHeaven
g70
tp6798
F1
s(S'('
g70
tp6799
F1
s(Vcruise
g19
tp6800
F2
s(Vsongs
g14
tp6801
F1
s(g28
S','
tp6802
F2
s(Vdanger
g35
tp6803
F1
s(Voverhung
g82
tp6804
F1
s(Vmessenger
g19
tp6805
F6
s(Vsinking
g4
tp6806
F1
s(Vlay
g19
tp6807
F3
s(Vbeut
g37
tp6808
F1
s(Vwarmly
g19
tp6809
F1
s(Vgift
g19
tp6810
F2
s(Vspecie
g19
tp6811
F8
s(Vmy
g480
tp6812
F168
s(Vgrapes
g14
tp6813
F1
s(Volange
g19
tp6814
F1
s(Vpointblank
g19
tp6815
F1
s(V-`Ajaib
g19
tp6816
F1
s(g70
g356
tp6817
F7
s(Vnightingales
g14
tp6818
F2
s(Vstories
g14
tp6819
F1
s(Varoused
g35
tp6820
F1
s(Vstorms
g14
tp6821
F1
s(Vunhappy
g8
tp6822
F5
s(V`come
g19
tp6823
F1
s(Vslowly
g33
tp6824
F3
s(V`No
g19
tp6825
F14
s(Vafforded
g37
tp6826
F1
s(Vtolling
g4
tp6827
F2
s(VZibales
g14
tp6828
F2
s(Vcome
g19
tp6829
F1
s(g2139
g37
tp6830
F2
s(Vtresses
g14
tp6831
F2
s(Vbelonging
g19
tp6832
F1
s(Vchased
g37
tp6833
F1
s(g35
g14
tp6834
F19
s(Vfit
g16
tp6835
F1
s(Vsomerset
g35
tp6836
F1
s(Vencoueter
g299
tp6837
F1
s(Vlocks
g14
tp6838
F4
s(Vappropriate
g16
tp6839
F4
s(Vhighness
g19
tp6840
F3
s(Vless
g55
tp6841
F13
s(Vfisher
g19
tp6842
F3
s(Vmounted
g35
tp6843
F6
s(g106
g122
tp6844
F2
s(Vfirm
g19
tp6845
F3
s(Vhill
g19
tp6846
F6
s(Vshelter
g19
tp6847
F6
s(VArabs
g106
tp6848
F2
s(Vrun
g19
tp6849
F2
s(Vbecomingly
g33
tp6850
F1
s(Vperform
g16
tp6851
F2
s(V-the
g16
tp6852
F1
s(Vconsul
g19
tp6853
F7
s(Vin
g606
tp6854
F661
s(Vreflection
g19
tp6855
F1
s(Vcut
g37
tp6856
F3
s(Vbetraying
g4
tp6857
F1
s(Varrogantly
g33
tp6858
F1
s(Vrapidity
g19
tp6859
F1
s(Vconvent
g19
tp6860
F10
s(Vdeserve
g16
tp6861
F1
s(Vdarkened
g37
tp6862
F1
s(Vyon
g19
tp6863
F1
s(Vdescending
g19
tp6864
F1
s(Vrush
g16
tp6865
F1
s(Vimmediately
S'RB'
p6866
tp6867
F6
s(g82
g57
tp6868
F42
s(Vshone
g60
tp6869
F1
s(g381
g8
tp6870
F892
s(Vtold
g33
tp6871
F2
s(Vceaseless
g19
tp6872
F2
s(Valso
S'RB'
p6873
tp6874
F29
s(Vcaught
g35
tp6875
F2
s(Vports
g14
tp6876
F2
s(Vours
g14
tp6877
F1
s(g16
g37
tp6878
F2
s(Vcrevice
g19
tp6879
F2
s(Vbugle
g19
tp6880
F3
s(Vterrace
g19
tp6881
F9
s(VDE
g70
tp6882
F1
s(VDoubtless
g19
tp6883
F1
s(g27
g4
tp6884
F26
s(Voil
S'NN'
p6885
tp6886
F2
s(Vstruck
g37
tp6887
F5
s(Vopportunity
S'NN'
p6888
tp6889
F4
s(g3720
S'.'
tp6890
F191
s(V1-2
g8
tp6891
F1
s(g122
g67
tp6892
F6
s(Vapprehensions
g14
tp6893
F1
s(Vresentful
g19
tp6894
F1
s(Vcushion
g19
tp6895
F3
s(VSpeak
g70
tp6896
F1
s(Vsilver
g19
tp6897
F30
s(Vexcitement
g19
tp6898
F3
s(Vgoat-herds
g14
tp6899
F1
s(V11\u005c
g62
tp6900
F1
s(Vnation
S'NN'
p6901
tp6902
F1
s(Vneed
g16
tp6903
F1
s(Vrocky
g8
tp6904
F5
s(Vworthy
g19
tp6905
F2
s(Vleaves
g14
tp6906
F2
s(VMorisco
g70
tp6907
F1
s(Vwitness
g16
tp6908
F1
s(Vexpressed
g35
tp6909
F1
s(g16
g33
tp6910
F55
s(Vcommand
g60
tp6911
F1
s(g1672
g55
tp6912
F5
s(Vmiserable
g8
tp6913
F1
s(Vrustling
g4
tp6914
F1
s(Vhalls
g14
tp6915
F1
s(Vagreed
g35
tp6916
F1
s(Vcoursers
g14
tp6917
F1
s(Vgladly
g33
tp6918
F6
s(Vadministered
g37
tp6919
F1
s(Vbrowsing
g4
tp6920
F1
s(g14
g192
tp6921
F4
s(Vlistened
g37
tp6922
F5
s(VIsabel
g70
tp6923
F2
s(Vringing
g19
tp6924
F2
s(V`What
g281
tp6925
F1
s(Vwreck
g19
tp6926
F3
s(Vsing
g60
tp6927
F1
s(Vbereaved
g8
tp6928
F1
s(g102
g35
tp6929
F84
s(Vequally
g33
tp6930
F3
s(Vfreighted
g37
tp6931
F1
s(Vtint
g19
tp6932
F1
s(VPraise
g19
tp6933
F1
s(Vpenetrate
g16
tp6934
F2
s(Vcoffins
g14
tp6935
F1
s(Vdescending
g4
tp6936
F1
s(Vfalse
g8
tp6937
F1
s(Vwomen
S'NNS'
p6938
tp6939
F2
s(Voaken
g8
tp6940
F2
s(Vinsensible
g8
tp6941
F2
s(Vdarkens
g14
tp6942
F1
s(Vfathom
g8
tp6943
F1
s(Vsound
g8
tp6944
F1
s(Vbeauty
g19
tp6945
F8
s(Vbroad-side
g19
tp6946
F1
s(Vopening
g4
tp6947
F2
s(Vprior
g8
tp6948
F11
s(Vdense
g8
tp6949
F1
s(Vjoy
g19
tp6950
F5
s(Vrefreshed
g37
tp6951
F1
s(Vthose
g1086
tp6952
F21
s(Venquire
g16
tp6953
F2
s(Vemperors
g14
tp6954
F1
s(VDey.
g70
tp6955
F1
s(Vlittle
g33
tp6956
F2
s(g281
S'.'
tp6957
F1
s(Vmotions
g14
tp6958
F3
s(Vflowers
g14
tp6959
F6
s(Vglances
g14
tp6960
F1
s(Vmyriad
g8
tp6961
F1
s(Vgilded
g35
tp6962
F3
s(Vlandward
g33
tp6963
F1
s(Vhaven
g19
tp6964
F1
s(Vrepeated
g35
tp6965
F3
s(VMighty
g70
tp6966
F1
s(Vabated
g35
tp6967
F1
s(Vleaving
g4
tp6968
F14
s(Vlawless
g8
tp6969
F1
s(V?
S'.'
tp6970
F154
s(V`Five
g8
tp6971
F1
s(g299
g19
tp6972
F1
s(g23
g8
tp6973
F3
s(Vawe
g19
tp6974
F1
s(Valmes
g14
tp6975
F1
s(Vsame
g965
tp6976
F25
s(Vforsooth
g19
tp6977
F1
s(Vreflections
g14
tp6978
F1
s(S'CC'
p6979
g675
tp6980
F8
s(Vspecies
g14
tp6981
F2
s(Vunclasped
g8
tp6982
F1
s(Vstern
g19
tp6983
F4
s(V`Good
g19
tp6984
F2
s(Vtoo
S'RB'
p6985
tp6986
F21
s(Vforced
g35
tp6987
F2
s(Vpledged
g35
tp6988
F2
s(g14
S'('
tp6989
F1
s(Vmistaking
g4
tp6990
F1
s(Vdark
g8
tp6991
F17
s(Vprisoners
g14
tp6992
F1
s(VNettle
g70
tp6993
F2
s(g183
g21
tp6994
F1
s(Vfast
g37
tp6995
F1
s(VCount
g70
tp6996
F1
s(Vastonishment
g19
tp6997
F1
s(Vdifficulty
g19
tp6998
F3
s(Vdemonstrations
g14
tp6999
F1
s(Vshout
g16
tp7000
F1
s(g60
g37
tp7001
F4
s(Vstationed
g35
tp7002
F2
s(Vsix-ponnder
g19
tp7003
F1
s(Vstill
g3295
tp7004
F19
s(Vneed
g60
tp7005
F3
s(Vsuch
g21
tp7006
F4
s(Voccurred
g35
tp7007
F3
s(Vroused
g37
tp7008
F1
s(Vseated
g37
tp7009
F2
s(Vbetter
g299
tp7010
F4
s(Vpromising
g4
tp7011
F1
s(VLord
g70
tp7012
F2
s(Vcompanion-way
g19
tp7013
F1
s(VCruz
g70
tp7014
F1
s(VEmperor
g70
tp7015
F2
s(Vproved
g37
tp7016
F3
s(VBeyond
g19
tp7017
F1
s(Venveloped
g37
tp7018
F1
s(g33
g70
tp7019
F5
s(Vtherein
g33
tp7020
F1
s(Vreverses
g14
tp7021
F1
s(VAmericas
g106
tp7022
F1
s(Vtreacherous
g8
tp7023
F1
s(g37
g109
tp7024
F3
s(Vwrongfully
g33
tp7025
F1
s(VHo
g70
tp7026
F1
s(Vcontrary
g19
tp7027
F1
s(Vsettled
g37
tp7028
F1
s(Vmole
g19
tp7029
F1
s(Vmovement
S'NN'
p7030
tp7031
F2
s(Venough
g33
tp7032
F7
s(g19
g37
tp7033
F484
s(Vaged
g35
tp7034
F1
s(Vtempest
g28
tp7035
F2
s(Vreport
g16
tp7036
F1
s(S')'
g183
tp7037
F1
s(Vpirate-vessel
g19
tp7038
F1
s(g183
S'.'
tp7039
F3
s(VAlready
g33
tp7040
F1
s(Vsecured
g35
tp7041
F1
s(Vminarets
g14
tp7042
F1
s(Vhuge
S'JJ'
p7043
tp7044
F1
s(Vspot
g19
tp7045
F7
s(Vway
S'NN'
p7046
tp7047
F26
s(Vhence
g33
tp7048
F1
s(Vtall
g8
tp7049
F2
s(Vfly
g16
tp7050
F5
s(Vchannel
g19
tp7051
F2
s(Vdwelling
g4
tp7052
F1
s(Venumerated
g37
tp7053
F1
s(Vdied
g37
tp7054
F2
s(g19
g1536
tp7055
F385
s(Vnecklace
g19
tp7056
F1
s(Ventering
g4
tp7057
F4
s(Vventure
S'NN'
p7058
tp7059
F3
s(Vsenorita
g8
tp7060
F1
s(Vexhibiting
g4
tp7061
F1
s(g3450
g748
tp7062
F4
s(g550
g19
tp7063
F7
s(Vfulfil
g60
tp7064
F1
s(Vinforming
g4
tp7065
F1
s(Vholding
g4
tp7066
F3
s(Vendanger
g16
tp7067
F1
s(Vventures
g3727
tp7068
F1
s(Vwon
g35
tp7069
F1
s(Vconseuted
g35
tp7070
F1
s(Vsail
g19
tp7071
F23
s(g57
g4655
tp7072
F5
s(Vpriest
g19
tp7073
F1
s(g57
g183
tp7074
F18
s(Vobservation
g19
tp7075
F3
s(Vproud
g8
tp7076
F1
s(Vpleased
g35
tp7077
F1
s(V`Taib
g19
tp7078
F1
s(Vreassured
g35
tp7079
F1
s(Vunearthed
g8
tp7080
F1
s(Vsenses
g14
tp7081
F2
s(Vexpress
g16
tp7082
F3
s(Vsent
g35
tp7083
F7
s(Vjelly
g33
tp7084
F1
s(Vrequired
g37
tp7085
F1
s(S','
g55
tp7086
F1
s(g33
S'.'
tp7087
F138
s(Vexcited
g8
tp7088
F1
s(Vintention
g19
tp7089
F3
s(Vstripped
g35
tp7090
F1
s(Vglassy
g8
tp7091
F1
s(Vallegiance
g19
tp7092
F4
s(VGancho
g70
tp7093
F5
s(Vdepart
g33
tp7094
F1
s(VZibales
g70
tp7095
F1
s(Vdescribe
g82
tp7096
F1
s(g1126
g4
tp7097
F10
s(Vunpolished
g8
tp7098
F1
s(Vconceived
g35
tp7099
F2
s(Vthought
g19
tp7100
F4
s(Vcharming
g8
tp7101
F1
s(VDock
g70
tp7102
F1
s(Vwhiteness
g19
tp7103
F1
s(V`Does
g14
tp7104
F2
s(Vleagues
g14
tp7105
F16
s(Vextinguished
g35
tp7106
F2
s(V`pirate
g70
tp7107
F1
s(Vhast
g37
tp7108
F1
s(V`secure
g241
tp7109
F1
s(Veither
g19
tp7110
F1
s(Vreluctance
g19
tp7111
F1
s(Vloaded
g8
tp7112
F1
s(Vleaping
g4
tp7113
F1
s(Vcarried
g37
tp7114
F3
s(Vhome
g19
tp7115
F2
s(Ventreaties
g14
tp7116
F1
s(Vdespatch
g16
tp7117
F2
s(Vhilt
g19
tp7118
F1
s(Vsand
g19
tp7119
F4
s(Vmirror
g19
tp7120
F2
s(Vdespondency
g19
tp7121
F1
s(Vpunished
g35
tp7122
F1
s(Vscud
g16
tp7123
F2
s(Venraged
g8
tp7124
F2
s(Vswearing
g4
tp7125
F1
s(Vholy
g8
tp7126
F3
s(Vgrouped
g35
tp7127
F2
s(Vbeach
g19
tp7128
F11
s(Vrear
g19
tp7129
F1
s(g113
g748
tp7130
F19
s(Vhelm.
g19
tp7131
F1
s(g1948
g272
tp7132
F4
s(Veven
g33
tp7133
F10
s(VChok
g16
tp7134
F1
s(V`Who
g19
tp7135
F1
s(Vfifty
g35
tp7136
F1
s(Vand
g122
tp7137
F1241
s(Vbird-cages
g14
tp7138
F1
s(V`Fly
g19
tp7139
F1
s(Vfour-masted
g8
tp7140
F1
s(Vyonder
g55
tp7141
F5
s(Vto-night
g8
tp7142
F1
s(Vfurther
g8
tp7143
F4
s(g1141
g4
tp7144
F10
s(V`They
g14
tp7145
F11
s(Vgroves
g14
tp7146
F1
s(Vgolden
S'JJ'
p7147
tp7148
F7
s(Vwater-side
g8
tp7149
F1
s(Vregained
g35
tp7150
F1
s(Vconcealing
g4
tp7151
F2
s(Vcost
g19
tp7152
F1
s(Vround
g60
tp7153
F1
s(Vwatchfulness
g19
tp7154
F1
s(Vthough
g33
tp7155
F4
s(Venlist
g16
tp7156
F1
s(Vcable
S'NN'
p7157
tp7158
F5
s(Vpaying
S'VBG'
p7159
tp7160
F1
s(Vmarked
g35
tp7161
F1
s(Vseventeen
g8
tp7162
F1
s(VGeorgians
g106
tp7163
F1
s(Vresponded
g37
tp7164
F3
s(Vprofusely
g33
tp7165
F1
s(Vsecreted
g35
tp7166
F1
s(Vhamlets
g14
tp7167
F1
s(VSomething
g4
tp7168
F2
s(Vincidents
g14
tp7169
F1
s(Vescorted
g35
tp7170
F2
s(Vshawl
g19
tp7171
F1
s(Vfilled
g35
tp7172
F6
s(Vneighborhood
g19
tp7173
F1
s(Vpoured
g37
tp7174
F4
s(Vgraceful
g19
tp7175
F1
s(Vnineteen
g8
tp7176
F1
s(V`Is
g33
tp7177
F2
s(VTowards
g14
tp7178
F1
s(Vlet
g19
tp7179
F2
s(Vquestions
S'NNS'
p7180
tp7181
F1
s(Vscudding
g4
tp7182
F1
s(Vlessened
g37
tp7183
F1
s(Vintend
g60
tp7184
F1
s(V(
S'('
tp7185
F5
s(Vmosques
g14
tp7186
F1
s(Vrocks
g14
tp7187
F12
s(g618
g183
tp7188
F57
s(VDeceive
g70
tp7189
F1
s(V`There
g675
tp7190
F13
s(Vstate
S'NN'
p7191
tp7192
F5
s(g95
g1211
tp7193
F6
s(g30
S'DT'
p7194
tp7195
F7
s(Vback
g33
tp7196
F7
s(Vthing
S'NN'
p7197
tp7198
F11
s(Vrelieved
g8
tp7199
F1
s(VBay
g70
tp7200
F1
s(g18
g106
tp7201
F1
s(Vadorned
g35
tp7202
F3
s(Vgrey-whiskered
g8
tp7203
F1
s(g33
g1161
tp7204
F10
s(VAs
g57
tp7205
F23
s(Vdisgusted
g35
tp7206
F1
s(Vsurmounted
g35
tp7207
F1
s(Vso
g241
tp7208
F1
s(Vbazal
g19
tp7209
F1
s(V-You
g675
tp7210
F1
s(S':'
g122
tp7211
F107
s(V&
g241
tp7212
F4
s(Vcurled
g37
tp7213
F1
s(g16
g19
tp7214
F46
s(Vtowering
g4
tp7215
F4
s(g23
g27
tp7216
F33
s(g1161
g122
tp7217
F2
s(Vsouth
g8
tp7218
F2
s(Vcommand
g16
tp7219
F7
s(Vlower
g55
tp7220
F5
s(Vinquiry
g19
tp7221
F1
s(Vshot
g37
tp7222
F2
s(g3525
g35
tp7223
F44
s(Vclaimants
g14
tp7224
F1
s(Vgratified
g35
tp7225
F1
s(Vprevented
g37
tp7226
F1
s(Vthirty
g8
tp7227
F1
s(Venthusiostic
g8
tp7228
F1
s(g166
g82
tp7229
F25
s(Vfoul
g8
tp7230
F1
s(Vsurely
g33
tp7231
F2
s(VConsuls
g70
tp7232
F1
s(g299
S'.'
tp7233
F1
s(Vstars
g14
tp7234
F5
s(Vembarked
g8
tp7235
F1
s(Vretaliate
g16
tp7236
F1
s(Vembark
g16
tp7237
F1
s(Vwaves
g14
tp7238
F4
s(g1892
g23
tp7239
F1
s(Vaudience
S'NN'
p7240
tp7241
F5
s(VAlgerine
g70
tp7242
F3
s(Vrecover
g16
tp7243
F2
s(Vsearched
g35
tp7244
F2
s(Vnaked
g35
tp7245
F1
s(Vraised
g37
tp7246
F5
s(Vceiling
S'NN'
p7247
tp7248
F1
s(Vconceal
g16
tp7249
F1
s(Vremonstrances
g14
tp7250
F1
s(Vsituation
S'NN'
p7251
tp7252
F6
s(Vfeast
g19
tp7253
F2
s(Vbustle
g19
tp7254
F1
s(Vask
g16
tp7255
F3
s(Vanything
S'NN'
p7256
tp7257
F1
s(Vspecial
g8
tp7258
F1
s(Vmagnificently
g33
tp7259
F3
s(Vdesired
g35
tp7260
F3
s(Vbecome
g8
tp7261
F1
s(Vantico
g19
tp7262
F1
s(Vwitnessed
g37
tp7263
F1
s(g60
S'.'
tp7264
F9
s(Vfixing
g4
tp7265
F2
s(Vexterior
g19
tp7266
F1
s(Vpowdered
g8
tp7267
F1
s(Vadvanced
g37
tp7268
F3
s(Vadvance
g16
tp7269
F2
s(Vevil
g8
tp7270
F1
s(Vlaid
g35
tp7271
F4
s(V`Queen
g8
tp7272
F1
s(g16
g21
tp7273
F2
s(Vgrowing
g4
tp7274
F2
s(Vgrew
S'VBD'
p7275
tp7276
F3
s(Vthought
g37
tp7277
F3
s(g4
g37
tp7278
F5
s(g70
g1302
tp7279
F3
s(Venjoined
g37
tp7280
F1
s(Vwhat
g67
tp7281
F1
s(Vexertion
g19
tp7282
F1
s(g2905
g6132
tp7283
F5
s(Vbrave
g19
tp7284
F4
s(Vsprung
g60
tp7285
F2
s(Vwoven
g35
tp7286
F1
s(Vwherever
g57
tp7287
F2
s(Vclose
g33
tp7288
F7
s(Varight
g37
tp7289
F1
s(Vaccomplished
g35
tp7290
F1
s(Vconfide
g16
tp7291
F1
s(Vpackage
g19
tp7292
F2
s(Vlonger
g299
tp7293
F2
s(VBeing
g70
tp7294
F1
s(Vexpectation
g19
tp7295
F1
s(Vexclaimed
g35
tp7296
F4
s(g5630
g14
tp7297
F8
s(Vit
g618
tp7298
F223
s(Vpull
g16
tp7299
F1
s(Vstone
g19
tp7300
F2
s(Vcrushed
g35
tp7301
F1
s(Vhut
g19
tp7302
F2
s(Vpiastres
g14
tp7303
F5
s(Vdistinguish
g16
tp7304
F2
s(VLoring
g70
tp7305
F3
s(g19
g2375
tp7306
F90
s(V`She
g8
tp7307
F1
s(Vlands
g14
tp7308
F3
s(Vindicated
g35
tp7309
F1
s(Veight
S'CD'
p7310
tp7311
F9
s(Vbeaten
g19
tp7312
F1
s(Vconversing
g4
tp7313
F2
s(Vstunted
g8
tp7314
F1
s(Vhail
g16
tp7315
F2
s(Vspeed
g19
tp7316
F6
s(Vthrough
g57
tp7317
F26
s(Vcease
g16
tp7318
F3
s(Vmain-topgallant
g8
tp7319
F1
s(Vbreathed
g37
tp7320
F1
s(Vbury
g16
tp7321
F1
s(Vcustom
g19
tp7322
F1
s(V`Farewell
g19
tp7323
F1
s(Vlaws
S'NNS'
p7324
tp7325
F1
s(Vexcept
g57
tp7326
F1
s(VEnglish
g8
tp7327
F11
s(Vprogress
g60
tp7328
F1
s(Vevery
g7194
tp7329
F33
s(V`When
g19
tp7330
F3
s(Vsell
g16
tp7331
F1
s(VUp
g57
tp7332
F1
s(g1161
g85
tp7333
F116
s(VNo
g166
tp7334
F3
s(Vunveiled
g8
tp7335
F1
s(Vseal
g16
tp7336
F2
s(VAmid
g57
tp7337
F1
s(Vboats
g19
tp7338
F1
s(Vfast
g8
tp7339
F2
s(Vfore-topgallant
g8
tp7340
F1
s(Vscattering
g4
tp7341
F1
s(Veastward
g19
tp7342
F1
s(Vconsecrate
g16
tp7343
F1
s(g2261
g1536
tp7344
F20
s(Vweigh
g16
tp7345
F2
s(Vgorgeously
g33
tp7346
F1
s(Vcut
g16
tp7347
F4
s(Vthat
g166
tp7348
F41
s(Vglittering
g4
tp7349
F1
s(Vsky
g19
tp7350
F1
s(Vextinguish
g16
tp7351
F1
s(Vpainted
g8
tp7352
F1
s(Vinterested
g8
tp7353
F6
s(Vbows
g14
tp7354
F5
s(Vdrank
g19
tp7355
F1
s(Vshooting
g4
tp7356
F2
s(Vtells
g82
tp7357
F2
s(S','
g28
tp7358
F2
s(V`In
g16
tp7359
F1
s(g62
g789
tp7360
F1
s(VAmong
S'IN'
p7361
tp7362
F1
s(g1211
g27
tp7363
F8
s(Vrather
S'RB'
p7364
tp7365
F4
s(g27
g14
tp7366
F325
s(Vprincess
g8
tp7367
F2
s(V`King
g19
tp7368
F2
s(Vseized
g37
tp7369
F3
s(Venriching
g4
tp7370
F1
s(Vsheer
g19
tp7371
F1
s(Vsearch
g60
tp7372
F1
s(Vperformance
S'NN'
p7373
tp7374
F1
s(Vprincely
g33
tp7375
F1
s(VLieutenant
g70
tp7376
F1
s(Vtroop
g19
tp7377
F6
s(Vcare
g19
tp7378
F1
s(Vfate
g19
tp7379
F9
s(Vneed
g19
tp7380
F2
s(Vdropping
g4
tp7381
F1
s(Vassuring
g4
tp7382
F1
s(Vcrime
S'NN'
p7383
tp7384
F2
s(g19
g1126
tp7385
F17
s(V`We
g14
tp7386
F9
s(Valone
g33
tp7387
F5
s(Vchasers
g14
tp7388
F1
s(Vrobbed
g35
tp7389
F2
s(Vwiden
g19
tp7390
F1
s(VLafitte
g70
tp7391
F1
s(Vlighted
g37
tp7392
F4
s(Vwelfare
g19
tp7393
F1
s(Vrestore
g16
tp7394
F1
s(Vconveyed
g37
tp7395
F3
s(VThither
g70
tp7396
F1
s(Vtimes
g14
tp7397
F8
s(Vendeavoring
g4
tp7398
F1
s(Vuntil
S'IN'
p7399
tp7400
F18
s(Vservant
g19
tp7401
F3
s(Vastern
g19
tp7402
F1
s(Vproudly
g33
tp7403
F1
s(Vwreck
g16
tp7404
F1
s(Vfillagree
g19
tp7405
F1
s(Vwant
g60
tp7406
F1
s(Vstarboard
g19
tp7407
F2
s(Vcompanion
g19
tp7408
F1
s(Vright
g19
tp7409
F3
s(Vthy
g8
tp7410
F6
s(g4
g21
tp7411
F4
s(g14
g675
tp7412
F1
s(g657
g30
tp7413
F7
s(Vquestion
g19
tp7414
F13
s(Vshaded
g35
tp7415
F1
s(Vask
g82
tp7416
F1
s(Vunexpectedly
g8
tp7417
F1
s(Vhold
g8
tp7418
F1
s(VNay
g70
tp7419
F1
s(Vconfusion
g19
tp7420
F5
s(Vformed
g37
tp7421
F1
s(Vattacked
g37
tp7422
F3
s(Vreading
g19
tp7423
F1
s(Vwhile
g19
tp7424
F1
s(Vshaking
g4
tp7425
F2
s(Vpaper
S'NN'
p7426
tp7427
F1
s(Vscimetar
g19
tp7428
F1
s(Vdamage.
g19
tp7429
F1
s(Vsouth-east
g19
tp7430
F1
s(Varrest
g16
tp7431
F1
s(g1672
g8
tp7432
F44
s(Ventrusted
g35
tp7433
F2
s(Vtow
g16
tp7434
F1
s(VWilliam
S'NNP'
p7435
tp7436
F2
s(Vcanvass
g19
tp7437
F10
s(Vdeclared
g35
tp7438
F1
s(Vprincipal
g8
tp7439
F1
s(Vpirate
g16
tp7440
F1
s(Vwilling
S'JJ'
p7441
tp7442
F3
s(Vsake
g19
tp7443
F1
s(Vsepulture
g19
tp7444
F1
s(V1700
g62
tp7445
F2
s(Varcs
g19
tp7446
F1
s(Vcrowded
g35
tp7447
F3
s(Vgrowling
g4
tp7448
F1
s(Vshipping
g19
tp7449
F3
s(g389
g1092
tp7450
F29
s(V`We
g19
tp7451
F6
s(Vundisturbed
g8
tp7452
F1
s(Vsecluded
g8
tp7453
F5
s(Vasleep
g33
tp7454
F3
s(V`About
g57
tp7455
F1
s(Vdistinctly
g33
tp7456
F4
s(Vknew
g14
tp7457
F1
s(Vyouthful
g8
tp7458
F2
s(Vwas
g37
tp7459
F417
s(Vspurted
g35
tp7460
F1
s(Vechoing
g4
tp7461
F2
s(VBermuda
g70
tp7462
F1
s(Vblown
g19
tp7463
F1
s(Vnaval
g8
tp7464
F1
s(Vwhy
g378
tp7465
F6
s(Vbear
g19
tp7466
F1
s(VSpring
g19
tp7467
F1
s(Vconcealment
g19
tp7468
F4
s(Vpages
g14
tp7469
F1
s(g82
g60
tp7470
F1
s(Vvisited
g37
tp7471
F1
s(g183
g3720
tp7472
F55
s(Vbeard
g19
tp7473
F7
s(V`What
g67
tp7474
F3
s(Vbattling
g4
tp7475
F1
s(g82
S','
tp7476
F8
s(Vjoyous
g8
tp7477
F1
s(Vmountain-sides
g14
tp7478
F2
s(VBut
g6979
tp7479
F46
s(Vflavors
g14
tp7480
F1
s(Vroyals
g14
tp7481
F1
s(g62
g2979
tp7482
F3
s(Vterms
S'NNS'
p7483
tp7484
F2
s(V`Seventeen
g8
tp7485
F1
s(Vcannonading
g19
tp7486
F1
s(V`gorgeous
g8
tp7487
F1
s(VTunis
g16
tp7488
F1
s(Vyielding
g4
tp7489
F1
s(VFight
g70
tp7490
F1
s(Vam
g1672
tp7491
F59
s(VSpaniards
g14
tp7492
F2
s(Vleast
g28
tp7493
F8
s(Vmaintain
g16
tp7494
F1
s(Vstrength
S'NN'
p7495
tp7496
F1
s(Vbark
g19
tp7497
F1
s(Vguest
g28
tp7498
F2
s(Vpeace
g19
tp7499
F3
s(Vconfidence
g19
tp7500
F5
s(Vprojecting
g19
tp7501
F2
s(Vsunk
g37
tp7502
F1
s(VPirate
g70
tp7503
F3
s(Veloquently
g33
tp7504
F1
s(g21
g78
tp7505
F42
s(Voccupy
g16
tp7506
F1
s(Vvase
g19
tp7507
F3
s(Vmile
g8
tp7508
F1
s(Vkegs
g14
tp7509
F2
s(Vknew
g37
tp7510
F16
s(Vbefal
g16
tp7511
F1
s(Vmaking
g4
tp7512
F8
s(Vgrasping
g4
tp7513
F2
s(Vlabor
S'NN'
p7514
tp7515
F1
s(Vland
g19
tp7516
F15
s(Vwant
g19
tp7517
F1
s(Vthis
g1948
tp7518
F174
s(Vhenceforth
g19
tp7519
F1
s(Velude
g16
tp7520
F1
s(Vresolved
g37
tp7521
F6
s(g4147
g102
tp7522
F143
s(Vavaricious
g8
tp7523
F2
s(VRobber
g70
tp7524
F1
s(Vdetermination
g19
tp7525
F4
s(Vlatter
g8
tp7526
F2
s(Vvision
g19
tp7527
F1
s(Vtoward
S'IN'
p7528
tp7529
F4
s(Vfierce
g19
tp7530
F1
s(g16
g281
tp7531
F11
s(Vharbor
g19
tp7532
F16
s(Vtone.
g19
tp7533
F1
s(Vstones
g14
tp7534
F6
s(Vhastily
g33
tp7535
F2
s(Vdefended
g35
tp7536
F1
s(g183
g299
tp7537
F1
s(Vbetrothed
g35
tp7538
F1
s(Vboarding
g4
tp7539
F1
s(Vlow
g19
tp7540
F1
s(Vsafer
g35
tp7541
F1
s(Vprophet
g19
tp7542
F1
s(Vhull
g35
tp7543
F1
s(Vrogues
g14
tp7544
F1
s(Vlawlessness
g19
tp7545
F1
s(Vwell
g33
tp7546
F40
s(Vprecipice
g19
tp7547
F7
s(g55
g122
tp7548
F1
s(Vboat
g19
tp7549
F37
s(Vonly
g33
tp7550
F31
s(Vflies
g14
tp7551
F1
s(Valoud
g19
tp7552
F1
s(Vgained
g35
tp7553
F2
s(Vtrue
S'JJ'
p7554
tp7555
F12
s(g1948
g16
tp7556
F2
s(Vpeasant-retainers
g14
tp7557
F1
s(g70
S','
tp7558
F250
s(Vsenor
g19
tp7559
F20
s(Vwater.
g19
tp7560
F1
s(Vforgotten
g35
tp7561
F2
s(Vas
g33
tp7562
F34
s(Vsymmetry
g19
tp7563
F1
s(g3117
g272
tp7564
F1
s(Vwalls
g14
tp7565
F10
s(S')'
g37
tp7566
F1
s(Vsea-shore
g19
tp7567
F3
s(Vvoyage
g19
tp7568
F3
s(Vlordship
g19
tp7569
F1
s(VDey
g70
tp7570
F67
s.