ccollections
defaultdict
p1
(c__builtin__
float
p2
tRp3
(Vcourse
S'NN'
p4
tp5
F25
s(VPapillon
S'NNP'
p6
tp7
F6
s(Vusual
S'JJ'
p8
tp9
F2
s(VFor
S'IN'
p10
tp11
F11
s(Vtears
S'NNS'
p12
tp13
F10
s(S'IN'
p14
S'NN'
p15
tp16
F485
s(Vought
S'VBD'
p17
tp18
F1
s(Vtroublesome
S'NN'
p19
tp20
F1
s(Vfailed
g17
tp21
F1
s(Vlevel
g19
tp22
F1
s(S'VBN'
p23
S'EX'
p24
tp25
F1
s(Vcomme
g8
tp26
F1
s(VYour
S'PRP$'
p27
tp28
F13
s(Vwag
g19
tp29
F4
s(Vspirituelle
g23
tp30
F1
s(Vunchristian
g8
tp31
F1
s(Vchooses
S'VBZ'
p32
tp33
F3
s(Vyes
S'RB'
p34
tp35
F1
s(Vmolu
S'VBP'
p36
tp37
F1
s(Vcarving
g19
tp38
F1
s(Vagainst
S'IN'
p39
tp40
F16
s(VTo
S'TO'
p41
tp42
F15
s(Vunnecessary
g8
tp43
F1
s(Vagree
g36
tp44
F1
s(Vregret
g19
tp45
F2
s(VShall
g19
tp46
F4
s(Vcase
S'NN'
p47
tp48
F8
s(Vchaps
g12
tp49
F1
s(Vcalled
g23
tp50
F16
s(Vdream
g36
tp51
F1
s(Vdetecting
S'VBG'
p52
tp53
F2
s(Vsinners
g12
tp54
F3
s(VOneese
g6
tp55
F1
s(g34
g32
tp56
F44
s(Vexhausted
g23
tp57
F1
s(Vdeclaring
g52
tp58
F1
s(Vmultiplied
g23
tp59
F1
s(Vprononc
g8
tp60
F1
s(Venough
g19
tp61
F1
s(Vascetic
g8
tp62
F1
s(Vhigher
S'JJR'
p63
tp64
F1
s(VAlps
g6
tp65
F2
s(Vheraldry
g8
tp66
F1
s(Vability
S'NN'
p67
tp68
F1
s(Vrenounced
g17
tp69
F2
s(Vmidst
g19
tp70
F5
s(Vprotested
g17
tp71
F1
s(Veasy
g8
tp72
F1
s(Vcrowded
g23
tp73
F1
s(V-that
S'UH'
p74
tp75
F1
s(V-I
g19
tp76
F2
s(Vchaos
g19
tp77
F1
s(Vconfined
g23
tp78
F1
s(Vgives
S'VBZ'
p79
tp80
F3
s(S'WDT'
p81
g34
tp82
F5
s(Vbacchanalian
g8
tp83
F1
s(S'IN'
p84
g34
tp85
F56
s(Vsouth
g19
tp86
F2
s(Vmoment
S'NN'
p87
tp88
F21
s(Vebris
g19
tp89
F1
s(g19
S'DT'
p90
tp91
F48
s(Vremarked
g17
tp92
F2
s(g34
S'VB'
p93
tp94
F324
s(Vtold
g17
tp95
F25
s(Vpains
g32
tp96
F1
s(Vgrandparents
g12
tp97
F1
s(g19
g81
tp98
F43
s(Vmore
g63
tp99
F29
s(Vbroken
g23
tp100
F2
s(Vsingular
g8
tp101
F2
s(Vcar
S'NN'
p102
tp103
F1
s(Vfear
g36
tp104
F1
s(Vbowed
g17
tp105
F3
s(g6
S'WRB'
p106
tp107
F2
s(Vungentlemanly
g34
tp108
F1
s(Vdeadly
g8
tp109
F1
s(Vhurry
g19
tp110
F1
s(Vpurify
g19
tp111
F1
s(S'WP'
p112
S'VBZ'
p113
tp114
F57
s(Vamount
g19
tp115
F2
s(g52
g19
tp116
F44
s(Vsolid
g8
tp117
F2
s(Vnephew
g19
tp118
F1
s(VGauche
g6
tp119
F13
s(Vwhen
g106
tp120
F97
s(g8
S'MD'
p121
tp122
F3
s(Vfeathers
g12
tp123
F1
s(Vindefinite
g8
tp124
F1
s(Vclothed
g23
tp125
F1
s(Vadvise
g93
tp126
F3
s(Vdress
g93
tp127
F2
s(S'CC'
p128
S'CC'
p129
tp130
F1
s(Vcry
g36
tp131
F2
s(Vcounterpart
g19
tp132
F2
s(g6
S'CC'
p133
tp134
F65
s(Vperpetuated
g23
tp135
F1
s(Vafter
S'IN'
p136
tp137
F28
s(Vcheerfully
g34
tp138
F2
s(Vstaying
g52
tp139
F1
s(Vbuilt
g23
tp140
F5
s(VPoor
S'NNP'
p141
tp142
F7
s(g93
S'``'
p143
tp144
F1
s(Vblacklegs
g19
tp145
F1
s(Vrailroad
g19
tp146
F1
s(Vhat
g112
tp147
F1
s(Vwork
g19
tp148
F9
s(g128
g143
tp149
F15
s(Vputs
g12
tp150
F1
s(Vspeaks
g32
tp151
F5
s(Vcomplete
g8
tp152
F4
s(Vhearing
g19
tp153
F1
s(Vvisible
g8
tp154
F2
s(Vused
g17
tp155
F8
s(Vcuriosity-shop
g19
tp156
F1
s(Vfact
S'NN'
p157
tp158
F22
s(VCyprians
S'NNPS'
p159
tp160
F1
s(Vshrewd
g19
tp161
F3
s(Vsuggests
g32
tp162
F1
s(Vsucking
g52
tp163
F1
s(Vembroidered
g23
tp164
F2
s(Vplaces
g12
tp165
F6
s(Vtents
g12
tp166
F2
s(Veither
S'DT'
p167
tp168
F1
s(Vreturned
g17
tp169
F5
s(Vqueerly
g34
tp170
F1
s(Vsuperiority
g19
tp171
F1
s(Vsea
g19
tp172
F7
s(Vmigration
g19
tp173
F1
s(Vgo
g36
tp174
F22
s(VO
g6
tp175
F5
s(Vequalled
g23
tp176
F1
s(V-when
g19
tp177
F1
s(Vpride
g19
tp178
F7
s(Vkindly
g34
tp179
F1
s(VBank
S'NNP'
p180
tp181
F1
s(Vmost
S'JJS'
p182
tp183
F6
s(Vspeed
g17
tp184
F1
s(Vshames
g32
tp185
F1
s(VNrs
g6
tp186
F1
s(VCheese
g6
tp187
F15
s(Vball-room
g19
tp188
F1
s(g17
g129
tp189
F13
s(Vauthor
g19
tp190
F1
s(Vknee-breeches
g12
tp191
F3
s(g106
g23
tp192
F3
s(Vparents
g12
tp193
F2
s(S'PRP$'
p194
g143
tp195
F1
s(Vattempt
g93
tp196
F1
s(Vbandeaux
g93
tp197
F1
s(g182
S'CD'
p198
tp199
F1
s(S'JJ'
p200
g112
tp201
F2
s(Vignorant
g8
tp202
F1
s(Vreputation
g19
tp203
F4
s(VTherefore
g34
tp204
F4
s(VLondon
S'NNP'
p205
tp206
F3
s(Vgrown
g23
tp207
F2
s(V-youth
g19
tp208
F1
s(V'
S"''"
p209
tp210
F50
s(Vart
g19
tp211
F6
s(VGorgon
g6
tp212
F2
s(Vsides
S'NNS'
p213
tp214
F4
s(Vthrust
g17
tp215
F1
s(V`come
g36
tp216
F1
s(Vflushed
g8
tp217
F1
s(Vheights
g12
tp218
F2
s(Vremedy
g19
tp219
F1
s(Vmercenary
g8
tp220
F1
s(Vdances
g12
tp221
F1
s(Vreasoning
g19
tp222
F1
s(Vconsultation
g19
tp223
F2
s(VPeony
g6
tp224
F8
s(Vancestor
g19
tp225
F4
s(Vclothes
g12
tp226
F1
s(Vgo
S'FW'
p227
tp228
F1
s(Vcried
g19
tp229
F1
s(VNiente
g6
tp230
F1
s(S')'
S'DT'
p231
tp232
F2
s(Vprendre
g19
tp233
F1
s(g93
S'CD'
p234
tp235
F8
s(Vnot-withstanding
g8
tp236
F1
s(Vstrings
g12
tp237
F1
s(Vbadly
g34
tp238
F2
s(Vrich
g8
tp239
F18
s(Vdrawing-rooms
g8
tp240
F1
s(Vleft
g19
tp241
F1
s(Vdark-haired
g8
tp242
F1
s(Vget
g93
tp243
F15
s(Vsated
g8
tp244
F1
s(S'MD'
p245
g52
tp246
F1
s(Vperilous
g8
tp247
F1
s(VJoe
g6
tp248
F1
s(Vdoings
g12
tp249
F1
s(Vescutcheon
g19
tp250
F1
s(Vmotto
g19
tp251
F1
s(Vpossible
S'JJ'
p252
tp253
F14
s(Vbootmakers
g12
tp254
F1
s(Vsomehow
g36
tp255
F3
s(Vsuppers
g12
tp256
F1
s(VPope
g6
tp257
F4
s(Vtights
g12
tp258
F1
s(Vseek
g93
tp259
F2
s(Vgrandfather
g19
tp260
F4
s(Vwildest
g182
tp261
F1
s(Vdilute
g93
tp262
F1
s(Vfunny
g8
tp263
F5
s(Vfeel
g93
tp264
F4
s(Vd
g19
tp265
F1
s(Vheated
g8
tp266
F1
s(VSilke
g6
tp267
F2
s(Vreferences
g12
tp268
F1
s(V-are
g19
tp269
F1
s(Vla
g6
tp270
F3
s(Vfiery
g19
tp271
F2
s(Vuniverse
g19
tp272
F1
s(VClovers
g12
tp273
F1
s(Vbeneath
S'IN'
p274
tp275
F1
s(S'TO'
p276
g81
tp277
F4
s(Veye-glass
g19
tp278
F1
s(Vcolors
g12
tp279
F9
s(V-in
g8
tp280
F2
s(VLucys
g6
tp281
F1
s(Vyoungest
g182
tp282
F1
s(g182
g93
tp283
F1
s(Vclumsy
g8
tp284
F1
s(Vtalk
g19
tp285
F7
s(Vinheritors
g12
tp286
F1
s(Vbeheld
g17
tp287
F1
s(Vla
g19
tp288
F1
s(Vbetter
g93
tp289
F3
s(S'MD'
p290
g81
tp291
F1
s(VMureece
g6
tp292
F1
s(Vvirtue
g19
tp293
F5
s(Vogres
g12
tp294
F1
s(Vmeet
g36
tp295
F2
s(VSo-and-so
g6
tp296
F2
s(Vdraught
g19
tp297
F1
s(Vexpecting
g52
tp298
F1
s(g81
g93
tp299
F1
s(g112
g34
tp300
F11
s(Vunpleasant
g8
tp301
F1
s(VClerk
g6
tp302
F1
s(Vcinq
g19
tp303
F1
s(Vdares
g12
tp304
F1
s(Vtowards
g274
tp305
F2
s(Vhappy
g8
tp306
F14
s(Vtour
g19
tp307
F1
s(Vcavalry
g19
tp308
F1
s(Vcharmante
g8
tp309
F1
s(Vbenefactor
g19
tp310
F1
s(Vchanced
g17
tp311
F1
s(g159
S'RB'
p312
tp313
F1
s(Vderived
g23
tp314
F3
s(Vglorious
g8
tp315
F1
s(Vnecessary
S'JJ'
p316
tp317
F11
s(Vpleasantest
g19
tp318
F1
s(S'RBS'
p319
S'IN'
p320
tp321
F1
s(Vhundred
g8
tp322
F5
s(Vfunny
g93
tp323
F1
s(Vwine
g19
tp324
F4
s(g143
g133
tp325
F20
s(VLater
g34
tp326
F1
s(S'CD'
p327
g23
tp328
F2
s(g14
S'.'
tp329
F28
s(Vdinners
g12
tp330
F3
s(VServants
g12
tp331
F1
s(Vremember
g93
tp332
F4
s(Vasleep
g8
tp333
F3
s(Vgules
g32
tp334
F1
s(Vundertaking
g19
tp335
F1
s(S'('
S'JJ'
p336
tp337
F1
s(Vcharacter
g19
tp338
F12
s(Vconstantly
g34
tp339
F5
s(Vsolemn
g19
tp340
F2
s(g182
S'JJ'
p341
tp342
F5
s(Vae
g19
tp343
F1
s(Vsmiled
g23
tp344
F2
s(S'('
g93
tp345
F3
s(Vsublimity
g19
tp346
F1
s(VEntered
g23
tp347
F1
s(Vdrink
g36
tp348
F1
s(Vhonor
g19
tp349
F5
s(Vmirth
g19
tp350
F1
s(Vtalented
g23
tp351
F1
s(g52
g167
tp352
F69
s(Vgay
g8
tp353
F5
s(Vfrugal
g34
tp354
F1
s(Vsatisfied
g8
tp355
F3
s(Vproof
g19
tp356
F1
s(Vfields
g12
tp357
F2
s(S'PRP'
p358
g8
tp359
F32
s(VAu
g6
tp360
F2
s(Vgain
g93
tp361
F1
s(Vintend
g93
tp362
F1
s(Vinnocence
g19
tp363
F1
s(VThese
S'DT'
p364
tp365
F4
s(Vseek
g36
tp366
F1
s(Vgave
S'VBD'
p367
tp368
F2
s(Vintimately
g34
tp369
F1
s(Vpointed
g17
tp370
F1
s(g52
g327
tp371
F1
s(VRussian
g8
tp372
F3
s(Vpained
g23
tp373
F1
s(g128
S'PDT'
p374
tp375
F7
s(Vshare
S'NN'
p376
tp377
F2
s(Vlaying
g52
tp378
F1
s(Vsucceeded
g23
tp379
F1
s(Velsewhere
g34
tp380
F3
s(Vdainty
g19
tp381
F1
s(Vopera-tion
g19
tp382
F1
s(Vtotal
g8
tp383
F1
s(Vcontra
g19
tp384
F1
s(Vthanking
g52
tp385
F1
s(VSweet
g8
tp386
F1
s(VFrance
S'NNP'
p387
tp388
F4
s(Vsorrows
g12
tp389
F1
s(Vcrying
g52
tp390
F2
s(V-if
g36
tp391
F2
s(g93
S'WRB'
p392
tp393
F25
s(Voyster
g19
tp394
F1
s(Vplunging
g19
tp395
F1
s(Vill-natured
g8
tp396
F2
s(VAmericans
g159
tp397
F8
s(VThe
S'DT'
p398
tp399
F111
s(Vtureens
g32
tp400
F1
s(VSometimes
g34
tp401
F5
s(Vdancing
g52
tp402
F12
s(Vprosy
g8
tp403
F2
s(Vsudden
g8
tp404
F2
s(Venfeebling
g19
tp405
F1
s(Vincredibly
g34
tp406
F1
s(Vgenerosity
g19
tp407
F2
s(Vflattered
g23
tp408
F1
s(g63
S':'
tp409
F1
s(Vnoblemen
g12
tp410
F3
s(S'VBD'
p411
S'RB'
p412
tp413
F277
s(g34
g276
tp414
F69
s(Vpolite
g8
tp415
F3
s(Vgoddess
g19
tp416
F1
s(Vladies
g12
tp417
F15
s(Vclosely
S'RB'
p418
tp419
F4
s(Vperceives
g12
tp420
F1
s(Vchampagne
g19
tp421
F2
s(g36
g194
tp422
F29
s(VFamille.
g6
tp423
F1
s(Vsixty-seven
g8
tp424
F1
s(Vsais
g8
tp425
F2
s(Vswain
g19
tp426
F1
s(VNew
S'NNP'
p427
tp428
F11
s(Vaccording
S'VBG'
p429
tp430
F4
s(g182
g19
tp431
F53
s(Vflower
g19
tp432
F5
s(g209
g23
tp433
F1
s(VNobody
g19
tp434
F2
s(Vtransmit
g93
tp435
F1
s(Vthy
g19
tp436
F1
s(Vwhite
S'JJ'
p437
tp438
F12
s(VValentine
g6
tp439
F1
s(Vout
g34
tp440
F3
s(Vdignity
g19
tp441
F2
s(Vsadder
g19
tp442
F1
s(Vreflect
g36
tp443
F2
s(Vmark
g19
tp444
F2
s(Vregal
g8
tp445
F1
s(g6
g24
tp446
F2
s(g27
g106
tp447
F1
s(Vsmell
g36
tp448
F1
s(VMake
g93
tp449
F1
s(Vnote
g19
tp450
F1
s(Voddly
g34
tp451
F1
s(VCheese
g8
tp452
F7
s(Vsuperbly
g34
tp453
F4
s(V`Monsieur
g19
tp454
F1
s(Vscandal
S'NN'
p455
tp456
F5
s(Vfifteen
g8
tp457
F1
s(VThings
g12
tp458
F2
s(V-well
g74
tp459
F3
s(Vvows
g12
tp460
F1
s(Vfountains
g12
tp461
F1
s(Vsoberly
g34
tp462
F1
s(Vdelightful
g8
tp463
F10
s(g81
g6
tp464
F5
s(Vweight
g19
tp465
F1
s(VSpanish
g8
tp466
F1
s(Vpardons
g12
tp467
F1
s(Vcoral
g8
tp468
F1
s(Vbon-mot
g19
tp469
F2
s(Vplatitudes
g12
tp470
F1
s(Vresources
S'NNS'
p471
tp472
F1
s(VLook
g19
tp473
F2
s(g23
S'RP'
p474
tp475
F20
s(g113
S'RBR'
p476
tp477
F5
s(Vdiminishing
g52
tp478
F1
s(Vhue
g19
tp479
F1
s(Vmamma
g19
tp480
F4
s(Vshook
g17
tp481
F1
s(Vend
g36
tp482
F1
s(Vwatched
g17
tp483
F1
s(Vcity
S'NN'
p484
tp485
F20
s(g474
g194
tp486
F19
s(Vwatchfully
g34
tp487
F1
s(Vgive
g93
tp488
F11
s(Varrangements
g12
tp489
F1
s(Vto-day
g8
tp490
F2
s(VProper
g8
tp491
F2
s(Vinforms
g32
tp492
F1
s(Vup
g274
tp493
F5
s(Vpropped
g23
tp494
F1
s(VOur
S'PRP$'
p495
tp496
F7
s(Vmirrors
g12
tp497
F2
s(Vresembles
g32
tp498
F1
s(VDusseldorf
g6
tp499
F3
s(Vdemean
g8
tp500
F1
s(S'WP'
p501
S'PRP$'
p502
tp503
F5
s(Vmuch
g8
tp504
F36
s(Vpurity
g19
tp505
F1
s(Vpanes
g12
tp506
F1
s(VMRS.
g6
tp507
F2
s(Vintimate
g19
tp508
F1
s(VThirtieth
g6
tp509
F1
s(g502
S'.'
tp510
F6
s(g234
g12
tp511
F28
s(Vundertake
g93
tp512
F2
s(VEmpress
g6
tp513
F3
s(VRachel
g6
tp514
F3
s(Vbindings
g12
tp515
F1
s(V-roundy
g8
tp516
F1
s(Vaffair
g19
tp517
F3
s(Vwooden
g19
tp518
F1
s(Vexplained
g23
tp519
F1
s(g474
g12
tp520
F3
s(VComus
g6
tp521
F1
s(Vlay
g93
tp522
F2
s(Vdearest
g93
tp523
F2
s(Vbougie
g19
tp524
F1
s(Vmarried
g23
tp525
F4
s(Vdark
g19
tp526
F1
s(g182
S'.'
tp527
F2
s(VThose
S'DT'
p528
tp529
F5
s(VCol.
g6
tp530
F1
s(Vupbraiding
g8
tp531
F1
s(Vselect
g93
tp532
F2
s(Vlicentious
g8
tp533
F1
s(Vindulge
g93
tp534
F1
s(VIf
S'IN'
p535
tp536
F35
s(V-poor
g74
tp537
F1
s(Vnot
g412
tp538
F252
s(Vdrinking
g19
tp539
F2
s(Vassociations
g12
tp540
F4
s(Vdone
S'VBN'
p541
tp542
F10
s(Vingenious
g8
tp543
F1
s(Vteased
g17
tp544
F1
s(Varises
g32
tp545
F1
s(Vincapable
g8
tp546
F1
s(Vcords
g12
tp547
F1
s(Vfools
g12
tp548
F1
s(Vobjectors
g12
tp549
F1
s(V-every
g8
tp550
F1
s(Vreel
g36
tp551
F2
s(VSt.
S'NNP'
p552
tp553
F3
s(Vconsequent
g8
tp554
F1
s(Vfascinated
g23
tp555
F1
s(VComic
g6
tp556
F1
s(Vextreme
g8
tp557
F2
s(Vcome
g23
tp558
F6
s(VMessieurs
g6
tp559
F1
s(Vbottles
g12
tp560
F1
s(Vit
S'PRP'
p561
tp562
F475
s(VBY
g6
tp563
F1
s(Vcoil
g19
tp564
F1
s(VMONTHLY
g6
tp565
F1
s(g106
g93
tp566
F1
s(g93
S'.'
tp567
F81
s(Vjewelled
g8
tp568
F1
s(S'NN'
p569
S'WRB'
p570
tp571
F17
s(Vover
g34
tp572
F1
s(Vhumor
g19
tp573
F1
s(Vdiplomacy
g93
tp574
F1
s(g34
g374
tp575
F5
s(VIn
g274
tp576
F28
s(Vdescribed
g23
tp577
F2
s(VBoulevards
g6
tp578
F6
s(Vhonorable
g8
tp579
F3
s(VShe
S'PRP'
p580
tp581
F32
s(Vseed
S'NN'
p582
tp583
F1
s(S','
g106
tp584
F58
s(Vpass
g93
tp585
F4
s(VAbel
g6
tp586
F1
s(VNelson
g6
tp587
F1
s(V-and
g19
tp588
F6
s(Vparody
g19
tp589
F1
s(Vmiddle
g19
tp590
F2
s(Vsubtile
g8
tp591
F1
s(Vmask
g19
tp592
F1
s(V-but
g36
tp593
F1
s(VSouthern
g6
tp594
F1
s(Vgreat-aunt
g19
tp595
F1
s(Vplush
g19
tp596
F4
s(S'CD'
p597
S':'
tp598
F3
s(Vtaking
g52
tp599
F10
s(Vrepresented
g17
tp600
F1
s(Vget
g36
tp601
F3
s(Vpyramids
g12
tp602
F1
s(Vnicely
g34
tp603
F3
s(Vcritic
g19
tp604
F2
s(Vwholesome
g8
tp605
F1
s(Vleave
g36
tp606
F2
s(Vevening
g52
tp607
F6
s(Vlose
g36
tp608
F2
s(g209
g6
tp609
F3
s(Vteachers
g12
tp610
F1
s(Vdisappointed
g8
tp611
F1
s(Vcontent
g8
tp612
F1
s(V`afraid
g19
tp613
F1
s(Vranks
g12
tp614
F1
s(Vrigorously
g34
tp615
F2
s(Vdripped
g23
tp616
F1
s(Vconfided
g17
tp617
F1
s(Vowners
S'NNS'
p618
tp619
F1
s(g36
g19
tp620
F26
s(S'MD'
p621
S'IN'
p622
tp623
F3
s(Vsqueezed
g23
tp624
F1
s(S'VBP'
p625
S','
tp626
F91
s(Vtwenty-five
g8
tp627
F1
s(Vsaloons
g12
tp628
F2
s(g128
g32
tp629
F45
s(Vweary
g8
tp630
F2
s(Vbright
g8
tp631
F3
s(Vfrowned
g17
tp632
F1
s(Vtop
g19
tp633
F2
s(Vmuttered
g23
tp634
F1
s(Vnap
g19
tp635
F2
s(Vstate-rooms
g8
tp636
F1
s(Vacquired
g23
tp637
F1
s(Vmatch
g19
tp638
F4
s(Vgood
g8
tp639
F79
s(Vperceptibly
g34
tp640
F1
s(Vfrenzied
g17
tp641
F1
s(Vsituations
g12
tp642
F1
s(Vsend
g93
tp643
F4
s(Vseriously
g34
tp644
F3
s(Vnicer
g8
tp645
F1
s(Vpleasantly
g34
tp646
F1
s(V-seeaim
g19
tp647
F2
s(Vring
g52
tp648
F2
s(Vsavages
g12
tp649
F2
s(Vgroans
g32
tp650
F1
s(VCrim
g6
tp651
F2
s(g12
g93
tp652
F7
s(VBalzacs
g6
tp653
F1
s(Vfluttering
g8
tp654
F1
s(Vsport
g19
tp655
F1
s(VColonna
g6
tp656
F1
s(VAdieu
g6
tp657
F1
s(Vsais
g19
tp658
F1
s(Vattendance
g19
tp659
F1
s(Vbrushed
g23
tp660
F2
s(Vlooked
g17
tp661
F25
s(Vplease
g93
tp662
F3
s(Vcatholic
g8
tp663
F2
s(Vdisconsolate
g19
tp664
F1
s(Vpensioners
g12
tp665
F2
s(Vscholar
g19
tp666
F1
s(Venervates
g32
tp667
F1
s(Vherself
g561
tp668
F8
s(Vsecret
g19
tp669
F1
s(Van
g167
tp670
F94
s(Vwindows
g32
tp671
F1
s(Vlive
g93
tp672
F8
s(Vpro
g227
tp673
F1
s(Vset
g23
tp674
F1
s(Vunknown
g8
tp675
F3
s(Vtraveller
g19
tp676
F1
s(Vtrials
g12
tp677
F1
s(Vchance
S'NN'
p678
tp679
F6
s(Velements
g12
tp680
F2
s(S'IN'
p681
g234
tp682
F48
s(Vadvertisements
g12
tp683
F1
s(Vsmooth
g93
tp684
F1
s(VAugust
S'NNP'
p685
tp686
F4
s(S','
g128
tp687
F1144
s(Vfortunate
g93
tp688
F1
s(g52
g128
tp689
F9
s(Vhardy
g8
tp690
F2
s(Vruns
g32
tp691
F1
s(Vrecall
g36
tp692
F2
s(Vwomanhood
g19
tp693
F1
s(Vfoppery
g19
tp694
F1
s(Vgreasy
g8
tp695
F1
s(Vreason
S'NN'
p696
tp697
F6
s(Vsurlily
g34
tp698
F1
s(Vtext
g19
tp699
F3
s(Vstealing
g52
tp700
F1
s(Vsprigs
g12
tp701
F1
s(Vhigh-bred-looking
g8
tp702
F1
s(Vconceivable
g8
tp703
F1
s(Vphilosopher
g19
tp704
F6
s(VTHE
g6
tp705
F2
s(Vdaughter-in-law
g19
tp706
F2
s(Vcarriages
g12
tp707
F4
s(Vfeminine
g8
tp708
F1
s(Vbeneath
g19
tp709
F1
s(VMount
g6
tp710
F3
s(Vstrongly
g34
tp711
F4
s(Vbroad
S'JJ'
p712
tp713
F3
s(Vreprobates
g32
tp714
F1
s(VPassages
g6
tp715
F1
s(g36
g14
tp716
F126
s(Vrising
g52
tp717
F2
s(V-nor
g93
tp718
F1
s(Vallow
g93
tp719
F2
s(g476
g93
tp720
F5
s(Vpersons
g12
tp721
F8
s(S'MD'
p722
S','
tp723
F11
s(Vworthy
g8
tp724
F1
s(Vhope
g93
tp725
F1
s(Vmanikins
g12
tp726
F1
s(Vdinner
g19
tp727
F15
s(Vcynicism
g19
tp728
F1
s(Vhysterics
g12
tp729
F1
s(Vbodice
g19
tp730
F1
s(Vtorrent
g19
tp731
F1
s(Vjoking
g19
tp732
F1
s(Vbetray
g93
tp733
F3
s(Vyes
g12
tp734
F4
s(V-pattern-cards
g12
tp735
F1
s(Vclass
S'NN'
p736
tp737
F5
s(VL'Americaine
g6
tp738
F1
s(VPuseyite
g6
tp739
F1
s(Vspeaker
g19
tp740
F1
s(Vaccidental
g8
tp741
F1
s(Vpursuit
g19
tp742
F1
s(S'EX'
p743
g625
tp744
F18
s(Vlost
g17
tp745
F3
s(VToo
g34
tp746
F1
s(Vforget
g36
tp747
F1
s(Vdays
S'NNS'
p748
tp749
F13
s(Vmused
g17
tp750
F1
s(Vmove
g19
tp751
F1
s(g36
S')'
tp752
F3
s(VVenice
g6
tp753
F1
s(Vcool
g8
tp754
F4
s(Vcolored
g17
tp755
F2
s(Vever
S'RB'
p756
tp757
F27
s(S'PRP'
p758
g474
tp759
F15
s(Vlemon-choly
g8
tp760
F1
s(Vconsciousness
g19
tp761
F2
s(Vworthy
g274
tp762
F1
s(Vgot
g17
tp763
F7
s(VAustralia
S'NNP'
p764
tp765
F1
s(Vrecent
S'JJ'
p766
tp767
F1
s(Vfanatical
g8
tp768
F1
s(Vour
S'PRP$'
p769
tp770
F87
s(VMaison
g6
tp771
F1
s(Vextravagance
g19
tp772
F2
s(VFall
g6
tp773
F2
s(g93
g358
tp774
F257
s(Vannual
S'JJ'
p775
tp776
F2
s(Ves
g8
tp777
F1
s(g90
S')'
tp778
F1
s(Vfeel
g36
tp779
F5
s(Vdoze
g36
tp780
F1
s(Vimminent
g8
tp781
F1
s(Vpositively
g34
tp782
F3
s(Vbloom
g93
tp783
F1
s(Vguard
g19
tp784
F2
s(Vbills
S'NNS'
p785
tp786
F4
s(Vhotels
g12
tp787
F2
s(Vrosette
g19
tp788
F1
s(Vinterpreter
g19
tp789
F1
s(Vmarry
g32
tp790
F1
s(Vliterary
g8
tp791
F2
s(Vrolls
g32
tp792
F1
s(Vextra
g8
tp793
F1
s(V're
S'VBP'
p794
tp795
F6
s(VTake
g93
tp796
F3
s(g113
S'NNP'
p797
tp798
F24
s(Vwithering
g52
tp799
F1
s(Velaborated
g23
tp800
F1
s(g52
S':'
tp801
F3
s(VKattery
g6
tp802
F2
s(Vsafety
S'NN'
p803
tp804
F1
s(V've
S'VBP'
p805
tp806
F18
s(Vmeditation
g19
tp807
F1
s(Vhouse
S'NN'
p808
tp809
F84
s(Vopportunities
g12
tp810
F6
s(Vhurrying
g52
tp811
F1
s(Vsuccess
S'NN'
p812
tp813
F4
s(Vsuddenly
g34
tp814
F7
s(Vbelieve
g36
tp815
F11
s(Vprominence
g19
tp816
F1
s(Vpunched
g17
tp817
F1
s(Vexaggerates
g32
tp818
F1
s(Vnine
S'CD'
p819
tp820
F3
s(Vskepticism
g19
tp821
F1
s(VTRANSLATED
g6
tp822
F1
s(Vsuspicions
g12
tp823
F1
s(g561
S')'
tp824
F3
s(Vdabbles
g32
tp825
F1
s(Virresistible
g8
tp826
F1
s(Vnobles
g12
tp827
F1
s(Vdrive
g36
tp828
F3
s(Vfollow
g93
tp829
F2
s(Vcared
g17
tp830
F1
s(VCraesus
g6
tp831
F8
s(Vawaits
g12
tp832
F1
s(Vsister
g19
tp833
F2
s(Vglare
g19
tp834
F1
s(Vseverity
g19
tp835
F1
s(Venticed
g17
tp836
F1
s(Vcollect
g93
tp837
F1
s(Vwig
g19
tp838
F3
s(VTake
g6
tp839
F1
s(Vairy
g8
tp840
F2
s(S'PRP'
p841
g36
tp842
F878
s(Vaccomplished
g17
tp843
F2
s(Vsuperb
g8
tp844
F1
s(Vcocked
g19
tp845
F1
s(Vteeth
g19
tp846
F1
s(Vguests
g12
tp847
F2
s(VThat
g167
tp848
F24
s(Vdetails
S'NNS'
p849
tp850
F1
s(Vcertain
S'JJ'
p851
tp852
F10
s(Vrequired
g8
tp853
F2
s(Vostentation
g19
tp854
F2
s(Vassembled
g23
tp855
F1
s(Vfaces
S'VBZ'
p856
tp857
F6
s(Vwarmth
g19
tp858
F1
s(Vsailing
g52
tp859
F1
s(Vvelvet
g19
tp860
F6
s(Vwhirl
g274
tp861
F1
s(g182
g411
tp862
F1
s(Vimagine
g93
tp863
F2
s(Vhours
S'NNS'
p864
tp865
F3
s(Vsteps
g12
tp866
F1
s(Vsnuffed
g23
tp867
F1
s(VJupiter
g19
tp868
F2
s(Vbounty
g19
tp869
F1
s(Vmatrimony
g19
tp870
F1
s(Vexotic
g8
tp871
F1
s(Vshe
S'PRP'
p872
tp873
F144
s(Vservice
g19
tp874
F6
s(S'WRB'
p875
g276
tp876
F7
s(VIrishman
g6
tp877
F1
s(Vexperience
g19
tp878
F9
s(Vvapors
g12
tp879
F1
s(Vtwitched
g17
tp880
F1
s(VAm
g6
tp881
F1
s(Vpresently
g34
tp882
F1
s(Vanswering
g52
tp883
F1
s(Vcities
S'NNS'
p884
tp885
F1
s(Vorders
S'NNS'
p886
tp887
F1
s(Vgravy
g19
tp888
F1
s(Vogre
g19
tp889
F1
s(Vminutes
S'NNS'
p890
tp891
F2
s(VForeigners
g12
tp892
F1
s(Vsurrendering
g52
tp893
F1
s(Vdull
g8
tp894
F2
s(V-wine
g19
tp895
F1
s(Vambitions
g12
tp896
F1
s(S':'
g143
tp897
F80
s(V.
S'.'
tp898
F1947
s(Vtravel
g19
tp899
F1
s(Vhumiliating
g19
tp900
F1
s(Vprepared
g17
tp901
F1
s(g113
S'.'
tp902
F33
s(VMinerba
g6
tp903
F1
s(Vboasted
g8
tp904
F1
s(S'POS'
p905
g8
tp906
F12
s(Vwhose
S'WP$'
p907
tp908
F16
s(VMarquis
g6
tp909
F1
s(Vunites
g32
tp910
F1
s(S','
g23
tp911
F25
s(Vdigest
g93
tp912
F1
s(Vpaternal
g19
tp913
F1
s(Vher
g34
tp914
F1
s(Vcease
g93
tp915
F1
s(VWorcestershire
g6
tp916
F1
s(V--
S':'
tp917
F292
s(Vprince
g19
tp918
F1
s(Vwearing
g52
tp919
F3
s(Vpompous
g8
tp920
F5
s(Vwhatever
g81
tp921
F3
s(Vreferring
g52
tp922
F1
s(Vreceive
g93
tp923
F4
s(Vprivacy
g19
tp924
F1
s(Vchange
g93
tp925
F1
s(Vcareer
g19
tp926
F4
s(Vskim-milk
g19
tp927
F1
s(Vmoderate
g8
tp928
F1
s(Vshook
g19
tp929
F1
s(S':'
g74
tp930
F9
s(Vquotes
g32
tp931
F1
s(Vluxury
g19
tp932
F7
s(Vimportance
g19
tp933
F1
s(Vcarelessly
g34
tp934
F1
s(Vloveliness
g19
tp935
F1
s(Vbaggage
g19
tp936
F1
s(Vgarden
g19
tp937
F2
s(Vlisten
g36
tp938
F1
s(Vconvenient
g8
tp939
F1
s(Vhopes
g32
tp940
F1
s(Vshow
g36
tp941
F6
s(Vargue
g93
tp942
F1
s(Vto
g276
tp943
F1023
s(Vkings
g12
tp944
F3
s(Vdetested
g17
tp945
F1
s(Vheard
g36
tp946
F3
s(Vpainted
g23
tp947
F2
s(g63
S','
tp948
F5
s(VCroe
g6
tp949
F1
s(Vunutterable
g8
tp950
F1
s(Vruin
g93
tp951
F1
s(Vcheval
g19
tp952
F1
s(Voutrage
g36
tp953
F1
s(S':'
g24
tp954
F1
s(Vcover
g19
tp955
F2
s(Vflag
g19
tp956
F1
s(V-actually
g34
tp957
F1
s(g12
g227
tp958
F2
s(Vinstincts
g12
tp959
F1
s(Vwatering
g19
tp960
F1
s(Vpours
g32
tp961
F1
s(Vcontinually
g34
tp962
F1
s(V''
g209
tp963
F655
s(Vfancied
g17
tp964
F2
s(Vbecause
g274
tp965
F52
s(Vgradual
g8
tp966
F1
s(VMurat-like
g6
tp967
F1
s(Vcent
g19
tp968
F2
s(Vpurlieus
g19
tp969
F1
s(Vlarge
S'JJ'
p970
tp971
F20
s(Vstarted
g17
tp972
F1
s(Vsplendid
g8
tp973
F12
s(VBrussels
g6
tp974
F1
s(Vannexation
g19
tp975
F1
s(Vhalf
g19
tp976
F5
s(Vstand
g36
tp977
F4
s(Vchevalier
g19
tp978
F1
s(Vdifferent
S'JJ'
p979
tp980
F7
s(Vbends
g12
tp981
F1
s(Vfiner
g19
tp982
F1
s(Vvenomous
g8
tp983
F1
s(VMost
g182
tp984
F1
s(Vkeys
g12
tp985
F2
s(Vconsidered
g23
tp986
F1
s(Vrebuke
g8
tp987
F1
s(Vsubmit
g36
tp988
F1
s(VNor
S'CC'
p989
tp990
F3
s(Vsole
g8
tp991
F1
s(Vwear
g8
tp992
F1
s(Vmeddle
g93
tp993
F1
s(Vdragged
g23
tp994
F2
s(Vmollified.
g32
tp995
F1
s(Vobey
g93
tp996
F1
s(Vgrace
g19
tp997
F5
s(Vfinest
g182
tp998
F3
s(Vsure
g34
tp999
F4
s(VHyde
g6
tp1000
F3
s(Vsucceeds
S'VBZ'
p1001
tp1002
F1
s(Vunimportance
g19
tp1003
F1
s(Vapartments
g12
tp1004
F1
s(Vmigratory
g8
tp1005
F1
s(Vdestroying
g52
tp1006
F1
s(Vslipped
g17
tp1007
F3
s(Vplated
g23
tp1008
F1
s(VMuch
g34
tp1009
F1
s(Vmoments
g12
tp1010
F2
s(g63
g6
tp1011
F1
s(Vdeclare
g19
tp1012
F1
s(Vcomprehend
g93
tp1013
F1
s(Vstockings
g12
tp1014
F2
s(g113
g19
tp1015
F35
s(VCarrara
g6
tp1016
F1
s(Vwho
g112
tp1017
F154
s(Vpardon
g93
tp1018
F4
s(VStaggers
g159
tp1019
F1
s(Vdisappointment
g19
tp1020
F1
s(VVienna
g6
tp1021
F2
s(Vescape
g93
tp1022
F1
s(VFrom
g274
tp1023
F2
s(VIl
g6
tp1024
F1
s(VElys
g6
tp1025
F1
s(g209
g276
tp1026
F4
s(Vl'Imp
g8
tp1027
F1
s(Vlaugh
g34
tp1028
F1
s(Vde
g6
tp1029
F2
s(VRECALL
g6
tp1030
F1
s(Vsweet
g8
tp1031
F7
s(Vniece
g19
tp1032
F1
s(Vunderstand
g36
tp1033
F7
s(VHouse
S'NNP'
p1034
tp1035
F2
s(Vboard
S'NN'
p1036
tp1037
F2
s(VThis
S'DT'
p1038
tp1039
F12
s(Vcovet
g93
tp1040
F1
s(Vasked
g17
tp1041
F23
s(Vextravagant
g8
tp1042
F4
s(Vdelicate
g8
tp1043
F3
s(Vexists
g32
tp1044
F1
s(VM.
S'NNP'
p1045
tp1046
F1
s(VJohn
S'NNP'
p1047
tp1048
F9
s(Vdeath
S'NN'
p1049
tp1050
F2
s(Vtragically
g34
tp1051
F1
s(g274
g12
tp1052
F184
s(Vleaning
g52
tp1053
F1
s(Vlistless
g19
tp1054
F1
s(Vsold
g17
tp1055
F2
s(Vmeet
g19
tp1056
F1
s(Vchapter
g19
tp1057
F1
s(Venormous
S'JJ'
p1058
tp1059
F1
s(Vrevealing
g52
tp1060
F1
s(Vfathers
g12
tp1061
F2
s(Vinstitutions
S'NNS'
p1062
tp1063
F4
s(Vtrained
g23
tp1064
F1
s(Vventures
S'NNS'
p1065
tp1066
F1
s(VLent
g93
tp1067
F1
s(Vpreach
g93
tp1068
F1
s(V`capital
g8
tp1069
F2
s(g209
g36
tp1070
F1
s(Vwater
S'NN'
p1071
tp1072
F3
s(Vcalmly
g19
tp1073
F2
s(Vagain
S'RB'
p1074
tp1075
F25
s(VSinge
g6
tp1076
F1
s(Vfruits
g12
tp1077
F1
s(Vdecided
g17
tp1078
F1
s(Vunderstood
g19
tp1079
F1
s(Vlabors
g12
tp1080
F1
s(Vhang
g36
tp1081
F2
s(Vwalks
g12
tp1082
F1
s(Vcustard
g8
tp1083
F1
s(Vstudying
g52
tp1084
F2
s(Vcitizen
g19
tp1085
F2
s(Vfacility
S'NN'
p1086
tp1087
F2
s(Vproud
g19
tp1088
F1
s(Vshakes
g93
tp1089
F1
s(Vbuttoned
g23
tp1090
F1
s(Vconfided
g23
tp1091
F1
s(Vdoubts
g12
tp1092
F1
s(Vgone
S'VBN'
p1093
tp1094
F8
s(Vcreated
g23
tp1095
F1
s(Vliving
g19
tp1096
F3
s(VLast
g200
tp1097
F3
s(VPoti-phar
g6
tp1098
F1
s(Vbear
g93
tp1099
F2
s(Vgaming-houses
g12
tp1100
F1
s(g81
S','
tp1101
F12
s(VHis
S'PRP$'
p1102
tp1103
F2
s(Vvexed
g23
tp1104
F1
s(VOthers
g12
tp1105
F1
s(Venjoying
g52
tp1106
F2
s(g182
g209
tp1107
F3
s(Vfitness
g19
tp1108
F1
s(Votherwise
g19
tp1109
F1
s(Vshowed
g17
tp1110
F4
s(Vsatisfied
g23
tp1111
F2
s(Vut
g8
tp1112
F1
s(Vdisgusts
g12
tp1113
F1
s(Vholds
S'VBZ'
p1114
tp1115
F3
s(Vlatent
g19
tp1116
F2
s(Vsaloon
g19
tp1117
F1
s(VFungus
g6
tp1118
F7
s(Vtotally
g34
tp1119
F1
s(Vvanishing
g19
tp1120
F1
s(Vpondered
g17
tp1121
F1
s(VSomehow
g34
tp1122
F1
s(Vexcellent
g8
tp1123
F3
s(Vphrase
g19
tp1124
F1
s(g19
g841
tp1125
F129
s(Vfreshly
g34
tp1126
F1
s(VVery
g34
tp1127
F2
s(VZembla
g6
tp1128
F1
s(Vtheory
g19
tp1129
F2
s(V-constantly
g34
tp1130
F1
s(Vmust
S'MD'
p1131
tp1132
F59
s(VFreddy
g6
tp1133
F2
s(Vtwenty
g327
tp1134
F1
s(Vprivilege
g19
tp1135
F3
s(Vheir
g19
tp1136
F4
s(S'PRP'
p1137
g128
tp1138
F17
s(Vbruised
g8
tp1139
F1
s(Vgray
g19
tp1140
F1
s(g905
S')'
tp1141
F1
s(Vintimate
g8
tp1142
F7
s(Vpinch
g19
tp1143
F2
s(Vcalf
g19
tp1144
F1
s(Vlineally
g34
tp1145
F1
s(Vblemishes
g12
tp1146
F1
s(Vsight
g19
tp1147
F4
s(Vcontinues
S'VBZ'
p1148
tp1149
F2
s(Vcoughed
g17
tp1150
F1
s(Vearnest
g19
tp1151
F1
s(Vthreadbare
g8
tp1152
F1
s(Vunprecedented
g8
tp1153
F1
s(Vhustled
g17
tp1154
F1
s(Vprobable
g8
tp1155
F1
s(Vrefrain
g93
tp1156
F2
s(Vcluttering
g52
tp1157
F1
s(Vliveries
g12
tp1158
F11
s(Vmanliness
g19
tp1159
F1
s(VCroesuses
g159
tp1160
F1
s(Vpocket-handkerchief
g19
tp1161
F1
s(S':'
g8
tp1162
F58
s(g8
S')'
tp1163
F1
s(Vdelighted
g23
tp1164
F1
s(Vbecame
S'VBD'
p1165
tp1166
F3
s(g227
g19
tp1167
F3
s(Vmuseums
g12
tp1168
F1
s(Vballs
g12
tp1169
F7
s(Vcarry
g93
tp1170
F3
s(Vcruises
g12
tp1171
F1
s(Vvaluable
g8
tp1172
F3
s(Vhandsome
g19
tp1173
F1
s(Vsanded
g8
tp1174
F1
s(Vadmire
g93
tp1175
F1
s(Vpictures
g12
tp1176
F19
s(Vsurface
g19
tp1177
F1
s(Vafter-dinner
g8
tp1178
F1
s(V-Is
g36
tp1179
F1
s(Vfriendship
g19
tp1180
F1
s(Venervating
g52
tp1181
F1
s(g128
g112
tp1182
F24
s(VG.
g6
tp1183
F2
s(Vwo
S'MD'
p1184
tp1185
F9
s(VEnglishman
g6
tp1186
F1
s(S'('
g84
tp1187
F15
s(V`a
g6
tp1188
F1
s(Vactuality
g19
tp1189
F1
s(Vdeny
g93
tp1190
F7
s(VJunction
g6
tp1191
F1
s(Vsupposed
g17
tp1192
F4
s(Vfitted
g17
tp1193
F1
s(V-yes
g12
tp1194
F1
s(Vdirection
S'NN'
p1195
tp1196
F1
s(Vmaintain
g36
tp1197
F1
s(Vthink
g36
tp1198
F33
s(g93
g6
tp1199
F35
s(Vcomic
g8
tp1200
F1
s(Vlump
g19
tp1201
F2
s(Vdear
g19
tp1202
F14
s(Vevents
S'NNS'
p1203
tp1204
F2
s(Vconceit
g19
tp1205
F1
s(Vintelligent
g19
tp1206
F2
s(Vbelong
g19
tp1207
F1
s(Vretreat
g19
tp1208
F1
s(V`money
g6
tp1209
F1
s(Vyouth
g19
tp1210
F10
s(Vsympathy
g19
tp1211
F3
s(Vadjusting
g52
tp1212
F1
s(S'DT'
p1213
g112
tp1214
F15
s(Vsafely
g34
tp1215
F1
s(Vplease
g36
tp1216
F4
s(Vofficer
S'NN'
p1217
tp1218
F2
s(g6
g841
tp1219
F16
s(VHercules
g6
tp1220
F1
s(Vsmelt
g19
tp1221
F1
s(Vright
g8
tp1222
F13
s(Vhold
g19
tp1223
F1
s(Vlive
g36
tp1224
F8
s(Vassured
g23
tp1225
F1
s(Vflouncy
g19
tp1226
F1
s(VJose
g6
tp1227
F1
s(Vawakward
g34
tp1228
F1
s(Vsleep
g8
tp1229
F1
s(Vwinked
g17
tp1230
F2
s(Vbetween
S'IN'
p1231
tp1232
F4
s(Vbareheaded
g23
tp1233
F1
s(Vdisgusting
g19
tp1234
F1
s(Vwavy
g8
tp1235
F1
s(Vours
g93
tp1236
F1
s(Vconfined
g8
tp1237
F1
s(VAct
S'NNP'
p1238
tp1239
F1
s(Vslander
g93
tp1240
F1
s(Vgayly
g8
tp1241
F1
s(S':'
g327
tp1242
F1
s(Vparticularly
S'RB'
p1243
tp1244
F4
s(Vfee
g19
tp1245
F1
s(V`aping
g52
tp1246
F1
s(VItaly
S'NNP'
p1247
tp1248
F3
s(Vdeities
g12
tp1249
F1
s(VGallery
g6
tp1250
F1
s(Vsprightliness
g19
tp1251
F1
s(VBless
g6
tp1252
F1
s(Vsee
g93
tp1253
F58
s(VPendennises
g12
tp1254
F1
s(Vwives
g12
tp1255
F2
s(Vcrests
g12
tp1256
F1
s(Vthan
S'IN'
p1257
tp1258
F59
s(Vheartily
g34
tp1259
F1
s(Vhailed
g23
tp1260
F1
s(S'WRB'
p1261
S'PRP$'
p1262
tp1263
F4
s(Vallowed
g17
tp1264
F1
s(Vwaiting
g52
tp1265
F3
s(g84
g143
tp1266
F16
s(Vrepeated
g17
tp1267
F2
s(Varrangement
g19
tp1268
F2
s(VMarcobrunner
g6
tp1269
F1
s(Vcapacities
g12
tp1270
F1
s(VCerulea
g6
tp1271
F2
s(Vweakness
S'NN'
p1272
tp1273
F1
s(g905
g19
tp1274
F73
s(Vhope
g36
tp1275
F6
s(g274
g227
tp1276
F4
s(Vquiet
g8
tp1277
F7
s(Vrises
g32
tp1278
F1
s(Vintolerable
g8
tp1279
F2
s(Vprayer-book
g19
tp1280
F5
s(Vmine
g19
tp1281
F5
s(Vopposite
g36
tp1282
F1
s(V-what
g112
tp1283
F1
s(Veat
g19
tp1284
F1
s(Vleave
g19
tp1285
F1
s(g23
g182
tp1286
F1
s(Vwarm
g8
tp1287
F10
s(Vhanded
g17
tp1288
F1
s(Vpale
g8
tp1289
F3
s(Vcathedrals
g12
tp1290
F1
s(Vhideous
g8
tp1291
F4
s(Vforefingers
g12
tp1292
F1
s(Vtough
S'JJ'
p1293
tp1294
F1
s(Vforced
g17
tp1295
F1
s(Vsober
g8
tp1296
F4
s(Vtract
g19
tp1297
F1
s(V-which
g19
tp1298
F1
s(Vperfectly
g34
tp1299
F11
s(Vcliff
g19
tp1300
F1
s(Vdebutantes
g12
tp1301
F1
s(VSettum
g6
tp1302
F10
s(Vgrand
S'JJ'
p1303
tp1304
F4
s(g81
g121
tp1305
F11
s(Vproducts
S'NNS'
p1306
tp1307
F1
s(VIts
S'PRP$'
p1308
tp1309
F1
s(Vlimps
g32
tp1310
F1
s(Vloveliest
g182
tp1311
F1
s(Vwhimsical
g8
tp1312
F2
s(Vrichest
g182
tp1313
F2
s(Vschool
S'NN'
p1314
tp1315
F5
s(VDaily
g6
tp1316
F1
s(Vbetimes
g34
tp1317
F1
s(Vresolves
g12
tp1318
F1
s(Vturned
g17
tp1319
F11
s(Vhighest
S'JJS'
p1320
tp1321
F1
s(Veyelids
g12
tp1322
F1
s(Vwaltz
g19
tp1323
F5
s(g625
g23
tp1324
F98
s(Vraise
g93
tp1325
F2
s(Vcheap
g8
tp1326
F1
s(Vcome
g36
tp1327
F14
s(Vintervals
g12
tp1328
F2
s(Vdaughter
g19
tp1329
F3
s(Vdare
g93
tp1330
F2
s(VGenerosity
g6
tp1331
F1
s(Voccurred
g17
tp1332
F1
s(g143
g182
tp1333
F18
s(Vwipes
g32
tp1334
F1
s(Vgasping
g52
tp1335
F1
s(VNewcastle
g6
tp1336
F3
s(Vlong-hushed
g8
tp1337
F1
s(Vweaknesses
g12
tp1338
F1
s(Vat
S'IN'
p1339
tp1340
F264
s(Vembroidered
g8
tp1341
F1
s(Vdown
g274
tp1342
F5
s(Vfamiliarly
g34
tp1343
F1
s(Vcontents
g12
tp1344
F1
s(g276
g907
tp1345
F1
s(Vabsence
g19
tp1346
F1
s(Vsafe
g8
tp1347
F3
s(Vright
g17
tp1348
F1
s(Vassert
g19
tp1349
F1
s(Vstop
g36
tp1350
F1
s(Vproved
g23
tp1351
F1
s(Vstrange
g8
tp1352
F1
s(VSomebody-else
g6
tp1353
F1
s(Venjoys
g32
tp1354
F1
s(Vtipsy
g8
tp1355
F1
s(Vlonger
g63
tp1356
F2
s(Vprofession
g19
tp1357
F1
s(Vmonuments
g12
tp1358
F1
s(Vrose
S'VBD'
p1359
tp1360
F4
s(Vne
g19
tp1361
F1
s(Vfortune
g19
tp1362
F11
s(Vtassels
g12
tp1363
F1
s(Vaccost
g93
tp1364
F1
s(Vinstantly
g34
tp1365
F1
s(Vdarling
g52
tp1366
F10
s(Vdine
g93
tp1367
F2
s(VLeaving
g52
tp1368
F1
s(Vcompelled
g23
tp1369
F1
s(Vflatly
g34
tp1370
F1
s(VMadame
g6
tp1371
F15
s(Vvigor
g19
tp1372
F2
s(Vdining-room
g19
tp1373
F6
s(VMusic
g19
tp1374
F1
s(Vbecome
g93
tp1375
F3
s(VPendennises
g32
tp1376
F1
s(Vinvaluable
g8
tp1377
F2
s(Vgreen
g8
tp1378
F3
s(Vallows
g32
tp1379
F1
s(Vrank
g19
tp1380
F2
s(Vgantier
g19
tp1381
F1
s(Vfiercely
g34
tp1382
F1
s(Vt
g8
tp1383
F1
s(VUncle
g6
tp1384
F1
s(Vapologue
g19
tp1385
F1
s(Vfully
S'RB'
p1386
tp1387
F2
s(Varriving
g52
tp1388
F2
s(g411
g8
tp1389
F77
s(g681
g6
tp1390
F392
s(Vthousand
g19
tp1391
F5
s(Vadventures
g12
tp1392
F1
s(Vsundry
g8
tp1393
F2
s(Vbest
g34
tp1394
F1
s(Vplaintive
g8
tp1395
F1
s(Vchin
g19
tp1396
F1
s(Vdressed
g23
tp1397
F5
s(Vwise
g36
tp1398
F1
s(Vditto
g19
tp1399
F1
s(Vcounting-houses
g12
tp1400
F1
s(VJohnson
S'NNP'
p1401
tp1402
F1
s(g276
g93
tp1403
F626
s(Vdrain
g36
tp1404
F1
s(Vbalck
g19
tp1405
F1
s(Visland
g19
tp1406
F2
s(g905
g841
tp1407
F1
s(VUnlted
g6
tp1408
F1
s(S'('
S'PRP'
p1409
tp1410
F11
s(VSeptember
S'NNP'
p1411
tp1412
F1
s(Vintroduced
g23
tp1413
F3
s(Vany
g90
tp1414
F87
s(Vsermon
g19
tp1415
F5
s(Vwild-beasts
g12
tp1416
F1
s(Vpleased
g17
tp1417
F1
s(VChina
S'NNP'
p1418
tp1419
F6
s(Vpartner
S'NN'
p1420
tp1421
F2
s(Vabout
g274
tp1422
F83
s(Vtyrannical
g8
tp1423
F1
s(Vwits
g12
tp1424
F1
s(VArk
g6
tp1425
F1
s(Vstain
g19
tp1426
F1
s(Vcompromised
g23
tp1427
F1
s(Vbowling
g52
tp1428
F1
s(VWhose
g8
tp1429
F1
s(Varbitrary
g8
tp1430
F1
s(Vachieved
g23
tp1431
F1
s(Vgushed
g23
tp1432
F1
s(VDruse
g6
tp1433
F1
s(S':'
g12
tp1434
F8
s(Vdelivered
g17
tp1435
F1
s(VDove
g6
tp1436
F3
s(Vapology
g19
tp1437
F1
s(Vgrowled
g23
tp1438
F1
s(Vreservation
g19
tp1439
F1
s(Vd'oeuvre
g474
tp1440
F1
s(Vmarched
g23
tp1441
F1
s(VMoles
g12
tp1442
F1
s(Vboorishness
g19
tp1443
F1
s(Vgoing
S'VBG'
p1444
tp1445
F34
s(V-against
g8
tp1446
F1
s(Vsweetness
g19
tp1447
F2
s(VSwitzerland
S'NNP'
p1448
tp1449
F2
s(Vcalmness
g19
tp1450
F1
s(Vgentlemen
g19
tp1451
F1
s(VScarlet
g6
tp1452
F4
s(Vwaking
g19
tp1453
F2
s(Vpartake
g93
tp1454
F1
s(Vtomfoolery
g19
tp1455
F1
s(Vsale
S'NN'
p1456
tp1457
F2
s(VThank
g6
tp1458
F1
s(Vover
g474
tp1459
F2
s(Vorganization
S'NN'
p1460
tp1461
F4
s(Vprevents
g12
tp1462
F1
s(Vwondering
g52
tp1463
F1
s(Vseem
g36
tp1464
F2
s(Vwalking
g52
tp1465
F1
s(Vdisgraced
g17
tp1466
F1
s(VAlderman
g6
tp1467
F1
s(Vhid
g36
tp1468
F1
s(Vmarry
g17
tp1469
F1
s(Vsenator
g19
tp1470
F1
s(Vliterally
g34
tp1471
F1
s(Vebony
g8
tp1472
F1
s(Vbitterness
g19
tp1473
F1
s(Vspecious
g8
tp1474
F1
s(Vaudacious
g8
tp1475
F1
s(Vtranquillity
g19
tp1476
F2
s(Vtalked
g17
tp1477
F1
s(VJollup
g6
tp1478
F1
s(Vill
g8
tp1479
F1
s(Vrally
g34
tp1480
F1
s(Vdress
g19
tp1481
F16
s(Vwreath
g19
tp1482
F2
s(Vwhenever
g106
tp1483
F1
s(Vchip
S'NN'
p1484
tp1485
F1
s(Vselections
g12
tp1486
F1
s(Vpat
g93
tp1487
F2
s(Vlong
g8
tp1488
F5
s(Vbrutalized
g23
tp1489
F1
s(Vlong-suffering
g8
tp1490
F1
s(V-likely
g34
tp1491
F1
s(Vsuspect
g93
tp1492
F2
s(g17
S','
tp1493
F97
s(Vcharmed
g17
tp1494
F1
s(Vlargest
g182
tp1495
F2
s(Vpillow
g19
tp1496
F1
s(Ventrance
g19
tp1497
F1
s(Vquite
g93
tp1498
F1
s(Vhers
g12
tp1499
F6
s(Vnicked
g23
tp1500
F1
s(Vprosperous
g8
tp1501
F1
s(Vempire
g19
tp1502
F1
s(g227
S'.'
tp1503
F4
s(Vsurly
g34
tp1504
F1
s(VDumas
g6
tp1505
F1
s(Vgauze
g19
tp1506
F2
s(Vguileless
g8
tp1507
F2
s(Vsir
g34
tp1508
F1
s(Vrisk
g19
tp1509
F1
s(Vspeak
g8
tp1510
F1
s(Vgenerous
g8
tp1511
F6
s(Vestimate
g19
tp1512
F1
s(Vfacetiously
g34
tp1513
F1
s(Vminds
g12
tp1514
F1
s(g143
g74
tp1515
F43
s(Vsurround
g17
tp1516
F1
s(Vwithin
S'IN'
p1517
tp1518
F3
s(g6
g8
tp1519
F6
s(Vbouquets
g12
tp1520
F1
s(g474
g6
tp1521
F2
s(Vregard
g36
tp1522
F1
s(Vuncomfortable
g8
tp1523
F2
s(Vdissipation
g19
tp1524
F2
s(Voutspend
g93
tp1525
F1
s(Vpoured
g23
tp1526
F1
s(Vseraphim
g19
tp1527
F1
s(Vheiress
g8
tp1528
F1
s(Vpalatial
g8
tp1529
F6
s(Vsigh
g19
tp1530
F1
s(Vbehind
g274
tp1531
F14
s(Vhooped
g8
tp1532
F1
s(g93
g12
tp1533
F34
s(Vwhirled
g17
tp1534
F4
s(Vonset
g19
tp1535
F1
s(Vwarehouse
g19
tp1536
F1
s(Vmute
g19
tp1537
F1
s(Vchamber-maid
g19
tp1538
F1
s(Vtechnically
g34
tp1539
F2
s(V's
g32
tp1540
F88
s(Vbed-curtains
g12
tp1541
F1
s(V-do
g274
tp1542
F2
s(Vjoke
g19
tp1543
F3
s(Vpale
g19
tp1544
F1
s(Vchapel
g19
tp1545
F2
s(Vviz
g19
tp1546
F1
s(Vcomposure
g19
tp1547
F1
s(Vmene
g19
tp1548
F2
s(VYork
S'NNP'
p1549
tp1550
F8
s(Vrestrain
g93
tp1551
F1
s(Vshield
g8
tp1552
F1
s(Vshudder
g19
tp1553
F2
s(g905
g274
tp1554
F2
s(Vstump
g19
tp1555
F2
s(Vnothings
g12
tp1556
F1
s(VLarmes
g6
tp1557
F3
s(Vreviewed
g17
tp1558
F1
s(Vsuppose
g8
tp1559
F1
s(Vorder
S'NN'
p1560
tp1561
F1
s(Vvisits
g12
tp1562
F1
s(Vvarious
S'JJ'
p1563
tp1564
F3
s(V-oh
g19
tp1565
F1
s(g159
g320
tp1566
F2
s(Vsoft
g8
tp1567
F1
s(VTopaz
g6
tp1568
F1
s(Vstately
g34
tp1569
F2
s(Vpew
g19
tp1570
F4
s(Vexpose
g93
tp1571
F1
s(V,
S','
tp1572
F4168
s(S'JJ'
p1573
g23
tp1574
F5
s(Vchairs
g12
tp1575
F4
s(Vgenealogies
g12
tp1576
F1
s(Vacknowledge
g19
tp1577
F1
s(Vknock
g19
tp1578
F3
s(Vsleep
g19
tp1579
F1
s(Vexclaim
g36
tp1580
F1
s(Vhurry
g93
tp1581
F1
s(Vcustomers
S'NNS'
p1582
tp1583
F2
s(Vages
g12
tp1584
F2
s(VPendennises
g6
tp1585
F1
s(Vfootman
g8
tp1586
F1
s(Vundoubtedly
g34
tp1587
F1
s(Vregretted
g17
tp1588
F1
s(g23
g411
tp1589
F4
s(Vsupply
g93
tp1590
F1
s(Vfast
g34
tp1591
F2
s(Vdriving
g52
tp1592
F1
s(Vhands
g12
tp1593
F15
s(Vsingular
g19
tp1594
F1
s(VEsq
g6
tp1595
F1
s(Vinitial
g1573
tp1596
F1
s(Vemerged
g17
tp1597
F1
s(VLamb
g6
tp1598
F5
s(Vattention
S'NN'
p1599
tp1600
F4
s(Vstream
g19
tp1601
F1
s(Verring
g8
tp1602
F1
s(Vpiquant
g8
tp1603
F2
s(Voutworks
g12
tp1604
F1
s(Vearly
g8
tp1605
F1
s(VBy
S'IN'
p1606
tp1607
F7
s(S':'
g52
tp1608
F11
s(Vsilences
g32
tp1609
F1
s(Verror
g19
tp1610
F1
s(Vbabbled
g17
tp1611
F1
s(Vthen
S'RB'
p1612
tp1613
F59
s(Vwork-table
g8
tp1614
F1
s(Vauroral
g8
tp1615
F1
s(Vread
g17
tp1616
F3
s(Vtreatment
S'NN'
p1617
tp1618
F2
s(Vfire
g19
tp1619
F2
s(Vinsist
g93
tp1620
F2
s(Vglistened
g17
tp1621
F1
s(Videal
g8
tp1622
F2
s(Vbegins
g32
tp1623
F3
s(Vdiscussed
g17
tp1624
F1
s(Vpossessor
g19
tp1625
F1
s(VREV
g6
tp1626
F1
s(Vbinding
g52
tp1627
F1
s(Vagree
g93
tp1628
F1
s(VDante
g6
tp1629
F1
s(Vinvesting
g52
tp1630
F1
s(Vmanthuns
g12
tp1631
F1
s(Vwhich
g81
tp1632
F123
s(Vgood-looking
g52
tp1633
F1
s(Vdream
g93
tp1634
F3
s(Vdearest
g182
tp1635
F5
s(g34
g128
tp1636
F29
s(Vfit
g8
tp1637
F1
s(VLeila
g6
tp1638
F1
s(Vdemoiselles
g12
tp1639
F1
s(Vhops
g32
tp1640
F1
s(V`genius
g19
tp1641
F1
s(Vwonder
g19
tp1642
F1
s(Vperfumer
g19
tp1643
F1
s(Vequality
g19
tp1644
F1
s(Vcharmant.
g19
tp1645
F1
s(Vfront
g19
tp1646
F5
s(Vprice
S'NN'
p1647
tp1648
F3
s(g6
g34
tp1649
F30
s(VFriend
g6
tp1650
F1
s(VGooseberry
g6
tp1651
F1
s(Vappropriated
g17
tp1652
F1
s(Vbrothers
g12
tp1653
F1
s(g474
g81
tp1654
F1
s(Vstumble
g36
tp1655
F1
s(Vdeform
g93
tp1656
F1
s(g6
g209
tp1657
F4
s(Vhis
g502
tp1658
F219
s(Vlaid
g17
tp1659
F1
s(g374
g274
tp1660
F1
s(S'DT'
p1661
g875
tp1662
F6
s(Vescapes
g12
tp1663
F1
s(S'.'
g209
tp1664
F364
s(Vhandsomer
g63
tp1665
F1
s(VInquisition
g6
tp1666
F1
s(Vfactitious
g8
tp1667
F2
s(S'VBG'
p1668
S'VBN'
p1669
tp1670
F12
s(Vpassing
g52
tp1671
F4
s(Vslip
g19
tp1672
F2
s(Vworst
g182
tp1673
F1
s(Vsylph
g19
tp1674
F1
s(g129
g93
tp1675
F91
s(Vsupremacy
g19
tp1676
F1
s(S'IN'
p1677
g8
tp1678
F282
s(Vwhat
g112
tp1679
F97
s(g6
g93
tp1680
F2
s(Vchops
g12
tp1681
F1
s(Vfondle
g93
tp1682
F1
s(VWell
g74
tp1683
F1
s(Vdisposing
g52
tp1684
F1
s(Vruins
g12
tp1685
F2
s(Vopinion
S'NN'
p1686
tp1687
F3
s(Vgreater
S'JJR'
p1688
tp1689
F1
s(Vdictate
g93
tp1690
F1
s(g1460
g34
tp1691
F103
s(Vmade
g17
tp1692
F12
s(Vacknowledged
g23
tp1693
F1
s(S'IN'
p1694
g128
tp1695
F5
s(Vnever
S'RB'
p1696
tp1697
F52
s(Vhead-dress
g19
tp1698
F1
s(Vcherishes
g12
tp1699
F1
s(Vfanning
g52
tp1700
F1
s(Vfloat
g19
tp1701
F1
s(Vjewels
g12
tp1702
F2
s(Vrejoice
g19
tp1703
F1
s(Vhand-organ
g8
tp1704
F1
s(Vrefer
g36
tp1705
F1
s(Vframe
g19
tp1706
F1
s(Vremarkable
g8
tp1707
F3
s(Vsamples
g12
tp1708
F1
s(Vcross
g19
tp1709
F2
s(Vduty
g19
tp1710
F10
s(g6
g32
tp1711
F143
s(Vpatterns
g12
tp1712
F1
s(VDormouse
g6
tp1713
F3
s(g81
g24
tp1714
F1
s(Vemphasize
g93
tp1715
F1
s(Veschewing
g52
tp1716
F1
s(VWoman
g6
tp1717
F4
s(VClaret
g6
tp1718
F1
s(g19
g907
tp1719
F1
s(g27
g93
tp1720
F1
s(Venters
g12
tp1721
F1
s(Vcultivated
g23
tp1722
F2
s(Vbadge
g19
tp1723
F2
s(VCrackkey
g6
tp1724
F1
s(Vpreach
g19
tp1725
F1
s(g358
g841
tp1726
F6
s(Vvertu
g227
tp1727
F1
s(Vstoops
g32
tp1728
F1
s(VVite
g6
tp1729
F6
s(Vcoal-scuttle
g8
tp1730
F1
s(VMarie
g6
tp1731
F4
s(V`home
g6
tp1732
F1
s(Vtailor
g19
tp1733
F1
s(Vexpects
S'VBZ'
p1734
tp1735
F1
s(Vmantel
g19
tp1736
F1
s(S'NNS'
p1737
S'.'
tp1738
F245
s(Vfeeling
g52
tp1739
F1
s(Vsimplicity
g19
tp1740
F8
s(Vpastoral
g8
tp1741
F5
s(Vsturdy
g8
tp1742
F1
s(Vcaustic
g8
tp1743
F2
s(Vluxuries
g12
tp1744
F1
s(Vchallenging
g52
tp1745
F1
s(VTolerably
g34
tp1746
F1
s(S':'
S'PRP'
p1747
tp1748
F34
s(Vgaucherie
g19
tp1749
F1
s(Vshoe
g93
tp1750
F1
s(Vrotting
g52
tp1751
F1
s(Vsource
S'NN'
p1752
tp1753
F1
s(Vyard
g19
tp1754
F1
s(Vspecimen
g19
tp1755
F2
s(Vplaintively
g34
tp1756
F1
s(Vrules
S'NNS'
p1757
tp1758
F2
s(Vstruggle
g19
tp1759
F2
s(Vdisagrees
g32
tp1760
F1
s(Vdirectly
S'RB'
p1761
tp1762
F5
s(g17
S'NN'
p1763
tp1764
F38
s(Vnet
g8
tp1765
F1
s(Vexcepting
g52
tp1766
F1
s(Vold
g341
tp1767
F68
s(S':'
S'NNP'
p1768
tp1769
F17
s(VCo
S'NNP'
p1770
tp1771
F1
s(Vhard-earned
g8
tp1772
F1
s(Vspirits
g12
tp1773
F2
s(VWaterloo
g6
tp1774
F1
s(Vconsent
g93
tp1775
F2
s(VSuddenly
g34
tp1776
F2
s(g113
S'DT'
p1777
tp1778
F298
s(Vwanted
g17
tp1779
F8
s(Vuniform
g19
tp1780
F1
s(V`that
g274
tp1781
F1
s(VHoward
g6
tp1782
F2
s(Vmarrying
g52
tp1783
F1
s(Vremembers
g32
tp1784
F1
s(Vtry
g36
tp1785
F1
s(VDickens
g6
tp1786
F1
s(Vheavy
g8
tp1787
F6
s(Vor
g129
tp1788
F137
s(Vup
g474
tp1789
F53
s(g681
S'('
tp1790
F1
s(Vimported
g23
tp1791
F1
s(Vsit
g36
tp1792
F4
s(Vmouth
g19
tp1793
F3
s(Vpuffs
g12
tp1794
F1
s(Vliked
g17
tp1795
F4
s(Vsurround
g93
tp1796
F1
s(Vrun
g36
tp1797
F1
s(Vspeaks
g12
tp1798
F1
s(g905
S':'
tp1799
F3
s(Vseen
S'VBN'
p1800
tp1801
F12
s(Vsmirked
g17
tp1802
F1
s(Vruff
g19
tp1803
F1
s(Vcrest
g182
tp1804
F1
s(Vkeeps
g32
tp1805
F1
s(Vmaidenhood
g19
tp1806
F2
s(Vsurprise
g19
tp1807
F1
s(Vskilfully
g34
tp1808
F1
s(Vcomfortably
g34
tp1809
F3
s(Vguilty
S'JJ'
p1810
tp1811
F1
s(g32
g12
tp1812
F5
s(Vcoming
g52
tp1813
F16
s(g182
g143
tp1814
F1
s(Vcharacterize
g36
tp1815
F1
s(Vusages
g12
tp1816
F1
s(V-deliberately
g34
tp1817
F1
s(Vinside
g19
tp1818
F1
s(Velse
g34
tp1819
F11
s(Vshore
g19
tp1820
F1
s(VVerynees
g6
tp1821
F1
s(Vquite
g34
tp1822
F38
s(Vmasters
g12
tp1823
F3
s(Vpatron
g19
tp1824
F1
s(g290
g476
tp1825
F1
s(g8
g276
tp1826
F109
s(Vrefuses
g12
tp1827
F1
s(Vutmost
g8
tp1828
F1
s(Vconvinced
g23
tp1829
F1
s(Vsmiling
g19
tp1830
F2
s(Vintelligence
g19
tp1831
F3
s(Vpolished
g17
tp1832
F1
s(VLuxembourg
g6
tp1833
F1
s(VGood
g8
tp1834
F11
s(Vassist
g93
tp1835
F1
s(Virony
g19
tp1836
F1
s(Vlinguists
g12
tp1837
F1
s(Vmiserably
g34
tp1838
F1
s(Vabsurdity
g19
tp1839
F2
s(Vdressing
g52
tp1840
F2
s(Vhomestead
g19
tp1841
F1
s(Vasking
g52
tp1842
F5
s(Vlaughing
g52
tp1843
F5
s(Vowns
S'VBZ'
p1844
tp1845
F1
s(Vbelow
g274
tp1846
F4
s(Vtrace
g36
tp1847
F1
s(g8
S':'
tp1848
F24
s(Vhandsomely
g34
tp1849
F1
s(Vrefine
g93
tp1850
F1
s(Vfatten
g93
tp1851
F1
s(Vecho
g19
tp1852
F1
s(Vcatches
g32
tp1853
F1
s(Vremark
g93
tp1854
F1
s(Vtaste
g19
tp1855
F12
s(g19
g19
tp1856
F196
s(Vreduced
g8
tp1857
F2
s(Vbelong
g93
tp1858
F1
s(Velaborately
g34
tp1859
F1
s(Vnaturally
g34
tp1860
F5
s(Vdecline
g36
tp1861
F2
s(Vun
g8
tp1862
F1
s(VDuplessis
g6
tp1863
F1
s(Vheirs
g12
tp1864
F2
s(Vfinds
g12
tp1865
F1
s(Vrefuse
g36
tp1866
F1
s(VHerald
g6
tp1867
F1
s(g112
S'NNS'
p1868
tp1869
F4
s(Vaux
g19
tp1870
F2
s(Vremoved
g23
tp1871
F1
s(g19
g374
tp1872
F1
s(Vwar
S'NN'
p1873
tp1874
F1
s(Vcapacity
S'NN'
p1875
tp1876
F1
s(Vupright
g17
tp1877
F1
s(Vride
g36
tp1878
F1
s(Vfeudal
g8
tp1879
F2
s(Vmischievously
g34
tp1880
F1
s(VHouri
g6
tp1881
F1
s(g12
g474
tp1882
F1
s(Vfun
g19
tp1883
F3
s(Vdistinguishes
g32
tp1884
F1
s(Vvigorous
g8
tp1885
F2
s(Vparvenus.
g19
tp1886
F1
s(g907
g182
tp1887
F1
s(Vcolor
g19
tp1888
F3
s(Vconsiderate
g19
tp1889
F1
s(g143
g167
tp1890
F48
s(Vmistakes
g12
tp1891
F1
s(VLaura
g6
tp1892
F4
s(Vmany
S'JJ'
p1893
tp1894
F23
s(VPot.
g6
tp1895
F4
s(Vsuch
g8
tp1896
F70
s(Vsit
g93
tp1897
F5
s(VDo
g93
tp1898
F12
s(Vquestionable
g8
tp1899
F1
s(VThrough
g274
tp1900
F1
s(Vgrowl
g19
tp1901
F1
s(Vunderstood
g17
tp1902
F1
s(Vlatter
g19
tp1903
F2
s(Vwear
g93
tp1904
F6
s(V`Well
g19
tp1905
F1
s(Varrival
g19
tp1906
F1
s(Vparticular
g19
tp1907
F1
s(Vconsuming
g52
tp1908
F1
s(Vlend
g93
tp1909
F1
s(VFi
g19
tp1910
F1
s(g84
g112
tp1911
F26
s(Vnobleman
g19
tp1912
F2
s(Vcapable
g8
tp1913
F1
s(Vheaven
g19
tp1914
F6
s(Vmarry
g93
tp1915
F8
s(Vattired
g17
tp1916
F1
s(Verect
g8
tp1917
F1
s(Vmilk
g19
tp1918
F4
s(Vpantaloons
g12
tp1919
F1
s(VGermany
S'NNP'
p1920
tp1921
F2
s(Vsmile
g36
tp1922
F2
s(Vrevoir
g19
tp1923
F2
s(VKruz
g6
tp1924
F1
s(Vbenefit
g19
tp1925
F1
s(Vwan
g19
tp1926
F1
s(g1677
g905
tp1927
F1
s(Vfail
g36
tp1928
F2
s(Veasily
S'RB'
p1929
tp1930
F3
s(Virrespective
g19
tp1931
F1
s(Vdenouncing
g52
tp1932
F1
s(Vpearls
g12
tp1933
F1
s(Vhistorically
g34
tp1934
F1
s(Vmuddled
g23
tp1935
F1
s(Vthousand
g8
tp1936
F1
s(Vbetter
g63
tp1937
F14
s(g19
g625
tp1938
F25
s(Vcurtains
g12
tp1939
F5
s(Vexpected
g17
tp1940
F1
s(Vbook-case
g19
tp1941
F1
s(Vestimable
g8
tp1942
F3
s(Vindicate
g93
tp1943
F1
s(S':'
g17
tp1944
F12
s(Vmeeting-house
g19
tp1945
F1
s(Vhope
g19
tp1946
F5
s(VRoom
g6
tp1947
F1
s(Vexamples
g12
tp1948
F1
s(Vstreets
g12
tp1949
F3
s(Vspirituel
g8
tp1950
F1
s(V`Sir
g19
tp1951
F2
s(VMajor
g6
tp1952
F2
s(Vstraight
g19
tp1953
F1
s(Vrainbows
g12
tp1954
F1
s(Vprospect
g19
tp1955
F1
s(Vindignant
g8
tp1956
F4
s(Vwretched
g8
tp1957
F1
s(g227
g8
tp1958
F1
s(Vtacitly
g34
tp1959
F1
s(Vtriumph
g19
tp1960
F2
s(Vnext
g8
tp1961
F17
s(Vece
g19
tp1962
F1
s(g36
g12
tp1963
F22
s(Vmortal
g8
tp1964
F2
s(Vpry
g93
tp1965
F1
s(VCourt
S'NNP'
p1966
tp1967
F2
s(Vfatal
g8
tp1968
F3
s(V-Rome
g36
tp1969
F1
s(VQuite
g34
tp1970
F1
s(Vcosmorama
g19
tp1971
F1
s(Vdebauch
g8
tp1972
F1
s(Vmarble
g8
tp1973
F2
s(g27
S','
tp1974
F6
s(V-whether
g274
tp1975
F2
s(Vinterprets
g32
tp1976
F1
s(Vfancy
g8
tp1977
F3
s(VSuppose
g6
tp1978
F2
s(g12
g8
tp1979
F9
s(Vsupervise
g93
tp1980
F1
s(Vsuppose
g36
tp1981
F21
s(Vheavenly
g8
tp1982
F1
s(Vcomes
S'VBZ'
p1983
tp1984
F7
s(g535
g23
tp1985
F8
s(Vpreserved
g23
tp1986
F1
s(Vhodful
g19
tp1987
F1
s(Vdisengaged
g23
tp1988
F1
s(Ventered
g17
tp1989
F5
s(VNot
S'RB'
p1990
tp1991
F5
s(Vcircle
g19
tp1992
F4
s(S':'
g93
tp1993
F25
s(Vfrost
g19
tp1994
F1
s(Vblue
g8
tp1995
F5
s(Vrecruit
g93
tp1996
F1
s(Vpeers
g12
tp1997
F1
s(VArcadia
g6
tp1998
F2
s(Vsome
S'DT'
p1999
tp2000
F59
s(Vrough
g8
tp2001
F1
s(g17
S'('
tp2002
F1
s(Vavoiding
g52
tp2003
F1
s(Vproportions
g12
tp2004
F1
s(Vconfounded
g23
tp2005
F1
s(Vfanning
g19
tp2006
F1
s(Vbest-looking
g8
tp2007
F1
s(VVenus
g6
tp2008
F3
s(g63
g12
tp2009
F9
s(Velderly
g8
tp2010
F3
s(Vcalled
g17
tp2011
F8
s(VSo
g34
tp2012
F17
s(Vartist
g19
tp2013
F1
s(Vbuilt
g36
tp2014
F1
s(g34
g36
tp2015
F55
s(VFather
g6
tp2016
F2
s(Vstrewn
g19
tp2017
F1
s(g93
g129
tp2018
F16
s(Vcoachmen
g12
tp2019
F4
s(Vexplained
g17
tp2020
F1
s(g209
g143
tp2021
F7
s(Vconspicuous
g8
tp2022
F1
s(Vhorn
g19
tp2023
F1
s(Vstand
g19
tp2024
F3
s(Vbouquet
g19
tp2025
F7
s(Vbrethren
g12
tp2026
F2
s(Vtells
g12
tp2027
F2
s(Vhonesty
g19
tp2028
F2
s(Vdancing
g19
tp2029
F5
s(Vposition
S'NN'
p2030
tp2031
F6
s(Vmatches
g12
tp2032
F1
s(g32
g769
tp2033
F38
s(VTaste
g19
tp2034
F1
s(Vsmeared
g8
tp2035
F1
s(Vfurl
g36
tp2036
F1
s(Vlimits
g12
tp2037
F1
s(Vpump
g19
tp2038
F1
s(Vcharge
g19
tp2039
F4
s(Vfancy
g93
tp2040
F2
s(Vamuse
g93
tp2041
F1
s(VHail
g6
tp2042
F1
s(VAh
g74
tp2043
F3
s(Vconsult
g93
tp2044
F1
s(Vtold
g23
tp2045
F4
s(Vpassengers
g12
tp2046
F1
s(Vcapital
g19
tp2047
F3
s(Vobedient
g19
tp2048
F1
s(g32
g8
tp2049
F93
s(Vbreath
g19
tp2050
F1
s(Vwaltz
g93
tp2051
F2
s(Vlearn
g93
tp2052
F3
s(Vproduce
g93
tp2053
F1
s(Vsixty
g8
tp2054
F1
s(Vcommunications
g12
tp2055
F1
s(Vmentioned
g17
tp2056
F2
s(S','
g159
tp2057
F2
s(VFROM
g274
tp2058
F2
s(Vorganized
g23
tp2059
F1
s(Vfostered
g23
tp2060
F1
s(Vforgets
g32
tp2061
F1
s(Vpreachers
g12
tp2062
F1
s(Vdreadful
g8
tp2063
F1
s(Vball
g19
tp2064
F24
s(Vhabit
g19
tp2065
F2
s(Vporters
g12
tp2066
F1
s(Vof
g84
tp2067
F1113
s(Vlookout
g19
tp2068
F1
s(Vlet
g36
tp2069
F1
s(Vuseless
g19
tp2070
F1
s(Vimmortalize
g93
tp2071
F1
s(Vleisure
g19
tp2072
F1
s(Vduring
S'IN'
p2073
tp2074
F6
s(Vstood
g17
tp2075
F10
s(Vround
g17
tp2076
F3
s(Voak
g19
tp2077
F1
s(Vgifts
g12
tp2078
F1
s(Vrevenge
g19
tp2079
F1
s(VFourth
g6
tp2080
F1
s(Vdrunken
g8
tp2081
F1
s(VDistrict
g6
tp2082
F2
s(Vcommands
g32
tp2083
F1
s(Vconversed
g17
tp2084
F1
s(Voppress
g19
tp2085
F1
s(Vgong
g8
tp2086
F1
s(Vdingy
g8
tp2087
F1
s(Vacid
g19
tp2088
F1
s(Vnumero
g8
tp2089
F1
s(VPshaw
g19
tp2090
F1
s(Vpockets
g12
tp2091
F2
s(V-who
g19
tp2092
F2
s(Vused
g23
tp2093
F7
s(Vpurple
g8
tp2094
F4
s(Vstern
g8
tp2095
F4
s(Vintimacies
g12
tp2096
F1
s(Vsolution
g19
tp2097
F1
s(Vchary
g19
tp2098
F1
s(Vparted
g8
tp2099
F1
s(Vgo
g93
tp2100
F48
s(Vmuch
g34
tp2101
F23
s(Vrebuked
g23
tp2102
F1
s(Vfreeze
g36
tp2103
F1
s(Vtomb
g19
tp2104
F1
s(Vtwisting
g52
tp2105
F1
s(Vdaughters
g12
tp2106
F5
s(Valighted
g17
tp2107
F1
s(V`noble
g8
tp2108
F1
s(Vdid
S'VBD'
p2109
tp2110
F66
s(Vcried
g8
tp2111
F1
s(Vsaid
S'VBD'
p2112
tp2113
F254
s(Vforbidden
g8
tp2114
F1
s(g227
S'CC'
p2115
tp2116
F1
s(Vmine
g561
tp2117
F1
s(Vbeautiful
g8
tp2118
F19
s(Vbarren
g19
tp2119
F1
s(Vy
g32
tp2120
F1
s(Varrived
g17
tp2121
F3
s(Vnoisy
g23
tp2122
F1
s(Vspectacle
g19
tp2123
F6
s(Vaccorded
g17
tp2124
F1
s(Vblushing
g52
tp2125
F1
s(Vyet
g989
tp2126
F2
s(S'CC'
p2127
g74
tp2128
F2
s(V`best
g182
tp2129
F1
s(Vnoisy
g8
tp2130
F1
s(Vardently
g34
tp2131
F1
s(Vsir
g19
tp2132
F10
s(Vprevents
g32
tp2133
F2
s(Vresidences
g12
tp2134
F1
s(Vsymptom
g19
tp2135
F1
s(Vblackest
g182
tp2136
F1
s(V-for
g8
tp2137
F2
s(Vcenter
g19
tp2138
F2
s(VBoggs
g6
tp2139
F1
s(V-before
g274
tp2140
F1
s(Vdesks
g12
tp2141
F1
s(V-Saratoga
g19
tp2142
F1
s(VHer
g27
tp2143
F1
s(Vdestinies
g12
tp2144
F1
s(Vuseful
g8
tp2145
F4
s(S':'
g34
tp2146
F26
s(Vtell
g36
tp2147
F7
s(Vprofound
g19
tp2148
F2
s(Vtie
g19
tp2149
F3
s(VHad
g6
tp2150
F1
s(Vpoisoned
g23
tp2151
F1
s(Vprocure
g19
tp2152
F1
s(Vsheep
g19
tp2153
F4
s(Vpermanent
g8
tp2154
F2
s(VDuke
g6
tp2155
F2
s(Vdreary
g8
tp2156
F2
s(Vperishing
g19
tp2157
F1
s(Vverify
g93
tp2158
F1
s(Vhardly
g34
tp2159
F9
s(Vtropical
g8
tp2160
F1
s(Vwicked
g8
tp2161
F2
s(Vif
g622
tp2162
F163
s(VNicolas
g6
tp2163
F1
s(g167
g23
tp2164
F11
s(Vshoals
g12
tp2165
F1
s(Vobserve
g93
tp2166
F4
s(g412
g476
tp2167
F15
s(Vbroader
g63
tp2168
F1
s(Vhelp
g93
tp2169
F8
s(Vtoo-closely
g8
tp2170
F1
s(V-I
g36
tp2171
F2
s(Vseverest
g182
tp2172
F1
s(Vdespairingly
g34
tp2173
F1
s(VBy-the-bye
g6
tp2174
F2
s(Voriginally
g34
tp2175
F1
s(Voccur
g36
tp2176
F1
s(Valong
g274
tp2177
F2
s(Vfellow
g8
tp2178
F1
s(Vspirited
g8
tp2179
F1
s(Vstandard
g19
tp2180
F1
s(Vunworthy
g8
tp2181
F1
s(Vhoist
g36
tp2182
F1
s(Vearning
g52
tp2183
F2
s(Vstroke
g19
tp2184
F1
s(V`see
g36
tp2185
F1
s(Vgrief
g19
tp2186
F1
s(Vwishes
g12
tp2187
F2
s(g112
g797
tp2188
F7
s(Vapron-strings
g12
tp2189
F1
s(Vsolemnity
g19
tp2190
F1
s(Vmunificent
g8
tp2191
F1
s(Vking
g52
tp2192
F1
s(Vgrasped
g23
tp2193
F1
s(g209
g341
tp2194
F2
s(Vcharitable
g8
tp2195
F1
s(S'('
g52
tp2196
F1
s(VSara
g6
tp2197
F1
s(Vbuttons
g12
tp2198
F3
s(Vugly
g34
tp2199
F2
s(VMoresco
g6
tp2200
F1
s(Vinadvertently
g34
tp2201
F1
s(Vtureen
g19
tp2202
F1
s(Vpractice
S'NN'
p2203
tp2204
F1
s(Vconfessed
g17
tp2205
F1
s(Vstraight
g34
tp2206
F5
s(Vinstance
S'NN'
p2207
tp2208
F6
s(Vhelp
g19
tp2209
F1
s(V'Our
g905
tp2210
F1
s(Vgoblet
g19
tp2211
F1
s(Vho
g8
tp2212
F1
s(Vtrepidation
g19
tp2213
F1
s(g907
g63
tp2214
F1
s(Vcall
g19
tp2215
F1
s(Vpreached
g23
tp2216
F2
s(Vbreast
g19
tp2217
F1
s(Vill
g34
tp2218
F1
s(Vstrengthening
g52
tp2219
F1
s(Vaddressing
g52
tp2220
F1
s(Vuse
g19
tp2221
F10
s(Vceased
g17
tp2222
F1
s(Vtremendous
g8
tp2223
F4
s(Vcalls
g32
tp2224
F7
s(Vskulk
g19
tp2225
F1
s(VCuba
g6
tp2226
F1
s(VAmerica
S'NNP'
p2227
tp2228
F8
s(Vdollars
S'NNS'
p2229
tp2230
F6
s(VDear
g6
tp2231
F11
s(Vkeyhole
g8
tp2232
F1
s(Vsires
g12
tp2233
F1
s(Vleaned
g17
tp2234
F1
s(VFirst
g34
tp2235
F1
s(Vflowed
g23
tp2236
F1
s(Vconstruction
S'NN'
p2237
tp2238
F1
s(Vtalks
g12
tp2239
F3
s(VHotel
g6
tp2240
F2
s(VWall
S'NNP'
p2241
tp2242
F2
s(Vwalnut
g19
tp2243
F4
s(Vlong-vanished
g8
tp2244
F1
s(VWell
g34
tp2245
F26
s(Vtiresome
g8
tp2246
F1
s(Vcandidate
g19
tp2247
F1
s(Vnowhere
g34
tp2248
F1
s(Vcandidly
g34
tp2249
F1
s(Vdamask
g19
tp2250
F1
s(Vmeasured
g8
tp2251
F1
s(Vaccomplished
g8
tp2252
F4
s(Vawake
g19
tp2253
F1
s(g81
g36
tp2254
F8
s(g52
S','
tp2255
F35
s(Vground
g19
tp2256
F3
s(VDaisy
g6
tp2257
F22
s(Vdust
g19
tp2258
F1
s(Vportraiture
g19
tp2259
F2
s(VCertainly
g34
tp2260
F8
s(Vr
g8
tp2261
F1
s(g93
g194
tp2262
F84
s(Vwell-developed
g8
tp2263
F1
s(Vwaistcoat
g19
tp2264
F7
s(Vtrowsers
g12
tp2265
F5
s(Vsick
g8
tp2266
F2
s(VBuckingham
g6
tp2267
F1
s(Vbeheld
g23
tp2268
F1
s(VLetter
g19
tp2269
F1
s(Vimpending
g52
tp2270
F1
s(Vascribed
g23
tp2271
F1
s(Vresemblance
g19
tp2272
F1
s(Vcurrently
S'RB'
p2273
tp2274
F1
s(Vcast
g19
tp2275
F1
s(g17
S':'
tp2276
F33
s(Vrejected
g17
tp2277
F1
s(Vsubside
g19
tp2278
F1
s(Vobjet
g19
tp2279
F1
s(Vreputed
g23
tp2280
F1
s(Vstate-room
g8
tp2281
F1
s(Vaddressed
g23
tp2282
F2
s(Vhomily
g19
tp2283
F1
s(g167
S':'
tp2284
F8
s(Vsatire
g23
tp2285
F2
s(Vcertainty
g19
tp2286
F1
s(Vconfound
g93
tp2287
F1
s(Vhollow
g19
tp2288
F3
s(g17
g143
tp2289
F6
s(Vmisanthropy
g19
tp2290
F1
s(Vadmitted
g23
tp2291
F2
s(Vtroubled
g23
tp2292
F2
s(Vmanners
g12
tp2293
F8
s(Vdeserves
g32
tp2294
F1
s(g36
g6
tp2295
F22
s(Vsensible
g8
tp2296
F5
s(V-for
g93
tp2297
F1
s(S'('
g502
tp2298
F1
s(Vwe
g841
tp2299
F209
s(g6
S'.'
tp2300
F319
s(VIV
g6
tp2301
F1
s(Vtill
g34
tp2302
F1
s(g476
g128
tp2303
F1
s(Vstands
g12
tp2304
F1
s(VYoung
g6
tp2305
F7
s(Vmodes
g12
tp2306
F1
s(Vyoung
S'JJ'
p2307
tp2308
F68
s(Vreflect
g19
tp2309
F1
s(Venjoys
g19
tp2310
F1
s(Vred
g8
tp2311
F8
s(Vsincerely
g34
tp2312
F2
s(Vdetermined
g17
tp2313
F3
s(Vcreature
g19
tp2314
F1
s(Valready
S'RB'
p2315
tp2316
F10
s(Vstrenuously
g34
tp2317
F1
s(g12
g194
tp2318
F2
s(Vseat
g19
tp2319
F3
s(Vbarbarous
g8
tp2320
F1
s(Vparlors
g12
tp2321
F1
s(Vboreal
g8
tp2322
F1
s(Vsupplanted
g23
tp2323
F1
s(Vsettle
g36
tp2324
F1
s(Vboarding-school
g8
tp2325
F1
s(Vtherefore
g34
tp2326
F5
s(Vsomewhere
g34
tp2327
F3
s(Vvariety
g19
tp2328
F3
s(Vdepicts
g32
tp2329
F1
s(Vastute
g8
tp2330
F1
s(Vamassing
g52
tp2331
F1
s(Vshaves
g32
tp2332
F1
s(Vapartment
g19
tp2333
F1
s(Vplea
g19
tp2334
F1
s(VCream
g6
tp2335
F16
s(Vspots
g12
tp2336
F1
s(Vdiplomat
g19
tp2337
F1
s(Vsay
g93
tp2338
F44
s(Vciel
g19
tp2339
F1
s(Vsparkling
g19
tp2340
F1
s(V-brought
g17
tp2341
F1
s(Vdisgust
g19
tp2342
F1
s(VHe
S'PRP'
p2343
tp2344
F69
s(Vpays
g32
tp2345
F1
s(Vvolume
S'NN'
p2346
tp2347
F1
s(Vprestige
g19
tp2348
F1
s(g12
S'PRP'
p2349
tp2350
F24
s(Vgenerations
g12
tp2351
F1
s(V-an
g8
tp2352
F1
s(Vnewest
g182
tp2353
F1
s(Vwarmly
g34
tp2354
F1
s(Vpunches
g12
tp2355
F1
s(Vtogether
g34
tp2356
F6
s(Vtable
g8
tp2357
F2
s(Vhorses
g12
tp2358
F7
s(VCompany
g6
tp2359
F1
s(VLefevre
g6
tp2360
F2
s(Vautumn
g19
tp2361
F2
s(Vjewelry
g19
tp2362
F2
s(Vpossessions
g12
tp2363
F1
s(g476
g90
tp2364
F1
s(Vforms
g12
tp2365
F2
s(Vsaw
g17
tp2366
F38
s(VBye-bye
g6
tp2367
F1
s(Vbuys
g32
tp2368
F3
s(Vcheaper
g63
tp2369
F1
s(Vwit
g19
tp2370
F6
s(Vpardon
g19
tp2371
F3
s(V`the
g8
tp2372
F2
s(Vaccosts
g32
tp2373
F1
s(Vinfidelity
g19
tp2374
F1
s(Vsucceeded
g17
tp2375
F1
s(Vbecoming
S'VBG'
p2376
tp2377
F4
s(VPerhaps
S'RB'
p2378
tp2379
F4
s(VBelow
g274
tp2380
F1
s(Vinterrupted
g17
tp2381
F2
s(Vburied
g23
tp2382
F1
s(Vdo
g93
tp2383
F47
s(Vbled
g23
tp2384
F1
s(g8
g905
tp2385
F4
s(Vsternly
g34
tp2386
F1
s(Vmental
g8
tp2387
F1
s(Vfine-spun
g8
tp2388
F1
s(Vprate
g93
tp2389
F1
s(VAbove
g274
tp2390
F1
s(Vhouses
S'NNS'
p2391
tp2392
F10
s(Vcommon
S'JJ'
p2393
tp2394
F3
s(Vbinding
g19
tp2395
F1
s(Vnuga
g8
tp2396
F1
s(Vshutters
g12
tp2397
F1
s(VNOW
g6
tp2398
F1
s(Vpattern
g19
tp2399
F2
s(Vgarbled
g8
tp2400
F1
s(Vmerry-go-round
g19
tp2401
F1
s(Vwhole
g19
tp2402
F1
s(Vassigns
g32
tp2403
F1
s(Vaccede
g36
tp2404
F1
s(Vreverence
g19
tp2405
F2
s(Vdisplays
g12
tp2406
F1
s(Vthine
g19
tp2407
F1
s(Vwish
g93
tp2408
F3
s(Vpiece
g19
tp2409
F1
s(Vscarcely
g34
tp2410
F3
s(VMr.
S'NNP'
p2411
tp2412
F186
s(VTouched
g23
tp2413
F1
s(Vdecidedly
g34
tp2414
F3
s(Vdresses
g12
tp2415
F10
s(Vdisplayed
g23
tp2416
F1
s(S'NN'
p2417
g327
tp2418
F9
s(Vher
g19
tp2419
F1
s(VDavid
S'NNP'
p2420
tp2421
F1
s(Vhard
g8
tp2422
F9
s(Vpropose
g36
tp2423
F1
s(Vcoronation
g19
tp2424
F1
s(g129
g234
tp2425
F16
s(Vsentimentality
g19
tp2426
F1
s(Vfamiliar
S'JJ'
p2427
tp2428
F3
s(Vswallowed
g23
tp2429
F1
s(Va-rolling
g19
tp2430
F1
s(Vtipped
g17
tp2431
F1
s(g19
g8
tp2432
F35
s(g1612
g112
tp2433
F9
s(Vinvolve
g36
tp2434
F1
s(VNormandle
g6
tp2435
F1
s(Vagreeable
g8
tp2436
F8
s(Vunlocked
g8
tp2437
F1
s(Vown
g8
tp2438
F37
s(Vgrateful
g8
tp2439
F1
s(Vwall
g8
tp2440
F1
s(g274
g274
tp2441
F144
s(S'NNS'
p2442
g128
tp2443
F94
s(Vora
g8
tp2444
F1
s(Vwishing
g52
tp2445
F2
s(Vaddicted
g23
tp2446
F1
s(Vsweetly
g34
tp2447
F3
s(Vne
g34
tp2448
F2
s(Vperforms
g32
tp2449
F1
s(VNova
g6
tp2450
F1
s(Vspeak
g36
tp2451
F2
s(Vsmoke
g19
tp2452
F1
s(Vestimation
g19
tp2453
F2
s(VAmerican
g6
tp2454
F7
s(Vpersuade
g93
tp2455
F1
s(Vcatalogue
g19
tp2456
F2
s(Vcrowd.
g19
tp2457
F1
s(Vastonished
g8
tp2458
F1
s(Vchiffonier
g19
tp2459
F1
s(Voffer
g93
tp2460
F3
s(Vdown
g474
tp2461
F18
s(Vtrumped
g23
tp2462
F1
s(g209
g128
tp2463
F38
s(Vdrew
g17
tp2464
F4
s(Vhurry
g17
tp2465
F1
s(Vevince
g19
tp2466
F1
s(Vbrittle
g8
tp2467
F1
s(Vpooh
g19
tp2468
F2
s(Vtable
g19
tp2469
F16
s(Vsuppressed
g8
tp2470
F1
s(Vvulgar
g8
tp2471
F3
s(g63
g276
tp2472
F2
s(Vfingers
g12
tp2473
F1
s(VThink
g93
tp2474
F1
s(Vbataille
g227
tp2475
F1
s(Vneighbor
g19
tp2476
F4
s(Vknown
g8
tp2477
F1
s(Vslept
g23
tp2478
F1
s(Vapplicable
g8
tp2479
F1
s(Vkept
g17
tp2480
F3
s(S','
g27
tp2481
F52
s(Vdeal
g19
tp2482
F16
s(g19
g24
tp2483
F2
s(Vsew
g93
tp2484
F1
s(Vmoths
g12
tp2485
F1
s(Vecollete
g8
tp2486
F2
s(Vsacrifice
g93
tp2487
F1
s(Vfootfalls
g12
tp2488
F1
s(VEh
g6
tp2489
F1
s(Vhour
S'NN'
p2490
tp2491
F2
s(g841
g93
tp2492
F111
s(Vmantle
g19
tp2493
F1
s(Vriver
g19
tp2494
F1
s(Vundertake
g36
tp2495
F1
s(Veratrice
g19
tp2496
F1
s(Vfairer
g23
tp2497
F1
s(Vlight
g19
tp2498
F3
s(Vawkward
g19
tp2499
F1
s(Vfather
g19
tp2500
F15
s(Vgestures
g12
tp2501
F1
s(Vhomeward
g34
tp2502
F1
s(Vcrusade
g19
tp2503
F1
s(VAmericanism
g19
tp2504
F1
s(Vplace
g93
tp2505
F1
s(V-in
g93
tp2506
F1
s(Vpiazzas
g19
tp2507
F1
s(Veres
g32
tp2508
F1
s(g374
g502
tp2509
F1
s(Vdetect
g93
tp2510
F2
s(Vlanguages
g12
tp2511
F1
s(Vcymbalize
g93
tp2512
F1
s(Vpatient
g8
tp2513
F1
s(Vtwenty
g19
tp2514
F2
s(Vthink
g19
tp2515
F2
s(VChambertin
g6
tp2516
F1
s(VFrench
g6
tp2517
F3
s(Vdiscover
g19
tp2518
F1
s(VWell
g6
tp2519
F4
s(Vsmashed
g23
tp2520
F1
s(Vfrenzied
g8
tp2521
F1
s(Vemotions
g12
tp2522
F3
s(Vinestimable
g8
tp2523
F1
s(Vking
g19
tp2524
F3
s(Vdaybreak
g19
tp2525
F1
s(VBoston
S'NNP'
p2526
tp2527
F1
s(Vexcess
g19
tp2528
F1
s(Vbeauties
g12
tp2529
F1
s(VThen
S'RB'
p2530
tp2531
F16
s(Vcontact
g19
tp2532
F1
s(Vsus
g19
tp2533
F2
s(Vfancy
g19
tp2534
F1
s(Vdevote
g36
tp2535
F2
s(Vemulators
g12
tp2536
F1
s(Vten
g8
tp2537
F2
s(Vmire
g19
tp2538
F1
s(Vcascades
g12
tp2539
F1
s(Vreplacing
g52
tp2540
F1
s(Vfit
g19
tp2541
F2
s(Vdemanded
g17
tp2542
F2
s(Vmind
g19
tp2543
F8
s(Vmeans
g32
tp2544
F4
s(Vdramatis
g19
tp2545
F1
s(Vthank
g93
tp2546
F1
s(Vexclusively
g34
tp2547
F1
s(Vround
g19
tp2548
F10
s(g570
g12
tp2549
F4
s(Vconfident
g19
tp2550
F1
s(Vshirt-bosom
g19
tp2551
F3
s(Vpin
g19
tp2552
F1
s(Vfeet
S'NNS'
p2553
tp2554
F8
s(Vpretty
g8
tp2555
F10
s(Vwise
g8
tp2556
F1
s(VDecidedly
g6
tp2557
F1
s(Vcarefully
g34
tp2558
F3
s(Vtr
g8
tp2559
F1
s(Vtune
g19
tp2560
F1
s(g128
g159
tp2561
F2
s(Vtake
g93
tp2562
F16
s(Vfriends
g12
tp2563
F21
s(g23
S':'
tp2564
F16
s(Vweek
S'NN'
p2565
tp2566
F9
s(Vpleasure-seekers
g12
tp2567
F1
s(S'NNS'
p2568
g32
tp2569
F9
s(VFarnesian
g8
tp2570
F1
s(VTuileries
g6
tp2571
F1
s(Vdebase
g19
tp2572
F1
s(Vbase
g19
tp2573
F1
s(VHoly
g6
tp2574
F1
s(Vthings
S'NNS'
p2575
tp2576
F62
s(Vshipwrecked
g23
tp2577
F1
s(S')'
g36
tp2578
F3
s(Vlion
g19
tp2579
F1
s(Vplate
g19
tp2580
F1
s(g32
g758
tp2581
F80
s(Vtangible
g8
tp2582
F1
s(Vees
g12
tp2583
F1
s(Vdrown
g34
tp2584
F1
s(Vwood
g19
tp2585
F3
s(Vpresented
g23
tp2586
F5
s(Vregiments
g12
tp2587
F1
s(Vself-conceit
g19
tp2588
F1
s(Vsecrets
g12
tp2589
F1
s(Vchasuble
g8
tp2590
F1
s(Vnieces
g12
tp2591
F1
s(Vfashionable
g8
tp2592
F7
s(VCaton
g6
tp2593
F1
s(Vprefer
g93
tp2594
F3
s(Vsmoothed
g17
tp2595
F1
s(Vgenius
g19
tp2596
F7
s(VTimbuctoo
g6
tp2597
F1
s(Vparent
g19
tp2598
F1
s(Vpainter
g19
tp2599
F2
s(Vchorus
g19
tp2600
F1
s(Vfinished
g23
tp2601
F2
s(VI
g1409
tp2602
F883
s(g23
g429
tp2603
F8
s(Vwince
g93
tp2604
F1
s(VSweet
g6
tp2605
F1
s(Vmentally
g34
tp2606
F1
s(Vdeceiver
g19
tp2607
F1
s(Vflirts
g12
tp2608
F1
s(Vdestruction
g19
tp2609
F1
s(Vindividuality
g19
tp2610
F1
s(Vjokes
g12
tp2611
F1
s(Vlonging
g52
tp2612
F2
s(Vwatching
g52
tp2613
F4
s(Vrebels
g12
tp2614
F1
s(Vblas
g8
tp2615
F2
s(Vtheatres
g12
tp2616
F1
s(Vetes
g12
tp2617
F1
s(S':'
g32
tp2618
F7
s(Vpermit
g93
tp2619
F3
s(g93
g81
tp2620
F2
s(Vhaggard
g34
tp2621
F1
s(Vrepresented
g23
tp2622
F1
s(Vbreakfast-room
g19
tp2623
F1
s(VDor
g6
tp2624
F1
s(Vcravats
g12
tp2625
F5
s(VUpon
g274
tp2626
F3
s(VSheena
g6
tp2627
F1
s(Vhave
g93
tp2628
F118
s(Vfurnished
g23
tp2629
F3
s(VSaint-Evremond
g19
tp2630
F1
s(Vconsolation
g19
tp2631
F1
s(Vcharming
g52
tp2632
F4
s(S','
g412
tp2633
F207
s(VPettitoes
g6
tp2634
F10
s(Vflaws
g12
tp2635
F1
s(g875
g19
tp2636
F9
s(Vfrances
g32
tp2637
F1
s(Vdansantes
g12
tp2638
F1
s(Vdrunk
g19
tp2639
F2
s(g23
g198
tp2640
F3
s(Vrash
g19
tp2641
F1
s(VPapa
g6
tp2642
F1
s(Veleven
g34
tp2643
F1
s(Vstop
g93
tp2644
F2
s(VOr
g989
tp2645
F2
s(Vdegree
g19
tp2646
F1
s(Vsets
g12
tp2647
F1
s(Vmeant
g36
tp2648
F10
s(g412
g327
tp2649
F7
s(Vagent
g19
tp2650
F2
s(VGarrick
g6
tp2651
F1
s(Vother
S'JJ'
p2652
tp2653
F44
s(VInn
g6
tp2654
F1
s(Vpeacock
g19
tp2655
F1
s(Vconduct
g19
tp2656
F2
s(Vcomplaining
g52
tp2657
F1
s(Vblack-legs
g8
tp2658
F1
s(Vgrudge
g19
tp2659
F1
s(Vright
g34
tp2660
F6
s(Vwitty
g8
tp2661
F5
s(VArthur
g6
tp2662
F1
s(Vfat
g8
tp2663
F3
s(Vembellishing
g52
tp2664
F1
s(VBowling
g6
tp2665
F3
s(Vcorrectly
g34
tp2666
F1
s(Ventendre
g19
tp2667
F1
s(Vunderstand
g93
tp2668
F18
s(Vgranted
g23
tp2669
F1
s(Vprepare
g93
tp2670
F1
s(Vhissed
g17
tp2671
F1
s(Vthoughtful
g8
tp2672
F2
s(Vsupport
g19
tp2673
F1
s(Vshould
S'MD'
p2674
tp2675
F91
s(VSunday
S'NNP'
p2676
tp2677
F4
s(Vpretences
g12
tp2678
F1
s(VBrown
S'NNP'
p2679
tp2680
F3
s(Vhalf-ashamed
g8
tp2681
F1
s(Volder
g63
tp2682
F2
s(Vplodding
g8
tp2683
F1
s(Vpounds
g12
tp2684
F1
s(Vmysterious
g8
tp2685
F1
s(Vnational
S'JJ'
p2686
tp2687
F1
s(Vpaste-buckled
g8
tp2688
F1
s(Vtinsel
g19
tp2689
F1
s(Vsteal
g93
tp2690
F1
s(Vheard
g8
tp2691
F1
s(Vstepped
g17
tp2692
F2
s(Vchastened
g23
tp2693
F1
s(Vtittering
g52
tp2694
F1
s(Vvictims
S'NNS'
p2695
tp2696
F1
s(Vswarm
g19
tp2697
F4
s(Vto-day
g19
tp2698
F2
s(Vfounder
S'NN'
p2699
tp2700
F1
s(Vmen
g2568
tp2701
F76
s(Vsounds
g12
tp2702
F1
s(Vnephews
g12
tp2703
F1
s(Vbeach
g19
tp2704
F2
s(Vineffectual
g8
tp2705
F1
s(Vplaying
g52
tp2706
F3
s(Vshorter
g63
tp2707
F1
s(g231
g319
tp2708
F27
s(Vpanted
g17
tp2709
F1
s(V47
g327
tp2710
F1
s(Vanxious
g8
tp2711
F5
s(g474
g274
tp2712
F36
s(Veye
S'NN'
p2713
tp2714
F5
s(Veither
g34
tp2715
F2
s(Vreceived
g23
tp2716
F2
s(VSteinberg
g6
tp2717
F1
s(Vdinner-table
g8
tp2718
F2
s(Vgrants
g32
tp2719
F1
s(Vleading
g52
tp2720
F1
s(Vcurls
g12
tp2721
F1
s(Vthundercloud
g19
tp2722
F1
s(Vvirtuously
g34
tp2723
F1
s(Vwiping
g52
tp2724
F3
s(VBrougham
g6
tp2725
F1
s(Vlaughingly
g34
tp2726
F1
s(Vcomplain
g93
tp2727
F2
s(VNapoleonic
g6
tp2728
F1
s(VCharming
g52
tp2729
F1
s(VLucy
g6
tp2730
F14
s(Vappear
g93
tp2731
F2
s(Vdied
g23
tp2732
F1
s(Virreligion
g19
tp2733
F1
s(Vsimply
S'RB'
p2734
tp2735
F3
s(Vkneels
g32
tp2736
F1
s(Vslow
g8
tp2737
F1
s(Vpiazza
g19
tp2738
F3
s(V'Pon
g905
tp2739
F1
s(Vbilliards
g12
tp2740
F1
s(VSkimmilk.
g6
tp2741
F1
s(Vdies
g12
tp2742
F1
s(Vnone
g34
tp2743
F1
s(g52
g8
tp2744
F26
s(Vpeople
S'NNS'
p2745
tp2746
F45
s(Vhold
g93
tp2747
F3
s(Vlack
g36
tp2748
F1
s(Vscallops
g12
tp2749
F1
s(Vspeaking
g19
tp2750
F2
s(g274
g625
tp2751
F1
s(Voffend
g36
tp2752
F1
s(Vquoting
g52
tp2753
F1
s(Vwasted
g17
tp2754
F1
s(Vheld
g17
tp2755
F3
s(Vrepose
g19
tp2756
F1
s(V-because
g19
tp2757
F1
s(Vfisherman
g19
tp2758
F1
s(Vsaved
g23
tp2759
F1
s(Vuniversal
g8
tp2760
F6
s(Vappearances
g12
tp2761
F3
s(Vpageant
g19
tp2762
F1
s(Vwealth
g19
tp2763
F6
s(g12
S')'
tp2764
F4
s(Vdazzling
g19
tp2765
F1
s(Vlength
g19
tp2766
F6
s(g52
g502
tp2767
F44
s(VWatering-places
g12
tp2768
F1
s(Vcare-worn
g8
tp2769
F1
s(Vtake
g36
tp2770
F5
s(Vdisplay
g19
tp2771
F5
s(Vcustard
g19
tp2772
F1
s(Vinstant
g19
tp2773
F1
s(VPercy
g6
tp2774
F1
s(Vhopes
g12
tp2775
F3
s(Vdismally
g34
tp2776
F1
s(V`Where
g24
tp2777
F1
s(Vdining
g52
tp2778
F2
s(Vmarch
g19
tp2779
F2
s(VTabby
g6
tp2780
F5
s(Vjoined
g17
tp2781
F1
s(Vchild
g19
tp2782
F5
s(Vnodding
g52
tp2783
F2
s(VBible
g8
tp2784
F1
s(Vlike
g93
tp2785
F16
s(g182
g32
tp2786
F1
s(S','
g2349
tp2787
F374
s(VCouture
g6
tp2788
F1
s(VYet
g989
tp2789
F3
s(Vexpect
g93
tp2790
F2
s(Vchurch-going
g19
tp2791
F1
s(Vyour
S'PRP$'
p2792
tp2793
F106
s(Vcommonplace
g19
tp2794
F1
s(VOnly
g34
tp2795
F2
s(VDiogenes
g12
tp2796
F2
s(g875
g198
tp2797
F1
s(Vfew
S'JJ'
p2798
tp2799
F26
s(Vperfection
g19
tp2800
F3
s(Vhumane
g19
tp2801
F1
s(Vassociated
g17
tp2802
F1
s(S','
g1777
tp2803
F166
s(Vbackwards
g12
tp2804
F1
s(Vpure
g19
tp2805
F4
s(g113
g34
tp2806
F237
s(Vchanged
g23
tp2807
F3
s(Vfervid
g34
tp2808
F1
s(VFlorine
g6
tp2809
F1
s(VPaste-Down
g8
tp2810
F1
s(Vpossessed
g23
tp2811
F1
s(Vsnap
g93
tp2812
F1
s(Vreasons
S'NNS'
p2813
tp2814
F1
s(Vbelts
g12
tp2815
F1
s(Vlaurel
g19
tp2816
F1
s(Videas
g12
tp2817
F3
s(Vsaunter
g93
tp2818
F1
s(VColumbia
S'NNP'
p2819
tp2820
F1
s(VBritish
g8
tp2821
F2
s(Vobliged
g23
tp2822
F7
s(VWhich
g8
tp2823
F1
s(g93
g24
tp2824
F1
s(Vmake
g36
tp2825
F7
s(Vunsuited
g17
tp2826
F1
s(Vcontinue
g93
tp2827
F2
s(Vgood-bye
g19
tp2828
F1
s(Vperceive
g8
tp2829
F1
s(VPETTITOES
g6
tp2830
F2
s(VPity
g6
tp2831
F1
s(VChinese
g6
tp2832
F1
s(Vfolding
g52
tp2833
F2
s(Vtact
g19
tp2834
F1
s(Vno
g34
tp2835
F3
s(V`dear
g8
tp2836
F1
s(Vstretched
g23
tp2837
F1
s(V`What
g34
tp2838
F1
s(Vpoursuivit
g19
tp2839
F1
s(VSiren
g6
tp2840
F1
s(Vviolently
g34
tp2841
F1
s(Vmoustache
g19
tp2842
F3
s(VFuture
g6
tp2843
F2
s(Vbuy
g93
tp2844
F6
s(VImage
g19
tp2845
F2
s(VIs
g32
tp2846
F15
s(Vrepresent
g36
tp2847
F1
s(Vtemporary
S'JJ'
p2848
tp2849
F1
s(Vgilt
g8
tp2850
F4
s(Vnobody
g19
tp2851
F4
s(V97
g327
tp2852
F1
s(Vswear
g93
tp2853
F2
s(Vmoney
S'NN'
p2854
tp2855
F16
s(Vlistless
g36
tp2856
F1
s(VGrisettes
g6
tp2857
F1
s(Venemy
g19
tp2858
F1
s(Vmonsieur
g19
tp2859
F1
s(Vcollected
g23
tp2860
F1
s(Vregrets
g12
tp2861
F1
s(Vprepared
g23
tp2862
F1
s(Vbars
g12
tp2863
F1
s(Vinadequate
g8
tp2864
F1
s(Vreply
g36
tp2865
F1
s(Vbye
g19
tp2866
F1
s(Vresigned
g23
tp2867
F2
s(S','
g17
tp2868
F56
s(V`tu
g6
tp2869
F1
s(Vexalt
g19
tp2870
F1
s(VMr
g6
tp2871
F24
s(Vbring
g93
tp2872
F1
s(Vanswered
g23
tp2873
F2
s(Vcrest
g19
tp2874
F4
s(Vpas
g8
tp2875
F1
s(Vmake
g19
tp2876
F1
s(g625
S':'
tp2877
F18
s(Vjewel
g19
tp2878
F1
s(Vmissal
g19
tp2879
F1
s(Vcoiffures
g12
tp2880
F1
s(VFrederic
g8
tp2881
F1
s(Vanonymously
g34
tp2882
F1
s(Vgood-humor
g19
tp2883
F2
s(Vwith
g681
tp2884
F286
s(Vthither
g561
tp2885
F1
s(Vharden
g93
tp2886
F1
s(Vnew-fangled
g8
tp2887
F1
s(Vgenuine
g8
tp2888
F4
s(Vhuman
g19
tp2889
F1
s(Vdead
g8
tp2890
F2
s(VProcrustes-bed
g6
tp2891
F1
s(Vvexation
g19
tp2892
F2
s(Vhow
g570
tp2893
F67
s(Vworship
g19
tp2894
F1
s(VDOWNE
g6
tp2895
F1
s(Vlawn
g19
tp2896
F1
s(g93
S'('
tp2897
F2
s(Vwhispered
g17
tp2898
F8
s(Vspirituel
g34
tp2899
F1
s(Vforty
g19
tp2900
F1
s(Vconvenience
g19
tp2901
F1
s(Vran
g17
tp2902
F3
s(Vglasses
g12
tp2903
F3
s(Vperhaps
S'RB'
p2904
tp2905
F12
s(g36
g276
tp2906
F62
s(Vinsensible
g8
tp2907
F1
s(Vassociate
g36
tp2908
F1
s(Vunderstanding
g52
tp2909
F1
s(Vluxuriate
g19
tp2910
F1
s(Vamazed
g23
tp2911
F1
s(Vbitterly
g34
tp2912
F1
s(S'VBG'
p2913
g474
tp2914
F22
s(Vlike
g8
tp2915
F1
s(Vflat
g8
tp2916
F2
s(Vescritoire
g19
tp2917
F2
s(Vshirts
g12
tp2918
F1
s(VSaturday
S'NNP'
p2919
tp2920
F1
s(g6
g398
tp2921
F9
s(Vfancied
g23
tp2922
F1
s(V-if
g17
tp2923
F1
s(Vseason
S'NN'
p2924
tp2925
F4
s(Vknowledge
g19
tp2926
F3
s(Vtror
g19
tp2927
F3
s(Vconsoled
g23
tp2928
F1
s(Vtied
g23
tp2929
F2
s(Vdeterioration
g19
tp2930
F1
s(g36
S'MD'
p2931
tp2932
F2
s(Vadvanced
g23
tp2933
F2
s(Vbone
g19
tp2934
F1
s(V-why
g74
tp2935
F3
s(Vreturn
g36
tp2936
F4
s(Vsatiric
g8
tp2937
F1
s(Vgilt
g19
tp2938
F3
s(Vtransparent
g8
tp2939
F2
s(Vwere
g411
tp2940
F110
s(Vpapa
g19
tp2941
F3
s(Vinterest
S'NN'
p2942
tp2943
F9
s(Vsadden
g93
tp2944
F1
s(VAh
g227
tp2945
F1
s(Vbest
g182
tp2946
F40
s(Vswindle
g19
tp2947
F1
s(Vmatter
g19
tp2948
F11
s(VWatering-place
g8
tp2949
F1
s(g561
g27
tp2950
F4
s(Vaccent
g19
tp2951
F1
s(Vfound
g17
tp2952
F9
s(Vbenighted
g8
tp2953
F2
s(Vcontinuing
g52
tp2954
F1
s(g209
g113
tp2955
F18
s(Vpulling
g52
tp2956
F1
s(Voh
g74
tp2957
F2
s(VPelham
g6
tp2958
F2
s(Vput
g93
tp2959
F9
s(Vnoise
g19
tp2960
F1
s(Vscathing
g8
tp2961
F1
s(Vbridal
g19
tp2962
F1
s(Vknights
g12
tp2963
F1
s(Vdozen
S'NN'
p2964
tp2965
F3
s(Vreligion
g19
tp2966
F3
s(Vword
S'NN'
p2967
tp2968
F9
s(Venjoy
g36
tp2969
F4
s(Vtailors
g12
tp2970
F1
s(g93
S','
tp2971
F121
s(V-when
g36
tp2972
F2
s(Vfour
S'CD'
p2973
tp2974
F3
s(Vuncertain
g93
tp2975
F1
s(Vthat
g34
tp2976
F1
s(Vhe
S'PRP'
p2977
tp2978
F401
s(Vdull
g19
tp2979
F1
s(Vresistance
g19
tp2980
F1
s(Vsplendid
g19
tp2981
F3
s(Vhumble
g8
tp2982
F2
s(Vlearned
g17
tp2983
F2
s(Vsplendidly
g34
tp2984
F2
s(Vgloom
g19
tp2985
F1
s(VCroesus
g6
tp2986
F40
s(g167
g476
tp2987
F11
s(Vpolka-redowas
g8
tp2988
F1
s(Vsomehow
g34
tp2989
F4
s(Vfancy-men
g12
tp2990
F1
s(g2973
g14
tp2991
F31
s(Vconvulsive
g8
tp2992
F1
s(Vmere
g8
tp2993
F3
s(Vbeg
g36
tp2994
F4
s(Vcracked
g23
tp2995
F1
s(VBeside
g6
tp2996
F1
s(Vape
g19
tp2997
F1
s(Vapotheosis
g19
tp2998
F1
s(Vgradually
g34
tp2999
F3
s(Vmyself
g93
tp3000
F3
s(Vwall
g19
tp3001
F1
s(Vsqueezing
g52
tp3002
F1
s(VCamanchees
g6
tp3003
F2
s(Vfermentation
g19
tp3004
F1
s(VPotiphar
g6
tp3005
F179
s(Vpreferring
g52
tp3006
F1
s(Vdeceit
g19
tp3007
F1
s(Vvigorously
g34
tp3008
F1
s(Vbear
g19
tp3009
F1
s(VPaul
S'NNP'
p3010
tp3011
F10
s(Vcolumns
g12
tp3012
F1
s(Vsoirees
g12
tp3013
F2
s(Voverflowed
g23
tp3014
F1
s(S','
g24
tp3015
F16
s(Vjolly
g34
tp3016
F1
s(Vdaily
g8
tp3017
F1
s(Vhabits
g12
tp3018
F6
s(Vsomebody
g19
tp3019
F9
s(Vmaking
g52
tp3020
F5
s(Vsnuff
g19
tp3021
F3
s(Vesser
g19
tp3022
F1
s(Vtricksy
g8
tp3023
F1
s(Vtalkative
g8
tp3024
F1
s(Vlistening
g52
tp3025
F1
s(Vsoothe
g19
tp3026
F1
s(Vdrinking
g52
tp3027
F2
s(Vboys
g23
tp3028
F1
s(V-while
g274
tp3029
F1
s(Vscreamed
g17
tp3030
F1
s(Vtoga
g19
tp3031
F1
s(Vbowling-alley
g19
tp3032
F2
s(Vput
g17
tp3033
F9
s(Vimpertinence
g19
tp3034
F1
s(VWe
S'PRP'
p3035
tp3036
F62
s(Vsorry
g34
tp3037
F1
s(Vattributes
g32
tp3038
F1
s(Vachieves
g32
tp3039
F1
s(Vhoeing
g52
tp3040
F1
s(Vsecure
g93
tp3041
F7
s(VChoux
g6
tp3042
F1
s(Vcloses
g32
tp3043
F1
s(Vfly
g36
tp3044
F1
s(Vlurch
g19
tp3045
F1
s(Vshown
S'VBN'
p3046
tp3047
F2
s(Vcould
g245
tp3048
F51
s(Vcharges
g12
tp3049
F1
s(g93
g398
tp3050
F279
s(Vdelicious
g8
tp3051
F1
s(Vmeans
g12
tp3052
F1
s(Vagreed
g17
tp3053
F1
s(Vunpatriotic
g8
tp3054
F2
s(Vextravagant
g19
tp3055
F1
s(Vmodels
S'NNS'
p3056
tp3057
F5
s(Vdegenerated
g17
tp3058
F1
s(Vcompel
g93
tp3059
F1
s(Vadjoining
g19
tp3060
F1
s(Vdeep
g8
tp3061
F2
s(Vfelt
g17
tp3062
F5
s(Vsit
g19
tp3063
F2
s(Vfeels
g12
tp3064
F1
s(Vroues
g12
tp3065
F1
s(Vignorance
g19
tp3066
F3
s(Vpray
g19
tp3067
F1
s(Vnone
g19
tp3068
F8
s(Vpolker
g19
tp3069
F1
s(Vpaid
g23
tp3070
F1
s(Vdesert
g93
tp3071
F2
s(g8
g6
tp3072
F155
s(g52
g570
tp3073
F5
s(Vleather
g19
tp3074
F1
s(Vnight
S'NN'
p3075
tp3076
F13
s(Vpomp
g19
tp3077
F1
s(Vlonely
g34
tp3078
F1
s(g252
g1074
tp3079
F41
s(Vanswer
g19
tp3080
F2
s(Vworld
S'NN'
p3081
tp3082
F34
s(Vhang
g19
tp3083
F1
s(Vsprang
g17
tp3084
F1
s(Vpreserve
g19
tp3085
F1
s(Vvellum
g19
tp3086
F1
s(Vdespair.
g19
tp3087
F1
s(VEyes
g12
tp3088
F1
s(Vscented
g8
tp3089
F1
s(Vexciting
g19
tp3090
F1
s(Vreap
g93
tp3091
F1
s(Vfoolish
g8
tp3092
F7
s(Vpews
g12
tp3093
F1
s(Voccasional
g8
tp3094
F3
s(Vprinces
g12
tp3095
F1
s(g856
g411
tp3096
F4
s(Vloose
g36
tp3097
F1
s(VElizabethan
g6
tp3098
F1
s(Vbeg
g93
tp3099
F1
s(Vimperative
g8
tp3100
F1
s(Vconstituted
g23
tp3101
F1
s(Vtree
g19
tp3102
F5
s(Vblighted
g8
tp3103
F1
s(g274
g245
tp3104
F2
s(VBristol
g6
tp3105
F1
s(Vhustled
g23
tp3106
F1
s(S'WRB'
p3107
S'.'
tp3108
F4
s(Vexhaustive
g8
tp3109
F1
s(Vodd
g8
tp3110
F6
s(Vbehold
g17
tp3111
F1
s(Vwine
g8
tp3112
F1
s(Vappropriate
g8
tp3113
F2
s(Vboyhood
g19
tp3114
F1
s(V-low
g93
tp3115
F1
s(Vsidewalk
g19
tp3116
F1
s(Vinquire
g93
tp3117
F2
s(Vfelicity
g19
tp3118
F1
s(VSplendid
g19
tp3119
F1
s(VPlace
g6
tp3120
F2
s(VReally
g34
tp3121
F3
s(VBois
g6
tp3122
F2
s(Vrefit
g93
tp3123
F1
s(Vpasses
g32
tp3124
F1
s(Vsentimental
g8
tp3125
F2
s(VAbattew
g6
tp3126
F1
s(Vtheir
g194
tp3127
F129
s(Vattire
g19
tp3128
F1
s(Vliquorice-water
g19
tp3129
F1
s(VBecause
S'IN'
p3130
tp3131
F1
s(Vcrowded
g17
tp3132
F1
s(Vwear
g36
tp3133
F3
s(Vtale
g19
tp3134
F1
s(g23
g143
tp3135
F9
s(g128
g681
tp3136
F125
s(VJupiter
g6
tp3137
F1
s(Vrushed
g23
tp3138
F1
s(Vfais
g32
tp3139
F1
s(Vsneaked
g17
tp3140
F1
s(Vinhabitants
g12
tp3141
F1
s(Vcotillon
g19
tp3142
F1
s(Vnervous
g8
tp3143
F1
s(Vsenseless
g19
tp3144
F1
s(Vthere
g34
tp3145
F26
s(Vdoubt
g93
tp3146
F2
s(VDoes
g32
tp3147
F6
s(Vshelves
g12
tp3148
F4
s(Vmotives
g12
tp3149
F1
s(Vgirls
g12
tp3150
F14
s(V'll
S'MD'
p3151
tp3152
F23
s(Vparts
S'NNS'
p3153
tp3154
F4
s(Vfreak
g19
tp3155
F1
s(Vspoil
g36
tp3156
F1
s(Vearly
g34
tp3157
F3
s(Vchristian
g8
tp3158
F1
s(VTabby
g19
tp3159
F1
s(Vsilence
g19
tp3160
F3
s(VPortier
g6
tp3161
F1
s(g143
g743
tp3162
F4
s(Vstated
g23
tp3163
F1
s(Vgobble
g19
tp3164
F1
s(Vsimilar
S'JJ'
p3165
tp3166
F2
s(Vdear
g274
tp3167
F6
s(Vdevilish
g8
tp3168
F1
s(Vflatter
g36
tp3169
F1
s(Vrecorded
g8
tp3170
F1
s(Varrival
g8
tp3171
F1
s(Vyours
g12
tp3172
F8
s(Vbought
g17
tp3173
F2
s(VMessrs.
g159
tp3174
F1
s(Vby
g1694
tp3175
F145
s(Vassails
g36
tp3176
F1
s(Vplain
g19
tp3177
F1
s(VNow
S'RB'
p3178
tp3179
F16
s(Vcried
g17
tp3180
F9
s(Vwreathed
g23
tp3181
F1
s(Vcrises
g12
tp3182
F1
s(Vmanner
g19
tp3183
F14
s(Vthrows
g32
tp3184
F2
s(Vsupposing
g52
tp3185
F2
s(VHoneysuckle
g6
tp3186
F1
s(Vher
g561
tp3187
F41
s(Vpresume
g36
tp3188
F1
s(Vreed
g19
tp3189
F1
s(Vsaps
g32
tp3190
F1
s(Vnon-dancing
g8
tp3191
F3
s(VBrothers
g159
tp3192
F1
s(Vparading
g52
tp3193
F1
s(Vidle
g8
tp3194
F1
s(Vrequest
g19
tp3195
F1
s(Vconfused
g8
tp3196
F2
s(VAdele
g6
tp3197
F2
s(Vpointless
g8
tp3198
F1
s(Vfeigning
g19
tp3199
F1
s(g6
g1262
tp3200
F3
s(Vbasement
g19
tp3201
F1
s(VNineveh
g6
tp3202
F1
s(Vsounded
g17
tp3203
F1
s(Vheels
g12
tp3204
F1
s(Vcoxcombry
g19
tp3205
F1
s(Vmens
g12
tp3206
F1
s(Vintimates
g12
tp3207
F1
s(Vscorn
g93
tp3208
F1
s(Vpaintings
g12
tp3209
F1
s(Vunfortunately
g34
tp3210
F2
s(Vspeaking
g52
tp3211
F5
s(Vchambers
g12
tp3212
F1
s(g19
S'('
tp3213
F17
s(Vsilenced
g17
tp3214
F1
s(Vpublic
g8
tp3215
F2
s(Vhired
g8
tp3216
F1
s(Vneed
g290
tp3217
F1
s(g625
g2349
tp3218
F172
s(Vnatives
g12
tp3219
F1
s(Vgained
g17
tp3220
F1
s(Vhost
g19
tp3221
F1
s(VDownes
g6
tp3222
F2
s(Vjoin
g93
tp3223
F1
s(Vglimpse
g19
tp3224
F1
s(g36
S'VBP'
p3225
tp3226
F2
s(Vsummon
g93
tp3227
F1
s(Vpositive
S'JJ'
p3228
tp3229
F1
s(g290
g276
tp3230
F15
s(Vdrive
g19
tp3231
F3
s(Vfind
g93
tp3232
F9
s(VAh
g6
tp3233
F2
s(VChinaman
g6
tp3234
F1
s(Varistocracy
g19
tp3235
F6
s(VSennaar
g6
tp3236
F36
s(Vpetty
g8
tp3237
F1
s(Vform
g19
tp3238
F2
s(Vscathed
g23
tp3239
F1
s(Vgentleman
g19
tp3240
F20
s(Vdistinctions
g12
tp3241
F2
s(Vspacious
g8
tp3242
F2
s(g8
S'('
tp3243
F1
s(Vforces
g12
tp3244
F2
s(Vconscious
g8
tp3245
F2
s(g24
g17
tp3246
F19
s(Vregret
g93
tp3247
F2
s(Vcharged
g17
tp3248
F2
s(Vuniformity
g19
tp3249
F1
s(Vappendage
g19
tp3250
F1
s(Vfewer
g63
tp3251
F1
s(Vchose
g36
tp3252
F1
s(Vassure
g93
tp3253
F1
s(Vwhom
g501
tp3254
F21
s(Vwell-governed
g8
tp3255
F1
s(Vwealth
g93
tp3256
F1
s(Vislands
g12
tp3257
F1
s(Vlong
g34
tp3258
F16
s(Vgame
S'NN'
p3259
tp3260
F10
s(Vtum
g19
tp3261
F10
s(Vprononc
g19
tp3262
F2
s(V-do
g93
tp3263
F1
s(Vgrant
g93
tp3264
F1
s(Vlately
g34
tp3265
F2
s(Vlords
g12
tp3266
F1
s(Vworldly
g34
tp3267
F1
s(S'JJR'
p3268
g19
tp3269
F20
s(Vsmirking
g19
tp3270
F1
s(Vinnocent
g19
tp3271
F1
s(g32
g24
tp3272
F1
s(Vsoon
S'RB'
p3273
tp3274
F6
s(Vcourts
g32
tp3275
F1
s(g905
g93
tp3276
F2
s(Vmesh
g19
tp3277
F1
s(Vprofited
g23
tp3278
F1
s(Vshower
g93
tp3279
F1
s(Vsins
g12
tp3280
F2
s(Vquarrels
g32
tp3281
F1
s(Vpurple
g19
tp3282
F4
s(Vendure
g36
tp3283
F1
s(Vdrop
g19
tp3284
F1
s(S'('
g621
tp3285
F1
s(V'em
g561
tp3286
F2
s(g63
g474
tp3287
F1
s(Vexploded
g8
tp3288
F1
s(g2798
g63
tp3289
F3
s(Vshop
g19
tp3290
F7
s(VS.
S'NNP'
p3291
tp3292
F1
s(Vsnooze
g93
tp3293
F1
s(Vborn
g23
tp3294
F3
s(Vtroisi
g8
tp3295
F1
s(Vsubject
g19
tp3296
F3
s(g6
g52
tp3297
F8
s(Vwaiter
g19
tp3298
F1
s(Vraging
g52
tp3299
F1
s(Vkneeling-chair
g19
tp3300
F2
s(Vbrows
g12
tp3301
F2
s(Vwarmest
g182
tp3302
F1
s(Vrun
g93
tp3303
F4
s(g143
g227
tp3304
F2
s(Voff
g474
tp3305
F15
s(Vexcuse
g93
tp3306
F2
s(Vprivately
S'RB'
p3307
tp3308
F1
s(Vfair
g8
tp3309
F4
s(Vsculptured
g23
tp3310
F1
s(Vcuts
g32
tp3311
F1
s(Vcutting
g52
tp3312
F1
s(Vinfluence
g19
tp3313
F4
s(Vstands
g32
tp3314
F4
s(Vfancied
g8
tp3315
F1
s(Vpounce
g93
tp3316
F1
s(g112
g36
tp3317
F73
s(g392
g625
tp3318
F6
s(Vhandkerchief
g19
tp3319
F4
s(Vcounts
g12
tp3320
F1
s(VVivian
g8
tp3321
F2
s(Vgrow
g19
tp3322
F1
s(VPolly
g34
tp3323
F7
s(Vinfallible
g8
tp3324
F1
s(Vsolemn
g8
tp3325
F1
s(Vsimilarity
g19
tp3326
F1
s(VState
g6
tp3327
F2
s(Vunspeakably
g34
tp3328
F1
s(g112
g1777
tp3329
F25
s(Vacquaints
g32
tp3330
F1
s(VEngland
S'NNP'
p3331
tp3332
F4
s(g2349
g17
tp3333
F745
s(VCynic
g6
tp3334
F1
s(V`speaks
g32
tp3335
F1
s(Vshivered
g17
tp3336
F1
s(Vsnoring
g19
tp3337
F1
s(VCrawley
g6
tp3338
F1
s(Vsatire
g19
tp3339
F8
s(S'PRP'
p3340
g106
tp3341
F5
s(g3340
g6
tp3342
F6
s(Vbrown
g19
tp3343
F1
s(VNo
g34
tp3344
F2
s(Vpointed
g8
tp3345
F1
s(Vcarnal
g8
tp3346
F1
s(Vgeneral
g8
tp3347
F6
s(Vdrowning
g19
tp3348
F1
s(Vmarched
g17
tp3349
F3
s(Vsails
g32
tp3350
F1
s(Vwoollen
g8
tp3351
F1
s(Vedged
g8
tp3352
F1
s(VKnowing
g52
tp3353
F2
s(Vsorry
g19
tp3354
F4
s(Vhonest
g182
tp3355
F1
s(Vspeaks
g36
tp3356
F1
s(Vsuspect
g36
tp3357
F1
s(Venterprise
g19
tp3358
F1
s(Vprobably
S'RB'
p3359
tp3360
F6
s(Vimpart
g36
tp3361
F1
s(VPanharmonicon
g6
tp3362
F1
s(Vshaming
g52
tp3363
F1
s(g121
S'.'
tp3364
F1
s(Vstraight
g8
tp3365
F1
s(VAre
g36
tp3366
F5
s(g81
g231
tp3367
F14
s(Vwedding-gift
g19
tp3368
F1
s(Vgay
g19
tp3369
F2
s(Vsermons
g12
tp3370
F1
s(Vmonarch
g19
tp3371
F1
s(Vplayful
g8
tp3372
F1
s(Vwelcome
g19
tp3373
F1
s(Vpoet
g19
tp3374
F1
s(Vheritage
g19
tp3375
F1
s(Vfears
g12
tp3376
F1
s(Vsecured
g23
tp3377
F3
s(VTuileries
g159
tp3378
F1
s(Varm
g19
tp3379
F7
s(Vconceals
g32
tp3380
F1
s(Vbakers
g12
tp3381
F1
s(Vreturned
g23
tp3382
F1
s(Vstrangers
g12
tp3383
F2
s(Vgiven
S'VBN'
p3384
tp3385
F7
s(Vsmiling
g52
tp3386
F6
s(Vhaunt
g36
tp3387
F1
s(Vlived
g17
tp3388
F3
s(Vpiqued
g23
tp3389
F2
s(Vinstrument
g19
tp3390
F1
s(Vrepresentation
g19
tp3391
F1
s(Veducation
g19
tp3392
F3
s(g209
g1409
tp3393
F23
s(Vsmall
S'JJ'
p3394
tp3395
F8
s(Vlover
g19
tp3396
F1
s(Vserving
g52
tp3397
F1
s(g24
g1777
tp3398
F4
s(Vhearty
g19
tp3399
F1
s(Vunprofitable
g8
tp3400
F1
s(Vfrom
S'IN'
p3401
tp3402
F84
s(Vhear
g36
tp3403
F11
s(Vcharacters
g12
tp3404
F2
s(V`They
g19
tp3405
F1
s(Vsleepy
g74
tp3406
F1
s(Vintricacy
g19
tp3407
F1
s(Vsmart
g8
tp3408
F4
s(Vblue
g19
tp3409
F3
s(Vaspect
g19
tp3410
F1
s(VReading
g6
tp3411
F1
s(Vcompassionate
g19
tp3412
F1
s(Vpulpit
g19
tp3413
F3
s(Vcheerfulness
g19
tp3414
F1
s(g412
g194
tp3415
F12
s(Vsavarins
g12
tp3416
F1
s(VPray-do
g93
tp3417
F1
s(Vmidnight
g19
tp3418
F5
s(g93
g905
tp3419
F2
s(Vlavish
g8
tp3420
F2
s(VTurkey
g6
tp3421
F1
s(Vcame
S'VBD'
p3422
tp3423
F39
s(g8
S'VB'
p3424
tp3425
F1
s(Vappropriates
g32
tp3426
F1
s(g74
S':'
tp3427
F3
s(Vlace
g19
tp3428
F8
s(Vshines
g12
tp3429
F1
s(Vundoings
g12
tp3430
F1
s(Vcomprises
g32
tp3431
F1
s(g34
S')'
tp3432
F2
s(Vcenturies
g12
tp3433
F2
s(Vnow
S'RB'
p3434
tp3435
F36
s(Voutraged
g17
tp3436
F1
s(VAriel
g6
tp3437
F1
s(Vcomplaisance
g19
tp3438
F1
s(Vkingdom
g19
tp3439
F1
s(Vwaning
g52
tp3440
F1
s(g8
g209
tp3441
F9
s(Vcommunity
S'NN'
p3442
tp3443
F2
s(Vblow
g19
tp3444
F1
s(Vwhirled
g23
tp3445
F1
s(g1261
g1401
tp3446
F13
s(Vselected
g23
tp3447
F1
s(Vcivilization
g19
tp3448
F7
s(Vstubborn
g23
tp3449
F1
s(VCalifornia
S'NNP'
p3450
tp3451
F1
s(Vtelling
g52
tp3452
F2
s(Vjudge
g93
tp3453
F2
s(S')'
g274
tp3454
F6
s(Vpretty
g34
tp3455
F12
s(Vseems
S'VBZ'
p3456
tp3457
F19
s(Vsave
g36
tp3458
F1
s(Vidolatries
g12
tp3459
F1
s(Vmystery
g19
tp3460
F2
s(Vcivilizations
g12
tp3461
F1
s(g905
g6
tp3462
F10
s(VL'opera
g6
tp3463
F1
s(Vdeviation
g19
tp3464
F1
s(Vover
g274
tp3465
F20
s(Vbehind
g34
tp3466
F1
s(Venough
g8
tp3467
F6
s(Vfuss
g19
tp3468
F1
s(g34
g182
tp3469
F4
s(Vbanded
g17
tp3470
F1
s(Vdancers
g12
tp3471
F2
s(Vrecruiting
g19
tp3472
F1
s(g106
g274
tp3473
F1
s(g8
S'VBD'
p3474
tp3475
F9
s(Vaim
g36
tp3476
F1
s(Vstudents
S'NNS'
p3477
tp3478
F1
s(Vfixedly
g34
tp3479
F1
s(Vministers
g12
tp3480
F1
s(Vfury
g19
tp3481
F2
s(Vthickly
g8
tp3482
F1
s(Vmasquerading
g52
tp3483
F1
s(Vexclusive
S'JJ'
p3484
tp3485
F2
s(Vsmiling
g8
tp3486
F2
s(Vtrop
g19
tp3487
F1
s(g474
S','
tp3488
F11
s(Vbliss
g19
tp3489
F1
s(g12
S','
tp3490
F460
s(g19
S'.'
tp3491
F859
s(Venvy
g19
tp3492
F2
s(Vexuberant
g8
tp3493
F1
s(g27
g8
tp3494
F180
s(g276
g34
tp3495
F3
s(Vexemplary
g8
tp3496
F1
s(Vc.
g19
tp3497
F8
s(V-but
g17
tp3498
F1
s(Vludicrous
g8
tp3499
F2
s(Vterror
g19
tp3500
F1
s(Vled
g17
tp3501
F3
s(g63
S'.'
tp3502
F7
s(Vread
g23
tp3503
F1
s(Vassembled
g8
tp3504
F1
s(Vacknowledge
g36
tp3505
F2
s(Vround
g32
tp3506
F1
s(g6
g159
tp3507
F5
s(Vhowever
S'RB'
p3508
tp3509
F8
s(Vmusical
g8
tp3510
F4
s(V`Invest
g93
tp3511
F1
s(Vinsulted
g23
tp3512
F2
s(Vfell
S'VBD'
p3513
tp3514
F6
s(Vdelightful
g93
tp3515
F1
s(Vscene
g19
tp3516
F4
s(VHIS
g6
tp3517
F1
s(Vchambermaids
g12
tp3518
F1
s(Vjilted
g23
tp3519
F1
s(Vhandsomest
g182
tp3520
F1
s(Vten
g327
tp3521
F2
s(Vfloor
S'NN'
p3522
tp3523
F9
s(Vhanging
g52
tp3524
F1
s(Vheads
g12
tp3525
F3
s(Vinquired
g8
tp3526
F2
s(Vroom
S'NN'
p3527
tp3528
F35
s(Vcoolly
g34
tp3529
F4
s(Vderived
g17
tp3530
F1
s(S','
S')'
tp3531
F6
s(S'PRP'
p3532
g19
tp3533
F17
s(Vtemple
g19
tp3534
F1
s(Vtimely
g8
tp3535
F1
s(Vfruit
g19
tp3536
F2
s(Varistocraticlooking
g52
tp3537
F1
s(VItalian
g6
tp3538
F1
s(Vindirectly
g34
tp3539
F1
s(Vline
g15
tp3540
F3
s(Vdiagonal
g8
tp3541
F2
s(Vhit
g17
tp3542
F1
s(Vpresent
g8
tp3543
F7
s(Villimitable
g8
tp3544
F1
s(g3424
g8
tp3545
F92
s(Vacademy
g19
tp3546
F1
s(Vbonds
S'NNS'
p3547
tp3548
F2
s(Vpipes
g12
tp3549
F1
s(VB.
S'NNP'
p3550
tp3551
F2
s(Vshoemakers
g12
tp3552
F1
s(Vtrust
g19
tp3553
F1
s(VFamilles
g6
tp3554
F6
s(Vknowing
g52
tp3555
F5
s(Vtravesty
g93
tp3556
F1
s(Vpiety
g19
tp3557
F2
s(g19
g6
tp3558
F36
s(V-Arabella
g19
tp3559
F1
s(Vnor
S'CC'
p3560
tp3561
F43
s(Vpaint
g93
tp3562
F3
s(Vpaid
g17
tp3563
F2
s(Vstrain
g19
tp3564
F1
s(Vcollective
g8
tp3565
F2
s(Vcharacteristic
g19
tp3566
F1
s(Vcolumns
g19
tp3567
F1
s(Vrigidly
g34
tp3568
F1
s(Vmade
g23
tp3569
F17
s(Vcharms
g12
tp3570
F3
s(Vreply
g19
tp3571
F3
s(Vglanced
g17
tp3572
F1
s(Vcares
g32
tp3573
F1
s(Vstripes
g12
tp3574
F2
s(Vproving
g52
tp3575
F2
s(V-Mrs.
g8
tp3576
F1
s(Vaccount
g19
tp3577
F2
s(Vpointed
g23
tp3578
F1
s(Vsolicitous
g8
tp3579
F1
s(Vyears
S'NNS'
p3580
tp3581
F7
s(VBarri
g6
tp3582
F1
s(Vaccessaries
g12
tp3583
F1
s(VHermon
g6
tp3584
F1
s(VNone
g19
tp3585
F2
s(Vcolors
g32
tp3586
F1
s(Vpropagate
g93
tp3587
F1
s(Vbeside
g34
tp3588
F1
s(Vmeditating
g52
tp3589
F1
s(Vcuriosity
g19
tp3590
F1
s(Vclay
g19
tp3591
F1
s(VEnviable
g8
tp3592
F1
s(Vvulgar
g19
tp3593
F1
s(Vso
g274
tp3594
F22
s(Vcrook
g19
tp3595
F2
s(g6
g17
tp3596
F147
s(Vtermed
g23
tp3597
F2
s(Vbare
g19
tp3598
F1
s(g17
g12
tp3599
F15
s(g17
g2792
tp3600
F45
s(Vbe
g3424
tp3601
F220
s(Vrefreshing
g52
tp3602
F1
s(Vthanks
g12
tp3603
F1
s(Vbold
g17
tp3604
F1
s(S'DT'
p3605
S','
tp3606
F45
s(Vmanage
g93
tp3607
F1
s(Vcloud
g19
tp3608
F1
s(Vskulk
g93
tp3609
F1
s(Vimmensely
g34
tp3610
F3
s(Vcriticism
S'NN'
p3611
tp3612
F1
s(Vcarriage
g19
tp3613
F13
s(Vtwice
g34
tp3614
F4
s(g133
g6
tp3615
F112
s(g276
g112
tp3616
F6
s(VMorris
S'NNP'
p3617
tp3618
F2
s(Vbackward
g34
tp3619
F1
s(Vchoose
g36
tp3620
F2
s(Vcounterfeit
g19
tp3621
F1
s(Vstreams
g32
tp3622
F1
s(Vassume
g93
tp3623
F1
s(VLondonderry
g6
tp3624
F1
s(V-these
g8
tp3625
F1
s(Vface
g19
tp3626
F7
s(Vthine
g8
tp3627
F1
s(Vinstinctive
g8
tp3628
F1
s(Vbreathe
g93
tp3629
F2
s(Vspirit
g19
tp3630
F8
s(V-to
g8
tp3631
F2
s(VJericho
g6
tp3632
F1
s(Vpetit
g8
tp3633
F1
s(Vpang
g19
tp3634
F1
s(Vquarrel
g93
tp3635
F4
s(Vforeigners
g12
tp3636
F4
s(g209
g2112
tp3637
F168
s(VII
g19
tp3638
F1
s(Vinduced
g23
tp3639
F1
s(VConsequently
g34
tp3640
F1
s(Vsilk
g19
tp3641
F6
s(Vsaturated
g23
tp3642
F1
s(Vtilting
g52
tp3643
F1
s(Vseven
S'CD'
p3644
tp3645
F2
s(Vlunch
g19
tp3646
F1
s(g81
g841
tp3647
F37
s(Vopposite
g19
tp3648
F2
s(Voyster
g8
tp3649
F1
s(VDarling
g6
tp3650
F1
s(Vpun
g19
tp3651
F1
s(Vafternoon
S'NN'
p3652
tp3653
F3
s(g32
g129
tp3654
F1
s(VWellington
g6
tp3655
F2
s(Vmarks
g32
tp3656
F1
s(Vmarble
g19
tp3657
F2
s(Vlaugh
g36
tp3658
F1
s(Vmaid
g19
tp3659
F1
s(Vdances
g32
tp3660
F2
s(Vobserver
g19
tp3661
F3
s(Vodd
g274
tp3662
F1
s(Vad
S'NN'
p3663
tp3664
F1
s(Vall
g34
tp3665
F2
s(g194
g856
tp3666
F2
s(Vmistake
g36
tp3667
F1
s(Vbeing
S'VBG'
p3668
tp3669
F20
s(S'VBZ'
p3670
g374
tp3671
F7
s(VLobster
g6
tp3672
F1
s(Vfine
g8
tp3673
F22
s(Vextend
g93
tp3674
F1
s(Vlove
g93
tp3675
F7
s(S'('
g3225
tp3676
F1
s(g93
g474
tp3677
F35
s(VHistory
g19
tp3678
F1
s(Vslid
g36
tp3679
F1
s(Vinspected
g23
tp3680
F1
s(VPlease
g6
tp3681
F2
s(Vlemon
g8
tp3682
F1
s(Vantique
g8
tp3683
F1
s(Veagerness
g19
tp3684
F1
s(Vpa
g19
tp3685
F4
s(Vsharply
S'RB'
p3686
tp3687
F3
s(Vscores
g12
tp3688
F2
s(Vconsequence
g19
tp3689
F1
s(VSundays
g12
tp3690
F1
s(Vdeceitful
g8
tp3691
F1
s(Vee
g19
tp3692
F1
s(Vgentlemanly
g34
tp3693
F18
s(Vhair
g19
tp3694
F9
s(VFirkin
g6
tp3695
F41
s(V-then
g93
tp3696
F1
s(Vfortunately
g34
tp3697
F1
s(g17
g52
tp3698
F47
s(Vreceiving
g52
tp3699
F2
s(Vknowingly
g34
tp3700
F1
s(Vadmired
g17
tp3701
F1
s(Vcomfort
g19
tp3702
F3
s(Vpoints
g12
tp3703
F1
s(Vdiligent
g19
tp3704
F1
s(Vspring
g8
tp3705
F1
s(Vplease
g19
tp3706
F1
s(Vplates
g12
tp3707
F6
s(Vsank
g17
tp3708
F2
s(Vpropriety
g19
tp3709
F1
s(Vgenuine
g19
tp3710
F1
s(VBeen
g6
tp3711
F1
s(VMarquise
g6
tp3712
F2
s(g3107
g570
tp3713
F1
s(VWhom
g6
tp3714
F1
s(Vpolished
g23
tp3715
F1
s(Vtrifle
g19
tp3716
F1
s(g93
S'VBZ'
p3717
tp3718
F3
s(Vrousing
g19
tp3719
F1
s(Vclimbed
g17
tp3720
F2
s(VIrish
g19
tp3721
F1
s(VRouge
g6
tp3722
F1
s(Vwaistcoats
g12
tp3723
F3
s(Vasks
g32
tp3724
F5
s(Vstanding
g52
tp3725
F2
s(Vpupil
g19
tp3726
F1
s(Vfront
g8
tp3727
F4
s(S','
g81
tp3728
F50
s(V-but
g19
tp3729
F3
s(Vsnooze
g19
tp3730
F1
s(VBlack
g6
tp3731
F1
s(VPatience
g19
tp3732
F1
s(VOffice
g6
tp3733
F1
s(Vpotatoes
g12
tp3734
F1
s(Vhither
g476
tp3735
F1
s(Vsummers
g12
tp3736
F1
s(g143
g41
tp3737
F5
s(Voutside
g274
tp3738
F1
s(Vdrama
g19
tp3739
F1
s(Vdiscover
g93
tp3740
F3
s(Vleave
g8
tp3741
F1
s(Vhand
S'NN'
p3742
tp3743
F19
s(g2127
g907
tp3744
F1
s(Vmorocco
g19
tp3745
F3
s(Vdescription
g19
tp3746
F1
s(Vbreathe
g36
tp3747
F1
s(Vourselves
g561
tp3748
F2
s(Vauthority
g19
tp3749
F3
s(VJudah
g6
tp3750
F1
s(VNeapolitan
g6
tp3751
F1
s(VGiddo
g6
tp3752
F5
s(Vthough
g274
tp3753
F7
s(Vwalks
g32
tp3754
F1
s(g23
g34
tp3755
F30
s(Vrefinement
g19
tp3756
F1
s(Vhide
g36
tp3757
F1
s(Vgets
S'VBZ'
p3758
tp3759
F3
s(Vdiocese
g8
tp3760
F1
s(Vadjudge
g8
tp3761
F1
s(g3394
g8
tp3762
F157
s(Vbon
g36
tp3763
F1
s(Vtranslated
g23
tp3764
F1
s(Vhome-made
g8
tp3765
F1
s(Vbut
g2115
tp3766
F174
s(V-my
g227
tp3767
F1
s(VPer
g6
tp3768
F1
s(Vcattle
g8
tp3769
F1
s(VAll
g374
tp3770
F1
s(Vmistake
g19
tp3771
F5
s(Vperfected
g23
tp3772
F1
s(VLetter
g6
tp3773
F1
s(Veternal
g8
tp3774
F1
s(Vchurches
g12
tp3775
F1
s(Vcabin
g19
tp3776
F1
s(Vforeign
S'JJ'
p3777
tp3778
F16
s(Vengaged
g23
tp3779
F5
s(S','
g52
tp3780
F79
s(Vfixed
g23
tp3781
F1
s(VEuropean
g8
tp3782
F2
s(Vfortunes
g12
tp3783
F4
s(Vcompose
g17
tp3784
F1
s(Vsurprised
g23
tp3785
F1
s(VAmerican
g8
tp3786
F9
s(Vbeckoning
g52
tp3787
F1
s(g34
g63
tp3788
F7
s(Vsmeared
g17
tp3789
F1
s(g8
S'VBG'
p3790
tp3791
F10
s(Vwhirl
g19
tp3792
F3
s(VUnfortunately
g34
tp3793
F1
s(Vattempts
g12
tp3794
F1
s(VDame
g6
tp3795
F1
s(Vcravat-knot
g19
tp3796
F1
s(Vdizzy
g19
tp3797
F1
s(VSo
g274
tp3798
F3
s(VAt
S'IN'
p3799
tp3800
F8
s(g319
g6
tp3801
F1
s(Vmatrimonial
g8
tp3802
F1
s(Vmost
g319
tp3803
F35
s(Vinvite
g93
tp3804
F1
s(Vsauce
g19
tp3805
F1
s(Vstaple
g19
tp3806
F1
s(Vimagination
g19
tp3807
F1
s(VUnless
g274
tp3808
F1
s(Vshortly
g34
tp3809
F1
s(Vwake
g36
tp3810
F3
s(Vdestroyed
g23
tp3811
F2
s(Vunlimited
g8
tp3812
F1
s(g905
g1131
tp3813
F1
s(Vcharity
g19
tp3814
F5
s(Vthrones
g12
tp3815
F1
s(S','
S'CD'
p3816
tp3817
F13
s(Vinsists
g32
tp3818
F1
s(VPearl
g6
tp3819
F1
s(VAmericains
g6
tp3820
F1
s(Vexpected
g23
tp3821
F2
s(Vinterests
g1868
tp3822
F4
s(Vaims
g12
tp3823
F2
s(Vdiligently
g34
tp3824
F2
s(Vengrossing
g8
tp3825
F1
s(Vcare
g36
tp3826
F1
s(Voffer
g19
tp3827
F1
s(Vglaring
g19
tp3828
F1
s(Vhappen
g93
tp3829
F1
s(Vkeeping
S'VBG'
p3830
tp3831
F1
s(Vparishioners
g12
tp3832
F1
s(Vgrown
g8
tp3833
F1
s(Vhead
g19
tp3834
F14
s(Vprospects
g12
tp3835
F1
s(Vbecome
g23
tp3836
F1
s(Vspoonies
g12
tp3837
F1
s(Vill-assorted
g8
tp3838
F1
s(Vtotal
g19
tp3839
F1
s(Vexquisite
g8
tp3840
F3
s(VBayard
g6
tp3841
F1
s(VHal
g6
tp3842
F3
s(S','
g1770
tp3843
F160
s(Vobserved
g23
tp3844
F2
s(Vwood-work
g19
tp3845
F1
s(Vtrick
g19
tp3846
F2
s(VCream
g19
tp3847
F1
s(Vfairly
S'RB'
p3848
tp3849
F7
s(Vparties
S'NNS'
p3850
tp3851
F14
s(Vwildly
g34
tp3852
F1
s(Vfrightful
g8
tp3853
F3
s(g3424
g319
tp3854
F1
s(Vradiant
g8
tp3855
F3
s(VLatin
g93
tp3856
F1
s(Vwithdraw
g274
tp3857
F1
s(Vsmitten
g23
tp3858
F1
s(Vdecorate
g93
tp3859
F1
s(Vmuttered
g17
tp3860
F1
s(Vdilettanti
g19
tp3861
F1
s(VThere
g743
tp3862
F35
s(Vlook
g19
tp3863
F3
s(Vregard
g19
tp3864
F4
s(Vbend
g19
tp3865
F1
s(Vepitome
g19
tp3866
F1
s(Vtrip
S'NN'
p3867
tp3868
F1
s(Vexcuse
g19
tp3869
F1
s(Vforwards
g12
tp3870
F1
s(Vfrenzied
g23
tp3871
F1
s(S','
g19
tp3872
F113
s(Vfellow
g19
tp3873
F2
s(Vgenii
g19
tp3874
F1
s(Vbelle
g19
tp3875
F1
s(Vdiamonds
g12
tp3876
F2
s(Vwhole
g8
tp3877
F11
s(Vinfection
g19
tp3878
F1
s(g81
g502
tp3879
F1
s(Vtapestried
g23
tp3880
F1
s(Vresponse
S'NN'
p3881
tp3882
F3
s(g159
S'.'
tp3883
F5
s(Vambitious
g8
tp3884
F1
s(Vobject
g93
tp3885
F1
s(Vexhortation
g19
tp3886
F1
s(Vcalmly
g8
tp3887
F1
s(Vengraved
g23
tp3888
F1
s(Vattend
g36
tp3889
F1
s(Vpatrician
g8
tp3890
F1
s(Vattendant
g8
tp3891
F1
s(Vobservers
g12
tp3892
F1
s(Vplace
g19
tp3893
F14
s(g143
g32
tp3894
F9
s(g327
g32
tp3895
F8
s(Vtrouble
S'NN'
p3896
tp3897
F4
s(Vglides
g32
tp3898
F1
s(g36
g128
tp3899
F7
s(Vaway
g474
tp3900
F3
s(g19
g12
tp3901
F68
s(Vfellow-creatures
g12
tp3902
F2
s(VAnne
g6
tp3903
F1
s(Vpreaching
g52
tp3904
F2
s(Vnice
g8
tp3905
F5
s(Vlives
g12
tp3906
F3
s(Vrespectable
g8
tp3907
F1
s(Vrapidly
g34
tp3908
F2
s(Vnotoriously
g34
tp3909
F1
s(Vimpression
g19
tp3910
F1
s(Vwish
g36
tp3911
F6
s(VIt
S'PRP'
p3912
tp3913
F97
s(g227
g3340
tp3914
F1
s(Vflying
g52
tp3915
F1
s(Vproposition
g19
tp3916
F1
s(Vdrygoods
g12
tp3917
F1
s(Vadd
g93
tp3918
F1
s(Vcomposed
g23
tp3919
F1
s(VLETTER
g19
tp3920
F2
s(Vescaped
g23
tp3921
F1
s(g2127
g392
tp3922
F35
s(g681
g1777
tp3923
F1484
s(Vlow
g8
tp3924
F5
s(Vwares
g12
tp3925
F1
s(Vyourselves
g32
tp3926
F1
s(Vguards
g12
tp3927
F1
s(g36
g143
tp3928
F5
s(Vrolled
g17
tp3929
F2
s(Vjust
S'RB'
p3930
tp3931
F21
s(Vyouths
g12
tp3932
F6
s(Vman
S'NN'
p3933
tp3934
F95
s(VLa
g74
tp3935
F1
s(Vimparts
g32
tp3936
F1
s(V-have
g36
tp3937
F1
s(Vlittle
g8
tp3938
F86
s(g17
S'NNP'
p3939
tp3940
F126
s(VCafes
g6
tp3941
F1
s(Vpickings
g12
tp3942
F1
s(VRayfel
g6
tp3943
F1
s(Vrubbing
g52
tp3944
F3
s(g2568
g112
tp3945
F24
s(Vlaps
g12
tp3946
F1
s(VHi
g6
tp3947
F1
s(Vabsurdities
g12
tp3948
F1
s(Vfigure
g19
tp3949
F2
s(Vbeyond
S'IN'
p3950
tp3951
F6
s(Vtight
g8
tp3952
F1
s(VShall
g93
tp3953
F1
s(Vintelligently
g34
tp3954
F2
s(Vpublicity
g19
tp3955
F2
s(VAim
g6
tp3956
F1
s(Vutmost
g19
tp3957
F1
s(Vsighing
g52
tp3958
F2
s(Vmentioned
g23
tp3959
F1
s(Vhonored
g8
tp3960
F3
s(Vten-strike
g8
tp3961
F1
s(Vmisdirected
g17
tp3962
F1
s(g743
g113
tp3963
F45
s(V-even
g34
tp3964
F1
s(Vwrung
g19
tp3965
F1
s(Vhimself
g1137
tp3966
F13
s(V`Mr.
g6
tp3967
F1
s(Vfar
S'RB'
p3968
tp3969
F5
s(Vrespect
g93
tp3970
F2
s(Vhilarity
g19
tp3971
F1
s(VWhich
g6
tp3972
F1
s(Vcontemplates
g32
tp3973
F1
s(Vgrow
g36
tp3974
F1
s(VDarling
g52
tp3975
F2
s(Veleven
g23
tp3976
F1
s(Vgreener
g19
tp3977
F1
s(Vglove
g19
tp3978
F3
s(g875
g231
tp3979
F26
s(Vdeposited
g23
tp3980
F1
s(Vcook
g19
tp3981
F1
s(V-the
g93
tp3982
F1
s(Videa
S'NN'
p3983
tp3984
F18
s(Ventertainments
g12
tp3985
F1
s(g113
g327
tp3986
F8
s(g276
g23
tp3987
F1
s(Vpermit
g19
tp3988
F1
s(Vbefore
g274
tp3989
F24
s(Vtearful
g8
tp3990
F1
s(Vgilded
g8
tp3991
F1
s(Vgood-breeding
g19
tp3992
F1
s(g23
g625
tp3993
F1
s(Vpine
g19
tp3994
F1
s(VMaries
g12
tp3995
F1
s(Vincumbrance
g19
tp3996
F1
s(Vfamous
g8
tp3997
F6
s(Vbuhl
g19
tp3998
F3
s(Vcraves
g32
tp3999
F1
s(VSorrento
g6
tp4000
F1
s(Vquality
g19
tp4001
F1
s(Vcoats
g12
tp4002
F8
s(Vfacts
g12
tp4003
F1
s(VWill
g290
tp4004
F2
s(Vcreep
g93
tp4005
F1
s(Vlips
g12
tp4006
F6
s(Vsombre
g32
tp4007
F1
s(Vshelf
g19
tp4008
F1
s(Vdogs
g12
tp4009
F2
s(Vkind
S'NN'
p4010
tp4011
F33
s(Vgrizzly
g19
tp4012
F1
s(Vdarkened
g8
tp4013
F1
s(g106
g1893
tp4014
F28
s(Vplunge
g19
tp4015
F1
s(Vswept
g36
tp4016
F1
s(Vsuffer
g93
tp4017
F1
s(g63
g8
tp4018
F9
s(Vourselves
g12
tp4019
F2
s(Vnotice
g19
tp4020
F1
s(Vpersonally
g34
tp4021
F1
s(Vdisarrange
g93
tp4022
F1
s(Vawaited
g17
tp4023
F1
s(Vhandsome
g8
tp4024
F11
s(Vparsonage
g19
tp4025
F1
s(Vflashing
g52
tp4026
F2
s(Velaborations
g12
tp4027
F1
s(g17
g3401
tp4028
F205
s(Vslang
g19
tp4029
F1
s(Varrived
g23
tp4030
F3
s(Vshopping
g19
tp4031
F2
s(g2112
g17
tp4032
F5
s(Vindustriously
g34
tp4033
F1
s(Vindicates
g32
tp4034
F1
s(Vcastle
g19
tp4035
F1
s(Vendeared
g23
tp4036
F1
s(Vprivate
g336
tp4037
F7
s(VRemember
g6
tp4038
F1
s(VTom
g6
tp4039
F1
s(Vtipsy
g19
tp4040
F2
s(g34
S':'
tp4041
F37
s(Vlionne
g19
tp4042
F1
s(Vpenitence
g19
tp4043
F1
s(Vrecorded
g23
tp4044
F1
s(Vmadam
g19
tp4045
F6
s(Vshadow
g19
tp4046
F1
s(VHeavens
g12
tp4047
F2
s(Vtrimming
g19
tp4048
F1
s(Varms
g12
tp4049
F7
s(VMarriage
g19
tp4050
F1
s(Vconvert
g93
tp4051
F1
s(VAsk
g6
tp4052
F2
s(Vweighs
g32
tp4053
F1
s(Vremarks
S'NNS'
p4054
tp4055
F1
s(VAround
g274
tp4056
F1
s(g3912
g113
tp4057
F419
s(Vthrust
g36
tp4058
F1
s(VBull
g6
tp4059
F1
s(Vupholsterer
g19
tp4060
F1
s(Vrobing-room
g19
tp4061
F1
s(Vmystic
g8
tp4062
F1
s(g209
g194
tp4063
F1
s(Vtowns
g12
tp4064
F1
s(g8
g106
tp4065
F8
s(g3668
g143
tp4066
F4
s(Varrayed
g36
tp4067
F1
s(Vmarriages
g12
tp4068
F2
s(V`I
g32
tp4069
F1
s(VSomebody
g19
tp4070
F1
s(VPhilip
S'NNP'
p4071
tp4072
F2
s(Vcicerone
g19
tp4073
F1
s(g113
g143
tp4074
F10
s(Vstrictly
g34
tp4075
F2
s(Vseize
g93
tp4076
F1
s(Vcalves
g12
tp4077
F8
s(V-that
g167
tp4078
F1
s(VCaf
g6
tp4079
F1
s(VMais
g6
tp4080
F1
s(Vwell
g36
tp4081
F1
s(Vfriendly
g8
tp4082
F2
s(Vread
g36
tp4083
F1
s(Vthrow
g93
tp4084
F1
s(Vstimulated
g23
tp4085
F1
s(Vbit
g19
tp4086
F5
s(Vshort
g34
tp4087
F1
s(Vshabby
g19
tp4088
F1
s(Vstupid
g8
tp4089
F1
s(Vtasteful
g8
tp4090
F3
s(Vdrowsy
g19
tp4091
F1
s(Vquantity
g19
tp4092
F1
s(Vsolemnly
g34
tp4093
F1
s(Vconcluded
g17
tp4094
F4
s(g412
g19
tp4095
F53
s(Vembarrassment
g19
tp4096
F1
s(Vlaughed
g23
tp4097
F2
s(Vcoat
g19
tp4098
F3
s(VEmperors
g12
tp4099
F1
s(Vpreached
g17
tp4100
F1
s(VDe
g6
tp4101
F18
s(Vwearied
g8
tp4102
F1
s(Vresponsibility
g19
tp4103
F1
s(Vhatred
g23
tp4104
F1
s(Vobviously
g34
tp4105
F1
s(Vwarmer
g8
tp4106
F1
s(Vbewitching
g8
tp4107
F1
s(Vhistories
g12
tp4108
F1
s(Vblooming
g52
tp4109
F1
s(Varranged
g17
tp4110
F1
s(Vadmit
g93
tp4111
F1
s(Vlate
g34
tp4112
F1
s(Vcommunion
g19
tp4113
F1
s(V-regretting
g52
tp4114
F1
s(Vservants
g12
tp4115
F3
s(Vdozed
g17
tp4116
F1
s(Vknow
g36
tp4117
F81
s(g81
g32
tp4118
F49
s(Vhousekeeping
g19
tp4119
F1
s(Vcrimson
g19
tp4120
F1
s(Vcompanions
g12
tp4121
F2
s(Vreward
g19
tp4122
F1
s(Vpossibilities
g12
tp4123
F1
s(g274
g561
tp4124
F792
s(Vgoods
S'NNS'
p4125
tp4126
F1
s(Vmine
g93
tp4127
F1
s(Vstatuary
g8
tp4128
F1
s(Vpart
S'NN'
p4129
tp4130
F16
s(Vashamed
g8
tp4131
F1
s(V-in
g274
tp4132
F1
s(VTheir
g27
tp4133
F3
s(Vbench
g19
tp4134
F1
s(VVaudeville
g6
tp4135
F1
s(Vclinging
g19
tp4136
F1
s(Vfresh
g8
tp4137
F8
s(Vswears
g32
tp4138
F1
s(g24
g34
tp4139
F2
s(VRecall
g6
tp4140
F1
s(Vfrank
g8
tp4141
F1
s(Vdi
g32
tp4142
F1
s(g128
g276
tp4143
F25
s(Vsad
g19
tp4144
F1
s(Vreturn
g93
tp4145
F6
s(Vsmirk
g19
tp4146
F1
s(Vproffering
g52
tp4147
F1
s(Vgranddaughter
g19
tp4148
F1
s(g476
g1243
tp4149
F4
s(Vshut
g19
tp4150
F1
s(g34
g34
tp4151
F226
s(Ventertainment
S'NN'
p4152
tp4153
F1
s(Vfollowing
g52
tp4154
F2
s(VLatin
g6
tp4155
F1
s(Varrange
g93
tp4156
F2
s(VCam
g6
tp4157
F1
s(Vstranger
g19
tp4158
F1
s(Vfulfilment
g19
tp4159
F1
s(Vbalance
g19
tp4160
F2
s(g3340
S'('
tp4161
F2
s(Vtrying
S'VBG'
p4162
tp4163
F4
s(Vardent
g8
tp4164
F1
s(VStewart
g6
tp4165
F3
s(Vlurch
g93
tp4166
F1
s(Vastonishing
g52
tp4167
F4
s(Vwheezes
g32
tp4168
F1
s(Vpunchbowl
g19
tp4169
F1
s(Vshining
g52
tp4170
F1
s(Varrives
g12
tp4171
F1
s(Vgold
g8
tp4172
F5
s(Vquizzical
g8
tp4173
F1
s(g128
g52
tp4174
F68
s(Vlivery
g8
tp4175
F1
s(Vfinally
S'RB'
p4176
tp4177
F7
s(Vflower
g63
tp4178
F1
s(Vobjected
g17
tp4179
F1
s(Vbig
S'JJ'
p4180
tp4181
F1
s(Vconfess
g93
tp4182
F5
s(Vhoney
g19
tp4183
F1
s(VElysees
g6
tp4184
F1
s(Vend-to-end
g19
tp4185
F1
s(Vdrudgery
g19
tp4186
F1
s(Vclaim
g19
tp4187
F1
s(Vhelped
g23
tp4188
F4
s(Vnext
g274
tp4189
F2
s(Vease
g19
tp4190
F6
s(Veighty-five
g8
tp4191
F1
s(Vsung
g23
tp4192
F1
s(VGnus
g6
tp4193
F2
s(Vsatin
g19
tp4194
F1
s(Vwhere
g875
tp4195
F39
s(Vtries
g32
tp4196
F2
s(VBedouin
g6
tp4197
F1
s(VBaltimore
g6
tp4198
F1
s(Vbabies
g12
tp4199
F1
s(Vpicture-agent
g19
tp4200
F1
s(Vhusband
g19
tp4201
F7
s(Vruler
g19
tp4202
F1
s(Vare
g625
tp4203
F266
s(Vmisty
g8
tp4204
F1
s(Vguest
g19
tp4205
F1
s(Valter
g8
tp4206
F1
s(Vreception
g19
tp4207
F1
s(Vcatch
g93
tp4208
F2
s(VCAROLINE
g6
tp4209
F2
s(V-vang
g6
tp4210
F1
s(Ve
g227
tp4211
F1
s(Vplay
g19
tp4212
F2
s(Vabove
g274
tp4213
F1
s(Vregarded
g23
tp4214
F2
s(V-in
g32
tp4215
F1
s(Vtook
S'VBD'
p4216
tp4217
F7
s(Vbother
g34
tp4218
F1
s(Vomitting
g52
tp4219
F1
s(Velse
g8
tp4220
F2
s(VWhere
g106
tp4221
F4
s(VNothing
g19
tp4222
F1
s(Vcut-glass
g19
tp4223
F1
s(g52
g93
tp4224
F1
s(Vcontinued
g17
tp4225
F9
s(Vproceeded
g17
tp4226
F1
s(V-reputed
g17
tp4227
F1
s(g90
g2115
tp4228
F3
s(Vgamesters
g12
tp4229
F1
s(V-Here
g274
tp4230
F1
s(Vmass
g19
tp4231
F2
s(Vca
S'MD'
p4232
tp4233
F19
s(Vought
g290
tp4234
F18
s(Vyourself
g561
tp4235
F13
s(Vbecause
g34
tp4236
F1
s(Vfreely
g34
tp4237
F2
s(g474
S':'
tp4238
F2
s(Vevanescent
g8
tp4239
F1
s(Vwainscotted
g17
tp4240
F1
s(VPodge
g6
tp4241
F4
s(Vas
g274
tp4242
F285
s(Vborrow
g93
tp4243
F1
s(S')'
S'MD'
p4244
tp4245
F1
s(Vdocile
g19
tp4246
F1
s(Vlook
g36
tp4247
F7
s(Vthief
g19
tp4248
F1
s(Vgreat
S'JJ'
p4249
tp4250
F68
s(Vdeclares
g32
tp4251
F1
s(Vbore
g19
tp4252
F1
s(Vvariously
g34
tp4253
F1
s(Vinnocent
g8
tp4254
F5
s(V-how
g34
tp4255
F3
s(Vsold
g23
tp4256
F1
s(Vfool
g19
tp4257
F5
s(Vmean
g93
tp4258
F17
s(VMeditation
g19
tp4259
F2
s(VProbably
g34
tp4260
F1
s(Vrepresents
S'VBZ'
p4261
tp4262
F1
s(g8
g159
tp4263
F3
s(Vexcited
g8
tp4264
F2
s(Vbank-bills
g12
tp4265
F1
s(Vunless
S'IN'
p4266
tp4267
F5
s(Vlay
g17
tp4268
F3
s(Vallies
g12
tp4269
F1
s(Vemerald
g19
tp4270
F1
s(g143
g19
tp4271
F43
s(VDoughface
g6
tp4272
F1
s(Vbottle
g19
tp4273
F1
s(Vsmoothing
g52
tp4274
F1
s(Vsun
g19
tp4275
F5
s(V-that
g274
tp4276
F3
s(Vbreaking
g52
tp4277
F3
s(Vlight
g8
tp4278
F3
s(g2349
g1444
tp4279
F12
s(Vresignation
S'NN'
p4280
tp4281
F2
s(Vcall
g36
tp4282
F5
s(Vagreeably
g34
tp4283
F1
s(Vopera
g19
tp4284
F16
s(Vdirect
g93
tp4285
F1
s(g758
g12
tp4286
F8
s(Vruffles
g12
tp4287
F1
s(Vfragrance
g19
tp4288
F1
s(Vlives
g32
tp4289
F1
s(Valtogether
g19
tp4290
F1
s(g474
g209
tp4291
F3
s(Vcountry
S'NN'
p4292
tp4293
F35
s(Vcount
g93
tp4294
F2
s(V-husband
g19
tp4295
F1
s(VDearest
g6
tp4296
F2
s(Vhandsome
g17
tp4297
F1
s(Vempty
g8
tp4298
F1
s(VJames
S'NNP'
p4299
tp4300
F18
s(Vhopped
g17
tp4301
F1
s(Vpregnant
g8
tp4302
F1
s(Vforget
g93
tp4303
F6
s(g27
g2977
tp4304
F1
s(VMatthews
g6
tp4305
F1
s(Vstudy
g19
tp4306
F1
s(Vson
g19
tp4307
F11
s(g209
g231
tp4308
F8
s(VFrenchmen
g6
tp4309
F2
s(V-approving
g52
tp4310
F1
s(Vhost.
g19
tp4311
F1
s(Vgiddy
g8
tp4312
F1
s(Vmantels
g12
tp4313
F1
s(Vconquests
g12
tp4314
F1
s(Vadvantages
g12
tp4315
F1
s(Vannoyed
g23
tp4316
F2
s(VGod
g6
tp4317
F3
s(Vmother
g19
tp4318
F9
s(g143
g106
tp4319
F34
s(Vpeculiar
g19
tp4320
F1
s(Vpoor
S'JJ'
p4321
tp4322
F19
s(Vconfused
g23
tp4323
F3
s(S'RB'
p4324
g905
tp4325
F1
s(VAllons
g12
tp4326
F1
s(Vkept
g23
tp4327
F1
s(Vexpanse
g19
tp4328
F1
s(Valso
S'RB'
p4329
tp4330
F8
s(Vlies
g32
tp4331
F2
s(VGermania
g6
tp4332
F1
s(Vdinde
g19
tp4333
F2
s(Vremark
g36
tp4334
F1
s(Vweapons
S'NNS'
p4335
tp4336
F1
s(Vhang
g93
tp4337
F1
s(Vpassed
g23
tp4338
F1
s(VPlato
g6
tp4339
F1
s(Vnecks
g12
tp4340
F1
s(Vobserve
g36
tp4341
F4
s(Vsegreto
g19
tp4342
F1
s(g36
g374
tp4343
F3
s(Vspecies
g12
tp4344
F1
s(VVII
g6
tp4345
F1
s(Vkey
g19
tp4346
F2
s(Vbrought
g23
tp4347
F1
s(Vpolitical
S'JJ'
p4348
tp4349
F1
s(VKing
g6
tp4350
F3
s(Vdirect
g8
tp4351
F1
s(Vscions
g12
tp4352
F1
s(Vsilently
g34
tp4353
F3
s(Vma'am
g19
tp4354
F2
s(VNature
g6
tp4355
F4
s(Vcolored
g8
tp4356
F3
s(Vde
g227
tp4357
F17
s(S','
g143
tp4358
F133
s(Vbusiness
S'NN'
p4359
tp4360
F9
s(Vtried
g17
tp4361
F3
s(g112
g14
tp4362
F3
s(Vpointless
g19
tp4363
F1
s(Vdread
g8
tp4364
F1
s(Vanswer
g93
tp4365
F4
s(Vhumbly
g34
tp4366
F3
s(V`I
g12
tp4367
F1
s(VSybarite
g6
tp4368
F1
s(Vhad
g17
tp4369
F115
s(VZeno
g6
tp4370
F1
s(Vworked
g17
tp4371
F1
s(Vpromised
g17
tp4372
F1
s(Vsupposed
g23
tp4373
F1
s(Vaside
g34
tp4374
F1
s(VVoil
g6
tp4375
F1
s(Vbarricade
g93
tp4376
F1
s(Velegance
g19
tp4377
F4
s(Vpractical
g8
tp4378
F1
s(Vfirst
g8
tp4379
F10
s(Vinsupportable
g8
tp4380
F1
s(Vennui
g19
tp4381
F3
s(Vmiddle-aged
g8
tp4382
F1
s(Vblows
g32
tp4383
F1
s(Vcompletely
g34
tp4384
F1
s(Vculmination
g19
tp4385
F1
s(Vgrouping
g52
tp4386
F1
s(Vprogress
g19
tp4387
F2
s(g93
g34
tp4388
F104
s(Vhors
g12
tp4389
F1
s(Vstatesman
g19
tp4390
F1
s(Vafterwards
g12
tp4391
F2
s(VBrigadier-General
g6
tp4392
F1
s(Vmyself
g19
tp4393
F1
s(g19
g227
tp4394
F2
s(Vees
g32
tp4395
F1
s(g905
g12
tp4396
F24
s(VBobbs
g6
tp4397
F1
s(g14
g907
tp4398
F5
s(Vlaws
S'NNS'
p4399
tp4400
F1
s(Vfuture
g8
tp4401
F3
s(Vdecency
g19
tp4402
F2
s(Vstripe
g19
tp4403
F1
s(Vwiser
g32
tp4404
F1
s(Vallowance
g19
tp4405
F1
s(Vclerk
g19
tp4406
F4
s(Vhappened
g17
tp4407
F1
s(Vcontent
g19
tp4408
F1
s(Vname
g19
tp4409
F16
s(Vleague
g19
tp4410
F2
s(Vfans
g12
tp4411
F2
s(Voften
S'RB'
p4412
tp4413
F12
s(VCattle
g6
tp4414
F1
s(VStarr
g6
tp4415
F1
s(Vremembrance
g19
tp4416
F1
s(Vamusing
g52
tp4417
F1
s(Vdeclared
g23
tp4418
F1
s(VNobility
g6
tp4419
F1
s(Vfairer
g63
tp4420
F1
s(VFamily
g34
tp4421
F1
s(Vplaced
g23
tp4422
F1
s(Vtraining
g19
tp4423
F1
s(Vskilful
g8
tp4424
F1
s(Vcloaking
g19
tp4425
F1
s(Vlunatic
g8
tp4426
F1
s(Vmelancholy
g8
tp4427
F2
s(Vknown
g23
tp4428
F7
s(V-with
g19
tp4429
F1
s(VLawson
S'NNP'
p4430
tp4431
F6
s(Vnursery
g19
tp4432
F1
s(Vtired
g23
tp4433
F6
s(Vputs
g32
tp4434
F1
s(Vbuilding
g19
tp4435
F1
s(Vrecklessness
g19
tp4436
F1
s(Vdelicately
g34
tp4437
F2
s(Vappalled
g23
tp4438
F1
s(Veach
g3605
tp4439
F12
s(Vhunted
g17
tp4440
F1
s(g36
g24
tp4441
F1
s(Vgoes
S'VBZ'
p4442
tp4443
F18
s(Venvelope
g19
tp4444
F1
s(Vsort
g19
tp4445
F4
s(g81
g678
tp4446
F5
s(Vdance
g19
tp4447
F12
s(Vunsual
g8
tp4448
F1
s(Vslight
g8
tp4449
F3
s(Vweak
S'JJ'
p4450
tp4451
F5
s(Vlovely
g34
tp4452
F3
s(g52
g2568
tp4453
F20
s(S'('
g3434
tp4454
F2
s(Vhanded
g23
tp4455
F1
s(Vchances
g12
tp4456
F2
s(Vgreatness
g19
tp4457
F1
s(VSummer
g6
tp4458
F2
s(Vdrops
g12
tp4459
F1
s(g23
g2349
tp4460
F41
s(VMazzini
g6
tp4461
F1
s(Vperceives
g32
tp4462
F1
s(Vensnare
g93
tp4463
F1
s(Vwore
g17
tp4464
F5
s(Vlie
g19
tp4465
F2
s(Vmainly
g34
tp4466
F1
s(Vsurvive
g93
tp4467
F1
s(Vconcealed
g23
tp4468
F1
s(VP.
g6
tp4469
F112
s(Vseemed
g17
tp4470
F4
s(Vstatuettes
g12
tp4471
F1
s(Vfavors
g12
tp4472
F3
s(Vverses
g12
tp4473
F1
s(Vlead
g93
tp4474
F2
s(Vwithdrawing
g52
tp4475
F1
s(Vemulation
g19
tp4476
F1
s(Vpetit
g19
tp4477
F1
s(VStates
g159
tp4478
F4
s(Vknocks
g12
tp4479
F1
s(Vedge
g19
tp4480
F3
s(Vexpensive
g8
tp4481
F2
s(Vtruth
g93
tp4482
F1
s(Vlonging
g19
tp4483
F2
s(Vtreating
g52
tp4484
F2
s(Vbutt
g19
tp4485
F2
s(Vmilitary
g8
tp4486
F5
s(Vqueen
g19
tp4487
F1
s(Vrang
g19
tp4488
F2
s(Vbeside
g274
tp4489
F3
s(Vflounces
g12
tp4490
F2
s(g769
g182
tp4491
F6
s(VTrois
g6
tp4492
F1
s(Vcr
g8
tp4493
F1
s(Vwickedness
g19
tp4494
F1
s(Vago
g34
tp4495
F8
s(VPOTIPHAR
g6
tp4496
F2
s(Vdoubt
g19
tp4497
F6
s(Vage
S'NN'
p4498
tp4499
F3
s(Vdamsel
g19
tp4500
F1
s(g905
g209
tp4501
F1
s(Vstay
g36
tp4502
F2
s(Vold-fashioned
g8
tp4503
F1
s(Vflourish
g19
tp4504
F1
s(VPrecisely
g34
tp4505
F1
s(Vawful
g19
tp4506
F1
s(Vplayed
g23
tp4507
F1
s(Vreplied
g23
tp4508
F1
s(Vfills
g32
tp4509
F2
s(Vpity
g19
tp4510
F6
s(Vmore
g476
tp4511
F38
s(Vnatural
S'JJ'
p4512
tp4513
F3
s(Vdusty
g19
tp4514
F1
s(Vdropped
g17
tp4515
F1
s(g63
g622
tp4516
F27
s(Vslave
g19
tp4517
F2
s(Venduring
g52
tp4518
F1
s(Vbuilding
g52
tp4519
F1
s(Vmuslin
g19
tp4520
F5
s(VMen
g182
tp4521
F1
s(S','
g93
tp4522
F40
s(Vsystem
S'NN'
p4523
tp4524
F2
s(Vstrikes
g32
tp4525
F2
s(V-so
g93
tp4526
F1
s(g34
g841
tp4527
F115
s(VTuesdays
g6
tp4528
F1
s(Vcloth
g19
tp4529
F2
s(g52
g3401
tp4530
F118
s(Vearth
g19
tp4531
F1
s(Vsuffering
g52
tp4532
F1
s(VSundays
g6
tp4533
F4
s(Vreceived
g17
tp4534
F1
s(g198
g36
tp4535
F1
s(VLilliput
g6
tp4536
F1
s(g8
g561
tp4537
F37
s(Vveut
g19
tp4538
F1
s(Vpair
g19
tp4539
F3
s(Vwould
g621
tp4540
F104
s(Vpresent
g93
tp4541
F2
s(Veasiest
g182
tp4542
F2
s(Vplenty
g19
tp4543
F1
s(Vaffect
g93
tp4544
F2
s(Ves
g19
tp4545
F1
s(Vinterior
g19
tp4546
F2
s(Vfelicities
g12
tp4547
F1
s(Vtalk
g93
tp4548
F13
s(Vopen
g8
tp4549
F2
s(Vcompromise
g93
tp4550
F1
s(Vpapas
g19
tp4551
F1
s(Vwhim
g19
tp4552
F9
s(Vthird
g8
tp4553
F1
s(Vwide
S'JJ'
p4554
tp4555
F1
s(S':'
S'DT'
p4556
tp4557
F22
s(Vboyish
g8
tp4558
F2
s(Vmiss
g93
tp4559
F1
s(Vbeneficent
g8
tp4560
F1
s(Vadored
g8
tp4561
F1
s(Vshocking
g52
tp4562
F1
s(Vperil
g19
tp4563
F1
s(Vsnare
g19
tp4564
F1
s(Vaccidents
g12
tp4565
F1
s(Venemies
g12
tp4566
F2
s(Vloves
g32
tp4567
F2
s(V-sighing
g52
tp4568
F1
s(Vabsurd
g8
tp4569
F7
s(Vdescribe
g93
tp4570
F1
s(Vregion
S'NN'
p4571
tp4572
F2
s(Vlose
g93
tp4573
F7
s(V's
g905
tp4574
F157
s(Vconfirm
g36
tp4575
F1
s(Vwasted
g23
tp4576
F1
s(VSinge
g19
tp4577
F1
s(Vcelebrities
g12
tp4578
F1
s(Vheaven
g34
tp4579
F1
s(Vtitle
g19
tp4580
F1
s(Vcorn
S'NN'
p4581
tp4582
F1
s(Vpretence
g19
tp4583
F2
s(VFar
g6
tp4584
F1
s(Vscale
g19
tp4585
F1
s(Vgossamer
g19
tp4586
F1
s(Vpleasanter
g19
tp4587
F1
s(Vpanting
g52
tp4588
F1
s(V-Oh
g19
tp4589
F2
s(Vcorps-de-ballet
g19
tp4590
F2
s(g23
g231
tp4591
F45
s(Vachieved
g17
tp4592
F1
s(Vtease
g36
tp4593
F1
s(Vspoken
g23
tp4594
F2
s(V-is
g93
tp4595
F2
s(Vpotent
g8
tp4596
F2
s(Vwaving
g19
tp4597
F1
s(Vletters
S'NNS'
p4598
tp4599
F1
s(Voddest
g182
tp4600
F1
s(Vrelationship
S'NN'
p4601
tp4602
F1
s(g622
g374
tp4603
F26
s(VEnglish
g93
tp4604
F3
s(Vcome
g93
tp4605
F19
s(VBesides
g12
tp4606
F1
s(VMesdames
g6
tp4607
F2
s(Vunmanly
g8
tp4608
F1
s(Va
g1777
tp4609
F932
s(Vhistorical
g8
tp4610
F2
s(Vpay
g93
tp4611
F12
s(Vmanhood
g19
tp4612
F4
s(Vspeak
g19
tp4613
F1
s(Vcoachman
g19
tp4614
F5
s(Vsatirical
g8
tp4615
F2
s(Vdriving
g8
tp4616
F1
s(Vchurch
g19
tp4617
F14
s(g327
S'.'
tp4618
F7
s(Vcompliment
g19
tp4619
F1
s(Vprolonged
g8
tp4620
F4
s(Vgaiters
g12
tp4621
F1
s(Vmissionaries
g12
tp4622
F1
s(Veating
g52
tp4623
F2
s(Vdeeper
g63
tp4624
F1
s(g209
g597
tp4625
F1
s(Vtranquil
g8
tp4626
F1
s(Vmarried
g17
tp4627
F7
s(Vthem
g758
tp4628
F101
s(Vknee-breeched
g8
tp4629
F1
s(Vfrugality
g19
tp4630
F1
s(Vgenial
g8
tp4631
F1
s(Vwrung
g23
tp4632
F1
s(Vtoilettes
g12
tp4633
F2
s(Vcrossing
g52
tp4634
F1
s(Vheavens
g12
tp4635
F3
s(VD
g6
tp4636
F1
s(Vgroup
S'NN'
p4637
tp4638
F3
s(Vfull
S'JJ'
p4639
tp4640
F8
s(Vmad
g8
tp4641
F2
s(Vbeen
g1669
tp4642
F51
s(Vho
g19
tp4643
F1
s(Vtell
g93
tp4644
F12
s(Vplus
g989
tp4645
F1
s(Vsmiled
g17
tp4646
F10
s(Vsuperciliousness
g19
tp4647
F1
s(Vintercourse
g19
tp4648
F1
s(Vweeks
S'NNS'
p4649
tp4650
F5
s(Vessay
g19
tp4651
F1
s(Vsplendor
g19
tp4652
F7
s(Vseal
g19
tp4653
F1
s(VStereotyped
g23
tp4654
F1
s(Vyes
g74
tp4655
F6
s(Vsurpass
g93
tp4656
F2
s(Vdanced
g17
tp4657
F4
s(Vcommanded
g23
tp4658
F1
s(Valmost
S'RB'
p4659
tp4660
F6
s(g81
g17
tp4661
F21
s(Vspoil
g93
tp4662
F1
s(Vadvantage
g19
tp4663
F1
s(Vcost
g17
tp4664
F1
s(Vconsonant
g8
tp4665
F1
s(Vlady
g34
tp4666
F1
s(Varticles
g12
tp4667
F1
s(VGive
g93
tp4668
F1
s(Vdiplomatist
g19
tp4669
F1
s(Vfascinating
g52
tp4670
F1
s(Vboar-hunt
g19
tp4671
F1
s(Vhas
g3670
tp4672
F82
s(Vlivery
g19
tp4673
F20
s(g143
g8
tp4674
F42
s(Vhumming
g52
tp4675
F3
s(Vo'clock
g12
tp4676
F1
s(Vpitch
g19
tp4677
F3
s(Vspoiled
g23
tp4678
F2
s(Vstained
g23
tp4679
F1
s(VFirkins
g6
tp4680
F1
s(Vwaltzing
g52
tp4681
F1
s(Vprefer
g36
tp4682
F4
s(Vpurposes
g12
tp4683
F1
s(Vgrowling
g19
tp4684
F1
s(Vabounding
g19
tp4685
F1
s(Vsayings
g12
tp4686
F1
s(VNymph
g6
tp4687
F1
s(Vhalf
g32
tp4688
F1
s(Vmisfortune
g19
tp4689
F2
s(g128
g182
tp4690
F1
s(Vwants
S'VBZ'
p4691
tp4692
F5
s(Vupon
g19
tp4693
F1
s(Vsuspected
g17
tp4694
F1
s(Vtrace
g93
tp4695
F1
s(Vsurprising
g8
tp4696
F1
s(Vfreedom
g19
tp4697
F1
s(Vcareful
g8
tp4698
F3
s(Vabsurdly
g34
tp4699
F1
s(Vdescended
g23
tp4700
F2
s(Vbread
g19
tp4701
F1
s(Vneat
g8
tp4702
F2
s(Vtrorsy
g19
tp4703
F2
s(Vindefinitely
g34
tp4704
F1
s(Vpainful
g8
tp4705
F1
s(Vparted
g23
tp4706
F2
s(VLa
g6
tp4707
F1
s(g36
g34
tp4708
F319
s(Vlaughter
g19
tp4709
F6
s(Vpointing
g52
tp4710
F1
s(Vsad
g8
tp4711
F10
s(g167
g84
tp4712
F49
s(V-and
g93
tp4713
F2
s(Vthrown
g23
tp4714
F2
s(Vlore
g34
tp4715
F1
s(Vtopic
g19
tp4716
F1
s(Vcommissionaire
g19
tp4717
F9
s(Vcourteous
g8
tp4718
F1
s(g84
g769
tp4719
F411
s(Vtoilette
g19
tp4720
F5
s(Vimprove
g93
tp4721
F1
s(Vpatriotic
g8
tp4722
F3
s(Venvied
g17
tp4723
F1
s(Vwhirlwind
g19
tp4724
F1
s(Vdeny
g36
tp4725
F1
s(VSETTUM
g6
tp4726
F1
s(Vinvited
g17
tp4727
F2
s(g234
g19
tp4728
F35
s(Vbowing
g52
tp4729
F1
s(Vinevitably
g34
tp4730
F2
s(Vemphasized
g23
tp4731
F1
s(g327
S','
tp4732
F11
s(Vdespise
g36
tp4733
F2
s(Vanswered
g17
tp4734
F17
s(Vpour
g36
tp4735
F1
s(Vcull
g36
tp4736
F1
s(Vpa
g93
tp4737
F1
s(Vyesterday
S'NN'
p4738
tp4739
F1
s(Vtastes
g12
tp4740
F3
s(Vfortnight
g19
tp4741
F1
s(Vcentury
S'NN'
p4742
tp4743
F1
s(VAgue
g6
tp4744
F3
s(g3340
g81
tp4745
F1
s(Vattractions
g12
tp4746
F1
s(Vmines
g12
tp4747
F1
s(Vimitates
g32
tp4748
F1
s(VGomorrah
g6
tp4749
F1
s(Vinstinct
g19
tp4750
F1
s(Vfield-day
g8
tp4751
F1
s(g27
g34
tp4752
F10
s(Vglance
g19
tp4753
F1
s(Vdeclined
g17
tp4754
F1
s(g17
g23
tp4755
F99
s(Vburst
g32
tp4756
F1
s(g3424
g63
tp4757
F6
s(VMa
g6
tp4758
F1
s(VAh
g19
tp4759
F7
s(Vcorruption
g19
tp4760
F1
s(Vdilettante
g19
tp4761
F1
s(Vconditions
S'NNS'
p4762
tp4763
F1
s(S'WP'
p4764
g476
tp4765
F1
s(Vmusic-seller
g19
tp4766
F1
s(Vwait
g36
tp4767
F1
s(Vworn-out
g19
tp4768
F1
s(S','
g12
tp4769
F34
s(Vdragging
g52
tp4770
F1
s(V-lappels
g12
tp4771
F1
s(g23
g128
tp4772
F12
s(Vdescendants
g12
tp4773
F1
s(g74
S','
tp4774
F37
s(Vlooks
g32
tp4775
F12
s(g905
g1262
tp4776
F2
s(Vbuyer
S'NN'
p4777
tp4778
F2
s(Vrecognize
g93
tp4779
F2
s(g19
g3424
tp4780
F11
s(Vstroll
g36
tp4781
F1
s(Vdelights
g32
tp4782
F1
s(Vassociation
g19
tp4783
F2
s(Vstops
g12
tp4784
F1
s(Vstory
S'NN'
p4785
tp4786
F10
s(Vburst
g19
tp4787
F1
s(VSand
g6
tp4788
F2
s(VCarbuncle
g6
tp4789
F1
s(Vcanvas
g19
tp4790
F1
s(Vmanifold
g8
tp4791
F1
s(Vwife
S'NN'
p4792
tp4793
F16
s(Vcarved
g23
tp4794
F1
s(Vsets
g32
tp4795
F1
s(Vjour
g19
tp4796
F1
s(VPrivately
g34
tp4797
F1
s(Vsare
g19
tp4798
F1
s(Vchucked
g17
tp4799
F1
s(Vproves
g32
tp4800
F1
s(Vtry
g19
tp4801
F1
s(Vwonderful
g8
tp4802
F1
s(Valluring
g52
tp4803
F2
s(Vbullied
g23
tp4804
F1
s(Vcheek
g19
tp4805
F1
s(g84
g52
tp4806
F141
s(VHebrew
g6
tp4807
F1
s(S':'
g19
tp4808
F52
s(g1262
g63
tp4809
F1
s(Vamused
g23
tp4810
F1
s(Vpaint
g19
tp4811
F1
s(Vclock
g19
tp4812
F3
s(Vquietly
g34
tp4813
F10
s(Vsummer
S'NN'
p4814
tp4815
F10
s(Vdevil
g19
tp4816
F2
s(Vseeks
g32
tp4817
F1
s(Vcircles
g12
tp4818
F2
s(Vdoor
g19
tp4819
F18
s(g12
g84
tp4820
F385
s(Vfrightened
g8
tp4821
F1
s(VManners
g12
tp4822
F1
s(Vmight
g722
tp4823
F37
s(Vlots
g12
tp4824
F2
s(Vresidence
g19
tp4825
F4
s(Vevinced
g17
tp4826
F1
s(Vacknowledged
g17
tp4827
F1
s(Vdread
g93
tp4828
F1
s(Vfall
g93
tp4829
F3
s(VWas
g290
tp4830
F3
s(Vcrawl
g32
tp4831
F1
s(Vup
g34
tp4832
F29
s(Vmatters
g12
tp4833
F4
s(Vclean
g8
tp4834
F3
s(Vwhistling
g52
tp4835
F1
s(Vgovernment
S'NN'
p4836
tp4837
F1
s(g3107
S','
tp4838
F38
s(Vdifficult
S'JJ'
p4839
tp4840
F1
s(Vstunning
g19
tp4841
F1
s(Vinnate
g8
tp4842
F1
s(VLETTERS
g6
tp4843
F1
s(Vdexterously
g34
tp4844
F2
s(g209
g19
tp4845
F9
s(Vdawn
g19
tp4846
F1
s(Vimmortelle
g19
tp4847
F1
s(Vtheatre
g19
tp4848
F2
s(S'PRP'
p4849
g143
tp4850
F1
s(Vlast
S'JJ'
p4851
tp4852
F22
s(Vquelque
g19
tp4853
F1
s(Vowner
S'NN'
p4854
tp4855
F2
s(Vsanctimonious
g8
tp4856
F1
s(Valthough
S'IN'
p4857
tp4858
F10
s(Vbrocade
g19
tp4859
F1
s(g276
g143
tp4860
F1
s(VLe
g6
tp4861
F1
s(Vhook
g19
tp4862
F2
s(Vfriend
g19
tp4863
F29
s(Vpolking
g52
tp4864
F1
s(Vonly
g8
tp4865
F12
s(S':'
g907
tp4866
F1
s(Vgambling
g19
tp4867
F1
s(Vbargain
g36
tp4868
F1
s(Vshakes
g32
tp4869
F1
s(Vsecondly
g34
tp4870
F1
s(Vgravestones
g12
tp4871
F1
s(g905
S'.'
tp4872
F14
s(VSaratoga
g6
tp4873
F11
s(g17
g474
tp4874
F28
s(Vrepresentatives
S'NNS'
p4875
tp4876
F2
s(Vput
g23
tp4877
F3
s(Vencountered
g17
tp4878
F1
s(Vcoat-sleeves
g12
tp4879
F1
s(Vrid
g8
tp4880
F1
s(Vexpresses
g32
tp4881
F1
s(Vknees
g12
tp4882
F1
s(g12
g905
tp4883
F5
s(Vupon
g274
tp4884
F122
s(Vchange
g19
tp4885
F2
s(Vsatiety
g19
tp4886
F1
s(Vdrops
g32
tp4887
F1
s(Vsink
g93
tp4888
F1
s(Venjoyed
g17
tp4889
F1
s(Vthirdly
g34
tp4890
F2
s(V-dear
g274
tp4891
F1
s(g129
g19
tp4892
F200
s(Vinsufficient
g8
tp4893
F1
s(Vtruth-telling
g8
tp4894
F1
s(Vout
g474
tp4895
F44
s(Vhardier
g63
tp4896
F1
s(Vpapa
g8
tp4897
F1
s(VIrish
g6
tp4898
F1
s(Vmultiplaying
g52
tp4899
F1
s(g17
g112
tp4900
F6
s(VDirectory
g6
tp4901
F1
s(Vwished
g17
tp4902
F2
s(Vheed
g93
tp4903
F1
s(Vsubjects
g12
tp4904
F1
s(Vbegan
S'VBD'
p4905
tp4906
F5
s(Vfan
g19
tp4907
F4
s(Voff
g274
tp4908
F7
s(Vtickle
g36
tp4909
F3
s(Vfortunate
g8
tp4910
F1
s(Vnotorious
g8
tp4911
F1
s(Von
g1677
tp4912
F77
s(Vhear
g93
tp4913
F24
s(Varmy
g19
tp4914
F2
s(g327
g621
tp4915
F5
s(Vago
g274
tp4916
F3
s(Vartists
g12
tp4917
F1
s(g3474
g63
tp4918
F5
s(Vslightly
S'RB'
p4919
tp4920
F1
s(g209
g14
tp4921
F38
s(Vchoice
S'NN'
p4922
tp4923
F2
s(Vhoped
g17
tp4924
F2
s(Vspring
g52
tp4925
F1
s(Vpersuaded
g23
tp4926
F2
s(Vsmitten
g8
tp4927
F2
s(Vupon
g8
tp4928
F1
s(Vworth
g19
tp4929
F1
s(Vend
g19
tp4930
F5
s(Vmildly
g34
tp4931
F1
s(Vpretend
g93
tp4932
F2
s(Vcopy
g19
tp4933
F2
s(Vpunch
g19
tp4934
F2
s(VUPON
g6
tp4935
F1
s(Vdonc
g19
tp4936
F1
s(Vworks
g12
tp4937
F3
s(Vreplies
g32
tp4938
F1
s(Vglass
g19
tp4939
F13
s(VPresident
g3939
tp4940
F2
s(Vrule
g19
tp4941
F1
s(g12
g24
tp4942
F1
s(Vpig
g19
tp4943
F1
s(g2568
g1093
tp4944
F17
s(Vla
g227
tp4945
F1
s(g875
g374
tp4946
F1
s(Vproofs
g19
tp4947
F1
s(Vstopping
g52
tp4948
F1
s(Vhemisphere
g19
tp4949
F1
s(Vpleasing
g52
tp4950
F1
s(VAND
g6
tp4951
F1
s(Vmischief
g19
tp4952
F1
s(VCajoling
g52
tp4953
F1
s(VJardin
g6
tp4954
F3
s(Vliberal
g8
tp4955
F1
s(g209
S'.'
tp4956
F1
s(Vrefreshed
g23
tp4957
F1
s(Vpersistence
g19
tp4958
F1
s(Vfurniture
g19
tp4959
F8
s(Vmillionnaires
g12
tp4960
F1
s(Vcongress
g19
tp4961
F2
s(Vprecipices
g12
tp4962
F1
s(Vinsisted
g17
tp4963
F3
s(Vrate
S'NN'
p4964
tp4965
F2
s(Vnovel
g19
tp4966
F1
s(Vstammered
g17
tp4967
F1
s(Vcetainly
g34
tp4968
F1
s(Vexaggerated
g8
tp4969
F3
s(Vascertain
g93
tp4970
F2
s(Vseem
g93
tp4971
F6
s(Vreply
g93
tp4972
F1
s(Vthinks
g32
tp4973
F8
s(VChristian
g6
tp4974
F1
s(Vwhereas
g12
tp4975
F1
s(Vflattery
g19
tp4976
F1
s(g17
g198
tp4977
F13
s(V`Old
g8
tp4978
F1
s(Vwardrobe
g19
tp4979
F2
s(Vdeparting
g52
tp4980
F1
s(Vhome
g23
tp4981
F1
s(Vwell-grounded
g8
tp4982
F1
s(Vrepresentative
g19
tp4983
F2
s(Vlegs
g12
tp4984
F1
s(Vdelighted
g8
tp4985
F2
s(Vsunbeam
g19
tp4986
F1
s(Valong
g34
tp4987
F5
s(Vproverb
g19
tp4988
F1
s(Vbiennially
g34
tp4989
F1
s(VIndian
g8
tp4990
F1
s(Vbelieve
g93
tp4991
F14
s(Vdeteriorated
g23
tp4992
F1
s(g128
g63
tp4993
F8
s(Vproceeding
g19
tp4994
F2
s(Voyster-soup
g8
tp4995
F1
s(Vparty
S'NN'
p4996
tp4997
F20
s(Vintelligent
g8
tp4998
F6
s(Vsmoothly
g34
tp4999
F1
s(Vlike
g274
tp5000
F36
s(Vexpression
g19
tp5001
F7
s(Vdemocratic
g8
tp5002
F1
s(Vstock
S'NN'
p5003
tp5004
F2
s(V`Miss
g227
tp5005
F1
s(Vknow
g93
tp5006
F53
s(g227
g905
tp5007
F1
s(VSpratt
g6
tp5008
F1
s(Vnoisy
g34
tp5009
F1
s(Vrequires
S'VBZ'
p5010
tp5011
F2
s(g1213
g198
tp5012
F10
s(Vbad
S'JJ'
p5013
tp5014
F8
s(Vhay
g19
tp5015
F1
s(VEnglish
g6
tp5016
F17
s(Vten
g19
tp5017
F1
s(Vpouring
g52
tp5018
F1
s(g476
g121
tp5019
F1
s(Vworth
g274
tp5020
F3
s(Vsniffs
g12
tp5021
F1
s(Vdance
g93
tp5022
F13
s(V-if
g6
tp5023
F1
s(Vlevelled
g23
tp5024
F1
s(VOld
g6
tp5025
F6
s(Vmodel
g19
tp5026
F1
s(Vribbons
g12
tp5027
F1
s(Vmethod
g19
tp5028
F1
s(Vpresume
g93
tp5029
F1
s(Vwill
g290
tp5030
F86
s(Vbought
g23
tp5031
F1
s(Vvictim
g19
tp5032
F1
s(VCaroline
g6
tp5033
F31
s(Vvain
g8
tp5034
F1
s(Vupon
g34
tp5035
F1
s(Vletter
S'NN'
p5036
tp5037
F2
s(Vshow
g19
tp5038
F1
s(Vfrown
g36
tp5039
F1
s(VS
g6
tp5040
F1
s(Vescape
g19
tp5041
F1
s(Vbloom
g19
tp5042
F2
s(Vexert
g93
tp5043
F1
s(Vcraven
g8
tp5044
F1
s(g113
g106
tp5045
F5
s(Vscold
g17
tp5046
F1
s(Vaping
g52
tp5047
F1
s(Vwicked
g17
tp5048
F1
s(Vresults
S'NNS'
p5049
tp5050
F2
s(g274
g106
tp5051
F4
s(g34
g8
tp5052
F400
s(VShakspeare
g6
tp5053
F3
s(Vparlor
g19
tp5054
F7
s(Vpronounced
g17
tp5055
F1
s(Vsettled
g23
tp5056
F1
s(Vindignation
g19
tp5057
F3
s(Vnoisy
g19
tp5058
F1
s(VAlley
g6
tp5059
F3
s(g2273
g23
tp5060
F138
s(Vrubs
g19
tp5061
F2
s(Vindustrious
g8
tp5062
F1
s(V-being
g52
tp5063
F1
s(V-No
g19
tp5064
F1
s(Vcabbages
g12
tp5065
F1
s(Vmortifying
g52
tp5066
F1
s(Vlove
g19
tp5067
F13
s(Vcorner
g19
tp5068
F7
s(Vgentlemen
g12
tp5069
F20
s(Vappeared
g17
tp5070
F2
s(Vcaring
g52
tp5071
F1
s(Vmeaner
g63
tp5072
F1
s(g758
g1688
tp5073
F4
s(Vside
g19
tp5074
F12
s(Vpronounce
g93
tp5075
F1
s(Vtyrants
g12
tp5076
F1
s(Vinquired
g23
tp5077
F6
s(Vreform
g19
tp5078
F1
s(g501
g327
tp5079
F1
s(VRiver
g6
tp5080
F2
s(g4849
g476
tp5081
F4
s(Vperplexed
g19
tp5082
F1
s(VHolloa
g19
tp5083
F1
s(VIadies
g12
tp5084
F1
s(Vreflect
g93
tp5085
F2
s(Vattend
g93
tp5086
F1
s(Vnonchalance
g34
tp5087
F1
s(g128
g17
tp5088
F142
s(Vclear
g8
tp5089
F5
s(Vprofessional
g8
tp5090
F1
s(g769
g19
tp5091
F505
s(Vcontrary
g8
tp5092
F2
s(Vfavourite
g8
tp5093
F1
s(Vadopt
g93
tp5094
F1
s(Vchiefly
g476
tp5095
F1
s(VCorque
g6
tp5096
F1
s(g36
g113
tp5097
F4
s(Vroared
g17
tp5098
F1
s(Vesteem
g19
tp5099
F1
s(Vbelong
g36
tp5100
F1
s(V-shall
g8
tp5101
F1
s(g8
g274
tp5102
F212
s(VChurch
g6
tp5103
F1
s(g24
g290
tp5104
F4
s(Vmeaning
g52
tp5105
F1
s(Vemotion
g19
tp5106
F1
s(g6
g143
tp5107
F13
s(VCasta
g6
tp5108
F6
s(Vforbidding
g52
tp5109
F1
s(g14
g3422
tp5110
F4
s(Vbirds
g12
tp5111
F1
s(Vpetits
g12
tp5112
F1
s(Vdazzled
g23
tp5113
F1
s(Vthink
g93
tp5114
F23
s(Vresponses
g12
tp5115
F1
s(VPolly
g6
tp5116
F30
s(Venergy
S'NN'
p5117
tp5118
F2
s(VCannibal
g6
tp5119
F1
s(VCr
g6
tp5120
F1
s(Vfosters
g12
tp5121
F1
s(Vexpense
g19
tp5122
F3
s(VMargaret
g6
tp5123
F2
s(Vbehind
g19
tp5124
F3
s(Vexhale
g93
tp5125
F1
s(Vrevenges
g12
tp5126
F1
s(Vsent
g17
tp5127
F4
s(Vsobriety
g19
tp5128
F1
s(Vcanals
g12
tp5129
F1
s(Vconfectioners
g12
tp5130
F1
s(g227
g36
tp5131
F1
s(g19
g681
tp5132
F1228
s(Vdesperate
g19
tp5133
F1
s(VInfinitely
g34
tp5134
F1
s(Vblowing
g52
tp5135
F1
s(Vvices
g12
tp5136
F1
s(VMan
g19
tp5137
F1
s(Vrecreation
g19
tp5138
F1
s(g23
g769
tp5139
F16
s(g19
g476
tp5140
F5
s(Vperfect
g8
tp5141
F3
s(Vwhim
g8
tp5142
F1
s(g907
g12
tp5143
F2
s(Vcrush
g93
tp5144
F1
s(g93
g621
tp5145
F2
s(Vpuny
g8
tp5146
F3
s(Vnumber
S'NN'
p5147
tp5148
F4
s(Vdeclare
g93
tp5149
F1
s(Vlearned
g23
tp5150
F2
s(VQuatorze
g6
tp5151
F3
s(Vhushed
g23
tp5152
F1
s(Vbounds
g32
tp5153
F1
s(Vopened
g17
tp5154
F1
s(Vtumbled
g23
tp5155
F1
s(Vconsider
g36
tp5156
F1
s(Vsee
g36
tp5157
F26
s(Vfashion
S'NN'
p5158
tp5159
F11
s(Vrepublican
g8
tp5160
F2
s(Vpeculiarly
g34
tp5161
F1
s(Vpert
g8
tp5162
F1
s(Vrespect
g36
tp5163
F2
s(Vdew
g19
tp5164
F2
s(VChevalier
g6
tp5165
F2
s(VMammon
g6
tp5166
F2
s(Vhaste
g19
tp5167
F2
s(V-went
g19
tp5168
F1
s(Vsomewhat
g34
tp5169
F2
s(g27
g128
tp5170
F2
s(Vdollar
S'NN'
p5171
tp5172
F4
s(VClover
g6
tp5173
F15
s(g905
g17
tp5174
F1
s(V-perhaps
g93
tp5175
F1
s(Vshopmen
g12
tp5176
F1
s(g1694
S':'
tp5177
F11
s(Vtumbling
g52
tp5178
F1
s(Vbrings
g32
tp5179
F1
s(Vdeceiving
g52
tp5180
F1
s(Vweather
g19
tp5181
F1
s(Vbeaches
g12
tp5182
F1
s(Vdesires
g32
tp5183
F2
s(Vassault
g19
tp5184
F1
s(Vcommitted
g23
tp5185
F2
s(g276
g198
tp5186
F3
s(Vislanders
g12
tp5187
F1
s(VVenuses
g12
tp5188
F1
s(Vabodes
g12
tp5189
F1
s(S','
g276
tp5190
F56
s(g106
g32
tp5191
F3
s(Vcontemptible
g8
tp5192
F1
s(Vdyspeptic
g8
tp5193
F1
s(Vserved
g8
tp5194
F1
s(g182
g34
tp5195
F1
s(VHow
g106
tp5196
F21
s(Vfellows
g12
tp5197
F1
s(Vmournful
g19
tp5198
F3
s(Voaten
g8
tp5199
F1
s(VMole
g6
tp5200
F1
s(Vindeed
S'RB'
p5201
tp5202
F6
s(Vshores
g12
tp5203
F1
s(Vimprovement
S'NN'
p5204
tp5205
F3
s(Vinstruct
g19
tp5206
F1
s(V-then
g36
tp5207
F1
s(Vrecently
S'RB'
p5208
tp5209
F1
s(Vgray
g8
tp5210
F2
s(Vhurries
g32
tp5211
F1
s(g19
g276
tp5212
F142
s(g276
g1238
tp5213
F72
s(Vruby
g19
tp5214
F1
s(g8
g143
tp5215
F4
s(g841
S'RB'
p5216
tp5217
F164
s(Venvied
g8
tp5218
F1
s(Vaffable
g8
tp5219
F3
s(Vrecognized
g23
tp5220
F1
s(Vhealth
S'NN'
p5221
tp5222
F5
s(Vaffairs
S'NNS'
p5223
tp5224
F1
s(Vfollowed
g17
tp5225
F2
s(VEsq.
g6
tp5226
F1
s(Vendure
g93
tp5227
F1
s(Vmovement
S'NN'
p5228
tp5229
F1
s(Vadvances
g12
tp5230
F1
s(Vslavery
g19
tp5231
F2
s(Vdistingu
g19
tp5232
F1
s(Venough
g34
tp5233
F27
s(Vdeclarer
g19
tp5234
F1
s(g5158
g17
tp5235
F125
s(Vsnowy
g8
tp5236
F1
s(Vcommon-sense
g19
tp5237
F2
s(Vfilled
g17
tp5238
F1
s(VGo
g6
tp5239
F1
s(g12
g276
tp5240
F52
s(Vsheet
g19
tp5241
F1
s(Vsure
g8
tp5242
F41
s(Vtrace
g19
tp5243
F1
s(Vchasseur
g19
tp5244
F1
s(Vrooms
S'NNS'
p5245
tp5246
F11
s(Vonce
g34
tp5247
F14
s(g19
S':'
tp5248
F174
s(VThey
S'PRP'
p5249
tp5250
F59
s(VCorinth
g6
tp5251
F2
s(Vproduce
g36
tp5252
F1
s(Vmay
g4244
tp5253
F42
s(g429
g276
tp5254
F53
s(Veloquent
g8
tp5255
F3
s(Vtwirling
g52
tp5256
F1
s(g8
g12
tp5257
F487
s(Vfastest
g182
tp5258
F1
s(Vprofound
g274
tp5259
F1
s(Vclasps
g19
tp5260
F1
s(Vphiz
g19
tp5261
F1
s(Vsing
g52
tp5262
F1
s(Vsorrow
g19
tp5263
F1
s(Vdouble
g8
tp5264
F1
s(VMerci
g6
tp5265
F1
s(VAfter
S'IN'
p5266
tp5267
F5
s(Vinnocently
g34
tp5268
F1
s(Vtime
g569
tp5269
F44
s(Vwisest
g182
tp5270
F1
s(Vtongues
g12
tp5271
F1
s(Vaunt
g19
tp5272
F1
s(Vlived
g23
tp5273
F2
s(g159
g6
tp5274
F1
s(Vluxurious
g8
tp5275
F2
s(VWalton
g6
tp5276
F1
s(g2530
g24
tp5277
F4
s(Vshoulders
g12
tp5278
F1
s(Vhonest
g8
tp5279
F1
s(Varts
g12
tp5280
F3
s(Vshall
g2931
tp5281
F29
s(Veffect
S'NN'
p5282
tp5283
F4
s(Vlorn
g8
tp5284
F1
s(g561
g374
tp5285
F2
s(Vsquander
g93
tp5286
F1
s(Vport
g19
tp5287
F3
s(Vforehead
g19
tp5288
F3
s(Vstraw-stems
g12
tp5289
F1
s(Vthin
g8
tp5290
F2
s(Vfeelings
g12
tp5291
F5
s(Vconnection
S'NN'
p5292
tp5293
F1
s(g274
S','
tp5294
F68
s(Vsow
g32
tp5295
F1
s(S','
g476
tp5296
F1
s(Vspare
g93
tp5297
F1
s(Vmonarchies
g12
tp5298
F1
s(Vremember
g36
tp5299
F14
s(g23
g19
tp5300
F14
s(Vstopped
g17
tp5301
F7
s(Vapprehension
g19
tp5302
F2
s(Vrosewood
g19
tp5303
F1
s(g4556
g625
tp5304
F16
s(VCelarius
g6
tp5305
F2
s(Vrefreshment
g19
tp5306
F1
s(Vbeg
g19
tp5307
F1
s(Vran
g36
tp5308
F1
s(Vabout
g34
tp5309
F3
s(Vhot
g8
tp5310
F5
s(Vprime
g19
tp5311
F1
s(Vdish
g19
tp5312
F4
s(Voffices
S'NNS'
p5313
tp5314
F1
s(Vshows
g12
tp5315
F1
s(Vcompliments
g12
tp5316
F1
s(Vlemon-seed
g8
tp5317
F1
s(Vblacksmith
g19
tp5318
F1
s(Vcalf-bound
g8
tp5319
F1
s(Vdashing
g52
tp5320
F1
s(Vexaggerating
g19
tp5321
F1
s(Vdeciding
g52
tp5322
F1
s(Vintended
g23
tp5323
F1
s(VRECEIVING
g6
tp5324
F1
s(Vflirting
g19
tp5325
F1
s(VOdious
g8
tp5326
F2
s(Vseverely
g34
tp5327
F1
s(Vgold
g19
tp5328
F8
s(Vtheoretically
g34
tp5329
F1
s(Vbox
g19
tp5330
F9
s(Vbow
g19
tp5331
F1
s(Vstrict
g8
tp5332
F1
s(Vcompromise
g19
tp5333
F1
s(Vday
S'NN'
p5334
tp5335
F27
s(Vplanet
g19
tp5336
F1
s(g17
S'.'
tp5337
F43
s(VLivery
g6
tp5338
F1
s(Vexactly
g34
tp5339
F1
s(Vveau
g227
tp5340
F1
s(Vproposes
g32
tp5341
F1
s(Vinstinct
g8
tp5342
F2
s(Vadapted
g23
tp5343
F1
s(Vowls
g19
tp5344
F1
s(Vloved
g23
tp5345
F2
s(Vback
g474
tp5346
F1
s(VShrimp
g6
tp5347
F1
s(Vsleeps
g32
tp5348
F1
s(Vpole
g19
tp5349
F1
s(Vplay
g93
tp5350
F5
s(Vbarbarize
g93
tp5351
F1
s(g502
g276
tp5352
F3
s(Vrush
g19
tp5353
F4
s(Vskeptical
g8
tp5354
F1
s(Vwarranted
g17
tp5355
F1
s(VGerman
g8
tp5356
F6
s(Vflourish
g8
tp5357
F1
s(g231
g143
tp5358
F35
s(Vpain
g93
tp5359
F1
s(Vmakes
S'VBZ'
p5360
tp5361
F9
s(Vmistook
g93
tp5362
F1
s(Vhonoured
g23
tp5363
F1
s(g8
g32
tp5364
F9
s(VV.
g6
tp5365
F2
s(Vclerks
g12
tp5366
F1
s(Vchaotic
g8
tp5367
F1
s(Vwages
g12
tp5368
F1
s(Vambassador
g19
tp5369
F6
s(Vstartled
g23
tp5370
F1
s(V183
g327
tp5371
F1
s(S'DT'
p5372
S'.'
tp5373
F25
s(Vsuit
g36
tp5374
F1
s(VPoussin
g6
tp5375
F1
s(Vreach
g19
tp5376
F2
s(Vma'am
g227
tp5377
F5
s(Vtossing
g52
tp5378
F1
s(Vfaith
g19
tp5379
F6
s(Vcostly
S'JJ'
p5380
tp5381
F2
s(Vto-morrow
g8
tp5382
F3
s(Vtherefore
g19
tp5383
F1
s(Vserious
S'JJ'
p5384
tp5385
F3
s(Vthey
g1747
tp5386
F179
s(Vshut
g17
tp5387
F1
s(Vau
g274
tp5388
F1
s(VSociety
g19
tp5389
F2
s(Vsecret
g93
tp5390
F1
s(Vthree
g234
tp5391
F18
s(Vfrivolities
g12
tp5392
F1
s(Vcoveted
g17
tp5393
F1
s(g143
g34
tp5394
F72
s(VSit
g6
tp5395
F1
s(Vfinely
g34
tp5396
F1
s(Vbill
S'NN'
p5397
tp5398
F3
s(Vwhispers
g12
tp5399
F2
s(Vdemocracy
g19
tp5400
F1
s(Vrespect
g19
tp5401
F7
s(Vscanning
g52
tp5402
F1
s(Vdrag
g36
tp5403
F1
s(Vcherish
g93
tp5404
F1
s(Vheard
g23
tp5405
F9
s(Vbetray
g36
tp5406
F1
s(Vconservative
S'JJ'
p5407
tp5408
F1
s(Vlaugh
g93
tp5409
F2
s(Vhalf-way
g19
tp5410
F1
s(Vla
g36
tp5411
F1
s(Vhomage
g19
tp5412
F1
s(Vexposed
g23
tp5413
F2
s(VFair
g6
tp5414
F8
s(Vself-sacrifice
g19
tp5415
F1
s(Vtires
g12
tp5416
F1
s(Vled
g23
tp5417
F2
s(Vpleasant
g8
tp5418
F11
s(g3717
S':'
tp5419
F9
s(Vvang
g19
tp5420
F1
s(g52
g6
tp5421
F21
s(Vpedestal
g19
tp5422
F1
s(Vmastered
g23
tp5423
F1
s(g93
g276
tp5424
F87
s(Vreadiness
g19
tp5425
F2
s(VGothic
g6
tp5426
F1
s(Vexplain
g19
tp5427
F1
s(Vevidently
g34
tp5428
F4
s(Vcommonest
g182
tp5429
F1
s(Vsleep
g93
tp5430
F4
s(Vcry
g93
tp5431
F1
s(Vrest
g19
tp5432
F9
s(Vfigures
g12
tp5433
F2
s(Vperfumes
g12
tp5434
F1
s(Vmelancholy
g93
tp5435
F2
s(Vshoes
g12
tp5436
F3
s(Vpurchase
g93
tp5437
F2
s(Vbeginning
g52
tp5438
F1
s(Vbetrays
g32
tp5439
F1
s(g36
g875
tp5440
F13
s(Vuntarnished
g8
tp5441
F1
s(g6
g905
tp5442
F113
s(Vboys
g32
tp5443
F2
s(Vrouge.
g32
tp5444
F1
s(g93
S':'
tp5445
F19
s(VO
g8
tp5446
F1
s(Vconcerned
g23
tp5447
F1
s(Vus
g358
tp5448
F59
s(g3717
S')'
tp5449
F2
s(g182
g561
tp5450
F3
s(VValentino
g6
tp5451
F1
s(VPAPERS
g6
tp5452
F1
s(Vnegotiations
S'NNS'
p5453
tp5454
F1
s(Vindividual
g8
tp5455
F1
s(VTartars
g6
tp5456
F2
s(S'('
g167
tp5457
F2
s(VYou
S'PRP'
p5458
tp5459
F73
s(Vbeautifully
g34
tp5460
F4
s(Vtomatoes
g12
tp5461
F1
s(Vchivalric
g8
tp5462
F1
s(g276
g231
tp5463
F146
s(Vgloves
g12
tp5464
F10
s(Vnecklace
g19
tp5465
F3
s(Vdiplomatic
g8
tp5466
F1
s(Vplacidly
g34
tp5467
F3
s(VNile
g6
tp5468
F1
s(VMonsieur
g19
tp5469
F1
s(Vfloated
g23
tp5470
F1
s(g625
g234
tp5471
F1
s(VDolly
g6
tp5472
F1
s(Vpass
g19
tp5473
F1
s(Vsoupers
g12
tp5474
F1
s(Vdining
g19
tp5475
F1
s(Vhonor
g36
tp5476
F1
s(Vpretend
g36
tp5477
F1
s(Vpleasanter
g63
tp5478
F1
s(Vtalents
g12
tp5479
F1
s(VPotiphars
g12
tp5480
F1
s(Vthankful
g8
tp5481
F1
s(Vjeune
g19
tp5482
F1
s(Vsuppose
g93
tp5483
F13
s(g8
g167
tp5484
F36
s(Vcars
S'NNS'
p5485
tp5486
F1
s(VF.
S'NNP'
p5487
tp5488
F2
s(Vweakens
g32
tp5489
F1
s(Vfound
g93
tp5490
F2
s(V-now
g36
tp5491
F1
s(Vinhabit
g36
tp5492
F1
s(Vcommunicate
g93
tp5493
F1
s(Vwait
g19
tp5494
F1
s(Vinwardly
g34
tp5495
F1
s(VCheerfully
g34
tp5496
F1
s(g6
g3384
tp5497
F2
s(Vexcited
g23
tp5498
F1
s(Vpiles
g12
tp5499
F1
s(Vimitation
g19
tp5500
F3
s(g112
g8
tp5501
F5
s(Vartificial
g8
tp5502
F5
s(V`peerless
g19
tp5503
F1
s(Vhabitu
g8
tp5504
F1
s(Vexquisitely
g34
tp5505
F1
s(VConfectioners
g12
tp5506
F1
s(Vconstrained
g23
tp5507
F1
s(Vimitations
g12
tp5508
F1
s(Vmistaken
g23
tp5509
F1
s(VBlue
g6
tp5510
F1
s(VTattle
g6
tp5511
F14
s(Vpumped
g23
tp5512
F1
s(Vasserting
g52
tp5513
F2
s(Vhearts
g12
tp5514
F4
s(V-heel-taps
g12
tp5515
F1
s(Vsparkle
g93
tp5516
F1
s(Vpalace
g19
tp5517
F3
s(g19
g245
tp5518
F72
s(Vcandlesticks
g12
tp5519
F4
s(Veme
g19
tp5520
F3
s(Vbay
g19
tp5521
F1
s(Vbold
g8
tp5522
F1
s(Vfear
g19
tp5523
F3
s(Vthemselves
g3532
tp5524
F8
s(VFiddle-dee-dee
g19
tp5525
F1
s(Vresorts
g12
tp5526
F2
s(Vtask
g19
tp5527
F1
s(Vdroll
g8
tp5528
F2
s(g276
g274
tp5529
F2
s(Vindulge
g19
tp5530
F1
s(VGreece
g6
tp5531
F1
s(Vuntied
g17
tp5532
F1
s(VKurz
g6
tp5533
F60
s(Vleave
g93
tp5534
F6
s(Vdit
g19
tp5535
F1
s(VOrleans
g6
tp5536
F1
s(V`Mon
g8
tp5537
F1
s(S'.'
g143
tp5538
F4
s(Vindustry
S'NN'
p5539
tp5540
F1
s(Vdepriving
g52
tp5541
F1
s(Vemporium
g19
tp5542
F1
s(Vheight
g19
tp5543
F2
s(g476
S':'
tp5544
F1
s(Vself-respecting
g8
tp5545
F1
s(Vhereditary
g8
tp5546
F4
s(Vruined
g23
tp5547
F2
s(g128
S','
tp5548
F51
s(VQueen
g6
tp5549
F3
s(Vwish
g8
tp5550
F2
s(Vswallowed
g17
tp5551
F1
s(Vgirls
g93
tp5552
F1
s(Vactually
S'RB'
p5553
tp5554
F7
s(Vtwenty
g34
tp5555
F1
s(Vdance
g36
tp5556
F1
s(Vdo
g36
tp5557
F136
s(Vprayers
g12
tp5558
F6
s(g113
g112
tp5559
F8
s(Vthought
g23
tp5560
F6
s(Vscraps
g12
tp5561
F1
s(Vmoon
g19
tp5562
F6
s(Vyouth
g34
tp5563
F1
s(Vpalaces
g12
tp5564
F1
s(VDoctor
g6
tp5565
F6
s(Vtaken
S'VBN'
p5566
tp5567
F6
s(Vsuit
g19
tp5568
F4
s(Vheiress
g19
tp5569
F3
s(g23
g106
tp5570
F2
s(g143
g905
tp5571
F1
s(Vunderstands
g32
tp5572
F1
s(g17
g374
tp5573
F1
s(V-for
g274
tp5574
F1
s(Vlet
g93
tp5575
F14
s(VGrace
g6
tp5576
F1
s(VChamps
g6
tp5577
F2
s(g276
g2652
tp5578
F10
s(Vpraised
g23
tp5579
F1
s(Vomitted
g17
tp5580
F1
s(VHearts
g12
tp5581
F1
s(Vsir
g93
tp5582
F2
s(Vmolu
g93
tp5583
F1
s(Vclung
g32
tp5584
F1
s(Veconomical
g8
tp5585
F1
s(Vsire
g19
tp5586
F1
s(Vpreparatory
g19
tp5587
F1
s(Vcatching
g52
tp5588
F1
s(Vloud
g8
tp5589
F8
s(Vbargain
g19
tp5590
F1
s(V`crack
g19
tp5591
F1
s(Vfond
g19
tp5592
F6
s(Vindigestion
g19
tp5593
F1
s(Vwhether
S'IN'
p5594
tp5595
F9
s(Vairy
g19
tp5596
F1
s(Vlakes
g12
tp5597
F1
s(V-young
g8
tp5598
F1
s(V-respected
g17
tp5599
F1
s(Vhalf
g8
tp5600
F2
s(Vcheeks
g19
tp5601
F1
s(Vcontinued
g8
tp5602
F1
s(Vfever
g19
tp5603
F2
s(Vdrawing-room
g19
tp5604
F4
s(g93
g36
tp5605
F2
s(VLinda
g6
tp5606
F1
s(g23
S'.'
tp5607
F66
s(Vinsists
g12
tp5608
F1
s(Vpressed
g23
tp5609
F1
s(Vrecur
g36
tp5610
F1
s(Vhairy
g8
tp5611
F1
s(S','
g319
tp5612
F1
s(Vcaught
g19
tp5613
F1
s(Vexplaining
g52
tp5614
F1
s(Vrising
g19
tp5615
F1
s(Vd
g8
tp5616
F2
s(Vmiss
g19
tp5617
F1
s(Vprattles
g32
tp5618
F1
s(Vlonely
g8
tp5619
F1
s(g63
g106
tp5620
F1
s(Vvain
g19
tp5621
F1
s(Vresolved
g23
tp5622
F1
s(Vconsole
g93
tp5623
F2
s(Vsun-god
g19
tp5624
F1
s(Vcounter
g19
tp5625
F2
s(VBefore
g274
tp5626
F2
s(Vminding
g52
tp5627
F1
s(Vfailure
g19
tp5628
F1
s(Vovervalued
g23
tp5629
F1
s(Vspicy
g19
tp5630
F1
s(g81
g129
tp5631
F1
s(Vnurse
g19
tp5632
F1
s(Vtalking
S'VBG'
p5633
tp5634
F12
s(Vstreet
g19
tp5635
F10
s(g2931
S':'
tp5636
F1
s(VDisraeli
g6
tp5637
F1
s(g625
g112
tp5638
F7
s(Vqu'il
g19
tp5639
F1
s(Veighteen
g8
tp5640
F1
s(Vhoes
g12
tp5641
F1
s(Vfurnish
g93
tp5642
F2
s(Vgrass
g19
tp5643
F1
s(Vinduced
g17
tp5644
F1
s(Vmisses
g12
tp5645
F1
s(VDorset
g6
tp5646
F1
s(Vtrembled
g17
tp5647
F1
s(Vcoats
g19
tp5648
F1
s(g81
g143
tp5649
F1
s(Vtwo
g198
tp5650
F25
s(Vtwenty
g8
tp5651
F1
s(Vpleasantly
g8
tp5652
F1
s(VTimon
g6
tp5653
F15
s(VI.
g19
tp5654
F1
s(VYouths
g12
tp5655
F1
s(g12
g625
tp5656
F100
s(g6
g19
tp5657
F90
s(Vdirectory
g19
tp5658
F1
s(Vattain
g93
tp5659
F1
s(Vantiquity
g19
tp5660
F1
s(Vimportant
S'JJ'
p5661
tp5662
F2
s(Vfierce
g8
tp5663
F1
s(Vangry
g8
tp5664
F3
s(Vdash
g19
tp5665
F1
s(Vswear
g36
tp5666
F2
s(Varmchair
g19
tp5667
F1
s(Vpresented
g17
tp5668
F1
s(VFull
g6
tp5669
F1
s(g245
S')'
tp5670
F1
s(g231
g19
tp5671
F1788
s(Vmagnet
g19
tp5672
F1
s(Vmean
g19
tp5673
F2
s(Vneck
g19
tp5674
F1
s(Vdishonest
g182
tp5675
F1
s(VHarper
g6
tp5676
F1
s(Vwhispering
g52
tp5677
F2
s(g17
g209
tp5678
F1
s(Vsofa
g19
tp5679
F5
s(Vvirtuous
g8
tp5680
F1
s(V-quite
g36
tp5681
F1
s(Vnewer
g63
tp5682
F1
s(Vnovelists
g12
tp5683
F1
s(Vsteamer
g19
tp5684
F1
s(Vwonder
g93
tp5685
F4
s(V-why
g19
tp5686
F1
s(Vquitting
g52
tp5687
F1
s(V`have
g36
tp5688
F1
s(VLetters
g12
tp5689
F2
s(S'('
g143
tp5690
F1
s(Vnewspaper
S'NN'
p5691
tp5692
F1
s(Vsaying
g52
tp5693
F22
s(Vworth
g8
tp5694
F9
s(g2109
g93
tp5695
F7
s(Vfree
g8
tp5696
F1
s(VBuffalo
g6
tp5697
F1
s(Vblack
S'JJ'
p5698
tp5699
F11
s(g17
g1777
tp5700
F217
s(S':'
g36
tp5701
F25
s(Vwhoever
g274
tp5702
F1
s(VRachel
g19
tp5703
F1
s(Vnavigator
g19
tp5704
F1
s(VStop
g93
tp5705
F1
s(g34
S','
tp5706
F370
s(Vwaving
g52
tp5707
F2
s(Vfurnished
g17
tp5708
F1
s(Vextraordinary
S'JJ'
p5709
tp5710
F2
s(Vproper
g8
tp5711
F6
s(Vquotation
g19
tp5712
F3
s(Vmatronized
g23
tp5713
F1
s(Vme
g3340
tp5714
F185
s(g8
S','
tp5715
F299
s(VItalian
g8
tp5716
F6
s(Vshrug
g19
tp5717
F1
s(S'.'
S':'
tp5718
F7
s(Vwring
g52
tp5719
F1
s(Vbiennial
g8
tp5720
F1
s(Vemerald
g8
tp5721
F1
s(VThings
g6
tp5722
F1
s(Vtakes
S'VBZ'
p5723
tp5724
F4
s(Vpavement
g19
tp5725
F2
s(Vremarked
g23
tp5726
F2
s(Vpreacher
g19
tp5727
F1
s(Vaid
g19
tp5728
F1
s(Vworn
g23
tp5729
F3
s(V-but
g8
tp5730
F3
s(Vopen
g93
tp5731
F5
s(Vhonorary
g8
tp5732
F1
s(VAn
S'DT'
p5733
tp5734
F3
s(Vbanquet
g19
tp5735
F1
s(V-nor
g19
tp5736
F1
s(Vno
g167
tp5737
F64
s(VWith
S'IN'
p5738
tp5739
F2
s(Vbandanna
g19
tp5740
F5
s(VFranklin
g6
tp5741
F1
s(Vmercy
g19
tp5742
F1
s(Vmet
g23
tp5743
F1
s(g112
g17
tp5744
F57
s(g905
S','
tp5745
F11
s(VOpera
g6
tp5746
F3
s(g23
g276
tp5747
F70
s(Vdrunkard
g19
tp5748
F1
s(Vear
g19
tp5749
F4
s(Vthere
g24
tp5750
F56
s(VEvery
g167
tp5751
F10
s(VD'Orsay
g6
tp5752
F7
s(Vafford
g93
tp5753
F3
s(Veat
g36
tp5754
F1
s(S','
g209
tp5755
F265
s(Vabroad
S'RB'
p5756
tp5757
F4
s(Vblithe
g8
tp5758
F1
s(Vattar
g19
tp5759
F1
s(Vdared
g23
tp5760
F1
s(g143
g36
tp5761
F19
s(Vfright
g19
tp5762
F1
s(VVellum
g6
tp5763
F1
s(Vfeet-head
g8
tp5764
F1
s(Vbehold
g93
tp5765
F1
s(Vassailed
g23
tp5766
F1
s(V-as
g8
tp5767
F1
s(VDear
g93
tp5768
F2
s(VEnglishmen
g6
tp5769
F2
s(Vten-pins
g12
tp5770
F1
s(Vdreaded
g17
tp5771
F2
s(Vretired
g17
tp5772
F1
s(Vfold
g19
tp5773
F1
s(VComing
g6
tp5774
F1
s(g143
g5458
tp5775
F109
s(Vbuilt
g17
tp5776
F1
s(Vdriver
g19
tp5777
F2
s(VPotiphars
g6
tp5778
F6
s(g167
g81
tp5779
F3
s(Vti
g19
tp5780
F6
s(Vsober
g19
tp5781
F1
s(Vgravely
g34
tp5782
F1
s(Vaffecting
g52
tp5783
F1
s(Vgive
g36
tp5784
F1
s(Vshepherd
g19
tp5785
F2
s(VFrench
g8
tp5786
F38
s(Vvarying
g52
tp5787
F1
s(VCotillon
g6
tp5788
F1
s(Vdifficulty
g19
tp5789
F5
s(Vcobblers
g12
tp5790
F1
s(V-people
g19
tp5791
F1
s(Vveins
g12
tp5792
F2
s(Vothers
S'NNS'
p5793
tp5794
F5
s(Vbed
g19
tp5795
F2
s(Vpersisted
g17
tp5796
F2
s(S'.'
S')'
tp5797
F10
s(S':'
g112
tp5798
F12
s(Vsighed
g17
tp5799
F1
s(Vkinds
g12
tp5800
F6
s(Vcivil
S'JJ'
p5801
tp5802
F2
s(Vassisted
g23
tp5803
F1
s(Vthin
g274
tp5804
F1
s(g4764
g3424
tp5805
F1
s(Vgasped
g17
tp5806
F2
s(Vessence
g19
tp5807
F1
s(Vexpress
g93
tp5808
F2
s(Vclearly
S'RB'
p5809
tp5810
F2
s(Vdear
g93
tp5811
F7
s(Vprodigiously
g34
tp5812
F3
s(Vgracefully
g34
tp5813
F3
s(Vstatues
g12
tp5814
F6
s(Vbusy
g8
tp5815
F4
s(g128
g8
tp5816
F154
s(V``
g143
tp5817
F687
s(Vinvestment
S'NN'
p5818
tp5819
F1
s(Venterprising
g52
tp5820
F1
s(VKossuth
g6
tp5821
F1
s(Vmartial
g8
tp5822
F1
s(VBoosey
g6
tp5823
F55
s(Vevening
g19
tp5824
F22
s(Vinsulting
g8
tp5825
F1
s(Vbanker
g19
tp5826
F1
s(Vagrees
g32
tp5827
F1
s(Vblushed
g17
tp5828
F2
s(g128
g319
tp5829
F1
s(Vinane
g8
tp5830
F1
s(VCabin
g6
tp5831
F1
s(Vdistinguished
g23
tp5832
F1
s(Vredowa
g19
tp5833
F1
s(Vcard
g19
tp5834
F2
s(g159
g209
tp5835
F1
s(Vquenched
g23
tp5836
F1
s(V-it
g8
tp5837
F1
s(VPause
g6
tp5838
F1
s(Vhaunts
g12
tp5839
F1
s(Vembrace
g19
tp5840
F2
s(Velias
g19
tp5841
F1
s(g159
g276
tp5842
F1
s(Vdancing-masters
g12
tp5843
F1
s(Vcambric
g8
tp5844
F3
s(Vlivery
g24
tp5845
F1
s(Vchoicest
g182
tp5846
F1
s(VEurope
S'NNP'
p5847
tp5848
F12
s(S'VBZ'
p5849
g93
tp5850
F6
s(Vmale
g8
tp5851
F1
s(Vhappiness
g19
tp5852
F3
s(VMrs.
g797
tp5853
F247
s(Vcolleges
g12
tp5854
F1
s(Vone
g561
tp5855
F2
s(Vwild
g8
tp5856
F2
s(Vviews
g12
tp5857
F1
s(Vyear
g2417
tp5858
F13
s(Ventangled
g23
tp5859
F1
s(Vsurrounded
g23
tp5860
F1
s(VWomen
g12
tp5861
F1
s(Vacquaintance
g19
tp5862
F2
s(Vchurch
g93
tp5863
F6
s(Vvirgin
g8
tp5864
F1
s(Vbank
S'NN'
p5865
tp5866
F2
s(Vfarewells
g12
tp5867
F1
s(Vyou
g2349
tp5868
F424
s(Vunbecomingly
g34
tp5869
F1
s(Vje
g19
tp5870
F4
s(Vscheming
g52
tp5871
F1
s(VCheese
g19
tp5872
F6
s(Vindolence
g19
tp5873
F1
s(g319
g8
tp5874
F31
s(Vaffectionate
g8
tp5875
F1
s(g113
g52
tp5876
F31
s(Vinferiority
g19
tp5877
F1
s(Vugly
g8
tp5878
F1
s(Vbegin
g93
tp5879
F5
s(Vsailed
g17
tp5880
F1
s(Vcommencing
g52
tp5881
F1
s(VGovernor
g6
tp5882
F2
s(S','
g113
tp5883
F75
s(Vmonths
S'NNS'
p5884
tp5885
F4
s(VEditor
g6
tp5886
F1
s(VBleak
g6
tp5887
F1
s(g231
g182
tp5888
F54
s(Vwritten
S'VBN'
p5889
tp5890
F3
s(Vmean
g8
tp5891
F4
s(Vfarm-house
g19
tp5892
F1
s(Vpossibly
g34
tp5893
F3
s(VCREAM
g6
tp5894
F1
s(Vgrave
g19
tp5895
F1
s(Vhints
g12
tp5896
F1
s(Vthroats
g12
tp5897
F1
s(Vsingle
S'JJ'
p5898
tp5899
F4
s(Vselfish
g8
tp5900
F2
s(Vplumes
g12
tp5901
F1
s(g276
S','
tp5902
F1
s(VCome
g93
tp5903
F1
s(Vbeat
g19
tp5904
F2
s(Vtallow-chandlers
g12
tp5905
F1
s(VChasseur
g6
tp5906
F1
s(VCain
g6
tp5907
F2
s(Vmelting
g52
tp5908
F2
s(Vlibrary
g19
tp5909
F10
s(VPARK
g6
tp5910
F1
s(Vships
g12
tp5911
F1
s(Vstairs
g32
tp5912
F1
s(V-asserting
g52
tp5913
F1
s(Vdear
g36
tp5914
F2
s(Vuses
g32
tp5915
F2
s(Vpatriotism
g19
tp5916
F1
s(Vfarce
g19
tp5917
F2
s(V-I
g17
tp5918
F1
s(Vwrongs
g12
tp5919
F1
s(Vearnest
g182
tp5920
F1
s(Vtranquil
g19
tp5921
F1
s(Vten
g12
tp5922
F1
s(Vporcelain
g19
tp5923
F3
s(Vlike
g36
tp5924
F6
s(VComtesse
g6
tp5925
F1
s(Vcordial
g19
tp5926
F1
s(VTHE
g167
tp5927
F1
s(Vcoarse
g8
tp5928
F2
s(V-but
g93
tp5929
F2
s(Vshops
g12
tp5930
F6
s(Vwisdom
g19
tp5931
F2
s(g6
g81
tp5932
F3
s(VConsider
g93
tp5933
F1
s(Vfine
g19
tp5934
F3
s(Vdry
g8
tp5935
F2
s(Vobjects
g12
tp5936
F3
s(Vn't
S'RB'
p5937
tp5938
F222
s(Vstrike
g93
tp5939
F2
s(Vplace
g36
tp5940
F1
s(g106
g34
tp5941
F35
s(Vleft
g17
tp5942
F3
s(VNeither
g167
tp5943
F1
s(Vwalked
g17
tp5944
F9
s(Velegant
g8
tp5945
F9
s(V`Strong-minded
g8
tp5946
F1
s(Vwrote
S'VBD'
p5947
tp5948
F1
s(Vaffection
g19
tp5949
F1
s(Vblandly
g34
tp5950
F2
s(Vfamilies
S'NNS'
p5951
tp5952
F6
s(Vstate-rooms
g12
tp5953
F3
s(Vto-morrow
g19
tp5954
F2
s(Vgot
g23
tp5955
F4
s(Valtogether
g34
tp5956
F5
s(Vhorror
g19
tp5957
F2
s(Vbound
g19
tp5958
F4
s(Vresigned
g17
tp5959
F1
s(Vprinciples
g12
tp5960
F7
s(Vbrusque
g19
tp5961
F2
s(Vwillingly
g34
tp5962
F1
s(Vgraces
g12
tp5963
F2
s(Vattended
g23
tp5964
F3
s(Varranged
g23
tp5965
F2
s(Vbefore
g34
tp5966
F2
s(Vlater
g34
tp5967
F1
s(Vteacups
g12
tp5968
F1
s(g6
g12
tp5969
F30
s(Vboots
g12
tp5970
F3
s(Vsons
g12
tp5971
F2
s(Vcurtain
g19
tp5972
F1
s(Vgang
g19
tp5973
F1
s(Vvapid
g8
tp5974
F1
s(Vtranslation
g19
tp5975
F1
s(Vice-cream
g8
tp5976
F2
s(Vpolitics
g12
tp5977
F2
s(Vshort
g8
tp5978
F6
s(Vcards
g12
tp5979
F1
s(Vlikely
g34
tp5980
F2
s(Vbegin
g36
tp5981
F1
s(Vsleep
g34
tp5982
F1
s(Vshield
g19
tp5983
F3
s(Vsadness
g19
tp5984
F5
s(VBurke
g6
tp5985
F4
s(Vpartners
S'NNS'
p5986
tp5987
F3
s(g12
g319
tp5988
F1
s(Vcondition
g19
tp5989
F3
s(g4764
g52
tp5990
F1
s(Vnuance
g19
tp5991
F1
s(VSennaar
g19
tp5992
F1
s(Vlanguage
S'NN'
p5993
tp5994
F6
s(Vhundred
g17
tp5995
F1
s(g34
g143
tp5996
F3
s(g106
g2349
tp5997
F112
s(Vcourt
S'NN'
p5998
tp5999
F3
s(Vmaidenly
g34
tp6000
F1
s(Vvulgarity
g19
tp6001
F2
s(VMonday
S'NNP'
p6002
tp6003
F6
s(Vhusbands
g12
tp6004
F3
s(VRev
g6
tp6005
F15
s(Vsomething
S'NN'
p6006
tp6007
F27
s(Vprison
g19
tp6008
F1
s(VComment
g19
tp6009
F1
s(Vself-defence
g19
tp6010
F1
s(Vbribed
g23
tp6011
F1
s(Vsample
g19
tp6012
F2
s(g112
g129
tp6013
F2
s(Vrevellers
g12
tp6014
F1
s(VSteyne
g6
tp6015
F1
s(Vput
g36
tp6016
F2
s(Vgilt
g23
tp6017
F1
s(VLouvre
g6
tp6018
F2
s(Vsmile
g93
tp6019
F3
s(Vfavor
g19
tp6020
F1
s(Vsympathetic
g8
tp6021
F1
s(Vhonors
g12
tp6022
F2
s(Vpearl
g19
tp6023
F1
s(V!
S'.'
tp6024
F201
s(Vbody
g19
tp6025
F32
s(Vexhausted
g8
tp6026
F1
s(Vexplanations
g12
tp6027
F1
s(Vdivine
g19
tp6028
F1
s(Vmorning
S'NN'
p6029
tp6030
F37
s(Vreduced
g23
tp6031
F1
s(Vstatue
g19
tp6032
F2
s(Vunexceptionable
g8
tp6033
F1
s(Vdripping
g52
tp6034
F1
s(V135
g327
tp6035
F1
s(VGrammont
g6
tp6036
F2
s(Vhave
g36
tp6037
F118
s(Vsmoke
g93
tp6038
F2
s(Vrepublicanism
g19
tp6039
F1
s(Vdiscovered
g17
tp6040
F1
s(Vfall
g36
tp6041
F1
s(Vknows
g6
tp6042
F1
s(Vapproached
g17
tp6043
F2
s(Vforgot
g17
tp6044
F2
s(Vhears
g32
tp6045
F2
s(Vtruffes
g19
tp6046
F2
s(VLouis
g6
tp6047
F7
s(VCommissionaires
g12
tp6048
F1
s(Vwhile
g274
tp6049
F30
s(Vchasubles
g12
tp6050
F2
s(Vreferred
g17
tp6051
F1
s(Vwinter
g19
tp6052
F5
s(g182
g231
tp6053
F3
s(g474
g52
tp6054
F2
s(Vpurse
g19
tp6055
F1
s(Vfound
g23
tp6056
F7
s(VColique
g6
tp6057
F2
s(Vsense
g19
tp6058
F11
s(Vwaited
g17
tp6059
F1
s(Vterrible
g8
tp6060
F8
s(S'('
g81
tp6061
F1
s(Vrenewed
g23
tp6062
F1
s(VREPRINTED
g93
tp6063
F1
s(Vproperly
g34
tp6064
F2
s(Vhundred
g12
tp6065
F1
s(Vview
g19
tp6066
F3
s(Vconsecrate
g36
tp6067
F1
s(Vfind
g36
tp6068
F4
s(S'('
g112
tp6069
F1
s(g84
g81
tp6070
F38
s(Vwonders
g32
tp6071
F1
s(Vlook
g93
tp6072
F15
s(Veyes
g12
tp6073
F30
s(Vframes
g12
tp6074
F1
s(g194
g23
tp6075
F1
s(Vexcellence
g19
tp6076
F1
s(Vaccident
g19
tp6077
F1
s(Vorange-groves
g12
tp6078
F1
s(Vlowers
g12
tp6079
F1
s(Vsharp
S'JJ'
p6080
tp6081
F4
s(Veconomy
S'NN'
p6082
tp6083
F1
s(S','
g681
tp6084
F655
s(VDenmark
g6
tp6085
F1
s(Varound
g474
tp6086
F1
s(S':'
g276
tp6087
F4
s(Vwhims
g12
tp6088
F3
s(VEach
S'DT'
p6089
tp6090
F2
s(VWednesday
S'NNP'
p6091
tp6092
F1
s(VPutnam
g6
tp6093
F1
s(Vthat
g81
tp6094
F51
s(Veager
g19
tp6095
F1
s(Vpowers
g12
tp6096
F3
s(Vpleasure
g19
tp6097
F5
s(Vamenable
g8
tp6098
F1
s(Ventice
g36
tp6099
F1
s(Vwears
g32
tp6100
F2
s(Vair
g19
tp6101
F19
s(Vwherein
g274
tp6102
F1
s(Vbreeze
g19
tp6103
F1
s(Vtreatise
g19
tp6104
F1
s(Vvex
g19
tp6105
F1
s(g905
g276
tp6106
F4
s(Vsurer
g23
tp6107
F1
s(VGreek
g8
tp6108
F1
s(Vper
g274
tp6109
F2
s(Vfelice
g19
tp6110
F1
s(Vselecter
g19
tp6111
F1
s(g167
g1747
tp6112
F5
s(Vimages
g12
tp6113
F1
s(g93
S')'
tp6114
F1
s(g905
S'VBG'
p6115
tp6116
F4
s(Vfoothold
g19
tp6117
F1
s(Vhigh
g8
tp6118
F4
s(Vfirst
g34
tp6119
F7
s(Vdismay
g19
tp6120
F3
s(g6
g112
tp6121
F4
s(VJust
g34
tp6122
F8
s(Vheavily
S'RB'
p6123
tp6124
F2
s(Vlibrary
g8
tp6125
F2
s(Vdeducted
g23
tp6126
F1
s(Vmanly
g8
tp6127
F2
s(VPalais
g6
tp6128
F1
s(g52
S'.'
tp6129
F23
s(VSidney
g6
tp6130
F2
s(Vplucked
g23
tp6131
F1
s(Vtaught
g23
tp6132
F1
s(Vflashy
g19
tp6133
F1
s(Vdiscrimination
g19
tp6134
F1
s(Vprivates
g12
tp6135
F1
s(Vboth
g167
tp6136
F9
s(Varea
S'NN'
p6137
tp6138
F2
s(g106
g52
tp6139
F1
s(Vpleading
g52
tp6140
F1
s(g3424
g23
tp6141
F100
s(Vfestivity
g19
tp6142
F1
s(Vprodigious
g8
tp6143
F2
s(Vlead
g36
tp6144
F1
s(Vincognito
g19
tp6145
F1
s(g274
g209
tp6146
F2
s(Vparvenus
g19
tp6147
F4
s(Vthank
g17
tp6148
F1
s(Vmouldy
g8
tp6149
F1
s(Vclimates
g12
tp6150
F1
s(Vshawling
g52
tp6151
F1
s(Vthrown
g93
tp6152
F1
s(Vobjets
g12
tp6153
F2
s(VChange
g19
tp6154
F1
s(Vactions
S'NNS'
p6155
tp6156
F2
s(Vperson
S'NN'
p6157
tp6158
F2
s(Vpure
g8
tp6159
F3
s(Vsinew
g19
tp6160
F1
s(Vmillions
S'NNS'
p6161
tp6162
F1
s(Vinsult
g93
tp6163
F2
s(Vscalding
g52
tp6164
F1
s(VImagination
g6
tp6165
F1
s(Vdoes
g5849
tp6166
F45
s(Vspectacles
g12
tp6167
F1
s(Vcandid
g8
tp6168
F1
s(Vpensive
g8
tp6169
F2
s(Vplay
g36
tp6170
F3
s(Veminent
g8
tp6171
F3
s(Vgreatest
g182
tp6172
F5
s(Vsubmit
g93
tp6173
F1
s(Vsettle
g93
tp6174
F1
s(Vunhappily
g34
tp6175
F1
s(Vshades
g12
tp6176
F1
s(Vgoreign
g8
tp6177
F1
s(Vlemon-aid
g8
tp6178
F1
s(VRider
g6
tp6179
F1
s(Vdictating
g19
tp6180
F1
s(Vliquid
g8
tp6181
F1
s(Vapt
g8
tp6182
F1
s(Vsin
g19
tp6183
F1
s(V'd
g290
tp6184
F5
s(Vsilly
g8
tp6185
F1
s(Vhalf
g374
tp6186
F1
s(Vlord
g19
tp6187
F2
s(Vbless
g93
tp6188
F1
s(Ve.
g32
tp6189
F1
s(Vmeaning
g19
tp6190
F2
s(V`Why
g19
tp6191
F2
s(Venjoy
g93
tp6192
F5
s(g476
g8
tp6193
F25
s(Vbrilliant
g8
tp6194
F7
s(Vpassed
g17
tp6195
F2
s(Vfrightfully
g34
tp6196
F2
s(Vobey
g36
tp6197
F1
s(Vhey
g19
tp6198
F1
s(Vanswer
g36
tp6199
F2
s(Vfamily
S'NN'
p6200
tp6201
F23
s(VMaster
g6
tp6202
F2
s(Vcold
g8
tp6203
F4
s(Vargument
g19
tp6204
F1
s(VSir
S'NNP'
p6205
tp6206
F6
s(VAre
g6
tp6207
F2
s(g1777
g3268
tp6208
F22
s(VConsolidation
g6
tp6209
F1
s(Vseveral
S'JJ'
p6210
tp6211
F3
s(Vvogue
g19
tp6212
F1
s(Vflirting
g52
tp6213
F1
s(Vanother
g5372
tp6214
F20
s(Vremembered
g17
tp6215
F2
s(Vhired
g23
tp6216
F2
s(Vboquet
g19
tp6217
F1
s(Vprie-dieu.
g8
tp6218
F1
s(Vturn
g19
tp6219
F4
s(Vresolution
g19
tp6220
F1
s(Vsprite
g19
tp6221
F1
s(V-money
g19
tp6222
F1
s(Vagitated
g8
tp6223
F1
s(V-but
g32
tp6224
F1
s(Vsteady
g8
tp6225
F1
s(Vrecur
g19
tp6226
F1
s(Vgraduated
g23
tp6227
F1
s(Vbalancing
g19
tp6228
F1
s(VPisgah-peaks
g6
tp6229
F1
s(Vverre
g19
tp6230
F1
s(Vdressing-room
g19
tp6231
F1
s(Vprofuse
g19
tp6232
F4
s(Vsize
S'NN'
p6233
tp6234
F4
s(g276
g12
tp6235
F11
s(Vlooking
g3790
tp6236
F26
s(Vspeech
g19
tp6237
F7
s(Vconfine
g93
tp6238
F1
s(Vring
g19
tp6239
F4
s(g12
g19
tp6240
F9
s(Vchoicest
g19
tp6241
F1
s(Vlets
g32
tp6242
F1
s(VDo
g36
tp6243
F21
s(Vmusic-dealer
g19
tp6244
F1
s(Vvisit
g36
tp6245
F1
s(Vessential
g8
tp6246
F5
s(Vheroism
g19
tp6247
F3
s(Vsells
S'VBZ'
p6248
tp6249
F1
s(V-the
g8
tp6250
F6
s(Vpurchasing
g52
tp6251
F1
s(VMarasquin
g6
tp6252
F1
s(Vsplendors
g12
tp6253
F3
s(VWhen
g1261
tp6254
F28
s(g112
g121
tp6255
F15
s(Vcrisp
g8
tp6256
F1
s(Vforgive
g8
tp6257
F1
s(Vresist
g93
tp6258
F1
s(Vere
g34
tp6259
F2
s(S','
g74
tp6260
F4
s(Vbearer
g19
tp6261
F1
s(Vperceiving
g52
tp6262
F1
s(Vliving
g52
tp6263
F1
s(VHave
g36
tp6264
F4
s(Vsince
S'IN'
p6265
tp6266
F6
s(Vfauteuil
g19
tp6267
F1
s(Vburies
g32
tp6268
F1
s(g36
g182
tp6269
F1
s(V`What
g167
tp6270
F1
s(Vsauntered
g17
tp6271
F1
s(Voperas
g12
tp6272
F1
s(Vsilver-barred
g8
tp6273
F1
s(Vvotaries
g12
tp6274
F1
s(Vrail
g36
tp6275
F1
s(V1
g597
tp6276
F1
s(Vcarnation
g19
tp6277
F1
s(Vharmony
g19
tp6278
F1
s(Vwish
g19
tp6279
F1
s(Vdazzling
g8
tp6280
F1
s(Vfuddle
g36
tp6281
F1
s(Vintermingled
g17
tp6282
F1
s(VGobble
g6
tp6283
F1
s(Vhorrible
g8
tp6284
F1
s(g561
g681
tp6285
F163
s(g3816
g6
tp6286
F7
s(g93
g84
tp6287
F239
s(Vnobility
g19
tp6288
F6
s(g6
g6
tp6289
F897
s(Vfifty
g8
tp6290
F1
s(Vrefresh
g32
tp6291
F1
s(V'
g905
tp6292
F12
s(Vsubmits
g32
tp6293
F1
s(Vshort
g93
tp6294
F1
s(Vcoldly
g34
tp6295
F2
s(VPendennis
g6
tp6296
F1
s(Vignorant
g19
tp6297
F1
s(Vlooked
g23
tp6298
F3
s(g327
g1777
tp6299
F1
s(Vdexterous
g8
tp6300
F1
s(Vdeclared
g17
tp6301
F1
s(Vcooks
g12
tp6302
F1
s(Vremain
g93
tp6303
F1
s(Vimmunities
g12
tp6304
F1
s(V`Really
g34
tp6305
F1
s(Vblasts
g12
tp6306
F1
s(g143
g23
tp6307
F1
s(Vgown
g19
tp6308
F1
s(Vmankind
g19
tp6309
F2
s(Vhaving
g1668
tp6310
F12
s(Vstomach
g19
tp6311
F1
s(VFr
g6
tp6312
F1
s(Vcome
g19
tp6313
F1
s(Vvoice
g19
tp6314
F13
s(Vwheel
g19
tp6315
F1
s(S'NN'
p6316
g1800
tp6317
F27
s(g12
g476
tp6318
F5
s(V`Barbarous
g8
tp6319
F1
s(V12
S'CD'
p6320
tp6321
F2
s(VNo
g74
tp6322
F3
s(VAda
g6
tp6323
F3
s(Vhankering
g19
tp6324
F1
s(Vengaging
g8
tp6325
F1
s(Vunable
g8
tp6326
F1
s(VSail
g6
tp6327
F1
s(Vannounced
g23
tp6328
F1
s(g63
g3686
tp6329
F4
s(VNorman
g6
tp6330
F4
s(VVariet
g6
tp6331
F1
s(Vdew-drops
g12
tp6332
F1
s(V-Lent
g8
tp6333
F1
s(Vundoubtedly
g8
tp6334
F1
s(Vprefers
g32
tp6335
F4
s(Vremind
g93
tp6336
F1
s(Vnearer
g19
tp6337
F1
s(Vstare
g93
tp6338
F2
s(Vwind
g19
tp6339
F2
s(Vsmaller
S'JJR'
p6340
tp6341
F1
s(Vutterly
g8
tp6342
F1
s(Vcaught
g36
tp6343
F1
s(g27
g681
tp6344
F10
s(Vheart
S'NN'
p6345
tp6346
F10
s(Vnames
g12
tp6347
F1
s(Vcooking
g19
tp6348
F1
s(Vstyle
S'NN'
p6349
tp6350
F7
s(Vejaculated
g23
tp6351
F1
s(Vdarn
g93
tp6352
F1
s(Vcompassionately
g34
tp6353
F2
s(Vlegitimate
g8
tp6354
F1
s(VMinerva.
g6
tp6355
F1
s(Vsuperb
g19
tp6356
F1
s(VPooh
g6
tp6357
F2
s(Vpatents
g12
tp6358
F1
s(Vinsinuate
g93
tp6359
F1
s(Vdetermine
g93
tp6360
F1
s(Vfestival
g19
tp6361
F2
s(Vdeployed
g17
tp6362
F1
s(Vlarger
g3268
tp6363
F3
s(Vregulated
g8
tp6364
F1
s(Vvisitors
g12
tp6365
F1
s(VGolden
g6
tp6366
F1
s(VPAGE
g19
tp6367
F1
s(Vdespite
S'IN'
p6368
tp6369
F3
s(g12
g81
tp6370
F13
s(Vintertwined
g8
tp6371
F1
s(VTon
g6
tp6372
F1
s(VTell
g6
tp6373
F1
s(Vsubsidiary
S'NN'
p6374
tp6375
F1
s(Vbecomes
g12
tp6376
F1
s(Vpoorer
g19
tp6377
F1
s(Vpreaches
g32
tp6378
F1
s(Vsummered
g23
tp6379
F1
s(Varound
g274
tp6380
F10
s(Vsobbing
g19
tp6381
F1
s(Vrub
g93
tp6382
F1
s(Vnecessarily
g34
tp6383
F5
s(Vnative
g8
tp6384
F2
s(g32
g2931
tp6385
F1
s(g27
g231
tp6386
F2
s(Vacquaintances
g12
tp6387
F1
s(g227
S','
tp6388
F4
s(Vhostess
g19
tp6389
F1
s(Vsleepy
g19
tp6390
F1
s(Vemphasizing
g52
tp6391
F1
s(Vdecline
g19
tp6392
F1
s(Vliterature
g19
tp6393
F4
s(Vwrongly
g34
tp6394
F1
s(VAspasia
g6
tp6395
F1
s(Vchicken
g19
tp6396
F1
s(Vbar
g19
tp6397
F1
s(VCharles
S'NNP'
p6398
tp6399
F3
s(Vplans
g12
tp6400
F1
s(Vswim
g93
tp6401
F1
s(VElderly
g8
tp6402
F1
s(Vhall
g19
tp6403
F2
s(Vhistory
S'NN'
p6404
tp6405
F5
s(Villustrating
g52
tp6406
F2
s(VII
g6
tp6407
F1
s(Vprotest
g93
tp6408
F1
s(Vrefrain
g36
tp6409
F1
s(VDecency
g19
tp6410
F1
s(VPotiphar
g19
tp6411
F5
s(g129
g27
tp6412
F55
s(Vflowing
g52
tp6413
F1
s(Vcoal
g19
tp6414
F2
s(Vwoo
g93
tp6415
F2
s(Vgreatly
g34
tp6416
F1
s(Vcountryman
g19
tp6417
F1
s(Vtorrents
g12
tp6418
F1
s(g34
g106
tp6419
F10
s(Vsuperficial
g8
tp6420
F3
s(Vdream
g19
tp6421
F4
s(S')'
S'.'
tp6422
F1
s(S':'
g81
tp6423
F1
s(g159
S','
tp6424
F5
s(Vgossip
g19
tp6425
F2
s(Vdistillation
g19
tp6426
F1
s(Vuncle
g19
tp6427
F3
s(Vcomplainer
g19
tp6428
F1
s(V1853
g327
tp6429
F2
s(Vstriking
g8
tp6430
F1
s(Vstocks
S'NNS'
p6431
tp6432
F1
s(Vshow
g93
tp6433
F6
s(Vevery
g1661
tp6434
F71
s(Vmoved
g17
tp6435
F1
s(Vlights
g12
tp6436
F2
s(Vshoulder
g19
tp6437
F3
s(Vcaricature
g19
tp6438
F2
s(Vtea
g19
tp6439
F2
s(Vlast-new-novel
g8
tp6440
F1
s(Vcircumstances
S'NNS'
p6441
tp6442
F5
s(Vstraight
g17
tp6443
F1
s(Vheathen
g19
tp6444
F1
s(Vdecision
S'NN'
p6445
tp6446
F1
s(Vyet
g34
tp6447
F16
s(Vdeceive
g93
tp6448
F1
s(Vfault
g19
tp6449
F4
s(V-Amelia
g227
tp6450
F1
s(Vcool
g19
tp6451
F1
s(g112
S','
tp6452
F7
s(Vwisp
g19
tp6453
F1
s(g19
S')'
tp6454
F17
s(Vintimate
g36
tp6455
F1
s(Venthusiasm
g19
tp6456
F2
s(Vshopkeeper
g19
tp6457
F1
s(Vstared
g17
tp6458
F1
s(Vbelieved
g23
tp6459
F1
s(g2349
g23
tp6460
F6
s(Vprecisely
g34
tp6461
F7
s(VC.
S'NNP'
p6462
tp6463
F1
s(Vreckon
g93
tp6464
F1
s(Vstaggered
g23
tp6465
F1
s(Vharder
g476
tp6466
F1
s(Vresponsible
S'JJ'
p6467
tp6468
F2
s(Vstaircases
g12
tp6469
F1
s(Vpleasing
g19
tp6470
F1
s(Vregular
g8
tp6471
F4
s(Vraises
g32
tp6472
F1
s(Vcomplaint
g19
tp6473
F1
s(Vwearisome
g19
tp6474
F1
s(Vattaching
g52
tp6475
F1
s(Vbuild
g93
tp6476
F9
s(Vwant
g93
tp6477
F16
s(Vdancing
g8
tp6478
F1
s(Vlooks
g12
tp6479
F1
s(Vdarts
g32
tp6480
F1
s(g182
g23
tp6481
F1
s(Vbreak
g93
tp6482
F4
s(Vgenerously
g34
tp6483
F1
s(g625
g476
tp6484
F1
s(VPericles
g6
tp6485
F1
s(Vunmeaning
g8
tp6486
F1
s(VBoulogne
g6
tp6487
F3
s(Vbeggars
g8
tp6488
F1
s(V&
g989
tp6489
F9
s(VWhether
g561
tp6490
F1
s(Vround
g34
tp6491
F1
s(VMabille
g6
tp6492
F3
s(Vmemory
g19
tp6493
F1
s(Vlabour
g19
tp6494
F2
s(Vmarry
g19
tp6495
F1
s(Vdearer
g36
tp6496
F1
s(Vamen
g12
tp6497
F1
s(Vbefis
g32
tp6498
F1
s(Vsherry-cobblers
g12
tp6499
F1
s(Vpanting
g19
tp6500
F2
s(Vcoals
g12
tp6501
F2
s(Vemphasis
g19
tp6502
F1
s(g12
S':'
tp6503
F55
s(VFeejee
g6
tp6504
F1
s(V-they
g19
tp6505
F1
s(Vscarlet
g19
tp6506
F1
s(Vmum
g19
tp6507
F1
s(Vadmiring
g52
tp6508
F1
s(Vessentially
g34
tp6509
F2
s(Vangler
g19
tp6510
F1
s(Vunique
g8
tp6511
F1
s(g74
S'.'
tp6512
F32
s(Vpower
S'NN'
p6513
tp6514
F2
s(VNewport
g6
tp6515
F23
s(Vstand
g93
tp6516
F3
s(g392
S':'
tp6517
F1
s(Vinferior
g8
tp6518
F1
s(Vpensively
g34
tp6519
F1
s(Vknow
g17
tp6520
F1
s(Vaimless
g8
tp6521
F2
s(Vvery
g34
tp6522
F156
s(Vglad
g8
tp6523
F15
s(Vtruth
g19
tp6524
F10
s(Vproposed
g17
tp6525
F2
s(Vthorny
g8
tp6526
F1
s(Vfemale
g8
tp6527
F3
s(Vstriking
g52
tp6528
F1
s(Vshine
g19
tp6529
F1
s(Vmusic
S'NN'
p6530
tp6531
F11
s(Vinclined
g8
tp6532
F1
s(Vinstead
S'RB'
p6533
tp6534
F8
s(Vidleness
g19
tp6535
F1
s(g474
g2315
tp6536
F9
s(V`It
g24
tp6537
F1
s(Vsherbet
g19
tp6538
F1
s(Vsuperior
g8
tp6539
F4
s(VBroadway
g6
tp6540
F4
s(VBordeaux
g6
tp6541
F1
s(Vmerchant
g19
tp6542
F1
s(V-clustered
g17
tp6543
F1
s(g1669
g23
tp6544
F13
s(Vindispensable
g8
tp6545
F1
s(Vperfect
g19
tp6546
F1
s(Vbowl
g19
tp6547
F1
s(Vraised
g23
tp6548
F2
s(Vcynical
g8
tp6549
F1
s(V-what
g274
tp6550
F2
s(Vsore
g19
tp6551
F1
s(g128
g245
tp6552
F9
s(Vmilk-sops
g12
tp6553
F1
s(Vgentle
g8
tp6554
F3
s(Vout
g274
tp6555
F33
s(VDiva
g6
tp6556
F6
s(Vvexed
g8
tp6557
F1
s(Vharvest
g19
tp6558
F1
s(Vcigar
g19
tp6559
F2
s(VHere
g4324
tp6560
F9
s(Vprejudices
g12
tp6561
F1
s(Vnear
g8
tp6562
F1
s(Vtreat
g93
tp6563
F2
s(Vpale-blue
g8
tp6564
F1
s(g19
g143
tp6565
F8
s(Vnecessity
g19
tp6566
F2
s(VWhy
g3107
tp6567
F41
s(Vconnected
g23
tp6568
F1
s(Vdangerous
g8
tp6569
F1
s(Vset
g19
tp6570
F4
s(Vlot
g19
tp6571
F3
s(Vready
g8
tp6572
F7
s(Vsupper-room
g19
tp6573
F5
s(Vvanity
g19
tp6574
F3
s(Vturn
g36
tp6575
F1
s(Vtry
g93
tp6576
F7
s(Vslippers
g12
tp6577
F3
s(Vachieving
g52
tp6578
F1
s(Vplatitude
g19
tp6579
F1
s(Vrarely
g34
tp6580
F1
s(Vdrinks
g12
tp6581
F2
s(Vparticular
g8
tp6582
F2
s(Vpa.
g19
tp6583
F1
s(Vprecedent
g19
tp6584
F1
s(Vreads
g32
tp6585
F1
s(Vhuman
g8
tp6586
F9
s(VFrenchman
g6
tp6587
F1
s(Vcabinet-maker
g19
tp6588
F1
s(Vwait
g93
tp6589
F2
s(Vminister
S'NN'
p6590
tp6591
F11
s(Vsecures
g32
tp6592
F1
s(Vrepaid
g23
tp6593
F1
s(Vglad
g19
tp6594
F2
s(Vblessed
g8
tp6595
F1
s(Vshowing
g52
tp6596
F3
s(Vswears
g12
tp6597
F1
s(Vexclaimed
g17
tp6598
F2
s(V`Benighted
g8
tp6599
F1
s(Vde
g274
tp6600
F7
s(Vlistless
g8
tp6601
F1
s(g681
g63
tp6602
F6
s(Vpith
g19
tp6603
F1
s(g495
g427
tp6604
F12
s(Vhatbands
g12
tp6605
F1
s(Vc'est
g36
tp6606
F1
s(Vamusement
g19
tp6607
F1
s(VBest
g182
tp6608
F2
s(Vguess
g36
tp6609
F1
s(Vthorns
g12
tp6610
F1
s(Vbudding
g52
tp6611
F1
s(Vtoe
g93
tp6612
F1
s(Vswine
g19
tp6613
F1
s(Vburial
g8
tp6614
F1
s(VOh
g74
tp6615
F25
s(Vproportioned
g23
tp6616
F1
s(Vpapers
g12
tp6617
F1
s(Vcouple
g19
tp6618
F2
s(Vconfess
g36
tp6619
F2
s(g319
S'RB'
p6620
tp6621
F2
s(Vpeculiar
g8
tp6622
F5
s(Vrepublic
g19
tp6623
F4
s(VCHEESE
g6
tp6624
F1
s(Vcalf-business
g19
tp6625
F1
s(Vsecond
g8
tp6626
F2
s(Vmazes
g12
tp6627
F1
s(V-to
g12
tp6628
F1
s(Vcord
g19
tp6629
F1
s(VCroesus
g19
tp6630
F2
s(VScripture
g6
tp6631
F3
s(g159
g2674
tp6632
F1
s(Vmodern
g8
tp6633
F2
s(VWhat
g4764
tp6634
F48
s(Vopposed
g23
tp6635
F1
s(Vimmortal
g8
tp6636
F2
s(g32
g276
tp6637
F46
s(Vhasty
g8
tp6638
F2
s(g209
S')'
tp6639
F2
s(Vcertainly
S'RB'
p6640
tp6641
F17
s(Vsais-je
g19
tp6642
F1
s(Vscorn
g36
tp6643
F1
s(V-entirely
g34
tp6644
F1
s(Vstretched
g8
tp6645
F1
s(Vfighting
g52
tp6646
F1
s(Vmonth
S'NN'
p6647
tp6648
F2
s(Vstates
g12
tp6649
F1
s(Vacross
g274
tp6650
F5
s(g182
g12
tp6651
F18
s(Vselected
g17
tp6652
F1
s(g167
g194
tp6653
F12
s(Vnoblest
g182
tp6654
F1
s(VPark
g6
tp6655
F5
s(VApollo
g6
tp6656
F3
s(Vrecovered
g17
tp6657
F1
s(g128
g1777
tp6658
F234
s(S','
g290
tp6659
F23
s(Vgoblets
g12
tp6660
F1
s(g133
g1409
tp6661
F278
s(Vannually
S'RB'
p6662
tp6663
F1
s(Vgraft
g93
tp6664
F1
s(VStaggers
g6
tp6665
F1
s(VRome
g6
tp6666
F8
s(Vashamed
g23
tp6667
F2
s(VShay
g6
tp6668
F2
s(VGoldsmith
g6
tp6669
F3
s(g209
S':'
tp6670
F5
s(Vprinciple
g19
tp6671
F1
s(Vsettee
g19
tp6672
F2
s(Vitself
S'PRP'
p6673
tp6674
F2
s(Vdistinguished
g8
tp6675
F1
s(Vtame
g8
tp6676
F1
s(g476
g1257
tp6677
F6
s(Vnow-a-days
g12
tp6678
F1
s(Vhummed
g17
tp6679
F2
s(g905
g128
tp6680
F2
s(Vsenseless
g8
tp6681
F1
s(Vworships
g32
tp6682
F1
s(Vsociety
g19
tp6683
F90
s(Vdown
g34
tp6684
F19
s(Vimitate
g36
tp6685
F1
s(g12
g2674
tp6686
F22
s(Vtreat
g19
tp6687
F1
s(Venthusiastic
g8
tp6688
F3
s(VMeurice
g6
tp6689
F1
s(Vassure
g36
tp6690
F2
s(Vcurb
g93
tp6691
F1
s(Vtermed
g17
tp6692
F1
s(Vpast
g8
tp6693
F1
s(g274
g24
tp6694
F10
s(Vlistless
g34
tp6695
F1
s(Vdinner-time
g8
tp6696
F1
s(g2568
g907
tp6697
F3
s(VReynolds
g6
tp6698
F1
s(Vremark
g19
tp6699
F5
s(Vimprison
g93
tp6700
F1
s(Vvalue
S'NN'
p6701
tp6702
F1
s(Vsmall-clothes
g12
tp6703
F1
s(Vpierce
g93
tp6704
F1
s(VIndignant
g6
tp6705
F1
s(Vdisposed
g23
tp6706
F1
s(g561
g231
tp6707
F68
s(VAnother
S'DT'
p6708
tp6709
F1
s(Vdrove
g17
tp6710
F3
s(Vexploded
g17
tp6711
F1
s(Vprepared
g8
tp6712
F1
s(Ventitled
g17
tp6713
F1
s(Vbediamonded
g8
tp6714
F1
s(Vpolitest
g182
tp6715
F1
s(Vastonishing
g8
tp6716
F1
s(Vhalf-drowsy
g8
tp6717
F1
s(Vbien
g19
tp6718
F1
s(VJerusalem
g6
tp6719
F1
s(Vobtain
S'VB'
p6720
tp6721
F1
s(Vpastry-cook
g19
tp6722
F1
s(S','
g8
tp6723
F124
s(Vsympathize
g93
tp6724
F1
s(Vbrown
g8
tp6725
F1
s(V-spending
g52
tp6726
F1
s(Vauxiliaries
g12
tp6727
F1
s(Vpolite
g19
tp6728
F1
s(Vinsult
g19
tp6729
F2
s(VQuinze
g6
tp6730
F1
s(Vparalysis
g19
tp6731
F1
s(Vguide
g19
tp6732
F1
s(Vbranches
g12
tp6733
F1
s(Vdiscern
g93
tp6734
F1
s(Vbook
S'NN'
p6735
tp6736
F11
s(VGiven
g23
tp6737
F1
s(Vdreams
g12
tp6738
F2
s(Vimperfect
g8
tp6739
F1
s(Vcarpets
g12
tp6740
F4
s(VFinally
g34
tp6741
F2
s(Vsquare
g8
tp6742
F1
s(Vcrowd
g19
tp6743
F3
s(Voffered
g17
tp6744
F2
s(Veffectually
g34
tp6745
F1
s(S','
S'('
tp6746
F9
s(Vhat
g19
tp6747
F6
s(g276
g52
tp6748
F4
s(Vdismal
g8
tp6749
F1
s(Vtall
g19
tp6750
F1
s(Vruinous
g8
tp6751
F1
s(Vsup
g93
tp6752
F1
s(Vthousand
g327
tp6753
F5
s(g32
g63
tp6754
F7
s(Vaustere
g34
tp6755
F1
s(VMa'am
g19
tp6756
F1
s(g474
g19
tp6757
F4
s(V`strong
g6
tp6758
F1
s(g625
g319
tp6759
F1
s(Vhere
g312
tp6760
F35
s(Vhoped
g23
tp6761
F1
s(Vdeliberately
g34
tp6762
F2
s(Vpoverty
g19
tp6763
F1
s(Vlaughs
g32
tp6764
F1
s(Vsadly
g34
tp6765
F4
s(Vneglect
g19
tp6766
F1
s(Vpaint
g36
tp6767
F1
s(Vimplicit
g8
tp6768
F1
s(VMy
g27
tp6769
F28
s(Vreceive
g36
tp6770
F1
s(Vbackground
g19
tp6771
F2
s(Vunmoved
g8
tp6772
F1
s(Vone
g327
tp6773
F84
s(Vdisconsolately
g34
tp6774
F1
s(VMen
g12
tp6775
F2
s(S':'
g227
tp6776
F2
s(Vconfessor
g19
tp6777
F1
s(Vopposite
g8
tp6778
F1
s(Vreckless
g8
tp6779
F1
s(Vstylish
g8
tp6780
F2
s(g19
g209
tp6781
F22
s(V'S
g905
tp6782
F1
s(Vplain
g36
tp6783
F1
s(Vdine
g36
tp6784
F1
s(g36
S'.'
tp6785
F44
s(Vwinked
g23
tp6786
F1
s(Vmouths
g12
tp6787
F2
s(g34
g1777
tp6788
F107
s(Vimmemorially
g34
tp6789
F1
s(Vsending
g52
tp6790
F1
s(Vexhilarating
g52
tp6791
F1
s(Vmothers
g12
tp6792
F2
s(V-a
g93
tp6793
F1
s(VEst-ce
g8
tp6794
F1
s(Vcreme
g19
tp6795
F1
s(Vexcuse
g274
tp6796
F1
s(Vhell
g19
tp6797
F1
s(VServant
g6
tp6798
F1
s(Vbased
S'VBN'
p6799
tp6800
F2
s(Vil
g19
tp6801
F2
s(Vminute
g19
tp6802
F1
s(g5951
g209
tp6803
F4
s(V)
S')'
tp6804
F55
s(Vblood
g19
tp6805
F7
s(VLibery
g6
tp6806
F1
s(Vchair
g19
tp6807
F3
s(VHaut
g6
tp6808
F1
s(Vsunlight
g19
tp6809
F1
s(Vlofty
g8
tp6810
F4
s(Vdesk
g19
tp6811
F1
s(Vbland
g19
tp6812
F1
s(Vreality
g19
tp6813
F2
s(Vsee
g19
tp6814
F3
s(V-although
g274
tp6815
F1
s(g8
g128
tp6816
F80
s(Vpuerile
g8
tp6817
F2
s(Vfullsized
g23
tp6818
F1
s(g276
g769
tp6819
F44
s(Vserved
g23
tp6820
F1
s(Vsucceed
S'VB'
p6821
tp6822
F2
s(Vdine
g19
tp6823
F1
s(Vits
g27
tp6824
F47
s(Vbutterflies
g12
tp6825
F2
s(VSuch
g8
tp6826
F1
s(VP.
g19
tp6827
F1
s(Vdiamonds
g32
tp6828
F1
s(Vchildren
S'NNS'
p6829
tp6830
F8
s(Vstimulating
g8
tp6831
F1
s(Vswagger
g93
tp6832
F1
s(Vrattled
g17
tp6833
F1
s(Vhero
g19
tp6834
F1
s(Vle
g8
tp6835
F2
s(Vgas
S'NN'
p6836
tp6837
F2
s(g182
g274
tp6838
F5
s(VSambo
g6
tp6839
F1
s(g6
g2931
tp6840
F38
s(Vcredit
S'NN'
p6841
tp6842
F1
s(Vbewildered
g23
tp6843
F1
s(V-a
g8
tp6844
F9
s(Vautumnal
g8
tp6845
F1
s(Vwell
g93
tp6846
F1
s(VMiss
g6
tp6847
F37
s(Vread
g93
tp6848
F5
s(Vcentre
g19
tp6849
F1
s(Vfixed
g17
tp6850
F2
s(Vexample
S'NN'
p6851
tp6852
F1
s(Vunappreciating
g8
tp6853
F1
s(VIndiana
g6
tp6854
F1
s(Vposterity
g19
tp6855
F1
s(S'('
g129
tp6856
F2
s(VCompliment
g6
tp6857
F1
s(Vdamned
g23
tp6858
F1
s(Vfailed
g23
tp6859
F1
s(Vafterward
g19
tp6860
F1
s(Vrelations
S'NNS'
p6861
tp6862
F1
s(Vpoint
g19
tp6863
F2
s(Vwell-regulated
g8
tp6864
F1
s(Vuse
g93
tp6865
F6
s(Vopal
g8
tp6866
F1
s(Vchamber
g19
tp6867
F2
s(Vomit
g93
tp6868
F1
s(Vhad
g23
tp6869
F7
s(Veunion
g19
tp6870
F1
s(Vsoaking
g52
tp6871
F1
s(g1339
g182
tp6872
F18
s(Vaway
g34
tp6873
F19
s(g2792
g12
tp6874
F193
s(Vupon
g93
tp6875
F1
s(VAntarctic
g8
tp6876
F1
s(g231
g159
tp6877
F8
s(Vunder
S'IN'
p6878
tp6879
F14
s(Vgetting
g6115
tp6880
F15
s(g5208
g17
tp6881
F90
s(Vwindows
g12
tp6882
F2
s(Vhorse-hair-wigged
g8
tp6883
F1
s(Vcock-hatted
g8
tp6884
F1
s(Vwonders
g12
tp6885
F3
s(VSmiths
g6
tp6886
F1
s(Vbreak
g34
tp6887
F1
s(Vconsulted
g17
tp6888
F1
s(Vstuds
g19
tp6889
F1
s(Vbroke
g17
tp6890
F2
s(Vforgiveness
g19
tp6891
F1
s(VPatagonia
g6
tp6892
F2
s(Vsour
g19
tp6893
F1
s(Vsorry
g8
tp6894
F11
s(Vglittering
g19
tp6895
F2
s(Vunprincipled
g8
tp6896
F1
s(Videal
g19
tp6897
F1
s(S'CD'
p6898
g17
tp6899
F2
s(Vinquired
g17
tp6900
F2
s(g6
g227
tp6901
F11
s(Vpleasant
g19
tp6902
F1
s(Vlinen
g19
tp6903
F2
s(g23
S','
tp6904
F60
s(Vchariots
g12
tp6905
F1
s(Vprofess
g36
tp6906
F2
s(Vregulations
S'NNS'
p6907
tp6908
F1
s(Vsea-sick
g8
tp6909
F1
s(Vespecially
S'RB'
p6910
tp6911
F7
s(Vclose
g8
tp6912
F2
s(Vwearies
g32
tp6913
F1
s(Vadmiration
g19
tp6914
F2
s(g128
g23
tp6915
F18
s(Vmadness
g19
tp6916
F1
s(Vministering
g52
tp6917
F1
s(Vseeing
g52
tp6918
F4
s(Vgayly
g19
tp6919
F1
s(VPacha
g6
tp6920
F77
s(Vappointed
g23
tp6921
F2
s(Vintroduce
g93
tp6922
F1
s(Vstairs
g19
tp6923
F1
s(Vempires
g12
tp6924
F3
s(Vcovered
g23
tp6925
F2
s(Vamiability
g19
tp6926
F2
s(Vhundred
g327
tp6927
F3
s(Vblown
g23
tp6928
F1
s(Vvague
g8
tp6929
F4
s(Vstammering
g19
tp6930
F1
s(VTo-morrow
g8
tp6931
F1
s(g128
S'NNS'
p6932
tp6933
F111
s(Vlying
g52
tp6934
F2
s(S','
g112
tp6935
F74
s(VJellies
g12
tp6936
F1
s(Vso
g34
tp6937
F197
s(V`there
g24
tp6938
F1
s(Vbrother
g19
tp6939
F2
s(Vretain
g93
tp6940
F1
s(Vlow-necked
g8
tp6941
F2
s(Vchambermaid
g19
tp6942
F2
s(Vha
g8
tp6943
F1
s(Vunite
g274
tp6944
F1
s(Vchose
g17
tp6945
F1
s(Vcases
S'NNS'
p6946
tp6947
F1
s(Vtout
g19
tp6948
F1
s(Vcritical
S'JJ'
p6949
tp6950
F1
s(Vrepresent
g19
tp6951
F1
s(Vpoppies
g12
tp6952
F1
s(g476
g52
tp6953
F1
s(Vcultivate
g93
tp6954
F1
s(Vapprove
g93
tp6955
F2
s(Vastonished
g23
tp6956
F3
s(Vmountains
g12
tp6957
F1
s(V-I
g12
tp6958
F1
s(Vexasperated
g17
tp6959
F1
s(Vsugar-candy
g8
tp6960
F1
s(Vthanked
g17
tp6961
F1
s(Vgrumble
g8
tp6962
F2
s(Vtrembling
g19
tp6963
F1
s(Veager
g8
tp6964
F1
s(Vcarry
g19
tp6965
F1
s(VAmen
g12
tp6966
F2
s(VAll
g167
tp6967
F2
s(Vdoing
S'VBG'
p6968
tp6969
F4
s(Vbrilliancy
g19
tp6970
F1
s(Vanticipated
g17
tp6971
F1
s(Venjoyment
g19
tp6972
F4
s(VFROM
g6
tp6973
F3
s(g23
g6
tp6974
F23
s(V-let
g19
tp6975
F1
s(VEuropeans
g159
tp6976
F1
s(Vtangled
g8
tp6977
F1
s(Vclever
g8
tp6978
F1
s(Vnew
S'JJ'
p6979
tp6980
F33
s(Vclimb
g93
tp6981
F2
s(Vcareless
g19
tp6982
F2
s(Vgraceful
g8
tp6983
F5
s(Vuse
g36
tp6984
F1
s(Vmarvellous
g8
tp6985
F1
s(Vstraps
g12
tp6986
F1
s(Vspoons
g12
tp6987
F1
s(Vantique
g19
tp6988
F1
s(Vwoman
S'NN'
p6989
tp6990
F33
s(g3930
g12
tp6991
F18
s(Varound
g34
tp6992
F1
s(Vmutton-chops
g12
tp6993
F1
s(Vmanly
g34
tp6994
F3
s(Vdam
g93
tp6995
F1
s(Vdry
g19
tp6996
F1
s(Venvoy
g19
tp6997
F1
s(Vpaws
g19
tp6998
F1
s(VOf
S'IN'
p6999
tp7000
F7
s(Vduke
g19
tp7001
F1
s(Vprie-dieu
g8
tp7002
F2
s(Vrounded
g8
tp7003
F1
s(g32
g474
tp7004
F8
s(Vsable
g8
tp7005
F4
s(Vhandsome
g23
tp7006
F1
s(Vreckoning
g52
tp7007
F1
s(Vevils
g12
tp7008
F1
s(Vinto
S'IN'
p7009
tp7010
F58
s(Vcrushed
g23
tp7011
F2
s(Vtill
g17
tp7012
F1
s(Vdissipations
g12
tp7013
F1
s(Vcausing
g52
tp7014
F1
s(Vbitter
g8
tp7015
F3
s(g6
g182
tp7016
F1
s(Vshirt
g19
tp7017
F1
s(VBonaparte
g6
tp7018
F1
s(g3933
g905
tp7019
F33
s(Vclaret
g19
tp7020
F3
s(Vimpossible
g8
tp7021
F3
s(VCatholic
g6
tp7022
F2
s(g392
g17
tp7023
F6
s(Vbringing
g52
tp7024
F1
s(Vaffectation
g19
tp7025
F3
s(g52
g81
tp7026
F2
s(Vmadame
g19
tp7027
F3
s(Vreading
g52
tp7028
F2
s(Vbroadcloth
g167
tp7029
F1
s(VAnd
g133
tp7030
F54
s(Vmould
g36
tp7031
F1
s(V-no
g32
tp7032
F1
s(Vordered
g17
tp7033
F4
s(g52
S'('
tp7034
F1
s(VDecember
g1768
tp7035
F1
s(Vdecadent
g8
tp7036
F1
s(Vnegative
g8
tp7037
F1
s(Vbound
g274
tp7038
F1
s(g561
S':'
tp7039
F44
s(Vtraits
g19
tp7040
F1
s(Vimage
S'NN'
p7041
tp7042
F2
s(S')'
g24
tp7043
F1
s(g32
g182
tp7044
F1
s(V10
g3816
tp7045
F1
s(g93
g3424
tp7046
F10
s(Vorgie
g19
tp7047
F2
s(Vfavorite
g8
tp7048
F2
s(Vspringing
g52
tp7049
F1
s(g81
g4450
tp7050
F2
s(Vstate-room
g19
tp7051
F1
s(g19
g52
tp7052
F15
s(VSiam
g6
tp7053
F1
s(Vprofusion
g19
tp7054
F3
s(Vglaciers
g12
tp7055
F1
s(Vgrotesqueness
g19
tp7056
F1
s(VPrinted
g23
tp7057
F1
s(g128
S'('
tp7058
F1
s(Vamenities
g12
tp7059
F1
s(Vstudent
g19
tp7060
F1
s(Vchoked
g17
tp7061
F1
s(Vdisguise
g93
tp7062
F1
s(Vputting
g2913
tp7063
F3
s(VLady
g6
tp7064
F1
s(VPalace
g6
tp7065
F1
s(VTelemaque
g6
tp7066
F1
s(Vafraid
g19
tp7067
F1
s(Vstrain
g36
tp7068
F1
s(VFIRST
g6
tp7069
F1
s(Vconsiderations
g12
tp7070
F1
s(Vglided
g17
tp7071
F1
s(g12
g52
tp7072
F12
s(g227
S':'
tp7073
F2
s(Vinjured
g23
tp7074
F2
s(Vadmirable
g8
tp7075
F2
s(Vkeen
g8
tp7076
F1
s(Vindependence
g19
tp7077
F1
s(Vnear
g274
tp7078
F1
s(Vslightest
g182
tp7079
F4
s(Vlibitum
g19
tp7080
F1
s(Vaplomb
g19
tp7081
F2
s(Vreef
g19
tp7082
F1
s(Vunweariedly
g34
tp7083
F1
s(Vque
g19
tp7084
F2
s(Vfoolishly
g34
tp7085
F2
s(Vdislike
g19
tp7086
F1
s(Vgrumble
g36
tp7087
F1
s(Vavoid
g93
tp7088
F3
s(Vmyself
g561
tp7089
F12
s(Vappetite
g8
tp7090
F1
s(g143
g769
tp7091
F15
s(g8
g24
tp7092
F1
s(VYes
g74
tp7093
F21
s(V-the
g17
tp7094
F1
s(VPassing
g52
tp7095
F1
s(Vromantic
g8
tp7096
F6
s(VA
g167
tp7097
F30
s(VGalignani
g6
tp7098
F1
s(Vforefathers
g12
tp7099
F1
s(Vgroaned
g17
tp7100
F2
s(Vfond
g8
tp7101
F1
s(Vsitting
g52
tp7102
F5
s(Vapplause
g19
tp7103
F3
s(Vactively
g34
tp7104
F1
s(g63
g36
tp7105
F1
s(Vresemble
g93
tp7106
F1
s(Vcreations
g12
tp7107
F1
s(Vo'clock
g19
tp7108
F6
s(Vinsane
g19
tp7109
F1
s(Vbows
g32
tp7110
F1
s(VNorth
g6
tp7111
F1
s(Vinsulting
g52
tp7112
F1
s(g2349
g621
tp7113
F398
s(g1747
g112
tp7114
F6
s(g63
g231
tp7115
F1
s(Vshouts
g12
tp7116
F1
s(Vdespise
g34
tp7117
F1
s(g3790
g34
tp7118
F35
s(Vah
g19
tp7119
F2
s(Villustrious
g8
tp7120
F1
s(VThink
g19
tp7121
F2
s(Vodious
g8
tp7122
F1
s(Vfalls
g32
tp7123
F3
s(Vwonder
g36
tp7124
F9
s(Vreligious
g8
tp7125
F6
s(Vl'Enclos
g227
tp7126
F1
s(Vpedestals
g12
tp7127
F1
s(Velaborate
g8
tp7128
F2
s(Vcravat
g19
tp7129
F3
s(Vnoble
g8
tp7130
F11
s(VAiguille
g6
tp7131
F3
s(Vunequalled
g8
tp7132
F1
s(S':'
g570
tp7133
F14
s(Vlaughed
g17
tp7134
F10
s(Vtendency
g19
tp7135
F1
s(Vcried
g23
tp7136
F1
s(Vboys
g12
tp7137
F6
s(Vdoze
g19
tp7138
F1
s(Vfeasible
g8
tp7139
F1
s(Vmonstrous
g8
tp7140
F1
s(Vcharm
g19
tp7141
F1
s(Vloved
g17
tp7142
F1
s(Vbuying
g52
tp7143
F1
s(Vbuilt
g93
tp7144
F1
s(V-to
g36
tp7145
F1
s(Vpass
g36
tp7146
F2
s(Vlife
g1763
tp7147
F45
s(Vlove
g36
tp7148
F3
s(Vmatron
g19
tp7149
F2
s(Vsacrifice
g19
tp7150
F2
s(Vdrunken
g23
tp7151
F1
s(VFondly
g34
tp7152
F1
s(Vwigs
g12
tp7153
F1
s(Vsmashing
g52
tp7154
F1
s(Vspend
g93
tp7155
F2
s(Vfalling
S'VBG'
p7156
tp7157
F1
s(g6
g625
tp7158
F10
s(Vkeep
g36
tp7159
F1
s(Vgirl
g19
tp7160
F20
s(Vsketches
g12
tp7161
F1
s(VArabs
g6
tp7162
F1
s(Vchatting
g52
tp7163
F1
s(Vattractive
g8
tp7164
F1
s(g327
g1409
tp7165
F1
s(Vconsideration
g19
tp7166
F2
s(Vtremble
g8
tp7167
F2
s(g1893
g36
tp7168
F10
s(Voccasionally
g34
tp7169
F1
s(Vliquor-cases
g12
tp7170
F1
s(Vwalk
g36
tp7171
F2
s(Vrecall
g19
tp7172
F1
s(Vgently
g34
tp7173
F5
s(Vsowing
g52
tp7174
F1
s(g23
g1694
tp7175
F218
s(Vdisapprovingly
g34
tp7176
F1
s(Vpreserves
g12
tp7177
F2
s(Vevening
g8
tp7178
F1
s(Vhilarious
g8
tp7179
F1
s(Vpleased
g8
tp7180
F2
s(Vremnant
g19
tp7181
F1
s(Vdraw
g93
tp7182
F3
s(Vleads
g32
tp7183
F2
s(g290
g93
tp7184
F412
s(g167
g167
tp7185
F8
s(Vdrollery
g19
tp7186
F1
s(S')'
g128
tp7187
F3
s(Vshade
g19
tp7188
F1
s(Vrapture
g19
tp7189
F1
s(Vwound
g17
tp7190
F1
s(Vgingerbread
g19
tp7191
F1
s(Vjaded
g8
tp7192
F1
s(g34
g52
tp7193
F49
s(Varriving
g19
tp7194
F1
s(Vbar-room
g19
tp7195
F1
s(VDomino
g6
tp7196
F1
s(Veven
g34
tp7197
F15
s(Vgraves
g12
tp7198
F1
s(Vjustly
g34
tp7199
F2
s(VCroesuses
g6
tp7200
F1
s(V-
S':'
tp7201
F77
s(Vheard
g17
tp7202
F12
s(Vdrink
g93
tp7203
F4
s(g227
g227
tp7204
F6
s(Vusually
S'RB'
p7205
tp7206
F7
s(S':'
g622
tp7207
F54
s(S')'
g143
tp7208
F4
s(Vsmile
g19
tp7209
F5
s(VSmith
S'NNP'
p7210
tp7211
F3
s(Vsleeping
g52
tp7212
F1
s(Vuncompromising
g8
tp7213
F1
s(Vwrong
g8
tp7214
F3
s(V`Send
g93
tp7215
F1
s(VHottentots
g6
tp7216
F1
s(Vsuch
g93
tp7217
F1
s(Vone
g19
tp7218
F6
s(g17
g276
tp7219
F90
s(g4814
g182
tp7220
F2
s(Vsometimes
g32
tp7221
F1
s(VHave
g6
tp7222
F1
s(Vdrawing
g19
tp7223
F1
s(Vbooks
g2442
tp7224
F18
s(Vsimple
g8
tp7225
F3
s(Vgorgeousness
g19
tp7226
F1
s(Vrelied
g17
tp7227
F1
s(Vknows
g32
tp7228
F17
s(Vocean
g19
tp7229
F1
s(Vcare
g93
tp7230
F6
s(Vencounter
g19
tp7231
F1
s(g23
g2652
tp7232
F21
s(VNinon
g6
tp7233
F1
s(Vgain
g19
tp7234
F2
s(Vfraternized
g23
tp7235
F1
s(g412
S'('
tp7236
F1
s(Vaccompany
g93
tp7237
F3
s(Vfestive
g8
tp7238
F1
s(Vhelped
g17
tp7239
F1
s(Vall
g167
tp7240
F140
s(Vattentions
g12
tp7241
F1
s(Vannouncing
g52
tp7242
F1
s(Varistocratic
g8
tp7243
F13
s(Vconversation
g19
tp7244
F10
s(VLorettes
g6
tp7245
F1
s(Vneglected
g23
tp7246
F2
s(Vcorrupt
g19
tp7247
F1
s(g474
S'.'
tp7248
F14
s(Vperformance
S'NN'
p7249
tp7250
F1
s(VMinister
S'NNP'
p7251
tp7252
F6
s(Vprovoking
g19
tp7253
F1
s(VVI
g6
tp7254
F1
s(Vpowder
g19
tp7255
F1
s(Vaddition
S'NN'
p7256
tp7257
F1
s(Verect
g93
tp7258
F1
s(Vfiring
g19
tp7259
F1
s(Vexpect
g36
tp7260
F2
s(Vwander
g19
tp7261
F1
s(Vconformed
g23
tp7262
F1
s(Vbeat
g93
tp7263
F1
s(Vcarries
S'VBZ'
p7264
tp7265
F2
s(Vsuggest
g93
tp7266
F2
s(V\u005c
g6
tp7267
F4
s(V-whose
g8
tp7268
F1
s(Vtantalizing
g19
tp7269
F1
s(Vridiculous
g8
tp7270
F3
s(Vmerely
g34
tp7271
F8
s(Vexpress
g36
tp7272
F1
s(Vtalent
g19
tp7273
F4
s(Vminimum
g19
tp7274
F1
s(Vwitticism
g19
tp7275
F1
s(Vrecoils
g32
tp7276
F1
s(Vprincely
g8
tp7277
F1
s(g19
g474
tp7278
F1
s(Vends
g12
tp7279
F2
s(Vholders
S'NNS'
p7280
tp7281
F1
s(g36
g93
tp7282
F11
s(Vwindow
g19
tp7283
F8
s(Vdear
g8
tp7284
F54
s(Vruminating
g52
tp7285
F1
s(Vwell
g34
tp7286
F59
s(Vhusbandman
g19
tp7287
F1
s(VEven
g34
tp7288
F2
s(Vtenderness
g19
tp7289
F1
s(Voyster-gravy
g8
tp7290
F1
s(Vbaby-waist
g19
tp7291
F3
s(Vclocks
g32
tp7292
F1
s(V-serves
g32
tp7293
F1
s(g8
g19
tp7294
F1139
s(VTum
g6
tp7295
F1
s(VBass
g6
tp7296
F2
s(g905
g63
tp7297
F1
s(VOn
S'IN'
p7298
tp7299
F5
s(V`what
g112
tp7300
F1
s(VSally
g34
tp7301
F1
s(VCourtesy
g6
tp7302
F1
s(Vlaughing
g19
tp7303
F4
s(V;
S':'
tp7304
F266
s(Vmake
g93
tp7305
F30
s(Vsat
g17
tp7306
F9
s(Vtee
g19
tp7307
F2
s(Vbetter
g34
tp7308
F1
s(Vtrorsyaim
g19
tp7309
F1
s(VMean
g93
tp7310
F1
s(Vmeasured
g23
tp7311
F1
s(Vroar
g19
tp7312
F2
s(Vegime
g19
tp7313
F1
s(Vsweet
g19
tp7314
F1
s(Vqueens
g12
tp7315
F1
s(S')'
S','
tp7316
F13
s(Vvertu
g19
tp7317
F1
s(Vendeavors
g32
tp7318
F1
s(Vsilent
g8
tp7319
F3
s(Vlasts
g32
tp7320
F1
s(V:
S':'
tp7321
F157
s(S','
g907
tp7322
F4
s(VRomans
g159
tp7323
F2
s(g17
g476
tp7324
F7
s(Vweddings
g12
tp7325
F1
s(Vpaste
g19
tp7326
F1
s(Vdepend
g93
tp7327
F1
s(VPUTNAM
g6
tp7328
F2
s(Vgentlemanly
g8
tp7329
F6
s(Vthank
g19
tp7330
F1
s(Vaccounted
g23
tp7331
F1
s(Vexclusion
g19
tp7332
F1
s(Vphilosophy
g19
tp7333
F1
s(Vearlier
g63
tp7334
F1
s(Vsank
g19
tp7335
F1
s(Vcarpet
g19
tp7336
F4
s(Vpolka-redowa
g8
tp7337
F1
s(Vspooneyism
g19
tp7338
F1
s(V-if
g19
tp7339
F1
s(g209
g81
tp7340
F3
s(Vsipping
g52
tp7341
F1
s(Vfive
S'CD'
p7342
tp7343
F1
s(Vsails
g12
tp7344
F1
s(Vsinging
g52
tp7345
F1
s(Vstaring
g52
tp7346
F1
s(Vhunger
g19
tp7347
F1
s(Vthoroughly
g34
tp7348
F1
s(Vtickle
g93
tp7349
F3
s(VOther
S'JJ'
p7350
tp7351
F2
s(Vfounded
g17
tp7352
F1
s(Vthinking
g52
tp7353
F2
s(Vcovers
g12
tp7354
F1
s(Vinherit
g36
tp7355
F1
s(Vtrustful
g8
tp7356
F1
s(Vfundamental
g8
tp7357
F1
s(Vduly
g34
tp7358
F1
s(Vdetermined
g23
tp7359
F2
s(g52
g758
tp7360
F40
s(VGrey
g6
tp7361
F2
s(VOne
g327
tp7362
F7
s(VPall-Mall
g6
tp7363
F1
s(Vquote
g93
tp7364
F1
s(Vhypocrisy
g19
tp7365
F2
s(Vjr
g19
tp7366
F1
s(Vglittering
g52
tp7367
F2
s(Vsuspicion
g19
tp7368
F1
s(V-the
g6
tp7369
F1
s(Vnavigators
g12
tp7370
F1
s(Vsweeter
g63
tp7371
F1
s(Vamong
S'IN'
p7372
tp7373
F12
s(Vspoke
g17
tp7374
F3
s(Vdismissed
g17
tp7375
F1
s(Vbegged
g17
tp7376
F1
s(VT
g6
tp7377
F1
s(Vsneering
g8
tp7378
F1
s(Vevident
g8
tp7379
F1
s(Vtoad
g19
tp7380
F1
s(Vstrong
S'JJ'
p7381
tp7382
F6
s(Vdelight
g19
tp7383
F3
s(Vhem-stitch
g19
tp7384
F1
s(Vbelles
g12
tp7385
F1
s(Vdesires
g12
tp7386
F1
s(Vall
g374
tp7387
F56
s(Vweariness
g19
tp7388
F1
s(Vwaist
g19
tp7389
F2
s(Vnervously
g34
tp7390
F1
s(Vpreaching
g19
tp7391
F3
s(Vpulled
g17
tp7392
F1
s(VAmbassador
g6
tp7393
F11
s(Vsocially
g34
tp7394
F1
s(Vinterested
g8
tp7395
F2
s(Vunnaturally
g34
tp7396
F1
s(V`you
g24
tp7397
F1
s(Vsummons
g12
tp7398
F1
s(Vthunder-storm
g19
tp7399
F1
s(Vsays
g3717
tp7400
F68
s(VDear
g274
tp7401
F6
s(Vspoken
g19
tp7402
F2
s(Vobedient
g8
tp7403
F2
s(VMinna
g6
tp7404
F4
s(V-even
g93
tp7405
F1
s(g8
S'.'
tp7406
F175
s(Vto-night
g19
tp7407
F1
s(Vtown
S'NN'
p7408
tp7409
F17
s(Vyounger
g63
tp7410
F4
s(g234
g8
tp7411
F7
s(Vheard
g19
tp7412
F4
s(Vhospitality
g19
tp7413
F1
s(Vfarci
g19
tp7414
F1
s(Vquarter
S'NN'
p7415
tp7416
F3
s(Vadvancing
g52
tp7417
F1
s(Vshuffle
g93
tp7418
F2
s(Vbrought
g17
tp7419
F2
s(Vimpose
g93
tp7420
F1
s(Vearnestly
g34
tp7421
F1
s(Vheat
g19
tp7422
F2
s(Vcleanliness
g19
tp7423
F2
s(V-if
g274
tp7424
F3
s(Vflatters
g12
tp7425
F1
s(Vfancy
g36
tp7426
F2
s(Vtried
g23
tp7427
F1
s(Vcloths
g12
tp7428
F1
s(VMust
g8
tp7429
F1
s(VILLUSTRATED
g23
tp7430
F1
s(Vde
g63
tp7431
F1
s(VContinent
g19
tp7432
F1
s(g476
S','
tp7433
F4
s(Vdinner
g93
tp7434
F4
s(Vreport
g19
tp7435
F1
s(Vbed
g23
tp7436
F1
s(S':'
g23
tp7437
F2
s(Vmaster
g19
tp7438
F4
s(Vnext
g34
tp7439
F1
s(Vcousin
g19
tp7440
F2
s(Vset
g93
tp7441
F1
s(g209
g1612
tp7442
F3
s(Vdrawing-rooms
g12
tp7443
F1
s(Vwent
g3474
tp7444
F33
s(S':'
S'('
tp7445
F2
s(Vmorsels
g12
tp7446
F1
s(V'ye
g290
tp7447
F1
s(VSalle
g6
tp7448
F1
s(g19
S','
tp7449
F1353
s(Vcall
g93
tp7450
F10
s(g12
g4412
tp7451
F49
s(Vmeant
g17
tp7452
F6
s(g3560
g625
tp7453
F53
s(Vdispute
g93
tp7454
F1
s(Vamount.
g19
tp7455
F1
s(Vmirage
g19
tp7456
F1
s(Vtrees
g12
tp7457
F1
s(Vmelancholy
g19
tp7458
F2
s(Vvaliant
g8
tp7459
F1
s(Vworse
g63
tp7460
F7
s(Vinspire
g19
tp7461
F1
s(g143
g327
tp7462
F1
s(VDecadence
g6
tp7463
F1
s(Vgallery
g19
tp7464
F3
s(Velbows
g12
tp7465
F1
s(Vlaces
g12
tp7466
F2
s(Vfeeling
g19
tp7467
F11
s(Vdizzy
g8
tp7468
F1
s(Vways
S'NNS'
p7469
tp7470
F3
s(Vseat
g36
tp7471
F1
s(Vambition
g19
tp7472
F6
s(Vposture
g19
tp7473
F1
s(Vprolong
g93
tp7474
F1
s(V-that
g112
tp7475
F4
s(Vfor
g320
tp7476
F261
s(Vwomanly
g34
tp7477
F1
s(Vlingering
g52
tp7478
F2
s(Vretire
g93
tp7479
F2
s(g128
g34
tp7480
F186
s(Vdwell
g36
tp7481
F1
s(Vbeginning
g19
tp7482
F2
s(g327
g63
tp7483
F1
s(Vclaret
g8
tp7484
F1
s(Vmolu
g19
tp7485
F5
s(Vscraping
g52
tp7486
F1
s(Vbidding
g19
tp7487
F1
s(VNorthumberland
g6
tp7488
F1
s(VParis
S'NNP'
p7489
tp7490
F55
s(Vvaried
g23
tp7491
F1
s(Veasier
g63
tp7492
F1
s(Vwords
S'NNS'
p7493
tp7494
F4
s(Vfount
g19
tp7495
F1
s(Vpromenade
g19
tp7496
F2
s(S'('
S'.'
tp7497
F1
s(Vparish
g19
tp7498
F3
s(Vbeloved
g8
tp7499
F1
s(Vrepublican
g19
tp7500
F1
s(Vhearing
g52
tp7501
F1
s(g81
g276
tp7502
F2
s(Vdrifts
g12
tp7503
F1
s(Vutterly
g34
tp7504
F3
s(V-dancing
g52
tp7505
F1
s(Velbow
g19
tp7506
F1
s(Vcarrying
g52
tp7507
F1
s(VDid
g6
tp7508
F1
s(Vavoided
g23
tp7509
F1
s(Vfurnished
g8
tp7510
F1
s(V-I
g8
tp7511
F4
s(Vpoint
g93
tp7512
F1
s(Vsatisfaction
g19
tp7513
F4
s(Vpropose
g93
tp7514
F2
s(Vturning
g52
tp7515
F3
s(Voccasion
g19
tp7516
F2
s(S','
S':'
tp7517
F79
s(VAngler.
g6
tp7518
F1
s(g3442
g112
tp7519
F24
s(g6
g681
tp7520
F101
s(g4785
g63
tp7521
F5
s(Vshirtfront
g19
tp7522
F1
s(Vstarts
g32
tp7523
F2
s(Vlovely
g8
tp7524
F6
s(VHelen
g6
tp7525
F1
s(Vsoul
g19
tp7526
F4
s(VAlp
g6
tp7527
F1
s(Voff
g34
tp7528
F1
s(Vlightly
g34
tp7529
F1
s(Vintimacy
g19
tp7530
F3
s(Vselects
g32
tp7531
F1
s(Vclear
g93
tp7532
F1
s(V2d.
g327
tp7533
F1
s(VMrs
g6
tp7534
F12
s(g159
g36
tp7535
F2
s(Vspeak
g93
tp7536
F13
s(g143
g93
tp7537
F11
s(g234
g327
tp7538
F1
s(Vhearth
g19
tp7539
F1
s(Vmet
g17
tp7540
F4
s(Vconstitution
g19
tp7541
F1
s(Vbloodshot
g19
tp7542
F1
s(Vleaves
g32
tp7543
F2
s(g182
g6
tp7544
F4
s(Vmuff
g19
tp7545
F1
s(Vlost
g23
tp7546
F8
s(Vdogmatic
g8
tp7547
F1
s(Vunreasonable
g8
tp7548
F1
s(Vsurprises
g12
tp7549
F1
s(Voffice
S'NN'
p7550
tp7551
F2
s(VSuppose
g93
tp7552
F1
s(Vscenery
g19
tp7553
F1
s(Vmingled
g23
tp7554
F2
s(Vtheories
g12
tp7555
F1
s(Vshrugged
g17
tp7556
F1
s(Vbeginnings
g12
tp7557
F1
s(Vinvitation
g19
tp7558
F2
s(Vwickedly
g34
tp7559
F1
s(Vquite
g8
tp7560
F1
s(Vopens
g32
tp7561
F3
s(Vreplied
g17
tp7562
F22
s(Vspilt
g8
tp7563
F1
s(Vponder
g93
tp7564
F1
s(Vpray-do
g19
tp7565
F1
s(Vperformed
g23
tp7566
F2
s(Vsounds
g32
tp7567
F2
s(S','
g374
tp7568
F4
s(VJolly
g34
tp7569
F1
s(Vsullen
g8
tp7570
F1
s(Vreminding
g52
tp7571
F1
s(VFrenchwoman
g19
tp7572
F1
s(Vwork
g93
tp7573
F1
s(VCongress
S'NNP'
p7574
tp7575
F1
s(Venterprising
g19
tp7576
F1
s(Vretired
g23
tp7577
F1
s(VWho
g112
tp7578
F17
s(Vher
g27
tp7579
F110
s(Vexcessively
g34
tp7580
F1
s(Vfascinating
g8
tp7581
F1
s(Vcountries
S'NNS'
p7582
tp7583
F2
s(Vsends
g32
tp7584
F2
s(Vdispleased
g17
tp7585
F1
s(Vairs
g12
tp7586
F2
s(VVillage
g6
tp7587
F1
s(Vprie-dieu
g19
tp7588
F3
s(Vtasted
g23
tp7589
F1
s(Vwomanly
g8
tp7590
F1
s(Vdiamond
g19
tp7591
F5
s(Vshows
g32
tp7592
F4
s(Vdressing
g19
tp7593
F1
s(Vdrove
g8
tp7594
F1
s(g905
g182
tp7595
F2
s(VApollos
g6
tp7596
F1
s(Vcorpulence
g19
tp7597
F1
s(Vpassion
g19
tp7598
F1
s(Vtear
g19
tp7599
F1
s(Vmine
g8
tp7600
F1
s(Vcatch
g36
tp7601
F1
s(Voutline
g19
tp7602
F1
s(Vthrill
g19
tp7603
F1
s(Vtogether
g474
tp7604
F1
s(Vacknowledging
g19
tp7605
F1
s(VClorinda
g6
tp7606
F2
s(Vpenance
g19
tp7607
F1
s(Vclub
g19
tp7608
F1
s(VCarrie
g6
tp7609
F8
s(g23
g476
tp7610
F2
s(Vobvious
g8
tp7611
F1
s(Vsprig
g19
tp7612
F2
s(Vheraldic
g8
tp7613
F2
s(Vtouched
g23
tp7614
F1
s(Voriginality
g19
tp7615
F1
s(g2349
g327
tp7616
F6
s(g17
g319
tp7617
F2
s(Vpresentable
g8
tp7618
F3
s(Vpieces
g12
tp7619
F1
s(Vancestors
g12
tp7620
F3
s(Vdelicacies
g12
tp7621
F1
s(Vchildlike
g19
tp7622
F1
s(VRoman
g6
tp7623
F2
s(Vadded
g17
tp7624
F1
s(S'('
g19
tp7625
F3
s(Vinsipidity
g19
tp7626
F1
s(g17
g561
tp7627
F248
s(Vbreeches
g12
tp7628
F2
s(V-let
g93
tp7629
F1
s(Vcountenance
g19
tp7630
F1
s(Vable
S'JJ'
p7631
tp7632
F6
s(Vdecline
g93
tp7633
F1
s(Vphysically
g34
tp7634
F1
s(VPity
g19
tp7635
F1
s(Venergies
g12
tp7636
F2
s(Vgospel
g19
tp7637
F1
s(Venamored
g23
tp7638
F1
s(g6
S':'
tp7639
F51
s(Vthoughtful
g19
tp7640
F2
s(g227
g6
tp7641
F13
s(S'DT'
p7642
g411
tp7643
F23
s(S':'
g27
tp7644
F7
s(Vexplain
g93
tp7645
F3
s(Vpictures
g32
tp7646
F1
s(Vdaylight
g23
tp7647
F1
s(Vmoral
g8
tp7648
F4
s(S','
g227
tp7649
F6
s(Vwines
g12
tp7650
F4
s(Vsix
g6898
tp7651
F5
s(Vlady
g19
tp7652
F14
s(Vsombre
g19
tp7653
F1
s(Vbonnet
g19
tp7654
F4
s(Vdrive
g93
tp7655
F1
s(Vartificiality
g19
tp7656
F2
s(Vmean
g36
tp7657
F12
s(VAngel
g6
tp7658
F1
s(Vpendant
g19
tp7659
F1
s(Vsink
g36
tp7660
F2
s(Vfirm
g8
tp7661
F1
s(Vaware
g8
tp7662
F1
s(Vkeep
g93
tp7663
F11
s(VSands
g6
tp7664
F1
s(Vefforts
S'NNS'
p7665
tp7666
F1
s(Vbuckles
g12
tp7667
F1
s(Vwell-dressed
g8
tp7668
F2
s(Vamassed
g17
tp7669
F1
s(V-my
g8
tp7670
F2
s(Vcoronals
g12
tp7671
F1
s(Vthe
g231
tp7672
F1804
s(VGeorge
S'NNP'
p7673
tp7674
F3
s(g36
g474
tp7675
F8
s(Vmissed
g23
tp7676
F1
s(Vye
g36
tp7677
F1
s(VReverend
g6
tp7678
F3
s(Vvirtues
g12
tp7679
F3
s(Vici
g8
tp7680
F1
s(g1777
g34
tp7681
F67
s(VMemoires
g12
tp7682
F1
s(VSues
g6
tp7683
F1
s(Vblushing
g19
tp7684
F1
s(Vfondly
g34
tp7685
F1
s(VOctober
S'NNP'
p7686
tp7687
F1
s(Vstep
g36
tp7688
F1
s(Vsoftly
g34
tp7689
F4
s(Vservant
g19
tp7690
F17
s(Vmagical
g8
tp7691
F1
s(Vcondemn
g17
tp7692
F1
s(Vdecorates
g32
tp7693
F1
s(Vadvice
g19
tp7694
F3
s(Vinduces
g32
tp7695
F1
s(S','
g625
tp7696
F51
s(Vc.
g8
tp7697
F1
s(g12
g6
tp7698
F2
s(Vconviction
g19
tp7699
F2
s(Vpath
g19
tp7700
F2
s(Vdanced
g23
tp7701
F2
s(VAzalia
g6
tp7702
F2
s(V-oh
g8
tp7703
F1
s(Vsits
g12
tp7704
F1
s(Vdamsels
g12
tp7705
F2
s(Vgiving
S'VBG'
p7706
tp7707
F2
s(Vhumanity
g19
tp7708
F1
s(Vcan
g121
tp7709
F71
s(VFamille
g6
tp7710
F13
s(Vintimated
g23
tp7711
F1
s(Vproprieties
g12
tp7712
F1
s(Vnamed
g23
tp7713
F1
s(Vfame
g19
tp7714
F4
s(Vwitty
g19
tp7715
F1
s(Vchef
g19
tp7716
F1
s(Vnature
g19
tp7717
F6
s(Vbounding
g52
tp7718
F1
s(Vstruggled
g17
tp7719
F1
s(Vheavenly
g34
tp7720
F1
s(g112
g19
tp7721
F12
s(Vlifted
g17
tp7722
F1
s(g143
g6
tp7723
F90
s(Vsocial
S'JJ'
p7724
tp7725
F21
s(g374
g7642
tp7726
F69
s(V-whom
g274
tp7727
F1
s(Vlorgnettes
g12
tp7728
F1
s(Vvalued
g17
tp7729
F1
s(Vspoiled
g17
tp7730
F3
s(Vbuildings
g12
tp7731
F1
s(g8
g327
tp7732
F9
s(Vcot-bed
g8
tp7733
F1
s(VNaturally
g34
tp7734
F1
s(Vdandified
g17
tp7735
F1
s(Vsay
g36
tp7736
F28
s(Vpromotion
g19
tp7737
F1
s(g209
g63
tp7738
F1
s(Vpocket
g19
tp7739
F1
s(Vtongue
g19
tp7740
F3
s(VYet
g34
tp7741
F4
s(Vfurnishing
g19
tp7742
F2
s(Vconceded
g23
tp7743
F1
s(Varchbishops
g12
tp7744
F1
s(Vcontribute
g93
tp7745
F1
s(Vcharacteristics
g12
tp7746
F1
s(Veagerly
g34
tp7747
F1
s(VMake
g6
tp7748
F1
s(Vungracious
g8
tp7749
F1
s(Vsew
g19
tp7750
F1
s(VArabella
g6
tp7751
F1
s(Vleft
g23
tp7752
F2
s(Vbreakfast
g19
tp7753
F2
s(Vseating
g52
tp7754
F1
s(Vmelted
g17
tp7755
F1
s(g625
g52
tp7756
F19
s(Vmeet
g93
tp7757
F7
s(Vpresumptive
g19
tp7758
F1
s(Vr
g19
tp7759
F2
s(g12
g12
tp7760
F3
s(Vinvited
g23
tp7761
F3
s(Vspecimens
g12
tp7762
F4
s(Vdonor
g19
tp7763
F1
s(Vpicture
g19
tp7764
F20
s(Vconsidered
g17
tp7765
F1
s(Vresult
g19
tp7766
F5
s(VLot
g6
tp7767
F2
s(Voff-hand
g19
tp7768
F1
s(Vpersonoe
g19
tp7769
F1
s(Vdirty
g8
tp7770
F1
s(VSome
S'DT'
p7771
tp7772
F2
s(VFred
g6
tp7773
F4
s(VSalons
g6
tp7774
F1
s(Vbroadsides
g12
tp7775
F1
s(Vroses
g12
tp7776
F4
s(Vparade
g19
tp7777
F1
s(Vconsider
g93
tp7778
F7
s(Vhim
g4849
tp7779
F138
s(Vis
g113
tp7780
F555
s(Vdeafen
g93
tp7781
F1
s(Vshouted
g17
tp7782
F1
s(Vfossil
g8
tp7783
F1
s(Vamply
g34
tp7784
F1
s(g5372
g276
tp7785
F1
s(Vtalented
g8
tp7786
F1
s(Vwithout
S'IN'
p7787
tp7788
F27
s(VAlhambra-watered
g6
tp7789
F1
s(Vsummary
g8
tp7790
F1
s(VMartelle
g6
tp7791
F3
s(Vwatch
g36
tp7792
F3
s(g143
g1339
tp7793
F25
s(g52
g112
tp7794
F2
s(Vbean
g19
tp7795
F1
s(V-whether
g93
tp7796
F1
s(Vinterior
g8
tp7797
F1
s(Vreader
g19
tp7798
F5
s(Vpitied
g17
tp7799
F1
s(Vvases
g12
tp7800
F2
s(VLet
g93
tp7801
F8
s(Vscribes
g12
tp7802
F1
s(VParisienne
g6
tp7803
F3
s(g474
g112
tp7804
F2
s(Veat
g93
tp7805
F3
s(Vsarcasm
g19
tp7806
F1
s(Vbecomes
g32
tp7807
F2
s(Vdecadence
g19
tp7808
F1
s(g276
g19
tp7809
F14
s(VVatican
g6
tp7810
F1
s(Vsend
g36
tp7811
F1
s(Ventirely
g34
tp7812
F12
s(Vpretensions
g12
tp7813
F1
s(VCriticism
g19
tp7814
F1
s(Vasked
g23
tp7815
F15
s(Vendeavor
g36
tp7816
F1
s(Vsnobbish
g8
tp7817
F1
s(Vmournful
g8
tp7818
F4
s(Vha
g19
tp7819
F1
s(VCenturies
g12
tp7820
F1
s(g358
S','
tp7821
F273
s(Vrounding
g52
tp7822
F1
s(V`My
g6
tp7823
F1
s(Vthese
g4556
tp7824
F28
s(Vaverse
g8
tp7825
F1
s(Vreminded
g23
tp7826
F1
s(Vcoming
g8
tp7827
F1
s(Vsweetest
g182
tp7828
F1
s(Valways
S'RB'
p7829
tp7830
F36
s(Vtrust
g36
tp7831
F3
s(Vhard
g34
tp7832
F3
s(VHeaven
g6
tp7833
F1
s(Vclutched
g17
tp7834
F1
s(VNapoleon
g6
tp7835
F5
s(S'('
g797
tp7836
F2
s(Vawful
g8
tp7837
F6
s(g182
S','
tp7838
F14
s(Vvolley
g19
tp7839
F1
s(Vpleasures
g12
tp7840
F1
s(g194
g476
tp7841
F1
s(Vreferred
g23
tp7842
F1
s(Vsinking
g52
tp7843
F1
s(g875
g24
tp7844
F4
s(V-so
g17
tp7845
F1
s(Vreal
S'JJ'
p7846
tp7847
F8
s(Vmost
g23
tp7848
F1
s(Vdenunciation
g19
tp7849
F1
s(Vgift
g19
tp7850
F1
s(Vchampagne-glass
g19
tp7851
F1
s(Vcomforted
g23
tp7852
F1
s(Vmy
g1262
tp7853
F203
s(Vpleasanter
g8
tp7854
F1
s(Vbuttoned
g17
tp7855
F1
s(Vwherever
g34
tp7856
F1
s(Vwatches
g12
tp7857
F1
s(Vlustrous
g8
tp7858
F1
s(Vthumbs
g12
tp7859
F1
s(Vglide
g19
tp7860
F1
s(g6
g234
tp7861
F1
s(Vcompensated
g23
tp7862
F1
s(VA.
g19
tp7863
F1
s(Vstories
g12
tp7864
F2
s(Vsly
g34
tp7865
F1
s(Vcircumstance
g19
tp7866
F1
s(Vunhappy
g8
tp7867
F4
s(Vcomfortable
g8
tp7868
F4
s(Vslowly
g34
tp7869
F5
s(Vrampant
g8
tp7870
F1
s(Vretreats
g12
tp7871
F1
s(Vbelow
g19
tp7872
F1
s(Vtop
g8
tp7873
F1
s(V-when
g8
tp7874
F2
s(Vpatted
g17
tp7875
F3
s(Vregularly
g34
tp7876
F2
s(Vete
g227
tp7877
F2
s(g1800
g12
tp7878
F7
s(Vfit
g93
tp7879
F2
s(Vdespise
g93
tp7880
F1
s(Vargent
g19
tp7881
F1
s(Vbear
g36
tp7882
F1
s(Vless
g63
tp7883
F8
s(Vmounted
g23
tp7884
F1
s(g159
g128
tp7885
F1
s(Vfirm
g19
tp7886
F1
s(Vkindle
g93
tp7887
F1
s(Vphilosophe
g19
tp7888
F1
s(VArabs
g159
tp7889
F1
s(Veating
g19
tp7890
F1
s(Vheaven
g23
tp7891
F1
s(VPLACE
g6
tp7892
F1
s(Vin
g14
tp7893
F651
s(Vbeans
g12
tp7894
F1
s(Vhomes
S'NNS'
p7895
tp7896
F1
s(Vcut
g17
tp7897
F1
s(Vinspirer
g19
tp7898
F1
s(VChristian
g8
tp7899
F3
s(Vstrange
g19
tp7900
F1
s(g6
S'('
tp7901
F3
s(Vdeserve
g93
tp7902
F2
s(Vunderstood
g8
tp7903
F2
s(Vrush
g93
tp7904
F1
s(Vwriting
g52
tp7905
F1
s(VBesides
g274
tp7906
F6
s(Vimmediately
S'RB'
p7907
tp7908
F4
s(g32
g1677
tp7909
F101
s(Vattraction
g19
tp7910
F1
s(Vdeclare
g36
tp7911
F1
s(g1777
g8
tp7912
F972
s(Vhappier
g63
tp7913
F1
s(Vtold
g34
tp7914
F2
s(V-whether
g27
tp7915
F1
s(Vsuffers
g12
tp7916
F1
s(Vdresses
g32
tp7917
F1
s(Vwrought
g23
tp7918
F1
s(VAccustomed
g23
tp7919
F1
s(V-of
g19
tp7920
F1
s(Vclung
g19
tp7921
F1
s(Vsphere
g19
tp7922
F2
s(Vglory
g19
tp7923
F2
s(Vcontradict
g93
tp7924
F1
s(Vwharf
g19
tp7925
F1
s(Vours
g12
tp7926
F1
s(g93
g17
tp7927
F5
s(Vpicture-agent
g8
tp7928
F1
s(Vrespected
g8
tp7929
F2
s(VCarlyle
g6
tp7930
F1
s(Vrail
g93
tp7931
F1
s(Vlady
g8
tp7932
F1
s(g167
g52
tp7933
F29
s(Vstruck
g17
tp7934
F3
s(Vlisten
g74
tp7935
F1
s(Vopportunity
S'NN'
p7936
tp7937
F5
s(g561
S'.'
tp7938
F222
s(VHenry
g6
tp7939
F7
s(Vlocked
g17
tp7940
F2
s(VSilkes
g6
tp7941
F1
s(Vfollies
g12
tp7942
F1
s(g128
g81
tp7943
F9
s(Vback
g19
tp7944
F1
s(Vrightful
g8
tp7945
F1
s(Vcushion
g19
tp7946
F1
s(Vrefresh
g93
tp7947
F1
s(Vexcitement
g19
tp7948
F1
s(VRoses
g12
tp7949
F1
s(Vbundled
g17
tp7950
F1
s(Vnation
S'NN'
p7951
tp7952
F2
s(Vneeds
g93
tp7953
F1
s(Vredivivus
g19
tp7954
F1
s(Vworthy
g19
tp7955
F1
s(Vobey
g274
tp7956
F1
s(Vleaves
g12
tp7957
F2
s(Vsources
S'NNS'
p7958
tp7959
F2
s(Vconsumed
g23
tp7960
F1
s(Vthousands
S'NNS'
p7961
tp7962
F1
s(Vassociates
g32
tp7963
F1
s(Vcommand
g36
tp7964
F2
s(g36
g63
tp7965
F10
s(Vpastry
g19
tp7966
F1
s(Vdespised
g17
tp7967
F1
s(Vmiserable
g8
tp7968
F3
s(Vcultivated
g8
tp7969
F1
s(Vrustling
g52
tp7970
F1
s(Vhalls
g12
tp7971
F1
s(Vsum
g19
tp7972
F1
s(Vagreed
g23
tp7973
F1
s(VGuide
g6
tp7974
F1
s(g34
g209
tp7975
F7
s(Vle
g12
tp7976
F1
s(Vgladly
g34
tp7977
F1
s(Vepicure
g19
tp7978
F1
s(VCountess
g6
tp7979
F4
s(g12
g106
tp7980
F6
s(Ve
g19
tp7981
F7
s(Vpicked
g8
tp7982
F1
s(g113
g23
tp7983
F70
s(Vequally
g34
tp7984
F5
s(g12
g17
tp7985
F52
s(Vdescending
g52
tp7986
F1
s(Vfalse
g8
tp7987
F3
s(Vwomen
g6932
tp7988
F39
s(VIII
g6
tp7989
F2
s(Vdwindle
g93
tp7990
F1
s(Vsurpassing
g52
tp7991
F1
s(VOF
g6
tp7992
F1
s(VChateau
g6
tp7993
F1
s(Vabominably
g34
tp7994
F2
s(VParisian
g8
tp7995
F3
s(Vfrancs
S'NNS'
p7996
tp7997
F2
s(Vhonoring
g52
tp7998
F1
s(g327
g905
tp7999
F9
s(Vached
g23
tp8000
F1
s(Vbeauty
g19
tp8001
F9
s(Vsoftly-tinted
g8
tp8002
F1
s(Vescritories
g12
tp8003
F1
s(Vprofound
g8
tp8004
F1
s(VMilton
g6
tp8005
F2
s(Vmatrons
g12
tp8006
F6
s(Vthose
g1213
tp8007
F47
s(Vlittle
g34
tp8008
F5
s(g112
S'.'
tp8009
F5
s(Vflowers
g12
tp8010
F11
s(Vglances
g12
tp8011
F2
s(V-not
g93
tp8012
F1
s(Vmyriad
g8
tp8013
F1
s(Vhitting
g52
tp8014
F1
s(Vtemperate
g19
tp8015
F2
s(Vrepeated
g23
tp8016
F1
s(g143
g12
tp8017
F8
s(Vproclaim
g93
tp8018
F1
s(VLife
g6
tp8019
F2
s(Vsomewhere
g8
tp8020
F1
s(g6
g276
tp8021
F30
s(Vleaving
g52
tp8022
F2
s(Vsums
g12
tp8023
F1
s(Vcontaining
g52
tp8024
F1
s(VBabylon
g6
tp8025
F4
s(V?
S'.'
tp8026
F278
s(VGrand
S'NNP'
p8027
tp8028
F1
s(Vroyalty
g19
tp8029
F1
s(Vshipwreck
g19
tp8030
F1
s(Vafraid
g274
tp8031
F1
s(Vornament
g19
tp8032
F3
s(g476
g19
tp8033
F5
s(Vpirates
g32
tp8034
F1
s(g474
g8
tp8035
F1
s(Vmunificent
g19
tp8036
F1
s(Vwatering-places
g12
tp8037
F1
s(Vsame
S'JJ'
p8038
tp8039
F35
s(Vgriddle-cakes
g12
tp8040
F1
s(Vwooden
g8
tp8041
F3
s(g128
g24
tp8042
F9
s(Veffete
g8
tp8043
F1
s(Vstern
g19
tp8044
F1
s(V`Good
g19
tp8045
F1
s(Vtoo
S'RB'
p8046
tp8047
F32
s(g6932
S'('
tp8048
F4
s(Vsometimes
g34
tp8049
F13
s(Vdark
g8
tp8050
F3
s(Vwild-oats
g12
tp8051
F1
s(Vmagnificent
g19
tp8052
F1
s(VMargaux
g6
tp8053
F1
s(g276
g374
tp8054
F4
s(g143
g81
tp8055
F1
s(Vfaut
g19
tp8056
F1
s(Vastonishment
g19
tp8057
F1
s(Vclung
g36
tp8058
F1
s(Vimpudence
g19
tp8059
F2
s(Vinsincerity
g19
tp8060
F1
s(Vma'am
g93
tp8061
F1
s(g36
g2112
tp8062
F3
s(Vappeased
g23
tp8063
F1
s(Vhiggledy-piggledy
g8
tp8064
F1
s(Vstill
S'RB'
p8065
tp8066
F17
s(VFlattie
g6
tp8067
F2
s(Vneed
g36
tp8068
F2
s(Vsuch
g374
tp8069
F12
s(Vupholsterers
g12
tp8070
F2
s(Vseated
g17
tp8071
F1
s(Vmeeting
g52
tp8072
F1
s(Vexplore
g34
tp8073
F1
s(Vbetter
g476
tp8074
F11
s(Vaudibly
g34
tp8075
F1
s(VLord
g6
tp8076
F6
s(Vcrowds
g19
tp8077
F1
s(V`coming
g52
tp8078
F1
s(V-and
g36
tp8079
F7
s(VEmperor
g6
tp8080
F6
s(S')'
S':'
tp8081
F2
s(Vmarquesses
g12
tp8082
F1
s(Vproved
g17
tp8083
F1
s(Vtenderer
g63
tp8084
F1
s(Vanimal
g19
tp8085
F1
s(g34
g6
tp8086
F30
s(g143
g17
tp8087
F9
s(g274
g3424
tp8088
F2
s(g17
g570
tp8089
F3
s(Vwhirling
g52
tp8090
F1
s(Vprescribes
g32
tp8091
F1
s(Vexception
g19
tp8092
F3
s(VC-oe-s
g6
tp8093
F1
s(Vafterward
g34
tp8094
F3
s(Vsees
g32
tp8095
F1
s(g276
S'.'
tp8096
F3
s(Vlunch-time
g19
tp8097
F1
s(Vwrite
g93
tp8098
F5
s(Vgrief
g8
tp8099
F1
s(Vsail
g93
tp8100
F1
s(Vsatisfy
g93
tp8101
F1
s(Vflickers
g12
tp8102
F1
s(V-who
g93
tp8103
F1
s(Vvraiment
g19
tp8104
F1
s(Vhuge
S'JJ'
p8105
tp8106
F1
s(Vsearcely
g34
tp8107
F1
s(Vmarried
g8
tp8108
F1
s(Vprofile
g19
tp8109
F1
s(Vconstant
g8
tp8110
F4
s(Vway
S'NN'
p8111
tp8112
F50
s(Vnomadic
g8
tp8113
F1
s(Vtall
g8
tp8114
F1
s(Vfly
g93
tp8115
F1
s(Vchannel
g19
tp8116
F1
s(Vmodesty
g19
tp8117
F2
s(Vwin
g93
tp8118
F3
s(VMonsieur
g6
tp8119
F4
s(Vpolka
g19
tp8120
F3
s(Vrenowned
g8
tp8121
F1
s(Vdied
g17
tp8122
F2
s(g19
g129
tp8123
F205
s(g905
g113
tp8124
F1
s(Vyawning
g52
tp8125
F1
s(Vfrank-hearted
g8
tp8126
F1
s(Ventering
g52
tp8127
F2
s(VXIV.
g6
tp8128
F1
s(Vventure
S'NN'
p8129
tp8130
F1
s(g24
g872
tp8131
F4
s(g907
g1763
tp8132
F11
s(Vcharacteristic
g8
tp8133
F5
s(VMarble
g8
tp8134
F1
s(Vholding
g52
tp8135
F3
s(Vrare
g8
tp8136
F2
s(Vcoat-of-arms
g12
tp8137
F1
s(Vsatires
g12
tp8138
F1
s(g274
g113
tp8139
F7
s(Vdroll
g19
tp8140
F2
s(VCome
g6
tp8141
F4
s(Vpuzzled
g23
tp8142
F1
s(g274
g276
tp8143
F19
s(Vobservation
g19
tp8144
F4
s(Vproud
g8
tp8145
F3
s(Vcountrymen
g12
tp8146
F1
s(V-disgracing
g52
tp8147
F1
s(Vpleased
g23
tp8148
F1
s(Vsupper
g19
tp8149
F9
s(Vmerrie
g8
tp8150
F1
s(Vdebauched
g23
tp8151
F1
s(Vdifference
S'NN'
p8152
tp8153
F5
s(Vsenses
g12
tp8154
F1
s(g36
g231
tp8155
F153
s(Vsent
g23
tp8156
F7
s(V`Est-ce
g8
tp8157
F1
s(Vrequired
g17
tp8158
F1
s(S','
g63
tp8159
F3
s(Vsweeter
g19
tp8160
F1
s(Vten-dollar
g8
tp8161
F1
s(g34
S'.'
tp8162
F150
s(g167
g6
tp8163
F233
s(Vprosperity
g19
tp8164
F1
s(Vsteps
g32
tp8165
F2
s(Vannoying
g19
tp8166
F1
s(VVanity
g6
tp8167
F8
s(V`Lady
g8
tp8168
F1
s(Vendless
g8
tp8169
F5
s(Vfootmen
g12
tp8170
F1
s(Vnothing
S'NN'
p8171
tp8172
F50
s(VCOMPANY
g6
tp8173
F1
s(Vrecognize
g19
tp8174
F1
s(g1262
g52
tp8175
F11
s(Vthought
g19
tp8176
F3
s(Vcharming
g8
tp8177
F3
s(Vpoets
g12
tp8178
F3
s(Vcongratulated
g17
tp8179
F1
s(g81
g12
tp8180
F2
s(VRosa
g6
tp8181
F4
s(VAdmirably
g34
tp8182
F1
s(Vincarnate
g19
tp8183
F1
s(Vconnubial
g8
tp8184
F1
s(Vsits
g32
tp8185
F1
s(Vopened
g23
tp8186
F2
s(V'm
S'VBP'
p8187
tp8188
F24
s(Vcultivation
g19
tp8189
F6
s(Vcarried
g17
tp8190
F3
s(Vhome
g19
tp8191
F39
s(Vblinds
g12
tp8192
F2
s(Vmirror
g19
tp8193
F6
s(Vtradesman
g19
tp8194
F1
s(Vgondola
g19
tp8195
F1
s(Vdespondency
g19
tp8196
F1
s(Vmorally
g34
tp8197
F1
s(Vecherche
g19
tp8198
F1
s(Vrepublicans
g12
tp8199
F1
s(Vaux
g32
tp8200
F1
s(Vsigh
g93
tp8201
F1
s(Vholy
g8
tp8202
F2
s(Vgossips
g32
tp8203
F1
s(Vrear
g19
tp8204
F1
s(g121
g841
tp8205
F35
s(g167
g621
tp8206
F5
s(Vcaprice
g19
tp8207
F1
s(V-sank
g17
tp8208
F1
s(VN.
g6
tp8209
F1
s(Vand
g128
tp8210
F1542
s(V`do
g6
tp8211
F1
s(Vsarcastic
g8
tp8212
F1
s(g93
g52
tp8213
F12
s(V-not
g989
tp8214
F1
s(V-I
g93
tp8215
F2
s(Vwiped
g17
tp8216
F2
s(Visles
g12
tp8217
F1
s(S':'
g209
tp8218
F19
s(Vpress
g93
tp8219
F2
s(Vabsurd
g19
tp8220
F1
s(Vmots
g12
tp8221
F1
s(VMontansier
g6
tp8222
F1
s(Vsmiles
g32
tp8223
F2
s(Vmorals
g12
tp8224
F2
s(Vuncertain
g8
tp8225
F2
s(Vstretched
g17
tp8226
F1
s(VPot
g6
tp8227
F6
s(Vmammas
g19
tp8228
F2
s(Vsentence
g19
tp8229
F1
s(Vpaying
S'VBG'
p8230
tp8231
F3
s(Vmarked
g23
tp8232
F1
s(VEndpaper
g6
tp8233
F1
s(VAthens
g6
tp8234
F1
s(Vhome
g34
tp8235
F1
s(V-ours
g32
tp8236
F1
s(Vresponded
g17
tp8237
F1
s(Vgrandchildren
g12
tp8238
F1
s(Vgather
g93
tp8239
F1
s(Vdistinctly
g93
tp8240
F1
s(g8
g227
tp8241
F2
s(Vsurvey
S'NN'
p8242
tp8243
F3
s(Vbusts
g12
tp8244
F1
s(Vabolish
g36
tp8245
F1
s(Vfilled
g23
tp8246
F1
s(Vdreamed
g17
tp8247
F2
s(Venlarged
g23
tp8248
F1
s(Vneighborhood
g19
tp8249
F4
s(VBalzac
g6
tp8250
F3
s(Vdrank
g17
tp8251
F1
s(Vnineteen
g8
tp8252
F1
s(Vannouncement
S'NN'
p8253
tp8254
F1
s(Vlet
g19
tp8255
F1
s(Vquestions
S'NNS'
p8256
tp8257
F3
s(Vsmells
g32
tp8258
F1
s(Vrumpled
g17
tp8259
F1
s(Vstay
g93
tp8260
F6
s(Vcontrasts
g12
tp8261
F1
s(Vknow
g12
tp8262
F1
s(Vjournal
g19
tp8263
F1
s(V(
S'('
tp8264
F50
s(Vdrowsed
g17
tp8265
F1
s(Vdrunkenness
g19
tp8266
F2
s(g3340
g276
tp8267
F54
s(VHOPPIN
g6
tp8268
F1
s(Vhire
g93
tp8269
F2
s(Vstate
S'NN'
p8270
tp8271
F19
s(g907
g8
tp8272
F1
s(V`air
g19
tp8273
F1
s(g392
g2674
tp8274
F16
s(VMinerva
g6
tp8275
F24
s(Vback
g34
tp8276
F4
s(Vthing
g6316
tp8277
F78
s(Vbilliard
g19
tp8278
F1
s(Vbirth
g8
tp8279
F1
s(g159
g112
tp8280
F2
s(Vforgiving
g8
tp8281
F1
s(g84
g159
tp8282
F2
s(Vsmothering
g52
tp8283
F1
s(g6640
g621
tp8284
F7
s(VAs
g274
tp8285
F5
s(Vcover
g93
tp8286
F2
s(VDiary
g6
tp8287
F2
s(VPictures
g12
tp8288
F1
s(VClumsy
g6
tp8289
F1
s(VRussell
g6
tp8290
F1
s(S':'
g128
tp8291
F120
s(Vpay
g19
tp8292
F1
s(Vdowagers
g12
tp8293
F3
s(g93
g19
tp8294
F67
s(g474
g231
tp8295
F22
s(VApril
S'NNP'
p8296
tp8297
F1
s(Vlower
g63
tp8298
F1
s(Vinquiry
g19
tp8299
F1
s(Vscoundrel
g19
tp8300
F1
s(Vstruggle
g36
tp8301
F1
s(Vcost
g36
tp8302
F1
s(Vpurchased
g23
tp8303
F1
s(Vgrieve
g93
tp8304
F2
s(Vumbrella-stick
g8
tp8305
F1
s(VWould
g290
tp8306
F2
s(Vvisiting
g52
tp8307
F3
s(Vmodest
S'JJ'
p8308
tp8309
F2
s(Varchery
g19
tp8310
F1
s(Vthirty
g8
tp8311
F4
s(g167
g113
tp8312
F51
s(Vyellow
g8
tp8313
F4
s(Vinexpressibly
g34
tp8314
F1
s(Vones
S'NNS'
p8315
tp8316
F4
s(Vsurely
g34
tp8317
F1
s(Vepicurism
g19
tp8318
F1
s(g476
S'.'
tp8319
F4
s(Vf
g8
tp8320
F1
s(Vdancing-room
g19
tp8321
F1
s(Vvineyards
g12
tp8322
F1
s(Vstress
g19
tp8323
F1
s(VPlutarch
g6
tp8324
F1
s(Vmatted
g23
tp8325
F1
s(Vfull-dress
g8
tp8326
F1
s(Vadvertise
g93
tp8327
F1
s(Vaudience
S'NN'
p8328
tp8329
F1
s(Vrecover
g93
tp8330
F2
s(Vraised
g17
tp8331
F2
s(Vdesperately
g34
tp8332
F1
s(Vconceal
g93
tp8333
F1
s(Vstringent
g8
tp8334
F1
s(Vprecedence
g19
tp8335
F1
s(Vstudies
S'NNS'
p8336
tp8337
F1
s(Vsituation
S'NN'
p8338
tp8339
F2
s(Vfeast
g19
tp8340
F1
s(g209
g12
tp8341
F5
s(V-Alexander
g19
tp8342
F1
s(S'('
g106
tp8343
F1
s(VBon
g6
tp8344
F1
s(Vask
g93
tp8345
F18
s(Vshares
S'NNS'
p8346
tp8347
F1
s(Vcivilized
g8
tp8348
F1
s(Vspare
g8
tp8349
F1
s(Vanything
S'NN'
p8350
tp8351
F3
s(Vmagnificently
g34
tp8352
F1
s(Vjealous
g8
tp8353
F1
s(VSennar
g6
tp8354
F1
s(Vtied
g17
tp8355
F1
s(Vmasked
g8
tp8356
F1
s(VFox
g6
tp8357
F1
s(Vspring-flowers
g12
tp8358
F1
s(Vdecanter
g19
tp8359
F1
s(Vlevelling
g52
tp8360
F1
s(Vdouver
g19
tp8361
F2
s(V`quite
g374
tp8362
F1
s(V237
g327
tp8363
F1
s(Vlearning
g52
tp8364
F1
s(Vthinking
g19
tp8365
F3
s(g34
g14
tp8366
F235
s(VAlice
g6
tp8367
F1
s(Vtainted
g23
tp8368
F1
s(Vlaid
g23
tp8369
F2
s(Vcharm
g93
tp8370
F1
s(g93
g374
tp8371
F7
s(Vmenial
g8
tp8372
F2
s(VCaroline
g19
tp8373
F1
s(Vgrowing
g52
tp8374
F1
s(Vgrew
S'VBD'
p8375
tp8376
F2
s(Vappetite
g19
tp8377
F3
s(V-no
g34
tp8378
F1
s(Vthought
g17
tp8379
F22
s(Vneighbors
g12
tp8380
F2
s(g52
g17
tp8381
F2
s(VLent
g6
tp8382
F4
s(VDeserted
g6
tp8383
F1
s(Vperfect
g36
tp8384
F1
s(Vlenient
g8
tp8385
F1
s(Vwhat
g81
tp8386
F1
s(g2674
g678
tp8387
F3
s(Vwoven
g23
tp8388
F1
s(VDid
g19
tp8389
F1
s(Vclose
g34
tp8390
F3
s(Vaccomplished
g23
tp8391
F1
s(g476
g276
tp8392
F1
s(Vconquered
g8
tp8393
F1
s(Vlonger
g476
tp8394
F7
s(Vaccredited
g23
tp8395
F1
s(VFirst
g6
tp8396
F1
s(Vassuredly
g34
tp8397
F1
s(Vfinishing
g52
tp8398
F1
s(Vlaugh
g19
tp8399
F8
s(g2229
g1777
tp8400
F16
s(g143
g5633
tp8401
F4
s(Vlandscape
g19
tp8402
F4
s(Vtenderly
g34
tp8403
F3
s(V-ah
g19
tp8404
F1
s(Vpoetry
g19
tp8405
F2
s(Vdistinguish
g93
tp8406
F1
s(Vwhenever
g19
tp8407
F2
s(g2115
S':'
tp8408
F4
s(VPooh
g19
tp8409
F1
s(Vpray
g93
tp8410
F1
s(Vlikes
g32
tp8411
F2
s(Vtruly
g34
tp8412
F4
s(Vlands
g12
tp8413
F1
s(Vhints
g32
tp8414
F1
s(Veight
S'CD'
p8415
tp8416
F2
s(VNancy
g6
tp8417
F5
s(VHowever
S'RB'
p8418
tp8419
F13
s(VMadonna
g6
tp8420
F2
s(Vcomplexion
g19
tp8421
F2
s(Vsquander
g36
tp8422
F1
s(VJerome
g6
tp8423
F1
s(Vthrough
g274
tp8424
F14
s(Vlatter
g8
tp8425
F1
s(Vkill
g93
tp8426
F1
s(Vqueer
g34
tp8427
F1
s(Vbury
g93
tp8428
F1
s(VJack
S'NNP'
p8429
tp8430
F1
s(V-how
g19
tp8431
F1
s(Vinsipid
g8
tp8432
F1
s(S')'
g113
tp8433
F4
s(VAvenue
g6
tp8434
F1
s(Vexcept
g274
tp8435
F12
s(Vunparalleled
g8
tp8436
F1
s(Vsquandered
g8
tp8437
F1
s(VEnglish
g8
tp8438
F7
s(Vhorrid
g8
tp8439
F1
s(Vsell
g93
tp8440
F1
s(Vstakes
g12
tp8441
F1
s(g621
S'RB'
p8442
tp8443
F162
s(VNo
g167
tp8444
F11
s(VNoah
g6
tp8445
F1
s(Vgarnish
g36
tp8446
F1
s(Vcongregation
g19
tp8447
F1
s(Vsnuff-box
g19
tp8448
F1
s(Vfast
g8
tp8449
F2
s(VJane
g6
tp8450
F2
s(Vpersist
g36
tp8451
F1
s(Vsoftest
g8
tp8452
F1
s(Vdistant
g8
tp8453
F1
s(Vhelp
g36
tp8454
F1
s(Vsoiled
g23
tp8455
F1
s(g198
g129
tp8456
F8
s(V-surrounded
g23
tp8457
F1
s(Vweigh
g93
tp8458
F1
s(VRule
g19
tp8459
F1
s(Vskirt
g19
tp8460
F1
s(Vcut
g93
tp8461
F1
s(Vthat
g167
tp8462
F120
s(V-by
g8
tp8463
F1
s(Vmansion
g19
tp8464
F2
s(Vsky
g19
tp8465
F1
s(VRoyal
g6
tp8466
F1
s(Vpainted
g8
tp8467
F1
s(Vmartyrs
g19
tp8468
F1
s(VPeople
g12
tp8469
F5
s(Vdisgrace
g19
tp8470
F1
s(Vdrank
g19
tp8471
F1
s(VPeace
g6
tp8472
F1
s(Vaverage
g19
tp8473
F2
s(Vpurpose
g19
tp8474
F4
s(Vtells
g32
tp8475
F3
s(VBookplate
g6
tp8476
F1
s(Vglistening
g19
tp8477
F1
s(S','
g182
tp8478
F6
s(g121
g167
tp8479
F6
s(Vrather
g8442
tp8480
F26
s(g231
g12
tp8481
F293
s(Vnations
g12
tp8482
F3
s(Vcrackest
g182
tp8483
F1
s(Vtables
g12
tp8484
F1
s(Vmeanwhile
g34
tp8485
F1
s(V\u005c
g19
tp8486
F2
s(Vdwindle
g36
tp8487
F1
s(Vreputable
g8
tp8488
F1
s(VStrauss
g6
tp8489
F1
s(Vcare
g19
tp8490
F7
s(Vwarm
g19
tp8491
F1
s(Vfate
g19
tp8492
F1
s(Vneed
g19
tp8493
F1
s(g474
g276
tp8494
F8
s(Vheroes
g12
tp8495
F1
s(Vamusing
g8
tp8496
F3
s(Vliked
g23
tp8497
F2
s(g6316
g769
tp8498
F6
s(g209
g74
tp8499
F1
s(Vwatering-place
g19
tp8500
F3
s(VHope
g36
tp8501
F1
s(Valone
g34
tp8502
F3
s(Vboy
g19
tp8503
F5
s(Vobligation
g19
tp8504
F1
s(Voverloaded
g8
tp8505
F1
s(Vfaquin
g19
tp8506
F1
s(Vtone
g19
tp8507
F6
s(VLafitte
g6
tp8508
F1
s(Vconjured
g23
tp8509
F1
s(Vmoulded
g23
tp8510
F1
s(Vsmiles
g12
tp8511
F4
s(VFie
g19
tp8512
F1
s(VAmusement
g19
tp8513
F1
s(Vrestore
g93
tp8514
F1
s(Vcardinals
g12
tp8515
F1
s(Vwell-meaning
g8
tp8516
F1
s(Vcorners
g12
tp8517
F1
s(Vtimes
g12
tp8518
F10
s(Vduties
g12
tp8519
F2
s(Vuntil
S'IN'
p8520
tp8521
F22
s(VGnu
g6
tp8522
F42
s(Vunreal
g8
tp8523
F1
s(Vcambric
g19
tp8524
F1
s(VHannibal
g6
tp8525
F1
s(Vhats
g12
tp8526
F2
s(Vclasses
g12
tp8527
F2
s(Vpauses
g32
tp8528
F1
s(Vwant
g36
tp8529
F18
s(VUnited
S'NNP'
p8530
tp8531
F3
s(Vcompanion
g19
tp8532
F5
s(Vmist
g19
tp8533
F1
s(Vright
g19
tp8534
F7
s(Vthy
g8
tp8535
F2
s(g52
g374
tp8536
F2
s(g8
g769
tp8537
F1
s(VFancy
g6
tp8538
F1
s(Vquestion
g19
tp8539
F5
s(Vshining
g8
tp8540
F1
s(VNay
g6
tp8541
F2
s(Vfootman
g19
tp8542
F6
s(V-O
g8
tp8543
F3
s(Vconfusion
g19
tp8544
F2
s(VJove
g6
tp8545
F3
s(Vthrow
g36
tp8546
F1
s(VPuffer
g6
tp8547
F1
s(Vreading
g19
tp8548
F2
s(Vdares
g32
tp8549
F2
s(Vwhile
g19
tp8550
F3
s(Vsufficiently
g34
tp8551
F4
s(Vamiable
g8
tp8552
F4
s(Vsworn
g23
tp8553
F1
s(VHouris
g6
tp8554
F1
s(Vpaper
S'NN'
p8555
tp8556
F2
s(V-Our
g17
tp8557
F1
s(Vpossibility
S'NN'
p8558
tp8559
F1
s(VFrederic
g6
tp8560
F4
s(VDowne
g6
tp8561
F17
s(Vdeserved
g17
tp8562
F1
s(Vreally
g5216
tp8563
F45
s(VRegicide
g6
tp8564
F1
s(g625
g8
tp8565
F101
s(Vdenying
g52
tp8566
F1
s(Vbred
g23
tp8567
F1
s(Vlounge
g93
tp8568
F1
s(Vquoi
g19
tp8569
F3
s(VWilliam
S'NNP'
p8570
tp8571
F1
s(Vgenerally
g6620
tp8572
F2
s(V-down
g274
tp8573
F1
s(Vwilling
S'JJ'
p8574
tp8575
F3
s(Vsake
g19
tp8576
F1
s(Vprejudice
g19
tp8577
F1
s(Vspoke
g19
tp8578
F1
s(Vremarkably
g34
tp8579
F1
s(g112
g1747
tp8580
F52
s(Vpoisonous
g8
tp8581
F1
s(Vdesirable
g8
tp8582
F2
s(VMISS
g6
tp8583
F2
s(Vasleep
g34
tp8584
F1
s(Vgather
g34
tp8585
F1
s(Vsnubbing
g19
tp8586
F1
s(Valone
g19
tp8587
F1
s(Vwas
g17
tp8588
F299
s(Vpi
g8
tp8589
F1
s(Vdaylight
g8
tp8590
F2
s(Vafraid
g8
tp8591
F13
s(V-merry-go-round
g19
tp8592
F1
s(Vwhy
g392
tp8593
F27
s(Vpages
g12
tp8594
F1
s(g32
g36
tp8595
F3
s(Vinaccessible
g8
tp8596
F1
s(Vvisited
g17
tp8597
F1
s(g276
g358
tp8598
F85
s(g27
S':'
tp8599
F2
s(Vuniformly
g34
tp8600
F1
s(g113
S','
tp8601
F72
s(Vunderstood
g23
tp8602
F1
s(VBut
g2127
tp8603
F122
s(Vto-night
g8
tp8604
F1
s(Vroyals
g12
tp8605
F1
s(g327
g7829
tp8606
F5
s(Vterms
g1737
tp8607
F6
s(Vgolden
S'JJ'
p8608
tp8609
F2
s(Vlikeness
g19
tp8610
F2
s(Vdepends
g32
tp8611
F1
s(Vam
g3225
tp8612
F94
s(Vleast
g182
tp8613
F19
s(Vbook-shelves
g12
tp8614
F1
s(Vremote
g8
tp8615
F1
s(Vstrength
S'NN'
p8616
tp8617
F2
s(Vmatin
g19
tp8618
F2
s(Vpeace
g19
tp8619
F1
s(Vconfidence
g19
tp8620
F3
s(g36
S'('
tp8621
F1
s(VI.
g6
tp8622
F2
s(Vtestimonials
g12
tp8623
F1
s(Vabsured
g8
tp8624
F1
s(Vvase
g19
tp8625
F1
s(Vch
g19
tp8626
F1
s(Vhop
g19
tp8627
F1
s(Vcourts
g12
tp8628
F1
s(Vorisons
g12
tp8629
F1
s(Vapply
g34
tp8630
F1
s(Vreturn
g19
tp8631
F2
s(Vknew
g17
tp8632
F16
s(Vhi
g19
tp8633
F1
s(Vgrasping
g52
tp8634
F1
s(Vlabor
S'NN'
p8635
tp8636
F1
s(Vland
g19
tp8637
F2
s(Vwant
g19
tp8638
F2
s(Vfinds
g32
tp8639
F3
s(Vpermitting
g52
tp8640
F1
s(Vthis
g7642
tp8641
F131
s(Vcomplimentary
g8
tp8642
F1
s(Vfrequent
g93
tp8643
F1
s(Vrose-pink
g8
tp8644
F1
s(Vresolved
g17
tp8645
F1
s(Vdrowsy
g8
tp8646
F1
s(Vuniversally
g34
tp8647
F3
s(g19
g32
tp8648
F216
s(Vsardonic
g8
tp8649
F1
s(Vdarling
g19
tp8650
F1
s(Vrouts
g32
tp8651
F1
s(Vrivalry
g19
tp8652
F2
s(Vtoward
S'IN'
p8653
tp8654
F11
s(Vcurtains
g32
tp8655
F1
s(VM.DCCC.LIII
g6
tp8656
F1
s(Veh
g227
tp8657
F1
s(Vrowdy
g19
tp8658
F1
s(Vshallow
g8
tp8659
F1
s(Vthat
g274
tp8660
F387
s(g93
g112
tp8661
F17
s(Vharbor
g19
tp8662
F2
s(Vfluted
g23
tp8663
F1
s(Vbetrothed
g23
tp8664
F1
s(Vdishevelled
g8
tp8665
F1
s(Vquatre-vingt
g8
tp8666
F1
s(Vfrequents
g32
tp8667
F1
s(Vtulle
g19
tp8668
F1
s(Vdandy
g19
tp8669
F2
s(g63
g128
tp8670
F3
s(V-master
g19
tp8671
F1
s(Vboat
g19
tp8672
F4
s(Vonly
g34
tp8673
F68
s(Vsaddest
g182
tp8674
F1
s(Valoud
g19
tp8675
F1
s(Vtrue
S'JJ'
p8676
tp8677
F18
s(g167
g93
tp8678
F5
s(Vcares
g12
tp8679
F2
s(g6
S','
tp8680
F583
s(VKatteryvang-sank-o-trorsyaim
g6
tp8681
F1
s(VBillin
g6
tp8682
F1
s(Vforgotten
g23
tp8683
F1
s(Vuniform
g8
tp8684
F1
s(Vas
g34
tp8685
F42
s(Vself-respect
g8
tp8686
F2
s(VBible
g6
tp8687
F1
s(Vfather
g63
tp8688
F1
s(g143
g4764
tp8689
F33
s(Vwalls
g12
tp8690
F7
s(S')'
g17
tp8691
F3
s(Vvoyage
g19
tp8692
F1
s(Vtravelled
g23
tp8693
F1
s(Vcastles
g12
tp8694
F1
s.