ccollections
defaultdict
p1
(c__builtin__
float
p2
tRp3
(S'IN'
p4
S'TO'
p5
tp6
F1
s(Vwe
S'PRP'
p7
tp8
F7
s(V-appeals
S'NNS'
p9
tp10
F1
s(Vjar
S'NN'
p11
tp12
F1
s(S'IN'
p13
S'WDT'
p14
tp15
F1
s(Vexciting
S'VBG'
p16
tp17
F1
s(S'VB'
p18
S'.'
tp19
F3
s(S'IN'
p20
g11
tp21
F33
s(S','
g14
tp22
F3
s(Veyes
g9
tp23
F1
s(g11
S'WRB'
p24
tp25
F1
s(g14
S'IN'
p26
tp27
F2
s(g16
S'NNS'
p28
tp29
F1
s(Vcourage
g11
tp30
F1
s(Vdeserving
g16
tp31
F1
s(Vrestfulness
g11
tp32
F1
s(g9
S'.'
tp33
F4
s(Vlittle
S'JJ'
p34
tp35
F1
s(Vsenses
g9
tp36
F3
s(Vbrotherly
g34
tp37
F1
s(V-the
g18
tp38
F1
s(S':'
S'PRP$'
p39
tp40
F1
s(Vlike
g4
tp41
F5
s(S','
g4
tp42
F21
s(Vmoral
g34
tp43
F1
s(S':'
S'PRP'
p44
tp45
F3
s(Vstrenuously
S'RB'
p46
tp47
F1
s(S'RB'
p48
S'.'
tp49
F1
s(VIn
g4
tp50
F2
s(Vfellowship
g11
tp51
F1
s(S','
S'VBD'
p52
tp53
F1
s(Vsecrets
g9
tp54
F1
s(VTo
S'TO'
p55
tp56
F1
s(Vthat
g14
tp57
F1
s(Vtherefore
g46
tp58
F1
s(g44
S'MD'
p59
tp60
F6
s(S'PRP'
p61
S'WP'
p62
tp63
F1
s(S'PRP'
p64
g18
tp65
F5
s(Vamenable
g34
tp66
F1
s(Vperiod
S'NN'
p67
tp68
F1
s(g5
g34
tp69
F1
s(V-and
g11
tp70
F1
s(Vimperfectly
g46
tp71
F1
s(Vwhisper
g11
tp72
F1
s(g39
g16
tp73
F1
s(S':'
g34
tp74
F2
s(g46
S'VBZ'
p75
tp76
F1
s(S'VBP'
p77
S':'
tp78
F1
s(Vfrom
S'IN'
p79
tp80
F1
s(Vcarry
g18
tp81
F1
s(Vjustify
g18
tp82
F1
s(Vdeserts
g9
tp83
F1
s(V-obscured
S'VBN'
p84
tp85
F1
s(V-should
g34
tp86
F1
s(Vcolour
g18
tp87
F1
s(Vdemand
g77
tp88
F2
s(V-even
g46
tp89
F1
s(Vwhether
S'IN'
p90
tp91
F1
s(Vthe
S'DT'
p92
tp93
F69
s(Vthreshold
g11
tp94
F1
s(Vwith
S'IN'
p95
tp96
F4
s(VI
S'PRP'
p97
tp98
F2
s(Vsurface
g11
tp99
F1
s(Vwill
S'MD'
p100
tp101
F1
s(Vconscience
g11
tp102
F2
s(Vvery
g46
tp103
F2
s(Vend
g18
tp104
F1
s(S'DT'
p105
g46
tp106
F2
s(Vunquestioningly
g46
tp107
F1
s(S'VBZ'
p108
g5
tp109
F3
s(Vor
S'CC'
p110
tp111
F9
s(Vplasticity
g11
tp112
F2
s(Vmood
g11
tp113
F1
s(Vpossessions
g9
tp114
F1
s(Vup
S'RP'
p115
tp116
F2
s(Vtemperaments
g9
tp117
F1
s(Vdoubtful
g11
tp118
F1
s(Vcharm
g11
tp119
F2
s(V-to
g77
tp120
F1
s(Vlife
S'NN'
p121
tp122
F3
s(g77
g11
tp123
F1
s(Vabove
g46
tp124
F1
s(Vforget
g11
tp125
F1
s(Vperhaps
S'RB'
p126
tp127
F3
s(g4
S'RB'
p128
tp129
F1
s(g24
g16
tp130
F1
s(Vpity
g11
tp131
F1
s(S'VB'
p132
g84
tp133
F6
s(Vmoment
S'NN'
p134
tp135
F2
s(g77
S','
tp136
F2
s(VAll
S'DT'
p137
tp138
F1
s(S'CC'
p139
g75
tp140
F2
s(g110
g46
tp141
F5
s(S'RB'
p142
g18
tp143
F5
s(g46
g34
tp144
F5
s(S'DT'
p145
g62
tp146
F1
s(Vimproved
g84
tp147
F1
s(g11
g14
tp148
F4
s(Vmore
S'JJR'
p149
tp150
F1
s(Vconveyed
g84
tp151
F1
s(Vand
g139
tp152
F26
s(S','
g44
tp153
F8
s(S','
S'MD'
p154
tp155
F4
s(Vaccomplish
g18
tp156
F1
s(g84
g4
tp157
F5
s(S','
g18
tp158
F4
s(g46
g84
tp159
F1
s(Vunveiling
g11
tp160
F1
s(Vcharmed
g84
tp161
F1
s(Vrescued
g84
tp162
F1
s(S'CC'
p163
g44
tp164
F3
s(Vcore
g11
tp165
F1
s(Vtask
g11
tp166
F4
s(Vfrightened
g84
tp167
F1
s(VNaturalism
S'NNP'
p168
tp169
F1
s(Vmake
g18
tp170
F4
s(g132
g16
tp171
F1
s(g75
S'NNS'
p172
tp173
F1
s(g154
g132
tp174
F13
s(Vkind
S'NN'
p175
tp176
F1
s(Vforgive
g18
tp177
F1
s(g16
g134
tp178
F3
s(Vknowledge
g11
tp179
F1
s(Vconsoled
g84
tp180
F1
s(Vgods
g9
tp181
F1
s(Vwhen
g24
tp182
F1
s(Vundeterred
g34
tp183
F1
s(g20
g92
tp184
F61
s(Vshade
g11
tp185
F1
s(Vfaithful
g34
tp186
F1
s(Vfield
S'NN'
p187
tp188
F1
s(S'JJ'
p189
g59
tp190
F1
s(Vobject
g11
tp191
F1
s(Vitself
S'PRP'
p192
tp193
F3
s(Vpromptly
g46
tp194
F1
s(Vphase
g11
tp195
F1
s(g34
g5
tp196
F3
s(g46
S'VBG'
p197
tp198
F1
s(Vuncertain
g34
tp199
F1
s(Vnever-discouraged
g34
tp200
F1
s(Vstretched
g52
tp201
F1
s(g52
g26
tp202
F1
s(Vunavoidable
g34
tp203
F1
s(Veven
g46
tp204
F2
s(V-
S':'
tp205
F1
s(Vsee
g18
tp206
F1
s(Vinterest
S'NN'
p207
tp208
F1
s(Vafter
S'IN'
p209
tp210
F3
s(S'NNS'
p211
g59
tp212
F2
s(Veffective
g189
tp213
F1
s(Vover
g4
tp214
F1
s(Vclear
g34
tp215
F2
s(Vinspiring
g16
tp216
F2
s(Van
g137
tp217
F7
s(S':'
g20
tp218
F2
s(S':'
g92
tp219
F1
s(g39
g11
tp220
F20
s(Vmatter
g11
tp221
F1
s(S'RB'
p222
S':'
tp223
F3
s(g11
g11
tp224
F4
s(Vfortunate
g11
tp225
F1
s(g20
S'CD'
p226
tp227
F3
s(Vsubtle
g34
tp228
F1
s(Vsculpture
g11
tp229
F1
s(Vwork
g11
tp230
F2
s(g9
S'WP$'
p231
tp232
F1
s(S'RBR'
p233
S'JJ'
p234
tp235
F1
s(g34
S'IN'
p236
tp237
F5
s(S','
g139
tp238
F17
s(g16
g139
tp239
F1
s(Vartistic
g34
tp240
F1
s(Vbend
g18
tp241
F1
s(Vappeal
g11
tp242
F3
s(Vorigin
g11
tp243
F1
s(Varms
g9
tp244
F1
s(Vvisible
g34
tp245
F1
s(Vask
g18
tp246
F1
s(Vthin
g11
tp247
F1
s(Vfact
S'NN'
p248
tp249
F1
s(Vabandon
g75
tp250
F1
s(S','
g168
tp251
F2
s(g46
g4
tp252
F9
s(Vword
S'NN'
p253
tp254
F1
s(V(
S'('
tp255
F1
s(g9
g139
tp256
F1
s(g115
S','
tp257
F2
s(Vrightly
g46
tp258
F1
s(g9
S','
tp259
F5
s(g44
g5
tp260
F1
s(S':'
g18
tp261
F5
s(g92
g11
tp262
F59
s(S'NN'
p263
S'.'
tp264
F16
s(g44
g108
tp265
F11
s(Vprecious
g34
tp266
F1
s(V-if
g18
tp267
F1
s(S'VBP'
p268
S'VBG'
p269
tp270
F1
s(S'PRP$'
p271
S'JJ'
p272
tp273
F3
s(S'DT'
p274
g233
tp275
F1
s(Vemotional
g34
tp276
F1
s(Vall
g137
tp277
F7
s(S','
g34
tp278
F4
s(Vwaving
g11
tp279
F1
s(g226
g20
tp280
F2
s(Vdown
g115
tp281
F1
s(g115
S'.'
tp282
F2
s(Vshape
g11
tp283
F1
s(g11
g20
tp284
F61
s(g11
S','
tp285
F53
s(g77
g95
tp286
F2
s(g46
S'MD'
p287
tp288
F1
s(Vlanguidly
g46
tp289
F1
s(S'DT'
p290
g226
tp291
F1
s(Vgo
g77
tp292
F1
s(Va
g274
tp293
F19
s(g59
S','
tp294
F1
s(Vachieve
g18
tp295
F1
s(Vhesitate
g11
tp296
F1
s(g77
g84
tp297
F2
s(S':'
S'CC'
p298
tp299
F4
s(Vblending
g11
tp300
F1
s(Vdevotion
g11
tp301
F1
s(Vperfect
g34
tp302
F1
s(g18
g11
tp303
F2
s(S','
S'PRP$'
p304
tp305
F4
s(Vresistless
g34
tp306
F1
s(S':'
g77
tp307
F4
s(Vis
g108
tp308
F26
s(Vregret
g11
tp309
F1
s(Vring
g11
tp310
F2
s(Vsuch
g34
tp311
F1
s(S'RB'
p312
S','
tp313
F9
s(Vhour
S'NN'
p314
tp315
F1
s(Vthem
S'PRP'
p316
tp317
F1
s(Vat
g26
tp318
F6
s(g16
S','
tp319
F2
s(Vsupreme
g34
tp320
F1
s(Vsee
g77
tp321
F1
s(S','
S')'
tp322
F1
s(g46
g11
tp323
F1
s(Vtalk
g77
tp324
F1
s(Vwithout
S'IN'
p325
tp326
F2
s(Vlight
g11
tp327
F2
s(Vstump
g11
tp328
F1
s(Vinnumerable
g34
tp329
F1
s(Vbring
g18
tp330
F1
s(V-the
g34
tp331
F1
s(Vtenderness
g11
tp332
F1
s(Vcareless
g34
tp333
F1
s(g34
S','
tp334
F8
s(VWe
S'PRP'
p335
tp336
F3
s(Vwatch
g77
tp337
F2
s(Vsolitude
g77
tp338
F1
s(g34
S':'
tp339
F2
s(Vconvincing
g16
tp340
F1
s(g34
S'NN'
p341
tp342
F41
s(Vprofit
g11
tp343
F1
s(Vhere
g222
tp344
F1
s(Vstress
g11
tp345
F1
s(Vcolour
g11
tp346
F3
s(Vpersuasion
g11
tp347
F1
s(g128
g115
tp348
F2
s(g132
g189
tp349
F4
s(Vagain
g48
tp350
F1
s(S'IN'
p351
S'IN'
p352
tp353
F1
s(Vbeholders
g9
tp354
F1
s(g18
g92
tp355
F11
s(g5
g11
tp356
F2
s(VArt
g11
tp357
F1
s(Vconsciousness
g11
tp358
F1
s(Vloses
g75
tp359
F1
s(S'VBZ'
p360
g84
tp361
F3
s(VMy
g39
tp362
F1
s(Vcomplete
g34
tp363
F2
s(Vone
g226
tp364
F5
s(VRealism
g11
tp365
F1
s(Vemotions
g9
tp366
F1
s(g44
g26
tp367
F3
s(g14
g108
tp368
F4
s(Vno
g137
tp369
F1
s(Vterror
g11
tp370
F1
s(g18
g44
tp371
F7
s(Vidle
g34
tp372
F1
s(S','
g5
tp373
F8
s(S'IN'
p374
g97
tp375
F6
s(Vmotions
g9
tp376
F1
s(Vresponsive
g34
tp377
F1
s(Vawaken
g18
tp378
F1
s(Vcollective
g34
tp379
F1
s(S'PRP'
p380
S','
tp381
F3
s(Vget
g18
tp382
F1
s(Vhope
g11
tp383
F1
s(Vaspires
g9
tp384
F1
s(V:
S':'
tp385
F7
s(Vpart
S'NN'
p386
tp387
F1
s(Vmade
g84
tp388
F2
s(Vprose
g11
tp389
F1
s(S'RB'
p390
g137
tp391
F5
s(Vbeginning
g11
tp392
F1
s(g18
g13
tp393
F5
s(g84
g5
tp394
F6
s(g77
g380
tp395
F2
s(Vpainting
g11
tp396
F2
s(Vhas
g360
tp397
F2
s(Vmind
g11
tp398
F1
s(Vefforts
S'NNS'
p399
tp400
F1
s(Vattain
g11
tp401
F1
s(g126
g61
tp402
F2
s(Vlabourer
g11
tp403
F1
s(Veverything
S'NN'
p404
tp405
F1
s(g11
g5
tp406
F10
s(V-it
g11
tp407
F1
s(Vattempt
g11
tp408
F1
s(g142
g46
tp409
F4
s(Vthese
S'DT'
p410
tp411
F1
s(V)
S')'
tp412
F1
s(Vmankind
g11
tp413
F1
s(Vold
S'JJ'
p414
tp415
F2
s(Vreal
g234
tp416
F1
s(Vso
g4
tp417
F1
s(Vfeel
g18
tp418
F1
s(Vsuccess
S'NN'
p419
tp420
F1
s(Vanswer
g11
tp421
F1
s(Vworld
S'NN'
p422
tp423
F1
s(g84
S':'
tp424
F1
s(g5
g18
tp425
F30
s(Vencouraged
g84
tp426
F1
s(Vtrying
g269
tp427
F2
s(g11
g84
tp428
F2
s(g5
g92
tp429
F11
s(g52
g304
tp430
F1
s(Vbe
g132
tp431
F15
s(g9
g5
tp432
F3
s(Vconvictions
g9
tp433
F1
s(g34
g139
tp434
F3
s(g11
S':'
tp435
F14
s(g75
g380
tp436
F1
s(g137
S','
tp437
F2
s(g352
S'VBN'
p438
tp439
F1
s(Vany
g290
tp440
F2
s(Vit
g44
tp441
F8
s(Vlandscape
g11
tp442
F1
s(Vstone
g11
tp443
F1
s(Vendows
g75
tp444
F1
s(Vmay
g154
tp445
F6
s(V-and
g18
tp446
F1
s(g269
g5
tp447
F3
s(S'PRP'
p448
g137
tp449
F1
s(g5
S'PRP$'
p450
tp451
F1
s(Vsucceed
S'VB'
p452
tp453
F1
s(Vits
g39
tp454
F11
s(g5
g62
tp455
F1
s(g16
g192
tp456
F1
s(g34
g9
tp457
F4
s(VSuch
g34
tp458
F1
s(g137
g149
tp459
F1
s(g97
g268
tp460
F11
s(S':'
g62
tp461
F1
s(Vhe
g61
tp462
F4
s(Vtree
g11
tp463
F1
s(g95
g271
tp464
F17
s(Vroadside
g11
tp465
F1
s(g438
g211
tp466
F1
s(Vtime
g263
tp467
F3
s(S':'
g9
tp468
F1
s(Vapproach
g11
tp469
F1
s(Vincomprehensible
g34
tp470
F1
s(Vencouraging
g34
tp471
F1
s(Vevanescent
g11
tp472
F1
s(VThat
g137
tp473
F1
s(g77
g92
tp474
F6
s(Vease
g11
tp475
F1
s(Vworker
g11
tp476
F1
s(g226
g11
tp477
F1
s(Vevident
g34
tp478
F1
s(Vencouragement
g11
tp479
F1
s(Vwhat
g62
tp480
F1
s(Vreach
g18
tp481
F1
s(Vthrough
g4
tp482
F5
s(Varts
g9
tp483
F1
s(Vhigh
g34
tp484
F1
s(g139
g34
tp485
F2
s(Vall
S'PDT'
p486
tp487
F2
s(Vin
g352
tp488
F20
s(Vshocked
g84
tp489
F1
s(Vweariness
g11
tp490
F1
s(Vunofficial
g34
tp491
F1
s(Vsubstance
g11
tp492
F2
s(Vtemporary
S'JJ'
p493
tp494
F1
s(Vsincere
g34
tp495
F2
s(Vare
S'VBP'
p496
tp497
F1
s(Vclearness
g11
tp498
F1
s(Vvalid
g34
tp499
F1
s(g14
g97
tp500
F2
s(g84
g92
tp501
F1
s(Vunremitting
g34
tp502
F1
s(Vtheir
g271
tp503
F1
s(g132
S','
tp504
F4
s(g231
g34
tp505
F1
s(g20
S','
tp506
F1
s(Vveils
g75
tp507
F1
s(g75
g13
tp508
F3
s(Vcondone
g18
tp509
F1
s(g287
g142
tp510
F5
s(g92
S'JJ'
p511
tp512
F33
s(g34
S'.'
tp513
F2
s(g438
g253
tp514
F2
s(g9
g14
tp515
F1
s(Vconsolation
g11
tp516
F1
s(Valso
S'RB'
p517
tp518
F2
s(V.
S'.'
tp519
F29
s(S','
g46
tp520
F6
s(Vexceedingly
g46
tp521
F1
s(Vlift
g18
tp522
F1
s(g163
g352
tp523
F8
s(Vprimarily
S'RB'
p524
tp525
F1
s(Vfailure
g11
tp526
F1
s(Vceased
g84
tp527
F1
s(V-and
g77
tp528
F2
s(g26
S'.'
tp529
F1
s(Vavowal
g11
tp530
F2
s(Vlong
g46
tp531
F1
s(g18
g115
tp532
F3
s(Vwhose
g231
tp533
F1
s(S','
g84
tp534
F3
s(Vthat
g137
tp535
F4
s(V-all
g18
tp536
F1
s(g62
S','
tp537
F1
s(Vthere
g46
tp538
F1
s(Vtold
g84
tp539
F1
s(Vother
g511
tp540
F3
s(V--
S':'
tp541
F18
s(g108
g34
tp542
F3
s(Vcry
g11
tp543
F2
s(Vbinds
g75
tp544
F1
s(Vreveal
g18
tp545
F1
s(g450
g9
tp546
F5
s(Vmists
g9
tp547
F1
s(g18
g39
tp548
F4
s(Vtried
g84
tp549
F1
s(S','
S'NNS'
p550
tp551
F1
s(g105
g16
tp552
F3
s(Vwrongly
g46
tp553
F1
s(Vsingle-minded
g34
tp554
F1
s(Vroad
S'NN'
p555
tp556
F1
s(Vas
g4
tp557
F5
s(Vlooks
g75
tp558
F1
s(Vunderstood
g52
tp559
F1
s(Vmirth
g11
tp560
F1
s(g137
g9
tp561
F13
s(Vditch
g11
tp562
F1
s(Vlook
g77
tp563
F1
s(Vart
g46
tp564
F1
s(Vlogic
g11
tp565
F1
s(Vdig
g18
tp566
F1
s(Vsuggestiveness
g11
tp567
F2
s(Vusage
g11
tp568
F1
s(Vof
g20
tp569
F59
s(Vby
g236
tp570
F5
s(S'RBS'
p571
g34
tp572
F1
s(Vheartless
g34
tp573
F1
s(Vcare
g11
tp574
F1
s(Vsecret
g34
tp575
F2
s(g84
S','
tp576
F8
s(g75
g16
tp577
F3
s(Vfate
g11
tp578
F1
s(Vexpressed
g84
tp579
F1
s(g18
g222
tp580
F8
s(g18
g108
tp581
F1
s(Vplay
g18
tp582
F1
s(Vsincerity
g11
tp583
F1
s(Vmysterious
g34
tp584
F1
s(Vto
g5
tp585
F46
s(g236
g16
tp586
F1
s(Vrush
g11
tp587
F1
s(S':'
g14
tp588
F1
s(g149
S','
tp589
F1
s(S','
g108
tp590
F8
s(g550
g524
tp591
F1
s(g11
g44
tp592
F2
s(Vwithin
S'IN'
p593
tp594
F1
s(Vheld
g84
tp595
F1
s(Vpreface
g11
tp596
F1
s(Vfellow
g11
tp597
F2
s(Vshow
g18
tp598
F1
s(Vwritten
g438
tp599
F2
s(Vamused
g84
tp600
F1
s(g14
g105
tp601
F1
s(Vsnatch
g18
tp602
F1
s(g75
g92
tp603
F4
s(Vmen
g172
tp604
F1
s(Vour
S'PRP$'
p605
tp606
F1
s(Vapparent
g34
tp607
F1
s(Vtimes
g9
tp608
F1
s(Vdesire
g11
tp609
F1
s(Vaspire
g18
tp610
F1
s(g92
g571
tp611
F1
s(g77
g5
tp612
F1
s(Vso
g46
tp613
F1
s(VThe
S'DT'
p614
tp615
F3
s(Vbecause
g4
tp616
F1
s(g28
g95
tp617
F10
s(Vforgive
g77
tp618
F1
s(Vconclusion
g11
tp619
F1
s(Vfeeling
g11
tp620
F1
s(Vyet
g46
tp621
F1
s(Vuproot
g18
tp622
F1
s(g486
g92
tp623
F2
s(Vfaith
g11
tp624
F1
s(Vgo
g18
tp625
F2
s(Vfragment
g11
tp626
F1
s(S':'
g84
tp627
F1
s(Vthey
g448
tp628
F1
s(Vendeavour
g11
tp629
F2
s(Vatmosphere
g11
tp630
F1
s(Vdisposed
g84
tp631
F1
s(g335
g52
tp632
F3
s(Vourselves
g44
tp633
F1
s(Vmore
g233
tp634
F1
s(Vfor
g13
tp635
F6
s(Vperchance
g18
tp636
F1
s(g52
g142
tp637
F2
s(Vjoy
g11
tp638
F1
s(g84
g46
tp639
F2
s(g11
S'('
tp640
F1
s(Vthose
g145
tp641
F2
s(Vdifficulties
g9
tp642
F1
s(Vart
g11
tp643
F5
s(V-disclose
g18
tp644
F1
s(S','
g77
tp645
F1
s(Vwonder
g18
tp646
F1
s(Vapproached
g84
tp647
F1
s(Vdifficult
S'JJ'
p648
tp649
F2
s(Vheard
g84
tp650
F1
s(Vreproach
g11
tp651
F1
s(Vimmediate
g34
tp652
F1
s(Vcreative
g34
tp653
F1
s(Vfaltering
g16
tp654
F1
s(Vsimply
g390
tp655
F1
s(g511
g34
tp656
F3
s(Vaccording
g197
tp657
F1
s(g75
S':'
tp658
F1
s(Vlast
S'JJ'
p659
tp660
F1
s(Vworn
g34
tp661
F1
s(Vbut
g298
tp662
F3
s(g18
g5
tp663
F3
s(Vpoor
S'JJ'
p664
tp665
F1
s(Vglimpse
g11
tp666
F1
s(V,
S','
tp667
F110
s(Vagitation
g11
tp668
F1
s(Vyou
g64
tp669
F6
s(Vabide
g11
tp670
F1
s(Vwisdom
g11
tp671
F1
s(V-for
g77
tp672
F1
s(g16
g34
tp673
F1
s(Vcreates
g75
tp674
F1
s(Vwords
g211
tp675
F3
s(Vhold
g18
tp676
F1
s(S':'
g46
tp677
F1
s(Vworkman
g11
tp678
F1
s(Vonly
g34
tp679
F1
s(Vexertions
g9
tp680
F1
s(Vfulness
g11
tp681
F1
s(Vform
g11
tp682
F3
s(Vformulas
g11
tp683
F1
s(VRomanticism
g168
tp684
F1
s(VIf
g374
tp685
F2
s(g524
g5
tp686
F2
s(g108
g404
tp687
F1
s(Vwho
g62
tp688
F3
s(Vif
g351
tp689
F4
s(g92
g438
tp690
F2
s(Vages
g9
tp691
F1
s(g18
S':'
tp692
F1
s(Vpresented
g34
tp693
F1
s(Vspecifically
g46
tp694
F1
s(g34
g77
tp695
F1
s(Vinstant
g11
tp696
F1
s(Venduring
g16
tp697
F1
s(Vrid
g34
tp698
F1
s(Vsentimentalism
g11
tp699
F1
s(Vmagic
g34
tp700
F2
s(g9
S':'
tp701
F4
s(g20
g168
tp702
F2
s(Vupon
g4
tp703
F1
s(Vbrought
g84
tp704
F1
s(Vthus
S'RB'
p705
tp706
F2
s(Voutspoken
g34
tp707
F1
s(Vhis
g304
tp708
F14
s(Vthen
g312
tp709
F1
s(Vsentences
g9
tp710
F1
s(g5
g486
tp711
F1
s(Vhim
g380
tp712
F4
s(Vbody
g11
tp713
F1
s(Vonly
g46
tp714
F5
s(Vuneasy
g34
tp715
F1
s(Vindividual
g34
tp716
F1
s(g139
g263
tp717
F11
s(Vtemperament
g11
tp718
F2
s(Vedified
g84
tp719
F1
s(Vpower
g341
tp720
F2
s(S','
g226
tp721
F1
s(Vstand
g18
tp722
F1
s(g62
g352
tp723
F1
s(Vtemperament
g18
tp724
F1
s(g298
S'DT'
p725
tp726
F3
s(Vtoil
g11
tp727
F1
s(Vfaintly
g46
tp728
F1
s(g168
g13
tp729
F1
s(Vmovements
g9
tp730
F1
s(Vwhich
g14
tp731
F9
s(Vevents
g28
tp732
F1
s(Vmost
g571
tp733
F1
s(Vshort
g34
tp734
F2
s(g20
g9
tp735
F6
s(Vfar
g128
tp736
F4
s(Vimmorality
g11
tp737
F1
s(Vpassing
g34
tp738
F1
s(g108
S','
tp739
F2
s(Vyour
g450
tp740
F1
s(Vbefore
g4
tp741
F2
s(Vcommonplace
g11
tp742
F1
s(Vtruth
g11
tp743
F4
s(Vtravel
g18
tp744
F1
s(Vabout
g4
tp745
F1
s(Vcraft
g11
tp746
F1
s(Von
S'IN'
p747
tp748
F3
s(Vhear
g18
tp749
F1
s(Vhad
g52
tp750
F2
s(Vam
g268
tp751
F1
s(g226
g154
tp752
F1
s(Vexpressing
g16
tp753
F1
s(Vmeaning
g11
tp754
F1
s(Vmusic
S'NN'
p755
tp756
F2
s(Vstrength
S'NN'
p757
tp758
F3
s(Vcan
g287
tp759
F4
s(Vshall
S'MD'
p760
tp761
F2
s(VAnd
g163
tp762
F5
s(S')'
g486
tp763
F1
s(g115
g46
tp764
F1
s(Vaim
g11
tp765
F3
s(S','
g92
tp766
F6
s(g34
g137
tp767
F2
s(Vchoice
S'NN'
p768
tp769
F1
s(g108
g390
tp770
F12
s(Vsounds
g75
tp771
F1
s(Vtriumphant
g34
tp772
F1
s(V;
S':'
tp773
F9
s(g316
S':'
tp774
F2
s(Voff
g115
tp775
F2
s(Vremorseless
g11
tp776
F1
s(Vpassing
g16
tp777
F1
s(g139
g5
tp778
F2
s(Vdefaced
g84
tp779
F1
s(Vthis
g725
tp780
F1
s(Vmovement
S'NN'
p781
tp782
F1
s(Vdistant
g34
tp783
F1
s(g90
g34
tp784
F10
s(Vbegin
g18
tp785
F2
s(S','
g11
tp786
F7
s(g11
g108
tp787
F10
s(g9
g84
tp788
F1
s(V-which
g14
tp789
F1
s(Vhearts
g9
tp790
F1
s(Vvision
g11
tp791
F1
s(g14
S','
tp792
F1
s(g62
g77
tp793
F1
s(g226
g132
tp794
F1
s(g11
g287
tp795
F4
s(Vthat
g4
tp796
F5
s(VSometimes
g46
tp797
F1
s(Vimpression
g11
tp798
F1
s(Vpassion
g11
tp799
F1
s(g11
g46
tp800
F2
s(Vpurpose
g11
tp801
F1
s(Vfear
g11
tp802
F2
s(Vspring
g11
tp803
F1
s(Vsolidarity
g11
tp804
F2
s(g139
g39
tp805
F1
s(Vhave
g77
tp806
F1
s(g62
g92
tp807
F1
s(Vway
S'NN'
p808
tp809
F2
s(Voften
S'RB'
p810
tp811
F1
s(g110
g84
tp812
F4
s(VArt
g168
tp813
F2
s(Vholds
S'VBZ'
p814
tp815
F1
s(Vdemand
g11
tp816
F1
s(Vframe
g11
tp817
F1
s(Vplace
g11
tp818
F1
s(Vnot
g142
tp819
F9
s(Vstammerings
g9
tp820
F1
s(Vknow
g77
tp821
F1
s(Vtemple
g11
tp822
F1
s(Vunswerving
g34
tp823
F1
s(g137
S':'
tp824
F2
s(g11
g139
tp825
F10
s(Vtrue
g272
tp826
F1
s(Vfind
g18
tp827
F1
s(VFiction
g11
tp828
F1
s(g168
S','
tp829
F3
s(S':'
g11
tp830
F4
s(Vjustification
g11
tp831
F1
s(Vrun
g18
tp832
F1
s(Vforgotten
g84
tp833
F1
s(VIt
S'PRP'
p834
tp835
F7
s(g46
g110
tp836
F2
s(g139
S','
tp837
F2
s(S'('
g14
tp838
F1
s(Vvibration
g11
tp839
F1
s(Vadd
g18
tp840
F1
s(Vappeals
g550
tp841
F1
s(Veach
g105
tp842
F3
s(Vmust
g59
tp843
F6
s.