ccollections
defaultdict
p1
(c__builtin__
float
p2
tRp3
(S'AP'
p4
S'ADVADVADVAADP'
tp5
F1
s(S'DP'
p6
S'ADVADVDNNP'
tp7
F1
s(S'VP'
p8
S'VVAAAP'
tp9
F1
s(S'PP'
S'PAAANP'
tp10
F1
s(S'VP'
S'ADVVVNP'
tp11
F2
s(S'AP'
p12
S'AADDDP'
tp13
F1
s(S'CP'
p14
S'CCDDDDP'
tp15
F1
s(S'VP'
p16
S'VVVVP'
tp17
F1
s(S'AP'
S'AVVVP'
tp18
F1
s(S'PP'
S'ADVADVPAP'
tp19
F1
s(S'PP'
p20
S'PAPP'
tp21
F6
s(S'PP'
p22
S'PADVNP'
tp23
F16
s(S'DP'
p24
S'DNP'
tp25
F165
s(S'CP'
S'CDADVADVPPP'
tp26
F1
s(S'NP'
S'ADVNDP'
tp27
F2
s(S'PP'
p28
S'AAPDDP'
tp29
F1
s(S'CP'
p30
S'CDPPP'
tp31
F44
s(S'PP'
p32
S'ADVPPANP'
tp33
F1
s(S'VP'
p34
S'VADP'
tp35
F14
s(S'DP'
p36
S'DNNNNP'
tp37
F3
s(S'CP'
S'ACADVADVDP'
tp38
F1
s(S'DP'
p39
S'DAAP'
tp40
F5
s(S'VP'
p41
S'AAVPPP'
tp42
F1
s(S'VP'
p43
S'VADVADVADVAP'
tp44
F1
s(S'VP'
p45
S'VAVP'
tp46
F3
s(S'PP'
p47
S'APPDP'
tp48
F1
s(S'CP'
S'CADVADVDPPP'
tp49
F2
s(S'VP'
p50
S'ADVADVADVVVPP'
tp51
F3
s(S'DP'
p52
S'DAADP'
tp53
F1
s(S'DP'
p54
S'ADNNP'
tp55
F3
s(S'VP'
S'AVADVDP'
tp56
F1
s(S'VP'
p57
S'ADVAVCCP'
tp58
F1
s(g20
S'APVP'
tp59
F13
s(S'PP'
p60
S'PPPP'
tp61
F42
s(S'VP'
S'VVVVDDP'
tp62
F1
s(S'DP'
p63
S'DDDNP'
tp64
F6
s(S'PP'
p65
S'ADVPADDP'
tp66
F1
s(S'VP'
S'VACP'
tp67
F4
s(S'AP'
p68
S'AAAVP'
tp69
F1
s(S'PP'
S'PPAAP'
tp70
F3
s(S'DP'
p71
S'DADVVP'
tp72
F8
s(S'DP'
p73
S'ADVDDAAPP'
tp74
F1
s(S'VP'
p75
S'ADVVVANP'
tp76
F1
s(S'PP'
p77
S'PADVNNP'
tp78
F3
s(S'AP'
S'AADVPP'
tp79
F3
s(S'NP'
S'NADVACP'
tp80
F1
s(S'NP'
p81
S'NDDDP'
tp82
F1
s(S'NP'
p83
S'NCCCP'
tp84
F8
s(S'VP'
S'VCP'
tp85
F83
s(S'NP'
S'NMMP'
tp86
F2
s(S'VP'
p87
S'VVVPP'
tp88
F1
s(S'VP'
S'ADVVAAP'
tp89
F1
s(S'CP'
p90
S'CAAADPPP'
tp91
F2
s(S'DP'
p92
S'DDDNNP'
tp93
F2
s(S'PP'
S'ADVPADP'
tp94
F1
s(S'PP'
p95
S'PAP'
tp96
F95
s(S'NP'
p97
S'ANNDDDDP'
tp98
F1
s(S'VP'
p99
S'VADVADVAP'
tp100
F2
s(S'NP'
p101
S'ANNCCP'
tp102
F1
s(S'PP'
S'ADVPPVP'
tp103
F4
s(S'VP'
p104
S'VADVNP'
tp105
F4
s(S'NP'
p106
S'NNNAP'
tp107
F1
s(S'PP'
S'APVVP'
tp108
F3
s(S'PP'
S'PPADVDP'
tp109
F5
s(S'PP'
p110
S'PNP'
tp111
F196
s(S'CP'
S'ADVCADVAADP'
tp112
F1
s(S'DP'
S'ADVADVDDADP'
tp113
F1
s(S'DP'
p114
S'DDP'
tp115
F26
s(S'VP'
S'ADVVDDP'
tp116
F1
s(S'NP'
S'NNNPP'
tp117
F1
s(S'PP'
S'PAAP'
tp118
F21
s(S'MP'
S'MCDP'
tp119
F3
s(S'DP'
S'DDAANP'
tp120
F1
s(S'NP'
p121
S'NNADVADVCP'
tp122
F1
s(S'VP'
p123
S'VVVVAAP'
tp124
F1
s(S'PP'
p125
S'PADVVVP'
tp126
F3
s(S'NP'
p127
S'NMP'
tp128
F26
s(S'NP'
p129
S'ADVNAPP'
tp130
F1
s(g92
S'ADVDPPPP'
tp131
F1
s(S'PP'
p132
S'PMMP'
tp133
F1
s(g110
S'PDP'
tp134
F164
s(g47
S'ADVADVADVPAAPP'
tp135
F1
s(S'CP'
p136
S'CCADVADVDP'
tp137
F2
s(S'CP'
S'CDAAPP'
tp138
F5
s(S'NP'
S'ADVNVVP'
tp139
F1
s(S'DP'
S'ADVDAPPP'
tp140
F1
s(S'DP'
S'DDADVADVPPP'
tp141
F1
s(S'DP'
p142
S'ADVADVDAPP'
tp143
F2
s(S'NP'
p144
S'ANADVADVCP'
tp145
F1
s(S'NP'
p146
S'NNADVADVADVVVP'
tp147
F2
s(S'NP'
p148
S'NACCP'
tp149
F2
s(S'AP'
S'ANP'
tp150
F1
s(S'PP'
p151
S'PADVPP'
tp152
F4
s(S'VP'
p153
S'AAVPP'
tp154
F2
s(S'VP'
S'VVADVNP'
tp155
F2
s(S'MP'
S'MVACP'
tp156
F1
s(S'MP'
S'MMMVVP'
tp157
F1
s(S'VP'
p158
S'ADVADVVADVADVADVAAP'
tp159
F1
s(S'PP'
S'ADVADVAPVP'
tp160
F2
s(S'PP'
S'ADVADVAPPP'
tp161
F1
s(S'DP'
p162
S'DPPPP'
tp163
F15
s(g36
S'DDANP'
tp164
F5
s(S'DP'
S'ADNNNP'
tp165
F2
s(S'NP'
p166
S'NACP'
tp167
F14
s(S'AP'
S'ADVAVP'
tp168
F1
s(S'NP'
p169
S'NCCP'
tp170
F47
s(S'DP'
S'DADVADVVVP'
tp171
F2
s(S'AP'
S'AAAADP'
tp172
F1
s(S'CP'
S'CADVDDPP'
tp173
F1
s(g169
S'NNCP'
tp174
F59
s(S'NP'
p175
S'AANPPP'
tp176
F2
s(S'NP'
p177
S'NADVADVVP'
tp178
F2
s(g175
S'NNPPPP'
tp179
F1
s(S'DP'
p180
S'DDDDP'
tp181
F1
s(S'VP'
p182
S'AVNP'
tp183
F13
s(S'VP'
S'VVADP'
tp184
F1
s(S'NP'
S'NNNAPP'
tp185
F1
s(S'AP'
p186
S'AAADVVP'
tp187
F1
s(g97
S'NADVADVPP'
tp188
F3
s(S'AP'
S'ADVADVANNP'
tp189
F1
s(S'MP'
S'MVVNP'
tp190
F3
s(g125
S'ADVAPDP'
tp191
F1
s(S'VP'
p192
S'VADVAVVP'
tp193
F1
s(S'VP'
p194
S'ADVADVAVNP'
tp195
F2
s(S'VP'
p196
S'VVVNNP'
tp197
F1
s(S'CP'
p198
S'CADVDADVPPP'
tp199
F1
s(S'NP'
p200
S'ADVADVADVNNDP'
tp201
F1
s(S'VP'
p202
S'ADVADVADVVVPPP'
tp203
F1
s(g47
S'ADVPAPP'
tp204
F1
s(g4
S'AAADVADVVP'
tp205
F1
s(g73
S'DADVPPP'
tp206
F3
s(g30
S'CCCDP'
tp207
F10
s(S'VP'
p208
S'ADVVAP'
tp209
F3
s(g202
S'VCCCP'
tp210
F1
s(S'VP'
S'ADVAVPPPP'
tp211
F1
s(S'DP'
p212
S'DDADVADVADVPPP'
tp213
F1
s(S'CP'
S'CCCADVADVDDP'
tp214
F1
s(S'PP'
p215
S'APDP'
tp216
F18
s(S'CP'
S'ADVCCADVDP'
tp217
F1
s(g198
S'ACDDP'
tp218
F3
s(S'AP'
S'AADVCP'
tp219
F1
s(S'NP'
p220
S'ADVANADVPP'
tp221
F1
s(S'NP'
S'ANNPP'
tp222
F1
s(S'VP'
p223
S'VVANP'
tp224
F1
s(S'DP'
S'DADVNP'
tp225
F3
s(S'PP'
p226
S'ADVPNNP'
tp227
F3
s(g158
S'ADVVVP'
tp228
F3
s(g226
S'ADVADVADVPDP'
tp229
F1
s(S'DP'
p230
S'DADVADVADVPP'
tp231
F2
s(S'NP'
p232
S'ADVADVNNPP'
tp233
F1
s(g186
S'ADVAAADP'
tp234
F1
s(S'PP'
p235
S'PCCP'
tp236
F2
s(S'NP'
p237
S'ADVANCP'
tp238
F1
s(g114
S'DNNP'
tp239
F61
s(S'NP'
p240
S'NADVADVADVDP'
tp241
F1
s(S'DP'
S'DPPPPP'
tp242
F1
s(g136
S'CDDPPPP'
tp243
F1
s(S'CP'
S'CCADVDP'
tp244
F2
s(S'VP'
S'ADVADVADVVVDP'
tp245
F1
s(S'DP'
S'ADDNP'
tp246
F1
s(S'NP'
p247
S'NNNVP'
tp248
F10
s(g28
S'PAADVNNP'
tp249
F1
s(S'VP'
p250
S'VADVNNP'
tp251
F1
s(g16
S'ADVVAANNP'
tp252
F1
s(S'PP'
p253
S'PADVVP'
tp254
F12
s(S'PP'
p255
S'APAP'
tp256
F5
s(S'CP'
p257
S'ADVADVCDP'
tp258
F6
s(S'AP'
S'AAAPPP'
tp259
F1
s(S'NP'
p260
S'NADVMP'
tp261
F1
s(S'PP'
S'PPADP'
tp262
F2
s(g223
S'VADVADVVP'
tp263
F1
s(S'VP'
S'VVAPP'
tp264
F2
s(S'DP'
S'DADVADVNP'
tp265
F1
s(S'VP'
S'VADVADVNP'
tp266
F2
s(S'CP'
p267
S'CADVDPPPP'
tp268
F1
s(g255
S'PAANP'
tp269
F7
s(g182
S'VADVADVCP'
tp270
F2
s(S'NP'
S'NADVADVPPP'
tp271
F1
s(S'PP'
S'PPVVP'
tp272
F6
s(S'VP'
p273
S'VAACP'
tp274
F2
s(S'NP'
p275
S'NNAAAP'
tp276
F1
s(S'MP'
S'MVNP'
tp277
F5
s(g22
S'PAVP'
tp278
F11
s(S'MP'
S'ADVMVP'
tp279
F2
s(S'PP'
S'PPADVNNP'
tp280
F1
s(S'CP'
S'CADVADVADPP'
tp281
F2
s(S'NP'
S'NNADVADVVVP'
tp282
F1
s(S'PP'
S'APPPP'
tp283
F2
s(S'DP'
S'DADP'
tp284
F3
s(S'DP'
p285
S'ADVDVVP'
tp286
F4
s(S'AP'
S'ADVADP'
tp287
F3
s(S'AP'
p288
S'APP'
tp289
F37
s(S'VP'
S'VVADVPP'
tp290
F1
s(S'PP'
p291
S'APDDP'
tp292
F3
s(S'VP'
S'ADVADVVVNP'
tp293
F2
s(S'VP'
p294
S'ADVADVVANP'
tp295
F1
s(S'NP'
S'ADVNAP'
tp296
F2
s(S'DP'
p297
S'ADVDDDP'
tp298
F1
s(S'DP'
S'DDDDVVP'
tp299
F2
s(S'PP'
p300
S'PPCP'
tp301
F1
s(S'NP'
S'AANNCCP'
tp302
F1
s(g153
S'ADVADVADVVVDDP'
tp303
F1
s(S'VP'
p304
S'VVNP'
tp305
F33
s(g151
S'ADVPAVP'
tp306
F1
s(S'PP'
S'PPPNNP'
tp307
F1
s(g226
S'PPVP'
tp308
F36
s(S'VP'
S'VADVDP'
tp309
F5
s(S'DP'
S'DDDPP'
tp310
F14
s(S'VP'
S'VAAP'
tp311
F19
s(S'CP'
S'ADVCDDP'
tp312
F2
s(S'NP'
p313
S'ANDP'
tp314
F7
s(g220
S'NVVP'
tp315
F43
s(g291
S'AAPVP'
tp316
F5
s(S'AP'
p317
S'AAP'
tp318
F10
s(g202
S'VMP'
tp319
F3
s(S'NP'
p320
S'ANPPPP'
tp321
F1
s(S'VP'
p322
S'VVNNP'
tp323
F13
s(S'CP'
p324
S'CDAPP'
tp325
F18
s(g294
S'VVAAP'
tp326
F4
s(g63
S'ADVADVDDVP'
tp327
F1
s(g54
S'ADNP'
tp328
F18
s(S'AP'
S'AAAAADP'
tp329
F1
s(g142
S'ADVDDPPP'
tp330
F1
s(g215
S'PADP'
tp331
F15
s(S'NP'
S'NNAADP'
tp332
F1
s(S'VP'
S'ADVVVCP'
tp333
F1
s(S'AP'
S'AAAACP'
tp334
F1
s(S'NP'
S'ANDDP'
tp335
F4
s(S'NP'
S'NADVACCP'
tp336
F1
s(g24
S'DAPP'
tp337
F26
s(S'CP'
S'CADVDAPPP'
tp338
F1
s(S'VP'
S'AVVP'
tp339
F2
s(g104
S'VADVADVNNP'
tp340
F1
s(S'NP'
S'NNNADVDDP'
tp341
F1
s(S'PP'
S'ADVADVADVPPP'
tp342
F1
s(S'DP'
S'DAAVP'
tp343
F3
s(S'VP'
S'ADVADVVDP'
tp344
F3
s(g255
S'PPPDP'
tp345
F6
s(S'PP'
S'AAAPVVP'
tp346
F1
s(S'PP'
S'AAPADVPPP'
tp347
F1
s(g123
S'VVAAANP'
tp348
F1
s(S'AP'
S'AACCCP'
tp349
F1
s(S'AP'
p350
S'AAPPP'
tp351
F2
s(S'DP'
p352
S'DAAANP'
tp353
F1
s(S'DP'
S'DADVANP'
tp354
F1
s(g99
S'VAAPP'
tp355
F3
s(S'DP'
p356
S'ADVDNP'
tp357
F8
s(S'VP'
p358
S'VVPP'
tp359
F26
s(g75
S'VADVAPP'
tp360
F1
s(S'DP'
p361
S'ADVDDDNP'
tp362
F1
s(S'CP'
p363
S'AACDDP'
tp364
F3
s(S'MP'
S'MVPP'
tp365
F6
s(S'DP'
p366
S'ADVP'
tp367
F6
s(S'CP'
S'CDDPPP'
tp368
F18
s(g148
S'NNPP'
tp369
F38
s(S'PP'
p370
S'ADVPDDDP'
tp371
F1
s(S'CP'
S'CCCADVDP'
tp372
F2
s(S'DP'
p373
S'DDDDNP'
tp374
F1
s(S'MP'
S'MVVDP'
tp375
F1
s(S'CP'
p376
S'CDDDDPPP'
tp377
F3
s(g146
S'ANVP'
tp378
F24
s(g366
S'DNNNP'
tp379
F10
s(S'DP'
S'ADVDDVP'
tp380
F3
s(S'PP'
p381
S'PADVADVVP'
tp382
F3
s(g50
S'VADVDDP'
tp383
F2
s(S'PP'
S'PPPADVADVADVVVP'
tp384
F1
s(S'VP'
p385
S'ADVVCP'
tp386
F2
s(S'PP'
S'PVVVP'
tp387
F1
s(g22
S'PMP'
tp388
F7
s(S'CP'
p389
S'CCDP'
tp390
F78
s(S'DP'
p391
S'ADVADVADVDPP'
tp392
F2
s(S'MP'
S'AMVP'
tp393
F1
s(g291
S'PPNNNP'
tp394
F2
s(S'PP'
S'ADVADVPPPP'
tp395
F1
s(S'NP'
S'NVVVP'
tp396
F4
s(S'CP'
S'CDDDPP'
tp397
F9
s(S'PP'
p398
S'PPADVVP'
tp399
F1
s(S'VP'
S'VVVDP'
tp400
F6
s(S'PP'
p401
S'PNNNP'
tp402
F10
s(S'PP'
p403
S'AAPNP'
tp404
F8
s(g34
S'ADVVVDP'
tp405
F3
s(S'PP'
p406
S'PPP'
tp407
F106
s(g169
S'NAVP'
tp408
F16
s(S'PP'
p409
S'PADVAP'
tp410
F5
s(S'DP'
S'DDNNNP'
tp411
F1
s(S'VP'
S'ADVVAPP'
tp412
F1
s(S'NP'
p413
S'ANADVCCP'
tp414
F1
s(g39
S'ADVDVP'
tp415
F3
s(S'NP'
S'NNNADVCCP'
tp416
F1
s(S'NP'
S'NAAAP'
tp417
F1
s(S'NP'
S'NADVVVP'
tp418
F2
s(S'NP'
S'ADVADVADVADVANVVP'
tp419
F1
s(S'CP'
S'CDAAAPP'
tp420
F1
s(S'DP'
p421
S'DAAAP'
tp422
F1
s(S'NP'
S'ADVADVADVNNCCP'
tp423
F1
s(g358
S'VPP'
tp424
F118
s(g257
S'ADVCCDP'
tp425
F7
s(S'CP'
p426
S'ACCDP'
tp427
F5
s(S'DP'
S'ADVDDNP'
tp428
F1
s(S'PP'
S'ADVADVPADVNP'
tp429
F1
s(S'NP'
p430
S'NNNCP'
tp431
F8
s(S'PP'
p432
S'PADVDP'
tp433
F7
s(S'CP'
S'CDADVAPP'
tp434
F1
s(S'DP'
p435
S'DANNP'
tp436
F2
s(g389
S'CDDPP'
tp437
F56
s(S'DP'
p438
S'DAAPP'
tp439
F14
s(g406
S'PVVP'
tp440
F49
s(S'CP'
S'CADPPP'
tp441
F3
s(S'AP'
p442
S'AACP'
tp443
F10
s(g230
S'DADVADVADVNNP'
tp444
F2
s(S'VP'
p445
S'VPPP'
tp446
F10
s(g196
S'ADVADVVVCCP'
tp447
F1
s(g8
S'AVCCP'
tp448
F2
s(g127
S'NADVADVAVP'
tp449
F2
s(g28
S'APCCP'
tp450
F1
s(g445
S'VVPPP'
tp451
F4
s(S'PP'
S'PPAP'
tp452
F10
s(g24
S'DVVP'
tp453
F44
s(S'VP'
S'VVVADVADVADVADVANP'
tp454
F1
s(g267
S'CDDAAPP'
tp455
F3
s(S'AP'
S'APPP'
tp456
F4
s(S'NP'
S'NNNNMP'
tp457
F1
s(g52
S'ADVADPPP'
tp458
F1
s(S'NP'
S'ADVADVNVP'
tp459
F3
s(S'VP'
p460
S'VVVP'
tp461
F18
s(S'CP'
S'CADVDPP'
tp462
F19
s(S'NP'
S'ADVADVNNVP'
tp463
F1
s(g230
S'ADVDADVADVPPP'
tp464
F1
s(g127
S'ANCP'
tp465
F21
s(S'DP'
S'DCP'
tp466
F6
s(g313
S'ANNCP'
tp467
F3
s(S'NP'
S'AAANCP'
tp468
F1
s(g16
S'ADVVVVP'
tp469
F3
s(S'VP'
p470
S'AAVNNNNP'
tp471
F1
s(S'NP'
S'NAAADP'
tp472
F1
s(S'AP'
S'ADDDDP'
tp473
F3
s(g54
S'DDADVPP'
tp474
F4
s(S'MP'
S'MAADP'
tp475
F1
s(g430
S'ANVVP'
tp476
F6
s(g273
S'VVDP'
tp477
F37
s(g237
S'ANPPP'
tp478
F1
s(S'NP'
p479
S'NPPP'
tp480
F34
s(S'PP'
p481
S'PPAPP'
tp482
F2
s(S'DP'
p483
S'DAVP'
tp484
F12
s(g223
S'AVVVP'
tp485
F1
s(S'CP'
S'CDDADVADVADVPPP'
tp486
F1
s(g151
S'ADVPPP'
tp487
F5
s(S'AP'
p488
S'ACP'
tp489
F43
s(S'PP'
p490
S'AAPAP'
tp491
F3
s(S'PP'
p492
S'ADVADVPPP'
tp493
F3
s(g125
S'PADVADVNNP'
tp494
F2
s(g322
S'AVADVADVCP'
tp495
F1
s(S'DP'
S'DADVADVPPP'
tp496
F1
s(g71
S'ADVDAPP'
tp497
F2
s(S'DP'
S'AADVP'
tp498
F3
s(S'VP'
S'VVVANP'
tp499
F1
s(S'NP'
p500
S'NNNNCCP'
tp501
F2
s(S'CP'
S'CDDADVPP'
tp502
F3
s(g288
S'ADP'
tp503
F136
s(S'NP'
S'NNNMP'
tp504
F1
s(S'DP'
S'DDPPPP'
tp505
F2
s(g47
S'ADVADVPPMP'
tp506
F1
s(g376
S'ADVCADVDDP'
tp507
F1
s(g87
S'AVADVADVNP'
tp508
F1
s(S'PP'
S'PPPADVAVP'
tp509
F1
s(S'DP'
p510
S'DVVVVP'
tp511
F1
s(S'AP'
S'AAADP'
tp512
F9
s(S'NP'
S'ANNVP'
tp513
F1
s(S'NP'
S'NNNNVVVP'
tp514
F1
s(S'VP'
p515
S'VVAP'
tp516
F18
s(S'NP'
S'NNAPP'
tp517
F2
s(g34
S'VADVADVADVPP'
tp518
F1
s(S'NP'
p519
S'ADVNACCP'
tp520
F2
s(g401
S'PADVADVDP'
tp521
F1
s(S'VP'
S'AAVCP'
tp522
F1
s(g148
S'NPP'
tp523
F157
s(S'VP'
S'ADVADVVAP'
tp524
F3
s(g148
S'NVP'
tp525
F177
s(g409
S'ADVPADVPPP'
tp526
F1
s(g14
S'CADVADPP'
tp527
F2
s(S'PP'
S'PPVVVP'
tp528
F1
s(g60
S'PAAVP'
tp529
F2
s(g220
S'NAAPP'
tp530
F2
s(g132
S'PPADVADVPPP'
tp531
F1
s(g460
S'VDDP'
tp532
F32
s(S'MP'
S'MVADVADVCP'
tp533
F1
s(S'DP'
S'DAPPP'
tp534
F2
s(S'AP'
S'AAADVDP'
tp535
F1
s(S'NP'
S'AANNVP'
tp536
F2
s(S'NP'
S'AANVVP'
tp537
F1
s(g356
S'DADVAPP'
tp538
F1
s(S'DP'
S'DDADVADVNNP'
tp539
F1
s(g500
S'ANPP'
tp540
F27
s(g226
S'PPPPP'
tp541
F7
s(S'NP'
S'AADVNNAPP'
tp542
F1
s(S'PP'
p543
S'ADVADVPDP'
tp544
F2
s(S'MP'
S'MVVPP'
tp545
F3
s(g253
S'PPPNP'
tp546
F9
s(S'DP'
p547
S'DDDDDP'
tp548
F1
s(g186
S'AADVAP'
tp549
F1
s(S'NP'
p550
S'NPPPP'
tp551
F1
s(g361
S'ADDP'
tp552
F1
s(S'CP'
S'CAADPP'
tp553
F3
s(S'DP'
S'DADVADVVP'
tp554
F4
s(S'NP'
S'NAACP'
tp555
F2
s(S'PP'
p556
S'PNNP'
tp557
F62
s(g291
S'APNNP'
tp558
F4
s(S'DP'
p559
S'DDAAP'
tp560
F3
s(S'DP'
S'AAAADVVP'
tp561
F1
s(S'DP'
S'AAADPP'
tp562
F1
s(g45
S'AVAP'
tp563
F1
s(S'MP'
S'MMVP'
tp564
F4
s(S'CP'
S'CADVDAAPP'
tp565
F1
s(g247
S'ADVADVNDDP'
tp566
F2
s(g413
S'ADVNCP'
tp567
F7
s(g92
S'DDADVADVPP'
tp568
F3
s(S'DP'
S'ADPP'
tp569
F37
s(g200
S'NAPPP'
tp570
F1
s(g363
S'ACDP'
tp571
F18
s(g34
S'VCCP'
tp572
F15
s(S'VP'
p573
S'ADVADVVAAP'
tp574
F1
s(S'NP'
S'NNACP'
tp575
F1
s(g421
S'AAADPPP'
tp576
F2
s(S'PP'
p577
S'ADVADVADVPPNP'
tp578
F1
s(S'CP'
p579
S'CDADVPPP'
tp580
F2
s(g515
S'VAP'
tp581
F90
s(S'MP'
S'MNVVP'
tp582
F1
s(S'VP'
p583
S'VVADVAP'
tp584
F2
s(g361
S'DDDAAPPP'
tp585
F1
s(S'NP'
S'AANNCP'
tp586
F3
s(S'DP'
S'DDDP'
tp587
F4
s(g481
S'PAAPP'
tp588
F2
s(S'AP'
S'AAVVP'
tp589
F3
s(S'MP'
S'MAVPP'
tp590
F1
s(S'VP'
p591
S'ADVADVVVAP'
tp592
F1
s(g547
S'DDDPPP'
tp593
F2
s(S'VP'
S'ADVAVDP'
tp594
F1
s(S'DP'
S'ADAP'
tp595
F2
s(g547
S'DADVDP'
tp596
F1
s(g579
S'CCADVADP'
tp597
F2
s(g230
S'DDDAP'
tp598
F1
s(S'AP'
S'AAACP'
tp599
F3
s(g166
S'NAAP'
tp600
F22
s(S'PP'
S'PPPVP'
tp601
F5
s(g583
S'AAVAP'
tp602
F3
s(S'AP'
S'AADDP'
tp603
F6
s(g275
S'ANNVVP'
tp604
F1
s(g322
S'VAANP'
tp605
F3
s(g320
S'NADVADVCP'
tp606
F2
s(S'NP'
S'NVVVVP'
tp607
F1
s(S'DP'
S'DADVADVDP'
tp608
F1
s(S'DP'
S'DDDAANNP'
tp609
F1
s(S'MP'
S'MADP'
tp610
F2
s(g235
S'PPPDDP'
tp611
F2
s(g101
S'NNNP'
tp612
F3
s(S'CP'
S'CCAADP'
tp613
F1
s(S'AP'
S'AAACCP'
tp614
F1
s(g435
S'DDADVNP'
tp615
F2
s(g22
S'PANP'
tp616
F32
s(S'DP'
S'AADNP'
tp617
F2
s(g435
S'DADVADVNNP'
tp618
F1
s(S'NP'
p619
S'AANMP'
tp620
F1
s(g488
S'AAVP'
tp621
F14
s(g288
S'AVVP'
tp622
F9
s(g500
S'NDDP'
tp623
F9
s(S'CP'
S'CDDADVADVPPP'
tp624
F1
s(S'DP'
S'ADVADVDPPP'
tp625
F2
s(g4
S'ACCP'
tp626
F5
s(g212
S'ADAAP'
tp627
F1
s(g591
S'AVPPP'
tp628
F2
s(g288
S'APPPP'
tp629
F1
s(g148
S'NDP'
tp630
F80
s(S'VP'
S'ADVVANP'
tp631
F2
s(g500
S'AAANVP'
tp632
F2
s(S'NP'
S'NADVADVADVVVP'
tp633
F1
s(S'PP'
p634
S'ADVPAANP'
tp635
F1
s(S'MP'
S'MVAAP'
tp636
F1
s(S'DP'
p637
S'DDVP'
tp638
F26
s(g83
S'AANVP'
tp639
F7
s(S'VP'
S'ADVVVNNP'
tp640
F3
s(S'DP'
S'DADVADVAPP'
tp641
F2
s(S'VP'
p642
S'VNNNP'
tp643
F7
s(S'VP'
S'VVAAANNP'
tp644
F1
s(g406
S'ADVPAP'
tp645
F1
s(g192
S'ADVAVVDP'
tp646
F1
s(g577
S'APADVDP'
tp647
F1
s(g634
S'PCP'
tp648
F12
s(g313
S'NNPPP'
tp649
F5
s(S'CP'
p650
S'ACADVDDP'
tp651
F1
s(g409
S'PAADP'
tp652
F2
s(g177
S'ADVNNVP'
tp653
F1
s(S'MP'
S'MDNP'
tp654
F1
s(g202
S'VPPPP'
tp655
F4
s(g220
S'AANADVADVADVVVP'
tp656
F1
s(g77
S'PACP'
tp657
F1
s(S'MP'
S'MVNNNP'
tp658
F1
s(S'NP'
S'NNNDP'
tp659
F3
s(S'AP'
S'ADVACP'
tp660
F4
s(g240
S'ADVADVNMP'
tp661
F2
s(S'VP'
S'VVVAP'
tp662
F1
s(S'VP'
S'ADVADVAVDP'
tp663
F1
s(S'DP'
S'ADPPP'
tp664
F4
s(g200
S'NNAAVP'
tp665
F2
s(g180
S'ADVADVDDPPPP'
tp666
F1
s(S'MP'
S'MVCP'
tp667
F5
s(S'CP'
S'CCDDP'
tp668
F20
s(g106
S'NNADVVP'
tp669
F2
s(S'PP'
S'PPADVADVVP'
tp670
F1
s(g547
S'DADVADVADVVVP'
tp671
F1
s(g313
S'NNVVP'
tp672
F10
s(g90
S'ADVACCDP'
tp673
F1
s(S'VP'
S'VVCP'
tp674
F20
s(g543
S'PADVADVPP'
tp675
F1
s(g81
S'AANCP'
tp676
F4
s(S'VP'
S'VAADP'
tp677
F3
s(S'DP'
S'ADVADVADVADAP'
tp678
F1
s(S'AP'
S'ADVAVVP'
tp679
F1
s(g81
S'NNDDP'
tp680
F3
s(g352
S'DDDDPPP'
tp681
F3
s(S'VP'
S'ADVVPP'
tp682
F3
s(g432
S'PPNP'
tp683
F53
s(g460
S'VNNP'
tp684
F45
s(g12
S'AADVDP'
tp685
F6
s(S'NP'
S'NADP'
tp686
F7
s(g24
S'DDNP'
tp687
F45
s(S'CP'
S'ACADVDP'
tp688
F2
s(S'NP'
p689
S'NADVCP'
tp690
F12
s(g438
S'DDNNP'
tp691
F14
s(S'PP'
S'AAPPP'
tp692
F5
s(S'PP'
S'PADVADVVVP'
tp693
F2
s(S'NP'
S'NNADVADVCCP'
tp694
F1
s(S'NP'
S'NNADVADVADVPP'
tp695
F1
s(S'VP'
p696
S'VVADVVVP'
tp697
F1
s(g350
S'ADVADDP'
tp698
F1
s(g637
S'AADPP'
tp699
F4
s(g57
S'VADVAVP'
tp700
F1
s(g543
S'APPNP'
tp701
F1
s(S'NP'
S'NNNNPP'
tp702
F2
s(S'PP'
S'ADVADVPPDP'
tp703
F2
s(S'NP'
S'NNADVMP'
tp704
F1
s(S'CP'
S'CDPPPPP'
tp705
F1
s(S'DP'
S'ADVAADPP'
tp706
F1
s(g391
S'DADVADVAP'
tp707
F1
s(g583
S'VADVADVADVADP'
tp708
F1
s(S'CP'
p709
S'CDDADVPPP'
tp710
F1
s(S'VP'
S'AAVVP'
tp711
F2
s(g212
S'ADVDNNP'
tp712
F5
s(g409
S'ADVPPAVP'
tp713
F1
s(g519
S'ADVADVNNCP'
tp714
F2
s(S'AP'
S'AAPP'
tp715
F6
s(S'VP'
p716
S'VVCCP'
tp717
F8
s(g54
S'DADVVVP'
tp718
F5
s(S'VP'
S'ADVVNP'
tp719
F3
s(g483
S'DAAAPP'
tp720
F2
s(g226
S'ADVPANP'
tp721
F2
s(S'VP'
p722
S'VADVADP'
tp723
F1
s(S'AP'
S'ADVANNP'
tp724
F1
s(g313
S'NAPP'
tp725
F19
s(g442
S'AAADVADVDDP'
tp726
F1
s(S'AP'
S'ADVADVADP'
tp727
F2
s(g519
S'NADVDP'
tp728
F1
s(S'PP'
S'ADVPPPP'
tp729
F1
s(g220
S'ANCCP'
tp730
F8
s(g81
S'AANPP'
tp731
F4
s(g127
S'NNCCP'
tp732
F18
s(S'NP'
S'NNMP'
tp733
F4
s(g125
S'ADVPANNP'
tp734
F1
s(S'DP'
S'DDDVP'
tp735
F3
s(g398
S'ADVADVPNNP'
tp736
F1
s(S'DP'
S'DDAANNP'
tp737
F2
s(S'PP'
S'PAAAP'
tp738
F4
s(g492
S'PPPAP'
tp739
F3
s(S'CP'
p740
S'CDDAPP'
tp741
F5
s(S'NP'
S'ANAP'
tp742
F1
s(S'MP'
S'MVAP'
tp743
F3
s(g95
S'PVP'
tp744
F155
s(g192
S'VADVPPP'
tp745
F1
s(S'AP'
S'ADVADVAPP'
tp746
F1
s(S'VP'
S'VVAAAAP'
tp747
F1
s(g294
S'VADVCCP'
tp748
F3
s(g132
S'APPNNP'
tp749
F1
s(S'AP'
S'AADVDDP'
tp750
F2
s(S'MP'
S'MADVADVVCP'
tp751
F1
s(S'AP'
S'ADVAACP'
tp752
F1
s(g619
S'ADVNAVP'
tp753
F1
s(S'DP'
S'DVVVP'
tp754
F3
s(S'PP'
p755
S'PPADVPP'
tp756
F3
s(S'NP'
S'ADVNNAP'
tp757
F1
s(S'DP'
S'ADVADVADVDNP'
tp758
F1
s(g689
S'ADVADVANVP'
tp759
F1
s(S'NP'
S'ADVNACP'
tp760
F1
s(g291
S'PPDDP'
tp761
F5
s(S'VP'
S'AVCP'
tp762
F6
s(S'DP'
S'DDVVVP'
tp763
F1
s(S'DP'
p764
S'DPP'
tp765
F209
s(g6
S'ADVVP'
tp766
F1
s(S'NP'
S'ADVNVP'
tp767
F7
s(S'CP'
S'CDADVADVADVPP'
tp768
F1
s(g114
S'DDPP'
tp769
F85
s(S'DP'
S'DDADVPPP'
tp770
F2
s(g352
S'DANP'
tp771
F29
s(g83
S'NADVPP'
tp772
F9
s(g619
S'NNADVADVPP'
tp773
F1
s(S'NP'
p774
S'ADVNVVVP'
tp775
F1
s(g32
S'AAPPVP'
tp776
F1
s(g220
S'NAAVP'
tp777
F3
s(g373
S'ADVADVADPP'
tp778
F2
s(S'PP'
S'PPPCCP'
tp779
F1
s(S'PP'
S'PDDDP'
tp780
F4
s(g198
S'CADVADVADVDPP'
tp781
F1
s(g470
S'VADVCP'
tp782
F5
s(S'NP'
S'NNNNAP'
tp783
F1
s(S'NP'
S'NNNNCP'
tp784
F1
s(g83
S'NADVCCP'
tp785
F3
s(g230
S'ADVDAAP'
tp786
F1
s(g619
S'NNAACP'
tp787
F1
s(g313
S'NNNVVP'
tp788
F4
s(S'PP'
p789
S'PADVPPP'
tp790
F1
s(S'PP'
S'AAPNNP'
tp791
F1
s(S'DP'
S'AADDP'
tp792
F1
s(g634
S'AAPDP'
tp793
F4
s(g716
S'VVDDP'
tp794
F13
s(S'DP'
S'DDADVNNP'
tp795
F1
s(g696
S'AVVDP'
tp796
F2
s(g432
S'PDDP'
tp797
F36
s(S'MP'
S'MVDDP'
tp798
F2
s(S'PP'
S'ADVAPNP'
tp799
F1
s(g479
S'NNVP'
tp800
F60
s(g358
S'AVDP'
tp801
F20
s(S'PP'
S'AAPDDDP'
tp802
F1
s(g144
S'NNP'
tp803
F3
s(g73
S'ADVADPP'
tp804
F4
s(g285
S'DAANP'
tp805
F8
s(S'VP'
S'ADVVACCP'
tp806
F1
s(g352
S'ADVDDPP'
tp807
F3
s(S'PP'
S'PNNNNP'
tp808
F3
s(g406
S'ADVPPNP'
tp809
F5
s(S'NP'
S'ADVADVNVVP'
tp810
F2
s(g774
S'ADVNCCCP'
tp811
F1
s(g740
S'CADVADVDPP'
tp812
F6
s(S'DP'
p813
S'DPPP'
tp814
F69
s(S'DP'
S'DAVVP'
tp815
F1
s(S'DP'
S'AADPPP'
tp816
F2
s(S'PP'
S'ADVADVPPNP'
tp817
F1
s(g175
S'NNAVP'
tp818
F3
s(S'NP'
S'NNAAPP'
tp819
F1
s(g519
S'NMMMP'
tp820
F1
s(g260
S'NNNADVVVP'
tp821
F1
s(g755
S'ADVPNP'
tp822
F6
s(g556
S'PPDP'
tp823
F30
s(g317
S'ADVADVADVAVVP'
tp824
F1
s(g54
S'ADVDDADVPP'
tp825
F1
s(g559
S'ADVDCP'
tp826
F1
s(S'PP'
S'APADVADVNP'
tp827
F1
s(S'DP'
S'DADVADVCP'
tp828
F1
s(S'NP'
S'AAANMP'
tp829
F1
s(S'DP'
S'DDCP'
tp830
F2
s(S'DP'
S'ADVDADVPPP'
tp831
F2
s(S'PP'
S'PAANNP'
tp832
F2
s(g125
S'PPADVDDP'
tp833
F1
s(S'AP'
S'ANNP'
tp834
F1
s(g148
S'NAP'
tp835
F54
s(S'NP'
S'NNAAP'
tp836
F2
s(g385
S'VAAAP'
tp837
F1
s(S'NP'
S'NAAAPP'
tp838
F1
s(g358
S'VVP'
tp839
F35
s(g813
S'DDAPP'
tp840
F6
s(S'PP'
S'ADVADVPVP'
tp841
F3
s(g110
S'APNP'
tp842
F23
s(S'DP'
S'DADVADVAVP'
tp843
F1
s(S'DP'
S'DDVVP'
tp844
F5
s(S'VP'
S'VVVNP'
tp845
F4
s(g650
S'CADVADVDAPP'
tp846
F2
s(S'NP'
S'ADVNADVADVVP'
tp847
F1
s(g106
S'NNADVPP'
tp848
F1
s(S'MP'
S'MVANP'
tp849
F2
s(g162
S'ADVADVDDPP'
tp850
F5
s(S'MP'
S'MVNNP'
tp851
F1
s(g426
S'CDPP'
tp852
F190
s(S'CP'
S'AAACDP'
tp853
F1
s(S'AP'
S'ADDDP'
tp854
F1
s(S'CP'
S'ADVCADP'
tp855
F1
s(g83
S'NNDP'
tp856
F19
s(S'CP'
S'ADVCDP'
tp857
F14
s(g481
S'AAPVVP'
tp858
F1
s(g573
S'ADVADVVNP'
tp859
F2
s(S'CP'
S'ADVACDP'
tp860
F1
s(S'VP'
p861
S'ADVADVVCP'
tp862
F4
s(S'PP'
p863
S'PPNNP'
tp864
F14
s(S'NP'
S'AAANNVP'
tp865
F1
s(S'PP'
S'ADVAPPP'
tp866
F1
s(g813
S'ADVADVDPP'
tp867
F10
s(g304
S'VDP'
tp868
F144
s(g550
S'NADVAP'
tp869
F1
s(g722
S'AVDDP'
tp870
F1
s(g43
S'VVDDDP'
tp871
F1
s(g114
S'DAP'
tp872
F27
s(S'CP'
S'CADPP'
tp873
F22
s(g129
S'NADVAVP'
tp874
F1
s(S'PP'
p875
S'PPAVP'
tp876
F1
s(S'PP'
S'PPDDDP'
tp877
F1
s(S'VP'
S'AVPP'
tp878
F5
s(g41
S'VVADVDP'
tp879
F2
s(S'CP'
S'CDADVADVPP'
tp880
F1
s(S'PP'
S'PAVVP'
tp881
F1
s(g324
S'CDPPPP'
tp882
F10
s(g73
S'ADVDAAPP'
tp883
F2
s(S'DP'
S'AADNNP'
tp884
F1
s(g291
S'PANNP'
tp885
F5
s(S'VP'
S'VVNNNP'
tp886
F1
s(g65
S'ADVPAAANP'
tp887
F1
s(g490
S'APPP'
tp888
F5
s(S'DP'
S'ADPPPP'
tp889
F1
s(g75
S'ADVVADVAP'
tp890
F1
s(g297
S'DADVADVPP'
tp891
F2
s(g324
S'CADVADVDDPP'
tp892
F4
s(S'DP'
S'ADVDPP'
tp893
F24
s(S'PP'
S'PPAANP'
tp894
F3
s(g215
S'PADVADVNP'
tp895
F4
s(g381
S'PPPPNP'
tp896
F1
s(S'AP'
S'AADP'
tp897
F47
s(S'NP'
S'ADVADVNNAP'
tp898
F1
s(S'PP'
S'PPPVVP'
tp899
F1
s(S'NP'
S'NNADVVVP'
tp900
F1
s(S'NP'
S'NNNNCCCP'
tp901
F1
s(g583
S'VADVPP'
tp902
F1
s(S'DP'
S'DDAAPP'
tp903
F4
s(g376
S'CCADVDDP'
tp904
F3
s(g755
S'ADVPVP'
tp905
F11
s(S'DP'
S'DDDDPP'
tp906
F1
s(S'AP'
S'ADVADVAVP'
tp907
F1
s(g619
S'NNVVVP'
tp908
F1
s(g300
S'PPADVADVAPP'
tp909
F1
s(g235
S'PAMP'
tp910
F1
s(g432
S'ADVPDP'
tp911
F6
s(S'VP'
S'VVNNNNP'
tp912
F1
s(g146
S'ADVNNPP'
tp913
F2
s(g370
S'PPDDDDP'
tp914
F1
s(g148
S'NCP'
tp915
F156
s(S'CP'
S'CADVDPPP'
tp916
F4
s(g250
S'ADVVVPP'
tp917
F2
s(g255
S'AAAPNP'
tp918
F2
s(g92
S'DDADVVVP'
tp919
F1
s(g68
S'AAAP'
tp920
F2
s(g267
S'CDDADVADVPP'
tp921
F2
s(S'AP'
S'ADDP'
tp922
F20
s(S'VP'
S'VADVADVADVDP'
tp923
F1
s(g121
S'AANDP'
tp924
F2
s(g861
S'VDDDP'
tp925
F7
s(S'MP'
S'MNVP'
tp926
F1
s(g32
S'ADVPADVDDDP'
tp927
F1
s(S'CP'
S'ADVADVCCDP'
tp928
F1
s(g313
S'AANCCP'
tp929
F1
s(g642
S'VAPP'
tp930
F7
s(S'VP'
S'ADVVDP'
tp931
F12
s(S'MP'
S'MAVDP'
tp932
F1
s(S'PP'
S'APADVNP'
tp933
F2
s(g114
S'DADVPP'
tp934
F17
s(S'CP'
S'CCADP'
tp935
F4
s(S'NP'
S'ADVNNCP'
tp936
F2
s(S'DP'
S'ADVDAP'
tp937
F1
s(g863
S'ADVADVADVPNP'
tp938
F1
s(g129
S'NNNPPP'
tp939
F1
s(S'AP'
S'ADVAPP'
tp940
F3
s(g510
S'DDADVAPP'
tp941
F1
s(g789
S'ADVPPVVP'
tp942
F2
s(g438
S'ADVDAVP'
tp943
F1
s(S'CP'
S'AACDP'
tp944
F4
s(g232
S'NNNCCP'
tp945
F1
s(g709
S'CCDDDP'
tp946
F3
s(S'DP'
S'ADVDPPP'
tp947
F5
s(g764
S'DVP'
tp948
F140
s(g208
S'AVNNP'
tp949
F1
s(g689
S'ADVNPP'
tp950
F6
s(g144
S'NNCCCP'
tp951
F1
s(g403
S'PADVADVDDP'
tp952
F2
s(S'AP'
S'AVP'
tp953
F24
s(S'NP'
S'NADVVP'
tp954
F12
s(g500
S'NNADVADVVP'
tp955
F1
s(S'PP'
S'PPADVADVANP'
tp956
F1
s(g196
S'VVADVPPP'
tp957
F1
s(S'VP'
S'ADVVPPP'
tp958
F2
s(g366
S'DDPPP'
tp959
F28
s(S'NP'
S'ADVNMP'
tp960
F1
s(g519
S'NNAP'
tp961
F4
s(S'NP'
S'NNNANP'
tp962
F1
s(S'PP'
S'PPANP'
tp963
F4
s(g389
S'CDADVPP'
tp964
F11
s(g358
S'VNP'
tp965
F151
s(g875
S'ADVPMMP'
tp966
F1
s(g194
S'VANP'
tp967
F20
s(S'VP'
S'VADVAP'
tp968
F4
s(S'PP'
S'PPADVNP'
tp969
F2
s(S'DP'
S'DDDDVP'
tp970
F1
s(S'VP'
S'ADVADVVVDP'
tp971
F1
s(g169
S'NADVPPP'
tp972
F2
s.