ccollections
defaultdict
p1
(c__builtin__
float
p2
tRp3
(S'DP'
p4
S'DDPP'
tp5
F3
s(g4
S'DANP'
tp6
F2
s(S'VP'
p7
S'VVNP'
tp8
F2
s(S'PP'
p9
S'PPPNP'
tp10
F2
s(S'PP'
p11
S'PPVP'
tp12
F2
s(S'NP'
S'AANADVVP'
tp13
F1
s(S'NP'
p14
S'NPPPP'
tp15
F2
s(S'PP'
p16
S'PAPP'
tp17
F1
s(S'NP'
p18
S'NVVP'
tp19
F3
s(S'DP'
p20
S'DNP'
tp21
F8
s(g9
S'PNNP'
tp22
F2
s(S'AP'
p23
S'ADVACP'
tp24
F1
s(S'VP'
p25
S'VVNNP'
tp26
F3
s(S'CP'
p27
S'CDAPP'
tp28
F2
s(g27
S'CDPPP'
tp29
F2
s(S'CP'
S'CDPPPPP'
tp30
F1
s(S'PP'
p31
S'PDDP'
tp32
F2
s(S'CP'
p33
S'ACDP'
tp34
F1
s(S'DP'
p35
S'DAPP'
tp36
F2
s(S'VP'
p37
S'VAP'
tp38
F1
s(S'PP'
p39
S'PPPP'
tp40
F2
s(S'PP'
p41
S'PPAADDP'
tp42
F1
s(g37
S'VVDDP'
tp43
F1
s(g37
S'ADVADVVCP'
tp44
F1
s(g20
S'DPPP'
tp45
F4
s(S'NP'
S'NCCCP'
tp46
F1
s(S'VP'
p47
S'VCP'
tp48
F6
s(g16
S'ADVADVPPNP'
tp49
F1
s(S'CP'
p50
S'CDDPPP'
tp51
F1
s(g9
S'PPDP'
tp52
F3
s(g14
S'NNPP'
tp53
F2
s(g11
S'PNP'
tp54
F8
s(S'MP'
S'MADP'
tp55
F1
s(S'DP'
S'DNNP'
tp56
F1
s(S'NP'
S'NMP'
tp57
F2
s(S'NP'
p58
S'NAAP'
tp59
F1
s(g58
S'NDDP'
tp60
F1
s(S'CP'
S'CCDP'
tp61
F5
s(S'NP'
p62
S'NAP'
tp63
F5
s(S'DP'
p64
S'AADDPP'
tp65
F1
s(g62
S'NDP'
tp66
F4
s(g11
S'PVP'
tp67
F9
s(g31
S'PDP'
tp68
F9
s(g64
S'DDAPP'
tp69
F1
s(g41
S'APNP'
tp70
F3
s(S'NP'
p71
S'ADVADVADVNDP'
tp72
F1
s(S'PP'
S'PPP'
tp73
F3
s(S'CP'
S'CDADVADVPPP'
tp74
F1
s(g14
S'NNVVP'
tp75
F2
s(S'DP'
S'DAVP'
tp76
F1
s(g9
S'PADVMP'
tp77
F1
s(S'PP'
p78
S'PADVPP'
tp79
F1
s(S'CP'
S'CDPP'
tp80
F8
s(S'DP'
p81
S'DADVADVPPP'
tp82
F1
s(g81
S'DDANP'
tp83
F1
s(S'VP'
p84
S'VPP'
tp85
F4
s(g18
S'NACP'
tp86
F1
s(g71
S'NCCP'
tp87
F5
s(g58
S'NNVP'
tp88
F1
s(g18
S'NNCP'
tp89
F2
s(S'VP'
p90
S'VVPP'
tp91
F1
s(S'CP'
S'CCDDP'
tp92
F3
s(g33
S'CDDPP'
tp93
F3
s(g31
S'PVVP'
tp94
F2
s(g25
S'AVNP'
tp95
F1
s(S'VP'
S'VPPP'
tp96
F4
s(S'NP'
S'NADVAP'
tp97
F1
s(S'DP'
S'DADVNP'
tp98
F1
s(S'DP'
p99
S'DAP'
tp100
F1
s(g47
S'VDP'
tp101
F6
s(g99
S'DVVP'
tp102
F1
s(S'MP'
p103
S'ADVMVP'
tp104
F1
s(g9
S'APPP'
tp105
F1
s(g103
S'MVPPP'
tp106
F1
s(g9
S'ADVPPP'
tp107
F1
s(S'AP'
S'ACP'
tp108
F1
s(g7
S'VNNP'
tp109
F1
s(g33
S'CADVDPP'
tp110
F2
s(g25
S'VADVADVADVNP'
tp111
F1
s(g50
S'CCCDP'
tp112
F1
s(g35
S'DDNP'
tp113
F3
s(g18
S'ANCP'
tp114
F3
s(g4
S'ADVDPP'
tp115
F2
s(g23
S'AADP'
tp116
F1
s(g4
S'DDDP'
tp117
F1
s(S'PP'
S'PAP'
tp118
F3
s(g35
S'DDADVPP'
tp119
F1
s(g99
S'DPPPPP'
tp120
F1
s(g7
S'VVDP'
tp121
F1
s(S'AP'
p122
S'ACCP'
tp123
F1
s(g78
S'ADVPDP'
tp124
F1
s(g90
S'ADVVPP'
tp125
F1
s(g62
S'NCP'
tp126
F8
s(g31
S'PPNP'
tp127
F5
s(g122
S'AAPP'
tp128
F1
s(g16
S'APADVADVVP'
tp129
F1
s(S'VP'
S'VVCCP'
tp130
F1
s(g16
S'PCP'
tp131
F1
s(S'NP'
p132
S'NNCCP'
tp133
F1
s(S'MP'
S'MVVDDP'
tp134
F1
s(S'AP'
S'ADP'
tp135
F5
s(S'AP'
S'APP'
tp136
F1
s(g84
S'ADVVDP'
tp137
F1
s(g14
S'NNMP'
tp138
F1
s(g39
S'PAANP'
tp139
F1
s(g16
S'PPVVP'
tp140
F1
s(g20
S'DVP'
tp141
F8
s(g132
S'ADVNPP'
tp142
F1
s(g23
S'AVP'
tp143
F1
s(S'DP'
S'DDPPP'
tp144
F2
s(g18
S'NPP'
tp145
F8
s(g39
S'PPPPNP'
tp146
F1
s(g62
S'NVP'
tp147
F7
s(g47
S'VNP'
tp148
F7
s(S'AP'
S'ADVADP'
tp149
F1
s(g90
S'VDDP'
tp150
F1
s(g37
S'VADVAP'
tp151
F1
s(g20
S'DPP'
tp152
F11
s.