ccollections
defaultdict
p1
(c__builtin__
float
p2
tRp3
(S'AP'
S'AADVPPP'
tp4
F1
s(S'NP'
p5
S'AANDDP'
tp6
F1
s(S'DP'
p7
S'DDMP'
tp8
F1
s(S'DP'
p9
S'ADDPP'
tp10
F7
s(S'PP'
S'AAAPPVP'
tp11
F1
s(S'DP'
S'DDAP'
tp12
F4
s(S'VP'
p13
S'ADVVVNP'
tp14
F5
s(S'VP'
p15
S'VVVVP'
tp16
F1
s(S'DP'
p17
S'DAANNP'
tp18
F1
s(S'NP'
p19
S'NADDP'
tp20
F2
s(S'VP'
S'VVADVVP'
tp21
F1
s(S'PP'
p22
S'PAPP'
tp23
F6
s(S'PP'
S'PADVNP'
tp24
F11
s(S'DP'
p25
S'DNP'
tp26
F244
s(S'NP'
p27
S'ADVNDP'
tp28
F1
s(S'CP'
S'CDPPP'
tp29
F74
s(S'VP'
S'VADP'
tp30
F9
s(S'DP'
p31
S'DNNNNP'
tp32
F5
s(S'NP'
p33
S'ADVNCCP'
tp34
F2
s(S'VP'
p35
S'AAVPPP'
tp36
F1
s(S'PP'
S'PPPPPP'
tp37
F5
s(S'VP'
S'VAVP'
tp38
F3
s(S'VP'
S'ADVADVADVVVPP'
tp39
F1
s(S'DP'
p40
S'DAADP'
tp41
F1
s(S'DP'
S'ADNNP'
tp42
F1
s(g13
S'VADVVVP'
tp43
F1
s(S'VP'
p44
S'VAAAAANP'
tp45
F1
s(S'PP'
S'ADVADVADVADVPPPP'
tp46
F1
s(S'VP'
p47
S'ADVVNP'
tp48
F13
s(S'MP'
p49
S'MVDP'
tp50
F12
s(S'PP'
p51
S'PADVANP'
tp52
F3
s(S'PP'
p53
S'PPPP'
tp54
F46
s(S'DP'
S'DDDNP'
tp55
F7
s(S'PP'
S'ADVAPCP'
tp56
F1
s(S'VP'
p57
S'VACP'
tp58
F3
s(S'DP'
p59
S'DADVVP'
tp60
F10
s(S'DP'
S'DDAANP'
tp61
F1
s(S'PP'
p62
S'PADVNNP'
tp63
F2
s(S'MP'
p64
S'MAVDDP'
tp65
F2
s(S'NP'
p66
S'AANADVADVVVP'
tp67
F1
s(S'NP'
S'NDDDP'
tp68
F2
s(S'NP'
p69
S'NCCCP'
tp70
F4
s(S'CP'
S'CADVDAPP'
tp71
F1
s(S'VP'
S'VCP'
tp72
F91
s(S'NP'
S'NMMP'
tp73
F8
s(S'NP'
S'NANP'
tp74
F1
s(S'VP'
S'ADVVAAP'
tp75
F1
s(S'VP'
S'ADVVCCP'
tp76
F1
s(S'PP'
p77
S'PAP'
tp78
F91
s(S'PP'
S'PPANNP'
tp79
F2
s(S'MP'
S'MMVVP'
tp80
F2
s(S'DP'
p81
S'DDADVADVPP'
tp82
F1
s(g64
S'MVADVNP'
tp83
F1
s(S'NP'
S'NNNAP'
tp84
F3
s(S'PP'
S'PADVADVADVVP'
tp85
F1
s(S'NP'
p86
S'ANPPP'
tp87
F5
s(S'PP'
p88
S'PPADVDP'
tp89
F3
s(S'MP'
S'AMVP'
tp90
F1
s(S'PP'
p91
S'PNP'
tp92
F229
s(S'PP'
p93
S'PAAADP'
tp94
F1
s(S'VP'
p95
S'AVNNNP'
tp96
F1
s(S'NP'
S'NNNCCCCCP'
tp97
F1
s(g31
S'DDP'
tp98
F28
s(S'VP'
S'AAVVVP'
tp99
F2
s(S'NP'
S'NNNPP'
tp100
F3
s(g62
S'PAAP'
tp101
F30
s(S'VP'
S'ADVVVDDP'
tp102
F2
s(S'PP'
p103
S'ADVADVPPDP'
tp104
F1
s(S'DP'
S'DAAAAPP'
tp105
F1
s(S'AP'
S'AANP'
tp106
F1
s(S'CP'
p107
S'CADVDADVAPP'
tp108
F1
s(S'NP'
S'NMP'
tp109
F44
s(S'PP'
p110
S'PPMMP'
tp111
F1
s(g19
S'AAAAANVVP'
tp112
F1
s(S'CP'
S'CADVDADVPP'
tp113
F1
s(S'DP'
S'ADVDPPPP'
tp114
F1
s(S'VP'
S'AAVNP'
tp115
F6
s(S'PP'
p116
S'PDP'
tp117
F196
s(S'DP'
S'DDPPPPP'
tp118
F1
s(S'PP'
p119
S'PPADVVP'
tp120
F3
s(S'NP'
S'ADVNVVP'
tp121
F1
s(S'VP'
S'VNNNNP'
tp122
F1
s(S'VP'
S'VVAAPP'
tp123
F1
s(S'NP'
S'AAANVVP'
tp124
F1
s(S'VP'
S'VVVDDP'
tp125
F1
s(S'DP'
p126
S'ADVDAPPP'
tp127
F1
s(S'DP'
p128
S'ADVDADVAPP'
tp129
F1
s(S'VP'
p130
S'ADVVDDDDP'
tp131
F1
s(S'NP'
S'NNADVADVADVVVP'
tp132
F1
s(S'AP'
S'ANP'
tp133
F2
s(S'PP'
p134
S'ADVPAAP'
tp135
F2
s(S'NP'
p136
S'NADVADVADVVP'
tp137
F1
s(S'PP'
p138
S'PADVPP'
tp139
F3
s(S'VP'
S'AAVPP'
tp140
F1
s(S'CP'
p141
S'CDDAPPP'
tp142
F1
s(S'PP'
p143
S'APPADVADVPP'
tp144
F1
s(S'DP'
p145
S'DDAAPPP'
tp146
F1
s(g119
S'AAPPPP'
tp147
F2
s(S'DP'
p148
S'DPPPP'
tp149
F4
s(S'DP'
S'DDANP'
tp150
F3
s(S'NP'
p151
S'NACP'
tp152
F21
s(S'AP'
S'ADVAVP'
tp153
F1
s(S'NP'
S'NCCP'
tp154
F81
s(S'DP'
p155
S'DADVADVVVP'
tp156
F1
s(S'AP'
p157
S'AAAADP'
tp158
F2
s(S'VP'
S'ADVVAANP'
tp159
F1
s(S'VP'
p160
S'VVVVVP'
tp161
F2
s(S'NP'
p162
S'NNCP'
tp163
F74
s(g59
S'ADVDDPP'
tp164
F5
s(S'NP'
S'NADVADVVP'
tp165
F1
s(S'NP'
S'NNPPPP'
tp166
F2
s(S'DP'
p167
S'DDDDP'
tp168
F2
s(S'DP'
S'DDAPP'
tp169
F3
s(g119
S'PNNNNNP'
tp170
F1
s(S'VP'
p171
S'AVNP'
tp172
F22
s(S'NP'
S'NNNAPP'
tp173
F1
s(S'NP'
S'NADVADVPP'
tp174
F1
s(S'VP'
S'VVNNNP'
tp175
F1
s(g77
S'ADVPVVP'
tp176
F4
s(S'MP'
S'MVVNP'
tp177
F2
s(S'PP'
S'ADVAPDP'
tp178
F1
s(S'VP'
S'AVDDDP'
tp179
F1
s(S'VP'
p180
S'ADVADVAVNP'
tp181
F2
s(S'VP'
p182
S'VADVVP'
tp183
F1
s(S'VP'
p184
S'ADVADVADVVNP'
tp185
F1
s(S'MP'
S'MVPPP'
tp186
F1
s(S'NP'
p187
S'ANADVVP'
tp188
F1
s(S'PP'
S'ADVPAPP'
tp189
F1
s(S'NP'
p190
S'ADVAANNVP'
tp191
F1
s(S'CP'
p192
S'CCCDP'
tp193
F5
s(S'VP'
p194
S'AVNNP'
tp195
F5
s(S'VP'
p196
S'VCCCP'
tp197
F2
s(S'PP'
S'PADVVVP'
tp198
F2
s(S'PP'
p199
S'APDP'
tp200
F17
s(S'CP'
p201
S'ACDDP'
tp202
F1
s(S'NP'
S'AANNCCP'
tp203
F1
s(S'NP'
p204
S'ADVNPPP'
tp205
F2
s(S'VP'
S'VVANP'
tp206
F2
s(S'PP'
S'ADVPNNP'
tp207
F3
s(S'VP'
p208
S'ADVVVP'
tp209
F2
s(S'NP'
S'NAAAAAP'
tp210
F1
s(S'DP'
S'DADVADVADVPP'
tp211
F1
s(S'NP'
p212
S'ADVADVNNPP'
tp213
F1
s(S'DP'
S'DAAP'
tp214
F4
s(g151
S'ADVANCP'
tp215
F3
s(S'DP'
p216
S'DNNP'
tp217
F93
s(S'CP'
p218
S'CADVDDPP'
tp219
F5
s(S'DP'
p220
S'DPPPPP'
tp221
F3
s(g107
S'CDDPPPP'
tp222
F3
s(S'CP'
S'CCADVDP'
tp223
F3
s(S'PP'
S'AAAPPPP'
tp224
F1
s(S'VP'
p225
S'VVACP'
tp226
F2
s(S'VP'
S'ADVVAAVP'
tp227
F1
s(g126
S'ADDNP'
tp228
F2
s(S'NP'
S'NNNVP'
tp229
F8
s(S'PP'
S'AAPPDDP'
tp230
F1
s(S'VP'
S'VADVNNP'
tp231
F4
s(S'PP'
p232
S'AAPPDP'
tp233
F1
s(g53
S'ADVAPVVP'
tp234
F1
s(S'PP'
S'PADVVP'
tp235
F5
s(S'PP'
S'PPPADP'
tp236
F1
s(g77
S'APAP'
tp237
F5
s(S'AP'
S'APP'
tp238
F47
s(S'CP'
S'CADDPPP'
tp239
F3
s(S'CP'
p240
S'CADVADPP'
tp241
F2
s(S'NP'
S'ADVADVNDP'
tp242
F1
s(S'DP'
S'DADVADVNP'
tp243
F2
s(S'NP'
S'NAAACP'
tp244
F2
s(S'DP'
p245
S'DAAVP'
tp246
F5
s(S'NP'
S'ANADVCCP'
tp247
F1
s(S'PP'
S'PAANP'
tp248
F10
s(S'CP'
S'AACCDDP'
tp249
F1
s(g143
S'PPVVP'
tp250
F8
s(S'VP'
S'VAACP'
tp251
F2
s(S'MP'
S'ADVADVMVP'
tp252
F1
s(S'MP'
S'MVNP'
tp253
F20
s(S'NP'
p254
S'ANAAP'
tp255
F1
s(S'AP'
S'ADVAADP'
tp256
F3
s(g88
S'PAVP'
tp257
F17
s(S'CP'
S'CDADVADVPP'
tp258
F1
s(S'NP'
S'NNADVADVANP'
tp259
F1
s(g9
S'DDAPPP'
tp260
F1
s(S'VP'
S'VVVPP'
tp261
F3
s(g162
S'NNADP'
tp262
F1
s(S'AP'
S'ADVACCP'
tp263
F1
s(S'AP'
S'ADVADP'
tp264
F3
s(S'DP'
p265
S'ADVDDP'
tp266
F1
s(S'PP'
p267
S'APDDP'
tp268
F5
s(S'NP'
S'ADVNAP'
tp269
F1
s(g267
S'PPCP'
tp270
F1
s(g62
S'APVP'
tp271
F14
s(g208
S'VVNP'
tp272
F62
s(S'PP'
p273
S'PPPNNP'
tp274
F3
s(S'DP'
p275
S'AADADVADVAPP'
tp276
F1
s(g91
S'PPVP'
tp277
F60
s(S'VP'
S'VADVDP'
tp278
F5
s(S'VP'
S'VVADVAP'
tp279
F1
s(S'VP'
p280
S'VAAP'
tp281
F20
s(S'NP'
S'ANDP'
tp282
F11
s(g162
S'NVVP'
tp283
F65
s(g119
S'AAPVP'
tp284
F5
s(S'AP'
S'AAP'
tp285
F9
s(S'VP'
p286
S'VMP'
tp287
F2
s(S'MP'
S'MCCCDP'
tp288
F1
s(g47
S'VVNNP'
tp289
F9
s(g218
S'CDAPP'
tp290
F31
s(S'VP'
p291
S'VVAAP'
tp292
F4
s(S'VP'
S'VVAPP'
tp293
F2
s(S'DP'
S'ADNP'
tp294
F15
s(S'PP'
S'AAPVVP'
tp295
F1
s(S'DP'
p296
S'ADVDDPPP'
tp297
F2
s(g62
S'PADP'
tp298
F15
s(S'VP'
S'ADVVVCP'
tp299
F1
s(S'AP'
S'AAAACP'
tp300
F1
s(S'NP'
S'ANDDP'
tp301
F1
s(S'DP'
p302
S'DADVAP'
tp303
F2
s(S'AP'
S'AAAAAPP'
tp304
F1
s(g59
S'DAPP'
tp305
F39
s(S'VP'
p306
S'AVVP'
tp307
F1
s(S'VP'
S'VADVADVNNP'
tp308
F2
s(S'NP'
p309
S'NNNADVDDP'
tp310
F1
s(S'VP'
p311
S'VADVAAP'
tp312
F2
s(S'VP'
p313
S'ADVADVVDP'
tp314
F1
s(g35
S'AVVNP'
tp315
F1
s(S'PP'
p316
S'PPPDP'
tp317
F5
s(g9
S'DAAPPP'
tp318
F4
s(g138
S'AAAPDP'
tp319
F2
s(g126
S'DDAAVP'
tp320
F1
s(S'AP'
S'AAPPP'
tp321
F2
s(S'VP'
S'VDDDDP'
tp322
F2
s(S'DP'
S'DAAANP'
tp323
F2
s(g31
S'DADVANP'
tp324
F1
s(S'NP'
p325
S'ANADVVVP'
tp326
F1
s(S'DP'
p327
S'ADVDNP'
tp328
F5
s(S'VP'
p329
S'VVPP'
tp330
F34
s(S'PP'
p331
S'PPADVVVP'
tp332
F1
s(g141
S'AACDDP'
tp333
F2
s(S'MP'
p334
S'MVPP'
tp335
F6
s(g216
S'ADVP'
tp336
F13
s(g17
S'DDAAPP'
tp337
F2
s(S'PP'
p338
S'ADVPPAPP'
tp339
F1
s(S'NP'
p340
S'NNPP'
tp341
F50
s(g5
S'NADVADVPPP'
tp342
F1
s(S'CP'
p343
S'CCCADVDP'
tp344
F1
s(S'DP'
S'DDDDNP'
tp345
F3
s(S'AP'
S'AACP'
tp346
F10
s(g316
S'PPADVAAP'
tp347
F1
s(S'NP'
p348
S'ANVP'
tp349
F21
s(S'DP'
S'DADVADVADVADVPP'
tp350
F1
s(g184
S'VVADVCCP'
tp351
F1
s(S'DP'
p352
S'DNNNP'
tp353
F14
s(S'DP'
S'ADVDADVPP'
tp354
F1
s(S'DP'
p355
S'ADVDDVP'
tp356
F1
s(g134
S'PADVADVVP'
tp357
F2
s(S'NP'
S'AAAANDP'
tp358
F1
s(S'PP'
p359
S'PMMP'
tp360
F1
s(g134
S'PVVVP'
tp361
F5
s(g110
S'PMP'
tp362
F4
s(S'AP'
S'AADVADVMP'
tp363
F1
s(S'CP'
S'CCDP'
tp364
F92
s(g95
S'VADVANP'
tp365
F1
s(g359
S'PPNNNP'
tp366
F1
s(S'CP'
S'CCCCDDDP'
tp367
F1
s(S'DP'
p368
S'AADDPP'
tp369
F2
s(S'DP'
S'ADVDADVNNNP'
tp370
F1
s(g204
S'NVVVP'
tp371
F7
s(S'CP'
p372
S'CDDDPP'
tp373
F6
s(S'CP'
p374
S'CDAAPP'
tp375
F2
s(g286
S'VVVDP'
tp376
F6
s(S'PP'
S'PDDDDP'
tp377
F1
s(S'PP'
S'PNNNP'
tp378
F2
s(S'AP'
S'AACCP'
tp379
F1
s(g93
S'AAPNP'
tp380
F5
s(S'CP'
S'CDADVADVADVADVPP'
tp381
F1
s(g273
S'PPP'
tp382
F129
s(S'NP'
p383
S'NNADVDP'
tp384
F1
s(S'NP'
p385
S'NAVP'
tp386
F20
s(S'PP'
S'PADVAP'
tp387
F4
s(S'DP'
S'DDNNNP'
tp388
F2
s(S'VP'
S'VVVVCCP'
tp389
F1
s(g338
S'PADDP'
tp390
F1
s(S'CP'
S'CADVDPPPP'
tp391
F1
s(S'DP'
S'ADVDVP'
tp392
F6
s(g187
S'NAAAP'
tp393
F1
s(S'NP'
S'NADVVVP'
tp394
F4
s(g316
S'PPPPDP'
tp395
F2
s(g160
S'ADVADVVVPP'
tp396
F1
s(S'VP'
S'VPP'
tp397
F134
s(S'VP'
S'VVVAACCP'
tp398
F1
s(g141
S'ADVCCDP'
tp399
F5
s(S'CP'
S'ACCDP'
tp400
F1
s(S'DP'
S'ADVDDNP'
tp401
F1
s(g254
S'AANPPP'
tp402
F1
s(S'NP'
p403
S'NNNCP'
tp404
F7
s(S'PP'
p405
S'PADVDP'
tp406
F13
s(S'CP'
p407
S'CCCAADP'
tp408
F1
s(S'DP'
S'DANNP'
tp409
F2
s(S'PP'
p410
S'PADVAAP'
tp411
F4
s(S'CP'
p412
S'CDDPP'
tp413
F76
s(g216
S'DAAPP'
tp414
F6
s(S'PP'
S'PVVP'
tp415
F58
s(g407
S'CADPPP'
tp416
F4
s(g327
S'DADVPPP'
tp417
F4
s(g280
S'ADVVCP'
tp418
F5
s(S'VP'
p419
S'VPPP'
tp420
F22
s(S'PP'
S'PPADVADVDP'
tp421
F1
s(S'CP'
S'CDADVADVAPP'
tp422
F1
s(S'VP'
p423
S'VVPPP'
tp424
F8
s(S'VP'
S'ADVVVCCP'
tp425
F1
s(g93
S'PPAP'
tp426
F11
s(S'DP'
p427
S'DVVP'
tp428
F43
s(g192
S'ADVACDDP'
tp429
F1
s(S'NP'
S'ANMP'
tp430
F2
s(S'AP'
S'APPP'
tp431
F6
s(g199
S'ADVPPP'
tp432
F3
s(S'VP'
S'AAAVVP'
tp433
F1
s(g13
S'VVVP'
tp434
F26
s(g412
S'CADVDPP'
tp435
F26
s(S'NP'
S'NNNAAACP'
tp436
F1
s(S'NP'
p437
S'ANCP'
tp438
F27
s(S'DP'
p439
S'DCP'
tp440
F20
s(S'NP'
p441
S'ANNCP'
tp442
F3
s(S'DP'
S'DDDNNP'
tp443
F2
s(g427
S'DADVCP'
tp444
F1
s(S'NP'
S'NNVVVVP'
tp445
F1
s(g216
S'DDDP'
tp446
F10
s(S'PP'
p447
S'APNNNP'
tp448
F1
s(g441
S'ANNVVP'
tp449
F1
s(S'NP'
S'ANVVP'
tp450
F4
s(S'DP'
p451
S'ADDNNP'
tp452
F1
s(S'VP'
S'VVDP'
tp453
F66
s(S'NP'
p454
S'NPPP'
tp455
F40
s(S'DP'
S'ADDDP'
tp456
F2
s(g126
S'AADVVP'
tp457
F2
s(S'DP'
p458
S'DAVP'
tp459
F12
s(S'VP'
S'AVVVP'
tp460
F1
s(S'VP'
S'ADVAVCP'
tp461
F1
s(g157
S'ACP'
tp462
F43
s(S'NP'
p463
S'NDDDDP'
tp464
F1
s(g88
S'PPNP'
tp465
F73
s(S'PP'
S'APPPP'
tp466
F3
s(g275
S'AAADNNP'
tp467
F1
s(g155
S'ADVDAPP'
tp468
F1
s(S'CP'
S'ADVCADVADVDP'
tp469
F1
s(S'DP'
S'AADVP'
tp470
F2
s(g331
S'PPPPDDP'
tp471
F1
s(S'VP'
p472
S'VAANNP'
tp473
F1
s(S'NP'
S'NNACP'
tp474
F1
s(S'CP'
p475
S'CCCDDP'
tp476
F3
s(S'AP'
S'ADP'
tp477
F155
s(S'CP'
p478
S'CADVDDPPP'
tp479
F1
s(g128
S'DDPPPP'
tp480
F7
s(g103
S'APVVP'
tp481
F3
s(g439
S'ADVDAAPP'
tp482
F1
s(S'AP'
S'ADVAADDP'
tp483
F2
s(g81
S'DMP'
tp484
F2
s(S'PP'
S'PPPPNNP'
tp485
F1
s(g306
S'VVPPPP'
tp486
F2
s(S'VP'
S'AAAVDP'
tp487
F4
s(S'AP'
S'AAADP'
tp488
F7
s(S'NP'
S'ANNVP'
tp489
F2
s(g280
S'VVAP'
tp490
F18
s(S'NP'
S'ADVANPPP'
tp491
F1
s(S'VP'
p492
S'AAVCP'
tp493
F1
s(S'NP'
p494
S'NNADVCCP'
tp495
F1
s(S'NP'
S'NADVAPP'
tp496
F1
s(g313
S'ADVADVVAP'
tp497
F2
s(g162
S'NVP'
tp498
F255
s(g311
S'VVNNNNP'
tp499
F1
s(S'PP'
p500
S'AAPPNP'
tp501
F2
s(S'NP'
S'NAAPP'
tp502
F2
s(g143
S'PPPPVP'
tp503
F3
s(S'DP'
S'DDDDNNP'
tp504
F1
s(g171
S'VDDP'
tp505
F52
s(S'DP'
S'AADDDDP'
tp506
F1
s(S'PP'
S'ADVPPVP'
tp507
F1
s(g66
S'AANNVP'
tp508
F1
s(S'NP'
S'AANVVP'
tp509
F3
s(g220
S'DADVAPP'
tp510
F1
s(S'PP'
S'PPPDDP'
tp511
F3
s(g162
S'ANPP'
tp512
F15
s(g338
S'ADVPPDP'
tp513
F1
s(g143
S'PPPPP'
tp514
F10
s(g138
S'ADVADVPDP'
tp515
F3
s(S'MP'
S'MDVVP'
tp516
F1
s(S'MP'
S'MVVPP'
tp517
F1
s(S'NP'
S'NNNCCCCP'
tp518
F1
s(g148
S'ADVDPP'
tp519
F36
s(g145
S'DDDDDP'
tp520
F1
s(S'DP'
S'DDAAAPPP'
tp521
F1
s(g190
S'NPPPP'
tp522
F3
s(g427
S'ADDP'
tp523
F2
s(S'NP'
S'NADVAAP'
tp524
F1
s(S'NP'
p525
S'ADVNADP'
tp526
F1
s(S'MP'
S'MVAADP'
tp527
F1
s(S'CP'
S'CAADPP'
tp528
F2
s(g494
S'NAACP'
tp529
F3
s(S'CP'
S'CDAAAAPP'
tp530
F1
s(g116
S'PNNP'
tp531
F75
s(S'AP'
S'AADVAPP'
tp532
F1
s(g232
S'APNNP'
tp533
F2
s(g31
S'DDAAP'
tp534
F1
s(g419
S'AVAP'
tp535
F3
s(g49
S'MMVP'
tp536
F7
s(g232
S'PADVDDP'
tp537
F2
s(g93
S'ADVADVAPDP'
tp538
F1
s(S'NP'
S'ADVNCP'
tp539
F10
s(S'AP'
S'AADP'
tp540
F47
s(S'CP'
p541
S'ACDP'
tp542
F24
s(g437
S'NNDP'
tp543
F28
s(S'AP'
S'ADVANP'
tp544
F1
s(S'PP'
S'PAAAVP'
tp545
F3
s(g225
S'VVADVNP'
tp546
F2
s(S'CP'
S'CDADVPPP'
tp547
F4
s(S'VP'
S'VAP'
tp548
F132
s(g427
S'DDDPP'
tp549
F12
s(S'NP'
S'AANNCP'
tp550
F1
s(g119
S'PAAPP'
tp551
F5
s(g463
S'NNADVADVAAP'
tp552
F1
s(S'AP'
S'ADVAAPP'
tp553
F2
s(S'AP'
S'AAVVP'
tp554
F1
s(g355
S'DADVDP'
tp555
F3
s(g212
S'ADVADVANCCP'
tp556
F2
s(S'CP'
S'CCADVADP'
tp557
F1
s(S'AP'
S'AAACP'
tp558
F1
s(S'VP'
S'ADVVVDP'
tp559
F1
s(S'AP'
S'AAADVADDP'
tp560
F1
s(S'PP'
p561
S'PPPVP'
tp562
F3
s(S'AP'
S'AADDP'
tp563
F9
s(g194
S'ADVVADDP'
tp564
F1
s(g280
S'VAANP'
tp565
F3
s(g126
S'ADVADVDAAPP'
tp566
F1
s(S'PP'
S'PPPNNNP'
tp567
F1
s(S'MP'
S'MMVVVVP'
tp568
F1
s(S'NP'
S'NVVVVP'
tp569
F2
s(g77
S'PAAAAP'
tp570
F1
s(S'VP'
S'VVAADP'
tp571
F1
s(g334
S'MADP'
tp572
F2
s(S'NP'
S'NNNDDP'
tp573
F1
s(g196
S'ADVADVADVVAP'
tp574
F1
s(S'CP'
S'CCAADP'
tp575
F2
s(S'DP'
S'DDADVNP'
tp576
F1
s(S'PP'
S'PANP'
tp577
F22
s(S'PP'
S'PDDDP'
tp578
F1
s(S'NP'
p579
S'ANNMP'
tp580
F1
s(S'DP'
S'ADVADVDAVP'
tp581
F1
s(g155
S'ADVDDVVP'
tp582
F1
s(g190
S'AANMP'
tp583
F4
s(S'AP'
S'AAVP'
tp584
F4
s(g454
S'NAAP'
tp585
F11
s(g86
S'NDDP'
tp586
F19
s(S'VP'
S'VVAAADP'
tp587
F1
s(S'VP'
S'VVADVDDP'
tp588
F1
s(S'AP'
S'ACCP'
tp589
F6
s(g525
S'ADVADVANCP'
tp590
F1
s(S'AP'
S'APPPP'
tp591
F1
s(S'NP'
S'NDP'
tp592
F116
s(S'MP'
S'MADVVVDDP'
tp593
F1
s(S'NP'
S'NNNNVVP'
tp594
F1
s(S'MP'
S'MVAAP'
tp595
F1
s(g59
S'DDVP'
tp596
F53
s(g441
S'AANVP'
tp597
F4
s(g338
S'APPADVNP'
tp598
F1
s(S'DP'
S'DADVADVAPP'
tp599
F1
s(S'VP'
S'VNNNP'
tp600
F4
s(g53
S'ADVPAP'
tp601
F2
s(g77
S'PCP'
tp602
F12
s(g437
S'NNPPP'
tp603
F11
s(S'PP'
S'PAADDP'
tp604
F1
s(g93
S'PAADP'
tp605
F3
s(g86
S'ADVNNVP'
tp606
F5
s(S'VP'
S'VPPPP'
tp607
F5
s(S'NP'
S'ADVNNPP'
tp608
F1
s(S'VP'
S'VCCP'
tp609
F19
s(S'NP'
S'NNNDP'
tp610
F3
s(g157
S'ADVACP'
tp611
F4
s(g313
S'VVVAP'
tp612
F3
s(g368
S'ADPPP'
tp613
F6
s(S'NP'
S'NNAAVP'
tp614
F1
s(S'MP'
S'MVCP'
tp615
F8
s(S'PP'
S'PPAAANP'
tp616
F1
s(S'CP'
S'CCDDP'
tp617
F29
s(S'NP'
S'NNADVVP'
tp618
F3
s(g49
S'MVMP'
tp619
F1
s(S'DP'
S'AAADNP'
tp620
F1
s(S'PP'
S'PPAAP'
tp621
F4
s(S'NP'
p622
S'NNNNVP'
tp623
F7
s(g291
S'VVCP'
tp624
F17
s(g130
S'VVMP'
tp625
F2
s(S'MP'
S'MVAANP'
tp626
F1
s(g385
S'AANCP'
tp627
F7
s(g180
S'VADVNP'
tp628
F8
s(S'VP'
S'ADVAVAP'
tp629
F1
s(S'VP'
S'AVVPP'
tp630
F2
s(S'PP'
S'APPP'
tp631
F7
s(S'VP'
S'ADVVPP'
tp632
F7
s(S'AP'
S'AAAADDP'
tp633
F1
s(g329
S'VNNP'
tp634
F60
s(S'AP'
S'AADVDP'
tp635
F2
s(S'NP'
p636
S'NADP'
tp637
F5
s(S'PP'
S'AAAPPP'
tp638
F1
s(S'NP'
S'ADVNNNDP'
tp639
F1
s(S'DP'
S'DDNP'
tp640
F68
s(S'CP'
S'ACADVDP'
tp641
F1
s(g385
S'NADVCP'
tp642
F14
s(g128
S'DDNNP'
tp643
F20
s(g405
S'AAPPP'
tp644
F2
s(S'PP'
S'AAAAPVP'
tp645
F2
s(g423
S'VVVVPPP'
tp646
F1
s(S'VP'
S'VPPPPP'
tp647
F1
s(g403
S'ADVANVP'
tp648
F3
s(S'VP'
S'AAVNNP'
tp649
F2
s(S'NP'
S'ADVADVNCP'
tp650
F1
s(g275
S'AADPP'
tp651
F4
s(S'VP'
S'VVVAAP'
tp652
F1
s(S'NP'
S'NNDDP'
tp653
F7
s(g57
S'VVVVCP'
tp654
F1
s(S'DP'
S'DAAAANP'
tp655
F1
s(S'DP'
S'AAADVP'
tp656
F1
s(S'MP'
p657
S'MADVVNP'
tp658
F1
s(S'DP'
S'AADVADDVP'
tp659
F1
s(S'CP'
S'CDPPPPP'
tp660
F1
s(S'DP'
S'ADVADVADADVPPP'
tp661
F1
s(S'DP'
S'AAAADNP'
tp662
F1
s(g254
S'NADVADVCCP'
tp663
F1
s(g245
S'ADVVP'
tp664
F6
s(S'NP'
S'AAANCP'
tp665
F2
s(g128
S'ADVDNNP'
tp666
F2
s(S'PP'
S'ADVPPAVP'
tp667
F1
s(g309
S'ADVADVNNCP'
tp668
F1
s(S'AP'
p669
S'AAPP'
tp670
F5
s(S'VP'
S'VVCCP'
tp671
F4
s(g343
S'CADVADVDAAPP'
tp672
F1
s(S'CP'
S'ADVCAADP'
tp673
F1
s(S'DP'
S'DAAAPP'
tp674
F3
s(g15
S'ADVADVADVVACP'
tp675
F1
s(g500
S'ADVPANP'
tp676
F1
s(S'VP'
p677
S'VVVCCP'
tp678
F1
s(g151
S'NAPP'
tp679
F11
s(g136
S'NADVDP'
tp680
F2
s(S'VP'
S'VVVCP'
tp681
F1
s(S'NP'
S'ANCCP'
tp682
F3
s(S'NP'
S'AANPP'
tp683
F2
s(S'VP'
S'VDDDP'
tp684
F4
s(g204
S'NNMP'
tp685
F9
s(g327
S'DDDVP'
tp686
F3
s(S'NP'
S'NNADVCP'
tp687
F1
s(g141
S'CADDPP'
tp688
F6
s(g677
S'VVADVADVPP'
tp689
F1
s(g116
S'PAAAP'
tp690
F4
s(g410
S'ADVADVPNP'
tp691
F1
s(S'PP'
S'PPPAP'
tp692
F1
s(S'CP'
S'CDDAPP'
tp693
F3
s(S'VP'
S'VVVPPP'
tp694
F1
s(g348
S'ANAP'
tp695
F1
s(g49
S'MVAP'
tp696
F9
s(g116
S'PVP'
tp697
F199
s(S'DP'
S'DADVAVP'
tp698
F1
s(g15
S'VVAAAAP'
tp699
F2
s(g669
S'AADVDDP'
tp700
F1
s(g343
S'CDDAAPP'
tp701
F1
s(g19
S'ADVNAVP'
tp702
F1
s(S'VP'
S'VVVVANP'
tp703
F1
s(g352
S'DVVVP'
tp704
F3
s(g51
S'PPADVPP'
tp705
F3
s(S'NP'
p706
S'ADVADVANVP'
tp707
F1
s(S'PP'
p708
S'PPDDP'
tp709
F8
s(g35
S'AVCP'
tp710
F3
s(g302
S'DDVVVP'
tp711
F3
s(S'NP'
S'NAVVP'
tp712
F1
s(g25
S'DPP'
tp713
F292
s(S'NP'
S'ADVNVP'
tp714
F12
s(g216
S'DDPP'
tp715
F102
s(g143
S'ADVADVPADP'
tp716
F1
s(g216
S'DANP'
tp717
F32
s(g33
S'NADVPP'
tp718
F3
s(g622
S'ANACCP'
tp719
F1
s(g383
S'NNNNNADVACP'
tp720
F1
s(S'PP'
S'PAAAAPP'
tp721
F1
s(S'DP'
p722
S'AADNP'
tp723
F5
s(g171
S'VADVCP'
tp724
F2
s(S'NP'
S'NNNNDDP'
tp725
F1
s(g325
S'NNNNCP'
tp726
F1
s(S'NP'
S'NADVCCP'
tp727
F2
s(S'NP'
S'NNAACP'
tp728
F2
s(g458
S'ADDPPP'
tp729
F3
s(g383
S'AANNDP'
tp730
F1
s(S'NP'
S'ADVNMMP'
tp731
F1
s(S'DP'
S'DCCP'
tp732
F4
s(S'AP'
S'AADDDDP'
tp733
F1
s(g91
S'AAPDP'
tp734
F6
s(g180
S'VVDDP'
tp735
F10
s(g302
S'DDADVNNP'
tp736
F1
s(S'NP'
S'ANADVADVAVP'
tp737
F1
s(S'PP'
S'PDDP'
tp738
F55
s(g103
S'PCCP'
tp739
F1
s(S'PP'
p740
S'ADVAPNP'
tp741
F1
s(g340
S'NNVP'
tp742
F82
s(S'PP'
S'ADVADVADVPNNP'
tp743
F1
s(S'PP'
S'APAAP'
tp744
F1
s(S'VP'
S'AVDP'
tp745
F17
s(S'NP'
S'NNP'
tp746
F5
s(g368
S'ADVADPP'
tp747
F3
s(S'DP'
S'DAANP'
tp748
F8
s(g157
S'ADDP'
tp749
F35
s(S'PP'
S'ADVPPNP'
tp750
F2
s(S'MP'
S'MVVADVCCP'
tp751
F1
s(g372
S'CADVADVDPP'
tp752
F3
s(S'DP'
S'DPPP'
tp753
F97
s(S'CP'
S'CCCCCDP'
tp754
F1
s(S'PP'
S'PADVADVADVADP'
tp755
F1
s(S'DP'
S'DAVVP'
tp756
F1
s(g180
S'VADVADVAVP'
tp757
F1
s(g40
S'AADPPP'
tp758
F2
s(g492
S'VANNP'
tp759
F1
s(S'NP'
S'NNAVP'
tp760
F1
s(g579
S'NNAAPP'
tp761
F2
s(S'AP'
S'AVVP'
tp762
F6
s(g201
S'ADVADVCDDP'
tp763
F1
s(S'PP'
p764
S'ADVPNP'
tp765
F10
s(g160
S'AAAVAP'
tp766
F1
s(g273
S'PPDP'
tp767
F49
s(S'AP'
S'ADVAAPPP'
tp768
F1
s(S'MP'
S'MAVDP'
tp769
F1
s(g579
S'NNNCCP'
tp770
F2
s(S'DP'
S'DDAAAVP'
tp771
F1
s(S'DP'
S'ADVDDNNP'
tp772
F1
s(g155
S'ADVDAAAVP'
tp773
F1
s(g265
S'DDCP'
tp774
F3
s(S'PP'
S'PAANNP'
tp775
F2
s(S'AP'
S'ANNP'
tp776
F1
s(S'AP'
S'ADVADVAADP'
tp777
F1
s(g182
S'ADVVDDP'
tp778
F1
s(g348
S'NAP'
tp779
F56
s(S'DP'
S'ADVADVADVADCP'
tp780
F1
s(S'VP'
S'VAAAP'
tp781
F1
s(g706
S'NAAAPP'
tp782
F1
s(S'VP'
S'ADVAVNP'
tp783
F2
s(g208
S'VVP'
tp784
F62
s(g145
S'DADVNP'
tp785
F12
s(S'PP'
S'ADVADVPVP'
tp786
F1
s(S'PP'
S'PADVADVANP'
tp787
F1
s(g53
S'APNP'
tp788
F15
s(g17
S'DDVVP'
tp789
F10
s(S'AP'
S'AAADDP'
tp790
F1
s(S'VP'
S'VVVNP'
tp791
F2
s(g525
S'NAMP'
tp792
F1
s(S'MP'
S'MVANP'
tp793
F1
s(S'AP'
S'AAADDDP'
tp794
F1
s(S'MP'
S'MVNNP'
tp795
F2
s(S'CP'
S'CDPP'
tp796
F267
s(S'NP'
S'AANNNDP'
tp797
F1
s(S'PP'
S'PAAAADP'
tp798
F1
s(g19
S'NNCCCP'
tp799
F3
s(S'AP'
S'ADDDP'
tp800
F2
s(S'CP'
S'ADVCADP'
tp801
F3
s(S'DP'
S'ADVDVVP'
tp802
F1
s(g541
S'ADVCDP'
tp803
F14
s(S'NP'
p804
S'NNVVP'
tp805
F20
s(g764
S'ADVPPPPP'
tp806
F1
s(S'VP'
S'VADVADVDP'
tp807
F1
s(g62
S'PPNNP'
tp808
F24
s(S'PP'
S'ADVPAVP'
tp809
F1
s(S'PP'
p810
S'PADVCP'
tp811
F1
s(g240
S'CAADDPP'
tp812
F2
s(g427
S'ADVADVDPP'
tp813
F5
s(g329
S'VDP'
tp814
F229
s(S'MP'
S'MVADVNNP'
tp815
F1
s(g69
S'NADVAP'
tp816
F2
s(S'VP'
S'AVDDP'
tp817
F3
s(g44
S'VVDDDP'
tp818
F3
s(S'DP'
S'DAP'
tp819
F23
s(S'CP'
S'CADPP'
tp820
F21
s(S'NP'
S'NADVAVP'
tp821
F3
s(g708
S'PPAVP'
tp822
F2
s(g194
S'AVPP'
tp823
F10
s(S'CP'
S'CAADPPP'
tp824
F1
s(S'DP'
S'DDNNNNP'
tp825
F2
s(S'VP'
S'VVADVDP'
tp826
F2
s(S'CP'
S'CDDAAAPPP'
tp827
F1
s(S'CP'
S'CDDPPPPP'
tp828
F1
s(g412
S'CDPPPP'
tp829
F4
s(g359
S'PPAADP'
tp830
F1
s(g657
S'MVVAAAAP'
tp831
F1
s(S'VP'
S'AAVDP'
tp832
F2
s(S'PP'
S'PANNP'
tp833
F3
s(g22
S'PPADP'
tp834
F2
s(S'DP'
S'DADVADVPP'
tp835
F2
s(g151
S'NNNNDP'
tp836
F1
s(g53
S'PPPNP'
tp837
F6
s(g340
S'NPP'
tp838
F206
s(S'PP'
S'PPPPNP'
tp839
F1
s(g451
S'ADPP'
tp840
F34
s(g447
S'PPAAVP'
tp841
F4
s(S'NP'
S'NADVANP'
tp842
F1
s(g423
S'VADVPP'
tp843
F7
s(g374
S'CDDPPP'
tp844
F16
s(S'DP'
S'ADVDANP'
tp845
F2
s(S'CP'
S'CCADVDDP'
tp846
F1
s(S'PP'
S'PVVVVP'
tp847
F1
s(g764
S'ADVPVP'
tp848
F11
s(g804
S'NNVVVP'
tp849
F2
s(S'VP'
S'VVADVADVCP'
tp850
F1
s(g15
S'ADVADVVAANP'
tp851
F1
s(g93
S'ADVPDP'
tp852
F5
s(S'PP'
S'PAAVP'
tp853
F3
s(g622
S'ANNPP'
tp854
F1
s(g500
S'PPDDDDP'
tp855
F1
s(g340
S'NCP'
tp856
F210
s(g478
S'CADVDPPP'
tp857
F3
s(S'AP'
S'AAAP'
tp858
F3
s(S'CP'
p859
S'CDDADVADVPP'
tp860
F1
s(S'VP'
S'VAADP'
tp861
F3
s(S'AP'
S'AAMP'
tp862
F1
s(g167
S'AADADVPP'
tp863
F2
s(g810
S'PPAPP'
tp864
F1
s(g325
S'AANDP'
tp865
F2
s(g458
S'DADVNNP'
tp866
F1
s(g27
S'NNCCP'
tp867
F18
s(S'CP'
S'ADVADVCCDP'
tp868
F1
s(S'VP'
S'VAPP'
tp869
F6
s(S'NP'
S'NPPPPP'
tp870
F2
s(S'MP'
S'MAVNP'
tp871
F1
s(g561
S'ADVADVAPPPPP'
tp872
F1
s(S'VP'
S'ADVVDP'
tp873
F7
s(S'VP'
S'VAAAVP'
tp874
F1
s(g59
S'DADVPP'
tp875
F22
s(g157
S'AMP'
tp876
F4
s(S'CP'
S'CCADP'
tp877
F3
s(g706
S'ADVNNCP'
tp878
F2
s(S'DP'
S'ADVDAP'
tp879
F2
s(S'MP'
S'MAVVPP'
tp880
F1
s(S'AP'
S'ADVAPP'
tp881
F3
s(S'DP'
S'ADVDAVP'
tp882
F1
s(g475
S'AACDP'
tp883
F4
s(g7
S'AADADVADVADVVP'
tp884
F1
s(g859
S'CCDDDP'
tp885
F3
s(g296
S'ADVDPPP'
tp886
F3
s(g25
S'DVP'
tp887
F188
s(S'VP'
S'ADVVAP'
tp888
F1
s(S'NP'
S'ADVNPP'
tp889
F3
s(S'CP'
S'AAACDP'
tp890
F3
s(g157
S'AVP'
tp891
F26
s(g636
S'NADVVP'
tp892
F10
s(S'CP'
S'CDAAAPP'
tp893
F1
s(g44
S'VVADVPPP'
tp894
F1
s(g216
S'DDPPP'
tp895
F27
s(S'NP'
S'ADVNMP'
tp896
F2
s(g437
S'NNAP'
tp897
F10
s(S'MP'
S'MADVVCP'
tp898
F1
s(g740
S'PPANP'
tp899
F2
s(S'CP'
S'CADVADVADADVPPP'
tp900
F1
s(g218
S'CDADVPP'
tp901
F15
s(S'VP'
S'VNP'
tp902
F213
s(g722
S'DDADVPP'
tp903
F2
s(g208
S'VANP'
tp904
F32
s(g208
S'VADVAP'
tp905
F4
s(S'PP'
S'PPADVNP'
tp906
F1
s(S'PP'
S'APAANNNP'
tp907
F1
s(S'DP'
S'DDDDVP'
tp908
F1
s(g472
S'ADVADVVVDP'
tp909
F1
s.