ccollections
defaultdict
p1
(c__builtin__
float
p2
tRp3
(S'MP'
S'MMDP'
tp4
F1
s(S'DP'
S'ADDPP'
tp5
F1
s(S'DP'
S'DDAP'
tp6
F2
s(S'VP'
p7
S'ADVVVNP'
tp8
F1
s(S'DP'
S'ADVADVDAAAANP'
tp9
F1
s(S'VP'
p10
S'VVVVP'
tp11
F4
s(S'DP'
S'DAANNP'
tp12
F1
s(S'DP'
S'AADADVPPP'
tp13
F1
s(S'PP'
p14
S'PAPP'
tp15
F11
s(S'PP'
S'PADVNP'
tp16
F12
s(S'DP'
p17
S'DNP'
tp18
F210
s(S'VP'
S'VVADVCP'
tp19
F2
s(S'VP'
S'ADVVNNP'
tp20
F2
s(S'CP'
S'CDPPP'
tp21
F68
s(S'VP'
p22
S'VADP'
tp23
F14
s(S'DP'
S'DNNNNP'
tp24
F1
s(S'CP'
S'CDAAPPP'
tp25
F1
s(S'DP'
S'DAAP'
tp26
F2
s(S'PP'
S'PPPPPP'
tp27
F1
s(S'VP'
S'VAVP'
tp28
F4
s(S'CP'
S'CADVADVDPPP'
tp29
F2
s(S'DP'
S'DAADP'
tp30
F1
s(S'DP'
S'ADNNP'
tp31
F3
s(S'VP'
S'ADVVNP'
tp32
F8
s(S'MP'
S'MVDP'
tp33
F8
s(S'PP'
S'PADVANP'
tp34
F2
s(S'PP'
S'AAAPVVVP'
tp35
F1
s(S'PP'
p36
S'PPPP'
tp37
F56
s(S'DP'
S'DDDNP'
tp38
F5
s(S'VP'
p39
S'VACP'
tp40
F2
s(S'AP'
S'AAAVP'
tp41
F2
s(S'PP'
S'PPAAP'
tp42
F2
s(S'MP'
S'MVVPPP'
tp43
F1
s(S'DP'
S'DADVVP'
tp44
F8
s(S'MP'
S'MMCP'
tp45
F1
s(S'PP'
S'PADVNNP'
tp46
F1
s(S'AP'
S'AADVPP'
tp47
F1
s(S'NP'
p48
S'NADVACP'
tp49
F2
s(S'NP'
S'NADVVVP'
tp50
F1
s(S'VP'
S'VCP'
tp51
F120
s(S'MP'
S'MVVANP'
tp52
F1
s(S'NP'
p53
S'NMMP'
tp54
F2
s(S'CP'
p55
S'CAAADPPP'
tp56
F1
s(S'VP'
S'ADVVCCP'
tp57
F1
s(g14
S'PAP'
tp58
F93
s(S'VP'
S'VADVADVAP'
tp59
F2
s(S'NP'
p60
S'ANNCCP'
tp61
F1
s(S'PP'
p62
S'ADVPPVP'
tp63
F2
s(S'NP'
S'NNNAP'
tp64
F2
s(g36
S'APVVP'
tp65
F1
s(S'NP'
S'NNNACP'
tp66
F1
s(S'NP'
S'NAAAVP'
tp67
F1
s(S'PP'
S'PPADVDP'
tp68
F1
s(S'VP'
S'VADVANP'
tp69
F3
s(g14
S'PNP'
tp70
F233
s(S'VP'
p71
S'VVADVADVNP'
tp72
F1
s(S'DP'
p73
S'DDP'
tp74
F51
s(S'NP'
S'NNNPP'
tp75
F1
s(S'VP'
p76
S'VCCP'
tp77
F26
s(S'CP'
S'CADADVPPP'
tp78
F1
s(S'MP'
S'MCDP'
tp79
F2
s(S'CP'
p80
S'AACCDP'
tp81
F1
s(S'DP'
S'DDAANP'
tp82
F2
s(S'DP'
p83
S'DADVDDP'
tp84
F1
s(S'MP'
S'MNAP'
tp85
F1
s(S'VP'
S'ADVADVVVCP'
tp86
F1
s(S'NP'
S'NMP'
tp87
F40
s(S'PP'
p88
S'PPMMP'
tp89
F1
s(S'NP'
S'ADVNAPP'
tp90
F1
s(S'VP'
S'AAVNP'
tp91
F4
s(S'PP'
p92
S'PDP'
tp93
F229
s(S'CP'
S'CCADVADVDP'
tp94
F1
s(S'PP'
p95
S'PPADVVP'
tp96
F4
s(S'NP'
p97
S'ADVNVVP'
tp98
F1
s(S'VP'
S'VVVDDP'
tp99
F2
s(g83
S'ADVDDAPP'
tp100
F1
s(S'CP'
S'CDADVADVPPP'
tp101
F1
s(S'VP'
S'AVAAP'
tp102
F1
s(S'VP'
S'AAAVCP'
tp103
F1
s(g53
S'NACCP'
tp104
F2
s(S'AP'
S'ANP'
tp105
F2
s(S'PP'
p106
S'PADVPP'
tp107
F8
s(g10
S'AAVPP'
tp108
F1
s(S'MP'
S'MMMVVP'
tp109
F1
s(S'PP'
p110
S'AAPPPP'
tp111
F1
s(S'DP'
p112
S'DPPPP'
tp113
F7
s(g17
S'DDANP'
tp114
F4
s(g60
S'NACP'
tp115
F15
s(S'AP'
S'ADVAVP'
tp116
F1
s(S'NP'
p117
S'NCCP'
tp118
F57
s(S'NP'
S'ADVNDP'
tp119
F2
s(S'VP'
S'VANNP'
tp120
F1
s(S'NP'
p121
S'NNCP'
tp122
F69
s(S'DP'
p123
S'ADVDDPP'
tp124
F3
s(S'DP'
p125
S'DDDDP'
tp126
F2
s(S'DP'
p127
S'DDAPP'
tp128
F3
s(S'VP'
S'AVNP'
tp129
F9
s(S'VP'
S'VVADP'
tp130
F2
s(S'PP'
S'ADVPVVP'
tp131
F4
s(S'DP'
S'DDAAANNP'
tp132
F1
s(S'PP'
p133
S'ADVAPDP'
tp134
F3
s(S'VP'
S'VVMP'
tp135
F1
s(S'VP'
S'VADVVP'
tp136
F3
s(S'NP'
S'NAADVACCP'
tp137
F1
s(S'NP'
S'ANADVVP'
tp138
F1
s(S'VP'
S'ADVADVADVADVVAP'
tp139
F1
s(S'AP'
S'AAADVADVVP'
tp140
F1
s(S'MP'
p141
S'MADVVNNP'
tp142
F1
s(S'VP'
S'AVNNP'
tp143
F2
s(S'PP'
S'ADVAPPP'
tp144
F1
s(S'VP'
S'VVADVPP'
tp145
F1
s(S'DP'
S'DDADVADVADVPPP'
tp146
F1
s(S'PP'
S'PADVVVP'
tp147
F1
s(g14
S'APDP'
tp148
F12
s(S'NP'
S'AANNCCP'
tp149
F1
s(S'MP'
S'MMVP'
tp150
F3
s(S'PP'
p151
S'PADVADVADVPP'
tp152
F1
s(S'AP'
p153
S'AADVCP'
tp154
F1
s(S'VP'
S'VVANP'
tp155
F6
s(S'VP'
S'ADVAVPPP'
tp156
F1
s(S'VP'
S'ADVVVP'
tp157
F1
s(g151
S'ADVADVADVPDP'
tp158
F1
s(S'CP'
S'ADVACDP'
tp159
F2
s(S'NP'
S'NNMMMMP'
tp160
F1
s(S'PP'
S'PPADVADVAP'
tp161
F1
s(S'CP'
S'CCCADP'
tp162
F2
s(g121
S'ADVANCP'
tp163
F3
s(S'PP'
p164
S'ADVADVPAVP'
tp165
F1
s(S'DP'
p166
S'DNNP'
tp167
F45
s(S'CP'
S'CADVDDPP'
tp168
F2
s(g73
S'DPPPPP'
tp169
F3
s(S'CP'
S'CDDPPPP'
tp170
F2
s(S'CP'
S'CCADVDP'
tp171
F4
s(S'PP'
S'AAAPPPP'
tp172
F1
s(S'DP'
p173
S'ADDNP'
tp174
F1
s(S'NP'
S'NNNVP'
tp175
F4
s(S'VP'
S'VADVNNP'
tp176
F1
s(S'PP'
S'PADVVP'
tp177
F9
s(S'PP'
S'ADVAPNNP'
tp178
F1
s(S'VP'
p179
S'ADVADVVDDP'
tp180
F1
s(S'AP'
S'APP'
tp181
F27
s(S'CP'
S'CADPPPPP'
tp182
F1
s(S'AP'
S'AAP'
tp183
F7
s(S'CP'
S'CADVADPP'
tp184
F2
s(S'DP'
S'DAAAPP'
tp185
F2
s(S'AP'
p186
S'AAADVDDP'
tp187
F1
s(S'NP'
S'ADVANPP'
tp188
F1
s(S'MP'
S'MVVCP'
tp189
F1
s(S'DP'
S'DAAVP'
tp190
F4
s(S'CP'
S'CDDDDPP'
tp191
F3
s(S'PP'
p192
S'PAANP'
tp193
F8
s(S'VP'
S'VADVADVCP'
tp194
F2
s(S'PP'
S'PPPDDDP'
tp195
F1
s(S'PP'
S'PPVVP'
tp196
F10
s(S'MP'
S'MVNP'
tp197
F12
s(S'DP'
S'ADDDP'
tp198
F2
s(S'CP'
S'CDDDPPP'
tp199
F3
s(S'PP'
p200
S'PAVP'
tp201
F21
s(S'CP'
p202
S'CDADVADVPP'
tp203
F1
s(S'PP'
S'APAP'
tp204
F3
s(S'NP'
p205
S'ANAAAP'
tp206
F1
s(S'VP'
S'VVVPP'
tp207
F1
s(S'CP'
S'CADVADVADPP'
tp208
F1
s(S'MP'
S'MMMMPP'
tp209
F1
s(S'AP'
S'ADVACCP'
tp210
F1
s(S'DP'
S'DADP'
tp211
F3
s(S'VP'
S'VVAANP'
tp212
F1
s(S'AP'
p213
S'ADVADP'
tp214
F5
s(g202
S'ADVADVCDP'
tp215
F1
s(S'VP'
S'ADVVMP'
tp216
F1
s(S'DP'
S'ADVDDP'
tp217
F1
s(g110
S'APDDP'
tp218
F6
s(S'DP'
S'ADVDDDP'
tp219
F2
s(S'DP'
p220
S'DAAAVP'
tp221
F2
s(S'PP'
p222
S'PPCP'
tp223
F2
s(S'PP'
p224
S'APVP'
tp225
F20
s(g202
S'CADVADPPP'
tp226
F1
s(S'VP'
p227
S'VVNP'
tp228
F48
s(S'PP'
S'PPPNNP'
tp229
F1
s(S'PP'
p230
S'PPVP'
tp231
F44
s(S'CP'
p232
S'CADVADVDAAAPP'
tp233
F1
s(S'VP'
p234
S'VADVDP'
tp235
F1
s(g22
S'VAAP'
tp236
F12
s(S'NP'
S'ANDP'
tp237
F6
s(S'NP'
p238
S'NVVP'
tp239
F49
s(S'PP'
p240
S'AAPVP'
tp241
F5
s(S'PP'
S'PPADP'
tp242
F2
s(S'VP'
S'VMP'
tp243
F5
s(S'CP'
S'CDDDPPPP'
tp244
F1
s(S'VP'
p245
S'VVNNP'
tp246
F8
s(g97
S'NNAAVP'
tp247
F1
s(S'VP'
p248
S'VVAAP'
tp249
F2
s(S'DP'
S'ADVADVDDVP'
tp250
F1
s(S'DP'
p251
S'ADNP'
tp252
F16
s(S'VP'
S'ADVADVVNP'
tp253
F2
s(S'PP'
p254
S'PADP'
tp255
F18
s(S'VP'
p256
S'ADVVVCP'
tp257
F1
s(S'DP'
p258
S'DDDPPPP'
tp259
F1
s(S'NP'
p260
S'ADVNADVVP'
tp261
F1
s(S'AP'
S'AAADVADVDP'
tp262
F1
s(S'AP'
S'AAADVAP'
tp263
F1
s(S'DP'
p264
S'ADVADVDVP'
tp265
F3
s(S'NP'
p266
S'ADVADVNCCP'
tp267
F1
s(S'DP'
S'DDADVDP'
tp268
F1
s(S'MP'
S'AMMDP'
tp269
F1
s(g17
S'DAPP'
tp270
F39
s(S'VP'
S'VVVVPP'
tp271
F2
s(S'PP'
S'PPPDP'
tp272
F2
s(S'DP'
S'DAAPPP'
tp273
F1
s(S'CP'
S'CADVADVADDPP'
tp274
F1
s(S'PP'
p275
S'AAAPDP'
tp276
F1
s(S'MP'
p277
S'MVVAP'
tp278
F1
s(S'VP'
p279
S'VDDDDP'
tp280
F1
s(g251
S'DADVANP'
tp281
F1
s(S'DP'
S'ADVDNP'
tp282
F3
s(S'VP'
S'VVPP'
tp283
F31
s(S'VP'
S'VADVAPP'
tp284
F1
s(g230
S'PAVVP'
tp285
F1
s(S'MP'
p286
S'MVPP'
tp287
F4
s(g73
S'ADVP'
tp288
F5
s(S'DP'
S'DDAAPP'
tp289
F1
s(S'PP'
S'PPPAP'
tp290
F1
s(g266
S'NNPP'
tp291
F29
s(g127
S'DDDDNP'
tp292
F1
s(S'MP'
S'MVVDP'
tp293
F2
s(S'DP'
p294
S'DADVPPP'
tp295
F2
s(g266
S'ANVP'
tp296
F15
s(S'DP'
p297
S'DNNNP'
tp298
F7
s(g123
S'ADVDDVP'
tp299
F2
s(S'PP'
S'PADVADVVP'
tp300
F1
s(S'NP'
S'ANAP'
tp301
F1
s(S'PP'
S'PMMP'
tp302
F1
s(S'PP'
S'PVVVP'
tp303
F1
s(S'PP'
p304
S'PMP'
tp305
F10
s(g80
S'CCDP'
tp306
F95
s(S'DP'
S'ADVADVADVDPP'
tp307
F1
s(S'MP'
S'AMVP'
tp308
F2
s(S'PP'
S'PPNNNP'
tp309
F1
s(S'VP'
p310
S'VADVADVANP'
tp311
F2
s(S'NP'
S'NVVVP'
tp312
F3
s(S'CP'
p313
S'CDDDPP'
tp314
F9
s(S'CP'
S'CDAAPP'
tp315
F8
s(S'VP'
S'VVVDP'
tp316
F2
s(S'PP'
S'PDDDDP'
tp317
F2
s(S'PP'
S'PNNNP'
tp318
F7
s(S'PP'
S'AAPNP'
tp319
F1
s(g71
S'ADVVVDP'
tp320
F3
s(g14
S'PPP'
tp321
F136
s(g117
S'NAVP'
tp322
F11
s(S'PP'
p323
S'PADVAP'
tp324
F3
s(S'PP'
S'PADDP'
tp325
F1
s(g304
S'APVVVP'
tp326
F1
s(g251
S'ADVDVP'
tp327
F5
s(S'NP'
S'NCCCP'
tp328
F5
s(S'DP'
S'ADVADVDNNP'
tp329
F1
s(S'AP'
p330
S'AADVVP'
tp331
F1
s(S'DP'
S'ADVADVDNP'
tp332
F1
s(g10
S'VPP'
tp333
F116
s(S'CP'
S'ADVCCDP'
tp334
F2
s(S'NP'
p335
S'NNNADVCP'
tp336
F3
s(S'CP'
S'ACCDP'
tp337
F3
s(S'NP'
p338
S'AANPPP'
tp339
F1
s(S'NP'
S'NNNCP'
tp340
F6
s(g224
S'PADVDP'
tp341
F7
s(S'CP'
S'CDADVAPP'
tp342
F2
s(S'DP'
S'DANNP'
tp343
F1
s(g80
S'CDDPP'
tp344
F79
s(g73
S'DAAPP'
tp345
F11
s(g14
S'PVVP'
tp346
F49
s(S'CP'
S'CADPPP'
tp347
F8
s(g186
S'AACP'
tp348
F11
s(S'VP'
S'ADVVCP'
tp349
F5
s(S'VP'
p350
S'VPPP'
tp351
F19
s(S'VP'
S'ADVADVVVCCP'
tp352
F1
s(S'VP'
S'AVCCP'
tp353
F4
s(S'PP'
S'PPADVADVDP'
tp354
F1
s(S'VP'
p355
S'VVPPP'
tp356
F2
s(g227
S'ADVVVCCP'
tp357
F1
s(S'PP'
S'PPAP'
tp358
F21
s(g17
S'DVVP'
tp359
F40
s(S'PP'
S'PADVAVP'
tp360
F1
s(S'PP'
S'ADVADVADVPPPP'
tp361
F1
s(S'NP'
p362
S'ANMP'
tp363
F3
s(S'AP'
S'APPP'
tp364
F3
s(S'PP'
S'ADVPPP'
tp365
F7
s(S'DP'
S'ADVADPPP'
tp366
F1
s(S'VP'
p367
S'AAAVVP'
tp368
F1
s(g310
S'VVVP'
tp369
F8
s(g232
S'CADVDPP'
tp370
F9
s(g117
S'ANCP'
tp371
F51
s(S'DP'
p372
S'DCP'
tp373
F15
s(S'NP'
S'ANNCP'
tp374
F1
s(S'VP'
p375
S'VVADVADP'
tp376
F1
s(S'AP'
S'AAAPP'
tp377
F1
s(S'DP'
p378
S'DAAVVP'
tp379
F1
s(S'PP'
S'PPADVPP'
tp380
F1
s(g362
S'NNVVVVP'
tp381
F1
s(g297
S'DDDP'
tp382
F20
s(S'DP'
S'DDADVPP'
tp383
F1
s(S'NP'
S'ANVVP'
tp384
F5
s(S'NP'
S'NVVVVP'
tp385
F3
s(S'NP'
S'NPPP'
tp386
F24
s(g92
S'PPAPP'
tp387
F1
s(S'VP'
S'ADVVNNNP'
tp388
F1
s(S'DP'
S'AADVVP'
tp389
F2
s(S'MP'
S'AMVVP'
tp390
F1
s(g73
S'DAVP'
tp391
F11
s(S'CP'
S'CDDADVADVADVPPP'
tp392
F1
s(g213
S'ACP'
tp393
F48
s(g275
S'PAAAPP'
tp394
F1
s(g224
S'PPNP'
tp395
F74
s(S'NP'
p396
S'ADVADVNVP'
tp397
F2
s(S'DP'
S'DADVADVPPP'
tp398
F1
s(S'MP'
S'MADVVPP'
tp399
F2
s(g60
S'ADVADVANPP'
tp400
F1
s(g297
S'ADVDAPP'
tp401
F1
s(S'DP'
S'AADVP'
tp402
F1
s(g222
S'PPPPDDP'
tp403
F1
s(S'VP'
p404
S'VVVVNNP'
tp405
F1
s(S'CP'
S'CDDADVPP'
tp406
F1
s(S'CP'
S'CCCDDP'
tp407
F2
s(S'AP'
S'ADP'
tp408
F155
s(S'PP'
p409
S'ADVPPDDP'
tp410
F1
s(S'NP'
S'NAMMP'
tp411
F1
s(S'PP'
S'APMP'
tp412
F1
s(S'DP'
S'DDPPPP'
tp413
F4
s(S'NP'
p414
S'ANPPP'
tp415
F3
s(S'DP'
p416
S'ADVDAAPP'
tp417
F1
s(S'VP'
S'VADVADVANNP'
tp418
F1
s(S'VP'
S'VVPPPP'
tp419
F1
s(S'AP'
S'AAADP'
tp420
F6
s(g10
S'VVAP'
tp421
F13
s(S'CP'
S'CDDDAPP'
tp422
F1
s(S'PP'
S'PADVADVDP'
tp423
F5
s(S'VP'
S'AAVCP'
tp424
F3
s(S'NP'
S'NNADVCCP'
tp425
F1
s(g205
S'NPP'
tp426
F157
s(g179
S'ADVADVVAP'
tp427
F1
s(g117
S'NVP'
tp428
F223
s(S'PP'
S'PPVVVP'
tp429
F1
s(S'PP'
S'PAAVP'
tp430
F6
s(S'NP'
p431
S'NAAPP'
tp432
F2
s(g22
S'VDDP'
tp433
F44
s(S'NP'
p434
S'ADVNPPP'
tp435
F1
s(S'AP'
S'AAADVDP'
tp436
F1
s(S'NP'
S'AANVVP'
tp437
F2
s(S'DP'
S'DADVAPP'
tp438
F3
s(S'NP'
S'NADVADVVVP'
tp439
F3
s(g117
S'ANPP'
tp440
F15
s(S'PP'
p441
S'PPPPP'
tp442
F5
s(S'MP'
S'MVVPP'
tp443
F1
s(g441
S'PPPNP'
tp444
F5
s(S'VP'
S'VVAAPP'
tp445
F1
s(S'PP'
S'PPVVVVP'
tp446
F1
s(S'NP'
S'NPPPP'
tp447
F2
s(S'DP'
p448
S'ADDP'
tp449
F3
s(g80
S'CAADPP'
tp450
F5
s(S'DP'
S'DADVADVVP'
tp451
F1
s(S'NP'
p452
S'NAACP'
tp453
F3
s(g323
S'PNNP'
tp454
F66
s(S'PP'
S'APNNP'
tp455
F4
s(g112
S'DDAAP'
tp456
F2
s(S'MP'
S'MMNP'
tp457
F1
s(S'PP'
S'AAPCP'
tp458
F1
s(S'DP'
S'AAADPP'
tp459
F1
s(S'PP'
p460
S'AAPPPPP'
tp461
F1
s(g248
S'AVAP'
tp462
F2
s(g121
S'NNAMP'
tp463
F2
s(S'PP'
S'PADVDDP'
tp464
F2
s(S'NP'
p465
S'ADVNCP'
tp466
F7
s(S'AP'
p467
S'AADP'
tp468
F32
s(S'NP'
S'ADVANCCCP'
tp469
F1
s(S'CP'
p470
S'ACDP'
tp471
F24
s(g224
S'PAAP'
tp472
F18
s(S'AP'
S'ADVANP'
tp473
F1
s(S'NP'
S'NNACP'
tp474
F4
s(S'DP'
p475
S'AAADPPP'
tp476
F1
s(g310
S'VAP'
tp477
F107
s(g350
S'VVVVNP'
tp478
F1
s(S'PP'
S'PADVAMP'
tp479
F1
s(S'DP'
S'DDDPP'
tp480
F14
s(S'CP'
S'ADVCDDP'
tp481
F6
s(g240
S'PAAPP'
tp482
F1
s(S'AP'
S'ADVAAADP'
tp483
F1
s(S'DP'
S'DDDPPP'
tp484
F4
s(S'VP'
S'ADVAVDP'
tp485
F1
s(S'DP'
S'DADVDP'
tp486
F2
s(g452
S'ADVADVANCCP'
tp487
F1
s(S'VP'
S'VVADVADVCCP'
tp488
F1
s(S'AP'
S'AVVP'
tp489
F5
s(g192
S'PPPVP'
tp490
F2
s(S'AP'
S'AADDP'
tp491
F4
s(S'VP'
S'VAANP'
tp492
F3
s(S'NP'
S'NADVADVCP'
tp493
F1
s(S'CP'
S'CCAAADP'
tp494
F1
s(S'PP'
S'ADVPNNP'
tp495
F1
s(S'VP'
p496
S'VVDP'
tp497
F43
s(S'DP'
S'ADPPPPP'
tp498
F1
s(S'MP'
S'MAANPPP'
tp499
F1
s(g286
S'MPNP'
tp500
F3
s(S'VP'
S'VVAADP'
tp501
F1
s(S'MP'
S'MADP'
tp502
F3
s(S'PP'
S'PPPDDP'
tp503
F2
s(g153
S'AMMP'
tp504
F1
s(S'CP'
S'CCAADP'
tp505
F4
s(S'DP'
S'DDADVNP'
tp506
F2
s(S'PP'
p507
S'PANP'
tp508
F27
s(S'DP'
S'AADNP'
tp509
F2
s(g431
S'ANNMP'
tp510
F1
s(S'NP'
S'NADVDDP'
tp511
F1
s(S'DP'
S'ADVADPP'
tp512
F2
s(g36
S'AAPAAP'
tp513
F1
s(S'NP'
S'AANMP'
tp514
F1
s(S'AP'
S'AAVP'
tp515
F7
s(S'NP'
S'NAAP'
tp516
F8
s(S'NP'
S'NDDP'
tp517
F10
s(S'AP'
S'ACCP'
tp518
F9
s(S'DP'
S'ADAAP'
tp519
F1
s(S'VP'
S'AVPPP'
tp520
F1
s(g117
S'NDP'
tp521
F52
s(S'PP'
S'PADVADVADVNP'
tp522
F1
s(S'MP'
S'ADVAMVVP'
tp523
F1
s(S'MP'
S'MVAAP'
tp524
F1
s(g166
S'DDVP'
tp525
F38
s(S'DP'
S'ADADVPPP'
tp526
F1
s(S'NP'
S'AANVP'
tp527
F7
s(S'DP'
S'ADDVP'
tp528
F1
s(S'VP'
p529
S'VNNNP'
tp530
F3
s(S'DP'
S'AAADAP'
tp531
F1
s(g529
S'VADVADVPP'
tp532
F1
s(S'PP'
S'PPPPVVP'
tp533
F1
s(g230
S'PCP'
tp534
F9
s(S'NP'
S'NNPPP'
tp535
F3
s(g496
S'VAACCP'
tp536
F1
s(S'PP'
S'PAADP'
tp537
F3
s(S'NP'
S'ADVNNVP'
tp538
F1
s(g141
S'MDNP'
tp539
F1
s(S'VP'
p540
S'VPPPP'
tp541
F1
s(S'NP'
S'ANNPP'
tp542
F1
s(S'NP'
S'NNNDP'
tp543
F1
s(S'AP'
S'ADVACP'
tp544
F5
s(S'PP'
S'AAPNNP'
tp545
F1
s(g264
S'DDADVVP'
tp546
F2
s(g60
S'NNVP'
tp547
F35
s(S'CP'
S'CDAPP'
tp548
F28
s(S'MP'
S'MVCP'
tp549
F3
s(S'CP'
S'CCDDP'
tp550
F27
s(S'NP'
S'NNADVVP'
tp551
F2
s(S'VP'
S'ADVADVADVVPP'
tp552
F2
s(S'DP'
S'DADVNP'
tp553
F5
s(S'NP'
S'NNNNVP'
tp554
F1
s(g367
S'VVCP'
tp555
F13
s(g164
S'PADVADVPP'
tp556
F1
s(S'NP'
p557
S'AANCP'
tp558
F7
s(g10
S'VDP'
tp559
F189
s(S'VP'
S'AAAAVCP'
tp560
F1
s(g279
S'AVVPP'
tp561
F1
s(S'NP'
p562
S'NNDDP'
tp563
F2
s(g76
S'ADVVPP'
tp564
F9
s(g125
S'ADVADVADVDCP'
tp565
F1
s(S'CP'
S'CDAPPP'
tp566
F1
s(S'VP'
p567
S'VNNP'
tp568
F36
s(S'AP'
S'AADVDP'
tp569
F1
s(S'NP'
p570
S'NADP'
tp571
F3
s(g220
S'DDNP'
tp572
F39
s(S'NP'
p573
S'NADVCP'
tp574
F10
s(g123
S'DDNNP'
tp575
F13
s(g192
S'AAPPP'
tp576
F3
s(S'NP'
S'ADVANVP'
tp577
F1
s(S'CP'
S'ADVADVCCDDP'
tp578
F1
s(S'NP'
S'ADVADVNCP'
tp579
F2
s(S'NP'
S'ADVADVADVNVP'
tp580
F1
s(g17
S'AADPP'
tp581
F11
s(S'VP'
S'VVVVCP'
tp582
F1
s(g540
S'VVMMP'
tp583
F1
s(S'PP'
p584
S'AAPDP'
tp585
F2
s(S'NP'
S'ANVVVP'
tp586
F1
s(S'MP'
S'MVVNP'
tp587
F1
s(S'CP'
S'CDDADVPPP'
tp588
F2
s(g232
S'CAAADDPP'
tp589
F1
s(S'DP'
p590
S'ADVDNNP'
tp591
F1
s(S'CP'
S'ACDDP'
tp592
F2
s(S'AP'
S'AADVADVDDP'
tp593
F1
s(S'AP'
S'AAPP'
tp594
F5
s(S'VP'
S'VVCCP'
tp595
F13
s(S'NP'
S'NADVADVADVADVVP'
tp596
F1
s(S'PP'
S'ADVADVPAADP'
tp597
F1
s(S'DP'
S'DADVVVP'
tp598
F4
s(S'DP'
S'DADVADVNP'
tp599
F2
s(S'NP'
S'ANNADVVP'
tp600
F1
s(S'VP'
S'ADVADVADVADVVCP'
tp601
F1
s(g465
S'NAPP'
tp602
F6
s(S'PP'
p603
S'APPVP'
tp604
F1
s(g330
S'ADVADVADP'
tp605
F2
s(S'NP'
p606
S'NNACCP'
tp607
F1
s(S'VP'
S'VVVCP'
tp608
F4
s(g133
S'PADVAPP'
tp609
F1
s(S'NP'
S'ANCCP'
tp610
F8
s(g362
S'AANPP'
tp611
F1
s(S'DP'
p612
S'AAAADPPP'
tp613
F1
s(g557
S'NNMP'
tp614
F5
s(S'DP'
S'DDDVP'
tp615
F2
s(g396
S'NNADVCP'
tp616
F3
s(S'CP'
S'CADDPP'
tp617
F1
s(S'PP'
S'PAAAP'
tp618
F1
s(g584
S'ADVADVPNP'
tp619
F2
s(S'MP'
S'MDANP'
tp620
F2
s(S'NP'
S'ADVANVVP'
tp621
F2
s(S'AP'
S'AADVADVADVDDP'
tp622
F1
s(S'MP'
S'MVAP'
tp623
F8
s(g14
S'PVP'
tp624
F222
s(S'MP'
S'MVDDDP'
tp625
F1
s(S'DP'
S'DDADVAVP'
tp626
F1
s(S'AP'
S'ADVADVAPP'
tp627
F2
s(S'VP'
S'VVVVDP'
tp628
F1
s(S'DP'
S'ADVADVADDPP'
tp629
F1
s(S'AP'
S'AADVDDP'
tp630
F1
s(S'DP'
S'DVVVP'
tp631
F2
s(g173
S'AADDNNP'
tp632
F1
s(S'AP'
S'AAAADVVP'
tp633
F1
s(S'DP'
S'ADVADVADVDNP'
tp634
F1
s(S'NP'
S'ADVNACP'
tp635
F2
s(g304
S'PPDDP'
tp636
F11
s(S'VP'
S'AVCP'
tp637
F4
s(g17
S'DPP'
tp638
F319
s(S'DP'
p639
S'ADVVP'
tp640
F3
s(S'NP'
S'ADVNVP'
tp641
F6
s(g17
S'DDPP'
tp642
F129
s(S'DP'
S'DDADVPPP'
tp643
F2
s(g378
S'DDAVP'
tp644
F1
s(S'DP'
p645
S'DANP'
tp646
F46
s(g110
S'PADVADVADVADVVP'
tp647
F1
s(g434
S'NAAVP'
tp648
F1
s(S'DP'
S'ADVADVADPP'
tp649
F1
s(S'PP'
S'PDDDP'
tp650
F5
s(S'CP'
S'CADVADVADVDPP'
tp651
F1
s(S'DP'
S'ADVADVDPPP'
tp652
F2
s(S'AP'
S'ADVADVACP'
tp653
F1
s(g414
S'AAANNVVP'
tp654
F1
s(g256
S'ADVVADVCP'
tp655
F1
s(g434
S'NNNNCP'
tp656
F2
s(S'VP'
S'ADVVAADP'
tp657
F1
s(S'NP'
S'NADVCCP'
tp658
F1
s(S'NP'
S'NNAACP'
tp659
F1
s(S'NP'
S'NNNVVP'
tp660
F1
s(g62
S'PADVPPP'
tp661
F2
s(S'NP'
p662
S'NAAADP'
tp663
F1
s(S'CP'
S'CDPPPPP'
tp664
F2
s(S'MP'
S'MADVVDP'
tp665
F3
s(S'DP'
S'DADVAP'
tp666
F1
s(g14
S'PDDP'
tp667
F41
s(S'MP'
S'MVDDP'
tp668
F2
s(S'PP'
p669
S'ADVAPNP'
tp670
F1
s(S'NP'
S'AAAANCP'
tp671
F1
s(g645
S'ADPPP'
tp672
F10
s(S'PP'
S'PADVADVADVDP'
tp673
F1
s(g507
S'AAAPDDP'
tp674
F1
s(S'PP'
S'APAAP'
tp675
F2
s(g310
S'AVDP'
tp676
F19
s(g48
S'NNP'
tp677
F1
s(S'VP'
S'VVDDP'
tp678
F7
s(g71
S'VAADDP'
tp679
F1
s(S'DP'
S'DAANP'
tp680
F6
s(S'NP'
S'NAAAAVP'
tp681
F1
s(S'AP'
S'ADDP'
tp682
F26
s(S'PP'
S'PNNNNP'
tp683
F1
s(g222
S'ADVPPNP'
tp684
F6
s(g277
S'MDAP'
tp685
F1
s(S'CP'
S'CADVADVDPP'
tp686
F2
s(S'DP'
S'DPPP'
tp687
F107
s(S'DP'
S'AADPPP'
tp688
F3
s(S'PP'
S'ADVADVPPNP'
tp689
F1
s(g260
S'NNAVP'
tp690
F2
s(S'NP'
S'NMMMP'
tp691
F1
s(g409
S'PPPANP'
tp692
F1
s(g238
S'NNNADVVVP'
tp693
F1
s(S'PP'
S'ADVPNP'
tp694
F8
s(g224
S'PPDP'
tp695
F68
s(S'PP'
S'APPPP'
tp696
F1
s(S'DP'
S'DADVADVCP'
tp697
F1
s(g573
S'ADVADVANNADVCP'
tp698
F1
s(g294
S'DDCP'
tp699
F1
s(g55
S'CADADVADVPP'
tp700
F1
s(g39
S'ADVVAP'
tp701
F5
s(S'AP'
S'ANNP'
tp702
F1
s(g570
S'NAP'
tp703
F45
s(S'NP'
S'NNAAP'
tp704
F2
s(g416
S'AADDP'
tp705
F1
s(S'VP'
S'VAAAP'
tp706
F6
s(S'VP'
S'AAVADVNP'
tp707
F1
s(g10
S'VVP'
tp708
F41
s(g335
S'NNVVP'
tp709
F5
s(g460
S'ADVADVPVP'
tp710
F3
s(g95
S'APNP'
tp711
F9
s(S'DP'
S'DDDAPP'
tp712
F1
s(S'DP'
p713
S'DDVVP'
tp714
F5
s(g153
S'AAADDP'
tp715
F2
s(S'VP'
S'VVVNP'
tp716
F3
s(S'MP'
S'MNPP'
tp717
F1
s(S'NP'
S'NAMP'
tp718
F1
s(S'MP'
S'MVANP'
tp719
F1
s(S'AP'
S'AAADDDP'
tp720
F1
s(S'MP'
S'MVNNP'
tp721
F1
s(g313
S'CDPP'
tp722
F281
s(S'CP'
p723
S'ADVCADP'
tp724
F4
s(g606
S'NNDP'
tp725
F10
s(g475
S'ADADVADVPP'
tp726
F1
s(g234
S'VDDDP'
tp727
F2
s(g723
S'ADVCDP'
tp728
F10
s(g254
S'AAPVVP'
tp729
F2
s(g36
S'PPPPAP'
tp730
F1
s(g713
S'AAADDPP'
tp731
F1
s(g612
S'DAAAADP'
tp732
F1
s(g7
S'ADVADVVCP'
tp733
F1
s(S'VP'
S'VADVADVDP'
tp734
F1
s(S'PP'
S'PPNNP'
tp735
F13
s(S'NP'
S'NNADVADVVP'
tp736
F1
s(g669
S'ADVPAVP'
tp737
F1
s(S'PP'
S'PPMP'
tp738
F2
s(S'DP'
S'ADVADVDPP'
tp739
F5
s(g10
S'VADVNP'
tp740
F7
s(S'PP'
S'PPPADVNP'
tp741
F1
s(S'NP'
S'NADVAP'
tp742
F1
s(g496
S'AVDDP'
tp743
F5
s(S'CP'
S'ADVADVCDDP'
tp744
F3
s(g166
S'DDCCP'
tp745
F1
s(g251
S'DAP'
tp746
F22
s(S'CP'
S'CADPP'
tp747
F23
s(S'PP'
S'PPAVP'
tp748
F1
s(S'PP'
S'PPDDDP'
tp749
F2
s(g567
S'AVPP'
tp750
F6
s(S'CP'
S'CAADPPP'
tp751
F2
s(g639
S'DDNNNNP'
tp752
F1
s(S'VP'
S'VVADVDP'
tp753
F1
s(S'CP'
S'AACDDP'
tp754
F1
s(S'CP'
S'CDPPPP'
tp755
F4
s(S'VP'
S'AAVDP'
tp756
F4
s(S'DP'
S'AADNNP'
tp757
F1
s(g36
S'PANNP'
tp758
F3
s(g404
S'ADVADVADVADVVPP'
tp759
F1
s(g14
S'APPP'
tp760
F11
s(S'DP'
S'DAPPP'
tp761
F2
s(g590
S'DADVADVPP'
tp762
F4
s(S'DP'
S'DMP'
tp763
F4
s(g713
S'ADVDPP'
tp764
F13
s(S'NP'
S'NADVAPP'
tp765
F1
s(S'PP'
S'PPAANP'
tp766
F1
s(g662
S'ADVANCCP'
tp767
F1
s(g200
S'PADVADVNP'
tp768
F2
s(g166
S'ADPP'
tp769
F40
s(S'NP'
S'NADVANP'
tp770
F1
s(g470
S'CDDPPP'
tp771
F21
s(g110
S'PVVVVP'
tp772
F1
s(g106
S'ADVPVP'
tp773
F6
s(g448
S'DDDDPP'
tp774
F4
s(S'AP'
S'AADVAVP'
tp775
F1
s(g562
S'NNVVVP'
tp776
F1
s(S'VP'
S'ADVVANP'
tp777
F2
s(S'PP'
S'ADVPDP'
tp778
F4
s(g460
S'PPPVVP'
tp779
F3
s(g117
S'NCP'
tp780
F234
s(S'CP'
S'CADVDPPP'
tp781
F1
s(S'VP'
S'ADVVVPP'
tp782
F1
s(g603
S'PPADVNNP'
tp783
F1
s(g713
S'ADVADVDAAAPP'
tp784
F1
s(S'AP'
S'AAAP'
tp785
F2
s(S'VP'
S'VAADP'
tp786
F2
s(g245
S'VADVADVADVDP'
tp787
F1
s(S'PP'
S'PPAAAP'
tp788
F1
s(g88
S'ADVPDDP'
tp789
F1
s(S'VP'
S'AAVVDP'
tp790
F1
s(S'NP'
S'AANDP'
tp791
F2
s(S'MP'
S'MVCCP'
tp792
F2
s(g121
S'NNCCP'
tp793
F17
s(S'MP'
S'MNVP'
tp794
F7
s(S'NP'
S'AANAP'
tp795
F1
s(S'NP'
S'AANCCP'
tp796
F1
s(S'PP'
S'PADVADVAP'
tp797
F1
s(g367
S'VAPP'
tp798
F3
s(S'VP'
S'VVAAACP'
tp799
F1
s(g10
S'ADVVDP'
tp800
F9
s(g71
S'VADDP'
tp801
F1
s(S'DP'
S'DADVPP'
tp802
F19
s(S'AP'
S'AMP'
tp803
F1
s(S'CP'
S'CCADP'
tp804
F2
s(g338
S'ADVNNCP'
tp805
F2
s(S'AP'
S'ADVAPP'
tp806
F3
s(S'CP'
p807
S'AACDP'
tp808
F3
s(S'NP'
S'NNNCCP'
tp809
F2
s(S'CP'
S'CCDDDP'
tp810
F2
s(S'CP'
S'CCCDP'
tp811
F3
s(S'DP'
S'ADVDPPP'
tp812
F4
s(g645
S'DVP'
tp813
F185
s(S'DP'
S'ADVADVADVDDVP'
tp814
F1
s(S'NP'
S'ADVNPP'
tp815
F4
s(S'CP'
S'AAACDP'
tp816
F1
s(g467
S'AVP'
tp817
F25
s(S'NP'
S'NADVVP'
tp818
F4
s(g807
S'CDAAAPP'
tp819
F2
s(S'VP'
S'VCCCP'
tp820
F1
s(g355
S'VVADVPPP'
tp821
F1
s(g297
S'DDPPP'
tp822
F36
s(S'NP'
S'ADVNMP'
tp823
F2
s(S'NP'
S'NNAP'
tp824
F7
s(S'CP'
S'AADVACCDP'
tp825
F1
s(g200
S'PPANP'
tp826
F2
s(S'VP'
S'AAAVNP'
tp827
F1
s(S'CP'
S'CDADVPP'
tp828
F17
s(g496
S'VNP'
tp829
F171
s(S'VP'
S'VANP'
tp830
F20
s(g375
S'VADVAP'
tp831
F11
s(g372
S'DDDANP'
tp832
F1
s(S'VP'
S'VVVAP'
tp833
F1
s(g258
S'DDDDVP'
tp834
F1
s(S'VP'
S'ADVADVVVDP'
tp835
F1
s.