ccollections
defaultdict
p1
(c__builtin__
float
p2
tRp3
(S'DP'
p4
S'DDPP'
tp5
F7
s(S'DP'
p6
S'DANP'
tp7
F3
s(S'NP'
p8
S'ANPP'
tp9
F2
s(S'PP'
p10
S'PPPPP'
tp11
F1
s(S'DP'
p12
S'DPPPP'
tp13
F1
s(S'MP'
S'MMAP'
tp14
F1
s(S'PP'
p15
S'PPVP'
tp16
F1
s(S'AP'
p17
S'AADDDP'
tp18
F1
s(S'PP'
p19
S'PDDDP'
tp20
F2
s(S'VP'
p21
S'VAAP'
tp22
F3
s(g19
S'PAPP'
tp23
F1
s(S'NP'
p24
S'ANDP'
tp25
F2
s(S'NP'
S'NVVP'
tp26
F3
s(g4
S'DNP'
tp27
F15
s(g19
S'PNNP'
tp28
F8
s(S'NP'
p29
S'ADVNDP'
tp30
F1
s(S'VP'
p31
S'VVAAP'
tp32
F1
s(g29
S'NNNVVP'
tp33
F1
s(S'CP'
p34
S'CDPPP'
tp35
F3
s(g29
S'NNNAVP'
tp36
F1
s(S'DP'
p37
S'ADNP'
tp38
F1
s(S'MP'
S'MMAVP'
tp39
F1
s(S'VP'
p40
S'AVAP'
tp41
F1
s(S'VP'
p42
S'VADP'
tp43
F1
s(S'DP'
S'DAAP'
tp44
F1
s(S'DP'
p45
S'ADPP'
tp46
F4
s(S'PP'
p47
S'PPPPPP'
tp48
F1
s(S'PP'
p49
S'PDDP'
tp50
F2
s(S'NP'
p51
S'NAPPP'
tp52
F1
s(S'CP'
p53
S'ACDP'
tp54
F2
s(S'NP'
p55
S'NNDP'
tp56
F1
s(S'DP'
p57
S'ADPPP'
tp58
F1
s(S'NP'
S'NNACP'
tp59
F1
s(g45
S'DAPP'
tp60
F2
s(S'CP'
S'CDADVPPP'
tp61
F1
s(g21
S'VAP'
tp62
F8
s(S'DP'
p63
S'DDDPP'
tp64
F1
s(g49
S'PPPP'
tp65
F2
s(S'NP'
p66
S'NNP'
tp67
F1
s(S'AP'
S'ADDP'
tp68
F5
s(S'VP'
p69
S'ADVADVVVAP'
tp70
F1
s(S'DP'
p71
S'DDDPPP'
tp72
F1
s(g51
S'NNPPP'
tp73
F2
s(S'NP'
S'NADVADVVP'
tp74
F1
s(S'PP'
p75
S'ADVPPNP'
tp76
F1
s(S'DP'
p77
S'DADVADVADVAPP'
tp78
F1
s(g6
S'DADVANP'
tp79
F1
s(S'AP'
p80
S'AVVP'
tp81
F1
s(g6
S'DPPP'
tp82
F8
s(S'DP'
p83
S'ADVDNP'
tp84
F3
s(S'NP'
S'NCCCP'
tp85
F1
s(S'AP'
S'AADDP'
tp86
F1
s(S'VP'
p87
S'VADVAPP'
tp88
F1
s(S'CP'
S'CDDPP'
tp89
F6
s(S'PP'
p90
S'ADVADVPPNP'
tp91
F1
s(S'MP'
S'MVPPP'
tp92
F1
s(g37
S'DADVVP'
tp93
F1
s(S'MP'
p94
S'MVPP'
tp95
F1
s(g12
S'ADVP'
tp96
F1
s(g47
S'PAP'
tp97
F5
s(S'PP'
p98
S'AAPPNNNP'
tp99
F1
s(g75
S'ADVPNP'
tp100
F1
s(g49
S'PPDP'
tp101
F2
s(S'NP'
S'NNPP'
tp102
F1
s(g8
S'ANPPP'
tp103
F1
s(g83
S'DADVPPP'
tp104
F1
s(g49
S'PPVVP'
tp105
F1
s(S'PP'
p106
S'PNP'
tp107
F16
s(S'NP'
p108
S'NAPP'
tp109
F2
s(g71
S'DNNNP'
tp110
F1
s(g12
S'DDP'
tp111
F3
s(g42
S'VVNP'
tp112
F1
s(g10
S'PANP'
tp113
F1
s(g63
S'AADNP'
tp114
F1
s(S'VP'
p115
S'VCCP'
tp116
F1
s(S'PP'
p117
S'PMP'
tp118
F1
s(g80
S'AAVP'
tp119
F1
s(g29
S'NAAP'
tp120
F1
s(S'AP'
S'ACP'
tp121
F2
s(S'CP'
p122
S'CCDP'
tp123
F3
s(g66
S'NAP'
tp124
F10
s(g115
S'VPPP'
tp125
F2
s(g24
S'NMP'
tp126
F8
s(g53
S'CDDDPP'
tp127
F1
s(S'NP'
p128
S'NDP'
tp129
F5
s(S'PP'
S'PDDDDP'
tp130
F1
s(g90
S'PNNNP'
tp131
F2
s(g6
S'DVP'
tp132
F13
s(g69
S'VVP'
tp133
F2
s(g77
S'DDVP'
tp134
F5
s(g106
S'PDP'
tp135
F14
s(S'AP'
S'AAADP'
tp136
F1
s(g10
S'APNP'
tp137
F2
s(S'VP'
S'VNNNNP'
tp138
F1
s(g57
S'DDDAPP'
tp139
F1
s(g19
S'PPP'
tp140
F11
s(g15
S'AAPVP'
tp141
F1
s(g69
S'VADVADVADVADVMP'
tp142
F1
s(S'MP'
S'MVANP'
tp143
F1
s(S'PP'
p144
S'APADVDP'
tp145
F1
s(g49
S'APPNP'
tp146
F1
s(S'MP'
p147
S'MVNNP'
tp148
F1
s(S'CP'
S'CDPP'
tp149
F16
s(S'VP'
p150
S'AAVPP'
tp151
F1
s(g12
S'ADVDVP'
tp152
F1
s(S'MP'
S'MVADVPP'
tp153
F1
s(g12
S'ADVDVVP'
tp154
F1
s(g24
S'NNNDP'
tp155
F1
s(g21
S'VPP'
tp156
F8
s(g147
S'MVAAP'
tp157
F1
s(g29
S'NCCP'
tp158
F1
s(S'CP'
S'ADVCDP'
tp159
F1
s(g24
S'NNVP'
tp160
F5
s(g98
S'PADVDP'
tp161
F2
s(g128
S'NNCP'
tp162
F4
s(g108
S'NADVVP'
tp163
F2
s(S'MP'
S'MVCP'
tp164
F1
s(g40
S'VCP'
tp165
F6
s(g34
S'CCDDP'
tp166
F2
s(g98
S'PPNNP'
tp167
F2
s(g71
S'DAAPP'
tp168
F1
s(g144
S'PVVP'
tp169
F1
s(S'CP'
p170
S'CADPPP'
tp171
F1
s(S'AP'
S'AACP'
tp172
F3
s(g21
S'VDP'
tp173
F12
s(g40
S'AVCCP'
tp174
F1
s(g71
S'DADVNP'
tp175
F1
s(S'AP'
S'ADVAAAP'
tp176
F1
s(g12
S'DAP'
tp177
F3
s(S'CP'
S'CADPP'
tp178
F2
s(g90
S'PPAP'
tp179
F4
s(g37
S'DVVP'
tp180
F1
s(g117
S'PADVADVDP'
tp181
F1
s(S'DP'
S'DDDDAP'
tp182
F1
s(S'PP'
S'APPP'
tp183
F1
s(g51
S'NACP'
tp184
F1
s(g66
S'ANMP'
tp185
F1
s(S'VP'
p186
S'VVADVDP'
tp187
F1
s(g21
S'VNNP'
tp188
F3
s(S'CP'
p189
S'CADVDPP'
tp190
F2
s(S'AP'
p191
S'AADVDP'
tp192
F1
s(S'NP'
p193
S'NADP'
tp194
F1
s(S'CP'
p195
S'CCCDP'
tp196
F1
s(g186
S'ADVVAP'
tp197
F2
s(g69
S'VADVNP'
tp198
F1
s(S'VP'
p199
S'AVPP'
tp200
F1
s(S'NP'
p201
S'ANCP'
tp202
F2
s(g19
S'APDP'
tp203
F3
s(g12
S'ADVDPP'
tp204
F2
s(g8
S'NAAPPP'
tp205
F1
s(S'AP'
p206
S'AADVCP'
tp207
F1
s(g191
S'AADP'
tp208
F4
s(g77
S'DDDP'
tp209
F1
s(g150
S'VADVPP'
tp210
F1
s(g57
S'ADVDANP'
tp211
F1
s(g55
S'ANNVVP'
tp212
F1
s(S'NP'
S'ANVVP'
tp213
F1
s(g199
S'VVDP'
tp214
F3
s(g51
S'NPPP'
tp215
F3
s(g98
S'ADVADVADVAPDP'
tp216
F1
s(S'PP'
S'ADVADVPPDP'
tp217
F1
s(S'PP'
p218
S'ADVPAP'
tp219
F1
s(S'VP'
p220
S'ADVVANP'
tp221
F1
s(g80
S'ACCP'
tp222
F1
s(g45
S'DAVP'
tp223
F1
s(g55
S'ANADVDP'
tp224
F1
s(g6
S'DNNP'
tp225
F5
s(g53
S'CADVDDPP'
tp226
F1
s(S'NP'
p227
S'NCP'
tp228
F14
s(g170
S'CDDPPPP'
tp229
F1
s(g49
S'PPAADP'
tp230
F1
s(g218
S'ADVAPADVAAP'
tp231
F1
s(g98
S'PPNP'
tp232
F5
s(g71
S'DMMP'
tp233
F1
s(g98
S'PADVVP'
tp234
F1
s(g55
S'NNCCP'
tp235
F1
s(g189
S'CDPPPP'
tp236
F1
s(g69
S'VANP'
tp237
F2
s(g17
S'ADP'
tp238
F13
s(g220
S'VAPP'
tp239
F1
s(g17
S'APP'
tp240
F6
s(g94
S'ADVADVADVADVMAP'
tp241
F1
s(g66
S'NADVDP'
tp242
F1
s(g57
S'DDPPPP'
tp243
F1
s(S'MP'
S'MAVDP'
tp244
F1
s(g206
S'AAP'
tp245
F1
s(S'DP'
S'DADVPP'
tp246
F1
s(g199
S'ADVVMMP'
tp247
F1
s(g40
S'VVPP'
tp248
F3
s(g17
S'AMP'
tp249
F1
s(g170
S'CCADP'
tp250
F1
s(g24
S'ADVANPP'
tp251
F1
s(g10
S'PAAAP'
tp252
F1
s(g31
S'AVDP'
tp253
F2
s(g8
S'NNNCCP'
tp254
F2
s(g47
S'PPADVADVVVP'
tp255
F2
s(g69
S'VVAP'
tp256
F3
s(g63
S'ADVDDPP'
tp257
F1
s(g19
S'PVP'
tp258
F14
s(S'MP'
S'MVNP'
tp259
F2
s(g66
S'ADVNPP'
tp260
F1
s(g201
S'NNANP'
tp261
F1
s(g37
S'ADVADVDDP'
tp262
F1
s(g191
S'AVP'
tp263
F3
s(g8
S'ANAAP'
tp264
F1
s(g122
S'CDDDPPP'
tp265
F1
s(g71
S'DDNP'
tp266
F3
s(g15
S'PAVP'
tp267
F1
s(S'VP'
S'ADVVPPP'
tp268
F1
s(g77
S'DDPPP'
tp269
F1
s(S'AP'
S'ADVAACP'
tp270
F1
s(g66
S'NNAP'
tp271
F1
s(g227
S'NPP'
tp272
F12
s(g31
S'ADVADVVAP'
tp273
F2
s(g24
S'NVP'
tp274
F11
s(g98
S'PPANP'
tp275
F1
s(g75
S'PAAVP'
tp276
F1
s(g195
S'CDADVPP'
tp277
F1
s(S'VP'
S'VNP'
tp278
F9
s(g24
S'NNADVADVPPP'
tp279
F1
s(g40
S'VDDP'
tp280
F2
s(g77
S'ADVDDP'
tp281
F1
s(g87
S'ADVADVVVNP'
tp282
F1
s(g193
S'NNNNADVADVPPP'
tp283
F1
s(g6
S'DPP'
tp284
F16
s.