ccollections
defaultdict
p1
(c__builtin__
float
p2
tRp3
(S'NP'
S'AANDDP'
tp4
F1
s(S'NP'
S'NNNVVVP'
tp5
F2
s(S'DP'
S'DDMP'
tp6
F1
s(S'AP'
S'AADDDP'
tp7
F2
s(S'PP'
S'ADVADVPAP'
tp8
F1
s(S'MP'
p9
S'MADDDP'
tp10
F1
s(S'DP'
S'DDPPPPP'
tp11
F1
s(S'CP'
S'CDADVADVPPP'
tp12
F4
s(S'NP'
p13
S'ADVNDP'
tp14
F7
s(S'CP'
p15
S'CDPPP'
tp16
F326
s(S'DP'
S'ADVADVADPPP'
tp17
F1
s(S'VP'
S'ADVADVVAP'
tp18
F2
s(S'CP'
S'CDAAPPP'
tp19
F1
s(S'CP'
S'ADVAAACDP'
tp20
F1
s(S'VP'
S'ADVADVADVVVPP'
tp21
F1
s(S'DP'
S'DAADP'
tp22
F2
s(S'VP'
S'AVADVDP'
tp23
F1
s(S'NP'
S'NNNNANP'
tp24
F1
s(S'VP'
S'ADVVAAPP'
tp25
F1
s(S'CP'
S'AAACCDP'
tp26
F1
s(S'DP'
S'DDDNP'
tp27
F27
s(S'PP'
S'ADVPADVADVVVVP'
tp28
F1
s(S'MP'
S'MPPPNP'
tp29
F1
s(S'VP'
S'AAVMP'
tp30
F1
s(S'NP'
p31
S'ANNDP'
tp32
F1
s(S'NP'
p33
S'NNNAP'
tp34
F1
s(S'NP'
p35
S'ANPPP'
tp36
F18
s(S'NP'
S'NNNACP'
tp37
F2
s(S'VP'
p38
S'AAVNNP'
tp39
F4
s(S'NP'
p40
S'NNAAPPP'
tp41
F1
s(S'VP'
S'AVNNNP'
tp42
F1
s(S'CP'
S'CADVADVADVADVDDPP'
tp43
F1
s(S'PP'
p44
S'PAAP'
tp45
F59
s(S'VP'
S'ADVADVVAANNP'
tp46
F1
s(S'MP'
S'MCDP'
tp47
F9
s(S'DP'
S'DDAANP'
tp48
F4
s(S'VP'
p49
S'ADVADVVVCP'
tp50
F2
s(S'NP'
p51
S'NMP'
tp52
F167
s(S'CP'
S'CDDDADVADVADVPPP'
tp53
F1
s(S'VP'
p54
S'AAVNP'
tp55
F13
s(S'VP'
S'VMMP'
tp56
F2
s(S'NP'
S'NNADVMP'
tp57
F1
s(S'DP'
S'ADDDNP'
tp58
F1
s(S'NP'
S'NACCP'
tp59
F7
s(S'NP'
S'NNADVCP'
tp60
F4
s(S'CP'
S'CAADDADVPP'
tp61
F1
s(S'DP'
S'DDANP'
tp62
F14
s(S'PP'
S'PADVADP'
tp63
F7
s(S'VP'
S'VVADVCP'
tp64
F3
s(S'VP'
S'VVVVVP'
tp65
F3
s(S'NP'
p66
S'AANPPP'
tp67
F3
s(S'NP'
S'NADVADVVP'
tp68
F7
s(S'DP'
p69
S'DDDDP'
tp70
F7
s(S'NP'
S'NADVADVCCP'
tp71
F2
s(S'DP'
S'ADADVNP'
tp72
F2
s(S'PP'
p73
S'PADVADVDP'
tp74
F4
s(S'VP'
S'ADVADVAVNP'
tp75
F1
s(S'NP'
S'ANADVVP'
tp76
F3
s(S'VP'
p77
S'AVNNP'
tp78
F19
s(S'VP'
S'VCCCP'
tp79
F3
s(S'PP'
p80
S'APDP'
tp81
F108
s(S'NP'
S'NNNNNPP'
tp82
F1
s(S'VP'
S'AVADVAP'
tp83
F1
s(S'NP'
S'ADVNPPP'
tp84
F4
s(S'AP'
S'AADVCP'
tp85
F8
s(S'VP'
p86
S'ADVADVAVPP'
tp87
F1
s(S'VP'
S'VVANP'
tp88
F19
s(S'VP'
S'VVVVDP'
tp89
F2
s(S'VP'
S'ADVVVP'
tp90
F5
s(S'DP'
S'DADVADVADVPP'
tp91
F5
s(g9
S'MADVVNP'
tp92
F2
s(S'VP'
S'VVVPPPP'
tp93
F1
s(S'CP'
p94
S'CADVDDPP'
tp95
F20
s(S'DP'
p96
S'DPPPPP'
tp97
F15
s(S'CP'
S'CCADVDP'
tp98
F15
s(S'VP'
S'VVACP'
tp99
F2
s(S'VP'
S'AAVDDP'
tp100
F2
s(S'PP'
S'AAPPDDP'
tp101
F1
s(S'PP'
p102
S'AAPPDP'
tp103
F2
s(S'PP'
S'PADVVP'
tp104
F36
s(S'DP'
S'DDDADVADVADVPPP'
tp105
F1
s(S'CP'
S'ADVADVCDP'
tp106
F6
s(S'NP'
S'AANADVVVP'
tp107
F2
s(S'MP'
S'MVVCP'
tp108
F9
s(g80
S'PAANP'
tp109
F41
s(S'VP'
p110
S'VADVADVCP'
tp111
F3
s(S'VP'
S'ADVADVVVVNP'
tp112
F1
s(S'NP'
S'ANAAP'
tp113
F4
s(S'NP'
p114
S'NNNNNP'
tp115
F1
s(S'CP'
p116
S'CADVADVADPP'
tp117
F1
s(S'PP'
S'APPPP'
tp118
F9
s(S'DP'
p119
S'DADP'
tp120
F5
s(S'AP'
S'ADVADP'
tp121
F8
s(S'PP'
p122
S'PADVADVAAP'
tp123
F2
s(S'AP'
S'AAAACCP'
tp124
F1
s(S'PP'
p125
S'APVP'
tp126
F113
s(S'CP'
p127
S'CADVADPPP'
tp128
F3
s(S'DP'
p129
S'ADVDDANP'
tp130
F1
s(S'PP'
p131
S'AAPVP'
tp132
F22
s(S'VP'
S'VMP'
tp133
F16
s(S'NP'
S'ANNAP'
tp134
F2
s(S'PP'
S'PPPPNNNP'
tp135
F1
s(S'CP'
p136
S'CDAPP'
tp137
F166
s(S'CP'
S'CADVADVADPPP'
tp138
F1
s(S'VP'
S'ADVVVVVP'
tp139
F1
s(S'AP'
S'AACCCP'
tp140
F1
s(S'MP'
S'MADVVVNNP'
tp141
F1
s(S'NP'
p142
S'NNAADP'
tp143
F1
s(S'NP'
S'ANDDP'
tp144
F6
s(S'DP'
S'DADVAP'
tp145
F4
s(S'NP'
p146
S'ADVADVADVNVP'
tp147
F2
s(S'VP'
S'ADVADVVDP'
tp148
F7
s(S'AP'
S'AAPPP'
tp149
F2
s(S'DP'
S'DAAANP'
tp150
F2
s(S'MP'
S'MVADP'
tp151
F2
s(S'NP'
S'ADVNAADDP'
tp152
F1
s(S'PP'
p153
S'PVVP'
tp154
F217
s(g51
S'NNPP'
tp155
F174
s(S'CP'
S'CCCADVDP'
tp156
F1
s(S'CP'
p157
S'CAADPPPP'
tp158
F1
s(S'MP'
S'MVVDP'
tp159
F9
s(S'DP'
S'ADVDDVP'
tp160
F1
s(S'CP'
S'CAADDPPP'
tp161
F2
s(S'MP'
S'MMADVCP'
tp162
F1
s(S'PP'
S'PVVVP'
tp163
F20
s(g73
S'PMP'
tp164
F45
s(S'PP'
S'PADVADVADVVP'
tp165
F1
s(S'NP'
S'NNADVADVDDP'
tp166
F1
s(S'VP'
S'VADVADVANP'
tp167
F2
s(S'CP'
S'CDAAPP'
tp168
F22
s(S'PP'
S'PDDDDP'
tp169
F4
s(S'MP'
S'MVACP'
tp170
F1
s(S'CP'
S'CCCCDP'
tp171
F7
s(S'VP'
S'VVMP'
tp172
F3
s(S'CP'
S'CADADVPP'
tp173
F3
s(g125
S'PPP'
tp174
F590
s(S'PP'
S'PPPPADVDP'
tp175
F1
s(S'NP'
S'ANADVCCP'
tp176
F2
s(S'CP'
S'ACCADVDP'
tp177
F1
s(S'PP'
S'PPADVADVNP'
tp178
F1
s(S'AP'
S'AADVVP'
tp179
F4
s(S'DP'
S'ADVDPPPP'
tp180
F1
s(S'PP'
p181
S'ADVPAVVP'
tp182
F2
s(S'CP'
S'ACCDP'
tp183
F10
s(S'DP'
p184
S'ADVDDNP'
tp185
F8
s(S'NP'
p186
S'NNNCP'
tp187
F75
s(S'CP'
S'CCCAADP'
tp188
F2
s(S'MP'
S'ADVADVADVMNP'
tp189
F2
s(S'DP'
p190
S'DANNP'
tp191
F13
s(S'PP'
S'PADVAAP'
tp192
F2
s(S'CP'
p193
S'CDDPP'
tp194
F309
s(g193
S'CADPPP'
tp195
F20
s(S'DP'
S'DADVPPP'
tp196
F22
s(S'DP'
S'ADVADDP'
tp197
F1
s(S'PP'
S'PPNNNP'
tp198
F12
s(S'PP'
S'PPADVADVDP'
tp199
F2
s(S'CP'
p200
S'CDADVADVAPP'
tp201
F4
s(S'PP'
p202
S'PADVAVP'
tp203
F12
s(S'AP'
S'APPP'
tp204
F15
s(S'VP'
S'VVVP'
tp205
F31
s(S'DP'
S'DDAAVP'
tp206
F1
s(S'NP'
S'ADVADVNNVP'
tp207
F4
s(S'DP'
p208
S'DCP'
tp209
F22
s(S'DP'
S'DADVCP'
tp210
F1
s(S'DP'
p211
S'DDDP'
tp212
F41
s(S'DP'
S'ADDDP'
tp213
F4
s(S'VP'
S'ADVVNNNP'
tp214
F2
s(S'MP'
S'MCAADP'
tp215
F1
s(S'PP'
p216
S'PADVADVNNP'
tp217
F4
s(S'NP'
S'NAAAAP'
tp218
F1
s(S'DP'
p219
S'ADVDAPP'
tp220
F10
s(g129
S'AADVP'
tp221
F7
s(S'CP'
S'AADVCADP'
tp222
F1
s(S'PP'
p223
S'APMP'
tp224
F7
s(g184
S'DDAVP'
tp225
F5
s(S'PP'
p226
S'PPPADVAVP'
tp227
F1
s(S'PP'
S'PPPAVP'
tp228
F1
s(S'VP'
S'VAAANP'
tp229
F3
s(S'DP'
S'DVVVVP'
tp230
F1
s(S'DP'
S'DADVADP'
tp231
F1
s(S'PP'
S'PPMP'
tp232
F6
s(S'AP'
S'AAAADVDP'
tp233
F1
s(S'AP'
S'AAADVCCP'
tp234
F1
s(S'DP'
S'DDDCP'
tp235
F1
s(S'CP'
p236
S'ADVACDP'
tp237
F9
s(S'CP'
S'CADPPPP'
tp238
F1
s(g186
S'NPP'
tp239
F821
s(g186
S'NVP'
tp240
F1001
s(S'PP'
p241
S'PPPPVP'
tp242
F5
s(S'NP'
p243
S'AANNVP'
tp244
F9
s(S'NP'
S'ANADVADVAP'
tp245
F2
s(S'NP'
S'ANCCCP'
tp246
F2
s(S'PP'
S'ADVADVPDP'
tp247
F4
s(S'MP'
S'MVVPP'
tp248
F3
s(S'PP'
S'PPPAAP'
tp249
F1
s(S'NP'
S'NNMMMP'
tp250
F1
s(S'DP'
p251
S'DDDADVADVAPP'
tp252
F1
s(S'PP'
S'PPVVVVP'
tp253
F1
s(S'PP'
S'APPPPPP'
tp254
F1
s(S'CP'
S'CDDDADVPP'
tp255
F3
s(g125
S'PNNP'
tp256
F318
s(S'MP'
p257
S'MMVP'
tp258
F28
s(S'PP'
p259
S'PADVDDP'
tp260
F6
s(S'NP'
S'ADVADVNDDP'
tp261
F1
s(S'NP'
S'ADVANNP'
tp262
F1
s(S'AP'
S'AADVAVVP'
tp263
F1
s(S'DP'
S'ADDCP'
tp264
F1
s(S'VP'
S'VAPPP'
tp265
F1
s(S'VP'
p266
S'VCCP'
tp267
F81
s(S'VP'
S'ADVVVAAP'
tp268
F1
s(S'NP'
S'ANNVVVP'
tp269
F1
s(S'PP'
p270
S'APPVVVP'
tp271
F1
s(g35
S'AANNCP'
tp272
F5
s(S'NP'
S'ANADVCP'
tp273
F4
s(S'VP'
S'VADVMP'
tp274
F1
s(S'VP'
p275
S'ADVADVADVAVPP'
tp276
F1
s(S'AP'
S'AAVVP'
tp277
F8
s(S'NP'
p278
S'NADVADVAPP'
tp279
F3
s(S'DP'
S'DADVDP'
tp280
F1
s(S'NP'
p281
S'NNAVVP'
tp282
F2
s(S'DP'
S'ADVADVADNP'
tp283
F1
s(S'VP'
S'ADVVVDP'
tp284
F7
s(S'PP'
p285
S'ADVPADVADP'
tp286
F1
s(S'VP'
S'AAVAP'
tp287
F2
s(S'AP'
S'AADDP'
tp288
F25
s(g142
S'NAAVP'
tp289
F19
s(S'VP'
S'VADVADVADVCP'
tp290
F1
s(g241
S'PAAAAP'
tp291
F1
s(S'PP'
S'ADVAPADVNP'
tp292
F1
s(S'VP'
S'AAVVNP'
tp293
F4
s(S'CP'
p294
S'CCAADP'
tp295
F2
s(S'AP'
p296
S'AVVP'
tp297
F21
s(S'VP'
S'VVAAADP'
tp298
F1
s(S'AP'
S'APPPP'
tp299
F2
s(S'NP'
S'NNAAAAP'
tp300
F2
s(S'VP'
S'AVCCCP'
tp301
F1
s(S'PP'
p302
S'ADVPAP'
tp303
F8
s(S'PP'
S'PADVMP'
tp304
F1
s(g142
S'NNVP'
tp305
F270
s(S'NP'
S'NNNVVP'
tp306
F3
s(S'PP'
S'PPAAP'
tp307
F9
s(S'NP'
S'AANCP'
tp308
F38
s(S'PP'
S'ADVPNNNNP'
tp309
F1
s(S'AP'
S'AAAPP'
tp310
F4
s(S'DP'
S'DDDDPPP'
tp311
F2
s(S'AP'
S'AAADVADP'
tp312
F1
s(S'VP'
S'VVADVANP'
tp313
F2
s(S'CP'
S'CDAPPP'
tp314
F9
s(S'VP'
p315
S'VNNP'
tp316
F199
s(S'PP'
p317
S'APADVNP'
tp318
F2
s(S'NP'
S'NADP'
tp319
F21
s(S'PP'
S'AAAPPP'
tp320
F2
s(S'PP'
S'AAPPP'
tp321
F9
s(S'NP'
S'NNADVADVADVDP'
tp322
F1
s(g275
S'VVVAAP'
tp323
F2
s(g317
S'ADVADVPPDP'
tp324
F2
s(S'VP'
S'VAAANNP'
tp325
F1
s(S'MP'
S'MVAAAP'
tp326
F1
s(S'CP'
S'AAACDDP'
tp327
F1
s(S'CP'
p328
S'ACDDP'
tp329
F18
s(S'DP'
S'ADADVANP'
tp330
F1
s(S'DP'
S'DMMP'
tp331
F2
s(S'CP'
S'CAAADADVPP'
tp332
F1
s(S'DP'
S'DAAAPP'
tp333
F7
s(S'NP'
p334
S'NAPP'
tp335
F80
s(S'AP'
S'ADVADVADP'
tp336
F3
s(S'NP'
S'NNACCP'
tp337
F1
s(S'VP'
S'VVVCP'
tp338
F12
s(S'PP'
p339
S'ADVAPADVDDP'
tp340
F1
s(S'CP'
S'ADVADVCADP'
tp341
F2
s(g278
S'ANCCP'
tp342
F23
s(S'VP'
S'AAVPP'
tp343
F11
s(S'PP'
S'ADVADVPNNP'
tp344
F4
s(S'MP'
S'MAANVP'
tp345
F1
s(S'DP'
S'DVVVP'
tp346
F19
s(S'DP'
S'DDVVVP'
tp347
F3
s(S'DP'
p348
S'DPP'
tp349
F1251
s(S'DP'
p350
S'DDDVVP'
tp351
F6
s(S'NP'
S'NADVADVVVP'
tp352
F3
s(S'NP'
S'NADVPP'
tp353
F20
s(S'CP'
S'ADVCADVDDP'
tp354
F1
s(S'DP'
S'AADNP'
tp355
F5
s(S'VP'
p356
S'VADVCP'
tp357
F13
s(S'PP'
S'AAAAPNP'
tp358
F1
s(S'NP'
p359
S'AANNADVVVP'
tp360
F1
s(S'PP'
S'PPAANNP'
tp361
F2
s(S'DP'
S'ADDPPP'
tp362
F1
s(S'NP'
S'AANNDP'
tp363
F2
s(S'NP'
S'ADVANCCP'
tp364
F3
s(S'NP'
p365
S'ADVADVNNAACP'
tp366
F1
s(S'PP'
p367
S'AAPDP'
tp368
F13
s(S'MP'
p369
S'MADVVDP'
tp370
F3
s(S'NP'
S'ADVADVANVVVVP'
tp371
F1
s(S'DP'
S'DADVADVADVVP'
tp372
F1
s(S'AP'
S'AADVDDP'
tp373
F1
s(S'NP'
S'ADVANNCP'
tp374
F1
s(S'PP'
S'AAAPDDP'
tp375
F1
s(g226
S'APPPPP'
tp376
F1
s(S'NP'
p377
S'NNP'
tp378
F17
s(S'NP'
S'AANCCCP'
tp379
F1
s(S'DP'
S'ADPPPPP'
tp380
F1
s(S'VP'
S'AAAVDP'
tp381
F2
s(S'PP'
S'ADVADVPPNP'
tp382
F5
s(S'VP'
S'AVVCP'
tp383
F1
s(S'NP'
S'NMMMP'
tp384
F1
s(S'CP'
p385
S'CCDDDDDP'
tp386
F1
s(S'PP'
p387
S'APADVADVNP'
tp388
F1
s(S'CP'
S'CAADADVPP'
tp389
F3
s(S'VP'
p390
S'VVAAAAPP'
tp391
F1
s(S'PP'
p392
S'ADVPPANNP'
tp393
F1
s(S'VP'
S'VMMMP'
tp394
F1
s(S'AP'
S'ANNP'
tp395
F1
s(S'MP'
S'MNCCP'
tp396
F2
s(S'NP'
p397
S'NAP'
tp398
F246
s(g13
S'NNAAP'
tp399
F6
s(S'PP'
S'ADVADVPPPP'
tp400
F1
s(S'MP'
S'MVCCCCP'
tp401
F1
s(S'DP'
p402
S'DDDDDPPP'
tp403
F1
s(g51
S'NNADVPP'
tp404
F6
s(S'VP'
S'VVADVADVADVACP'
tp405
F1
s(S'AP'
S'ADDDP'
tp406
F8
s(S'DP'
S'ADVDVVP'
tp407
F1
s(S'MP'
p408
S'MMMVP'
tp409
F3
s(S'VP'
S'ADVADVAVCP'
tp410
F1
s(S'CP'
p411
S'ADVCDP'
tp412
F63
s(S'VP'
S'ADVADVVNP'
tp413
F13
s(S'VP'
S'VVAPPP'
tp414
F1
s(g122
S'ADVPAVP'
tp415
F2
s(S'PP'
S'ADVPPVVVP'
tp416
F1
s(S'VP'
S'VVVDDDDP'
tp417
F1
s(S'NP'
S'NADVAP'
tp418
F8
s(S'AP'
S'AMMMP'
tp419
F1
s(S'DP'
S'DADVADVADVADVPPP'
tp420
F1
s(S'VP'
p421
S'AVPP'
tp422
F50
s(S'MP'
S'AMVVP'
tp423
F2
s(S'DP'
S'AADNNP'
tp424
F1
s(S'PP'
S'PANNP'
tp425
F14
s(S'DP'
S'ADPPPP'
tp426
F4
s(S'DP'
S'DADVADVPP'
tp427
F13
s(S'NP'
S'NNNNDP'
tp428
F4
s(S'PP'
S'PPAANP'
tp429
F4
s(S'PP'
S'PADVADVNP'
tp430
F14
s(S'PP'
S'PPPPNP'
tp431
F9
s(g387
S'APNNNNP'
tp432
F1
s(S'CP'
S'CCAAADP'
tp433
F2
s(S'NP'
p434
S'NADVADVADVVVP'
tp435
F3
s(S'NP'
p436
S'NNVVVP'
tp437
F13
s(S'VP'
S'VVADVADVCP'
tp438
F1
s(S'PP'
S'PPDDDDP'
tp439
F2
s(S'VP'
S'ADVVVPP'
tp440
F9
s(S'CP'
S'CDDADVADVPP'
tp441
F1
s(S'VP'
S'VAADP'
tp442
F1
s(S'NP'
S'AANAP'
tp443
F1
s(S'CP'
S'ADVADVCCDP'
tp444
F3
s(S'VP'
p445
S'VAPP'
tp446
F38
s(S'VP'
p447
S'VADDP'
tp448
F5
s(S'NP'
S'ADVADVADVNNVP'
tp449
F1
s(S'NP'
S'NADVADVADVADVVP'
tp450
F1
s(S'NP'
S'ADVANVVVP'
tp451
F1
s(S'CP'
S'CDDADVAPP'
tp452
F2
s(S'AP'
S'ADVADVANP'
tp453
F2
s(S'AP'
p454
S'AVP'
tp455
F122
s(S'NP'
S'AAANNVP'
tp456
F1
s(S'VP'
S'ADVADVVVP'
tp457
F2
s(S'VP'
S'VVADVADVDP'
tp458
F2
s(S'CP'
S'CDADVPP'
tp459
F48
s(S'VP'
S'VADVAP'
tp460
F15
s(S'VP'
S'ADVADVVVDP'
tp461
F6
s(S'MP'
S'MMDP'
tp462
F1
s(S'NP'
S'AAAANAP'
tp463
F1
s(S'CP'
S'CCDDDDP'
tp464
F2
s(S'CP'
S'ADVCADVAADP'
tp465
F1
s(S'DP'
S'DAANNP'
tp466
F7
s(S'AP'
S'AVVVP'
tp467
F5
s(S'NP'
S'ADVNAPP'
tp468
F1
s(S'PP'
S'PPADVAVP'
tp469
F1
s(g315
S'VADP'
tp470
F87
s(S'PP'
p471
S'APPDP'
tp472
F6
s(g211
S'ADNNP'
tp473
F18
s(S'NP'
S'ADVNADVACP'
tp474
F1
s(S'VP'
p475
S'ADVADVADVAVNP'
tp476
F2
s(g125
S'PPPP'
tp477
F206
s(S'AP'
S'APPPPP'
tp478
F1
s(S'MP'
S'MMCP'
tp479
F1
s(S'AP'
S'AADVPP'
tp480
F1
s(S'NP'
S'NAAVVP'
tp481
F1
s(S'NP'
S'ANADVPP'
tp482
F2
s(S'VP'
S'ADVVAAP'
tp483
F8
s(S'MP'
S'MVVVVADVAP'
tp484
F1
s(S'VP'
S'VADVADVAP'
tp485
F5
s(g202
S'ADVPPVP'
tp486
F16
s(g44
S'APVVP'
tp487
F7
s(S'DP'
S'ADVADVDADVPPPP'
tp488
F1
s(S'VP'
S'ADVADVVPPP'
tp489
F1
s(g125
S'PNP'
tp490
F1090
s(S'NP'
S'ADVNADP'
tp491
F2
s(S'VP'
S'VAAAP'
tp492
F7
s(S'MP'
S'AMPP'
tp493
F1
s(g125
S'PDP'
tp494
F943
s(g402
S'ADVADVDDAVP'
tp495
F1
s(S'NP'
S'ADVNVVP'
tp496
F6
s(S'MP'
S'MNNVP'
tp497
F1
s(S'VP'
p498
S'VVVDDP'
tp499
F9
s(S'DP'
S'ADVDAPPP'
tp500
F2
s(S'PP'
S'PPPADVVP'
tp501
F1
s(S'CP'
S'CDDAPPP'
tp502
F1
s(S'NP'
S'AANNADVVP'
tp503
F1
s(S'MP'
S'MMMVVP'
tp504
F1
s(S'AP'
S'ADVADVAMP'
tp505
F1
s(S'PP'
S'ADVADVAPPP'
tp506
F1
s(S'DP'
p507
S'DPPPP'
tp508
F61
s(S'DP'
p509
S'ADVDDAPP'
tp510
F1
s(S'NP'
p511
S'NCCP'
tp512
F295
s(S'VP'
S'VVCCCP'
tp513
F2
s(S'NP'
S'NADVADVDDP'
tp514
F1
s(g142
S'NNCP'
tp515
F382
s(S'NP'
S'ANADVADVVVP'
tp516
F1
s(g421
S'VVADP'
tp517
F8
s(S'DP'
S'AADDDPP'
tp518
F1
s(S'NP'
p519
S'NADVADVPP'
tp520
F4
s(S'PP'
S'ADVPVVP'
tp521
F2
s(S'VP'
S'VADVVP'
tp522
F2
s(S'CP'
S'ACCDDP'
tp523
F1
s(S'VP'
S'ADVADVADVVNP'
tp524
F2
s(S'VP'
p525
S'AAAVPPP'
tp526
F2
s(S'VP'
S'ADVVAP'
tp527
F25
s(S'PP'
S'PPADVADVADVAVP'
tp528
F1
s(S'DP'
S'DDDDDDP'
tp529
F1
s(S'VP'
p530
S'AVAP'
tp531
F11
s(S'VP'
p532
S'ADVVNNP'
tp533
F6
s(S'AP'
S'AADVACP'
tp534
F3
s(S'PP'
S'PPADVADVAP'
tp535
F1
s(g408
S'MPNNP'
tp536
F1
s(g390
S'AVVNNP'
tp537
F1
s(g216
S'PPAAPP'
tp538
F3
s(S'VP'
p539
S'VADVNNP'
tp540
F2
s(S'PP'
S'PPNNNNP'
tp541
F2
s(S'DP'
S'DACP'
tp542
F2
s(g259
S'APAP'
tp543
F10
s(g454
S'APP'
tp544
F143
s(S'PP'
p545
S'PPAAAVP'
tp546
F1
s(S'CP'
S'CDDDADVPPP'
tp547
F2
s(S'CP'
S'CADDPPP'
tp548
F1
s(S'VP'
S'VVAAAANP'
tp549
F2
s(S'PP'
S'PADVADVADVAVP'
tp550
F1
s(S'NP'
S'ADVADVNCCP'
tp551
F1
s(g377
S'ADVANPP'
tp552
F8
s(g38
S'VVVVPP'
tp553
F4
s(g445
S'VADVADVNP'
tp554
F5
s(S'CP'
S'AACCDDP'
tp555
F2
s(g125
S'PPVVP'
tp556
F35
s(S'VP'
S'VAACP'
tp557
F8
s(S'NP'
S'NNAAAP'
tp558
F2
s(g257
S'MVNP'
tp559
F45
s(g278
S'NNANP'
tp560
F1
s(S'PP'
S'PAVP'
tp561
F95
s(S'PP'
p562
S'ADVADVPPVP'
tp563
F2
s(S'PP'
S'PDDDDDP'
tp564
F1
s(S'AP'
S'ADVACCP'
tp565
F4
s(S'VP'
S'VVAANP'
tp566
F3
s(S'DP'
S'ADVDDP'
tp567
F4
s(S'NP'
S'ADVNAP'
tp568
F6
s(S'NP'
S'AAANNPP'
tp569
F1
s(g102
S'PPVVVVVP'
tp570
F1
s(S'MP'
p571
S'MNCP'
tp572
F2
s(g530
S'VVNP'
tp573
F195
s(S'NP'
S'ANNP'
tp574
F5
s(g153
S'PPVP'
tp575
F221
s(S'MP'
S'ADVMADVVP'
tp576
F1
s(S'VP'
p577
S'VAAP'
tp578
F78
s(g202
S'PPADP'
tp579
F12
s(S'NP'
S'NNAAVP'
tp580
F3
s(S'NP'
S'ADVNNAAP'
tp581
F1
s(g296
S'AAAAADP'
tp582
F1
s(S'PP'
p583
S'PPPPAP'
tp584
F2
s(S'VP'
S'ADVVVCP'
tp585
F4
s(S'AP'
S'AAADVADVDP'
tp586
F2
s(g146
S'ANACCCP'
tp587
F1
s(g348
S'DAPP'
tp588
F230
s(S'VP'
S'ADVADVVPP'
tp589
F4
s(S'AP'
S'ADVAAPP'
tp590
F1
s(S'NP'
S'NNNAVP'
tp591
F1
s(S'MP'
S'MDDNP'
tp592
F1
s(S'PP'
p593
S'AAAPVP'
tp594
F1
s(S'PP'
p595
S'PPPDP'
tp596
F22
s(S'DP'
S'DAAPPP'
tp597
F3
s(S'PP'
S'PAAAANNP'
tp598
F1
s(S'MP'
S'MVVAP'
tp599
F1
s(S'PP'
S'PPPPANP'
tp600
F1
s(g54
S'VVPP'
tp601
F128
s(g119
S'ADADVPP'
tp602
F5
s(S'VP'
S'VACCP'
tp603
F2
s(S'CP'
S'CADVADVDDPP'
tp604
F2
s(g348
S'DDAAPP'
tp605
F8
s(S'NP'
p606
S'AANCCP'
tp607
F6
s(S'MP'
S'MVADVCP'
tp608
F1
s(S'PP'
S'PADVADVVP'
tp609
F6
s(g200
S'ADVCAADDP'
tp610
F1
s(S'NP'
S'NNMMP'
tp611
F1
s(S'PP'
p612
S'PAAPPP'
tp613
F1
s(g51
S'NVVVP'
tp614
F47
s(g125
S'PNNNP'
tp615
F53
s(S'AP'
p616
S'AACCP'
tp617
F5
s(S'PP'
p618
S'PADVVVP'
tp619
F5
s(S'NP'
S'NAVP'
tp620
F100
s(S'PP'
S'PADVAP'
tp621
F7
s(S'DP'
S'ADVADVVP'
tp622
F1
s(S'VP'
S'ADVVAPP'
tp623
F2
s(S'PP'
S'PADDP'
tp624
F8
s(g525
S'VVVANP'
tp625
F5
s(g348
S'DAP'
tp626
F101
s(S'DP'
S'ADVADVDNNP'
tp627
F1
s(S'CP'
S'CCADVADVADVDP'
tp628
F1
s(S'PP'
S'PPPPDP'
tp629
F5
s(S'DP'
S'DAAAP'
tp630
F2
s(g15
S'ADVCCDP'
tp631
F19
s(S'PP'
S'PADVDP'
tp632
F22
s(S'NP'
S'AAAANVP'
tp633
F1
s(S'DP'
S'DAAPP'
tp634
F43
s(g181
S'ADVPPAPP'
tp635
F1
s(S'AP'
p636
S'AACP'
tp637
F49
s(S'MP'
S'MADVVAAP'
tp638
F1
s(S'VP'
p639
S'ADVVCP'
tp640
F21
s(S'PP'
S'ADVPPAP'
tp641
F5
s(g530
S'VPPP'
tp642
F99
s(S'VP'
S'ADVADVVVCCP'
tp643
F1
s(S'VP'
S'AVCCP'
tp644
F3
s(S'NP'
S'NADVADVAVP'
tp645
F3
s(S'VP'
S'VVPPP'
tp646
F18
s(S'VP'
S'ADVVVCCP'
tp647
F1
s(S'NP'
S'ANMP'
tp648
F7
s(S'MP'
S'MADVADVVDP'
tp649
F1
s(S'NP'
S'NNNNMP'
tp650
F1
s(S'NP'
S'ADVNNCCP'
tp651
F1
s(S'DP'
S'DDPPPP'
tp652
F19
s(S'PP'
S'ADVAPPPP'
tp653
F2
s(S'NP'
S'NNVVVVP'
tp654
F1
s(S'PP'
S'PPADVNNP'
tp655
F3
s(S'CP'
S'ADVADVADVADVCDDP'
tp656
F1
s(S'MP'
S'MAADP'
tp657
F2
s(S'NP'
p658
S'ANVVP'
tp659
F23
s(S'NP'
S'NVVVVP'
tp660
F7
s(S'PP'
S'PAAMMP'
tp661
F1
s(S'DP'
S'AADVVP'
tp662
F1
s(S'NP'
S'NNNAAAP'
tp663
F1
s(S'VP'
S'ADVAVCP'
tp664
F1
s(S'NP'
S'NDDDDP'
tp665
F1
s(S'NP'
p666
S'ANAADDDP'
tp667
F1
s(S'CP'
S'CCCDDP'
tp668
F6
s(S'AP'
p669
S'ADP'
tp670
F599
s(S'PP'
S'ADVADVADVPPANP'
tp671
F1
s(S'VP'
S'VADVADVADVNP'
tp672
F2
s(S'VP'
S'VADVADVANNP'
tp673
F1
s(S'PP'
p674
S'ADVPAAVP'
tp675
F1
s(S'NP'
S'ADVADVADVANPP'
tp676
F2
s(S'VP'
S'ADVADVVNNP'
tp677
F2
s(S'VP'
S'AVDP'
tp678
F89
s(S'NP'
p679
S'ANNVP'
tp680
F8
s(S'VP'
p681
S'VVAP'
tp682
F66
s(S'NP'
p683
S'NNAPP'
tp684
F13
s(S'VP'
S'VADVADVADVPP'
tp685
F1
s(S'NP'
p686
S'NADVAPP'
tp687
F8
s(S'DP'
S'ADVADVADVDDPP'
tp688
F2
s(g365
S'NNDDDP'
tp689
F2
s(g339
S'PAAVP'
tp690
F16
s(S'NP'
S'NNNNAAAP'
tp691
F1
s(g530
S'VDDP'
tp692
F209
s(S'NP'
S'NNNNADVVP'
tp693
F1
s(S'DP'
S'DMP'
tp694
F13
s(S'DP'
S'DADVAPP'
tp695
F16
s(S'PP'
S'ADVAPAP'
tp696
F2
s(g686
S'ANPP'
tp697
F115
s(S'PP'
p698
S'ADVPPDP'
tp699
F9
s(S'PP'
p700
S'PPPPP'
tp701
F43
s(S'MP'
S'MPDP'
tp702
F1
s(S'AP'
S'ADVADVAVP'
tp703
F3
s(g507
S'ADDP'
tp704
F6
s(S'NP'
p705
S'NADVAAP'
tp706
F1
s(S'NP'
S'NNCCCCP'
tp707
F1
s(S'VP'
S'VVVMP'
tp708
F1
s(S'DP'
S'DADVADVVP'
tp709
F6
s(S'DP'
p710
S'DAAANNP'
tp711
F1
s(S'DP'
S'DDAAP'
tp712
F4
s(S'MP'
S'MNNVVP'
tp713
F1
s(S'PP'
S'ADVADVAPDP'
tp714
F2
s(S'PP'
S'PPPPAAP'
tp715
F1
s(g142
S'ADVNCP'
tp716
F40
s(S'MP'
S'MPDDP'
tp717
F1
s(S'AP'
S'ADVANP'
tp718
F3
s(g69
S'DDDPP'
tp719
F64
s(S'CP'
S'ADVCDDP'
tp720
F6
s(S'DP'
S'DDDPPPP'
tp721
F1
s(S'DP'
p722
S'DDDPPP'
tp723
F13
s(g202
S'APADVVP'
tp724
F3
s(S'CP'
S'CCADVADP'
tp725
F1
s(S'MP'
p726
S'MAVP'
tp727
F1
s(S'CP'
S'CCCDDDDDP'
tp728
F1
s(S'VP'
S'VVVVNNNP'
tp729
F1
s(S'PP'
p730
S'PVVVVP'
tp731
F3
s(S'VP'
S'ADVVADDP'
tp732
F1
s(S'VP'
S'VAANP'
tp733
F27
s(S'MP'
S'MVVVCP'
tp734
F2
s(S'MP'
S'MPNP'
tp735
F3
s(S'DP'
S'DDDAANNP'
tp736
F1
s(S'PP'
S'AAPAAP'
tp737
F2
s(S'CP'
S'CDDADVADVPPP'
tp738
F1
s(S'PP'
S'ADVPPPNP'
tp739
F1
s(S'VP'
S'ADVVANP'
tp740
F8
s(S'MP'
S'MVAAP'
tp741
F2
s(g129
S'DDVP'
tp742
F154
s(S'PP'
S'PPADVANP'
tp743
F2
s(S'VP'
S'ADVVVNNP'
tp744
F2
s(S'VP'
S'VADVADVPP'
tp745
F2
s(S'PP'
p746
S'PPPPVVP'
tp747
F3
s(g259
S'APADVDP'
tp748
F4
s(S'PP'
S'APPNP'
tp749
F16
s(g397
S'NNPPP'
tp750
F36
s(S'VP'
S'VVADVACP'
tp751
F1
s(S'NP'
p752
S'AANNMP'
tp753
F1
s(S'AP'
S'AADVAP'
tp754
F1
s(S'NP'
S'NNNDP'
tp755
F7
s(S'NP'
p756
S'AANVVVP'
tp757
F3
s(g266
S'VVAAP'
tp758
F14
s(S'DP'
S'DDADP'
tp759
F4
s(S'DP'
S'AAADNP'
tp760
F2
s(S'VP'
S'VAAAAAP'
tp761
F1
s(S'MP'
S'MVAANP'
tp762
F1
s(g618
S'PADVADVPP'
tp763
F2
s(S'VP'
S'VVVADVDP'
tp764
F2
s(S'VP'
S'ADVVVADVNP'
tp765
F1
s(S'VP'
S'AVVPP'
tp766
F5
s(S'DP'
S'ADVDVVVP'
tp767
F1
s(S'VP'
S'ADVVPP'
tp768
F15
s(S'CP'
S'CADVADVADVDDPP'
tp769
F2
s(S'DP'
p770
S'DDNP'
tp771
F265
s(S'DP'
S'AAAADDPPP'
tp772
F2
s(S'VP'
S'ADVAVPP'
tp773
F1
s(S'NP'
p774
S'ADVANVP'
tp775
F15
s(S'MP'
S'MNVVVP'
tp776
F1
s(S'NP'
S'ADVADVNCP'
tp777
F6
s(S'NP'
S'NNNNPP'
tp778
F4
s(S'VP'
S'VVVVCP'
tp779
F1
s(S'DP'
S'AAADVP'
tp780
F1
s(S'NP'
p781
S'ADVNADVCCCP'
tp782
F1
s(S'NP'
S'ANVVVP'
tp783
F3
s(S'AP'
S'AADVADVDDP'
tp784
F1
s(S'DP'
S'DADVVVP'
tp785
F5
s(S'DP'
p786
S'DADVADVADVAVP'
tp787
F1
s(S'PP'
S'APPVP'
tp788
F8
s(S'DP'
S'DDNNNNNP'
tp789
F1
s(S'NP'
S'AANPP'
tp790
F18
s(S'CP'
S'CADDPP'
tp791
F10
s(S'PP'
S'PAAAP'
tp792
F8
s(S'PP'
S'ADVADVPNP'
tp793
F6
s(S'MP'
S'MDANP'
tp794
F1
s(S'VP'
S'VADVADVDDP'
tp795
F3
s(S'VP'
S'VADVPPP'
tp796
F4
s(S'VP'
S'VVAAAAP'
tp797
F1
s(S'CP'
S'ACDDDP'
tp798
F1
s(S'NP'
p799
S'ADVNAVP'
tp800
F4
s(S'VP'
S'VCCCCP'
tp801
F2
s(S'NP'
S'AANNPPP'
tp802
F1
s(S'NP'
S'AANADVVP'
tp803
F1
s(S'DP'
p804
S'ADVADVADPP'
tp805
F2
s(S'PP'
S'APADVDDP'
tp806
F1
s(S'DP'
S'ADVADVDPPP'
tp807
F2
s(S'DP'
S'DCCP'
tp808
F2
s(S'DP'
S'DDADVNNP'
tp809
F4
s(g270
S'PAPPP'
tp810
F2
s(S'PP'
p811
S'PDDP'
tp812
F182
s(S'MP'
S'MVDDP'
tp813
F4
s(S'PP'
p814
S'ADVAPNP'
tp815
F14
s(S'DP'
S'ADVADPP'
tp816
F13
s(S'NP'
S'NNNADVVP'
tp817
F3
s(S'VP'
S'ADVADVADVVNNP'
tp818
F1
s(g257
S'MVCP'
tp819
F26
s(S'MP'
S'MVADVADVADVPP'
tp820
F1
s(S'DP'
p821
S'DAVVP'
tp822
F4
s(g350
S'AADPPP'
tp823
F11
s(S'NP'
S'ANNAAP'
tp824
F1
s(g223
S'ADVADVADVPVP'
tp825
F3
s(S'NP'
p826
S'NNADVADVAPP'
tp827
F1
s(S'PP'
S'PAANNP'
tp828
F7
s(S'PP'
S'PPADVDDP'
tp829
F2
s(S'PP'
S'ADVPADP'
tp830
F4
s(S'PP'
S'PADVADVANP'
tp831
F4
s(S'CP'
S'CCAAAADP'
tp832
F1
s(S'DP'
S'DDDAPP'
tp833
F2
s(S'DP'
p834
S'DDVVP'
tp835
F25
s(S'VP'
S'VVVNP'
tp836
F31
s(S'VP'
S'AVPPPP'
tp837
F2
s(S'NP'
S'NAMP'
tp838
F8
s(S'NP'
S'NNAAAVP'
tp839
F1
s(g136
S'CDPP'
tp840
F1173
s(S'NP'
S'AAAANNVP'
tp841
F1
s(S'AP'
S'AAAPPPP'
tp842
F1
s(S'NP'
S'NNADVADVVVP'
tp843
F2
s(S'MP'
p844
S'MVVAANP'
tp845
F1
s(S'AP'
S'ADVAAP'
tp846
F1
s(S'NP'
S'NNNNPPP'
tp847
F1
s(S'PP'
p848
S'AAAPVVP'
tp849
F1
s(S'PP'
S'ADVAPPP'
tp850
F3
s(g339
S'APAAAP'
tp851
F1
s(S'DP'
S'ADVADVDPP'
tp852
F18
s(S'NP'
S'ADVNVVVP'
tp853
F2
s(S'VP'
p854
S'VAAAAP'
tp855
F2
s(S'VP'
S'ADVADVVVPP'
tp856
F3
s(S'PP'
S'PPDDDP'
tp857
F5
s(g49
S'VVADVDP'
tp858
F4
s(S'PP'
S'PPADVADVDDP'
tp859
F2
s(S'CP'
S'CDPPPP'
tp860
F40
s(g532
S'VADVADVCCP'
tp861
F1
s(g421
S'AAVDP'
tp862
F14
s(S'PP'
S'APPP'
tp863
F49
s(S'AP'
S'AAADVACP'
tp864
F1
s(g270
S'APPADVDP'
tp865
F1
s(g129
S'ADVDPP'
tp866
F73
s(S'NP'
S'AAAANADVAP'
tp867
F1
s(g157
S'CADVDAAPP'
tp868
F4
s(g359
S'NADVADVADVCCP'
tp869
F1
s(S'DP'
S'DDDDPP'
tp870
F14
s(S'NP'
S'ADVADVANCP'
tp871
F4
s(S'NP'
p872
S'ANNPP'
tp873
F4
s(S'MP'
S'MVADVAP'
tp874
F1
s(S'NP'
S'ADVADVNNADP'
tp875
F1
s(S'DP'
p876
S'DDADVVVP'
tp877
F1
s(S'CP'
S'CCCADVDDP'
tp878
F1
s(S'DP'
p879
S'AADADVPP'
tp880
F3
s(S'NP'
S'AANDP'
tp881
F7
s(S'MP'
S'MVCCP'
tp882
F3
s(S'DP'
S'DADVNNP'
tp883
F6
s(g186
S'NNCCP'
tp884
F68
s(g211
S'DADVPP'
tp885
F74
s(S'AP'
S'AMP'
tp886
F5
s(S'MP'
S'ADVMNP'
tp887
F1
s(S'NP'
p888
S'ADVNNCP'
tp889
F4
s(S'PP'
S'PADVADVAVP'
tp890
F1
s(S'DP'
S'DDADVAPP'
tp891
F6
s(S'NP'
S'NNNCCP'
tp892
F13
s(S'NP'
p893
S'NNADDP'
tp894
F1
s(S'CP'
S'CCADVADVDDP'
tp895
F3
s(S'DP'
S'ADVDPPP'
tp896
F10
s(g348
S'DVP'
tp897
F735
s(S'DP'
S'ADVADVADVDDVP'
tp898
F1
s(S'CP'
S'CDADVADVADVADVPPP'
tp899
F1
s(g583
S'PADVADVDDP'
tp900
F2
s(S'CP'
S'CDAAAPP'
tp901
F3
s(g854
S'AAAVVDP'
tp902
F1
s(S'DP'
S'DADVANNP'
tp903
F1
s(g593
S'PPPAAAPP'
tp904
F1
s(S'NP'
S'ADVNMP'
tp905
F8
s(S'NP'
S'NNAP'
tp906
F33
s(S'MP'
S'MADVVCP'
tp907
F2
s(S'NP'
S'NADVAAACP'
tp908
F1
s(S'DP'
p909
S'DDNNP'
tp910
F69
s(S'DP'
p911
S'DDDANP'
tp912
F1
s(g190
S'DDAP'
tp913
F7
s(S'VP'
S'ADVVVNP'
tp914
F5
s(S'PP'
p915
S'ADVADVADVPPVP'
tp916
F1
s(S'VP'
S'VVVVP'
tp917
F7
s(g679
S'NADDP'
tp918
F1
s(g44
S'PADVNP'
tp919
F41
s(g348
S'DNP'
tp920
F1017
s(S'PP'
p921
S'AAPDDP'
tp922
F5
s(S'DP'
S'DNNNNP'
tp923
F9
s(g35
S'NNMMMMP'
tp924
F1
s(S'VP'
S'AAVPPP'
tp925
F1
s(g746
S'PPPPPP'
tp926
F12
s(S'CP'
S'CADVADVDPPP'
tp927
F2
s(g571
S'MDVP'
tp928
F1
s(g666
S'AANAAP'
tp929
F1
s(g577
S'ADVVNP'
tp930
F55
s(g153
S'PADVANP'
tp931
F18
s(S'NP'
S'AANNPP'
tp932
F3
s(S'PP'
S'AAAPVVVP'
tp933
F1
s(S'VP'
S'VVVVDDP'
tp934
F1
s(S'NP'
S'AANPPPP'
tp935
F1
s(S'PP'
S'PADVNNP'
tp936
F6
s(S'NP'
S'NDDDP'
tp937
F3
s(S'NP'
S'NADVVVP'
tp938
F9
s(g385
S'CADVDAPP'
tp939
F6
s(g315
S'VCP'
tp940
F461
s(S'MP'
S'MVVANP'
tp941
F2
s(S'VP'
S'VVAANNP'
tp942
F1
s(S'NP'
S'AAAANPP'
tp943
F2
s(S'VP'
S'ADVVCCP'
tp944
F4
s(g539
S'AAVNNNP'
tp945
F1
s(g125
S'PAP'
tp946
F285
s(S'MP'
S'MMVVP'
tp947
F5
s(S'CP'
S'CDADVADVADVPP'
tp948
F2
s(S'MP'
S'MVADVNP'
tp949
F1
s(S'NP'
S'NAAAVP'
tp950
F3
s(S'PP'
S'PPADVDP'
tp951
F9
s(S'VP'
S'VADVANP'
tp952
F9
s(S'VP'
S'VVADVADVNP'
tp953
F2
s(g681
S'ADVVDDP'
tp954
F3
s(g142
S'NNDP'
tp955
F90
s(S'DP'
S'AADDADVPP'
tp956
F1
s(S'PP'
S'ADVPCP'
tp957
F1
s(S'CP'
S'AACCDP'
tp958
F6
s(S'VP'
S'VAAADP'
tp959
F3
s(S'CP'
S'CDADVADVPP'
tp960
F11
s(S'VP'
S'VNNNNP'
tp961
F6
s(S'VP'
S'AVAAP'
tp962
F2
s(S'VP'
S'AAAVCP'
tp963
F2
s(S'NP'
S'NNADVADVADVVVP'
tp964
F1
s(g181
S'PADVPP'
tp965
F19
s(S'PP'
S'PPADVAP'
tp966
F1
s(S'NP'
S'ADVNACP'
tp967
F6
s(S'PP'
S'ADVADVAPVP'
tp968
F3
s(g66
S'NACP'
tp969
F93
s(S'AP'
S'ADVAVP'
tp970
F6
s(S'DP'
S'ADVDAAP'
tp971
F1
s(S'VP'
S'AVADVNP'
tp972
F2
s(S'DP'
p973
S'ADVADVADVDADVAPP'
tp974
F1
s(g251
S'DDDADVVP'
tp975
F1
s(S'NP'
S'NNPPPP'
tp976
F2
s(S'MP'
S'MAAADP'
tp977
F1
s(S'DP'
S'DDAVVP'
tp978
F3
s(S'DP'
S'DDADVADVAPP'
tp979
F2
s(S'PP'
p980
S'ADVAPDP'
tp981
F8
s(g125
S'AAPNP'
tp982
F25
s(g814
S'ADVPAPP'
tp983
F5
s(S'CP'
S'CCCDP'
tp984
F38
s(S'PP'
p985
S'ADVPPNNP'
tp986
F2
s(S'NP'
S'NAAPPP'
tp987
F2
s(g116
S'CADADVPPP'
tp988
F2
s(S'NP'
S'ADVADVNPPP'
tp989
F1
s(g893
S'ADVNCCP'
tp990
F7
s(S'CP'
S'CAAADVDAPPP'
tp991
F1
s(S'DP'
S'ADVADNNP'
tp992
F1
s(S'NP'
S'ADVANCP'
tp993
F8
s(g507
S'DNNP'
tp994
F340
s(S'VP'
S'VVNNNP'
tp995
F8
s(g51
S'NNNVP'
tp996
F50
s(S'VP'
S'VVANNP'
tp997
F2
s(S'PP'
S'ADVAPNNP'
tp998
F2
s(S'NP'
S'ADVNNVVP'
tp999
F1
s(S'CP'
S'CADPPPPP'
tp1000
F1
s(S'AP'
S'AAP'
tp1001
F20
s(S'VP'
S'VADVADVVP'
tp1002
F1
s(S'AP'
S'AAADVDDP'
tp1003
F1
s(S'DP'
S'ADVADVDADVAPP'
tp1004
F1
s(S'MP'
S'MPVP'
tp1005
F2
s(S'PP'
S'PPADVADVNNP'
tp1006
F1
s(S'MP'
S'ADVADVMADVNP'
tp1007
F1
s(S'PP'
S'PADVADVADVNNP'
tp1008
F1
s(S'NP'
S'NNNNP'
tp1009
F1
s(S'AP'
S'AADVCCP'
tp1010
F2
s(S'CP'
S'ACADDP'
tp1011
F1
s(g909
S'ADVADNP'
tp1012
F9
s(S'CP'
S'ADVCDDDP'
tp1013
F1
s(S'VP'
S'VVVPP'
tp1014
F13
s(S'PP'
S'APDDP'
tp1015
F11
s(S'VP'
p1016
S'ADVADVVVNP'
tp1017
F1
s(S'DP'
p1018
S'DDVVVVP'
tp1019
F1
s(S'MP'
S'MADVADVVPP'
tp1020
F1
s(S'VP'
S'VADVADVAAP'
tp1021
F1
s(S'VP'
S'VVCCCCP'
tp1022
F1
s(S'VP'
p1023
S'VADVDP'
tp1024
F33
s(g519
S'NNADVAVP'
tp1025
F1
s(g186
S'NVVP'
tp1026
F279
s(S'AP'
S'AAADVADVVVP'
tp1027
F1
s(g356
S'VVNNP'
tp1028
F37
s(g69
S'ADNP'
tp1029
F126
s(g44
S'PADP'
tp1030
F105
s(S'AP'
S'AAAACP'
tp1031
F4
s(S'DP'
S'ADDADVADVADVVP'
tp1032
F1
s(S'VP'
p1033
S'VVVVVDP'
tp1034
F1
s(S'DP'
p1035
S'ADVDAANP'
tp1036
F1
s(g33
S'ADVNAPPP'
tp1037
F1
s(g193
S'ADVADVACDP'
tp1038
F1
s(S'CP'
S'CADVDAPPP'
tp1039
F1
s(S'VP'
S'AVVP'
tp1040
F2
s(g369
S'MADVADVVNP'
tp1041
F1
s(g110
S'AVVNP'
tp1042
F8
s(S'VP'
S'VVAAANP'
tp1043
F1
s(S'PP'
S'AAAPDP'
tp1044
F2
s(S'DP'
S'DADVANP'
tp1045
F8
s(g334
S'ANADVVVP'
tp1046
F3
s(g639
S'VAAPP'
tp1047
F5
s(g348
S'ADVDNP'
tp1048
F36
s(g411
S'AACDDP'
tp1049
F9
s(S'DP'
p1050
S'ADVP'
tp1051
F42
s(S'CP'
S'CDDPPP'
tp1052
F69
s(S'NP'
S'AAAANCP'
tp1053
F1
s(g834
S'DNNNP'
tp1054
F46
s(S'VP'
S'VADVDDP'
tp1055
F4
s(S'MP'
S'AMVP'
tp1056
F8
s(S'NP'
S'ADVNADVADP'
tp1057
F1
s(S'PP'
S'PPADVVP'
tp1058
F7
s(S'VP'
S'VVVDP'
tp1059
F42
s(g1033
S'VAAPPP'
tp1060
F2
s(S'VP'
S'VVVVADVVP'
tp1061
F1
s(S'VP'
S'VADVADVADVANP'
tp1062
F2
s(S'DP'
S'ADVADVDDNP'
tp1063
F8
s(S'DP'
S'ADVDVP'
tp1064
F16
s(S'NP'
S'NAAAP'
tp1065
F2
s(S'VP'
S'VAAACCP'
tp1066
F1
s(S'DP'
p1067
S'ADVADVDNP'
tp1068
F7
s(S'AP'
S'AAADVCP'
tp1069
F3
s(g1023
S'VPP'
tp1070
F634
s(g471
S'PPADVVVP'
tp1071
F1
s(S'MP'
S'ADVADVMVP'
tp1072
F1
s(S'CP'
S'CDADVAPP'
tp1073
F11
s(S'VP'
p1074
S'ADVAVDDP'
tp1075
F1
s(S'VP'
S'VADVADVADVADVNP'
tp1076
F1
s(S'PP'
S'PMMP'
tp1077
F4
s(S'PP'
S'PPAP'
tp1078
F41
s(S'NP'
S'ADVNAMP'
tp1079
F2
s(S'MP'
S'MVPPP'
tp1080
F1
s(S'DP'
S'DDDADVPPP'
tp1081
F2
s(S'CP'
S'ADVACDDP'
tp1082
F2
s(S'PP'
S'ADVPPP'
tp1083
F14
s(S'DP'
S'ADVADPPP'
tp1084
F3
s(g799
S'ADVADVNVP'
tp1085
F8
s(g294
S'CADVDPP'
tp1086
F44
s(S'PP'
S'PADVADVMP'
tp1087
F1
s(g114
S'AANADVADVAPP'
tp1088
F1
s(g436
S'ANCP'
tp1089
F178
s(g285
S'AAPPNNP'
tp1090
F1
s(S'DP'
S'DDDNNP'
tp1091
F2
s(g1074
S'ADVVVVP'
tp1092
F1
s(S'DP'
p1093
S'DDADVPP'
tp1094
F13
s(S'NP'
S'ANNVVP'
tp1095
F2
s(S'VP'
S'ADVVAAAP'
tp1096
F1
s(g705
S'NPPP'
tp1097
F152
s(S'NP'
S'NNNMP'
tp1098
F5
s(g616
S'ACP'
tp1099
F176
s(S'PP'
S'AAPAP'
tp1100
F3
s(S'NP'
S'NAADP'
tp1101
F3
s(S'CP'
p1102
S'CDDADVPP'
tp1103
F8
s(S'NP'
p1104
S'AAAANMP'
tp1105
F1
s(S'MP'
p1106
S'MVVP'
tp1107
F1
s(S'DP'
S'AAAADPP'
tp1108
F2
s(S'MP'
S'MAAVAP'
tp1109
F1
s(S'NP'
S'ADVANNNP'
tp1110
F1
s(S'VP'
S'AAAVVNP'
tp1111
F1
s(S'DP'
S'AADDVVP'
tp1112
F1
s(S'VP'
S'AAVCP'
tp1113
F5
s(S'NP'
S'NNADVCCP'
tp1114
F1
s(S'CP'
S'ADVADVCAADP'
tp1115
F1
s(S'NP'
S'NNNP'
tp1116
F4
s(S'PP'
S'PPVVVP'
tp1117
F10
s(S'VP'
S'VVNNNNP'
tp1118
F4
s(g921
S'AAPPNP'
tp1119
F2
s(S'NP'
S'NAAPP'
tp1120
F11
s(S'DP'
p1121
S'DDDDNNP'
tp1122
F2
s(S'NP'
S'ADVANNDP'
tp1123
F1
s(g377
S'ADVADVNACP'
tp1124
F2
s(g879
S'DAAAAP'
tp1125
F1
s(g211
S'DDPP'
tp1126
F472
s(g66
S'ADVANVVVVP'
tp1127
F1
s(S'VP'
S'VVAAPP'
tp1128
F3
s(S'NP'
S'ADVADVNPP'
tp1129
F6
s(S'AP'
S'AADVADVDP'
tp1130
F2
s(S'PP'
p1131
S'PPPPPPP'
tp1132
F1
s(S'DP'
S'DDADVADVPPP'
tp1133
F1
s(g51
S'NAACP'
tp1134
F27
s(S'VP'
S'VADVACP'
tp1135
F1
s(S'AP'
S'AADVAPP'
tp1136
F1
s(S'DP'
S'AAAADVVP'
tp1137
F1
s(S'VP'
S'VVADVADVDDP'
tp1138
F2
s(S'PP'
S'PPAADP'
tp1139
F2
s(g888
S'NAPPP'
tp1140
F8
s(g15
S'ACDP'
tp1141
F121
s(S'DP'
S'DDADVADVVP'
tp1142
F1
s(g915
S'PADVADVADVPPP'
tp1143
F1
s(S'DP'
S'AAADPPP'
tp1144
F1
s(g498
S'VAP'
tp1145
F408
s(S'VP'
S'VVVVNP'
tp1146
F6
s(S'DP'
S'ADVADVDDNNP'
tp1147
F2
s(S'PP'
S'ADVADVADVADVPPNP'
tp1148
F1
s(g131
S'PAAPP'
tp1149
F8
s(S'AP'
S'AAACP'
tp1150
F7
s(g700
S'PPPVP'
tp1151
F20
s(S'NP'
S'NNNNNADVADVAP'
tp1152
F1
s(S'NP'
p1153
S'ADVADVADVADVANVP'
tp1154
F1
s(S'NP'
S'NAADDP'
tp1155
F1
s(S'NP'
S'ANAVVP'
tp1156
F1
s(S'VP'
S'ADVADVADVADVVDP'
tp1157
F2
s(g1067
S'DADVADVDP'
tp1158
F1
s(S'VP'
S'VVVVADVAP'
tp1159
F1
s(S'PP'
S'PPPDDP'
tp1160
F8
s(S'AP'
p1161
S'AAAAAP'
tp1162
F2
s(S'DP'
S'DDAAAPPP'
tp1163
F1
s(S'NP'
S'ANNMP'
tp1164
F1
s(S'NP'
S'NADVDDP'
tp1165
F1
s(S'MP'
S'MVVPPP'
tp1166
F1
s(g686
S'NAAP'
tp1167
F43
s(g1153
S'NADVADVADVADVANP'
tp1168
F1
s(g186
S'NDDP'
tp1169
F73
s(S'VP'
S'VVADVDDP'
tp1170
F1
s(S'VP'
S'AVVDDP'
tp1171
F1
s(S'DP'
S'DDDADVPP'
tp1172
F3
s(S'VP'
S'AVPPP'
tp1173
F7
s(g746
S'ADVPAANP'
tp1174
F1
s(g186
S'NDP'
tp1175
F422
s(g658
S'AAANVP'
tp1176
F6
s(S'DP'
S'ADVDACP'
tp1177
F1
s(S'NP'
S'AANVP'
tp1178
F30
s(S'DP'
S'DADVADVAPP'
tp1179
F4
s(S'VP'
S'VNNNP'
tp1180
F24
s(S'VP'
S'ADVAVVDP'
tp1181
F1
s(S'CP'
S'CCCDDDDDDP'
tp1182
F1
s(S'NP'
S'NADVADVADVADVCP'
tp1183
F1
s(g377
S'NADVCCP'
tp1184
F10
s(S'VP'
S'VPPPP'
tp1185
F8
s(g669
S'ADVADVAAVP'
tp1186
F1
s(S'PP'
S'ADVADVAPAP'
tp1187
F1
s(S'PP'
S'AAPNNP'
tp1188
F4
s(S'VP'
S'VVVAP'
tp1189
F11
s(g211
S'ADPPP'
tp1190
F31
s(S'CP'
S'CCDDP'
tp1191
F101
s(S'VP'
S'ADVADVADVVPP'
tp1192
F1
s(S'NP'
S'ADVANAP'
tp1193
F2
s(g756
S'NAACCP'
tp1194
F8
s(g511
S'NNVVP'
tp1195
F58
s(S'PP'
S'PPADVPPP'
tp1196
F1
s(S'VP'
S'VADVNP'
tp1197
F33
s(S'VP'
S'VPPPPP'
tp1198
F5
s(S'AP'
S'AADVADP'
tp1199
F1
s(S'VP'
S'VVADVANNP'
tp1200
F1
s(g348
S'AADPP'
tp1201
F30
s(S'MP'
S'MADVVVCP'
tp1202
F1
s(S'DP'
S'DAAAANP'
tp1203
F2
s(g752
S'NNNVVVVP'
tp1204
F1
s(g1093
S'ADVDNNP'
tp1205
F7
s(S'PP'
S'ADVPPAVP'
tp1206
F1
s(g781
S'ADVADVNNCP'
tp1207
F2
s(g445
S'VVCCP'
tp1208
F17
s(S'CP'
S'ADVCAADP'
tp1209
F1
s(S'DP'
S'DADVADVNP'
tp1210
F5
s(g387
S'ADVPANP'
tp1211
F5
s(S'AP'
S'ADVANNP'
tp1212
F1
s(S'DP'
S'DDAPPP'
tp1213
F3
s(S'AP'
S'AAADVADVDDP'
tp1214
F1
s(S'NP'
S'NADVDP'
tp1215
F9
s(g674
S'ADVPPPP'
tp1216
F7
s(S'DP'
p1217
S'ADVDANNP'
tp1218
F1
s(g980
S'PADVAPP'
tp1219
F5
s(S'MP'
S'MVADVANP'
tp1220
F1
s(S'MP'
S'AAMMPP'
tp1221
F1
s(S'MP'
S'MPANP'
tp1222
F2
s(S'PP'
S'PPPAP'
tp1223
F4
s(S'NP'
p1224
S'ADVANVVP'
tp1225
F3
s(S'MP'
p1226
S'MVAP'
tp1227
F12
s(g44
S'PVP'
tp1228
F940
s(S'DP'
S'DADVAVP'
tp1229
F6
s(S'PP'
S'PPPPADVVP'
tp1230
F1
s(g434
S'ANNCP'
tp1231
F17
s(S'MP'
p1232
S'MMMMVP'
tp1233
F1
s(g80
S'PPDDP'
tp1234
F45
s(S'VP'
S'AVCP'
tp1235
F25
s(S'CP'
S'CADVDDPPP'
tp1236
F1
s(S'NP'
S'ADVNVP'
tp1237
F27
s(S'PP'
S'AAAPNNP'
tp1238
F1
s(S'DP'
S'DDADVPPP'
tp1239
F1
s(S'NP'
S'NNADVADVPP'
tp1240
F1
s(S'CP'
S'AACCADVDP'
tp1241
F1
s(S'DP'
S'DDAAAANP'
tp1242
F2
s(S'DP'
p1243
S'AADPPPP'
tp1244
F1
s(S'PP'
S'PDDDP'
tp1245
F19
s(S'CP'
S'CADVADVADVDPP'
tp1246
F2
s(S'NP'
S'ANNDDP'
tp1247
F1
s(S'NP'
S'NNNNCP'
tp1248
F18
s(S'MP'
S'MDNP'
tp1249
F8
s(S'NP'
S'NNAACP'
tp1250
F7
s(S'PP'
S'PPADVADVVP'
tp1251
F2
s(S'CP'
S'CDPPPPP'
tp1252
F14
s(g1131
S'APAAP'
tp1253
F2
s(S'NP'
S'NAANP'
tp1254
F2
s(S'VP'
S'VVDDP'
tp1255
F45
s(g475
S'VAADDP'
tp1256
F2
s(S'DP'
S'DAANP'
tp1257
F32
s(S'PP'
S'PPPPNNP'
tp1258
F3
s(S'PP'
S'PNNNNP'
tp1259
F5
s(g40
S'ADVADVNVVP'
tp1260
F3
s(S'NP'
S'ADVNCCCP'
tp1261
F1
s(S'CP'
S'CADVADVDPP'
tp1262
F9
s(S'CP'
S'ADVADVADVCCDP'
tp1263
F2
s(S'NP'
p1264
S'NNAVP'
tp1265
F8
s(S'VP'
S'AAVADVPP'
tp1266
F1
s(S'NP'
S'NNAAPP'
tp1267
F2
s(g392
S'PPPANP'
tp1268
F1
s(S'DP'
S'DDDDDDPP'
tp1269
F1
s(S'VP'
S'VVVAAANP'
tp1270
F1
s(S'PP'
S'ADVADVPVVP'
tp1271
F1
s(S'AP'
S'ADVADVAADP'
tp1272
F1
s(S'NP'
S'NAAAPP'
tp1273
F1
s(S'VP'
S'ADVAVNP'
tp1274
F13
s(S'PP'
S'ADVADVPPAANNP'
tp1275
F1
s(g854
S'VVVNNP'
tp1276
F6
s(g96
S'ADVADVDDPP'
tp1277
F7
s(S'VP'
S'ADVADVVVVVP'
tp1278
F1
s(S'MP'
S'MMMNP'
tp1279
F1
s(S'MP'
S'MVVNNP'
tp1280
F2
s(g236
S'ADVCADP'
tp1281
F14
s(S'NP'
S'ANMMMP'
tp1282
F1
s(g545
S'PPNNP'
tp1283
F87
s(S'MP'
S'MPPNP'
tp1284
F1
s(S'PP'
S'APADDDP'
tp1285
F1
s(S'NP'
S'AAANCCP'
tp1286
F2
s(g44
S'PPAVP'
tp1287
F5
s(g1035
S'DDNNNNP'
tp1288
F2
s(g1243
S'ADVDAAPP'
tp1289
F5
s(g1121
S'AADDPPP'
tp1290
F2
s(g131
S'ADVPAAANP'
tp1291
F1
s(S'DP'
p1292
S'DAPPP'
tp1293
F13
s(g1161
S'AAADVDP'
tp1294
F1
s(S'NP'
S'AANVVP'
tp1295
F3
s(S'NP'
S'NNADVADVADP'
tp1296
F1
s(S'NP'
S'AAANPP'
tp1297
F1
s(g211
S'ADPP'
tp1298
F221
s(g77
S'VADVPP'
tp1299
F12
s(S'CP'
S'CCADVDDP'
tp1300
F2
s(g811
S'ADVPVP'
tp1301
F37
s(g259
S'ADVPDDP'
tp1302
F5
s(g219
S'DDDDDPP'
tp1303
F2
s(S'DP'
S'ADVADVADVADVDDPP'
tp1304
F1
s(S'PP'
S'PADVADVAP'
tp1305
F1
s(S'AP'
S'ADVAPP'
tp1306
F14
s(S'PP'
S'ADVPPVVP'
tp1307
F1
s(g270
S'ADVPAAADP'
tp1308
F1
s(g94
S'AACDP'
tp1309
F36
s(S'VP'
S'ADVADVADVVVNP'
tp1310
F1
s(S'NP'
S'NNCCCP'
tp1311
F7
s(S'MP'
S'MNPPP'
tp1312
F1
s(S'CP'
S'CAAAADPP'
tp1313
F1
s(g387
S'ADVPAANNP'
tp1314
F1
s(g1264
S'NNADVPPP'
tp1315
F1
s(g302
S'PPANP'
tp1316
F17
s(S'NP'
S'AAANADVAP'
tp1317
F1
s(S'VP'
p1318
S'ADVADVADVVVCP'
tp1319
F2
s(S'MP'
S'MAAVVNP'
tp1320
F1
s(S'PP'
S'ADVADVAPVVP'
tp1321
F2
s(S'DP'
S'DDDDVP'
tp1322
F4
s(S'NP'
S'AANNAP'
tp1323
F1
s(S'VP'
S'VVAAAP'
tp1324
F5
s(S'CP'
p1325
S'CAAADPP'
tp1326
F7
s(g980
S'PAAANP'
tp1327
F4
s(g722
S'ADDPP'
tp1328
F16
s(S'VP'
S'VVADVVP'
tp1329
F1
s(g80
S'PAPP'
tp1330
F51
s(S'PP'
S'ADVADVADVPAAPP'
tp1331
F1
s(g348
S'DAAP'
tp1332
F17
s(S'VP'
S'VAVP'
tp1333
F10
s(S'MP'
p1334
S'MVDP'
tp1335
F39
s(S'AP'
S'ADVAPPP'
tp1336
F1
s(S'NP'
S'NNNNADVAP'
tp1337
F1
s(g110
S'VACP'
tp1338
F11
s(S'AP'
S'AAAVP'
tp1339
F4
s(S'VP'
S'VVVAAAP'
tp1340
F1
s(g190
S'DADVVP'
tp1341
F24
s(S'VP'
S'VVADDP'
tp1342
F1
s(S'MP'
S'MAAVNP'
tp1343
F1
s(S'NP'
S'NADVACP'
tp1344
F4
s(g893
S'NCCCP'
tp1345
F28
s(g774
S'NMMP'
tp1346
F25
s(g1018
S'ADVADVDDVVP'
tp1347
F1
s(S'VP'
S'ADVAVPPP'
tp1348
F2
s(S'DP'
S'DDADVADVPP'
tp1349
F1
s(S'CP'
S'CADVADVDADVPPPP'
tp1350
F1
s(S'VP'
S'VVADVNNP'
tp1351
F1
s(g1050
S'DDP'
tp1352
F149
s(S'NP'
S'NNNPP'
tp1353
F27
s(S'NP'
S'NNADVADVCP'
tp1354
F1
s(g876
S'DADVDDP'
tp1355
F1
s(g595
S'PPMMP'
tp1356
F2
s(S'CP'
S'CCADVADVDP'
tp1357
F4
s(S'CP'
S'CAAAADDPPP'
tp1358
F2
s(S'AP'
S'ANP'
tp1359
F4
s(g243
S'ADVADVADVADVNCP'
tp1360
F1
s(g80
S'AAPPPP'
tp1361
F7
s(S'DP'
p1362
S'ADNNNP'
tp1363
F2
s(g421
S'VVP'
tp1364
F140
s(S'DP'
S'DADVADVVVP'
tp1365
F1
s(S'AP'
S'AAAADP'
tp1366
F6
s(S'VP'
S'ADVVAANP'
tp1367
F1
s(S'DP'
S'ADVDDPP'
tp1368
F31
s(S'VP'
S'ADVVADVNP'
tp1369
F1
s(g498
S'AVNP'
tp1370
F76
s(S'DP'
S'AAADVDAPPP'
tp1371
F1
s(S'NP'
S'ADVNDDP'
tp1372
F1
s(S'DP'
S'DDAAANP'
tp1373
F1
s(S'AP'
S'AAAVVVP'
tp1374
F1
s(S'DP'
S'DDADVVP'
tp1375
F6
s(S'NP'
S'NNAAAVVP'
tp1376
F1
s(S'PP'
S'ADVAPVP'
tp1377
F9
s(g1224
S'NCCCCP'
tp1378
F5
s(S'PP'
S'ADVADVAPNP'
tp1379
F1
s(S'NP'
p1380
S'NNNAAP'
tp1381
F1
s(S'AP'
S'AVVVVP'
tp1382
F1
s(S'DP'
S'DDANNP'
tp1383
F1
s(S'PP'
S'ADVPNNP'
tp1384
F4
s(S'NP'
S'NNADVANP'
tp1385
F1
s(S'CP'
S'CADVADVDADVAPP'
tp1386
F1
s(S'VP'
S'VVACCP'
tp1387
F1
s(S'CP'
S'CDDPPPP'
tp1388
F12
s(S'AP'
S'AAADVVP'
tp1389
F1
s(g973
S'DADVADVADVDP'
tp1390
F1
s(S'DP'
S'ADDNP'
tp1391
F6
s(S'PP'
S'PAAVVP'
tp1392
F2
s(S'PP'
S'AAAPPDDP'
tp1393
F1
s(S'AP'
S'ACCCP'
tp1394
F3
s(S'NP'
S'NADVMP'
tp1395
F4
s(S'DP'
S'ADVDAAAPP'
tp1396
F1
s(S'VP'
S'VVAPP'
tp1397
F5
s(S'NP'
S'ADVADVNDP'
tp1398
F2
s(g507
S'DAAVP'
tp1399
F11
s(S'CP'
S'CDDDDPP'
tp1400
F8
s(S'DP'
S'ADADVDP'
tp1401
F1
s(g377
S'ANVP'
tp1402
F115
s(S'NP'
S'NNNDDDP'
tp1403
F1
s(S'PP'
S'PAAAADP'
tp1404
F2
s(S'AP'
S'ADVAADP'
tp1405
F3
s(g1106
S'ADVMVP'
tp1406
F3
s(S'NP'
S'NNADP'
tp1407
F1
s(S'DP'
S'AAADADVPP'
tp1408
F1
s(S'NP'
S'ADVADVANDP'
tp1409
F2
s(S'MP'
S'MDNNP'
tp1410
F1
s(g445
S'VVADVPP'
tp1411
F2
s(S'PP'
S'PPCP'
tp1412
F1
s(S'VP'
S'ADVVADVNNP'
tp1413
F1
s(S'CP'
S'CCCCDDP'
tp1414
F2
s(S'PP'
S'PPPNNP'
tp1415
F10
s(S'NP'
S'ANDP'
tp1416
F35
s(g31
S'ANPPPP'
tp1417
F2
s(g726
S'ADVMAVP'
tp1418
F1
s(g136
S'CDDAAPP'
tp1419
F7
s(S'CP'
S'CADVADPP'
tp1420
F9
s(S'PP'
S'AAPVVP'
tp1421
F3
s(S'NP'
S'ADVADVADVANVVP'
tp1422
F1
s(S'DP'
S'ADVADVDVP'
tp1423
F2
s(S'NP'
p1424
S'AANADVANP'
tp1425
F1
s(S'PP'
S'ADVADVADVPPP'
tp1426
F1
s(S'NP'
S'ADVNNPP'
tp1427
F6
s(g530
S'VADVAPP'
tp1428
F5
s(S'CP'
S'CCADDP'
tp1429
F1
s(S'DP'
S'DDDADVNP'
tp1430
F1
s(g202
S'PAVVP'
tp1431
F9
s(S'MP'
S'MVPP'
tp1432
F29
s(S'AP'
S'AADVADVVP'
tp1433
F2
s(S'MP'
S'ADVMVVP'
tp1434
F1
s(S'NP'
S'NADVADVPPP'
tp1435
F2
s(S'DP'
S'DDDDNP'
tp1436
F4
s(S'PP'
S'PPPAANNP'
tp1437
F1
s(g911
S'DAAAVVP'
tp1438
F1
s(g136
S'CCDP'
tp1439
F381
s(S'NP'
S'ADVNNDP'
tp1440
F3
s(S'DP'
S'ADVADVADVDPP'
tp1441
F4
s(S'VP'
p1442
S'ADVVADP'
tp1443
F2
s(g475
S'VAAVP'
tp1444
F1
s(S'CP'
S'ACCCDP'
tp1445
F1
s(g208
S'AADDPP'
tp1446
F8
s(g872
S'ADVNAADVCP'
tp1447
F1
s(S'CP'
S'CDDDPP'
tp1448
F41
s(S'PP'
S'PADVADVADVANP'
tp1449
F1
s(S'VP'
S'AVVAP'
tp1450
F2
s(S'VP'
S'VADVADVADVDDP'
tp1451
F1
s(S'NP'
S'NNADVDP'
tp1452
F4
s(S'NP'
p1453
S'ANNPPP'
tp1454
F3
s(S'DP'
S'DDNNNP'
tp1455
F8
s(g339
S'APVVVP'
tp1456
F3
s(S'AP'
S'AADVVVP'
tp1457
F2
s(S'DP'
S'DADVADVPPP'
tp1458
F6
s(S'NP'
S'NNDDP'
tp1459
F10
s(g193
S'CADPP'
tp1460
F162
s(S'MP'
S'MVADDP'
tp1461
F1
s(S'NP'
S'NNNADVCP'
tp1462
F1
s(S'DP'
S'ADVDDPPP'
tp1463
F1
s(S'CP'
S'CDDDPPP'
tp1464
F9
s(S'MP'
S'MADVVAP'
tp1465
F1
s(S'CP'
S'CDDDDPPP'
tp1466
F1
s(S'MP'
S'MCCDP'
tp1467
F3
s(S'NP'
S'ANNCCCP'
tp1468
F1
s(S'NP'
S'NANP'
tp1469
F2
s(g1362
S'DVVP'
tp1470
F140
s(g127
S'ADVCAAADP'
tp1471
F1
s(g606
S'AAANCP'
tp1472
F5
s(g1023
S'VVDP'
tp1473
F218
s(g44
S'PPAPP'
tp1474
F4
s(S'MP'
S'MNNNNCP'
tp1475
F1
s(g1362
S'DAVP'
tp1476
F55
s(S'VP'
S'AVVVP'
tp1477
F1
s(S'VP'
S'VAAAANP'
tp1478
F1
s(g848
S'PAAAPP'
tp1479
F2
s(g80
S'PPNP'
tp1480
F302
s(S'NP'
S'ADVADVANPP'
tp1481
F2
s(g1292
S'AAADNNP'
tp1482
F1
s(g35
S'NNNNCCP'
tp1483
F2
s(S'VP'
S'VAANNP'
tp1484
F2
s(S'CP'
S'ADVADVADVACDP'
tp1485
F1
s(S'NP'
S'ANADVADVDDP'
tp1486
F1
s(S'DP'
S'ADDVVP'
tp1487
F2
s(S'VP'
S'VVPPPP'
tp1488
F1
s(S'AP'
S'AAADP'
tp1489
F24
s(S'PP'
S'ADVAPDDP'
tp1490
F1
s(S'DP'
S'ADVDDNNP'
tp1491
F1
s(S'CP'
S'CDDDAPP'
tp1492
F1
s(S'MP'
S'MDDVP'
tp1493
F1
s(S'NP'
S'AANNVVP'
tp1494
F4
s(S'NP'
S'NADVADVDP'
tp1495
F2
s(S'DP'
S'DDADVADVNNP'
tp1496
F2
s(g786
S'AADDNP'
tp1497
F3
s(S'PP'
S'PADVADVADVMP'
tp1498
F1
s(S'PP'
S'PPPNP'
tp1499
F37
s(g710
S'DDDDDP'
tp1500
F2
s(S'DP'
S'ADVADDDP'
tp1501
F1
s(g826
S'NPPPP'
tp1502
F12
s(g1325
S'CAADPP'
tp1503
F20
s(g530
S'VVVADVADVNNP'
tp1504
F1
s(S'VP'
S'VVADVNP'
tp1505
F2
s(g44
S'APNNP'
tp1506
F23
s(S'DP'
S'AAADPP'
tp1507
F10
s(S'AP'
S'AANNP'
tp1508
F1
s(S'PP'
S'PCCP'
tp1509
F2
s(S'NP'
S'ADVADVANNVP'
tp1510
F1
s(S'NP'
S'NNACP'
tp1511
F10
s(S'CP'
S'CDADVPPP'
tp1512
F15
s(g1334
S'MMAAVP'
tp1513
F1
s(S'MP'
S'MNVVP'
tp1514
F1
s(S'CP'
S'CDDDADVADVAPP'
tp1515
F1
s(S'VP'
S'VVAAPPP'
tp1516
F1
s(S'MP'
S'MAVPP'
tp1517
F2
s(g110
S'ADVAVDP'
tp1518
F5
s(g1217
S'DDDAP'
tp1519
F1
s(S'PP'
S'PADVADVADP'
tp1520
F1
s(S'DP'
S'ADADVVP'
tp1521
F1
s(S'MP'
S'MANVP'
tp1522
F1
s(S'DP'
S'ADADVAPP'
tp1523
F1
s(S'NP'
S'NADVADVCP'
tp1524
F6
s(g844
S'MADP'
tp1525
F1
s(g281
S'NNNDDP'
tp1526
F3
s(S'AP'
S'AMMP'
tp1527
F1
s(S'DP'
S'DDADVNP'
tp1528
F5
s(g153
S'PANP'
tp1529
F179
s(S'NP'
S'AANMP'
tp1530
F1
s(g636
S'AAVP'
tp1531
F31
s(g616
S'ACCP'
tp1532
F18
s(S'VP'
S'VVVVAP'
tp1533
F1
s(S'NP'
S'NNNNVVP'
tp1534
F1
s(g804
S'ADADVPPP'
tp1535
F2
s(g821
S'ADDVP'
tp1536
F3
s(g525
S'VADVADP'
tp1537
F5
s(S'PP'
S'PAADDP'
tp1538
F1
s(S'CP'
S'ACADVDDP'
tp1539
F1
s(g125
S'PAADP'
tp1540
F7
s(g683
S'ADVNNVP'
tp1541
F7
s(S'DP'
S'ADVADVADVDDNP'
tp1542
F1
s(S'MP'
S'MADVADVVCP'
tp1543
F2
s(S'PP'
S'PPPVVP'
tp1544
F7
s(S'VP'
S'VVVVAANNP'
tp1545
F1
s(S'AP'
S'ADVACP'
tp1546
F8
s(S'NP'
S'ADVADVNMP'
tp1547
F1
s(S'VP'
S'AVVDP'
tp1548
F7
s(g730
S'PPAPPP'
tp1549
F2
s(g186
S'NCP'
tp1550
F1046
s(S'NP'
S'NNADVVP'
tp1551
F9
s(S'VP'
S'AAVCCP'
tp1552
F2
s(g1226
S'MADVADVADVVPP'
tp1553
F1
s(S'DP'
S'DADVNP'
tp1554
F38
s(S'NP'
S'NNNNVP'
tp1555
F10
s(g54
S'VVCP'
tp1556
F88
s(g1023
S'VDP'
tp1557
F935
s(S'VP'
S'VVDDDP'
tp1558
F9
s(g509
S'ADVADVDDVP'
tp1559
F1
s(S'AP'
S'AAAADDP'
tp1560
F1
s(S'AP'
S'AADVDP'
tp1561
F8
s(g1424
S'ADVANDP'
tp1562
F5
s(S'AP'
S'AAAP'
tp1563
F4
s(S'CP'
S'ACADVDP'
tp1564
F2
s(g51
S'NADVCP'
tp1565
F49
s(S'NP'
S'NNADVAP'
tp1566
F2
s(S'PP'
S'PADVADVVVP'
tp1567
F3
s(g1104
S'ADVNAAP'
tp1568
F1
s(g1217
S'DADVADVANP'
tp1569
F1
s(S'VP'
S'VVVADVNP'
tp1570
F1
s(g1232
S'MVVNP'
tp1571
F8
s(S'CP'
S'CDDADVPPP'
tp1572
F1
s(S'CP'
S'CAAADDPP'
tp1573
F1
s(S'CP'
S'ADVCCCDP'
tp1574
F1
s(g636
S'AAPP'
tp1575
F18
s(S'PP'
S'PCP'
tp1576
F13
s(S'AP'
S'ADVADVAACCP'
tp1577
F1
s(S'NP'
S'NADVADVADVMP'
tp1578
F1
s(g315
S'VDDDP'
tp1579
F25
s(g686
S'NNMP'
tp1580
F22
s(S'DP'
S'DDDVP'
tp1581
F14
s(S'DP'
S'ADVDDAP'
tp1582
F1
s(g294
S'CDDAPP'
tp1583
F17
s(S'NP'
S'ANAP'
tp1584
F12
s(S'AP'
S'AADVADVADVDDP'
tp1585
F1
s(S'AP'
S'ADVADVAPP'
tp1586
F2
s(g77
S'VADVCCP'
tp1587
F3
s(g1442
S'VADVADVADVCCP'
tp1588
F1
s(S'NP'
S'NADVADVAP'
tp1589
F1
s(S'NP'
S'NAVVP'
tp1590
F5
s(g1318
S'AVAAAP'
tp1591
F1
s(g69
S'DANP'
tp1592
F179
s(S'DP'
S'AAADAAAP'
tp1593
F1
s(S'MP'
S'MAACDP'
tp1594
F1
s(g612
S'AAPPVP'
tp1595
F1
s(S'VP'
S'ADVAVNNP'
tp1596
F3
s(g698
S'PADVPPP'
tp1597
F12
s(S'PP'
S'ADVADVPPP'
tp1598
F1
s(S'PP'
S'ADVPADVADVDDP'
tp1599
F1
s(S'PP'
S'APADVAP'
tp1600
F2
s(S'AP'
S'AADVADVCP'
tp1601
F1
s(S'AP'
S'ADVADVACP'
tp1602
F2
s(S'DP'
S'ADVAADPPP'
tp1603
F1
s(g296
S'ADDP'
tp1604
F114
s(S'PP'
S'ADVPPNP'
tp1605
F9
s(S'MP'
S'MVADVAPP'
tp1606
F1
s(S'CP'
S'ADVADVADVCDP'
tp1607
F1
s(g211
S'DPPP'
tp1608
F463
s(S'VP'
S'VANNP'
tp1609
F5
s(g770
S'DDADVADVNP'
tp1610
F3
s(g44
S'ADVPNP'
tp1611
F47
s(g125
S'PPDP'
tp1612
F207
s(S'MP'
S'MAVDP'
tp1613
F2
s(g142
S'NADVADVACP'
tp1614
F1
s(g985
S'AAPPADVNP'
tp1615
F1
s(S'NP'
S'NNAAACP'
tp1616
F1
s(g1292
S'DDCP'
tp1617
F4
s(S'AP'
S'AAAAACCP'
tp1618
F2
s(g1380
S'ANADVPPP'
tp1619
F1
s(S'DP'
S'ADVADVDNNNNP'
tp1620
F1
s(g129
S'DDAPP'
tp1621
F28
s(S'PP'
S'ADVADVPVP'
tp1622
F5
s(g44
S'APNP'
tp1623
F126
s(S'AP'
S'AAADDP'
tp1624
F9
s(S'VP'
S'VVVADVANP'
tp1625
F1
s(S'MP'
S'MVANP'
tp1626
F6
s(S'MP'
S'MVNNP'
tp1627
F7
s(S'DP'
S'AAAADDP'
tp1628
F1
s(S'DP'
S'AAADDPP'
tp1629
F1
s(S'PP'
S'ADVPPPPP'
tp1630
F1
s(g447
S'ADVADVVCP'
tp1631
F6
s(g110
S'VADVADVDP'
tp1632
F2
s(S'CP'
S'CAADDPP'
tp1633
F5
s(S'PP'
S'PPPADVNP'
tp1634
F1
s(g1318
S'AVDDP'
tp1635
F12
s(g328
S'ADVADVCDDP'
tp1636
F3
s(S'DP'
S'DDCCP'
tp1637
F1
s(S'NP'
S'NADVAVP'
tp1638
F5
s(g86
S'ADVVPPP'
tp1639
F3
s(S'VP'
S'VVDDDDP'
tp1640
F3
s(S'NP'
S'NADVADVMP'
tp1641
F1
s(S'CP'
S'CAADPPP'
tp1642
F7
s(S'PP'
S'APNNNP'
tp1643
F1
s(S'DP'
S'ADVADADVPP'
tp1644
F1
s(g562
S'PPADVADVPPP'
tp1645
F1
s(S'PP'
S'PAAAVP'
tp1646
F2
s(S'AP'
S'AADP'
tp1647
F154
s(S'PP'
S'PPAAVP'
tp1648
F4
s(S'NP'
p1649
S'NNADVVVP'
tp1650
F1
s(g973
S'ADVDANP'
tp1651
F9
s(S'VP'
S'ADVADVADVVANP'
tp1652
F1
s(S'AP'
S'AAAADDDDP'
tp1653
F1
s(S'VP'
S'AAVAAP'
tp1654
F2
s(S'PP'
S'PAMP'
tp1655
F1
s(S'PP'
S'ADVPDP'
tp1656
F18
s(S'NP'
S'ANADVDP'
tp1657
F1
s(S'PP'
S'PPAAANP'
tp1658
F2
s(S'CP'
S'CADVDPPP'
tp1659
F7
s(S'DP'
S'ADDAP'
tp1660
F1
s(S'PP'
S'AAAPNP'
tp1661
F3
s(S'DP'
S'ADVVP'
tp1662
F10
s(S'PP'
S'APADVANP'
tp1663
F1
s(S'MP'
S'MNVP'
tp1664
F15
s(S'NP'
S'NPPPPP'
tp1665
F5
s(g1318
S'ADVVDP'
tp1666
F43
s(g1102
S'CCADP'
tp1667
F19
s(S'PP'
S'ADVADVADVPNP'
tp1668
F1
s(S'NP'
S'NNNPPP'
tp1669
F2
s(S'DP'
S'ADVDAVP'
tp1670
F1
s(S'CP'
S'CCDDDP'
tp1671
F9
s(g1453
S'ADVNPP'
tp1672
F16
s(g1649
S'ADVADVANMP'
tp1673
F1
s(S'NP'
S'NADVVP'
tp1674
F46
s(g13
S'NNADVADVVP'
tp1675
F2
s(g348
S'DDPPP'
tp1676
F97
s(S'PP'
S'ADVADVAPNNP'
tp1677
F2
s(g1016
S'AAAVNP'
tp1678
F1
s(g1023
S'VNP'
tp1679
F867
s(g530
S'VANP'
tp1680
F102
s(g367
S'PPADVNP'
tp1681
F11
s(S'NP'
S'NADVPPP'
tp1682
F3
s(S'CP'
S'CADADVAPP'
tp1683
F1
s.