ccollections
defaultdict
p1
(c__builtin__
float
p2
tRp3
(S'PP'
p4
S'PAAANP'
tp5
F2
s(S'DP'
S'ADDPP'
tp6
F1
s(S'CP'
p7
S'CCDDDDP'
tp8
F1
s(S'PP'
p9
S'PAPP'
tp10
F3
s(S'PP'
p11
S'PADVNP'
tp12
F3
s(S'DP'
p13
S'DNP'
tp14
F64
s(S'NP'
S'ADVNDP'
tp15
F1
s(S'CP'
p16
S'CDPPP'
tp17
F21
s(S'VP'
S'VADP'
tp18
F5
s(S'NP'
p19
S'ADVNCCP'
tp20
F3
s(S'PP'
S'APPDP'
tp21
F2
s(S'VP'
S'ADVVNP'
tp22
F3
s(S'MP'
S'MVDP'
tp23
F3
s(S'PP'
p24
S'PPPP'
tp25
F9
s(S'DP'
S'DDDNP'
tp26
F1
s(S'MP'
S'AMCP'
tp27
F1
s(S'VP'
S'VACP'
tp28
F1
s(S'DP'
p29
S'DADVVP'
tp30
F6
s(S'NP'
p31
S'NCCCP'
tp32
F1
s(S'VP'
p33
S'VCP'
tp34
F21
s(S'NP'
p35
S'NMMP'
tp36
F3
s(S'VP'
S'AAVNNNP'
tp37
F1
s(S'PP'
p38
S'PAP'
tp39
F21
s(S'MP'
p40
S'MMVVP'
tp41
F1
s(S'PP'
p42
S'ADVPPVP'
tp43
F3
s(g19
S'NNNNVVVP'
tp44
F1
s(S'PP'
p45
S'PNP'
tp46
F63
s(S'VP'
p47
S'VVADVNNP'
tp48
F1
s(S'DP'
p49
S'DDP'
tp50
F12
s(S'NP'
S'NNNPP'
tp51
F1
s(S'VP'
p52
S'VCCP'
tp53
F5
s(S'MP'
S'MCDP'
tp54
F1
s(S'DP'
p55
S'ADVADVADNP'
tp56
F1
s(S'NP'
p57
S'NMP'
tp58
F12
s(S'VP'
p59
S'VAAADP'
tp60
F1
s(S'VP'
S'AAVNP'
tp61
F3
s(g45
S'PDP'
tp62
F55
s(S'CP'
S'CDADVADVPP'
tp63
F1
s(S'NP'
p64
S'AAANVVP'
tp65
F1
s(S'CP'
p66
S'CDADVADVPPP'
tp67
F1
s(S'AP'
S'ANP'
tp68
F1
s(S'PP'
p69
S'PADVPP'
tp70
F1
s(S'VP'
S'AAVPP'
tp71
F1
s(S'DP'
S'DPPPP'
tp72
F2
s(S'NP'
S'NACP'
tp73
F6
s(S'AP'
S'ADVAVP'
tp74
F1
s(S'NP'
p75
S'NCCP'
tp76
F14
s(S'AP'
S'AAAADP'
tp77
F1
s(S'NP'
p78
S'NNCP'
tp79
F19
s(S'NP'
p80
S'NADVADVVP'
tp81
F2
s(S'DP'
p82
S'DDDDP'
tp83
F1
s(S'VP'
S'AVNP'
tp84
F4
s(S'CP'
S'CCCDP'
tp85
F1
s(g59
S'ADVVAP'
tp86
F3
s(S'PP'
S'APDP'
tp87
F6
s(S'PP'
S'ADVADVAPNP'
tp88
F1
s(S'VP'
S'ADVVNNP'
tp89
F1
s(S'AP'
p90
S'AADVCP'
tp91
F1
s(S'VP'
S'ADVAVCCP'
tp92
F1
s(S'PP'
S'ADVPNNP'
tp93
F1
s(S'DP'
p94
S'DAAP'
tp95
F2
s(S'PP'
p96
S'PAAP'
tp97
F3
s(S'NP'
S'ADVANCP'
tp98
F1
s(g55
S'DNNP'
tp99
F24
s(S'CP'
S'CDDPPPP'
tp100
F1
s(S'CP'
p101
S'CCADVDP'
tp102
F1
s(S'VP'
p103
S'VVNNNP'
tp104
F2
s(S'NP'
S'NNNVP'
tp105
F2
s(S'PP'
S'PADVVP'
tp106
F2
s(S'MP'
S'MVVDDP'
tp107
F1
s(S'PP'
S'APAP'
tp108
F2
s(S'AP'
S'APP'
tp109
F15
s(S'VP'
S'ADVADVVVNNNP'
tp110
F1
s(S'AP'
p111
S'AAP'
tp112
F5
s(S'MP'
S'MVVCP'
tp113
F1
s(S'VP'
p114
S'VADVADVNP'
tp115
F1
s(S'CP'
S'CDDDDPP'
tp116
F1
s(S'PP'
S'PAANP'
tp117
F1
s(S'VP'
p118
S'VADVADVCP'
tp119
F1
s(S'NP'
p120
S'ANVP'
tp121
F4
s(g40
S'MVNP'
tp122
F4
s(S'CP'
p123
S'CDDDPPP'
tp124
F1
s(S'PP'
p125
S'PAVP'
tp126
F3
s(S'NP'
S'NNNNCCCCCP'
tp127
F1
s(S'PP'
p128
S'ADVADVPPVP'
tp129
F1
s(S'VP'
S'VVVPP'
tp130
F1
s(S'VP'
p131
S'VVADVAPP'
tp132
F1
s(g125
S'AAAAPPP'
tp133
F1
s(S'DP'
p134
S'DADP'
tp135
F1
s(S'AP'
p136
S'ADVADP'
tp137
F2
s(g101
S'ADVADVCDP'
tp138
F1
s(S'VP'
S'VANNP'
tp139
F1
s(S'PP'
p140
S'PPCP'
tp141
F1
s(S'PP'
p142
S'APVP'
tp143
F4
s(S'VP'
p144
S'VVNP'
tp145
F12
s(S'PP'
p146
S'PPVP'
tp147
F13
s(S'VP'
S'VADVDP'
tp148
F2
s(g144
S'VAAP'
tp149
F5
s(S'NP'
p150
S'ANDP'
tp151
F2
s(g35
S'NVVP'
tp152
F14
s(S'VP'
S'VMP'
tp153
F2
s(S'VP'
p154
S'VVNNP'
tp155
F1
s(S'CP'
S'CDAPP'
tp156
F7
s(g114
S'VVAAP'
tp157
F3
s(S'DP'
p158
S'ADVADVDDVP'
tp159
F1
s(g29
S'ADNP'
tp160
F3
s(S'PP'
p161
S'PADP'
tp162
F3
s(S'DP'
p163
S'ADVADVDVP'
tp164
F1
s(S'DP'
S'DAPP'
tp165
F8
s(S'VP'
p166
S'VAAPP'
tp167
F1
s(S'DP'
S'ADVDNP'
tp168
F1
s(S'VP'
p169
S'VVPP'
tp170
F8
s(g29
S'ADADVPP'
tp171
F2
s(S'CP'
S'AACDDP'
tp172
F1
s(g40
S'MVPP'
tp173
F3
s(S'DP'
p174
S'ADVP'
tp175
F2
s(g163
S'DDAAPP'
tp176
F1
s(g103
S'ADVVVDP'
tp177
F2
s(S'PP'
S'ADVPPAPP'
tp178
F1
s(S'NP'
p179
S'NNPP'
tp180
F7
s(S'AP'
p181
S'AACP'
tp182
F4
s(g142
S'PPVVP'
tp183
F3
s(g158
S'DNNNP'
tp184
F1
s(S'VP'
p185
S'ADVVCP'
tp186
F1
s(g161
S'PVVVP'
tp187
F1
s(g146
S'PMP'
tp188
F6
s(S'CP'
S'CCDP'
tp189
F19
s(S'DP'
S'ADVADVADVDPP'
tp190
F1
s(S'VP'
S'VADVANP'
tp191
F1
s(g158
S'AADDPP'
tp192
F1
s(S'CP'
p193
S'CDDDPP'
tp194
F2
s(g66
S'CDAAPP'
tp195
F1
s(S'VP'
S'VVVDP'
tp196
F1
s(g185
S'ADVVVMP'
tp197
F1
s(S'AP'
p198
S'AACCP'
tp199
F1
s(S'PP'
p200
S'AAPNP'
tp201
F3
s(S'CP'
S'CADADVPP'
tp202
F1
s(S'PP'
p203
S'PADVVVP'
tp204
F2
s(g4
S'PPP'
tp205
F33
s(S'MP'
S'MADVADVVADVAP'
tp206
F1
s(g75
S'NAVP'
tp207
F3
s(g38
S'PADVAP'
tp208
F4
s(S'DP'
p209
S'ADVDVP'
tp210
F4
s(S'NP'
S'NADVVVP'
tp211
F1
s(g174
S'DADVADVPPP'
tp212
F1
s(S'CP'
p213
S'CCADVADVADVDP'
tp214
F1
s(S'VP'
S'VAAAAP'
tp215
F1
s(g114
S'VPP'
tp216
F39
s(g213
S'ADVCCDP'
tp217
F3
s(S'CP'
S'ACCDP'
tp218
F1
s(S'CP'
p219
S'CDAAAAPP'
tp220
F1
s(S'NP'
p221
S'NNNCP'
tp222
F1
s(S'PP'
S'PADVDP'
tp223
F4
s(S'AP'
S'ADVAADP'
tp224
F1
s(g16
S'CDDPP'
tp225
F18
s(g174
S'DAAPP'
tp226
F2
s(g161
S'PVVP'
tp227
F13
s(g7
S'CADPPP'
tp228
F2
s(S'DP'
p229
S'DADVPPP'
tp230
F2
s(g146
S'PMMP'
tp231
F2
s(S'VP'
p232
S'VPPP'
tp233
F4
s(g94
S'DDAVP'
tp234
F1
s(g200
S'PPAP'
tp235
F4
s(S'DP'
S'DVVP'
tp236
F15
s(S'AP'
p237
S'APPP'
tp238
F2
s(g33
S'VVVP'
tp239
F3
s(S'DP'
p240
S'DDPPPP'
tp241
F1
s(g75
S'ANCP'
tp242
F6
s(S'DP'
S'DCP'
tp243
F2
s(g64
S'AAANCP'
tp244
F1
s(g49
S'DDDP'
tp245
F5
s(g80
S'ANVVP'
tp246
F2
s(g169
S'VVDP'
tp247
F16
s(g179
S'NPPP'
tp248
F13
s(S'DP'
S'DAVP'
tp249
F3
s(g237
S'ACP'
tp250
F17
s(g38
S'PPNP'
tp251
F18
s(S'DP'
S'ADVDAPP'
tp252
F1
s(g136
S'ADP'
tp253
F39
s(S'CP'
S'CADVDPP'
tp254
F7
s(g144
S'VAAANP'
tp255
F1
s(g154
S'AVDP'
tp256
F4
s(g33
S'VVAP'
tp257
F7
s(S'VP'
S'VADVADVADVPP'
tp258
F1
s(S'PP'
p259
S'PADVADVDP'
tp260
F2
s(g35
S'NPP'
tp261
F55
s(S'VP'
S'ADVADVAVNNP'
tp262
F1
s(g179
S'NVP'
tp263
F61
s(g203
S'PAAVP'
tp264
F1
s(g166
S'VDDP'
tp265
F11
s(S'MP'
S'MVADVADVCP'
tp266
F1
s(S'NP'
S'AANVVP'
tp267
F1
s(S'DP'
S'DADVAPP'
tp268
F1
s(S'NP'
p269
S'NADVADVVVP'
tp270
F2
s(S'NP'
S'ANPP'
tp271
F11
s(S'PP'
p272
S'PPPPP'
tp273
F3
s(g134
S'ADVDPP'
tp274
F8
s(S'VP'
S'ADVADVVADVAP'
tp275
F1
s(g64
S'ADVADVANNCP'
tp276
F1
s(g269
S'NPPPP'
tp277
F1
s(S'NP'
p278
S'ANPPPPP'
tp279
F1
s(g49
S'ADDP'
tp280
F1
s(S'NP'
S'NAACP'
tp281
F1
s(g140
S'PNNP'
tp282
F15
s(g240
S'ADVADVDDDP'
tp283
F1
s(S'PP'
p284
S'ADVPADVVP'
tp285
F1
s(S'VP'
S'AVAP'
tp286
F2
s(S'MP'
S'MMVP'
tp287
F3
s(S'NP'
S'ADVNCP'
tp288
F3
s(S'DP'
S'ADPP'
tp289
F12
s(g47
S'VAPPP'
tp290
F1
s(g219
S'ACDP'
tp291
F7
s(S'NP'
S'NNDP'
tp292
F3
s(g101
S'CDADVPPP'
tp293
F1
s(g166
S'VAP'
tp294
F33
s(S'MP'
S'MMAAVP'
tp295
F1
s(g209
S'DDDPP'
tp296
F2
s(S'AP'
S'ADVAAPP'
tp297
F1
s(S'VP'
S'ADVADVVVAP'
tp298
F1
s(g158
S'DDDPPP'
tp299
F1
s(g38
S'PADVADVADP'
tp300
F1
s(S'AP'
S'AVVP'
tp301
F1
s(S'PP'
S'PPPVP'
tp302
F2
s(g198
S'AADDP'
tp303
F2
s(S'DP'
S'DADVAAP'
tp304
F1
s(S'VP'
S'VAANP'
tp305
F2
s(S'DP'
S'DAAAAPP'
tp306
F1
s(g96
S'ADVAPADVNP'
tp307
F1
s(g128
S'PADVADVPPP'
tp308
F1
s(g9
S'PANP'
tp309
F8
s(S'AP'
S'AAVP'
tp310
F4
s(S'NP'
S'NAAP'
tp311
F3
s(S'AP'
S'AADVADVAPP'
tp312
F1
s(g64
S'NDDP'
tp313
F4
s(g111
S'ACCP'
tp314
F3
s(g179
S'NDP'
tp315
F38
s(S'NP'
p316
S'AAANVP'
tp317
F1
s(S'DP'
S'DDVP'
tp318
F14
s(S'NP'
S'AANVP'
tp319
F2
s(S'PP'
S'PCP'
tp320
F1
s(S'NP'
S'NNPPP'
tp321
F1
s(S'NP'
p322
S'ADVNNVP'
tp323
F1
s(S'NP'
S'ANNPP'
tp324
F1
s(S'AP'
S'ADVACP'
tp325
F3
s(S'NP'
S'ADVADVNMP'
tp326
F1
s(S'DP'
p327
S'ADPPP'
tp328
F2
s(S'CP'
S'CCDDP'
tp329
F5
s(S'DP'
S'AAADNP'
tp330
F1
s(g316
S'NNVVP'
tp331
F3
s(S'PP'
S'PPADVPPP'
tp332
F1
s(g114
S'VVCP'
tp333
F6
s(S'PP'
p334
S'PADVADVPP'
tp335
F1
s(S'NP'
S'AANCP'
tp336
F2
s(g154
S'VADVNP'
tp337
F2
s(S'NP'
S'NNDDP'
tp338
F1
s(S'VP'
S'ADVVPP'
tp339
F2
s(g144
S'VNNP'
tp340
F7
s(S'CP'
S'CCCCCDDP'
tp341
F1
s(g181
S'AADVDP'
tp342
F1
s(g150
S'NADP'
tp343
F1
s(S'DP'
S'DDNP'
tp344
F12
s(S'PP'
S'AAPPP'
tp345
F1
s(g57
S'ADVADVNCP'
tp346
F1
s(S'AP'
S'ADVADDP'
tp347
F1
s(g64
S'ADVNAACP'
tp348
F1
s(g278
S'NADVADVCCP'
tp349
F1
s(S'MP'
p350
S'MVVNP'
tp351
F1
s(S'CP'
S'ACDDP'
tp352
F2
s(S'AP'
S'AADVADVDDP'
tp353
F1
s(S'AP'
S'AAPP'
tp354
F2
s(S'PP'
p355
S'ADVADVPANP'
tp356
F1
s(S'NP'
S'NAPP'
tp357
F2
s(g90
S'ADVADVADP'
tp358
F1
s(g52
S'VVVCP'
tp359
F1
s(g322
S'ANCCP'
tp360
F3
s(S'NP'
S'NNMP'
tp361
F1
s(S'CP'
p362
S'CADDPP'
tp363
F1
s(g4
S'PAAAP'
tp364
F1
s(g284
S'ADVADVPNP'
tp365
F1
s(S'CP'
S'CDDAPP'
tp366
F1
s(g78
S'ANAP'
tp367
F3
s(g350
S'MVAP'
tp368
F1
s(g4
S'PVP'
tp369
F57
s(S'VP'
S'VADVPPP'
tp370
F1
s(S'DP'
S'DADVAVP'
tp371
F1
s(S'DP'
S'DDADVAVP'
tp372
F1
s(S'MP'
S'MADVVVDP'
tp373
F1
s(g82
S'DVVVP'
tp374
F2
s(S'PP'
S'PPDDP'
tp375
F1
s(g13
S'DPP'
tp376
F72
s(S'NP'
S'ADVNVP'
tp377
F3
s(S'DP'
p378
S'DDPP'
tp379
F28
s(g209
S'DADVADVANNP'
tp380
F1
s(S'DP'
S'DANP'
tp381
F11
s(g31
S'NAAVP'
tp382
F4
s(S'PP'
S'PDDDP'
tp383
F1
s(S'NP'
p384
S'NNNNCP'
tp385
F2
s(S'NP'
S'NADVCCP'
tp386
F3
s(g42
S'PADVPPP'
tp387
F2
s(g161
S'PDDP'
tp388
F12
s(S'MP'
S'MVDDP'
tp389
F1
s(g24
S'ADVAPNP'
tp390
F1
s(g64
S'NNVP'
tp391
F16
s(S'PP'
S'APAAP'
tp392
F1
s(S'VP'
S'VVDDP'
tp393
F2
s(S'DP'
S'DAANP'
tp394
F1
s(S'AP'
S'ADDP'
tp395
F8
s(S'PP'
S'PNNNNP'
tp396
F2
s(g11
S'ADVPPNP'
tp397
F2
s(g35
S'ADVADVNVVP'
tp398
F1
s(S'CP'
S'CADVADVDPP'
tp399
F1
s(g378
S'DPPP'
tp400
F28
s(S'PP'
S'ADVADVPPNP'
tp401
F1
s(g11
S'ADVPNP'
tp402
F1
s(S'PP'
S'PPDP'
tp403
F9
s(S'CP'
S'CADVADADVADVPP'
tp404
F1
s(S'NP'
S'NAP'
tp405
F13
s(g384
S'NNAAP'
tp406
F1
s(g118
S'ADVAVNP'
tp407
F1
s(S'VP'
p408
S'VVP'
tp409
F10
s(S'DP'
S'DDAPP'
tp410
F1
s(g272
S'ADVADVPVP'
tp411
F2
s(g181
S'AAADP'
tp412
F1
s(g42
S'APNP'
tp413
F6
s(S'DP'
S'DDVVP'
tp414
F2
s(S'VP'
S'VVVNP'
tp415
F1
s(S'NP'
S'NAMP'
tp416
F1
s(S'MP'
S'MVNNP'
tp417
F2
s(S'CP'
S'CDPP'
tp418
F68
s(S'VP'
S'VVAANP'
tp419
F1
s(g16
S'ADVCDP'
tp420
F1
s(S'VP'
p421
S'ADVADVVNP'
tp422
F2
s(S'VP'
S'VVAPPP'
tp423
F1
s(g259
S'PPNNP'
tp424
F3
s(g123
S'CAADDPP'
tp425
F1
s(S'DP'
S'ADVADVDPP'
tp426
F1
s(g408
S'VDP'
tp427
F62
s(g221
S'NADVAP'
tp428
F2
s(S'AP'
p429
S'ADVAADVDP'
tp430
F1
s(g209
S'DADVNP'
tp431
F5
s(S'DP'
S'DAP'
tp432
F8
s(S'CP'
S'CADPP'
tp433
F9
s(g259
S'PPAVP'
tp434
F1
s(S'PP'
S'PPDDDP'
tp435
F1
s(g421
S'AVPP'
tp436
F1
s(S'VP'
S'AAVDP'
tp437
F2
s(g355
S'APPP'
tp438
F1
s(S'DP'
S'DADVADVPP'
tp439
F2
s(S'DP'
S'DMP'
tp440
F2
s(g128
S'PPPNP'
tp441
F1
s(g146
S'PADVADVNP'
tp442
F2
s(S'PP'
S'PPPPNP'
tp443
F1
s(g429
S'AADP'
tp444
F8
s(S'PP'
S'PPAAVP'
tp445
F1
s(S'VP'
S'VADVPP'
tp446
F1
s(S'CP'
S'CDDPPP'
tp447
F3
s(g69
S'ADVPVP'
tp448
F3
s(g327
S'DDDDPP'
tp449
F2
s(S'PP'
S'ADVPDP'
tp450
F1
s(g272
S'PPPVVP'
tp451
F1
s(g35
S'NCP'
tp452
F63
s(S'CP'
S'CADVDPPP'
tp453
F1
s(S'VP'
S'ADVVVPP'
tp454
F1
s(S'MP'
S'MVCCP'
tp455
F1
s(S'NP'
p456
S'NNCCP'
tp457
F2
s(g362
S'ADVADVCCDP'
tp458
F1
s(g146
S'PADVADVAP'
tp459
F1
s(g154
S'VAPP'
tp460
F3
s(g131
S'ADVVDP'
tp461
F5
s(S'DP'
S'ADVADADVADVPP'
tp462
F1
s(g229
S'DADVPP'
tp463
F3
s(g334
S'ADVADVADVPNP'
tp464
F1
s(g456
S'NNNPPP'
tp465
F1
s(S'AP'
S'ADVAPP'
tp466
F4
s(g193
S'AACDP'
tp467
F1
s(S'MP'
S'MADVVNNP'
tp468
F1
s(S'DP'
S'ADVDPPP'
tp469
F2
s(g13
S'DVP'
tp470
F61
s(S'AP'
S'AVP'
tp471
F5
s(g120
S'NADVVP'
tp472
F2
s(S'DP'
S'DDPPP'
tp473
F7
s(S'NP'
S'NNAP'
tp474
F1
s(S'MP'
S'MADVVCP'
tp475
F1
s(S'PP'
S'PPANP'
tp476
F1
s(S'CP'
S'CDADVPP'
tp477
F3
s(g114
S'VNP'
tp478
F53
s(S'VP'
S'VANP'
tp479
F8
s(g232
S'VADVAP'
tp480
F5
s(g259
S'PADVADVAVP'
tp481
F1
s(g94
S'DDDANP'
tp482
F1
s.