ccollections
defaultdict
p1
(c__builtin__
float
p2
tRp3
(S'MP'
S'MAAVVCP'
tp4
F1
s(S'DP'
S'ADADVADVNNP'
tp5
F1
s(S'CP'
S'CAAADPP'
tp6
F2
s(S'PP'
S'PAAANP'
tp7
F1
s(S'DP'
S'ADDPP'
tp8
F2
s(S'NP'
S'ADVNNMP'
tp9
F1
s(S'DP'
p10
S'DDAP'
tp11
F3
s(S'CP'
S'CCAADDP'
tp12
F1
s(S'AP'
S'AADDDP'
tp13
F2
s(S'CP'
S'CCDDDDP'
tp14
F3
s(S'PP'
p15
S'PAAANNP'
tp16
F2
s(S'PP'
p17
S'PAPP'
tp18
F12
s(S'PP'
p19
S'PADVNP'
tp20
F12
s(S'DP'
p21
S'DNP'
tp22
F271
s(S'DP'
p23
S'AADDNP'
tp24
F1
s(S'NP'
S'ADVNDP'
tp25
F1
s(S'CP'
p26
S'CDPPP'
tp27
F90
s(S'VP'
S'AVADVDDP'
tp28
F1
s(S'VP'
p29
S'VADP'
tp30
F12
s(S'DP'
S'DNNNNP'
tp31
F1
s(S'CP'
S'CDAAPPP'
tp32
F2
s(S'DP'
S'DAAP'
tp33
F2
s(S'PP'
p34
S'PPPPPP'
tp35
F1
s(S'AP'
S'AADVADVADVDP'
tp36
F1
s(S'PP'
S'APPDP'
tp37
F1
s(S'NP'
S'NADVADVADVADVADP'
tp38
F1
s(S'DP'
p39
S'ADNNP'
tp40
F3
s(S'VP'
p41
S'VADVVVP'
tp42
F1
s(S'NP'
S'NNNNANP'
tp43
F1
s(S'VP'
p44
S'ADVVNP'
tp45
F15
s(S'CP'
S'AACADVDP'
tp46
F1
s(S'MP'
S'MVDP'
tp47
F10
s(S'PP'
p48
S'PADVANP'
tp49
F2
s(S'NP'
p50
S'AANNPP'
tp51
F1
s(S'PP'
p52
S'PPPP'
tp53
F48
s(S'VP'
S'VVVVDDP'
tp54
F1
s(S'DP'
p55
S'DDDNP'
tp56
F3
s(S'DP'
S'DDMP'
tp57
F1
s(S'VP'
p58
S'VACP'
tp59
F4
s(S'AP'
S'AAAVP'
tp60
F2
s(S'PP'
S'PPAAP'
tp61
F4
s(S'DP'
S'DADVVP'
tp62
F2
s(S'PP'
S'PADVNNP'
tp63
F2
s(S'AP'
S'AADVPP'
tp64
F1
s(S'VP'
S'AAVVP'
tp65
F1
s(S'NP'
p66
S'NADVVVP'
tp67
F5
s(S'CP'
S'CADVADVDDPP'
tp68
F1
s(S'VP'
p69
S'VCP'
tp70
F151
s(S'VP'
S'VVVADVADVADVCP'
tp71
F1
s(g52
S'PAP'
tp72
F117
s(S'PP'
S'PPANNP'
tp73
F2
s(S'PP'
p74
S'PPADVVP'
tp75
F2
s(S'DP'
S'DDADVADVPP'
tp76
F1
s(S'NP'
S'ANNCCP'
tp77
F1
s(S'PP'
p78
S'ADVPPVP'
tp79
F3
s(S'VP'
p80
S'VADVNP'
tp81
F3
s(S'NP'
S'NNNAP'
tp82
F2
s(S'PP'
S'APVVP'
tp83
F3
s(g74
S'PPADVDP'
tp84
F1
s(S'VP'
p85
S'AVANNNP'
tp86
F1
s(g52
S'PNP'
tp87
F320
s(S'PP'
p88
S'PPPPPPP'
tp89
F1
s(S'NP'
p90
S'NNNPP'
tp91
F5
s(S'NP'
S'NNDP'
tp92
F15
s(S'VP'
p93
S'ADVVVDDP'
tp94
F1
s(S'MP'
S'MCDP'
tp95
F2
s(S'DP'
S'DDAANP'
tp96
F2
s(S'NP'
S'NNADVADVCP'
tp97
F1
s(S'PP'
p98
S'PPPNNP'
tp99
F1
s(S'VP'
S'ADVADVVVCP'
tp100
F1
s(S'NP'
p101
S'NMP'
tp102
F52
s(S'NP'
p103
S'ADVNCCP'
tp104
F1
s(S'NP'
S'NAAAPP'
tp105
F1
s(S'VP'
S'AAVNP'
tp106
F1
s(S'PP'
p107
S'PDP'
tp108
F260
s(S'DP'
S'DDPPPPP'
tp109
F2
s(S'CP'
S'CCADVADVDP'
tp110
F2
s(S'CP'
S'CDADVADVPP'
tp111
F5
s(S'VP'
S'VNNNNP'
tp112
F1
s(S'PP'
S'ADVADVADVADVPDP'
tp113
F1
s(S'CP'
S'CDADVADVPPP'
tp114
F1
s(g80
S'AVAAP'
tp115
F1
s(S'PP'
S'PPPAANP'
tp116
F1
s(S'NP'
S'NACCP'
tp117
F2
s(S'AP'
S'ANP'
tp118
F1
s(g48
S'ADVPAAP'
tp119
F2
s(S'NP'
S'NADVADVADVVP'
tp120
F1
s(S'PP'
S'PADVPP'
tp121
F1
s(S'NP'
S'NNADVCP'
tp122
F1
s(S'VP'
S'VVADVNP'
tp123
F1
s(S'MP'
S'MVACP'
tp124
F1
s(S'DP'
p125
S'DDAAPPP'
tp126
F1
s(S'PP'
S'AAPPPP'
tp127
F1
s(S'DP'
S'DPPPP'
tp128
F8
s(S'DP'
S'DDANP'
tp129
F1
s(S'NP'
p130
S'NACP'
tp131
F20
s(S'AP'
p132
S'ADVAVP'
tp133
F2
s(S'NP'
p134
S'NCCP'
tp135
F77
s(S'DP'
p136
S'DADVADVVVP'
tp137
F1
s(S'AP'
S'AAAADP'
tp138
F1
s(S'DP'
S'ADVADVADVADVADVVP'
tp139
F1
s(S'PP'
p140
S'PPPAAAVP'
tp141
F1
s(g101
S'NNCP'
tp142
F74
s(S'DP'
S'ADVDDPP'
tp143
F2
s(S'NP'
p144
S'NADVADVVP'
tp145
F6
s(S'DP'
S'DDDDP'
tp146
F1
s(g39
S'DDAPP'
tp147
F5
s(S'VP'
S'AVNP'
tp148
F7
s(S'PP'
S'ADVPVVP'
tp149
F1
s(S'VP'
p150
S'VADVVP'
tp151
F2
s(S'PP'
p152
S'PPPVVP'
tp153
F1
s(S'VP'
S'VVVAPPP'
tp154
F1
s(S'MP'
S'MVPPP'
tp155
F1
s(S'VP'
S'AAAVPPP'
tp156
F1
s(S'AP'
S'AAAAP'
tp157
F1
s(S'MP'
S'MMMADVADVVP'
tp158
F1
s(S'VP'
p159
S'VVVADVCP'
tp160
F1
s(S'PP'
S'ADVPADVNP'
tp161
F1
s(S'NP'
S'NCCCCP'
tp162
F1
s(S'CP'
S'CCCDP'
tp163
F4
s(g150
S'ADVVAP'
tp164
F8
s(S'VP'
S'VCCCP'
tp165
F1
s(S'PP'
p166
S'APDP'
tp167
F11
s(S'PP'
S'ADVADVAPNP'
tp168
F1
s(S'VP'
p169
S'AVADVAP'
tp170
F1
s(S'VP'
S'ADVVNNP'
tp171
F2
s(S'AP'
S'AADVCP'
tp172
F1
s(S'VP'
S'VVANP'
tp173
F6
s(S'NP'
p174
S'ANAACCP'
tp175
F1
s(S'DP'
S'DDAAAP'
tp176
F1
s(S'NP'
S'ADVADVNNPP'
tp177
F1
s(S'CP'
S'CCCADP'
tp178
F1
s(S'MP'
p179
S'MADVVNP'
tp180
F3
s(S'PP'
p181
S'PAAP'
tp182
F20
s(S'NP'
p183
S'ADVANCP'
tp184
F5
s(S'DP'
S'DNNP'
tp185
F39
s(S'CP'
S'CADVDDPP'
tp186
F1
s(g23
S'DPPPPP'
tp187
F4
s(S'CP'
S'CDDPPPP'
tp188
F3
s(S'CP'
p189
S'CCADVDP'
tp190
F4
s(S'VP'
S'VVNNNP'
tp191
F1
s(g136
S'ADDNP'
tp192
F1
s(g101
S'NNNVP'
tp193
F6
s(S'VP'
p194
S'VADVNNP'
tp195
F1
s(S'PP'
S'PPNNNNP'
tp196
F1
s(S'PP'
S'PADVVP'
tp197
F10
s(S'PP'
S'APAP'
tp198
F7
s(S'AP'
p199
S'APP'
tp200
F51
s(g199
S'AAAPPP'
tp201
F2
s(S'NP'
S'NADVMP'
tp202
F2
s(S'AP'
p203
S'AAP'
tp204
F16
s(S'VP'
p205
S'VADVADVVP'
tp206
F2
s(S'CP'
S'CADVADPP'
tp207
F1
s(S'NP'
p208
S'ADVANPP'
tp209
F2
s(g174
S'NAAACP'
tp210
F1
s(S'DP'
S'DAAVP'
tp211
F4
s(S'CP'
p212
S'CDDDDPP'
tp213
F5
s(S'MP'
p214
S'MVVVNP'
tp215
F1
s(g78
S'PAANP'
tp216
F11
s(S'DP'
S'DDADVADVVP'
tp217
F1
s(S'DP'
p218
S'ADVDVP'
tp219
F9
s(S'NP'
p220
S'ANVP'
tp221
F18
s(S'NP'
p222
S'NNNDDDP'
tp223
F1
s(S'NP'
p224
S'NNAAAP'
tp225
F1
s(g179
S'MVNP'
tp226
F22
s(S'NP'
S'NNNNP'
tp227
F1
s(S'CP'
S'CDDDPPP'
tp228
F1
s(S'PP'
p229
S'PAVP'
tp230
F15
s(S'PP'
p231
S'ADVADVPPVP'
tp232
F1
s(S'VP'
S'VVVPP'
tp233
F4
s(g144
S'NNADP'
tp234
F2
s(S'PP'
S'APPPP'
tp235
F2
s(S'DP'
p236
S'DADP'
tp237
F2
s(S'AP'
S'ADVADP'
tp238
F4
s(S'CP'
p239
S'ADVADVCDP'
tp240
F1
s(S'PP'
S'APDDP'
tp241
F4
s(g44
S'ADVADVVVNP'
tp242
F3
s(S'MP'
S'MAAVDDDP'
tp243
F1
s(g107
S'PPCP'
tp244
F2
s(S'AP'
S'AVVP'
tp245
F5
s(g17
S'APVP'
tp246
F24
s(S'VP'
p247
S'VVNP'
tp248
F35
s(S'VP'
S'VVVCP'
tp249
F5
s(S'DP'
p250
S'DADVCCP'
tp251
F1
s(g52
S'PPVP'
tp252
F55
s(S'VP'
p253
S'VADVDP'
tp254
F3
s(S'VP'
S'VVADVAP'
tp255
F1
s(g253
S'VAAP'
tp256
F17
s(S'NP'
S'ANDP'
tp257
F6
s(S'NP'
p258
S'NVVP'
tp259
F51
s(g15
S'AAPVP'
tp260
F7
s(S'CP'
S'CADDPPP'
tp261
F1
s(S'VP'
S'VMP'
tp262
F7
s(S'NP'
p263
S'ANNAP'
tp264
F1
s(g247
S'VVNNP'
tp265
F5
s(S'CP'
S'CDAPP'
tp266
F31
s(S'VP'
S'VVAAP'
tp267
F2
s(S'VP'
S'VVADVADVADP'
tp268
F1
s(S'DP'
p269
S'ADVADVP'
tp270
F2
s(S'VP'
S'ADVADVADVVAANP'
tp271
F1
s(S'DP'
p272
S'ADNP'
tp273
F11
s(S'VP'
p274
S'AVVDP'
tp275
F1
s(S'CP'
p276
S'ACCDP'
tp277
F3
s(g78
S'PADP'
tp278
F20
s(S'NP'
p279
S'NNAADP'
tp280
F1
s(g69
S'ADVVVCP'
tp281
F2
s(S'NP'
S'ANNADVAP'
tp282
F1
s(S'NP'
p283
S'ANDDP'
tp284
F1
s(S'DP'
p285
S'ADVADVDVP'
tp286
F1
s(S'CP'
S'ADVADVADVCDDDP'
tp287
F1
s(S'MP'
p288
S'MMMAP'
tp289
F1
s(S'DP'
p290
S'DAPP'
tp291
F48
s(S'VP'
S'AVVP'
tp292
F2
s(S'MP'
p293
S'MVVCP'
tp294
F3
s(g80
S'ADVADVVPP'
tp295
F2
s(S'VP'
S'ADVADVADVVDP'
tp296
F2
s(S'VP'
p297
S'ADVADVVDP'
tp298
F3
s(S'VP'
S'AVVNP'
tp299
F2
s(S'PP'
p300
S'PPPDP'
tp301
F2
s(g272
S'DAAPPP'
tp302
F4
s(S'MP'
S'ADVMVVVP'
tp303
F1
s(S'VP'
p304
S'ADVVVNP'
tp305
F1
s(S'DP'
S'DDAAVP'
tp306
F1
s(S'MP'
S'MVVAP'
tp307
F2
s(S'DP'
S'DDAANNP'
tp308
F1
s(S'VP'
p309
S'VDDDDP'
tp310
F1
s(S'DP'
S'DAAANP'
tp311
F2
s(S'DP'
S'DADVANP'
tp312
F2
s(S'VP'
S'VAAPP'
tp313
F2
s(S'DP'
S'ADVDNP'
tp314
F1
s(S'VP'
S'VVPP'
tp315
F25
s(S'CP'
S'CCADDP'
tp316
F1
s(S'DP'
S'ADADVPP'
tp317
F2
s(S'CP'
S'AACDDP'
tp318
F1
s(S'MP'
S'MVPP'
tp319
F12
s(S'DP'
S'ADVP'
tp320
F9
s(S'CP'
p321
S'CDDPPP'
tp322
F26
s(g103
S'NNNNNCCP'
tp323
F1
s(S'MP'
S'MDDNP'
tp324
F1
s(S'NP'
p325
S'NNPP'
tp326
F26
s(S'CP'
S'CAADPPPP'
tp327
F1
s(S'MP'
p328
S'MVVDP'
tp329
F2
s(g272
S'DADVPPP'
tp330
F3
s(g107
S'PPVVP'
tp331
F11
s(g272
S'DNNNP'
tp332
F4
s(S'NP'
S'ADVADVNAAP'
tp333
F1
s(S'MP'
p334
S'MVADVCP'
tp335
F1
s(S'DP'
S'DDDADVADVPP'
tp336
F1
s(S'PP'
p337
S'PVVVP'
tp338
F2
s(S'PP'
S'PMP'
tp339
F24
s(S'NP'
S'NNMMP'
tp340
F1
s(S'PP'
S'PAAPPP'
tp341
F2
s(g212
S'CCDP'
tp342
F103
s(S'NP'
p343
S'ANNDP'
tp344
F1
s(S'MP'
S'AMVP'
tp345
F2
s(g140
S'PPPVVVVP'
tp346
F1
s(S'DP'
S'AADDPP'
tp347
F1
s(S'PP'
S'ADVADVPPPP'
tp348
F1
s(S'NP'
S'NVVVP'
tp349
F11
s(S'CP'
S'CDDDPP'
tp350
F17
s(S'CP'
S'CDAAPP'
tp351
F6
s(S'VP'
p352
S'VVVDP'
tp353
F6
s(g107
S'PNNNP'
tp354
F8
s(S'CP'
S'CCCCDP'
tp355
F1
s(S'AP'
S'AACCP'
tp356
F2
s(S'PP'
S'AAPNP'
tp357
F4
s(S'VP'
S'ADVVVDP'
tp358
F1
s(g52
S'PPP'
tp359
F158
s(S'NP'
p360
S'NAVP'
tp361
F15
s(S'PP'
S'PADVAP'
tp362
F3
s(S'DP'
S'DDNNNP'
tp363
F1
s(S'PP'
S'PADDP'
tp364
F1
s(S'PP'
S'APVVVP'
tp365
F1
s(S'NP'
S'ANADVCCP'
tp366
F1
s(g78
S'PPADVADVNNP'
tp367
F1
s(S'PP'
S'PPADVADVNP'
tp368
F1
s(S'NP'
p369
S'NAAAP'
tp370
F1
s(S'NP'
S'NCCCP'
tp371
F4
s(g55
S'DADVADVPPP'
tp372
F2
s(g203
S'AADVVP'
tp373
F1
s(S'PP'
S'PPPPDP'
tp374
F3
s(g250
S'ADPP'
tp375
F63
s(S'VP'
S'VAAAAP'
tp376
F1
s(g69
S'VPP'
tp377
F147
s(g276
S'ADVCCDP'
tp378
F5
s(S'DP'
S'DDDAAPP'
tp379
F1
s(S'AP'
S'AAAACP'
tp380
F2
s(g130
S'NNNCP'
tp381
F7
s(g88
S'PADVDP'
tp382
F6
s(S'DP'
S'DANNP'
tp383
F2
s(S'MP'
S'MADVVAP'
tp384
F1
s(g26
S'CDDPP'
tp385
F89
s(S'DP'
p386
S'DAAPP'
tp387
F9
s(g166
S'PVVP'
tp388
F29
s(g189
S'CADPPP'
tp389
F8
s(S'AP'
S'AACP'
tp390
F13
s(S'VP'
S'ADVVCP'
tp391
F5
s(S'MP'
p392
S'MCCDP'
tp393
F1
s(g247
S'VPPP'
tp394
F21
s(g93
S'VVPPP'
tp395
F3
s(S'CP'
S'CADVADVDAAPP'
tp396
F1
s(S'NP'
S'NMMP'
tp397
F3
s(g107
S'PPAP'
tp398
F16
s(g21
S'DVVP'
tp399
F35
s(g208
S'ANMP'
tp400
F4
s(S'AP'
S'APPP'
tp401
F3
s(S'PP'
S'ADVPPP'
tp402
F4
s(S'VP'
S'VVVP'
tp403
F11
s(S'DP'
p404
S'DDPPPP'
tp405
F4
s(S'MP'
S'MMADVPPP'
tp406
F1
s(g258
S'ANCP'
tp407
F30
s(S'NP'
S'NNMMMMMP'
tp408
F1
s(S'DP'
S'DCP'
tp409
F14
s(S'DP'
S'DVVVP'
tp410
F5
s(S'PP'
S'AAPPNNP'
tp411
F1
s(S'NP'
S'AAANCP'
tp412
F2
s(S'VP'
S'AAVVCP'
tp413
F1
s(g272
S'DDDP'
tp414
F7
s(S'AP'
p415
S'ADDDDP'
tp416
F2
s(S'DP'
p417
S'AADMP'
tp418
F1
s(g134
S'AAAAAANPP'
tp419
F1
s(S'NP'
p420
S'ANVVP'
tp421
F1
s(g69
S'VVDP'
tp422
F34
s(g101
S'NPPP'
tp423
F38
s(S'NP'
S'NADVADVCP'
tp424
F1
s(S'PP'
S'PPAPP'
tp425
F2
s(S'VP'
S'ADVVNNNP'
tp426
F1
s(S'DP'
p427
S'ADVADVDAAPP'
tp428
F1
s(S'AP'
S'AAADP'
tp429
F3
s(S'DP'
S'DAVP'
tp430
F22
s(S'VP'
S'VADVADVAP'
tp431
F1
s(S'NP'
S'NNNNMP'
tp432
F1
s(g199
S'ACP'
tp433
F77
s(S'PP'
S'PADVADVNNP'
tp434
F1
s(g107
S'PPNP'
tp435
F88
s(S'AP'
S'ADVACCP'
tp436
F1
s(S'NP'
p437
S'NAADP'
tp438
F2
s(S'DP'
S'ADVDAPP'
tp439
F2
s(S'CP'
S'CDDPPPPP'
tp440
F1
s(S'DP'
S'AADVP'
tp441
F2
s(S'NP'
S'NNNNCCP'
tp442
F1
s(S'VP'
S'VAANNP'
tp443
F1
s(g58
S'VVADVADVADVADVNP'
tp444
F1
s(S'CP'
S'CCCDDP'
tp445
F2
s(S'AP'
S'ADP'
tp446
F206
s(S'DP'
S'DDADVVP'
tp447
F1
s(S'PP'
S'APMP'
tp448
F1
s(S'CP'
p449
S'CADVDPP'
tp450
F12
s(S'NP'
p451
S'ANPPP'
tp452
F3
s(S'NP'
p453
S'AAAANNCP'
tp454
F1
s(S'VP'
p455
S'VVVVNNNNNP'
tp456
F1
s(S'NP'
S'AAANNCP'
tp457
F3
s(S'PP'
S'PPPPNNP'
tp458
F1
s(S'VP'
S'AVDP'
tp459
F25
s(g66
S'ANNVP'
tp460
F1
s(S'VP'
S'VVAP'
tp461
F25
s(S'NP'
S'NNAPP'
tp462
F2
s(S'CP'
S'CDDDAPP'
tp463
F1
s(S'CP'
S'ADVACDP'
tp464
F1
s(S'PP'
S'PAAAANP'
tp465
F1
s(S'VP'
S'AAVCP'
tp466
F1
s(g258
S'NPP'
tp467
F231
s(S'PP'
p468
S'PPPPNP'
tp469
F3
s(g101
S'NVP'
tp470
F238
s(S'PP'
S'PPAMP'
tp471
F1
s(g144
S'NNDDDP'
tp472
F1
s(g300
S'PAAVP'
tp473
F3
s(S'NP'
S'NAAPP'
tp474
F1
s(g34
S'PPPPVP'
tp475
F2
s(S'VP'
S'VDDP'
tp476
F34
s(g285
S'ADVADVADCP'
tp477
F1
s(S'NP'
p478
S'ANCCCP'
tp479
F1
s(S'AP'
S'AAADVDP'
tp480
F1
s(S'DP'
S'DDDVVP'
tp481
F1
s(g478
S'AANNVP'
tp482
F1
s(S'NP'
S'AANVVP'
tp483
F2
s(S'VP'
S'VVVVPP'
tp484
F1
s(S'NP'
S'NADVADVVVP'
tp485
F3
s(g90
S'ANPP'
tp486
F20
s(S'PP'
S'ADVPPDP'
tp487
F1
s(S'PP'
S'PPPPP'
tp488
F7
s(g328
S'MPDP'
tp489
F3
s(S'MP'
S'MVVPP'
tp490
F1
s(g166
S'PPPNP'
tp491
F3
s(S'NP'
S'NPPPP'
tp492
F2
s(S'NP'
p493
S'ANPPPPP'
tp494
F1
s(S'DP'
S'ADDP'
tp495
F2
s(g343
S'NNCCCCP'
tp496
F1
s(g239
S'CDDDADVPP'
tp497
F1
s(g386
S'DDP'
tp498
F35
s(g321
S'CAADPP'
tp499
F9
s(g66
S'NAACP'
tp500
F4
s(g107
S'PNNP'
tp501
F75
s(S'VP'
S'VADVACP'
tp502
F1
s(g19
S'APNNP'
tp503
F6
s(S'DP'
S'DAAANNP'
tp504
F1
s(S'DP'
S'DDAAP'
tp505
F2
s(g417
S'AAADPP'
tp506
F3
s(S'VP'
S'AVAP'
tp507
F5
s(g288
S'MMVP'
tp508
F3
s(S'NP'
p509
S'ADVNCP'
tp510
F10
s(g212
S'AACCDDDP'
tp511
F1
s(S'PP'
p512
S'PPAADP'
tp513
F2
s(S'MP'
S'MPDDP'
tp514
F1
s(S'NP'
S'NAPPP'
tp515
F1
s(g321
S'ACDP'
tp516
F20
s(S'VP'
S'VCCP'
tp517
F19
s(S'AP'
S'ADVANP'
tp518
F1
s(S'CP'
S'CCCCDDP'
tp519
F1
s(S'NP'
S'NNACP'
tp520
F1
s(S'MP'
S'MDNNP'
tp521
F1
s(g321
S'CDADVPPP'
tp522
F2
s(g247
S'VAP'
tp523
F124
s(S'MP'
S'MNVVP'
tp524
F1
s(g404
S'DDDPP'
tp525
F27
s(S'CP'
S'ADVCDDP'
tp526
F1
s(g134
S'AANNCP'
tp527
F4
s(S'NP'
p528
S'ANADVCP'
tp529
F3
s(g337
S'PAAPP'
tp530
F3
s(S'MP'
S'MAVPP'
tp531
F1
s(S'VP'
S'ADVADVVVAP'
tp532
F1
s(g404
S'DDDPPP'
tp533
F3
s(S'CP'
S'CCADVADP'
tp534
F1
s(S'PP'
S'PPADVADVADVNNP'
tp535
F1
s(S'AP'
S'AAACP'
tp536
F1
s(g205
S'ADVADVVAAP'
tp537
F1
s(S'PP'
S'PPPVP'
tp538
F4
s(g159
S'AAVAP'
tp539
F1
s(S'AP'
S'AADDP'
tp540
F2
s(S'DP'
S'AADPPPP'
tp541
F1
s(S'MP'
S'MADVNVP'
tp542
F1
s(g352
S'VAANP'
tp543
F6
s(S'MP'
S'ADVADVADVMAP'
tp544
F1
s(g166
S'APPANP'
tp545
F1
s(S'DP'
p546
S'DAAAAPP'
tp547
F1
s(S'DP'
S'ADVADVADVDVP'
tp548
F1
s(g224
S'NVVVVP'
tp549
F2
s(g231
S'PADVADVPPP'
tp550
F1
s(S'MP'
S'MADP'
tp551
F2
s(S'CP'
S'CCCAAADP'
tp552
F1
s(S'CP'
S'CCAADP'
tp553
F1
s(S'AP'
S'AAACCP'
tp554
F1
s(g52
S'PANP'
tp555
F40
s(S'PP'
S'PDDDP'
tp556
F4
s(S'NP'
S'ANNMP'
tp557
F1
s(S'MP'
S'MVVPPP'
tp558
F1
s(S'AP'
S'AAVP'
tp559
F11
s(S'NP'
S'NAAP'
tp560
F8
s(g174
S'NDDP'
tp561
F14
s(S'DP'
S'ADVADVDPPP'
tp562
F1
s(S'AP'
S'ACCP'
tp563
F12
s(g369
S'ADVADVANCP'
tp564
F1
s(S'DP'
S'DDDADVPP'
tp565
F1
s(g101
S'NDP'
tp566
F89
s(S'PP'
S'PADVADVADVNP'
tp567
F1
s(S'NP'
S'AAANVP'
tp568
F1
s(S'MP'
p569
S'MVAAP'
tp570
F2
s(g404
S'DDVP'
tp571
F26
s(S'DP'
S'ADADVPPP'
tp572
F1
s(S'NP'
p573
S'AANVP'
tp574
F4
s(S'DP'
S'DADVADVAPP'
tp575
F1
s(S'DP'
S'ADDVP'
tp576
F3
s(S'VP'
S'VNNNP'
tp577
F6
s(g181
S'ADVPAP'
tp578
F3
s(g107
S'APPNP'
tp579
F2
s(g90
S'NNPPP'
tp580
F4
s(S'NP'
S'NADVADVADVMP'
tp581
F1
s(S'PP'
S'PAADP'
tp582
F4
s(g437
S'ADVNNVP'
tp583
F1
s(g453
S'NADVCCP'
tp584
F2
s(S'NP'
S'NNNNNVP'
tp585
F2
s(g360
S'ADVNNPP'
tp586
F1
s(S'MP'
S'MVNNNP'
tp587
F1
s(S'NP'
S'NNNDP'
tp588
F4
s(S'AP'
S'ADVACP'
tp589
F5
s(S'NP'
S'AANVVVP'
tp590
F1
s(g98
S'AAPNNP'
tp591
F1
s(S'VP'
S'VVVAP'
tp592
F3
s(g236
S'ADPPP'
tp593
F13
s(g179
S'MVCP'
tp594
F12
s(S'CP'
S'CCDDP'
tp595
F28
s(g304
S'AVNNP'
tp596
F1
s(S'NP'
S'NNADVVP'
tp597
F1
s(S'PP'
S'PPAAAANP'
tp598
F1
s(S'DP'
S'DDADP'
tp599
F1
s(S'DP'
S'DADVNP'
tp600
F6
s(S'NP'
S'NNNNVP'
tp601
F3
s(g69
S'VVCP'
tp602
F23
s(S'PP'
p603
S'PADVADVPP'
tp604
F1
s(g130
S'AANCP'
tp605
F12
s(S'VP'
p606
S'VAADP'
tp607
F3
s(S'AP'
S'ADVAVVP'
tp608
F1
s(S'CP'
S'CDDDADVADVPP'
tp609
F1
s(g283
S'NNDDP'
tp610
F3
s(g274
S'VVADVANP'
tp611
F2
s(S'NP'
S'NAAAAP'
tp612
F1
s(S'CP'
S'CDAPPP'
tp613
F2
s(g247
S'VNNP'
tp614
F42
s(S'AP'
S'AADVDP'
tp615
F5
s(S'NP'
S'NADP'
tp616
F1
s(g250
S'DDNP'
tp617
F45
s(g325
S'NADVCP'
tp618
F7
s(S'DP'
S'DDNNP'
tp619
F11
s(S'PP'
S'PADVADVVVP'
tp620
F1
s(g509
S'ADVANVP'
tp621
F3
s(S'NP'
S'ADVNAAP'
tp622
F3
s(g132
S'AADVADP'
tp623
F2
s(S'PP'
S'AAAAPDP'
tp624
F1
s(S'NP'
S'ADVADVNCP'
tp625
F2
s(g272
S'AADPP'
tp626
F13
s(S'NP'
S'AAAANVVP'
tp627
F1
s(g493
S'ADVNAACP'
tp628
F1
s(g528
S'NNNNPP'
tp629
F1
s(g297
S'VAAANNP'
tp630
F1
s(S'CP'
S'CDPPPPP'
tp631
F2
s(S'PP'
S'PPADVADVVP'
tp632
F1
s(S'DP'
S'ADVAADPP'
tp633
F1
s(S'DP'
S'AAAADNP'
tp634
F1
s(g212
S'AAACDDP'
tp635
F1
s(S'MP'
S'MVVNP'
tp636
F2
s(S'CP'
S'CDDADVPPP'
tp637
F1
s(S'CP'
S'CAAADDPP'
tp638
F1
s(g23
S'ADVDNNP'
tp639
F2
s(S'CP'
S'ACDDP'
tp640
F5
s(g130
S'ADVADVNNCP'
tp641
F2
s(S'AP'
S'AAPP'
tp642
F10
s(S'VP'
S'VVCCP'
tp643
F6
s(S'DP'
p644
S'DMMP'
tp645
F1
s(g229
S'PCP'
tp646
F5
s(S'VP'
S'VADVADP'
tp647
F1
s(S'NP'
S'AAANNCCP'
tp648
F1
s(g174
S'NAPP'
tp649
F11
s(g468
S'APPVP'
tp650
F2
s(S'AP'
S'ADVADVADP'
tp651
F1
s(g220
S'NADVDP'
tp652
F1
s(S'PP'
S'ADVPPPP'
tp653
F3
s(S'PP'
S'APDDDP'
tp654
F1
s(S'NP'
S'ANCCP'
tp655
F6
s(S'NP'
p656
S'AANPP'
tp657
F6
s(S'VP'
S'VDDDP'
tp658
F2
s(S'NP'
S'NNMP'
tp659
F12
s(S'DP'
S'DDDVP'
tp660
F6
s(S'VP'
S'AAVPP'
tp661
F1
s(S'VP'
S'AAVDDDP'
tp662
F1
s(S'PP'
S'ADVADVPNNP'
tp663
F2
s(S'CP'
S'CADDPP'
tp664
F1
s(S'PP'
S'PAAAP'
tp665
F3
s(S'NP'
S'AAAANCP'
tp666
F4
s(S'CP'
S'CDDAPP'
tp667
F2
s(g85
S'VVVPPP'
tp668
F1
s(S'NP'
S'ANAP'
tp669
F4
s(g569
S'MVAP'
tp670
F6
s(g52
S'PVP'
tp671
F241
s(S'VP'
p672
S'VADVPPP'
tp673
F1
s(S'DP'
S'ADVDPP'
tp674
F17
s(g17
S'PAAAAAANP'
tp675
F1
s(S'DP'
S'ADVADVDPPPPP'
tp676
F1
s(g52
S'PPADVVVP'
tp677
F1
s(S'VP'
p678
S'VADVCCP'
tp679
F1
s(g212
S'ACDDDP'
tp680
F1
s(g455
S'VPPPP'
tp681
F1
s(g144
S'ANNCP'
tp682
F4
s(S'PP'
S'PPADVPP'
tp683
F2
s(S'VP'
S'VAVP'
tp684
F1
s(S'DP'
S'ADVADVADVDNP'
tp685
F1
s(S'NP'
S'ADVADVANVP'
tp686
F1
s(g19
S'PPDDP'
tp687
F10
s(S'VP'
S'AVCP'
tp688
F7
s(g279
S'NAVVP'
tp689
F1
s(g21
S'DPP'
tp690
F406
s(g325
S'ADVNVP'
tp691
F8
s(S'AP'
S'AAADVVVP'
tp692
F1
s(g21
S'DDPP'
tp693
F127
s(g546
S'DDADVPPP'
tp694
F1
s(S'DP'
S'DDAVP'
tp695
F4
s(S'DP'
S'DANP'
tp696
F20
s(S'PP'
S'ADVADVPPNP'
tp697
F1
s(g78
S'AAPPVP'
tp698
F4
s(S'NP'
S'NAAVP'
tp699
F1
s(S'NP'
S'AAANNPP'
tp700
F1
s(S'DP'
S'AADNP'
tp701
F3
s(g194
S'VADVCP'
tp702
F4
s(S'PP'
S'AAPANNP'
tp703
F1
s(S'PP'
S'PMMMP'
tp704
F1
s(g573
S'NNNNCP'
tp705
F4
s(S'NP'
S'AANNADVVVP'
tp706
F1
s(S'MP'
S'MDNP'
tp707
F2
s(S'PP'
S'PPAANNP'
tp708
F2
s(g144
S'NNAACP'
tp709
F2
s(g644
S'ADDPPP'
tp710
F1
s(S'NP'
S'NNNVVP'
tp711
F3
s(S'AP'
S'ADVAADDP'
tp712
F1
s(S'CP'
S'ADVADVCADVAADP'
tp713
F1
s(S'MP'
S'MMMMMVP'
tp714
F1
s(S'DP'
p715
S'DCCP'
tp716
F1
s(S'PP'
p717
S'ADVADVPPP'
tp718
F2
s(g420
S'NNNNNNCP'
tp719
F1
s(S'PP'
S'AAPDP'
tp720
F1
s(g715
S'ADVADPP'
tp721
F3
s(S'VP'
S'ADVADVVANNP'
tp722
F1
s(g107
S'PDDP'
tp723
F37
s(S'MP'
S'MVDDP'
tp724
F1
s(S'PP'
S'PCCP'
tp725
F1
s(g101
S'NNVP'
tp726
F41
s(g174
S'ADVADVADVADVNCCP'
tp727
F1
s(S'AP'
S'ADVADVACP'
tp728
F1
s(S'NP'
S'NNP'
tp729
F3
s(g29
S'VVDDP'
tp730
F4
s(S'VP'
S'VAADDP'
tp731
F1
s(S'DP'
S'DAANP'
tp732
F6
s(S'DP'
p733
S'ADVDAADP'
tp734
F1
s(S'AP'
S'ADDP'
tp735
F26
s(S'PP'
S'PNNNNP'
tp736
F1
s(g41
S'ADVVVAP'
tp737
F1
s(S'PP'
S'ADVPPNP'
tp738
F4
s(S'NP'
S'ADVADVNVVP'
tp739
F1
s(S'MP'
S'MDAP'
tp740
F2
s(S'CP'
S'CADVADVDPP'
tp741
F1
s(g21
S'DPPP'
tp742
F124
s(S'DP'
S'DAVVP'
tp743
F1
s(g733
S'AADPPP'
tp744
F3
s(g297
S'VANNP'
tp745
F1
s(S'AP'
S'AAAP'
tp746
F1
s(g66
S'NNAVP'
tp747
F3
s(g90
S'ANNAAP'
tp748
F1
s(g678
S'AVVCP'
tp749
F1
s(S'NP'
S'NMMMP'
tp750
F1
s(S'DP'
S'AADCP'
tp751
F1
s(g15
S'ADVPNP'
tp752
F8
s(g717
S'PPDP'
tp753
F38
s(S'VP'
S'ADVVANNP'
tp754
F1
s(g214
S'MAVDP'
tp755
F1
s(S'PP'
S'PPPAAP'
tp756
F1
s(S'MP'
S'MADVADVADVVAANP'
tp757
F1
s(S'PP'
S'ADVPPANNP'
tp758
F1
s(g17
S'PAANNP'
tp759
F1
s(g101
S'NAP'
tp760
F87
s(g101
S'NNAAP'
tp761
F4
s(S'VP'
S'VAAAP'
tp762
F2
s(S'NP'
S'AAAAANVP'
tp763
F1
s(S'VP'
S'VADVANP'
tp764
F1
s(S'VP'
S'ADVADVADVADVVVPP'
tp765
F1
s(g69
S'VVP'
tp766
F41
s(S'MP'
S'ADVMNP'
tp767
F1
s(S'NP'
S'NNVVP'
tp768
F9
s(g603
S'ADVADVPVP'
tp769
F4
s(g181
S'PADVADVANP'
tp770
F1
s(S'PP'
p771
S'APNP'
tp772
F22
s(S'DP'
S'DDDAPP'
tp773
F1
s(g404
S'DDVVP'
tp774
F5
s(S'AP'
S'AAADDP'
tp775
F1
s(S'VP'
S'VVVNP'
tp776
F2
s(g293
S'MNPP'
tp777
F2
s(S'MP'
S'MVANP'
tp778
F2
s(S'DP'
S'ADVADVDDPP'
tp779
F1
s(S'MP'
S'MVNNP'
tp780
F2
s(g26
S'CDPP'
tp781
F360
s(S'NP'
S'ANNNCP'
tp782
F1
s(S'PP'
S'PAAAADP'
tp783
F1
s(S'NP'
S'NNCCCP'
tp784
F1
s(S'AP'
S'ADDDP'
tp785
F4
s(S'CP'
S'ADVCADP'
tp786
F3
s(S'VP'
S'VVAANP'
tp787
F1
s(S'NP'
S'NAANP'
tp788
F1
s(g449
S'ADVCDP'
tp789
F13
s(g17
S'AAPVVP'
tp790
F2
s(S'VP'
S'ADVADVVNP'
tp791
F2
s(S'DP'
S'AAADDPP'
tp792
F1
s(S'PP'
S'PPPAAANNP'
tp793
F1
s(S'PP'
p794
S'PADVADVDP'
tp795
F1
s(S'VP'
S'ADVADVVCP'
tp796
F3
s(S'VP'
S'VADVADVDP'
tp797
F1
s(g107
S'PPNNP'
tp798
F17
s(S'PP'
S'PPMP'
tp799
F2
s(S'CP'
p800
S'CDDDAAPP'
tp801
F1
s(S'DP'
S'ADVADVDPP'
tp802
F3
s(g69
S'VDP'
tp803
F230
s(S'MP'
S'MMADVADVVP'
tp804
F1
s(g50
S'NADVAP'
tp805
F3
s(g290
S'DAP'
tp806
F33
s(g276
S'CADPP'
tp807
F47
s(S'PP'
S'PPAVP'
tp808
F3
s(S'MP'
S'MADVADVVDP'
tp809
F1
s(S'VP'
S'ADVADVVCCP'
tp810
F2
s(S'VP'
S'AVPP'
tp811
F15
s(S'CP'
S'CAADPPP'
tp812
F2
s(S'DP'
S'DDNNNNP'
tp813
F1
s(g334
S'AMVVP'
tp814
F1
s(S'PP'
S'PAVVP'
tp815
F2
s(S'CP'
S'CDPPPP'
tp816
F6
s(S'VP'
S'AAVDP'
tp817
F3
s(g125
S'AADNNP'
tp818
F1
s(S'PP'
S'PANNP'
tp819
F3
s(S'CP'
S'CADVADVDPPPPP'
tp820
F1
s(g247
S'VACCP'
tp821
F1
s(S'PP'
S'APPP'
tp822
F7
s(g404
S'DAPPP'
tp823
F3
s(g218
S'DADVADVPP'
tp824
F5
s(S'DP'
p825
S'DMP'
tp826
F6
s(S'NP'
S'ADVADVADVNMP'
tp827
F1
s(g512
S'PAAAVP'
tp828
F1
s(S'PP'
S'APADVPP'
tp829
F1
s(g152
S'PADVADVNP'
tp830
F3
s(g309
S'ADVADVVAP'
tp831
F1
s(g199
S'AADP'
tp832
F35
s(g229
S'PPAAVP'
tp833
F1
s(S'NP'
S'NNNNCCCP'
tp834
F1
s(S'VP'
S'VADVPP'
tp835
F1
s(S'DP'
S'DDAAPP'
tp836
F1
s(S'DP'
S'DDDAAAPP'
tp837
F1
s(g771
S'ADVPVP'
tp838
F8
s(g404
S'DDDDPP'
tp839
F9
s(S'VP'
S'VVADVADVADVDP'
tp840
F1
s(S'PP'
S'PPVVVP'
tp841
F1
s(S'VP'
S'ADVVANP'
tp842
F1
s(S'PP'
S'PAMP'
tp843
F2
s(S'PP'
S'ADVPDP'
tp844
F1
s(g656
S'ANNPP'
tp845
F2
s(g258
S'NCP'
tp846
F311
s(S'CP'
S'CADVDPPP'
tp847
F2
s(g169
S'ADVVVPP'
tp848
F3
s(S'PP'
S'AAAPNP'
tp849
F2
s(g451
S'ADVANDP'
tp850
F2
s(g10
S'ADVVP'
tp851
F2
s(S'CP'
S'CDDADVADVPP'
tp852
F1
s(S'AP'
S'AAMP'
tp853
F1
s(S'PP'
S'APADVANP'
tp854
F1
s(S'NP'
p855
S'AANDP'
tp856
F2
s(S'MP'
S'MVCCP'
tp857
F1
s(g427
S'DADVNNP'
tp858
F1
s(g134
S'NNCCP'
tp859
F15
s(g179
S'MNVP'
tp860
F11
s(g263
S'AANCCP'
tp861
F5
s(S'PP'
S'PADVADVAP'
tp862
F1
s(g606
S'VAPP'
tp863
F3
s(g855
S'NPPPPP'
tp864
F1
s(S'VP'
S'VVAAACP'
tp865
F1
s(S'MP'
S'MAVNP'
tp866
F1
s(g169
S'ADVVDP'
tp867
F5
s(g672
S'VADDP'
tp868
F1
s(S'NP'
S'ADVADVADVNNVP'
tp869
F1
s(g825
S'DADVPP'
tp870
F19
s(S'PP'
S'AAPCCP'
tp871
F1
s(S'AP'
S'AMP'
tp872
F10
s(S'CP'
S'CCADP'
tp873
F8
s(S'NP'
S'ADVNNCP'
tp874
F1
s(S'AP'
S'ADVAPP'
tp875
F4
s(S'DP'
S'ADVDAVP'
tp876
F1
s(g800
S'AACDP'
tp877
F6
s(g183
S'NNNCCP'
tp878
F4
s(g449
S'CCDDDP'
tp879
F4
s(S'DP'
S'ADVDPPP'
tp880
F3
s(g21
S'DVP'
tp881
F244
s(g222
S'NADVADVADVADVVVP'
tp882
F1
s(g103
S'ADVNPP'
tp883
F2
s(S'CP'
S'AAACDP'
tp884
F1
s(g415
S'AVP'
tp885
F28
s(g66
S'NADVVP'
tp886
F8
s(S'NP'
S'NNNMP'
tp887
F2
s(g272
S'DDPPP'
tp888
F36
s(S'NP'
S'NADVADVADVADVPP'
tp889
F1
s(S'VP'
S'VVADVDP'
tp890
F1
s(g101
S'NNAP'
tp891
F5
s(S'MP'
S'MADVVCP'
tp892
F1
s(S'PP'
S'PPANP'
tp893
F5
s(g392
S'MCDDP'
tp894
F1
s(g455
S'AAAVNP'
tp895
F1
s(S'CP'
S'CDADVPP'
tp896
F13
s(g247
S'VNP'
tp897
F241
s(g269
S'DDADVPP'
tp898
F2
s(S'VP'
S'VANP'
tp899
F17
s(S'PP'
S'PADVPPP'
tp900
F1
s(S'VP'
S'VADVAP'
tp901
F8
s(g794
S'PPADVNP'
tp902
F2
s(S'DP'
S'DDDDVP'
tp903
F2
s(S'NP'
S'NADVPPP'
tp904
F2
s.