ccollections
defaultdict
p1
(c__builtin__
float
p2
tRp3
(S'CP'
S'CAAADPP'
tp4
F2
s(S'DP'
p5
S'DDAP'
tp6
F3
s(S'CP'
p7
S'CCDDDDP'
tp8
F2
s(S'PP'
p9
S'PAPP'
tp10
F1
s(S'DP'
p11
S'DDPPPPP'
tp12
F1
s(S'DP'
p13
S'DNP'
tp14
F35
s(S'NP'
p15
S'ADVNDP'
tp16
F1
s(S'CP'
S'CDPPP'
tp17
F16
s(S'VP'
p18
S'VADP'
tp19
F4
s(S'DP'
S'DNNNNP'
tp20
F1
s(S'MP'
S'MAVNP'
tp21
F2
s(S'VP'
p22
S'AAVPPP'
tp23
F1
s(S'PP'
S'PPPPPP'
tp24
F1
s(S'DP'
p25
S'AADDADVADVPPP'
tp26
F1
s(S'NP'
S'AAANVVVP'
tp27
F1
s(S'VP'
S'ADVVNP'
tp28
F2
s(S'MP'
S'MVDP'
tp29
F4
s(S'PP'
p30
S'PPPP'
tp31
F8
s(g22
S'VACP'
tp32
F1
s(S'DP'
S'DADVVP'
tp33
F2
s(S'VP'
p34
S'ADVADVVDDP'
tp35
F1
s(S'NP'
p36
S'NCCCP'
tp37
F1
s(S'VP'
p38
S'VCP'
tp39
F22
s(S'NP'
S'NMMP'
tp40
F1
s(S'VP'
p41
S'ADVVAAP'
tp42
F1
s(S'NP'
p43
S'NNNNNCCCCP'
tp44
F1
s(S'PP'
p45
S'PAP'
tp46
F21
s(S'PP'
p47
S'PPANNP'
tp48
F1
s(S'DP'
p49
S'DDADVADVPP'
tp50
F1
s(g43
S'ANNCCP'
tp51
F1
s(S'NP'
S'NNNAP'
tp52
F2
s(g30
S'PNP'
tp53
F64
s(S'NP'
S'ADVADVADVNCP'
tp54
F1
s(S'DP'
S'DDP'
tp55
F9
s(S'NP'
S'NNNPP'
tp56
F3
s(S'NP'
p57
S'NNDP'
tp58
F3
s(S'DP'
p59
S'DDDDPPPP'
tp60
F1
s(S'CP'
S'AACCDP'
tp61
F1
s(S'NP'
p62
S'NMP'
tp63
F10
s(g30
S'PDP'
tp64
F36
s(S'VP'
S'AAAVCP'
tp65
F1
s(S'NP'
p66
S'NACCP'
tp67
F1
s(S'DP'
S'DPPPP'
tp68
F1
s(g62
S'NACP'
tp69
F3
s(S'NP'
S'NCCP'
tp70
F11
s(g15
S'NNCP'
tp71
F25
s(S'DP'
S'ADVDDPP'
tp72
F1
s(S'NP'
p73
S'NNPPPP'
tp74
F1
s(S'PP'
p75
S'PPAP'
tp76
F3
s(S'VP'
p77
S'AVNP'
tp78
F6
s(S'VP'
p79
S'VVADP'
tp80
F1
s(S'PP'
S'PPPAAAANP'
tp81
F1
s(S'CP'
S'CCCDP'
tp82
F1
s(S'VP'
S'ADVVAP'
tp83
F1
s(S'PP'
S'ADVADVAPNP'
tp84
F1
s(S'NP'
p85
S'NNNNNPP'
tp86
F1
s(g73
S'NNAMP'
tp87
F1
s(S'AP'
S'AVVVVP'
tp88
F1
s(S'VP'
S'ADVADVADVAVPP'
tp89
F1
s(S'DP'
S'DAAP'
tp90
F1
s(S'NP'
S'NANP'
tp91
F2
s(S'DP'
p92
S'DNNP'
tp93
F12
s(S'DP'
S'DPPPPP'
tp94
F1
s(S'CP'
S'CDDPPPP'
tp95
F1
s(g47
S'ADVADVADVADVPAANP'
tp96
F1
s(S'NP'
p97
S'NNNVP'
tp98
F4
s(S'PP'
S'PPNNNNP'
tp99
F1
s(S'PP'
S'PADVVP'
tp100
F3
s(S'PP'
p101
S'APAP'
tp102
F2
s(S'AP'
p103
S'APP'
tp104
F5
s(g103
S'ACCCP'
tp105
F1
s(S'PP'
p106
S'PPADP'
tp107
F1
s(S'CP'
p108
S'CADVADPP'
tp109
F1
s(S'DP'
p110
S'DAAVP'
tp111
F1
s(S'PP'
S'PAANP'
tp112
F2
s(S'PP'
p113
S'PPVVP'
tp114
F3
s(S'NP'
p115
S'NNADVPP'
tp116
F1
s(S'MP'
S'MVNP'
tp117
F2
s(g115
S'NNNNP'
tp118
F1
s(S'AP'
S'ADVAADP'
tp119
F1
s(S'PP'
S'PAVP'
tp120
F3
s(S'PP'
p121
S'ADVADVPPVP'
tp122
F1
s(S'PP'
S'APPPP'
tp123
F1
s(g110
S'DADP'
tp124
F1
s(S'DP'
S'DAAAPPP'
tp125
F1
s(S'DP'
S'AAAAAADPP'
tp126
F1
s(S'VP'
S'ADVADVVVNP'
tp127
F1
s(S'NP'
S'NADVDP'
tp128
F1
s(S'PP'
S'PPAAAVP'
tp129
F1
s(g9
S'APVP'
tp130
F2
s(S'VP'
p131
S'VVNP'
tp132
F6
s(g30
S'PPVP'
tp133
F5
s(S'VP'
p134
S'VAAP'
tp135
F3
s(S'NP'
p136
S'ANDP'
tp137
F1
s(g62
S'NVVP'
tp138
F3
s(g113
S'AAPVP'
tp139
F3
s(S'AP'
S'AAP'
tp140
F3
s(S'NP'
S'NNNADVCP'
tp141
F1
s(S'VP'
S'VVNNP'
tp142
F1
s(S'CP'
p143
S'CDAPP'
tp144
F5
s(g18
S'VVAAP'
tp145
F3
s(S'DP'
p146
S'ADNP'
tp147
F5
s(S'DP'
p148
S'ADNNNNP'
tp149
F1
s(S'PP'
S'PADP'
tp150
F2
s(S'DP'
p151
S'AAAADPPP'
tp152
F1
s(S'DP'
p153
S'DDDPPPP'
tp154
F3
s(S'DP'
p155
S'DADVAP'
tp156
F1
s(S'DP'
S'DAPP'
tp157
F9
s(S'PP'
p158
S'PPPDP'
tp159
F2
s(g49
S'DAAPPP'
tp160
F1
s(S'MP'
S'MVVAP'
tp161
F1
s(S'NP'
S'NNNCCCP'
tp162
F1
s(g131
S'VDDDDP'
tp163
F1
s(S'CP'
p164
S'CCAAAADP'
tp165
F1
s(g131
S'VVPP'
tp166
F6
s(S'DP'
p167
S'ADVP'
tp168
F2
s(g108
S'CDDPPP'
tp169
F5
s(S'NP'
S'NNNNNCCP'
tp170
F3
s(g57
S'NNPP'
tp171
F7
s(S'CP'
S'CCCADVDP'
tp172
F1
s(g25
S'DDDDNP'
tp173
F1
s(S'MP'
S'MVVDP'
tp174
F1
s(g15
S'ANVP'
tp175
F2
s(S'DP'
S'DNNNP'
tp176
F3
s(S'PP'
p177
S'PPPAANNP'
tp178
F1
s(S'PP'
S'PADVADVVP'
tp179
F1
s(g106
S'PMP'
tp180
F3
s(g115
S'NNMMP'
tp181
F1
s(S'DP'
S'DAAAVVP'
tp182
F1
s(S'CP'
S'CCDP'
tp183
F17
s(S'MP'
S'AMVP'
tp184
F3
s(g47
S'PPNNNP'
tp185
F1
s(S'NP'
S'NNNNNNNCCCP'
tp186
F1
s(S'NP'
p187
S'NVVVP'
tp188
F1
s(S'CP'
p189
S'CDDDPP'
tp190
F3
s(S'PP'
S'PNNNP'
tp191
F4
s(S'AP'
S'AACCP'
tp192
F2
s(g30
S'PPP'
tp193
F22
s(S'NP'
S'NNVVP'
tp194
F2
s(g187
S'NAVP'
tp195
F3
s(g146
S'ADVDVP'
tp196
F2
s(S'PP'
p197
S'PPADVADVNP'
tp198
F1
s(S'AP'
S'AADVVP'
tp199
F2
s(g167
S'ADVADVDNP'
tp200
F1
s(S'VP'
S'VPP'
tp201
F13
s(S'CP'
p202
S'CDDDPPPP'
tp203
F1
s(S'CP'
S'ACCDP'
tp204
F1
s(S'NP'
S'NNNCP'
tp205
F8
s(S'PP'
S'PADVDP'
tp206
F1
s(S'CP'
p207
S'CAADDADVADVPPP'
tp208
F1
s(g207
S'CDDPP'
tp209
F22
s(S'PP'
p210
S'PVVP'
tp211
F11
s(S'CP'
p212
S'CADPPP'
tp213
F1
s(S'AP'
p214
S'AACP'
tp215
F3
s(S'VP'
p216
S'ADVVCP'
tp217
F3
s(S'VP'
p218
S'VPPP'
tp219
F2
s(S'VP'
p220
S'VVPPP'
tp221
F1
s(g106
S'APPMP'
tp222
F1
s(g13
S'DVVP'
tp223
F6
s(S'AP'
S'APPP'
tp224
F1
s(g158
S'ADVPPP'
tp225
F3
s(S'NP'
S'ADVADVNVP'
tp226
F2
s(S'VP'
S'VVVP'
tp227
F1
s(S'DP'
S'DDPPPP'
tp228
F2
s(S'NP'
p229
S'ANCP'
tp230
F10
s(S'DP'
S'DCP'
tp231
F1
s(g158
S'AAPPNNP'
tp232
F1
s(S'NP'
S'AAANCP'
tp233
F1
s(g11
S'DDDP'
tp234
F1
s(S'PP'
S'PPPNNNP'
tp235
F1
s(g22
S'VVDP'
tp236
F6
s(g15
S'NPPP'
tp237
F5
s(g110
S'DAVP'
tp238
F4
s(S'VP'
S'AVVVP'
tp239
F1
s(S'VP'
S'VAAAANP'
tp240
F1
s(S'NP'
S'NNNMP'
tp241
F1
s(g214
S'ACP'
tp242
F8
s(g121
S'PPNP'
tp243
F19
s(S'NP'
p244
S'NNNNCCP'
tp245
F1
s(S'AP'
p246
S'ADP'
tp247
F36
s(S'CP'
p248
S'CCCDDDP'
tp249
F3
s(S'CP'
S'CADVDPP'
tp250
F4
s(S'CP'
S'CCCDDDDDDDDDP'
tp251
F1
s(g216
S'AAAVDP'
tp252
F1
s(g22
S'AVDP'
tp253
F3
s(g134
S'VVAP'
tp254
F3
s(S'MP'
S'MVVNNNNP'
tp255
F1
s(g177
S'PAAAANP'
tp256
F1
s(S'VP'
p257
S'AAVCP'
tp258
F1
s(g62
S'NPP'
tp259
F30
s(S'PP'
S'PPPPNP'
tp260
F1
s(S'NP'
p261
S'NVP'
tp262
F45
s(g41
S'VVNNNNP'
tp263
F1
s(g131
S'VDDP'
tp264
F8
s(S'NP'
S'ANPP'
tp265
F2
s(S'PP'
p266
S'PPPPP'
tp267
F2
s(g210
S'PPPNP'
tp268
F4
s(g187
S'NPPPP'
tp269
F1
s(g212
S'CAADPP'
tp270
F4
s(g73
S'NAACP'
tp271
F2
s(g75
S'PNNP'
tp272
F16
s(S'DP'
S'AAADPP'
tp273
F4
s(S'MP'
S'MMVP'
tp274
F2
s(g36
S'ADVNCP'
tp275
F2
s(g92
S'ADPP'
tp276
F9
s(S'CP'
S'ACDP'
tp277
F5
s(g30
S'PAAP'
tp278
F5
s(S'NP'
S'NNACP'
tp279
F1
s(g38
S'VAP'
tp280
F26
s(S'VP'
S'VVVVNP'
tp281
F1
s(g13
S'DDDPP'
tp282
F8
s(S'CP'
S'ADVCDDP'
tp283
F1
s(g85
S'AANNCP'
tp284
F2
s(g113
S'PAAPP'
tp285
F2
s(g153
S'DDDPPP'
tp286
F2
s(S'DP'
p287
S'DADVDP'
tp288
F1
s(S'DP'
p289
S'DDAAAVP'
tp290
F1
s(g7
S'CCCDDDDDP'
tp291
F1
s(S'AP'
p292
S'AADDP'
tp293
F2
s(S'VP'
p294
S'VAANP'
tp295
F2
s(S'PP'
S'ADVPVP'
tp296
F1
s(S'DP'
S'DDDDPP'
tp297
F1
s(S'MP'
S'MADP'
tp298
F1
s(g134
S'AAVVNP'
tp299
F1
s(g202
S'CCAADP'
tp300
F4
s(S'AP'
S'AAACCP'
tp301
F1
s(g287
S'DDADVNP'
tp302
F1
s(g121
S'PANP'
tp303
F7
s(S'MP'
S'MVVPPP'
tp304
F1
s(S'AP'
p305
S'AAVP'
tp306
F1
s(S'NP'
S'NAAP'
tp307
F2
s(S'NP'
p308
S'NDDP'
tp309
F1
s(S'AP'
S'ACCP'
tp310
F3
s(g143
S'CDDDDDDPP'
tp311
F1
s(g15
S'NDP'
tp312
F11
s(S'NP'
S'NNNNVVP'
tp313
F1
s(S'DP'
S'DDVP'
tp314
F4
s(S'AP'
S'AADVADVADVADVVP'
tp315
F1
s(S'DP'
p316
S'ADDVP'
tp317
F1
s(S'VP'
S'VNNNP'
tp318
F2
s(S'PP'
S'ADVPAP'
tp319
F1
s(S'NP'
S'AAANVP'
tp320
F1
s(S'NP'
S'NNNNNCP'
tp321
F2
s(S'DP'
S'DDDDDDDDDPPP'
tp322
F1
s(S'VP'
S'VPPPP'
tp323
F1
s(S'VP'
S'VCCP'
tp324
F3
s(S'PP'
S'AAPNNP'
tp325
F1
s(S'NP'
p326
S'NNVP'
tp327
F5
s(g62
S'NCP'
tp328
F63
s(S'CP'
S'CCDDP'
tp329
F11
s(S'NP'
S'NNADVVP'
tp330
F1
s(g110
S'DADVNP'
tp331
F1
s(S'NP'
S'NNNNVP'
tp332
F2
s(g77
S'VVCP'
tp333
F3
s(g97
S'AANCP'
tp334
F4
s(g131
S'VADVNP'
tp335
F1
s(g38
S'VVDDDP'
tp336
F1
s(S'NP'
S'AANVP'
tp337
F2
s(g113
S'APPP'
tp338
F1
s(S'VP'
S'ADVVPP'
tp339
F1
s(S'CP'
p340
S'CDAPPP'
tp341
F1
s(g131
S'VNNP'
tp342
F7
s(S'AP'
S'AADVDP'
tp343
F2
s(S'AP'
S'AAAMP'
tp344
F1
s(S'PP'
S'AAAPPP'
tp345
F1
s(g25
S'DDNP'
tp346
F7
s(g187
S'NADVCP'
tp347
F2
s(S'DP'
S'DDNNP'
tp348
F3
s(S'PP'
p349
S'PADVADVVVP'
tp350
F1
s(g5
S'AADPP'
tp351
F6
s(g79
S'VADVAVP'
tp352
F1
s(S'NP'
S'NNNNPP'
tp353
F1
s(S'NP'
S'NNNP'
tp354
F1
s(g316
S'DADVADVAP'
tp355
F1
s(S'MP'
p356
S'MADVVDP'
tp357
F1
s(S'MP'
S'MVVNP'
tp358
F1
s(S'CP'
S'CDDADVPPP'
tp359
F1
s(g59
S'DDDDDPP'
tp360
F1
s(S'DP'
S'DAAAPP'
tp361
F1
s(g115
S'NNPPP'
tp362
F1
s(g326
S'NAPP'
tp363
F1
s(g292
S'ADVADVADP'
tp364
F1
s(S'PP'
S'AAAPPNP'
tp365
F1
s(S'CP'
S'CCAAAAAADP'
tp366
F1
s(g73
S'ANCCP'
tp367
F4
s(S'VP'
S'VDDDP'
tp368
F1
s(S'NP'
p369
S'NNMP'
tp370
F2
s(g49
S'DDDVP'
tp371
F1
s(g197
S'PAAAP'
tp372
F1
s(S'PP'
p373
S'ADVADVPNP'
tp374
F1
s(S'NP'
p375
S'AAAANCP'
tp376
F1
s(g121
S'PVP'
tp377
F36
s(g294
S'AAAAAVCCP'
tp378
F1
s(g244
S'ANNCP'
tp379
F1
s(S'PP'
S'PPDDP'
tp380
F1
s(g13
S'DPP'
tp381
F82
s(S'DP'
S'ADVVP'
tp382
F1
s(g13
S'DDPP'
tp383
F33
s(g155
S'DDADVPPP'
tp384
F1
s(S'DP'
S'DANP'
tp385
F8
s(g153
S'AADPPPP'
tp386
F1
s(S'NP'
S'NNNNCP'
tp387
F3
s(g79
S'ADVAVNNP'
tp388
F1
s(S'NP'
p389
S'NAANP'
tp390
F1
s(g158
S'ADVADVPPP'
tp391
F1
s(S'CP'
S'CDPPPPP'
tp392
F1
s(g34
S'VVDDP'
tp393
F1
s(g30
S'PDDP'
tp394
F6
s(g9
S'PCCP'
tp395
F1
s(S'NP'
S'NNNADVVP'
tp396
F1
s(g5
S'ADPPP'
tp397
F2
s(g164
S'CDDDADVADVADVADVPP'
tp398
F1
s(g115
S'NADVADVADVAVP'
tp399
F1
s(S'DP'
S'ADVADPP'
tp400
F1
s(S'DP'
S'DAANP'
tp401
F1
s(g43
S'AANCCCP'
tp402
F1
s(S'AP'
S'ADDP'
tp403
F7
s(g373
S'ADVPPNP'
tp404
F1
s(g85
S'AAAANCCP'
tp405
F2
s(g25
S'DPPP'
tp406
F28
s(S'DP'
S'AADPPP'
tp407
F3
s(S'DP'
S'DDDDDDPP'
tp408
F1
s(g45
S'PPDP'
tp409
F8
s(S'MP'
S'MVPPPP'
tp410
F1
s(S'CP'
S'CCDDDDDP'
tp411
F1
s(g292
S'AAPPP'
tp412
F1
s(S'DP'
S'DDCP'
tp413
F1
s(g151
S'DDDADVADVADVADVPP'
tp414
F1
s(g229
S'NNADVADVAPP'
tp415
F1
s(S'VP'
p416
S'VMMMP'
tp417
F1
s(g66
S'NAP'
tp418
F12
s(g369
S'NNAAP'
tp419
F2
s(g41
S'VVP'
tp420
F3
s(S'DP'
p421
S'DDDDDPPP'
tp422
F2
s(g75
S'APNP'
tp423
F5
s(S'VP'
S'VVVNNP'
tp424
F1
s(S'DP'
S'DDVVP'
tp425
F2
s(S'VP'
p426
S'VVVNP'
tp427
F1
s(S'MP'
p428
S'MAAVCP'
tp429
F1
s(S'NP'
S'NAMP'
tp430
F2
s(g428
S'MVANP'
tp431
F1
s(S'CP'
S'CDPP'
tp432
F74
s(S'MP'
S'MMMVP'
tp433
F1
s(g416
S'ADVADVADVVVNNP'
tp434
F1
s(S'CP'
S'ADVCDP'
tp435
F2
s(g305
S'ADVAAP'
tp436
F1
s(S'PP'
S'PPPNNNNNP'
tp437
F1
s(g220
S'VADVADVDP'
tp438
F1
s(S'PP'
S'PPNNP'
tp439
F6
s(g101
S'PPMP'
tp440
F1
s(g38
S'VDP'
tp441
F44
s(g5
S'DAP'
tp442
F4
s(g189
S'CADPP'
tp443
F7
s(g158
S'PPDDDP'
tp444
F1
s(g416
S'AVPP'
tp445
F3
s(S'CP'
S'CAADPPP'
tp446
F2
s(g244
S'NNP'
tp447
F1
s(S'CP'
S'CDDPPPPP'
tp448
F1
s(g287
S'ADVDAAPP'
tp449
F1
s(g77
S'ADVADVADVADVVPP'
tp450
F1
s(g287
S'DAPPP'
tp451
F1
s(g155
S'DADVADVPP'
tp452
F1
s(S'DP'
S'ADVDPP'
tp453
F6
s(S'PP'
S'PPAANP'
tp454
F4
s(g349
S'PADVADVNP'
tp455
F1
s(g340
S'CADVDAAPP'
tp456
F1
s(g246
S'AADP'
tp457
F10
s(S'DP'
S'DDAAPP'
tp458
F1
s(S'CP'
S'CCADVDDP'
tp459
F1
s(S'CP'
S'CCAAADP'
tp460
F3
s(g136
S'NADVADVADVVVP'
tp461
F1
s(S'PP'
S'PADVADVADVNP'
tp462
F1
s(S'PP'
S'ADVPDP'
tp463
F1
s(g266
S'PPPVVP'
tp464
F1
s(S'PP'
S'PPAAANP'
tp465
F3
s(S'AP'
S'AAAP'
tp466
F1
s(S'CP'
p467
S'CDDADVADVPP'
tp468
F1
s(g389
S'AANDP'
tp469
F1
s(g248
S'CCCCDDDDDP'
tp470
F1
s(g148
S'DADVNNP'
tp471
F1
s(S'NP'
S'NNCCP'
tp472
F8
s(g356
S'MNVP'
tp473
F1
s(S'NP'
S'AANCCP'
tp474
F3
s(g426
S'ADVVDP'
tp475
F3
s(g148
S'DADVPP'
tp476
F5
s(g308
S'ADVNNCP'
tp477
F1
s(g467
S'AACDP'
tp478
F2
s(S'NP'
S'NNNCCP'
tp479
F1
s(g202
S'CCDDDP'
tp480
F4
s(g13
S'DVP'
tp481
F33
s(g57
S'ADVNPP'
tp482
F1
s(g375
S'NNCCCP'
tp483
F1
s(S'AP'
p484
S'AVP'
tp485
F7
s(g261
S'NADVVP'
tp486
F3
s(g218
S'AAAVVDP'
tp487
F1
s(S'VP'
S'ADVVPPP'
tp488
F1
s(g289
S'DDPPP'
tp489
F7
s(S'NP'
S'NNAP'
tp490
F1
s(S'CP'
S'CDADVPP'
tp491
F5
s(S'VP'
S'VNP'
tp492
F27
s(g257
S'VANP'
tp493
F1
s(S'VP'
S'VADVAP'
tp494
F1
s(g421
S'DAAAAAVP'
tp495
F1
s(g45
S'PPADVNP'
tp496
F1
s(g484
S'AAAAVVP'
tp497
F1
s.