ccollections
defaultdict
p1
(c__builtin__
float
p2
tRp3
(S'VP'
S'VVAAAP'
tp4
F1
s(S'PP'
S'PAAANP'
tp5
F2
s(S'DP'
p6
S'ADDPP'
tp7
F7
s(S'DP'
S'DDAP'
tp8
F2
s(S'VP'
p9
S'VVVVP'
tp10
F1
s(S'DP'
S'DAANNP'
tp11
F2
s(S'PP'
p12
S'PAPP'
tp13
F5
s(S'PP'
p14
S'PADVNP'
tp15
F6
s(S'DP'
p16
S'DNP'
tp17
F113
s(S'NP'
S'ADVNDP'
tp18
F1
s(S'CP'
p19
S'CDPPP'
tp20
F42
s(S'VP'
p21
S'VADP'
tp22
F6
s(S'CP'
S'CCADVADVADP'
tp23
F1
s(S'NP'
p24
S'ADVNCCP'
tp25
F2
s(S'VP'
S'AAVPPP'
tp26
F1
s(S'NP'
p27
S'NNNPPPP'
tp28
F1
s(S'CP'
S'CADVADVDPPP'
tp29
F1
s(S'DP'
p30
S'DAADP'
tp31
F2
s(S'PP'
p32
S'APVP'
tp33
F7
s(S'MP'
S'MVDP'
tp34
F5
s(S'PP'
p35
S'PADVANP'
tp36
F1
s(S'NP'
p37
S'AANNPP'
tp38
F2
s(S'PP'
p39
S'PPPP'
tp40
F29
s(S'DP'
p41
S'DDDNP'
tp42
F3
s(S'VP'
S'VACP'
tp43
F3
s(S'AP'
p44
S'AAAVP'
tp45
F1
s(S'PP'
p46
S'PPAAP'
tp47
F4
s(S'NP'
S'NNNNNCCCP'
tp48
F1
s(S'DP'
p49
S'DADVVP'
tp50
F6
s(S'PP'
S'PADVNNP'
tp51
F1
s(S'NP'
p52
S'NADVACP'
tp53
F1
s(S'NP'
S'NAAVVP'
tp54
F1
s(S'NP'
S'NCCCP'
tp55
F2
s(S'CP'
p56
S'CADVDAPP'
tp57
F2
s(S'NP'
p58
S'ANADVPP'
tp59
F1
s(S'VP'
p60
S'VCP'
tp61
F60
s(S'NP'
S'NMMP'
tp62
F1
s(S'VP'
p63
S'ADVVCCP'
tp64
F2
s(g46
S'PAP'
tp65
F63
s(S'NP'
S'ANNDP'
tp66
F1
s(S'VP'
S'VADVADVAP'
tp67
F1
s(S'NP'
S'NNNAP'
tp68
F1
s(S'CP'
S'AAAACDP'
tp69
F1
s(S'NP'
S'ANPPP'
tp70
F2
s(S'VP'
p71
S'AAVNNP'
tp72
F1
s(S'PP'
p73
S'PNP'
tp74
F165
s(S'PP'
p75
S'PAAADP'
tp76
F1
s(S'DP'
p77
S'DDP'
tp78
F42
s(S'NP'
S'NNNPP'
tp79
F3
s(S'PP'
p80
S'PAAP'
tp81
F17
s(S'MP'
S'MCDP'
tp82
F1
s(S'DP'
S'DDAANP'
tp83
F2
s(S'NP'
p84
S'ADVNADVAP'
tp85
F1
s(S'CP'
p86
S'CADVDADVAPP'
tp87
F1
s(S'VP'
S'ADVADVVVCP'
tp88
F1
s(S'NP'
S'NMP'
tp89
F23
s(S'PP'
S'PPMMP'
tp90
F1
s(g73
S'PDP'
tp91
F129
s(S'CP'
p92
S'CCADVADVDP'
tp93
F1
s(S'CP'
p94
S'CDADVADVPP'
tp95
F1
s(S'AP'
S'AAANP'
tp96
F1
s(S'MP'
S'MNNVP'
tp97
F1
s(S'DP'
p98
S'ADVDADVAPP'
tp99
F1
s(S'CP'
p100
S'CDADVADVPPP'
tp101
F1
s(S'VP'
p102
S'AVAAP'
tp103
F2
s(S'NP'
S'NACCP'
tp104
F2
s(S'PP'
S'PADVPP'
tp105
F1
s(S'NP'
S'NNADVCP'
tp106
F1
s(S'CP'
S'CDDAPPP'
tp107
F1
s(S'PP'
p108
S'PPADVAP'
tp109
F1
s(S'NP'
S'ADVANCP'
tp110
F2
s(S'PP'
S'AAPPPP'
tp111
F1
s(S'DP'
p112
S'DPPPP'
tp113
F10
s(S'DP'
p114
S'DDANP'
tp115
F1
s(S'NP'
p116
S'NACP'
tp117
F14
s(S'AP'
S'ADVAVP'
tp118
F1
s(S'NP'
p119
S'NCCP'
tp120
F54
s(S'VP'
S'AVADVNP'
tp121
F1
s(S'VP'
S'VVADVCP'
tp122
F2
s(S'AP'
p123
S'AAAADP'
tp124
F1
s(S'NP'
p125
S'NNCP'
tp126
F58
s(g37
S'AANPPP'
tp127
F1
s(S'DP'
p128
S'DDDDP'
tp129
F1
s(S'VP'
S'AVNP'
tp130
F2
s(S'VP'
p131
S'VVADP'
tp132
F2
s(S'NP'
S'NNNAPP'
tp133
F1
s(S'CP'
p134
S'CCADVADDP'
tp135
F1
s(S'PP'
p136
S'PADVADVANP'
tp137
F1
s(S'VP'
S'VVNNNP'
tp138
F1
s(S'PP'
p139
S'ADVPVVP'
tp140
F2
s(S'PP'
p141
S'PPAAAANNP'
tp142
F1
s(S'CP'
S'ACCDDP'
tp143
F1
s(S'NP'
p144
S'NCCCCP'
tp145
F3
s(S'CP'
S'CCCDP'
tp146
F3
s(S'VP'
p147
S'ADVVAP'
tp148
F4
s(S'PP'
p149
S'ADVPPNNP'
tp150
F1
s(g32
S'APDP'
tp151
F14
s(S'PP'
p152
S'ADVADVAPNP'
tp153
F1
s(S'NP'
S'AANNCCP'
tp154
F1
s(g131
S'VVANP'
tp155
F3
s(S'PP'
S'PPACP'
tp156
F1
s(S'NP'
S'NAAAACP'
tp157
F1
s(S'NP'
S'ADVADVNNPP'
tp158
F1
s(g141
S'PPADVADVAP'
tp159
F1
s(S'DP'
S'DAAP'
tp160
F4
s(S'NP'
S'NANP'
tp161
F2
s(S'PP'
p162
S'ADVADVPAVP'
tp163
F1
s(S'DP'
p164
S'DNNP'
tp165
F35
s(S'CP'
S'CADVDDPP'
tp166
F1
s(S'DP'
S'DPPPPP'
tp167
F3
s(S'CP'
S'CDDPPPP'
tp168
F1
s(S'CP'
S'CCADVDP'
tp169
F2
s(S'PP'
p170
S'PPAADP'
tp171
F1
s(g63
S'VVACP'
tp172
F2
s(S'NP'
p173
S'NNNVP'
tp174
F5
s(S'DP'
S'DDNNNP'
tp175
F1
s(g46
S'PADVVP'
tp176
F7
s(g27
S'AAAANNCCP'
tp177
F1
s(S'PP'
p178
S'APAP'
tp179
F5
s(S'CP'
S'ADVADVCDP'
tp180
F4
s(S'AP'
S'ACCCP'
tp181
F1
s(S'NP'
p182
S'NADVMP'
tp183
F1
s(S'AP'
p184
S'AAP'
tp185
F6
s(S'CP'
p186
S'CADVADPP'
tp187
F2
s(S'DP'
p188
S'DADVADVNP'
tp189
F1
s(g136
S'APPDP'
tp190
F1
s(g49
S'DAAVP'
tp191
F3
s(S'CP'
S'CDDDDPP'
tp192
F2
s(S'PP'
S'PAANP'
tp193
F5
s(S'VP'
S'VADVADVCP'
tp194
F2
s(S'PP'
p195
S'PPVVP'
tp196
F10
s(S'DP'
S'ADVDDPP'
tp197
F1
s(g58
S'NNAAAP'
tp198
F1
s(S'MP'
p199
S'MVNP'
tp200
F7
s(S'MP'
S'AMVP'
tp201
F1
s(S'MP'
S'MVAPPP'
tp202
F1
s(S'CP'
S'ACADDP'
tp203
F1
s(S'CP'
S'CDDDPPP'
tp204
F1
s(S'PP'
S'PAVP'
tp205
F5
s(S'PP'
S'ADVAPNNP'
tp206
F1
s(g144
S'NNADVADVANP'
tp207
F1
s(S'DP'
p208
S'DDAPPP'
tp209
F1
s(S'VP'
p210
S'VVVPP'
tp211
F2
s(g144
S'ADVADVANDP'
tp212
F1
s(g75
S'APPPP'
tp213
F2
s(S'DP'
p214
S'DADP'
tp215
F3
s(g164
S'ADVDVVP'
tp216
F1
s(S'AP'
S'ADVADP'
tp217
F3
s(g184
S'APP'
tp218
F19
s(S'DP'
S'ADVDDP'
tp219
F1
s(S'PP'
S'APDDP'
tp220
F2
s(g112
S'ADDAAP'
tp221
F1
s(S'VP'
p222
S'ADVVNP'
tp223
F5
s(S'MP'
S'MADVADVVPP'
tp224
F1
s(S'VP'
p225
S'VVNP'
tp226
F28
s(S'PP'
p227
S'PPPNNP'
tp228
F4
s(S'PP'
p229
S'PPVP'
tp230
F26
s(S'VP'
p231
S'VADVDP'
tp232
F3
s(S'AP'
p233
S'AADVADVPPP'
tp234
F1
s(g231
S'VAAP'
tp235
F8
s(S'MP'
S'MANPP'
tp236
F1
s(g182
S'ANDP'
tp237
F5
s(g125
S'NVVP'
tp238
F22
s(S'PP'
p239
S'PPADP'
tp240
F5
s(S'VP'
S'VMP'
tp241
F1
s(S'AP'
S'AAAVVP'
tp242
F1
s(g9
S'VVNNP'
tp243
F4
s(g56
S'CDAPP'
tp244
F14
s(S'VP'
S'VVAAP'
tp245
F1
s(S'DP'
S'ADNP'
tp246
F11
s(g6
S'ADNNNNP'
tp247
F1
s(S'AP'
S'AAAAADP'
tp248
F1
s(g210
S'ADVVACP'
tp249
F1
s(g14
S'PADP'
tp250
F10
s(S'VP'
S'ADVVVCP'
tp251
F1
s(S'DP'
p252
S'ADVADVDVP'
tp253
F2
s(S'DP'
S'DADVAP'
tp254
F1
s(S'PP'
S'ADVADVPMP'
tp255
F1
s(S'DP'
S'ADVDAANP'
tp256
F1
s(g77
S'DAPP'
tp257
F20
s(g231
S'AVVP'
tp258
F1
s(S'VP'
p259
S'ADVADVVPP'
tp260
F1
s(g259
S'VVAANP'
tp261
F1
s(S'VP'
p262
S'ADVADVVDP'
tp263
F1
s(S'NP'
S'NNNADVAP'
tp264
F1
s(g229
S'PPPDP'
tp265
F7
s(S'PP'
S'AAAPVVP'
tp266
F1
s(S'DP'
S'DAAPPP'
tp267
F1
s(g123
S'AAPPP'
tp268
F1
s(S'DP'
S'DAAANP'
tp269
F2
s(S'NP'
S'ANADVVVP'
tp270
F1
s(S'VP'
p271
S'VAAPP'
tp272
F2
s(S'DP'
p273
S'ADANNP'
tp274
F1
s(S'DP'
S'ADVDNP'
tp275
F1
s(g60
S'VVPP'
tp276
F12
s(g186
S'AACDDP'
tp277
F2
s(S'MP'
S'MVPP'
tp278
F3
s(S'DP'
p279
S'ADVP'
tp280
F3
s(S'DP'
p281
S'DDAAPP'
tp282
F3
s(S'MP'
S'ADVMVVP'
tp283
F1
s(g24
S'NNPP'
tp284
F14
s(g134
S'CAADPPPP'
tp285
F1
s(S'AP'
p286
S'AACP'
tp287
F7
s(S'NP'
p288
S'ANVP'
tp289
F11
s(S'VP'
S'AAAVDDP'
tp290
F1
s(S'DP'
p291
S'DNNNP'
tp292
F4
s(g271
S'ADVVCP'
tp293
F4
s(g35
S'PVVVP'
tp294
F1
s(S'PP'
S'PMP'
tp295
F10
s(S'CP'
S'CCDP'
tp296
F80
s(S'NP'
S'ADVNNDP'
tp297
F1
s(S'VP'
S'VADVANP'
tp298
F2
s(S'PP'
S'PPNNNP'
tp299
F2
s(S'NP'
S'NVVVP'
tp300
F4
s(S'CP'
S'CDDDPP'
tp301
F6
s(S'CP'
S'CDAAPP'
tp302
F4
s(S'VP'
S'VVVDP'
tp303
F2
s(S'PP'
S'PNNNP'
tp304
F11
s(S'CP'
p305
S'CCCCDP'
tp306
F3
s(S'AP'
S'AACCP'
tp307
F3
s(S'PP'
S'AAPNP'
tp308
F7
s(g108
S'PADVVVP'
tp309
F1
s(S'PP'
S'PPP'
tp310
F83
s(S'NP'
p311
S'NNADVDP'
tp312
F2
s(S'NP'
p313
S'NAVP'
tp314
F3
s(S'PP'
p315
S'PADVAP'
tp316
F4
s(S'DP'
S'ADVADVVP'
tp317
F1
s(S'PP'
p318
S'PADDP'
tp319
F2
s(g279
S'ADVDVP'
tp320
F4
s(S'NP'
p321
S'NAAAP'
tp322
F4
s(S'DP'
p323
S'DADVADVPPP'
tp324
F1
s(g52
S'NNDDP'
tp325
F2
s(S'DP'
S'DAAAP'
tp326
F2
s(g128
S'ADVADVDNP'
tp327
F2
s(g60
S'VPP'
tp328
F64
s(S'NP'
S'NNNNAAPP'
tp329
F1
s(S'CP'
S'ADVCCDP'
tp330
F1
s(S'CP'
p331
S'ACCDP'
tp332
F1
s(S'NP'
p333
S'NNNCP'
tp334
F14
s(g318
S'PADVDP'
tp335
F4
s(g92
S'CDADVAPP'
tp336
F2
s(S'CP'
S'CCCAADP'
tp337
F1
s(S'DP'
p338
S'DANNP'
tp339
F1
s(g19
S'CDDPP'
tp340
F44
s(S'DP'
S'DAAPP'
tp341
F10
s(S'PP'
S'PVVP'
tp342
F23
s(S'CP'
p343
S'CADPPP'
tp344
F5
s(g252
S'DADVPPP'
tp345
F3
s(S'PP'
S'PMMP'
tp346
F3
s(S'PP'
S'ADVPPAP'
tp347
F1
s(g147
S'VPPP'
tp348
F11
s(S'CP'
S'CDADVADVAPP'
tp349
F1
s(S'VP'
p350
S'VVPPP'
tp351
F2
s(g27
S'NNNNNVVP'
tp352
F1
s(g39
S'PPAP'
tp353
F17
s(g41
S'DVVP'
tp354
F21
s(S'NP'
p355
S'ANMP'
tp356
F2
s(S'AP'
S'APPP'
tp357
F2
s(g195
S'ADVPPP'
tp358
F5
s(g355
S'ADVADVNVP'
tp359
F2
s(g210
S'VVVP'
tp360
F6
s(S'DP'
S'DDPPPP'
tp361
F2
s(g108
S'ADVAPPPP'
tp362
F1
s(g24
S'ANCP'
tp363
F20
s(g16
S'DCP'
tp364
F9
s(g323
S'DVVVP'
tp365
F3
s(S'NP'
S'AAANCP'
tp366
F4
s(S'VP'
S'ADVVVVP'
tp367
F1
s(S'PP'
S'PPADVPP'
tp368
F1
s(S'VP'
p369
S'VVVNNNP'
tp370
F1
s(S'NP'
S'AAANNNNADVVP'
tp371
F1
s(g291
S'DDDP'
tp372
F15
s(S'AP'
S'ADDDDP'
tp373
F1
s(g291
S'DDADVPP'
tp374
F3
s(g333
S'ANVVP'
tp375
F4
s(S'VP'
p376
S'VVDP'
tp377
F27
s(g24
S'NPPP'
tp378
F18
s(g318
S'PPAPP'
tp379
F4
s(g114
S'DAVP'
tp380
F10
s(g286
S'ACP'
tp381
F37
s(S'PP'
p382
S'PADVADVNNP'
tp383
F1
s(S'PP'
S'PPNP'
tp384
F43
s(S'PP'
p385
S'AAAAPDP'
tp386
F1
s(g49
S'ADVDAPP'
tp387
F3
s(S'DP'
S'AADVP'
tp388
F1
s(S'PP'
p389
S'PPPPPVP'
tp390
F1
s(S'VP'
S'AAAAVDDP'
tp391
F1
s(g343
S'CDDADVPP'
tp392
F2
s(g100
S'CCCDDP'
tp393
F1
s(S'AP'
S'ADP'
tp394
F104
s(g94
S'CADVDPP'
tp395
F12
s(S'PP'
S'APVVP'
tp396
F1
s(S'NP'
S'AAAANNCP'
tp397
F2
s(S'NP'
S'ADVANCCP'
tp398
F1
s(S'NP'
S'AAANNCP'
tp399
F1
s(S'VP'
S'VAAANP'
tp400
F1
s(g102
S'VVPPPP'
tp401
F1
s(S'VP'
S'AAAVDP'
tp402
F1
s(g9
S'AVDP'
tp403
F7
s(g116
S'NANNP'
tp404
F1
s(S'PP'
p405
S'ADVAPDDP'
tp406
F1
s(g231
S'VVAP'
tp407
F10
s(S'NP'
S'NNAPP'
tp408
F1
s(S'NP'
S'NNADVADVADVVP'
tp409
F1
s(S'CP'
S'ADVACDP'
tp410
F1
s(g178
S'APPVVP'
tp411
F3
s(S'PP'
p412
S'PPADVVP'
tp413
F1
s(g288
S'NPP'
tp414
F79
s(S'NP'
p415
S'NNNP'
tp416
F3
s(g288
S'NVP'
tp417
F121
s(S'PP'
S'PPVVVP'
tp418
F1
s(S'PP'
S'PAAVP'
tp419
F1
s(S'PP'
S'AAPPNP'
tp420
F1
s(S'NP'
S'NAAPP'
tp421
F2
s(S'PP'
S'PPPPVP'
tp422
F1
s(g60
S'VDDP'
tp423
F22
s(S'AP'
S'AAADVDP'
tp424
F2
s(S'DP'
p425
S'DADVAPP'
tp426
F2
s(S'DP'
p427
S'DDADVADVNNP'
tp428
F1
s(S'NP'
S'NADVADVVVP'
tp429
F1
s(g321
S'ANPP'
tp430
F10
s(g39
S'PPPPP'
tp431
F12
s(S'MP'
S'MPDP'
tp432
F1
s(g149
S'ADVADVPDP'
tp433
F1
s(S'PP'
S'PPPNP'
tp434
F4
s(S'NP'
S'NPPPP'
tp435
F1
s(S'DP'
S'ADDP'
tp436
F3
s(S'NP'
p437
S'NNCCCCP'
tp438
F1
s(g86
S'CAADPP'
tp439
F4
s(S'DP'
p440
S'DADVADVVP'
tp441
F1
s(S'NP'
S'NAACP'
tp442
F5
s(g39
S'PNNP'
tp443
F47
s(S'AP'
S'AADVAPP'
tp444
F1
s(g80
S'APNNP'
tp445
F1
s(S'VP'
p446
S'ADVADVAVVCP'
tp447
F1
s(S'MP'
S'MMNP'
tp448
F1
s(S'MP'
S'MMVP'
tp449
F3
s(S'NP'
S'ADVNCP'
tp450
F2
s(S'AP'
S'AADP'
tp451
F21
s(S'VP'
S'VAPPP'
tp452
F2
s(g56
S'ACDP'
tp453
F18
s(g281
S'DDADVADVVP'
tp454
F1
s(S'NP'
S'NNACP'
tp455
F4
s(S'CP'
S'CDADVPPP'
tp456
F2
s(g376
S'VAP'
tp457
F64
s(g128
S'DDDPP'
tp458
F10
s(g86
S'ADVCDDP'
tp459
F3
s(S'NP'
S'AANNCP'
tp460
F1
s(S'DP'
S'DDDPPP'
tp461
F1
s(S'DP'
S'DDAAAVP'
tp462
F1
s(S'AP'
S'AAACP'
tp463
F3
s(S'DP'
S'ADADVVP'
tp464
F1
s(S'NP'
S'NAAP'
tp465
F5
s(S'CP'
S'CCCDDDDDP'
tp466
F1
s(g446
S'AAVAP'
tp467
F1
s(S'AP'
S'AADDP'
tp468
F6
s(g162
S'PPPADVADVNP'
tp469
F1
s(S'NP'
p470
S'NAAVP'
tp471
F1
s(S'VP'
S'VAANP'
tp472
F5
s(S'NP'
S'NADVADVCP'
tp473
F2
s(g208
S'AAADDP'
tp474
F1
s(S'VP'
S'VVVNNNNP'
tp475
F1
s(g273
S'ADAAAVVP'
tp476
F1
s(S'MP'
S'MPNP'
tp477
F1
s(S'MP'
S'MVAAPP'
tp478
F1
s(S'MP'
S'MADP'
tp479
F3
s(S'CP'
S'CCAADP'
tp480
F2
s(g123
S'ADVADVADDP'
tp481
F2
s(g32
S'PANP'
tp482
F25
s(g279
S'ADVADPP'
tp483
F2
s(S'NP'
S'ADVANPPP'
tp484
F1
s(S'AP'
p485
S'AAVP'
tp486
F4
s(S'AP'
S'AVVP'
tp487
F5
s(g333
S'NDDP'
tp488
F6
s(S'DP'
S'ADVADVDPPP'
tp489
F1
s(S'AP'
S'ACCP'
tp490
F8
s(S'PP'
S'ADVPAANP'
tp491
F1
s(g288
S'NDP'
tp492
F42
s(S'PP'
S'PADVADVADVNP'
tp493
F1
s(g288
S'AAANVP'
tp494
F2
s(g389
S'PPPPPPPPP'
tp495
F1
s(g49
S'DDVP'
tp496
F24
s(S'MP'
S'MMADVVVP'
tp497
F1
s(S'NP'
S'AANVP'
tp498
F4
s(S'DP'
S'DADVADVAPP'
tp499
F1
s(g214
S'ADDVP'
tp500
F1
s(g231
S'VNNNP'
tp501
F2
s(S'NP'
S'NNNNVVP'
tp502
F2
s(g80
S'PCP'
tp503
F9
s(g37
S'NNPPP'
tp504
F7
s(S'PP'
S'PAADP'
tp505
F3
s(S'VP'
S'VPPPP'
tp506
F1
s(S'VP'
S'VCCP'
tp507
F16
s(S'DP'
S'DDADVADVAVP'
tp508
F1
s(S'AP'
S'ADVACP'
tp509
F5
s(S'PP'
S'AAPNNP'
tp510
F2
s(g239
S'PAPPP'
tp511
F1
s(g114
S'ADPPP'
tp512
F10
s(S'MP'
S'MVCP'
tp513
F3
s(g44
S'AAAADVPPP'
tp514
F1
s(S'CP'
S'CCDDP'
tp515
F14
s(g262
S'AAVVNNP'
tp516
F1
s(S'NP'
S'NNADVVP'
tp517
F3
s(g440
S'DDADVADVAVVP'
tp518
F1
s(S'VP'
S'ADVADVADVVPP'
tp519
F1
s(g214
S'DDADP'
tp520
F1
s(S'DP'
S'DAAAAVP'
tp521
F1
s(S'MP'
S'MAADDP'
tp522
F1
s(S'NP'
S'NNVVP'
tp523
F9
s(g222
S'VVCP'
tp524
F7
s(g119
S'AANCP'
tp525
F9
s(S'VP'
p526
S'VADVNP'
tp527
F3
s(g369
S'VVDDDP'
tp528
F1
s(S'CP'
S'CCCCADDP'
tp529
F1
s(g32
S'APPP'
tp530
F5
s(g273
S'DDDDPPP'
tp531
F1
s(S'VP'
S'ADVVPP'
tp532
F2
s(g131
S'VVADVANP'
tp533
F1
s(g56
S'CDAPPP'
tp534
F2
s(g147
S'VNNP'
tp535
F26
s(g286
S'AADVDP'
tp536
F4
s(g311
S'NADP'
tp537
F2
s(S'DP'
p538
S'DDNP'
tp539
F27
s(S'CP'
S'ACADVDP'
tp540
F1
s(g437
S'NADVCP'
tp541
F5
s(S'DP'
S'DDNNP'
tp542
F5
s(S'PP'
p543
S'AAPPP'
tp544
F3
s(g271
S'ADVAVPP'
tp545
F1
s(S'NP'
p546
S'AANAAAP'
tp547
F1
s(S'NP'
S'ADVADVNCP'
tp548
F1
s(g98
S'AADPP'
tp549
F9
s(S'NP'
S'NNNNPP'
tp550
F1
s(S'DP'
S'DADVADVANP'
tp551
F1
s(g227
S'ADVADVPPDP'
tp552
F1
s(S'VP'
S'VAAANNP'
tp553
F1
s(g229
S'AAPDP'
tp554
F3
s(S'NP'
S'ANVVVP'
tp555
F1
s(S'VP'
S'ADVADVADVVDDP'
tp556
F1
s(S'MP'
S'MVVNP'
tp557
F1
s(S'DP'
S'ADVDNNP'
tp558
F1
s(g86
S'ACDDP'
tp559
F5
s(S'NP'
p560
S'ADVADVNNCP'
tp561
F2
s(g233
S'AAPP'
tp562
F2
s(g225
S'VVCCP'
tp563
F3
s(S'PP'
S'PADVMP'
tp564
F1
s(S'DP'
S'DAAAPP'
tp565
F1
s(S'PP'
S'ADVPANP'
tp566
F1
s(S'VP'
S'VVVCCP'
tp567
F2
s(g415
S'NAPP'
tp568
F6
s(g405
S'PADVAPP'
tp569
F1
s(g313
S'ANCCP'
tp570
F6
s(S'NP'
p571
S'AANPP'
tp572
F2
s(g313
S'NNCCP'
tp573
F15
s(g24
S'NNMP'
tp574
F4
s(S'DP'
S'DDDVP'
tp575
F1
s(S'VP'
S'AAVPP'
tp576
F1
s(g331
S'CADDPP'
tp577
F4
s(g12
S'PAAAP'
tp578
F4
s(S'VP'
S'VVVDDP'
tp579
F2
s(S'CP'
S'CDDAPP'
tp580
F3
s(g30
S'ADVADDADVADVPP'
tp581
F1
s(S'NP'
S'ANAP'
tp582
F1
s(S'MP'
S'MVAP'
tp583
F2
s(g73
S'PVP'
tp584
F110
s(g164
S'ADVDPP'
tp585
F18
s(g112
S'DDADVAVP'
tp586
F1
s(S'VP'
S'VADVCCP'
tp587
F1
s(g152
S'PPPPADVVP'
tp588
F1
s(S'NP'
p589
S'ADVNAVP'
tp590
F1
s(S'NP'
S'ANNCP'
tp591
F4
s(g208
S'AADDNNP'
tp592
F1
s(S'PP'
S'PPAANP'
tp593
F1
s(S'NP'
S'ADVADVADVNVP'
tp594
F1
s(S'NP'
S'ADVADVANVP'
tp595
F1
s(g139
S'PPDDP'
tp596
F7
s(g147
S'AVCP'
tp597
F2
s(g571
S'NADVADVAP'
tp598
F1
s(g16
S'DPP'
tp599
F202
s(g37
S'ADVNVP'
tp600
F3
s(g41
S'DDPP'
tp601
F72
s(g77
S'DDAVP'
tp602
F3
s(S'DP'
S'DANP'
tp603
F16
s(g58
S'ADVADVNAP'
tp604
F1
s(g84
S'NADVPP'
tp605
F4
s(g30
S'AADPPPP'
tp606
F1
s(g427
S'ADVADVADPP'
tp607
F1
s(S'DP'
S'AADNP'
tp608
F3
s(S'VP'
S'VADVCP'
tp609
F3
s(g313
S'NNNNCP'
tp610
F3
s(S'PP'
S'PPAANNP'
tp611
F1
s(g440
S'ADDPPP'
tp612
F1
s(S'NP'
S'NNNVVP'
tp613
F1
s(S'NP'
S'NNP'
tp614
F1
s(g128
S'DCCP'
tp615
F1
s(g46
S'ADVADVPPP'
tp616
F1
s(S'NP'
S'NNNNNNCP'
tp617
F1
s(S'CP'
S'CDPPPPP'
tp618
F2
s(S'MP'
S'MADVVDP'
tp619
F1
s(g73
S'PDDP'
tp620
F26
s(S'CP'
p621
S'CDDDDPPP'
tp622
F1
s(S'MP'
S'MVDDP'
tp623
F1
s(S'PP'
S'PCCP'
tp624
F1
s(S'PP'
p625
S'ADVAPNP'
tp626
F2
s(S'CP'
S'ADVADVCCADDP'
tp627
F1
s(g546
S'NNVP'
tp628
F20
s(g173
S'NAANP'
tp629
F1
s(g526
S'VVDDP'
tp630
F7
s(g164
S'DAANP'
tp631
F4
s(S'AP'
S'ADDP'
tp632
F23
s(g139
S'PNNNNP'
tp633
F2
s(S'VP'
S'ADVVVAP'
tp634
F1
s(g412
S'ADVPPNP'
tp635
F1
s(S'CP'
S'CADVADVDPP'
tp636
F3
s(g16
S'DPPP'
tp637
F77
s(S'MP'
S'MADVADVADVVDDP'
tp638
F1
s(g279
S'AADPPP'
tp639
F2
s(S'CP'
S'ADVADVADVCCDP'
tp640
F1
s(g382
S'ADVADVPPNP'
tp641
F1
s(S'AP'
S'AAAP'
tp642
F1
s(S'NP'
S'NNAVP'
tp643
F1
s(S'PP'
S'ADVPNP'
tp644
F11
s(g39
S'PPDP'
tp645
F30
s(g389
S'PPPAAP'
tp646
F1
s(S'PP'
S'PPPVP'
tp647
F1
s(g144
S'NNAAACP'
tp648
F2
s(S'VP'
S'AAAVVDDP'
tp649
F1
s(S'DP'
p650
S'DDCP'
tp651
F1
s(g52
S'NAAAVVP'
tp652
F1
s(S'NP'
S'NNADVADP'
tp653
F1
s(g188
S'ADVDADVNP'
tp654
F1
s(g24
S'NAP'
tp655
F39
s(g546
S'NNAAP'
tp656
F1
s(S'DP'
S'AADDP'
tp657
F1
s(S'VP'
S'AVADVCP'
tp658
F1
s(g147
S'VVP'
tp659
F12
s(S'MP'
S'ADVMNP'
tp660
F1
s(S'DP'
S'DDAPP'
tp661
F5
s(g141
S'PNNNNNP'
tp662
F1
s(S'AP'
S'AAADP'
tp663
F11
s(g227
S'APNP'
tp664
F11
s(g16
S'DDVVP'
tp665
F7
s(S'VP'
S'VVVNP'
tp666
F1
s(S'PP'
S'PPPANNP'
tp667
F1
s(S'MP'
S'MVANP'
tp668
F1
s(S'MP'
S'MVNNP'
tp669
F1
s(S'CP'
S'CDPP'
tp670
F180
s(S'CP'
S'AAACDP'
tp671
F2
s(S'AP'
S'ADDDP'
tp672
F1
s(S'VP'
S'AAAVVCP'
tp673
F1
s(g313
S'NNDP'
tp674
F7
s(g350
S'AVAADDP'
tp675
F1
s(S'VP'
S'ADVADVAVCP'
tp676
F1
s(g305
S'ADVCDP'
tp677
F9
s(g75
S'AAPVVP'
tp678
F1
s(g446
S'ADVADVVNP'
tp679
F1
s(g412
S'PADVADVDP'
tp680
F1
s(S'VP'
p681
S'VADVADVDP'
tp682
F3
s(g39
S'PPNNP'
tp683
F14
s(S'PP'
S'PPMP'
tp684
F2
s(S'DP'
S'ADVADVDPP'
tp685
F4
s(g376
S'VDP'
tp686
F110
s(S'NP'
S'NADVAP'
tp687
F1
s(g71
S'AVDDP'
tp688
F3
s(S'DP'
S'DADVNP'
tp689
F1
s(g77
S'DAP'
tp690
F22
s(S'CP'
S'CADPP'
tp691
F16
s(g75
S'PPAVP'
tp692
F2
s(g21
S'AVPP'
tp693
F6
s(g186
S'CAADPPP'
tp694
F1
s(S'DP'
S'DDNNNNP'
tp695
F1
s(S'VP'
S'VVADVDP'
tp696
F1
s(S'CP'
S'CDPPPP'
tp697
F5
s(S'VP'
S'AAVDP'
tp698
F2
s(S'PP'
S'PANNP'
tp699
F4
s(S'AP'
S'AAAPP'
tp700
F1
s(g49
S'DAPPP'
tp701
F2
s(g164
S'DADVADVPP'
tp702
F3
s(S'NP'
S'NNNNDP'
tp703
F1
s(g625
S'PAAAVP'
tp704
F1
s(S'PP'
S'APADVPP'
tp705
F1
s(g470
S'ANADVADVCCP'
tp706
F1
s(g543
S'PADVADVNP'
tp707
F2
s(S'PP'
S'PPPPNP'
tp708
F1
s(S'DP'
S'ADPP'
tp709
F28
s(S'NP'
S'NADVADVADVCCP'
tp710
F1
s(S'VP'
S'VADVPP'
tp711
F1
s(g94
S'CDDPPP'
tp712
F11
s(g425
S'ADVDANP'
tp713
F1
s(g178
S'ADVPVP'
tp714
F7
s(g338
S'DDDDPP'
tp715
F2
s(S'AP'
S'ADVADVAVP'
tp716
F1
s(S'NP'
S'ADVADVANCP'
tp717
F1
s(g446
S'ADVVANP'
tp718
F1
s(S'PP'
S'PAMP'
tp719
F1
s(g170
S'ADVPDP'
tp720
F2
s(g116
S'ANNPP'
tp721
F4
s(g288
S'NCP'
tp722
F151
s(S'CP'
S'CADVDPPP'
tp723
F3
s(g681
S'ADVVVPP'
tp724
F1
s(g650
S'ADVVP'
tp725
F2
s(S'VP'
S'VAADP'
tp726
F1
s(S'PP'
S'PPAAAP'
tp727
F3
s(g315
S'ADVPDDP'
tp728
F2
s(S'DP'
S'DDDDDPP'
tp729
F1
s(g60
S'VDDDP'
tp730
F2
s(S'MP'
S'MNVP'
tp731
F3
s(g52
S'AANAP'
tp732
F1
s(S'NP'
S'AANCCP'
tp733
F2
s(g147
S'VAPP'
tp734
F1
s(S'VP'
S'ADVVDP'
tp735
F8
s(g271
S'VADDP'
tp736
F1
s(g538
S'DADVPP'
tp737
F18
s(S'CP'
p738
S'CCADP'
tp739
F7
s(g621
S'AACDP'
tp740
F4
s(g589
S'NNNCCP'
tp741
F4
s(g621
S'CCDDDP'
tp742
F2
s(g188
S'ADVDPPP'
tp743
F3
s(g16
S'DVP'
tp744
F104
s(S'VP'
S'AVNNP'
tp745
F1
s(g560
S'ADVNPP'
tp746
F2
s(g281
S'AAADVVP'
tp747
F1
s(S'NP'
p748
S'NNCCCP'
tp749
F2
s(g485
S'AVP'
tp750
F13
s(g748
S'NADVVP'
tp751
F6
s(g164
S'DDPPP'
tp752
F25
s(g385
S'PPAAAAPP'
tp753
F1
s(g333
S'ADVNMP'
tp754
F1
s(S'NP'
S'NNAP'
tp755
F7
s(S'VP'
S'VADVADVNNP'
tp756
F1
s(g199
S'MADVVCP'
tp757
F1
s(g73
S'PPANP'
tp758
F5
s(g738
S'CDADVPP'
tp759
F4
s(g376
S'VNP'
tp760
F100
s(g231
S'VANP'
tp761
F7
s(g32
S'PPADVNP'
tp762
F2
s(S'DP'
S'DDDDVP'
tp763
F1
s.