ccollections
defaultdict
p1
(c__builtin__
float
p2
tRp3
(S'DP'
p4
S'DDMMP'
tp5
F1
s(S'NP'
S'AANDDP'
tp6
F1
s(S'DP'
p7
S'ADDPP'
tp8
F2
s(S'NP'
S'AAANNAP'
tp9
F1
s(S'DP'
p10
S'DDAP'
tp11
F6
s(S'VP'
S'ADVVVNP'
tp12
F1
s(S'PP'
S'ADVADVADVADVPPNP'
tp13
F1
s(S'AP'
S'AADDDP'
tp14
F1
s(S'AP'
S'AADVADVACP'
tp15
F1
s(S'VP'
p16
S'VVVVP'
tp17
F2
s(S'DP'
p18
S'DAANNP'
tp19
F1
s(S'NP'
p20
S'NADDP'
tp21
F1
s(S'AP'
S'AVVVP'
tp22
F1
s(S'PP'
S'ADVADVPAP'
tp23
F1
s(S'PP'
p24
S'PAPP'
tp25
F9
s(S'VP'
S'AVADVAP'
tp26
F1
s(S'PP'
S'PADVNP'
tp27
F12
s(S'DP'
p28
S'DNP'
tp29
F283
s(S'NP'
p30
S'ADVNDP'
tp31
F2
s(S'PP'
S'AAPDDP'
tp32
F1
s(S'CP'
p33
S'CDPPP'
tp34
F64
s(S'VP'
p35
S'VADP'
tp36
F13
s(S'DP'
S'DNNNNP'
tp37
F1
s(S'NP'
p38
S'ADVNCCP'
tp39
F2
s(S'PP'
p40
S'PPPPPP'
tp41
F2
s(S'VP'
S'VAVP'
tp42
F1
s(S'PP'
p43
S'APPDP'
tp44
F1
s(S'VP'
S'ADVADVADVVVPP'
tp45
F1
s(S'DP'
p46
S'ADNNP'
tp47
F5
s(S'MP'
S'MDVP'
tp48
F1
s(S'PP'
p49
S'APVP'
tp50
F9
s(S'MP'
p51
S'MVDP'
tp52
F13
s(S'NP'
S'AANNPP'
tp53
F1
s(S'PP'
p54
S'PPPP'
tp55
F47
s(S'AP'
S'ADVAPPP'
tp56
F1
s(S'DP'
p57
S'DDDNP'
tp58
F4
s(S'MP'
S'MMADVVP'
tp59
F1
s(S'VP'
p60
S'VACP'
tp61
F12
s(S'AP'
S'AAAVP'
tp62
F1
s(S'PP'
S'PPAAP'
tp63
F4
s(S'DP'
p64
S'DADVVP'
tp65
F7
s(S'VP'
S'VVADDP'
tp66
F1
s(S'PP'
p67
S'PADVNNP'
tp68
F1
s(S'AP'
p69
S'AADVPP'
tp70
F3
s(S'NP'
S'NADVACP'
tp71
F1
s(S'NP'
S'NDDDP'
tp72
F2
s(S'NP'
p73
S'NCCCP'
tp74
F9
s(S'CP'
p75
S'CADVDAPP'
tp76
F1
s(g35
S'VCP'
tp77
F116
s(S'NP'
S'NMMP'
tp78
F5
s(S'VP'
S'ADVVAAP'
tp79
F1
s(S'PP'
S'PPPPPDP'
tp80
F1
s(S'VP'
p81
S'ADVVCCP'
tp82
F1
s(S'PP'
p83
S'PAP'
tp84
F115
s(S'MP'
S'MMVVP'
tp85
F3
s(S'CP'
S'CDADVADVADVPP'
tp86
F1
s(S'NP'
p87
S'ANNCCP'
tp88
F1
s(S'PP'
S'ADVPPVP'
tp89
F1
s(S'NP'
S'NNNAP'
tp90
F1
s(S'PP'
S'APVVP'
tp91
F3
s(S'NP'
p92
S'NNNACP'
tp93
F1
s(g83
S'PNP'
tp94
F271
s(S'NP'
S'NNNNPP'
tp95
F1
s(S'VP'
p96
S'VVADVADVNP'
tp97
F1
s(g10
S'DDP'
tp98
F50
s(S'VP'
S'ADVVDDP'
tp99
F2
s(S'NP'
S'NNNPP'
tp100
F5
s(S'PP'
p101
S'PAAP'
tp102
F23
s(g16
S'ADVVVDDP'
tp103
F1
s(S'PP'
S'PAAANNP'
tp104
F1
s(S'NP'
p105
S'NNADVADVCP'
tp106
F1
s(S'NP'
p107
S'NMP'
tp108
F48
s(g57
S'DADVADVDDP'
tp109
F1
s(g4
S'ADVDPPPP'
tp110
F1
s(S'VP'
p111
S'AAVNP'
tp112
F3
s(S'VP'
S'VMMP'
tp113
F1
s(g83
S'PDP'
tp114
F265
s(S'DP'
S'DDPPPPP'
tp115
F1
s(S'CP'
p116
S'CCADVADVDP'
tp117
F2
s(S'PP'
p118
S'PPADVVP'
tp119
F1
s(g30
S'ADVNVVP'
tp120
F2
s(S'MP'
S'MNNVP'
tp121
F2
s(S'VP'
p122
S'VVVDDP'
tp123
F1
s(S'MP'
S'MADVVNP'
tp124
F2
s(S'CP'
p125
S'CDADVADVPPP'
tp126
F2
s(S'VP'
p127
S'AVAAP'
tp128
F1
s(S'PP'
S'PPPADVVP'
tp129
F1
s(S'NP'
p130
S'NNADVADVADVVVP'
tp131
F1
s(S'NP'
S'NACCP'
tp132
F1
s(S'AP'
p133
S'ANP'
tp134
F1
s(S'PP'
p135
S'ADVPAAP'
tp136
F1
s(S'PP'
p137
S'PADVPP'
tp138
F3
s(S'NP'
S'NNADVCP'
tp139
F2
s(S'PP'
p140
S'ADVADVPPVVP'
tp141
F1
s(S'PP'
S'PPADVAP'
tp142
F1
s(S'PP'
S'AAPPPP'
tp143
F1
s(S'VP'
S'AAVVVP'
tp144
F1
s(S'DP'
S'DPPPP'
tp145
F8
s(S'DP'
p146
S'DDANP'
tp147
F3
s(S'PP'
S'PADVADP'
tp148
F1
s(S'NP'
p149
S'NACP'
tp150
F13
s(S'AP'
S'ADVAVP'
tp151
F7
s(g73
S'NCCP'
tp152
F66
s(g149
S'ANVP'
tp153
F23
s(S'VP'
p154
S'VVCCCP'
tp155
F1
s(S'VP'
p156
S'VVACCP'
tp157
F1
s(S'VP'
S'VVVVVP'
tp158
F1
s(S'NP'
p159
S'NNCP'
tp160
F82
s(S'DP'
p161
S'ADVDDPP'
tp162
F3
s(S'NP'
p163
S'NADVADVVP'
tp164
F5
s(S'NP'
S'NNPPPP'
tp165
F3
s(S'DP'
S'DDDDP'
tp166
F1
s(S'DP'
S'DDAPP'
tp167
F1
s(g35
S'AVNP'
tp168
F19
s(S'VP'
S'VVADP'
tp169
F2
s(S'PP'
p170
S'ADVPVVP'
tp171
F2
s(g54
S'ADVAPDP'
tp172
F1
s(S'VP'
S'VVMP'
tp173
F1
s(S'VP'
p174
S'VADVVP'
tp175
F4
s(S'VP'
S'ADVADVADVVNP'
tp176
F1
s(S'MP'
S'MVAPP'
tp177
F1
s(S'NP'
p178
S'ADVNNNAVP'
tp179
F1
s(S'MP'
S'MVPPP'
tp180
F2
s(S'PP'
S'ADVPADVNP'
tp181
F1
s(S'CP'
p182
S'CCCDP'
tp183
F13
s(S'VP'
p184
S'ADVVAP'
tp185
F9
s(S'VP'
S'VCCCP'
tp186
F1
s(S'CP'
S'CCCADVADVDDP'
tp187
F2
s(g24
S'APDP'
tp188
F24
s(S'NP'
S'NNNNNPP'
tp189
F1
s(g130
S'AANADVADVADVVP'
tp190
F1
s(S'DP'
S'DAADVANNP'
tp191
F1
s(S'VP'
S'ADVVNNP'
tp192
F1
s(S'AP'
S'AADVCP'
tp193
F6
s(S'NP'
S'NNADVADVADVADVVP'
tp194
F1
s(g81
S'VVANP'
tp195
F3
s(S'PP'
S'PPADVADVNNP'
tp196
F1
s(S'DP'
S'DADVADVADVPP'
tp197
F2
s(S'NP'
p198
S'ADVADVNNPP'
tp199
F1
s(S'PP'
S'PPPPADVCCP'
tp200
F1
s(S'DP'
S'DAAP'
tp201
F5
s(S'DP'
S'ADVADNNP'
tp202
F1
s(g149
S'NNADVAPP'
tp203
F1
s(g10
S'DNNP'
tp204
F70
s(S'CP'
S'CADVDDPP'
tp205
F2
s(S'DP'
S'DPPPPP'
tp206
F3
s(S'CP'
S'CDDPPPP'
tp207
F2
s(S'CP'
S'CCADVDP'
tp208
F1
s(S'VP'
S'VVACP'
tp209
F3
s(S'VP'
p210
S'AAVDDP'
tp211
F1
s(S'DP'
S'ADDNP'
tp212
F1
s(g30
S'NNNVP'
tp213
F5
s(S'PP'
S'PPAAPP'
tp214
F1
s(S'VP'
S'VADVNNP'
tp215
F1
s(S'DP'
S'ADADVADVADVNP'
tp216
F1
s(g174
S'VVVADVDDP'
tp217
F1
s(S'PP'
p218
S'PADVVP'
tp219
F11
s(S'DP'
S'DDDADVVVP'
tp220
F1
s(S'DP'
S'DADVVVP'
tp221
F4
s(S'PP'
S'PPPADP'
tp222
F1
s(S'PP'
p223
S'APAP'
tp224
F5
s(S'AP'
p225
S'APP'
tp226
F61
s(g75
S'ADVCCADP'
tp227
F1
s(S'AP'
p228
S'ACCCP'
tp229
F1
s(g228
S'AAP'
tp230
F5
s(S'VP'
p231
S'VVAPP'
tp232
F2
s(S'NP'
S'ADVANPP'
tp233
F1
s(S'VP'
S'VVVVPP'
tp234
F5
s(S'DP'
S'DAAVP'
tp235
F2
s(g125
S'CDDDDPP'
tp236
F5
s(S'CP'
S'CADVADVADVADVADVDPP'
tp237
F1
s(S'MP'
S'MVVVNP'
tp238
F1
s(S'PP'
p239
S'PAANP'
tp240
F5
s(S'DP'
p241
S'ADVDVP'
tp242
F5
s(S'PP'
S'PPVVP'
tp243
F9
s(S'VP'
S'VAACP'
tp244
F1
s(S'PP'
S'PPPPAVP'
tp245
F1
s(S'MP'
S'MMADVADVNP'
tp246
F1
s(S'MP'
S'MVNP'
tp247
F20
s(S'NP'
S'AADVANNVVP'
tp248
F1
s(S'AP'
S'ADVANNP'
tp249
F1
s(S'NP'
S'NNNNP'
tp250
F1
s(S'AP'
S'AADVCCP'
tp251
F1
s(S'CP'
S'CDDDPPP'
tp252
F2
s(g83
S'PAVP'
tp253
F19
s(S'PP'
p254
S'ADVADVPPVP'
tp255
F1
s(S'DP'
p256
S'ADVDVVP'
tp257
F2
s(S'VP'
S'VVVPP'
tp258
F5
s(S'AP'
S'ADVACCP'
tp259
F2
s(S'DP'
S'DADP'
tp260
F5
s(S'VP'
S'VVAANP'
tp261
F1
s(g225
S'ADVADP'
tp262
F5
s(S'CP'
p263
S'ADVADVCDP'
tp264
F3
s(S'VP'
S'ADVADVVAPP'
tp265
F1
s(g127
S'VANNP'
tp266
F2
s(S'PP'
p267
S'APDDP'
tp268
F2
s(S'VP'
p269
S'ADVADVVVNP'
tp270
F1
s(S'VP'
S'ADVADVVANP'
tp271
F1
s(g105
S'ADVNAP'
tp272
F1
s(g231
S'ADVVNP'
tp273
F12
s(S'VP'
p274
S'ADVADVADVVVDDP'
tp275
F1
s(g35
S'VVNP'
tp276
F40
s(S'PP'
p277
S'PPPNNP'
tp278
F2
s(g54
S'PPVP'
tp279
F52
s(S'MP'
S'MVVVVCP'
tp280
F1
s(S'VP'
S'VADVDP'
tp281
F7
s(S'MP'
S'MVVVPP'
tp282
F1
s(g122
S'VVADVAP'
tp283
F2
s(S'VP'
p284
S'VAAP'
tp285
F19
s(S'MP'
S'MANPP'
tp286
F1
s(g241
S'ADVDDANP'
tp287
F1
s(S'NP'
p288
S'ANDP'
tp289
F13
s(S'NP'
p290
S'NVVP'
tp291
F63
s(S'PP'
p292
S'PPADP'
tp293
F2
s(g81
S'VMP'
tp294
F1
s(S'VP'
S'VVNNP'
tp295
F12
s(S'CP'
S'CDAPP'
tp296
F25
s(g231
S'VVAAP'
tp297
F5
s(S'CP'
S'CADVADPP'
tp298
F1
s(g46
S'ADNP'
tp299
F21
s(S'DP'
S'DDADVAP'
tp300
F1
s(S'CP'
S'ACCDP'
tp301
F2
s(S'VP'
p302
S'VVVVCP'
tp303
F3
s(S'NP'
S'NADVADVADVPPP'
tp304
F1
s(S'PP'
S'APPPADVDP'
tp305
F1
s(S'NP'
S'ANDDP'
tp306
F1
s(S'DP'
S'ADVADVDVP'
tp307
F1
s(g241
S'DADVAP'
tp308
F1
s(S'PP'
S'ADVADVPMP'
tp309
F1
s(S'CP'
S'ADVADVACDP'
tp310
F2
s(S'DP'
p311
S'DAPP'
tp312
F41
s(S'VP'
p313
S'AVVP'
tp314
F2
s(S'MP'
S'MVVCP'
tp315
F1
s(S'VP'
S'ADVADVVPP'
tp316
F2
s(S'VP'
S'VADVADVNP'
tp317
F2
s(g43
S'ADVPVVVP'
tp318
F1
s(S'PP'
S'AAAPVP'
tp319
F1
s(S'VP'
S'ADVADVVDP'
tp320
F1
s(S'VP'
S'AVVNP'
tp321
F1
s(S'PP'
p322
S'PPPDP'
tp323
F3
s(S'VP'
S'VVAAANP'
tp324
F1
s(S'AP'
p325
S'AAPPP'
tp326
F1
s(S'VP'
S'VDDDDP'
tp327
F1
s(S'DP'
S'DAAANP'
tp328
F1
s(S'VP'
S'VAAPP'
tp329
F1
s(g46
S'ADVDNP'
tp330
F5
s(S'VP'
S'VVPP'
tp331
F49
s(S'VP'
S'VADVAPP'
tp332
F1
s(S'DP'
S'DDDADVNP'
tp333
F1
s(S'CP'
S'AACDDP'
tp334
F1
s(g51
S'MVPP'
tp335
F13
s(S'DP'
p336
S'ADVP'
tp337
F10
s(S'NP'
S'AANNADVDDP'
tp338
F1
s(S'CP'
S'CDDPPP'
tp339
F12
s(S'VP'
S'ADVVVDP'
tp340
F1
s(S'NP'
p341
S'NNPP'
tp342
F27
s(S'NP'
S'AAANDP'
tp343
F2
s(S'MP'
S'MVVDP'
tp344
F2
s(S'DP'
p345
S'DADVPPP'
tp346
F5
s(g341
S'NNNMMP'
tp347
F1
s(S'NP'
S'NADVADVADVADVADVVP'
tp348
F1
s(S'DP'
S'DNNNP'
tp349
F4
s(S'DP'
S'ADVDDVP'
tp350
F1
s(g239
S'PADVADVVP'
tp351
F5
s(g81
S'VADVDDP'
tp352
F2
s(g35
S'ADVVCP'
tp353
F8
s(S'PP'
S'PVVVP'
tp354
F6
s(g322
S'PMP'
tp355
F24
s(S'PP'
S'ADVPPAP'
tp356
F1
s(S'CP'
p357
S'CCDP'
tp358
F105
s(S'DP'
p359
S'ADVADVADVDPP'
tp360
F1
s(S'MP'
S'AMVP'
tp361
F1
s(S'NP'
S'ADVADVADVNCP'
tp362
F1
s(g149
S'NVVVP'
tp363
F9
s(S'CP'
S'CDDDPP'
tp364
F8
s(S'CP'
S'CDADVADVPP'
tp365
F5
s(S'VP'
S'VVVDP'
tp366
F11
s(S'PP'
S'PDDDDP'
tp367
F4
s(g49
S'PNNNP'
tp368
F11
s(S'AP'
p369
S'AACCP'
tp370
F5
s(S'PP'
S'AAPNP'
tp371
F3
s(S'AP'
S'ADVAAAP'
tp372
F1
s(S'DP'
p373
S'ADVADVADPPPP'
tp374
F1
s(S'MP'
S'ADVMAAVP'
tp375
F1
s(g118
S'PADVVVP'
tp376
F2
s(g54
S'PPP'
tp377
F157
s(g163
S'NNADVDP'
tp378
F2
s(g149
S'NAVP'
tp379
F17
s(S'PP'
S'PADVAP'
tp380
F7
s(S'VP'
S'VVPPP'
tp381
F2
s(g35
S'VVVANP'
tp382
F2
s(S'NP'
S'NADVVVP'
tp383
F3
s(S'DP'
p384
S'DADVADVPPP'
tp385
F2
s(S'AP'
S'AADVVP'
tp386
F1
s(S'MP'
S'MADVADVVPP'
tp387
F2
s(g228
S'AAADVCP'
tp388
F1
s(g284
S'VPP'
tp389
F161
s(S'CP'
S'ADVCCDP'
tp390
F2
s(g18
S'ADVDDPPP'
tp391
F2
s(g10
S'ADVDDNP'
tp392
F4
s(S'NP'
S'NNNCP'
tp393
F8
s(S'PP'
S'PADVDP'
tp394
F4
s(S'DP'
S'DANNP'
tp395
F2
s(g33
S'CDDPP'
tp396
F68
s(g161
S'DAAPP'
tp397
F4
s(g54
S'PVVP'
tp398
F48
s(g125
S'CADPPP'
tp399
F4
s(S'AP'
S'AACP'
tp400
F13
s(S'PP'
p401
S'PMMP'
tp402
F5
s(S'MP'
p403
S'MCCDP'
tp404
F1
s(S'VP'
S'VPPP'
tp405
F25
s(S'NP'
p406
S'ANNCCCP'
tp407
F1
s(S'VP'
p408
S'ADVVVCCP'
tp409
F1
s(g223
S'PPAP'
tp410
F15
s(S'DP'
p411
S'DVVP'
tp412
F37
s(S'PP'
S'PPADVADVADVVP'
tp413
F1
s(S'CP'
S'ADVACDDP'
tp414
F1
s(S'NP'
S'ANMP'
tp415
F3
s(S'AP'
S'APPP'
tp416
F3
s(S'PP'
S'ADVPPP'
tp417
F2
s(S'NP'
S'ADVADVNVP'
tp418
F2
s(g60
S'VVVP'
tp419
F7
s(g182
S'CADVDPP'
tp420
F12
s(S'NP'
S'ADVADVNNVP'
tp421
F1
s(S'PP'
S'PPDDDP'
tp422
F1
s(g159
S'ANCP'
tp423
F25
s(g10
S'DCP'
tp424
F24
s(g256
S'DVVVP'
tp425
F5
s(g288
S'AAANCP'
tp426
F3
s(S'VP'
S'ADVVVVP'
tp427
F1
s(S'NP'
S'NNVVVVP'
tp428
F1
s(S'PP'
S'ADVADVADVPPNP'
tp429
F1
s(g10
S'DDDP'
tp430
F23
s(S'PP'
S'PPPPADVPP'
tp431
F1
s(g96
S'VVADVADVPPP'
tp432
F1
s(g345
S'DDADVPP'
tp433
F3
s(S'NP'
p434
S'ANVVP'
tp435
F5
s(g434
S'NVVVVP'
tp436
F4
s(g341
S'NPPP'
tp437
F37
s(S'DP'
S'ADDDP'
tp438
F2
s(S'DP'
S'DAVP'
tp439
F8
s(g163
S'NNNMP'
tp440
F2
s(S'AP'
p441
S'ACP'
tp442
F62
s(S'NP'
S'NDDDDP'
tp443
F2
s(g16
S'VAAAAP'
tp444
F1
s(g101
S'PPNP'
tp445
F61
s(S'PP'
S'PPPAP'
tp446
F2
s(S'PP'
S'APPPP'
tp447
F2
s(S'NP'
p448
S'NAADP'
tp449
F1
s(S'DP'
S'ADVDAPP'
tp450
F1
s(S'VP'
p451
S'VAANNP'
tp452
F1
s(S'CP'
S'CDDADVPP'
tp453
F1
s(g369
S'ADP'
tp454
F165
s(g116
S'CCCDDDP'
tp455
F1
s(S'CP'
S'CADVDDPPP'
tp456
F1
s(S'DP'
S'DDPPPP'
tp457
F4
s(S'NP'
S'ANPPP'
tp458
F1
s(g35
S'VAAANP'
tp459
F2
s(S'DP'
S'DVVVVP'
tp460
F1
s(S'PP'
S'APPAP'
tp461
F1
s(g254
S'PPMP'
tp462
F2
s(S'NP'
S'ANNVP'
tp463
F3
s(g292
S'ADVAPDDP'
tp464
F1
s(g231
S'VVAP'
tp465
F20
s(S'CP'
S'CDDDAPP'
tp466
F1
s(g263
S'ADVACDP'
tp467
F2
s(g118
S'PAAAANP'
tp468
F1
s(S'NP'
S'NADVADVDP'
tp469
F1
s(g174
S'ADVADVVAP'
tp470
F2
s(g149
S'NVP'
tp471
F257
s(g28
S'DPP'
tp472
F307
s(S'PP'
p473
S'PAAVP'
tp474
F3
s(g149
S'NAAPP'
tp475
F2
s(S'PP'
S'PPPPVP'
tp476
F1
s(S'MP'
S'ADVMMVP'
tp477
F1
s(S'DP'
S'DDDDNNP'
tp478
F1
s(g35
S'VDDP'
tp479
F48
s(S'AP'
S'AAADVDP'
tp480
F1
s(S'DP'
S'DADVAPP'
tp481
F1
s(g7
S'AADDNP'
tp482
F1
s(g149
S'ANPP'
tp483
F38
s(g137
S'ADVPPDP'
tp484
F2
s(g49
S'PPPPP'
tp485
F9
s(S'PP'
S'ADVADVPDP'
tp486
F2
s(S'MP'
p487
S'MVVPP'
tp488
F5
s(S'PP'
S'PPAAMP'
tp489
F1
s(g137
S'PPPAAP'
tp490
F1
s(g336
S'DDDDDP'
tp491
F3
s(S'VP'
S'VAAACP'
tp492
F1
s(g198
S'ADVADVNPP'
tp493
F2
s(S'NP'
S'NPPPP'
tp494
F3
s(S'DP'
S'ADDP'
tp495
F1
s(S'NP'
S'ADVNADP'
tp496
F1
s(S'CP'
S'CAADPP'
tp497
F3
s(S'DP'
S'DADVADVVP'
tp498
F1
s(S'NP'
p499
S'NAACP'
tp500
F2
s(g101
S'PNNP'
tp501
F76
s(S'VP'
S'VADVACP'
tp502
F1
s(S'PP'
S'APNNP'
tp503
F5
s(S'DP'
p504
S'DDAAP'
tp505
F1
s(S'DP'
p506
S'DPPPPPP'
tp507
F1
s(S'AP'
S'AAPPPPP'
tp508
F1
s(S'VP'
S'VVAACP'
tp509
F1
s(S'VP'
p510
S'AVAP'
tp511
F2
s(S'MP'
S'MMVP'
tp512
F7
s(S'PP'
S'PADVDDP'
tp513
F2
s(S'NP'
p514
S'ADVNCP'
tp515
F13
s(S'DP'
p516
S'DDADVADVPP'
tp517
F4
s(g10
S'ADPP'
tp518
F44
s(g269
S'VVADVADVVVP'
tp519
F1
s(S'CP'
S'CADVADVADVADVDDPP'
tp520
F1
s(g406
S'NAPPP'
tp521
F1
s(g33
S'ACDP'
tp522
F32
s(g60
S'VCCP'
tp523
F20
s(S'NP'
S'NNACP'
tp524
F3
s(S'CP'
S'CDADVPPP'
tp525
F3
s(g35
S'VAP'
tp526
F131
s(S'VP'
S'VVADVADVANP'
tp527
F1
s(S'DP'
S'DDDPP'
tp528
F10
s(S'CP'
S'ADVCDDP'
tp529
F5
s(g473
S'ADVPMP'
tp530
F1
s(S'CP'
S'CDAAPP'
tp531
F2
s(S'VP'
S'VADVMP'
tp532
F1
s(g241
S'DDDPPPP'
tp533
F1
s(S'AP'
S'AAVVP'
tp534
F4
s(S'NP'
S'NNPPPPP'
tp535
F1
s(S'DP'
S'DDDPPP'
tp536
F2
s(S'DP'
S'ADAP'
tp537
F1
s(S'NP'
S'NNAVVP'
tp538
F1
s(S'DP'
S'DDDAP'
tp539
F1
s(S'PP'
S'ADVPPAVP'
tp540
F1
s(S'DP'
S'ADAPPPP'
tp541
F1
s(g441
S'AVVP'
tp542
F13
s(g40
S'PPPVP'
tp543
F7
s(S'AP'
p544
S'AADDP'
tp545
F5
s(S'VP'
p546
S'VAANP'
tp547
F5
s(g105
S'ANADVACP'
tp548
F1
s(S'DP'
S'ADVADVADVADVADVDPP'
tp549
F1
s(g499
S'NADVADVCP'
tp550
F2
s(g384
S'ADVADVDAAPP'
tp551
F1
s(S'VP'
S'ADVVVADP'
tp552
F1
s(S'NP'
S'ADVNAAMP'
tp553
F1
s(g35
S'VVDP'
tp554
F50
s(g506
S'DADVADVDP'
tp555
F1
s(S'MP'
S'MADP'
tp556
F1
s(S'PP'
S'PPPDDP'
tp557
F2
s(S'MP'
S'MVVACP'
tp558
F1
s(S'MP'
S'MAVAAP'
tp559
F1
s(g46
S'DDADVNP'
tp560
F4
s(g401
S'PANP'
tp561
F36
s(S'PP'
S'PDDDP'
tp562
F3
s(S'MP'
S'MMADVADVVP'
tp563
F1
s(g406
S'AANMP'
tp564
F4
s(g228
S'AAVP'
tp565
F10
s(g163
S'NAAP'
tp566
F12
s(g149
S'NDDP'
tp567
F19
s(S'VP'
S'VVADVDDP'
tp568
F1
s(S'VP'
p569
S'ADVADVVAAAADDP'
tp570
F1
s(S'DP'
S'ADVADVDPPP'
tp571
F2
s(S'AP'
S'ACCP'
tp572
F15
s(S'NP'
S'NNVVVP'
tp573
F1
s(S'VP'
S'AVPPP'
tp574
F1
s(g170
S'ADVPAANP'
tp575
F1
s(g107
S'NDP'
tp576
F123
s(S'NP'
S'NNNNVVP'
tp577
F1
s(S'DP'
S'DDVP'
tp578
F43
s(S'DP'
S'ADCP'
tp579
F2
s(S'NP'
S'AANVP'
tp580
F4
s(S'DP'
S'ADDVP'
tp581
F3
s(g231
S'VNNNP'
tp582
F3
s(S'PP'
p583
S'ADVPAP'
tp584
F3
s(S'PP'
S'PCP'
tp585
F11
s(g149
S'NNPPP'
tp586
F10
s(g67
S'PAADDP'
tp587
F1
s(g101
S'PAADP'
tp588
F2
s(S'NP'
S'ADVNNVP'
tp589
F1
s(g546
S'VPPPP'
tp590
F5
s(S'NP'
S'ANNPP'
tp591
F1
s(S'PP'
S'PACP'
tp592
F1
s(S'NP'
S'NNNDP'
tp593
F2
s(S'DP'
p594
S'AAAADDNNNP'
tp595
F1
s(S'AP'
S'ADVACP'
tp596
F8
s(g254
S'AAPNNP'
tp597
F1
s(g10
S'DDADVVP'
tp598
F1
s(S'DP'
p599
S'ADPPP'
tp600
F6
s(S'MP'
S'MVCP'
tp601
F7
s(S'CP'
p602
S'CCDDP'
tp603
F19
s(S'NP'
S'NNADVVP'
tp604
F3
s(S'VP'
S'VVADVADVAP'
tp605
F1
s(S'VP'
S'AAVCCP'
tp606
F1
s(S'VP'
p607
S'ADVADVADVVPP'
tp608
F1
s(g163
S'NNVVP'
tp609
F21
s(g302
S'VVCP'
tp610
F22
s(g223
S'PADVADVPP'
tp611
F3
s(S'NP'
S'AANCP'
tp612
F5
s(S'VP'
S'VADVNP'
tp613
F12
s(S'AP'
S'ADVAVVP'
tp614
F2
s(S'NP'
S'ADVADVNAVP'
tp615
F1
s(g569
S'AVVPP'
tp616
F1
s(S'PP'
S'APPP'
tp617
F12
s(S'MP'
S'MNNPP'
tp618
F1
s(S'VP'
S'ADVVPP'
tp619
F4
s(S'NP'
S'ADVNNVVP'
tp620
F1
s(S'CP'
S'CDAPPP'
tp621
F3
s(S'VP'
S'VNNP'
tp622
F49
s(S'AP'
S'AADVDP'
tp623
F2
s(S'AP'
p624
S'AAAMP'
tp625
F1
s(g38
S'NADP'
tp626
F8
s(g516
S'ADVADDNP'
tp627
F1
s(g46
S'DDNP'
tp628
F64
s(S'CP'
S'ACADVDP'
tp629
F1
s(S'DP'
p630
S'AADDP'
tp631
F2
s(g46
S'DDNNP'
tp632
F22
s(S'NP'
p633
S'ADVADVANPP'
tp634
F1
s(g20
S'ADVADVNCP'
tp635
F2
s(S'DP'
S'AADPP'
tp636
F3
s(S'NP'
S'NADVCP'
tp637
F7
s(S'VP'
p638
S'VVNNNNNP'
tp639
F1
s(g401
S'PADP'
tp640
F23
s(S'NP'
S'NNNP'
tp641
F1
s(S'CP'
S'CDPPPPP'
tp642
F2
s(g163
S'ANVVVP'
tp643
F3
s(S'MP'
S'MADVVDP'
tp644
F1
s(g51
S'MVVNP'
tp645
F2
s(S'DP'
S'ADVDNNP'
tp646
F1
s(S'CP'
S'ACDDP'
tp647
F6
s(g69
S'AAPP'
tp648
F13
s(g607
S'VVCCP'
tp649
F3
s(g125
S'CADVADVDAAPP'
tp650
F1
s(S'PP'
S'APPNP'
tp651
F3
s(g373
S'DAAAPP'
tp652
F1
s(S'NP'
S'ANNADVVP'
tp653
F1
s(S'PP'
S'ADVPANP'
tp654
F1
s(S'VP'
S'ADVADVADVADVVCP'
tp655
F1
s(g174
S'VVVCCP'
tp656
F2
s(g149
S'NAPP'
tp657
F11
s(g624
S'ADVADVADP'
tp658
F1
s(g198
S'NADVDP'
tp659
F2
s(g607
S'VVVCP'
tp660
F3
s(g504
S'DADVADVADVVP'
tp661
F1
s(g149
S'ANCCP'
tp662
F6
s(g448
S'AANPP'
tp663
F4
s(g184
S'VDDDP'
tp664
F4
s(g38
S'NNMP'
tp665
F7
s(S'DP'
S'DDDVP'
tp666
F6
s(g313
S'AAVPP'
tp667
F1
s(S'CP'
S'CADDPP'
tp668
F1
s(S'PP'
S'PAAAP'
tp669
F2
s(S'NP'
S'AAAANCP'
tp670
F1
s(S'NP'
S'ANAP'
tp671
F2
s(S'MP'
S'MVAP'
tp672
F9
s(g54
S'PVP'
tp673
F226
s(g174
S'VADVPPP'
tp674
F2
s(g544
S'ADVADVAPP'
tp675
F1
s(S'MP'
S'AAMVP'
tp676
F2
s(g228
S'AAVVVP'
tp677
F2
s(S'VP'
S'VADVCCP'
tp678
F1
s(S'AP'
S'ADVAACP'
tp679
F1
s(S'NP'
S'AANADVADVADVVVP'
tp680
F1
s(g290
S'ANNCP'
tp681
F2
s(S'PP'
S'ADVPPDDP'
tp682
F1
s(S'NP'
S'ADVNACP'
tp683
F1
s(g101
S'PPDDP'
tp684
F14
s(S'VP'
S'AVCP'
tp685
F2
s(g599
S'DDVVVP'
tp686
F3
s(S'AP'
S'AADVADVADVADVDP'
tp687
F1
s(S'DP'
S'ADVVP'
tp688
F1
s(S'NP'
S'ADVNVP'
tp689
F9
s(g46
S'DDPP'
tp690
F109
s(g46
S'DANP'
tp691
F40
s(g178
S'NADVPP'
tp692
F6
s(g218
S'ADVADVADVPAP'
tp693
F1
s(S'NP'
S'NAAVP'
tp694
F3
s(g64
S'AADNP'
tp695
F2
s(S'CP'
S'CADVADVADVDPP'
tp696
F1
s(g408
S'VADVCP'
tp697
F4
s(S'NP'
S'ANNDDP'
tp698
F1
s(S'NP'
S'NNNNCP'
tp699
F2
s(S'NP'
S'NNAACP'
tp700
F2
s(S'DP'
S'ADDPPP'
tp701
F1
s(S'PP'
S'PPADVADVVP'
tp702
F1
s(g135
S'PADVPPP'
tp703
F1
s(S'DP'
S'DCCP'
tp704
F2
s(g322
S'ADVADVPPP'
tp705
F2
s(S'AP'
S'AMP'
tp706
F3
s(g54
S'AAPDP'
tp707
F4
s(S'DP'
p708
S'ADVADPP'
tp709
F1
s(g60
S'VVVAP'
tp710
F3
s(g54
S'PDDP'
tp711
F56
s(g487
S'MVDDP'
tp712
F4
s(S'PP'
S'ADVAPNP'
tp713
F1
s(S'NP'
S'NNVP'
tp714
F64
s(S'PP'
S'PPPNP'
tp715
F7
s(S'VP'
S'AVDP'
tp716
F12
s(g105
S'NNP'
tp717
F1
s(g231
S'VVDDP'
tp718
F14
s(g630
S'DAANP'
tp719
F10
s(S'NP'
S'AANCCCP'
tp720
F1
s(g225
S'ADDP'
tp721
F34
s(S'VP'
p722
S'ADVADVADVVNNP'
tp723
F1
s(S'DP'
S'DDCCCP'
tp724
F1
s(g277
S'PNNNNP'
tp725
F1
s(S'PP'
p726
S'ADVPPNP'
tp727
F5
s(g92
S'ADVNAVVP'
tp728
F1
s(g116
S'CADVADVDPP'
tp729
F6
s(g46
S'DPPP'
tp730
F100
s(g708
S'AADVVVP'
tp731
F1
s(g411
S'AADPPP'
tp732
F1
s(S'CP'
S'ADVADVADVCCDP'
tp733
F1
s(S'PP'
S'ADVADVPPNP'
tp734
F2
s(S'VP'
S'ADVADVADVADVADVVPP'
tp735
F1
s(g514
S'NNAVP'
tp736
F2
s(S'NP'
S'NNAAPP'
tp737
F1
s(g178
S'NNADVMMP'
tp738
F1
s(S'PP'
S'PPNNNP'
tp739
F3
s(g583
S'ADVPNP'
tp740
F9
s(S'PP'
S'PPDP'
tp741
F51
s(S'CP'
S'CADDPPP'
tp742
F1
s(S'PP'
S'ADVADVADVPVP'
tp743
F1
s(g599
S'ADVADVADVADVDPP'
tp744
F1
s(S'CP'
S'CAADADVPP'
tp745
F1
s(S'MP'
S'MVVAP'
tp746
F1
s(S'DP'
S'DDCP'
tp747
F1
s(g638
S'VADVADDP'
tp748
F1
s(g87
S'ANADDDP'
tp749
F1
s(g267
S'PPADVDDP'
tp750
F1
s(S'AP'
S'ANNP'
tp751
F1
s(g290
S'NAP'
tp752
F59
s(S'NP'
S'NNAAP'
tp753
F2
s(S'VP'
S'VAAAP'
tp754
F1
s(g284
S'VVP'
tp755
F43
s(S'MP'
S'ADVMNP'
tp756
F1
s(g311
S'DADVNP'
tp757
F7
s(g223
S'ADVADVPVP'
tp758
F6
s(g325
S'AAADP'
tp759
F3
s(g54
S'APNP'
tp760
F15
s(g156
S'VVVNNP'
tp761
F2
s(S'DP'
S'DDDAPP'
tp762
F1
s(g411
S'DDVVP'
tp763
F10
s(S'VP'
S'VVVNP'
tp764
F8
s(S'MP'
S'MNPP'
tp765
F1
s(g146
S'ADDDPP'
tp766
F1
s(g633
S'NAMP'
tp767
F1
s(S'AP'
S'AAADDDP'
tp768
F1
s(g57
S'ADVADVDDPP'
tp769
F3
s(g403
S'MVNNP'
tp770
F4
s(g357
S'CDPP'
tp771
F284
s(g726
S'ADVADVADVPMP'
tp772
F1
s(S'AP'
S'ADDDP'
tp773
F2
s(S'CP'
S'ADVCADP'
tp774
F1
s(g30
S'NNDP'
tp775
F21
s(S'MP'
S'MVVAANP'
tp776
F1
s(S'CP'
S'ADVCDP'
tp777
F12
s(g133
S'ADVAAP'
tp778
F1
s(g451
S'ADVADVVNP'
tp779
F4
s(S'AP'
S'AAAAPPP'
tp780
F1
s(S'PP'
S'PADVADVDP'
tp781
F1
s(g274
S'ADVADVVCP'
tp782
F1
s(S'PP'
S'APADVADVNNP'
tp783
F1
s(g54
S'PPNNP'
tp784
F13
s(S'PP'
S'PADVCP'
tp785
F1
s(S'PP'
S'PADVADVADVVVP'
tp786
F1
s(g241
S'ADVADVDPP'
tp787
F8
s(g35
S'VDP'
tp788
F251
s(S'MP'
S'MVADVNNP'
tp789
F1
s(S'NP'
S'NADVAP'
tp790
F3
s(g408
S'AVDDP'
tp791
F4
s(S'DP'
S'DAP'
tp792
F35
s(S'CP'
S'CADPP'
tp793
F26
s(S'PP'
S'PADVMP'
tp794
F1
s(S'DP'
S'DADVADVADVADVPPP'
tp795
F1
s(S'AP'
S'AAADVADVADVCCP'
tp796
F1
s(g284
S'AVPP'
tp797
F9
s(g602
S'CAADPPP'
tp798
F1
s(S'CP'
S'CDDPPPPP'
tp799
F1
s(S'CP'
S'CDPPPP'
tp800
F5
s(S'VP'
S'AAVDP'
tp801
F2
s(g24
S'PANNP'
tp802
F3
s(g105
S'NNDDP'
tp803
F2
s(S'DP'
S'DAPPP'
tp804
F5
s(S'DP'
S'DADVADVPP'
tp805
F6
s(g241
S'DMP'
tp806
F6
s(g30
S'NNNNADVVP'
tp807
F1
s(g64
S'ADVDPP'
tp808
F15
s(g149
S'NPP'
tp809
F252
s(g149
S'AAANPP'
tp810
F1
s(S'PP'
S'PADVADVNP'
tp811
F3
s(S'PP'
S'PPPPNP'
tp812
F3
s(S'AP'
S'AADP'
tp813
F35
s(g406
S'NNADVVVP'
tp814
F1
s(g111
S'VADVPP'
tp815
F5
s(g210
S'VADVADVNNP'
tp816
F1
s(g359
S'ADVDANP'
tp817
F1
s(g83
S'ADVPVP'
tp818
F13
s(g384
S'DDDDPP'
tp819
F7
s(g149
S'ADVNADVDP'
tp820
F1
s(S'PP'
S'PPVVVP'
tp821
F2
s(S'VP'
S'ADVVANP'
tp822
F1
s(S'PP'
S'ADVPDP'
tp823
F8
s(S'VP'
S'VVNNNNP'
tp824
F1
s(g140
S'PPPADVADVPPP'
tp825
F1
s(S'MP'
S'MVADVAP'
tp826
F1
s(g107
S'NCP'
tp827
F253
s(g125
S'CADVDPPP'
tp828
F2
s(g510
S'ADVVVPP'
tp829
F6
s(S'AP'
S'AAAP'
tp830
F4
s(S'CP'
S'CDDADVADVPP'
tp831
F3
s(g96
S'VAADP'
tp832
F1
s(S'PP'
S'ADVPDDP'
tp833
F1
s(S'DP'
S'AADADVPP'
tp834
F1
s(S'PP'
S'PPAPP'
tp835
F1
s(S'NP'
S'AANDP'
tp836
F1
s(S'DP'
S'ADVADVADVADVDDPP'
tp837
F1
s(g149
S'NNCCP'
tp838
F14
s(S'MP'
S'MNVP'
tp839
F1
s(g722
S'ADVADVADVVVCP'
tp840
F1
s(S'NP'
S'AANCCP'
tp841
F1
s(S'PP'
S'PADVADVAP'
tp842
F1
s(S'VP'
S'VAPP'
tp843
F6
s(S'CP'
S'CDPPPPPP'
tp844
F1
s(S'VP'
S'ADVVDP'
tp845
F13
s(S'DP'
S'DDADVADVADVPP'
tp846
F1
s(S'MP'
S'MVVDDP'
tp847
F1
s(g28
S'DADVPP'
tp848
F21
s(S'PP'
S'ADVPAAAP'
tp849
F1
s(S'CP'
S'CCADP'
tp850
F4
s(S'DP'
S'ADVDAP'
tp851
F1
s(g154
S'ADVADVVADVNNNP'
tp852
F1
s(S'AP'
S'ADVAPP'
tp853
F3
s(S'PP'
S'ADVADVPADVPP'
tp854
F1
s(S'CP'
S'AACDP'
tp855
F5
s(S'NP'
S'NADVADVACP'
tp856
F1
s(g594
S'ADANP'
tp857
F1
s(g384
S'ADVDPPP'
tp858
F2
s(g28
S'DVP'
tp859
F217
s(g60
S'AVNNP'
tp860
F2
s(S'NP'
S'ADVNPP'
tp861
F3
s(S'CP'
S'CDADVADVADVADVPPP'
tp862
F1
s(S'CP'
S'AAACDP'
tp863
F1
s(g441
S'AVP'
tp864
F56
s(g149
S'NADVVP'
tp865
F10
s(S'AP'
S'AACCCP'
tp866
F1
s(S'DP'
S'DDPPP'
tp867
F24
s(g288
S'NNAP'
tp868
F7
s(S'NP'
S'NNADVPPP'
tp869
F2
s(S'MP'
S'MADVVCP'
tp870
F1
s(S'PP'
S'PPANP'
tp871
F1
s(S'VP'
S'VVADVADVDP'
tp872
F1
s(g125
S'CDADVPP'
tp873
F12
s(g284
S'VNP'
tp874
F226
s(g35
S'VANP'
tp875
F26
s(S'VP'
S'VADVAP'
tp876
F13
s(S'VP'
S'VADVADVADP'
tp877
F1
s(S'DP'
S'DDDDVP'
tp878
F3
s(S'NP'
S'NADVPPP'
tp879
F1
s.