ccollections
defaultdict
p1
(c__builtin__
float
p2
tRp3
(S'NP'
p4
S'AAAANAP'
tp5
F1
s(S'CP'
S'CAAADPP'
tp6
F1
s(S'PP'
p7
S'PAAANP'
tp8
F1
s(S'DP'
p9
S'ADDPP'
tp10
F4
s(S'VP'
S'ADVVVNP'
tp11
F1
s(S'PP'
p12
S'PAPP'
tp13
F2
s(S'PP'
S'PADVNP'
tp14
F2
s(S'DP'
p15
S'DNP'
tp16
F25
s(S'PP'
p17
S'PPADVAVP'
tp18
F1
s(S'VP'
S'ADVADVAAAVDP'
tp19
F1
s(S'CP'
p20
S'CDPPP'
tp21
F8
s(S'VP'
p22
S'VADP'
tp23
F2
s(S'VP'
S'ADVADVAVAP'
tp24
F1
s(S'NP'
p25
S'ANADVADVADVADVVP'
tp26
F1
s(S'PP'
S'APVP'
tp27
F6
s(S'PP'
p28
S'PADVANP'
tp29
F1
s(S'NP'
p30
S'AANNPP'
tp31
F2
s(S'PP'
p32
S'PPPP'
tp33
F3
s(S'PP'
p34
S'ADVPADDP'
tp35
F1
s(S'VP'
p36
S'VACP'
tp37
F2
s(g9
S'DADVVP'
tp38
F1
s(S'MP'
S'MAAVNP'
tp39
F1
s(S'AP'
p40
S'AADVPP'
tp41
F1
s(S'NP'
p42
S'NCCCP'
tp43
F5
s(S'CP'
p44
S'CADVDAPP'
tp45
F1
s(S'VP'
p46
S'VCP'
tp47
F18
s(S'PP'
p48
S'PAP'
tp49
F20
s(S'PP'
p50
S'PPANNP'
tp51
F1
s(S'MP'
S'MMVVP'
tp52
F1
s(S'VP'
S'VADVADVAP'
tp53
F1
s(S'NP'
p54
S'ANNCCP'
tp55
F1
s(S'NP'
S'NNNAP'
tp56
F1
s(S'PP'
p57
S'APVVP'
tp58
F1
s(S'NP'
S'ANADVANP'
tp59
F1
s(S'PP'
p60
S'PNP'
tp61
F69
s(S'DP'
S'DDP'
tp62
F2
s(S'NP'
p63
S'AANADVADVVP'
tp64
F1
s(g30
S'NNNPP'
tp65
F2
s(S'VP'
p66
S'VCCP'
tp67
F1
s(S'NP'
p68
S'NMP'
tp69
F11
s(S'VP'
p70
S'AAVNP'
tp71
F1
s(g60
S'PDP'
tp72
F35
s(S'CP'
p73
S'CDADVADVPP'
tp74
F2
s(S'NP'
S'AAANVVP'
tp75
F1
s(S'DP'
p76
S'ADVDAPPP'
tp77
F1
s(S'AP'
S'ANP'
tp78
F1
s(g60
S'PADVPP'
tp79
F1
s(S'NP'
p80
S'NNADVCP'
tp81
F1
s(g73
S'CDDAPPP'
tp82
F1
s(S'PP'
p83
S'AAPPPP'
tp84
F1
s(S'PP'
p85
S'ADVADVAPVP'
tp86
F1
s(S'PP'
p87
S'ADVPADVAVP'
tp88
F1
s(S'NP'
p89
S'NACP'
tp90
F4
s(S'AP'
S'ADVAVP'
tp91
F2
s(g80
S'NCCP'
tp92
F9
s(S'NP'
p93
S'NNCP'
tp94
F17
s(g89
S'AANPPP'
tp95
F1
s(S'DP'
p96
S'DDDDP'
tp97
F1
s(S'VP'
p98
S'AVNP'
tp99
F8
s(S'NP'
S'NNNNNCP'
tp100
F2
s(g60
S'ADVPVVP'
tp101
F2
s(S'VP'
S'ADVADVVADVADVANP'
tp102
F1
s(S'PP'
p103
S'ADVAPDP'
tp104
F1
s(S'CP'
p105
S'CADVDDAPP'
tp106
F1
s(S'VP'
S'ADVADVAVNP'
tp107
F1
s(S'VP'
S'AADVVAPPP'
tp108
F1
s(S'AP'
p109
S'AAAAP'
tp110
F1
s(g57
S'PAADVVP'
tp111
F1
s(S'CP'
S'CCCDP'
tp112
F5
s(S'VP'
p113
S'ADVVAP'
tp114
F1
s(S'PP'
S'APDP'
tp115
F1
s(S'PP'
p116
S'ADVADVAPNP'
tp117
F1
s(S'PP'
p118
S'PPPANNP'
tp119
F1
s(S'DP'
S'DDANNP'
tp120
F1
s(S'VP'
p121
S'VVANP'
tp122
F2
s(g60
S'ADVPNNP'
tp123
F1
s(S'DP'
S'DADVADVADVPP'
tp124
F1
s(S'PP'
p125
S'PPADVADVAP'
tp126
F1
s(S'MP'
p127
S'MADVVNP'
tp128
F2
s(S'NP'
p129
S'ADVANCP'
tp130
F1
s(S'DP'
p131
S'DNNP'
tp132
F7
s(S'CP'
S'CADVDDPP'
tp133
F1
s(S'CP'
S'CCADVDP'
tp134
F3
s(S'VP'
S'VVNNNP'
tp135
F1
s(S'NP'
S'NNNVP'
tp136
F1
s(g98
S'VDP'
tp137
F32
s(g32
S'PADVVP'
tp138
F1
s(S'CP'
p139
S'CADVADVADVDAPP'
tp140
F1
s(g32
S'APAP'
tp141
F2
s(S'PP'
S'APPADVPP'
tp142
F1
s(S'AP'
S'APP'
tp143
F10
s(S'AP'
S'AAP'
tp144
F4
s(S'PP'
p145
S'ADVPPAADVVP'
tp146
F1
s(S'NP'
S'ADVANPP'
tp147
F3
s(S'NP'
S'NAAACP'
tp148
F1
s(S'PP'
S'ADVAPADVDP'
tp149
F1
s(S'CP'
S'CDDDDPP'
tp150
F2
s(S'NP'
S'AAAAANPP'
tp151
F1
s(S'PP'
p152
S'PAANP'
tp153
F6
s(S'VP'
p154
S'VVVANP'
tp155
F1
s(g93
S'ANVP'
tp156
F11
s(S'DP'
S'ADVDDPP'
tp157
F1
s(S'MP'
S'MVNP'
tp158
F11
s(g32
S'PAVP'
tp159
F4
s(S'DP'
p160
S'DDAPPP'
tp161
F2
s(S'VP'
S'VVVPP'
tp162
F1
s(S'PP'
p163
S'APPPP'
tp164
F1
s(S'DP'
S'DAAAPPP'
tp165
F1
s(S'AP'
p166
S'ADVADP'
tp167
F2
s(g12
S'APDDP'
tp168
F2
s(g166
S'AVVP'
tp169
F1
s(S'VP'
p170
S'ADVVNP'
tp171
F2
s(S'VP'
S'VVNP'
tp172
F11
s(S'PP'
S'PPVP'
tp173
F2
s(S'VP'
S'VADVDP'
tp174
F1
s(g113
S'VAAP'
tp175
F5
s(S'NP'
p176
S'ANDP'
tp177
F3
s(g42
S'NVVP'
tp178
F10
s(g7
S'AAPVP'
tp179
F2
s(g36
S'VMP'
tp180
F1
s(S'NP'
S'ANNAP'
tp181
F1
s(S'VP'
S'VVNNP'
tp182
F1
s(S'CP'
S'CDAPP'
tp183
F10
s(S'CP'
S'CDDAAPP'
tp184
F1
s(S'CP'
S'CADVADPP'
tp185
F1
s(S'DP'
S'ADNP'
tp186
F2
s(g15
S'DAPP'
tp187
F15
s(S'PP'
p188
S'APADVADVADVAPP'
tp189
F1
s(S'VP'
S'VVVVPP'
tp190
F1
s(S'VP'
p191
S'ADVADVVPP'
tp192
F1
s(S'VP'
S'VADVADVNP'
tp193
F1
s(g28
S'PPPDP'
tp194
F1
s(S'PP'
p195
S'AAAPDP'
tp196
F1
s(S'CP'
p197
S'CADDPP'
tp198
F3
s(S'VP'
p199
S'VVAAP'
tp200
F1
s(S'DP'
S'ADVDNP'
tp201
F1
s(g98
S'VVPP'
tp202
F8
s(S'DP'
S'DDAAPP'
tp203
F1
s(S'NP'
S'NNPP'
tp204
F8
s(g48
S'PADVADVVP'
tp205
F1
s(g83
S'PVVVP'
tp206
F1
s(g116
S'PMP'
tp207
F3
s(S'CP'
S'CCDP'
tp208
F13
s(g176
S'ANNDP'
tp209
F1
s(S'VP'
S'VADVANP'
tp210
F2
s(S'PP'
S'PPNNNP'
tp211
F1
s(S'VP'
p212
S'ADVVAAVVP'
tp213
F1
s(S'NP'
S'NVVVP'
tp214
F2
s(g73
S'CDDDPP'
tp215
F1
s(g32
S'PADVADVADVANP'
tp216
F1
s(S'CP'
S'CDAAPP'
tp217
F2
s(S'PP'
S'PNNNP'
tp218
F4
s(S'NP'
p219
S'ANMMP'
tp220
F1
s(S'AP'
p221
S'AACCP'
tp222
F1
s(S'PP'
p223
S'AAPNP'
tp224
F2
s(g48
S'PPP'
tp225
F25
s(S'NP'
p226
S'NAVP'
tp227
F3
s(S'PP'
p228
S'PADVAP'
tp229
F1
s(S'NP'
p230
S'ANNPPP'
tp231
F1
s(S'DP'
S'ADVDVP'
tp232
F1
s(S'NP'
p233
S'NAAAP'
tp234
F1
s(S'CP'
p235
S'CADPP'
tp236
F8
s(g98
S'VPP'
tp237
F22
s(g139
S'ACCDP'
tp238
F1
s(S'AP'
p239
S'AAAACP'
tp240
F1
s(S'NP'
S'NNNCP'
tp241
F6
s(S'PP'
S'PADVDP'
tp242
F3
s(S'CP'
S'CDADVAPP'
tp243
F1
s(S'DP'
S'DANNP'
tp244
F1
s(S'CP'
p245
S'CDDPP'
tp246
F14
s(S'DP'
S'DAAPP'
tp247
F4
s(S'PP'
S'PVVP'
tp248
F8
s(S'CP'
S'CADPPP'
tp249
F1
s(S'AP'
S'AACP'
tp250
F3
s(S'VP'
p251
S'VPPP'
tp252
F2
s(S'NP'
S'NADVADVAVP'
tp253
F1
s(S'CP'
S'CDADVADVAPP'
tp254
F1
s(S'VP'
S'VVPPP'
tp255
F1
s(S'NP'
S'NANP'
tp256
F1
s(S'DP'
p257
S'DVVP'
tp258
F6
s(S'PP'
S'PPAP'
tp259
F1
s(S'NP'
S'NNNNMP'
tp260
F1
s(g22
S'VVVP'
tp261
F1
s(S'CP'
p262
S'CADVDPP'
tp263
F1
s(g176
S'ANCP'
tp264
F8
s(g96
S'DCP'
tp265
F2
s(S'NP'
p266
S'ANNCP'
tp267
F2
s(g257
S'DDDP'
tp268
F1
s(S'NP'
p269
S'ANVVP'
tp270
F1
s(g46
S'VVDP'
tp271
F4
s(S'NP'
p272
S'NPPP'
tp273
F3
s(S'NP'
p274
S'ADVANADVAP'
tp275
F1
s(S'AP'
S'APPP'
tp276
F1
s(S'DP'
S'DAVP'
tp277
F2
s(S'VP'
p278
S'ADVAVCP'
tp279
F1
s(S'AP'
p280
S'ACP'
tp281
F12
s(g195
S'PAAAPP'
tp282
F1
s(g245
S'CCCCADDP'
tp283
F1
s(g103
S'PPNP'
tp284
F10
s(g96
S'ADVDAPP'
tp285
F1
s(g20
S'CDPPPP'
tp286
F2
s(S'VP'
S'ADVVADVCCP'
tp287
F1
s(g105
S'ADVADVADVACDP'
tp288
F1
s(S'CP'
S'CCCDDP'
tp289
F1
s(S'AP'
S'ADP'
tp290
F48
s(S'NP'
S'NNADVADVADVACP'
tp291
F1
s(S'DP'
S'DDAVP'
tp292
F2
s(S'DP'
p293
S'ADDVVP'
tp294
F1
s(S'NP'
p295
S'AAAANNCP'
tp296
F1
s(S'NP'
S'AAANNCP'
tp297
F2
s(g121
S'VAAANP'
tp298
F1
s(S'PP'
S'ADVADVADVPAVP'
tp299
F1
s(g109
S'AAADP'
tp300
F1
s(g219
S'ANNVP'
tp301
F1
s(S'VP'
S'VVAP'
tp302
F4
s(g68
S'NNAPP'
tp303
F2
s(g226
S'NPP'
tp304
F40
s(S'NP'
p305
S'NADVANP'
tp306
F1
s(S'PP'
S'PAAVP'
tp307
F1
s(S'VP'
S'VDDP'
tp308
F1
s(S'VP'
S'ADVVADVAP'
tp309
F1
s(S'NP'
S'ADVADVNACP'
tp310
F1
s(g160
S'DADVADVPP'
tp311
F2
s(S'DP'
S'DADVAPP'
tp312
F2
s(g228
S'ADVAPAP'
tp313
F1
s(g129
S'ANPP'
tp314
F6
s(g17
S'PPPPP'
tp315
F2
s(g17
S'ADVADVPDP'
tp316
F1
s(S'MP'
S'MVVPP'
tp317
F1
s(g76
S'ADVDPP'
tp318
F5
s(g54
S'NPPPP'
tp319
F1
s(S'CP'
p320
S'CAADPP'
tp321
F3
s(g226
S'NAACP'
tp322
F3
s(S'PP'
S'PNNP'
tp323
F23
s(S'DP'
S'AAADPP'
tp324
F1
s(g15
S'ADPP'
tp325
F13
s(g50
S'PAADVNP'
tp326
F1
s(g44
S'ACDP'
tp327
F6
s(g83
S'PAAP'
tp328
F3
s(g98
S'VAP'
tp329
F28
s(S'VP'
S'ADVVADVNNP'
tp330
F1
s(g160
S'DDDPP'
tp331
F2
s(S'NP'
p332
S'AANNCP'
tp333
F2
s(g145
S'PAAPP'
tp334
F1
s(g176
S'ADVADVADVANVP'
tp335
F1
s(g295
S'AANNAAADVVP'
tp336
F1
s(S'CP'
S'CCADVADP'
tp337
F1
s(S'AP'
S'AAACP'
tp338
F1
s(S'NP'
p339
S'NAAP'
tp340
F2
s(S'NP'
S'NNDP'
tp341
F3
s(S'PP'
S'PPPVP'
tp342
F1
s(g154
S'AAVAP'
tp343
F1
s(g239
S'AADDP'
tp344
F1
s(S'NP'
S'NADVADVCP'
tp345
F1
s(g170
S'AVADVADVAPP'
tp346
F1
s(S'NP'
S'NVVVVP'
tp347
F1
s(S'CP'
S'CCAADP'
tp348
F1
s(g152
S'PANP'
tp349
F12
s(S'NP'
S'ANNMP'
tp350
F1
s(S'AP'
p351
S'AAVP'
tp352
F1
s(S'PP'
S'PPNNNNNP'
tp353
F1
s(S'NP'
S'NDDP'
tp354
F1
s(S'AP'
S'ACCP'
tp355
F2
s(g226
S'NDP'
tp356
F16
s(S'NP'
p357
S'AAANVP'
tp358
F1
s(S'DP'
S'DDVP'
tp359
F9
s(S'NP'
S'AANVP'
tp360
F1
s(S'DP'
S'DADVADVAPP'
tp361
F1
s(g212
S'AAVVPP'
tp362
F1
s(g46
S'VNNNP'
tp363
F3
s(g60
S'ADVPAP'
tp364
F2
s(g188
S'PCP'
tp365
F5
s(S'NP'
p366
S'NNPPP'
tp367
F1
s(g125
S'PAADP'
tp368
F1
s(g127
S'MVNNNP'
tp369
F1
s(S'AP'
S'ADVACP'
tp370
F1
s(S'DP'
S'DADVADVAVP'
tp371
F1
s(S'VP'
S'ADVADVAVDP'
tp372
F1
s(g131
S'ADPPP'
tp373
F1
s(S'MP'
S'MVCP'
tp374
F1
s(S'CP'
S'CCDDP'
tp375
F1
s(g118
S'PPAAP'
tp376
F2
s(S'NP'
S'NNNNVP'
tp377
F1
s(g66
S'VVCP'
tp378
F4
s(S'MP'
S'MAAVPP'
tp379
F1
s(g68
S'AANCP'
tp380
F3
s(S'VP'
p381
S'VADVNP'
tp382
F1
s(g278
S'VVDDDP'
tp383
F1
s(g199
S'AVVPP'
tp384
F1
s(g85
S'APPP'
tp385
F3
s(g191
S'VVADVANP'
tp386
F1
s(S'CP'
S'CDAPPP'
tp387
F1
s(g98
S'VNNP'
tp388
F10
s(S'DP'
p389
S'ADVDADVVP'
tp390
F1
s(g4
S'NADP'
tp391
F1
s(S'DP'
S'DDNP'
tp392
F2
s(S'CP'
S'ACADVDP'
tp393
F1
s(S'NP'
S'NADVCP'
tp394
F3
s(g366
S'NNADVAP'
tp395
F1
s(S'PP'
p396
S'AAPPP'
tp397
F1
s(g305
S'ADVANVP'
tp398
F1
s(S'DP'
S'AADPP'
tp399
F4
s(S'CP'
p400
S'AAAAACDP'
tp401
F1
s(S'NP'
S'NNNNPP'
tp402
F1
s(S'CP'
S'AAACDDP'
tp403
F1
s(S'AP'
S'AAPP'
tp404
F1
s(g145
S'APPNP'
tp405
F3
s(S'DP'
p406
S'DAAAPP'
tp407
F1
s(S'PP'
S'ADVPANP'
tp408
F2
s(g226
S'NAPP'
tp409
F2
s(g166
S'ADVADVAPPP'
tp410
F1
s(g400
S'ADVCCADP'
tp411
F1
s(g257
S'ADVDANNP'
tp412
F1
s(S'CP'
p413
S'CDAAAPPP'
tp414
F1
s(g230
S'ANCCP'
tp415
F2
s(g339
S'AANPP'
tp416
F3
s(S'NP'
S'NNMP'
tp417
F3
s(S'VP'
S'AAVPP'
tp418
F1
s(g163
S'ADVADVPNNP'
tp419
F1
s(S'DP'
S'DDAANNP'
tp420
F1
s(S'PP'
S'PAAAP'
tp421
F1
s(S'NP'
p422
S'NNAAAAACP'
tp423
F1
s(S'NP'
S'ANAP'
tp424
F2
s(S'MP'
S'MVAP'
tp425
F3
s(g32
S'PVP'
tp426
F33
s(S'DP'
S'DADVAVP'
tp427
F1
s(S'AP'
S'ADVADVAPP'
tp428
F2
s(S'AP'
S'AAVVVP'
tp429
F1
s(g233
S'ADVNAVP'
tp430
F1
s(S'DP'
p431
S'DVVVP'
tp432
F1
s(S'PP'
S'PPAANP'
tp433
F1
s(S'VP'
S'AVCP'
tp434
F1
s(g262
S'CADVDAPPP'
tp435
F1
s(S'DP'
p436
S'DPP'
tp437
F74
s(g274
S'ADVNVP'
tp438
F1
s(S'DP'
p439
S'DDPP'
tp440
F19
s(g389
S'DANP'
tp441
F2
s(S'NP'
p442
S'NADVPP'
tp443
F1
s(g266
S'AADVNACCP'
tp444
F1
s(S'DP'
S'DPPPP'
tp445
F2
s(g15
S'AADNP'
tp446
F1
s(S'DP'
S'ADVDDAPP'
tp447
F1
s(g251
S'ADVAVNNP'
tp448
F1
s(g223
S'PPAANNP'
tp449
F1
s(S'DP'
S'ADVDAAP'
tp450
F1
s(g226
S'NNAACP'
tp451
F1
s(g145
S'PADVPPP'
tp452
F1
s(S'VP'
S'VVDDP'
tp453
F1
s(g32
S'PDDP'
tp454
F5
s(g351
S'ADVACCCP'
tp455
F1
s(g226
S'NNVP'
tp456
F14
s(S'NP'
S'ADVNNAPP'
tp457
F1
s(g28
S'APPPPP'
tp458
F1
s(S'NP'
p459
S'NNP'
tp460
F4
s(g406
S'ADVADPP'
tp461
F2
s(S'DP'
S'DAANP'
tp462
F1
s(S'AP'
S'ADDP'
tp463
F11
s(g131
S'DPPP'
tp464
F15
s(g293
S'AADPPP'
tp465
F1
s(g4
S'NNAVP'
tp466
F1
s(g439
S'ADDADVPP'
tp467
F1
s(S'PP'
S'PPPANP'
tp468
F1
s(g396
S'ADVPNP'
tp469
F3
s(g83
S'PPDP'
tp470
F3
s(S'VP'
S'ADVVANNP'
tp471
F1
s(S'DP'
S'DDPPPP'
tp472
F1
s(S'PP'
S'PADVADVAAAVP'
tp473
F1
s(g68
S'NAP'
tp474
F15
s(S'NP'
S'NNAAP'
tp475
F1
s(S'VP'
S'VAAAP'
tp476
F2
s(S'PP'
S'PPADVADVAVP'
tp477
F1
s(S'AP'
S'AACCCCP'
tp478
F1
s(g381
S'ADVAVNP'
tp479
F1
s(g70
S'VVP'
tp480
F5
s(g129
S'NNVVP'
tp481
F3
s(S'PP'
S'PNNNNNP'
tp482
F1
s(g60
S'APNP'
tp483
F7
s(S'DP'
S'DDVVP'
tp484
F2
s(S'AP'
S'AAADDP'
tp485
F2
s(S'VP'
S'VVVNP'
tp486
F3
s(S'MP'
S'AMAP'
tp487
F1
s(g459
S'NAMP'
tp488
F1
s(S'DP'
S'ADVDAVVP'
tp489
F1
s(g103
S'PPADVAPP'
tp490
F1
s(S'CP'
S'CDPP'
tp491
F66
s(S'DP'
S'ADVADVADVDAPP'
tp492
F1
s(S'VP'
S'AADVVANNP'
tp493
F1
s(g320
S'ADVCADP'
tp494
F1
s(S'VP'
p495
S'VVAANP'
tp496
F1
s(S'MP'
S'MVVAANP'
tp497
F1
s(S'CP'
S'ADVCDP'
tp498
F3
s(g48
S'PPNNP'
tp499
F6
s(g57
S'ADVAPPP'
tp500
F1
s(g98
S'VAADP'
tp501
F1
s(g332
S'NADVAP'
tp502
F1
s(g36
S'AVDDP'
tp503
F1
s(S'CP'
S'ADVADVCDDP'
tp504
F1
s(S'DP'
p505
S'DAP'
tp506
F1
s(g278
S'VAAAAP'
tp507
F1
s(S'VP'
S'AVPP'
tp508
F3
s(S'PP'
S'PAAAAANP'
tp509
F1
s(S'CP'
S'CAADPPP'
tp510
F1
s(S'VP'
S'AAADVVAAAANNP'
tp511
F1
s(g431
S'AADNNP'
tp512
F1
s(g188
S'ADVADVADVAPVP'
tp513
F1
s(S'PP'
S'PANNP'
tp514
F3
s(S'AP'
S'AAAPP'
tp515
F1
s(S'DP'
S'DAPPP'
tp516
F1
s(S'AP'
S'AAADVDP'
tp517
F2
s(S'DP'
S'DMP'
tp518
F2
s(g116
S'PPPNP'
tp519
F1
s(g442
S'NADVAPP'
tp520
F1
s(g34
S'APADVPP'
tp521
F1
s(g87
S'AAAPPNP'
tp522
F1
s(S'NP'
S'AAANPP'
tp523
F1
s(g280
S'AADP'
tp524
F5
s(g226
S'NVP'
tp525
F44
s(g113
S'VADVPP'
tp526
F2
s(S'PP'
S'ADVPVP'
tp527
F1
s(S'DP'
S'DDDDPP'
tp528
F2
s(g63
S'ADVADVANCP'
tp529
F1
s(g46
S'ADVVANP'
tp530
F1
s(g87
S'ADVPDP'
tp531
F2
s(g422
S'ANNPP'
tp532
F2
s(S'MP'
S'MAVNNP'
tp533
F1
s(g226
S'NCP'
tp534
F56
s(g357
S'NAAANP'
tp535
F1
s(S'PP'
S'AAAPNP'
tp536
F1
s(g221
S'AAAP'
tp537
F1
s(S'VP'
S'ADVADVADVADVVAANP'
tp538
F1
s(g366
S'AANDP'
tp539
F1
s(g89
S'NNCCP'
tp540
F3
s(g176
S'NNNADVDP'
tp541
F1
s(g25
S'AANCCP'
tp542
F1
s(g212
S'VAPP'
tp543
F1
s(g15
S'DADVPP'
tp544
F7
s(g197
S'CCADP'
tp545
F2
s(g269
S'NNNPPP'
tp546
F1
s(S'AP'
S'ADVAPP'
tp547
F1
s(g235
S'AACDP'
tp548
F3
s(S'NP'
S'NNNCCP'
tp549
F1
s(S'DP'
S'ADVDPPP'
tp550
F1
s(g436
S'DVP'
tp551
F44
s(S'VP'
S'AVNNP'
tp552
F1
s(g233
S'ADVNPP'
tp553
F1
s(g40
S'AVP'
tp554
F9
s(g422
S'NADVVP'
tp555
F3
s(g505
S'DDPPP'
tp556
F1
s(g272
S'NNAP'
tp557
F4
s(g57
S'PPANP'
tp558
F3
s(g413
S'CDADVPP'
tp559
F2
s(g495
S'VNP'
tp560
F46
s(g191
S'VANP'
tp561
F6
s(S'VP'
S'VADVAP'
tp562
F2
s.