ccollections
defaultdict
p1
(c__builtin__
float
p2
tRp3
(S'VP'
p4
S'VVAAAP'
tp5
F1
s(S'CP'
S'CAADDPPPP'
tp6
F1
s(S'DP'
S'ADDPP'
tp7
F3
s(S'DP'
S'DDAP'
tp8
F3
s(S'VP'
S'VVVVP'
tp9
F1
s(S'PP'
S'PAPP'
tp10
F2
s(S'PP'
p11
S'PADVNP'
tp12
F7
s(S'DP'
p13
S'DNP'
tp14
F135
s(S'VP'
S'VVADVCP'
tp15
F1
s(S'PP'
S'AAPDDP'
tp16
F2
s(S'NP'
p17
S'ADVNPPP'
tp18
F1
s(S'CP'
S'CDPPP'
tp19
F26
s(S'VP'
S'VADP'
tp20
F7
s(S'VP'
S'VVVAANNP'
tp21
F1
s(S'PP'
p22
S'PPPPPP'
tp23
F1
s(S'VP'
p24
S'VAVP'
tp25
F1
s(S'PP'
p26
S'APPDP'
tp27
F2
s(S'DP'
p28
S'DAADP'
tp29
F1
s(S'DP'
p30
S'ADNNP'
tp31
F2
s(S'VP'
S'ADVVNP'
tp32
F7
s(S'MP'
p33
S'MVDP'
tp34
F4
s(S'PP'
p35
S'PPPP'
tp36
F14
s(S'DP'
S'DDDNP'
tp37
F5
s(S'PP'
p38
S'ADVAPCP'
tp39
F1
s(S'DP'
S'DADVVP'
tp40
F6
s(S'VP'
p41
S'ADVVVANP'
tp42
F1
s(S'PP'
S'PADVNNP'
tp43
F2
s(S'AP'
S'AADVPP'
tp44
F1
s(S'NP'
p45
S'NCCCP'
tp46
F2
s(S'DP'
S'ADAANNNP'
tp47
F1
s(S'CP'
S'CADVDAPP'
tp48
F1
s(S'VP'
p49
S'VCP'
tp50
F51
s(S'NP'
p51
S'ADVNNP'
tp52
F1
s(S'NP'
S'NMMP'
tp53
F6
s(S'VP'
S'ADVVCCP'
tp54
F1
s(g35
S'PAP'
tp55
F39
s(S'MP'
S'MMVVP'
tp56
F1
s(S'PP'
p57
S'APVVP'
tp58
F1
s(S'PP'
S'PPADVDP'
tp59
F2
s(S'PP'
p60
S'PNP'
tp61
F138
s(S'VP'
S'VVADVADVNP'
tp62
F2
s(S'DP'
p63
S'DDP'
tp64
F17
s(S'VP'
S'ADVVDDP'
tp65
F1
s(S'NP'
S'NNNPP'
tp66
F8
s(S'VP'
p67
S'VCCP'
tp68
F9
s(S'DP'
S'DDAANP'
tp69
F1
s(S'NP'
S'NMP'
tp70
F23
s(S'VP'
S'VAAADP'
tp71
F1
s(S'VP'
S'AAVNP'
tp72
F1
s(S'VP'
S'VMMP'
tp73
F1
s(g60
S'PDP'
tp74
F123
s(S'CP'
S'CDADVADVPP'
tp75
F1
s(S'MP'
S'MNNVP'
tp76
F1
s(S'NP'
p77
S'NNADVMP'
tp78
F1
s(S'VP'
S'VVVDP'
tp79
F9
s(S'AP'
S'ANP'
tp80
F4
s(g57
S'PADVPP'
tp81
F1
s(S'VP'
S'AAVPP'
tp82
F1
s(S'DP'
S'DPPPP'
tp83
F5
s(g30
S'DDANP'
tp84
F1
s(g17
S'NACP'
tp85
F6
s(S'NP'
S'NCCP'
tp86
F31
s(S'AP'
S'AAAADP'
tp87
F1
s(S'NP'
p88
S'NNCP'
tp89
F24
s(S'MP'
S'MPPPNNNP'
tp90
F1
s(S'NP'
p91
S'NADVADVVP'
tp92
F1
s(g30
S'DDDDP'
tp93
F1
s(S'VP'
S'AVNP'
tp94
F5
s(S'NP'
p95
S'NADVADVPP'
tp96
F1
s(S'PP'
S'ADVPVVP'
tp97
F1
s(S'PP'
S'ADVPAPP'
tp98
F1
s(S'AP'
S'AAAAP'
tp99
F1
s(S'MP'
S'MADVVNNP'
tp100
F1
s(S'VP'
p101
S'ADVVAP'
tp102
F3
s(S'PP'
S'APDP'
tp103
F8
s(S'NP'
S'AANNCCP'
tp104
F1
s(S'VP'
S'ADVVNNP'
tp105
F2
s(S'DP'
p106
S'AAAADDNP'
tp107
F1
s(S'VP'
S'VVANP'
tp108
F1
s(g4
S'VVVVDP'
tp109
F1
s(S'NP'
S'AANNNVVP'
tp110
F1
s(S'AP'
S'AANP'
tp111
F1
s(S'PP'
S'PPADVADVAP'
tp112
F1
s(S'AP'
S'AAPP'
tp113
F4
s(S'MP'
S'MADVVNP'
tp114
F1
s(S'PP'
S'PAAP'
tp115
F3
s(S'NP'
p116
S'NANP'
tp117
F2
s(S'DP'
p118
S'DNNP'
tp119
F39
s(S'CP'
p120
S'CDDPPPP'
tp121
F2
s(S'CP'
S'CCADVDP'
tp122
F2
s(S'NP'
p123
S'NNNVP'
tp124
F4
s(S'PP'
S'PAAVVP'
tp125
F1
s(S'PP'
p126
S'AAPPDP'
tp127
F1
s(g35
S'PADVVP'
tp128
F7
s(S'MP'
S'MVVDDP'
tp129
F1
s(S'DP'
S'ADADDP'
tp130
F1
s(S'PP'
p131
S'APAP'
tp132
F3
s(S'CP'
S'ADVADVCDP'
tp133
F1
s(S'AP'
p134
S'AAP'
tp135
F4
s(S'VP'
p136
S'VADVADVVP'
tp137
F1
s(S'CP'
S'CADVADPP'
tp138
F1
s(S'AP'
S'AAADVDDP'
tp139
F1
s(S'MP'
S'MVVCP'
tp140
F1
s(S'VP'
p141
S'VADVADVNP'
tp142
F1
s(S'CP'
S'CDDDDPP'
tp143
F1
s(S'PP'
S'PAANP'
tp144
F2
s(S'VP'
S'VADVADVCP'
tp145
F1
s(g116
S'ANVP'
tp146
F10
s(S'MP'
S'MVNP'
tp147
F9
s(S'AP'
S'AADVNP'
tp148
F1
s(S'AP'
S'ADVAADP'
tp149
F1
s(S'PP'
p150
S'PAVP'
tp151
F9
s(S'MP'
S'ADVMVP'
tp152
F2
s(S'NP'
p153
S'NNADVADVANP'
tp154
F1
s(g49
S'VVVPP'
tp155
F4
s(S'MP'
S'MADVVPP'
tp156
F1
s(S'DP'
S'DADP'
tp157
F2
s(S'VP'
S'VVAANP'
tp158
F1
s(S'AP'
S'ADVADP'
tp159
F1
s(S'AP'
p160
S'APP'
tp161
F19
s(S'NP'
S'ADVNAP'
tp162
F1
s(S'PP'
p163
S'APPP'
tp164
F1
s(g13
S'ADVADVDAP'
tp165
F1
s(S'PP'
S'PPCP'
tp166
F3
s(S'PP'
S'APVP'
tp167
F8
s(S'VP'
S'VVNP'
tp168
F32
s(S'PP'
p169
S'PPVP'
tp170
F17
s(S'VP'
S'VADVDP'
tp171
F1
s(S'MP'
S'MVVVPP'
tp172
F1
s(g49
S'VAAP'
tp173
F13
s(S'NP'
S'ANDP'
tp174
F5
s(S'NP'
p175
S'NVVP'
tp176
F48
s(S'PP'
p177
S'AAPVP'
tp178
F1
s(S'VP'
S'VMP'
tp179
F7
s(S'VP'
S'VVNNP'
tp180
F4
s(S'CP'
S'CDAPP'
tp181
F9
s(S'VP'
p182
S'VVAADDP'
tp183
F1
s(S'DP'
p184
S'ADNP'
tp185
F5
s(S'PP'
p186
S'PADP'
tp187
F5
s(S'NP'
S'NNAADP'
tp188
F1
s(g49
S'VVVDDP'
tp189
F4
s(g13
S'DAPP'
tp190
F18
s(S'VP'
S'VADVAAP'
tp191
F1
s(g136
S'ADVADVVDP'
tp192
F1
s(S'MP'
S'MVVAP'
tp193
F1
s(S'DP'
S'DAAANP'
tp194
F1
s(S'VP'
S'VAAPP'
tp195
F2
s(g184
S'ADVDNP'
tp196
F3
s(S'VP'
p197
S'VVPP'
tp198
F21
s(S'CP'
S'CCADDP'
tp199
F1
s(S'MP'
S'MVPP'
tp200
F4
s(S'DP'
S'ADVP'
tp201
F4
s(S'MP'
S'MVADP'
tp202
F1
s(S'CP'
S'CDDPPP'
tp203
F5
s(S'NP'
p204
S'NNPP'
tp205
F15
s(g13
S'DADVPPP'
tp206
F1
s(S'NP'
S'ADVNADVADVPP'
tp207
F1
s(S'PP'
p208
S'PPVVP'
tp209
F6
s(S'DP'
S'DNNNP'
tp210
F3
s(S'MP'
p211
S'MPPDP'
tp212
F1
s(S'PP'
S'PADVADVVP'
tp213
F1
s(S'PP'
p214
S'PVVVP'
tp215
F4
s(S'PP'
S'PMP'
tp216
F5
s(g126
S'PAAPPP'
tp217
F1
s(S'CP'
S'CCDP'
tp218
F47
s(S'PP'
S'PPNNNP'
tp219
F1
s(S'MP'
S'MVAP'
tp220
F1
s(S'NP'
p221
S'NVVVP'
tp222
F7
s(g120
S'CDDDPP'
tp223
F3
s(S'CP'
S'CDAAPP'
tp224
F1
s(S'NP'
S'NAAADP'
tp225
F1
s(S'PP'
S'PNNNP'
tp226
F4
s(S'PP'
S'AAPNP'
tp227
F1
s(g60
S'PPP'
tp228
F49
s(S'NP'
p229
S'NAVP'
tp230
F8
s(S'PP'
p231
S'PADVAP'
tp232
F1
s(S'DP'
S'DDNNNP'
tp233
F2
s(S'DP'
S'ADVDVP'
tp234
F2
s(S'NP'
S'NADVVVP'
tp235
F1
s(S'DP'
p236
S'DAAAP'
tp237
F1
s(g49
S'VPP'
tp238
F73
s(S'CP'
S'ACCDP'
tp239
F1
s(S'NP'
S'NNNCP'
tp240
F2
s(g214
S'PADVDP'
tp241
F2
s(S'DP'
p242
S'DANNP'
tp243
F1
s(S'MP'
S'MADVVAP'
tp244
F1
s(g60
S'PADVAAP'
tp245
F2
s(S'CP'
p246
S'CDDPP'
tp247
F34
s(S'DP'
S'DAAPP'
tp248
F1
s(g11
S'PVVP'
tp249
F19
s(S'CP'
S'CADPPP'
tp250
F1
s(S'AP'
S'AACP'
tp251
F4
s(S'NP'
S'NADVMMP'
tp252
F1
s(S'VP'
S'ADVVCP'
tp253
F3
s(S'VP'
p254
S'VPPP'
tp255
F15
s(S'VP'
S'AVCCP'
tp256
F1
s(S'VP'
p257
S'VVPPP'
tp258
F1
s(g186
S'PPAP'
tp259
F6
s(S'DP'
p260
S'DVVP'
tp261
F23
s(S'CP'
S'ADVCDDDP'
tp262
F1
s(S'AP'
S'ADVAACP'
tp263
F1
s(S'AP'
S'APPP'
tp264
F2
s(S'PP'
S'ADVPPP'
tp265
F3
s(S'NP'
S'ADVADVNVP'
tp266
F2
s(S'VP'
S'VVVP'
tp267
F6
s(g260
S'DDPPPP'
tp268
F2
s(S'NP'
S'ADVADVNNVP'
tp269
F3
s(g123
S'ANCP'
tp270
F13
s(S'DP'
p271
S'DCP'
tp272
F7
s(g51
S'ANNCP'
tp273
F1
s(S'VP'
S'VVVNNNP'
tp274
F1
s(g63
S'DDDP'
tp275
F7
s(S'DP'
S'DDADVPP'
tp276
F3
s(S'DP'
S'AADDPP'
tp277
F1
s(S'PP'
p278
S'PPPNNNP'
tp279
F1
s(g49
S'VVDP'
tp280
F26
s(g175
S'NPPP'
tp281
F19
s(g271
S'DAVP'
tp282
F6
s(S'AP'
S'ACP'
tp283
F22
s(S'PP'
S'PPNP'
tp284
F32
s(g242
S'ADVDAPP'
tp285
F1
s(S'DP'
S'AADVP'
tp286
F1
s(S'CP'
S'CDDADVPP'
tp287
F3
s(g134
S'ADP'
tp288
F103
s(S'CP'
p289
S'CADVDPP'
tp290
F7
s(S'NP'
S'ANPPP'
tp291
F1
s(S'DP'
S'DVVVVP'
tp292
F2
s(g257
S'AAAVDP'
tp293
F1
s(S'VP'
S'AVDP'
tp294
F10
s(S'NP'
p295
S'ANNVP'
tp296
F2
s(S'VP'
p297
S'VVAP'
tp298
F11
s(S'NP'
S'NNAPP'
tp299
F1
s(S'PP'
S'APPVVP'
tp300
F1
s(S'VP'
S'AAVCP'
tp301
F1
s(S'NP'
S'NADVAPP'
tp302
F1
s(S'VP'
S'ADVADVVAP'
tp303
F1
s(S'NP'
p304
S'NVP'
tp305
F149
s(S'PP'
p306
S'PPVVVP'
tp307
F1
s(S'PP'
S'PAAVP'
tp308
F2
s(S'NP'
S'NAAPP'
tp309
F1
s(g22
S'PPPPVP'
tp310
F1
s(S'VP'
S'VDDP'
tp311
F17
s(S'DP'
p312
S'AADDNP'
tp313
F2
s(g304
S'ANPP'
tp314
F15
s(S'PP'
S'PPPPP'
tp315
F3
s(g33
S'MPDP'
tp316
F3
s(S'MP'
S'MVVPP'
tp317
F1
s(S'PP'
S'PPPNP'
tp318
F1
s(g30
S'DDDDDP'
tp319
F1
s(S'NP'
p320
S'ADVADVNPP'
tp321
F1
s(S'DP'
S'ADDP'
tp322
F1
s(S'CP'
S'CAADPP'
tp323
F2
s(S'DP'
S'DADVADVVP'
tp324
F1
s(g77
S'NAACP'
tp325
F1
s(S'PP'
p326
S'PNNP'
tp327
F36
s(g177
S'APNNP'
tp328
F1
s(S'MP'
S'MMVP'
tp329
F6
s(g229
S'ADVNCP'
tp330
F8
s(S'DP'
S'DDDAAAPP'
tp331
F1
s(S'AP'
S'AADP'
tp332
F17
s(S'VP'
S'VAPPP'
tp333
F1
s(S'CP'
S'ACDP'
tp334
F5
s(g221
S'NNDP'
tp335
F14
s(g246
S'CDADVPPP'
tp336
F1
s(g49
S'VAP'
tp337
F55
s(g257
S'VVVVNP'
tp338
F1
s(g260
S'DDDPP'
tp339
F8
s(g177
S'PAAPP'
tp340
F1
s(S'DP'
S'DADVDP'
tp341
F1
s(S'DP'
S'DDDAP'
tp342
F2
s(S'AP'
S'AAACP'
tp343
F1
s(S'AP'
p344
S'AVVP'
tp345
F1
s(S'PP'
S'PPPVP'
tp346
F3
s(g134
S'AADDP'
tp347
F1
s(S'VP'
S'VAANP'
tp348
F2
s(g163
S'ADVPNNP'
tp349
F1
s(S'PP'
S'PPPDDP'
tp350
F1
s(S'DP'
S'ADVDDAAP'
tp351
F1
s(S'DP'
S'DDADVNP'
tp352
F2
s(g60
S'PANP'
tp353
F12
s(S'DP'
S'AADNP'
tp354
F2
s(g278
S'PPADVADVADVANNP'
tp355
F1
s(g134
S'AAVP'
tp356
F2
s(S'NP'
S'NAAP'
tp357
F4
s(S'NP'
S'NDDP'
tp358
F8
s(S'AP'
S'ACCP'
tp359
F5
s(S'VP'
S'AVPPP'
tp360
F1
s(g304
S'NDP'
tp361
F64
s(S'NP'
S'AAANVP'
tp362
F1
s(S'PP'
S'PPPVVVP'
tp363
F1
s(g260
S'DDVP'
tp364
F17
s(S'DP'
S'AADNNNP'
tp365
F1
s(S'MP'
S'MADVDAP'
tp366
F1
s(S'NP'
S'NNAAAAP'
tp367
F1
s(S'VP'
S'AAVVPP'
tp368
F1
s(S'VP'
S'VNNNP'
tp369
F4
s(S'DP'
p370
S'AAADAP'
tp371
F1
s(g150
S'PCP'
tp372
F9
s(S'NP'
p373
S'NNPPP'
tp374
F1
s(g306
S'PAADDP'
tp375
F1
s(S'PP'
S'PAADP'
tp376
F2
s(S'NP'
S'ADVNNVP'
tp377
F1
s(S'NP'
p378
S'ADVNNPP'
tp379
F1
s(S'PP'
S'PPADVADVADVADVDP'
tp380
F1
s(S'NP'
S'NNNDP'
tp381
F1
s(S'AP'
S'ADVACP'
tp382
F3
s(g91
S'AANVVVP'
tp383
F1
s(S'NP'
S'ADVADVNMP'
tp384
F1
s(g106
S'DDADVVP'
tp385
F1
s(S'DP'
S'ADPPP'
tp386
F2
s(S'MP'
S'MVCP'
tp387
F2
s(g246
S'CCDDP'
tp388
F7
s(S'DP'
S'AAADNP'
tp389
F2
s(g88
S'NNVVP'
tp390
F6
s(g254
S'VVCP'
tp391
F12
s(S'PP'
p392
S'PADVADVPP'
tp393
F1
s(S'NP'
S'AANCP'
tp394
F1
s(S'VP'
S'VADVNP'
tp395
F8
s(S'VP'
S'VVDDDP'
tp396
F2
s(S'AP'
S'AADVCP'
tp397
F1
s(S'AP'
S'ADVAVVP'
tp398
F2
s(g211
S'MVVADVADVNP'
tp399
F1
s(g95
S'AANVP'
tp400
F5
s(g160
S'AAAPP'
tp401
F2
s(S'VP'
S'ADVVPP'
tp402
F5
s(S'VP'
S'VNNP'
tp403
F27
s(S'AP'
S'AADVDP'
tp404
F3
s(g373
S'NADP'
tp405
F2
s(g13
S'DDNP'
tp406
F33
s(S'NP'
S'NADVCP'
tp407
F2
s(S'DP'
S'DDNNP'
tp408
F5
s(S'VP'
S'VPPPPP'
tp409
F1
s(g373
S'ADVADVNCP'
tp410
F1
s(S'AP'
S'ADVADDP'
tp411
F1
s(S'DP'
S'AADPP'
tp412
F3
s(S'PP'
p413
S'APPNP'
tp414
F1
s(S'DP'
S'AADDPPPP'
tp415
F1
s(S'NP'
S'NACCP'
tp416
F1
s(S'CP'
S'CCCADP'
tp417
F1
s(S'VP'
S'VVCCP'
tp418
F3
s(g38
S'PADVMP'
tp419
F1
s(S'DP'
S'DADVADVNP'
tp420
F3
s(g221
S'NAPP'
tp421
F4
s(S'NP'
S'NADVDP'
tp422
F1
s(g304
S'ANCCP'
tp423
F3
s(g153
S'AANPP'
tp424
F1
s(S'VP'
S'VDDDP'
tp425
F4
s(g320
S'NNMP'
tp426
F2
s(S'DP'
S'DDDVP'
tp427
F1
s(S'NP'
p428
S'NNADVCP'
tp429
F2
s(S'CP'
S'CADDPP'
tp430
F1
s(S'PP'
S'PAAAP'
tp431
F1
s(g392
S'ADVADVPNP'
tp432
F2
s(S'PP'
S'PPPAP'
tp433
F1
s(S'VP'
S'VADVADVANP'
tp434
F1
s(g60
S'PVP'
tp435
F109
s(S'AP'
S'ADVADVAPP'
tp436
F1
s(S'CP'
S'ACDDDP'
tp437
F1
s(g101
S'VADVADVADVNNP'
tp438
F1
s(S'DP'
S'DVVVP'
tp439
F2
s(g428
S'ADVADVANVP'
tp440
F1
s(g231
S'PPDDP'
tp441
F4
s(g24
S'AVCP'
tp442
F1
s(g13
S'DDVVVP'
tp443
F1
s(g13
S'DPP'
tp444
F186
s(S'NP'
S'ADVNVP'
tp445
F4
s(g13
S'DDPP'
tp446
F45
s(g13
S'DANP'
tp447
F16
s(S'NP'
S'ADVADVNAP'
tp448
F1
s(S'NP'
p449
S'NADVPP'
tp450
F4
s(S'NP'
S'NAAVP'
tp451
F1
s(g326
S'PDDDP'
tp452
F4
s(g378
S'NNAPPP'
tp453
F1
s(S'VP'
p454
S'VADVCP'
tp455
F1
s(S'NP'
S'NNNNCP'
tp456
F1
s(S'MP'
S'MDNP'
tp457
F2
s(S'NP'
S'NNNVVP'
tp458
F1
s(S'NP'
S'ADVNMMP'
tp459
F1
s(S'DP'
S'DCCP'
tp460
F2
s(S'PP'
S'AAPDP'
tp461
F1
s(g236
S'ADVADPP'
tp462
F1
s(g26
S'PAPPP'
tp463
F1
s(S'VP'
S'VVADVADVNNP'
tp464
F2
s(g60
S'PDDP'
tp465
F33
s(S'MP'
S'MVDDP'
tp466
F1
s(g88
S'NNVP'
tp467
F46
s(g449
S'NNP'
tp468
F2
s(S'VP'
S'VVDDP'
tp469
F4
s(S'DP'
S'DAANP'
tp470
F1
s(g134
S'ADDP'
tp471
F13
s(S'VP'
p472
S'VADVADVMP'
tp473
F1
s(S'PP'
S'ADVPPNP'
tp474
F1
s(S'DP'
S'DPPP'
tp475
F45
s(S'VP'
S'VAAAADDP'
tp476
F1
s(S'VP'
S'VANNP'
tp477
F1
s(S'NP'
p478
S'NNAVP'
tp479
F1
s(S'PP'
S'ADVPNP'
tp480
F2
s(g169
S'PPDP'
tp481
F22
s(S'NP'
S'ADVADVADVANNAP'
tp482
F1
s(S'NP'
S'NADVADVADVPP'
tp483
F1
s(g304
S'NAP'
tp484
F45
s(S'NP'
S'NNAAP'
tp485
F1
s(S'VP'
S'VAAAP'
tp486
F2
s(g182
S'VVP'
tp487
F18
s(g370
S'DDAPP'
tp488
F2
s(g392
S'ADVADVPVP'
tp489
F1
s(S'AP'
S'AAADP'
tp490
F3
s(g60
S'APNP'
tp491
F8
s(g297
S'VVVNNP'
tp492
F1
s(g13
S'DDVVP'
tp493
F5
s(S'VP'
S'VVVNP'
tp494
F1
s(S'MP'
S'MNPP'
tp495
F1
s(S'NP'
S'NNAAAVP'
tp496
F1
s(g246
S'CDPP'
tp497
F159
s(g344
S'ADDDP'
tp498
F2
s(S'CP'
S'ADVCADP'
tp499
F1
s(g118
S'ADVDVVP'
tp500
F2
s(S'CP'
S'ADVCDP'
tp501
F5
s(S'VP'
S'ADVADVVNP'
tp502
F2
s(g208
S'PPNNP'
tp503
F2
s(S'CP'
S'CAADDPP'
tp504
F1
s(g49
S'VDP'
tp505
F125
s(S'NP'
S'NADVAP'
tp506
F3
s(S'DP'
p507
S'DADVNP'
tp508
F3
s(S'DP'
S'DAP'
tp509
F12
s(S'CP'
S'CADPP'
tp510
F10
s(g472
S'AVPP'
tp511
F5
s(S'CP'
S'CDPPPP'
tp512
F2
s(S'PP'
S'PANNP'
tp513
F1
s(g454
S'ADVADVVVP'
tp514
F1
s(g373
S'NNDDP'
tp515
F1
s(S'DP'
S'DAPPP'
tp516
F1
s(g507
S'DADVADVPP'
tp517
F1
s(S'DP'
S'DMP'
tp518
F1
s(S'DP'
S'ADVDPP'
tp519
F11
s(g304
S'NPP'
tp520
F106
s(g392
S'PPAANP'
tp521
F1
s(g45
S'AAANPP'
tp522
F1
s(S'PP'
S'PPPPNP'
tp523
F1
s(g312
S'ADPP'
tp524
F18
s(g141
S'VADVADVNNP'
tp525
F1
s(g131
S'ADVPVP'
tp526
F2
s(S'DP'
S'DDDDPP'
tp527
F2
s(g153
S'ADVADVANCP'
tp528
F1
s(g41
S'ADVVANP'
tp529
F1
s(S'PP'
S'ADVPDP'
tp530
F5
s(S'PP'
S'PPPVVP'
tp531
F1
s(g134
S'ADVAAMP'
tp532
F1
s(g304
S'NCP'
tp533
F112
s(S'PP'
S'AAAPNP'
tp534
F1
s(S'PP'
S'ADVADVPVVVP'
tp535
F1
s(g91
S'AANDP'
tp536
F1
s(S'MP'
S'MVCCP'
tp537
F1
s(g221
S'NNCCP'
tp538
F7
s(S'MP'
S'MNVP'
tp539
F1
s(S'VP'
p540
S'VAPP'
tp541
F4
s(g67
S'ADVVDP'
tp542
F5
s(g77
S'ADVADVADVNNVP'
tp543
F1
s(S'DP'
S'DADVPP'
tp544
F7
s(S'CP'
S'CCADP'
tp545
F1
s(g28
S'ADVDAP'
tp546
F1
s(S'PP'
S'ADVADVADVPNP'
tp547
F1
s(S'AP'
S'ADVAPP'
tp548
F1
s(g60
S'ADVPPVVP'
tp549
F1
s(g306
S'ADVPAAADP'
tp550
F1
s(S'MP'
S'ADVADVMNP'
tp551
F1
s(S'CP'
S'AACDP'
tp552
F1
s(g204
S'NNNCCP'
tp553
F1
s(S'CP'
S'CCDDDP'
tp554
F2
s(S'CP'
S'CCCDP'
tp555
F1
s(g13
S'DVP'
tp556
F119
s(g197
S'AVNNP'
tp557
F3
s(S'NP'
S'ADVNPP'
tp558
F4
s(S'AP'
S'AVP'
tp559
F16
s(S'NP'
S'NADVVP'
tp560
F6
s(S'DP'
S'DDPPP'
tp561
F12
s(g295
S'ADVNMP'
tp562
F2
s(S'NP'
S'NNAP'
tp563
F6
s(g413
S'PPANP'
tp564
F1
s(g49
S'VVADVADVDP'
tp565
F1
s(g289
S'CDADVPP'
tp566
F4
s(g49
S'VNP'
tp567
F125
s(g540
S'VANP'
tp568
F10
s(S'VP'
S'VADVAP'
tp569
F4
s(S'PP'
S'PPADVNP'
tp570
F2
s(g454
S'VVVAP'
tp571
F1
s(S'DP'
S'ADVADVADVADVDPP'
tp572
F1
s(g478
S'NADVPPP'
tp573
F1
s.