ccollections
defaultdict
p1
(c__builtin__
float
p2
tRp3
(S'DP'
p4
S'DDPP'
tp5
F13
s(S'DP'
p6
S'DANP'
tp7
F11
s(S'VP'
p8
S'ADVVNP'
tp9
F2
s(S'NP'
p10
S'ANPP'
tp11
F2
s(S'PP'
p12
S'ADVPPDP'
tp13
F1
s(S'PP'
p14
S'PPPPP'
tp15
F2
s(g8
S'VVNP'
tp16
F2
s(S'PP'
p17
S'PPPNNP'
tp18
F1
s(S'NP'
p19
S'NADVADP'
tp20
F1
s(S'PP'
p21
S'PPPNP'
tp22
F1
s(S'PP'
p23
S'PPVP'
tp24
F5
s(S'NP'
p25
S'NPPPP'
tp26
F2
s(g4
S'AADNP'
tp27
F1
s(S'PP'
p28
S'PAPP'
tp29
F2
s(S'CP'
S'CAADPP'
tp30
F1
s(S'PP'
p31
S'PADVNP'
tp32
F2
s(S'NP'
S'NVVP'
tp33
F1
s(g6
S'DNP'
tp34
F21
s(S'NP'
S'NAACP'
tp35
F1
s(g28
S'PNNP'
tp36
F10
s(S'NP'
p37
S'NNAACP'
tp38
F1
s(S'CP'
p39
S'CDAPP'
tp40
F5
s(S'VP'
p41
S'VADVNP'
tp42
F1
s(S'CP'
p43
S'CDPPP'
tp44
F7
s(S'NP'
S'ANCCP'
tp45
F1
s(g4
S'ADNP'
tp46
F3
s(S'DP'
p47
S'DCCP'
tp48
F1
s(S'VP'
S'VADP'
tp49
F3
s(g12
S'APCP'
tp50
F1
s(g23
S'PADP'
tp51
F3
s(S'NP'
p52
S'ADVNCP'
tp53
F1
s(S'AP'
S'AADP'
tp54
F2
s(g23
S'PDDP'
tp55
F8
s(S'DP'
p56
S'ADVADVADVP'
tp57
F1
s(S'VP'
p58
S'VAPPP'
tp59
F1
s(S'CP'
p60
S'ACDP'
tp61
F2
s(g14
S'APPDP'
tp62
F1
s(g8
S'VCCP'
tp63
F2
s(S'NP'
S'NNNCP'
tp64
F1
s(g6
S'DAPP'
tp65
F6
s(S'CP'
p66
S'CDADVPPP'
tp67
F1
s(S'VP'
p68
S'VAP'
tp69
F12
s(g28
S'APVP'
tp70
F2
s(S'MP'
p71
S'MVDP'
tp72
F3
s(g8
S'AVDP'
tp73
F3
s(g28
S'PPPP'
tp74
F7
s(S'DP'
p75
S'DDDP'
tp76
F2
s(g6
S'ADVADPP'
tp77
F1
s(g4
S'DAANP'
tp78
F1
s(S'VP'
p79
S'AVVNP'
tp80
F1
s(g31
S'PPPDP'
tp81
F1
s(S'AP'
S'ADDP'
tp82
F3
s(S'DP'
p83
S'DDDPPP'
tp84
F1
s(S'DP'
S'DADVDP'
tp85
F1
s(S'PP'
p86
S'ADVPPNP'
tp87
F1
s(g21
S'PADVADVADP'
tp88
F1
s(S'NP'
p89
S'NADVACP'
tp90
F1
s(g8
S'VAAPP'
tp91
F1
s(g4
S'DPPP'
tp92
F10
s(S'DP'
p93
S'ADVDNP'
tp94
F3
s(g19
S'NCCCP'
tp95
F1
s(S'CP'
p96
S'CADVDAPP'
tp97
F1
s(S'VP'
p98
S'VCP'
tp99
F10
s(S'PP'
S'PPNNP'
tp100
F3
s(g10
S'NMMP'
tp101
F1
s(g17
S'PAVVP'
tp102
F1
s(S'MP'
p103
S'MVPP'
tp104
F1
s(S'VP'
S'VAANP'
tp105
F1
s(g28
S'PAP'
tp106
F7
s(S'MP'
S'MMVVP'
tp107
F1
s(S'PP'
S'ADVPNP'
tp108
F1
s(g28
S'PPDP'
tp109
F8
s(S'NP'
p110
S'NNPP'
tp111
F6
s(g8
S'VADVDP'
tp112
F3
s(g39
S'CCDDDDDP'
tp113
F1
s(S'DP'
S'DADVPPP'
tp114
F1
s(g28
S'PNP'
tp115
F24
s(g52
S'NPPP'
tp116
F2
s(g71
S'MADP'
tp117
F1
s(S'CP'
S'CCAADP'
tp118
F1
s(g6
S'DDP'
tp119
F8
s(S'PP'
p120
S'PANP'
tp121
F1
s(g17
S'PAAP'
tp122
F3
s(S'MP'
S'MCDP'
tp123
F2
s(S'PP'
p124
S'PMMP'
tp125
F1
s(g124
S'PMP'
tp126
F3
s(S'AP'
S'ACP'
tp127
F4
s(g43
S'CCDP'
tp128
F5
s(g110
S'NAP'
tp129
F7
s(S'VP'
S'VPPP'
tp130
F2
s(g110
S'NMP'
tp131
F9
s(S'DP'
S'ADVDDPP'
tp132
F1
s(S'AP'
S'AVP'
tp133
F4
s(g31
S'PPADVVP'
tp134
F1
s(g19
S'NDP'
tp135
F13
s(S'VP'
p136
S'VVVDP'
tp137
F1
s(g47
S'DAVVP'
tp138
F1
s(g6
S'DVP'
tp139
F15
s(S'CP'
p140
S'CCCCDP'
tp141
F1
s(g4
S'DDVP'
tp142
F4
s(g28
S'PDP'
tp143
F22
s(S'NP'
p144
S'ANDP'
tp145
F1
s(S'CP'
S'CDAAPP'
tp146
F2
s(g19
S'AANVP'
tp147
F3
s(S'DP'
S'DDVVP'
tp148
F1
s(g28
S'PPP'
tp149
F18
s(S'MP'
S'MADVVVPP'
tp150
F1
s(g10
S'NAVP'
tp151
F1
s(g14
S'ADVPDP'
tp152
F2
s(g124
S'APPNP'
tp153
F1
s(g144
S'NNPPP'
tp154
F1
s(g58
S'VVCP'
tp155
F2
s(g39
S'CDPP'
tp156
F25
s(S'PP'
S'PPADVADVNP'
tp157
F1
s(g96
S'CDPPPP'
tp158
F2
s(S'NP'
S'NNDP'
tp159
F1
s(S'VP'
p160
S'ADVADVVVPP'
tp161
F1
s(g56
S'DPPPP'
tp162
F2
s(g79
S'VPP'
tp163
F12
s(g19
S'NACP'
tp164
F2
s(S'NP'
p165
S'NCCP'
tp166
F7
s(g41
S'VVVAP'
tp167
F1
s(g19
S'NNVP'
tp168
F6
s(S'PP'
S'APNNP'
tp169
F1
s(g165
S'NNCP'
tp170
F12
s(g144
S'NADVVP'
tp171
F1
s(S'MP'
p172
S'MVCP'
tp173
F3
s(g8
S'VVPP'
tp174
F2
s(S'CP'
S'CCDDP'
tp175
F3
s(g60
S'CDDPP'
tp176
F7
s(g47
S'DAAPP'
tp177
F2
s(g28
S'PVVP'
tp178
F6
s(S'AP'
S'AACP'
tp179
F3
s(S'VP'
S'ADVVCP'
tp180
F1
s(g31
S'AAPNP'
tp181
F2
s(g68
S'VAADP'
tp182
F1
s(g19
S'NNVVP'
tp183
F2
s(S'VP'
p184
S'VVPPP'
tp185
F1
s(S'DP'
S'DAP'
tp186
F5
s(S'CP'
S'CADPP'
tp187
F7
s(g37
S'AANCP'
tp188
F2
s(S'MP'
S'MVPPP'
tp189
F1
s(g12
S'PADVPPP'
tp190
F1
s(S'PP'
p191
S'ADVAPDP'
tp192
F1
s(g31
S'APNP'
tp193
F2
s(S'PP'
S'APPP'
tp194
F3
s(S'AP'
S'APPP'
tp195
F3
s(g14
S'ADVPPADVPP'
tp196
F1
s(S'NP'
p197
S'ADVADVNVP'
tp198
F1
s(S'NP'
S'NVVVP'
tp199
F1
s(g68
S'VNNP'
tp200
F7
s(g4
S'ADVADADVPP'
tp201
F1
s(S'CP'
S'CADVDPP'
tp202
F5
s(S'NP'
S'NADP'
tp203
F1
s(g60
S'CCCDP'
tp204
F1
s(g93
S'DDNP'
tp205
F2
s(g8
S'AVPP'
tp206
F1
s(g83
S'DDNNP'
tp207
F2
s(g165
S'ANCP'
tp208
F8
s(g28
S'APDP'
tp209
F4
s(g83
S'ADVP'
tp210
F2
s(S'DP'
S'DCP'
tp211
F5
s(S'DP'
S'ADVDPP'
tp212
F6
s(g160
S'ADVVNNP'
tp213
F1
s(g12
S'PPADVPP'
tp214
F1
s(S'DP'
p215
S'ADPP'
tp216
F9
s(g86
S'PADVDDP'
tp217
F1
s(S'MP'
S'MADVVCP'
tp218
F1
s(S'CP'
S'CDDPPP'
tp219
F2
s(S'DP'
S'DDADVPP'
tp220
F1
s(g75
S'AADPP'
tp221
F2
s(g110
S'ANVVP'
tp222
F1
s(g14
S'ADVPVP'
tp223
F2
s(g98
S'VVDP'
tp224
F5
s(S'DP'
S'ADMP'
tp225
F1
s(g41
S'AVVADVNP'
tp226
F1
s(g144
S'NNNNADVADVVVP'
tp227
F1
s(g93
S'DAPPP'
tp228
F2
s(S'DP'
p229
S'DAVP'
tp230
F1
s(g215
S'DNNP'
tp231
F7
s(g165
S'NCP'
tp232
F20
s(S'PP'
S'AAPAP'
tp233
F1
s(S'CP'
S'CCADVDP'
tp234
F1
s(g160
S'ADVVVPP'
tp235
F1
s(g120
S'PPNP'
tp236
F6
s(g98
S'VDP'
tp237
F21
s(g136
S'VVP'
tp238
F1
s(g93
S'ADVDAPP'
tp239
F2
s(g79
S'VVCCP'
tp240
F1
s(g6
S'DDDDDPP'
tp241
F1
s(g191
S'PCP'
tp242
F1
s(g89
S'NNCCP'
tp243
F2
s(S'VP'
S'VVVP'
tp244
F1
s(g23
S'ADVPANP'
tp245
F1
s(S'CP'
S'CDDADVPP'
tp246
F1
s(S'AP'
S'ADP'
tp247
F14
s(g21
S'APAP'
tp248
F1
s(g8
S'VAPP'
tp249
F3
s(g31
S'APPVP'
tp250
F1
s(S'AP'
S'APP'
tp251
F9
s(g197
S'ANPPP'
tp252
F1
s(g191
S'PADVAPP'
tp253
F1
s(g47
S'DADVPP'
tp254
F3
s(g39
S'CADVADPP'
tp255
F1
s(S'NP'
S'NNMP'
tp256
F2
s(g103
S'MNVP'
tp257
F1
s(S'PP'
S'PAANP'
tp258
F2
s(g172
S'MMNNP'
tp259
F1
s(S'CP'
S'AACDP'
tp260
F3
s(S'NP'
S'ANNVP'
tp261
F1
s(g19
S'ANVP'
tp262
F1
s(S'VP'
S'VAACP'
tp263
F1
s(S'CP'
S'CCDDDP'
tp264
F1
s(g25
S'ANAP'
tp265
F1
s(S'VP'
S'VVAP'
tp266
F2
s(g103
S'MVAP'
tp267
F1
s(g28
S'PVP'
tp268
F20
s(S'MP'
p269
S'MVNP'
tp270
F2
s(g10
S'ADVNPP'
tp271
F2
s(g269
S'AAMVP'
tp272
F1
s(g140
S'ADVACDP'
tp273
F1
s(g124
S'ADVPVVVP'
tp274
F1
s(g31
S'PAVP'
tp275
F3
s(g229
S'DDPPP'
tp276
F2
s(g89
S'NNAP'
tp277
F1
s(g19
S'NPP'
tp278
F21
s(g10
S'NAPP'
tp279
F2
s(g19
S'NVP'
tp280
F16
s(g184
S'VCCCCP'
tp281
F1
s(g66
S'CDADVPP'
tp282
F2
s(g68
S'VNP'
tp283
F14
s(g79
S'VANP'
tp284
F5
s(g8
S'VDDP'
tp285
F3
s(S'VP'
S'AVCP'
tp286
F2
s(g12
S'PPADVNP'
tp287
F1
s(g25
S'NNAAMP'
tp288
F1
s(g6
S'DPP'
tp289
F27
s(S'NP'
S'ADVNVP'
tp290
F2
s(S'NP'
S'NADVPPP'
tp291
F1
s.