ccollections
defaultdict
p1
(c__builtin__
float
p2
tRp3
(S'DP'
p4
S'DADVAPP'
tp5
F1
s(S'DP'
p6
S'DDPP'
tp7
F4
s(g6
S'DANP'
tp8
F2
s(S'VP'
p9
S'VVNP'
tp10
F1
s(S'PP'
p11
S'PPVP'
tp12
F1
s(S'PP'
p13
S'PAPP'
tp14
F1
s(S'PP'
p15
S'PADVNP'
tp16
F1
s(S'NP'
p17
S'NVVP'
tp18
F2
s(g6
S'DNP'
tp19
F8
s(S'PP'
p20
S'PNNP'
tp21
F2
s(S'NP'
p22
S'NCCP'
tp23
F1
s(S'CP'
p24
S'CDAPP'
tp25
F3
s(S'VP'
p26
S'VADVNP'
tp27
F1
s(g11
S'AAPPNP'
tp28
F1
s(S'CP'
p29
S'CDPPP'
tp30
F4
s(S'PP'
S'PADP'
tp31
F1
s(S'NP'
p32
S'ADVNCP'
tp33
F1
s(S'CP'
p34
S'CDPPPPP'
tp35
F1
s(S'PP'
p36
S'PPPPPP'
tp37
F1
s(g20
S'PDDP'
tp38
F1
s(S'MP'
S'MVDDP'
tp39
F1
s(S'DP'
p40
S'DADVAP'
tp41
F1
s(g4
S'DAPP'
tp42
F3
s(S'VP'
S'VAP'
tp43
F2
s(g13
S'APVP'
tp44
F3
s(g32
S'AANNCP'
tp45
F1
s(S'PP'
p46
S'PPPP'
tp47
F1
s(S'AP'
S'ADDP'
tp48
F1
s(S'DP'
p49
S'DANNP'
tp50
F1
s(g40
S'DPPP'
tp51
F4
s(S'DP'
S'ADVDNP'
tp52
F1
s(g9
S'VCP'
tp53
F7
s(S'PP'
p54
S'PPNNP'
tp55
F1
s(g34
S'CDDPPP'
tp56
F2
s(S'PP'
S'PPDP'
tp57
F2
s(g22
S'NNPP'
tp58
F2
s(S'PP'
S'PPADVDP'
tp59
F1
s(g6
S'ADVDCP'
tp60
F1
s(g46
S'PNP'
tp61
F8
s(g40
S'DNNNP'
tp62
F1
s(S'DP'
S'DDP'
tp63
F1
s(S'PP'
p64
S'PADVNNP'
tp65
F1
s(g32
S'NNDP'
tp66
F1
s(g54
S'PAANNP'
tp67
F1
s(S'NP'
p68
S'NDDP'
tp69
F1
s(g29
S'CCDP'
tp70
F1
s(S'NP'
S'ADVNNDP'
tp71
F1
s(g22
S'NAP'
tp72
F1
s(S'NP'
p73
S'NMP'
tp74
F2
s(g73
S'NDP'
tp75
F5
s(g46
S'PVP'
tp76
F6
s(S'VP'
p77
S'VVP'
tp78
F2
s(S'DP'
S'DDVP'
tp79
F1
s(g46
S'PDP'
tp80
F9
s(S'VP'
p81
S'VAAPPP'
tp82
F1
s(g64
S'APNP'
tp83
F1
s(g49
S'DAVP'
tp84
F1
s(g32
S'NNADVPP'
tp85
F1
s(g34
S'CDPP'
tp86
F13
s(g4
S'ADVADVDNP'
tp87
F1
s(S'VP'
p88
S'VPP'
tp89
F5
s(S'AP'
S'ADVACP'
tp90
F2
s(S'NP'
S'NNVP'
tp91
F4
s(g11
S'PADVDP'
tp92
F1
s(S'NP'
S'NNCP'
tp93
F1
s(g9
S'VVPP'
tp94
F2
s(g24
S'CCDDP'
tp95
F1
s(g34
S'CDDPP'
tp96
F3
s(g46
S'PVVP'
tp97
F1
s(g9
S'ADVVCP'
tp98
F1
s(g88
S'VPPP'
tp99
F3
s(S'DP'
S'DADVNP'
tp100
F1
s(g26
S'VVPPP'
tp101
F1
s(S'DP'
p102
S'DAP'
tp103
F2
s(g29
S'CADPP'
tp104
F1
s(g9
S'VDP'
tp105
F9
s(g102
S'DVVP'
tp106
F1
s(g81
S'AVPP'
tp107
F1
s(S'VP'
S'ADVVPP'
tp108
F1
s(g88
S'VVVP'
tp109
F1
s(g40
S'DDNP'
tp110
F2
s(S'NP'
S'ANCP'
tp111
F2
s(S'NP'
S'ANNCP'
tp112
F1
s(g68
S'NCP'
tp113
F7
s(g40
S'ADPP'
tp114
F2
s(g4
S'DDDP'
tp115
F1
s(g15
S'PAP'
tp116
F3
s(g6
S'DPPPPP'
tp117
F1
s(S'NP'
S'ANVVP'
tp118
F1
s(g54
S'ADVPDP'
tp119
F1
s(g40
S'DNNP'
tp120
F5
s(S'AP'
S'ACP'
tp121
F1
s(g20
S'PPNP'
tp122
F2
s(g68
S'NNNVP'
tp123
F1
s(S'MP'
S'MADVVPP'
tp124
F1
s(g20
S'ADVAPVVP'
tp125
F1
s(g68
S'NNCCP'
tp126
F1
s(S'VP'
S'VNNP'
tp127
F1
s(S'AP'
S'ADP'
tp128
F3
s(g17
S'NADVDP'
tp129
F1
s(g17
S'ANVP'
tp130
F1
s(g4
S'DVP'
tp131
F5
s(S'NP'
S'ADVNPP'
tp132
F1
s(S'AP'
S'AVP'
tp133
F1
s(g17
S'NADVVP'
tp134
F1
s(g6
S'DDPPP'
tp135
F2
s(g17
S'NPP'
tp136
F6
s(g46
S'PPPPNP'
tp137
F1
s(g17
S'NVP'
tp138
F7
s(g77
S'VVADVADVDP'
tp139
F1
s(g36
S'PPPPVP'
tp140
F1
s(S'VP'
S'VNP'
tp141
F5
s(g88
S'VDDP'
tp142
F1
s(g36
S'PPDDP'
tp143
F1
s(S'VP'
S'VADVAP'
tp144
F1
s(g49
S'ADVDDP'
tp145
F1
s(g6
S'DPP'
tp146
F15
s(S'NP'
S'ADVNVP'
tp147
F1
s.