ccollections
defaultdict
p1
(c__builtin__
float
p2
tRp3
(S'VP'
S'VVAAAP'
tp4
F1
s(S'MP'
S'MADVVCCP'
tp5
F1
s(S'NP'
S'NNNVVVP'
tp6
F1
s(S'CP'
S'CAAADPP'
tp7
F3
s(S'DP'
S'DDMP'
tp8
F3
s(S'DP'
p9
S'ADDPP'
tp10
F2
s(S'DP'
S'DDAP'
tp11
F2
s(S'VP'
S'ADVVVNP'
tp12
F1
s(S'VP'
S'AAVCCP'
tp13
F1
s(S'AP'
S'AADDDP'
tp14
F1
s(S'VP'
S'VVVVP'
tp15
F1
s(S'DP'
p16
S'DAANNP'
tp17
F1
s(S'PP'
p18
S'PAPP'
tp19
F10
s(S'PP'
S'PADVNP'
tp20
F16
s(S'DP'
p21
S'DNP'
tp22
F350
s(S'NP'
S'ADVNDP'
tp23
F2
s(S'PP'
S'AAPDDP'
tp24
F1
s(S'NP'
S'NNNAAP'
tp25
F1
s(S'CP'
S'CDPPP'
tp26
F63
s(S'VP'
p27
S'VADP'
tp28
F15
s(S'DP'
S'DNNNNP'
tp29
F1
s(S'CP'
S'CDAAPPP'
tp30
F2
s(S'MP'
S'MAVNP'
tp31
F1
s(S'PP'
S'PPAVP'
tp32
F3
s(S'PP'
p33
S'PPPPPP'
tp34
F1
s(S'DP'
S'ADVADVDAAPPP'
tp35
F1
s(S'VP'
S'VAVP'
tp36
F3
s(S'PP'
S'APPDP'
tp37
F2
s(S'CP'
S'CADVADVDPPP'
tp38
F1
s(S'VP'
S'ADVADVADVVVPP'
tp39
F1
s(S'DP'
S'DAADP'
tp40
F1
s(S'DP'
S'ADNNP'
tp41
F2
s(S'VP'
S'VAAAAANP'
tp42
F1
s(S'VP'
S'ADVVNP'
tp43
F15
s(S'CP'
S'AACADVDP'
tp44
F1
s(S'MP'
S'MVDP'
tp45
F22
s(S'PP'
S'PADVANP'
tp46
F3
s(S'NP'
S'AANNPP'
tp47
F2
s(S'PP'
p48
S'PPPP'
tp49
F34
s(S'VP'
S'VVVVDDP'
tp50
F1
s(S'AP'
S'ADVAPPP'
tp51
F1
s(S'DP'
p52
S'DDDNP'
tp53
F4
s(S'PP'
S'PAAANP'
tp54
F1
s(S'VP'
S'VACP'
tp55
F5
s(S'VP'
S'ADVVPPP'
tp56
F1
s(S'DP'
S'DADVVP'
tp57
F6
s(S'VP'
S'ADVVVANP'
tp58
F1
s(S'PP'
S'PADVNNP'
tp59
F1
s(S'NP'
S'NADVACP'
tp60
F2
s(S'NP'
S'NDDDP'
tp61
F1
s(S'NP'
p62
S'NCCCP'
tp63
F5
s(S'CP'
S'CADVADVDDPP'
tp64
F1
s(S'VP'
p65
S'VCP'
tp66
F95
s(S'MP'
S'MVVANP'
tp67
F1
s(S'NP'
p68
S'ADVNNP'
tp69
F1
s(S'NP'
p70
S'NMMP'
tp71
F9
s(S'VP'
p72
S'VVAANNP'
tp73
F3
s(S'VP'
S'ADVVAAP'
tp74
F2
s(S'DP'
S'ADADVADVPPP'
tp75
F1
s(S'VP'
p76
S'VVVVDP'
tp77
F2
s(S'PP'
p78
S'PAP'
tp79
F110
s(S'PP'
S'PPANNP'
tp80
F2
s(S'MP'
S'MMVVP'
tp81
F1
s(S'DP'
S'DDADVADVPP'
tp82
F2
s(S'AP'
p83
S'ADVAADVVP'
tp84
F1
s(S'PP'
p85
S'ADVPPVP'
tp86
F1
s(S'NP'
p87
S'ADVADVADVADVNMP'
tp88
F1
s(S'NP'
S'NNNAP'
tp89
F1
s(S'PP'
p90
S'APVVP'
tp91
F3
s(S'VP'
p92
S'ADVVCCP'
tp93
F1
s(S'NP'
p94
S'NAAAVP'
tp95
F1
s(S'PP'
S'PPADVDP'
tp96
F2
s(S'VP'
S'AAVNNP'
tp97
F1
s(S'PP'
p98
S'PNP'
tp99
F371
s(S'AP'
S'AADVADVDP'
tp100
F2
s(S'PP'
p101
S'PAAADP'
tp102
F2
s(S'NP'
S'ADVADVADVNCP'
tp103
F1
s(S'VP'
p104
S'AVNNNP'
tp105
F1
s(S'PP'
p106
S'PCP'
tp107
F11
s(S'DP'
p108
S'DDP'
tp109
F49
s(S'VP'
S'AAVVVP'
tp110
F1
s(S'NP'
S'NNNPP'
tp111
F9
s(S'VP'
S'VCCP'
tp112
F15
s(S'MP'
S'MCDP'
tp113
F3
s(S'PP'
S'ADVPCP'
tp114
F1
s(S'DP'
S'DDAANP'
tp115
F2
s(S'PP'
S'PPPAAAAAVP'
tp116
F1
s(S'AP'
S'ADVADVAVVP'
tp117
F1
s(S'NP'
p118
S'NMP'
tp119
F109
s(S'PP'
S'PPMMP'
tp120
F1
s(S'CP'
S'CADVDADVPP'
tp121
F1
s(S'VP'
S'VAAADP'
tp122
F1
s(S'NP'
S'AAAAANVP'
tp123
F1
s(S'VP'
S'AAVNP'
tp124
F4
s(g98
S'PDP'
tp125
F322
s(S'DP'
p126
S'DDPPPPP'
tp127
F3
s(S'CP'
S'CCADVADVDP'
tp128
F1
s(S'CP'
S'CDAAPP'
tp129
F6
s(S'NP'
p130
S'ADVNVVP'
tp131
F1
s(S'VP'
S'VNNNNP'
tp132
F2
s(S'NP'
p133
S'AANADVAP'
tp134
F1
s(S'DP'
S'DADVADVVP'
tp135
F1
s(g92
S'AVAAP'
tp136
F1
s(S'DP'
S'DVVVP'
tp137
F9
s(S'AP'
S'ANP'
tp138
F3
s(S'NP'
S'NADVADVADVVP'
tp139
F1
s(g78
S'PADVPP'
tp140
F3
s(g130
S'NNADVCP'
tp141
F1
s(S'VP'
S'VVADVNP'
tp142
F2
s(S'NP'
S'AANNADVVP'
tp143
F1
s(S'MP'
S'MMMVVP'
tp144
F1
s(S'DP'
S'DPPPP'
tp145
F11
s(S'DP'
S'DDANP'
tp146
F4
s(g62
S'NACP'
tp147
F23
s(S'NP'
S'NCCP'
tp148
F78
s(S'CP'
p149
S'CDDDDPPP'
tp150
F1
s(S'VP'
p151
S'VAAADVACCP'
tp152
F1
s(S'VP'
S'VVCCCP'
tp153
F1
s(S'CP'
S'CADVDDPP'
tp154
F1
s(S'NP'
S'NNCP'
tp155
F80
s(S'NP'
S'AANPPP'
tp156
F1
s(S'DP'
p157
S'DPPPPP'
tp158
F3
s(S'DP'
S'DDAPP'
tp159
F6
s(S'PP'
p160
S'PPAP'
tp161
F20
s(S'VP'
p162
S'AVNP'
tp163
F19
s(S'NP'
S'NNNNNCP'
tp164
F1
s(S'NP'
S'ADVNDDP'
tp165
F1
s(S'NP'
S'NADVADVPP'
tp166
F1
s(S'CP'
S'AAACDDP'
tp167
F1
s(S'PP'
S'ADVPVVP'
tp168
F2
s(S'CP'
S'CADVADVDAAPPP'
tp169
F1
s(S'NP'
S'AAANAAP'
tp170
F1
s(S'PP'
p171
S'ADVAPDP'
tp172
F4
s(S'VP'
S'VADVVP'
tp173
F2
s(S'NP'
S'ADVADVADVNMP'
tp174
F1
s(S'AP'
p175
S'AAAAP'
tp176
F1
s(S'MP'
S'ADVMPPP'
tp177
F1
s(S'DP'
S'DADVPPP'
tp178
F6
s(S'MP'
S'AMMVP'
tp179
F1
s(S'CP'
S'CCCDP'
tp180
F5
s(S'VP'
p181
S'ADVVAP'
tp182
F4
s(S'PP'
S'ADVPPNNP'
tp183
F2
s(S'VP'
p184
S'VCCCP'
tp185
F1
s(S'PP'
p186
S'PADVVVP'
tp187
F1
s(S'PP'
S'APDP'
tp188
F30
s(S'VP'
S'VADVNNP'
tp189
F1
s(S'MP'
S'MPPNP'
tp190
F1
s(S'VP'
S'ADVVNNP'
tp191
F2
s(S'AP'
S'AADVCP'
tp192
F1
s(S'DP'
S'DDANNP'
tp193
F1
s(S'PP'
p194
S'AAPPDP'
tp195
F1
s(S'VP'
S'VVANP'
tp196
F4
s(S'PP'
S'ADVPNNP'
tp197
F1
s(S'VP'
S'ADVVVP'
tp198
F1
s(S'MP'
S'MVAAAPP'
tp199
F1
s(S'NP'
S'NAAAAAP'
tp200
F1
s(S'NP'
S'ADVADVNNPP'
tp201
F1
s(S'CP'
S'CCCADP'
tp202
F1
s(S'MP'
S'MADVVNP'
tp203
F3
s(S'PP'
p204
S'PAAP'
tp205
F21
s(S'MP'
S'MPNNP'
tp206
F1
s(S'NP'
S'ADVADVANPPP'
tp207
F1
s(S'DP'
p208
S'DNNP'
tp209
F70
s(S'VP'
S'ADVVAANP'
tp210
F1
s(S'PP'
S'PADVAP'
tp211
F2
s(S'VP'
S'AAAVADVDP'
tp212
F1
s(S'VP'
p213
S'VVNNNP'
tp214
F1
s(S'VP'
S'AAVDDP'
tp215
F2
s(S'DP'
S'ADDNP'
tp216
F2
s(S'NP'
p217
S'NNNVP'
tp218
F17
s(g162
S'VDP'
tp219
F279
s(g213
S'VVANNP'
tp220
F3
s(S'PP'
S'ADVAPVVP'
tp221
F1
s(S'PP'
S'PPNNNNP'
tp222
F1
s(S'PP'
S'PADVVP'
tp223
F8
s(S'DP'
S'DACP'
tp224
F2
s(S'MP'
p225
S'MVVDDP'
tp226
F1
s(S'PP'
S'APAP'
tp227
F8
s(S'VP'
S'ADVADVVDDP'
tp228
F1
s(S'AP'
S'APP'
tp229
F62
s(S'AP'
p230
S'ACCCP'
tp231
F1
s(S'VP'
p232
S'ADVVAPP'
tp233
F1
s(S'CP'
S'CDDDADVPPP'
tp234
F1
s(S'NP'
S'NADVMP'
tp235
F6
s(g78
S'PPADP'
tp236
F1
s(S'CP'
S'CADVADPP'
tp237
F1
s(g94
S'ADVANPP'
tp238
F3
s(S'DP'
p239
S'DAAVP'
tp240
F2
s(S'CP'
S'CDDDDPP'
tp241
F2
s(S'PP'
S'AAPPNP'
tp242
F1
s(S'PP'
S'PAANP'
tp243
F23
s(g72
S'VVVANP'
tp244
F1
s(S'NP'
p245
S'ANVP'
tp246
F37
s(S'VP'
S'VAACP'
tp247
F3
s(S'DP'
S'ADVDDPP'
tp248
F2
s(S'MP'
S'MVNP'
tp249
F38
s(S'NP'
S'ANAAP'
tp250
F2
s(S'AP'
S'ADVAADP'
tp251
F3
s(S'DP'
S'ADVADNP'
tp252
F2
s(g98
S'PAVP'
tp253
F24
s(S'MP'
S'ADVMVP'
tp254
F7
s(S'NP'
p255
S'NNADVADVANP'
tp256
F1
s(S'VP'
S'VVVPP'
tp257
F1
s(S'NP'
p258
S'NNADP'
tp259
F1
s(S'AP'
S'ADVACCP'
tp260
F2
s(S'DP'
p261
S'DADP'
tp262
F2
s(S'AP'
S'ADVADP'
tp263
F8
s(S'NP'
S'NAMMP'
tp264
F1
s(S'DP'
S'ADVDDP'
tp265
F1
s(S'NP'
S'ADVNAP'
tp266
F1
s(g48
S'PPCP'
tp267
F1
s(S'NP'
S'AANADVVVP'
tp268
F1
s(g18
S'APVP'
tp269
F19
s(S'MP'
S'MNCP'
tp270
F1
s(S'VP'
S'VVNP'
tp271
F68
s(g106
S'PPPNNP'
tp272
F3
s(S'PP'
S'PPVP'
tp273
F40
s(S'MP'
S'MPCP'
tp274
F1
s(S'VP'
S'VADVDP'
tp275
F5
s(S'NP'
S'ADVANNPP'
tp276
F1
s(S'CP'
S'AAACCDP'
tp277
F1
s(S'VP'
p278
S'VAAP'
tp279
F19
s(g87
S'NNADVAVP'
tp280
F1
s(S'NP'
S'ANDP'
tp281
F12
s(S'NP'
p282
S'NVVP'
tp283
F82
s(S'PP'
p284
S'AAPVP'
tp285
F4
s(S'AP'
p286
S'AAP'
tp287
F10
s(S'VP'
S'VMP'
tp288
F12
s(S'VP'
p289
S'VVNNP'
tp290
F10
s(S'CP'
S'CDAPP'
tp291
F41
s(S'CP'
S'CDDAAPP'
tp292
F2
s(S'DP'
S'ADNP'
tp293
F20
s(S'AP'
S'AAAAADP'
tp294
F2
s(S'PP'
S'PPPPAP'
tp295
F1
s(S'PP'
S'PADP'
tp296
F12
s(S'DP'
S'DDAAAPP'
tp297
F1
s(S'DP'
S'DDDPPPP'
tp298
F2
s(S'NP'
S'NADVADVADVVVP'
tp299
F1
s(S'NP'
S'ANDDP'
tp300
F2
s(S'DP'
S'ADVADVDVP'
tp301
F2
s(S'VP'
S'VVVDDP'
tp302
F2
s(S'DP'
S'DAPP'
tp303
F61
s(S'VP'
S'AVVP'
tp304
F4
s(S'VP'
S'ADVADVVPP'
tp305
F3
s(S'VP'
S'VADVADVNP'
tp306
F1
s(S'VP'
S'ADVADVADVVDP'
tp307
F1
s(S'NP'
S'ADVADVNNDP'
tp308
F1
s(S'VP'
S'ADVADVVDP'
tp309
F1
s(g162
S'AVVNP'
tp310
F1
s(S'PP'
S'PPPDP'
tp311
F2
s(S'DP'
S'DAAPPP'
tp312
F3
s(S'MP'
S'MVVVDP'
tp313
F1
s(S'PP'
S'AAAPDP'
tp314
F6
s(S'AP'
S'AAPPP'
tp315
F1
s(S'NP'
p316
S'NNNCCCP'
tp317
F1
s(S'VP'
S'VDDDDP'
tp318
F1
s(S'DP'
S'DAAANP'
tp319
F4
s(S'CP'
S'CCAAAADP'
tp320
F1
s(S'VP'
S'VVAAP'
tp321
F1
s(g151
S'VAAPP'
tp322
F3
s(S'DP'
S'ADVDNP'
tp323
F6
s(S'PP'
p324
S'PPPPANP'
tp325
F1
s(S'VP'
p326
S'VVPP'
tp327
F34
s(S'CP'
S'CCADDP'
tp328
F1
s(S'MP'
p329
S'MNNADVVP'
tp330
F1
s(S'CP'
S'AACDDP'
tp331
F1
s(S'MP'
S'MVPP'
tp332
F19
s(S'DP'
S'ADVP'
tp333
F13
s(S'DP'
p334
S'DDAAPP'
tp335
F2
s(S'NP'
S'AANCCP'
tp336
F5
s(S'NP'
S'NADVADVDP'
tp337
F1
s(S'NP'
S'AAANDP'
tp338
F2
s(S'MP'
S'MVVDP'
tp339
F6
s(S'AP'
S'AACP'
tp340
F10
s(S'DP'
S'DDDAAANNP'
tp341
F1
s(S'DP'
S'DNNNP'
tp342
F11
s(S'AP'
S'AADVAAP'
tp343
F1
s(S'DP'
S'ADVDADVPP'
tp344
F1
s(S'MP'
S'MVADVCP'
tp345
F1
s(S'MP'
S'MPPDP'
tp346
F1
s(S'PP'
S'PADVADVVP'
tp347
F2
s(S'VP'
S'ADVVCP'
tp348
F7
s(S'PP'
S'PVVVP'
tp349
F5
s(S'PP'
S'PMP'
tp350
F17
s(S'NP'
S'NNMMP'
tp351
F2
s(S'CP'
S'CCDP'
tp352
F101
s(S'MP'
S'AMVP'
tp353
F8
s(S'PP'
p354
S'PPNNNP'
tp355
F2
s(S'DP'
S'AADDPP'
tp356
F4
s(S'VP'
S'ADVAVVP'
tp357
F1
s(g62
S'NVVVP'
tp358
F8
s(S'CP'
S'CDDDPP'
tp359
F4
s(g354
S'PADVADVADVADVNP'
tp360
F1
s(S'PP'
S'PPADVVP'
tp361
F2
s(g181
S'VVVDP'
tp362
F10
s(S'NP'
p363
S'NACCP'
tp364
F1
s(g284
S'PNNNP'
tp365
F15
s(S'CP'
S'CCCCDP'
tp366
F2
s(S'NP'
p367
S'ANMMP'
tp368
F1
s(S'DP'
p369
S'DAAAAANP'
tp370
F1
s(S'AP'
S'AACCP'
tp371
F2
s(S'PP'
p372
S'AAPNP'
tp373
F6
s(S'MP'
S'ADVMAAVP'
tp374
F1
s(S'VP'
S'ADVVVDP'
tp375
F3
s(g98
S'PPP'
tp376
F133
s(S'NP'
p377
S'NAVP'
tp378
F27
s(g21
S'ADVADVDDNP'
tp379
F1
s(S'DP'
S'DDNNNP'
tp380
F3
s(S'MP'
S'AMDP'
tp381
F1
s(S'PP'
p382
S'APMP'
tp383
F1
s(S'NP'
p384
S'NNAAAAAP'
tp385
F1
s(S'PP'
S'PADDP'
tp386
F1
s(g208
S'ADVDVP'
tp387
F8
s(S'NP'
p388
S'NAAAP'
tp389
F1
s(S'NP'
S'NADVVVP'
tp390
F5
s(S'AP'
S'AADVVP'
tp391
F1
s(S'PP'
S'PPPPDP'
tp392
F1
s(S'MP'
S'MADVADVVPP'
tp393
F1
s(S'DP'
p394
S'ADVADVDNP'
tp395
F1
s(S'VP'
p396
S'VPP'
tp397
F181
s(S'CP'
S'ADVCCDP'
tp398
F4
s(S'CP'
S'CDDDPPPP'
tp399
F1
s(S'CP'
S'ACCDP'
tp400
F2
s(S'DP'
p401
S'ADVDDNP'
tp402
F1
s(S'NP'
S'NNNCP'
tp403
F13
s(g101
S'PADVDP'
tp404
F6
s(S'CP'
S'CDADVAPP'
tp405
F2
s(S'VP'
S'VVVAANP'
tp406
F1
s(S'MP'
S'MVAACP'
tp407
F1
s(S'DP'
p408
S'DANNP'
tp409
F3
s(S'MP'
S'MADVVAP'
tp410
F1
s(S'CP'
p411
S'CDDPP'
tp412
F79
s(S'DP'
S'DAAPP'
tp413
F11
s(S'PP'
p414
S'PVVP'
tp415
F37
s(S'CP'
S'CADPPP'
tp416
F6
s(S'VP'
S'VVVPPP'
tp417
F1
s(S'MP'
S'MAVCP'
tp418
F2
s(S'PP'
S'PMMP'
tp419
F2
s(S'PP'
S'ADVPPAP'
tp420
F1
s(g65
S'VPPP'
tp421
F19
s(S'VP'
S'AVCCP'
tp422
F1
s(S'MP'
S'MADVVAANNP'
tp423
F1
s(g171
S'PPADVADVDP'
tp424
F1
s(S'CP'
S'CDADVADVAPP'
tp425
F1
s(S'VP'
S'VVPPP'
tp426
F4
s(S'VP'
S'VAAAANNP'
tp427
F1
s(S'NP'
S'ADVNAMP'
tp428
F1
s(S'MP'
p429
S'MVPPP'
tp430
F1
s(g408
S'DVVP'
tp431
F38
s(S'VP'
p432
S'VVVADVAP'
tp433
F1
s(S'NP'
S'NNNNDP'
tp434
F1
s(S'DP'
S'DDDADVPPP'
tp435
F1
s(S'NP'
S'ANMP'
tp436
F5
s(S'AP'
S'APPP'
tp437
F4
s(S'NP'
S'NNNNMP'
tp438
F1
s(S'NP'
S'ADVADVNVP'
tp439
F1
s(S'VP'
S'VVVP'
tp440
F10
s(S'CP'
S'CADVDPP'
tp441
F21
s(S'NP'
p442
S'ADVANADVCP'
tp443
F1
s(S'NP'
p444
S'ANCP'
tp445
F48
s(S'DP'
S'ADVADVDCP'
tp446
F1
s(g324
S'PPVVP'
tp447
F1
s(S'DP'
p448
S'DCP'
tp449
F14
s(S'VP'
S'VAAACP'
tp450
F2
s(g258
S'NNDDDDP'
tp451
F1
s(S'NP'
p452
S'AAANCP'
tp453
F2
s(S'DP'
S'DAAVVP'
tp454
F3
s(S'NP'
S'NNVVVVP'
tp455
F1
s(S'DP'
S'DDDP'
tp456
F16
s(g9
S'DDADVPP'
tp457
F9
s(S'MP'
S'MAADP'
tp458
F1
s(S'NP'
S'ANVVP'
tp459
F8
s(S'VP'
p460
S'VVDP'
tp461
F47
s(g245
S'NPPP'
tp462
F40
s(S'VP'
S'ADVVNNNP'
tp463
F1
s(S'DP'
S'DAVP'
tp464
F20
s(S'VP'
S'AVVVP'
tp465
F2
s(S'NP'
p466
S'NNNMP'
tp467
F4
s(g33
S'ADVPPP'
tp468
F4
s(S'AP'
S'ACP'
tp469
F48
s(S'PP'
p470
S'ADVADVPPP'
tp471
F2
s(g78
S'PPNP'
tp472
F81
s(S'MP'
S'MVADVADVNP'
tp473
F1
s(S'NP'
p474
S'NNNNCCP'
tp475
F1
s(S'VP'
S'VVVVNNP'
tp476
F1
s(S'VP'
S'VAANNP'
tp477
F1
s(S'AP'
S'ADVAAVP'
tp478
F1
s(S'CP'
S'CDDADVPP'
tp479
F5
s(S'CP'
p480
S'CCCDDP'
tp481
F3
s(S'AP'
S'ADP'
tp482
F218
s(S'CP'
S'CADVDDPPP'
tp483
F1
s(S'DP'
S'DDAVP'
tp484
F2
s(S'NP'
p485
S'ANPPP'
tp486
F4
s(S'NP'
S'AAAANNCP'
tp487
F1
s(S'NP'
S'AAANNCP'
tp488
F5
s(S'PP'
S'ADVAPPDP'
tp489
F1
s(S'VP'
S'VAAANP'
tp490
F3
s(S'DP'
S'DVVVVP'
tp491
F2
s(S'MP'
S'MPDP'
tp492
F2
s(S'NP'
S'NADVADVAP'
tp493
F2
s(S'NP'
S'ADVADVADVANPP'
tp494
F1
s(S'PP'
S'ADVADVPPADVPP'
tp495
F1
s(S'VP'
S'AVDP'
tp496
F23
s(S'NP'
S'ANNVP'
tp497
F4
s(g326
S'VVAP'
tp498
F17
s(S'NP'
S'NNAPP'
tp499
F1
s(S'PP'
S'ADVPPADVNP'
tp500
F2
s(g175
S'AAAADVDP'
tp501
F1
s(S'CP'
S'ADVACDP'
tp502
F2
s(S'VP'
S'VAAAPP'
tp503
F3
s(S'CP'
S'CADPPPP'
tp504
F1
s(S'NP'
p505
S'NNADVCCP'
tp506
F2
s(S'NP'
S'NPP'
tp507
F323
s(S'PP'
S'PPPPNP'
tp508
F1
s(S'NP'
p509
S'NVP'
tp510
F314
s(g452
S'NNDDDP'
tp511
F1
s(g372
S'PAAVP'
tp512
F6
s(S'VP'
S'VVVVAANP'
tp513
F1
s(S'NP'
p514
S'NAAPP'
tp515
F2
s(S'PP'
S'PPPPVP'
tp516
F2
s(S'DP'
p517
S'DDDDNNP'
tp518
F1
s(S'VP'
S'VDDP'
tp519
F48
s(S'MP'
S'MADVADVVADVADVADVANP'
tp520
F1
s(S'DP'
S'DADVADVPP'
tp521
F1
s(S'NP'
S'AANVVP'
tp522
F5
s(S'DP'
p523
S'DADVAPP'
tp524
F4
s(g282
S'ANPP'
tp525
F65
s(S'PP'
S'ADVPPDP'
tp526
F1
s(S'PP'
S'PPPPP'
tp527
F5
s(g514
S'NNNNADVVP'
tp528
F1
s(S'MP'
S'MVVPP'
tp529
F1
s(S'PP'
S'PPPNP'
tp530
F9
s(S'DP'
S'DDDDDP'
tp531
F2
s(S'AP'
S'AADVAP'
tp532
F1
s(S'NP'
S'NPPPP'
tp533
F2
s(g108
S'ADDP'
tp534
F3
s(g70
S'NADVAAP'
tp535
F3
s(S'DP'
p536
S'ADACCP'
tp537
F1
s(S'CP'
S'CAADPP'
tp538
F7
s(S'DP'
S'DDADVADVPPP'
tp539
F1
s(g62
S'NAACP'
tp540
F7
s(S'PP'
S'PNNP'
tp541
F87
s(S'PP'
S'APNNP'
tp542
F2
s(S'DP'
S'DAAANNP'
tp543
F1
s(g52
S'DDAAP'
tp544
F1
s(S'MP'
S'MMNP'
tp545
F3
s(S'PP'
S'AAPCP'
tp546
F1
s(S'DP'
S'AAADPP'
tp547
F4
s(g396
S'AVAP'
tp548
F6
s(S'MP'
p549
S'MMVP'
tp550
F12
s(S'PP'
S'PADVDDP'
tp551
F2
s(S'NP'
p552
S'ADVNCP'
tp553
F12
s(S'DP'
S'ADPP'
tp554
F52
s(S'MP'
S'MPDDP'
tp555
F1
s(S'VP'
p556
S'VAPPP'
tp557
F1
s(g480
S'ACDP'
tp558
F29
s(S'NP'
S'NNDP'
tp559
F26
s(S'DP'
S'ADVADVDVVVP'
tp560
F1
s(S'AP'
S'ADVANP'
tp561
F2
s(g316
S'NNACP'
tp562
F3
s(S'CP'
S'CDADVPPP'
tp563
F4
s(g556
S'VAP'
tp564
F145
s(S'CP'
S'AAADVACCDP'
tp565
F1
s(S'MP'
S'MNVVP'
tp566
F1
s(S'DP'
S'DDDPP'
tp567
F12
s(g388
S'AANNCP'
tp568
F3
s(S'NP'
S'NNNNAAVP'
tp569
F1
s(S'DP'
S'DAACP'
tp570
F1
s(g284
S'PAAPP'
tp571
F2
s(S'AP'
p572
S'AAVVP'
tp573
F2
s(S'DP'
S'DDDPPP'
tp574
F1
s(S'VP'
p575
S'ADVAVDP'
tp576
F2
s(g52
S'DADVDP'
tp577
F1
s(S'NP'
S'ADVANPPP'
tp578
F1
s(S'CP'
S'CCADVADP'
tp579
F1
s(S'PP'
S'PPADVADP'
tp580
F1
s(S'PP'
S'APADVADVADVNP'
tp581
F1
s(S'AP'
S'AVVP'
tp582
F10
s(S'PP'
S'PPPVP'
tp583
F3
s(g230
S'AADDP'
tp584
F9
s(S'DP'
S'DDAAAAP'
tp585
F1
s(S'NP'
S'ANNVVP'
tp586
F1
s(S'VP'
S'VAANP'
tp587
F12
s(g485
S'NADVADVCP'
tp588
F1
s(S'CP'
S'CCAAADP'
tp589
F1
s(S'DP'
S'AAADDP'
tp590
F1
s(S'NP'
S'NVVVVP'
tp591
F3
s(S'PP'
S'PAAAAP'
tp592
F1
s(S'MP'
S'MPNP'
tp593
F1
s(g429
S'MADP'
tp594
F7
s(S'PP'
S'PPPDDP'
tp595
F2
s(g92
S'AAVVNP'
tp596
F1
s(S'CP'
S'CCAADP'
tp597
F2
s(S'DP'
S'DDADVNP'
tp598
F2
s(g414
S'PANP'
tp599
F65
s(S'PP'
S'PDDDP'
tp600
F2
s(S'DP'
S'DADVADVNNP'
tp601
F2
s(g536
S'DDMMMP'
tp602
F1
s(S'NP'
S'AANMP'
tp603
F3
s(S'AP'
S'AAVP'
tp604
F5
s(S'NP'
S'NAAP'
tp605
F13
s(S'VP'
S'VADVADVAP'
tp606
F3
s(g217
S'NDDP'
tp607
F20
s(S'PP'
p608
S'APPDDP'
tp609
F1
s(g149
S'ADVADVCDP'
tp610
F1
s(g549
S'MAVNNNP'
tp611
F1
s(S'DP'
S'ADVADVDPPP'
tp612
F1
s(S'AP'
S'ACCP'
tp613
F5
s(S'VP'
S'VVVVAP'
tp614
F1
s(S'VP'
S'AVPPP'
tp615
F1
s(g83
S'APPPP'
tp616
F2
s(g62
S'NDP'
tp617
F140
s(S'PP'
S'PADVADVADVNP'
tp618
F1
s(S'NP'
S'AAANVP'
tp619
F3
s(S'MP'
S'MVAAP'
tp620
F4
s(g208
S'DDVP'
tp621
F42
s(S'NP'
p622
S'AANVP'
tp623
F15
s(S'NP'
S'ADVNCCP'
tp624
F1
s(g369
S'DADVADVAPP'
tp625
F2
s(S'VP'
S'AAVVPP'
tp626
F1
s(S'VP'
S'VNNNP'
tp627
F5
s(g232
S'VADVADVPP'
tp628
F2
s(S'PP'
S'ADVPAP'
tp629
F2
s(S'NP'
S'NNNNVVP'
tp630
F1
s(g101
S'APPNP'
tp631
F4
s(g245
S'NNPPP'
tp632
F11
s(g160
S'PAADP'
tp633
F5
s(g329
S'MDNP'
tp634
F2
s(S'VP'
S'VPPPP'
tp635
F3
s(g118
S'ANNPP'
tp636
F7
s(S'MP'
S'MAVNNP'
tp637
F1
s(S'NP'
S'NNNDP'
tp638
F5
s(g83
S'ADVACP'
tp639
F3
s(S'PP'
S'AAPNNP'
tp640
F1
s(S'DP'
S'ADVDDPPP'
tp641
F1
s(g608
S'PAPPP'
tp642
F1
s(S'DP'
S'ADPPP'
tp643
F8
s(S'NP'
S'NNAAVP'
tp644
F1
s(S'MP'
S'MVCP'
tp645
F4
s(S'CP'
S'CCDDP'
tp646
F18
s(g87
S'NNADVVP'
tp647
F5
s(S'NP'
S'AANNDP'
tp648
F1
s(S'DP'
S'AAADNP'
tp649
F1
s(g76
S'VAMP'
tp650
F3
s(S'PP'
S'PPAAP'
tp651
F5
s(S'VP'
S'ADVADVVADVADVADVANP'
tp652
F1
s(S'NP'
S'NNNNVP'
tp653
F4
s(S'VP'
S'VVCP'
tp654
F21
s(S'VP'
S'AAADVVAANP'
tp655
F1
s(S'NP'
S'AANCP'
tp656
F19
s(S'VP'
S'VADVNP'
tp657
F10
s(S'VP'
S'VVDDDP'
tp658
F2
s(g85
S'PADVPPP'
tp659
F1
s(g204
S'APPP'
tp660
F13
s(S'DP'
S'DDDDPPP'
tp661
F2
s(g278
S'ADVVPP'
tp662
F11
s(S'VP'
S'ADVVVPPP'
tp663
F1
s(S'DP'
S'DDDNNNNNNP'
tp664
F1
s(S'CP'
S'CDAPPP'
tp665
F1
s(g556
S'VNNP'
tp666
F60
s(g286
S'AADVDP'
tp667
F6
s(S'NP'
S'NADP'
tp668
F5
s(S'MP'
S'MMCP'
tp669
F1
s(g208
S'DDNP'
tp670
F63
s(g377
S'NADVCP'
tp671
F4
s(S'DP'
S'DDNNP'
tp672
F16
s(S'DP'
S'ADDVP'
tp673
F1
s(S'PP'
S'AAPPP'
tp674
F3
s(S'NP'
S'NADVAPPP'
tp675
F1
s(S'NP'
S'ADVANVP'
tp676
F3
s(g470
S'APCP'
tp677
F1
s(S'NP'
S'NAAACCP'
tp678
F1
s(S'NP'
S'ADVADVNCP'
tp679
F1
s(S'AP'
S'AAAACP'
tp680
F1
s(S'DP'
S'AADPP'
tp681
F10
s(S'VP'
S'VVVAAP'
tp682
F1
s(S'NP'
p683
S'NNNNPP'
tp684
F2
s(S'NP'
S'ADVADVNPP'
tp685
F1
s(S'AP'
S'AAMMP'
tp686
F1
s(S'AP'
S'AADVADVVP'
tp687
F1
s(S'CP'
S'CDPPPPP'
tp688
F2
s(S'NP'
p689
S'ANVVVP'
tp690
F1
s(S'DP'
S'DDAAAVP'
tp691
F1
s(g549
S'MADVVDP'
tp692
F2
s(S'MP'
S'MVVNP'
tp693
F7
s(g517
S'ADVDNNP'
tp694
F1
s(S'CP'
S'ACDDP'
tp695
F5
s(S'NP'
S'AANDP'
tp696
F1
s(S'MP'
S'MVDDDDP'
tp697
F1
s(S'AP'
S'AAPP'
tp698
F10
s(S'AP'
S'ADVADVACCP'
tp699
F1
s(S'VP'
S'VVCCP'
tp700
F1
s(S'DP'
S'DMMP'
tp701
F1
s(S'AP'
S'AADVAMP'
tp702
F1
s(S'DP'
S'DADVVVP'
tp703
F2
s(S'DP'
S'DAAAPP'
tp704
F2
s(S'NP'
S'AAAAANPP'
tp705
F1
s(S'VP'
S'VADVADP'
tp706
F2
s(S'NP'
S'AAANNCCP'
tp707
F1
s(g62
S'NAPP'
tp708
F23
s(S'NP'
S'NADVDP'
tp709
F2
s(g194
S'ADVPPPP'
tp710
F1
s(g377
S'ANCCP'
tp711
F9
s(S'NP'
S'AANPP'
tp712
F14
s(g384
S'NNCCP'
tp713
F16
s(S'NP'
S'NNMP'
tp714
F9
s(S'DP'
S'DDDVP'
tp715
F3
s(S'VP'
S'AAVPP'
tp716
F3
s(S'PP'
S'ADVADVPNNP'
tp717
F1
s(g689
S'AAAANCP'
tp718
F1
s(S'PP'
S'ADVADVPAAAADP'
tp719
F1
s(S'CP'
S'CDDAPP'
tp720
F4
s(S'NP'
S'ANAP'
tp721
F7
s(S'MP'
S'MVAP'
tp722
F13
s(g396
S'VADVADVDDP'
tp723
F2
s(g78
S'PVP'
tp724
F236
s(g432
S'VADVPPP'
tp725
F1
s(S'DP'
p726
S'DADVAVP'
tp727
F1
s(S'MP'
S'MNAPP'
tp728
F1
s(S'AP'
S'ADVADVAPP'
tp729
F1
s(g572
S'AAVVVP'
tp730
F1
s(S'NP'
S'ADVNAVP'
tp731
F1
s(S'NP'
S'ANNCP'
tp732
F6
s(S'PP'
S'PPADVPP'
tp733
F1
s(S'NP'
S'ADVNNAP'
tp734
F1
s(g255
S'ADVADVANVP'
tp735
F1
s(S'NP'
S'ADVAAANPP'
tp736
F1
s(g354
S'PPDDP'
tp737
F8
s(S'VP'
S'AVCP'
tp738
F6
s(g239
S'DDVVVP'
tp739
F2
s(g62
S'NAVVP'
tp740
F1
s(S'NP'
p741
S'NAPPP'
tp742
F2
s(g21
S'DPP'
tp743
F413
s(g377
S'ADVNVP'
tp744
F15
s(g21
S'DDPP'
tp745
F116
s(S'DP'
p746
S'DDADVPPP'
tp747
F1
s(S'DP'
S'DANP'
tp748
F74
s(g133
S'NADVPP'
tp749
F5
s(S'PP'
S'ADVADVAPAP'
tp750
F2
s(S'PP'
S'ADVADVPPNP'
tp751
F1
s(S'VP'
S'VVVADVDP'
tp752
F1
s(g474
S'NADVADP'
tp753
F1
s(S'PP'
S'AAPPVP'
tp754
F1
s(S'NP'
S'AANADVVP'
tp755
F1
s(S'NP'
S'NAAVP'
tp756
F4
s(S'VP'
S'VADDP'
tp757
F1
s(S'NP'
S'NNACCP'
tp758
F1
s(g108
S'AADNP'
tp759
F9
s(S'VP'
S'VADVCP'
tp760
F4
s(S'PP'
p761
S'APAAP'
tp762
F1
s(S'NP'
S'NNNNAP'
tp763
F1
s(S'NP'
S'NNNNCP'
tp764
F3
s(S'NP'
S'NADVCCP'
tp765
F2
s(S'PP'
S'AAPPVVP'
tp766
F1
s(g442
S'NNAACP'
tp767
F2
s(S'NP'
S'NNNVVP'
tp768
F5
s(g505
S'ADVNMMP'
tp769
F1
s(S'DP'
S'DCCP'
tp770
F1
s(g239
S'AADDP'
tp771
F1
s(S'DP'
S'AAAADPP'
tp772
F2
s(S'NP'
S'NNAANP'
tp773
F1
s(S'PP'
S'AAPDP'
tp774
F4
s(S'DP'
S'ADVADPP'
tp775
F4
s(S'VP'
S'VVVAP'
tp776
F1
s(g101
S'PDDP'
tp777
F58
s(S'PP'
S'APADVAP'
tp778
F1
s(S'MP'
S'MVDDP'
tp779
F1
s(S'AP'
S'AAAADP'
tp780
F1
s(S'PP'
S'ADVAPNP'
tp781
F3
s(S'NP'
p782
S'NAAADVVP'
tp783
F1
s(g282
S'NNVP'
tp784
F88
s(S'NP'
S'ADVNNCP'
tp785
F1
s(S'AP'
S'AADVADVCP'
tp786
F1
s(S'AP'
S'ADVADVACP'
tp787
F2
s(g622
S'NNP'
tp788
F2
s(g27
S'VVDDP'
tp789
F8
s(g523
S'DAANP'
tp790
F18
s(S'MP'
S'MADDP'
tp791
F1
s(S'AP'
S'ADDP'
tp792
F29
s(S'NP'
S'AAAANNAP'
tp793
F1
s(g65
S'ADVVVAP'
tp794
F1
s(g204
S'ADVPPNP'
tp795
F3
s(S'CP'
S'CADVADVDPP'
tp796
F2
s(g108
S'DPPP'
tp797
F107
s(S'DP'
S'AADPPP'
tp798
F3
s(S'VP'
p799
S'VANNP'
tp800
F2
s(g367
S'NNAVP'
tp801
F1
s(S'NP'
S'NNAAPP'
tp802
F1
s(S'NP'
S'NMMMP'
tp803
F2
s(S'NP'
S'ANADVMP'
tp804
F1
s(S'CP'
S'ADVADVCDDP'
tp805
F1
s(g372
S'ADVPNP'
tp806
F14
s(g78
S'PPDP'
tp807
F48
s(S'MP'
S'MAVDP'
tp808
F4
s(S'CP'
S'CCDDDDDP'
tp809
F1
s(S'PP'
S'PPAAAANP'
tp810
F1
s(g16
S'DDPPPP'
tp811
F1
s(S'DP'
S'DDADVANP'
tp812
F1
s(S'NP'
S'AAANMP'
tp813
F1
s(S'DP'
S'DDCP'
tp814
F4
s(S'NP'
S'ANADVADVVP'
tp815
F1
s(S'VP'
S'VVADP'
tp816
F4
s(g90
S'PAANNP'
tp817
F2
s(S'AP'
S'AAAPP'
tp818
F1
s(S'VP'
S'ADVVDDP'
tp819
F2
s(g225
S'MNCCP'
tp820
F1
s(g552
S'NAP'
tp821
F81
s(S'VP'
S'VAAAP'
tp822
F3
s(g70
S'NAAAPP'
tp823
F1
s(S'VP'
S'VADVANP'
tp824
F5
s(S'AP'
S'AACCCCP'
tp825
F1
s(g65
S'VVP'
tp826
F43
s(S'NP'
p827
S'NNVVP'
tp828
F10
s(S'PP'
S'ADVADVPVP'
tp829
F1
s(S'AP'
S'AAADP'
tp830
F4
s(g78
S'APNP'
tp831
F27
s(g289
S'VVVNNP'
tp832
F1
s(g394
S'DDVVP'
tp833
F4
s(g162
S'VVVNP'
tp834
F10
s(S'MP'
S'MNPP'
tp835
F1
s(g367
S'NAMP'
tp836
F5
s(S'MP'
S'MVANP'
tp837
F5
s(S'DP'
S'ADVADVDDPP'
tp838
F2
s(S'MP'
S'MVNNP'
tp839
F4
s(g411
S'CDPP'
tp840
F348
s(S'AP'
S'ADDDP'
tp841
F2
s(S'VP'
S'VVAANP'
tp842
F3
s(S'MP'
S'MMMVP'
tp843
F2
s(S'PP'
S'APNNNP'
tp844
F1
s(S'CP'
S'ADVCDP'
tp845
F11
s(S'PP'
p846
S'AAPVVP'
tp847
F2
s(S'VP'
S'ADVADVVNP'
tp848
F2
s(S'NP'
S'AAAANNPP'
tp849
F1
s(S'PP'
S'PADVADVDP'
tp850
F1
s(S'MP'
S'MANCCP'
tp851
F1
s(S'VP'
S'ADVADVVCP'
tp852
F1
s(g746
S'DDAAANNP'
tp853
F1
s(g160
S'PPNNP'
tp854
F18
s(S'PP'
S'ADVPAVP'
tp855
F1
s(g204
S'PPMP'
tp856
F3
s(S'CP'
S'CAADDPP'
tp857
F4
s(g157
S'ADVADVDPP'
tp858
F3
s(g162
S'VAADP'
tp859
F5
s(S'MP'
S'MMADVADVVP'
tp860
F1
s(g466
S'NADVAP'
tp861
F5
s(S'MP'
S'ADVAMPP'
tp862
F1
s(g27
S'AVDDP'
tp863
F11
s(S'VP'
S'AAAAAVDDDP'
tp864
F1
s(S'DP'
S'DADVNP'
tp865
F8
s(g208
S'DAP'
tp866
F32
s(S'MP'
S'MCADP'
tp867
F1
s(S'CP'
S'CADPP'
tp868
F41
s(g741
S'NADVAVP'
tp869
F1
s(S'PP'
S'PADVMP'
tp870
F1
s(g126
S'DDDAAANP'
tp871
F1
s(g106
S'PPDDDP'
tp872
F1
s(S'VP'
S'AVPP'
tp873
F10
s(S'CP'
S'CAADPPP'
tp874
F2
s(S'DP'
S'DDNNNNP'
tp875
F2
s(S'MP'
S'AMVVP'
tp876
F1
s(S'CP'
S'CDADVADVPP'
tp877
F1
s(S'CP'
S'CDDPPPPP'
tp878
F2
s(S'CP'
S'CDPPPP'
tp879
F8
s(S'PP'
S'PPAADP'
tp880
F1
s(S'VP'
S'AAVDP'
tp881
F4
s(g401
S'AADNNP'
tp882
F1
s(S'PP'
S'PANNP'
tp883
F2
s(S'NP'
S'ADVANMP'
tp884
F1
s(S'PP'
S'ADVPAAANP'
tp885
F1
s(g683
S'NNDDP'
tp886
F3
s(S'DP'
S'ADPPPP'
tp887
F1
s(g261
S'DAPPP'
tp888
F3
s(S'AP'
S'AAADVDP'
tp889
F1
s(g334
S'DMP'
tp890
F5
s(S'CP'
S'ACCDDP'
tp891
F1
s(g448
S'ADVDPP'
tp892
F25
s(g68
S'NADVAPP'
tp893
F4
s(S'PP'
S'PPAANP'
tp894
F1
s(g827
S'AAANPP'
tp895
F1
s(S'PP'
S'PADVADVNP'
tp896
F3
s(g782
S'NNNP'
tp897
F1
s(S'AP'
p898
S'AADP'
tp899
F46
s(S'VP'
S'VADVPP'
tp900
F3
s(S'CP'
S'CDDPPP'
tp901
F12
s(S'DP'
p902
S'ADVDANP'
tp903
F1
s(S'PP'
S'ADVPVP'
tp904
F7
s(S'DP'
S'DDDDPP'
tp905
F4
s(S'NP'
S'ADVANCP'
tp906
F2
s(S'DP'
S'DAAP'
tp907
F3
s(S'NP'
S'NNVVVP'
tp908
F1
s(g184
S'ADVVANP'
tp909
F2
s(g186
S'PAMP'
tp910
F1
s(g761
S'ADVPDP'
tp911
F2
s(S'PP'
S'PPPVVP'
tp912
F1
s(S'PP'
S'PPDDDDP'
tp913
F2
s(g509
S'NCP'
tp914
F290
s(S'CP'
S'CADVDPPP'
tp915
F3
s(S'VP'
S'ADVVVPP'
tp916
F2
s(S'NP'
S'ADVANDP'
tp917
F1
s(g898
S'AAAP'
tp918
F3
s(S'CP'
S'CDDADVADVPP'
tp919
F2
s(S'AP'
S'AADVMP'
tp920
F1
s(g78
S'ADVPDDP'
tp921
F1
s(S'DP'
S'AAAADNP'
tp922
F1
s(g726
S'DDDDDPP'
tp923
F1
s(S'MP'
S'MVCCP'
tp924
F1
s(S'VP'
S'VDDDP'
tp925
F5
s(S'MP'
S'MNVP'
tp926
F5
s(S'PP'
S'APADVNP'
tp927
F1
s(S'NP'
S'AANAP'
tp928
F1
s(g552
S'NNPP'
tp929
F58
s(S'PP'
S'PCCP'
tp930
F1
s(S'VP'
S'VAPP'
tp931
F9
s(g363
S'NPPPPP'
tp932
F1
s(g104
S'ADVVDP'
tp933
F10
s(g846
S'PAACP'
tp934
F1
s(S'NP'
S'NNNNNNVP'
tp935
F1
s(g334
S'DADVPP'
tp936
F14
s(S'AP'
S'AMP'
tp937
F6
s(S'CP'
S'CCADP'
tp938
F7
s(S'NP'
S'ADVANVVVP'
tp939
F1
s(S'DP'
S'ADVDAP'
tp940
F1
s(S'PP'
p941
S'PPADDP'
tp942
F1
s(S'NP'
S'NNNPPP'
tp943
F1
s(S'AP'
S'ADVAPP'
tp944
F9
s(g108
S'ADVDAVP'
tp945
F1
s(g480
S'AACDP'
tp946
F12
s(g384
S'NNNCCP'
tp947
F4
s(S'CP'
S'CCDDDP'
tp948
F4
s(g902
S'ADVDPPP'
tp949
F5
s(g108
S'DVP'
tp950
F225
s(g575
S'AVNNP'
tp951
F5
s(S'NP'
S'ADVNPP'
tp952
F3
s(S'VP'
S'ADVADVADVVVNP'
tp953
F2
s(S'CP'
S'AAACDP'
tp954
F1
s(S'AP'
S'AVP'
tp955
F41
s(S'NP'
S'NADVVP'
tp956
F18
s(S'NP'
S'NNADVADVVP'
tp957
F1
s(S'CP'
S'CAAAADPP'
tp958
F1
s(S'DP'
S'DADVANNP'
tp959
F1
s(g108
S'DDPPP'
tp960
F24
s(g382
S'PCCCCP'
tp961
F1
s(g444
S'ADVNMP'
tp962
F2
s(S'NP'
S'NNAP'
tp963
F11
s(S'NP'
S'ADVADVNMP'
tp964
F1
s(S'MP'
S'MADVVCP'
tp965
F2
s(S'PP'
S'PPANP'
tp966
F3
s(S'VP'
S'AAAVNP'
tp967
F1
s(g941
S'PPCCP'
tp968
F1
s(S'CP'
S'CDADVPP'
tp969
F7
s(g162
S'VNP'
tp970
F274
s(g460
S'VANP'
tp971
F38
s(g799
S'VADVAP'
tp972
F12
s(S'MP'
S'MVACP'
tp973
F1
s(S'PP'
S'PPADVNP'
tp974
F1
s(g217
S'NADVPPP'
tp975
F1
s.