ccollections
defaultdict
p1
(c__builtin__
float
p2
tRp3
(S'VP'
p4
S'VVAAAP'
tp5
F1
s(S'CP'
S'CAAADPP'
tp6
F1
s(S'PP'
S'PAAANP'
tp7
F3
s(S'DP'
p8
S'ADDPP'
tp9
F2
s(S'DP'
S'DDAP'
tp10
F5
s(S'VP'
p11
S'ADVVVNP'
tp12
F1
s(S'PP'
p13
S'PPPAAANP'
tp14
F1
s(S'CP'
p15
S'CADVADVADADVADVPP'
tp16
F1
s(S'VP'
p17
S'VVVVP'
tp18
F3
s(S'NP'
S'ADVANVP'
tp19
F2
s(S'VP'
p20
S'VVADVVP'
tp21
F1
s(S'PP'
p22
S'PAPP'
tp23
F11
s(S'PP'
S'PADVNP'
tp24
F12
s(S'DP'
p25
S'DNP'
tp26
F212
s(S'DP'
S'AADDNP'
tp27
F1
s(S'VP'
S'VVADVCP'
tp28
F1
s(S'PP'
p29
S'AAPDDP'
tp30
F1
s(S'CP'
p31
S'CDPPP'
tp32
F58
s(S'VP'
p33
S'VADP'
tp34
F21
s(S'DP'
S'DNNNNP'
tp35
F2
s(S'CP'
S'CDAAPPP'
tp36
F1
s(S'DP'
p37
S'DAAP'
tp38
F3
s(S'PP'
p39
S'PPAVP'
tp40
F3
s(S'PP'
p41
S'PPPPPP'
tp42
F3
s(S'VP'
p43
S'VAVP'
tp44
F1
s(S'PP'
p45
S'APPDP'
tp46
F2
s(S'CP'
S'CADVADVDPPP'
tp47
F2
s(S'DP'
S'DAADP'
tp48
F1
s(S'DP'
p49
S'ADNNP'
tp50
F4
s(S'PP'
S'PADVADVAAP'
tp51
F1
s(S'PP'
p52
S'APVP'
tp53
F13
s(S'MP'
S'MVDP'
tp54
F18
s(g39
S'PADVANP'
tp55
F4
s(S'PP'
p56
S'PPPP'
tp57
F35
s(S'DP'
S'DDDNP'
tp58
F2
s(S'VP'
p59
S'VACP'
tp60
F6
s(S'AP'
p61
S'AAAVP'
tp62
F1
s(S'DP'
p63
S'DADVVP'
tp64
F7
s(S'PP'
S'PADVNNP'
tp65
F1
s(S'AP'
S'AADVPP'
tp66
F1
s(S'NP'
S'NADVACP'
tp67
F1
s(S'NP'
p68
S'NAAVVP'
tp69
F1
s(S'NP'
S'NDDDP'
tp70
F1
s(S'NP'
S'NCCCP'
tp71
F3
s(S'CP'
S'CADVDAPP'
tp72
F1
s(S'VP'
p73
S'VCP'
tp74
F93
s(S'NP'
p75
S'NMMP'
tp76
F5
s(S'NP'
p77
S'NNNPPPP'
tp78
F1
s(g25
S'DDDNNP'
tp79
F1
s(S'PP'
p80
S'PAP'
tp81
F109
s(S'MP'
S'MADVVCCP'
tp82
F1
s(S'MP'
S'MMVVP'
tp83
F4
s(S'DP'
S'DDDADVPP'
tp84
F1
s(S'NP'
p85
S'ANNCCP'
tp86
F2
s(S'VP'
p87
S'VADVNP'
tp88
F4
s(S'NP'
S'NNNAP'
tp89
F1
s(S'NP'
p90
S'ANPPP'
tp91
F6
s(S'NP'
S'NAAAVP'
tp92
F1
s(S'PP'
S'PPADVDP'
tp93
F2
s(S'CP'
S'CADPPPP'
tp94
F1
s(g80
S'PNP'
tp95
F213
s(S'DP'
S'ADDP'
tp96
F3
s(S'PP'
p97
S'PAAADP'
tp98
F2
s(g25
S'DDP'
tp99
F58
s(S'MP'
S'MADVADVVAP'
tp100
F1
s(S'MP'
S'MVVVDDDP'
tp101
F1
s(S'NP'
p102
S'NNNPP'
tp103
F7
s(S'VP'
p104
S'VCCP'
tp105
F10
s(S'MP'
S'MCDP'
tp106
F1
s(S'CP'
S'AACCDP'
tp107
F1
s(S'NP'
p108
S'NMP'
tp109
F65
s(S'PP'
p110
S'PPMMP'
tp111
F1
s(g17
S'AVADVPP'
tp112
F1
s(S'VP'
S'AAVNP'
tp113
F2
s(g80
S'PDP'
tp114
F193
s(S'DP'
p115
S'DDPPPPP'
tp116
F1
s(S'CP'
S'CCADVADVDP'
tp117
F1
s(S'CP'
S'CDAAPP'
tp118
F2
s(S'NP'
p119
S'ADVNVVP'
tp120
F1
s(S'NP'
S'AAANVVP'
tp121
F1
s(S'MP'
S'MADVVNP'
tp122
F1
s(S'VP'
p123
S'ADVADVVVCCCP'
tp124
F1
s(S'CP'
S'CDADVADVPPP'
tp125
F1
s(S'VP'
S'AVAAP'
tp126
F2
s(S'NP'
p127
S'NACCP'
tp128
F2
s(S'AP'
S'ANP'
tp129
F2
s(S'PP'
p130
S'PADVPP'
tp131
F2
s(S'CP'
S'CDDAPPP'
tp132
F1
s(S'PP'
p133
S'PPADVAP'
tp134
F1
s(S'NP'
S'ADVNACP'
tp135
F3
s(S'PP'
S'ADVADVAPVP'
tp136
F1
s(S'DP'
p137
S'DPPPP'
tp138
F16
s(g37
S'DDANP'
tp139
F3
s(S'NP'
p140
S'NACP'
tp141
F18
s(S'AP'
S'ADVAVP'
tp142
F1
s(S'NP'
p143
S'NCCP'
tp144
F59
s(S'VP'
S'AVADVNP'
tp145
F1
s(S'DP'
S'DADVADVVVP'
tp146
F1
s(S'AP'
S'AAAADP'
tp147
F3
s(S'CP'
S'CADVDDPP'
tp148
F2
s(S'VP'
S'VVVVVP'
tp149
F1
s(S'NP'
p150
S'NNCP'
tp151
F60
s(g33
S'VVAVP'
tp152
F1
s(S'NP'
S'NADVADVVP'
tp153
F3
s(S'NP'
p154
S'NNPPPP'
tp155
F1
s(S'DP'
p156
S'DDDDP'
tp157
F3
s(S'MP'
S'MVAAAP'
tp158
F1
s(S'PP'
S'ADVADVPVP'
tp159
F1
s(S'VP'
p160
S'AVNP'
tp161
F16
s(g85
S'NNNNNCP'
tp162
F1
s(S'VP'
p163
S'ADVADVVNNNP'
tp164
F1
s(S'MP'
S'MVADVADVDP'
tp165
F1
s(S'PP'
p166
S'ADVAPDP'
tp167
F1
s(S'MP'
S'MVAPP'
tp168
F2
s(S'MP'
S'MVPPP'
tp169
F2
s(S'PP'
S'ADVPAPP'
tp170
F1
s(g4
S'ADVVADVAANP'
tp171
F1
s(S'CP'
S'CCCDP'
tp172
F7
s(g11
S'AVNNP'
tp173
F3
s(S'VP'
S'VCCCP'
tp174
F1
s(S'DP'
p175
S'ADVADVADADVADVPP'
tp176
F1
s(g80
S'APDP'
tp177
F26
s(S'VP'
p178
S'ADVVNNP'
tp179
F1
s(S'VP'
S'ADVADVAVPP'
tp180
F1
s(S'VP'
S'VVANP'
tp181
F5
s(S'VP'
S'VVVVDP'
tp182
F2
s(S'PP'
p183
S'PCCP'
tp184
F2
s(S'PP'
p185
S'PAAP'
tp186
F16
s(S'NP'
p187
S'ADVANCP'
tp188
F3
s(S'DP'
S'DNNP'
tp189
F55
s(S'VP'
S'ADVVAANP'
tp190
F1
s(S'DP'
S'DPPPPP'
tp191
F1
s(S'CP'
p192
S'CDDPPPP'
tp193
F1
s(S'CP'
S'CCADVDP'
tp194
F4
s(S'NP'
S'NNNAMP'
tp195
F1
s(S'VP'
S'VVACP'
tp196
F1
s(S'NP'
p197
S'NNNVP'
tp198
F7
s(g166
S'AAPPDP'
tp199
F1
s(S'NP'
S'ADVADVANPPP'
tp200
F1
s(S'PP'
S'PPNNNNP'
tp201
F1
s(S'PP'
S'PADVVP'
tp202
F9
s(S'MP'
S'MVVDDP'
tp203
F1
s(S'PP'
p204
S'APAP'
tp205
F6
s(S'CP'
S'ADVADVCDP'
tp206
F5
s(S'NP'
p207
S'NADVMP'
tp208
F1
s(S'PP'
p209
S'PPADP'
tp210
F3
s(S'CP'
S'CADVADPP'
tp211
F1
s(S'VP'
S'AVVDDP'
tp212
F1
s(S'DP'
p213
S'DADVADVNP'
tp214
F3
s(S'NP'
p215
S'ADVADVNCCP'
tp216
F1
s(S'NP'
S'ADVANPP'
tp217
F1
s(S'NP'
p218
S'NAAACP'
tp219
F1
s(S'VP'
p220
S'VADVADVNP'
tp221
F1
s(S'DP'
p222
S'DDDDADVAPP'
tp223
F1
s(S'CP'
S'CDDDDPP'
tp224
F1
s(S'MP'
S'MVVCP'
tp225
F1
s(S'PP'
S'PAANP'
tp226
F11
s(S'NP'
p227
S'ANVP'
tp228
F24
s(S'VP'
p229
S'VAACP'
tp230
F2
s(S'DP'
p231
S'ADVDDPP'
tp232
F3
s(S'MP'
S'MVNP'
tp233
F20
s(S'MP'
S'AMVP'
tp234
F2
s(S'DP'
p235
S'ADVADVDDP'
tp236
F1
s(S'CP'
S'CDDDPPP'
tp237
F1
s(g80
S'PAVP'
tp238
F24
s(S'MP'
S'ADVMVP'
tp239
F1
s(g235
S'DDAPPP'
tp240
F1
s(S'VP'
S'VVVPP'
tp241
F3
s(g102
S'NNADP'
tp242
F2
s(S'CP'
S'ADVCADP'
tp243
F2
s(g209
S'APPPP'
tp244
F2
s(S'DP'
p245
S'DADP'
tp246
F6
s(S'AP'
p247
S'ADVADP'
tp248
F1
s(S'AP'
p249
S'APP'
tp250
F44
s(S'DP'
p251
S'ADVDDP'
tp252
F2
s(S'PP'
p253
S'APDDP'
tp254
F4
s(g215
S'ADVNAP'
tp255
F1
s(S'PP'
S'PPCP'
tp256
F1
s(S'VP'
p257
S'ADVVNP'
tp258
F10
s(S'VP'
S'VVNP'
tp259
F69
s(S'PP'
S'PPPNNP'
tp260
F1
s(S'PP'
p261
S'PPVP'
tp262
F37
s(S'NP'
S'NNADVADVAVP'
tp263
F1
s(g104
S'VADVDP'
tp264
F9
s(S'VP'
S'VVADVAP'
tp265
F1
s(S'VP'
p266
S'VAAP'
tp267
F17
s(S'NP'
p268
S'ANDP'
tp269
F9
s(S'NP'
p270
S'NVVP'
tp271
F63
s(S'PP'
p272
S'AAPVP'
tp273
F2
s(S'AP'
S'AAP'
tp274
F1
s(g59
S'VMP'
tp275
F2
s(S'NP'
p276
S'ANNAP'
tp277
F1
s(g61
S'AAAVVP'
tp278
F1
s(S'VP'
p279
S'VVNNP'
tp280
F9
s(S'CP'
S'CDAPP'
tp281
F18
s(S'VP'
p282
S'VVAAP'
tp283
F6
s(S'MP'
S'MMPP'
tp284
F1
s(g245
S'ADVADVP'
tp285
F1
s(S'DP'
p286
S'ADNP'
tp287
F21
s(g140
S'ADVADVADVANVVP'
tp288
F1
s(g22
S'PADP'
tp289
F16
s(S'DP'
S'ADVDDNP'
tp290
F3
s(g119
S'ANDDP'
tp291
F1
s(g25
S'ADVADVDVP'
tp292
F4
s(S'VP'
p293
S'VVVDDP'
tp294
F1
s(g25
S'DAPP'
tp295
F38
s(g11
S'AVVP'
tp296
F1
s(S'VP'
S'VVVVPP'
tp297
F1
s(S'VP'
p298
S'ADVADVVPP'
tp299
F1
s(S'DP'
p300
S'DAAVP'
tp301
F1
s(S'PP'
p302
S'AAAPVP'
tp303
F1
s(S'VP'
S'ADVADVVDP'
tp304
F1
s(g163
S'AVVNP'
tp305
F2
s(g97
S'PPPDP'
tp306
F6
s(S'DP'
S'DAAPPP'
tp307
F1
s(S'PP'
S'AAAPDP'
tp308
F1
s(S'AP'
S'AAPPP'
tp309
F2
s(S'DP'
S'DAAANP'
tp310
F1
s(S'VP'
S'VAAPP'
tp311
F3
s(g156
S'ADVDNP'
tp312
F10
s(g266
S'VVPP'
tp313
F30
s(S'DP'
S'ADADVPP'
tp314
F1
s(S'PP'
p315
S'PAVVP'
tp316
F1
s(S'MP'
p317
S'MVPP'
tp318
F13
s(S'DP'
p319
S'ADVP'
tp320
F14
s(S'CP'
S'CDDPPP'
tp321
F12
s(S'NP'
S'NNADVADVAP'
tp322
F1
s(S'NP'
S'NNPP'
tp323
F37
s(S'NP'
S'AAANDP'
tp324
F1
s(S'PP'
S'ADVADVADVAPNP'
tp325
F2
s(g300
S'DADVPPP'
tp326
F1
s(S'PP'
S'PPVVP'
tp327
F15
s(S'VP'
S'VVADVCCP'
tp328
F2
s(S'DP'
S'DNNNP'
tp329
F10
s(S'NP'
p330
S'ADVNNADVCP'
tp331
F1
s(S'VP'
S'VADVDDP'
tp332
F1
s(S'PP'
S'PMMP'
tp333
F1
s(g185
S'PVVVP'
tp334
F4
s(g56
S'PMP'
tp335
F9
s(S'NP'
S'NNMMP'
tp336
F2
s(S'PP'
p337
S'PAAPPP'
tp338
F1
s(S'CP'
p339
S'CCDP'
tp340
F78
s(g87
S'VADVANP'
tp341
F3
s(S'PP'
S'PPNNNP'
tp342
F1
s(S'DP'
p343
S'AADDPP'
tp344
F1
s(S'NP'
p345
S'NVVVP'
tp346
F5
s(S'CP'
S'CDDDPP'
tp347
F5
s(g41
S'PPADVVP'
tp348
F1
s(S'VP'
S'ADVADVVVVP'
tp349
F1
s(S'VP'
S'VVVDP'
tp350
F4
s(S'PP'
p351
S'PNNNP'
tp352
F10
s(S'CP'
S'CCCCDP'
tp353
F2
s(S'PP'
p354
S'APADVNNP'
tp355
F1
s(g261
S'AAPNP'
tp356
F4
s(S'CP'
S'CADADVPP'
tp357
F1
s(g39
S'PADVVVP'
tp358
F3
s(g253
S'PPP'
tp359
F117
s(g108
S'NNVVP'
tp360
F11
s(g143
S'NAVP'
tp361
F17
s(g351
S'PADVAP'
tp362
F3
s(S'DP'
S'DDNNNP'
tp363
F1
s(S'PP'
S'PADDP'
tp364
F1
s(g49
S'ADVDVP'
tp365
F6
s(S'NP'
S'NAAAP'
tp366
F4
s(S'NP'
S'NADVVVP'
tp367
F1
s(S'DP'
S'DADVADVPPP'
tp368
F1
s(S'AP'
S'AADVVP'
tp369
F1
s(S'DP'
S'DAAAP'
tp370
F1
s(S'DP'
p371
S'ADVADVDNP'
tp372
F4
s(S'CP'
S'CADPP'
tp373
F25
s(g73
S'VPP'
tp374
F133
s(S'CP'
S'ADVCCDP'
tp375
F2
s(S'NP'
S'NNNADVCP'
tp376
F1
s(S'CP'
S'ACCDP'
tp377
F2
s(S'AP'
S'AAAACP'
tp378
F1
s(S'NP'
S'NNNCP'
tp379
F5
s(g110
S'PADVDP'
tp380
F6
s(S'MP'
S'MADVVAP'
tp381
F1
s(S'PP'
S'PADVAAP'
tp382
F1
s(g339
S'CDDPP'
tp383
F57
s(S'DP'
p384
S'DAAPP'
tp385
F3
s(g56
S'PVVP'
tp386
F44
s(S'CP'
p387
S'CADPPP'
tp388
F4
s(S'AP'
p389
S'AACP'
tp390
F15
s(S'DP'
S'DADVADVADVNNP'
tp391
F1
s(S'VP'
p392
S'VPPP'
tp393
F28
s(S'VP'
p394
S'AVCCP'
tp395
F1
s(S'CP'
S'CDADVADVAPP'
tp396
F1
s(g293
S'VVPPP'
tp397
F8
s(g183
S'PPAP'
tp398
F14
s(S'DP'
S'DVVP'
tp399
F38
s(g343
S'DAADDP'
tp400
F1
s(g197
S'ANMP'
tp401
F3
s(S'AP'
p402
S'APPP'
tp403
F5
s(S'PP'
S'ADVPPP'
tp404
F5
s(S'NP'
S'ADVADVNVP'
tp405
F3
s(g104
S'VVVP'
tp406
F16
s(S'CP'
p407
S'CADVDPP'
tp408
F18
s(g270
S'ANCP'
tp409
F34
s(g286
S'DCP'
tp410
F10
s(S'NP'
S'ANNCP'
tp411
F2
s(S'PP'
S'AAPPNNP'
tp412
F1
s(g178
S'ADVVCCP'
tp413
F1
s(g220
S'ADVVVVP'
tp414
F1
s(S'PP'
p415
S'PPADVPP'
tp416
F1
s(g245
S'DDDP'
tp417
F18
s(S'VP'
S'VVADVADVPPP'
tp418
F1
s(S'DP'
S'DDADVPP'
tp419
F6
s(S'MP'
S'MVVVVNP'
tp420
F1
s(g207
S'ANNVVP'
tp421
F1
s(S'NP'
S'ANVVP'
tp422
F5
s(g384
S'ADDNNP'
tp423
F1
s(S'VP'
p424
S'VVDP'
tp425
F52
s(S'NP'
S'NPPP'
tp426
F37
s(S'NP'
S'NNNADVAMP'
tp427
F1
s(g68
S'AANAPPP'
tp428
F1
s(S'DP'
S'DAVP'
tp429
F11
s(g43
S'ADVADVADVADVVNP'
tp430
F1
s(S'AP'
S'ACP'
tp431
F54
s(g302
S'PAAAPP'
tp432
F1
s(g29
S'PADVADVNNP'
tp433
F1
s(g253
S'PPNP'
tp434
F59
s(S'AP'
S'ADVACCP'
tp435
F1
s(S'NP'
p436
S'NAADP'
tp437
F2
s(S'DP'
S'ADVDAPP'
tp438
F2
s(S'DP'
S'AADVP'
tp439
F1
s(S'CP'
S'CDDADVPP'
tp440
F2
s(S'CP'
p441
S'CCCDDP'
tp442
F1
s(g249
S'ADP'
tp443
F162
s(S'DP'
p444
S'DDPPPP'
tp445
F1
s(g110
S'APVVP'
tp446
F3
s(g215
S'ADVANCCP'
tp447
F1
s(S'DP'
S'DVVVVP'
tp448
F1
s(S'VP'
S'AVDP'
tp449
F20
s(g90
S'ANNVP'
tp450
F1
s(g227
S'ADVANNNP'
tp451
F1
s(S'VP'
S'VVAP'
tp452
F21
s(S'NP'
S'NNAPP'
tp453
F2
s(g192
S'CCCADVADP'
tp454
F1
s(S'CP'
S'ADVACDP'
tp455
F1
s(g282
S'AAVCP'
tp456
F1
s(g270
S'NPP'
tp457
F158
s(S'VP'
S'ADVADVVAP'
tp458
F3
s(g108
S'NVP'
tp459
F230
s(S'PP'
S'PAAVP'
tp460
F1
s(g143
S'NAAPP'
tp461
F3
s(g424
S'VDDP'
tp462
F43
s(g207
S'ANCCCP'
tp463
F1
s(S'AP'
S'AAADVDP'
tp464
F1
s(g276
S'AANNVP'
tp465
F1
s(S'DP'
S'DMP'
tp466
F2
s(S'VP'
p467
S'ADVVCP'
tp468
F2
s(S'NP'
S'NNAACCP'
tp469
F1
s(g268
S'NADVADVVVP'
tp470
F2
s(g108
S'ANPP'
tp471
F16
s(S'PP'
S'ADVPPDP'
tp472
F2
s(g272
S'PPPPP'
tp473
F6
s(S'PP'
p474
S'ADVADVPDP'
tp475
F1
s(S'MP'
S'MVVPP'
tp476
F1
s(g253
S'PPPNP'
tp477
F7
s(S'PP'
S'PPVVVVP'
tp478
F1
s(S'NP'
S'NPPPP'
tp479
F2
s(g249
S'AADVADVDP'
tp480
F5
s(g227
S'NNCCCCP'
tp481
F2
s(S'DP'
S'AAAADAP'
tp482
F1
s(S'CP'
S'CAADPP'
tp483
F6
s(S'NP'
S'NAACP'
tp484
F2
s(S'PP'
p485
S'PNNP'
tp486
F62
s(g351
S'APNNP'
tp487
F7
s(S'NP'
S'ADVNDP'
tp488
F1
s(g343
S'ADVDADVADVPP'
tp489
F1
s(S'MP'
S'MMNP'
tp490
F1
s(S'DP'
S'AAADPP'
tp491
F1
s(S'NP'
S'NNNNMMP'
tp492
F1
s(g73
S'AVAP'
tp493
F5
s(S'MP'
S'MMVP'
tp494
F4
s(S'PP'
S'PADVDDP'
tp495
F2
s(g197
S'ADVNCP'
tp496
F7
s(S'AP'
S'AADP'
tp497
F39
s(S'VP'
S'VAPPP'
tp498
F1
s(S'CP'
S'ACDP'
tp499
F30
s(g143
S'NNDP'
tp500
F19
s(S'NP'
S'NNACP'
tp501
F1
s(S'CP'
S'CDADVPPP'
tp502
F1
s(g73
S'VAP'
tp503
F94
s(S'DP'
S'DDDPP'
tp504
F9
s(S'CP'
S'ADVCDDP'
tp505
F1
s(S'PP'
S'ADVPMP'
tp506
F1
s(g52
S'PPAADDP'
tp507
F1
s(g272
S'PAAPP'
tp508
F1
s(g436
S'NADVADP'
tp509
F1
s(g160
S'ADVADVVVAP'
tp510
F1
s(g175
S'DDDPPP'
tp511
F3
s(S'DP'
S'DADVDP'
tp512
F2
s(g371
S'DADVADVADVAPP'
tp513
F1
s(S'VP'
S'ADVVVDP'
tp514
F1
s(S'PP'
S'PPPVP'
tp515
F5
s(S'AP'
S'AADDP'
tp516
F9
s(S'MP'
S'MAADP'
tp517
F1
s(S'DP'
S'DDADVADVADVAPP'
tp518
F1
s(S'VP'
p519
S'VAANP'
tp520
F5
s(g345
S'NADVADVCP'
tp521
F5
s(S'PP'
S'PPPNNNP'
tp522
F1
s(g43
S'VADVADVADVADVVP'
tp523
F1
s(S'PP'
S'ADVPNNP'
tp524
F2
s(S'NP'
S'NVVVVP'
tp525
F1
s(g4
S'VVAADP'
tp526
F1
s(S'PP'
S'PPPDDP'
tp527
F1
s(S'CP'
S'CCAADP'
tp528
F1
s(S'AP'
S'AAACCP'
tp529
F1
s(S'DP'
p530
S'DDADVNP'
tp531
F1
s(g253
S'PANP'
tp532
F27
s(S'DP'
p533
S'AADNP'
tp534
F5
s(S'NP'
S'NADVDDP'
tp535
F1
s(S'DP'
S'ADVADVDAVP'
tp536
F1
s(S'MP'
S'ADVAMVP'
tp537
F1
s(S'AP'
S'AAVP'
tp538
F7
s(g270
S'NAAP'
tp539
F11
s(g90
S'NDDP'
tp540
F23
s(S'VP'
S'VADVCP'
tp541
F1
s(S'AP'
S'ACCP'
tp542
F10
s(S'NP'
S'NNNNNNCCP'
tp543
F1
s(S'PP'
S'ADVADVPNNNP'
tp544
F1
s(S'AP'
S'APPPP'
tp545
F1
s(g270
S'NDP'
tp546
F96
s(g77
S'AAANVP'
tp547
F1
s(g137
S'DDVP'
tp548
F45
s(g218
S'AANVP'
tp549
F8
s(g154
S'ADVNCCP'
tp550
F2
s(S'DP'
S'DADVADVAPP'
tp551
F1
s(S'VP'
S'AAVVPP'
tp552
F1
s(g73
S'VNNNP'
tp553
F3
s(S'VP'
S'VVAAANNP'
tp554
F1
s(S'CP'
S'CDADVADVPP'
tp555
F1
s(g183
S'APADVDP'
tp556
F1
s(S'PP'
S'PCP'
tp557
F7
s(g143
S'NNPPP'
tp558
F2
s(g110
S'PAADDP'
tp559
F1
s(g45
S'PAADP'
tp560
F6
s(S'NP'
S'ADVANADVADVVP'
tp561
F1
s(S'MP'
S'MMCCCP'
tp562
F1
s(g467
S'VPPPP'
tp563
F2
s(g56
S'PACP'
tp564
F1
s(S'AP'
S'AADVAP'
tp565
F1
s(g108
S'NNNDP'
tp566
F4
s(S'AP'
S'ADVACP'
tp567
F6
s(g8
S'DDADVVP'
tp568
F1
s(g533
S'ADPPP'
tp569
F8
s(g317
S'MVCP'
tp570
F8
s(S'CP'
p571
S'CCDDP'
tp572
F15
s(g276
S'AANNDP'
tp573
F1
s(S'DP'
S'ADVDAANNP'
tp574
F1
s(g204
S'PPAAP'
tp575
F4
s(S'NP'
S'NNNNVP'
tp576
F1
s(g73
S'VVCP'
tp577
F18
s(S'NP'
p578
S'AANCP'
tp579
F10
s(g73
S'VDP'
tp580
F193
s(g282
S'ADVAVAP'
tp581
F1
s(g222
S'ADVDAAPPP'
tp582
F1
s(S'NP'
S'NNAAAAP'
tp583
F1
s(g97
S'APPP'
tp584
F6
s(g4
S'ADVVPP'
tp585
F3
s(g392
S'VNNP'
tp586
F37
s(S'AP'
p587
S'AADVDP'
tp588
F4
s(g143
S'NADP'
tp589
F6
s(g137
S'DDNP'
tp590
F56
s(g578
S'NADVCP'
tp591
F11
s(g319
S'DDNNP'
tp592
F13
s(S'PP'
S'AAPPP'
tp593
F1
s(g272
S'PADVADVVVP'
tp594
F1
s(S'DP'
S'ADVDDVVP'
tp595
F1
s(g247
S'AADVADP'
tp596
F1
s(S'AP'
S'ADVADDP'
tp597
F2
s(g156
S'AADPP'
tp598
F12
s(S'VP'
p599
S'VADVADVPP'
tp600
F1
s(S'NP'
p601
S'ANADVADVPP'
tp602
F1
s(S'NP'
S'ADVADVNPP'
tp603
F1
s(S'DP'
S'ADDPPPP'
tp604
F1
s(S'PP'
S'AAPDP'
tp605
F2
s(S'NP'
S'ANVVVP'
tp606
F1
s(S'MP'
S'MADVVDP'
tp607
F1
s(S'NP'
p608
S'AAANCP'
tp609
F2
s(S'PP'
S'ADVAPVP'
tp610
F1
s(S'DP'
p611
S'ADVDNNP'
tp612
F3
s(S'CP'
S'ACDDP'
tp613
F3
s(g389
S'AAPP'
tp614
F5
s(S'NP'
S'ADVADVADVNNAP'
tp615
F1
s(S'VP'
S'VVCCP'
tp616
F4
s(S'DP'
S'DMMP'
tp617
F1
s(S'PP'
S'APPNP'
tp618
F1
s(g245
S'DAAAPP'
tp619
F2
s(S'PP'
p620
S'ADVPANP'
tp621
F1
s(S'NP'
S'AAANNCCP'
tp622
F1
s(S'AP'
S'ADVANNP'
tp623
F1
s(g270
S'NAPP'
tp624
F14
s(S'AP'
S'ADVADVADP'
tp625
F2
s(S'NP'
S'NADVDP'
tp626
F2
s(g229
S'VVVCP'
tp627
F2
s(g90
S'ANCCP'
tp628
F6
s(S'NP'
p629
S'AANPP'
tp630
F2
s(g68
S'NNCCP'
tp631
F11
s(g150
S'NNMP'
tp632
F7
s(g286
S'DDDVP'
tp633
F3
s(S'CP'
S'CADDPP'
tp634
F1
s(g110
S'PAAAP'
tp635
F3
s(g315
S'ADVADVPNP'
tp636
F2
s(g387
S'CDDAPP'
tp637
F3
s(g270
S'ANAP'
tp638
F2
s(S'MP'
S'MVAP'
tp639
F3
s(g80
S'PVP'
tp640
F184
s(g11
S'VVAAAAP'
tp641
F1
s(S'VP'
S'VADVCCP'
tp642
F1
s(g319
S'DVVVP'
tp643
F4
s(g611
S'AADDNNP'
tp644
F1
s(S'MP'
S'MMMMVP'
tp645
F1
s(S'PP'
S'PPDDP'
tp646
F14
s(S'VP'
S'AVCP'
tp647
F4
s(S'DP'
S'DDVVVP'
tp648
F1
s(S'CP'
S'CDDADVADVADVAPP'
tp649
F1
s(g25
S'DPP'
tp650
F268
s(g187
S'ADVNVP'
tp651
F5
s(S'DP'
p652
S'DDDVVP'
tp653
F1
s(S'DP'
S'DDPP'
tp654
F85
s(g25
S'DANP'
tp655
F40
s(S'NP'
S'NADVPP'
tp656
F2
s(S'NP'
p657
S'ADVNAADP'
tp658
F1
s(S'NP'
p659
S'NAAVP'
tp660
F4
s(S'NP'
S'AAANADVVP'
tp661
F1
s(S'PP'
S'PDDDP'
tp662
F5
s(S'DP'
S'ADVADVDPPP'
tp663
F2
s(S'VP'
S'VDDDDDP'
tp664
F1
s(S'NP'
S'NNNNCP'
tp665
F1
s(S'VP'
S'ADVAVNNP'
tp666
F1
s(g337
S'AAPPVVP'
tp667
F1
s(S'NP'
S'NNAACP'
tp668
F1
s(g601
S'NNNVVP'
tp669
F1
s(S'NP'
S'NNP'
tp670
F4
s(S'DP'
S'DCCP'
tp671
F3
s(S'DP'
S'AADDP'
tp672
F1
s(S'PP'
S'PPADVADVVP'
tp673
F1
s(S'AP'
S'AMP'
tp674
F1
s(S'CP'
S'CDPPPPP'
tp675
F1
s(g444
S'ADVADPP'
tp676
F3
s(g519
S'VVVAP'
tp677
F2
s(g22
S'PDDP'
tp678
F38
s(S'MP'
p679
S'MVDDP'
tp680
F3
s(S'VP'
S'VVCCCP'
tp681
F1
s(g150
S'NNVP'
tp682
F60
s(S'NP'
S'NAANP'
tp683
F2
s(g599
S'VVDDP'
tp684
F7
s(g343
S'DAANP'
tp685
F5
s(g351
S'AAAPAP'
tp686
F1
s(g389
S'ADDP'
tp687
F34
s(g608
S'ADVADVNVVP'
tp688
F1
s(S'NP'
p689
S'ADVADVNNMP'
tp690
F1
s(S'MP'
S'MDAP'
tp691
F1
s(S'CP'
S'CADVADVDPP'
tp692
F2
s(g137
S'DPPP'
tp693
F91
s(S'DP'
S'DAVVP'
tp694
F1
s(g530
S'AADPPP'
tp695
F3
s(S'PP'
p696
S'ADVADVPPNP'
tp697
F3
s(S'AP'
S'AAAP'
tp698
F1
s(g218
S'NNAVP'
tp699
F2
s(S'AP'
S'AVVP'
tp700
F5
s(S'PP'
p701
S'PPPANP'
tp702
F1
s(S'CP'
S'ADVADVCDDP'
tp703
F1
s(S'PP'
S'ADVPNP'
tp704
F8
s(S'PP'
S'PPDP'
tp705
F50
s(S'VP'
p706
S'ADVVANNP'
tp707
F1
s(S'MP'
S'MAVDP'
tp708
F2
s(S'AP'
S'ADVADVAACP'
tp709
F1
s(S'DP'
S'DDADP'
tp710
F1
s(S'CP'
S'CADDPPPP'
tp711
F1
s(S'MP'
S'MVVAP'
tp712
F2
s(S'DP'
S'DDCP'
tp713
F2
s(g394
S'VVADP'
tp714
F1
s(S'PP'
S'PAANNP'
tp715
F1
s(g620
S'PPADVDDP'
tp716
F1
s(g402
S'AAAPP'
tp717
F2
s(S'MP'
S'MNCCP'
tp718
F1
s(g394
S'VVANNP'
tp719
F1
s(g108
S'NAP'
tp720
F50
s(S'NP'
S'NNAAP'
tp721
F1
s(S'VP'
S'VAAAP'
tp722
F2
s(S'DP'
S'ADVDPPP'
tp723
F2
s(S'VP'
p724
S'VVP'
tp725
F60
s(g73
S'VVVDDDP'
tp726
F1
s(g343
S'DDAPP'
tp727
F6
s(S'PP'
S'PNNNNNP'
tp728
F1
s(S'AP'
S'AAADP'
tp729
F6
s(S'PP'
S'APNP'
tp730
F21
s(S'VP'
S'VVVNNP'
tp731
F1
s(S'DP'
S'DDVVP'
tp732
F4
s(S'AP'
S'AAADDP'
tp733
F1
s(g279
S'VVVNP'
tp734
F3
s(g330
S'ADVADVANMP'
tp735
F1
s(g215
S'NAMP'
tp736
F2
s(g407
S'CDPP'
tp737
F248
s(S'MP'
S'MVVNNP'
tp738
F1
s(S'AP'
S'ADDDP'
tp739
F2
s(S'NP'
S'NNADVADVVVP'
tp740
F1
s(S'VP'
S'VVAANP'
tp741
F1
s(g213
S'ADADVADVPP'
tp742
F1
s(S'NP'
S'NNNNADVADVPPP'
tp743
F1
s(g231
S'DDDDDNP'
tp744
F1
s(g102
S'ADVAANADVVP'
tp745
F1
s(g251
S'DCCCP'
tp746
F1
s(g571
S'ADVCDP'
tp747
F12
s(g587
S'ADVAAP'
tp748
F1
s(S'VP'
S'ADVADVVNP'
tp749
F1
s(g130
S'ADVPVVP'
tp750
F1
s(g706
S'VAAVP'
tp751
F1
s(g13
S'PADVADVDP'
tp752
F1
s(g20
S'VADVADVDP'
tp753
F3
s(g41
S'PPNNP'
tp754
F12
s(g701
S'ADVPAVP'
tp755
F1
s(S'PP'
S'PPMP'
tp756
F1
s(S'DP'
p757
S'ADVADVDPP'
tp758
F3
s(S'VP'
S'VAADP'
tp759
F3
s(S'NP'
S'NADVAP'
tp760
F2
s(g229
S'AVDDP'
tp761
F2
s(g245
S'DADVNP'
tp762
F12
s(S'DP'
p763
S'DDCCP'
tp764
F1
s(g757
S'DAP'
tp765
F34
s(g104
S'VANNP'
tp766
F3
s(g659
S'NADVAVP'
tp767
F2
s(g724
S'ADVADVVVPP'
tp768
F1
s(g293
S'AVPP'
tp769
F7
s(S'CP'
S'CAADPPP'
tp770
F2
s(S'AP'
S'ADVAAADVADVCP'
tp771
F1
s(S'VP'
S'VVAAAADP'
tp772
F1
s(g31
S'CDPPPP'
tp773
F7
s(g123
S'VADVADVCCP'
tp774
F1
s(g706
S'AAVDP'
tp775
F4
s(g115
S'AADNNP'
tp776
F1
s(S'PP'
S'PANNP'
tp777
F1
s(S'NP'
p778
S'NNDDP'
tp779
F4
s(S'DP'
S'ADPPPP'
tp780
F1
s(S'DP'
S'DADVADVPP'
tp781
F1
s(g778
S'AANVVP'
tp782
F4
s(g25
S'ADVDPP'
tp783
F22
s(S'PP'
S'APADVPP'
tp784
F1
s(S'PP'
S'PPAANP'
tp785
F3
s(S'PP'
S'PADVADVNP'
tp786
F2
s(g133
S'PPPPNP'
tp787
F1
s(S'DP'
S'ADPP'
tp788
F41
s(S'PP'
S'PPAAVP'
tp789
F1
s(S'CP'
S'CDDDDADVAPP'
tp790
F1
s(g394
S'VADVPP'
tp791
F1
s(S'DP'
S'ADVDANP'
tp792
F1
s(g474
S'ADVPVP'
tp793
F6
s(g63
S'DDDDPP'
tp794
F1
s(S'AP'
S'AAMMMMP'
tp795
F1
s(g127
S'NNVVVP'
tp796
F3
s(S'VP'
S'ADVVANP'
tp797
F1
s(g415
S'ADVPDP'
tp798
F4
s(g657
S'NNNAVVP'
tp799
F1
s(g87
S'ADVVADP'
tp800
F2
s(g45
S'PPPVVP'
tp801
F1
s(g108
S'NCP'
tp802
F224
s(S'CP'
S'CADVDPPP'
tp803
F1
s(S'VP'
S'ADVVVPP'
tp804
F2
s(g235
S'ADVVP'
tp805
F4
s(g354
S'PPAAAP'
tp806
F1
s(S'PP'
S'ADVPDDP'
tp807
F2
s(g97
S'ADVADVPAANP'
tp808
F1
s(g629
S'AANDP'
tp809
F4
s(S'MP'
S'MVCCP'
tp810
F1
s(g49
S'DADVNNP'
tp811
F1
s(S'VP'
S'VADVADVANP'
tp812
F1
s(S'VP'
S'VDDDP'
tp813
F3
s(S'MP'
S'MNVP'
tp814
F6
s(g441
S'ADVADVCCDP'
tp815
F1
s(S'NP'
S'AANCCP'
tp816
F2
s(g485
S'PADVADVAP'
tp817
F1
s(g279
S'VAPP'
tp818
F16
s(g298
S'ADVVDP'
tp819
F6
s(g763
S'DADVPP'
tp820
F16
s(S'PP'
S'ADVPAAAP'
tp821
F1
s(S'CP'
S'CCADP'
tp822
F5
s(S'NP'
S'ADVNNCP'
tp823
F2
s(S'DP'
S'DDADVAPP'
tp824
F1
s(S'CP'
S'AACDP'
tp825
F5
s(g276
S'NNNCCP'
tp826
F3
s(g15
S'CCDDDP'
tp827
F3
s(g679
S'MVVDP'
tp828
F5
s(g25
S'DVP'
tp829
F177
s(g257
S'ADVVAP'
tp830
F5
s(g218
S'ADVNPP'
tp831
F6
s(S'DP'
S'AAADVVP'
tp832
F3
s(S'CP'
S'AAACDP'
tp833
F1
s(S'AP'
S'AVP'
tp834
F22
s(g102
S'NADVVP'
tp835
F6
s(S'CP'
S'CDAAAPP'
tp836
F1
s(g8
S'DADDP'
tp837
F1
s(S'DP'
S'DDPPP'
tp838
F20
s(g75
S'ADVNMP'
tp839
F2
s(g143
S'NNAP'
tp840
F11
s(g696
S'PPANP'
tp841
F8
s(S'VP'
S'AAAVNP'
tp842
F1
s(S'VP'
S'VVADVADVDP'
tp843
F1
s(S'CP'
S'CDADVPP'
tp844
F7
s(g73
S'VNP'
tp845
F186
s(g266
S'VANP'
tp846
F22
s(g4
S'VADVAP'
tp847
F5
s(g652
S'DDDANP'
tp848
F1
s(S'DP'
S'DDDDDDP'
tp849
F1
s(S'VP'
S'ADVADVVVDP'
tp850
F1
s(g689
S'NADVPPP'
tp851
F1
s.