ccollections
defaultdict
p1
(c__builtin__
float
p2
tRp3
(S'PP'
S'ADVADVPPAP'
tp4
F1
s(S'NP'
S'AANDDP'
tp5
F1
s(S'CP'
S'CAAADPP'
tp6
F1
s(S'PP'
p7
S'PAAANP'
tp8
F1
s(S'DP'
p9
S'ADDPP'
tp10
F5
s(S'DP'
S'DDAP'
tp11
F2
s(S'VP'
S'ADVVVNP'
tp12
F1
s(S'DP'
p13
S'DAANNP'
tp14
F1
s(S'NP'
p15
S'NADDP'
tp16
F2
s(S'VP'
S'VVADVVP'
tp17
F1
s(S'PP'
p18
S'PAPP'
tp19
F11
s(S'PP'
p20
S'PADVNP'
tp21
F13
s(S'DP'
p22
S'DNP'
tp23
F189
s(S'NP'
p24
S'ADVNDP'
tp25
F2
s(S'VP'
S'ADVADVAVVNP'
tp26
F1
s(S'CP'
p27
S'CDPPP'
tp28
F66
s(S'VP'
p29
S'VADP'
tp30
F20
s(S'DP'
S'DNNNNP'
tp31
F1
s(S'CP'
S'CCADVADVADP'
tp32
F1
s(S'CP'
S'CDAAPPP'
tp33
F2
s(S'DP'
p34
S'DAAP'
tp35
F4
s(S'PP'
S'PADVADVVP'
tp36
F1
s(S'VP'
S'VAVP'
tp37
F1
s(S'PP'
p38
S'APPDP'
tp39
F5
s(S'DP'
S'DAADP'
tp40
F1
s(S'DP'
p41
S'ADNNP'
tp42
F4
s(S'PP'
p43
S'APVP'
tp44
F13
s(S'MP'
S'MVDP'
tp45
F20
s(S'PP'
S'PADVANP'
tp46
F4
s(S'NP'
S'AANNPP'
tp47
F1
s(S'PP'
p48
S'PPPP'
tp49
F31
s(S'DP'
S'DDDNP'
tp50
F2
s(S'CP'
p51
S'CAADDPPPP'
tp52
F1
s(S'VP'
S'VACP'
tp53
F7
s(S'AP'
S'AAAVP'
tp54
F2
s(S'PP'
p55
S'PPAAP'
tp56
F2
s(S'DP'
S'DADVVP'
tp57
F6
s(S'PP'
S'PADVNNP'
tp58
F2
s(S'MP'
S'ADVAMADVVP'
tp59
F1
s(S'NP'
S'NADVACP'
tp60
F2
s(S'NP'
p61
S'NAAVVP'
tp62
F1
s(S'NP'
S'NDDDP'
tp63
F1
s(S'NP'
S'NADVVVP'
tp64
F1
s(S'CP'
S'CADVADVDDPP'
tp65
F1
s(S'VP'
p66
S'VCP'
tp67
F86
s(S'NP'
p68
S'NMMP'
tp69
F3
s(S'NP'
S'NNADVAP'
tp70
F1
s(g41
S'ADVDDDPP'
tp71
F1
s(S'DP'
S'DDDNNP'
tp72
F1
s(S'PP'
p73
S'ADVPADP'
tp74
F2
s(g48
S'PAP'
tp75
F76
s(S'PP'
p76
S'PPANNP'
tp77
F2
s(S'MP'
p78
S'MMVVP'
tp79
F4
s(S'VP'
S'VADVADVAP'
tp80
F1
s(S'PP'
p81
S'ADVPPVP'
tp82
F2
s(S'VP'
S'VADVNP'
tp83
F2
s(S'NP'
S'NNNAP'
tp84
F1
s(g7
S'APVVP'
tp85
F3
s(S'VP'
S'ADVVCCP'
tp86
F1
s(S'MP'
S'AMVP'
tp87
F4
s(S'PP'
p88
S'PNP'
tp89
F236
s(S'DP'
S'DDP'
tp90
F70
s(S'VP'
p91
S'ADVVDDP'
tp92
F1
s(S'NP'
p93
S'NNNPP'
tp94
F3
s(g76
S'PAAP'
tp95
F27
s(S'CP'
p96
S'ADVCADVADP'
tp97
F1
s(S'MP'
S'MCDP'
tp98
F2
s(S'CP'
S'AACCDP'
tp99
F1
s(S'VP'
p100
S'ADVADVVVCP'
tp101
F1
s(g68
S'NMP'
tp102
F67
s(g15
S'ADVNAPP'
tp103
F1
s(S'VP'
p104
S'AAVNP'
tp105
F3
s(S'VP'
S'VMMP'
tp106
F1
s(S'PP'
p107
S'PDP'
tp108
F210
s(S'DP'
S'DDPPPPP'
tp109
F1
s(S'CP'
S'CDADVADVPP'
tp110
F1
s(S'NP'
S'ADVNVVP'
tp111
F1
s(S'VP'
S'VVVDDP'
tp112
F1
s(S'MP'
S'MADVVNP'
tp113
F3
s(S'DP'
S'ADVADVDAPP'
tp114
F1
s(S'PP'
p115
S'PPPADVVP'
tp116
F1
s(S'DP'
p117
S'AADVDADDP'
tp118
F1
s(S'NP'
p119
S'NACCP'
tp120
F2
s(S'PP'
S'PADVPP'
tp121
F3
s(S'VP'
S'AAVPP'
tp122
F1
s(S'CP'
S'CDDAPPP'
tp123
F1
s(S'MP'
p124
S'MVACP'
tp125
F1
s(S'MP'
S'MMMVVP'
tp126
F1
s(S'NP'
S'ADVNACP'
tp127
F1
s(g13
S'DPPPP'
tp128
F6
s(S'DP'
S'DDANP'
tp129
F5
s(S'PP'
S'PADVADP'
tp130
F1
s(S'NP'
S'NACP'
tp131
F24
s(S'AP'
S'ADVAVP'
tp132
F1
s(S'NP'
p133
S'NCCP'
tp134
F75
s(S'VP'
S'VVCCCP'
tp135
F2
s(S'VP'
S'ADVVAANP'
tp136
F1
s(S'VP'
S'VVVVVP'
tp137
F1
s(S'NP'
S'NNCP'
tp138
F84
s(S'DP'
p139
S'ADVDDPP'
tp140
F2
s(S'NP'
S'NADVADVVP'
tp141
F1
s(S'NP'
p142
S'NNPPPP'
tp143
F1
s(S'DP'
p144
S'DDDDP'
tp145
F1
s(S'VP'
p146
S'AVVNNP'
tp147
F1
s(S'PP'
S'APPAAP'
tp148
F1
s(S'NP'
S'AANADVVVP'
tp149
F1
s(S'VP'
p150
S'AVNP'
tp151
F10
s(S'VP'
S'VVADP'
tp152
F1
s(S'NP'
p153
S'NNNNVVVVP'
tp154
F1
s(S'PP'
S'AAAPMP'
tp155
F1
s(S'NP'
S'NADVADVCCP'
tp156
F1
s(S'PP'
p157
S'ADVPVVP'
tp158
F1
s(S'PP'
S'PADVADVDP'
tp159
F2
s(S'MP'
p160
S'MVAPP'
tp161
F1
s(S'PP'
S'ADVADVPPANP'
tp162
F1
s(S'PP'
p163
S'ADVPPADVPP'
tp164
F1
s(S'PP'
S'ADVAPVP'
tp165
F1
s(S'AP'
S'AAAAP'
tp166
F1
s(S'NP'
p167
S'NCCCCP'
tp168
F3
s(S'CP'
S'CCCDP'
tp169
F5
s(S'VP'
p170
S'ADVVAP'
tp171
F2
s(S'PP'
S'ADVPPNNP'
tp172
F1
s(S'VP'
S'VCCCP'
tp173
F2
s(S'PP'
S'PADVVVP'
tp174
F1
s(S'DP'
p175
S'DDDDDDP'
tp176
F2
s(S'VP'
S'ADVVNNP'
tp177
F1
s(S'AP'
S'AADVCP'
tp178
F1
s(g150
S'VVANP'
tp179
F4
s(S'CP'
S'ADVACDP'
tp180
F1
s(g24
S'ADVADVNPPP'
tp181
F1
s(S'CP'
S'CCCADP'
tp182
F2
s(S'NP'
S'ADVNCCP'
tp183
F1
s(S'NP'
S'ADVANCP'
tp184
F4
s(S'DP'
S'DNNP'
tp185
F52
s(S'CP'
p186
S'CADVDDPP'
tp187
F2
s(S'NP'
S'NNADVPP'
tp188
F2
s(g51
S'CDDPPPP'
tp189
F1
s(S'CP'
S'CCADVDP'
tp190
F1
s(S'PP'
p191
S'PPAADP'
tp192
F1
s(S'VP'
S'VVACP'
tp193
F1
s(S'VP'
S'AAVDDP'
tp194
F1
s(S'DP'
p195
S'ADDNP'
tp196
F2
s(g24
S'NNNVP'
tp197
F6
s(S'PP'
S'PPAAPP'
tp198
F1
s(g81
S'APPADVPPP'
tp199
F1
s(S'PP'
p200
S'AAPPDP'
tp201
F1
s(g107
S'PADVVP'
tp202
F8
s(S'DP'
S'DADVADVADVPPP'
tp203
F1
s(S'PP'
p204
S'PPPADP'
tp205
F1
s(S'PP'
p206
S'APAP'
tp207
F7
s(S'AP'
S'APP'
tp208
F28
s(S'AP'
S'ACCCP'
tp209
F1
s(S'NP'
S'NADVMP'
tp210
F1
s(S'AP'
S'AAP'
tp211
F6
s(g27
S'CDPP'
tp212
F260
s(S'DP'
p213
S'DADVADVNP'
tp214
F1
s(S'NP'
S'ADVANPP'
tp215
F1
s(S'MP'
S'MVVCP'
tp216
F2
s(S'DP'
S'DAAVP'
tp217
F2
s(S'CP'
S'CDDDDPP'
tp218
F1
s(S'MP'
S'MVVVNP'
tp219
F1
s(g206
S'PAANP'
tp220
F8
s(g167
S'ANVP'
tp221
F20
s(g117
S'AAADVADDPP'
tp222
F1
s(S'MP'
p223
S'MMMPPP'
tp224
F1
s(S'VP'
S'VVAPP'
tp225
F2
s(S'MP'
S'MVNP'
tp226
F27
s(S'MP'
p227
S'MNDP'
tp228
F1
s(S'DP'
p229
S'ADDDP'
tp230
F2
s(S'CP'
S'CDDDPPP'
tp231
F3
s(g41
S'ADVADNP'
tp232
F2
s(g206
S'PAVP'
tp233
F20
s(S'MP'
p234
S'ADVMVP'
tp235
F1
s(S'PP'
p236
S'ADVADVPPVP'
tp237
F1
s(S'DP'
S'DDAPPP'
tp238
F1
s(S'VP'
S'VVVPP'
tp239
F1
s(S'NP'
p240
S'NNADVADVVVP'
tp241
F2
s(S'NP'
S'NMMMMP'
tp242
F1
s(S'PP'
S'APPPP'
tp243
F3
s(S'DP'
p244
S'DADP'
tp245
F10
s(S'NP'
S'ANMMMP'
tp246
F1
s(S'AP'
S'ADVADP'
tp247
F8
s(S'CP'
S'ADVADVCDP'
tp248
F2
s(S'PP'
S'APDDP'
tp249
F4
s(S'CP'
S'CCAAADVADDP'
tp250
F1
s(S'VP'
p251
S'ADVADVVANP'
tp252
F1
s(S'NP'
S'ADVNAP'
tp253
F1
s(S'DP'
S'DAAAVP'
tp254
F1
s(S'AP'
S'AAAPPP'
tp255
F1
s(S'VP'
S'ADVVNP'
tp256
F10
s(g234
S'MNCP'
tp257
F1
s(S'VP'
p258
S'VVNP'
tp259
F36
s(S'PP'
p260
S'ADVPPPP'
tp261
F1
s(S'PP'
p262
S'PPVP'
tp263
F41
s(S'NP'
p264
S'NNADVADVAVP'
tp265
F1
s(S'VP'
p266
S'VADVDP'
tp267
F10
s(g266
S'VAAP'
tp268
F9
s(S'NP'
S'NNADVAVP'
tp269
F1
s(S'VP'
p270
S'VVVADVADP'
tp271
F1
s(S'NP'
S'NADVADVAVVP'
tp272
F1
s(g133
S'ANDP'
tp273
F11
s(S'NP'
S'NVVP'
tp274
F28
s(S'PP'
S'AAPVP'
tp275
F3
s(S'PP'
p276
S'PPADP'
tp277
F6
s(S'VP'
p278
S'VMP'
tp279
F1
s(S'NP'
S'ADVNAAVP'
tp280
F1
s(S'VP'
S'VVNNP'
tp281
F4
s(S'CP'
p282
S'CDAPP'
tp283
F33
s(S'VP'
S'VVAAP'
tp284
F1
s(S'NP'
p285
S'ANADVCP'
tp286
F2
s(S'DP'
S'ADVADVP'
tp287
F1
s(g186
S'CADVADPP'
tp288
F5
s(g195
S'ADNP'
tp289
F32
s(S'PP'
p290
S'PADP'
tp291
F25
s(S'VP'
S'ADVVVCP'
tp292
F2
s(S'AP'
S'AAAACP'
tp293
F1
s(S'NP'
p294
S'ANDDP'
tp295
F1
s(S'DP'
S'ADVADVADVP'
tp296
F1
s(S'DP'
S'DADVAP'
tp297
F4
s(S'NP'
S'ADVANNVP'
tp298
F1
s(S'DP'
p299
S'DAPP'
tp300
F72
s(g266
S'AVVP'
tp301
F2
s(S'VP'
p302
S'ADVADVVPP'
tp303
F2
s(g104
S'ADVADVADVVDP'
tp304
F2
s(S'VP'
S'VVAANP'
tp305
F1
s(S'VP'
p306
S'AVVNP'
tp307
F1
s(g262
S'PPPDP'
tp308
F4
s(S'DP'
S'DAAPPP'
tp309
F2
s(g200
S'AAAPDP'
tp310
F2
s(S'AP'
S'AAPPP'
tp311
F1
s(S'DP'
S'DADVANP'
tp312
F1
s(S'VP'
S'VAAPP'
tp313
F1
s(S'DP'
S'ADANNP'
tp314
F1
s(S'DP'
p315
S'ADVDNP'
tp316
F10
s(S'VP'
p317
S'VVPP'
tp318
F12
s(g229
S'ADVDDDNP'
tp319
F1
s(S'DP'
S'ADADVPP'
tp320
F1
s(S'CP'
S'AACDDP'
tp321
F2
s(S'MP'
S'MVPP'
tp322
F8
s(g299
S'ADVP'
tp323
F2
s(g186
S'CDDPPP'
tp324
F14
s(g191
S'PPAVVP'
tp325
F1
s(S'NP'
p326
S'AANCCP'
tp327
F4
s(S'MP'
S'MVVDP'
tp328
F1
s(S'AP'
p329
S'AACP'
tp330
F14
s(g213
S'DNNNP'
tp331
F6
s(g213
S'DDDADVADVPP'
tp332
F1
s(S'VP'
S'VADVDDP'
tp333
F1
s(S'MP'
S'MADVADVANCP'
tp334
F1
s(S'VP'
S'ADVVCP'
tp335
F5
s(S'PP'
S'PVVVP'
tp336
F2
s(S'PP'
S'PMP'
tp337
F31
s(S'NP'
S'NNMMP'
tp338
F1
s(g20
S'PADVADVADVVP'
tp339
F1
s(S'CP'
S'CCDP'
tp340
F102
s(S'NP'
p341
S'ANNDP'
tp342
F1
s(S'VP'
p343
S'VADVANP'
tp344
F4
s(S'PP'
S'PPNNNP'
tp345
F1
s(S'DP'
S'AADDPP'
tp346
F1
s(S'NP'
p347
S'NVVVP'
tp348
F2
s(S'CP'
S'CDDDPP'
tp349
F6
s(S'CP'
p350
S'CDAAPP'
tp351
F12
s(S'VP'
p352
S'AVVAP'
tp353
F1
s(S'PP'
S'PNNNP'
tp354
F6
s(g282
S'CCCCDP'
tp355
F3
s(S'NP'
S'ANMMP'
tp356
F1
s(S'AP'
p357
S'AACCP'
tp358
F5
s(S'PP'
S'AAPNP'
tp359
F8
s(S'VP'
S'ADVVVDP'
tp360
F1
s(g48
S'PPP'
tp361
F108
s(S'NP'
p362
S'NAVP'
tp363
F11
s(S'PP'
S'PADVAP'
tp364
F4
s(S'NP'
S'ANNPPP'
tp365
F1
s(S'VP'
p366
S'ADVVAPP'
tp367
F1
s(S'PP'
S'PADDP'
tp368
F1
s(S'DP'
S'ADVDVP'
tp369
F4
s(S'NP'
S'NCCCP'
tp370
F2
s(S'DP'
p371
S'DADVADVPPP'
tp372
F3
s(g9
S'ADVADVDNP'
tp373
F2
s(g66
S'VPP'
tp374
F82
s(S'CP'
p375
S'ADVCCDP'
tp376
F1
s(S'PP'
S'ADVPAVVP'
tp377
F1
s(S'CP'
p378
S'ACCDP'
tp379
F2
s(S'DP'
S'ADVDDNP'
tp380
F2
s(S'NP'
p381
S'NNNCP'
tp382
F4
s(S'PP'
S'PADVDP'
tp383
F7
s(S'CP'
S'CDADVAPP'
tp384
F1
s(g350
S'CDDPP'
tp385
F52
s(g195
S'DAAPP'
tp386
F16
s(S'PP'
S'PVVP'
tp387
F42
s(g375
S'CADPPP'
tp388
F8
s(g34
S'DADVPPP'
tp389
F3
s(S'VP'
S'ADVAVDDP'
tp390
F1
s(S'PP'
S'PMMP'
tp391
F3
s(g170
S'VPPP'
tp392
F14
s(S'VP'
S'AVCCP'
tp393
F1
s(g270
S'VVPPP'
tp394
F1
s(g107
S'PPAP'
tp395
F18
s(S'DP'
p396
S'DVVP'
tp397
F26
s(S'MP'
S'MAAVDDP'
tp398
F1
s(S'CP'
S'CADVADVDAPP'
tp399
F1
s(S'PP'
p400
S'APADVADVDP'
tp401
F1
s(S'NP'
p402
S'ANMP'
tp403
F1
s(S'AP'
S'APPP'
tp404
F5
s(S'PP'
p405
S'ADVPPP'
tp406
F4
s(S'DP'
S'ADVADPPP'
tp407
F1
s(S'NP'
p408
S'ADVANVVP'
tp409
F1
s(g317
S'VVVP'
tp410
F10
s(S'CP'
S'CADVDPP'
tp411
F17
s(g362
S'ANCP'
tp412
F56
s(S'DP'
p413
S'DCP'
tp414
F5
s(S'DP'
S'DVVVP'
tp415
F3
s(S'MP'
S'MMMAVP'
tp416
F1
s(S'NP'
p417
S'AAANCP'
tp418
F1
s(g400
S'PAADVDP'
tp419
F1
s(S'PP'
S'ADVADVADVPPNP'
tp420
F1
s(S'DP'
S'DDDP'
tp421
F26
s(S'AP'
S'ADDDDP'
tp422
F1
s(g413
S'DDADVPP'
tp423
F5
s(S'MP'
S'MAADP'
tp424
F1
s(g362
S'ANVVP'
tp425
F4
s(S'AP'
S'AAAPP'
tp426
F2
s(S'VP'
S'VVDP'
tp427
F29
s(S'NP'
S'NPPP'
tp428
F20
s(S'PP'
S'PPAPP'
tp429
F3
s(S'DP'
S'AADVVP'
tp430
F1
s(S'AP'
S'AAADP'
tp431
F5
s(g396
S'DAVP'
tp432
F16
s(S'AP'
S'ACP'
tp433
F37
s(S'PP'
p434
S'AAPAP'
tp435
F1
s(g73
S'PPNP'
tp436
F64
s(g124
S'MADVVPP'
tp437
F2
s(g294
S'NAADP'
tp438
F1
s(S'DP'
p439
S'ADVDAPP'
tp440
F2
s(S'DP'
S'AADVP'
tp441
F1
s(S'NP'
S'NNNNCCP'
tp442
F2
s(S'PP'
p443
S'PPPNNNNP'
tp444
F1
s(S'CP'
S'CDDADVPP'
tp445
F2
s(S'CP'
S'CCCDDP'
tp446
F2
s(S'AP'
S'ADP'
tp447
F138
s(S'PP'
p448
S'APMP'
tp449
F2
s(g439
S'DDPPPP'
tp450
F3
s(g341
S'ANPPP'
tp451
F3
s(S'VP'
S'AAVDP'
tp452
F1
s(S'VP'
p453
S'AVADVADVNP'
tp454
F1
s(S'DP'
p455
S'ADVADVADVDDVP'
tp456
F1
s(S'PP'
S'PPMP'
tp457
F8
s(S'VP'
p458
S'VVAP'
tp459
F10
s(g167
S'NNAPP'
tp460
F2
s(S'PP'
S'PPAAAAP'
tp461
F1
s(S'VP'
p462
S'VVAPPP'
tp463
F1
s(g302
S'AAVCP'
tp464
F1
s(g133
S'NPP'
tp465
F182
s(S'PP'
p466
S'PPPPNP'
tp467
F1
s(g68
S'NVP'
tp468
F154
s(S'PP'
S'PPVVVP'
tp469
F1
s(S'PP'
S'PAAVP'
tp470
F2
s(g381
S'NAAPP'
tp471
F4
s(S'DP'
p472
S'ADVADAP'
tp473
F1
s(S'VP'
S'VDDP'
tp474
F32
s(g264
S'ADVADVNACP'
tp475
F1
s(S'AP'
S'AAADVDP'
tp476
F1
s(S'DP'
p477
S'DMP'
tp478
F2
s(S'DP'
S'DADVAPP'
tp479
F3
s(S'PP'
S'PAAAVP'
tp480
F1
s(S'NP'
p481
S'NADVADVVVP'
tp482
F3
s(S'NP'
S'ANPP'
tp483
F38
s(S'PP'
S'ADVPPDP'
tp484
F1
s(g466
S'PPPPP'
tp485
F5
s(S'MP'
S'MPDP'
tp486
F2
s(g160
S'MVVPP'
tp487
F1
s(S'PP'
S'PPPNP'
tp488
F1
s(g167
S'NPPPP'
tp489
F3
s(g139
S'ADDP'
tp490
F5
s(S'NP'
S'NNCCCCP'
tp491
F1
s(S'CP'
p492
S'CAADPP'
tp493
F3
s(S'DP'
S'DADVADVVP'
tp494
F1
s(S'NP'
S'NAACP'
tp495
F9
s(g43
S'PNNP'
tp496
F75
s(S'CP'
S'CDADVADVADVPPP'
tp497
F1
s(S'PP'
S'APNNP'
tp498
F2
s(S'DP'
S'DDAAP'
tp499
F2
s(S'DP'
S'AAADPP'
tp500
F1
s(S'VP'
S'AVAP'
tp501
F2
s(S'MP'
p502
S'MMVP'
tp503
F7
s(S'CP'
S'CADVADPPP'
tp504
F1
s(S'NP'
p505
S'ADVNCP'
tp506
F8
s(S'AP'
p507
S'AADP'
tp508
F27
s(S'VP'
S'VAPPP'
tp509
F1
s(S'CP'
p510
S'ACDP'
tp511
F36
s(S'VP'
p512
S'VCCP'
tp513
F13
s(g453
S'ADVADVVAAP'
tp514
F1
s(S'AP'
S'ADVANP'
tp515
F2
s(S'CP'
S'CCCCDDP'
tp516
F1
s(g93
S'NNACP'
tp517
F7
s(S'MP'
S'MDNNP'
tp518
F1
s(S'CP'
S'CDADVPPP'
tp519
F1
s(S'VP'
S'VAP'
tp520
F81
s(S'MP'
S'MNVVP'
tp521
F2
s(g34
S'DDDPP'
tp522
F11
s(S'CP'
p523
S'ADVCDDP'
tp524
F2
s(S'NP'
p525
S'AANNCP'
tp526
F1
s(S'PP'
S'ADVPMP'
tp527
F1
s(S'PP'
S'PAAPP'
tp528
F1
s(g371
S'DDDPPP'
tp529
F4
s(g439
S'DADVDP'
tp530
F2
s(S'MP'
S'MVVCCP'
tp531
F1
s(S'PP'
p532
S'APADVVP'
tp533
F1
s(S'MP'
S'AMVVVP'
tp534
F1
s(S'AP'
S'AVVP'
tp535
F2
s(S'PP'
S'PPPVP'
tp536
F1
s(g462
S'AAVAP'
tp537
F1
s(S'AP'
S'AADDP'
tp538
F3
s(S'PP'
p539
S'ADVAPMP'
tp540
F1
s(S'VP'
S'VAANP'
tp541
F3
s(S'NP'
S'NNNNDDDP'
tp542
F1
s(S'NP'
S'NADVADVCP'
tp543
F2
s(S'DP'
p544
S'DAAAAPP'
tp545
F1
s(S'DP'
S'ADVADVADVDVP'
tp546
F1
s(S'DP'
p547
S'DADVADVDP'
tp548
F1
s(S'VP'
S'VVAADP'
tp549
F1
s(S'MP'
S'MADP'
tp550
F2
s(g206
S'PPPDDP'
tp551
F2
s(g91
S'VVVDP'
tp552
F4
s(S'CP'
S'CCAADP'
tp553
F2
s(g88
S'PANP'
tp554
F47
s(S'DP'
S'AADNP'
tp555
F4
s(g357
S'AAVP'
tp556
F4
s(S'NP'
S'NAAP'
tp557
F6
s(g525
S'NDDP'
tp558
F11
s(g329
S'ACCP'
tp559
F11
s(g402
S'NNVVVP'
tp560
F2
s(g366
S'AVPPP'
tp561
F1
s(g133
S'NDP'
tp562
F82
s(S'PP'
S'PADVADVADVNP'
tp563
F1
s(S'NP'
S'AAANVP'
tp564
F1
s(S'DP'
S'DDVP'
tp565
F23
s(S'VP'
S'VVMMMP'
tp566
F1
s(S'NP'
S'AANVP'
tp567
F3
s(S'VP'
S'VNNNP'
tp568
F2
s(g38
S'ADVPAP'
tp569
F6
s(S'AP'
S'AADVADVADP'
tp570
F1
s(S'PP'
S'APPNP'
tp571
F2
s(S'NP'
S'NNPPP'
tp572
F6
s(S'PP'
p573
S'PAADP'
tp574
F4
s(S'NP'
S'ADVNNVP'
tp575
F1
s(S'NP'
S'NADVCCP'
tp576
F1
s(S'VP'
S'AVVVVVP'
tp577
F1
s(S'AP'
S'AADVAP'
tp578
F1
s(S'NP'
S'NNNDP'
tp579
F4
s(g227
S'MANCP'
tp580
F1
s(S'AP'
S'ADVACP'
tp581
F3
s(S'PP'
S'AAPNNP'
tp582
F3
s(g68
S'NNVP'
tp583
F35
s(S'NP'
S'NNAAVP'
tp584
F1
s(S'MP'
S'MVCP'
tp585
F10
s(S'CP'
S'CCDDP'
tp586
F22
s(S'VP'
p587
S'AAAVAP'
tp588
F1
s(S'VP'
S'AAVCCP'
tp589
F1
s(g544
S'DDADP'
tp590
F1
s(S'DP'
S'ADVADVDAANP'
tp591
F1
s(S'NP'
S'NAACCP'
tp592
F1
s(S'NP'
S'NNVVP'
tp593
F5
s(g153
S'NNNNVP'
tp594
F1
s(g66
S'VVCP'
tp595
F9
s(g260
S'PADVADVPP'
tp596
F1
s(g362
S'AANCP'
tp597
F10
s(S'VP'
S'VDP'
tp598
F186
s(S'NP'
S'ADVNMMP'
tp599
F1
s(S'CP'
S'CDDDADVADVPP'
tp600
F1
s(g206
S'APPP'
tp601
F17
s(S'PP'
S'AAAAPAAAP'
tp602
F1
s(g278
S'ADVVPP'
tp603
F4
s(S'CP'
S'CDAPPP'
tp604
F2
s(S'VP'
p605
S'VNNP'
tp606
F35
s(g573
S'APADVNP'
tp607
F1
s(g294
S'NADP'
tp608
F9
s(S'CP'
S'ADVCCDDP'
tp609
F1
s(g299
S'DDNP'
tp610
F51
s(g96
S'ACADVDP'
tp611
F1
s(g119
S'NADVCP'
tp612
F10
s(S'DP'
S'DDNNP'
tp613
F8
s(g18
S'AAPPP'
tp614
F1
s(g326
S'ADVANVP'
tp615
F2
s(S'NP'
S'AANAAAP'
tp616
F1
s(S'NP'
S'ADVADVNCP'
tp617
F2
s(g299
S'AADPP'
tp618
F6
s(g66
S'ADVVADVDP'
tp619
F1
s(S'MP'
S'MMAAAP'
tp620
F1
s(g144
S'AADDPPPP'
tp621
F1
s(S'DP'
S'DADVADVANP'
tp622
F1
s(S'NP'
S'ANVVVP'
tp623
F2
s(S'MP'
S'MADVVDP'
tp624
F3
s(S'MP'
S'MVVNP'
tp625
F4
s(S'CP'
S'CDDADVPPP'
tp626
F1
s(S'CP'
S'ACDDP'
tp627
F4
s(S'AP'
S'AAPP'
tp628
F3
s(g434
S'PADVANNP'
tp629
F1
s(S'VP'
S'VVCCP'
tp630
F6
s(S'DP'
S'DMMP'
tp631
F1
s(g523
S'ADVCADVDDDP'
tp632
F1
s(S'PP'
p633
S'PCP'
tp634
F2
s(g396
S'DAAAPP'
tp635
F6
s(S'PP'
S'ADVPANP'
tp636
F1
s(g587
S'VADVADP'
tp637
F2
s(g326
S'NAPP'
tp638
F21
s(S'PP'
S'APPVP'
tp639
F1
s(S'AP'
S'ADVADVADP'
tp640
F1
s(g61
S'NADVDP'
tp641
F4
s(S'VP'
S'VVVCP'
tp642
F2
s(g417
S'ANCCP'
tp643
F13
s(S'NP'
S'AANPP'
tp644
F5
s(g525
S'NNCCP'
tp645
F22
s(S'NP'
p646
S'NNMP'
tp647
F9
s(S'DP'
S'DDDVP'
tp648
F3
s(S'NP'
S'NNADVCP'
tp649
F1
s(S'DP'
S'DDADVVVP'
tp650
F1
s(g375
S'CADDPP'
tp651
F2
s(S'PP'
S'PAAAP'
tp652
F3
s(g55
S'ADVADVPNP'
tp653
F1
s(g206
S'PPPAP'
tp654
F1
s(g510
S'CDDAPP'
tp655
F5
s(S'NP'
S'AANAP'
tp656
F1
s(S'NP'
S'ANAP'
tp657
F2
s(S'AP'
S'AADVADVADVDDP'
tp658
F1
s(g78
S'MVAP'
tp659
F9
s(S'VP'
S'VADVADVDDP'
tp660
F1
s(g88
S'PVP'
tp661
F171
s(S'VP'
S'VADVCCP'
tp662
F1
s(g264
S'ADVNAVP'
tp663
F1
s(S'NP'
S'ANNCP'
tp664
F7
s(g646
S'AANNPPP'
tp665
F1
s(S'NP'
S'ADVADVADVNVP'
tp666
F1
s(g223
S'MMMMVP'
tp667
F1
s(g81
S'PPDDP'
tp668
F6
s(S'VP'
S'AVCP'
tp669
F4
s(g93
S'NAVVP'
tp670
F3
s(S'NP'
S'NAPPP'
tp671
F1
s(g22
S'DPP'
tp672
F288
s(S'NP'
S'ADVNVP'
tp673
F4
s(g195
S'DDPP'
tp674
F97
s(S'DP'
S'DDADVPPP'
tp675
F1
s(S'DP'
S'DDAVP'
tp676
F1
s(g299
S'DANP'
tp677
F47
s(S'NP'
p678
S'NADVPP'
tp679
F10
s(g505
S'NADVADP'
tp680
F1
s(S'PP'
S'AAPPVP'
tp681
F1
s(S'NP'
S'NAAVP'
tp682
F2
s(S'DP'
S'ADVADVADPP'
tp683
F1
s(S'PP'
S'PDDDP'
tp684
F1
s(g24
S'NNAPPP'
tp685
F1
s(g547
S'ADVADVDPPP'
tp686
F1
s(S'AP'
S'ADVADVACP'
tp687
F1
s(g276
S'PAVVP'
tp688
F1
s(g502
S'MDNP'
tp689
F3
s(S'NP'
S'NNAACP'
tp690
F1
s(S'PP'
S'PADVPPP'
tp691
F2
s(S'DP'
S'AADDP'
tp692
F2
s(g81
S'AAPDP'
tp693
F6
s(S'VP'
p694
S'VVDDP'
tp695
F10
s(g73
S'PDDP'
tp696
F54
s(S'MP'
S'MVDDP'
tp697
F3
s(g38
S'PCCP'
tp698
F1
s(S'NP'
S'NNNADVVP'
tp699
F1
s(S'DP'
S'ADPPP'
tp700
F9
s(g175
S'DDDDDAPPP'
tp701
F1
s(g694
S'AVDP'
tp702
F25
s(g204
S'AAPDDDP'
tp703
F1
s(S'NP'
p704
S'NNP'
tp705
F2
s(g139
S'ADVADPP'
tp706
F6
s(g139
S'DAANP'
tp707
F14
s(g507
S'ADDP'
tp708
F15
s(S'PP'
S'PNNNNP'
tp709
F1
s(S'PP'
p710
S'PPAPPP'
tp711
F1
s(g43
S'ADVPPNP'
tp712
F2
s(g315
S'DPPP'
tp713
F100
s(S'PP'
S'PPADVAMP'
tp714
F1
s(S'DP'
S'AADPPP'
tp715
F1
s(S'VP'
S'VANNP'
tp716
F1
s(S'NP'
S'NNAVP'
tp717
F2
s(S'VP'
S'AVVCP'
tp718
F2
s(g347
S'NMMMP'
tp719
F1
s(g76
S'ADVPNP'
tp720
F8
s(g48
S'PPDP'
tp721
F32
s(g41
S'ADVDCP'
tp722
F1
s(g157
S'PPPAAP'
tp723
F1
s(S'CP'
S'CAADADVPP'
tp724
F1
s(S'MP'
S'MVVAP'
tp725
F1
s(g285
S'ANADVADVVP'
tp726
F1
s(g633
S'PPADVDDP'
tp727
F1
s(S'AP'
S'ANNP'
tp728
F1
s(g133
S'NAP'
tp729
F41
s(S'NP'
S'NNAAP'
tp730
F2
s(g352
S'VAAAP'
tp731
F3
s(g66
S'VVP'
tp732
F21
s(S'MP'
p733
S'MDNNNP'
tp734
F1
s(g34
S'DDAPP'
tp735
F7
s(g276
S'ADVADVPVP'
tp736
F2
s(S'MP'
S'MVVVADVADP'
tp737
F1
s(g532
S'PADVADVANP'
tp738
F1
s(g73
S'APNP'
tp739
F40
s(S'VP'
S'VVVNNP'
tp740
F2
s(g144
S'DDDAPP'
tp741
F3
s(S'DP'
S'DDVVP'
tp742
F2
s(S'AP'
S'AAADDP'
tp743
F2
s(S'VP'
S'VVVNP'
tp744
F4
s(g678
S'NAMP'
tp745
F3
s(S'MP'
S'MVANP'
tp746
F3
s(S'DP'
S'ADVADVDDPP'
tp747
F2
s(S'MP'
S'MVNNP'
tp748
F2
s(S'PP'
p749
S'APPADVPP'
tp750
F1
s(S'PP'
S'PPPADVADVDP'
tp751
F1
s(g512
S'VVVVPPPP'
tp752
F1
s(S'MP'
S'MVVNNP'
tp753
F1
s(S'AP'
S'ADDDP'
tp754
F2
s(S'CP'
S'ADVCADP'
tp755
F2
s(S'NP'
p756
S'NNDP'
tp757
F13
s(g306
S'AVVPPP'
tp758
F1
s(g378
S'ADVCDP'
tp759
F10
s(S'PP'
S'AAPVVP'
tp760
F1
s(g142
S'AAAANNPP'
tp761
F1
s(S'PP'
S'AAAPVVP'
tp762
F1
s(S'PP'
S'APMMP'
tp763
F1
s(g262
S'PPNNP'
tp764
F13
s(g163
S'ADVPAVP'
tp765
F2
s(S'PP'
S'PADVCP'
tp766
F1
s(S'AP'
S'ADVACCP'
tp767
F4
s(S'CP'
S'CAADDPP'
tp768
F1
s(S'VP'
p769
S'VAADP'
tp770
F1
s(S'NP'
S'NADVAP'
tp771
F1
s(S'VP'
S'AVDDP'
tp772
F4
s(g472
S'DADVNP'
tp773
F7
s(g195
S'DAP'
tp774
F24
s(S'PP'
S'ADVAPPP'
tp775
F2
s(g492
S'CADPP'
tp776
F42
s(g117
S'ADVADVDVVP'
tp777
F1
s(S'VP'
S'ADVADVVVPP'
tp778
F1
s(S'DP'
p779
S'ADAPPP'
tp780
F1
s(S'PP'
S'PPDDDP'
tp781
F2
s(g769
S'AVPP'
tp782
F6
s(S'CP'
S'CAADPPP'
tp783
F1
s(S'MP'
S'AMNP'
tp784
F1
s(S'VP'
S'VVADVDP'
tp785
F1
s(S'CP'
S'CDDPPPPP'
tp786
F1
s(S'CP'
S'CDPPPP'
tp787
F2
s(g455
S'ADVADADVPP'
tp788
F1
s(g477
S'ADVDAAPP'
tp789
F2
s(S'PP'
S'PANNP'
tp790
F4
s(S'NP'
S'NNDDP'
tp791
F3
s(g779
S'DAPPP'
tp792
F3
s(S'DP'
S'DADVADVPP'
tp793
F1
s(S'NP'
S'AANVVP'
tp794
F1
s(S'DP'
S'ADVDPP'
tp795
F25
s(g539
S'PPAANP'
tp796
F3
s(g405
S'PADVADVNP'
tp797
F2
s(g408
S'NNNP'
tp798
F1
s(g244
S'ADPP'
tp799
F73
s(g100
S'VADVPP'
tp800
F1
s(S'DP'
S'ADVDANP'
tp801
F2
s(g115
S'ADVPVP'
tp802
F7
s(S'DP'
S'DDDDPP'
tp803
F2
s(g756
S'ADVADVANCP'
tp804
F4
s(g251
S'ADVVANP'
tp805
F1
s(g443
S'PAMP'
tp806
F3
s(g236
S'ADVPDP'
tp807
F6
s(g146
S'ADVVADP'
tp808
F1
s(S'NP'
S'ANNPP'
tp809
F1
s(g68
S'NCP'
tp810
F223
s(S'CP'
S'CADVDPPP'
tp811
F3
s(S'DP'
S'ADAVVVVP'
tp812
F1
s(S'PP'
S'PPADVNNP'
tp813
F1
s(g206
S'AAAPNP'
tp814
F2
s(S'NP'
S'ADVANDP'
tp815
F1
s(S'AP'
S'AAAP'
tp816
F1
s(S'AP'
S'AAMP'
tp817
F1
s(g448
S'ADVPDDP'
tp818
F2
s(S'DP'
S'AADADVPP'
tp819
F1
s(S'VP'
S'AAVVDP'
tp820
F1
s(g481
S'AANDP'
tp821
F6
s(S'MP'
S'MVCCP'
tp822
F1
s(S'DP'
S'DADVNNP'
tp823
F1
s(S'AP'
S'AAADVADVADVDP'
tp824
F1
s(S'VP'
S'VDDDP'
tp825
F2
s(S'MP'
S'MNVP'
tp826
F5
s(g710
S'ADVPADVDDDP'
tp827
F1
s(S'CP'
p828
S'ADVADVCCDP'
tp829
F1
s(g362
S'NNPP'
tp830
F30
s(S'PP'
S'PADVADVAP'
tp831
F1
s(g150
S'VAPP'
tp832
F12
s(g453
S'ADVADVAVADVNP'
tp833
F1
s(g749
S'ADVPAAAVP'
tp834
F1
s(g733
S'MAVNP'
tp835
F1
s(g605
S'ADVVDP'
tp836
F7
s(g29
S'VADDP'
tp837
F1
s(g299
S'DADVPP'
tp838
F16
s(S'CP'
S'CCADP'
tp839
F11
s(g61
S'ADVNNCP'
tp840
F3
s(S'PP'
S'PPADDP'
tp841
F1
s(S'AP'
S'ADVAPP'
tp842
F4
s(S'DP'
S'DDADVAPP'
tp843
F1
s(g9
S'ADVDAVP'
tp844
F1
s(S'CP'
S'AACDP'
tp845
F8
s(S'NP'
S'NNNCCP'
tp846
F1
s(g510
S'CCDDDP'
tp847
F4
s(S'DP'
S'ADVDPPP'
tp848
F3
s(g315
S'DVP'
tp849
F177
s(S'VP'
S'AVNNP'
tp850
F3
s(g347
S'ADVNPP'
tp851
F3
s(S'NP'
S'NNCCCP'
tp852
F2
s(S'AP'
S'AVP'
tp853
F22
s(S'DP'
S'DDDDVP'
tp854
F1
s(g704
S'NADVVP'
tp855
F5
s(g828
S'CDAAAPP'
tp856
F1
s(g299
S'DDPPP'
tp857
F27
s(g240
S'ADVNMP'
tp858
F1
s(S'NP'
S'NNAP'
tp859
F5
s(S'CP'
S'ADVACADVDP'
tp860
F1
s(S'PP'
S'AAPDDP'
tp861
F1
s(S'MP'
S'MADVVCP'
tp862
F3
s(g290
S'PPANP'
tp863
F5
s(S'MP'
S'MCDDP'
tp864
F1
s(S'VP'
S'AAAVNP'
tp865
F2
s(g492
S'CDADVPP'
tp866
F8
s(g343
S'VNP'
tp867
F158
s(g258
S'VANP'
tp868
F24
s(g458
S'VADVAP'
tp869
F9
s(S'PP'
S'PPADVNP'
tp870
F2
s(g18
S'APDP'
tp871
F46
s(S'VP'
S'ADVADVVVDP'
tp872
F3
s.