ccollections
defaultdict
p1
(c__builtin__
float
p2
tRp3
(S'CP'
p4
S'CAAADPP'
tp5
F2
s(S'PP'
p6
S'PAAANP'
tp7
F1
s(S'DP'
p8
S'DDAP'
tp9
F1
s(S'DP'
p10
S'DAANNP'
tp11
F1
s(S'AP'
S'AVVVP'
tp12
F1
s(S'PP'
p13
S'PAPP'
tp14
F9
s(S'PP'
S'PADVNP'
tp15
F8
s(S'DP'
p16
S'DNP'
tp17
F114
s(S'MP'
S'MVVAAP'
tp18
F1
s(S'NP'
p19
S'ADVNDP'
tp20
F1
s(S'PP'
S'AAPDDP'
tp21
F1
s(S'CP'
S'CDPPP'
tp22
F21
s(S'VP'
S'VADP'
tp23
F9
s(S'DP'
p24
S'DAAP'
tp25
F3
s(S'DP'
S'ADNNP'
tp26
F2
s(S'VP'
S'AVADVDP'
tp27
F1
s(S'CP'
p28
S'ACDDDDP'
tp29
F1
s(S'PP'
p30
S'APVP'
tp31
F14
s(S'MP'
p32
S'MVDP'
tp33
F11
s(S'PP'
p34
S'PPPP'
tp35
F19
s(S'DP'
S'DDDNP'
tp36
F3
s(S'PP'
S'PPAAAAVP'
tp37
F1
s(S'VP'
p38
S'VACP'
tp39
F3
s(S'DP'
p40
S'DADVVP'
tp41
F3
s(S'NP'
S'NDDDP'
tp42
F1
s(S'NP'
S'NCCCP'
tp43
F2
s(S'VP'
p44
S'VCP'
tp45
F48
s(S'NP'
p46
S'NMMP'
tp47
F3
s(S'VP'
p48
S'ADVVAAP'
tp49
F1
s(S'VP'
p50
S'ADVVCCP'
tp51
F1
s(S'PP'
p52
S'PAP'
tp53
F48
s(S'MP'
S'MMVVP'
tp54
F1
s(S'PP'
p55
S'ADVPPVP'
tp56
F2
s(S'VP'
S'VADVNP'
tp57
F1
s(S'NP'
p58
S'ANPPP'
tp59
F1
s(S'VP'
S'AAVNNP'
tp60
F1
s(S'PP'
p61
S'PNP'
tp62
F118
s(S'AP'
S'AADVADVDP'
tp63
F1
s(S'DP'
p64
S'DDP'
tp65
F20
s(S'NP'
p66
S'NNNPP'
tp67
F1
s(S'PP'
p68
S'PAAP'
tp69
F6
s(g46
S'NNADVADVCP'
tp70
F1
s(S'VP'
S'ADVADVVVCP'
tp71
F2
s(S'NP'
p72
S'NMP'
tp73
F35
s(S'VP'
S'AAVNP'
tp74
F1
s(S'PP'
p75
S'PDP'
tp76
F109
s(S'CP'
S'CDAAPP'
tp77
F5
s(S'NP'
p78
S'ADVNVVP'
tp79
F1
s(S'VP'
S'VNNNNP'
tp80
F1
s(S'MP'
S'MNNVP'
tp81
F1
s(S'VP'
S'AVAAP'
tp82
F1
s(S'PP'
S'ADVPAAP'
tp83
F1
s(g78
S'NADVADVADVVP'
tp84
F1
s(S'PP'
p85
S'PADVPP'
tp86
F2
s(S'NP'
p87
S'NNADVCP'
tp88
F3
s(S'MP'
S'MVACP'
tp89
F1
s(S'NP'
p90
S'ANVVVVP'
tp91
F1
s(S'DP'
p92
S'DPPPP'
tp93
F4
s(S'AP'
S'APP'
tp94
F17
s(S'NP'
p95
S'NACP'
tp96
F13
s(S'NP'
S'NNNNDDP'
tp97
F1
s(S'NP'
p98
S'NCCP'
tp99
F30
s(S'PP'
p100
S'PPPPPPPPPPP'
tp101
F1
s(S'NP'
p102
S'NNCP'
tp103
F35
s(S'NP'
S'AANPPP'
tp104
F1
s(S'NP'
S'NADVADVVP'
tp105
F1
s(S'VP'
S'AVNP'
tp106
F4
s(S'VP'
S'VVADP'
tp107
F1
s(S'MP'
S'MVADVADVDP'
tp108
F1
s(S'DP'
S'DDADVVP'
tp109
F1
s(S'VP'
S'ADVADVADVVNP'
tp110
F1
s(g28
S'CCCDP'
tp111
F3
s(S'VP'
S'ADVVAP'
tp112
F4
s(S'VP'
S'VCCCP'
tp113
F1
s(g24
S'DADVADVADVADVPP'
tp114
F1
s(S'VP'
p115
S'ADVVNNP'
tp116
F1
s(S'AP'
S'AADVCP'
tp117
F3
s(S'VP'
p118
S'VVADVADVVP'
tp119
F1
s(S'VP'
p120
S'VVANP'
tp121
F2
s(S'PP'
S'ADVPNNP'
tp122
F1
s(S'PP'
S'PCCP'
tp123
F1
s(S'DP'
p124
S'DNNP'
tp125
F27
s(S'DP'
S'DPPPPP'
tp126
F2
s(g4
S'CCADVDP'
tp127
F1
s(S'DP'
p128
S'ADDNP'
tp129
F2
s(S'NP'
S'NNNVP'
tp130
F1
s(S'PP'
p131
S'ADVAPVVP'
tp132
F1
s(S'PP'
S'PADVVP'
tp133
F4
s(S'NP'
S'ANNADVCP'
tp134
F1
s(g6
S'APAP'
tp135
F2
s(S'CP'
S'ADVADVCDP'
tp136
F2
s(S'NP'
S'NADVMP'
tp137
F1
s(S'AP'
S'AAP'
tp138
F3
s(S'VP'
S'VADVADVVP'
tp139
F1
s(S'VP'
p140
S'VVAPP'
tp141
F1
s(S'NP'
S'ADVADVNCCP'
tp142
F1
s(S'DP'
S'DAAVP'
tp143
F1
s(S'CP'
S'CDDDDPP'
tp144
F2
s(S'PP'
S'PAANP'
tp145
F4
s(S'PP'
S'PPVVP'
tp146
F3
s(g115
S'VAACP'
tp147
F1
s(S'MP'
p148
S'MVNP'
tp149
F10
s(S'NP'
p150
S'ANAAP'
tp151
F2
s(S'MP'
p152
S'ADVADVADVMVP'
tp153
F1
s(S'PP'
S'PAVP'
tp154
F8
s(S'CP'
p155
S'ADVCDDDP'
tp156
F1
s(S'MP'
S'MDVP'
tp157
F1
s(S'PP'
S'APPPP'
tp158
F1
s(S'DP'
p159
S'DADP'
tp160
F2
s(S'AP'
S'ADVADP'
tp161
F2
s(S'VP'
p162
S'VVVVAAP'
tp163
F1
s(g13
S'APDDP'
tp164
F4
s(S'VP'
p165
S'ADVVNP'
tp166
F1
s(S'VP'
S'VVNP'
tp167
F14
s(S'PP'
p168
S'PPVP'
tp169
F22
s(g118
S'VADVDP'
tp170
F2
s(S'DP'
p171
S'DDDPP'
tp172
F2
s(S'VP'
S'VAAP'
tp173
F6
s(S'NP'
S'ANDP'
tp174
F2
s(S'NP'
p175
S'NVVP'
tp176
F10
s(g52
S'AAPVP'
tp177
F1
s(S'VP'
p178
S'VMP'
tp179
F5
s(S'VP'
p180
S'VVNNP'
tp181
F2
s(S'CP'
S'CDAPP'
tp182
F23
s(S'VP'
S'VVAAP'
tp183
F2
s(S'CP'
S'CADVADPP'
tp184
F1
s(S'DP'
S'ADNP'
tp185
F12
s(S'PP'
p186
S'PADP'
tp187
F10
s(g24
S'DADVAP'
tp188
F1
s(S'DP'
p189
S'DAPP'
tp190
F36
s(S'VP'
S'AVVP'
tp191
F1
s(S'VP'
S'VADVADVNP'
tp192
F1
s(S'VP'
S'ADVADVADVVDP'
tp193
F1
s(S'PP'
p194
S'AAAPVP'
tp195
F1
s(g118
S'ADVADVVDP'
tp196
F3
s(S'AP'
S'AAPPP'
tp197
F1
s(S'VP'
S'VDDDDP'
tp198
F1
s(S'DP'
S'DAAANP'
tp199
F1
s(S'DP'
S'ADVDNP'
tp200
F3
s(S'VP'
p201
S'VVPP'
tp202
F7
s(S'DP'
S'ADADVPP'
tp203
F1
s(S'CP'
S'AACDDP'
tp204
F1
s(S'MP'
S'MVPP'
tp205
F6
s(S'DP'
p206
S'ADVP'
tp207
F4
s(S'CP'
p208
S'CDDPPP'
tp209
F3
s(S'CP'
S'ADVADVADVCDDP'
tp210
F1
s(g175
S'NNPP'
tp211
F21
s(S'DP'
p212
S'DDDDNP'
tp213
F1
s(S'MP'
S'MVVDP'
tp214
F3
s(S'DP'
p215
S'DADVPPP'
tp216
F2
s(g98
S'ANVP'
tp217
F12
s(g159
S'DNNNP'
tp218
F4
s(S'DP'
S'ADVDDVP'
tp219
F1
s(S'VP'
S'VADVDDP'
tp220
F1
s(S'VP'
S'ADVVCP'
tp221
F3
s(S'PP'
p222
S'PVVVP'
tp223
F1
s(g52
S'PMP'
tp224
F13
s(g186
S'PADVADVADVVP'
tp225
F1
s(S'CP'
p226
S'CCDP'
tp227
F56
s(g66
S'ANNDP'
tp228
F1
s(S'MP'
S'AMVP'
tp229
F3
s(S'CP'
S'CDDDPP'
tp230
F1
s(S'CP'
p231
S'CDADVADVPP'
tp232
F3
s(S'VP'
S'VVVDP'
tp233
F1
s(S'NP'
S'AAANCCP'
tp234
F1
s(S'PP'
S'PNNNP'
tp235
F3
s(g61
S'PVP'
tp236
F92
s(S'AP'
p237
S'AACCP'
tp238
F1
s(S'PP'
p239
S'AAPNP'
tp240
F1
s(g61
S'PPP'
tp241
F51
s(S'NP'
S'NNVVP'
tp242
F2
s(S'NP'
p243
S'NAVP'
tp244
F9
s(S'PP'
p245
S'PADVAP'
tp246
F2
s(g245
S'PADDP'
tp247
F1
s(g124
S'ADVDVP'
tp248
F3
s(S'MP'
S'MPAAP'
tp249
F1
s(S'DP'
p250
S'ADVADVDNP'
tp251
F1
s(g44
S'VPP'
tp252
F43
s(S'DP'
S'ADVDAAVP'
tp253
F1
s(g10
S'ADVDDNP'
tp254
F1
s(S'NP'
S'NNNCP'
tp255
F5
s(S'PP'
S'PADVDP'
tp256
F1
s(g208
S'CDDPP'
tp257
F30
s(S'DP'
S'DAAPP'
tp258
F6
s(S'PP'
S'PVVP'
tp259
F16
s(S'CP'
S'CADPPP'
tp260
F4
s(S'AP'
S'AACP'
tp261
F5
s(S'NP'
p262
S'NNADVADVACP'
tp263
F1
s(g13
S'PMMP'
tp264
F3
s(S'VP'
p265
S'VPPP'
tp266
F11
s(g48
S'ADVVVCCP'
tp267
F1
s(S'MP'
S'MVPPP'
tp268
F1
s(S'DP'
p269
S'DVVP'
tp270
F19
s(S'NP'
S'ANMP'
tp271
F2
s(g30
S'PPAP'
tp272
F4
s(S'DP'
p273
S'ADVADPPP'
tp274
F1
s(S'NP'
S'ADVADVNVP'
tp275
F1
s(g165
S'VVVP'
tp276
F5
s(g226
S'CADVDPP'
tp277
F6
s(S'VP'
p278
S'AVMP'
tp279
F1
s(S'NP'
p280
S'ANCP'
tp281
F23
s(g206
S'DCP'
tp282
F1
s(S'CP'
S'ADVCAAADP'
tp283
F1
s(S'NP'
S'AAANCP'
tp284
F1
s(S'DP'
p285
S'DDDP'
tp286
F7
s(S'DP'
p287
S'DDADVPP'
tp288
F2
s(g265
S'VVDP'
tp289
F17
s(g102
S'NPPP'
tp290
F13
s(S'DP'
p291
S'ADDDP'
tp292
F2
s(S'PP'
S'PADVADVADVADVMMP'
tp293
F1
s(S'AP'
p294
S'APPP'
tp295
F6
s(g273
S'DAVP'
tp296
F5
s(S'AP'
p297
S'ACP'
tp298
F25
s(g194
S'PAAAPP'
tp299
F1
s(S'PP'
p300
S'PPNP'
tp301
F22
s(S'AP'
S'ADVACCP'
tp302
F1
s(S'NP'
S'NNNNCCP'
tp303
F2
s(S'CP'
S'ADVADVADVACDP'
tp304
F1
s(S'CP'
S'CDDADVPP'
tp305
F1
s(S'CP'
S'CCCDDP'
tp306
F1
s(S'AP'
S'ADP'
tp307
F69
s(S'PP'
S'APMP'
tp308
F1
s(g40
S'DDAVP'
tp309
F1
s(S'PP'
p310
S'APVVP'
tp311
F2
s(g243
S'AAANNCP'
tp312
F1
s(S'AP'
S'AAADVAVP'
tp313
F1
s(S'VP'
S'AAAVDP'
tp314
F1
s(S'AP'
S'AAADP'
tp315
F1
s(S'NP'
p316
S'ANNVP'
tp317
F1
s(S'VP'
p318
S'VVAP'
tp319
F6
s(S'NP'
S'NNAPP'
tp320
F1
s(S'NP'
p321
S'NNADVADVADVVP'
tp322
F3
s(g310
S'PPADVVP'
tp323
F1
s(S'VP'
S'AAVCP'
tp324
F1
s(S'NP'
S'NADVADVDP'
tp325
F1
s(S'DP'
S'ADVADVADVDDPP'
tp326
F1
s(g102
S'NVP'
tp327
F87
s(S'VP'
p328
S'VVNNNNP'
tp329
F1
s(g321
S'NAAPP'
tp330
F2
s(S'VP'
S'VDDP'
tp331
F16
s(g239
S'ADVADVADVADVPNP'
tp332
F1
s(g287
S'DADVAPP'
tp333
F1
s(S'PP'
S'PAAAVP'
tp334
F1
s(S'NP'
S'NADVADVVVP'
tp335
F2
s(g58
S'ANPP'
tp336
F21
s(S'PP'
S'PPPPP'
tp337
F3
s(S'MP'
S'MVVPP'
tp338
F1
s(g64
S'ADVDPP'
tp339
F12
s(g291
S'ADDP'
tp340
F2
s(S'CP'
p341
S'CAADPP'
tp342
F5
s(S'CP'
S'ADVADVADVCAADP'
tp343
F1
s(g285
S'DADVADVVP'
tp344
F1
s(S'NP'
p345
S'NAACP'
tp346
F1
s(S'PP'
S'PNNP'
tp347
F26
s(S'PP'
S'APNNP'
tp348
F3
s(S'DP'
S'DDAAP'
tp349
F1
s(S'MP'
S'MMNP'
tp350
F1
s(S'DP'
S'AAADPP'
tp351
F3
s(S'VP'
S'AVAP'
tp352
F1
s(S'MP'
S'MMVP'
tp353
F4
s(S'NP'
p354
S'ADVNCP'
tp355
F10
s(S'AP'
S'AADP'
tp356
F16
s(S'CP'
S'ACDP'
tp357
F19
s(g44
S'VCCP'
tp358
F7
s(S'AP'
S'ADVANP'
tp359
F1
s(S'NP'
S'NNACP'
tp360
F1
s(S'MP'
S'MDNNP'
tp361
F1
s(S'CP'
S'CDADVPPP'
tp362
F2
s(g178
S'VAP'
tp363
F54
s(S'DP'
p364
S'ADVADVDDNNP'
tp365
F1
s(S'CP'
p366
S'ADVCDDP'
tp367
F3
s(S'PP'
S'PAAPP'
tp368
F1
s(S'VP'
S'ADVAVDP'
tp369
F1
s(g8
S'DADVDP'
tp370
F2
s(S'CP'
S'CCADVADP'
tp371
F1
s(S'AP'
S'AAACP'
tp372
F1
s(S'PP'
p373
S'PPPVP'
tp374
F2
s(S'AP'
S'AADDP'
tp375
F3
s(S'VP'
S'VAANP'
tp376
F2
s(S'MP'
S'MPNP'
tp377
F1
s(S'MP'
S'MADP'
tp378
F1
s(S'CP'
S'CCAADP'
tp379
F1
s(g300
S'PANP'
tp380
F12
s(S'NP'
p381
S'NAAP'
tp382
F4
s(g95
S'NDDP'
tp383
F9
s(S'MP'
S'MVADVDP'
tp384
F1
s(g294
S'ACCP'
tp385
F6
s(S'AP'
S'APPPP'
tp386
F1
s(g102
S'NDP'
tp387
F40
s(g102
S'NNNNVVP'
tp388
F1
s(g152
S'MVAAP'
tp389
F1
s(g64
S'DDVP'
tp390
F14
s(S'NP'
S'AANVP'
tp391
F2
s(g212
S'ADDVP'
tp392
F1
s(g165
S'VNNNP'
tp393
F2
s(S'PP'
p394
S'ADVPAP'
tp395
F3
s(S'PP'
p396
S'PCP'
tp397
F2
s(S'NP'
p398
S'NNPPP'
tp399
F2
s(S'NP'
S'NADVADVADVMP'
tp400
F1
s(S'NP'
S'ANADVDP'
tp401
F1
s(S'VP'
S'ADVAVNNP'
tp402
F1
s(S'NP'
S'NNNDP'
tp403
F1
s(g297
S'ADVACP'
tp404
F4
s(S'NP'
S'AANVVVP'
tp405
F1
s(S'PP'
p406
S'AAPNNP'
tp407
F2
s(S'VP'
p408
S'VVVAP'
tp409
F1
s(S'DP'
S'ADPPP'
tp410
F4
s(g345
S'NNAAVP'
tp411
F1
s(S'MP'
S'MVCP'
tp412
F9
s(S'CP'
S'CCDDP'
tp413
F6
s(S'NP'
S'NNADVVP'
tp414
F2
s(S'VP'
S'ADVADVADVVPP'
tp415
F1
s(S'DP'
S'DDADP'
tp416
F1
s(g162
S'VADVADVADVACP'
tp417
F1
s(S'MP'
S'MADVADVADVVPP'
tp418
F1
s(S'DP'
S'DADVNP'
tp419
F3
s(S'NP'
S'NNNNVP'
tp420
F1
s(g278
S'VVCP'
tp421
F6
s(S'PP'
p422
S'PADVADVPP'
tp423
F1
s(S'NP'
S'AANCP'
tp424
F4
s(S'VP'
p425
S'VAADP'
tp426
F1
s(g316
S'NNDDP'
tp427
F1
s(S'VP'
S'ADVVPP'
tp428
F1
s(S'CP'
S'CADVADVADVDDPP'
tp429
F1
s(g180
S'VNNP'
tp430
F15
s(g237
S'AADVDP'
tp431
F2
s(S'VP'
S'AAAAVNNP'
tp432
F1
s(g189
S'DDNP'
tp433
F20
s(g262
S'NADVCP'
tp434
F3
s(S'DP'
S'DDNNP'
tp435
F8
s(g222
S'ADVAPADVADVVP'
tp436
F1
s(S'CP'
S'ADVADVCCDDP'
tp437
F1
s(g381
S'ADVADVNCP'
tp438
F2
s(g364
S'AADPP'
tp439
F7
s(S'DP'
S'DAAAANP'
tp440
F1
s(g394
S'AAPDP'
tp441
F5
s(S'NP'
p442
S'NADVADVCCP'
tp443
F1
s(S'MP'
S'MVVNP'
tp444
F2
s(S'CP'
S'CDDADVPPP'
tp445
F1
s(g366
S'ACDDP'
tp446
F1
s(g90
S'ADVADVNNCP'
tp447
F1
s(S'PP'
S'PPPPDDP'
tp448
F1
s(g120
S'ADVADVVANNP'
tp449
F1
s(S'AP'
S'AAPP'
tp450
F7
s(g38
S'VVCCP'
tp451
F1
s(S'PP'
S'PADVMP'
tp452
F1
s(S'DP'
S'DADVADVNP'
tp453
F1
s(g131
S'ADVPANP'
tp454
F2
s(S'VP'
S'VVVCCP'
tp455
F1
s(S'NP'
S'NAPP'
tp456
F7
s(g102
S'NADVDP'
tp457
F3
s(g13
S'ADVPPPP'
tp458
F1
s(g58
S'ANCCP'
tp459
F10
s(S'NP'
p460
S'AANPP'
tp461
F1
s(S'VP'
S'VDDDP'
tp462
F2
s(g102
S'NNMP'
tp463
F5
s(S'CP'
p464
S'ADVADVACDP'
tp465
F1
s(S'PP'
S'ADVADVPNP'
tp466
F4
s(g345
S'AAAANCP'
tp467
F1
s(S'CP'
S'CDDAPP'
tp468
F3
s(g32
S'MVAP'
tp469
F7
s(S'MP'
S'MVVVAP'
tp470
F1
s(S'AP'
S'AADVDDP'
tp471
F1
s(g442
S'ANNCP'
tp472
F1
s(S'PP'
S'PPDDP'
tp473
F1
s(S'NP'
S'NADVADVAP'
tp474
F1
s(S'DP'
p475
S'DPP'
tp476
F155
s(S'NP'
S'ADVNVP'
tp477
F2
s(g269
S'DDPP'
tp478
F51
s(g250
S'DDADVPPP'
tp479
F2
s(g475
S'DANP'
tp480
F37
s(g19
S'NADVPP'
tp481
F4
s(S'NP'
S'NAAVP'
tp482
F1
s(g128
S'AADNP'
tp483
F1
s(g48
S'VADVCP'
tp484
F1
s(S'VP'
S'ADVVADVCP'
tp485
F1
s(g148
S'MDNP'
tp486
F1
s(S'NP'
S'AANNDP'
tp487
F1
s(g55
S'PADVPPP'
tp488
F2
s(S'DP'
S'DCCP'
tp489
F1
s(S'CP'
S'CDPPPPP'
tp490
F2
s(S'VP'
S'VVDDP'
tp491
F5
s(S'MP'
S'ADVMNNP'
tp492
F1
s(g68
S'PDDP'
tp493
F16
s(g131
S'PADVAPP'
tp494
F1
s(S'NP'
p495
S'NNNADVVP'
tp496
F1
s(g72
S'NNVP'
tp497
F20
s(S'AP'
S'ADVADVACP'
tp498
F1
s(S'VP'
p499
S'AVDP'
tp500
F15
s(g95
S'NNP'
tp501
F1
s(g291
S'ADVADPP'
tp502
F2
s(S'DP'
S'DAANP'
tp503
F5
s(g237
S'ADDP'
tp504
F8
s(S'VP'
S'ADVADVADVVCP'
tp505
F3
s(S'PP'
S'ADVPPNP'
tp506
F3
s(g422
S'PPPADVADVNNP'
tp507
F1
s(g124
S'DPPP'
tp508
F47
s(S'PP'
S'PNNNNP'
tp509
F1
s(S'NP'
S'NNAVP'
tp510
F1
s(g13
S'ADVPNP'
tp511
F6
s(g75
S'PPDP'
tp512
F29
s(S'MP'
S'MAVDP'
tp513
F1
s(S'PP'
S'APADVADVNP'
tp514
F1
s(S'MP'
S'MVVAP'
tp515
F1
s(S'CP'
S'CADADVADVPP'
tp516
F1
s(S'MP'
S'ADVADVADVADVMMVP'
tp517
F1
s(g321
S'NNADVADP'
tp518
F1
s(g150
S'NAP'
tp519
F22
s(S'NP'
S'NNAAP'
tp520
F1
s(S'VP'
S'VAAAP'
tp521
F1
s(g408
S'AAVADVNP'
tp522
F1
s(g318
S'VVP'
tp523
F13
s(S'MP'
S'ADVMNP'
tp524
F1
s(g215
S'DDAPP'
tp525
F6
s(g422
S'ADVADVPVP'
tp526
F1
s(g13
S'APNP'
tp527
F12
s(g364
S'DDVVP'
tp528
F3
s(g155
S'CADVADVDPP'
tp529
F1
s(g120
S'VVVNP'
tp530
F1
s(S'MP'
S'AMAP'
tp531
F1
s(S'NP'
S'NAMP'
tp532
F2
s(g231
S'CDPP'
tp533
F138
s(g464
S'ADVCADP'
tp534
F1
s(S'NP'
S'NNDP'
tp535
F6
s(S'DP'
S'ADADVADVPP'
tp536
F1
s(S'CP'
S'ADVCDP'
tp537
F6
s(S'NP'
S'NADVADVADVCP'
tp538
F2
s(S'PP'
S'ADVPVVP'
tp539
F1
s(S'MP'
S'MNDDP'
tp540
F1
s(g201
S'ADVADVVCP'
tp541
F2
s(g328
S'VADVADVDP'
tp542
F1
s(g75
S'PPNNP'
tp543
F11
s(g171
S'ADVADVDPP'
tp544
F2
s(g178
S'VDP'
tp545
F95
s(g68
S'PPPADVNP'
tp546
F1
s(S'NP'
S'NADVAP'
tp547
F1
s(g50
S'AVDDP'
tp548
F2
s(g341
S'ADVADVCDDP'
tp549
F1
s(g92
S'DAP'
tp550
F14
s(S'CP'
S'CADPP'
tp551
F16
s(S'NP'
S'NADVAVP'
tp552
F1
s(g406
S'PPAVP'
tp553
F1
s(S'MP'
S'MADVADVVDP'
tp554
F1
s(g140
S'AVPP'
tp555
F3
s(S'CP'
S'CDPPPP'
tp556
F2
s(S'VP'
S'VADVADVCCP'
tp557
F1
s(S'VP'
S'AAVDP'
tp558
F1
s(S'PP'
S'PANNP'
tp559
F2
s(S'PP'
S'APPP'
tp560
F7
s(g475
S'DADVADVPP'
tp561
F3
s(S'DP'
S'DMP'
tp562
F2
s(S'PP'
p563
S'PPPNP'
tp564
F2
s(g72
S'NPP'
tp565
F92
s(g6
S'PADVADVNP'
tp566
F1
s(g16
S'ADPP'
tp567
F27
s(g495
S'NNADVVVP'
tp568
F1
s(g408
S'VADVPP'
tp569
F1
s(S'PP'
S'ADVPVP'
tp570
F5
s(g40
S'DDDDPP'
tp571
F3
s(S'VP'
S'VVADVADVCP'
tp572
F2
s(g373
S'PAMP'
tp573
F2
s(g168
S'ADVPDP'
tp574
F3
s(g85
S'PAAVP'
tp575
F1
s(S'VP'
S'ADVVADP'
tp576
F1
s(S'NP'
S'ANNPP'
tp577
F1
s(S'MP'
S'MVADVAP'
tp578
F2
s(g72
S'NCP'
tp579
F119
s(S'CP'
S'CADVDPPP'
tp580
F1
s(S'DP'
S'ADVVP'
tp581
F1
s(S'AP'
S'AAMP'
tp582
F1
s(S'PP'
S'ADVPDDP'
tp583
F1
s(S'NP'
S'AANDP'
tp584
F1
s(S'MP'
S'MVCCP'
tp585
F1
s(g354
S'NNCCP'
tp586
F11
s(S'MP'
S'MNVP'
tp587
F2
s(S'NP'
S'AANAP'
tp588
F1
s(S'CP'
S'ADVADVCCDP'
tp589
F1
s(g87
S'AANCCP'
tp590
F1
s(g499
S'VAPP'
tp591
F4
s(S'MP'
S'MAVNP'
tp592
F1
s(S'VP'
S'ADVVDP'
tp593
F3
s(g425
S'VADDP'
tp594
F2
s(g269
S'DADVPP'
tp595
F12
s(S'CP'
S'CCADP'
tp596
F5
s(S'AP'
S'ADVAPP'
tp597
F2
s(g155
S'AACDP'
tp598
F1
s(S'NP'
S'NNNCCP'
tp599
F2
s(g159
S'ADVDPPP'
tp600
F1
s(g124
S'DVP'
tp601
F85
s(g398
S'NNCCCP'
tp602
F1
s(g34
S'PADVADVDDP'
tp603
F1
s(S'AP'
S'AVP'
tp604
F12
s(g280
S'NADVVP'
tp605
F5
s(S'NP'
S'NNADVADVVP'
tp606
F1
s(g269
S'DDPPP'
tp607
F8
s(g100
S'PPPPPPVP'
tp608
F1
s(g460
S'ADVNMP'
tp609
F2
s(S'NP'
S'NNAP'
tp610
F3
s(g396
S'PPANP'
tp611
F1
s(g208
S'CDADVPP'
tp612
F8
s(g318
S'VNP'
tp613
F86
s(S'VP'
S'VANP'
tp614
F9
s(g178
S'VADVAP'
tp615
F5
s(g563
S'PPADVNP'
tp616
F2
s(g52
S'APDP'
tp617
F19
s.