ccollections
defaultdict
p1
(c__builtin__
float
p2
tRp3
(S'DP'
p4
S'DDPP'
tp5
F2
s(S'VP'
p6
S'VCP'
tp7
F2
s(g6
S'VPP'
tp8
F2
s(S'NP'
p9
S'NACP'
tp10
F1
s(S'CP'
p11
S'CCADVDP'
tp12
F1
s(g9
S'NCCP'
tp13
F2
s(S'PP'
p14
S'PPNP'
tp15
F2
s(g9
S'NNCP'
tp16
F1
s(g14
S'PAP'
tp17
F1
s(S'MP'
p18
S'MVCP'
tp19
F1
s(S'AP'
p20
S'ACP'
tp21
F1
s(S'CP'
p22
S'CCDDP'
tp23
F1
s(g14
S'PPNNP'
tp24
F1
s(g18
S'MVDP'
tp25
F1
s(g4
S'DAAPP'
tp26
F1
s(g14
S'PPDP'
tp27
F2
s(S'NP'
p28
S'NNNAACP'
tp29
F1
s(g6
S'VPPP'
tp30
F2
s(g20
S'ADP'
tp31
F1
s(g14
S'PNP'
tp32
F2
s(g28
S'NPPP'
tp33
F1
s(g14
S'PNNP'
tp34
F1
s(S'DP'
p35
S'DNNNP'
tp36
F1
s(g6
S'VDP'
tp37
F2
s(g11
S'CDPPP'
tp38
F1
s(g4
S'DDPPP'
tp39
F1
s(S'VP'
p40
S'VVVVPP'
tp41
F1
s(g14
S'PPAP'
tp42
F1
s(g11
S'CDDPP'
tp43
F1
s(g22
S'AACDP'
tp44
F1
s(g9
S'NAAACCP'
tp45
F1
s(g11
S'ACDP'
tp46
F1
s(g28
S'NMP'
tp47
F1
s(g4
S'ADVDPPP'
tp48
F1
s(g14
S'PVP'
tp49
F2
s(g11
S'CDAAPP'
tp50
F1
s(g9
S'NDP'
tp51
F1
s(g4
S'DVP'
tp52
F1
s(g14
S'PDP'
tp53
F2
s(g9
S'NPP'
tp54
F1
s(g11
S'AAACCDP'
tp55
F1
s(g35
S'DDNP'
tp56
F1
s(g9
S'NCP'
tp57
F2
s(g14
S'PPPP'
tp58
F1
s(g14
S'AAPNP'
tp59
F1
s(g14
S'PPP'
tp60
F2
s(g4
S'DNP'
tp61
F2
s(g9
S'NVP'
tp62
F2
s(g11
S'CDDPPP'
tp63
F1
s(g4
S'DDP'
tp64
F1
s(g40
S'VNP'
tp65
F1
s(g28
S'NVVVVP'
tp66
F1
s(g40
S'VDDP'
tp67
F1
s(g11
S'CDPP'
tp68
F2
s(g4
S'DPP'
tp69
F2
s(g4
S'DPPP'
tp70
F1
s.