ccollections
defaultdict
p1
(c__builtin__
float
p2
tRp3
(S'CP'
p4
S'CAAADPP'
tp5
F1
s(S'DP'
p6
S'ADDPP'
tp7
F1
s(S'DP'
p8
S'DDAP'
tp9
F3
s(S'CP'
S'CCDDDDP'
tp10
F1
s(S'VP'
S'VVVVP'
tp11
F1
s(g8
S'DAANNP'
tp12
F2
s(S'PP'
S'ADVADVPAP'
tp13
F2
s(S'PP'
S'PAPP'
tp14
F6
s(S'PP'
p15
S'PADVNP'
tp16
F7
s(S'DP'
p17
S'DNP'
tp18
F170
s(S'DP'
S'AADDNP'
tp19
F1
s(S'NP'
p20
S'ADVADVNNVVP'
tp21
F2
s(S'PP'
S'AAPDDP'
tp22
F1
s(S'CP'
S'CDPPP'
tp23
F42
s(S'VP'
S'VADP'
tp24
F8
s(S'DP'
S'DNNNNP'
tp25
F1
s(S'CP'
S'ACADVADVDP'
tp26
F1
s(S'DP'
p27
S'DAAP'
tp28
F4
s(S'VP'
S'VAVP'
tp29
F2
s(S'MP'
S'MADVADVVVNNP'
tp30
F1
s(S'CP'
S'CADVADVDPPP'
tp31
F1
s(S'DP'
p32
S'ADNNP'
tp33
F1
s(S'MP'
p34
S'MDVP'
tp35
F2
s(S'VP'
S'ADVVNP'
tp36
F8
s(S'MP'
S'MVDP'
tp37
F10
s(S'PP'
p38
S'PADVANP'
tp39
F1
s(S'PP'
p40
S'PPPP'
tp41
F31
s(S'VP'
p42
S'VVVVDDP'
tp43
F1
s(S'DP'
S'DDDNP'
tp44
F1
s(S'VP'
S'VACP'
tp45
F3
s(S'DP'
p46
S'DADVVP'
tp47
F7
s(S'VP'
p48
S'ADVADVVDDP'
tp49
F1
s(S'PP'
p50
S'PADVNNP'
tp51
F2
s(S'AP'
S'AADVPP'
tp52
F1
s(S'NP'
p53
S'NADVACP'
tp54
F1
s(S'NP'
p55
S'NDDDP'
tp56
F1
s(S'NP'
S'NCCCP'
tp57
F2
s(S'CP'
S'CADVDAPP'
tp58
F1
s(S'NP'
S'ANADVPP'
tp59
F1
s(S'VP'
p60
S'VCP'
tp61
F80
s(S'NP'
p62
S'NMMP'
tp63
F4
s(S'VP'
S'VVVADVADVDDP'
tp64
F1
s(S'DP'
p65
S'DDDNNP'
tp66
F2
s(S'PP'
p67
S'PAP'
tp68
F68
s(S'MP'
S'MMVVP'
tp69
F1
s(S'VP'
S'VADVNP'
tp70
F3
s(S'NP'
S'NNNAP'
tp71
F1
s(S'PP'
p72
S'APVVP'
tp73
F4
s(S'CP'
S'CADPPPP'
tp74
F1
s(g67
S'PNP'
tp75
F186
s(S'PP'
S'PAAADP'
tp76
F1
s(S'DP'
p77
S'DDP'
tp78
F30
s(S'NP'
p79
S'NNNPP'
tp80
F4
s(g72
S'PAAP'
tp81
F10
s(S'MP'
S'MCDP'
tp82
F2
s(S'MP'
S'MNAP'
tp83
F1
s(S'VP'
p84
S'ADVADVVVCP'
tp85
F1
s(S'NP'
p86
S'NMP'
tp87
F49
s(S'VP'
p88
S'AAVNP'
tp89
F1
s(S'PP'
p90
S'PDP'
tp91
F179
s(S'CP'
S'CDAAPP'
tp92
F1
s(S'MP'
S'MADVVNP'
tp93
F2
s(S'VP'
S'AVAAP'
tp94
F1
s(S'AP'
S'ANP'
tp95
F4
s(S'NP'
p96
S'NADVADVADVVP'
tp97
F2
s(S'PP'
p98
S'PADVPP'
tp99
F1
s(S'MP'
S'MVADVANP'
tp100
F1
s(S'NP'
S'NNADVCP'
tp101
F2
s(S'VP'
S'ADVAVADVNP'
tp102
F1
s(S'DP'
p103
S'DDAAPPP'
tp104
F1
s(S'DP'
p105
S'DPPPP'
tp106
F11
s(S'DP'
p107
S'DDANP'
tp108
F2
s(S'NP'
S'NACP'
tp109
F8
s(S'NP'
p110
S'NCCP'
tp111
F36
s(S'VP'
S'AVADVNP'
tp112
F1
s(g32
S'DADVADVVVP'
tp113
F1
s(S'NP'
p114
S'NNCP'
tp115
F56
s(S'DP'
S'ADVDDPP'
tp116
F4
s(S'NP'
S'NADVADVVP'
tp117
F1
s(S'NP'
S'NNPPPP'
tp118
F2
s(S'VP'
S'AVNP'
tp119
F14
s(S'VP'
S'VVADP'
tp120
F1
s(g107
S'ADADVNP'
tp121
F1
s(S'PP'
p122
S'ADVAPDP'
tp123
F1
s(S'VP'
S'VVMP'
tp124
F2
s(S'VP'
S'VADVVP'
tp125
F1
s(S'VP'
S'ADVADVADVVNP'
tp126
F1
s(S'DP'
S'DADVPPP'
tp127
F2
s(S'CP'
p128
S'CCCDP'
tp129
F4
s(S'VP'
p130
S'ADVVAP'
tp131
F6
s(S'PP'
p132
S'ADVPPNNP'
tp133
F1
s(g42
S'VCCCP'
tp134
F2
s(S'PP'
S'APDP'
tp135
F8
s(S'PP'
p136
S'PADVADVADVPP'
tp137
F1
s(S'AP'
p138
S'AADVCP'
tp139
F2
s(S'PP'
p140
S'AAPPDP'
tp141
F1
s(S'VP'
p142
S'VVANP'
tp143
F2
s(S'VP'
p144
S'VVVVDP'
tp145
F3
s(S'VP'
p146
S'ADVVVP'
tp147
F1
s(S'AP'
p148
S'AANP'
tp149
F1
s(S'NP'
S'ADVADVNNPP'
tp150
F1
s(S'NP'
p151
S'ADVNCP'
tp152
F7
s(S'DP'
p153
S'ADVADNNP'
tp154
F1
s(S'DP'
p155
S'DNNP'
tp156
F52
s(S'CP'
S'CADVDDPP'
tp157
F4
s(S'PP'
p158
S'PADVAP'
tp159
F2
s(S'CP'
p160
S'CCADVDP'
tp161
F3
s(S'PP'
p162
S'PPAADP'
tp163
F1
s(S'NP'
S'NNNVP'
tp164
F4
s(S'PP'
S'PAAVVP'
tp165
F1
s(S'AP'
S'AAAAAAP'
tp166
F1
s(S'PP'
p167
S'PADVVP'
tp168
F5
s(S'PP'
S'APAP'
tp169
F4
s(S'CP'
S'ADVADVCDP'
tp170
F1
s(S'AP'
S'ACCCP'
tp171
F1
s(S'CP'
p172
S'CDDDADVPPP'
tp173
F1
s(S'AP'
S'AAP'
tp174
F2
s(S'VP'
p175
S'VVAPP'
tp176
F2
s(S'DP'
S'DADVADVNP'
tp177
F1
s(S'PP'
p178
S'APPDP'
tp179
F1
s(S'MP'
S'MVVCP'
tp180
F1
s(g172
S'CDDDDPP'
tp181
F1
s(S'NP'
p182
S'ADVAAANCCP'
tp183
F1
s(S'PP'
S'PAANP'
tp184
F2
s(S'DP'
S'DDADVADVVP'
tp185
F1
s(S'PP'
S'PPADVADVNNP'
tp186
F2
s(S'NP'
p187
S'ANVP'
tp188
F17
s(S'VP'
S'VAACP'
tp189
F1
s(S'MP'
S'MVNP'
tp190
F18
s(S'MP'
S'AMVP'
tp191
F2
s(S'AP'
S'AAAAPP'
tp192
F1
s(S'NP'
p193
S'NNNNP'
tp194
F1
s(S'CP'
S'CDDDPPP'
tp195
F2
s(S'CP'
S'CADVADVDDPP'
tp196
F1
s(g90
S'PAVP'
tp197
F12
s(g178
S'ADVPADVDDP'
tp198
F1
s(S'VP'
S'VVVPP'
tp199
F1
s(S'NP'
S'NNADP'
tp200
F1
s(S'NP'
S'NMMMMP'
tp201
F1
s(g162
S'APPPP'
tp202
F1
s(S'DP'
p203
S'DADP'
tp204
F2
s(g146
S'VVAANP'
tp205
F1
s(S'AP'
S'ADVADP'
tp206
F1
s(g138
S'APP'
tp207
F42
s(S'VP'
S'VVADVPP'
tp208
F1
s(g103
S'ADVDDP'
tp209
F1
s(S'PP'
S'APDDP'
tp210
F4
s(S'DP'
p211
S'DDVVVVP'
tp212
F1
s(g8
S'DDDDVVP'
tp213
F1
s(S'PP'
p214
S'APVP'
tp215
F12
s(S'MP'
S'MADVADVVPP'
tp216
F1
s(g60
S'VVNP'
tp217
F37
s(S'VP'
S'VADVADVAAP'
tp218
F1
s(S'PP'
S'PPVP'
tp219
F22
s(S'VP'
p220
S'VADVDP'
tp221
F6
s(S'DP'
p222
S'DDDPP'
tp223
F5
s(g42
S'VAAP'
tp224
F9
s(g187
S'ANDP'
tp225
F3
s(S'NP'
p226
S'NVVP'
tp227
F33
s(g122
S'AAPVP'
tp228
F4
s(g38
S'PPADP'
tp229
F1
s(S'VP'
p230
S'VMP'
tp231
F6
s(S'NP'
p232
S'ADVNAAVP'
tp233
F1
s(S'VP'
S'VVNNP'
tp234
F4
s(S'CP'
p235
S'CDAPP'
tp236
F19
s(S'VP'
S'VVAAP'
tp237
F6
s(S'NP'
S'ANADVCP'
tp238
F1
s(S'DP'
S'ADVADVDDVP'
tp239
F1
s(S'VP'
S'ADVADVVVNNP'
tp240
F1
s(g77
S'ADNP'
tp241
F10
s(S'AP'
S'ADVADVAACCP'
tp242
F1
s(S'VP'
p243
S'ADVVACP'
tp244
F1
s(g72
S'PADP'
tp245
F15
s(S'VP'
S'ADVVVCP'
tp246
F1
s(S'DP'
S'DDDPPPP'
tp247
F1
s(g55
S'ANDDP'
tp248
F1
s(S'DP'
p249
S'DADVAP'
tp250
F2
s(g77
S'DAPP'
tp251
F29
s(S'PP'
S'PADVADVADDP'
tp252
F1
s(g220
S'AVVP'
tp253
F1
s(g136
S'ADVADVADVPVVP'
tp254
F1
s(S'VP'
S'ADVADVVPP'
tp255
F1
s(S'VP'
S'ADVADVADVVDP'
tp256
F1
s(g140
S'AAAPVP'
tp257
F2
s(S'VP'
S'AVVNP'
tp258
F1
s(S'PP'
p259
S'PPPDP'
tp260
F3
s(S'PP'
S'AAAPDP'
tp261
F1
s(g34
S'MVVAP'
tp262
F2
s(S'NP'
S'ANADVVVP'
tp263
F1
s(S'VP'
S'VAAPP'
tp264
F2
s(S'DP'
S'ADVDNP'
tp265
F4
s(S'VP'
p266
S'VVPP'
tp267
F26
s(S'CP'
S'AACDDP'
tp268
F1
s(S'MP'
S'MVPP'
tp269
F9
s(S'DP'
p270
S'ADVP'
tp271
F6
s(S'CP'
S'CDDPPP'
tp272
F7
s(g110
S'NNPP'
tp273
F33
s(S'MP'
p274
S'MVVDP'
tp275
F1
s(S'VP'
S'VVVPPP'
tp276
F1
s(S'PP'
S'PPVVP'
tp277
F2
s(S'DP'
S'DNNNP'
tp278
F3
s(S'DP'
p279
S'ADVDDVP'
tp280
F1
s(g40
S'PADVADVVP'
tp281
F2
s(S'PP'
S'PMMP'
tp282
F2
s(S'PP'
p283
S'PMP'
tp284
F11
s(S'PP'
S'ADVPPAP'
tp285
F1
s(S'CP'
S'CCDP'
tp286
F59
s(S'NP'
p287
S'ADVNNDP'
tp288
F1
s(S'VP'
S'VADVANP'
tp289
F1
s(S'DP'
S'AADDPP'
tp290
F2
s(S'NP'
S'NVVVP'
tp291
F6
s(S'CP'
p292
S'CDDDPP'
tp293
F5
s(g160
S'CDADVADVPP'
tp294
F2
s(S'VP'
S'VVVDP'
tp295
F2
s(g167
S'PNNNP'
tp296
F10
s(S'AP'
p297
S'AACCP'
tp298
F2
s(S'PP'
S'AAPNP'
tp299
F1
s(S'VP'
S'ADVVVDP'
tp300
F1
s(g90
S'PPP'
tp301
F91
s(S'NP'
S'NNADVDP'
tp302
F1
s(g110
S'NAVP'
tp303
F19
s(S'DP'
S'ADVADVDDNP'
tp304
F1
s(S'NP'
p305
S'ANADVCCP'
tp306
F1
s(S'DP'
p307
S'ADVDVP'
tp308
F6
s(g182
S'NADVVVP'
tp309
F4
s(S'DP'
S'DAAAP'
tp310
F1
s(g211
S'ADVADVDNP'
tp311
F2
s(g60
S'VPP'
tp312
F88
s(S'CP'
S'ADVCCDP'
tp313
F2
s(S'CP'
S'CDDDPPPP'
tp314
F1
s(g86
S'NNNCP'
tp315
F8
s(g15
S'PADVDP'
tp316
F9
s(S'CP'
S'CDADVAPP'
tp317
F1
s(S'NP'
p318
S'NADVAVP'
tp319
F1
s(S'CP'
p320
S'CDDPP'
tp321
F48
s(g46
S'DAAPP'
tp322
F4
s(g72
S'PVVP'
tp323
F32
s(S'CP'
S'CADPPP'
tp324
F2
s(S'AP'
S'AACP'
tp325
F4
s(S'VP'
S'ADVVCP'
tp326
F3
s(S'MP'
S'MCCDP'
tp327
F1
s(g42
S'VPPP'
tp328
F9
s(S'VP'
S'ADVADVVVCCP'
tp329
F1
s(S'NP'
S'NADVADVAVP'
tp330
F1
s(S'PP'
S'PPADVADVDP'
tp331
F1
s(S'VP'
S'VVPPP'
tp332
F2
s(S'PP'
p333
S'PPAP'
tp334
F10
s(S'DP'
S'DVVP'
tp335
F25
s(g214
S'PADVAVP'
tp336
F1
s(g270
S'DDDADVPPP'
tp337
F1
s(S'NP'
S'ANMP'
tp338
F2
s(g259
S'ADVPPP'
tp339
F2
s(S'VP'
S'ADVVAAP'
tp340
F2
s(g144
S'VVVP'
tp341
F8
s(g235
S'CADVDPP'
tp342
F7
s(S'NP'
p343
S'ANCP'
tp344
F25
s(S'DP'
p345
S'DCP'
tp346
F6
s(S'NP'
S'ANNCP'
tp347
F4
s(g48
S'ADVVCCP'
tp348
F1
s(S'DP'
S'DAAVVP'
tp349
F1
s(S'DP'
S'DADVCP'
tp350
F1
s(S'NP'
S'NNADVAMP'
tp351
F1
s(S'VP'
S'AAVVCP'
tp352
F1
s(S'DP'
S'DDDP'
tp353
F7
s(S'DP'
p354
S'DDADVPP'
tp355
F3
s(S'NP'
S'ANVVP'
tp356
F6
s(S'NP'
p357
S'NVVVVP'
tp358
F2
s(S'NP'
S'NPPP'
tp359
F19
s(g178
S'PPAPP'
tp360
F1
s(g155
S'DAVP'
tp361
F13
s(S'NP'
S'NNNMP'
tp362
F1
s(g138
S'ACP'
tp363
F52
s(g283
S'PAAAPP'
tp364
F1
s(S'NP'
p365
S'NDDDDP'
tp366
F1
s(S'PP'
S'ADVPNNNP'
tp367
F1
s(S'PP'
S'PADVADVNNP'
tp368
F1
s(S'PP'
S'PPNP'
tp369
F43
s(S'NP'
p370
S'NAADP'
tp371
F1
s(S'DP'
S'ADVDAPP'
tp372
F1
s(S'PP'
S'PPPNNNNP'
tp373
F1
s(S'CP'
p374
S'CDDADVPP'
tp375
F3
s(g320
S'CCCDDP'
tp376
F2
s(S'AP'
S'ADP'
tp377
F129
s(g50
S'APMP'
tp378
F1
s(S'NP'
p379
S'ANPPP'
tp380
F1
s(S'PP'
S'PPPPNNP'
tp381
F1
s(g175
S'ADVADVVNNP'
tp382
F1
s(S'VP'
S'AVDP'
tp383
F18
s(g42
S'VVAP'
tp384
F16
s(g96
S'NNAPP'
tp385
F1
s(S'NP'
S'NNADVADVADVVP'
tp386
F1
s(S'CP'
S'ADVACDP'
tp387
F1
s(S'VP'
S'AAVCP'
tp388
F1
s(g226
S'NADVAPP'
tp389
F1
s(g114
S'NNNP'
tp390
F1
s(g86
S'NVP'
tp391
F178
s(S'PP'
S'PPVVVP'
tp392
F1
s(S'PP'
p393
S'PAAVP'
tp394
F2
s(S'NP'
S'NAAPP'
tp395
F1
s(g130
S'VDDP'
tp396
F38
s(S'DP'
S'DAAAAP'
tp397
F1
s(g132
S'ADVPPPP'
tp398
F1
s(S'NP'
S'AANNVP'
tp399
F1
s(S'DP'
S'DMP'
tp400
F7
s(S'DP'
p401
S'DADVAPP'
tp402
F2
s(S'DP'
S'DAAAVP'
tp403
F1
s(S'NP'
S'NADVADVVVP'
tp404
F1
s(g86
S'ANPP'
tp405
F16
s(S'PP'
S'ADVPPDP'
tp406
F1
s(S'PP'
S'PPPPP'
tp407
F3
s(S'MP'
S'MPDP'
tp408
F2
s(S'MP'
S'MVVPP'
tp409
F3
s(g77
S'ADVDPP'
tp410
F14
s(g232
S'NPPPP'
tp411
F4
s(S'DP'
S'ADDP'
tp412
F3
s(S'CP'
S'CAADPP'
tp413
F1
s(S'NP'
S'NAACP'
tp414
F4
s(g90
S'PNNP'
tp415
F57
s(S'PP'
S'APNNP'
tp416
F1
s(g6
S'AAADPP'
tp417
F1
s(S'VP'
p418
S'AVAP'
tp419
F3
s(S'MP'
S'MMVP'
tp420
F6
s(S'PP'
S'PCCP'
tp421
F2
s(S'AP'
S'AADP'
tp422
F27
s(S'NP'
S'NAPPP'
tp423
F1
s(S'CP'
p424
S'ACDP'
tp425
F14
s(g142
S'VCCP'
tp426
F13
s(S'NP'
S'ANADVADVVVP'
tp427
F1
s(g370
S'NNVVVVP'
tp428
F1
s(S'AP'
S'ADVANP'
tp429
F1
s(g53
S'NNACP'
tp430
F6
s(S'CP'
S'CDADVPPP'
tp431
F2
s(g418
S'VAP'
tp432
F83
s(S'VP'
S'VVVVNP'
tp433
F1
s(g6
S'ADVADVDDNNP'
tp434
F1
s(S'CP'
S'ADVCDDP'
tp435
F3
s(g365
S'AANNCP'
tp436
F1
s(S'PP'
S'ADVPMP'
tp437
F1
s(g283
S'PAAPP'
tp438
F2
s(S'AP'
S'AAVVP'
tp439
F1
s(g130
S'ADVADVVVAP'
tp440
F1
s(S'DP'
p441
S'DDDPPP'
tp442
F2
s(g103
S'DADVDP'
tp443
F1
s(S'NP'
S'AANMP'
tp444
F2
s(S'AP'
p445
S'AAACP'
tp446
F2
s(S'NP'
p447
S'NAAP'
tp448
F6
s(g40
S'PPPVP'
tp449
F5
s(S'VP'
S'AAVAP'
tp450
F1
s(S'AP'
p451
S'AADDP'
tp452
F3
s(S'VP'
S'VAANP'
tp453
F3
s(S'NP'
S'NADVADVCP'
tp454
F1
s(S'VP'
S'VVDP'
tp455
F30
s(S'DP'
S'ADPPPPP'
tp456
F1
s(S'MP'
S'MADP'
tp457
F1
s(S'PP'
S'PPPDDP'
tp458
F1
s(g243
S'AAVVNP'
tp459
F1
s(S'DP'
S'DDADVNP'
tp460
F1
s(g72
S'PANP'
tp461
F29
s(S'DP'
p462
S'AADNP'
tp463
F4
s(S'MP'
S'MNNP'
tp464
F1
s(S'MP'
S'ADVAMVP'
tp465
F1
s(S'PP'
p466
S'APADVADVDDP'
tp467
F1
s(S'AP'
S'AAVP'
tp468
F5
s(S'AP'
S'AVVP'
tp469
F3
s(S'NP'
S'NDDP'
tp470
F12
s(g451
S'ACCP'
tp471
F4
s(S'VP'
S'VVVVAP'
tp472
F1
s(g110
S'NDP'
tp473
F84
s(g105
S'DDVP'
tp474
F27
s(S'NP'
S'AANVP'
tp475
F2
s(g146
S'VNNNP'
tp476
F2
s(g88
S'VADVADVPP'
tp477
F1
s(g167
S'ADVPAP'
tp478
F1
s(S'PP'
S'PCP'
tp479
F10
s(g79
S'NNPPP'
tp480
F1
s(S'PP'
S'PAADP'
tp481
F3
s(S'MP'
S'MDNP'
tp482
F2
s(g266
S'VPPPP'
tp483
F2
s(S'PP'
p484
S'PACP'
tp485
F1
s(S'AP'
S'ADVACP'
tp486
F5
s(S'PP'
S'AAPNNP'
tp487
F1
s(g77
S'DDADVVP'
tp488
F3
s(g86
S'NNVP'
tp489
F40
s(S'MP'
p490
S'MVCP'
tp491
F8
s(g235
S'CCDDP'
tp492
F9
s(g62
S'NNADVVP'
tp493
F1
s(S'MP'
S'MVMP'
tp494
F1
s(S'NP'
S'ADVANAP'
tp495
F1
s(S'DP'
S'AAADNP'
tp496
F1
s(S'DP'
S'ADVADVDDAVP'
tp497
F1
s(g357
S'NNVVP'
tp498
F8
s(S'NP'
S'NNNNVP'
tp499
F1
s(S'AP'
S'AAADVPP'
tp500
F1
s(S'NP'
S'AANCP'
tp501
F3
s(g60
S'VDP'
tp502
F161
s(S'AP'
S'ADVAVVP'
tp503
F1
s(g447
S'NNDDP'
tp504
F1
s(S'VP'
S'ADVVPP'
tp505
F6
s(S'VP'
S'ADVVVPPP'
tp506
F1
s(S'VP'
p507
S'VNNP'
tp508
F36
s(g148
S'AADVDP'
tp509
F1
s(g79
S'NADP'
tp510
F3
s(g155
S'DDNP'
tp511
F48
s(g187
S'NADVCP'
tp512
F7
s(S'NP'
p513
S'NNADVAP'
tp514
F1
s(S'PP'
S'AAPPP'
tp515
F1
s(g122
S'PADVADVVVP'
tp516
F2
s(S'NP'
S'ADVANVP'
tp517
F2
s(S'NP'
S'ADVNAAP'
tp518
F1
s(g318
S'ADVADVNCP'
tp519
F1
s(S'DP'
S'AADPP'
tp520
F4
s(S'NP'
S'NNNNPP'
tp521
F1
s(S'MP'
S'MAVAP'
tp522
F1
s(S'VP'
S'ADVADVADVVDDP'
tp523
F1
s(S'MP'
S'MVVNP'
tp524
F1
s(g107
S'ADVDNNP'
tp525
F2
s(S'CP'
S'ACDDP'
tp526
F3
s(S'AP'
S'AADVADVDDP'
tp527
F1
s(g297
S'AAPP'
tp528
F5
s(S'VP'
S'VVCCP'
tp529
F2
s(S'DP'
S'DMMP'
tp530
F1
s(g490
S'MVADVADVPP'
tp531
F1
s(S'PP'
S'APPNP'
tp532
F1
s(g103
S'DAAAPP'
tp533
F2
s(S'PP'
p534
S'ADVPANP'
tp535
F2
s(S'AP'
S'ADVANNP'
tp536
F1
s(S'VP'
S'VVVCCP'
tp537
F1
s(S'NP'
p538
S'NAPP'
tp539
F10
s(S'NP'
p540
S'NADVDP'
tp541
F3
s(S'CP'
S'ADVCCADP'
tp542
F1
s(S'VP'
S'VVAAAPP'
tp543
F1
s(g86
S'AANPP'
tp544
F6
s(g220
S'VDDDP'
tp545
F1
s(S'NP'
S'NNMP'
tp546
F4
s(g32
S'DDDVP'
tp547
F1
s(S'VP'
S'AAVPP'
tp548
F1
s(g4
S'CADDPP'
tp549
F1
s(g484
S'PAAAP'
tp550
F1
s(g393
S'ADVADVPNP'
tp551
F2
s(S'PP'
S'PPPAP'
tp552
F1
s(g292
S'CDDAPP'
tp553
F4
s(g343
S'ANAP'
tp554
F5
s(S'MP'
S'MVAP'
tp555
F6
s(S'VP'
S'VADVADVDDP'
tp556
F1
s(g90
S'PVP'
tp557
F151
s(S'PP'
S'PPADVVVP'
tp558
F1
s(S'VP'
S'VVVAANP'
tp559
F1
s(g307
S'DVVVP'
tp560
F4
s(S'DP'
p561
S'ADVADVADVDNP'
tp562
F1
s(S'MP'
S'MMMMVP'
tp563
F1
s(S'PP'
S'PPDDP'
tp564
F2
s(g144
S'AVCP'
tp565
F2
s(g305
S'NAVVP'
tp566
F2
s(g17
S'DPP'
tp567
F234
s(S'NP'
p568
S'ADVNVP'
tp569
F7
s(g77
S'DDPP'
tp570
F68
s(g46
S'DANP'
tp571
F28
s(S'NP'
S'NADVPP'
tp572
F7
s(S'NP'
p573
S'NADVADP'
tp574
F1
s(g379
S'NAAVP'
tp575
F2
s(S'PP'
S'ADVPADVAP'
tp576
F1
s(S'DP'
S'ADVADVADDDP'
tp577
F1
s(g67
S'PDDDP'
tp578
F2
s(S'NP'
S'NNAPPP'
tp579
F1
s(S'DP'
S'ADVADVDPPP'
tp580
F1
s(g568
S'NADVCCP'
tp581
F1
s(S'NP'
S'NNAACP'
tp582
F1
s(g540
S'ADVADVNMP'
tp583
F1
s(g27
S'AADDP'
tp584
F1
s(S'PP'
S'AAPDP'
tp585
F1
s(g490
S'MADVVDP'
tp586
F1
s(S'VP'
S'AVVDP'
tp587
F2
s(g40
S'PDDP'
tp588
F30
s(S'MP'
S'MVDDP'
tp589
F1
s(S'PP'
S'ADVAPNP'
tp590
F1
s(g279
S'ADPPP'
tp591
F2
s(g283
S'AAAPDDP'
tp592
F1
s(g287
S'NNP'
tp593
F1
s(S'VP'
S'VVDDP'
tp594
F6
s(S'VP'
S'VAADDP'
tp595
F1
s(g27
S'DAANP'
tp596
F6
s(g445
S'ADDP'
tp597
F24
s(g158
S'ADVPPNP'
tp598
F2
s(S'MP'
S'MMCCP'
tp599
F1
s(S'MP'
S'MDAP'
tp600
F1
s(g374
S'CADVADVDPP'
tp601
F2
s(g345
S'DPPP'
tp602
F68
s(g441
S'DAVVP'
tp603
F2
s(S'DP'
S'AADPPP'
tp604
F1
s(S'VP'
S'VANNP'
tp605
F1
s(g158
S'PPPANP'
tp606
F1
s(g534
S'ADVPNP'
tp607
F8
s(g40
S'PPDP'
tp608
F27
s(g274
S'MAVDP'
tp609
F1
s(g561
S'ADVDCP'
tp610
F1
s(S'NP'
S'NNAAACP'
tp611
F1
s(S'AP'
S'AAPPP'
tp612
F1
s(S'DP'
S'ADVDADVNP'
tp613
F1
s(g86
S'NAP'
tp614
F50
s(S'NP'
S'NNAAP'
tp615
F2
s(g513
S'AANADVCCP'
tp616
F1
s(S'VP'
S'ADVAVNP'
tp617
F1
s(g60
S'VVP'
tp618
F29
s(g222
S'DDAPP'
tp619
F5
s(S'PP'
S'ADVADVPVP'
tp620
F1
s(S'AP'
S'AAADP'
tp621
F1
s(g534
S'APNP'
tp622
F17
s(g153
S'DDDAPP'
tp623
F1
s(g105
S'DDVVP'
tp624
F10
s(S'AP'
S'AAADDP'
tp625
F2
s(S'VP'
S'VVVNP'
tp626
F3
s(S'NP'
S'NAMP'
tp627
F2
s(S'MP'
S'MVANP'
tp628
F2
s(g249
S'ADVADVDDPP'
tp629
F1
s(S'MP'
S'MVNNP'
tp630
F2
s(S'VP'
S'VVCP'
tp631
F13
s(S'CP'
p632
S'CDPP'
tp633
F204
s(g20
S'NNCCCP'
tp634
F1
s(S'NP'
S'NNADVADVVVP'
tp635
F1
s(S'NP'
p636
S'NNDP'
tp637
F12
s(g6
S'ADADVADVPP'
tp638
F1
s(S'VP'
S'ADVADVAVCP'
tp639
F1
s(g632
S'ADVCDP'
tp640
F11
s(g507
S'ADVADVVNP'
tp641
F3
s(S'PP'
S'PADVADVDP'
tp642
F1
s(S'PP'
S'PPNNP'
tp643
F6
s(g167
S'ADVAPPP'
tp644
F2
s(S'PP'
S'PADVCP'
tp645
F1
s(S'PP'
S'PPMP'
tp646
F1
s(S'CP'
S'CAADDPP'
tp647
F2
s(g354
S'ADVADVDPP'
tp648
F3
s(S'VP'
S'VAADP'
tp649
F3
s(g305
S'NADVAP'
tp650
F1
s(g42
S'AVDDP'
tp651
F2
s(S'DP'
S'DADVNP'
tp652
F7
s(g17
S'DAP'
tp653
F35
s(g424
S'CADPP'
tp654
F18
s(g128
S'CADVDDADVPP'
tp655
F1
s(S'VP'
S'AVPP'
tp656
F4
s(S'CP'
S'CAADPPP'
tp657
F1
s(S'CP'
S'CDPPPP'
tp658
F5
s(g230
S'AAVDP'
tp659
F1
s(S'PP'
S'PANNP'
tp660
F1
s(g122
S'APPP'
tp661
F7
s(S'DP'
S'ADPPPP'
tp662
F1
s(g345
S'DADVADVPP'
tp663
F3
s(S'NP'
S'AANVVP'
tp664
F1
s(S'PP'
S'PPPNP'
tp665
F7
s(g636
S'NPP'
tp666
F130
s(S'PP'
S'APADVPP'
tp667
F1
s(S'PP'
S'PADVADVNP'
tp668
F1
s(g462
S'ADPP'
tp669
F34
s(S'DP'
S'DDAAPP'
tp670
F1
s(S'DP'
S'ADVDANP'
tp671
F1
s(S'PP'
S'PVVVVP'
tp672
F2
s(g98
S'ADVPVP'
tp673
F1
s(g203
S'DDDDPP'
tp674
F2
s(g573
S'NNDDDP'
tp675
F1
s(S'PP'
S'ADVPDP'
tp676
F8
s(S'NP'
S'ANNPP'
tp677
F1
s(g636
S'NCP'
tp678
F152
s(S'VP'
S'ADVVVPP'
tp679
F3
s(g203
S'ADVVP'
tp680
F1
s(S'CP'
S'CDADVPP'
tp681
F7
s(S'VP'
S'VADVADVADVDP'
tp682
F1
s(g333
S'PPAAAP'
tp683
F1
s(g466
S'PPPNNP'
tp684
F3
s(S'MP'
S'MVCCP'
tp685
F1
s(g538
S'NNCCP'
tp686
F11
s(S'MP'
S'MNVP'
tp687
F5
s(g84
S'VAPP'
tp688
F6
s(g88
S'ADVVDP'
tp689
F8
s(S'DP'
S'ADVDDADVPP'
tp690
F1
s(g401
S'DADVPP'
tp691
F12
s(S'AP'
S'AMP'
tp692
F3
s(S'CP'
S'CCADP'
tp693
F5
s(S'NP'
S'ADVNNCP'
tp694
F1
s(S'NP'
S'NNNPPP'
tp695
F1
s(S'AP'
S'ADVAPP'
tp696
F3
s(S'DP'
S'DDADVAPP'
tp697
F1
s(S'AP'
S'ADVADVANP'
tp698
F1
s(S'CP'
S'AACDP'
tp699
F7
s(g193
S'NNNCCP'
tp700
F1
s(g65
S'ADVDPPP'
tp701
F1
s(g17
S'DVP'
tp702
F146
s(g60
S'AVNNP'
tp703
F4
s(S'NP'
S'ADVNPP'
tp704
F3
s(S'CP'
S'AAACDP'
tp705
F1
s(S'AP'
S'AVP'
tp706
F28
s(S'NP'
S'NADVVP'
tp707
F7
s(S'CP'
S'CDAAAPP'
tp708
F1
s(S'VP'
S'ADVVPPP'
tp709
F1
s(S'DP'
S'DDPPP'
tp710
F11
s(S'NP'
S'NNNMMP'
tp711
F1
s(g540
S'ADVNMP'
tp712
F2
s(g151
S'NNAP'
tp713
F8
s(S'VP'
S'AAAVNP'
tp714
F1
s(g155
S'DDNNP'
tp715
F9
s(g418
S'VNP'
tp716
F154
s(g379
S'ANADVPPP'
tp717
F1
s(g142
S'VANP'
tp718
F15
s(g144
S'VADVAP'
tp719
F3
s(S'VP'
S'ADVADVVVDP'
tp720
F3
s(g243
S'AVVADVVP'
tp721
F1
s(S'NP'
S'NADVPPP'
tp722
F2
s.