ccollections
defaultdict
p1
(c__builtin__
float
p2
tRp3
(S'VP'
p4
S'VADVADP'
tp5
F1
s(S'CP'
S'CAAADPP'
tp6
F1
s(S'PP'
S'PAAANP'
tp7
F1
s(S'DP'
p8
S'ADDPP'
tp9
F1
s(S'DP'
S'DDAP'
tp10
F3
s(S'VP'
S'ADVVVNP'
tp11
F3
s(S'NP'
S'AANVVVVP'
tp12
F1
s(S'CP'
S'CCDDDDP'
tp13
F1
s(S'VP'
p14
S'VVVVP'
tp15
F1
s(S'AP'
S'AVVVP'
tp16
F1
s(S'PP'
p17
S'PAPP'
tp18
F11
s(S'PP'
p19
S'PADVNP'
tp20
F10
s(S'DP'
p21
S'DNP'
tp22
F248
s(S'VP'
p23
S'VVADVCP'
tp24
F2
s(S'CP'
p25
S'CDPPP'
tp26
F68
s(S'VP'
S'VADP'
tp27
F15
s(S'DP'
p28
S'DNNNNP'
tp29
F2
s(S'MP'
S'MAVNP'
tp30
F1
s(S'VP'
S'AAVPPP'
tp31
F1
s(S'PP'
p32
S'PPPPPP'
tp33
F2
s(S'DP'
p34
S'AAADDPPP'
tp35
F1
s(S'VP'
S'VAVP'
tp36
F2
s(S'PP'
S'APPDP'
tp37
F2
s(S'CP'
S'CADVADVDPPP'
tp38
F1
s(S'DP'
p39
S'DAADP'
tp40
F1
s(S'DP'
p41
S'ADNNP'
tp42
F2
s(S'NP'
S'ADVADVNNAAP'
tp43
F1
s(S'VP'
p44
S'ADVVNP'
tp45
F10
s(S'MP'
S'MVDP'
tp46
F9
s(S'CP'
S'AAACCDP'
tp47
F1
s(S'NP'
p48
S'AANNPP'
tp49
F2
s(g19
S'PPPP'
tp50
F30
s(S'DP'
p51
S'DDDNP'
tp52
F3
s(S'VP'
S'VACP'
tp53
F12
s(S'AP'
p54
S'AAAVP'
tp55
F2
s(S'PP'
S'PPPAAP'
tp56
F1
s(S'DP'
S'DADVVP'
tp57
F7
s(S'VP'
S'ADVVADVAAP'
tp58
F1
s(S'NP'
S'NADVACP'
tp59
F1
s(S'NP'
S'NCCCP'
tp60
F3
s(S'CP'
p61
S'CADVDAPP'
tp62
F2
s(S'VP'
p63
S'VCP'
tp64
F116
s(g48
S'NMMP'
tp65
F1
s(S'DP'
S'DDDNNP'
tp66
F1
s(S'VP'
S'ADVVCCP'
tp67
F2
s(S'PP'
p68
S'PAP'
tp69
F84
s(S'VP'
S'VADVADVAP'
tp70
F2
s(S'NP'
S'ANNCCP'
tp71
F1
s(S'PP'
p72
S'ADVPPVP'
tp73
F2
s(S'PP'
S'APVVP'
tp74
F3
s(S'DP'
S'DADVAPPP'
tp75
F1
s(S'VP'
p76
S'AAVNNP'
tp77
F1
s(g19
S'PNP'
tp78
F253
s(S'AP'
S'AADVADVDP'
tp79
F1
s(S'DP'
p80
S'DDP'
tp81
F56
s(S'NP'
S'NNNPP'
tp82
F2
s(S'NP'
S'NNDP'
tp83
F26
s(S'MP'
S'MCDP'
tp84
F1
s(S'NP'
p85
S'ANADVAP'
tp86
F1
s(S'CP'
S'AACCDP'
tp87
F1
s(S'DP'
p88
S'ADVADVADNNP'
tp89
F1
s(S'MP'
S'MNAP'
tp90
F1
s(S'NP'
p91
S'NMP'
tp92
F48
s(S'NP'
S'ADVNCCP'
tp93
F1
s(g76
S'AVADVPP'
tp94
F2
s(g44
S'AAVNP'
tp95
F7
s(S'NP'
S'ADVADVNMMP'
tp96
F1
s(g19
S'PDP'
tp97
F229
s(S'CP'
p98
S'CDADVADVPP'
tp99
F3
s(S'VP'
S'VNNNNP'
tp100
F3
s(S'MP'
S'MADVVNP'
tp101
F1
s(S'DP'
p102
S'ADVADVDAPP'
tp103
F2
s(S'PP'
p104
S'PPPAANP'
tp105
F2
s(S'VP'
p106
S'AVVAP'
tp107
F1
s(S'AP'
S'ANP'
tp108
F2
s(S'PP'
p109
S'PADVPP'
tp110
F4
s(S'NP'
p111
S'NNADVCP'
tp112
F2
s(S'VP'
S'VVADVNP'
tp113
F1
s(S'NP'
p114
S'ADVNACP'
tp115
F1
s(S'DP'
p116
S'DPPPP'
tp117
F11
s(g116
S'DDANP'
tp118
F1
s(S'PP'
S'PADVADP'
tp119
F4
s(S'NP'
p120
S'NACP'
tp121
F23
s(S'AP'
S'ADVAVP'
tp122
F3
s(S'NP'
p123
S'NCCP'
tp124
F57
s(S'VP'
p125
S'AVADVNP'
tp126
F1
s(S'NP'
S'ADVNDP'
tp127
F2
s(S'AP'
S'AAAADP'
tp128
F1
s(S'VP'
S'ADVVAANP'
tp129
F1
s(S'NP'
S'NNCP'
tp130
F57
s(S'NP'
S'AANPPP'
tp131
F1
s(g120
S'NADVADVVP'
tp132
F4
s(S'DP'
p133
S'DDDDP'
tp134
F2
s(S'VP'
S'AVNP'
tp135
F10
s(S'VP'
S'VVADP'
tp136
F1
s(S'NP'
S'NADVADVPP'
tp137
F1
s(S'PP'
S'ADVPVVP'
tp138
F1
s(S'DP'
p139
S'ADADVNP'
tp140
F1
s(S'PP'
p141
S'ADVAPDP'
tp142
F1
s(S'VP'
S'VVMP'
tp143
F1
s(S'VP'
p144
S'VADVVP'
tp145
F2
s(S'NP'
S'ANADVVP'
tp146
F3
s(S'PP'
p147
S'ADVAPVP'
tp148
F1
s(S'AP'
p149
S'AAAAP'
tp150
F2
s(S'DP'
S'DADVAP'
tp151
F1
s(S'CP'
S'CCCDP'
tp152
F1
s(S'VP'
p153
S'AVNNP'
tp154
F4
s(S'PP'
S'APAAAAAAP'
tp155
F1
s(g17
S'APDP'
tp156
F26
s(S'NP'
S'AANNCCP'
tp157
F1
s(S'VP'
S'ADVVNNP'
tp158
F1
s(S'AP'
S'AADVCP'
tp159
F1
s(S'VP'
S'VVANP'
tp160
F3
s(S'VP'
S'VVVVDP'
tp161
F3
s(g153
S'ADVVVP'
tp162
F1
s(S'DP'
p163
S'DADVADVADVPP'
tp164
F1
s(S'PP'
p165
S'PCCP'
tp166
F3
s(S'PP'
p167
S'PAAP'
tp168
F21
s(g85
S'ADVANCP'
tp169
F1
s(S'DP'
p170
S'DNNP'
tp171
F76
s(S'CP'
S'CADVDDPP'
tp172
F1
s(S'DP'
S'DPPPPP'
tp173
F4
s(S'CP'
S'CDDPPPP'
tp174
F2
s(S'CP'
S'CCADVDP'
tp175
F4
s(S'PP'
S'PPAADP'
tp176
F2
s(g125
S'VVACP'
tp177
F1
s(S'DP'
S'ADDNP'
tp178
F1
s(S'NP'
p179
S'NNNVP'
tp180
F9
s(S'VP'
S'VADVNNP'
tp181
F2
s(S'PP'
p182
S'ADVAPVVP'
tp183
F1
s(S'PP'
S'PPNNNNP'
tp184
F2
s(S'PP'
S'PADVVP'
tp185
F4
s(S'DP'
S'DACP'
tp186
F1
s(S'DP'
S'DADVADVADVPPP'
tp187
F1
s(S'CP'
S'CAAADDPPP'
tp188
F1
s(S'PP'
S'APDDDDP'
tp189
F1
s(g19
S'ADVAPNNP'
tp190
F1
s(g54
S'APP'
tp191
F36
s(S'NP'
S'NADVMP'
tp192
F2
s(S'CP'
S'CADDPPP'
tp193
F1
s(S'DP'
S'DAAAPP'
tp194
F1
s(S'NP'
p195
S'ADVANPP'
tp196
F2
s(g21
S'DAAVP'
tp197
F3
s(S'MP'
S'MVVVNP'
tp198
F1
s(S'PP'
S'PAANP'
tp199
F5
s(g163
S'ADVDVP'
tp200
F3
s(S'NP'
p201
S'ANVP'
tp202
F27
s(S'NP'
S'NNADVPP'
tp203
F1
s(S'MP'
S'ADVADVMVP'
tp204
F1
s(S'DP'
p205
S'ADVDDPP'
tp206
F2
s(S'MP'
p207
S'MVNP'
tp208
F18
s(S'MP'
S'AMVP'
tp209
F2
s(S'NP'
S'NNANP'
tp210
F1
s(S'CP'
S'CDDDPPP'
tp211
F2
s(S'CP'
S'CADVADVDDPP'
tp212
F1
s(g32
S'PAVP'
tp213
F22
s(S'MP'
S'ADVMVP'
tp214
F2
s(S'PP'
p215
S'APAP'
tp216
F1
s(S'VP'
S'ADVVMP'
tp217
F1
s(S'DP'
S'DDAPPP'
tp218
F1
s(S'VP'
S'VVVPP'
tp219
F4
s(S'CP'
S'CADVADVADPP'
tp220
F2
s(S'NP'
p221
S'ADVADVANDP'
tp222
F1
s(S'PP'
S'APPPP'
tp223
F1
s(g8
S'DADP'
tp224
F2
s(S'DP'
S'DAAAPPP'
tp225
F2
s(S'AP'
S'ADVADP'
tp226
F6
s(S'VP'
S'VVADVPP'
tp227
F1
s(S'DP'
S'ADVDDP'
tp228
F2
s(S'PP'
S'APDDP'
tp229
F1
s(S'AP'
S'AAAACCP'
tp230
F1
s(S'NP'
S'ADVNAP'
tp231
F2
s(S'PP'
p232
S'APVP'
tp233
F24
s(S'MP'
p234
S'MNCP'
tp235
F1
s(S'VP'
S'ADVADVADVVCP'
tp236
F1
s(S'VP'
p237
S'VVNP'
tp238
F48
s(S'PP'
S'PPPNNP'
tp239
F1
s(S'PP'
S'PPVP'
tp240
F43
s(S'PP'
S'PPADVADVPP'
tp241
F1
s(S'VP'
S'VADVDP'
tp242
F4
s(S'DP'
S'AADVVVVP'
tp243
F1
s(S'MP'
S'MVVACP'
tp244
F1
s(S'VP'
p245
S'VAAP'
tp246
F12
s(S'NP'
S'ANDP'
tp247
F17
s(g91
S'NVVP'
tp248
F62
s(S'PP'
S'AAPVP'
tp249
F4
s(S'AP'
S'AAP'
tp250
F2
s(S'VP'
S'VMP'
tp251
F6
s(S'NP'
S'ANNAP'
tp252
F1
s(S'VP'
p253
S'VVNNP'
tp254
F10
s(S'CP'
S'CDAPP'
tp255
F41
s(g63
S'VVAAP'
tp256
F3
s(g153
S'VVADVADVADP'
tp257
F1
s(S'DP'
S'ADVADVP'
tp258
F3
s(S'DP'
p259
S'ADNP'
tp260
F20
s(S'PP'
S'PAPPP'
tp261
F1
s(S'AP'
S'AAAAADP'
tp262
F1
s(S'DP'
S'ADVDDPPP'
tp263
F1
s(g109
S'PADP'
tp264
F16
s(S'DP'
S'DDAAAPP'
tp265
F1
s(S'VP'
S'ADVVVCP'
tp266
F1
s(g234
S'MVNNNNP'
tp267
F1
s(S'NP'
p268
S'ANDDP'
tp269
F3
s(S'VP'
p270
S'VVVDDP'
tp271
F1
s(g221
S'NADVADVADVCP'
tp272
F1
s(g51
S'DAPP'
tp273
F62
s(g253
S'ADVADVVPP'
tp274
F2
s(g4
S'VADVAAP'
tp275
F1
s(S'PP'
S'AAAPVP'
tp276
F1
s(S'VP'
p277
S'AVVNP'
tp278
F2
s(S'PP'
p279
S'PPPDP'
tp280
F5
s(g221
S'NADVADVANP'
tp281
F1
s(S'PP'
S'PAAAANNP'
tp282
F1
s(S'AP'
S'AAPPP'
tp283
F1
s(g133
S'DDADVADP'
tp284
F1
s(S'DP'
p285
S'DADVANP'
tp286
F1
s(S'DP'
S'ADVDNP'
tp287
F8
s(g63
S'VVPP'
tp288
F31
s(S'VP'
p289
S'VADVAPP'
tp290
F1
s(S'PP'
p291
S'PAVVP'
tp292
F1
s(S'MP'
S'MVPP'
tp293
F7
s(S'DP'
S'ADVP'
tp294
F11
s(S'CP'
p295
S'CDDPPP'
tp296
F13
s(S'VP'
S'ADVVVDP'
tp297
F2
s(g91
S'NNPP'
tp298
F35
s(S'CP'
S'CCCADVDP'
tp299
F1
s(S'DP'
S'DDDDNP'
tp300
F4
s(S'MP'
S'MVVDP'
tp301
F1
s(S'AP'
S'AACP'
tp302
F3
s(S'PP'
S'PPVVP'
tp303
F4
s(S'VP'
S'VAACP'
tp304
F1
s(S'DP'
S'DNNNP'
tp305
F7
s(S'PP'
S'PPPAANNP'
tp306
F1
s(S'DP'
S'ADVDDVP'
tp307
F1
s(S'PP'
S'PADVADVVP'
tp308
F1
s(S'VP'
S'VADVDDP'
tp309
F1
s(S'VP'
S'ADVVCP'
tp310
F3
s(S'PP'
p311
S'PVVVP'
tp312
F3
s(S'PP'
S'PMP'
tp313
F6
s(g111
S'NNMMP'
tp314
F2
s(S'CP'
S'CCDP'
tp315
F83
s(S'DP'
S'ADVADVADVDPP'
tp316
F3
s(g237
S'VAAVP'
tp317
F1
s(S'PP'
p318
S'PPNNNP'
tp319
F4
s(S'DP'
p320
S'AADDPP'
tp321
F2
s(S'NP'
p322
S'NVVVP'
tp323
F4
s(S'CP'
S'CDDDPP'
tp324
F8
s(S'CP'
S'CDAAPP'
tp325
F8
s(S'VP'
S'VVVDP'
tp326
F7
s(S'PP'
S'PDDDDP'
tp327
F1
s(g318
S'PNNNP'
tp328
F9
s(S'NP'
S'ANMMP'
tp329
F1
s(S'PP'
p330
S'AAPNP'
tp331
F3
s(g330
S'PADVVVP'
tp332
F2
s(g232
S'PPP'
tp333
F106
s(g91
S'NNVVP'
tp334
F14
s(g91
S'NAVP'
tp335
F21
s(S'DP'
S'DDADVDDP'
tp336
F1
s(S'PP'
p337
S'PADVAP'
tp338
F6
s(S'DP'
p339
S'DDNNNP'
tp340
F3
s(S'VP'
p341
S'ADVVAPP'
tp342
F1
s(S'PP'
p343
S'PADDP'
tp344
F3
s(g104
S'APVVVP'
tp345
F1
s(S'CP'
p346
S'CADVDPPPP'
tp347
F1
s(S'VP'
S'VVVANP'
tp348
F1
s(S'PP'
S'PPADVADVNP'
tp349
F1
s(S'NP'
S'NAAAP'
tp350
F2
s(S'NP'
S'NADVVVP'
tp351
F2
s(S'CP'
S'CCADVADVADVDP'
tp352
F1
s(S'PP'
S'PPPPDP'
tp353
F1
s(S'VP'
S'ADVADVVVPP'
tp354
F1
s(S'VP'
p355
S'VAAAAP'
tp356
F1
s(g63
S'VPP'
tp357
F134
s(S'DP'
p358
S'ADVDPPPP'
tp359
F1
s(S'PP'
p360
S'ADVPAVVP'
tp361
F1
s(S'NP'
S'ANADVCP'
tp362
F1
s(g61
S'ACCDP'
tp363
F1
s(g41
S'ADVDDNP'
tp364
F2
s(S'NP'
p365
S'NNNCP'
tp366
F10
s(S'PP'
S'PADVDP'
tp367
F5
s(S'CP'
S'CDADVAPP'
tp368
F2
s(S'AP'
S'ADVAADP'
tp369
F4
s(S'DP'
S'DANNP'
tp370
F3
s(S'PP'
S'PADVAAP'
tp371
F2
s(g25
S'CDDPP'
tp372
F60
s(S'DP'
p373
S'DAAPP'
tp374
F10
s(g19
S'PVVP'
tp375
F44
s(S'CP'
S'CADPPP'
tp376
F6
s(g41
S'DADVPPP'
tp377
F3
s(S'DP'
S'ADVADDP'
tp378
F1
s(g68
S'PMMP'
tp379
F1
s(S'PP'
p380
S'ADVPPAP'
tp381
F1
s(g23
S'VPPP'
tp382
F20
s(S'VP'
p383
S'VVPPP'
tp384
F3
s(S'PP'
S'PPAP'
tp385
F10
s(g21
S'DVVP'
tp386
F30
s(S'PP'
S'PADVAVP'
tp387
F1
s(S'CP'
S'ADVCDDDP'
tp388
F1
s(S'NP'
S'ANMP'
tp389
F2
s(S'AP'
S'APPP'
tp390
F3
s(S'PP'
S'ADVPPP'
tp391
F3
s(S'DP'
p392
S'ADVADPPP'
tp393
F1
s(S'NP'
p394
S'ADVADVNVP'
tp395
F1
s(S'VP'
S'VVVP'
tp396
F6
s(S'CP'
S'CADVDPP'
tp397
F20
s(S'NP'
p398
S'ANCP'
tp399
F43
s(S'DP'
p400
S'DCP'
tp401
F13
s(S'NP'
S'ANNCP'
tp402
F4
s(S'NP'
S'AAANCP'
tp403
F2
s(S'NP'
S'NNVVVVP'
tp404
F1
s(S'PP'
S'ADVADVADVPPNP'
tp405
F1
s(S'DP'
S'DDDP'
tp406
F12
s(g339
S'ADVDPPPPP'
tp407
F1
s(g392
S'DDADVPP'
tp408
F5
s(S'MP'
S'MAADP'
tp409
F2
s(S'NP'
S'ANVVP'
tp410
F5
s(S'NP'
S'NVVVVP'
tp411
F3
s(S'NP'
S'NPPP'
tp412
F35
s(S'NP'
p413
S'ADVADVNAAACP'
tp414
F1
s(g392
S'DAVP'
tp415
F8
s(S'VP'
S'AVVVP'
tp416
F1
s(S'NP'
S'NNNMP'
tp417
F2
s(S'VP'
p418
S'VVADVADVAVP'
tp419
F1
s(g54
S'ACP'
tp420
F34
s(S'PP'
p421
S'AAPAP'
tp422
F2
s(g19
S'PPNP'
tp423
F68
s(S'NP'
S'NAADP'
tp424
F1
s(g80
S'ADVDAPP'
tp425
F2
s(S'DP'
p426
S'AADVP'
tp427
F4
s(S'VP'
p428
S'VVVVNNP'
tp429
F1
s(g355
S'VAANNP'
tp430
F1
s(S'CP'
S'CDDADVPP'
tp431
F2
s(g34
S'AADNP'
tp432
F3
s(g54
S'ADP'
tp433
F169
s(S'PP'
S'ADVPPDDP'
tp434
F1
s(S'CP'
p435
S'CADVDDPPP'
tp436
F1
s(S'DP'
S'DDPPPP'
tp437
F2
s(S'DP'
S'AAAADPP'
tp438
F1
s(S'PP'
S'ADVAPPDP'
tp439
F1
s(g421
S'ADVPAAVP'
tp440
F2
s(g277
S'VVPPPP'
tp441
F1
s(g289
S'AVDP'
tp442
F22
s(S'NP'
S'ANNVP'
tp443
F1
s(S'VP'
S'VVAP'
tp444
F12
s(S'NP'
S'NNAPP'
tp445
F2
s(S'MP'
S'MNADVVP'
tp446
F1
s(g398
S'ADVNACCP'
tp447
F1
s(g277
S'ADVADVVVNP'
tp448
F1
s(g98
S'ADVACDP'
tp449
F2
s(S'PP'
p450
S'APPVVP'
tp451
F1
s(S'VP'
S'VAAAPP'
tp452
F1
s(g91
S'NPP'
tp453
F189
s(g343
S'PPPPNP'
tp454
F1
s(g91
S'NVP'
tp455
F239
s(g232
S'PAAVP'
tp456
F6
s(S'NP'
S'NAAPP'
tp457
F2
s(S'PP'
S'PPPPVP'
tp458
F1
s(g237
S'VDDP'
tp459
F35
s(S'MP'
S'MAVADVPP'
tp460
F1
s(S'AP'
p461
S'AAADVDP'
tp462
F1
s(S'NP'
S'AANNVP'
tp463
F1
s(S'NP'
S'NNNNDP'
tp464
F2
s(g21
S'DADVAPP'
tp465
F5
s(S'DP'
S'AADDNP'
tp466
F1
s(g268
S'ANPP'
tp467
F28
s(S'PP'
S'ADVPPDP'
tp468
F2
s(g17
S'PPPPP'
tp469
F6
s(S'MP'
S'MPDP'
tp470
F1
s(S'PP'
p471
S'ADVADVPDP'
tp472
F2
s(S'MP'
S'MVVPP'
tp473
F1
s(g141
S'PPPNP'
tp474
F2
s(S'NP'
S'ADVADVANNCP'
tp475
F1
s(g201
S'NPPPP'
tp476
F4
s(S'DP'
S'ADDP'
tp477
F3
s(S'NP'
S'NADVAAP'
tp478
F1
s(S'CP'
S'CAADPP'
tp479
F5
s(S'DP'
S'DADVADVVP'
tp480
F1
s(S'NP'
p481
S'NAACP'
tp482
F6
s(g19
S'PNNP'
tp483
F62
s(S'VP'
S'VVVVVVP'
tp484
F1
s(S'CP'
S'CDADVADVADVPPP'
tp485
F1
s(S'PP'
S'APNNP'
tp486
F5
s(S'DP'
S'AAADPP'
tp487
F1
s(S'VP'
S'AVAP'
tp488
F1
s(S'MP'
S'MMVP'
tp489
F6
s(g311
S'PADVDDP'
tp490
F2
s(g91
S'ADVNCP'
tp491
F10
s(S'DP'
S'DDADVADVPP'
tp492
F1
s(S'AP'
S'AADP'
tp493
F34
s(g418
S'ADVADVAVNNP'
tp494
F1
s(S'VP'
S'VAPPP'
tp495
F1
s(g295
S'ACDP'
tp496
F33
s(g341
S'VCCP'
tp497
F15
s(S'AP'
S'ADVANP'
tp498
F2
s(S'CP'
p499
S'CCCCDDP'
tp500
F1
s(S'NP'
S'NNACP'
tp501
F3
s(S'CP'
S'CDADVPPP'
tp502
F3
s(g63
S'VAP'
tp503
F87
s(g285
S'DDDPP'
tp504
F9
s(S'CP'
S'ADVCDDP'
tp505
F4
s(S'PP'
S'ADVPMP'
tp506
F2
s(g72
S'PAAPP'
tp507
F2
s(S'MP'
S'MVVVANP'
tp508
F1
s(S'AP'
S'AAVVP'
tp509
F1
s(S'DP'
S'DDDPPP'
tp510
F2
s(S'VP'
S'ADVAVDP'
tp511
F2
s(g320
S'ADAP'
tp512
F1
s(S'DP'
S'DADVDP'
tp513
F1
s(g499
S'CCADVADP'
tp514
F1
s(S'AP'
S'AAACP'
tp515
F1
s(g398
S'NAAP'
tp516
F12
s(S'PP'
S'PPPVP'
tp517
F8
s(S'VP'
S'AAVAP'
tp518
F1
s(g149
S'AADDP'
tp519
F8
s(S'NP'
S'ANNVVP'
tp520
F1
s(S'VP'
p521
S'VAANP'
tp522
F5
s(S'DP'
S'DAAAAPP'
tp523
F1
s(g63
S'VVDP'
tp524
F49
s(g428
S'VVAADP'
tp525
F1
s(S'MP'
S'MADP'
tp526
F5
s(S'NP'
S'NNNDDP'
tp527
F1
s(g279
S'PANP'
tp528
F38
s(S'PP'
S'PPPPMP'
tp529
F1
s(S'CP'
S'CCCDDDDP'
tp530
F1
s(g279
S'AAPAAP'
tp531
F1
s(S'AP'
S'AAVP'
tp532
F7
s(S'AP'
S'AVVP'
tp533
F4
s(S'NP'
p534
S'NDDP'
tp535
F8
s(S'PP'
S'PADVMP'
tp536
F1
s(S'DP'
S'ADVADVDPPP'
tp537
F1
s(S'AP'
S'ACCP'
tp538
F5
s(g341
S'AVPPP'
tp539
F2
s(g91
S'NDP'
tp540
F108
s(S'NP'
p541
S'NNADVADVDP'
tp542
F1
s(S'DP'
p543
S'DDVP'
tp544
F41
s(S'PP'
S'ADVPPADP'
tp545
F1
s(g123
S'AANVP'
tp546
F9
s(S'VP'
S'ADVVVNNP'
tp547
F1
s(S'DP'
S'ADDVP'
tp548
F2
s(S'VP'
S'VNNNP'
tp549
F3
s(S'VP'
S'VADVADVPP'
tp550
F1
s(S'PP'
S'ADVPAP'
tp551
F1
s(g182
S'PPPPVVP'
tp552
F2
s(S'MP'
S'MPADVDP'
tp553
F1
s(S'PP'
S'APADVDP'
tp554
F3
s(S'PP'
S'PCP'
tp555
F9
s(S'NP'
S'NNPPP'
tp556
F3
s(S'VP'
S'VAACCP'
tp557
F1
s(S'PP'
S'PAADP'
tp558
F1
s(g205
S'DDDAVP'
tp559
F1
s(g289
S'VPPPP'
tp560
F4
s(S'DP'
S'ADVADADVNNP'
tp561
F1
s(S'VP'
S'VVADVACP'
tp562
F1
s(S'PP'
p563
S'AAAPPNNP'
tp564
F1
s(S'AP'
S'ADVACP'
tp565
F2
s(S'PP'
S'AAPNNP'
tp566
F1
s(S'VP'
S'AVVDP'
tp567
F3
s(g91
S'NNVP'
tp568
F75
s(S'MP'
S'MVCP'
tp569
F7
s(S'PP'
S'PPAAANP'
tp570
F1
s(S'PP'
S'PADVANP'
tp571
F1
s(S'CP'
p572
S'CCDDP'
tp573
F12
s(S'NP'
S'NNADVVP'
tp574
F4
s(S'DP'
p575
S'DADVNP'
tp576
F7
s(g450
S'PPADVPPP'
tp577
F1
s(S'NP'
S'NNNNVP'
tp578
F4
s(g253
S'VVCP'
tp579
F27
s(S'DP'
S'ADVDMP'
tp580
F1
s(g268
S'AANCP'
tp581
F7
s(S'VP'
S'VDP'
tp582
F215
s(S'AP'
S'ADVAVVP'
tp583
F1
s(g337
S'APPP'
tp584
F8
s(S'PP'
S'PPADP'
tp585
F1
s(g88
S'DDDDPPP'
tp586
F1
s(S'VP'
S'ADVVPP'
tp587
F2
s(S'VP'
S'VVADVANP'
tp588
F1
s(S'CP'
S'CDAPPP'
tp589
F2
s(S'VP'
S'VNNP'
tp590
F44
s(S'AP'
S'AADVDP'
tp591
F1
s(S'NP'
S'ADVANDP'
tp592
F1
s(g481
S'NADP'
tp593
F11
s(g21
S'DDNP'
tp594
F50
s(g91
S'NADVCP'
tp595
F12
s(g373
S'DDNNP'
tp596
F9
s(g167
S'AAPPP'
tp597
F2
s(S'VP'
S'VPPPPP'
tp598
F2
s(S'VP'
S'ADVAVPP'
tp599
F1
s(S'PP'
S'PADVADVVVP'
tp600
F1
s(g120
S'ADVADVNCP'
tp601
F2
s(S'AP'
S'ADVADDP'
tp602
F1
s(S'CP'
p603
S'AAACDDDDP'
tp604
F1
s(g39
S'AADPP'
tp605
F6
s(S'NP'
p606
S'NNNNPP'
tp607
F2
s(S'VP'
S'VVVVCP'
tp608
F1
s(g34
S'AAADVP'
tp609
F1
s(g471
S'AAPDP'
tp610
F2
s(S'MP'
S'MVVNP'
tp611
F1
s(S'CP'
S'CDDADVPPP'
tp612
F1
s(S'CP'
S'CAAADDPP'
tp613
F1
s(S'CP'
S'ACDDP'
tp614
F6
s(g54
S'AAPP'
tp615
F10
s(S'AP'
S'ADVADVACCP'
tp616
F1
s(S'VP'
S'VVCCP'
tp617
F2
s(g201
S'AAANNADVVP'
tp618
F1
s(S'DP'
S'DADVVVP'
tp619
F4
s(g259
S'DADVADVNP'
tp620
F3
s(g291
S'ADVPANP'
tp621
F1
s(S'PP'
S'PAANNP'
tp622
F1
s(S'AP'
S'ADVANNP'
tp623
F1
s(S'NP'
S'NAPP'
tp624
F18
s(S'PP'
S'APPVP'
tp625
F3
s(S'NP'
S'NADVDP'
tp626
F4
s(S'PP'
S'ADVPPPP'
tp627
F2
s(g572
S'CDAAAPPP'
tp628
F2
s(S'MP'
S'MVDDP'
tp629
F1
s(g322
S'ANCCP'
tp630
F8
s(S'NP'
S'AANPP'
tp631
F3
s(g201
S'NNCCP'
tp632
F18
s(S'NP'
S'NNMP'
tp633
F6
s(g21
S'DDDVP'
tp634
F4
s(S'VP'
S'AAVPP'
tp635
F1
s(g68
S'ADVADVPNNP'
tp636
F2
s(S'CP'
S'CADDPP'
tp637
F1
s(g195
S'ADVNNVP'
tp638
F2
s(g19
S'PAAAP'
tp639
F2
s(S'PP'
S'ADVADVPNP'
tp640
F1
s(S'PP'
S'PPPAP'
tp641
F1
s(S'CP'
S'CDDAPP'
tp642
F3
s(S'NP'
S'ANAP'
tp643
F1
s(g207
S'MVAP'
tp644
F6
s(g19
S'PVP'
tp645
F195
s(S'VP'
S'VADVPPP'
tp646
F1
s(g102
S'DADVAVP'
tp647
F1
s(S'CP'
S'CCCDDP'
tp648
F1
s(S'AP'
S'ADVADVAPP'
tp649
F1
s(g139
S'ADVADVDAAVP'
tp650
F1
s(g106
S'VVVAANP'
tp651
F1
s(S'MP'
S'MADVADVVCP'
tp652
F1
s(S'AP'
S'ADVAACP'
tp653
F1
s(S'DP'
S'DVVVP'
tp654
F4
s(g215
S'PPADVPP'
tp655
F2
s(g341
S'VCCCCP'
tp656
F1
s(S'NP'
S'ADVADVANVP'
tp657
F1
s(S'PP'
S'PPDDP'
tp658
F7
s(S'VP'
S'AVCP'
tp659
F2
s(g170
S'DPP'
tp660
F302
s(S'DP'
p661
S'ADVVP'
tp662
F3
s(S'NP'
S'ADVNVP'
tp663
F9
s(S'CP'
S'CDADVADVADVPP'
tp664
F1
s(g21
S'DDPP'
tp665
F100
s(g661
S'DDADVPPP'
tp666
F1
s(S'DP'
p667
S'DANP'
tp668
F50
s(g534
S'NADVPP'
tp669
F1
s(g179
S'NNNDP'
tp670
F2
s(g413
S'ADVNVVVP'
tp671
F1
s(S'NP'
p672
S'NADVADP'
tp673
F1
s(S'NP'
S'NAAVP'
tp674
F3
s(S'DP'
S'ADVADVADPP'
tp675
F2
s(g19
S'PDDDP'
tp676
F1
s(g435
S'CADVADVADVDPP'
tp677
F2
s(S'AP'
S'AAAAPP'
tp678
F1
s(g341
S'VADVCP'
tp679
F3
s(S'NP'
S'NNNNCP'
tp680
F1
s(S'MP'
S'MDNP'
tp681
F1
s(S'DP'
S'ADDPPP'
tp682
F1
s(S'DP'
S'DDADVADVVVP'
tp683
F1
s(g380
S'PADVPPP'
tp684
F2
s(S'DP'
S'AADDP'
tp685
F1
s(S'CP'
S'CDPPPPP'
tp686
F4
s(g133
S'ADVADPP'
tp687
F2
s(g392
S'DDADVVP'
tp688
F2
s(S'VP'
S'VVADVADVNNP'
tp689
F1
s(g19
S'PDDP'
tp690
F47
s(S'DP'
S'DADVADVADVVP'
tp691
F1
s(g563
S'ADVAPNP'
tp692
F2
s(S'NP'
S'NNNADVPP'
tp693
F1
s(S'DP'
S'ADPPP'
tp694
F7
s(S'PP'
p695
S'AAAPDDP'
tp696
F1
s(S'PP'
S'APAAP'
tp697
F3
s(S'NP'
S'NNP'
tp698
F1
s(g245
S'VVDDP'
tp699
F6
s(S'VP'
S'VAADDP'
tp700
F1
s(g667
S'DAANP'
tp701
F9
s(S'AP'
S'ADDP'
tp702
F22
s(S'PP'
S'PNNNNP'
tp703
F1
s(g270
S'ADVVVAP'
tp704
F1
s(S'PP'
S'ADVPPNP'
tp705
F1
s(S'NP'
p706
S'ADVADVNVVP'
tp707
F1
s(S'PP'
S'PPPAVP'
tp708
F1
s(S'VP'
S'VVVCP'
tp709
F1
s(g398
S'ADVADVNAPP'
tp710
F1
s(S'CP'
S'CADVADVDPP'
tp711
F1
s(S'CP'
S'ADVADVADVCDP'
tp712
F1
s(g21
S'DPPP'
tp713
F94
s(g139
S'DAVVP'
tp714
F3
s(g358
S'AADPPP'
tp715
F2
s(S'VP'
S'VANNP'
tp716
F1
s(S'NP'
S'NNAVP'
tp717
F1
s(g109
S'ADVPNP'
tp718
F8
s(S'PP'
S'PPDP'
tp719
F31
s(g603
S'CDADVAPPP'
tp720
F1
s(S'PP'
S'AAAPPPPPP'
tp721
F1
s(S'CP'
S'CAADADVPP'
tp722
F1
s(S'VP'
S'VMMMP'
tp723
F1
s(g91
S'NAP'
tp724
F72
s(S'NP'
S'NNAAP'
tp725
F1
s(S'VP'
S'VAAAP'
tp726
F2
s(S'MP'
S'MVVADVCP'
tp727
F1
s(S'VP'
S'VVP'
tp728
F37
s(S'MP'
S'ADVMNP'
tp729
F1
s(g133
S'DDAPP'
tp730
F5
s(S'PP'
p731
S'ADVADVPVP'
tp732
F5
s(S'AP'
S'AAADP'
tp733
F10
s(g232
S'APNP'
tp734
F34
s(S'DP'
S'DDVVP'
tp735
F6
s(g14
S'VVVNP'
tp736
F6
s(S'MP'
S'MNPP'
tp737
F1
s(S'CP'
S'CDDAAAPP'
tp738
F1
s(g201
S'NAMP'
tp739
F2
s(S'MP'
S'MVANP'
tp740
F1
s(S'MP'
S'MAVVDP'
tp741
F1
s(S'DP'
S'ADVADVDDPP'
tp742
F1
s(S'MP'
S'MVNNP'
tp743
F1
s(S'PP'
S'APPADVPP'
tp744
F1
s(S'CP'
S'CDPP'
tp745
F268
s(g541
S'AAAANNVP'
tp746
F1
s(S'MP'
S'MMMNP'
tp747
F1
s(S'AP'
S'ADDDP'
tp748
F4
s(S'CP'
S'ADVCADP'
tp749
F2
s(S'PP'
S'AAAAPPPP'
tp750
F1
s(g25
S'ADVCDP'
tp751
F13
s(g23
S'ADVADVVNP'
tp752
F1
s(g575
S'AAADDPP'
tp753
F1
s(g471
S'PADVADVDP'
tp754
F1
s(S'VP'
S'ADVADVVCP'
tp755
F2
s(S'PP'
S'PPNNP'
tp756
F13
s(S'PP'
S'PPMP'
tp757
F1
s(S'CP'
S'CAADDPP'
tp758
F2
s(S'DP'
S'ADVADVDPP'
tp759
F1
s(g44
S'VADVNP'
tp760
F7
s(g114
S'NADVAP'
tp761
F3
s(S'VP'
S'AVDDP'
tp762
F5
s(g543
S'DAP'
tp763
F24
s(S'CP'
S'CADPP'
tp764
F25
s(g706
S'NADVAVP'
tp765
F1
s(S'PP'
S'PPAVP'
tp766
F2
s(g521
S'VVDDDDP'
tp767
F3
s(g63
S'AVPP'
tp768
F11
s(S'NP'
S'NADVADVMP'
tp769
F1
s(g346
S'CAADPPP'
tp770
F2
s(S'PP'
S'APNNNP'
tp771
F1
s(S'MP'
S'AMVVP'
tp772
F1
s(S'CP'
S'AACDDP'
tp773
F1
s(S'CP'
S'CDPPPP'
tp774
F7
s(g63
S'AAVDP'
tp775
F5
s(g731
S'PANNP'
tp776
F3
s(g322
S'NNAP'
tp777
F9
s(S'NP'
S'ADVANADVVP'
tp778
F1
s(g672
S'NNDDP'
tp779
F3
s(S'DP'
S'DAPPP'
tp780
F4
s(S'DP'
S'DADVADVPP'
tp781
F7
s(S'NP'
S'AANVVP'
tp782
F2
s(g426
S'ADVDPP'
tp783
F29
s(S'PP'
S'APADVPP'
tp784
F1
s(S'PP'
S'PPAANP'
tp785
F1
s(g232
S'PADVADVNP'
tp786
F3
s(S'VP'
S'ADVADVVAP'
tp787
F2
s(S'DP'
S'ADPP'
tp788
F44
s(g23
S'VADVPP'
tp789
F2
s(g28
S'DDAAPP'
tp790
F1
s(g360
S'ADVPVP'
tp791
F10
s(S'DP'
S'DDDDPP'
tp792
F3
s(g237
S'ADVVANP'
tp793
F3
s(S'PP'
S'PAMP'
tp794
F1
s(g165
S'ADVPDP'
tp795
F9
s(S'NP'
S'ANADVDP'
tp796
F1
s(g695
S'PPPVVP'
tp797
F1
s(g91
S'NCP'
tp798
F241
s(S'VP'
S'ADVVVPP'
tp799
F1
s(S'PP'
S'AAAPNP'
tp800
F1
s(S'NP'
S'NNNADP'
tp801
F1
s(g461
S'AAAP'
tp802
F2
s(S'DP'
S'AADADVPP'
tp803
F1
s(S'NP'
S'AANDP'
tp804
F1
s(S'VP'
S'VDDDP'
tp805
F4
s(S'MP'
S'MNVP'
tp806
F6
s(S'NP'
S'AANCCP'
tp807
F1
s(S'VP'
S'VAPP'
tp808
F6
s(S'MP'
S'MADVVANP'
tp809
F1
s(g144
S'ADVVDP'
tp810
F14
s(g400
S'DADVPP'
tp811
F18
s(S'AP'
S'AMP'
tp812
F1
s(S'CP'
S'CCADP'
tp813
F5
s(S'NP'
S'ADVNNCP'
tp814
F1
s(g147
S'ADVADVADVPNP'
tp815
F1
s(g365
S'NNNPPP'
tp816
F2
s(S'AP'
S'ADVAPP'
tp817
F4
s(g450
S'ADVPPVVP'
tp818
F1
s(S'CP'
S'AACDP'
tp819
F6
s(S'PP'
S'ADVADVPCP'
tp820
F1
s(g21
S'DVP'
tp821
F197
s(g521
S'ADVVAP'
tp822
F1
s(g394
S'ADVNPP'
tp823
F1
s(S'DP'
S'AAADVVP'
tp824
F1
s(S'NP'
S'NNCCCP'
tp825
F1
s(S'AP'
S'AVP'
tp826
F30
s(S'NP'
S'NADVVP'
tp827
F10
s(S'NP'
S'NNADVADVVP'
tp828
F1
s(S'CP'
S'CAAAADPP'
tp829
F1
s(g153
S'ADVVPPP'
tp830
F1
s(g259
S'DDPPP'
tp831
F19
s(S'NP'
S'ADVNMP'
tp832
F2
s(g383
S'ADVADVVVP'
tp833
F1
s(S'PP'
S'PPANP'
tp834
F7
s(g499
S'CDADVPP'
tp835
F11
s(g63
S'VNP'
tp836
F213
s(g44
S'VANP'
tp837
F27
s(S'VP'
S'VADVAP'
tp838
F7
s(S'AP'
S'AAAAAADDP'
tp839
F1
s(S'PP'
S'PPADVNP'
tp840
F1
s(g606
S'ADVAAANCP'
tp841
F1
s(S'NP'
S'NADVPPP'
tp842
F2
s.