ccollections
defaultdict
p1
(c__builtin__
float
p2
tRp3
(S'DP'
p4
S'DDPP'
tp5
F7
s(S'DP'
S'DANP'
tp6
F8
s(S'VP'
S'ADVVNP'
tp7
F1
s(S'NP'
p8
S'NADVPP'
tp9
F1
s(S'NP'
p10
S'ANPP'
tp11
F5
s(S'PP'
p12
S'PPPPP'
tp13
F2
s(S'VP'
p14
S'VVNP'
tp15
F2
s(S'MP'
S'MVVPP'
tp16
F1
s(S'PP'
p17
S'PPPNP'
tp18
F1
s(g17
S'PPVP'
tp19
F2
s(S'DP'
p20
S'DDAP'
tp21
F2
s(S'DP'
S'ADVADVADPP'
tp22
F1
s(S'NP'
p23
S'NPPPP'
tp24
F1
s(S'MP'
p25
S'MVVACP'
tp26
F1
s(S'VP'
p27
S'VAAP'
tp28
F1
s(g27
S'VADVNP'
tp29
F1
s(S'PP'
p30
S'PAPP'
tp31
F2
s(S'CP'
S'CAADPP'
tp32
F1
s(S'NP'
p33
S'ANDP'
tp34
F2
s(g23
S'NVVP'
tp35
F1
s(S'DP'
p36
S'DNP'
tp37
F27
s(S'PP'
p38
S'PPADP'
tp39
F1
s(S'PP'
p40
S'PNNP'
tp41
F5
s(S'NP'
p42
S'ANNAP'
tp43
F1
s(S'CP'
p44
S'CDAPP'
tp45
F2
s(S'VP'
p46
S'VVAAP'
tp47
F2
s(S'VP'
p48
S'VCCCP'
tp49
F1
s(S'CP'
S'CDPPP'
tp50
F10
s(S'CP'
p51
S'CADVADPP'
tp52
F1
s(g36
S'ADNP'
tp53
F1
s(S'MP'
S'MMVP'
tp54
F1
s(S'DP'
p55
S'ADVP'
tp56
F1
s(S'DP'
p57
S'DAAP'
tp58
F2
s(g30
S'AAPDP'
tp59
F1
s(S'DP'
p60
S'ADVADPP'
tp61
F1
s(S'PP'
S'PDDP'
tp62
F5
s(S'CP'
p63
S'ACDP'
tp64
F4
s(S'VP'
S'VCCP'
tp65
F2
s(g36
S'ADPPP'
tp66
F2
s(S'NP'
p67
S'NNACP'
tp68
F1
s(S'DP'
p69
S'DAPP'
tp70
F4
s(S'PP'
S'PADVADVAAP'
tp71
F1
s(S'VP'
p72
S'VAP'
tp73
F8
s(g12
S'APVP'
tp74
F3
s(S'PP'
p75
S'PPPMP'
tp76
F1
s(S'MP'
S'MVDP'
tp77
F1
s(S'PP'
p78
S'PADVANP'
tp79
F2
s(S'PP'
S'PPPP'
tp80
F3
s(g14
S'VADVMP'
tp81
F1
s(g46
S'VVDDP'
tp82
F2
s(S'VP'
S'VAADDP'
tp83
F1
s(S'AP'
p84
S'AAVVP'
tp85
F1
s(S'CP'
p86
S'CDDDDPP'
tp87
F1
s(S'DP'
S'DDDPPP'
tp88
F1
s(S'DP'
S'DADVVP'
tp89
F2
s(S'MP'
S'MADVDVP'
tp90
F1
s(g25
S'MMNP'
tp91
F1
s(S'VP'
S'ADVVVDP'
tp92
F1
s(S'VP'
S'VAAPP'
tp93
F1
s(S'DP'
p94
S'DPPP'
tp95
F14
s(S'NP'
S'NADVVVP'
tp96
F1
s(S'VP'
p97
S'VCP'
tp98
F6
s(S'CP'
S'CDDPP'
tp99
F4
s(g42
S'NMMP'
tp100
F2
s(S'VP'
p101
S'VVVPP'
tp102
F1
s(S'VP'
p103
S'VAANP'
tp104
F1
s(S'PP'
p105
S'PAP'
tp106
F15
s(g75
S'ADVPNP'
tp107
F1
s(S'PP'
p108
S'PPDP'
tp109
F7
s(S'NP'
p110
S'NNPP'
tp111
F4
s(S'NP'
p112
S'ANPPP'
tp113
F1
s(S'PP'
p114
S'PPVVP'
tp115
F1
s(g105
S'PNP'
tp116
F27
s(g57
S'ADVDADVAP'
tp117
F1
s(S'DP'
S'DNNNP'
tp118
F2
s(S'CP'
p119
S'CCAADP'
tp120
F1
s(g69
S'DDP'
tp121
F7
s(S'PP'
p122
S'PANP'
tp123
F2
s(S'PP'
S'PADVADVVP'
tp124
F1
s(g105
S'PAAP'
tp125
F1
s(S'CP'
S'AACDP'
tp126
F1
s(g40
S'PMP'
tp127
F1
s(S'AP'
p128
S'AAVP'
tp129
F1
s(S'AP'
S'ADVADVAADP'
tp130
F1
s(S'AP'
S'ACP'
tp131
F7
s(g44
S'CCDP'
tp132
F7
s(g112
S'ANNDP'
tp133
F1
s(S'NP'
p134
S'NAP'
tp135
F2
s(S'VP'
S'VPPP'
tp136
F2
s(S'NP'
S'NMP'
tp137
F5
s(S'DP'
S'ADAAP'
tp138
F1
s(S'NP'
p139
S'NVVVP'
tp140
F1
s(S'VP'
S'AVPPP'
tp141
F1
s(S'NP'
p142
S'NDP'
tp143
F11
s(S'DP'
S'DDDDPP'
tp144
F1
s(g36
S'DVP'
tp145
F19
s(g72
S'VVP'
tp146
F1
s(g105
S'PDP'
tp147
F28
s(g108
S'PADVNP'
tp148
F1
s(g84
S'AAADP'
tp149
F1
s(g78
S'APNP'
tp150
F2
s(g105
S'PPP'
tp151
F16
s(S'NP'
S'NNNNCP'
tp152
F1
s(g42
S'NAVP'
tp153
F1
s(g57
S'DAVP'
tp154
F1
s(g139
S'NAACP'
tp155
F1
s(g12
S'PCP'
tp156
F2
s(g8
S'NNPPP'
tp157
F1
s(S'CP'
p158
S'CDPP'
tp159
F37
s(S'PP'
S'PAADP'
tp160
F1
s(S'DP'
p161
S'ADVDVP'
tp162
F2
s(g33
S'NNDP'
tp163
F1
s(S'NP'
S'NNVP'
tp164
F2
s(g55
S'ADPP'
tp165
F1
s(g60
S'DPPPP'
tp166
F1
s(S'NP'
S'ANCCP'
tp167
F1
s(S'VP'
p168
S'VPP'
tp169
F8
s(S'NP'
S'NACP'
tp170
F3
s(g134
S'NCCP'
tp171
F5
s(g119
S'ADVCDP'
tp172
F2
s(S'NP'
S'NNNCP'
tp173
F3
s(g122
S'PADVDP'
tp174
F2
s(g38
S'APNNP'
tp175
F1
s(g142
S'NNCP'
tp176
F8
s(g23
S'NADVVP'
tp177
F1
s(S'DP'
p178
S'DANNP'
tp179
F1
s(g101
S'AAVDP'
tp180
F1
s(g86
S'CCDDP'
tp181
F1
s(S'PP'
S'PPNNP'
tp182
F3
s(g108
S'ADVPAVP'
tp183
F1
s(g114
S'PVVP'
tp184
F2
s(g158
S'CADPPP'
tp185
F2
s(g48
S'AVNP'
tp186
F1
s(g168
S'VDP'
tp187
F27
s(S'VP'
p188
S'VVCP'
tp189
F2
s(S'DP'
S'DAP'
tp190
F6
s(S'CP'
S'CADPP'
tp191
F1
s(g38
S'ADVPVVP'
tp192
F1
s(g30
S'PPAP'
tp193
F2
s(g69
S'DVVP'
tp194
F3
s(S'MP'
S'ADVMVP'
tp195
F1
s(g12
S'APPP'
tp196
F2
s(S'MP'
S'MVAPP'
tp197
F1
s(S'AP'
S'APPP'
tp198
F2
s(g27
S'ADVVPP'
tp199
F1
s(g46
S'VVVP'
tp200
F1
s(S'CP'
S'CADVDPP'
tp201
F1
s(S'PP'
S'APADVNP'
tp202
F1
s(g142
S'NADP'
tp203
F1
s(g17
S'PANNP'
tp204
F1
s(g119
S'CCCDP'
tp205
F1
s(S'VP'
p206
S'AVNNP'
tp207
F1
s(g94
S'ADVDNNP'
tp208
F1
s(g134
S'NADVCP'
tp209
F1
s(g67
S'ANCP'
tp210
F3
s(g30
S'APDP'
tp211
F3
s(g178
S'DMP'
tp212
F1
s(S'DP'
S'ADVDPP'
tp213
F1
s(g10
S'ADVANVP'
tp214
F1
s(S'NP'
S'AAANCP'
tp215
F1
s(S'AP'
S'AADVCP'
tp216
F1
s(S'AP'
S'AADP'
tp217
F3
s(S'MP'
S'MNVVVP'
tp218
F1
s(g36
S'DDDP'
tp219
F3
s(S'CP'
S'CDDPPP'
tp220
F2
s(S'VP'
S'VVANP'
tp221
F1
s(g20
S'AADDPP'
tp222
F1
s(g57
S'AADPP'
tp223
F3
s(g27
S'ADVVVP'
tp224
F1
s(g103
S'VVDP'
tp225
F2
s(g33
S'NPPP'
tp226
F4
s(g4
S'DADVADVANP'
tp227
F1
s(g75
S'PADP'
tp228
F1
s(g8
S'ADVADVANCP'
tp229
F1
s(S'AP'
p230
S'ACCP'
tp231
F1
s(S'NP'
S'ADVNCP'
tp232
F1
s(S'PP'
S'ADVPDP'
tp233
F1
s(g230
S'AADVADVVP'
tp234
F1
s(S'NP'
p235
S'ADVANCP'
tp236
F1
s(g36
S'DNNP'
tp237
F7
s(S'NP'
p238
S'NCP'
tp239
F33
s(g27
S'VVACP'
tp240
F1
s(g78
S'PPNP'
tp241
F8
s(S'AP'
p242
S'AAAP'
tp243
F1
s(S'CP'
S'ACDDP'
tp244
F1
s(S'AP'
p245
S'AAMP'
tp246
F1
s(g84
S'AAPP'
tp247
F1
s(g51
S'CDPPPP'
tp248
F1
s(S'MP'
S'MVCCP'
tp249
F1
s(S'PP'
S'PADVVP'
tp250
F1
s(S'MP'
S'MNVP'
tp251
F4
s(g110
S'AANCCP'
tp252
F1
s(g242
S'ADP'
tp253
F12
s(g235
S'NAPP'
tp254
F3
s(S'AP'
S'APP'
tp255
F7
s(g235
S'NADVDP'
tp256
F1
s(S'VP'
p257
S'ADVVDP'
tp258
F1
s(g242
S'AAP'
tp259
F2
s(g178
S'DADVPP'
tp260
F3
s(S'VP'
S'VVAPP'
tp261
F1
s(g257
S'VVPP'
tp262
F1
s(S'AP'
S'AMP'
tp263
F1
s(g235
S'NNMP'
tp264
F1
s(g206
S'VAPP'
tp265
F2
s(g97
S'VAAANP'
tp266
F1
s(g245
S'ADVAPP'
tp267
F1
s(g75
S'PAAAP'
tp268
F1
s(S'PP'
S'PAANP'
tp269
F1
s(g48
S'AVDP'
tp270
F1
s(g235
S'ANVP'
tp271
F1
s(S'MP'
S'MVAP'
tp272
F1
s(g105
S'PVP'
tp273
F22
s(S'MP'
S'MVNP'
tp274
F2
s(g128
S'AVP'
tp275
F2
s(g63
S'CDDDPPP'
tp276
F1
s(g36
S'DDNP'
tp277
F5
s(g122
S'PAVP'
tp278
F1
s(S'DP'
S'DDPPP'
tp279
F2
s(S'VP'
S'ADVADVVPPP'
tp280
F1
s(g8
S'ADVNMP'
tp281
F1
s(S'NP'
p282
S'NNAP'
tp283
F2
s(g142
S'NPP'
tp284
F23
s(g188
S'ADVADVVAP'
tp285
F1
s(g238
S'NVP'
tp286
F18
s(S'CP'
S'CADVADVADPP'
tp287
F1
s(S'PP'
S'PAAVP'
tp288
F1
s(S'CP'
S'CDADVPP'
tp289
F2
s(S'VP'
S'VNP'
tp290
F12
s(g161
S'ADVDVVP'
tp291
F1
s(g72
S'VANP'
tp292
F3
s(g168
S'VDDP'
tp293
F1
s(g105
S'PPDDP'
tp294
F3
s(S'PP'
S'PPADVNP'
tp295
F1
s(S'AP'
S'AAADVDP'
tp296
F1
s(g36
S'DPP'
tp297
F39
s(g282
S'ADVNVP'
tp298
F2
s(S'NP'
S'AANVVP'
tp299
F1
s.