ccollections
defaultdict
p1
(c__builtin__
float
p2
tRp3
(S'NP'
S'AANDDP'
tp4
F3
s(S'DP'
p5
S'DDMP'
tp6
F6
s(S'AP'
S'AADDDP'
tp7
F2
s(S'PP'
S'ADVADVPAP'
tp8
F1
s(S'DP'
p9
S'DDPPPPP'
tp10
F6
s(S'CP'
S'CDADVADVPPP'
tp11
F9
s(S'VP'
p12
S'VVADVCP'
tp13
F2
s(S'CP'
S'CDPPP'
tp14
F400
s(S'DP'
S'ADVADVADPPP'
tp15
F1
s(S'CP'
S'CDAAPPP'
tp16
F6
s(S'MP'
p17
S'MVVADVADVCP'
tp18
F1
s(S'AP'
S'AADVADVADVDP'
tp19
F1
s(S'DP'
S'DAADP'
tp20
F1
s(S'PP'
S'PADVADVAAP'
tp21
F2
s(S'NP'
S'NNADVADVAVP'
tp22
F1
s(S'DP'
p23
S'DDDNP'
tp24
F40
s(S'VP'
p25
S'AAVVP'
tp26
F2
s(S'PP'
S'ADVAAPPVP'
tp27
F1
s(S'NP'
S'ADVADVNNCCP'
tp28
F1
s(S'NP'
S'AAAANVVP'
tp29
F1
s(S'NP'
p30
S'ANNDP'
tp31
F3
s(S'NP'
S'NNNAP'
tp32
F3
s(S'NP'
S'ANPPP'
tp33
F27
s(S'NP'
S'NNNACP'
tp34
F1
s(S'CP'
p35
S'CADPPPP'
tp36
F3
s(S'PP'
p37
S'PAAP'
tp38
F134
s(S'MP'
S'MCDP'
tp39
F14
s(S'NP'
p40
S'ANADVAP'
tp41
F1
s(S'DP'
p42
S'DDAANP'
tp43
F9
s(S'VP'
p44
S'ADVADVVVCP'
tp45
F3
s(S'NP'
p46
S'NMP'
tp47
F209
s(S'DP'
p48
S'ADCP'
tp49
F3
s(S'CP'
S'CADVDADVPP'
tp50
F3
s(S'VP'
p51
S'AAVNP'
tp52
F17
s(S'VP'
S'VMMP'
tp53
F5
s(S'DP'
S'ADVADVDDAP'
tp54
F1
s(S'DP'
S'ADVDADVAPP'
tp55
F1
s(S'NP'
p56
S'ADVADVNAAPPP'
tp57
F1
s(S'NP'
S'NACCP'
tp58
F6
s(S'VP'
S'AAVPP'
tp59
F6
s(S'DP'
p60
S'DDANP'
tp61
F22
s(S'PP'
S'PADVADP'
tp62
F8
s(S'NP'
p63
S'ADVNDP'
tp64
F21
s(S'VP'
S'VVVVVP'
tp65
F1
s(S'NP'
S'AANPPP'
tp66
F4
s(S'NP'
S'NADVADVVP'
tp67
F12
s(S'DP'
S'DDDDP'
tp68
F18
s(S'DP'
S'ADVDDAVP'
tp69
F1
s(S'CP'
S'AAACDDP'
tp70
F2
s(S'VP'
S'VADVADVADVADP'
tp71
F1
s(S'NP'
S'ADVADVADVNNDP'
tp72
F1
s(S'NP'
S'ANADVVP'
tp73
F3
s(S'AP'
S'AAAAP'
tp74
F1
s(S'AP'
S'AAADVADVVP'
tp75
F2
s(S'VP'
p76
S'AVNNP'
tp77
F14
s(S'VP'
p78
S'VCCCP'
tp79
F7
s(S'PP'
p80
S'APDP'
tp81
F169
s(S'NP'
S'ADVNPPP'
tp82
F6
s(S'AP'
p83
S'AADVCP'
tp84
F10
s(S'VP'
S'ADVADVAVPP'
tp85
F1
s(S'VP'
S'VVANP'
tp86
F17
s(S'VP'
p87
S'VVVVDP'
tp88
F11
s(S'VP'
S'ADVVVP'
tp89
F8
s(S'DP'
S'DADVADVADVPP'
tp90
F2
s(S'MP'
p91
S'MADVVNP'
tp92
F5
s(S'VP'
S'VVVPPPP'
tp93
F2
s(S'CP'
p94
S'CADVDDPP'
tp95
F17
s(S'DP'
p96
S'DPPPPP'
tp97
F13
s(S'CP'
p98
S'CCADVDP'
tp99
F12
s(S'VP'
S'VVACP'
tp100
F2
s(S'VP'
S'AAVDDP'
tp101
F4
s(S'PP'
S'AAPPDDP'
tp102
F1
s(S'PP'
S'AAPPDP'
tp103
F1
s(S'PP'
S'PADVVP'
tp104
F48
s(S'DP'
S'DADVADVADVPPP'
tp105
F2
s(S'CP'
S'ADVADVCDP'
tp106
F13
s(S'MP'
S'MVVCP'
tp107
F5
s(S'CP'
S'CCCADVADVADVDP'
tp108
F1
s(S'PP'
S'PAANP'
tp109
F23
s(S'VP'
S'VADVADVCP'
tp110
F2
s(S'PP'
S'PPPDDDP'
tp111
F1
s(S'AP'
S'ADVANNP'
tp112
F1
s(S'NP'
S'ANAAP'
tp113
F2
s(S'NP'
S'NNNNNP'
tp114
F1
s(S'CP'
S'ADVADVADVADVCDDP'
tp115
F1
s(S'PP'
p116
S'APPPP'
tp117
F6
s(S'DP'
S'DADP'
tp118
F24
s(S'AP'
S'ADVADP'
tp119
F32
s(S'MP'
S'MADVADVADVADVVCP'
tp120
F1
s(S'PP'
S'AAAAAPVVP'
tp121
F1
s(S'PP'
p122
S'APVP'
tp123
F127
s(S'CP'
S'CADVADVDDAPP'
tp124
F1
s(S'PP'
S'AAPVP'
tp125
F24
s(S'VP'
S'VMP'
tp126
F19
s(S'CP'
S'CDAPP'
tp127
F188
s(S'VP'
p128
S'VVAAP'
tp129
F17
s(S'DP'
p130
S'DAMP'
tp131
F2
s(S'NP'
S'ANDDP'
tp132
F10
s(S'DP'
S'DADVAP'
tp133
F10
s(S'DP'
S'ADVADVADVDNP'
tp134
F2
s(S'NP'
p135
S'NADVADVADVADVCCP'
tp136
F1
s(S'VP'
p137
S'VADVAAP'
tp138
F3
s(S'VP'
p139
S'ADVADVVDP'
tp140
F14
s(S'AP'
p141
S'AAPPP'
tp142
F7
s(S'DP'
S'DAAANP'
tp143
F8
s(S'DP'
S'ADVADVADVDAPP'
tp144
F1
s(S'NP'
S'ANAP'
tp145
F25
s(S'PP'
S'ADVPAAPP'
tp146
F1
s(S'MP'
S'MVADP'
tp147
F3
s(S'NP'
p148
S'NNPP'
tp149
F302
s(S'CP'
S'CCCADVDP'
tp150
F3
s(S'CP'
S'CAADPPPP'
tp151
F1
s(S'MP'
S'MVVDP'
tp152
F5
s(S'DP'
S'DDDDDVP'
tp153
F1
s(S'DP'
S'ADVDADVPP'
tp154
F4
s(S'DP'
S'ADVADVADVDAADP'
tp155
F1
s(S'DP'
p156
S'ADVDDVP'
tp157
F16
s(S'CP'
S'CAADDPPP'
tp158
F1
s(S'PP'
S'PVVVP'
tp159
F31
s(S'VP'
S'ADVADVVDDP'
tp160
F1
s(S'PP'
S'PADVADVADVVP'
tp161
F4
s(S'NP'
S'ADVADVADVNNVVP'
tp162
F1
s(S'CP'
p163
S'CDAAPP'
tp164
F33
s(S'PP'
p165
S'PDDDDP'
tp166
F5
s(S'MP'
S'MVACP'
tp167
F1
s(S'CP'
S'CCCCDP'
tp168
F4
s(S'PP'
S'PPPPPNNP'
tp169
F1
s(S'VP'
p170
S'VVMP'
tp171
F2
s(S'CP'
p172
S'CADADVPP'
tp173
F5
s(S'PP'
S'AAPADVDP'
tp174
F1
s(g80
S'PPP'
tp175
F683
s(S'CP'
S'CDDADVADVPP'
tp176
F2
s(S'PP'
S'PPPPADVDP'
tp177
F1
s(S'NP'
S'NNNADVCCP'
tp178
F1
s(S'AP'
S'AADVVP'
tp179
F7
s(S'DP'
p180
S'ADVDPPPP'
tp181
F1
s(S'PP'
S'ADVPAVVP'
tp182
F1
s(g35
S'ACCDP'
tp183
F11
s(S'AP'
S'AAAACP'
tp184
F1
s(S'DP'
S'DDADVDP'
tp185
F1
s(S'DP'
p186
S'DANNP'
tp187
F19
s(S'PP'
S'PADVAAP'
tp188
F2
s(S'CP'
p189
S'CDDPP'
tp190
F375
s(S'DP'
S'ADVADADVVP'
tp191
F1
s(S'CP'
p192
S'CADPPP'
tp193
F30
s(S'DP'
p194
S'DADVPPP'
tp195
F18
s(S'DP'
S'ADVADDP'
tp196
F1
s(S'MP'
S'MAVCP'
tp197
F2
s(S'PP'
S'PPNNNP'
tp198
F7
s(S'PP'
S'PPADVADVDP'
tp199
F2
s(S'PP'
S'PADVAVP'
tp200
F9
s(S'PP'
S'PPADVADVADVVP'
tp201
F1
s(S'PP'
S'PPADVADVADVADVNP'
tp202
F1
s(S'AP'
p203
S'APPP'
tp204
F38
s(S'VP'
p205
S'VVVP'
tp206
F67
s(S'DP'
S'DDAAVP'
tp207
F1
s(S'DP'
p208
S'DCP'
tp209
F69
s(g87
S'VVADVADP'
tp210
F1
s(S'PP'
S'PPAAANP'
tp211
F1
s(S'VP'
S'VVAAVP'
tp212
F1
s(g186
S'DADVCP'
tp213
F4
s(S'DP'
S'DDDP'
tp214
F77
s(S'PP'
S'PPPNNNP'
tp215
F1
s(S'DP'
S'ADDDP'
tp216
F2
s(S'PP'
p217
S'PADVADVNNP'
tp218
F5
s(S'NP'
S'NAAAAP'
tp219
F1
s(S'DP'
p220
S'ADVDAPP'
tp221
F5
s(S'DP'
S'AADVP'
tp222
F9
s(S'AP'
S'AAAADVCP'
tp223
F1
s(S'PP'
S'APMP'
tp224
F1
s(S'DP'
S'DDAVP'
tp225
F7
s(S'VP'
S'AVADVADVNP'
tp226
F1
s(S'NP'
p227
S'AAANNCP'
tp228
F3
s(S'PP'
p229
S'PPPAVP'
tp230
F2
s(S'VP'
S'VAAANP'
tp231
F2
s(S'DP'
S'DVVVVP'
tp232
F2
s(S'DP'
S'DADVADP'
tp233
F1
s(S'NP'
S'AANAAAAAAAP'
tp234
F1
s(S'PP'
S'PPMP'
tp235
F9
s(S'CP'
S'CCCADVADP'
tp236
F1
s(S'DP'
S'DDDCP'
tp237
F1
s(S'CP'
S'ADVACDP'
tp238
F11
s(S'VP'
S'AAVNNP'
tp239
F3
s(g148
S'NPP'
tp240
F1148
s(g148
S'NVP'
tp241
F1069
s(S'NP'
S'ADVANDDP'
tp242
F1
s(S'NP'
S'AANNVP'
tp243
F1
s(S'NP'
S'ANCCCP'
tp244
F1
s(g116
S'ADVADVPDP'
tp245
F7
s(S'MP'
S'MVVPP'
tp246
F9
s(S'PP'
S'PPPAAP'
tp247
F1
s(g116
S'PPVVVVP'
tp248
F2
s(S'PP'
p249
S'PNNP'
tp250
F408
s(S'VP'
p251
S'VADVAAAVP'
tp252
F1
s(S'MP'
S'MMVP'
tp253
F30
s(S'PP'
S'PADVDDP'
tp254
F5
s(S'AP'
S'AAPPPP'
tp255
F1
s(S'VP'
S'VAPPP'
tp256
F2
s(S'NP'
p257
S'NNDP'
tp258
F150
s(S'VP'
S'ADVVVAAP'
tp259
F1
s(S'DP'
S'ADVDDDP'
tp260
F2
s(S'VP'
S'VVADVAP'
tp261
F5
s(S'NP'
S'AANNCP'
tp262
F4
s(S'NP'
S'ANADVCP'
tp263
F1
s(S'DP'
S'AADAP'
tp264
F1
s(S'AP'
S'AAVVP'
tp265
F7
s(S'NP'
p266
S'NADVADVAPP'
tp267
F1
s(S'DP'
S'DADVDP'
tp268
F3
s(S'DP'
p269
S'ADVDDDDP'
tp270
F1
s(S'DP'
S'ADVADVADNP'
tp271
F1
s(S'VP'
p272
S'ADVVVDP'
tp273
F8
s(S'VP'
S'AAVAP'
tp274
F1
s(S'AP'
S'AADDP'
tp275
F42
s(S'AP'
S'ADVADVAADVDP'
tp276
F1
s(S'NP'
S'NAAVP'
tp277
F12
s(S'VP'
S'VADVADVADVCP'
tp278
F2
s(g91
S'MADVADVADVVNP'
tp279
F1
s(S'PP'
p280
S'PAAAAP'
tp281
F3
s(S'VP'
S'AAVVNP'
tp282
F2
s(S'CP'
S'CCAADP'
tp283
F6
s(S'AP'
p284
S'AAACCP'
tp285
F1
s(S'AP'
p286
S'AVVP'
tp287
F34
s(S'DP'
S'DADVADVNNP'
tp288
F3
s(S'AP'
p289
S'APPPP'
tp290
F3
s(S'PP'
S'AAPPVVVP'
tp291
F1
s(S'NP'
S'NNAAAAP'
tp292
F1
s(S'NP'
S'NNNNCP'
tp293
F5
s(S'PP'
p294
S'ADVPAP'
tp295
F16
s(S'AP'
S'AADVADVADP'
tp296
F1
s(S'PP'
p297
S'PADVMP'
tp298
F2
s(S'DP'
S'ADVADVADVADPPP'
tp299
F1
s(S'DP'
S'DDDADVAVP'
tp300
F1
s(S'DP'
S'DADVADVAVP'
tp301
F1
s(S'NP'
S'NNVP'
tp302
F308
s(S'PP'
S'PPADVADVVP'
tp303
F1
s(S'PP'
p304
S'PPAAP'
tp305
F19
s(S'DP'
p306
S'ADADVNNP'
tp307
F1
s(S'NP'
p308
S'AANCP'
tp309
F33
s(S'AP'
S'AAAPP'
tp310
F7
s(S'DP'
p311
S'DDDDPPP'
tp312
F2
s(g48
S'DAAACP'
tp313
F1
s(S'VP'
S'VADVADVADVADVCP'
tp314
F1
s(S'CP'
S'CDAPPP'
tp315
F6
s(S'VP'
p316
S'VNNP'
tp317
F248
s(S'PP'
S'APADVNP'
tp318
F3
s(g308
S'NADP'
tp319
F47
s(S'PP'
p320
S'AAPPP'
tp321
F5
s(S'DP'
S'DDDVVVP'
tp322
F1
s(S'DP'
S'ADVDDVVP'
tp323
F2
s(S'PP'
S'APCP'
tp324
F2
s(S'VP'
S'VVVAAP'
tp325
F2
s(S'PP'
S'ADVADVPPDP'
tp326
F7
s(S'VP'
S'VVMMP'
tp327
F1
s(S'MP'
S'MAVAP'
tp328
F2
s(S'AP'
S'AAMMP'
tp329
F1
s(S'NP'
S'NADVADVCCP'
tp330
F1
s(S'DP'
S'ADVADVADVADVADPP'
tp331
F1
s(S'CP'
S'ACDDP'
tp332
F35
s(S'DP'
p333
S'DMMP'
tp334
F4
s(S'CP'
S'CAAADADVPP'
tp335
F1
s(S'DP'
S'DAAAPP'
tp336
F2
s(S'VP'
S'VVVCCP'
tp337
F2
s(g148
S'NAPP'
tp338
F126
s(S'AP'
S'ADVADVADP'
tp339
F4
s(S'NP'
p340
S'NNACCP'
tp341
F1
s(S'VP'
S'VVVCP'
tp342
F7
s(S'CP'
S'ADVADVCADP'
tp343
F4
s(S'NP'
p344
S'ANCCP'
tp345
F32
s(S'DP'
S'DDAAAPP'
tp346
F1
s(S'NP'
S'NNADVCP'
tp347
F3
s(S'PP'
p348
S'PPADVADVVVP'
tp349
F1
s(S'DP'
p350
S'ADVADVDPPPP'
tp351
F1
s(S'NP'
S'ADVADVANCCCP'
tp352
F1
s(S'DP'
S'DVVVP'
tp353
F17
s(g297
S'PPADVPP'
tp354
F2
s(S'NP'
S'ADVNNAP'
tp355
F1
s(S'NP'
S'ADVADVANVP'
tp356
F1
s(S'DP'
S'DDVVVP'
tp357
F5
s(S'PP'
S'AAPADVADVADVDP'
tp358
F1
s(g23
S'DPP'
tp359
F1341
s(S'DP'
p360
S'DDDVVP'
tp361
F3
s(S'NP'
S'NADVADVVVP'
tp362
F2
s(S'NP'
p363
S'NADVPP'
tp364
F38
s(S'VP'
p365
S'VVVADVADVAP'
tp366
F1
s(S'MP'
S'MMAP'
tp367
F1
s(g5
S'AADNP'
tp368
F17
s(S'VP'
p369
S'VADVCP'
tp370
F18
s(S'PP'
S'PPAANNP'
tp371
F1
s(S'DP'
S'ADDPPP'
tp372
F3
s(S'NP'
S'AANNDP'
tp373
F3
s(S'DP'
S'DDADVADVVVP'
tp374
F2
s(S'NP'
S'ADVNMMP'
tp375
F1
s(S'NP'
S'NAANP'
tp376
F1
s(S'DP'
S'AADDP'
tp377
F1
s(S'PP'
S'AAPDP'
tp378
F21
s(S'MP'
S'MADVVDP'
tp379
F2
s(S'DP'
S'DDCCCCP'
tp380
F1
s(S'AP'
S'AADVDDP'
tp381
F9
s(S'PP'
p382
S'PADVADVADVDP'
tp383
F2
s(S'NP'
S'NNNADVADVPP'
tp384
F1
s(g257
S'NNP'
tp385
F7
s(S'NP'
S'AANCCCP'
tp386
F1
s(S'AP'
S'AADVADVVVP'
tp387
F1
s(S'PP'
S'ADVADVPPNP'
tp388
F10
s(S'VP'
S'AVVCP'
tp389
F2
s(S'NP'
S'NMMMP'
tp390
F2
s(g25
S'AVVDDDP'
tp391
F1
s(S'VP'
S'VMMMP'
tp392
F1
s(g284
S'ADVAAAAP'
tp393
F1
s(S'NP'
S'NAP'
tp394
F365
s(g266
S'NNAAP'
tp395
F9
s(g44
S'VAAAP'
tp396
F16
s(S'VP'
S'AAVADVNP'
tp397
F1
s(S'VP'
S'VVVDDDP'
tp398
F1
s(S'MP'
S'MNPP'
tp399
F2
s(S'NP'
S'NNADVPP'
tp400
F5
s(S'CP'
S'ADVADVCCCDP'
tp401
F1
s(S'AP'
S'ADDDP'
tp402
F5
s(S'DP'
S'ADVDVVP'
tp403
F3
s(S'MP'
S'MMMVP'
tp404
F3
s(S'NP'
S'NNADVADVADVVP'
tp405
F1
s(S'CP'
S'ADVCDP'
tp406
F88
s(S'VP'
S'ADVADVVNP'
tp407
F10
s(S'PP'
S'ADVPAVP'
tp408
F3
s(S'PP'
p409
S'ADVPPVVVP'
tp410
F1
s(S'NP'
p411
S'NADVAP'
tp412
F12
s(g208
S'DAP'
tp413
F247
s(S'VP'
S'AAVVAP'
tp414
F1
s(S'VP'
p415
S'ADVADVVCCP'
tp416
F1
s(S'VP'
S'AVPP'
tp417
F71
s(S'MP'
S'AMVVP'
tp418
F1
s(S'DP'
p419
S'AADNNP'
tp420
F6
s(S'PP'
S'PANNP'
tp421
F15
s(S'DP'
S'ADPPPP'
tp422
F4
s(S'VP'
S'ADVVADVAP'
tp423
F1
s(S'DP'
S'DADVADVPP'
tp424
F20
s(S'NP'
S'NNNNDP'
tp425
F2
s(S'NP'
S'ANADVADVCCP'
tp426
F1
s(S'DP'
S'DDACP'
tp427
F2
s(S'PP'
p428
S'PPPPNP'
tp429
F6
s(S'PP'
S'PVVVVP'
tp430
F6
s(S'CP'
S'CCAAADP'
tp431
F3
s(g60
S'DDADVADVADVNP'
tp432
F1
s(S'DP'
S'ADVADDVP'
tp433
F1
s(S'NP'
p434
S'NNVVVP'
tp435
F9
s(S'VP'
p436
S'ADVVANP'
tp437
F8
s(S'PP'
S'PPDDDDP'
tp438
F1
s(S'VP'
S'AAVVDDP'
tp439
F1
s(S'VP'
S'ADVVVPP'
tp440
F9
s(S'PP'
p441
S'APAVVVP'
tp442
F1
s(S'PP'
S'PPAAAP'
tp443
F2
s(S'VP'
S'AAVVDP'
tp444
F1
s(S'PP'
S'PPPADVDP'
tp445
F2
s(S'VP'
S'VADVADVADVPPP'
tp446
F1
s(S'NP'
p447
S'AANAP'
tp448
F4
s(S'CP'
S'ADVADVCCDP'
tp449
F8
s(g436
S'VAPP'
tp450
F81
s(g9
S'DDADVADVADVPP'
tp451
F1
s(S'VP'
p452
S'VADDP'
tp453
F7
s(S'AP'
S'ADVADVANP'
tp454
F1
s(S'AP'
p455
S'AVP'
tp456
F226
s(S'DP'
S'ADVADVADVADVDVP'
tp457
F1
s(S'VP'
S'ADVADVVVP'
tp458
F2
s(S'MP'
S'MCDDP'
tp459
F2
s(S'PP'
S'ADVPADVVVP'
tp460
F1
s(g163
S'CDADVPP'
tp461
F72
s(S'VP'
S'VADVAP'
tp462
F57
s(S'VP'
S'ADVADVVVDP'
tp463
F2
s(S'MP'
S'MMDP'
tp464
F4
s(S'VP'
S'VVPPPPPP'
tp465
F1
s(S'CP'
S'CCAADDP'
tp466
F1
s(S'DP'
S'DAANNP'
tp467
F5
s(S'DP'
S'DDDDADVPPP'
tp468
F1
s(S'NP'
p469
S'ADVNAPP'
tp470
F4
s(S'NP'
p471
S'ADVADVNPPPPP'
tp472
F1
s(S'VP'
S'VADP'
tp473
F93
s(S'MP'
S'MAVNP'
tp474
F3
s(S'CP'
S'CCCADDP'
tp475
F1
s(S'PP'
S'APPDP'
tp476
F4
s(S'DP'
S'ADNNP'
tp477
F31
s(S'PP'
p478
S'PPPP'
tp479
F261
s(S'AP'
S'APPPPP'
tp480
F1
s(g289
S'AADVPP'
tp481
F5
s(S'NP'
S'NAAVVP'
tp482
F1
s(S'VP'
p483
S'ADVVAAP'
tp484
F3
s(g148
S'NNADVAP'
tp485
F4
s(S'CP'
S'CAAADPPP'
tp486
F2
s(S'PP'
S'PPANNP'
tp487
F4
s(g205
S'VADVADVAP'
tp488
F5
s(S'AP'
p489
S'ADVAADVVP'
tp490
F2
s(g122
S'ADVPPVP'
tp491
F11
s(S'VP'
S'VVADVADVADVDP'
tp492
F1
s(S'PP'
S'APVVP'
tp493
F17
s(S'NP'
S'NNNNVVVP'
tp494
F1
s(g80
S'PNP'
tp495
F1230
s(S'NP'
S'AAANNDP'
tp496
F1
s(S'PP'
S'PAAADP'
tp497
F1
s(S'NP'
S'AANADVADVVP'
tp498
F1
s(S'PP'
p499
S'ADVADVPPPP'
tp500
F1
s(S'VP'
S'ADVVVDDP'
tp501
F1
s(S'VP'
S'VVVMP'
tp502
F1
s(S'DP'
S'DDDDPPPP'
tp503
F1
s(S'MP'
S'AMPP'
tp504
F1
s(S'VP'
S'ADVADVADVVVAP'
tp505
F1
s(S'CP'
S'CCCDDDDP'
tp506
F1
s(g80
S'PDP'
tp507
F1182
s(g452
S'VAMP'
tp508
F3
s(S'NP'
S'ADVNVVP'
tp509
F3
s(g17
S'MNNVP'
tp510
F2
s(S'NP'
S'AAANVVP'
tp511
F2
s(S'VP'
S'VVVDDP'
tp512
F6
s(S'PP'
S'PPPADVVP'
tp513
F1
s(S'PP'
S'ADVADVADVPPDP'
tp514
F1
s(S'AP'
S'ADVADVAAADP'
tp515
F1
s(S'CP'
S'ADVCCADP'
tp516
F1
s(S'VP'
p517
S'VVADVNP'
tp518
F7
s(S'NP'
S'AANNADVVP'
tp519
F1
s(S'MP'
S'MMMVVP'
tp520
F1
s(S'DP'
S'DPPPP'
tp521
F56
s(S'DP'
S'ADVDDAPP'
tp522
F1
s(g148
S'NCCP'
tp523
F388
s(S'NP'
S'NADVADVADVDP'
tp524
F2
s(g148
S'NNCP'
tp525
F386
s(S'NP'
S'ANADVADVVVP'
tp526
F1
s(S'NP'
S'NNADVADVADVDDP'
tp527
F1
s(S'VP'
S'VVADP'
tp528
F7
s(S'PP'
S'AAPPAP'
tp529
F1
s(S'NP'
p530
S'NADVADVPP'
tp531
F7
s(S'MP'
S'MADVADVVANP'
tp532
F1
s(S'PP'
S'ADVPVVP'
tp533
F5
s(S'NP'
S'AAANAP'
tp534
F1
s(S'VP'
p535
S'VADVVP'
tp536
F8
s(S'DP'
S'AAADPP'
tp537
F3
s(S'VP'
p538
S'ADVADVADVVNP'
tp539
F4
s(S'PP'
p540
S'AAPPAAP'
tp541
F1
s(S'NP'
p542
S'ADVADVADVNAP'
tp543
F1
s(S'NP'
S'NNNVP'
tp544
F32
s(S'MP'
S'MADVVNNP'
tp545
F1
s(S'VP'
S'ADVVAP'
tp546
F28
s(g311
S'DDDDDDP'
tp547
F2
s(S'VP'
S'ADVVNNP'
tp548
F8
s(S'AP'
S'ADVAADVCP'
tp549
F1
s(S'NP'
p550
S'ADVNADVCP'
tp551
F2
s(S'AP'
S'AADVACP'
tp552
F2
s(S'PP'
p553
S'PPAAPPP'
tp554
F1
s(S'NP'
S'ADVADVNNPP'
tp555
F1
s(S'PP'
p556
S'PPADVADVAP'
tp557
F1
s(S'VP'
S'AVVNNP'
tp558
F1
s(S'PP'
p559
S'PPAAPP'
tp560
F1
s(S'VP'
S'VADVNNP'
tp561
F8
s(S'PP'
S'PPNNNNP'
tp562
F1
s(S'DP'
p563
S'DACP'
tp564
F3
s(S'PP'
p565
S'APAP'
tp566
F36
s(S'AP'
p567
S'APP'
tp568
F325
s(S'CP'
p569
S'CADDPPP'
tp570
F2
s(S'AP'
S'ADVADVAADVVP'
tp571
F3
s(g63
S'ADVANPP'
tp572
F8
s(S'VP'
S'VVVVPP'
tp573
F4
s(S'VP'
S'VADVADVNP'
tp574
F6
s(S'VP'
S'ADVADVVADVPP'
tp575
F1
s(S'CP'
S'ADVCADVADVADP'
tp576
F1
s(S'NP'
S'NADVADVPPP'
tp577
F2
s(S'PP'
S'PPVVP'
tp578
F62
s(S'VP'
p579
S'VAACP'
tp580
F3
s(S'MP'
S'MVNP'
tp581
F71
s(S'PP'
S'PAVP'
tp582
F117
s(S'PP'
p583
S'ADVADVPPVP'
tp584
F5
s(S'AP'
S'AAAADVADVCCP'
tp585
F1
s(S'AP'
S'ADVACCP'
tp586
F5
s(g411
S'ANMMMP'
tp587
F1
s(S'DP'
S'ADVDDP'
tp588
F6
s(S'VP'
S'ADVADVVANP'
tp589
F3
s(S'NP'
S'ADVNAP'
tp590
F10
s(S'DP'
S'ADVADVDAP'
tp591
F1
s(g441
S'ADVPDDDDP'
tp592
F1
s(S'MP'
S'MNCP'
tp593
F3
s(S'VP'
S'ADVADVADVVCP'
tp594
F1
s(S'VP'
p595
S'VVNP'
tp596
F279
s(S'NP'
S'AANADVCP'
tp597
F1
s(g478
S'PPVP'
tp598
F335
s(S'NP'
p599
S'ADVNAAPP'
tp600
F1
s(S'AP'
S'AADVADVPPP'
tp601
F1
s(S'VP'
S'VAAP'
tp602
F104
s(S'VP'
S'ADVVAACP'
tp603
F1
s(S'PP'
S'PPADP'
tp604
F16
s(S'NP'
S'NNAAVP'
tp605
F2
s(S'MP'
p606
S'MMPP'
tp607
F2
s(S'CP'
S'ACADVADVDDP'
tp608
F1
s(S'AP'
S'AAAAADP'
tp609
F1
s(S'VP'
S'ADVVVCP'
tp610
F6
s(S'DP'
S'ADVADVADVP'
tp611
F1
s(S'AP'
S'AAADVADVDP'
tp612
F1
s(S'NP'
S'NADVADVADVCP'
tp613
F1
s(S'AP'
S'AAAAAPP'
tp614
F1
s(S'DP'
S'DAPP'
tp615
F285
s(S'NP'
S'NAAACP'
tp616
F5
s(S'VP'
S'ADVADVVPP'
tp617
F6
s(S'NP'
S'AANNVVVP'
tp618
F1
s(S'CP'
S'CADVADVADVDDPPP'
tp619
F1
s(S'NP'
S'NNNAVP'
tp620
F1
s(S'VP'
p621
S'ADVADVADVVDP'
tp622
F3
s(g540
S'AAAPVP'
tp623
F1
s(g37
S'PPPDP'
tp624
F30
s(g350
S'DAAPPP'
tp625
F8
s(S'MP'
S'MVVAP'
tp626
F1
s(S'VP'
S'VDDDDP'
tp627
F3
s(S'CP'
S'CADADVADVPPP'
tp628
F1
s(S'VP'
p629
S'VVPP'
tp630
F204
s(S'DP'
S'ADADVPP'
tp631
F6
s(S'VP'
p632
S'VACCP'
tp633
F1
s(S'CP'
p634
S'CADVADVDDPP'
tp635
F6
s(S'DP'
S'DDAAPP'
tp636
F4
s(g217
S'PPAVVP'
tp637
F1
s(S'NP'
S'AANCCP'
tp638
F8
s(S'PP'
S'ADVADVPADVADVAAAP'
tp639
F1
s(S'PP'
S'PADVADVVP'
tp640
F15
s(S'NP'
S'NNMMP'
tp641
F4
s(S'DP'
S'ADADVAP'
tp642
F1
s(S'PP'
p643
S'PAAPPP'
tp644
F1
s(S'NP'
p645
S'ADVADVADVNCP'
tp646
F1
s(S'NP'
p647
S'NVVVP'
tp648
F35
s(S'PP'
p649
S'PNNNP'
tp650
F42
s(S'PP'
S'PADVADVADVNNP'
tp651
F2
s(S'AP'
S'AACCP'
tp652
F10
s(S'PP'
p653
S'PADVVVP'
tp654
F7
s(S'NP'
p655
S'NAVP'
tp656
F105
s(g428
S'PADVAP'
tp657
F20
s(S'MP'
S'AMDP'
tp658
F3
s(S'PP'
S'PADDP'
tp659
F9
s(S'VP'
S'VVVANP'
tp660
F1
s(S'DP'
S'ADVADVDNNP'
tp661
F3
s(S'PP'
S'PPPPDP'
tp662
F5
s(g220
S'DAAAP'
tp663
F3
s(g192
S'ADVCCDP'
tp664
F25
s(S'PP'
S'PADVDP'
tp665
F47
s(g208
S'DAAPP'
tp666
F51
s(g80
S'PVVP'
tp667
F326
s(S'VP'
S'ADVAVDDDP'
tp668
F1
s(S'AP'
S'AACP'
tp669
F92
s(g579
S'ADVVCP'
tp670
F28
s(S'PP'
p671
S'ADVPPAP'
tp672
F2
s(S'VP'
p673
S'VPPP'
tp674
F173
s(S'VP'
S'AVCCP'
tp675
F4
s(S'NP'
S'NADVADVAVP'
tp676
F1
s(S'VP'
p677
S'VVPPP'
tp678
F29
s(S'VP'
S'ADVVVCCP'
tp679
F2
s(S'NP'
S'ANMP'
tp680
F6
s(S'NP'
S'ADVNNCCP'
tp681
F1
s(S'DP'
S'DDPPPP'
tp682
F8
s(S'NP'
S'NNVVVVP'
tp683
F1
s(S'PP'
S'ADVADVADVPPNP'
tp684
F3
s(S'PP'
p685
S'PPADVNNP'
tp686
F3
s(S'VP'
S'VVADVADVPPP'
tp687
F1
s(g98
S'CADVADVADPP'
tp688
F2
s(g148
S'ANVVP'
tp689
F23
s(S'NP'
S'NVVVVP'
tp690
F10
s(g208
S'AADVVP'
tp691
F4
s(S'VP'
S'ADVAVCP'
tp692
F2
s(S'MP'
p693
S'MAPPP'
tp694
F1
s(S'PP'
p695
S'PPPPDDP'
tp696
F1
s(S'PP'
S'AAPPNNNNP'
tp697
F1
s(S'CP'
S'CCCDDP'
tp698
F9
s(g455
S'ADP'
tp699
F834
s(S'PP'
S'ADVPPDDP'
tp700
F2
s(S'VP'
S'VADVADVADVNP'
tp701
F1
s(S'MP'
S'MADDP'
tp702
F1
s(S'NP'
p703
S'ADVADVADVANPP'
tp704
F1
s(S'VP'
S'ADVADVVNNP'
tp705
F1
s(S'VP'
S'AVDP'
tp706
F118
s(S'NP'
S'ANNVP'
tp707
F10
s(S'VP'
S'VVAP'
tp708
F95
s(S'NP'
S'NNAPP'
tp709
F13
s(S'VP'
S'VADVADVADVPP'
tp710
F2
s(S'NP'
p711
S'ADVNACCP'
tp712
F2
s(g499
S'PAAAANP'
tp713
F1
s(S'NP'
S'NADVAPP'
tp714
F5
s(S'VP'
S'ADVADVVAP'
tp715
F5
s(g447
S'NADVANP'
tp716
F1
s(S'NP'
S'NNDDDP'
tp717
F2
s(g280
S'PAAVP'
tp718
F17
s(g316
S'VDDP'
tp719
F244
s(S'DP'
S'DMP'
tp720
F27
s(S'DP'
S'DADVAPP'
tp721
F18
s(S'NP'
S'NNADVACP'
tp722
F1
s(S'PP'
S'ADVAPAP'
tp723
F1
s(g46
S'ANPP'
tp724
F213
s(S'PP'
p725
S'ADVPPDP'
tp726
F12
s(S'PP'
S'PPPPP'
tp727
F36
s(S'MP'
S'MPDP'
tp728
F9
s(S'VP'
S'ADVADVVADVAP'
tp729
F1
s(S'AP'
S'ADVADVAVP'
tp730
F2
s(S'DP'
p731
S'ADDP'
tp732
F19
s(S'NP'
S'NADVAAP'
tp733
F3
s(S'MP'
S'MVAADP'
tp734
F1
s(S'PP'
S'PPAANP'
tp735
F4
s(S'DP'
S'DADVADVVP'
tp736
F4
s(g5
S'DAAANNP'
tp737
F3
s(S'DP'
S'DDAAP'
tp738
F8
s(S'PP'
S'PADVADVNP'
tp739
F8
s(g128
S'AVAP'
tp740
F24
s(S'CP'
S'CADVADPPP'
tp741
F1
s(S'NP'
S'ADVNCP'
tp742
F59
s(S'AP'
S'ADVANP'
tp743
F4
s(S'PP'
S'ADVADVAPPPPPP'
tp744
F1
s(S'DP'
S'DDDPP'
tp745
F57
s(S'CP'
S'ADVCDDP'
tp746
F8
s(S'PP'
p747
S'ADVADVPCP'
tp748
F1
s(S'MP'
S'MNMP'
tp749
F1
s(S'VP'
S'ADVADVVVAP'
tp750
F1
s(S'DP'
p751
S'DDDPPP'
tp752
F15
s(S'PP'
S'APADVVP'
tp753
F1
s(S'CP'
S'CCADVADP'
tp754
F2
s(S'PP'
p755
S'PADVADVCCP'
tp756
F1
s(g272
S'VAANP'
tp757
F17
s(S'DP'
p758
S'ADVADVDAAPP'
tp759
F1
s(S'PP'
S'PPPCP'
tp760
F1
s(S'DP'
p761
S'ADVADVADVDVP'
tp762
F3
s(S'AP'
S'AADVADVAP'
tp763
F1
s(S'NP'
S'NADVDP'
tp764
F17
s(S'MP'
S'MPNP'
tp765
F5
s(S'VP'
S'AVADVADVCCP'
tp766
F1
s(S'VP'
S'ADVADVADVVAP'
tp767
F1
s(S'MP'
S'MVAAANP'
tp768
F1
s(g695
S'AAPAAP'
tp769
F1
s(S'CP'
S'CDDADVADVPPP'
tp770
F2
s(S'DP'
S'ADAAP'
tp771
F1
s(S'VP'
S'VVADVADVCP'
tp772
F1
s(S'PP'
p773
S'PPPVVVP'
tp774
F1
s(g23
S'DDVP'
tp775
F241
s(g556
S'PPADVANP'
tp776
F1
s(g87
S'VADVADVPP'
tp777
F2
s(S'PP'
S'PPPPVVP'
tp778
F2
s(g217
S'APADVDP'
tp779
F4
s(g294
S'APPNP'
tp780
F5
s(S'NP'
p781
S'NNPPP'
tp782
F56
s(S'AP'
S'AADVAP'
tp783
F2
s(g645
S'NNNDP'
tp784
F8
s(S'MP'
S'MVAAP'
tp785
F1
s(S'VP'
p786
S'ADVADVAVDP'
tp787
F1
s(S'CP'
S'CADVADVADPPP'
tp788
F1
s(S'DP'
p789
S'DDADP'
tp790
F3
s(S'PP'
S'PPPPPADP'
tp791
F1
s(S'NP'
S'NAAMP'
tp792
F2
s(S'MP'
S'MVAANP'
tp793
F1
s(S'PP'
p794
S'PADVADVPP'
tp795
F3
s(S'VP'
S'ADVAVAP'
tp796
F1
s(S'VP'
S'AVVPP'
tp797
F2
s(g116
S'APPP'
tp798
F46
s(S'CP'
S'CADVADVADVADVADPP'
tp799
F1
s(g12
S'ADVVPP'
tp800
F42
s(S'CP'
S'CADVADVADVDDPP'
tp801
F1
s(S'DP'
S'DDNP'
tp802
F392
s(S'NP'
S'ADVADVADVADVNNVP'
tp803
F1
s(S'VP'
S'ADVAVPP'
tp804
F5
s(g447
S'ADVANVP'
tp805
F7
s(g703
S'ADVADVNCP'
tp806
F17
s(S'AP'
S'ADVADDP'
tp807
F4
s(S'NP'
S'NNNNPP'
tp808
F4
s(S'VP'
S'VVVVCP'
tp809
F2
s(S'DP'
S'AAADVP'
tp810
F1
s(S'MP'
S'MPADVDP'
tp811
F1
s(g789
S'DADVVVP'
tp812
F9
s(S'MP'
S'MAAPP'
tp813
F1
s(S'PP'
S'APPVP'
tp814
F4
s(S'NP'
S'AANPP'
tp815
F25
s(g189
S'CADDPP'
tp816
F13
s(S'PP'
S'PAAAP'
tp817
F15
s(S'PP'
S'ADVADVPNP'
tp818
F11
s(S'MP'
S'MDANP'
tp819
F1
s(S'VP'
S'VADVADVDDP'
tp820
F4
s(S'MP'
S'MVDDDP'
tp821
F1
s(S'DP'
S'ADVDAANP'
tp822
F1
s(S'MP'
S'AAMVP'
tp823
F2
s(S'CP'
p824
S'ACDDDP'
tp825
F1
s(S'AP'
S'ADVAACP'
tp826
F2
s(S'NP'
S'ADVNAVP'
tp827
F5
s(S'NP'
S'NNADVADVPPP'
tp828
F1
s(S'MP'
S'MVAANNP'
tp829
F1
s(S'NP'
S'AANADVVP'
tp830
F1
s(g23
S'ADVADVADPP'
tp831
F4
s(S'PP'
S'PPPCCP'
tp832
F1
s(S'PP'
S'APADVDDP'
tp833
F1
s(S'DP'
S'ADVADVDPPP'
tp834
F2
s(S'MP'
S'MADVADVADVVANP'
tp835
F1
s(S'DP'
p836
S'DCCP'
tp837
F9
s(g563
S'DAAAAAPP'
tp838
F1
s(S'DP'
S'ADDPPPP'
tp839
F1
s(S'DP'
S'DDADVNNP'
tp840
F4
s(S'VP'
S'AVVDP'
tp841
F6
s(g80
S'PDDP'
tp842
F324
s(S'NP'
S'ADVADVANVVP'
tp843
F2
s(S'MP'
S'MVDDP'
tp844
F5
s(S'PP'
p845
S'ADVAPNP'
tp846
F12
s(g553
S'AAPPADVVP'
tp847
F1
s(g172
S'AACDDDP'
tp848
F1
s(S'DP'
p849
S'ADVADPP'
tp850
F13
s(S'PP'
p851
S'PPAPPP'
tp852
F1
s(S'MP'
S'MDAP'
tp853
F1
s(S'DP'
p854
S'DAVVP'
tp855
F6
s(g304
S'ADVADVPAAANP'
tp856
F1
s(S'DP'
S'AADPPP'
tp857
F8
s(S'MP'
S'MVPPPP'
tp858
F1
s(S'PP'
S'ADVADVADVPVP'
tp859
F1
s(S'DP'
S'ADVDCP'
tp860
F1
s(S'AP'
S'ADVADVAACP'
tp861
F2
s(S'CP'
S'CADADVADVPP'
tp862
F2
s(S'PP'
S'PAANNP'
tp863
F5
s(g320
S'PPADVDDP'
tp864
F4
s(S'MP'
S'MMAVP'
tp865
F2
s(S'PP'
S'ADVPADP'
tp866
F3
s(S'AP'
S'AADVADDP'
tp867
F1
s(g382
S'PADVADVANP'
tp868
F4
s(S'NP'
S'NNNACCP'
tp869
F1
s(S'DP'
S'DDDAPP'
tp870
F1
s(g23
S'DDVVP'
tp871
F45
s(g483
S'VVVNP'
tp872
F34
s(S'VP'
S'AVPPPP'
tp873
F1
s(g308
S'NAMP'
tp874
F7
s(S'AP'
S'ADVADVAAPP'
tp875
F1
s(S'AP'
S'AAADVADVCP'
tp876
F1
s(S'NP'
S'NADVAMP'
tp877
F1
s(g98
S'CDPP'
tp878
F1256
s(g559
S'AAPVVP'
tp879
F3
s(S'AP'
S'AAAAPPP'
tp880
F1
s(S'PP'
S'PPPPAANP'
tp881
F1
s(S'PP'
S'ADVAPPP'
tp882
F4
s(S'PP'
S'PADVCP'
tp883
F3
s(S'VP'
S'ADVADVADVAVDP'
tp884
F1
s(S'DP'
S'ADVADVDPP'
tp885
F22
s(S'VP'
S'VAADP'
tp886
F11
s(S'VP'
S'VAAAAP'
tp887
F1
s(S'VP'
p888
S'ADVADVVVPP'
tp889
F2
s(S'PP'
S'PPDDDP'
tp890
F4
s(S'VP'
p891
S'VVADVDP'
tp892
F7
s(S'PP'
S'PPADVADVDDP'
tp893
F1
s(S'CP'
S'CDDPPPPP'
tp894
F3
s(S'CP'
S'CDPPPP'
tp895
F42
s(S'VP'
p896
S'AAVDP'
tp897
F17
s(g227
S'NNDDP'
tp898
F33
s(S'PP'
S'PPADVADP'
tp899
F1
s(g23
S'ADVDPP'
tp900
F127
s(S'PP'
p901
S'AAPPPPP'
tp902
F1
s(S'CP'
S'CADVDAAPP'
tp903
F1
s(S'NP'
p904
S'ADVADVNNAP'
tp905
F1
s(S'DP'
p906
S'AAADDDP'
tp907
F1
s(S'DP'
S'DDAAVVP'
tp908
F1
s(S'DP'
S'DDDDPP'
tp909
F10
s(S'CP'
S'ADVADVADVCDDP'
tp910
F1
s(S'NP'
S'ADVADVANCP'
tp911
F3
s(S'PP'
S'PADVADVADVNP'
tp912
F1
s(g251
S'ADVAAAVDP'
tp913
F1
s(S'NP'
S'ANNPP'
tp914
F9
s(g888
S'VVADVADVDP'
tp915
F3
s(S'NP'
p916
S'ADVANDP'
tp917
F4
s(S'DP'
S'AADADVPP'
tp918
F1
s(S'NP'
S'AANDP'
tp919
F13
s(g606
S'MVCCP'
tp920
F3
s(S'DP'
p921
S'DADVNNP'
tp922
F12
s(g369
S'VDDDP'
tp923
F22
s(S'NP'
S'NNNADVADVCP'
tp924
F1
s(S'DP'
S'AADDNNP'
tp925
F1
s(g471
S'ADVADVNADVADVCCCP'
tp926
F1
s(g44
S'AAVVCCCP'
tp927
F1
s(g208
S'DADVPP'
tp928
F129
s(S'AP'
S'AMP'
tp929
F11
s(S'MP'
S'ADVMNP'
tp930
F1
s(S'NP'
S'ADVNNCP'
tp931
F12
s(S'DP'
S'ADVDAP'
tp932
F5
s(S'PP'
S'AAPDDDP'
tp933
F1
s(S'DP'
S'DDADVAPP'
tp934
F1
s(S'NP'
S'NNNCCP'
tp935
F14
s(S'CP'
S'CCADVADVDDP'
tp936
F3
s(g130
S'ADVDPPP'
tp937
F20
s(g23
S'DVP'
tp938
F994
s(S'DP'
S'ADVADVADVDDVP'
tp939
F1
s(g685
S'PADVADVDDP'
tp940
F5
s(S'CP'
S'CDAAAPP'
tp941
F2
s(S'VP'
S'ADVVPPP'
tp942
F2
s(S'NP'
S'ADVNMP'
tp943
F6
s(g148
S'NNAP'
tp944
F48
s(S'MP'
S'MADVVCP'
tp945
F3
s(S'DP'
S'DDADVVVP'
tp946
F1
s(S'DP'
S'DDADVADVAAP'
tp947
F1
s(S'DP'
p948
S'DDMMP'
tp949
F1
s(S'DP'
S'DDAP'
tp950
F29
s(S'VP'
S'ADVVVNP'
tp951
F8
s(g76
S'VVVVP'
tp952
F9
s(g30
S'NADDP'
tp953
F4
s(g294
S'PADVNP'
tp954
F69
s(g23
S'DNP'
tp955
F1208
s(g415
S'ADVADVADVVADVAP'
tp956
F1
s(S'PP'
S'AAPDDP'
tp957
F5
s(S'DP'
S'ADVADVDDVVVP'
tp958
F1
s(S'DP'
S'DNNNNP'
tp959
F5
s(g891
S'AVVVNP'
tp960
F1
s(S'VP'
S'AAVPPP'
tp961
F3
s(S'PP'
S'PPPPPP'
tp962
F13
s(S'CP'
S'CADVADVDPPP'
tp963
F1
s(S'PP'
S'PPPADVADVVVP'
tp964
F1
s(S'VP'
S'ADVADVAVAP'
tp965
F2
s(S'MP'
S'MDVP'
tp966
F1
s(g538
S'ADVVNP'
tp967
F46
s(S'PP'
S'PADVANP'
tp968
F10
s(S'NP'
p969
S'AANNPP'
tp970
F9
s(S'MP'
S'MMADVVP'
tp971
F2
s(g360
S'ADVDDAAPP'
tp972
F1
s(S'PP'
p973
S'PMP'
tp974
F65
s(S'PP'
S'PADVNNP'
tp975
F16
s(S'PP'
S'PACCP'
tp976
F1
s(S'MP'
S'MVVNNNP'
tp977
F1
s(g148
S'NDDDP'
tp978
F10
s(S'NP'
S'NADVVVP'
tp979
F10
s(S'CP'
S'CADVDAPP'
tp980
F4
s(g595
S'VCP'
tp981
F563
s(S'MP'
S'MVVANP'
tp982
F1
s(S'VP'
S'VVAANNP'
tp983
F1
s(g517
S'ADVVCCP'
tp984
F3
s(g80
S'PAP'
tp985
F588
s(S'MP'
S'MMVVP'
tp986
F6
s(S'CP'
S'CDADVADVADVPP'
tp987
F2
s(S'NP'
S'ANNCCP'
tp988
F7
s(S'NP'
S'NAAAVP'
tp989
F1
s(S'PP'
S'PPADVDP'
tp990
F5
s(S'VP'
S'VADVANP'
tp991
F4
s(S'VP'
S'VVADVADVNP'
tp992
F1
s(S'DP'
S'ADVDDAANP'
tp993
F1
s(S'VP'
S'ADVVDDP'
tp994
F4
s(g629
S'VCCP'
tp995
F93
s(S'PP'
S'ADVPCP'
tp996
F1
s(S'CP'
S'AACCDP'
tp997
F3
s(S'DP'
S'ADVADVADNNP'
tp998
F1
s(S'AP'
S'AVVVP'
tp999
F4
s(S'NP'
S'AAAANPPP'
tp1000
F1
s(S'PP'
S'PPADVVP'
tp1001
F11
s(S'VP'
S'VNNNNP'
tp1002
F2
s(S'VP'
S'AVAAP'
tp1003
F4
s(S'NP'
S'NNADVADVADVVVP'
tp1004
F1
s(S'NP'
p1005
S'NADVADVADVVP'
tp1006
F1
s(S'PP'
S'PADVPP'
tp1007
F25
s(S'PP'
S'PPADVAP'
tp1008
F1
s(S'NP'
S'ADVNACP'
tp1009
F1
s(S'NP'
p1010
S'NACP'
tp1011
F148
s(S'AP'
S'ADVAVP'
tp1012
F13
s(S'DP'
S'ADVDAAP'
tp1013
F1
s(g369
S'AVADVNP'
tp1014
F1
s(S'MP'
S'MADVPDP'
tp1015
F1
s(g647
S'NNPPPP'
tp1016
F6
s(S'PP'
S'APPPDP'
tp1017
F1
s(S'MP'
S'MAAADP'
tp1018
F1
s(g311
S'DDAVVP'
tp1019
F1
s(S'NP'
S'ADVADVADVADVNPP'
tp1020
F1
s(S'DP'
S'DDADVADVAPP'
tp1021
F1
s(S'PP'
p1022
S'ADVAPDP'
tp1023
F1
s(g249
S'AAPNP'
tp1024
F14
s(S'NP'
S'ADVADVADVNMP'
tp1025
F1
s(S'DP'
p1026
S'ADVADVADVDDPP'
tp1027
F2
s(g671
S'ADVPAPP'
tp1028
F2
s(g569
S'CCCDP'
tp1029
F33
s(S'PP'
S'ADVPPNNP'
tp1030
F5
s(S'CP'
S'CCCADVADVDDP'
tp1031
F2
s(S'NP'
S'NAAPPP'
tp1032
F1
s(S'DP'
S'ADVADDPP'
tp1033
F1
s(S'VP'
S'VADVADVVVP'
tp1034
F1
s(S'MP'
S'ADVMPP'
tp1035
F2
s(S'DP'
S'DDAAAP'
tp1036
F1
s(S'NP'
S'ADVADVNPPP'
tp1037
F1
s(S'NP'
S'ADVNCCP'
tp1038
F7
s(S'DP'
S'ADVADNNP'
tp1039
F1
s(S'NP'
S'ADVANCP'
tp1040
F9
s(g23
S'DNNP'
tp1041
F426
s(S'VP'
S'VVNNNP'
tp1042
F5
s(S'PP'
S'ADVPADVNP'
tp1043
F1
s(S'DP'
S'DDADVADVADVVP'
tp1044
F1
s(S'CP'
S'CAAADDPPP'
tp1045
F1
s(S'PP'
S'ADVAPNNP'
tp1046
F1
s(S'VP'
p1047
S'VVADVADVAAP'
tp1048
F2
s(S'VP'
S'AAAVNNP'
tp1049
F1
s(S'AP'
S'AAP'
tp1050
F55
s(S'VP'
p1051
S'VADVADVVP'
tp1052
F1
s(S'AP'
S'AAADVDDP'
tp1053
F4
s(S'MP'
S'MPVP'
tp1054
F1
s(S'PP'
S'PPADVADVNP'
tp1055
F2
s(S'PP'
S'APADVNNP'
tp1056
F2
s(S'AP'
S'AADVCCP'
tp1057
F1
s(g130
S'ADVADNP'
tp1058
F8
s(g229
S'ADVPADVDDP'
tp1059
F1
s(g452
S'ADVVMP'
tp1060
F1
s(g128
S'VVVPP'
tp1061
F19
s(g845
S'APDDP'
tp1062
F29
s(S'VP'
S'ADVADVVVNP'
tp1063
F8
s(S'PP'
S'AAPNNNP'
tp1064
F1
s(S'VP'
S'VADVADVAAP'
tp1065
F2
s(g891
S'VADVDP'
tp1066
F41
s(S'NP'
S'NNADVAVP'
tp1067
F1
s(g148
S'NVVP'
tp1068
F309
s(g595
S'VVNNP'
tp1069
F50
s(S'DP'
S'ADVADVP'
tp1070
F4
s(g849
S'ADNP'
tp1071
F157
s(S'MP'
S'ADVMAP'
tp1072
F1
s(S'DP'
S'ADNNNNP'
tp1073
F1
s(S'DP'
S'DDADVAP'
tp1074
F1
s(S'PP'
S'PADP'
tp1075
F144
s(S'DP'
S'ADVDDNP'
tp1076
F11
s(S'NP'
S'NNMP'
tp1077
F33
s(S'PP'
S'ADVADVPMP'
tp1078
F1
s(S'VP'
p1079
S'AVVCCP'
tp1080
F1
s(g599
S'NNNCP'
tp1081
F40
s(S'DP'
S'ADVADVDDANP'
tp1082
F1
s(S'VP'
S'AVVP'
tp1083
F13
s(S'VP'
S'AVVNP'
tp1084
F7
s(S'AP'
S'ADVAADVDDP'
tp1085
F1
s(S'PP'
S'AAAPDP'
tp1086
F3
s(g563
S'DADVANP'
tp1087
F9
s(S'VP'
S'VAAPP'
tp1088
F4
s(S'DP'
S'ADVDNP'
tp1089
F63
s(S'PP'
S'APMMP'
tp1090
F2
s(S'MP'
S'MMMDP'
tp1091
F1
s(S'CP'
S'AACDDP'
tp1092
F3
s(S'DP'
p1093
S'ADVP'
tp1094
F73
s(g163
S'CDDPPP'
tp1095
F81
s(S'NP'
S'AAAANCP'
tp1096
F1
s(S'NP'
S'AAANDP'
tp1097
F1
s(g747
S'PPADVAAP'
tp1098
F1
s(S'VP'
S'VVADVCCP'
tp1099
F2
s(S'DP'
p1100
S'DNNNP'
tp1101
F49
s(S'VP'
S'VADVDDP'
tp1102
F9
s(S'NP'
S'NNADVDDP'
tp1103
F1
s(S'VP'
S'ADVVVANP'
tp1104
F1
s(S'MP'
S'AMVP'
tp1105
F12
s(S'CP'
S'CDADVADVPP'
tp1106
F9
s(S'VP'
S'VVVDP'
tp1107
F20
s(S'NP'
S'ANMMP'
tp1108
F1
s(g579
S'VADVPPP'
tp1109
F9
s(S'VP'
p1110
S'VADVADVADVANP'
tp1111
F1
s(g751
S'ADVADVDDNP'
tp1112
F6
s(S'DP'
p1113
S'ADVDVP'
tp1114
F34
s(S'NP'
S'NAAAP'
tp1115
F6
s(S'VP'
S'VAAADDP'
tp1116
F1
s(S'DP'
S'ADVADVDNP'
tp1117
F11
s(S'AP'
S'AAADVCP'
tp1118
F3
s(g595
S'VPP'
tp1119
F897
s(S'PP'
S'PPADVVVP'
tp1120
F4
s(S'MP'
S'ADVADVMVP'
tp1121
F1
s(S'CP'
p1122
S'CDADVAPP'
tp1123
F10
s(S'PP'
S'PPPAAVP'
tp1124
F1
s(S'VP'
S'VVVPPP'
tp1125
F7
s(S'NP'
S'NADVMMP'
tp1126
F2
s(S'PP'
S'PMMP'
tp1127
F9
s(g294
S'PPAP'
tp1128
F99
s(S'PP'
S'APCCP'
tp1129
F1
s(S'MP'
S'MVPPP'
tp1130
F6
s(S'PP'
S'ADVADVADVPPPP'
tp1131
F1
s(S'CP'
S'ADVACDDP'
tp1132
F1
s(g249
S'ADVPPP'
tp1133
F27
s(S'DP'
S'ADVADPPP'
tp1134
F2
s(S'NP'
S'ADVADVNVP'
tp1135
F9
s(g1122
S'CADVDPP'
tp1136
F91
s(S'VP'
S'VVVVVNNP'
tp1137
F1
s(g148
S'ANCP'
tp1138
F182
s(S'PP'
S'ADVADVPAAP'
tp1139
F1
s(S'PP'
S'AAPPNNP'
tp1140
F1
s(S'DP'
S'DAAVVP'
tp1141
F4
s(S'VP'
S'ADVADVAVVP'
tp1142
F1
s(S'DP'
S'DADVADVAAP'
tp1143
F1
s(S'DP'
p1144
S'DDADVPP'
tp1145
F20
s(S'NP'
S'ANNVVP'
tp1146
F3
s(S'NP'
S'NPPP'
tp1147
F258
s(g1144
S'AADDDP'
tp1148
F1
s(g567
S'ACP'
tp1149
F323
s(S'PP'
S'AAPAP'
tp1150
F3
s(S'PP'
S'AAAAPDP'
tp1151
F2
s(S'CP'
S'CDDADVPP'
tp1152
F9
s(S'NP'
S'AAAANMP'
tp1153
F1
s(S'PP'
S'PPPPNNP'
tp1154
F1
s(S'VP'
S'AVADVPPP'
tp1155
F1
s(g78
S'AAVCP'
tp1156
F3
s(S'DP'
S'AADDPPP'
tp1157
F1
s(S'NP'
S'NNNP'
tp1158
F4
s(g649
S'PPVVVP'
tp1159
F7
s(S'VP'
S'VVNNNNP'
tp1160
F1
s(S'PP'
p1161
S'AAPPNP'
tp1162
F3
s(S'NP'
S'NAAPP'
tp1163
F13
s(S'NP'
S'NNNAAVP'
tp1164
F1
s(S'CP'
S'CCADVADVADP'
tp1165
F1
s(S'NP'
S'AAANVVVVP'
tp1166
F1
s(g530
S'ADVADVNPP'
tp1167
F4
s(S'AP'
p1168
S'AADVADVDP'
tp1169
F5
s(g23
S'DDP'
tp1170
F303
s(S'DP'
S'DDADVADVPPP'
tp1171
F2
s(g916
S'NAACP'
tp1172
F23
s(S'VP'
S'VADVACP'
tp1173
F3
s(S'AP'
S'AADVAPP'
tp1174
F1
s(S'VP'
S'ADVVVVP'
tp1175
F1
s(S'NP'
S'NNNAPP'
tp1176
F3
s(S'MP'
S'MMNP'
tp1177
F1
s(S'VP'
S'VVADVADVDDP'
tp1178
F1
s(S'NP'
S'NNAMP'
tp1179
F2
s(S'VP'
S'ADVVAADDP'
tp1180
F1
s(S'NP'
S'NAPPP'
tp1181
F4
s(S'CP'
S'ACDP'
tp1182
F185
s(S'DP'
S'DDADVADVVP'
tp1183
F2
s(S'DP'
S'AAADPPP'
tp1184
F3
s(g595
S'VAP'
tp1185
F609
s(S'VP'
S'VVVVNP'
tp1186
F4
s(g845
S'PAAPP'
tp1187
F5
s(g693
S'MMADVADVADVADVADVADVVP'
tp1188
F1
s(S'VP'
S'VVADVADVCCP'
tp1189
F1
s(S'AP'
S'AAACP'
tp1190
F7
s(S'PP'
S'PPPVP'
tp1191
F18
s(S'DP'
S'DADVAAP'
tp1192
F1
s(g340
S'NAADDP'
tp1193
F1
s(S'DP'
S'DADVADVDP'
tp1194
F2
s(S'PP'
S'PPPDDP'
tp1195
F7
s(S'NP'
S'ADVNNADP'
tp1196
F1
s(S'NP'
S'ANNMP'
tp1197
F1
s(S'NP'
S'NADVDDP'
tp1198
F2
s(S'MP'
S'ADVAMVP'
tp1199
F1
s(S'NP'
p1200
S'NAAP'
tp1201
F69
s(S'NP'
p1202
S'NDDP'
tp1203
F143
s(S'VP'
S'VVADVDDP'
tp1204
F1
s(S'VP'
S'AVPPP'
tp1205
F9
s(S'PP'
p1206
S'ADVPAANP'
tp1207
F3
s(g148
S'NDP'
tp1208
F718
s(S'NP'
S'AAANVP'
tp1209
F4
s(g308
S'AANVP'
tp1210
F12
s(S'VP'
S'AAVVPP'
tp1211
F2
s(g87
S'VNNNP'
tp1212
F26
s(S'AP'
p1213
S'ADVAAAVP'
tp1214
F1
s(S'PP'
p1215
S'PCP'
tp1216
F66
s(S'VP'
S'VPPPP'
tp1217
F11
s(S'NP'
S'NNNMP'
tp1218
F1
s(S'PP'
S'PACP'
tp1219
F3
s(S'PP'
S'PPADVADVADVADVDP'
tp1220
F1
s(S'PP'
S'AAPNNP'
tp1221
F8
s(g139
S'VVVAP'
tp1222
F5
s(S'DP'
S'ADPPP'
tp1223
F43
s(g98
S'CCDDP'
tp1224
F106
s(S'VP'
S'ADVADVADVVPP'
tp1225
F2
s(S'NP'
S'NAACCP'
tp1226
F3
s(S'NP'
S'NNVVP'
tp1227
F56
s(S'PP'
p1228
S'PPADVPPP'
tp1229
F1
s(S'PP'
S'AAPVVVVP'
tp1230
F1
s(S'AP'
S'AAADVPP'
tp1231
F3
s(S'DP'
S'ADVDAAPPP'
tp1232
F1
s(g677
S'VADVNP'
tp1233
F38
s(S'NP'
S'AAANPPP'
tp1234
F2
s(S'VP'
p1235
S'VPPPPP'
tp1236
F2
s(S'NP'
S'ADVNADVDDP'
tp1237
F1
s(S'AP'
S'AADVADP'
tp1238
F3
s(S'NP'
S'NAADP'
tp1239
F5
s(S'DP'
S'AADPP'
tp1240
F48
s(S'DP'
S'DAAAANP'
tp1241
F2
s(S'PP'
S'PPPAAVVP'
tp1242
F1
s(S'DP'
S'DADVADVAP'
tp1243
F1
s(g333
S'ADVDNNP'
tp1244
F6
s(g1228
S'ADVPPAVP'
tp1245
F1
s(g135
S'ADVADVNNCP'
tp1246
F5
s(g567
S'ADVADVACCP'
tp1247
F1
s(S'VP'
S'VVCCP'
tp1248
F21
s(S'CP'
S'CADVADVDAAPP'
tp1249
F1
s(g824
S'ADVCAADP'
tp1250
F1
s(g60
S'DADVADVNP'
tp1251
F14
s(S'PP'
S'ADVPANP'
tp1252
F3
s(S'VP'
S'ADVADVADVADVVCP'
tp1253
F1
s(g452
S'ADVVADVADVANP'
tp1254
F1
s(g854
S'DDAPPP'
tp1255
F1
s(S'AP'
S'AAADVADVDDP'
tp1256
F1
s(S'AP'
S'ADVAAVP'
tp1257
F1
s(S'PP'
S'ADVPPPP'
tp1258
F9
s(S'PP'
S'APDDDP'
tp1259
F3
s(S'PP'
S'PADVAPP'
tp1260
F2
s(S'MP'
S'MPANP'
tp1261
F1
s(g583
S'PPPAP'
tp1262
F8
s(S'DP'
p1263
S'ADVDADP'
tp1264
F1
s(S'NP'
S'ADVANVVP'
tp1265
F1
s(S'MP'
S'MVAP'
tp1266
F22
s(g80
S'PVP'
tp1267
F1105
s(g180
S'DADVAVP'
tp1268
F2
s(S'NP'
S'NNADVADVADVADVPP'
tp1269
F1
s(S'PP'
S'PPPPADVVP'
tp1270
F1
s(g969
S'ANNCP'
tp1271
F14
s(S'DP'
S'DDDDNNNP'
tp1272
F1
s(S'PP'
S'PPDDP'
tp1273
F62
s(S'VP'
S'AVCP'
tp1274
F29
s(g634
S'CADVDDAAPP'
tp1275
F1
s(S'CP'
p1276
S'CADVDDPPP'
tp1277
F2
s(g655
S'ADVNVP'
tp1278
F40
s(S'DP'
S'DDADVPPP'
tp1279
F6
s(S'DP'
S'DDAAAANP'
tp1280
F1
s(S'PP'
S'PAAAAPP'
tp1281
F1
s(S'DP'
S'AADPPPP'
tp1282
F3
s(g845
S'PDDDP'
tp1283
F29
s(S'CP'
S'CADVADVADVDPP'
tp1284
F3
s(S'AP'
S'AAAAPP'
tp1285
F2
s(g434
S'ANNDDP'
tp1286
F3
s(S'PP'
S'PMMMP'
tp1287
F1
s(S'MP'
S'MADVVVPP'
tp1288
F1
s(S'MP'
S'MDNP'
tp1289
F4
s(g56
S'NNAACP'
tp1290
F2
s(S'NP'
S'NNNVVP'
tp1291
F6
s(S'CP'
S'CDPPPPP'
tp1292
F7
s(S'VP'
S'ADVADVADVVDDP'
tp1293
F1
s(S'AP'
S'ADVAVVVP'
tp1294
F2
s(S'PP'
S'APAAP'
tp1295
F4
s(S'NP'
S'NADVADVADVAVP'
tp1296
F1
s(g170
S'VVDDP'
tp1297
F60
s(g365
S'VAADDP'
tp1298
F1
s(g948
S'DAANP'
tp1299
F38
s(S'VP'
S'VVAVP'
tp1300
F1
s(S'PP'
S'PNNNNP'
tp1301
F5
s(S'CP'
S'CADVADVDPP'
tp1302
F15
s(S'NP'
p1303
S'NNAVP'
tp1304
F10
s(S'NP'
S'NNAAPP'
tp1305
F5
s(S'PP'
p1306
S'ADVADVPVVP'
tp1307
F2
s(S'AP'
S'ADVADVAADP'
tp1308
F7
s(g12
S'ADVAVNP'
tp1309
F4
s(g452
S'VVVNNP'
tp1310
F10
s(g83
S'ADVADVAAP'
tp1311
F1
s(S'VP'
S'VADVADVADVADVPP'
tp1312
F1
s(S'AP'
S'AAADDDP'
tp1313
F2
s(g360
S'ADVADVDDPP'
tp1314
F13
s(S'MP'
S'MVVNNP'
tp1315
F2
s(S'CP'
S'ADVCADP'
tp1316
F13
s(g137
S'VVAANP'
tp1317
F4
s(S'DP'
S'ADADVADVPP'
tp1318
F2
s(S'PP'
S'ADVADVAPDDP'
tp1319
F1
s(g973
S'PPNNP'
tp1320
F97
s(S'DP'
S'DMMMP'
tp1321
F1
s(S'NP'
S'AAANCCP'
tp1322
F1
s(S'NP'
S'ANNNVVP'
tp1323
F1
s(S'PP'
S'PPAVP'
tp1324
F12
s(S'DP'
S'DDNNNNP'
tp1325
F1
s(g51
S'VVVACP'
tp1326
F1
s(S'DP'
S'ADVDAAPP'
tp1327
F1
s(S'NP'
S'NNADVCCP'
tp1328
F1
s(g419
S'DAPPP'
tp1329
F9
s(g1213
S'AAADVDP'
tp1330
F3
s(S'NP'
S'AANVVP'
tp1331
F7
s(S'CP'
S'ACCDDP'
tp1332
F1
s(S'NP'
S'AAANPP'
tp1333
F3
s(S'DP'
S'DADVMP'
tp1334
F1
s(g23
S'ADPP'
tp1335
F272
s(S'PP'
p1336
S'PPPVVP'
tp1337
F5
s(g673
S'VADVPP'
tp1338
F26
s(S'CP'
S'CCADVDDP'
tp1339
F4
s(g973
S'ADVPVP'
tp1340
F62
s(S'CP'
S'ADVCCDDP'
tp1341
F3
s(S'DP'
S'ADVDADVVP'
tp1342
F1
s(g348
S'PPPPVP'
tp1343
F6
s(S'PP'
S'ADVPDDP'
tp1344
F6
s(S'DP'
S'DDDDDPP'
tp1345
F1
s(S'PP'
S'PADVADVAP'
tp1346
F1
s(g44
S'VAAVVP'
tp1347
F1
s(g455
S'ADVAPP'
tp1348
F17
s(S'PP'
S'ADVPPVVP'
tp1349
F3
s(S'CP'
S'AACDP'
tp1350
F30
s(S'CP'
S'CADVADADVADVPPP'
tp1351
F1
s(S'NP'
S'NADVADVADVADVVVP'
tp1352
F1
s(S'AP'
S'AADVADVPP'
tp1353
F1
s(g530
S'NNCCCP'
tp1354
F12
s(S'DP'
S'DADDP'
tp1355
F1
s(S'VP'
S'VVVAPP'
tp1356
F1
s(S'NP'
S'NNADVPPP'
tp1357
F4
s(S'PP'
S'PPANP'
tp1358
F21
s(g165
S'PADVADVAVP'
tp1359
F3
s(S'VP'
S'VADVADVADP'
tp1360
F1
s(S'DP'
S'DDDDVP'
tp1361
F2
s(S'VP'
S'VVAAAP'
tp1362
F2
s(S'PP'
S'PAAANP'
tp1363
F10
s(g1093
S'ADDPP'
tp1364
F22
s(g758
S'ADVDAAAP'
tp1365
F1
s(S'AP'
S'ADVAAVVP'
tp1366
F1
s(g896
S'VVADVVP'
tp1367
F2
s(g1215
S'PAPP'
tp1368
F61
s(S'MP'
S'MVVAAP'
tp1369
F1
s(S'VP'
S'AAAVPP'
tp1370
F1
s(S'DP'
p1371
S'DAAP'
tp1372
F52
s(S'DP'
S'AAADDPPP'
tp1373
F1
s(S'VP'
S'VAVP'
tp1374
F10
s(S'CP'
S'CADVADDPP'
tp1375
F1
s(S'MP'
p1376
S'MVDP'
tp1377
F69
s(S'NP'
S'ADVNAVVP'
tp1378
F2
s(S'AP'
S'ADVAPPP'
tp1379
F1
s(S'VP'
S'VACP'
tp1380
F32
s(S'AP'
S'AAAVP'
tp1381
F10
s(g220
S'DADVVP'
tp1382
F48
s(S'VP'
p1383
S'VVADDP'
tp1384
F1
s(S'VP'
S'VVAAPP'
tp1385
F2
s(g1202
S'NADVACP'
tp1386
F6
s(S'NP'
S'NCCCP'
tp1387
F24
s(S'NP'
S'NMMP'
tp1388
F20
s(S'DP'
S'ADADVADVPPP'
tp1389
F1
s(S'DP'
S'DDDNNP'
tp1390
F9
s(S'CP'
S'CDDADVADVADVPPP'
tp1391
F1
s(g1079
S'VVADVNNP'
tp1392
F1
s(g1336
S'PPPPPPP'
tp1393
F2
s(S'VP'
S'AAVVVP'
tp1394
F1
s(S'NP'
S'NNNPP'
tp1395
F36
s(S'NP'
S'NNADVADVCP'
tp1396
F1
s(S'VP'
S'ADVADVADVADVADVADVVCP'
tp1397
F1
s(S'CP'
p1398
S'CCADVADVDP'
tp1399
F3
s(S'DP'
S'ADVADVDAPP'
tp1400
F1
s(S'AP'
S'ANP'
tp1401
F6
s(S'PP'
S'ADVPAAP'
tp1402
F6
s(S'NP'
S'ADVADVADVADVNCP'
tp1403
F2
s(S'NP'
S'AANADVPPP'
tp1404
F1
s(g755
S'AAPPPP'
tp1405
F3
s(g269
S'ADNNNP'
tp1406
F2
s(g595
S'VVP'
tp1407
F244
s(S'AP'
S'AAAADVADVVP'
tp1408
F1
s(S'DP'
S'DADVADVVVP'
tp1409
F3
s(S'AP'
S'AAAADP'
tp1410
F4
s(g194
S'ADVDDPP'
tp1411
F27
s(S'PP'
S'ADVADVPPADP'
tp1412
F1
s(S'NP'
p1413
S'ANAPPPP'
tp1414
F1
s(g677
S'AVNP'
tp1415
F86
s(S'NP'
S'ADVNDDP'
tp1416
F1
s(S'MP'
S'MAPP'
tp1417
F1
s(S'AP'
S'AAAVVVP'
tp1418
F1
s(S'AP'
S'AAAAAAADDDDDP'
tp1419
F1
s(S'MP'
S'MVAPP'
tp1420
F2
s(S'PP'
S'ADVAPVP'
tp1421
F8
s(g904
S'NCCCCP'
tp1422
F3
s(S'DP'
S'DDADVADVADVPPP'
tp1423
F1
s(S'PP'
S'ADVPNNP'
tp1424
F5
s(S'VP'
S'ADVADVAVADVADVCCP'
tp1425
F1
s(S'DP'
S'AADDVP'
tp1426
F1
s(g316
S'ADVVAANP'
tp1427
F1
s(S'CP'
S'CDDPPPP'
tp1428
F4
s(S'AP'
S'AAADVVP'
tp1429
F1
s(S'PP'
S'PPAADP'
tp1430
F2
s(S'DP'
p1431
S'DADVADVADVDP'
tp1432
F1
s(g1100
S'ADDNP'
tp1433
F10
s(S'PP'
S'PAAVVP'
tp1434
F2
s(S'AP'
S'ACCCP'
tp1435
F2
s(g135
S'NADVMP'
tp1436
F5
s(g786
S'VVAPP'
tp1437
F6
s(S'NP'
S'ADVADVNDP'
tp1438
F2
s(S'PP'
p1439
S'PAAADDP'
tp1440
F1
s(g42
S'DAAVP'
tp1441
F18
s(S'CP'
S'CDDDDPP'
tp1442
F5
s(S'DP'
S'ADADVDP'
tp1443
F1
s(g1010
S'ANVP'
tp1444
F132
s(S'MP'
S'MNDP'
tp1445
F1
s(S'AP'
S'ADVAADP'
tp1446
F10
s(S'MP'
S'ADVMVP'
tp1447
F6
s(S'NP'
S'NNADP'
tp1448
F5
s(S'DP'
S'AAADADVPP'
tp1449
F1
s(S'MP'
S'MDNNP'
tp1450
F1
s(S'CP'
S'AAACDDDP'
tp1451
F1
s(g272
S'VVADVPP'
tp1452
F2
s(S'PP'
S'PPCP'
tp1453
F7
s(g489
S'AAAPPP'
tp1454
F1
s(S'DP'
S'DPPPPPP'
tp1455
F2
s(S'VP'
S'ADVADVADVADVVVNNP'
tp1456
F1
s(g725
S'PPPNNP'
tp1457
F7
s(S'VP'
S'VAVVP'
tp1458
F1
s(g647
S'ANDP'
tp1459
F98
s(S'CP'
S'ADVCADDP'
tp1460
F2
s(S'CP'
S'CDDAAPP'
tp1461
F3
s(S'DP'
S'ADVADVDDVP'
tp1462
F2
s(S'VP'
S'ADVADVVVNNP'
tp1463
F1
s(S'AP'
S'ADVAAP'
tp1464
F4
s(S'NP'
S'NADVADVADVPPP'
tp1465
F1
s(S'MP'
S'MAAVVNNP'
tp1466
F1
s(g130
S'ADVADVDVP'
tp1467
F9
s(g1213
S'AACCCP'
tp1468
F1
s(S'VP'
S'VADVAPP'
tp1469
F1
s(S'CP'
S'CCADDP'
tp1470
F2
s(g773
S'PAVVP'
tp1471
F6
s(g1376
S'MVPP'
tp1472
F44
s(S'AP'
S'AADVADVVP'
tp1473
F4
s(S'MP'
p1474
S'MMMPP'
tp1475
F1
s(S'DP'
S'DDDDNP'
tp1476
F6
s(S'DP'
S'ADVDNNNNP'
tp1477
F1
s(S'VP'
S'VADVADVPPP'
tp1478
F3
s(S'NP'
p1479
S'AAAANDP'
tp1480
F1
s(S'VP'
S'ADVADVVADVAANNP'
tp1481
F1
s(g98
S'CCDP'
tp1482
F497
s(g1303
S'ADVNNDP'
tp1483
F5
s(g1431
S'ADVADVADVDPP'
tp1484
F5
s(S'VP'
S'VAAVP'
tp1485
F2
s(g731
S'AADDPP'
tp1486
F3
s(g1398
S'CDDDPP'
tp1487
F30
s(S'PP'
S'PADVADVADVADVNP'
tp1488
F1
s(S'DP'
S'ADVDADVVVVP'
tp1489
F1
s(S'VP'
S'VADVADVADVDDP'
tp1490
F1
s(g1051
S'AVVVPP'
tp1491
F1
s(S'NP'
S'NNNNAVP'
tp1492
F1
s(S'CP'
p1493
S'CADVDDAPP'
tp1494
F1
s(S'NP'
S'NNADVDP'
tp1495
F3
s(S'DP'
S'DDADVDDP'
tp1496
F1
s(S'NP'
S'ANNPPP'
tp1497
F1
s(g761
S'DDNNNP'
tp1498
F7
s(g1306
S'APVVVP'
tp1499
F2
s(S'CP'
S'CADVDPPPP'
tp1500
F1
s(S'AP'
S'AADVVVP'
tp1501
F1
s(S'DP'
S'DADVADVPPP'
tp1502
F13
s(g98
S'CADPP'
tp1503
F185
s(S'PP'
S'ADVPAADP'
tp1504
F1
s(S'NP'
S'NNNADVCP'
tp1505
F1
s(S'DP'
S'ADVDDPPP'
tp1506
F3
s(S'CP'
S'CDDDPPP'
tp1507
F8
s(S'MP'
S'MADVVAP'
tp1508
F4
s(g1276
S'CDDDDPPP'
tp1509
F1
s(S'MP'
S'MCCDP'
tp1510
F1
s(g1439
S'AAPADDP'
tp1511
F1
s(S'NP'
S'NANP'
tp1512
F2
s(g849
S'DVVP'
tp1513
F228
s(S'CP'
S'CADVADVDAPP'
tp1514
F1
s(S'VP'
S'AVMP'
tp1515
F2
s(g40
S'NNDDDDP'
tp1516
F2
s(g530
S'AAANCP'
tp1517
F10
s(S'VP'
S'VVVNNNP'
tp1518
F2
s(S'VP'
S'AAVVCP'
tp1519
F1
s(S'DP'
S'ADVDADVAAPPP'
tp1520
F1
s(g595
S'VVDP'
tp1521
F292
s(S'PP'
S'PPAPP'
tp1522
F6
s(S'DP'
S'DAVP'
tp1523
F93
s(g1047
S'AVVVP'
tp1524
F3
s(g80
S'PPNP'
tp1525
F400
s(S'VP'
S'ADVADVADVADVVACP'
tp1526
F1
s(g711
S'ADVADVANPP'
tp1527
F1
s(S'VP'
S'ADVVADVDP'
tp1528
F1
s(S'VP'
S'VVVVNNP'
tp1529
F1
s(S'MP'
S'MACP'
tp1530
F1
s(g483
S'VAANNP'
tp1531
F4
s(S'NP'
S'NNDDDDDP'
tp1532
F1
s(S'DP'
S'ADDVVP'
tp1533
F1
s(g632
S'VVPPPP'
tp1534
F4
s(g550
S'ADVADVADVADVNNCP'
tp1535
F1
s(S'AP'
S'AAADP'
tp1536
F32
s(S'PP'
S'ADVAPDDP'
tp1537
F1
s(S'DP'
S'ADVDDNNP'
tp1538
F2
s(S'CP'
S'CDDDAPP'
tp1539
F1
s(g1161
S'PADVADVDP'
tp1540
F8
s(S'NP'
p1541
S'NADVADVDP'
tp1542
F2
s(S'PP'
S'PPAMP'
tp1543
F1
s(S'MP'
S'ADVMMVP'
tp1544
F2
s(S'PP'
S'ADVADVADVADVPNP'
tp1545
F1
s(g1474
S'MVADVPPP'
tp1546
F1
s(g851
S'APPADVDP'
tp1547
F1
s(S'DP'
S'AADDNP'
tp1548
F4
s(S'VP'
S'VAAAAPP'
tp1549
F1
s(g565
S'PPPNP'
tp1550
F41
s(g1110
S'ADVVADVADVNP'
tp1551
F1
s(S'DP'
S'DDDDDP'
tp1552
F1
s(S'AP'
S'AAADVCCP'
tp1553
F1
s(g1200
S'NPPPP'
tp1554
F23
s(g569
S'CAADPP'
tp1555
F31
s(S'CP'
S'CDDAPPP'
tp1556
F1
s(S'CP'
S'CDADVADVADVPPP'
tp1557
F1
s(g901
S'APNNP'
tp1558
F35
s(S'PP'
S'ADVPADVVP'
tp1559
F1
s(S'VP'
S'ADVVADVPPP'
tp1560
F1
s(g653
S'PCCP'
tp1561
F5
s(S'DP'
S'DDADVADVPP'
tp1562
F3
s(g363
S'NNACP'
tp1563
F16
s(g94
S'CDADVPPP'
tp1564
F13
s(S'MP'
S'MNVVP'
tp1565
F2
s(S'PP'
S'ADVPMP'
tp1566
F2
s(S'DP'
S'DAACP'
tp1567
F1
s(S'MP'
S'MVVVDP'
tp1568
F2
s(S'VP'
S'ADVAVDP'
tp1569
F5
s(g130
S'ADAP'
tp1570
F8
s(S'DP'
S'DDDAP'
tp1571
F2
s(S'PP'
S'PADVADVADP'
tp1572
F1
s(S'NP'
S'NADVADVCP'
tp1573
F10
s(g1493
S'CDPPPPPP'
tp1574
F1
s(S'VP'
S'VVAADP'
tp1575
F2
s(S'MP'
S'MADP'
tp1576
F6
s(S'NP'
S'NNNDDP'
tp1577
F2
s(S'AP'
S'AMMP'
tp1578
F3
s(S'DP'
S'DDADVNP'
tp1579
F5
s(g80
S'PANP'
tp1580
F204
s(S'NP'
S'AANMP'
tp1581
F2
s(g1168
S'AAVP'
tp1582
F41
s(S'VP'
S'ADVADVVAAP'
tp1583
F2
s(g141
S'ACCP'
tp1584
F36
s(S'VP'
S'VVVVAP'
tp1585
F1
s(g1005
S'NNNNVVP'
tp1586
F3
s(g1263
S'ADADVPPP'
tp1587
F1
s(S'DP'
S'ADDVP'
tp1588
F6
s(S'CP'
S'ADVADVADVADVCCDDP'
tp1589
F1
s(S'VP'
S'VADVADP'
tp1590
F3
s(S'PP'
S'PAADDP'
tp1591
F2
s(S'CP'
S'ACADVDDP'
tp1592
F2
s(g294
S'PAADP'
tp1593
F27
s(S'NP'
S'ADVNNVP'
tp1594
F17
s(S'DP'
S'ADVADVADVDDNP'
tp1595
F2
s(g1206
S'ADVAPADVVP'
tp1596
F1
s(S'NP'
S'ADVNNPP'
tp1597
F9
s(S'PP'
S'APADVMP'
tp1598
F1
s(S'AP'
S'ADVACP'
tp1599
F28
s(S'NP'
S'ADVADVNMP'
tp1600
F2
s(g96
S'DDADVVP'
tp1601
F5
s(S'MP'
S'MVCP'
tp1602
F30
s(S'MP'
S'MVADVADVADVPP'
tp1603
F1
s(g128
S'AAVVNNP'
tp1604
F2
s(S'NP'
S'NNADVVP'
tp1605
F7
s(S'DP'
S'DADVNP'
tp1606
F69
s(g434
S'NNNNVP'
tp1607
F5
s(g595
S'VVCP'
tp1608
F108
s(g1113
S'ADVDMP'
tp1609
F2
s(S'PP'
S'ADVPPADP'
tp1610
F2
s(g595
S'VDP'
tp1611
F1077
s(g1383
S'VVDDDP'
tp1612
F4
s(S'AP'
S'ADVAVVP'
tp1613
F5
s(S'AP'
S'AADVADVADVADVVP'
tp1614
F1
s(S'AP'
S'AAAADDP'
tp1615
F1
s(S'AP'
S'AADVDP'
tp1616
F26
s(g1213
S'AAAP'
tp1617
F22
s(S'CP'
S'ACADVDP'
tp1618
F3
s(g647
S'NADVCP'
tp1619
F64
s(S'DP'
S'DDNNP'
tp1620
F92
s(S'PP'
S'PADVADVVVP'
tp1621
F5
s(S'NP'
S'ADVNAAP'
tp1622
F2
s(S'VP'
S'ADVVVVPP'
tp1623
F1
s(S'NP'
S'ADVNAACP'
tp1624
F1
s(S'DP'
S'DADVADVANP'
tp1625
F2
s(S'NP'
S'NNADVMP'
tp1626
F1
s(S'AP'
S'AADVADVMP'
tp1627
F1
s(S'NP'
S'NNADVADVADVCP'
tp1628
F1
s(S'MP'
S'MVVNP'
tp1629
F9
s(S'CP'
S'CDDADVPPP'
tp1630
F4
s(g286
S'AAPP'
tp1631
F62
s(g1479
S'NAAAANP'
tp1632
F1
s(g344
S'NNCCP'
tp1633
F82
s(S'DP'
S'DADVADVADVADVNP'
tp1634
F1
s(g1026
S'DDDVP'
tp1635
F13
s(g348
S'ADVADVADVPVVP'
tp1636
F1
s(S'VP'
S'AAVDDDP'
tp1637
F1
s(S'CP'
S'CDDAPP'
tp1638
F16
s(S'AP'
S'AADVADVCCP'
tp1639
F1
s(S'AP'
S'AADVADVADVDDP'
tp1640
F1
s(g78
S'VADVCCP'
tp1641
F5
s(S'PP'
S'APPNNP'
tp1642
F1
s(S'PP'
S'ADVADVADVPDDP'
tp1643
F1
s(S'NP'
S'NADVADVAP'
tp1644
F3
s(g1541
S'NAVVP'
tp1645
F4
s(S'DP'
S'ADVADVADVDDPPP'
tp1646
F1
s(g23
S'DDPP'
tp1647
F553
s(g1371
S'DANP'
tp1648
F313
s(S'VP'
S'AVDDDDP'
tp1649
F1
s(S'MP'
S'MAACDP'
tp1650
F1
s(S'NP'
S'NADVADP'
tp1651
F2
s(S'PP'
S'ADVADVPNNNNP'
tp1652
F1
s(g655
S'NADVCCP'
tp1653
F18
s(g643
S'AAPPVVP'
tp1654
F1
s(g409
S'PADVPPP'
tp1655
F10
s(g901
S'ADVADVPPP'
tp1656
F3
s(S'DP'
S'DVVVVVP'
tp1657
F1
s(g836
S'ADVDCCP'
tp1658
F1
s(S'PP'
S'APADVAP'
tp1659
F1
s(S'AP'
S'AADVADVCP'
tp1660
F1
s(S'AP'
S'ADVADVACP'
tp1661
F1
s(S'MP'
S'MAVVPP'
tp1662
F1
s(S'DP'
S'AADANNNP'
tp1663
F1
s(g455
S'ADDP'
tp1664
F169
s(S'VP'
S'ADVVVAP'
tp1665
F3
s(g1206
S'ADVPPNP'
tp1666
F20
s(g621
S'VADVADVADVVP'
tp1667
F2
s(S'MP'
S'MMCCP'
tp1668
F2
s(S'CP'
S'ADVADVADVCDP'
tp1669
F3
s(g23
S'DPPP'
tp1670
F572
s(S'VP'
S'VANNP'
tp1671
F7
s(g306
S'DDADVADVNP'
tp1672
F4
s(g973
S'ADVPNP'
tp1673
F57
s(S'PP'
S'PPDP'
tp1674
F325
s(S'MP'
S'MAVDP'
tp1675
F3
s(S'DP'
S'DDADVANP'
tp1676
F1
s(S'NP'
S'NADVADVADVPP'
tp1677
F1
s(S'NP'
S'NNAAACP'
tp1678
F1
s(S'DP'
S'DDCP'
tp1679
F14
s(S'DP'
S'ADVDADVNP'
tp1680
F1
s(S'VP'
S'ADVVVADVAP'
tp1681
F1
s(g921
S'DDAPP'
tp1682
F25
s(S'PP'
S'ADVADVPVP'
tp1683
F8
s(g80
S'APNP'
tp1684
F162
s(S'PP'
S'PPPPPVVP'
tp1685
F1
s(S'AP'
S'AAADDP'
tp1686
F3
s(S'CP'
S'CDDAAAPP'
tp1687
F1
s(S'MP'
S'MVANP'
tp1688
F4
s(S'MP'
S'MVNNP'
tp1689
F5
s(S'VP'
S'AVVPPP'
tp1690
F1
s(S'DP'
S'ADVADVDDAPP'
tp1691
F1
s(S'DP'
S'AAADDPP'
tp1692
F1
s(S'VP'
S'ADVADVVCP'
tp1693
F10
s(S'VP'
S'VADVADVDP'
tp1694
F7
s(S'CP'
S'CDDDDADVPPP'
tp1695
F1
s(S'NP'
S'NNNAACP'
tp1696
F1
s(S'CP'
S'CAADDPP'
tp1697
F2
s(S'PP'
S'PPPADVNP'
tp1698
F2
s(S'NP'
S'AANVVVVP'
tp1699
F1
s(g1235
S'AVDDP'
tp1700
F16
s(S'DP'
S'DDCCP'
tp1701
F1
s(g781
S'NADVAVP'
tp1702
F5
s(S'VP'
S'VVDDDDP'
tp1703
F3
s(S'CP'
S'CAADPPP'
tp1704
F8
s(S'PP'
S'APNNNP'
tp1705
F1
s(S'PP'
S'PAAAVP'
tp1706
F2
s(S'AP'
S'AADP'
tp1707
F235
s(S'PP'
S'PPAAVP'
tp1708
F2
s(g1413
S'NNADVVVP'
tp1709
F6
s(S'DP'
S'ADVDANP'
tp1710
F3
s(g469
S'ADVAANNVVP'
tp1711
F1
s(g794
S'PAMP'
tp1712
F2
s(g565
S'ADVPDP'
tp1713
F55
s(S'VP'
S'ADVVADP'
tp1714
F2
s(g148
S'NCP'
tp1715
F1157
s(S'MP'
S'MAVPPP'
tp1716
F1
s(S'CP'
S'CADVDPPP'
tp1717
F17
s(g906
S'ADDAP'
tp1718
F2
s(S'PP'
S'AAAPNP'
tp1719
F1
s(g156
S'ADVVP'
tp1720
F16
s(g203
S'AAMP'
tp1721
F2
s(S'MP'
S'MNVP'
tp1722
F16
s(S'NP'
S'NPPPPP'
tp1723
F2
s(S'DP'
S'ADVADADVADVPPP'
tp1724
F1
s(g535
S'ADVVDP'
tp1725
F53
s(S'PP'
p1726
S'PPADVADVADVADVNNP'
tp1727
F2
s(S'PP'
S'PADVADVADVDDP'
tp1728
F1
s(S'CP'
S'CCADP'
tp1729
F24
s(g1022
S'ADVADVADVPNP'
tp1730
F3
s(S'NP'
S'NNNPPP'
tp1731
F5
s(S'DP'
S'ADVDAVP'
tp1732
F2
s(S'CP'
S'CCDDDP'
tp1733
F12
s(S'CP'
S'CADVADPP'
tp1734
F7
s(g542
S'ADVNPP'
tp1735
F34
s(S'NP'
S'ADVADVANMP'
tp1736
F1
s(S'CP'
S'AAACDP'
tp1737
F4
s(g1202
S'NADVVP'
tp1738
F48
s(S'NP'
S'NNADVADVVP'
tp1739
F5
s(g208
S'DDPPP'
tp1740
F146
s(S'VP'
S'AAAVNP'
tp1741
F1
s(g629
S'VNP'
tp1742
F993
s(g595
S'VANP'
tp1743
F106
s(S'NP'
S'ADVNNCCCP'
tp1744
F1
s(g1726
S'PPADVNP'
tp1745
F9
s(g308
S'NADVPPP'
tp1746
F10
s.