ccollections
defaultdict
p1
(c__builtin__
float
p2
tRp3
(S'MP'
S'MMDP'
tp4
F2
s(S'VP'
p5
S'VVAAAP'
tp6
F1
s(S'DP'
p7
S'DDMP'
tp8
F1
s(g7
S'ADDPP'
tp9
F3
s(S'DP'
p10
S'DDAP'
tp11
F4
s(S'VP'
p12
S'ADVVVNP'
tp13
F3
s(S'VP'
S'VVVVP'
tp14
F5
s(S'DP'
p15
S'DAANNP'
tp16
F1
s(S'NP'
S'NADDP'
tp17
F2
s(S'PP'
S'ADVADVPAP'
tp18
F1
s(S'PP'
p19
S'PAPP'
tp20
F9
s(S'PP'
p21
S'PADVNP'
tp22
F9
s(S'CP'
S'CDADVADVPPP'
tp23
F1
s(S'NP'
p24
S'ADVNDP'
tp25
F5
s(g21
S'AAPDDP'
tp26
F4
s(S'CP'
p27
S'CDPPP'
tp28
F35
s(S'VP'
p29
S'VADP'
tp30
F25
s(S'VP'
p31
S'VMMP'
tp32
F1
s(S'NP'
p33
S'ADVNCCP'
tp34
F5
s(S'VP'
p35
S'AAVPPP'
tp36
F1
s(S'VP'
S'VAVP'
tp37
F3
s(S'PP'
p38
S'APPDP'
tp39
F1
s(S'DP'
p40
S'ADNNP'
tp41
F6
s(S'VP'
p42
S'AVADVDP'
tp43
F2
s(S'MP'
S'MDVP'
tp44
F1
s(S'DP'
p45
S'ADDADVVP'
tp46
F1
s(S'VP'
p47
S'ADVVNP'
tp48
F9
s(S'MP'
p49
S'MVDP'
tp50
F10
s(S'CP'
p51
S'AAACCDP'
tp52
F1
s(S'NP'
S'AANNPP'
tp53
F1
s(S'PP'
p54
S'PPPP'
tp55
F28
s(S'AP'
p56
S'ADVAPPP'
tp57
F1
s(g7
S'DDDNP'
tp58
F9
s(g35
S'VACP'
tp59
F7
s(S'AP'
S'AAAVP'
tp60
F2
s(S'PP'
p61
S'PPAAP'
tp62
F3
s(S'NP'
p63
S'NNADVDDP'
tp64
F1
s(S'VP'
S'VVVAAAP'
tp65
F1
s(g10
S'DADVVP'
tp66
F8
s(g31
S'ADVADVVDDP'
tp67
F1
s(S'VP'
S'AAAVPP'
tp68
F1
s(S'PP'
S'PADVNNP'
tp69
F1
s(S'NP'
S'NADVACP'
tp70
F1
s(S'NP'
p71
S'NAAVVP'
tp72
F1
s(S'NP'
S'NDDDP'
tp73
F1
s(S'NP'
p74
S'NADVVVP'
tp75
F4
s(S'CP'
S'CADVADVDDPP'
tp76
F1
s(S'NP'
p77
S'ANADVPP'
tp78
F1
s(g47
S'VCP'
tp79
F50
s(g63
S'NMMP'
tp80
F3
s(S'NP'
S'NNADVAP'
tp81
F1
s(S'DP'
S'DDDNNP'
tp82
F2
s(S'PP'
p83
S'PAP'
tp84
F52
s(S'MP'
p85
S'MMVVP'
tp86
F1
s(S'PP'
p87
S'ADVPPVP'
tp88
F2
s(S'NP'
p89
S'NNNAP'
tp90
F2
s(S'PP'
p91
S'APVVP'
tp92
F6
s(g77
S'NNNACP'
tp93
F1
s(S'NP'
p94
S'NAAAVP'
tp95
F1
s(S'VP'
p96
S'AAVNNP'
tp97
F1
s(g83
S'PNP'
tp98
F94
s(S'VP'
p99
S'VVADVNNP'
tp100
F1
s(S'PP'
S'PAAADP'
tp101
F1
s(g10
S'DDP'
tp102
F28
s(S'NP'
p103
S'NNDDDP'
tp104
F1
s(S'VP'
p105
S'ADVVDDP'
tp106
F2
s(S'NP'
S'NNNPP'
tp107
F4
s(g33
S'NNDP'
tp108
F17
s(S'VP'
p109
S'ADVVVDDP'
tp110
F1
s(S'MP'
p111
S'MCDP'
tp112
F2
s(S'DP'
S'DDAANP'
tp113
F1
s(S'NP'
p114
S'NNADVADVCP'
tp115
F1
s(S'MP'
S'AMPP'
tp116
F1
s(g74
S'NMP'
tp117
F24
s(S'DP'
p118
S'DDDDDNP'
tp119
F1
s(S'VP'
p120
S'AAVNP'
tp121
F3
s(g77
S'ADVADVNMMP'
tp122
F1
s(S'PP'
p123
S'PDP'
tp124
F93
s(S'DP'
p125
S'DDPPPPP'
tp126
F1
s(S'PP'
p127
S'PPADVVP'
tp128
F1
s(g103
S'ADVNVVP'
tp129
F1
s(S'MP'
S'AAMMPPP'
tp130
F1
s(S'DP'
p131
S'DNP'
tp132
F101
s(g10
S'ADVDADVADVNP'
tp133
F1
s(S'NP'
S'NACCP'
tp134
F2
s(g127
S'PADVPP'
tp135
F1
s(g89
S'NNADVCP'
tp136
F1
s(S'VP'
p137
S'VVADVNP'
tp138
F1
s(S'MP'
p139
S'MVACP'
tp140
F1
s(S'MP'
S'MMMVVP'
tp141
F1
s(S'NP'
S'ADVNACP'
tp142
F2
s(S'DP'
p143
S'DPPPP'
tp144
F4
s(g40
S'DDANP'
tp145
F8
s(S'PP'
p146
S'PADVADP'
tp147
F1
s(g139
S'ADVMMNP'
tp148
F1
s(S'AP'
p149
S'ADVAVP'
tp150
F1
s(S'NP'
p151
S'NCCP'
tp152
F42
s(g120
S'VVADVCP'
tp153
F1
s(g99
S'VVCCCP'
tp154
F2
s(S'NP'
p155
S'NNCP'
tp156
F51
s(g7
S'ADVDDPP'
tp157
F2
s(g24
S'NADVADVVP'
tp158
F6
s(S'DP'
S'DPPPPP'
tp159
F2
s(S'NP'
p160
S'NNPPPP'
tp161
F1
s(S'DP'
S'DDDDP'
tp162
F1
s(g29
S'AVNP'
tp163
F19
s(g7
S'ADVDADVPPP'
tp164
F1
s(S'DP'
p165
S'DDAAANP'
tp166
F1
s(S'NP'
p167
S'NADVADVPP'
tp168
F4
s(g74
S'NADVADVCCP'
tp169
F3
s(S'PP'
p170
S'ADVPVVP'
tp171
F2
s(g165
S'DDAAANNP'
tp172
F1
s(S'DP'
p173
S'ADADVNP'
tp174
F1
s(S'VP'
p175
S'VADVVP'
tp176
F2
s(S'CP'
p177
S'CADVDADVPPP'
tp178
F1
s(g123
S'ADVADVPPANP'
tp179
F1
s(S'NP'
p180
S'ANADVVP'
tp181
F5
s(S'DP'
S'ADVVVP'
tp182
F1
s(S'CP'
p183
S'CCCDP'
tp184
F5
s(S'VP'
p185
S'AVNNP'
tp186
F7
s(S'PP'
S'PADVVVP'
tp187
F1
s(g83
S'APDP'
tp188
F28
s(g63
S'AANNCCP'
tp189
F1
s(S'NP'
p190
S'ADVNPPP'
tp191
F1
s(S'NP'
p192
S'ADVNADVCP'
tp193
F1
s(g45
S'DDANNP'
tp194
F1
s(S'VP'
p195
S'VVANP'
tp196
F1
s(S'VP'
p197
S'ADVVVP'
tp198
F2
s(S'PP'
p199
S'PPADVADVNNP'
tp200
F1
s(S'DP'
S'DADVADVADVPP'
tp201
F1
s(S'NP'
S'ADVADVNNPP'
tp202
F1
s(g10
S'DAAP'
tp203
F7
s(S'PP'
p204
S'PAAP'
tp205
F16
s(S'NP'
S'ADVANCP'
tp206
F1
s(S'DP'
p207
S'DNNP'
tp208
F56
s(g177
S'CADVDDPP'
tp209
F1
s(g33
S'NNADVPP'
tp210
F2
s(S'CP'
S'CCADVDP'
tp211
F3
s(S'VP'
p212
S'AAVDDP'
tp213
F1
s(S'DP'
S'ADDNP'
tp214
F2
s(g151
S'NNNVP'
tp215
F3
s(S'PP'
p216
S'PPAAPP'
tp217
F2
s(S'VP'
p218
S'VDP'
tp219
F88
s(g94
S'ADVNNACP'
tp220
F1
s(g204
S'PADVVP'
tp221
F15
s(S'PP'
p222
S'APAP'
tp223
F3
s(S'CP'
p224
S'ADVADVCDP'
tp225
F2
s(S'AP'
p226
S'ACCCP'
tp227
F1
s(S'NP'
p228
S'NADVMP'
tp229
F1
s(S'AP'
S'AAP'
tp230
F8
s(g99
S'VVAPP'
tp231
F3
s(g114
S'ADVADVNDP'
tp232
F3
s(g45
S'DAAAPP'
tp233
F2
s(S'AP'
S'AAADVDDP'
tp234
F1
s(g185
S'VADVADVNP'
tp235
F3
s(S'CP'
S'CDDDDPP'
tp236
F1
s(S'PP'
p237
S'PAANP'
tp238
F4
s(g47
S'VADVADVCP'
tp239
F1
s(S'VP'
p240
S'VVVANP'
tp241
F1
s(g155
S'ANVP'
tp242
F31
s(S'VP'
p243
S'VAACP'
tp244
F1
s(g21
S'PPAVP'
tp245
F5
s(S'VP'
p246
S'VVAVP'
tp247
F1
s(S'MP'
p248
S'MVNP'
tp249
F9
s(g24
S'ADVADVNAAVP'
tp250
F1
s(S'CP'
S'CDDDPPP'
tp251
F2
s(g127
S'PAVP'
tp252
F24
s(S'MP'
p253
S'ADVMVP'
tp254
F1
s(S'PP'
p255
S'ADVADVPPVP'
tp256
F2
s(g243
S'ADVADVADVADVVDDP'
tp257
F1
s(g109
S'AVADVVVP'
tp258
F1
s(g99
S'VVVPP'
tp259
F2
s(g74
S'NNADP'
tp260
F1
s(S'PP'
p261
S'APPPP'
tp262
F3
s(g15
S'DADP'
tp263
F6
s(S'AP'
p264
S'ADVADP'
tp265
F7
s(S'AP'
p266
S'APP'
tp267
F26
s(S'VP'
S'VVADVPP'
tp268
F1
s(S'PP'
p269
S'APDDP'
tp270
F7
s(S'VP'
p271
S'ADVADVVVNP'
tp272
F2
s(S'NP'
p273
S'ADVNAP'
tp274
F2
s(S'NP'
p275
S'NADVDP'
tp276
F5
s(g19
S'APVP'
tp277
F20
s(S'PP'
S'PPVVVVVP'
tp278
F1
s(g5
S'ADVADVADVVVDDP'
tp279
F1
s(g185
S'VVNP'
tp280
F37
s(g137
S'VADVADVAAP'
tp281
F2
s(g127
S'PPVP'
tp282
F33
s(g29
S'VADVDP'
tp283
F6
s(g149
S'AADVADVPPP'
tp284
F1
s(S'PP'
S'PADVANP'
tp285
F2
s(g29
S'VAAP'
tp286
F9
s(S'CP'
S'ADVCDDP'
tp287
F1
s(g151
S'ANDP'
tp288
F14
s(g33
S'NVVP'
tp289
F28
s(g21
S'AAPVP'
tp290
F6
s(g261
S'PPADP'
tp291
F4
s(S'VP'
S'VMP'
tp292
F3
s(g185
S'VVNNP'
tp293
F9
s(g27
S'CDAPP'
tp294
F22
s(g29
S'VVAAP'
tp295
F3
s(S'CP'
p296
S'CADVADPP'
tp297
F1
s(g10
S'ADNP'
tp298
F35
s(S'PP'
p299
S'AAPVVP'
tp300
F1
s(S'PP'
p301
S'PAPPP'
tp302
F1
s(S'MP'
p303
S'ADVMAP'
tp304
F1
s(g185
S'ADVVACP'
tp305
F1
s(g204
S'PADP'
tp306
F29
s(S'VP'
S'ADVVVCP'
tp307
F1
s(S'NP'
S'ANDDP'
tp308
F1
s(g40
S'ADVADVDVP'
tp309
F2
s(g96
S'VVVDDP'
tp310
F1
s(g127
S'ADVADVPMP'
tp311
F1
s(S'CP'
S'ADVADVACDP'
tp312
F1
s(g40
S'DAPP'
tp313
F35
s(S'VP'
S'AVVP'
tp314
F1
s(S'PP'
S'ADVADVPPAVP'
tp315
F1
s(g5
S'ADVADVVPP'
tp316
F1
s(S'DP'
S'DAAVP'
tp317
F3
s(S'VP'
S'ADVADVADVVDP'
tp318
F1
s(g61
S'AAAPVP'
tp319
F1
s(g246
S'ADVADVVDP'
tp320
F1
s(g195
S'AVVNP'
tp321
F1
s(g127
S'PPPDP'
tp322
F4
s(S'PP'
p323
S'AAAPVVP'
tp324
F1
s(g246
S'VVAAANP'
tp325
F1
s(S'PP'
p326
S'AAAPDP'
tp327
F3
s(S'AP'
S'AAPPP'
tp328
F1
s(g105
S'VDDDDP'
tp329
F1
s(S'DP'
p330
S'DADVANP'
tp331
F1
s(g185
S'VAAPP'
tp332
F4
s(g10
S'ADVDNP'
tp333
F11
s(g29
S'VVPP'
tp334
F30
s(g15
S'ADADVPP'
tp335
F1
s(S'PP'
p336
S'PAVVP'
tp337
F1
s(S'MP'
p338
S'MVPP'
tp339
F8
s(g10
S'ADVP'
tp340
F17
s(S'MP'
p341
S'MVADP'
tp342
F2
s(g27
S'CDDPPP'
tp343
F10
s(g33
S'NNPP'
tp344
F36
s(S'NP'
S'NADVADVADVACP'
tp345
F1
s(g15
S'DDDDNP'
tp346
F1
s(S'MP'
S'MVVDP'
tp347
F2
s(g40
S'DADVPPP'
tp348
F5
s(S'PP'
p349
S'PPVVP'
tp350
F9
s(S'DP'
p351
S'DNNNP'
tp352
F6
s(S'DP'
p353
S'ADVDDVP'
tp354
F2
s(g42
S'VADVDDP'
tp355
F2
s(S'NP'
S'ADVNCCCP'
tp356
F1
s(g255
S'PMMP'
tp357
F1
s(S'PP'
S'PVVVP'
tp358
F4
s(g21
S'PMP'
tp359
F11
s(g103
S'NNMMP'
tp360
F3
s(g40
S'ADADVAP'
tp361
F1
s(S'CP'
p362
S'CCDP'
tp363
F47
s(g228
S'ANNDP'
tp364
F2
s(g248
S'AMVP'
tp365
F5
s(g216
S'PPNNNP'
tp366
F3
s(S'MP'
S'MVAP'
tp367
F3
s(S'VP'
p368
S'ADVAVVP'
tp369
F1
s(g180
S'NVVVP'
tp370
F4
s(g27
S'CDDDPP'
tp371
F4
s(S'CP'
S'CDADVADVPP'
tp372
F1
s(g271
S'VVVDP'
tp373
F3
s(g83
S'PNNNP'
tp374
F4
s(S'DP'
p375
S'ADVDDAVP'
tp376
F1
s(g21
S'AAPNP'
tp377
F6
s(S'VP'
p378
S'AVDDP'
tp379
F3
s(g29
S'ADVVVDP'
tp380
F1
s(g204
S'PPP'
tp381
F68
s(S'NP'
p382
S'NNADVDP'
tp383
F1
s(g74
S'NAVP'
tp384
F18
s(g7
S'ADVADVDDNP'
tp385
F2
s(g173
S'DDNNNP'
tp386
F3
s(S'PP'
p387
S'PADDP'
tp388
F1
s(g237
S'APVVVP'
tp389
F1
s(S'DP'
p390
S'ADVDVP'
tp391
F9
s(g192
S'NAAAP'
tp392
F1
s(g192
S'NCCCP'
tp393
F1
s(g207
S'DADVADVPPP'
tp394
F2
s(S'AP'
S'AADVVP'
tp395
F4
s(S'PP'
S'PPPPDP'
tp396
F1
s(S'DP'
p397
S'ADVADVDNP'
tp398
F2
s(g47
S'VPP'
tp399
F83
s(S'CP'
p400
S'ADVCCDP'
tp401
F2
s(g15
S'ADVDDPPP'
tp402
F1
s(S'DP'
S'ADVDDNP'
tp403
F6
s(g114
S'AANPPP'
tp404
F3
s(S'NP'
S'NNNCP'
tp405
F10
s(g21
S'PADVDP'
tp406
F9
s(S'AP'
p407
S'ADVAADP'
tp408
F1
s(S'DP'
S'DDADVADVAP'
tp409
F1
s(g10
S'DANNP'
tp410
F5
s(g303
S'MADVVAP'
tp411
F1
s(g61
S'PADVAAP'
tp412
F2
s(g224
S'CDDPP'
tp413
F41
s(g7
S'DAAPP'
tp414
F9
s(g127
S'PVVP'
tp415
F32
s(g177
S'CADPPP'
tp416
F4
s(S'VP'
S'VVVPPP'
tp417
F1
s(g338
S'MAVCP'
tp418
F1
s(S'VP'
p419
S'ADVVCP'
tp420
F7
s(g185
S'VPPP'
tp421
F16
s(S'VP'
p422
S'AVCCP'
tp423
F1
s(g21
S'PPADVADVDP'
tp424
F2
s(g5
S'VVPPP'
tp425
F3
s(g83
S'PPAP'
tp426
F11
s(g330
S'DVVP'
tp427
F33
s(S'MP'
p428
S'MADVADVVCCP'
tp429
F1
s(S'CP'
S'CDDAAPP'
tp430
F1
s(g190
S'ANMP'
tp431
F2
s(g160
S'NNAAACCP'
tp432
F1
s(S'AP'
p433
S'APPP'
tp434
F6
s(g127
S'ADVPPP'
tp435
F4
s(g378
S'VVVP'
tp436
F11
s(g27
S'CADVDPP'
tp437
F10
s(S'PP'
p438
S'PPDDDP'
tp439
F1
s(g35
S'AVMP'
tp440
F2
s(g91
S'ADVAPPPP'
tp441
F1
s(g33
S'ANCP'
tp442
F24
s(g7
S'DCP'
tp443
F8
s(S'DP'
p444
S'DVVVP'
tp445
F1
s(S'NP'
S'AAANCP'
tp446
F1
s(g99
S'ADVVVVP'
tp447
F2
s(g10
S'DDDP'
tp448
F14
s(g10
S'DDADVPP'
tp449
F2
s(S'MP'
S'MAADP'
tp450
F2
s(g74
S'ANVVP'
tp451
F8
s(g353
S'ADDNNP'
tp452
F1
s(g47
S'VVDP'
tp453
F43
s(g33
S'NPPP'
tp454
F40
s(g261
S'PPAPP'
tp455
F2
s(g299
S'PAAMMP'
tp456
F1
s(g195
S'VVADVDP'
tp457
F1
s(S'DP'
p458
S'DAVP'
tp459
F20
s(S'AP'
p460
S'ACP'
tp461
F16
s(g216
S'AAPAP'
tp462
F1
s(g127
S'PPNP'
tp463
F34
s(S'NP'
S'ADVADVANPP'
tp464
F1
s(S'CP'
S'CDDPPPPP'
tp465
F1
s(S'DP'
S'AADVP'
tp466
F1
s(g199
S'PPPPDDP'
tp467
F1
s(g197
S'VAANNP'
tp468
F1
s(S'CP'
S'ADVADVADVACDP'
tp469
F1
s(S'CP'
S'CCCDDP'
tp470
F1
s(S'AP'
p471
S'ADP'
tp472
F79
s(g146
S'ADVPPDDP'
tp473
F1
s(g216
S'APMP'
tp474
F1
s(g397
S'DDAVP'
tp475
F3
s(g444
S'ADDP'
tp476
F1
s(g114
S'ANPPP'
tp477
F5
s(S'VP'
S'AVADVADVNP'
tp478
F1
s(S'AP'
S'ADVAADDP'
tp479
F2
s(S'NP'
S'AAANNCP'
tp480
F1
s(S'VP'
S'VAAANP'
tp481
F1
s(S'DP'
p482
S'DVVVVP'
tp483
F1
s(g5
S'AAAVDP'
tp484
F1
s(g185
S'ADVADVVNNP'
tp485
F1
s(S'AP'
p486
S'AAADP'
tp487
F3
s(S'NP'
p488
S'ANNVP'
tp489
F3
s(g35
S'VVAP'
tp490
F5
s(g275
S'NNAPP'
tp491
F2
s(S'CP'
S'CDDDAPP'
tp492
F1
s(S'NP'
S'NNADVADVADVVP'
tp493
F1
s(S'PP'
p494
S'PADVADVDP'
tp495
F1
s(S'PP'
S'APPVVP'
tp496
F1
s(g151
S'NPP'
tp497
F88
s(g61
S'ADVPAAADP'
tp498
F1
s(g33
S'NVP'
tp499
F97
s(g326
S'PPVVVP'
tp500
F1
s(g494
S'PAAVP'
tp501
F3
s(g382
S'NAAPP'
tp502
F7
s(g61
S'PPADVADVPPP'
tp503
F1
s(S'PP'
p504
S'PPDDDDDP'
tp505
F1
s(g47
S'VDDP'
tp506
F33
s(g296
S'CDAAAPP'
tp507
F1
s(g460
S'AAADVDP'
tp508
F3
s(g114
S'AANNVP'
tp509
F1
s(S'NP'
S'AANVVP'
tp510
F1
s(g165
S'DADVAPP'
tp511
F1
s(S'NP'
S'NADVADVVVP'
tp512
F1
s(g151
S'ANPP'
tp513
F23
s(g204
S'ADVPPDP'
tp514
F3
s(g216
S'PPPPP'
tp515
F4
s(S'MP'
S'MPDP'
tp516
F1
s(g261
S'ADVADVPDP'
tp517
F4
s(S'PP'
S'ADVADVPADP'
tp518
F1
s(S'MP'
p519
S'MVVPP'
tp520
F3
s(g255
S'PAAAVP'
tp521
F1
s(g24
S'ADVADVNPP'
tp522
F2
s(g407
S'ADVADVAVP'
tp523
F1
s(g266
S'AADVADVDP'
tp524
F1
s(S'NP'
S'ADVNADP'
tp525
F1
s(g27
S'CAADPP'
tp526
F5
s(g45
S'DADVADVVP'
tp527
F2
s(g74
S'NAACP'
tp528
F8
s(g204
S'PNNP'
tp529
F36
s(g438
S'APNNP'
tp530
F1
s(S'DP'
S'DDAAP'
tp531
F1
s(S'VP'
S'VVAACP'
tp532
F1
s(g173
S'DDACP'
tp533
F1
s(g175
S'AVAP'
tp534
F7
s(g519
S'MMVP'
tp535
F6
s(g170
S'PADVDDP'
tp536
F5
s(g74
S'ADVNCP'
tp537
F11
s(g266
S'AADP'
tp538
F35
s(g111
S'MPDDP'
tp539
F1
s(g27
S'ACDP'
tp540
F31
s(g29
S'VCCP'
tp541
F9
s(S'NP'
S'ADVADVNNAP'
tp542
F1
s(g74
S'NNACP'
tp543
F4
s(S'CP'
p544
S'CDADVPPP'
tp545
F2
s(g47
S'VAP'
tp546
F54
s(g10
S'DDDPP'
tp547
F8
s(S'PP'
S'PPPNNP'
tp548
F2
s(g177
S'CDAAPP'
tp549
F5
s(g240
S'VADVMP'
tp550
F1
s(S'PP'
S'PAAPP'
tp551
F3
s(g226
S'AAVVP'
tp552
F1
s(g338
S'MAVPP'
tp553
F2
s(S'NP'
S'NPPPP'
tp554
F2
s(g458
S'DDDPPP'
tp555
F4
s(g375
S'ADAP'
tp556
F2
s(g173
S'DADVDP'
tp557
F1
s(g91
S'APADVVP'
tp558
F1
s(S'DP'
S'DDDAP'
tp559
F1
s(S'DP'
S'DADVADVADVAPP'
tp560
F1
s(g151
S'ANDDDP'
tp561
F1
s(S'AP'
S'AAACP'
tp562
F1
s(g351
S'ADADVVP'
tp563
F1
s(g74
S'NAAP'
tp564
F11
s(g38
S'PPPVP'
tp565
F1
s(g212
S'AAVAP'
tp566
F2
s(g460
S'AADDP'
tp567
F7
s(S'DP'
S'DADVAAP'
tp568
F1
s(g175
S'VAANP'
tp569
F8
s(S'DP'
S'DADVAMP'
tp570
F1
s(g114
S'NADVADVCP'
tp571
F1
s(S'NP'
S'NADVADVADVVVP'
tp572
F1
s(S'PP'
S'PAAAAP'
tp573
F1
s(S'MP'
S'MADP'
tp574
F1
s(S'VP'
S'AAVVNP'
tp575
F2
s(S'DP'
p576
S'DDADVNP'
tp577
F2
s(g204
S'PANP'
tp578
F28
s(g170
S'PDDDP'
tp579
F7
s(g482
S'DADVADVNNP'
tp580
F1
s(g336
S'AAPAAP'
tp581
F1
s(g275
S'AANMP'
tp582
F1
s(g460
S'AAVP'
tp583
F10
s(g486
S'AVVP'
tp584
F8
s(g488
S'NDDP'
tp585
F14
s(g407
S'ACCP'
tp586
F2
s(g165
S'ADAAP'
tp587
F1
s(g368
S'AVPPP'
tp588
F1
s(S'VP'
S'AAVPPPP'
tp589
F1
s(g33
S'NDP'
tp590
F68
s(S'PP'
S'PADVADVADVNP'
tp591
F1
s(g458
S'DDVP'
tp592
F28
s(g24
S'AANVP'
tp593
F8
s(g38
S'ADVPPNNNP'
tp594
F1
s(g576
S'ADVADVADVDAAVP'
tp595
F1
s(S'VP'
S'VNNNP'
tp596
F6
s(S'VP'
S'ADVADVVADP'
tp597
F1
s(g120
S'VADVADVPP'
tp598
F3
s(g127
S'ADVPAP'
tp599
F2
s(g494
S'PCP'
tp600
F7
s(g24
S'NNPPP'
tp601
F7
s(g87
S'PAADP'
tp602
F6
s(g192
S'ADVNNVP'
tp603
F1
s(g167
S'ADVNAAVVP'
tp604
F1
s(g29
S'VPPPP'
tp605
F2
s(g89
S'ADVNNPP'
tp606
F2
s(g24
S'NNNDP'
tp607
F3
s(S'AP'
S'ADVACP'
tp608
F1
s(g351
S'DDADVVP'
tp609
F1
s(g10
S'ADPPP'
tp610
F8
s(S'MP'
S'MVCP'
tp611
F3
s(g27
S'CCDDP'
tp612
F18
s(S'VP'
S'AAVVNNP'
tp613
F1
s(g422
S'AAVCCP'
tp614
F1
s(g419
S'ADVADVADVVPP'
tp615
F1
s(g173
S'DADVADVADVVVP'
tp616
F1
s(S'DP'
p617
S'AAADNP'
tp618
F2
s(g24
S'NNVVP'
tp619
F13
s(g617
S'ADAVVP'
tp620
F1
s(g47
S'VVCP'
tp621
F10
s(S'DP'
p622
S'ADVDMP'
tp623
F1
s(g24
S'AANCP'
tp624
F6
s(g29
S'VADVNP'
tp625
F10
s(g35
S'VVDDDP'
tp626
F2
s(S'VP'
S'VVVVVNP'
tp627
F1
s(g433
S'ADVAVVP'
tp628
F2
s(S'AP'
S'AADVADVADVADVVP'
tp629
F1
s(g127
S'APANNP'
tp630
F1
s(S'NP'
p631
S'NNDDP'
tp632
F6
s(g195
S'VNNNNP'
tp633
F1
s(g35
S'ADVVPP'
tp634
F6
s(S'NP'
p635
S'AAANADVPP'
tp636
F1
s(S'CP'
p637
S'CDAPPP'
tp638
F3
s(g29
S'VNNP'
tp639
F33
s(g264
S'AADVDP'
tp640
F6
s(g33
S'NADP'
tp641
F13
s(g40
S'DDNP'
tp642
F46
s(g362
S'ACADVDP'
tp643
F1
s(g114
S'NADVCP'
tp644
F9
s(g10
S'DDNNP'
tp645
F15
s(g349
S'AAPPP'
tp646
F1
s(g127
S'PADVADVVVP'
tp647
F2
s(S'NP'
p648
S'ADVANVP'
tp649
F2
s(g74
S'ADVADVNCP'
tp650
F2
s(g460
S'ADVADDP'
tp651
F1
s(g338
S'AAMMAVP'
tp652
F1
s(g10
S'AADPP'
tp653
F5
s(S'AP'
S'AAAADVDDP'
tp654
F1
s(S'VP'
S'VVVAAAPP'
tp655
F1
s(S'DP'
S'ADVADVADNNP'
tp656
F1
s(S'MP'
S'MAVAP'
tp657
F1
s(S'CP'
S'CDPPPPP'
tp658
F1
s(g63
S'NAAMMP'
tp659
F1
s(g617
S'DADVADVAP'
tp660
F1
s(g27
S'AAACDDP'
tp661
F1
s(S'CP'
S'CDDADVPPP'
tp662
F1
s(g7
S'ADVDNNP'
tp663
F2
s(S'PP'
S'ADVADVADVADVPPNNP'
tp664
F1
s(g400
S'ACDDP'
tp665
F9
s(g635
S'ADVADVNNCP'
tp666
F1
s(g460
S'AAPP'
tp667
F9
s(g271
S'VVCCP'
tp668
F1
s(g222
S'ADVADVPAADP'
tp669
F1
s(g10
S'DADVVVP'
tp670
F2
s(g351
S'DADVADVNP'
tp671
F2
s(S'PP'
S'ADVPANP'
tp672
F1
s(g33
S'NAPP'
tp673
F27
s(g301
S'APPVP'
tp674
F1
s(g486
S'ADVAAVP'
tp675
F1
s(g269
S'ADVPPPP'
tp676
F2
s(g637
S'ADVADVCADP'
tp677
F1
s(g74
S'ANCCP'
tp678
F9
s(S'NP'
p679
S'AANPP'
tp680
F6
s(g175
S'VDDDP'
tp681
F7
s(g63
S'NNMP'
tp682
F5
s(g7
S'DDDVP'
tp683
F2
s(g185
S'AAVDDDP'
tp684
F1
s(g544
S'CADDPP'
tp685
F1
s(S'PP'
S'PAAAP'
tp686
F1
s(g170
S'ADVADVPNP'
tp687
F3
s(g504
S'PPPAP'
tp688
F2
s(g27
S'CDDAPP'
tp689
F4
s(S'NP'
S'ANAP'
tp690
F3
s(g118
S'ADVADVDPPPP'
tp691
F1
s(g197
S'VADVADVANP'
tp692
F2
s(g185
S'VADVADVDDP'
tp693
F1
s(g204
S'PVP'
tp694
F92
s(S'VP'
S'VADVPPP'
tp695
F1
s(S'DP'
p696
S'DADVAVP'
tp697
F1
s(S'AP'
S'ADVADVAPP'
tp698
F1
s(S'PP'
p699
S'PPADVVVP'
tp700
F1
s(g31
S'VADVCCP'
tp701
F1
s(g433
S'AADVDDP'
tp702
F1
s(g63
S'ADVNAVP'
tp703
F3
s(S'VP'
S'VVVVANP'
tp704
F1
s(g63
S'ANNCP'
tp705
F1
s(S'PP'
S'PPADVPP'
tp706
F1
s(g127
S'PADVAP'
tp707
F4
s(S'DP'
S'ADVADADVDP'
tp708
F1
s(g460
S'AAAAACP'
tp709
F1
s(S'DP'
S'DAAMP'
tp710
F1
s(g323
S'AAPPPP'
tp711
F1
s(g21
S'PPDDP'
tp712
F10
s(g175
S'AVCP'
tp713
F6
s(S'DP'
S'DDVVVP'
tp714
F1
s(g635
S'NAVVP'
tp715
F1
s(g255
S'ADVADVPDDP'
tp716
F2
s(S'DP'
S'DPP'
tp717
F104
s(g74
S'ADVNVP'
tp718
F5
s(g40
S'DDPP'
tp719
F55
s(g622
S'DDADVPPP'
tp720
F2
s(g458
S'DANP'
tp721
F46
s(S'AP'
S'ADVAMP'
tp722
F1
s(g74
S'NADVPP'
tp723
F9
s(g114
S'NNADVADVPP'
tp724
F4
s(g94
S'ADVADVADVNPP'
tp725
F1
s(S'MP'
S'AAMPPP'
tp726
F1
s(S'NP'
S'NAAVP'
tp727
F3
s(g617
S'ADNNNP'
tp728
F1
s(g330
S'AADNP'
tp729
F8
s(g151
S'NACP'
tp730
F26
s(g422
S'VADVCP'
tp731
F3
s(S'PP'
p732
S'PMMMP'
tp733
F1
s(g103
S'NNNNCP'
tp734
F2
s(g63
S'NADVCCP'
tp735
F2
s(S'DP'
S'ADDPPP'
tp736
F1
s(g195
S'VADVAAP'
tp737
F2
s(g87
S'PADVPPP'
tp738
F2
s(g482
S'DDPPPP'
tp739
F1
s(g74
S'NNP'
tp740
F1
s(g617
S'DADVADVVVP'
tp741
F1
s(g180
S'ADVNNAVP'
tp742
F1
s(g349
S'AAPDP'
tp743
F6
s(g45
S'ADVADPP'
tp744
F1
s(g246
S'AVVDP'
tp745
F1
s(g204
S'PDDP'
tp746
F32
s(g87
S'APADVAP'
tp747
F1
s(g49
S'MVDDP'
tp748
F2
s(g299
S'APADVADVDP'
tp749
F1
s(S'CP'
S'ACCDP'
tp750
F2
s(g74
S'NNVP'
tp751
F33
s(S'PP'
S'PPPNP'
tp752
F1
s(g127
S'APAAP'
tp753
F1
s(g47
S'AVDP'
tp754
F29
s(g699
S'PPADDP'
tp755
F2
s(g27
S'AACDDDP'
tp756
F1
s(g29
S'VVDDP'
tp757
F8
s(g7
S'DAANP'
tp758
F12
s(g471
S'ADDP'
tp759
F18
s(g237
S'ADVPPNP'
tp760
F3
s(g114
S'ADVADVANCP'
tp761
F1
s(g51
S'AACADVADVDP'
tp762
F1
s(S'CP'
S'CADVADVDPP'
tp763
F1
s(g10
S'DPPP'
tp764
F47
s(g125
S'DAVVP'
tp765
F1
s(g390
S'AADPPP'
tp766
F2
s(g105
S'VANNP'
tp767
F2
s(g56
S'AAAP'
tp768
F1
s(g74
S'NNAVP'
tp769
F3
s(S'NP'
S'NNAAPP'
tp770
F1
s(S'NP'
S'NMMMP'
tp771
F1
s(g488
S'NNADVMMP'
tp772
F1
s(g204
S'ADVPNP'
tp773
F6
s(g204
S'PPDP'
tp774
F43
s(g407
S'ADVAAPPP'
tp775
F2
s(S'MP'
p776
S'MAVDP'
tp777
F1
s(g45
S'ADVADVDADVADVNNP'
tp778
F1
s(S'CP'
S'ADVCCADDP'
tp779
F1
s(S'AP'
S'ADVADVAACP'
tp780
F1
s(g407
S'ADVADVAAVVP'
tp781
F1
s(g212
S'VVADP'
tp782
F3
s(g35
S'ADVVADVAAP'
tp783
F1
s(g33
S'NAP'
tp784
F38
s(g74
S'NNAAP'
tp785
F5
s(g12
S'VAAAP'
tp786
F2
s(S'NP'
S'NAAAPP'
tp787
F2
s(S'PP'
S'ADVADVADVPNP'
tp788
F1
s(S'DP'
p789
S'ADVADVADVADNP'
tp790
F1
s(g127
S'ADVPADP'
tp791
F3
s(S'NP'
S'NADVADVADP'
tp792
F1
s(g10
S'DDAPP'
tp793
F7
s(S'PP'
S'PPPADVADVADVADP'
tp794
F1
s(g204
S'APNP'
tp795
F22
s(S'DP'
S'DDDAPP'
tp796
F1
s(g789
S'DDVVP'
tp797
F8
s(g378
S'VVVNP'
tp798
F3
s(S'MP'
S'MNPP'
tp799
F1
s(g275
S'NAMP'
tp800
F6
s(S'DP'
S'ADVADVDDPP'
tp801
F1
s(g428
S'MVNNP'
tp802
F2
s(S'AP'
S'AAADVPP'
tp803
F1
s(S'CP'
S'CDPP'
tp804
F95
s(g7
S'ADVDVVP'
tp805
F3
s(g253
S'MMMVP'
tp806
F1
s(S'VP'
S'AVVPPP'
tp807
F1
s(S'CP'
S'ADVCDP'
tp808
F11
s(g266
S'ADVAAP'
tp809
F1
s(g197
S'ADVADVVNP'
tp810
F2
s(S'CP'
S'ADVACDP'
tp811
F1
s(S'VP'
S'ADVADVVCP'
tp812
F1
s(g246
S'VADVADVDP'
tp813
F1
s(g299
S'AAPAAVVP'
tp814
F1
s(g91
S'PPNNP'
tp815
F10
s(g61
S'PPAAAPP'
tp816
F1
s(g38
S'ADVPAVP'
tp817
F1
s(g269
S'PPMP'
tp818
F4
s(g353
S'ADVADVDPP'
tp819
F1
s(g47
S'VAADP'
tp820
F5
s(g24
S'NADVAP'
tp821
F3
s(S'AP'
S'ADVAAAP'
tp822
F1
s(g40
S'DADVNP'
tp823
F13
s(g40
S'DAP'
tp824
F27
s(g224
S'CADPP'
tp825
F28
s(g397
S'ADVADVDVVP'
tp826
F2
s(g29
S'ADVADVVVPP'
tp827
F2
s(g419
S'ADVADVVCCP'
tp828
F1
s(g218
S'AVPP'
tp829
F14
s(S'CP'
S'CAADPPP'
tp830
F1
s(S'DP'
S'DDDADVNP'
tp831
F1
s(g519
S'AMVVP'
tp832
F1
s(S'CP'
S'ADVCADVDP'
tp833
F1
s(g341
S'MVADVADVNP'
tp834
F1
s(S'CP'
S'CDPPPP'
tp835
F3
s(g422
S'AAVDP'
tp836
F2
s(g40
S'AADNNP'
tp837
F2
s(g494
S'PANNP'
tp838
F2
s(g127
S'APPP'
tp839
F16
s(g338
S'MVANNP'
tp840
F1
s(g351
S'DAPPP'
tp841
F3
s(g131
S'DADVADVPP'
tp842
F2
s(g330
S'DMP'
tp843
F4
s(g458
S'ADVDPP'
tp844
F18
s(g170
S'APADVPP'
tp845
F3
s(S'PP'
S'PPAANP'
tp846
F1
s(g180
S'AAANPP'
tp847
F1
s(g21
S'PADVADVNP'
tp848
F2
s(S'PP'
S'PPPPNP'
tp849
F1
s(g40
S'ADPP'
tp850
F43
s(S'AP'
S'AAAAVP'
tp851
F1
s(S'PP'
S'PPPVVP'
tp852
F1
s(g648
S'NADVANP'
tp853
F1
s(g12
S'VADVPP'
tp854
F3
s(g143
S'DDAAPP'
tp855
F1
s(g15
S'ADVDANP'
tp856
F2
s(g127
S'ADVPVP'
tp857
F13
s(S'DP'
S'DDDDPP'
tp858
F1
s(S'PP'
S'ADVADVADVAPDP'
tp859
F1
s(g248
S'MACDP'
tp860
F2
s(g180
S'NNVVVP'
tp861
F1
s(g105
S'ADVVANP'
tp862
F2
s(g127
S'ADVPDP'
tp863
F12
s(g197
S'ADVVADP'
tp864
F1
s(g74
S'ANNPP'
tp865
F4
s(S'NP'
S'NCP'
tp866
F86
s(g85
S'MDNP'
tp867
F1
s(S'CP'
S'CADVDPPP'
tp868
F1
s(g29
S'ADVVVPP'
tp869
F3
s(S'AP'
S'AACP'
tp870
F4
s(g387
S'AAAPNP'
tp871
F1
s(g275
S'ADVANDP'
tp872
F1
s(g7
S'ADVVP'
tp873
F4
s(S'PP'
S'PPPPVP'
tp874
F1
s(g218
S'VVP'
tp875
F29
s(g120
S'VADVADVADVDP'
tp876
F1
s(g190
S'AANDP'
tp877
F1
s(g10
S'DADVNNP'
tp878
F7
s(g74
S'NNCCP'
tp879
F9
s(g776
S'MNVP'
tp880
F1
s(g27
S'ADVADVCCDP'
tp881
F3
s(g273
S'AANCCP'
tp882
F2
s(g185
S'VAPP'
tp883
F11
s(S'NP'
S'NPPPPP'
tp884
F1
s(g29
S'ADVVDP'
tp885
F12
s(g10
S'DADVPP'
tp886
F19
s(g299
S'ADVADVPAMP'
tp887
F1
s(g183
S'CCADP'
tp888
F3
s(g74
S'ADVNNCP'
tp889
F4
s(g21
S'AAPDDDP'
tp890
F1
s(g631
S'NNNPPP'
tp891
F2
s(S'AP'
S'ADVAPP'
tp892
F4
s(g177
S'AACDP'
tp893
F7
s(S'NP'
p894
S'NADVADVACP'
tp895
F1
s(g696
S'ADVDPPP'
tp896
F2
s(g458
S'DVP'
tp897
F88
s(g29
S'ADVVAP'
tp898
F5
s(g74
S'ADVNPP'
tp899
F5
s(g240
S'ADVADVADVVVNP'
tp900
F1
s(g71
S'NNCCCP'
tp901
F1
s(g732
S'PADVADVDDP'
tp902
F1
s(g460
S'AVP'
tp903
F28
s(g74
S'NADVVP'
tp904
F8
s(g180
S'AAANNVP'
tp905
F1
s(g7
S'DADDP'
tp906
F1
s(g29
S'ADVVPPP'
tp907
F1
s(g10
S'DDPPP'
tp908
F17
s(g631
S'ADVNMP'
tp909
F1
s(g679
S'NNAP'
tp910
F10
s(g428
S'MADVVCP'
tp911
F3
s(g54
S'PPANP'
tp912
F3
s(g195
S'VVADVADVDP'
tp913
F1
s(g177
S'CDADVPP'
tp914
F11
s(g47
S'VNP'
tp915
F90
s(g894
S'ANADVPPP'
tp916
F1
s(g218
S'VANP'
tp917
F25
s(g419
S'VADVAP'
tp918
F7
s(g54
S'PPADVNP'
tp919
F2
s(S'CP'
S'CDDADVADVADVADVPPP'
tp920
F1
s(S'DP'
S'DDADVADVADVADVPPP'
tp921
F1
s(g190
S'NADVPPP'
tp922
F1
s.