ccollections
defaultdict
p1
(c__builtin__
float
p2
tRp3
(S'AP'
S'ADVADVADVAADP'
tp4
F1
s(S'VP'
p5
S'VVAAAP'
tp6
F1
s(S'NP'
p7
S'NNNVVVP'
tp8
F1
s(S'CP'
S'CAAADPP'
tp9
F1
s(S'PP'
S'PAAANP'
tp10
F1
s(S'DP'
p11
S'ADDPP'
tp12
F2
s(S'DP'
S'DDAP'
tp13
F1
s(S'VP'
p14
S'ADVVVNP'
tp15
F2
s(S'AP'
S'AADDDP'
tp16
F1
s(S'PP'
p17
S'PAPP'
tp18
F3
s(S'PP'
p19
S'PADVNP'
tp20
F7
s(S'DP'
p21
S'DNP'
tp22
F102
s(S'NP'
p23
S'ADVNDP'
tp24
F1
s(S'CP'
p25
S'CDPPP'
tp26
F23
s(g14
S'VADP'
tp27
F8
s(S'VP'
S'VVVAANNP'
tp28
F1
s(S'DP'
p29
S'DAAP'
tp30
F1
s(S'PP'
p31
S'PPPPPP'
tp32
F2
s(S'VP'
S'VADVADVADVAP'
tp33
F1
s(S'DP'
S'ADNNP'
tp34
F2
s(S'PP'
p35
S'APVP'
tp36
F6
s(S'MP'
p37
S'MVDP'
tp38
F9
s(S'PP'
S'PADVANP'
tp39
F1
s(S'PP'
p40
S'PPPP'
tp41
F16
s(g21
S'DDDNP'
tp42
F2
s(S'VP'
p43
S'VACP'
tp44
F3
s(S'AP'
S'AAAVP'
tp45
F1
s(S'DP'
p46
S'DADVVP'
tp47
F6
s(S'VP'
p48
S'ADVADVVDDP'
tp49
F1
s(S'PP'
p50
S'PADVNNP'
tp51
F1
s(S'NP'
p52
S'NAAVVP'
tp53
F1
s(S'NP'
p54
S'NDDDP'
tp55
F1
s(S'NP'
p56
S'NCCCP'
tp57
F2
s(S'VP'
p58
S'VCP'
tp59
F33
s(S'VP'
S'ADVVAAP'
tp60
F1
s(S'VP'
S'ADVVCCP'
tp61
F2
s(S'PP'
p62
S'PAP'
tp63
F40
s(S'NP'
S'ADVNNDP'
tp64
F1
s(S'NP'
S'NNNAP'
tp65
F2
s(g17
S'APVVP'
tp66
F2
s(S'NP'
p67
S'NAAAVP'
tp68
F1
s(S'VP'
S'AAVNNP'
tp69
F1
s(S'PP'
p70
S'PNP'
tp71
F97
s(S'PP'
S'PAAADP'
tp72
F1
s(S'DP'
S'DDP'
tp73
F16
s(S'PP'
S'PPMMP'
tp74
F1
s(S'NP'
S'NNNPP'
tp75
F2
s(S'NP'
p76
S'NNDP'
tp77
F4
s(S'PP'
p78
S'ADVPCP'
tp79
F1
s(S'DP'
S'DDAANP'
tp80
F1
s(S'MP'
S'MNAP'
tp81
F1
s(S'NP'
p82
S'NMP'
tp83
F28
s(S'VP'
S'VVVADP'
tp84
F2
s(S'VP'
S'AAVNP'
tp85
F1
s(g70
S'PDP'
tp86
F94
s(S'PP'
S'PPADVVP'
tp87
F1
s(g54
S'ADVNVVP'
tp88
F1
s(S'CP'
S'CDADVADVPPP'
tp89
F1
s(S'NP'
p90
S'NACCP'
tp91
F1
s(S'AP'
S'ANP'
tp92
F1
s(S'NP'
p93
S'NNADVCP'
tp94
F1
s(S'PP'
p95
S'PNNP'
tp96
F28
s(S'PP'
p97
S'PNNNP'
tp98
F5
s(S'NP'
p99
S'ADVNACP'
tp100
F1
s(S'DP'
p101
S'DPPPP'
tp102
F6
s(S'DP'
S'DDANP'
tp103
F4
s(g17
S'ADVPADP'
tp104
F1
s(S'AP'
S'ADVAVP'
tp105
F1
s(g82
S'NCCP'
tp106
F22
s(S'AP'
p107
S'AAAADP'
tp108
F1
s(S'CP'
S'CADVDDPP'
tp109
F1
s(g23
S'NNCP'
tp110
F21
s(S'DP'
p111
S'ADVDDPP'
tp112
F1
s(S'DP'
p113
S'DDDADVVP'
tp114
F1
s(g101
S'DPPPPP'
tp115
F3
s(S'DP'
S'DDAPP'
tp116
F1
s(S'VP'
p117
S'AVNP'
tp118
F6
s(S'VP'
p119
S'VVADP'
tp120
F1
s(S'NP'
S'NADVADVMMP'
tp121
F1
s(S'VP'
p122
S'VVMP'
tp123
F1
s(S'VP'
p124
S'ADVADVAVNP'
tp125
F2
s(g117
S'VADVVP'
tp126
F2
s(S'VP'
p127
S'ADVADVADVVNP'
tp128
F1
s(S'PP'
p129
S'ADVPAPP'
tp130
F1
s(S'NP'
S'NCCCCP'
tp131
F1
s(S'CP'
S'CCCDP'
tp132
F2
s(S'VP'
S'ADVVAP'
tp133
F1
s(S'PP'
p134
S'APDP'
tp135
F6
s(S'PP'
S'ADVADVAPNP'
tp136
F1
s(S'VP'
S'VADVNNP'
tp137
F1
s(S'VP'
S'ADVVNNP'
tp138
F1
s(S'AP'
S'AADVCP'
tp139
F2
s(S'VP'
S'ADVADVAVPP'
tp140
F1
s(S'DP'
S'DNNNNP'
tp141
F1
s(g122
S'VVANP'
tp142
F1
s(S'VP'
S'VVVVDP'
tp143
F1
s(S'VP'
p144
S'ADVVVP'
tp145
F2
s(S'MP'
S'MAVNP'
tp146
F1
s(g17
S'PAAP'
tp147
F6
s(S'NP'
S'ADVANCP'
tp148
F1
s(S'DP'
p149
S'DNNP'
tp150
F25
s(g124
S'ADVVAANP'
tp151
F1
s(S'NP'
p152
S'NNADVPP'
tp153
F2
s(S'CP'
S'CCADVDP'
tp154
F2
s(S'NP'
S'NNNVP'
tp155
F3
s(S'PP'
p156
S'PAAVVP'
tp157
F1
s(S'PP'
S'AAPPDDP'
tp158
F1
s(S'VP'
p159
S'VDP'
tp160
F98
s(S'PP'
S'PADVVP'
tp161
F3
s(S'DP'
S'DADVADVADVPPP'
tp162
F1
s(S'AP'
p163
S'APP'
tp164
F19
s(S'PP'
S'AAAPPDDP'
tp165
F1
s(S'VP'
S'VAPPP'
tp166
F1
s(g35
S'PPADP'
tp167
F2
s(S'VP'
p168
S'VADVADVVP'
tp169
F2
s(S'CP'
p170
S'CADVADPP'
tp171
F1
s(S'DP'
S'DADVADVNP'
tp172
F1
s(S'NP'
S'ADVANPP'
tp173
F1
s(S'NP'
S'NAAACP'
tp174
F1
s(S'PP'
S'ADVAPADVDP'
tp175
F1
s(S'PP'
S'PAANP'
tp176
F3
s(g97
S'PPVVP'
tp177
F2
s(S'MP'
S'MVNP'
tp178
F12
s(S'NP'
S'NNANP'
tp179
F1
s(S'AP'
S'AADVCCP'
tp180
F1
s(S'CP'
S'CDDDPPP'
tp181
F2
s(g149
S'ADVADNP'
tp182
F1
s(S'PP'
p183
S'PAVP'
tp184
F3
s(S'CP'
S'CDADVADVPP'
tp185
F1
s(S'PP'
p186
S'ADVADVPPVP'
tp187
F1
s(S'VP'
S'VVVPP'
tp188
F1
s(g50
S'APPPP'
tp189
F1
s(S'DP'
p190
S'DADP'
tp191
F3
s(S'DP'
S'DAAAPPP'
tp192
F1
s(S'AP'
S'ADVADP'
tp193
F1
s(S'VP'
S'VVADVPP'
tp194
F1
s(S'PP'
p195
S'APPCP'
tp196
F1
s(S'AP'
p197
S'AVVP'
tp198
F4
s(S'VP'
S'ADVVNP'
tp199
F7
s(g43
S'VVNP'
tp200
F25
s(S'VP'
p201
S'VADVADVAAP'
tp202
F1
s(g70
S'PPVP'
tp203
F16
s(S'VP'
S'VADVDP'
tp204
F4
s(S'VP'
S'VVADVAP'
tp205
F1
s(g201
S'VAAP'
tp206
F7
s(g82
S'ANDP'
tp207
F6
s(g23
S'NVVP'
tp208
F23
s(S'AP'
S'AAP'
tp209
F6
s(S'VP'
p210
S'VMP'
tp211
F1
s(S'VP'
p212
S'VVNNP'
tp213
F3
s(S'CP'
p214
S'CDAPP'
tp215
F7
s(g201
S'VVAAP'
tp216
F1
s(g21
S'ADNP'
tp217
F12
s(S'VP'
S'ADVADVVNP'
tp218
F1
s(g70
S'PADP'
tp219
F10
s(S'NP'
p220
S'ANDDP'
tp221
F2
s(g21
S'DAPP'
tp222
F16
s(S'VP'
S'AVVP'
tp223
F3
s(g168
S'ADVADVVPP'
tp224
F2
s(S'DP'
p225
S'DAAVP'
tp226
F5
s(S'VP'
S'ADVADVVDP'
tp227
F1
s(S'VP'
p228
S'AVVNP'
tp229
F2
s(S'PP'
S'PPPDP'
tp230
F2
s(S'DP'
p231
S'DADVANP'
tp232
F1
s(S'MP'
S'MPANP'
tp233
F1
s(S'DP'
S'ADVDNP'
tp234
F4
s(g58
S'VVPP'
tp235
F16
s(g70
S'ADVADVPDDDP'
tp236
F1
s(S'CP'
S'AACDDP'
tp237
F1
s(S'MP'
S'MVPP'
tp238
F6
s(S'CP'
S'CADVADVDDPP'
tp239
F1
s(S'CP'
S'CDDPPP'
tp240
F3
s(S'NP'
p241
S'NNPP'
tp242
F16
s(S'MP'
S'MVVDP'
tp243
F2
s(S'AP'
S'AACP'
tp244
F1
s(S'NP'
p245
S'ANVP'
tp246
F8
s(S'DP'
S'DNNNP'
tp247
F4
s(S'NP'
S'ADVADVNADVVVVP'
tp248
F1
s(S'PP'
S'PADVADVVP'
tp249
F1
s(S'PP'
S'PMMP'
tp250
F1
s(S'PP'
S'PVVVP'
tp251
F2
s(S'PP'
S'PMP'
tp252
F5
s(S'NP'
p253
S'NNMMP'
tp254
F1
s(g25
S'CCDP'
tp255
F29
s(S'NP'
p256
S'ANNDP'
tp257
F2
s(S'VP'
S'VADVANP'
tp258
F1
s(S'NP'
p259
S'NVVVP'
tp260
F3
s(S'CP'
S'CDDDPP'
tp261
F4
s(S'CP'
S'CDAAPP'
tp262
F1
s(S'VP'
S'VVVDP'
tp263
F3
s(S'MP'
p264
S'MVACP'
tp265
F1
s(S'CP'
S'CCCCDP'
tp266
F1
s(g107
S'AACCP'
tp267
F1
s(S'PP'
S'AAPNP'
tp268
F2
s(S'PP'
S'PADVVVP'
tp269
F1
s(g62
S'PPP'
tp270
F60
s(S'NP'
p271
S'NAVP'
tp272
F7
s(S'DP'
p273
S'ADVADVVP'
tp274
F1
s(S'PP'
p275
S'PPADVADVNP'
tp276
F1
s(g271
S'NADVVVP'
tp277
F5
s(S'DP'
S'DADVADVPPP'
tp278
F1
s(g43
S'VPP'
tp279
F59
s(S'CP'
S'ADVCCDP'
tp280
F1
s(S'CP'
S'ACCDP'
tp281
F1
s(S'NP'
S'NNNCP'
tp282
F2
s(g35
S'PADVDP'
tp283
F1
s(S'CP'
p284
S'CDADVAPP'
tp285
F1
s(S'DP'
S'DANNP'
tp286
F2
s(S'CP'
p287
S'CDDPP'
tp288
F28
s(S'DP'
S'DAAPP'
tp289
F2
s(g134
S'PVVP'
tp290
F19
s(S'CP'
p291
S'CADPPP'
tp292
F3
s(S'DP'
p293
S'DADVPPP'
tp294
F3
s(g212
S'ADVVCP'
tp295
F3
s(g19
S'ADVPPAP'
tp296
F1
s(g212
S'VPPP'
tp297
F8
s(S'VP'
p298
S'AVCCP'
tp299
F1
s(g253
S'NADVADVAVP'
tp300
F1
s(g48
S'VVPPP'
tp301
F1
s(g62
S'PPAP'
tp302
F8
s(g46
S'DVVP'
tp303
F16
s(S'PP'
S'PADVAVP'
tp304
F1
s(S'MP'
p305
S'MPPPDDP'
tp306
F1
s(S'NP'
p307
S'NNNNDP'
tp308
F1
s(S'CP'
S'ADVACDDP'
tp309
F1
s(S'NP'
S'ANMP'
tp310
F2
s(S'AP'
p311
S'APPP'
tp312
F1
s(g35
S'ADVPPP'
tp313
F2
s(g43
S'VVVP'
tp314
F7
s(g284
S'CADVDPP'
tp315
F7
s(g99
S'ADVADVNNVP'
tp316
F1
s(g23
S'ANCP'
tp317
F13
s(S'VP'
p318
S'VADVADVACP'
tp319
F1
s(S'DP'
S'DCP'
tp320
F8
s(S'DP'
S'DDDNNP'
tp321
F2
s(S'VP'
S'ADVADVADVVVP'
tp322
F1
s(S'PP'
S'ADVADVADVPPNP'
tp323
F1
s(S'DP'
p324
S'DDDP'
tp325
F8
s(g293
S'DDADVPP'
tp326
F2
s(S'MP'
S'MAADP'
tp327
F1
s(g152
S'ANVVP'
tp328
F6
s(S'NP'
p329
S'NVVVVP'
tp330
F3
s(g23
S'NPPP'
tp331
F15
s(S'VP'
S'ADVVNNNP'
tp332
F1
s(S'DP'
p333
S'DAVP'
tp334
F10
s(g93
S'NNNMP'
tp335
F1
s(S'AP'
S'ACP'
tp336
F15
s(g40
S'PADVADVNNP'
tp337
F1
s(g70
S'PPNP'
tp338
F22
s(S'DP'
S'AADVP'
tp339
F1
s(S'CP'
S'CDDADVPP'
tp340
F2
s(S'AP'
S'ADP'
tp341
F82
s(g324
S'DDAVP'
tp342
F2
s(g93
S'ANPPP'
tp343
F1
s(S'NP'
S'ADVANCCP'
tp344
F1
s(g231
S'DVVVVP'
tp345
F1
s(S'VP'
S'AAAVDP'
tp346
F1
s(g119
S'ADVADVVNNP'
tp347
F1
s(S'AP'
S'AAADP'
tp348
F1
s(g144
S'VVAP'
tp349
F6
s(S'NP'
p350
S'NNAPP'
tp351
F1
s(g82
S'NPP'
tp352
F82
s(g333
S'ADVADVADVDDPP'
tp353
F1
s(g82
S'NVP'
tp354
F109
s(g152
S'NNDDDP'
tp355
F1
s(S'PP'
S'PAAVP'
tp356
F2
s(g350
S'NAAPP'
tp357
F1
s(S'VP'
p358
S'VDDP'
tp359
F24
s(g220
S'NNAAMP'
tp360
F1
s(S'DP'
S'DMP'
tp361
F3
s(g29
S'DADVAPP'
tp362
F3
s(g129
S'AAAPNNP'
tp363
F1
s(g56
S'ANPP'
tp364
F15
s(g78
S'PPPPP'
tp365
F1
s(S'MP'
S'MVVPP'
tp366
F1
s(g29
S'ADVDPP'
tp367
F10
s(g101
S'ADDP'
tp368
F1
s(S'MP'
S'ADVADVMMVP'
tp369
F1
s(S'CP'
S'CAADPP'
tp370
F2
s(g99
S'NAACP'
tp371
F3
s(S'VP'
S'VVADVNP'
tp372
F2
s(S'CP'
S'CDADVADVADVPPP'
tp373
F1
s(g129
S'APNNP'
tp374
F1
s(S'DP'
S'AAADPP'
tp375
F1
s(S'VP'
S'AVAP'
tp376
F1
s(S'MP'
S'MMVP'
tp377
F4
s(S'PP'
S'ADVADVAPDP'
tp378
F1
s(g329
S'ADVNCP'
tp379
F3
s(g29
S'ADPP'
tp380
F19
s(S'NP'
p381
S'NAPPP'
tp382
F1
s(g287
S'ACDP'
tp383
F12
s(g159
S'VCCP'
tp384
F6
s(g119
S'ADVADVVAAP'
tp385
F1
s(S'AP'
S'ADVANP'
tp386
F1
s(g381
S'NNACP'
tp387
F1
s(S'CP'
S'CDADVPPP'
tp388
F2
s(g144
S'VAP'
tp389
F48
s(S'MP'
S'MNVVP'
tp390
F1
s(g190
S'DDDPP'
tp391
F5
s(g7
S'AANNCP'
tp392
F1
s(S'VP'
S'VVAAPPP'
tp393
F1
s(S'MP'
S'MVVVDP'
tp394
F1
s(S'NP'
S'NADVADVAPP'
tp395
F1
s(g101
S'DDDPPP'
tp396
F3
s(S'VP'
S'ADVAVDP'
tp397
F1
s(S'DP'
S'ADAP'
tp398
F1
s(S'CP'
S'CCADVADP'
tp399
F1
s(S'MP'
p400
S'AMVVVP'
tp401
F1
s(S'VP'
S'ADVVVDP'
tp402
F3
s(g17
S'PPPVP'
tp403
F3
s(S'VP'
p404
S'AAVAP'
tp405
F1
s(S'AP'
p406
S'AADDP'
tp407
F6
s(S'VP'
p408
S'VAANP'
tp409
F2
s(S'VP'
S'ADVVAAAP'
tp410
F1
s(S'DP'
S'AAADDP'
tp411
F1
s(g58
S'VVDP'
tp412
F25
s(S'VP'
S'VVAADP'
tp413
F1
s(S'MP'
S'MADP'
tp414
F3
s(S'PP'
S'PPPDDP'
tp415
F1
s(g48
S'AAVVNP'
tp416
F1
s(S'PP'
p417
S'PANP'
tp418
F11
s(S'PP'
S'PDDDP'
tp419
F1
s(S'AP'
p420
S'AAVP'
tp421
F2
s(S'NP'
p422
S'NAAP'
tp423
F6
s(S'NP'
p424
S'NDDP'
tp425
F5
s(S'PP'
S'APPDDP'
tp426
F1
s(S'AP'
S'ACCP'
tp427
F3
s(g117
S'VVVVAP'
tp428
F2
s(g82
S'NDP'
tp429
F46
s(g21
S'DDVP'
tp430
F21
s(S'NP'
S'AANVP'
tp431
F1
s(S'DP'
S'DADVADVAPP'
tp432
F1
s(g228
S'VNNNP'
tp433
F3
s(S'PP'
S'ADVPAP'
tp434
F1
s(g31
S'PPPPVVP'
tp435
F1
s(S'PP'
S'PCP'
tp436
F5
s(S'VP'
p437
S'VADVADP'
tp438
F1
s(g17
S'PAADP'
tp439
F3
s(g307
S'ANNPP'
tp440
F1
s(g48
S'VVADVACP'
tp441
F1
s(S'NP'
p442
S'NNNDP'
tp443
F2
s(S'AP'
S'ADVACP'
tp444
F2
s(S'DP'
S'DDADVVP'
tp445
F1
s(g46
S'ADPPP'
tp446
F7
s(g400
S'MVCP'
tp447
F2
s(S'CP'
S'CCDDP'
tp448
F3
s(S'NP'
S'NNADVVP'
tp449
F1
s(g275
S'PPADVADVVP'
tp450
F1
s(S'PP'
S'PPAAP'
tp451
F1
s(g11
S'ADAVVP'
tp452
F1
s(g43
S'VVCP'
tp453
F8
s(g76
S'AANCP'
tp454
F6
s(g117
S'VADVNP'
tp455
F5
s(g318
S'VVDDDP'
tp456
F1
s(g70
S'APPP'
tp457
F3
s(S'VP'
S'ADVVPP'
tp458
F2
s(S'CP'
p459
S'CADVADVADVDDPP'
tp460
F1
s(g58
S'VNNP'
tp461
F24
s(g23
S'NADP'
tp462
F2
s(S'PP'
S'AAAPPP'
tp463
F1
s(g149
S'DDNP'
tp464
F24
s(g291
S'ACADVDP'
tp465
F2
s(S'NP'
S'NADVCP'
tp466
F2
s(g101
S'DDNNP'
tp467
F6
s(g259
S'ADVANVP'
tp468
F2
s(S'VP'
S'ADVVVVPP'
tp469
F1
s(S'AP'
S'AADVADP'
tp470
F1
s(g225
S'AADPP'
tp471
F2
s(S'MP'
S'MVVP'
tp472
F1
s(g298
S'VVVVCP'
tp473
F1
s(g275
S'ADVADVPPPNP'
tp474
F1
s(g183
S'AAPDP'
tp475
F2
s(S'MP'
S'MVVNP'
tp476
F2
s(g111
S'ADVDNNP'
tp477
F1
s(S'CP'
p478
S'ACDDP'
tp479
F1
s(g311
S'AAPP'
tp480
F3
s(S'VP'
p481
S'VVCCP'
tp482
F1
s(S'DP'
S'DAAAPP'
tp483
F2
s(g271
S'NNPPP'
tp484
F4
s(S'NP'
p485
S'NAPP'
tp486
F4
s(S'AP'
S'ADVADVADP'
tp487
F1
s(S'VP'
S'VVVCP'
tp488
F1
s(g90
S'ANCCP'
tp489
F1
s(S'NP'
S'AANPP'
tp490
F1
s(S'VP'
S'VDDDP'
tp491
F1
s(S'NP'
S'NNMP'
tp492
F7
s(g275
S'ADVPANNP'
tp493
F1
s(S'DP'
S'DDDVP'
tp494
F1
s(g305
S'MADVVADP'
tp495
F1
s(g170
S'CADDPP'
tp496
F2
s(g159
S'VVADVADVPP'
tp497
F1
s(S'PP'
S'PPPAP'
tp498
F1
s(S'DP'
S'ADVDADP'
tp499
F1
s(g264
S'MVAP'
tp500
F2
s(g70
S'PVP'
tp501
F81
s(S'MP'
S'AAMVP'
tp502
F1
s(g256
S'ADVNAVP'
tp503
F1
s(S'NP'
S'ANNCP'
tp504
F1
s(S'MP'
p505
S'MADVANCP'
tp506
F1
s(g78
S'PPDDP'
tp507
F1
s(g117
S'AVCP'
tp508
F2
s(g67
S'NADVADVAP'
tp509
F1
s(g307
S'NAVVP'
tp510
F1
s(S'MP'
S'MVVAAPPP'
tp511
F1
s(g21
S'DPP'
tp512
F126
s(g329
S'ADVNVP'
tp513
F7
s(g101
S'DDPP'
tp514
F38
s(g29
S'DANP'
tp515
F21
s(g307
S'NADVPP'
tp516
F1
s(g273
S'AADPPPP'
tp517
F1
s(g101
S'AADNP'
tp518
F4
s(g271
S'NACP'
tp519
F10
s(S'VP'
S'VADVCP'
tp520
F2
s(g37
S'MDNP'
tp521
F1
s(S'DP'
S'DADVADVAVP'
tp522
F1
s(S'NP'
S'NNNVVP'
tp523
F2
s(g442
S'ADVNMMP'
tp524
F1
s(g149
S'DCCP'
tp525
F1
s(g287
S'CDPPPPP'
tp526
F3
s(g437
S'VVDDP'
tp527
F3
s(g62
S'PDDP'
tp528
F15
s(S'MP'
S'MVDDP'
tp529
F1
s(g62
S'ADVAPNP'
tp530
F2
s(g241
S'NNVP'
tp531
F33
s(S'PP'
S'APAAP'
tp532
F1
s(g14
S'AVDP'
tp533
F5
s(S'NP'
S'NNP'
tp534
F2
s(g11
S'ADVADPP'
tp535
F2
s(S'DP'
S'DAANP'
tp536
F2
s(g311
S'ADDP'
tp537
F16
s(S'NP'
S'NADVADVVP'
tp538
F2
s(S'VP'
S'ADVVVAP'
tp539
F2
s(g95
S'ADVPPNP'
tp540
F2
s(g127
S'VADVADVADVVP'
tp541
F2
s(g21
S'DPPP'
tp542
F35
s(S'DP'
S'AADPPP'
tp543
F1
s(g485
S'NMMMP'
tp544
F1
s(S'PP'
S'ADVPNP'
tp545
F6
s(g62
S'PPDP'
tp546
F20
s(S'AP'
S'ADVADVADVAVVP'
tp547
F1
s(S'NP'
S'NNAAACP'
tp548
F1
s(S'NP'
S'AAANMP'
tp549
F1
s(S'DP'
S'DDCP'
tp550
F1
s(g420
S'ADVADVAADP'
tp551
F1
s(S'NP'
S'NAP'
tp552
F34
s(S'NP'
S'NNAAP'
tp553
F1
s(g159
S'VAAAP'
tp554
F1
s(g58
S'VVP'
tp555
F19
s(g245
S'NNVVP'
tp556
F10
s(g156
S'ADVADVPVP'
tp557
F1
s(g35
S'APNP'
tp558
F9
s(S'DP'
S'DDVVP'
tp559
F2
s(g197
S'AAADDP'
tp560
F1
s(g485
S'NAMP'
tp561
F1
s(S'DP'
S'ADVADVDDPP'
tp562
F1
s(S'MP'
S'MVNNP'
tp563
F2
s(g25
S'CDPP'
tp564
F109
s(g505
S'MVVNNP'
tp565
F1
s(g163
S'ADDDP'
tp566
F1
s(g46
S'ADVDVVP'
tp567
F1
s(g400
S'MMMVP'
tp568
F1
s(S'CP'
S'ADVCDP'
tp569
F7
s(S'PP'
S'PPPPAP'
tp570
F1
s(g70
S'PPNNP'
tp571
F5
s(g5
S'VAADP'
tp572
F3
s(S'NP'
S'NADVAP'
tp573
F2
s(g119
S'AVDDP'
tp574
F2
s(g21
S'DADVNP'
tp575
F3
s(S'DP'
S'DAP'
tp576
F8
s(g459
S'CADPP'
tp577
F12
s(g358
S'AVPP'
tp578
F3
s(S'VP'
p579
S'VVADVDP'
tp580
F1
s(g287
S'CDPPPP'
tp581
F6
s(g201
S'AAVDP'
tp582
F2
s(S'PP'
S'PANNP'
tp583
F1
s(S'AP'
S'AAAPP'
tp584
F1
s(S'DP'
S'DADVADVPP'
tp585
F1
s(g190
S'ADVP'
tp586
F7
s(S'PP'
S'PPPNP'
tp587
F3
s(g17
S'PPPPNP'
tp588
F2
s(g406
S'AADP'
tp589
F19
s(g422
S'NNADVVVP'
tp590
F1
s(S'VP'
S'VADVPP'
tp591
F2
s(S'CP'
S'ADVADVACDDP'
tp592
F1
s(g19
S'ADVPVP'
tp593
F4
s(S'VP'
S'AAVAAP'
tp594
F1
s(S'NP'
S'NNVVVP'
tp595
F1
s(S'VP'
S'ADVVANP'
tp596
F1
s(g417
S'ADVPDP'
tp597
F3
s(g210
S'ADVVADP'
tp598
F1
s(S'PP'
S'PPPVVP'
tp599
F1
s(g82
S'NCP'
tp600
F96
s(S'CP'
S'CADVDPPP'
tp601
F1
s(S'AP'
S'AAAP'
tp602
F1
s(g579
S'AAVVDP'
tp603
F1
s(g52
S'NNCCP'
tp604
F2
s(S'MP'
S'MADVADVAVNP'
tp605
F1
s(S'NP'
S'AANAP'
tp606
F1
s(g404
S'VAPP'
tp607
F2
s(S'VP'
S'VADVADVADVAAP'
tp608
F1
s(S'VP'
S'ADVVDP'
tp609
F6
s(g46
S'DADVPP'
tp610
F11
s(S'CP'
S'CCADP'
tp611
F2
s(g90
S'ADVNNCP'
tp612
F1
s(g307
S'ADVADVNADVADVPPPP'
tp613
F1
s(g186
S'ADVPPVVP'
tp614
F1
s(g478
S'AACDP'
tp615
F2
s(g113
S'ADVDPPP'
tp616
F2
s(S'DP'
S'DVP'
tp617
F84
s(g408
S'AVNNP'
tp618
F1
s(g82
S'ADVNPP'
tp619
F1
s(S'DP'
S'AAADVVP'
tp620
F1
s(S'CP'
S'AAACDP'
tp621
F2
s(g163
S'AVP'
tp622
F17
s(g271
S'NADVVP'
tp623
F5
s(S'CP'
S'CDAAAPP'
tp624
F1
s(S'DP'
S'DDPPP'
tp625
F8
s(S'NP'
S'ADVNMP'
tp626
F2
s(g82
S'NNAP'
tp627
F8
s(g424
S'NNADVPPP'
tp628
F1
s(g195
S'PPANP'
tp629
F1
s(g214
S'CDADVPP'
tp630
F6
s(g159
S'VNP'
tp631
F89
s(g159
S'VANP'
tp632
F16
s(g481
S'VADVAP'
tp633
F1
s(S'PP'
S'PPADVNP'
tp634
F1
s.