ccollections
defaultdict
p1
(c__builtin__
float
p2
tRp3
(S'VP'
S'VVAAAP'
tp4
F1
s(S'VP'
S'VVVVP'
tp5
F1
s(S'DP'
S'DAANNP'
tp6
F1
s(S'PP'
S'PAPP'
tp7
F3
s(S'PP'
p8
S'PADVNP'
tp9
F2
s(S'DP'
p10
S'DNP'
tp11
F86
s(S'CP'
p12
S'CDPPP'
tp13
F24
s(S'VP'
S'VADP'
tp14
F6
s(S'MP'
S'MAVNP'
tp15
F3
s(S'DP'
S'ADNNP'
tp16
F2
s(S'VP'
S'ADVVNP'
tp17
F2
s(S'MP'
S'MVDP'
tp18
F2
s(S'PP'
p19
S'PPPP'
tp20
F14
s(S'DP'
p21
S'DDDNP'
tp22
F1
s(S'VP'
p23
S'VACP'
tp24
F1
s(S'DP'
p25
S'DADVVP'
tp26
F1
s(S'NP'
p27
S'NCCCP'
tp28
F1
s(S'VP'
p29
S'VCP'
tp30
F41
s(S'PP'
p31
S'PAP'
tp32
F36
s(S'MP'
S'MMVVP'
tp33
F1
s(S'DP'
S'AADDDP'
tp34
F1
s(S'PP'
S'ADVPPVP'
tp35
F1
s(S'NP'
S'ANPPP'
tp36
F1
s(g19
S'PNP'
tp37
F91
s(S'VP'
p38
S'AVNNNP'
tp39
F1
s(S'DP'
p40
S'DDP'
tp41
F11
s(S'VP'
S'ADVVDDP'
tp42
F1
s(S'NP'
p43
S'NNNPP'
tp44
F2
s(S'PP'
S'PAAP'
tp45
F8
s(S'MP'
S'MCDP'
tp46
F1
s(S'PP'
p47
S'ADVPCP'
tp48
F1
s(S'VP'
S'ADVADVVVCP'
tp49
F1
s(S'NP'
p50
S'NMP'
tp51
F16
s(g19
S'PDP'
tp52
F90
s(S'CP'
S'CDADVADVPP'
tp53
F2
s(S'MP'
S'MNNVP'
tp54
F1
s(S'CP'
S'CDADVADVPPP'
tp55
F1
s(S'PP'
p56
S'PPPADVVP'
tp57
F1
s(S'AP'
S'ANP'
tp58
F1
s(g10
S'DPPPP'
tp59
F3
s(S'DP'
S'DDANP'
tp60
F2
s(g50
S'NACP'
tp61
F7
s(S'NP'
p62
S'NCCP'
tp63
F17
s(S'NP'
S'NNCP'
tp64
F14
s(S'NP'
p65
S'ANADVADVVVP'
tp66
F1
s(S'DP'
S'DPPPPP'
tp67
F1
s(S'NP'
S'NNPPPP'
tp68
F1
s(S'DP'
S'DDDDP'
tp69
F1
s(g29
S'AVNP'
tp70
F5
s(S'VP'
p71
S'ADVADVADVVNP'
tp72
F1
s(S'NP'
S'ANADVVP'
tp73
F1
s(g65
S'NCCCCP'
tp74
F2
s(S'CP'
S'CCCDP'
tp75
F1
s(S'VP'
S'ADVVAP'
tp76
F1
s(S'DP'
S'DDADVADVADVPPP'
tp77
F1
s(S'PP'
S'APDP'
tp78
F7
s(S'DP'
S'DAAP'
tp79
F2
s(S'DP'
S'AADDVP'
tp80
F1
s(g10
S'DNNP'
tp81
F13
s(S'NP'
p82
S'NNADVPP'
tp83
F1
s(S'CP'
S'CCADVDP'
tp84
F2
s(S'VP'
S'VVACP'
tp85
F1
s(S'NP'
p86
S'NNNVP'
tp87
F2
s(S'PP'
p88
S'PPAAPP'
tp89
F1
s(S'PP'
S'PPNNNNP'
tp90
F1
s(S'PP'
S'PADVVP'
tp91
F3
s(S'PP'
S'APAP'
tp92
F2
s(S'AP'
S'APP'
tp93
F15
s(S'AP'
p94
S'AAP'
tp95
F5
s(S'PP'
S'PAANP'
tp96
F1
s(S'PP'
p97
S'PPVVP'
tp98
F2
s(S'MP'
S'MVNP'
tp99
F5
s(g19
S'PAVP'
tp100
F3
s(S'VP'
S'VVVPP'
tp101
F1
s(S'VP'
S'VVADVAPP'
tp102
F1
s(S'AP'
S'ADVADP'
tp103
F1
s(S'PP'
S'APDDP'
tp104
F1
s(S'DP'
S'DDVVVVP'
tp105
F1
s(S'PP'
p106
S'APVP'
tp107
F3
s(S'VP'
p108
S'VVNP'
tp109
F6
s(S'PP'
p110
S'PPVP'
tp111
F12
s(S'VP'
S'VADVDP'
tp112
F2
s(S'VP'
p113
S'VAAP'
tp114
F4
s(S'NP'
S'ANDP'
tp115
F3
s(S'NP'
S'NVVP'
tp116
F15
s(S'PP'
p117
S'AAPVP'
tp118
F1
s(g108
S'VMP'
tp119
F4
s(S'CP'
S'CDAPP'
tp120
F15
s(S'VP'
S'VVAAP'
tp121
F3
s(g10
S'ADVADVP'
tp122
F1
s(S'DP'
p123
S'ADNP'
tp124
F6
s(g110
S'PADP'
tp125
F4
s(g71
S'ADVVVCP'
tp126
F1
s(S'VP'
S'VVVVVDP'
tp127
F1
s(S'DP'
S'DAPP'
tp128
F18
s(S'PP'
S'PPPDP'
tp129
F2
s(S'MP'
S'MVVAP'
tp130
F1
s(S'DP'
S'DAAANP'
tp131
F1
s(S'DP'
p132
S'ADVDNP'
tp133
F1
s(S'VP'
S'VVPP'
tp134
F13
s(S'MP'
S'MVPP'
tp135
F3
s(g132
S'DDAAPP'
tp136
F1
s(g50
S'NNPP'
tp137
F18
s(S'AP'
S'AACP'
tp138
F7
s(S'NP'
S'ANVP'
tp139
F9
s(g123
S'DNNNP'
tp140
F1
s(S'PP'
S'PMMP'
tp141
F1
s(g110
S'PMP'
tp142
F5
s(g12
S'CCDP'
tp143
F22
s(S'NP'
S'ANNDP'
tp144
F1
s(S'MP'
S'AMVP'
tp145
F1
s(S'NP'
S'NVVVP'
tp146
F2
s(g12
S'CDDDPP'
tp147
F1
s(S'CP'
S'CDAAPP'
tp148
F2
s(S'VP'
p149
S'VVVDP'
tp150
F1
s(S'PP'
p151
S'PNNNP'
tp152
F4
s(S'CP'
S'CCCCDP'
tp153
F1
s(S'AP'
S'AACCP'
tp154
F1
s(S'PP'
S'AAPNP'
tp155
F3
s(g19
S'PPP'
tp156
F35
s(g62
S'NAVP'
tp157
F4
s(S'NP'
p158
S'NADVVVP'
tp159
F1
s(S'DP'
S'DADVADVPPP'
tp160
F1
s(S'VP'
p161
S'VPP'
tp162
F40
s(S'NP'
p163
S'NNNCP'
tp164
F2
s(g117
S'PADVDP'
tp165
F2
s(S'DP'
S'DANNP'
tp166
F1
s(S'PP'
S'PADVAAP'
tp167
F1
s(S'CP'
S'CDDPP'
tp168
F23
s(g123
S'DAAPP'
tp169
F6
s(S'PP'
S'PVVP'
tp170
F11
s(S'CP'
S'CADPPP'
tp171
F3
s(S'DP'
p172
S'DADVPPP'
tp173
F1
s(S'VP'
p174
S'ADVVCP'
tp175
F3
s(g23
S'VPPP'
tp176
F7
s(g161
S'AVCCP'
tp177
F2
s(S'PP'
p178
S'PPAP'
tp179
F5
s(g40
S'DVVP'
tp180
F9
s(S'CP'
S'CDDAAPP'
tp181
F1
s(S'NP'
S'ANMP'
tp182
F1
s(S'AP'
S'APPP'
tp183
F2
s(S'NP'
S'ADVADVNVP'
tp184
F1
s(S'VP'
p185
S'VVVP'
tp186
F3
s(S'CP'
S'CADVDPP'
tp187
F6
s(S'NP'
S'ANCP'
tp188
F11
s(S'DP'
S'DCP'
tp189
F5
s(S'DP'
p190
S'DVVVP'
tp191
F2
s(g158
S'AAANCP'
tp192
F1
s(S'PP'
S'ADVADVADVPPNP'
tp193
F1
s(S'DP'
p194
S'DDDP'
tp195
F5
s(g190
S'DDADVPP'
tp196
F2
s(S'CP'
S'CADVADVADPP'
tp197
F1
s(S'MP'
S'MAADP'
tp198
F1
s(S'NP'
p199
S'ANVVP'
tp200
F2
s(S'VP'
p201
S'VVDP'
tp202
F11
s(S'NP'
S'NPPP'
tp203
F7
s(g21
S'DAVP'
tp204
F4
s(S'CP'
S'CDDADVADVADVPPP'
tp205
F1
s(S'AP'
S'ACP'
tp206
F25
s(g19
S'PPNP'
tp207
F21
s(S'VP'
p208
S'VVVVNNP'
tp209
F1
s(S'CP'
S'CDDADVPP'
tp210
F1
s(g94
S'ADP'
tp211
F68
s(S'DP'
p212
S'DDAVP'
tp213
F1
s(S'AP'
S'ADVAADDP'
tp214
F1
s(S'MP'
S'MADDP'
tp215
F2
s(g47
S'ADVPADVPP'
tp216
F1
s(S'VP'
S'AVDP'
tp217
F2
s(g117
S'ADVAPDDP'
tp218
F1
s(S'VP'
p219
S'VVAP'
tp220
F10
s(S'VP'
S'AAVCP'
tp221
F1
s(g62
S'NPP'
tp222
F75
s(S'PP'
S'PPPPNP'
tp223
F1
s(g62
S'NVP'
tp224
F85
s(S'CP'
S'ADVCCDDP'
tp225
F1
s(g97
S'ADVADVPPAAP'
tp226
F1
s(g113
S'VDDP'
tp227
F14
s(g163
S'AANNVP'
tp228
F1
s(S'NP'
S'ANPP'
tp229
F12
s(S'PP'
p230
S'PPPPP'
tp231
F1
s(S'PP'
S'ADVADVPDP'
tp232
F1
s(S'MP'
p233
S'MVVPP'
tp234
F1
s(g19
S'PPPNP'
tp235
F3
s(S'NP'
S'NPPPP'
tp236
F2
s(S'CP'
S'CDDDADVPP'
tp237
F1
s(g56
S'PPPPPPP'
tp238
F1
s(S'CP'
S'CAADPP'
tp239
F2
s(g31
S'PNNP'
tp240
F18
s(S'DP'
S'DDAAP'
tp241
F1
s(S'NP'
S'NNNNMMP'
tp242
F1
s(S'DP'
S'ADPP'
tp243
F9
s(g208
S'VAPPP'
tp244
F1
s(S'CP'
S'ACDP'
tp245
F12
s(S'NP'
S'NNDP'
tp246
F5
s(S'AP'
S'ADVANP'
tp247
F1
s(S'CP'
S'CCCCDDP'
tp248
F1
s(S'NP'
S'NNACP'
tp249
F1
s(S'MP'
S'MDNNP'
tp250
F1
s(g161
S'VAP'
tp251
F38
s(g10
S'DDDPP'
tp252
F2
s(S'NP'
S'AANNCP'
tp253
F1
s(g25
S'ADAP'
tp254
F1
s(S'AP'
S'AVVP'
tp255
F1
s(g230
S'PPPVP'
tp256
F1
s(S'AP'
S'AADDP'
tp257
F2
s(S'PP'
S'PANP'
tp258
F16
s(S'AP'
p259
S'AAVP'
tp260
F2
s(g27
S'NAAP'
tp261
F1
s(g43
S'NDDP'
tp262
F7
s(S'PP'
S'APPDDP'
tp263
F1
s(S'AP'
p264
S'ACCP'
tp265
F3
s(S'DP'
S'DDDADVPP'
tp266
F1
s(S'VP'
S'AVPPP'
tp267
F1
s(g82
S'NDP'
tp268
F24
s(S'NP'
S'AAANVP'
tp269
F1
s(S'DP'
p270
S'DDVP'
tp271
F15
s(S'NP'
S'AANVP'
tp272
F1
s(S'VP'
S'VADVADVPP'
tp273
F1
s(S'PP'
S'ADVPAP'
tp274
F2
s(S'PP'
S'PCP'
tp275
F2
s(g62
S'NNPPP'
tp276
F1
s(g106
S'PAADDP'
tp277
F1
s(S'PP'
S'PAADP'
tp278
F1
s(S'AP'
S'ADVACP'
tp279
F1
s(g38
S'AVVDP'
tp280
F1
s(S'DP'
S'ADPPP'
tp281
F3
s(S'MP'
S'MVCP'
tp282
F2
s(g12
S'CCDDP'
tp283
F3
s(S'NP'
p284
S'NNVVP'
tp285
F2
s(S'NP'
S'NNNNVP'
tp286
F1
s(g201
S'VVCP'
tp287
F7
s(S'VP'
S'VADVNP'
tp288
F1
s(S'PP'
S'APPP'
tp289
F6
s(S'VP'
p290
S'VNNP'
tp291
F9
s(S'NP'
S'NADP'
tp292
F1
s(S'DP'
S'DDNP'
tp293
F16
s(S'NP'
S'NADVCP'
tp294
F2
s(S'DP'
S'DDNNP'
tp295
F3
s(S'PP'
p296
S'AAPPP'
tp297
F1
s(g94
S'AADVADP'
tp298
F1
s(g194
S'AADPP'
tp299
F2
s(S'CP'
S'CDDADVPPP'
tp300
F1
s(S'CP'
S'ACDDP'
tp301
F3
s(S'AP'
S'AAPP'
tp302
F4
s(g86
S'NAPP'
tp303
F4
s(S'NP'
S'NADVDP'
tp304
F1
s(S'PP'
S'ADVPPPP'
tp305
F1
s(S'MP'
S'MVDDP'
tp306
F1
s(S'NP'
S'ANCCP'
tp307
F1
s(S'NP'
S'NNMP'
tp308
F1
s(S'DP'
p309
S'DDDVP'
tp310
F1
s(S'PP'
S'PAAAP'
tp311
F2
s(S'PP'
S'ADVADVPNP'
tp312
F1
s(S'NP'
S'ANAP'
tp313
F2
s(g233
S'MVAP'
tp314
F2
s(g19
S'PVP'
tp315
F64
s(g199
S'ANNCP'
tp316
F2
s(S'NP'
S'ADVADVADVNVP'
tp317
F1
s(S'PP'
S'PPDDP'
tp318
F3
s(g290
S'AVCP'
tp319
F1
s(S'NP'
p320
S'NAVVP'
tp321
F1
s(g10
S'DPP'
tp322
F117
s(g284
S'ADVNVP'
tp323
F3
s(g10
S'DDPP'
tp324
F37
s(S'DP'
S'DDADVPPP'
tp325
F1
s(g270
S'DANP'
tp326
F15
s(g27
S'NADVPP'
tp327
F1
s(S'DP'
S'ADVADVADPP'
tp328
F1
s(g31
S'PDDDP'
tp329
F2
s(g185
S'VADVCP'
tp330
F1
s(S'NP'
S'NADVCCP'
tp331
F1
s(g151
S'PPAANNP'
tp332
F1
s(g320
S'NNNVVP'
tp333
F1
s(S'NP'
p334
S'NNVVVVVP'
tp335
F1
s(g47
S'ADVPADVADVVP'
tp336
F1
s(g88
S'AAPDP'
tp337
F3
s(S'PP'
S'PDDP'
tp338
F15
s(S'DP'
S'DADVADVADVVP'
tp339
F1
s(g43
S'NNVP'
tp340
F15
s(S'NP'
S'NNP'
tp341
F3
s(S'VP'
S'VVDDP'
tp342
F1
s(g264
S'ADDP'
tp343
F10
s(S'PP'
S'ADVPPNP'
tp344
F1
s(g10
S'DPPP'
tp345
F33
s(S'PP'
S'ADVADVPAAANP'
tp346
F1
s(S'VP'
S'VANNP'
tp347
F1
s(S'NP'
S'NNAAPP'
tp348
F1
s(g106
S'ADVPNP'
tp349
F1
s(S'PP'
S'PPDP'
tp350
F13
s(g212
S'DDCP'
tp351
F1
s(g50
S'NAP'
tp352
F20
s(g174
S'VAAAP'
tp353
F1
s(g219
S'VVP'
tp354
F9
s(S'AP'
S'AAADP'
tp355
F2
s(S'PP'
S'APNP'
tp356
F11
s(S'VP'
S'VVVNP'
tp357
F2
s(S'MP'
S'MAAVCP'
tp358
F1
s(S'NP'
S'NAMP'
tp359
F1
s(g12
S'CDPP'
tp360
F103
s(g172
S'ADVDVVP'
tp361
F2
s(S'CP'
S'ADVCDP'
tp362
F3
s(S'AP'
S'ADVAAP'
tp363
F1
s(S'VP'
p364
S'ADVADVVNP'
tp365
F2
s(g8
S'PPNNP'
tp366
F4
s(g161
S'VDP'
tp367
F70
s(S'NP'
S'AAANCCP'
tp368
F1
s(g149
S'AVDDP'
tp369
F1
s(g10
S'DAP'
tp370
F13
s(S'CP'
S'CADPP'
tp371
F7
s(S'PP'
S'PPAVP'
tp372
F1
s(g161
S'AVPP'
tp373
F3
s(S'DP'
S'DDNNNNP'
tp374
F1
s(S'MP'
S'AMVVP'
tp375
F1
s(S'CP'
S'CDPPPP'
tp376
F1
s(S'VP'
S'VADVADVADVNP'
tp377
F1
s(g296
S'PANNP'
tp378
F1
s(S'AP'
S'AAAPP'
tp379
F2
s(S'DP'
S'DADVADVPP'
tp380
F2
s(S'DP'
S'DMP'
tp381
F1
s(S'DP'
S'ADVDPP'
tp382
F8
s(S'PP'
S'PADVADVNP'
tp383
F1
s(S'AP'
S'AADP'
tp384
F11
s(g364
S'VADVPP'
tp385
F1
s(S'CP'
S'CDDPPP'
tp386
F3
s(S'DP'
S'ADVDANP'
tp387
F1
s(g47
S'ADVPVP'
tp388
F1
s(S'PP'
S'PPVVVP'
tp389
F1
s(S'PP'
S'PAMP'
tp390
F1
s(g178
S'ADVPDP'
tp391
F3
s(g62
S'NCP'
tp392
F82
s(S'VP'
S'ADVVVPP'
tp393
F1
s(g259
S'AAAP'
tp394
F1
s(g334
S'NNCCP'
tp395
F3
s(S'MP'
S'MNVP'
tp396
F3
s(g219
S'VAPP'
tp397
F3
s(S'VP'
S'ADVVDP'
tp398
F4
s(S'DP'
S'DADVPP'
tp399
F3
s(S'AP'
S'AMP'
tp400
F2
s(S'CP'
S'CCADP'
tp401
F1
s(g309
S'ADVDAP'
tp402
F1
s(S'AP'
S'ADVADVANP'
tp403
F1
s(S'NP'
S'NNNCCP'
tp404
F1
s(g10
S'DVP'
tp405
F76
s(S'AP'
S'AVP'
tp406
F7
s(g284
S'NADVVP'
tp407
F3
s(g123
S'DDPPP'
tp408
F7
s(S'NP'
S'NNAP'
tp409
F2
s(S'CP'
S'CDADVPP'
tp410
F1
s(g161
S'VNP'
tp411
F62
s(S'VP'
S'VANP'
tp412
F4
s(S'VP'
S'VADVAP'
tp413
F3
s(g65
S'NADVPPP'
tp414
F1
s.