ccollections
defaultdict
p1
(c__builtin__
float
p2
tRp3
(S'NP'
S'AANDDP'
tp4
F1
s(S'CP'
S'CAAADPP'
tp5
F1
s(S'PP'
S'PAAANP'
tp6
F2
s(S'DP'
S'ADDPP'
tp7
F1
s(S'NP'
S'ADVNNMP'
tp8
F1
s(S'DP'
p9
S'DDAP'
tp10
F4
s(S'VP'
S'ADVVVNP'
tp11
F1
s(S'CP'
S'CCDDDDP'
tp12
F1
s(S'AP'
S'AVVVP'
tp13
F1
s(S'PP'
p14
S'PAPP'
tp15
F3
s(S'PP'
p16
S'PADVNP'
tp17
F3
s(S'DP'
p18
S'DNP'
tp19
F110
s(S'NP'
S'ADVNDP'
tp20
F1
s(S'CP'
S'CDPPP'
tp21
F30
s(S'VP'
S'VADP'
tp22
F2
s(S'CP'
S'CDAAPPP'
tp23
F2
s(S'DP'
S'DAAP'
tp24
F1
s(S'DP'
p25
S'AAADDPPP'
tp26
F1
s(S'DP'
S'ADNNP'
tp27
F1
s(S'PP'
S'APVP'
tp28
F4
s(S'NP'
p29
S'NNADVADVAVP'
tp30
F1
s(g14
S'PADVANP'
tp31
F1
s(S'PP'
S'PPPP'
tp32
F18
s(S'DP'
S'DDDNP'
tp33
F1
s(S'VP'
p34
S'VACP'
tp35
F3
s(S'PP'
S'PPAAP'
tp36
F1
s(S'NP'
p37
S'NNNNNADVVVP'
tp38
F1
s(S'DP'
p39
S'DADVVP'
tp40
F5
s(S'PP'
p41
S'PADVNNP'
tp42
F1
s(S'NP'
S'NADVVVP'
tp43
F1
s(S'VP'
p44
S'VCP'
tp45
F53
s(S'NP'
p46
S'NMMP'
tp47
F7
s(S'PP'
S'ADVPNNP'
tp48
F1
s(S'PP'
S'PAP'
tp49
F41
s(S'MP'
S'MMVVP'
tp50
F2
s(S'VP'
S'VADVADVAP'
tp51
F1
s(S'PP'
S'ADVPPVP'
tp52
F1
s(S'NP'
S'NNNAP'
tp53
F1
s(S'NP'
p54
S'ANPPP'
tp55
F4
s(S'VP'
S'AAVNNP'
tp56
F1
s(S'PP'
p57
S'PNP'
tp58
F122
s(S'DP'
S'ADDP'
tp59
F3
s(S'PP'
S'PAAADP'
tp60
F1
s(S'DP'
S'DDP'
tp61
F25
s(S'NP'
S'NNNPP'
tp62
F2
s(S'VP'
S'VCCP'
tp63
F10
s(S'MP'
S'MCDP'
tp64
F4
s(S'CP'
S'CADVDADVAPP'
tp65
F1
s(S'NP'
p66
S'NMP'
tp67
F28
s(S'VP'
p68
S'AAVNP'
tp69
F3
s(S'PP'
S'PDP'
tp70
F111
s(S'CP'
p71
S'CCADVADVDP'
tp72
F1
s(S'VP'
p73
S'VAMP'
tp74
F1
s(S'NP'
S'ADVNVVP'
tp75
F1
s(S'DP'
S'ADVDADVAPP'
tp76
F1
s(S'DP'
S'ADVDADVVVVP'
tp77
F1
s(S'VP'
S'VVADVNP'
tp78
F1
s(S'MP'
S'MMMVVP'
tp79
F1
s(S'AP'
p80
S'ADVADVAMP'
tp81
F1
s(S'DP'
p82
S'DPPPP'
tp83
F6
s(S'DP'
p84
S'DDANP'
tp85
F4
s(S'DP'
S'ADNNNP'
tp86
F1
s(S'NP'
p87
S'NACP'
tp88
F5
s(g66
S'NCCP'
tp89
F28
s(S'NP'
p90
S'NNCP'
tp91
F27
s(S'NP'
S'AANPPP'
tp92
F1
s(S'NP'
S'NADVADVVP'
tp93
F1
s(S'DP'
p94
S'DDDDP'
tp95
F1
s(S'VP'
S'AVNP'
tp96
F3
s(S'VP'
S'VVADP'
tp97
F2
s(S'NP'
S'NNNNADVVVP'
tp98
F1
s(S'PP'
p99
S'AAPPAP'
tp100
F1
s(S'DP'
p101
S'DDAVVP'
tp102
F1
s(g16
S'ADVPVVP'
tp103
F2
s(S'PP'
S'ADVAPVP'
tp104
F1
s(S'CP'
S'CCCDP'
tp105
F3
s(S'VP'
p106
S'AVNNP'
tp107
F1
s(S'PP'
p108
S'APDP'
tp109
F9
s(S'AP'
S'AADVACP'
tp110
F1
s(g68
S'VVANP'
tp111
F1
s(S'VP'
S'VVVVDP'
tp112
F1
s(S'VP'
S'ADVVVP'
tp113
F1
s(S'NP'
S'ADVNCCP'
tp114
F1
s(S'PP'
S'PAAP'
tp115
F9
s(S'NP'
S'NANP'
tp116
F1
s(S'PP'
S'ADVADVPAVP'
tp117
F1
s(S'DP'
S'DNNP'
tp118
F27
s(S'CP'
S'CDDPPPP'
tp119
F1
s(S'CP'
S'CCADVDP'
tp120
F2
s(g82
S'ADDNP'
tp121
F1
s(S'NP'
S'NNNVP'
tp122
F2
s(S'PP'
p123
S'PADVVP'
tp124
F9
s(S'CP'
p125
S'CAAADDPPP'
tp126
F1
s(S'PP'
S'APAP'
tp127
F1
s(S'AP'
p128
S'APP'
tp129
F18
s(S'AP'
S'ACCCP'
tp130
F2
s(S'NP'
p131
S'NADVMP'
tp132
F1
s(g99
S'PPADP'
tp133
F4
s(S'CP'
S'CADVADPP'
tp134
F2
s(S'NP'
S'ADVADVNCCP'
tp135
F1
s(S'NP'
S'ADVANPP'
tp136
F1
s(S'MP'
S'MVVCP'
tp137
F1
s(S'DP'
S'DAAVP'
tp138
F1
s(S'PP'
p139
S'PAANP'
tp140
F5
s(S'DP'
S'DDADVADVVP'
tp141
F3
s(g90
S'ANVP'
tp142
F14
s(S'MP'
S'MVNP'
tp143
F5
s(S'CP'
p144
S'ACADDP'
tp145
F1
s(S'AP'
p146
S'ADVAADP'
tp147
F1
s(S'PP'
S'PAVP'
tp148
F5
s(S'MP'
S'ADVMVP'
tp149
F1
s(S'VP'
S'VVVPP'
tp150
F1
s(S'CP'
S'CADVADVADPP'
tp151
F1
s(S'NP'
p152
S'NNNNNMP'
tp153
F1
s(g146
S'ADVADP'
tp154
F3
s(S'CP'
S'ADVADVCDP'
tp155
F1
s(S'PP'
S'APDDP'
tp156
F4
s(S'VP'
S'ADVADVVANP'
tp157
F1
s(g29
S'ADVNAP'
tp158
F1
s(S'VP'
p159
S'ADVVNP'
tp160
F6
s(S'VP'
p161
S'VVNP'
tp162
F14
s(S'PP'
p163
S'PPVP'
tp164
F11
s(S'MP'
S'MVDP'
tp165
F8
s(S'VP'
S'VADVDP'
tp166
F4
s(S'VP'
p167
S'VVADVAP'
tp168
F1
s(S'VP'
S'VAAP'
tp169
F12
s(S'NP'
S'ANDP'
tp170
F11
s(g66
S'NVVP'
tp171
F18
s(S'AP'
S'AAP'
tp172
F7
s(S'VP'
p173
S'VMP'
tp174
F4
s(g159
S'VVNNP'
tp175
F6
s(S'CP'
S'CDAPP'
tp176
F11
s(S'DP'
S'ADVADVP'
tp177
F1
s(S'DP'
p178
S'ADNP'
tp179
F6
s(S'NP'
S'ADVNNAAP'
tp180
F1
s(S'PP'
p181
S'PADP'
tp182
F6
s(S'VP'
S'ADVVVCP'
tp183
F3
s(S'NP'
p184
S'ANDDP'
tp185
F1
s(S'DP'
S'ADVADVDVP'
tp186
F1
s(g41
S'ADVADVPMP'
tp187
F1
s(S'DP'
p188
S'DAPP'
tp189
F19
s(S'VP'
S'ADVADVVMP'
tp190
F1
s(S'VP'
S'ADVADVVPP'
tp191
F1
s(S'VP'
p192
S'VADVAAP'
tp193
F1
s(S'VP'
S'ADVADVVDP'
tp194
F1
s(g139
S'PPPDP'
tp195
F2
s(g178
S'DAAPPP'
tp196
F2
s(S'AP'
S'AAPPP'
tp197
F2
s(S'DP'
S'DAAANP'
tp198
F1
s(S'NP'
S'ANADVVVP'
tp199
F2
s(g101
S'ADVDNP'
tp200
F4
s(g161
S'VVPP'
tp201
F10
s(S'PP'
p202
S'PAVVP'
tp203
F1
s(S'MP'
S'MVPP'
tp204
F7
s(S'DP'
p205
S'ADVP'
tp206
F4
s(S'CP'
p207
S'CDDPPP'
tp208
F6
s(S'PP'
p209
S'AAPMP'
tp210
F1
s(S'NP'
p211
S'NNPP'
tp212
F13
s(g87
S'AAANDP'
tp213
F1
s(S'MP'
S'MVVDP'
tp214
F1
s(S'DP'
S'DADVPPP'
tp215
F1
s(S'PP'
p216
S'PPVVP'
tp217
F3
s(S'DP'
p218
S'DNNNP'
tp219
F6
s(S'PP'
S'PMMP'
tp220
F1
s(S'PP'
S'PVVVP'
tp221
F2
s(g123
S'PMP'
tp222
F9
s(S'NP'
p223
S'NNMMP'
tp224
F1
s(S'CP'
S'CCDP'
tp225
F40
s(S'DP'
S'ADVADVADVDPP'
tp226
F1
s(g29
S'NADVADVADVAP'
tp227
F1
s(S'VP'
S'VADVADVANP'
tp228
F1
s(S'NP'
S'NVVVP'
tp229
F1
s(S'CP'
S'CDDDPP'
tp230
F1
s(S'CP'
S'CDAAPP'
tp231
F1
s(S'VP'
S'VVVDP'
tp232
F4
s(S'PP'
S'AAAPNNP'
tp233
F1
s(g209
S'AAPNP'
tp234
F2
s(S'PP'
S'PADVVVP'
tp235
F1
s(S'PP'
p236
S'PPP'
tp237
F72
s(S'NP'
p238
S'NNADVDP'
tp239
F1
s(g87
S'NAVP'
tp240
F5
s(S'PP'
S'PADVAP'
tp241
F1
s(S'DP'
S'DDNNNP'
tp242
F1
s(S'PP'
p243
S'PPADVADVNP'
tp244
F1
s(S'NP'
S'NCCCP'
tp245
F1
s(S'PP'
S'PPPPDP'
tp246
F1
s(S'VP'
S'VVVVPP'
tp247
F1
s(S'DP'
p248
S'ADVADVDNP'
tp249
F2
s(S'VP'
p250
S'VPP'
tp251
F66
s(S'CP'
S'ADVCCDP'
tp252
F1
s(g66
S'NNNCP'
tp253
F5
s(S'CP'
S'CCCAADP'
tp254
F1
s(S'MP'
S'MADVVAP'
tp255
F1
s(S'CP'
S'CDDPP'
tp256
F27
s(S'DP'
S'DAAPP'
tp257
F3
s(S'PP'
S'PVVP'
tp258
F11
s(S'CP'
S'CADPPP'
tp259
F3
s(S'AP'
S'AACP'
tp260
F13
s(S'NP'
p261
S'NADVMMP'
tp262
F1
s(g106
S'ADVVCP'
tp263
F4
s(S'PP'
S'PPNNNP'
tp264
F1
s(S'PP'
S'PPAP'
tp265
F6
s(g188
S'DVVP'
tp266
F15
s(S'PP'
S'PADVAVP'
tp267
F1
s(S'NP'
S'ANMP'
tp268
F1
s(S'AP'
S'APPP'
tp269
F1
s(g243
S'ADVPPP'
tp270
F2
s(S'NP'
S'ADVADVNVP'
tp271
F1
s(g68
S'VVVP'
tp272
F4
s(S'CP'
S'CADVDPP'
tp273
F10
s(S'NP'
S'ANCP'
tp274
F20
s(g18
S'DCP'
tp275
F1
s(g131
S'ANNCP'
tp276
F1
s(S'NP'
S'AAANCP'
tp277
F1
s(S'DP'
S'DADVADVADVNP'
tp278
F1
s(g82
S'DDDP'
tp279
F9
s(S'DP'
p280
S'DDADVPP'
tp281
F2
s(g261
S'ANVVP'
tp282
F3
s(S'VP'
p283
S'VVDP'
tp284
F21
s(S'NP'
p285
S'NPPP'
tp286
F13
s(S'PP'
S'PPAPP'
tp287
F2
s(S'DP'
S'DAVP'
tp288
F6
s(S'VP'
S'AVVVP'
tp289
F1
s(S'VP'
S'ADVAVCP'
tp290
F1
s(g80
S'ACP'
tp291
F32
s(S'PP'
p292
S'PPNP'
tp293
F35
s(S'AP'
p294
S'ADVACCP'
tp295
F1
s(g101
S'AADVP'
tp296
F1
s(S'CP'
S'CDDADVPP'
tp297
F2
s(S'AP'
S'AAAADVCP'
tp298
F1
s(S'AP'
S'ADP'
tp299
F84
s(S'DP'
p300
S'DDPPPP'
tp301
F3
s(g216
S'APVVP'
tp302
F1
s(S'DP'
S'DVVVVP'
tp303
F1
s(S'AP'
p304
S'AAADP'
tp305
F2
s(g173
S'VVAP'
tp306
F8
s(S'NP'
p307
S'NNAPP'
tp308
F1
s(S'CP'
S'ADVACDP'
tp309
F2
s(S'NP'
S'ADVADVANADVCP'
tp310
F1
s(S'VP'
p311
S'AAVCP'
tp312
F2
s(S'NP'
S'AANNVVP'
tp313
F1
s(S'NP'
p314
S'NNADVCCP'
tp315
F1
s(S'NP'
S'NPP'
tp316
F84
s(g37
S'NNNP'
tp317
F1
s(S'NP'
S'NVP'
tp318
F97
s(S'PP'
S'PPVVVP'
tp319
F1
s(g216
S'PAAVP'
tp320
F3
s(g14
S'AAPPNP'
tp321
F1
s(S'NP'
S'NAAPP'
tp322
F1
s(S'NP'
p323
S'ADVANDDP'
tp324
F1
s(S'MP'
S'ADVMMVP'
tp325
F1
s(S'VP'
p326
S'VDDP'
tp327
F12
s(g294
S'ADVADVADVADP'
tp328
F1
s(S'NP'
S'AANVVP'
tp329
F1
s(S'DP'
S'DADVAPP'
tp330
F1
s(g184
S'NNADVACP'
tp331
F1
s(S'PP'
S'ADVAPAP'
tp332
F1
s(S'NP'
S'ANCCCP'
tp333
F1
s(S'NP'
p334
S'ANPP'
tp335
F22
s(g163
S'PPPPP'
tp336
F4
s(S'MP'
S'MPDP'
tp337
F2
s(g123
S'PPPAAP'
tp338
F1
s(g223
S'NNMMMP'
tp339
F1
s(S'NP'
p340
S'ADVADVANNCP'
tp341
F1
s(S'AP'
S'AADVADVDP'
tp342
F1
s(S'CP'
S'CAADPP'
tp343
F6
s(S'DP'
S'DADVADVVP'
tp344
F1
s(g90
S'NAACP'
tp345
F3
s(g292
S'PNNP'
tp346
F32
s(S'PP'
S'APNNP'
tp347
F1
s(S'DP'
S'AAADPP'
tp348
F1
s(S'DP'
S'AADDADVADVPP'
tp349
F1
s(S'VP'
S'AVAP'
tp350
F1
s(S'MP'
S'MMVP'
tp351
F4
s(S'NP'
S'ADVNCP'
tp352
F2
s(g18
S'ADPP'
tp353
F14
s(S'CP'
S'ACDP'
tp354
F9
s(g285
S'NNDP'
tp355
F14
s(S'NP'
S'NNACP'
tp356
F1
s(S'VP'
p357
S'VAP'
tp358
F43
s(g94
S'DDDPP'
tp359
F4
s(S'NP'
p360
S'AANNCP'
tp361
F1
s(S'PP'
S'ADVPMP'
tp362
F1
s(S'VP'
S'VADVMP'
tp363
F1
s(S'MP'
S'MADVVVNP'
tp364
F1
s(S'AP'
S'AAVVP'
tp365
F1
s(S'VP'
S'ADVAVDP'
tp366
F1
s(S'AP'
S'AAACP'
tp367
F3
s(S'VP'
S'ADVVVDP'
tp368
F2
s(g73
S'VVADVADVANNP'
tp369
F1
s(g243
S'PPPVP'
tp370
F4
s(g167
S'AAVAP'
tp371
F1
s(g304
S'AADDP'
tp372
F1
s(S'VP'
S'VADVADVADVCP'
tp373
F1
s(g44
S'VAANP'
tp374
F3
s(g340
S'NADVADVCP'
tp375
F1
s(S'MP'
S'MPNP'
tp376
F4
s(S'MP'
S'MADP'
tp377
F2
s(S'PP'
p378
S'PANP'
tp379
F19
s(S'PP'
S'PDDDP'
tp380
F1
s(S'DP'
S'ADVADPP'
tp381
F2
s(S'PP'
p382
S'AAPAAP'
tp383
F1
s(g360
S'AANMP'
tp384
F1
s(g128
S'AAVP'
tp385
F2
s(S'NP'
p386
S'NAAP'
tp387
F5
s(S'NP'
p388
S'NDDP'
tp389
F8
s(S'AP'
S'ACCP'
tp390
F4
s(S'VP'
p391
S'AVPPP'
tp392
F2
s(g66
S'NDP'
tp393
F46
s(S'NP'
S'AAANVP'
tp394
F1
s(S'MP'
S'MVAAP'
tp395
F1
s(g84
S'DDVP'
tp396
F10
s(g386
S'ANADVADVDP'
tp397
F1
s(S'NP'
S'AANVP'
tp398
F5
s(S'VP'
S'VNNNP'
tp399
F2
s(S'VP'
S'VADVADVPP'
tp400
F1
s(S'PP'
p401
S'APPNP'
tp402
F1
s(g357
S'ADVVVVMP'
tp403
F1
s(g181
S'PAADP'
tp404
F1
s(S'VP'
S'VPPPP'
tp405
F1
s(g388
S'NNNDP'
tp406
F2
s(S'AP'
S'ADVACP'
tp407
F3
s(S'NP'
S'ADVADVNMP'
tp408
F1
s(S'VP'
S'AVVDP'
tp409
F1
s(S'DP'
S'ADPPP'
tp410
F5
s(S'NP'
S'NNAAVP'
tp411
F1
s(S'MP'
S'MVCP'
tp412
F4
s(S'CP'
S'CCDDP'
tp413
F4
s(S'NP'
S'NNADVVP'
tp414
F1
s(g314
S'ADVANAP'
tp415
F1
s(S'DP'
S'AAADNP'
tp416
F1
s(g178
S'DADVNP'
tp417
F2
s(S'NP'
p418
S'NNNNVP'
tp419
F1
s(g283
S'VVCP'
tp420
F7
s(S'PP'
p421
S'PADVADVPP'
tp422
F1
s(g211
S'AANCP'
tp423
F5
s(g311
S'VADVNP'
tp424
F1
s(S'CP'
S'ADVCAAADDP'
tp425
F1
s(g378
S'APPP'
tp426
F2
s(g68
S'ADVVPP'
tp427
F1
s(S'VP'
S'VVADVANP'
tp428
F1
s(g44
S'VNNP'
tp429
F11
s(S'AP'
S'AADVDP'
tp430
F2
s(S'NP'
S'NNAADDP'
tp431
F1
s(g218
S'DDNP'
tp432
F18
s(S'NP'
S'NADVCP'
tp433
F3
s(g261
S'NNADVAP'
tp434
F1
s(g391
S'ADVADVVADVANP'
tp435
F1
s(S'PP'
S'AAPADVNP'
tp436
F1
s(S'NP'
p437
S'ADVANVP'
tp438
F1
s(S'AP'
S'AADVADP'
tp439
F1
s(S'NP'
p440
S'ADVADVNCP'
tp441
F1
s(S'AP'
S'ADVADDP'
tp442
F1
s(S'DP'
S'AADPP'
tp443
F7
s(S'NP'
S'NNNNPP'
tp444
F1
s(S'VP'
S'VVVVCP'
tp445
F1
s(S'MP'
S'MVVNP'
tp446
F3
s(S'CP'
S'CDDADVPPP'
tp447
F1
s(S'CP'
S'ACDDP'
tp448
F2
s(S'AP'
S'AAPP'
tp449
F1
s(S'MP'
S'MVADVADVPP'
tp450
F1
s(S'PP'
S'PCP'
tp451
F1
s(S'DP'
S'DAAAPP'
tp452
F1
s(g202
S'ADVPANP'
tp453
F1
s(S'VP'
S'VVVCCP'
tp454
F1
s(g285
S'NAPP'
tp455
F7
s(S'NP'
S'ANCCP'
tp456
F3
s(S'NP'
S'AANPP'
tp457
F4
s(S'VP'
S'VDDDP'
tp458
F1
s(S'NP'
S'NNMP'
tp459
F6
s(S'DP'
S'DDDVP'
tp460
F2
s(S'PP'
S'PAAAP'
tp461
F1
s(g401
S'PPPAP'
tp462
F1
s(S'MP'
S'MVAP'
tp463
F2
s(g57
S'PVP'
tp464
F92
s(g39
S'ADVDPP'
tp465
F12
s(S'DP'
p466
S'DADVAVP'
tp467
F1
s(S'NP'
S'ANVVVVP'
tp468
F1
s(S'DP'
S'DVVVP'
tp469
F1
s(S'PP'
S'PPADVPP'
tp470
F1
s(S'NP'
S'ADVADVANVP'
tp471
F1
s(g236
S'PPDDP'
tp472
F4
s(S'VP'
p473
S'AVCP'
tp474
F3
s(g9
S'DDVVVP'
tp475
F2
s(g218
S'DPP'
tp476
F164
s(g238
S'ADVNVP'
tp477
F1
s(g188
S'DDPP'
tp478
F45
s(g248
S'DDADVPPP'
tp479
F1
s(S'DP'
S'DANP'
tp480
F37
s(g87
S'NADVPP'
tp481
F4
s(S'MP'
S'MMAP'
tp482
F2
s(g46
S'NAAVP'
tp483
F3
s(S'PP'
S'ADVPADVAP'
tp484
F1
s(S'DP'
S'ADVADVADPP'
tp485
F1
s(g205
S'AADNP'
tp486
F1
s(S'CP'
S'CADVADVADVDPP'
tp487
F1
s(S'NP'
S'NNNVVP'
tp488
F1
s(g101
S'DCCP'
tp489
F1
s(S'MP'
S'MADVVDP'
tp490
F2
s(S'DP'
S'DDADVNNP'
tp491
F1
s(S'DP'
S'DDADVVP'
tp492
F1
s(g57
S'PDDP'
tp493
F23
s(S'MP'
S'MVDDP'
tp494
F1
s(g39
S'DAANP'
tp495
F13
s(g211
S'NNVP'
tp496
F20
s(S'NP'
S'ADVANNCP'
tp497
F1
s(g192
S'AVDP'
tp498
F6
s(g437
S'NNP'
tp499
F1
s(S'VP'
S'VVDDP'
tp500
F2
s(g307
S'NNNADVVP'
tp501
F1
s(S'AP'
S'ADDP'
tp502
F10
s(g236
S'PNNNNP'
tp503
F2
s(g144
S'CADVADVDPP'
tp504
F1
s(S'CP'
S'ADVADVADVCDP'
tp505
F1
s(g84
S'DPPP'
tp506
F51
s(g466
S'AADPPP'
tp507
F1
s(S'VP'
S'VANNP'
tp508
F2
s(g37
S'NNAVP'
tp509
F1
s(g323
S'NNAAPP'
tp510
F1
s(g280
S'DDNNP'
tp511
F2
s(S'PP'
S'ADVPNP'
tp512
F8
s(g123
S'PPDP'
tp513
F26
s(S'DP'
S'DDCP'
tp514
F1
s(g139
S'PAANNP'
tp515
F1
s(S'AP'
S'ANNP'
tp516
F1
s(S'MP'
S'MMAVP'
tp517
F1
s(g418
S'NAP'
tp518
F40
s(S'NP'
S'NNAAP'
tp519
F1
s(S'VP'
S'VAAAP'
tp520
F1
s(g250
S'VVP'
tp521
F9
s(g152
S'NNVVP'
tp522
F1
s(g421
S'ADVADVPVP'
tp523
F1
s(S'PP'
S'APNP'
tp524
F10
s(S'AP'
S'ADVADVAAP'
tp525
F1
s(S'DP'
S'DDVVP'
tp526
F3
s(g173
S'VVVNP'
tp527
F1
s(S'MP'
S'MNPP'
tp528
F1
s(S'MP'
S'MVANP'
tp529
F1
s(S'MP'
S'MVNNP'
tp530
F2
s(g71
S'CDPP'
tp531
F145
s(S'PP'
S'PAAAADP'
tp532
F1
s(S'AP'
S'ADDDP'
tp533
F2
s(S'DP'
S'ADVDVVP'
tp534
F1
s(g311
S'ADVADVAVCP'
tp535
F1
s(S'CP'
p536
S'ADVCDP'
tp537
F3
s(S'DP'
S'AAADDPP'
tp538
F1
s(S'VP'
S'VADVADVDP'
tp539
F1
s(S'PP'
S'PPNNP'
tp540
F3
s(g16
S'ADVPAVP'
tp541
F1
s(g218
S'ADVADVDPP'
tp542
F3
s(g44
S'VDP'
tp543
F110
s(S'NP'
S'AANVVVVP'
tp544
F1
s(g473
S'AVDDP'
tp545
F2
s(S'DP'
S'DAP'
tp546
F28
s(S'CP'
S'CADPP'
tp547
F13
s(S'DP'
S'ADVADVDVVP'
tp548
F1
s(S'PP'
S'PPAVP'
tp549
F1
s(g34
S'AVPP'
tp550
F4
s(S'CP'
S'CAADPPP'
tp551
F1
s(S'DP'
S'DDNNNNP'
tp552
F1
s(S'VP'
S'VPPP'
tp553
F7
s(S'MP'
S'AMVVP'
tp554
F1
s(g144
S'ADVCADVDP'
tp555
F1
s(g207
S'AACDDP'
tp556
F1
s(g536
S'CDPPPP'
tp557
F3
s(S'NP'
S'ADVNMP'
tp558
F1
s(g311
S'AAVDP'
tp559
F3
s(g223
S'NNDDP'
tp560
F1
s(g300
S'DAPPP'
tp561
F1
s(S'DP'
S'DMP'
tp562
F1
s(S'PP'
S'PPPNP'
tp563
F2
s(S'NP'
S'NADVADVDP'
tp564
F1
s(g382
S'PPAANP'
tp565
F1
s(S'NP'
S'AAANPP'
tp566
F1
s(S'PP'
S'PADVADVNP'
tp567
F3
s(S'AP'
S'AADP'
tp568
F22
s(g323
S'NADVANP'
tp569
F1
s(S'PP'
S'ADVPVP'
tp570
F3
s(S'VP'
S'ADVVANP'
tp571
F3
s(g209
S'ADVPDP'
tp572
F1
s(S'NP'
S'ANNPP'
tp573
F2
s(g211
S'NCP'
tp574
F106
s(g125
S'CADVDPPP'
tp575
F2
s(g326
S'ADVVVPP'
tp576
F2
s(S'MP'
S'MAAVNNP'
tp577
F1
s(S'AP'
S'AAAP'
tp578
F1
s(S'PP'
S'PPAAAP'
tp579
F1
s(S'DP'
S'AAAADNP'
tp580
F1
s(g54
S'AANDP'
tp581
F2
s(g29
S'NNCCP'
tp582
F4
s(S'MP'
p583
S'MNVP'
tp584
F2
s(S'NP'
S'AANCCP'
tp585
F1
s(g108
S'PADVADVAP'
tp586
F1
s(S'VP'
S'VAPP'
tp587
F4
s(S'NP'
S'NPPPPP'
tp588
F1
s(S'VP'
S'ADVVDP'
tp589
F11
s(g159
S'VADDP'
tp590
F1
s(S'PP'
S'APADVNP'
tp591
F1
s(S'DP'
S'DADVPP'
tp592
F12
s(S'NP'
S'ADVADVADVNAVP'
tp593
F1
s(S'AP'
S'AMP'
tp594
F5
s(S'CP'
S'CCADP'
tp595
F2
s(S'PP'
S'ADVPPVVP'
tp596
F1
s(S'CP'
S'AACDP'
tp597
F4
s(S'CP'
S'CCDDDP'
tp598
F1
s(S'DP'
S'DDDDAPP'
tp599
F1
s(g25
S'ADVDPPP'
tp600
F2
s(g188
S'DVP'
tp601
F97
s(S'VP'
S'ADVVAP'
tp602
F2
s(g440
S'ADVNPP'
tp603
F1
s(g128
S'AVP'
tp604
F13
s(g334
S'NADVVP'
tp605
F7
s(S'CP'
S'CDAAAPP'
tp606
F1
s(g82
S'DDPPP'
tp607
F9
s(g583
S'MDAANP'
tp608
F1
s(S'NP'
S'NNAP'
tp609
F1
s(S'MP'
S'MADVVCP'
tp610
F1
s(S'VP'
S'VVADVADVDP'
tp611
F1
s(S'CP'
S'CDADVPP'
tp612
F10
s(g283
S'VNP'
tp613
F74
s(g250
S'VANP'
tp614
F11
s(g311
S'VADVAP'
tp615
F5
s(S'PP'
S'PPADVNP'
tp616
F1
s(S'VP'
S'VVVAP'
tp617
F1
s.