ccollections
defaultdict
p1
(c__builtin__
float
p2
tRp3
(S'CP'
p4
S'CCDDDDP'
tp5
F1
s(S'DP'
p6
S'DAANNP'
tp7
F1
s(S'PP'
p8
S'PAPP'
tp9
F4
s(S'PP'
p10
S'PADVNP'
tp11
F1
s(S'DP'
p12
S'DNP'
tp13
F64
s(S'NP'
p14
S'ADVNDP'
tp15
F1
s(S'CP'
p16
S'CDPPP'
tp17
F21
s(S'VP'
S'VADP'
tp18
F3
s(S'DP'
p19
S'DNNNNP'
tp20
F3
s(S'DP'
S'DAAP'
tp21
F2
s(S'VP'
p22
S'VADVADVADVAP'
tp23
F1
s(S'PP'
p24
S'APPDP'
tp25
F1
s(S'PP'
p26
S'APVP'
tp27
F6
s(S'MP'
S'MVDP'
tp28
F8
s(S'NP'
p29
S'AANNPP'
tp30
F1
s(S'PP'
p31
S'PPPP'
tp32
F11
s(S'DP'
S'DADVVP'
tp33
F2
s(S'NP'
S'NDDDP'
tp34
F1
s(S'NP'
p35
S'NCCCP'
tp36
F1
s(S'CP'
S'CADVDAPP'
tp37
F1
s(S'VP'
p38
S'VCP'
tp39
F21
s(S'NP'
p40
S'NMMP'
tp41
F3
s(S'PP'
p42
S'PAP'
tp43
F22
s(S'VP'
S'VADVNP'
tp44
F2
s(g10
S'APVVP'
tp45
F2
s(S'VP'
S'AAVNNP'
tp46
F2
s(g26
S'PNP'
tp47
F60
s(S'DP'
p48
S'DDP'
tp49
F11
s(S'NP'
p50
S'NNDP'
tp51
F7
s(S'CP'
p52
S'ADVCADVADP'
tp53
F1
s(S'CP'
p54
S'AACCDP'
tp55
F1
s(S'NP'
p56
S'NMP'
tp57
F13
s(S'NP'
S'ADVNCCP'
tp58
F1
s(S'VP'
S'AAVNP'
tp59
F2
s(S'PP'
p60
S'PDP'
tp61
F66
s(S'VP'
S'VNNNNP'
tp62
F1
s(S'DP'
p63
S'ADVDAPPP'
tp64
F1
s(g14
S'NACCP'
tp65
F2
s(S'PP'
p66
S'PADVPP'
tp67
F1
s(S'VP'
p68
S'AAVPP'
tp69
F1
s(S'VP'
p70
S'VVADVNP'
tp71
F1
s(S'DP'
p72
S'DPPPP'
tp73
F1
s(S'PP'
p74
S'PADVADP'
tp75
F1
s(S'NP'
p76
S'NACP'
tp77
F8
s(S'AP'
p78
S'ADVAVP'
tp79
F2
s(S'NP'
p80
S'NCCP'
tp81
F15
s(S'AP'
S'AAAADP'
tp82
F1
s(S'NP'
p83
S'NNCP'
tp84
F16
s(S'DP'
p85
S'DDAPP'
tp86
F1
s(S'VP'
p87
S'AVNP'
tp88
F5
s(g70
S'VVADP'
tp89
F1
s(S'NP'
S'NNNNVVVVP'
tp90
F1
s(S'NP'
p91
S'NNNNADVVVP'
tp92
F1
s(g66
S'ADVPVVP'
tp93
F1
s(S'DP'
S'ADADVNP'
tp94
F1
s(S'VP'
S'VADVVP'
tp95
F1
s(S'MP'
S'MVAPP'
tp96
F1
s(S'CP'
p97
S'CCCDP'
tp98
F3
s(S'VP'
p99
S'VCCCP'
tp100
F1
s(g26
S'APDP'
tp101
F5
s(S'AP'
S'AADVCP'
tp102
F1
s(g87
S'VVANP'
tp103
F1
s(S'NP'
S'NNADVDP'
tp104
F1
s(S'MP'
S'MADVVNP'
tp105
F1
s(S'PP'
p106
S'PAAP'
tp107
F2
s(S'DP'
S'DNNP'
tp108
F16
s(S'NP'
p109
S'NNNVP'
tp110
F2
s(S'PP'
S'APAP'
tp111
F1
s(S'AP'
S'APP'
tp112
F9
s(S'PP'
p113
S'PPADP'
tp114
F1
s(S'VP'
p115
S'VADVADVVP'
tp116
F1
s(S'CP'
p117
S'CADVADPP'
tp118
F2
s(S'NP'
S'ADVADVNDP'
tp119
F1
s(S'DP'
p120
S'DAAAPP'
tp121
F1
s(g80
S'ADVANPP'
tp122
F1
s(S'DP'
p123
S'DAAVP'
tp124
F3
s(g60
S'PAANP'
tp125
F2
s(S'PP'
S'PPVVP'
tp126
F5
s(S'MP'
p127
S'MVNP'
tp128
F6
s(g31
S'PAVP'
tp129
F6
s(S'VP'
S'VVVPP'
tp130
F1
s(g123
S'DADP'
tp131
F1
s(g63
S'DAAAPPP'
tp132
F1
s(S'VP'
p133
S'VVVVAAP'
tp134
F1
s(S'DP'
p135
S'ADVDDP'
tp136
F1
s(S'VP'
S'ADVADVVVNP'
tp137
F1
s(S'VP'
p138
S'ADVVNP'
tp139
F4
s(S'VP'
S'VVNP'
tp140
F13
s(S'PP'
S'PPVP'
tp141
F16
s(S'VP'
S'VADVDP'
tp142
F2
s(g70
S'VAAP'
tp143
F4
s(S'NP'
p144
S'ANDP'
tp145
F8
s(S'NP'
S'NVVP'
tp146
F10
s(S'PP'
p147
S'AAPVP'
tp148
F2
s(S'AP'
S'AAP'
tp149
F2
s(g68
S'VMP'
tp150
F1
s(S'VP'
S'VVNNP'
tp151
F4
s(S'CP'
S'CDAPP'
tp152
F2
s(S'VP'
S'VVAAP'
tp153
F1
s(S'DP'
p154
S'ADNP'
tp155
F4
s(g135
S'ADVDDPPP'
tp156
F1
s(g106
S'PADP'
tp157
F3
s(S'NP'
p158
S'ADVNADVVP'
tp159
F1
s(g6
S'DAPP'
tp160
F6
s(S'PP'
S'ADVADVADVPPP'
tp161
F1
s(S'VP'
S'ADVADVVDP'
tp162
F1
s(S'DP'
p163
S'DAAPPP'
tp164
F1
s(S'VP'
p165
S'VAAPP'
tp166
F1
s(S'DP'
p167
S'ADVDNP'
tp168
F2
s(g38
S'VVPP'
tp169
F11
s(S'DP'
S'ADADVPP'
tp170
F1
s(S'CP'
S'AACDDP'
tp171
F1
s(S'DP'
S'ADVP'
tp172
F3
s(S'CP'
S'CDDPPP'
tp173
F4
s(g83
S'NNPP'
tp174
F8
s(g83
S'ANVP'
tp175
F4
s(g163
S'DNNNP'
tp176
F4
s(S'PP'
p177
S'PVVVP'
tp178
F4
s(g42
S'PMP'
tp179
F7
s(S'CP'
S'CCDP'
tp180
F27
s(S'NP'
S'ADVADVADVNCP'
tp181
F1
s(S'CP'
p182
S'CDDDPP'
tp183
F2
s(S'CP'
p184
S'CDAAPP'
tp185
F1
s(S'VP'
S'VVVDP'
tp186
F2
s(S'PP'
p187
S'PNNNP'
tp188
F2
s(g187
S'AAPNP'
tp189
F2
s(g31
S'PPP'
tp190
F27
s(S'NP'
p191
S'NNVVP'
tp192
F5
s(S'NP'
S'NAVP'
tp193
F5
s(S'CP'
S'CADVDPPPP'
tp194
F1
s(S'DP'
S'ADVDVP'
tp195
F2
s(S'NP'
p196
S'NAAAP'
tp197
F1
s(S'DP'
p198
S'ADVADVDNP'
tp199
F1
s(S'CP'
S'CADPP'
tp200
F5
s(g165
S'VPP'
tp201
F29
s(S'DP'
S'ADVDPPPP'
tp202
F1
s(S'CP'
S'ACCDP'
tp203
F2
s(S'PP'
S'PADVDP'
tp204
F4
s(S'CP'
S'CDADVAPP'
tp205
F1
s(g16
S'CDDPP'
tp206
F24
s(S'DP'
p207
S'DAAPP'
tp208
F2
s(S'PP'
S'PVVP'
tp209
F8
s(g133
S'ADVVCP'
tp210
F1
s(g70
S'VPPP'
tp211
F5
s(g99
S'AVCCP'
tp212
F1
s(S'VP'
S'VVPPP'
tp213
F1
s(S'PP'
S'PPAP'
tp214
F5
s(g207
S'DVVP'
tp215
F16
s(g196
S'ANMP'
tp216
F1
s(S'AP'
p217
S'APPP'
tp218
F1
s(S'PP'
p219
S'ADVPPP'
tp220
F1
s(S'VP'
S'VVVP'
tp221
F2
s(g117
S'CADVDPP'
tp222
F2
s(S'VP'
p223
S'ADVVVAANP'
tp224
F1
s(g50
S'ANCP'
tp225
F10
s(g207
S'DCP'
tp226
F3
s(S'DP'
S'DADVADVADVNP'
tp227
F1
s(g163
S'DDDP'
tp228
F3
s(g167
S'DDADVPP'
tp229
F2
s(S'NP'
p230
S'ANNVVP'
tp231
F2
s(S'NP'
S'ANVVP'
tp232
F2
s(g230
S'NVVVVP'
tp233
F1
s(S'NP'
p234
S'NPPP'
tp235
F8
s(g26
S'PPAPP'
tp236
F1
s(g6
S'DAVP'
tp237
F2
s(g56
S'NNNMP'
tp238
F1
s(g78
S'ACP'
tp239
F10
s(g42
S'PPNP'
tp240
F19
s(g158
S'NAADP'
tp241
F1
s(S'DP'
S'ADVDAPP'
tp242
F1
s(S'DP'
S'AADVP'
tp243
F2
s(g70
S'VAANNP'
tp244
F1
s(S'CP'
S'CDDADVPP'
tp245
F2
s(S'AP'
S'ADP'
tp246
F45
s(g54
S'CADVDDPPP'
tp247
F1
s(S'VP'
p248
S'AAAVDP'
tp249
F2
s(S'AP'
S'AAADP'
tp250
F2
s(S'PP'
S'PCCCP'
tp251
F1
s(g70
S'VVAP'
tp252
F5
s(g234
S'NNAPP'
tp253
F1
s(S'CP'
p254
S'CDDDAPP'
tp255
F1
s(g191
S'NPP'
tp256
F56
s(S'NP'
p257
S'NADVANP'
tp258
F1
s(S'PP'
S'PPVVVP'
tp259
F1
s(g219
S'PAAVP'
tp260
F2
s(g31
S'AAPPNP'
tp261
F1
s(g158
S'NAAPP'
tp262
F1
s(S'VP'
S'VDDP'
tp263
F8
s(S'AP'
p264
S'ADVADVADVADP'
tp265
F1
s(g14
S'AANNVP'
tp266
F2
s(S'DP'
S'DADVAPP'
tp267
F1
s(S'NP'
S'NADVADVVVP'
tp268
F1
s(g76
S'ANPP'
tp269
F5
s(g66
S'ADVPPDP'
tp270
F1
s(S'PP'
p271
S'PPPPP'
tp272
F4
s(S'MP'
S'MVVPP'
tp273
F1
s(S'PP'
p274
S'PPPNP'
tp275
F1
s(S'NP'
S'NPPPP'
tp276
F1
s(S'CP'
S'CAADPP'
tp277
F1
s(g40
S'NAACP'
tp278
F2
s(S'PP'
S'PNNP'
tp279
F22
s(g177
S'APNNP'
tp280
F2
s(S'MP'
S'MMVP'
tp281
F4
s(g56
S'ADVNCP'
tp282
F4
s(S'DP'
S'ADPP'
tp283
F8
s(S'MP'
p284
S'MPDDP'
tp285
F1
s(S'CP'
S'ACDP'
tp286
F7
s(S'VP'
p287
S'VCCP'
tp288
F3
s(g60
S'PAAAVP'
tp289
F2
s(S'VP'
S'VAP'
tp290
F27
s(g48
S'DDDPP'
tp291
F4
s(g14
S'AANNCP'
tp292
F2
s(g74
S'ADVPMP'
tp293
F1
s(g147
S'PAAPP'
tp294
F1
s(S'VP'
S'ADVVVDP'
tp295
F2
s(S'AP'
S'AADDP'
tp296
F2
s(g97
S'ADVADVACCADVDP'
tp297
F1
s(g70
S'VVDP'
tp298
F14
s(g127
S'MADP'
tp299
F1
s(S'DP'
S'DDADVNP'
tp300
F1
s(S'PP'
S'PANP'
tp301
F6
s(S'AP'
p302
S'AAVP'
tp303
F2
s(S'AP'
S'AVVP'
tp304
F1
s(g56
S'NDDP'
tp305
F8
s(S'AP'
p306
S'ACCP'
tp307
F5
s(S'NP'
p308
S'NDP'
tp309
F31
s(S'NP'
p310
S'NNNNVVP'
tp311
F1
s(S'NP'
p312
S'NNADVADVDP'
tp313
F1
s(S'PP'
S'PPPVVVP'
tp314
F1
s(g154
S'DDVP'
tp315
F4
s(S'NP'
S'AANVP'
tp316
F1
s(g31
S'PPADVANP'
tp317
F1
s(S'VP'
S'VNNNP'
tp318
F2
s(g106
S'PCP'
tp319
F2
s(g29
S'NNPPP'
tp320
F3
s(S'PP'
S'PAADP'
tp321
F1
s(g284
S'MVNNNP'
tp322
F1
s(g80
S'NNNDP'
tp323
F2
s(S'AP'
S'ADVACP'
tp324
F1
s(S'VP'
p325
S'VVVAP'
tp326
F1
s(g120
S'ADPPP'
tp327
F1
s(S'MP'
S'MVCP'
tp328
F2
s(g184
S'CCDDP'
tp329
F8
s(S'NP'
S'NAAP'
tp330
F4
s(g310
S'NAACCP'
tp331
F1
s(g187
S'PPAAP'
tp332
F1
s(S'NP'
p333
S'NNNNVP'
tp334
F1
s(g38
S'VVCP'
tp335
F4
s(g144
S'AANCP'
tp336
F2
s(g248
S'VDP'
tp337
F57
s(S'NP'
S'NNDDP'
tp338
F2
s(g223
S'ADVVPP'
tp339
F2
s(S'NP'
S'NAAAAP'
tp340
F1
s(S'VP'
S'VNNP'
tp341
F8
s(g14
S'NADP'
tp342
F1
s(g19
S'DDNP'
tp343
F16
s(S'NP'
S'NADVCP'
tp344
F3
s(S'DP'
S'DDNNP'
tp345
F4
s(g257
S'ADVANVP'
tp346
F1
s(g271
S'APCP'
tp347
F1
s(S'DP'
S'AADPP'
tp348
F3
s(S'VP'
S'VVVAAP'
tp349
F1
s(S'VP'
S'VVVVCP'
tp350
F1
s(S'CP'
S'CDDADVPPP'
tp351
F1
s(g254
S'ACDDP'
tp352
F1
s(S'AP'
S'AAPP'
tp353
F3
s(S'VP'
S'VVCCP'
tp354
F3
s(S'DP'
S'DADVVVP'
tp355
F1
s(S'DP'
S'DADVADVNP'
tp356
F1
s(g308
S'NAPP'
tp357
F2
s(g312
S'NADVDP'
tp358
F1
s(g52
S'ADVCCADP'
tp359
F1
s(g14
S'ANCCP'
tp360
F2
s(g91
S'AANPP'
tp361
F3
s(g14
S'NNMP'
tp362
F3
s(S'DP'
S'DDDVP'
tp363
F1
s(S'PP'
S'PAAAP'
tp364
F1
s(S'MP'
S'MVAP'
tp365
F1
s(g26
S'PVP'
tp366
F56
s(S'DP'
S'DADVAVP'
tp367
F1
s(S'NP'
S'ANNCP'
tp368
F1
s(g12
S'DPP'
tp369
F83
s(g196
S'ADVNVP'
tp370
F4
s(S'DP'
S'DDDVVP'
tp371
F1
s(S'DP'
p372
S'DDPP'
tp373
F31
s(S'DP'
S'DDADVPPP'
tp374
F1
s(g12
S'DANP'
tp375
F9
s(S'NP'
S'NADVPP'
tp376
F3
s(S'VP'
S'VVVVANNP'
tp377
F1
s(S'PP'
S'PDDDP'
tp378
F1
s(S'AP'
S'AAAAPP'
tp379
F1
s(g50
S'NNNNCP'
tp380
F4
s(g333
S'NADVCCP'
tp381
F1
s(g35
S'NNNVVP'
tp382
F2
s(g198
S'DCCP'
tp383
F1
s(S'PP'
p384
S'AAPDP'
tp385
F1
s(g72
S'ADVADPP'
tp386
F4
s(g70
S'AVVDP'
tp387
F1
s(g31
S'PDDP'
tp388
F13
s(S'NP'
S'NNVP'
tp389
F13
s(g113
S'APAAP'
tp390
F1
s(g165
S'AVDP'
tp391
F7
s(S'NP'
S'NNP'
tp392
F2
s(S'VP'
p393
S'VVDDP'
tp394
F1
s(S'DP'
S'DAANP'
tp395
F3
s(g217
S'ADDP'
tp396
F4
s(g219
S'PNNNNP'
tp397
F2
s(S'VP'
S'ADVAVVVP'
tp398
F1
s(g372
S'DPPP'
tp399
F28
s(g154
S'DAVVP'
tp400
F1
s(g196
S'NNAVP'
tp401
F2
s(g8
S'ADVPNP'
tp402
F4
s(g31
S'PPDP'
tp403
F14
s(S'MP'
S'MAVDP'
tp404
F1
s(g8
S'PAANNP'
tp405
F3
s(g144
S'NAP'
tp406
F21
s(g38
S'VVP'
tp407
F14
s(g207
S'DADVNP'
tp408
F4
s(S'PP'
S'APNP'
tp409
F2
s(g85
S'DDDAPP'
tp410
F1
s(g207
S'DDVVP'
tp411
F4
s(g70
S'VVVNP'
tp412
F2
s(S'MP'
S'MVANP'
tp413
F2
s(S'CP'
S'CDPP'
tp414
F71
s(g302
S'ADDDP'
tp415
F1
s(S'CP'
S'ADVCADP'
tp416
F1
s(S'CP'
S'ADVCDP'
tp417
F2
s(g115
S'ADVADVVNP'
tp418
F1
s(g312
S'ADVADVADVNAP'
tp419
F1
s(S'PP'
S'PPNNP'
tp420
F3
s(S'PP'
S'ADVAPPP'
tp421
F1
s(S'VP'
S'VAADP'
tp422
F2
s(g76
S'NADVAP'
tp423
F1
s(S'VP'
S'AVDDP'
tp424
F1
s(S'DP'
S'DAP'
tp425
F4
s(S'VP'
p426
S'VAAAAP'
tp427
F1
s(S'PP'
S'PPAVP'
tp428
F2
s(S'VP'
p429
S'AVPP'
tp430
F3
s(S'MP'
S'MPAANP'
tp431
F1
s(g325
S'VVADVDP'
tp432
F1
s(g426
S'VADVADVADVNP'
tp433
F1
s(S'DP'
S'AADNNP'
tp434
F1
s(g384
S'APPP'
tp435
F1
s(g372
S'DMP'
tp436
F2
s(g72
S'ADVDPP'
tp437
F5
s(g24
S'AAAPPNP'
tp438
F1
s(g306
S'AADP'
tp439
F13
s(g333
S'NNADVVVP'
tp440
F1
s(S'NP'
S'NVP'
tp441
F45
s(g22
S'VADVPP'
tp442
F1
s(S'DP'
S'ADVDANP'
tp443
F1
s(g384
S'PVVVVP'
tp444
F1
s(S'PP'
S'ADVPVP'
tp445
F3
s(S'DP'
S'DDDDPP'
tp446
F1
s(g14
S'NNVVVP'
tp447
F1
s(g429
S'ADVVANP'
tp448
F2
s(g147
S'ADVPDP'
tp449
F2
s(g308
S'NCP'
tp450
F56
s(g274
S'AAAPNP'
tp451
F1
s(g264
S'AAAP'
tp452
F1
s(S'DP'
S'DADVNNP'
tp453
F1
s(S'NP'
S'NNCCP'
tp454
F8
s(S'VP'
S'VAPP'
tp455
F4
s(g287
S'ADVVDP'
tp456
F3
s(S'DP'
S'DDADVADVADVPP'
tp457
F1
s(g154
S'DADVPP'
tp458
F5
s(S'CP'
S'CCADP'
tp459
F1
s(S'NP'
S'ADVNNCP'
tp460
F1
s(S'NP'
S'NNNPPP'
tp461
F1
s(g182
S'AACDP'
tp462
F1
s(g109
S'NNNCCP'
tp463
F1
s(g4
S'CCDDDP'
tp464
F1
s(g35
S'NADVADVACCP'
tp465
F1
s(g12
S'DVP'
tp466
F50
s(g306
S'AVP'
tp467
F8
s(S'NP'
S'NADVVP'
tp468
F4
s(S'DP'
S'DDPPP'
tp469
F8
s(g196
S'NNAP'
tp470
F4
s(S'PP'
S'PPANP'
tp471
F2
s(S'CP'
S'CDADVPP'
tp472
F1
s(g138
S'VNP'
tp473
F47
s(S'PP'
S'ADVPMMP'
tp474
F1
s(g393
S'VANP'
tp475
F7
s(S'PP'
S'PPADVNP'
tp476
F1
s.