ccollections
defaultdict
p1
(c__builtin__
float
p2
tRp3
(S'PP'
p4
S'ADVADVPPAP'
tp5
F2
s(S'DP'
S'DDAP'
tp6
F1
s(S'VP'
S'VVVVP'
tp7
F3
s(S'PP'
S'PAPP'
tp8
F4
s(S'PP'
S'PADVNP'
tp9
F4
s(S'DP'
S'DNP'
tp10
F102
s(S'CP'
S'CDPPP'
tp11
F25
s(S'VP'
p12
S'VADP'
tp13
F7
s(S'CP'
S'CDAAPPP'
tp14
F1
s(S'DP'
p15
S'ADNNP'
tp16
F3
s(S'VP'
p17
S'AVADVDP'
tp18
F2
s(S'PP'
S'APVP'
tp19
F8
s(S'MP'
p20
S'MVDP'
tp21
F13
s(S'PP'
p22
S'PPPP'
tp23
F13
s(S'DP'
p24
S'DDDNP'
tp25
F3
s(S'VP'
p26
S'VACP'
tp27
F2
s(S'DP'
S'DADVVP'
tp28
F6
s(S'AP'
S'AADVPP'
tp29
F1
s(S'NP'
S'NDDDP'
tp30
F1
s(S'NP'
S'NCCCP'
tp31
F3
s(S'VP'
S'VCP'
tp32
F44
s(S'NP'
p33
S'NMMP'
tp34
F3
s(S'VP'
S'ADVVCCP'
tp35
F1
s(S'PP'
p36
S'ADVPADP'
tp37
F1
s(S'PP'
S'PAP'
tp38
F64
s(S'MP'
p39
S'MMVVP'
tp40
F2
s(S'NP'
S'NNNAP'
tp41
F1
s(S'VP'
S'ADVADVVPPP'
tp42
F1
s(S'PP'
S'PNP'
tp43
F128
s(S'DP'
S'ADDP'
tp44
F1
s(S'DP'
p45
S'DDP'
tp46
F33
s(S'VP'
S'ADVVDDP'
tp47
F1
s(S'NP'
p48
S'NNNPP'
tp49
F1
s(S'VP'
p50
S'VCCP'
tp51
F14
s(S'CP'
S'AACCDP'
tp52
F1
s(S'NP'
p53
S'NMP'
tp54
F44
s(S'MP'
S'MAVDDP'
tp55
F1
s(S'DP'
p56
S'ADCP'
tp57
F1
s(S'VP'
p58
S'AAVNP'
tp59
F2
s(S'PP'
S'PDP'
tp60
F114
s(S'CP'
S'CCADVADVDP'
tp61
F1
s(S'PP'
S'PPADVVP'
tp62
F1
s(S'NP'
S'ADVNVVP'
tp63
F1
s(S'CP'
S'CDADVADVPPP'
tp64
F1
s(S'VP'
S'AVAAP'
tp65
F1
s(S'AP'
S'ANP'
tp66
F1
s(S'PP'
p67
S'PADVPP'
tp68
F4
s(S'PP'
S'PPADVAP'
tp69
F1
s(S'DP'
p70
S'DPPPP'
tp71
F5
s(S'DP'
p72
S'DDANP'
tp73
F1
s(S'DP'
S'ADNNNP'
tp74
F1
s(S'NP'
S'NACP'
tp75
F6
s(g53
S'NCCP'
tp76
F29
s(S'DP'
S'DADVADVVVP'
tp77
F1
s(S'AP'
S'AAAADP'
tp78
F1
s(S'NP'
p79
S'NNCP'
tp80
F30
s(S'DP'
p81
S'ADVDDPP'
tp82
F3
s(S'DP'
S'DDDDP'
tp83
F2
s(g12
S'AVNP'
tp84
F8
s(S'VP'
S'VVADP'
tp85
F1
s(S'PP'
p86
S'AAPPAP'
tp87
F1
s(g67
S'ADVPVVP'
tp88
F1
s(S'VP'
S'VADVVP'
tp89
F1
s(g36
S'ADVPADVDP'
tp90
F1
s(S'CP'
S'CCCDP'
tp91
F4
s(S'VP'
p92
S'ADVVAP'
tp93
F1
s(S'PP'
S'ADVPCCP'
tp94
F1
s(S'PP'
p95
S'APDP'
tp96
F14
s(S'VP'
S'ADVVNNP'
tp97
F1
s(S'AP'
p98
S'AADVCP'
tp99
F1
s(S'PP'
p100
S'ADVPNNP'
tp101
F1
s(S'VP'
S'ADVVVP'
tp102
F1
s(g20
S'MADVVNP'
tp103
F3
s(S'PP'
S'PAAP'
tp104
F13
s(S'NP'
S'NANP'
tp105
F1
s(S'DP'
p106
S'DNNP'
tp107
F29
s(S'CP'
S'CADVDDPP'
tp108
F2
s(S'NP'
p109
S'NNADVPP'
tp110
F2
s(S'CP'
S'CDDPPPP'
tp111
F1
s(S'CP'
S'CCADVDP'
tp112
F3
s(S'NP'
S'NNNVP'
tp113
F3
s(S'VP'
p114
S'VDP'
tp115
F115
s(S'PP'
S'PADVVP'
tp116
F5
s(S'PP'
S'APAP'
tp117
F1
s(S'CP'
S'ADVADVCDP'
tp118
F2
s(g53
S'NADVMP'
tp119
F2
s(g67
S'PPADP'
tp120
F1
s(S'VP'
S'VADVADVVP'
tp121
F1
s(S'NP'
S'ADVADVNDP'
tp122
F1
s(S'MP'
S'MVVCP'
tp123
F2
s(S'DP'
S'DAAVP'
tp124
F1
s(S'NP'
S'ANVP'
tp125
F6
s(g20
S'MVNP'
tp126
F12
s(S'MP'
S'ADVADVADVMVP'
tp127
F1
s(S'PP'
S'PAVP'
tp128
F6
s(g20
S'ADVMVP'
tp129
F3
s(g36
S'ADVAPNNP'
tp130
F1
s(S'CP'
S'CADVADVADPP'
tp131
F1
s(S'MP'
S'MADVVPP'
tp132
F2
s(S'DP'
S'DADP'
tp133
F1
s(S'AP'
p134
S'ADVADP'
tp135
F7
s(S'AP'
S'APP'
tp136
F21
s(g67
S'APDDP'
tp137
F1
s(S'DP'
S'DAAAVP'
tp138
F1
s(S'VP'
p139
S'ADVVNP'
tp140
F9
s(g33
S'ADVNADVMP'
tp141
F1
s(S'MP'
S'MNCP'
tp142
F1
s(S'VP'
S'VVNP'
tp143
F20
s(S'PP'
S'ADVPAVP'
tp144
F1
s(S'PP'
p145
S'PPVP'
tp146
F24
s(g17
S'VADVDP'
tp147
F2
s(S'VP'
S'VAAP'
tp148
F8
s(S'NP'
S'ANDP'
tp149
F5
s(g53
S'NVVP'
tp150
F23
s(g22
S'AAPVP'
tp151
F3
s(S'AP'
S'AAP'
tp152
F6
s(S'VP'
p153
S'VMP'
tp154
F1
s(g92
S'VVNNP'
tp155
F3
s(S'CP'
S'CDAPP'
tp156
F10
s(S'VP'
p157
S'VVAAP'
tp158
F3
s(S'DP'
p159
S'ADNP'
tp160
F10
s(S'PP'
p161
S'PADP'
tp162
F7
s(S'NP'
S'ANDDP'
tp163
F1
s(S'DP'
S'ADVADVDVP'
tp164
F2
s(g159
S'DAPP'
tp165
F18
s(g157
S'AVVNP'
tp166
F1
s(S'PP'
S'PPPDP'
tp167
F2
s(S'DP'
p168
S'DAAPPP'
tp169
F1
s(S'VP'
p170
S'ADVADVVVAP'
tp171
F1
s(g72
S'ADVDNP'
tp172
F3
s(S'VP'
p173
S'VVPP'
tp174
F7
s(S'PP'
p175
S'PAVVP'
tp176
F1
s(S'MP'
S'MVPP'
tp177
F5
s(S'AP'
S'AADVADVVP'
tp178
F1
s(S'MP'
S'MVADP'
tp179
F1
s(S'CP'
p180
S'CDDPPP'
tp181
F2
s(S'NP'
p182
S'NNPP'
tp183
F18
s(S'NP'
p184
S'NADVADVDP'
tp185
F1
s(S'MP'
S'MVVDP'
tp186
F2
s(S'DP'
p187
S'DNNNP'
tp188
F3
s(S'PP'
S'PADVADVVP'
tp189
F2
s(S'VP'
p190
S'VADVDDP'
tp191
F1
s(g67
S'PMMP'
tp192
F1
s(S'PP'
S'PVVVP'
tp193
F1
s(S'PP'
p194
S'PMP'
tp195
F9
s(S'CP'
p196
S'CCDP'
tp197
F45
s(S'MP'
p198
S'AMVP'
tp199
F1
s(S'NP'
S'NVVVP'
tp200
F1
s(S'CP'
S'CDDDPP'
tp201
F1
s(S'CP'
S'CDAAPP'
tp202
F4
s(S'VP'
S'VVVDP'
tp203
F1
s(S'PP'
S'PNNNP'
tp204
F1
s(g173
S'AVDDP'
tp205
F2
s(S'VP'
S'ADVVVDP'
tp206
F1
s(g194
S'PPP'
tp207
F62
s(S'NP'
p208
S'NAVP'
tp209
F8
s(S'PP'
p210
S'PADVAP'
tp211
F4
s(S'DP'
p212
S'DDNNNP'
tp213
F1
s(g106
S'ADVDVP'
tp214
F3
s(S'NP'
S'NADVVVP'
tp215
F1
s(S'DP'
p216
S'DADVADVPPP'
tp217
F2
s(S'AP'
S'AADVVP'
tp218
F1
s(S'PP'
S'PPPPDP'
tp219
F1
s(g153
S'VAAAAP'
tp220
F1
s(g139
S'VPP'
tp221
F58
s(S'DP'
S'DADVAAANP'
tp222
F1
s(S'CP'
S'ADVCCDP'
tp223
F1
s(S'MP'
S'ADVADVMVP'
tp224
F1
s(S'AP'
S'AAAACP'
tp225
F1
s(S'NP'
S'NNNCP'
tp226
F3
s(S'PP'
S'PADVDP'
tp227
F1
s(S'CP'
S'CDADVAPP'
tp228
F1
s(g196
S'CDDPP'
tp229
F33
s(g106
S'DAAPP'
tp230
F5
s(S'PP'
S'PVVP'
tp231
F23
s(S'CP'
S'CADPPP'
tp232
F5
s(S'AP'
S'AACP'
tp233
F6
s(S'VP'
S'ADVVCP'
tp234
F2
s(g170
S'VPPP'
tp235
F7
s(S'VP'
p236
S'VVPPP'
tp237
F3
s(S'PP'
S'PPAP'
tp238
F4
s(S'DP'
S'DVVP'
tp239
F17
s(S'NP'
S'ANMP'
tp240
F2
s(S'AP'
S'APPP'
tp241
F2
s(g67
S'ADVPPP'
tp242
F2
s(S'NP'
S'ADVADVNVP'
tp243
F1
s(S'VP'
S'VVVP'
tp244
F7
s(S'CP'
S'CADVDPP'
tp245
F9
s(g79
S'ANCP'
tp246
F9
s(S'DP'
S'DCP'
tp247
F14
s(S'DP'
S'DVVVP'
tp248
F1
s(g24
S'DADVCP'
tp249
F1
s(S'DP'
p250
S'DDDP'
tp251
F8
s(g216
S'DDADVPP'
tp252
F2
s(S'NP'
S'ANVVP'
tp253
F1
s(g50
S'VVDP'
tp254
F21
s(S'NP'
S'NPPP'
tp255
F14
s(S'PP'
S'PPAPP'
tp256
F1
s(S'DP'
S'DAVP'
tp257
F6
s(S'NP'
S'NNNMP'
tp258
F1
s(S'AP'
S'ACP'
tp259
F21
s(g161
S'PPNP'
tp260
F24
s(S'PP'
S'APPPP'
tp261
F1
s(g184
S'NAADP'
tp262
F1
s(g187
S'AADVP'
tp263
F2
s(S'DP'
S'ADVP'
tp264
F4
s(S'AP'
S'ADP'
tp265
F108
s(g45
S'DDPPPP'
tp266
F1
s(S'NP'
S'ADVANCCP'
tp267
F1
s(S'VP'
S'VVPPPP'
tp268
F1
s(S'NP'
p269
S'NADVADVAP'
tp270
F1
s(S'VP'
S'AAAVDP'
tp271
F1
s(S'AP'
S'AAADP'
tp272
F4
s(g139
S'VVAP'
tp273
F9
s(S'NP'
p274
S'NNAPP'
tp275
F1
s(S'MP'
p276
S'MNADVVP'
tp277
F1
s(S'CP'
p278
S'CDDDAPP'
tp279
F1
s(S'NP'
S'NPP'
tp280
F94
s(S'VP'
S'ADVADVVAP'
tp281
F1
s(S'NP'
S'NVP'
tp282
F125
s(S'PP'
S'PAAVP'
tp283
F1
s(g269
S'NAAPP'
tp284
F1
s(S'VP'
S'VDDP'
tp285
F20
s(S'DP'
p286
S'DADVAPP'
tp287
F1
s(S'NP'
S'ANPP'
tp288
F8
s(g95
S'PPPPP'
tp289
F3
s(S'VP'
S'VAAACP'
tp290
F1
s(S'AP'
S'AADVADVDP'
tp291
F2
s(S'NP'
p292
S'ADVNADP'
tp293
F1
s(S'CP'
S'CAADPP'
tp294
F1
s(S'DP'
S'DDADVADVPPP'
tp295
F1
s(S'NP'
p296
S'NAACP'
tp297
F2
s(g145
S'PNNP'
tp298
F17
s(g4
S'APNNP'
tp299
F2
s(S'DP'
S'DDAAP'
tp300
F1
s(g12
S'AVAP'
tp301
F1
s(S'MP'
S'MMVP'
tp302
F3
s(S'NP'
S'ADVNCP'
tp303
F2
s(S'AP'
S'AADP'
tp304
F28
s(g278
S'ACDP'
tp305
F8
s(S'NP'
S'NNDP'
tp306
F9
s(S'NP'
p307
S'NNACP'
tp308
F2
s(S'VP'
p309
S'VAP'
tp310
F46
s(g276
S'MNVVP'
tp311
F2
s(g72
S'DDDPP'
tp312
F2
s(S'CP'
S'ADVCDDP'
tp313
F1
s(S'MP'
S'AAMNP'
tp314
F1
s(S'VP'
S'VADVMP'
tp315
F3
s(S'MP'
S'MVVVDP'
tp316
F1
s(S'NP'
p317
S'NNPPPPP'
tp318
F1
s(S'DP'
S'DDDPPP'
tp319
F1
s(S'VP'
S'ADVAVDP'
tp320
F2
s(S'DP'
S'ADAP'
tp321
F1
s(g250
S'DADVDP'
tp322
F1
s(S'NP'
S'NAAP'
tp323
F4
s(g100
S'PPPVP'
tp324
F2
s(g58
S'AAVAP'
tp325
F1
s(S'AP'
p326
S'AADDP'
tp327
F2
s(S'NP'
S'NADVADVCP'
tp328
F1
s(g36
S'PPPDDP'
tp329
F1
s(S'DP'
S'DDADVNP'
tp330
F1
s(g161
S'PANP'
tp331
F10
s(S'PP'
S'PDDDP'
tp332
F1
s(S'AP'
S'AAVP'
tp333
F4
s(S'AP'
S'AVVP'
tp334
F1
s(g182
S'NDDP'
tp335
F8
s(S'AP'
S'ACCP'
tp336
F5
s(g182
S'NDP'
tp337
F46
s(g39
S'MVAAP'
tp338
F1
s(g72
S'DDVP'
tp339
F9
s(S'VP'
S'VNNNP'
tp340
F2
s(S'PP'
S'ADVPAP'
tp341
F2
s(S'PP'
S'APADVDP'
tp342
F1
s(S'PP'
p343
S'PCP'
tp344
F5
s(S'NP'
S'NADVADVADVMP'
tp345
F1
s(S'PP'
S'PACP'
tp346
F1
s(g292
S'NNNDP'
tp347
F1
s(S'VP'
S'ADVADVAVDP'
tp348
F1
s(S'DP'
S'ADPPP'
tp349
F6
s(g198
S'MVCP'
tp350
F1
s(g180
S'CCDDP'
tp351
F7
s(S'NP'
p352
S'NNADVVP'
tp353
F1
s(g292
S'NAACCP'
tp354
F1
s(g79
S'NNVVP'
tp355
F3
s(g274
S'NAAMP'
tp356
F2
s(g139
S'VVCP'
tp357
F12
s(S'VP'
S'VADVNP'
tp358
F2
s(S'VP'
S'VVDDDP'
tp359
F1
s(S'PP'
p360
S'APPP'
tp361
F5
s(S'VP'
S'ADVVPP'
tp362
F4
s(S'VP'
p363
S'VNNP'
tp364
F23
s(g134
S'AADVDP'
tp365
F2
s(S'NP'
S'NADP'
tp366
F4
s(g286
S'DDNP'
tp367
F24
s(g53
S'NADVCP'
tp368
F4
s(g15
S'DDNNP'
tp369
F7
s(g210
S'AAPPP'
tp370
F1
s(g98
S'ADVADDP'
tp371
F2
s(S'DP'
S'AADPP'
tp372
F1
s(S'PP'
S'ADVADVPPDP'
tp373
F1
s(S'MP'
S'MVVNP'
tp374
F3
s(g180
S'ACDDP'
tp375
F3
s(S'VP'
S'ADVVCCCP'
tp376
F1
s(S'AP'
S'AAPP'
tp377
F5
s(S'PP'
S'PADVMP'
tp378
F1
s(S'DP'
S'DADVADVNP'
tp379
F1
s(S'NP'
S'NAPP'
tp380
F4
s(g67
S'APPVP'
tp381
F1
s(S'NP'
p382
S'NADVDP'
tp383
F1
s(g309
S'VVVCP'
tp384
F1
s(g307
S'ANCCP'
tp385
F4
s(S'VP'
S'VDDDP'
tp386
F2
s(S'NP'
S'NNMP'
tp387
F5
s(S'DP'
S'DDDVP'
tp388
F1
s(g343
S'PPPAP'
tp389
F1
s(g70
S'ADVDDAP'
tp390
F1
s(g161
S'PPADVADVVVP'
tp391
F1
s(S'NP'
S'ANAP'
tp392
F1
s(S'MP'
S'MVAP'
tp393
F5
s(g210
S'PVP'
tp394
F92
s(S'DP'
S'DADVAVP'
tp395
F1
s(S'MP'
S'AAMVP'
tp396
F1
s(g26
S'VADVCCP'
tp397
F1
s(S'NP'
p398
S'ANNCP'
tp399
F1
s(g360
S'PPDDP'
tp400
F1
s(S'DP'
S'DDVVVP'
tp401
F1
s(S'DP'
p402
S'DPP'
tp403
F162
s(g398
S'ADVNVP'
tp404
F3
s(S'DP'
S'DDDVVP'
tp405
F1
s(g106
S'DDPP'
tp406
F51
s(S'DP'
S'DDAVP'
tp407
F1
s(g286
S'DANP'
tp408
F17
s(S'NP'
S'NADVPP'
tp409
F2
s(S'PP'
S'ADVPADVAVP'
tp410
F1
s(S'NP'
S'AANADVVP'
tp411
F1
s(g382
S'NAAVP'
tp412
F1
s(S'DP'
S'ADVADVADPP'
tp413
F1
s(S'DP'
p414
S'AADNP'
tp415
F2
s(S'NP'
S'NNNNCP'
tp416
F1
s(S'MP'
p417
S'MDNP'
tp418
F1
s(g48
S'NNAACP'
tp419
F1
s(g56
S'DCCP'
tp420
F1
s(g67
S'AAPDP'
tp421
F2
s(S'MP'
S'MADVVDP'
tp422
F4
s(g161
S'PDDP'
tp423
F18
s(S'MP'
S'MVDDP'
tp424
F2
s(S'PP'
S'PCCP'
tp425
F1
s(g109
S'NNVP'
tp426
F22
s(S'AP'
p427
S'AADVADVCP'
tp428
F1
s(g427
S'ADVADVACP'
tp429
F1
s(S'VP'
S'AVDP'
tp430
F12
s(S'NP'
S'NNP'
tp431
F2
s(S'VP'
S'VVDDP'
tp432
F5
s(S'DP'
S'DAANP'
tp433
F1
s(S'AP'
S'ADDP'
tp434
F7
s(S'CP'
S'CADVADVDPP'
tp435
F1
s(S'DP'
S'DPPP'
tp436
F43
s(S'VP'
S'VANNP'
tp437
F1
s(S'NP'
S'NNAVP'
tp438
F1
s(g161
S'PPDP'
tp439
F22
s(g168
S'DDCP'
tp440
F1
s(g182
S'NAP'
tp441
F34
s(g274
S'NNAAP'
tp442
F1
s(S'VP'
S'VADVANP'
tp443
F1
s(g114
S'VVP'
tp444
F20
s(S'MP'
S'ADVMNP'
tp445
F4
s(g81
S'DADVNP'
tp446
F3
s(S'PP'
S'ADVADVPVP'
tp447
F1
s(S'PP'
S'APNP'
tp448
F6
s(S'DP'
S'DDDAPP'
tp449
F1
s(S'DP'
S'DDVVP'
tp450
F2
s(S'VP'
S'VVVNP'
tp451
F1
s(S'NP'
S'NAMP'
tp452
F2
s(g417
S'MVNNP'
tp453
F4
s(S'CP'
S'CDPP'
tp454
F130
s(S'AP'
S'ADDDP'
tp455
F1
s(g196
S'ADVCDP'
tp456
F5
s(S'VP'
S'ADVADVVNP'
tp457
F3
s(S'PP'
p458
S'PPNNP'
tp459
F6
s(g458
S'ADVAPPP'
tp460
F1
s(S'DP'
S'ADVADVDPP'
tp461
F3
s(g363
S'VAADP'
tp462
F1
s(g326
S'ADVAAAP'
tp463
F1
s(S'DP'
p464
S'DAP'
tp465
F19
s(S'CP'
S'CADPP'
tp466
F13
s(S'PP'
S'PPAVP'
tp467
F1
s(g175
S'PPDDDP'
tp468
F1
s(g236
S'AVPP'
tp469
F2
s(g317
S'NADVADVMP'
tp470
F1
s(S'MP'
S'AMVVP'
tp471
F1
s(S'CP'
S'CDADVADVPP'
tp472
F1
s(S'CP'
S'CDPPPP'
tp473
F4
s(S'DP'
S'DAPPP'
tp474
F1
s(S'DP'
S'DADVADVPP'
tp475
F1
s(g464
S'DMP'
tp476
F2
s(g414
S'ADVDPP'
tp477
F14
s(S'NP'
S'NADVAPP'
tp478
F1
s(S'PP'
S'PADVADVNP'
tp479
F1
s(g15
S'ADPP'
tp480
F16
s(S'NP'
S'NNADVVVP'
tp481
F1
s(S'VP'
S'VADVPP'
tp482
F1
s(S'CP'
S'CCADVDDP'
tp483
F2
s(g175
S'ADVPVP'
tp484
F3
s(g26
S'ADVVANP'
tp485
F1
s(g360
S'ADVPDP'
tp486
F5
s(S'PP'
S'PPDDDDP'
tp487
F1
s(g208
S'NCP'
tp488
F107
s(S'CP'
S'CADVDPPP'
tp489
F1
s(S'VP'
S'ADVVVPP'
tp490
F1
s(S'PP'
S'PPAAAP'
tp491
F1
s(g86
S'ADVPDDP'
tp492
F1
s(S'NP'
S'NNCCP'
tp493
F5
s(S'MP'
S'MNVP'
tp494
F1
s(g190
S'VAPP'
tp495
F3
s(g170
S'ADVVDP'
tp496
F12
s(S'DP'
S'DADVPP'
tp497
F8
s(S'AP'
S'AMP'
tp498
F1
s(S'CP'
S'CCADP'
tp499
F1
s(S'AP'
S'ADVAPP'
tp500
F1
s(S'CP'
S'AACDP'
tp501
F4
s(S'NP'
S'NNNCCP'
tp502
F1
s(S'CP'
S'CCDDDP'
tp503
F1
s(S'DP'
S'ADVDPPP'
tp504
F1
s(g402
S'DVP'
tp505
F108
s(S'NP'
S'ADVNPP'
tp506
F1
s(S'CP'
S'AAACDP'
tp507
F1
s(S'AP'
S'AVP'
tp508
F13
s(g352
S'NADVVP'
tp509
F5
s(g212
S'DDPPP'
tp510
F6
s(g296
S'ADVNMP'
tp511
F1
s(S'NP'
S'NNAP'
tp512
F8
s(S'NP'
S'ADVAAANCP'
tp513
F1
s(S'PP'
S'PPANP'
tp514
F3
s(S'CP'
S'CDADVPP'
tp515
F6
s(S'VP'
S'VNP'
tp516
F104
s(S'VP'
S'VANP'
tp517
F2
s(S'VP'
S'VADVAP'
tp518
F5
s(g67
S'PADVADVAVP'
tp519
F1
s(S'DP'
S'DDDDVP'
tp520
F1
s(S'VP'
S'ADVADVVVDP'
tp521
F1
s.