ccollections
defaultdict
p1
(c__builtin__
float
p2
tRp3
(S'DP'
p4
S'DDPP'
tp5
F2
s(S'DP'
S'DANP'
tp6
F3
s(S'NP'
p7
S'ANPP'
tp8
F3
s(S'VP'
p9
S'VVNP'
tp10
F1
s(S'PP'
p11
S'PPVP'
tp12
F2
s(S'VP'
p13
S'VAAP'
tp14
F2
s(S'PP'
S'PADVNP'
tp15
F1
s(S'NP'
p16
S'NVVP'
tp17
F2
s(S'DP'
p18
S'DNP'
tp19
F9
s(S'PP'
p20
S'PNNP'
tp21
F5
s(g16
S'NNNVVP'
tp22
F1
s(S'DP'
p23
S'ADVDADVADVPP'
tp24
F1
s(S'CP'
p25
S'CDPPP'
tp26
F2
s(S'PP'
p27
S'ADVADVPPP'
tp28
F1
s(S'NP'
p29
S'ADVNCP'
tp30
F1
s(g4
S'ADPP'
tp31
F2
s(g9
S'VVADVADVNNP'
tp32
F1
s(S'PP'
p33
S'PDDP'
tp34
F1
s(g25
S'ACDP'
tp35
F1
s(g18
S'DAPP'
tp36
F1
s(S'CP'
S'CDADVPPP'
tp37
F1
s(S'VP'
p38
S'VAP'
tp39
F6
s(S'DP'
p40
S'DAANP'
tp41
F1
s(g16
S'ADVADVNNDP'
tp42
F1
s(S'AP'
p43
S'AAVVP'
tp44
F1
s(S'AP'
p45
S'ADDP'
tp46
F2
s(S'PP'
S'ADVPPNP'
tp47
F1
s(S'DP'
S'ADVADVDDPP'
tp48
F1
s(g38
S'VCP'
tp49
F6
s(g20
S'PAP'
tp50
F6
s(g29
S'NNPP'
tp51
F2
s(g7
S'NNNACP'
tp52
F1
s(S'DP'
S'DADVPPP'
tp53
F1
s(g20
S'PNP'
tp54
F9
s(S'MP'
S'MADP'
tp55
F1
s(S'DP'
p56
S'DDP'
tp57
F2
s(S'CP'
S'CADVDADVADVPP'
tp58
F1
s(g20
S'PANP'
tp59
F3
s(g16
S'NNNPP'
tp60
F1
s(g20
S'PAAP'
tp61
F1
s(g27
S'PMP'
tp62
F1
s(S'AP'
S'AAVP'
tp63
F1
s(S'NP'
S'NAAP'
tp64
F1
s(g25
S'CCDP'
tp65
F4
s(g7
S'NAP'
tp66
F3
s(g16
S'NMP'
tp67
F1
s(g25
S'CDADVADVPP'
tp68
F1
s(S'NP'
p69
S'NDP'
tp70
F6
s(g20
S'PNNNP'
tp71
F2
s(g20
S'PVP'
tp72
F8
s(g38
S'VVP'
tp73
F2
s(S'DP'
p74
S'DDVP'
tp75
F2
s(g20
S'PDP'
tp76
F10
s(g40
S'DADVNP'
tp77
F1
s(g20
S'ADVADVPVP'
tp78
F1
s(g20
S'APNP'
tp79
F1
s(g20
S'PPP'
tp80
F5
s(g7
S'NAVP'
tp81
F1
s(g40
S'DDNNNP'
tp82
F1
s(g18
S'DPPP'
tp83
F3
s(g69
S'NNPPP'
tp84
F1
s(g13
S'VVCP'
tp85
F1
s(g25
S'CDPP'
tp86
F10
s(g23
S'ADVDVP'
tp87
F1
s(g40
S'ADVDVVP'
tp88
F1
s(g18
S'ADVADVDNP'
tp89
F1
s(S'VP'
p90
S'VPP'
tp91
F7
s(g7
S'NACP'
tp92
F1
s(g7
S'NCCP'
tp93
F2
s(S'NP'
p94
S'NNVP'
tp95
F2
s(g27
S'PADVDP'
tp96
F2
s(g7
S'NNCP'
tp97
F5
s(S'VP'
p98
S'VVPP'
tp99
F2
s(S'CP'
p100
S'CDDPP'
tp101
F2
s(S'PP'
p102
S'PVVP'
tp103
F2
s(g45
S'AACP'
tp104
F1
s(g38
S'AVNP'
tp105
F1
s(g90
S'VPPP'
tp106
F1
s(S'NP'
S'NNVVP'
tp107
F1
s(S'VP'
S'VVPPP'
tp108
F1
s(g40
S'DAP'
tp109
F1
s(g11
S'ADVPVVP'
tp110
F1
s(g98
S'VADVNP'
tp111
F1
s(g23
S'DVVP'
tp112
F3
s(g33
S'PPAP'
tp113
F1
s(g90
S'VNNP'
tp114
F1
s(g25
S'CADVDPP'
tp115
F1
s(S'VP'
S'VADVADVADVNP'
tp116
F1
s(S'DP'
S'DDNP'
tp117
F1
s(g40
S'DDNNP'
tp118
F1
s(g7
S'ANCP'
tp119
F3
s(g18
S'DADVADVPP'
tp120
F1
s(g18
S'ADVDPP'
tp121
F1
s(g7
S'NCP'
tp122
F7
s(S'AP'
S'AADP'
tp123
F1
s(g13
S'VVDP'
tp124
F2
s(S'NP'
S'NPPP'
tp125
F2
s(S'MP'
S'MVAAP'
tp126
F1
s(g56
S'DNNP'
tp127
F3
s(g43
S'ACP'
tp128
F3
s(S'PP'
S'PPNP'
tp129
F4
s(g38
S'VDP'
tp130
F7
s(g29
S'NNCCP'
tp131
F1
s(g9
S'VVVP'
tp132
F1
s(g43
S'ADP'
tp133
F9
s(g43
S'APP'
tp134
F1
s(S'AP'
S'AAP'
tp135
F1
s(g74
S'DADVPP'
tp136
F1
s(g94
S'ANCCP'
tp137
F3
s(g16
S'AANPP'
tp138
F1
s(g100
S'CCADP'
tp139
F2
s(g16
S'ANVP'
tp140
F1
s(S'VP'
S'VVAP'
tp141
F1
s(S'VP'
S'VADVADVDDP'
tp142
F1
s(g18
S'DVP'
tp143
F10
s(g7
S'ADVNPP'
tp144
F1
s(S'AP'
S'AVP'
tp145
F2
s(g7
S'NPP'
tp146
F9
s(g7
S'NVP'
tp147
F8
s(g102
S'PPANP'
tp148
F1
s(g38
S'VVADVADVDP'
tp149
F1
s(g69
S'ADVADVADVNVP'
tp150
F1
s(g38
S'VNP'
tp151
F6
s(g38
S'VANP'
tp152
F1
s(S'VP'
S'VDDP'
tp153
F3
s(g33
S'PPDDP'
tp154
F1
s(g20
S'PPADVNP'
tp155
F1
s(g18
S'DPP'
tp156
F11
s(g94
S'ADVNVP'
tp157
F2
s.