ccollections
defaultdict
p1
(c__builtin__
float
p2
tRp3
(S'MP'
S'MMDP'
tp4
F1
s(S'VP'
S'VVAAAP'
tp5
F1
s(S'PP'
p6
S'ADVADVPPAP'
tp7
F1
s(S'CP'
S'CAAADPP'
tp8
F1
s(S'DP'
S'ADDPP'
tp9
F4
s(S'DP'
S'DDAP'
tp10
F2
s(S'CP'
S'CCDDDDP'
tp11
F1
s(S'PP'
p12
S'PAPP'
tp13
F7
s(S'PP'
S'PADVNP'
tp14
F8
s(S'CP'
p15
S'CDADVADVPPP'
tp16
F2
s(S'CP'
p17
S'CDPPP'
tp18
F52
s(S'VP'
p19
S'VADP'
tp20
F14
s(S'DP'
S'DNNNNP'
tp21
F1
s(g17
S'CDAAPPP'
tp22
F2
s(S'MP'
p23
S'MAVNP'
tp24
F1
s(S'PP'
S'PPPPPP'
tp25
F1
s(S'VP'
S'VAVP'
tp26
F2
s(S'PP'
S'APPDP'
tp27
F1
s(S'DP'
S'ADNNP'
tp28
F2
s(S'VP'
S'AVADVDP'
tp29
F1
s(S'PP'
p30
S'PADVADVAAP'
tp31
F1
s(S'VP'
S'ADVVNP'
tp32
F13
s(S'MP'
S'MVDP'
tp33
F22
s(S'PP'
S'PADVANP'
tp34
F5
s(S'PP'
p35
S'PPPP'
tp36
F35
s(S'DP'
S'DDDNP'
tp37
F3
s(S'VP'
S'VACP'
tp38
F4
s(S'AP'
S'AAAVP'
tp39
F1
s(S'PP'
S'PPAAP'
tp40
F1
s(S'DP'
p41
S'DADVVP'
tp42
F4
s(S'MP'
S'MMCP'
tp43
F1
s(S'AP'
S'AADVPP'
tp44
F2
s(S'NP'
p45
S'NCCCP'
tp46
F3
s(S'CP'
S'CADVDAPP'
tp47
F1
s(g19
S'VCP'
tp48
F100
s(S'NP'
p49
S'NMMP'
tp50
F8
s(S'VP'
p51
S'ADVVAAP'
tp52
F1
s(S'VP'
p53
S'ADVVCCP'
tp54
F1
s(S'PP'
S'ADVPADP'
tp55
F1
s(g12
S'PAP'
tp56
F97
s(S'PP'
p57
S'ADVPPVP'
tp58
F1
s(S'DP'
p59
S'DDADVADVAPPP'
tp60
F1
s(S'NP'
p61
S'ANPPP'
tp62
F3
s(S'NP'
S'NNNACP'
tp63
F1
s(g12
S'PNP'
tp64
F208
s(S'AP'
S'AADVADVADVADVCP'
tp65
F1
s(S'DP'
p66
S'DDP'
tp67
F43
s(S'NP'
S'NNNPP'
tp68
F1
s(S'VP'
S'VCCP'
tp69
F10
s(S'VP'
S'ADVVVDDP'
tp70
F1
s(S'MP'
S'MCDP'
tp71
F6
s(S'CP'
S'AACCDP'
tp72
F1
s(S'DP'
S'DDAANP'
tp73
F1
s(g61
S'NMP'
tp74
F82
s(S'NP'
S'ADVNAPP'
tp75
F1
s(g12
S'PDP'
tp76
F184
s(S'CP'
S'CCADVADVDP'
tp77
F2
s(S'PP'
S'PPADVVP'
tp78
F2
s(S'AP'
S'AAANP'
tp79
F1
s(S'NP'
p80
S'AAANVVP'
tp81
F1
s(g66
S'DNP'
tp82
F195
s(S'NP'
S'NACCP'
tp83
F3
s(S'AP'
S'ANP'
tp84
F3
s(S'PP'
S'ADVPAAP'
tp85
F1
s(S'NP'
S'NADVADVADVVP'
tp86
F1
s(S'PP'
S'PADVPP'
tp87
F1
s(S'NP'
p88
S'NNADVCP'
tp89
F1
s(S'VP'
p90
S'ADVADVADVVCCP'
tp91
F1
s(S'PP'
p92
S'AAPPPP'
tp93
F1
s(S'DP'
S'DPPPP'
tp94
F6
s(S'DP'
p95
S'DDANP'
tp96
F2
s(S'DP'
p97
S'ADNNNP'
tp98
F1
s(S'NP'
S'NACP'
tp99
F11
s(S'AP'
S'ADVAVP'
tp100
F2
s(g61
S'NCCP'
tp101
F63
s(S'VP'
p102
S'VADVADVADVDDP'
tp103
F1
s(S'VP'
S'VANNP'
tp104
F2
s(g102
S'ADVVAANP'
tp105
F1
s(g90
S'VVVVVP'
tp106
F1
s(S'NP'
p107
S'NNCP'
tp108
F55
s(S'DP'
p109
S'ADVDDPP'
tp110
F2
s(S'NP'
p111
S'NADVADVVP'
tp112
F2
s(S'DP'
S'DDDDP'
tp113
F3
s(g19
S'AVNP'
tp114
F9
s(S'NP'
S'NADVADVPP'
tp115
F1
s(S'DP'
p116
S'ADADVNP'
tp117
F1
s(S'VP'
p118
S'VADVVP'
tp119
F3
s(S'CP'
p120
S'ACCDDP'
tp121
F3
s(S'MP'
p122
S'MVAPP'
tp123
F1
s(S'MP'
p124
S'MVPPP'
tp125
F1
s(S'NP'
S'ANADVVP'
tp126
F1
s(S'PP'
p127
S'ADVAPVP'
tp128
F1
s(S'VP'
S'ADVADVADVADVVAP'
tp129
F1
s(S'CP'
S'CCCDP'
tp130
F4
s(S'VP'
S'ADVVAP'
tp131
F6
s(S'VP'
S'VCCCP'
tp132
F1
s(g35
S'APDP'
tp133
F17
s(S'VP'
S'VADVNNP'
tp134
F1
s(S'VP'
S'ADVVNNP'
tp135
F1
s(S'NP'
S'NNADVADVADVADVVP'
tp136
F1
s(S'PP'
p137
S'ADVPNNP'
tp138
F1
s(S'VP'
S'ADVVVP'
tp139
F1
s(S'NP'
S'ADVADVNPPP'
tp140
F1
s(S'MP'
S'MADVVNP'
tp141
F1
s(S'DP'
S'ADVADNNP'
tp142
F1
s(S'MP'
S'MPNNP'
tp143
F1
s(S'NP'
S'ADVANCP'
tp144
F3
s(S'DP'
p145
S'DNNP'
tp146
F45
s(S'CP'
S'CADVDDPP'
tp147
F1
s(S'DP'
S'DPPPPP'
tp148
F2
s(S'CP'
S'CCADVDP'
tp149
F3
s(g145
S'ADDNP'
tp150
F1
s(S'NP'
p151
S'NNNVP'
tp152
F1
s(g35
S'PPAAPP'
tp153
F1
s(g19
S'VDP'
tp154
F189
s(S'PP'
S'PPNNNNP'
tp155
F1
s(S'PP'
S'PADVVP'
tp156
F8
s(S'PP'
p157
S'APAP'
tp158
F2
s(S'CP'
S'ADVADVCDP'
tp159
F1
s(S'NP'
S'NADVMP'
tp160
F1
s(S'AP'
p161
S'AAP'
tp162
F6
s(S'CP'
S'CADVADPP'
tp163
F3
s(S'DP'
S'DAAAPP'
tp164
F1
s(S'NP'
S'ADVADVNCCP'
tp165
F1
s(S'NP'
S'ADVANPP'
tp166
F1
s(S'NP'
p167
S'NAAACP'
tp168
F1
s(S'CP'
S'CDDDDPP'
tp169
F2
s(S'MP'
S'MVVCP'
tp170
F3
s(S'PP'
S'PAANP'
tp171
F6
s(S'PP'
p172
S'PPVVP'
tp173
F4
s(S'VP'
S'VAACP'
tp174
F1
s(S'MP'
p175
S'MVNP'
tp176
F35
s(S'MP'
S'MNDP'
tp177
F1
s(S'AP'
S'AADVCCP'
tp178
F1
s(S'CP'
S'CDDDPPP'
tp179
F2
s(S'DP'
p180
S'ADVADNP'
tp181
F3
s(g12
S'PAVP'
tp182
F15
s(S'CP'
S'CDADVADVPP'
tp183
F1
s(g157
S'ADVADVPPVP'
tp184
F1
s(S'PP'
S'PPADVNNP'
tp185
F1
s(g157
S'APPPP'
tp186
F2
s(S'DP'
S'ADVDVVP'
tp187
F1
s(g161
S'ADVADP'
tp188
F3
s(S'AP'
S'APP'
tp189
F38
s(S'VP'
p190
S'VVADVPP'
tp191
F1
s(g116
S'ADVDDP'
tp192
F2
s(S'PP'
S'APDDP'
tp193
F2
s(S'MP'
S'MNACP'
tp194
F1
s(S'NP'
S'ADVNAP'
tp195
F1
s(S'DP'
S'DAAAVP'
tp196
F1
s(S'PP'
S'PPCP'
tp197
F2
s(g12
S'APVP'
tp198
F12
s(S'DP'
S'DAAAP'
tp199
F2
s(S'MP'
p200
S'MNCP'
tp201
F1
s(S'VP'
p202
S'VVNP'
tp203
F33
s(S'PP'
p204
S'ADVPPPP'
tp205
F2
s(S'PP'
S'PPVP'
tp206
F34
s(S'VP'
S'VVCCCCP'
tp207
F1
s(S'VP'
S'VADVDP'
tp208
F1
s(S'VP'
p209
S'VAAP'
tp210
F19
s(S'NP'
S'ANDP'
tp211
F6
s(S'NP'
S'NVVP'
tp212
F37
s(g35
S'AAPVP'
tp213
F4
s(S'VP'
S'VMP'
tp214
F8
s(S'NP'
S'ANNAP'
tp215
F1
s(S'VP'
S'VVNNP'
tp216
F7
s(g17
S'CDAPP'
tp217
F26
s(S'VP'
S'VVAAP'
tp218
F2
s(S'NP'
S'ANADVCP'
tp219
F1
s(g53
S'ADVADVVVNNP'
tp220
F1
s(g66
S'ADNP'
tp221
F14
s(S'PP'
S'PADP'
tp222
F15
s(S'VP'
S'ADVVVCP'
tp223
F1
s(S'DP'
S'DADVAP'
tp224
F2
s(g145
S'DAPP'
tp225
F32
s(S'VP'
S'AVVP'
tp226
F1
s(S'VP'
p227
S'VVVVPP'
tp228
F1
s(S'VP'
S'ADVADVVPP'
tp229
F1
s(S'VP'
S'VADVAAP'
tp230
F1
s(S'NP'
S'NNNAVP'
tp231
F1
s(S'VP'
S'ADVADVADVVDP'
tp232
F1
s(S'VP'
S'ADVADVVDP'
tp233
F2
s(S'PP'
S'PPPDP'
tp234
F2
s(g145
S'DAAPPP'
tp235
F2
s(S'MP'
S'MVVVDP'
tp236
F1
s(S'VP'
p237
S'VDDDDP'
tp238
F2
s(S'DP'
p239
S'DAAANP'
tp240
F1
s(S'DP'
S'ADVDNP'
tp241
F5
s(S'VP'
S'VVPP'
tp242
F12
s(S'DP'
S'ADADVPP'
tp243
F1
s(S'CP'
p244
S'AACDDP'
tp245
F1
s(S'MP'
S'MVPP'
tp246
F9
s(S'DP'
p247
S'ADVP'
tp248
F5
s(g23
S'MVADP'
tp249
F1
s(g17
S'CDDPPP'
tp250
F7
s(g92
S'PPAVVP'
tp251
F1
s(S'NP'
p252
S'NNPP'
tp253
F20
s(S'DP'
S'DDDDNP'
tp254
F1
s(g175
S'MVVDP'
tp255
F3
s(S'DP'
p256
S'DADVPPP'
tp257
F1
s(g107
S'ANVP'
tp258
F10
s(S'DP'
S'DNNNP'
tp259
F9
s(S'PP'
p260
S'PMMP'
tp261
F1
s(g35
S'PVVVP'
tp262
F3
s(S'PP'
S'PMP'
tp263
F16
s(S'PP'
S'PADVADVADVVP'
tp264
F1
s(g17
S'CCDP'
tp265
F68
s(g51
S'VADVANP'
tp266
F1
s(S'PP'
S'PPNNNP'
tp267
F1
s(S'NP'
S'NVVVP'
tp268
F4
s(S'CP'
S'CDDDPP'
tp269
F5
s(S'CP'
S'CDAAPP'
tp270
F4
s(S'VP'
S'VVVDP'
tp271
F2
s(S'PP'
S'PNNNP'
tp272
F2
s(S'CP'
S'CCCCDP'
tp273
F1
s(S'NP'
S'ANMMP'
tp274
F1
s(S'AP'
S'AACCP'
tp275
F1
s(S'PP'
S'AAPNP'
tp276
F1
s(S'CP'
S'CADADVPP'
tp277
F1
s(g137
S'PADVVVP'
tp278
F2
s(g35
S'PPP'
tp279
F114
s(S'NP'
p280
S'NAVP'
tp281
F11
s(S'PP'
S'PADVAP'
tp282
F2
s(S'MP'
S'AMDP'
tp283
F1
s(S'VP'
S'ADVVAPP'
tp284
F1
s(g35
S'PADDP'
tp285
F2
s(S'DP'
S'ADVDVP'
tp286
F5
s(S'PP'
S'PPADVADVNP'
tp287
F1
s(S'NP'
S'NADVVVP'
tp288
F2
s(g256
S'DADVADVPPP'
tp289
F3
s(S'AP'
p290
S'AADVVP'
tp291
F2
s(g157
S'PPPVP'
tp292
F3
s(g19
S'VPP'
tp293
F107
s(g244
S'ADVCCDP'
tp294
F3
s(S'CP'
S'ACCDP'
tp295
F2
s(S'DP'
p296
S'ADVDDNP'
tp297
F1
s(g107
S'NNNCP'
tp298
F3
s(S'PP'
S'PADVDP'
tp299
F7
s(S'DP'
p300
S'DANNP'
tp301
F2
s(S'CP'
p302
S'CDDPP'
tp303
F61
s(g247
S'DAAPP'
tp304
F6
s(S'PP'
S'PVVP'
tp305
F28
s(S'CP'
S'CADPPP'
tp306
F2
s(S'AP'
p307
S'AACP'
tp308
F7
s(g209
S'ADVVCP'
tp309
F7
s(S'VP'
S'VPPP'
tp310
F16
s(S'NP'
S'NANP'
tp311
F2
s(g66
S'DVVP'
tp312
F27
s(S'CP'
S'CDDAAPP'
tp313
F1
s(S'NP'
p314
S'ANMP'
tp315
F3
s(S'PP'
S'PPAP'
tp316
F13
s(S'PP'
p317
S'ADVPPP'
tp318
F5
s(S'NP'
S'ADVADVNVP'
tp319
F1
s(g19
S'VVVP'
tp320
F7
s(g120
S'CADVDPP'
tp321
F16
s(g61
S'ANCP'
tp322
F24
s(g145
S'DCP'
tp323
F12
s(S'DP'
S'DVVVP'
tp324
F2
s(S'NP'
S'AAANCP'
tp325
F1
s(S'NP'
p326
S'NNVVVVP'
tp327
F1
s(S'DP'
S'DDDP'
tp328
F15
s(S'DP'
S'DDADVPP'
tp329
F3
s(S'VP'
S'AAAAVPP'
tp330
F1
s(g252
S'ANVVP'
tp331
F2
s(g209
S'VVDP'
tp332
F35
s(S'NP'
S'NPPP'
tp333
F18
s(S'DP'
p334
S'AADVVP'
tp335
F1
s(S'AP'
S'APPP'
tp336
F6
s(S'DP'
S'DAVP'
tp337
F9
s(S'NP'
S'NNNMP'
tp338
F5
s(S'AP'
p339
S'ACP'
tp340
F32
s(g35
S'PPNP'
tp341
F47
s(S'NP'
S'NNNAAPP'
tp342
F1
s(S'MP'
S'MADVVPP'
tp343
F1
s(S'NP'
S'NAADP'
tp344
F1
s(g59
S'ADVDAPP'
tp345
F1
s(S'DP'
p346
S'AADVP'
tp347
F2
s(S'AP'
S'ADVAAVP'
tp348
F1
s(S'CP'
S'CDDADVPP'
tp349
F1
s(S'AP'
p350
S'ADP'
tp351
F173
s(S'MP'
S'MADDP'
tp352
F2
s(S'VP'
S'AAAVDP'
tp353
F1
s(S'VP'
S'ADVADVVNNP'
tp354
F1
s(g122
S'MMNNP'
tp355
F1
s(g307
S'AAADP'
tp356
F8
s(S'NP'
S'ANNVP'
tp357
F1
s(g227
S'VVAP'
tp358
F16
s(g61
S'NNAPP'
tp359
F1
s(g61
S'NPP'
tp360
F137
s(S'PP'
S'PPPPNP'
tp361
F1
s(g61
S'NVP'
tp362
F185
s(S'PP'
S'PAAVP'
tp363
F2
s(S'PP'
S'PPPPVP'
tp364
F2
s(g209
S'VDDP'
tp365
F35
s(S'NP'
S'ADVADVNACP'
tp366
F1
s(S'AP'
S'AAADVDP'
tp367
F1
s(S'NP'
S'AANVVP'
tp368
F2
s(S'NP'
p369
S'NADVADVVVP'
tp370
F1
s(g61
S'ANPP'
tp371
F19
s(S'PP'
S'PPPPP'
tp372
F3
s(g30
S'ADVADVPDP'
tp373
F1
s(S'PP'
S'PPPNP'
tp374
F3
s(g118
S'ADVVADVADVNP'
tp375
F1
s(S'NP'
S'ADVADVNPP'
tp376
F1
s(S'NP'
p377
S'NPPPP'
tp378
F1
s(S'DP'
S'ADDP'
tp379
F1
s(S'NP'
S'ADVNADP'
tp380
F1
s(S'CP'
S'CAADPP'
tp381
F1
s(S'DP'
S'DADVADVVP'
tp382
F1
s(S'NP'
S'NAACP'
tp383
F1
s(g12
S'PNNP'
tp384
F41
s(S'PP'
S'APNNP'
tp385
F3
s(g97
S'AAADPP'
tp386
F1
s(S'VP'
S'AVAP'
tp387
F3
s(g124
S'MMVP'
tp388
F7
s(S'PP'
S'PCCP'
tp389
F2
s(g339
S'AADP'
tp390
F38
s(g17
S'ACDP'
tp391
F20
s(g35
S'PAAP'
tp392
F16
s(S'AP'
S'ADVANP'
tp393
F1
s(g88
S'NNACP'
tp394
F5
s(g15
S'CDADVPPP'
tp395
F1
s(g19
S'VAP'
tp396
F98
s(g247
S'DDDPP'
tp397
F6
s(S'CP'
S'ADVCDDP'
tp398
F3
s(S'PP'
S'ADVPMP'
tp399
F1
s(S'PP'
p400
S'PAAPP'
tp401
F1
s(S'AP'
S'AAVVP'
tp402
F1
s(S'DP'
S'DDDPPP'
tp403
F2
s(S'DP'
S'DADVDP'
tp404
F1
s(S'AP'
S'AAACP'
tp405
F2
s(S'DP'
S'ADADVVP'
tp406
F1
s(S'VP'
S'ADVVVDP'
tp407
F2
s(g172
S'ADVPADVADP'
tp408
F1
s(g209
S'AAVAP'
tp409
F1
s(S'AP'
p410
S'AADDP'
tp411
F8
s(S'NP'
S'NNNADVADVVP'
tp412
F1
s(S'MP'
S'MAADP'
tp413
F1
s(S'VP'
S'VAANP'
tp414
F5
s(S'NP'
S'NADVADVCP'
tp415
F1
s(g334
S'DADVADVDP'
tp416
F2
s(S'MP'
S'MPNP'
tp417
F1
s(S'MP'
S'MADP'
tp418
F4
s(S'PP'
S'PPPDDP'
tp419
F1
s(S'DP'
S'DDADVNP'
tp420
F1
s(g12
S'PANP'
tp421
F22
s(S'DP'
p422
S'AADNP'
tp423
F2
s(g290
S'ACCP'
tp424
F5
s(S'NP'
S'AANMP'
tp425
F2
s(S'AP'
S'AAVP'
tp426
F5
s(S'AP'
S'AVVP'
tp427
F6
s(S'NP'
S'NDDP'
tp428
F6
s(S'NP'
S'ADVNCP'
tp429
F8
s(S'AP'
S'APPPP'
tp430
F2
s(g61
S'NDP'
tp431
F64
s(S'NP'
p432
S'NNAAAAVP'
tp433
F1
s(S'MP'
S'MVAAP'
tp434
F4
s(S'DP'
p435
S'DDVP'
tp436
F35
s(S'DP'
S'AADNNNP'
tp437
F1
s(S'NP'
S'AANVP'
tp438
F3
s(S'PP'
S'ADVADVAPPPP'
tp439
F1
s(S'VP'
S'ADVVVNNP'
tp440
F1
s(S'VP'
p441
S'VNNNP'
tp442
F2
s(S'VP'
p443
S'VADVADVPP'
tp444
F1
s(S'PP'
S'ADVPAP'
tp445
F1
s(g35
S'PCP'
tp446
F10
s(S'VP'
p447
S'VADVADP'
tp448
F3
s(S'PP'
S'PAADP'
tp449
F2
s(S'NP'
S'ADVNNVP'
tp450
F1
s(S'NP'
S'NADVCCP'
tp451
F1
s(S'PP'
S'PPPVVP'
tp452
F1
s(S'NP'
S'NNNDP'
tp453
F2
s(S'AP'
S'ADVACP'
tp454
F3
s(g314
S'ADVADVNMP'
tp455
F2
s(S'VP'
S'AVVDP'
tp456
F1
s(S'DP'
p457
S'ADPPP'
tp458
F6
s(S'MP'
S'MVCP'
tp459
F6
s(g302
S'CCDDP'
tp460
F9
s(S'NP'
S'NNADVVP'
tp461
F3
s(S'NP'
S'NAAP'
tp462
F8
s(S'DP'
S'AAADNP'
tp463
F1
s(S'NP'
p464
S'NAACCP'
tp465
F1
s(S'NP'
S'NNVVP'
tp466
F6
s(S'VP'
S'VVCP'
tp467
F22
s(S'MP'
S'MVAANP'
tp468
F1
s(S'PP'
p469
S'PADVADVPP'
tp470
F2
s(g88
S'AANCP'
tp471
F8
s(S'VP'
S'VADVNP'
tp472
F3
s(S'AP'
S'ADVAVVP'
tp473
F1
s(g35
S'APPP'
tp474
F6
s(g334
S'ADVADVDAAAPP'
tp475
F1
s(S'VP'
S'ADVVPP'
tp476
F6
s(g441
S'VNNP'
tp477
F35
s(S'AP'
S'AADVDP'
tp478
F5
s(S'NP'
S'NADP'
tp479
F1
s(S'PP'
S'AAAPPP'
tp480
F1
s(g339
S'AAAP'
tp481
F1
s(S'NP'
S'NADVCP'
tp482
F8
s(S'DP'
S'DDNNP'
tp483
F6
s(S'PP'
p484
S'AAPPP'
tp485
F2
s(g6
S'PADVADVVVP'
tp486
F1
s(g111
S'ADVANVP'
tp487
F2
s(g88
S'ADVADVNCP'
tp488
F2
s(g180
S'AADPP'
tp489
F4
s(g432
S'ADVNAACP'
tp490
F1
s(S'NP'
S'NNNNPP'
tp491
F1
s(S'VP'
S'VVMMP'
tp492
F1
s(S'VP'
S'VVVADVNP'
tp493
F1
s(S'NP'
S'ANVVVP'
tp494
F1
s(S'MP'
S'MADVVDP'
tp495
F1
s(S'MP'
S'MVVNP'
tp496
F2
s(S'CP'
p497
S'ACDDP'
tp498
F3
s(g410
S'AAPP'
tp499
F3
s(S'VP'
S'VVCCP'
tp500
F2
s(g145
S'DADVADVNP'
tp501
F3
s(S'MP'
S'MPPVP'
tp502
F1
s(S'NP'
S'NNPPP'
tp503
F2
s(g167
S'NAPP'
tp504
F8
s(S'AP'
S'ADVADVADP'
tp505
F1
s(S'NP'
p506
S'NADVDP'
tp507
F1
s(S'VP'
S'VVVCP'
tp508
F2
s(g127
S'PADVAPP'
tp509
F1
s(g88
S'ANCCP'
tp510
F5
s(g377
S'AANPP'
tp511
F2
s(g296
S'DDAAAPP'
tp512
F1
s(S'NP'
S'NNMP'
tp513
F3
s(S'CP'
S'ADVADVACDP'
tp514
F1
s(S'VP'
S'AAVPP'
tp515
F1
s(S'CP'
S'CADDPP'
tp516
F4
s(S'PP'
S'PAAAP'
tp517
F3
s(S'PP'
S'ADVADVPNP'
tp518
F2
s(S'CP'
S'CDDAPP'
tp519
F1
s(g61
S'ANAP'
tp520
F5
s(S'DP'
S'ADVADVDPPPP'
tp521
F1
s(g23
S'MVAP'
tp522
F10
s(g12
S'PVP'
tp523
F177
s(S'VP'
p524
S'VADVPPP'
tp525
F1
s(S'VP'
p526
S'VADVCCP'
tp527
F1
s(S'CP'
S'ACDDDP'
tp528
F1
s(S'AP'
S'AADVDDP'
tp529
F1
s(g464
S'ADVNAVP'
tp530
F1
s(g49
S'ANNCP'
tp531
F4
s(g35
S'PPDDP'
tp532
F6
s(S'VP'
S'AVCP'
tp533
F8
s(S'NP'
S'NADVADVAP'
tp534
F1
s(g66
S'DPP'
tp535
F269
s(S'NP'
S'ADVNVP'
tp536
F2
s(g457
S'DDDVVP'
tp537
F2
s(g66
S'DDPP'
tp538
F88
s(g66
S'DANP'
tp539
F26
s(g326
S'NADVPP'
tp540
F2
s(g35
S'AAPPVP'
tp541
F1
s(g88
S'NAAVP'
tp542
F1
s(g484
S'PDDDP'
tp543
F4
s(S'NP'
S'NNAPPP'
tp544
F1
s(g400
S'PMMMP'
tp545
F1
s(S'NP'
S'NNNNCP'
tp546
F1
s(S'MP'
S'MDNP'
tp547
F2
s(S'AP'
S'AAADVADVAVP'
tp548
F1
s(g57
S'PADVPPP'
tp549
F1
s(S'DP'
S'DCCP'
tp550
F1
s(S'PP'
S'AAPDP'
tp551
F3
s(S'VP'
S'VVDDP'
tp552
F3
s(g12
S'PDDP'
tp553
F48
s(S'MP'
S'MVDDP'
tp554
F4
s(g61
S'NNVP'
tp555
F49
s(g19
S'AVDP'
tp556
F19
s(g435
S'ADVADPP'
tp557
F3
s(g145
S'DAANP'
tp558
F6
s(S'PP'
S'AAAPAP'
tp559
F1
s(g339
S'ADDP'
tp560
F24
s(S'PP'
S'ADVPPNP'
tp561
F1
s(S'MP'
S'MDAP'
tp562
F1
s(S'CP'
S'CADVADVDPP'
tp563
F3
s(g145
S'DPPP'
tp564
F82
s(g317
S'ADVADVPPNP'
tp565
F1
s(g422
S'ADDADVPP'
tp566
F1
s(S'DP'
S'DDADVADVNP'
tp567
F1
s(g204
S'ADVPNP'
tp568
F5
s(S'PP'
S'PPDP'
tp569
F37
s(S'VP'
S'ADVVANNP'
tp570
F1
s(S'MP'
S'MAVDP'
tp571
F1
s(S'NP'
S'NNNCCP'
tp572
F1
s(S'DP'
S'DDCP'
tp573
F1
s(S'DP'
S'ADVDDNNP'
tp574
F1
s(S'PP'
S'PPADVDDP'
tp575
F1
s(S'AP'
S'ADVADVAADP'
tp576
F1
s(S'MP'
S'MMAVP'
tp577
F1
s(g88
S'NAP'
tp578
F60
s(g280
S'NNAAP'
tp579
F1
s(g526
S'ADVAVNP'
tp580
F1
s(g209
S'VVP'
tp581
F38
s(g346
S'DDAPP'
tp582
F4
s(g469
S'ADVADVPVP'
tp583
F2
s(S'DP'
S'ADVADVADVDDVP'
tp584
F1
s(S'CP'
S'CADDADVPP'
tp585
F1
s(g12
S'APNP'
tp586
F22
s(S'NP'
p587
S'NNNACCP'
tp588
F1
s(S'DP'
S'DDDAPP'
tp589
F1
s(g145
S'DDVVP'
tp590
F5
s(g209
S'VVVNP'
tp591
F5
s(g497
S'CDDAAAPP'
tp592
F1
s(S'NP'
S'NAMP'
tp593
F1
s(S'MP'
S'MVANP'
tp594
F1
s(S'MP'
S'MVNNP'
tp595
F3
s(g302
S'CDPP'
tp596
F248
s(S'MP'
S'MVVNNP'
tp597
F2
s(g307
S'ADDDP'
tp598
F1
s(S'NP'
S'NNDP'
tp599
F10
s(g443
S'VDDDP'
tp600
F1
s(g190
S'ADVADVAVCP'
tp601
F1
s(g17
S'ADVCDP'
tp602
F7
s(S'VP'
S'ADVADVVNP'
tp603
F3
s(S'VP'
S'ADVADVVCP'
tp604
F1
s(S'VP'
S'VADVADVDP'
tp605
F1
s(g92
S'PPNNP'
tp606
F5
s(S'NP'
S'NNADVADVVP'
tp607
F1
s(S'PP'
S'PPMP'
tp608
F2
s(S'PP'
S'PADVADVADVVVP'
tp609
F1
s(S'DP'
S'ADVADVDPP'
tp610
F5
s(g447
S'VAADP'
tp611
F3
s(g587
S'NADVAP'
tp612
F1
s(S'VP'
S'AVDDP'
tp613
F2
s(g95
S'DADVNP'
tp614
F4
s(g109
S'DDCCP'
tp615
F1
s(g66
S'DAP'
tp616
F30
s(g17
S'CADPP'
tp617
F25
s(g506
S'NADVAVP'
tp618
F1
s(S'PP'
S'PPAVP'
tp619
F2
s(g524
S'AVPP'
tp620
F2
s(S'MP'
S'AMVVP'
tp621
F1
s(S'CP'
S'CDPPPP'
tp622
F4
s(S'VP'
S'AAVDP'
tp623
F1
s(S'PP'
S'PANNP'
tp624
F1
s(S'VP'
S'VACCP'
tp625
F1
s(S'DP'
S'ADVDVVVP'
tp626
F1
s(g200
S'MVANNP'
tp627
F1
s(S'DP'
S'DADVADVPP'
tp628
F1
s(g66
S'DMP'
tp629
F3
s(S'CP'
S'CCADP'
tp630
F5
s(S'DP'
S'ADVDPP'
tp631
F19
s(S'CP'
S'ADVADVADVADVCDP'
tp632
F1
s(S'PP'
S'PADVADVNP'
tp633
F3
s(g145
S'ADPP'
tp634
F37
s(S'VP'
S'VADVPP'
tp635
F1
s(g41
S'DDAAPP'
tp636
F1
s(S'CP'
S'CCADVDDP'
tp637
F1
s(g35
S'ADVPVP'
tp638
F9
s(S'DP'
S'DDDDPP'
tp639
F4
s(g239
S'DAAP'
tp640
F3
s(S'VP'
S'ADVVANP'
tp641
F1
s(S'PP'
S'PAMP'
tp642
F1
s(S'PP'
S'ADVPDP'
tp643
F5
s(g377
S'ANNPP'
tp644
F2
s(g61
S'NCP'
tp645
F197
s(S'CP'
S'CADVDPPP'
tp646
F3
s(g80
S'NAAANP'
tp647
F1
s(g260
S'AAAPNP'
tp648
F1
s(g116
S'DDADVVVP'
tp649
F1
s(S'DP'
S'ADVVP'
tp650
F4
s(S'PP'
S'ADVPDDP'
tp651
F1
s(S'NP'
S'AANDP'
tp652
F1
s(g326
S'NNCCP'
tp653
F6
s(S'MP'
S'MNVP'
tp654
F9
s(S'NP'
S'AANAP'
tp655
F1
s(S'NP'
S'AANCCP'
tp656
F1
s(S'VP'
S'VAPP'
tp657
F5
s(S'MP'
S'MADVVANP'
tp658
F1
s(g237
S'ADVVDP'
tp659
F11
s(S'PP'
S'PPAAADP'
tp660
F1
s(g145
S'DADVPP'
tp661
F20
s(g350
S'AMP'
tp662
F6
s(S'MP'
S'ADVMNP'
tp663
F1
s(g151
S'ADVNNCP'
tp664
F1
s(S'AP'
S'ADVAPP'
tp665
F3
s(g300
S'ADVDAVP'
tp666
F2
s(S'CP'
S'AACDP'
tp667
F3
s(S'NP'
S'NADVADVACP'
tp668
F1
s(S'MP'
S'MADVADVVNNP'
tp669
F1
s(S'DP'
S'ADVDPPP'
tp670
F4
s(g66
S'DVP'
tp671
F188
s(S'VP'
S'AVNNP'
tp672
F1
s(S'NP'
S'ADVNPP'
tp673
F1
s(S'VP'
S'ADVADVADVVVNP'
tp674
F1
s(S'CP'
S'AAACDP'
tp675
F1
s(S'AP'
S'AVP'
tp676
F33
s(g88
S'NADVVP'
tp677
F12
s(S'CP'
S'CDAAAPP'
tp678
F1
s(g66
S'DDNP'
tp679
F38
s(S'VP'
S'ADVVPPP'
tp680
F1
s(g145
S'DDPPP'
tp681
F10
s(g369
S'ADVNMP'
tp682
F2
s(g45
S'NNAP'
tp683
F6
s(g12
S'PPANP'
tp684
F3
s(S'PP'
S'PPCCP'
tp685
F1
s(S'CP'
S'CDADVPP'
tp686
F10
s(g19
S'VNP'
tp687
F173
s(g19
S'VANP'
tp688
F20
s(g202
S'VADVAP'
tp689
F8
s(S'VP'
S'ADVADVVVDP'
tp690
F1
s.