ccollections
defaultdict
p1
(c__builtin__
float
p2
tRp3
(S'DP'
p4
S'ADVADVADVADVDDNP'
tp5
F1
s(S'DP'
p6
S'ADDPP'
tp7
F3
s(S'DP'
p8
S'DDAP'
tp9
F2
s(S'VP'
p10
S'ADVVVNP'
tp11
F1
s(S'CP'
S'CCDDDDP'
tp12
F2
s(S'DP'
S'DAANNP'
tp13
F1
s(S'DP'
p14
S'ADVADVDAPPP'
tp15
F1
s(S'NP'
p16
S'ADVNAPP'
tp17
F2
s(S'PP'
p18
S'PADVNP'
tp19
F8
s(S'DP'
S'DNP'
tp20
F82
s(S'CP'
S'CDADVADVPPP'
tp21
F2
s(S'NP'
p22
S'ADVNDP'
tp23
F4
s(S'PP'
p24
S'AAPDDP'
tp25
F1
s(S'CP'
p26
S'CDPPP'
tp27
F31
s(S'VP'
p28
S'AVADVDDP'
tp29
F2
s(S'VP'
p30
S'VADP'
tp31
F5
s(S'DP'
p32
S'DAAP'
tp33
F2
s(S'PP'
p34
S'ADVADVPPPPP'
tp35
F1
s(S'PP'
S'PPPPPP'
tp36
F1
s(S'VP'
S'VAVP'
tp37
F2
s(S'CP'
p38
S'ADVCAADDP'
tp39
F1
s(S'DP'
p40
S'ADNNP'
tp41
F1
s(S'PP'
p42
S'PADVADVADVADVDDP'
tp43
F1
s(g42
S'APVP'
tp44
F4
s(S'MP'
p45
S'MVDP'
tp46
F15
s(S'PP'
S'PPPP'
tp47
F18
s(g8
S'DDDNP'
tp48
F3
s(S'VP'
p49
S'VACP'
tp50
F2
s(S'PP'
p51
S'PPAAP'
tp52
F1
s(S'DP'
S'DADVVP'
tp53
F2
s(S'NP'
p54
S'NDDDP'
tp55
F1
s(g22
S'NADVVVP'
tp56
F1
s(S'VP'
p57
S'VCP'
tp58
F47
s(S'NP'
S'NMMP'
tp59
F2
s(S'DP'
p60
S'ADVADVDDVVP'
tp61
F1
s(g42
S'PAP'
tp62
F42
s(S'MP'
p63
S'MMVVP'
tp64
F1
s(S'PP'
p65
S'ADVPPVP'
tp66
F1
s(S'NP'
p67
S'ANPPP'
tp68
F3
s(S'VP'
S'VVADVADVADVADVDP'
tp69
F1
s(S'CP'
p70
S'CADPPPP'
tp71
F1
s(S'PP'
p72
S'PNP'
tp73
F69
s(S'VP'
S'VVADVADVNP'
tp74
F1
s(g4
S'DDP'
tp75
F34
s(S'NP'
p76
S'NNNPP'
tp77
F2
s(S'PP'
p78
S'PAAP'
tp79
F5
s(S'MP'
p80
S'MNAP'
tp81
F1
s(S'NP'
p82
S'NMP'
tp83
F26
s(S'PP'
S'PAPP'
tp84
F3
s(g30
S'AAVNP'
tp85
F3
s(g72
S'PDP'
tp86
F68
s(S'DP'
p87
S'DDPPPPP'
tp88
F1
s(S'VP'
S'VAMP'
tp89
F1
s(S'MP'
p90
S'MNNVP'
tp91
F1
s(S'NP'
S'AAANVVP'
tp92
F1
s(S'MP'
S'MADVVNP'
tp93
F2
s(S'NP'
p94
S'NNADVMP'
tp95
F1
s(S'VP'
p96
S'AVAAP'
tp97
F1
s(S'NP'
S'NADVADVADVVP'
tp98
F1
s(g24
S'PADVPP'
tp99
F3
s(S'NP'
p100
S'NNADVCP'
tp101
F1
s(S'NP'
p102
S'ADVNACP'
tp103
F1
s(S'DP'
p104
S'DPPPP'
tp105
F5
s(g82
S'NACP'
tp106
F9
s(S'AP'
S'ADVAVP'
tp107
F1
s(g82
S'NCCP'
tp108
F31
s(S'AP'
S'AAAADP'
tp109
F1
s(g94
S'NADVADVDDP'
tp110
F1
s(S'NP'
S'NNCP'
tp111
F32
s(S'DP'
S'ADVDDPP'
tp112
F3
s(S'DP'
p113
S'DDDDP'
tp114
F3
s(S'DP'
S'DDAPP'
tp115
F1
s(g28
S'AVNP'
tp116
F3
s(S'VP'
S'VADVVP'
tp117
F1
s(g80
S'AMMVP'
tp118
F1
s(S'CP'
S'CCCDP'
tp119
F4
s(g42
S'ADVPPNNP'
tp120
F1
s(g78
S'APDP'
tp121
F12
s(g10
S'ADVVNNP'
tp122
F2
s(g57
S'VVANP'
tp123
F2
s(g80
S'MADVVAANP'
tp124
F1
s(S'MP'
S'ADVMPP'
tp125
F1
s(S'PP'
p126
S'ADVPNNP'
tp127
F1
s(S'PP'
p128
S'PCCP'
tp129
F3
s(S'NP'
S'ADVANCP'
tp130
F1
s(S'DP'
S'DNNP'
tp131
F34
s(S'CP'
S'CADVDDPP'
tp132
F2
s(S'DP'
S'DPPPPP'
tp133
F2
s(S'VP'
p134
S'VVNNNP'
tp135
F1
s(S'VP'
S'AAVDDP'
tp136
F1
s(g104
S'ADDNP'
tp137
F2
s(S'NP'
p138
S'NNNVP'
tp139
F1
s(S'VP'
S'VDP'
tp140
F75
s(S'PP'
p141
S'PADVVP'
tp142
F4
s(S'VP'
S'VADVACCP'
tp143
F1
s(S'PP'
p144
S'APAP'
tp145
F2
s(S'AP'
p146
S'APP'
tp147
F18
s(S'AP'
p148
S'AAAPPP'
tp149
F1
s(g146
S'AAP'
tp150
F6
s(g94
S'ADVADVNDP'
tp151
F1
s(g63
S'MVVCP'
tp152
F1
s(g104
S'DAAVP'
tp153
F2
s(S'CP'
p154
S'CDDDDPP'
tp155
F2
s(S'MP'
S'MVVVNP'
tp156
F1
s(S'PP'
p157
S'PAANP'
tp158
F3
s(S'NP'
S'NADVADVPPP'
tp159
F1
s(g141
S'PPVVP'
tp160
F4
s(S'VP'
p161
S'VAAAP'
tp162
F1
s(S'VP'
S'VVADVAAP'
tp163
F1
s(g45
S'MVNP'
tp164
F10
s(S'PP'
p165
S'PAVP'
tp166
F3
s(S'MP'
p167
S'ADVMVP'
tp168
F1
s(S'VP'
S'VVVPP'
tp169
F1
s(g165
S'APPPP'
tp170
F2
s(S'DP'
S'DADP'
tp171
F2
s(g28
S'VVAANP'
tp172
F1
s(S'AP'
S'ADVADP'
tp173
F4
s(S'CP'
S'ADVADVCDP'
tp174
F1
s(S'DP'
S'ADVDDP'
tp175
F1
s(S'PP'
p176
S'APDDP'
tp177
F1
s(S'VP'
S'ADVADVVVNP'
tp178
F1
s(S'VP'
p179
S'ADVADVVANP'
tp180
F1
s(S'NP'
S'ADVNAP'
tp181
F1
s(g28
S'VAP'
tp182
F35
s(S'PP'
p183
S'PPCP'
tp184
F1
s(S'AP'
S'ACCCP'
tp185
F1
s(g57
S'ADVVNP'
tp186
F6
s(S'MP'
S'MNCP'
tp187
F1
s(g57
S'VVNP'
tp188
F28
s(g179
S'ADVVAANP'
tp189
F1
s(S'PP'
p190
S'ADVPPPP'
tp191
F1
s(g42
S'PPVP'
tp192
F30
s(g57
S'VADVDP'
tp193
F8
s(g96
S'VVADVAP'
tp194
F2
s(S'VP'
S'VAAP'
tp195
F9
s(S'NP'
p196
S'ANDP'
tp197
F2
s(S'NP'
S'NVVP'
tp198
F30
s(S'PP'
p199
S'AAPVP'
tp200
F3
s(g144
S'PPADP'
tp201
F2
s(g30
S'VMP'
tp202
F2
s(g28
S'VVNNP'
tp203
F8
s(S'CP'
p204
S'CDAPP'
tp205
F12
s(S'VP'
p206
S'VVAAP'
tp207
F1
s(S'VP'
S'VVAADDP'
tp208
F1
s(g104
S'ADNP'
tp209
F9
s(g78
S'PADP'
tp210
F10
s(g82
S'NNMP'
tp211
F6
s(g40
S'ADVADVDVP'
tp212
F1
s(g14
S'DADVAP'
tp213
F1
s(g4
S'DAPP'
tp214
F17
s(S'VP'
p215
S'ADVADVVPP'
tp216
F1
s(S'VP'
S'ADVADVVDP'
tp217
F2
s(S'VP'
p218
S'AVVNP'
tp219
F1
s(g24
S'PPPDP'
tp220
F3
s(S'DP'
S'DDAAVP'
tp221
F1
s(S'AP'
S'AAPPP'
tp222
F2
s(S'DP'
S'DAAANP'
tp223
F1
s(S'DP'
S'DADVANP'
tp224
F1
s(S'VP'
p225
S'VAAPP'
tp226
F1
s(S'DP'
p227
S'ADVDNP'
tp228
F11
s(g190
S'PPPPANP'
tp229
F1
s(S'NP'
p230
S'ANAP'
tp231
F1
s(g57
S'VVPP'
tp232
F14
s(S'PP'
p233
S'ADVPAAPP'
tp234
F1
s(S'MP'
S'MVPP'
tp235
F2
s(S'DP'
p236
S'ADVP'
tp237
F6
s(g204
S'CDDPPP'
tp238
F8
s(S'CP'
p239
S'CADVDADVADVPPP'
tp240
F1
s(S'NP'
p241
S'NNPP'
tp242
F13
s(g45
S'MVVDP'
tp243
F1
s(S'DP'
p244
S'DADVPPP'
tp245
F2
s(g82
S'ANVP'
tp246
F9
s(S'DP'
p247
S'DNNNP'
tp248
F3
s(S'DP'
S'ADVDDVP'
tp249
F2
s(g233
S'PADVADVVP'
tp250
F1
s(g96
S'VADVDDP'
tp251
F1
s(S'PP'
S'PMMP'
tp252
F1
s(S'PP'
S'PVVVP'
tp253
F3
s(g126
S'PMP'
tp254
F7
s(S'CP'
S'CCDP'
tp255
F38
s(S'MP'
S'AMVP'
tp256
F1
s(g14
S'AADDPP'
tp257
F1
s(g67
S'NVVVP'
tp258
F3
s(g26
S'CDDDPP'
tp259
F2
s(S'CP'
S'AAACCADVDP'
tp260
F1
s(S'CP'
S'CDAAPP'
tp261
F2
s(S'VP'
p262
S'VVVDP'
tp263
F3
s(S'PP'
S'PDDDDP'
tp264
F1
s(g165
S'PNNNP'
tp265
F3
s(S'CP'
p266
S'CCCCDP'
tp267
F1
s(g190
S'AAPNP'
tp268
F1
s(S'PP'
p269
S'PADVVVP'
tp270
F1
s(g42
S'PPP'
tp271
F48
s(S'NP'
p272
S'NNADVDP'
tp273
F1
s(g272
S'NAVP'
tp274
F13
s(g51
S'PADVAP'
tp275
F1
s(S'NP'
p276
S'ANNPPP'
tp277
F1
s(g28
S'ADVVAPP'
tp278
F1
s(g126
S'PADDP'
tp279
F3
s(g45
S'MACCP'
tp280
F1
s(g4
S'ADVDVP'
tp281
F7
s(S'PP'
S'PPADVADVNP'
tp282
F1
s(g16
S'NAAAP'
tp283
F1
s(g276
S'NCCCP'
tp284
F2
s(S'DP'
p285
S'ADVADVDNNP'
tp286
F1
s(S'AP'
p287
S'AADVVP'
tp288
F1
s(g233
S'PPPPDP'
tp289
F1
s(S'VP'
p290
S'VAAACCP'
tp291
F1
s(g87
S'ADVADVDNP'
tp292
F1
s(S'AP'
p293
S'AAADVCP'
tp294
F1
s(g57
S'VPP'
tp295
F53
s(S'CP'
p296
S'ADVCCDP'
tp297
F1
s(g138
S'NNNADVCP'
tp298
F1
s(g236
S'ADVDDNP'
tp299
F5
s(S'NP'
S'NNNCP'
tp300
F1
s(g18
S'PADVDP'
tp301
F9
s(g32
S'DANNP'
tp302
F2
s(g204
S'CDDPP'
tp303
F31
s(g113
S'DAAPP'
tp304
F3
s(g42
S'PVVP'
tp305
F32
s(S'AP'
S'AACP'
tp306
F2
s(g161
S'ADVVCP'
tp307
F4
s(g57
S'VPPP'
tp308
F19
s(S'VP'
p309
S'VVPPP'
tp310
F3
s(g78
S'PPAP'
tp311
F10
s(g4
S'DVVP'
tp312
F26
s(g100
S'ANMP'
tp313
F1
s(S'AP'
p314
S'APPP'
tp315
F1
s(S'PP'
S'ADVPPP'
tp316
F1
s(g22
S'ADVADVNVP'
tp317
F1
s(g290
S'VVVP'
tp318
F8
s(S'CP'
S'CADVDPP'
tp319
F8
s(g247
S'ADVDADVADVPPP'
tp320
F1
s(S'DP'
p321
S'ADVDNNNP'
tp322
F1
s(S'NP'
p323
S'ANCP'
tp324
F8
s(g227
S'DCP'
tp325
F4
s(g60
S'DADVCP'
tp326
F1
s(g134
S'VVVNNNP'
tp327
F1
s(g236
S'DDDP'
tp328
F13
s(g22
S'ANVVP'
tp329
F3
s(g57
S'VVDP'
tp330
F30
s(g82
S'NPPP'
tp331
F15
s(g78
S'PPAPP'
tp332
F1
s(g4
S'DAVP'
tp333
F5
s(g148
S'ACP'
tp334
F17
s(g42
S'PPNP'
tp335
F28
s(g321
S'DADVADVPPP'
tp336
F2
s(S'PP'
p337
S'AAAAPDP'
tp338
F1
s(S'DP'
S'AADVP'
tp339
F1
s(g157
S'PPPADVAAP'
tp340
F1
s(S'CP'
S'CCCDDP'
tp341
F1
s(S'AP'
S'ADP'
tp342
F69
s(g233
S'ADVPPDDP'
tp343
F1
s(g236
S'DDAVP'
tp344
F1
s(g190
S'APVVP'
tp345
F1
s(S'NP'
p346
S'AAANNCP'
tp347
F1
s(S'DP'
p348
S'DVVVVP'
tp349
F1
s(S'PP'
S'APPAP'
tp350
F1
s(g262
S'VVPPPP'
tp351
F2
s(S'VP'
S'ADVADVVNNP'
tp352
F1
s(S'VP'
p353
S'AVDP'
tp354
F9
s(S'PP'
S'PCCCP'
tp355
F1
s(S'VP'
p356
S'VVAP'
tp357
F13
s(S'NP'
S'NNAPP'
tp358
F2
s(S'PP'
p359
S'PADVADVDP'
tp360
F3
s(S'VP'
S'AAVCP'
tp361
F1
s(g241
S'NPP'
tp362
F63
s(S'NP'
S'ADVNADVPP'
tp363
F1
s(S'NP'
S'NVP'
tp364
F73
s(g51
S'PPVVVP'
tp365
F1
s(g337
S'PAAVP'
tp366
F3
s(g100
S'NAAPP'
tp367
F2
s(g144
S'PPPPVP'
tp368
F1
s(g57
S'VDDP'
tp369
F20
s(g16
S'ADVADVNACP'
tp370
F1
s(S'AP'
S'AAADVDP'
tp371
F1
s(g80
S'MVADVPPP'
tp372
F1
s(g14
S'AADDNP'
tp373
F1
s(g272
S'ANPP'
tp374
F14
s(g42
S'PPPPP'
tp375
F4
s(S'DP'
S'ADVDPP'
tp376
F13
s(g34
S'ADVADVPPCP'
tp377
F1
s(g287
S'ADVADVAVP'
tp378
F1
s(g104
S'ADDP'
tp379
F3
s(g70
S'CAADPP'
tp380
F2
s(g272
S'NAACP'
tp381
F3
s(g72
S'PNNP'
tp382
F31
s(g126
S'APNNP'
tp383
F2
s(S'DP'
S'DAAANNP'
tp384
F1
s(S'NP'
S'NAADVACCP'
tp385
F1
s(g57
S'AVAP'
tp386
F5
s(S'MP'
p387
S'MMVP'
tp388
F2
s(S'PP'
S'PADVDDP'
tp389
F2
s(g22
S'ADVNCP'
tp390
F10
s(g146
S'AADP'
tp391
F20
s(S'NP'
p392
S'NAPPP'
tp393
F1
s(S'CP'
S'ACDP'
tp394
F12
s(g30
S'VCCP'
tp395
F11
s(S'NP'
S'ANADVADVVVP'
tp396
F1
s(S'VP'
S'ADVADVADVVVP'
tp397
F1
s(S'CP'
S'CDADVPPP'
tp398
F2
s(S'DP'
S'ADVDDDP'
tp399
F2
s(g309
S'VVVVNP'
tp400
F1
s(g236
S'DDDPP'
tp401
F3
s(g230
S'AANNCP'
tp402
F1
s(g287
S'ADVAAPP'
tp403
F1
s(S'AP'
S'AAVVP'
tp404
F1
s(S'NP'
S'NPPPP'
tp405
F2
s(g4
S'DDDPPP'
tp406
F1
s(g227
S'DADVDP'
tp407
F2
s(S'MP'
p408
S'MVVCCP'
tp409
F1
s(S'PP'
S'APADVVP'
tp410
F1
s(g296
S'CCADVADP'
tp411
F1
s(S'NP'
S'ANAMMP'
tp412
F1
s(g215
S'ADVVVDP'
tp413
F1
s(S'PP'
S'PPPVP'
tp414
F2
s(g10
S'AAVAP'
tp415
F1
s(S'AP'
S'AADDP'
tp416
F5
s(g167
S'MADVNVP'
tp417
F1
s(g356
S'VAANP'
tp418
F5
s(S'PP'
S'PPPCP'
tp419
F1
s(g34
S'PPPDDP'
tp420
F1
s(g78
S'PANP'
tp421
F10
s(g60
S'AADNP'
tp422
F1
s(S'NP'
S'NADVDDP'
tp423
F2
s(S'MP'
S'MVVPPP'
tp424
F1
s(S'NP'
S'AANMP'
tp425
F1
s(g287
S'AAVP'
tp426
F2
s(g82
S'NAAP'
tp427
F10
s(g272
S'NDDP'
tp428
F9
s(S'VP'
S'VVADVDDP'
tp429
F2
s(g146
S'ACCP'
tp430
F1
s(S'VP'
S'AVPPP'
tp431
F1
s(S'AP'
p432
S'APPPP'
tp433
F1
s(g82
S'NDP'
tp434
F55
s(S'NP'
S'AAANVP'
tp435
F3
s(g4
S'DDVP'
tp436
F15
s(g38
S'CADVADVDAPPP'
tp437
F1
s(S'NP'
p438
S'AANVP'
tp439
F9
s(S'DP'
p440
S'ADDVP'
tp441
F2
s(S'VP'
S'VNNNP'
tp442
F1
s(S'PP'
S'ADVPAP'
tp443
F1
s(g42
S'PCP'
tp444
F5
s(g276
S'NNPPP'
tp445
F1
s(S'CP'
S'ADVADVCCDDDP'
tp446
F1
s(S'VP'
p447
S'VPPPP'
tp448
F1
s(g138
S'ANNPP'
tp449
F1
s(g34
S'PACP'
tp450
F1
s(S'NP'
S'NNNDP'
tp451
F2
s(S'MP'
S'MANCP'
tp452
F1
s(S'AP'
S'ADVACP'
tp453
F1
s(S'NP'
S'NNVP'
tp454
F29
s(S'MP'
S'MVCP'
tp455
F5
s(g204
S'CCDDP'
tp456
F10
s(g206
S'VVADVADVAP'
tp457
F1
s(g227
S'DADVNP'
tp458
F7
s(g276
S'NAAMP'
tp459
F1
s(S'CP'
S'ADVACCDP'
tp460
F1
s(g196
S'NNNNVP'
tp461
F1
s(g57
S'VVCP'
tp462
F14
s(g126
S'PADVADVPP'
tp463
F2
s(g272
S'AANCP'
tp464
F4
s(g353
S'VADVNP'
tp465
F8
s(g392
S'NNDDP'
tp466
F3
s(S'DP'
S'DDDDPPP'
tp467
F1
s(S'VP'
S'ADVVPP'
tp468
F2
s(g57
S'VNNP'
tp469
F16
s(g293
S'AADVDP'
tp470
F2
s(S'NP'
S'NADP'
tp471
F3
s(g4
S'DDNP'
tp472
F26
s(g76
S'NADVCP'
tp473
F3
s(g236
S'DDNNP'
tp474
F11
s(S'PP'
S'AAPPP'
tp475
F1
s(S'NP'
p476
S'ADVNAAP'
tp477
F1
s(S'CP'
p478
S'ADVADVCCDDP'
tp479
F1
s(S'NP'
S'ADVADVNCP'
tp480
F2
s(g104
S'AADPP'
tp481
F3
s(g387
S'MAVAP'
tp482
F1
s(g478
S'CDPPPPP'
tp483
F1
s(g138
S'NADVADVCCP'
tp484
F1
s(S'MP'
p485
S'MVVNP'
tp486
F3
s(S'DP'
p487
S'ADVDNNP'
tp488
F1
s(g204
S'ACDDP'
tp489
F1
s(S'AP'
S'AADVADVDDP'
tp490
F1
s(S'AP'
S'AAPP'
tp491
F2
s(S'VP'
S'VVCCP'
tp492
F7
s(S'PP'
S'APPNP'
tp493
F1
s(g104
S'DADVADVNP'
tp494
F1
s(g126
S'ADVPANP'
tp495
F2
s(g272
S'NAPP'
tp496
F5
s(g314
S'ADVADVADP'
tp497
F1
s(g54
S'NADVDP'
tp498
F5
s(g49
S'VVVCP'
tp499
F1
s(S'NP'
S'ANCCP'
tp500
F1
s(g225
S'VDDDP'
tp501
F2
s(g440
S'ADVADVADVADVDNP'
tp502
F1
s(g51
S'ADVPANNP'
tp503
F1
s(g296
S'CADDPP'
tp504
F2
s(g128
S'PAAAP'
tp505
F1
s(g126
S'PPPAP'
tp506
F2
s(g314
S'AADVADVCCP'
tp507
F1
s(g167
S'MVAP'
tp508
F6
s(S'PP'
S'PVP'
tp509
F67
s(g179
S'VADVPPP'
tp510
F1
s(g408
S'AAMVP'
tp511
F1
s(g65
S'PPPADVPPP'
tp512
F1
s(S'AP'
S'ADVAACP'
tp513
F1
s(S'NP'
S'ANNCP'
tp514
F2
s(S'VP'
S'VCCCCP'
tp515
F1
s(S'PP'
S'PPDDP'
tp516
F8
s(g28
S'AVCP'
tp517
F3
s(S'NP'
S'NAVVP'
tp518
F1
s(S'DP'
S'DPP'
tp519
F80
s(g16
S'ADVNVP'
tp520
F6
s(g4
S'DDPP'
tp521
F43
s(g6
S'DDADVPPP'
tp522
F1
s(g227
S'DANP'
tp523
F15
s(g476
S'NADVPP'
tp524
F2
s(S'PP'
S'ADVADVPPNP'
tp525
F1
s(S'NP'
S'NAAVP'
tp526
F3
s(S'MP'
S'MVVADVAAP'
tp527
F1
s(g199
S'PDDDP'
tp528
F1
s(S'DP'
p529
S'ADVDDAPP'
tp530
F1
s(g353
S'VADVCP'
tp531
F3
s(g16
S'NADVCCP'
tp532
F1
s(S'NP'
S'NNNVVP'
tp533
F1
s(g14
S'DCCP'
tp534
F1
s(g183
S'AAPDP'
tp535
F2
s(g42
S'PDDP'
tp536
F28
s(g87
S'ADPPP'
tp537
F2
s(g432
S'AADVADVCP'
tp538
F1
s(g190
S'APPPPP'
tp539
F1
s(g57
S'VVDDP'
tp540
F8
s(g487
S'DAANP'
tp541
F1
s(S'MP'
S'MADDP'
tp542
F1
s(g146
S'ADDP'
tp543
F11
s(g359
S'PNNNNP'
tp544
F1
s(S'PP'
S'ADVPPNP'
tp545
F2
s(S'CP'
S'CADVADVDPP'
tp546
F1
s(g4
S'DPPP'
tp547
F37
s(g447
S'VANNP'
tp548
F1
s(S'AP'
S'AAAP'
tp549
F1
s(S'AP'
S'AVVP'
tp550
F5
s(g87
S'DDADVADVNP'
tp551
F1
s(g126
S'ADVPNP'
tp552
F3
s(g42
S'PPDP'
tp553
F32
s(g485
S'MAVDP'
tp554
F2
s(S'DP'
S'DDPPPP'
tp555
F1
s(g239
S'CAADADVPP'
tp556
F1
s(g60
S'DDCP'
tp557
F1
s(g82
S'NAP'
tp558
F35
s(g65
S'ADVADVPPPP'
tp559
F1
s(g57
S'VVP'
tp560
F28
s(g272
S'NNVVP'
tp561
F6
s(S'PP'
S'ADVADVPVP'
tp562
F2
s(S'AP'
S'AAADP'
tp563
F3
s(g78
S'APNP'
tp564
F9
s(g236
S'DDVVP'
tp565
F3
s(S'VP'
p566
S'VVVNP'
tp567
F3
s(g90
S'MVANP'
tp568
F1
s(g113
S'ADVADVDDPP'
tp569
F2
s(g485
S'MVNNP'
tp570
F1
s(S'CP'
S'CDPP'
tp571
F73
s(g22
S'NNDP'
tp572
F12
s(g154
S'ADVCDP'
tp573
F9
s(g42
S'PPNNP'
tp574
F8
s(g65
S'ADVPAVP'
tp575
F2
s(S'NP'
S'NAAAAPP'
tp576
F1
s(S'PP'
S'ADVPPVVVP'
tp577
F1
s(g285
S'ADVADVDPP'
tp578
F1
s(g30
S'VAADP'
tp579
F2
s(g176
S'PPPADVNP'
tp580
F1
s(g346
S'NADVAP'
tp581
F2
s(g218
S'AVDDP'
tp582
F1
s(g529
S'DDCCP'
tp583
F1
s(g4
S'DAP'
tp584
F12
s(g204
S'CADPP'
tp585
F10
s(g78
S'PPAVP'
tp586
F1
s(S'MP'
S'MADVADVVDP'
tp587
F1
s(g42
S'PPDDDP'
tp588
F1
s(S'VP'
S'AVPP'
tp589
F3
s(g167
S'AMNP'
tp590
F1
s(S'CP'
p591
S'CDDPPPPP'
tp592
F1
s(g296
S'CDPPPP'
tp593
F3
s(g104
S'ADVADADVPP'
tp594
F1
s(S'VP'
S'AAVDP'
tp595
F3
s(g60
S'AADNNP'
tp596
F1
s(g269
S'APPP'
tp597
F6
s(S'DP'
S'ADPPPP'
tp598
F1
s(g348
S'DAPPP'
tp599
F1
s(S'DP'
S'DADVADVPP'
tp600
F1
s(g476
S'AANVVP'
tp601
F1
s(g165
S'PPPNP'
tp602
F2
s(g18
S'PADVADVNP'
tp603
F1
s(g4
S'ADPP'
tp604
F13
s(g196
S'NNADVVVP'
tp605
F2
s(g96
S'VADVPP'
tp606
F2
s(g14
S'DDAAPP'
tp607
F1
s(g266
S'CCADVDDP'
tp608
F1
s(g24
S'ADVPVP'
tp609
F7
s(g6
S'DDDDPP'
tp610
F4
s(S'VP'
S'ADVVANP'
tp611
F1
s(g126
S'PAMP'
tp612
F1
s(g144
S'ADVPDP'
tp613
F2
s(S'PP'
S'PPPVVP'
tp614
F2
s(g438
S'NCP'
tp615
F65
s(S'CP'
S'CADVDPPP'
tp616
F3
s(g356
S'ADVVVPP'
tp617
F1
s(S'NP'
S'ADVANDP'
tp618
F1
s(g104
S'ADVVP'
tp619
F1
s(S'CP'
S'CDADVPP'
tp620
F5
s(g247
S'AADADVPP'
tp621
F1
s(g22
S'AANDP'
tp622
F1
s(S'DP'
S'DADVNNP'
tp623
F1
s(g54
S'NNCCP'
tp624
F8
s(g90
S'MNVP'
tp625
F3
s(g144
S'PADVADVAP'
tp626
F1
s(g28
S'VAPP'
tp627
F6
s(g104
S'DADVPP'
tp628
F10
s(S'AP'
S'AMP'
tp629
F1
s(g591
S'CCADP'
tp630
F2
s(g102
S'ADVNNCP'
tp631
F1
s(g314
S'ADVAPP'
tp632
F2
s(g126
S'ADVADVPVVP'
tp633
F1
s(S'DP'
S'ADVDAVP'
tp634
F1
s(g26
S'AACDP'
tp635
F3
s(g323
S'NNNCCP'
tp636
F1
s(g70
S'CCADVADVDDP'
tp637
F1
s(g227
S'ADVDPPP'
tp638
F5
s(S'DP'
S'DVP'
tp639
F67
s(S'NP'
S'ADVNPP'
tp640
F1
s(g244
S'AAADVVP'
tp641
F1
s(S'NP'
S'NNCCCP'
tp642
F1
s(g146
S'AVP'
tp643
F10
s(g82
S'NADVVP'
tp644
F5
s(g196
S'NNADVADVVP'
tp645
F2
s(g6
S'DADDP'
tp646
F1
s(g4
S'DDPPP'
tp647
F16
s(g76
S'NNAP'
tp648
F3
s(S'CP'
S'AADVACCDP'
tp649
F1
s(g148
S'AADVMP'
tp650
F1
s(S'VP'
S'VNP'
tp651
F67
s(g566
S'VANP'
tp652
F7
s(S'VP'
S'VADVAP'
tp653
F2
s(g82
S'NADVPPP'
tp654
F1
s.