ccollections
defaultdict
p1
(c__builtin__
float
p2
tRp3
(S'NP'
p4
S'NNNAAVP'
tp5
F1
s(S'DP'
p6
S'DDPP'
tp7
F20
s(S'PP'
p8
S'ADVADVPADP'
tp9
F1
s(S'DP'
p10
S'DANP'
tp11
F6
s(S'VP'
p12
S'ADVVNP'
tp13
F2
s(S'NP'
S'NADVPP'
tp14
F1
s(g6
S'AADDNP'
tp15
F1
s(S'PP'
S'PPPPP'
tp16
F1
s(S'VP'
p17
S'VVNP'
tp18
F6
s(S'MP'
p19
S'MVVPP'
tp20
F1
s(g8
S'PPPNNP'
tp21
F1
s(S'PP'
p22
S'PPPNP'
tp23
F1
s(S'PP'
S'PPVP'
tp24
F6
s(S'VP'
p25
S'ADVVVNP'
tp26
F1
s(S'DP'
p27
S'DAAAVP'
tp28
F1
s(S'PP'
p29
S'PADVADVVVP'
tp30
F1
s(S'DP'
p31
S'DDDPP'
tp32
F2
s(S'PP'
p33
S'PDDDP'
tp34
F1
s(S'VP'
p35
S'VAAP'
tp36
F4
s(S'PP'
p37
S'PAPP'
tp38
F3
s(S'CP'
S'CAADPP'
tp39
F1
s(S'NP'
S'ANDP'
tp40
F2
s(S'NP'
p41
S'NVVP'
tp42
F8
s(g10
S'DNP'
tp43
F32
s(S'VP'
p44
S'VAACCP'
tp45
F1
s(S'PP'
p46
S'PNNP'
tp47
F7
s(S'AP'
S'ADVACP'
tp48
F1
s(g12
S'VVNNP'
tp49
F5
s(S'CP'
p50
S'CDAPP'
tp51
F4
s(S'VP'
p52
S'VVAAP'
tp53
F1
s(S'NP'
p54
S'NNNVVP'
tp55
F1
s(S'DP'
p56
S'DDAAP'
tp57
F1
s(S'CP'
p58
S'CDPPP'
tp59
F10
s(S'CP'
S'CADVADPP'
tp60
F1
s(S'DP'
p61
S'AAADPP'
tp62
F1
s(S'DP'
p63
S'ADNP'
tp64
F6
s(S'DP'
S'DCCP'
tp65
F1
s(S'NP'
p66
S'AANPP'
tp67
F1
s(S'VP'
p68
S'VADP'
tp69
F5
s(S'DP'
p70
S'DNNNNP'
tp71
F1
s(S'CP'
S'CADVADPPP'
tp72
F1
s(S'PP'
S'PADP'
tp73
F2
s(g41
S'ADVNCP'
tp74
F4
s(S'CP'
p75
S'AACCDDDP'
tp76
F1
s(S'DP'
S'ADPP'
tp77
F6
s(S'AP'
S'ADVAVP'
tp78
F1
s(S'PP'
p79
S'PAPPP'
tp80
F1
s(S'NP'
p81
S'ANDDP'
tp82
F1
s(S'AP'
p83
S'ADVACCCP'
tp84
F1
s(S'CP'
S'ACDP'
tp85
F5
s(g79
S'APPDP'
tp86
F1
s(S'PP'
S'PAAP'
tp87
F4
s(S'VP'
S'VVVNNNP'
tp88
F1
s(S'NP'
S'ANVVP'
tp89
F1
s(g4
S'NNVP'
tp90
F13
s(g81
S'NNACP'
tp91
F1
s(g63
S'DAPP'
tp92
F7
s(S'DP'
p93
S'DDAAPP'
tp94
F1
s(g68
S'VAP'
tp95
F16
s(g68
S'AVVP'
tp96
F1
s(S'MP'
p97
S'MVDP'
tp98
F1
s(S'PP'
p99
S'PADVANP'
tp100
F1
s(S'CP'
S'CAAADPP'
tp101
F1
s(S'PP'
p102
S'PPPP'
tp103
F7
s(S'NP'
p104
S'NNP'
tp105
F1
s(S'DP'
p106
S'DDDP'
tp107
F2
s(S'VP'
p108
S'VVDDP'
tp109
F2
s(S'VP'
p110
S'VACP'
tp111
F1
s(S'AP'
S'AAAVP'
tp112
F1
s(S'AP'
S'ADDP'
tp113
F8
s(g93
S'ADVDDNP'
tp114
F1
s(S'NP'
p115
S'NADVADVAPP'
tp116
F1
s(g99
S'PNNNNP'
tp117
F1
s(S'DP'
S'ADAP'
tp118
F1
s(S'PP'
p119
S'APADVVP'
tp120
F1
s(S'CP'
S'CCADVADP'
tp121
F1
s(g56
S'DAAANP'
tp122
F1
s(S'NP'
S'NADVACP'
tp123
F1
s(g10
S'DPPP'
tp124
F15
s(S'NP'
p125
S'NCCCP'
tp126
F2
s(g17
S'AAVAP'
tp127
F1
s(S'VP'
p128
S'VCP'
tp129
F16
s(S'PP'
p130
S'PPNNP'
tp131
F3
s(g128
S'VANNP'
tp132
F1
s(S'AP'
p133
S'AVVP'
tp134
F1
s(g46
S'PDDP'
tp135
F10
s(S'MP'
p136
S'MVADP'
tp137
F1
s(S'NP'
p138
S'NAADDP'
tp139
F1
s(g119
S'PPANNP'
tp140
F1
s(g115
S'NADVADVCP'
tp141
F1
s(g44
S'VADVADVAP'
tp142
F1
s(S'PP'
p143
S'ADVPNP'
tp144
F3
s(S'CP'
S'CDDPPP'
tp145
F2
s(g102
S'PPDP'
tp146
F9
s(g66
S'NMP'
tp147
F7
s(S'NP'
p148
S'NNPP'
tp149
F5
s(S'MP'
S'MVAP'
tp150
F2
s(S'NP'
p151
S'NADVDP'
tp152
F1
s(S'CP'
p153
S'CCCADVDP'
tp154
F1
s(S'VP'
p155
S'VAAAP'
tp156
F1
s(g130
S'PNP'
tp157
F26
s(S'NP'
p158
S'NNNNPP'
tp159
F1
s(S'NP'
p160
S'AAANMP'
tp161
F1
s(S'DP'
p162
S'DNNNP'
tp163
F4
s(g33
S'PCP'
tp164
F2
s(S'DP'
S'DDP'
tp165
F7
s(g130
S'PANP'
tp166
F4
s(g29
S'PPAAP'
tp167
F1
s(g54
S'NNNPP'
tp168
F1
s(S'VP'
p169
S'VCCP'
tp170
F5
s(S'DP'
S'ADVADPP'
tp171
F2
s(S'AP'
S'AADVADP'
tp172
F1
s(g46
S'PMP'
tp173
F3
s(S'DP'
S'DDAANP'
tp174
F1
s(g162
S'ADVADVDPP'
tp175
F2
s(S'CP'
p176
S'CCDP'
tp177
F15
s(g41
S'ANNDP'
tp178
F1
s(g66
S'NAP'
tp179
F10
s(S'MP'
S'AMVP'
tp180
F1
s(S'AP'
p181
S'ADVADVAVVP'
tp182
F1
s(S'AP'
p183
S'ACCP'
tp184
F2
s(g93
S'DAAVP'
tp185
F1
s(g54
S'NVVVP'
tp186
F1
s(g50
S'CDAAPP'
tp187
F3
s(g41
S'NDP'
tp188
F21
s(g110
S'VVVDP'
tp189
F1
s(S'PP'
S'PNNNP'
tp190
F2
s(g10
S'DVP'
tp191
F31
s(g35
S'VVP'
tp192
F9
s(g61
S'DDVP'
tp193
F6
s(g102
S'PDP'
tp194
F32
s(S'PP'
p195
S'PADVNP'
tp196
F3
s(S'CP'
S'CCADVADVDP'
tp197
F1
s(S'PP'
S'PPADVVP'
tp198
F1
s(S'PP'
p199
S'APNP'
tp200
F2
s(S'DP'
S'DDVVP'
tp201
F3
s(S'CP'
S'CADVADVDPP'
tp202
F1
s(g130
S'PPP'
tp203
F23
s(g104
S'NNNNCP'
tp204
F1
s(g33
S'PADVDDP'
tp205
F1
s(S'NP'
p206
S'NNVVP'
tp207
F3
s(g158
S'NAVP'
tp208
F1
s(g8
S'PADVAP'
tp209
F2
s(S'DP'
p210
S'DDNNNP'
tp211
F1
s(S'AP'
S'ANP'
tp212
F1
s(S'DP'
p213
S'ADVADVDDPP'
tp214
F1
s(S'NP'
p215
S'NNPPP'
tp216
F1
s(g12
S'VVCP'
tp217
F5
s(g58
S'CDPP'
tp218
F33
s(g37
S'APVVVP'
tp219
F1
s(g70
S'ADVDVP'
tp220
F3
s(g19
S'MVVNNP'
tp221
F1
s(S'NP'
S'NNDP'
tp222
F4
s(g155
S'VVADP'
tp223
F1
s(g25
S'ADVADVVVPP'
tp224
F1
s(g106
S'DPPPP'
tp225
F1
s(S'DP'
S'DDANP'
tp226
F1
s(g17
S'VPP'
tp227
F18
s(g4
S'NACP'
tp228
F3
s(g108
S'VDDDP'
tp229
F3
s(g138
S'NCCP'
tp230
F7
s(g50
S'ADVCDP'
tp231
F2
s(g33
S'AAPNNP'
tp232
F1
s(g31
S'ADPPP'
tp233
F2
s(S'CP'
p234
S'ADVADVCDP'
tp235
F1
s(g4
S'NNNCP'
tp236
F3
s(g199
S'PADVDP'
tp237
F2
s(S'NP'
p238
S'NNCP'
tp239
F12
s(S'NP'
p240
S'NADVVP'
tp241
F1
s(S'AP'
S'ACP'
tp242
F7
s(g50
S'CCDDP'
tp243
F6
s(g176
S'CDDPP'
tp244
F13
s(S'AP'
S'AAAAAPPP'
tp245
F1
s(g63
S'DAAPP'
tp246
F3
s(g46
S'PVVP'
tp247
F8
s(g75
S'CADPPP'
tp248
F2
s(S'AP'
S'AACP'
tp249
F1
s(g12
S'ADVVCP'
tp250
F3
s(g12
S'VVMP'
tp251
F1
s(g110
S'VPPP'
tp252
F2
s(g160
S'NADVAP'
tp253
F2
s(g10
S'DADVNP'
tp254
F4
s(g81
S'NNNNVP'
tp255
F1
s(S'VP'
p256
S'VVPPP'
tp257
F3
s(S'DP'
S'DAP'
tp258
F6
s(S'CP'
S'CADPP'
tp259
F5
s(S'DP'
p260
S'ADVADVP'
tp261
F1
s(S'NP'
p262
S'AANCP'
tp263
F1
s(g128
S'VDP'
tp264
F31
s(S'DP'
S'DVVP'
tp265
F6
s(S'NP'
S'NAAP'
tp266
F2
s(g46
S'AAPNP'
tp267
F2
s(g128
S'AVPP'
tp268
F1
s(g29
S'PPADP'
tp269
F1
s(S'MP'
p270
S'MVAPP'
tp271
F1
s(S'AP'
S'APPP'
tp272
F1
s(g119
S'ADVPPP'
tp273
F1
s(g93
S'ADVADPPP'
tp274
F1
s(S'VP'
p275
S'VNNP'
tp276
F6
s(S'CP'
p277
S'CADVDPP'
tp278
F3
s(g35
S'AAVDP'
tp279
F1
s(g238
S'NADP'
tp280
F1
s(g153
S'CCCDP'
tp281
F2
s(S'VP'
S'ADVVAP'
tp282
F1
s(S'DP'
p283
S'DDNP'
tp284
F7
s(g4
S'NNDDP'
tp285
F2
s(S'DP'
S'DDNNP'
tp286
F4
s(g41
S'ANCP'
tp287
F4
s(g195
S'AAPPP'
tp288
F1
s(S'NP'
S'AANVVP'
tp289
F1
s(S'PP'
S'ADVADVAPNP'
tp290
F1
s(S'DP'
p291
S'DCP'
tp292
F1
s(g283
S'ADVDPP'
tp293
F6
s(S'VP'
S'VVVNP'
tp294
F1
s(g104
S'ADVANVP'
tp295
F1
s(g213
S'DDDNNP'
tp296
F2
s(g155
S'ADVVNNP'
tp297
F1
s(S'AP'
S'AADP'
tp298
F8
s(g262
S'ADVADVNNCP'
tp299
F1
s(g33
S'APAAP'
tp300
F1
s(g66
S'ADVADVNCP'
tp301
F1
s(g148
S'ADVNADVCP'
tp302
F1
s(S'PP'
S'PAP'
tp303
F17
s(g10
S'DDADVPP'
tp304
F1
s(g115
S'NNADVDP'
tp305
F1
s(g260
S'AADPP'
tp306
F1
s(S'PP'
S'ADVPNNP'
tp307
F1
s(g102
S'ADVPVP'
tp308
F4
s(g128
S'VVDP'
tp309
F10
s(g148
S'NPPP'
tp310
F3
s(S'NP'
S'NNVVVP'
tp311
F2
s(S'MP'
S'MADVVCP'
tp312
F1
s(g102
S'PAMP'
tp313
F1
s(g63
S'DAVP'
tp314
F2
s(g12
S'AAAVNP'
tp315
F1
s(S'NP'
p316
S'NANP'
tp317
F1
s(g63
S'DNNP'
tp318
F15
s(g41
S'NCP'
tp319
F32
s(g133
S'AADDP'
tp320
F1
s(g277
S'CADVDPPP'
tp321
F1
s(g136
S'MVVNP'
tp322
F1
s(g52
S'AAVDDP'
tp323
F1
s(g102
S'PPNP'
tp324
F10
s(g160
S'NNNVP'
tp325
F1
s(g70
S'ADVVP'
tp326
F2
s(S'CP'
S'ACDDP'
tp327
F1
s(g81
S'ADVADVANPP'
tp328
F1
s(S'AP'
S'AAPP'
tp329
F2
s(g110
S'VVCCP'
tp330
F2
s(g83
S'AAADDP'
tp331
F1
s(S'AP'
S'AAADVDP'
tp332
F1
s(g56
S'DADVVVP'
tp333
F1
s(g99
S'APVP'
tp334
F2
s(S'VP'
S'VADVADVPP'
tp335
F1
s(g138
S'NNCCP'
tp336
F6
s(S'VP'
S'VVVP'
tp337
F2
s(S'AP'
S'ADVADP'
tp338
F3
s(S'DP'
S'DDDDP'
tp339
F1
s(g27
S'ADVP'
tp340
F2
s(S'AP'
S'ADP'
tp341
F22
s(g195
S'APAP'
tp342
F1
s(g81
S'NAPP'
tp343
F2
s(g183
S'APP'
tp344
F9
s(S'PP'
S'PADVVP'
tp345
F2
s(g151
S'NNNDP'
tp346
F1
s(g260
S'DDAVP'
tp347
F1
s(g25
S'VVVCP'
tp348
F1
s(g213
S'ADADVNP'
tp349
F1
s(g181
S'AADVDP'
tp350
F1
s(g106
S'DADVPP'
tp351
F7
s(g206
S'ANCCP'
tp352
F2
s(g110
S'VVPP'
tp353
F6
s(g283
S'DADVADVNP'
tp354
F1
s(g125
S'NNMP'
tp355
F1
s(g291
S'DADVADVNNP'
tp356
F1
s(S'MP'
S'MNVP'
tp357
F1
s(S'VP'
S'VVPPPP'
tp358
F1
s(g22
S'AAAPPDDP'
tp359
F1
s(g56
S'ADVDAVP'
tp360
F1
s(g143
S'PAAAP'
tp361
F1
s(g46
S'PAANP'
tp362
F2
s(g169
S'AVDP'
tp363
F6
s(g125
S'ANNVP'
tp364
F1
s(g138
S'ANVP'
tp365
F6
s(g270
S'MVVDDP'
tp366
F1
s(g316
S'ANAP'
tp367
F1
s(g256
S'VVAP'
tp368
F2
s(g275
S'VADVADVANP'
tp369
F1
s(g283
S'ADVDPPP'
tp370
F1
s(g102
S'PVP'
tp371
F30
s(g97
S'MVNP'
tp372
F3
s(g262
S'ADVNPP'
tp373
F1
s(g153
S'CCCDDP'
tp374
F1
s(g125
S'NNCCCP'
tp375
F1
s(S'AP'
S'AVP'
tp376
F6
s(S'CP'
S'ADVACDP'
tp377
F1
s(g153
S'CADVADVDDPP'
tp378
F1
s(g102
S'PAVP'
tp379
F3
s(g210
S'DDPPP'
tp380
F4
s(g215
S'NNAP'
tp381
F2
s(g41
S'NPP'
tp382
F27
s(g25
S'VAPP'
tp383
F1
s(g41
S'NVP'
tp384
F29
s(g66
S'NADVCP'
tp385
F1
s(g130
S'PAAVP'
tp386
F1
s(g25
S'VVADVADVDP'
tp387
F1
s(g234
S'CDADVPP'
tp388
F3
s(g128
S'VNP'
tp389
F28
s(S'VP'
S'VANP'
tp390
F3
s(S'VP'
S'VDDP'
tp391
F4
s(g102
S'PPDDP'
tp392
F1
s(S'VP'
S'VADVAP'
tp393
F2
s(g8
S'APDDP'
tp394
F1
s(S'PP'
S'PPADVNP'
tp395
F1
s(g199
S'APDP'
tp396
F4
s(g10
S'DPP'
tp397
F37
s(g240
S'ADVNAP'
tp398
F1
s(g81
S'ADVNVP'
tp399
F2
s.