ccollections
defaultdict
p1
(c__builtin__
float
p2
tRp3
(S'MP'
S'MMDP'
tp4
F1
s(S'CP'
S'ADVADVCCADP'
tp5
F2
s(S'DP'
p6
S'ADDPP'
tp7
F3
s(S'DP'
p8
S'DDAP'
tp9
F3
s(S'DP'
p10
S'DAANNP'
tp11
F2
s(S'AP'
S'AVVVP'
tp12
F1
s(S'PP'
p13
S'ADVADVPAP'
tp14
F1
s(S'PP'
p15
S'PAPP'
tp16
F9
s(S'PP'
p17
S'PADVNP'
tp18
F9
s(g8
S'DNP'
tp19
F178
s(S'NP'
p20
S'ADVNDP'
tp21
F4
s(S'NP'
S'ADVNPPP'
tp22
F1
s(S'CP'
p23
S'CDPPP'
tp24
F63
s(S'VP'
S'VADP'
tp25
F16
s(S'DP'
S'DNNNNP'
tp26
F1
s(S'NP'
p27
S'ADVNCCP'
tp28
F1
s(S'VP'
p29
S'AAVPPP'
tp30
F3
s(S'PP'
p31
S'PPPPPP'
tp32
F1
s(S'VP'
S'VAVP'
tp33
F2
s(S'PP'
p34
S'APPDP'
tp35
F3
s(S'DP'
p36
S'DAADP'
tp37
F1
s(S'DP'
p38
S'ADNNP'
tp39
F7
s(S'VP'
S'VADVVVP'
tp40
F1
s(S'MP'
p41
S'MDVP'
tp42
F1
s(S'VP'
p43
S'ADVVNP'
tp44
F6
s(S'MP'
p45
S'MVDP'
tp46
F13
s(S'PP'
p47
S'PADVANP'
tp48
F4
s(S'NP'
S'AANNPP'
tp49
F3
s(S'PP'
S'PPPP'
tp50
F49
s(S'DP'
S'DDDNP'
tp51
F7
s(S'VP'
S'VACP'
tp52
F8
s(S'AP'
S'AAAVP'
tp53
F1
s(S'PP'
S'PPAAP'
tp54
F1
s(S'VP'
p55
S'ADVVADVPP'
tp56
F1
s(S'DP'
S'DADVVP'
tp57
F4
s(S'PP'
S'PAANNP'
tp58
F1
s(S'NP'
p59
S'NDDDP'
tp60
F2
s(S'NP'
p61
S'NADVVVP'
tp62
F4
s(S'CP'
p63
S'CADVDAPP'
tp64
F2
s(S'NP'
S'ANADVPP'
tp65
F1
s(S'VP'
p66
S'VCP'
tp67
F92
s(S'NP'
p68
S'NMMP'
tp69
F9
s(S'DP'
p70
S'DDDNNP'
tp71
F2
s(S'PP'
p72
S'ADVPADP'
tp73
F1
s(S'PP'
p74
S'PAP'
tp75
F70
s(S'MP'
S'MMVVP'
tp76
F3
s(S'DP'
S'DDADVADVPP'
tp77
F1
s(S'PP'
S'ADVPPVP'
tp78
F2
s(S'NP'
p79
S'ANPPP'
tp80
F4
s(g34
S'PPADVDP'
tp81
F2
s(S'CP'
S'CADPPPP'
tp82
F1
s(S'PP'
p83
S'PNP'
tp84
F174
s(g59
S'ADVADVADVNNCP'
tp85
F1
s(S'AP'
S'AADVADVDP'
tp86
F1
s(S'PP'
S'PAAADP'
tp87
F1
s(S'DP'
p88
S'DDP'
tp89
F45
s(g20
S'NNNPP'
tp90
F5
s(S'VP'
p91
S'VCCP'
tp92
F19
s(S'MP'
p93
S'MCDP'
tp94
F3
s(S'DP'
p95
S'DDAANP'
tp96
F2
s(S'NP'
S'NNADVADVCP'
tp97
F1
s(g79
S'NMP'
tp98
F47
s(S'PP'
S'PVVVVP'
tp99
F1
s(S'NP'
S'ADVNAPP'
tp100
F2
s(S'VP'
p101
S'AAVNP'
tp102
F8
s(S'VP'
S'VMMP'
tp103
F1
s(g83
S'PDP'
tp104
F178
s(S'DP'
p105
S'DDPPPPP'
tp106
F1
s(S'CP'
S'CDADVADVPP'
tp107
F3
s(S'VP'
S'VNNNNP'
tp108
F1
s(S'CP'
S'CDADVADVPPP'
tp109
F3
s(S'DP'
p110
S'ADVADVDAPP'
tp111
F1
s(S'VP'
p112
S'AVAAP'
tp113
F2
s(g55
S'AVVAP'
tp114
F1
s(S'PP'
p115
S'ADVPAAP'
tp116
F2
s(S'PP'
p117
S'PADVPP'
tp118
F2
s(S'VP'
p119
S'VVADVNP'
tp120
F1
s(S'MP'
S'MVACP'
tp121
F1
s(S'DP'
S'AADDVP'
tp122
F1
s(S'PP'
p123
S'AAPPPP'
tp124
F1
s(S'DP'
p125
S'DPPPP'
tp126
F10
s(S'DP'
p127
S'DDANP'
tp128
F3
s(S'PP'
p129
S'PADVADP'
tp130
F1
s(g68
S'NACP'
tp131
F26
s(S'AP'
S'ADVAVP'
tp132
F1
s(g68
S'NCCP'
tp133
F57
s(S'CP'
S'CDDDDPPP'
tp134
F1
s(S'NP'
p135
S'NNCP'
tp136
F64
s(S'DP'
p137
S'ADVDDPP'
tp138
F2
s(S'NP'
S'NADVADVVP'
tp139
F1
s(S'DP'
p140
S'DDDDP'
tp141
F1
s(S'VP'
p142
S'AVNP'
tp143
F18
s(S'VP'
S'VVADP'
tp144
F3
s(S'NP'
S'NNNAPP'
tp145
F1
s(S'DP'
S'DDAAANP'
tp146
F1
s(S'NP'
p147
S'NADVADVPP'
tp148
F1
s(S'MP'
p149
S'MAADVADP'
tp150
F1
s(S'PP'
S'ADVAPDP'
tp151
F4
s(S'AP'
p152
S'AADVADVADVAP'
tp153
F1
s(S'NP'
p154
S'ADVADVNADP'
tp155
F1
s(S'MP'
S'MVAPP'
tp156
F1
s(S'MP'
p157
S'MVPPP'
tp158
F1
s(S'NP'
S'ANADVVP'
tp159
F1
s(S'PP'
S'ADVPADVDP'
tp160
F1
s(S'VP'
S'VVVADVCP'
tp161
F1
s(S'NP'
p162
S'NNNVP'
tp163
F5
s(S'CP'
p164
S'CCCDP'
tp165
F6
s(S'VP'
p166
S'AVNNP'
tp167
F3
s(S'PP'
p168
S'ADVPPNNP'
tp169
F1
s(S'VP'
S'VCCCP'
tp170
F2
s(g72
S'PADVVVP'
tp171
F1
s(g17
S'APDP'
tp172
F33
s(S'NP'
p173
S'NAAPPP'
tp174
F1
s(S'VP'
S'ADVVNNP'
tp175
F1
s(S'DP'
p176
S'ADVADVDANNP'
tp177
F1
s(S'VP'
p178
S'AAVADVADVAAP'
tp179
F1
s(S'VP'
S'VVANP'
tp180
F3
s(S'MP'
S'MVADVNP'
tp181
F2
s(g91
S'ADVVVP'
tp182
F1
s(S'VP'
S'ADVADVVVDDP'
tp183
F1
s(S'NP'
p184
S'ADVADVNNPP'
tp185
F1
s(S'CP'
S'CCCADP'
tp186
F1
s(S'MP'
S'MAVNP'
tp187
F4
s(S'MP'
S'MAAVCP'
tp188
F1
s(S'NP'
S'ADVANCP'
tp189
F3
s(g6
S'DNNP'
tp190
F80
s(S'CP'
p191
S'CADVDDPP'
tp192
F1
s(S'NP'
S'NAMP'
tp193
F1
s(S'CP'
S'CDDPPPP'
tp194
F4
s(g191
S'CCADVDP'
tp195
F5
s(S'VP'
p196
S'AAVDDP'
tp197
F1
s(S'DP'
p198
S'ADDNP'
tp199
F1
s(S'PP'
S'ADVPADVNP'
tp200
F1
s(S'PP'
S'AAPPDP'
tp201
F1
s(S'PP'
p202
S'PPNNNNP'
tp203
F1
s(g47
S'PADVVP'
tp204
F6
s(S'VP'
S'ADVADVAVPPP'
tp205
F1
s(S'PP'
S'APAP'
tp206
F3
s(S'CP'
p207
S'ADVADVCDP'
tp208
F3
s(S'VP'
p209
S'VAPPP'
tp210
F1
s(S'AP'
S'AAP'
tp211
F13
s(g23
S'CADVADPP'
tp212
F2
s(S'DP'
p213
S'DADVADVNP'
tp214
F3
s(S'NP'
S'ADVANPP'
tp215
F1
s(S'VP'
p216
S'VVVVPP'
tp217
F1
s(g70
S'DAAVP'
tp218
F6
s(S'CP'
S'CCCADVADVADVDP'
tp219
F1
s(S'PP'
p220
S'PAANP'
tp221
F10
s(S'NP'
p222
S'ANVP'
tp223
F20
s(S'VP'
p224
S'VAACP'
tp225
F2
s(g41
S'MVNP'
tp226
F14
s(S'DP'
S'ADVADVDDP'
tp227
F1
s(S'NP'
S'ANAAP'
tp228
F1
s(S'AP'
p229
S'ADVAADP'
tp230
F3
s(g38
S'ADVADNP'
tp231
F1
s(S'PP'
p232
S'PAVP'
tp233
F27
s(S'PP'
p234
S'ADVADVPPVP'
tp235
F1
s(g176
S'ADVDVVP'
tp236
F1
s(S'VP'
p237
S'VVVPP'
tp238
F1
s(S'NP'
p239
S'NNADP'
tp240
F4
s(g34
S'APPPP'
tp241
F1
s(S'DP'
S'DADP'
tp242
F4
s(S'DP'
S'DAAAPPP'
tp243
F1
s(S'AP'
S'ADVADP'
tp244
F6
s(S'AP'
p245
S'APP'
tp246
F38
s(g70
S'ADVDDP'
tp247
F1
s(S'PP'
p248
S'APDDP'
tp249
F6
s(g166
S'ADVADVVVNP'
tp250
F1
s(g229
S'ADVAAVP'
tp251
F2
s(S'DP'
S'ADVDDDP'
tp252
F1
s(S'PP'
p253
S'APVP'
tp254
F16
s(S'PP'
p255
S'ADVADVAPPAANNP'
tp256
F1
s(S'CP'
p257
S'CCCCDDP'
tp258
F1
s(S'PP'
S'PPPNNP'
tp259
F1
s(g63
S'ADVCCDP'
tp260
F1
s(g220
S'PPVP'
tp261
F50
s(S'VP'
S'VAVVP'
tp262
F1
s(S'VP'
p263
S'VADVDP'
tp264
F10
s(g166
S'VAAP'
tp265
F19
s(S'DP'
S'ADVDDANP'
tp266
F1
s(S'NP'
p267
S'ANDP'
tp268
F18
s(S'NP'
p269
S'NVVP'
tp270
F37
s(g220
S'AAPVP'
tp271
F4
s(S'PP'
p272
S'PPADP'
tp273
F6
s(S'VP'
S'VMP'
tp274
F6
s(S'AP'
S'AAAVVP'
tp275
F2
s(S'VP'
p276
S'VVNNP'
tp277
F11
s(S'CP'
S'CDAPP'
tp278
F32
s(S'CP'
p279
S'CDDAAPP'
tp280
F1
s(S'DP'
S'ADVADVDDNNNP'
tp281
F1
s(S'MP'
p282
S'MMPP'
tp283
F2
s(g88
S'ADVADVP'
tp284
F3
s(S'VP'
S'VVAPP'
tp285
F1
s(g125
S'ADNP'
tp286
F23
s(S'PP'
p287
S'AAPVVP'
tp288
F1
s(S'AP'
S'AAAAADP'
tp289
F1
s(S'PP'
p290
S'PADP'
tp291
F25
s(S'VP'
p292
S'ADVVVCP'
tp293
F2
s(S'DP'
S'ADVDDNP'
tp294
F2
s(S'NP'
p295
S'ANDDP'
tp296
F1
s(S'DP'
S'ADDDDP'
tp297
F1
s(S'DP'
S'ADVADVDVP'
tp298
F1
s(S'VP'
S'VVVDDP'
tp299
F1
s(g110
S'ADVDAANP'
tp300
F1
s(S'DP'
S'DAPP'
tp301
F46
s(S'VP'
p302
S'AVVP'
tp303
F2
s(S'NP'
p304
S'NNNADVDDP'
tp305
F1
s(S'VP'
p306
S'VADVAAP'
tp307
F1
s(S'NP'
p308
S'NNNAVP'
tp309
F2
s(S'NP'
S'ADVNNPP'
tp310
F1
s(S'VP'
p311
S'AVVNP'
tp312
F2
s(S'PP'
S'PPPDP'
tp313
F10
s(S'CP'
S'CDDDDPP'
tp314
F1
s(S'VP'
S'VDDDDP'
tp315
F1
s(S'DP'
S'DADVANP'
tp316
F1
s(g237
S'VVAAP'
tp317
F3
s(S'VP'
p318
S'VAAPP'
tp319
F3
s(g137
S'ADVDNP'
tp320
F13
s(S'VP'
p321
S'VVPP'
tp322
F27
s(S'VP'
p323
S'VADVAPP'
tp324
F2
s(g287
S'ADVPAAPP'
tp325
F1
s(g70
S'ADADVPP'
tp326
F1
s(S'CP'
S'AACDDP'
tp327
F2
s(S'MP'
S'MVPP'
tp328
F9
s(g137
S'ADVP'
tp329
F13
s(S'MP'
p330
S'MVADP'
tp331
F1
s(g257
S'CDDPPP'
tp332
F17
s(S'PP'
S'PPAVVP'
tp333
F1
s(g135
S'NNPP'
tp334
F41
s(S'NP'
S'NADVADVADVACP'
tp335
F1
s(S'DP'
p336
S'DDDDNP'
tp337
F2
s(S'MP'
S'MVVDP'
tp338
F1
s(S'DP'
S'DADVPPP'
tp339
F3
s(S'PP'
p340
S'PPVVP'
tp341
F16
s(S'DP'
S'AADADVVVP'
tp342
F1
s(S'VP'
S'VVADVCCP'
tp343
F1
s(S'DP'
p344
S'DNNNP'
tp345
F9
s(S'PP'
p346
S'PADVADVVP'
tp347
F1
s(S'VP'
S'VADVDDP'
tp348
F2
s(S'VP'
S'ADVVCP'
tp349
F2
s(g74
S'PVVVP'
tp350
F3
s(S'PP'
p351
S'PMP'
tp352
F17
s(S'NP'
p353
S'NNMMP'
tp354
F1
s(g351
S'PAAPPP'
tp355
F2
s(g23
S'CCDP'
tp356
F85
s(S'NP'
p357
S'ADVNNDP'
tp358
F2
s(S'DP'
S'ADVADVADVDPP'
tp359
F1
s(S'MP'
p360
S'AMVP'
tp361
F2
s(S'VP'
S'VADVADVANP'
tp362
F1
s(S'DP'
S'DDDMP'
tp363
F1
s(S'NP'
S'NVVVP'
tp364
F8
s(S'CP'
p365
S'CDDDPP'
tp366
F7
s(g83
S'PADVADVADVADVNP'
tp367
F1
s(S'CP'
S'CDAAPP'
tp368
F8
s(g91
S'VVVDP'
tp369
F7
s(S'PP'
S'PNNNP'
tp370
F3
s(S'CP'
S'CCCCDP'
tp371
F1
s(S'PP'
p372
S'PADVADVADVNNP'
tp373
F1
s(S'AP'
S'AACCP'
tp374
F2
s(S'PP'
p375
S'AAPNP'
tp376
F3
s(S'CP'
p377
S'CADADVPP'
tp378
F1
s(g255
S'AAPADVDP'
tp379
F1
s(g306
S'ADVVVDP'
tp380
F5
s(g83
S'PPP'
tp381
F96
s(S'VP'
S'VADVADVADVANP'
tp382
F1
s(S'NP'
p383
S'NNADVDP'
tp384
F1
s(S'NP'
S'NAVP'
tp385
F16
s(g232
S'PADVAP'
tp386
F3
s(g173
S'ANNPPP'
tp387
F1
s(g336
S'DDNNNP'
tp388
F2
s(g149
S'AMDP'
tp389
F1
s(g115
S'PADDP'
tp390
F2
s(S'DP'
S'ADVDVP'
tp391
F4
s(S'PP'
S'PPADVADVNP'
tp392
F1
s(S'NP'
p393
S'NCCCP'
tp394
F4
s(g95
S'DADVADVPPP'
tp395
F3
s(S'AP'
S'AADVVP'
tp396
F1
s(S'DP'
S'ADVADVDNP'
tp397
F1
s(g66
S'VPP'
tp398
F113
s(g213
S'ADVDPPPP'
tp399
F2
s(g282
S'ADVADVMVP'
tp400
F1
s(S'CP'
S'CDAAAAPP'
tp401
F2
s(S'NP'
p402
S'NNNCP'
tp403
F10
s(g290
S'PADVDP'
tp404
F6
s(S'CP'
S'CDADVAPP'
tp405
F2
s(S'CP'
S'CDDDPPP'
tp406
F2
s(S'DP'
S'DANNP'
tp407
F1
s(S'MP'
S'MADVVAP'
tp408
F1
s(S'PP'
p409
S'PADVAAP'
tp410
F2
s(g257
S'CDDPP'
tp411
F60
s(g6
S'DAAPP'
tp412
F12
s(g253
S'PVVP'
tp413
F45
s(S'CP'
S'CADPPP'
tp414
F5
s(S'AP'
S'AACP'
tp415
F7
s(S'PP'
S'PMMP'
tp416
F3
s(S'VP'
p417
S'VPPP'
tp418
F21
s(S'VP'
S'AVCCP'
tp419
F1
s(S'CP'
S'CDADVADVAPP'
tp420
F1
s(S'VP'
S'VVPPP'
tp421
F3
s(S'AP'
p422
S'AADVADVCP'
tp423
F1
s(S'NP'
S'NANP'
tp424
F1
s(g6
S'DVVP'
tp425
F35
s(S'MP'
S'MADVADVVCCP'
tp426
F1
s(g27
S'NNNNDP'
tp427
F3
s(g239
S'ANMP'
tp428
F2
s(g83
S'PPAP'
tp429
F7
s(S'PP'
p430
S'ADVPPP'
tp431
F2
s(S'NP'
S'ADVADVNVP'
tp432
F1
s(g302
S'VVVP'
tp433
F3
s(g154
S'ADVNNCCP'
tp434
F1
s(S'DP'
p435
S'DDAAVP'
tp436
F2
s(S'PP'
S'PPDDDP'
tp437
F2
s(g79
S'ANCP'
tp438
F38
s(g6
S'DCP'
tp439
F12
s(S'VP'
p440
S'ADVVCCP'
tp441
F1
s(S'DP'
S'DADVADVADVNP'
tp442
F1
s(g8
S'DDDP'
tp443
F17
s(S'AP'
S'ADDDDP'
tp444
F1
s(g248
S'APNNNP'
tp445
F1
s(g377
S'CADVADVADPP'
tp446
F1
s(S'MP'
S'MAADP'
tp447
F1
s(S'NP'
p448
S'ANVVP'
tp449
F6
s(g321
S'VVDP'
tp450
F57
s(g402
S'NPPP'
tp451
F34
s(g253
S'PPAPP'
tp452
F2
s(S'DP'
S'AADVVP'
tp453
F2
s(S'AP'
S'APPP'
tp454
F5
s(g6
S'DAVP'
tp455
F20
s(g202
S'ADVADVPAPP'
tp456
F1
s(g61
S'NNNMP'
tp457
F1
s(S'AP'
S'ACP'
tp458
F38
s(g272
S'AAPAP'
tp459
F1
s(S'PP'
S'ADVPNNNP'
tp460
F1
s(g83
S'PPNP'
tp461
F55
s(S'AP'
S'ADVACCP'
tp462
F2
s(S'NP'
p463
S'NAADP'
tp464
F1
s(S'DP'
p465
S'ADVDAPP'
tp466
F4
s(S'NP'
p467
S'NNNNCCP'
tp468
F2
s(S'PP'
S'PPAAADP'
tp469
F1
s(S'VP'
p470
S'VAANNP'
tp471
F2
s(S'PP'
p472
S'APADVVVP'
tp473
F1
s(S'CP'
S'ADVADVADVACDP'
tp474
F1
s(g63
S'CDDADVPP'
tp475
F1
s(S'CP'
p476
S'CCCDDP'
tp477
F1
s(g245
S'ADP'
tp478
F111
s(S'CP'
p479
S'CCCDDDP'
tp480
F1
s(S'PP'
S'APMP'
tp481
F2
s(g207
S'CADVDPP'
tp482
F9
s(S'DP'
p483
S'ADDVVP'
tp484
F1
s(g47
S'APVVP'
tp485
F2
s(S'DP'
p486
S'ADVDAAPP'
tp487
F1
s(S'PP'
p488
S'ADVAPPDP'
tp489
F1
s(S'DP'
S'DDVVVP'
tp490
F1
s(g321
S'AVDP'
tp491
F26
s(S'NP'
p492
S'ANNVP'
tp493
F1
s(S'DP'
p494
S'DADVAPPP'
tp495
F1
s(g125
S'ADVDDNNP'
tp496
F2
s(S'NP'
p497
S'NNAPP'
tp498
F2
s(S'MP'
S'MNADVVP'
tp499
F2
s(g157
S'MPPDDP'
tp500
F1
s(g166
S'VVAPPP'
tp501
F1
s(S'VP'
S'AAVCP'
tp502
F1
s(S'NP'
S'NADVAPP'
tp503
F2
s(S'NP'
S'NNNP'
tp504
F1
s(g79
S'NVP'
tp505
F172
s(S'VP'
S'VVNNNNP'
tp506
F1
s(S'VP'
S'VVAADP'
tp507
F1
s(g497
S'NAAPP'
tp508
F2
s(g31
S'PPPPVP'
tp509
F1
s(g66
S'VDDP'
tp510
F43
s(g152
S'ADVADVADVADP'
tp511
F1
s(S'AP'
S'AAADVDP'
tp512
F1
s(g353
S'AANNVP'
tp513
F1
s(S'NP'
p514
S'AANVVP'
tp515
F3
s(S'DP'
p516
S'DADVAPP'
tp517
F2
s(S'DP'
S'DDADVADVNNP'
tp518
F1
s(S'NP'
S'NADVADVVVP'
tp519
F2
s(g269
S'ANPP'
tp520
F19
s(S'PP'
S'ADVPPDP'
tp521
F2
s(g472
S'PPPPP'
tp522
F8
s(S'MP'
S'MPDP'
tp523
F3
s(S'PP'
p524
S'ADVADVPDP'
tp525
F1
s(S'MP'
S'MVVPP'
tp526
F1
s(S'PP'
S'PPPNP'
tp527
F6
s(S'NP'
S'ADVADVNPP'
tp528
F1
s(S'NP'
p529
S'NPPPP'
tp530
F5
s(g344
S'ADDP'
tp531
F6
s(S'CP'
S'CDDDADVPP'
tp532
F1
s(S'CP'
S'CAADPP'
tp533
F10
s(S'DP'
S'DADVADVVP'
tp534
F1
s(g79
S'NAACP'
tp535
F6
s(g74
S'PNNP'
tp536
F52
s(g117
S'APNNP'
tp537
F5
s(S'DP'
S'DDAAP'
tp538
F1
s(g263
S'AVAP'
tp539
F2
s(g93
S'MMVP'
tp540
F7
s(g15
S'PADVDDP'
tp541
F1
s(g422
S'AAPPPP'
tp542
F1
s(S'NP'
S'ADVNCP'
tp543
F12
s(S'AP'
S'AADP'
tp544
F41
s(S'NP'
S'NAPPP'
tp545
F2
s(S'CP'
p546
S'ACDP'
tp547
F31
s(g83
S'PAAP'
tp548
F20
s(g311
S'VVNP'
tp549
F38
s(g463
S'NNACP'
tp550
F4
s(S'MP'
S'MDNNP'
tp551
F2
s(S'CP'
S'CDADVPPP'
tp552
F2
s(S'VP'
S'VAP'
tp553
F69
s(S'MP'
S'MMAAVP'
tp554
F2
s(g318
S'VVVVNP'
tp555
F1
s(S'MP'
S'MNVVP'
tp556
F1
s(S'DP'
S'DDDPP'
tp557
F10
s(S'CP'
S'ADVCDDP'
tp558
F2
s(S'NP'
p559
S'AANNCP'
tp560
F2
s(S'NP'
S'ANADVCP'
tp561
F1
s(S'NP'
S'ADVADVADVANVP'
tp562
F1
s(S'AP'
S'AAVVP'
tp563
F2
s(S'MP'
S'MAVPP'
tp564
F1
s(S'DP'
S'DDDPPP'
tp565
F5
s(g178
S'ADVAVDP'
tp566
F1
s(g198
S'ADAP'
tp567
F2
s(S'DP'
p568
S'DADVDP'
tp569
F2
s(g202
S'APADVVP'
tp570
F1
s(S'CP'
S'CCADVADP'
tp571
F1
s(S'AP'
S'AAACP'
tp572
F2
s(g88
S'ADADVVP'
tp573
F1
s(S'PP'
S'AAAAPMMP'
tp574
F1
s(S'AP'
S'AAADVADDP'
tp575
F1
s(g340
S'PPPVP'
tp576
F3
s(S'AP'
S'AADDP'
tp577
F4
s(g463
S'NNNADVADVVP'
tp578
F1
s(g224
S'VAANP'
tp579
F1
s(g267
S'NADVADVCP'
tp580
F2
s(S'DP'
S'DAAAAPP'
tp581
F2
s(g255
S'ADVPNNP'
tp582
F1
s(S'DP'
S'AAADDP'
tp583
F1
s(S'NP'
S'NVVVVP'
tp584
F1
s(g110
S'DADVADVDP'
tp585
F1
s(S'MP'
S'MPNP'
tp586
F1
s(g147
S'NNADVADVADVADVDP'
tp587
F1
s(S'MP'
S'MADP'
tp588
F3
s(g330
S'MVADVDP'
tp589
F1
s(g546
S'CCAADP'
tp590
F1
s(S'DP'
S'DDADVNP'
tp591
F1
s(g83
S'PANP'
tp592
F31
s(S'DP'
p593
S'AADNP'
tp594
F5
s(S'DP'
p595
S'DADVADVNNP'
tp596
F1
s(S'CP'
S'CADVADVADVADVDPP'
tp597
F1
s(g135
S'AANMP'
tp598
F1
s(g229
S'AAVP'
tp599
F12
s(S'NP'
p600
S'NAAP'
tp601
F11
s(g162
S'NDDP'
tp602
F29
s(g117
S'APPDDP'
tp603
F1
s(g140
S'ADVADVDPPP'
tp604
F1
s(S'AP'
S'ACCP'
tp605
F3
s(g184
S'ADVADVANCP'
tp606
F1
s(g435
S'DDDADVPP'
tp607
F1
s(S'VP'
S'AVPPP'
tp608
F4
s(S'AP'
S'APPPP'
tp609
F1
s(g79
S'NDP'
tp610
F112
s(S'PP'
S'ADVPAANP'
tp611
F2
s(g8
S'DDVP'
tp612
F34
s(S'DP'
p613
S'AADNNNP'
tp614
F1
s(S'DP'
p615
S'AADADVDP'
tp616
F1
s(S'MP'
S'MMADVVVP'
tp617
F1
s(g448
S'AANVP'
tp618
F5
s(S'DP'
S'DADVADVAPP'
tp619
F1
s(S'VP'
p620
S'VNNNP'
tp621
F5
s(g253
S'ADVPAP'
tp622
F3
s(S'CP'
S'ADVCADDP'
tp623
F1
s(g220
S'PCP'
tp624
F8
s(S'NP'
S'NNPPP'
tp625
F9
s(S'PP'
S'PAADP'
tp626
F9
s(S'NP'
S'ADVNNVP'
tp627
F1
s(S'NP'
S'ADVANVVP'
tp628
F1
s(S'VP'
p629
S'VPPPP'
tp630
F1
s(g375
S'PPPVVP'
tp631
F1
s(S'AP'
S'ADVADVAAVP'
tp632
F1
s(S'AP'
S'AADVAP'
tp633
F1
s(g514
S'NNNDP'
tp634
F1
s(S'AP'
S'ADVACP'
tp635
F1
s(S'PP'
S'AAPNNP'
tp636
F2
s(g323
S'AVVDP'
tp637
F2
s(g198
S'ADPPP'
tp638
F8
s(g393
S'NNAAVP'
tp639
F2
s(g110
S'ADVADVDADVADVDDP'
tp640
F1
s(g45
S'MVCP'
tp641
F7
s(S'CP'
S'CCDDP'
tp642
F21
s(S'NP'
S'NNADVVP'
tp643
F4
s(S'NP'
S'ADVANAP'
tp644
F1
s(S'NP'
p645
S'NNVVP'
tp646
F14
s(g440
S'VAAAAAP'
tp647
F1
s(g417
S'VVCP'
tp648
F16
s(S'NP'
S'AANCP'
tp649
F6
s(g263
S'VADVNP'
tp650
F12
s(S'VP'
S'VVDDDP'
tp651
F2
s(S'VP'
S'AVVPP'
tp652
F1
s(S'PP'
S'APPP'
tp653
F11
s(S'DP'
S'DDDDPPP'
tp654
F1
s(S'VP'
S'ADVVPP'
tp655
F3
s(S'CP'
S'CDAPPP'
tp656
F2
s(g321
S'VNNP'
tp657
F34
s(S'PP'
S'APADVNP'
tp658
F1
s(S'NP'
S'NADP'
tp659
F14
s(g351
S'AAAPPP'
tp660
F1
s(g88
S'DDNP'
tp661
F73
s(g279
S'ACADVDP'
tp662
F1
s(S'NP'
S'NADVCP'
tp663
F4
s(g36
S'DDNNP'
tp664
F15
s(S'PP'
S'AAPPP'
tp665
F2
s(S'CP'
S'CDDADVADVPP'
tp666
F1
s(g470
S'VPPPPP'
tp667
F1
s(g295
S'ADVANVP'
tp668
F4
s(S'NP'
p669
S'ADVNAAP'
tp670
F2
s(S'AP'
p671
S'AADVADP'
tp672
F1
s(g209
S'AAVNNP'
tp673
F1
s(S'NP'
p674
S'ADVADVNCP'
tp675
F2
s(S'PP'
S'AAPADVDDP'
tp676
F1
s(g88
S'AADPP'
tp677
F13
s(S'DP'
S'ADADVVVP'
tp678
F1
s(g595
S'AADVADDVP'
tp679
F1
s(S'NP'
S'ANVVVP'
tp680
F1
s(S'NP'
p681
S'NADVADVCCP'
tp682
F1
s(g93
S'MVVNP'
tp683
F1
s(g168
S'ADVAPVP'
tp684
F1
s(S'CP'
S'ACDDP'
tp685
F3
s(S'NP'
p686
S'ADVADVNNCP'
tp687
F1
s(S'NP'
S'AANDP'
tp688
F1
s(g595
S'DDDDDPP'
tp689
F1
s(g245
S'AAPP'
tp690
F10
s(g43
S'VVCCP'
tp691
F7
s(g34
S'APPNP'
tp692
F2
s(g198
S'DAAAPP'
tp693
F1
s(g13
S'ADVPANP'
tp694
F1
s(S'VP'
S'VADVADP'
tp695
F1
s(S'CP'
p696
S'CADVDAAPP'
tp697
F1
s(S'NP'
S'NAPP'
tp698
F17
s(S'NP'
S'NADVDP'
tp699
F4
s(g220
S'ADVPPPP'
tp700
F1
s(S'CP'
S'ADVADVCADP'
tp701
F1
s(g20
S'ANCCP'
tp702
F12
s(S'NP'
S'AANPP'
tp703
F7
s(S'VP'
p704
S'VDDDP'
tp705
F4
s(g448
S'NNMP'
tp706
F8
s(g257
S'CADDPP'
tp707
F2
s(g34
S'PAAAP'
tp708
F3
s(g129
S'ADVADVPNP'
tp709
F2
s(g34
S'PPADVADVVVP'
tp710
F2
s(S'CP'
S'CDDAPP'
tp711
F6
s(S'NP'
p712
S'ANAP'
tp713
F1
s(S'MP'
S'MVAP'
tp714
F2
s(S'VP'
S'VADVADVDDP'
tp715
F1
s(g83
S'PVP'
tp716
F161
s(S'VP'
S'VADVPPP'
tp717
F1
s(S'AP'
S'ADVADVAPP'
tp718
F1
s(S'CP'
S'ACDDDP'
tp719
F2
s(g173
S'NNNNNVP'
tp720
F1
s(g492
S'ADVNAVP'
tp721
F1
s(S'DP'
S'DVVVP'
tp722
F2
s(g321
S'VCCCCP'
tp723
F2
s(g686
S'ADVNACP'
tp724
F1
s(g83
S'PPDDP'
tp725
F13
s(g101
S'AVCP'
tp726
F3
s(S'NP'
S'NADVADVAP'
tp727
F1
s(g467
S'NAVVP'
tp728
F1
s(g8
S'DPP'
tp729
F202
s(S'NP'
p730
S'ADVNVP'
tp731
F8
s(g6
S'DDPP'
tp732
F92
s(g6
S'DDADVPPP'
tp733
F3
s(S'DP'
S'DDAVP'
tp734
F2
s(S'DP'
S'DANP'
tp735
F49
s(S'NP'
S'NADVPP'
tp736
F8
s(S'PP'
S'PPPMP'
tp737
F1
s(S'NP'
S'ADVADVADVNPP'
tp738
F1
s(g68
S'NADVADP'
tp739
F3
s(g351
S'AAPPVP'
tp740
F2
s(g497
S'NAAVP'
tp741
F4
s(g70
S'ADVADVADPP'
tp742
F1
s(S'PP'
S'PDDDP'
tp743
F1
s(S'VP'
S'VADVCP'
tp744
F5
s(S'NP'
S'NNNNAP'
tp745
F1
s(S'NP'
S'NNNNCP'
tp746
F8
s(g360
S'MDNP'
tp747
F4
s(S'NP'
S'NNAACP'
tp748
F1
s(g6
S'DADVPP'
tp749
F20
s(S'PP'
S'PADVPPP'
tp750
F2
s(g488
S'ADVADVPPP'
tp751
F1
s(S'AP'
S'AADDDDP'
tp752
F1
s(g409
S'AAPDP'
tp753
F4
s(S'VP'
p754
S'VVDDP'
tp755
F7
s(S'DP'
S'DDADVNNP'
tp756
F1
s(g613
S'DDADVVP'
tp757
F1
s(g83
S'PDDP'
tp758
F59
s(S'PP'
S'PPADVADVAVP'
tp759
F1
s(S'PP'
S'PCCP'
tp760
F1
s(S'PP'
S'ADVAPNP'
tp761
F2
s(g135
S'NNVP'
tp762
F46
s(g79
S'ADVADVADVADVNCCP'
tp763
F1
s(g234
S'APPPPP'
tp764
F1
s(g681
S'NNP'
tp765
F1
s(g8
S'ADVADPP'
tp766
F6
s(S'DP'
S'DAANP'
tp767
F6
s(S'AP'
S'ADDP'
tp768
F16
s(g704
S'ADVVVAP'
tp769
F1
s(g15
S'ADVPPNP'
tp770
F3
s(g276
S'VVVADVAPP'
tp771
F1
s(S'VP'
S'VVVCP'
tp772
F1
s(S'MP'
S'MDAP'
tp773
F1
s(g207
S'CADVADVDPP'
tp774
F2
s(g8
S'DPPP'
tp775
F83
s(g483
S'ADVADVDAAP'
tp776
F1
s(S'PP'
S'AAAPPNP'
tp777
F1
s(g127
S'DAVVP'
tp778
F3
s(S'DP'
S'AADPPP'
tp779
F1
s(S'AP'
S'AAAP'
tp780
F4
s(S'NP'
S'NNAVP'
tp781
F1
s(g216
S'AVVCP'
tp782
F2
s(S'AP'
S'AVVP'
tp783
F4
s(S'DP'
S'ADMMP'
tp784
F1
s(S'PP'
S'ADVPNP'
tp785
F11
s(g83
S'PPMP'
tp786
F4
s(g93
S'MAVDP'
tp787
F1
s(S'CP'
S'CDADVAPPP'
tp788
F1
s(g448
S'NNNCCP'
tp789
F1
s(S'DP'
S'ADVDCP'
tp790
F1
s(S'DP'
p791
S'DDCP'
tp792
F1
s(S'VP'
S'VVAP'
tp793
F12
s(S'PP'
S'PPADVDDP'
tp794
F1
s(S'NP'
S'ADVADVADVANCCP'
tp795
F1
s(S'DP'
S'AADADVNP'
tp796
F1
s(S'MP'
S'MNCCP'
tp797
F1
s(g645
S'NNADVADP'
tp798
F1
s(g68
S'NAP'
tp799
F52
s(g372
S'ADVADVPPPP'
tp800
F2
s(S'VP'
S'AVADVCP'
tp801
F1
s(g196
S'VADVANP'
tp802
F5
s(g142
S'VVP'
tp803
F22
s(g10
S'DDAPP'
tp804
F8
s(g47
S'ADVADVPVP'
tp805
F2
s(S'AP'
S'AAADP'
tp806
F3
s(g253
S'APNP'
tp807
F28
s(S'VP'
p808
S'VVVNNP'
tp809
F1
s(S'DP'
S'DDVVP'
tp810
F5
s(S'AP'
S'AAADDP'
tp811
F1
s(S'VP'
S'VVVNP'
tp812
F5
s(S'MP'
S'MNPP'
tp813
F1
s(S'CP'
S'CDDADVADVADVPP'
tp814
F1
s(g730
S'NNADVPP'
tp815
F1
s(g176
S'ADVADVDDPP'
tp816
F2
s(S'MP'
S'MVNNP'
tp817
F3
s(g23
S'CDPP'
tp818
F189
s(S'MP'
S'MVVNNP'
tp819
F2
s(g696
S'ADVCADP'
tp820
F1
s(g559
S'NNDP'
tp821
F30
s(g516
S'ADADVADVPP'
tp822
F1
s(g164
S'ADVCDP'
tp823
F8
s(S'AP'
S'ADVAAP'
tp824
F1
s(S'VP'
S'ADVADVVNP'
tp825
F4
s(g620
S'VAAVP'
tp826
F1
s(S'PP'
S'PADVADVDP'
tp827
F3
s(g704
S'ADVADVVCP'
tp828
F1
s(S'VP'
S'VADVADVDP'
tp829
F2
s(g15
S'PPNNP'
tp830
F13
s(S'MP'
p831
S'MPPNP'
tp832
F1
s(g593
S'ADVADVDPP'
tp833
F2
s(g66
S'VDP'
tp834
F171
s(S'NP'
S'NADVAP'
tp835
F4
s(g112
S'AVDDP'
tp836
F8
s(g125
S'DADVNP'
tp837
F12
s(g88
S'DAP'
tp838
F25
s(g23
S'CADPP'
tp839
F35
s(g383
S'NADVAVP'
tp840
F1
s(g346
S'PPAVP'
tp841
F4
s(S'VP'
S'ADVADVVCCP'
tp842
F2
s(g629
S'AVPP'
tp843
F13
s(g712
S'NADVADVMP'
tp844
F1
s(g476
S'CAADPPP'
tp845
F1
s(S'DP'
S'DDNNNNP'
tp846
F2
s(S'VP'
S'VVADVDP'
tp847
F2
s(g117
S'PAVVP'
tp848
F1
s(S'CP'
S'CDPPPP'
tp849
F5
s(S'VP'
S'VADVADVCCP'
tp850
F1
s(g292
S'AAVDP'
tp851
F5
s(S'DP'
S'AADNNP'
tp852
F2
s(S'PP'
S'PANNP'
tp853
F1
s(g529
S'NNDDP'
tp854
F4
s(S'DP'
S'ADPPPP'
tp855
F1
s(g36
S'DAPPP'
tp856
F4
s(S'DP'
S'DADVADVPP'
tp857
F5
s(g791
S'DMP'
tp858
F2
s(g568
S'ADVDPP'
tp859
F18
s(g79
S'NPP'
tp860
F165
s(S'PP'
S'PPAANP'
tp861
F2
s(S'NP'
p862
S'AAANPP'
tp863
F1
s(g430
S'PADVADVNP'
tp864
F1
s(S'PP'
S'PPPPNP'
tp865
F2
s(g8
S'ADPP'
tp866
F60
s(g524
S'PPAAVP'
tp867
F1
s(g754
S'VADVPP'
tp868
F6
s(g38
S'DDAAPP'
tp869
F1
s(g615
S'ADVDANP'
tp870
F1
s(g105
S'AAADDDP'
tp871
F1
s(S'CP'
S'ADVADVACDDP'
tp872
F1
s(S'PP'
S'ADVPVP'
tp873
F2
s(S'DP'
S'DDDDPP'
tp874
F1
s(S'DP'
S'DAAP'
tp875
F5
s(g669
S'NNVVVP'
tp876
F2
s(g253
S'PAMP'
tp877
F1
s(g220
S'ADVPDP'
tp878
F12
s(g123
S'PAAVP'
tp879
F1
s(g357
S'ANADVDP'
tp880
F1
s(S'NP'
S'ANNPP'
tp881
F2
s(S'PP'
S'PPDDDDP'
tp882
F1
s(S'MP'
S'MVADVAP'
tp883
F1
s(g79
S'NCP'
tp884
F171
s(S'CP'
S'CADVDPPP'
tp885
F2
s(g306
S'ADVVVPP'
tp886
F3
s(g862
S'ADVANDP'
tp887
F1
s(S'DP'
S'ADVVP'
tp888
F4
s(S'PP'
S'AAAAPVP'
tp889
F1
s(g808
S'VAADP'
tp890
F3
s(S'AP'
S'AAMP'
tp891
F1
s(S'PP'
p892
S'PPAAAP'
tp893
F2
s(g117
S'ADVPDDP'
tp894
F1
s(g74
S'PPDP'
tp895
F55
s(S'PP'
S'PPPADVDP'
tp896
F1
s(S'MP'
S'MVCCP'
tp897
F1
s(g465
S'DADVNNP'
tp898
F5
s(g600
S'NNCCP'
tp899
F18
s(S'MP'
S'MNVP'
tp900
F3
s(g308
S'AANAP'
tp901
F1
s(S'NP'
S'AANCCP'
tp902
F1
s(S'VP'
S'VAPP'
tp903
F10
s(g696
S'CDADVADVAPPP'
tp904
F1
s(g29
S'ADVVDP'
tp905
F13
s(S'DP'
S'DDADVADVADVPP'
tp906
F1
s(S'VP'
S'VADDP'
tp907
F1
s(S'AP'
S'AADVDP'
tp908
F2
s(g125
S'DDPPPP'
tp909
F5
s(S'AP'
S'AMP'
tp910
F5
s(g365
S'CCADP'
tp911
F7
s(g304
S'ADVNNCP'
tp912
F1
s(S'PP'
S'ADVADVADVPNP'
tp913
F1
s(S'AP'
S'ADVAPP'
tp914
F2
s(g346
S'ADVPPVVP'
tp915
F2
s(S'CP'
S'CDDDDDPP'
tp916
F1
s(g494
S'ADVDAVP'
tp917
F1
s(g486
S'DADVADVAPPP'
tp918
F1
s(g23
S'AACDP'
tp919
F8
s(g27
S'NADVADVACP'
tp920
F1
s(S'CP'
S'CCDDDP'
tp921
F1
s(g479
S'CCADVADVDDP'
tp922
F1
s(S'DP'
S'ADVDPPP'
tp923
F4
s(g8
S'DVP'
tp924
F134
s(S'VP'
S'ADVVAP'
tp925
F5
s(g402
S'ADVNPP'
tp926
F7
s(g222
S'NNCCCP'
tp927
F4
s(g671
S'AVP'
tp928
F27
s(S'DP'
S'DDDDVP'
tp929
F2
s(g514
S'NADVVP'
tp930
F9
s(S'NP'
S'NNADVADVVP'
tp931
F1
s(S'VP'
S'ADVVPPP'
tp932
F1
s(g8
S'DDPPP'
tp933
F29
s(g674
S'NNAP'
tp934
F9
s(S'PP'
S'ADVADVAPNNP'
tp935
F1
s(g831
S'MADVVCP'
tp936
F1
s(g892
S'PPANP'
tp937
F7
s(g119
S'VVADVADVDP'
tp938
F1
s(g257
S'CDADVPP'
tp939
F12
s(g66
S'VNP'
tp940
F139
s(S'DP'
S'DDADVPP'
tp941
F1
s(S'VP'
S'VANP'
tp942
F18
s(S'VP'
S'VADVAP'
tp943
F6
s(S'DP'
S'ADVADVADVADVDPP'
tp944
F2
s(S'VP'
S'ADVADVVVDP'
tp945
F2
s(S'NP'
S'AANNAP'
tp946
F1
s(g304
S'NADVPPP'
tp947
F2
s.