ccollections
defaultdict
p1
(c__builtin__
float
p2
tRp3
(S'DP'
p4
S'ADVADVDNNP'
tp5
F1
s(S'VP'
p6
S'VVAAAP'
tp7
F1
s(S'CP'
S'CAAADPP'
tp8
F2
s(S'PP'
p9
S'PAAANP'
tp10
F1
s(S'DP'
p11
S'ADDPP'
tp12
F1
s(S'DP'
p13
S'DDAP'
tp14
F2
s(S'VP'
p15
S'ADVVVNP'
tp16
F4
s(S'AP'
p17
S'AADDDP'
tp18
F1
s(S'PP'
p19
S'ADVADVADVPPVP'
tp20
F1
s(S'VP'
p21
S'VVVVP'
tp22
F4
s(S'PP'
S'PAPP'
tp23
F4
s(S'PP'
p24
S'PADVNP'
tp25
F8
s(g15
S'ADVADVVDDDP'
tp26
F1
s(S'DP'
p27
S'DNP'
tp28
F104
s(S'PP'
S'PPADVAVP'
tp29
F1
s(S'NP'
S'ADVNDP'
tp30
F4
s(S'VP'
S'ADVVNNP'
tp31
F1
s(S'CP'
p32
S'CDPPP'
tp33
F53
s(S'VP'
p34
S'AVADVDDP'
tp35
F1
s(S'VP'
p36
S'VADP'
tp37
F16
s(S'DP'
S'DNNNNP'
tp38
F1
s(S'CP'
S'CADVADADVPPP'
tp39
F1
s(S'NP'
p40
S'ADVNCCP'
tp41
F1
s(S'PP'
S'PPPPPP'
tp42
F2
s(S'PP'
S'APPDP'
tp43
F3
s(S'DP'
p44
S'ADNNP'
tp45
F2
s(S'VP'
p46
S'AVADVDP'
tp47
F1
s(S'NP'
p48
S'ADVADVNNAAP'
tp49
F1
s(S'PP'
S'PADVADVAAP'
tp50
F1
s(S'VP'
p51
S'ADVVNP'
tp52
F5
s(S'MP'
S'MVDP'
tp53
F16
s(S'PP'
p54
S'PADVANP'
tp55
F1
s(S'PP'
p56
S'PPPP'
tp57
F31
s(S'DP'
p58
S'DDDNP'
tp59
F4
s(S'VP'
S'VACP'
tp60
F8
s(S'AP'
S'AAAVP'
tp61
F1
s(S'DP'
p62
S'DADVVP'
tp63
F8
s(S'VP'
S'ADVADVVDDP'
tp64
F1
s(S'MP'
p65
S'MAAVNP'
tp66
F1
s(S'AP'
S'AADVPP'
tp67
F1
s(S'AP'
p68
S'AADVADVADVMP'
tp69
F1
s(S'NP'
S'NADVACP'
tp70
F3
s(g48
S'NCCCP'
tp71
F2
s(S'CP'
p72
S'CADVDAPP'
tp73
F4
s(g36
S'VCP'
tp74
F65
s(S'NP'
p75
S'NMMP'
tp76
F8
s(S'VP'
S'VVVPP'
tp77
F1
s(S'NP'
S'NANP'
tp78
F1
s(S'DP'
p79
S'DDDNNP'
tp80
F2
s(S'VP'
p81
S'ADVVCCP'
tp82
F3
s(g56
S'PAP'
tp83
F57
s(S'PP'
p84
S'PPANNP'
tp85
F1
s(S'MP'
p86
S'MMVVP'
tp87
F2
s(S'VP'
S'VADVADVAP'
tp88
F2
s(S'NP'
p89
S'ANNCCP'
tp90
F1
s(g24
S'ADVPPVP'
tp91
F2
s(S'PP'
p92
S'APVVP'
tp93
F3
s(S'PP'
S'PPADVDP'
tp94
F2
s(S'CP'
p95
S'CADPPPP'
tp96
F1
s(S'PP'
p97
S'PNP'
tp98
F104
s(S'VP'
S'AVNNNP'
tp99
F1
s(S'DP'
p100
S'DDP'
tp101
F35
s(S'VP'
S'ADVVDDP'
tp102
F1
s(S'NP'
S'NNNPP'
tp103
F2
s(g48
S'AANADVADVCP'
tp104
F1
s(S'MP'
p105
S'MCDP'
tp106
F2
s(S'DP'
S'ADVADVADNP'
tp107
F2
s(S'NP'
p108
S'NMP'
tp109
F31
s(S'VP'
p110
S'AVVDDP'
tp111
F1
s(g4
S'ADCP'
tp112
F1
s(S'CP'
S'CADVDADVPP'
tp113
F1
s(S'VP'
S'AAVNP'
tp114
F4
s(g36
S'VMMP'
tp115
F1
s(g97
S'PDP'
tp116
F97
s(S'CP'
S'CCADVADVDP'
tp117
F1
s(g51
S'VAMP'
tp118
F1
s(S'MP'
S'MADVVNP'
tp119
F1
s(S'PP'
p120
S'PPPAANP'
tp121
F1
s(S'MP'
S'MVVAAAP'
tp122
F1
s(S'VP'
S'VVVDP'
tp123
F1
s(S'AP'
S'ANP'
tp124
F1
s(S'PP'
p125
S'ADVPAAP'
tp126
F4
s(g92
S'PADVPP'
tp127
F7
s(S'VP'
p128
S'AAVPP'
tp129
F3
s(S'VP'
S'VVADVNP'
tp130
F4
s(g125
S'PPADVAP'
tp131
F1
s(S'NP'
S'ANVVVVP'
tp132
F1
s(S'PP'
p133
S'AAPPPP'
tp134
F1
s(S'DP'
p135
S'DPPPP'
tp136
F10
s(S'DP'
p137
S'DDANP'
tp138
F1
s(g36
S'VVP'
tp139
F38
s(S'NP'
S'NCCP'
tp140
F53
s(S'MP'
S'MVVADVNP'
tp141
F1
s(S'DP'
p142
S'DADVADVVVP'
tp143
F1
s(g11
S'DDAAAAVVP'
tp144
F1
s(S'AP'
S'AAAADP'
tp145
F3
s(g48
S'NNCP'
tp146
F49
s(g100
S'ADVDDPP'
tp147
F4
s(S'NP'
p148
S'NADVADVVP'
tp149
F2
s(S'DP'
p150
S'DDAPP'
tp151
F4
s(g36
S'AVNP'
tp152
F15
s(g110
S'VVADP'
tp153
F1
s(S'DP'
p154
S'DDAVVP'
tp155
F1
s(S'NP'
S'NADVADVPP'
tp156
F3
s(S'MP'
S'MVADVADVDP'
tp157
F1
s(S'DP'
p158
S'AADCCP'
tp159
F1
s(S'PP'
p160
S'ADVAPDP'
tp161
F2
s(S'PP'
S'ADVAPVP'
tp162
F1
s(S'AP'
S'AAAAP'
tp163
F1
s(S'DP'
S'DADVPPP'
tp164
F4
s(S'NP'
S'NCCCCP'
tp165
F1
s(g32
S'CCCDP'
tp166
F7
s(S'VP'
p167
S'AVNNP'
tp168
F4
s(S'PP'
p169
S'ADVPPNNP'
tp170
F1
s(S'VP'
p171
S'VCCCP'
tp172
F4
s(S'DP'
S'DDADVADVADVPPP'
tp173
F1
s(g24
S'APDP'
tp174
F13
s(S'VP'
p175
S'AVADVAP'
tp176
F1
s(g108
S'ADVNPPP'
tp177
F1
s(g120
S'PADVADVADVPP'
tp178
F1
s(S'AP'
p179
S'AADVCP'
tp180
F1
s(S'NP'
S'ADVNADVCP'
tp181
F1
s(S'VP'
S'VVANP'
tp182
F2
s(S'NP'
S'NNADVDP'
tp183
F1
s(S'VP'
S'VVVVDP'
tp184
F2
s(S'VP'
S'ADVVVP'
tp185
F3
s(S'PP'
p186
S'PPADVADVAP'
tp187
F1
s(S'AP'
S'ADVAAADP'
tp188
F1
s(g65
S'MAVNP'
tp189
F1
s(g56
S'PAAP'
tp190
F16
s(S'NP'
p191
S'ADVANCP'
tp192
F3
s(g100
S'DNNP'
tp193
F46
s(S'CP'
S'CADVDDPP'
tp194
F1
s(S'DP'
S'DPPPPP'
tp195
F3
s(S'CP'
S'CCADVDP'
tp196
F4
s(S'VP'
p197
S'VVNNNP'
tp198
F1
s(S'VP'
S'VVACP'
tp199
F2
s(S'VP'
p200
S'AAVDDP'
tp201
F2
s(S'DP'
p202
S'ADDNP'
tp203
F1
s(S'NP'
S'NNNVP'
tp204
F2
s(S'PP'
p205
S'PPAAPP'
tp206
F1
s(S'VP'
p207
S'VDP'
tp208
F93
s(S'PP'
S'ADVAPVVP'
tp209
F1
s(g56
S'PADVVP'
tp210
F10
s(S'DP'
p211
S'DAAVP'
tp212
F2
s(S'PP'
p213
S'PADVADVADVAP'
tp214
F1
s(g92
S'APAP'
tp215
F6
s(g32
S'ADVADVCDP'
tp216
F7
s(S'AP'
S'ACCCP'
tp217
F1
s(S'NP'
p218
S'NADVMP'
tp219
F2
s(S'AP'
p220
S'AAP'
tp221
F7
s(S'CP'
S'CADVADPP'
tp222
F1
s(S'NP'
p223
S'ADVADVNCCP'
tp224
F1
s(S'MP'
S'MVVCP'
tp225
F1
s(g171
S'VADVADVNP'
tp226
F2
s(g56
S'PAANP'
tp227
F4
s(S'VP'
S'VADVADVCP'
tp228
F3
s(g48
S'NADVADVPPP'
tp229
F1
s(g108
S'ANVP'
tp230
F11
s(g6
S'VAACP'
tp231
F1
s(S'MP'
p232
S'MVNP'
tp233
F10
s(S'DP'
p234
S'ADVADVDDP'
tp235
F1
s(S'NP'
p236
S'ANAAP'
tp237
F1
s(S'AP'
S'ADVAADP'
tp238
F1
s(S'PP'
p239
S'PAVP'
tp240
F18
s(S'MP'
p241
S'ADVMVP'
tp242
F2
s(S'PP'
S'ADVADVPPVP'
tp243
F2
s(g56
S'PPADVNNP'
tp244
F1
s(g79
S'DADP'
tp245
F1
s(g211
S'ADVDVVP'
tp246
F1
s(S'AP'
p247
S'ADVADP'
tp248
F4
s(S'AP'
p249
S'APP'
tp250
F26
s(g81
S'VVADVPP'
tp251
F2
s(g56
S'APDDP'
tp252
F4
s(S'VP'
p253
S'ADVADVVVNP'
tp254
F1
s(S'NP'
S'ADVNAP'
tp255
F1
s(S'DP'
p256
S'ADVDDDP'
tp257
F1
s(g24
S'APVP'
tp258
F9
s(g207
S'VVNP'
tp259
F40
s(S'VP'
p260
S'VVVCP'
tp261
F1
s(g160
S'PPVP'
tp262
F36
s(g253
S'VADVDP'
tp263
F8
s(g167
S'VAAP'
tp264
F15
s(S'NP'
p265
S'ANDP'
tp266
F7
s(S'NP'
p267
S'NVVP'
tp268
F50
s(g205
S'AAPVP'
tp269
F5
s(S'PP'
S'PPADP'
tp270
F1
s(S'VP'
S'VMP'
tp271
F7
s(g171
S'VVNNP'
tp272
F9
s(g32
S'CDAPP'
tp273
F23
s(g175
S'VVAAP'
tp274
F6
s(g100
S'ADNP'
tp275
F16
s(S'CP'
S'ACCDP'
tp276
F1
s(g56
S'PADP'
tp277
F8
s(g218
S'ADVADVNNCCCP'
tp278
F1
s(S'NP'
S'ANDDP'
tp279
F4
s(S'DP'
p280
S'ADVADVDVP'
tp281
F2
s(S'DP'
p282
S'DADVAP'
tp283
F1
s(g191
S'ADVNAPPP'
tp284
F1
s(g89
S'ADVANNVP'
tp285
F1
s(g100
S'DAPP'
tp286
F33
s(g51
S'VADVAAP'
tp287
F2
s(S'NP'
p288
S'NNNAVP'
tp289
F1
s(g260
S'ADVADVADVVDP'
tp290
F1
s(S'VP'
S'ADVADVVDP'
tp291
F2
s(S'VP'
p292
S'AVVNP'
tp293
F3
s(S'PP'
S'PPPDP'
tp294
F5
s(S'AP'
S'AAPPP'
tp295
F1
s(g234
S'DAAANP'
tp296
F1
s(g142
S'ADVDNP'
tp297
F10
s(S'VP'
p298
S'VVPP'
tp299
F22
s(S'DP'
S'DDDADVNP'
tp300
F1
s(g213
S'PAVVP'
tp301
F1
s(S'MP'
p302
S'MVPP'
tp303
F3
s(g100
S'ADVP'
tp304
F4
s(g72
S'CDDPPP'
tp305
F15
s(S'PP'
p306
S'PPAVVP'
tp307
F2
s(S'VP'
p308
S'ADVVVDP'
tp309
F1
s(g267
S'NNPP'
tp310
F23
s(g95
S'CCCADVDP'
tp311
F1
s(g202
S'DDDDNP'
tp312
F1
s(S'MP'
S'MVVDP'
tp313
F1
s(S'AP'
S'AACP'
tp314
F8
s(g44
S'DDADVDP'
tp315
F1
s(S'PP'
S'PPVVP'
tp316
F14
s(S'DP'
S'DNNNP'
tp317
F1
s(g62
S'ADVDADVPP'
tp318
F1
s(S'DP'
p319
S'ADVDDVP'
tp320
F1
s(S'PP'
p321
S'PADVADVVP'
tp322
F1
s(S'PP'
p323
S'PVVVP'
tp324
F1
s(S'PP'
p325
S'PMP'
tp326
F9
s(S'NP'
p327
S'NNMMP'
tp328
F1
s(S'PP'
p329
S'APPMP'
tp330
F1
s(g24
S'PADVADVADVVP'
tp331
F1
s(S'CP'
p332
S'CCDP'
tp333
F73
s(S'NP'
p334
S'ADVNNDP'
tp335
F1
s(S'MP'
p336
S'AMVP'
tp337
F1
s(g36
S'VPPP'
tp338
F20
s(S'DP'
S'AADDPP'
tp339
F2
s(g329
S'ADVADVPPPP'
tp340
F2
s(S'NP'
S'NVVVP'
tp341
F4
s(S'CP'
p342
S'CDDDPP'
tp343
F7
s(S'CP'
p344
S'CDAAPP'
tp345
F2
s(S'NP'
p346
S'NNNVVP'
tp347
F3
s(g200
S'AVVAP'
tp348
F1
s(S'NP'
S'NACCP'
tp349
F1
s(g321
S'PNNNP'
tp350
F3
s(S'CP'
S'CCCCDP'
tp351
F2
s(S'AP'
p352
S'AACCP'
tp353
F1
s(S'VP'
p354
S'VVMP'
tp355
F2
s(S'PP'
p356
S'PADVVVP'
tp357
F2
s(S'PP'
p358
S'PPP'
tp359
F75
s(g267
S'NNVVP'
tp360
F5
s(g108
S'NAVP'
tp361
F12
s(g133
S'ADVAPNNP'
tp362
F1
s(g137
S'DDADVDDP'
tp363
F1
s(g9
S'PADVAP'
tp364
F4
s(S'DP'
S'DDNNNP'
tp365
F1
s(S'VP'
p366
S'ADVVAPP'
tp367
F1
s(g325
S'PADDP'
tp368
F1
s(g100
S'ADVDVP'
tp369
F7
s(S'NP'
p370
S'NAAAP'
tp371
F2
s(g58
S'DADVADVPPP'
tp372
F2
s(g75
S'NNDDP'
tp373
F6
s(g142
S'ADVADVDNP'
tp374
F4
s(g213
S'PADVNNP'
tp375
F2
s(g207
S'VPP'
tp376
F62
s(S'CP'
S'ADVCCDP'
tp377
F2
s(S'DP'
p378
S'ADVDDPPP'
tp379
F1
s(g137
S'ADVDDNP'
tp380
F1
s(S'NP'
p381
S'NNNCP'
tp382
F2
s(g92
S'PADVDP'
tp383
F6
s(S'CP'
S'CDADVAPP'
tp384
F3
s(g332
S'CDDPP'
tp385
F47
s(g319
S'DAAPP'
tp386
F5
s(g97
S'PVVP'
tp387
F42
s(g72
S'CADPPP'
tp388
F4
s(g120
S'PPAVP'
tp389
F1
s(S'VP'
p390
S'ADVVCP'
tp391
F1
s(S'MP'
S'MCCDP'
tp392
F1
s(S'PP'
p393
S'PPNNNP'
tp394
F2
s(g34
S'AVCCP'
tp395
F1
s(S'PP'
S'PPADVADVDP'
tp396
F1
s(g4
S'ADVADVDDNP'
tp397
F1
s(g36
S'VVPPP'
tp398
F5
s(g239
S'PPAP'
tp399
F13
s(S'DP'
p400
S'DVVP'
tp401
F32
s(S'PP'
p402
S'PPADVADVADVVP'
tp403
F1
s(g234
S'DDDADVPPP'
tp404
F1
s(S'CP'
S'ADVACDDP'
tp405
F2
s(g236
S'ANMP'
tp406
F1
s(g352
S'APPP'
tp407
F2
s(g358
S'ADVPPP'
tp408
F5
s(g288
S'ADVADVNVP'
tp409
F1
s(g51
S'VVVP'
tp410
F13
s(g346
S'ADVNNCCP'
tp411
F1
s(g342
S'CADVDPP'
tp412
F12
s(g48
S'ANCP'
tp413
F17
s(S'DP'
S'DCP'
tp414
F15
s(S'DP'
S'DDAAPP'
tp415
F1
s(S'DP'
p416
S'DVVVP'
tp417
F1
s(S'NP'
S'AAANCP'
tp418
F1
s(S'VP'
p419
S'ADVVVVP'
tp420
F1
s(S'DP'
S'DADVCP'
tp421
F1
s(g62
S'DDDP'
tp422
F12
s(g105
S'ADVMCP'
tp423
F1
s(S'DP'
S'DDADVPP'
tp424
F1
s(S'MP'
S'MAADP'
tp425
F1
s(g288
S'ANVVP'
tp426
F1
s(g207
S'VVDP'
tp427
F39
s(g48
S'NPPP'
tp428
F31
s(S'VP'
S'VAAAADP'
tp429
F1
s(S'DP'
p430
S'AADVVP'
tp431
F1
s(S'DP'
S'ADVADADVPPP'
tp432
F1
s(g100
S'DAVP'
tp433
F13
s(S'CP'
S'CDDADVADVADVPPP'
tp434
F1
s(S'NP'
S'NNNNMP'
tp435
F1
s(S'MP'
S'MCAADP'
tp436
F1
s(g249
S'ACP'
tp437
F34
s(S'PP'
S'AAPAP'
tp438
F1
s(g56
S'PPNP'
tp439
F48
s(g92
S'AADVPAANP'
tp440
F1
s(S'NP'
S'NAADP'
tp441
F1
s(g150
S'ADVDAPP'
tp442
F5
s(S'DP'
p443
S'AADVP'
tp444
F4
s(S'AP'
S'ADVAADDDDP'
tp445
F1
s(S'MP'
S'MADVVVAP'
tp446
F1
s(S'CP'
S'CDDADVPP'
tp447
F1
s(S'CP'
S'CCCDDP'
tp448
F3
s(g220
S'ADP'
tp449
F84
s(S'PP'
S'APMP'
tp450
F2
s(g443
S'DDPPPP'
tp451
F2
s(S'NP'
p452
S'ANPPP'
tp453
F1
s(S'DP'
S'DMP'
tp454
F3
s(S'PP'
S'PPPPNNP'
tp455
F2
s(S'VP'
S'VVPPPP'
tp456
F2
s(g329
S'APVVVVP'
tp457
F1
s(g247
S'AAADP'
tp458
F5
s(g298
S'VVAP'
tp459
F14
s(S'PP'
S'PADVADVDP'
tp460
F1
s(S'PP'
p461
S'PPADVVP'
tp462
F3
s(S'VP'
p463
S'AAVCP'
tp464
F1
s(S'NP'
p465
S'NADVAPP'
tp466
F1
s(S'NP'
p467
S'NNNP'
tp468
F1
s(g267
S'NVP'
tp469
F97
s(g323
S'PPVVVP'
tp470
F1
s(S'PP'
S'PAAVP'
tp471
F5
s(g48
S'NAAPP'
tp472
F2
s(g36
S'VDDP'
tp473
F34
s(g68
S'ADVADVADVADP'
tp474
F1
s(S'DP'
p475
S'DADVADVPP'
tp476
F3
s(S'NP'
S'AANNVP'
tp477
F1
s(S'NP'
S'AANVVP'
tp478
F2
s(g211
S'DADVAPP'
tp479
F4
s(g137
S'AADDNP'
tp480
F1
s(S'NP'
p481
S'ANPP'
tp482
F11
s(g402
S'ADVPPDP'
tp483
F2
s(g393
S'PPPPP'
tp484
F12
s(g56
S'ADVADVPDP'
tp485
F5
s(S'MP'
S'MVVPP'
tp486
F1
s(g169
S'PPPNP'
tp487
F6
s(S'MP'
S'MMDDP'
tp488
F1
s(g191
S'ADVADVNPP'
tp489
F1
s(g381
S'NPPPP'
tp490
F5
s(S'AP'
S'AADVADVDP'
tp491
F2
s(S'CP'
S'CAADPP'
tp492
F4
s(g135
S'DADVADVVP'
tp493
F2
s(S'NP'
S'NAACP'
tp494
F1
s(g97
S'PNNP'
tp495
F39
s(g133
S'APNNP'
tp496
F2
s(g378
S'DDDADVADVPPP'
tp497
F1
s(S'MP'
p498
S'MMNP'
tp499
F1
s(g27
S'AAADPP'
tp500
F2
s(g86
S'MDDDNNP'
tp501
F1
s(g36
S'AVAP'
tp502
F5
s(S'MP'
S'MMVP'
tp503
F7
s(g48
S'ADVNCP'
tp504
F14
s(S'DP'
p505
S'ADPP'
tp506
F28
s(S'CP'
p507
S'ACDP'
tp508
F18
s(g167
S'VCCP'
tp509
F18
s(g467
S'NNACP'
tp510
F3
s(S'CP'
S'CDADVPPP'
tp511
F2
s(g298
S'VAP'
tp512
F62
s(S'VP'
S'VVVVNP'
tp513
F1
s(g241
S'MNVVP'
tp514
F2
s(S'DP'
p515
S'DDDPP'
tp516
F8
s(S'CP'
S'ADVCDDP'
tp517
F2
s(S'NP'
p518
S'AANNCP'
tp519
F1
s(g92
S'ADVPMP'
tp520
F2
s(g133
S'PAAPP'
tp521
F3
s(S'AP'
p522
S'AAVVP'
tp523
F4
s(g463
S'ADVADVVVAP'
tp524
F1
s(S'DP'
S'DDDPPP'
tp525
F1
s(S'VP'
S'ADVAVDP'
tp526
F1
s(g319
S'ADAP'
tp527
F2
s(g154
S'DADVDP'
tp528
F1
s(S'PP'
p529
S'APADVVP'
tp530
F1
s(g529
S'PADVADVADP'
tp531
F1
s(g17
S'AAACP'
tp532
F1
s(g481
S'NAAP'
tp533
F11
s(g75
S'NNDP'
tp534
F14
s(g160
S'PPPVP'
tp535
F4
s(S'VP'
S'VVVVNNNP'
tp536
F1
s(S'AP'
S'AADDP'
tp537
F5
s(g416
S'AADPPPP'
tp538
F1
s(g253
S'VAANP'
tp539
F4
s(g518
S'NADVADVCP'
tp540
F1
s(g54
S'ADVPNNP'
tp541
F1
s(S'NP'
S'NVVVVP'
tp542
F1
s(S'MP'
S'MPNP'
tp543
F1
s(S'MP'
S'MADP'
tp544
F2
s(S'PP'
S'PPPDDP'
tp545
F2
s(g430
S'DDADVNP'
tp546
F1
s(S'PP'
p547
S'PANP'
tp548
F17
s(S'PP'
S'PDDDP'
tp549
F3
s(g75
S'NADVDDP'
tp550
F3
s(S'AP'
S'AAVP'
tp551
F8
s(g522
S'AVVP'
tp552
F4
s(g108
S'NDDP'
tp553
F19
s(S'CP'
p554
S'ACADDP'
tp555
F1
s(S'MP'
S'MVADVDP'
tp556
F1
s(S'AP'
S'ACCP'
tp557
F6
s(g100
S'ADAAP'
tp558
F1
s(g292
S'AVPPP'
tp559
F3
s(g24
S'ADVPAANP'
tp560
F1
s(g267
S'NDP'
tp561
F65
s(g100
S'DDVP'
tp562
F32
s(g467
S'AANVP'
tp563
F3
s(S'VP'
S'VNNNP'
tp564
F1
s(g308
S'VADVADVPP'
tp565
F1
s(g186
S'ADVPAP'
tp566
F3
s(S'PP'
S'APADVDP'
tp567
F1
s(S'PP'
S'PCP'
tp568
F8
s(g381
S'NNPPP'
tp569
F5
s(g465
S'ADVADVNAVVP'
tp570
F1
s(g56
S'PAADP'
tp571
F6
s(S'NP'
S'NADVCCP'
tp572
F2
s(g390
S'VPPPP'
tp573
F3
s(g48
S'ANNPP'
tp574
F1
s(g247
S'AADVAP'
tp575
F1
s(S'AP'
S'ADVACP'
tp576
F6
s(g280
S'DDADVVP'
tp577
F1
s(g150
S'ADPPP'
tp578
F5
s(g218
S'NNAAVP'
tp579
F1
s(g232
S'MVCP'
tp580
F5
s(S'VP'
S'AAAAVVADVADVDP'
tp581
F1
s(g200
S'VADVNNP'
tp582
F4
s(S'CP'
S'CCDDP'
tp583
F14
s(S'NP'
S'NNADVVP'
tp584
F1
s(g81
S'AAVCCP'
tp585
F1
s(g325
S'PPAAP'
tp586
F11
s(S'NP'
p587
S'NAAMP'
tp588
F1
s(S'VP'
p589
S'VVCP'
tp590
F13
s(g56
S'PADVADVPP'
tp591
F2
s(g108
S'AANCP'
tp592
F7
s(g200
S'VADVNP'
tp593
F9
s(g148
S'AAANPPP'
tp594
F1
s(g105
S'MADVVDP'
tp595
F1
s(S'AP'
S'ADVAVVP'
tp596
F1
s(S'PP'
p597
S'APANNP'
tp598
F1
s(g205
S'APPP'
tp599
F8
s(g175
S'ADVVPP'
tp600
F3
s(S'CP'
S'CDAPPP'
tp601
F3
s(g36
S'VNNP'
tp602
F40
s(S'AP'
S'AADVDP'
tp603
F3
s(S'NP'
S'NADP'
tp604
F3
s(g400
S'DDNP'
tp605
F43
s(g100
S'AADDP'
tp606
F2
s(g400
S'DDNNP'
tp607
F11
s(g120
S'AAPPP'
tp608
F1
s(S'PP'
S'PADVADVVVP'
tp609
F1
s(g288
S'ADVADVANPP'
tp610
F1
s(g223
S'ADVADVNCP'
tp611
F3
s(g100
S'AADPP'
tp612
F5
s(S'VP'
S'VVVAAP'
tp613
F1
s(S'NP'
p614
S'NADVCP'
tp615
F15
s(g75
S'ADVNAACP'
tp616
F1
s(g56
S'ADVADVPPDP'
tp617
F1
s(S'CP'
S'CDPPPPP'
tp618
F2
s(g253
S'ADVADVADVVDDP'
tp619
F1
s(g282
S'ADVVP'
tp620
F1
s(g95
S'ACDDP'
tp621
F2
s(S'AP'
p622
S'AAPP'
tp623
F10
s(g51
S'VVCCP'
tp624
F8
s(S'DP'
S'DADVVVP'
tp625
F5
s(g234
S'DADVADVNP'
tp626
F1
s(g128
S'VVVCCP'
tp627
F2
s(g108
S'NAPP'
tp628
F5
s(S'AP'
S'ADVADVADP'
tp629
F1
s(S'NP'
S'NADVDP'
tp630
F3
s(S'PP'
p631
S'ADVPPPP'
tp632
F3
s(S'PP'
S'APDDDP'
tp633
F1
s(g48
S'ANCCP'
tp634
F4
s(g108
S'AANPP'
tp635
F5
s(S'VP'
S'VDDDP'
tp636
F2
s(g40
S'NNMP'
tp637
F5
s(S'DP'
p638
S'DDDVP'
tp639
F4
s(g120
S'ADVADVADVPVVP'
tp640
F1
s(S'VP'
S'ADVAAVVDP'
tp641
F1
s(S'CP'
S'CADDPP'
tp642
F1
s(g205
S'PAAAP'
tp643
F1
s(g356
S'ADVADVPNP'
tp644
F1
s(S'PP'
p645
S'PPPAP'
tp646
F1
s(g72
S'CDDAPP'
tp647
F2
s(g302
S'MVAP'
tp648
F7
s(g21
S'VADVADVDDP'
tp649
F1
s(g97
S'PVP'
tp650
F99
s(g260
S'VADVPPP'
tp651
F2
s(S'AP'
S'ADVADVAPP'
tp652
F1
s(S'MP'
S'AAMVP'
tp653
F1
s(g554
S'ACDDDP'
tp654
F2
s(S'MP'
p655
S'ADVADVADVMADVADVCP'
tp656
F1
s(g265
S'ADVNAVP'
tp657
F1
s(g75
S'ANNCP'
tp658
F2
s(g419
S'VCCCCP'
tp659
F1
s(g148
S'ADVNACP'
tp660
F1
s(g133
S'PPDDP'
tp661
F7
s(g171
S'AVCP'
tp662
F3
s(S'NP'
S'NAVVP'
tp663
F1
s(g400
S'DPP'
tp664
F114
s(g40
S'ADVNVP'
tp665
F5
s(g400
S'DDPP'
tp666
F70
s(S'DP'
S'DDAVP'
tp667
F2
s(g100
S'DANP'
tp668
F22
s(g481
S'NADVPP'
tp669
F7
s(S'VP'
p670
S'VVAVVP'
tp671
F1
s(g587
S'NAAVP'
tp672
F3
s(g79
S'ADVADVADPP'
tp673
F1
s(S'DP'
S'AADNP'
tp674
F4
s(g465
S'NACP'
tp675
F10
s(g308
S'VADVCP'
tp676
F1
s(S'PP'
S'PPPVVP'
tp677
F2
s(S'MP'
S'MDNP'
tp678
F1
s(S'PP'
S'PPAANNP'
tp679
F1
s(S'NP'
S'NNAACP'
tp680
F1
s(g234
S'ADDPPP'
tp681
F1
s(S'PP'
S'PPADVADVVP'
tp682
F1
s(g334
S'ADVNMMP'
tp683
F1
s(S'DP'
S'DCCP'
tp684
F1
s(g56
S'ADVADVPPP'
tp685
F1
s(g56
S'AAPDP'
tp686
F5
s(S'DP'
S'ADVADPP'
tp687
F1
s(S'VP'
S'AVVDP'
tp688
F1
s(g128
S'VVADVADVNNP'
tp689
F1
s(g97
S'PDDP'
tp690
F26
s(g498
S'MVDDP'
tp691
F1
s(g402
S'PCCP'
tp692
F5
s(g518
S'ADVNADVAAVVP'
tp693
F1
s(g48
S'NNVP'
tp694
F37
s(S'NP'
S'NADVADVVVP'
tp695
F1
s(S'PP'
S'APAAP'
tp696
F1
s(g253
S'AVDP'
tp697
F16
s(g327
S'NNP'
tp698
F1
s(g207
S'VVDDP'
tp699
F13
s(g354
S'VAADDP'
tp700
F2
s(g62
S'DAANP'
tp701
F5
s(g249
S'ADDP'
tp702
F28
s(g670
S'ADVVVAP'
tp703
F2
s(S'PP'
S'ADVPPNP'
tp704
F2
s(g232
S'MMCCP'
tp705
F1
s(S'CP'
S'CDADVADVPP'
tp706
F1
s(g32
S'CADVADVDPP'
tp707
F3
s(g100
S'DPPP'
tp708
F67
s(g158
S'ADVADVDAAP'
tp709
F1
s(g475
S'AADPPP'
tp710
F2
s(S'CP'
S'ADVADVADVCCDP'
tp711
F1
s(S'VP'
p712
S'VANNP'
tp713
F1
s(g614
S'NNAVP'
tp714
F2
s(S'DP'
S'DDADVADVNP'
tp715
F1
s(g547
S'ADVPNP'
tp716
F10
s(g56
S'PPDP'
tp717
F42
s(g655
S'MVVADP'
tp718
F1
s(g44
S'DDCP'
tp719
F2
s(g32
S'CADADVADVPP'
tp720
F1
s(S'CP'
S'CCAADDP'
tp721
F1
s(S'DP'
S'ADVDDNNP'
tp722
F1
s(S'AP'
S'ADVADVAADP'
tp723
F1
s(g108
S'NAP'
tp724
F43
s(g148
S'NNAAP'
tp725
F2
s(g712
S'VAAAP'
tp726
F1
s(g56
S'ADVPADP'
tp727
F2
s(g100
S'DADVNP'
tp728
F12
s(g306
S'ADVADVPVP'
tp729
F2
s(g56
S'APNP'
tp730
F12
s(g256
S'DDDAPP'
tp731
F1
s(g137
S'DDVVP'
tp732
F9
s(S'AP'
S'AAADDP'
tp733
F1
s(g308
S'VVVNP'
tp734
F3
s(g218
S'NNADVPP'
tp735
F1
s(S'MP'
S'MVANP'
tp736
F1
s(g638
S'ADVADVDDPP'
tp737
F1
s(g336
S'MVNNP'
tp738
F3
s(g332
S'CDPP'
tp739
F108
s(g622
S'ADDDP'
tp740
F2
s(g344
S'ADVCADP'
tp741
F1
s(g207
S'VVAANP'
tp742
F1
s(g100
S'ADADVADVPP'
tp743
F1
s(g670
S'AVVPPP'
tp744
F1
s(S'CP'
S'ADVCDP'
tp745
F15
s(g529
S'AAPVVP'
tp746
F1
s(g200
S'ADVADVVNP'
tp747
F2
s(S'CP'
S'ADVACDP'
tp748
F1
s(g253
S'VADVADVDP'
tp749
F5
s(g325
S'PPNNP'
tp750
F15
s(g54
S'PPMP'
tp751
F1
s(g100
S'ADVADVDPP'
tp752
F6
s(g171
S'VAADP'
tp753
F4
s(S'NP'
S'NADVAP'
tp754
F4
s(S'VP'
S'AVDDP'
tp755
F2
s(g46
S'ADVAVAP'
tp756
F1
s(g202
S'DAP'
tp757
F18
s(S'CP'
p758
S'CADPP'
tp759
F21
s(S'NP'
S'NADVAVP'
tp760
F1
s(g175
S'ADVADVVVPP'
tp761
F1
s(g461
S'PPDDDP'
tp762
F1
s(g354
S'AVPP'
tp763
F3
s(g467
S'NAADVPP'
tp764
F1
s(S'CP'
S'CAADPPP'
tp765
F1
s(S'CP'
S'ADVCADVDP'
tp766
F1
s(S'CP'
S'AACDDP'
tp767
F1
s(g507
S'CDPPPP'
tp768
F4
s(S'VP'
S'AAVDP'
tp769
F4
s(g137
S'AADNNP'
tp770
F2
s(g56
S'PANNP'
tp771
F1
s(g179
S'AAAPP'
tp772
F3
s(g13
S'ADPPPP'
tp773
F1
s(S'DP'
S'DAPPP'
tp774
F3
s(g249
S'AAADVDP'
tp775
F1
s(S'CP'
p776
S'CADVADVDDPP'
tp777
F1
s(g515
S'ADVDPP'
tp778
F17
s(g267
S'NPP'
tp779
F82
s(S'PP'
S'PPAANP'
tp780
F1
s(g160
S'PADVADVNP'
tp781
F2
s(g249
S'AADP'
tp782
F35
s(g160
S'PPAAVP'
tp783
F2
s(S'NP'
S'NADVADVADVCCP'
tp784
F1
s(g589
S'VADVPP'
tp785
F2
s(g36
S'VADVADVNNP'
tp786
F1
s(g370
S'NADVADVADP'
tp787
F1
s(g32
S'CCADVDDP'
tp788
F2
s(g84
S'PVVVVP'
tp789
F1
s(g92
S'ADVPVP'
tp790
F8
s(S'AP'
S'ADVADVAVP'
tp791
F1
s(g137
S'DAAP'
tp792
F5
s(g518
S'NNVVVP'
tp793
F1
s(g128
S'VVADVADVCP'
tp794
F1
s(g197
S'ADVADVVAANP'
tp795
F1
s(g56
S'ADVPDP'
tp796
F8
s(g21
S'ADVVADP'
tp797
F3
s(g614
S'ADVNNPP'
tp798
F4
s(g267
S'NCP'
tp799
F105
s(S'CP'
S'CADVDPPP'
tp800
F3
s(g249
S'AAAP'
tp801
F2
s(S'AP'
S'AADVMP'
tp802
F1
s(g92
S'PPAAAP'
tp803
F1
s(S'PP'
S'ADVPDDP'
tp804
F2
s(S'DP'
S'AAAADNP'
tp805
F1
s(g19
S'PPPNNP'
tp806
F1
s(S'MP'
S'MVCCP'
tp807
F1
s(g202
S'DADVNNP'
tp808
F2
s(S'VP'
S'VADVADVANP'
tp809
F1
s(g48
S'NNCCP'
tp810
F14
s(S'MP'
S'MNVP'
tp811
F1
s(g267
S'AANCCP'
tp812
F1
s(g36
S'VAPP'
tp813
F5
s(g36
S'ADVVDP'
tp814
F10
s(g505
S'DADVPP'
tp815
F25
s(g356
S'ADVPAAAP'
tp816
F1
s(S'CP'
S'CCADP'
tp817
F4
s(g48
S'ADVNNCP'
tp818
F3
s(S'DP'
S'ADVDAP'
tp819
F2
s(g452
S'NNNPPP'
tp820
F1
s(S'AP'
S'ADVAPP'
tp821
F2
s(g356
S'ADVPPVVP'
tp822
F1
s(g670
S'AVVPP'
tp823
F1
s(g776
S'AACDP'
tp824
F3
s(S'CP'
S'CCDDDP'
tp825
F2
s(S'DP'
S'ADVDPPP'
tp826
F6
s(g505
S'DVP'
tp827
F87
s(g366
S'ADVVAP'
tp828
F4
s(g465
S'ADVNPP'
tp829
F5
s(S'MP'
S'MDDNNP'
tp830
F1
s(g370
S'NNCCCP'
tp831
F3
s(g220
S'AVP'
tp832
F16
s(S'NP'
S'NADVVP'
tp833
F7
s(g100
S'DDPPP'
tp834
F26
s(S'NP'
S'ADVNMP'
tp835
F1
s(g614
S'NNAP'
tp836
F10
s(S'NP'
S'NNADVPPP'
tp837
F1
s(g631
S'PPANP'
tp838
F1
s(g597
S'ADVPADVANNP'
tp839
F1
s(S'VP'
S'VVADVADVDP'
tp840
F1
s(g529
S'PPCCP'
tp841
F1
s(g758
S'CDADVPP'
tp842
F16
s(g298
S'VNP'
tp843
F87
s(g645
S'ADVPMMP'
tp844
F1
s(g36
S'VANP'
tp845
F12
s(S'VP'
S'VADVAP'
tp846
F3
s(S'VP'
S'VADVADVADP'
tp847
F1
s(g24
S'PPADVNP'
tp848
F4
s(g108
S'NADVPPP'
tp849
F2
s.