ccollections
defaultdict
p1
(c__builtin__
float
p2
tRp3
(S'NP'
p4
S'AANDDP'
tp5
F1
s(S'AP'
S'AAADVADVADVVP'
tp6
F1
s(S'CP'
S'CAAADPP'
tp7
F1
s(S'DP'
p8
S'DDAP'
tp9
F2
s(S'VP'
S'ADVVVNP'
tp10
F5
s(g4
S'AANVVVVP'
tp11
F1
s(S'VP'
p12
S'VVVVP'
tp13
F3
s(S'PP'
p14
S'PAPP'
tp15
F9
s(S'PP'
p16
S'PADVNP'
tp17
F5
s(S'DP'
p18
S'DNP'
tp19
F174
s(S'PP'
S'PPADVAVP'
tp20
F1
s(S'NP'
S'ADVNDP'
tp21
F3
s(S'PP'
p22
S'AAPDDP'
tp23
F2
s(S'CP'
p24
S'CDPPP'
tp25
F69
s(S'VP'
p26
S'AVADVDDP'
tp27
F1
s(S'VP'
p28
S'VADP'
tp29
F15
s(S'DP'
S'DNNNNP'
tp30
F1
s(S'CP'
S'CCADVADVADP'
tp31
F1
s(S'NP'
S'NNMMMMP'
tp32
F1
s(S'DP'
S'DAAP'
tp33
F4
s(S'PP'
S'PPAVP'
tp34
F1
s(S'PP'
p35
S'PPPPPP'
tp36
F5
s(S'VP'
p37
S'VAVP'
tp38
F3
s(S'PP'
S'APPDP'
tp39
F1
s(S'CP'
S'CADVADVDPPP'
tp40
F1
s(S'VP'
S'VADVDDP'
tp41
F1
s(S'DP'
S'DAADP'
tp42
F1
s(S'DP'
p43
S'ADNNP'
tp44
F6
s(S'VP'
S'ADVVNP'
tp45
F12
s(S'MP'
S'MVDP'
tp46
F15
s(S'PP'
S'PADVANP'
tp47
F1
s(S'NP'
p48
S'ADVNAVVP'
tp49
F1
s(S'PP'
p50
S'PPPP'
tp51
F49
s(S'DP'
p52
S'DDDNP'
tp53
F5
s(S'VP'
p54
S'VACP'
tp55
F5
s(S'PP'
S'PPAAP'
tp56
F2
s(S'DP'
p57
S'DADVVP'
tp58
F5
s(S'PP'
p59
S'PADVNNP'
tp60
F3
s(S'AP'
S'AADVPP'
tp61
F1
s(S'NP'
p62
S'NAAVVP'
tp63
F1
s(S'NP'
p64
S'NDDDP'
tp65
F5
s(S'NP'
p66
S'NCCCP'
tp67
F6
s(S'CP'
p68
S'CADVDAPP'
tp69
F2
s(g54
S'VCP'
tp70
F99
s(S'NP'
p71
S'NMMP'
tp72
F3
s(S'NP'
S'NANP'
tp73
F1
s(S'VP'
S'ADVVAAP'
tp74
F1
s(S'VP'
p75
S'ADVVCCP'
tp76
F1
s(S'PP'
p77
S'ADVPADP'
tp78
F3
s(g14
S'PAP'
tp79
F80
s(S'MP'
S'MMVVP'
tp80
F1
s(S'DP'
p81
S'DDADVADVPP'
tp82
F1
s(S'NP'
p83
S'ANNCCP'
tp84
F1
s(S'PP'
p85
S'ADVPPVP'
tp86
F2
s(S'NP'
p87
S'ADVADVADVADVNMP'
tp88
F1
s(S'PP'
S'APVVP'
tp89
F2
s(S'PP'
p90
S'PPADVDP'
tp91
F2
s(g14
S'PNP'
tp92
F183
s(S'DP'
S'ADDP'
tp93
F3
s(S'DP'
p94
S'DDP'
tp95
F47
s(S'VP'
p96
S'ADVVDDP'
tp97
F1
s(S'NP'
S'NNNPP'
tp98
F2
s(S'VP'
S'VCCP'
tp99
F18
s(S'MP'
S'MCDP'
tp100
F1
s(g22
S'ADVPCP'
tp101
F1
s(S'CP'
S'AACCDP'
tp102
F1
s(S'DP'
p103
S'DDAANP'
tp104
F1
s(S'VP'
p105
S'ADVADVVVCP'
tp106
F1
s(S'NP'
p107
S'NMP'
tp108
F49
s(S'DP'
S'ADCP'
tp109
F1
s(S'VP'
S'VMMP'
tp110
F1
s(g14
S'PDP'
tp111
F180
s(S'CP'
p112
S'CCADVADVDP'
tp113
F1
s(S'CP'
p114
S'CDADVADVPP'
tp115
F2
s(S'NP'
S'ADVNVVP'
tp116
F3
s(S'CP'
S'CDADVADVPPP'
tp117
F2
s(S'NP'
p118
S'NACCP'
tp119
F1
s(S'PP'
p120
S'ADVPAAP'
tp121
F2
s(S'NP'
S'NADVADVADVVP'
tp122
F1
s(S'PP'
p123
S'PADVPP'
tp124
F6
s(S'NP'
p125
S'NNADVCP'
tp126
F2
s(S'VP'
p127
S'VVADVNP'
tp128
F5
s(S'PP'
p129
S'AAPPPP'
tp130
F1
s(g94
S'DPPPP'
tp131
F15
s(S'DP'
S'DDANP'
tp132
F2
s(S'NP'
p133
S'NACP'
tp134
F21
s(g66
S'NCCP'
tp135
F58
s(S'VP'
p136
S'AVADVNP'
tp137
F1
s(S'DP'
p138
S'DADVADVVVP'
tp139
F2
s(S'VP'
p140
S'VVCCCP'
tp141
F1
s(g133
S'NNCP'
tp142
F57
s(g52
S'ADVDDPP'
tp143
F5
s(S'NP'
p144
S'NADVADVVP'
tp145
F4
s(S'DP'
p146
S'DDDDP'
tp147
F3
s(S'VP'
p148
S'AVNP'
tp149
F11
s(g140
S'VVADP'
tp150
F2
s(S'NP'
S'ADVNDDP'
tp151
F2
s(g127
S'VVADVCP'
tp152
F1
s(S'DP'
p153
S'ADADVNP'
tp154
F1
s(S'PP'
S'ADVAPDP'
tp155
F1
s(S'VP'
S'ADVADVAVNP'
tp156
F1
s(g96
S'VADVVP'
tp157
F1
s(S'DP'
S'ADVADVADVDVVP'
tp158
F1
s(S'VP'
p159
S'ADVADVADVVNP'
tp160
F1
s(S'MP'
S'MVPPP'
tp161
F1
s(S'PP'
p162
S'ADVPAPP'
tp163
F2
s(S'DP'
S'ADVVVP'
tp164
F1
s(S'CP'
S'CCCDP'
tp165
F8
s(S'VP'
S'AVNNP'
tp166
F2
s(S'VP'
p167
S'VCCCP'
tp168
F1
s(S'PP'
S'PADVVVP'
tp169
F2
s(g14
S'APDP'
tp170
F22
s(S'NP'
p171
S'NAAPPP'
tp172
F1
s(S'PP'
p173
S'PADVADVADVPP'
tp174
F1
s(g105
S'VADVADVVVP'
tp175
F1
s(S'NP'
S'ADVANADVPP'
tp176
F1
s(S'DP'
p177
S'DDANNP'
tp178
F2
s(S'AP'
S'AADVACP'
tp179
F1
s(S'VP'
S'VVVVDP'
tp180
F2
s(S'PP'
S'ADVADVADVPDP'
tp181
F1
s(S'AP'
S'AADVADVADVDP'
tp182
F1
s(S'PP'
S'PPADVADVAP'
tp183
F1
s(S'DP'
S'DDDADVNNP'
tp184
F1
s(S'MP'
S'MAVNP'
tp185
F1
s(S'VP'
S'VVVPPPP'
tp186
F1
s(S'PP'
p187
S'PAAP'
tp188
F15
s(g171
S'ADVANCP'
tp189
F4
s(g18
S'DNNP'
tp190
F67
s(S'CP'
S'CADVDDPP'
tp191
F3
s(S'DP'
p192
S'DPPPPP'
tp193
F1
s(S'CP'
S'CDDPPPP'
tp194
F2
s(g68
S'CCADVDP'
tp195
F2
s(g127
S'VVACP'
tp196
F1
s(S'VP'
S'AAVDDP'
tp197
F1
s(S'DP'
S'ADDNP'
tp198
F1
s(g133
S'NNNVP'
tp199
F7
s(S'PP'
p200
S'ADVAPVVP'
tp201
F1
s(S'PP'
S'PPNNNNP'
tp202
F1
s(S'PP'
p203
S'PADVVP'
tp204
F12
s(S'DP'
S'DACP'
tp205
F1
s(S'DP'
S'DADVADVADVPPP'
tp206
F1
s(g90
S'APAP'
tp207
F7
s(S'CP'
p208
S'ADVADVCDP'
tp209
F3
s(S'DP'
p210
S'ADVDDCP'
tp211
F1
s(S'NP'
p212
S'NADVMP'
tp213
F2
s(S'AP'
p214
S'AAP'
tp215
F5
s(S'VP'
S'VVAPP'
tp216
F1
s(S'NP'
p217
S'ADVADVNDP'
tp218
F1
s(S'DP'
p219
S'DAAAPP'
tp220
F1
s(S'NP'
S'ADVANPP'
tp221
F1
s(S'MP'
S'MVVCP'
tp222
F1
s(g75
S'VADVADVNP'
tp223
F1
s(S'CP'
S'CDDDDPP'
tp224
F1
s(S'AP'
S'AADVADVADVADVDP'
tp225
F1
s(g62
S'ANADVCCP'
tp226
F1
s(S'PP'
p227
S'PAANP'
tp228
F2
s(g192
S'DDADVADVVP'
tp229
F1
s(g118
S'NADVADVPPP'
tp230
F1
s(S'NP'
p231
S'ANVP'
tp232
F8
s(S'VP'
S'VAACP'
tp233
F1
s(S'NP'
S'NNAAAP'
tp234
F1
s(S'MP'
S'MVNP'
tp235
F25
s(S'NP'
S'ANAAP'
tp236
F1
s(g208
S'CDDDPPP'
tp237
F2
s(g208
S'CADVADVDDPP'
tp238
F1
s(g14
S'PAVP'
tp239
F17
s(S'MP'
p240
S'ADVMVP'
tp241
F2
s(S'PP'
p242
S'ADVADVPPVP'
tp243
F3
s(S'PP'
S'APPPP'
tp244
F2
s(S'DP'
p245
S'DADP'
tp246
F3
s(S'DP'
p247
S'ADVDVVP'
tp248
F2
s(S'AP'
p249
S'ADVADP'
tp250
F4
s(S'AP'
S'APP'
tp251
F39
s(g127
S'VVADVPP'
tp252
F1
s(S'DP'
p253
S'ADVDDP'
tp254
F3
s(S'PP'
p255
S'APDDP'
tp256
F6
s(g140
S'ADVADVVVNP'
tp257
F3
s(g133
S'ADVNAP'
tp258
F3
s(g253
S'ADVDDDP'
tp259
F1
s(S'PP'
p260
S'PPCP'
tp261
F1
s(S'PP'
p262
S'APVP'
tp263
F20
s(S'VP'
p264
S'VVNP'
tp265
F53
s(g14
S'ADVPPPP'
tp266
F2
s(g14
S'PPVP'
tp267
F47
s(S'PP'
S'PPADVADVPP'
tp268
F1
s(S'VP'
p269
S'VADVDP'
tp270
F9
s(g140
S'VAAP'
tp271
F9
s(S'NP'
p272
S'ANDP'
tp273
F5
s(S'NP'
S'NVVP'
tp274
F48
s(S'PP'
S'AAPVP'
tp275
F3
s(S'VP'
S'VMP'
tp276
F1
s(g12
S'VVNNP'
tp277
F12
s(S'CP'
p278
S'CDAPP'
tp279
F25
s(S'VP'
S'VVAAP'
tp280
F1
s(S'CP'
S'CDADVADVADVADVPP'
tp281
F1
s(g52
S'ADNP'
tp282
F12
s(S'VP'
S'ADVVACP'
tp283
F1
s(S'PP'
S'PADP'
tp284
F20
s(S'NP'
S'NNAADP'
tp285
F1
s(g217
S'ANDDP'
tp286
F1
s(S'AP'
S'AAADVADVDP'
tp287
F1
s(S'DP'
p288
S'ADVADVDVP'
tp289
F1
s(S'VP'
S'VVVDDP'
tp290
F2
s(S'DP'
p291
S'DAPP'
tp292
F37
s(S'VP'
p293
S'ADVADVVPP'
tp294
F4
s(S'VP'
S'ADVADVADVVDP'
tp295
F1
s(S'PP'
p296
S'PPPDP'
tp297
F7
s(S'VP'
p298
S'AVVAAP'
tp299
F1
s(S'MP'
S'MVVAP'
tp300
F1
s(S'VP'
S'VDDDDP'
tp301
F1
s(S'PP'
S'PPMMMP'
tp302
F1
s(g18
S'DADVANP'
tp303
F4
s(S'DP'
S'DDAADP'
tp304
F1
s(S'DP'
p305
S'ADVDNP'
tp306
F9
s(S'VP'
p307
S'VVPP'
tp308
F29
s(S'PP'
p309
S'ADVPADVPPPP'
tp310
F1
s(S'PP'
S'ADVPAAPP'
tp311
F1
s(S'CP'
S'AACDDP'
tp312
F2
s(S'MP'
S'MVPP'
tp313
F6
s(g291
S'ADVP'
tp314
F12
s(g24
S'CDDPPP'
tp315
F17
s(S'NP'
p316
S'NNPP'
tp317
F36
s(S'DP'
p318
S'DDDDNP'
tp319
F1
s(S'MP'
S'MVVDP'
tp320
F3
s(g103
S'DADVPPP'
tp321
F1
s(S'PP'
S'PPVVP'
tp322
F10
s(g247
S'DADVADVADVADVPP'
tp323
F1
s(g146
S'DNNNP'
tp324
F7
s(S'MP'
S'MVADVCP'
tp325
F1
s(g4
S'ANAP'
tp326
F1
s(S'PP'
p327
S'PMMP'
tp328
F2
s(g14
S'PVVVP'
tp329
F3
s(S'PP'
p330
S'PMP'
tp331
F16
s(S'NP'
S'NNMMP'
tp332
F1
s(S'CP'
p333
S'CCDP'
tp334
F72
s(S'NP'
S'ANNDP'
tp335
F1
s(S'VP'
S'VADVANP'
tp336
F2
s(g264
S'VPPP'
tp337
F23
s(g52
S'ADADVDDP'
tp338
F1
s(S'NP'
S'NVVVP'
tp339
F7
s(S'CP'
S'CDDDPP'
tp340
F3
s(g85
S'PADVADVADVADVNP'
tp341
F1
s(S'CP'
S'CDAAPP'
tp342
F1
s(S'VP'
p343
S'ADVADVVVVP'
tp344
F1
s(g54
S'VVVDP'
tp345
F6
s(S'PP'
p346
S'PDDDDP'
tp347
F2
s(g330
S'PNNNP'
tp348
F9
s(S'CP'
S'CCCCDP'
tp349
F1
s(S'VP'
S'VVVVCP'
tp350
F1
s(S'AP'
S'AACCP'
tp351
F1
s(g346
S'AAPNP'
tp352
F3
s(g343
S'ADVVVDP'
tp353
F2
s(g14
S'PPP'
tp354
F120
s(g144
S'NAVP'
tp355
F10
s(g327
S'ADVAPNNP'
tp356
F1
s(g59
S'PADVAP'
tp357
F2
s(S'MP'
S'AMDP'
tp358
F1
s(S'DP'
S'DDADVAVP'
tp359
F1
s(S'DP'
p360
S'ADVADVDDPPP'
tp361
F1
s(S'DP'
S'ADVDVP'
tp362
F7
s(S'PP'
S'PPADVADVNP'
tp363
F1
s(S'NP'
p364
S'NADVVVP'
tp365
F6
s(S'DP'
S'DADVADVPPP'
tp366
F2
s(S'AP'
p367
S'AADVVP'
tp368
F3
s(S'DP'
S'ADPP'
tp369
F26
s(g192
S'ADVADVDNP'
tp370
F1
s(S'AP'
S'AAADVCP'
tp371
F1
s(g54
S'VPP'
tp372
F116
s(S'PP'
S'PPADVVVP'
tp373
F1
s(S'CP'
p374
S'ADVCCDP'
tp375
F5
s(S'CP'
S'ACCDP'
tp376
F2
s(g177
S'ADVDDNP'
tp377
F4
s(S'NP'
S'NNNCP'
tp378
F8
s(g203
S'PADVDP'
tp379
F11
s(S'AP'
S'ADVAADP'
tp380
F1
s(S'PP'
p381
S'PADVAAP'
tp382
F2
s(g278
S'CDDPP'
tp383
F63
s(g291
S'DAAPP'
tp384
F5
s(g330
S'PVVP'
tp385
F44
s(S'CP'
S'CADPPP'
tp386
F3
s(g249
S'AACP'
tp387
F2
s(S'VP'
S'ADVVCP'
tp388
F6
s(S'PP'
S'PPNNNP'
tp389
F3
s(S'VP'
p390
S'VVPPP'
tp391
F4
s(g118
S'ADVADVADVNVVP'
tp392
F2
s(S'VP'
S'ADVVVCCP'
tp393
F1
s(g346
S'PPAP'
tp394
F17
s(S'DP'
p395
S'DVVP'
tp396
F31
s(g120
S'PADVAVP'
tp397
F1
s(g187
S'ADVADVADVPPPP'
tp398
F1
s(g272
S'ANMP'
tp399
F1
s(S'AP'
S'APPP'
tp400
F5
s(g162
S'ADVPPP'
tp401
F6
s(S'NP'
S'ADVADVNVP'
tp402
F2
s(g28
S'VVVP'
tp403
F19
s(g374
S'CADVDPP'
tp404
F15
s(g83
S'ADVADVNNVP'
tp405
F1
s(S'NP'
S'ANCP'
tp406
F18
s(S'DP'
p407
S'DCP'
tp408
F15
s(g66
S'ANNCP'
tp409
F2
s(S'MP'
S'MMMAVP'
tp410
F1
s(S'NP'
S'AAANCP'
tp411
F3
s(S'DP'
S'DADVADVADVNP'
tp412
F1
s(S'NP'
S'NVVVVP'
tp413
F1
s(S'DP'
p414
S'DDDP'
tp415
F21
s(S'DP'
p416
S'DDADVPP'
tp417
F8
s(S'NP'
S'ANVVP'
tp418
F2
s(g293
S'VVDP'
tp419
F42
s(g66
S'NPPP'
tp420
F29
s(S'DP'
S'ADDDP'
tp421
F1
s(S'VP'
p422
S'ADVVNNNP'
tp423
F1
s(S'DP'
S'DAVP'
tp424
F8
s(S'AP'
p425
S'ACP'
tp426
F34
s(g85
S'ADVADVPPP'
tp427
F2
s(S'PP'
p428
S'ADVPNNNP'
tp429
F1
s(S'PP'
S'PADVADVNNP'
tp430
F1
s(g50
S'PPNP'
tp431
F62
s(S'DP'
p432
S'ADVDAPP'
tp433
F2
s(S'DP'
S'AADVP'
tp434
F3
s(S'VP'
S'ADVAVPPP'
tp435
F1
s(S'AP'
S'ADVAAVP'
tp436
F1
s(g112
S'CDDADVPP'
tp437
F3
s(g24
S'CCCDDP'
tp438
F1
s(S'AP'
S'ADP'
tp439
F130
s(S'DP'
S'DDPPPP'
tp440
F2
s(S'NP'
S'ANPPP'
tp441
F1
s(S'DP'
S'ADVDAAPP'
tp442
F1
s(S'NP'
p443
S'ADVANCCP'
tp444
F1
s(S'DP'
S'AAAADPP'
tp445
F1
s(S'VP'
S'VAAANP'
tp446
F2
s(S'VP'
S'VVPPPP'
tp447
F1
s(S'VP'
S'AAAVDP'
tp448
F1
s(S'AP'
S'AAADP'
tp449
F9
s(g77
S'ADVAPDDP'
tp450
F1
s(g298
S'VVAP'
tp451
F9
s(S'NP'
p452
S'NNAPP'
tp453
F2
s(S'NP'
S'NNADVADVADVVP'
tp454
F1
s(S'CP'
S'ADVACDP'
tp455
F1
s(S'PP'
p456
S'PPADVVP'
tp457
F2
s(S'VP'
S'AAVCP'
tp458
F1
s(S'NP'
p459
S'NNADVCCP'
tp460
F1
s(g316
S'NPP'
tp461
F148
s(S'PP'
S'PPPPNP'
tp462
F1
s(g316
S'NVP'
tp463
F161
s(S'NP'
p464
S'NNDDDP'
tp465
F1
s(g255
S'PAAVP'
tp466
F4
s(g456
S'AAPPNP'
tp467
F1
s(S'NP'
S'NAAPP'
tp468
F2
s(g35
S'PPPPVP'
tp469
F1
s(g148
S'VDDP'
tp470
F45
s(S'PP'
p471
S'ADVADVADVADVPNP'
tp472
F1
s(g367
S'AAADVDP'
tp473
F1
s(S'NP'
S'NNNNDP'
tp474
F1
s(g81
S'DADVAPP'
tp475
F2
s(S'PP'
S'PAAAVP'
tp476
F1
s(S'NP'
S'NADVADVVVP'
tp477
F2
s(g64
S'ANPP'
tp478
F22
s(S'PP'
S'ADVPPDP'
tp479
F1
s(g330
S'PPPPP'
tp480
F8
s(S'MP'
S'MPDP'
tp481
F2
s(S'PP'
S'ADVADVPDP'
tp482
F1
s(S'MP'
S'MVVPP'
tp483
F1
s(g288
S'DDADVADVANP'
tp484
F1
s(g50
S'PPPNP'
tp485
F7
s(S'VP'
S'VVAAPP'
tp486
F1
s(S'NP'
S'ADVADVNPP'
tp487
F1
s(S'NP'
S'NPPPP'
tp488
F3
s(g136
S'VVADVNNP'
tp489
F1
s(S'CP'
p490
S'CAADPP'
tp491
F4
s(g43
S'DDADVADVPPP'
tp492
F2
s(S'NP'
p493
S'NAACP'
tp494
F4
s(g14
S'PNNP'
tp495
F55
s(S'CP'
S'CDADVADVADVPPP'
tp496
F1
s(g327
S'APNNP'
tp497
F1
s(g177
S'DDAAP'
tp498
F1
s(S'DP'
S'AAADPP'
tp499
F1
s(S'VP'
S'AVAP'
tp500
F2
s(S'MP'
S'MMVP'
tp501
F6
s(g255
S'PADVDDP'
tp502
F1
s(S'PP'
S'PPPPAAP'
tp503
F1
s(S'NP'
p504
S'ADVNCP'
tp505
F15
s(g162
S'PPAADP'
tp506
F1
s(S'NP'
S'NAPPP'
tp507
F1
s(g333
S'ACDP'
tp508
F27
s(S'NP'
S'NNDP'
tp509
F19
s(S'VP'
p510
S'ADVADVVAAP'
tp511
F1
s(S'NP'
S'NNACP'
tp512
F2
s(S'VP'
S'VAP'
tp513
F82
s(S'DP'
S'DDDPP'
tp514
F8
s(S'CP'
S'ADVCDDP'
tp515
F4
s(g66
S'AANNCP'
tp516
F1
s(S'DP'
S'DAACP'
tp517
F1
s(S'MP'
S'MAVPP'
tp518
F1
s(S'VP'
p519
S'ADVADVVVAP'
tp520
F2
s(g305
S'DDDPPP'
tp521
F3
s(g153
S'DADVDP'
tp522
F2
s(g48
S'ADVNADVAPP'
tp523
F1
s(g138
S'ADVDDVVVP'
tp524
F1
s(S'CP'
S'CCADVADP'
tp525
F1
s(S'AP'
S'AVVP'
tp526
F3
s(g200
S'PPPVP'
tp527
F6
s(S'AP'
S'AADDP'
tp528
F4
s(g136
S'VADVADVADVCP'
tp529
F1
s(S'VP'
S'VAANP'
tp530
F1
s(g71
S'NADVADVCP'
tp531
F3
s(S'DP'
S'DDDDPP'
tp532
F1
s(S'MP'
S'MPNP'
tp533
F2
s(S'DP'
S'DDADVNP'
tp534
F2
s(g123
S'PANP'
tp535
F15
s(g360
S'AADNP'
tp536
F1
s(g452
S'NADVDDP'
tp537
F2
s(S'AP'
S'AAVP'
tp538
F5
s(g459
S'NAAP'
tp539
F4
s(g64
S'NDDP'
tp540
F15
s(g159
S'VADVCP'
tp541
F4
s(g425
S'ACCP'
tp542
F8
s(g452
S'ADVADVANCP'
tp543
F2
s(g390
S'VVVVAP'
tp544
F1
s(g519
S'AVPPP'
tp545
F2
s(g316
S'NDP'
tp546
F93
s(S'VP'
S'ADVVANP'
tp547
F1
s(S'NP'
S'NNADVADVDP'
tp548
F1
s(g8
S'DDVP'
tp549
F33
s(g87
S'AANVP'
tp550
F3
s(g428
S'PPADVANP'
tp551
F1
s(S'VP'
S'ADVVVNNP'
tp552
F1
s(S'VP'
S'VNNNP'
tp553
F1
s(S'PP'
p554
S'ADVPAP'
tp555
F1
s(g471
S'APADVDP'
tp556
F1
s(g59
S'PCP'
tp557
F11
s(S'NP'
p558
S'NNPPP'
tp559
F10
s(g203
S'PAADP'
tp560
F2
s(g443
S'ADVNNVP'
tp561
F1
s(S'NP'
p562
S'NADVCCP'
tp563
F2
s(S'VP'
S'VPPPP'
tp564
F1
s(S'NP'
S'NNNDP'
tp565
F2
s(S'AP'
S'ADVACP'
tp566
F1
s(g432
S'DDADVVP'
tp567
F1
s(S'DP'
S'ADPPP'
tp568
F4
s(g125
S'NNAAVP'
tp569
F1
s(S'MP'
S'MVCP'
tp570
F7
s(g490
S'CCDDP'
tp571
F22
s(g558
S'NNADVVP'
tp572
F2
s(g390
S'AAVCCP'
tp573
F1
s(S'VP'
S'ADVADVADVVPP'
tp574
F1
s(g4
S'NAACCP'
tp575
F1
s(g316
S'NNVVP'
tp576
F11
s(g212
S'NAAMP'
tp577
F1
s(g28
S'VVCP'
tp578
F16
s(g316
S'AANCP'
tp579
F6
s(g307
S'VADVNP'
tp580
F9
s(S'AP'
S'ADVAVVP'
tp581
F1
s(g66
S'NNDDP'
tp582
F7
s(g510
S'ADVVPP'
tp583
F4
s(S'CP'
S'CADVADVADVDDPP'
tp584
F1
s(g240
S'AAMVVP'
tp585
F1
s(g148
S'VNNP'
tp586
F37
s(S'AP'
S'AADVDP'
tp587
F3
s(g493
S'NADP'
tp588
F3
s(g432
S'ADVADDNP'
tp589
F1
s(g94
S'DDNP'
tp590
F53
s(S'CP'
p591
S'ACADVDP'
tp592
F1
s(S'NP'
S'NADVCP'
tp593
F9
s(g52
S'DDNNP'
tp594
F16
s(S'VP'
S'ADVAVPP'
tp595
F1
s(g242
S'PADVADVVVP'
tp596
F1
s(g316
S'ADVANVP'
tp597
F3
s(S'NP'
S'ADVADVNCP'
tp598
F2
s(g395
S'AADPP'
tp599
F5
s(g129
S'ADVADVPPDP'
tp600
F1
s(S'AP'
p601
S'AADVADVVP'
tp602
F2
s(S'NP'
S'NNADVADVADVCP'
tp603
F1
s(g231
S'NADVADVCCP'
tp604
F1
s(S'MP'
S'MVVNP'
tp605
F4
s(S'VP'
S'AAVVDP'
tp606
F1
s(g432
S'ADVDNNP'
tp607
F3
s(S'CP'
S'ACDDP'
tp608
F1
s(g364
S'AANDP'
tp609
F2
s(g214
S'AAPP'
tp610
F1
s(g422
S'VVCCP'
tp611
F6
s(S'DP'
S'DADVVVP'
tp612
F1
s(g318
S'DADVADVNP'
tp613
F1
s(S'PP'
S'ADVPANP'
tp614
F1
s(S'CP'
S'CADVDAAPP'
tp615
F1
s(S'NP'
S'NAPP'
tp616
F12
s(S'AP'
S'ADVADVADP'
tp617
F2
s(S'NP'
p618
S'NADVDP'
tp619
F2
s(g37
S'VVVCP'
tp620
F3
s(S'NP'
p621
S'ANCCP'
tp622
F2
s(S'VP'
S'VDDDP'
tp623
F3
s(g66
S'NNMP'
tp624
F6
s(S'DP'
p625
S'DDDVP'
tp626
F7
s(g327
S'ADVADVPNNP'
tp627
F1
s(g159
S'VVADVADVPP'
tp628
F1
s(S'PP'
S'PPPAP'
tp629
F1
s(S'CP'
S'CDDAPP'
tp630
F6
s(g621
S'ADVANVVP'
tp631
F1
s(S'MP'
S'MVAP'
tp632
F3
s(g14
S'PVP'
tp633
F159
s(S'VP'
S'VADVPPP'
tp634
F1
s(g16
S'PPPAAMP'
tp635
F1
s(S'MP'
S'AAMVP'
tp636
F1
s(S'CP'
S'ACDDDP'
tp637
F1
s(g309
S'ADVPPPVP'
tp638
F1
s(g414
S'DVVVP'
tp639
F4
s(S'DP'
S'DDDDNNNP'
tp640
F1
s(S'VP'
S'VCCCCP'
tp641
F1
s(S'NP'
p642
S'ADVADVADVNVP'
tp643
F2
s(S'MP'
S'MMMMVP'
tp644
F1
s(g562
S'ADVNACP'
tp645
F1
s(S'PP'
p646
S'PPDDP'
tp647
F9
s(g519
S'AVCP'
tp648
F4
s(S'DP'
S'DDVVVP'
tp649
F1
s(g618
S'ADVNNPPP'
tp650
F1
s(g18
S'DPP'
tp651
F200
s(g231
S'ADVNVP'
tp652
F10
s(g94
S'DDPP'
tp653
F98
s(S'DP'
S'DANP'
tp654
F21
s(g364
S'NADVPP'
tp655
F3
s(S'PP'
S'ADVADVPPNP'
tp656
F2
s(S'DP'
S'ADVADVADPP'
tp657
F1
s(S'PP'
S'PDDDP'
tp658
F4
s(g318
S'ADVADVDPPP'
tp659
F1
s(S'NP'
S'NNNNCP'
tp660
F2
s(S'MP'
S'MDNP'
tp661
F3
s(g87
S'NNAACP'
tp662
F1
s(g558
S'NNNVVP'
tp663
F2
s(S'MP'
S'MVVADVNP'
tp664
F1
s(S'PP'
S'PADVPPP'
tp665
F1
s(S'DP'
S'DCCP'
tp666
F4
s(g305
S'AADDP'
tp667
F1
s(S'PP'
S'PPADVADVVP'
tp668
F1
s(g296
S'AAPDP'
tp669
F1
s(S'DP'
S'ADVADPP'
tp670
F1
s(S'VP'
S'AVVDP'
tp671
F1
s(g50
S'PDDP'
tp672
F49
s(S'MP'
S'MVDDP'
tp673
F2
s(S'PP'
S'PCCP'
tp674
F1
s(g48
S'NNNADVPP'
tp675
F1
s(g66
S'NNVP'
tp676
F50
s(g4
S'ADVNNAPP'
tp677
F1
s(S'NP'
S'ADVANNCP'
tp678
F1
s(g554
S'APPPPP'
tp679
F1
s(g54
S'AVDP'
tp680
F12
s(g510
S'VVDDP'
tp681
F7
s(g432
S'DAANP'
tp682
F5
s(S'AP'
S'ADDP'
tp683
F28
s(g381
S'PNNNNP'
tp684
F1
s(S'VP'
S'ADVVVAP'
tp685
F2
s(g245
S'DDADVAPP'
tp686
F1
s(S'DP'
S'ADPPPPP'
tp687
F1
s(S'CP'
S'ADVADVADVCDP'
tp688
F2
s(g94
S'DPPP'
tp689
F102
s(S'DP'
S'AADPPP'
tp690
F3
s(g264
S'VANNP'
tp691
F1
s(S'PP'
S'APADVVP'
tp692
F1
s(S'DP'
S'DDADVADVNP'
tp693
F2
s(g646
S'ADVPNP'
tp694
F11
s(g50
S'PPDP'
tp695
F54
s(g227
S'AAAPNNP'
tp696
F1
s(S'PP'
S'ADVPPNP'
tp697
F1
s(S'MP'
S'MAVDP'
tp698
F1
s(g173
S'ADVADVADVPVP'
tp699
F1
s(S'NP'
S'ADVNNVVP'
tp700
F1
s(g210
S'DDCP'
tp701
F2
s(g68
S'CADADVADVPP'
tp702
F1
s(g510
S'VADVADDP'
tp703
F1
s(S'PP'
S'PPADVDDP'
tp704
F2
s(g504
S'NAP'
tp705
F37
s(g459
S'NNAAP'
tp706
F3
s(g26
S'VAAAP'
tp707
F4
s(S'MP'
S'MVVADVCP'
tp708
F1
s(S'DP'
S'DAAANP'
tp709
F1
s(S'VP'
S'ADVAVNP'
tp710
F2
s(g264
S'VVP'
tp711
F29
s(g57
S'DDAPP'
tp712
F7
s(g123
S'ADVADVPVP'
tp713
F2
s(g219
S'ADVADVADVDDVP'
tp714
F1
s(g50
S'APNP'
tp715
F15
s(g253
S'DDVVP'
tp716
F10
s(S'CP'
S'CADVADVDPP'
tp717
F1
s(S'VP'
S'VVVNP'
tp718
F4
s(S'NP'
S'NNADVPP'
tp719
F2
s(S'MP'
S'MVANP'
tp720
F1
s(g305
S'ADVADVDDPP'
tp721
F1
s(g333
S'CDPP'
tp722
F185
s(S'AP'
S'ADDDP'
tp723
F2
s(g54
S'VVAANP'
tp724
F1
s(g432
S'ADADVADVPP'
tp725
F1
s(S'CP'
S'ADVCDP'
tp726
F13
s(g519
S'ADVADVVNP'
tp727
F2
s(S'NP'
S'NADVADVADVCP'
tp728
F1
s(S'PP'
S'PADVADVDP'
tp729
F1
s(S'VP'
S'ADVADVVCP'
tp730
F1
s(g50
S'PPNNP'
tp731
F8
s(g456
S'ADVPAVP'
tp732
F2
s(S'PP'
S'PADVCP'
tp733
F1
s(S'PP'
S'PPMP'
tp734
F1
s(g416
S'ADVADVDPP'
tp735
F3
s(g264
S'VDP'
tp736
F166
s(g459
S'NADVAP'
tp737
F2
s(S'VP'
S'AVDDP'
tp738
F4
s(S'DP'
S'DADVNP'
tp739
F12
s(S'DP'
S'ADVADVADVADVDDP'
tp740
F1
s(g395
S'DAP'
tp741
F28
s(S'CP'
S'CADPP'
tp742
F16
s(S'DP'
S'ADVADVDVVP'
tp743
F1
s(S'NP'
S'NADVAVP'
tp744
F1
s(g269
S'ADVADVVVPP'
tp745
F1
s(S'PP'
S'PPDDDP'
tp746
F2
s(S'VP'
S'AVPP'
tp747
F7
s(S'CP'
S'CAADPPP'
tp748
F1
s(S'MP'
S'MAVVAAP'
tp749
F1
s(S'CP'
S'CDPPPP'
tp750
F5
s(g167
S'AAVDP'
tp751
F2
s(S'PP'
S'PANNP'
tp752
F1
s(S'VP'
S'VACCP'
tp753
F1
s(g346
S'APPP'
tp754
F7
s(g22
S'PPADVADVPPP'
tp755
F1
s(g625
S'DADVADVPP'
tp756
F4
s(g8
S'DMP'
tp757
F6
s(g43
S'ADVDPP'
tp758
F21
s(g327
S'PPAANP'
tp759
F2
s(S'PP'
S'PADVADVNP'
tp760
F1
s(g210
S'ADVADVADVDDPP'
tp761
F1
s(S'AP'
S'AADP'
tp762
F29
s(S'VP'
p763
S'VADVPP'
tp764
F4
s(S'PP'
S'PVVVVP'
tp765
F2
s(g262
S'ADVPVP'
tp766
F10
s(S'DP'
S'DDADVADVADVNP'
tp767
F1
s(S'NP'
S'NNVVVP'
tp768
F1
s(S'PP'
S'PADVADVADVNP'
tp769
F2
s(g173
S'PAMP'
tp770
F1
s(g162
S'ADVPDP'
tp771
F9
s(g203
S'PPPVVP'
tp772
F2
s(S'PP'
S'PPDDDDP'
tp773
F1
s(g316
S'NCP'
tp774
F174
s(S'CP'
S'CADVDPPP'
tp775
F3
s(S'VP'
S'ADVVVPP'
tp776
F1
s(S'CP'
S'ADVADVADVCADP'
tp777
F1
s(g464
S'NNADVADVADVPP'
tp778
F1
s(g642
S'ADVNADVCCP'
tp779
F1
s(S'PP'
S'PPAPP'
tp780
F1
s(S'PP'
S'PPPNNP'
tp781
F3
s(g210
S'DADVNNP'
tp782
F1
s(S'NP'
S'NNCCP'
tp783
F17
s(S'MP'
S'MNVP'
tp784
F1
s(g591
S'ADVADVCCDP'
tp785
F1
s(S'PP'
S'PADVADVAP'
tp786
F1
s(g264
S'VAPP'
tp787
F8
s(S'NP'
S'NPPPPP'
tp788
F1
s(g510
S'ADVVDP'
tp789
F12
s(S'VP'
S'VADDP'
tp790
F1
s(g18
S'DADVPP'
tp791
F20
s(g227
S'PADVADVADVDDP'
tp792
F1
s(g114
S'CCADP'
tp793
F2
s(g272
S'ADVNNCP'
tp794
F2
s(g407
S'ADVDAP'
tp795
F1
s(g601
S'ADVAPP'
tp796
F1
s(g59
S'ADVADVPVVP'
tp797
F2
s(S'CP'
S'AACDP'
tp798
F5
s(g83
S'NNNCCP'
tp799
F1
s(S'CP'
S'CCADVADVDDP'
tp800
F1
s(S'DP'
S'ADVDPPP'
tp801
F3
s(g94
S'DVP'
tp802
F153
s(g54
S'ADVVAP'
tp803
F4
s(g4
S'ADVNPP'
tp804
F2
s(S'NP'
S'NNCCCP'
tp805
F1
s(S'AP'
S'AVP'
tp806
F29
s(g316
S'NADVVP'
tp807
F14
s(S'CP'
S'CDAAAPP'
tp808
F1
s(S'CP'
S'CAAAADPP'
tp809
F1
s(S'DP'
S'DADVANNP'
tp810
F1
s(g94
S'DDPPP'
tp811
F29
s(g107
S'NNAP'
tp812
F6
s(g327
S'PPANP'
tp813
F1
s(g343
S'VVADVADVDP'
tp814
F1
s(g333
S'CDADVPP'
tp815
F13
s(g264
S'VNP'
tp816
F150
s(g763
S'VANP'
tp817
F12
s(g127
S'VADVAP'
tp818
F3
s(g260
S'PADVADVAVP'
tp819
F1
s(g162
S'PPADVNP'
tp820
F5
s(g96
S'VVVAP'
tp821
F1
s(g291
S'DDDDVP'
tp822
F2
s(S'NP'
S'NADVPPP'
tp823
F2
s.