ccollections
defaultdict
p1
(c__builtin__
float
p2
tRp3
(S'VP'
S'VVAAAP'
tp4
F1
s(S'DP'
p5
S'ADDPP'
tp6
F3
s(S'DP'
S'DDAP'
tp7
F1
s(S'PP'
p8
S'PAPP'
tp9
F8
s(S'PP'
S'PADVNP'
tp10
F8
s(S'DP'
S'ADVAAADVVP'
tp11
F1
s(S'DP'
p12
S'DNP'
tp13
F239
s(S'NP'
S'ADVNDP'
tp14
F2
s(S'VP'
S'ADVVNNP'
tp15
F1
s(S'CP'
p16
S'CDPPP'
tp17
F56
s(S'VP'
S'VADP'
tp18
F10
s(g16
S'CDAAPPP'
tp19
F1
s(S'DP'
p20
S'DAAP'
tp21
F3
s(S'PP'
S'PPPPPP'
tp22
F1
s(S'DP'
p23
S'ADNNP'
tp24
F3
s(S'VP'
p25
S'AVADVDP'
tp26
F1
s(S'PP'
p27
S'ADVPPPP'
tp28
F1
s(S'PP'
S'APVP'
tp29
F16
s(S'MP'
S'MVDP'
tp30
F17
s(S'PP'
p31
S'PPPP'
tp32
F25
s(S'DP'
p33
S'DDDNP'
tp34
F4
s(S'AP'
S'AADVADVADVAMP'
tp35
F1
s(S'VP'
p36
S'VACP'
tp37
F1
s(S'AP'
S'AAAVP'
tp38
F3
s(S'DP'
p39
S'DADVVP'
tp40
F8
s(S'VP'
p41
S'ADVADVVDDP'
tp42
F1
s(S'VP'
S'VVADDP'
tp43
F1
s(S'AP'
S'AADVPP'
tp44
F1
s(S'DP'
p45
S'AADCCP'
tp46
F1
s(S'NP'
S'NDDDP'
tp47
F1
s(S'NP'
S'NCCCP'
tp48
F1
s(S'CP'
S'CADVADVDDPP'
tp49
F1
s(S'VP'
p50
S'VCP'
tp51
F108
s(S'CP'
S'CAADADVADVPP'
tp52
F1
s(S'CP'
S'CAAADPPP'
tp53
F1
s(S'DP'
S'DDDNNP'
tp54
F2
s(S'PP'
p55
S'PAP'
tp56
F81
s(S'PP'
S'PPANNP'
tp57
F1
s(S'MP'
S'MMVVP'
tp58
F1
s(S'DP'
S'DDADVADVPP'
tp59
F1
s(S'PP'
p60
S'ADVPPVP'
tp61
F1
s(S'NP'
S'NNNAP'
tp62
F2
s(S'PP'
S'APVVP'
tp63
F1
s(S'PP'
p64
S'AAAAAAPPPP'
tp65
F1
s(S'PP'
S'PPADVDP'
tp66
F1
s(S'VP'
p67
S'ADVADVVPPP'
tp68
F1
s(S'PP'
p69
S'PNP'
tp70
F227
s(S'DP'
p71
S'DDP'
tp72
F43
s(S'NP'
S'NNNPP'
tp73
F1
s(S'VP'
S'VCCP'
tp74
F15
s(S'VP'
p75
S'ADVVVDDP'
tp76
F1
s(g45
S'DDAAAAAAPP'
tp77
F1
s(S'MP'
S'MCDP'
tp78
F1
s(S'PP'
p79
S'APADVADP'
tp80
F1
s(S'DP'
S'ADVADVADNP'
tp81
F1
s(S'DP'
S'DDAANP'
tp82
F1
s(S'NP'
p83
S'NMP'
tp84
F55
s(S'VP'
p85
S'AVADVPP'
tp86
F1
s(g69
S'PDP'
tp87
F201
s(S'CP'
p88
S'CCADVADVDP'
tp89
F2
s(S'CP'
S'CDADVADVPP'
tp90
F2
s(S'NP'
S'ADVNVVP'
tp91
F1
s(S'VP'
p92
S'VNNNNP'
tp93
F1
s(S'MP'
S'MNNVP'
tp94
F1
s(S'CP'
S'CDADVADVPPP'
tp95
F1
s(S'NP'
p96
S'NACCP'
tp97
F3
s(S'AP'
S'ANP'
tp98
F1
s(S'PP'
S'ADVPAAP'
tp99
F1
s(S'NP'
S'NADVADVADVVP'
tp100
F1
s(S'PP'
p101
S'PADVPP'
tp102
F2
s(S'NP'
S'NNADVCP'
tp103
F1
s(S'PP'
S'ADVADVPPVVP'
tp104
F1
s(S'PP'
S'PPADVAP'
tp105
F1
s(S'NP'
S'ANVVVVP'
tp106
F1
s(S'DP'
S'DPPPP'
tp107
F10
s(S'DP'
S'DDANP'
tp108
F2
s(S'PP'
p109
S'PADVADP'
tp110
F1
s(g96
S'NACP'
tp111
F14
s(S'AP'
p112
S'ADVAVP'
tp113
F4
s(S'NP'
p114
S'NCCP'
tp115
F59
s(S'AP'
p116
S'ADVAVVVP'
tp117
F1
s(g83
S'NNCP'
tp118
F63
s(S'DP'
p119
S'ADVDDPP'
tp120
F3
s(g114
S'NADVADVVP'
tp121
F3
s(S'DP'
S'DDDDP'
tp122
F1
s(g75
S'AVNP'
tp123
F9
s(S'AP'
S'ADVADVANNP'
tp124
F1
s(g101
S'ADVPVVP'
tp125
F2
s(S'PP'
p126
S'ADVAPDP'
tp127
F2
s(S'VP'
S'VADVVP'
tp128
F2
s(S'CP'
S'ACCDDP'
tp129
F1
s(S'NP'
S'ANADVVP'
tp130
F2
s(S'PP'
p131
S'ADVAPVP'
tp132
F3
s(S'AP'
S'AAAAP'
tp133
F1
s(S'DP'
S'DADVPPP'
tp134
F1
s(S'CP'
S'CCCDP'
tp135
F2
s(S'VP'
p136
S'ADVVAP'
tp137
F2
s(S'PP'
p138
S'APDP'
tp139
F21
s(S'VP'
p140
S'VADVNNP'
tp141
F1
s(S'NP'
p142
S'ADVNPPP'
tp143
F1
s(S'PP'
p144
S'ADVADVPAAVP'
tp145
F1
s(S'VP'
p146
S'VADVADVVVP'
tp147
F1
s(S'NP'
S'ADVNADVCP'
tp148
F1
s(g144
S'PPPPCP'
tp149
F1
s(g31
S'ADVPNNP'
tp150
F1
s(g36
S'ADVVVP'
tp151
F2
s(S'AP'
S'AANP'
tp152
F1
s(S'MP'
S'MADVVNP'
tp153
F2
s(S'PP'
p154
S'PAAP'
tp155
F15
s(S'NP'
p156
S'ADVANCP'
tp157
F2
s(S'DP'
S'DNNP'
tp158
F68
s(S'CP'
p159
S'CADVDDPP'
tp160
F1
s(S'DP'
S'DPPPPP'
tp161
F2
s(S'CP'
S'CCADVDP'
tp162
F3
s(S'PP'
S'AAAPPPP'
tp163
F1
s(S'VP'
S'AAVDDP'
tp164
F2
s(S'DP'
p165
S'ADDNP'
tp166
F1
s(S'NP'
p167
S'NNNVP'
tp168
F7
s(S'PP'
S'PAAVVP'
tp169
F1
s(g50
S'VDP'
tp170
F216
s(g64
S'AAPPDP'
tp171
F1
s(S'PP'
p172
S'PPNNNNP'
tp173
F1
s(S'DP'
p174
S'DACP'
tp175
F1
s(S'PP'
S'APAP'
tp176
F1
s(g159
S'ADVADVCDP'
tp177
F2
s(S'AP'
S'ACCCP'
tp178
F1
s(S'NP'
p179
S'NADVMP'
tp180
F1
s(g131
S'PPADP'
tp181
F2
s(S'CP'
S'CADVADPP'
tp182
F2
s(S'DP'
p183
S'DDADVADVADVAP'
tp184
F1
s(S'DP'
S'DAAAPP'
tp185
F2
s(S'MP'
S'MVVCP'
tp186
F1
s(S'DP'
S'DAAVP'
tp187
F2
s(g55
S'PAANP'
tp188
F6
s(S'PP'
S'PPVVP'
tp189
F6
s(S'MP'
S'ADVADVMVP'
tp190
F1
s(S'NP'
S'NNAAAP'
tp191
F2
s(S'MP'
S'MVNP'
tp192
F37
s(S'NP'
S'ANAAP'
tp193
F1
s(S'AP'
S'ADVAADP'
tp194
F1
s(S'DP'
p195
S'ADVADNP'
tp196
F2
s(S'PP'
p197
S'PAVP'
tp198
F12
s(S'MP'
S'ADVMVP'
tp199
F1
s(S'VP'
S'ADVVMP'
tp200
F1
s(S'CP'
p201
S'CADVADVADPP'
tp202
F1
s(S'PP'
S'APPPP'
tp203
F1
s(S'DP'
S'DADP'
tp204
F3
s(g146
S'VVAANP'
tp205
F1
s(g116
S'ADVADP'
tp206
F4
s(S'AP'
S'APP'
tp207
F19
s(g71
S'ADVDDP'
tp208
F3
s(S'PP'
S'APDDP'
tp209
F3
s(S'VP'
S'ADVADVVVNP'
tp210
F2
s(S'DP'
S'DDDDVVP'
tp211
F1
s(S'PP'
p212
S'PPCP'
tp213
F2
s(S'VP'
S'ADVVNP'
tp214
F12
s(S'MP'
p215
S'MNCP'
tp216
F1
s(S'VP'
p217
S'VVNP'
tp218
F36
s(S'PP'
S'PPPNNP'
tp219
F2
s(g138
S'PPVP'
tp220
F51
s(S'MP'
S'MPCP'
tp221
F1
s(g27
S'ADVPAADP'
tp222
F1
s(g92
S'VADVDP'
tp223
F10
s(S'VP'
S'VVADVAP'
tp224
F1
s(g217
S'VAAP'
tp225
F17
s(g167
S'ANDP'
tp226
F11
s(S'NP'
S'NVVP'
tp227
F64
s(S'PP'
p228
S'AAPVP'
tp229
F3
s(S'AP'
p230
S'AAP'
tp231
F9
s(g136
S'VMP'
tp232
F7
s(S'NP'
p233
S'ANPPPP'
tp234
F1
s(S'DP'
S'DCCCP'
tp235
F1
s(S'VP'
p236
S'VVNNP'
tp237
F11
s(g201
S'CDAPP'
tp238
F26
s(g41
S'VVAAP'
tp239
F3
s(S'VP'
S'VVADVADVADP'
tp240
F1
s(S'DP'
p241
S'ADNP'
tp242
F13
s(S'VP'
S'ADVADVVNP'
tp243
F1
s(g197
S'PADP'
tp244
F12
s(g179
S'NNAADP'
tp245
F2
s(S'NP'
p246
S'ANDDP'
tp247
F2
s(S'VP'
S'VVVDDP'
tp248
F1
s(g241
S'DAPP'
tp249
F41
s(S'NP'
p250
S'NAAACP'
tp251
F1
s(S'VP'
p252
S'ADVADVVPP'
tp253
F1
s(S'VP'
p254
S'VADVAAP'
tp255
F1
s(S'NP'
S'ADVADVNADVAAVVP'
tp256
F1
s(g41
S'ADVADVADVVDP'
tp257
F2
s(S'PP'
S'AAAPVP'
tp258
F1
s(S'VP'
S'ADVADVVDP'
tp259
F3
s(S'PP'
S'PPPDP'
tp260
F3
s(g71
S'DAAPPP'
tp261
F1
s(S'PP'
S'AAAPDP'
tp262
F1
s(g215
S'MVVAP'
tp263
F1
s(S'DP'
S'DDAANNP'
tp264
F1
s(g67
S'VDDDDP'
tp265
F1
s(g183
S'DAAANP'
tp266
F1
s(S'DP'
S'DADVANP'
tp267
F1
s(S'VP'
S'VAAPP'
tp268
F1
s(S'DP'
p269
S'ADVDNP'
tp270
F6
s(S'AP'
S'ADVADVADVAVP'
tp271
F1
s(S'VP'
S'VVPP'
tp272
F19
s(S'MP'
S'MVPP'
tp273
F7
s(g71
S'ADVP'
tp274
F9
s(S'CP'
S'CDDPPP'
tp275
F10
s(S'NP'
p276
S'NNPP'
tp277
F32
s(S'DP'
S'DDDDNP'
tp278
F2
s(S'MP'
S'MVVDP'
tp279
F3
s(S'AP'
p280
S'AACP'
tp281
F10
s(g83
S'ANVP'
tp282
F20
s(g241
S'DNNNP'
tp283
F13
s(g212
S'PADVADVVP'
tp284
F2
s(S'AP'
S'AADVADVCCP'
tp285
F1
s(S'DP'
p286
S'DADVADVADVNNP'
tp287
F1
s(S'PP'
S'PVVVP'
tp288
F2
s(S'PP'
p289
S'PMP'
tp290
F16
s(S'NP'
S'NNMMP'
tp291
F1
s(S'CP'
S'CCDP'
tp292
F84
s(S'NP'
p293
S'ANNDP'
tp294
F2
s(S'VP'
S'VADVANP'
tp295
F1
s(S'NP'
p296
S'ADVADVADVNCP'
tp297
F1
s(g276
S'NVVVP'
tp298
F5
s(S'CP'
S'CDDDPP'
tp299
F5
s(g201
S'CDAAPP'
tp300
F4
s(g236
S'VVVDP'
tp301
F5
s(g109
S'PNNNP'
tp302
F4
s(S'VP'
S'VAAPPP'
tp303
F1
s(S'AP'
S'AACCP'
tp304
F1
s(g138
S'AAPNP'
tp305
F3
s(S'VP'
S'ADVVVDP'
tp306
F2
s(g101
S'PPP'
tp307
F110
s(S'NP'
p308
S'NNVVP'
tp309
F8
s(g96
S'NAVP'
tp310
F18
s(S'PP'
p311
S'PADVAP'
tp312
F4
s(S'PP'
S'PADDP'
tp313
F2
s(S'DP'
S'ADVDVP'
tp314
F7
s(S'PP'
S'PPADVADVNP'
tp315
F1
s(g156
S'NAAAP'
tp316
F1
s(S'DP'
S'DADVADVPPP'
tp317
F1
s(S'AP'
S'AADVVP'
tp318
F1
s(S'PP'
S'PPPPDP'
tp319
F1
s(S'NP'
S'ADVADVADVNNCCP'
tp320
F1
s(S'VP'
p321
S'VPP'
tp322
F135
s(S'PP'
S'ADVPAVVP'
tp323
F1
s(S'CP'
p324
S'ACCDP'
tp325
F2
s(g114
S'NNNCP'
tp326
F8
s(g154
S'PADVDP'
tp327
F5
s(S'CP'
p328
S'CDADVAPP'
tp329
F3
s(g174
S'DANNP'
tp330
F1
s(S'MP'
S'MADVVAP'
tp331
F1
s(S'CP'
S'CDDPP'
tp332
F57
s(g241
S'DAAPP'
tp333
F5
s(S'PP'
S'PVVP'
tp334
F37
s(S'CP'
S'CADPPP'
tp335
F7
s(S'CP'
p336
S'CDDDDPPP'
tp337
F1
s(S'VP'
S'ADVVCP'
tp338
F3
s(S'MP'
S'MCCDP'
tp339
F1
s(g321
S'VPPP'
tp340
F21
s(S'DP'
S'ADVADVDDNP'
tp341
F1
s(g254
S'VVPPP'
tp342
F2
s(g114
S'NMMP'
tp343
F5
s(S'VP'
S'VAAAANNP'
tp344
F1
s(S'MP'
S'MVPPP'
tp345
F2
s(S'DP'
S'DVVP'
tp346
F36
s(S'PP'
S'PADVAVP'
tp347
F1
s(S'CP'
S'CDDAAPP'
tp348
F1
s(S'NP'
p349
S'ANMP'
tp350
F2
s(g154
S'PPAP'
tp351
F15
s(S'PP'
S'ADVPPP'
tp352
F1
s(S'VP'
S'VVVP'
tp353
F9
s(S'NP'
S'ADVNNCCP'
tp354
F1
s(g336
S'CADVDPP'
tp355
F15
s(g96
S'ANCP'
tp356
F23
s(g71
S'DCP'
tp357
F23
s(S'NP'
S'ANNCP'
tp358
F1
s(S'VP'
p359
S'ADVVCCP'
tp360
F1
s(S'DP'
S'DAAVVP'
tp361
F1
s(g119
S'DADVADVADVNP'
tp362
F1
s(g71
S'DDDP'
tp363
F15
s(S'AP'
S'ADDDDP'
tp364
F2
s(S'DP'
p365
S'DDADVPP'
tp366
F3
s(S'NP'
p367
S'ANVVP'
tp368
F8
s(g50
S'VVDP'
tp369
F62
s(S'NP'
p370
S'NPPP'
tp371
F25
s(S'DP'
S'ADDDP'
tp372
F1
s(g112
S'APPP'
tp373
F4
s(g71
S'DAVP'
tp374
F8
s(S'NP'
S'NNNMP'
tp375
F1
s(S'AP'
S'ACP'
tp376
F43
s(S'NP'
S'NDDDDP'
tp377
F1
s(g55
S'PPNP'
tp378
F56
s(S'AP'
S'ADVACCP'
tp379
F1
s(S'NP'
S'NAADP'
tp380
F2
s(S'DP'
S'AADVP'
tp381
F1
s(S'CP'
S'CDDAAAAAAPP'
tp382
F1
s(S'CP'
S'CDDADVPP'
tp383
F1
s(S'CP'
S'CCCDDP'
tp384
F2
s(S'AP'
S'ADP'
tp385
F191
s(S'DP'
S'DDAAVP'
tp386
F1
s(g85
S'VVADVADVADVDDP'
tp387
F1
s(S'DP'
S'ADDVVP'
tp388
F1
s(S'NP'
S'ANPPP'
tp389
F2
s(S'NP'
S'AAAANNCP'
tp390
F1
s(S'VP'
S'VVCCCP'
tp391
F1
s(S'MP'
S'MADVADVVCCP'
tp392
F1
s(S'VP'
S'VVPPPP'
tp393
F1
s(S'VP'
p394
S'AVDP'
tp395
F14
s(S'NP'
S'ANNVP'
tp396
F1
s(S'PP'
S'PCCCP'
tp397
F1
s(S'VP'
p398
S'VVAP'
tp399
F11
s(g114
S'NNAPP'
tp400
F1
s(S'PP'
S'PPAAAAP'
tp401
F1
s(g83
S'NPP'
tp402
F152
s(S'DP'
p403
S'ADVADVADVDDPP'
tp404
F1
s(S'NP'
p405
S'NVP'
tp406
F254
s(S'PP'
S'PPVVVP'
tp407
F1
s(g197
S'PAAVP'
tp408
F3
s(g154
S'AAPPNP'
tp409
F1
s(g308
S'NAAPP'
tp410
F1
s(g217
S'VDDP'
tp411
F44
s(S'AP'
S'AAADVDP'
tp412
F2
s(g179
S'AANVVP'
tp413
F1
s(g5
S'DADVAPP'
tp414
F4
s(S'PP'
S'PPPDDP'
tp415
F2
s(S'NP'
S'NNAACCP'
tp416
F1
s(g367
S'NADVADVVVP'
tp417
F1
s(S'NP'
p418
S'ANPP'
tp419
F18
s(S'PP'
p420
S'ADVPPDP'
tp421
F1
s(g154
S'PPPPP'
tp422
F4
s(S'MP'
S'MPDP'
tp423
F1
s(S'PP'
S'ADVADVPDP'
tp424
F1
s(S'DP'
S'ADVDPP'
tp425
F24
s(S'NP'
p426
S'NPPPP'
tp427
F4
s(S'DP'
p428
S'ADDP'
tp429
F2
s(g201
S'CAADPP'
tp430
F4
s(S'DP'
S'DADVADVVP'
tp431
F2
s(S'NP'
p432
S'NAACP'
tp433
F1
s(S'PP'
S'PNNP'
tp434
F47
s(S'PP'
p435
S'APNNP'
tp436
F2
s(S'MP'
S'MMNP'
tp437
F1
s(S'DP'
S'AAADPP'
tp438
F1
s(S'VP'
S'AVAP'
tp439
F1
s(S'MP'
S'MMVP'
tp440
F5
s(S'PP'
S'PCCP'
tp441
F5
s(g280
S'AADP'
tp442
F39
s(g324
S'ACDP'
tp443
F14
s(g96
S'NNDP'
tp444
F18
s(S'AP'
S'ADVANP'
tp445
F3
s(g233
S'NNACP'
tp446
F1
s(S'DP'
S'AAADPPP'
tp447
F1
s(S'CP'
S'CDADVPPP'
tp448
F1
s(g50
S'VAP'
tp449
F113
s(S'VP'
S'VVVVNP'
tp450
F1
s(g23
S'DDDPP'
tp451
F15
s(S'CP'
S'ADVCDDP'
tp452
F1
s(S'NP'
S'AANNCP'
tp453
F1
s(S'PP'
S'ADVPMP'
tp454
F2
s(S'NP'
S'ADVADVNADVPP'
tp455
F1
s(S'VP'
S'ADVAVDP'
tp456
F1
s(g20
S'DADVDP'
tp457
F1
s(g8
S'APADVVP'
tp458
F1
s(S'CP'
S'AACCDP'
tp459
F1
s(S'AP'
p460
S'AAACP'
tp461
F1
s(S'NP'
S'NAAP'
tp462
F9
s(S'MP'
S'ADVADVADVAMPP'
tp463
F1
s(S'PP'
S'PPPVP'
tp464
F1
s(g280
S'AADDP'
tp465
F4
s(S'NP'
S'AANADVDP'
tp466
F1
s(g217
S'VAANP'
tp467
F4
s(g230
S'AADVAAADP'
tp468
F1
s(S'NP'
p469
S'NADVADVCP'
tp470
F1
s(S'CP'
S'CCAAADP'
tp471
F1
s(S'NP'
S'NVVVVP'
tp472
F3
s(S'MP'
S'AMVVP'
tp473
F1
s(S'MP'
S'MADP'
tp474
F1
s(S'NP'
S'NNNDDP'
tp475
F1
s(S'VP'
S'AAVVNP'
tp476
F2
s(S'DP'
S'DDAAAPPP'
tp477
F1
s(g174
S'DDADVNP'
tp478
F3
s(S'PP'
S'PANP'
tp479
F22
s(S'DP'
p480
S'AADNP'
tp481
F5
s(g469
S'NADVDDP'
tp482
F1
s(S'AP'
S'AAVP'
tp483
F2
s(S'AP'
S'AVVP'
tp484
F4
s(g83
S'NDDP'
tp485
F23
s(S'AP'
S'ACCP'
tp486
F6
s(g394
S'AVPPP'
tp487
F3
s(S'NP'
p488
S'NDP'
tp489
F96
s(g432
S'AAANVP'
tp490
F1
s(g71
S'DDVP'
tp491
F39
s(S'NP'
S'AANVP'
tp492
F4
s(S'VP'
p493
S'VNNNP'
tp494
F2
s(S'PP'
S'ADVPAP'
tp495
F2
s(g154
S'PCP'
tp496
F21
s(S'NP'
S'NNPPP'
tp497
F7
s(g79
S'PAADP'
tp498
F3
s(S'DP'
S'ADVADVADVDDNP'
tp499
F1
s(S'NP'
p500
S'NNNNNVP'
tp501
F1
s(g349
S'ADVNNPP'
tp502
F1
s(S'AP'
S'ADVADVAAVP'
tp503
F1
s(S'AP'
S'AADVAP'
tp504
F1
s(S'NP'
S'NNNDP'
tp505
F1
s(S'AP'
S'ADVACP'
tp506
F3
s(S'NP'
p507
S'AANVVVP'
tp508
F1
s(S'PP'
S'AAPNNP'
tp509
F1
s(S'VP'
S'VVVAP'
tp510
F1
s(g276
S'NNVP'
tp511
F65
s(S'MP'
S'MVCP'
tp512
F7
s(S'CP'
S'CCDDP'
tp513
F14
s(S'VP'
S'AAVCCP'
tp514
F1
s(S'VP'
S'VAMP'
tp515
F1
s(g289
S'PPAAP'
tp516
F3
s(g60
S'PPADVPPP'
tp517
F1
s(S'NP'
S'NNNNVP'
tp518
F2
s(g321
S'VVCP'
tp519
F26
s(S'PP'
S'PADVADVPP'
tp520
F2
s(g488
S'AANCP'
tp521
F9
s(g140
S'VADVNP'
tp522
F5
s(g25
S'VVDDDP'
tp523
F1
s(S'NP'
S'NNDDP'
tp524
F5
s(S'DP'
S'DDDDPPP'
tp525
F1
s(S'VP'
S'ADVVPP'
tp526
F4
s(S'CP'
p527
S'CADVADVADVDDPP'
tp528
F1
s(S'CP'
S'CDAPPP'
tp529
F2
s(g321
S'VNNP'
tp530
F56
s(S'AP'
S'AADVDP'
tp531
F4
s(g114
S'NADP'
tp532
F5
s(g71
S'DDNP'
tp533
F60
s(g370
S'NADVCP'
tp534
F8
s(S'DP'
S'DDNNP'
tp535
F12
s(g228
S'AAPPP'
tp536
F1
s(S'VP'
S'VPPPPP'
tp537
F1
s(S'NP'
S'ADVNCP'
tp538
F4
s(S'NP'
S'ADVANVP'
tp539
F2
s(S'NP'
p540
S'ADVNAAP'
tp541
F1
s(S'AP'
S'AADVADP'
tp542
F1
s(g500
S'ADVADVNCP'
tp543
F1
s(g195
S'AADPP'
tp544
F8
s(S'PP'
S'APPNP'
tp545
F1
s(S'NP'
S'NNNNPP'
tp546
F2
s(S'VP'
S'VVVVCP'
tp547
F2
s(S'CP'
S'CDPPPPP'
tp548
F1
s(S'DP'
S'DADVADVAP'
tp549
F1
s(S'MP'
S'MADVVDP'
tp550
F2
s(S'MP'
S'MVVNP'
tp551
F1
s(S'VP'
S'AAVVDP'
tp552
F1
s(S'DP'
p553
S'ADVDNNP'
tp554
F3
s(S'CP'
S'ACDDP'
tp555
F3
s(S'MP'
S'MVDDDDP'
tp556
F1
s(S'AP'
S'AAPP'
tp557
F3
s(S'VP'
S'VVCCP'
tp558
F9
s(S'DP'
S'DADVVVP'
tp559
F3
s(g365
S'DADVADVNP'
tp560
F1
s(S'VP'
S'VADVADP'
tp561
F2
s(S'NP'
S'NAPP'
tp562
F13
s(S'PP'
S'APPVP'
tp563
F2
s(g405
S'NADVDP'
tp564
F1
s(S'VP'
p565
S'VVVCP'
tp566
F2
s(S'MP'
S'MVDDP'
tp567
F1
s(g507
S'ANCCP'
tp568
F3
s(g250
S'AANPP'
tp569
F2
s(g394
S'VDDDP'
tp570
F6
s(g296
S'NNMP'
tp571
F6
s(g428
S'DDDVP'
tp572
F4
s(g236
S'AAVPP'
tp573
F2
s(S'CP'
S'CADDPP'
tp574
F1
s(g126
S'PAAAP'
tp575
F3
s(g311
S'ADVADVPNP'
tp576
F2
s(S'NP'
S'ANAP'
tp577
F4
s(S'MP'
p578
S'MVAP'
tp579
F3
s(S'VP'
S'VADVADVDDP'
tp580
F1
s(g101
S'PVP'
tp581
F196
s(S'DP'
S'DADVAVP'
tp582
F1
s(g328
S'ACDDDP'
tp583
F1
s(S'AP'
S'ADVAACP'
tp584
F1
s(S'VP'
S'VVVVANP'
tp585
F1
s(S'DP'
S'DVVVP'
tp586
F6
s(S'VP'
S'ADVAAVVNP'
tp587
F1
s(g31
S'PPDDP'
tp588
F12
s(g217
S'AVCP'
tp589
F3
s(g12
S'DPP'
tp590
F300
s(S'NP'
p591
S'ADVNVP'
tp592
F9
s(g5
S'DDDVVP'
tp593
F1
s(S'DP'
S'DDPP'
tp594
F90
s(S'DP'
S'DDAVP'
tp595
F1
s(S'DP'
p596
S'DANP'
tp597
F31
s(g418
S'NADVPP'
tp598
F2
s(S'NP'
S'NNADVADVPP'
tp599
F1
s(S'VP'
S'AVDDDDP'
tp600
F1
s(S'NP'
S'NNAAVVP'
tp601
F1
s(S'NP'
S'AANADVVP'
tp602
F1
s(S'VP'
S'ADVADVVVADVADVAAP'
tp603
F1
s(g276
S'NAAVP'
tp604
F3
s(g241
S'ADVADVADPP'
tp605
F1
s(g435
S'PDDDP'
tp606
F4
s(g398
S'VADVCP'
tp607
F3
s(S'NP'
S'NNNNCP'
tp608
F1
s(S'MP'
S'MDNP'
tp609
F2
s(S'NP'
S'NNNVVP'
tp610
F2
s(S'DP'
S'DDADVADVVVP'
tp611
F2
s(S'DP'
S'DCCP'
tp612
F4
s(S'AP'
S'AADDDDP'
tp613
F1
s(S'PP'
S'AAPDP'
tp614
F2
s(S'VP'
S'VVDDP'
tp615
F8
s(g39
S'DDADVNNP'
tp616
F1
s(g154
S'PDDP'
tp617
F47
s(g131
S'PADVAPP'
tp618
F1
s(S'AP'
S'AAAADP'
tp619
F1
s(S'NP'
S'NNNADVVP'
tp620
F2
s(S'DP'
S'ADPPP'
tp621
F8
s(S'AP'
S'AADVADVCP'
tp622
F1
s(S'NP'
S'ADVADVANDDP'
tp623
F1
s(S'PP'
S'APAAP'
tp624
F1
s(S'NP'
S'NNP'
tp625
F3
s(S'DP'
S'ADVADPP'
tp626
F5
s(S'DP'
S'DAANP'
tp627
F8
s(S'AP'
S'ADDP'
tp628
F26
s(S'PP'
S'PNNNNP'
tp629
F1
s(S'PP'
S'ADVPPNP'
tp630
F1
s(S'CP'
S'CADVADVDPP'
tp631
F1
s(g71
S'DPPP'
tp632
F87
s(g165
S'AADPPP'
tp633
F1
s(S'VP'
S'VANNP'
tp634
F2
s(g85
S'AVVCP'
tp635
F1
s(S'DP'
S'DDADVADVNP'
tp636
F1
s(S'PP'
S'ADVPNP'
tp637
F6
s(S'PP'
S'PPDP'
tp638
F38
s(g286
S'DDPPPP'
tp639
F1
s(g553
S'DDCP'
tp640
F3
s(g488
S'NAP'
tp641
F72
s(S'NP'
S'NNAAP'
tp642
F1
s(S'VP'
S'VAAAP'
tp643
F3
s(S'NP'
S'NAAAPP'
tp644
F1
s(S'VP'
S'ADVAVNP'
tp645
F1
s(S'VP'
S'VVP'
tp646
F37
s(S'DP'
S'DDAPP'
tp647
F1
s(S'PP'
S'ADVADVPVP'
tp648
F4
s(S'AP'
S'AAADP'
tp649
F8
s(g138
S'APNP'
tp650
F20
s(S'DP'
S'DDVVP'
tp651
F7
s(S'AP'
S'AAADDP'
tp652
F2
s(S'VP'
S'VVVNP'
tp653
F7
s(S'NP'
S'NAMP'
tp654
F1
s(g142
S'NNAAAVP'
tp655
F1
s(g286
S'ADVADVDDPP'
tp656
F1
s(S'CP'
S'CDPP'
tp657
F263
s(S'PP'
S'AAAPPADVAP'
tp658
F1
s(S'AP'
S'ADDDP'
tp659
F2
s(g12
S'ADVDVVP'
tp660
F2
s(S'PP'
S'APNNNP'
tp661
F1
s(g16
S'ADVCDP'
tp662
F12
s(S'PP'
S'PPPPAP'
tp663
F1
s(g420
S'PPNNP'
tp664
F2
s(S'CP'
S'CDAAAPP'
tp665
F1
s(S'PP'
S'ADVAPPP'
tp666
F1
s(S'PP'
S'PPMP'
tp667
F1
s(S'DP'
S'ADVADVDPP'
tp668
F3
s(g140
S'VAADP'
tp669
F3
s(g293
S'NADVAP'
tp670
F1
s(S'VP'
S'AVDDP'
tp671
F5
s(g596
S'DADVNP'
tp672
F9
s(g119
S'DDCCP'
tp673
F2
s(g71
S'DAP'
tp674
F35
s(S'MP'
S'MCADP'
tp675
F1
s(S'CP'
S'CADPP'
tp676
F20
s(g172
S'PPAVP'
tp677
F1
s(S'VP'
S'ADVADVVCCP'
tp678
F1
s(g398
S'AVPP'
tp679
F3
s(S'NP'
S'NADVADVMP'
tp680
F1
s(S'CP'
S'CAADPPP'
tp681
F1
s(g269
S'DDNNNNP'
tp682
F1
s(S'MP'
S'AMNP'
tp683
F1
s(S'VP'
S'VVVACP'
tp684
F1
s(S'CP'
S'CDDAAAPPP'
tp685
F1
s(g88
S'CDPPPP'
tp686
F9
s(g394
S'AAVDP'
tp687
F4
s(S'DP'
S'AADNNP'
tp688
F1
s(S'DP'
S'AADADVADVPP'
tp689
F1
s(g138
S'APPP'
tp690
F9
s(S'DP'
S'DAPPP'
tp691
F3
s(g480
S'DADVADVPP'
tp692
F3
s(S'DP'
S'DMP'
tp693
F3
s(S'PP'
S'PPPNP'
tp694
F6
s(S'NP'
S'NADVAPP'
tp695
F1
s(S'VP'
S'ADVADVVAP'
tp696
F2
s(g33
S'ADPP'
tp697
F30
s(S'NP'
S'NNADVVVP'
tp698
F1
s(S'DP'
S'DDAAPP'
tp699
F2
s(g311
S'ADVPVP'
tp700
F5
s(S'DP'
S'DDDDPP'
tp701
F1
s(S'NP'
S'ADVNADVDP'
tp702
F1
s(g96
S'NNVVVP'
tp703
F1
s(g359
S'ADVVANP'
tp704
F1
s(S'PP'
S'ADVPDP'
tp705
F3
s(g154
S'PPPVVP'
tp706
F3
s(g578
S'MVADVAP'
tp707
F1
s(g83
S'NCP'
tp708
F217
s(g527
S'CADVDPPP'
tp709
F1
s(g41
S'ADVVVPP'
tp710
F1
s(g140
S'AAVPPPPP'
tp711
F1
s(g460
S'AAAP'
tp712
F1
s(S'CP'
S'CCCADVDDP'
tp713
F1
s(S'PP'
S'PPAPP'
tp714
F2
s(g8
S'PPPADVDP'
tp715
F1
s(S'MP'
S'MVCCP'
tp716
F2
s(S'DP'
S'DADVNNP'
tp717
F2
s(S'NP'
S'NNCCP'
tp718
F11
s(S'MP'
S'MNVP'
tp719
F5
s(g540
S'AANAP'
tp720
F1
s(S'CP'
S'ADVADVCCDP'
tp721
F1
s(S'NP'
S'AANCCP'
tp722
F1
s(g252
S'VAPP'
tp723
F9
s(S'VP'
S'ADVVDP'
tp724
F13
s(S'VP'
S'VADDP'
tp725
F1
s(S'DP'
S'DADVPP'
tp726
F15
s(S'AP'
S'AMP'
tp727
F1
s(S'CP'
S'CCADP'
tp728
F1
s(g591
S'ADVNNCP'
tp729
F2
s(S'AP'
S'ADVAPP'
tp730
F2
s(g553
S'ADVDAVP'
tp731
F1
s(S'CP'
S'AACDP'
tp732
F2
s(S'NP'
S'NNNCCP'
tp733
F1
s(S'CP'
S'CCDDDP'
tp734
F5
s(g403
S'ADVDPPP'
tp735
F2
s(g12
S'DVP'
tp736
F195
s(g36
S'AVNNP'
tp737
F1
s(S'NP'
S'ADVNPP'
tp738
F1
s(S'CP'
S'AAACDP'
tp739
F1
s(S'AP'
S'AVP'
tp740
F42
s(S'NP'
S'NADVVP'
tp741
F14
s(g246
S'AAANNVP'
tp742
F2
s(S'DP'
S'DDPPP'
tp743
F18
s(S'MP'
S'MADVADVADVVDP'
tp744
F1
s(g426
S'ADVNMP'
tp745
F4
s(S'NP'
S'NNAP'
tp746
F14
s(g101
S'PPANP'
tp747
F1
s(S'MP'
S'MCDDP'
tp748
F1
s(S'VP'
S'AAAVNP'
tp749
F1
s(S'CP'
S'CDADVPP'
tp750
F12
s(g321
S'VNP'
tp751
F210
s(S'PP'
S'ADVPMMP'
tp752
F1
s(g493
S'VANP'
tp753
F27
s(g565
S'VADVAP'
tp754
F8
s(g212
S'PPADVNP'
tp755
F1
s(S'DP'
S'DDDDVP'
tp756
F2
s(S'VP'
S'ADVADVVVDP'
tp757
F1
s(g296
S'NADVPPP'
tp758
F2
s.