ccollections
defaultdict
p1
(c__builtin__
float
p2
tRp3
(S'DP'
p4
S'DDMP'
tp5
F1
s(S'DP'
p6
S'ADDPP'
tp7
F1
s(S'DP'
S'DDAP'
tp8
F2
s(S'CP'
p9
S'CCDDDDP'
tp10
F1
s(S'VP'
S'VVVVP'
tp11
F1
s(S'AP'
S'AVVVP'
tp12
F1
s(S'PP'
p13
S'PAPP'
tp14
F6
s(S'PP'
p15
S'PADVNP'
tp16
F7
s(S'DP'
p17
S'DNP'
tp18
F77
s(S'NP'
p19
S'ADVNDP'
tp20
F2
s(S'CP'
p21
S'CDPPP'
tp22
F32
s(S'VP'
p23
S'VADP'
tp24
F11
s(S'AP'
S'AADVCP'
tp25
F1
s(S'NP'
p26
S'ADVNCCP'
tp27
F2
s(S'VP'
p28
S'AAVPPP'
tp29
F1
s(S'MP'
S'MPDP'
tp30
F1
s(S'VP'
p31
S'VAVP'
tp32
F3
s(S'PP'
p33
S'APPDP'
tp34
F1
s(S'DP'
S'ADNNP'
tp35
F2
s(S'PP'
S'PADVADVAAP'
tp36
F1
s(S'VP'
p37
S'ADVVNP'
tp38
F6
s(S'MP'
S'MVDP'
tp39
F6
s(S'PP'
p40
S'PPPP'
tp41
F23
s(S'DP'
p42
S'DDDNP'
tp43
F6
s(S'VP'
p44
S'VACP'
tp45
F3
s(S'PP'
p46
S'PPAAP'
tp47
F2
s(S'DP'
p48
S'DADVVP'
tp49
F5
s(S'DP'
S'DDDDDP'
tp50
F1
s(S'NP'
p51
S'NADVACP'
tp52
F2
s(S'NP'
p53
S'NCCCP'
tp54
F5
s(S'VP'
p55
S'VCP'
tp56
F42
s(S'VP'
S'ADVVAAP'
tp57
F1
s(g44
S'ADVVCCP'
tp58
F1
s(S'PP'
p59
S'PAP'
tp60
F40
s(S'NP'
p61
S'ANNCCP'
tp62
F1
s(S'PP'
p63
S'ADVPPVP'
tp64
F1
s(S'PP'
p65
S'APVVP'
tp66
F2
s(S'PP'
p67
S'PNP'
tp68
F76
s(S'DP'
p69
S'ADDP'
tp70
F1
s(S'PP'
p71
S'PAAADP'
tp72
F1
s(S'DP'
p73
S'DDP'
tp74
F23
s(S'NP'
p75
S'NNNPP'
tp76
F2
s(S'VP'
p77
S'VCCP'
tp78
F7
s(S'NP'
p79
S'NNADVADVCP'
tp80
F1
s(S'VP'
S'ADVVVDP'
tp81
F2
s(S'MP'
p82
S'AMPP'
tp83
F1
s(g28
S'ADVADVVVCP'
tp84
F1
s(S'NP'
p85
S'NMP'
tp86
F21
s(g67
S'PDP'
tp87
F73
s(S'CP'
p88
S'CDADVADVPP'
tp89
F3
s(S'NP'
p90
S'ADVNVVP'
tp91
F2
s(g82
S'MADVVNP'
tp92
F1
s(S'NP'
p93
S'NNADVMP'
tp94
F1
s(S'MP'
S'MMMMNP'
tp95
F1
s(S'VP'
p96
S'AVAAP'
tp97
F1
s(S'NP'
p98
S'ANADVADVCP'
tp99
F1
s(g63
S'ADVPAAP'
tp100
F1
s(S'VP'
p101
S'AAVPP'
tp102
F2
s(S'DP'
p103
S'DPPPP'
tp104
F3
s(S'PP'
p105
S'PADVADP'
tp106
F1
s(g19
S'NACP'
tp107
F10
s(S'AP'
p108
S'ADVAVP'
tp109
F1
s(S'NP'
p110
S'NCCP'
tp111
F33
s(g110
S'NNCP'
tp112
F36
s(S'DP'
p113
S'ADVDDPP'
tp114
F1
s(g75
S'NADVADVVP'
tp115
F2
s(S'VP'
S'ADVVADVNP'
tp116
F1
s(S'VP'
p117
S'AVNP'
tp118
F10
s(S'VP'
S'VVADP'
tp119
F1
s(g61
S'ADVNDDP'
tp120
F1
s(S'NP'
S'NADVADVPP'
tp121
F1
s(S'PP'
p122
S'PADVADVDP'
tp123
F1
s(S'VP'
S'VADVVP'
tp124
F2
s(S'NP'
p125
S'ADVADVADVNMP'
tp126
F1
s(S'VP'
S'ADVADVADVVNP'
tp127
F1
s(g98
S'ANADVVP'
tp128
F1
s(g122
S'ADVPAPP'
tp129
F1
s(S'CP'
p130
S'CCCDP'
tp131
F6
s(g101
S'AVNNP'
tp132
F2
s(S'PP'
S'APDP'
tp133
F17
s(g4
S'ADVADVDANNP'
tp134
F1
s(S'MP'
S'MVADVNP'
tp135
F1
s(S'VP'
p136
S'ADVVVP'
tp137
F1
s(S'DP'
S'DADVADVADVPP'
tp138
F1
s(S'DP'
p139
S'DAAP'
tp140
F1
s(S'MP'
p141
S'MVADVADP'
tp142
F1
s(S'DP'
p143
S'DNNP'
tp144
F35
s(S'NP'
p145
S'NNADVPP'
tp146
F1
s(S'CP'
p147
S'CCADVDP'
tp148
F3
s(g6
S'ADDNP'
tp149
F1
s(S'NP'
S'NNNVP'
tp150
F1
s(g77
S'VDP'
tp151
F77
s(S'PP'
p152
S'PADVVP'
tp153
F5
s(S'DP'
p154
S'DADVADVADVPPP'
tp155
F1
s(S'PP'
p156
S'APAP'
tp157
F2
s(S'CP'
S'ADVADVCDP'
tp158
F4
s(S'VP'
S'VMMMMP'
tp159
F1
s(S'NP'
p160
S'NADVMP'
tp161
F1
s(S'AP'
S'AAP'
tp162
F1
s(g88
S'CADVADPP'
tp163
F2
s(g90
S'ADVANPP'
tp164
F1
s(S'CP'
S'CDDDDPP'
tp165
F1
s(g15
S'PAANP'
tp166
F4
s(g101
S'VADVADVCP'
tp167
F3
s(S'DP'
S'ADVDVP'
tp168
F3
s(g65
S'PPVVP'
tp169
F4
s(g145
S'NNNDDDP'
tp170
F1
s(S'MP'
p171
S'MVNP'
tp172
F9
s(S'CP'
S'CDDDPPP'
tp173
F2
s(g139
S'ADVADNP'
tp174
F2
s(S'PP'
p175
S'PAVP'
tp176
F9
s(S'NP'
p177
S'NNADP'
tp178
F1
s(S'PP'
S'APPPP'
tp179
F2
s(S'DP'
p180
S'DADP'
tp181
F3
s(S'AP'
S'ADVADP'
tp182
F3
s(S'AP'
S'APP'
tp183
F19
s(S'PP'
p184
S'APDDP'
tp185
F1
s(S'NP'
p186
S'ADVNAP'
tp187
F1
s(g63
S'APPP'
tp188
F5
s(g105
S'PPCP'
tp189
F1
s(S'AP'
S'AAAPPP'
tp190
F1
s(S'PP'
S'APVP'
tp191
F8
s(g55
S'VVNP'
tp192
F29
s(S'PP'
S'PPPNNP'
tp193
F1
s(S'PP'
p194
S'PPVP'
tp195
F25
s(S'VP'
S'VADVDP'
tp196
F6
s(S'VP'
S'VAAP'
tp197
F9
s(g53
S'ANDP'
tp198
F7
s(S'NP'
p199
S'NVVP'
tp200
F21
s(S'PP'
p201
S'AAPVP'
tp202
F1
s(S'VP'
S'VMP'
tp203
F1
s(g51
S'ADVNAAVP'
tp204
F1
s(g37
S'VVNNP'
tp205
F2
s(S'CP'
p206
S'CDAPP'
tp207
F17
s(S'VP'
p208
S'VVAAP'
tp209
F1
s(S'DP'
p210
S'ADNP'
tp211
F12
s(S'MP'
S'MANDDP'
tp212
F1
s(S'PP'
p213
S'PADP'
tp214
F11
s(S'NP'
p215
S'ANDDP'
tp216
F2
s(g154
S'ADVADVDVP'
tp217
F1
s(g101
S'VVVDDP'
tp218
F1
s(g98
S'ADVNAPPP'
tp219
F1
s(S'DP'
p220
S'DAPP'
tp221
F23
s(S'VP'
p222
S'ADVADVVPP'
tp223
F1
s(S'VP'
p224
S'VADVAAP'
tp225
F1
s(S'VP'
p226
S'ADVADVVDP'
tp227
F4
s(g96
S'AVVNP'
tp228
F2
s(S'PP'
S'PPPDP'
tp229
F1
s(S'PP'
S'AAAPDP'
tp230
F1
s(S'MP'
S'MVVAP'
tp231
F1
s(S'DP'
p232
S'ADVDNP'
tp233
F8
s(S'VP'
p234
S'VVPP'
tp235
F12
s(g141
S'MVPP'
tp236
F3
s(S'DP'
p237
S'ADVP'
tp238
F4
s(S'CP'
p239
S'CDDPPP'
tp240
F7
s(S'MP'
S'ADVMVVP'
tp241
F1
s(g199
S'NNPP'
tp242
F17
s(g69
S'DADVPPP'
tp243
F1
s(S'NP'
p244
S'ANVP'
tp245
F8
s(S'VP'
S'AAAVDDP'
tp246
F1
s(g180
S'DNNNP'
tp247
F1
s(g136
S'VADVDDP'
tp248
F1
s(S'PP'
S'PVVVP'
tp249
F1
s(S'PP'
S'PMP'
tp250
F7
s(S'PP'
p251
S'PADVADVADVVP'
tp252
F1
s(g96
S'ADVVAVP'
tp253
F1
s(S'CP'
p254
S'CCDP'
tp255
F38
s(S'DP'
S'ADVADVADVDPP'
tp256
F1
s(g101
S'VAAVP'
tp257
F1
s(g194
S'PPNNNP'
tp258
F2
s(g103
S'AADDPP'
tp259
F1
s(S'NP'
p260
S'NVVVP'
tp261
F1
s(S'CP'
S'CDDDPP'
tp262
F5
s(g206
S'CDAAPP'
tp263
F4
s(S'VP'
S'VVVDP'
tp264
F2
s(g33
S'PDDDDP'
tp265
F1
s(S'PP'
S'PNNNP'
tp266
F2
s(S'CP'
S'CCCCDP'
tp267
F1
s(g175
S'AAPNP'
tp268
F3
s(g152
S'PADVVVP'
tp269
F1
s(g67
S'PPP'
tp270
F45
s(g51
S'NAVP'
tp271
F8
s(S'PP'
p272
S'PADVAP'
tp273
F1
s(g4
S'DDNNNP'
tp274
F3
s(g251
S'PADDP'
tp275
F1
s(g117
S'VVVANP'
tp276
F1
s(S'NP'
S'NAAAP'
tp277
F1
s(S'NP'
S'NADVVVP'
tp278
F2
s(S'AP'
S'AADVVP'
tp279
F1
s(g232
S'ADVADVDNP'
tp280
F1
s(g77
S'VPP'
tp281
F56
s(S'CP'
S'ADVCCDP'
tp282
F6
s(g215
S'NNNADVCP'
tp283
F1
s(g113
S'ADVDDPPP'
tp284
F1
s(S'DP'
p285
S'ADVDDNP'
tp286
F1
s(S'NP'
S'NNNCP'
tp287
F5
s(S'PP'
p288
S'PADVDP'
tp289
F7
s(g184
S'ADVADVPANP'
tp290
F1
s(S'DP'
p291
S'DANNP'
tp292
F1
s(g21
S'CDDPP'
tp293
F28
s(g220
S'DAAPP'
tp294
F4
s(g40
S'PVVP'
tp295
F24
s(S'CP'
p296
S'CADPPP'
tp297
F1
s(S'AP'
S'AACP'
tp298
F4
s(S'VP'
p299
S'VPPP'
tp300
F13
s(g101
S'AVCCP'
tp301
F2
s(g136
S'VVPPP'
tp302
F2
s(g288
S'PPAP'
tp303
F8
s(S'DP'
p304
S'DVVP'
tp305
F15
s(S'PP'
S'PADVAVP'
tp306
F1
s(g33
S'ADVADVADVPPPP'
tp307
F1
s(g239
S'ADVACDDP'
tp308
F1
s(g75
S'ANMP'
tp309
F3
s(S'AP'
S'APPP'
tp310
F4
s(g65
S'ADVPPP'
tp311
F2
s(S'VP'
p312
S'VVVP'
tp313
F5
s(g130
S'CADVDPP'
tp314
F9
s(S'NP'
p315
S'ANCP'
tp316
F12
s(g65
S'ADVADVPAAP'
tp317
F1
s(S'MP'
S'MADVVADVNP'
tp318
F1
s(S'MP'
S'MMMAVP'
tp319
F1
s(S'DP'
S'DDDNNP'
tp320
F1
s(S'DP'
S'DDDP'
tp321
F11
s(g6
S'DDADVPP'
tp322
F3
s(S'NP'
S'ANVVP'
tp323
F1
s(g55
S'VVDP'
tp324
F20
s(g19
S'NPPP'
tp325
F14
s(g79
S'ANAVVP'
tp326
F1
s(S'DP'
S'DAVP'
tp327
F10
s(S'AP'
p328
S'ACP'
tp329
F21
s(g288
S'PPNP'
tp330
F29
s(S'DP'
S'AADVP'
tp331
F1
s(g55
S'VAANNP'
tp332
F1
s(S'CP'
p333
S'CDDADVPP'
tp334
F3
s(g206
S'CCCDDP'
tp335
F2
s(S'AP'
S'ADP'
tp336
F59
s(S'CP'
S'CADVDDPPP'
tp337
F1
s(g143
S'DDAVP'
tp338
F1
s(S'NP'
p339
S'ANPPP'
tp340
F2
s(g145
S'NNDDDP'
tp341
F1
s(S'MP'
S'MADDP'
tp342
F1
s(S'VP'
S'ADVADVVNNP'
tp343
F2
s(g31
S'AVDP'
tp344
F9
s(S'NP'
p345
S'ANNVP'
tp346
F1
s(g226
S'VVAP'
tp347
F11
s(S'CP'
S'ADVACDP'
tp348
F1
s(S'PP'
S'PPADVVP'
tp349
F2
s(g85
S'NNADVCCP'
tp350
F1
s(S'NP'
p351
S'NADVADVDP'
tp352
F1
s(S'NP'
p353
S'NVP'
tp354
F71
s(S'PP'
S'PPVVVP'
tp355
F3
s(S'PP'
S'PAAVP'
tp356
F2
s(g53
S'NAAPP'
tp357
F4
s(g154
S'DDDDNNP'
tp358
F1
s(g31
S'VDDP'
tp359
F20
s(g141
S'MVADVADVCP'
tp360
F1
s(S'PP'
S'APMMP'
tp361
F1
s(S'DP'
p362
S'DMP'
tp363
F1
s(S'DP'
p364
S'DADVAPP'
tp365
F1
s(S'PP'
p366
S'PAAAVP'
tp367
F1
s(S'NP'
S'NADVADVVVP'
tp368
F1
s(g110
S'ANPP'
tp369
F11
s(S'PP'
p370
S'PPPPP'
tp371
F5
s(g232
S'DCP'
tp372
F3
s(g65
S'ADVADVPDP'
tp373
F1
s(S'MP'
S'MVVPP'
tp374
F1
s(S'PP'
p375
S'PPPNP'
tp376
F1
s(g51
S'NNMMMP'
tp377
F1
s(S'VP'
p378
S'VVAAPP'
tp379
F1
s(S'NP'
S'NPPPP'
tp380
F1
s(S'AP'
p381
S'AADVADVDP'
tp382
F1
s(S'NP'
S'NNCCCCP'
tp383
F1
s(g147
S'CAADPP'
tp384
F1
s(g220
S'DADVADVVP'
tp385
F1
s(g260
S'NAACP'
tp386
F1
s(S'PP'
S'PNNP'
tp387
F34
s(S'CP'
S'CDADVADVADVPPP'
tp388
F1
s(g13
S'APNNP'
tp389
F3
s(g141
S'MMVP'
tp390
F2
s(g201
S'PADVDDP'
tp391
F1
s(g110
S'ADVNCP'
tp392
F6
s(S'AP'
S'AADP'
tp393
F17
s(S'MP'
S'MPDDP'
tp394
F1
s(g206
S'ACDP'
tp395
F13
s(g194
S'PAAP'
tp396
F8
s(g339
S'NNACP'
tp397
F2
s(S'CP'
S'CDADVPPP'
tp398
F1
s(g31
S'VAP'
tp399
F32
s(S'MP'
S'MNVVP'
tp400
F1
s(S'DP'
S'DDDPP'
tp401
F5
s(g315
S'AANNCP'
tp402
F1
s(S'AP'
S'ADVAAPP'
tp403
F1
s(S'MP'
S'MVVVDP'
tp404
F1
s(S'DP'
S'DDDPPP'
tp405
F2
s(g44
S'ADVAVDP'
tp406
F2
s(S'DP'
S'ADAP'
tp407
F1
s(S'DP'
p408
S'DADVDP'
tp409
F1
s(S'PP'
S'APADVVP'
tp410
F1
s(S'MP'
S'ADVMAAP'
tp411
F1
s(g381
S'AAACP'
tp412
F1
s(S'NP'
p413
S'NAAP'
tp414
F6
s(S'PP'
S'PPPVP'
tp415
F1
s(S'AP'
S'AADDP'
tp416
F2
s(g19
S'NNNADVADVVP'
tp417
F1
s(S'PP'
p418
S'ADVAPMP'
tp419
F1
s(g312
S'VAANP'
tp420
F3
s(S'VP'
S'ADVVAAAP'
tp421
F1
s(S'NP'
p422
S'NADVADVCP'
tp423
F1
s(S'MP'
S'MADP'
tp424
F2
s(g237
S'DDADVNP'
tp425
F3
s(g213
S'PANP'
tp426
F14
s(S'PP'
p427
S'PDDDP'
tp428
F1
s(S'AP'
S'ACCP'
tp429
F3
s(g328
S'AAVP'
tp430
F5
s(S'AP'
S'AVVP'
tp431
F3
s(g315
S'NDDP'
tp432
F14
s(g113
S'DADVADVNNP'
tp433
F1
s(g315
S'NDP'
tp434
F46
s(g17
S'DDVP'
tp435
F13
s(g105
S'ADVPPADP'
tp436
F1
s(g110
S'AANVP'
tp437
F3
s(S'DP'
p438
S'ADDVP'
tp439
F1
s(S'VP'
S'VNNNP'
tp440
F5
s(S'VP'
S'AVCCCP'
tp441
F1
s(g37
S'VADVADVPP'
tp442
F2
s(g13
S'ADVPAP'
tp443
F2
s(S'PP'
S'PCP'
tp444
F3
s(g51
S'NNPPP'
tp445
F5
s(g122
S'PAADP'
tp446
F1
s(S'AP'
S'ADVADVAAVP'
tp447
F1
s(S'MP'
p448
S'MVNNNP'
tp449
F1
s(S'AP'
S'ADVACP'
tp450
F1
s(S'PP'
p451
S'AAPNNP'
tp452
F2
s(S'VP'
S'VVVAP'
tp453
F3
s(g220
S'ADPPP'
tp454
F5
s(g171
S'MVCP'
tp455
F5
s(S'CP'
S'CCDDP'
tp456
F8
s(g26
S'NNADVVP'
tp457
F1
s(g75
S'NNVVP'
tp458
F4
s(g31
S'VVCP'
tp459
F7
s(g46
S'PADVADVPP'
tp460
F1
s(g244
S'AANCP'
tp461
F3
s(g222
S'VADVNP'
tp462
F5
s(S'CP'
p463
S'ADVCDDDDP'
tp464
F1
s(g75
S'NNDDP'
tp465
F3
s(S'VP'
p466
S'ADVVPP'
tp467
F2
s(g31
S'VNNP'
tp468
F27
s(S'AP'
S'AADVDP'
tp469
F1
s(g125
S'NADP'
tp470
F3
s(S'CP'
S'ADVCCDDP'
tp471
F1
s(g304
S'DDNP'
tp472
F31
s(S'CP'
S'ACADVDP'
tp473
F1
s(g413
S'NADVCP'
tp474
F4
s(S'DP'
p475
S'DDNNP'
tp476
F9
s(S'PP'
p477
S'APCP'
tp478
F1
s(g48
S'AADPP'
tp479
F2
s(g108
S'AAMMP'
tp480
F1
s(S'NP'
S'ANVVVP'
tp481
F1
s(S'DP'
S'ADVVP'
tp482
F1
s(S'DP'
S'ADVDNNP'
tp483
F2
s(g9
S'ACDDP'
tp484
F1
s(S'NP'
p485
S'ADVADVNNCP'
tp486
F2
s(S'AP'
p487
S'AAPP'
tp488
F8
s(g44
S'VVCCP'
tp489
F1
s(S'CP'
S'ADVCAADP'
tp490
F1
s(g141
S'MVADVADVPP'
tp491
F1
s(g438
S'DAAAPP'
tp492
F2
s(g63
S'ADVPANP'
tp493
F1
s(g37
S'VADVADP'
tp494
F1
s(S'VP'
S'VVVCCP'
tp495
F1
s(g244
S'NAPP'
tp496
F11
s(g333
S'ADVADVCADP'
tp497
F2
s(g61
S'ANCCP'
tp498
F1
s(g244
S'AANPP'
tp499
F2
s(g75
S'NNCCP'
tp500
F8
s(S'NP'
S'NNMP'
tp501
F3
s(g122
S'ADVPANNP'
tp502
F1
s(S'DP'
S'DDDVP'
tp503
F1
s(S'NP'
S'NNADVCP'
tp504
F2
s(g46
S'ADVADVPNNP'
tp505
F1
s(g333
S'CADDPP'
tp506
F1
s(g477
S'ADVADVPNP'
tp507
F2
s(S'CP'
S'CDDAPP'
tp508
F2
s(g93
S'ANAP'
tp509
F2
s(g448
S'MVAP'
tp510
F2
s(g67
S'PVP'
tp511
F73
s(g291
S'DADVAVP'
tp512
F1
s(g208
S'VADVCCP'
tp513
F2
s(S'CP'
S'ACDDDP'
tp514
F1
s(g85
S'ADVNAVP'
tp515
F1
s(g51
S'ANNCP'
tp516
F1
s(g364
S'ADVADVADVDNP'
tp517
F1
s(S'PP'
p518
S'PPDDP'
tp519
F6
s(g177
S'NAVVP'
tp520
F1
s(g17
S'DPP'
tp521
F85
s(g422
S'ADVNVP'
tp522
F3
s(g304
S'DDPP'
tp523
F45
s(g304
S'DANP'
tp524
F21
s(S'NP'
S'NADVPP'
tp525
F4
s(S'NP'
S'NAAVP'
tp526
F1
s(S'DP'
S'AADNP'
tp527
F2
s(S'CP'
S'CADVADVADVDPP'
tp528
F1
s(S'VP'
S'VADVCP'
tp529
F2
s(S'NP'
p530
S'NADVCCP'
tp531
F4
s(S'NP'
S'NNNVVP'
tp532
F1
s(g63
S'PADVPPP'
tp533
F1
s(g272
S'ADVADVPPP'
tp534
F1
s(g175
S'AAPDP'
tp535
F3
s(g42
S'ADVADPP'
tp536
F2
s(g67
S'PDDP'
tp537
F25
s(g315
S'NNVP'
tp538
F27
s(S'PP'
S'APAAP'
tp539
F1
s(g199
S'NNP'
tp540
F2
s(g117
S'VVDDP'
tp541
F5
s(g362
S'DAANP'
tp542
F1
s(g328
S'ADDP'
tp543
F8
s(g222
S'ADVVVAP'
tp544
F1
s(g186
S'ADVNCCCP'
tp545
F1
s(S'CP'
S'CADVADVDPP'
tp546
F2
s(g304
S'DPPP'
tp547
F45
s(g125
S'NADVADVAAP'
tp548
F1
s(g351
S'NNAVP'
tp549
F1
s(g451
S'ADVPNP'
tp550
F6
s(g59
S'PPDP'
tp551
F27
s(g42
S'DDCP'
tp552
F1
s(S'AP'
S'ANNP'
tp553
F1
s(g19
S'NAP'
tp554
F21
s(S'VP'
S'VAAAP'
tp555
F3
s(g117
S'VVP'
tp556
F18
s(g220
S'DDAPP'
tp557
F4
s(g427
S'ADVADVPVP'
tp558
F2
s(S'AP'
S'AAADP'
tp559
F1
s(g175
S'APNP'
tp560
F9
s(S'DP'
S'DDDAPP'
tp561
F1
s(g285
S'DDVVP'
tp562
F3
s(S'VP'
p563
S'VVVNP'
tp564
F2
s(g418
S'PPADVADVADVDP'
tp565
F1
s(g485
S'NAMP'
tp566
F1
s(S'AP'
S'ADVADVAAPP'
tp567
F1
s(S'MP'
S'MVNNP'
tp568
F1
s(g254
S'CDPP'
tp569
F79
s(g141
S'MVVNNP'
tp570
F1
s(S'AP'
S'ADDDP'
tp571
F1
s(S'MP'
p572
S'MVADVPP'
tp573
F1
s(S'CP'
S'ADVCADP'
tp574
F1
s(g75
S'NNDP'
tp575
F8
s(g463
S'ADVCDP'
tp576
F7
s(S'AP'
S'ADVAAP'
tp577
F1
s(S'PP'
S'AAAPVVP'
tp578
F1
s(g31
S'ADVADVVCP'
tp579
F1
s(g23
S'VADVADVDP'
tp580
F2
s(S'PP'
S'PPNNP'
tp581
F5
s(g366
S'PPMP'
tp582
F1
s(S'CP'
p583
S'CAADDPP'
tp584
F1
s(g180
S'ADVADVDPP'
tp585
F3
s(g563
S'VAADP'
tp586
F2
s(g160
S'NADVAP'
tp587
F1
s(g299
S'AVDDP'
tp588
F6
s(g475
S'DADVNP'
tp589
F8
s(g304
S'DAP'
tp590
F21
s(S'CP'
S'CADPP'
tp591
F18
s(S'PP'
S'PPAVP'
tp592
F1
s(g272
S'PPDDDP'
tp593
F1
s(g234
S'AVPP'
tp594
F4
s(g71
S'APNNNP'
tp595
F1
s(g583
S'CDPPPP'
tp596
F1
s(S'VP'
S'AAVDP'
tp597
F1
s(S'AP'
S'AAAPP'
tp598
F2
s(g139
S'DADVADVPP'
tp599
F5
s(g487
S'AADVADVVP'
tp600
F1
s(g408
S'ADVDPP'
tp601
F13
s(g353
S'NPP'
tp602
F75
s(g73
S'ADPP'
tp603
F25
s(g90
S'NADVANP'
tp604
F1
s(g378
S'VADVPP'
tp605
F4
s(g375
S'ADVPVP'
tp606
F1
s(g475
S'DDDDPP'
tp607
F4
s(g101
S'AAVAAP'
tp608
F1
s(S'NP'
S'NNVVVP'
tp609
F1
s(g518
S'PADVADVADVNP'
tp610
F1
s(g156
S'ADVPDP'
tp611
F6
s(g224
S'ADVVADP'
tp612
F1
s(g370
S'PPPVVP'
tp613
F1
s(g572
S'MVADVAP'
tp614
F1
s(g353
S'NCP'
tp615
F79
s(S'CP'
S'CADVDPPP'
tp616
F1
s(S'NP'
S'NNNADP'
tp617
F1
s(g108
S'AAAP'
tp618
F2
s(g375
S'PPPADVDP'
tp619
F1
s(S'MP'
S'MVCCP'
tp620
F1
s(S'DP'
S'DADVNNP'
tp621
F1
s(g466
S'VDDDP'
tp622
F4
s(S'MP'
S'MNVP'
tp623
F2
s(g79
S'AANAP'
tp624
F1
s(S'VP'
S'VAPP'
tp625
F5
s(g37
S'ADVVDP'
tp626
F3
s(S'DP'
S'DADVPP'
tp627
F9
s(S'AP'
S'AMP'
tp628
F1
s(S'NP'
S'ADVNNCP'
tp629
F1
s(S'PP'
S'ADVADVADVPNP'
tp630
F1
s(S'AP'
S'ADVAPP'
tp631
F1
s(S'CP'
S'AACDP'
tp632
F1
s(g51
S'NNNCCP'
tp633
F1
s(g48
S'ADVDPPP'
tp634
F3
s(g304
S'DVP'
tp635
F67
s(g222
S'ADVVAP'
tp636
F4
s(S'NP'
S'ADVNPP'
tp637
F4
s(g244
S'NNCCCP'
tp638
F1
s(S'AP'
S'AVP'
tp639
F18
s(g345
S'NADVVP'
tp640
F1
s(g296
S'CDAAAPP'
tp641
F1
s(g210
S'DDPPP'
tp642
F10
s(S'DP'
S'AAADADVADVNNP'
tp643
F1
s(g530
S'NNAP'
tp644
F6
s(g156
S'PPANP'
tp645
F1
s(S'CP'
S'CDADVPP'
tp646
F6
s(g55
S'VNP'
tp647
F69
s(g234
S'VANP'
tp648
F6
s(g37
S'VADVAP'
tp649
F5
s.