ccollections
defaultdict
p1
(c__builtin__
float
p2
tRp3
(S'CP'
S'CAAADPP'
tp4
F2
s(S'PP'
S'PAAANP'
tp5
F1
s(S'DP'
p6
S'DDAP'
tp7
F6
s(S'VP'
p8
S'ADVVVNP'
tp9
F2
s(S'PP'
S'AAAPPP'
tp10
F1
s(S'VP'
S'VVVVP'
tp11
F1
s(S'AP'
S'AVVVP'
tp12
F1
s(S'PP'
p13
S'PAPP'
tp14
F12
s(S'PP'
p15
S'PADVNP'
tp16
F14
s(S'DP'
p17
S'DNP'
tp18
F267
s(S'NP'
p19
S'ADVNDP'
tp20
F2
s(S'PP'
S'AAPDDP'
tp21
F1
s(S'CP'
p22
S'CDPPP'
tp23
F68
s(S'PP'
S'ADVPPANP'
tp24
F1
s(S'VP'
p25
S'VADP'
tp26
F9
s(S'DP'
S'DNNNNP'
tp27
F1
s(S'NP'
p28
S'ADVNCCP'
tp29
F1
s(S'PP'
p30
S'PPPPPP'
tp31
F4
s(S'AP'
S'AADVADVADVDP'
tp32
F1
s(S'DP'
S'ADNNP'
tp33
F1
s(g13
S'APVP'
tp34
F22
s(S'NP'
S'AAANNCCCP'
tp35
F1
s(S'MP'
S'MVDP'
tp36
F11
s(S'PP'
p37
S'PPPP'
tp38
F43
s(S'DP'
S'DDDNP'
tp39
F3
s(S'VP'
S'VACP'
tp40
F2
s(S'DP'
p41
S'DADVVP'
tp42
F11
s(S'PP'
S'PADVNNP'
tp43
F2
s(S'PP'
p44
S'PACCP'
tp45
F1
s(S'NP'
p46
S'NADVACP'
tp47
F1
s(S'NP'
p48
S'NCCCP'
tp49
F4
s(S'CP'
p50
S'CADVDAPP'
tp51
F1
s(S'VP'
S'VCP'
tp52
F123
s(S'NP'
S'ANNNNP'
tp53
F1
s(S'VP'
p54
S'ADVVAAP'
tp55
F1
s(S'DP'
p56
S'DDDNNP'
tp57
F1
s(S'PP'
p58
S'PAP'
tp59
F100
s(S'MP'
S'MMVVP'
tp60
F2
s(S'DP'
p61
S'DDDADVPP'
tp62
F1
s(S'VP'
S'VADVADVAP'
tp63
F1
s(S'NP'
p64
S'ANNCCP'
tp65
F1
s(S'PP'
S'ADVPPVP'
tp66
F1
s(S'AP'
S'ADVADVAVP'
tp67
F1
s(g58
S'PPADVDP'
tp68
F2
s(S'CP'
S'CADPPPP'
tp69
F1
s(g58
S'PNP'
tp70
F277
s(S'VP'
S'VVNNNNNP'
tp71
F1
s(S'PP'
S'PAAADP'
tp72
F1
s(S'DP'
p73
S'DDP'
tp74
F57
s(g50
S'CADVADVADVADVDDPP'
tp75
F1
s(S'PP'
S'PAAP'
tp76
F22
s(S'NP'
S'AAAAAANNCP'
tp77
F1
s(S'DP'
S'DDDDPPPP'
tp78
F1
s(S'CP'
p79
S'AACCDP'
tp80
F1
s(S'VP'
S'ADVVVDP'
tp81
F3
s(S'PP'
S'PPPNNP'
tp82
F3
s(S'VP'
p83
S'ADVADVVVCP'
tp84
F1
s(S'NP'
S'NMP'
tp85
F34
s(S'VP'
p86
S'AAVNP'
tp87
F1
s(S'VP'
S'VMMP'
tp88
F1
s(g58
S'PDP'
tp89
F264
s(S'DP'
S'DDPPPPP'
tp90
F1
s(S'MP'
p91
S'MADVVNP'
tp92
F1
s(S'CP'
p93
S'CDADVADVPPP'
tp94
F1
s(S'DP'
p95
S'ADVADVDAPP'
tp96
F1
s(S'VP'
p97
S'ADVVDDDDP'
tp98
F1
s(S'PP'
S'PPPAANP'
tp99
F1
s(S'NP'
p100
S'NACCP'
tp101
F3
s(S'AP'
S'ANP'
tp102
F1
s(S'PP'
p103
S'ADVPAAP'
tp104
F1
s(S'NP'
S'NADVADVADVVP'
tp105
F2
s(S'PP'
S'PADVPP'
tp106
F4
s(S'NP'
S'ADVADVADVADVNCP'
tp107
F2
s(S'PP'
p108
S'ADVADVPPVVP'
tp109
F1
s(S'NP'
S'ANVVVVP'
tp110
F1
s(S'NP'
S'ADVNACP'
tp111
F1
s(S'PP'
S'ADVADVAPPP'
tp112
F1
s(S'DP'
p113
S'DPPPP'
tp114
F12
s(S'DP'
S'DDANP'
tp115
F3
s(S'PP'
S'PADVADP'
tp116
F1
s(S'NP'
p117
S'NACP'
tp118
F23
s(S'AP'
S'ADVAVP'
tp119
F2
s(g100
S'NCCP'
tp120
F94
s(S'NP'
p121
S'ANMMP'
tp122
F1
s(S'VP'
p123
S'VVCCCP'
tp124
F3
s(g28
S'NNCP'
tp125
F72
s(S'DP'
p126
S'ADVDDPP'
tp127
F4
s(g19
S'NADVADVVP'
tp128
F8
s(S'DP'
p129
S'DDDDP'
tp130
F2
s(S'DP'
S'DDAPP'
tp131
F4
s(S'VP'
S'AVNP'
tp132
F7
s(S'VP'
S'VVADP'
tp133
F2
s(S'NP'
S'AANNCCCP'
tp134
F1
s(S'PP'
p135
S'PADVADVANP'
tp136
F1
s(S'PP'
p137
S'ADVPVVP'
tp138
F1
s(S'PP'
p139
S'ADVAPDP'
tp140
F1
s(S'VP'
S'VADVVP'
tp141
F1
s(S'DP'
S'AAADPP'
tp142
F3
s(S'PP'
S'ADVAPVP'
tp143
F2
s(S'AP'
S'AAAAP'
tp144
F1
s(S'DP'
S'DADVPPP'
tp145
F5
s(S'NP'
S'NCCCCP'
tp146
F2
s(S'CP'
p147
S'CCCDP'
tp148
F8
s(S'VP'
S'ADVVAP'
tp149
F7
s(S'VP'
p150
S'VCCCP'
tp151
F1
s(S'MP'
S'MVCCCCP'
tp152
F1
s(S'PP'
p153
S'APDP'
tp154
F27
s(S'AP'
S'AADVCP'
tp155
F2
s(g150
S'VVADVADVVP'
tp156
F1
s(S'MP'
S'MVADVVP'
tp157
F1
s(S'AP'
S'AADVACP'
tp158
F1
s(S'VP'
S'VVANP'
tp159
F2
s(S'VP'
p160
S'VVVVDP'
tp161
F5
s(S'VP'
S'ADVVVP'
tp162
F1
s(S'CP'
S'CADADVPPP'
tp163
F1
s(S'PP'
p164
S'APPNP'
tp165
F1
s(S'PP'
p166
S'PCCP'
tp167
F1
s(S'MP'
S'MADVPAP'
tp168
F1
s(S'NP'
S'NANP'
tp169
F1
s(g17
S'DNNP'
tp170
F67
s(S'CP'
S'CADVDDPP'
tp171
F3
s(S'DP'
S'DPPPPP'
tp172
F4
s(S'CP'
S'CDDPPPP'
tp173
F4
s(S'CP'
S'CCADVDP'
tp174
F3
s(S'VP'
S'ADVADVADVVVDP'
tp175
F1
s(S'NP'
S'NNNVP'
tp176
F9
s(S'DP'
p177
S'ADVADVDCP'
tp178
F1
s(S'NP'
S'NADVADVADVADVADVVVP'
tp179
F1
s(S'PP'
S'PPNNNNP'
tp180
F2
s(S'MP'
S'MADVVVAAP'
tp181
F1
s(g15
S'PADVVP'
tp182
F6
s(S'DP'
S'DACP'
tp183
F1
s(S'MP'
S'MVVDDP'
tp184
F1
s(S'PP'
p185
S'APAP'
tp186
F2
s(S'CP'
S'ADVADVCDP'
tp187
F4
s(S'AP'
p188
S'ACCCP'
tp189
F1
s(S'PP'
p190
S'PPADP'
tp191
F1
s(S'VP'
S'VADVADVVP'
tp192
F1
s(g8
S'VVAPP'
tp193
F1
s(S'NP'
p194
S'ADVADVNDP'
tp195
F2
s(g61
S'DAAAPP'
tp196
F1
s(S'NP'
p197
S'NAAACP'
tp198
F1
s(S'DP'
p199
S'DAAVP'
tp200
F1
s(S'CP'
p201
S'CDDDDPP'
tp202
F1
s(S'MP'
S'MPVP'
tp203
F1
s(S'MP'
S'MVVCP'
tp204
F1
s(S'CP'
S'CDDDDPPPP'
tp205
F1
s(S'VP'
S'VADVADVCP'
tp206
F1
s(S'NP'
S'NADVADVPPP'
tp207
F1
s(S'PP'
p208
S'PPVVP'
tp209
F2
s(S'VP'
p210
S'VAACP'
tp211
F1
s(g208
S'PADVADVADVNNP'
tp212
F1
s(g103
S'PAANP'
tp213
F4
s(S'NP'
S'NNNNCCCCP'
tp214
F1
s(S'NP'
S'ANAAP'
tp215
F1
s(S'CP'
S'CDDDPPP'
tp216
F4
s(S'DP'
S'ADVADNP'
tp217
F3
s(S'PP'
p218
S'PAVP'
tp219
F17
s(g91
S'ADVMVP'
tp220
F2
s(S'VP'
S'VVVPP'
tp221
F6
s(S'CP'
S'CADVADVADPP'
tp222
F1
s(S'AP'
S'ADVACCP'
tp223
F1
s(S'AP'
S'ADVADP'
tp224
F3
s(S'AP'
S'APP'
tp225
F42
s(S'NP'
p226
S'ADVADVADVNNPP'
tp227
F1
s(S'DP'
p228
S'ADVDDP'
tp229
F1
s(S'PP'
p230
S'APDDP'
tp231
F6
s(S'VP'
p232
S'ADVADVVVNP'
tp233
F2
s(S'NP'
S'AANADVVVP'
tp234
F1
s(S'VP'
S'ADVVNP'
tp235
F9
s(g25
S'VVNP'
tp236
F44
s(S'PP'
S'ADVPPPP'
tp237
F1
s(g37
S'PPVP'
tp238
F46
s(g123
S'VADVDP'
tp239
F5
s(S'MP'
S'MPADP'
tp240
F1
s(S'VP'
p241
S'VAAP'
tp242
F16
s(S'NP'
p243
S'ANDP'
tp244
F16
s(S'NP'
p245
S'NVVP'
tp246
F56
s(g44
S'AAPVP'
tp247
F1
s(S'AP'
S'AAP'
tp248
F9
s(S'VP'
S'VMP'
tp249
F3
s(S'VP'
p250
S'VVNNP'
tp251
F4
s(S'CP'
S'CDAPP'
tp252
F30
s(S'CP'
p253
S'CDDAAPP'
tp254
F1
s(g56
S'ADVADVP'
tp255
F1
s(S'CP'
S'CADVADPP'
tp256
F1
s(g17
S'ADNP'
tp257
F20
s(S'DP'
p258
S'ADVADVDDAPP'
tp259
F1
s(S'VP'
p260
S'VAVP'
tp261
F1
s(S'PP'
S'PPPPAP'
tp262
F1
s(g13
S'PADP'
tp263
F17
s(S'VP'
S'ADVVVCP'
tp264
F1
s(S'DP'
S'DDDPPPP'
tp265
F1
s(S'AP'
p266
S'AAAACP'
tp267
F1
s(S'DP'
p268
S'DADVAP'
tp269
F3
s(S'DP'
S'DAPP'
tp270
F51
s(S'PP'
S'ADVPPPPP'
tp271
F1
s(S'VP'
S'AVVP'
tp272
F1
s(S'VP'
S'VVVVPP'
tp273
F3
s(S'VP'
p274
S'ADVADVVPP'
tp275
F3
s(S'VP'
S'VADVADVNP'
tp276
F1
s(S'VP'
S'ADVADVADVVDP'
tp277
F1
s(S'VP'
S'ADVADVVDP'
tp278
F4
s(S'PP'
p279
S'PPPDP'
tp280
F3
s(S'DP'
S'DAAPPP'
tp281
F1
s(S'AP'
p282
S'AAVVP'
tp283
F2
s(S'PP'
S'AAAPDP'
tp284
F2
s(S'VP'
S'ADVADVVCP'
tp285
F2
s(S'NP'
p286
S'NNNCCCP'
tp287
F1
s(g210
S'VDDDDP'
tp288
F1
s(g268
S'DDADVADP'
tp289
F1
s(S'VP'
p290
S'VAAPP'
tp291
F3
s(g6
S'ADVDNP'
tp292
F15
s(g123
S'VVPP'
tp293
F38
s(S'CP'
S'AACDDP'
tp294
F1
s(S'MP'
p295
S'MVPP'
tp296
F8
s(g113
S'ADVP'
tp297
F7
s(g147
S'CDDPPP'
tp298
F14
s(S'NP'
S'NNADVADVAP'
tp299
F1
s(S'PP'
p300
S'PPPAP'
tp301
F1
s(S'NP'
p302
S'NNPP'
tp303
F53
s(S'DP'
S'DDDDNP'
tp304
F2
s(S'MP'
S'MVVDP'
tp305
F2
s(S'AP'
S'AACP'
tp306
F18
s(S'NP'
p307
S'ANVP'
tp308
F25
s(g73
S'DNNNP'
tp309
F4
s(S'DP'
S'ADVDDVP'
tp310
F2
s(S'PP'
S'PADVADVVP'
tp311
F1
s(S'PP'
S'PMMP'
tp312
F1
s(S'PP'
S'PVVVP'
tp313
F3
s(S'PP'
S'PMP'
tp314
F10
s(g153
S'PADVADVADVVP'
tp315
F1
s(S'PP'
S'ADVPPAP'
tp316
F1
s(g22
S'CCDP'
tp317
F124
s(S'DP'
S'ADVADVADVDPP'
tp318
F1
s(S'MP'
S'AMVP'
tp319
F3
s(g164
S'PPNNNP'
tp320
F4
s(S'CP'
p321
S'CCCCDDDP'
tp322
F1
s(S'DP'
S'AADDPP'
tp323
F3
s(S'NP'
S'NVVVP'
tp324
F9
s(g253
S'CDDDPP'
tp325
F5
s(S'PP'
S'PADVADVADVADVNP'
tp326
F1
s(S'CP'
S'CDAAPP'
tp327
F2
s(S'VP'
S'VVVDP'
tp328
F7
s(S'PP'
p329
S'PNNNP'
tp330
F13
s(S'CP'
S'CCCCDP'
tp331
F3
s(S'VP'
S'VADVADVADVDDP'
tp332
F1
s(g295
S'MVNP'
tp333
F17
s(S'AP'
S'AACCP'
tp334
F4
s(S'PP'
p335
S'AAPNP'
tp336
F3
s(g335
S'AAPADVDP'
tp337
F1
s(g185
S'PADVVVP'
tp338
F2
s(g58
S'PPP'
tp339
F162
s(g245
S'NNVVP'
tp340
F7
s(g197
S'NAVP'
tp341
F15
s(S'PP'
S'PADVAP'
tp342
F2
s(g258
S'DDNNNP'
tp343
F1
s(S'VP'
S'VVVVCCP'
tp344
F2
s(g135
S'APVVVP'
tp345
F1
s(g17
S'ADVDVP'
tp346
F6
s(S'PP'
S'PPAAVVP'
tp347
F1
s(S'NP'
S'NADVVVP'
tp348
F6
s(S'DP'
S'DADVADVPPP'
tp349
F1
s(S'AP'
S'AADVVP'
tp350
F1
s(S'PP'
S'PPPPDP'
tp351
F1
s(S'VP'
S'ADVADVVVPP'
tp352
F1
s(g17
S'ADVADVDNP'
tp353
F2
s(g25
S'VPP'
tp354
F182
s(S'CP'
S'ADVCCDP'
tp355
F3
s(g22
S'ACCDP'
tp356
F3
s(g126
S'ADVDDNP'
tp357
F4
s(S'NP'
S'AANPPP'
tp358
F1
s(g194
S'NNNCP'
tp359
F13
s(S'PP'
S'PADVDP'
tp360
F6
s(S'DP'
S'DANNP'
tp361
F3
s(S'PP'
S'PADVAAP'
tp362
F1
s(g22
S'CDDPP'
tp363
F74
s(g6
S'DAAPP'
tp364
F6
s(S'PP'
p365
S'PVVP'
tp366
F38
s(S'CP'
p367
S'CADPPP'
tp368
F4
s(S'VP'
S'VVVPPP'
tp369
F1
s(S'AP'
S'ADVAADDP'
tp370
F1
s(S'VP'
p371
S'ADVVCP'
tp372
F5
s(S'CP'
S'CADVDDAPPP'
tp373
F1
s(g371
S'VPPP'
tp374
F23
s(S'VP'
S'AVCCP'
tp375
F1
s(S'CP'
p376
S'CDADVADVAPP'
tp377
F1
s(g86
S'VVPPP'
tp378
F2
s(S'VP'
S'ADVVVCCP'
tp379
F1
s(S'PP'
S'PPAP'
tp380
F12
s(S'DP'
p381
S'DVVP'
tp382
F34
s(S'CP'
S'CADVADVDAPP'
tp383
F1
s(S'PP'
S'PPADVADVADVADVNP'
tp384
F1
s(S'NP'
p385
S'ANMP'
tp386
F5
s(S'AP'
S'APPP'
tp387
F6
s(S'PP'
p388
S'ADVPPP'
tp389
F3
s(g268
S'ADVADPPP'
tp390
F1
s(g25
S'VVVP'
tp391
F8
s(S'NP'
p392
S'ADVNNCCP'
tp393
F1
s(g253
S'CADVDPP'
tp394
F19
s(S'NP'
p395
S'ADVADVNNVP'
tp396
F1
s(g307
S'ANCP'
tp397
F31
s(g73
S'DCP'
tp398
F12
s(S'DP'
S'DVVVP'
tp399
F5
s(S'NP'
S'AAANCP'
tp400
F1
s(S'NP'
S'NNVVVVP'
tp401
F3
s(S'MP'
S'MNADVPP'
tp402
F1
s(S'DP'
p403
S'DDDP'
tp404
F11
s(S'VP'
S'VVADVADVPPP'
tp405
F1
s(S'DP'
S'DDADVPP'
tp406
F9
s(S'NP'
S'ANNVVP'
tp407
F1
s(S'NP'
p408
S'ANVVP'
tp409
F11
s(g226
S'NVVVVP'
tp410
F9
s(g307
S'NPPP'
tp411
F41
s(S'PP'
S'PPAPP'
tp412
F1
s(S'DP'
p413
S'AADVVP'
tp414
F1
s(S'VP'
S'VVVACP'
tp415
F1
s(g403
S'DAVP'
tp416
F6
s(S'AP'
p417
S'ACP'
tp418
F62
s(S'NP'
p419
S'NDDDDP'
tp420
F1
s(S'PP'
S'PADVADVNNP'
tp421
F1
s(S'PP'
p422
S'PPNP'
tp423
F74
s(S'NP'
S'NAADP'
tp424
F1
s(S'VP'
p425
S'ADVVADVDP'
tp426
F1
s(g228
S'AADVP'
tp427
F2
s(g54
S'VVVVNNP'
tp428
F1
s(S'CP'
S'CDDADVPP'
tp429
F5
s(S'CP'
S'CCCDDP'
tp430
F3
s(S'AP'
p431
S'ADP'
tp432
F144
s(S'CP'
S'CCCDDDP'
tp433
F1
s(S'CP'
S'CADVDDPPP'
tp434
F1
s(S'DP'
S'DDPPPP'
tp435
F7
s(g121
S'ANPPP'
tp436
F1
s(g64
S'AAAANNCP'
tp437
F1
s(S'VP'
S'VVVADVADVCP'
tp438
F1
s(S'VP'
S'VVADVPP'
tp439
F1
s(S'DP'
S'AAAADPP'
tp440
F1
s(g17
S'DVVVVP'
tp441
F2
s(g97
S'VVPPPP'
tp442
F1
s(g290
S'AVDP'
tp443
F15
s(S'VP'
S'VVAP'
tp444
F15
s(S'DP'
S'DDDCP'
tp445
F1
s(g253
S'ADVACDP'
tp446
F3
s(S'AP'
S'AAAPPP'
tp447
F1
s(g307
S'NPP'
tp448
F248
s(S'VP'
p449
S'ADVADVVAP'
tp450
F1
s(g100
S'NVP'
tp451
F218
s(S'PP'
S'PPVVVP'
tp452
F1
s(S'PP'
S'AAPPNP'
tp453
F1
s(S'NP'
S'NAAPP'
tp454
F2
s(S'PP'
S'PPPPVP'
tp455
F1
s(S'VP'
S'VDDP'
tp456
F34
s(S'DP'
p457
S'DADVADVADP'
tp458
F1
s(S'NP'
S'NNNNDP'
tp459
F2
s(S'DP'
S'DADVAPP'
tp460
F2
s(S'CP'
S'CCCAAAADP'
tp461
F1
s(S'NP'
S'NADVADVVVP'
tp462
F5
s(g408
S'ANPP'
tp463
F25
s(S'PP'
p464
S'ADVPPDP'
tp465
F2
s(S'PP'
p466
S'PPPPP'
tp467
F7
s(S'PP'
p468
S'ADVADVPDP'
tp469
F3
s(S'MP'
S'MVVPP'
tp470
F3
s(S'DP'
p471
S'ADVDPP'
tp472
F24
s(S'DP'
S'DDDDDP'
tp473
F1
s(S'NP'
p474
S'NPPPP'
tp475
F1
s(S'DP'
p476
S'ADDP'
tp477
F2
s(S'CP'
p478
S'CDDDADVPP'
tp479
F1
s(S'CP'
S'CAADPP'
tp480
F5
s(S'NP'
p481
S'NAACP'
tp482
F6
s(g37
S'PNNP'
tp483
F72
s(S'VP'
S'VADVACP'
tp484
F1
s(S'PP'
S'APNNP'
tp485
F5
s(g413
S'DDAAP'
tp486
F1
s(g449
S'VVAACP'
tp487
F1
s(S'VP'
S'AVAP'
tp488
F2
s(S'MP'
S'MMVP'
tp489
F6
s(g190
S'PADVDDP'
tp490
F3
s(g307
S'ADVNCP'
tp491
F14
s(S'AP'
S'AADP'
tp492
F31
s(g64
S'NNNPP'
tp493
F1
s(g147
S'ACDP'
tp494
F31
s(S'VP'
S'VCCP'
tp495
F20
s(S'NP'
p496
S'NNACP'
tp497
F2
s(S'DP'
p498
S'AAADPPP'
tp499
F1
s(S'VP'
S'ADVVVAAP'
tp500
F1
s(S'CP'
S'CDADVPPP'
tp501
F3
s(g25
S'VAP'
tp502
F107
s(g25
S'VVVVNP'
tp503
F3
s(g471
S'DDDPP'
tp504
F11
s(g93
S'ADVCDDP'
tp505
F1
s(g471
S'AADAP'
tp506
F2
s(S'PP'
p507
S'PAAPP'
tp508
F1
s(S'MP'
S'MVVVDP'
tp509
F2
s(S'MP'
S'MAVPP'
tp510
F1
s(S'VP'
S'ADVADVVVAP'
tp511
F1
s(S'DP'
S'DDDPPP'
tp512
F6
s(S'DP'
S'ADAP'
tp513
F2
s(S'PP'
S'APADVVP'
tp514
F1
s(S'AP'
S'AAACP'
tp515
F2
s(S'VP'
S'ADVADVADVADVVVAP'
tp516
F1
s(S'NP'
S'NAAP'
tp517
F9
s(g166
S'PPPVP'
tp518
F5
s(S'AP'
p519
S'AADDP'
tp520
F7
s(S'VP'
S'VAANP'
tp521
F2
s(g481
S'NADVADVCP'
tp522
F3
s(S'DP'
S'ADVADVADVDVP'
tp523
F1
s(S'VP'
S'VVDP'
tp524
F35
s(S'PP'
S'PAAAAP'
tp525
F1
s(S'MP'
S'MVVVCP'
tp526
F1
s(g108
S'PADVADVPPP'
tp527
F1
s(S'MP'
S'MADP'
tp528
F1
s(S'PP'
S'PPPDDP'
tp529
F1
s(S'PP'
S'APVVP'
tp530
F3
s(S'DP'
S'DDADVNP'
tp531
F2
s(g422
S'PANP'
tp532
F42
s(S'DP'
S'AADNP'
tp533
F2
s(S'NP'
S'NADVDDP'
tp534
F2
s(S'CP'
S'CADVADVADVADVDPP'
tp535
F1
s(S'VP'
S'ADVVAAADP'
tp536
F1
s(S'AP'
p537
S'AAVP'
tp538
F7
s(S'AP'
S'AVVP'
tp539
F6
s(S'NP'
p540
S'NDDP'
tp541
F11
s(S'VP'
S'VVADVDDP'
tp542
F1
s(S'PP'
S'PADVMP'
tp543
F1
s(g519
S'ACCP'
tp544
F10
s(S'VP'
S'VVADVADP'
tp545
F1
s(S'NP'
S'ADVADVANCP'
tp546
F2
s(S'VP'
S'VVVVAP'
tp547
F1
s(g250
S'AVPPP'
tp548
F1
s(g135
S'ADVPAANP'
tp549
F1
s(g100
S'NDP'
tp550
F98
s(S'NP'
S'NADVADVADVVVP'
tp551
F1
s(S'DP'
p552
S'DDVP'
tp553
F32
s(S'DP'
S'ADADVPPP'
tp554
F1
s(g245
S'NNAAAAP'
tp555
F1
s(S'VP'
S'VVVVVCP'
tp556
F1
s(g83
S'ADVVVNNP'
tp557
F1
s(S'DP'
p558
S'DADVADVAPP'
tp559
F1
s(S'VP'
S'AAVVNNNP'
tp560
F1
s(S'VP'
S'VNNNP'
tp561
F3
s(S'PP'
S'ADVPAP'
tp562
F5
s(g30
S'PPPPVVP'
tp563
F1
s(S'PP'
S'APADVDP'
tp564
F1
s(g185
S'PCP'
tp565
F11
s(S'NP'
S'NNPPP'
tp566
F4
s(g540
S'NADVADVADVADVCP'
tp567
F1
s(g218
S'PAADP'
tp568
F7
s(S'NP'
S'ADVNNVP'
tp569
F1
s(S'NP'
S'NADVCCP'
tp570
F1
s(S'VP'
S'VPPPP'
tp571
F2
s(S'NP'
S'ADVNNPP'
tp572
F1
s(g302
S'NNNDP'
tp573
F2
s(g537
S'ADVACP'
tp574
F6
s(g121
S'ADVADVNMP'
tp575
F1
s(S'DP'
S'ADVDDPPP'
tp576
F1
s(S'VP'
S'VVVAP'
tp577
F1
s(g41
S'ADPPP'
tp578
F6
s(S'MP'
S'MVCP'
tp579
F2
s(g123
S'VVAAP'
tp580
F1
s(S'NP'
S'NNADVVP'
tp581
F1
s(S'DP'
S'DDADVCCP'
tp582
F1
s(g385
S'NAACCP'
tp583
F1
s(g468
S'PPAAP'
tp584
F5
s(S'NP'
S'NNNNVP'
tp585
F1
s(g241
S'VVCP'
tp586
F15
s(g300
S'PADVADVPP'
tp587
F1
s(S'NP'
S'AANCP'
tp588
F5
s(g25
S'VDP'
tp589
F201
s(S'AP'
S'ADVAVVP'
tp590
F1
s(S'NP'
S'AANVP'
tp591
F4
s(S'VP'
S'AVVPP'
tp592
F1
s(g137
S'APPP'
tp593
F13
s(g25
S'ADVVPP'
tp594
F7
s(g250
S'VNNP'
tp595
F22
s(g266
S'AADVDP'
tp596
F4
s(g117
S'NADP'
tp597
F1
s(S'NP'
S'NNAADDP'
tp598
F1
s(g73
S'DDNP'
tp599
F50
s(S'NP'
S'NADVCP'
tp600
F9
s(S'DP'
S'DDNNP'
tp601
F11
s(S'PP'
S'AAPPP'
tp602
F2
s(S'VP'
p603
S'ADVAVPP'
tp604
F1
s(S'PP'
S'PADVADVVVP'
tp605
F1
s(S'NP'
p606
S'ADVADVANPP'
tp607
F1
s(S'NP'
S'ADVADVNCP'
tp608
F2
s(g199
S'DADVADVNNP'
tp609
F1
s(S'DP'
p610
S'AADPP'
tp611
F5
s(g228
S'ADVDAPP'
tp612
F1
s(S'NP'
S'NNDDP'
tp613
F2
s(S'NP'
S'NNNNPP'
tp614
F1
s(g126
S'DADVADVANP'
tp615
F2
s(S'PP'
S'ADVADVPPDP'
tp616
F2
s(S'VP'
S'VVMMP'
tp617
F1
s(S'CP'
S'CDPPPPP'
tp618
F1
s(S'MP'
S'MVVNP'
tp619
F2
s(g381
S'ADVDNNP'
tp620
F2
s(g376
S'ACDDP'
tp621
F7
s(S'NP'
S'ADVADVNNCP'
tp622
F1
s(g417
S'AAPP'
tp623
F12
s(g160
S'VVCCP'
tp624
F6
s(S'DP'
S'DMMP'
tp625
F2
s(S'VP'
S'ADVADVVVAAP'
tp626
F1
s(g95
S'DADVVVP'
tp627
F3
s(g268
S'DADVADVNP'
tp628
F3
s(S'PP'
S'ADVPANP'
tp629
F2
s(g385
S'NAPP'
tp630
F18
s(g188
S'ADVADVADP'
tp631
F1
s(S'NP'
S'NADVDP'
tp632
F4
s(S'VP'
S'VVVCP'
tp633
F4
s(S'CP'
S'ADVADVCADP'
tp634
F1
s(g474
S'ANCCP'
tp635
F15
s(S'NP'
S'AANPP'
tp636
F2
s(S'VP'
S'VDDDP'
tp637
F1
s(g481
S'NNMP'
tp638
F5
s(S'DP'
S'DDDVP'
tp639
F2
s(S'DP'
p640
S'DDDADVVVP'
tp641
F1
s(S'VP'
S'VVADVADVPP'
tp642
F1
s(S'PP'
S'PAAAP'
tp643
F4
s(S'VP'
S'VVVDDP'
tp644
F1
s(g129
S'ADVDDAP'
tp645
F1
s(S'VP'
S'ADVAVNNP'
tp646
F1
s(S'CP'
S'CDDAPP'
tp647
F3
s(g395
S'ANAP'
tp648
F2
s(S'MP'
S'MVAP'
tp649
F2
s(g58
S'PVP'
tp650
F221
s(S'DP'
S'DADVAVP'
tp651
F3
s(g425
S'VADVCCP'
tp652
F1
s(S'AP'
S'ADVAACP'
tp653
F1
s(S'NP'
S'ANNCP'
tp654
F3
s(S'VP'
S'VCCCCP'
tp655
F1
s(g243
S'ADVADVANVP'
tp656
F1
s(S'PP'
S'PPDDP'
tp657
F1
s(S'VP'
p658
S'AVCP'
tp659
F6
s(g17
S'DPP'
tp660
F352
s(S'NP'
S'ADVNVP'
tp661
F9
s(S'DP'
S'DDDVVP'
tp662
F2
s(g17
S'DDPP'
tp663
F107
s(g199
S'DDAVP'
tp664
F1
s(g471
S'DANP'
tp665
F50
s(S'NP'
S'NADVPP'
tp666
F5
s(g457
S'ADVADVADPP'
tp667
F2
s(S'PP'
S'PDDDP'
tp668
F6
s(S'CP'
S'CADVADVADVDPP'
tp669
F1
s(S'VP'
S'VADVCP'
tp670
F2
s(S'NP'
S'NNNNCP'
tp671
F1
s(g201
S'AACADVADVDDP'
tp672
F1
s(S'MP'
S'MDNP'
tp673
F1
s(S'PP'
S'ADVPADVADP'
tp674
F1
s(S'NP'
S'NNNVVP'
tp675
F2
s(S'CP'
S'ACCDDDP'
tp676
F1
s(S'NP'
S'NNVVVVVP'
tp677
F1
s(g464
S'PADVPPP'
tp678
F1
s(g177
S'DCCP'
tp679
F2
s(g218
S'AAPDP'
tp680
F6
s(S'DP'
S'ADVADPP'
tp681
F1
s(S'DP'
S'DDADVNNP'
tp682
F1
s(g498
S'DDADVVP'
tp683
F1
s(g335
S'PDDP'
tp684
F63
s(g139
S'PADVAPP'
tp685
F2
s(S'AP'
S'AAAADP'
tp686
F1
s(S'PP'
S'ADVAPNP'
tp687
F1
s(g100
S'NNVP'
tp688
F43
s(g46
S'NNP'
tp689
F2
s(S'VP'
S'VVDDP'
tp690
F6
s(S'DP'
S'DAANP'
tp691
F9
s(g603
S'ADVADVADVVCP'
tp692
F1
s(S'AP'
S'ADDP'
tp693
F20
s(S'PP'
S'ADVPPNP'
tp694
F2
s(S'NP'
S'ADVADVNVVP'
tp695
F1
s(g194
S'ADVADVNAPP'
tp696
F1
s(S'CP'
S'CADVADVDPP'
tp697
F5
s(S'CP'
S'ADVADVADVCDP'
tp698
F1
s(g17
S'DPPP'
tp699
F92
s(S'CP'
S'CCDDP'
tp700
F31
s(g166
S'PNNNNP'
tp701
F1
s(S'DP'
S'AADPPP'
tp702
F1
s(S'CP'
S'ADVADVADVCCDP'
tp703
F1
s(g30
S'ADVADVPPNP'
tp704
F1
s(S'DP'
S'DDADVADVNP'
tp705
F1
s(g422
S'ADVPNP'
tp706
F13
s(g218
S'PPDP'
tp707
F45
s(g329
S'APADVADVNP'
tp708
F1
s(S'VP'
S'ADVADVADVVPP'
tp709
F1
s(S'AP'
S'AAPPP'
tp710
F1
s(g610
S'DDCP'
tp711
F4
s(g496
S'ANADVADVVP'
tp712
F2
s(S'NP'
S'NNNNNCP'
tp713
F1
s(S'PP'
S'PAANNP'
tp714
F1
s(S'PP'
S'PPADVDDP'
tp715
F1
s(S'NP'
S'NNADVADP'
tp716
F1
s(S'NP'
S'NAP'
tp717
F53
s(g558
S'DDNNNNP'
tp718
F1
s(S'NP'
S'NAAAPP'
tp719
F2
s(S'VP'
S'VADVANP'
tp720
F1
s(S'VP'
p721
S'ADVAVNP'
tp722
F1
s(g241
S'VVP'
tp723
F37
s(g471
S'DADVNP'
tp724
F6
s(g282
S'AAADP'
tp725
F6
s(g422
S'APNP'
tp726
F26
s(S'DP'
S'DDDAPP'
tp727
F1
s(S'DP'
S'DDVVP'
tp728
F8
s(S'VP'
S'VVVNP'
tp729
F4
s(g392
S'NAMP'
tp730
F2
s(g606
S'AANVVP'
tp731
F2
s(S'MP'
S'MVANP'
tp732
F1
s(S'DP'
S'ADVADVDDPP'
tp733
F2
s(S'NP'
S'NADVADVPP'
tp734
F1
s(g22
S'CDPP'
tp735
F290
s(S'NP'
S'NNCCCP'
tp736
F1
s(S'AP'
S'ADDDP'
tp737
F3
s(g419
S'NNDP'
tp738
F10
s(S'DP'
S'DADVMP'
tp739
F1
s(S'DP'
S'DCCCP'
tp740
F1
s(S'CP'
S'ADVCDP'
tp741
F13
s(g507
S'AAPVVP'
tp742
F1
s(S'VP'
S'ADVADVVNP'
tp743
F7
s(S'NP'
S'NADVADVADVCP'
tp744
F1
s(g286
S'NNNNPPP'
tp745
F1
s(g230
S'APMMP'
tp746
F1
s(g25
S'VADVADVDP'
tp747
F1
s(g139
S'PPNNP'
tp748
F15
s(S'NP'
S'NNADVADVVP'
tp749
F1
s(g321
S'CAADDPP'
tp750
F1
s(g640
S'ADVADVDPP'
tp751
F6
s(g274
S'VADVNP'
tp752
F5
s(S'PP'
S'PPPADVNP'
tp753
F1
s(g540
S'NADVAP'
tp754
F4
s(S'MP'
S'MVVVACP'
tp755
F1
s(S'VP'
S'ADVADVADVADVADVVVPP'
tp756
F1
s(g381
S'DAP'
tp757
F30
s(S'MP'
S'MCADP'
tp758
F1
s(S'CP'
S'CADPP'
tp759
F34
s(S'NP'
S'NADVAVP'
tp760
F1
s(S'PP'
S'PPAVP'
tp761
F1
s(S'MP'
S'MADVADVVDP'
tp762
F1
s(S'PP'
S'PPDDDP'
tp763
F1
s(S'VP'
S'AVPP'
tp764
F9
s(S'PP'
S'APNNNP'
tp765
F1
s(g658
S'VVADVDP'
tp766
F3
s(S'CP'
S'CDDPPPPP'
tp767
F1
s(S'CP'
S'CDPPPP'
tp768
F10
s(g279
S'PANNP'
tp769
F2
s(S'VP'
S'ADVAVADVCP'
tp770
F1
s(S'AP'
S'AAAPP'
tp771
F1
s(S'DP'
S'ADPPPP'
tp772
F1
s(S'DP'
p773
S'DMP'
tp774
F8
s(g44
S'PPPNP'
tp775
F9
s(S'PP'
S'PPAANP'
tp776
F1
s(S'CP'
S'ADVADVADVADVCDP'
tp777
F1
s(S'PP'
S'PADVADVNP'
tp778
F1
s(S'NP'
S'NNNP'
tp779
F1
s(g73
S'ADPP'
tp780
F41
s(S'NP'
S'NNADVVVP'
tp781
F1
s(S'NP'
S'NADVADVADVCCP'
tp782
F1
s(g260
S'VADVPP'
tp783
F3
s(g471
S'DDAAPP'
tp784
F2
s(g367
S'CCADVDDP'
tp785
F1
s(g365
S'ADVPVP'
tp786
F13
s(g476
S'DDDDPP'
tp787
F2
s(S'NP'
S'ADVANCP'
tp788
F1
s(S'DP'
S'DAAP'
tp789
F7
s(S'NP'
S'NNVVVP'
tp790
F3
s(S'VP'
S'ADVVANP'
tp791
F1
s(g388
S'PAMP'
tp792
F1
s(g185
S'ADVPDP'
tp793
F7
s(S'VP'
S'ADVVADP'
tp794
F1
s(g466
S'PPPVVP'
tp795
F2
s(g100
S'NCP'
tp796
F265
s(S'MP'
S'MVADVADVVP'
tp797
F1
s(S'VP'
S'ADVVVPP'
tp798
F7
s(g282
S'AAAP'
tp799
F2
s(g329
S'ADVPDDP'
tp800
F1
s(S'NP'
S'AANDP'
tp801
F2
s(g228
S'ADVADVADVADVDDPP'
tp802
F1
s(S'DP'
S'DADVNNP'
tp803
F2
s(S'NP'
S'NNCCP'
tp804
F10
s(S'DP'
S'ADVDDAPPP'
tp805
F1
s(S'NP'
S'AANCCP'
tp806
F2
s(S'VP'
S'VAPP'
tp807
F16
s(S'MP'
S'MADVVANP'
tp808
F1
s(S'VP'
S'ADVVDP'
tp809
F9
s(g552
S'DDADVADVADVPP'
tp810
F1
s(g773
S'DADVPP'
tp811
F24
s(S'CP'
S'CCCAADDP'
tp812
F1
s(S'AP'
S'AMP'
tp813
F3
s(S'CP'
S'CCADP'
tp814
F5
s(S'NP'
S'ADVNNCP'
tp815
F2
s(g466
S'ADVADVADVPNP'
tp816
F1
s(S'NP'
S'NNNPPP'
tp817
F1
s(S'AP'
S'ADVAPP'
tp818
F3
s(S'AP'
S'ADVAADVADVVP'
tp819
F1
s(g552
S'ADMMP'
tp820
F1
s(S'CP'
S'AACDP'
tp821
F6
s(S'NP'
S'NNNCCP'
tp822
F2
s(S'CP'
S'CCDDDP'
tp823
F4
s(S'CP'
S'CCADVADVDDP'
tp824
F1
s(g17
S'DVP'
tp825
F196
s(S'NP'
S'NADVADVADVADVVVP'
tp826
F1
s(S'NP'
S'ADVNPP'
tp827
F3
s(S'CP'
S'AAACDP'
tp828
F1
s(S'PP'
S'PADVADVDDP'
tp829
F1
s(g431
S'AVP'
tp830
F26
s(g100
S'NADVVP'
tp831
F14
s(g478
S'CDAAAPP'
tp832
F1
s(g552
S'DDPPP'
tp833
F22
s(S'NP'
S'ADVNMP'
tp834
F1
s(S'NP'
S'NNAP'
tp835
F2
s(S'NP'
S'NNADVPPP'
tp836
F1
s(g295
S'MADVVCP'
tp837
F2
s(g218
S'PPANP'
tp838
F4
s(g721
S'VVADVADVDP'
tp839
F3
s(g79
S'CDADVPP'
tp840
F14
s(g25
S'VNP'
tp841
F197
s(g371
S'VANP'
tp842
F16
s(g241
S'VADVAP'
tp843
F9
s(S'PP'
S'PPADVNP'
tp844
F3
s(S'DP'
S'ADVADVADVADVDPP'
tp845
F1
s(g232
S'ADVADVVVDP'
tp846
F1
s(g48
S'NADVPPP'
tp847
F1
s.