ccollections
defaultdict
p1
(c__builtin__
float
p2
tRp3
(S'VP'
S'VVAAAP'
tp4
F1
s(S'NP'
S'NAMP'
tp5
F3
s(S'CP'
S'CDDDAAPPP'
tp6
F1
s(S'DP'
S'ADDPP'
tp7
F3
s(S'DP'
S'DDAP'
tp8
F3
s(S'VP'
p9
S'ADVVVNP'
tp10
F3
s(S'VP'
S'VVVVP'
tp11
F2
s(S'DP'
S'DAANNP'
tp12
F4
s(S'NP'
p13
S'NADDP'
tp14
F1
s(S'AP'
S'AVVVP'
tp15
F1
s(S'PP'
p16
S'PAPP'
tp17
F10
s(S'PP'
p18
S'PADVNP'
tp19
F12
s(S'DP'
p20
S'DNP'
tp21
F483
s(S'MP'
S'MVVAAP'
tp22
F1
s(S'NP'
S'ADVNDP'
tp23
F2
s(S'PP'
p24
S'AAPDDP'
tp25
F2
s(S'NP'
S'NNNAAP'
tp26
F1
s(S'CP'
p27
S'CDPPP'
tp28
F96
s(S'VP'
S'VADP'
tp29
F28
s(S'DP'
S'DNNNNP'
tp30
F2
s(S'DP'
S'DAAP'
tp31
F13
s(S'PP'
S'PPAVP'
tp32
F2
s(S'VP'
S'VAVP'
tp33
F4
s(S'PP'
p34
S'APPDP'
tp35
F2
s(S'VP'
S'VADVDDP'
tp36
F1
s(S'DP'
S'ADNNP'
tp37
F3
s(S'VP'
S'AVADVDP'
tp38
F1
s(S'MP'
S'MDVP'
tp39
F4
s(S'MP'
S'MVVADVDDP'
tp40
F1
s(g16
S'APVP'
tp41
F24
s(S'MP'
S'MVDP'
tp42
F25
s(S'PP'
p43
S'PADVANP'
tp44
F5
s(S'NP'
S'AANNPP'
tp45
F4
s(S'PP'
p46
S'PPPP'
tp47
F46
s(S'VP'
S'VVVVDDP'
tp48
F1
s(S'DP'
p49
S'DDDNP'
tp50
F5
s(S'MP'
S'AMCP'
tp51
F1
s(S'VP'
p52
S'VACP'
tp53
F7
s(S'AP'
S'AAAVP'
tp54
F2
s(S'PP'
S'PPAAP'
tp55
F8
s(S'DP'
S'DADVVP'
tp56
F9
s(S'MP'
S'MMCP'
tp57
F1
s(S'PP'
S'PADVNNP'
tp58
F2
s(S'AP'
S'AADVPP'
tp59
F1
s(g13
S'NADVACP'
tp60
F3
s(S'NP'
p61
S'NDDDP'
tp62
F1
s(S'NP'
p63
S'NCCCP'
tp64
F10
s(S'NP'
S'ANADVPP'
tp65
F1
s(S'VP'
p66
S'VCP'
tp67
F140
s(S'NP'
S'NMMP'
tp68
F5
s(S'AP'
S'ADVAACP'
tp69
F3
s(S'VP'
S'ADVVAAP'
tp70
F1
s(S'DP'
S'DDDNNP'
tp71
F1
s(S'PP'
p72
S'PAP'
tp73
F170
s(S'MP'
S'MMVVP'
tp74
F2
s(S'VP'
S'VADVADVAP'
tp75
F4
s(S'NP'
p76
S'ANNCCP'
tp77
F1
s(S'NP'
S'NNNAP'
tp78
F2
s(S'NP'
p79
S'ANPPP'
tp80
F2
s(S'VP'
S'ADVVCCP'
tp81
F2
s(S'VP'
p82
S'VADVANP'
tp83
F7
s(S'PP'
S'PNP'
tp84
F462
s(S'VP'
S'VVADVADVNP'
tp85
F1
s(S'PP'
S'PAAADP'
tp86
F1
s(S'NP'
S'ADVADVADVNCP'
tp87
F1
s(S'DP'
p88
S'DDP'
tp89
F94
s(S'VP'
S'ADVVDDP'
tp90
F1
s(S'NP'
p91
S'NNDP'
tp92
F29
s(S'VP'
S'ADVVVDDP'
tp93
F1
s(S'MP'
p94
S'MCDP'
tp95
F4
s(S'NP'
S'ANADVAP'
tp96
F1
s(S'DP'
p97
S'DDDDPPPP'
tp98
F1
s(S'DP'
S'ADVADVADNP'
tp99
F1
s(S'DP'
S'DDAANP'
tp100
F3
s(S'VP'
S'ADVVVDP'
tp101
F1
s(S'NP'
p102
S'NMP'
tp103
F81
s(S'VP'
S'AAVNP'
tp104
F1
s(S'VP'
p105
S'VMMP'
tp106
F4
s(g46
S'PDP'
tp107
F453
s(S'DP'
p108
S'DDPPPPP'
tp109
F1
s(S'PP'
S'PPADVVP'
tp110
F2
s(S'NP'
p111
S'ADVNVVP'
tp112
F5
s(S'MP'
S'MNNVP'
tp113
F2
s(S'MP'
S'MADVVNP'
tp114
F5
s(S'CP'
S'CDADVADVPPP'
tp115
F1
s(S'DP'
S'ADVADVDAPP'
tp116
F1
s(S'VP'
S'AVAAP'
tp117
F2
s(S'VP'
S'AVVAP'
tp118
F1
s(S'AP'
S'ANP'
tp119
F3
s(S'PP'
p120
S'PADVPP'
tp121
F4
s(S'MP'
S'MVADVANP'
tp122
F1
s(S'NP'
S'NNADVCP'
tp123
F4
s(S'VP'
S'VVADVNP'
tp124
F3
s(S'MP'
S'MMMVVP'
tp125
F1
s(S'NP'
S'ADVNACP'
tp126
F1
s(S'DP'
S'DPPPP'
tp127
F7
s(S'DP'
p128
S'DDANP'
tp129
F7
s(S'PP'
p130
S'PADVADP'
tp131
F2
s(S'NP'
p132
S'NACP'
tp133
F33
s(S'AP'
S'ADVAVP'
tp134
F3
s(S'NP'
S'NCCP'
tp135
F113
s(S'VP'
S'VVCCCP'
tp136
F1
s(S'VP'
S'ADVVAANP'
tp137
F1
s(S'VP'
S'VVVVVP'
tp138
F1
s(S'NP'
p139
S'NNCP'
tp140
F106
s(S'DP'
p141
S'ADVDDPP'
tp142
F5
s(S'DP'
S'DDDADVVP'
tp143
F1
s(S'NP'
S'NNPPPP'
tp144
F1
s(S'DP'
S'DDDDP'
tp145
F2
s(S'VP'
p146
S'AVNP'
tp147
F18
s(S'VP'
S'VVADP'
tp148
F1
s(S'VP'
p149
S'ADVADVVNNNP'
tp150
F1
s(S'PP'
p151
S'ADVPVVP'
tp152
F1
s(S'DP'
S'ADADVNP'
tp153
F1
s(S'PP'
p154
S'AAPNP'
tp155
F5
s(S'VP'
S'ADVADVAVNP'
tp156
F1
s(S'VP'
S'VADVVP'
tp157
F2
s(S'PP'
p158
S'ADVPADVDP'
tp159
F1
s(S'AP'
S'AAAAP'
tp160
F1
s(g52
S'VVVADVCP'
tp161
F1
s(g141
S'DADVPPP'
tp162
F3
s(S'NP'
S'NCCCCP'
tp163
F1
s(S'CP'
S'CCCDP'
tp164
F15
s(S'VP'
S'ADVVAP'
tp165
F8
s(S'VP'
S'VCCCP'
tp166
F2
s(S'PP'
p167
S'APDP'
tp168
F42
s(S'PP'
S'ADVADVAPNP'
tp169
F2
s(S'VP'
p170
S'ADVVNNP'
tp171
F1
s(S'AP'
S'AADVCP'
tp172
F1
s(S'CP'
S'ADVCCDDDP'
tp173
F1
s(S'VP'
S'VVANP'
tp174
F4
s(S'MP'
p175
S'MVADVNP'
tp176
F1
s(S'VP'
S'ADVVVP'
tp177
F1
s(S'CP'
S'CADADVPPP'
tp178
F1
s(S'NP'
p179
S'NNADVANP'
tp180
F2
s(S'NP'
S'ADVNCCP'
tp181
F1
s(g46
S'PAAP'
tp182
F24
s(S'NP'
p183
S'ADVANCP'
tp184
F6
s(g88
S'DNNP'
tp185
F119
s(S'CP'
S'CADVDDPP'
tp186
F3
s(S'DP'
S'DPPPPP'
tp187
F2
s(S'CP'
S'CDDPPPP'
tp188
F2
s(S'CP'
S'CCADVDP'
tp189
F7
s(S'VP'
S'VVNNNP'
tp190
F1
s(S'VP'
S'AAVDDP'
tp191
F1
s(S'DP'
p192
S'ADDNP'
tp193
F1
s(S'NP'
S'NNNVP'
tp194
F8
s(S'VP'
S'VADVNNP'
tp195
F1
s(S'PP'
S'PADVVP'
tp196
F11
s(S'DP'
S'DADVADVADVPPP'
tp197
F1
s(S'MP'
S'MVVDDP'
tp198
F2
s(g34
S'APAP'
tp199
F6
s(S'VP'
S'ADVADVVDDP'
tp200
F1
s(S'AP'
S'APP'
tp201
F78
s(S'CP'
S'CDDAAPP'
tp202
F2
s(S'PP'
S'AAAPPDDP'
tp203
F1
s(S'AP'
S'ACCCP'
tp204
F2
s(S'CP'
S'CDDDADVPPP'
tp205
F1
s(S'AP'
S'AAP'
tp206
F13
s(S'CP'
S'CADVADPP'
tp207
F5
s(S'DP'
S'DADVADVNP'
tp208
F2
s(S'AP'
S'AAADVDDP'
tp209
F1
s(g179
S'ADVANPP'
tp210
F8
s(S'VP'
S'VVVVPP'
tp211
F4
s(S'DP'
p212
S'DAAVP'
tp213
F7
s(S'CP'
S'CDDDDPP'
tp214
F1
s(S'PP'
S'PAANP'
tp215
F11
s(S'VP'
S'VADVADVCP'
tp216
F1
s(S'DP'
S'ADVDVP'
tp217
F9
s(S'NP'
S'ANVP'
tp218
F29
s(S'VP'
S'VAACP'
tp219
F1
s(S'VP'
p220
S'VVAVP'
tp221
F1
s(S'VP'
S'VVAPP'
tp222
F1
s(S'MP'
S'MVNP'
tp223
F38
s(S'CP'
p224
S'CDDDDPPPP'
tp225
F1
s(S'CP'
S'CDDDPPP'
tp226
F2
s(S'PP'
S'PAVP'
tp227
F35
s(S'NP'
S'ANAAAP'
tp228
F1
s(S'VP'
S'VVVPP'
tp229
F2
s(S'AP'
S'ADVACCP'
tp230
F2
s(g108
S'DADP'
tp231
F7
s(S'DP'
S'DAAAPPP'
tp232
F1
s(S'AP'
S'ADVADP'
tp233
F6
s(S'CP'
S'ADVADVCDP'
tp234
F1
s(S'VP'
S'ADVAAAVNP'
tp235
F1
s(S'NP'
p236
S'ADVADVADVNNPP'
tp237
F1
s(S'DP'
p238
S'ADVDDP'
tp239
F1
s(S'PP'
S'APDDP'
tp240
F5
s(S'VP'
p241
S'ADVADVVVNP'
tp242
F1
s(S'NP'
S'ADVNAP'
tp243
F1
s(S'NP'
S'ADVNADVADVAMP'
tp244
F1
s(S'DP'
p245
S'DDDDVVP'
tp246
F1
s(S'AP'
S'AAAPPP'
tp247
F1
s(g82
S'ADVVNP'
tp248
F20
s(S'VP'
p249
S'VVNP'
tp250
F57
s(S'PP'
S'ADVPAVP'
tp251
F2
s(g82
S'VVVCP'
tp252
F4
s(S'PP'
p253
S'PPVP'
tp254
F56
s(g76
S'ADVNAAPP'
tp255
F1
s(g9
S'VADVDP'
tp256
F9
s(S'VP'
S'VVADVAP'
tp257
F1
s(S'VP'
S'VAAP'
tp258
F32
s(S'PP'
S'PADVADVADVADVNNP'
tp259
F1
s(S'CP'
S'ADVCDDP'
tp260
F1
s(g102
S'ANDP'
tp261
F20
s(g139
S'NVVP'
tp262
F66
s(S'PP'
S'AAPVP'
tp263
F5
s(S'PP'
S'PPADP'
tp264
F2
s(S'VP'
p265
S'VMP'
tp266
F12
s(S'NP'
S'ANNAP'
tp267
F1
s(S'VP'
S'VVNNP'
tp268
F8
s(S'CP'
S'CDAPP'
tp269
F34
s(S'VP'
S'VVAAP'
tp270
F4
s(S'DP'
S'ADVADVP'
tp271
F4
s(S'AP'
S'AACCCP'
tp272
F1
s(S'DP'
p273
S'ADNP'
tp274
F33
s(S'AP'
S'ADVAAP'
tp275
F2
s(S'PP'
p276
S'PAPPP'
tp277
F2
s(S'AP'
S'ADVADVAACCP'
tp278
F1
s(g72
S'PADP'
tp279
F31
s(S'VP'
S'ADVVVCP'
tp280
F2
s(S'PP'
p281
S'PAAPP'
tp282
F3
s(S'DP'
S'ADVDDNP'
tp283
F1
s(S'NP'
S'ANDDP'
tp284
F4
s(S'DP'
S'ADVADVDVP'
tp285
F2
s(S'DP'
S'DADVAP'
tp286
F3
s(S'DP'
S'DAPP'
tp287
F58
s(S'VP'
S'AVVP'
tp288
F3
s(S'MP'
S'MVVCP'
tp289
F1
s(S'VP'
S'ADVADVVPP'
tp290
F2
s(S'VP'
S'VADVAAP'
tp291
F1
s(S'NP'
p292
S'NNNAVP'
tp293
F2
s(g72
S'ADVPVVVP'
tp294
F1
s(S'VP'
S'ADVADVVDP'
tp295
F2
s(S'PP'
S'PPPDP'
tp296
F7
s(S'DP'
S'DAAPPP'
tp297
F1
s(S'MP'
S'MVVVDP'
tp298
F1
s(S'DP'
S'DDDANP'
tp299
F1
s(S'VP'
S'ADVADVVADVAANP'
tp300
F1
s(S'DP'
S'DDAAVP'
tp301
F2
s(S'MP'
S'MVVAP'
tp302
F2
s(S'CP'
S'CADDPP'
tp303
F2
s(S'VP'
p304
S'VDDDDP'
tp305
F1
s(S'DP'
p306
S'DAAANP'
tp307
F4
s(S'DP'
S'DADVANP'
tp308
F5
s(S'VP'
S'VAAPP'
tp309
F5
s(S'DP'
p310
S'ADVDNP'
tp311
F10
s(S'NP'
S'ANAP'
tp312
F3
s(S'VP'
S'VVPP'
tp313
F42
s(S'DP'
S'ADADVPP'
tp314
F1
s(S'CP'
S'AACDDP'
tp315
F2
s(S'MP'
S'MVPP'
tp316
F11
s(S'DP'
S'ADVP'
tp317
F21
s(S'CP'
S'CDDPPP'
tp318
F22
s(S'NP'
p319
S'NNNNNCCP'
tp320
F1
s(S'VP'
S'ADVADVADVVDP'
tp321
F2
s(S'PP'
S'AAPMP'
tp322
F1
s(S'NP'
S'NNPP'
tp323
F57
s(S'NP'
S'NADVADVADVACP'
tp324
F1
s(S'DP'
S'DDDDNP'
tp325
F1
s(S'MP'
S'MVVDP'
tp326
F5
s(S'AP'
p327
S'AACP'
tp328
F12
s(S'PP'
S'PPVVP'
tp329
F11
s(S'DP'
S'DNNNP'
tp330
F8
s(S'DP'
S'ADVDDVP'
tp331
F3
s(S'PP'
S'PADVADVVP'
tp332
F3
s(S'NP'
S'NNNNNNNCCP'
tp333
F1
s(S'PP'
S'PMMP'
tp334
F2
s(S'PP'
p335
S'PVVVP'
tp336
F4
s(S'PP'
S'PMP'
tp337
F23
s(g132
S'NNMMP'
tp338
F2
s(S'PP'
S'PADVADVADVVP'
tp339
F2
s(S'CP'
S'CCDP'
tp340
F167
s(S'NP'
S'ANNDP'
tp341
F1
s(S'DP'
S'ADVADVADVDPP'
tp342
F1
s(S'VP'
p343
S'VAAVP'
tp344
F1
s(S'PP'
S'PPNNNP'
tp345
F6
s(S'DP'
S'AADDPP'
tp346
F1
s(S'CP'
S'CAADVADDPP'
tp347
F1
s(g183
S'NVVVP'
tp348
F11
s(S'CP'
S'CDDDPP'
tp349
F7
s(S'CP'
S'CDADVADVPP'
tp350
F2
s(S'VP'
S'VVVDP'
tp351
F6
s(S'NP'
S'AAANCCP'
tp352
F1
s(S'PP'
S'PNNNP'
tp353
F9
s(S'CP'
S'CCCCDP'
tp354
F1
s(S'NP'
S'ANMMP'
tp355
F1
s(S'DP'
S'ADVDDAVP'
tp356
F1
s(S'AP'
S'AACCP'
tp357
F3
s(S'NP'
S'AAAANNCCP'
tp358
F1
s(S'CP'
S'CADADVPP'
tp359
F1
s(S'PP'
S'PADVVVP'
tp360
F1
s(g46
S'PPP'
tp361
F186
s(S'NP'
p362
S'NAVP'
tp363
F18
s(S'PP'
S'PADVAP'
tp364
F7
s(S'NP'
p365
S'ANNPPP'
tp366
F1
s(S'MP'
S'AMDP'
tp367
F1
s(S'PP'
S'PADDP'
tp368
F2
s(S'VP'
p369
S'VVVANP'
tp370
F1
s(g327
S'AADVVVP'
tp371
F1
s(S'DP'
S'DADVADVPPP'
tp372
F1
s(S'AP'
S'AADVVP'
tp373
F2
s(S'PP'
S'PPPPDP'
tp374
F1
s(S'DP'
S'ADVADVDNP'
tp375
F2
s(S'VP'
S'VPP'
tp376
F225
s(S'CP'
S'ADVCCDP'
tp377
F3
s(S'NP'
S'NNNADVCP'
tp378
F1
s(S'CP'
S'ACCDP'
tp379
F3
s(S'AP'
S'AAAACP'
tp380
F2
s(S'NP'
S'NNNCP'
tp381
F10
s(S'PP'
p382
S'PADVDP'
tp383
F11
s(S'CP'
p384
S'CDADVAPP'
tp385
F4
s(S'CP'
S'CCCAADP'
tp386
F1
s(S'AP'
S'ADVAADP'
tp387
F3
s(S'DP'
S'DANNP'
tp388
F4
s(S'MP'
S'MADVVAP'
tp389
F1
s(S'PP'
S'PADVAAP'
tp390
F2
s(S'CP'
S'CDDPP'
tp391
F94
s(S'DP'
S'DAAPP'
tp392
F14
s(g382
S'PVVP'
tp393
F52
s(S'CP'
S'CADPPP'
tp394
F3
s(S'CP'
S'CDDDDPPP'
tp395
F1
s(S'NP'
S'NADVMMP'
tp396
F1
s(S'MP'
S'MAVCP'
tp397
F1
s(g146
S'ADVVCP'
tp398
F7
s(S'MP'
S'MCCDP'
tp399
F1
s(g343
S'VPPP'
tp400
F27
s(S'VP'
p401
S'AVCCP'
tp402
F2
s(S'DP'
S'ADADVVVP'
tp403
F1
s(S'VP'
S'VVPPP'
tp404
F3
s(S'VP'
S'ADVVVCCP'
tp405
F1
s(S'NP'
S'NANP'
tp406
F2
s(g310
S'DVVP'
tp407
F53
s(S'PP'
S'PADVAVP'
tp408
F1
s(S'CP'
S'CADVADVDAPP'
tp409
F1
s(S'DP'
S'DDDADVPPP'
tp410
F1
s(S'VP'
S'ADVADVADVADVVNNNNNP'
tp411
F1
s(S'CP'
S'ADVACDDP'
tp412
F1
s(g365
S'ANMP'
tp413
F5
s(S'PP'
S'PPAP'
tp414
F16
s(S'NP'
S'NNNNMP'
tp415
F1
s(S'NP'
S'ADVADVNVP'
tp416
F2
s(g369
S'VVVP'
tp417
F14
s(S'DP'
p418
S'DDPPPP'
tp419
F2
s(S'VP'
S'AVMP'
tp420
F1
s(S'NP'
p421
S'ANCP'
tp422
F48
s(S'DP'
S'DCP'
tp423
F29
s(S'NP'
S'ANNCP'
tp424
F1
s(S'PP'
S'AAPPNNP'
tp425
F1
s(S'NP'
p426
S'AAANCP'
tp427
F1
s(S'DP'
S'DADVCP'
tp428
F1
s(g175
S'MAPNNP'
tp429
F1
s(S'DP'
p430
S'DDDP'
tp431
F34
s(g430
S'DDADVPP'
tp432
F6
s(S'NP'
S'ANVVP'
tp433
F9
s(S'NP'
p434
S'NVVVVP'
tp435
F5
s(S'NP'
p436
S'NPPP'
tp437
F45
s(S'DP'
S'ADDDP'
tp438
F2
s(S'DP'
S'AADVVP'
tp439
F2
s(S'AP'
S'APPP'
tp440
F3
s(S'DP'
p441
S'DAVP'
tp442
F20
s(S'PP'
S'ADVPPP'
tp443
F2
s(S'AP'
S'ACP'
tp444
F73
s(g253
S'PPNP'
tp445
F87
s(S'MP'
S'MADVVPP'
tp446
F1
s(S'DP'
p447
S'ADVDAPP'
tp448
F1
s(S'CP'
p449
S'CDDPPPPP'
tp450
F1
s(S'DP'
p451
S'AADVP'
tp452
F4
s(S'NP'
S'NNNNCCP'
tp453
F1
s(S'VP'
S'VVVVNNP'
tp454
F1
s(S'VP'
S'VAANNP'
tp455
F1
s(S'PP'
S'PPPNNNNP'
tp456
F1
s(S'CP'
S'CDDADVPP'
tp457
F3
s(g384
S'CCCDDP'
tp458
F4
s(S'AP'
p459
S'ADP'
tp460
F288
s(g158
S'APMP'
tp461
F1
s(S'CP'
S'CADVDPP'
tp462
F28
s(S'PP'
S'APVVP'
tp463
F4
s(S'DP'
S'DMMP'
tp464
F1
s(S'NP'
S'ADVANCCP'
tp465
F2
s(S'VP'
S'VAAANP'
tp466
F1
s(S'DP'
S'DVVVVP'
tp467
F1
s(g447
S'DADVADP'
tp468
F2
s(S'NP'
S'ADVADVADVADVNNCP'
tp469
F1
s(S'MP'
p470
S'MMNNP'
tp471
F1
s(S'AP'
S'AAADP'
tp472
F11
s(S'NP'
S'ANNVP'
tp473
F4
s(g9
S'VVAP'
tp474
F17
s(S'NP'
p475
S'NNAPP'
tp476
F2
s(S'PP'
S'PADVADVDP'
tp477
F2
s(S'PP'
S'PAAAANP'
tp478
F1
s(g265
S'AAVNNP'
tp479
F3
s(S'NP'
S'AANNVVP'
tp480
F1
s(g102
S'NPP'
tp481
F390
s(S'VP'
S'ADVADVVAP'
tp482
F5
s(g102
S'NVP'
tp483
F377
s(S'PP'
p484
S'PAAVP'
tp485
F4
s(S'NP'
S'NAAPP'
tp486
F2
s(S'PP'
S'PPPPVP'
tp487
F1
s(S'MP'
p488
S'ADVMMVP'
tp489
F1
s(S'PP'
p490
S'PPADVAAANP'
tp491
F1
s(g52
S'VDDP'
tp492
F71
s(S'NP'
S'AANNVP'
tp493
F2
s(S'NP'
S'NNNNDP'
tp494
F1
s(g306
S'DADVAPP'
tp495
F8
s(S'CP'
S'ADVADVADVACDDP'
tp496
F1
s(S'NP'
p497
S'ANPP'
tp498
F63
s(S'PP'
S'ADVPPDP'
tp499
F1
s(S'PP'
S'PPPPP'
tp500
F6
s(S'PP'
S'ADVADVPDP'
tp501
F1
s(g88
S'ADVDPP'
tp502
F41
s(S'PP'
p503
S'PPPADVDP'
tp504
F1
s(g418
S'DDDDDP'
tp505
F1
s(S'NP'
S'ADVADVNPP'
tp506
F1
s(g139
S'NPPPP'
tp507
F1
s(S'DP'
S'ADDP'
tp508
F1
s(g236
S'ADVNADP'
tp509
F1
s(S'CP'
S'CAADPP'
tp510
F9
s(S'DP'
p511
S'DADVADVVP'
tp512
F2
s(S'NP'
S'NAACP'
tp513
F6
s(S'PP'
S'PNNP'
tp514
F92
s(S'PP'
p515
S'APNNP'
tp516
F6
s(S'DP'
S'DDAAP'
tp517
F1
s(S'MP'
S'MMNP'
tp518
F2
s(S'DP'
S'AAADPP'
tp519
F1
s(S'PP'
S'PADVADVNP'
tp520
F1
s(S'VP'
S'AVAP'
tp521
F6
s(g470
S'MMVP'
tp522
F9
s(S'PP'
S'PADVDDP'
tp523
F2
s(S'NP'
p524
S'ADVNCP'
tp525
F12
s(g430
S'ADPP'
tp526
F68
s(S'NP'
S'NAPPP'
tp527
F2
s(S'CP'
S'ACDP'
tp528
F47
s(S'DP'
p529
S'DDADVADVVP'
tp530
F1
s(S'NP'
S'ANADVADVVVP'
tp531
F1
s(S'AP'
S'ADVANP'
tp532
F1
s(S'MP'
S'MDPP'
tp533
F1
s(S'NP'
p534
S'NNACP'
tp535
F4
s(S'DP'
S'AAADPPP'
tp536
F1
s(g66
S'VAP'
tp537
F154
s(g529
S'DDDPP'
tp538
F13
s(g451
S'DDDAAPPP'
tp539
F1
s(S'PP'
S'ADVPMP'
tp540
F2
s(g449
S'CDAAPP'
tp541
F6
s(S'DP'
S'DDDPPPP'
tp542
F1
s(S'PP'
S'ADVPCP'
tp543
F1
s(S'AP'
S'AAVVP'
tp544
F3
s(S'DP'
S'DDDPPP'
tp545
F5
s(g105
S'ADVAVDP'
tp546
F2
s(S'DP'
S'DADVDP'
tp547
F1
s(S'PP'
S'AAPPPP'
tp548
F1
s(S'PP'
S'PPADVADP'
tp549
F1
s(S'AP'
S'AAACP'
tp550
F2
s(S'DP'
p551
S'ADADVVP'
tp552
F1
s(S'AP'
S'AVVP'
tp553
F8
s(S'PP'
p554
S'PPPVP'
tp555
F2
s(S'VP'
S'AAVAP'
tp556
F1
s(S'AP'
S'AADDP'
tp557
F9
s(S'MP'
S'MADVVANNP'
tp558
F1
s(S'VP'
S'VAANP'
tp559
F3
s(S'NP'
S'NAADDP'
tp560
F1
s(S'CP'
S'CCAAADP'
tp561
F2
s(S'PP'
S'ADVPNNP'
tp562
F3
s(g249
S'VVDP'
tp563
F73
s(S'PP'
p564
S'PAAAAP'
tp565
F1
s(S'MP'
p566
S'MVVVCP'
tp567
F1
s(g220
S'VVAADP'
tp568
F1
s(S'MP'
S'MADP'
tp569
F1
s(S'AP'
p570
S'AMMP'
tp571
F1
s(S'CP'
p572
S'CCAADP'
tp573
F5
s(g212
S'DDADVNP'
tp574
F4
s(S'PP'
S'PANP'
tp575
F56
s(g24
S'PDDDP'
tp576
F1
s(S'NP'
S'ANNMP'
tp577
F2
s(S'DP'
S'DADVADVNNP'
tp578
F1
s(S'DP'
S'ADVADVDAVP'
tp579
F1
s(S'NP'
S'AANMP'
tp580
F2
s(g459
S'AAVP'
tp581
F6
s(S'NP'
S'NAAP'
tp582
F17
s(g139
S'NDDP'
tp583
F22
s(S'VP'
S'VVADVDDP'
tp584
F1
s(S'NP'
S'NADVCCP'
tp585
F4
s(S'AP'
S'ACCP'
tp586
F11
s(S'PP'
S'PADVADVADVDDP'
tp587
F1
s(S'VP'
p588
S'AVPPP'
tp589
F1
s(S'PP'
S'ADVPAANP'
tp590
F1
s(S'NP'
S'NDP'
tp591
F200
s(S'PP'
S'PADVADVADVNP'
tp592
F2
s(S'NP'
S'NNNNVVP'
tp593
F1
s(S'AP'
S'AADVADVDP'
tp594
F1
s(S'PP'
S'PDDDDP'
tp595
F1
s(g238
S'DDVP'
tp596
F53
s(S'DP'
p597
S'ADADVPPP'
tp598
F1
s(S'NP'
S'AANVP'
tp599
F8
s(S'PP'
S'PPADVANP'
tp600
F2
s(S'DP'
S'DADVADVAPP'
tp601
F2
s(S'DP'
S'DADVACP'
tp602
F1
s(S'VP'
S'VNNNP'
tp603
F7
s(S'VP'
S'VADVADVPP'
tp604
F1
s(S'PP'
S'ADVPAP'
tp605
F4
s(S'MP'
S'MMVVVP'
tp606
F1
s(S'PP'
S'PCP'
tp607
F24
s(g497
S'NNPPP'
tp608
F9
s(g335
S'PAADP'
tp609
F7
s(S'NP'
S'ADVNNVP'
tp610
F1
s(S'DP'
p611
S'ADVADVADVDDNP'
tp612
F1
s(S'VP'
S'VPPPP'
tp613
F1
s(g241
S'VVVVANP'
tp614
F1
s(S'VP'
S'VVADVACP'
tp615
F1
s(S'VP'
S'VCCP'
tp616
F22
s(S'AP'
S'AADVAP'
tp617
F1
s(S'NP'
S'NNNDP'
tp618
F5
s(S'MP'
S'MVAAP'
tp619
F2
s(S'AP'
S'ADVACP'
tp620
F4
s(S'PP'
S'AAPNNP'
tp621
F2
s(g49
S'DDADVVP'
tp622
F2
s(g79
S'NNVP'
tp623
F79
s(g566
S'MVCP'
tp624
F8
s(S'CP'
S'CCDDP'
tp625
F26
s(S'NP'
S'NNADVVP'
tp626
F3
s(S'NP'
S'AANNDP'
tp627
F2
s(g611
S'DDADP'
tp628
F1
s(S'NP'
S'ADVANAP'
tp629
F1
s(S'DP'
S'AAADNP'
tp630
F1
s(g63
S'NNVVP'
tp631
F14
s(S'PP'
S'AAPVVVVP'
tp632
F1
s(g401
S'VVCP'
tp633
F32
s(S'VP'
S'VVMP'
tp634
F2
s(S'NP'
S'ADVADVNNADP'
tp635
F1
s(S'NP'
p636
S'AANCP'
tp637
F9
s(g66
S'VDP'
tp638
F389
s(S'VP'
S'ADVAVAP'
tp639
F2
s(S'MP'
S'MVVADVADVNP'
tp640
F1
s(S'NP'
S'NNDDP'
tp641
F3
s(S'DP'
S'DDDDPPP'
tp642
F1
s(S'VP'
p643
S'ADVVPP'
tp644
F11
s(S'VP'
S'VVADVANP'
tp645
F1
s(S'NP'
S'NAAAAP'
tp646
F1
s(S'VP'
S'VNNP'
tp647
F50
s(S'AP'
S'AADVDP'
tp648
F4
s(S'NP'
S'ADVANDP'
tp649
F1
s(S'NP'
S'NADP'
tp650
F12
s(g511
S'ADVADDNP'
tp651
F1
s(S'PP'
S'AAAPPP'
tp652
F1
s(g441
S'DDNP'
tp653
F78
s(S'NP'
S'NADVCP'
tp654
F13
s(S'NP'
S'NNADVAP'
tp655
F1
s(g43
S'AAPPP'
tp656
F6
s(g170
S'ADVAVPP'
tp657
F1
s(S'NP'
S'ADVANVP'
tp658
F3
s(S'CP'
S'CCCADVDDP'
tp659
F1
s(S'AP'
S'AADVADP'
tp660
F3
s(S'CP'
S'ADVADVCCDDP'
tp661
F1
s(S'NP'
S'ADVADVNCP'
tp662
F1
s(g97
S'DDDDDPP'
tp663
F1
s(g273
S'AADPP'
tp664
F17
s(S'PP'
S'APPNP'
tp665
F1
s(S'NP'
S'NNNNPP'
tp666
F2
s(S'PP'
p667
S'ADVADVPPDP'
tp668
F1
s(S'NP'
S'NNNP'
tp669
F2
s(S'NP'
S'NNADVADVCCP'
tp670
F1
s(S'PP'
S'AAPDP'
tp671
F7
s(S'NP'
S'ANVVVP'
tp672
F1
s(S'MP'
S'MADVVDP'
tp673
F1
s(S'DP'
S'ADVVP'
tp674
F3
s(S'PP'
S'ADVAPVP'
tp675
F5
s(S'DP'
S'ADVDNNP'
tp676
F1
s(S'CP'
p677
S'ACDDP'
tp678
F5
s(S'NP'
S'AANDP'
tp679
F2
s(S'MP'
S'MVDDDDP'
tp680
F1
s(S'VP'
S'ADVVCCCP'
tp681
F1
s(S'AP'
S'AAPP'
tp682
F14
s(S'AP'
S'ADVADVACCP'
tp683
F1
s(S'VP'
S'VVCCP'
tp684
F2
s(g319
S'NADVADVADVADVVP'
tp685
F1
s(S'DP'
S'DADVVVP'
tp686
F1
s(S'DP'
S'DAAAPP'
tp687
F1
s(S'PP'
S'ADVPANP'
tp688
F2
s(S'PP'
S'ADVADVPANP'
tp689
F1
s(S'VP'
S'VVVCCP'
tp690
F2
s(g111
S'NAPP'
tp691
F26
s(g276
S'APPVP'
tp692
F1
s(S'NP'
S'NADVDP'
tp693
F4
s(S'PP'
S'ADVPPPP'
tp694
F3
s(S'CP'
S'CDAAAPPP'
tp695
F1
s(S'PP'
S'PADVAPP'
tp696
F1
s(g434
S'ANCCP'
tp697
F17
s(S'NP'
S'AANPP'
tp698
F10
s(S'NP'
S'NNCCP'
tp699
F35
s(g497
S'NNMP'
tp700
F11
s(g597
S'DDDVP'
tp701
F4
s(S'VP'
S'AAVPP'
tp702
F2
s(S'DP'
S'DDAANNP'
tp703
F1
s(g130
S'PAAAP'
tp704
F1
s(S'PP'
S'ADVADVPNP'
tp705
F2
s(S'NP'
S'AAAANCP'
tp706
F1
s(S'CP'
S'CDDAPP'
tp707
F3
s(g588
S'VVVPPP'
tp708
F1
s(S'NP'
S'ADVANVVP'
tp709
F1
s(g94
S'MVAP'
tp710
F8
s(g46
S'PVP'
tp711
F343
s(S'VP'
S'VADVPPP'
tp712
F1
s(S'DP'
p713
S'DADVAVP'
tp714
F1
s(g192
S'DDADVAVP'
tp715
F1
s(S'AP'
S'ADVADVAPP'
tp716
F1
s(g667
S'PPADVVVP'
tp717
F1
s(S'PP'
S'APPPP'
tp718
F2
s(S'VP'
S'VADVADVADVNNP'
tp719
F1
s(S'NP'
S'ADVNAVP'
tp720
F1
s(S'NP'
S'ADVAANVP'
tp721
F1
s(S'DP'
S'DVVVP'
tp722
F7
s(S'NP'
S'ADVADVADVNVP'
tp723
F1
s(S'PP'
S'PACP'
tp724
F3
s(S'PP'
p725
S'PPDDP'
tp726
F10
s(g643
S'AVCP'
tp727
F15
s(S'NP'
p728
S'NADVADVAP'
tp729
F1
s(g20
S'DPP'
tp730
F624
s(g362
S'ADVNVP'
tp731
F12
s(g88
S'DDPP'
tp732
F158
s(S'DP'
S'DDADVPPP'
tp733
F1
s(S'DP'
S'DANP'
tp734
F79
s(S'NP'
S'ADVADVNAP'
tp735
F1
s(S'NP'
S'NADVPP'
tp736
F7
s(S'NP'
S'NAAVP'
tp737
F1
s(S'CP'
S'ADVCADVDDP'
tp738
F1
s(S'DP'
S'AADNP'
tp739
F4
s(S'VP'
S'VADVCP'
tp740
F2
s(S'AP'
S'ADVADVACP'
tp741
F3
s(S'PP'
S'PAVVP'
tp742
F1
s(S'PP'
S'PMMMP'
tp743
F1
s(S'NP'
S'NNNNCP'
tp744
F2
s(S'MP'
S'MDNP'
tp745
F2
s(g447
S'ADVDAAP'
tp746
F1
s(S'DP'
S'DADVADVAVP'
tp747
F1
s(S'DP'
S'ADDPPP'
tp748
F1
s(S'NP'
S'NNNVVP'
tp749
F3
s(S'DP'
S'DDADVADVVVP'
tp750
F1
s(S'AP'
S'AAAADP'
tp751
F1
s(g245
S'DCCP'
tp752
F3
s(g34
S'ADVADVPPP'
tp753
F1
s(S'PP'
S'PPADVADVVP'
tp754
F1
s(g728
S'ADVNNAVP'
tp755
F1
s(S'CP'
S'CDPPPPP'
tp756
F1
s(g551
S'ADVADPP'
tp757
F7
s(S'VP'
S'VVVAP'
tp758
F3
s(g490
S'PDDP'
tp759
F75
s(S'MP'
S'MVDDP'
tp760
F1
s(S'PP'
S'PCCP'
tp761
F2
s(S'PP'
S'ADVAPNP'
tp762
F2
s(S'MP'
S'AMVP'
tp763
F2
s(S'NP'
S'NNNADVVP'
tp764
F1
s(S'DP'
S'ADPPP'
tp765
F6
s(S'PP'
S'PPPNP'
tp766
F2
s(g61
S'NADVADVVVP'
tp767
F2
s(g151
S'APAAP'
tp768
F1
s(g66
S'AVDP'
tp769
F29
s(g426
S'NNP'
tp770
F2
s(S'VP'
S'VVDDP'
tp771
F6
s(S'DP'
S'DAANP'
tp772
F11
s(g570
S'ADDP'
tp773
F36
s(S'NP'
S'NAAAADP'
tp774
F1
s(g725
S'PNNNNP'
tp775
F1
s(g13
S'NADVADVVP'
tp776
F3
s(S'PP'
S'ADVPPNP'
tp777
F3
s(S'PP'
S'ADVADVADVPPAAAP'
tp778
F1
s(S'AP'
S'AADVDDP'
tp779
F1
s(S'CP'
S'CADVADVDPP'
tp780
F7
s(S'CP'
S'ADVADVADVCDP'
tp781
F2
s(g20
S'DPPP'
tp782
F149
s(S'DP'
S'AADPPP'
tp783
F2
s(g572
S'ADVADVADVCCDP'
tp784
F1
s(S'VP'
S'VANNP'
tp785
F4
s(S'NP'
S'NNAVP'
tp786
F4
s(S'VP'
p787
S'AAVADVPP'
tp788
F1
s(S'DP'
S'DDNNP'
tp789
F19
s(S'NP'
S'NNNADVVVP'
tp790
F1
s(S'PP'
S'ADVPNP'
tp791
F13
s(S'PP'
S'PPDP'
tp792
F71
s(S'VP'
S'ADVVANNP'
tp793
F1
s(g224
S'CCDDDDDP'
tp794
F1
s(g245
S'AADVADDPP'
tp795
F1
s(S'CP'
S'CADDPPP'
tp796
F1
s(S'AP'
S'AAPPP'
tp797
F2
s(g63
S'AAANMP'
tp798
F1
s(S'DP'
S'DDCP'
tp799
F1
s(g151
S'PAANNP'
tp800
F1
s(S'AP'
S'AAAPP'
tp801
F1
s(S'NP'
S'NAP'
tp802
F98
s(g534
S'NNAAP'
tp803
F5
s(S'DP'
S'AADDP'
tp804
F2
s(S'VP'
S'VAAAP'
tp805
F5
s(g52
S'VVP'
tp806
F65
s(g128
S'DDAPP'
tp807
F10
s(S'PP'
S'ADVADVPVP'
tp808
F2
s(S'AP'
S'AADVADDP'
tp809
F1
s(S'MP'
S'MAPP'
tp810
F1
s(g18
S'APNP'
tp811
F25
s(S'DP'
S'DDDAPP'
tp812
F1
s(S'DP'
p813
S'DDVVP'
tp814
F8
s(S'AP'
S'AAADDP'
tp815
F1
s(S'VP'
S'VVVNP'
tp816
F6
s(S'MP'
S'MNPP'
tp817
F1
s(S'MP'
S'ADVADVAMVP'
tp818
F1
s(S'NP'
S'NNADVPP'
tp819
F2
s(S'VP'
S'VVVADVANP'
tp820
F1
s(S'MP'
S'MVANP'
tp821
F4
s(S'MP'
S'MVNNP'
tp822
F1
s(g27
S'CDPP'
tp823
F524
s(S'MP'
S'MADVADVVANP'
tp824
F1
s(S'AP'
S'ADDDP'
tp825
F2
s(g488
S'MVADVPP'
tp826
F1
s(S'CP'
S'ADVCADP'
tp827
F2
s(S'VP'
S'VVAANP'
tp828
F1
s(g677
S'ADVCDP'
tp829
F19
s(g281
S'AAPVVP'
tp830
F1
s(g787
S'ADVADVVNP'
tp831
F1
s(S'NP'
S'NADVADVADVCP'
tp832
F2
s(g503
S'ADVPPPPP'
tp833
F1
s(S'CP'
S'ADVACDP'
tp834
F4
s(S'MP'
S'MANCCP'
tp835
F1
s(g265
S'ADVADVVCP'
tp836
F1
s(g787
S'VADVADVDP'
tp837
F1
s(g167
S'PPNNP'
tp838
F15
s(S'CP'
S'CDAAAPP'
tp839
F1
s(g515
S'ADVAPPP'
tp840
F2
s(S'PP'
S'PPMP'
tp841
F4
s(g787
S'VADVADVNP'
tp842
F1
s(S'DP'
S'ADVADVDPP'
tp843
F7
s(g66
S'VADVNP'
tp844
F14
s(S'PP'
S'PPPADVNP'
tp845
F1
s(S'NP'
S'NADVAP'
tp846
F3
s(S'VP'
S'AVDDP'
tp847
F7
s(S'DP'
S'DADVNP'
tp848
F13
s(S'DP'
S'DAP'
tp849
F61
s(S'CP'
S'CADPP'
tp850
F41
s(S'NP'
S'NADVAVP'
tp851
F2
s(S'VP'
S'ADVADVVVPP'
tp852
F1
s(S'PP'
S'PADVAAAVP'
tp853
F1
s(g16
S'PPDDDP'
tp854
F3
s(S'VP'
S'AVPP'
tp855
F7
s(S'CP'
S'CAADPPP'
tp856
F2
s(S'VP'
S'AAVCP'
tp857
F1
s(g149
S'VVADVDP'
tp858
F1
s(S'MP'
S'MACCCP'
tp859
F1
s(S'CP'
S'CDPPPP'
tp860
F3
s(S'PP'
S'PPAADP'
tp861
F2
s(g343
S'AAVDP'
tp862
F7
s(S'PP'
S'PANNP'
tp863
F3
s(S'NP'
p864
S'ADVANMP'
tp865
F1
s(S'VP'
S'VACCP'
tp866
F1
s(S'VP'
S'AVVDP'
tp867
F1
s(g564
S'APPP'
tp868
F12
s(S'DP'
S'DADVADVPP'
tp869
F6
s(g713
S'DMP'
tp870
F8
s(S'NP'
S'NNNNADVVP'
tp871
F1
s(g534
S'ADVNAADP'
tp872
F1
s(S'NP'
S'NADVADVDP'
tp873
F1
s(S'DP'
S'AAAADVP'
tp874
F1
s(S'NP'
S'AAANPP'
tp875
F2
s(g484
S'AAPPPPP'
tp876
F1
s(g154
S'PPPPNP'
tp877
F1
s(S'AP'
p878
S'AADP'
tp879
F71
s(S'PP'
S'PPPVVP'
tp880
F1
s(g636
S'NADVADVADVCCP'
tp881
F1
s(S'VP'
S'VADVPP'
tp882
F5
s(S'DP'
S'DDAAPP'
tp883
F5
s(S'NP'
S'NADVVVP'
tp884
F6
s(g120
S'ADVPVP'
tp885
F10
s(S'DP'
S'DDDDPP'
tp886
F1
s(S'NP'
S'ADVANADVNP'
tp887
F1
s(S'NP'
S'NNVVVP'
tp888
F2
s(g304
S'ADVVANP'
tp889
F2
s(S'PP'
S'PAMP'
tp890
F1
s(S'PP'
S'ADVPDP'
tp891
F10
s(S'VP'
S'VVNNNNP'
tp892
F1
s(g864
S'ANNPP'
tp893
F3
s(S'MP'
S'MAVNNP'
tp894
F1
s(g362
S'NCP'
tp895
F429
s(S'VP'
S'ADVVVPP'
tp896
F4
s(S'PP'
S'PPADVNNP'
tp897
F1
s(S'MP'
S'MAAVNNP'
tp898
F1
s(g878
S'AAAP'
tp899
F7
s(S'VP'
S'VAADP'
tp900
F1
s(S'VP'
S'VADVADVADVDP'
tp901
F1
s(S'PP'
S'ADVPDDP'
tp902
F1
s(S'PP'
S'PPPNNP'
tp903
F1
s(S'MP'
S'MVCCP'
tp904
F5
s(g813
S'DADVNNP'
tp905
F2
s(S'VP'
S'VDDDP'
tp906
F8
s(S'MP'
p907
S'MNVP'
tp908
F7
s(S'NP'
S'AANAP'
tp909
F2
s(S'NP'
p910
S'AANCCP'
tp911
F1
s(S'PP'
S'PADVADVAP'
tp912
F1
s(S'VP'
S'VAPP'
tp913
F12
s(S'MP'
S'MAVNP'
tp914
F1
s(S'VP'
S'ADVVDP'
tp915
F14
s(S'PP'
S'APADVNP'
tp916
F1
s(S'DP'
S'DADVPP'
tp917
F31
s(S'AP'
S'AMP'
tp918
F3
s(S'CP'
S'CCADP'
tp919
F5
s(g524
S'ADVNNCP'
tp920
F4
s(g306
S'ADVDAP'
tp921
F2
s(S'NP'
S'NNNPPP'
tp922
F1
s(S'AP'
S'ADVAPP'
tp923
F14
s(S'DP'
S'ADVDAVP'
tp924
F1
s(S'CP'
S'AACDP'
tp925
F5
s(S'NP'
S'NNNCCP'
tp926
F3
s(S'CP'
S'CCDDDP'
tp927
F7
s(S'MP'
S'MADVVNNP'
tp928
F1
s(g20
S'DVP'
tp929
F364
s(S'VP'
S'AVNNP'
tp930
F4
s(S'NP'
S'ADVNPP'
tp931
F10
s(g910
S'NNCCCP'
tp932
F4
s(S'AP'
S'AVP'
tp933
F48
s(g292
S'NADVVP'
tp934
F13
s(g421
S'NNADVADVVP'
tp935
F1
s(S'DP'
S'DDPPP'
tp936
F35
s(g475
S'ADVNMP'
tp937
F4
s(g91
S'NNAP'
tp938
F12
s(S'VP'
S'ADVADVVVDP'
tp939
F2
s(g907
S'MADVVCP'
tp940
F1
s(S'PP'
S'PPANP'
tp941
F3
s(S'CP'
S'CDADVPP'
tp942
F15
s(g66
S'VNP'
tp943
F313
s(g554
S'ADVPACCP'
tp944
F1
s(S'VP'
S'VANP'
tp945
F33
s(S'VP'
S'VADVAP'
tp946
F16
s(S'VP'
S'VADVADVADP'
tp947
F1
s(S'PP'
S'PPADVNP'
tp948
F3
s(S'MP'
S'MANNPP'
tp949
F1
s(g436
S'ADVAAANCP'
tp950
F1
s.