ccollections
defaultdict
p1
(c__builtin__
float
p2
tRp3
(S'DP'
p4
S'DDAP'
tp5
F2
s(S'VP'
p6
S'ADVVVNP'
tp7
F1
s(S'DP'
p8
S'DAANNP'
tp9
F1
s(S'PP'
p10
S'PAPP'
tp11
F4
s(S'PP'
p12
S'PADVNP'
tp13
F2
s(g8
S'DNP'
tp14
F43
s(S'NP'
p15
S'ADVNDP'
tp16
F1
s(S'CP'
p17
S'CDPPP'
tp18
F15
s(g6
S'VADP'
tp19
F10
s(S'DP'
p20
S'DAAP'
tp21
F2
s(S'VP'
p22
S'VAVP'
tp23
F1
s(S'DP'
p24
S'DAADP'
tp25
F2
s(S'DP'
p26
S'ADNNP'
tp27
F2
s(S'VP'
p28
S'ADVVNP'
tp29
F4
s(S'MP'
S'MVDP'
tp30
F5
s(S'PP'
p31
S'PPPP'
tp32
F8
s(g20
S'DDDNP'
tp33
F2
s(g6
S'VACP'
tp34
F2
s(S'DP'
p35
S'DADVVP'
tp36
F1
s(S'PP'
S'PMP'
tp37
F4
s(S'NP'
S'NCCCP'
tp38
F1
s(S'CP'
p39
S'CADVDAPP'
tp40
F1
s(S'VP'
p41
S'VCP'
tp42
F14
s(S'PP'
p43
S'PAP'
tp44
F15
s(S'PP'
p45
S'APVVP'
tp46
F1
s(S'PP'
p47
S'PPADVDP'
tp48
F1
s(g43
S'PNP'
tp49
F42
s(g8
S'DDP'
tp50
F17
s(S'NP'
S'AANADVADVVP'
tp51
F1
s(g28
S'ADVVDDP'
tp52
F1
s(S'NP'
p53
S'NNDP'
tp54
F4
s(S'NP'
p55
S'NMP'
tp56
F9
s(S'PP'
p57
S'PPMMP'
tp58
F1
s(S'VP'
S'AAVNP'
tp59
F1
s(g43
S'PDP'
tp60
F42
s(g47
S'PPADVVP'
tp61
F1
s(g6
S'AVAAP'
tp62
F1
s(S'PP'
p63
S'APAVVP'
tp64
F1
s(S'NP'
p65
S'NACCP'
tp66
F1
s(S'PP'
p67
S'PADVPP'
tp68
F1
s(S'NP'
p69
S'ADVNACP'
tp70
F2
s(g24
S'DPPPP'
tp71
F3
s(S'DP'
p72
S'DDANP'
tp73
F1
s(S'PP'
p74
S'PADVADP'
tp75
F2
s(g69
S'NACP'
tp76
F11
s(S'AP'
S'ADVAVP'
tp77
F1
s(g15
S'NCCP'
tp78
F14
s(g22
S'AVADVNP'
tp79
F1
s(g55
S'NNCP'
tp80
F19
s(S'DP'
p81
S'ADVDDPP'
tp82
F1
s(S'DP'
p83
S'DDDDP'
tp84
F1
s(S'DP'
p85
S'DDAPP'
tp86
F2
s(g22
S'AVNP'
tp87
F5
s(S'NP'
S'NNNNNCP'
tp88
F1
s(S'NP'
p89
S'NADVADVPP'
tp90
F1
s(S'NP'
p91
S'NADVADVCCP'
tp92
F1
s(S'DP'
p93
S'ADADVNP'
tp94
F1
s(g65
S'ANADVVP'
tp95
F2
s(S'PP'
S'ADVAPVP'
tp96
F1
s(S'AP'
p97
S'AAAAP'
tp98
F1
s(S'CP'
S'CCCDP'
tp99
F1
s(S'VP'
S'AVNNP'
tp100
F1
s(g10
S'APDP'
tp101
F9
s(S'VP'
p102
S'ADVVNNP'
tp103
F1
s(S'VP'
p104
S'VVANP'
tp105
F2
s(S'PP'
S'ADVPNNP'
tp106
F1
s(S'NP'
p107
S'ADVNCP'
tp108
F3
s(g43
S'PAAP'
tp109
F6
s(S'MP'
p110
S'MPNNP'
tp111
F1
s(g8
S'DNNP'
tp112
F18
s(S'CP'
p113
S'CADVDDPP'
tp114
F1
s(S'DP'
p115
S'DPPPPP'
tp116
F2
s(S'CP'
S'CDDPPPP'
tp117
F1
s(S'CP'
p118
S'CCADVDP'
tp119
F1
s(S'NP'
p120
S'NNNVP'
tp121
F1
s(g67
S'PADVVP'
tp122
F2
s(g57
S'APAP'
tp123
F1
s(g39
S'ADVADVCDP'
tp124
F1
s(S'AP'
p125
S'AAP'
tp126
F1
s(g97
S'AAADVDDP'
tp127
F1
s(S'DP'
S'DAAVP'
tp128
F2
s(g45
S'PAANP'
tp129
F2
s(S'NP'
S'ANVP'
tp130
F9
s(g89
S'NNAAAP'
tp131
F1
s(S'MP'
S'MVNP'
tp132
F5
s(S'NP'
p133
S'ADVADVNAACP'
tp134
F1
s(S'AP'
S'ADVAADP'
tp135
F1
s(g22
S'AVAANNP'
tp136
F1
s(g4
S'ADVADNP'
tp137
F1
s(S'PP'
p138
S'PAVP'
tp139
F7
s(g91
S'NNADP'
tp140
F2
s(g115
S'DADP'
tp141
F2
s(S'AP'
p142
S'ADVADP'
tp143
F2
s(S'AP'
p144
S'APP'
tp145
F10
s(S'DP'
p146
S'ADVDDP'
tp147
F1
s(g12
S'APDDP'
tp148
F2
s(g89
S'ADVNAP'
tp149
F1
s(g10
S'APVP'
tp150
F4
s(S'VP'
p151
S'VVNP'
tp152
F14
s(S'NP'
p153
S'ANNP'
tp154
F1
s(g10
S'PPVP'
tp155
F13
s(g107
S'ADVNAAPP'
tp156
F1
s(S'VP'
p157
S'VADVDP'
tp158
F1
s(S'DP'
p159
S'DDDPP'
tp160
F2
s(g6
S'VAAP'
tp161
F4
s(S'MP'
p162
S'MANPP'
tp163
F1
s(g53
S'ANDP'
tp164
F7
s(g69
S'NVVP'
tp165
F11
s(g45
S'AAPVP'
tp166
F1
s(g138
S'PPADP'
tp167
F1
s(S'VP'
p168
S'VMP'
tp169
F1
s(S'CP'
p170
S'CDAPP'
tp171
F7
s(S'MP'
S'MMPP'
tp172
F1
s(S'DP'
p173
S'ADVADVP'
tp174
F1
s(g20
S'ADNP'
tp175
F12
s(S'PP'
S'PADP'
tp176
F17
s(g159
S'ADVDDNP'
tp177
F1
s(g83
S'ADVADVADVP'
tp178
F1
s(S'DP'
S'DNNNNNP'
tp179
F1
s(S'DP'
p180
S'DAPP'
tp181
F9
s(g31
S'PPPDP'
tp182
F3
s(S'AP'
p183
S'AAPPP'
tp184
F1
s(S'VP'
p185
S'VAAPP'
tp186
F2
s(S'DP'
S'ADVDNP'
tp187
F3
s(g6
S'VVPP'
tp188
F7
s(g83
S'ADADVPP'
tp189
F1
s(S'MP'
S'MVPP'
tp190
F1
s(S'DP'
S'ADVP'
tp191
F9
s(g173
S'DDAAPP'
tp192
F2
s(g69
S'NNPP'
tp193
F11
s(S'PP'
S'PPADVAAP'
tp194
F1
s(S'DP'
S'DNNNP'
tp195
F3
s(g83
S'ADVDDVP'
tp196
F1
s(g168
S'VADVDDP'
tp197
F1
s(S'VP'
p198
S'ADVADVVDDP'
tp199
F1
s(g91
S'NNMMP'
tp200
F1
s(g17
S'CCDP'
tp201
F17
s(g89
S'NVVVP'
tp202
F1
s(S'CP'
p203
S'CDDDPP'
tp204
F2
s(g203
S'CDAAPP'
tp205
F2
s(g102
S'VVVDP'
tp206
F1
s(g67
S'PNNNP'
tp207
F2
s(g91
S'ANMMP'
tp208
F1
s(S'AP'
p209
S'AACCP'
tp210
F1
s(S'PP'
S'AAPNP'
tp211
F2
s(S'PP'
p212
S'AAPADVDP'
tp213
F1
s(g43
S'PPP'
tp214
F23
s(g15
S'NAVP'
tp215
F9
s(g12
S'PADVAP'
tp216
F1
s(g81
S'ADVDVP'
tp217
F2
s(g43
S'PPPPDP'
tp218
F1
s(g81
S'ADVADVDNP'
tp219
F1
s(g41
S'VPP'
tp220
F32
s(g170
S'ACCDP'
tp221
F1
s(S'AP'
S'AAAACP'
tp222
F1
s(g65
S'NNNCP'
tp223
F6
s(g45
S'PADVDP'
tp224
F2
s(S'CP'
S'CDADVAPP'
tp225
F1
s(g4
S'DANNP'
tp226
F1
s(S'PP'
p227
S'PADVAAP'
tp228
F1
s(S'CP'
p229
S'CDDPP'
tp230
F21
s(g159
S'DAAPP'
tp231
F2
s(g31
S'PVVP'
tp232
F13
s(g170
S'CADPPP'
tp233
F4
s(g142
S'AACP'
tp234
F3
s(S'VP'
p235
S'VPPP'
tp236
F7
s(g185
S'AVCCP'
tp237
F1
s(g31
S'PPAP'
tp238
F5
s(g24
S'DVVP'
tp239
F11
s(g133
S'ANMP'
tp240
F1
s(S'AP'
p241
S'APPP'
tp242
F1
s(g45
S'ADVPPP'
tp243
F1
s(g151
S'VVVP'
tp244
F4
s(S'CP'
S'CADVDPP'
tp245
F5
s(g15
S'ANCP'
tp246
F15
s(S'DP'
p247
S'DAAVVP'
tp248
F1
s(g93
S'DDDP'
tp249
F6
s(S'DP'
p250
S'ADVADVADVDNNP'
tp251
F1
s(g65
S'ANVVP'
tp252
F1
s(g41
S'VVDP'
tp253
F12
s(S'NP'
p254
S'NPPP'
tp255
F7
s(g10
S'PPAPP'
tp256
F2
s(g26
S'DAVP'
tp257
F5
s(S'AP'
S'ACP'
tp258
F5
s(g151
S'AVVVVP'
tp259
F1
s(g133
S'NAAAAP'
tp260
F1
s(g72
S'ADVDAPP'
tp261
F3
s(g4
S'AADVP'
tp262
F1
s(g142
S'ADP'
tp263
F27
s(g247
S'DDPPPP'
tp264
F1
s(S'VP'
S'AVDP'
tp265
F8
s(S'NP'
S'ANNVP'
tp266
F1
s(g168
S'VVAP'
tp267
F3
s(S'NP'
p268
S'NNAPP'
tp269
F1
s(g69
S'NPP'
tp270
F41
s(g69
S'NVP'
tp271
F31
s(g89
S'NNDDDP'
tp272
F1
s(S'NP'
p273
S'NAAPP'
tp274
F2
s(g151
S'VDDP'
tp275
F11
s(S'DP'
S'DADVAPP'
tp276
F1
s(g15
S'ANPP'
tp277
F7
s(g67
S'PPPPP'
tp278
F2
s(S'MP'
S'MPDP'
tp279
F1
s(g15
S'NPPPP'
tp280
F1
s(g250
S'ADDP'
tp281
F3
s(S'CP'
S'CAADPP'
tp282
F1
s(g85
S'DADVADVVP'
tp283
F1
s(g55
S'NAACP'
tp284
F1
s(g31
S'PNNP'
tp285
F17
s(g45
S'APNNP'
tp286
F1
s(S'VP'
p287
S'AVAP'
tp288
F1
s(S'MP'
p289
S'MMVP'
tp290
F1
s(S'PP'
S'PCCP'
tp291
F1
s(g24
S'ADPP'
tp292
F15
s(S'VP'
S'ADVADVADVVANNP'
tp293
F1
s(g229
S'ACDP'
tp294
F13
s(g28
S'VCCP'
tp295
F2
s(g151
S'VAP'
tp296
F11
s(g198
S'VVVVNP'
tp297
F1
s(g28
S'VVADVAP'
tp298
F1
s(S'CP'
S'ADVCDDP'
tp299
F1
s(g133
S'AANNCP'
tp300
F1
s(S'PP'
p301
S'PAAPP'
tp302
F2
s(g209
S'ADVAAPP'
tp303
F1
s(S'AP'
S'AAVVP'
tp304
F1
s(g93
S'ADAP'
tp305
F2
s(g138
S'APADVVP'
tp306
F1
s(S'CP'
S'CCADVADP'
tp307
F1
s(g83
S'DDADVPP'
tp308
F1
s(g89
S'NAAP'
tp309
F1
s(g227
S'PPPVP'
tp310
F1
s(g125
S'AADDP'
tp311
F3
s(g107
S'NADVADVCP'
tp312
F1
s(g162
S'MVVVCP'
tp313
F1
s(g31
S'PPPDDP'
tp314
F1
s(g39
S'CCAADP'
tp315
F2
s(g31
S'PANP'
tp316
F12
s(S'AP'
S'AVVP'
tp317
F2
s(S'NP'
S'NDDP'
tp318
F5
s(g53
S'NDP'
tp319
F26
s(g24
S'DDVP'
tp320
F11
s(S'NP'
S'AANVP'
tp321
F1
s(S'VP'
S'VNNNP'
tp322
F1
s(g289
S'MMVVVP'
tp323
F1
s(g63
S'APADVDP'
tp324
F1
s(S'PP'
p325
S'PCP'
tp326
F1
s(g15
S'NNPPP'
tp327
F6
s(S'VP'
S'VPPPP'
tp328
F1
s(S'NP'
S'AANVVVP'
tp329
F1
s(g47
S'PAPPP'
tp330
F1
s(g180
S'ADPPP'
tp331
F4
s(g289
S'MVCP'
tp332
F1
s(g17
S'CCDDP'
tp333
F8
s(g81
S'DDADP'
tp334
F1
s(g173
S'ADVADVDAANP'
tp335
F1
s(g138
S'PPAAP'
tp336
F1
s(g28
S'VVCP'
tp337
F4
s(S'NP'
S'AANCP'
tp338
F2
s(g41
S'VADVNP'
tp339
F3
s(g185
S'VVDDDP'
tp340
F1
s(S'NP'
S'NNDDP'
tp341
F3
s(g168
S'ADVVPP'
tp342
F4
s(g31
S'PPNP'
tp343
F12
s(g6
S'VNNP'
tp344
F12
s(g241
S'AADVDP'
tp345
F1
s(g273
S'NADP'
tp346
F3
s(g301
S'PPPPADVNNP'
tp347
F1
s(g24
S'DDNP'
tp348
F19
s(g113
S'ACADVDP'
tp349
F1
s(g53
S'NADVCP'
tp350
F5
s(g146
S'DDNNP'
tp351
F5
s(g74
S'AAPPP'
tp352
F3
s(g12
S'AAPADVNP'
tp353
F1
s(g91
S'ADVADVNCP'
tp354
F1
s(g24
S'AADPP'
tp355
F6
s(g110
S'MADVVDP'
tp356
F1
s(S'MP'
S'MVVNP'
tp357
F2
s(g97
S'AADVADVADP'
tp358
F1
s(g159
S'ADVDNNP'
tp359
F1
s(g17
S'ACDDP'
tp360
F4
s(g209
S'AAPP'
tp361
F5
s(S'VP'
S'VVCCP'
tp362
F1
s(S'CP'
S'ADVCAADP'
tp363
F1
s(S'PP'
S'ADVPANP'
tp364
F2
s(S'NP'
S'NAPP'
tp365
F5
s(g47
S'APPVP'
tp366
F1
s(g133
S'NADVDP'
tp367
F2
s(g157
S'VVVCP'
tp368
F2
s(g55
S'ANCCP'
tp369
F4
s(S'NP'
S'NNMP'
tp370
F1
s(g212
S'PAAAP'
tp371
F3
s(g63
S'ADVADVPNP'
tp372
F1
s(S'CP'
S'CDDAPP'
tp373
F2
s(g43
S'PVP'
tp374
F37
s(g31
S'PPADVVVP'
tp375
F1
s(S'NP'
S'ANNCP'
tp376
F5
s(S'PP'
S'PPDDP'
tp377
F4
s(g287
S'AVCP'
tp378
F1
s(g8
S'DPP'
tp379
F48
s(g8
S'DDPP'
tp380
F25
s(g83
S'DDAVP'
tp381
F1
s(g115
S'DANP'
tp382
F13
s(g89
S'NAAVP'
tp383
F1
s(g168
S'VADVCP'
tp384
F1
s(g69
S'AANNDP'
tp385
F1
s(S'NP'
S'ADVNNAVP'
tp386
F1
s(g227
S'AAPDP'
tp387
F4
s(S'VP'
S'VVDDP'
tp388
F1
s(S'VP'
S'AVVDP'
tp389
F1
s(g31
S'PDDP'
tp390
F15
s(g69
S'NNVP'
tp391
F11
s(S'PP'
S'PADVADVADVDP'
tp392
F1
s(S'NP'
S'NNP'
tp393
F1
s(g250
S'ADVADPP'
tp394
F1
s(g93
S'DAANP'
tp395
F4
s(g67
S'APADVADVVVP'
tp396
F1
s(g144
S'ADDP'
tp397
F6
s(g17
S'CADVADVDPP'
tp398
F1
s(g24
S'DPPP'
tp399
F24
s(g115
S'DAVVP'
tp400
F1
s(S'VP'
S'VANNP'
tp401
F2
s(g63
S'ADVPNP'
tp402
F1
s(g31
S'PPDP'
tp403
F17
s(S'AP'
S'AAAPP'
tp404
F1
s(g254
S'NAP'
tp405
F9
s(g41
S'VVP'
tp406
F12
s(g268
S'NNVVP'
tp407
F1
s(g183
S'AAADP'
tp408
F2
s(S'PP'
S'APNP'
tp409
F10
s(S'DP'
S'DDVVP'
tp410
F2
s(S'AP'
S'AAADDP'
tp411
F1
s(S'VP'
S'VVVNP'
tp412
F2
s(g229
S'CDPP'
tp413
F47
s(S'CP'
p414
S'ADVCDP'
tp415
F4
s(g10
S'PPPPAP'
tp416
F1
s(g235
S'VADVADVDP'
tp417
F2
s(g47
S'PPNNP'
tp418
F2
s(g24
S'ADVADVDPP'
tp419
F1
s(g41
S'VDP'
tp420
F36
s(g69
S'NADVAP'
tp421
F1
s(S'VP'
p422
S'AVDDP'
tp423
F1
s(g24
S'DADVNP'
tp424
F4
s(g8
S'DAP'
tp425
F12
s(g118
S'CADPP'
tp426
F11
s(g325
S'PPAVP'
tp427
F1
s(g185
S'AVPP'
tp428
F4
s(g17
S'CDPPPP'
tp429
F3
s(g287
S'AAVDP'
tp430
F2
s(g57
S'PANNP'
tp431
F2
s(g67
S'APPP'
tp432
F3
s(g133
S'AANVVP'
tp433
F1
s(g20
S'ADVDPP'
tp434
F7
s(g138
S'PADVADVNP'
tp435
F2
s(g144
S'AADP'
tp436
F8
s(g17
S'CDDPPP'
tp437
F5
s(g57
S'PVVVVP'
tp438
F1
s(g67
S'ADVPVP'
tp439
F3
s(g133
S'NNVVVP'
tp440
F1
s(g22
S'ADVVANP'
tp441
F1
s(g67
S'ADVPDP'
tp442
F1
s(g69
S'NCP'
tp443
F43
s(g414
S'CADVDPPP'
tp444
F2
s(S'AP'
S'AAAP'
tp445
F1
s(g35
S'DADVNNP'
tp446
F1
s(g15
S'NNCCP'
tp447
F5
s(g113
S'ADVADVCCDP'
tp448
F1
s(g120
S'AANCCP'
tp449
F2
s(g422
S'VAPP'
tp450
F4
s(g69
S'NPPPPP'
tp451
F1
s(g104
S'ADVVDP'
tp452
F5
s(g180
S'DADVPP'
tp453
F6
s(g203
S'CCADP'
tp454
F1
s(g153
S'ADVNNCP'
tp455
F1
s(g209
S'ADVAPP'
tp456
F2
s(g118
S'AACDP'
tp457
F2
s(g115
S'ADVDPPP'
tp458
F2
s(g8
S'DVP'
tp459
F37
s(g55
S'ADVNPP'
tp460
F3
s(g142
S'AVP'
tp461
F4
s(g120
S'NADVVP'
tp462
F5
s(g24
S'DDPPP'
tp463
F5
s(g133
S'NNAP'
tp464
F2
s(g74
S'PPANP'
tp465
F1
s(S'CP'
S'CDADVPP'
tp466
F3
s(g41
S'VNP'
tp467
F33
s(g28
S'VANP'
tp468
F8
s(g185
S'VADVAP'
tp469
F2
s(g28
S'ADVADVVVDP'
tp470
F1
s.