ccollections
defaultdict
p1
(c__builtin__
float
p2
tRp3
(S'DP'
p4
S'DDPP'
tp5
F2
s(S'NP'
p6
S'NCP'
tp7
F3
s(S'VP'
p8
S'VPP'
tp9
F3
s(S'CP'
p10
S'CDDPP'
tp11
F1
s(S'NP'
p12
S'NADVPP'
tp13
F1
s(g12
S'NCCP'
tp14
F1
s(S'DP'
p15
S'DADVPPP'
tp16
F1
s(S'PP'
p17
S'ADVPPAVP'
tp18
F1
s(S'MP'
S'MANNPP'
tp19
F1
s(S'PP'
p20
S'PPVP'
tp21
F1
s(g20
S'ADVPNP'
tp22
F1
s(S'VP'
p23
S'VVPP'
tp24
F1
s(g20
S'PVVP'
tp25
F1
s(S'VP'
p26
S'VADP'
tp27
F1
s(g23
S'VVDP'
tp28
F1
s(g26
S'AVNP'
tp29
F1
s(S'NP'
p30
S'NAP'
tp31
F1
s(g20
S'PPADVDP'
tp32
F1
s(g12
S'NNPP'
tp33
F1
s(S'AP'
p34
S'ADP'
tp35
F1
s(g12
S'ANVP'
tp36
F1
s(S'PP'
p37
S'PNP'
tp38
F3
s(g26
S'VDDP'
tp39
F1
s(g23
S'VVPPP'
tp40
F1
s(g26
S'VMP'
tp41
F1
s(S'CP'
p42
S'CDAPP'
tp43
F1
s(g8
S'VDP'
tp44
F3
s(S'DP'
p45
S'DVVP'
tp46
F1
s(g10
S'CDPPP'
tp47
F2
s(g20
S'PANP'
tp48
F1
s(S'MP'
S'ADVMNP'
tp49
F1
s(g30
S'NACP'
tp50
F1
s(S'MP'
p51
S'MCDP'
tp52
F1
s(g12
S'NDDP'
tp53
F1
s(g10
S'CCDP'
tp54
F1
s(g37
S'PDDP'
tp55
F2
s(g20
S'PPVVP'
tp56
F1
s(g42
S'ACDP'
tp57
F1
s(g12
S'NMP'
tp58
F1
s(g23
S'VVAP'
tp59
F1
s(g51
S'MVAP'
tp60
F1
s(g4
S'DVP'
tp61
F3
s(g51
S'MVNP'
tp62
F1
s(g6
S'NDP'
tp63
F3
s(g15
S'DAPP'
tp64
F1
s(g42
S'CDADVPPP'
tp65
F1
s(g20
S'PVP'
tp66
F2
s(g15
S'DDVP'
tp67
F1
s(g37
S'PDP'
tp68
F3
s(g6
S'NPP'
tp69
F3
s(g15
S'DDNP'
tp70
F1
s(g15
S'ADNP'
tp71
F1
s(g20
S'PPPP'
tp72
F1
s(g17
S'APNP'
tp73
F1
s(S'AP'
p74
S'AADP'
tp75
F1
s(g30
S'ANNPP'
tp76
F1
s(g37
S'PPP'
tp77
F3
s(g4
S'DNP'
tp78
F3
s(g6
S'NVP'
tp79
F3
s(g74
S'ADDP'
tp80
F1
s(g17
S'PPPPPPP'
tp81
F1
s(g20
S'ADVPNNP'
tp82
F1
s(g23
S'VNP'
tp83
F2
s(g37
S'PADVMP'
tp84
F1
s(g23
S'VANP'
tp85
F1
s(g34
S'APP'
tp86
F1
s(S'CP'
S'CDPP'
tp87
F3
s(g34
S'AADVPP'
tp88
F1
s(g23
S'VCP'
tp89
F1
s(g17
S'PPPPDP'
tp90
F1
s(g4
S'DPP'
tp91
F3
s(g45
S'DPPP'
tp92
F2
s(g45
S'ADVDNP'
tp93
F1
s(g23
S'VAP'
tp94
F1
s.