ccollections
defaultdict
p1
(c__builtin__
float
p2
tRp3
(S'DP'
p4
S'DDPP'
tp5
F9
s(S'DP'
p6
S'DANP'
tp7
F3
s(S'VP'
p8
S'ADVVNP'
tp9
F1
s(S'NP'
p10
S'NNCCP'
tp11
F2
s(S'NP'
p12
S'ADVADVADVADVADVADVANCP'
tp13
F1
s(S'NP'
p14
S'ANPP'
tp15
F2
s(S'VP'
p16
S'VVNP'
tp17
F1
s(g6
S'ADDPP'
tp18
F1
s(S'PP'
p19
S'PPVP'
tp20
F2
s(S'DP'
p21
S'DDAP'
tp22
F1
s(S'CP'
S'CCDDDDP'
tp23
F1
s(S'VP'
p24
S'VAAP'
tp25
F1
s(S'AP'
p26
S'AVVVP'
tp27
F1
s(g4
S'DDPPPPP'
tp28
F1
s(g14
S'NVVP'
tp29
F4
s(S'DP'
p30
S'DNP'
tp31
F18
s(S'PP'
S'PNNP'
tp32
F6
s(g24
S'VVNNP'
tp33
F1
s(S'CP'
p34
S'CDAPP'
tp35
F3
s(S'VP'
p36
S'VADVNP'
tp37
F1
s(S'PP'
S'PPPP'
tp38
F1
s(S'NP'
S'ANCCP'
tp39
F1
s(g6
S'ADNP'
tp40
F1
s(S'VP'
S'VADP'
tp41
F1
s(S'PP'
p42
S'PADP'
tp43
F1
s(S'AP'
S'AADP'
tp44
F2
s(S'PP'
p45
S'PDDP'
tp46
F2
s(S'CP'
S'ACDP'
tp47
F3
s(S'MP'
S'MVDDP'
tp48
F1
s(S'NP'
S'NNACP'
tp49
F1
s(S'DP'
p50
S'DAPP'
tp51
F4
s(S'VP'
S'VAP'
tp52
F6
s(S'PP'
p53
S'APVP'
tp54
F2
s(S'PP'
p55
S'PPPMP'
tp56
F1
s(S'MP'
p57
S'MVDP'
tp58
F1
s(S'CP'
p59
S'ADVCDDP'
tp60
F1
s(g10
S'ANADVCP'
tp61
F1
s(S'MP'
p62
S'AAMNP'
tp63
F1
s(S'DP'
S'ADVADPP'
tp64
F1
s(g6
S'DAANP'
tp65
F1
s(S'VP'
S'ADVADVVDP'
tp66
F1
s(g36
S'VACP'
tp67
F1
s(S'AP'
S'ADDP'
tp68
F1
s(S'VP'
p69
S'ADVAVDP'
tp70
F1
s(g19
S'ADVPPNP'
tp71
F2
s(g6
S'DAAANP'
tp72
F1
s(S'PP'
p73
S'PAAMP'
tp74
F1
s(S'CP'
S'CCDDP'
tp75
F2
s(S'PP'
S'PPPVP'
tp76
F1
s(S'CP'
p77
S'CADVDAPP'
tp78
F1
s(S'VP'
p79
S'VCP'
tp80
F9
s(S'VP'
p81
S'ADVVAAP'
tp82
F1
s(S'MP'
S'MVPP'
tp83
F2
s(g19
S'PAP'
tp84
F11
s(g42
S'PPANNP'
tp85
F1
s(g42
S'PPDP'
tp86
F4
s(S'NP'
S'NNPP'
tp87
F2
s(S'PP'
p88
S'PAAAAP'
tp89
F1
s(g57
S'MPNP'
tp90
F1
s(g55
S'PNP'
tp91
F19
s(S'MP'
S'MADP'
tp92
F1
s(S'PP'
p93
S'ADVADVPVVP'
tp94
F1
s(S'DP'
p95
S'DNNNP'
tp96
F1
s(S'DP'
p97
S'DDP'
tp98
F1
s(g42
S'PANP'
tp99
F3
s(S'VP'
S'VCCP'
tp100
F1
s(S'PP'
S'PVVVP'
tp101
F2
s(g93
S'PMP'
tp102
F2
s(S'NP'
p103
S'NDDP'
tp104
F2
s(g77
S'CCDP'
tp105
F6
s(S'NP'
p106
S'NAP'
tp107
F12
s(S'MP'
S'AMVP'
tp108
F3
s(g16
S'VPPP'
tp109
F3
s(g103
S'NMP'
tp110
F3
s(S'VP'
p111
S'AVPP'
tp112
F2
s(g106
S'NDP'
tp113
F3
s(g16
S'VVVDP'
tp114
F1
s(S'PP'
p115
S'PVP'
tp116
F14
s(g16
S'VVP'
tp117
F2
s(g4
S'DDVP'
tp118
F2
s(g115
S'PDP'
tp119
F18
s(S'DP'
S'DDAPP'
tp120
F1
s(g62
S'MVNP'
tp121
F2
s(S'AP'
S'AAADP'
tp122
F1
s(g42
S'APNP'
tp123
F2
s(g115
S'PPP'
tp124
F13
s(g106
S'NAVP'
tp125
F2
s(S'NP'
S'NAMP'
tp126
F2
s(S'AP'
S'ANP'
tp127
F1
s(g30
S'DPPP'
tp128
F2
s(g19
S'PADVPP'
tp129
F1
s(S'CP'
S'CDPP'
tp130
F23
s(S'VP'
S'VMP'
tp131
F1
s(S'AP'
p132
S'ADDDP'
tp133
F1
s(g45
S'PPPPDP'
tp134
F1
s(S'DP'
S'DPPPP'
tp135
F2
s(g79
S'VPP'
tp136
F11
s(g10
S'NACP'
tp137
F1
s(S'DP'
S'ADVDPPPP'
tp138
F1
s(g12
S'NCCP'
tp139
F5
s(g34
S'ADVCDP'
tp140
F2
s(g132
S'AAAADP'
tp141
F1
s(S'NP'
S'NNVP'
tp142
F4
s(g106
S'NNCP'
tp143
F7
s(S'MP'
S'MVCP'
tp144
F2
s(g69
S'VVPP'
tp145
F3
s(g14
S'NNPPPP'
tp146
F1
s(S'CP'
p147
S'CDDPP'
tp148
F6
s(g111
S'VAAPPP'
tp149
F1
s(g19
S'ADVPAVP'
tp150
F1
s(g73
S'PVVP'
tp151
F2
s(g16
S'ADVVCP'
tp152
F1
s(g42
S'PPAP'
tp153
F1
s(g16
S'VVPPP'
tp154
F1
s(S'DP'
S'DAP'
tp155
F1
s(S'CP'
p156
S'CADPP'
tp157
F2
s(g103
S'AANCP'
tp158
F2
s(g79
S'VDP'
tp159
F14
s(g50
S'DVVP'
tp160
F2
s(S'MP'
S'MADVADVVDP'
tp161
F1
s(g42
S'APPP'
tp162
F1
s(g53
S'PPPADVADVADVADVADVADVANP'
tp163
F1
s(g97
S'DDDDPPP'
tp164
F1
s(g57
S'MAAP'
tp165
F1
s(S'NP'
p166
S'NNNADVPPP'
tp167
F1
s(g147
S'CDDPPPPP'
tp168
F1
s(S'CP'
S'CDPPPP'
tp169
F1
s(S'CP'
S'CADVDPP'
tp170
F1
s(S'DP'
p171
S'DDDNP'
tp172
F1
s(S'VP'
S'ADVVAP'
tp173
F1
s(g21
S'DDNP'
tp174
F2
s(g14
S'NADVCP'
tp175
F2
s(g171
S'DDNNP'
tp176
F1
s(g14
S'ANCP'
tp177
F2
s(S'DP'
p178
S'DADVADVPP'
tp179
F1
s(S'DP'
S'DMP'
tp180
F1
s(S'DP'
S'DCP'
tp181
F1
s(g42
S'PPPNP'
tp182
F1
s(g14
S'ANNCP'
tp183
F1
s(g14
S'AAANPP'
tp184
F1
s(g95
S'ADPP'
tp185
F3
s(g8
S'VVVPP'
tp186
F1
s(g156
S'CDDPPP'
tp187
F2
s(g166
S'ANVVP'
tp188
F1
s(g42
S'ADVPVP'
tp189
F1
s(g81
S'VVDP'
tp190
F4
s(g14
S'NPPP'
tp191
F1
s(S'PP'
p192
S'PAMP'
tp193
F1
s(g171
S'DAVP'
tp194
F2
s(g30
S'DNNP'
tp195
F7
s(g106
S'NCP'
tp196
F20
s(S'CP'
S'CCADVDP'
tp197
F2
s(S'PP'
S'PPNP'
tp198
F2
s(g34
S'CDADVPP'
tp199
F1
s(S'DP'
S'ADVDAPP'
tp200
F1
s(S'DP'
S'AADVP'
tp201
F1
s(g88
S'PCP'
tp202
F1
s(S'PP'
S'PADVVP'
tp203
F1
s(S'AP'
S'ACP'
tp204
F7
s(g81
S'VNNP'
tp205
F3
s(S'AP'
S'ADP'
tp206
F15
s(g192
S'APAP'
tp207
F1
s(g16
S'VAPP'
tp208
F1
s(S'AP'
S'APP'
tp209
F3
s(g26
S'AAP'
tp210
F1
s(g6
S'DADVPP'
tp211
F1
s(g59
S'CADVADPP'
tp212
F1
s(g14
S'AANPP'
tp213
F1
s(S'AP'
S'AMP'
tp214
F2
s(g103
S'NNMP'
tp215
F4
s(S'MP'
S'MNVP'
tp216
F1
s(S'MP'
S'MPVP'
tp217
F1
s(g34
S'CADDPP'
tp218
F1
s(g19
S'PAANP'
tp219
F2
s(g79
S'AVDP'
tp220
F3
s(S'NP'
S'NNNCCP'
tp221
F1
s(S'CP'
S'CDDAPP'
tp222
F1
s(g178
S'DVP'
tp223
F13
s(g81
S'VADVPPP'
tp224
F1
s(S'DP'
S'ADVDPP'
tp225
F2
s(g95
S'DADVAVP'
tp226
F1
s(S'AP'
S'AVP'
tp227
F1
s(g14
S'NADVVP'
tp228
F3
s(S'MP'
S'MADVVAAP'
tp229
F1
s(g115
S'PAVP'
tp230
F2
s(g95
S'DDPPP'
tp231
F4
s(S'VP'
S'VVVCCP'
tp232
F1
s(g106
S'NPP'
tp233
F15
s(g14
S'NAPP'
tp234
F2
s(g106
S'NVP'
tp235
F18
s(g88
S'AAPPNP'
tp236
F1
s(g19
S'APPPP'
tp237
F1
s(g79
S'VNP'
tp238
F19
s(g69
S'VANP'
tp239
F1
s(S'VP'
S'VDDP'
tp240
F3
s(g53
S'PPDDP'
tp241
F2
s(g81
S'AVCP'
tp242
F2
s(g192
S'APDDP'
tp243
F1
s(g115
S'PPADVNP'
tp244
F1
s(g42
S'APDP'
tp245
F2
s(g30
S'DPP'
tp246
F26
s(g106
S'ADVNVP'
tp247
F2
s.