ccollections
defaultdict
p1
(c__builtin__
float
p2
tRp3
(S'DP'
S'DAMMP'
tp4
F1
s(S'NP'
p5
S'AANDDP'
tp6
F1
s(S'CP'
S'CAAADPP'
tp7
F1
s(S'DP'
S'DDMP'
tp8
F2
s(S'DP'
S'ADDPP'
tp9
F3
s(S'NP'
p10
S'ADVNNMP'
tp11
F1
s(S'DP'
S'DDAP'
tp12
F3
s(S'VP'
S'ADVVVNP'
tp13
F3
s(S'CP'
p14
S'CCDDDDP'
tp15
F1
s(S'VP'
p16
S'VVVVP'
tp17
F2
s(S'AP'
S'AVVVP'
tp18
F1
s(S'PP'
p19
S'PAPP'
tp20
F14
s(S'DP'
S'DDPPPPP'
tp21
F2
s(S'DP'
p22
S'DNP'
tp23
F361
s(S'NP'
S'ADVNDP'
tp24
F2
s(S'PP'
S'AAPDDP'
tp25
F1
s(S'NP'
p26
S'ADVNPPP'
tp27
F1
s(S'CP'
S'CDPPP'
tp28
F93
s(S'VP'
S'VADP'
tp29
F11
s(S'DP'
S'DNNNNP'
tp30
F2
s(S'CP'
S'ACADVADVDP'
tp31
F1
s(S'CP'
S'CDAAPPP'
tp32
F1
s(S'DP'
S'DAAP'
tp33
F5
s(S'VP'
S'AAVPPP'
tp34
F1
s(S'PP'
S'PPPPPP'
tp35
F3
s(S'AP'
S'AADVADVADVDP'
tp36
F1
s(S'PP'
S'APPDP'
tp37
F3
s(S'CP'
p38
S'CADVADVDPPP'
tp39
F1
s(S'DP'
S'ADNNP'
tp40
F1
s(S'VP'
S'AVADVDP'
tp41
F1
s(S'VP'
S'VAAAAANP'
tp42
F1
s(S'PP'
S'PADVADVAAP'
tp43
F1
s(S'PP'
p44
S'APVP'
tp45
F13
s(S'MP'
S'MVDP'
tp46
F21
s(S'PP'
p47
S'PADVANP'
tp48
F2
s(S'PP'
p49
S'PPPP'
tp50
F54
s(S'AP'
S'ADVAPPP'
tp51
F1
s(S'DP'
S'DDDNP'
tp52
F4
s(S'VP'
S'VACP'
tp53
F11
s(S'DP'
p54
S'DADVVP'
tp55
F11
s(S'VP'
p56
S'ADVADVVDDP'
tp57
F1
s(S'PP'
S'PADVNNP'
tp58
F4
s(S'AP'
S'AADVPP'
tp59
F1
s(S'NP'
S'NADVACP'
tp60
F3
s(S'NP'
S'NDDDP'
tp61
F1
s(S'NP'
S'NADVVVP'
tp62
F2
s(S'CP'
S'CADVADVDDPP'
tp63
F1
s(S'VP'
S'VCP'
tp64
F144
s(S'NP'
S'NMMP'
tp65
F4
s(S'NP'
S'NANP'
tp66
F2
s(S'VP'
p67
S'ADVVAAP'
tp68
F1
s(S'NP'
S'NNADVAP'
tp69
F1
s(S'VP'
p70
S'VVVVDP'
tp71
F2
s(S'PP'
S'ADVPADP'
tp72
F1
s(S'PP'
p73
S'PAP'
tp74
F124
s(S'PP'
p75
S'PPANNP'
tp76
F1
s(S'MP'
S'MMVVP'
tp77
F2
s(S'VP'
S'VADVADVAP'
tp78
F4
s(S'PP'
p79
S'ADVPPVP'
tp80
F1
s(S'NP'
S'NNNAP'
tp81
F1
s(S'CP'
S'AAAACDP'
tp82
F1
s(S'NP'
S'ANPPP'
tp83
F5
s(S'VP'
S'ADVVCCP'
tp84
F3
s(S'PP'
p85
S'PPADVDP'
tp86
F1
s(S'VP'
S'AAVNNP'
tp87
F2
s(S'PP'
p88
S'PNP'
tp89
F390
s(S'AP'
p90
S'AADVADVDP'
tp91
F2
s(S'DP'
p92
S'DDP'
tp93
F55
s(S'PP'
p94
S'PPMMP'
tp95
F1
s(S'CP'
S'CADVADPPPP'
tp96
F1
s(S'NP'
p97
S'NNNPP'
tp98
F6
s(S'VP'
p99
S'VCCP'
tp100
F17
s(S'DP'
p101
S'DDAANP'
tp102
F3
s(S'DP'
p103
S'DADVDDP'
tp104
F1
s(S'DP'
S'DADVADVADVPP'
tp105
F2
s(S'MP'
S'MADVAADDP'
tp106
F1
s(S'VP'
S'ADVADVVVCP'
tp107
F1
s(S'NP'
p108
S'NMP'
tp109
F67
s(S'VP'
S'VVVADP'
tp110
F1
s(S'NP'
S'ADVNAPP'
tp111
F1
s(S'DP'
S'ADCP'
tp112
F1
s(S'PP'
S'PADVADVADVANP'
tp113
F1
s(S'VP'
S'AAVNP'
tp114
F2
s(g88
S'PDP'
tp115
F363
s(S'PP'
S'PADVNP'
tp116
F15
s(S'CP'
S'CDAAPP'
tp117
F3
s(S'NP'
p118
S'ADVNVVP'
tp119
F1
s(S'VP'
S'VNNNNP'
tp120
F1
s(S'NP'
S'ADVADVADVNDP'
tp121
F1
s(S'VP'
S'VVVDDP'
tp122
F1
s(S'MP'
S'MADVVNP'
tp123
F4
s(S'DP'
p124
S'DDADVADVPPP'
tp125
F1
s(S'DP'
p126
S'ADVADVDAPP'
tp127
F1
s(S'VP'
S'AVAAP'
tp128
F1
s(S'PP'
S'PPPAANP'
tp129
F2
s(S'MP'
S'MAVAP'
tp130
F1
s(S'NP'
S'NACCP'
tp131
F1
s(S'AP'
S'ANP'
tp132
F5
s(S'NP'
S'NADVADVADVVP'
tp133
F1
s(S'PP'
p134
S'PADVPP'
tp135
F1
s(S'MP'
S'MVADVANP'
tp136
F2
s(S'NP'
p137
S'NNADVCP'
tp138
F4
s(S'VP'
S'VVADVNP'
tp139
F1
s(S'MP'
S'MVACP'
tp140
F1
s(S'MP'
S'MMMVVP'
tp141
F1
s(S'PP'
p142
S'ADVADVAPVP'
tp143
F2
s(S'DP'
S'DPPPP'
tp144
F13
s(S'DP'
S'DDANP'
tp145
F1
s(S'PP'
S'PADVADP'
tp146
F1
s(S'NP'
p147
S'NACP'
tp148
F27
s(S'AP'
p149
S'ADVAVP'
tp150
F2
s(g97
S'NCCP'
tp151
F103
s(S'DP'
S'DADVADVVVP'
tp152
F1
s(S'AP'
S'AAAADP'
tp153
F2
s(S'NP'
S'NADVADVDDP'
tp154
F1
s(S'NP'
S'NNCP'
tp155
F90
s(g103
S'ADVDDPP'
tp156
F3
s(g26
S'NADVADVVP'
tp157
F1
s(S'DP'
S'DPPPPP'
tp158
F2
s(S'NP'
S'NNPPPP'
tp159
F1
s(S'DP'
S'DDDDP'
tp160
F2
s(S'VP'
S'ADVVADVNP'
tp161
F1
s(g99
S'AVNP'
tp162
F9
s(S'PP'
S'AAPPAP'
tp163
F1
s(S'NP'
p164
S'AANNCCCP'
tp165
F1
s(S'VP'
S'VVNNNP'
tp166
F2
s(S'NP'
S'ADVADVADVADVNPP'
tp167
F1
s(S'NP'
p168
S'AAANAAP'
tp169
F1
s(S'NP'
S'ADVNNDDDDP'
tp170
F1
s(S'PP'
S'ADVAPDP'
tp171
F2
s(S'VP'
S'VVMP'
tp172
F1
s(S'VP'
p173
S'VADVVP'
tp174
F2
s(S'VP'
S'VVAACP'
tp175
F1
s(S'VP'
S'ADVADVADVVNP'
tp176
F1
s(S'DP'
S'ADVDADVAAPP'
tp177
F1
s(S'MP'
S'MVPPP'
tp178
F1
s(S'NP'
S'ANADVVP'
tp179
F1
s(S'PP'
p180
S'ADVPAPP'
tp181
F1
s(S'AP'
S'AAAAP'
tp182
F1
s(S'AP'
S'AAADVADVVP'
tp183
F1
s(S'MP'
S'AMMVP'
tp184
F2
s(S'NP'
S'NCCCCP'
tp185
F4
s(S'CP'
S'CCCDP'
tp186
F9
s(S'VP'
S'AVNNP'
tp187
F4
s(S'PP'
S'ADVPPNNP'
tp188
F1
s(g88
S'APDP'
tp189
F31
s(S'PP'
S'PPPPADVADVDP'
tp190
F1
s(S'NP'
S'NAAPPP'
tp191
F1
s(S'NP'
S'AANNCCP'
tp192
F1
s(S'VP'
S'ADVVNNP'
tp193
F4
s(S'PP'
p194
S'PADVADVADVPP'
tp195
F1
s(S'AP'
S'AADVCP'
tp196
F2
s(S'DP'
S'AAADVVVVP'
tp197
F1
s(S'DP'
S'DDANNP'
tp198
F1
s(S'VP'
p199
S'VVANP'
tp200
F7
s(S'PP'
p201
S'ADVPNNP'
tp202
F1
s(S'VP'
S'ADVVVP'
tp203
F2
s(S'PP'
S'ADVADVADVPDP'
tp204
F1
s(S'NP'
S'NAAAACP'
tp205
F1
s(S'AP'
S'AANP'
tp206
F2
s(S'PP'
S'PCCP'
tp207
F1
s(S'DP'
S'ADVADNNP'
tp208
F1
s(S'NP'
S'ADVANCP'
tp209
F3
s(S'DP'
S'DNNP'
tp210
F92
s(S'CP'
S'CADVDDPP'
tp211
F2
s(S'DP'
S'ADVADVDDNP'
tp212
F1
s(S'CP'
S'CDDPPPP'
tp213
F2
s(S'CP'
S'CCADVDP'
tp214
F3
s(S'VP'
S'ADVADVADVVVDP'
tp215
F1
s(S'VP'
p216
S'AAVDDP'
tp217
F1
s(S'DP'
S'ADDNP'
tp218
F2
s(S'NP'
p219
S'NNNVP'
tp220
F12
s(S'PP'
S'PPAAPP'
tp221
F1
s(S'VP'
S'VADVNNP'
tp222
F1
s(S'PP'
S'PPNNNNP'
tp223
F2
s(S'PP'
S'PADVVP'
tp224
F13
s(S'DP'
S'DACP'
tp225
F1
s(S'DP'
S'DADVADVADVPPP'
tp226
F2
s(S'DP'
p227
S'DADVVVP'
tp228
F2
s(g88
S'APAP'
tp229
F7
s(S'AP'
p230
S'APP'
tp231
F56
s(S'NP'
S'NAPPP'
tp232
F1
s(S'NP'
S'NADVMP'
tp233
F1
s(S'AP'
S'AAP'
tp234
F13
s(S'CP'
S'CADVADPP'
tp235
F6
s(g219
S'ADVADVNDP'
tp236
F1
s(S'NP'
S'ADVADVNCCP'
tp237
F2
s(S'NP'
S'ADVANPP'
tp238
F4
s(S'MP'
S'MVVCP'
tp239
F2
s(S'VP'
p240
S'VADVADVNP'
tp241
F2
s(S'CP'
S'CDDDDPP'
tp242
F1
s(S'MP'
p243
S'MVVVNP'
tp244
F1
s(S'PP'
p245
S'PAANP'
tp246
F11
s(S'VP'
S'VADVADVCP'
tp247
F1
s(S'VP'
S'VVVANP'
tp248
F2
s(g88
S'PPVVP'
tp249
F10
s(g199
S'VVADVAAP'
tp250
F1
s(S'MP'
S'MVNP'
tp251
F32
s(S'MP'
S'AMVP'
tp252
F4
s(g44
S'PAAP'
tp253
F22
s(S'NP'
S'NNNNP'
tp254
F1
s(S'AP'
p255
S'ADVAADP'
tp256
F1
s(S'DP'
p257
S'ADVADNP'
tp258
F2
s(S'PP'
p259
S'PAVP'
tp260
F19
s(g14
S'CDADVADVAPP'
tp261
F1
s(S'MP'
S'ADVMVP'
tp262
F1
s(S'DP'
S'DDPPPPPP'
tp263
F1
s(S'AP'
S'AADVVVP'
tp264
F1
s(S'VP'
S'VVVPP'
tp265
F1
s(S'NP'
S'NMMMMP'
tp266
F1
s(S'MP'
p267
S'MADVVPP'
tp268
F2
s(S'DP'
S'DADP'
tp269
F4
s(S'AP'
S'ADVADP'
tp270
F1
s(S'CP'
S'ADVADVCDP'
tp271
F5
s(S'DP'
S'ADVDDP'
tp272
F1
s(S'PP'
p273
S'APDDP'
tp274
F3
s(S'VP'
p275
S'ADVADVVVNP'
tp276
F2
s(S'PP'
S'PPNNNP'
tp277
F1
s(S'DP'
S'DAAAVP'
tp278
F2
s(g180
S'PADVAPPP'
tp279
F1
s(S'PP'
S'PPCP'
tp280
F3
s(S'MP'
S'MVAADP'
tp281
F1
s(S'NP'
S'ADVNADVMP'
tp282
F1
s(g216
S'VVNP'
tp283
F50
s(S'NP'
S'ANNP'
tp284
F1
s(S'PP'
S'PPVP'
tp285
F54
s(S'VP'
p286
S'VADVDP'
tp287
F7
s(S'MP'
S'MVADVDP'
tp288
F1
s(S'VP'
S'VAAP'
tp289
F21
s(S'CP'
S'ADVCDDP'
tp290
F4
s(S'NP'
p291
S'ANDP'
tp292
F15
s(S'NP'
p293
S'NVVP'
tp294
F76
s(S'PP'
S'AAPVP'
tp295
F4
s(S'PP'
p296
S'PPADP'
tp297
F1
s(S'VP'
S'VMP'
tp298
F9
s(S'VP'
p299
S'VVNNP'
tp300
F10
s(g38
S'CDAPP'
tp301
F31
s(g70
S'VVAAP'
tp302
F1
s(S'MP'
S'MMPP'
tp303
F2
s(S'DP'
S'ADVADVP'
tp304
F1
s(S'DP'
S'ADNP'
tp305
F12
s(S'PP'
p306
S'PAPPP'
tp307
F1
s(S'AP'
S'AAAAADP'
tp308
F1
s(S'PP'
p309
S'PADP'
tp310
F23
s(S'NP'
S'NADVADVADVVVP'
tp311
F2
s(S'NP'
S'ANDDP'
tp312
F1
s(S'DP'
S'ADVADVADVP'
tp313
F1
s(S'DP'
S'ADVADVDVP'
tp314
F3
s(S'DP'
S'DADVAP'
tp315
F2
s(g134
S'ADVADVPMP'
tp316
F1
s(S'DP'
S'DDADVDP'
tp317
F1
s(S'PP'
S'PPVVVVP'
tp318
F1
s(S'DP'
p319
S'DAPP'
tp320
F47
s(S'NP'
S'NAAACP'
tp321
F1
s(S'VP'
S'VADVAAP'
tp322
F1
s(S'VP'
p323
S'ADVADVADVVDP'
tp324
F2
s(S'CP'
S'CADPPPP'
tp325
F1
s(S'VP'
S'ADVADVVDP'
tp326
F6
s(S'VP'
S'AVVNP'
tp327
F1
s(S'PP'
p328
S'PPPDP'
tp329
F4
s(S'DP'
S'DAAPPP'
tp330
F1
s(S'MP'
S'MVVVDP'
tp331
F1
s(S'PP'
S'AAAPDP'
tp332
F2
s(S'DP'
S'DDAAVP'
tp333
F1
s(S'MP'
S'MVVAP'
tp334
F2
s(S'NP'
S'NNNCCCP'
tp335
F1
s(S'DP'
S'DAAANP'
tp336
F2
s(S'DP'
S'DDADVADP'
tp337
F1
s(g126
S'DADVANP'
tp338
F1
s(S'NP'
S'ANADVVVP'
tp339
F3
s(S'DP'
S'ADVDNP'
tp340
F8
s(S'VP'
p341
S'VVPP'
tp342
F42
s(g16
S'VADVAPP'
tp343
F1
s(S'DP'
S'ADADVPP'
tp344
F1
s(S'CP'
S'AACDDP'
tp345
F2
s(S'MP'
S'MVPP'
tp346
F11
s(S'DP'
S'ADVP'
tp347
F16
s(S'CP'
S'CDDPPP'
tp348
F13
s(S'PP'
S'PPPAP'
tp349
F2
s(g291
S'NNPP'
tp350
F53
s(S'CP'
p351
S'CCCADVDP'
tp352
F1
s(S'DP'
S'DDDDNP'
tp353
F1
s(S'MP'
S'MVVDP'
tp354
F2
s(g90
S'AACP'
tp355
F9
s(g147
S'ANVP'
tp356
F31
s(S'VP'
S'AAVADVADVADVNP'
tp357
F1
s(g319
S'DNNNP'
tp358
F11
s(S'DP'
p359
S'ADVDDVP'
tp360
F2
s(S'PP'
S'PADVADVVP'
tp361
F5
s(S'VP'
S'VADVDDP'
tp362
F1
s(S'PP'
S'PMMP'
tp363
F3
s(S'PP'
S'PVVVP'
tp364
F5
s(S'PP'
p365
S'PMP'
tp366
F18
s(S'CP'
p367
S'CCDP'
tp368
F126
s(g10
S'ADVNNDP'
tp369
F1
s(S'DP'
p370
S'ADVADVADVDPP'
tp371
F2
s(S'VP'
p372
S'VADVANP'
tp373
F5
s(S'NP'
S'NADVADVADVAP'
tp374
F1
s(g92
S'AADDPP'
tp375
F2
s(S'NP'
S'NVVVP'
tp376
F10
s(S'CP'
S'CDDDPP'
tp377
F10
s(S'PP'
S'PADVADVADVADVNP'
tp378
F1
s(S'CP'
p379
S'CDADVADVPP'
tp380
F6
s(S'VP'
p381
S'VVVDP'
tp382
F11
s(S'PP'
S'PDDDDP'
tp383
F1
s(g88
S'PNNNP'
tp384
F17
s(S'MP'
S'MVVVAP'
tp385
F1
s(S'CP'
S'CCCCDP'
tp386
F3
s(S'VP'
S'VAAPPP'
tp387
F1
s(S'VP'
S'ADVVVMP'
tp388
F1
s(S'AP'
p389
S'AACCP'
tp390
F4
s(g75
S'AAPNP'
tp391
F4
s(g88
S'PPP'
tp392
F182
s(S'NP'
p393
S'NNVVP'
tp394
F11
s(g108
S'NAVP'
tp395
F24
s(g73
S'PADVAP'
tp396
F4
s(g126
S'DDNNNP'
tp397
F1
s(S'VP'
S'VVVVCCP'
tp398
F1
s(S'PP'
S'PADDP'
tp399
F2
s(S'PP'
S'APVVVP'
tp400
F1
s(g164
S'ANADVCCP'
tp401
F1
s(S'DP'
S'ADVDVP'
tp402
F7
s(S'PP'
S'PPADVADVNP'
tp403
F1
s(S'DP'
S'ADVADVDDP'
tp404
F1
s(S'NP'
S'NCCCP'
tp405
F8
s(S'DP'
S'DADVADVPPP'
tp406
F1
s(S'AP'
S'AADVVP'
tp407
F2
s(S'PP'
S'PPPPDP'
tp408
F1
s(S'DP'
S'DAAAP'
tp409
F1
s(S'DP'
p410
S'ADVADVDNP'
tp411
F2
s(S'VP'
S'VAAAAP'
tp412
F1
s(g199
S'VPP'
tp413
F186
s(S'CP'
S'ADVCCDP'
tp414
F5
s(S'CP'
S'ACCDP'
tp415
F1
s(S'DP'
S'ADVDDNP'
tp416
F2
s(S'NP'
S'AANPPP'
tp417
F1
s(S'NP'
p418
S'NNNCP'
tp419
F11
s(S'PP'
S'PADVDP'
tp420
F8
s(S'CP'
S'CDADVAPP'
tp421
F2
s(S'CP'
p422
S'CDDDPPP'
tp423
F1
s(S'PP'
p424
S'ADVPPPDP'
tp425
F1
s(S'DP'
S'DANNP'
tp426
F3
s(g38
S'CDDPP'
tp427
F87
s(g410
S'DAAPP'
tp428
F9
s(g309
S'PVVP'
tp429
F53
s(S'CP'
p430
S'CADPPP'
tp431
F5
s(g101
S'DADVPPP'
tp432
F2
s(S'VP'
S'ADVVCP'
tp433
F5
s(g240
S'VPPP'
tp434
F24
s(S'VP'
S'AVCCP'
tp435
F1
s(S'PP'
p436
S'PPADVADVDP'
tp437
F2
s(S'DP'
S'ADADVVVP'
tp438
F1
s(S'VP'
p439
S'VVPPP'
tp440
F3
s(g309
S'PPAP'
tp441
F24
s(S'DP'
p442
S'DVVP'
tp443
F44
s(g424
S'PPADVADVADVVP'
tp444
F1
s(g422
S'CDDAAPP'
tp445
F1
s(S'NP'
S'ANMP'
tp446
F2
s(S'AP'
S'APPP'
tp447
F4
s(S'PP'
p448
S'ADVPPP'
tp449
F3
s(S'NP'
S'ADVADVNVP'
tp450
F4
s(g341
S'VVVP'
tp451
F16
s(S'NP'
S'ADVNNCCP'
tp452
F1
s(S'CP'
S'CADVDPP'
tp453
F32
s(S'VP'
S'AVMP'
tp454
F1
s(S'NP'
p455
S'ANCP'
tp456
F52
s(S'DP'
S'DCP'
tp457
F10
s(S'DP'
S'DVVVP'
tp458
F3
s(S'NP'
S'AAANCP'
tp459
F2
s(S'VP'
S'ADVVVVP'
tp460
F2
s(S'DP'
S'DADVCP'
tp461
F1
s(S'NP'
S'NVVVVP'
tp462
F1
s(g442
S'DDDP'
tp463
F17
s(S'AP'
S'ADDDDP'
tp464
F1
s(S'DP'
S'DDADVPP'
tp465
F1
s(S'NP'
S'ANVVP'
tp466
F8
s(S'VP'
S'VVDP'
tp467
F75
s(g393
S'NPPP'
tp468
F37
s(S'PP'
S'ADVADVPPDDP'
tp469
F1
s(S'MP'
S'AMVVP'
tp470
F1
s(S'DP'
S'DAVP'
tp471
F15
s(g455
S'NNNMP'
tp472
F4
s(S'AP'
S'ACP'
tp473
F66
s(g424
S'AAPAP'
tp474
F1
s(S'PP'
S'PADVADVNNP'
tp475
F1
s(g88
S'PPNP'
tp476
F81
s(S'PP'
S'APPPP'
tp477
F4
s(S'DP'
S'AADVP'
tp478
F3
s(S'CP'
S'CADAPPP'
tp479
F1
s(g351
S'CDDADVPP'
tp480
F1
s(S'CP'
S'CCCDDP'
tp481
F2
s(g255
S'ADP'
tp482
F232
s(S'CP'
S'CCCDDDP'
tp483
F1
s(S'PP'
S'APMP'
tp484
F1
s(S'DP'
S'DDPPPP'
tp485
F5
s(S'DP'
p486
S'ADVDAAPP'
tp487
F2
s(S'AP'
p488
S'ADVAADDP'
tp489
F1
s(S'PP'
p490
S'PPPAVP'
tp491
F1
s(S'DP'
p492
S'DVVVVP'
tp493
F2
s(S'NP'
S'NADVADVAP'
tp494
F2
s(S'VP'
S'AAAVDP'
tp495
F1
s(g381
S'ADVADVVNNP'
tp496
F2
s(S'AP'
S'AAADP'
tp497
F6
s(S'NP'
S'ANNVP'
tp498
F2
s(S'VP'
p499
S'VVAP'
tp500
F16
s(S'NP'
S'ANNDP'
tp501
F1
s(S'CP'
S'ADVACDP'
tp502
F3
s(S'VP'
S'AAVCP'
tp503
F1
s(S'NP'
p504
S'NADVAPP'
tp505
F1
s(S'VP'
p506
S'ADVADVVAP'
tp507
F1
s(g455
S'NVP'
tp508
F328
s(S'PP'
S'PPVVVP'
tp509
F2
s(g201
S'PAAVP'
tp510
F7
s(S'PP'
S'AAPPNP'
tp511
F1
s(S'NP'
S'NAAPP'
tp512
F1
s(g299
S'VDDP'
tp513
F43
s(S'NP'
S'ADVADVNACP'
tp514
F1
s(S'PP'
S'ADVADVADVADVPNP'
tp515
F1
s(S'VP'
S'VVADVADVNP'
tp516
F1
s(g149
S'AAADVDP'
tp517
F1
s(S'DP'
S'DMP'
tp518
F7
s(S'DP'
S'DADVAPP'
tp519
F4
s(S'PP'
S'AAPNNNP'
tp520
F1
s(S'NP'
S'AAAAANCCP'
tp521
F1
s(S'AP'
S'AAADVDDP'
tp522
F1
s(S'NP'
S'NADVADVVVP'
tp523
F3
s(g97
S'ANPP'
tp524
F44
s(S'PP'
p525
S'ADVPPDP'
tp526
F1
s(g328
S'PPPPP'
tp527
F10
s(S'MP'
S'MPDP'
tp528
F4
s(S'PP'
S'ADVADVPDP'
tp529
F1
s(S'MP'
S'MVVPP'
tp530
F4
s(S'DP'
p531
S'ADVDPP'
tp532
F42
s(S'VP'
S'VVAAPP'
tp533
F1
s(g418
S'ADVADVNPP'
tp534
F2
s(S'NP'
S'ADVADVAAANNVP'
tp535
F1
s(S'NP'
S'NPPPP'
tp536
F2
s(S'DP'
p537
S'ADDP'
tp538
F5
s(g490
S'PPPPPPP'
tp539
F1
s(S'CP'
S'CAADPP'
tp540
F8
s(S'DP'
S'DADVADVVP'
tp541
F1
s(g504
S'NAACP'
tp542
F6
s(g365
S'PNNP'
tp543
F84
s(S'CP'
S'CDADVADVADVPPP'
tp544
F2
s(g328
S'APNNP'
tp545
F3
s(S'DP'
S'DDDADVADVPPP'
tp546
F1
s(S'DP'
S'DDAAP'
tp547
F1
s(g103
S'AAADPP'
tp548
F1
s(S'VP'
S'AVAP'
tp549
F2
s(S'MP'
S'MMVP'
tp550
F5
s(S'PP'
S'PADVDDP'
tp551
F2
s(S'AP'
p552
S'AAPPPP'
tp553
F1
s(S'NP'
S'ADVNCP'
tp554
F5
s(g492
S'DDADVADVPP'
tp555
F1
s(g537
S'ADPP'
tp556
F65
s(S'MP'
S'MPDDP'
tp557
F1
s(g506
S'VAPPP'
tp558
F1
s(S'CP'
p559
S'ACDP'
tp560
F43
s(S'NP'
S'NNDP'
tp561
F18
s(S'AP'
S'ADVANP'
tp562
F1
s(S'CP'
S'CCCCDDP'
tp563
F1
s(S'NP'
S'NNACP'
tp564
F6
s(S'PP'
S'ADVAAPVP'
tp565
F1
s(S'PP'
S'ADVADVADVPPNP'
tp566
F1
s(g216
S'VAP'
tp567
F151
s(S'VP'
S'VVVVNP'
tp568
F2
s(S'DP'
p569
S'DDDPP'
tp570
F14
s(S'PP'
S'ADVADVADVADVPPNP'
tp571
F1
s(S'NP'
S'AANNCP'
tp572
F4
s(S'NP'
S'ANADVCP'
tp573
F1
s(g525
S'PAAPP'
tp574
F2
s(S'NP'
S'ADVADVADVANVP'
tp575
F1
s(S'AP'
S'ADVAAPP'
tp576
F1
s(S'DP'
S'ADVADPPPP'
tp577
F1
s(S'AP'
S'AAVVP'
tp578
F1
s(S'MP'
S'MAVPP'
tp579
F1
s(S'VP'
S'ADVADVVVAP'
tp580
F1
s(S'DP'
S'DDDPPP'
tp581
F5
s(S'DP'
S'ADAP'
tp582
F2
s(S'MP'
S'MVVCCP'
tp583
F2
s(g389
S'AAACP'
tp584
F2
s(S'NP'
p585
S'NAAP'
tp586
F9
s(S'MP'
S'MMAAAAP'
tp587
F1
s(g94
S'PPPVP'
tp588
F2
s(S'AP'
S'AADDP'
tp589
F6
s(g118
S'NNNNNAP'
tp590
F1
s(S'VP'
S'VAANP'
tp591
F4
s(g168
S'NADVADVCP'
tp592
F4
s(S'DP'
S'ADVADVADVDVP'
tp593
F1
s(g180
S'ADVAPPADVVP'
tp594
F1
s(S'PP'
p595
S'PAAAAP'
tp596
F1
s(S'MP'
S'MPNP'
tp597
F1
s(S'VP'
S'VVAADP'
tp598
F1
s(S'MP'
S'MADP'
tp599
F3
s(S'PP'
S'PPPDDP'
tp600
F1
s(S'CP'
S'CCAADP'
tp601
F4
s(S'DP'
S'DDADVNP'
tp602
F1
s(g19
S'PANP'
tp603
F60
s(S'PP'
S'PDDDP'
tp604
F2
s(S'NP'
S'ANNMP'
tp605
F1
s(S'NP'
S'AANMP'
tp606
F4
s(S'AP'
S'AAVP'
tp607
F12
s(g488
S'AVVP'
tp608
F7
s(S'NP'
p609
S'NDDP'
tp610
F19
s(S'VP'
S'VADVCP'
tp611
F4
s(g552
S'ACCP'
tp612
F8
s(g124
S'DAAVP'
tp613
F2
s(S'NP'
S'ADVADVANCP'
tp614
F2
s(S'VP'
S'AVPPP'
tp615
F3
s(S'AP'
S'APPPP'
tp616
F1
s(g97
S'NDP'
tp617
F126
s(S'NP'
S'AAANVP'
tp618
F9
s(S'MP'
S'MVAAP'
tp619
F3
s(g531
S'DDVP'
tp620
F51
s(S'DP'
S'ADVDACP'
tp621
F1
s(S'NP'
S'ANNNP'
tp622
F1
s(S'NP'
S'AANVP'
tp623
F15
s(S'NP'
S'ADVNCCP'
tp624
F1
s(g173
S'ADVVVNNP'
tp625
F1
s(S'DP'
p626
S'DADVADVAPP'
tp627
F1
s(S'VP'
S'VNNNP'
tp628
F3
s(S'PP'
S'ADVPAP'
tp629
F2
s(S'PP'
S'PPPPVVP'
tp630
F1
s(S'NP'
S'NNNNVVP'
tp631
F1
s(g245
S'APPNP'
tp632
F2
s(S'VP'
S'VADVADP'
tp633
F2
s(g296
S'PAADP'
tp634
F2
s(S'NP'
S'ADVNNVP'
tp635
F2
s(g267
S'MDNP'
tp636
F1
s(g70
S'VPPPP'
tp637
F2
s(S'PP'
S'PPAANNP'
tp638
F1
s(S'NP'
S'NNNDP'
tp639
F1
s(S'AP'
S'ADVACP'
tp640
F4
s(S'NP'
S'AANVVVP'
tp641
F1
s(S'VP'
S'VVVAP'
tp642
F2
s(S'CP'
S'ADVADVCADVDP'
tp643
F1
s(g97
S'NNVP'
tp644
F67
s(S'MP'
S'MVCP'
tp645
F8
s(S'PP'
S'PPAAANP'
tp646
F2
s(g367
S'CCDDP'
tp647
F34
s(S'NP'
S'NNADVVP'
tp648
F9
s(S'PP'
S'PPADVADVVP'
tp649
F1
s(S'PP'
p650
S'PPAAP'
tp651
F2
s(S'NP'
S'NNNNVP'
tp652
F4
s(g199
S'VVCP'
tp653
F25
s(S'NP'
S'NADVADVADVADVPP'
tp654
F1
s(S'CP'
S'CAADADVPPP'
tp655
F1
s(S'NP'
S'AANCP'
tp656
F7
s(S'VP'
S'VADVNP'
tp657
F4
s(S'VP'
S'VVDDDP'
tp658
F1
s(S'VP'
S'VVVVVNP'
tp659
F1
s(g79
S'PADVPPP'
tp660
F1
s(S'NP'
S'NNDDP'
tp661
F1
s(g626
S'DDDDPPP'
tp662
F1
s(S'VP'
S'ADVVPP'
tp663
F7
s(S'AP'
S'AAAADDP'
tp664
F1
s(S'CP'
S'CDAPPP'
tp665
F3
s(S'VP'
S'VNNP'
tp666
F45
s(S'AP'
S'AADVDP'
tp667
F3
s(S'AP'
S'AAAMP'
tp668
F1
s(g10
S'NADP'
tp669
F5
s(g422
S'ADVCCDDP'
tp670
F1
s(g537
S'DDNP'
tp671
F64
s(S'NP'
S'NADVCP'
tp672
F9
s(S'DP'
S'DDNNP'
tp673
F10
s(g448
S'PADVADVVVP'
tp674
F1
s(S'NP'
S'ADVANVP'
tp675
F1
s(S'NP'
S'NNADVADVADVPP'
tp676
F1
s(g291
S'ADVADVNCP'
tp677
F2
s(g54
S'AADPP'
tp678
F14
s(S'NP'
p679
S'ADVNAACP'
tp680
F1
s(S'PP'
S'ADVADVPPDP'
tp681
F1
s(S'PP'
S'PPPPADVADVVVP'
tp682
F1
s(S'MP'
S'MMAPP'
tp683
F1
s(S'AP'
S'AADVADVVP'
tp684
F1
s(S'CP'
S'CDPPPPP'
tp685
F1
s(S'NP'
S'ANVVVP'
tp686
F1
s(S'MP'
S'MADVVDP'
tp687
F1
s(S'MP'
S'MVVNP'
tp688
F1
s(S'CP'
S'CDDADVPPP'
tp689
F1
s(S'CP'
S'ACDDP'
tp690
F8
s(S'NP'
S'ADVADVNNCP'
tp691
F1
s(S'AP'
S'AAPP'
tp692
F8
s(S'VP'
S'VVCCP'
tp693
F7
s(S'DP'
p694
S'DMMP'
tp695
F2
s(g379
S'ADVCAADP'
tp696
F2
s(S'PP'
S'PCP'
tp697
F11
s(S'VP'
p698
S'ADVVNP'
tp699
F24
s(g370
S'DADVADVNP'
tp700
F1
s(S'NP'
S'NNPPP'
tp701
F6
s(S'AP'
S'ADVANNP'
tp702
F1
s(g499
S'VVVCCP'
tp703
F2
s(S'NP'
S'NAPP'
tp704
F20
s(g306
S'APPVP'
tp705
F2
s(S'AP'
S'ADVADVADP'
tp706
F1
s(S'NP'
S'NADVDP'
tp707
F2
s(S'VP'
S'VVVCP'
tp708
F3
s(S'NP'
S'NAAAANP'
tp709
F1
s(S'NP'
p710
S'ANCCP'
tp711
F11
s(g504
S'AANPP'
tp712
F4
s(S'VP'
S'VDDDP'
tp713
F5
s(S'NP'
S'NNMP'
tp714
F10
s(S'VP'
S'AAVPP'
tp715
F1
s(S'CP'
S'CADDPP'
tp716
F3
s(g650
S'PAAAP'
tp717
F2
s(g47
S'ADVADVPNP'
tp718
F1
s(S'NP'
p719
S'AAAANCP'
tp720
F3
s(g679
S'NADVADVADP'
tp721
F1
s(S'CP'
S'CDDAPP'
tp722
F1
s(g108
S'ANAP'
tp723
F4
s(S'DP'
S'AADADVPPP'
tp724
F1
s(S'MP'
S'MVAP'
tp725
F4
s(S'VP'
S'VADVADVDDP'
tp726
F1
s(g88
S'PVP'
tp727
F289
s(S'MP'
S'MVDDDP'
tp728
F1
s(S'AP'
S'ADVADVAPP'
tp729
F1
s(S'CP'
S'CDDDADVADVPPP'
tp730
F1
s(g710
S'ANNCP'
tp731
F4
s(g85
S'PPADVPP'
tp732
F1
s(S'VP'
S'VAVP'
tp733
F1
s(g67
S'ADVADVADVVADVPPPP'
tp734
F1
s(S'MP'
S'MMMMVP'
tp735
F1
s(S'VP'
S'AAAVPP'
tp736
F1
s(S'NP'
S'NNADVADVPPP'
tp737
F2
s(g73
S'PPDDP'
tp738
F9
s(S'VP'
S'AVCP'
tp739
F7
s(S'DP'
S'DDVVVP'
tp740
F1
s(g22
S'DPP'
tp741
F503
s(S'NP'
S'ADVNVP'
tp742
F8
s(S'CP'
S'CDADVADVADVPP'
tp743
F1
s(g319
S'DDPP'
tp744
F145
s(S'DP'
S'DDADVPPP'
tp745
F1
s(S'DP'
S'DDAVP'
tp746
F1
s(g537
S'DANP'
tp747
F62
s(S'AP'
S'ADVAMP'
tp748
F1
s(S'NP'
S'NADVPP'
tp749
F4
s(S'PP'
S'ADVADVPPNP'
tp750
F3
s(S'NP'
S'NADVADP'
tp751
F1
s(S'NP'
S'AANADVVP'
tp752
F1
s(g147
S'NAAVP'
tp753
F2
s(S'PP'
S'ADVPADVAP'
tp754
F1
s(g319
S'AADNP'
tp755
F3
s(S'CP'
S'CADVADVADVDPP'
tp756
F2
s(g319
S'ADVADVDPPP'
tp757
F1
s(S'NP'
S'NNNNCP'
tp758
F4
s(g585
S'NADVCCP'
tp759
F5
s(S'PP'
S'AAPPVVP'
tp760
F1
s(S'MP'
S'MNNVVVP'
tp761
F1
s(g455
S'NNNVVP'
tp762
F1
s(S'NP'
S'NNVVVVVP'
tp763
F1
s(S'NP'
S'ADVANCCP'
tp764
F1
s(S'DP'
S'DCCP'
tp765
F1
s(S'PP'
p766
S'ADVADVPPP'
tp767
F3
s(g5
S'NNAANP'
tp768
F1
s(S'PP'
S'AAPDP'
tp769
F4
s(S'DP'
S'ADVADPP'
tp770
F8
s(S'DP'
S'DDADVVP'
tp771
F3
s(g73
S'PDDP'
tp772
F51
s(S'MP'
S'MVDDP'
tp773
F2
s(g259
S'ADVAPNP'
tp774
F2
s(S'NP'
S'NNNADVVP'
tp775
F1
s(g486
S'ADPPP'
tp776
F6
s(S'NP'
S'AANCCCP'
tp777
F1
s(S'AP'
S'AADVADVCP'
tp778
F1
s(S'MP'
S'MVVVNNP'
tp779
F1
s(S'AP'
S'ADVADVACP'
tp780
F3
s(g286
S'AVDP'
tp781
F32
s(g275
S'VVDDP'
tp782
F13
s(S'DP'
S'DAANP'
tp783
F10
s(S'NP'
S'NNNPPP'
tp784
F1
s(g230
S'ADDP'
tp785
F41
s(S'AP'
p786
S'ADVAPP'
tp787
F4
s(g259
S'ADVPPNP'
tp788
F5
s(g323
S'VADVADVADVVP'
tp789
F1
s(S'MP'
S'MDAP'
tp790
F1
s(S'CP'
S'CADVADVDPP'
tp791
F7
s(g319
S'DPPP'
tp792
F138
s(S'DP'
S'DADVADVADVNNP'
tp793
F1
s(S'DP'
S'AADPPP'
tp794
F1
s(g372
S'VANNP'
tp795
F1
s(S'AP'
S'AAAP'
tp796
F2
s(S'NP'
S'NNAVP'
tp797
F3
s(g168
S'NMMMP'
tp798
F2
s(S'PP'
S'PPPANP'
tp799
F1
s(S'DP'
S'DDADVADVNP'
tp800
F1
s(S'NP'
S'NNNADVAVP'
tp801
F1
s(S'PP'
S'ADVPNP'
tp802
F6
s(g49
S'PPDP'
tp803
F59
s(S'MP'
S'MAVDP'
tp804
F1
s(g194
S'ADVADVADVPVP'
tp805
F1
s(S'NP'
p806
S'AAANNPPP'
tp807
F1
s(S'MP'
S'MAAADP'
tp808
F1
s(S'PP'
S'PACP'
tp809
F1
s(S'DP'
S'DDCP'
tp810
F1
s(S'NP'
S'ANADVADVVP'
tp811
F1
s(S'PP'
S'PAANNP'
tp812
F3
s(S'PP'
S'PPADVDDP'
tp813
F1
s(S'AP'
S'AAAPP'
tp814
F3
s(S'AP'
S'ADVADVAADP'
tp815
F1
s(S'NP'
S'NAP'
tp816
F71
s(S'NP'
S'NNAAP'
tp817
F1
s(S'VP'
S'VAAAP'
tp818
F2
s(g137
S'NAAAPP'
tp819
F2
s(S'VP'
S'ADVAVNP'
tp820
F1
s(S'VP'
S'VVP'
tp821
F41
s(S'DP'
S'DDAPP'
tp822
F4
s(S'PP'
S'ADVADVPVP'
tp823
F3
s(S'PP'
S'PADVADVANP'
tp824
F1
s(g245
S'APNP'
tp825
F28
s(S'VP'
S'VVVNNP'
tp826
F4
s(S'DP'
S'DDVVP'
tp827
F10
s(S'VP'
S'VVVNP'
tp828
F6
s(S'NP'
S'NAMP'
tp829
F5
s(S'NP'
S'AANVVP'
tp830
F1
s(S'DP'
S'ADVADVDDPP'
tp831
F2
s(S'MP'
S'MVNNP'
tp832
F2
s(S'CP'
S'CDPP'
tp833
F433
s(S'PP'
S'ADVADVADVPMP'
tp834
F1
s(S'CP'
S'AAACDP'
tp835
F1
s(S'AP'
S'ADDDP'
tp836
F1
s(S'CP'
p837
S'ADVCADP'
tp838
F3
s(S'MP'
S'MMMVP'
tp839
F1
s(S'CP'
S'ADVCDP'
tp840
F13
s(g436
S'AAPVVP'
tp841
F1
s(S'VP'
S'ADVADVVNP'
tp842
F2
s(S'PP'
S'PADVADVDP'
tp843
F1
s(S'VP'
S'ADVADVVCP'
tp844
F2
s(S'VP'
S'VADVADVDP'
tp845
F1
s(S'PP'
S'PPNNP'
tp846
F16
s(g595
S'ADVAPPP'
tp847
F1
s(g766
S'PADVCP'
tp848
F2
s(S'PP'
S'PPMP'
tp849
F3
s(S'CP'
S'CAADDPP'
tp850
F2
s(S'DP'
S'ADVADVDPP'
tp851
F8
s(g199
S'VDP'
tp852
F322
s(S'PP'
S'PPPADVNP'
tp853
F1
s(S'VP'
S'AVDDP'
tp854
F3
s(S'DP'
S'DADVNP'
tp855
F3
s(g531
S'DAP'
tp856
F50
s(g559
S'CADPP'
tp857
F42
s(S'PP'
S'PPAVP'
tp858
F1
s(S'DP'
S'ADAPPP'
tp859
F1
s(S'DP'
S'DADVADVADVADVPPP'
tp860
F1
s(S'VP'
S'AVPP'
tp861
F10
s(S'PP'
S'APNNNP'
tp862
F1
s(g499
S'VVADVDP'
tp863
F1
s(S'CP'
S'ADVCADVDP'
tp864
F1
s(S'PP'
S'PAVVP'
tp865
F1
s(S'CP'
S'CDPPPP'
tp866
F8
s(S'VP'
S'AAVDP'
tp867
F5
s(S'PP'
S'PANNP'
tp868
F4
s(S'CP'
S'CADVADVDPPPPP'
tp869
F1
s(S'PP'
S'ADVADVADVPPNNP'
tp870
F1
s(S'PP'
S'APPP'
tp871
F9
s(S'DP'
S'ADPPPP'
tp872
F1
s(g257
S'DAPPP'
tp873
F5
s(g54
S'DADVADVPP'
tp874
F8
s(S'NP'
S'NNNNDP'
tp875
F1
s(S'CP'
S'CCADP'
tp876
F8
s(g273
S'PPPNP'
tp877
F14
s(g108
S'NPP'
tp878
F313
s(S'PP'
S'APADVPP'
tp879
F1
s(S'PP'
S'PPAANP'
tp880
F2
s(S'NP'
S'AAANPP'
tp881
F3
s(g142
S'PADVADVAPP'
tp882
F1
s(g85
S'PADVADVNP'
tp883
F6
s(g430
S'CADVDAAPP'
tp884
F1
s(S'AP'
S'AADP'
tp885
F41
s(S'AP'
S'AAAAVP'
tp886
F1
s(S'PP'
S'PPAAVP'
tp887
F2
s(S'NP'
S'NNADVVVP'
tp888
F1
s(S'NP'
S'NADVANP'
tp889
F1
s(g698
S'VADVPP'
tp890
F2
s(S'DP'
S'DDAAPP'
tp891
F1
s(S'NP'
S'ANAMMP'
tp892
F1
s(S'PP'
S'ADVPVP'
tp893
F5
s(S'DP'
S'DDDDPP'
tp894
F2
s(S'DP'
S'ADMP'
tp895
F1
s(S'NP'
p896
S'NNVVVP'
tp897
F3
s(g299
S'ADVVANP'
tp898
F3
s(g766
S'ADVPDP'
tp899
F7
s(S'NP'
S'ANNPP'
tp900
F5
s(S'MP'
S'MAVNNP'
tp901
F1
s(S'MP'
S'MVADVAP'
tp902
F1
s(g293
S'NCP'
tp903
F333
s(S'MP'
S'MVADVADVVP'
tp904
F1
s(S'VP'
S'ADVADVVVPP'
tp905
F1
s(S'CP'
S'CADVDPPP'
tp906
F4
s(g56
S'ADVVVPP'
tp907
F5
s(g359
S'ADVVP'
tp908
F1
s(S'CP'
S'CDDADVADVPP'
tp909
F1
s(g199
S'VAADP'
tp910
F2
s(S'PP'
S'PPAAAP'
tp911
F1
s(g85
S'ADVPDDP'
tp912
F1
s(g806
S'AAANCCCP'
tp913
F1
s(S'NP'
S'AANDP'
tp914
F2
s(S'DP'
S'DADVNNP'
tp915
F3
s(S'NP'
S'NNCCP'
tp916
F14
s(S'MP'
S'MNVP'
tp917
F2
s(g694
S'ADVADVDPPPPP'
tp918
F1
s(S'PP'
S'PADVADVAP'
tp919
F1
s(g199
S'VAPP'
tp920
F8
s(S'VP'
S'ADVVDP'
tp921
F11
s(g569
S'DADVPP'
tp922
F17
s(g389
S'AMP'
tp923
F1
s(S'MP'
S'ADVMNP'
tp924
F1
s(S'NP'
S'ADVNNCP'
tp925
F2
s(S'DP'
S'ADVDAP'
tp926
F2
s(S'PP'
S'ADVADVADVPNP'
tp927
F1
s(g609
S'AANMMP'
tp928
F1
s(S'VP'
S'ADVVADVADP'
tp929
F1
s(S'AP'
S'ADVAADVADVVP'
tp930
F2
s(S'NP'
p931
S'ADVANADVADVPPP'
tp932
F1
s(S'AP'
S'ADVADVANP'
tp933
F1
s(S'CP'
S'AACDP'
tp934
F6
s(g719
S'NNNCCP'
tp935
F3
s(S'CP'
S'CCDDDP'
tp936
F3
s(g227
S'ADVDPPP'
tp937
F4
s(g319
S'DVP'
tp938
F266
s(S'VP'
S'ADVVAP'
tp939
F5
s(S'NP'
S'ADVNPP'
tp940
F3
s(g439
S'ADVADVADVVVNP'
tp941
F1
s(g837
S'CDADVADVADVADVPPP'
tp942
F1
s(S'NP'
S'NNCCCP'
tp943
F1
s(g786
S'AVP'
tp944
F38
s(g97
S'NADVVP'
tp945
F11
s(g896
S'NNADVADVVP'
tp946
F1
s(S'VP'
S'AAAVDDP'
tp947
F1
s(g101
S'DDPPP'
tp948
F19
s(g124
S'DDDAAANNP'
tp949
F1
s(g931
S'ADVNMP'
tp950
F3
s(S'NP'
S'NNAP'
tp951
F7
s(g243
S'MADVVCP'
tp952
F1
s(S'PP'
S'PPANP'
tp953
F3
s(S'MP'
S'MCDDP'
tp954
F1
s(S'CP'
S'CDADVPP'
tp955
F10
s(g199
S'VNP'
tp956
F262
s(S'VP'
S'ADVADVADVADVVVDP'
tp957
F1
s(g286
S'VANP'
tp958
F32
s(S'VP'
S'VADVAP'
tp959
F8
s(S'PP'
S'PPADVNP'
tp960
F2
s(g410
S'DDDDVP'
tp961
F1
s(S'VP'
S'ADVADVVVDP'
tp962
F1
s(S'NP'
S'NADVPPP'
tp963
F3
s.