ccollections
defaultdict
p1
(c__builtin__
float
p2
tRp3
(S'NP'
S'NNNAAVP'
tp4
F1
s(S'MP'
S'MMDP'
tp5
F1
s(S'CP'
S'CAAADPP'
tp6
F1
s(S'PP'
S'PAAANP'
tp7
F2
s(S'DP'
S'ADDPP'
tp8
F5
s(S'DP'
S'DDAP'
tp9
F4
s(S'VP'
S'ADVVVNP'
tp10
F4
s(S'VP'
p11
S'VVVVP'
tp12
F3
s(S'DP'
S'DAANNP'
tp13
F2
s(S'AP'
S'AVVVP'
tp14
F1
s(S'PP'
S'ADVADVPAP'
tp15
F1
s(S'PP'
p16
S'PAPP'
tp17
F14
s(S'PP'
S'PADVNP'
tp18
F36
s(S'DP'
p19
S'DNP'
tp20
F577
s(S'VP'
S'VVADVCP'
tp21
F1
s(S'PP'
S'AAPDDP'
tp22
F3
s(S'CP'
p23
S'CDPPP'
tp24
F103
s(S'DP'
S'ADPPP'
tp25
F12
s(S'VP'
S'VADP'
tp26
F25
s(S'DP'
S'DNNNNP'
tp27
F5
s(S'MP'
S'MNADVADVVVP'
tp28
F1
s(S'CP'
S'CDAAPPP'
tp29
F2
s(S'DP'
S'DAAP'
tp30
F7
s(S'PP'
p31
S'PPPPPP'
tp32
F3
s(S'DP'
p33
S'DDDADVADVPP'
tp34
F1
s(S'VP'
p35
S'VAVP'
tp36
F5
s(S'PP'
S'APPDP'
tp37
F3
s(S'AP'
S'AADVMP'
tp38
F1
s(S'DP'
S'DAADP'
tp39
F1
s(S'DP'
S'ADNNP'
tp40
F2
s(S'VP'
S'AVADVDP'
tp41
F1
s(S'VP'
S'VADVVVP'
tp42
F1
s(S'MP'
S'MDVP'
tp43
F1
s(S'VP'
p44
S'ADVVNP'
tp45
F37
s(S'MP'
S'MVDP'
tp46
F52
s(S'PP'
S'PADVANP'
tp47
F3
s(S'PP'
p48
S'PPPP'
tp49
F74
s(S'MP'
S'MVCCCP'
tp50
F1
s(S'AP'
S'ADVAPPP'
tp51
F1
s(S'DP'
p52
S'DDDNP'
tp53
F3
s(S'DP'
S'DDMP'
tp54
F1
s(S'VP'
S'VACP'
tp55
F13
s(S'AP'
S'AAAVP'
tp56
F2
s(S'PP'
S'PPAAP'
tp57
F5
s(S'DP'
S'DADVVP'
tp58
F16
s(S'VP'
p59
S'ADVADVVDDP'
tp60
F3
s(S'MP'
S'MVADVAAP'
tp61
F1
s(S'MP'
S'MAAVNP'
tp62
F2
s(S'NP'
p63
S'AAANVP'
tp64
F2
s(S'NP'
p65
S'NDDDP'
tp66
F2
s(S'NP'
S'NCCCP'
tp67
F3
s(S'CP'
S'CADVADVDDPP'
tp68
F3
s(S'NP'
p69
S'ANADVPP'
tp70
F1
s(S'VP'
p71
S'VCP'
tp72
F227
s(S'NP'
p73
S'NMMP'
tp74
F9
s(S'NP'
S'NANP'
tp75
F2
s(S'DP'
S'DDDNNP'
tp76
F1
s(S'VP'
S'ADVADVADVADVADVVCP'
tp77
F1
s(S'CP'
S'CAADVDAPPP'
tp78
F1
s(S'PP'
p79
S'PAP'
tp80
F212
s(S'MP'
S'MADVVCCP'
tp81
F2
s(S'VP'
p82
S'VADVADVAP'
tp83
F4
s(S'PP'
p84
S'ADVPPVP'
tp85
F1
s(S'NP'
p86
S'NNNAP'
tp87
F3
s(S'PP'
S'APVVP'
tp88
F1
s(S'NP'
S'NAAAVP'
tp89
F1
s(S'PP'
p90
S'PPADVDP'
tp91
F3
s(S'VP'
S'AAVNNP'
tp92
F3
s(g79
S'PNP'
tp93
F525
s(S'NP'
S'NNNCCCCCP'
tp94
F1
s(S'DP'
p95
S'DDP'
tp96
F71
s(S'PP'
S'ADVPPMP'
tp97
F1
s(S'VP'
S'ADVVDDP'
tp98
F2
s(S'NP'
p99
S'NNNPP'
tp100
F3
s(S'NP'
p101
S'NNDP'
tp102
F27
s(S'MP'
S'MCDP'
tp103
F2
s(S'PP'
p104
S'ADVPCP'
tp105
F1
s(S'CP'
p106
S'AACCDP'
tp107
F1
s(S'DP'
S'DDAANP'
tp108
F2
s(S'MP'
S'MNAP'
tp109
F4
s(S'AP'
S'AANP'
tp110
F1
s(S'VP'
p111
S'ADVADVVVCP'
tp112
F1
s(S'NP'
p113
S'NMP'
tp114
F193
s(S'VP'
S'AVVDDP'
tp115
F1
s(S'NP'
S'ADVNAPP'
tp116
F1
s(S'DP'
S'ADCP'
tp117
F1
s(S'PP'
S'ADVADVPAAP'
tp118
F1
s(S'VP'
S'AAVNP'
tp119
F2
s(S'VP'
S'VMMP'
tp120
F2
s(g79
S'PDP'
tp121
F479
s(S'CP'
S'CCADVADVDP'
tp122
F2
s(S'CP'
p123
S'CDAAPP'
tp124
F6
s(g63
S'ADVNVVP'
tp125
F1
s(S'AP'
S'ADVAAACCP'
tp126
F1
s(g123
S'CDADVADVPPP'
tp127
F1
s(S'DP'
p128
S'ADVADVDAPP'
tp129
F1
s(S'NP'
p130
S'NACCP'
tp131
F1
s(S'AP'
S'ANP'
tp132
F4
s(S'NP'
S'NADVADVADVVP'
tp133
F1
s(S'PP'
p134
S'PADVPP'
tp135
F8
s(S'VP'
S'AAVPP'
tp136
F4
s(S'CP'
S'CDDAPPP'
tp137
F2
s(S'PP'
S'PPADVAP'
tp138
F1
s(S'MP'
S'MVACP'
tp139
F1
s(S'PP'
S'AAPPPP'
tp140
F1
s(S'VP'
S'VADVAAP'
tp141
F1
s(S'DP'
S'DPPPP'
tp142
F23
s(S'DP'
S'DDANP'
tp143
F12
s(S'NP'
S'NACP'
tp144
F23
s(S'AP'
S'ADVAVP'
tp145
F6
s(S'NP'
p146
S'NCCP'
tp147
F96
s(S'DP'
S'DADVADVVVP'
tp148
F1
s(S'MP'
p149
S'MADVPDP'
tp150
F1
s(S'VP'
p151
S'VVVVVP'
tp152
F3
s(S'NP'
p153
S'NNCP'
tp154
F115
s(S'NP'
p155
S'AANPPP'
tp156
F1
s(g153
S'NADVADVVP'
tp157
F7
s(S'NP'
S'NNPPPP'
tp158
F1
s(S'DP'
S'DDDDP'
tp159
F4
s(S'DP'
S'ADVADVADVDDPP'
tp160
F2
s(S'PP'
S'PPAP'
tp161
F17
s(S'DP'
S'DDADVADVPPP'
tp162
F1
s(S'VP'
S'AVNP'
tp163
F18
s(S'MP'
p164
S'MADVADVADVVCP'
tp165
F1
s(S'VP'
p166
S'VVNNNP'
tp167
F3
s(S'PP'
S'ADVPVVP'
tp168
F1
s(g95
S'ADVADVDANP'
tp169
F1
s(S'PP'
p170
S'ADVAPDP'
tp171
F2
s(S'VP'
p172
S'VVMP'
tp173
F9
s(S'VP'
S'VADVVP'
tp174
F3
s(S'MP'
p175
S'MVAPP'
tp176
F5
s(S'NP'
S'ANADVVP'
tp177
F2
s(S'PP'
p178
S'ADVAPVP'
tp179
F3
s(S'MP'
S'AMMVP'
tp180
F2
s(S'CP'
S'CCCDP'
tp181
F10
s(S'VP'
S'ADVVAP'
tp182
F7
s(S'PP'
S'ADVPPNNP'
tp183
F2
s(S'VP'
S'VCCCP'
tp184
F4
s(g178
S'APDP'
tp185
F52
s(S'PP'
S'PPPAMP'
tp186
F1
s(S'VP'
S'VADVNNP'
tp187
F1
s(S'MP'
p188
S'MVADVADVPPP'
tp189
F1
s(S'AP'
S'AADVCP'
tp190
F3
s(S'AP'
S'AVVVVP'
tp191
F1
s(S'VP'
S'ADVAVCCP'
tp192
F1
s(S'VP'
S'VVANP'
tp193
F2
s(S'NP'
S'NNADVDP'
tp194
F1
s(S'PP'
p195
S'ADVPNNP'
tp196
F2
s(g172
S'ADVVVP'
tp197
F4
s(S'VP'
S'ADVADVVVDDP'
tp198
F1
s(S'CP'
S'CADADVPPP'
tp199
F1
s(S'MP'
S'MADVADVADVVVDP'
tp200
F1
s(S'MP'
p201
S'MADVVNP'
tp202
F4
s(S'PP'
S'PAAP'
tp203
F32
s(S'MP'
S'MPNNP'
tp204
F2
s(S'NP'
p205
S'ADVANCP'
tp206
F2
s(S'DP'
p207
S'DNNP'
tp208
F123
s(S'CP'
S'CADVDDPP'
tp209
F8
s(S'DP'
S'DPPPPP'
tp210
F2
s(S'CP'
S'CDDPPPP'
tp211
F1
s(S'CP'
S'CCADVDP'
tp212
F7
s(g111
S'ADVADVADVVVDP'
tp213
F1
s(S'DP'
S'ADDNP'
tp214
F2
s(S'NP'
p215
S'NNNVP'
tp216
F15
s(S'VP'
S'VADVADVADVADVNNP'
tp217
F1
s(g82
S'VDP'
tp218
F487
s(S'PP'
S'PADVVP'
tp219
F18
s(S'MP'
S'MVVDDP'
tp220
F1
s(S'PP'
S'APDDDDP'
tp221
F1
s(S'PP'
S'APAP'
tp222
F4
s(S'CP'
p223
S'ADVADVCDP'
tp224
F3
s(S'NP'
S'AANADVVVP'
tp225
F1
s(S'NP'
S'NADVADVCCP'
tp226
F1
s(S'CP'
S'CDDDADVPPP'
tp227
F1
s(S'NP'
p228
S'NADVMP'
tp229
F2
s(S'AP'
p230
S'AAP'
tp231
F11
s(S'VP'
S'VADVADVVP'
tp232
F1
s(g44
S'VVAPP'
tp233
F3
s(S'NP'
S'ADVANPP'
tp234
F2
s(S'VP'
S'VVVVPP'
tp235
F3
s(S'DP'
p236
S'DAAVP'
tp237
F6
s(S'PP'
S'PAANP'
tp238
F4
s(S'VP'
S'VADVADVCP'
tp239
F2
s(S'VP'
S'VVVANP'
tp240
F1
s(g73
S'ANVP'
tp241
F57
s(S'VP'
S'VAACP'
tp242
F1
s(S'VP'
S'VAAAP'
tp243
F2
s(S'DP'
S'ADVDDPP'
tp244
F10
s(S'MP'
p245
S'MVNP'
tp246
F41
s(S'MP'
S'MNDP'
tp247
F4
s(S'AP'
S'AADVCCP'
tp248
F1
s(S'AP'
S'ADVAADP'
tp249
F1
s(S'PP'
S'PAVP'
tp250
F21
s(S'CP'
S'CDADVADVPP'
tp251
F3
s(S'PP'
p252
S'ADVADVPPVP'
tp253
F1
s(S'MP'
S'MDANP'
tp254
F1
s(S'MP'
S'MADVVADVAP'
tp255
F1
s(S'DP'
S'DDAPPP'
tp256
F2
s(S'VP'
S'VVVPP'
tp257
F6
s(S'NP'
S'NNADP'
tp258
F2
s(S'DP'
S'ADVDADP'
tp259
F1
s(S'PP'
S'PADVNNP'
tp260
F4
s(S'PP'
p261
S'APPPP'
tp262
F4
s(S'DP'
p263
S'DADP'
tp264
F3
s(S'DP'
S'DAAAPPP'
tp265
F1
s(S'AP'
S'ADVADP'
tp266
F13
s(S'AP'
S'APP'
tp267
F74
s(S'MP'
p268
S'MDPP'
tp269
F1
s(S'DP'
S'ADVDDP'
tp270
F2
s(S'PP'
S'APDDP'
tp271
F10
s(S'VP'
S'ADVADVVVNP'
tp272
F3
s(S'VP'
S'ADVADVVANP'
tp273
F1
s(S'NP'
S'ADVNAP'
tp274
F3
s(S'DP'
S'DDDDVVP'
tp275
F1
s(g104
S'PPCP'
tp276
F2
s(S'AP'
S'ACCCP'
tp277
F1
s(S'PP'
S'APVP'
tp278
F18
s(S'VP'
S'VAAACCP'
tp279
F1
s(S'MP'
S'MNCP'
tp280
F5
s(S'VP'
S'ADVADVADVVCP'
tp281
F2
s(S'VP'
S'VVNP'
tp282
F79
s(S'NP'
p283
S'ANNP'
tp284
F1
s(S'PP'
S'ADVPPPP'
tp285
F2
s(g178
S'PPVP'
tp286
F70
s(S'CP'
S'ACCADVDDP'
tp287
F1
s(S'VP'
S'VADVDP'
tp288
F11
s(S'CP'
S'AAACCDP'
tp289
F1
s(S'VP'
S'VAAP'
tp290
F29
s(S'NP'
p291
S'ANDP'
tp292
F24
s(g113
S'NVVP'
tp293
F97
s(S'PP'
p294
S'AAPVP'
tp295
F5
s(S'PP'
S'PPADP'
tp296
F3
s(S'VP'
S'VMP'
tp297
F50
s(S'NP'
S'ANPPPP'
tp298
F1
s(S'VP'
S'VVNNP'
tp299
F9
s(S'CP'
S'CDAPP'
tp300
F49
s(S'VP'
S'VVAAP'
tp301
F3
s(S'NP'
S'ANADVCP'
tp302
F1
s(S'VP'
S'ADVVVVVP'
tp303
F1
s(S'CP'
S'CADVADPP'
tp304
F2
s(S'DP'
p305
S'ADNP'
tp306
F32
s(S'VP'
p307
S'AVVDP'
tp308
F3
s(S'DP'
S'DDADVAP'
tp309
F1
s(S'CP'
S'ACCDP'
tp310
F2
s(S'PP'
p311
S'PADP'
tp312
F25
s(S'VP'
S'ADVVVCP'
tp313
F6
s(g294
S'PAAPP'
tp314
F4
s(S'NP'
S'ANDDP'
tp315
F3
s(S'AP'
S'AAADVAP'
tp316
F1
s(S'DP'
S'ADVADVDVP'
tp317
F1
s(S'DP'
S'DADVAP'
tp318
F5
s(S'PP'
S'ADVADVPMP'
tp319
F1
s(S'NP'
S'NNNCP'
tp320
F12
s(g95
S'DAPP'
tp321
F68
s(S'VP'
S'AVVP'
tp322
F3
s(S'MP'
S'MVVCP'
tp323
F2
s(S'VP'
S'ADVADVVPP'
tp324
F4
s(S'CP'
S'CDADVAPP'
tp325
F1
s(S'AP'
S'AADVADVADVPP'
tp326
F1
s(S'MP'
S'MAAVDP'
tp327
F1
s(S'MP'
S'MDDNP'
tp328
F2
s(S'VP'
S'ADVADVVDP'
tp329
F9
s(S'PP'
p330
S'PPPDP'
tp331
F12
s(S'DP'
S'DAAPPP'
tp332
F3
s(S'PP'
S'AAAPDP'
tp333
F2
s(S'MP'
S'MVVAP'
tp334
F3
s(S'VP'
S'VDDDDP'
tp335
F2
s(S'DP'
S'DAAANP'
tp336
F2
s(S'DP'
S'DADVANP'
tp337
F4
s(S'NP'
S'ANADVVVP'
tp338
F5
s(S'VP'
S'VAAPP'
tp339
F3
s(S'CP'
S'CCCCADVADVADVDDP'
tp340
F1
s(S'DP'
p341
S'ADVDNP'
tp342
F16
s(S'VP'
S'AVDDDP'
tp343
F1
s(g71
S'VVPP'
tp344
F49
s(S'VP'
S'VADVAPP'
tp345
F2
s(S'DP'
S'ADADVPP'
tp346
F2
s(S'PP'
S'PAVVP'
tp347
F3
s(S'MP'
S'MVPP'
tp348
F28
s(S'DP'
S'ADVP'
tp349
F18
s(g164
S'ADVMDDP'
tp350
F1
s(g223
S'CDDPPP'
tp351
F18
s(S'VP'
p352
S'ADVADVADVVDP'
tp353
F1
s(S'NP'
S'NNPP'
tp354
F40
s(S'NP'
p355
S'NADVADVDP'
tp356
F1
s(S'MP'
S'MCCDP'
tp357
F1
s(S'DP'
S'DDDDNP'
tp358
F2
s(S'MP'
S'MVVDP'
tp359
F5
s(S'AP'
S'AACP'
tp360
F17
s(S'PP'
p361
S'PPVVP'
tp362
F4
s(S'NP'
S'NADVADVADVADVADVVP'
tp363
F1
s(S'DP'
p364
S'DNNNP'
tp365
F12
s(S'MP'
S'MVADVCP'
tp366
F1
s(S'DP'
S'ADVDDVP'
tp367
F3
s(S'VP'
S'VADVADVPPP'
tp368
F1
s(S'PP'
S'PADVADVVP'
tp369
F4
s(S'VP'
p370
S'VADVDDP'
tp371
F2
s(g311
S'PMMP'
tp372
F3
s(S'PP'
S'PVVVP'
tp373
F3
s(g16
S'PMP'
tp374
F46
s(S'NP'
S'NNMMP'
tp375
F1
s(g261
S'PADVADVADVVP'
tp376
F1
s(S'VP'
p377
S'ADVVVANP'
tp378
F1
s(S'CP'
S'CCDP'
tp379
F140
s(S'NP'
S'ADVNNDP'
tp380
F1
s(g305
S'ADVADVADVDPP'
tp381
F2
s(S'MP'
S'AMVP'
tp382
F9
s(S'PP'
S'PPNNNP'
tp383
F2
s(S'VP'
S'VADVADVANP'
tp384
F1
s(S'NP'
S'NVVVP'
tp385
F16
s(S'CP'
S'CDDDPP'
tp386
F11
s(g90
S'PPADVVP'
tp387
F4
s(S'MP'
S'AAMPP'
tp388
F1
s(g151
S'VVVDP'
tp389
F17
s(S'NP'
S'AAANCCP'
tp390
F1
s(S'PP'
S'PNNNP'
tp391
F9
s(S'CP'
S'CCCCDP'
tp392
F1
s(S'NP'
p393
S'ANMMP'
tp394
F3
s(S'PP'
S'AAPNP'
tp395
F3
s(S'CP'
S'CADADVPP'
tp396
F2
s(S'PP'
S'PADVVVP'
tp397
F2
s(g79
S'PPP'
tp398
F274
s(S'NP'
S'NNVVP'
tp399
F13
s(S'NP'
p400
S'NAVP'
tp401
F34
s(S'PP'
S'PADVAP'
tp402
F7
s(S'DP'
S'DDNNNP'
tp403
F3
s(S'MP'
S'AMDP'
tp404
F3
s(S'VP'
S'ADVVAPP'
tp405
F1
s(S'PP'
S'PADDP'
tp406
F2
s(S'PP'
S'APVVVP'
tp407
F1
s(S'VP'
S'AAVVP'
tp408
F1
s(S'DP'
S'ADVDVP'
tp409
F17
s(S'NP'
S'NAAAP'
tp410
F1
s(g65
S'NADVVVP'
tp411
F9
s(g364
S'DADVADVPPP'
tp412
F2
s(S'AP'
S'AADVVP'
tp413
F1
s(S'NP'
S'NNDDP'
tp414
F4
s(S'MP'
S'MADVADVVPP'
tp415
F2
s(S'DP'
p416
S'ADVADVDNP'
tp417
F1
s(S'AP'
S'AAADVCP'
tp418
F1
s(g71
S'VPP'
tp419
F274
s(S'CP'
S'ADVCCDP'
tp420
F5
s(S'CP'
S'CDDDPPPP'
tp421
F1
s(S'DP'
S'ADVDDPPP'
tp422
F1
s(S'DP'
S'ADVDDNP'
tp423
F2
s(S'DP'
S'DDADVDP'
tp424
F1
s(S'PP'
p425
S'PADVDP'
tp426
F17
s(S'MP'
S'MADPP'
tp427
F1
s(S'CP'
S'CDDDPPP'
tp428
F1
s(S'DP'
S'DANNP'
tp429
F4
s(S'MP'
S'MADVVAP'
tp430
F1
s(S'CP'
S'CDDPP'
tp431
F136
s(g364
S'DAAPP'
tp432
F9
s(g16
S'PVVP'
tp433
F53
s(g106
S'CADPPP'
tp434
F8
s(S'DP'
p435
S'DADVPPP'
tp436
F10
s(S'VP'
S'ADVVCP'
tp437
F20
s(S'PP'
S'ADVPPAP'
tp438
F1
s(S'VP'
S'VPPP'
tp439
F26
s(S'PP'
p440
S'APCCP'
tp441
F1
s(g370
S'VVPPP'
tp442
F4
s(S'MP'
S'MADVADVVCCP'
tp443
F1
s(S'VP'
S'VVVVVNNP'
tp444
F1
s(S'MP'
S'MVPPP'
tp445
F3
s(S'DP'
p446
S'DVVP'
tp447
F64
s(g311
S'PADVAVP'
tp448
F2
s(S'MP'
S'ADVMVP'
tp449
F2
s(S'NP'
S'NADVCCP'
tp450
F2
s(g146
S'ANMP'
tp451
F11
s(S'AP'
S'APPP'
tp452
F8
s(S'PP'
p453
S'ADVPPP'
tp454
F6
s(S'DP'
p455
S'ADVADPPP'
tp456
F1
s(S'NP'
S'ADVADVNVP'
tp457
F1
s(S'VP'
p458
S'VVVP'
tp459
F16
s(S'CP'
p460
S'CADVDPP'
tp461
F34
s(S'PP'
S'PADVADVMP'
tp462
F2
s(S'PP'
S'PPDDDP'
tp463
F1
s(S'NP'
p464
S'ANCP'
tp465
F67
s(g236
S'DCP'
tp466
F33
s(g128
S'DDAAPP'
tp467
F1
s(S'NP'
S'ANNCP'
tp468
F3
s(S'PP'
S'AAPPNNP'
tp469
F1
s(S'VP'
S'ADVVCCP'
tp470
F4
s(S'NP'
S'NNNNAAP'
tp471
F1
s(S'DP'
S'DADVCP'
tp472
F1
s(S'VP'
S'ADVADVADVVVP'
tp473
F1
s(S'DP'
p474
S'DDDP'
tp475
F24
s(S'DP'
S'DDADVPP'
tp476
F7
s(S'NP'
S'ANNVVP'
tp477
F1
s(S'NP'
S'ANVVP'
tp478
F10
s(S'VP'
p479
S'VVDP'
tp480
F71
s(g291
S'NPPP'
tp481
F30
s(S'PP'
S'PPAPP'
tp482
F2
s(S'VP'
S'ADVVNNNP'
tp483
F2
s(S'DP'
S'AADVVP'
tp484
F1
s(S'MP'
S'MMADVADVADVADVVP'
tp485
F1
s(S'VP'
S'VVADVDP'
tp486
F1
s(S'DP'
S'DAVP'
tp487
F26
s(S'VP'
S'ADVADVADVADVVNP'
tp488
F1
s(S'NP'
S'NNNMP'
tp489
F2
s(S'NP'
S'NNNNMP'
tp490
F1
s(S'AP'
p491
S'ACP'
tp492
F93
s(S'VP'
S'AVVVVP'
tp493
F1
s(S'PP'
S'ADVPNNNP'
tp494
F1
s(S'PP'
S'PADVADVNNP'
tp495
F1
s(g79
S'PPNP'
tp496
F88
s(S'AP'
S'ADVACCP'
tp497
F3
s(S'NP'
S'NAADP'
tp498
F2
s(S'DP'
p499
S'ADVDAPP'
tp500
F1
s(S'MP'
S'AMAP'
tp501
F1
s(g207
S'AADVP'
tp502
F2
s(S'PP'
S'PPPPDDP'
tp503
F1
s(S'VP'
S'VAANNP'
tp504
F1
s(S'CP'
S'CDDADVPP'
tp505
F3
s(S'CP'
p506
S'CCCDDP'
tp507
F2
s(S'AP'
S'ADP'
tp508
F365
s(S'NP'
S'ADVADVADVNVP'
tp509
F2
s(S'NP'
S'NAMMP'
tp510
F2
s(S'DP'
S'DDAVP'
tp511
F3
s(S'VP'
S'VADVADVADVNP'
tp512
F1
s(S'VP'
S'VVADVPP'
tp513
F1
s(S'NP'
S'ADVADVNNVP'
tp514
F1
s(S'DP'
S'DVVVVP'
tp515
F2
s(S'DP'
S'DDVVVP'
tp516
F1
s(S'NP'
p517
S'ADVADVADVANPP'
tp518
F1
s(S'VP'
S'ADVADVVNNP'
tp519
F1
s(S'AP'
S'AAADP'
tp520
F8
s(S'NP'
S'ANNVP'
tp521
F3
s(S'VP'
p522
S'VVAP'
tp523
F22
s(S'VP'
S'VADVADVADVPP'
tp524
F1
s(g90
S'PADVADVDP'
tp525
F2
s(S'NP'
S'NNADVCCP'
tp526
F1
s(S'VP'
S'VADVADVADVAAP'
tp527
F1
s(g291
S'NPP'
tp528
F387
s(S'VP'
S'ADVADVVAP'
tp529
F2
s(g400
S'NVP'
tp530
F545
s(g19
S'DPP'
tp531
F695
s(S'PP'
p532
S'PAAVP'
tp533
F4
s(S'NP'
p534
S'NAAPP'
tp535
F1
s(S'PP'
S'PPPPVP'
tp536
F1
s(S'VP'
p537
S'VDDP'
tp538
F65
s(S'VP'
S'ADVVADVAP'
tp539
F2
s(S'DP'
S'DADVADVPP'
tp540
F3
s(S'DP'
S'DDDVVP'
tp541
F1
s(S'NP'
S'AANVVP'
tp542
F1
s(g95
S'DADVAPP'
tp543
F2
s(g455
S'DAAAVP'
tp544
F2
s(S'NP'
p545
S'NNADVACP'
tp546
F1
s(S'NP'
p547
S'NADVADVVVP'
tp548
F9
s(S'NP'
S'ANPP'
tp549
F49
s(S'PP'
S'ADVPPDP'
tp550
F4
s(S'PP'
S'PPPPP'
tp551
F13
s(S'MP'
S'MPDP'
tp552
F3
s(S'PP'
S'ADVADVPDP'
tp553
F2
s(S'MP'
S'MVVPP'
tp554
F7
s(g522
S'ADVADVADVVAP'
tp555
F1
s(g435
S'ADVDPP'
tp556
F48
s(S'PP'
S'PPVVVVP'
tp557
F1
s(S'NP'
S'NPPPP'
tp558
F5
s(S'DP'
p559
S'ADDP'
tp560
F1
s(S'NP'
S'NNDDDDP'
tp561
F1
s(g283
S'NNCCCCP'
tp562
F1
s(S'AP'
S'ADVAMP'
tp563
F4
s(S'CP'
S'CAADPP'
tp564
F9
s(S'DP'
S'DADVADVVP'
tp565
F4
s(S'NP'
S'NAACP'
tp566
F3
s(g82
S'VVADVNP'
tp567
F3
s(S'PP'
S'APNNP'
tp568
F3
s(S'NP'
S'ADVNDP'
tp569
F4
s(S'MP'
p570
S'MMNP'
tp571
F3
s(S'DP'
S'AAADPP'
tp572
F2
s(S'VP'
p573
S'AVAP'
tp574
F9
s(g245
S'MMVP'
tp575
F12
s(S'PP'
S'PADVDDP'
tp576
F4
s(S'CP'
S'CADVADPPP'
tp577
F1
s(S'NP'
S'ADVADVANDP'
tp578
F1
s(g113
S'ADVNCP'
tp579
F19
s(S'DP'
S'DDADVADVPP'
tp580
F1
s(g230
S'AADP'
tp581
F79
s(S'VP'
p582
S'VAPPP'
tp583
F1
s(S'CP'
S'ACDP'
tp584
F39
s(S'VP'
S'VCCP'
tp585
F32
s(g499
S'DDDADVPPP'
tp586
F1
s(S'NP'
S'NNACP'
tp587
F5
s(S'MP'
S'MDNNP'
tp588
F3
s(g460
S'CDADVPPP'
tp589
F7
s(S'VP'
p590
S'VAP'
tp591
F203
s(S'VP'
S'AAVADVDP'
tp592
F1
s(S'VP'
S'VVVVNP'
tp593
F2
s(S'MP'
S'MNVVP'
tp594
F1
s(g263
S'DDDPP'
tp595
F17
s(S'CP'
S'ADVCDDP'
tp596
F1
s(S'NP'
S'AANNCP'
tp597
F3
s(S'PP'
p598
S'ADVPMP'
tp599
F1
s(S'DP'
p600
S'DDDPPPP'
tp601
F1
s(S'AP'
S'AAVVP'
tp602
F1
s(S'MP'
S'MNMP'
tp603
F2
s(S'MP'
S'MAVPP'
tp604
F1
s(S'VP'
S'ADVADVVVAP'
tp605
F1
s(S'DP'
S'DDDPPP'
tp606
F2
s(S'VP'
S'ADVAVDP'
tp607
F4
s(g416
S'DADVDP'
tp608
F2
s(S'NP'
S'ADVADVANCCP'
tp609
F1
s(S'VP'
S'VVADVADVCCP'
tp610
F1
s(S'AP'
S'AAACP'
tp611
F2
s(S'VP'
S'ADVVVDP'
tp612
F4
s(S'DP'
S'DAAAP'
tp613
F1
s(S'MP'
S'MVVAPP'
tp614
F1
s(S'PP'
S'PPPVP'
tp615
F7
s(S'AP'
S'AADDP'
tp616
F7
s(S'MP'
S'MAADP'
tp617
F2
s(S'MP'
S'MADVNVP'
tp618
F1
s(S'AP'
S'ACCCCP'
tp619
F1
s(g458
S'VAANP'
tp620
F4
s(S'NP'
S'NADVADVCP'
tp621
F1
s(S'CP'
S'CCAAADP'
tp622
F1
s(S'MP'
S'MADVADVADVVNP'
tp623
F1
s(S'MP'
S'AMPP'
tp624
F1
s(S'NP'
S'NVVVVP'
tp625
F4
s(S'CP'
S'CDDADVADVPPP'
tp626
F1
s(S'DP'
S'DADVADVDP'
tp627
F1
s(g175
S'MPNP'
tp628
F7
s(S'AP'
S'ADVADVAMMP'
tp629
F1
s(S'MP'
S'MADP'
tp630
F16
s(S'PP'
S'PPPDDP'
tp631
F1
s(S'AP'
S'AMMP'
tp632
F2
s(S'CP'
S'CCAADP'
tp633
F1
s(S'AP'
S'ADVADVADDP'
tp634
F1
s(S'DP'
S'DDADVNP'
tp635
F4
s(g195
S'PANP'
tp636
F57
s(S'DP'
p637
S'AADNP'
tp638
F6
s(g547
S'ANNMP'
tp639
F2
s(S'DP'
S'ADVADPP'
tp640
F2
s(S'MP'
S'ADVAMVP'
tp641
F1
s(S'DP'
S'ADVDDVVP'
tp642
F1
s(S'NP'
S'AANMP'
tp643
F3
s(S'AP'
S'AAVP'
tp644
F10
s(g464
S'NAAP'
tp645
F18
s(S'NP'
S'NDDP'
tp646
F25
s(g532
S'PADVMP'
tp647
F2
s(S'MP'
S'MVADVDP'
tp648
F1
s(S'AP'
S'ACCP'
tp649
F12
s(S'NP'
S'ADVADVANCP'
tp650
F2
s(g370
S'VVVVAP'
tp651
F2
s(S'PP'
S'ADVPAANP'
tp652
F1
s(g400
S'NDP'
tp653
F187
s(g31
S'PADVADVADVNP'
tp654
F1
s(g146
S'NNNNVVP'
tp655
F3
s(g291
S'NNADVADVDP'
tp656
F1
s(S'MP'
S'MVAAP'
tp657
F2
s(g474
S'DDVP'
tp658
F58
s(S'MP'
p659
S'MMADVVVP'
tp660
F1
s(S'NP'
S'AANVP'
tp661
F13
s(S'MP'
S'ADVADVMAP'
tp662
F1
s(S'DP'
S'ADDVP'
tp663
F1
s(S'VP'
S'VNNNP'
tp664
F3
s(S'PP'
S'ADVPAP'
tp665
F1
s(S'MP'
S'MMVVVP'
tp666
F1
s(g268
S'MPADVDP'
tp667
F1
s(S'PP'
S'APADVDP'
tp668
F1
s(S'PP'
S'PCP'
tp669
F18
s(g99
S'NNPPP'
tp670
F4
s(S'PP'
S'PPVVVP'
tp671
F2
s(g440
S'PAADP'
tp672
F3
s(S'MP'
S'MDNP'
tp673
F15
s(S'VP'
S'VPPPP'
tp674
F4
s(S'NP'
p675
S'ADVNNPP'
tp676
F1
s(g545
S'ADVNAAVP'
tp677
F1
s(S'MP'
S'MPAP'
tp678
F1
s(g69
S'NNNDP'
tp679
F2
s(S'AP'
S'ADVACP'
tp680
F9
s(S'VP'
S'ADVADVADVVADVCP'
tp681
F1
s(S'VP'
S'VVVAP'
tp682
F1
s(g101
S'NNVP'
tp683
F97
s(g86
S'NNAAVP'
tp684
F2
s(S'MP'
S'MVCP'
tp685
F28
s(S'CP'
S'CCDDP'
tp686
F21
s(g393
S'NNADVVP'
tp687
F6
s(S'PP'
S'PPADVADVVP'
tp688
F2
s(S'DP'
p689
S'DDADP'
tp690
F2
s(S'MP'
S'MVMP'
tp691
F2
s(S'VP'
S'VAMP'
tp692
F3
s(g559
S'DADVNP'
tp693
F19
s(g130
S'NAAMP'
tp694
F1
s(S'NP'
S'NNNNVP'
tp695
F1
s(g71
S'VVCP'
tp696
F38
s(S'NP'
S'AANCP'
tp697
F10
s(S'VP'
S'VADVNP'
tp698
F8
s(g582
S'VVDDDP'
tp699
F1
s(g84
S'PADVPPP'
tp700
F2
s(S'MP'
S'MDCP'
tp701
F1
s(g35
S'AVVPP'
tp702
F2
s(S'PP'
S'APPP'
tp703
F14
s(S'AP'
S'ADVADVADVAACP'
tp704
F1
s(S'VP'
S'ADVVPP'
tp705
F12
s(S'VP'
S'VVADVANP'
tp706
F1
s(S'CP'
S'CADVADVADVDDPP'
tp707
F1
s(g590
S'VNNP'
tp708
F66
s(S'PP'
p709
S'APADVNP'
tp710
F1
s(S'VP'
S'ADVADVVVANP'
tp711
F1
s(g534
S'NADP'
tp712
F9
s(g474
S'DDNP'
tp713
F103
s(S'NP'
p714
S'NADVCP'
tp715
F16
s(S'NP'
S'NNADVAP'
tp716
F2
s(g453
S'AAPPP'
tp717
F3
s(S'CP'
S'CDDADVADVPP'
tp718
F1
s(S'VP'
S'VVVVPPP'
tp719
F1
s(g479
S'ADVAVPP'
tp720
F1
s(S'NP'
p721
S'ADVANVP'
tp722
F3
s(S'DP'
S'AADVDAPPP'
tp723
F1
s(S'CP'
S'ADVADVCCDDP'
tp724
F1
s(S'NP'
S'ADVADVNCP'
tp725
F5
s(S'NP'
S'ADVADVADVADVNNVP'
tp726
F1
s(S'DP'
S'AADPP'
tp727
F14
s(S'VP'
S'VVVAAP'
tp728
F1
s(S'PP'
S'APPNP'
tp729
F2
s(g400
S'NNNNPP'
tp730
F3
s(S'MP'
S'MVVP'
tp731
F1
s(g33
S'DADVADVANP'
tp732
F3
s(S'MP'
S'MADVVPP'
tp733
F1
s(S'VP'
S'VVVADVNP'
tp734
F1
s(S'MP'
S'MAVAP'
tp735
F1
s(S'MP'
S'MADVDNP'
tp736
F1
s(S'CP'
S'CDPPPPP'
tp737
F2
s(S'NP'
S'ANVVVP'
tp738
F1
s(S'VP'
S'ADVADVADVVDDP'
tp739
F1
s(S'MP'
S'MVVNP'
tp740
F15
s(S'CP'
S'CDDADVPPP'
tp741
F1
s(S'DP'
S'ADVDNNP'
tp742
F2
s(g506
S'ACDDP'
tp743
F7
s(S'NP'
S'ADVADVNNCP'
tp744
F1
s(S'VP'
S'ADVVCCCP'
tp745
F1
s(S'AP'
S'AAPP'
tp746
F2
s(g11
S'VVCCP'
tp747
F6
s(S'DP'
S'DADVVVP'
tp748
F2
s(S'DP'
S'DADVADVNP'
tp749
F3
s(S'PP'
p750
S'ADVPANP'
tp751
F1
s(S'MP'
S'MDAAANP'
tp752
F1
s(S'VP'
S'AAVADVCP'
tp753
F1
s(S'NP'
S'NAPP'
tp754
F31
s(S'PP'
S'APPVP'
tp755
F1
s(S'NP'
S'NADVDP'
tp756
F8
s(g228
S'NADVADVAP'
tp757
F1
s(S'MP'
S'MVADVADVAP'
tp758
F1
s(S'VP'
S'VVVCP'
tp759
F3
s(S'MP'
S'MADVADVVVDP'
tp760
F1
s(S'MP'
S'MVDDP'
tp761
F4
s(g215
S'ANCCP'
tp762
F10
s(S'NP'
S'AANPP'
tp763
F8
s(S'VP'
S'VDDDP'
tp764
F3
s(S'NP'
S'NNMP'
tp765
F20
s(S'PP'
S'ADVPANNP'
tp766
F1
s(g637
S'DDDVP'
tp767
F3
s(S'NP'
S'NNADVCP'
tp768
F1
s(S'NP'
S'NVVVVVP'
tp769
F1
s(S'CP'
S'CADDPP'
tp770
F5
s(S'VP'
S'VVADVADVPP'
tp771
F1
s(S'PP'
S'PAAAP'
tp772
F3
s(S'PP'
S'ADVADVPNP'
tp773
F1
s(S'PP'
S'PPPAP'
tp774
F1
s(S'CP'
S'CDDAPP'
tp775
F8
s(S'DP'
S'AAADDVP'
tp776
F1
s(S'NP'
S'ANAP'
tp777
F11
s(S'DP'
S'ADVADVADVDDNP'
tp778
F1
s(S'MP'
S'MVAP'
tp779
F13
s(g48
S'PVP'
tp780
F431
s(S'DP'
S'DADVAVP'
tp781
F1
s(S'VP'
S'VADVCCP'
tp782
F1
s(S'NP'
p783
S'ADVNAVP'
tp784
F1
s(S'DP'
S'DVVVP'
tp785
F12
s(g361
S'PPADVPP'
tp786
F1
s(S'DP'
S'ADVADVADVDNP'
tp787
F1
s(S'PP'
S'PPDDP'
tp788
F9
s(g35
S'AVCP'
tp789
F9
s(g425
S'PNNP'
tp790
F96
s(S'NP'
S'NAVVP'
tp791
F1
s(S'NP'
S'ADVADVNMP'
tp792
F1
s(S'DP'
S'ADVVP'
tp793
F5
s(g73
S'ADVNVP'
tp794
F21
s(S'MP'
S'MMADVADVVVP'
tp795
F2
s(g474
S'DDPP'
tp796
F207
s(S'DP'
S'DDADVPPP'
tp797
F1
s(g474
S'DANP'
tp798
F115
s(S'NP'
S'ADVADVNAP'
tp799
F2
s(S'NP'
S'NADVPP'
tp800
F3
s(S'AP'
S'AADVADVCP'
tp801
F1
s(S'PP'
S'ADVADVPPNP'
tp802
F1
s(g59
S'ADVVADVADVADVANP'
tp803
F1
s(S'NP'
S'NADVADP'
tp804
F1
s(S'MP'
S'MMAP'
tp805
F1
s(g86
S'NAAVP'
tp806
F3
s(S'NP'
S'AAANADVVP'
tp807
F1
s(S'PP'
S'PDDDP'
tp808
F9
s(S'CP'
S'CADVADVADVDPP'
tp809
F2
s(S'VP'
S'VADVCP'
tp810
F9
s(g149
S'MADVADVVNP'
tp811
F1
s(S'NP'
S'NNNNCP'
tp812
F1
s(S'VP'
S'ADVAVNNP'
tp813
F1
s(S'NP'
S'NNAACP'
tp814
F2
s(S'MP'
S'MNAVP'
tp815
F2
s(g689
S'ADDPPP'
tp816
F1
s(S'NP'
S'NNNVVP'
tp817
F1
s(S'NP'
S'ADVNMMP'
tp818
F1
s(S'VP'
S'ADVADVADVADVVVCP'
tp819
F1
s(S'NP'
S'NAANP'
tp820
F1
s(S'VP'
S'VADVADVNP'
tp821
F2
s(g207
S'DCCP'
tp822
F3
s(g330
S'AAPDP'
tp823
F4
s(g570
S'MADVVDP'
tp824
F8
s(S'DP'
S'DDADVVP'
tp825
F3
s(S'PP'
S'PDDP'
tp826
F83
s(S'NP'
S'ADVADVANVVP'
tp827
F1
s(S'DP'
S'DADVADVADVVP'
tp828
F2
s(S'PP'
S'PCCP'
tp829
F2
s(S'PP'
S'ADVAPNP'
tp830
F1
s(S'NP'
S'NNNADVVP'
tp831
F1
s(S'AP'
S'AADVDDP'
tp832
F2
s(S'MP'
S'MADVVDDP'
tp833
F1
s(S'PP'
S'PPPMP'
tp834
F1
s(g252
S'APPPPP'
tp835
F1
s(S'AP'
S'ADVADVACP'
tp836
F3
s(S'CP'
S'CCCCCDP'
tp837
F1
s(g714
S'NNP'
tp838
F1
s(S'VP'
p839
S'VVDDP'
tp840
F15
s(S'DP'
S'DAANP'
tp841
F24
s(S'AP'
S'ADDP'
tp842
F48
s(g79
S'PNNNNP'
tp843
F4
s(S'DP'
S'DDDADVVP'
tp844
F1
s(S'PP'
S'ADVPPNP'
tp845
F9
s(g352
S'VADVADVADVVP'
tp846
F2
s(S'DP'
S'DDADVADVVP'
tp847
F1
s(S'MP'
S'MDAP'
tp848
F1
s(S'CP'
S'CADVADVDPP'
tp849
F5
s(g19
S'DPPP'
tp850
F154
s(S'VP'
S'AAAVDP'
tp851
F2
s(S'DP'
S'DAVVP'
tp852
F2
s(S'DP'
S'AADPPP'
tp853
F1
s(S'VP'
S'VANNP'
tp854
F4
s(S'AP'
S'AAAP'
tp855
F3
s(S'NP'
S'NNAVP'
tp856
F2
s(S'DP'
S'DDNNP'
tp857
F14
s(S'AP'
S'AVVP'
tp858
F5
s(S'DP'
S'DDADVADVNP'
tp859
F1
s(S'PP'
S'AAAPPNP'
tp860
F1
s(g134
S'ADVPNP'
tp861
F18
s(g311
S'PPDP'
tp862
F68
s(S'VP'
S'ADVVANNP'
tp863
F2
s(S'MP'
S'MAVDP'
tp864
F5
s(S'MP'
S'MNMMP'
tp865
F1
s(S'CP'
S'CADDPPP'
tp866
F1
s(S'DP'
S'DDPPPP'
tp867
F1
s(S'PP'
S'ADVADVPVVP'
tp868
F1
s(S'AP'
S'AAPPP'
tp869
F2
s(S'DP'
S'DDCP'
tp870
F3
s(S'CP'
S'CADADVADVPP'
tp871
F1
s(S'DP'
S'ADVDDNNP'
tp872
F1
s(S'NP'
p873
S'NAP'
tp874
F105
s(S'NP'
S'NNAAP'
tp875
F2
s(g453
S'ADVADVPPPP'
tp876
F1
s(S'VP'
S'AVADVCP'
tp877
F1
s(S'NP'
S'NAAAPP'
tp878
F2
s(S'VP'
S'ADVAVNP'
tp879
F2
s(S'MP'
S'MAADDP'
tp880
F1
s(g71
S'VVP'
tp881
F68
s(S'MP'
S'ADVMNP'
tp882
F2
s(S'DP'
S'DDAPP'
tp883
F9
s(S'PP'
S'ADVADVPVP'
tp884
F1
s(g195
S'APNP'
tp885
F38
s(S'VP'
S'VVVNNP'
tp886
F1
s(S'AP'
S'AADVADVPP'
tp887
F1
s(S'DP'
S'DDVVP'
tp888
F10
s(S'VP'
S'VVVNP'
tp889
F11
s(S'MP'
S'MNPP'
tp890
F8
s(S'CP'
S'CADVADVDAPP'
tp891
F1
s(g721
S'NAMP'
tp892
F6
s(S'VP'
S'VVVADVANP'
tp893
F1
s(g188
S'MVANP'
tp894
F2
s(S'DP'
S'ADVADVDDPP'
tp895
F3
s(S'MP'
S'MVNNP'
tp896
F5
s(g69
S'NADVAMP'
tp897
F1
s(g79
S'PPPADVADVDP'
tp898
F1
s(g23
S'CDPP'
tp899
F609
s(S'NP'
S'NNADVPP'
tp900
F2
s(g201
S'MVVNNP'
tp901
F2
s(S'AP'
S'ADDDP'
tp902
F1
s(S'CP'
p903
S'ADVCADP'
tp904
F2
s(S'VP'
S'VVAANP'
tp905
F1
s(S'DP'
S'ADADVADVPP'
tp906
F1
s(S'NP'
S'ANNAP'
tp907
F1
s(S'DP'
S'DCCCP'
tp908
F1
s(S'CP'
S'ADVCDP'
tp909
F32
s(g166
S'ADVADVVNP'
tp910
F10
s(S'CP'
S'ADVACDP'
tp911
F1
s(S'VP'
S'VADVADVDP'
tp912
F2
s(S'PP'
S'PPNNP'
tp913
F9
s(S'PP'
S'ADVAPPP'
tp914
F1
s(S'PP'
p915
S'PPMP'
tp916
F2
s(S'PP'
S'PADVADVADVVVP'
tp917
F1
s(S'DP'
S'ADVADVDPP'
tp918
F11
s(S'VP'
S'VAADP'
tp919
F6
s(S'NP'
S'NADVAP'
tp920
F5
s(S'VP'
S'AVDDP'
tp921
F8
s(g750
S'ADVADVPPNNP'
tp922
F1
s(S'CP'
S'ADVADVCDDP'
tp923
F1
s(S'DP'
S'DDCCP'
tp924
F1
s(S'DP'
S'DAP'
tp925
F50
s(S'MP'
S'MCADVDP'
tp926
F1
s(S'CP'
S'CADPP'
tp927
F38
s(g600
S'ADVADVDVVP'
tp928
F1
s(S'NP'
p929
S'NADVAVP'
tp930
F6
s(S'PP'
S'PPAVP'
tp931
F2
s(S'MP'
S'MADVADVVDP'
tp932
F3
s(g573
S'ADVADVVCCP'
tp933
F2
s(S'VP'
S'AVPP'
tp934
F13
s(S'NP'
S'NADVADVMP'
tp935
F1
s(S'CP'
S'CAADPPP'
tp936
F1
s(g71
S'AVDP'
tp937
F43
s(S'VP'
S'ADVADVVMP'
tp938
F1
s(S'CP'
S'CDPPPP'
tp939
F16
s(g839
S'VADVADVCCP'
tp940
F1
s(S'VP'
S'AAVDP'
tp941
F9
s(g709
S'PANNP'
tp942
F4
s(S'NP'
S'ADVANMP'
tp943
F1
s(S'VP'
S'VACCP'
tp944
F2
s(S'AP'
S'AAAPP'
tp945
F1
s(S'MP'
S'MVANNP'
tp946
F1
s(g52
S'DAPPP'
tp947
F3
s(S'AP'
S'AAADVDP'
tp948
F2
s(g305
S'DMP'
tp949
F14
s(S'NP'
S'NNNNADVVP'
tp950
F1
s(S'PP'
S'PPPNP'
tp951
F13
s(g355
S'NADVAPP'
tp952
F1
s(S'PP'
S'APADVPP'
tp953
F1
s(S'PP'
S'PPAANP'
tp954
F2
s(g205
S'AAANPP'
tp955
F1
s(S'PP'
S'PADVADVNP'
tp956
F3
s(S'AP'
S'AAAAADDP'
tp957
F1
s(g474
S'ADPP'
tp958
F66
s(S'PP'
S'PPAAVP'
tp959
F1
s(S'DP'
S'AADADVANP'
tp960
F1
s(S'VP'
S'VADVPP'
tp961
F11
s(S'VP'
S'VADVADVNNP'
tp962
F1
s(S'DP'
S'ADVDANP'
tp963
F1
s(S'CP'
S'CCADVDDP'
tp964
F1
s(S'PP'
S'PVVVVP'
tp965
F2
s(S'PP'
S'ADVPVP'
tp966
F20
s(S'DP'
S'ADMP'
tp967
F1
s(S'NP'
S'NNVVVP'
tp968
F3
s(S'VP'
S'ADVVANP'
tp969
F4
s(S'PP'
S'PAMP'
tp970
F2
s(S'PP'
S'ADVPDP'
tp971
F12
s(g783
S'ANNPP'
tp972
F8
s(g400
S'NCP'
tp973
F494
s(S'VP'
S'ADVADVVVPP'
tp974
F1
s(S'CP'
S'CADVDPPP'
tp975
F1
s(S'VP'
S'ADVVVPP'
tp976
F5
s(g155
S'ADVANDP'
tp977
F1
s(g170
S'ADVPAPP'
tp978
F1
s(S'MP'
S'MPPNP'
tp979
F1
s(S'DP'
S'ADVADAP'
tp980
F1
s(S'AP'
S'AAMP'
tp981
F1
s(S'VP'
S'VADVADVADVDP'
tp982
F1
s(S'PP'
S'PPAAAP'
tp983
F2
s(S'PP'
S'ADVPDDP'
tp984
F1
s(S'DP'
S'ADADVPPP'
tp985
F2
s(S'NP'
S'AANDP'
tp986
F6
s(S'MP'
S'MVCCP'
tp987
F3
s(g341
S'DADVNNP'
tp988
F2
s(S'MP'
S'MADVNAP'
tp989
F1
s(S'NP'
S'NNCCP'
tp990
F11
s(g659
S'MNVP'
tp991
F34
s(S'CP'
S'ADVADVCCDP'
tp992
F2
s(S'NP'
S'AANCCP'
tp993
F3
s(g151
S'VAPP'
tp994
F22
s(g929
S'NPPPPP'
tp995
F1
s(S'MP'
S'MAVNP'
tp996
F1
s(S'VP'
S'ADVVDP'
tp997
F24
s(g377
S'VADDP'
tp998
F1
s(S'AP'
S'AADVDP'
tp999
F6
s(g446
S'DADVPP'
tp1000
F32
s(S'PP'
S'PADVADVADVDDP'
tp1001
F1
s(S'VP'
S'VVADVAP'
tp1002
F3
s(S'AP'
S'AMP'
tp1003
F27
s(S'CP'
S'CCADP'
tp1004
F10
s(S'NP'
S'ADVNNCP'
tp1005
F5
s(S'DP'
S'ADVDAP'
tp1006
F1
s(g915
S'ADVADVADVPNP'
tp1007
F2
s(S'AP'
S'ADVAPP'
tp1008
F9
s(S'DP'
S'DDADVAPP'
tp1009
F2
s(S'DP'
S'ADVDAVP'
tp1010
F1
s(S'MP'
S'ADVADVMNP'
tp1011
F1
s(S'CP'
S'AACDP'
tp1012
F6
s(S'NP'
S'NNNCCP'
tp1013
F1
s(S'CP'
S'CCDDDP'
tp1014
F2
s(S'DP'
S'ADVDPPP'
tp1015
F3
s(g600
S'DVP'
tp1016
F389
s(S'NP'
S'NADVADVADVADVVVP'
tp1017
F1
s(g69
S'ADVNPP'
tp1018
F10
s(S'VP'
S'ADVADVADVVVNP'
tp1019
F1
s(S'VP'
S'VVAMP'
tp1020
F2
s(S'NP'
S'NNCCCP'
tp1021
F2
s(g491
S'AVP'
tp1022
F61
s(S'NP'
S'NADVVP'
tp1023
F25
s(g517
S'NNADVADVVP'
tp1024
F1
s(g598
S'PPADVADVANP'
tp1025
F1
s(g307
S'ADVVPPP'
tp1026
F2
s(g305
S'DDPPP'
tp1027
F31
s(g873
S'ADVNMP'
tp1028
F15
s(S'NP'
S'NNAP'
tp1029
F15
s(S'NP'
S'NNADVPPP'
tp1030
F1
s(S'MP'
S'MADVVCP'
tp1031
F4
s(S'PP'
S'PPANP'
tp1032
F2
s(S'VP'
S'AAAVNP'
tp1033
F1
s(g903
S'CDADVPP'
tp1034
F16
s(g82
S'VNP'
tp1035
F400
s(S'VP'
S'VANP'
tp1036
F31
s(S'VP'
S'VADVAP'
tp1037
F16
s(S'PP'
S'PPADVNP'
tp1038
F3
s(S'MP'
S'MANNPP'
tp1039
F1
s(g537
S'ADVADVVVDP'
tp1040
F5
s(g675
S'NADVPPP'
tp1041
F3
s.