ccollections
defaultdict
p1
(c__builtin__
float
p2
tRp3
(S'AP'
S'ADVADVADVAADP'
tp4
F2
s(S'DP'
p5
S'DDADVANP'
tp6
F1
s(S'MP'
S'MMDP'
tp7
F1
s(S'NP'
S'NAMP'
tp8
F8
s(S'VP'
p9
S'ADVVADVDDP'
tp10
F1
s(S'DP'
S'DDDPPPPP'
tp11
F1
s(S'DP'
p12
S'ADVADVADVADVDDNP'
tp13
F1
s(S'PP'
p14
S'PAAANP'
tp15
F5
s(S'DP'
S'ADDPP'
tp16
F11
s(S'DP'
p17
S'DDAP'
tp18
F12
s(S'VP'
p19
S'ADVVVNP'
tp20
F4
s(S'AP'
S'AADDDP'
tp21
F2
s(S'CP'
S'CCDDDDP'
tp22
F3
s(S'VP'
S'VVVVP'
tp23
F4
s(S'DP'
p24
S'DAANNP'
tp25
F3
s(S'MP'
S'MMAVVP'
tp26
F1
s(S'AP'
S'AVVVP'
tp27
F2
s(S'PP'
p28
S'ADVADVPAP'
tp29
F1
s(S'PP'
p30
S'PAPP'
tp31
F36
s(S'PP'
p32
S'PADVNP'
tp33
F45
s(S'DP'
p34
S'DNP'
tp35
F646
s(S'PP'
S'PPADVAVP'
tp36
F2
s(S'DP'
p37
S'AADDNP'
tp38
F1
s(S'NP'
p39
S'ADVNDP'
tp40
F10
s(S'PP'
S'AAPDDP'
tp41
F3
s(S'NP'
S'ADVNPPP'
tp42
F2
s(S'NP'
S'NNNMMP'
tp43
F1
s(S'CP'
S'CDPPP'
tp44
F246
s(S'MP'
S'MAVPP'
tp45
F1
s(S'MP'
S'MADVADVVCP'
tp46
F1
s(S'VP'
p47
S'VADP'
tp48
F66
s(S'DP'
S'DNNNNP'
tp49
F3
s(S'CP'
p50
S'ACADVADVDP'
tp51
F1
s(S'CP'
p52
S'CDAAPPP'
tp53
F2
s(S'DP'
p54
S'DAAP'
tp55
F21
s(S'CP'
S'ADVAAACDP'
tp56
F1
s(S'VP'
S'AAVPPP'
tp57
F3
s(S'PP'
S'PPPPPP'
tp58
F7
s(S'VP'
p59
S'VAVP'
tp60
F4
s(S'PP'
p61
S'APPDP'
tp62
F5
s(S'CP'
S'CADVADVDPPP'
tp63
F3
s(S'VP'
S'ADVADVADVVVPP'
tp64
F1
s(S'DP'
S'ADNNP'
tp65
F11
s(S'VP'
S'AVADVDP'
tp66
F1
s(S'VP'
S'VADVVVP'
tp67
F1
s(S'CP'
p68
S'CCCADVADVDP'
tp69
F1
s(S'MP'
S'MDVP'
tp70
F3
s(S'VP'
S'ADVAVCCP'
tp71
F1
s(S'VP'
S'ADVVAAPP'
tp72
F1
s(S'VP'
p73
S'ADVVNP'
tp74
F38
s(S'MP'
S'MVDP'
tp75
F43
s(S'NP'
p76
S'ADVADVNAANP'
tp77
F1
s(S'NP'
S'AANNPP'
tp78
F1
s(S'PP'
p79
S'PPPP'
tp80
F156
s(S'DP'
S'DDDNP'
tp81
F21
s(S'AP'
S'APPPPP'
tp82
F1
s(S'MP'
S'MMADVVP'
tp83
F2
s(S'MP'
S'AMCP'
tp84
F1
s(S'VP'
S'VACP'
tp85
F23
s(S'AP'
S'AAAVP'
tp86
F6
s(S'PP'
S'PPAAP'
tp87
F8
s(S'NP'
S'NNADVDDP'
tp88
F1
s(S'DP'
S'DADVVP'
tp89
F17
s(S'VP'
S'ADVVVANP'
tp90
F1
s(S'DP'
S'DDDDDP'
tp91
F1
s(S'AP'
S'AADVPP'
tp92
F2
s(S'AP'
S'ADVADVAAAP'
tp93
F1
s(S'NP'
p94
S'NADVACP'
tp95
F3
s(S'NP'
S'NAAVVP'
tp96
F1
s(S'NP'
S'NDDDP'
tp97
F3
s(S'NP'
S'NCCCP'
tp98
F25
s(S'CP'
S'CADVADVDDPP'
tp99
F2
s(S'VP'
S'VCP'
tp100
F376
s(S'NP'
S'ADVNNP'
tp101
F1
s(S'NP'
S'NMMP'
tp102
F23
s(S'MP'
S'MAVDDP'
tp103
F1
s(S'MP'
S'MADVVPP'
tp104
F1
s(S'VP'
p105
S'ADVVAAP'
tp106
F1
s(S'NP'
S'NNADVAP'
tp107
F2
s(S'CP'
S'CAAADPPP'
tp108
F1
s(S'VP'
S'VVVVDP'
tp109
F2
s(S'PP'
p110
S'PAP'
tp111
F265
s(S'MP'
S'MMVVP'
tp112
F4
s(S'VP'
S'VADVADVAP'
tp113
F3
s(S'NP'
S'ANNCCP'
tp114
F1
s(S'PP'
p115
S'ADVPPVP'
tp116
F5
s(S'VP'
S'ADVADVVPPP'
tp117
F1
s(S'NP'
S'NNNAP'
tp118
F1
s(S'CP'
S'AAAACDP'
tp119
F1
s(g30
S'APVVP'
tp120
F13
s(S'VP'
S'ADVVCCP'
tp121
F3
s(S'NP'
S'NAAAVP'
tp122
F1
s(S'PP'
S'PPADVDP'
tp123
F4
s(S'VP'
p124
S'AAVNNP'
tp125
F1
s(g110
S'PNP'
tp126
F625
s(S'NP'
S'ADVADVADVNNCP'
tp127
F1
s(S'NP'
S'ADVANADVVP'
tp128
F1
s(S'NP'
S'ADVADVADVNCP'
tp129
F1
s(S'DP'
p130
S'DDP'
tp131
F213
s(S'MP'
p132
S'MADVAVNP'
tp133
F1
s(S'PP'
p134
S'PPMMP'
tp135
F1
s(S'VP'
p136
S'ADVVDDP'
tp137
F7
s(S'NP'
S'NNNPP'
tp138
F11
s(g32
S'PAAP'
tp139
F44
s(S'MP'
p140
S'MCDP'
tp141
F20
s(S'CP'
p142
S'AACCDP'
tp143
F2
s(S'DP'
S'DDAANP'
tp144
F1
s(S'NP'
p145
S'NNADVADVCP'
tp146
F2
s(S'AP'
S'AANP'
tp147
F1
s(S'PP'
S'PADVVVP'
tp148
F3
s(S'NP'
p149
S'NMP'
tp150
F149
s(S'NP'
S'ADVADVNAP'
tp151
F1
s(S'VP'
S'VVAAAACP'
tp152
F1
s(S'CP'
S'CADVDADVPP'
tp153
F1
s(S'VP'
S'VAAADP'
tp154
F1
s(g9
S'AAVNP'
tp155
F7
s(S'VP'
p156
S'VMMP'
tp157
F3
s(g110
S'PDP'
tp158
F629
s(S'DP'
S'DDPPPPP'
tp159
F1
s(S'CP'
S'CCADVADVDP'
tp160
F1
s(S'CP'
p161
S'CDADVADVPP'
tp162
F8
s(S'VP'
S'VVVADVPP'
tp163
F1
s(S'NP'
p164
S'ADVNVVP'
tp165
F5
s(S'VP'
p166
S'VNNNNP'
tp167
F2
s(S'PP'
S'ADVADVADVADVPDP'
tp168
F1
s(S'NP'
p169
S'AAANVVP'
tp170
F1
s(S'VP'
S'VVVDDP'
tp171
F1
s(S'MP'
S'MADVVNP'
tp172
F1
s(S'CP'
S'CDADVADVPPP'
tp173
F1
s(S'DP'
p174
S'ADVADVDAPP'
tp175
F2
s(S'VP'
S'VVVADVPPP'
tp176
F1
s(S'VP'
S'VVVADVADVNNP'
tp177
F1
s(S'NP'
S'NACCP'
tp178
F4
s(S'AP'
S'ANP'
tp179
F2
s(S'NP'
S'NADVADVADVVP'
tp180
F2
s(S'PP'
S'PADVPP'
tp181
F10
s(S'PP'
S'PDDDDP'
tp182
F1
s(S'NP'
p183
S'NNADVCP'
tp184
F4
s(S'VP'
S'VVADVNP'
tp185
F2
s(S'PP'
S'PPADVAP'
tp186
F1
s(S'MP'
S'MVACP'
tp187
F1
s(S'DP'
S'DDAAPPP'
tp188
F1
s(S'DP'
p189
S'AADDVP'
tp190
F1
s(S'PP'
p191
S'AAPPPP'
tp192
F1
s(S'NP'
S'ANNPPPP'
tp193
F1
s(S'DP'
S'DPPPP'
tp194
F26
s(S'DP'
p195
S'DDANP'
tp196
F10
s(S'PP'
S'PADVADP'
tp197
F4
s(S'NP'
p198
S'NACP'
tp199
F85
s(S'AP'
S'ADVAVP'
tp200
F5
s(g149
S'NCCP'
tp201
F228
s(S'CP'
S'CDDDDPPP'
tp202
F1
s(S'VP'
S'VVADVCP'
tp203
F1
s(S'VP'
S'VANNP'
tp204
F8
s(g52
S'CADVDDPP'
tp205
F8
s(S'VP'
S'VVVVVP'
tp206
F2
s(S'NP'
p207
S'NNCP'
tp208
F210
s(S'DP'
p209
S'ADVDDPP'
tp210
F10
s(S'NP'
p211
S'NADVADVVP'
tp212
F5
s(S'NP'
S'NNPPPP'
tp213
F1
s(S'DP'
S'DDDDP'
tp214
F6
s(S'DP'
S'ADVADVADVDDPP'
tp215
F1
s(S'CP'
p216
S'CDDPPPP'
tp217
F3
s(g124
S'AVNP'
tp218
F43
s(g59
S'VVADP'
tp219
F2
s(S'CP'
S'CCADVADVADVDP'
tp220
F1
s(g79
S'AAPPAP'
tp221
F1
s(S'AP'
p222
S'AAADVVP'
tp223
F1
s(S'NP'
S'NADVADVPP'
tp224
F1
s(S'VP'
S'AAAAVCCP'
tp225
F1
s(S'PP'
S'ADVPVVP'
tp226
F6
s(S'DP'
p227
S'ADADVNP'
tp228
F1
s(S'VP'
S'ADVADVVVADVAP'
tp229
F1
s(S'PP'
S'PADVADVDP'
tp230
F5
s(S'VP'
S'VVMP'
tp231
F3
s(g9
S'VADVVP'
tp232
F2
s(S'CP'
S'ACCDDP'
tp233
F1
s(S'MP'
S'MVAPP'
tp234
F1
s(S'MP'
p235
S'MVPPP'
tp236
F2
s(S'NP'
p237
S'ANADVVP'
tp238
F3
s(S'PP'
p239
S'ADVAPVP'
tp240
F5
s(S'AP'
p241
S'AAADVADVVP'
tp242
F1
s(S'PP'
S'PPADVADVMMP'
tp243
F1
s(S'PP'
S'AAPAADDP'
tp244
F1
s(S'DP'
p245
S'AAADPPPP'
tp246
F1
s(S'NP'
S'NCCCCP'
tp247
F3
s(S'CP'
S'CCCDP'
tp248
F34
s(g124
S'ADVVAP'
tp249
F13
s(S'PP'
S'ADVPPNNP'
tp250
F1
s(S'VP'
S'VCCCP'
tp251
F2
s(S'VP'
p252
S'VVADVADVDDP'
tp253
F2
s(S'AP'
S'AAADDP'
tp254
F2
s(g32
S'APDP'
tp255
F100
s(S'NP'
S'ADVADVANNNP'
tp256
F1
s(S'PP'
S'ADVPPAVP'
tp257
F1
s(S'VP'
S'ADVVNNP'
tp258
F4
s(S'PP'
p259
S'ADVADVPAAVP'
tp260
F1
s(S'MP'
S'AMAP'
tp261
F1
s(g169
S'ADVADVNPP'
tp262
F5
s(S'NP'
S'ANNPP'
tp263
F7
s(g47
S'VVANP'
tp264
F12
s(S'NP'
S'AANNP'
tp265
F1
s(S'PP'
p266
S'ADVPNNP'
tp267
F4
s(S'VP'
S'ADVVVP'
tp268
F1
s(S'PP'
S'ADVADVADVPDP'
tp269
F1
s(S'PP'
p270
S'PPADVADVNNP'
tp271
F1
s(S'CP'
S'CADADVPPP'
tp272
F1
s(S'NP'
S'ADVADVNPPP'
tp273
F1
s(S'DP'
S'DADVADVADVPP'
tp274
F1
s(S'NP'
S'ADVADVNNPP'
tp275
F1
s(S'PP'
S'PPADVADVAP'
tp276
F1
s(S'CP'
S'CCCADP'
tp277
F3
s(S'PP'
p278
S'PCCP'
tp279
F3
s(S'DP'
S'ADVADNNP'
tp280
F1
s(S'NP'
p281
S'ADVANCP'
tp282
F9
s(S'PP'
S'ADVADVPAVP'
tp283
F1
s(S'DP'
p284
S'DNNP'
tp285
F245
s(S'NP'
p286
S'NADVADVADVDP'
tp287
F2
s(S'DP'
p288
S'DPPPPP'
tp289
F5
s(S'VP'
S'AVVNNP'
tp290
F1
s(S'CP'
p291
S'CCADVDP'
tp292
F11
s(g156
S'VVNNNP'
tp293
F6
s(S'VP'
p294
S'VVACP'
tp295
F3
s(S'DP'
S'ADDNP'
tp296
F9
s(S'NP'
p297
S'NNNVP'
tp298
F15
s(S'PP'
S'PAAVVP'
tp299
F1
s(S'PP'
S'PPADVANP'
tp300
F3
s(g156
S'VADVNNP'
tp301
F7
s(g266
S'AAPPDP'
tp302
F1
s(S'PP'
S'ADVAPVVP'
tp303
F1
s(S'PP'
S'PPNNNNP'
tp304
F1
s(S'MP'
S'AAMVP'
tp305
F1
s(S'PP'
S'PADVVP'
tp306
F39
s(S'DP'
p307
S'DDDADVADVADVVVP'
tp308
F1
s(S'DP'
S'DADVADVADVPPP'
tp309
F2
s(S'CP'
S'CADVADVADVDAPP'
tp310
F1
s(S'DP'
p311
S'ADADDP'
tp312
F1
s(g259
S'APAP'
tp313
F16
s(S'CP'
S'ADVADVCDP'
tp314
F11
s(S'VP'
S'VVADVADVAAP'
tp315
F1
s(S'AP'
S'ACCCP'
tp316
F6
s(S'VP'
S'ADVAVMP'
tp317
F1
s(S'NP'
S'NADVMP'
tp318
F4
s(S'PP'
p319
S'PPADP'
tp320
F10
s(S'VP'
S'VADVADVVP'
tp321
F2
s(g73
S'VVAPP'
tp322
F1
s(S'NP'
S'ADVADVNDP'
tp323
F2
s(S'DP'
S'DADVADVNP'
tp324
F7
s(S'NP'
S'ADVANPP'
tp325
F1
s(g140
S'MVVCP'
tp326
F6
s(S'VP'
p327
S'VADVADVNP'
tp328
F7
s(S'CP'
S'CDDDDPP'
tp329
F5
s(S'DP'
S'ADADVDP'
tp330
F1
s(S'NP'
S'ANADVCCP'
tp331
F1
s(S'MP'
S'MVVVNP'
tp332
F1
s(g79
S'PAANP'
tp333
F19
s(S'VP'
p334
S'VADVADVCP'
tp335
F2
s(S'PP'
S'PPPDDDP'
tp336
F1
s(S'CP'
S'ACCADVDP'
tp337
F1
s(S'PP'
p338
S'PPVVP'
tp339
F35
s(g105
S'VAACP'
tp340
F1
s(S'CP'
S'CAADADVADVPPP'
tp341
F1
s(S'VP'
p342
S'VAAAP'
tp343
F5
s(S'MP'
S'MMMPPP'
tp344
F1
s(S'VP'
S'VVADVANP'
tp345
F1
s(S'MP'
p346
S'MVNP'
tp347
F46
s(S'MP'
S'AMVP'
tp348
F7
s(S'NP'
p349
S'NNNNP'
tp350
F1
s(S'NP'
p351
S'ADVNNAAVP'
tp352
F1
s(S'CP'
p353
S'CDDDPPP'
tp354
F8
s(S'DP'
S'ADVADNP'
tp355
F3
s(S'PP'
p356
S'PAVP'
tp357
F72
s(S'MP'
S'ADVMVP'
tp358
F7
s(S'PP'
p359
S'ADVADVPPVP'
tp360
F1
s(S'NP'
S'NNADVADVANP'
tp361
F1
s(S'AP'
S'AADVVVP'
tp362
F1
s(S'CP'
S'AACDDP'
tp363
F2
s(S'DP'
S'DDAPPP'
tp364
F1
s(S'VP'
p365
S'VVVPP'
tp366
F11
s(S'CP'
S'CADVADVADPP'
tp367
F1
s(S'CP'
S'ADVCADP'
tp368
F6
s(S'PP'
S'APPPP'
tp369
F13
s(S'DP'
p370
S'DADP'
tp371
F8
s(S'DP'
S'DADVADVPPP'
tp372
F2
s(S'AP'
p373
S'ADVADP'
tp374
F10
s(S'AP'
S'APP'
tp375
F109
s(S'VP'
S'ADVADVVAPP'
tp376
F1
s(S'VP'
S'VVADVPP'
tp377
F3
s(S'DP'
p378
S'ADVDDP'
tp379
F3
s(S'PP'
p380
S'APDDP'
tp381
F13
s(S'AP'
S'AAADVCP'
tp382
F1
s(S'MP'
S'MVVVADVPPP'
tp383
F1
s(S'DP'
p384
S'DADVADDP'
tp385
F1
s(S'DP'
S'DAAAVP'
tp386
F1
s(S'DP'
S'ADVADVDAP'
tp387
F1
s(S'PP'
p388
S'PPCP'
tp389
F3
s(S'PP'
S'APVP'
tp390
F64
s(S'VP'
S'VVVADVCCP'
tp391
F1
s(S'VP'
p392
S'VVNP'
tp393
F137
s(S'PP'
p394
S'ADVPAVP'
tp395
F4
s(S'VP'
S'VVVCP'
tp396
F6
s(S'DP'
S'DADVCCP'
tp397
F1
s(g115
S'PPVP'
tp398
F160
s(S'PP'
p399
S'PPADVADVPP'
tp400
F2
s(S'VP'
p401
S'VADVDP'
tp402
F27
s(S'MP'
S'MVVVPP'
tp403
F1
s(S'PP'
S'PADVANP'
tp404
F3
s(S'MP'
S'MVADVDP'
tp405
F1
s(S'VP'
p406
S'VAAP'
tp407
F50
s(S'CP'
S'ADVCDDP'
tp408
F8
s(g351
S'ANDP'
tp409
F25
s(S'NP'
S'NVVP'
tp410
F158
s(g278
S'AAPVP'
tp411
F6
s(S'AP'
S'AAP'
tp412
F20
s(S'VP'
p413
S'VMP'
tp414
F19
s(S'NP'
p415
S'ADVNAAVP'
tp416
F1
s(S'VP'
p417
S'VVNNP'
tp418
F28
s(g291
S'CDAPP'
tp419
F113
s(S'VP'
S'VVAAP'
tp420
F8
s(g346
S'MMPP'
tp421
F2
s(S'DP'
S'ADVADVP'
tp422
F1
s(S'CP'
p423
S'CADVADPP'
tp424
F6
s(S'DP'
S'ADNP'
tp425
F90
s(S'DP'
p426
S'DDAAAAPP'
tp427
F1
s(S'DP'
S'ADNNNNP'
tp428
F1
s(g9
S'ADVVACP'
tp429
F1
s(S'PP'
S'PADP'
tp430
F82
s(S'NP'
S'NNAADP'
tp431
F2
s(S'VP'
p432
S'ADVVVCP'
tp433
F5
s(S'DP'
S'DDDPPPP'
tp434
F1
s(g39
S'NADVADVADVVVP'
tp435
F2
s(S'NP'
p436
S'ANDDP'
tp437
F7
s(g145
S'ANAAP'
tp438
F2
s(S'MP'
S'MPADVNP'
tp439
F1
s(S'DP'
S'ADVADVDVP'
tp440
F2
s(S'DP'
p441
S'DADVAP'
tp442
F4
s(S'PP'
p443
S'ADVADVPMP'
tp444
F1
s(S'VP'
S'AAVVADVCP'
tp445
F1
s(g195
S'DAPP'
tp446
F163
s(S'VP'
p447
S'AVVP'
tp448
F7
s(S'VP'
S'VVVVPP'
tp449
F1
s(S'VP'
S'ADVADVVPP'
tp450
F2
s(S'NP'
S'AANNVVVP'
tp451
F1
s(g378
S'DAAVP'
tp452
F11
s(S'VP'
p453
S'ADVADVADVVDP'
tp454
F6
s(S'PP'
p455
S'AAAPVP'
tp456
F3
s(S'NP'
S'ADVADVNNDP'
tp457
F1
s(g294
S'ADVADVVDP'
tp458
F10
s(S'VP'
p459
S'AVVNP'
tp460
F5
s(g338
S'PPPDP'
tp461
F15
s(g209
S'DAAPPP'
tp462
F2
s(g132
S'MVVVDP'
tp463
F1
s(S'DP'
S'DDDANP'
tp464
F1
s(S'PP'
S'ADVADVPNNP'
tp465
F2
s(g134
S'AAAPDP'
tp466
F1
s(g5
S'DDAAVP'
tp467
F1
s(S'AP'
S'AAPPP'
tp468
F1
s(S'VP'
S'VDDDDP'
tp469
F2
s(S'DP'
S'DAAANP'
tp470
F4
s(g423
S'CCAAAADP'
tp471
F1
s(g334
S'VAAPP'
tp472
F4
s(S'CP'
S'CCCDDP'
tp473
F7
s(g17
S'ADVDNP'
tp474
F38
s(S'VP'
p475
S'VVPP'
tp476
F74
s(S'VP'
S'VADVAPP'
tp477
F2
s(S'DP'
S'ADADVPP'
tp478
F2
s(S'PP'
p479
S'PAVVP'
tp480
F5
s(S'MP'
S'MVPP'
tp481
F30
s(g370
S'ADVP'
tp482
F43
s(S'MP'
S'MVADP'
tp483
F1
s(S'CP'
S'CDDPPP'
tp484
F42
s(S'MP'
S'MDDNP'
tp485
F1
s(g436
S'NNPP'
tp486
F106
s(S'MP'
S'MPDDP'
tp487
F1
s(S'NP'
S'NADVADVADVACP'
tp488
F1
s(S'DP'
S'DDDDNP'
tp489
F2
s(S'MP'
S'MVVDP'
tp490
F2
s(S'AP'
p491
S'AACP'
tp492
F42
s(S'PP'
p493
S'PPADVAAP'
tp494
F1
s(g297
S'ANVP'
tp495
F71
s(S'PP'
S'APADVCP'
tp496
F1
s(S'VP'
S'VVADVCCP'
tp497
F2
s(g370
S'DNNNP'
tp498
F12
s(S'DP'
S'ADVDADVPP'
tp499
F1
s(S'MP'
S'MPPDP'
tp500
F1
s(S'VP'
S'VADVADVPPP'
tp501
F1
s(S'PP'
S'PADVADVVP'
tp502
F6
s(S'VP'
S'VADVDDP'
tp503
F5
s(g356
S'PMMP'
tp504
F7
s(S'PP'
p505
S'PVVVP'
tp506
F10
s(g61
S'PMP'
tp507
F62
s(S'NP'
S'NNMMP'
tp508
F2
s(S'DP'
S'DDDADVADVNP'
tp509
F1
s(g266
S'PAAPPP'
tp510
F3
s(S'CP'
p511
S'CCDP'
tp512
F285
s(S'NP'
p513
S'ADVNNDP'
tp514
F1
s(S'DP'
p515
S'ADVADVADVDPP'
tp516
F4
s(g39
S'ANADVDP'
tp517
F1
s(S'VP'
p518
S'VADVANP'
tp519
F7
s(S'PP'
S'PPNNNP'
tp520
F3
s(S'DP'
S'AADDPP'
tp521
F5
s(S'DP'
S'DDDMP'
tp522
F1
s(S'NP'
p523
S'NVVVP'
tp524
F18
s(S'CP'
p525
S'CDDDPP'
tp526
F22
s(S'DP'
S'AADADVADVPPP'
tp527
F1
s(S'CP'
p528
S'CDAAPP'
tp529
F14
s(S'VP'
S'VVVDP'
tp530
F18
s(S'NP'
p531
S'NADVAP'
tp532
F6
s(g356
S'PNNNP'
tp533
F16
s(g511
S'CCCCDP'
tp534
F3
s(g76
S'ANMMP'
tp535
F1
s(S'DP'
p536
S'ADVADVADVADPP'
tp537
F1
s(S'VP'
S'VAVVP'
tp538
F1
s(g373
S'AACCP'
tp539
F6
s(g455
S'AAPNP'
tp540
F10
s(S'CP'
S'CADADVPP'
tp541
F2
s(S'DP'
S'AADCCP'
tp542
F1
s(S'PP'
p543
S'PPP'
tp544
F426
s(S'AP'
S'ADVAACCP'
tp545
F1
s(S'NP'
p546
S'NNADVDP'
tp547
F4
s(g198
S'NAVP'
tp548
F51
s(S'PP'
S'PADVAP'
tp549
F7
s(S'DP'
S'DDNNNP'
tp550
F2
s(S'VP'
S'VVVVCCP'
tp551
F1
s(S'PP'
S'APMP'
tp552
F1
s(S'PP'
p553
S'PADDP'
tp554
F7
s(S'CP'
S'CADVDPPPP'
tp555
F1
s(g288
S'ADVDVP'
tp556
F12
s(S'CP'
S'CDDAAAAPP'
tp557
F1
s(S'NP'
S'NAAAP'
tp558
F3
s(S'PP'
S'PPAAVVP'
tp559
F1
s(S'NP'
S'NADVVVP'
tp560
F4
s(S'DP'
S'ADVADVDNNP'
tp561
F2
s(S'AP'
S'AADVVP'
tp562
F2
s(S'PP'
S'PPPPDP'
tp563
F4
s(S'VP'
S'ADVADVVVPP'
tp564
F1
s(g17
S'ADVADVDNP'
tp565
F5
s(S'VP'
S'VAAAAP'
tp566
F2
s(S'VP'
p567
S'VPP'
tp568
F408
s(S'PP'
p569
S'AAAPPDP'
tp570
F1
s(g161
S'ADVCCDP'
tp571
F9
s(g50
S'CADVDAPP'
tp572
F1
s(S'PP'
p573
S'PPPADVVVP'
tp574
F2
s(S'DP'
p575
S'ADVDDPPP'
tp576
F1
s(S'DP'
S'ADVDDNP'
tp577
F8
s(g169
S'AANPPP'
tp578
F1
s(g351
S'NNNCP'
tp579
F19
s(g259
S'PADVDP'
tp580
F29
s(S'CP'
S'CDADVAPP'
tp581
F6
s(S'CP'
S'CCCAADP'
tp582
F1
s(S'CP'
p583
S'CDDDADVADVPPP'
tp584
F1
s(g189
S'DANNP'
tp585
F9
s(S'PP'
S'PADVAAP'
tp586
F2
s(S'CP'
p587
S'CDDPP'
tp588
F194
s(S'DP'
p589
S'DAAPP'
tp590
F23
s(g380
S'PVVP'
tp591
F164
s(S'CP'
S'CADPPP'
tp592
F19
s(S'DP'
p593
S'DADVPPP'
tp594
F11
s(g392
S'ADVAVDDP'
tp595
F2
s(S'MP'
S'MAVCP'
tp596
F2
s(S'VP'
p597
S'ADVVCP'
tp598
F23
s(S'MP'
S'MCCDP'
tp599
F2
s(g73
S'VPPP'
tp600
F70
s(g105
S'AVCCP'
tp601
F2
s(S'AP'
S'ADVAADP'
tp602
F3
s(g37
S'ADVADVDDNP'
tp603
F3
s(S'VP'
S'VVPPP'
tp604
F13
s(g384
S'ADVADDPPP'
tp605
F1
s(S'VP'
S'AADVAVVPP'
tp606
F1
s(S'MP'
S'MVAACCP'
tp607
F1
s(S'VP'
p608
S'ADVVVCCP'
tp609
F1
s(g149
S'ADVANCCCCP'
tp610
F1
s(g319
S'PPAP'
tp611
F37
s(g130
S'DVVP'
tp612
F114
s(S'PP'
p613
S'PADVAVP'
tp614
F6
s(S'PP'
S'PPADVADVADVVP'
tp615
F1
s(S'CP'
S'CADVADVDAPP'
tp616
F1
s(S'CP'
S'CDDAAPP'
tp617
F4
s(S'NP'
S'ANMP'
tp618
F6
s(S'AP'
S'APPP'
tp619
F19
s(S'PP'
S'ADVPPP'
tp620
F13
s(S'DP'
S'ADVADPPP'
tp621
F3
s(g207
S'ADVADVNVP'
tp622
F8
s(g216
S'ADVCADDP'
tp623
F2
s(S'VP'
S'VVVP'
tp624
F29
s(S'NP'
S'ADVNNCCP'
tp625
F1
s(S'DP'
p626
S'DDPPPP'
tp627
F6
s(S'NP'
S'ADVADVNNVP'
tp628
F1
s(S'PP'
S'ADVPAPP'
tp629
F1
s(S'AP'
S'ACCCCP'
tp630
F1
s(S'NP'
S'ANCP'
tp631
F126
s(g426
S'ADVDDDPP'
tp632
F1
s(S'VP'
S'ADVADVADVVDDP'
tp633
F1
s(g209
S'DCP'
tp634
F42
s(S'VP'
S'AVADVCCP'
tp635
F1
s(S'DP'
p636
S'DVVVP'
tp637
F11
s(S'DP'
S'DDDNNP'
tp638
F2
s(g59
S'ADVVVVP'
tp639
F2
s(g493
S'PPADVPP'
tp640
F3
s(S'DP'
S'DADVADVADVNP'
tp641
F1
s(S'MP'
S'MAPNNP'
tp642
F1
s(S'PP'
S'ADVADVADVPPNP'
tp643
F1
s(S'VP'
S'AAVVCP'
tp644
F1
s(g130
S'DDDP'
tp645
F46
s(S'MP'
S'MADVVDP'
tp646
F1
s(S'VP'
S'VVADVADVPPP'
tp647
F1
s(S'DP'
S'DDADVPP'
tp648
F12
s(S'VP'
S'VVADVAPP'
tp649
F1
s(S'MP'
S'MAADP'
tp650
F3
s(S'NP'
S'ANVVP'
tp651
F9
s(g198
S'NVVVVP'
tp652
F4
s(g142
S'AAADVCAADP'
tp653
F1
s(g207
S'NPPP'
tp654
F101
s(S'VP'
p655
S'AAVADVDDP'
tp656
F1
s(S'PP'
S'PPAPP'
tp657
F5
s(S'DP'
S'AADVVP'
tp658
F2
s(S'MP'
S'AMVVP'
tp659
F2
s(S'DP'
p660
S'DAVP'
tp661
F42
s(S'DP'
p662
S'DDADVADVPP'
tp663
F2
s(S'AP'
p664
S'ACP'
tp665
F159
s(S'PP'
S'AAPAP'
tp666
F1
s(S'PP'
S'PAAAPP'
tp667
F2
s(S'PP'
S'ADVADVPPP'
tp668
F3
s(S'PP'
S'PADVADVNNP'
tp669
F1
s(g110
S'PPNP'
tp670
F175
s(S'VP'
p671
S'AAAVVVVP'
tp672
F1
s(S'AP'
p673
S'ADVACCP'
tp674
F4
s(S'NP'
S'NAADP'
tp675
F4
s(S'DP'
S'ADVDAPP'
tp676
F1
s(S'CP'
S'CDDPPPPP'
tp677
F1
s(g28
S'APADVADVVP'
tp678
F1
s(g384
S'AADVP'
tp679
F3
s(S'VP'
S'VVVVNNP'
tp680
F1
s(g270
S'ADVADVPANNP'
tp681
F1
s(S'CP'
S'ADVADVADVACDP'
tp682
F1
s(S'CP'
S'CDDADVPP'
tp683
F7
s(S'DP'
S'AADNP'
tp684
F14
s(g664
S'ADP'
tp685
F424
s(S'DP'
p686
S'DADVADVADVVP'
tp687
F1
s(S'CP'
S'CADVDDPPP'
tp688
F1
s(S'CP'
S'CADVDPP'
tp689
F65
s(g183
S'ANPPP'
tp690
F8
s(S'DP'
p691
S'ADVADVDDDNP'
tp692
F1
s(S'AP'
S'ADVAADDP'
tp693
F3
s(S'DP'
p694
S'AAAADPP'
tp695
F3
s(S'DP'
S'DDADVVP'
tp696
F1
s(g573
S'ADVPAAVP'
tp697
F1
s(S'VP'
S'ADVVVAANP'
tp698
F1
s(S'VP'
S'VAAANP'
tp699
F1
s(S'PP'
S'APAVVP'
tp700
F1
s(S'MP'
S'MADDP'
tp701
F1
s(S'PP'
S'APPAP'
tp702
F2
s(S'VP'
S'VVPPPP'
tp703
F1
s(S'PP'
p704
S'ADVPADVPP'
tp705
F2
s(S'NP'
S'NADVADVAP'
tp706
F1
s(S'VP'
S'AAAVDP'
tp707
F1
s(S'VP'
p708
S'ADVADVVNNP'
tp709
F1
s(S'AP'
p710
S'AAADP'
tp711
F11
s(g523
S'ANNVP'
tp712
F5
s(S'PP'
S'PCCCP'
tp713
F1
s(g166
S'VVAP'
tp714
F30
s(S'NP'
S'NNAPP'
tp715
F5
s(S'PP'
p716
S'ADVPADVDDDP'
tp717
F1
s(S'VP'
S'VADVADVADVPP'
tp718
F1
s(S'NP'
S'ANNDP'
tp719
F1
s(S'AP'
S'AAAADVDP'
tp720
F1
s(S'NP'
S'ADVANPPP'
tp721
F1
s(S'CP'
S'CDDDAPP'
tp722
F2
s(S'DP'
S'ADVADVADAAAP'
tp723
F1
s(g47
S'VVAPPP'
tp724
F1
s(S'PP'
S'APPVVP'
tp725
F2
s(S'PP'
S'PPADVVP'
tp726
F6
s(S'VP'
S'AAVCP'
tp727
F5
s(S'PP'
S'PADVMP'
tp728
F3
s(S'NP'
p729
S'NNADVCCP'
tp730
F3
s(S'NP'
p731
S'NADVADVDP'
tp732
F2
s(S'VP'
S'ADVADVVAP'
tp733
F2
s(g149
S'NVP'
tp734
F588
s(S'PP'
S'PPADVADVADVAAP'
tp735
F1
s(S'PP'
S'PPVVVP'
tp736
F7
s(g79
S'PAAVP'
tp737
F12
s(g134
S'AAPPNP'
tp738
F1
s(S'NP'
S'NAAPP'
tp739
F4
s(S'PP'
S'PPPPVP'
tp740
F4
s(S'NP'
S'ADVNAP'
tp741
F1
s(S'VP'
p742
S'VDDP'
tp743
F148
s(g636
S'DAPPP'
tp744
F9
s(S'NP'
S'ADVADVNACP'
tp745
F1
s(S'VP'
S'VVADVADVNP'
tp746
F3
s(S'PP'
S'PPADDP'
tp747
F1
s(S'AP'
S'AAADVDP'
tp748
F1
s(S'NP'
p749
S'ANNP'
tp750
F2
s(S'NP'
p751
S'AANNVP'
tp752
F1
s(g191
S'PPADVADP'
tp753
F1
s(g691
S'DADVAPP'
tp754
F9
s(g636
S'DDADVADVNNP'
tp755
F1
s(S'NP'
S'NNADVACP'
tp756
F2
s(S'PP'
S'ADVAPAP'
tp757
F1
s(S'NP'
S'ANCCCP'
tp758
F4
s(g149
S'ANPP'
tp759
F76
s(S'PP'
p760
S'ADVPPDP'
tp761
F9
s(g760
S'PPPPP'
tp762
F24
s(S'MP'
S'MPDP'
tp763
F10
s(S'PP'
S'ADVADVPDP'
tp764
F8
s(S'DP'
S'DDADVADVADVVVP'
tp765
F1
s(S'MP'
S'MVVPP'
tp766
F2
s(S'VP'
S'AAVVNP'
tp767
F1
s(S'PP'
S'PPPNP'
tp768
F14
s(S'VP'
S'VVAAPP'
tp769
F1
s(S'NP'
S'ADVNNAAACP'
tp770
F1
s(S'VP'
S'VADVADVADVNNP'
tp771
F1
s(S'PP'
S'PPVVVVP'
tp772
F1
s(S'NP'
S'NPPPP'
tp773
F7
s(g284
S'ADDP'
tp774
F14
s(S'NP'
S'NADVAAP'
tp775
F2
s(S'CP'
S'CDDDADVPP'
tp776
F1
s(S'CP'
S'CAADPP'
tp777
F16
s(g575
S'DADVADVVP'
tp778
F3
s(S'NP'
S'NAACP'
tp779
F14
s(g543
S'PNNP'
tp780
F183
s(g164
S'AAANADVVVP'
tp781
F1
s(S'CP'
S'CDADVADVADVPPP'
tp782
F1
s(S'PP'
p783
S'APNNP'
tp784
F12
s(S'DP'
p785
S'DDDADVADVPPP'
tp786
F1
s(g575
S'DDAAP'
tp787
F4
s(S'MP'
S'MMNP'
tp788
F5
s(S'DP'
S'AAADPP'
tp789
F1
s(S'NP'
S'NAAACP'
tp790
F1
s(S'DP'
p791
S'ADVADVADVDDP'
tp792
F1
s(g447
S'AVAP'
tp793
F11
s(S'MP'
S'MMVP'
tp794
F26
s(S'PP'
S'PADVDDP'
tp795
F1
s(S'AP'
p796
S'AAAADVCP'
tp797
F1
s(S'AP'
S'AAPPPP'
tp798
F1
s(g286
S'ADVNCP'
tp799
F44
s(S'AP'
S'AADP'
tp800
F96
s(S'NP'
S'ADVANNP'
tp801
F1
s(S'DP'
S'DAADVAVVP'
tp802
F1
s(S'NP'
p803
S'NAPPP'
tp804
F1
s(S'CP'
p805
S'ACDP'
tp806
F116
s(S'VP'
S'ADVVDDDP'
tp807
F1
s(g281
S'NNDP'
tp808
F65
s(S'NP'
S'ANADVADVVVP'
tp809
F1
s(S'NP'
S'NNVVVVP'
tp810
F2
s(S'AP'
S'ADVANP'
tp811
F1
s(S'CP'
S'CCCCDDP'
tp812
F2
s(S'NP'
S'NNACP'
tp813
F15
s(S'DP'
S'AAADPPP'
tp814
F1
s(S'VP'
S'ADVVVAAP'
tp815
F1
s(S'NP'
S'ANNVVVP'
tp816
F1
s(S'CP'
S'CDADVPPP'
tp817
F6
s(g742
S'VAP'
tp818
F264
s(g567
S'VVVVNP'
tp819
F4
s(S'MP'
p820
S'MNVVP'
tp821
F1
s(S'PP'
p822
S'PADVAMP'
tp823
F1
s(g660
S'DDDPP'
tp824
F32
s(g608
S'VADVADVAAP'
tp825
F1
s(S'NP'
S'AANNCP'
tp826
F1
s(S'PP'
S'ADVPMP'
tp827
F4
s(g671
S'VVVCCCP'
tp828
F1
s(g32
S'PAAPP'
tp829
F5
s(S'AP'
p830
S'ADVAAPP'
tp831
F2
s(S'AP'
S'AAVVP'
tp832
F2
s(g820
S'MNMP'
tp833
F1
s(g749
S'NAAADVCP'
tp834
F1
s(g169
S'NNPPPPP'
tp835
F1
s(S'DP'
p836
S'DDDPPP'
tp837
F10
s(g47
S'ADVAVDP'
tp838
F6
s(g54
S'ADAP'
tp839
F5
s(g836
S'DADVDP'
tp840
F4
s(S'NP'
S'ADVADVANCCP'
tp841
F1
s(S'CP'
S'CCADVADP'
tp842
F3
s(S'DP'
S'DADVADVADVAPP'
tp843
F1
s(g673
S'AAACP'
tp844
F3
s(S'DP'
S'ADADVVP'
tp845
F1
s(g327
S'ADVVVDP'
tp846
F3
s(S'DP'
S'DAAAP'
tp847
F1
s(S'PP'
S'PPPVP'
tp848
F7
s(S'CP'
S'ACCDP'
tp849
F4
s(g222
S'AADDP'
tp850
F12
s(S'DP'
S'AADPPPP'
tp851
F1
s(S'VP'
S'ADVVADDP'
tp852
F2
s(S'NP'
S'ANNVVP'
tp853
F2
s(S'DP'
S'ADVDPPPP'
tp854
F1
s(S'DP'
S'DADVAAP'
tp855
F2
s(S'VP'
S'VAANP'
tp856
F7
s(S'VP'
S'VVVADVNNP'
tp857
F1
s(g731
S'NADVADVCP'
tp858
F7
s(g785
S'ADVADVDAAPP'
tp859
F2
s(S'PP'
S'PPPCP'
tp860
F2
s(S'VP'
S'ADVADVAVPP'
tp861
F1
s(S'MP'
S'MMVVVVP'
tp862
F1
s(g245
S'DAAADP'
tp863
F1
s(g518
S'VVDP'
tp864
F164
s(g704
S'ADVPAAVVP'
tp865
F2
s(g174
S'DADVADVDP'
tp866
F2
s(S'AP'
S'AAADVAAACP'
tp867
F1
s(S'MP'
S'MPNP'
tp868
F4
s(S'MP'
S'MVAAPP'
tp869
F1
s(S'MP'
p870
S'MADP'
tp871
F7
s(g388
S'PPPDDP'
tp872
F1
s(S'AP'
S'AMMP'
tp873
F1
s(S'CP'
S'CCAADP'
tp874
F9
s(S'MP'
S'MPADP'
tp875
F1
s(S'DP'
S'DDADVNP'
tp876
F3
s(g356
S'PANP'
tp877
F89
s(S'MP'
S'MADVVADVAP'
tp878
F1
s(S'NP'
S'ANNMP'
tp879
F1
s(S'NP'
p880
S'NADVDDP'
tp881
F1
s(S'MP'
S'MVVPPP'
tp882
F2
s(S'PP'
S'AAPAAP'
tp883
F1
s(S'VP'
S'ADVADVVAADP'
tp884
F1
s(S'NP'
S'AANMP'
tp885
F1
s(S'AP'
S'AAVP'
tp886
F17
s(g297
S'NAAP'
tp887
F27
s(S'NP'
S'NDDP'
tp888
F56
s(S'NP'
p889
S'NADVCCP'
tp890
F2
s(g791
S'ADVADVDPPP'
tp891
F4
s(g830
S'ACCP'
tp892
F12
s(S'NP'
S'NNVVVP'
tp893
F4
s(g626
S'DDDADVPP'
tp894
F2
s(g567
S'AVPPP'
tp895
F5
s(S'AP'
S'APPPP'
tp896
F1
s(g149
S'NDP'
tp897
F344
s(S'NP'
S'NNNNVVP'
tp898
F1
s(S'MP'
S'ADVAMVVP'
tp899
F1
s(S'AP'
S'AADVADVDP'
tp900
F1
s(g209
S'DDVP'
tp901
F89
s(S'DP'
S'DDDADVAP'
tp902
F1
s(S'DP'
S'ADADVPPP'
tp903
F1
s(g729
S'AANVP'
tp904
F13
s(S'NP'
S'ADVNCCP'
tp905
F3
s(g575
S'ADDVP'
tp906
F4
s(S'VP'
S'VNNNP'
tp907
F15
s(S'NP'
S'ADVADVNAMP'
tp908
F1
s(S'PP'
S'PPPAAAP'
tp909
F1
s(g365
S'VADVADVPP'
tp910
F6
s(S'PP'
p911
S'ADVPAP'
tp912
F9
s(g14
S'APAPPP'
tp913
F1
s(S'NP'
S'AAANVP'
tp914
F4
s(g30
S'PCP'
tp915
F23
s(S'VP'
S'VADVADP'
tp916
F2
s(S'VP'
S'VAACCP'
tp917
F1
s(S'PP'
S'PAADP'
tp918
F13
s(S'NP'
S'ADVNNVP'
tp919
F3
s(S'MP'
p920
S'MADVVADP'
tp921
F1
s(S'VP'
S'ADVAVNNP'
tp922
F1
s(S'VP'
S'VPPPP'
tp923
F5
s(S'VP'
S'ADVAVCP'
tp924
F4
s(S'VP'
p925
S'VCCP'
tp926
F75
s(g513
S'NADVADVDDP'
tp927
F2
s(S'MP'
S'MVNNNP'
tp928
F1
s(S'NP'
S'NNNDP'
tp929
F4
s(g241
S'ADVACP'
tp930
F12
s(S'PP'
S'AAPNNP'
tp931
F4
s(g319
S'PAPPP'
tp932
F2
s(S'NP'
p933
S'NNVP'
tp934
F173
s(S'NP'
S'NNAAVP'
tp935
F4
s(S'MP'
p936
S'MVCP'
tp937
F37
s(S'PP'
p938
S'PPAAANP'
tp939
F1
s(g587
S'CCDDP'
tp940
F50
s(S'NP'
S'NNADVVP'
tp941
F6
s(S'VP'
S'AVNNNNP'
tp942
F1
s(S'DP'
S'DDADP'
tp943
F1
s(S'DP'
S'DADVADVADVVVP'
tp944
F1
s(S'NP'
S'ADVANAP'
tp945
F1
s(g749
S'NAACCP'
tp946
F1
s(g880
S'NNVVP'
tp947
F25
s(S'NP'
S'NAAMP'
tp948
F1
s(S'PP'
S'PPADVPPP'
tp949
F2
s(S'NP'
S'NNNNVP'
tp950
F2
s(g413
S'VVCP'
tp951
F65
s(S'NP'
p952
S'ADVANADVADVDP'
tp953
F1
s(S'NP'
S'NDDDDP'
tp954
F1
s(S'PP'
p955
S'PADVADVPP'
tp956
F4
s(g281
S'AANCP'
tp957
F20
s(g73
S'VADVNP'
tp958
F21
s(S'VP'
S'VVDDDP'
tp959
F5
s(g796
S'AADVCP'
tp960
F1
s(S'DP'
S'ADVADVDDVP'
tp961
F1
s(S'MP'
S'MDCP'
tp962
F1
s(g327
S'AVVPP'
tp963
F2
s(g94
S'NNDDP'
tp964
F11
s(S'CP'
S'CADVADVADVADPP'
tp965
F1
s(S'DP'
S'DDDDPPP'
tp966
F1
s(S'VP'
S'ADVVPP'
tp967
F15
s(S'VP'
p968
S'VADVADVADVADVDDP'
tp969
F1
s(S'CP'
S'CADVADVADVDDPP'
tp970
F1
s(S'NP'
p971
S'ADVNNVVP'
tp972
F1
s(S'CP'
S'CDAPPP'
tp973
F4
s(g406
S'VNNP'
tp974
F110
s(S'AP'
S'AADVDP'
tp975
F6
s(S'NP'
S'NADP'
tp976
F28
s(S'NP'
S'NAAAPPP'
tp977
F1
s(g353
S'ADVCCDDP'
tp978
F3
s(S'MP'
S'MAAVVDP'
tp979
F1
s(g284
S'DDNP'
tp980
F204
s(S'CP'
S'ACADVDP'
tp981
F3
s(g281
S'NADVCP'
tp982
F45
s(S'DP'
p983
S'DDNNP'
tp984
F37
s(S'VP'
S'AAVADVAP'
tp985
F1
s(S'PP'
p986
S'AAPPP'
tp987
F9
s(S'DP'
S'DDDVVVP'
tp988
F1
s(S'VP'
S'ADVAVPP'
tp989
F2
s(S'PP'
S'PADVADVVVP'
tp990
F1
s(S'NP'
S'ADVANVP'
tp991
F2
s(S'NP'
S'ADVNAAP'
tp992
F1
s(S'PP'
S'APCP'
tp993
F1
s(S'AP'
S'AADVADP'
tp994
F1
s(g546
S'ADVADVNCP'
tp995
F7
s(S'AP'
S'ADVADDP'
tp996
F1
s(S'AP'
S'AAAACP'
tp997
F2
s(S'VP'
S'AVAAP'
tp998
F2
s(S'DP'
S'AADPP'
tp999
F29
s(S'VP'
S'VVVAAP'
tp1000
F2
s(S'PP'
S'APPNP'
tp1001
F2
s(g169
S'NNNNPP'
tp1002
F1
s(S'NP'
p1003
S'NAAAACCP'
tp1004
F1
s(S'NP'
S'NNAMP'
tp1005
F1
s(S'DP'
p1006
S'DADVADVANP'
tp1007
F1
s(S'VP'
S'VVVVCP'
tp1008
F3
s(S'VP'
S'VVMMP'
tp1009
F1
s(S'NP'
S'NNNAMP'
tp1010
F1
s(S'NP'
S'NNNP'
tp1011
F3
s(S'MP'
S'MAVAP'
tp1012
F1
s(S'VP'
S'VVVADVADVVP'
tp1013
F1
s(S'CP'
S'CDPPPPP'
tp1014
F4
s(S'NP'
S'NNADVADVADVCP'
tp1015
F1
s(S'DP'
S'DADVADVAP'
tp1016
F1
s(S'NP'
S'NADVADVCCP'
tp1017
F3
s(S'MP'
S'MVVNP'
tp1018
F8
s(S'NP'
S'AAANCP'
tp1019
F1
s(S'DP'
S'ADVDNNP'
tp1020
F5
s(S'CP'
S'ACDDP'
tp1021
F21
s(S'NP'
S'ADVADVNNCP'
tp1022
F3
s(S'NP'
S'AANDP'
tp1023
F3
s(S'AP'
S'AAPP'
tp1024
F23
s(g124
S'VVCCP'
tp1025
F12
s(S'DP'
S'DMMP'
tp1026
F1
s(S'DP'
S'DADVVVP'
tp1027
F4
s(g971
S'NNCCCP'
tp1028
F4
s(S'DP'
S'DAAAPP'
tp1029
F1
s(g1003
S'ANADVADVANP'
tp1030
F1
s(S'PP'
S'ADVPANP'
tp1031
F5
s(S'NP'
S'NNPPP'
tp1032
F12
s(g436
S'NAPP'
tp1033
F62
s(g319
S'APPVP'
tp1034
F4
s(S'AP'
S'ADVADVADP'
tp1035
F2
s(g597
S'ADVADVADVVVVP'
tp1036
F1
s(S'NP'
S'NADVDP'
tp1037
F7
s(g338
S'ADVPPPP'
tp1038
F4
s(g239
S'PADVAPP'
tp1039
F2
s(g436
S'ANCCP'
tp1040
F14
s(g286
S'AANPP'
tp1041
F7
s(S'VP'
S'VDDDP'
tp1042
F16
s(S'NP'
S'NNMP'
tp1043
F30
s(S'DP'
p1044
S'DDDVP'
tp1045
F19
s(S'VP'
S'AAVPP'
tp1046
F9
s(S'MP'
S'MNVP'
tp1047
F11
s(S'PP'
S'ADVAPNP'
tp1048
F6
s(g68
S'CADDPP'
tp1049
F5
s(g955
S'AAPADVNP'
tp1050
F1
s(S'PP'
S'PAAAP'
tp1051
F7
s(S'PP'
S'ADVADVPNP'
tp1052
F7
s(S'PP'
p1053
S'PPPAP'
tp1054
F3
s(S'DP'
S'ADVDDAP'
tp1055
F1
s(g525
S'CDDAPP'
tp1056
F13
s(S'DP'
S'AAADDVP'
tp1057
F1
s(S'VP'
S'VVVPPP'
tp1058
F1
s(g351
S'ANAP'
tp1059
F9
s(S'MP'
S'MVAP'
tp1060
F10
s(S'VP'
S'VADVADVDDP'
tp1061
F1
s(g110
S'PVP'
tp1062
F617
s(S'VP'
S'VADVPPP'
tp1063
F2
s(S'DP'
p1064
S'DADVAVP'
tp1065
F6
s(g12
S'DDADVAVP'
tp1066
F2
s(S'AP'
S'ADVADVAPP'
tp1067
F2
s(S'PP'
S'AAPVVVP'
tp1068
F1
s(g479
S'PPADVVVP'
tp1069
F2
s(S'AP'
S'AAADVADVADVADVDP'
tp1070
F1
s(S'VP'
S'VADVCCP'
tp1071
F1
s(S'PP'
S'PPADVADVMP'
tp1072
F1
s(S'PP'
S'PPPPADVVP'
tp1073
F1
s(S'AP'
p1074
S'ADVAACP'
tp1075
F2
s(S'NP'
S'ADVNAVP'
tp1076
F2
s(S'PP'
S'ADVADVADVPDDP'
tp1077
F1
s(S'NP'
S'ANNCP'
tp1078
F13
s(S'CP'
S'AAAACCDP'
tp1079
F1
s(S'PP'
S'ADVADVPPDP'
tp1080
F1
s(S'MP'
S'MVADVNP'
tp1081
F1
s(S'AP'
S'AAAAACP'
tp1082
F1
s(g24
S'ADVADVADVDNP'
tp1083
F1
s(S'NP'
S'ADVNACP'
tp1084
F4
s(g531
S'NNADVADVPPP'
tp1085
F1
s(g61
S'PPDDP'
tp1086
F31
s(g925
S'AVCP'
tp1087
F17
s(S'DP'
S'DDVVVP'
tp1088
F2
s(S'NP'
p1089
S'NNNNPPPP'
tp1090
F1
s(S'NP'
p1091
S'NAVVP'
tp1092
F3
s(g34
S'DPP'
tp1093
F716
s(g536
S'ADVVP'
tp1094
F5
s(g1091
S'ADVNVP'
tp1095
F28
s(S'DP'
S'DDDVVP'
tp1096
F1
s(S'CP'
S'CDADVADVADVPP'
tp1097
F1
s(g130
S'DDPP'
tp1098
F307
s(g1064
S'DDADVPPP'
tp1099
F2
s(S'DP'
p1100
S'DDAVP'
tp1101
F7
s(g130
S'DANP'
tp1102
F146
s(S'AP'
S'ADVAMP'
tp1103
F1
s(g531
S'NADVPP'
tp1104
F16
s(S'PP'
S'ADVPPVVP'
tp1105
F1
s(S'NP'
S'NAAAAP'
tp1106
F1
s(g237
S'NNAAVVP'
tp1107
F1
s(S'MP'
S'MMAP'
tp1108
F1
s(g394
S'AAPPVP'
tp1109
F3
s(S'NP'
S'NAAVP'
tp1110
F9
s(S'VP'
S'VVCCCP'
tp1111
F1
s(S'DP'
S'ADVADVADPP'
tp1112
F1
s(S'DP'
S'ADNNNP'
tp1113
F1
s(g169
S'NADVAPP'
tp1114
F1
s(g553
S'PDDDP'
tp1115
F14
s(S'CP'
S'CADVADVADVDPP'
tp1116
F1
s(S'AP'
S'AAAAPP'
tp1117
F1
s(S'VP'
S'VADVCP'
tp1118
F8
s(g751
S'ANNDDP'
tp1119
F1
s(S'VP'
S'ADVVADVCP'
tp1120
F2
s(g731
S'NNNNCP'
tp1121
F5
s(S'MP'
S'MDNP'
tp1122
F4
s(S'NP'
S'NNAACP'
tp1123
F3
s(S'DP'
S'ADDPPP'
tp1124
F2
s(S'NP'
S'NNNVVP'
tp1125
F1
s(g432
S'AVADVNP'
tp1126
F1
s(S'DP'
S'AADDAP'
tp1127
F1
s(g115
S'PADVPPP'
tp1128
F2
s(S'CP'
S'AACDDDP'
tp1129
F1
s(g662
S'DCCP'
tp1130
F2
s(S'DP'
S'AADDP'
tp1131
F2
s(S'NP'
S'AAANNCP'
tp1132
F1
s(S'MP'
S'MMCP'
tp1133
F1
s(g938
S'PPPPNP'
tp1134
F2
s(g319
S'ADVPADVADVDDDP'
tp1135
F1
s(g889
S'NADVNNP'
tp1136
F1
s(g32
S'AAPDP'
tp1137
F11
s(g447
S'VVDDP'
tp1138
F30
s(S'DP'
S'DDADVNNP'
tp1139
F2
s(S'VP'
S'AVVDP'
tp1140
F6
s(g115
S'PDDP'
tp1141
F159
s(S'MP'
S'MVDDP'
tp1142
F4
s(S'AP'
S'AAAADP'
tp1143
F1
s(S'NP'
S'NVVVVVP'
tp1144
F1
s(S'NP'
S'ADVANADVVVP'
tp1145
F1
s(S'NP'
S'NNNADVVP'
tp1146
F2
s(S'DP'
p1147
S'AADAP'
tp1148
F1
s(g441
S'ADPPP'
tp1149
F23
s(S'NP'
S'ADVANVVVP'
tp1150
F1
s(g266
S'PADVADVADVDP'
tp1151
F2
s(g415
S'NADVADVVVP'
tp1152
F2
s(S'PP'
S'APAAP'
tp1153
F1
s(g742
S'AVDP'
tp1154
F71
s(g911
S'ADVADVADVAPVVP'
tp1155
F1
s(S'NP'
S'NNP'
tp1156
F8
s(g694
S'ADVADPP'
tp1157
F10
s(g252
S'VAADDP'
tp1158
F2
s(g515
S'DAANP'
tp1159
F15
s(g583
S'CADVADVDAAPP'
tp1160
F1
s(S'NP'
S'NAAAAVP'
tp1161
F1
s(g710
S'ADDP'
tp1162
F56
s(g1147
S'DADVADP'
tp1163
F1
s(g938
S'PNNNNP'
tp1164
F2
s(S'VP'
S'ADVVVAP'
tp1165
F1
s(S'PP'
S'ADVPPNP'
tp1166
F6
s(S'VP'
S'VADVADVADVVP'
tp1167
F1
s(S'NP'
S'ADVADVNVVP'
tp1168
F2
s(S'MP'
S'MADVADVVDP'
tp1169
F1
s(S'PP'
S'ADVPAAAP'
tp1170
F1
s(S'CP'
p1171
S'CADVADVDPP'
tp1172
F12
s(S'CP'
S'ADVADVADVCDP'
tp1173
F3
s(g130
S'DPPP'
tp1174
F339
s(S'DP'
S'ADVADVDAAP'
tp1175
F1
s(S'DP'
S'DAVVP'
tp1176
F2
s(g307
S'AADPPP'
tp1177
F2
s(S'NP'
S'ADVANMP'
tp1178
F2
s(g783
S'ADVADVPPNP'
tp1179
F4
s(S'AP'
S'AAAP'
tp1180
F2
s(S'NP'
S'NNAVP'
tp1181
F5
s(S'VP'
S'AAVADVPP'
tp1182
F1
s(S'NP'
S'NNAAPP'
tp1183
F2
s(S'AP'
S'AVVP'
tp1184
F13
s(S'DP'
S'AADCP'
tp1185
F2
s(S'DP'
S'DDADVADVNP'
tp1186
F2
s(g986
S'ADVPNP'
tp1187
F51
s(S'NP'
S'ANAAPPP'
tp1188
F1
s(S'PP'
S'PPDP'
tp1189
F189
s(S'NP'
S'NADVADVACP'
tp1190
F1
s(S'AP'
S'AADVADVADVVP'
tp1191
F1
s(S'MP'
S'MAVDP'
tp1192
F3
s(S'CP'
S'CDDAAPPP'
tp1193
F1
s(S'CP'
S'CADDPPP'
tp1194
F2
s(g613
S'ADVADVADVPVP'
tp1195
F1
s(g686
S'ADVDCP'
tp1196
F4
s(S'MP'
S'AMADVVP'
tp1197
F1
s(S'MP'
S'MAVVNP'
tp1198
F1
s(g708
S'VAADP'
tp1199
F9
s(S'NP'
S'NNADDP'
tp1200
F1
s(S'MP'
S'MVVAP'
tp1201
F1
s(g936
S'MADVAVCP'
tp1202
F1
s(S'DP'
S'DDCP'
tp1203
F2
s(S'NP'
S'ANADVADVVP'
tp1204
F1
s(S'CP'
S'CCAADDP'
tp1205
F1
s(S'PP'
S'PPADVDDP'
tp1206
F1
s(S'AP'
S'AAAPP'
tp1207
F1
s(S'AP'
S'ADVADVAADP'
tp1208
F1
s(S'NP'
S'NAP'
tp1209
F158
s(S'NP'
S'NNAAP'
tp1210
F3
s(S'PP'
p1211
S'ADVADVPPPP'
tp1212
F1
s(S'VP'
S'AVADVCP'
tp1213
F1
s(g569
S'PPMMMP'
tp1214
F1
s(g968
S'ADVAVNP'
tp1215
F6
s(g925
S'VVP'
tp1216
F104
s(S'MP'
S'ADVMNP'
tp1217
F1
s(g660
S'DDAPP'
tp1218
F24
s(g955
S'ADVADVPVP'
tp1219
F5
s(S'PP'
S'PADVADVANP'
tp1220
F1
s(S'DP'
S'DADVANP'
tp1221
F4
s(g380
S'APNP'
tp1222
F76
s(S'VP'
S'VVVNNP'
tp1223
F1
s(S'DP'
S'DDDAPP'
tp1224
F2
s(S'AP'
S'ADVADVAAP'
tp1225
F1
s(S'DP'
S'DDVVP'
tp1226
F22
s(S'MP'
S'MNVVVVVP'
tp1227
F1
s(g708
S'VVVNP'
tp1228
F16
s(S'MP'
S'MNPP'
tp1229
F1
s(S'DP'
S'DDMP'
tp1230
F2
s(S'MP'
S'ADVADVMVP'
tp1231
F1
s(g94
S'NNADVPP'
tp1232
F6
s(S'NP'
S'NNADVADVADVPP'
tp1233
F1
s(S'MP'
S'MVANP'
tp1234
F4
s(S'AP'
S'AAADDDP'
tp1235
F1
s(g311
S'ADVADVDDPP'
tp1236
F4
s(S'MP'
S'MVNNP'
tp1237
F5
s(S'PP'
S'PPADVAPP'
tp1238
F1
s(g805
S'CDPP'
tp1239
F679
s(S'DP'
S'ADVADVADVDAPP'
tp1240
F1
s(g870
S'MVVNNP'
tp1241
F1
s(S'AP'
S'ADDDP'
tp1242
F8
s(S'MP'
S'MVADVPP'
tp1243
F1
s(S'NP'
S'NNADVADVVVP'
tp1244
F1
s(S'VP'
S'VVAANP'
tp1245
F3
s(g1089
S'NNADVADVADVVP'
tp1246
F1
s(S'VP'
S'ADVADVADVVVNNP'
tp1247
F1
s(S'DP'
S'ADDDP'
tp1248
F1
s(S'DP'
S'DCCCP'
tp1249
F1
s(g52
S'ADVCDP'
tp1250
F50
s(S'PP'
S'AAPVVP'
tp1251
F1
s(S'VP'
S'ADVADVVNP'
tp1252
F7
s(g952
S'NADVADVADVCP'
tp1253
F1
s(S'DP'
S'DADVADVAVP'
tp1254
F1
s(S'CP'
S'ADVACDP'
tp1255
F5
s(g417
S'ADVADVVCP'
tp1256
F2
s(g401
S'VADVADVDP'
tp1257
F4
s(g986
S'PPNNP'
tp1258
F41
s(g319
S'ADVAPPP'
tp1259
F3
s(S'PP'
S'APAAAP'
tp1260
F1
s(g803
S'ANNADVPP'
tp1261
F1
s(S'PP'
S'PPMP'
tp1262
F8
s(S'CP'
S'CAADDPP'
tp1263
F4
s(S'PP'
S'ADVPPAP'
tp1264
F1
s(S'DP'
S'ADVADVDPP'
tp1265
F16
s(g518
S'VDP'
tp1266
F594
s(S'MP'
S'MVADVNNP'
tp1267
F1
s(g211
S'AAANCCP'
tp1268
F3
s(g401
S'AVDDP'
tp1269
F7
s(S'PP'
S'ADVADVPPNNP'
tp1270
F1
s(g1044
S'DADVNP'
tp1271
F40
s(S'DP'
S'DDCCP'
tp1272
F2
s(S'DP'
S'DAP'
tp1273
F110
s(g511
S'CADPP'
tp1274
F110
s(g349
S'NADVAVP'
tp1275
F5
s(S'PP'
S'PPAVP'
tp1276
F5
s(S'CP'
S'CAADPPP'
tp1277
F2
s(S'NP'
S'ADVNMMP'
tp1278
F1
s(S'PP'
S'PPADVADVANP'
tp1279
F1
s(S'AP'
S'ADVAVVP'
tp1280
F2
s(S'PP'
S'PPPADVPP'
tp1281
F1
s(g593
S'ADVADVADVADVDVP'
tp1282
F1
s(S'PP'
S'PPDDDP'
tp1283
F4
s(g124
S'AVPP'
tp1284
F33
s(S'PP'
S'ADVAPDP'
tp1285
F3
s(S'PP'
S'PPAAVP'
tp1286
F2
s(S'DP'
S'DDNNNNP'
tp1287
F2
s(S'DP'
S'DDDADVNP'
tp1288
F1
s(g453
S'VVADVDP'
tp1289
F5
s(g920
S'MVADVADVNP'
tp1290
F1
s(S'CP'
S'CDPPPP'
tp1291
F19
s(g1053
S'PPAADP'
tp1292
F1
s(g252
S'VADVADVCCP'
tp1293
F2
s(g156
S'AAVDP'
tp1294
F15
s(S'DP'
S'AADNNP'
tp1295
F3
s(S'PP'
S'PANNP'
tp1296
F9
s(S'DP'
S'AADDPPP'
tp1297
F1
s(g342
S'VACCP'
tp1298
F2
s(g986
S'APPP'
tp1299
F39
s(S'VP'
S'ADVVADVAP'
tp1300
F1
s(g17
S'DADVADVPP'
tp1301
F16
s(g195
S'DMP'
tp1302
F10
s(S'NP'
S'NNNNADVVP'
tp1303
F1
s(g195
S'ADVDPP'
tp1304
F95
s(g198
S'NPP'
tp1305
F521
s(S'PP'
S'PPAANP'
tp1306
F2
s(S'NP'
S'AAANPP'
tp1307
F1
s(S'VP'
S'VVVVVADVCP'
tp1308
F1
s(g115
S'PADVADVNP'
tp1309
F9
s(S'DP'
S'DADVMP'
tp1310
F1
s(g130
S'ADPP'
tp1311
F159
s(g359
S'PPPVVP'
tp1312
F4
s(S'NP'
S'NNADVVVP'
tp1313
F1
s(S'NP'
S'NNNNCCCP'
tp1314
F1
s(g475
S'VADVPP'
tp1315
F15
s(g1100
S'DDAAPP'
tp1316
F7
s(g227
S'ADVDANP'
tp1317
F4
s(S'DP'
S'DDAAAPP'
tp1318
F1
s(S'PP'
S'PPPPAP'
tp1319
F1
s(S'PP'
S'PVVVVP'
tp1320
F1
s(g30
S'ADVPVP'
tp1321
F33
s(g983
S'DDDDPP'
tp1322
F11
s(S'AP'
S'ADVADVAVP'
tp1323
F2
s(S'PP'
S'ADVADVADVPPVVP'
tp1324
F1
s(S'MP'
p1325
S'MACDP'
tp1326
F1
s(g351
S'ADVADVANCP'
tp1327
F4
s(S'VP'
S'ADVVANP'
tp1328
F5
s(g822
S'PAMP'
tp1329
F1
s(g32
S'ADVPDP'
tp1330
F36
s(g19
S'ADVVADP'
tp1331
F4
s(S'NP'
p1332
S'ADVNNPP'
tp1333
F2
s(S'MP'
S'MAVNNP'
tp1334
F1
s(g198
S'NCP'
tp1335
F640
s(g235
S'MAVPPP'
tp1336
F1
s(S'CP'
S'CADVDPPP'
tp1337
F4
s(S'VP'
S'ADVVVPP'
tp1338
F2
s(g1044
S'ADDAP'
tp1339
F1
s(S'PP'
S'PPADVNNP'
tp1340
F3
s(S'MP'
S'ADVMCCP'
tp1341
F1
s(S'CP'
S'CDDADVADVPP'
tp1342
F2
s(g1074
S'AADVMP'
tp1343
F1
s(S'AP'
S'AAAADDP'
tp1344
F2
s(g399
S'PPAAAP'
tp1345
F1
s(S'PP'
S'ADVPDDP'
tp1346
F2
s(S'VP'
S'AAVVDP'
tp1347
F4
s(S'PP'
S'PPPADVDP'
tp1348
F1
s(S'MP'
S'MVCCP'
tp1349
F7
s(S'DP'
S'DADVNNP'
tp1350
F5
s(S'NP'
S'NNCCP'
tp1351
F37
s(S'NP'
S'ADVADVANVVP'
tp1352
F1
s(S'NP'
S'AANAP'
tp1353
F1
s(S'CP'
S'ADVADVCCDP'
tp1354
F5
s(S'NP'
S'AANCCP'
tp1355
F3
s(g443
S'PADVADVAP'
tp1356
F1
s(g459
S'VAPP'
tp1357
F31
s(S'VP'
S'VADVADVADVAAP'
tp1358
F1
s(S'MP'
S'MAVNP'
tp1359
F2
s(S'NP'
S'ADVANNCCP'
tp1360
F1
s(g655
S'ADVVDP'
tp1361
F34
s(S'VP'
S'VADDP'
tp1362
F4
s(S'VP'
S'VADVADVADVCP'
tp1363
F1
s(S'PP'
S'APADVNP'
tp1364
F1
s(g589
S'DADVPP'
tp1365
F95
s(S'VP'
S'VVADVAP'
tp1366
F3
s(S'AP'
p1367
S'AMP'
tp1368
F6
s(g52
S'CCADP'
tp1369
F15
s(S'NP'
S'ADVNNCP'
tp1370
F9
s(S'DP'
S'ADVDAP'
tp1371
F2
s(S'DP'
S'DADVADVNNP'
tp1372
F1
s(S'NP'
S'AANMMP'
tp1373
F2
s(g1367
S'ADVAPP'
tp1374
F4
s(S'DP'
S'DDADVAPP'
tp1375
F3
s(S'CP'
S'CDDADVAPP'
tp1376
F3
s(S'DP'
S'ADVDAVP'
tp1377
F1
s(S'NP'
S'NPPPPP'
tp1378
F2
s(S'CP'
S'AACDP'
tp1379
F16
s(g297
S'NNNCCP'
tp1380
F5
s(S'CP'
S'CCDDDP'
tp1381
F8
s(g1325
S'MADVADVVNNP'
tp1382
F1
s(S'DP'
S'DAAAAP'
tp1383
F1
s(S'AP'
S'ADVAAADDP'
tp1384
F1
s(g1006
S'ADVDPPP'
tp1385
F4
s(g130
S'DVP'
tp1386
F520
s(S'VP'
S'AVNNP'
tp1387
F8
s(S'NP'
S'ADVNPP'
tp1388
F10
s(S'VP'
S'ADVADVADVVVNP'
tp1389
F2
s(S'CP'
S'AAACDP'
tp1390
F3
s(S'PP'
S'PADVADVDDP'
tp1391
F1
s(g491
S'AVP'
tp1392
F108
s(g716
S'AAAAPADVPP'
tp1393
F1
s(g531
S'NADVVP'
tp1394
F36
s(S'CP'
S'CDAAAPP'
tp1395
F1
s(g1171
S'CAAAADPP'
tp1396
F2
s(S'NP'
S'NNNMP'
tp1397
F2
s(S'VP'
S'ADVVPPP'
tp1398
F1
s(g691
S'DDPPP'
tp1399
F65
s(S'NP'
S'NADVADVADVADVPP'
tp1400
F1
s(S'PP'
S'AAPPMP'
tp1401
F1
s(g281
S'ADVNMP'
tp1402
F5
s(g1091
S'NNAP'
tp1403
F20
s(S'VP'
S'VADVADVNNP'
tp1404
F1
s(g933
S'NNADVPPP'
tp1405
F3
s(S'MP'
S'MADVVCP'
tp1406
F3
s(g1211
S'PPANP'
tp1407
F12
s(S'MP'
S'MCDDP'
tp1408
F1
s(S'CP'
S'ADVADVACDP'
tp1409
F1
s(g528
S'CDADVPP'
tp1410
F53
s(g567
S'VNP'
tp1411
F556
s(g136
S'VANP'
tp1412
F66
s(S'VP'
S'VADVAP'
tp1413
F14
s(S'VP'
S'VADVADVADP'
tp1414
F1
s(g505
S'PPADVNP'
tp1415
F5
s(S'VP'
S'VVVAP'
tp1416
F2
s(S'MP'
S'MANNPP'
tp1417
F1
s(S'VP'
S'ADVADVVVDP'
tp1418
F4
s(S'NP'
S'AANNAP'
tp1419
F1
s(g1332
S'NADVPPP'
tp1420
F2
s.