ccollections
defaultdict
p1
(c__builtin__
float
p2
tRp3
(S'NP'
S'NNNAAVP'
tp4
F1
s(S'MP'
S'MMDP'
tp5
F1
s(S'VP'
p6
S'VVAAAP'
tp7
F2
s(S'AP'
S'ADVADVAADDP'
tp8
F1
s(S'DP'
p9
S'DDMP'
tp10
F1
s(S'DP'
S'ADDPP'
tp11
F1
s(S'DP'
S'DDAP'
tp12
F3
s(S'VP'
p13
S'ADVVVNP'
tp14
F1
s(S'CP'
S'CCDDDDP'
tp15
F1
s(S'VP'
p16
S'VVVVP'
tp17
F3
s(S'PP'
p18
S'PAPP'
tp19
F7
s(S'PP'
S'PADVNP'
tp20
F5
s(S'DP'
p21
S'DNP'
tp22
F158
s(S'VP'
p23
S'VVADVCP'
tp24
F1
s(S'CP'
S'CDPPP'
tp25
F49
s(S'VP'
p26
S'VADP'
tp27
F9
s(S'DP'
p28
S'DAAP'
tp29
F1
s(S'VP'
S'AAVPPP'
tp30
F1
s(S'PP'
p31
S'PPPPPP'
tp32
F1
s(S'VP'
p33
S'VAVP'
tp34
F4
s(S'DP'
S'ADNNP'
tp35
F2
s(S'MP'
S'MDVP'
tp36
F1
s(S'PP'
S'APVP'
tp37
F8
s(S'MP'
S'MVDP'
tp38
F12
s(S'PP'
p39
S'PPPP'
tp40
F26
s(S'DP'
S'DDDNP'
tp41
F3
s(S'PP'
S'PAAANP'
tp42
F1
s(S'VP'
p43
S'VACP'
tp44
F4
s(S'AP'
S'AAAVP'
tp45
F1
s(S'DP'
S'DADVVP'
tp46
F6
s(S'PP'
S'PADVNNP'
tp47
F2
s(S'NP'
p48
S'NNNADVADVVVP'
tp49
F1
s(S'NP'
p50
S'NADVACP'
tp51
F2
s(S'NP'
p52
S'NDDDP'
tp53
F1
s(S'NP'
S'NCCCP'
tp54
F3
s(S'VP'
p55
S'VCP'
tp56
F91
s(S'NP'
p57
S'NMMP'
tp58
F8
s(S'VP'
p59
S'ADVVAAP'
tp60
F3
s(S'DP'
S'DDDNNP'
tp61
F2
s(g13
S'ADVVCCP'
tp62
F2
s(S'PP'
p63
S'PAP'
tp64
F88
s(S'NP'
S'NNNAP'
tp65
F1
s(g18
S'APVVP'
tp66
F2
s(S'PP'
p67
S'PNP'
tp68
F156
s(S'PP'
p69
S'PAAADP'
tp70
F1
s(S'CP'
S'CDDDDADVADVPPP'
tp71
F1
s(S'VP'
S'AVNNNP'
tp72
F1
s(S'DP'
S'DDP'
tp73
F29
s(S'VP'
S'ADVVDDP'
tp74
F1
s(S'NP'
S'NNNPP'
tp75
F2
s(S'VP'
S'VCCP'
tp76
F15
s(S'MP'
S'MCDP'
tp77
F2
s(S'NP'
p78
S'NNADVADVCP'
tp79
F1
s(S'VP'
p80
S'ADVADVVVCP'
tp81
F2
s(S'NP'
p82
S'NMP'
tp83
F49
s(S'DP'
p84
S'ADVDPPPP'
tp85
F1
s(g67
S'PDP'
tp86
F134
s(S'DP'
p87
S'DDPPPPP'
tp88
F1
s(S'CP'
p89
S'CCADVADVDP'
tp90
F2
s(S'PP'
S'PPADVVP'
tp91
F1
s(S'NP'
S'ADVNVVP'
tp92
F1
s(S'VP'
S'VNNNNP'
tp93
F1
s(S'MP'
S'MNNVP'
tp94
F1
s(S'MP'
S'MADVVNP'
tp95
F1
s(S'VP'
p96
S'AVAAP'
tp97
F1
s(S'AP'
S'ANP'
tp98
F1
s(S'PP'
S'PADVPP'
tp99
F3
s(S'VP'
p100
S'AAVPP'
tp101
F1
s(S'CP'
p102
S'CDDAPPP'
tp103
F1
s(g16
S'ADVAVADVNP'
tp104
F1
s(S'NP'
S'ADVNACP'
tp105
F2
s(S'DP'
p106
S'DPPPP'
tp107
F6
s(S'AP'
S'APP'
tp108
F32
s(S'NP'
p109
S'NACP'
tp110
F17
s(S'AP'
S'ADVAVP'
tp111
F1
s(g82
S'NCCP'
tp112
F58
s(S'VP'
S'AVADVNP'
tp113
F1
s(S'DP'
p114
S'DADVADVVVP'
tp115
F1
s(S'VP'
S'VVCCCP'
tp116
F2
s(S'NP'
p117
S'NNCP'
tp118
F46
s(g84
S'ADVDDPP'
tp119
F1
s(S'NP'
p120
S'NADVADVVP'
tp121
F2
s(S'DP'
p122
S'DDDDP'
tp123
F3
s(S'VP'
p124
S'AVVNNP'
tp125
F1
s(S'VP'
p126
S'AVNP'
tp127
F5
s(S'PP'
S'ADVPVVP'
tp128
F1
s(S'VP'
p129
S'VVMP'
tp130
F1
s(S'VP'
S'VADVVP'
tp131
F1
s(S'PP'
p132
S'ADVAPVP'
tp133
F2
s(S'DP'
S'ADVVVP'
tp134
F1
s(S'MP'
p135
S'AMMVP'
tp136
F1
s(S'CP'
S'CCCDP'
tp137
F7
s(S'VP'
p138
S'ADVVAP'
tp139
F3
s(S'VP'
S'VCCCP'
tp140
F3
s(g67
S'APDP'
tp141
F11
s(S'CP'
S'ADVCCADVDP'
tp142
F1
s(g33
S'AVADVAP'
tp143
F1
s(S'VP'
p144
S'ADVVNNP'
tp145
F4
s(g89
S'ADVCCDDDP'
tp146
F1
s(S'VP'
S'VVANP'
tp147
F2
s(S'CP'
S'CCCADP'
tp148
F1
s(S'MP'
S'MAVNP'
tp149
F1
s(S'PP'
p150
S'PAAP'
tp151
F28
s(S'PP'
p152
S'PPADVADVAAP'
tp153
F1
s(S'DP'
p154
S'DNNP'
tp155
F51
s(S'VP'
S'VVACCP'
tp156
F1
s(S'DP'
S'DPPPPP'
tp157
F1
s(S'CP'
p158
S'CDDPPPP'
tp159
F1
s(S'VP'
S'VVNNNP'
tp160
F1
s(S'NP'
p161
S'NNNVP'
tp162
F5
s(S'VP'
p163
S'VADVNNP'
tp164
F1
s(S'PP'
S'PADVVP'
tp165
F5
s(S'PP'
p166
S'APAP'
tp167
F4
s(S'CP'
S'ADVADVCDP'
tp168
F2
s(S'AP'
S'ACCCP'
tp169
F1
s(S'NP'
p170
S'NADVMP'
tp171
F1
s(S'CP'
p172
S'CADDPPP'
tp173
F1
s(S'VP'
p174
S'VADVADVVP'
tp175
F1
s(S'NP'
p176
S'ADVANPP'
tp177
F2
s(S'VP'
S'VVVVPP'
tp178
F1
s(S'VP'
p179
S'VADVADVNP'
tp180
F2
s(S'CP'
S'CDDDDPP'
tp181
F1
s(S'PP'
p182
S'PAANP'
tp183
F3
s(S'VP'
S'VADVADVCP'
tp184
F1
s(g150
S'PPVVP'
tp185
F8
s(S'VP'
S'VAACP'
tp186
F2
s(S'VP'
S'VVADVAAP'
tp187
F1
s(S'MP'
p188
S'MVNP'
tp189
F23
s(S'AP'
S'ADVAADP'
tp190
F4
s(S'PP'
S'PAVP'
tp191
F12
s(S'PP'
S'ADVADVPPVP'
tp192
F1
s(S'DP'
p193
S'DDAPPP'
tp194
F1
s(S'VP'
S'VVVPP'
tp195
F3
s(S'VP'
S'VVADVAPP'
tp196
F1
s(S'PP'
S'APPPP'
tp197
F1
s(S'DP'
S'DADP'
tp198
F2
s(S'AP'
S'ADVADP'
tp199
F1
s(S'NP'
S'NAMMP'
tp200
F1
s(S'PP'
S'APDDP'
tp201
F3
s(S'VP'
S'ADVADVVVNP'
tp202
F2
s(S'DP'
S'DDDDADVADVPPP'
tp203
F1
s(S'VP'
p204
S'ADVVNP'
tp205
F4
s(g26
S'VVNP'
tp206
F48
s(S'PP'
p207
S'PPVP'
tp208
F41
s(g204
S'VADVDP'
tp209
F2
s(S'DP'
S'DDDADVAPP'
tp210
F1
s(g126
S'VAAP'
tp211
F24
s(g120
S'ANDP'
tp212
F4
s(S'NP'
p213
S'NVVP'
tp214
F55
s(S'PP'
p215
S'AAPVP'
tp216
F2
s(S'AP'
p217
S'AAP'
tp218
F7
s(S'VP'
p219
S'VMP'
tp220
F7
s(S'VP'
p221
S'VVNNP'
tp222
F14
s(S'NP'
p223
S'NNAAVP'
tp224
F1
s(S'VP'
S'VVAAP'
tp225
F6
s(g28
S'ADNP'
tp226
F10
s(g193
S'ADVDDPPP'
tp227
F2
s(g63
S'PADP'
tp228
F8
s(S'DP'
S'ADVADVDVP'
tp229
F1
s(S'DP'
p230
S'DADVAP'
tp231
F1
s(S'DP'
S'ADVDAANP'
tp232
F1
s(g21
S'DAPP'
tp233
F25
s(g129
S'AVVP'
tp234
F1
s(S'VP'
S'ADVADVVPP'
tp235
F3
s(S'DP'
S'DAAVP'
tp236
F1
s(g174
S'ADVADVVDP'
tp237
F1
s(S'PP'
S'PPPDP'
tp238
F1
s(S'AP'
S'AAPPP'
tp239
F1
s(S'DP'
p240
S'DADVANP'
tp241
F2
s(g163
S'VAAPP'
tp242
F2
s(S'DP'
S'ADVDNP'
tp243
F5
s(g26
S'VVPP'
tp244
F18
s(S'CP'
S'AACDDP'
tp245
F1
s(S'MP'
S'MVPP'
tp246
F5
s(g114
S'ADVP'
tp247
F3
s(S'CP'
p248
S'CDDPPP'
tp249
F17
s(S'MP'
p250
S'ADVMVVP'
tp251
F1
s(S'NP'
S'NNPP'
tp252
F30
s(S'NP'
p253
S'NNAVVP'
tp254
F1
s(S'MP'
S'MVVDP'
tp255
F1
s(S'DP'
p256
S'DADVPPP'
tp257
F3
s(g82
S'ANVP'
tp258
F15
s(S'DP'
p259
S'DNNNP'
tp260
F8
s(S'DP'
p261
S'ADVDDVP'
tp262
F1
s(S'PP'
p263
S'PADVADVVP'
tp264
F1
s(g33
S'VADVDDP'
tp265
F4
s(S'VP'
p266
S'ADVVCP'
tp267
F1
s(S'PP'
p268
S'PVVVP'
tp269
F2
s(S'PP'
p270
S'PMP'
tp271
F8
s(S'NP'
p272
S'NNMMP'
tp273
F2
s(S'CP'
S'CCDP'
tp274
F73
s(g33
S'VADVANP'
tp275
F2
s(g26
S'VPPP'
tp276
F28
s(S'NP'
p277
S'NVVVP'
tp278
F4
s(S'CP'
S'CDDDPP'
tp279
F3
s(S'CP'
S'CDAAPP'
tp280
F2
s(g23
S'VVVDP'
tp281
F2
s(g263
S'PDDDDP'
tp282
F1
s(S'PP'
S'PNNNP'
tp283
F4
s(S'AP'
S'AACCP'
tp284
F2
s(g67
S'AAPNP'
tp285
F3
s(S'PP'
S'PADVVVP'
tp286
F1
s(g67
S'PPP'
tp287
F78
s(S'NP'
p288
S'NAVP'
tp289
F12
s(S'PP'
S'PADVAP'
tp290
F1
s(S'VP'
S'ADVVAPP'
tp291
F1
s(S'CP'
S'CADVDPPPP'
tp292
F1
s(S'DP'
S'ADVDVP'
tp293
F5
s(S'NP'
S'NAAAP'
tp294
F1
s(S'DP'
p295
S'DAAAP'
tp296
F1
s(S'AP'
S'AAADVCP'
tp297
F1
s(S'VP'
p298
S'VPP'
tp299
F123
s(S'CP'
S'ADVCCDP'
tp300
F1
s(S'CP'
S'ACCDP'
tp301
F2
s(S'DP'
S'ADVDDNP'
tp302
F4
s(S'NP'
p303
S'NNNCP'
tp304
F2
s(g270
S'PADVDP'
tp305
F4
s(S'CP'
S'CDADVAPP'
tp306
F2
s(S'CP'
S'CDDDPPP'
tp307
F1
s(g295
S'DANNP'
tp308
F3
s(S'PP'
S'PADVAAP'
tp309
F3
s(S'CP'
p310
S'CDDPP'
tp311
F50
s(S'DP'
S'DAAPP'
tp312
F4
s(g63
S'PVVP'
tp313
F32
s(S'CP'
S'CADPPP'
tp314
F4
s(S'AP'
p315
S'AACP'
tp316
F4
s(g272
S'NADVMMP'
tp317
F1
s(g268
S'PMMP'
tp318
F3
s(S'MP'
S'MVPPP'
tp319
F2
s(g80
S'AVCCP'
tp320
F3
s(g13
S'VVPPP'
tp321
F6
s(S'PP'
p322
S'PPAP'
tp323
F8
s(S'DP'
p324
S'DVVP'
tp325
F41
s(g39
S'PADVAVP'
tp326
F1
s(S'CP'
S'ADVACDDP'
tp327
F1
s(g48
S'ANMP'
tp328
F2
s(g315
S'APPP'
tp329
F3
s(S'DP'
S'ADVVP'
tp330
F1
s(S'NP'
S'ADVADVNVP'
tp331
F1
s(S'VP'
S'VVVP'
tp332
F27
s(S'DP'
S'DDPPPP'
tp333
F1
s(S'NP'
S'ADVADVNNVP'
tp334
F2
s(S'AP'
p335
S'ADVAAADVDP'
tp336
F1
s(S'NP'
S'ANCP'
tp337
F9
s(g114
S'DCP'
tp338
F8
s(S'DP'
S'DVVVP'
tp339
F3
s(S'NP'
S'AAANCP'
tp340
F1
s(S'DP'
S'DDDP'
tp341
F8
s(S'VP'
p342
S'ADVADVADVAVAAP'
tp343
F1
s(S'NP'
S'NNADP'
tp344
F2
s(S'NP'
S'ANVVP'
tp345
F2
s(g100
S'VVDP'
tp346
F36
s(g117
S'NPPP'
tp347
F24
s(g154
S'DAVP'
tp348
F12
s(g6
S'AVVVP'
tp349
F1
s(S'NP'
S'NNNMP'
tp350
F1
s(S'AP'
S'ACP'
tp351
F29
s(g63
S'PPNP'
tp352
F46
s(g223
S'NAADP'
tp353
F1
s(S'DP'
p354
S'ADVDAPP'
tp355
F1
s(g28
S'AADVP'
tp356
F3
s(S'PP'
S'PPPADVAAP'
tp357
F1
s(S'CP'
S'CCCDDP'
tp358
F3
s(S'AP'
S'ADP'
tp359
F146
s(S'MP'
S'MVADVDDP'
tp360
F1
s(g102
S'CADVDDPPP'
tp361
F1
s(g172
S'CADVDPP'
tp362
F10
s(S'NP'
p363
S'ANPPP'
tp364
F3
s(S'NP'
S'ADVANCCP'
tp365
F1
s(S'NP'
p366
S'ADVNDP'
tp367
F2
s(S'PP'
S'PPPPNNP'
tp368
F1
s(g221
S'AVDP'
tp369
F16
s(S'NP'
S'ANNVP'
tp370
F1
s(S'PP'
p371
S'ADVAPDDP'
tp372
F1
s(g43
S'VVAP'
tp373
F14
s(S'NP'
p374
S'NNAPP'
tp375
F1
s(S'CP'
p376
S'ADVACDP'
tp377
F1
s(g117
S'NPP'
tp378
F99
s(g182
S'PPPPNP'
tp379
F1
s(S'NP'
p380
S'NVP'
tp381
F167
s(g109
S'NNDDDP'
tp382
F1
s(g117
S'NAAPP'
tp383
F1
s(S'VP'
S'VDDP'
tp384
F42
s(S'AP'
S'AAADVDP'
tp385
F1
s(g50
S'AANVVP'
tp386
F1
s(S'DP'
S'DADVAPP'
tp387
F3
s(g366
S'NNNDDP'
tp388
F1
s(S'PP'
p389
S'ADVAPAP'
tp390
F1
s(S'NP'
p391
S'NADVADVVVP'
tp392
F1
s(g82
S'ANPP'
tp393
F10
s(S'PP'
S'ADVPPDP'
tp394
F3
s(S'PP'
S'PPPPP'
tp395
F3
s(S'PP'
S'ADVADVPDP'
tp396
F1
s(S'MP'
S'MVVPP'
tp397
F1
s(g354
S'ADVDPP'
tp398
F13
s(S'NP'
S'NPPPP'
tp399
F2
s(S'AP'
S'AADVADVDP'
tp400
F1
s(g248
S'CAADPP'
tp401
F5
s(g161
S'NAACP'
tp402
F5
s(g207
S'PNNP'
tp403
F39
s(S'PP'
S'APNNP'
tp404
F3
s(g250
S'MADVVVADVADVAP'
tp405
F1
s(S'DP'
S'DDAAP'
tp406
F1
s(S'PP'
S'ADVPADVVP'
tp407
F2
s(S'VP'
p408
S'AVAP'
tp409
F6
s(g188
S'MMVP'
tp410
F12
s(g48
S'ADVNCP'
tp411
F8
s(g28
S'ADPP'
tp412
F18
s(S'DP'
S'DDDAVP'
tp413
F1
s(g158
S'ACDP'
tp414
F19
s(S'NP'
p415
S'NNDP'
tp416
F15
s(S'AP'
S'ADVANP'
tp417
F2
s(S'CP'
S'CDADVPPP'
tp418
F2
s(g298
S'VAP'
tp419
F87
s(g100
S'VVVVNP'
tp420
F2
s(g122
S'DDDPP'
tp421
F5
s(S'CP'
S'ADVCDDP'
tp422
F4
s(g84
S'AADAP'
tp423
F1
s(g182
S'PAAPP'
tp424
F1
s(S'DP'
p425
S'DDDPPP'
tp426
F2
s(g408
S'ADVAVDP'
tp427
F2
s(S'PP'
p428
S'APADVVP'
tp429
F1
s(S'AP'
S'AAACP'
tp430
F2
s(g96
S'ADVVVDP'
tp431
F2
s(g63
S'PPPVP'
tp432
F4
s(S'AP'
S'AADDP'
tp433
F12
s(g219
S'VAANP'
tp434
F3
s(S'DP'
S'AAADDP'
tp435
F1
s(S'MP'
S'MMVVVVP'
tp436
F1
s(g223
S'NVVVVP'
tp437
F1
s(S'MP'
S'MPNP'
tp438
F2
s(g371
S'PPPDDP'
tp439
F1
s(S'CP'
S'CCAADP'
tp440
F1
s(S'DP'
S'DDADVNP'
tp441
F1
s(S'PP'
p442
S'PANP'
tp443
F10
s(g84
S'AADNP'
tp444
F2
s(g272
S'NADVDDP'
tp445
F2
s(S'AP'
p446
S'AAVP'
tp447
F7
s(g109
S'NAAP'
tp448
F14
s(S'NP'
S'NDDP'
tp449
F17
s(S'MP'
p450
S'MVADVDP'
tp451
F1
s(S'AP'
S'ACCP'
tp452
F1
s(S'NP'
S'NNVVVP'
tp453
F2
s(g16
S'AVPPP'
tp454
F1
s(S'PP'
S'ADVPAANP'
tp455
F2
s(S'NP'
p456
S'NDP'
tp457
F69
s(g335
S'APPPP'
tp458
F1
s(S'MP'
S'MVAAP'
tp459
F1
s(S'DP'
p460
S'DDVP'
tp461
F50
s(S'NP'
S'AANVP'
tp462
F3
s(S'DP'
p463
S'ADDVP'
tp464
F1
s(S'VP'
S'VNNNP'
tp465
F6
s(g322
S'ADVPAP'
tp466
F2
s(g166
S'PCP'
tp467
F12
s(S'NP'
S'NNPPP'
tp468
F6
s(S'NP'
p469
S'ADVNNVP'
tp470
F1
s(S'VP'
S'VPPPP'
tp471
F2
s(S'NP'
S'NNNDP'
tp472
F1
s(S'AP'
S'ADVACP'
tp473
F4
s(S'VP'
S'VVVAP'
tp474
F1
s(g295
S'ADPPP'
tp475
F6
s(S'CP'
S'CDAPP'
tp476
F13
s(S'MP'
S'MVCP'
tp477
F2
s(S'CP'
S'CCDDP'
tp478
F17
s(g57
S'ADVANAP'
tp479
F1
s(S'PP'
S'PPAAP'
tp480
F9
s(S'NP'
S'NNNNVP'
tp481
F2
s(S'VP'
p482
S'VVCP'
tp483
F10
s(S'MP'
p484
S'MVAANP'
tp485
F1
s(S'NP'
S'AANCP'
tp486
F3
s(S'VP'
S'VADVNP'
tp487
F7
s(g268
S'APPP'
tp488
F3
s(S'DP'
S'DDDDPPP'
tp489
F1
s(S'VP'
S'ADVVPP'
tp490
F3
s(S'NP'
S'NAAAAP'
tp491
F1
s(S'CP'
S'CDAPPP'
tp492
F3
s(g55
S'VNNP'
tp493
F52
s(S'AP'
S'AADVDP'
tp494
F4
s(g456
S'NADP'
tp495
F3
s(S'DP'
p496
S'DDNP'
tp497
F52
s(g176
S'NADVCP'
tp498
F4
s(S'DP'
S'DDNNP'
tp499
F6
s(S'PP'
S'AAPPP'
tp500
F1
s(S'CP'
S'ADVADVCCDDP'
tp501
F1
s(S'NP'
S'ADVADVNCP'
tp502
F2
s(S'DP'
S'DADVADVNNP'
tp503
F2
s(g50
S'NNADVAAP'
tp504
F1
s(S'DP'
p505
S'AADPP'
tp506
F5
s(g408
S'VADVAVP'
tp507
F1
s(g428
S'APPNP'
tp508
F1
s(g182
S'AAPDP'
tp509
F3
s(g374
S'ANVVVP'
tp510
F1
s(S'NP'
p511
S'NADVADVCCP'
tp512
F2
s(S'MP'
S'MVVNP'
tp513
F4
s(S'CP'
S'ACDDP'
tp514
F6
s(S'NP'
S'ADVADVNNCP'
tp515
F1
s(g446
S'AAPP'
tp516
F7
s(g446
S'ADVADVACCP'
tp517
F1
s(S'VP'
S'VVCCP'
tp518
F5
s(g106
S'DADVVVP'
tp519
F2
s(S'DP'
S'DADVADVNP'
tp520
F1
s(S'NP'
S'NAPP'
tp521
F4
s(g277
S'NADVDP'
tp522
F3
s(g456
S'ANCCP'
tp523
F5
s(S'NP'
S'ADVNCCP'
tp524
F1
s(g179
S'VDDDP'
tp525
F1
s(g213
S'NNMP'
tp526
F6
s(g256
S'DDDVP'
tp527
F2
s(S'PP'
S'ADVADVPNNP'
tp528
F1
s(S'CP'
S'CADDPP'
tp529
F1
s(S'VP'
S'VVADVADVPP'
tp530
F1
s(g69
S'PAAAP'
tp531
F3
s(S'PP'
p532
S'ADVADVPNP'
tp533
F1
s(S'PP'
S'PPPAP'
tp534
F1
s(g170
S'ANAP'
tp535
F3
s(g135
S'MVAP'
tp536
F13
s(g67
S'PVP'
tp537
F149
s(g204
S'VADVPPP'
tp538
F1
s(S'DP'
S'DDADVAVP'
tp539
F1
s(g250
S'AAMVP'
tp540
F1
s(g442
S'APPNNP'
tp541
F2
s(S'AP'
p542
S'ADVAACP'
tp543
F1
s(g170
S'ADVNAVP'
tp544
F1
s(g303
S'ANNCP'
tp545
F3
s(S'AP'
S'AAAAACP'
tp546
F1
s(g9
S'DAAMP'
tp547
F1
s(S'PP'
S'PPDDP'
tp548
F5
s(S'VP'
S'AVCP'
tp549
F2
s(g78
S'NAVVP'
tp550
F1
s(g21
S'DPP'
tp551
F188
s(g288
S'ADVNVP'
tp552
F7
s(g21
S'DDPP'
tp553
F84
s(g87
S'DDAVP'
tp554
F1
s(g28
S'DANP'
tp555
F27
s(S'NP'
S'NADVPP'
tp556
F2
s(g161
S'NNADVADVPP'
tp557
F1
s(S'NP'
S'NAAVP'
tp558
F2
s(g31
S'APADVDDP'
tp559
F1
s(S'PP'
p560
S'PDDDP'
tp561
F5
s(S'VP'
p562
S'VADVCP'
tp563
F1
s(S'NP'
S'ANNDDP'
tp564
F1
s(g363
S'NADVCCP'
tp565
F3
s(S'DP'
S'ADVDAAP'
tp566
F1
s(g511
S'NNAACP'
tp567
F1
s(g463
S'ADDPPP'
tp568
F2
s(S'NP'
p569
S'NNNVVP'
tp570
F2
s(S'AP'
S'AAAADP'
tp571
F1
s(S'DP'
S'DCCP'
tp572
F2
s(S'CP'
S'CDPPPPP'
tp573
F1
s(g150
S'PDDP'
tp574
F40
s(S'CP'
S'CDDDDPPP'
tp575
F1
s(S'MP'
S'MVDDP'
tp576
F1
s(S'PP'
S'PCCP'
tp577
F2
s(g117
S'NNVP'
tp578
F59
s(S'NP'
S'NNNADVADVADVAVP'
tp579
F1
s(S'PP'
p580
S'APPPPP'
tp581
F1
s(S'PP'
S'APAAP'
tp582
F1
s(g170
S'NNP'
tp583
F1
s(S'VP'
S'VVDDP'
tp584
F6
s(S'DP'
S'DAANP'
tp585
F2
s(S'NP'
S'AANCCCP'
tp586
F1
s(S'AP'
S'ADDP'
tp587
F38
s(g560
S'ADVPPNP'
tp588
F2
s(S'CP'
S'CADVADVDPP'
tp589
F1
s(g324
S'DPPP'
tp590
F74
s(g460
S'AADPPP'
tp591
F2
s(S'NP'
S'NNAAPP'
tp592
F1
s(g562
S'AVVCP'
tp593
F1
s(S'AP'
S'AVVP'
tp594
F2
s(S'PP'
S'ADVPNP'
tp595
F4
s(g580
S'PPMP'
tp596
F3
s(S'MP'
S'MAVDP'
tp597
F1
s(S'NP'
S'NAP'
tp598
F53
s(S'VP'
S'VAAAP'
tp599
F1
s(S'VP'
S'AAVADVNP'
tp600
F1
s(g450
S'ADVMMNP'
tp601
F1
s(g26
S'VVP'
tp602
F81
s(S'NP'
S'NNVVP'
tp603
F10
s(S'AP'
p604
S'AAADP'
tp605
F8
s(g532
S'APNP'
tp606
F9
s(g124
S'VVVNNP'
tp607
F2
s(g256
S'DDVVP'
tp608
F11
s(g144
S'VVVNP'
tp609
F2
s(g52
S'NNADVPP'
tp610
F1
s(g188
S'MVNNP'
tp611
F2
s(g310
S'CDPP'
tp612
F171
s(g138
S'ADVVADVVP'
tp613
F1
s(S'AP'
S'ADDDP'
tp614
F1
s(S'NP'
S'NNADVADVVVP'
tp615
F1
s(g230
S'ADVDVVP'
tp616
F3
s(S'CP'
S'ADVCDP'
tp617
F3
s(g31
S'AAPVVP'
tp618
F1
s(g67
S'PPNNP'
tp619
F13
s(g152
S'ADVPAVP'
tp620
F1
s(g425
S'ADVADVDPP'
tp621
F4
s(g298
S'VDP'
tp622
F155
s(S'VP'
p623
S'AVDDP'
tp624
F2
s(g259
S'DADVNP'
tp625
F5
s(g28
S'DAP'
tp626
F30
s(S'CP'
S'CADPP'
tp627
F11
s(S'PP'
S'PPAVP'
tp628
F1
s(g132
S'PPPADVPP'
tp629
F1
s(g59
S'AVPP'
tp630
F3
s(S'VP'
S'VVADVDP'
tp631
F2
s(S'CP'
S'ADVCADVDP'
tp632
F1
s(g376
S'CDDPPPPP'
tp633
F1
s(S'CP'
S'CDPPPP'
tp634
F2
s(g623
S'AAVDP'
tp635
F3
s(S'PP'
S'PANNP'
tp636
F2
s(g52
S'NNDDP'
tp637
F1
s(g28
S'ADPPPP'
tp638
F1
s(g496
S'DAPPP'
tp639
F3
s(g505
S'DADVADVPP'
tp640
F1
s(S'DP'
S'DMP'
tp641
F5
s(S'PP'
S'PPPNP'
tp642
F3
s(S'NP'
S'NNNP'
tp643
F1
s(g604
S'AADP'
tp644
F49
s(S'NP'
S'ADVADVNNAP'
tp645
F1
s(g182
S'PPAAVP'
tp646
F1
s(g13
S'VADVPP'
tp647
F1
s(g261
S'DDAAPP'
tp648
F1
s(S'NP'
S'AANACCP'
tp649
F1
s(g389
S'PVVVVP'
tp650
F1
s(g132
S'ADVPVP'
tp651
F4
s(S'DP'
S'DDDDPP'
tp652
F2
s(g580
S'PADVADVADVDDP'
tp653
F1
s(g342
S'ADVVANP'
tp654
F1
s(S'PP'
S'ADVPDP'
tp655
F1
s(g124
S'ADVVADP'
tp656
F2
s(S'PP'
S'PPPVVP'
tp657
F1
s(S'PP'
S'PPDDDDP'
tp658
F1
s(g117
S'NCP'
tp659
F153
s(S'CP'
p660
S'CADVDPPP'
tp661
F4
s(S'AP'
S'AAAP'
tp662
F5
s(g204
S'VAADP'
tp663
F2
s(g215
S'ADVPDDP'
tp664
F1
s(g482
S'ADVVVADVADVAP'
tp665
F1
s(g268
S'PPDP'
tp666
F41
s(S'NP'
S'AANDP'
tp667
F1
s(g415
S'NNCCP'
tp668
F10
s(g484
S'MNVP'
tp669
F10
s(S'CP'
S'ADVADVCCDP'
tp670
F1
s(S'NP'
S'AANCCP'
tp671
F1
s(S'VP'
S'VAPP'
tp672
F8
s(S'VP'
S'ADVVDP'
tp673
F15
s(S'VP'
S'VADDP'
tp674
F1
s(S'DP'
S'DADVPP'
tp675
F10
s(g217
S'AMP'
tp676
F2
s(g660
S'CCADP'
tp677
F1
s(g391
S'ADVNNCP'
tp678
F2
s(S'DP'
S'ADVADVADVDDNNP'
tp679
F1
s(S'AP'
S'ADVAPP'
tp680
F2
s(S'CP'
S'AACDP'
tp681
F8
s(g569
S'NNNCCP'
tp682
F3
s(S'DP'
S'DDDDNP'
tp683
F1
s(S'CP'
S'CCDDDP'
tp684
F2
s(g9
S'ADVDPPP'
tp685
F4
s(g21
S'DVP'
tp686
F160
s(g623
S'AVNNP'
tp687
F3
s(S'NP'
S'ADVNPP'
tp688
F3
s(g253
S'NNCCCP'
tp689
F1
s(g542
S'AVP'
tp690
F18
s(g109
S'NADVVP'
tp691
F8
s(g204
S'ADVVPPP'
tp692
F2
s(g240
S'DDPPP'
tp693
F26
s(g52
S'NNNMMP'
tp694
F1
s(g380
S'NNAP'
tp695
F13
s(S'VP'
S'VADVADVNNP'
tp696
F2
s(g469
S'NNADVPPP'
tp697
F1
s(S'MP'
S'MADVVCP'
tp698
F1
s(S'PP'
S'PPANP'
tp699
F1
s(g250
S'MCDDP'
tp700
F1
s(g266
S'VVADVADVDP'
tp701
F1
s(S'CP'
S'CDADVPP'
tp702
F6
s(g298
S'VNP'
tp703
F161
s(S'VP'
S'VANP'
tp704
F12
s(g219
S'VADVAP'
tp705
F5
s(S'PP'
S'PPADVNP'
tp706
F2
s(S'DP'
S'DDDDVP'
tp707
F1
s.