ccollections
defaultdict
p1
(c__builtin__
float
p2
tRp3
(S'VP'
p4
S'VVAAAP'
tp5
F2
s(S'PP'
S'PAAANP'
tp6
F1
s(S'DP'
p7
S'DDAP'
tp8
F7
s(S'AP'
S'AVVVP'
tp9
F1
s(S'PP'
p10
S'PAPP'
tp11
F5
s(S'PP'
S'PADVNP'
tp12
F6
s(S'CP'
S'CDADVADVPPP'
tp13
F1
s(S'NP'
p14
S'ADVNDP'
tp15
F5
s(S'NP'
S'ADVNPPP'
tp16
F1
s(S'CP'
p17
S'CDPPP'
tp18
F41
s(S'VP'
p19
S'VADP'
tp20
F8
s(S'DP'
p21
S'DNNNNP'
tp22
F3
s(g7
S'DAAP'
tp23
F7
s(S'VP'
p24
S'VAVP'
tp25
F1
s(S'PP'
S'APPDP'
tp26
F1
s(S'DP'
S'ADNNP'
tp27
F2
s(S'PP'
S'ADVADVADVADVPPPP'
tp28
F1
s(S'VP'
p29
S'ADVVNP'
tp30
F13
s(S'MP'
S'MVDP'
tp31
F19
s(S'PP'
p32
S'PPPP'
tp33
F26
s(S'VP'
p34
S'VACP'
tp35
F2
s(S'AP'
S'AAAVP'
tp36
F1
s(S'DP'
S'DADVVP'
tp37
F6
s(S'VP'
p38
S'ADVADVVDDP'
tp39
F2
s(S'PP'
p40
S'PADVNNP'
tp41
F1
s(S'NP'
p42
S'NDDDP'
tp43
F1
s(S'NP'
p44
S'NADVVVP'
tp45
F1
s(S'CP'
S'CADVDAPP'
tp46
F1
s(S'NP'
S'ANADVPP'
tp47
F1
s(g38
S'VCP'
tp48
F84
s(S'NP'
p49
S'NMMP'
tp50
F6
s(S'VP'
p51
S'VVAANNP'
tp52
F1
s(S'VP'
S'ADVVAAP'
tp53
F1
s(S'VP'
p54
S'VVVVDP'
tp55
F1
s(g40
S'ADVPADP'
tp56
F1
s(S'AP'
p57
S'ADDDDP'
tp58
F1
s(S'PP'
p59
S'PPANNP'
tp60
F1
s(S'VP'
S'VADVADVAP'
tp61
F1
s(S'MP'
S'MVADVNP'
tp62
F1
s(S'PP'
p63
S'APVVP'
tp64
F3
s(S'NP'
S'NAAAVP'
tp65
F1
s(S'PP'
S'PPADVDP'
tp66
F1
s(S'MP'
S'AMVP'
tp67
F1
s(S'PP'
p68
S'PNP'
tp69
F162
s(S'NP'
p70
S'NNNNPP'
tp71
F2
s(S'NP'
p72
S'ADVADVADVNCP'
tp73
F1
s(S'DP'
p74
S'DDP'
tp75
F23
s(g14
S'NNDP'
tp76
F11
s(S'MP'
p77
S'MCDP'
tp78
F4
s(S'PP'
S'ADVPCP'
tp79
F1
s(S'NP'
S'NMP'
tp80
F53
s(S'VP'
S'AAVNP'
tp81
F2
s(g34
S'VMMP'
tp82
F2
s(S'PP'
p83
S'PDP'
tp84
F140
s(S'CP'
S'CCADVADVDP'
tp85
F1
s(S'CP'
p86
S'CDAAPP'
tp87
F1
s(S'NP'
S'ADVNVVP'
tp88
F1
s(S'VP'
S'VNNNNP'
tp89
F1
s(S'MP'
S'MADVVNP'
tp90
F2
s(S'DP'
p91
S'DNP'
tp92
F172
s(S'PP'
p93
S'PADVPP'
tp94
F2
s(S'DP'
p95
S'AADAVVP'
tp96
F1
s(S'VP'
S'AAVPP'
tp97
F1
s(S'PP'
S'PPADVAP'
tp98
F1
s(S'DP'
S'DPPPP'
tp99
F6
s(S'DP'
S'DDANP'
tp100
F1
s(g83
S'PADVADP'
tp101
F1
s(S'NP'
S'NACP'
tp102
F8
s(S'NP'
p103
S'NNNNDDP'
tp104
F1
s(g14
S'NCCP'
tp105
F37
s(S'CP'
S'CDDDDPPP'
tp106
F1
s(S'AP'
p107
S'AAAADP'
tp108
F1
s(g34
S'VVVVVP'
tp109
F1
s(g14
S'NNCP'
tp110
F40
s(S'NP'
p111
S'NADVADVVP'
tp112
F3
s(S'DP'
p113
S'DDDDP'
tp114
F1
s(g93
S'PPAP'
tp115
F7
s(S'VP'
S'AVVNNP'
tp116
F1
s(S'VP'
p117
S'AVNP'
tp118
F8
s(S'VP'
p119
S'VVADP'
tp120
F1
s(S'NP'
p121
S'NADVADVCCP'
tp122
F1
s(g93
S'ADVPVVP'
tp123
F1
s(S'VP'
S'VVMP'
tp124
F1
s(S'VP'
S'VADVVP'
tp125
F1
s(S'DP'
p126
S'ADVADVADVDVVP'
tp127
F1
s(S'VP'
S'AAAVPPP'
tp128
F1
s(S'PP'
S'PNNNNP'
tp129
F1
s(g126
S'DADVAP'
tp130
F1
s(S'CP'
S'CCCDP'
tp131
F1
s(S'VP'
p132
S'ADVVAP'
tp133
F1
s(S'AP'
S'AAADDP'
tp134
F1
s(g10
S'APDP'
tp135
F14
s(S'VP'
S'ADVVNNP'
tp136
F3
s(g57
S'AADVCP'
tp137
F2
s(g63
S'ADVPNNP'
tp138
F4
s(g93
S'ADVADVADVPDP'
tp139
F1
s(S'VP'
S'ADVADVVVDDP'
tp140
F1
s(S'AP'
p141
S'AADVADVADVDP'
tp142
F1
s(S'DP'
p143
S'ADAAAPPPP'
tp144
F1
s(S'PP'
S'PCCP'
tp145
F2
s(S'PP'
S'PAAP'
tp146
F6
s(S'NP'
S'ADVANCP'
tp147
F2
s(g7
S'DNNP'
tp148
F45
s(S'VP'
p149
S'ADVVAANP'
tp150
F1
s(S'DP'
p151
S'DPPPPP'
tp152
F2
s(S'CP'
S'CDDPPPP'
tp153
F1
s(S'CP'
S'CCADVDP'
tp154
F3
s(S'DP'
S'ADDNP'
tp155
F1
s(S'NP'
S'NNNVP'
tp156
F7
s(g149
S'VVANNP'
tp157
F1
s(S'PP'
S'PADVVP'
tp158
F3
s(S'DP'
S'DADVADVADVPPP'
tp159
F1
s(g32
S'APAP'
tp160
F2
s(S'CP'
S'ADVADVCDP'
tp161
F4
s(S'AP'
S'AAP'
tp162
F9
s(S'PP'
S'PAAADDP'
tp163
F1
s(S'DP'
S'DAAVP'
tp164
F2
s(S'MP'
p165
S'MADVVMP'
tp166
F1
s(S'PP'
p167
S'PAANP'
tp168
F3
s(S'VP'
S'VADVADVCP'
tp169
F3
s(g14
S'ANVP'
tp170
F19
s(g121
S'NNADVPP'
tp171
F1
s(S'MP'
p172
S'MVNP'
tp173
F18
s(S'PP'
S'PAVP'
tp174
F9
s(S'MP'
S'ADVMVP'
tp175
F1
s(g4
S'ADVVMP'
tp176
F1
s(S'VP'
S'VVVPP'
tp177
F2
s(S'NP'
S'NNADP'
tp178
F1
s(S'MP'
S'MADVVPP'
tp179
F1
s(S'PP'
p180
S'APADVADVVP'
tp181
F1
s(S'DP'
S'ADVDVVP'
tp182
F1
s(S'AP'
S'ADVADP'
tp183
F3
s(S'AP'
p184
S'APP'
tp185
F24
s(g149
S'VANNP'
tp186
F1
s(S'PP'
p187
S'APDDP'
tp188
F1
s(S'VP'
S'ADVADVVVNP'
tp189
F2
s(S'NP'
p190
S'ADVNAP'
tp191
F1
s(g165
S'MDVVP'
tp192
F1
s(g68
S'APVP'
tp193
F8
s(g117
S'VVNP'
tp194
F29
s(S'PP'
S'PPPNNP'
tp195
F1
s(S'CP'
S'ADVCCDP'
tp196
F1
s(g10
S'PPVP'
tp197
F33
s(S'CP'
S'CADADVADVADVPP'
tp198
F1
s(g19
S'VADVDP'
tp199
F6
s(S'VP'
S'VAAP'
tp200
F14
s(S'NP'
S'ANDP'
tp201
F4
s(g14
S'NVVP'
tp202
F44
s(g68
S'AAPVP'
tp203
F2
s(S'VP'
S'VMP'
tp204
F9
s(S'VP'
p205
S'VVNNP'
tp206
F8
s(S'CP'
p207
S'CDAPP'
tp208
F15
s(S'VP'
S'VVAAP'
tp209
F3
s(S'DP'
p210
S'ADVADVP'
tp211
F1
s(S'DP'
S'ADVADVDDVP'
tp212
F1
s(g74
S'ADNP'
tp213
F9
s(g141
S'ADVAAP'
tp214
F1
s(g86
S'ACCDP'
tp215
F2
s(S'PP'
S'PADP'
tp216
F4
s(S'VP'
S'ADVVVCP'
tp217
F1
s(S'DP'
S'ADVADVDVP'
tp218
F1
s(S'MP'
S'MDANP'
tp219
F1
s(S'DP'
p220
S'DAPP'
tp221
F20
s(S'VP'
p222
S'ADVADVVDP'
tp223
F2
s(g19
S'AVVNP'
tp224
F1
s(S'PP'
S'PPPDP'
tp225
F2
s(S'MP'
S'MVVVDP'
tp226
F1
s(S'DP'
S'DAAANP'
tp227
F1
s(g42
S'ANADVVVP'
tp228
F1
s(S'VP'
S'VAAPP'
tp229
F1
s(g74
S'ADVDNP'
tp230
F10
s(S'VP'
S'VVPP'
tp231
F23
s(S'NP'
p232
S'AAAANVP'
tp233
F1
s(S'MP'
S'MVPP'
tp234
F7
s(S'DP'
p235
S'ADVP'
tp236
F2
s(g207
S'CDDPPP'
tp237
F12
s(S'VP'
S'ADVVVDP'
tp238
F1
s(g14
S'NNPP'
tp239
F16
s(S'NP'
S'AAANDP'
tp240
F1
s(S'MP'
S'MVVDP'
tp241
F5
s(S'DP'
p242
S'DADVPPP'
tp243
F2
s(S'PP'
p244
S'PPVVP'
tp245
F5
s(S'DP'
S'DNNNP'
tp246
F8
s(S'DP'
S'ADVDADVPP'
tp247
F1
s(S'DP'
p248
S'ADVDDVP'
tp249
F1
s(g222
S'VADVDDP'
tp250
F1
s(S'PP'
S'PVVVP'
tp251
F5
s(S'PP'
S'PMP'
tp252
F10
s(S'NP'
S'NNMMP'
tp253
F3
s(S'PP'
S'ADVPPAP'
tp254
F1
s(g207
S'CCDP'
tp255
F66
s(S'NP'
S'ANNDP'
tp256
F1
s(S'VP'
S'VADVANP'
tp257
F2
s(S'NP'
S'NADVADVADVAP'
tp258
F1
s(S'DP'
S'AADDPP'
tp259
F1
s(S'NP'
p260
S'NVVVP'
tp261
F4
s(S'CP'
S'CDDDPP'
tp262
F1
s(g32
S'PPADVVP'
tp263
F3
s(g119
S'VVVDP'
tp264
F8
s(S'NP'
S'NADVAP'
tp265
F2
s(g32
S'PNNNP'
tp266
F8
s(S'DP'
S'ADVDDAVP'
tp267
F1
s(S'AP'
S'AACCP'
tp268
F2
s(S'PP'
S'AAPNP'
tp269
F3
s(g187
S'PADVVVP'
tp270
F1
s(g83
S'PPP'
tp271
F71
s(S'NP'
p272
S'NNADVDP'
tp273
F1
s(S'NP'
p274
S'NAVP'
tp275
F10
s(g91
S'DDNNNP'
tp276
F1
s(g77
S'MMADVAVP'
tp277
F1
s(S'PP'
p278
S'PADDP'
tp279
F1
s(S'CP'
p280
S'CADVDPPPP'
tp281
F1
s(g151
S'ADVDVP'
tp282
F1
s(S'NP'
S'NAAAP'
tp283
F1
s(S'NP'
S'NCCCP'
tp284
F2
s(S'DP'
p285
S'DADVADVPPP'
tp286
F1
s(S'AP'
S'AADVVP'
tp287
F1
s(S'PP'
S'PPPPDP'
tp288
F1
s(S'DP'
p289
S'ADVADVDNP'
tp290
F1
s(g117
S'VPP'
tp291
F104
s(S'DP'
p292
S'ADVDPPPP'
tp293
F1
s(g292
S'ADVDDPPP'
tp294
F1
s(S'DP'
S'ADVDDNP'
tp295
F1
s(S'NP'
p296
S'NNNCP'
tp297
F6
s(S'PP'
S'PADVDP'
tp298
F4
s(g17
S'CDDPP'
tp299
F38
s(g210
S'DAAPP'
tp300
F3
s(g32
S'PVVP'
tp301
F32
s(S'CP'
S'CADPPP'
tp302
F2
s(S'AP'
S'AACP'
tp303
F4
s(S'VP'
S'ADVVCP'
tp304
F3
s(S'MP'
S'MCCDP'
tp305
F1
s(S'PP'
p306
S'PPNNNP'
tp307
F2
s(S'VP'
S'VVPPP'
tp308
F2
s(S'MP'
S'MVPPP'
tp309
F2
s(g220
S'DVVP'
tp310
F31
s(S'AP'
S'APPP'
tp311
F1
s(S'DP'
S'ADVVP'
tp312
F2
s(S'VP'
p313
S'VVVP'
tp314
F9
s(S'DP'
S'DDPPPP'
tp315
F2
s(S'NP'
p316
S'ANCP'
tp317
F13
s(g7
S'DCP'
tp318
F21
s(S'DP'
S'DVVVP'
tp319
F1
s(S'PP'
p320
S'ADVADVADVPPNP'
tp321
F1
s(g285
S'DDDP'
tp322
F9
s(g83
S'PAP'
tp323
F56
s(S'NP'
S'ANVVP'
tp324
F3
s(S'NP'
S'NVVVVP'
tp325
F2
s(S'NP'
p326
S'NPPP'
tp327
F14
s(g113
S'AADVVP'
tp328
F1
s(S'DP'
S'DAVP'
tp329
F5
s(S'VP'
p330
S'AVVVP'
tp331
F1
s(S'PP'
S'ADVADVPAPP'
tp332
F1
s(S'DP'
S'AADDDP'
tp333
F1
s(S'PP'
S'ADVPPP'
tp334
F1
s(S'AP'
S'ACP'
tp335
F44
s(g32
S'PPNP'
tp336
F33
s(g143
S'ADVDAPP'
tp337
F1
s(S'PP'
S'AAAPPPNP'
tp338
F1
s(S'MP'
S'MACP'
tp339
F1
s(S'CP'
S'CCCDDP'
tp340
F1
s(g57
S'ADP'
tp341
F114
s(S'CP'
S'CCCDDDP'
tp342
F1
s(S'CP'
S'CADVDPP'
tp343
F10
s(S'DP'
S'AAAADPP'
tp344
F1
s(S'PP'
S'PPPAVP'
tp345
F1
s(S'VP'
S'VVPPPP'
tp346
F1
s(S'DP'
p347
S'DDVVVP'
tp348
F1
s(g54
S'AVDP'
tp349
F15
s(S'DP'
S'ADVDDNNP'
tp350
F1
s(S'DP'
S'ADVADVDDPPP'
tp351
F1
s(S'VP'
S'VADVADVADVPP'
tp352
F1
s(g190
S'ADVNACCP'
tp353
F1
s(S'VP'
p354
S'AAVCP'
tp355
F1
s(g296
S'NPP'
tp356
F106
s(S'PP'
S'PPPPNP'
tp357
F1
s(g274
S'NVP'
tp358
F180
s(g59
S'PPVVVP'
tp359
F1
s(S'PP'
S'PAAVP'
tp360
F2
s(S'NP'
S'NAAPP'
tp361
F1
s(g313
S'VDDP'
tp362
F29
s(S'PP'
p363
S'PAAPPP'
tp364
F1
s(g59
S'ADVPPVP'
tp365
F3
s(g235
S'DMP'
tp366
F6
s(S'DP'
p367
S'DADVAPP'
tp368
F1
s(S'NP'
S'NADVADVVVP'
tp369
F2
s(g49
S'ANPP'
tp370
F8
s(S'PP'
S'PPPPP'
tp371
F1
s(g107
S'AAAAAP'
tp372
F1
s(S'DP'
S'ADVDPP'
tp373
F14
s(S'PP'
S'PPVVVVP'
tp374
F1
s(S'NP'
p375
S'NPPPP'
tp376
F3
s(S'AP'
S'AADVADVDP'
tp377
F1
s(S'PP'
S'PPPPPPP'
tp378
F1
s(S'CP'
S'CAADPP'
tp379
F1
s(g7
S'DADVADVVP'
tp380
F2
s(S'NP'
S'NAACP'
tp381
F2
s(g32
S'PNNP'
tp382
F39
s(S'MP'
S'MMNP'
tp383
F4
s(S'VP'
S'AVAP'
tp384
F1
s(S'MP'
p385
S'MMVP'
tp386
F6
s(S'PP'
S'PADVDDP'
tp387
F1
s(S'NP'
p388
S'ADVNCP'
tp389
F7
s(S'DP'
p390
S'DDADVADVPP'
tp391
F1
s(g184
S'AADP'
tp392
F26
s(S'CP'
S'ACDP'
tp393
F9
s(g38
S'VCCP'
tp394
F13
s(S'NP'
S'NNACP'
tp395
F1
s(S'CP'
p396
S'CDADVPPP'
tp397
F1
s(g313
S'VAP'
tp398
F88
s(S'VP'
S'VVVVNP'
tp399
F1
s(S'DP'
S'DDDPP'
tp400
F6
s(S'CP'
S'ADVCDDP'
tp401
F1
s(g388
S'AANNCP'
tp402
F1
s(S'VP'
p403
S'VADVMP'
tp404
F1
s(g68
S'PAAPP'
tp405
F3
s(S'AP'
S'AAVVP'
tp406
F1
s(S'DP'
S'DADVDP'
tp407
F1
s(S'NP'
S'ADVADVANCCP'
tp408
F1
s(S'PP'
S'APADVVP'
tp409
F1
s(g280
S'AACADVDDP'
tp410
F1
s(S'NP'
S'NAAP'
tp411
F6
s(S'PP'
p412
S'PPPVP'
tp413
F3
s(S'AP'
S'AADDP'
tp414
F5
s(S'VP'
S'VAANP'
tp415
F2
s(S'NP'
S'NADVADVCP'
tp416
F1
s(S'MP'
p417
S'MMVVVVP'
tp418
F1
s(g313
S'VVDP'
tp419
F42
s(S'MP'
S'MADP'
tp420
F1
s(S'PP'
S'PPPDDP'
tp421
F1
s(S'AP'
S'AMMP'
tp422
F1
s(S'AP'
S'AAACCP'
tp423
F1
s(S'DP'
S'DDADVNP'
tp424
F1
s(S'PP'
S'PANP'
tp425
F12
s(g363
S'PDDDP'
tp426
F1
s(g72
S'NADVDDP'
tp427
F1
s(S'AP'
p428
S'AAVP'
tp429
F2
s(S'AP'
S'AVVP'
tp430
F6
s(g375
S'NDDP'
tp431
F12
s(S'DP'
S'ADVADVDPPP'
tp432
F1
s(S'AP'
S'ACCP'
tp433
F7
s(S'VP'
S'AVPPP'
tp434
F1
s(g274
S'NDP'
tp435
F78
s(g187
S'AAPMMP'
tp436
F1
s(S'DP'
S'DDVP'
tp437
F21
s(g316
S'AANVP'
tp438
F2
s(S'DP'
S'ADDVP'
tp439
F1
s(S'VP'
S'VNNNP'
tp440
F1
s(S'PP'
S'ADVPAP'
tp441
F1
s(S'PP'
S'APADVDP'
tp442
F1
s(S'PP'
S'PCP'
tp443
F9
s(S'VP'
S'VADVADP'
tp444
F1
s(g180
S'PAADP'
tp445
F1
s(S'VP'
S'VAAAANP'
tp446
F1
s(S'NP'
S'NADVCCP'
tp447
F1
s(S'VP'
S'VPPPP'
tp448
F1
s(S'PP'
S'PPPVVP'
tp449
F2
s(S'NP'
S'NNNDP'
tp450
F3
s(g184
S'ADVACP'
tp451
F4
s(S'NP'
S'ADVADVNMP'
tp452
F1
s(g235
S'DDADVVP'
tp453
F2
s(g74
S'ADPPP'
tp454
F4
s(S'NP'
S'NNAAVP'
tp455
F1
s(g385
S'MVCP'
tp456
F1
s(S'CP'
S'CCDDP'
tp457
F10
s(g272
S'NNADVVP'
tp458
F2
s(S'NP'
S'NNVVP'
tp459
F7
s(g51
S'VANP'
tp460
F10
s(g34
S'VVCP'
tp461
F16
s(S'NP'
p462
S'AANCP'
tp463
F6
s(g51
S'VADVNP'
tp464
F9
s(S'VP'
p465
S'ADVAVAP'
tp466
F1
s(S'CP'
S'CDADVPP'
tp467
F11
s(S'PP'
S'APPP'
tp468
F2
s(S'DP'
S'DDDDPPP'
tp469
F1
s(S'VP'
S'ADVVPP'
tp470
F5
s(S'CP'
S'CDAPPP'
tp471
F1
s(g38
S'VNNP'
tp472
F38
s(S'VP'
S'AAVVPP'
tp473
F1
s(S'AP'
S'AADVDP'
tp474
F1
s(g260
S'NADP'
tp475
F3
s(g7
S'DDNP'
tp476
F33
s(S'NP'
p477
S'NADVCP'
tp478
F6
s(S'NP'
S'NNADVAP'
tp479
F1
s(S'DP'
S'ADVADCCP'
tp480
F1
s(S'PP'
p481
S'PADVADVVVP'
tp482
F1
s(S'NP'
S'ADVANVP'
tp483
F1
s(g428
S'AADVADP'
tp484
F1
s(S'NP'
S'ADVADVNCP'
tp485
F2
s(S'DP'
S'AADPP'
tp486
F1
s(g119
S'VVVAAP'
tp487
F1
s(S'AP'
S'ADVADVADVACCP'
tp488
F1
s(S'VP'
S'VVVVCP'
tp489
F2
s(S'DP'
S'ADADVADVADVPP'
tp490
F1
s(S'MP'
S'MADVVDP'
tp491
F1
s(S'MP'
S'MVVNP'
tp492
F1
s(S'CP'
S'CDDADVPPP'
tp493
F1
s(g235
S'ADVDNNP'
tp494
F1
s(S'CP'
S'ACDDP'
tp495
F2
s(S'NP'
S'ADVADVNNCP'
tp496
F1
s(S'AP'
p497
S'AAPP'
tp498
F4
s(S'DP'
p499
S'AADADVADVVP'
tp500
F1
s(S'VP'
S'VVCCP'
tp501
F5
s(g347
S'DMMP'
tp502
F1
s(S'DP'
S'DADVADVNP'
tp503
F2
s(g121
S'NNPPP'
tp504
F2
s(S'VP'
S'VVVCCP'
tp505
F1
s(g111
S'NAPP'
tp506
F5
s(S'AP'
S'ADVADVADP'
tp507
F2
s(g34
S'VVVCP'
tp508
F2
s(S'NP'
S'ANCCP'
tp509
F4
s(g49
S'AANPP'
tp510
F4
s(S'VP'
S'VDDDP'
tp511
F1
s(g375
S'NNMP'
tp512
F8
s(S'NP'
S'NNADVCP'
tp513
F2
s(g354
S'VVVDDP'
tp514
F1
s(S'CP'
S'CADVADVDDPPP'
tp515
F1
s(S'PP'
S'PPADVADVVVP'
tp516
F1
s(S'DP'
S'AAADDVP'
tp517
F1
s(S'MP'
S'MVAP'
tp518
F7
s(g68
S'PVP'
tp519
F163
s(S'MP'
S'AAMVP'
tp520
F1
s(S'CP'
S'ACDDDP'
tp521
F1
s(g497
S'AADVDDP'
tp522
F1
s(S'NP'
S'ADVNAVP'
tp523
F1
s(S'NP'
S'ANNCP'
tp524
F2
s(S'PP'
S'PPDDP'
tp525
F5
s(g24
S'AVCP'
tp526
F1
s(g70
S'NADVADVAP'
tp527
F2
s(S'NP'
S'NAVVP'
tp528
F1
s(g91
S'DPP'
tp529
F213
s(S'NP'
S'ADVNVP'
tp530
F6
s(g91
S'DDPP'
tp531
F60
s(g499
S'DDADVPPP'
tp532
F1
s(S'DP'
S'DANP'
tp533
F25
s(S'AP'
S'ADVAMP'
tp534
F2
s(S'NP'
S'NADVPP'
tp535
F1
s(S'MP'
S'MMAP'
tp536
F1
s(g363
S'AAPPVP'
tp537
F1
s(S'NP'
S'NAAVP'
tp538
F1
s(S'DP'
p539
S'AADNP'
tp540
F1
s(S'VP'
S'VADVCP'
tp541
F3
s(S'NP'
S'NNNNCP'
tp542
F1
s(S'MP'
S'MDNP'
tp543
F5
s(g190
S'NNAACP'
tp544
F1
s(S'NP'
S'NNNVVP'
tp545
F2
s(g59
S'PADVPPP'
tp546
F2
s(S'PP'
S'AAPNNP'
tp547
F1
s(S'DP'
p548
S'DCCP'
tp549
F3
s(S'CP'
S'CDPPPPP'
tp550
F2
s(g38
S'VVDDP'
tp551
F6
s(g403
S'VVVAP'
tp552
F1
s(g32
S'PDDP'
tp553
F22
s(S'MP'
S'MVDDP'
tp554
F2
s(g244
S'ADVAPNP'
tp555
F1
s(S'NP'
S'NNVP'
tp556
F43
s(S'NP'
S'NNP'
tp557
F1
s(g91
S'ADVADPP'
tp558
F1
s(g539
S'DAANP'
tp559
F5
s(S'AP'
S'ADDP'
tp560
F13
s(S'AP'
S'AADVADVVVP'
tp561
F1
s(S'PP'
S'ADVPPNP'
tp562
F2
s(g172
S'MDAP'
tp563
F1
s(g412
S'PPPADVADVNNP'
tp564
F1
s(g91
S'DPPP'
tp565
F62
s(S'DP'
S'DAVVP'
tp566
F1
s(S'DP'
S'AADPPP'
tp567
F2
s(g306
S'ADVADVPPNP'
tp568
F1
s(S'NP'
S'NNAVP'
tp569
F1
s(S'PP'
S'ADVPNP'
tp570
F2
s(g83
S'PPDP'
tp571
F30
s(g326
S'ANADVADVVP'
tp572
F1
s(S'VP'
S'VVAP'
tp573
F6
s(g141
S'AAAPP'
tp574
F1
s(g274
S'NAP'
tp575
F47
s(g232
S'NNAAP'
tp576
F1
s(S'VP'
S'VAAAP'
tp577
F2
s(g19
S'VVP'
tp578
F23
s(g235
S'DADVNP'
tp579
F6
s(S'PP'
S'ADVADVPVP'
tp580
F1
s(g428
S'AAADP'
tp581
F6
s(g306
S'APNP'
tp582
F6
s(S'NP'
S'NAAMP'
tp583
F1
s(S'DP'
S'DDVVP'
tp584
F5
s(S'CP'
S'CADVADVDPP'
tp585
F2
s(S'VP'
p586
S'VVVNP'
tp587
F6
s(S'NP'
S'NAMP'
tp588
F1
s(S'NP'
S'AANVVP'
tp589
F1
s(g390
S'ADVADVDDPP'
tp590
F1
s(g17
S'CDPP'
tp591
F190
s(S'CP'
S'ADVCADP'
tp592
F1
s(S'VP'
S'VVAANP'
tp593
F2
s(S'DP'
S'DCCCP'
tp594
F1
s(g17
S'ADVCDP'
tp595
F11
s(g93
S'AAPVVP'
tp596
F1
s(S'VP'
S'ADVADVVNP'
tp597
F3
s(S'VP'
S'ADVADVVCP'
tp598
F1
s(S'VP'
S'VADVADVDP'
tp599
F2
s(S'PP'
S'PPNNP'
tp600
F1
s(S'MP'
S'MPPNP'
tp601
F1
s(S'MP'
S'MMAAVVP'
tp602
F1
s(S'CP'
S'CAADDPP'
tp603
F1
s(S'PP'
S'PADVADVADVVVP'
tp604
F1
s(S'DP'
S'ADVADVDPP'
tp605
F3
s(g313
S'VDP'
tp606
F162
s(S'NP'
S'AAANCCP'
tp607
F1
s(S'VP'
S'AVDDP'
tp608
F3
s(g7
S'DAP'
tp609
F30
s(g396
S'CADPP'
tp610
F13
s(S'VP'
S'ADVADVVVPP'
tp611
F1
s(S'DP'
S'DADVADVADVADVPPP'
tp612
F1
s(g586
S'ADVADVVCCP'
tp613
F2
s(g24
S'AVPP'
tp614
F3
s(S'CP'
S'CAADPPP'
tp615
F2
s(g38
S'VPPP'
tp616
F15
s(S'VP'
S'VVADVDP'
tp617
F2
s(S'CP'
S'CDPPPP'
tp618
F4
s(g465
S'AAVDP'
tp619
F1
s(S'PP'
S'PANNP'
tp620
F1
s(g132
S'VACCP'
tp621
F1
s(S'NP'
S'NNDDP'
tp622
F3
s(g289
S'DAPPP'
tp623
F1
s(g548
S'DADVADVPP'
tp624
F1
s(S'NP'
S'NNNNDP'
tp625
F1
s(S'PP'
S'PPPNP'
tp626
F2
s(S'PP'
S'PPAANP'
tp627
F1
s(g278
S'PADVADVNP'
tp628
F1
s(g242
S'ADPP'
tp629
F18
s(S'VP'
S'VADVPP'
tp630
F3
s(g248
S'ADVDANP'
tp631
F2
s(g481
S'ADVPVP'
tp632
F6
s(g205
S'AAVAAP'
tp633
F1
s(S'NP'
S'NNVVVP'
tp634
F4
s(g167
S'PADVADVADVNP'
tp635
F1
s(S'PP'
S'ADVPDP'
tp636
F6
s(S'NP'
S'ANNPP'
tp637
F2
s(g296
S'NCP'
tp638
F154
s(S'CP'
S'CADVDPPP'
tp639
F2
s(g330
S'ADVVVPP'
tp640
F1
s(g184
S'AAAP'
tp641
F1
s(S'CP'
p642
S'CDDADVADVPP'
tp643
F1
s(S'VP'
S'VAADP'
tp644
F1
s(S'AP'
S'AAMP'
tp645
F2
s(S'DP'
S'DADVNNP'
tp646
F2
s(g477
S'NNCCP'
tp647
F7
s(S'MP'
S'MNVP'
tp648
F9
s(S'NP'
p649
S'AANAP'
tp650
F1
s(S'CP'
S'ADVADVCCDP'
tp651
F1
s(g24
S'VAPP'
tp652
F6
s(S'NP'
S'NPPPPP'
tp653
F1
s(S'MP'
S'MAVNP'
tp654
F3
s(g38
S'ADVVDP'
tp655
F12
s(S'PP'
S'APADVNP'
tp656
F1
s(g21
S'DADVPP'
tp657
F13
s(S'AP'
S'AMP'
tp658
F3
s(S'CP'
S'CCADP'
tp659
F2
s(g272
S'ADVNNCP'
tp660
F3
s(S'PP'
S'ADVADVADVPNNP'
tp661
F1
s(S'NP'
S'NNNPPP'
tp662
F1
s(S'AP'
S'ADVAPP'
tp663
F1
s(S'AP'
S'ADVADVANP'
tp664
F1
s(S'CP'
S'AACDP'
tp665
F2
s(S'CP'
S'CCDDDP'
tp666
F1
s(g642
S'CCADVADVDDP'
tp667
F1
s(g367
S'ADVDPPP'
tp668
F2
s(g91
S'DVP'
tp669
F133
s(g44
S'ADVNPP'
tp670
F2
s(g29
S'ADVADVADVVVNP'
tp671
F1
s(S'PP'
S'PADVADVDDP'
tp672
F1
s(g184
S'AVP'
tp673
F22
s(S'NP'
S'NADVVP'
tp674
F7
s(S'CP'
S'CAAAADPP'
tp675
F1
s(g7
S'DDPPP'
tp676
F16
s(S'NP'
S'ADVNMP'
tp677
F1
s(g103
S'NNAP'
tp678
F4
s(g417
S'MADVVCP'
tp679
F1
s(S'PP'
S'PPANP'
tp680
F1
s(S'MP'
S'MCDDP'
tp681
F1
s(S'DP'
S'DDNNP'
tp682
F7
s(g313
S'VNP'
tp683
F148
s(g649
S'NNNADVDP'
tp684
F1
s(g38
S'VADVAP'
tp685
F3
s(g95
S'DDDANP'
tp686
F1
s(g32
S'PPADVNP'
tp687
F2
s(g320
S'AAPVVVP'
tp688
F1
s(g91
S'DDDDVP'
tp689
F1
s(S'VP'
S'ADVADVVVDP'
tp690
F1
s(g462
S'NADVPPP'
tp691
F1
s.