ccollections
defaultdict
p1
(c__builtin__
float
p2
tRp3
(S'AP'
p4
S'ADVADVADVAADP'
tp5
F1
s(S'DP'
p6
S'DDMMP'
tp7
F1
s(S'CP'
S'CAAADPP'
tp8
F1
s(S'CP'
S'CCAADDP'
tp9
F1
s(S'PP'
S'ADVADVPAP'
tp10
F1
s(S'PP'
p11
S'PAPP'
tp12
F1
s(S'PP'
S'PADVNP'
tp13
F5
s(S'DP'
p14
S'DNP'
tp15
F87
s(S'VP'
p16
S'AAAVPP'
tp17
F1
s(S'NP'
p18
S'NNNAAP'
tp19
F1
s(S'CP'
p20
S'CDPPP'
tp21
F26
s(g16
S'VADP'
tp22
F4
s(S'DP'
S'DAAP'
tp23
F2
s(S'PP'
S'APPDP'
tp24
F1
s(S'CP'
S'CADVADVDPPP'
tp25
F1
s(S'PP'
p26
S'PADVADVAAP'
tp27
F1
s(g11
S'APVP'
tp28
F3
s(S'MP'
p29
S'MVDP'
tp30
F6
s(S'PP'
p31
S'PADVANP'
tp32
F2
s(S'PP'
S'ADVPAMP'
tp33
F1
s(S'PP'
S'PPPP'
tp34
F14
s(S'VP'
S'VACP'
tp35
F1
s(S'PP'
p36
S'PPAAAAANP'
tp37
F1
s(S'DP'
S'DADVVP'
tp38
F1
s(S'NP'
S'NADVACP'
tp39
F2
s(S'NP'
p40
S'NCCCP'
tp41
F4
s(S'CP'
p42
S'CADVDAPP'
tp43
F1
s(g16
S'VCP'
tp44
F22
s(S'PP'
p45
S'PAP'
tp46
F39
s(S'MP'
S'MMVVP'
tp47
F1
s(S'CP'
S'CDADVADVADVPP'
tp48
F1
s(S'PP'
S'ADVPPVP'
tp49
F1
s(S'PP'
p50
S'APVVP'
tp51
F1
s(g45
S'PNP'
tp52
F94
s(S'NP'
S'ADVADVADVNCP'
tp53
F1
s(S'DP'
p54
S'DDP'
tp55
F24
s(S'NP'
S'NNNPP'
tp56
F2
s(S'VP'
p57
S'VCCP'
tp58
F6
s(S'MP'
p59
S'MCDP'
tp60
F1
s(S'DP'
p61
S'DDAANP'
tp62
F1
s(S'AP'
S'AANP'
tp63
F1
s(S'NP'
p64
S'NMP'
tp65
F14
s(g45
S'PDP'
tp66
F92
s(S'DP'
S'DDPPPPP'
tp67
F1
s(S'CP'
S'CDADVADVPP'
tp68
F2
s(S'NP'
S'ADVNVVP'
tp69
F1
s(S'NP'
S'NNADVMP'
tp70
F1
s(S'PP'
S'PADVPP'
tp71
F1
s(S'VP'
S'VVADVNP'
tp72
F1
s(S'NP'
S'ADVNACP'
tp73
F1
s(S'DP'
p74
S'DPPPP'
tp75
F5
s(S'DP'
p76
S'DDANP'
tp77
F2
s(S'PP'
S'PADVADP'
tp78
F1
s(S'NP'
S'NACP'
tp79
F9
s(S'NP'
p80
S'NCCP'
tp81
F32
s(S'NP'
p82
S'ADVNDP'
tp83
F1
s(S'AP'
S'AAAADP'
tp84
F1
s(S'NP'
p85
S'NNCP'
tp86
F26
s(S'DP'
p87
S'ADVDDPP'
tp88
F1
s(S'DP'
S'DDDDP'
tp89
F2
s(S'DP'
S'DDAPP'
tp90
F1
s(S'VP'
p91
S'AVNP'
tp92
F4
s(S'NP'
p93
S'NNNNNCP'
tp94
F1
s(S'NP'
p95
S'ADVNDDP'
tp96
F1
s(S'MP'
S'MVAPP'
tp97
F1
s(S'NP'
p98
S'ANADVVP'
tp99
F1
s(S'PP'
p100
S'ADVAPVP'
tp101
F2
s(S'DP'
S'DADVPPP'
tp102
F1
s(S'CP'
S'CCCDP'
tp103
F5
s(S'VP'
S'ADVVAP'
tp104
F2
s(g50
S'APDP'
tp105
F17
s(S'VP'
S'ADVVNNP'
tp106
F1
s(S'AP'
S'AADVCP'
tp107
F1
s(S'VP'
p108
S'VVVVDP'
tp109
F1
s(S'CP'
S'CADADVPPP'
tp110
F1
s(S'DP'
S'DADVADVADVPP'
tp111
F1
s(S'PP'
S'PAAP'
tp112
F6
s(S'NP'
S'ADVANCP'
tp113
F1
s(S'PP'
S'PPADVADVAAP'
tp114
F1
s(g14
S'DNNP'
tp115
F24
s(S'CP'
S'CADVDDPP'
tp116
F1
s(S'PP'
p117
S'PADVAP'
tp118
F1
s(S'PP'
p119
S'AAAPPPP'
tp120
F1
s(S'NP'
S'NNNVP'
tp121
F2
s(g16
S'VDP'
tp122
F71
s(S'PP'
p123
S'PADVVP'
tp124
F3
s(S'AP'
S'APP'
tp125
F15
s(S'AP'
S'AAP'
tp126
F5
s(S'NP'
S'ADVANPP'
tp127
F2
s(S'MP'
p128
S'MVVCP'
tp129
F1
s(S'PP'
S'PAANP'
tp130
F1
s(S'PP'
p131
S'PPVVP'
tp132
F6
s(S'NP'
S'ANADVADVADVAAP'
tp133
F1
s(S'MP'
S'MVNP'
tp134
F5
s(S'CP'
S'CDDDPPP'
tp135
F1
s(S'PP'
p136
S'PAVP'
tp137
F7
s(S'PP'
p138
S'ADVADVPPVP'
tp139
F1
s(S'VP'
S'VVVPP'
tp140
F1
s(S'CP'
S'CADVADVADPP'
tp141
F1
s(g54
S'DADP'
tp142
F4
s(S'DP'
p143
S'DAAAPPP'
tp144
F1
s(S'NP'
p145
S'ADVADVADVNNPP'
tp146
F1
s(g61
S'ADVDDP'
tp147
F1
s(S'PP'
S'APDDP'
tp148
F1
s(S'VP'
S'ADVADVVANP'
tp149
F1
s(g119
S'APPP'
tp150
F5
s(S'VP'
p151
S'ADVVNP'
tp152
F2
s(S'VP'
p153
S'VVNP'
tp154
F10
s(g100
S'PPVP'
tp155
F14
s(S'VP'
p156
S'VADVDP'
tp157
F1
s(S'VP'
p158
S'VAAP'
tp159
F4
s(g95
S'ANDP'
tp160
F1
s(g64
S'NVVP'
tp161
F10
s(S'PP'
p162
S'PPADP'
tp163
F2
s(S'VP'
p164
S'VMP'
tp165
F4
s(S'VP'
S'VVNNP'
tp166
F3
s(S'CP'
p167
S'CDAPP'
tp168
F9
s(S'DP'
S'ADVADVP'
tp169
F1
s(g14
S'ADNP'
tp170
F6
s(S'PP'
S'PADP'
tp171
F6
s(S'VP'
S'ADVVVCP'
tp172
F1
s(S'NP'
S'ANDDP'
tp173
F2
s(S'DP'
S'ADVADVADVP'
tp174
F1
s(S'VP'
S'VVVDDP'
tp175
F1
s(S'DP'
p176
S'DAPP'
tp177
F16
s(S'VP'
S'ADVADVVPP'
tp178
F1
s(S'NP'
S'ADVNNPP'
tp179
F1
s(S'MP'
S'MVVAP'
tp180
F1
s(g93
S'NNNCCCP'
tp181
F1
s(S'DP'
p182
S'DADVANP'
tp183
F2
s(g156
S'VAAPP'
tp184
F1
s(S'DP'
p185
S'ADVDNP'
tp186
F1
s(g16
S'VVPP'
tp187
F11
s(g54
S'ADADVPP'
tp188
F1
s(S'MP'
S'MVPP'
tp189
F5
s(S'DP'
p190
S'ADVP'
tp191
F5
s(S'CP'
S'CDDPPP'
tp192
F6
s(S'MP'
p193
S'ADVMVVP'
tp194
F1
s(g85
S'NNPP'
tp195
F13
s(S'CP'
S'CCCADVDP'
tp196
F1
s(g29
S'MVVDP'
tp197
F2
s(S'AP'
S'AACP'
tp198
F3
s(S'NP'
p199
S'ANVP'
tp200
F5
s(g76
S'ADVDDVP'
tp201
F1
s(S'PP'
S'PADVADVVP'
tp202
F2
s(S'VP'
p203
S'VADVDDP'
tp204
F2
s(S'VP'
S'ADVVCP'
tp205
F4
s(g136
S'PVVVP'
tp206
F2
s(S'PP'
p207
S'PMP'
tp208
F2
s(S'DP'
S'DAAAVVP'
tp209
F1
s(S'CP'
p210
S'CCDP'
tp211
F34
s(g36
S'PPNNNP'
tp212
F1
s(S'DP'
S'AADDPP'
tp213
F1
s(S'NP'
p214
S'NVVVP'
tp215
F1
s(S'CP'
S'CDDDPP'
tp216
F2
s(g31
S'PPADVVP'
tp217
F1
s(g123
S'PNNNP'
tp218
F6
s(g85
S'NPP'
tp219
F79
s(S'PP'
p220
S'AAPNP'
tp221
F1
s(g210
S'CADADVPP'
tp222
F1
s(g45
S'PPP'
tp223
F43
s(g199
S'NAVP'
tp224
F6
s(S'DP'
p225
S'ADVADVDDNP'
tp226
F1
s(g36
S'PADDP'
tp227
F1
s(S'NP'
p228
S'NAAAP'
tp229
F1
s(S'PP'
S'PPPPDP'
tp230
F1
s(S'DP'
p231
S'DAAAP'
tp232
F2
s(g14
S'ADVADVDNP'
tp233
F1
s(g16
S'VPP'
tp234
F50
s(S'CP'
S'ADVCCDP'
tp235
F1
s(S'CP'
S'ACCDP'
tp236
F1
s(g225
S'ADVDDNP'
tp237
F2
s(S'NP'
p238
S'NNNCP'
tp239
F3
s(g45
S'PADVDP'
tp240
F4
s(g20
S'CDADVAPP'
tp241
F3
s(S'CP'
p242
S'CDDPP'
tp243
F15
s(g45
S'PVVP'
tp244
F14
s(S'CP'
S'CADPPP'
tp245
F1
s(g18
S'AAAAANCP'
tp246
F1
s(S'DP'
S'DADVADVADVNNP'
tp247
F1
s(g117
S'ADVPPAP'
tp248
F1
s(g57
S'VPPP'
tp249
F5
s(S'VP'
S'VVPPP'
tp250
F2
s(S'PP'
S'PPAP'
tp251
F4
s(S'DP'
S'DVVP'
tp252
F13
s(S'PP'
S'PADVAVP'
tp253
F1
s(S'CP'
S'ADVACDDP'
tp254
F1
s(S'AP'
S'APPP'
tp255
F2
s(g45
S'ADVPPP'
tp256
F5
s(S'NP'
p257
S'ADVADVNVP'
tp258
F1
s(g153
S'VVVP'
tp259
F3
s(g74
S'DDPPPP'
tp260
F1
s(S'NP'
p261
S'ANCP'
tp262
F13
s(g176
S'DCP'
tp263
F8
s(S'DP'
S'DVVVP'
tp264
F1
s(S'DP'
p265
S'DADVADVADVNP'
tp266
F1
s(S'NP'
p267
S'NNVVVVP'
tp268
F1
s(g14
S'DDDP'
tp269
F5
s(S'DP'
S'DDADVPP'
tp270
F1
s(g59
S'MAADP'
tp271
F1
s(g80
S'ANVVP'
tp272
F2
s(S'VP'
p273
S'VVDP'
tp274
F23
s(g80
S'NPPP'
tp275
F13
s(S'DP'
S'ADDDP'
tp276
F1
s(g143
S'DAVP'
tp277
F4
s(S'VP'
p278
S'ADVAVCP'
tp279
F1
s(S'AP'
S'ACP'
tp280
F20
s(S'PP'
S'PADVADVNNP'
tp281
F1
s(g45
S'PPNP'
tp282
F34
s(g182
S'ADVDAPP'
tp283
F1
s(g265
S'AADVP'
tp284
F1
s(S'AP'
S'ADP'
tp285
F58
s(S'CP'
S'CCCDDDP'
tp286
F2
s(S'CP'
S'CADVDPP'
tp287
F5
s(S'VP'
p288
S'VVADVADVADVDDP'
tp289
F1
s(S'VP'
S'AVDP'
tp290
F7
s(S'NP'
S'ANNVP'
tp291
F1
s(g45
S'ADVAPDDP'
tp292
F1
s(g108
S'VVAP'
tp293
F6
s(S'CP'
p294
S'ADVACDP'
tp295
F1
s(S'VP'
p296
S'AAVCP'
tp297
F1
s(g214
S'NADVADVDP'
tp298
F1
s(g85
S'NVP'
tp299
F63
s(S'PP'
S'PAAVP'
tp300
F1
s(g108
S'VDDP'
tp301
F10
s(g14
S'DADVAPP'
tp302
F4
s(g40
S'ANPP'
tp303
F7
s(g207
S'PPPPP'
tp304
F4
s(g128
S'MVVPP'
tp305
F1
s(S'PP'
p306
S'PPPAAP'
tp307
F1
s(S'CP'
S'CAADPP'
tp308
F5
s(g45
S'PNNP'
tp309
F32
s(S'PP'
p310
S'APNNP'
tp311
F1
s(S'DP'
S'DDAAP'
tp312
F1
s(S'DP'
S'AAADPP'
tp313
F2
s(g57
S'AVAP'
tp314
F3
s(g228
S'ADVNCP'
tp315
F3
s(S'MP'
S'MVVVVAPP'
tp316
F1
s(S'AP'
S'AADP'
tp317
F16
s(S'CP'
S'ACDP'
tp318
F11
s(g80
S'NNDP'
tp319
F8
s(g45
S'PAAAVP'
tp320
F2
s(S'CP'
S'CDADVPPP'
tp321
F1
s(g273
S'VAP'
tp322
F24
s(S'DP'
S'DDDPP'
tp323
F3
s(S'CP'
S'ADVCDDP'
tp324
F1
s(g6
S'DDDPPP'
tp325
F3
s(g273
S'ADVAVDP'
tp326
F2
s(g61
S'ADAP'
tp327
F1
s(S'AP'
S'AAACP'
tp328
F2
s(S'AP'
S'AVVP'
tp329
F1
s(S'AP'
S'AADDP'
tp330
F1
s(S'VP'
S'VAANP'
tp331
F3
s(S'DP'
S'DAAADP'
tp332
F1
s(g310
S'PAAAAP'
tp333
F1
s(g138
S'PADVADVPPP'
tp334
F1
s(S'MP'
S'MADP'
tp335
F1
s(g162
S'PANP'
tp336
F14
s(g82
S'NADVDDP'
tp337
F1
s(S'AP'
S'AAVP'
tp338
F3
s(g82
S'NAAP'
tp339
F1
s(S'NP'
S'NDDP'
tp340
F7
s(S'NP'
p341
S'NADVCCP'
tp342
F1
s(S'DP'
S'ADVADVDPPP'
tp343
F1
s(S'AP'
p344
S'ACCP'
tp345
F2
s(g296
S'VVVVAP'
tp346
F1
s(g64
S'NDP'
tp347
F40
s(S'MP'
S'MVAAP'
tp348
F1
s(g74
S'DDVP'
tp349
F8
s(g185
S'ADADVPPP'
tp350
F1
s(g145
S'AANVP'
tp351
F1
s(S'VP'
S'VNNNP'
tp352
F1
s(S'PP'
p353
S'ADVPAP'
tp354
F1
s(g4
S'AADVADVADP'
tp355
F1
s(g131
S'PCP'
tp356
F3
s(S'NP'
p357
S'NNPPP'
tp358
F3
s(S'PP'
S'PAADP'
tp359
F1
s(S'DP'
p360
S'ADVADVADVDDNP'
tp361
F1
s(g85
S'ANNPP'
tp362
F2
s(S'NP'
S'NNNDP'
tp363
F1
s(S'AP'
S'ADVACP'
tp364
F4
s(S'PP'
p365
S'PAPPP'
tp366
F1
s(S'DP'
S'ADPPP'
tp367
F5
s(S'MP'
S'MVCP'
tp368
F1
s(g242
S'CCDDP'
tp369
F13
s(S'VP'
S'AAAVAP'
tp370
F1
s(S'NP'
p371
S'NNVVP'
tp372
F3
s(S'VP'
S'VVCP'
tp373
F7
s(g261
S'AANCP'
tp374
F2
s(g288
S'VAADP'
tp375
F2
s(S'MP'
S'MADVNACP'
tp376
F1
s(S'AP'
S'AAAPP'
tp377
F1
s(g16
S'VNNP'
tp378
F10
s(S'NP'
S'NADP'
tp379
F1
s(g54
S'DDNP'
tp380
F14
s(g257
S'NADVNP'
tp381
F1
s(g357
S'NADVCP'
tp382
F1
s(S'DP'
S'DDNNP'
tp383
F5
s(S'NP'
S'ADVANVP'
tp384
F1
s(S'DP'
S'AADPP'
tp385
F7
s(g82
S'NADVADVCCP'
tp386
F1
s(S'CP'
p387
S'CDDADVPPP'
tp388
F1
s(S'AP'
S'AAPP'
tp389
F7
s(g273
S'VVCCP'
tp390
F2
s(g64
S'NAPP'
tp391
F6
s(g365
S'APPVP'
tp392
F1
s(g82
S'NADVDP'
tp393
F1
s(g14
S'ADVDANNP'
tp394
F1
s(g80
S'ANCCP'
tp395
F5
s(g257
S'AANPP'
tp396
F3
s(g261
S'NNMP'
tp397
F7
s(S'PP'
S'ADVADVADVPVVP'
tp398
F1
s(S'NP'
S'ANAP'
tp399
F1
s(S'MP'
S'MVAP'
tp400
F1
s(g203
S'VADVADVDDP'
tp401
F1
s(g45
S'PVP'
tp402
F78
s(S'DP'
p403
S'ADVDPP'
tp404
F8
s(g176
S'DADVAVP'
tp405
F1
s(S'AP'
S'AAVVVP'
tp406
F1
s(g238
S'ANNCP'
tp407
F2
s(S'PP'
S'PPDDP'
tp408
F2
s(S'VP'
p409
S'AVCP'
tp410
F1
s(g14
S'DPP'
tp411
F109
s(g14
S'DDPP'
tp412
F33
s(g76
S'DDADVPPP'
tp413
F1
s(g54
S'DANP'
tp414
F18
s(S'NP'
S'NADVPP'
tp415
F3
s(S'DP'
S'DDAAAANP'
tp416
F1
s(g267
S'NAAVP'
tp417
F1
s(g231
S'ADVADVADPP'
tp418
F1
s(g360
S'AADNP'
tp419
F1
s(S'VP'
S'VADVCP'
tp420
F2
s(S'MP'
S'MDNP'
tp421
F1
s(S'PP'
S'ADVADVPPP'
tp422
F1
s(g158
S'VVVAP'
tp423
F1
s(g119
S'PDDP'
tp424
F10
s(S'PP'
S'ADVAPNP'
tp425
F2
s(g85
S'NNVP'
tp426
F17
s(g306
S'PPPNP'
tp427
F2
s(g190
S'DAANP'
tp428
F3
s(g344
S'ADDP'
tp429
F6
s(g220
S'ADVPPNP'
tp430
F1
s(S'NP'
S'ADVNCCCP'
tp431
F1
s(S'NP'
S'ADVADVNNMP'
tp432
F1
s(g14
S'DPPP'
tp433
F35
s(S'DP'
S'AADPPP'
tp434
F1
s(S'NP'
S'NNAVP'
tp435
F1
s(g353
S'ADVPNP'
tp436
F5
s(g100
S'PPDP'
tp437
F17
s(g91
S'ADVVANNP'
tp438
F1
s(S'MP'
S'AMADVVP'
tp439
F1
s(S'AP'
S'ADVADVAACP'
tp440
F1
s(g193
S'MADVAVCP'
tp441
F1
s(g64
S'NAP'
tp442
F20
s(S'NP'
p443
S'NNAAP'
tp444
F2
s(S'VP'
S'VAAAP'
tp445
F1
s(g151
S'VVP'
tp446
F9
s(g403
S'DADVNP'
tp447
F4
s(S'AP'
S'AAADP'
tp448
F2
s(g162
S'APNP'
tp449
F6
s(S'DP'
p450
S'DDVVP'
tp451
F2
s(g164
S'VVVNP'
tp452
F2
s(S'MP'
S'AMAP'
tp453
F1
s(g4
S'ADVADVAAPP'
tp454
F1
s(g20
S'CDPP'
tp455
F103
s(S'VP'
S'AAAVVCP'
tp456
F1
s(g167
S'ADVCDP'
tp457
F3
s(S'AP'
S'ADVAAP'
tp458
F1
s(g409
S'ADVADVVNP'
tp459
F1
s(g45
S'PADVADVDP'
tp460
F1
s(g100
S'PPNNP'
tp461
F3
s(g87
S'ADVADVDPP'
tp462
F1
s(S'VP'
S'VVVVAPP'
tp463
F1
s(S'NP'
S'NADVAP'
tp464
F2
s(S'AP'
S'ADVAAAP'
tp465
F1
s(g54
S'DAP'
tp466
F17
s(g20
S'CADPP'
tp467
F17
s(S'PP'
S'PPDDDP'
tp468
F1
s(g57
S'AVPP'
tp469
F4
s(S'CP'
S'CDDPPPPP'
tp470
F1
s(S'CP'
S'CDPPPP'
tp471
F2
s(S'VP'
S'AAVDP'
tp472
F1
s(S'VP'
S'VACCP'
tp473
F1
s(g85
S'NNDDP'
tp474
F2
s(S'DP'
S'DAPPP'
tp475
F1
s(S'DP'
S'DADVADVPP'
tp476
F2
s(S'DP'
S'DMP'
tp477
F2
s(g214
S'ADVNAADP'
tp478
F1
s(S'NP'
S'NADVAPP'
tp479
F1
s(g136
S'PADVADVNP'
tp480
F1
s(g14
S'ADPP'
tp481
F22
s(S'NP'
S'NNADVVVP'
tp482
F1
s(g153
S'VADVPP'
tp483
F1
s(g100
S'PVVVVP'
tp484
F1
s(g100
S'ADVPVP'
tp485
F2
s(g26
S'PAMP'
tp486
F1
s(S'PP'
S'ADVPDP'
tp487
F1
s(g207
S'PPPVVP'
tp488
F2
s(g85
S'NCP'
tp489
F98
s(g42
S'CADVDPPP'
tp490
F1
s(S'AP'
S'AAAP'
tp491
F1
s(g450
S'DADVNNP'
tp492
F2
s(g98
S'NNCCP'
tp493
F6
s(S'NP'
S'AANAP'
tp494
F3
s(g387
S'ADVADVCCDP'
tp495
F1
s(g278
S'VAPP'
tp496
F3
s(g14
S'DADVPP'
tp497
F8
s(S'CP'
S'CCADP'
tp498
F2
s(S'AP'
S'ADVAPP'
tp499
F2
s(g182
S'ADVDPPP'
tp500
F1
s(g14
S'DVP'
tp501
F57
s(g371
S'ADVNPP'
tp502
F2
s(S'NP'
S'NNCCCP'
tp503
F1
s(S'AP'
S'AVP'
tp504
F12
s(g341
S'NADVVP'
tp505
F1
s(g74
S'DDPPP'
tp506
F10
s(S'NP'
S'ADVNMP'
tp507
F1
s(S'NP'
S'NNAP'
tp508
F1
s(S'MP'
S'MADVVCP'
tp509
F1
s(S'PP'
S'PPANP'
tp510
F1
s(g294
S'CDADVPP'
tp511
F3
s(g16
S'VNP'
tp512
F63
s(S'VP'
S'VANP'
tp513
F3
s(S'VP'
S'VADVAP'
tp514
F4
s(g443
S'ADVNNCCCP'
tp515
F1
s.