ccollections
defaultdict
p1
(c__builtin__
float
p2
tRp3
(S'DP'
p4
S'ADDPP'
tp5
F2
s(S'DP'
p6
S'DDAP'
tp7
F1
s(S'DP'
S'DAANNP'
tp8
F1
s(S'NP'
p9
S'ADVNAPP'
tp10
F1
s(S'PP'
p11
S'PADVNP'
tp12
F7
s(S'DP'
p13
S'DNP'
tp14
F138
s(S'NP'
S'ADVNDP'
tp15
F4
s(S'CP'
p16
S'CDPPP'
tp17
F25
s(S'VP'
S'VADP'
tp18
F3
s(S'DP'
p19
S'DAAP'
tp20
F4
s(S'PP'
p21
S'PPPPPP'
tp22
F1
s(S'DP'
S'ADNNP'
tp23
F2
s(S'PP'
S'APVP'
tp24
F9
s(S'MP'
S'MVDP'
tp25
F6
s(S'PP'
p26
S'PPPP'
tp27
F24
s(S'AP'
S'ADVAPPP'
tp28
F1
s(S'VP'
p29
S'VACP'
tp30
F3
s(S'PP'
S'PPAAP'
tp31
F3
s(S'DP'
p32
S'DADVVP'
tp33
F3
s(S'MP'
S'MMCP'
tp34
F1
s(S'PP'
S'PADVNNP'
tp35
F1
s(S'AP'
S'AADVPP'
tp36
F2
s(S'NP'
S'NCCCP'
tp37
F2
s(S'CP'
p38
S'CADVDAPP'
tp39
F1
s(S'VP'
p40
S'VCP'
tp41
F50
s(S'PP'
p42
S'ADVPNNP'
tp43
F2
s(S'PP'
p44
S'PAP'
tp45
F46
s(S'PP'
S'PPANNP'
tp46
F1
s(S'PP'
S'ADVPPVP'
tp47
F2
s(S'PP'
S'APVVP'
tp48
F2
s(S'VP'
S'AAVNNP'
tp49
F1
s(S'PP'
S'PNP'
tp50
F141
s(S'NP'
p51
S'ADVADVADVNNCP'
tp52
F1
s(S'DP'
p53
S'DDP'
tp54
F38
s(S'CP'
S'CADVDADVADVPP'
tp55
F1
s(S'NP'
S'NNNPP'
tp56
F1
s(S'VP'
p57
S'VCCP'
tp58
F5
s(S'CP'
p59
S'ADVCADVADP'
tp60
F1
s(S'DP'
S'DADVADVADVPP'
tp61
F1
s(S'NP'
p62
S'NMP'
tp63
F13
s(S'PP'
S'PAPP'
tp64
F4
s(S'DP'
p65
S'ADCP'
tp66
F1
s(S'DP'
S'ADVADVADDADVPP'
tp67
F1
s(S'VP'
S'VMMP'
tp68
F1
s(g26
S'PDP'
tp69
F139
s(S'NP'
p70
S'ADVNVVP'
tp71
F2
s(S'CP'
S'CDADVADVPPP'
tp72
F3
s(S'PP'
p73
S'PADVPP'
tp74
F3
s(S'VP'
S'AAVPP'
tp75
F1
s(S'VP'
p76
S'VVADVNP'
tp77
F1
s(S'VP'
S'VVDDP'
tp78
F1
s(S'NP'
S'ADVANCP'
tp79
F2
s(S'DP'
S'DPPPP'
tp80
F4
s(S'DP'
p81
S'DDANP'
tp82
F1
s(S'PP'
p83
S'PADVADP'
tp84
F1
s(g62
S'NACP'
tp85
F12
s(S'AP'
p86
S'ADVAVP'
tp87
F2
s(S'NP'
S'NCCP'
tp88
F30
s(S'VP'
p89
S'VVVVVP'
tp90
F1
s(S'NP'
p91
S'NNCP'
tp92
F26
s(S'DP'
S'ADVDDPP'
tp93
F1
s(S'NP'
S'NADVADVVP'
tp94
F1
s(S'VP'
S'ADVADVADVADVVVNP'
tp95
F1
s(S'DP'
p96
S'DDDDP'
tp97
F1
s(S'VP'
S'AVNP'
tp98
F5
s(S'DP'
p99
S'DDAAP'
tp100
F1
s(S'NP'
p101
S'NADVADVPP'
tp102
F1
s(S'PP'
S'PPPPADVNP'
tp103
F1
s(S'VP'
S'VADVVP'
tp104
F1
s(S'NP'
S'ANADVVP'
tp105
F2
s(S'PP'
S'ADVPADVDP'
tp106
F1
s(S'CP'
S'CCCDP'
tp107
F3
s(S'VP'
S'ADVVAP'
tp108
F6
s(S'PP'
p109
S'ADVPPNNP'
tp110
F1
s(S'VP'
p111
S'VCCCP'
tp112
F2
s(S'PP'
S'APDP'
tp113
F12
s(S'AP'
S'AADVCP'
tp114
F2
s(S'VP'
S'VVVVDP'
tp115
F1
s(S'VP'
S'ADVVVP'
tp116
F1
s(S'AP'
S'AANP'
tp117
F1
s(S'CP'
p118
S'CCCADP'
tp119
F1
s(S'MP'
S'MAVNP'
tp120
F1
s(S'PP'
S'PAAP'
tp121
F9
s(S'NP'
S'NANP'
tp122
F1
s(S'DP'
S'DNNP'
tp123
F27
s(S'CP'
S'CADVDDPP'
tp124
F1
s(S'DP'
S'DPPPPP'
tp125
F2
s(S'NP'
S'NNNVP'
tp126
F1
s(S'PP'
S'PADVVP'
tp127
F3
s(S'DP'
S'DACP'
tp128
F1
s(g83
S'APAP'
tp129
F2
s(S'AP'
S'APP'
tp130
F22
s(S'DP'
S'DADVADVADVADVVVP'
tp131
F1
s(S'AP'
p132
S'AAP'
tp133
F4
s(S'CP'
p134
S'CADVADPP'
tp135
F1
s(S'DP'
S'DAAAPP'
tp136
F1
s(S'PP'
S'PAANP'
tp137
F1
s(S'NP'
p138
S'ANVP'
tp139
F7
s(S'VP'
S'VAACP'
tp140
F1
s(S'PP'
S'PADVADVADVNNP'
tp141
F1
s(S'CP'
S'CDDDPPP'
tp142
F1
s(g6
S'ADVADNP'
tp143
F1
s(S'PP'
p144
S'PAVP'
tp145
F11
s(S'PP'
S'ADVAPNNP'
tp146
F1
s(g96
S'DDAPPP'
tp147
F1
s(S'VP'
S'VVVPP'
tp148
F3
s(S'NP'
p149
S'NNADVADVVVP'
tp150
F1
s(S'DP'
S'DADP'
tp151
F2
s(S'AP'
S'ADVADP'
tp152
F1
s(g6
S'ADVDDP'
tp153
F1
s(S'PP'
S'APDDP'
tp154
F1
s(S'VP'
S'ADVADVVVNP'
tp155
F1
s(S'DP'
S'DDVVVVP'
tp156
F1
s(S'NP'
S'ADVNAP'
tp157
F1
s(S'DP'
S'DDADVADVADVVVP'
tp158
F1
s(S'VP'
S'ADVVNP'
tp159
F6
s(S'VP'
S'VVNP'
tp160
F18
s(g44
S'PPVP'
tp161
F20
s(S'MP'
S'MPCP'
tp162
F1
s(S'VP'
S'VADVDP'
tp163
F2
s(S'DP'
p164
S'DDDPP'
tp165
F6
s(S'VP'
S'VAAP'
tp166
F8
s(g91
S'ANDP'
tp167
F8
s(S'NP'
S'NVVP'
tp168
F26
s(S'VP'
S'VMP'
tp169
F5
s(S'VP'
S'VVNNP'
tp170
F2
s(S'CP'
S'CDAPP'
tp171
F13
s(S'VP'
p172
S'VVAAP'
tp173
F2
s(S'DP'
p174
S'ADNP'
tp175
F8
s(S'PP'
S'PADP'
tp176
F12
s(S'DP'
p177
S'DAPP'
tp178
F19
s(S'VP'
S'ADVADVVPP'
tp179
F1
s(S'VP'
p180
S'ADVADVVDP'
tp181
F1
s(S'PP'
S'PPPDP'
tp182
F2
s(S'VP'
p183
S'VDDDDP'
tp184
F1
s(S'DP'
S'DADVANP'
tp185
F1
s(S'DP'
p186
S'ADVDNP'
tp187
F3
s(S'VP'
p188
S'VVPP'
tp189
F8
s(S'DP'
S'ADADVPP'
tp190
F1
s(S'MP'
S'MVPP'
tp191
F5
s(g177
S'ADVP'
tp192
F7
s(g180
S'VADVADVNNP'
tp193
F1
s(g138
S'NNPP'
tp194
F18
s(g96
S'DADVPPP'
tp195
F3
s(S'DP'
p196
S'DNNNP'
tp197
F4
s(S'PP'
S'PVVVP'
tp198
F1
s(S'PP'
S'PMP'
tp199
F12
s(S'CP'
p200
S'CCDP'
tp201
F43
s(S'NP'
S'ANNDP'
tp202
F1
s(S'VP'
S'VADVANP'
tp203
F1
s(S'PP'
S'ADVADVPPPP'
tp204
F1
s(S'NP'
p205
S'NVVVP'
tp206
F1
s(S'CP'
S'CDDDPP'
tp207
F4
s(g38
S'CDAAPP'
tp208
F1
s(S'VP'
S'VVVDP'
tp209
F1
s(g144
S'PNNNP'
tp210
F3
s(g59
S'CCCCDP'
tp211
F1
s(S'MP'
S'MVNP'
tp212
F4
s(S'PP'
S'AAPNP'
tp213
F1
s(S'CP'
S'CADADVPP'
tp214
F1
s(g44
S'PPP'
tp215
F87
s(S'NP'
p216
S'NAVP'
tp217
F1
s(S'PP'
S'PADVAP'
tp218
F2
s(g11
S'PADDP'
tp219
F2
s(S'DP'
S'ADVDVP'
tp220
F6
s(S'DP'
p221
S'DADVADVPPP'
tp222
F3
s(S'AP'
S'AADVVP'
tp223
F1
s(S'PP'
S'PPPPDP'
tp224
F1
s(S'DP'
S'DAAAP'
tp225
F1
s(g200
S'CADPP'
tp226
F18
s(g40
S'VPP'
tp227
F79
s(S'CP'
p228
S'ADVCCDP'
tp229
F2
s(g138
S'NNNCP'
tp230
F2
s(S'PP'
S'PADVDP'
tp231
F4
s(S'CP'
S'CDADVAPP'
tp232
F1
s(g81
S'DANNP'
tp233
F1
s(S'CP'
S'CDDPP'
tp234
F35
s(S'DP'
p235
S'DAAPP'
tp236
F1
s(S'PP'
S'PVVP'
tp237
F21
s(g118
S'CADPPP'
tp238
F1
s(S'AP'
S'AACP'
tp239
F8
s(S'NP'
S'NADVMMP'
tp240
F1
s(S'VP'
S'ADVVCP'
tp241
F4
s(S'VP'
S'VPPP'
tp242
F10
s(S'VP'
S'VVPPP'
tp243
F2
s(S'PP'
p244
S'PPAP'
tp245
F6
s(g221
S'DVVP'
tp246
F16
s(S'AP'
S'APPP'
tp247
F3
s(S'PP'
p248
S'ADVPPP'
tp249
F4
s(S'VP'
p250
S'VVVP'
tp251
F4
s(S'NP'
S'ADVNNCCP'
tp252
F1
s(g16
S'CADVDPP'
tp253
F8
s(S'NP'
p254
S'ADVADVNNVP'
tp255
F3
s(g62
S'ANCP'
tp256
F18
s(S'DP'
S'DCP'
tp257
F6
s(S'DP'
p258
S'DVVVP'
tp259
F1
s(S'NP'
S'NNDDDDP'
tp260
F1
s(S'NP'
S'NNVVVVP'
tp261
F1
s(S'DP'
S'DDDP'
tp262
F2
s(S'NP'
S'ANVVP'
tp263
F4
s(S'NP'
S'NVVVVP'
tp264
F1
s(S'NP'
p265
S'NPPP'
tp266
F14
s(g258
S'ADDDP'
tp267
F1
s(g13
S'DAVP'
tp268
F3
s(S'AP'
p269
S'ACP'
tp270
F35
s(S'PP'
S'PADVADVNNP'
tp271
F1
s(S'PP'
p272
S'PPNP'
tp273
F34
s(S'NP'
S'NAADP'
tp274
F1
s(g235
S'ADVDAPP'
tp275
F1
s(S'AP'
S'ADP'
tp276
F71
s(S'PP'
S'ADVADVPPMP'
tp277
F1
s(S'DP'
p278
S'ADDVVP'
tp279
F1
s(S'VP'
S'VAAANP'
tp280
F1
s(S'MP'
S'MADDP'
tp281
F1
s(S'AP'
S'AAADP'
tp282
F4
s(g265
S'ANNVP'
tp283
F2
s(g183
S'VVAP'
tp284
F9
s(S'PP'
p285
S'APPVVP'
tp286
F1
s(S'NP'
S'NPP'
tp287
F122
s(S'PP'
p288
S'PPPPNP'
tp289
F3
s(S'NP'
p290
S'NVP'
tp291
F112
s(S'PP'
p292
S'PAAVP'
tp293
F1
s(g21
S'PPPPVP'
tp294
F1
s(S'MP'
S'ADVMMVP'
tp295
F1
s(g188
S'VDDP'
tp296
F21
s(g132
S'AAADVDP'
tp297
F1
s(S'DP'
S'DADVAPP'
tp298
F1
s(g254
S'NADVADVVVP'
tp299
F1
s(S'NP'
S'ANPP'
tp300
F15
s(S'PP'
S'ADVPPDP'
tp301
F1
s(g285
S'PPPPP'
tp302
F5
s(S'MP'
S'MPDP'
tp303
F1
s(S'NP'
p304
S'NNCCCCP'
tp305
F1
s(S'CP'
S'CAADPP'
tp306
F5
s(S'NP'
S'NAACP'
tp307
F3
s(g144
S'PNNP'
tp308
F27
s(g109
S'APNNP'
tp309
F3
s(g278
S'ADVDADVADVPP'
tp310
F1
s(S'VP'
S'AVAP'
tp311
F1
s(S'NP'
p312
S'ADVNCP'
tp313
F2
s(S'AP'
S'AADP'
tp314
F21
s(S'AP'
S'AADVADVADVVP'
tp315
F1
s(S'VP'
S'VAPPP'
tp316
F1
s(S'CP'
S'ACDP'
tp317
F17
s(S'NP'
S'NNDP'
tp318
F8
s(S'CP'
S'CCCCDDP'
tp319
F1
s(g216
S'NNACP'
tp320
F1
s(S'CP'
S'CDADVPPP'
tp321
F2
s(S'VP'
p322
S'VAP'
tp323
F50
s(S'VP'
S'VVVVNP'
tp324
F1
s(S'VP'
S'VVADVAP'
tp325
F1
s(S'CP'
p326
S'ADVCDDP'
tp327
F3
s(S'NP'
p328
S'AANNCP'
tp329
F1
s(S'NP'
S'ANADVCP'
tp330
F1
s(S'AP'
S'AAVVP'
tp331
F1
s(S'VP'
S'ADVADVVVAP'
tp332
F1
s(g13
S'DDDPPP'
tp333
F1
s(g172
S'ADVAVDP'
tp334
F1
s(g32
S'ADAP'
tp335
F1
s(g19
S'DADVDP'
tp336
F1
s(S'AP'
S'AAACP'
tp337
F1
s(S'VP'
S'ADVVVDP'
tp338
F1
s(S'PP'
S'PPPVP'
tp339
F1
s(S'AP'
S'AADDP'
tp340
F3
s(S'VP'
p341
S'VAANP'
tp342
F2
s(g57
S'VVDP'
tp343
F20
s(S'MP'
S'MPNP'
tp344
F3
s(g288
S'PPPDDP'
tp345
F2
s(S'DP'
S'DDADVNP'
tp346
F1
s(S'PP'
S'PANP'
tp347
F13
s(S'DP'
S'AADNP'
tp348
F1
s(g235
S'DADVADVNNP'
tp349
F1
s(S'NP'
S'NAAP'
tp350
F5
s(S'NP'
p351
S'NDDP'
tp352
F8
s(S'AP'
S'ACCP'
tp353
F4
s(S'VP'
S'AVPPP'
tp354
F1
s(g290
S'NDP'
tp355
F58
s(g13
S'DDVP'
tp356
F16
s(g70
S'AANVP'
tp357
F2
s(S'PP'
S'PPADVANP'
tp358
F1
s(S'DP'
p359
S'ADDVP'
tp360
F1
s(g65
S'DDDVVVVP'
tp361
F1
s(g244
S'PPPPVVP'
tp362
F1
s(S'PP'
S'PCP'
tp363
F11
s(S'NP'
p364
S'NNPPP'
tp365
F3
s(S'PP'
S'PAADP'
tp366
F1
s(S'NP'
S'ADVNNVP'
tp367
F1
s(S'NP'
p368
S'NADVCCP'
tp369
F2
s(S'VP'
p370
S'VPPPP'
tp371
F2
s(g70
S'NNNDP'
tp372
F1
s(S'AP'
S'ADVACP'
tp373
F2
s(g19
S'DDADVVP'
tp374
F2
s(g359
S'ADPPP'
tp375
F4
s(S'MP'
S'MVCP'
tp376
F7
s(S'CP'
S'CCDDP'
tp377
F9
s(g368
S'NNADVVP'
tp378
F2
s(S'MP'
p379
S'MVMP'
tp380
F1
s(S'NP'
S'NNVVP'
tp381
F1
s(g341
S'VVCP'
tp382
F18
s(S'NP'
S'AANCP'
tp383
F4
s(S'VP'
S'VADVNP'
tp384
F4
s(S'PP'
S'APPP'
tp385
F3
s(g341
S'VNNP'
tp386
F11
s(g86
S'AADVDP'
tp387
F3
s(g51
S'NADP'
tp388
F4
s(g221
S'DDNP'
tp389
F25
s(g101
S'NADVCP'
tp390
F3
s(S'DP'
S'DDNNP'
tp391
F2
s(S'VP'
S'VPPPPP'
tp392
F2
s(g70
S'ADVADVNCP'
tp393
F1
s(S'AP'
S'ADVADDP'
tp394
F1
s(g196
S'AADPP'
tp395
F6
s(S'PP'
S'APPNP'
tp396
F1
s(S'NP'
p397
S'NNNNPP'
tp398
F1
s(S'PP'
S'ADVPAP'
tp399
F2
s(S'NP'
S'ANVVVP'
tp400
F1
s(S'MP'
S'MVVNP'
tp401
F1
s(S'CP'
p402
S'CDDADVPPP'
tp403
F1
s(S'AP'
S'AAPP'
tp404
F2
s(S'VP'
S'VVCCP'
tp405
F2
s(S'DP'
p406
S'DADVVVP'
tp407
F2
s(g196
S'DADVADVNP'
tp408
F1
s(S'PP'
S'ADVPANP'
tp409
F1
s(g149
S'NNADVCP'
tp410
F1
s(g9
S'NAPP'
tp411
F3
s(S'PP'
p412
S'APPVP'
tp413
F1
s(g351
S'NADVDP'
tp414
F2
s(S'MP'
S'MADVADVVVDP'
tp415
F1
s(S'NP'
S'ANCCP'
tp416
F4
s(S'NP'
S'AANPP'
tp417
F2
s(g205
S'NNMP'
tp418
F2
s(S'PP'
S'ADVADVADVPVVP'
tp419
F1
s(S'CP'
p420
S'CADDPP'
tp421
F1
s(S'PP'
S'ADVADVPNP'
tp422
F3
s(S'CP'
S'CDDAPP'
tp423
F3
s(S'NP'
S'ANAP'
tp424
F2
s(S'MP'
S'MVAP'
tp425
F2
s(g44
S'PVP'
tp426
F116
s(S'VP'
S'VADVPPP'
tp427
F2
s(S'DP'
S'DADVAVP'
tp428
F1
s(g99
S'AADPPPPP'
tp429
F1
s(S'NP'
S'ANNCP'
tp430
F1
s(S'VP'
S'VCCCCP'
tp431
F1
s(g412
S'PPDDP'
tp432
F3
s(g40
S'AVCP'
tp433
F3
s(S'DP'
S'DDVVVP'
tp434
F1
s(S'DP'
S'DPP'
tp435
F156
s(S'NP'
S'ADVNVP'
tp436
F2
s(g164
S'DDPP'
tp437
F55
s(g186
S'DDADVPPP'
tp438
F1
s(g53
S'DANP'
tp439
F31
s(S'NP'
S'NADVPP'
tp440
F3
s(g328
S'NAAVP'
tp441
F1
s(g248
S'PDDDP'
tp442
F1
s(S'VP'
S'VADVCP'
tp443
F1
s(S'MP'
S'MDNP'
tp444
F1
s(S'NP'
S'AANNDP'
tp445
F1
s(S'PP'
S'PADVPPP'
tp446
F1
s(S'CP'
p447
S'CDPPPPP'
tp448
F1
s(g370
S'ADVADVADVVDDP'
tp449
F1
s(S'DP'
S'DDADVNNP'
tp450
F2
s(g285
S'PAPPP'
tp451
F1
s(g248
S'PDDP'
tp452
F26
s(g138
S'NNVP'
tp453
F13
s(S'PP'
S'APPPPP'
tp454
F1
s(g322
S'AVDP'
tp455
F4
s(S'DP'
S'ADVADPP'
tp456
F2
s(g177
S'DAANP'
tp457
F4
s(g269
S'ADDP'
tp458
F12
s(g412
S'ADVPPNP'
tp459
F5
s(S'NP'
S'AAAANCCP'
tp460
F1
s(g53
S'DPPP'
tp461
F42
s(S'PP'
S'ADVADVPPNP'
tp462
F1
s(S'AP'
S'AVVP'
tp463
F1
s(S'PP'
S'PPPANP'
tp464
F1
s(g272
S'ADVPNP'
tp465
F9
s(g244
S'PPDP'
tp466
F27
s(S'DP'
S'DDCP'
tp467
F2
s(S'PP'
S'PAANNP'
tp468
F1
s(g290
S'NAP'
tp469
F32
s(g76
S'VAAAP'
tp470
F2
s(S'VP'
p471
S'VVP'
tp472
F15
s(S'DP'
S'DDAPP'
tp473
F3
s(g292
S'APNP'
tp474
F6
s(S'DP'
p475
S'DDVVP'
tp476
F1
s(g471
S'VVVNP'
tp477
F2
s(S'MP'
S'MNPP'
tp478
F1
s(S'NP'
S'NNADVPP'
tp479
F1
s(S'CP'
S'CDPP'
tp480
F146
s(S'AP'
S'ADDDP'
tp481
F1
s(S'CP'
S'ADVCADP'
tp482
F1
s(S'DP'
S'ADVDVVP'
tp483
F2
s(g402
S'ADVCDP'
tp484
F2
s(g144
S'PPNNP'
tp485
F4
s(g40
S'VDP'
tp486
F110
s(S'VP'
S'AVDDP'
tp487
F1
s(S'DP'
S'DADVNP'
tp488
F2
s(g174
S'DAP'
tp489
F16
s(g379
S'MCADP'
tp490
F1
s(g29
S'VANNP'
tp491
F1
s(g109
S'PPAVP'
tp492
F1
s(g228
S'CAADPPPPP'
tp493
F1
s(S'MP'
S'MADVADVVDP'
tp494
F1
s(S'VP'
S'AVPP'
tp495
F3
s(g134
S'CDPPPP'
tp496
F3
s(S'VP'
S'VADVADVCCP'
tp497
F1
s(g292
S'PANNP'
tp498
F1
s(g397
S'NNDDP'
tp499
F1
s(g475
S'DAPPP'
tp500
F1
s(S'DP'
S'DADVADVPP'
tp501
F1
s(g91
S'AANVVP'
tp502
F1
s(S'DP'
S'ADVDPP'
tp503
F10
s(S'NP'
S'AAANPP'
tp504
F1
s(S'DP'
S'ADPP'
tp505
F22
s(g420
S'CDDPPP'
tp506
F7
s(g73
S'ADVPVP'
tp507
F4
s(S'DP'
S'DDDDPP'
tp508
F2
s(g101
S'NNVVVP'
tp509
F2
s(g73
S'ADVPDP'
tp510
F4
s(g288
S'PPPVVP'
tp511
F1
s(S'MP'
S'MVADVAP'
tp512
F1
s(g290
S'NCP'
tp513
F130
s(S'CP'
S'CADVDPPP'
tp514
F2
s(g89
S'ADVVVPP'
tp515
F1
s(S'NP'
S'NADVADVADDP'
tp516
F1
s(g364
S'ADVANDP'
tp517
F1
s(S'AP'
S'AAAP'
tp518
F1
s(S'VP'
S'VAADP'
tp519
F1
s(S'PP'
S'PPAPP'
tp520
F1
s(S'NP'
S'AANDP'
tp521
F1
s(S'NP'
S'NNCCP'
tp522
F4
s(S'MP'
S'MNVP'
tp523
F1
s(S'CP'
S'ADVADVCCDP'
tp524
F1
s(S'VP'
S'VAPP'
tp525
F7
s(g9
S'NPPPPP'
tp526
F1
s(S'VP'
S'ADVVDP'
tp527
F4
s(g53
S'DADVPP'
tp528
F16
s(g269
S'AMP'
tp529
F5
s(g447
S'CCADP'
tp530
F1
s(g328
S'ADVNNCP'
tp531
F1
s(S'CP'
S'AACDP'
tp532
F4
s(S'NP'
S'NNNCCP'
tp533
F2
s(g326
S'CCDDDP'
tp534
F1
s(g406
S'ADVDPPP'
tp535
F2
s(g96
S'DVP'
tp536
F99
s(S'NP'
S'ADVNPP'
tp537
F3
s(S'VP'
S'ADVADVADVVVNP'
tp538
F1
s(S'AP'
S'AVP'
tp539
F15
s(S'NP'
S'NADVVP'
tp540
F8
s(S'CP'
S'CDAAAPP'
tp541
F1
s(g4
S'DDPPP'
tp542
F10
s(S'NP'
S'ADVNMP'
tp543
F1
s(g312
S'NNAP'
tp544
F6
s(g42
S'PPANP'
tp545
F2
s(S'CP'
S'CDADVPP'
tp546
F11
s(S'VP'
S'VNP'
tp547
F79
s(S'VP'
S'VANP'
tp548
F5
s(g250
S'VADVAP'
tp549
F4
s(g111
S'VVVAP'
tp550
F1
s(S'VP'
S'ADVADVVVDP'
tp551
F1
s(g304
S'NADVPPP'
tp552
F2
s.