ccollections
defaultdict
p1
(c__builtin__
float
p2
tRp3
(S'MP'
S'MMDP'
tp4
F1
s(S'PP'
S'PPPADDP'
tp5
F1
s(S'CP'
S'CAAADPP'
tp6
F1
s(S'DP'
S'ADDPP'
tp7
F4
s(S'VP'
S'VVVVP'
tp8
F1
s(S'AP'
S'AVVVP'
tp9
F1
s(S'PP'
p10
S'ADVADVPAP'
tp11
F1
s(S'PP'
p12
S'PAPP'
tp13
F8
s(S'PP'
S'PADVNP'
tp14
F7
s(S'DP'
p15
S'DNP'
tp16
F235
s(S'NP'
S'ANCCCP'
tp17
F1
s(S'NP'
p18
S'ADVNDP'
tp19
F4
s(S'VP'
S'ADVVNNP'
tp20
F2
s(S'CP'
S'CDPPP'
tp21
F42
s(S'CP'
S'ADVADVCADVDDDP'
tp22
F1
s(S'VP'
p23
S'VADP'
tp24
F14
s(S'DP'
S'DNNNNP'
tp25
F2
s(S'MP'
p26
S'MNADVADVVVP'
tp27
F1
s(S'DP'
S'DAAP'
tp28
F4
s(S'PP'
S'PPPPPP'
tp29
F2
s(S'CP'
S'CCCADDP'
tp30
F1
s(S'VP'
p31
S'VAVP'
tp32
F2
s(S'PP'
p33
S'APPDP'
tp34
F1
s(S'CP'
S'CADVADVDPPP'
tp35
F1
s(S'AP'
S'AADVMP'
tp36
F1
s(S'NP'
p37
S'ADVNAAACP'
tp38
F1
s(S'MP'
p39
S'MDVP'
tp40
F2
s(S'DP'
S'ADVADVDPPP'
tp41
F1
s(S'VP'
S'ADVVNP'
tp42
F11
s(S'MP'
p43
S'MVDP'
tp44
F20
s(S'PP'
S'PADVANP'
tp45
F1
s(S'PP'
p46
S'PPPP'
tp47
F21
s(S'DP'
S'DDDNP'
tp48
F8
s(g23
S'VACP'
tp49
F5
s(S'DP'
S'DADVVP'
tp50
F9
s(S'MP'
S'MMCP'
tp51
F1
s(S'MP'
S'MPPPNP'
tp52
F1
s(S'NP'
p53
S'NAAAADVNNP'
tp54
F1
s(S'NP'
p55
S'NADVACP'
tp56
F1
s(S'NP'
p57
S'NDDDP'
tp58
F2
s(S'NP'
p59
S'NCCCP'
tp60
F4
s(S'CP'
S'CADVADVDDPP'
tp61
F1
s(S'VP'
p62
S'VCP'
tp63
F77
s(S'MP'
S'MVVANP'
tp64
F1
s(S'NP'
p65
S'NMMP'
tp66
F7
s(S'NP'
S'ADVADVADVADVANCP'
tp67
F1
s(S'DP'
S'ADVDDDPP'
tp68
F1
s(S'VP'
S'ADVVCCP'
tp69
F2
s(g46
S'PAP'
tp70
F78
s(S'MP'
S'MADVVCCP'
tp71
F1
s(S'MP'
S'MMVVP'
tp72
F1
s(S'DP'
S'DDADVADVPP'
tp73
F1
s(S'NP'
S'NNNAP'
tp74
F1
s(S'PP'
p75
S'APVVP'
tp76
F2
s(S'NP'
S'NAAAVP'
tp77
F1
s(g46
S'PNP'
tp78
F215
s(S'PP'
S'PAAADP'
tp79
F1
s(S'PP'
p80
S'PPPPPPP'
tp81
F1
s(S'VP'
S'ADVVDDP'
tp82
F1
s(S'NP'
p83
S'NNNPP'
tp84
F4
s(S'PP'
p85
S'PAAP'
tp86
F14
s(S'MP'
S'MCDP'
tp87
F3
s(S'CP'
S'ACADVADVADVDP'
tp88
F1
s(S'CP'
S'AACCDP'
tp89
F1
s(S'DP'
S'DDAANP'
tp90
F1
s(S'MP'
p91
S'MNAP'
tp92
F1
s(S'VP'
S'ADVADVVVCP'
tp93
F2
s(S'NP'
p94
S'NMP'
tp95
F63
s(S'CP'
S'CADVDADVPP'
tp96
F1
s(S'VP'
S'VAAADP'
tp97
F1
s(S'DP'
S'DDDDPP'
tp98
F1
s(S'VP'
p99
S'VMMP'
tp100
F4
s(S'PP'
S'PDP'
tp101
F196
s(S'CP'
S'CDAAPP'
tp102
F5
s(S'VP'
S'VVVDDP'
tp103
F1
s(S'MP'
S'MADVVNP'
tp104
F1
s(S'NP'
S'NACCP'
tp105
F1
s(S'AP'
S'ANP'
tp106
F1
s(S'NP'
S'NADVADVADVVP'
tp107
F1
s(S'PP'
p108
S'PADVPP'
tp109
F2
s(S'VP'
p110
S'AAVPP'
tp111
F1
s(S'VP'
S'VVADVNP'
tp112
F2
s(S'DP'
p113
S'DDAAPPP'
tp114
F1
s(S'NP'
S'ADVANCP'
tp115
F1
s(S'PP'
S'ADVADVAPPP'
tp116
F1
s(S'DP'
p117
S'DPPPP'
tp118
F12
s(S'DP'
p119
S'DDANP'
tp120
F5
s(S'NP'
p121
S'NACP'
tp122
F11
s(S'AP'
S'ADVAVP'
tp123
F1
s(g37
S'NCCP'
tp124
F45
s(S'MP'
S'MADVPDP'
tp125
F1
s(S'NP'
p126
S'NNCP'
tp127
F42
s(S'DP'
p128
S'ADVDDPP'
tp129
F4
s(S'NP'
S'NADVADVVP'
tp130
F1
s(S'DP'
S'DDAPP'
tp131
F2
s(S'VP'
p132
S'AVNP'
tp133
F12
s(S'VP'
p134
S'VVADP'
tp135
F1
s(S'NP'
S'ADVNDDP'
tp136
F1
s(S'NP'
S'NADVADVPP'
tp137
F3
s(S'CP'
S'CDDADVADVADVPP'
tp138
F1
s(S'VP'
S'VVNNNP'
tp139
F1
s(g108
S'ADVPVVP'
tp140
F1
s(S'DP'
S'ADADVNP'
tp141
F1
s(S'PP'
S'ADVAPDP'
tp142
F1
s(g33
S'AAPNP'
tp143
F4
s(S'VP'
S'ADVADVAVNP'
tp144
F1
s(S'VP'
S'VADVVP'
tp145
F1
s(S'MP'
S'MVPPP'
tp146
F1
s(S'NP'
S'ANADVVP'
tp147
F1
s(S'CP'
S'CCCDP'
tp148
F7
s(g31
S'AVNNP'
tp149
F5
s(S'VP'
S'VCCCP'
tp150
F2
s(S'PP'
S'PADVVVP'
tp151
F1
s(S'PP'
p152
S'APDP'
tp153
F26
s(S'NP'
S'ADVNPPP'
tp154
F1
s(S'PP'
p155
S'PADVADVADVPP'
tp156
F1
s(g53
S'AAAADVNNAACP'
tp157
F1
s(S'VP'
S'VVANP'
tp158
F5
s(S'VP'
S'ADVVVP'
tp159
F1
s(S'NP'
S'ADVNCP'
tp160
F7
s(S'CP'
S'CDDAAAPP'
tp161
F1
s(S'DP'
p162
S'AADDVP'
tp163
F2
s(g162
S'DNNP'
tp164
F54
s(S'CP'
p165
S'CADVDDPP'
tp166
F3
s(S'CP'
S'CDDPPPP'
tp167
F1
s(S'CP'
S'CCADVDP'
tp168
F4
s(S'VP'
S'ADVADVADVVVDP'
tp169
F1
s(S'VP'
p170
S'AAVDDP'
tp171
F1
s(S'NP'
S'NNNVP'
tp172
F4
s(S'PP'
S'AAPPDP'
tp173
F1
s(S'PP'
p174
S'PADVVP'
tp175
F6
s(S'CP'
S'CADVADVADVDAPP'
tp176
F1
s(S'PP'
S'APAP'
tp177
F2
s(S'AP'
S'APP'
tp178
F22
s(S'AP'
S'ACCCP'
tp179
F1
s(S'NP'
S'NADVMP'
tp180
F1
s(S'AP'
p181
S'AAP'
tp182
F8
s(S'VP'
S'VADVADVVP'
tp183
F3
s(S'CP'
S'CADVADPP'
tp184
F1
s(S'NP'
S'ADVADVNDP'
tp185
F1
s(S'NP'
S'ADVADVNCCP'
tp186
F1
s(S'VP'
S'VVVVPP'
tp187
F2
s(S'DP'
S'DAAVP'
tp188
F2
s(S'MP'
S'MPVP'
tp189
F1
s(S'PP'
S'PAANP'
tp190
F1
s(S'DP'
S'DDADVADVVP'
tp191
F1
s(S'NP'
p192
S'ANVP'
tp193
F10
s(S'VP'
S'VAACP'
tp194
F2
s(S'MP'
S'MVNP'
tp195
F19
s(S'MP'
S'MNDP'
tp196
F1
s(S'CP'
S'CDDDPPP'
tp197
F4
s(S'DP'
S'ADVADNP'
tp198
F1
s(S'PP'
S'PAVP'
tp199
F28
s(S'MP'
S'ADVMVP'
tp200
F1
s(S'VP'
S'ADVVMP'
tp201
F2
s(S'VP'
S'VVVPP'
tp202
F4
s(S'DP'
S'DADP'
tp203
F5
s(S'NP'
S'AAANADVDDP'
tp204
F1
s(g181
S'ADVADP'
tp205
F5
s(S'CP'
S'ADVADVCDP'
tp206
F3
s(S'PP'
S'APDDP'
tp207
F4
s(S'DP'
S'DDVVVVP'
tp208
F1
s(S'NP'
S'ADVNAP'
tp209
F1
s(S'DP'
S'DAAAVP'
tp210
F1
s(S'PP'
p211
S'PPCP'
tp212
F1
s(g12
S'APVP'
tp213
F15
s(S'MP'
S'MNNCP'
tp214
F2
s(S'MP'
S'MNCP'
tp215
F2
s(S'VP'
p216
S'VVNP'
tp217
F30
s(S'VP'
S'AAAAVDP'
tp218
F1
s(g174
S'PPVP'
tp219
F38
s(S'CP'
S'CADADVADVADVPP'
tp220
F1
s(g216
S'VADVDP'
tp221
F7
s(S'VP'
p222
S'VAAP'
tp223
F11
s(S'MP'
p224
S'MANPP'
tp225
F1
s(S'NP'
S'ANDP'
tp226
F12
s(S'NP'
p227
S'NVVP'
tp228
F39
s(S'PP'
S'AAPVP'
tp229
F1
s(g155
S'PPADP'
tp230
F2
s(S'VP'
p231
S'VMP'
tp232
F28
s(S'VP'
p233
S'VVNNP'
tp234
F3
s(S'CP'
p235
S'CDAPP'
tp236
F20
s(S'CP'
S'CDDAAPP'
tp237
F1
s(S'MP'
S'MMPP'
tp238
F1
s(S'DP'
S'ADVADVP'
tp239
F2
s(S'DP'
S'ADVADVDDVP'
tp240
F1
s(g117
S'ADNP'
tp241
F23
s(S'NP'
S'AANPP'
tp242
F1
s(S'PP'
p243
S'PADP'
tp244
F20
s(S'DP'
S'DDAAAPP'
tp245
F1
s(S'PP'
S'PAAPP'
tp246
F2
s(S'CP'
S'CDAAAAPP'
tp247
F1
s(S'DP'
p248
S'ADVADVDVP'
tp249
F1
s(S'MP'
S'MDANP'
tp250
F1
s(S'PP'
S'ADVADVPMP'
tp251
F1
s(S'DP'
S'ADNNP'
tp252
F2
s(S'DP'
p253
S'DAPP'
tp254
F38
s(S'VP'
p255
S'AVVP'
tp256
F1
s(S'MP'
S'MVVCP'
tp257
F2
s(S'VP'
S'VADVADVNP'
tp258
F1
s(S'MP'
S'MDDNP'
tp259
F1
s(g255
S'ADVADVVDP'
tp260
F4
s(S'PP'
p261
S'PPPDP'
tp262
F4
s(S'VP'
S'VVAACCP'
tp263
F1
s(S'CP'
S'CADDPP'
tp264
F1
s(g134
S'VDDDDP'
tp265
F3
s(S'DP'
S'DAAANP'
tp266
F2
s(S'DP'
S'DADVANP'
tp267
F1
s(S'DP'
p268
S'ADVDNP'
tp269
F8
s(g216
S'VVPP'
tp270
F17
s(S'PP'
p271
S'ADVPAAPP'
tp272
F1
s(S'PP'
S'PAVVP'
tp273
F1
s(S'MP'
p274
S'MVPP'
tp275
F11
s(S'DP'
p276
S'ADVP'
tp277
F8
s(S'CP'
S'CDDPPP'
tp278
F7
s(S'VP'
S'ADVADVADVVDP'
tp279
F1
s(S'NP'
S'NNPP'
tp280
F24
s(S'DP'
S'DDDDNP'
tp281
F1
s(S'MP'
S'MVVDP'
tp282
F2
s(S'DP'
S'DADVPPP'
tp283
F1
s(S'PP'
p284
S'PPVVP'
tp285
F7
s(S'DP'
S'DNNNP'
tp286
F7
s(S'DP'
S'ADVDADVPP'
tp287
F1
s(S'DP'
S'ADVDDVP'
tp288
F1
s(S'PP'
S'PADVADVVP'
tp289
F1
s(S'NP'
S'ADVANVVP'
tp290
F1
s(S'VP'
p291
S'ADVVCP'
tp292
F4
s(g243
S'PVVVP'
tp293
F9
s(S'PP'
p294
S'PMP'
tp295
F15
s(g165
S'CCDP'
tp296
F69
s(S'DP'
S'ADVADVADVDPP'
tp297
F2
s(S'MP'
S'AMVP'
tp298
F2
s(g10
S'PPNNNP'
tp299
F1
s(S'NP'
S'NVVVP'
tp300
F6
s(S'CP'
S'CDDDPP'
tp301
F7
s(S'CP'
S'CDADVADVPP'
tp302
F4
s(S'VP'
p303
S'VVVDP'
tp304
F12
s(S'PP'
S'PDDDDP'
tp305
F2
s(S'PP'
p306
S'PNNNP'
tp307
F3
s(S'AP'
S'AACCP'
tp308
F1
s(S'VP'
p309
S'VVMP'
tp310
F4
s(S'PP'
S'AAPADVDP'
tp311
F1
s(S'VP'
S'ADVVVDP'
tp312
F1
s(g46
S'PPP'
tp313
F94
s(S'AP'
S'ADVAACCP'
tp314
F1
s(g55
S'NAVP'
tp315
F16
s(S'PP'
p316
S'PADVAP'
tp317
F1
s(S'DP'
p318
S'DDNNNP'
tp319
F2
s(S'VP'
p320
S'AAVVP'
tp321
F1
s(S'DP'
S'ADVDVP'
tp322
F7
s(S'NP'
S'NAAAP'
tp323
F1
s(S'PP'
S'PPPPDP'
tp324
F1
s(S'MP'
S'MVVVNNP'
tp325
F1
s(g222
S'VPP'
tp326
F100
s(S'DP'
S'ADVDPPPP'
tp327
F1
s(S'CP'
S'ACCDP'
tp328
F1
s(S'DP'
p329
S'ADVDDNP'
tp330
F2
s(S'NP'
p331
S'NNNCP'
tp332
F5
s(S'PP'
S'PADVDP'
tp333
F7
s(S'CP'
S'CDADVAPP'
tp334
F1
s(g243
S'PPPAAVP'
tp335
F1
s(S'AP'
S'ADVAADP'
tp336
F1
s(S'DP'
p337
S'DANNP'
tp338
F2
s(S'PP'
S'PADVAAP'
tp339
F2
s(S'CP'
S'CDDPP'
tp340
F35
s(g253
S'DAAPP'
tp341
F6
s(g284
S'PVVP'
tp342
F29
s(S'CP'
p343
S'CADPPP'
tp344
F4
s(S'AP'
S'AACP'
tp345
F8
s(S'PP'
S'PMMP'
tp346
F2
s(g99
S'VPPP'
tp347
F17
s(S'VP'
S'AVCCP'
tp348
F1
s(S'CP'
S'CDADVADVAPP'
tp349
F1
s(S'VP'
p350
S'VVPPP'
tp351
F4
s(S'PP'
p352
S'PPAP'
tp353
F13
s(g162
S'DVVP'
tp354
F33
s(S'PP'
p355
S'PADVAVP'
tp356
F1
s(g37
S'ANMP'
tp357
F3
s(S'PP'
S'ADVPPP'
tp358
F3
s(S'NP'
S'ADVADVNVP'
tp359
F2
s(S'VP'
S'VVVP'
tp360
F13
s(S'CP'
S'CADVDPP'
tp361
F14
s(g216
S'AVMP'
tp362
F3
s(g37
S'ANCP'
tp363
F26
s(g113
S'DCP'
tp364
F11
s(S'DP'
p365
S'DVVVP'
tp366
F6
s(S'NP'
S'AAANCP'
tp367
F1
s(S'DP'
p368
S'DDDP'
tp369
F9
s(g119
S'DDADVPP'
tp370
F3
s(S'NP'
S'ANVVP'
tp371
F4
s(g216
S'VVDP'
tp372
F53
s(g192
S'NPPP'
tp373
F19
s(S'PP'
p374
S'PPAPP'
tp375
F1
s(S'VP'
S'VAPPP'
tp376
F1
s(S'VP'
S'VVADVDP'
tp377
F1
s(S'DP'
p378
S'DAVP'
tp379
F16
s(S'VP'
p380
S'ADVADVADVADVVNP'
tp381
F1
s(S'VP'
S'ADVAVCP'
tp382
F1
s(S'AP'
S'ACP'
tp383
F34
s(g46
S'PPNP'
tp384
F40
s(g331
S'NAADP'
tp385
F1
s(S'MP'
p386
S'MADNP'
tp387
F1
s(g222
S'VVVVNNP'
tp388
F1
s(S'MP'
S'ADVMDP'
tp389
F2
s(S'CP'
S'CDDADVPP'
tp390
F1
s(S'CP'
S'CCCDDP'
tp391
F1
s(S'AP'
p392
S'ADP'
tp393
F146
s(g268
S'DDAVP'
tp394
F2
s(S'VP'
S'VAAANP'
tp395
F1
s(g224
S'MADDP'
tp396
F1
s(g211
S'APPAP'
tp397
F1
s(S'VP'
p398
S'VVPPPP'
tp399
F1
s(S'VP'
p400
S'AVDP'
tp401
F26
s(S'NP'
S'ANNVP'
tp402
F1
s(S'VP'
S'VVAP'
tp403
F6
s(g26
S'MNADVVP'
tp404
F1
s(S'CP'
S'ADVACDP'
tp405
F1
s(g12
S'PPADVVP'
tp406
F2
s(g320
S'AAVCP'
tp407
F1
s(S'NP'
S'NPP'
tp408
F161
s(S'NP'
S'NNNP'
tp409
F1
s(g126
S'NVP'
tp410
F200
s(S'PP'
S'PAAVP'
tp411
F1
s(S'NP'
S'NAAPP'
tp412
F3
s(g80
S'PPPPVP'
tp413
F2
s(S'DP'
S'DDDDNNP'
tp414
F2
s(S'VP'
S'VDDP'
tp415
F48
s(g33
S'AADVPADP'
tp416
F1
s(S'AP'
S'AAADVDP'
tp417
F1
s(S'NP'
p418
S'NNAAMP'
tp419
F1
s(S'NP'
S'AANNVP'
tp420
F1
s(S'MP'
S'MVADVPPP'
tp421
F1
s(S'DP'
S'DMP'
tp422
F2
s(S'DP'
S'DADVAPP'
tp423
F1
s(g318
S'AADDNP'
tp424
F1
s(g94
S'ANPP'
tp425
F20
s(S'PP'
p426
S'PPPPP'
tp427
F6
s(S'MP'
S'MPDP'
tp428
F6
s(g85
S'ADVADVPDP'
tp429
F2
s(S'AP'
S'AAAAAP'
tp430
F1
s(S'DP'
S'ADVDPP'
tp431
F21
s(S'NP'
S'NNMMMP'
tp432
F1
s(S'DP'
S'DDDDDP'
tp433
F2
s(S'AP'
S'ADVADVAVP'
tp434
F1
s(S'VP'
S'ADVADVVADVAP'
tp435
F1
s(g37
S'NPPPP'
tp436
F2
s(S'DP'
S'ADDP'
tp437
F4
s(g113
S'DDP'
tp438
F39
s(S'CP'
S'CAADPP'
tp439
F4
s(S'NP'
S'NAACP'
tp440
F7
s(g152
S'PNNP'
tp441
F38
s(S'PP'
S'APNNP'
tp442
F1
s(S'DP'
S'DDAAP'
tp443
F2
s(S'MP'
S'MMNP'
tp444
F2
s(S'DP'
p445
S'AAADPP'
tp446
F1
s(S'VP'
S'AVAP'
tp447
F2
s(g43
S'MMVP'
tp448
F9
s(S'PP'
S'PADVDDP'
tp449
F1
s(S'PP'
S'PCCP'
tp450
F3
s(g128
S'ADPP'
tp451
F41
s(g331
S'NAPPP'
tp452
F2
s(g343
S'ACDP'
tp453
F14
s(g83
S'NNDP'
tp454
F16
s(S'NP'
p455
S'NNACP'
tp456
F3
s(S'DP'
S'AAADPPP'
tp457
F1
s(S'CP'
S'CDADVPPP'
tp458
F1
s(S'VP'
p459
S'VAP'
tp460
F87
s(S'MP'
S'MNVVP'
tp461
F2
s(g378
S'DDDPP'
tp462
F9
s(S'CP'
S'ADVCDDP'
tp463
F1
s(g65
S'AANNCP'
tp464
F1
s(S'VP'
S'VADVMP'
tp465
F1
s(S'DP'
S'DDDPPPP'
tp466
F1
s(S'MP'
S'MVVVDP'
tp467
F1
s(S'MP'
p468
S'MNMP'
tp469
F2
s(S'DP'
S'DDDPPP'
tp470
F5
s(S'VP'
S'ADVAVDP'
tp471
F2
s(S'DP'
S'ADAP'
tp472
F1
s(g445
S'DADVDP'
tp473
F1
s(S'VP'
S'AVVAP'
tp474
F1
s(S'AP'
p475
S'AVVP'
tp476
F3
s(S'MP'
p477
S'MANVP'
tp478
F1
s(S'PP'
p479
S'PPPVP'
tp480
F5
s(S'AP'
p481
S'AADDP'
tp482
F5
s(S'PP'
S'PPPADVADVNP'
tp483
F1
s(S'VP'
S'VAANP'
tp484
F1
s(S'NP'
S'NADVADVCP'
tp485
F3
s(S'DP'
S'DAAAAPP'
tp486
F1
s(S'DP'
S'AAADDP'
tp487
F1
s(S'NP'
S'NVVVVP'
tp488
F2
s(S'PP'
S'PAAAAP'
tp489
F1
s(g274
S'MVVVCP'
tp490
F1
s(S'MP'
S'MPNP'
tp491
F2
s(S'MP'
S'MADP'
tp492
F4
s(S'NP'
p493
S'NNNDDP'
tp494
F1
s(S'AP'
S'AMMP'
tp495
F2
s(S'DP'
S'DDADVNP'
tp496
F2
s(g152
S'PANP'
tp497
F14
s(S'MP'
S'MVVPPP'
tp498
F1
s(S'MP'
p499
S'ADVAMVP'
tp500
F1
s(S'NP'
S'AANMP'
tp501
F1
s(S'AP'
S'AAVP'
tp502
F3
s(S'NP'
p503
S'NAAP'
tp504
F12
s(S'NP'
S'NDDP'
tp505
F13
s(S'MP'
S'MVADVDP'
tp506
F1
s(S'AP'
S'ACCP'
tp507
F1
s(S'VP'
S'AVPPP'
tp508
F3
s(g227
S'NDP'
tp509
F108
s(S'MP'
S'MVAAP'
tp510
F1
s(S'DP'
p511
S'DDVP'
tp512
F24
s(S'DP'
S'DAADVPP'
tp513
F1
s(S'NP'
S'AANVP'
tp514
F2
s(S'DP'
S'DADVADVAPP'
tp515
F1
s(S'DP'
S'ADDVP'
tp516
F1
s(g398
S'VNNNP'
tp517
F2
s(g85
S'ADVPAP'
tp518
F2
s(g294
S'PCP'
tp519
F12
s(S'NP'
p520
S'NNPPP'
tp521
F3
s(g374
S'PAADDP'
tp522
F1
s(S'PP'
S'PAADP'
tp523
F4
s(S'NP'
S'ANNPP'
tp524
F1
s(S'VP'
S'VCCP'
tp525
F14
s(S'MP'
S'MPAP'
tp526
F1
s(S'MP'
S'MVNNNP'
tp527
F1
s(S'NP'
S'NNNDP'
tp528
F2
s(S'AP'
S'ADVACP'
tp529
F1
s(S'NP'
S'AANVVVP'
tp530
F1
s(S'VP'
p531
S'VVVAP'
tp532
F2
s(S'DP'
S'ADPPP'
tp533
F5
s(g520
S'NNAAVP'
tp534
F1
s(S'MP'
S'MVCP'
tp535
F5
s(S'CP'
S'CCDDP'
tp536
F12
s(S'VP'
S'AAAVAP'
tp537
F1
s(S'VP'
S'VVADVADVAP'
tp538
F1
s(S'NP'
S'NNNVVP'
tp539
F1
s(S'DP'
S'DAAAAVP'
tp540
F1
s(g91
S'MVMP'
tp541
F1
s(g248
S'ADVADVDDAVP'
tp542
F1
s(S'PP'
p543
S'PPAAP'
tp544
F2
s(S'NP'
S'NAAMP'
tp545
F1
s(g418
S'NNNNVP'
tp546
F3
s(S'VP'
S'VVCP'
tp547
F12
s(S'NP'
S'AANCP'
tp548
F4
s(S'VP'
S'VADVNP'
tp549
F5
s(g479
S'APPP'
tp550
F6
s(g303
S'ADVVPP'
tp551
F2
s(S'VP'
S'VVADVANP'
tp552
F1
s(S'AP'
S'AAAADDP'
tp553
F2
s(g132
S'VNNP'
tp554
F25
s(g475
S'AADVDP'
tp555
F2
s(g503
S'NADP'
tp556
F8
s(g119
S'DDNP'
tp557
F56
s(g235
S'ACADVDP'
tp558
F2
s(g455
S'NADVCP'
tp559
F8
s(S'DP'
S'DDNNP'
tp560
F5
s(S'PP'
S'AAPPP'
tp561
F2
s(g65
S'ADVANVP'
tp562
F2
s(S'AP'
S'AADVADP'
tp563
F3
s(S'NP'
S'AANAAP'
tp564
F1
s(S'AP'
S'ADVADDP'
tp565
F1
s(g276
S'AADPP'
tp566
F8
s(g170
S'VVVAAP'
tp567
F1
s(S'VP'
S'VVVVCP'
tp568
F1
s(S'DP'
S'ADADVADVADVPP'
tp569
F1
s(S'MP'
S'MNADVADVADVVP'
tp570
F1
s(S'NP'
S'NNADVADVADVCP'
tp571
F1
s(g477
S'MVVNP'
tp572
F1
s(S'CP'
S'CDDADVPPP'
tp573
F1
s(S'CP'
S'ACDDP'
tp574
F2
s(S'AP'
S'AADVADVDDP'
tp575
F1
s(S'AP'
p576
S'AAPP'
tp577
F6
s(S'VP'
S'VVCCP'
tp578
F2
s(g426
S'APPNP'
tp579
F3
s(S'DP'
S'DAAAPP'
tp580
F1
s(g152
S'ADVPANP'
tp581
F2
s(S'VP'
S'VADVADP'
tp582
F2
s(S'AP'
S'ADVANNP'
tp583
F1
s(S'VP'
S'VVVCCP'
tp584
F1
s(g37
S'NAPP'
tp585
F16
s(S'NP'
S'NADVDP'
tp586
F1
s(g309
S'VVVCP'
tp587
F2
s(S'NP'
S'ANCCP'
tp588
F6
s(S'NP'
S'ADVNCCP'
tp589
F2
s(S'NP'
S'NNCCP'
tp590
F12
s(S'NP'
S'NNMP'
tp591
F9
s(S'DP'
S'DDDVP'
tp592
F1
s(S'NP'
p593
S'NNADVCP'
tp594
F1
s(S'MP'
S'MCCDDP'
tp595
F1
s(S'DP'
S'DDAANNP'
tp596
F1
s(S'MP'
S'MAPDP'
tp597
F1
s(g306
S'PAAAP'
tp598
F2
s(g80
S'ADVADVPNP'
tp599
F3
s(g316
S'PPPAP'
tp600
F1
s(S'PP'
p601
S'PPADVADVVVP'
tp602
F1
s(S'CP'
S'CDDAPP'
tp603
F1
s(g503
S'ANAP'
tp604
F2
s(S'MP'
S'MVAP'
tp605
F1
s(g46
S'PVP'
tp606
F187
s(S'VP'
S'VADVPPP'
tp607
F1
s(S'DP'
S'DADVAVP'
tp608
F2
s(g43
S'AAMVP'
tp609
F2
s(S'AP'
S'AADVDDP'
tp610
F1
s(S'NP'
S'ANNCP'
tp611
F6
s(g174
S'PPDDP'
tp612
F1
s(g380
S'AVCP'
tp613
F4
s(g368
S'DDVVVP'
tp614
F1
s(g15
S'DPP'
tp615
F294
s(g18
S'ADVNVP'
tp616
F7
s(g329
S'DDDVVP'
tp617
F1
s(g511
S'DDPP'
tp618
F71
s(S'DP'
S'DDADVPPP'
tp619
F1
s(S'DP'
S'DANP'
tp620
F36
s(S'AP'
S'ADVAMP'
tp621
F1
s(g593
S'NADVPP'
tp622
F1
s(S'CP'
S'ACADDDP'
tp623
F1
s(S'CP'
S'AACCADVDP'
tp624
F1
s(S'NP'
S'NAAVP'
tp625
F1
s(S'DP'
S'AADNP'
tp626
F3
s(S'CP'
S'CADVADVADVDPP'
tp627
F1
s(g320
S'VADVCP'
tp628
F3
s(S'NP'
S'NNNNCP'
tp629
F1
s(S'MP'
S'MDNP'
tp630
F8
s(g499
S'MAAVDP'
tp631
F1
s(S'DP'
S'DDADVADVVVP'
tp632
F1
s(S'DP'
S'AADDP'
tp633
F1
s(S'PP'
S'AAPDP'
tp634
F7
s(S'DP'
S'ADVADPP'
tp635
F2
s(g368
S'DDADVNNP'
tp636
F1
s(S'DP'
S'DDADVVP'
tp637
F1
s(g294
S'PDDP'
tp638
F35
s(S'MP'
S'MVDDP'
tp639
F8
s(g37
S'NNVP'
tp640
F46
s(S'NP'
S'ADVANVVVP'
tp641
F1
s(S'NP'
S'NADVADVVVP'
tp642
F1
s(S'AP'
S'AADVADVCP'
tp643
F1
s(g601
S'AAAPDDP'
tp644
F1
s(S'PP'
S'APAAP'
tp645
F1
s(g121
S'NNP'
tp646
F7
s(g23
S'VVDDP'
tp647
F11
s(S'DP'
S'DAANP'
tp648
F5
s(S'PP'
S'AAAAPVVVP'
tp649
F1
s(S'AP'
S'ADDP'
tp650
F26
s(S'PP'
p651
S'PNNNNP'
tp652
F1
s(S'PP'
S'ADVPPNP'
tp653
F4
s(S'NP'
S'NNADVAVP'
tp654
F1
s(S'CP'
S'CADVADVDPP'
tp655
F5
s(S'CP'
S'ADVADVADVCDP'
tp656
F1
s(g15
S'DPPP'
tp657
F87
s(S'VP'
S'VANNP'
tp658
F2
s(S'NP'
S'NNAVP'
tp659
F1
s(S'NP'
S'NNAAPP'
tp660
F1
s(S'PP'
p661
S'ADVPNP'
tp662
F6
s(g75
S'PPDP'
tp663
F39
s(g386
S'MAVDP'
tp664
F1
s(g155
S'ADVADVADVPVP'
tp665
F1
s(S'DP'
S'ADVDCP'
tp666
F1
s(S'DP'
S'DDPPPP'
tp667
F1
s(S'DP'
S'DDCP'
tp668
F1
s(S'PP'
S'PAANNP'
tp669
F1
s(g227
S'NAP'
tp670
F65
s(S'NP'
S'NNAAP'
tp671
F1
s(S'VP'
S'VAAAP'
tp672
F1
s(S'VP'
S'AVADVCP'
tp673
F1
s(S'VP'
S'ADVAVNP'
tp674
F1
s(g493
S'NAACCP'
tp675
F1
s(g459
S'VVP'
tp676
F28
s(S'MP'
S'MDNNNP'
tp677
F1
s(g59
S'NNVVP'
tp678
F5
s(S'PP'
S'ADVADVPVP'
tp679
F2
s(S'AP'
S'AAADP'
tp680
F3
s(g152
S'APNP'
tp681
F19
s(S'VP'
S'VVVNNP'
tp682
F2
s(g268
S'DDVVP'
tp683
F9
s(S'AP'
S'AAADDP'
tp684
F1
s(g110
S'VVVNP'
tp685
F3
s(S'DP'
S'ADDDPP'
tp686
F1
s(S'NP'
p687
S'NAMP'
tp688
F1
s(S'DP'
S'ADVADVDDPP'
tp689
F1
s(g39
S'MVNNP'
tp690
F1
s(S'NP'
S'NADVAMP'
tp691
F1
s(S'CP'
S'CDPP'
tp692
F239
s(S'DP'
S'ADVADVADVDAPP'
tp693
F1
s(S'AP'
S'ADDDP'
tp694
F2
s(S'MP'
S'MMMVP'
tp695
F1
s(g235
S'ADVCDP'
tp696
F12
s(g271
S'AAPVVP'
tp697
F1
s(S'VP'
p698
S'ADVADVVNP'
tp699
F2
s(S'PP'
p700
S'PADVADVDP'
tp701
F1
s(S'VP'
S'ADVADVVCP'
tp702
F1
s(g651
S'PPNNP'
tp703
F11
s(g211
S'PPMP'
tp704
F2
s(S'DP'
S'ADVADVDPP'
tp705
F5
s(g99
S'VDP'
tp706
F217
s(g152
S'PPPADVNP'
tp707
F1
s(S'NP'
S'NADVAP'
tp708
F2
s(S'VP'
p709
S'AVDDP'
tp710
F4
s(g117
S'DADVNP'
tp711
F12
s(g268
S'DAP'
tp712
F25
s(g165
S'CADPP'
tp713
F26
s(g426
S'PPAVP'
tp714
F1
s(S'VP'
S'VVDDDDP'
tp715
F1
s(g709
S'AVPP'
tp716
F6
s(S'MP'
S'AMVVP'
tp717
F1
s(S'CP'
S'CDPPPP'
tp718
F8
s(S'VP'
S'VADVADVCCP'
tp719
F1
s(S'VP'
S'AAVDP'
tp720
F3
s(S'NP'
S'NNDDP'
tp721
F2
s(S'DP'
S'DAPPP'
tp722
F2
s(S'DP'
S'DADVADVPP'
tp723
F5
s(S'NP'
S'AANVVP'
tp724
F1
s(S'PP'
S'PPPNP'
tp725
F6
s(S'PP'
S'PPAANP'
tp726
F1
s(g261
S'PADVADVNP'
tp727
F2
s(g392
S'AADP'
tp728
F35
s(S'PP'
S'PPPVVP'
tp729
F1
s(S'NP'
S'NNADVVVP'
tp730
F1
s(S'VP'
S'VADVPP'
tp731
F1
s(g365
S'DDAAPP'
tp732
F3
s(S'CP'
S'CCADVDDP'
tp733
F1
s(S'NP'
S'NNNADVADVADVADVVP'
tp734
F1
s(g355
S'ADVPVP'
tp735
F4
s(S'NP'
S'NADVADVADVVVP'
tp736
F1
s(S'AP'
S'AADVAVP'
tp737
F1
s(g57
S'NNVVVP'
tp738
F2
s(g233
S'ADVVANP'
tp739
F2
s(g661
S'PAMP'
tp740
F1
s(g352
S'ADVPDP'
tp741
F8
s(S'NP'
S'ADVNNPP'
tp742
F1
s(S'NP'
S'NCP'
tp743
F191
s(S'CP'
S'CADVDPPP'
tp744
F3
s(S'VP'
S'ADVVVPP'
tp745
F1
s(S'PP'
S'AAAPNP'
tp746
F1
s(S'DP'
S'ADVVP'
tp747
F1
s(S'CP'
S'CDDADVADVPP'
tp748
F1
s(g531
S'VAADP'
tp749
F3
s(g481
S'AAMP'
tp750
F3
s(g284
S'ADVPDDP'
tp751
F3
s(S'NP'
S'AAANCCCP'
tp752
F1
s(S'NP'
S'AANDP'
tp753
F1
s(S'MP'
S'MVCCP'
tp754
F2
s(g378
S'DADVNNP'
tp755
F2
s(g350
S'VDDDP'
tp756
F9
s(S'MP'
S'MNVP'
tp757
F9
s(S'CP'
S'ADVADVCCDP'
tp758
F1
s(g62
S'VAPP'
tp759
F5
s(g687
S'NPPPPP'
tp760
F1
s(S'MP'
S'MAVNP'
tp761
F1
s(g231
S'ADVVDP'
tp762
F19
s(S'DP'
S'DDADVADVADVPP'
tp763
F1
s(g268
S'DADVPP'
tp764
F21
s(g576
S'AMP'
tp765
F12
s(S'CP'
S'CCADP'
tp766
F4
s(S'NP'
S'ADVNNCP'
tp767
F2
s(S'PP'
S'ADVADVADVPNP'
tp768
F2
s(g576
S'ADVAPP'
tp769
F1
s(S'CP'
S'AACDP'
tp770
F10
s(S'CP'
S'CDDAAPPP'
tp771
F1
s(S'CP'
S'CCDDDP'
tp772
F1
s(S'DP'
S'ADVDPPP'
tp773
F5
s(g15
S'DVP'
tp774
F175
s(S'VP'
S'ADVVAP'
tp775
F1
s(g192
S'ADVNPP'
tp776
F6
s(g165
S'AAACDP'
tp777
F1
s(g700
S'PADVADVDDP'
tp778
F1
s(S'AP'
S'AVP'
tp779
F21
s(S'NP'
S'NADVVP'
tp780
F12
s(g337
S'DADDP'
tp781
F1
s(g368
S'DDPPP'
tp782
F13
s(S'NP'
S'ADVNMP'
tp783
F2
s(g418
S'NNAP'
tp784
F7
s(S'MP'
S'MADVVCP'
tp785
F1
s(g543
S'PPANP'
tp786
F3
s(g291
S'AAAVNP'
tp787
F1
s(g343
S'CDADVPP'
tp788
F11
s(g400
S'VNP'
tp789
F168
s(g459
S'VANP'
tp790
F12
s(g468
S'MAANCP'
tp791
F1
s(g698
S'VADVAP'
tp792
F4
s(S'PP'
S'PADVADVAVP'
tp793
F1
s(S'PP'
S'PPADVNP'
tp794
F1
s(g337
S'DDDDVP'
tp795
F2
s(S'VP'
S'ADVADVVVDP'
tp796
F1
s(S'NP'
S'NADVPPP'
tp797
F1
s.