ccollections
defaultdict
p1
(c__builtin__
float
p2
tRp3
(S'DP'
p4
S'DDPP'
tp5
F6
s(S'DP'
p6
S'DANP'
tp7
F1
s(S'PP'
p8
S'PPPPP'
tp9
F1
s(S'VP'
p10
S'VVNP'
tp11
F2
s(S'PP'
p12
S'PPPNP'
tp13
F1
s(S'PP'
p14
S'PPVP'
tp15
F1
s(S'NP'
p16
S'NVVP'
tp17
F1
s(S'DP'
p18
S'DNP'
tp19
F18
s(S'CP'
S'CADDPPP'
tp20
F1
s(S'VP'
p21
S'VMP'
tp22
F2
s(S'VP'
S'VVNNP'
tp23
F1
s(S'CP'
S'CDAPP'
tp24
F1
s(S'DP'
S'ADDPPP'
tp25
F1
s(S'CP'
p26
S'CDPPP'
tp27
F6
s(S'PP'
p28
S'PPAAAAAPP'
tp29
F1
s(S'DP'
p30
S'ADNP'
tp31
F2
s(S'VP'
p32
S'VADP'
tp33
F2
s(g28
S'PADP'
tp34
F2
s(g6
S'DAAP'
tp35
F1
s(S'PP'
p36
S'AAPDP'
tp37
F1
s(S'AP'
S'AADP'
tp38
F4
s(S'PP'
p39
S'PDDP'
tp40
F6
s(S'CP'
p41
S'ACDP'
tp42
F1
s(S'VP'
S'VVVDDP'
tp43
F1
s(S'DP'
S'ADPPP'
tp44
F1
s(S'DP'
p45
S'DAPP'
tp46
F3
s(S'VP'
p47
S'VAP'
tp48
F3
s(S'MP'
S'MVDP'
tp49
F1
s(S'NP'
p50
S'AANNCP'
tp51
F1
s(g39
S'PPPP'
tp52
F5
s(S'VP'
S'VVDDP'
tp53
F2
s(g14
S'PPPDP'
tp54
F1
s(S'AP'
p55
S'ADDP'
tp56
F1
s(S'PP'
S'AAAPDP'
tp57
F1
s(g18
S'DPPP'
tp58
F10
s(S'DP'
p59
S'ADVDNP'
tp60
F1
s(S'CP'
p61
S'CADVDAPP'
tp62
F1
s(g21
S'VCP'
tp63
F11
s(g12
S'PPNNP'
tp64
F2
s(S'DP'
S'ADADVPP'
tp65
F1
s(g28
S'AAAAAPDP'
tp66
F1
s(S'DP'
p67
S'ADVP'
tp68
F2
s(S'PP'
S'ADVPNNP'
tp69
F1
s(g39
S'PAP'
tp70
F5
s(g67
S'DDADVADVPP'
tp71
F1
s(g39
S'PPDP'
tp72
F8
s(S'NP'
p73
S'NMP'
tp74
F2
s(S'VP'
p75
S'VVDP'
tp76
F2
s(g39
S'PNP'
tp77
F16
s(g45
S'DNNNP'
tp78
F1
s(S'DP'
p79
S'DDP'
tp80
F8
s(S'NP'
p81
S'AANCP'
tp82
F1
s(g39
S'PANP'
tp83
F3
s(S'MP'
S'MAVCP'
tp84
F1
s(S'DP'
p85
S'DDCP'
tp86
F1
s(g10
S'VCCP'
tp87
F2
s(S'AP'
p88
S'AMP'
tp89
F1
s(S'PP'
p90
S'PVVVP'
tp91
F1
s(S'PP'
S'PMP'
tp92
F1
s(S'DP'
S'DDAANP'
tp93
F2
s(S'NP'
p94
S'NDDP'
tp95
F2
s(g26
S'CCDP'
tp96
F7
s(S'NP'
p97
S'NAP'
tp98
F5
s(S'VP'
S'VPPP'
tp99
F1
s(g59
S'AADDPP'
tp100
F1
s(S'CP'
S'CDAAPP'
tp101
F2
s(S'NP'
p102
S'NDP'
tp103
F6
s(S'PP'
p104
S'PNNNP'
tp105
F1
s(g30
S'DVP'
tp106
F10
s(g10
S'VVP'
tp107
F1
s(g59
S'DDVP'
tp108
F2
s(g39
S'PDP'
tp109
F17
s(g75
S'ADVVVMP'
tp110
F1
s(S'VP'
S'VVVVCP'
tp111
F1
s(g94
S'ADVNVVP'
tp112
F1
s(S'PP'
p113
S'APNP'
tp114
F2
s(S'CP'
S'CADADVPP'
tp115
F1
s(g28
S'PPP'
tp116
F7
s(g104
S'AAPVP'
tp117
F1
s(g94
S'NAVP'
tp118
F2
s(S'PP'
p119
S'PCP'
tp120
F1
s(S'NP'
p121
S'NNPPP'
tp122
F1
s(g26
S'CDPP'
tp123
F23
s(g90
S'PNNP'
tp124
F4
s(S'AP'
S'ADDDP'
tp125
F1
s(g32
S'AAAVVCP'
tp126
F1
s(S'NP'
p127
S'NNDP'
tp128
F1
s(S'NP'
S'NNDDP'
tp129
F1
s(g79
S'DPPPP'
tp130
F1
s(S'VP'
p131
S'VPP'
tp132
F6
s(g94
S'NACP'
tp133
F1
s(g73
S'NCCP'
tp134
F3
s(g39
S'AAPVVP'
tp135
F1
s(g81
S'NNVP'
tp136
F2
s(g119
S'PADVDP'
tp137
F1
s(g16
S'NNCP'
tp138
F4
s(S'MP'
S'MVCP'
tp139
F5
s(g55
S'ACP'
tp140
F2
s(S'CP'
p141
S'CDDPP'
tp142
F4
s(S'CP'
S'CDAAAPP'
tp143
F1
s(g30
S'DAAPP'
tp144
F2
s(S'PP'
p145
S'PVVP'
tp146
F1
s(S'AP'
S'AACP'
tp147
F1
s(g41
S'CAADDPP'
tp148
F1
s(g131
S'VVADP'
tp149
F1
s(g21
S'VDP'
tp150
F11
s(S'PP'
S'PPAAP'
tp151
F1
s(g104
S'PPAVP'
tp152
F1
s(g10
S'VADVNP'
tp153
F1
s(g45
S'DVVP'
tp154
F3
s(S'VP'
p155
S'AVDP'
tp156
F1
s(g145
S'APPP'
tp157
F1
s(S'NP'
p158
S'ANMP'
tp159
F1
s(g104
S'PPAP'
tp160
F1
s(S'CP'
S'CDPPPP'
tp161
F1
s(g4
S'DDPPPP'
tp162
F1
s(g32
S'AAVDP'
tp163
F1
s(g47
S'AVVCP'
tp164
F1
s(S'PP'
S'PANNP'
tp165
F1
s(g155
S'AVNNP'
tp166
F1
s(g30
S'DDNP'
tp167
F3
s(g10
S'AVPP'
tp168
F1
s(S'DP'
S'DDNNP'
tp169
F1
s(S'NP'
S'ANCP'
tp170
F3
s(g12
S'APDP'
tp171
F2
s(S'DP'
S'ADVDPP'
tp172
F1
s(g8
S'PADVADVNP'
tp173
F1
s(g18
S'ADPP'
tp174
F4
s(g67
S'DDDP'
tp175
F4
s(g47
S'AAVMP'
tp176
F1
s(S'NP'
S'NVVVVP'
tp177
F1
s(S'NP'
p178
S'NPPP'
tp179
F2
s(g67
S'ADDDP'
tp180
F1
s(g88
S'ACCP'
tp181
F1
s(S'NP'
S'ANNPP'
tp182
F1
s(g18
S'DNNP'
tp183
F1
s(g158
S'NCP'
tp184
F16
s(g141
S'CDDPPPP'
tp185
F1
s(g36
S'PPNP'
tp186
F4
s(g61
S'CDDADVADVPP'
tp187
F1
s(g67
S'ADVDAPP'
tp188
F1
s(S'DP'
S'DADP'
tp189
F1
s(g102
S'NNCCP'
tp190
F3
s(S'VP'
S'VNNP'
tp191
F3
s(S'NP'
S'NNPP'
tp192
F1
s(S'AP'
S'ADP'
tp193
F9
s(g55
S'APP'
tp194
F1
s(g178
S'NNNDP'
tp195
F2
s(S'CP'
S'CADVDPP'
tp196
F1
s(S'VP'
S'ADVVDP'
tp197
F1
s(g55
S'AAP'
tp198
F1
s(g50
S'AANPP'
tp199
F1
s(S'DP'
S'DAAAPP'
tp200
F1
s(S'CP'
S'CCADP'
tp201
F2
s(g32
S'VAAAVVP'
tp202
F1
s(g85
S'DDDVP'
tp203
F1
s(g67
S'DAAVP'
tp204
F1
s(g145
S'ADVADVPVVP'
tp205
F1
s(g14
S'PPMP'
tp206
F2
s(S'NP'
S'NNNCCP'
tp207
F1
s(g121
S'ANVP'
tp208
F2
s(g32
S'VVAP'
tp209
F1
s(g28
S'PVP'
tp210
F10
s(S'MP'
S'MVNP'
tp211
F2
s(g97
S'ADVADVNAAVP'
tp212
F1
s(S'MP'
S'MAVVCP'
tp213
F1
s(g113
S'PAVP'
tp214
F1
s(S'VP'
S'VPPPP'
tp215
F1
s(g127
S'NNAP'
tp216
F1
s(g158
S'NPP'
tp217
F8
s(g102
S'NVP'
tp218
F12
s(S'PP'
S'PPANP'
tp219
F1
s(g178
S'NAAPP'
tp220
F1
s(g6
S'DDADVVVP'
tp221
F1
s(g21
S'VNP'
tp222
F6
s(g155
S'VANP'
tp223
F1
s(S'VP'
S'VDDP'
tp224
F1
s(S'VP'
S'AVCP'
tp225
F2
s(g18
S'DPP'
tp226
F25
s.