ccollections
defaultdict
p1
(c__builtin__
float
p2
tRp3
(S'CP'
S'CAAADPP'
tp4
F1
s(S'PP'
S'PAAANP'
tp5
F1
s(S'CP'
S'CCDDDDP'
tp6
F1
s(S'PP'
p7
S'PAPP'
tp8
F6
s(S'PP'
S'PADVNP'
tp9
F5
s(S'DP'
p10
S'DNP'
tp11
F107
s(S'PP'
p12
S'AAPDDP'
tp13
F1
s(S'CP'
p14
S'CDPPP'
tp15
F22
s(S'VP'
p16
S'VADP'
tp17
F9
s(S'NP'
S'ADVNCCP'
tp18
F1
s(g10
S'ADNNP'
tp19
F1
s(S'VP'
p20
S'ADVVNP'
tp21
F1
s(S'MP'
S'MVDP'
tp22
F7
s(S'PP'
p23
S'PPPP'
tp24
F16
s(S'DP'
p25
S'DDDNP'
tp26
F2
s(S'VP'
p27
S'VACP'
tp28
F4
s(S'AP'
S'AAAVP'
tp29
F1
s(S'DP'
S'DADVVP'
tp30
F2
s(S'PP'
p31
S'PADVNNP'
tp32
F1
s(S'NP'
p33
S'NADVVVP'
tp34
F1
s(S'VP'
S'VCP'
tp35
F47
s(S'NP'
p36
S'NMMP'
tp37
F2
s(S'DP'
S'DDDNNP'
tp38
F1
s(S'PP'
p39
S'PAP'
tp40
F32
s(S'DP'
p41
S'DDADVADVPP'
tp42
F1
s(S'NP'
S'NNNAP'
tp43
F1
s(g7
S'APVVP'
tp44
F2
s(S'VP'
S'AAVNNP'
tp45
F1
s(S'PP'
p46
S'PNP'
tp47
F106
s(S'NP'
p48
S'ADVADVADVNNCP'
tp49
F1
s(g10
S'DDP'
tp50
F22
s(S'NP'
S'NNNPP'
tp51
F2
s(S'VP'
S'VCCP'
tp52
F8
s(S'MP'
S'MCDP'
tp53
F1
s(S'DP'
S'DDAANP'
tp54
F1
s(S'NP'
p55
S'NMP'
tp56
F14
s(g16
S'AAVNP'
tp57
F3
s(g46
S'PDP'
tp58
F108
s(S'CP'
S'CCADVADVDP'
tp59
F1
s(S'CP'
S'CDADVADVPP'
tp60
F1
s(S'VP'
p61
S'ADVADVAVDDP'
tp62
F1
s(S'PP'
p63
S'PPPAANP'
tp64
F1
s(S'PP'
p65
S'ADVPAAP'
tp66
F1
s(S'MP'
p67
S'MVACP'
tp68
F1
s(S'DP'
S'DPPPP'
tp69
F2
s(S'DP'
p70
S'DDANP'
tp71
F2
s(g23
S'PADVADP'
tp72
F2
s(S'NP'
p73
S'NACP'
tp74
F6
s(g73
S'NCCP'
tp75
F26
s(S'AP'
S'AAAADP'
tp76
F1
s(S'NP'
p77
S'NNCP'
tp78
F21
s(S'DP'
p79
S'ADVDDPP'
tp80
F1
s(S'DP'
p81
S'DDDADVVP'
tp82
F1
s(S'NP'
S'NNPPPP'
tp83
F1
s(S'VP'
p84
S'AVNP'
tp85
F2
s(S'NP'
S'NNNNNCP'
tp86
F1
s(S'VP'
S'VADVVP'
tp87
F2
s(S'PP'
p88
S'ADVPADVDP'
tp89
F1
s(S'NP'
S'NCCCCP'
tp90
F1
s(S'CP'
S'CCCDP'
tp91
F4
s(S'VP'
p92
S'ADVVAP'
tp93
F3
s(g39
S'APDP'
tp94
F10
s(S'VP'
p95
S'ADVVNNP'
tp96
F1
s(S'AP'
S'AADVCP'
tp97
F1
s(S'MP'
S'MAVNP'
tp98
F1
s(S'PP'
p99
S'PAAP'
tp100
F7
s(S'DP'
p101
S'DNNP'
tp102
F27
s(S'CP'
S'CDDPPPP'
tp103
F1
s(S'NP'
p104
S'NNNVP'
tp105
F4
s(S'PP'
S'PADVVP'
tp106
F4
s(g10
S'DAAVP'
tp107
F2
s(S'PP'
S'APAP'
tp108
F4
s(S'AP'
p109
S'APP'
tp110
F24
s(S'NP'
p111
S'NADVMP'
tp112
F1
s(S'AP'
S'AAP'
tp113
F14
s(S'VP'
p114
S'VADVADVNP'
tp115
F3
s(S'PP'
S'PAANP'
tp116
F2
s(S'NP'
p117
S'NADVADVPPP'
tp118
F1
s(S'PP'
S'PPVVP'
tp119
F1
s(S'DP'
S'DDDDADVPP'
tp120
F1
s(S'MP'
S'MVNP'
tp121
F3
s(S'AP'
S'ADVAADP'
tp122
F1
s(g31
S'PAVP'
tp123
F5
s(S'CP'
p124
S'ADVCDDDP'
tp125
F1
s(S'MP'
S'MADVVPP'
tp126
F1
s(S'DP'
p127
S'DADP'
tp128
F1
s(S'VP'
S'VVADVPP'
tp129
F1
s(S'PP'
S'APDDP'
tp130
F1
s(S'PP'
S'APVP'
tp131
F5
s(S'CP'
S'CADVADVDDAPP'
tp132
F1
s(S'VP'
p133
S'VVNP'
tp134
F14
s(S'PP'
S'PPPNNP'
tp135
F1
s(S'PP'
p136
S'PPVP'
tp137
F18
s(S'VP'
S'VADVDP'
tp138
F1
s(S'MP'
S'ADVMADVVP'
tp139
F1
s(S'VP'
S'VAAP'
tp140
F7
s(g73
S'NNADVAVP'
tp141
F1
s(S'NP'
p142
S'ANDP'
tp143
F3
s(S'NP'
p144
S'NVVP'
tp145
F14
s(S'PP'
p146
S'AAPVP'
tp147
F1
s(S'PP'
S'PPADP'
tp148
F1
s(S'MP'
S'MCCCDP'
tp149
F1
s(g114
S'VVNNP'
tp150
F2
s(S'CP'
p151
S'CDAPP'
tp152
F15
s(S'VP'
p153
S'VVAAP'
tp154
F1
s(S'DP'
p155
S'ADVADVP'
tp156
F1
s(S'DP'
p157
S'ADNP'
tp158
F9
s(S'PP'
S'PADP'
tp159
F8
s(S'NP'
S'NADVADVADVPPP'
tp160
F1
s(g81
S'ADVADVDVP'
tp161
F1
s(S'DP'
p162
S'DAPP'
tp163
F24
s(S'PP'
p164
S'ADVADVPPAVP'
tp165
F1
s(S'VP'
S'ADVADVVPP'
tp166
F2
s(S'VP'
S'VADVAAP'
tp167
F1
s(S'VP'
S'ADVADVADVVDP'
tp168
F1
s(S'CP'
S'CADPPPP'
tp169
F1
s(S'PP'
S'PPPDP'
tp170
F1
s(S'MP'
S'MVVAP'
tp171
F1
s(S'DP'
S'ADVDNP'
tp172
F1
s(g27
S'VVPP'
tp173
F15
s(g67
S'MVPP'
tp174
F3
s(S'DP'
S'ADVP'
tp175
F6
s(S'CP'
S'CDDPPP'
tp176
F3
s(S'NP'
S'NNADVADVAP'
tp177
F1
s(g73
S'NNPP'
tp178
F17
s(g142
S'ANVP'
tp179
F4
s(S'DP'
S'DNNNP'
tp180
F6
s(S'PP'
p181
S'PMP'
tp182
F4
s(g14
S'CCDP'
tp183
F30
s(g25
S'ADVADVADVDPP'
tp184
F1
s(S'MP'
S'AMVP'
tp185
F1
s(S'DP'
S'AADDPP'
tp186
F1
s(S'NP'
p187
S'NVVVP'
tp188
F1
s(S'CP'
S'CDDDPP'
tp189
F6
s(S'CP'
p190
S'CDAAPP'
tp191
F2
s(g114
S'VVVDP'
tp192
F1
s(S'PP'
S'PNNNP'
tp193
F2
s(g124
S'CCCCDP'
tp194
F1
s(S'PP'
S'PADVADVADVNNP'
tp195
F1
s(g39
S'PPP'
tp196
F56
s(S'NP'
p197
S'NNVVP'
tp198
F1
s(g104
S'NAVP'
tp199
F3
s(S'CP'
S'ADVADVCDDP'
tp200
F1
s(S'VP'
S'ADVVAPP'
tp201
F1
s(S'DP'
S'ADVDVP'
tp202
F1
s(S'NP'
S'NCCCP'
tp203
F2
s(S'DP'
S'DADVADVPPP'
tp204
F1
s(g157
S'DAAAP'
tp205
F1
s(S'DP'
S'ADVADVDNP'
tp206
F1
s(g16
S'VPP'
tp207
F63
s(S'CP'
S'ADVCCDP'
tp208
F1
s(S'NP'
S'NNNADVCP'
tp209
F1
s(S'MP'
S'ADVADVMVP'
tp210
F1
s(g127
S'ADVDDNP'
tp211
F1
s(S'NP'
S'NNNCP'
tp212
F2
s(S'PP'
p213
S'PADVDP'
tp214
F2
s(g124
S'CDADVAPP'
tp215
F2
s(S'DP'
p216
S'DANNP'
tp217
F1
s(g14
S'CDDPP'
tp218
F36
s(g155
S'DAAPP'
tp219
F4
s(S'PP'
p220
S'PVVP'
tp221
F13
s(S'CP'
p222
S'CADPPP'
tp223
F3
s(S'AP'
S'AACP'
tp224
F5
s(S'VP'
p225
S'VPPP'
tp226
F7
s(S'PP'
p227
S'PPAP'
tp228
F5
s(g101
S'DVVP'
tp229
F20
s(S'NP'
S'ANMP'
tp230
F5
s(S'AP'
S'APPP'
tp231
F2
s(S'PP'
S'ADVPPP'
tp232
F2
s(g187
S'ADVADVNVP'
tp233
F2
s(S'VP'
S'VVVP'
tp234
F5
s(g190
S'CADVDPP'
tp235
F5
s(S'NP'
p236
S'ANCP'
tp237
F15
s(S'DP'
S'DCP'
tp238
F2
s(S'NP'
S'AAANCP'
tp239
F1
s(S'PP'
S'ADVADVADVPANP'
tp240
F1
s(S'DP'
S'DDDP'
tp241
F5
s(S'DP'
S'ADVDPPPPP'
tp242
F1
s(S'DP'
S'DDADVPP'
tp243
F1
s(S'NP'
S'ANVVP'
tp244
F1
s(g142
S'NVVVVP'
tp245
F2
s(g73
S'NPPP'
tp246
F10
s(S'DP'
p247
S'DAVP'
tp248
F4
s(g153
S'AVVVP'
tp249
F1
s(S'AP'
S'ACP'
tp250
F37
s(g46
S'PPNP'
tp251
F18
s(S'PP'
S'APPPP'
tp252
F1
s(g41
S'AADVP'
tp253
F1
s(S'VP'
S'VAANNP'
tp254
F1
s(g109
S'ADP'
tp255
F92
s(S'PP'
S'APMP'
tp256
F1
s(S'DP'
S'DDAVP'
tp257
F1
s(S'NP'
S'AAANNCP'
tp258
F1
s(S'AP'
p259
S'AAADP'
tp260
F1
s(g61
S'VVAP'
tp261
F6
s(S'PP'
p262
S'PADVADVDP'
tp263
F1
s(S'VP'
p264
S'AAVCP'
tp265
F1
s(g73
S'NPP'
tp266
F86
s(S'PP'
S'PPPPNP'
tp267
F1
s(g73
S'NVP'
tp268
F91
s(g65
S'PPAMP'
tp269
F1
s(g227
S'PAAVP'
tp270
F1
s(g92
S'VDDP'
tp271
F11
s(g197
S'AANNVP'
tp272
F2
s(S'DP'
S'DADVAPP'
tp273
F2
s(g111
S'NNADVACP'
tp274
F1
s(S'NP'
p275
S'ANPP'
tp276
F10
s(S'PP'
S'ADVPPDP'
tp277
F1
s(g136
S'PPPPP'
tp278
F3
s(S'PP'
S'ADVADVPDP'
tp279
F1
s(S'MP'
S'MVVPP'
tp280
F4
s(g197
S'ADVADVNPP'
tp281
F1
s(S'CP'
S'CAADPP'
tp282
F1
s(S'DP'
S'DADVADVVP'
tp283
F1
s(g46
S'PNNP'
tp284
F22
s(S'PP'
S'APNNP'
tp285
F1
s(S'DP'
S'AAADPP'
tp286
F1
s(S'VP'
S'AVAP'
tp287
F2
s(S'MP'
S'MMVP'
tp288
F3
s(g12
S'PADVDDP'
tp289
F1
s(S'NP'
S'ADVNCP'
tp290
F3
s(g162
S'ADPP'
tp291
F24
s(S'CP'
S'ACDP'
tp292
F9
s(g10
S'DDADVADVVP'
tp293
F1
s(S'AP'
S'ADVANP'
tp294
F1
s(S'NP'
S'NNACP'
tp295
F2
s(S'VP'
p296
S'VAP'
tp297
F47
s(S'VP'
S'VVVVNP'
tp298
F2
s(S'DP'
S'DDDPP'
tp299
F10
s(S'CP'
S'ADVCDDP'
tp300
F1
s(S'VP'
S'ADVADVAVCCP'
tp301
F1
s(g146
S'PAAPP'
tp302
F1
s(S'AP'
S'ADVAAPP'
tp303
F1
s(S'AP'
p304
S'AAVVP'
tp305
F1
s(S'DP'
p306
S'ADAP'
tp307
F1
s(S'DP'
S'DADVDP'
tp308
F1
s(S'AP'
S'AVVP'
tp309
F4
s(S'AP'
S'AADDP'
tp310
F1
s(g20
S'VAANP'
tp311
F1
s(S'NP'
p312
S'NADVADVCP'
tp313
F1
s(S'VP'
S'VVVNNNNP'
tp314
F1
s(g296
S'VVDP'
tp315
F17
s(S'CP'
S'CCAADP'
tp316
F1
s(S'AP'
S'ADVADVADDP'
tp317
F1
s(S'PP'
S'PANP'
tp318
F7
s(S'DP'
S'AADNP'
tp319
F1
s(S'AP'
S'AAVP'
tp320
F2
s(g77
S'NAAP'
tp321
F4
s(g36
S'NDDP'
tp322
F4
s(S'AP'
S'ACCP'
tp323
F2
s(S'VP'
S'AVPPP'
tp324
F1
s(g275
S'NDP'
tp325
F37
s(g10
S'DDVP'
tp326
F15
s(S'NP'
S'AANVP'
tp327
F1
s(S'VP'
p328
S'VNNNP'
tp329
F2
s(S'VP'
S'VADVADVPP'
tp330
F1
s(S'PP'
S'ADVPAP'
tp331
F1
s(S'PP'
S'PCP'
tp332
F4
s(S'NP'
S'NNPPP'
tp333
F2
s(g222
S'ACADVDDP'
tp334
F1
s(S'PP'
S'PAADP'
tp335
F1
s(S'NP'
p336
S'ADVNNVP'
tp337
F1
s(S'VP'
p338
S'VVVVANP'
tp339
F1
s(g55
S'NNNDP'
tp340
F1
s(S'DP'
p341
S'DDADVADVAVP'
tp342
F1
s(g79
S'ADPPP'
tp343
F3
s(S'NP'
S'NNAAVP'
tp344
F1
s(S'CP'
S'CCDDP'
tp345
F4
s(S'NP'
p346
S'NNADVVP'
tp347
F2
s(S'CP'
S'CADVDPPPPP'
tp348
F1
s(S'PP'
S'PPAAP'
tp349
F1
s(S'VP'
S'VVCP'
tp350
F5
s(g144
S'AANCP'
tp351
F3
s(g16
S'VDP'
tp352
F82
s(g16
S'ADVAVAP'
tp353
F1
s(g48
S'NNDDP'
tp354
F1
s(S'VP'
S'ADVVPP'
tp355
F2
s(g84
S'VNNP'
tp356
F5
s(g259
S'AADVDP'
tp357
F2
s(S'NP'
p358
S'NADP'
tp359
F1
s(S'DP'
S'DDNP'
tp360
F17
s(S'NP'
S'NADVCP'
tp361
F2
s(g70
S'DDNNP'
tp362
F3
s(g197
S'ADVADVNCP'
tp363
F1
s(S'NP'
S'NNADVAAP'
tp364
F1
s(S'DP'
S'AADPP'
tp365
F2
s(g247
S'ADVDNNP'
tp366
F2
s(g14
S'ACDDP'
tp367
F1
s(S'AP'
S'AAPP'
tp368
F1
s(g338
S'VVCCP'
tp369
F1
s(S'NP'
p370
S'AAAAAANVVVP'
tp371
F1
s(g336
S'NAPP'
tp372
F3
s(S'NP'
S'ANCCP'
tp373
F1
s(g358
S'AANPP'
tp374
F3
s(S'VP'
p375
S'VDDDP'
tp376
F2
s(S'PP'
S'PAAAP'
tp377
F1
s(S'PP'
S'ADVADVPNP'
tp378
F2
s(S'CP'
S'CDDAPP'
tp379
F1
s(S'NP'
S'ANAP'
tp380
F2
s(S'MP'
S'MVAP'
tp381
F2
s(g264
S'VADVADVDDP'
tp382
F2
s(g46
S'PVP'
tp383
F89
s(g63
S'PAAAAAANP'
tp384
F1
s(S'VP'
S'VADVCCP'
tp385
F1
s(S'CP'
S'ACDDDP'
tp386
F1
s(S'NP'
S'ANNCP'
tp387
F1
s(S'PP'
S'PPDDP'
tp388
F2
s(g95
S'AVCP'
tp389
F1
s(g10
S'DPP'
tp390
F153
s(g236
S'ADVNVP'
tp391
F1
s(g10
S'DDPP'
tp392
F41
s(S'DP'
S'DDADVPPP'
tp393
F1
s(S'DP'
S'DANP'
tp394
F11
s(S'NP'
S'NADVPP'
tp395
F2
s(g117
S'NAAVP'
tp396
F1
s(S'PP'
S'PDDDP'
tp397
F2
s(S'CP'
S'CADVADVADVDPP'
tp398
F1
s(S'VP'
S'VADVCP'
tp399
F1
s(g370
S'NNNNCP'
tp400
F1
s(S'NP'
S'ADVNMMP'
tp401
F1
s(g65
S'ADVADVPPP'
tp402
F1
s(g23
S'AAPDP'
tp403
F3
s(g46
S'PDDP'
tp404
F21
s(S'MP'
S'MVDDP'
tp405
F1
s(g164
S'ADVAPNP'
tp406
F1
s(S'NP'
S'NNVP'
tp407
F5
s(S'VP'
S'AVDP'
tp408
F4
s(S'VP'
S'VVDDP'
tp409
F2
s(g157
S'DAANP'
tp410
F3
s(S'NP'
S'AANCCCP'
tp411
F1
s(S'AP'
S'ADDP'
tp412
F6
s(S'NP'
S'NADVADVVP'
tp413
F1
s(S'CP'
S'CADVADVDPP'
tp414
F1
s(g10
S'DPPP'
tp415
F35
s(S'NP'
S'ADVNAANP'
tp416
F1
s(g220
S'ADVADVPPNP'
tp417
F1
s(S'NP'
S'ADVADVNAAPP'
tp418
F1
s(S'NP'
S'NNAVP'
tp419
F1
s(g213
S'ADVPNP'
tp420
F5
s(g46
S'PPDP'
tp421
F17
s(S'DP'
S'DDPPPP'
tp422
F1
s(S'PP'
S'PAANNP'
tp423
F1
s(S'AP'
S'AAAPP'
tp424
F1
s(g73
S'NAP'
tp425
F21
s(g225
S'VVP'
tp426
F18
s(S'DP'
S'DDAPP'
tp427
F3
s(g88
S'PNNNNNP'
tp428
F1
s(g99
S'APNP'
tp429
F15
s(S'AP'
S'AADVADVPP'
tp430
F1
s(S'DP'
p431
S'DDVVP'
tp432
F1
s(S'CP'
S'CDDADVADVADVPP'
tp433
F1
s(S'DP'
S'ADVADVDDPP'
tp434
F1
s(g14
S'CDPP'
tp435
F141
s(S'CP'
S'ADVCADP'
tp436
F1
s(S'NP'
S'NNDP'
tp437
F8
s(S'CP'
p438
S'ADVCDP'
tp439
F2
s(S'DP'
S'ADVADVDDAPP'
tp440
F1
s(S'CP'
S'ADVACDP'
tp441
F1
s(g136
S'PPNNP'
tp442
F2
s(g12
S'ADVADVADVPPDDP'
tp443
F1
s(S'PP'
S'ADVAPPP'
tp444
F1
s(g181
S'PPMP'
tp445
F1
s(S'CP'
S'CAADDPP'
tp446
F1
s(S'DP'
S'ADVADVDPP'
tp447
F2
s(g306
S'DADVNP'
tp448
F2
s(S'DP'
S'DAP'
tp449
F7
s(g151
S'CADPP'
tp450
F16
s(S'VP'
S'AVPP'
tp451
F5
s(g117
S'NADVADVMP'
tp452
F1
s(S'PP'
S'APNNNP'
tp453
F1
s(S'CP'
S'CDPPPP'
tp454
F1
s(g41
S'ADVADADVPP'
tp455
F1
s(S'VP'
S'AAVDP'
tp456
F1
s(S'PP'
S'APPP'
tp457
F5
s(S'DP'
S'ADPPPP'
tp458
F1
s(g341
S'DADVADVPP'
tp459
F1
s(S'DP'
S'DMP'
tp460
F1
s(g155
S'ADVDPP'
tp461
F8
s(S'NP'
S'ANADVADVCCP'
tp462
F1
s(S'PP'
S'PADVADVNP'
tp463
F1
s(g16
S'ADVADVVAP'
tp464
F1
s(S'AP'
S'AADP'
tp465
F15
s(S'VP'
S'VADVPP'
tp466
F1
s(S'PP'
S'PVVVVP'
tp467
F1
s(S'PP'
S'ADVPVP'
tp468
F1
s(S'DP'
S'DAAP'
tp469
F1
s(S'VP'
S'ADVVANP'
tp470
F1
s(S'PP'
S'ADVPDP'
tp471
F1
s(g73
S'NCP'
tp472
F101
s(S'VP'
S'ADVVVPP'
tp473
F1
s(g33
S'AANDP'
tp474
F1
s(g431
S'DADVNNP'
tp475
F1
s(g346
S'NNCCP'
tp476
F4
s(g370
S'AANAP'
tp477
F1
s(S'CP'
S'ADVADVCCDP'
tp478
F1
s(g133
S'VAPP'
tp479
F5
s(g328
S'ADVVDP'
tp480
F4
s(g216
S'DDADVADVADVPP'
tp481
F1
s(S'DP'
S'DADVPP'
tp482
F5
s(g438
S'CCADP'
tp483
F4
s(S'NP'
S'ADVNNCP'
tp484
F1
s(g262
S'AAPDDDP'
tp485
F1
s(S'AP'
S'ADVAPP'
tp486
F1
s(g312
S'NNNCCP'
tp487
F1
s(S'CP'
S'CCDDDP'
tp488
F1
s(g10
S'DVP'
tp489
F98
s(g36
S'ADVNPP'
tp490
F1
s(g304
S'AVP'
tp491
F12
s(S'NP'
S'NADVVP'
tp492
F1
s(S'DP'
S'DDPPP'
tp493
F5
s(S'MP'
S'MADVADVADVVDP'
tp494
F1
s(g336
S'NNAP'
tp495
F5
s(S'PP'
S'PPANP'
tp496
F1
s(g375
S'VVADVADVDP'
tp497
F1
s(S'CP'
S'CDADVPP'
tp498
F3
s(g16
S'VNP'
tp499
F61
s(g225
S'VANP'
tp500
F6
s(S'VP'
S'VADVAP'
tp501
F2
s(S'PP'
S'PADVADVAVP'
tp502
F1
s(S'PP'
S'PPADVNP'
tp503
F1
s.