ccollections
defaultdict
p1
(c__builtin__
float
p2
tRp3
(S'DP'
p4
S'DDPP'
tp5
F18
s(S'DP'
p6
S'DANP'
tp7
F9
s(S'VP'
p8
S'AVVP'
tp9
F1
s(S'NP'
p10
S'NADVPP'
tp11
F1
s(S'NP'
p12
S'ANPP'
tp13
F4
s(S'PP'
p14
S'PPPPP'
tp15
F2
s(S'VP'
p16
S'VVNP'
tp17
F7
s(S'MP'
S'MVVPP'
tp18
F1
s(S'PP'
p19
S'PAAANP'
tp20
F1
s(S'DP'
S'ADDPP'
tp21
F1
s(S'PP'
p22
S'PPVP'
tp23
F3
s(S'DP'
p24
S'DDAP'
tp25
F2
s(S'PP'
p26
S'PADVADP'
tp27
F1
s(S'DP'
S'ADDP'
tp28
F1
s(S'DP'
S'DDDPP'
tp29
F1
s(g16
S'VAAP'
tp30
F2
s(S'PP'
p31
S'PAPP'
tp32
F3
s(S'NP'
S'ANDP'
tp33
F2
s(g12
S'NVVP'
tp34
F8
s(g6
S'DNP'
tp35
F35
s(S'PP'
p36
S'PNNP'
tp37
F9
s(S'NP'
S'ADVNDP'
tp38
F1
s(S'CP'
p39
S'CDAPP'
tp40
F4
s(g39
S'CDPPP'
tp41
F4
s(S'DP'
p42
S'ADNP'
tp43
F4
s(S'VP'
p44
S'VAVP'
tp45
F1
s(S'VP'
p46
S'VADP'
tp47
F2
s(g22
S'PADVDDP'
tp48
F1
s(S'PP'
p49
S'PADP'
tp50
F4
s(S'PP'
p51
S'AAPDP'
tp52
F2
s(S'DP'
p53
S'ADPP'
tp54
F9
s(S'PP'
S'PDDP'
tp55
F6
s(S'MP'
S'MPDDP'
tp56
F1
s(S'CP'
S'ACDP'
tp57
F4
s(S'NP'
p58
S'NNDP'
tp59
F3
s(S'DP'
p60
S'ADPPP'
tp61
F1
s(g22
S'PPPNP'
tp62
F3
s(g24
S'DAPP'
tp63
F4
s(S'VP'
p64
S'VAP'
tp65
F18
s(g49
S'APVP'
tp66
F4
s(S'MP'
S'MVDP'
tp67
F3
s(S'PP'
S'PADVANP'
tp68
F1
s(g51
S'PPPP'
tp69
F7
s(g4
S'DAANP'
tp70
F1
s(S'VP'
S'ADVADVADVVVDP'
tp71
F1
s(S'VP'
p72
S'VACP'
tp73
F2
s(S'PP'
p74
S'ADVAPVP'
tp75
F1
s(S'AP'
S'ADDP'
tp76
F4
s(S'MP'
S'MAVPP'
tp77
F1
s(S'VP'
S'VVVNP'
tp78
F2
s(S'DP'
p79
S'DADVDP'
tp80
F1
s(S'VP'
S'VVADDP'
tp81
F1
s(S'VP'
S'ADVADVVCP'
tp82
F1
s(S'AP'
S'AADVPP'
tp83
F1
s(g42
S'DADVANP'
tp84
F1
s(S'AP'
S'AVVP'
tp85
F1
s(S'VP'
p86
S'VAAPP'
tp87
F1
s(g4
S'DPPP'
tp88
F10
s(g14
S'PPPVP'
tp89
F1
s(g16
S'VVPP'
tp90
F7
s(S'CP'
S'CDDPP'
tp91
F13
s(S'MP'
S'AAMMVP'
tp92
F1
s(g10
S'NDDP'
tp93
F3
s(S'VP'
S'VVVPP'
tp94
F1
s(S'DP'
S'DPPPP'
tp95
F1
s(S'MP'
S'MVPP'
tp96
F1
s(g53
S'ADVP'
tp97
F3
s(g51
S'PAP'
tp98
F11
s(S'PP'
p99
S'ADVPNP'
tp100
F1
s(S'PP'
p101
S'PPDP'
tp102
F4
s(g58
S'NNNAP'
tp103
F1
s(S'PP'
S'APVVP'
tp104
F1
s(g24
S'DDDDNP'
tp105
F1
s(S'VP'
p106
S'VAAAP'
tp107
F1
s(g31
S'PPVVP'
tp108
F2
s(S'PP'
S'PNP'
tp109
F34
s(S'VP'
S'ADVADVADVVAAMMP'
tp110
F1
s(S'DP'
p111
S'DNNNP'
tp112
F1
s(S'VP'
S'VVVDP'
tp113
F1
s(g24
S'DDP'
tp114
F10
s(S'PP'
p115
S'APADDP'
tp116
F1
s(g49
S'PANP'
tp117
F5
s(S'DP'
p118
S'DDCP'
tp119
F1
s(g51
S'PAAP'
tp120
F2
s(S'DP'
p121
S'DDPPPP'
tp122
F1
s(S'PP'
S'PMP'
tp123
F1
s(S'NP'
p124
S'NAAP'
tp125
F1
s(g115
S'PAAPPP'
tp126
F1
s(S'CP'
p127
S'CCDP'
tp128
F8
s(S'NP'
p129
S'NAP'
tp130
F8
s(S'VP'
S'VPPP'
tp131
F2
s(S'NP'
p132
S'NMP'
tp133
F5
s(S'NP'
S'NVVVP'
tp134
F1
s(S'CP'
S'CDDDPP'
tp135
F1
s(S'CP'
S'CDAAPP'
tp136
F1
s(g12
S'NDP'
tp137
F22
s(g86
S'ADVAVNP'
tp138
F1
s(g101
S'PDDDDP'
tp139
F1
s(S'PP'
S'PNNNP'
tp140
F3
s(g51
S'PVP'
tp141
F30
s(g86
S'VVP'
tp142
F7
s(g53
S'DDVP'
tp143
F5
s(g36
S'PDP'
tp144
F38
s(S'PP'
S'PADVNP'
tp145
F1
s(S'AP'
S'AAADP'
tp146
F2
s(g124
S'AANVP'
tp147
F1
s(S'VP'
S'VVVNNP'
tp148
F1
s(S'DP'
S'DDVVP'
tp149
F1
s(g51
S'PPP'
tp150
F21
s(S'NP'
S'NNVVP'
tp151
F1
s(S'NP'
p152
S'NAVP'
tp153
F2
s(g99
S'ADVPDP'
tp154
F1
s(g46
S'AVPPPP'
tp155
F1
s(g111
S'DVVVP'
tp156
F3
s(g101
S'PCP'
tp157
F3
s(g49
S'PADVPP'
tp158
F2
s(S'CP'
p159
S'CDPP'
tp160
F41
s(g106
S'VMP'
tp161
F1
s(g72
S'VPPPP'
tp162
F1
s(g124
S'ANVVVVP'
tp163
F1
s(S'NP'
S'NNADVADVVVP'
tp164
F1
s(g8
S'VCCP'
tp165
F2
s(S'CP'
S'ADVCADVDP'
tp166
F1
s(g4
S'ADVADVDNP'
tp167
F1
s(g86
S'VPP'
tp168
F21
s(g19
S'ADVPADP'
tp169
F1
s(g132
S'NCCP'
tp170
F5
s(S'CP'
S'ADVCDP'
tp171
F1
s(S'CP'
S'CDADVPP'
tp172
F1
s(g12
S'NNVP'
tp173
F3
s(S'NP'
p174
S'NNCP'
tp175
F5
s(S'MP'
S'MVCP'
tp176
F2
s(S'VP'
p177
S'VCP'
tp178
F17
s(g159
S'CCDDP'
tp179
F3
s(g101
S'PPNNP'
tp180
F1
s(S'DP'
S'DAAPP'
tp181
F1
s(g51
S'PVVP'
tp182
F6
s(S'PP'
S'PPMP'
tp183
F1
s(g44
S'AVNP'
tp184
F1
s(S'DP'
S'DADVADVADVVVP'
tp185
F1
s(S'PP'
S'PPAP'
tp186
F1
s(g129
S'NADVAP'
tp187
F1
s(g152
S'NACP'
tp188
F3
s(g8
S'AVDDP'
tp189
F1
s(S'VP'
S'VVCP'
tp190
F2
s(g111
S'DAP'
tp191
F10
s(g127
S'CADPP'
tp192
F4
s(g124
S'NADVAVP'
tp193
F1
s(g86
S'VDP'
tp194
F26
s(g24
S'DVVP'
tp195
F6
s(g51
S'APNP'
tp196
F3
s(g101
S'APPP'
tp197
F1
s(S'NP'
S'ANMP'
tp198
F1
s(g8
S'ADVVPP'
tp199
F1
s(S'NP'
S'ADVADVNVP'
tp200
F1
s(S'PP'
S'PPNP'
tp201
F1
s(S'AP'
S'ACP'
tp202
F7
s(g177
S'VNNP'
tp203
F6
s(S'CP'
S'CADVDPP'
tp204
F1
s(g53
S'DDNP'
tp205
F9
s(S'CP'
S'ACADVDP'
tp206
F1
s(S'VP'
S'AVPP'
tp207
F1
s(S'DP'
p208
S'DDNNP'
tp209
F1
s(S'NP'
S'ANCP'
tp210
F5
s(g36
S'APDP'
tp211
F7
s(g4
S'DMP'
tp212
F3
s(S'DP'
S'DCP'
tp213
F4
s(S'DP'
p214
S'ADVDPP'
tp215
F3
s(g124
S'NPP'
tp216
F28
s(g10
S'AAANCP'
tp217
F1
s(S'PP'
S'PADVADVNP'
tp218
F1
s(S'AP'
S'AADP'
tp219
F8
s(S'CP'
S'CDPPPP'
tp220
F1
s(g53
S'DDDP'
tp221
F4
s(S'CP'
S'CDDPPP'
tp222
F1
s(S'VP'
S'VVANP'
tp223
F2
s(S'PP'
S'PPANP'
tp224
F1
s(S'MP'
S'MAADP'
tp225
F1
s(S'NP'
S'ANVVP'
tp226
F1
s(g49
S'ADVPVP'
tp227
F2
s(g86
S'VVDP'
tp228
F6
s(S'NP'
S'NPPP'
tp229
F2
s(g115
S'PPAPP'
tp230
F1
s(S'NP'
S'NNVVVP'
tp231
F1
s(S'AP'
S'ACCP'
tp232
F3
s(S'MP'
S'MADVVNP'
tp233
F1
s(S'DP'
S'DAVP'
tp234
F2
s(g10
S'ADVANCP'
tp235
F1
s(g24
S'DNNP'
tp236
F4
s(g124
S'NCP'
tp237
F32
s(S'NP'
p238
S'NADVADVCCP'
tp239
F1
s(S'MP'
S'MVVNP'
tp240
F1
s(g121
S'ADDNP'
tp241
F1
s(S'NP'
p242
S'NNNVP'
tp243
F1
s(S'PP'
S'PAAVVP'
tp244
F1
s(S'CP'
S'ACDDP'
tp245
F1
s(g115
S'AAPPDP'
tp246
F1
s(g79
S'ADVDAPP'
tp247
F2
s(S'AP'
S'AAPP'
tp248
F2
s(g49
S'ADVPDDP'
tp249
F1
s(S'VP'
S'VVCCP'
tp250
F1
s(g106
S'AAVVPPPP'
tp251
F1
s(S'NP'
p252
S'AANDP'
tp253
F1
s(S'VP'
S'ADVVNP'
tp254
F1
s(g238
S'NNCCP'
tp255
F1
s(g106
S'VVVP'
tp256
F1
s(S'CP'
S'ADVADVCCDP'
tp257
F1
s(g132
S'NNPP'
tp258
F4
s(S'AP'
S'ADP'
tp259
F28
s(g49
S'APAP'
tp260
F2
s(g16
S'VAPP'
tp261
F4
s(S'AP'
p262
S'APP'
tp263
F7
s(S'NP'
p264
S'NADVDP'
tp265
F1
s(g53
S'DDAVP'
tp266
F1
s(S'CP'
S'CCADP'
tp267
F2
s(S'DP'
S'DADVADVADVVP'
tp268
F1
s(g53
S'DADVPP'
tp269
F2
s(g124
S'ANCCP'
tp270
F3
s(g264
S'AANPP'
tp271
F1
s(S'AP'
S'AMP'
tp272
F1
s(g174
S'NNMP'
tp273
F3
s(g242
S'ADVANPP'
tp274
F1
s(g86
S'VVVVPP'
tp275
F1
s(g262
S'ADVAPP'
tp276
F1
s(S'NP'
S'NNNPP'
tp277
F2
s(S'PP'
S'PAAAP'
tp278
F1
s(g26
S'PAANP'
tp279
F1
s(g26
S'PPPAP'
tp280
F2
s(g64
S'AVDP'
tp281
F4
s(g10
S'ANVP'
tp282
F4
s(g46
S'VVAP'
tp283
F3
s(g6
S'DVP'
tp284
F34
s(S'MP'
S'MVNP'
tp285
F3
s(S'AP'
S'AVP'
tp286
F5
s(g132
S'NADVVP'
tp287
F1
s(S'PP'
S'PAVP'
tp288
F1
s(S'MP'
S'MADVADVVCP'
tp289
F1
s(g208
S'DDPPP'
tp290
F1
s(g252
S'NNACP'
tp291
F1
s(g132
S'NNAP'
tp292
F1
s(g124
S'NADVADVDP'
tp293
F1
s(g124
S'NAPP'
tp294
F2
s(g124
S'NVP'
tp295
F26
s(S'NP'
S'NADVCP'
tp296
F2
s(g74
S'PADVAPP'
tp297
F1
s(g214
S'ADVADAP'
tp298
F1
s(g86
S'VNP'
tp299
F24
s(S'VP'
S'VANP'
tp300
F1
s(g86
S'VDDP'
tp301
F10
s(g22
S'APDDP'
tp302
F1
s(g60
S'DADP'
tp303
F2
s(S'VP'
S'ADVADVVVDP'
tp304
F1
s(g4
S'DPP'
tp305
F46
s(g118
S'ADVDDDP'
tp306
F1
s.