ccollections
defaultdict
p1
(c__builtin__
float
p2
tRp3
(S'DP'
p4
S'DDMP'
tp5
F1
s(S'DP'
p6
S'ADDPP'
tp7
F1
s(S'DP'
S'DDAP'
tp8
F3
s(S'CP'
p9
S'CCDDDDP'
tp10
F1
s(S'VP'
p11
S'VVVVP'
tp12
F2
s(S'PP'
p13
S'PAPP'
tp14
F6
s(S'PP'
p15
S'PADVNP'
tp16
F2
s(S'DP'
p17
S'DNP'
tp18
F90
s(S'CP'
p19
S'CDPPP'
tp20
F33
s(S'VP'
p21
S'VADP'
tp22
F3
s(S'DP'
S'DNNNNP'
tp23
F1
s(S'DP'
p24
S'DAAP'
tp25
F3
s(S'AP'
S'AADP'
tp26
F9
s(S'VP'
p27
S'VAVP'
tp28
F2
s(S'PP'
p29
S'APPDP'
tp30
F1
s(S'DP'
p31
S'DAADP'
tp32
F1
s(S'PP'
p33
S'APVP'
tp34
F12
s(S'MP'
S'MVDP'
tp35
F8
s(S'PP'
p36
S'PPPP'
tp37
F15
s(S'DP'
p38
S'DDDNP'
tp39
F2
s(S'VP'
p40
S'VACP'
tp41
F1
s(S'DP'
p42
S'DADVVP'
tp43
F4
s(S'AP'
p44
S'AADVPP'
tp45
F1
s(S'NP'
S'NADVACP'
tp46
F1
s(S'NP'
p47
S'NCCCP'
tp48
F3
s(S'CP'
S'CADVDAPP'
tp49
F1
s(S'VP'
p50
S'VCP'
tp51
F54
s(S'NP'
S'NMMP'
tp52
F1
s(S'CP'
S'CAAADPPP'
tp53
F1
s(g36
S'PAP'
tp54
F44
s(S'PP'
p55
S'APVVP'
tp56
F1
s(S'PP'
p57
S'PPADVDP'
tp58
F1
s(S'PP'
p59
S'PNP'
tp60
F103
s(S'VP'
p61
S'VVADVADVNP'
tp62
F1
s(S'DP'
p63
S'DDP'
tp64
F16
s(S'NP'
S'NNNPP'
tp65
F1
s(S'NP'
S'NNDP'
tp66
F11
s(S'MP'
p67
S'MCDP'
tp68
F1
s(S'NP'
p69
S'NNADVADVCP'
tp70
F1
s(S'NP'
p71
S'NMP'
tp72
F26
s(S'MP'
p73
S'MAVDDP'
tp74
F1
s(S'MP'
S'MAAADVPP'
tp75
F1
s(g11
S'AAVNP'
tp76
F1
s(S'VP'
S'VMMP'
tp77
F3
s(g59
S'PDP'
tp78
F90
s(S'PP'
S'PPADVVP'
tp79
F3
s(S'NP'
p80
S'ADVNVVP'
tp81
F1
s(S'NP'
p82
S'AAANVVP'
tp83
F1
s(S'PP'
S'PPPAANP'
tp84
F1
s(S'NP'
p85
S'NACCP'
tp86
F2
s(S'AP'
S'ANP'
tp87
F2
s(S'PP'
p88
S'ADVPAAP'
tp89
F1
s(g55
S'PADVPP'
tp90
F1
s(S'DP'
p91
S'DPPPP'
tp92
F4
s(S'DP'
p93
S'DDANP'
tp94
F1
s(g47
S'NACP'
tp95
F7
s(S'AP'
S'ADVAVP'
tp96
F1
s(S'NP'
S'NCCP'
tp97
F33
s(S'CP'
S'CADVDDPP'
tp98
F1
s(S'NP'
p99
S'NNCP'
tp100
F31
s(S'DP'
p101
S'ADVDDPP'
tp102
F1
s(S'NP'
p103
S'NADVADVVP'
tp104
F1
s(g80
S'NNPPPP'
tp105
F1
s(S'DP'
S'DDAPP'
tp106
F4
s(g21
S'AVNP'
tp107
F8
s(S'VP'
p108
S'VVADP'
tp109
F1
s(S'NP'
p110
S'ADVNDDP'
tp111
F1
s(S'PP'
S'ADVPVVP'
tp112
F1
s(S'DP'
S'ADADVNP'
tp113
F1
s(S'VP'
p114
S'AVDDDP'
tp115
F1
s(S'CP'
S'ACCDDP'
tp116
F1
s(g50
S'ADVADVADVVNP'
tp117
F1
s(g110
S'ANADVVP'
tp118
F1
s(S'NP'
p119
S'NNNVP'
tp120
F3
s(S'NP'
S'NCCCCP'
tp121
F2
s(S'CP'
S'CCCDP'
tp122
F4
s(S'VP'
S'ADVVAP'
tp123
F6
s(S'VP'
S'VCCCP'
tp124
F1
s(S'PP'
S'APDP'
tp125
F4
s(S'VP'
p126
S'ADVVNNP'
tp127
F1
s(S'AP'
S'AADVCP'
tp128
F1
s(S'AP'
S'AVVVVP'
tp129
F1
s(S'PP'
p130
S'PAAP'
tp131
F4
s(g85
S'ADVANCP'
tp132
F1
s(g17
S'DNNP'
tp133
F29
s(S'VP'
S'ADVVAANP'
tp134
F1
s(g63
S'DPPPPP'
tp135
F2
s(S'CP'
S'CDDPPPP'
tp136
F1
s(S'VP'
p137
S'VVNNNP'
tp138
F1
s(g11
S'AAAVVNNP'
tp139
F1
s(S'VP'
S'VADVNNP'
tp140
F1
s(S'VP'
S'ADVVAANNP'
tp141
F1
s(g57
S'PADVVP'
tp142
F3
s(S'PP'
p143
S'PPPADP'
tp144
F1
s(g59
S'APAP'
tp145
F1
s(S'CP'
p146
S'ADVADVCDP'
tp147
F3
s(g80
S'NADVMP'
tp148
F1
s(S'AP'
p149
S'AAP'
tp150
F7
s(S'MP'
S'ADVMAVP'
tp151
F1
s(S'DP'
S'DAAVP'
tp152
F2
s(S'PP'
S'PAANP'
tp153
F4
s(S'CP'
p154
S'AACCDDP'
tp155
F1
s(S'PP'
S'PPVVP'
tp156
F2
s(S'MP'
S'MVNP'
tp157
F9
s(S'VP'
S'AAAVVNP'
tp158
F1
s(S'CP'
S'CDDDPPP'
tp159
F2
s(g101
S'ADVADNP'
tp160
F2
s(S'MP'
p161
S'MNADVAVP'
tp162
F1
s(S'PP'
S'PAVP'
tp163
F11
s(S'NP'
S'NNADP'
tp164
F1
s(g143
S'APPPP'
tp165
F1
s(g91
S'DADP'
tp166
F1
s(S'AP'
S'ADVADP'
tp167
F1
s(S'AP'
p168
S'APP'
tp169
F19
s(S'VP'
S'VVADVPP'
tp170
F1
s(S'DP'
S'ADVDDP'
tp171
F1
s(S'PP'
S'APDDP'
tp172
F1
s(S'PP'
S'APPP'
tp173
F1
s(S'VP'
S'ADVVNP'
tp174
F8
s(g108
S'AVCCCCP'
tp175
F1
s(S'MP'
S'MNCP'
tp176
F1
s(S'VP'
p177
S'VVNP'
tp178
F18
s(S'PP'
S'PPPNNP'
tp179
F1
s(g59
S'PPVP'
tp180
F24
s(S'VP'
p181
S'VADVDP'
tp182
F4
s(g61
S'VVADVAP'
tp183
F1
s(S'VP'
p184
S'VAAP'
tp185
F4
s(g69
S'ANDP'
tp186
F4
s(S'NP'
p187
S'NVVP'
tp188
F30
s(S'PP'
p189
S'AAPVP'
tp190
F1
s(S'VP'
p191
S'VMP'
tp192
F9
s(g103
S'ADVNAAVP'
tp193
F1
s(g137
S'VVNNP'
tp194
F5
s(S'CP'
p195
S'CDAPP'
tp196
F7
s(S'VP'
S'VVAAP'
tp197
F2
s(S'MP'
S'MMPP'
tp198
F1
s(g93
S'ADVADVP'
tp199
F1
s(S'DP'
p200
S'ADNP'
tp201
F6
s(S'PP'
p202
S'PPPPAP'
tp203
F1
s(g130
S'PADP'
tp204
F8
s(S'VP'
p205
S'ADVVVCP'
tp206
F1
s(g103
S'ANDDP'
tp207
F1
s(g91
S'DAPP'
tp208
F13
s(g181
S'ADVADVVPP'
tp209
F1
s(g108
S'VADVAAP'
tp210
F2
s(S'NP'
S'ADVADVNNDP'
tp211
F1
s(S'VP'
S'AVVNP'
tp212
F1
s(S'PP'
S'PPPDP'
tp213
F1
s(g202
S'AAAPDP'
tp214
F1
s(S'DP'
S'DAAANP'
tp215
F1
s(S'CP'
S'CCAAAADP'
tp216
F1
s(g181
S'VAAPP'
tp217
F1
s(g31
S'ADVDNP'
tp218
F6
s(S'VP'
p219
S'VVPP'
tp220
F12
s(g55
S'PAVVP'
tp221
F1
s(g73
S'MVPP'
tp222
F6
s(S'DP'
S'ADVP'
tp223
F5
s(S'CP'
S'CDDPPP'
tp224
F8
s(S'NP'
p225
S'NNPP'
tp226
F17
s(S'NP'
p227
S'NADVADVPPP'
tp228
F1
s(S'DP'
S'DDDDNP'
tp229
F1
s(S'MP'
p230
S'MVVDP'
tp231
F1
s(S'DP'
S'DADVPPP'
tp232
F1
s(S'NP'
p233
S'ANVP'
tp234
F7
s(g17
S'DNNNP'
tp235
F4
s(g44
S'AADVAAP'
tp236
F1
s(g57
S'PADVADVVP'
tp237
F3
s(g33
S'PVVVP'
tp238
F3
s(g130
S'PMP'
tp239
F7
s(S'CP'
p240
S'CCDP'
tp241
F46
s(g73
S'AMVP'
tp242
F1
s(S'PP'
S'PPNNNP'
tp243
F1
s(S'DP'
S'AADDPP'
tp244
F1
s(S'NP'
p245
S'NVVVP'
tp246
F2
s(S'CP'
S'CDDDPP'
tp247
F3
s(S'CP'
S'CDAAPP'
tp248
F1
s(S'VP'
p249
S'VVVDP'
tp250
F5
s(S'PP'
S'PDDDDP'
tp251
F1
s(S'PP'
p252
S'PNNNP'
tp253
F1
s(S'CP'
S'CCCCDP'
tp254
F2
s(S'AP'
p255
S'AACCP'
tp256
F1
s(g13
S'AAPNP'
tp257
F1
s(S'PP'
S'PADVVVP'
tp258
F1
s(g59
S'PPP'
tp259
F55
s(g119
S'NNVVP'
tp260
F9
s(g99
S'NAVP'
tp261
F7
s(S'PP'
S'PADVAP'
tp262
F3
s(S'DP'
S'DDNNNP'
tp263
F2
s(g38
S'ADVDVP'
tp264
F3
s(S'NP'
p265
S'NAAAP'
tp266
F1
s(S'DP'
p267
S'DADVADVPPP'
tp268
F1
s(S'AP'
S'AADVVP'
tp269
F2
s(S'DP'
S'DAAAP'
tp270
F1
s(S'VP'
p271
S'VPP'
tp272
F54
s(S'CP'
S'ACCDP'
tp273
F2
s(S'NP'
p274
S'NNNCP'
tp275
F3
s(g29
S'PADVDP'
tp276
F5
s(S'CP'
S'CDADVAPP'
tp277
F1
s(g44
S'ADVAADP'
tp278
F3
s(S'DP'
S'DANNP'
tp279
F4
s(S'CP'
p280
S'CDDPP'
tp281
F31
s(S'DP'
p282
S'DAAPP'
tp283
F1
s(g59
S'PVVP'
tp284
F21
s(g195
S'CADPPP'
tp285
F2
s(S'AP'
S'AACP'
tp286
F2
s(S'VP'
p287
S'ADVVCP'
tp288
F1
s(S'MP'
S'MCCDP'
tp289
F1
s(g40
S'VPPP'
tp290
F8
s(S'VP'
S'VVPPP'
tp291
F2
s(g88
S'PPAP'
tp292
F8
s(g63
S'DVVP'
tp293
F16
s(S'AP'
S'APPP'
tp294
F1
s(S'NP'
S'NNNNMP'
tp295
F1
s(S'NP'
p296
S'ADVADVNVP'
tp297
F1
s(g184
S'VVVP'
tp298
F3
s(S'CP'
S'CADVDPP'
tp299
F6
s(S'NP'
S'ADVADVNNVP'
tp300
F1
s(S'VP'
S'AVMP'
tp301
F1
s(g225
S'ANCP'
tp302
F10
s(S'DP'
S'DCP'
tp303
F5
s(S'DP'
S'DVVVP'
tp304
F1
s(S'VP'
p305
S'VVVNNNP'
tp306
F1
s(g267
S'DDDP'
tp307
F9
s(S'DP'
S'DDADVPP'
tp308
F1
s(S'NP'
S'ANVVP'
tp309
F1
s(S'NP'
p310
S'NVVVVP'
tp311
F1
s(g71
S'NPPP'
tp312
F20
s(S'DP'
p313
S'DAVP'
tp314
F2
s(S'AP'
p315
S'ACP'
tp316
F18
s(g85
S'NNNADVANP'
tp317
F1
s(S'PP'
S'PADVADVNNP'
tp318
F1
s(g55
S'PPNP'
tp319
F38
s(S'DP'
S'ADVDAPP'
tp320
F1
s(g200
S'AADVP'
tp321
F1
s(S'VP'
p322
S'VVVVNNP'
tp323
F1
s(g55
S'PPPPAPP'
tp324
F1
s(S'VP'
S'VAANNP'
tp325
F1
s(S'CP'
S'CCCDDP'
tp326
F1
s(g168
S'ADP'
tp327
F78
s(S'DP'
S'DDPPPP'
tp328
F2
s(S'NP'
S'ANPPP'
tp329
F2
s(S'NP'
S'AAANNCP'
tp330
F1
s(S'VP'
S'VAAANP'
tp331
F1
s(g249
S'VVPPPP'
tp332
F1
s(S'VP'
S'ADVADVVNNP'
tp333
F1
s(S'AP'
p334
S'AAADP'
tp335
F2
s(g296
S'ANNVP'
tp336
F1
s(g27
S'VVAP'
tp337
F6
s(S'NP'
S'NNAPP'
tp338
F1
s(S'CP'
S'ADVACDP'
tp339
F1
s(S'VP'
p340
S'AAVCP'
tp341
F2
s(g187
S'NPP'
tp342
F70
s(S'PP'
S'PPPPNP'
tp343
F1
s(g187
S'NVP'
tp344
F99
s(S'PP'
S'PAAVP'
tp345
F1
s(S'NP'
p346
S'NAAPP'
tp347
F1
s(g184
S'VDDP'
tp348
F21
s(S'DP'
S'DADVAPP'
tp349
F1
s(S'PP'
p350
S'PAAAVP'
tp351
F1
s(g187
S'ANPP'
tp352
F6
s(S'PP'
S'ADVPPDP'
tp353
F1
s(g15
S'PPPPP'
tp354
F4
s(S'PP'
p355
S'PPPNP'
tp356
F3
s(S'AP'
S'AADVADVDP'
tp357
F1
s(S'CP'
S'CDDDADVPP'
tp358
F1
s(S'CP'
S'CAADPP'
tp359
F3
s(S'DP'
S'DADVADVVP'
tp360
F1
s(g355
S'PNNP'
tp361
F26
s(g355
S'APNNP'
tp362
F1
s(S'DP'
S'DAAANNP'
tp363
F1
s(g4
S'DDAAP'
tp364
F1
s(S'MP'
S'MMNP'
tp365
F1
s(g287
S'AVAP'
tp366
F2
s(S'MP'
S'MMVP'
tp367
F2
s(g110
S'ADVNCP'
tp368
F3
s(g130
S'PPAADP'
tp369
F1
s(S'NP'
p370
S'NAPPP'
tp371
F1
s(g19
S'ACDP'
tp372
F10
s(g219
S'VCCP'
tp373
F15
s(g99
S'NNACP'
tp374
F2
s(S'DP'
S'AAADPPP'
tp375
F1
s(S'MP'
S'MDNNP'
tp376
F1
s(g370
S'ANNVVVP'
tp377
F1
s(g146
S'CDADVPPP'
tp378
F1
s(g219
S'VAP'
tp379
F52
s(S'VP'
S'VVVVNP'
tp380
F1
s(S'DP'
p381
S'DDDPP'
tp382
F3
s(g9
S'ADVCDDP'
tp383
F4
s(S'NP'
S'AANNCP'
tp384
F1
s(g189
S'PAAPP'
tp385
F1
s(S'VP'
S'VVPPPPP'
tp386
F1
s(S'DP'
p387
S'DDDPPP'
tp388
F3
s(g126
S'ADVAVDP'
tp389
F1
s(g103
S'NAAP'
tp390
F4
s(S'AP'
p391
S'AADDP'
tp392
F3
s(g114
S'VAANP'
tp393
F1
s(S'NP'
p394
S'NADVADVCP'
tp395
F1
s(g219
S'VVDP'
tp396
F21
s(g191
S'VVVVADVAP'
tp397
F1
s(S'AP'
S'AAACCP'
tp398
F1
s(g59
S'PANP'
tp399
F10
s(S'DP'
p400
S'AADNP'
tp401
F1
s(g42
S'DADVADVNNP'
tp402
F2
s(g13
S'PAAAVVP'
tp403
F1
s(g227
S'AANMP'
tp404
F2
s(g149
S'AAVP'
tp405
F5
s(g315
S'AVVP'
tp406
F2
s(g119
S'NDDP'
tp407
F8
s(g255
S'ACCP'
tp408
F4
s(S'DP'
S'DDDADVPP'
tp409
F1
s(g187
S'NDP'
tp410
F54
s(S'NP'
p411
S'NNNNVVP'
tp412
F1
s(g63
S'DDVP'
tp413
F18
s(S'PP'
S'ADVPPADP'
tp414
F1
s(g310
S'AANVP'
tp415
F3
s(S'PP'
p416
S'APPADVNP'
tp417
F1
s(S'DP'
S'ADDVP'
tp418
F1
s(g305
S'VNNNP'
tp419
F2
s(g252
S'ADVPAP'
tp420
F1
s(S'NP'
S'AAANVP'
tp421
F1
s(S'PP'
S'PCP'
tp422
F9
s(g340
S'VADVADP'
tp423
F1
s(S'PP'
S'PAADP'
tp424
F1
s(S'NP'
S'ADVNNVP'
tp425
F1
s(g61
S'VPPPP'
tp426
F1
s(S'AP'
S'ADVACP'
tp427
F4
s(g15
S'AAPNNP'
tp428
F1
s(g205
S'AVVDP'
tp429
F2
s(g91
S'ADPPP'
tp430
F2
s(S'MP'
p431
S'MVCP'
tp432
F8
s(g187
S'NCP'
tp433
F97
s(S'CP'
S'CCDDP'
tp434
F10
s(S'NP'
S'NNADVVP'
tp435
F1
s(g296
S'NAACCP'
tp436
F1
s(S'PP'
S'PPAAP'
tp437
F1
s(S'NP'
S'NNNNVP'
tp438
F3
s(S'VP'
p439
S'VVCP'
tp440
F12
s(S'NP'
S'AANCP'
tp441
F3
s(g340
S'VADVNP'
tp442
F2
s(g439
S'AVVPP'
tp443
F1
s(g274
S'NNDDP'
tp444
F5
s(S'MP'
S'MNNPP'
tp445
F1
s(S'VP'
S'ADVVPP'
tp446
F1
s(g287
S'VNNP'
tp447
F19
s(g44
S'AADVDP'
tp448
F1
s(g63
S'DDNP'
tp449
F24
s(S'NP'
S'NADVCP'
tp450
F3
s(g63
S'DDNNP'
tp451
F9
s(S'AP'
S'ADVADDP'
tp452
F1
s(S'DP'
S'AADPP'
tp453
F3
s(S'PP'
p454
S'ADVPDDP'
tp455
F1
s(g57
S'AAPDP'
tp456
F2
s(g265
S'ANVVVP'
tp457
F1
s(g161
S'MADVPPADP'
tp458
F1
s(S'NP'
S'ADVADVNNCP'
tp459
F1
s(S'AP'
S'AAPP'
tp460
F2
s(S'VP'
S'VVCCP'
tp461
F4
s(g416
S'ADVPANP'
tp462
F1
s(g71
S'NAPP'
tp463
F3
s(S'PP'
S'ADVPPPP'
tp464
F1
s(S'NP'
S'ANCCP'
tp465
F3
s(S'AP'
S'ADVADDDP'
tp466
F1
s(S'NP'
S'NNMP'
tp467
F1
s(g313
S'DDDVP'
tp468
F1
s(g350
S'ADVADVPNP'
tp469
F1
s(S'PP'
S'PPPAP'
tp470
F1
s(S'CP'
S'CDDAPP'
tp471
F3
s(S'VP'
S'VANNP'
tp472
F1
s(g59
S'PVP'
tp473
F73
s(g296
S'ADVNAVP'
tp474
F1
s(S'NP'
p475
S'ANNCP'
tp476
F3
s(S'NP'
S'ADVADVANVP'
tp477
F1
s(S'PP'
S'PPDDP'
tp478
F3
s(g27
S'AVCP'
tp479
F4
s(S'DP'
S'DDVVVP'
tp480
F1
s(S'NP'
S'NAVVP'
tp481
F2
s(g17
S'DPP'
tp482
F117
s(g99
S'ADVNVP'
tp483
F3
s(g381
S'DDDVVP'
tp484
F1
s(S'DP'
p485
S'DDPP'
tp486
F46
s(g24
S'DANP'
tp487
F8
s(S'NP'
p488
S'NADVPP'
tp489
F1
s(g488
S'NNAAVVP'
tp490
F1
s(S'PP'
S'PDDDP'
tp491
F1
s(S'NP'
p492
S'NNAPPP'
tp493
F1
s(g233
S'NNNNCP'
tp494
F2
s(g431
S'MDNP'
tp495
F2
s(g492
S'AANADVPP'
tp496
F1
s(g82
S'AANNDP'
tp497
F1
s(g346
S'ADVADVNMP'
tp498
F1
s(S'DP'
S'AAAADPP'
tp499
F1
s(g280
S'CDPPPPP'
tp500
F1
s(g55
S'PDDP'
tp501
F19
s(g485
S'DADVADVADVVP'
tp502
F1
s(g454
S'ADVAPNP'
tp503
F1
s(g187
S'NNVP'
tp504
F23
s(S'AP'
S'AADVADVCP'
tp505
F1
s(g271
S'AVDP'
tp506
F6
s(S'NP'
S'NNP'
tp507
F1
s(g184
S'VVDDP'
tp508
F7
s(g101
S'DAANP'
tp509
F2
s(g154
S'CCCCADP'
tp510
F1
s(S'AP'
S'ADDP'
tp511
F14
s(S'VP'
S'ADVVADVADP'
tp512
F1
s(g130
S'PNNNNP'
tp513
F4
s(S'VP'
S'VVVCP'
tp514
F3
s(S'CP'
S'CADVADVDPP'
tp515
F1
s(g17
S'DPPP'
tp516
F51
s(S'DP'
S'DAVVP'
tp517
F1
s(g31
S'AADPPP'
tp518
F2
s(g55
S'ADVADVPPNP'
tp519
F2
s(S'AP'
S'AAAP'
tp520
F1
s(g59
S'ADVPNP'
tp521
F7
s(g36
S'PPDP'
tp522
F18
s(g67
S'MADP'
tp523
F2
s(S'CP'
S'CCDDDP'
tp524
F1
s(g400
S'DDCP'
tp525
F1
s(g492
S'NAAAVVP'
tp526
F1
s(g346
S'NNADVADP'
tp527
F1
s(S'NP'
S'NAP'
tp528
F32
s(S'NP'
S'NNAAP'
tp529
F1
s(g99
S'NAAAPP'
tp530
F1
s(g177
S'VVP'
tp531
F25
s(g282
S'DADVNP'
tp532
F5
s(g55
S'APNP'
tp533
F11
s(g267
S'DDVVP'
tp534
F3
s(S'AP'
S'AAADDP'
tp535
F1
s(g340
S'VVVNP'
tp536
F3
s(S'CP'
S'CADVADVADVDPPP'
tp537
F1
s(S'DP'
S'ADVADVADVDPPP'
tp538
F1
s(g475
S'NAMP'
tp539
F1
s(g67
S'MVANP'
tp540
F1
s(S'AP'
S'AAADVPP'
tp541
F1
s(g240
S'CDPP'
tp542
F107
s(S'CP'
S'AAACDP'
tp543
F1
s(S'AP'
S'ADDDP'
tp544
F1
s(g230
S'MAAVDP'
tp545
F1
s(g340
S'ADVADVVNP'
tp546
F3
s(S'NP'
S'NADVVP'
tp547
F5
s(S'PP'
S'PPNNP'
tp548
F3
s(S'PP'
p549
S'ADVPAVP'
tp550
F1
s(S'CP'
S'CAADDPP'
tp551
F1
s(g38
S'ADVADVDPP'
tp552
F1
s(g219
S'VDP'
tp553
F91
s(S'MP'
p554
S'MVADVNNP'
tp555
F1
s(g411
S'NADVAP'
tp556
F1
s(g184
S'AVDDP'
tp557
F2
s(g200
S'DAP'
tp558
F12
s(S'CP'
S'CADPP'
tp559
F14
s(g6
S'ADVADVDVVP'
tp560
F1
s(S'NP'
S'NADVAVP'
tp561
F1
s(S'PP'
S'PPAVP'
tp562
F1
s(S'VP'
S'AAVVAP'
tp563
F1
s(g27
S'AVPP'
tp564
F4
s(S'CP'
S'CAADPPP'
tp565
F1
s(S'DP'
S'DDNNNNP'
tp566
F1
s(g195
S'CDPPPP'
tp567
F3
s(g11
S'AAVDP'
tp568
F3
s(g334
S'AAAPP'
tp569
F1
s(S'DP'
S'DADVADVPP'
tp570
F1
s(g387
S'DMP'
tp571
F2
s(g31
S'ADVDPP'
tp572
F7
s(g394
S'AAANPP'
tp573
F1
s(S'PP'
S'PADVADVNP'
tp574
F1
s(g91
S'ADPP'
tp575
F16
s(g13
S'PPAAVP'
tp576
F1
s(g287
S'VADVPP'
tp577
F1
s(S'PP'
S'PVVVVP'
tp578
F1
s(g55
S'ADVPVP'
tp579
F4
s(S'DP'
S'DDDDPP'
tp580
F1
s(S'NP'
p581
S'NNVVVP'
tp582
F3
s(g61
S'ADVVANP'
tp583
F1
s(g15
S'ADVPDP'
tp584
F2
s(g549
S'PPAAANP'
tp585
F1
s(S'DP'
S'ADVVP'
tp586
F2
s(S'MP'
S'MADVDNP'
tp587
F1
s(S'MP'
S'MVCCP'
tp588
F3
s(g4
S'DADVNNP'
tp589
F1
s(g274
S'NNCCP'
tp590
F4
s(g554
S'MNVP'
tp591
F4
s(g67
S'MNNAAP'
tp592
F1
s(g219
S'VAPP'
tp593
F3
s(g322
S'VVAAACP'
tp594
F1
s(g219
S'ADVVDP'
tp595
F4
s(g17
S'DADVPP'
tp596
F9
s(g245
S'ADVNNCP'
tp597
F1
s(g411
S'NNNPPP'
tp598
F1
s(S'AP'
S'ADVAPP'
tp599
F3
s(g187
S'NNNCCP'
tp600
F3
s(S'NP'
p601
S'NNADDP'
tp602
F1
s(g17
S'DVP'
tp603
F88
s(g601
S'NNCCCP'
tp604
F1
s(g391
S'AVP'
tp605
F15
s(S'MP'
S'MNPPP'
tp606
F1
s(g205
S'ADVVPPP'
tp607
F1
s(g31
S'DDPPP'
tp608
F14
s(g475
S'ADVNMP'
tp609
F2
s(g103
S'NNAP'
tp610
F4
s(S'NP'
S'NNNANP'
tp611
F1
s(S'PP'
S'PPANP'
tp612
F5
s(S'MP'
S'MCDDP'
tp613
F1
s(S'VP'
S'AAAVNP'
tp614
F1
s(g240
S'CDADVPP'
tp615
F8
s(g219
S'VNP'
tp616
F90
s(g581
S'AAANADVAP'
tp617
F1
s(g27
S'VANP'
tp618
F10
s(g287
S'VADVAP'
tp619
F3
s(g202
S'PPADVNP'
tp620
F1
s(S'NP'
S'NADVPPP'
tp621
F1
s.