ccollections
defaultdict
p1
(c__builtin__
float
p2
tRp3
(S'MP'
p4
S'MMDP'
tp5
F1
s(S'VP'
S'VVAAAP'
tp6
F1
s(S'NP'
S'AANDDP'
tp7
F1
s(S'DP'
p8
S'DDMP'
tp9
F1
s(S'DP'
S'ADDPP'
tp10
F1
s(S'NP'
S'ADVNNMP'
tp11
F1
s(S'PP'
S'AAAPPVP'
tp12
F1
s(S'DP'
S'DDAP'
tp13
F1
s(S'VP'
S'ADVVVNP'
tp14
F3
s(S'AP'
S'AADDDP'
tp15
F2
s(S'VP'
p16
S'VVVVP'
tp17
F4
s(S'AP'
S'AVVVP'
tp18
F2
s(S'VP'
p19
S'VVADVVP'
tp20
F1
s(S'PP'
p21
S'PAPP'
tp22
F10
s(S'PP'
p23
S'PADVNP'
tp24
F10
s(S'DP'
p25
S'DNP'
tp26
F249
s(S'NP'
S'ADVNDP'
tp27
F5
s(S'VP'
S'ADVVNNP'
tp28
F1
s(S'CP'
p29
S'CDPPP'
tp30
F81
s(S'DP'
p31
S'DCCCCP'
tp32
F1
s(S'VP'
p33
S'VADP'
tp34
F15
s(S'CP'
S'CDAAPPP'
tp35
F2
s(S'DP'
p36
S'DAAP'
tp37
F4
s(S'PP'
S'PPPPPP'
tp38
F2
s(S'VP'
S'VAVP'
tp39
F1
s(S'PP'
S'APPDP'
tp40
F2
s(S'DP'
S'DAADP'
tp41
F1
s(g8
S'ADNNP'
tp42
F4
s(g33
S'AVADVDP'
tp43
F1
s(S'PP'
p44
S'APVP'
tp45
F16
s(S'MP'
S'MVDP'
tp46
F24
s(S'PP'
p47
S'PADVANP'
tp48
F2
s(S'PP'
S'PPPP'
tp49
F52
s(S'VP'
S'VVVVDDP'
tp50
F1
s(S'MP'
S'MAVADVDP'
tp51
F1
s(S'DP'
p52
S'DDDNP'
tp53
F7
s(S'VP'
p54
S'VACP'
tp55
F6
s(S'PP'
p56
S'PPAAP'
tp57
F6
s(S'PP'
S'PPPPADVVVP'
tp58
F1
s(S'DP'
p59
S'DADVVP'
tp60
F12
s(S'VP'
S'ADVADVVDDP'
tp61
F1
s(S'MP'
S'MVCCCP'
tp62
F1
s(S'PP'
p63
S'PADVNNP'
tp64
F2
s(S'NP'
S'NADVACP'
tp65
F2
s(S'NP'
S'NAAVVP'
tp66
F2
s(S'NP'
p67
S'NADVVVP'
tp68
F2
s(S'CP'
p69
S'CADVDAPP'
tp70
F1
s(S'VP'
p71
S'VCP'
tp72
F113
s(S'NP'
S'AANCCP'
tp73
F2
s(S'NP'
p74
S'NMMP'
tp75
F6
s(S'NP'
S'NANP'
tp76
F2
s(S'VP'
S'ADVVAAP'
tp77
F1
s(S'CP'
S'CAAADPPP'
tp78
F1
s(S'VP'
p79
S'ADVVCCP'
tp80
F1
s(S'PP'
S'PAP'
tp81
F124
s(S'MP'
S'MMVVP'
tp82
F1
s(S'DP'
p83
S'DDADVADVPP'
tp84
F1
s(S'PP'
p85
S'ADVPPVP'
tp86
F1
s(S'NP'
S'NNNAP'
tp87
F1
s(g47
S'APVVP'
tp88
F2
s(S'NP'
p89
S'NAAAVP'
tp90
F1
s(S'PP'
S'PPADVDP'
tp91
F2
s(S'VP'
p92
S'VADVANP'
tp93
F2
s(S'PP'
p94
S'PNP'
tp95
F233
s(S'NP'
S'ADVNADVADVVVVP'
tp96
F1
s(S'CP'
S'ADVADVCAADDP'
tp97
F1
s(S'MP'
S'MADVADVADVVPPP'
tp98
F1
s(S'DP'
p99
S'DDP'
tp100
F75
s(S'VP'
p101
S'ADVVDDP'
tp102
F2
s(S'NP'
S'NNNPP'
tp103
F3
s(S'VP'
S'VCCP'
tp104
F31
s(S'PP'
S'ADVPCP'
tp105
F2
s(S'NP'
S'NNADVADVCP'
tp106
F3
s(S'MP'
p107
S'MNAP'
tp108
F1
s(S'PP'
p109
S'ADVADVPAP'
tp110
F1
s(S'NP'
p111
S'NMP'
tp112
F64
s(S'PP'
S'PPMMP'
tp113
F1
s(S'VP'
S'AAVVMP'
tp114
F1
s(S'VP'
S'AAVNP'
tp115
F3
s(S'VP'
p116
S'VMMP'
tp117
F1
s(g21
S'PDP'
tp118
F239
s(S'CP'
S'CCADVADVDP'
tp119
F1
s(S'NP'
S'ADVNVVP'
tp120
F2
s(S'MP'
p121
S'MNNVP'
tp122
F4
s(S'AP'
S'ANP'
tp123
F3
s(S'NP'
S'NADVADVADVVP'
tp124
F1
s(S'PP'
p125
S'PADVPP'
tp126
F3
s(g74
S'NNADVCP'
tp127
F1
s(S'VP'
S'VVADVNP'
tp128
F1
s(g83
S'DDAAPPP'
tp129
F1
s(S'DP'
S'DPPPP'
tp130
F11
s(S'DP'
S'DDANP'
tp131
F2
s(S'PP'
p132
S'PADVADP'
tp133
F1
s(S'NP'
p134
S'NACP'
tp135
F18
s(S'AP'
S'ADVAVP'
tp136
F1
s(S'NP'
p137
S'NCCP'
tp138
F79
s(S'DP'
S'DADVADVVVP'
tp139
F1
s(S'AP'
S'AAAADP'
tp140
F1
s(g111
S'NNCP'
tp141
F98
s(S'DP'
S'ADVDDPP'
tp142
F2
s(S'NP'
p143
S'NADVADVVP'
tp144
F3
s(S'NP'
S'NNPPPP'
tp145
F1
s(S'DP'
S'DDDDP'
tp146
F4
s(S'VP'
p147
S'AVVNNP'
tp148
F1
s(S'VP'
p149
S'AVNP'
tp150
F9
s(S'VP'
S'VVADP'
tp151
F1
s(S'NP'
p152
S'NADVADVPP'
tp153
F1
s(S'PP'
S'PADVADVANP'
tp154
F1
s(S'CP'
S'AAACDDP'
tp155
F1
s(S'VP'
S'VVMP'
tp156
F3
s(S'VP'
S'VADVVP'
tp157
F1
s(S'MP'
p158
S'MVPPP'
tp159
F1
s(S'PP'
S'ADVPADVNP'
tp160
F1
s(S'NP'
S'NCCCCP'
tp161
F1
s(S'CP'
S'CCCDP'
tp162
F10
s(S'VP'
S'ADVVAP'
tp163
F5
s(S'VP'
p164
S'VCCCP'
tp165
F3
s(S'PP'
p166
S'PADVVVP'
tp167
F1
s(g21
S'APDP'
tp168
F23
s(S'VP'
S'AVAP'
tp169
F3
s(S'NP'
p170
S'ADVNPPP'
tp171
F1
s(S'AP'
S'AVVVVP'
tp172
F1
s(S'VP'
S'VVANP'
tp173
F2
s(S'PP'
p174
S'PPACP'
tp175
F1
s(S'DP'
S'DADVNP'
tp176
F9
s(S'PP'
S'ADVPNNP'
tp177
F2
s(S'VP'
S'ADVVVP'
tp178
F2
s(S'PP'
p179
S'PPADVADVAP'
tp180
F1
s(S'DP'
p181
S'DDDADVNNP'
tp182
F1
s(S'NP'
p183
S'ADVNCP'
tp184
F13
s(S'PP'
S'PAAP'
tp185
F22
s(S'NP'
S'ADVANCP'
tp186
F2
s(g25
S'DNNP'
tp187
F110
s(S'DP'
S'DDADVCP'
tp188
F1
s(S'DP'
S'DPPPPP'
tp189
F3
s(S'CP'
S'CDDPPPP'
tp190
F2
s(S'CP'
S'CCADVDP'
tp191
F5
s(S'VP'
p192
S'VVNNNP'
tp193
F1
s(S'NP'
p194
S'NNNVP'
tp195
F8
s(S'PP'
p196
S'AAPPDP'
tp197
F1
s(S'PP'
p198
S'PPNNNNP'
tp199
F1
s(S'PP'
S'PADVVP'
tp200
F7
s(S'DP'
S'DACP'
tp201
F4
s(S'DP'
S'DADVVVP'
tp202
F1
s(g23
S'APAP'
tp203
F1
s(S'AP'
p204
S'APP'
tp205
F47
s(S'AP'
S'AAAPPP'
tp206
F1
s(S'NP'
p207
S'ADVANNPP'
tp208
F1
s(S'AP'
S'AAP'
tp209
F9
s(S'NP'
p210
S'ADVADVNDP'
tp211
F1
s(S'VP'
S'VVVVPP'
tp212
F1
s(S'VP'
p213
S'VADVADVNP'
tp214
F3
s(S'CP'
S'CDDDDPP'
tp215
F3
s(S'NP'
S'NAAACP'
tp216
F1
s(S'PP'
p217
S'PAANP'
tp218
F4
s(S'VP'
S'VADVADVCP'
tp219
F1
s(S'PP'
S'PPVVP'
tp220
F13
s(S'VP'
S'ADVADVVVVNP'
tp221
F1
s(S'MP'
S'MVNP'
tp222
F20
s(S'NP'
p223
S'ADVADVNAACP'
tp224
F1
s(S'CP'
S'CDDDPPP'
tp225
F2
s(S'PP'
S'PAVP'
tp226
F18
s(S'MP'
S'ADVMVP'
tp227
F1
s(S'MP'
S'MNNMMP'
tp228
F1
s(S'VP'
S'VVVPP'
tp229
F1
s(S'PP'
p230
S'APPPP'
tp231
F3
s(S'DP'
p232
S'DADP'
tp233
F2
s(S'AP'
S'ADVADP'
tp234
F3
s(S'CP'
S'ADVADVCDP'
tp235
F4
s(S'DP'
p236
S'ADVDDP'
tp237
F1
s(S'PP'
S'APDDP'
tp238
F4
s(S'VP'
p239
S'ADVADVVVNP'
tp240
F1
s(S'NP'
S'ADVNAP'
tp241
F3
s(S'DP'
S'DAAAVP'
tp242
F1
s(S'PP'
p243
S'PPCP'
tp244
F2
s(S'MP'
S'ADVMAVVP'
tp245
F1
s(S'VP'
p246
S'ADVVNP'
tp247
F14
s(S'VP'
S'VVNP'
tp248
F54
s(g196
S'ADVPPPP'
tp249
F1
s(S'PP'
p250
S'PPVP'
tp251
F58
s(g107
S'MAAANMP'
tp252
F1
s(g109
S'ADVPAADP'
tp253
F1
s(S'VP'
S'VADVDP'
tp254
F7
s(S'NP'
p255
S'NADVMP'
tp256
F2
s(g92
S'VVADVAP'
tp257
F1
s(g54
S'VAAP'
tp258
F22
s(g137
S'ANDP'
tp259
F11
s(g89
S'NVVP'
tp260
F53
s(S'PP'
S'AAPVP'
tp261
F2
s(S'PP'
S'PPADP'
tp262
F1
s(S'VP'
p263
S'VMP'
tp264
F15
s(S'VP'
S'VVNNP'
tp265
F8
s(S'CP'
S'CDAPP'
tp266
F26
s(S'CP'
S'CDDAAPP'
tp267
F1
s(S'MP'
S'MMPP'
tp268
F1
s(S'DP'
S'ADVADVP'
tp269
F1
s(S'MP'
S'MMMADVVP'
tp270
F1
s(S'DP'
p271
S'ADNP'
tp272
F16
s(S'PP'
p273
S'PADP'
tp274
F12
s(g79
S'ADVVVCP'
tp275
F1
s(S'DP'
S'ADVDDNP'
tp276
F2
s(g183
S'ADVNADVVP'
tp277
F1
s(S'NP'
p278
S'ANDDP'
tp279
F2
s(g192
S'VVVDDP'
tp280
F1
s(S'DP'
p281
S'DAPP'
tp282
F40
s(S'VP'
S'AVVP'
tp283
F2
s(S'MP'
S'MVVCP'
tp284
F1
s(S'MP'
S'MDDNP'
tp285
F1
s(g147
S'ADVADVVDP'
tp286
F1
s(S'PP'
S'PPPDP'
tp287
F3
s(S'DP'
p288
S'DAAPPP'
tp289
F2
s(S'AP'
S'AAPPP'
tp290
F1
s(S'VP'
S'VDDDDP'
tp291
F2
s(S'DP'
S'DAAANP'
tp292
F1
s(S'DP'
p293
S'DADVANP'
tp294
F1
s(S'VP'
S'VVAAP'
tp295
F5
s(S'VP'
S'VAAPP'
tp296
F1
s(S'CP'
S'CCCCADVADVADVDDP'
tp297
F1
s(S'DP'
p298
S'ADVDNP'
tp299
F9
s(g71
S'VVPP'
tp300
F31
s(S'VP'
S'VADVAPP'
tp301
F1
s(S'CP'
S'CCADDP'
tp302
F2
s(S'MP'
S'MMMDP'
tp303
F1
s(S'DP'
S'DDDADVNP'
tp304
F1
s(S'CP'
S'AACDDP'
tp305
F2
s(S'MP'
S'MVPP'
tp306
F13
s(S'DP'
S'ADVP'
tp307
F11
s(S'CP'
S'CDDPPP'
tp308
F20
s(S'CP'
S'CDDAAPPP'
tp309
F1
s(S'NP'
S'NNPP'
tp310
F24
s(S'DP'
p311
S'DDDDNP'
tp312
F2
s(S'MP'
S'MVVDP'
tp313
F2
s(S'AP'
p314
S'AACP'
tp315
F14
s(S'NP'
S'ANVP'
tp316
F20
s(S'DP'
p317
S'DNNNP'
tp318
F9
s(S'MP'
S'MPPDP'
tp319
F1
s(S'DP'
S'ADVDDVP'
tp320
F1
s(S'PP'
S'PADVADVVP'
tp321
F3
s(S'VP'
S'VADVDDP'
tp322
F1
s(S'VP'
S'ADVVCP'
tp323
F3
s(g94
S'PVVVP'
tp324
F8
s(S'PP'
p325
S'PMP'
tp326
F13
s(g207
S'NNMMP'
tp327
F2
s(g29
S'CCDP'
tp328
F105
s(g59
S'AADCP'
tp329
F1
s(S'MP'
S'AMVP'
tp330
F1
s(S'PP'
S'PPNNNP'
tp331
F1
s(S'DP'
S'AADDPP'
tp332
F2
s(S'AP'
p333
S'AAACP'
tp334
F1
s(S'NP'
S'NVVVP'
tp335
F6
s(S'CP'
S'CDDDPP'
tp336
F8
s(S'CP'
p337
S'CDAAPP'
tp338
F7
s(g147
S'ADVADVVVVP'
tp339
F1
s(S'VP'
S'VVVDP'
tp340
F8
s(S'PP'
S'PNNNP'
tp341
F7
s(S'CP'
p342
S'CCCCDP'
tp343
F1
s(S'VP'
S'VADVPPP'
tp344
F1
s(S'DP'
S'DAAAAANP'
tp345
F1
s(S'AP'
S'AACCP'
tp346
F1
s(g325
S'AAPNP'
tp347
F2
s(g239
S'AVDDP'
tp348
F1
s(S'VP'
p349
S'ADVVVDP'
tp350
F1
s(g21
S'PPP'
tp351
F148
s(S'NP'
S'NAVP'
tp352
F18
s(S'DP'
S'ADVADVDDNP'
tp353
F1
s(S'DP'
S'DDNNNP'
tp354
F3
s(g271
S'ADVDVP'
tp355
F6
s(S'DP'
p356
S'DAP'
tp357
F43
s(S'NP'
p358
S'NCCCP'
tp359
F4
s(S'AP'
S'AADVVP'
tp360
F1
s(S'PP'
S'PPPPDP'
tp361
F2
s(S'DP'
S'DAAAP'
tp362
F1
s(S'DP'
S'ADVADVDNP'
tp363
F2
s(S'VP'
p364
S'VPP'
tp365
F150
s(S'VP'
S'VADVANNP'
tp366
F1
s(S'CP'
S'ADVCCDP'
tp367
F1
s(S'DP'
S'ADVDDPPP'
tp368
F1
s(S'AP'
S'AAAACP'
tp369
F1
s(S'NP'
S'AANPPP'
tp370
F1
s(S'NP'
p371
S'NNNCP'
tp372
F7
s(S'PP'
p373
S'PADVDP'
tp374
F6
s(S'DP'
p375
S'DANNP'
tp376
F4
s(S'CP'
S'CDDPP'
tp377
F85
s(g298
S'DAAPP'
tp378
F8
s(g21
S'PVVP'
tp379
F71
s(S'CP'
S'CADPPP'
tp380
F8
s(g298
S'DADVPPP'
tp381
F4
s(S'PP'
S'PMMP'
tp382
F1
s(g56
S'ADVPPAP'
tp383
F1
s(S'VP'
p384
S'VPPP'
tp385
F20
s(S'VP'
S'AVCCP'
tp386
F2
s(S'VP'
S'VVPPP'
tp387
F3
s(S'VP'
S'ADVADVADVVPPP'
tp388
F1
s(S'PP'
S'PPAP'
tp389
F18
s(g281
S'DVVP'
tp390
F46
s(S'PP'
S'PADVAVP'
tp391
F1
s(S'NP'
p392
S'ANMP'
tp393
F4
s(S'AP'
S'APPP'
tp394
F7
s(S'PP'
S'ADVPPP'
tp395
F5
s(S'NP'
S'ADVADVNVP'
tp396
F3
s(S'VP'
p397
S'VVVP'
tp398
F22
s(S'CP'
S'CADVDPP'
tp399
F20
s(S'NP'
S'ADVADVNNVP'
tp400
F1
s(S'NP'
p401
S'ANCP'
tp402
F24
s(S'DP'
p403
S'DCP'
tp404
F20
s(S'DP'
S'DVVVP'
tp405
F7
s(S'DP'
S'DDDNNP'
tp406
F1
s(S'VP'
S'ADVVVVP'
tp407
F1
s(S'PP'
S'PPADVPP'
tp408
F1
s(S'DP'
p409
S'DDDP'
tp410
F17
s(S'DP'
S'DDADVPP'
tp411
F10
s(g4
S'MVVVVNP'
tp412
F1
s(S'MP'
S'MAADP'
tp413
F1
s(S'NP'
S'ANVVP'
tp414
F2
s(g364
S'VVDP'
tp415
F57
s(g89
S'NPPP'
tp416
F27
s(g217
S'PPAPP'
tp417
F2
s(g232
S'DADVACP'
tp418
F1
s(g8
S'DAVP'
tp419
F13
s(S'AP'
p420
S'ACP'
tp421
F51
s(S'VP'
p422
S'AVVVVP'
tp423
F1
s(S'PP'
p424
S'AAPAP'
tp425
F1
s(S'PP'
S'PADVADVNNP'
tp426
F1
s(g373
S'PPNP'
tp427
F71
s(S'AP'
S'ADVACCP'
tp428
F1
s(S'DP'
S'ADVDAPP'
tp429
F1
s(S'DP'
S'AADVP'
tp430
F2
s(S'PP'
S'AAPADVADVNP'
tp431
F1
s(S'CP'
p432
S'CADAAAPPP'
tp433
F1
s(S'CP'
p434
S'CDDADVPP'
tp435
F4
s(S'CP'
S'CCCDDP'
tp436
F1
s(g420
S'ADP'
tp437
F225
s(S'DP'
S'DADVADVADVVP'
tp438
F1
s(S'PP'
S'APMP'
tp439
F1
s(S'DP'
S'DDPPPP'
tp440
F4
s(g255
S'ANPPP'
tp441
F3
s(S'NP'
S'AAANNCP'
tp442
F1
s(S'PP'
S'ADVPAAVP'
tp443
F1
s(S'DP'
S'DVVVVP'
tp444
F2
s(S'VP'
S'VVPPPP'
tp445
F1
s(S'VP'
S'AAAVDP'
tp446
F1
s(S'VP'
S'ADVADVVNNP'
tp447
F1
s(S'VP'
S'AVDP'
tp448
F23
s(S'NP'
p449
S'ANNVP'
tp450
F3
s(S'VP'
S'VVAP'
tp451
F21
s(S'CP'
S'ADVACDP'
tp452
F3
s(g19
S'AAVCP'
tp453
F2
s(g111
S'NPP'
tp454
F181
s(S'NP'
S'NNNP'
tp455
F1
s(g137
S'NVP'
tp456
F240
s(g243
S'PPVVVP'
tp457
F1
s(S'PP'
p458
S'PAAVP'
tp459
F4
s(S'PP'
p460
S'AAPPNP'
tp461
F1
s(g194
S'NAAPP'
tp462
F1
s(g223
S'ADVANDDP'
tp463
F1
s(S'VP'
S'VDDP'
tp464
F55
s(S'DP'
S'DADVADVPP'
tp465
F1
s(S'NP'
S'ANPP'
tp466
F18
s(S'PP'
S'ADVPPDP'
tp467
F2
s(S'PP'
S'PPPPP'
tp468
F8
s(S'MP'
S'MPDP'
tp469
F3
s(g179
S'ADVADVPDP'
tp470
F2
s(S'NP'
S'NADVADVADVADVADVAVP'
tp471
F1
s(S'MP'
p472
S'MAACADVDDP'
tp473
F1
s(S'DP'
S'ADVDPP'
tp474
F25
s(S'DP'
p475
S'DDDDDP'
tp476
F2
s(g152
S'NPPPP'
tp477
F1
s(g298
S'ADDP'
tp478
F2
s(S'CP'
S'CAADPP'
tp479
F2
s(S'DP'
S'DADVADVVP'
tp480
F1
s(S'NP'
p481
S'NAACP'
tp482
F4
s(g230
S'PNNP'
tp483
F76
s(S'PP'
p484
S'APNNP'
tp485
F1
s(S'DP'
S'DAAVVP'
tp486
F1
s(g59
S'DDAAP'
tp487
F1
s(S'MP'
S'MNNVVP'
tp488
F1
s(S'MP'
S'MMVP'
tp489
F9
s(g63
S'PADVDDP'
tp490
F2
s(g230
S'PCCP'
tp491
F1
s(S'DP'
p492
S'ADPP'
tp493
F34
s(S'VP'
S'VAPPP'
tp494
F2
s(S'CP'
p495
S'ACDP'
tp496
F32
s(g137
S'NNDP'
tp497
F29
s(S'NP'
S'ANADVADVVVP'
tp498
F1
s(S'NP'
S'NNACP'
tp499
F4
s(g311
S'AAADPPP'
tp500
F1
s(g337
S'CDADVPPP'
tp501
F1
s(g71
S'VAP'
tp502
F115
s(g16
S'VVVVNP'
tp503
F2
s(S'DP'
S'DDDPP'
tp504
F13
s(S'PP'
S'PPPNNP'
tp505
F2
s(g198
S'PAAPP'
tp506
F1
s(S'VP'
S'VVPPPPP'
tp507
F1
s(S'MP'
S'MNMP'
tp508
F1
s(S'DP'
p509
S'DDDPPP'
tp510
F2
s(S'VP'
S'ADVAVDP'
tp511
F1
s(S'DP'
S'ADAP'
tp512
F1
s(S'DP'
S'DADVDP'
tp513
F2
s(S'VP'
S'VVADVADVCCP'
tp514
F1
s(g236
S'DDDAP'
tp515
F1
s(S'CP'
S'AACADVDDP'
tp516
F1
s(S'AP'
S'AVVP'
tp517
F5
s(S'PP'
S'PPPVP'
tp518
F5
s(S'AP'
S'AADDP'
tp519
F14
s(S'VP'
S'VAANP'
tp520
F3
s(g358
S'NADVADVCP'
tp521
F3
s(S'DP'
S'AADADVVP'
tp522
F1
s(S'NP'
p523
S'NVVVVP'
tp524
F2
s(S'MP'
S'AMVVP'
tp525
F1
s(S'MP'
S'MPNP'
tp526
F1
s(g384
S'VVAADP'
tp527
F1
s(S'MP'
S'MADP'
tp528
F1
s(S'NP'
p529
S'NNNDDP'
tp530
F1
s(S'AP'
S'AMMP'
tp531
F1
s(S'DP'
S'DDADVNP'
tp532
F3
s(g94
S'PANP'
tp533
F21
s(S'DP'
S'AADNP'
tp534
F1
s(g481
S'ANNMP'
tp535
F1
s(S'NP'
S'NADVDDP'
tp536
F1
s(S'AP'
S'AAVP'
tp537
F3
s(g371
S'NAAP'
tp538
F22
s(S'NP'
S'NDDP'
tp539
F28
s(S'AP'
S'ACCP'
tp540
F7
s(S'NP'
S'NNVVVP'
tp541
F1
s(S'VP'
S'AVPPP'
tp542
F3
s(S'AP'
S'APPPP'
tp543
F2
s(g111
S'NDP'
tp544
F136
s(S'NP'
p545
S'AAANVP'
tp546
F2
s(g403
S'DDVP'
tp547
F51
s(S'NP'
S'AANVP'
tp548
F1
s(g422
S'ADVVVNNP'
tp549
F1
s(S'DP'
p550
S'ADDVP'
tp551
F1
s(S'VP'
S'VNNNP'
tp552
F4
s(S'VP'
S'VADVADVPP'
tp553
F1
s(S'PP'
S'ADVPAP'
tp554
F1
s(S'PP'
S'PPPPVVP'
tp555
F1
s(S'PP'
S'PCP'
tp556
F14
s(S'NP'
S'NNPPP'
tp557
F6
s(S'PP'
S'PAADP'
tp558
F3
s(g278
S'ADVNNVP'
tp559
F1
s(g523
S'NADVCCP'
tp560
F1
s(g213
S'VPPPP'
tp561
F3
s(S'PP'
S'PACP'
tp562
F1
s(S'MP'
S'MAVNNP'
tp563
F1
s(S'AP'
S'ADVACP'
tp564
F4
s(S'NP'
S'ADVADVNMP'
tp565
F1
s(S'VP'
p566
S'AVVDP'
tp567
F1
s(g59
S'ADPPP'
tp568
F10
s(g121
S'MVCP'
tp569
F9
s(g495
S'CCDDP'
tp570
F24
s(S'NP'
S'NNADVVP'
tp571
F2
s(S'MP'
S'MANP'
tp572
F1
s(g134
S'NNVVP'
tp573
F23
s(S'PP'
S'PPADVCP'
tp574
F1
s(S'NP'
S'NNNNVP'
tp575
F1
s(S'VP'
p576
S'VVCP'
tp577
F26
s(g458
S'PADVADVPP'
tp578
F2
s(S'NP'
S'AANCP'
tp579
F9
s(g397
S'VADVNP'
tp580
F15
s(S'VP'
S'VVDDDP'
tp581
F1
s(S'NP'
p582
S'NNDDP'
tp583
F5
s(S'VP'
S'ADVVPP'
tp584
F7
s(g342
S'CDAPPP'
tp585
F2
s(g263
S'VNNP'
tp586
F50
s(S'AP'
S'AADVDP'
tp587
F3
s(S'NP'
S'NADP'
tp588
F6
s(g356
S'DDNP'
tp589
F82
s(S'NP'
S'NADVCP'
tp590
F7
s(S'DP'
S'DDNNP'
tp591
F17
s(S'VP'
S'AAVVPP'
tp592
F1
s(g273
S'AAPPP'
tp593
F4
s(g134
S'ADVANVP'
tp594
F1
s(S'NP'
p595
S'ADVNAAP'
tp596
F1
s(S'AP'
S'AADVADP'
tp597
F1
s(S'NP'
p598
S'ADVADVNCP'
tp599
F2
s(g293
S'AADPP'
tp600
F2
s(S'VP'
S'VVVAAP'
tp601
F1
s(S'VP'
p602
S'VADVAVP'
tp603
F1
s(S'VP'
S'VVVVCP'
tp604
F1
s(g16
S'VVMMP'
tp605
F1
s(S'CP'
S'CDPPPPP'
tp606
F3
s(S'MP'
S'MPPAP'
tp607
F1
s(g595
S'ANVVVP'
tp608
F1
s(g210
S'NADVADVCCP'
tp609
F1
s(S'MP'
S'MVVNP'
tp610
F1
s(S'CP'
S'ACDDP'
tp611
F3
s(S'MP'
S'MVDDDDP'
tp612
F1
s(S'AP'
S'AAPP'
tp613
F10
s(g164
S'VVCCP'
tp614
F2
s(S'VP'
S'ADVADVVVAAP'
tp615
F1
s(S'PP'
S'APPNP'
tp616
F2
s(g181
S'DADVADVNP'
tp617
F2
s(S'NP'
S'AAAAANPP'
tp618
F1
s(S'VP'
p619
S'VVVCCP'
tp620
F1
s(g582
S'NAPP'
tp621
F7
s(S'NP'
S'NADVDP'
tp622
F1
s(g116
S'VVVCP'
tp623
F5
s(S'VP'
S'ADVADVADVVAP'
tp624
F1
s(S'NP'
S'ANCCP'
tp625
F6
s(g449
S'AANPP'
tp626
F3
s(S'VP'
S'VDDDP'
tp627
F2
s(g392
S'NNMP'
tp628
F10
s(S'DP'
S'DDDVP'
tp629
F4
s(g239
S'AAVPP'
tp630
F2
s(S'MP'
S'MCCDDP'
tp631
F1
s(g56
S'PAAAP'
tp632
F3
s(S'PP'
S'ADVADVPNP'
tp633
F2
s(g69
S'CDDAPP'
tp634
F1
s(g595
S'ANAP'
tp635
F2
s(S'MP'
S'MVAP'
tp636
F5
s(g21
S'PVP'
tp637
F215
s(g179
S'ADVPADVVVP'
tp638
F1
s(S'AP'
S'ADVADVAPP'
tp639
F1
s(g74
S'ANNCP'
tp640
F2
s(g566
S'ADVADVADVADVADVAVPPP'
tp641
F1
s(S'PP'
S'PADVAP'
tp642
F1
s(S'NP'
S'ADVADVANVP'
tp643
F1
s(S'PP'
S'PPDDP'
tp644
F15
s(S'VP'
S'AVCP'
tp645
F4
s(S'DP'
S'DDVVVP'
tp646
F1
s(g25
S'DPP'
tp647
F291
s(S'NP'
S'ADVNVP'
tp648
F8
s(g492
S'DDPP'
tp649
F124
s(g288
S'DDADVPPP'
tp650
F1
s(g550
S'DDAVP'
tp651
F1
s(g409
S'DANP'
tp652
F38
s(S'NP'
S'NADVPP'
tp653
F3
s(S'NP'
S'NNADVADVPP'
tp654
F1
s(g598
S'ADVNVVVP'
tp655
F1
s(S'MP'
S'MANNVP'
tp656
F1
s(S'MP'
S'MMAP'
tp657
F1
s(g109
S'AAPPVP'
tp658
F1
s(S'NP'
S'NAAVP'
tp659
F3
s(g325
S'PDDDP'
tp660
F7
s(S'VP'
S'ADVVVNNNP'
tp661
F1
s(S'VP'
S'VADVCP'
tp662
F5
s(S'NP'
S'NNNNCP'
tp663
F1
s(g107
S'MDNP'
tp664
F4
s(S'NP'
S'NNAACP'
tp665
F1
s(S'MP'
S'MNAVP'
tp666
F1
s(S'DP'
S'ADDPPP'
tp667
F1
s(g67
S'NNNVVP'
tp668
F2
s(g85
S'PADVPPP'
tp669
F1
s(g236
S'DCCP'
tp670
F1
s(S'PP'
S'AAPDP'
tp671
F2
s(g317
S'ADVADPP'
tp672
F1
s(g47
S'PDDP'
tp673
F57
s(S'MP'
S'MVDDP'
tp674
F3
s(S'PP'
p675
S'ADVAPNP'
tp676
F1
s(S'NP'
S'NNNADVVP'
tp677
F1
s(g89
S'NNVP'
tp678
F77
s(S'PP'
S'APPPPP'
tp679
F1
s(g174
S'APAAP'
tp680
F1
s(S'NP'
S'NNP'
tp681
F2
s(g246
S'VVDDP'
tp682
F17
s(S'DP'
S'DAANP'
tp683
F6
s(g529
S'AANCCCP'
tp684
F1
s(g204
S'ADDP'
tp685
F31
s(S'VP'
S'ADVADVADVVNNP'
tp686
F1
s(S'PP'
S'PNNNNP'
tp687
F1
s(g273
S'ADVPPNP'
tp688
F2
s(S'CP'
S'CADVADVDPP'
tp689
F5
s(S'CP'
S'ADVADVADVCDP'
tp690
F2
s(g99
S'DPPP'
tp691
F117
s(S'DP'
S'DAVVP'
tp692
F2
s(S'DP'
S'AADPPP'
tp693
F3
s(S'AP'
S'AAAP'
tp694
F1
s(g619
S'AVVCP'
tp695
F1
s(S'NP'
S'NMMMP'
tp696
F2
s(g375
S'ADAAAPPP'
tp697
F1
s(g424
S'ADVPNP'
tp698
F7
s(g44
S'PPDP'
tp699
F58
s(g107
S'MAVDP'
tp700
F2
s(S'NP'
S'ANAPPP'
tp701
F1
s(S'NP'
S'NNAAACP'
tp702
F1
s(g371
S'AAANMP'
tp703
F1
s(g36
S'DDCP'
tp704
F2
s(S'AP'
S'ADVADVAADP'
tp705
F1
s(g137
S'NAP'
tp706
F88
s(S'NP'
S'NNAAP'
tp707
F1
s(g576
S'VAAAP'
tp708
F3
s(g602
S'ADVAVNP'
tp709
F1
s(S'VP'
S'VVP'
tp710
F57
s(S'VP'
S'VVVDDDP'
tp711
F1
s(g509
S'DDAPP'
tp712
F2
s(g458
S'ADVADVPVP'
tp713
F3
s(S'AP'
S'AAADP'
tp714
F4
s(g250
S'APNP'
tp715
F11
s(S'VP'
S'VVVNNP'
tp716
F1
s(g52
S'DDVVP'
tp717
F13
s(S'AP'
S'AAADDP'
tp718
F1
s(g71
S'VVVNP'
tp719
F7
s(S'NP'
S'NAMP'
tp720
F2
s(S'MP'
S'MVNNP'
tp721
F2
s(S'CP'
S'CDPP'
tp722
F264
s(S'CP'
S'AAACDP'
tp723
F1
s(S'AP'
S'ADDDP'
tp724
F2
s(S'MP'
S'MVADVPP'
tp725
F1
s(g143
S'NNADVADVVVP'
tp726
F1
s(S'DP'
S'ADVDVVP'
tp727
F2
s(S'MP'
S'MMMVP'
tp728
F1
s(S'DP'
S'DCCCP'
tp729
F1
s(g432
S'ADVCDP'
tp730
F15
s(S'PP'
S'AAPVVP'
tp731
F1
s(g101
S'ADVADVVNP'
tp732
F4
s(g170
S'NADVADVADVCP'
tp733
F2
s(S'PP'
S'PADVADVDP'
tp734
F1
s(g132
S'PPNNP'
tp735
F15
s(g125
S'ADVPAVP'
tp736
F1
s(g94
S'PPMP'
tp737
F2
s(S'CP'
S'CAADDPP'
tp738
F1
s(S'DP'
S'ADVADVDPP'
tp739
F6
s(g364
S'VDP'
tp740
F243
s(S'NP'
S'NADVAP'
tp741
F3
s(S'AP'
S'ADVAAAP'
tp742
F1
s(S'CP'
S'ADVADVCDDP'
tp743
F2
s(S'AP'
S'AMMMP'
tp744
F1
s(S'CP'
S'CADPP'
tp745
F19
s(g675
S'PPAVP'
tp746
F1
s(S'PP'
S'APADVADVPP'
tp747
F1
s(S'PP'
p748
S'PPDDDP'
tp749
F2
s(g33
S'AVPP'
tp750
F8
s(S'CP'
S'CAADPPP'
tp751
F2
s(S'VP'
S'VVADVDP'
tp752
F1
s(S'PP'
p753
S'PAVVP'
tp754
F1
s(S'CP'
S'CDPPPP'
tp755
F5
s(S'MP'
S'MDAANP'
tp756
F1
s(S'VP'
S'AAVDP'
tp757
F1
s(S'DP'
S'AADNNP'
tp758
F2
s(S'PP'
S'PANNP'
tp759
F1
s(S'NP'
S'ADVANMP'
tp760
F1
s(S'PP'
S'APPP'
tp761
F5
s(S'DP'
S'DAPPP'
tp762
F3
s(g333
S'AAADVDP'
tp763
F2
s(S'DP'
p764
S'DMP'
tp765
F3
s(S'PP'
S'PPPNP'
tp766
F7
s(g166
S'PPAANP'
tp767
F3
s(S'PP'
S'PADVADVNP'
tp768
F2
s(g31
S'ADVADVADVDDPP'
tp769
F1
s(S'AP'
S'AADP'
tp770
F56
s(g246
S'VADVPP'
tp771
F4
s(g475
S'DDAAPP'
tp772
F2
s(S'CP'
S'CCADVDDP'
tp773
F1
s(g484
S'ADVPVP'
tp774
F11
s(S'DP'
S'DDDDPP'
tp775
F3
s(S'NP'
S'NNDDDP'
tp776
F1
s(g149
S'ADVVANP'
tp777
F1
s(S'PP'
S'ADVPDP'
tp778
F7
s(g210
S'ADVNNPP'
tp779
F1
s(g174
S'PPDDDDP'
tp780
F1
s(g111
S'NCP'
tp781
F236
s(g434
S'CADVDPPP'
tp782
F3
s(g753
S'PPPAPP'
tp783
F1
s(g8
S'ADVVP'
tp784
F1
s(S'VP'
p785
S'VAADP'
tp786
F1
s(S'VP'
S'AAVVDP'
tp787
F1
s(g158
S'MADVVPP'
tp788
F1
s(g401
S'NNCCP'
tp789
F21
s(S'MP'
S'MNVP'
tp790
F7
s(S'NP'
S'AANAP'
tp791
F1
s(S'CP'
S'ADVADVCCDP'
tp792
F2
s(g472
S'MNAPP'
tp793
F1
s(g748
S'PADVADVAP'
tp794
F1
s(S'VP'
S'VAPP'
tp795
F4
s(S'NP'
S'NPPPPP'
tp796
F1
s(S'VP'
S'ADVVDP'
tp797
F21
s(g764
S'DADVPP'
tp798
F18
s(g314
S'AMP'
tp799
F4
s(S'CP'
S'CCADP'
tp800
F5
s(g545
S'NNNPPP'
tp801
F1
s(S'AP'
S'ADVAPP'
tp802
F2
s(S'CP'
S'AACDP'
tp803
F4
s(g401
S'NNNCCP'
tp804
F4
s(S'CP'
S'CCDDDP'
tp805
F1
s(g356
S'ADVDPPP'
tp806
F8
s(g25
S'DVP'
tp807
F222
s(g785
S'AVNNP'
tp808
F3
s(S'NP'
S'ADVNPP'
tp809
F5
s(S'NP'
S'NNCCCP'
tp810
F2
s(g179
S'PADVADVDDP'
tp811
F1
s(g204
S'AVP'
tp812
F25
s(S'NP'
S'NADVVP'
tp813
F12
s(g403
S'DDPPP'
tp814
F31
s(S'NP'
S'ADVNMP'
tp815
F1
s(S'NP'
S'NNAP'
tp816
F4
s(S'MP'
S'MADVVCP'
tp817
F1
s(g56
S'PPANP'
tp818
F1
s(S'MP'
S'MCDDP'
tp819
F1
s(g263
S'AAAVNP'
tp820
F1
s(g349
S'VVADVADVDP'
tp821
F1
s(S'CP'
S'CDADVPP'
tp822
F9
s(g364
S'VNP'
tp823
F217
s(g576
S'VANP'
tp824
F20
s(S'VP'
S'VADVAP'
tp825
F6
s(g460
S'PPADVNP'
tp826
F2
s.