ccollections
defaultdict
p1
(c__builtin__
float
p2
tRp3
(S'DP'
S'DDMP'
tp4
F1
s(S'DP'
S'ADDPP'
tp5
F1
s(S'DP'
S'DDAP'
tp6
F1
s(S'VP'
p7
S'ADVVVNP'
tp8
F4
s(S'PP'
p9
S'PAPP'
tp10
F5
s(S'DP'
p11
S'DDPPPPP'
tp12
F1
s(S'DP'
p13
S'DNP'
tp14
F101
s(S'VP'
p15
S'VVADVCP'
tp16
F1
s(S'PP'
p17
S'AAPDDP'
tp18
F1
s(S'CP'
S'CDPPP'
tp19
F32
s(S'VP'
S'VADP'
tp20
F4
s(S'CP'
S'CDAAPPP'
tp21
F1
s(S'DP'
p22
S'DAAP'
tp23
F2
s(S'PP'
p24
S'PPPPPP'
tp25
F1
s(S'CP'
S'CADVADVDPPP'
tp26
F1
s(S'VP'
S'VADVVVP'
tp27
F1
s(S'PP'
S'PADVADVCP'
tp28
F1
s(S'VP'
S'ADVVNP'
tp29
F5
s(S'MP'
S'MVDP'
tp30
F5
s(S'NP'
S'AANNPP'
tp31
F2
s(S'PP'
p32
S'PPPP'
tp33
F16
s(S'DP'
S'DDDNP'
tp34
F3
s(S'DP'
p35
S'DADVVP'
tp36
F5
s(S'PP'
p37
S'PADVNNP'
tp38
F1
s(S'NP'
p39
S'NCCCP'
tp40
F2
s(S'VP'
p41
S'VCP'
tp42
F37
s(S'NP'
p43
S'NMMP'
tp44
F2
s(S'NP'
S'NANP'
tp45
F2
s(S'VP'
p46
S'ADVVCCP'
tp47
F2
s(S'PP'
S'PAP'
tp48
F44
s(S'VP'
p49
S'VADVADVAP'
tp50
F1
s(S'PP'
p51
S'ADVPPVP'
tp52
F1
s(S'CP'
S'AAAACDP'
tp53
F1
s(S'PP'
S'APVVP'
tp54
F1
s(g32
S'PPADVDP'
tp55
F1
s(S'CP'
p56
S'CADPPPP'
tp57
F1
s(S'PP'
p58
S'PNP'
tp59
F95
s(S'DP'
S'DDP'
tp60
F19
s(S'VP'
S'ADVVDDP'
tp61
F1
s(S'NP'
S'NNNPP'
tp62
F1
s(S'PP'
p63
S'PAAP'
tp64
F7
s(S'MP'
p65
S'MCDP'
tp66
F1
s(S'MP'
p67
S'AMPP'
tp68
F1
s(S'NP'
p69
S'NMP'
tp70
F28
s(S'DP'
p71
S'ADCP'
tp72
F1
s(S'DP'
S'ADVDPPPP'
tp73
F1
s(g58
S'PDP'
tp74
F94
s(S'PP'
S'PADVNP'
tp75
F1
s(S'CP'
S'CCADVADVDP'
tp76
F1
s(S'PP'
p77
S'PPADVVP'
tp78
F1
s(S'NP'
S'ADVNVVP'
tp79
F2
s(S'VP'
S'VNNNNP'
tp80
F1
s(S'AP'
S'ANP'
tp81
F2
s(S'PP'
S'PADVPP'
tp82
F3
s(S'NP'
S'NNADVCP'
tp83
F1
s(S'VP'
p84
S'VVADVNP'
tp85
F2
s(S'PP'
S'AAPPPP'
tp86
F1
s(S'DP'
S'DPPPP'
tp87
F4
s(S'DP'
p88
S'DDANP'
tp89
F2
s(S'NP'
S'NACP'
tp90
F7
s(g69
S'NCCP'
tp91
F23
s(S'VP'
S'AVADVNP'
tp92
F1
s(S'DP'
S'DADVADVVVP'
tp93
F1
s(S'NP'
S'NNCP'
tp94
F30
s(S'NP'
S'NADVADVVP'
tp95
F1
s(g88
S'DDDDP'
tp96
F1
s(S'VP'
S'AVNP'
tp97
F2
s(S'DP'
S'DDAAP'
tp98
F1
s(g32
S'ADVPVVP'
tp99
F2
s(g7
S'VVMP'
tp100
F1
s(S'VP'
p101
S'VADVVP'
tp102
F1
s(S'MP'
S'MVAPP'
tp103
F1
s(S'NP'
p104
S'ANADVVP'
tp105
F1
s(S'AP'
S'AAAAP'
tp106
F1
s(S'DP'
p107
S'DADVPPP'
tp108
F1
s(S'MP'
S'AMMVP'
tp109
F1
s(S'CP'
S'CCCDP'
tp110
F3
s(S'VP'
p111
S'ADVVAP'
tp112
F2
s(S'PP'
p113
S'APDP'
tp114
F7
s(g46
S'ADVVNNP'
tp115
F1
s(S'VP'
S'VVVVDP'
tp116
F1
s(S'MP'
S'MADVVNP'
tp117
F1
s(S'NP'
S'ADVANCP'
tp118
F1
s(S'DP'
S'DNNP'
tp119
F26
s(S'VP'
S'ADVVAANP'
tp120
F1
s(S'CP'
S'CDDPPPP'
tp121
F1
s(S'CP'
p122
S'CCADVDP'
tp123
F1
s(S'NP'
p124
S'NNNVP'
tp125
F3
s(S'PP'
p126
S'PPAAPP'
tp127
F1
s(S'NP'
S'NNAAAACP'
tp128
F1
s(S'PP'
S'AAPPDP'
tp129
F1
s(g37
S'PADVVP'
tp130
F1
s(S'DP'
S'DADVVVP'
tp131
F1
s(S'PP'
p132
S'APAP'
tp133
F2
s(S'AP'
p134
S'APP'
tp135
F13
s(S'AP'
p136
S'AAP'
tp137
F3
s(S'VP'
S'VVAPP'
tp138
F1
s(S'DP'
S'DAAAPP'
tp139
F3
s(S'NP'
S'ADVADVNCCP'
tp140
F1
s(S'VP'
S'VVVVPP'
tp141
F1
s(S'PP'
S'PAANP'
tp142
F1
s(S'VP'
p143
S'VADVADVCP'
tp144
F1
s(S'NP'
p145
S'ANVP'
tp146
F9
s(S'MP'
S'MVNP'
tp147
F9
s(S'AP'
S'AADVCCP'
tp148
F1
s(S'AP'
S'ADVAADP'
tp149
F1
s(g58
S'PAVP'
tp150
F3
s(S'PP'
p151
S'ADVAPNNP'
tp152
F1
s(S'PP'
p153
S'PPADVNNP'
tp154
F1
s(S'NP'
p155
S'ADVADVANDP'
tp156
F1
s(S'DP'
S'DADP'
tp157
F2
s(S'CP'
S'ADVADVCDP'
tp158
F3
s(S'DP'
S'ADVDDP'
tp159
F1
s(S'PP'
p160
S'APDDP'
tp161
F3
s(S'VP'
S'ADVADVVVNP'
tp162
F1
s(S'PP'
S'PPCP'
tp163
F2
s(g9
S'APVP'
tp164
F5
s(S'VP'
p165
S'VVNP'
tp166
F28
s(S'PP'
S'PPPNNP'
tp167
F1
s(S'PP'
p168
S'PPVP'
tp169
F12
s(S'MP'
S'MADVCADDP'
tp170
F1
s(S'VP'
p171
S'VADVDP'
tp172
F3
s(g171
S'VAAP'
tp173
F8
s(g63
S'PAMMP'
tp174
F1
s(S'NP'
S'ANDP'
tp175
F3
s(S'NP'
S'NVVP'
tp176
F28
s(S'CP'
S'ADVCADDP'
tp177
F1
s(g111
S'VMP'
tp178
F3
s(g171
S'VVNNP'
tp179
F6
s(S'CP'
S'CDAPP'
tp180
F6
s(S'VP'
S'VVAAP'
tp181
F3
s(S'CP'
S'CADVADPP'
tp182
F1
s(g71
S'ADNP'
tp183
F2
s(g126
S'PADP'
tp184
F4
s(S'DP'
S'DDAAAPP'
tp185
F1
s(S'NP'
p186
S'NNNCP'
tp187
F4
s(S'DP'
p188
S'DAPP'
tp189
F11
s(S'MP'
S'MPDDDP'
tp190
F2
s(g132
S'AAAPVP'
tp191
F1
s(S'DP'
S'DAAPPP'
tp192
F2
s(S'PP'
S'AAAPDP'
tp193
F1
s(g22
S'DAAANP'
tp194
F2
s(S'VP'
S'VAAPP'
tp195
F1
s(S'DP'
p196
S'ADVDNP'
tp197
F2
s(S'VP'
p198
S'VVPP'
tp199
F13
s(S'MP'
S'MVPP'
tp200
F1
s(S'DP'
p201
S'ADVP'
tp202
F3
s(S'CP'
S'CDDPPP'
tp203
F5
s(S'NP'
p204
S'NNPP'
tp205
F11
s(S'AP'
S'AACP'
tp206
F5
s(g113
S'PPVVP'
tp207
F5
s(S'DP'
p208
S'DNNNP'
tp209
F3
s(g9
S'PVVVP'
tp210
F2
s(g151
S'PMP'
tp211
F3
s(S'CP'
p212
S'CCDP'
tp213
F41
s(S'DP'
S'AADDPP'
tp214
F1
s(S'CP'
p215
S'CDDDPP'
tp216
F1
s(S'PP'
S'PADVADVADVADVNP'
tp217
F1
s(S'CP'
S'CDADVADVPP'
tp218
F2
s(S'VP'
S'VVVDP'
tp219
F1
s(S'PP'
S'PNNNP'
tp220
F4
s(S'VP'
S'VAAPPP'
tp221
F1
s(S'PP'
p222
S'AAPNP'
tp223
F3
s(S'PP'
p224
S'PPP'
tp225
F47
s(S'NP'
S'NAVP'
tp226
F6
s(S'CP'
S'CADVDPPPP'
tp227
F1
s(g71
S'ADVDVP'
tp228
F1
s(S'NP'
S'NAAAP'
tp229
F1
s(S'AP'
p230
S'AADVVP'
tp231
F1
s(g24
S'PPPPDP'
tp232
F1
s(S'DP'
p233
S'ADVADVDNP'
tp234
F1
s(S'VP'
S'VAAAAP'
tp235
F1
s(S'VP'
S'VPP'
tp236
F41
s(S'CP'
S'ADVCCDP'
tp237
F1
s(S'AP'
S'AAAACP'
tp238
F1
s(S'DP'
S'DDADVDP'
tp239
F1
s(g168
S'PADVDP'
tp240
F2
s(S'CP'
p241
S'CDADVAPP'
tp242
F1
s(g107
S'DANNP'
tp243
F1
s(S'PP'
S'PADVAAP'
tp244
F1
s(S'CP'
S'CDDPP'
tp245
F22
s(g11
S'DAAPP'
tp246
F4
s(g224
S'PVVP'
tp247
F19
s(S'VP'
S'VVVPPP'
tp248
F2
s(S'VP'
S'ADVVCP'
tp249
F2
s(S'MP'
S'MCCDP'
tp250
F1
s(S'VP'
S'VPPP'
tp251
F11
s(S'VP'
S'AVCCP'
tp252
F1
s(S'PP'
p253
S'APCCP'
tp254
F1
s(g143
S'VVPPP'
tp255
F2
s(S'PP'
S'PPAP'
tp256
F8
s(g196
S'DVVP'
tp257
F22
s(S'NP'
S'ANMP'
tp258
F2
s(S'PP'
S'ADVPPP'
tp259
F1
s(g15
S'VVVP'
tp260
F6
s(S'DP'
S'DDPPPP'
tp261
F1
s(S'NP'
S'ADVADVNNVP'
tp262
F1
s(S'PP'
S'PPDDDP'
tp263
F1
s(S'NP'
S'ANCP'
tp264
F13
s(S'DP'
p265
S'DCP'
tp266
F8
s(S'DP'
p267
S'DVVVP'
tp268
F3
s(S'NP'
S'AAANCP'
tp269
F1
s(g88
S'DDDP'
tp270
F5
s(S'DP'
S'DDADVPP'
tp271
F1
s(S'NP'
S'ANVVP'
tp272
F2
s(S'VP'
p273
S'VVDP'
tp274
F27
s(g69
S'NPPP'
tp275
F10
s(S'DP'
p276
S'DAVP'
tp277
F4
s(g134
S'ACP'
tp278
F8
s(g58
S'PPNP'
tp279
F25
s(S'VP'
S'VAANNP'
tp280
F1
s(S'CP'
S'CDDADVPP'
tp281
F1
s(S'CP'
S'CCCDDP'
tp282
F1
s(S'AP'
S'ADP'
tp283
F86
s(S'MP'
S'MMADVACP'
tp284
F1
s(S'CP'
S'CADVDPP'
tp285
F6
s(S'DP'
S'AAAADPP'
tp286
F1
s(S'NP'
S'ADVADVADVADVNVP'
tp287
F1
s(S'DP'
S'DVVVVP'
tp288
F1
s(S'AP'
S'AAADP'
tp289
F3
s(S'NP'
S'ANNVP'
tp290
F1
s(S'VP'
S'VVAP'
tp291
F9
s(g17
S'PADVADVDP'
tp292
F1
s(g69
S'NPP'
tp293
F72
s(S'PP'
p294
S'PPPPNP'
tp295
F1
s(g69
S'NVP'
tp296
F102
s(S'MP'
S'MADCP'
tp297
F1
s(S'PP'
p298
S'PPVVVP'
tp299
F1
s(g153
S'AAPPNP'
tp300
F1
s(S'NP'
S'NAAPP'
tp301
F3
s(g198
S'VDDP'
tp302
F14
s(S'NP'
S'AANVVP'
tp303
F1
s(g88
S'DADVAPP'
tp304
F1
s(S'PP'
S'AAAPNNP'
tp305
F1
s(g204
S'ANPP'
tp306
F6
s(g151
S'PPPPP'
tp307
F3
s(S'DP'
p308
S'ADVDPP'
tp309
F9
s(g201
S'DDDDDP'
tp310
F2
s(S'MP'
S'MVAANNP'
tp311
F1
s(g43
S'NPPPP'
tp312
F1
s(S'DP'
S'ADDP'
tp313
F2
s(S'NP'
S'NADVAAP'
tp314
F1
s(g104
S'ADVNADP'
tp315
F1
s(S'CP'
S'CAADPP'
tp316
F4
s(S'PP'
p317
S'PNNP'
tp318
F29
s(g49
S'VADVACP'
tp319
F1
s(S'PP'
S'APNNP'
tp320
F1
s(S'NP'
S'NNNAPP'
tp321
F1
s(g58
S'PCCP'
tp322
F2
s(S'AP'
p323
S'AADP'
tp324
F21
s(S'MP'
p325
S'MPDDP'
tp326
F1
s(S'CP'
S'ACDP'
tp327
F8
s(S'VP'
S'VCCP'
tp328
F9
s(S'AP'
S'ADVANP'
tp329
F1
s(g215
S'CDADVPPP'
tp330
F1
s(g41
S'VAP'
tp331
F40
s(S'MP'
S'MNVVP'
tp332
F1
s(g107
S'DDDPP'
tp333
F1
s(S'CP'
S'ADVCDDP'
tp334
F3
s(S'CP'
S'CDAAPP'
tp335
F1
s(S'VP'
S'VADVMP'
tp336
F1
s(S'AP'
S'AAVVP'
tp337
F1
s(S'NP'
S'NAAP'
tp338
F2
s(S'MP'
S'MANVP'
tp339
F1
s(g126
S'PPPVP'
tp340
F3
s(S'AP'
p341
S'AADDP'
tp342
F4
s(S'NP'
S'NADVADVCP'
tp343
F1
s(S'CP'
S'CCAADP'
tp344
F3
s(S'PP'
S'AAPCP'
tp345
F1
s(S'PP'
p346
S'PANP'
tp347
F12
s(S'DP'
S'AADNP'
tp348
F1
s(S'NP'
S'ANNMP'
tp349
F1
s(S'NP'
S'AANMP'
tp350
F1
s(S'AP'
S'AAVP'
tp351
F2
s(g134
S'AVVP'
tp352
F5
s(g186
S'NDDP'
tp353
F5
s(S'DP'
S'ADVADVDPPP'
tp354
F1
s(g39
S'ADVNCP'
tp355
F2
s(g201
S'DDDADVPP'
tp356
F1
s(S'NP'
S'NDP'
tp357
F38
s(S'NP'
p358
S'AAANVP'
tp359
F1
s(S'MP'
S'MVAAP'
tp360
F1
s(S'DP'
S'DDVP'
tp361
F23
s(g155
S'AANVP'
tp362
F3
s(g88
S'ADDVP'
tp363
F1
s(S'AP'
S'AADVADVADP'
tp364
F1
s(S'NP'
S'NNNNVVP'
tp365
F1
s(S'PP'
S'PCP'
tp366
F4
s(g39
S'NNPPP'
tp367
F2
s(g358
S'ADVNNVP'
tp368
F1
s(S'AP'
S'ADVACP'
tp369
F1
s(S'NP'
S'NNVP'
tp370
F27
s(S'MP'
S'MVCP'
tp371
F2
s(g212
S'CCDDP'
tp372
F9
s(S'NP'
S'NNADVVP'
tp373
F2
s(g49
S'VAADP'
tp374
F1
s(g124
S'NNVVP'
tp375
F9
s(g165
S'VVCP'
tp376
F10
s(g145
S'AANCP'
tp377
F4
s(S'VP'
p378
S'VADVNP'
tp379
F2
s(S'NP'
S'NNDDP'
tp380
F1
s(S'MP'
S'MNNPP'
tp381
F1
s(S'AP'
S'AAAADDP'
tp382
F1
s(S'CP'
S'CDAPPP'
tp383
F1
s(S'VP'
p384
S'VNNP'
tp385
F25
s(S'AP'
S'AADVDP'
tp386
F1
s(S'PP'
S'AAAPPP'
tp387
F2
s(S'DP'
S'DDNP'
tp388
F19
s(S'NP'
S'NADVCP'
tp389
F3
s(g35
S'DDNNP'
tp390
F5
s(g294
S'AAPPP'
tp391
F1
s(g358
S'ADVADVNCP'
tp392
F1
s(S'DP'
S'AADPP'
tp393
F7
s(S'MP'
S'MVVNP'
tp394
F2
s(S'MP'
S'MMVVVP'
tp395
F1
s(S'CP'
S'ACDDP'
tp396
F1
s(g230
S'AAPP'
tp397
F1
s(g378
S'VVCCP'
tp398
F3
s(S'PP'
p399
S'APPNP'
tp400
F1
s(g22
S'DADVADVNP'
tp401
F1
s(g126
S'ADVPANP'
tp402
F1
s(S'NP'
S'NAPP'
tp403
F3
s(S'AP'
S'ADVADVADP'
tp404
F1
s(g136
S'ADVAAVP'
tp405
F1
s(S'PP'
S'ADVPPPP'
tp406
F1
s(g204
S'ANCCP'
tp407
F5
s(g276
S'ADVADVADVVP'
tp408
F1
s(S'NP'
p409
S'NNMP'
tp410
F1
s(S'PP'
S'ADVPANNP'
tp411
F1
s(S'DP'
S'DDDVP'
tp412
F2
s(S'DP'
S'DDAANNP'
tp413
F1
s(S'PP'
S'PAAAP'
tp414
F1
s(S'PP'
p415
S'PPPAP'
tp416
F3
s(S'NP'
S'ADVANVVP'
tp417
F1
s(S'MP'
S'MVAP'
tp418
F1
s(g58
S'PVP'
tp419
F83
s(S'VP'
S'VVAAAAP'
tp420
F1
s(S'NP'
S'ANNCP'
tp421
F2
s(g298
S'PPDDP'
tp422
F4
s(S'VP'
S'AVCP'
tp423
F1
s(S'NP'
p424
S'NADVADVAP'
tp425
F1
s(g13
S'DPP'
tp426
F126
s(S'NP'
S'ADVNVP'
tp427
F2
s(g13
S'DDPP'
tp428
F34
s(g22
S'DDAVP'
tp429
F1
s(g188
S'DANP'
tp430
F10
s(g151
S'PDDDP'
tp431
F3
s(g84
S'VADVCP'
tp432
F2
s(S'NP'
S'NNNNCP'
tp433
F1
s(S'NP'
S'NNNVVP'
tp434
F2
s(g51
S'PADVPPP'
tp435
F1
s(g77
S'ADVADVPPP'
tp436
F2
s(g253
S'AAPDP'
tp437
F3
s(S'DP'
S'ADVADPP'
tp438
F1
s(g294
S'PDDP'
tp439
F18
s(S'DP'
S'ADPPP'
tp440
F1
s(g409
S'ADVNNCP'
tp441
F1
s(S'AP'
S'ADVADVACP'
tp442
F1
s(g41
S'AVDP'
tp443
F10
s(S'VP'
S'VVDDP'
tp444
F7
s(S'DP'
p445
S'DAANP'
tp446
F6
s(S'AP'
S'ADDP'
tp447
F19
s(S'PP'
S'PNNNNP'
tp448
F1
s(S'PP'
p449
S'ADVPPNP'
tp450
F1
s(S'CP'
S'CADVADVDPP'
tp451
F3
s(g308
S'DPPP'
tp452
F44
s(S'DP'
S'AADPPP'
tp453
F1
s(S'VP'
p454
S'VANNP'
tp455
F1
s(g323
S'AAAP'
tp456
F1
s(g424
S'NNAVP'
tp457
F1
s(S'NP'
p458
S'NNAAPP'
tp459
F1
s(S'DP'
S'DDADVADVNP'
tp460
F1
s(g399
S'ADVPNP'
tp461
F1
s(g317
S'PPDP'
tp462
F16
s(g233
S'DDADVANP'
tp463
F1
s(S'NP'
S'NAP'
tp464
F27
s(S'VP'
S'VAAAP'
tp465
F3
s(g384
S'VVP'
tp466
F25
s(S'DP'
S'DADVNP'
tp467
F3
s(g160
S'ADVADVPVP'
tp468
F1
s(g222
S'PADVADVANP'
tp469
F1
s(g346
S'APNP'
tp470
F5
s(g196
S'DDVVP'
tp471
F5
s(S'AP'
S'AAADDP'
tp472
F1
s(S'VP'
S'VVVNP'
tp473
F5
s(S'MP'
S'MVANP'
tp474
F1
s(g65
S'MVNNP'
tp475
F1
s(g212
S'CDPP'
tp476
F104
s(g67
S'MVVNNP'
tp477
F1
s(g341
S'ADDDP'
tp478
F2
s(S'NP'
S'NNDP'
tp479
F8
s(g241
S'ADVCDP'
tp480
F4
s(S'VP'
S'ADVADVVNP'
tp481
F1
s(g122
S'ADVACDP'
tp482
F2
s(g37
S'PPNNP'
tp483
F6
s(g415
S'ADVPAVP'
tp484
F1
s(S'CP'
S'CAADDPP'
tp485
F1
s(g265
S'ADVADVDPP'
tp486
F4
s(g41
S'VDP'
tp487
F94
s(g308
S'DAP'
tp488
F10
s(S'CP'
S'CADPP'
tp489
F11
s(g151
S'PPAVP'
tp490
F1
s(S'VP'
S'VVDDDDP'
tp491
F1
s(S'NP'
S'NNAAAPP'
tp492
F1
s(g454
S'AVPP'
tp493
F2
s(S'CP'
S'CAADPPP'
tp494
F1
s(g56
S'CDPPPP'
tp495
F3
s(S'DP'
S'ADPPPP'
tp496
F1
s(g445
S'DAPPP'
tp497
F1
s(g208
S'DADVADVPP'
tp498
F3
s(S'AP'
S'AADVADVVP'
tp499
F1
s(S'PP'
S'PPPNP'
tp500
F2
s(g24
S'PPAANP'
tp501
F1
s(S'DP'
S'ADPP'
tp502
F15
s(g49
S'VADVPP'
tp503
F1
s(S'VP'
S'VADVADVNNP'
tp504
F1
s(S'PP'
S'PVVVVP'
tp505
F1
s(g58
S'ADVPVP'
tp506
F3
s(S'AP'
S'AAADDDDP'
tp507
F1
s(g449
S'ADVPDP'
tp508
F2
s(g69
S'NCP'
tp509
F90
s(g458
S'ADVANDP'
tp510
F1
s(g267
S'ADVVP'
tp511
F3
s(g212
S'CDADVPP'
tp512
F4
s(S'NP'
S'NNCCP'
tp513
F7
s(S'MP'
S'MNVP'
tp514
F4
s(g43
S'AANCCP'
tp515
F2
s(S'VP'
S'VAPP'
tp516
F4
s(g273
S'ADVVDP'
tp517
F5
s(g13
S'DADVPP'
tp518
F7
s(S'PP'
S'AAPCCP'
tp519
F1
s(S'AP'
S'AMP'
tp520
F2
s(S'MP'
S'ADVMNP'
tp521
F1
s(S'MP'
S'MADVVDDP'
tp522
F1
s(g22
S'ADVDAP'
tp523
F1
s(S'AP'
S'ADVAPP'
tp524
F1
s(g13
S'DVP'
tp525
F85
s(S'VP'
S'AVNNP'
tp526
F1
s(S'NP'
S'ADVNPP'
tp527
F2
s(g101
S'VVAMP'
tp528
F1
s(S'NP'
S'NNCCCP'
tp529
F2
s(g134
S'AVP'
tp530
F11
s(S'NP'
S'NADVVP'
tp531
F1
s(S'CP'
S'CDAAAPP'
tp532
F1
s(S'CP'
S'CAAAADPP'
tp533
F1
s(g88
S'DDPPP'
tp534
F11
s(S'NP'
S'ADVNMP'
tp535
F1
s(S'NP'
S'NNAP'
tp536
F2
s(S'PP'
S'PPANP'
tp537
F1
s(g325
S'MCDDP'
tp538
F2
s(S'DP'
S'DDADVVVP'
tp539
F1
s(g41
S'VNP'
tp540
F91
s(S'VP'
S'VANP'
tp541
F10
s(S'VP'
S'VADVAP'
tp542
F2
s(g253
S'PPADVNP'
tp543
F1
s(S'DP'
S'DDDDVP'
tp544
F1
s.