ccollections
defaultdict
p1
(c__builtin__
float
p2
tRp3
(S'AP'
S'AADVPPP'
tp4
F1
s(S'DP'
S'DDAP'
tp5
F2
s(S'VP'
p6
S'ADVVVNP'
tp7
F1
s(S'PP'
p8
S'ADVADVADVPPVP'
tp9
F1
s(S'VP'
S'VVVVP'
tp10
F1
s(S'PP'
p11
S'PAPP'
tp12
F3
s(S'PP'
p13
S'PADVNP'
tp14
F1
s(S'DP'
p15
S'DNP'
tp16
F190
s(S'NP'
S'ADVADVNNVVP'
tp17
F1
s(S'CP'
S'CDPPP'
tp18
F27
s(S'VP'
S'VADP'
tp19
F12
s(S'DP'
p20
S'DAAP'
tp21
F2
s(S'DP'
S'ADNNP'
tp22
F2
s(S'PP'
S'APVP'
tp23
F9
s(S'MP'
p24
S'MVDP'
tp25
F12
s(S'PP'
S'PPPP'
tp26
F10
s(S'VP'
S'VACP'
tp27
F4
s(S'DP'
p28
S'DADVVP'
tp29
F4
s(S'PP'
S'PADVNNP'
tp30
F1
s(S'NP'
p31
S'NCCCP'
tp32
F1
s(S'VP'
p33
S'VCP'
tp34
F94
s(S'VP'
S'ADVVCCP'
tp35
F2
s(S'PP'
p36
S'PAP'
tp37
F54
s(S'MP'
S'MADVVCCP'
tp38
F1
s(S'NP'
S'ANNCCP'
tp39
F1
s(S'PP'
p40
S'ADVPPVP'
tp41
F1
s(S'PP'
S'APVVP'
tp42
F1
s(S'MP'
S'AMVP'
tp43
F2
s(S'PP'
p44
S'PNP'
tp45
F170
s(S'VP'
p46
S'VVADVADVNP'
tp47
F1
s(S'DP'
p48
S'DDP'
tp49
F24
s(S'VP'
p50
S'ADVVDDP'
tp51
F1
s(S'VP'
p52
S'VCCP'
tp53
F16
s(S'MP'
p54
S'MCDP'
tp55
F3
s(S'CP'
S'AACCDP'
tp56
F1
s(S'PP'
S'ADVADVPPDP'
tp57
F1
s(S'NP'
S'NMP'
tp58
F32
s(g6
S'AAVNP'
tp59
F1
s(g44
S'PDP'
tp60
F201
s(S'CP'
S'CDAAPP'
tp61
F2
s(S'NP'
p62
S'ADVNVVP'
tp63
F1
s(S'NP'
S'AANADVAP'
tp64
F1
s(S'DP'
S'DADVADVVP'
tp65
F2
s(S'AP'
S'ANP'
tp66
F3
s(S'PP'
S'ADVPAAP'
tp67
F1
s(S'PP'
p68
S'PADVPP'
tp69
F2
s(S'VP'
S'VVADVNP'
tp70
F1
s(S'NP'
S'ADVANCP'
tp71
F1
s(S'DP'
S'DPPPP'
tp72
F5
s(S'DP'
S'DDANP'
tp73
F2
s(g62
S'NACP'
tp74
F8
s(S'AP'
S'ADVAVP'
tp75
F1
s(S'NP'
p76
S'NCCP'
tp77
F32
s(S'DP'
p78
S'DADVADVVVP'
tp79
F1
s(S'AP'
p80
S'AAAADP'
tp81
F1
s(S'NP'
p82
S'NNCP'
tp83
F29
s(S'DP'
p84
S'ADVDDPP'
tp85
F1
s(S'DP'
S'DDAPP'
tp86
F2
s(g52
S'AVNP'
tp87
F6
s(S'NP'
S'ADVADVNADP'
tp88
F1
s(S'VP'
p89
S'VADVVP'
tp90
F2
s(S'PP'
S'ADVAPVP'
tp91
F1
s(S'AP'
S'AAAAP'
tp92
F1
s(S'CP'
p93
S'CCCDP'
tp94
F1
s(S'VP'
p95
S'ADVVAP'
tp96
F1
s(S'PP'
S'APDP'
tp97
F9
s(S'AP'
S'ADVAADVCP'
tp98
F1
s(S'AP'
S'AVVVVP'
tp99
F1
s(S'VP'
S'VVANP'
tp100
F1
s(S'VP'
p101
S'VVVVDP'
tp102
F1
s(S'VP'
S'ADVVVP'
tp103
F1
s(S'MP'
S'MADVVNP'
tp104
F1
s(S'NP'
S'NANP'
tp105
F3
s(S'DP'
S'DNNP'
tp106
F30
s(S'CP'
S'CADVDDPP'
tp107
F1
s(S'DP'
S'DPPPPP'
tp108
F1
s(S'CP'
S'CDDPPPP'
tp109
F1
s(S'CP'
S'CCADVDP'
tp110
F4
s(S'NP'
S'NNNVP'
tp111
F2
s(S'PP'
p112
S'PADVVP'
tp113
F2
s(S'DP'
p114
S'DACP'
tp115
F2
s(g48
S'DADVVVP'
tp116
F2
s(S'PP'
S'APAP'
tp117
F2
s(S'CP'
S'ADVADVCDP'
tp118
F1
s(S'NP'
p119
S'NAPPP'
tp120
F1
s(g119
S'NADVMP'
tp121
F1
s(S'AP'
S'AAP'
tp122
F4
s(S'CP'
S'CADVADPP'
tp123
F1
s(S'AP'
p124
S'AAADVDDP'
tp125
F2
s(S'MP'
S'MVVCP'
tp126
F2
s(g48
S'DAAVP'
tp127
F1
s(S'PP'
S'PAANP'
tp128
F1
s(S'NP'
p129
S'ANVP'
tp130
F18
s(S'MP'
S'MVNP'
tp131
F11
s(S'NP'
S'ANAAP'
tp132
F1
s(S'CP'
S'CDDDPPP'
tp133
F1
s(S'PP'
p134
S'PAVP'
tp135
F6
s(S'MP'
S'ADVMVP'
tp136
F1
s(S'VP'
S'VVVPP'
tp137
F2
s(g114
S'DADP'
tp138
F2
s(S'AP'
S'ADVADP'
tp139
F2
s(S'AP'
p140
S'APP'
tp141
F20
s(S'DP'
S'ADVDDP'
tp142
F1
s(S'VP'
S'ADVVNP'
tp143
F3
s(S'VP'
S'VVNP'
tp144
F12
s(g134
S'PPVP'
tp145
F8
s(S'VP'
p146
S'VADVDP'
tp147
F3
s(S'VP'
S'VVADVAP'
tp148
F1
s(g50
S'VAAP'
tp149
F8
s(S'NP'
p150
S'ANDP'
tp151
F7
s(S'NP'
S'NVVP'
tp152
F24
s(S'PP'
p153
S'AAPVP'
tp154
F1
s(S'VP'
S'VMP'
tp155
F6
s(S'VP'
S'VVNNP'
tp156
F2
s(S'CP'
S'CDAPP'
tp157
F11
s(S'DP'
S'ADNP'
tp158
F9
s(g44
S'PADP'
tp159
F11
s(S'VP'
S'ADVVVCP'
tp160
F1
s(S'NP'
S'ANDDP'
tp161
F2
s(S'AP'
p162
S'AAADVADVDP'
tp163
F1
s(g6
S'VVVDDP'
tp164
F1
s(g46
S'VVVVVDP'
tp165
F1
s(S'DP'
S'DAPP'
tp166
F17
s(S'VP'
p167
S'AVVP'
tp168
F1
s(S'VP'
S'VVVVPP'
tp169
F1
s(S'VP'
S'ADVADVVDP'
tp170
F1
s(S'PP'
p171
S'ADVPADVAPPP'
tp172
F1
s(g48
S'DDAAVP'
tp173
F1
s(S'MP'
S'MVVAP'
tp174
F2
s(S'DP'
S'DADVANP'
tp175
F1
s(S'DP'
S'ADVDNP'
tp176
F2
s(S'VP'
p177
S'VVPP'
tp178
F17
s(S'PP'
S'PAVVP'
tp179
F2
s(S'MP'
S'MVPP'
tp180
F3
s(S'CP'
S'CADVADVDDPP'
tp181
F1
s(S'CP'
S'CDDPPP'
tp182
F7
s(S'VP'
S'ADVVVDP'
tp183
F1
s(g76
S'NNPP'
tp184
F18
s(g124
S'AACP'
tp185
F5
s(S'PP'
S'PPVVP'
tp186
F4
s(S'DP'
S'DADVADVADVADVPP'
tp187
F1
s(S'PP'
p188
S'PVVVVVP'
tp189
F1
s(g20
S'ADVDDVP'
tp190
F2
s(S'PP'
p191
S'PMMP'
tp192
F2
s(S'PP'
p193
S'PVVVP'
tp194
F2
s(g191
S'PMP'
tp195
F6
s(S'CP'
p196
S'CCDP'
tp197
F56
s(S'NP'
S'ANNDP'
tp198
F1
s(S'VP'
S'VADVANP'
tp199
F1
s(S'DP'
S'AADDPP'
tp200
F1
s(S'NP'
p201
S'NVVVP'
tp202
F3
s(S'CP'
S'CDDDPP'
tp203
F2
s(S'CP'
S'CDADVADVPP'
tp204
F1
s(S'VP'
S'VVVDP'
tp205
F3
s(g36
S'PNNNP'
tp206
F2
s(S'CP'
S'CCCCDP'
tp207
F1
s(S'AP'
p208
S'AACCP'
tp209
F1
s(S'VP'
S'VVMP'
tp210
F1
s(g13
S'PADVVVP'
tp211
F1
s(S'PP'
p212
S'PPP'
tp213
F64
s(S'NP'
S'NAVP'
tp214
F2
s(g13
S'PADVAP'
tp215
F2
s(S'DP'
p216
S'ADVDVP'
tp217
F3
s(S'NP'
S'NADVVVP'
tp218
F1
s(S'DP'
S'DADVADVPPP'
tp219
F1
s(S'AP'
S'AADVVP'
tp220
F1
s(S'DP'
S'ADVADVDNP'
tp221
F1
s(g33
S'VPP'
tp222
F119
s(S'CP'
S'ADVCCDP'
tp223
F1
s(S'NP'
S'NNNCP'
tp224
F1
s(g112
S'PADVDP'
tp225
F5
s(S'CP'
S'CDADVAPP'
tp226
F2
s(S'DP'
S'DANNP'
tp227
F4
s(S'MP'
S'MADVVAP'
tp228
F1
s(S'CP'
p229
S'CDDPP'
tp230
F31
s(S'DP'
S'DAAPP'
tp231
F3
s(g13
S'PVVP'
tp232
F14
s(S'CP'
S'CADPPP'
tp233
F3
s(S'DP'
p234
S'DADVPPP'
tp235
F2
s(g167
S'ADVVCP'
tp236
F3
s(S'VP'
S'VPPP'
tp237
F6
s(S'NP'
S'AAAAAANNCCP'
tp238
F1
s(g89
S'VVPPP'
tp239
F2
s(S'PP'
S'PPAP'
tp240
F4
s(g28
S'DVVP'
tp241
F17
s(S'PP'
S'PADVAVP'
tp242
F1
s(S'NP'
S'ANMP'
tp243
F2
s(S'AP'
S'APPP'
tp244
F1
s(S'PP'
S'ADVPPP'
tp245
F1
s(S'VP'
S'VVVP'
tp246
F4
s(S'DP'
S'DDPPPP'
tp247
F1
s(S'NP'
S'ADVADVNNVP'
tp248
F1
s(S'NP'
p249
S'ANCP'
tp250
F17
s(S'DP'
S'DCP'
tp251
F8
s(S'NP'
S'AAANCP'
tp252
F1
s(S'PP'
S'ADVADVADVPPNP'
tp253
F1
s(S'DP'
S'DDDP'
tp254
F8
s(S'MP'
S'MAADP'
tp255
F1
s(S'NP'
S'ANVVP'
tp256
F3
s(g129
S'NVVVVP'
tp257
F2
s(g82
S'NPPP'
tp258
F8
s(S'PP'
p259
S'PPAPP'
tp260
F1
s(g28
S'DAVP'
tp261
F10
s(S'AP'
S'ACP'
tp262
F26
s(g153
S'AAPAP'
tp263
F1
s(g134
S'PADVADVNNP'
tp264
F2
s(g134
S'PPNP'
tp265
F26
s(S'DP'
S'ADVDAPP'
tp266
F1
s(g140
S'ADP'
tp267
F136
s(S'DP'
p268
S'DDAVP'
tp269
F1
s(S'NP'
p270
S'ADVANCCP'
tp271
F1
s(g171
S'ADVAPPDP'
tp272
F1
s(S'DP'
S'DMP'
tp273
F3
s(S'DP'
S'DVVVVP'
tp274
F1
s(S'AP'
S'AAADP'
tp275
F2
s(S'NP'
S'ANNVP'
tp276
F2
s(g33
S'VVAP'
tp277
F10
s(g6
S'AAVCP'
tp278
F1
s(g62
S'NPP'
tp279
F123
s(g11
S'PPPPNP'
tp280
F1
s(g62
S'NVP'
tp281
F180
s(S'NP'
p282
S'NAAPP'
tp283
F1
s(g33
S'VDDP'
tp284
F23
s(S'PP'
S'ADVADVADVADVPNP'
tp285
F1
s(S'AP'
S'AAADVDP'
tp286
F1
s(S'NP'
S'AANNVP'
tp287
F1
s(S'NP'
p288
S'AANVVP'
tp289
F4
s(S'DP'
S'DADVAPP'
tp290
F2
s(S'PP'
S'ADVAPAP'
tp291
F1
s(g249
S'ANPP'
tp292
F19
s(S'PP'
S'PPPPP'
tp293
F1
s(S'MP'
S'MVVPP'
tp294
F1
s(g15
S'ADVDPP'
tp295
F10
s(S'CP'
S'CDADVADVADVADVPP'
tp296
F1
s(S'AP'
S'ADVADVAVP'
tp297
F2
s(S'DP'
S'ADDP'
tp298
F1
s(S'CP'
S'CAADPP'
tp299
F1
s(S'DP'
S'DDADVADVPPP'
tp300
F1
s(S'PP'
S'PNNP'
tp301
F33
s(g24
S'MMNP'
tp302
F1
s(S'VP'
S'AVAP'
tp303
F2
s(S'MP'
S'MMVP'
tp304
F1
s(g150
S'ADVNCP'
tp305
F2
s(S'DP'
p306
S'ADPP'
tp307
F17
s(g89
S'VAPPP'
tp308
F1
s(g229
S'ACDP'
tp309
F14
s(g36
S'PAAP'
tp310
F15
s(g8
S'PADVADVADVPPP'
tp311
F1
s(S'NP'
p312
S'NNACP'
tp313
F1
s(S'CP'
S'CDADVPPP'
tp314
F1
s(g33
S'VAP'
tp315
F60
s(S'VP'
S'VVVVNP'
tp316
F1
s(g234
S'DDDPP'
tp317
F4
s(S'NP'
S'ADVADVNADVPP'
tp318
F1
s(S'PP'
p319
S'PAAPP'
tp320
F2
s(S'MP'
S'MAVPP'
tp321
F1
s(S'DP'
S'DDDPPP'
tp322
F1
s(S'DP'
S'DDDAP'
tp323
F1
s(S'AP'
S'AAACP'
tp324
F1
s(g140
S'AVVP'
tp325
F4
s(S'AP'
S'AADDP'
tp326
F4
s(S'AP'
p327
S'ACCCCP'
tp328
F1
s(S'VP'
S'VAANP'
tp329
F4
s(S'NP'
S'NADVADVCP'
tp330
F1
s(g28
S'ADVADVADVDVP'
tp331
F1
s(g33
S'VVDP'
tp332
F18
s(S'PP'
S'PPPDDP'
tp333
F2
s(g44
S'PANP'
tp334
F20
s(g80
S'AAVP'
tp335
F1
s(S'NP'
p336
S'NAAP'
tp337
F3
s(S'NP'
S'NDDP'
tp338
F5
s(S'CP'
p339
S'CDDADVADVPPP'
tp340
F1
s(S'AP'
p341
S'ACCP'
tp342
F2
s(S'VP'
S'AVPPP'
tp343
F1
s(g82
S'NDP'
tp344
F52
s(S'NP'
p345
S'AAANVP'
tp346
F1
s(S'MP'
S'MVAAP'
tp347
F1
s(g306
S'DDVP'
tp348
F24
s(g336
S'AANVP'
tp349
F5
s(S'VP'
p350
S'VVVVVCP'
tp351
F1
s(S'VP'
S'VNNNP'
tp352
F1
s(S'DP'
S'ADVDADVVP'
tp353
F1
s(S'PP'
S'PCP'
tp354
F8
s(S'NP'
S'ADVNNVP'
tp355
F1
s(S'PP'
S'PACP'
tp356
F1
s(S'AP'
S'ADVACP'
tp357
F4
s(S'VP'
S'AVVDP'
tp358
F1
s(S'NP'
S'NNVP'
tp359
F23
s(S'MP'
S'MVCP'
tp360
F6
s(S'CP'
S'CCDDP'
tp361
F3
s(S'NP'
S'NAACCP'
tp362
F1
s(S'PP'
S'PPAAP'
tp363
F2
s(g167
S'VVCP'
tp364
F12
s(g282
S'AANCP'
tp365
F1
s(g33
S'VDP'
tp366
F164
s(S'AP'
S'ADVAVVP'
tp367
F1
s(S'AP'
S'AAAPP'
tp368
F1
s(S'VP'
S'ADVVPP'
tp369
F5
s(g101
S'VNNP'
tp370
F12
s(S'AP'
S'AADVDP'
tp371
F4
s(S'NP'
S'NADP'
tp372
F2
s(S'DP'
p373
S'DDNP'
tp374
F21
s(g339
S'ACADVDP'
tp375
F1
s(g62
S'NADVCP'
tp376
F4
s(S'DP'
S'DDNNP'
tp377
F3
s(S'PP'
S'AAPPP'
tp378
F1
s(g312
S'ADVADVNCP'
tp379
F1
s(S'DP'
S'AADPP'
tp380
F1
s(S'VP'
S'VVVVCP'
tp381
F1
s(S'PP'
S'ADVPAP'
tp382
F2
s(S'MP'
S'MAVAP'
tp383
F1
s(S'MP'
S'MVVNP'
tp384
F1
s(S'DP'
p385
S'ADVDNNP'
tp386
F1
s(S'CP'
S'ACDDP'
tp387
F1
s(S'AP'
S'AAPP'
tp388
F1
s(S'VP'
S'VVCCP'
tp389
F2
s(S'NP'
S'AAANNADVVP'
tp390
F1
s(g153
S'APPNP'
tp391
F2
s(S'DP'
S'DADVADVNP'
tp392
F1
s(S'NP'
S'NAPP'
tp393
F6
s(S'PP'
S'ADVPPPP'
tp394
F1
s(S'NP'
S'ANCCP'
tp395
F6
s(g150
S'NNCCP'
tp396
F5
s(g129
S'NNMP'
tp397
F7
s(S'DP'
S'DDDVP'
tp398
F2
s(S'VP'
S'VADVADVADVPPP'
tp399
F1
s(S'PP'
S'PAAAP'
tp400
F2
s(S'PP'
S'PPPAP'
tp401
F1
s(S'CP'
S'CDDAPP'
tp402
F2
s(g62
S'ANAP'
tp403
F5
s(S'MP'
S'MVAP'
tp404
F2
s(g44
S'PVP'
tp405
F111
s(g350
S'VADVPPP'
tp406
F1
s(S'DP'
S'DVVVP'
tp407
F2
s(g193
S'PPDDP'
tp408
F4
s(g350
S'AVCP'
tp409
F2
s(g15
S'DPP'
tp410
F248
s(g31
S'ADVNVP'
tp411
F4
s(g15
S'DDPP'
tp412
F52
s(g216
S'DANP'
tp413
F37
s(S'NP'
S'NADVPP'
tp414
F1
s(S'NP'
S'NAAVP'
tp415
F2
s(S'NP'
p416
S'AAANADVVP'
tp417
F1
s(g259
S'PDDDP'
tp418
F2
s(S'NP'
S'AAANNVVP'
tp419
F1
s(g270
S'NADVCCP'
tp420
F1
s(g312
S'NNVVVVVP'
tp421
F1
s(g40
S'PADVPPP'
tp422
F1
s(S'DP'
S'DCCP'
tp423
F1
s(S'PP'
S'ADVADVPPP'
tp424
F1
s(S'AP'
S'AADDDDP'
tp425
F1
s(g319
S'AAPDP'
tp426
F2
s(S'VP'
S'VVDDP'
tp427
F2
s(g36
S'PDDP'
tp428
F20
s(g76
S'NNNADVPP'
tp429
F1
s(S'DP'
S'ADPPP'
tp430
F3
s(S'NP'
S'ADVNNCP'
tp431
F1
s(g146
S'AVDP'
tp432
F9
s(S'NP'
S'NNP'
tp433
F2
s(g114
S'ADVADPP'
tp434
F1
s(S'DP'
S'DAANP'
tp435
F2
s(g341
S'ADDP'
tp436
F13
s(g188
S'ADVPPNP'
tp437
F2
s(S'CP'
S'CADVADVDPP'
tp438
F1
s(g373
S'DPPP'
tp439
F46
s(S'PP'
S'ADVADVPPNP'
tp440
F1
s(g162
S'AAAP'
tp441
F1
s(g416
S'NNAVP'
tp442
F1
s(S'VP'
S'AVVCP'
tp443
F1
s(g36
S'ADVPNP'
tp444
F4
s(g212
S'PPDP'
tp445
F21
s(S'MP'
S'MAVDP'
tp446
F2
s(S'NP'
S'AAANMP'
tp447
F1
s(S'DP'
S'DDCP'
tp448
F1
s(S'PP'
S'PAANNP'
tp449
F1
s(g150
S'NAP'
tp450
F30
s(S'VP'
S'VAAAP'
tp451
F2
s(g95
S'ADVAVNP'
tp452
F1
s(g146
S'VVP'
tp453
F38
s(S'NP'
S'NNVVP'
tp454
F2
s(S'PP'
S'APNP'
tp455
F14
s(g78
S'DDVVP'
tp456
F1
s(S'VP'
S'VVVNP'
tp457
F1
s(S'NP'
S'NAMP'
tp458
F2
s(S'DP'
S'ADVADVDDPP'
tp459
F1
s(S'MP'
S'MVNNP'
tp460
F1
s(g229
S'CDPP'
tp461
F212
s(S'AP'
S'ADDDP'
tp462
F1
s(S'NP'
S'NNDP'
tp463
F7
s(S'CP'
S'ADVCDP'
tp464
F5
s(S'PP'
S'AAPVVP'
tp465
F1
s(S'VP'
S'VAAVP'
tp466
F1
s(S'VP'
S'VADVADVDP'
tp467
F1
s(S'PP'
S'PPNNP'
tp468
F4
s(S'PP'
S'PADVCP'
tp469
F1
s(S'PP'
S'PPMP'
tp470
F3
s(S'CP'
S'CAADDPP'
tp471
F1
s(S'DP'
S'ADVADVDPP'
tp472
F1
s(g33
S'VADVNP'
tp473
F3
s(g288
S'NADVAP'
tp474
F2
s(g385
S'DADVNP'
tp475
F4
s(g28
S'DAP'
tp476
F19
s(S'CP'
S'CADPP'
tp477
F10
s(S'DP'
S'ADVADVDVVP'
tp478
F1
s(S'VP'
S'AVPP'
tp479
F4
s(g229
S'ADVCADVDP'
tp480
F1
s(S'CP'
S'CDPPPP'
tp481
F4
s(S'VP'
p482
S'AAVDP'
tp483
F2
s(S'DP'
S'ADVDVVVP'
tp484
F1
s(g268
S'DADVADVPP'
tp485
F1
s(g15
S'ADVP'
tp486
F12
s(S'PP'
S'PPPNP'
tp487
F1
s(g153
S'PPAANP'
tp488
F2
s(S'NP'
S'AAANPP'
tp489
F1
s(S'PP'
S'PADVADVNP'
tp490
F1
s(S'VP'
S'ADVADVVAP'
tp491
F1
s(g327
S'AADP'
tp492
F31
s(g68
S'ADVPVP'
tp493
F2
s(g167
S'AAVAAP'
tp494
F1
s(S'PP'
S'ADVPDP'
tp495
F2
s(S'NP'
S'ANNPP'
tp496
F1
s(g62
S'NCP'
tp497
F152
s(S'CP'
S'CADVDPPP'
tp498
F1
s(g177
S'ADVVVPP'
tp499
F1
s(g345
S'NAAANP'
tp500
F1
s(g84
S'ADVVP'
tp501
F1
s(S'AP'
S'AAMP'
tp502
F1
s(S'PP'
S'ADVPDDP'
tp503
F1
s(S'NP'
S'AANDP'
tp504
F2
s(S'MP'
S'MVCCP'
tp505
F3
s(S'DP'
S'DADVNNP'
tp506
F1
s(g341
S'AAADVADVADVDP'
tp507
F1
s(S'VP'
S'VDDDP'
tp508
F1
s(S'MP'
S'MNVP'
tp509
F3
s(S'VP'
S'VAPP'
tp510
F3
s(S'VP'
S'ADVVDP'
tp511
F3
s(g385
S'DADVPP'
tp512
F10
s(g208
S'AMP'
tp513
F1
s(g196
S'CCADP'
tp514
F1
s(g54
S'MADVVDDP'
tp515
F1
s(S'DP'
S'ADVDAP'
tp516
F1
s(S'AP'
S'ADVAPP'
tp517
F2
s(S'AP'
S'ADVADVANP'
tp518
F1
s(S'CP'
S'CCDDDP'
tp519
F1
s(S'DP'
S'ADVDPPP'
tp520
F2
s(g15
S'DVP'
tp521
F149
s(S'NP'
S'ADVNPP'
tp522
F1
s(g327
S'AVP'
tp523
F16
s(S'NP'
S'NADVVP'
tp524
F5
s(g89
S'ADVVPPP'
tp525
F1
s(g28
S'DDPPP'
tp526
F9
s(g201
S'NNAP'
tp527
F2
s(S'CP'
S'CDADVPP'
tp528
F5
s(g33
S'VNP'
tp529
F103
s(S'VP'
S'VANP'
tp530
F8
s(g93
S'CADVDPP'
tp531
F3
s(S'VP'
S'VADVAP'
tp532
F2
s(S'DP'
S'DDDDVP'
tp533
F1
s(g482
S'ADVADVVVDP'
tp534
F1
s.