ccollections
defaultdict
p1
(c__builtin__
float
p2
tRp3
(S'CP'
p4
S'CAAADPP'
tp5
F1
s(S'DP'
S'DDAP'
tp6
F4
s(S'VP'
p7
S'ADVVVNP'
tp8
F2
s(S'VP'
S'VVVVP'
tp9
F2
s(S'NP'
S'NNADVADVCCP'
tp10
F1
s(S'PP'
p11
S'PAPP'
tp12
F7
s(S'PP'
p13
S'PADVNP'
tp14
F5
s(S'DP'
p15
S'DNP'
tp16
F120
s(S'NP'
S'ADVNDP'
tp17
F2
s(S'CP'
p18
S'CDPPP'
tp19
F37
s(S'VP'
p20
S'VADP'
tp21
F6
s(S'DP'
S'DNNNNP'
tp22
F1
s(S'MP'
S'MAVNP'
tp23
F1
s(S'PP'
S'PPPPPP'
tp24
F1
s(S'AP'
S'AADVADVADVDP'
tp25
F1
s(S'DP'
p26
S'ADNNP'
tp27
F1
s(g11
S'APVP'
tp28
F8
s(S'MP'
S'MVDP'
tp29
F11
s(S'PP'
p30
S'PADVANP'
tp31
F1
s(S'PP'
p32
S'PPPP'
tp33
F22
s(S'DP'
p34
S'DDDNP'
tp35
F4
s(S'VP'
p36
S'VACP'
tp37
F3
s(S'AP'
S'AAAVP'
tp38
F1
s(S'DP'
p39
S'DADVVP'
tp40
F5
s(S'AP'
S'AADVPP'
tp41
F1
s(S'NP'
p42
S'NADVACP'
tp43
F1
s(S'NP'
p44
S'NCCCP'
tp45
F6
s(S'VP'
p46
S'VCP'
tp47
F49
s(S'NP'
S'NMMP'
tp48
F6
s(S'VP'
S'ADVVCCP'
tp49
F1
s(S'PP'
p50
S'ADVPADP'
tp51
F1
s(S'PP'
S'PAP'
tp52
F57
s(S'MP'
p53
S'MMVVP'
tp54
F1
s(S'VP'
S'VADVADVAP'
tp55
F1
s(S'PP'
S'ADVPPVP'
tp56
F3
s(S'PP'
p57
S'APVVP'
tp58
F2
s(S'PP'
p59
S'PPADVDP'
tp60
F2
s(S'CP'
S'CADPPPP'
tp61
F1
s(S'PP'
S'PNP'
tp62
F109
s(S'DP'
p63
S'DDP'
tp64
F28
s(S'NP'
p65
S'NNNPP'
tp66
F1
s(S'NP'
p67
S'NNDP'
tp68
F5
s(g53
S'MCDP'
tp69
F3
s(g67
S'NMP'
tp70
F30
s(g13
S'PPMMP'
tp71
F1
s(S'NP'
p72
S'ADVNAPP'
tp73
F1
s(S'VP'
S'VMMP'
tp74
F1
s(S'PP'
S'PDP'
tp75
F120
s(S'CP'
S'CDAAPP'
tp76
F2
s(S'NP'
S'ADVNVVP'
tp77
F1
s(S'MP'
S'MNNVP'
tp78
F1
s(S'VP'
S'AVAAP'
tp79
F2
s(g50
S'PADVPP'
tp80
F2
s(S'VP'
p81
S'AAVPP'
tp82
F1
s(S'DP'
S'DPPPP'
tp83
F3
s(S'PP'
S'PADVADP'
tp84
F1
s(S'NP'
p85
S'NACP'
tp86
F9
s(g67
S'NCCP'
tp87
F25
s(S'NP'
p88
S'NNCP'
tp89
F38
s(S'NP'
p90
S'NADVADVVP'
tp91
F2
s(S'NP'
p92
S'NNPPPP'
tp93
F1
s(S'VP'
S'AVNP'
tp94
F6
s(S'VP'
S'VADVVP'
tp95
F1
s(S'MP'
S'MVPPP'
tp96
F1
s(S'AP'
S'AAAAP'
tp97
F2
s(S'CP'
p98
S'CCCDP'
tp99
F6
s(S'VP'
S'ADVVAP'
tp100
F1
s(S'VP'
S'VVADVPP'
tp101
F1
s(S'PP'
S'APDP'
tp102
F16
s(S'AP'
S'AADVCP'
tp103
F1
s(S'VP'
p104
S'VVANP'
tp105
F2
s(S'PP'
p106
S'ADVPNNP'
tp107
F1
s(g50
S'PPADVADVNNP'
tp108
F1
s(S'DP'
S'DADVADVADVPP'
tp109
F2
s(S'PP'
S'PCCP'
tp110
F3
s(g63
S'DNNP'
tp111
F37
s(S'DP'
S'DPPPPP'
tp112
F4
s(S'CP'
S'CCADVDP'
tp113
F1
s(S'VP'
p114
S'VVNNNP'
tp115
F1
s(S'DP'
p116
S'DADVADVADVDP'
tp117
F1
s(g67
S'NNNVP'
tp118
F3
s(S'VP'
S'VADVNNP'
tp119
F2
s(S'PP'
p120
S'PADVVP'
tp121
F7
s(S'PP'
S'APAP'
tp122
F1
s(S'CP'
S'ADVADVCDP'
tp123
F1
s(S'AP'
S'AAP'
tp124
F7
s(S'VP'
S'VVVVPP'
tp125
F2
s(S'DP'
S'DAAVP'
tp126
F2
s(S'PP'
p127
S'PAANP'
tp128
F1
s(g42
S'NADVADVPPP'
tp129
F1
s(S'PP'
p130
S'PPVVP'
tp131
F3
s(S'MP'
S'MMMCP'
tp132
F1
s(S'PP'
p133
S'PADVADVADVNNP'
tp134
F1
s(S'CP'
S'CDDDPPP'
tp135
F4
s(S'DP'
p136
S'ADVADNP'
tp137
F1
s(S'PP'
p138
S'PAVP'
tp139
F6
s(S'VP'
S'VVVPP'
tp140
F3
s(S'PP'
p141
S'APPPP'
tp142
F1
s(S'PP'
S'APADVADVVP'
tp143
F1
s(S'AP'
S'ADVADP'
tp144
F1
s(S'AP'
S'APP'
tp145
F26
s(g72
S'ADVADVADVNNPP'
tp146
F1
s(S'PP'
S'APDDP'
tp147
F1
s(S'DP'
S'ADVDVVVP'
tp148
F1
s(S'VP'
S'ADVVNP'
tp149
F5
s(g46
S'VVNP'
tp150
F26
s(S'PP'
S'ADVPPPP'
tp151
F1
s(S'PP'
p152
S'PPVP'
tp153
F20
s(S'PP'
S'PPADVADVPP'
tp154
F1
s(S'VP'
p155
S'VADVDP'
tp156
F4
s(S'VP'
S'VVADVAP'
tp157
F2
s(S'VP'
p158
S'VAAP'
tp159
F9
s(S'NP'
p160
S'ANDP'
tp161
F3
s(g67
S'NVVP'
tp162
F21
s(g46
S'VMP'
tp163
F4
s(S'VP'
p164
S'VVNNP'
tp165
F2
s(S'CP'
S'CDAPP'
tp166
F9
s(g7
S'VVAAP'
tp167
F1
s(S'DP'
S'ADVADVDDVP'
tp168
F1
s(S'DP'
p169
S'ADNP'
tp170
F11
s(S'PP'
S'PPPPAP'
tp171
F1
s(S'PP'
p172
S'PADP'
tp173
F12
s(S'VP'
p174
S'VVVDDP'
tp175
F1
s(g39
S'ADVDAANP'
tp176
F1
s(S'NP'
p177
S'NNNCP'
tp178
F4
s(S'DP'
S'DAPP'
tp179
F22
s(S'VP'
S'AVVP'
tp180
F1
s(g114
S'ADVADVVDP'
tp181
F2
s(S'PP'
S'PPPDP'
tp182
F1
s(S'AP'
p183
S'AAAVVVVVP'
tp184
F1
s(S'AP'
S'AAPPP'
tp185
F1
s(S'DP'
S'ADVDNP'
tp186
F3
s(S'VP'
p187
S'VVPP'
tp188
F6
s(S'CP'
S'AACDDP'
tp189
F2
s(S'MP'
S'MVPP'
tp190
F6
s(S'DP'
p191
S'ADVP'
tp192
F4
s(S'AP'
S'ADVADVAVVVP'
tp193
F1
s(S'NP'
p194
S'AANCCP'
tp195
F2
s(S'NP'
p196
S'NADVADVDP'
tp197
F1
s(S'MP'
S'MVVDP'
tp198
F2
s(S'AP'
S'AACP'
tp199
F2
s(g59
S'PPADVAAP'
tp200
F1
s(S'NP'
p201
S'ANVP'
tp202
F6
s(S'VP'
S'VAACP'
tp203
F1
s(g39
S'DNNNP'
tp204
F3
s(S'DP'
p205
S'ADVDDVP'
tp206
F1
s(S'VP'
S'VADVDDP'
tp207
F1
s(S'PP'
p208
S'PVVVP'
tp209
F1
s(g11
S'PMP'
tp210
F7
s(S'NP'
S'NNMMP'
tp211
F2
s(g18
S'CCDP'
tp212
F43
s(g116
S'ADVADVADVDPP'
tp213
F2
s(S'NP'
S'NVVVP'
tp214
F2
s(S'CP'
p215
S'CDDDPP'
tp216
F3
s(S'CP'
S'CDADVADVPP'
tp217
F2
s(S'VP'
S'VVVDP'
tp218
F4
s(S'PP'
S'PDDDDP'
tp219
F1
s(S'PP'
p220
S'PNNNP'
tp221
F6
s(S'MP'
p222
S'MVNP'
tp223
F20
s(S'AP'
S'AACCP'
tp224
F1
s(g152
S'PADVVVP'
tp225
F2
s(g32
S'PPP'
tp226
F68
s(S'NP'
S'NNVVP'
tp227
F2
s(S'NP'
p228
S'NAVP'
tp229
F12
s(g30
S'PADVAP'
tp230
F2
s(S'DP'
p231
S'DDNNNP'
tp232
F1
s(S'PP'
S'APVVVP'
tp233
F1
s(S'DP'
S'ADVDVP'
tp234
F2
s(S'DP'
S'ADVADVDNNP'
tp235
F1
s(S'CP'
S'CCADVADVADVDP'
tp236
F1
s(S'DP'
p237
S'ADPP'
tp238
F20
s(S'DP'
S'ADVADVDNP'
tp239
F2
s(S'VP'
S'VPP'
tp240
F78
s(S'DP'
S'DDADVDP'
tp241
F1
s(g208
S'PADVDP'
tp242
F5
s(g215
S'CDADVAPP'
tp243
F1
s(g98
S'CDDPP'
tp244
F28
s(S'DP'
p245
S'DAAPP'
tp246
F3
s(S'PP'
S'PVVP'
tp247
F22
s(S'CP'
S'CADPPP'
tp248
F2
s(g63
S'DADVPPP'
tp249
F7
s(g196
S'NNADVADVACP'
tp250
F1
s(g46
S'ADVVCP'
tp251
F5
s(g158
S'VPPP'
tp252
F6
s(S'VP'
S'VVPPP'
tp253
F1
s(S'PP'
S'PPAP'
tp254
F6
s(g39
S'DVVP'
tp255
F17
s(S'CP'
S'ADVACDDP'
tp256
F1
s(S'AP'
S'APPP'
tp257
F1
s(g152
S'ADVPPP'
tp258
F4
s(S'VP'
p259
S'VVVP'
tp260
F6
s(S'CP'
S'CADVDPP'
tp261
F7
s(S'NP'
S'ADVADVNNVP'
tp262
F1
s(S'NP'
p263
S'ANCP'
tp264
F14
s(S'DP'
S'DCP'
tp265
F6
s(g63
S'DDDP'
tp266
F8
s(S'DP'
S'DDADVPP'
tp267
F1
s(S'MP'
S'MVVVVNP'
tp268
F1
s(g263
S'ANVVP'
tp269
F2
s(g228
S'NVVVVP'
tp270
F1
s(S'NP'
S'NPPP'
tp271
F13
s(S'DP'
S'DADVACP'
tp272
F1
s(S'DP'
S'DAVP'
tp273
F8
s(S'VP'
S'ADVADVADVADVVNP'
tp274
F1
s(S'CP'
S'CDADVADVADVPP'
tp275
F1
s(S'AP'
p276
S'ACP'
tp277
F28
s(g32
S'PPNP'
tp278
F32
s(S'AP'
S'ADVACCP'
tp279
F1
s(S'NP'
S'NAADP'
tp280
F1
s(g46
S'ADVVADVDP'
tp281
F1
s(S'DP'
S'DADP'
tp282
F1
s(S'AP'
p283
S'ADP'
tp284
F97
s(S'CP'
S'CCCDDDP'
tp285
F1
s(S'PP'
S'APMP'
tp286
F1
s(S'MP'
S'MVVP'
tp287
F1
s(S'NP'
S'ANPPP'
tp288
F2
s(S'AP'
S'ADVAADDP'
tp289
F1
s(S'DP'
S'DVVVVP'
tp290
F1
s(S'PP'
p291
S'PPMP'
tp292
F4
s(g46
S'VVAP'
tp293
F10
s(S'NP'
p294
S'NNAPP'
tp295
F1
s(g291
S'PADVADVDP'
tp296
F2
s(S'PP'
S'PPADVVP'
tp297
F1
s(g92
S'NADVAPP'
tp298
F1
s(S'PP'
S'PPPPNP'
tp299
F1
s(S'NP'
S'NVP'
tp300
F105
s(g138
S'PAAVP'
tp301
F1
s(S'PP'
S'PPPPVP'
tp302
F1
s(g46
S'VDDP'
tp303
F24
s(S'DP'
S'DADVAPP'
tp304
F2
s(g158
S'ADVADVVACP'
tp305
F1
s(S'NP'
S'ANPP'
tp306
F13
s(g152
S'ADVPPDP'
tp307
F2
s(S'PP'
p308
S'PPPPP'
tp309
F5
s(S'MP'
S'MPDP'
tp310
F1
s(g172
S'ADVADVPDP'
tp311
F2
s(g30
S'PPPAAP'
tp312
F1
s(g63
S'DDDDDP'
tp313
F2
s(S'NP'
S'NPPPP'
tp314
F1
s(S'DP'
S'ADDP'
tp315
F1
s(S'NP'
S'ADVNADP'
tp316
F1
s(S'NP'
p317
S'NAACP'
tp318
F3
s(g220
S'PNNP'
tp319
F32
s(S'PP'
p320
S'APNNP'
tp321
F1
s(S'MP'
p322
S'MMNP'
tp323
F1
s(S'DP'
S'AAADPP'
tp324
F1
s(S'MP'
S'MMVP'
tp325
F8
s(g85
S'ADVNCP'
tp326
F4
s(S'DP'
S'DDADVADVPP'
tp327
F1
s(g194
S'ADVNNDDP'
tp328
F1
s(S'CP'
p329
S'ACDP'
tp330
F12
s(g32
S'PAAP'
tp331
F7
s(S'VP'
p332
S'ADVVVAAP'
tp333
F1
s(g329
S'CDADVPPP'
tp334
F4
s(S'VP'
p335
S'VAP'
tp336
F56
s(S'VP'
S'VVVVNP'
tp337
F1
s(S'DP'
p338
S'DDDPP'
tp339
F3
s(S'PP'
S'PPPNNP'
tp340
F1
s(S'PP'
S'ADVPMP'
tp341
F1
s(g169
S'DDDPPP'
tp342
F6
s(S'VP'
S'ADVAVDP'
tp343
F1
s(S'DP'
S'ADADVVP'
tp344
F1
s(S'NP'
p345
S'NAAP'
tp346
F6
s(S'PP'
S'PPPVP'
tp347
F2
s(g164
S'AAVAP'
tp348
F1
s(g81
S'VAANP'
tp349
F2
s(S'NP'
p350
S'NADVADVCP'
tp351
F1
s(g26
S'ADVADVADVDVP'
tp352
F1
s(g104
S'VVDP'
tp353
F23
s(S'AP'
S'AADVADVAP'
tp354
F1
s(S'DP'
S'DDADVNP'
tp355
F1
s(g120
S'PANP'
tp356
F13
s(S'PP'
S'PDDDP'
tp357
F1
s(S'AP'
S'AAVP'
tp358
F2
s(g183
S'AVVP'
tp359
F3
s(g177
S'NDDP'
tp360
F6
s(S'AP'
S'ACCP'
tp361
F3
s(S'VP'
p362
S'VVVVAP'
tp363
F1
s(g362
S'AVPPP'
tp364
F1
s(g67
S'NDP'
tp365
F51
s(S'MP'
S'MVAAP'
tp366
F1
s(S'DP'
S'DDVP'
tp367
F16
s(g67
S'AANVP'
tp368
F1
s(S'VP'
S'VNNNP'
tp369
F1
s(g20
S'VADVADVPP'
tp370
F1
s(g141
S'ADVPAP'
tp371
F1
s(g172
S'PCP'
tp372
F7
s(S'NP'
S'NNPPP'
tp373
F3
s(S'PP'
S'PAADP'
tp374
F1
s(g67
S'ADVNNVP'
tp375
F1
s(S'VP'
p376
S'VPPPP'
tp377
F2
s(S'NP'
S'ANAMMMP'
tp378
F1
s(g376
S'VCCP'
tp379
F5
s(S'NP'
S'NNNDP'
tp380
F2
s(S'AP'
S'ADVACP'
tp381
F2
s(g141
S'AAPNNP'
tp382
F2
s(g345
S'NNVP'
tp383
F22
s(S'MP'
S'MVCP'
tp384
F2
s(S'VP'
S'VVVADVADVADVDP'
tp385
F1
s(S'CP'
S'CCDDP'
tp386
F7
s(g65
S'NNADVVP'
tp387
F2
s(S'DP'
p388
S'DADVNP'
tp389
F6
s(g155
S'VVCP'
tp390
F9
s(g172
S'PADVADVPP'
tp391
F1
s(S'NP'
p392
S'AANCP'
tp393
F2
s(g335
S'VDP'
tp394
F111
s(g164
S'VVVVVNP'
tp395
F1
s(S'NP'
S'NNDDP'
tp396
F2
s(S'VP'
p397
S'ADVVPP'
tp398
F4
s(S'CP'
S'CDAPPP'
tp399
F1
s(g46
S'VNNP'
tp400
F15
s(S'AP'
S'AADVDP'
tp401
F4
s(S'DP'
S'ADVDADVVP'
tp402
F1
s(S'NP'
S'NADP'
tp403
F2
s(g39
S'DDNP'
tp404
F24
s(g44
S'NADVCP'
tp405
F6
s(S'DP'
S'DDNNP'
tp406
F7
s(S'PP'
S'AAPPP'
tp407
F1
s(S'NP'
S'ADVANVP'
tp408
F1
s(S'NP'
S'ADVADVNCP'
tp409
F1
s(S'NP'
S'NNNNPP'
tp410
F1
s(g11
S'ADVADVPPDP'
tp411
F1
s(S'MP'
S'MVVNP'
tp412
F3
s(g4
S'ACDDP'
tp413
F2
s(S'AP'
S'AADVADVDDP'
tp414
F1
s(S'AP'
S'AAPP'
tp415
F5
s(S'VP'
S'VVCCP'
tp416
F2
s(S'DP'
p417
S'DADVVVP'
tp418
F1
s(S'DP'
S'DADVADVNP'
tp419
F1
s(S'VP'
p420
S'VADVADP'
tp421
F1
s(S'NP'
p422
S'NAPP'
tp423
F10
s(S'PP'
p424
S'APPVP'
tp425
F1
s(S'AP'
S'ADVADVADP'
tp426
F2
s(g294
S'NADVDP'
tp427
F2
s(S'VP'
S'VVVCP'
tp428
F1
s(g160
S'ANCCP'
tp429
F4
s(S'NP'
S'AANPP'
tp430
F1
s(S'NP'
S'NNCCP'
tp431
F6
s(g88
S'NNMP'
tp432
F7
s(S'CP'
S'ADVADVACDP'
tp433
F1
s(S'PP'
S'PAAAP'
tp434
F1
s(g133
S'ADVADVPNP'
tp435
F2
s(g72
S'ANAP'
tp436
F4
s(S'AP'
S'AADVADVADVDDP'
tp437
F1
s(g322
S'MVAP'
tp438
F5
s(g32
S'PVP'
tp439
F98
s(S'DP'
S'ADVDPP'
tp440
F11
s(S'PP'
S'PPADVVVP'
tp441
F1
s(g36
S'VVVVDP'
tp442
F1
s(g231
S'DVVVP'
tp443
F4
s(S'NP'
S'ADVNNAP'
tp444
F1
s(g388
S'ADVADVADVDNP'
tp445
F1
s(S'PP'
S'PACP'
tp446
F1
s(g320
S'PPDDP'
tp447
F3
s(g164
S'AVCP'
tp448
F3
s(S'NP'
S'NADVADVAP'
tp449
F1
s(g15
S'DPP'
tp450
F134
s(g201
S'ADVNVP'
tp451
F6
s(S'DP'
S'DDPP'
tp452
F45
s(S'DP'
S'DDAVP'
tp453
F1
s(S'DP'
S'DANP'
tp454
F16
s(g90
S'ADVADVNAP'
tp455
F1
s(g228
S'NADVPP'
tp456
F1
s(g72
S'NNADVADVPP'
tp457
F1
s(g106
S'ADVADVADVPAP'
tp458
F1
s(S'DP'
S'AADPPPP'
tp459
F1
s(g136
S'AADNP'
tp460
F1
s(S'VP'
S'ADVVADVCP'
tp461
F1
s(g420
S'ADVVAADP'
tp462
F1
s(S'NP'
p463
S'NNAACP'
tp464
F1
s(g317
S'ADVNMMP'
tp465
F1
s(g422
S'ADVADVNMP'
tp466
F1
s(S'PP'
S'ADVADVPPP'
tp467
F1
s(S'CP'
S'CDPPPPP'
tp468
F3
s(S'DP'
S'ADVADPP'
tp469
F2
s(g338
S'DDADVNNP'
tp470
F1
s(g13
S'PDDP'
tp471
F20
s(g308
S'ADVAPNP'
tp472
F3
s(S'DP'
S'ADPPP'
tp473
F3
s(S'VP'
S'AVDP'
tp474
F13
s(S'MP'
S'AMMMVP'
tp475
F1
s(S'NP'
S'NNP'
tp476
F1
s(g158
S'VVDDP'
tp477
F4
s(g39
S'DAANP'
tp478
F4
s(g276
S'ADDP'
tp479
F12
s(g158
S'ADVVVAP'
tp480
F2
s(S'PP'
S'ADVPPNP'
tp481
F2
s(S'MP'
S'MDAP'
tp482
F2
s(S'CP'
S'CADVADVDPP'
tp483
F3
s(g39
S'ADVADVDDPP'
tp484
F1
s(S'AP'
S'AAAP'
tp485
F1
s(S'NP'
S'NNAVP'
tp486
F1
s(S'NP'
S'NMMMP'
tp487
F1
s(S'PP'
S'PPPANP'
tp488
F1
s(g141
S'ADVPNP'
tp489
F4
s(g152
S'PPDP'
tp490
F23
s(g417
S'ADVADVADVDADVNNP'
tp491
F1
s(S'DP'
S'DDCP'
tp492
F1
s(S'MP'
S'MMAVP'
tp493
F1
s(g88
S'NAP'
tp494
F29
s(S'VP'
S'VAAAP'
tp495
F2
s(g155
S'VVP'
tp496
F22
s(g245
S'DDAPP'
tp497
F3
s(g127
S'ADVADVPVP'
tp498
F3
s(S'AP'
S'AAADP'
tp499
F1
s(g138
S'APNP'
tp500
F12
s(S'DP'
p501
S'DDVVP'
tp502
F5
s(S'AP'
S'AAADDP'
tp503
F2
s(S'VP'
S'VVVNP'
tp504
F2
s(S'MP'
S'MNPP'
tp505
F1
s(S'DP'
S'ADVDADVADP'
tp506
F1
s(S'MP'
S'MVANP'
tp507
F1
s(g39
S'DPPP'
tp508
F52
s(g222
S'MVNNP'
tp509
F2
s(S'CP'
S'CDPP'
tp510
F120
s(S'MP'
S'MVADVPP'
tp511
F1
s(S'DP'
S'ADVDVVP'
tp512
F1
s(S'CP'
S'ADVCDP'
tp513
F9
s(S'VP'
S'ADVADVVNP'
tp514
F3
s(S'CP'
S'ADVACDP'
tp515
F1
s(S'PP'
S'PPNNP'
tp516
F5
s(S'PP'
S'ADVPAVP'
tp517
F1
s(S'PP'
S'PADVCP'
tp518
F1
s(S'DP'
S'ADVADVDPP'
tp519
F3
s(g397
S'VADVNP'
tp520
F6
s(g332
S'AVDDP'
tp521
F3
s(S'DP'
S'DAP'
tp522
F25
s(S'CP'
p523
S'CADPP'
tp524
F14
s(S'NP'
S'NADVAVP'
tp525
F1
s(g424
S'PPDDDP'
tp526
F1
s(g187
S'AVPP'
tp527
F2
s(g32
S'PPADVADVDDP'
tp528
F1
s(S'CP'
S'CDPPPP'
tp529
F1
s(g187
S'AAVDP'
tp530
F1
s(S'DP'
S'AADNNP'
tp531
F1
s(S'PP'
S'APPP'
tp532
F4
s(S'DP'
S'ADPPPP'
tp533
F1
s(g191
S'DAPPP'
tp534
F1
s(g237
S'DADVADVPP'
tp535
F4
s(S'DP'
S'DMP'
tp536
F3
s(S'PP'
S'PPPNP'
tp537
F3
s(g67
S'NPP'
tp538
F102
s(g152
S'PADVADVNP'
tp539
F2
s(g283
S'AADP'
tp540
F21
s(S'NP'
S'NNADVVVP'
tp541
F1
s(S'VP'
S'VADVPP'
tp542
F4
s(S'CP'
S'CDDPPP'
tp543
F4
s(g13
S'PVVVVP'
tp544
F2
s(g130
S'ADVPVP'
tp545
F4
s(g63
S'DDDDPP'
tp546
F1
s(S'DP'
S'DAAP'
tp547
F3
s(S'NP'
S'NNVVVP'
tp548
F2
s(S'PP'
S'ADVPDP'
tp549
F7
s(S'PP'
S'PPPVVP'
tp550
F1
s(S'NP'
S'NCP'
tp551
F107
s(S'CP'
S'CADVDPPP'
tp552
F1
s(g501
S'ADVVP'
tp553
F2
s(S'CP'
S'CDDADVADVPP'
tp554
F1
s(g259
S'VADVADVADVDP'
tp555
F1
s(S'PP'
S'ADVPDDP'
tp556
F1
s(g463
S'AANDP'
tp557
F1
s(g39
S'DADVNNP'
tp558
F1
s(S'VP'
S'VDDDP'
tp559
F3
s(S'MP'
S'MNVP'
tp560
F1
s(g67
S'AANAP'
tp561
F1
s(S'CP'
S'ADVADVCCDP'
tp562
F1
s(S'NP'
S'NNPP'
tp563
F15
s(g20
S'VAPP'
tp564
F7
s(g46
S'ADVVDP'
tp565
F9
s(S'DP'
S'DADVPP'
tp566
F13
s(g523
S'CCADP'
tp567
F3
s(S'NP'
S'ADVNNCP'
tp568
F2
s(S'DP'
S'ADVDAP'
tp569
F3
s(S'PP'
S'ADVADVADVPNP'
tp570
F1
s(g57
S'ADVADVPVVP'
tp571
F1
s(S'CP'
S'AACDP'
tp572
F3
s(g392
S'NNNCCP'
tp573
F2
s(g205
S'ADVDPPP'
tp574
F4
s(S'DP'
S'DVP'
tp575
F95
s(S'DP'
S'ADVADVADVDDVP'
tp576
F1
s(S'NP'
S'ADVNPP'
tp577
F2
s(S'NP'
S'NNCCCP'
tp578
F1
s(S'AP'
S'AVP'
tp579
F20
s(g67
S'NADVVP'
tp580
F9
s(g34
S'DDPPP'
tp581
F7
s(S'NP'
S'ADVNMP'
tp582
F1
s(S'PP'
S'PPANP'
tp583
F3
s(S'CP'
S'CDADVPP'
tp584
F11
s(g335
S'VNP'
tp585
F114
s(g174
S'VANP'
tp586
F6
s(S'PP'
S'PPADVNP'
tp587
F1
s(g350
S'NADVPPP'
tp588
F1
s.