ccollections
defaultdict
p1
(c__builtin__
float
p2
tRp3
(S'DP'
p4
S'DADVAPP'
tp5
F1
s(S'DP'
p6
S'DDPP'
tp7
F12
s(S'DP'
S'DANP'
tp8
F2
s(S'VP'
p9
S'ADVVNP'
tp10
F1
s(S'NP'
p11
S'NADVPP'
tp12
F1
s(S'NP'
p13
S'ANPP'
tp14
F1
s(S'MP'
S'MPDP'
tp15
F1
s(S'VP'
p16
S'VVNP'
tp17
F3
s(S'PP'
p18
S'PPVP'
tp19
F3
s(S'DP'
p20
S'DDAP'
tp21
F1
s(S'AP'
S'ADVADVAVP'
tp22
F1
s(S'VP'
p23
S'VVADVNNP'
tp24
F1
s(S'NP'
p25
S'ADVNADP'
tp26
F1
s(S'VP'
p27
S'VAAP'
tp28
F2
s(S'DP'
p29
S'ADVADVDPPP'
tp30
F1
s(S'CP'
p31
S'CAADPP'
tp32
F1
s(S'PP'
p33
S'PADVNP'
tp34
F1
s(g25
S'NVVP'
tp35
F5
s(g6
S'DNP'
tp36
F27
s(S'PP'
p37
S'PNNP'
tp38
F9
s(S'NP'
p39
S'ADVNDP'
tp40
F2
s(S'CP'
S'CDAPP'
tp41
F5
s(S'VP'
S'VADVNP'
tp42
F1
s(S'CP'
p43
S'CDPPP'
tp44
F10
s(S'DP'
p45
S'ADNP'
tp46
F1
s(S'VP'
p47
S'VADP'
tp48
F1
s(S'DP'
S'DNNNNP'
tp49
F1
s(S'VP'
p50
S'ADVVACP'
tp51
F1
s(S'DP'
S'ADVP'
tp52
F1
s(S'NP'
p53
S'ADVNCP'
tp54
F1
s(g29
S'ADPP'
tp55
F8
s(S'PP'
p56
S'PDDP'
tp57
F8
s(S'CP'
p58
S'ACDP'
tp59
F2
s(S'VP'
S'VCCP'
tp60
F1
s(S'DP'
p61
S'ADPPP'
tp62
F1
s(S'DP'
p63
S'AAAADVDDADVPP'
tp64
F1
s(S'DP'
S'DAPP'
tp65
F6
s(g16
S'VAP'
tp66
F14
s(g39
S'AANNCCP'
tp67
F1
s(S'MP'
S'MVDP'
tp68
F1
s(S'DP'
p69
S'DDDPP'
tp70
F1
s(S'CP'
S'ADVCDDP'
tp71
F2
s(S'PP'
p72
S'PPPP'
tp73
F5
s(S'DP'
p74
S'DDDNP'
tp75
F1
s(S'MP'
S'MMADVVP'
tp76
F1
s(S'AP'
p77
S'ADDP'
tp78
F5
s(S'DP'
S'DADVVP'
tp79
F1
s(g20
S'ADAP'
tp80
F1
s(g72
S'PMP'
tp81
F3
s(S'VP'
S'VADVCP'
tp82
F1
s(S'DP'
p83
S'DADVANP'
tp84
F1
s(g61
S'DDAANP'
tp85
F1
s(g4
S'DPPP'
tp86
F12
s(S'NP'
S'NNDP'
tp87
F1
s(S'NP'
p88
S'NADVVVP'
tp89
F1
s(S'VP'
p90
S'VCP'
tp91
F13
s(S'PP'
p92
S'PPNNP'
tp93
F2
s(S'NP'
p94
S'NMMP'
tp95
F2
s(S'PP'
p96
S'ADVPAAVP'
tp97
F1
s(S'PP'
p98
S'PAP'
tp99
F14
s(S'AP'
p100
S'AAPPP'
tp101
F1
s(S'VP'
p102
S'VADVADVAP'
tp103
F1
s(g98
S'ADVPNP'
tp104
F1
s(g72
S'PPDP'
tp105
F7
s(S'NP'
p106
S'NMP'
tp107
F6
s(S'NP'
p108
S'NNPP'
tp109
F6
s(S'MP'
S'MVVDP'
tp110
F1
s(S'NP'
S'ANVP'
tp111
F2
s(g98
S'PNP'
tp112
F24
s(g4
S'DDP'
tp113
F7
s(S'MP'
p114
S'MVVAP'
tp115
F1
s(g96
S'PANP'
tp116
F4
s(S'VP'
S'ADVVDDP'
tp117
F1
s(g33
S'PAAP'
tp118
F6
s(g50
S'ADVVVDDP'
tp119
F1
s(g63
S'AADNP'
tp120
F1
s(S'PP'
p121
S'PVVVP'
tp122
F1
s(g33
S'PAANNP'
tp123
F1
s(S'AP'
S'AAVP'
tp124
F1
s(S'NP'
S'NAAP'
tp125
F1
s(S'NP'
p126
S'NDDP'
tp127
F2
s(S'CP'
p128
S'CCDP'
tp129
F7
s(S'MP'
S'MVANP'
tp130
F1
s(g108
S'NAP'
tp131
F5
s(g9
S'VPPP'
tp132
F3
s(S'AP'
p133
S'ACCP'
tp134
F2
s(g96
S'PAAAP'
tp135
F1
s(g128
S'CDDDPP'
tp136
F1
s(S'VP'
p137
S'AVPP'
tp138
F1
s(g108
S'NDP'
tp139
F14
s(g37
S'PNNNP'
tp140
F1
s(g98
S'PVP'
tp141
F23
s(g23
S'VVP'
tp142
F7
s(g6
S'DDVP'
tp143
F8
s(g98
S'PDP'
tp144
F25
s(S'PP'
p145
S'PPAAP'
tp146
F1
s(S'CP'
p147
S'CCADVADVDP'
tp148
F1
s(S'AP'
S'AAADP'
tp149
F1
s(g18
S'APNP'
tp150
F5
s(g114
S'MNNVP'
tp151
F1
s(S'MP'
S'MMVP'
tp152
F1
s(g83
S'DDVVP'
tp153
F1
s(g9
S'AAVVPP'
tp154
F1
s(g72
S'PPP'
tp155
F17
s(S'NP'
p156
S'NAVP'
tp157
F2
s(S'NP'
p158
S'NAMP'
tp159
F1
s(g56
S'ADVADVADVPPDP'
tp160
F1
s(S'MP'
p161
S'MVNNP'
tp162
F1
s(g50
S'VVCP'
tp163
F1
s(S'CP'
p164
S'CDPP'
tp165
F26
s(g92
S'PAADP'
tp166
F2
s(g25
S'NADVCCP'
tp167
F1
s(S'AP'
p168
S'AADVADVADVPPP'
tp169
F1
s(S'PP'
S'ADVPPP'
tp170
F1
s(S'DP'
S'DDANP'
tp171
F1
s(S'VP'
p172
S'VPP'
tp173
F18
s(g88
S'NACP'
tp174
F3
s(S'CP'
S'ADVCCDP'
tp175
F1
s(g39
S'NCCP'
tp176
F5
s(S'CP'
p177
S'ADVCDP'
tp178
F2
s(g72
S'AAPVVP'
tp179
F1
s(S'VP'
S'ADVADVVNP'
tp180
F1
s(g106
S'NNVP'
tp181
F6
s(g43
S'CDADVAPP'
tp182
F1
s(g158
S'NNCP'
tp183
F9
s(g69
S'ADVDDPP'
tp184
F1
s(g94
S'NADVADVVP'
tp185
F2
s(g133
S'ACP'
tp186
F12
s(g58
S'CCDDP'
tp187
F1
s(g164
S'CDDPP'
tp188
F8
s(g29
S'DAAPP'
tp189
F1
s(S'PP'
S'PVVP'
tp190
F4
s(S'AP'
S'AACP'
tp191
F1
s(S'PP'
S'ADVADVPVP'
tp192
F1
s(g47
S'AVNP'
tp193
F1
s(S'VP'
p194
S'AAVNP'
tp195
F1
s(g172
S'VDP'
tp196
F26
s(S'NP'
S'NNMP'
tp197
F1
s(g20
S'DADVNP'
tp198
F2
s(g137
S'ADVAVAP'
tp199
F1
s(S'VP'
S'VVPPP'
tp200
F1
s(S'DP'
S'DAP'
tp201
F4
s(g147
S'CADPP'
tp202
F6
s(g96
S'APNNP'
tp203
F1
s(g11
S'NADVAVP'
tp204
F1
s(g94
S'AANCP'
tp205
F1
s(g72
S'PPAP'
tp206
F4
s(g4
S'DVVP'
tp207
F3
s(g121
S'APPP'
tp208
F1
s(g31
S'CAAAADVDDADVPP'
tp209
F1
s(g13
S'NNNNVP'
tp210
F1
s(S'DP'
S'ADVADVDPP'
tp211
F1
s(S'NP'
S'ANADVVP'
tp212
F1
s(S'PP'
p213
S'ADVAPVP'
tp214
F1
s(g90
S'VVVP'
tp215
F4
s(g102
S'VNNP'
tp216
F7
s(S'CP'
S'CADVDPP'
tp217
F2
s(g100
S'AADVDP'
tp218
F1
s(g11
S'NADP'
tp219
F1
s(S'VP'
p220
S'ADVVAP'
tp221
F1
s(g4
S'DDNP'
tp222
F9
s(g53
S'NADVCP'
tp223
F3
s(S'DP'
S'DDNNP'
tp224
F1
s(g126
S'ANCP'
tp225
F7
s(S'PP'
S'APDP'
tp226
F3
s(S'DP'
S'DMP'
tp227
F2
s(S'DP'
S'DCP'
tp228
F2
s(S'DP'
S'ADVDPP'
tp229
F2
s(g220
S'VVVNP'
tp230
F1
s(g177
S'ACDDP'
tp231
F1
s(g194
S'ADVVNNP'
tp232
F1
s(g77
S'AADP'
tp233
F5
s(g220
S'VVVPP'
tp234
F1
s(S'CP'
S'CDDPPP'
tp235
F2
s(S'DP'
S'DDADVPP'
tp236
F1
s(g63
S'AADPP'
tp237
F1
s(g145
S'ADVPNNP'
tp238
F1
s(g16
S'VVDP'
tp239
F6
s(g53
S'NPPP'
tp240
F3
s(g53
S'NNVVVP'
tp241
F1
s(g90
S'ADVVANP'
tp242
F1
s(S'NP'
p243
S'ADVADVADVNNDP'
tp244
F1
s(g96
S'ADVPDP'
tp245
F2
s(S'MP'
S'MPNNP'
tp246
F1
s(S'CP'
S'AACDP'
tp247
F1
s(g161
S'MVAAP'
tp248
F1
s(g6
S'DNNP'
tp249
F7
s(g128
S'CADVDDPP'
tp250
F1
s(g158
S'NCP'
tp251
F25
s(S'DP'
S'ADDVP'
tp252
F1
s(S'MP'
S'MVVNP'
tp253
F1
s(g33
S'PPNP'
tp254
F8
s(S'NP'
S'NNNVP'
tp255
F1
s(g92
S'PAAVVP'
tp256
F1
s(S'AP'
S'ADVACCP'
tp257
F1
s(S'DP'
p258
S'DDADVADVADVNNP'
tp259
F1
s(S'AP'
S'AAPP'
tp260
F1
s(g61
S'DADP'
tp261
F1
s(g61
S'AADVP'
tp262
F1
s(g121
S'APVP'
tp263
F1
s(S'NP'
S'NNCCP'
tp264
F2
s(S'MP'
S'MNVP'
tp265
F1
s(S'PP'
S'ADVPANP'
tp266
F1
s(S'CP'
S'CDDADVPP'
tp267
F1
s(S'AP'
S'ADP'
tp268
F15
s(S'VP'
S'VAPP'
tp269
F1
s(S'AP'
S'APP'
tp270
F8
s(g121
S'PADVVP'
tp271
F1
s(g6
S'DADVPP'
tp272
F4
s(S'MP'
S'AMDDP'
tp273
F1
s(S'VP'
S'VVPP'
tp274
F2
s(g27
S'VDDDP'
tp275
F1
s(g128
S'CCADP'
tp276
F3
s(g39
S'ADVNNCP'
tp277
F1
s(g106
S'NNNPPP'
tp278
F1
s(g45
S'ADVDAVP'
tp279
F1
s(g9
S'ADVADVVNNP'
tp280
F1
s(g102
S'AVDP'
tp281
F3
s(g213
S'PPVVP'
tp282
F1
s(g137
S'VAACP'
tp283
F1
s(g243
S'ANAP'
tp284
F1
s(g90
S'VVAP'
tp285
F3
s(g156
S'NNAPP'
tp286
F1
s(S'MP'
S'MVAP'
tp287
F2
s(S'CP'
S'CADVADVDPP'
tp288
F1
s(g4
S'DVP'
tp289
F24
s(g168
S'AVP'
tp290
F3
s(S'PP'
S'PADDP'
tp291
F1
s(g126
S'NADVVP'
tp292
F2
s(g121
S'PAVP'
tp293
F1
s(g74
S'DDPPP'
tp294
F2
s(S'NP'
S'ADVANPP'
tp295
F1
s(g158
S'NPP'
tp296
F21
s(g108
S'NVP'
tp297
F20
s(g33
S'PPANP'
tp298
F1
s(g164
S'CDADVPP'
tp299
F3
s(g16
S'VNP'
tp300
F17
s(g194
S'VANP'
tp301
F2
s(g90
S'VDDP'
tp302
F6
s(S'PP'
S'PPDDP'
tp303
F3
s(S'VP'
S'VADVAP'
tp304
F1
s(g258
S'DADVADVPP'
tp305
F1
s(g6
S'DPP'
tp306
F27
s.