ccollections
defaultdict
p1
(c__builtin__
float
p2
tRp3
(S'MP'
p4
S'MMDP'
tp5
F2
s(S'NP'
S'ADVNADVADVCCP'
tp6
F1
s(S'DP'
p7
S'DDMMP'
tp8
F1
s(S'DP'
S'ADDPP'
tp9
F2
s(S'DP'
p10
S'DDAP'
tp11
F3
s(S'VP'
S'ADVVVNP'
tp12
F2
s(S'PP'
S'PAPP'
tp13
F6
s(S'PP'
p14
S'PADVNP'
tp15
F11
s(S'DP'
p16
S'DNP'
tp17
F271
s(S'NP'
p18
S'ADVNDP'
tp19
F1
s(S'CP'
p20
S'CDPPP'
tp21
F42
s(S'VP'
S'VADP'
tp22
F15
s(S'DP'
S'DAAP'
tp23
F3
s(S'PP'
S'PPPPPP'
tp24
F1
s(S'VP'
p25
S'VAVP'
tp26
F2
s(S'DP'
S'DAADP'
tp27
F1
s(g10
S'ADNNP'
tp28
F2
s(S'VP'
p29
S'VADVVVP'
tp30
F1
s(S'MP'
S'MDVP'
tp31
F2
s(S'VP'
p32
S'ADVVNP'
tp33
F20
s(S'MP'
S'MVDP'
tp34
F26
s(S'PP'
p35
S'PADVANP'
tp36
F1
s(S'PP'
p37
S'PPPP'
tp38
F18
s(S'AP'
S'AAAVP'
tp39
F1
s(S'MP'
S'MMMDP'
tp40
F2
s(S'PP'
S'PAANNP'
tp41
F1
s(S'PP'
p42
S'PADVNNP'
tp43
F2
s(S'AP'
S'AADVPP'
tp44
F1
s(S'NP'
p45
S'NADVACP'
tp46
F1
s(S'NP'
p47
S'NADVVVP'
tp48
F6
s(S'VP'
p49
S'VCP'
tp50
F69
s(S'NP'
p51
S'NMMP'
tp52
F8
s(g25
S'ADVVAAP'
tp53
F2
s(S'NP'
p54
S'NNADVAP'
tp55
F1
s(S'VP'
p56
S'ADVVCCP'
tp57
F2
s(S'PP'
p58
S'PAP'
tp59
F91
s(S'MP'
p60
S'MADVVCCP'
tp61
F1
s(S'MP'
S'MMVVP'
tp62
F1
s(S'VP'
S'VADVADVAP'
tp63
F1
s(S'PP'
p64
S'ADVPPVP'
tp65
F3
s(S'NP'
S'ANPPP'
tp66
F1
s(S'NP'
S'NAAAVP'
tp67
F1
s(S'PP'
S'PPADVDP'
tp68
F1
s(S'MP'
S'AMVP'
tp69
F2
s(S'PP'
p70
S'PNP'
tp71
F222
s(S'NP'
S'ADVADVADVNNCP'
tp72
F1
s(S'DP'
S'DDP'
tp73
F44
s(S'VP'
S'ADVVDDP'
tp74
F2
s(S'NP'
S'NNNPP'
tp75
F5
s(S'NP'
p76
S'NNDP'
tp77
F12
s(S'MP'
S'ADVMMPP'
tp78
F1
s(S'MP'
S'MNAP'
tp79
F1
s(g51
S'NMP'
tp80
F68
s(S'DP'
S'ADCP'
tp81
F1
s(S'VP'
p82
S'AAVNP'
tp83
F1
s(S'VP'
S'VMMP'
tp84
F3
s(g70
S'PDP'
tp85
F232
s(S'CP'
S'CCADVADVDP'
tp86
F1
s(S'CP'
p87
S'CDAAPP'
tp88
F3
s(S'NP'
S'ADVNVVP'
tp89
F2
s(S'VP'
S'VVVDDP'
tp90
F2
s(S'CP'
S'CDADVADVPPP'
tp91
F1
s(S'DP'
p92
S'ADVADVDAPP'
tp93
F1
s(S'NP'
S'NACCP'
tp94
F1
s(S'AP'
S'ANP'
tp95
F1
s(S'NP'
S'NADVADVADVVP'
tp96
F1
s(g25
S'AAVPP'
tp97
F1
s(g82
S'VVADVNP'
tp98
F1
s(S'MP'
S'MMMVVP'
tp99
F1
s(S'NP'
p100
S'ADVNACP'
tp101
F2
s(S'DP'
p102
S'DPPPP'
tp103
F7
s(S'DP'
p104
S'DDANP'
tp105
F5
s(g14
S'PADVADP'
tp106
F2
s(g51
S'NACP'
tp107
F15
s(S'AP'
S'ADVAVP'
tp108
F1
s(S'NP'
S'NCCP'
tp109
F36
s(S'VP'
p110
S'AVADVNP'
tp111
F2
s(S'AP'
S'ADVAVVVP'
tp112
F1
s(S'NP'
p113
S'NNCP'
tp114
F43
s(S'DP'
S'ADVDDPP'
tp115
F3
s(S'NP'
S'NADVADVVP'
tp116
F4
s(S'DP'
p117
S'DDDDP'
tp118
F2
s(S'DP'
S'DDAPP'
tp119
F4
s(g110
S'AVNP'
tp120
F6
s(S'NP'
S'NADVADVPP'
tp121
F1
s(S'PP'
S'ADVPVVP'
tp122
F1
s(S'PP'
S'ADVAPDP'
tp123
F1
s(S'VP'
p124
S'VVMP'
tp125
F8
s(S'VP'
S'ADVADVAVNP'
tp126
F1
s(S'VP'
p127
S'VADVVP'
tp128
F3
s(S'VP'
p129
S'ADVADVADVVNP'
tp130
F1
s(S'NP'
p131
S'ANADVVP'
tp132
F1
s(S'NP'
S'NCCCCP'
tp133
F3
s(S'CP'
S'CCCDP'
tp134
F4
s(g25
S'AVNNP'
tp135
F1
s(S'VP'
S'VCCCP'
tp136
F1
s(S'PP'
p137
S'APDP'
tp138
F26
s(S'VP'
S'ADVVNNP'
tp139
F6
s(S'PP'
p140
S'PADVADVADVPP'
tp141
F1
s(S'AP'
S'AADVACP'
tp142
F1
s(S'MP'
S'MDMMP'
tp143
F1
s(S'PP'
S'ADVPNNP'
tp144
F1
s(S'PP'
p145
S'PPAAPPP'
tp146
F1
s(g140
S'ADVADVADVPDP'
tp147
F1
s(g76
S'ADVADVNPPP'
tp148
F1
s(S'AP'
S'AANP'
tp149
F1
s(S'MP'
p150
S'MADVVNP'
tp151
F2
s(S'VP'
S'VVVPPPP'
tp152
F1
s(S'NP'
S'ADVANCP'
tp153
F3
s(S'DP'
p154
S'DNNP'
tp155
F57
s(S'CP'
S'CADVDDPP'
tp156
F2
s(S'DP'
S'DPPPPP'
tp157
F1
s(S'CP'
p158
S'CDDPPPP'
tp159
F1
s(S'CP'
S'CCADVDP'
tp160
F3
s(S'VP'
S'VVNNNP'
tp161
F1
s(S'VP'
p162
S'VVACP'
tp163
F1
s(S'DP'
S'ADDNP'
tp164
F1
s(S'NP'
S'NNNVP'
tp165
F9
s(g145
S'AAPPDP'
tp166
F1
s(S'VP'
S'VVANNP'
tp167
F1
s(S'PP'
S'PADVVP'
tp168
F14
s(S'PP'
S'APAP'
tp169
F4
s(S'AP'
S'APP'
tp170
F41
s(S'AP'
S'AAP'
tp171
F14
s(S'VP'
S'VADVADVVP'
tp172
F1
s(S'CP'
S'CADVADPP'
tp173
F3
s(S'NP'
p174
S'ADVNNNCP'
tp175
F1
s(S'MP'
p176
S'MVVCP'
tp177
F4
s(S'DP'
S'DAAVP'
tp178
F3
s(S'MP'
p179
S'MPVP'
tp180
F2
s(S'MP'
S'MVVVNP'
tp181
F1
s(g35
S'PAANP'
tp182
F4
s(S'VP'
S'VADVADVCP'
tp183
F1
s(S'NP'
p184
S'ANVP'
tp185
F16
s(S'VP'
S'VVAVP'
tp186
F1
s(S'NP'
S'NNAAAP'
tp187
F1
s(S'MP'
S'MVNP'
tp188
F22
s(S'MP'
p189
S'MNDP'
tp190
F1
s(S'AP'
S'ADVAADP'
tp191
F3
s(S'DP'
S'ADVADNP'
tp192
F1
s(g58
S'PAVP'
tp193
F18
s(S'MP'
S'ADVMVP'
tp194
F2
s(S'NP'
S'ANAAAP'
tp195
F1
s(S'VP'
p196
S'VVVPP'
tp197
F3
s(S'MP'
S'MADVVPP'
tp198
F1
s(S'DP'
p199
S'DADP'
tp200
F4
s(S'AP'
S'ADVADP'
tp201
F5
s(S'CP'
S'ADVADVCDP'
tp202
F2
s(S'MP'
S'MDPP'
tp203
F1
s(S'DP'
S'ADVDDP'
tp204
F1
s(S'PP'
S'APDDP'
tp205
F1
s(S'MP'
S'MDVVP'
tp206
F1
s(S'PP'
p207
S'APVP'
tp208
F12
s(S'DP'
S'DDADVADVAP'
tp209
F1
s(g49
S'VVNP'
tp210
F33
s(S'PP'
S'ADVPPPP'
tp211
F2
s(g70
S'PPVP'
tp212
F34
s(S'VP'
p213
S'VADVDP'
tp214
F6
s(S'MP'
p215
S'MDDAP'
tp216
F2
s(S'VP'
p217
S'VVADVAP'
tp218
F2
s(S'VP'
p219
S'VAAP'
tp220
F12
s(g76
S'ANDP'
tp221
F16
s(S'NP'
S'NVVP'
tp222
F43
s(g14
S'AAPVP'
tp223
F1
s(S'PP'
S'PPADP'
tp224
F1
s(S'VP'
p225
S'VMP'
tp226
F40
s(S'VP'
S'ADVVMP'
tp227
F1
s(g217
S'VVNNP'
tp228
F8
s(S'CP'
S'CDAPP'
tp229
F14
s(g213
S'VVAAP'
tp230
F2
s(S'PP'
S'ADVPMP'
tp231
F1
s(S'MP'
S'MMPP'
tp232
F4
s(g102
S'ADVADVP'
tp233
F1
s(g92
S'ADNP'
tp234
F18
s(S'VP'
S'AVVDP'
tp235
F1
s(S'MP'
S'MDANNP'
tp236
F1
s(g58
S'PADP'
tp237
F12
s(g225
S'ADVVVCP'
tp238
F2
s(S'DP'
S'ADVADVDVP'
tp239
F2
s(S'DP'
S'DADVAP'
tp240
F3
s(g154
S'DDDVP'
tp241
F4
s(S'DP'
S'DAPP'
tp242
F30
s(S'VP'
S'ADVADVVPP'
tp243
F2
s(g150
S'MDDNP'
tp244
F3
s(S'VP'
S'ADVADVVDP'
tp245
F7
s(S'PP'
S'PPPDP'
tp246
F1
s(S'MP'
S'MAMP'
tp247
F1
s(S'MP'
S'MVVVDP'
tp248
F1
s(S'AP'
S'AAPPP'
tp249
F1
s(S'NP'
S'AANNADVMMP'
tp250
F1
s(g127
S'VDDDDP'
tp251
F1
s(g7
S'DADVANP'
tp252
F2
s(g179
S'MPANP'
tp253
F2
s(S'DP'
S'ADVDNP'
tp254
F5
s(S'VP'
S'VVPP'
tp255
F11
s(S'VP'
S'VADVAPP'
tp256
F1
s(g199
S'DADVVP'
tp257
F6
s(S'DP'
S'DDDADVNP'
tp258
F1
s(S'MP'
S'MVPP'
tp259
F14
s(g16
S'ADVP'
tp260
F8
s(S'CP'
S'CDDPPP'
tp261
F7
s(S'VP'
S'ADVADVADVVDP'
tp262
F2
s(S'NP'
S'AANCCP'
tp263
F2
s(S'MP'
S'MMMPP'
tp264
F2
s(S'DP'
S'DDDDNP'
tp265
F1
s(S'MP'
S'MVVDP'
tp266
F1
s(S'AP'
S'AACP'
tp267
F2
s(g37
S'PPVVP'
tp268
F2
s(S'DP'
p269
S'DNNNP'
tp270
F8
s(S'DP'
S'ADVDDVP'
tp271
F1
s(S'PP'
p272
S'PADVADVVP'
tp273
F5
s(S'PP'
p274
S'PMMP'
tp275
F2
s(g37
S'PMP'
tp276
F25
s(g174
S'NNMMP'
tp277
F1
s(S'PP'
p278
S'PAAPPP'
tp279
F1
s(g87
S'CCDP'
tp280
F63
s(S'NP'
p281
S'ADVNNDP'
tp282
F1
s(S'VP'
p283
S'VAAVP'
tp284
F1
s(S'NP'
S'ADVADVADVNCP'
tp285
F1
s(S'VP'
S'VVVVMP'
tp286
F1
s(S'NP'
p287
S'NVVVP'
tp288
F11
s(S'CP'
S'CDDDPP'
tp289
F7
s(S'CP'
p290
S'CDADVADVPP'
tp291
F1
s(S'VP'
S'VVVDP'
tp292
F9
s(S'PP'
S'PDDDDP'
tp293
F2
s(S'PP'
S'PNNNP'
tp294
F5
s(S'MP'
S'MVVVAP'
tp295
F1
s(g20
S'CCCCDP'
tp296
F3
s(S'VP'
S'ADVVVMP'
tp297
F1
s(S'MP'
S'MVDDDP'
tp298
F1
s(S'AP'
S'AACCP'
tp299
F1
s(g14
S'AAPNP'
tp300
F2
s(S'PP'
S'PADVVVP'
tp301
F1
s(g207
S'PPP'
tp302
F98
s(S'NP'
p303
S'NAVP'
tp304
F11
s(S'PP'
S'PADVAP'
tp305
F1
s(S'PP'
S'PADDP'
tp306
F1
s(S'DP'
S'ADVDVP'
tp307
F7
s(S'AP'
S'AMMMP'
tp308
F1
s(S'NP'
S'NCCCP'
tp309
F2
s(S'DP'
p310
S'DADVADVPPP'
tp311
F1
s(S'AP'
S'AADVVP'
tp312
F1
s(S'PP'
S'PPPPDP'
tp313
F2
s(g310
S'DAAAP'
tp314
F1
s(S'DP'
S'ADVADVDNP'
tp315
F3
s(S'VP'
S'VAAAAP'
tp316
F1
s(g219
S'VPP'
tp317
F124
s(S'CP'
S'ACCDP'
tp318
F1
s(S'DP'
S'ADVDDNP'
tp319
F1
s(S'NP'
p320
S'NNNCP'
tp321
F5
s(g37
S'PADVDP'
tp322
F12
s(S'DP'
S'DANNP'
tp323
F3
s(S'MP'
p324
S'MADVVAP'
tp325
F1
s(S'PP'
S'PADVAAP'
tp326
F1
s(S'CP'
S'CDDPP'
tp327
F42
s(g102
S'DAAPP'
tp328
F3
s(g272
S'PVVP'
tp329
F26
s(S'CP'
S'CADPPP'
tp330
F1
s(S'DP'
S'DADVPPP'
tp331
F5
s(S'VP'
S'ADVVCP'
tp332
F5
s(S'MP'
S'MCCDP'
tp333
F2
s(g225
S'VPPP'
tp334
F14
s(S'PP'
S'PPADVADVDP'
tp335
F1
s(S'VP'
p336
S'VVPPP'
tp337
F1
s(S'MP'
p338
S'MMPPP'
tp339
F1
s(g60
S'MVPPP'
tp340
F1
s(S'DP'
S'DVVP'
tp341
F36
s(S'CP'
S'CADVADVDAPP'
tp342
F1
s(g158
S'ADVACDDP'
tp343
F1
s(g281
S'ANMP'
tp344
F3
s(S'PP'
S'PPAP'
tp345
F11
s(S'PP'
S'ADVPPP'
tp346
F1
s(S'NP'
S'ADVADVNVP'
tp347
F3
s(g25
S'VVVP'
tp348
F8
s(g290
S'CADVDPP'
tp349
F10
s(g25
S'AVMP'
tp350
F1
s(S'NP'
S'ANCP'
tp351
F29
s(g10
S'DCP'
tp352
F17
s(S'VP'
S'ADVVVVP'
tp353
F1
s(g154
S'DDDP'
tp354
F7
s(S'DP'
S'DDADVPP'
tp355
F3
s(S'NP'
S'ANNVVP'
tp356
F2
s(S'NP'
S'ANVVP'
tp357
F4
s(S'VP'
p358
S'VVDP'
tp359
F39
s(S'NP'
p360
S'NPPP'
tp361
F34
s(S'VP'
S'ADVVNNNP'
tp362
F1
s(S'AP'
S'APPP'
tp363
F3
s(S'DP'
S'DAVP'
tp364
F14
s(S'NP'
S'NNNMP'
tp365
F3
s(S'AP'
p366
S'ACP'
tp367
F34
s(S'NP'
S'NDDDDP'
tp368
F1
s(g272
S'PPNP'
tp369
F51
s(S'DP'
S'DDADVADVADVNNP'
tp370
F1
s(S'PP'
S'APADVADVVP'
tp371
F1
s(S'DP'
S'AADVP'
tp372
F3
s(S'VP'
S'VAANNP'
tp373
F1
s(S'CP'
S'CDDADVPP'
tp374
F2
s(S'AP'
p375
S'ADP'
tp376
F162
s(S'PP'
S'APMP'
tp377
F1
s(S'DP'
p378
S'DDPPPP'
tp379
F1
s(S'MP'
S'MADDP'
tp380
F1
s(S'VP'
S'AAAVDP'
tp381
F1
s(g32
S'ADVADVVNNP'
tp382
F1
s(S'VP'
p383
S'AVDP'
tp384
F24
s(g131
S'ANNVP'
tp385
F2
s(S'VP'
S'AAVADVMP'
tp386
F1
s(S'PP'
S'ADVAPDDP'
tp387
F1
s(g358
S'VVAP'
tp388
F10
s(S'NP'
p389
S'NNAPP'
tp390
F2
s(S'VP'
S'ADVADVADVADVVVCP'
tp391
F1
s(S'PP'
S'PPADVVP'
tp392
F1
s(S'VP'
S'AAVCP'
tp393
F1
s(g113
S'NPP'
tp394
F209
s(S'VP'
S'ADVADVVAP'
tp395
F2
s(g113
S'NVP'
tp396
F258
s(S'PP'
p397
S'PPVVVP'
tp398
F1
s(g37
S'PAAVP'
tp399
F3
s(S'NP'
S'NAAPP'
tp400
F1
s(S'DP'
S'DDDDNNP'
tp401
F2
s(g383
S'VDDP'
tp402
F38
s(S'NP'
S'NNADVADVADVADVVVP'
tp403
F1
s(g303
S'ANPP'
tp404
F19
s(S'PP'
S'PPPPP'
tp405
F3
s(S'MP'
S'MPDP'
tp406
F12
s(g37
S'ADVADVPDP'
tp407
F2
s(S'MP'
S'MVVPP'
tp408
F1
s(g10
S'ADVDPP'
tp409
F19
s(S'VP'
S'ADVADVVADVAP'
tp410
F1
s(S'NP'
S'NPPPP'
tp411
F1
s(S'DP'
p412
S'ADDP'
tp413
F1
s(S'NP'
S'NADVAAP'
tp414
F2
s(S'CP'
S'CAADPP'
tp415
F1
s(S'NP'
p416
S'NAACP'
tp417
F3
s(g70
S'PNNP'
tp418
F46
s(g397
S'APNNP'
tp419
F3
s(S'MP'
S'MMNP'
tp420
F2
s(S'VP'
p421
S'AVAP'
tp422
F4
s(S'MP'
S'MMVP'
tp423
F10
s(S'NP'
p424
S'ADVNCP'
tp425
F10
s(S'DP'
p426
S'ADPP'
tp427
F33
s(S'MP'
S'MPDDP'
tp428
F3
s(S'CP'
p429
S'ACDP'
tp430
F17
s(S'PP'
S'PAAP'
tp431
F11
s(S'AP'
S'ADVANP'
tp432
F2
s(S'NP'
S'NNACP'
tp433
F1
s(S'CP'
p434
S'CDADVPPP'
tp435
F3
s(g383
S'VAP'
tp436
F102
s(g215
S'MNVVP'
tp437
F5
s(S'DP'
S'DDDPP'
tp438
F8
s(S'CP'
S'ADVCDDP'
tp439
F2
s(S'NP'
S'AANNCP'
tp440
F2
s(g51
S'ANADVCP'
tp441
F1
s(S'VP'
S'VADVMP'
tp442
F2
s(S'PP'
p443
S'PAAPP'
tp444
F1
s(S'AP'
S'AAVVP'
tp445
F1
s(S'MP'
S'MAVPP'
tp446
F1
s(g217
S'ADVAVDP'
tp447
F2
s(S'NP'
S'AANMP'
tp448
F1
s(g29
S'ADVVVDP'
tp449
F4
s(S'PP'
S'PAAMP'
tp450
F1
s(g14
S'PPPVP'
tp451
F2
s(S'VP'
p452
S'AAVAP'
tp453
F1
s(S'AP'
S'AADDP'
tp454
F2
s(S'PP'
S'PPPADVADVNP'
tp455
F1
s(S'MP'
p456
S'MAADP'
tp457
F1
s(g215
S'MADVNVP'
tp458
F1
s(S'VP'
S'VAANP'
tp459
F1
s(S'NP'
S'NADVADVCP'
tp460
F2
s(S'MP'
S'AMPP'
tp461
F1
s(S'MP'
S'MVVMP'
tp462
F1
s(S'MP'
p463
S'MVVVCP'
tp464
F1
s(S'MP'
p465
S'MPNP'
tp466
F7
s(S'AP'
S'ADVADVAMMP'
tp467
F1
s(S'MP'
S'MADP'
tp468
F3
s(S'PP'
p469
S'PPPDDP'
tp470
F1
s(S'AP'
S'AMMP'
tp471
F1
s(S'MP'
S'MVVACP'
tp472
F1
s(S'MP'
S'ADVAMNP'
tp473
F1
s(S'DP'
S'DDADVNP'
tp474
F2
s(S'PP'
S'PANP'
tp475
F22
s(S'DP'
S'AADNP'
tp476
F3
s(S'NP'
S'NADVDDP'
tp477
F1
s(S'NP'
p478
S'NADVADVNP'
tp479
F1
s(g51
S'ADVANPPP'
tp480
F1
s(S'AP'
p481
S'AAVP'
tp482
F2
s(g47
S'NAAP'
tp483
F7
s(S'NP'
S'NDDP'
tp484
F16
s(S'PP'
S'APPDDP'
tp485
F1
s(S'MP'
S'MVADVDP'
tp486
F2
s(S'AP'
p487
S'ACCP'
tp488
F6
s(S'VP'
S'AVPPP'
tp489
F1
s(g303
S'NDP'
tp490
F104
s(S'VP'
S'ADVVANP'
tp491
F1
s(S'NP'
S'NNADVADVDP'
tp492
F1
s(S'DP'
S'DDVP'
tp493
F33
s(S'NP'
S'ANADVADVDP'
tp494
F1
s(S'NP'
p495
S'AANVP'
tp496
F3
s(S'VP'
p497
S'ADVVADVCP'
tp498
F1
s(S'VP'
S'VNNNP'
tp499
F5
s(g25
S'VADVADVPP'
tp500
F2
s(S'PP'
S'ADVPAP'
tp501
F2
s(S'MP'
S'MMVVVP'
tp502
F1
s(S'PP'
S'PCP'
tp503
F1
s(S'NP'
S'NNPPP'
tp504
F1
s(S'MP'
S'MNAANP'
tp505
F1
s(S'PP'
S'PAADP'
tp506
F4
s(S'NP'
S'ADVNNVP'
tp507
F1
s(S'VP'
S'VPPPP'
tp508
F1
s(S'MP'
S'ADVADVAMPP'
tp509
F1
s(g452
S'VCCP'
tp510
F8
s(S'AP'
S'AADVAP'
tp511
F1
s(S'NP'
S'NNNDP'
tp512
F1
s(S'AP'
S'ADVACP'
tp513
F3
s(S'DP'
S'DDADVVP'
tp514
F2
s(g378
S'ADPPP'
tp515
F2
s(g215
S'MVCP'
tp516
F12
s(S'CP'
S'CCDDP'
tp517
F6
s(S'NP'
S'NNADVVP'
tp518
F5
s(S'MP'
S'MVADVADVADVVP'
tp519
F1
s(S'MP'
S'MVMP'
tp520
F1
s(S'VP'
p521
S'ADVVVVVP'
tp522
F1
s(S'VP'
S'VAMP'
tp523
F2
s(g426
S'DADVNP'
tp524
F7
s(S'NP'
S'NNNNVP'
tp525
F3
s(S'VP'
S'VVCP'
tp526
F20
s(S'NP'
S'AANCP'
tp527
F3
s(S'VP'
p528
S'VADVNP'
tp529
F8
s(S'MP'
S'MADVNACP'
tp530
F1
s(S'PP'
S'ADVPNNNNP'
tp531
F1
s(S'PP'
p532
S'APPP'
tp533
F4
s(S'PP'
S'PPADVANP'
tp534
F1
s(S'VP'
S'ADVVPP'
tp535
F3
s(g219
S'VNNP'
tp536
F29
s(S'AP'
S'AADVDP'
tp537
F1
s(S'NP'
S'NADP'
tp538
F4
s(S'MP'
S'AMADVADVNP'
tp539
F1
s(S'DP'
p540
S'DDNP'
tp541
F50
s(S'NP'
p542
S'NADVCP'
tp543
F8
s(g10
S'DDNNP'
tp544
F6
s(S'PP'
S'AAPADVNP'
tp545
F1
s(S'NP'
S'ADVANVP'
tp546
F3
s(S'NP'
S'ADVNAAP'
tp547
F1
s(S'MP'
S'MNVVVP'
tp548
F1
s(g478
S'ADVADVNCP'
tp549
F4
s(g104
S'DADVADVDP'
tp550
F1
s(S'DP'
S'AADPP'
tp551
F3
s(S'VP'
S'ADVVADVDP'
tp552
F1
s(S'NP'
S'NNNNPP'
tp553
F1
s(S'MP'
S'MAVAP'
tp554
F1
s(S'AP'
S'AAMMP'
tp555
F1
s(g443
S'AAPDP'
tp556
F2
s(S'NP'
S'NNADVADVADVCP'
tp557
F1
s(g189
S'MADVVDP'
tp558
F3
s(g215
S'MVVNP'
tp559
F6
s(S'CP'
S'ACDDP'
tp560
F3
s(S'MP'
S'ADVMNNP'
tp561
F1
s(g366
S'AAPP'
tp562
F7
s(g452
S'VVCCP'
tp563
F3
s(S'DP'
p564
S'DMMP'
tp565
F1
s(g215
S'MVADVADVPP'
tp566
F1
s(g564
S'DADVVVP'
tp567
F2
s(g102
S'DADVADVNP'
tp568
F2
s(S'NP'
S'ANNADVVP'
tp569
F1
s(g338
S'MPPVP'
tp570
F1
s(S'VP'
S'ADVADVADVADVVCP'
tp571
F1
s(S'VP'
S'VVVCCP'
tp572
F1
s(g424
S'NAPP'
tp573
F17
s(S'AP'
S'ADVADVADP'
tp574
F1
s(S'NP'
S'NADVDP'
tp575
F3
s(g338
S'MVADVADVAP'
tp576
F1
s(S'VP'
S'VVVCP'
tp577
F1
s(g287
S'ANCCP'
tp578
F8
s(g51
S'AANPP'
tp579
F7
s(S'VP'
S'VDDDP'
tp580
F3
s(g320
S'NNMP'
tp581
F13
s(S'CP'
S'ADVADVACDP'
tp582
F1
s(g495
S'NNADVCP'
tp583
F2
s(S'CP'
S'CADDPP'
tp584
F2
s(S'MP'
S'MAPDP'
tp585
F1
s(S'AP'
S'ADVAAAPP'
tp586
F1
s(g37
S'ADVADVPNP'
tp587
F1
s(S'PP'
S'PPPAP'
tp588
F2
s(S'CP'
S'CDDAPP'
tp589
F4
s(S'NP'
S'ANAP'
tp590
F3
s(S'MP'
S'MVAP'
tp591
F7
s(g70
S'PVP'
tp592
F177
s(S'VP'
S'VADVPPP'
tp593
F1
s(S'DP'
S'DADVAVP'
tp594
F1
s(g179
S'AAMVP'
tp595
F1
s(S'AP'
S'AADVDDP'
tp596
F1
s(S'NP'
S'ANNCP'
tp597
F5
s(S'AP'
S'AAAAACP'
tp598
F1
s(S'DP'
S'ADVADVADVDNP'
tp599
F2
s(S'PP'
S'PPDDP'
tp600
F3
s(g528
S'AVCP'
tp601
F2
s(S'DP'
S'DPP'
tp602
F315
s(g389
S'ADVNVP'
tp603
F10
s(g16
S'DDPP'
tp604
F69
s(S'DP'
S'ADVDADVVVP'
tp605
F1
s(g540
S'DANP'
tp606
F48
s(g481
S'ADVAMP'
tp607
F2
s(g360
S'NADVPP'
tp608
F3
s(S'AP'
S'AADVADVCP'
tp609
F1
s(S'PP'
S'ADVADVPPNP'
tp610
F1
s(g278
S'AAPPVP'
tp611
F1
s(S'NP'
S'NADVAPP'
tp612
F1
s(S'PP'
S'PDDDP'
tp613
F2
s(g421
S'VADVCP'
tp614
F2
s(S'PP'
S'PMMMP'
tp615
F1
s(g416
S'NNNNCP'
tp616
F1
s(g4
S'MDNP'
tp617
F13
s(S'NP'
S'NNAACP'
tp618
F1
s(S'NP'
S'NNNVVP'
tp619
F3
s(S'NP'
S'NAANP'
tp620
F1
s(S'DP'
p621
S'DCCP'
tp622
F2
s(S'DP'
S'AADDP'
tp623
F1
s(S'CP'
S'CDPPPPP'
tp624
F1
s(S'DP'
S'ADVADPP'
tp625
F3
s(S'VP'
S'VVVAP'
tp626
F2
s(g272
S'PDDP'
tp627
F34
s(S'PP'
S'PPADVADVAVP'
tp628
F1
s(S'MP'
S'MVDDP'
tp629
F5
s(g113
S'NNVP'
tp630
F51
s(S'PP'
S'PADVADVADVDP'
tp631
F1
s(S'PP'
S'PPPMP'
tp632
F1
s(S'DP'
S'DDDADVADVNP'
tp633
F1
s(S'NP'
p634
S'NNP'
tp635
F2
s(g82
S'VVDDP'
tp636
F2
s(S'DP'
S'DAANP'
tp637
F11
s(g456
S'MDADVNP'
tp638
F1
s(S'AP'
S'ADDP'
tp639
F25
s(S'MP'
S'MDPPP'
tp640
F1
s(S'PP'
S'ADVPPNP'
tp641
F2
s(g129
S'VADVADVADVVP'
tp642
F1
s(S'NP'
S'ADVADVNVVP'
tp643
F1
s(g469
S'ADVADVPADVNNNP'
tp644
F1
s(S'CP'
S'CADVADVDPP'
tp645
F1
s(S'CP'
S'ADVADVADVCDP'
tp646
F1
s(S'DP'
p647
S'DPPP'
tp648
F74
s(g45
S'NADVADVAAP'
tp649
F1
s(g412
S'DAVVP'
tp650
F1
s(S'VP'
S'VANNP'
tp651
F3
s(g18
S'NNAAPP'
tp652
F1
s(S'AP'
S'AVVP'
tp653
F1
s(S'DP'
S'DDADVADVNP'
tp654
F1
s(g137
S'ADVPNP'
tp655
F7
s(S'PP'
S'PPDP'
tp656
F33
s(g176
S'MAVDP'
tp657
F4
s(S'PP'
S'PAAAAAP'
tp658
F1
s(g532
S'APADVADVNP'
tp659
F1
s(S'DP'
S'DDCP'
tp660
F2
s(g358
S'VMMMP'
tp661
F2
s(S'AP'
S'AAAPP'
tp662
F1
s(g487
S'ADVADVAADP'
tp663
F1
s(S'DP'
S'ADVDADVNP'
tp664
F1
s(g113
S'NAP'
tp665
F65
s(g131
S'NNAAP'
tp666
F2
s(g162
S'VADVANP'
tp667
F1
s(S'MP'
S'MAADDP'
tp668
F1
s(S'VP'
S'VVP'
tp669
F41
s(S'NP'
p670
S'NNVVP'
tp671
F6
s(S'AP'
S'AAADP'
tp672
F4
s(S'PP'
S'APNP'
tp673
F18
s(g621
S'DDVVP'
tp674
F2
s(g25
S'VVVNP'
tp675
F3
s(g45
S'NAMP'
tp676
F1
s(S'MP'
S'MVANP'
tp677
F3
s(g634
S'NADVAMP'
tp678
F1
s(S'CP'
S'CDPP'
tp679
F277
s(S'MP'
S'MVVNNP'
tp680
F1
s(S'AP'
S'ADDDP'
tp681
F3
s(g429
S'ADVCADP'
tp682
F2
s(S'VP'
S'VVAANP'
tp683
F1
s(S'CP'
S'ADVCDP'
tp684
F10
s(S'AP'
S'ADVAAP'
tp685
F5
s(S'CP'
S'ADVACDP'
tp686
F1
s(g497
S'VADVADVDP'
tp687
F3
s(S'PP'
S'PPNNP'
tp688
F5
s(g465
S'MPPNP'
tp689
F2
s(S'PP'
S'PPMP'
tp690
F2
s(g37
S'PADVADVADVVVP'
tp691
F1
s(S'DP'
S'ADVADVDPP'
tp692
F5
s(g383
S'VDP'
tp693
F239
s(S'PP'
S'PPPADVNP'
tp694
F1
s(g184
S'NADVAP'
tp695
F4
s(S'AP'
S'ADVAADVDP'
tp696
F1
s(S'VP'
S'AVDDP'
tp697
F4
s(S'CP'
S'ADVADVCDDP'
tp698
F1
s(g647
S'DAP'
tp699
F37
s(S'CP'
p700
S'CADPP'
tp701
F22
s(g670
S'NADVAVP'
tp702
F1
s(S'PP'
S'PPAVP'
tp703
F1
s(S'VP'
S'AVPP'
tp704
F8
s(S'DP'
S'DDNNNNP'
tp705
F1
s(S'MP'
S'AMNP'
tp706
F1
s(S'AP'
S'AAAAAMP'
tp707
F1
s(S'CP'
S'ADVADVCADVDDP'
tp708
F1
s(S'CP'
S'CDPPPP'
tp709
F3
s(S'NP'
S'ADVNMP'
tp710
F3
s(g283
S'AAVDP'
tp711
F2
s(S'PP'
S'PANNP'
tp712
F2
s(S'NP'
S'NMMMP'
tp713
F1
s(g54
S'NNDDP'
tp714
F3
s(S'MP'
S'MVANNP'
tp715
F1
s(g10
S'DADVADVPP'
tp716
F1
s(S'DP'
S'DMP'
tp717
F7
s(S'PP'
S'PPPNP'
tp718
F2
s(S'NP'
S'NADVADVDP'
tp719
F1
s(g274
S'PPAANP'
tp720
F1
s(S'NP'
S'AAANPP'
tp721
F1
s(S'PP'
S'PADVADVNP'
tp722
F1
s(S'AP'
S'AADP'
tp723
F35
s(g542
S'NNADVVVP'
tp724
F3
s(g336
S'VADVPP'
tp725
F6
s(S'DP'
S'ADVDANP'
tp726
F1
s(S'PP'
S'PVVVVP'
tp727
F1
s(S'NP'
S'NNNADVADVADVADVVP'
tp728
F1
s(S'PP'
p729
S'ADVPVP'
tp730
F5
s(S'VP'
S'ADVADVADVVCCP'
tp731
F2
s(S'NP'
S'NNVVVP'
tp732
F2
s(S'PP'
S'PADVADVADVNP'
tp733
F1
s(g729
S'ADVPDP'
tp734
F6
s(S'MP'
S'MPVVP'
tp735
F1
s(S'NP'
S'NCP'
tp736
F219
s(S'CP'
S'CADVDPPP'
tp737
F1
s(g56
S'ADVVVPP'
tp738
F1
s(S'PP'
S'PPADVNNP'
tp739
F1
s(S'NP'
S'ADVANDP'
tp740
F1
s(S'DP'
S'ADVVP'
tp741
F1
s(S'VP'
S'VAADP'
tp742
F2
s(S'AP'
S'AAMP'
tp743
F4
s(g124
S'VADVADVADVDP'
tp744
F1
s(S'PP'
S'ADVPDDP'
tp745
F1
s(S'NP'
S'AANDP'
tp746
F2
s(g324
S'MVCCP'
tp747
F1
s(g269
S'DADVNNP'
tp748
F1
s(S'NP'
S'NNCCP'
tp749
F5
s(g463
S'MNVP'
tp750
F12
s(S'NP'
S'AANAP'
tp751
F1
s(g434
S'ADVADVCCDP'
tp752
F1
s(S'NP'
S'NNPP'
tp753
F21
s(g521
S'VAPP'
tp754
F8
s(S'VP'
S'ADVVDP'
tp755
F18
s(g426
S'DADVPP'
tp756
F16
s(g375
S'AMP'
tp757
F34
s(g158
S'CCADP'
tp758
F3
s(S'NP'
S'ADVNNCP'
tp759
F1
s(g117
S'ADVDAP'
tp760
F1
s(S'AP'
S'ADVAPP'
tp761
F7
s(g42
S'ADVPPVVP'
tp762
F1
s(S'CP'
S'AACDP'
tp763
F4
s(S'NP'
S'NADVADVACP'
tp764
F1
s(S'MP'
S'MDCCP'
tp765
F1
s(S'DP'
S'ADVDPPP'
tp766
F1
s(g16
S'DVP'
tp767
F189
s(g219
S'ADVVAP'
tp768
F10
s(S'NP'
S'ADVNPP'
tp769
F8
s(g25
S'ADVADVADVVVNP'
tp770
F1
s(g366
S'AVP'
tp771
F26
s(g113
S'NADVVP'
tp772
F18
s(S'VP'
S'ADVVPPP'
tp773
F1
s(g10
S'DDPPP'
tp774
F13
s(S'MP'
S'MDAANP'
tp775
F1
s(g389
S'NNAP'
tp776
F7
s(S'VP'
S'VADVADVAMP'
tp777
F1
s(S'PP'
S'ADVPPAP'
tp778
F1
s(g35
S'PPANP'
tp779
F3
s(S'MP'
S'MCDDP'
tp780
F1
s(g700
S'CDADVPP'
tp781
F10
s(g219
S'VNP'
tp782
F189
s(S'PP'
S'ADVPMMP'
tp783
F1
s(g196
S'VANP'
tp784
F19
s(S'VP'
S'VADVAP'
tp785
F12
s(g100
S'ADVNNCCCP'
tp786
F1
s(S'DP'
S'DDDANP'
tp787
F1
s(g64
S'PPADVNP'
tp788
F1
s(g274
S'AAPVVVP'
tp789
F1
s(S'NP'
S'NADVPPP'
tp790
F1
s.