ccollections
defaultdict
p1
(c__builtin__
float
p2
tRp3
(S'PP'
S'PPPPAAAAANP'
tp4
F1
s(S'MP'
S'MMDP'
tp5
F1
s(S'NP'
S'NAMP'
tp6
F6
s(S'NP'
p7
S'AANDDP'
tp8
F2
s(S'CP'
S'CAAADPP'
tp9
F1
s(S'DP'
S'DDMP'
tp10
F2
s(S'DP'
p11
S'ADDPP'
tp12
F5
s(S'DP'
S'ADVDAAVP'
tp13
F1
s(S'DP'
p14
S'DDAP'
tp15
F2
s(S'VP'
S'ADVVVNP'
tp16
F1
s(S'PP'
S'ADVADVADVPPVP'
tp17
F1
s(S'VP'
p18
S'VVVVP'
tp19
F1
s(S'NP'
p20
S'NADDP'
tp21
F1
s(S'AP'
S'AVVVP'
tp22
F1
s(S'PP'
p23
S'ADVADVPAP'
tp24
F1
s(S'PP'
p25
S'PAPP'
tp26
F7
s(S'PP'
p27
S'PADVNP'
tp28
F14
s(S'DP'
p29
S'DNP'
tp30
F214
s(S'DP'
p31
S'AADDNP'
tp32
F1
s(S'NP'
p33
S'ADVNDP'
tp34
F2
s(S'PP'
S'AAPDDP'
tp35
F2
s(S'CP'
p36
S'CDPPP'
tp37
F71
s(S'VP'
p38
S'VADP'
tp39
F19
s(S'VP'
S'ADVADVVAP'
tp40
F1
s(S'CP'
p41
S'CDAAPPP'
tp42
F1
s(g29
S'DAAP'
tp43
F6
s(g25
S'PPPPPP'
tp44
F1
s(S'VP'
S'VAVP'
tp45
F3
s(g23
S'APPDP'
tp46
F1
s(S'AP'
p47
S'AADVMP'
tp48
F1
s(S'DP'
p49
S'ADNNP'
tp50
F4
s(S'VP'
S'AVADVDP'
tp51
F1
s(S'VP'
p52
S'VADVVVP'
tp53
F1
s(S'AP'
S'AAP'
tp54
F12
s(S'PP'
S'APVP'
tp55
F16
s(S'MP'
S'MVDP'
tp56
F17
s(S'PP'
S'PADVANP'
tp57
F3
s(g27
S'PPPP'
tp58
F57
s(S'VP'
p59
S'VVVVDDP'
tp60
F1
s(S'AP'
S'ADVAPPP'
tp61
F2
s(S'DP'
S'DDDNP'
tp62
F2
s(g18
S'VACP'
tp63
F1
s(S'AP'
p64
S'AAAVP'
tp65
F1
s(S'PP'
p66
S'PPAAP'
tp67
F5
s(S'NP'
S'NNADVADVADVCP'
tp68
F1
s(S'NP'
p69
S'NNNNNCCCP'
tp70
F1
s(S'DP'
S'DADVVP'
tp71
F17
s(S'CP'
S'ADVADVCCADP'
tp72
F1
s(S'AP'
p73
S'AADVPP'
tp74
F1
s(S'MP'
S'MVVNNNP'
tp75
F1
s(S'NP'
p76
S'NADVACP'
tp77
F2
s(S'NP'
p78
S'NAAVVP'
tp79
F1
s(S'NP'
S'NCCCP'
tp80
F6
s(g41
S'CADVDAPP'
tp81
F1
s(S'VP'
p82
S'VCP'
tp83
F105
s(S'NP'
S'NMMP'
tp84
F7
s(S'VP'
p85
S'ADVVAAP'
tp86
F2
s(S'NP'
S'AAAANPP'
tp87
F1
s(S'DP'
p88
S'ADVDDDPP'
tp89
F1
s(S'VP'
S'ADVVCCP'
tp90
F2
s(S'PP'
S'ADVPADP'
tp91
F1
s(S'PP'
p92
S'PAP'
tp93
F97
s(S'MP'
p94
S'MMVVP'
tp95
F1
s(S'CP'
S'CDDADVADVADVPPP'
tp96
F1
s(S'PP'
p97
S'ADVPPVP'
tp98
F6
s(S'VP'
S'VADVNP'
tp99
F9
s(S'NP'
S'NNNAP'
tp100
F1
s(S'PP'
S'APVVP'
tp101
F5
s(S'CP'
S'CADPPPP'
tp102
F1
s(g27
S'PNP'
tp103
F218
s(S'VP'
p104
S'VVADVADVNP'
tp105
F1
s(S'PP'
p106
S'PAAADP'
tp107
F1
s(S'NP'
S'NADVADVADVAP'
tp108
F1
s(S'DP'
p109
S'DDP'
tp110
F50
s(S'MP'
S'MADVADVVAP'
tp111
F1
s(S'VP'
S'ADVVDDP'
tp112
F2
s(S'NP'
S'NNNPP'
tp113
F3
s(g20
S'NNDP'
tp114
F17
s(S'VP'
p115
S'ADVVVDDP'
tp116
F2
s(S'MP'
S'MCDP'
tp117
F4
s(S'NP'
S'ADVADVANAP'
tp118
F1
s(S'DP'
S'ADVADVADNP'
tp119
F1
s(S'MP'
S'MNAP'
tp120
F1
s(S'DP'
S'DAAAANP'
tp121
F1
s(S'NP'
p122
S'NMP'
tp123
F53
s(S'NP'
S'ADVNAPP'
tp124
F1
s(S'PP'
p125
S'PPPPPVVP'
tp126
F1
s(S'VP'
p127
S'AAVNP'
tp128
F5
s(S'VP'
p129
S'VMMP'
tp130
F1
s(g27
S'PDP'
tp131
F210
s(S'DP'
S'DDPPPPP'
tp132
F2
s(S'CP'
S'CCADVADVDP'
tp133
F1
s(S'CP'
S'CDAAPP'
tp134
F4
s(S'NP'
p135
S'ADVNVVP'
tp136
F4
s(S'MP'
S'MNNVP'
tp137
F2
s(S'DP'
p138
S'ADVVVVP'
tp139
F1
s(S'CP'
S'CDADVADVPPP'
tp140
F1
s(S'DP'
S'ADVADVDAPP'
tp141
F1
s(S'MP'
S'MNAAVVP'
tp142
F1
s(g20
S'NACCP'
tp143
F4
s(S'AP'
S'ANP'
tp144
F2
s(S'PP'
S'ADVPAAP'
tp145
F1
s(S'PP'
p146
S'PADVPP'
tp147
F1
s(S'VP'
S'AAVPP'
tp148
F2
s(S'VP'
S'VVADVNP'
tp149
F3
s(S'NP'
p150
S'ANVVVVP'
tp151
F1
s(S'PP'
p152
S'AAPPPP'
tp153
F1
s(S'PP'
S'ADVADVAPVP'
tp154
F1
s(g88
S'ADVDADVDDDP'
tp155
F1
s(g109
S'DPPPP'
tp156
F10
s(g14
S'DDANP'
tp157
F7
s(S'NP'
p158
S'NACP'
tp159
F19
s(g158
S'NCCP'
tp160
F73
s(S'AP'
S'AADVAPP'
tp161
F1
s(g129
S'VVCCCP'
tp162
F1
s(S'VP'
p163
S'VADVDDP'
tp164
F1
s(g158
S'NNCP'
tp165
F82
s(S'DP'
p166
S'ADVDDPP'
tp167
F8
s(S'NP'
S'NADVADVVP'
tp168
F1
s(S'NP'
p169
S'NNPPPP'
tp170
F1
s(S'DP'
p171
S'DDDDP'
tp172
F2
s(S'MP'
p173
S'MVVAAACP'
tp174
F1
s(S'PP'
p175
S'PNNNNNP'
tp176
F1
s(S'VP'
S'AVNP'
tp177
F22
s(S'NP'
p178
S'NNNNNCP'
tp179
F1
s(S'NP'
p180
S'ADVNDDP'
tp181
F1
s(S'NP'
p182
S'NADVADVPP'
tp183
F3
s(S'MP'
S'MAPP'
tp184
F1
s(S'VP'
S'ADVADVADVVVDP'
tp185
F2
s(S'PP'
S'ADVPVVP'
tp186
F1
s(S'PP'
S'ADVAPDP'
tp187
F1
s(S'PP'
S'AAPNP'
tp188
F2
s(S'DP'
p189
S'DDADVVP'
tp190
F2
s(S'CP'
S'ACCDDP'
tp191
F1
s(S'MP'
p192
S'MVAPP'
tp193
F1
s(S'MP'
S'MVPPP'
tp194
F2
s(S'PP'
p195
S'ADVPAPP'
tp196
F1
s(S'MP'
p197
S'AMMVP'
tp198
F1
s(S'NP'
S'NCCCCP'
tp199
F2
s(S'CP'
p200
S'CCCDP'
tp201
F8
s(S'VP'
S'ADVVAP'
tp202
F4
s(S'DP'
S'DDADVADVADVPPP'
tp203
F1
s(S'PP'
p204
S'APDP'
tp205
F24
s(S'NP'
S'AANNCCP'
tp206
F1
s(S'AP'
p207
S'AADVCP'
tp208
F1
s(S'VP'
p209
S'VVANP'
tp210
F2
s(S'VP'
p211
S'VVVVDP'
tp212
F1
s(S'VP'
S'ADVVVP'
tp213
F3
s(S'VP'
S'AVVADVNP'
tp214
F1
s(S'MP'
p215
S'MADVADVADVVVDP'
tp216
F1
s(S'NP'
S'ADVNCCP'
tp217
F4
s(S'PP'
p218
S'PAAP'
tp219
F20
s(S'NP'
S'ADVANCP'
tp220
F5
s(g29
S'DNNP'
tp221
F73
s(S'CP'
p222
S'CADVDDPP'
tp223
F6
s(S'DP'
S'DPPPPP'
tp224
F3
s(S'CP'
S'CDDPPPP'
tp225
F4
s(S'CP'
S'CCADVDP'
tp226
F6
s(S'VP'
S'VVNNNP'
tp227
F4
s(g82
S'VVACP'
tp228
F1
s(S'DP'
p229
S'ADDNP'
tp230
F1
s(S'NP'
S'NNNVP'
tp231
F4
s(S'DP'
p232
S'ADVADVDCP'
tp233
F1
s(S'PP'
p234
S'AAPPDP'
tp235
F2
s(S'VP'
p236
S'ADVVAANNP'
tp237
F1
s(S'PP'
S'PADVVP'
tp238
F7
s(S'DP'
S'DADVADVADVPPP'
tp239
F3
s(S'PP'
p240
S'APAP'
tp241
F4
s(S'AP'
p242
S'APP'
tp243
F25
s(S'NP'
p244
S'NAPPP'
tp245
F1
s(S'NP'
S'NADVMP'
tp246
F2
s(g200
S'CADDPPP'
tp247
F1
s(S'VP'
p248
S'VADVADVVP'
tp249
F1
s(g59
S'VVAPP'
tp250
F2
s(g52
S'VVVVPP'
tp251
F2
s(S'VP'
S'VADVADVNP'
tp252
F1
s(S'CP'
S'CDDDDPP'
tp253
F1
s(g240
S'PAANP'
tp254
F3
s(S'NP'
S'NADVADVPPP'
tp255
F1
s(S'PP'
p256
S'PPVVP'
tp257
F16
s(g49
S'DDDDADVPP'
tp258
F1
s(S'MP'
S'MVNP'
tp259
F19
s(S'MP'
S'AMVP'
tp260
F7
s(S'NP'
p261
S'NNANP'
tp262
F1
s(S'VP'
S'VVVAAANNP'
tp263
F1
s(S'CP'
S'CDDDPPP'
tp264
F4
s(S'DP'
S'ADVADNP'
tp265
F1
s(g27
S'PAVP'
tp266
F35
s(S'CP'
S'ADVCDDDP'
tp267
F1
s(S'PP'
S'ADVAPNNP'
tp268
F1
s(S'VP'
S'ADVVMP'
tp269
F2
s(S'DP'
S'DDAPPP'
tp270
F1
s(S'VP'
S'VVVPP'
tp271
F4
s(S'MP'
p272
S'MDVP'
tp273
F1
s(S'NP'
p274
S'ADVADVADVANADVADVADVVVP'
tp275
F1
s(S'PP'
p276
S'APPPP'
tp277
F2
s(S'DP'
p278
S'DADP'
tp279
F5
s(S'AP'
p280
S'ADVADP'
tp281
F5
s(S'NP'
p282
S'NAMMP'
tp283
F1
s(S'VP'
p284
S'VVADVPP'
tp285
F1
s(S'PP'
p286
S'APDDP'
tp287
F4
s(S'VP'
S'ADVADVVVNP'
tp288
F1
s(g59
S'ADVADVVANP'
tp289
F1
s(S'NP'
S'NADVDP'
tp290
F3
s(S'NP'
S'ANADVADVADVCCP'
tp291
F1
s(S'VP'
S'ADVVNP'
tp292
F18
s(S'PP'
S'PPVVVVVP'
tp293
F1
s(S'MP'
S'MNCP'
tp294
F1
s(S'VP'
p295
S'VVNP'
tp296
F51
s(S'PP'
S'ADVPPPP'
tp297
F3
s(g256
S'PPVP'
tp298
F49
s(g82
S'VADVDP'
tp299
F5
s(S'NP'
p300
S'ANAVVVP'
tp301
F1
s(S'VP'
S'VAAP'
tp302
F15
s(S'NP'
p303
S'NNADVAVP'
tp304
F1
s(g7
S'ANDP'
tp305
F13
s(g158
S'NVVP'
tp306
F74
s(S'PP'
S'AAPVP'
tp307
F1
s(S'PP'
S'PPADP'
tp308
F2
s(S'VP'
S'VMP'
tp309
F9
s(g33
S'ANPPPP'
tp310
F1
s(S'VP'
p311
S'VVNNP'
tp312
F13
s(S'CP'
S'CDAPP'
tp313
F30
s(S'VP'
S'VVAAP'
tp314
F1
s(S'MP'
S'MMPP'
tp315
F2
s(S'CP'
p316
S'ADVCDP'
tp317
F20
s(S'DP'
S'ADVADVP'
tp318
F1
s(S'CP'
S'CADVADPP'
tp319
F1
s(S'DP'
p320
S'ADNP'
tp321
F20
s(S'DP'
S'AADAP'
tp322
F1
s(S'VP'
p323
S'VVVVCP'
tp324
F2
s(S'VP'
S'ADVVVCP'
tp325
F2
s(S'NP'
p326
S'ANDDP'
tp327
F1
s(S'AP'
S'AAADVAP'
tp328
F1
s(S'DP'
S'ADVADVDVP'
tp329
F1
s(S'VP'
p330
S'VVVDDP'
tp331
F2
s(S'VP'
S'VVVVVDP'
tp332
F1
s(S'DP'
S'DDADVDP'
tp333
F1
s(g14
S'DAPP'
tp334
F47
s(g209
S'AVVP'
tp335
F3
s(S'DP'
S'DAAVP'
tp336
F2
s(S'MP'
S'MDDNP'
tp337
F1
s(S'MP'
S'MNDDP'
tp338
F1
s(S'VP'
p339
S'ADVADVVDP'
tp340
F2
s(S'VP'
S'AVVNP'
tp341
F2
s(S'PP'
S'PPPDP'
tp342
F5
s(S'DP'
p343
S'DAAPPP'
tp344
F2
s(S'AP'
S'AAPPP'
tp345
F1
s(S'VP'
p346
S'VDDDDP'
tp347
F1
s(S'DP'
S'DADVANP'
tp348
F2
s(S'VP'
S'VAAPP'
tp349
F1
s(g29
S'ADVDNP'
tp350
F10
s(g82
S'VVPP'
tp351
F36
s(S'CP'
S'CCADDP'
tp352
F1
s(g31
S'ADADVPP'
tp353
F1
s(g27
S'PAVVP'
tp354
F2
s(S'MP'
S'MVPP'
tp355
F9
s(g166
S'ADVP'
tp356
F11
s(S'MP'
S'MVADP'
tp357
F2
s(S'CP'
S'CDDPPP'
tp358
F18
s(g52
S'ADVVVDP'
tp359
F3
s(S'DP'
p360
S'DADVDP'
tp361
F1
s(g195
S'APAAAP'
tp362
F2
s(g261
S'NNPP'
tp363
F42
s(S'NP'
S'NADVADVDP'
tp364
F1
s(g320
S'DDDDNP'
tp365
F4
s(S'MP'
S'MVVDP'
tp366
F3
s(S'DP'
p367
S'DADVPPP'
tp368
F9
s(g158
S'ANVP'
tp369
F23
s(S'CP'
p370
S'ADVADVACADP'
tp371
F1
s(S'DP'
p372
S'DNNNP'
tp373
F3
s(S'NP'
S'ADVADVADVNCP'
tp374
F1
s(S'DP'
S'ADVDDVP'
tp375
F2
s(S'PP'
S'PADVADVVP'
tp376
F2
s(S'NP'
p377
S'ADVANVVP'
tp378
F2
s(S'VP'
S'ADVVCP'
tp379
F6
s(S'PP'
S'PVVVP'
tp380
F4
s(S'PP'
S'PMP'
tp381
F14
s(S'NP'
p382
S'NNMMP'
tp383
F2
s(S'DP'
S'ADVADVDPP'
tp384
F2
s(g36
S'CCDP'
tp385
F80
s(S'NP'
S'ANNDP'
tp386
F1
s(S'VP'
S'VADVANP'
tp387
F1
s(S'PP'
S'PPNNNP'
tp388
F3
s(S'VP'
S'VADVADVANP'
tp389
F2
s(S'NP'
S'NVVVP'
tp390
F8
s(S'CP'
S'CDDDPP'
tp391
F8
s(g316
S'CDADVADVPP'
tp392
F4
s(S'VP'
p393
S'VVVDP'
tp394
F6
s(g152
S'PDDDDP'
tp395
F1
s(g92
S'PNNNP'
tp396
F10
s(S'CP'
S'CCCCDP'
tp397
F2
s(S'VP'
S'VAAPPP'
tp398
F1
s(g286
S'ADVADVADVPPVVP'
tp399
F1
s(S'AP'
S'ADVAAAP'
tp400
F1
s(S'CP'
S'CADADVPP'
tp401
F1
s(S'PP'
S'AAPADVDP'
tp402
F1
s(g286
S'PADVVVP'
tp403
F1
s(g27
S'PPP'
tp404
F131
s(S'NP'
S'NNADVDP'
tp405
F2
s(S'NP'
p406
S'NAVP'
tp407
F19
s(g36
S'ADVADVCDDP'
tp408
F2
s(S'DP'
S'DDNNNP'
tp409
F1
s(S'MP'
S'AMDP'
tp410
F1
s(g248
S'ADVVAPP'
tp411
F1
s(S'VP'
p412
S'ADVVVAADP'
tp413
F1
s(S'DP'
p414
S'ADVDVP'
tp415
F10
s(g178
S'NAAAP'
tp416
F1
s(S'NP'
S'NADVVVP'
tp417
F5
s(g360
S'DADVADVPPP'
tp418
F2
s(S'DP'
p419
S'ADVADVDNP'
tp420
F2
s(S'AP'
S'AAAAADVCP'
tp421
F1
s(g82
S'VPP'
tp422
F151
s(S'CP'
S'ADVCCDP'
tp423
F1
s(S'CP'
p424
S'ACCDP'
tp425
F3
s(S'DP'
S'ADVDDNP'
tp426
F4
s(g122
S'NNNCP'
tp427
F9
s(S'PP'
p428
S'PADVDP'
tp429
F14
s(S'CP'
S'CDADVAPP'
tp430
F2
s(S'AP'
S'ADVAADP'
tp431
F1
s(S'DP'
p432
S'DANNP'
tp433
F3
s(S'PP'
S'PADVAAP'
tp434
F1
s(S'CP'
p435
S'CDDPP'
tp436
F70
s(g372
S'DAAPP'
tp437
F9
s(S'PP'
S'PVVP'
tp438
F48
s(S'CP'
S'CADPPP'
tp439
F7
s(S'AP'
S'AACP'
tp440
F12
s(g211
S'ADVAVDDP'
tp441
F1
s(S'MP'
S'MAVCP'
tp442
F1
s(S'PP'
S'PMMP'
tp443
F1
s(S'MP'
S'MCCDP'
tp444
F1
s(g311
S'VPPP'
tp445
F33
s(S'DP'
p446
S'ADAAPPPP'
tp447
F1
s(S'VP'
S'AVVVDP'
tp448
F2
s(S'CP'
S'CDADVADVAPP'
tp449
F1
s(g311
S'VVPPP'
tp450
F10
s(S'VP'
S'ADVVVCCP'
tp451
F1
s(g180
S'ADVNAMP'
tp452
F1
s(g428
S'PPAP'
tp453
F15
s(g360
S'DVVP'
tp454
F34
s(S'MP'
S'ADVMVP'
tp455
F3
s(S'CP'
S'ADVACDDP'
tp456
F1
s(S'NP'
p457
S'ANMP'
tp458
F6
s(S'AP'
S'APPP'
tp459
F6
s(S'PP'
S'ADVPPP'
tp460
F7
s(g311
S'VVVP'
tp461
F14
s(S'DP'
p462
S'DDPPPP'
tp463
F4
s(g158
S'ANCP'
tp464
F37
s(g432
S'DCP'
tp465
F21
s(S'VP'
S'VAAACP'
tp466
F1
s(S'NP'
S'NNDDDDP'
tp467
F2
s(S'VP'
S'ADVVVVP'
tp468
F1
s(S'NP'
S'NNVVVVP'
tp469
F1
s(S'PP'
p470
S'ADVADVADVPPNP'
tp471
F2
s(g343
S'DDDP'
tp472
F13
s(S'MP'
S'ADVMCP'
tp473
F1
s(g414
S'DDADVPP'
tp474
F6
s(S'CP'
S'CADVADVADPP'
tp475
F1
s(S'NP'
p476
S'ANVVP'
tp477
F2
s(g20
S'NVVVVP'
tp478
F3
s(S'NP'
S'ANPPP'
tp479
F2
s(S'NP'
S'NPPP'
tp480
F34
s(g470
S'PPAPP'
tp481
F1
s(S'NP'
S'ANCCCCP'
tp482
F1
s(g414
S'DAVP'
tp483
F16
s(S'VP'
p484
S'ADVAVCP'
tp485
F2
s(g64
S'ACP'
tp486
F43
s(g484
S'AVVVVP'
tp487
F1
s(g27
S'PPNP'
tp488
F67
s(S'AP'
S'ADVACCP'
tp489
F2
s(S'NP'
p490
S'NAADP'
tp491
F2
s(g343
S'ADVDAPP'
tp492
F2
s(S'CP'
S'CDDPPPPP'
tp493
F1
s(S'DP'
S'AADVP'
tp494
F2
s(g222
S'CDDADVPP'
tp495
F5
s(S'CP'
p496
S'CCCDDP'
tp497
F1
s(g242
S'ADP'
tp498
F157
s(S'PP'
S'ADVPPDDP'
tp499
F1
s(S'NP'
p500
S'ANADVADVACP'
tp501
F1
s(S'CP'
S'CADVDPP'
tp502
F12
s(S'PP'
S'ADVADVPPMP'
tp503
F1
s(S'CP'
p504
S'ADVCADVDDP'
tp505
F1
s(S'DP'
S'ADVDAAPP'
tp506
F1
s(S'NP'
S'ADVANCCP'
tp507
F1
s(S'NP'
p508
S'AAANNCP'
tp509
F1
s(g171
S'ADVADVDDNP'
tp510
F1
s(g82
S'AVDP'
tp511
F26
s(S'NP'
S'ANNVP'
tp512
F1
s(g311
S'VVAP'
tp513
F15
s(S'NP'
p514
S'NNAPP'
tp515
F4
s(S'NP'
p516
S'NADVAP'
tp517
F1
s(g382
S'NNADVADVADVVP'
tp518
F1
s(g316
S'ADVACDP'
tp519
F2
s(S'PP'
S'PPADVVP'
tp520
F3
s(S'VP'
p521
S'AAVCP'
tp522
F1
s(g69
S'AAAAANADVADVADVADVADVADVAVP'
tp523
F1
s(g69
S'NNNP'
tp524
F3
s(g158
S'NVP'
tp525
F202
s(S'PP'
S'PPVVVP'
tp526
F3
s(S'PP'
S'PAAVP'
tp527
F4
s(g178
S'NAAPP'
tp528
F1
s(S'PP'
S'PPPPVP'
tp529
F2
s(g236
S'VDDP'
tp530
F40
s(g11
S'DAPPP'
tp531
F2
s(S'AP'
S'ADVADVADVADP'
tp532
F1
s(S'NP'
S'ADVADVNACP'
tp533
F1
s(S'AP'
S'AAADVDP'
tp534
F2
s(S'NP'
S'AANNVP'
tp535
F1
s(S'DP'
S'DMP'
tp536
F5
s(S'DP'
S'DADVAPP'
tp537
F4
s(g516
S'NNAP'
tp538
F7
s(S'NP'
S'ANCCCP'
tp539
F1
s(S'NP'
S'ANPP'
tp540
F25
s(S'PP'
S'ADVPPDP'
tp541
F1
s(S'PP'
p542
S'PPPPP'
tp543
F6
s(S'MP'
p544
S'MPDP'
tp545
F2
s(S'PP'
p546
S'ADVADVPDP'
tp547
F1
s(S'MP'
S'MVVPP'
tp548
F3
s(S'DP'
S'ADVDPP'
tp549
F20
s(S'DP'
p550
S'ADDP'
tp551
F2
s(g150
S'NADVAAP'
tp552
F1
s(S'CP'
S'CDDDADVPP'
tp553
F1
s(g125
S'PPPPPPP'
tp554
F1
s(g504
S'CAADPP'
tp555
F3
s(S'DP'
p556
S'DADVADVVP'
tp557
F3
s(S'NP'
S'NAACP'
tp558
F1
s(g27
S'PNNP'
tp559
F68
s(g248
S'VADVACP'
tp560
F1
s(S'CP'
S'CDADVADVADVPPP'
tp561
F3
s(S'PP'
p562
S'APNNP'
tp563
F8
s(g189
S'DDAAP'
tp564
F1
s(S'AP'
S'AAPPPPP'
tp565
F1
s(g232
S'AAADPP'
tp566
F1
s(S'VP'
S'AVAP'
tp567
F5
s(S'MP'
S'MMVP'
tp568
F8
s(g286
S'PADVDDP'
tp569
F3
s(g500
S'ADVNCP'
tp570
F15
s(g419
S'DDADVADVPP'
tp571
F3
s(g29
S'ADPP'
tp572
F49
s(S'MP'
S'MPDDP'
tp573
F1
s(g38
S'VAPPP'
tp574
F2
s(g36
S'ACDP'
tp575
F22
s(g182
S'NADVDDP'
tp576
F1
s(S'NP'
p577
S'NNACP'
tp578
F2
s(g272
S'MDNNP'
tp579
F1
s(g424
S'CDADVPPP'
tp580
F5
s(g311
S'VAP'
tp581
F103
s(g295
S'VVVVNP'
tp582
F1
s(g556
S'DDDPP'
tp583
F13
s(S'CP'
S'ADVCDDP'
tp584
F4
s(S'VP'
p585
S'VADVMP'
tp586
F1
s(S'PP'
p587
S'PAAPP'
tp588
F1
s(S'PP'
p589
S'AAPAAP'
tp590
F1
s(S'AP'
S'AAVVP'
tp591
F1
s(g244
S'NNPPPPP'
tp592
F1
s(S'DP'
S'DDDPPP'
tp593
F6
s(S'VP'
S'ADVADVADVADVADVADVAVNP'
tp594
F1
s(S'NP'
S'ADVADVANCCP'
tp595
F1
s(S'PP'
S'APADVVP'
tp596
F2
s(S'AP'
S'AAACP'
tp597
F2
s(S'DP'
S'ADADVVP'
tp598
F1
s(S'AP'
S'AVVP'
tp599
F6
s(g195
S'APCCCP'
tp600
F1
s(g542
S'PPPVP'
tp601
F2
s(S'VP'
S'AAVAP'
tp602
F1
s(S'AP'
p603
S'AADDP'
tp604
F3
s(g446
S'ADADVADVNP'
tp605
F1
s(g516
S'NNAVVP'
tp606
F1
s(S'VP'
S'VAANP'
tp607
F3
s(g286
S'ADVPACP'
tp608
F1
s(S'NP'
S'NADVADVCP'
tp609
F2
s(S'VP'
p610
S'VVDP'
tp611
F41
s(S'PP'
S'PAAAAP'
tp612
F2
s(S'MP'
S'MPNP'
tp613
F3
s(S'MP'
p614
S'MADP'
tp615
F1
s(g326
S'NNNDDP'
tp616
F1
s(g163
S'AAVVNP'
tp617
F1
s(S'CP'
p618
S'CCAADP'
tp619
F2
s(S'DP'
S'DDADVNP'
tp620
F1
s(g27
S'PANP'
tp621
F37
s(g618
S'CCCDDDDP'
tp622
F1
s(S'DP'
S'ADVADPP'
tp623
F1
s(S'PP'
S'PAAAVVP'
tp624
F1
s(S'AP'
S'AAVP'
tp625
F5
s(g303
S'NAAP'
tp626
F11
s(g346
S'VADVADVAP'
tp627
F2
s(S'NP'
S'NDDP'
tp628
F18
s(S'CP'
S'ADVADVCDP'
tp629
F2
s(g603
S'ACCP'
tp630
F9
s(S'DP'
p631
S'DDDDPPPPP'
tp632
F1
s(S'NP'
S'ADVADVANCP'
tp633
F1
s(S'DP'
S'DDDADVPP'
tp634
F1
s(g610
S'AVPPP'
tp635
F2
s(S'PP'
S'ADVPAANP'
tp636
F1
s(g158
S'NDP'
tp637
F120
s(S'PP'
p638
S'PADVADVADVNP'
tp639
F1
s(S'PP'
S'PPPVVVP'
tp640
F1
s(g320
S'DDVP'
tp641
F31
s(S'DP'
S'DAADVPP'
tp642
F1
s(g76
S'AANVP'
tp643
F3
s(S'DP'
S'DADVADVAPP'
tp644
F1
s(g14
S'ADDVP'
tp645
F1
s(g236
S'VNNNP'
tp646
F4
s(S'VP'
S'AVCCCP'
tp647
F1
s(g276
S'ADVPAP'
tp648
F4
s(g544
S'MMVVVP'
tp649
F1
s(S'PP'
S'PCP'
tp650
F8
s(S'NP'
S'NNPPP'
tp651
F10
s(g146
S'PAADDP'
tp652
F1
s(S'PP'
S'PAADP'
tp653
F2
s(S'NP'
S'ADVNNVP'
tp654
F2
s(S'VP'
S'VPPPP'
tp655
F2
s(S'NP'
S'ANNPP'
tp656
F2
s(g85
S'VCCP'
tp657
F19
s(g244
S'ANNAP'
tp658
F1
s(g280
S'AADVAP'
tp659
F1
s(S'NP'
S'NNNDP'
tp660
F2
s(S'CP'
S'AAACDDP'
tp661
F2
s(S'AP'
S'ADVACP'
tp662
F4
s(g106
S'AAPNNP'
tp663
F1
s(S'PP'
S'PAPPP'
tp664
F2
s(S'DP'
S'ADPPP'
tp665
F11
s(S'CP'
S'CDAADVPP'
tp666
F1
s(S'MP'
S'MVCP'
tp667
F10
s(S'CP'
S'CCDDP'
tp668
F23
s(g20
S'ANAAPPP'
tp669
F1
s(S'AP'
S'ADVADVACP'
tp670
F1
s(g412
S'ADVADVADVVPP'
tp671
F1
s(S'DP'
p672
S'DDADP'
tp673
F1
s(S'DP'
S'AAADNP'
tp674
F1
s(g300
S'NNVVP'
tp675
F11
s(S'PP'
p676
S'PPADVPPP'
tp677
F1
s(S'NP'
S'NNNNVP'
tp678
F2
s(S'VP'
S'VVCP'
tp679
F28
s(S'VP'
S'VVMP'
tp680
F4
s(S'MP'
S'MVAANP'
tp681
F1
s(g152
S'PADVADVPP'
tp682
F1
s(S'DP'
S'ADVDMP'
tp683
F1
s(S'NP'
S'AANCP'
tp684
F4
s(S'VP'
p685
S'VVVADVDP'
tp686
F1
s(S'AP'
S'ADVAVVP'
tp687
F1
s(g7
S'NNDDP'
tp688
F7
s(g311
S'ADVVPP'
tp689
F6
s(S'VP'
S'VVADVANP'
tp690
F2
s(g370
S'CDAPPP'
tp691
F2
s(S'VP'
S'VNNP'
tp692
F53
s(S'AP'
S'AADVDP'
tp693
F4
s(g11
S'ADVDADVVP'
tp694
F1
s(g406
S'NADP'
tp695
F10
s(g320
S'DDNP'
tp696
F60
s(S'CP'
S'ACADVDP'
tp697
F1
s(S'NP'
p698
S'NADVCP'
tp699
F21
s(S'DP'
S'DDNNP'
tp700
F23
s(S'CP'
S'CDDADVADVPP'
tp701
F1
s(g25
S'PADVADVVVP'
tp702
F2
s(g508
S'ADVNAAP'
tp703
F1
s(g175
S'APCP'
tp704
F1
s(S'AP'
S'AADVADP'
tp705
F1
s(g377
S'ADVADVNCP'
tp706
F2
s(S'AP'
S'AAADVVP'
tp707
F1
s(S'AP'
S'ADVADDP'
tp708
F1
s(g631
S'AADPP'
tp709
F4
s(S'VP'
S'ADVVADVDP'
tp710
F1
s(g546
S'APPNP'
tp711
F3
s(S'NP'
S'NNNNPP'
tp712
F3
s(S'PP'
p713
S'ADVADVPPDP'
tp714
F1
s(S'VP'
S'VVMMP'
tp715
F2
s(g589
S'AAPPPNP'
tp716
F1
s(g173
S'MADVVNP'
tp717
F1
s(S'PP'
S'ADVPDDP'
tp718
F1
s(S'CP'
S'CDPPPPP'
tp719
F2
s(S'MP'
S'MVAAAP'
tp720
F1
s(S'NP'
p721
S'NADVADVCCP'
tp722
F2
s(S'MP'
S'MVVNP'
tp723
F3
s(S'CP'
S'CDDADVPPP'
tp724
F2
s(S'PP'
S'ADVAPVP'
tp725
F1
s(S'DP'
S'ADVDNNP'
tp726
F1
s(S'CP'
S'ACDDP'
tp727
F4
s(g476
S'ADVADVNNCP'
tp728
F1
s(g614
S'MVDDDDP'
tp729
F1
s(S'AP'
p730
S'AAPP'
tp731
F10
s(S'AP'
S'ADVADVACCP'
tp732
F1
s(g18
S'VVCCP'
tp733
F5
s(g166
S'DADVVVP'
tp734
F3
s(g229
S'DAAAPP'
tp735
F1
s(S'VP'
S'VADVADP'
tp736
F1
s(S'VP'
S'VVVCCP'
tp737
F1
s(g158
S'NAPP'
tp738
F21
s(g218
S'APPVP'
tp739
F3
s(g47
S'ADVADVADP'
tp740
F1
s(g73
S'ADVAAVP'
tp741
F1
s(g330
S'VVVCP'
tp742
F1
s(g169
S'ANCCP'
tp743
F4
s(g457
S'AANPP'
tp744
F4
s(S'VP'
S'VDDDP'
tp745
F2
s(g698
S'NNMP'
tp746
F10
s(S'DP'
S'DDDVP'
tp747
F1
s(g490
S'NNADVCP'
tp748
F1
s(g370
S'CADDPP'
tp749
F3
s(g562
S'ADVADVPNP'
tp750
F3
s(g256
S'PPPAP'
tp751
F3
s(S'CP'
S'CDDAPP'
tp752
F3
s(g135
S'ANAP'
tp753
F2
s(S'MP'
S'MVAP'
tp754
F6
s(S'CP'
S'CCCCADVADVADP'
tp755
F1
s(g27
S'PVP'
tp756
F195
s(g59
S'VADVPPP'
tp757
F1
s(S'DP'
S'DADVAVP'
tp758
F1
s(S'AP'
S'ADVADVAPP'
tp759
F1
s(S'PP'
p760
S'PPADVVVP'
tp761
F1
s(g339
S'VADVCCP'
tp762
F1
s(S'NP'
S'NNNNNVP'
tp763
F1
s(S'VP'
S'AAAVVPP'
tp764
F1
s(g166
S'DVVVP'
tp765
F6
s(S'PP'
S'PPADVPP'
tp766
F1
s(g106
S'PADVAP'
tp767
F2
s(g7
S'AANNPPP'
tp768
F1
s(S'NP'
S'AANADVANP'
tp769
F1
s(g218
S'PPDDP'
tp770
F10
s(g323
S'AVCP'
tp771
F6
s(S'NP'
p772
S'NADVADVAP'
tp773
F2
s(S'NP'
S'NAVVP'
tp774
F2
s(g29
S'DPP'
tp775
F255
s(g158
S'ADVNVP'
tp776
F9
s(g29
S'DDPP'
tp777
F105
s(S'DP'
S'DDADVPPP'
tp778
F2
s(S'DP'
S'DDAVP'
tp779
F2
s(S'DP'
S'DANP'
tp780
F37
s(S'AP'
S'ADVAMP'
tp781
F1
s(S'NP'
p782
S'NADVPP'
tp783
F10
s(S'AP'
S'AADVADVCP'
tp784
F1
s(S'PP'
S'AAPPVP'
tp785
F2
s(g158
S'NAAVP'
tp786
F4
s(S'DP'
S'ADVADVADPP'
tp787
F2
s(S'MP'
S'MAADVAP'
tp788
F1
s(g171
S'AADNP'
tp789
F3
s(g127
S'VADVCP'
tp790
F6
s(g25
S'PPPVVP'
tp791
F1
s(S'NP'
S'NNNNCP'
tp792
F1
s(S'MP'
S'MDNP'
tp793
F4
s(S'PP'
S'PPAANNP'
tp794
F1
s(g367
S'ADDPPP'
tp795
F2
s(g97
S'PADVPPP'
tp796
F3
s(S'PP'
S'ADVADVPPP'
tp797
F1
s(g587
S'AAPDP'
tp798
F5
s(S'MP'
S'MADVVDP'
tp799
F1
s(S'VP'
p800
S'AVVDP'
tp801
F3
s(g713
S'PDDP'
tp802
F55
s(S'MP'
S'MVDDP'
tp803
F5
s(S'AP'
S'AAAADP'
tp804
F1
s(S'PP'
S'ADVAPNP'
tp805
F2
s(S'DP'
S'DAANP'
tp806
F10
s(g158
S'NNVP'
tp807
F65
s(S'NP'
S'NADVADVVVP'
tp808
F1
s(S'PP'
S'PPPMP'
tp809
F1
s(g713
S'APAAP'
tp810
F3
s(g500
S'NNP'
tp811
F2
s(S'VP'
S'VVDDP'
tp812
F10
s(g7
S'NNNADVVP'
tp813
F3
s(S'AP'
S'ADDP'
tp814
F25
s(g382
S'NAAAADP'
tp815
F1
s(S'PP'
S'PNNNNP'
tp816
F2
s(g78
S'ANNCP'
tp817
F2
s(g393
S'ADVVVAP'
tp818
F2
s(g234
S'ADVPPNP'
tp819
F5
s(S'NP'
S'ADVADVNVVP'
tp820
F1
s(S'MP'
S'MDAP'
tp821
F2
s(g496
S'CADVADVDPP'
tp822
F2
s(S'CP'
S'ADVADVADVCDP'
tp823
F1
s(g29
S'DPPP'
tp824
F97
s(S'DP'
S'DAVVP'
tp825
F1
s(S'DP'
S'AADPPP'
tp826
F1
s(S'CP'
S'ADVADVADVCCDP'
tp827
F1
s(g585
S'VANNP'
tp828
F1
s(g782
S'NNAVP'
tp829
F1
s(g82
S'AVVCP'
tp830
F1
s(g772
S'NMMMP'
tp831
F1
s(S'PP'
p832
S'ADVPNP'
tp833
F17
s(S'NP'
S'NNADVVP'
tp834
F2
s(g256
S'PPDP'
tp835
F64
s(g192
S'MAVDP'
tp836
F1
s(g23
S'ADVPPPAVP'
tp837
F1
s(g360
S'DDCP'
tp838
F2
s(g248
S'VMMMP'
tp839
F1
s(g195
S'PPADVDDP'
tp840
F1
s(g207
S'AAAPP'
tp841
F1
s(g122
S'NAP'
tp842
F55
s(g577
S'NNAAP'
tp843
F2
s(S'VP'
S'VAAAP'
tp844
F1
s(g82
S'AAVADVNP'
tp845
F1
s(S'VP'
S'ADVVVADVAP'
tp846
F1
s(g236
S'VVP'
tp847
F52
s(g432
S'DDAPP'
tp848
F9
s(S'PP'
S'ADVADVPVP'
tp849
F3
s(S'AP'
S'AAADP'
tp850
F4
s(g27
S'APNP'
tp851
F24
s(S'VP'
S'VVVNNP'
tp852
F1
s(S'DP'
S'DDVVP'
tp853
F6
s(g484
S'VVVNP'
tp854
F7
s(S'MP'
S'MNPP'
tp855
F1
s(g122
S'NNADVPP'
tp856
F2
s(S'MP'
S'MVANP'
tp857
F2
s(S'MP'
S'MAVVDP'
tp858
F1
s(S'AP'
S'AAADVADVCP'
tp859
F1
s(g197
S'MVNNP'
tp860
F4
s(g36
S'CDPP'
tp861
F235
s(g197
S'MMMNP'
tp862
F1
s(S'MP'
S'MAAVPP'
tp863
F1
s(g94
S'MVVNNP'
tp864
F1
s(S'AP'
S'ADDDP'
tp865
F1
s(S'CP'
S'ADVCADP'
tp866
F4
s(S'MP'
S'MMMVP'
tp867
F1
s(S'DP'
S'DDDCP'
tp868
F1
s(S'DP'
S'ADVADVDDPP'
tp869
F2
s(S'CP'
S'CDDDDADVPP'
tp870
F1
s(g248
S'ADVADVVNP'
tp871
F3
s(g428
S'ADVPADVAAP'
tp872
F1
s(g521
S'VAAVP'
tp873
F2
s(g638
S'PADVADVDP'
tp874
F2
s(S'VP'
S'ADVADVVCP'
tp875
F1
s(g18
S'VADVADVDP'
tp876
F1
s(g218
S'PPNNP'
tp877
F13
s(S'PP'
S'ADVPAVP'
tp878
F1
s(g676
S'PADVCP'
tp879
F1
s(g562
S'PPMP'
tp880
F3
s(g672
S'ADVADVDDADVPP'
tp881
F1
s(S'VP'
S'ADVVAVP'
tp882
F1
s(g82
S'VDP'
tp883
F207
s(S'DP'
S'DADDP'
tp884
F1
s(S'VP'
p885
S'AVDDP'
tp886
F4
s(S'PP'
S'ADVADVPPNNP'
tp887
F1
s(g14
S'DADVNP'
tp888
F17
s(g550
S'DDCCP'
tp889
F1
s(g360
S'DAP'
tp890
F40
s(g36
S'CADPP'
tp891
F29
s(g514
S'NADVAVP'
tp892
F1
s(g276
S'PPAVP'
tp893
F4
s(g885
S'VVDDDDP'
tp894
F1
s(g125
S'PPDDDP'
tp895
F2
s(g685
S'AVPP'
tp896
F12
s(g435
S'CAADPPP'
tp897
F1
s(S'PP'
S'APNNNP'
tp898
F1
s(g760
S'PPADVADVDDP'
tp899
F1
s(S'CP'
S'AACDDP'
tp900
F1
s(S'CP'
S'CADAAPPPP'
tp901
F1
s(g41
S'CDPPPP'
tp902
F4
s(S'VP'
S'VADVADVCCP'
tp903
F2
s(g236
S'AAVDP'
tp904
F5
s(g476
S'ADVANMP'
tp905
F1
s(g276
S'APPP'
tp906
F11
s(S'DP'
S'ADPPPP'
tp907
F1
s(g323
S'ADVVADVAP'
tp908
F1
s(S'DP'
S'DADVADVPP'
tp909
F4
s(S'CP'
S'CADVADVDDPP'
tp910
F2
s(g204
S'PPPNP'
tp911
F8
s(g158
S'NPP'
tp912
F178
s(g171
S'AAAADVP'
tp913
F1
s(S'PP'
S'PADVADVNP'
tp914
F1
s(S'PP'
S'PPPPNP'
tp915
F5
s(S'AP'
S'AADP'
tp916
F39
s(g240
S'PPAAVP'
tp917
F1
s(S'NP'
p918
S'NNADVVVP'
tp919
F2
s(S'VP'
S'VADVPP'
tp920
F3
s(g59
S'VADVADVNNP'
tp921
F1
s(S'DP'
S'ADVDANP'
tp922
F3
s(S'PP'
S'PVVVVP'
tp923
F1
s(g11
S'ADADVPPPP'
tp924
F1
s(g428
S'ADVPVP'
tp925
F13
s(g419
S'DDDDPP'
tp926
F2
s(S'DP'
S'ADMP'
tp927
F1
s(g406
S'NNVVVP'
tp928
F1
s(S'VP'
S'ADVVANP'
tp929
F3
s(S'PP'
S'PAMP'
tp930
F1
s(S'PP'
S'ADVPDP'
tp931
F12
s(S'VP'
S'VVNNNNP'
tp932
F2
s(S'VP'
p933
S'ADVVADP'
tp934
F1
s(S'PP'
S'ADVADVPCP'
tp935
F1
s(S'AP'
S'ADVAAMP'
tp936
F1
s(g158
S'NCP'
tp937
F204
s(S'CP'
S'CADVDPPP'
tp938
F4
s(g152
S'PPADVNNP'
tp939
F4
s(S'PP'
p940
S'AAAPNP'
tp941
F1
s(g11
S'ADVVP'
tp942
F1
s(S'PP'
S'APAVVVP'
tp943
F1
s(S'CP'
S'CCCADVDDP'
tp944
F1
s(S'AP'
S'AAMP'
tp945
F2
s(g832
S'PPAAAP'
tp946
F2
s(S'VP'
S'ADVADVADVADVVNNP'
tp947
F1
s(g138
S'AADADVPP'
tp948
F1
s(g274
S'AANDP'
tp949
F2
s(S'MP'
S'MVCCP'
tp950
F2
s(g215
S'MADVVPP'
tp951
F1
s(g918
S'NNCCP'
tp952
F14
s(S'MP'
S'MNVP'
tp953
F10
s(S'CP'
S'ADVADVCCDP'
tp954
F3
s(g282
S'AANCCP'
tp955
F1
s(S'PP'
S'PADVADVAP'
tp956
F1
s(g284
S'VAPP'
tp957
F9
s(S'VP'
S'VVAAACP'
tp958
F1
s(g393
S'ADVVDP'
tp959
F16
s(S'AP'
S'ADDDDP'
tp960
F1
s(S'PP'
S'AADVPAADP'
tp961
F1
s(g414
S'DADVPP'
tp962
F33
s(g242
S'AMP'
tp963
F15
s(S'CP'
S'CCADP'
tp964
F5
s(g721
S'ADVNNCP'
tp965
F2
s(g940
S'PPADDP'
tp966
F1
s(g730
S'ADVAPP'
tp967
F3
s(g152
S'ADVADVPVVP'
tp968
F1
s(g66
S'ADVPPVVP'
tp969
F1
s(S'DP'
S'ADVDAVP'
tp970
F2
s(S'MP'
S'MAACDDP'
tp971
F1
s(S'CP'
S'AACDP'
tp972
F1
s(S'NP'
S'NNNCCP'
tp973
F3
s(S'VP'
S'ADVVPPPP'
tp974
F1
s(g370
S'CCDDDP'
tp975
F5
s(S'CP'
S'CCADVADVDDP'
tp976
F1
s(g14
S'ADVDPPP'
tp977
F6
s(g462
S'DVP'
tp978
F187
s(g104
S'AVNNP'
tp979
F3
s(g158
S'ADVNPP'
tp980
F5
s(S'NP'
S'NNCCCP'
tp981
F1
s(g242
S'AVP'
tp982
F27
s(S'NP'
S'NADVVP'
tp983
F17
s(S'CP'
S'CDAAAPP'
tp984
F1
s(g276
S'PADP'
tp985
F15
s(g78
S'NNNMP'
tp986
F2
s(S'VP'
S'ADVVPPP'
tp987
F1
s(g278
S'DDPPP'
tp988
F29
s(g135
S'ADVNMP'
tp989
F3
s(g115
S'ADVADVVVP'
tp990
F1
s(S'MP'
S'MADVVCP'
tp991
F1
s(g234
S'PPANP'
tp992
F4
s(S'MP'
S'MCDDP'
tp993
F1
s(S'CP'
S'CADVADVDDADVPP'
tp994
F1
s(S'DP'
S'DDADVADVANP'
tp995
F1
s(S'CP'
S'CDADVPP'
tp996
F26
s(g82
S'VNP'
tp997
F186
s(g295
S'VANP'
tp998
F18
s(S'VP'
S'VADVAP'
tp999
F12
s(S'VP'
S'VADVADVADP'
tp1000
F1
s(S'PP'
S'PPADVNP'
tp1001
F1
s(g800
S'VVVAP'
tp1002
F2
s(S'DP'
S'DDDDVP'
tp1003
F1
s(g933
S'ADVADVVVDP'
tp1004
F3
s.