ccollections
defaultdict
p1
(c__builtin__
float
p2
tRp3
(S'DP'
p4
S'DADVAPP'
tp5
F1
s(S'DP'
S'DDPP'
tp6
F2
s(S'DP'
S'DANP'
tp7
F4
s(S'NP'
p8
S'NADVPP'
tp9
F1
s(S'NP'
p10
S'ANPP'
tp11
F1
s(S'PP'
p12
S'PPPPP'
tp13
F1
s(S'VP'
p14
S'VVNP'
tp15
F3
s(S'PP'
p16
S'PPVP'
tp17
F1
s(S'VP'
p18
S'ADVVVNP'
tp19
F1
s(S'NP'
S'NAAVP'
tp20
F1
s(S'VP'
p21
S'VADVDP'
tp22
F1
s(S'PP'
p23
S'PDDDP'
tp24
F1
s(S'VP'
p25
S'VAAP'
tp26
F1
s(S'PP'
p27
S'PAPP'
tp28
F1
s(S'NP'
p29
S'ANDP'
tp30
F1
s(S'NP'
S'NVVP'
tp31
F3
s(S'DP'
p32
S'DNP'
tp33
F12
s(S'PP'
p34
S'PNNP'
tp35
F3
s(g25
S'VVNNP'
tp36
F1
s(S'PP'
p37
S'APNNP'
tp38
F1
s(S'CP'
p39
S'CDPPP'
tp40
F4
s(S'NP'
p41
S'ANCCP'
tp42
F1
s(g32
S'ADNP'
tp43
F1
s(S'PP'
p44
S'ADVADVAPDP'
tp45
F1
s(g4
S'DAAP'
tp46
F1
s(S'DP'
S'ADPP'
tp47
F3
s(S'NP'
S'NADVADVADVVVP'
tp48
F1
s(g39
S'ACDP'
tp49
F2
s(S'PP'
S'PAAP'
tp50
F1
s(g10
S'NNVP'
tp51
F3
s(g4
S'DAPP'
tp52
F1
s(S'CP'
p53
S'CDADVPPP'
tp54
F1
s(S'VP'
p55
S'VAP'
tp56
F9
s(S'VP'
p57
S'ADVVNP'
tp58
F1
s(S'MP'
S'MVDP'
tp59
F1
s(S'DP'
S'DDDPP'
tp60
F1
s(S'PP'
p61
S'PPPP'
tp62
F1
s(S'DP'
p63
S'ADVADPP'
tp64
F1
s(S'AP'
S'ADDP'
tp65
F1
s(S'DP'
S'ADVDDNP'
tp66
F1
s(g37
S'PNNNNP'
tp67
F1
s(g32
S'DPPP'
tp68
F4
s(g53
S'CADVDAPP'
tp69
F1
s(g14
S'VCP'
tp70
F4
s(S'DP'
S'ADADVPP'
tp71
F1
s(g44
S'PAP'
tp72
F2
s(S'PP'
p73
S'ADVPNP'
tp74
F2
s(S'NP'
p75
S'NNADVVP'
tp76
F1
s(g16
S'PPDP'
tp77
F3
s(g14
S'VVDP'
tp78
F2
s(g8
S'NAP'
tp79
F1
s(S'VP'
S'ADVADVADVVVDP'
tp80
F1
s(g61
S'PNP'
tp81
F18
s(S'DP'
p82
S'DDP'
tp83
F2
s(g29
S'NNNPP'
tp84
F1
s(g14
S'VCCP'
tp85
F1
s(S'PP'
p86
S'PPADVDDP'
tp87
F1
s(S'AP'
p88
S'AVVP'
tp89
F1
s(S'CP'
S'CCDP'
tp90
F2
s(S'CP'
S'CDDADVADVPPP'
tp91
F1
s(S'NP'
p92
S'NNAAP'
tp93
F1
s(g92
S'NMP'
tp94
F2
s(S'PP'
p95
S'ADVADVPPPP'
tp96
F1
s(g29
S'NDP'
tp97
F5
s(g61
S'PVP'
tp98
F13
s(S'MP'
S'MVAAP'
tp99
F1
s(S'DP'
p100
S'DDVP'
tp101
F1
s(g61
S'PDP'
tp102
F11
s(g86
S'PADVNP'
tp103
F1
s(S'CP'
p104
S'CADADVPP'
tp105
F1
s(g82
S'ADDVP'
tp106
F1
s(S'PP'
p107
S'PPP'
tp108
F7
s(S'DP'
p109
S'DDADVADVPPP'
tp110
F1
s(g41
S'NAVP'
tp111
F1
s(g12
S'PPPADVVP'
tp112
F1
s(g86
S'PCP'
tp113
F1
s(g41
S'NNPPP'
tp114
F1
s(g39
S'CDPP'
tp115
F16
s(g92
S'NNADVCP'
tp116
F1
s(S'NP'
p117
S'NADVCCP'
tp118
F1
s(S'AP'
S'AADVVVP'
tp119
F1
s(g75
S'NNDP'
tp120
F1
s(g55
S'VPP'
tp121
F6
s(S'NP'
p122
S'NACP'
tp123
F2
s(S'CP'
S'ADVCCDP'
tp124
F1
s(g29
S'NCCP'
tp125
F2
s(S'CP'
p126
S'ADVCDP'
tp127
F1
s(S'VP'
S'VVVAP'
tp128
F1
s(g117
S'NNNCP'
tp129
F1
s(g12
S'PADVDP'
tp130
F1
s(S'CP'
S'CDAPP'
tp131
F1
s(g75
S'NNCP'
tp132
F3
s(S'DP'
p133
S'ADVDDPP'
tp134
F1
s(g122
S'NCP'
tp135
F13
s(S'CP'
S'CCDDP'
tp136
F1
s(g104
S'CDDPP'
tp137
F1
s(g37
S'ADVAPPP'
tp138
F1
s(g16
S'PVVP'
tp139
F3
s(g133
S'DADVPPP'
tp140
F1
s(g18
S'ADVVCP'
tp141
F1
s(g107
S'PPAP'
tp142
F1
s(g75
S'NNNNVP'
tp143
F1
s(g63
S'DAP'
tp144
F5
s(S'CP'
S'CADPP'
tp145
F3
s(g14
S'VDP'
tp146
F15
s(g133
S'DVVP'
tp147
F2
s(S'MP'
S'MAAVDDP'
tp148
F1
s(S'AP'
S'AAAPP'
tp149
F1
s(g44
S'PADVADVAPP'
tp150
F1
s(S'MP'
S'AAMVVP'
tp151
F1
s(g18
S'VAAMP'
tp152
F1
s(S'CP'
S'CADVDPP'
tp153
F1
s(S'VP'
S'AAVAP'
tp154
F1
s(g57
S'ADVVAP'
tp155
F1
s(g109
S'DDNP'
tp156
F3
s(S'NP'
S'ANCP'
tp157
F2
s(g27
S'APDP'
tp158
F1
s(g100
S'ADVDPP'
tp159
F2
s(S'NP'
p160
S'NPP'
tp161
F13
s(S'AP'
S'AADP'
tp162
F4
s(g53
S'CCADVDDP'
tp163
F1
s(g117
S'ANVVP'
tp164
F1
s(g100
S'DDDDPP'
tp165
F1
s(g160
S'NPPP'
tp166
F3
s(g88
S'AANP'
tp167
F1
s(g34
S'ADVPDP'
tp168
F1
s(S'DP'
p169
S'DNNP'
tp170
F2
s(S'AP'
S'ACP'
tp171
F4
s(S'AP'
S'AADDP'
tp172
F1
s(S'VP'
S'VVNNNP'
tp173
F1
s(S'VP'
S'AAVDDP'
tp174
F1
s(g23
S'PPNP'
tp175
F1
s(g16
S'APPPP'
tp176
F1
s(g133
S'ADVDAPP'
tp177
F1
s(g95
S'PADVVP'
tp178
F1
s(g25
S'VNNP'
tp179
F1
s(S'AP'
S'ADP'
tp180
F8
s(S'AP'
S'APP'
tp181
F3
s(g25
S'ADVVDP'
tp182
F1
s(g16
S'ADVPPPP'
tp183
F1
s(S'AP'
S'AAP'
tp184
F1
s(g169
S'DADVPP'
tp185
F1
s(S'CP'
S'CADVADPP'
tp186
F1
s(S'VP'
p187
S'VVPP'
tp188
F1
s(S'AP'
S'AMP'
tp189
F1
s(S'CP'
S'CDDDDPP'
tp190
F1
s(S'NP'
S'ANVP'
tp191
F2
s(g21
S'VVAP'
tp192
F2
s(S'PP'
S'AAPDDP'
tp193
F1
s(g32
S'DVP'
tp194
F11
s(S'MP'
S'MVNP'
tp195
F1
s(S'AP'
S'AVP'
tp196
F1
s(S'NP'
S'NADVVP'
tp197
F1
s(S'NP'
S'ADVNMP'
tp198
F1
s(g169
S'DVVVP'
tp199
F1
s(g122
S'NVP'
tp200
F13
s(g73
S'PPANP'
tp201
F1
s(g126
S'CDADVPP'
tp202
F1
s(g14
S'VNP'
tp203
F9
s(S'VP'
S'VANP'
tp204
F2
s(g57
S'VDDP'
tp205
F1
s(g187
S'AVCP'
tp206
F1
s(g32
S'DPP'
tp207
F18
s.