ccollections
defaultdict
p1
(c__builtin__
float
p2
tRp3
(S'VP'
S'VVAAAP'
tp4
F1
s(S'DP'
p5
S'DDMMP'
tp6
F1
s(S'DP'
S'ADDPP'
tp7
F1
s(S'DP'
S'DDAP'
tp8
F1
s(S'VP'
S'ADVVVNP'
tp9
F1
s(S'VP'
S'VVVVP'
tp10
F1
s(S'PP'
p11
S'PAPP'
tp12
F3
s(S'PP'
p13
S'PADVNP'
tp14
F4
s(S'DP'
p15
S'DNP'
tp16
F109
s(S'CP'
p17
S'CDPPP'
tp18
F30
s(S'VP'
p19
S'VADP'
tp20
F5
s(S'NP'
p21
S'ADVNCCP'
tp22
F1
s(S'VP'
S'VAVP'
tp23
F1
s(S'DP'
p24
S'DAADP'
tp25
F1
s(S'DP'
S'ADNNP'
tp26
F1
s(S'PP'
p27
S'APVP'
tp28
F8
s(S'MP'
p29
S'MVDP'
tp30
F7
s(S'PP'
S'PADVANP'
tp31
F2
s(S'PP'
p32
S'PPPP'
tp33
F22
s(S'DP'
p34
S'DDDNP'
tp35
F1
s(S'AP'
S'AAAVP'
tp36
F1
s(S'PP'
S'PPAAP'
tp37
F1
s(S'DP'
S'DADVVP'
tp38
F1
s(S'NP'
S'NADVVVP'
tp39
F1
s(g19
S'VCP'
tp40
F24
s(S'NP'
p41
S'NMMP'
tp42
F8
s(S'DP'
S'DDDNNP'
tp43
F1
s(S'PP'
p44
S'PAP'
tp45
F41
s(S'MP'
S'MMVVP'
tp46
F1
s(S'VP'
S'VADVADVAP'
tp47
F1
s(S'NP'
S'ANNCCP'
tp48
F1
s(S'PP'
p49
S'ADVPPVP'
tp50
F2
s(S'NP'
S'NNNAP'
tp51
F1
s(S'PP'
p52
S'APVVP'
tp53
F2
s(S'CP'
S'CADPPPP'
tp54
F1
s(g13
S'PNP'
tp55
F90
s(S'DP'
S'DDP'
tp56
F18
s(S'VP'
S'ADVVDDP'
tp57
F1
s(S'PP'
p58
S'PAAP'
tp59
F6
s(S'MP'
S'MCDP'
tp60
F1
s(S'DP'
p61
S'DDAANP'
tp62
F1
s(S'NP'
p63
S'NNADVADVCP'
tp64
F1
s(g21
S'NMP'
tp65
F23
s(g13
S'PDP'
tp66
F98
s(S'PP'
S'PPADVVP'
tp67
F3
s(S'NP'
p68
S'ADVNVVP'
tp69
F1
s(S'NP'
p70
S'NNADVCP'
tp71
F1
s(g70
S'ADVNACP'
tp72
F1
s(S'PP'
p73
S'ADVADVAPVP'
tp74
F1
s(S'DP'
p75
S'DPPPP'
tp76
F5
s(S'DP'
S'DDANP'
tp77
F1
s(S'NP'
S'NACP'
tp78
F10
s(g21
S'NCCP'
tp79
F23
s(S'DP'
S'DADVADVVVP'
tp80
F1
s(S'NP'
p81
S'NNCP'
tp82
F38
s(S'DP'
S'ADVDDPP'
tp83
F2
s(S'VP'
p84
S'AVNP'
tp85
F3
s(S'VP'
p86
S'VVMP'
tp87
F1
s(g73
S'PADVADVAPP'
tp88
F1
s(g21
S'NCCCCP'
tp89
F1
s(S'CP'
S'CCCDP'
tp90
F2
s(S'VP'
p91
S'ADVVAP'
tp92
F4
s(S'PP'
S'ADVPPNNP'
tp93
F1
s(S'VP'
S'VCCCP'
tp94
F1
s(g11
S'APDP'
tp95
F12
s(S'VP'
S'VVANP'
tp96
F2
s(S'DP'
p97
S'DAAP'
tp98
F2
s(S'MP'
S'MPNNP'
tp99
F1
s(S'NP'
S'ADVANCP'
tp100
F1
s(S'DP'
p101
S'DNNP'
tp102
F34
s(S'CP'
S'CADVDDPP'
tp103
F1
s(S'DP'
S'DPPPPP'
tp104
F1
s(S'VP'
p105
S'ADVADVADVVVDP'
tp106
F1
s(S'DP'
S'ADDNP'
tp107
F1
s(S'NP'
S'NNNVP'
tp108
F3
s(S'PP'
S'PAAVVP'
tp109
F1
s(S'PP'
p110
S'PADVVP'
tp111
F4
s(S'DP'
S'DADVADVADVPPP'
tp112
F1
s(S'PP'
S'PPPADP'
tp113
F1
s(S'CP'
S'ADVADVCDP'
tp114
F1
s(g41
S'NADVMP'
tp115
F1
s(S'AP'
S'AAP'
tp116
F1
s(S'CP'
S'CADVADPP'
tp117
F2
s(S'DP'
S'DAAVP'
tp118
F1
s(S'PP'
S'PAANP'
tp119
F1
s(g68
S'ANVP'
tp120
F4
s(S'MP'
S'MVNP'
tp121
F8
s(S'MP'
S'AMVP'
tp122
F1
s(S'PP'
S'ADVADVADVPPAP'
tp123
F1
s(S'PP'
S'PAVP'
tp124
F7
s(S'MP'
S'ADVMVP'
tp125
F1
s(S'VP'
p126
S'VVVPP'
tp127
F2
s(S'DP'
p128
S'DADP'
tp129
F1
s(S'VP'
p130
S'VVAANP'
tp131
F1
s(S'AP'
p132
S'APP'
tp133
F23
s(S'PP'
p134
S'APDDP'
tp135
F1
s(S'PP'
p136
S'PPADVCCP'
tp137
F1
s(S'NP'
S'ADVNAP'
tp138
F1
s(S'VP'
p139
S'VAP'
tp140
F44
s(S'VP'
S'ADVVNP'
tp141
F1
s(S'VP'
p142
S'VVNP'
tp143
F26
s(g13
S'PPVP'
tp144
F18
s(S'VP'
p145
S'VADVDP'
tp146
F2
s(S'VP'
S'VAAP'
tp147
F4
s(S'NP'
S'ANDP'
tp148
F4
s(S'NP'
p149
S'NVVP'
tp150
F25
s(g136
S'AAPVP'
tp151
F1
s(S'CP'
S'CADDPPP'
tp152
F2
s(g142
S'VMP'
tp153
F4
s(g142
S'VVNNP'
tp154
F3
s(S'CP'
p155
S'CDAPP'
tp156
F8
s(S'VP'
p157
S'VVAPP'
tp158
F1
s(S'DP'
p159
S'ADNP'
tp160
F8
s(g58
S'PADP'
tp161
F3
s(S'VP'
S'VVVDDP'
tp162
F2
s(S'PP'
S'ADVADVPMP'
tp163
F1
s(g159
S'DAPP'
tp164
F19
s(g91
S'AVVP'
tp165
F2
s(S'PP'
p166
S'ADVADVPPAVP'
tp167
F1
s(S'VP'
S'ADVADVVPP'
tp168
F1
s(g105
S'VADVADVNP'
tp169
F1
s(S'MP'
S'MDDNP'
tp170
F1
s(g157
S'ADVADVVDP'
tp171
F3
s(S'PP'
p172
S'PPPDP'
tp173
F2
s(S'MP'
S'MVVAP'
tp174
F1
s(g86
S'VDDDDP'
tp175
F1
s(S'DP'
S'DAAANP'
tp176
F1
s(S'DP'
p177
S'DADVANP'
tp178
F1
s(S'NP'
S'ANADVVVP'
tp179
F1
s(S'DP'
p180
S'ADVDNP'
tp181
F1
s(g139
S'VVPP'
tp182
F10
s(S'MP'
S'MVPP'
tp183
F6
s(S'DP'
p184
S'ADVP'
tp185
F1
s(S'MP'
p186
S'MVADP'
tp187
F1
s(S'CP'
S'CDDPPP'
tp188
F7
s(S'NP'
p189
S'AANCCP'
tp190
F1
s(S'PP'
S'ADVADVADVADVPPDP'
tp191
F1
s(S'AP'
p192
S'AACP'
tp193
F2
s(S'PP'
S'PPVVP'
tp194
F7
s(g101
S'DNNNP'
tp195
F6
s(S'VP'
p196
S'VADVDDP'
tp197
F1
s(S'PP'
p198
S'PVVVP'
tp199
F2
s(g13
S'PMP'
tp200
F4
s(S'CP'
p201
S'CCDP'
tp202
F29
s(S'NP'
p203
S'ANNDP'
tp204
F1
s(S'VP'
p205
S'VADVANP'
tp206
F1
s(S'NP'
p207
S'NVVVP'
tp208
F7
s(S'CP'
S'CDDDPP'
tp209
F3
s(S'CP'
S'CDAAPP'
tp210
F3
s(S'VP'
S'ADVADVVVVP'
tp211
F1
s(S'VP'
S'VVVDP'
tp212
F6
s(S'PP'
S'PNNNP'
tp213
F1
s(g201
S'CCCCDP'
tp214
F1
s(S'PP'
S'AAPNP'
tp215
F1
s(S'PP'
p216
S'PADVVVP'
tp217
F1
s(g13
S'PPP'
tp218
F52
s(S'NP'
p219
S'NAVP'
tp220
F4
s(S'DP'
p221
S'ADVADVDDNP'
tp222
F2
s(S'AP'
S'AADVVVP'
tp223
F1
s(S'DP'
S'ADVADVDNNP'
tp224
F1
s(S'MP'
S'MADVADVVPP'
tp225
F1
s(S'DP'
S'ADVADVDNP'
tp226
F3
s(g126
S'VPP'
tp227
F69
s(S'CP'
p228
S'ADVCCDP'
tp229
F2
s(g177
S'ADVDDNP'
tp230
F1
s(S'NP'
p231
S'AANPPP'
tp232
F1
s(g81
S'NNNCP'
tp233
F4
s(g134
S'PADVDP'
tp234
F1
s(S'DP'
S'DANNP'
tp235
F1
s(g201
S'CDDPP'
tp236
F27
s(g5
S'DAAPP'
tp237
F4
s(g11
S'PVVP'
tp238
F18
s(S'CP'
S'CADPPP'
tp239
F3
s(g180
S'DADVPPP'
tp240
F4
s(S'NP'
S'NADVMMP'
tp241
F1
s(S'PP'
S'PMMP'
tp242
F1
s(S'VP'
p243
S'VPPP'
tp244
F15
s(S'PP'
S'PPADVADVDP'
tp245
F2
s(S'VP'
S'VVPPP'
tp246
F3
s(S'NP'
S'ADVNAMP'
tp247
F1
s(g13
S'PPAP'
tp248
F6
s(g15
S'DVVP'
tp249
F11
s(S'NP'
S'ANMP'
tp250
F1
s(S'AP'
S'APPP'
tp251
F2
s(S'NP'
S'NNNNMP'
tp252
F1
s(g19
S'VVVP'
tp253
F6
s(S'CP'
S'CADVDPP'
tp254
F3
s(S'NP'
p255
S'ADVADVNNVP'
tp256
F1
s(S'NP'
p257
S'ANCP'
tp258
F12
s(g184
S'DCP'
tp259
F1
s(g203
S'NNVVVVP'
tp260
F1
s(g159
S'DDDP'
tp261
F7
s(S'DP'
S'DDADVPP'
tp262
F3
s(S'NP'
p263
S'ANVVP'
tp264
F4
s(g172
S'PPPNNNP'
tp265
F1
s(S'VP'
p266
S'VVDP'
tp267
F22
s(g149
S'NPPP'
tp268
F11
s(S'VP'
S'ADVVNNNP'
tp269
F1
s(S'DP'
p270
S'DAVP'
tp271
F6
s(S'NP'
S'NNNMP'
tp272
F1
s(g216
S'ADVPPP'
tp273
F2
s(g192
S'ACP'
tp274
F10
s(g198
S'PPNP'
tp275
F20
s(S'DP'
S'AADVP'
tp276
F2
s(S'CP'
p277
S'CDDADVPP'
tp278
F1
s(g201
S'CCCDDP'
tp279
F2
s(S'AP'
S'ADP'
tp280
F68
s(g231
S'ADVANCCP'
tp281
F1
s(S'VP'
p282
S'AVDP'
tp283
F8
s(S'VP'
p284
S'VVAP'
tp285
F5
s(S'NP'
S'NNAPP'
tp286
F1
s(S'PP'
S'PADVADVDP'
tp287
F1
s(g21
S'NPP'
tp288
F80
s(g142
S'ADVADVVAP'
tp289
F1
s(g21
S'NVP'
tp290
F94
s(S'PP'
S'PPVVVP'
tp291
F1
s(g81
S'NAAPP'
tp292
F1
s(S'MP'
S'ADVMMVP'
tp293
F1
s(g266
S'VDDP'
tp294
F23
s(g263
S'ANPP'
tp295
F6
s(S'PP'
S'PPPPP'
tp296
F3
s(S'MP'
S'MPDP'
tp297
F2
s(S'MP'
p298
S'MVVPP'
tp299
F2
s(S'PP'
p300
S'PPPNP'
tp301
F4
s(S'MP'
S'MMDDP'
tp302
F1
s(S'NP'
S'NPPPP'
tp303
F3
s(g128
S'DADVADVVP'
tp304
F1
s(S'PP'
p305
S'PNNP'
tp306
F19
s(S'CP'
S'CDADVADVADVPPP'
tp307
F1
s(S'PP'
S'APNNP'
tp308
F2
s(S'VP'
S'AVAP'
tp309
F1
s(S'MP'
S'MMVP'
tp310
F8
s(S'PP'
p311
S'PADVDDP'
tp312
F1
s(S'NP'
S'ADVNCP'
tp313
F1
s(S'DP'
p314
S'DDADVADVPP'
tp315
F1
s(g101
S'ADPP'
tp316
F11
s(S'CP'
S'ACDP'
tp317
F8
s(S'DP'
S'DDADVADVVP'
tp318
F1
s(S'CP'
S'CDADVPPP'
tp319
F3
s(S'DP'
S'ADVDDDP'
tp320
F1
s(S'VP'
S'VVVVNP'
tp321
F1
s(S'DP'
S'DDDPP'
tp322
F3
s(S'CP'
p323
S'ADVCDDP'
tp324
F1
s(S'DP'
S'ADAP'
tp325
F1
s(S'AP'
S'AAACP'
tp326
F1
s(S'PP'
S'PPPVP'
tp327
F1
s(S'CP'
S'CDADVADVPP'
tp328
F1
s(g196
S'VAANP'
tp329
F1
s(g136
S'PAAAAP'
tp330
F1
s(g166
S'PADVADVPPP'
tp331
F1
s(S'VP'
S'ADVVADVANP'
tp332
F1
s(g305
S'PANP'
tp333
F7
s(S'AP'
S'AAVP'
tp334
F2
s(S'AP'
S'AVVP'
tp335
F2
s(S'NP'
p336
S'NDDP'
tp337
F14
s(g61
S'DADVADVNNP'
tp338
F1
s(g149
S'NDP'
tp339
F63
s(S'MP'
S'MVAAP'
tp340
F1
s(S'DP'
S'DDVP'
tp341
F23
s(S'NP'
S'AANVP'
tp342
F1
s(g142
S'VNNNP'
tp343
F2
s(S'PP'
S'ADVPAP'
tp344
F2
s(S'PP'
S'PCP'
tp345
F8
s(g44
S'PAADP'
tp346
F2
s(g70
S'NADVCCP'
tp347
F1
s(S'VP'
p348
S'VPPPP'
tp349
F2
s(g282
S'VCCP'
tp350
F7
s(g68
S'NNNDP'
tp351
F1
s(g34
S'ADPPP'
tp352
F3
s(g186
S'MVCP'
tp353
F1
s(g17
S'CCDDP'
tp354
F15
s(g207
S'NNVVP'
tp355
F9
s(g126
S'VVCP'
tp356
F11
s(S'NP'
S'AANCP'
tp357
F4
s(S'VP'
S'VAADP'
tp358
F2
s(S'VP'
S'VVDDDP'
tp359
F1
s(S'NP'
S'NNDDP'
tp360
F1
s(S'VP'
S'ADVVPP'
tp361
F2
s(S'AP'
S'AAAADDP'
tp362
F1
s(g266
S'VNNP'
tp363
F19
s(g49
S'APADVNP'
tp364
F1
s(g336
S'NADP'
tp365
F4
s(g139
S'VADVNP'
tp366
F2
s(g68
S'NADVCP'
tp367
F4
s(g15
S'DDNNP'
tp368
F7
s(g52
S'AAPPP'
tp369
F2
s(g63
S'ADVANVP'
tp370
F2
s(S'NP'
p371
S'ADVADVNCP'
tp372
F1
s(g24
S'AADPP'
tp373
F1
s(S'CP'
S'CDPPPPP'
tp374
F1
s(g277
S'AAACDDP'
tp375
F1
s(S'MP'
S'MVVNP'
tp376
F3
s(g155
S'CDDADVPPP'
tp377
F1
s(g228
S'ACDDP'
tp378
F4
s(S'AP'
S'AAPP'
tp379
F3
s(S'VP'
S'VVCCP'
tp380
F1
s(S'NP'
p381
S'ANNADVVP'
tp382
F1
s(S'NP'
S'NAPP'
tp383
F5
s(S'NP'
S'NADVDP'
tp384
F1
s(S'NP'
S'ANCCP'
tp385
F4
s(g255
S'AANPP'
tp386
F1
s(g149
S'NNCCP'
tp387
F5
s(S'NP'
S'NNMP'
tp388
F1
s(S'DP'
S'DDDVP'
tp389
F2
s(S'CP'
S'CADDPP'
tp390
F1
s(S'NP'
S'ADVANVVP'
tp391
F1
s(g298
S'MVAP'
tp392
F3
s(g13
S'PVP'
tp393
F77
s(g189
S'ADVNAVP'
tp394
F1
s(S'DP'
S'DVVVP'
tp395
F4
s(S'PP'
p396
S'PPADVPP'
tp397
F1
s(S'AP'
S'AAAAACP'
tp398
F1
s(g198
S'PPDDP'
tp399
F6
s(g196
S'AVCP'
tp400
F1
s(g15
S'DPP'
tp401
F101
s(S'NP'
S'ADVNVP'
tp402
F2
s(g15
S'DDPP'
tp403
F48
s(S'DP'
p404
S'DDADVPPP'
tp405
F1
s(S'DP'
S'DANP'
tp406
F14
s(g219
S'NADVPP'
tp407
F1
s(S'VP'
S'VADVCP'
tp408
F2
s(S'MP'
S'MDNP'
tp409
F1
s(S'DP'
p410
S'ADDPPP'
tp411
F2
s(g381
S'NNNVVP'
tp412
F1
s(S'DP'
S'DCCP'
tp413
F2
s(S'DP'
S'AADDP'
tp414
F1
s(g44
S'AAPDP'
tp415
F1
s(g284
S'VVDDP'
tp416
F6
s(g13
S'PDDP'
tp417
F23
s(g29
S'MVDDP'
tp418
F3
s(g257
S'NNVP'
tp419
F26
s(g97
S'ADVADPP'
tp420
F2
s(g404
S'DAANP'
tp421
F3
s(S'AP'
S'ADDP'
tp422
F18
s(g396
S'PNNNNP'
tp423
F1
s(S'VP'
S'ADVVVAP'
tp424
F1
s(S'PP'
S'ADVPPNP'
tp425
F1
s(S'CP'
S'CADVADVDPP'
tp426
F2
s(g15
S'DPPP'
tp427
F39
s(S'AP'
S'AAAP'
tp428
F1
s(g311
S'PPPANP'
tp429
F1
s(g44
S'ADVPNP'
tp430
F3
s(g27
S'PPDP'
tp431
F19
s(S'VP'
S'ADVVANNP'
tp432
F1
s(g219
S'AAANMP'
tp433
F1
s(g149
S'NAP'
tp434
F15
s(g130
S'VAAAP'
tp435
F1
s(S'VP'
S'VVP'
tp436
F25
s(g404
S'DDAPP'
tp437
F1
s(S'PP'
p438
S'ADVADVPVP'
tp439
F1
s(S'AP'
S'AAADP'
tp440
F1
s(g300
S'APNP'
tp441
F11
s(S'VP'
S'VVVNNP'
tp442
F1
s(g5
S'DDVVP'
tp443
F2
s(g84
S'VVVNP'
tp444
F4
s(S'NP'
S'NAMP'
tp445
F1
s(g201
S'CDPP'
tp446
F88
s(S'MP'
S'MVVNNP'
tp447
F1
s(S'AP'
S'ADDDP'
tp448
F2
s(g81
S'NNDP'
tp449
F8
s(g323
S'ADVCDP'
tp450
F7
s(S'VP'
S'VADVADVDP'
tp451
F1
s(S'PP'
S'PPNNP'
tp452
F1
s(S'PP'
S'PPMP'
tp453
F2
s(g314
S'ADVADVDPP'
tp454
F2
s(g139
S'VDP'
tp455
F87
s(S'VP'
S'AVDDP'
tp456
F1
s(g270
S'DADVNP'
tp457
F4
s(S'DP'
S'DAP'
tp458
F11
s(S'CP'
p459
S'CADPP'
tp460
F9
s(S'DP'
S'DADVADVADVADVPPP'
tp461
F1
s(S'VP'
S'AVPP'
tp462
F4
s(S'MP'
S'AMVVP'
tp463
F1
s(g134
S'PPADVADVDDP'
tp464
F2
s(S'CP'
S'CDPPPP'
tp465
F4
s(S'VP'
S'AAVDP'
tp466
F1
s(g101
S'AADNNP'
tp467
F1
s(g172
S'PANNP'
tp468
F1
s(g166
S'APPP'
tp469
F2
s(g159
S'ADPPPP'
tp470
F2
s(S'DP'
S'DADVADVPP'
tp471
F1
s(g221
S'ADVDPP'
tp472
F6
s(S'PP'
S'PPAANP'
tp473
F1
s(S'PP'
S'PPPPNP'
tp474
F1
s(S'AP'
S'AADP'
tp475
F10
s(g205
S'VADVPP'
tp476
F2
s(S'CP'
S'CCADVDDP'
tp477
F1
s(g110
S'ADVPVP'
tp478
F4
s(g371
S'NADVADVADVVVP'
tp479
F1
s(S'AP'
S'ADVADVAVP'
tp480
F1
s(g348
S'ADVVANP'
tp481
F1
s(g32
S'ADVPDP'
tp482
F2
s(g438
S'PPPVVP'
tp483
F1
s(g21
S'NCP'
tp484
F85
s(g157
S'AAVVDDP'
tp485
F1
s(g145
S'ADVVVPP'
tp486
F2
s(g75
S'ADVVP'
tp487
F2
s(S'PP'
S'ADVPDDP'
tp488
F1
s(g255
S'AANDP'
tp489
F1
s(S'VP'
S'VDDDP'
tp490
F2
s(S'MP'
S'MNVP'
tp491
F1
s(S'NP'
S'NNPP'
tp492
F11
s(g243
S'VAPP'
tp493
F8
s(S'MP'
S'MAVNP'
tp494
F1
s(S'NP'
S'NCCCP'
tp495
F2
s(S'VP'
S'ADVVDP'
tp496
F2
s(S'VP'
S'VADDP'
tp497
F1
s(g101
S'DADVPP'
tp498
F7
s(S'AP'
S'AMP'
tp499
F3
s(g52
S'ADVPPVVP'
tp500
F1
s(S'NP'
S'NNNCCP'
tp501
F1
s(S'DP'
S'DVP'
tp502
F73
s(S'VP'
S'AVNNP'
tp503
F2
s(S'NP'
S'ADVNPP'
tp504
F1
s(S'CP'
S'CDADVADVADVADVPPP'
tp505
F1
s(g21
S'NNCCCP'
tp506
F1
s(g132
S'AVP'
tp507
F11
s(S'NP'
S'NADVVP'
tp508
F5
s(g68
S'NNADVADVVP'
tp509
F1
s(g15
S'DDNP'
tp510
F35
s(g5
S'DDPPP'
tp511
F10
s(g21
S'ADVNMP'
tp512
F1
s(S'NP'
S'NNAP'
tp513
F2
s(S'PP'
S'PPANP'
tp514
F4
s(g459
S'CDADVPP'
tp515
F6
s(g139
S'VNP'
tp516
F75
s(S'VP'
S'VANP'
tp517
F6
s(S'DP'
S'DDDANP'
tp518
F1
s(g410
S'DDDDDDP'
tp519
F1
s.