ccollections
defaultdict
p1
(c__builtin__
float
p2
tRp3
(S'DP'
p4
S'DDPP'
tp5
F2
s(S'DP'
p6
S'DANP'
tp7
F1
s(S'NP'
p8
S'ANPP'
tp9
F1
s(S'MP'
S'MVVPP'
tp10
F1
s(S'MP'
p11
S'MMAP'
tp12
F1
s(S'PP'
p13
S'APADVDDP'
tp14
F1
s(g13
S'ADVADVPAP'
tp15
F1
s(S'NP'
p16
S'NVVP'
tp17
F1
s(g4
S'DNP'
tp18
F3
s(g13
S'PNNP'
tp19
F1
s(S'CP'
p20
S'CDAPP'
tp21
F1
s(S'VP'
p22
S'VVAAP'
tp23
F1
s(S'CP'
S'CDPPP'
tp24
F1
s(S'DP'
p25
S'ADNP'
tp26
F1
s(S'MP'
S'MMVP'
tp27
F1
s(S'PP'
p28
S'PADP'
tp29
F1
s(S'CP'
p30
S'ACDP'
tp31
F1
s(g6
S'DAPP'
tp32
F1
s(S'VP'
p33
S'VAP'
tp34
F4
s(g11
S'MVDP'
tp35
F1
s(g28
S'PPPP'
tp36
F1
s(S'AP'
p37
S'ADDP'
tp38
F1
s(g25
S'DPPP'
tp39
F2
s(g33
S'VVPP'
tp40
F2
s(g28
S'PPNNP'
tp41
F1
s(g8
S'NMMP'
tp42
F1
s(g28
S'PAP'
tp43
F3
s(S'NP'
S'NNPP'
tp44
F2
s(g13
S'PPADVDP'
tp45
F1
s(S'PP'
p46
S'PNP'
tp47
F4
s(g25
S'DDP'
tp48
F1
s(g6
S'ADVDDVP'
tp49
F1
s(g46
S'PANP'
tp50
F2
s(g8
S'NMP'
tp51
F1
s(S'CP'
S'CCDP'
tp52
F1
s(g16
S'NAP'
tp53
F1
s(S'AP'
S'ACCP'
tp54
F1
s(S'VP'
p55
S'AVPPP'
tp56
F1
s(g20
S'CDADVADVPP'
tp57
F1
s(g8
S'NDP'
tp58
F2
s(g46
S'PVP'
tp59
F2
s(g22
S'VVP'
tp60
F1
s(g46
S'PDP'
tp61
F4
s(g13
S'PPP'
tp62
F1
s(g28
S'PCP'
tp63
F1
s(g30
S'CDPP'
tp64
F4
s(g22
S'VCP'
tp65
F2
s(g55
S'VPP'
tp66
F2
s(S'NP'
p67
S'NACP'
tp68
F1
s(g20
S'ADVCDP'
tp69
F1
s(g25
S'ADPPP'
tp70
F1
s(S'AP'
p71
S'ACP'
tp72
F2
s(g30
S'CDDPP'
tp73
F2
s(g28
S'PVVP'
tp74
F1
s(S'PP'
S'PMMP'
tp75
F1
s(g33
S'VDP'
tp76
F4
s(g22
S'VVCP'
tp77
F1
s(g4
S'DAP'
tp78
F2
s(g30
S'CADPP'
tp79
F2
s(g28
S'PPAP'
tp80
F1
s(g4
S'DVVP'
tp81
F2
s(g20
S'CADVDPP'
tp82
F2
s(g16
S'NADP'
tp83
F1
s(g8
S'NADVCP'
tp84
F1
s(g67
S'ANCP'
tp85
F1
s(g46
S'APDP'
tp86
F1
s(g4
S'DCP'
tp87
F2
s(g6
S'ADVDPP'
tp88
F2
s(g4
S'ADPP'
tp89
F2
s(g33
S'VVDP'
tp90
F2
s(g67
S'NPPP'
tp91
F1
s(g67
S'NCP'
tp92
F3
s(g46
S'PPNP'
tp93
F3
s(g71
S'AAMP'
tp94
F1
s(g33
S'VNP'
tp95
F2
s(S'AP'
S'ADP'
tp96
F4
s(g67
S'NAPP'
tp97
F1
s(g37
S'APP'
tp98
F2
s(g6
S'DDAVP'
tp99
F1
s(g37
S'AAP'
tp100
F1
s(g25
S'DVP'
tp101
F2
s(g67
S'NPP'
tp102
F4
s(g67
S'NVP'
tp103
F4
s(g25
S'DADP'
tp104
F1
s(g6
S'DADVADVPP'
tp105
F1
s(g4
S'DPP'
tp106
F4
s.