ccollections
defaultdict
p1
(c__builtin__
float
p2
tRp3
(S'NP'
S'ADVNNMP'
tp4
F1
s(S'DP'
p5
S'DDAP'
tp6
F2
s(S'MP'
p7
S'MMAVVP'
tp8
F1
s(S'PP'
p9
S'PAPP'
tp10
F3
s(S'PP'
p11
S'PADVNP'
tp12
F5
s(S'DP'
p13
S'DNP'
tp14
F49
s(S'NP'
p15
S'ADVNDP'
tp16
F1
s(S'CP'
p17
S'CDPPP'
tp18
F19
s(S'VP'
p19
S'VADP'
tp20
F7
s(S'DP'
p21
S'DAAP'
tp22
F2
s(S'DP'
S'ADNNP'
tp23
F1
s(S'VP'
S'ADVVNP'
tp24
F1
s(S'MP'
S'MVDP'
tp25
F7
s(g9
S'PPPP'
tp26
F7
s(S'VP'
p27
S'VACP'
tp28
F7
s(S'DP'
p29
S'DADVVP'
tp30
F1
s(S'VP'
p31
S'ADVADVVDDP'
tp32
F1
s(S'PP'
S'PADVNNP'
tp33
F2
s(S'NP'
p34
S'NCCCP'
tp35
F1
s(S'VP'
p36
S'VCP'
tp37
F22
s(S'NP'
p38
S'NMMP'
tp39
F3
s(g9
S'PAP'
tp40
F31
s(S'MP'
S'MMVVP'
tp41
F1
s(S'NP'
p42
S'ANNCCP'
tp43
F1
s(S'PP'
S'APVVP'
tp44
F1
s(g31
S'ADVADVVPPP'
tp45
F1
s(g9
S'PNP'
tp46
F53
s(g13
S'DDP'
tp47
F14
s(S'VP'
S'VCCP'
tp48
F3
s(S'NP'
S'NADDP'
tp49
F1
s(S'NP'
p50
S'NMP'
tp51
F23
s(S'VP'
p52
S'VMMP'
tp53
F1
s(g9
S'PDP'
tp54
F48
s(S'CP'
S'CDAAPP'
tp55
F2
s(S'MP'
S'MVACP'
tp56
F1
s(S'DP'
p57
S'DPPPP'
tp58
F3
s(g21
S'DDANP'
tp59
F2
s(g15
S'NACP'
tp60
F6
s(g15
S'NCCP'
tp61
F21
s(S'NP'
p62
S'NNCP'
tp63
F10
s(S'PP'
S'PPAP'
tp64
F5
s(g36
S'AVNP'
tp65
F3
s(S'PP'
p66
S'ADVAPDP'
tp67
F1
s(S'MP'
S'MVAPP'
tp68
F1
s(S'CP'
p69
S'CCCDP'
tp70
F3
s(S'VP'
p71
S'AVNNP'
tp72
F1
s(g9
S'APDP'
tp73
F4
s(g50
S'NNNAAP'
tp74
F1
s(S'MP'
p75
S'MNPP'
tp76
F1
s(S'VP'
p77
S'VVANP'
tp78
F1
s(S'PP'
p79
S'ADVPNNP'
tp80
F1
s(S'NP'
p81
S'ADVADVNNPP'
tp82
F1
s(S'NP'
S'ADVNCCP'
tp83
F1
s(S'NP'
S'NNADVAPP'
tp84
F1
s(S'DP'
p85
S'DNNP'
tp86
F10
s(g50
S'NNADVPP'
tp87
F1
s(S'CP'
S'CCADVDP'
tp88
F1
s(S'VP'
p89
S'VVACP'
tp90
F1
s(S'DP'
p91
S'DACP'
tp92
F1
s(S'PP'
p93
S'APAP'
tp94
F2
s(S'CP'
S'ADVADVCDP'
tp95
F1
s(S'AP'
p96
S'ACCCP'
tp97
F1
s(S'PP'
p98
S'PPADP'
tp99
F1
s(S'VP'
S'ADVADVVMP'
tp100
F1
s(S'PP'
S'PAANP'
tp101
F6
s(S'PP'
S'PPVVP'
tp102
F3
s(S'VP'
p103
S'VAACP'
tp104
F2
s(S'MP'
p105
S'MVNP'
tp106
F7
s(S'PP'
p107
S'PAVP'
tp108
F8
s(S'VP'
S'ADVVMP'
tp109
F1
s(g52
S'VVVPP'
tp110
F1
s(S'CP'
S'CADVADVADPP'
tp111
F1
s(S'DP'
p112
S'DADP'
tp113
F1
s(S'AP'
p114
S'APP'
tp115
F11
s(g9
S'APVP'
tp116
F8
s(S'VP'
p117
S'VVNP'
tp118
F6
s(S'PP'
p119
S'PPVP'
tp120
F5
s(S'MP'
S'MPCP'
tp121
F1
s(S'VP'
S'VADVDP'
tp122
F3
s(S'VP'
p123
S'VAAP'
tp124
F5
s(g81
S'ANDP'
tp125
F2
s(g15
S'NVVP'
tp126
F5
s(S'PP'
p127
S'AAPVP'
tp128
F1
s(S'AP'
p129
S'AAP'
tp130
F4
s(g36
S'VMP'
tp131
F6
s(g36
S'VVNNP'
tp132
F4
s(g17
S'CDAPP'
tp133
F15
s(g85
S'ADNP'
tp134
F8
s(S'PP'
p135
S'PADP'
tp136
F6
s(S'NP'
S'ANDDP'
tp137
F2
s(g13
S'DAPP'
tp138
F18
s(S'VP'
S'AVVP'
tp139
F1
s(S'VP'
S'ADVADVVPP'
tp140
F1
s(S'VP'
S'ADVADVVDP'
tp141
F1
s(S'PP'
S'PPPDP'
tp142
F1
s(S'MP'
S'MVVAP'
tp143
F1
s(S'DP'
p144
S'DADVANP'
tp145
F1
s(g5
S'ADVDNP'
tp146
F1
s(g89
S'VVPP'
tp147
F4
s(S'CP'
S'AACDDP'
tp148
F1
s(S'MP'
S'MVPP'
tp149
F7
s(S'DP'
p150
S'ADVP'
tp151
F5
s(S'MP'
S'MVADP'
tp152
F1
s(S'CP'
S'CDDPPP'
tp153
F3
s(g15
S'NNPP'
tp154
F7
s(S'MP'
S'MMMPP'
tp155
F1
s(S'MP'
S'MVVDP'
tp156
F2
s(g114
S'AACP'
tp157
F10
s(g9
S'PPADVAAP'
tp158
F1
s(S'NP'
p159
S'ANVP'
tp160
F7
s(g29
S'DNNNP'
tp161
F1
s(S'PP'
p162
S'PMMP'
tp163
F1
s(g119
S'PVVVP'
tp164
F2
s(S'PP'
S'PMP'
tp165
F5
s(S'CP'
p166
S'CCDP'
tp167
F25
s(S'MP'
S'AMVP'
tp168
F1
s(g38
S'NVVVP'
tp169
F2
s(S'CP'
p170
S'CDDDPP'
tp171
F1
s(g170
S'CDADVADVPP'
tp172
F1
s(S'VP'
S'VVVDP'
tp173
F1
s(g11
S'PNNNP'
tp174
F2
s(g98
S'AAPNP'
tp175
F1
s(g9
S'PPP'
tp176
F28
s(g38
S'NNVVP'
tp177
F4
s(g81
S'NAVP'
tp178
F2
s(g11
S'PADVAP'
tp179
F2
s(S'MP'
S'AMDP'
tp180
F1
s(g85
S'ADVDVP'
tp181
F3
s(g13
S'DAP'
tp182
F15
s(g50
S'NAAAP'
tp183
F1
s(S'MP'
S'MADVADVVPP'
tp184
F1
s(S'DP'
S'ADVADVDNP'
tp185
F1
s(S'AP'
p186
S'AAADVCP'
tp187
F1
s(g36
S'VPP'
tp188
F33
s(g17
S'ADVCCDP'
tp189
F2
s(S'NP'
p190
S'NNNCP'
tp191
F2
s(S'PP'
S'PADVDP'
tp192
F2
s(g166
S'CDDPP'
tp193
F17
s(S'DP'
S'DAAPP'
tp194
F2
s(S'PP'
p195
S'PVVP'
tp196
F9
s(S'CP'
S'CADPPP'
tp197
F4
s(S'DP'
S'DADVPPP'
tp198
F2
s(S'VP'
S'ADVVCP'
tp199
F1
s(S'VP'
S'VPPP'
tp200
F8
s(S'MP'
p201
S'MVPPP'
tp202
F1
s(g112
S'DVVP'
tp203
F8
s(S'NP'
S'ANMP'
tp204
F5
s(g129
S'APPP'
tp205
F3
s(S'DP'
S'ADDCCP'
tp206
F1
s(g19
S'VVVP'
tp207
F3
s(g42
S'ADVNNCCP'
tp208
F1
s(g17
S'CADVDPP'
tp209
F4
s(g62
S'ANCP'
tp210
F10
s(g21
S'DCP'
tp211
F2
s(S'DP'
S'DAAVVP'
tp212
F1
s(g21
S'DDDP'
tp213
F5
s(g21
S'DDADVPP'
tp214
F1
s(S'MP'
p215
S'MAADP'
tp216
F1
s(S'VP'
p217
S'VVDP'
tp218
F8
s(g190
S'NPPP'
tp219
F9
s(g13
S'DAVP'
tp220
F3
s(S'AP'
p221
S'ACP'
tp222
F20
s(g9
S'PPNP'
tp223
F22
s(S'MP'
S'MADVADVVPPP'
tp224
F1
s(S'NP'
S'NAADP'
tp225
F1
s(g221
S'ADP'
tp226
F43
s(g66
S'APMP'
tp227
F1
s(S'DP'
S'DDAVP'
tp228
F1
s(S'VP'
S'VVPPPP'
tp229
F1
s(g27
S'AVDP'
tp230
F6
s(S'VP'
S'VVAP'
tp231
F6
s(S'NP'
p232
S'NNAPP'
tp233
F1
s(g195
S'PADVADVDP'
tp234
F1
s(g15
S'NPP'
tp235
F46
s(g15
S'NVP'
tp236
F40
s(S'NP'
S'NAAPP'
tp237
F1
s(g36
S'VDDP'
tp238
F13
s(S'NP'
S'ANCCCP'
tp239
F1
s(g159
S'ANPP'
tp240
F6
s(g119
S'ADVPPDP'
tp241
F1
s(S'PP'
p242
S'PPPPP'
tp243
F3
s(g7
S'MPDP'
tp244
F5
s(g13
S'ADVDPP'
tp245
F9
s(S'NP'
p246
S'NPPPP'
tp247
F1
s(S'DP'
p248
S'ADDP'
tp249
F1
s(S'CP'
S'CDDDADVPP'
tp250
F1
s(g15
S'NAACP'
tp251
F1
s(S'PP'
p252
S'PNNP'
tp253
F17
s(S'PP'
S'APNNP'
tp254
F1
s(g77
S'AVAP'
tp255
F1
s(g105
S'MMVP'
tp256
F3
s(g190
S'ADVNCP'
tp257
F2
s(S'AP'
S'AADP'
tp258
F14
s(S'MP'
p259
S'MPDDP'
tp260
F1
s(S'CP'
p261
S'ACDP'
tp262
F12
s(g11
S'PAAP'
tp263
F9
s(S'VP'
S'ADVVVAAP'
tp264
F1
s(S'CP'
S'CDADVPPP'
tp265
F1
s(g36
S'VAP'
tp266
F28
s(S'DP'
p267
S'DDDPP'
tp268
F1
s(g135
S'ADVPMP'
tp269
F1
s(g91
S'ADAP'
tp270
F1
s(g242
S'PPPVP'
tp271
F3
s(S'AP'
S'AADDP'
tp272
F2
s(S'NP'
p273
S'NADVADVCP'
tp274
F1
s(g144
S'DADVADVDP'
tp275
F1
s(g75
S'MPNP'
tp276
F3
s(S'MP'
S'MADP'
tp277
F1
s(S'PP'
S'PPPDDP'
tp278
F1
s(S'VP'
S'AAVVNP'
tp279
F1
s(g252
S'PANP'
tp280
F8
s(S'DP'
p281
S'DADVADVNNP'
tp282
F1
s(S'AP'
S'AAVP'
tp283
F2
s(S'AP'
S'AVVP'
tp284
F1
s(S'NP'
p285
S'NDDP'
tp286
F2
s(S'AP'
S'ACCP'
tp287
F2
s(S'DP'
S'DDDADVPP'
tp288
F1
s(g15
S'NDP'
tp289
F23
s(S'MP'
p290
S'MVAAP'
tp291
F1
s(g281
S'DDVP'
tp292
F5
s(g66
S'ADVPAP'
tp293
F3
s(g135
S'PCP'
tp294
F2
s(S'NP'
S'ADVNNVP'
tp295
F1
s(S'MP'
p296
S'MDNP'
tp297
F1
s(g114
S'ADVACP'
tp298
F2
s(S'DP'
S'ADPPP'
tp299
F4
s(g17
S'CCDDP'
tp300
F4
s(g135
S'PPAAP'
tp301
F1
s(g123
S'VVCP'
tp302
F5
s(S'PP'
p303
S'PADVADVPP'
tp304
F1
s(g232
S'AANCP'
tp305
F3
s(g36
S'VADVNP'
tp306
F1
s(g71
S'ADVAVAP'
tp307
F1
s(g119
S'APPP'
tp308
F4
s(S'CP'
S'CDAPPP'
tp309
F1
s(g36
S'VNNP'
tp310
F5
s(g114
S'AADVDP'
tp311
F1
s(g50
S'NADP'
tp312
F2
s(g13
S'DDNP'
tp313
F14
s(S'NP'
S'NADVCP'
tp314
F2
s(S'DP'
S'DDNNP'
tp315
F2
s(S'PP'
S'AAPPP'
tp316
F1
s(S'DP'
S'AADPP'
tp317
F1
s(S'MP'
S'MVAAAP'
tp318
F1
s(S'MP'
S'MVVNP'
tp319
F3
s(g17
S'ACDDP'
tp320
F3
s(S'VP'
S'VVCCP'
tp321
F1
s(S'DP'
S'DADVVVP'
tp322
F1
s(S'PP'
S'ADVPANP'
tp323
F1
s(g34
S'NAPP'
tp324
F2
s(S'PP'
S'APPVP'
tp325
F1
s(g77
S'VVVCP'
tp326
F1
s(S'NP'
p327
S'ANCCP'
tp328
F1
s(S'NP'
p329
S'AANPP'
tp330
F2
s(g273
S'NNMP'
tp331
F3
s(g127
S'ADVADVPNP'
tp332
F2
s(g290
S'MVAP'
tp333
F5
s(g9
S'PVP'
tp334
F48
s(g57
S'DADVAVP'
tp335
F1
s(g221
S'ADVAACP'
tp336
F1
s(S'NP'
S'ANNCP'
tp337
F1
s(S'VP'
S'AVCP'
tp338
F2
s(g246
S'NADVADVAP'
tp339
F1
s(g13
S'DPP'
tp340
F62
s(S'NP'
S'ADVNVP'
tp341
F1
s(g13
S'DDPP'
tp342
F24
s(g150
S'DANP'
tp343
F15
s(S'AP'
S'ADVAMP'
tp344
F1
s(S'DP'
S'ADVADVADPP'
tp345
F1
s(g117
S'VADVCP'
tp346
F4
s(S'NP'
S'NNNNAP'
tp347
F1
s(g15
S'NADVCCP'
tp348
F2
s(g50
S'ADVNMMP'
tp349
F1
s(g79
S'PDDP'
tp350
F9
s(S'MP'
S'MVDDP'
tp351
F1
s(g15
S'NNVP'
tp352
F11
s(S'VP'
p353
S'VVDDP'
tp354
F1
s(g186
S'ADDP'
tp355
F5
s(g93
S'PNNNNP'
tp356
F1
s(S'PP'
S'ADVPPNP'
tp357
F1
s(S'CP'
S'CADVADVDPP'
tp358
F1
s(g13
S'DPPP'
tp359
F25
s(g217
S'AVVCP'
tp360
F1
s(g162
S'PPPANP'
tp361
F1
s(g9
S'PPDP'
tp362
F14
s(g15
S'NAP'
tp363
F16
s(S'VP'
S'VAAAP'
tp364
F1
s(g353
S'ADVAVNP'
tp365
F1
s(g103
S'VVP'
tp366
F9
s(g13
S'DDAPP'
tp367
F2
s(g303
S'ADVADVPVP'
tp368
F1
s(g114
S'AAADP'
tp369
F1
s(g9
S'APNP'
tp370
F10
s(g144
S'DDVVP'
tp371
F1
s(S'VP'
S'VVVNP'
tp372
F1
s(S'MP'
S'AMAP'
tp373
F1
s(S'NP'
S'NAMP'
tp374
F3
s(g17
S'CDPP'
tp375
F59
s(S'NP'
p376
S'NNDP'
tp377
F2
s(g69
S'ADVCDP'
tp378
F7
s(g107
S'PPNNP'
tp379
F4
s(S'PP'
S'PADVCP'
tp380
F1
s(g85
S'ADVADVDPP'
tp381
F2
s(g36
S'VDP'
tp382
F48
s(S'NP'
S'NADVAP'
tp383
F1
s(g186
S'AMMMP'
tp384
F1
s(g166
S'CADPP'
tp385
F9
s(S'NP'
S'NADVAVP'
tp386
F1
s(S'MP'
S'MADVADVVDP'
tp387
F1
s(S'VP'
S'AVPP'
tp388
F2
s(g201
S'AMVVP'
tp389
F1
s(S'CP'
S'ADVCADVDP'
tp390
F1
s(S'CP'
S'CDPPPP'
tp391
F3
s(S'PP'
S'PANNP'
tp392
F2
s(S'AP'
S'AAAPP'
tp393
F1
s(S'DP'
S'DAPPP'
tp394
F1
s(g267
S'DADVADVPP'
tp395
F1
s(S'DP'
S'DMP'
tp396
F3
s(S'PP'
S'PPPNP'
tp397
F1
s(g5
S'ADPP'
tp398
F15
s(S'PP'
S'ADVPVP'
tp399
F1
s(S'AP'
S'ADVADVAVP'
tp400
F1
s(g11
S'ADVPDP'
tp401
F1
s(g259
S'MVADVAP'
tp402
F1
s(g15
S'NCP'
tp403
F55
s(g162
S'PPADVNNP'
tp404
F1
s(g376
S'ADVANDP'
tp405
F1
s(g114
S'AAAP'
tp406
F1
s(g215
S'MANMP'
tp407
F1
s(g96
S'AAMP'
tp408
F1
s(g248
S'DADVNNP'
tp409
F1
s(g285
S'NNCCP'
tp410
F2
s(g296
S'MNVP'
tp411
F1
s(g327
S'AANCCP'
tp412
F1
s(S'VP'
S'VAPP'
tp413
F4
s(g281
S'DADVPP'
tp414
F5
s(S'AP'
S'AMP'
tp415
F5
s(S'CP'
S'CCADP'
tp416
F2
s(g329
S'ADVNNCP'
tp417
F1
s(S'AP'
S'ADVAPP'
tp418
F1
s(g17
S'AACDP'
tp419
F2
s(g13
S'DVP'
tp420
F40
s(S'AP'
S'AADVADVPP'
tp421
F1
s(S'AP'
S'AVP'
tp422
F7
s(S'NP'
S'NADVVP'
tp423
F2
s(g21
S'DDPPP'
tp424
F4
s(S'NP'
S'ADVNMP'
tp425
F1
s(S'NP'
S'NNAP'
tp426
F1
s(g261
S'CDADVPP'
tp427
F2
s(g36
S'VNP'
tp428
F34
s(S'VP'
S'VANP'
tp429
F5
s(S'VP'
S'VADVAP'
tp430
F1
s(S'PP'
S'PPADVNP'
tp431
F1
s.