ccollections
defaultdict
p1
(c__builtin__
float
p2
tRp3
(S'DP'
S'DDADVANP'
tp4
F1
s(S'MP'
p5
S'MMDP'
tp6
F5
s(S'NP'
S'AANDDP'
tp7
F1
s(S'CP'
S'CAAADPP'
tp8
F1
s(S'DP'
S'DDMP'
tp9
F1
s(S'DP'
p10
S'ADDPP'
tp11
F1
s(S'DP'
p12
S'DDAP'
tp13
F6
s(S'VP'
S'ADVVVNP'
tp14
F4
s(S'CP'
S'CCDDDDP'
tp15
F2
s(S'VP'
p16
S'VVVVP'
tp17
F1
s(S'DP'
p18
S'DAANNP'
tp19
F1
s(S'AP'
S'AVVVP'
tp20
F2
s(S'VP'
p21
S'VVADVVP'
tp22
F1
s(S'PP'
p23
S'PAPP'
tp24
F16
s(S'PP'
p25
S'PADVNP'
tp26
F27
s(S'DP'
p27
S'DNP'
tp28
F250
s(S'MP'
S'MVVAAP'
tp29
F1
s(S'NP'
p30
S'ADVADVNNVVP'
tp31
F1
s(S'PP'
S'AAPDDP'
tp32
F2
s(S'NP'
S'ADVNPPP'
tp33
F1
s(S'CP'
S'CDPPP'
tp34
F69
s(S'DP'
S'DADVDDP'
tp35
F1
s(S'VP'
p36
S'VADP'
tp37
F29
s(S'DP'
p38
S'DNNNNP'
tp39
F1
s(S'MP'
S'MADVADVADVPPDDP'
tp40
F1
s(S'NP'
p41
S'ADVNCCP'
tp42
F4
s(S'PP'
p43
S'PPPPPP'
tp44
F2
s(S'CP'
S'CADVADVDPPP'
tp45
F1
s(S'AP'
S'AADVMP'
tp46
F4
s(S'DP'
S'ADNNP'
tp47
F3
s(S'CP'
S'CCCADVADVDP'
tp48
F1
s(S'MP'
S'MDVP'
tp49
F1
s(S'PP'
p50
S'PADVADVAAP'
tp51
F1
s(g25
S'APVP'
tp52
F28
s(S'MP'
S'MVDP'
tp53
F28
s(S'PP'
S'PADVANP'
tp54
F8
s(S'NP'
S'AANNPP'
tp55
F1
s(S'PP'
p56
S'PPPP'
tp57
F56
s(S'DP'
p58
S'DDDNP'
tp59
F4
s(S'VP'
p60
S'VACP'
tp61
F8
s(S'AP'
p62
S'AAAVP'
tp63
F5
s(S'PP'
S'PPAAP'
tp64
F2
s(S'DP'
p65
S'DADVVP'
tp66
F9
s(S'PP'
S'PAANNP'
tp67
F1
s(S'PP'
S'PADVNNP'
tp68
F2
s(S'AP'
S'AADVPP'
tp69
F1
s(S'PP'
S'AAPPPP'
tp70
F1
s(S'AP'
S'ADVADVAAAP'
tp71
F1
s(S'VP'
S'AAVVP'
tp72
F1
s(S'NP'
S'NADVVVP'
tp73
F4
s(S'CP'
p74
S'CADVDAPP'
tp75
F1
s(S'NP'
p76
S'ANADVPP'
tp77
F1
s(S'VP'
p78
S'VCP'
tp79
F140
s(S'MP'
S'MVVANP'
tp80
F1
s(S'NP'
p81
S'NMMP'
tp82
F12
s(S'VP'
S'ADVVAAP'
tp83
F1
s(S'DP'
p84
S'DDDNNP'
tp85
F2
s(S'PP'
p86
S'PAP'
tp87
F142
s(S'PP'
p88
S'PPANNP'
tp89
F1
s(S'MP'
S'MMVVP'
tp90
F3
s(S'DP'
S'DDDADVPP'
tp91
F1
s(S'DP'
p92
S'DDADVADVPP'
tp93
F3
s(S'MP'
p94
S'MVADVNP'
tp95
F2
s(S'NP'
p96
S'ANPPP'
tp97
F2
s(S'PP'
p98
S'PPADVDP'
tp99
F1
s(S'VP'
S'VADVANP'
tp100
F4
s(S'PP'
p101
S'PNP'
tp102
F244
s(S'AP'
S'AADVADVDP'
tp103
F1
s(S'DP'
p104
S'DDP'
tp105
F59
s(S'NP'
S'AANADVADVVP'
tp106
F1
s(S'VP'
S'ADVVDDP'
tp107
F1
s(S'NP'
S'NNNPP'
tp108
F2
s(g25
S'PAAP'
tp109
F25
s(S'MP'
p110
S'MCDP'
tp111
F8
s(S'CP'
S'CDDDADVPP'
tp112
F1
s(S'NP'
S'NNADVADVCP'
tp113
F1
s(S'VP'
p114
S'VVVVAAP'
tp115
F1
s(S'MP'
S'MNAP'
tp116
F1
s(S'NP'
p117
S'NMP'
tp118
F107
s(S'DP'
p119
S'ADCP'
tp120
F1
s(S'VP'
p121
S'VMMP'
tp122
F4
s(g101
S'PDP'
tp123
F231
s(S'DP'
S'DDPPPPP'
tp124
F1
s(S'PP'
p125
S'PPADVVP'
tp126
F1
s(S'NP'
p127
S'ADVNVVP'
tp128
F2
s(g121
S'VNNNNP'
tp129
F1
s(S'MP'
S'MADVVNP'
tp130
F1
s(S'MP'
S'MPADVANP'
tp131
F1
s(S'VP'
p132
S'AVAAP'
tp133
F2
s(S'PP'
p134
S'APADVCP'
tp135
F1
s(S'CP'
S'ACADVADP'
tp136
F1
s(S'NP'
S'NACCP'
tp137
F3
s(S'AP'
S'ANP'
tp138
F1
s(S'PP'
p139
S'PADVPP'
tp140
F5
s(S'MP'
S'MVADVANP'
tp141
F1
s(S'NP'
p142
S'NNADVCP'
tp143
F1
s(g121
S'VVADVNP'
tp144
F1
s(S'MP'
S'MVACP'
tp145
F1
s(S'DP'
S'AADDVP'
tp146
F1
s(S'AP'
S'ADVADVAMP'
tp147
F1
s(S'DP'
p148
S'DPPPP'
tp149
F12
s(S'DP'
p150
S'DDANP'
tp151
F5
s(g41
S'NACP'
tp152
F26
s(g117
S'NCCP'
tp153
F66
s(g76
S'ADVNDP'
tp154
F2
s(S'MP'
S'MADVPDP'
tp155
F1
s(S'AP'
S'AAAADP'
tp156
F1
s(S'VP'
p157
S'ADVVAANP'
tp158
F1
s(S'NP'
p159
S'NNCP'
tp160
F65
s(S'DP'
p161
S'ADVDDPP'
tp162
F8
s(S'NP'
S'NADVADVVP'
tp163
F2
s(S'DP'
p164
S'DPPPPP'
tp165
F2
s(S'NP'
S'NNPPPP'
tp166
F2
s(g58
S'DDDDP'
tp167
F3
s(S'DP'
p168
S'DDAPP'
tp169
F3
s(S'NP'
p170
S'ANVVVP'
tp171
F1
s(S'DP'
S'DDADVADVPPP'
tp172
F1
s(S'VP'
S'AVNP'
tp173
F13
s(S'VP'
p174
S'VVADP'
tp175
F3
s(S'CP'
p176
S'CCADVADVADVDP'
tp177
F1
s(S'NP'
S'ADVNDDP'
tp178
F2
s(S'NP'
p179
S'NADVADVPP'
tp180
F3
s(S'PP'
S'ADVPVVP'
tp181
F2
s(g38
S'ADVADVDANP'
tp182
F1
s(S'PP'
S'ADVAPDP'
tp183
F1
s(S'VP'
S'AVDDDP'
tp184
F1
s(g168
S'AAADPP'
tp185
F1
s(S'MP'
S'MAPNP'
tp186
F2
s(S'MP'
S'MVPPP'
tp187
F2
s(S'AP'
S'AAAAP'
tp188
F1
s(g62
S'AAADVADVVP'
tp189
F1
s(S'VP'
S'VVVADVCP'
tp190
F1
s(S'PP'
S'PDDDP'
tp191
F3
s(S'PP'
p192
S'ADVPPAAP'
tp193
F1
s(S'NP'
S'NCCCCP'
tp194
F3
s(S'MP'
S'MADVVNNP'
tp195
F1
s(S'VP'
S'ADVVAP'
tp196
F11
s(S'PP'
p197
S'PPAAPP'
tp198
F1
s(S'PP'
p199
S'APDP'
tp200
F21
s(S'NP'
S'NNNNNPP'
tp201
F1
s(S'CP'
p202
S'ADVCCADVDP'
tp203
F1
s(S'VP'
S'ADVVNNP'
tp204
F4
s(S'AP'
S'AADVCP'
tp205
F1
s(g16
S'VVADVADVVP'
tp206
F1
s(S'VP'
S'AAAVADVDP'
tp207
F1
s(g174
S'VVANP'
tp208
F1
s(S'PP'
p209
S'ADVPNNP'
tp210
F1
s(S'VP'
S'ADVVVP'
tp211
F2
s(S'DP'
S'ADVDVP'
tp212
F13
s(S'PP'
S'PPPPPNP'
tp213
F1
s(S'PP'
S'PPADVADVAP'
tp214
F1
s(S'DP'
S'DAAP'
tp215
F4
s(S'MP'
S'MPNNP'
tp216
F1
s(S'NP'
S'ADVANCP'
tp217
F5
s(S'PP'
p218
S'PPADVADVAAP'
tp219
F1
s(g104
S'DNNP'
tp220
F69
s(S'CP'
S'CADVDDPP'
tp221
F5
s(S'PP'
S'PADVAP'
tp222
F2
s(S'CP'
S'CDDPPPP'
tp223
F3
s(S'CP'
S'CCADVDP'
tp224
F5
s(S'VP'
S'VVNNNP'
tp225
F1
s(S'VP'
S'VVACP'
tp226
F1
s(S'VP'
S'AAVDDP'
tp227
F1
s(g96
S'NNNVP'
tp228
F4
s(g125
S'PAAVVP'
tp229
F1
s(S'PP'
p230
S'PPPPPAAP'
tp231
F1
s(S'PP'
S'PADVVP'
tp232
F8
s(S'DP'
S'DADVADVADVPPP'
tp233
F1
s(S'MP'
p234
S'MVVDDP'
tp235
F1
s(S'PP'
p236
S'PADVADVADVAP'
tp237
F1
s(S'PP'
p238
S'APAP'
tp239
F6
s(S'AP'
S'APP'
tp240
F46
s(S'VP'
S'VVADVADVAAP'
tp241
F1
s(S'AP'
S'AAAPPP'
tp242
F1
s(S'NP'
p243
S'NADVMP'
tp244
F1
s(S'AP'
S'AAP'
tp245
F14
s(S'MP'
p246
S'ADVMAVP'
tp247
F1
s(S'NP'
S'ADVADVNDP'
tp248
F1
s(S'NP'
S'ADVANPP'
tp249
F1
s(S'MP'
S'MVVCP'
tp250
F1
s(S'DP'
S'DAAVP'
tp251
F6
s(S'PP'
S'PAANP'
tp252
F9
s(g78
S'VADVADVCP'
tp253
F2
s(S'VP'
p254
S'VVVANP'
tp255
F2
s(S'PP'
S'PPVVP'
tp256
F14
s(S'VP'
S'VAACP'
tp257
F2
s(S'DP'
S'DDDDADVPP'
tp258
F1
s(S'NP'
S'NNAAAP'
tp259
F1
s(S'MP'
S'MVNP'
tp260
F27
s(S'AP'
S'AADVCCP'
tp261
F1
s(S'PP'
p262
S'ADVADVPANP'
tp263
F1
s(S'PP'
p264
S'PAVP'
tp265
F26
s(S'CP'
S'CDADVADVPP'
tp266
F1
s(g21
S'VVVCCP'
tp267
F1
s(S'VP'
p268
S'ADVVMP'
tp269
F3
s(S'VP'
S'VVVPP'
tp270
F3
s(S'CP'
S'CADVADVADPP'
tp271
F1
s(S'MP'
S'MADVCCDP'
tp272
F1
s(S'MP'
S'MADVVPP'
tp273
F1
s(g38
S'DADP'
tp274
F8
s(S'AP'
S'ADVADP'
tp275
F5
s(S'CP'
p276
S'ADVADVCDP'
tp277
F3
s(S'VP'
p278
S'VVADVPP'
tp279
F1
s(g92
S'ADVDDP'
tp280
F1
s(g23
S'APDDP'
tp281
F5
s(S'VP'
S'ADVADVVVNP'
tp282
F1
s(S'VP'
S'ADVADVVANP'
tp283
F1
s(S'NP'
S'ADVNAP'
tp284
F3
s(g92
S'DAAAVP'
tp285
F1
s(S'PP'
S'PPCP'
tp286
F1
s(S'AP'
S'ACCCP'
tp287
F1
s(S'VP'
p288
S'ADVVNP'
tp289
F8
s(S'DP'
p290
S'DPPPPPP'
tp291
F1
s(S'MP'
S'MNNCP'
tp292
F3
s(S'CP'
S'CADVADPPP'
tp293
F1
s(g78
S'VVNP'
tp294
F46
s(S'VP'
S'VVVCP'
tp295
F2
s(S'PP'
S'PPVP'
tp296
F45
s(g243
S'ADVNAAPP'
tp297
F1
s(S'PP'
S'PPADVADVPP'
tp298
F1
s(S'MP'
S'MPCP'
tp299
F1
s(S'VP'
S'VADVDP'
tp300
F9
s(S'MP'
S'MVVVPP'
tp301
F1
s(g60
S'VVADVAP'
tp302
F4
s(g254
S'VAAP'
tp303
F24
s(g81
S'NNADVAVP'
tp304
F1
s(S'NP'
p305
S'ANDP'
tp306
F11
s(g305
S'NVVP'
tp307
F45
s(S'PP'
S'AAPVP'
tp308
F5
s(S'VP'
p309
S'VMP'
tp310
F32
s(S'NP'
S'AANNMP'
tp311
F2
s(g268
S'VVNNP'
tp312
F7
s(S'CP'
S'CDAPP'
tp313
F41
s(g288
S'VVAAP'
tp314
F7
s(S'MP'
S'MMMADVADVVP'
tp315
F1
s(S'MP'
S'MMPP'
tp316
F2
s(S'DP'
p317
S'ADVADVP'
tp318
F2
s(S'DP'
S'ADVADVDDVP'
tp319
F2
s(g27
S'ADNP'
tp320
F43
s(S'CP'
S'ACCDP'
tp321
F5
s(g86
S'PADP'
tp322
F32
s(g278
S'ADVVVCP'
tp323
F2
s(S'NP'
p324
S'ANDDP'
tp325
F4
s(g84
S'ADVADVDVP'
tp326
F2
s(S'DP'
S'DADVAP'
tp327
F1
s(S'AP'
p328
S'AAAADVADVADVAAP'
tp329
F1
s(S'NP'
S'NNNCP'
tp330
F6
s(S'DP'
p331
S'DAPP'
tp332
F58
s(S'VP'
p333
S'ADVADVVPP'
tp334
F1
s(S'VP'
p335
S'VADVAAP'
tp336
F1
s(S'PP'
S'ADVPVVVP'
tp337
F1
s(S'VP'
S'ADVADVVDP'
tp338
F4
s(S'AP'
S'ADVAVVVVP'
tp339
F1
s(S'PP'
p340
S'PPPDP'
tp341
F7
s(S'DP'
S'DDAAVP'
tp342
F1
s(S'MP'
S'MVVAP'
tp343
F1
s(S'DP'
S'DADVANP'
tp344
F2
s(g38
S'ADVDNP'
tp345
F11
s(S'VP'
p346
S'VVPP'
tp347
F26
s(S'PP'
S'ADVADVPDDDP'
tp348
F1
s(S'MP'
S'MMADVADVADVVP'
tp349
F1
s(S'CP'
S'AACDDP'
tp350
F2
s(S'MP'
p351
S'MVPP'
tp352
F20
s(g150
S'ADVP'
tp353
F20
s(S'CP'
S'CDDPPP'
tp354
F10
s(S'VP'
S'ADVADVADVVDP'
tp355
F1
s(g305
S'NNPP'
tp356
F34
s(S'NP'
S'NADVADVPPP'
tp357
F2
s(g351
S'MMMPP'
tp358
F1
s(g10
S'DDDDNP'
tp359
F1
s(S'MP'
S'MVVDP'
tp360
F4
s(S'AP'
p361
S'AACP'
tp362
F18
s(S'NP'
p363
S'ANVP'
tp364
F16
s(g119
S'DDADVADVADVADVVP'
tp365
F1
s(S'DP'
S'DADVADVADVADVPP'
tp366
F1
s(S'NP'
S'ADVADVADVNPPP'
tp367
F1
s(S'VP'
p368
S'VVADVCCP'
tp369
F1
s(S'DP'
S'DNNNP'
tp370
F2
s(S'AP'
p371
S'AADVAAP'
tp372
F1
s(S'MP'
p373
S'MVADVCP'
tp374
F1
s(S'MP'
p375
S'MPPDP'
tp376
F3
s(S'DP'
p377
S'ADVDDVP'
tp378
F1
s(g159
S'ANAP'
tp379
F2
s(S'PP'
S'PMMP'
tp380
F2
s(g23
S'PVVVP'
tp381
F2
s(S'PP'
p382
S'PMP'
tp383
F31
s(S'CP'
p384
S'CCDP'
tp385
F98
s(S'DP'
S'ADVADVADVDPP'
tp386
F3
s(S'DP'
p387
S'DDANNP'
tp388
F1
s(S'MP'
S'AMVP'
tp389
F7
s(S'VP'
S'VVVVADVAAP'
tp390
F1
s(S'VP'
S'ADVAVVP'
tp391
F1
s(g142
S'NVVVP'
tp392
F9
s(S'CP'
S'CDDDPP'
tp393
F4
s(S'CP'
S'CDAAPP'
tp394
F9
s(g132
S'VVVDP'
tp395
F6
s(g238
S'PNNNP'
tp396
F10
s(S'CP'
S'CCCCDP'
tp397
F2
s(S'NP'
S'ANMMP'
tp398
F2
s(S'AP'
S'AACCP'
tp399
F2
s(S'PP'
S'AAPNP'
tp400
F2
s(S'PP'
p401
S'PADVVVP'
tp402
F3
s(g101
S'PPP'
tp403
F145
s(S'NP'
S'NNADVDP'
tp404
F1
s(S'NP'
S'NAVP'
tp405
F21
s(S'DP'
p406
S'ADVADVDDNP'
tp407
F1
s(S'VP'
S'VAAVP'
tp408
F1
s(S'VP'
S'VVDDDP'
tp409
F1
s(S'VP'
p410
S'ADVVVAADP'
tp411
F1
s(S'NP'
S'NDDDP'
tp412
F1
s(g199
S'PPADVADVNNP'
tp413
F1
s(S'NP'
S'NAAAP'
tp414
F4
s(S'NP'
p415
S'NCCCP'
tp416
F2
s(S'MP'
S'MCADP'
tp417
F1
s(S'AP'
S'AADVVP'
tp418
F1
s(S'PP'
S'PPPPDP'
tp419
F2
s(S'VP'
p420
S'ADVADVVVPP'
tp421
F1
s(S'DP'
S'ADVADVDNP'
tp422
F2
s(g36
S'VPP'
tp423
F161
s(S'MP'
S'AAMVP'
tp424
F1
s(S'CP'
S'ADVCCDP'
tp425
F6
s(S'PP'
S'PPPADVVVP'
tp426
F1
s(S'MP'
S'ADVADVMVP'
tp427
F1
s(g18
S'ADVDDNP'
tp428
F2
s(S'NP'
S'AANPPP'
tp429
F1
s(S'DP'
p430
S'DDADVDP'
tp431
F1
s(g209
S'PADVDP'
tp432
F14
s(S'CP'
S'CDADVAPP'
tp433
F1
s(S'CP'
S'CDDDPPP'
tp434
F1
s(S'DP'
S'DANNP'
tp435
F1
s(S'MP'
S'MADVVAP'
tp436
F3
s(S'PP'
S'PADVAAP'
tp437
F1
s(g384
S'CDDPP'
tp438
F74
s(S'DP'
p439
S'DAAPP'
tp440
F12
s(g401
S'PVVP'
tp441
F41
s(S'CP'
S'CADPPP'
tp442
F5
s(g12
S'DADVPPP'
tp443
F4
s(S'NP'
S'NADVMMP'
tp444
F1
s(S'MP'
S'MAVCP'
tp445
F1
s(S'VP'
S'ADVVCP'
tp446
F3
s(S'PP'
p447
S'ADVPPAP'
tp448
F1
s(g36
S'VPPP'
tp449
F22
s(S'VP'
S'AVCCP'
tp450
F2
s(S'VP'
S'VVPPP'
tp451
F7
s(g110
S'MMPPP'
tp452
F1
s(S'PP'
S'PPAP'
tp453
F17
s(S'DP'
S'DVVP'
tp454
F43
s(S'MP'
S'ADVMVP'
tp455
F1
s(S'PP'
p456
S'ADVADVADVPPPP'
tp457
F1
s(g236
S'ADVADVPPVP'
tp458
F1
s(S'NP'
S'ANMP'
tp459
F10
s(g361
S'APPP'
tp460
F7
s(g23
S'ADVPPP'
tp461
F5
s(S'DP'
S'ADVADPPP'
tp462
F1
s(g363
S'ADVADVNVP'
tp463
F3
s(S'VP'
p464
S'VVVP'
tp465
F13
s(S'CP'
S'CADVDPP'
tp466
F18
s(S'NP'
S'ADVADVNNVP'
tp467
F1
s(S'NP'
p468
S'ANCP'
tp469
F35
s(S'DP'
p470
S'DCP'
tp471
F19
s(S'NP'
p472
S'ANNCP'
tp473
F1
s(g410
S'ADVVCCP'
tp474
F1
s(S'VP'
S'ADVVVVP'
tp475
F1
s(g317
S'DADVCP'
tp476
F1
s(S'NP'
p477
S'NNVVVVP'
tp478
F1
s(g38
S'DDDP'
tp479
F16
s(S'AP'
S'ADDDDP'
tp480
F1
s(g331
S'DAVP'
tp481
F25
s(S'DP'
S'DAMP'
tp482
F1
s(S'MP'
S'MAADP'
tp483
F2
s(g159
S'ANVVP'
tp484
F8
s(S'VP'
p485
S'VVDP'
tp486
F47
s(S'NP'
p487
S'NPPP'
tp488
F29
s(S'MP'
S'AMVVP'
tp489
F1
s(S'VP'
S'ADVADVADVVANP'
tp490
F1
s(S'VP'
S'VADVADVAP'
tp491
F2
s(S'NP'
S'NNNNMP'
tp492
F1
s(S'AP'
S'ACP'
tp493
F74
s(g134
S'AAPAP'
tp494
F1
s(S'NP'
p495
S'NDDDDP'
tp496
F1
s(S'PP'
S'PADVADVNNP'
tp497
F1
s(g101
S'PPNP'
tp498
F66
s(S'AP'
S'ADVACCP'
tp499
F1
s(g415
S'NAADP'
tp500
F1
s(g430
S'ADVDAPP'
tp501
F2
s(S'MP'
S'AMAP'
tp502
F1
s(S'DP'
S'AADVP'
tp503
F3
s(S'NP'
p504
S'NNNNCCP'
tp505
F1
s(S'MP'
S'MADNP'
tp506
F1
s(S'AP'
p507
S'ADVAAVP'
tp508
F1
s(S'MP'
S'ADVMDP'
tp509
F2
s(S'PP'
S'PPPADVAP'
tp510
F1
s(S'CP'
S'CDDADVPP'
tp511
F3
s(S'AP'
S'ADP'
tp512
F204
s(S'CP'
S'CCCDDDP'
tp513
F1
s(g340
S'APMP'
tp514
F4
s(S'DP'
S'DDAVP'
tp515
F3
s(g447
S'APVVP'
tp516
F1
s(S'MP'
p517
S'MDPP'
tp518
F1
s(g439
S'AAAADPP'
tp519
F1
s(g197
S'AAPDP'
tp520
F1
s(S'VP'
S'ADVADVVNNP'
tp521
F1
s(S'AP'
S'AAADP'
tp522
F8
s(S'NP'
S'ANNVP'
tp523
F1
s(g368
S'VVAP'
tp524
F20
s(S'NP'
S'NNAPP'
tp525
F2
s(S'DP'
p526
S'ADVADVDDPPP'
tp527
F1
s(g25
S'PADVADVDP'
tp528
F3
s(S'VP'
p529
S'AAVCP'
tp530
F1
s(g456
S'PADVMP'
tp531
F1
s(g117
S'NPP'
tp532
F196
s(g125
S'PPPPNP'
tp533
F2
s(g117
S'NVP'
tp534
F211
s(S'PP'
p535
S'PPVVVP'
tp536
F1
s(g98
S'PAAVP'
tp537
F3
s(g324
S'NAAPP'
tp538
F1
s(g38
S'ADVADAP'
tp539
F1
s(S'MP'
S'ADVMMVP'
tp540
F1
s(g36
S'VDDP'
tp541
F47
s(S'MP'
S'MVADVADVCP'
tp542
F1
s(S'MP'
p543
S'MPAADP'
tp544
F1
s(S'AP'
S'ADVADVADVADP'
tp545
F1
s(g371
S'AAADVDP'
tp546
F1
s(S'DP'
S'DDDVVP'
tp547
F1
s(S'PP'
S'ADVPPVP'
tp548
F1
s(S'MP'
S'MADVAVDP'
tp549
F1
s(S'PP'
p550
S'PPADVADP'
tp551
F3
s(S'DP'
S'DADVAPP'
tp552
F1
s(S'VP'
S'ADVADVVAP'
tp553
F1
s(S'NP'
p554
S'ANCCCP'
tp555
F1
s(g41
S'ANPP'
tp556
F30
s(S'PP'
S'ADVPPDP'
tp557
F1
s(S'PP'
p558
S'PPPPP'
tp559
F9
s(S'MP'
S'MPDP'
tp560
F9
s(S'NP'
S'ADVNAAAP'
tp561
F1
s(S'MP'
S'MVVPP'
tp562
F3
s(g254
S'ADVADVADVVAP'
tp563
F1
s(S'PP'
S'PPPNP'
tp564
F11
s(S'CP'
S'CDADVADVADVADVPP'
tp565
F1
s(S'NP'
S'ADVADVNPP'
tp566
F1
s(S'NP'
S'NPPPP'
tp567
F4
s(g317
S'ADDP'
tp568
F1
s(S'AP'
S'ADVAMP'
tp569
F2
s(S'CP'
S'CAADPP'
tp570
F4
s(S'DP'
S'DADVADVVP'
tp571
F1
s(S'NP'
S'NAACP'
tp572
F4
s(g56
S'PNNP'
tp573
F67
s(S'CP'
S'CDADVADVADVPPP'
tp574
F1
s(g98
S'APNNP'
tp575
F6
s(g543
S'MMNP'
tp576
F1
s(S'NP'
S'ADVNACP'
tp577
F1
s(S'PP'
S'ADVPADVVP'
tp578
F2
s(S'PP'
S'ADVADVADVADVPVVP'
tp579
F1
s(g127
S'NNNNMMP'
tp580
F1
s(g420
S'AVAP'
tp581
F5
s(S'MP'
S'MMVP'
tp582
F15
s(S'PP'
S'PADVDDP'
tp583
F2
s(S'MP'
S'MNCP'
tp584
F1
s(S'NP'
S'ADVNCP'
tp585
F12
s(S'AP'
S'AADP'
tp586
F55
s(g276
S'ACDP'
tp587
F39
s(S'VP'
p588
S'ADVVDDDP'
tp589
F1
s(g346
S'VCCP'
tp590
F27
s(S'CP'
S'CCCCDDP'
tp591
F1
s(S'NP'
S'NNACP'
tp592
F2
s(S'DP'
p593
S'AAADPPP'
tp594
F1
s(S'MP'
S'MDNNP'
tp595
F3
s(S'CP'
S'CDADVPPP'
tp596
F4
s(g36
S'VAP'
tp597
F149
s(S'VP'
S'AAVADVDP'
tp598
F1
s(S'DP'
S'DDDPP'
tp599
F9
s(S'CP'
S'ADVCDDP'
tp600
F3
s(S'VP'
S'VADVMP'
tp601
F1
s(S'MP'
S'MADVVVNP'
tp602
F1
s(S'AP'
p603
S'AAVVP'
tp604
F1
s(S'MP'
p605
S'MNMP'
tp606
F2
s(g377
S'DDDPPP'
tp607
F4
s(g464
S'ADVAVDP'
tp608
F2
s(S'DP'
S'DADVDP'
tp609
F1
s(S'MP'
p610
S'MVVCCP'
tp611
F1
s(S'DP'
S'DDDAP'
tp612
F1
s(S'AP'
S'AAACP'
tp613
F2
s(g368
S'ADVVVDP'
tp614
F3
s(g88
S'PPPVP'
tp615
F4
s(S'AP'
S'AADDP'
tp616
F10
s(g588
S'VAANP'
tp617
F1
s(S'NP'
p618
S'NADVADVCP'
tp619
F1
s(S'MP'
S'MADVVANP'
tp620
F1
s(S'PP'
S'PAAAAP'
tp621
F1
s(S'MP'
S'MPNP'
tp622
F2
s(S'MP'
p623
S'MADP'
tp624
F18
s(S'MP'
p625
S'MVADVDP'
tp626
F2
s(S'AP'
S'AMMP'
tp627
F6
s(S'MP'
S'MPADP'
tp628
F1
s(S'AP'
S'AAACCP'
tp629
F1
s(S'MP'
S'MAVAAP'
tp630
F1
s(S'DP'
p631
S'DDADVNP'
tp632
F3
s(g25
S'PANP'
tp633
F35
s(S'MP'
S'MADVVADVAP'
tp634
F1
s(S'NP'
S'ANNMP'
tp635
F1
s(g5
S'MVVPPP'
tp636
F2
s(S'AP'
S'AAVP'
tp637
F5
s(S'AP'
S'AVVP'
tp638
F6
s(g305
S'NDDP'
tp639
F19
s(S'CP'
S'CDDADVADVPPP'
tp640
F1
s(S'DP'
S'ADVADVDPPP'
tp641
F1
s(S'AP'
p642
S'ACCP'
tp643
F14
s(S'NP'
S'ADVADVANCP'
tp644
F1
s(g588
S'VVVVAP'
tp645
F1
s(S'VP'
S'AAVPPPP'
tp646
F1
s(g117
S'NDP'
tp647
F125
s(g157
S'ADVVANP'
tp648
F1
s(g41
S'NNNNVVP'
tp649
F1
s(S'PP'
S'AAPMMP'
tp650
F1
s(S'MP'
S'MVAAP'
tp651
F2
s(g27
S'DDVP'
tp652
F40
s(S'PP'
p653
S'ADVPPADP'
tp654
F1
s(S'NP'
S'AANVP'
tp655
F2
s(S'PP'
p656
S'PPADVANP'
tp657
F1
s(S'VP'
S'AAVVPP'
tp658
F1
s(S'VP'
S'VNNNP'
tp659
F2
s(S'VP'
S'VADVADVPP'
tp660
F1
s(S'AP'
S'AAAPPPPP'
tp661
F1
s(S'PP'
S'ADVADVPPP'
tp662
F1
s(S'PP'
S'APADVDP'
tp663
F1
s(g199
S'PCP'
tp664
F12
s(g78
S'VADVADP'
tp665
F1
s(S'CP'
S'ACADVDDP'
tp666
F1
s(g382
S'PAADP'
tp667
F5
s(S'NP'
p668
S'NADVCCP'
tp669
F2
s(S'VP'
S'VPPPP'
tp670
F3
s(g504
S'ADVNNPP'
tp671
F2
s(g550
S'PACP'
tp672
F4
s(S'MP'
S'MPAP'
tp673
F1
s(S'PP'
S'PPADVADVADVADVDP'
tp674
F1
s(S'NP'
S'NNNDP'
tp675
F2
s(S'AP'
S'ADVACP'
tp676
F4
s(S'VP'
S'AVVDP'
tp677
F1
s(g159
S'NNVP'
tp678
F43
s(g623
S'MVCP'
tp679
F21
s(g276
S'CCDDP'
tp680
F20
s(S'NP'
S'NNADVVP'
tp681
F2
s(g268
S'AAVCCP'
tp682
F1
s(S'NP'
S'NAAP'
tp683
F9
s(S'MP'
p684
S'MVMP'
tp685
F1
s(S'NP'
p686
S'ADVANAP'
tp687
F1
s(S'VP'
S'VAMP'
tp688
F1
s(S'NP'
S'NNVVP'
tp689
F10
s(S'NP'
S'NAAMP'
tp690
F1
s(S'VP'
p691
S'VVCP'
tp692
F21
s(S'VP'
S'VVMP'
tp693
F4
s(g456
S'PADVADVPP'
tp694
F1
s(g179
S'AANCP'
tp695
F8
s(g268
S'VADVNP'
tp696
F8
s(S'VP'
p697
S'ADVAVAP'
tp698
F1
s(g218
S'APPP'
tp699
F11
s(S'AP'
S'ADVAAADVDDP'
tp700
F1
s(S'VP'
S'ADVVPP'
tp701
F9
s(S'VP'
p702
S'ADVVVPPP'
tp703
F1
s(S'PP'
S'PPADVADVADVNP'
tp704
F1
s(g346
S'VNNP'
tp705
F30
s(S'PP'
S'APADVNP'
tp706
F2
s(S'NP'
p707
S'NADP'
tp708
F7
s(g27
S'DDNP'
tp709
F61
s(S'CP'
S'ACADVDP'
tp710
F1
s(S'NP'
S'NADVCP'
tp711
F6
s(g161
S'DDNNP'
tp712
F13
s(S'PP'
S'AAPPP'
tp713
F1
s(S'NP'
p714
S'ADVANVP'
tp715
F6
s(S'NP'
S'ADVNAAP'
tp716
F1
s(S'NP'
S'ADVADVNCP'
tp717
F1
s(S'MP'
S'MADVVDDDP'
tp718
F1
s(S'DP'
S'AADPP'
tp719
F5
s(S'VP'
p720
S'VADVAVP'
tp721
F1
s(S'NP'
S'ADVNAACP'
tp722
F1
s(g375
S'MMAAAP'
tp723
F1
s(S'NP'
S'NNAMP'
tp724
F1
s(S'VP'
S'VVMMP'
tp725
F1
s(S'PP'
S'ADVPAP'
tp726
F2
s(S'AP'
S'AAMMP'
tp727
F1
s(S'AP'
S'AADVADVMP'
tp728
F1
s(g714
S'NNADVADVADVCP'
tp729
F1
s(g605
S'MADVVDP'
tp730
F1
s(S'MP'
S'MVVNP'
tp731
F3
s(S'CP'
S'CDDADVPPP'
tp732
F1
s(S'MP'
S'MMADVNP'
tp733
F1
s(g148
S'ADVDNNP'
tp734
F1
s(S'CP'
S'ACDDP'
tp735
F6
s(S'NP'
S'ADVADVNNCP'
tp736
F1
s(S'MP'
S'MVVVVADVAAP'
tp737
F1
s(S'AP'
S'AADVADVDDP'
tp738
F1
s(S'AP'
S'AAPP'
tp739
F8
s(S'VP'
S'VVCCP'
tp740
F6
s(S'DP'
S'DMMP'
tp741
F1
s(g507
S'AADVAMP'
tp742
F1
s(S'DP'
S'DADVVVP'
tp743
F2
s(S'PP'
S'ADVPADVADVDDP'
tp744
F1
s(g686
S'NNPPP'
tp745
F1
s(S'VP'
S'ADVADVADVADVVCP'
tp746
F1
s(S'DP'
S'DDPPPPPP'
tp747
F1
s(S'NP'
S'NAPP'
tp748
F14
s(S'AP'
S'ADVADVADP'
tp749
F1
s(S'NP'
p750
S'NADVDP'
tp751
F3
s(g262
S'ADVPPPP'
tp752
F1
s(S'DP'
S'ADVADVADVADVDVVP'
tp753
F1
s(S'NP'
p754
S'ANCCP'
tp755
F6
s(g41
S'AANPP'
tp756
F2
s(g335
S'VDDDP'
tp757
F3
s(g487
S'NNMP'
tp758
F13
s(S'DP'
S'DDDVP'
tp759
F1
s(S'MP'
p760
S'MPMP'
tp761
F1
s(g656
S'APADVVVP'
tp762
F1
s(S'CP'
S'CADDPP'
tp763
F1
s(g610
S'MAPDP'
tp764
F1
s(g340
S'PAAAP'
tp765
F2
s(g230
S'ADVADVPNP'
tp766
F5
s(S'PP'
S'PPPAP'
tp767
F1
s(S'CP'
S'CADVADVDDPPP'
tp768
F1
s(S'DP'
S'ADVDADP'
tp769
F1
s(S'VP'
S'VVVPPP'
tp770
F1
s(S'NP'
S'ADVANVVP'
tp771
F2
s(S'MP'
S'MVAP'
tp772
F21
s(g529
S'VADVADVDDP'
tp773
F1
s(g101
S'PVP'
tp774
F216
s(S'DP'
p775
S'DADVAVP'
tp776
F2
s(g209
S'PPADVVVP'
tp777
F1
s(g485
S'VADVCCP'
tp778
F2
s(g618
S'ANAAAP'
tp779
F1
s(S'AP'
S'ADVAACP'
tp780
F1
s(g12
S'DVVVP'
tp781
F3
s(g707
S'ADVNNAP'
tp782
F1
s(S'VP'
S'VADVMMP'
tp783
F1
s(S'NP'
S'NNADVADVPPP'
tp784
F1
s(S'PP'
p785
S'PPDDP'
tp786
F4
s(g335
S'AVCP'
tp787
F12
s(g684
S'MPPNNP'
tp788
F2
s(g27
S'DPP'
tp789
F287
s(S'DP'
S'ADVVP'
tp790
F2
s(g142
S'ADVNVP'
tp791
F10
s(S'NP'
S'ADVNADVPP'
tp792
F1
s(g27
S'DDPP'
tp793
F103
s(S'DP'
S'DDADVPPP'
tp794
F1
s(g104
S'DANP'
tp795
F54
s(g114
S'VVVMMP'
tp796
F1
s(g363
S'NADVPP'
tp797
F4
s(g487
S'NAAVP'
tp798
F1
s(S'DP'
S'ADVADVADPP'
tp799
F1
s(S'NP'
S'NADVAPP'
tp800
F1
s(g775
S'AADNP'
tp801
F2
s(S'CP'
S'CADVADVADVDPP'
tp802
F2
s(S'VP'
S'VADVCP'
tp803
F8
s(S'AP'
S'ADVADVACP'
tp804
F2
s(g760
S'MADVVVPP'
tp805
F1
s(g464
S'ADVVAADP'
tp806
F1
s(g684
S'MDNP'
tp807
F10
s(S'MP'
p808
S'MNAVP'
tp809
F1
s(g21
S'VCCCP'
tp810
F1
s(g653
S'PADVPPP'
tp811
F1
s(g439
S'DCCP'
tp812
F1
s(g517
S'MVADVCCP'
tp813
F2
s(S'CP'
S'CDPPPPP'
tp814
F2
s(g65
S'ADVADPP'
tp815
F2
s(S'DP'
S'DDADVVP'
tp816
F3
s(g101
S'PDDP'
tp817
F48
s(S'MP'
S'MVDDP'
tp818
F4
s(S'PP'
S'PCCP'
tp819
F3
s(S'PP'
S'ADVAPNP'
tp820
F1
s(g373
S'ADVMAACP'
tp821
F1
s(S'DP'
S'ADPPP'
tp822
F8
s(g495
S'NADVADVVVP'
tp823
F3
s(S'AP'
S'AADVADVCP'
tp824
F1
s(g56
S'APAAP'
tp825
F2
s(g346
S'AVDP'
tp826
F37
s(S'NP'
S'NNP'
tp827
F2
s(g691
S'VVDDP'
tp828
F8
s(g38
S'DAANP'
tp829
F5
s(g642
S'ADDP'
tp830
F28
s(S'PP'
S'PNNNNP'
tp831
F2
s(S'PP'
S'ADVPPNP'
tp832
F1
s(g234
S'MDAP'
tp833
F1
s(S'CP'
S'CADVADVDPP'
tp834
F2
s(S'CP'
S'ADVADVADVCDP'
tp835
F2
s(g27
S'DPPP'
tp836
F107
s(g387
S'DAVVP'
tp837
F1
s(S'DP'
S'AADPPP'
tp838
F1
s(g192
S'ADVADVPPNP'
tp839
F4
s(g328
S'ADVADVADVAAADVDP'
tp840
F1
s(g264
S'ADVPNP'
tp841
F14
s(g56
S'PPDP'
tp842
F67
s(S'MP'
S'MVPPPP'
tp843
F1
s(S'MP'
S'MAVDP'
tp844
F3
s(g148
S'ADVDCP'
tp845
F2
s(S'DP'
S'DDPPPP'
tp846
F3
s(S'AP'
S'ADVADVAACP'
tp847
F2
s(S'VP'
S'VAADP'
tp848
F1
s(S'DP'
S'DDCP'
tp849
F1
s(S'VP'
p850
S'VMMMP'
tp851
F2
s(S'AP'
p852
S'ADVADVAADP'
tp853
F1
s(S'MP'
S'MNCCP'
tp854
F1
s(g487
S'NAP'
tp855
F70
s(g754
S'NNAAP'
tp856
F3
s(g164
S'AADDP'
tp857
F2
s(S'VP'
S'VAAAP'
tp858
F2
s(S'VP'
S'AVADVCP'
tp859
F1
s(g94
S'ADVMMNP'
tp860
F1
s(g720
S'ADVAVNP'
tp861
F2
s(g246
S'MAADDP'
tp862
F1
s(g850
S'VVP'
tp863
F61
s(S'MP'
S'ADVMNP'
tp864
F1
s(g631
S'DADVNP'
tp865
F13
s(S'PP'
S'ADVADVPVP'
tp866
F4
s(g653
S'PADVADVANP'
tp867
F1
s(g558
S'APNP'
tp868
F24
s(g290
S'DDVVP'
tp869
F9
s(S'AP'
S'AAADDP'
tp870
F1
s(S'VP'
S'VVVNP'
tp871
F4
s(g517
S'MNPP'
tp872
F3
s(S'MP'
S'MAAVCP'
tp873
F1
s(S'NP'
p874
S'NAMP'
tp875
F3
s(g477
S'AANVVP'
tp876
F1
s(S'MP'
S'MVANP'
tp877
F5
s(S'MP'
S'MVNNP'
tp878
F1
s(g384
S'CDPP'
tp879
F257
s(S'NP'
S'NNADVPP'
tp880
F1
s(S'AP'
S'ADDDP'
tp881
F2
s(S'MP'
S'MVADVPP'
tp882
F1
s(S'CP'
S'ADVCADP'
tp883
F1
s(S'NP'
S'NNDP'
tp884
F13
s(g351
S'MMMVP'
tp885
F1
s(S'CP'
S'ADVCDP'
tp886
F15
s(g16
S'ADVADVVNP'
tp887
F1
s(S'NP'
p888
S'NADVADVADVCP'
tp889
F1
s(g852
S'AADVADVAAP'
tp890
F1
s(S'MP'
S'MNDDP'
tp891
F1
s(g264
S'PPNNP'
tp892
F8
s(g192
S'PPMP'
tp893
F4
s(g691
S'VADVADVNP'
tp894
F2
s(S'DP'
S'ADVADVDPP'
tp895
F4
s(g36
S'VDP'
tp896
F226
s(g888
S'NADVAP'
tp897
F2
s(S'MP'
S'ADVAMPP'
tp898
F1
s(g309
S'AVDDP'
tp899
F6
s(S'CP'
S'ADVADVCDDP'
tp900
F3
s(S'DP'
p901
S'DDCCP'
tp902
F1
s(g38
S'DAP'
tp903
F46
s(g808
S'MAVNP'
tp904
F2
s(g384
S'CADPP'
tp905
F48
s(S'NP'
S'NADVAVP'
tp906
F1
s(S'PP'
S'PPAVP'
tp907
F2
s(S'VP'
S'VVDDDDP'
tp908
F2
s(S'MP'
S'MADVADVVDP'
tp909
F1
s(S'PP'
S'PPDDDP'
tp910
F1
s(g691
S'AVPP'
tp911
F10
s(g526
S'ADADVPP'
tp912
F1
s(S'MP'
S'MADVCADVDP'
tp913
F1
s(g78
S'VVADVDP'
tp914
F4
s(S'CP'
S'ADVCADVDP'
tp915
F1
s(S'CP'
S'CDDPPPPP'
tp916
F1
s(S'CP'
S'CDPPPP'
tp917
F5
s(g197
S'PPAADP'
tp918
F1
s(g333
S'AAVDP'
tp919
F6
s(S'DP'
S'AADNNP'
tp920
F1
s(S'PP'
S'PANNP'
tp921
F1
s(g472
S'ADVANMP'
tp922
F1
s(S'VP'
S'VACCP'
tp923
F1
s(S'DP'
S'ADPPPP'
tp924
F2
s(S'VP'
S'ADVVADVAP'
tp925
F1
s(g290
S'DADVADVPP'
tp926
F3
s(g104
S'DMP'
tp927
F15
s(S'CP'
S'CCADP'
tp928
F6
s(S'DP'
S'ADVDPP'
tp929
F31
s(g750
S'NADVADVDP'
tp930
F2
s(g668
S'ADVANCCP'
tp931
F3
s(S'PP'
S'PADVADVNP'
tp932
F3
s(S'NP'
S'NNNP'
tp933
F2
s(g27
S'ADPP'
tp934
F70
s(g236
S'PADVADVPPP'
tp935
F1
s(S'NP'
S'NNADVVVP'
tp936
F1
s(g278
S'VADVPP'
tp937
F4
s(S'VP'
S'VADVADVNNP'
tp938
F1
s(S'CP'
S'CCADVDDP'
tp939
F1
s(S'PP'
S'ADVPVP'
tp940
F6
s(g406
S'DDDDPP'
tp941
F3
s(g371
S'ADVAADDP'
tp942
F1
s(S'NP'
S'NNVVVP'
tp943
F4
s(S'VP'
S'VVADVADVCP'
tp944
F1
s(S'PP'
S'PAMP'
tp945
F2
s(g209
S'ADVPDP'
tp946
F10
s(g702
S'ADVVADP'
tp947
F1
s(g554
S'ANNPP'
tp948
F1
s(S'AP'
S'ADVAAMP'
tp949
F1
s(g117
S'NCP'
tp950
F224
s(g170
S'ADVNNACCP'
tp951
F1
s(g176
S'CADVDPPP'
tp952
F5
s(S'VP'
S'ADVVVPP'
tp953
F4
s(g901
S'DDADVVVP'
tp954
F1
s(S'AP'
S'AAAP'
tp955
F4
s(S'CP'
S'CDDADVADVPP'
tp956
F1
s(g43
S'PPPPVP'
tp957
F1
s(S'DP'
S'AADADVADVNP'
tp958
F1
s(g642
S'AAMP'
tp959
F5
s(g98
S'PPAAAP'
tp960
F1
s(S'MP'
S'MVCCP'
tp961
F1
s(S'DP'
S'DADVNNP'
tp962
F4
s(g874
S'NNCCP'
tp963
F13
s(S'MP'
S'MNVP'
tp964
F5
s(S'NP'
S'NNNADVDP'
tp965
F1
s(g535
S'PADVADVAP'
tp966
F1
s(g697
S'VAPP'
tp967
F8
s(g850
S'AAVMMMP'
tp968
F1
s(g114
S'ADVVDP'
tp969
F9
s(S'DP'
S'ADADVNP'
tp970
F1
s(S'AP'
S'AADVDP'
tp971
F2
s(g470
S'DADVPP'
tp972
F19
s(S'AP'
S'AMP'
tp973
F35
s(S'PP'
S'ADVADVADVPPDDP'
tp974
F1
s(S'NP'
S'ADVNNCP'
tp975
F2
s(S'DP'
S'ADVDAP'
tp976
F4
s(g468
S'NNNPPP'
tp977
F1
s(g603
S'ADVAPP'
tp978
F5
s(g139
S'ADVPAAADP'
tp979
F1
s(S'DP'
S'ADVDAVP'
tp980
F1
s(S'CP'
S'AACDP'
tp981
F7
s(S'CP'
S'CCDDDP'
tp982
F4
s(g74
S'CCCDP'
tp983
F3
s(S'MP'
S'MDCCP'
tp984
F1
s(g439
S'ADVDPPP'
tp985
F8
s(g27
S'DVP'
tp986
F219
s(S'VP'
S'AVNNP'
tp987
F2
s(g487
S'ADVNPP'
tp988
F11
s(S'VP'
S'VVAMP'
tp989
F1
s(g642
S'AVP'
tp990
F46
s(g30
S'NADVVP'
tp991
F18
s(g202
S'CAAAADPP'
tp992
F1
s(g720
S'ADVVPPP'
tp993
F1
s(g38
S'DDPPP'
tp994
F21
s(S'MP'
S'MADVADVADVVDP'
tp995
F1
s(S'NP'
S'ADVNMP'
tp996
F5
s(g363
S'NNAP'
tp997
F11
s(g785
S'PPANP'
tp998
F2
s(g625
S'MCDDP'
tp999
F2
s(S'CP'
S'CDADVPP'
tp1000
F10
s(g36
S'VNP'
tp1001
F190
s(g593
S'DDADVPP'
tp1002
F5
s(g346
S'VANP'
tp1003
F20
s(g16
S'VADVAP'
tp1004
F6
s(g50
S'PPADVNP'
tp1005
F2
s(S'VP'
S'VVVAP'
tp1006
F3
s(S'DP'
S'DDDDVP'
tp1007
F1
s(S'VP'
S'ADVADVVVDP'
tp1008
F1
s.