ccollections
defaultdict
p1
(c__builtin__
float
p2
tRp3
(S'MP'
p4
S'MMDP'
tp5
F3
s(S'VP'
p6
S'VVAAAP'
tp7
F1
s(S'PP'
p8
S'AAPNP'
tp9
F3
s(S'CP'
S'CAAADPP'
tp10
F3
s(S'DP'
S'DDMP'
tp11
F1
s(S'DP'
p12
S'ADDPP'
tp13
F4
s(S'DP'
S'DDAP'
tp14
F2
s(S'VP'
p15
S'ADVVVNP'
tp16
F1
s(S'AP'
p17
S'AADDDP'
tp18
F2
s(S'CP'
S'CCDDDDP'
tp19
F1
s(S'VP'
p20
S'VVVVP'
tp21
F1
s(S'NP'
S'NADDP'
tp22
F1
s(S'PP'
p23
S'ADVADVPAP'
tp24
F1
s(S'PP'
p25
S'PAPP'
tp26
F7
s(S'PP'
p27
S'PADVNP'
tp28
F9
s(S'DP'
p29
S'DNP'
tp30
F207
s(S'NP'
S'ADVNDP'
tp31
F1
s(S'PP'
p32
S'AAPDDP'
tp33
F2
s(S'CP'
p34
S'CDPPP'
tp35
F60
s(S'NP'
p36
S'AANDDP'
tp37
F1
s(S'VP'
p38
S'VADP'
tp39
F17
s(S'CP'
S'CCADVADVADP'
tp40
F1
s(S'DP'
S'DAAP'
tp41
F3
s(S'PP'
S'PPAVP'
tp42
F1
s(S'VP'
S'AVMMP'
tp43
F1
s(S'VP'
S'VAVP'
tp44
F1
s(S'CP'
S'CADVADVDPPP'
tp45
F1
s(S'AP'
S'AADVMP'
tp46
F1
s(S'DP'
S'DAADP'
tp47
F1
s(S'DP'
p48
S'ADNNP'
tp49
F5
s(S'MP'
S'MDVP'
tp50
F1
s(g38
S'ADVVNP'
tp51
F17
s(S'MP'
p52
S'MVDP'
tp53
F20
s(S'PP'
S'PADVANP'
tp54
F2
s(S'PP'
p55
S'PPPP'
tp56
F32
s(S'MP'
p57
S'MVCCCP'
tp58
F1
s(S'DP'
S'DDDNP'
tp59
F2
s(S'MP'
p60
S'MMADVVP'
tp61
F1
s(S'VP'
p62
S'VACP'
tp63
F16
s(S'AP'
S'AAAVP'
tp64
F1
s(S'PP'
S'PPAAP'
tp65
F1
s(S'DP'
S'DADVVP'
tp66
F8
s(S'MP'
S'MMCP'
tp67
F1
s(S'AP'
S'AAAADDDP'
tp68
F1
s(S'NP'
S'NADVACP'
tp69
F1
s(S'DP'
S'ADVADVAAADPP'
tp70
F1
s(S'VP'
S'AAVVP'
tp71
F1
s(S'NP'
p72
S'NCCCP'
tp73
F2
s(S'CP'
S'CADVDAPP'
tp74
F1
s(g62
S'VCP'
tp75
F109
s(S'NP'
S'AANCCP'
tp76
F1
s(S'NP'
p77
S'NMMP'
tp78
F12
s(S'AP'
S'AAADDDDDP'
tp79
F1
s(S'NP'
S'ADVADVADVADVANCP'
tp80
F1
s(S'NP'
S'AAAANPP'
tp81
F1
s(S'DP'
S'DDDNNP'
tp82
F3
s(g55
S'ADVPADP'
tp83
F1
s(g55
S'PAP'
tp84
F91
s(S'PP'
S'PPANNP'
tp85
F1
s(g60
S'MMVVP'
tp86
F1
s(g25
S'APVVP'
tp87
F5
s(S'VP'
S'ADVVCCP'
tp88
F1
s(g6
S'VAAVP'
tp89
F1
s(g55
S'PNP'
tp90
F236
s(S'AP'
S'AADVADVDP'
tp91
F2
s(S'MP'
S'MADVCDP'
tp92
F1
s(S'VP'
p93
S'AVNNNP'
tp94
F1
s(S'DP'
p95
S'DDP'
tp96
F45
s(S'NP'
p97
S'ADVADVANCP'
tp98
F2
s(S'VP'
S'ADVVDDP'
tp99
F1
s(S'NP'
p100
S'NNNPP'
tp101
F3
s(S'NP'
p102
S'NNDP'
tp103
F19
s(S'CP'
S'CADADVPPP'
tp104
F1
s(S'MP'
S'MCDP'
tp105
F6
s(S'NP'
p106
S'ANADVAP'
tp107
F1
s(S'NP'
p108
S'ADVADVANAP'
tp109
F1
s(S'PP'
S'ADVADVPPDP'
tp110
F1
s(S'NP'
S'NNADVADVCP'
tp111
F1
s(S'MP'
S'MNAP'
tp112
F1
s(S'AP'
p113
S'ADVADVAVVP'
tp114
F1
s(S'NP'
p115
S'NMP'
tp116
F75
s(S'VP'
S'AVVDDP'
tp117
F1
s(S'DP'
p118
S'ADCP'
tp119
F1
s(S'CP'
S'CADVDADVPP'
tp120
F1
s(S'VP'
S'VAAADP'
tp121
F1
s(g6
S'AAVNP'
tp122
F1
s(g55
S'PDP'
tp123
F188
s(S'CP'
S'CDADVADVPP'
tp124
F4
s(S'NP'
p125
S'ADVNVVP'
tp126
F1
s(S'VP'
S'VNNNNP'
tp127
F3
s(S'MP'
S'MNNVP'
tp128
F2
s(S'VP'
p129
S'VVVDDP'
tp130
F1
s(S'MP'
S'MADVVNP'
tp131
F1
s(S'VP'
S'AAAVCP'
tp132
F2
s(S'VP'
S'VVVDP'
tp133
F6
s(S'PP'
p134
S'ADVPAAP'
tp135
F1
s(S'PP'
p136
S'PADVPP'
tp137
F2
s(g106
S'NNADVCP'
tp138
F1
s(S'VP'
S'VVADVNP'
tp139
F1
s(S'VP'
p140
S'VVDDP'
tp141
F4
s(S'NP'
S'ADVNACP'
tp142
F2
s(S'DP'
S'DPPPP'
tp143
F14
s(S'DP'
p144
S'DDANP'
tp145
F8
s(S'PP'
S'PADVADP'
tp146
F1
s(g102
S'NACP'
tp147
F15
s(S'AP'
p148
S'ADVAVP'
tp149
F2
s(g108
S'NCCP'
tp150
F45
s(S'CP'
S'CDDDDPPP'
tp151
F1
s(S'AP'
S'AAAADP'
tp152
F1
s(S'PP'
p153
S'APADVAAP'
tp154
F1
s(g72
S'NNCP'
tp155
F58
s(S'DP'
S'ADVDDPP'
tp156
F4
s(g72
S'NADVADVVP'
tp157
F4
s(S'NP'
p158
S'NNPPPP'
tp159
F1
s(S'DP'
S'DDDDP'
tp160
F4
s(S'CP'
S'CAADAPPPP'
tp161
F1
s(S'MP'
S'MAAADP'
tp162
F1
s(g62
S'AVNP'
tp163
F13
s(S'VP'
p164
S'VVADP'
tp165
F2
s(S'DP'
S'DDAVVP'
tp166
F1
s(S'NP'
S'NADVADVPP'
tp167
F4
s(S'PP'
p168
S'APNP'
tp169
F13
s(S'VP'
S'VADVVP'
tp170
F2
s(S'CP'
S'ACCDDP'
tp171
F1
s(S'MP'
p172
S'MVAPP'
tp173
F1
s(S'NP'
p174
S'ANADVVP'
tp175
F2
s(S'PP'
p176
S'ADVPADVDP'
tp177
F1
s(S'DP'
p178
S'ADVVVP'
tp179
F1
s(S'NP'
S'NCCCCP'
tp180
F2
s(g34
S'CCCDP'
tp181
F5
s(S'VP'
p182
S'AVNNP'
tp183
F3
s(S'PP'
p184
S'ADVPPNNP'
tp185
F1
s(S'VP'
S'VCCCP'
tp186
F1
s(S'CP'
S'CAADDADVADVADVPP'
tp187
F1
s(S'PP'
S'APDP'
tp188
F16
s(S'NP'
S'NAAPPP'
tp189
F1
s(S'CP'
p190
S'ACDDP'
tp191
F7
s(S'VP'
p192
S'ADVVNNP'
tp193
F3
s(g148
S'AADVCP'
tp194
F3
s(S'VP'
p195
S'ADVADVAVPP'
tp196
F1
s(S'NP'
S'ADVNADVCP'
tp197
F1
s(S'VP'
S'VVANP'
tp198
F6
s(S'MP'
p199
S'ADVMPP'
tp200
F1
s(S'VP'
S'VVVVDP'
tp201
F2
s(S'VP'
S'ADVVVP'
tp202
F2
s(S'CP'
S'ADVACDP'
tp203
F1
s(S'DP'
S'DADVADVADVPP'
tp204
F1
s(S'CP'
S'CCCADP'
tp205
F1
s(g102
S'AANAPPP'
tp206
F1
s(g176
S'PAAP'
tp207
F18
s(S'NP'
S'ADVANCP'
tp208
F2
s(S'DP'
p209
S'DNNP'
tp210
F72
s(S'CP'
S'CADVDDPP'
tp211
F2
s(S'DP'
p212
S'DPPPPP'
tp213
F1
s(S'CP'
S'CDDPPPP'
tp214
F1
s(S'CP'
p215
S'CCADVDP'
tp216
F2
s(S'VP'
p217
S'AAVPPP'
tp218
F1
s(S'VP'
S'AAVDDP'
tp219
F1
s(S'DP'
p220
S'ADDNP'
tp221
F1
s(S'NP'
S'NNNVP'
tp222
F7
s(S'PP'
S'PAADVNNP'
tp223
F1
s(S'PP'
S'AAPPDP'
tp224
F1
s(S'PP'
S'PADVVP'
tp225
F8
s(S'PP'
S'APAP'
tp226
F5
s(S'VP'
S'ADVADVVDDP'
tp227
F1
s(S'CP'
S'ADVADVCDP'
tp228
F3
s(S'NP'
S'AANADVVVP'
tp229
F1
s(S'DP'
p230
S'ADVDAAVVP'
tp231
F1
s(S'AP'
S'AAP'
tp232
F5
s(S'CP'
S'CADVADPP'
tp233
F3
s(S'NP'
p234
S'ADVANPP'
tp235
F3
s(S'VP'
S'ADVADVVMP'
tp236
F1
s(S'DP'
p237
S'DAAVP'
tp238
F5
s(S'CP'
S'CDDDDPP'
tp239
F4
s(S'MP'
S'MPVP'
tp240
F1
s(S'MP'
S'MVVVNP'
tp241
F1
s(S'PP'
S'PAANP'
tp242
F6
s(S'CP'
S'ACCADVDP'
tp243
F1
s(S'NP'
S'ANVP'
tp244
F15
s(g72
S'NNADVPP'
tp245
F1
s(S'VP'
S'VVAVP'
tp246
F1
s(S'NP'
S'NNAAAP'
tp247
F1
s(g52
S'MVNP'
tp248
F30
s(S'AP'
S'ADVAADP'
tp249
F1
s(g55
S'PAVP'
tp250
F14
s(S'PP'
S'ADVAPNNP'
tp251
F1
s(g97
S'NNADVADVANP'
tp252
F1
s(S'AP'
S'AADVVVP'
tp253
F1
s(S'DP'
S'DDAPPP'
tp254
F2
s(S'VP'
S'VVVPP'
tp255
F1
s(S'NP'
p256
S'NNADP'
tp257
F1
s(S'PP'
S'APPPP'
tp258
F1
s(S'DP'
S'DADP'
tp259
F4
s(S'AP'
S'ADVADP'
tp260
F5
s(g113
S'APP'
tp261
F23
s(S'VP'
p262
S'ADVVMP'
tp263
F1
s(S'DP'
S'ADVDDP'
tp264
F1
s(S'PP'
S'APDDP'
tp265
F2
s(S'NP'
S'ADVNAP'
tp266
F1
s(S'DP'
p267
S'DAAAVP'
tp268
F3
s(S'PP'
S'PPCP'
tp269
F1
s(S'PP'
p270
S'APVP'
tp271
F13
s(S'MP'
S'MNNCP'
tp272
F1
s(S'MP'
S'MNCP'
tp273
F3
s(S'VP'
p274
S'VVNP'
tp275
F34
s(S'PP'
p276
S'PPPNNP'
tp277
F1
s(g168
S'PPVP'
tp278
F29
s(g182
S'VAVVP'
tp279
F1
s(S'VP'
S'VVVAAAANP'
tp280
F1
s(S'VP'
S'VADVDP'
tp281
F6
s(S'VP'
S'VAAP'
tp282
F20
s(S'MP'
S'MANPP'
tp283
F1
s(g72
S'ANDP'
tp284
F11
s(S'NP'
p285
S'NVVP'
tp286
F40
s(S'PP'
p287
S'AAPVP'
tp288
F3
s(S'PP'
p289
S'PPADP'
tp290
F3
s(g274
S'VMP'
tp291
F26
s(S'VP'
S'VVNNP'
tp292
F8
s(S'CP'
S'CDAPP'
tp293
F28
s(S'VP'
S'VVAAP'
tp294
F3
s(S'DP'
S'ADVADVP'
tp295
F1
s(g95
S'ADNP'
tp296
F14
s(S'VP'
S'AVVDP'
tp297
F3
s(S'AP'
S'AAAAADP'
tp298
F1
s(S'CP'
S'ACCDP'
tp299
F3
s(S'PP'
S'PADP'
tp300
F18
s(g274
S'ADVVVCP'
tp301
F1
s(S'NP'
p302
S'ANDDP'
tp303
F2
s(S'DP'
S'ADVADVDVP'
tp304
F2
s(g230
S'DADVAP'
tp305
F1
s(S'VP'
S'AVVCCP'
tp306
F1
s(g48
S'DAPP'
tp307
F42
s(S'VP'
S'AVVP'
tp308
F1
s(S'VP'
S'ADVADVVPP'
tp309
F1
s(S'VP'
S'VADVADVNP'
tp310
F4
s(S'PP'
S'AAAPVP'
tp311
F1
s(g62
S'ADVADVVDP'
tp312
F3
s(S'AP'
S'ADVAVVVVP'
tp313
F1
s(S'PP'
S'PPPDP'
tp314
F6
s(S'PP'
S'AAAPDP'
tp315
F1
s(S'AP'
S'AAPPP'
tp316
F1
s(S'MP'
p317
S'MDMP'
tp318
F1
s(S'VP'
S'VDDDDP'
tp319
F1
s(S'DP'
p320
S'DAAANP'
tp321
F1
s(S'MP'
S'MAPDP'
tp322
F1
s(S'VP'
S'VAAPP'
tp323
F1
s(S'DP'
S'ADVDNP'
tp324
F8
s(S'DP'
S'AADDADVADVADVPP'
tp325
F1
s(S'VP'
p326
S'VVPP'
tp327
F11
s(S'DP'
S'DDDADVNP'
tp328
F1
s(S'CP'
S'AACDDP'
tp329
F1
s(S'MP'
p330
S'MVPP'
tp331
F8
s(g95
S'ADVP'
tp332
F8
s(S'MP'
S'MVADP'
tp333
F1
s(S'CP'
S'CDDPPP'
tp334
F13
s(S'PP'
S'PPAVVP'
tp335
F2
s(S'PP'
S'PPPAP'
tp336
F2
s(g285
S'NNPP'
tp337
F30
s(S'DP'
S'DDDDNP'
tp338
F1
s(S'MP'
S'MVVDP'
tp339
F4
s(S'AP'
S'AACP'
tp340
F4
s(S'PP'
S'PPVVP'
tp341
F7
s(S'DP'
p342
S'DDDDDVP'
tp343
F1
s(g140
S'VAACP'
tp344
F2
s(S'DP'
p345
S'DNNNP'
tp346
F5
s(S'DP'
S'ADVDADVPP'
tp347
F1
s(g72
S'ADVNNADVCP'
tp348
F1
s(S'CP'
S'CDDAPPP'
tp349
F1
s(g93
S'VADVDDP'
tp350
F1
s(g55
S'PMMP'
tp351
F3
s(S'PP'
S'PVVVP'
tp352
F3
s(g27
S'PMP'
tp353
F21
s(S'NP'
S'NNMMP'
tp354
F2
s(S'MP'
S'MCCDP'
tp355
F1
s(S'CP'
S'CCDP'
tp356
F75
s(g172
S'AMVP'
tp357
F5
s(S'PP'
S'PPNNNP'
tp358
F2
s(g4
S'MVAADDP'
tp359
F1
s(S'NP'
S'NVVVP'
tp360
F10
s(S'CP'
S'CDDDPP'
tp361
F8
s(S'PP'
S'PADVADVADVANP'
tp362
F1
s(S'CP'
p363
S'CDAAPP'
tp364
F6
s(g182
S'AVVAP'
tp365
F1
s(g25
S'PNNNP'
tp366
F11
s(S'CP'
S'CCCCDP'
tp367
F2
s(g77
S'ANMMP'
tp368
F1
s(S'AP'
S'AAMMMP'
tp369
F1
s(S'VP'
p370
S'VVMP'
tp371
F4
s(S'CP'
p372
S'CADADVPP'
tp373
F1
s(g32
S'PADVVVP'
tp374
F1
s(g55
S'PPP'
tp375
F103
s(g115
S'NAVP'
tp376
F22
s(S'PP'
S'PADVAP'
tp377
F1
s(S'DP'
S'DDNNNP'
tp378
F1
s(g168
S'PADDP'
tp379
F2
s(S'NP'
S'NDDDP'
tp380
F1
s(g209
S'ADVDVP'
tp381
F8
s(S'NP'
S'NAAAP'
tp382
F1
s(S'NP'
p383
S'NADVVVP'
tp384
F2
s(S'DP'
p385
S'DADVADVPPP'
tp386
F1
s(S'AP'
S'AADVVP'
tp387
F2
s(g95
S'ADPP'
tp388
F35
s(S'DP'
p389
S'ADVADVDNP'
tp390
F1
s(g62
S'VPP'
tp391
F81
s(S'CP'
S'ADVCCDP'
tp392
F1
s(g199
S'ADVADVMVP'
tp393
F1
s(g144
S'ADVDDNP'
tp394
F1
s(S'NP'
p395
S'NNNCP'
tp396
F8
s(g32
S'PADVDP'
tp397
F10
s(g190
S'CDADVAPP'
tp398
F4
s(S'CP'
S'CDDDPPP'
tp399
F1
s(S'MP'
S'MVAACP'
tp400
F1
s(S'DP'
S'DANNP'
tp401
F1
s(S'MP'
S'MADVVAP'
tp402
F1
s(g289
S'PADVAAP'
tp403
F2
s(g34
S'CDDPP'
tp404
F61
s(g48
S'DAAPP'
tp405
F8
s(g55
S'PVVP'
tp406
F25
s(S'CP'
S'CADPPP'
tp407
F1
s(g209
S'DADVPPP'
tp408
F5
s(S'CP'
S'ACDDDP'
tp409
F1
s(S'MP'
p410
S'MAVCP'
tp411
F1
s(S'VP'
S'ADVVCP'
tp412
F4
s(S'PP'
p413
S'ADVPPAP'
tp414
F1
s(g62
S'VPPP'
tp415
F13
s(S'MP'
S'MVVVVAP'
tp416
F1
s(g20
S'VVPPP'
tp417
F4
s(S'NP'
S'ADVNAMP'
tp418
F1
s(S'PP'
p419
S'PPAP'
tp420
F16
s(g95
S'DVVP'
tp421
F34
s(S'PP'
p422
S'PADVAVP'
tp423
F1
s(S'MP'
S'MAAVDDP'
tp424
F1
s(S'NP'
S'ADVANNNNNP'
tp425
F1
s(S'NP'
p426
S'ANMP'
tp427
F4
s(S'AP'
S'APPP'
tp428
F6
s(g184
S'ADVPPP'
tp429
F4
s(S'NP'
S'ADVADVNVP'
tp430
F2
s(g274
S'VVVP'
tp431
F8
s(g363
S'CADVDPP'
tp432
F18
s(g422
S'PPDDDP'
tp433
F1
s(g129
S'AVMP'
tp434
F2
s(g168
S'ADVAPPPP'
tp435
F1
s(g72
S'ANCP'
tp436
F45
s(g389
S'DCP'
tp437
F16
s(S'NP'
p438
S'ANNCP'
tp439
F3
s(S'NP'
S'AAANCP'
tp440
F1
s(S'DP'
S'DAAVVP'
tp441
F1
s(S'NP'
S'NNVVVVP'
tp442
F1
s(g182
S'AAVVCP'
tp443
F1
s(g95
S'DDDP'
tp444
F18
s(S'MP'
S'ADVMCP'
tp445
F1
s(g237
S'DDADVPP'
tp446
F8
s(g385
S'AADDPP'
tp447
F1
s(S'NP'
p448
S'ANVVP'
tp449
F3
s(S'VP'
p450
S'VVDP'
tp451
F33
s(S'NP'
p452
S'NPPP'
tp453
F20
s(S'VP'
p454
S'ADVVNNNP'
tp455
F2
s(S'DP'
S'DAVP'
tp456
F15
s(S'NP'
S'NNNMP'
tp457
F1
s(S'AP'
p458
S'ACP'
tp459
F49
s(S'NP'
S'NNADVAP'
tp460
F1
s(g413
S'PPNP'
tp461
F54
s(S'PP'
S'AAAAPDP'
tp462
F1
s(S'DP'
S'ADVDAPP'
tp463
F2
s(S'PP'
S'APADVADVVP'
tp464
F1
s(S'DP'
S'AADVP'
tp465
F2
s(S'NP'
p466
S'NNNNCCP'
tp467
F1
s(S'VP'
S'VVVVNNP'
tp468
F1
s(S'VP'
S'VAANNP'
tp469
F1
s(g215
S'CDDADVPP'
tp470
F4
s(S'CP'
p471
S'CCCDDP'
tp472
F1
s(g458
S'ADP'
tp473
F170
s(g32
S'APMP'
tp474
F1
s(S'DP'
S'DDAVP'
tp475
F1
s(S'VP'
S'VVADVPP'
tp476
F1
s(S'DP'
p477
S'AAAADPP'
tp478
F1
s(S'DP'
S'DVVVVP'
tp479
F2
s(g55
S'APPAP'
tp480
F1
s(S'NP'
S'NADVADVAP'
tp481
F1
s(S'VP'
p482
S'AAAVDP'
tp483
F1
s(S'MP'
S'MMNNP'
tp484
F1
s(S'AP'
S'AAADP'
tp485
F7
s(S'NP'
S'ANNVP'
tp486
F1
s(S'PP'
S'PCCCP'
tp487
F1
s(g62
S'VVAP'
tp488
F14
s(S'DP'
S'DDDCP'
tp489
F1
s(S'PP'
p490
S'PADVADVDP'
tp491
F1
s(S'PP'
S'APPVVP'
tp492
F2
s(g490
S'PPADVVP'
tp493
F1
s(g182
S'AAVCP'
tp494
F2
s(g72
S'NPP'
tp495
F154
s(g72
S'NVP'
tp496
F192
s(S'PP'
S'PAAVP'
tp497
F1
s(g285
S'NAAPP'
tp498
F1
s(g370
S'VDDP'
tp499
F37
s(S'AP'
S'ADVADVADVADP'
tp500
F1
s(S'NP'
S'ADVADVNACP'
tp501
F1
s(S'VP'
S'VVADVADVNP'
tp502
F1
s(S'PP'
S'APPPNP'
tp503
F1
s(S'NP'
p504
S'AANNVP'
tp505
F1
s(g220
S'DADVAPP'
tp506
F4
s(S'PP'
S'PAAAVP'
tp507
F1
s(g106
S'NADVADVVVP'
tp508
F2
s(g383
S'ANPP'
tp509
F13
s(g32
S'ADVPPDP'
tp510
F2
s(g55
S'PPPPP'
tp511
F9
s(S'MP'
S'MPDP'
tp512
F3
s(S'PP'
S'ADVADVPDP'
tp513
F1
s(S'MP'
S'MDVVP'
tp514
F1
s(S'MP'
p515
S'MVVPP'
tp516
F1
s(S'PP'
S'PPPNP'
tp517
F5
s(S'AP'
S'AAADVCCP'
tp518
F1
s(S'NP'
S'NPPPP'
tp519
F1
s(g237
S'ADDP'
tp520
F4
s(S'NP'
p521
S'NADVAAP'
tp522
F1
s(S'PP'
S'PPPPPPP'
tp523
F1
s(S'VP'
S'VVADVADVADVAP'
tp524
F1
s(S'CP'
S'CAADPP'
tp525
F6
s(S'DP'
S'DADVADVVP'
tp526
F5
s(g438
S'NAACP'
tp527
F4
s(g55
S'PNNP'
tp528
F61
s(g8
S'APNNP'
tp529
F4
s(S'MP'
S'MMNP'
tp530
F3
s(g176
S'ADVADVPADVPPP'
tp531
F1
s(S'DP'
S'AAADPP'
tp532
F4
s(S'VP'
S'AVAP'
tp533
F5
s(g410
S'MMVP'
tp534
F10
s(g285
S'ADVNCP'
tp535
F6
s(S'VP'
S'ADVVVPPP'
tp536
F1
s(g262
S'VAPPP'
tp537
F1
s(g34
S'ACDP'
tp538
F29
s(g62
S'VCCP'
tp539
F17
s(S'AP'
S'ADVANP'
tp540
F1
s(S'CP'
S'CCCCDDP'
tp541
F1
s(g302
S'NNACP'
tp542
F3
s(S'CP'
p543
S'CDADVPPP'
tp544
F4
s(g62
S'VAP'
tp545
F88
s(S'PP'
S'PADVAAAAP'
tp546
F1
s(S'MP'
S'MNVVP'
tp547
F1
s(S'DP'
S'DDDPP'
tp548
F14
s(S'CP'
S'ADVCDDP'
tp549
F3
s(S'NP'
S'ANADVCP'
tp550
F1
s(g182
S'VADVMP'
tp551
F1
s(g287
S'PAAPP'
tp552
F2
s(S'PP'
S'ADVPCP'
tp553
F1
s(S'MP'
S'MVVVDP'
tp554
F1
s(g199
S'MNMP'
tp555
F1
s(S'MP'
S'MAVPP'
tp556
F1
s(S'VP'
S'ADVADVVVAP'
tp557
F1
s(S'DP'
S'DDDPPP'
tp558
F1
s(g385
S'ADAP'
tp559
F1
s(S'DP'
S'DADVDP'
tp560
F1
s(S'CP'
S'CCADVADP'
tp561
F2
s(S'DP'
S'DDDAP'
tp562
F1
s(g342
S'ADADVVP'
tp563
F1
s(g370
S'ADVVVDP'
tp564
F1
s(S'PP'
p565
S'PPPVP'
tp566
F2
s(S'VP'
p567
S'AAVAP'
tp568
F2
s(S'AP'
S'AADDP'
tp569
F9
s(S'AP'
S'ACCCCP'
tp570
F1
s(S'VP'
S'VAANP'
tp571
F4
s(g395
S'NADVADVCP'
tp572
F2
s(S'VP'
p573
S'VADVADVADVADVVP'
tp574
F1
s(S'PP'
S'ADVPNNP'
tp575
F1
s(S'DP'
p576
S'DDDDDAAVP'
tp577
F1
s(S'PP'
S'PAAAAP'
tp578
F1
s(S'MP'
p579
S'MPNP'
tp580
F8
s(S'MP'
S'MADP'
tp581
F6
s(g148
S'AMMP'
tp582
F1
s(g372
S'CCAADP'
tp583
F2
s(g419
S'PANP'
tp584
F26
s(S'DP'
S'AADNP'
tp585
F2
s(S'MP'
S'MVVPPP'
tp586
F1
s(g317
S'ADVAMVP'
tp587
F1
s(S'NP'
S'AANMP'
tp588
F1
s(g148
S'AAVP'
tp589
F2
s(g426
S'NAAP'
tp590
F11
s(g285
S'NDDP'
tp591
F18
s(S'DP'
S'ADVADVDPPP'
tp592
F1
s(S'AP'
p593
S'ACCP'
tp594
F7
s(g267
S'ADAAP'
tp595
F1
s(S'VP'
S'VVVVAP'
tp596
F1
s(g482
S'AVPPP'
tp597
F1
s(g72
S'NDP'
tp598
F100
s(S'VP'
S'ADVVANP'
tp599
F1
s(S'NP'
S'NNNNVVP'
tp600
F2
s(g515
S'MVAAP'
tp601
F3
s(g95
S'DDVP'
tp602
F47
s(S'DP'
S'ADADVPPP'
tp603
F1
s(S'NP'
S'AANVP'
tp604
F7
s(S'VP'
S'ADVVVNNP'
tp605
F1
s(S'DP'
S'ADDVP'
tp606
F2
s(S'VP'
S'VNNNP'
tp607
F3
s(S'PP'
S'ADVPAP'
tp608
F2
s(g153
S'PCP'
tp609
F12
s(S'NP'
S'NNPPP'
tp610
F4
s(S'PP'
p611
S'PAADP'
tp612
F2
s(S'MP'
S'MADVADVVCP'
tp613
F2
s(g57
S'MPAP'
tp614
F1
s(S'NP'
S'NNNDP'
tp615
F4
s(S'AP'
S'ADVACP'
tp616
F2
s(S'AP'
S'ANNNP'
tp617
F1
s(S'NP'
S'ADVADVNMP'
tp618
F1
s(g164
S'VVVAP'
tp619
F4
s(S'NP'
S'NNVP'
tp620
F52
s(g579
S'MVCP'
tp621
F15
s(S'CP'
S'CCDDP'
tp622
F11
s(S'NP'
S'NNADVVP'
tp623
F2
s(g330
S'MVMP'
tp624
F1
s(S'VP'
S'VAMP'
tp625
F2
s(g395
S'NNVVP'
tp626
F8
s(g504
S'NNNNVP'
tp627
F1
s(S'VP'
p628
S'VVCP'
tp629
F11
s(S'MP'
S'MVAANP'
tp630
F1
s(S'PP'
p631
S'PADVADVPP'
tp632
F1
s(S'NP'
p633
S'AANCP'
tp634
F4
s(g62
S'VDP'
tp635
F194
s(g140
S'ADVAVAP'
tp636
F1
s(S'PP'
S'APPP'
tp637
F9
s(g178
S'DDDDPPP'
tp638
F1
s(S'MP'
S'MNNPP'
tp639
F1
s(g192
S'ADVVPP'
tp640
F3
s(g34
S'CDAPPP'
tp641
F2
s(g62
S'VNNP'
tp642
F31
s(S'AP'
S'AADVDP'
tp643
F3
s(S'AP'
S'AAAMP'
tp644
F1
s(S'NP'
S'NADP'
tp645
F2
s(g209
S'DDNP'
tp646
F39
s(S'CP'
p647
S'ACADVDP'
tp648
F1
s(g285
S'NADVCP'
tp649
F7
s(g230
S'DDNNP'
tp650
F8
s(S'VP'
S'ADVAVMMP'
tp651
F1
s(g270
S'AAPPP'
tp652
F1
s(g60
S'MADVVNNNP'
tp653
F1
s(S'NP'
p654
S'ADVNAAP'
tp655
F1
s(S'NP'
S'ADVADVNCP'
tp656
F3
s(S'NP'
S'NNADVAAP'
tp657
F1
s(g95
S'AADPP'
tp658
F10
s(S'VP'
S'VVVAAP'
tp659
F1
s(S'NP'
S'NNNNPP'
tp660
F2
s(S'DP'
S'DADVADVANP'
tp661
F1
s(S'VP'
p662
S'VVVVCP'
tp663
F1
s(S'MP'
S'MAVAP'
tp664
F1
s(S'AP'
S'AAMMP'
tp665
F2
s(g172
S'MVVNP'
tp666
F3
s(g611
S'ADVAPVP'
tp667
F1
s(g383
S'NACCP'
tp668
F4
s(S'NP'
S'AANDP'
tp669
F2
s(g593
S'AAPP'
tp670
F8
s(g195
S'VVCCP'
tp671
F4
s(g34
S'ADVCAADP'
tp672
F1
s(g230
S'DAAAPP'
tp673
F2
s(S'PP'
S'ADVPANP'
tp674
F1
s(g234
S'NAPP'
tp675
F9
s(S'PP'
S'APPVP'
tp676
F1
s(S'AP'
S'ADVADVADP'
tp677
F1
s(S'DP'
p678
S'DDADVADVADVADVPP'
tp679
F1
s(g521
S'NADVDP'
tp680
F3
s(S'VP'
S'VVVCP'
tp681
F1
s(S'VP'
S'ADVADVVCCP'
tp682
F1
s(g115
S'ANCCP'
tp683
F10
s(g633
S'AANPP'
tp684
F4
s(g12
S'DDAAAPP'
tp685
F1
s(g174
S'NNMP'
tp686
F13
s(g230
S'DDDVP'
tp687
F6
s(S'VP'
S'AAVPP'
tp688
F2
s(g23
S'ADVADVPNNP'
tp689
F2
s(S'CP'
S'CADDPP'
tp690
F2
s(S'MP'
S'MPANP'
tp691
F1
s(S'PP'
S'PAAAP'
tp692
F2
s(S'PP'
S'ADVADVPNP'
tp693
F3
s(S'MP'
S'MDANP'
tp694
F2
s(g190
S'CDDAPP'
tp695
F3
s(g452
S'ANAP'
tp696
F3
s(S'MP'
p697
S'MVAP'
tp698
F2
s(g55
S'PVP'
tp699
F170
s(g413
S'APPNNP'
tp700
F2
s(S'VP'
S'VVVNNP'
tp701
F3
s(S'AP'
S'ADVAACP'
tp702
F6
s(S'DP'
S'DVVVP'
tp703
F2
s(g345
S'AADDNNP'
tp704
F1
s(S'NP'
S'ADVADVADVNVP'
tp705
F1
s(S'NP'
S'ADVADVANVP'
tp706
F1
s(S'PP'
S'PPDDP'
tp707
F6
s(g62
S'AVCP'
tp708
F5
s(S'DP'
S'DDVVVP'
tp709
F3
s(S'NP'
S'NAVVP'
tp710
F2
s(g95
S'DPP'
tp711
F298
s(g678
S'ADVVP'
tp712
F4
s(S'NP'
S'ADVNVP'
tp713
F5
s(g95
S'DDPP'
tp714
F94
s(g29
S'DANP'
tp715
F34
s(S'AP'
S'ADVAMP'
tp716
F1
s(g654
S'NADVPP'
tp717
F1
s(S'MP'
S'MADVADVPNNP'
tp718
F1
s(S'NP'
S'NNAAVVP'
tp719
F1
s(S'MP'
S'MMAP'
tp720
F1
s(g654
S'NAAVP'
tp721
F2
s(S'DP'
S'ADVADVADPP'
tp722
F1
s(S'PP'
S'PDDDP'
tp723
F4
s(S'VP'
S'VADVCP'
tp724
F6
s(g102
S'NNNNCP'
tp725
F5
s(S'MP'
S'MDNP'
tp726
F13
s(g287
S'ADVADVADVADVPPP'
tp727
F1
s(S'PP'
S'PPADVADVVP'
tp728
F1
s(S'DP'
p729
S'DCCP'
tp730
F1
s(S'VP'
S'AAVADDDP'
tp731
F1
s(g36
S'NNAANP'
tp732
F1
s(S'PP'
S'AAPDP'
tp733
F2
s(S'MP'
S'MADVVDP'
tp734
F3
s(g48
S'DDADVVP'
tp735
F1
s(g55
S'PDDP'
tp736
F31
s(S'AP'
S'ADVACCCP'
tp737
F1
s(g136
S'ADVPADVAVP'
tp738
F1
s(S'NP'
S'NNNADVVP'
tp739
F1
s(S'DP'
S'ADPPP'
tp740
F3
s(S'PP'
S'PPPMP'
tp741
F1
s(S'PP'
S'AAAPDDP'
tp742
F1
s(g567
S'AVDP'
tp743
F21
s(S'NP'
S'NNP'
tp744
F3
s(S'DP'
S'ADVADPP'
tp745
F5
s(g454
S'VAADDP'
tp746
F2
s(S'DP'
p747
S'DAANP'
tp748
F11
s(S'AP'
S'ADDP'
tp749
F35
s(g413
S'PNNNNP'
tp750
F2
s(S'PP'
S'ADVPPNP'
tp751
F2
s(g256
S'ADVNCCCP'
tp752
F1
s(S'PP'
S'ADVPPVVP'
tp753
F1
s(S'MP'
S'MDAP'
tp754
F1
s(S'CP'
S'CADVADVDPP'
tp755
F4
s(g95
S'DPPP'
tp756
F88
s(g345
S'AADPPP'
tp757
F1
s(S'VP'
S'VANNP'
tp758
F1
s(S'NP'
p759
S'NNAVP'
tp760
F4
s(S'NP'
S'NNAAPP'
tp761
F1
s(S'AP'
S'AVVP'
tp762
F2
s(S'AP'
S'ADDDDDP'
tp763
F1
s(S'PP'
S'ADVPNP'
tp764
F18
s(g55
S'PPDP'
tp765
F39
s(S'NP'
S'AADVNNANP'
tp766
F1
s(S'AP'
S'ADVAAAADP'
tp767
F1
s(g276
S'ADVADVADVPVP'
tp768
F2
s(g729
S'DDPPPP'
tp769
F2
s(S'PP'
S'PPPAAP'
tp770
F1
s(g631
S'ADVADVPVVP'
tp771
F1
s(g129
S'VAADP'
tp772
F2
s(S'DP'
S'DDCP'
tp773
F1
s(S'CP'
S'CCAADDP'
tp774
F1
s(S'PP'
S'PPADVDDP'
tp775
F1
s(S'NP'
S'ADVADVADVANCCP'
tp776
F1
s(S'AP'
S'ADVADVAADP'
tp777
F1
s(g52
S'MMAVP'
tp778
F3
s(g174
S'NAP'
tp779
F74
s(g759
S'NNAAP'
tp780
F3
s(S'VP'
S'VAAAP'
tp781
F2
s(g62
S'VVP'
tp782
F36
s(g220
S'DDAPP'
tp783
F6
s(g32
S'ADVADVPVP'
tp784
F1
s(g270
S'PADVADVANP'
tp785
F1
s(S'VP'
S'AVDDDP'
tp786
F1
s(g100
S'NNNACCP'
tp787
F1
s(S'DP'
S'DDVVP'
tp788
F4
s(S'AP'
S'AAADDP'
tp789
F2
s(g628
S'VVVNP'
tp790
F5
s(g576
S'ADDDPP'
tp791
F1
s(g174
S'NAMP'
tp792
F3
s(g52
S'MVANP'
tp793
F5
s(S'MP'
S'MVNNP'
tp794
F2
s(S'NP'
S'NADVAMP'
tp795
F1
s(g34
S'CDPP'
tp796
F266
s(S'DP'
S'AADAPPPP'
tp797
F1
s(g4
S'MMMNP'
tp798
F1
s(g148
S'ADDDP'
tp799
F2
s(S'CP'
S'ADVCADP'
tp800
F3
s(g15
S'VVAANP'
tp801
F2
s(S'MP'
S'MAAVDP'
tp802
F1
s(g573
S'ADVADVADVADVVDDP'
tp803
F1
s(S'VP'
S'VDDDP'
tp804
F2
s(g543
S'ADVCDP'
tp805
F14
s(g729
S'DDAAAAPP'
tp806
F1
s(S'VP'
S'ADVADVVNP'
tp807
F2
s(g477
S'DAAAADP'
tp808
F1
s(S'VP'
S'ADVADVVCP'
tp809
F5
s(S'VP'
S'VADVADVDP'
tp810
F1
s(S'PP'
S'PPNNP'
tp811
F9
s(g176
S'ADVPAVP'
tp812
F1
s(S'PP'
S'PPMP'
tp813
F3
s(S'DP'
S'ADVADVDPP'
tp814
F4
s(S'VP'
S'VADVNP'
tp815
F9
s(S'NP'
S'NADVAP'
tp816
F2
s(S'PP'
S'ADVAPNP'
tp817
F1
s(g662
S'AVDDP'
tp818
F3
s(g209
S'DADVNP'
tp819
F5
s(g118
S'DDCCP'
tp820
F1
s(g212
S'DAP'
tp821
F20
s(S'PP'
S'ADVAPPP'
tp822
F1
s(g34
S'CADPP'
tp823
F18
s(S'DP'
S'ADVADVDVVP'
tp824
F1
s(S'VP'
S'ADVADVVVPP'
tp825
F1
s(S'NP'
S'NNAAAPP'
tp826
F1
s(g450
S'AVPP'
tp827
F9
s(g654
S'NADVADVMP'
tp828
F1
s(g471
S'CAADPPP'
tp829
F1
s(S'DP'
S'ADADVPP'
tp830
F1
s(S'MP'
S'AMNP'
tp831
F1
s(g62
S'VVADVDP'
tp832
F1
s(S'CP'
S'CDPPPP'
tp833
F9
s(S'VP'
S'AAVDP'
tp834
F1
s(g565
S'PANNP'
tp835
F2
s(S'DP'
S'ADPPPP'
tp836
F2
s(g95
S'DAPPP'
tp837
F2
s(g209
S'DADVADVPP'
tp838
F5
s(g230
S'DMP'
tp839
F10
s(g95
S'ADVDPP'
tp840
F27
s(S'DP'
S'AAAADVP'
tp841
F1
s(S'PP'
S'PADVADVNP'
tp842
F2
s(g697
S'MNNCCP'
tp843
F1
s(g458
S'AADP'
tp844
F35
s(g217
S'VADVPP'
tp845
F4
s(g230
S'ADVDANP'
tp846
F1
s(S'CP'
S'CCADVDDP'
tp847
F1
s(S'PP'
S'ADVPVP'
tp848
F3
s(g320
S'DDDDPP'
tp849
F6
s(g448
S'NNVVVP'
tp850
F3
s(S'PP'
S'PADVADVADVNP'
tp851
F1
s(S'PP'
S'ADVPDP'
tp852
F7
s(g654
S'ANADVDP'
tp853
F1
s(S'NP'
S'ANNPP'
tp854
F1
s(S'PP'
S'PPDDDDP'
tp855
F1
s(S'MP'
S'MVADVAP'
tp856
F1
s(g72
S'NCP'
tp857
F221
s(S'VP'
p858
S'AAVVDDP'
tp859
F1
s(S'CP'
S'CADVDPPP'
tp860
F3
s(g176
S'AAAPNP'
tp861
F1
s(g17
S'AAAP'
tp862
F3
s(S'MP'
S'MPPNP'
tp863
F2
s(S'NP'
S'NNADVADVADVPP'
tp864
F1
s(S'AP'
S'AAMP'
tp865
F4
s(g134
S'APADVANP'
tp866
F1
s(g858
S'AAVVDP'
tp867
F1
s(S'PP'
S'PPPADVDP'
tp868
F1
s(S'MP'
S'MVCCP'
tp869
F2
s(g95
S'DADVNNP'
tp870
F1
s(S'NP'
S'NNCCP'
tp871
F12
s(S'MP'
S'MNVP'
tp872
F8
s(S'NP'
S'AANAP'
tp873
F1
s(S'MP'
S'AMPPP'
tp874
F1
s(g611
S'PADVADVAP'
tp875
F1
s(g370
S'VAPP'
tp876
F1
s(S'MP'
S'MADVVANP'
tp877
F1
s(g38
S'ADVVDP'
tp878
F18
s(g345
S'DDADVADVADVPP'
tp879
F1
s(S'VP'
S'VADDP'
tp880
F1
s(g611
S'APADVNP'
tp881
F1
s(g29
S'DADVPP'
tp882
F24
s(S'AP'
S'AMP'
tp883
F13
s(S'CP'
S'CCADP'
tp884
F7
s(S'PP'
S'ADVADVADVPNP'
tp885
F2
s(g466
S'NNNPPP'
tp886
F1
s(S'PP'
S'AAPNNP'
tp887
F1
s(S'DP'
S'DDADVAPP'
tp888
F1
s(S'CP'
S'CDDADVAPP'
tp889
F1
s(S'AP'
S'ADVADVANP'
tp890
F1
s(S'CP'
S'AACDP'
tp891
F5
s(g654
S'NNNCCP'
tp892
F3
s(S'CP'
S'CDDADVADVADVADVPP'
tp893
F1
s(S'CP'
S'CCDDDP'
tp894
F2
s(g230
S'ADVDPPP'
tp895
F5
s(g95
S'DVP'
tp896
F183
s(g326
S'ADVVAP'
tp897
F3
s(g158
S'ADVNPP'
tp898
F2
s(g125
S'NNCCCP'
tp899
F1
s(S'AP'
S'AVP'
tp900
F25
s(S'NP'
S'NADVVP'
tp901
F8
s(S'CP'
S'CDAAAPP'
tp902
F1
s(g747
S'DDPPP'
tp903
F21
s(S'NP'
S'NNNMMP'
tp904
F1
s(g77
S'ADVNMP'
tp905
F4
s(g102
S'NNAP'
tp906
F18
s(S'MP'
S'MADVVCP'
tp907
F1
s(S'PP'
S'PPANP'
tp908
F5
s(S'MP'
S'MCDDP'
tp909
F1
s(g858
S'AAAVNP'
tp910
F1
s(S'CP'
S'CDADVPP'
tp911
F14
s(g62
S'VNP'
tp912
F194
s(g567
S'VANP'
tp913
F22
s(g662
S'VADVAP'
tp914
F5
s(S'PP'
S'PADVADVAVP'
tp915
F1
s(g647
S'CADVADVAAADPP'
tp916
F1
s.