ccollections
defaultdict
p1
(c__builtin__
float
p2
tRp3
(S'DP'
S'DDPP'
tp4
F5
s(S'NP'
S'NNAACCP'
tp5
F1
s(S'NP'
p6
S'NADVADVVVP'
tp7
F1
s(S'NP'
p8
S'ADVADVADVNPP'
tp9
F1
s(S'VP'
p10
S'VVNP'
tp11
F2
s(S'PP'
p12
S'PPPNP'
tp13
F1
s(S'DP'
p14
S'AADPPPP'
tp15
F1
s(S'VP'
p16
S'VAAP'
tp17
F1
s(S'PP'
p18
S'PAPP'
tp19
F1
s(g8
S'NVVP'
tp20
F4
s(S'DP'
p21
S'DNP'
tp22
F7
s(g12
S'PNNP'
tp23
F2
s(g16
S'VVNNP'
tp24
F1
s(S'CP'
p25
S'CDAPP'
tp26
F3
s(S'CP'
p27
S'CDPPP'
tp28
F3
s(g21
S'ADNP'
tp29
F1
s(S'PP'
p30
S'PADP'
tp31
F1
s(g16
S'ADVVVCP'
tp32
F1
s(S'AP'
p33
S'AADP'
tp34
F2
s(S'PP'
p35
S'PDDP'
tp36
F1
s(g16
S'VAVP'
tp37
F1
s(S'DP'
p38
S'DAPP'
tp39
F4
s(S'NP'
p40
S'ADVADVNCP'
tp41
F1
s(S'CP'
S'CDADVPPP'
tp42
F1
s(g16
S'VAP'
tp43
F5
s(g35
S'APVP'
tp44
F3
s(S'MP'
p45
S'MNVVP'
tp46
F1
s(S'MP'
S'MVDP'
tp47
F1
s(g21
S'DDDPP'
tp48
F1
s(g18
S'PPPP'
tp49
F1
s(g8
S'ADVADVNNDP'
tp50
F1
s(g45
S'MMAP'
tp51
F1
s(S'AP'
p52
S'ADDP'
tp53
F1
s(S'PP'
p54
S'ADVPPNP'
tp55
F1
s(g21
S'DPPP'
tp56
F6
s(g8
S'NDDDP'
tp57
F1
s(g8
S'NADVVVP'
tp58
F1
s(g25
S'CADVDAPP'
tp59
F1
s(g16
S'VCP'
tp60
F6
s(g18
S'PPNNP'
tp61
F1
s(g40
S'NNAVP'
tp62
F1
s(S'MP'
S'MVPP'
tp63
F2
s(g30
S'PAP'
tp64
F8
s(g21
S'DDADVADVPP'
tp65
F1
s(g6
S'NMP'
tp66
F3
s(g6
S'NNPP'
tp67
F2
s(S'CP'
p68
S'CAADPPPP'
tp69
F1
s(S'DP'
S'DADVPPP'
tp70
F1
s(S'PP'
S'PNP'
tp71
F9
s(g27
S'CCAADP'
tp72
F1
s(S'DP'
p73
S'DDP'
tp74
F1
s(g30
S'PANP'
tp75
F1
s(g30
S'PAAP'
tp76
F2
s(g8
S'NDDP'
tp77
F1
s(g25
S'CCDP'
tp78
F4
s(S'DP'
S'ADVADVADVDPP'
tp79
F1
s(S'NP'
p80
S'NAP'
tp81
F2
s(g21
S'DADVADVNNP'
tp82
F1
s(g8
S'NDP'
tp83
F3
s(g30
S'PVP'
tp84
F8
s(S'VP'
S'VVP'
tp85
F3
s(g21
S'DDVP'
tp86
F2
s(g30
S'PDP'
tp87
F7
s(g21
S'DADVNP'
tp88
F1
s(g30
S'ADVADVPVP'
tp89
F1
s(S'PP'
S'APNP'
tp90
F2
s(g73
S'DDVVP'
tp91
F1
s(g30
S'PPP'
tp92
F5
s(S'CP'
S'CDPP'
tp93
F8
s(g6
S'NCCCP'
tp94
F1
s(S'CP'
S'CCADVADVADVDP'
tp95
F1
s(S'DP'
p96
S'ADPP'
tp97
F1
s(g68
S'AACCADVDP'
tp98
F1
s(g16
S'VPP'
tp99
F8
s(g6
S'NCCP'
tp100
F4
s(g18
S'APNNP'
tp101
F1
s(S'NP'
S'NNCP'
tp102
F2
s(S'MP'
S'MVCP'
tp103
F1
s(S'AP'
p104
S'ACP'
tp105
F3
s(S'CP'
S'CDDPP'
tp106
F5
s(g104
S'AACP'
tp107
F1
s(g80
S'NADVMMP'
tp108
F1
s(S'VP'
p109
S'AVNP'
tp110
F1
s(g109
S'VPPP'
tp111
F1
s(g30
S'PPAAP'
tp112
F2
s(g16
S'AVDDP'
tp113
F1
s(g21
S'DAP'
tp114
F3
s(S'CP'
S'CADPP'
tp115
F1
s(g10
S'ADVADVVVPP'
tp116
F1
s(g16
S'VDP'
tp117
F5
s(g96
S'DVVP'
tp118
F2
s(g35
S'APPP'
tp119
F1
s(S'AP'
S'APPP'
tp120
F1
s(g10
S'VNNP'
tp121
F2
s(g27
S'CADVDPP'
tp122
F1
s(g16
S'AAVDP'
tp123
F1
s(g25
S'CCCDP'
tp124
F1
s(g21
S'DDNP'
tp125
F2
s(g73
S'DDNNP'
tp126
F1
s(g8
S'ANCP'
tp127
F2
s(g30
S'APDP'
tp128
F3
s(g21
S'DCP'
tp129
F2
s(g21
S'ADVDPP'
tp130
F2
s(g18
S'PADVADVNP'
tp131
F1
s(g21
S'DADVADVADVNP'
tp132
F1
s(g18
S'ADVADVADVPPNP'
tp133
F1
s(g21
S'DDDP'
tp134
F1
s(g68
S'CDDPPP'
tp135
F1
s(g21
S'AADPP'
tp136
F1
s(g16
S'VVDP'
tp137
F3
s(g40
S'NPPP'
tp138
F1
s(g54
S'PPAPP'
tp139
F1
s(g21
S'DAVP'
tp140
F1
s(S'NP'
S'NCP'
tp141
F9
s(g33
S'AADDP'
tp142
F1
s(S'CP'
S'CCADVDP'
tp143
F1
s(g8
S'NADVADVCCP'
tp144
F1
s(g30
S'PPNP'
tp145
F5
s(g33
S'AAAP'
tp146
F1
s(g27
S'CDDADVADVPP'
tp147
F1
s(g38
S'ADVDAPP'
tp148
F2
s(g16
S'VNP'
tp149
F7
s(S'VP'
S'VVCCP'
tp150
F1
s(g8
S'NNCCP'
tp151
F2
s(g109
S'VVVP'
tp152
F1
s(g27
S'ADVADVCCDP'
tp153
F1
s(g6
S'AANCCP'
tp154
F1
s(g33
S'ADP'
tp155
F7
s(g35
S'APAP'
tp156
F1
s(g8
S'NAPP'
tp157
F3
s(S'AP'
S'APP'
tp158
F2
s(g52
S'AAP'
tp159
F1
s(g109
S'VVAPP'
tp160
F1
s(g109
S'VVPP'
tp161
F1
s(g33
S'AMP'
tp162
F1
s(g73
S'DADVADVADVPPP'
tp163
F1
s(g35
S'PAANP'
tp164
F1
s(g16
S'AVDP'
tp165
F1
s(g18
S'PPVVP'
tp166
F1
s(S'VP'
S'VVAP'
tp167
F2
s(g21
S'DVP'
tp168
F7
s(g8
S'ADVNPP'
tp169
F1
s(g33
S'AVP'
tp170
F2
s(g14
S'DDPPP'
tp171
F1
s(g8
S'NPP'
tp172
F6
s(g8
S'NVP'
tp173
F7
s(g12
S'PPANP'
tp174
F1
s(g30
S'PAAVP'
tp175
F1
s(S'MP'
S'ADVMMVP'
tp176
F1
s(g16
S'VDDP'
tp177
F1
s(g18
S'PPDDP'
tp178
F1
s(S'PP'
S'APMMP'
tp179
F1
s(g35
S'APDDP'
tp180
F1
s(S'DP'
S'DPP'
tp181
F8
s.