ccollections
defaultdict
p1
(c__builtin__
float
p2
tRp3
(S'DP'
S'DDDDVVP'
tp4
F1
s(S'DP'
p5
S'DDPP'
tp6
F14
s(S'PP'
p7
S'PPCP'
tp8
F1
s(S'DP'
p9
S'DANP'
tp10
F8
s(S'NP'
p11
S'ANPP'
tp12
F5
s(S'PP'
p13
S'PPPPP'
tp14
F1
s(S'PP'
p15
S'ADVADVPDP'
tp16
F1
s(S'VP'
p17
S'VVNP'
tp18
F2
s(S'PP'
p19
S'PPPNNP'
tp20
F1
s(S'DP'
S'ADVDPP'
tp21
F1
s(S'PP'
S'PPVP'
tp22
F8
s(S'DP'
p23
S'DDAP'
tp24
F1
s(S'VP'
p25
S'ADVVVNP'
tp26
F1
s(S'VP'
S'ADVADVVADVAP'
tp27
F1
s(S'NP'
S'ADVADVNPP'
tp28
F1
s(S'NP'
p29
S'NPPPP'
tp30
F1
s(S'PP'
S'PADVANP'
tp31
F1
s(S'PP'
S'PDDDP'
tp32
F1
s(S'VP'
p33
S'VAAP'
tp34
F1
s(S'PP'
p35
S'PAPP'
tp36
F2
s(S'PP'
p37
S'PPPADVADVPPP'
tp38
F1
s(S'PP'
p39
S'PADVNP'
tp40
F1
s(S'NP'
S'NVVP'
tp41
F5
s(S'DP'
p42
S'DNP'
tp43
F58
s(S'PP'
p44
S'PNNP'
tp45
F11
s(S'AP'
S'ADVACP'
tp46
F1
s(S'NP'
p47
S'ADVNDP'
tp48
F2
s(S'CP'
p49
S'CDAPP'
tp50
F11
s(g25
S'VADVNP'
tp51
F1
s(g44
S'ADVPMP'
tp52
F1
s(S'NP'
p53
S'AANVVVP'
tp54
F1
s(S'CP'
S'CDPPP'
tp55
F10
s(S'DP'
p56
S'ADVDDVP'
tp57
F1
s(S'DP'
p58
S'ADPPP'
tp59
F1
s(S'DP'
p60
S'ADNP'
tp61
F4
s(S'DP'
S'DCCP'
tp62
F1
s(S'VP'
p63
S'VAVP'
tp64
F1
s(S'VP'
p65
S'AVAP'
tp66
F1
s(S'VP'
p67
S'VADP'
tp68
F2
s(g13
S'PADVDDP'
tp69
F1
s(S'NP'
p70
S'NNADVVP'
tp71
F1
s(S'PP'
p72
S'PADP'
tp73
F5
s(S'NP'
S'ADVNCP'
tp74
F1
s(g19
S'AAPDP'
tp75
F1
s(S'AP'
p76
S'AADP'
tp77
F3
s(S'DP'
p78
S'DADVADVADVVP'
tp79
F1
s(S'PP'
p80
S'PDDP'
tp81
F8
s(g25
S'ADVVAAAP'
tp82
F1
s(S'CP'
p83
S'ACDP'
tp84
F5
s(S'NP'
p85
S'NNDP'
tp86
F3
s(S'VP'
p87
S'ADVADVVAAP'
tp88
F1
s(S'NP'
S'NNVP'
tp89
F6
s(S'NP'
p90
S'ADVANPP'
tp91
F1
s(g42
S'DAPP'
tp92
F11
s(g49
S'CDADVPPP'
tp93
F4
s(S'VP'
S'VAP'
tp94
F24
s(g13
S'APVP'
tp95
F3
s(S'VP'
S'ADVVVCP'
tp96
F1
s(S'MP'
S'MVDP'
tp97
F5
s(g23
S'DDDPP'
tp98
F2
s(S'PP'
p99
S'PPPP'
tp100
F10
s(S'VP'
S'ADVADVADVVDP'
tp101
F1
s(g56
S'DAANP'
tp102
F2
s(S'VP'
p103
S'VACP'
tp104
F1
s(g76
S'ADDP'
tp105
F8
s(S'CP'
S'CDDDDPP'
tp106
F1
s(S'VP'
S'ADVADVVVAP'
tp107
F1
s(S'AP'
S'AAVVP'
tp108
F1
s(S'DP'
p109
S'DADVVP'
tp110
F1
s(g80
S'ADVPPNP'
tp111
F3
s(S'CP'
S'CCADVADP'
tp112
F1
s(S'AP'
S'AAACP'
tp113
F1
s(S'MP'
S'MADVAADP'
tp114
F1
s(S'NP'
p115
S'NADVACP'
tp116
F1
s(g83
S'ADVADVADVCDP'
tp117
F1
s(S'DP'
p118
S'DPPP'
tp119
F17
s(S'DP'
p120
S'ADVDNP'
tp121
F1
s(S'NP'
S'NCCCP'
tp122
F1
s(g13
S'PPPVP'
tp123
F1
s(S'CP'
p124
S'CADVDAPP'
tp125
F1
s(S'NP'
S'ANAP'
tp126
F1
s(S'VP'
p127
S'VVPP'
tp128
F10
s(g23
S'AADPPP'
tp129
F1
s(S'PP'
S'PPVVP'
tp130
F1
s(g33
S'VVVPP'
tp131
F1
s(S'VP'
S'ADVVAAP'
tp132
F1
s(S'VP'
S'VADVADVADVCP'
tp133
F1
s(S'DP'
p134
S'ADVP'
tp135
F1
s(g9
S'DDDNNP'
tp136
F1
s(S'PP'
p137
S'PAP'
tp138
F27
s(S'DP'
S'DDDDPP'
tp139
F1
s(g58
S'DDADVADVPP'
tp140
F1
s(S'NP'
p141
S'ANNCCP'
tp142
F1
s(g19
S'PADVCP'
tp143
F1
s(g99
S'PPDP'
tp144
F7
s(S'NP'
S'NMP'
tp145
F5
s(S'NP'
p146
S'NNPP'
tp147
F5
s(S'PP'
p148
S'APVVP'
tp149
F1
s(S'PP'
S'PAAAAP'
tp150
F1
s(S'MP'
S'MVVDP'
tp151
F2
s(S'CP'
S'CDDAPP'
tp152
F1
s(S'PP'
p153
S'PNP'
tp154
F51
s(S'MP'
S'ADVMVP'
tp155
F1
s(S'MP'
S'MADP'
tp156
F1
s(g85
S'ANDP'
tp157
F2
s(S'VP'
S'VAADP'
tp158
F1
s(S'DP'
p159
S'DNNNP'
tp160
F3
s(S'PP'
S'PADVADVVP'
tp161
F1
s(g60
S'DDP'
tp162
F14
s(S'DP'
S'DDADVNP'
tp163
F1
s(g19
S'PANP'
tp164
F10
s(S'DP'
S'AADNP'
tp165
F1
s(g115
S'NNNPP'
tp166
F1
s(g44
S'PAAP'
tp167
F3
s(S'DP'
p168
S'ADVADPP'
tp169
F1
s(g19
S'PVVVP'
tp170
F3
s(S'AP'
S'AAVP'
tp171
F1
s(g37
S'ADVPPVP'
tp172
F1
s(S'AP'
p173
S'ACP'
tp174
F14
s(S'CP'
p175
S'CCDP'
tp176
F16
s(S'NP'
p177
S'NAP'
tp178
F13
s(g17
S'VADVANP'
tp179
F1
s(S'PP'
S'PPNNNP'
tp180
F1
s(g173
S'ACCP'
tp181
F2
s(S'CP'
S'CDAAPP'
tp182
F1
s(g177
S'NDP'
tp183
F19
s(S'VP'
p184
S'VVVDP'
tp185
F4
s(S'CP'
p186
S'CAADPP'
tp187
F1
s(S'PP'
S'PNNNP'
tp188
F1
s(S'DP'
S'DVP'
tp189
F48
s(S'VP'
p190
S'VVP'
tp191
F13
s(g159
S'DDVP'
tp192
F7
s(g137
S'PDP'
tp193
F56
s(g90
S'NNVVP'
tp194
F3
s(S'AP'
S'AAADP'
tp195
F1
s(g153
S'APNP'
tp196
F7
s(S'DP'
S'DDDAPP'
tp197
F1
s(g134
S'DDVVP'
tp198
F1
s(S'CP'
p199
S'CADVADVDPP'
tp200
F2
s(g137
S'PPP'
tp201
F24
s(S'PP'
S'AAPVP'
tp202
F1
s(S'PP'
p203
S'PADVAPP'
tp204
F1
s(g23
S'DAVP'
tp205
F3
s(g58
S'DVVVP'
tp206
F1
s(g72
S'PCP'
tp207
F3
s(S'NP'
S'NNPPP'
tp208
F1
s(S'VP'
p209
S'VVPPP'
tp210
F1
s(g99
S'PADVPP'
tp211
F1
s(g49
S'CDPP'
tp212
F57
s(g141
S'NNADVCP'
tp213
F1
s(g87
S'AAVVP'
tp214
F1
s(S'DP'
S'ADVDVP'
tp215
F2
s(S'NP'
S'NAAAP'
tp216
F1
s(S'VP'
S'VPPPP'
tp217
F1
s(S'NP'
S'NNNMP'
tp218
F1
s(S'AP'
S'ADVAADP'
tp219
F1
s(S'PP'
S'ADVPADVADVVP'
tp220
F1
s(S'DP'
S'DPPPP'
tp221
F1
s(S'AP'
p222
S'AAADVCP'
tp223
F1
s(S'VP'
S'VPP'
tp224
F24
s(S'NP'
p225
S'NACP'
tp226
F4
s(S'DP'
S'ADVDPPPP'
tp227
F1
s(S'NP'
S'NCCP'
tp228
F12
s(S'CP'
S'ADVCDP'
tp229
F2
s(S'VP'
S'VVNNP'
tp230
F1
s(S'CP'
S'CDADVPP'
tp231
F2
s(S'AP'
S'AAAADP'
tp232
F1
s(S'NP'
S'NNNCP'
tp233
F1
s(S'PP'
S'PADVDP'
tp234
F2
s(S'NP'
p235
S'NNCP'
tp236
F10
s(g199
S'ADVACDP'
tp237
F1
s(g190
S'VCP'
tp238
F14
s(g124
S'CCDDP'
tp239
F2
s(g175
S'CDDPP'
tp240
F10
s(S'DP'
p241
S'DDAPP'
tp242
F1
s(S'DP'
S'DAAPP'
tp243
F1
s(g137
S'PVVP'
tp244
F12
s(S'CP'
p245
S'CADPPP'
tp246
F1
s(g42
S'DADVPPP'
tp247
F4
s(S'VP'
S'AVNP'
tp248
F1
s(g137
S'PMMP'
tp249
F2
s(S'DP'
S'ADVADVDPP'
tp250
F2
s(g184
S'VPPP'
tp251
F7
s(S'NP'
p252
S'NNMP'
tp253
F3
s(S'DP'
p254
S'DADVNP'
tp255
F4
s(g209
S'VVDDDP'
tp256
F1
s(g190
S'VVCP'
tp257
F5
s(g5
S'DAP'
tp258
F8
s(S'CP'
S'CADPP'
tp259
F8
s(g13
S'ADVPVVP'
tp260
F1
s(g15
S'PADVMP'
tp261
F1
s(g127
S'VDP'
tp262
F54
s(g254
S'DVVP'
tp263
F6
s(S'PP'
p264
S'PADVPPP'
tp265
F1
s(g203
S'ADVAPDP'
tp266
F1
s(S'VP'
S'VVVNP'
tp267
F2
s(g184
S'AVPP'
tp268
F5
s(g63
S'AVCP'
tp269
F1
s(S'CP'
p270
S'CAADPPP'
tp271
F1
s(S'VP'
p272
S'AAVCP'
tp273
F1
s(g148
S'PPAP'
tp274
F2
s(g13
S'ADVPPP'
tp275
F1
s(S'VP'
S'VNNP'
tp276
F3
s(g33
S'VAAPP'
tp277
F1
s(g53
S'ADVANDP'
tp278
F1
s(g186
S'CCCDP'
tp279
F1
s(S'VP'
S'ADVVAP'
tp280
F1
s(g109
S'DDNP'
tp281
F8
s(S'PP'
S'APPP'
tp282
F2
s(S'NP'
S'NNADVAP'
tp283
F1
s(g11
S'ANCP'
tp284
F10
s(g35
S'APDP'
tp285
F6
s(S'VP'
S'VAANP'
tp286
F1
s(g241
S'DCP'
tp287
F1
s(g15
S'PPPNP'
tp288
F2
s(g39
S'PADVADVVVP'
tp289
F1
s(g264
S'ADVPPAVP'
tp290
F1
s(S'MP'
S'MMVP'
tp291
F2
s(S'PP'
S'PADVADVNP'
tp292
F1
s(g5
S'ADPP'
tp293
F11
s(S'DP'
p294
S'DDDP'
tp295
F5
s(S'DP'
S'DDANNP'
tp296
F1
s(S'CP'
S'CDDPPP'
tp297
F2
s(g209
S'VVANP'
tp298
F1
s(S'NP'
S'NADVVVP'
tp299
F1
s(S'DP'
S'AADPP'
tp300
F1
s(g11
S'ANVVP'
tp301
F1
s(g148
S'ADVPVP'
tp302
F2
s(g190
S'VVDP'
tp303
F14
s(S'NP'
p304
S'NPPP'
tp305
F3
s(g78
S'ADDDP'
tp306
F1
s(S'NP'
S'NNVVVP'
tp307
F1
s(S'VP'
S'AVCCP'
tp308
F1
s(g99
S'ADVPDP'
tp309
F2
s(g47
S'ADVNNPP'
tp310
F1
s(g118
S'DNNP'
tp311
F17
s(S'NP'
p312
S'NCP'
tp313
F51
s(g312
S'ANVVVP'
tp314
F1
s(S'AP'
S'ADDDDP'
tp315
F1
s(g153
S'PPNP'
tp316
F11
s(S'NP'
S'NNNVP'
tp317
F1
s(g245
S'CDDADVADVPP'
tp318
F1
s(g270
S'ACDDP'
tp319
F1
s(g9
S'ADVDAPP'
tp320
F1
s(g222
S'AAPP'
tp321
F2
s(S'NP'
S'AANDP'
tp322
F1
s(g254
S'DADVNNP'
tp323
F2
s(g146
S'NNCCP'
tp324
F2
s(S'CP'
p325
S'CDPPPP'
tp326
F1
s(S'AP'
S'ADVADP'
tp327
F1
s(g272
S'VADVDP'
tp328
F1
s(S'AP'
p329
S'ADP'
tp330
F36
s(S'PP'
S'APAP'
tp331
F2
s(g304
S'NAPP'
tp332
F4
s(S'CP'
S'CADVDPP'
tp333
F1
s(S'AP'
S'APP'
tp334
F12
s(g294
S'DDAVP'
tp335
F1
s(g153
S'ADVPPPP'
tp336
F2
s(S'MP'
S'MAVDP'
tp337
F1
s(S'NP'
S'AANVP'
tp338
F1
s(g329
S'AAP'
tp339
F2
s(g254
S'DADVPP'
tp340
F7
s(S'NP'
S'ANCCP'
tp341
F1
s(g65
S'VDDDP'
tp342
F1
s(g175
S'CCADP'
tp343
F3
s(g11
S'ADVNNCP'
tp344
F1
s(g120
S'DAAVP'
tp345
F2
s(S'NP'
S'NNNPPP'
tp346
F1
s(S'AP'
S'ADVAPP'
tp347
F2
s(S'CP'
S'CADVDPPPP'
tp348
F1
s(g17
S'AVDP'
tp349
F4
s(g29
S'ANVP'
tp350
F4
s(g325
S'CCDDDP'
tp351
F1
s(g47
S'ADVANVVP'
tp352
F1
s(g63
S'VVAP'
tp353
F1
s(g11
S'NNAPP'
tp354
F1
s(g103
S'VVAPP'
tp355
F1
s(S'PP'
S'PVP'
tp356
F37
s(g252
S'ADVNPP'
tp357
F1
s(S'CP'
S'CDDDAPP'
tp358
F1
s(S'AP'
S'AVP'
tp359
F10
s(S'NP'
S'NADVVP'
tp360
F2
s(S'AP'
S'AADVDDP'
tp361
F1
s(g153
S'PAVP'
tp362
F6
s(g9
S'DDPPP'
tp363
F5
s(g37
S'ADVADVPPVP'
tp364
F1
s(S'NP'
S'ADVNMP'
tp365
F1
s(g312
S'NPP'
tp366
F49
s(g235
S'NVP'
tp367
F37
s(S'PP'
S'PPANP'
tp368
F1
s(g168
S'DDNNP'
tp369
F1
s(S'VP'
S'VNP'
tp370
F37
s(g70
S'ADVNACP'
tp371
F1
s(g209
S'VANP'
tp372
F3
s(g67
S'VDDP'
tp373
F8
s(g7
S'PPDDP'
tp374
F2
s(S'VP'
S'VADVAP'
tp375
F2
s(g19
S'APDDP'
tp376
F1
s(g225
S'NADVPPP'
tp377
F1
s(g5
S'DPP'
tp378
F65
s(S'NP'
S'ADVNVP'
tp379
F1
s(g9
S'ADVDDDP'
tp380
F1
s.