ccollections
defaultdict
p1
(c__builtin__
float
p2
tRp3
(S'DP'
S'DDPP'
tp4
F2
s(S'CP'
p5
S'CCCAAAADP'
tp6
F1
s(S'VP'
p7
S'ADVVNP'
tp8
F1
s(S'NP'
p9
S'NADVPP'
tp10
F1
s(S'PP'
p11
S'PPPPP'
tp12
F1
s(S'VP'
S'VVNP'
tp13
F1
s(S'DP'
p14
S'ADVDPP'
tp15
F2
s(S'PP'
p16
S'PPVP'
tp17
F1
s(S'VP'
p18
S'VPP'
tp19
F8
s(g18
S'VAAP'
tp20
F1
s(g11
S'PAPP'
tp21
F2
s(S'PP'
p22
S'PADVNP'
tp23
F2
s(S'NP'
S'NVVP'
tp24
F1
s(S'DP'
S'DNP'
tp25
F10
s(g11
S'PNNP'
tp26
F1
s(S'NP'
S'NCCP'
tp27
F1
s(S'DP'
p28
S'DDDDDPPPP'
tp29
F1
s(S'CP'
S'CDPPP'
tp30
F2
s(S'DP'
p31
S'ADNP'
tp32
F2
s(g7
S'VADP'
tp33
F1
s(S'AP'
S'AADP'
tp34
F4
s(S'CP'
S'ACDP'
tp35
F3
s(g16
S'PAAP'
tp36
F2
s(S'NP'
p37
S'NNVP'
tp38
F1
s(S'VP'
p39
S'VAP'
tp40
F6
s(g11
S'APVP'
tp41
F1
s(S'AP'
p42
S'ADVADVACP'
tp43
F1
s(g16
S'PPPP'
tp44
F2
s(S'VP'
p45
S'VACP'
tp46
F1
s(g42
S'ADDP'
tp47
F1
s(g31
S'DADVVP'
tp48
F1
s(g31
S'DPPP'
tp49
F3
s(g9
S'NCCCP'
tp50
F1
s(S'AP'
S'AADDP'
tp51
F1
s(S'DP'
p52
S'ADVP'
tp53
F1
s(g7
S'ADVVCCP'
tp54
F1
s(g22
S'PAP'
tp55
F4
s(S'MP'
S'MADVVCCP'
tp56
F1
s(S'PP'
p57
S'ADVPNP'
tp58
F1
s(S'PP'
S'PPDP'
tp59
F5
s(g37
S'NNPP'
tp60
F1
s(g5
S'CCDDDDDP'
tp61
F1
s(g57
S'PNP'
tp62
F11
s(g14
S'DDCP'
tp63
F1
s(S'VP'
p64
S'VCCP'
tp65
F1
s(g9
S'NAAP'
tp66
F1
s(g5
S'CCDP'
tp67
F3
s(S'NP'
p68
S'NMP'
tp69
F5
s(g68
S'NDP'
tp70
F2
s(S'MP'
S'MVACP'
tp71
F1
s(g16
S'PVP'
tp72
F7
s(g7
S'VVP'
tp73
F3
s(g28
S'DDVP'
tp74
F3
s(g57
S'PDP'
tp75
F11
s(S'PP'
S'PPP'
tp76
F2
s(g5
S'CDPP'
tp77
F13
s(S'AP'
p78
S'AADVVP'
tp79
F1
s(g14
S'DPPPP'
tp80
F1
s(g11
S'PADVADP'
tp81
F1
s(S'NP'
S'NACP'
tp82
F2
s(S'AP'
p83
S'ADVACP'
tp84
F1
s(S'DP'
p85
S'ADPPP'
tp86
F1
s(g37
S'NNCP'
tp87
F1
s(S'VP'
p88
S'VCP'
tp89
F4
s(S'CP'
S'CDDPP'
tp90
F2
s(S'MP'
S'MPPNP'
tp91
F1
s(g11
S'PVVP'
tp92
F1
s(g78
S'AACP'
tp93
F1
s(g14
S'ADVADDP'
tp94
F1
s(S'DP'
S'DANP'
tp95
F1
s(g45
S'VPPP'
tp96
F1
s(g52
S'DAP'
tp97
F1
s(S'CP'
S'CADPP'
tp98
F2
s(g39
S'VDP'
tp99
F8
s(S'CP'
p100
S'CDPPPP'
tp101
F1
s(g100
S'CADVDPP'
tp102
F2
s(g28
S'AAADPPPP'
tp103
F1
s(g88
S'ADVVAP'
tp104
F1
s(S'DP'
S'DDNP'
tp105
F1
s(S'NP'
p106
S'ANCP'
tp107
F1
s(S'PP'
S'APDP'
tp108
F1
s(g57
S'PPPNP'
tp109
F1
s(g85
S'ADPP'
tp110
F3
s(g5
S'CCAAADP'
tp111
F1
s(S'VP'
p112
S'VVDP'
tp113
F1
s(g37
S'NPPP'
tp114
F1
s(g85
S'DAVP'
tp115
F1
s(g14
S'DNNP'
tp116
F1
s(g9
S'NCP'
tp117
F12
s(S'MP'
S'MVVNP'
tp118
F1
s(S'PP'
S'PPNP'
tp119
F1
s(g85
S'DADP'
tp120
F2
s(S'AP'
S'ADP'
tp121
F9
s(g37
S'NAPP'
tp122
F1
s(S'AP'
S'AAP'
tp123
F1
s(g28
S'AAAADPP'
tp124
F1
s(S'AP'
S'ADVAPP'
tp125
F1
s(S'NP'
S'NADVADVAP'
tp126
F1
s(g11
S'ADVADVPNP'
tp127
F1
s(g39
S'AVDP'
tp128
F1
s(g106
S'ANVP'
tp129
F1
s(g9
S'NNNNNNNCCP'
tp130
F1
s(S'VP'
S'VVAP'
tp131
F1
s(g28
S'DVP'
tp132
F12
s(S'MP'
S'MVNP'
tp133
F1
s(g83
S'AADVADVPP'
tp134
F1
s(S'NP'
S'NPP'
tp135
F8
s(g9
S'NVP'
tp136
F9
s(g28
S'DPP'
tp137
F13
s(g64
S'VNP'
tp138
F7
s(g18
S'VDDP'
tp139
F2
s(g112
S'VADVAP'
tp140
F2
s(g11
S'APDDP'
tp141
F1
s(S'AP'
S'ACP'
tp142
F2
s(S'NP'
S'ADVNAP'
tp143
F1
s(g68
S'ADVNVP'
tp144
F1
s.