ccollections
defaultdict
p1
(c__builtin__
float
p2
tRp3
(S'DP'
S'DADVAPP'
tp4
F3
s(S'MP'
p5
S'MMDP'
tp6
F1
s(S'VP'
S'VVAAAP'
tp7
F1
s(S'MP'
S'MAAVVCP'
tp8
F1
s(S'PP'
S'PAAANP'
tp9
F1
s(S'DP'
S'ADDPP'
tp10
F1
s(S'DP'
S'DDAP'
tp11
F2
s(S'VP'
p12
S'ADVVVNP'
tp13
F2
s(S'PP'
p14
S'PADVADVVVP'
tp15
F2
s(S'VP'
p16
S'VVVVP'
tp17
F3
s(S'DP'
S'DAANNP'
tp18
F1
s(S'VP'
S'VVADVVP'
tp19
F1
s(S'PP'
p20
S'PAPP'
tp21
F11
s(S'PP'
S'PADVNP'
tp22
F13
s(S'VP'
S'VVADVADVADVNP'
tp23
F1
s(S'DP'
p24
S'DNP'
tp25
F264
s(S'NP'
p26
S'ADVNDP'
tp27
F3
s(S'PP'
S'AAPDDP'
tp28
F2
s(S'CP'
p29
S'CDPPP'
tp30
F89
s(S'DP'
S'DDADVADVPPP'
tp31
F1
s(S'VP'
p32
S'VADP'
tp33
F23
s(S'DP'
S'DNNNNP'
tp34
F1
s(S'NP'
p35
S'ADVNCCP'
tp36
F2
s(S'PP'
S'PPPPPP'
tp37
F1
s(S'VP'
S'VAVP'
tp38
F1
s(S'DP'
S'ADNNP'
tp39
F1
s(S'MP'
S'MDVP'
tp40
F1
s(S'PP'
S'PADVADVAAP'
tp41
F1
s(S'VP'
p42
S'ADVVNP'
tp43
F9
s(S'MP'
S'MVDP'
tp44
F16
s(S'PP'
p45
S'PPPP'
tp46
F42
s(S'DP'
p47
S'DDDNP'
tp48
F7
s(S'VP'
S'VACP'
tp49
F5
s(S'AP'
S'AAAVP'
tp50
F1
s(S'DP'
S'DADVVP'
tp51
F9
s(S'VP'
p52
S'ADVVVANP'
tp53
F1
s(S'AP'
S'AADVPP'
tp54
F2
s(S'NP'
S'NNNADVADVVVP'
tp55
F1
s(S'NP'
p56
S'NADVACP'
tp57
F1
s(S'NP'
p58
S'NAAVVP'
tp59
F1
s(g16
S'AAVVP'
tp60
F1
s(S'NP'
p61
S'NADVVVP'
tp62
F9
s(S'CP'
S'CADVDAPP'
tp63
F5
s(S'VP'
p64
S'VCP'
tp65
F108
s(S'NP'
p66
S'NMMP'
tp67
F3
s(S'DP'
S'ADVADVDDVVP'
tp68
F2
s(S'DP'
S'ADVADVDCCP'
tp69
F1
s(S'DP'
S'DDDNNP'
tp70
F1
s(S'MP'
S'MVADVNP'
tp71
F1
s(S'PP'
p72
S'PAP'
tp73
F113
s(S'VP'
S'VADVADVAP'
tp74
F1
s(S'AP'
S'ADVAADVVP'
tp75
F1
s(S'PP'
p76
S'ADVPPVP'
tp77
F3
s(S'NP'
p78
S'ANPPP'
tp79
F2
s(S'PP'
p80
S'PPADVDP'
tp81
F3
s(S'VP'
p82
S'VADVANP'
tp83
F2
s(S'PP'
p84
S'PNP'
tp85
F240
s(S'AP'
S'AADVADVDP'
tp86
F1
s(S'DP'
p87
S'DDP'
tp88
F76
s(S'NP'
p89
S'NNDDDP'
tp90
F1
s(S'PP'
S'PPMMP'
tp91
F1
s(S'VP'
S'ADVVDDP'
tp92
F1
s(S'NP'
S'NNNPP'
tp93
F2
s(g72
S'PAAP'
tp94
F20
s(S'MP'
S'MCDP'
tp95
F5
s(S'DP'
p96
S'DDAANP'
tp97
F1
s(S'MP'
S'MNAP'
tp98
F1
s(g52
S'ADVADVVVCP'
tp99
F3
s(S'NP'
p100
S'NMP'
tp101
F64
s(S'MP'
S'MAVDDP'
tp102
F1
s(S'VP'
S'VMMP'
tp103
F2
s(g84
S'PDP'
tp104
F256
s(S'DP'
S'DDPPPPP'
tp105
F2
s(S'PP'
p106
S'PPADVVP'
tp107
F1
s(S'NP'
p108
S'ADVNVVP'
tp109
F2
s(S'MP'
p110
S'MNNVP'
tp111
F1
s(S'MP'
S'MADVVNP'
tp112
F2
s(S'CP'
p113
S'CDADVADVPPP'
tp114
F1
s(g32
S'AVAAP'
tp115
F1
s(S'MP'
p116
S'MVVAAAP'
tp117
F1
s(g66
S'NACCP'
tp118
F1
s(S'PP'
p119
S'PADVPP'
tp120
F1
s(S'NP'
S'NNADVCP'
tp121
F3
s(S'VP'
S'VVADVNP'
tp122
F1
s(S'PP'
S'PPADVAP'
tp123
F1
s(S'MP'
S'MMMVVP'
tp124
F1
s(S'DP'
S'DPPPP'
tp125
F9
s(S'DP'
S'DDANP'
tp126
F6
s(S'DP'
S'ADNNNP'
tp127
F1
s(S'VP'
S'VVP'
tp128
F52
s(S'AP'
S'ADVAVP'
tp129
F2
s(S'DP'
S'ADVDAAP'
tp130
F2
s(S'VP'
S'VVADVCP'
tp131
F2
s(S'NP'
S'NADVADVDDP'
tp132
F2
s(S'NP'
p133
S'NNCP'
tp134
F77
s(S'VP'
p135
S'VVAVP'
tp136
F1
s(S'DP'
p137
S'DDDDP'
tp138
F1
s(S'MP'
S'MVVADVADVAP'
tp139
F1
s(S'MP'
S'MAAADP'
tp140
F1
s(S'NP'
S'NADVDDP'
tp141
F1
s(S'VP'
p142
S'AVNP'
tp143
F11
s(S'VP'
S'VVADP'
tp144
F2
s(S'AP'
S'AAADVVP'
tp145
F1
s(S'PP'
S'ADVPVVP'
tp146
F1
s(S'VP'
S'VVVANP'
tp147
F1
s(S'PP'
S'ADVAPDP'
tp148
F1
s(S'PP'
S'PPAAAANNP'
tp149
F1
s(S'VP'
p150
S'VADVVP'
tp151
F1
s(S'CP'
S'ACCDDP'
tp152
F1
s(S'VP'
S'ADVADVADVVNP'
tp153
F1
s(S'MP'
p154
S'MVPPP'
tp155
F6
s(g56
S'ANADVVP'
tp156
F2
s(S'PP'
p157
S'ADVAPVP'
tp158
F2
s(S'DP'
S'AAADPPPP'
tp159
F1
s(S'CP'
p160
S'CCCDP'
tp161
F5
s(g32
S'ADVVAP'
tp162
F3
s(S'VP'
S'VCCCP'
tp163
F1
s(g119
S'APDP'
tp164
F27
s(S'PP'
S'ADVADVAPNP'
tp165
F1
s(S'DP'
S'DAADVANNP'
tp166
F1
s(S'VP'
p167
S'ADVVNNP'
tp168
F1
s(S'AP'
S'AADVCP'
tp169
F3
s(S'CP'
S'ADVCCDDDP'
tp170
F1
s(S'PP'
S'AAPPDP'
tp171
F1
s(g76
S'ADVPNNP'
tp172
F1
s(S'VP'
S'ADVVVP'
tp173
F2
s(S'PP'
S'ADVADVADVPDP'
tp174
F1
s(S'VP'
S'ADVADVVVDDP'
tp175
F1
s(S'DP'
S'DADVADVADVPP'
tp176
F1
s(S'DP'
p177
S'DAAP'
tp178
F13
s(S'NP'
S'ADVANCP'
tp179
F2
s(S'DP'
p180
S'DNNP'
tp181
F100
s(g150
S'ADVVAANP'
tp182
F1
s(S'DP'
S'DPPPPP'
tp183
F2
s(S'CP'
p184
S'CDDPPPP'
tp185
F1
s(S'CP'
p186
S'CCADVDP'
tp187
F5
s(S'VP'
S'ADVADVADVVVDP'
tp188
F1
s(S'VP'
S'AAVDDP'
tp189
F1
s(S'NP'
S'NNNVP'
tp190
F4
s(S'VP'
p191
S'VADVNNP'
tp192
F1
s(S'NP'
S'ANADVADVPPP'
tp193
F1
s(S'NP'
S'AADVANNCP'
tp194
F1
s(g84
S'PADVVP'
tp195
F7
s(S'DP'
S'DACP'
tp196
F1
s(S'DP'
S'DADVADVADVPPP'
tp197
F1
s(S'CP'
p198
S'CADVADVADVDAPP'
tp199
F1
s(S'PP'
S'APAP'
tp200
F7
s(S'AP'
S'APP'
tp201
F60
s(S'AP'
S'ACCCP'
tp202
F1
s(S'NP'
p203
S'NADVMP'
tp204
F2
s(S'AP'
p205
S'AAP'
tp206
F12
s(g160
S'CADVADPP'
tp207
F1
s(S'VP'
S'VVVVPP'
tp208
F1
s(S'VP'
S'VADVADVNP'
tp209
F1
s(g113
S'CDDDDPP'
tp210
F2
s(S'NP'
p211
S'AAAANNVP'
tp212
F1
s(S'PP'
p213
S'PAANP'
tp214
F3
s(S'VP'
S'VADVADVCP'
tp215
F1
s(S'NP'
p216
S'NADVADVPPP'
tp217
F1
s(S'NP'
p218
S'ANVP'
tp219
F31
s(g167
S'VAACP'
tp220
F1
s(S'DP'
p221
S'ADVDDPP'
tp222
F4
s(S'PP'
S'APADVNNP'
tp223
F1
s(S'AP'
S'AADVCCP'
tp224
F1
s(S'VP'
S'AAAVVNP'
tp225
F1
s(S'CP'
p226
S'CDDDPPP'
tp227
F1
s(g84
S'PAVP'
tp228
F18
s(S'MP'
S'ADVMVP'
tp229
F3
s(S'PP'
S'ADVADVPPVP'
tp230
F1
s(g12
S'VVVPP'
tp231
F6
s(S'PP'
S'APPPP'
tp232
F1
s(S'DP'
p233
S'DADP'
tp234
F4
s(S'DP'
p235
S'ADVADVDNNP'
tp236
F1
s(S'AP'
p237
S'ADVADP'
tp238
F5
s(S'CP'
S'ADVADVCDP'
tp239
F4
s(g157
S'APDDP'
tp240
F5
s(S'VP'
S'ADVADVVVNP'
tp241
F1
s(S'PP'
S'PADVADVADVNNP'
tp242
F1
s(S'NP'
S'ADVNAP'
tp243
F3
s(S'DP'
S'DAAAVP'
tp244
F1
s(S'PP'
p245
S'PPCP'
tp246
F2
s(g20
S'APVP'
tp247
F16
s(S'DP'
p248
S'DAAAP'
tp249
F1
s(S'VP'
p250
S'VVNP'
tp251
F47
s(S'PP'
p252
S'PPPNNP'
tp253
F2
s(S'PP'
p254
S'PPVP'
tp255
F60
s(S'PP'
p256
S'PPADVADVPP'
tp257
F1
s(S'PP'
S'ADVPAADP'
tp258
F1
s(S'VP'
p259
S'VADVDP'
tp260
F12
s(S'MP'
S'MVVVPP'
tp261
F1
s(S'VP'
S'VAAP'
tp262
F20
s(S'NP'
S'ANDP'
tp263
F15
s(g133
S'NVVP'
tp264
F65
s(S'PP'
S'AAPVP'
tp265
F3
s(S'VP'
p266
S'VMP'
tp267
F4
s(S'NP'
p268
S'ADVNAAVP'
tp269
F1
s(g82
S'VVNNP'
tp270
F15
s(S'CP'
S'CDAPP'
tp271
F30
s(S'VP'
p272
S'VVAAP'
tp273
F3
s(g96
S'ADVADVP'
tp274
F1
s(S'DP'
p275
S'DAMP'
tp276
F1
s(g24
S'ADNP'
tp277
F40
s(S'PP'
p278
S'AAPVVP'
tp279
F2
s(S'DP'
S'DDADVAP'
tp280
F1
s(S'DP'
p281
S'ADVDDPPP'
tp282
F2
s(S'PP'
p283
S'PADP'
tp284
F28
s(S'NP'
S'NADVADVADVPPP'
tp285
F1
s(S'VP'
p286
S'ADVVVCP'
tp287
F2
s(S'NP'
S'NADVADVADVVVP'
tp288
F1
s(S'NP'
p289
S'ANDDP'
tp290
F2
s(S'NP'
p291
S'NNNCP'
tp292
F9
s(g233
S'DAPP'
tp293
F47
s(S'VP'
p294
S'AVVP'
tp295
F1
s(S'MP'
S'MVVCP'
tp296
F1
s(S'VP'
S'ADVADVVPP'
tp297
F1
s(S'MP'
S'MADVVPP'
tp298
F1
s(S'DP'
S'DAAVP'
tp299
F2
s(S'VP'
S'ADVADVADVVDP'
tp300
F1
s(S'PP'
S'AAAPVP'
tp301
F2
s(S'NP'
S'ADVADVNNDP'
tp302
F1
s(S'VP'
S'ADVADVVDP'
tp303
F3
s(S'PP'
S'PPPDP'
tp304
F5
s(S'DP'
S'DAAPPP'
tp305
F1
s(S'AP'
p306
S'AAPPP'
tp307
F1
s(S'DP'
p308
S'DAAANP'
tp309
F1
s(g177
S'DADVANP'
tp310
F4
s(S'NP'
S'NANP'
tp311
F1
s(S'VP'
S'VAAPP'
tp312
F1
s(S'DP'
S'ADVDNP'
tp313
F13
s(g250
S'VVPP'
tp314
F41
s(S'VP'
S'VADVAPP'
tp315
F1
s(S'DP'
S'DDDADVNP'
tp316
F1
s(S'MP'
p317
S'MVPP'
tp318
F14
s(S'DP'
S'ADVP'
tp319
F17
s(S'MP'
p320
S'MDAAP'
tp321
F1
s(S'CP'
p322
S'CDDPPP'
tp323
F14
s(S'NP'
p324
S'AANCCP'
tp325
F2
s(S'DP'
p326
S'DADVPPP'
tp327
F3
s(g254
S'PPVVP'
tp328
F11
s(S'VP'
S'VVADVCCP'
tp329
F1
s(S'DP'
S'DNNNP'
tp330
F4
s(S'DP'
p331
S'DDADVADVAPP'
tp332
F1
s(S'MP'
S'MPPDP'
tp333
F1
s(g150
S'VADVDDP'
tp334
F3
s(S'PP'
S'PMMP'
tp335
F2
s(g245
S'PVVVP'
tp336
F5
s(g245
S'PMP'
tp337
F19
s(S'CP'
S'CCDP'
tp338
F109
s(S'NP'
p339
S'ADVNNDP'
tp340
F2
s(S'DP'
p341
S'ADVADVADVDPP'
tp342
F1
s(S'MP'
S'AMVP'
tp343
F3
s(S'DP'
S'AADDPP'
tp344
F2
s(S'PP'
S'ADVADVPPPP'
tp345
F1
s(S'NP'
S'NVVVP'
tp346
F12
s(S'CP'
S'CDDDPP'
tp347
F6
s(S'CP'
S'CDAAPP'
tp348
F8
s(S'VP'
p349
S'VVVDP'
tp350
F12
s(g283
S'PNNNP'
tp351
F9
s(g186
S'CCCCDP'
tp352
F2
s(S'NP'
S'ANMMP'
tp353
F1
s(S'VP'
p354
S'VADVPPP'
tp355
F1
s(g116
S'MVVAP'
tp356
F1
s(S'AP'
S'AACCP'
tp357
F1
s(S'PP'
p358
S'AAPNP'
tp359
F3
s(S'CP'
S'CADADVPP'
tp360
F1
s(S'PP'
S'AAPADVDP'
tp361
F1
s(g72
S'PADVVVP'
tp362
F1
s(S'PP'
p363
S'PPP'
tp364
F123
s(g294
S'VADVADVADVANP'
tp365
F1
s(S'NP'
S'NNADVDP'
tp366
F2
s(g66
S'NAVP'
tp367
F16
s(S'PP'
S'PADVAP'
tp368
F5
s(S'DP'
p369
S'DDNNNP'
tp370
F5
s(S'NP'
S'NDDDP'
tp371
F1
s(g47
S'ADVDVP'
tp372
F5
s(S'NP'
S'NAAAP'
tp373
F1
s(S'NP'
p374
S'NCCCP'
tp375
F3
s(S'DP'
p376
S'DADVADVPPP'
tp377
F1
s(g205
S'AADVVP'
tp378
F2
s(S'PP'
S'PPPPDP'
tp379
F1
s(S'VP'
S'ADVADVVVPP'
tp380
F2
s(S'DP'
S'ADVADVDNP'
tp381
F1
s(S'AP'
S'AAADVCP'
tp382
F1
s(g42
S'VPP'
tp383
F174
s(S'CP'
S'ADVCCDP'
tp384
F2
s(S'MP'
S'ADVADVMVP'
tp385
F1
s(g47
S'ADVDDNP'
tp386
F5
s(S'DP'
p387
S'DDADVDP'
tp388
F1
s(S'PP'
S'PADVDP'
tp389
F12
s(g226
S'CDADVAPP'
tp390
F2
s(S'CP'
S'CDDPP'
tp391
F74
s(S'DP'
p392
S'DAAPP'
tp393
F10
s(g283
S'PVVP'
tp394
F55
s(S'CP'
S'CADPPP'
tp395
F7
s(S'AP'
p396
S'AACP'
tp397
F17
s(S'DP'
S'ADVADDP'
tp398
F1
s(S'VP'
S'ADVVCP'
tp399
F4
s(S'PP'
p400
S'ADVPPAP'
tp401
F1
s(S'VP'
p402
S'VPPP'
tp403
F34
s(S'VP'
S'AVCCP'
tp404
F1
s(g12
S'VVPPP'
tp405
F3
s(g84
S'PPAP'
tp406
F17
s(g24
S'DVVP'
tp407
F39
s(g278
S'PADVAVP'
tp408
F3
s(S'NP'
p409
S'ANMP'
tp410
F2
s(S'AP'
S'APPP'
tp411
F5
s(S'PP'
S'ADVPPP'
tp412
F4
s(S'NP'
S'ADVADVNVP'
tp413
F2
s(g259
S'VVVP'
tp414
F9
s(g308
S'DDPPPP'
tp415
F1
s(S'CP'
p416
S'CADVDDPP'
tp417
F1
s(g58
S'ANCP'
tp418
F43
s(g87
S'DCP'
tp419
F12
s(S'NP'
S'ANNCP'
tp420
F1
s(S'NP'
p421
S'AAANCP'
tp422
F1
s(S'NP'
p423
S'NNVVVVP'
tp424
F1
s(S'PP'
S'ADVADVADVPPNP'
tp425
F2
s(S'VP'
p426
S'AAVVCP'
tp427
F1
s(S'DP'
p428
S'DDDP'
tp429
F18
s(S'AP'
S'ADDDDP'
tp430
F1
s(S'DP'
S'DDADVPP'
tp431
F2
s(g110
S'MAADP'
tp432
F1
s(g35
S'ANVVP'
tp433
F6
s(g32
S'VVDP'
tp434
F58
s(g306
S'ADVAAP'
tp435
F1
s(S'NP'
p436
S'NPPP'
tp437
F40
s(S'DP'
p438
S'ADDDP'
tp439
F1
s(g281
S'AADVVP'
tp440
F1
s(S'NP'
S'ADVANAAP'
tp441
F1
s(S'DP'
p442
S'DAVP'
tp443
F12
s(S'VP'
p444
S'AVVVP'
tp445
F1
s(S'NP'
S'NNNMP'
tp446
F1
s(g205
S'ACP'
tp447
F51
s(g84
S'PPNP'
tp448
F75
s(S'AP'
S'ADVACCP'
tp449
F1
s(g252
S'AAAAPDP'
tp450
F1
s(S'DP'
S'ADVDAPP'
tp451
F5
s(S'DP'
S'AADVP'
tp452
F3
s(S'NP'
S'NNNNCCP'
tp453
F1
s(g186
S'CDDADVPP'
tp454
F1
s(S'AP'
p455
S'ADP'
tp456
F189
s(S'CP'
p457
S'CADVDDPPP'
tp458
F2
s(g341
S'DDAVP'
tp459
F3
s(g157
S'APVVP'
tp460
F2
s(S'NP'
p461
S'ADVANCCP'
tp462
F1
s(S'DP'
S'DVVVVP'
tp463
F3
s(S'NP'
p464
S'NADVADVAP'
tp465
F1
s(S'VP'
p466
S'AAAVDP'
tp467
F2
s(S'AP'
S'AAADP'
tp468
F7
s(g266
S'VVAP'
tp469
F18
s(g339
S'NNAPP'
tp470
F1
s(S'DP'
S'ADVADVDDPPP'
tp471
F1
s(S'VP'
S'VADVADVADVPP'
tp472
F1
s(S'DP'
S'DDDCP'
tp473
F1
s(S'CP'
S'ADVACDP'
tp474
F1
s(g416
S'CADPPPP'
tp475
F1
s(S'NP'
p476
S'AANNVVP'
tp477
F1
s(g211
S'NNADVCCP'
tp478
F1
s(g436
S'NPP'
tp479
F222
s(S'PP'
S'PPPPNP'
tp480
F2
s(g436
S'NVP'
tp481
F230
s(S'CP'
S'ADVCCDDP'
tp482
F4
s(S'VP'
S'VVNNNNP'
tp483
F1
s(S'NP'
S'NAAPP'
tp484
F3
s(S'PP'
S'PPPPVP'
tp485
F1
s(S'VP'
p486
S'VDDP'
tp487
F62
s(S'VP'
p488
S'VVANNP'
tp489
F1
s(S'DP'
S'DMP'
tp490
F7
s(g237
S'ADVADVADVAADP'
tp491
F1
s(S'PP'
S'ADVAPAP'
tp492
F1
s(S'PP'
p493
S'PAAAVP'
tp494
F1
s(S'NP'
p495
S'NADVADVVVP'
tp496
F3
s(g218
S'ANPP'
tp497
F26
s(S'PP'
p498
S'ADVPPDP'
tp499
F3
s(S'PP'
p500
S'PPPPP'
tp501
F7
s(S'MP'
S'MPDP'
tp502
F2
s(g256
S'ADVADVPDP'
tp503
F2
s(S'MP'
S'MVVPP'
tp504
F2
s(S'AP'
S'AMMP'
tp505
F1
s(S'DP'
S'ADVDPP'
tp506
F28
s(S'NP'
S'NPPPP'
tp507
F4
s(S'DP'
S'ADDP'
tp508
F2
s(g464
S'ADVADVNAP'
tp509
F1
s(g400
S'PPPPPPP'
tp510
F1
s(S'CP'
S'CAADPP'
tp511
F1
s(S'AP'
S'AADVADVADVCCP'
tp512
F1
s(S'DP'
S'DADVADVVP'
tp513
F2
s(S'NP'
p514
S'NAACP'
tp515
F4
s(g45
S'PNNP'
tp516
F70
s(S'PP'
S'APNNP'
tp517
F3
s(S'DP'
S'DDDADVADVPPP'
tp518
F1
s(S'DP'
S'DDAAP'
tp519
F2
s(S'DP'
S'ADVADVDDDP'
tp520
F1
s(S'MP'
S'MMNP'
tp521
F1
s(S'VP'
S'VVAACP'
tp522
F1
s(g142
S'AVAP'
tp523
F8
s(S'MP'
S'MMVP'
tp524
F8
s(g358
S'PADVDDP'
tp525
F2
s(g363
S'PCCP'
tp526
F4
s(g455
S'AADP'
tp527
F53
s(S'CP'
p528
S'ACDP'
tp529
F22
s(S'NP'
S'NNDP'
tp530
F29
s(S'NP'
p531
S'NNACP'
tp532
F1
s(S'MP'
S'MDNNP'
tp533
F1
s(S'CP'
S'CDADVPPP'
tp534
F2
s(g32
S'VAP'
tp535
F122
s(g428
S'DDDPP'
tp536
F11
s(S'VP'
S'VADVMP'
tp537
F1
s(g278
S'PAAPP'
tp538
F1
s(S'NP'
S'ADVADVADVANVP'
tp539
F1
s(S'AP'
S'AAVVP'
tp540
F1
s(S'DP'
S'DDDPPP'
tp541
F3
s(g167
S'ADVAVDP'
tp542
F1
s(S'DP'
S'ADAP'
tp543
F1
s(S'PP'
p544
S'APADVVP'
tp545
F1
s(S'AP'
S'AAACP'
tp546
F1
s(g64
S'ADVVVDP'
tp547
F5
s(g400
S'PPPVP'
tp548
F4
s(S'AP'
S'AADDP'
tp549
F9
s(S'VP'
S'VAANP'
tp550
F4
s(g89
S'NADVADVCP'
tp551
F2
s(S'MP'
S'MVNP'
tp552
F16
s(S'DP'
S'ADVADVADVDVP'
tp553
F1
s(S'NP'
p554
S'NVVVVP'
tp555
F1
s(S'AP'
p556
S'AADVADVAP'
tp557
F1
s(S'VP'
p558
S'ADVVADVANP'
tp559
F1
s(S'MP'
S'MADP'
tp560
F9
s(S'PP'
S'PPPDDP'
tp561
F1
s(g266
S'AAVVNP'
tp562
F1
s(S'CP'
S'CCAADP'
tp563
F1
s(S'DP'
S'DDADVNP'
tp564
F2
s(g20
S'PANP'
tp565
F38
s(S'DP'
S'AADNP'
tp566
F5
s(S'AP'
p567
S'ACCP'
tp568
F6
s(S'PP'
S'AAPAAP'
tp569
F1
s(g289
S'AANMP'
tp570
F1
s(S'AP'
S'AAVP'
tp571
F11
s(g396
S'AVVP'
tp572
F7
s(S'NP'
p573
S'NDDP'
tp574
F32
s(S'CP'
S'CDDADVADVPPP'
tp575
F1
s(S'DP'
S'DADVADVNNP'
tp576
F1
s(S'PP'
S'PADVADVADVDDP'
tp577
F1
s(g137
S'DDDADVPP'
tp578
F1
s(S'VP'
S'AVPPP'
tp579
F1
s(g436
S'NDP'
tp580
F144
s(S'NP'
S'ADVNADVADVVVP'
tp581
F1
s(S'NP'
S'AAANVP'
tp582
F1
s(g554
S'NNADVADVDP'
tp583
F1
s(g428
S'DDVP'
tp584
F63
s(g203
S'AANVP'
tp585
F7
s(S'PP'
S'PPADVANP'
tp586
F1
s(S'VP'
S'ADVVVNNP'
tp587
F1
s(S'VP'
S'VNNNP'
tp588
F5
s(S'VP'
S'VVAAANNP'
tp589
F1
s(S'PP'
S'ADVPAP'
tp590
F2
s(S'NP'
S'NNAAAAPP'
tp591
F1
s(S'PP'
S'APADVDP'
tp592
F1
s(g245
S'PCP'
tp593
F21
s(g26
S'NNPPP'
tp594
F7
s(S'PP'
S'PAADDP'
tp595
F1
s(g252
S'PAADP'
tp596
F5
s(g423
S'ADVNNVP'
tp597
F1
s(g272
S'VPPPP'
tp598
F3
s(S'VP'
S'VCCP'
tp599
F21
s(S'AP'
S'ADVACP'
tp600
F6
s(S'PP'
S'AAPNNP'
tp601
F1
s(S'DP'
S'DDADVVP'
tp602
F2
s(g369
S'ADPPP'
tp603
F11
s(S'MP'
S'MVCP'
tp604
F4
s(g528
S'CCDDP'
tp605
F27
s(S'VP'
S'AVNNP'
tp606
F2
s(S'NP'
S'NNADVVP'
tp607
F2
s(g444
S'VVADVADVAP'
tp608
F1
s(g392
S'DDADP'
tp609
F2
s(g58
S'NAAP'
tp610
F18
s(S'NP'
S'ADVANAP'
tp611
F1
s(g191
S'VAMP'
tp612
F1
s(g500
S'PPAAP'
tp613
F2
s(S'NP'
p614
S'NNNNVP'
tp615
F1
s(g402
S'VVCP'
tp616
F19
s(S'PP'
p617
S'PADVADVPP'
tp618
F1
s(S'NP'
S'AANCP'
tp619
F6
s(g402
S'VADVNP'
tp620
F4
s(g349
S'VVDDDP'
tp621
F2
s(g5
S'MADVADVVPP'
tp622
F1
s(S'DP'
S'ADVADVDDVP'
tp623
F2
s(S'MP'
S'MDCP'
tp624
F1
s(S'PP'
p625
S'APPP'
tp626
F9
s(S'AP'
S'ADVADVAADP'
tp627
F1
s(S'VP'
S'ADVVPP'
tp628
F12
s(S'VP'
p629
S'ADVVVPPP'
tp630
F1
s(g64
S'VNNP'
tp631
F46
s(g567
S'AADVDP'
tp632
F1
s(g291
S'NADP'
tp633
F8
s(g442
S'DDNP'
tp634
F78
s(g421
S'NADVCP'
tp635
F6
s(g308
S'DDNNP'
tp636
F18
s(S'VP'
S'VPPPPP'
tp637
F1
s(g216
S'ADVNCP'
tp638
F10
s(g78
S'ADVANVP'
tp639
F2
s(g233
S'ADVADVADADVNNP'
tp640
F1
s(S'NP'
S'NAADP'
tp641
F1
s(S'NP'
S'ADVADVNCP'
tp642
F4
s(S'DP'
S'AADPP'
tp643
F3
s(S'NP'
S'AAAANVVP'
tp644
F1
s(g108
S'NNNNPP'
tp645
F2
s(S'PP'
S'ADVADVPPDP'
tp646
F2
s(S'DP'
S'DAAAANP'
tp647
F1
s(g100
S'NNADVADVADVAAP'
tp648
F1
s(S'MP'
S'MADVVDP'
tp649
F3
s(S'MP'
S'MVVNP'
tp650
F2
s(g235
S'ADVDNNP'
tp651
F2
s(S'CP'
S'ACDDP'
tp652
F5
s(S'NP'
S'AANDP'
tp653
F1
s(g331
S'ADVDCCP'
tp654
F1
s(S'AP'
p655
S'AAPP'
tp656
F17
s(S'AP'
S'ADVADVACCP'
tp657
F1
s(g629
S'VVCCP'
tp658
F3
s(g438
S'DMMP'
tp659
F1
s(S'DP'
S'DADVVVP'
tp660
F1
s(S'DP'
S'DAAAPP'
tp661
F2
s(S'PP'
p662
S'ADVPANP'
tp663
F1
s(S'AP'
S'ADVANNP'
tp664
F1
s(g294
S'VVVCCP'
tp665
F1
s(g26
S'NAPP'
tp666
F16
s(g556
S'ADVADVADP'
tp667
F2
s(S'NP'
S'NADVDP'
tp668
F2
s(S'PP'
S'ADVPPPP'
tp669
F1
s(S'NP'
S'ANCCP'
tp670
F4
s(S'NP'
S'AANPP'
tp671
F3
s(S'VP'
p672
S'VDDDP'
tp673
F2
s(S'NP'
S'NNMP'
tp674
F12
s(S'DP'
S'DDDVP'
tp675
F2
s(S'VP'
S'AAVPP'
tp676
F2
s(g466
S'AAVDDDP'
tp677
F1
s(S'CP'
S'CADDPP'
tp678
F1
s(S'PP'
S'PAAAP'
tp679
F2
s(S'PP'
S'ADVADVPNP'
tp680
F1
s(S'PP'
S'PPPAP'
tp681
F1
s(g322
S'CDDAPP'
tp682
F2
s(S'NP'
p683
S'ANAP'
tp684
F3
s(S'MP'
S'MVAP'
tp685
F7
s(g363
S'PVP'
tp686
F233
s(g154
S'MVDDDP'
tp687
F1
s(S'DP'
S'DADVAVP'
tp688
F1
s(S'AP'
S'ADVADVAPP'
tp689
F1
s(g80
S'PPADVVVP'
tp690
F2
s(S'VP'
S'VVVVDP'
tp691
F3
s(S'CP'
S'CDDDADVADVPPP'
tp692
F1
s(S'VP'
S'VADVCCP'
tp693
F1
s(S'MP'
S'MADVVVDP'
tp694
F1
s(S'DP'
S'DADVADVVVP'
tp695
F2
s(g47
S'DVVVP'
tp696
F7
s(S'PP'
S'PPADVPP'
tp697
F1
s(S'NP'
S'ADVNNAP'
tp698
F1
s(S'VP'
S'VCCCCP'
tp699
F1
s(S'PP'
S'PACP'
tp700
F1
s(g72
S'PPDDP'
tp701
F11
s(S'VP'
S'AVCP'
tp702
F1
s(S'DP'
S'DDVVVP'
tp703
F3
s(g531
S'NAVVP'
tp704
F1
s(g24
S'DPP'
tp705
F281
s(g100
S'ADVNVP'
tp706
F9
s(S'DP'
p707
S'DDPP'
tp708
F121
s(S'DP'
S'DDADVPPP'
tp709
F1
s(g180
S'DANP'
tp710
F52
s(g655
S'ADVAMP'
tp711
F1
s(g324
S'NADVPP'
tp712
F6
s(S'PP'
S'ADVADVADVPAP'
tp713
F1
s(g320
S'MMAP'
tp714
F1
s(S'NP'
S'NAAVP'
tp715
F1
s(S'PP'
S'PADVADP'
tp716
F2
s(S'PP'
S'PDDDP'
tp717
F5
s(S'CP'
S'CADVADVADVDPP'
tp718
F1
s(g354
S'VADVCP'
tp719
F5
s(g495
S'NADVCCP'
tp720
F3
s(S'NP'
S'NCCP'
tp721
F91
s(g531
S'NNAACP'
tp722
F1
s(S'VP'
S'ADVAVAP'
tp723
F1
s(S'NP'
S'NNNVVP'
tp724
F2
s(g76
S'PADVPPP'
tp725
F2
s(g376
S'DCCP'
tp726
F1
s(g106
S'AAPDP'
tp727
F4
s(g438
S'ADVADPP'
tp728
F1
s(S'DP'
S'DDADVNNP'
tp729
F1
s(S'VP'
S'VVVAP'
tp730
F2
s(g72
S'PDDP'
tp731
F76
s(S'MP'
S'MVDDP'
tp732
F2
s(g409
S'NNVP'
tp733
F65
s(S'PP'
S'PADVADVADVDP'
tp734
F1
s(S'AP'
S'ADVADVACP'
tp735
F1
s(g266
S'AVDP'
tp736
F26
s(g374
S'NNP'
tp737
F1
s(g486
S'VVDDP'
tp738
F8
s(S'DP'
S'DAANP'
tp739
F12
s(S'PP'
S'APADVADVVVP'
tp740
F1
s(g455
S'ADDP'
tp741
F41
s(S'PP'
S'PNNNNP'
tp742
F2
s(g20
S'ADVPPNP'
tp743
F4
s(S'VP'
S'VVVCP'
tp744
F2
s(S'CP'
S'CADVADVDPP'
tp745
F4
s(S'CP'
S'ADVADVADVCDP'
tp746
F2
s(g24
S'DPPP'
tp747
F123
s(S'DP'
S'DAVVP'
tp748
F1
s(S'CP'
S'ADVADVADVCCDP'
tp749
F1
s(g157
S'ADVADVPPNP'
tp750
F1
s(g514
S'NNAVP'
tp751
F1
s(S'VP'
S'AVVCP'
tp752
F1
s(S'PP'
S'PPPANP'
tp753
F1
s(S'CP'
S'ADVADVCDDP'
tp754
F2
s(g387
S'DDADVADVNP'
tp755
F3
s(S'PP'
S'ADVPNP'
tp756
F12
s(g84
S'PPDP'
tp757
F70
s(S'MP'
S'MAVDP'
tp758
F2
s(S'DP'
S'ADVDCP'
tp759
F2
s(g331
S'DADVADVCP'
tp760
F1
s(S'DP'
S'DDCP'
tp761
F2
s(S'NP'
S'NAAAVVP'
tp762
F1
s(S'NP'
S'ADVADVADVNMMMP'
tp763
F1
s(S'PP'
S'PPADVDDP'
tp764
F1
s(S'AP'
S'AAAPP'
tp765
F3
s(S'MP'
S'MADVADP'
tp766
F1
s(g409
S'NAP'
tp767
F77
s(S'NP'
S'NNAAP'
tp768
F1
s(S'VP'
S'VAAAP'
tp769
F4
s(S'VP'
S'ADVAVNP'
tp770
F2
s(S'MP'
S'MAADDP'
tp771
F1
s(g213
S'ADVPADP'
tp772
F1
s(g442
S'DDAPP'
tp773
F4
s(g617
S'ADVADVPVP'
tp774
F1
s(g498
S'APNP'
tp775
F24
s(S'VP'
S'VVVNNP'
tp776
F1
s(S'DP'
S'DDVVP'
tp777
F13
s(S'AP'
S'AAADDP'
tp778
F3
s(g426
S'VVVNP'
tp779
F6
s(g421
S'NAMP'
tp780
F1
s(S'NP'
S'AANVVP'
tp781
F1
s(S'MP'
S'MVANP'
tp782
F2
s(g275
S'ADVADVDDPP'
tp783
F3
s(g317
S'MVNNP'
tp784
F1
s(g528
S'CDPP'
tp785
F256
s(g221
S'ADVADVADVDAPP'
tp786
F1
s(S'MP'
S'MVVNNP'
tp787
F1
s(g655
S'ADDDP'
tp788
F2
s(g184
S'ADVCDP'
tp789
F19
s(g461
S'NNVVP'
tp790
F15
s(g58
S'NADVADVADVCP'
tp791
F2
s(S'MP'
S'MNPPP'
tp792
F1
s(g488
S'VADVADVDP'
tp793
F1
s(g625
S'PPNNP'
tp794
F14
s(S'CP'
S'CDAAAPP'
tp795
F1
s(S'PP'
S'PPMP'
tp796
F2
s(S'CP'
S'CAADDPP'
tp797
F2
s(g617
S'PADVADVADVVVP'
tp798
F1
s(S'DP'
p799
S'ADVADVDPP'
tp800
F5
s(g32
S'VDP'
tp801
F248
s(S'NP'
S'NADVAP'
tp802
F2
s(g58
S'NACP'
tp803
F19
s(S'VP'
S'AVDDP'
tp804
F3
s(S'DP'
S'DADVNP'
tp805
F11
s(g707
S'DAP'
tp806
F56
s(S'CP'
S'CADPP'
tp807
F31
s(S'PP'
S'PPAVP'
tp808
F2
s(g14
S'PPDDDP'
tp809
F1
s(S'VP'
S'AVPP'
tp810
F7
s(S'NP'
S'NADVADVMP'
tp811
F1
s(S'DP'
S'ADADVPP'
tp812
F1
s(S'MP'
S'AMNP'
tp813
F1
s(g266
S'VVADVDP'
tp814
F1
s(S'PP'
S'PPADVADVDDP'
tp815
F1
s(S'CP'
S'CDDPPPPP'
tp816
F1
s(S'VP'
S'VVVVCP'
tp817
F1
s(S'CP'
S'CDPPPP'
tp818
F9
s(S'VP'
S'AAVDP'
tp819
F1
s(g326
S'AADNNP'
tp820
F1
s(S'NP'
S'NNDDP'
tp821
F2
s(S'DP'
S'ADPPPP'
tp822
F1
s(S'DP'
S'DADVADVPP'
tp823
F2
s(S'CP'
S'CADVADVDDPP'
tp824
F3
s(S'PP'
S'PPPNP'
tp825
F4
s(S'NP'
S'NADVADVDP'
tp826
F1
s(g544
S'PADVADVNP'
tp827
F3
s(g614
S'NNNP'
tp828
F1
s(g392
S'ADPP'
tp829
F45
s(S'PP'
S'PPAAVP'
tp830
F1
s(S'NP'
S'NNADVVVP'
tp831
F2
s(g558
S'VADVPP'
tp832
F1
s(S'DP'
S'DDAAPP'
tp833
F1
s(g248
S'ADVDANP'
tp834
F2
s(g198
S'CCADVDDP'
tp835
F2
s(S'CP'
S'CAAADPPPP'
tp836
F1
s(g625
S'ADVPVP'
tp837
F10
s(g376
S'DDDDPP'
tp838
F2
s(S'MP'
S'MADVADVADVVDP'
tp839
F1
s(S'NP'
S'NNVVVP'
tp840
F1
s(S'VP'
S'VVADVADVCP'
tp841
F1
s(S'PP'
S'PAMP'
tp842
F1
s(S'PP'
p843
S'ADVPDP'
tp844
F6
s(g493
S'PAAVP'
tp845
F1
s(g218
S'ADVNNPP'
tp846
F4
s(S'MP'
S'MAVNNP'
tp847
F1
s(g436
S'NCP'
tp848
F244
s(g29
S'CADVDPPP'
tp849
F1
s(S'VP'
S'ADVVVPP'
tp850
F4
s(g268
S'NNNAAAVP'
tp851
F1
s(S'NP'
S'ADVANDP'
tp852
F2
s(S'AP'
S'AAAP'
tp853
F2
s(g135
S'VAADP'
tp854
F2
s(S'PP'
S'PPAAAP'
tp855
F1
s(g119
S'ADVPDDP'
tp856
F2
s(g157
S'PPAPP'
tp857
F1
s(S'NP'
S'ANADVADVADVVP'
tp858
F1
s(S'MP'
S'MVCCP'
tp859
F1
s(S'DP'
S'DADVNNP'
tp860
F4
s(g421
S'NNCCP'
tp861
F13
s(S'MP'
S'MNVP'
tp862
F3
s(S'NP'
S'NNNADVADVCP'
tp863
F1
s(g61
S'NNPP'
tp864
F58
s(g662
S'PADVADVAP'
tp865
F1
s(S'VP'
S'VAPP'
tp866
F8
s(g266
S'ADVVDP'
tp867
F18
s(S'NP'
S'ADVADVADVNNVP'
tp868
F1
s(g799
S'DADVPP'
tp869
F26
s(S'AP'
S'AMP'
tp870
F2
s(g457
S'CCADP'
tp871
F4
s(g683
S'NNNPPP'
tp872
F1
s(S'AP'
S'ADVAPP'
tp873
F3
s(g186
S'AACDP'
tp874
F8
s(S'NP'
S'NNNCCP'
tp875
F3
s(S'CP'
S'CCDDDP'
tp876
F2
s(S'CP'
S'CCADVADVDDP'
tp877
F1
s(S'AP'
S'ADVAAADDP'
tp878
F1
s(g24
S'ADVDPPP'
tp879
F3
s(g24
S'DVP'
tp880
F213
s(S'DP'
S'ADVADVADVDDVP'
tp881
F1
s(S'NP'
S'ADVNPP'
tp882
F3
s(S'PP'
S'PADVADVDDP'
tp883
F2
s(g455
S'AVP'
tp884
F41
s(g58
S'NADVVP'
tp885
F14
s(g476
S'AAANNVP'
tp886
F1
s(g286
S'VVADVPPP'
tp887
F1
s(S'VP'
S'ADVVPPP'
tp888
F1
s(g442
S'DDPPP'
tp889
F30
s(g843
S'PCCCCP'
tp890
F1
s(S'NP'
S'ADVNMP'
tp891
F1
s(S'NP'
S'NNAP'
tp892
F5
s(S'MP'
S'MADVVCP'
tp893
F1
s(S'PP'
S'PPANP'
tp894
F7
s(S'VP'
S'AAAVNP'
tp895
F1
s(S'VP'
S'VVADVADVDP'
tp896
F1
s(S'PP'
S'PPCCP'
tp897
F1
s(S'CP'
S'CDADVPP'
tp898
F14
s(g32
S'VNP'
tp899
F204
s(S'VP'
p900
S'VANP'
tp901
F21
s(S'CP'
S'CADVDPP'
tp902
F20
s(g900
S'VADVAP'
tp903
F11
s(S'VP'
S'VADVADVADP'
tp904
F1
s(g157
S'PPADVNP'
tp905
F2
s(S'DP'
S'DDDDVP'
tp906
F1
s(g672
S'ADVADVVVDP'
tp907
F3
s(g331
S'AADDVP'
tp908
F1
s(g573
S'NADVPPP'
tp909
F3
s.