ccollections
defaultdict
p1
(c__builtin__
float
p2
tRp3
(S'VP'
S'VVAAAP'
tp4
F1
s(S'AP'
S'AADVPPP'
tp5
F1
s(S'NP'
S'ADVNNMP'
tp6
F2
s(S'DP'
S'DDAP'
tp7
F4
s(S'VP'
p8
S'ADVVVNP'
tp9
F2
s(S'AP'
p10
S'AADDDP'
tp11
F1
s(S'PP'
S'ADVADVADVPPVP'
tp12
F1
s(S'VP'
p13
S'VVVVP'
tp14
F4
s(S'PP'
p15
S'PAPP'
tp16
F5
s(S'PP'
S'PADVNP'
tp17
F6
s(S'DP'
p18
S'DNP'
tp19
F147
s(S'NP'
S'ANCCCP'
tp20
F1
s(S'VP'
S'ADVVNNP'
tp21
F2
s(S'CP'
p22
S'CDPPP'
tp23
F32
s(S'VP'
p24
S'VADP'
tp25
F9
s(S'NP'
p26
S'ADVNCCP'
tp27
F1
s(S'VP'
S'VADVDDP'
tp28
F1
s(S'DP'
p29
S'ADNNP'
tp30
F1
s(S'MP'
S'MDVP'
tp31
F1
s(g15
S'APVP'
tp32
F7
s(S'NP'
p33
S'ADVNADVACP'
tp34
F1
s(S'MP'
p35
S'MVDP'
tp36
F10
s(S'PP'
p37
S'PPPP'
tp38
F33
s(S'DP'
p39
S'DDDNP'
tp40
F3
s(S'MP'
p41
S'MMADVVP'
tp42
F1
s(S'VP'
S'VACP'
tp43
F5
s(S'PP'
S'PPAAP'
tp44
F2
s(S'DP'
p45
S'DADVVP'
tp46
F8
s(S'MP'
p47
S'MMCP'
tp48
F2
s(S'PP'
S'PADVNNP'
tp49
F1
s(S'AP'
S'AADVPP'
tp50
F3
s(S'NP'
S'NADVACP'
tp51
F1
s(S'NP'
p52
S'NADVVVP'
tp53
F6
s(S'CP'
S'CADVADVDDPP'
tp54
F1
s(S'VP'
p55
S'VCP'
tp56
F45
s(S'MP'
S'MVVANP'
tp57
F1
s(S'NP'
p58
S'NMMP'
tp59
F6
s(S'VP'
p60
S'ADVVCCP'
tp61
F1
s(S'PP'
S'ADVPADP'
tp62
F2
s(S'PP'
p63
S'PAP'
tp64
F41
s(S'MP'
S'MMVVP'
tp65
F1
s(g24
S'VADVADVAP'
tp66
F2
s(S'PP'
p67
S'ADVPPVP'
tp68
F1
s(S'PP'
S'APVVP'
tp69
F2
s(S'NP'
S'NNNACP'
tp70
F1
s(S'MP'
p71
S'AMVP'
tp72
F1
s(S'PP'
p73
S'PNP'
tp74
F138
s(S'DP'
S'ADDP'
tp75
F2
s(S'PP'
S'PCP'
tp76
F1
s(S'DP'
p77
S'DDP'
tp78
F22
s(S'NP'
p79
S'NNDP'
tp80
F8
s(S'MP'
S'MCDP'
tp81
F2
s(S'NP'
p82
S'NNADVADVCP'
tp83
F1
s(g52
S'NMP'
tp84
F44
s(S'NP'
S'ADVNAPP'
tp85
F1
s(S'NP'
S'ADVADVNMMP'
tp86
F1
s(g73
S'PDP'
tp87
F137
s(S'CP'
S'CDAAPP'
tp88
F2
s(S'VP'
p89
S'VNNNNP'
tp90
F1
s(S'CP'
S'CDADVADVPPP'
tp91
F1
s(S'DP'
p92
S'ADVADNNP'
tp93
F1
s(S'PP'
p94
S'PADVPP'
tp95
F2
s(S'VP'
S'AAVPP'
tp96
F1
s(S'PP'
p97
S'PPADVAP'
tp98
F1
s(S'NP'
p99
S'ADVNACP'
tp100
F2
s(S'PP'
p101
S'ADVADVAPVP'
tp102
F1
s(S'DP'
p103
S'DPPPP'
tp104
F9
s(S'PP'
p105
S'PADVADP'
tp106
F1
s(S'NP'
p107
S'NACP'
tp108
F9
s(S'AP'
S'ADVAVP'
tp109
F3
s(g79
S'NCCP'
tp110
F32
s(S'DP'
S'DADVADVVVP'
tp111
F2
s(S'AP'
S'ADVAVVVP'
tp112
F1
s(S'NP'
p113
S'NNCP'
tp114
F35
s(S'DP'
p115
S'ADVDDPP'
tp116
F6
s(S'DP'
S'DDDDP'
tp117
F1
s(S'VP'
p118
S'AVNP'
tp119
F9
s(S'PP'
p120
S'ADVPVVP'
tp121
F1
s(S'PP'
S'ADVAPDP'
tp122
F1
s(S'VP'
S'VADVVP'
tp123
F3
s(S'VP'
p124
S'ADVADVADVVNP'
tp125
F1
s(S'NP'
S'ANADVVP'
tp126
F1
s(S'PP'
S'ADVAPVP'
tp127
F1
s(S'NP'
S'NCCCCP'
tp128
F1
s(S'CP'
S'CCCDP'
tp129
F1
s(S'VP'
p130
S'ADVVAP'
tp131
F3
s(S'VP'
p132
S'VCCCP'
tp133
F1
s(S'PP'
p134
S'APDP'
tp135
F13
s(S'VP'
S'VADVNNP'
tp136
F2
s(g26
S'ADVNPPP'
tp137
F2
s(S'VP'
S'VVANP'
tp138
F2
s(S'PP'
p139
S'ADVPNNP'
tp140
F2
s(S'AP'
S'AANP'
tp141
F1
s(S'DP'
p142
S'DAAP'
tp143
F3
s(g97
S'PAAP'
tp144
F14
s(S'PP'
p145
S'ADVADVPAVP'
tp146
F1
s(g18
S'DNNP'
tp147
F32
s(S'CP'
p148
S'CADVDDPP'
tp149
F4
s(S'CP'
S'CCADVDP'
tp150
F2
s(S'VP'
p151
S'VVNNNP'
tp152
F1
s(S'DP'
S'ADDNP'
tp153
F1
s(S'NP'
p154
S'NNNVP'
tp155
F2
s(S'VP'
p156
S'VDP'
tp157
F125
s(g145
S'AAPPDP'
tp158
F1
s(S'PP'
S'PADVVP'
tp159
F8
s(S'DP'
S'DADVADVADVPPP'
tp160
F1
s(S'PP'
S'ADVAPNNP'
tp161
F1
s(S'AP'
p162
S'APP'
tp163
F36
s(S'NP'
S'NADVMP'
tp164
F2
s(S'AP'
p165
S'AAP'
tp166
F7
s(S'CP'
S'CADVADPP'
tp167
F2
s(S'AP'
S'AAADVDDP'
tp168
F1
s(S'NP'
p169
S'ADVANPP'
tp170
F1
s(S'VP'
p171
S'VVVVPP'
tp172
F1
s(S'PP'
S'PAANP'
tp173
F2
s(g45
S'DDADVADVVP'
tp174
F1
s(S'PP'
p175
S'PPPDDDP'
tp176
F1
s(S'NP'
S'ANVP'
tp177
F10
s(S'MP'
p178
S'MVNP'
tp179
F13
s(S'AP'
S'AADVCCP'
tp180
F1
s(S'CP'
S'CDDDPPP'
tp181
F1
s(S'DP'
S'ADVADNP'
tp182
F1
s(S'PP'
S'PAVP'
tp183
F7
s(S'CP'
S'CDADVADVPP'
tp184
F2
s(S'PP'
p185
S'ADVADVPPVP'
tp186
F1
s(S'VP'
S'VVVPP'
tp187
F3
s(g13
S'VVADVAPP'
tp188
F1
s(S'PP'
S'APPPP'
tp189
F1
s(S'AP'
S'ADVADP'
tp190
F6
s(S'CP'
p191
S'ADVADVCDP'
tp192
F2
s(S'PP'
p193
S'APDDP'
tp194
F1
s(S'MP'
p195
S'MAANP'
tp196
F1
s(g10
S'ADVAAVP'
tp197
F1
s(g55
S'VAP'
tp198
F89
s(S'VP'
p199
S'ADVVNP'
tp200
F6
s(S'VP'
p201
S'VVNP'
tp202
F30
s(S'PP'
p203
S'PPVP'
tp204
F33
s(g130
S'VVCCCCP'
tp205
F1
s(S'VP'
S'VADVDP'
tp206
F2
s(S'DP'
p207
S'DDDPP'
tp208
F2
s(S'VP'
p209
S'VAAP'
tp210
F12
s(S'NP'
S'ANDP'
tp211
F9
s(S'NP'
p212
S'NVVP'
tp213
F45
s(S'PP'
S'AAPVP'
tp214
F3
s(S'VP'
S'VMP'
tp215
F5
s(S'NP'
p216
S'ANNAP'
tp217
F1
s(g156
S'VVNNP'
tp218
F9
s(S'CP'
S'CDAPP'
tp219
F16
s(g60
S'VVAAP'
tp220
F1
s(S'DP'
p221
S'ADVADVDDVP'
tp222
F1
s(S'VP'
S'ADVADVVVNNP'
tp223
F1
s(S'DP'
p224
S'ADNP'
tp225
F13
s(S'NP'
p226
S'ADVNNPP'
tp227
F1
s(S'PP'
S'PADP'
tp228
F15
s(S'DP'
S'ADVADVDVP'
tp229
F1
s(S'DP'
p230
S'DADVAP'
tp231
F4
s(g115
S'DAPP'
tp232
F24
s(S'MP'
p233
S'MVVCP'
tp234
F2
s(S'NP'
p235
S'NNNADVDDP'
tp236
F1
s(g60
S'VADVAAP'
tp237
F1
s(g221
S'DDDAP'
tp238
F1
s(S'PP'
S'PPPDP'
tp239
F1
s(S'DP'
p240
S'DAAPPP'
tp241
F1
s(S'MP'
p242
S'MVVAP'
tp243
F1
s(S'DP'
S'ADVDNP'
tp244
F2
s(g209
S'VVPP'
tp245
F26
s(S'VP'
p246
S'VADVAPP'
tp247
F1
s(S'MP'
S'MVPP'
tp248
F7
s(S'DP'
p249
S'ADVP'
tp250
F6
s(S'CP'
S'CDDPPP'
tp251
F5
s(S'MP'
S'ADVMVVP'
tp252
F1
s(S'PP'
p253
S'AAPMP'
tp254
F1
s(S'NP'
p255
S'NNPP'
tp256
F25
s(S'DP'
S'DDDDNP'
tp257
F1
s(S'DP'
p258
S'DADVPPP'
tp259
F4
s(g37
S'PPVVP'
tp260
F4
s(g45
S'DNNNP'
tp261
F3
s(S'MP'
S'MPPDP'
tp262
F1
s(g224
S'ADVDDVP'
tp263
F2
s(S'NP'
p264
S'ANAP'
tp265
F2
s(g94
S'PMMP'
tp266
F3
s(S'PP'
p267
S'PVVVP'
tp268
F1
s(S'PP'
S'PMP'
tp269
F6
s(S'CP'
S'CCDP'
tp270
F45
s(S'NP'
S'ANNDP'
tp271
F1
s(g156
S'VADVANP'
tp272
F3
s(g151
S'ADVAVVP'
tp273
F2
s(g33
S'NVVVP'
tp274
F13
s(S'PP'
p275
S'PPADVVP'
tp276
F2
s(g199
S'VVVDP'
tp277
F6
s(S'CP'
S'CCCCDP'
tp278
F3
s(S'VP'
S'VVVVCP'
tp279
F2
s(S'PP'
p280
S'AAPNP'
tp281
F1
s(S'PP'
S'PADVVVP'
tp282
F1
s(S'PP'
p283
S'PPP'
tp284
F88
s(g79
S'NNVVP'
tp285
F7
s(S'NP'
S'NAVP'
tp286
F13
s(S'PP'
S'PADVAP'
tp287
F3
s(S'PP'
S'PADDP'
tp288
F4
s(S'DP'
S'ADVDVP'
tp289
F2
s(g249
S'DADVADVPPP'
tp290
F2
s(S'AP'
S'AADVVP'
tp291
F1
s(S'MP'
S'MVVVVDP'
tp292
F1
s(S'AP'
S'AAADVCP'
tp293
F1
s(g124
S'VPP'
tp294
F98
s(S'CP'
S'ADVCCDP'
tp295
F3
s(S'DP'
p296
S'ADVDDPPP'
tp297
F1
s(S'DP'
S'ADVDDNP'
tp298
F1
s(g99
S'NNNCP'
tp299
F2
s(g134
S'PADVDP'
tp300
F6
s(S'CP'
S'CDADVAPP'
tp301
F1
s(S'DP'
S'DANNP'
tp302
F1
s(g22
S'CDDPP'
tp303
F33
s(S'DP'
S'DAAPP'
tp304
F2
s(S'PP'
p305
S'PVVP'
tp306
F18
s(S'CP'
S'CADPPP'
tp307
F3
s(S'AP'
S'AACP'
tp308
F5
s(S'VP'
S'ADVVCP'
tp309
F2
s(g209
S'VPPP'
tp310
F18
s(S'VP'
p311
S'AVCCP'
tp312
F1
s(S'VP'
S'VVPPP'
tp313
F4
s(g305
S'PPAP'
tp314
F3
s(g29
S'DVVP'
tp315
F25
s(S'VP'
S'VVVADVAP'
tp316
F1
s(S'CP'
S'ADVACDDP'
tp317
F1
s(S'NP'
S'ANMP'
tp318
F1
s(S'AP'
S'APPP'
tp319
F3
s(g15
S'ADVPPP'
tp320
F4
s(S'NP'
S'ADVADVNVP'
tp321
F2
s(S'VP'
S'VVVP'
tp322
F5
s(S'CP'
p323
S'CADVDPP'
tp324
F4
s(S'PP'
S'PPDDDP'
tp325
F1
s(g52
S'ANCP'
tp326
F19
s(S'VP'
S'VADVADVACP'
tp327
F1
s(g58
S'NNMMMMMP'
tp328
F1
s(g18
S'DCP'
tp329
F7
s(S'MP'
S'MVVPPP'
tp330
F1
s(g142
S'DADVCP'
tp331
F1
s(S'NP'
p332
S'NNADVAMP'
tp333
F1
s(S'DP'
p334
S'DDDP'
tp335
F3
s(S'DP'
S'DDADVPP'
tp336
F3
s(S'MP'
S'MAADP'
tp337
F1
s(S'NP'
S'ANVVP'
tp338
F3
s(g82
S'NVVVVP'
tp339
F3
s(S'NP'
S'NPPP'
tp340
F18
s(g92
S'ADDDP'
tp341
F1
s(S'DP'
S'DAVP'
tp342
F7
s(S'DP'
S'DDADVADVPP'
tp343
F1
s(S'AP'
S'ACP'
tp344
F25
s(g169
S'NDDDDP'
tp345
F1
s(S'PP'
S'ADVPNNNP'
tp346
F1
s(g203
S'PPNP'
tp347
F35
s(g296
S'ADVDAPP'
tp348
F2
s(S'DP'
S'AADVP'
tp349
F1
s(S'CP'
S'CDDADVPP'
tp350
F2
s(S'CP'
S'CCCDDP'
tp351
F2
s(S'AP'
S'ADP'
tp352
F87
s(S'AP'
S'ADVAADDP'
tp353
F1
s(S'VP'
p354
S'VVPPPP'
tp355
F1
s(g89
S'ADVADVVNNP'
tp356
F1
s(S'VP'
S'AVDP'
tp357
F13
s(g26
S'ANNVP'
tp358
F1
s(g171
S'VVAP'
tp359
F7
s(S'NP'
S'NNAPP'
tp360
F1
s(S'VP'
S'VADVADVADVPP'
tp361
F1
s(g191
S'ADVACDP'
tp362
F1
s(S'MP'
S'MPNP'
tp363
F1
s(g79
S'NPP'
tp364
F121
s(g255
S'NNNP'
tp365
F1
s(g79
S'NVP'
tp366
F135
s(S'VP'
S'VVVADVADVCCP'
tp367
F1
s(S'NP'
S'NAAPP'
tp368
F1
s(S'NP'
S'ADVNAP'
tp369
F1
s(S'VP'
S'VDDP'
tp370
F22
s(S'VP'
S'AVANNP'
tp371
F1
s(S'MP'
S'MVADVADVACP'
tp372
F1
s(S'DP'
S'DADVAPP'
tp373
F1
s(S'PP'
p374
S'ADVAPAP'
tp375
F1
s(S'NP'
S'NADVADVVVP'
tp376
F1
s(g113
S'ANPP'
tp377
F14
s(g134
S'ADVPPDP'
tp378
F3
s(g139
S'PPPPP'
tp379
F6
s(g195
S'MPDP'
tp380
F2
s(S'MP'
S'MVVPP'
tp381
F4
s(S'AP'
S'AAAAAP'
tp382
F1
s(S'PP'
S'PPPNP'
tp383
F6
s(g207
S'DDDDDP'
tp384
F1
s(g226
S'NPPPP'
tp385
F1
s(S'AP'
p386
S'AADVADVDP'
tp387
F1
s(S'NP'
S'NADVAAP'
tp388
F1
s(S'CP'
S'CAADPP'
tp389
F2
s(g52
S'NAACP'
tp390
F2
s(g63
S'PNNP'
tp391
F37
s(g193
S'APNNP'
tp392
F2
s(S'MP'
S'MMNP'
tp393
F1
s(S'VP'
S'AVAP'
tp394
F1
s(S'MP'
S'MMVP'
tp395
F4
s(g73
S'PADVDDP'
tp396
F3
s(S'PP'
S'PCCP'
tp397
F1
s(g162
S'AADP'
tp398
F27
s(S'NP'
p399
S'NAPPP'
tp400
F1
s(g323
S'ACDP'
tp401
F17
s(g354
S'VCCP'
tp402
F5
s(S'AP'
S'ADVANP'
tp403
F1
s(S'CP'
p404
S'CDADVPPP'
tp405
F2
s(g18
S'ADVDDDP'
tp406
F1
s(S'VP'
S'ADVVADVNNP'
tp407
F1
s(S'VP'
p408
S'VVADVAP'
tp409
F2
s(g253
S'PAAPP'
tp410
F1
s(g242
S'MVVVDP'
tp411
F1
s(S'MP'
S'MAVPP'
tp412
F1
s(S'VP'
S'ADVADVVVAP'
tp413
F1
s(S'DP'
S'DDDPPP'
tp414
F1
s(S'DP'
S'ADAP'
tp415
F1
s(S'DP'
p416
S'DADVDP'
tp417
F3
s(S'VP'
S'ADVVVADVPP'
tp418
F1
s(g55
S'ADVVVDP'
tp419
F3
s(S'PP'
S'PPPVP'
tp420
F2
s(S'VP'
S'VAANP'
tp421
F3
s(S'NP'
p422
S'NADVADVCP'
tp423
F1
s(S'MP'
S'MADVADVADVVNP'
tp424
F1
s(g156
S'VVDP'
tp425
F30
s(g185
S'PADVADVPPP'
tp426
F1
s(S'MP'
S'MADP'
tp427
F1
s(S'AP'
S'AMMP'
tp428
F1
s(g233
S'ADVAMNP'
tp429
F1
s(S'DP'
p430
S'DDADVNP'
tp431
F1
s(S'PP'
p432
S'PANP'
tp433
F15
s(g296
S'AADNP'
tp434
F1
s(S'DP'
S'DADVADVNNP'
tp435
F1
s(g430
S'ADVADPP'
tp436
F2
s(S'CP'
S'CADVADVADVADVDPP'
tp437
F1
s(g99
S'AANMP'
tp438
F2
s(g386
S'AAVP'
tp439
F5
s(S'AP'
S'AVVP'
tp440
F5
s(g399
S'NDDP'
tp441
F10
s(g165
S'ACCP'
tp442
F3
s(S'VP'
p443
S'AVPPP'
tp444
F3
s(g79
S'NDP'
tp445
F72
s(S'VP'
S'VVADVADVCP'
tp446
F1
s(S'MP'
S'MVAAP'
tp447
F1
s(g29
S'DDVP'
tp448
F22
s(g332
S'AANVP'
tp449
F2
s(S'DP'
S'ADDVP'
tp450
F1
s(S'VP'
S'VNNNP'
tp451
F1
s(S'DP'
S'ADVDADVVP'
tp452
F1
s(S'AP'
S'ADVAAAVP'
tp453
F1
s(S'PP'
S'APPNP'
tp454
F1
s(S'VP'
p455
S'VADVADP'
tp456
F1
s(S'PP'
S'PAADP'
tp457
F2
s(S'NP'
S'ADVNNVP'
tp458
F2
s(g105
S'PPPVVP'
tp459
F1
s(S'PP'
S'PACP'
tp460
F1
s(S'AP'
S'ADVACP'
tp461
F5
s(g52
S'ADVADVNMP'
tp462
F1
s(g154
S'NNVP'
tp463
F31
s(g47
S'MVCP'
tp464
F4
s(S'CP'
p465
S'CCDDP'
tp466
F11
s(S'NP'
S'NAAP'
tp467
F4
s(S'DP'
S'DADVNP'
tp468
F7
s(S'NP'
S'NAAMP'
tp469
F1
s(g118
S'VVCP'
tp470
F10
s(g105
S'PADVADVPP'
tp471
F1
s(S'NP'
S'AANCP'
tp472
F3
s(S'VP'
p473
S'VADVNP'
tp474
F4
s(S'AP'
S'ADVAVVP'
tp475
F1
s(S'PP'
S'APPP'
tp476
F8
s(S'VP'
p477
S'ADVVPP'
tp478
F3
s(g55
S'VNNP'
tp479
F19
s(S'AP'
S'AADVDP'
tp480
F2
s(g235
S'NADP'
tp481
F3
s(g115
S'DDNP'
tp482
F35
s(S'CP'
S'ACADVDP'
tp483
F1
s(g332
S'NADVCP'
tp484
F6
s(S'DP'
S'DDNNP'
tp485
F7
s(S'NP'
S'ADVNCP'
tp486
F3
s(S'DP'
S'ADDADVVP'
tp487
F1
s(S'AP'
S'ADVADDP'
tp488
F1
s(S'DP'
S'AADPP'
tp489
F2
s(S'PP'
S'ADVADVPPDP'
tp490
F1
s(S'PP'
S'ADVPAP'
tp491
F1
s(S'MP'
S'MAVAP'
tp492
F1
s(S'VP'
p493
S'ADVADVADVVDDP'
tp494
F1
s(S'MP'
S'MVVNP'
tp495
F2
s(S'CP'
S'CDDADVPPP'
tp496
F2
s(S'DP'
S'ADVDNNP'
tp497
F1
s(S'CP'
S'ACDDP'
tp498
F1
s(g264
S'ADVADVNNCP'
tp499
F1
s(S'AP'
S'AADVADVDDP'
tp500
F1
s(S'AP'
S'AAPP'
tp501
F4
s(S'AP'
S'ADVADVACCP'
tp502
F1
s(g408
S'VVCCP'
tp503
F1
s(S'VP'
S'ADVADVVVAAP'
tp504
F1
s(S'DP'
S'DADVVVP'
tp505
F1
s(S'DP'
p506
S'DADVADVNP'
tp507
F1
s(S'NP'
S'NNPPP'
tp508
F1
s(g255
S'NAPP'
tp509
F7
s(S'PP'
S'APAP'
tp510
F1
s(g107
S'NADVDP'
tp511
F1
s(S'MP'
S'MVADVADVAP'
tp512
F1
s(g275
S'ADVPPPP'
tp513
F4
s(S'NP'
S'ANCCP'
tp514
F10
s(S'VP'
S'VDDDP'
tp515
F2
s(g212
S'NNMP'
tp516
F5
s(S'DP'
p517
S'DDDVP'
tp518
F1
s(g280
S'ADVADVPNNP'
tp519
F1
s(S'CP'
S'CDDAPP'
tp520
F2
s(g79
S'ADVANVVP'
tp521
F1
s(g35
S'MVAP'
tp522
F8
s(g73
S'PVP'
tp523
F129
s(S'VP'
p524
S'VADVPPP'
tp525
F1
s(g416
S'DADVAVP'
tp526
F2
s(S'MP'
p527
S'AAMVP'
tp528
F1
s(S'VP'
S'VVVVDP'
tp529
F1
s(S'MP'
S'ADVMVP'
tp530
F1
s(S'VP'
S'VADVCCP'
tp531
F1
s(S'NP'
p532
S'ADVNAVP'
tp533
F1
s(S'DP'
S'DVVVP'
tp534
F2
s(g120
S'PPADVPP'
tp535
F1
s(S'VP'
S'VCCCCP'
tp536
F1
s(g432
S'PPDDP'
tp537
F9
s(S'VP'
S'AVCP'
tp538
F2
s(S'DP'
S'DDVVVP'
tp539
F1
s(g105
S'ADVADVPDDP'
tp540
F1
s(g18
S'DPP'
tp541
F158
s(S'NP'
S'ADVNVP'
tp542
F2
s(S'DP'
S'DDDVVP'
tp543
F1
s(g18
S'DDPP'
tp544
F56
s(S'DP'
S'DDADVPPP'
tp545
F3
s(g230
S'DANP'
tp546
F35
s(S'AP'
S'ADVAMP'
tp547
F1
s(S'NP'
p548
S'NADVPP'
tp549
F2
s(S'NP'
p550
S'NAAVP'
tp551
F1
s(g15
S'PDDDP'
tp552
F1
s(g473
S'VADVCP'
tp553
F3
s(S'NP'
S'NNNNCP'
tp554
F1
s(S'NP'
S'NADVCCP'
tp555
F1
s(S'DP'
S'DDADVADVVVP'
tp556
F1
s(g67
S'PADVPPP'
tp557
F1
s(g41
S'MMMMMVP'
tp558
F1
s(S'DP'
S'DCCP'
tp559
F2
s(S'PP'
S'AAPDP'
tp560
F1
s(g35
S'MADVVDP'
tp561
F2
s(g283
S'PDDP'
tp562
F27
s(S'AP'
S'ADVADVAPPP'
tp563
F1
s(g305
S'ADVAPNP'
tp564
F2
s(S'DP'
S'ADPPP'
tp565
F5
s(S'PP'
S'ADVADVADVPNP'
tp566
F1
s(g532
S'NNP'
tp567
F1
s(g473
S'VVDDP'
tp568
F7
s(g77
S'DAANP'
tp569
F3
s(S'AP'
S'ADDP'
tp570
F14
s(S'NP'
S'ANNCP'
tp571
F1
s(S'VP'
S'ADVVVAP'
tp572
F1
s(g139
S'ADVPPNP'
tp573
F3
s(g493
S'VADVADVADVVP'
tp574
F1
s(S'MP'
S'MVVADVAP'
tp575
F1
s(g323
S'ADVADVADVCDP'
tp576
F1
s(g142
S'DPPP'
tp577
F57
s(g240
S'AADVVVP'
tp578
F1
s(g334
S'AADPPP'
tp579
F1
s(g455
S'VANNP'
tp580
F3
s(g532
S'NMMMP'
tp581
F1
s(S'PP'
S'PPPANP'
tp582
F1
s(S'PP'
S'ADVPNP'
tp583
F6
s(g432
S'PPDP'
tp584
F35
s(g506
S'ADVDDADVPP'
tp585
F1
s(S'PP'
S'PPADVDDP'
tp586
F1
s(S'AP'
S'AAAPP'
tp587
F2
s(S'MP'
S'MMAVP'
tp588
F2
s(S'NP'
S'NAP'
tp589
F36
s(S'NP'
S'NNAAP'
tp590
F1
s(g209
S'VAAAP'
tp591
F1
s(g311
S'AAVADVNP'
tp592
F1
s(S'VP'
S'ADVAVNP'
tp593
F1
s(g201
S'VVP'
tp594
F21
s(S'DP'
S'DDAPP'
tp595
F4
s(g175
S'ADVADVPVP'
tp596
F2
s(S'AP'
S'AAADP'
tp597
F3
s(g283
S'APNP'
tp598
F12
s(g524
S'VVVNNP'
tp599
F2
s(S'DP'
p600
S'DDVVP'
tp601
F4
s(S'CP'
S'CADVADVDPP'
tp602
F1
s(g473
S'VVVNP'
tp603
F7
s(S'MP'
S'MNPP'
tp604
F2
s(S'NP'
S'NAMP'
tp605
F1
s(S'MP'
S'MVANP'
tp606
F1
s(S'DP'
S'ADVADVDDPP'
tp607
F1
s(g178
S'MVNNP'
tp608
F2
s(g465
S'CDPP'
tp609
F139
s(S'AP'
S'ADDDP'
tp610
F1
s(S'CP'
p611
S'ADVCADP'
tp612
F1
s(S'DP'
S'ADVDVVP'
tp613
F1
s(S'MP'
S'MMMVP'
tp614
F1
s(g22
S'ADVCDP'
tp615
F11
s(g374
S'AAPVVP'
tp616
F1
s(g8
S'ADVADVVNP'
tp617
F1
s(S'NP'
S'NADVADVADVCP'
tp618
F1
s(S'PP'
S'PADVADVDP'
tp619
F1
s(g246
S'ADVADVVCP'
tp620
F1
s(g374
S'PPNNP'
tp621
F6
s(S'PP'
S'PPMP'
tp622
F1
s(S'DP'
S'ADVADVDPP'
tp623
F1
s(S'VP'
S'VAADP'
tp624
F1
s(g550
S'NADVAP'
tp625
F1
s(S'VP'
S'AVDDP'
tp626
F3
s(S'PP'
S'ADVADVPPNNP'
tp627
F1
s(g404
S'ADVADVCDDP'
tp628
F1
s(g142
S'DAP'
tp629
F21
s(S'CP'
S'CADPP'
tp630
F16
s(g517
S'ADVADVDVVP'
tp631
F1
s(g203
S'PPAVP'
tp632
F2
s(S'VP'
S'ADVADVVCCP'
tp633
F1
s(g524
S'AVPP'
tp634
F6
s(S'PP'
S'APNNNP'
tp635
F1
s(g130
S'VVADVDP'
tp636
F1
s(S'CP'
S'CDPPPP'
tp637
F4
s(S'DP'
S'ADVDAAPP'
tp638
F1
s(S'PP'
S'PANNP'
tp639
F1
s(S'NP'
S'ADVANMP'
tp640
F1
s(S'NP'
S'NNDDP'
tp641
F2
s(S'DP'
S'ADPPPP'
tp642
F1
s(S'VP'
S'ADVVADVAP'
tp643
F2
s(g39
S'DADVADVPP'
tp644
F3
s(S'DP'
S'DMP'
tp645
F7
s(S'DP'
S'ADVDPP'
tp646
F9
s(g212
S'NADVAPP'
tp647
F2
s(g101
S'PADVADVAPP'
tp648
F1
s(g283
S'PADVADVNP'
tp649
F3
s(g103
S'ADPP'
tp650
F22
s(S'NP'
p651
S'NNADVVVP'
tp652
F2
s(g151
S'ADVVADVADVPPPP'
tp653
F1
s(g132
S'VADVPP'
tp654
F3
s(g258
S'ADVDANP'
tp655
F1
s(S'CP'
S'CCADVDDP'
tp656
F1
s(S'CP'
S'ADVADVACDDP'
tp657
F1
s(g280
S'ADVPVP'
tp658
F4
s(S'NP'
S'NADVADVADVVVP'
tp659
F1
s(S'AP'
S'AADVAVP'
tp660
F1
s(g267
S'ADVADVPPPDP'
tp661
F1
s(S'NP'
S'NNVVVP'
tp662
F1
s(S'VP'
S'ADVVANP'
tp663
F2
s(S'PP'
S'ADVPDP'
tp664
F6
s(g216
S'ANNPP'
tp665
F2
s(S'MP'
S'MVADVAP'
tp666
F2
s(g52
S'NCP'
tp667
F126
s(S'CP'
S'CADVDPPP'
tp668
F3
s(g443
S'ADVVVPP'
tp669
F3
s(S'DP'
S'ADVVP'
tp670
F1
s(S'CP'
S'CDDADVADVPP'
tp671
F1
s(g548
S'AANDP'
tp672
F1
s(S'DP'
S'DADVNNP'
tp673
F1
s(S'NP'
S'NNCCP'
tp674
F5
s(S'MP'
S'MNVP'
tp675
F3
s(S'CP'
S'ADVADVCCDP'
tp676
F1
s(g477
S'VAPP'
tp677
F4
s(g527
S'MAVNP'
tp678
F1
s(g201
S'ADVVDP'
tp679
F10
s(S'MP'
S'MAVDP'
tp680
F1
s(g77
S'DADVPP'
tp681
F13
s(g162
S'AMP'
tp682
F6
s(g71
S'MADVVADVAP'
tp683
F1
s(S'AP'
S'ADVAPP'
tp684
F9
s(S'DP'
S'DDADVAPP'
tp685
F1
s(S'CP'
S'CDDADVAPP'
tp686
F1
s(g148
S'AACDP'
tp687
F2
s(g550
S'NNNCCP'
tp688
F1
s(S'CP'
S'CCDDDP'
tp689
F1
s(S'MP'
S'MADVADVVNNP'
tp690
F1
s(g600
S'ADVDPPP'
tp691
F4
s(g18
S'DVP'
tp692
F111
s(S'VP'
S'AVNNP'
tp693
F1
s(g82
S'ADVNPP'
tp694
F3
s(S'VP'
S'ADVADVADVVVNP'
tp695
F1
s(g422
S'NNCCCP'
tp696
F1
s(S'AP'
S'AVP'
tp697
F23
s(S'NP'
S'NADVVP'
tp698
F5
s(g651
S'NNADVADVVP'
tp699
F1
s(S'VP'
S'ADVVPPP'
tp700
F1
s(S'DP'
S'DDPPP'
tp701
F10
s(S'NP'
S'ADVNMP'
tp702
F2
s(g52
S'NNAP'
tp703
F9
s(S'PP'
S'PPANP'
tp704
F1
s(g611
S'CDADVPP'
tp705
F9
s(g156
S'VNP'
tp706
F124
s(g55
S'VANP'
tp707
F12
s(S'VP'
S'VADVAP'
tp708
F12
s(S'DP'
S'ADVADVADVADVDPP'
tp709
F1
s(S'VP'
S'ADVADVVVDP'
tp710
F1
s.