ccollections
defaultdict
p1
(c__builtin__
float
p2
tRp3
(S'DP'
p4
S'DDPP'
tp5
F2
s(S'DP'
S'DANP'
tp6
F1
s(S'VP'
p7
S'VVNP'
tp8
F2
s(S'PP'
S'PPVP'
tp9
F1
s(S'VP'
p10
S'VADVCP'
tp11
F1
s(S'PP'
p12
S'PAPP'
tp13
F1
s(S'PP'
p14
S'PADVNP'
tp15
F1
s(S'NP'
p16
S'NVVP'
tp17
F2
s(S'DP'
p18
S'DNP'
tp19
F5
s(g14
S'PNNP'
tp20
F1
s(S'NP'
p21
S'NCCP'
tp22
F1
s(S'CP'
p23
S'CDPPP'
tp24
F1
s(g4
S'ADNP'
tp25
F1
s(S'PP'
p26
S'PADP'
tp27
F1
s(g7
S'VVDDP'
tp28
F1
s(S'PP'
p29
S'PDDP'
tp30
F1
s(g23
S'ACDP'
tp31
F1
s(g4
S'DAPP'
tp32
F1
s(S'VP'
p33
S'VAP'
tp34
F4
s(S'VP'
p35
S'ADVVNP'
tp36
F1
s(g4
S'DDDPP'
tp37
F1
s(g4
S'ADVADPP'
tp38
F1
s(g33
S'ADVVVDP'
tp39
F1
s(S'DP'
p40
S'DPPP'
tp41
F2
s(S'DP'
S'ADVADVDDPPP'
tp42
F1
s(g7
S'VCP'
tp43
F1
s(g29
S'PAP'
tp44
F2
s(g29
S'PPDP'
tp45
F3
s(g21
S'NMP'
tp46
F1
s(g14
S'PNP'
tp47
F6
s(S'VP'
S'VCCP'
tp48
F1
s(g16
S'NDDP'
tp49
F1
s(S'CP'
p50
S'CCDP'
tp51
F2
s(S'DP'
p52
S'ADVADVADVDPP'
tp53
F1
s(g21
S'NAP'
tp54
F1
s(S'AP'
p55
S'ACCP'
tp56
F1
s(S'CP'
p57
S'CDDDPP'
tp58
F1
s(S'NP'
p59
S'NDP'
tp60
F3
s(g12
S'PNNNP'
tp61
F1
s(g29
S'PVP'
tp62
F4
s(g10
S'VVP'
tp63
F1
s(g40
S'DDVP'
tp64
F1
s(g14
S'PDP'
tp65
F5
s(g21
S'ANDP'
tp66
F1
s(g26
S'APNP'
tp67
F1
s(g26
S'PPP'
tp68
F2
s(g16
S'NAVP'
tp69
F1
s(g12
S'PCP'
tp70
F2
s(S'CP'
S'CDPP'
tp71
F4
s(g23
S'ADVCADP'
tp72
F1
s(g33
S'VPP'
tp73
F3
s(S'NP'
p74
S'NACP'
tp75
F1
s(S'AP'
p76
S'ADVACP'
tp77
F1
s(S'NP'
p78
S'NNVP'
tp79
F1
s(g16
S'NNCP'
tp80
F1
s(g40
S'ADVDDPP'
tp81
F1
s(g76
S'ACP'
tp82
F1
s(g50
S'CDDPP'
tp83
F1
s(g7
S'AVDDP'
tp84
F1
s(g4
S'DAP'
tp85
F1
s(g57
S'CADPP'
tp86
F1
s(S'PP'
S'ADVPVVP'
tp87
F1
s(g10
S'VDP'
tp88
F4
s(g4
S'DVVP'
tp89
F1
s(g4
S'DDNP'
tp90
F1
s(g4
S'DDNNP'
tp91
F1
s(g29
S'APDP'
tp92
F2
s(g40
S'ADPP'
tp93
F2
s(g78
S'NNADVVVP'
tp94
F1
s(g52
S'DDADVPP'
tp95
F1
s(g7
S'VVDP'
tp96
F1
s(g59
S'NPPP'
tp97
F2
s(g18
S'DNNP'
tp98
F2
s(g23
S'CADVDDPP'
tp99
F1
s(g78
S'NCP'
tp100
F5
s(g52
S'DADVADVADVDP'
tp101
F1
s(g26
S'PPNP'
tp102
F1
s(S'NP'
p103
S'NNNVP'
tp104
F1
s(S'CP'
S'CDDADVPP'
tp105
F1
s(S'AP'
S'ADP'
tp106
F4
s(g74
S'NAPP'
tp107
F1
s(g55
S'APP'
tp108
F1
s(g57
S'CADVADPP'
tp109
F1
s(S'CP'
S'CADVADVDDPPP'
tp110
F1
s(g103
S'ANVP'
tp111
F1
s(g35
S'VVAP'
tp112
F1
s(S'MP'
S'MVAP'
tp113
F1
s(g40
S'DVP'
tp114
F5
s(S'AP'
S'AVP'
tp115
F1
s(g4
S'DDPPP'
tp116
F1
s(g78
S'NPP'
tp117
F5
s(g74
S'NVP'
tp118
F3
s(g10
S'VNP'
tp119
F4
s(g35
S'VANP'
tp120
F1
s(g7
S'VDDP'
tp121
F1
s(g7
S'VADVAP'
tp122
F1
s(g18
S'DPP'
tp123
F6
s(g78
S'ADVNVP'
tp124
F1
s.