ccollections
defaultdict
p1
(c__builtin__
float
p2
tRp3
(S'DP'
S'ADDPP'
tp4
F1
s(S'DP'
p5
S'DDAP'
tp6
F4
s(S'VP'
p7
S'ADVVVNP'
tp8
F1
s(S'AP'
p9
S'AADDDP'
tp10
F2
s(S'PP'
S'ADVADVADVPPVP'
tp11
F1
s(S'VP'
S'VVVVP'
tp12
F1
s(S'PP'
p13
S'PAPP'
tp14
F8
s(S'PP'
p15
S'PADVNP'
tp16
F12
s(S'DP'
p17
S'DNP'
tp18
F175
s(S'NP'
p19
S'ADVNDP'
tp20
F2
s(S'NP'
S'NNNAAP'
tp21
F1
s(S'CP'
p22
S'CDPPP'
tp23
F51
s(g7
S'VADP'
tp24
F12
s(S'DP'
S'DNNNNP'
tp25
F1
s(S'CP'
S'ACADVADVDP'
tp26
F2
s(S'DP'
p27
S'DAAP'
tp28
F2
s(S'VP'
S'VAVP'
tp29
F3
s(S'DP'
p30
S'ADNNP'
tp31
F6
s(S'VP'
S'AVADVDP'
tp32
F1
s(S'VP'
S'ADVVNP'
tp33
F9
s(S'MP'
S'MVDP'
tp34
F5
s(S'PP'
p35
S'PADVANP'
tp36
F1
s(S'PP'
p37
S'PPPP'
tp38
F38
s(S'DP'
S'DDDNP'
tp39
F4
s(S'VP'
p40
S'VACP'
tp41
F5
s(S'AP'
S'AAAVP'
tp42
F1
s(S'DP'
p43
S'DADVVP'
tp44
F5
s(S'MP'
S'MMCP'
tp45
F1
s(S'PP'
S'PADVNNP'
tp46
F1
s(S'AP'
S'AADVPP'
tp47
F1
s(S'NP'
S'NADVACP'
tp48
F1
s(S'NP'
S'NDDDP'
tp49
F1
s(S'NP'
p50
S'NADVVVP'
tp51
F2
s(S'CP'
S'CADVADVDDPP'
tp52
F1
s(S'VP'
p53
S'VCP'
tp54
F88
s(g19
S'NMMP'
tp55
F2
s(S'NP'
S'ADVADVNNCCP'
tp56
F1
s(S'VP'
p57
S'ADVVAAP'
tp58
F2
s(S'DP'
S'DDDNNP'
tp59
F1
s(S'PP'
p60
S'ADVPADP'
tp61
F1
s(S'PP'
p62
S'PAP'
tp63
F84
s(S'VP'
S'VADVADVAP'
tp64
F1
s(S'PP'
S'ADVPPVP'
tp65
F2
s(S'NP'
p66
S'ADVADVADVADVNMP'
tp67
F1
s(S'NP'
p68
S'ANPPP'
tp69
F2
s(S'PP'
p70
S'PPADVDP'
tp71
F1
s(S'VP'
S'VADVANP'
tp72
F1
s(g37
S'PNP'
tp73
F173
s(S'NP'
S'NNNNPP'
tp74
F1
s(S'VP'
p75
S'AVNNNP'
tp76
F1
s(g17
S'DDP'
tp77
F46
s(S'VP'
S'ADVVDDP'
tp78
F2
s(S'NP'
S'NNNPP'
tp79
F1
s(S'VP'
p80
S'VCCP'
tp81
F11
s(S'MP'
S'MCDP'
tp82
F2
s(S'DP'
p83
S'DADVDDP'
tp84
F1
s(S'MP'
S'MNAP'
tp85
F2
s(g50
S'NMP'
tp86
F29
s(S'PP'
p87
S'PPMMP'
tp88
F1
s(S'VP'
p89
S'AVADVPP'
tp90
F1
s(S'VP'
S'AAVNP'
tp91
F4
s(g62
S'PDP'
tp92
F174
s(S'CP'
S'CCADVADVDP'
tp93
F2
s(S'CP'
p94
S'CDAAPP'
tp95
F3
s(S'NP'
S'ADVNVVP'
tp96
F1
s(g66
S'NNADVMP'
tp97
F1
s(S'DP'
p98
S'ADVADVDAPP'
tp99
F1
s(S'AP'
S'ANP'
tp100
F1
s(S'PP'
S'ADVPAAP'
tp101
F1
s(S'PP'
p102
S'PADVPP'
tp103
F7
s(S'NP'
S'NNADVCP'
tp104
F2
s(S'VP'
S'VVADVNP'
tp105
F1
s(g75
S'VVDDP'
tp106
F1
s(g17
S'DPPPP'
tp107
F5
s(S'DP'
p108
S'DDANP'
tp109
F4
s(S'NP'
p110
S'NACP'
tp111
F15
s(S'AP'
p112
S'ADVAVP'
tp113
F1
s(S'NP'
p114
S'NCCP'
tp115
F45
s(S'CP'
p116
S'CDADVADVADVPPP'
tp117
F1
s(S'AP'
S'AAAADP'
tp118
F1
s(S'NP'
S'NADVADVDDP'
tp119
F1
s(S'NP'
p120
S'NNCP'
tp121
F42
s(g43
S'ADVDDPP'
tp122
F6
s(S'NP'
S'NADVADVVP'
tp123
F2
s(S'NP'
S'NNPPPP'
tp124
F1
s(S'DP'
p125
S'DDDDP'
tp126
F3
s(S'DP'
S'DDAPP'
tp127
F1
s(g7
S'AVNP'
tp128
F10
s(S'VP'
p129
S'VVADP'
tp130
F2
s(S'NP'
p131
S'NADVADVPP'
tp132
F1
s(S'MP'
S'MAPP'
tp133
F1
s(g102
S'ADVPVVP'
tp134
F3
s(S'VP'
p135
S'VVADVCP'
tp136
F1
s(S'VP'
S'ADVADVVVADVAP'
tp137
F1
s(S'NP'
S'ANADVAPP'
tp138
F1
s(g40
S'VVMP'
tp139
F2
s(g89
S'VADVVP'
tp140
F1
s(S'CP'
S'CCCDP'
tp141
F5
s(S'VP'
p142
S'AVNNP'
tp143
F2
s(S'PP'
S'ADVPPNNP'
tp144
F2
s(S'VP'
S'VCCCP'
tp145
F2
s(g62
S'APDP'
tp146
F20
s(S'NP'
S'ADVNPPP'
tp147
F1
s(S'VP'
S'VVANP'
tp148
F2
s(S'NP'
S'ADVADVNPPP'
tp149
F1
s(S'NP'
S'ADVADVNNPP'
tp150
F2
s(S'NP'
p151
S'ADVNCP'
tp152
F14
s(g35
S'PAAP'
tp153
F13
s(S'NP'
p154
S'ADVANCP'
tp155
F2
s(g17
S'DNNP'
tp156
F57
s(S'CP'
S'CADVDDPP'
tp157
F2
s(S'DP'
S'DPPPPP'
tp158
F1
s(S'CP'
S'CDDPPPP'
tp159
F2
s(S'CP'
S'CCADVDP'
tp160
F3
s(S'VP'
S'AAVDDP'
tp161
F1
s(g120
S'NNNVP'
tp162
F3
s(g135
S'VADVNNP'
tp163
F1
s(S'PP'
S'PPNNNNP'
tp164
F1
s(g13
S'PADVVP'
tp165
F8
s(S'DP'
S'DACP'
tp166
F1
s(S'DP'
p167
S'DADVADVADVPPP'
tp168
F1
s(S'PP'
S'APAP'
tp169
F4
s(S'AP'
p170
S'APP'
tp171
F32
s(S'NP'
S'NADVMP'
tp172
F1
s(S'AP'
p173
S'AAP'
tp174
F3
s(S'CP'
S'CADVADPP'
tp175
F2
s(S'NP'
S'ADVADVNDP'
tp176
F1
s(S'NP'
S'ADVANPP'
tp177
F1
s(S'MP'
S'MVVCP'
tp178
F1
s(S'DP'
S'DAAVP'
tp179
F2
s(S'PP'
S'PAANP'
tp180
F2
s(S'VP'
S'VADVADVCP'
tp181
F1
s(S'DP'
p182
S'ADVDVP'
tp183
F2
s(S'PP'
p184
S'PPVVP'
tp185
F5
s(S'VP'
S'VAACP'
tp186
F1
s(S'NP'
S'ADVADVADVADVNNPP'
tp187
F1
s(S'MP'
S'MVNP'
tp188
F9
s(S'DP'
S'ADVADNP'
tp189
F2
s(g15
S'PAVP'
tp190
F17
s(S'MP'
S'ADVMVP'
tp191
F2
s(S'PP'
p192
S'ADVADVPPVP'
tp193
F1
s(S'AP'
S'AAADVADVDDP'
tp194
F1
s(S'PP'
S'APPPP'
tp195
F2
s(g43
S'DADP'
tp196
F2
s(S'AP'
S'ADVADP'
tp197
F5
s(S'CP'
p198
S'ADVADVCDP'
tp199
F5
s(S'PP'
p200
S'APDDP'
tp201
F2
s(S'VP'
S'ADVADVVVNP'
tp202
F1
s(S'NP'
S'ADVNAP'
tp203
F1
s(S'PP'
S'PPCP'
tp204
F1
s(g192
S'APVP'
tp205
F12
s(S'MP'
S'MNCP'
tp206
F2
s(S'VP'
p207
S'VVNP'
tp208
F22
s(S'PP'
p209
S'PPVP'
tp210
F38
s(g80
S'VADVDP'
tp211
F7
s(g207
S'VAAP'
tp212
F20
s(S'PP'
S'PADVADVADVADVNNP'
tp213
F1
s(g131
S'ANDP'
tp214
F5
s(S'NP'
p215
S'NVVP'
tp216
F35
s(S'PP'
S'AAPVP'
tp217
F1
s(S'PP'
S'PPADP'
tp218
F1
s(S'VP'
S'VMP'
tp219
F3
s(g89
S'VVNNP'
tp220
F3
s(S'CP'
S'CDAPP'
tp221
F20
s(S'VP'
S'VVAAP'
tp222
F4
s(S'DP'
S'ADVADVDDVP'
tp223
F2
s(S'DP'
p224
S'ADNP'
tp225
F18
s(S'NP'
p226
S'AANPP'
tp227
F4
s(g198
S'ACCDP'
tp228
F2
s(g62
S'PADP'
tp229
F30
s(S'VP'
S'ADVVVCP'
tp230
F2
s(S'DP'
p231
S'ADVADVADVADVDNP'
tp232
F1
s(S'DP'
S'DADVAP'
tp233
F3
s(S'NP'
p234
S'AADVNACP'
tp235
F1
s(g224
S'DAPP'
tp236
F34
s(S'VP'
S'AVVP'
tp237
F1
s(S'MP'
S'MAAVDP'
tp238
F1
s(g135
S'ADVADVADVVDP'
tp239
F1
s(S'VP'
S'ADVADVVDP'
tp240
F2
s(S'PP'
S'PPPDP'
tp241
F1
s(g112
S'AAPPP'
tp242
F1
s(S'PP'
S'PPMMMP'
tp243
F1
s(g7
S'VAAPP'
tp244
F1
s(g5
S'ADVDNP'
tp245
F8
s(g70
S'ADVPPCCP'
tp246
F1
s(g89
S'VVPP'
tp247
F13
s(S'CP'
p248
S'AACDDP'
tp249
F1
s(S'MP'
p250
S'MVPP'
tp251
F4
s(g17
S'ADVP'
tp252
F6
s(S'MP'
S'MVADP'
tp253
F1
s(S'VP'
S'VADVADVNNP'
tp254
F1
s(S'MP'
S'MDDNP'
tp255
F1
s(g50
S'NNPP'
tp256
F18
s(g22
S'CAADPPPP'
tp257
F1
s(S'MP'
S'MVVDP'
tp258
F1
s(S'AP'
S'AACP'
tp259
F13
s(g131
S'ANVP'
tp260
F12
s(g30
S'DNNNP'
tp261
F3
s(g135
S'ADVVAACP'
tp262
F1
s(g17
S'ADVDDVP'
tp263
F2
s(g15
S'PADVADVVP'
tp264
F3
s(S'VP'
S'VADVDDP'
tp265
F1
s(S'PP'
S'PMMP'
tp266
F1
s(S'PP'
S'PVVVP'
tp267
F1
s(g209
S'PMP'
tp268
F16
s(g19
S'NNMMP'
tp269
F3
s(S'PP'
S'PADVADVADVVP'
tp270
F1
s(g248
S'CCDP'
tp271
F67
s(S'NP'
S'ANNDP'
tp272
F1
s(S'DP'
S'ADVADVADVDPP'
tp273
F1
s(g250
S'AMVP'
tp274
F4
s(S'NP'
p275
S'ADVADVADVNCP'
tp276
F1
s(S'DP'
S'AADDPP'
tp277
F1
s(S'AP'
S'AAACP'
tp278
F1
s(S'NP'
p279
S'NVVVP'
tp280
F1
s(S'CP'
S'CDDDPP'
tp281
F4
s(S'PP'
S'PADVADVADVADVNP'
tp282
F1
s(S'CP'
S'CDADVADVPP'
tp283
F2
s(S'VP'
p284
S'VVVDP'
tp285
F6
s(S'PP'
p286
S'PNNNP'
tp287
F2
s(S'CP'
S'CCCCDP'
tp288
F1
s(g170
S'AACCP'
tp289
F3
s(g37
S'AAPNP'
tp290
F3
s(g70
S'PPP'
tp291
F122
s(g114
S'NAVP'
tp292
F11
s(g224
S'ADVADVDDNP'
tp293
F1
s(S'DP'
S'DDNNNP'
tp294
F1
s(S'VP'
S'VVVANP'
tp295
F1
s(S'NP'
p296
S'NCCCP'
tp297
F4
s(S'DP'
S'DADVADVPPP'
tp298
F2
s(S'AP'
S'AADVVP'
tp299
F1
s(S'PP'
p300
S'PPPPDP'
tp301
F1
s(S'DP'
p302
S'ADVADVDNP'
tp303
F2
s(S'VP'
p304
S'VPP'
tp305
F94
s(S'MP'
S'ADVADVMVP'
tp306
F1
s(S'DP'
p307
S'ADVDDNP'
tp308
F3
s(S'NP'
S'NNNCP'
tp309
F1
s(g15
S'PADVDP'
tp310
F4
s(S'PP'
S'PPPAAVP'
tp311
F1
s(g22
S'CDDPP'
tp312
F51
s(S'DP'
p313
S'DAAPP'
tp314
F5
s(g37
S'PVVP'
tp315
F21
s(S'CP'
p316
S'CADPPP'
tp317
F4
s(g27
S'DADVPPP'
tp318
F6
s(g89
S'ADVVCP'
tp319
F9
s(g304
S'VPPP'
tp320
F12
s(S'VP'
p321
S'VVPPP'
tp322
F2
s(g209
S'PPAP'
tp323
F6
s(S'DP'
S'DVVP'
tp324
F32
s(S'PP'
S'PADVAVP'
tp325
F1
s(S'CP'
S'ADVACDDP'
tp326
F1
s(g170
S'APPP'
tp327
F5
s(g37
S'ADVPPP'
tp328
F5
s(S'NP'
S'ADVADVNVP'
tp329
F1
s(S'VP'
S'VVVP'
tp330
F7
s(S'CP'
S'CADVDPP'
tp331
F11
s(S'NP'
p332
S'ADVADVNNVP'
tp333
F2
s(g19
S'ANCP'
tp334
F20
s(g313
S'DCP'
tp335
F27
s(g43
S'DADVADVADVNP'
tp336
F2
s(S'NP'
S'NNVVVVP'
tp337
F1
s(g60
S'ADVADVADVPPNP'
tp338
F1
s(g307
S'DDDP'
tp339
F11
s(S'AP'
S'ADDDDP'
tp340
F1
s(g224
S'DDADVPP'
tp341
F4
s(S'NP'
S'ANNVVP'
tp342
F1
s(g279
S'ANVVP'
tp343
F2
s(g304
S'VVDP'
tp344
F37
s(g50
S'NPPP'
tp345
F28
s(S'PP'
p346
S'PPAPP'
tp347
F1
s(g226
S'ANCCCCP'
tp348
F1
s(g108
S'DAVP'
tp349
F13
s(S'VP'
S'ADVADVADVADVVNP'
tp350
F1
s(S'AP'
p351
S'ACP'
tp352
F49
s(g60
S'AAPAP'
tp353
F2
s(S'PP'
p354
S'PADVADVNNP'
tp355
F3
s(g62
S'PPNP'
tp356
F29
s(S'MP'
S'MACP'
tp357
F1
s(S'CP'
S'CDDADVPP'
tp358
F2
s(S'CP'
S'CCCDDP'
tp359
F1
s(g170
S'ADP'
tp360
F119
s(S'PP'
p361
S'APMP'
tp362
F1
s(g5
S'DDAVP'
tp363
F4
s(S'NP'
S'ADVADVADVADVNNCP'
tp364
F1
s(g207
S'AVDP'
tp365
F22
s(S'VP'
p366
S'VVAP'
tp367
F13
s(S'PP'
S'PPAAAAP'
tp368
F1
s(S'PP'
p369
S'PADVADVDP'
tp370
F1
s(S'PP'
S'PPADVVP'
tp371
F2
s(S'PP'
p372
S'PADVADVPPP'
tp373
F1
s(g151
S'NADVADVDP'
tp374
F1
s(g129
S'ADVADVVAP'
tp375
F1
s(g154
S'NADVANP'
tp376
F1
s(S'PP'
S'PPVVVP'
tp377
F2
s(g300
S'PAAVP'
tp378
F5
s(S'NP'
p379
S'NAAPP'
tp380
F5
s(g53
S'VDDP'
tp381
F39
s(S'DP'
p382
S'DAPPP'
tp383
F1
s(g369
S'ADVAPAP'
tp384
F1
s(S'NP'
S'NADVADVVVP'
tp385
F2
s(g120
S'ANPP'
tp386
F12
s(g354
S'ADVPPDP'
tp387
F2
s(g62
S'PPPPP'
tp388
F3
s(S'MP'
S'MPDP'
tp389
F1
s(g87
S'ADVADVPDP'
tp390
F1
s(S'MP'
S'MVVPP'
tp391
F1
s(g62
S'PPPNP'
tp392
F3
s(S'NP'
S'AAAAANNCP'
tp393
F1
s(S'NP'
S'ADVADVNPP'
tp394
F1
s(S'NP'
S'NPPPP'
tp395
F1
s(S'DP'
S'ADDP'
tp396
F2
s(g248
S'CDDDADVPP'
tp397
F2
s(g248
S'CAADPP'
tp398
F3
s(g361
S'PADVADVADVADVVP'
tp399
F1
s(S'DP'
S'DADVADVVP'
tp400
F1
s(S'NP'
p401
S'NAACP'
tp402
F1
s(g37
S'PNNP'
tp403
F40
s(g173
S'AADVAPP'
tp404
F1
s(S'PP'
S'APNNP'
tp405
F1
s(S'DP'
S'DDAAP'
tp406
F2
s(S'MP'
S'MMNP'
tp407
F1
s(S'VP'
p408
S'AVAP'
tp409
F8
s(S'MP'
S'MMVP'
tp410
F5
s(g346
S'PADVDDP'
tp411
F3
s(S'PP'
p412
S'PCCP'
tp413
F1
s(g17
S'ADPP'
tp414
F36
s(S'CP'
p415
S'ACDP'
tp416
F24
s(g19
S'NNDP'
tp417
F17
s(S'NP'
S'NNACP'
tp418
F2
s(S'CP'
S'CDADVPPP'
tp419
F4
s(g207
S'VAP'
tp420
F75
s(S'MP'
S'MNVVP'
tp421
F1
s(S'DP'
S'DDDPP'
tp422
F8
s(S'CP'
S'ADVCDDP'
tp423
F4
s(S'PP'
S'PAAPP'
tp424
F1
s(S'AP'
S'ADVADVAADVCCP'
tp425
F1
s(S'AP'
p426
S'AAVVP'
tp427
F2
s(g231
S'DDDPPP'
tp428
F1
s(g142
S'ADVAVDP'
tp429
F1
s(S'DP'
S'ADAP'
tp430
F1
s(S'PP'
S'APADVVP'
tp431
F1
s(S'DP'
S'ADVADVADVDNNP'
tp432
F1
s(S'AP'
S'AVVP'
tp433
F1
s(S'PP'
p434
S'PPPVP'
tp435
F5
s(S'AP'
S'AADDP'
tp436
F3
s(g284
S'VAANP'
tp437
F3
s(g131
S'NADVADVCP'
tp438
F4
s(g167
S'AADADVVP'
tp439
F1
s(g98
S'DADVADVDP'
tp440
F1
s(S'MP'
S'MPNP'
tp441
F1
s(S'MP'
S'MADP'
tp442
F3
s(g70
S'PANP'
tp443
F16
s(g412
S'PDDDP'
tp444
F4
s(S'DP'
S'DADVADVNNP'
tp445
F1
s(S'PP'
p446
S'AAPAAP'
tp447
F1
s(g408
S'ADVADVVAADP'
tp448
F1
s(g296
S'AANMP'
tp449
F1
s(S'AP'
S'AAVP'
tp450
F14
s(S'NP'
S'NAAP'
tp451
F5
s(g50
S'NDDP'
tp452
F11
s(S'AP'
p453
S'ACCP'
tp454
F8
s(S'NP'
S'NNVVVP'
tp455
F1
s(g313
S'DDDADVPP'
tp456
F2
s(g114
S'NDP'
tp457
F69
s(g5
S'DDVP'
tp458
F22
s(S'NP'
p459
S'AANVP'
tp460
F2
s(S'PP'
S'ADVPAP'
tp461
F2
s(S'PP'
S'PCP'
tp462
F20
s(S'VP'
S'VADVADP'
tp463
F2
s(S'MP'
S'AMDDP'
tp464
F1
s(g19
S'ADVNNVP'
tp465
F1
s(S'MP'
S'MADVADVVCP'
tp466
F1
s(S'PP'
S'PACP'
tp467
F1
s(S'NP'
S'NNNDP'
tp468
F1
s(g9
S'ADVACP'
tp469
F5
s(g332
S'ADVADVNMP'
tp470
F1
s(g83
S'ADVDDPPP'
tp471
F1
s(S'VP'
S'VVVAP'
tp472
F1
s(g30
S'ADPPP'
tp473
F9
s(S'MP'
S'MVCP'
tp474
F6
s(S'CP'
S'CCDDP'
tp475
F9
s(S'NP'
S'NNADVVP'
tp476
F2
s(S'VP'
p477
S'AAVCCP'
tp478
F1
s(S'VP'
S'ADVADVADVVPP'
tp479
F1
s(S'MP'
S'MADVADVADVVPP'
tp480
F1
s(S'VP'
S'VAMP'
tp481
F2
s(S'PP'
S'PPAAP'
tp482
F2
s(g321
S'VVCP'
tp483
F14
s(g401
S'AANCP'
tp484
F4
s(g366
S'VADVNP'
tp485
F6
s(S'VP'
S'ADVVNNP'
tp486
F1
s(g35
S'APPP'
tp487
F9
s(g89
S'ADVVPP'
tp488
F4
s(S'NP'
S'ADVNNVVP'
tp489
F1
s(S'VP'
S'VNNP'
tp490
F16
s(S'AP'
S'AADVDP'
tp491
F2
s(g120
S'NADP'
tp492
F5
s(g17
S'DDNP'
tp493
F46
s(S'NP'
p494
S'NADVCP'
tp495
F10
s(g125
S'DDNNP'
tp496
F8
s(S'NP'
p497
S'ADVANVP'
tp498
F2
s(S'NP'
S'ADVNAAP'
tp499
F1
s(g231
S'DAADVNP'
tp500
F1
s(S'AP'
S'ADVADDP'
tp501
F2
s(g313
S'AADPP'
tp502
F3
s(S'MP'
S'MADVVVCP'
tp503
F1
s(g372
S'ADVADVPPDP'
tp504
F1
s(S'MP'
S'MAVAP'
tp505
F2
s(S'PP'
S'AAPDP'
tp506
F4
s(S'NP'
p507
S'ANVVVP'
tp508
F1
s(S'PP'
p509
S'PADVADVADVADVDP'
tp510
F1
s(S'CP'
S'CDDADVPPP'
tp511
F1
s(S'DP'
S'ADVDNNP'
tp512
F2
s(S'CP'
S'ACDDP'
tp513
F2
s(S'AP'
S'AAPP'
tp514
F5
s(S'AP'
S'ADVADVACCP'
tp515
F1
s(S'VP'
S'VVCCP'
tp516
F5
s(S'DP'
S'DMMP'
tp517
F1
s(S'DP'
S'DADVVVP'
tp518
F1
s(g182
S'DADVADVNP'
tp519
F3
s(g361
S'ADVPANP'
tp520
F1
s(g110
S'NNPPP'
tp521
F7
s(S'AP'
S'ADVANNP'
tp522
F1
s(g151
S'NAPP'
tp523
F13
s(S'PP'
p524
S'APPVP'
tp525
F1
s(g379
S'NADVDP'
tp526
F2
s(S'PP'
p527
S'ADVPPPP'
tp528
F2
s(S'AP'
S'AACCCP'
tp529
F1
s(S'NP'
S'ADVNCCP'
tp530
F4
s(g167
S'DDAAAPP'
tp531
F1
s(g120
S'NNMP'
tp532
F7
s(S'PP'
S'ADVPANNP'
tp533
F1
s(S'DP'
S'DDDVP'
tp534
F3
s(S'CP'
S'CADDPP'
tp535
F1
s(g509
S'PAAAP'
tp536
F4
s(g527
S'ADVADVPNP'
tp537
F3
s(S'MP'
S'MVAP'
tp538
F2
s(g37
S'PVP'
tp539
F162
s(S'VP'
S'VVVVAP'
tp540
F1
s(S'CP'
S'ACDDDP'
tp541
F1
s(S'VP'
p542
S'VPPPP'
tp543
F1
s(S'DP'
S'DVVVP'
tp544
F2
s(S'PP'
S'PPADVPP'
tp545
F1
s(g286
S'PADVAP'
tp546
F2
s(g110
S'ADVADVADVNVP'
tp547
F1
s(g369
S'PPDDP'
tp548
F5
s(g507
S'NADVADVAP'
tp549
F1
s(S'DP'
S'ADVADVADVDDPPP'
tp550
F1
s(g17
S'DPP'
tp551
F205
s(g68
S'ADVNVP'
tp552
F7
s(g17
S'DDPP'
tp553
F81
s(g98
S'DDADVPPP'
tp554
F1
s(g302
S'DANP'
tp555
F24
s(g497
S'NADVPP'
tp556
F2
s(g17
S'AADPPPP'
tp557
F1
s(g200
S'APADVDDP'
tp558
F1
s(g5
S'AADNP'
tp559
F1
s(S'CP'
S'CADVADVADVDPP'
tp560
F1
s(S'VP'
S'VADVCP'
tp561
F1
s(S'NP'
S'NNNNCP'
tp562
F2
s(g250
S'MDNP'
tp563
F1
s(g114
S'NNAACP'
tp564
F1
s(S'DP'
p565
S'ADDPPP'
tp566
F1
s(S'CP'
S'CADVADVADVDDPPP'
tp567
F1
s(S'PP'
S'PADVPPP'
tp568
F1
s(g43
S'DCCP'
tp569
F2
s(g286
S'ADVADVPPP'
tp570
F1
s(S'CP'
S'CDPPPPP'
tp571
F1
s(S'MP'
S'MADVVDP'
tp572
F3
s(g17
S'DDADVNNP'
tp573
F1
s(S'DP'
S'DDADVVP'
tp574
F1
s(g446
S'PDDP'
tp575
F40
s(S'MP'
S'MVDDP'
tp576
F1
s(g15
S'ADVAPNP'
tp577
F1
s(g351
S'AADVDDP'
tp578
F1
s(S'PP'
S'PADVADVADVDP'
tp579
F1
s(S'NP'
S'ADVANNCP'
tp580
F1
s(S'AP'
S'AADVADVCP'
tp581
F1
s(g234
S'NNP'
tp582
F1
s(S'DP'
p583
S'ADVADPP'
tp584
F2
s(g43
S'DAANP'
tp585
F7
s(g60
S'AAAPAP'
tp586
F1
s(g173
S'ADDP'
tp587
F21
s(S'AP'
S'ADVAPP'
tp588
F4
s(S'PP'
S'PNNNNP'
tp589
F1
s(S'PP'
S'ADVPPNP'
tp590
F1
s(S'CP'
S'CADVADVDPP'
tp591
F3
s(g17
S'DPPP'
tp592
F70
s(S'PP'
S'ADVADVPPNP'
tp593
F1
s(g275
S'NNAVP'
tp594
F1
s(S'NP'
S'NNAAPP'
tp595
F1
s(S'CP'
S'ADVADVCDDP'
tp596
F1
s(S'DP'
S'DDADVADVNP'
tp597
F1
s(S'PP'
S'ADVPNP'
tp598
F7
s(g37
S'PPDP'
tp599
F46
s(g542
S'ADVVANNP'
tp600
F1
s(S'DP'
S'ADVDDADVPP'
tp601
F1
s(g182
S'DDPPPP'
tp602
F3
s(g215
S'NNVP'
tp603
F36
s(S'DP'
S'DDCP'
tp604
F1
s(S'VP'
S'VMMMP'
tp605
F1
s(S'NP'
S'NAP'
tp606
F43
s(S'NP'
S'NNAAP'
tp607
F1
s(S'VP'
S'VAAAP'
tp608
F1
s(g231
S'ADCCP'
tp609
F1
s(S'DP'
S'DADVADVADVADVNNP'
tp610
F1
s(g53
S'VVP'
tp611
F26
s(S'NP'
S'NNVVP'
tp612
F5
s(g527
S'ADVADVPVP'
tp613
F1
s(S'AP'
S'AAADP'
tp614
F6
s(g62
S'APNP'
tp615
F16
s(g382
S'DDDAPP'
tp616
F1
s(S'DP'
S'DDVVP'
tp617
F5
s(S'VP'
S'VVVNP'
tp618
F2
s(g116
S'CDDAAAPP'
tp619
F1
s(g379
S'NAMP'
tp620
F3
s(S'DP'
S'ADVADVDDPP'
tp621
F3
s(g248
S'CDPP'
tp622
F192
s(S'MP'
S'MMMNP'
tp623
F2
s(g453
S'ADDDP'
tp624
F2
s(S'AP'
S'AADVADVADVPPP'
tp625
F1
s(S'VP'
S'VVAANP'
tp626
F1
s(S'VP'
S'VDDDP'
tp627
F1
s(g316
S'ADVCDP'
tp628
F10
s(S'VP'
S'ADVADVVNP'
tp629
F1
s(S'VP'
S'ADVADVVCP'
tp630
F2
s(g477
S'VADVADVDP'
tp631
F3
s(g62
S'PPNNP'
tp632
F6
s(S'PP'
S'ADVPAVP'
tp633
F1
s(g434
S'PADVCP'
tp634
F1
s(g5
S'ADVADVDPP'
tp635
F10
s(g53
S'VDP'
tp636
F165
s(g524
S'PPPADVNP'
tp637
F1
s(g459
S'NADVAP'
tp638
F4
s(S'VP'
S'AVDDP'
tp639
F3
s(g17
S'DADVNP'
tp640
F14
s(g313
S'DAP'
tp641
F27
s(g22
S'CADPP'
tp642
F24
s(g215
S'ANCCP'
tp643
F5
s(g184
S'PPAVP'
tp644
F2
s(S'PP'
p645
S'PPDDDP'
tp646
F2
s(g57
S'AVPP'
tp647
F6
s(g494
S'NADVADVMP'
tp648
F1
s(g446
S'PPADVADVDDP'
tp649
F1
s(g22
S'CDPPPP'
tp650
F4
s(S'VP'
S'AAVDP'
tp651
F4
s(S'VP'
S'ADVADVADVADVVPP'
tp652
F1
s(S'VP'
S'ADVADVVVP'
tp653
F1
s(S'VP'
S'VACCP'
tp654
F1
s(g66
S'NNDDP'
tp655
F2
s(S'VP'
S'ADVVADVAP'
tp656
F1
s(g565
S'DADVADVPP'
tp657
F5
s(S'DP'
S'DMP'
tp658
F1
s(S'CP'
S'CCADP'
tp659
F2
s(g27
S'ADVDPP'
tp660
F18
s(g19
S'NPP'
tp661
F144
s(g354
S'PADVADVNP'
tp662
F1
s(g351
S'AADP'
tp663
F22
s(S'PP'
S'PPAAVP'
tp664
F1
s(g19
S'NVP'
tp665
F147
s(S'VP'
S'VADVPP'
tp666
F2
s(S'CP'
S'CDDPPP'
tp667
F3
s(g565
S'ADVDANP'
tp668
F1
s(g415
S'CCADVDDP'
tp669
F4
s(g354
S'ADVPVP'
tp670
F9
s(S'DP'
p671
S'ADMP'
tp672
F1
s(g94
S'ADVCCDDP'
tp673
F1
s(g37
S'ADVPDP'
tp674
F14
s(S'DP'
S'DDDAVP'
tp675
F1
s(S'NP'
S'ADVNNPP'
tp676
F1
s(g19
S'NCP'
tp677
F173
s(g415
S'CADVDPPP'
tp678
F3
s(g671
S'ADVVP'
tp679
F2
s(S'PP'
S'PPAAAP'
tp680
F1
s(g15
S'ADVPDDP'
tp681
F1
s(S'MP'
S'MVCCP'
tp682
F1
s(g379
S'NNCCP'
tp683
F7
s(S'MP'
S'MNVP'
tp684
F5
s(g110
S'AANAP'
tp685
F1
s(S'NP'
S'AANCCP'
tp686
F2
s(g53
S'VAPP'
tp687
F7
s(S'MP'
S'MAVNP'
tp688
F1
s(g89
S'ADVVDP'
tp689
F8
s(g80
S'VADDP'
tp690
F1
s(g313
S'DADVPP'
tp691
F24
s(S'CP'
S'CCCAADDP'
tp692
F1
s(g426
S'AMP'
tp693
F2
s(S'NP'
S'NADVADVADVADVVP'
tp694
F1
s(S'NP'
S'NNNPPP'
tp695
F1
s(g645
S'AAPNNP'
tp696
F2
s(S'CP'
S'AACDP'
tp697
F3
s(S'NP'
S'NNNCCP'
tp698
F1
s(S'CP'
S'CCDDDP'
tp699
F2
s(S'CP'
S'CCADVADVDDP'
tp700
F1
s(g43
S'ADVDPPP'
tp701
F3
s(g17
S'DVP'
tp702
F142
s(g75
S'ADVVAP'
tp703
F4
s(S'NP'
S'ADVNPP'
tp704
F5
s(S'PP'
S'PADVADVDDP'
tp705
F1
s(g351
S'AVP'
tp706
F27
s(S'NP'
S'NADVVP'
tp707
F11
s(S'DP'
S'DADVANNP'
tp708
F1
s(g583
S'DDPPP'
tp709
F6
s(g151
S'NNAP'
tp710
F5
s(S'MP'
S'MADVVCP'
tp711
F1
s(g70
S'PPANP'
tp712
F1
s(g248
S'CDADVPP'
tp713
F14
s(g53
S'VNP'
tp714
F129
s(g89
S'VANP'
tp715
F11
s(g57
S'VADVAP'
tp716
F7
s(S'MP'
S'MVACP'
tp717
F1
s(S'PP'
S'PPADVNP'
tp718
F3
s(S'DP'
S'DDDDVP'
tp719
F1
s(g507
S'NADVPPP'
tp720
F1
s.