ccollections
defaultdict
p1
(c__builtin__
float
p2
tRp3
(S'DP'
p4
S'DDADVADVAAP'
tp5
F1
s(S'DP'
p6
S'DDMP'
tp7
F2
s(S'DP'
p8
S'ADDPP'
tp9
F1
s(g6
S'DDAP'
tp10
F2
s(S'VP'
S'ADVVVNP'
tp11
F2
s(S'VP'
S'VVVVP'
tp12
F2
s(S'NP'
S'NADDP'
tp13
F1
s(S'PP'
p14
S'PAPP'
tp15
F3
s(S'PP'
S'PADVNP'
tp16
F1
s(S'DP'
p17
S'DNP'
tp18
F77
s(S'MP'
S'MVVAAP'
tp19
F1
s(S'CP'
p20
S'CDPPP'
tp21
F18
s(S'VP'
p22
S'VADP'
tp23
F2
s(S'DP'
p24
S'DAAP'
tp25
F2
s(S'VP'
p26
S'VAVP'
tp27
F1
s(g14
S'APVP'
tp28
F5
s(S'MP'
S'MVDP'
tp29
F4
s(S'PP'
p30
S'PPPP'
tp31
F9
s(S'DP'
S'DDDNP'
tp32
F2
s(S'MP'
S'MMADVVP'
tp33
F1
s(S'VP'
p34
S'VACP'
tp35
F2
s(S'MP'
p36
S'MMCP'
tp37
F1
s(g30
S'PADVNNP'
tp38
F2
s(S'NP'
p39
S'AANADVADVVVP'
tp40
F1
s(S'VP'
p41
S'VCP'
tp42
F31
s(S'NP'
p43
S'NMMP'
tp44
F2
s(S'PP'
p45
S'PAP'
tp46
F34
s(S'PP'
p47
S'APVVP'
tp48
F1
s(S'NP'
S'NAAAVP'
tp49
F1
s(S'PP'
p50
S'PPADVDP'
tp51
F1
s(S'PP'
p52
S'PNP'
tp53
F58
s(S'DP'
p54
S'DDP'
tp55
F11
s(S'NP'
S'ADVNADVAMP'
tp56
F1
s(S'VP'
S'VCCP'
tp57
F4
s(S'MP'
p58
S'MCDP'
tp59
F3
s(S'NP'
p60
S'NMP'
tp61
F16
s(g45
S'PDP'
tp62
F65
s(S'VP'
p63
S'AVAAP'
tp64
F1
s(S'AP'
p65
S'ANP'
tp66
F1
s(S'PP'
p67
S'PADVPP'
tp68
F1
s(S'NP'
S'NNADVCP'
tp69
F1
s(S'VP'
S'VVADVNP'
tp70
F1
s(S'NP'
S'ANVVVVP'
tp71
F1
s(S'DP'
S'DPPPP'
tp72
F1
s(S'PP'
S'PADVADP'
tp73
F1
s(S'NP'
p74
S'NACP'
tp75
F2
s(g60
S'NCCP'
tp76
F16
s(S'DP'
S'DADVADVVVP'
tp77
F1
s(S'NP'
p78
S'NNCP'
tp79
F21
s(S'DP'
S'DDAPP'
tp80
F1
s(S'VP'
p81
S'AVNP'
tp82
F2
s(S'PP'
p83
S'ADVPVVP'
tp84
F1
s(S'VP'
S'VADVVP'
tp85
F3
s(S'AP'
p86
S'AAAAP'
tp87
F1
s(S'CP'
p88
S'CCCDP'
tp89
F1
s(S'VP'
p90
S'AVNNP'
tp91
F1
s(S'VP'
p92
S'VCCCP'
tp93
F1
s(g47
S'APDP'
tp94
F3
s(g92
S'VVANP'
tp95
F1
s(S'VP'
S'ADVVVP'
tp96
F1
s(S'PP'
p97
S'PCCP'
tp98
F1
s(S'PP'
p99
S'PAAP'
tp100
F7
s(S'DP'
S'DNNP'
tp101
F17
s(g50
S'PADVVP'
tp102
F1
s(S'DP'
p103
S'DADVADVADVPPP'
tp104
F1
s(S'AP'
p105
S'APP'
tp106
F11
s(S'NP'
S'NADVMP'
tp107
F2
s(S'AP'
S'AAP'
tp108
F3
s(S'VP'
p109
S'VADVADVVP'
tp110
F1
s(g63
S'VADVADVNP'
tp111
F1
s(S'PP'
S'PPVVP'
tp112
F3
s(S'DP'
S'DDDDADVPP'
tp113
F1
s(g36
S'MVNP'
tp114
F5
s(S'PP'
S'PAVP'
tp115
F6
s(S'MP'
S'ADVMVP'
tp116
F2
s(g14
S'PPADVNNP'
tp117
F1
s(S'MP'
S'MADVVPP'
tp118
F1
s(S'DP'
p119
S'DADP'
tp120
F1
s(S'PP'
S'APDDP'
tp121
F1
s(S'VP'
S'ADVADVVVNP'
tp122
F1
s(S'NP'
p123
S'ADVNAP'
tp124
F1
s(S'VP'
S'ADVVNP'
tp125
F5
s(S'CP'
S'CADVADPPP'
tp126
F1
s(S'VP'
S'VVNP'
tp127
F22
s(S'PP'
S'PPVP'
tp128
F12
s(S'PP'
p129
S'ADVPAADP'
tp130
F1
s(S'VP'
p131
S'VADVDP'
tp132
F2
s(S'VP'
p133
S'VAAP'
tp134
F6
s(S'NP'
p135
S'ANDP'
tp136
F3
s(g78
S'NVVP'
tp137
F17
s(S'VP'
S'VMP'
tp138
F1
s(S'VP'
p139
S'VVNNP'
tp140
F1
s(S'CP'
p141
S'CDAPP'
tp142
F5
s(g63
S'VVAAP'
tp143
F2
s(g20
S'ADVCDP'
tp144
F4
s(S'DP'
S'ADVADVP'
tp145
F1
s(S'DP'
p146
S'ADNP'
tp147
F5
s(S'PP'
S'PADP'
tp148
F4
s(S'DP'
p149
S'DAPP'
tp150
F9
s(S'VP'
S'AVVNP'
tp151
F1
s(S'DP'
S'DADVANP'
tp152
F1
s(S'DP'
p153
S'ADVDNP'
tp154
F3
s(g81
S'VVPP'
tp155
F8
s(S'PP'
S'PAVVP'
tp156
F1
s(g36
S'MVPP'
tp157
F2
s(g6
S'ADVP'
tp158
F2
s(S'CP'
S'CDDPPP'
tp159
F2
s(g60
S'NNPP'
tp160
F8
s(S'DP'
p161
S'DDDDNP'
tp162
F1
s(S'DP'
S'DADVPPP'
tp163
F2
s(S'NP'
p164
S'ANVP'
tp165
F6
s(S'DP'
p166
S'DNNNP'
tp167
F2
s(g146
S'ADVDDVP'
tp168
F1
s(S'VP'
S'VADVDDP'
tp169
F1
s(g14
S'PMMP'
tp170
F1
s(S'PP'
S'PMP'
tp171
F3
s(S'CP'
p172
S'CCDP'
tp173
F23
s(S'DP'
S'AADCP'
tp174
F1
s(S'PP'
S'PPNNNP'
tp175
F1
s(S'VP'
p176
S'ADVAVVP'
tp177
F1
s(S'CP'
p178
S'CDDDPP'
tp179
F1
s(S'CP'
p180
S'CDAAPP'
tp181
F1
s(g99
S'PNNNP'
tp182
F1
s(S'AP'
p183
S'AACCP'
tp184
F1
s(S'PP'
S'ADVADVADVPPVVP'
tp185
F1
s(S'PP'
S'PADVVVP'
tp186
F1
s(S'PP'
p187
S'PPP'
tp188
F32
s(g78
S'NAVP'
tp189
F3
s(g166
S'ADVDVP'
tp190
F1
s(S'PP'
S'PPADVADVNP'
tp191
F1
s(S'VP'
S'AAAAVAP'
tp192
F1
s(g41
S'VPP'
tp193
F34
s(g166
S'ADVDDPPP'
tp194
F1
s(S'NP'
S'NNNCP'
tp195
F3
s(g83
S'PADVDP'
tp196
F1
s(S'CP'
p197
S'CDDPP'
tp198
F14
s(S'DP'
p199
S'DAAPP'
tp200
F1
s(g52
S'PVVP'
tp201
F15
s(S'CP'
S'CADPPP'
tp202
F2
s(S'AP'
S'AACP'
tp203
F1
s(S'VP'
p204
S'ADVVCP'
tp205
F2
s(S'PP'
p206
S'ADVPPAP'
tp207
F1
s(g81
S'VPPP'
tp208
F9
s(g139
S'VVPPP'
tp209
F1
s(S'VP'
S'ADVVVCCP'
tp210
F1
s(g52
S'PPAP'
tp211
F9
s(g153
S'DVVP'
tp212
F15
s(S'AP'
S'APPP'
tp213
F1
s(S'DP'
S'ADVVP'
tp214
F1
s(S'DP'
p215
S'ADVADPPP'
tp216
F1
s(S'NP'
S'ADVADVNVP'
tp217
F1
s(g176
S'VVVP'
tp218
F5
s(S'CP'
S'CADVDPP'
tp219
F1
s(g135
S'ANCP'
tp220
F6
s(S'DP'
S'DCP'
tp221
F3
s(g133
S'ADVVVVP'
tp222
F1
s(S'DP'
p223
S'DDDP'
tp224
F4
s(S'DP'
S'DDADVPP'
tp225
F1
s(g36
S'MAADP'
tp226
F1
s(S'NP'
S'ANVVP'
tp227
F1
s(S'NP'
S'NVVVVP'
tp228
F1
s(S'NP'
p229
S'NPPP'
tp230
F7
s(g6
S'DAVP'
tp231
F5
s(S'AP'
S'ACP'
tp232
F12
s(S'NP'
p233
S'NDDDDP'
tp234
F1
s(g187
S'PPNP'
tp235
F10
s(S'VP'
S'VVVVNNP'
tp236
F1
s(S'CP'
S'CDDADVPP'
tp237
F1
s(S'AP'
S'ADP'
tp238
F65
s(S'CP'
S'CADVDDPPP'
tp239
F1
s(g164
S'ADVANCCP'
tp240
F1
s(g81
S'AVDP'
tp241
F7
s(S'NP'
p242
S'ANNVP'
tp243
F1
s(g131
S'VVAP'
tp244
F12
s(g199
S'DDDCP'
tp245
F1
s(g135
S'NPP'
tp246
F45
s(S'NP'
S'NNNP'
tp247
F1
s(g60
S'NVP'
tp248
F79
s(g81
S'VDDP'
tp249
F15
s(g6
S'DMP'
tp250
F2
s(g149
S'DADVAPP'
tp251
F1
s(g52
S'ADVAPAP'
tp252
F1
s(S'PP'
S'PPPPP'
tp253
F1
s(g36
S'MPDP'
tp254
F1
s(S'VP'
S'AAVADVCP'
tp255
F1
s(g103
S'ADDP'
tp256
F1
s(g229
S'NAACP'
tp257
F2
s(g45
S'PNNP'
tp258
F19
s(S'PP'
S'APNNP'
tp259
F3
s(g8
S'DDAAP'
tp260
F1
s(S'DP'
p261
S'ADVADVDDDP'
tp262
F1
s(S'MP'
S'MMVP'
tp263
F2
s(g43
S'ADVNCP'
tp264
F2
s(S'AP'
S'AADP'
tp265
F20
s(g141
S'ACDP'
tp266
F4
s(S'NP'
S'NNDP'
tp267
F7
s(S'CP'
S'CCCCDDP'
tp268
F1
s(g135
S'NNACP'
tp269
F2
s(g180
S'CDADVPPP'
tp270
F1
s(S'VP'
p271
S'VAP'
tp272
F33
s(g223
S'DDDPP'
tp273
F2
s(g14
S'ADVPMP'
tp274
F1
s(S'MP'
p275
S'MNMP'
tp276
F1
s(g74
S'NAAP'
tp277
F3
s(S'PP'
S'PPPVP'
tp278
F2
s(S'AP'
S'AADDP'
tp279
F2
s(g22
S'VAANP'
tp280
F3
s(g271
S'VVDP'
tp281
F16
s(g36
S'MPNP'
tp282
F2
s(g36
S'MADP'
tp283
F2
s(g275
S'MAVAAP'
tp284
F1
s(S'PP'
S'PANP'
tp285
F2
s(S'MP'
S'ADVAMVP'
tp286
F1
s(g65
S'AVVP'
tp287
F3
s(g39
S'NDDP'
tp288
F8
s(g47
S'APPDDP'
tp289
F1
s(S'AP'
p290
S'ACCP'
tp291
F2
s(S'VP'
S'VVVVAP'
tp292
F1
s(S'VP'
S'AVPPP'
tp293
F1
s(g105
S'APPPP'
tp294
F1
s(g60
S'NDP'
tp295
F35
s(g54
S'DDVP'
tp296
F17
s(S'NP'
S'AANVP'
tp297
F1
s(g97
S'PCP'
tp298
F1
s(S'PP'
p299
S'PAADP'
tp300
F1
s(S'NP'
p301
S'ADVNNVP'
tp302
F2
s(S'NP'
S'NNNDP'
tp303
F1
s(g290
S'ADVACP'
tp304
F1
s(g206
S'AAPNNP'
tp305
F1
s(S'VP'
p306
S'AVVDP'
tp307
F1
s(g119
S'ADPPP'
tp308
F2
s(g58
S'MVCP'
tp309
F2
s(g178
S'CCDDP'
tp310
F5
s(g306
S'AAAVAP'
tp311
F1
s(g215
S'DAAAAVP'
tp312
F1
s(S'NP'
S'NNVVP'
tp313
F2
s(S'VP'
p314
S'VVCP'
tp315
F2
s(g34
S'VADVNP'
tp316
F1
s(S'NP'
p317
S'NNDDP'
tp318
F1
s(S'VP'
S'ADVVPP'
tp319
F2
s(g271
S'VNNP'
tp320
F16
s(S'AP'
S'AADVDP'
tp321
F1
s(g317
S'NADP'
tp322
F1
s(g17
S'DDNP'
tp323
F18
s(g233
S'NADVCP'
tp324
F2
s(g6
S'DDNNP'
tp325
F4
s(S'NP'
S'ADVNAAP'
tp326
F1
s(S'NP'
p327
S'ADVADVNCP'
tp328
F1
s(g261
S'AADPP'
tp329
F1
s(g314
S'VVVAAP'
tp330
F1
s(S'MP'
S'MVVNP'
tp331
F1
s(S'CP'
S'ACDDP'
tp332
F2
s(S'AP'
S'AAPP'
tp333
F3
s(S'DP'
p334
S'DADVVVP'
tp335
F2
s(S'NP'
S'NAPP'
tp336
F4
s(S'NP'
S'ANCCP'
tp337
F2
s(g327
S'AANPP'
tp338
F1
s(S'VP'
S'VDDDP'
tp339
F2
s(S'NP'
S'NNMP'
tp340
F3
s(S'MP'
S'MVAP'
tp341
F2
s(S'VP'
p342
S'VADVADVDDP'
tp343
F1
s(S'PP'
S'PVP'
tp344
F57
s(S'DP'
S'DADVAVP'
tp345
F1
s(S'DP'
S'DVVVP'
tp346
F2
s(g342
S'VCCCCP'
tp347
F1
s(g30
S'PPDDP'
tp348
F3
s(S'VP'
S'AVCP'
tp349
F1
s(S'DP'
S'DDVVVP'
tp350
F1
s(g17
S'DPP'
tp351
F93
s(g153
S'DDPP'
tp352
F23
s(g149
S'DANP'
tp353
F11
s(g229
S'NADVPP'
tp354
F1
s(S'VP'
S'AVDDDDP'
tp355
F1
s(S'NP'
S'AANADVVP'
tp356
F1
s(S'NP'
S'NAAVP'
tp357
F1
s(S'PP'
S'PDDDP'
tp358
F1
s(g81
S'VADVCP'
tp359
F1
s(S'MP'
S'MDNP'
tp360
F2
s(g45
S'PDDP'
tp361
F14
s(g78
S'NNVP'
tp362
F18
s(g52
S'PPPNP'
tp363
F1
s(S'NP'
S'NNP'
tp364
F2
s(S'DP'
p365
S'DAANP'
tp366
F3
s(S'AP'
S'ADDP'
tp367
F9
s(g99
S'ADVPPNP'
tp368
F1
s(g149
S'DPPP'
tp369
F26
s(S'DP'
S'DAVVP'
tp370
F1
s(g365
S'AADPPP'
tp371
F1
s(g301
S'NNAVP'
tp372
F1
s(g45
S'ADVPNP'
tp373
F5
s(g14
S'PPDP'
tp374
F14
s(S'AP'
S'ADVADVAAVVP'
tp375
F1
s(S'NP'
S'ADVADVADVANCCP'
tp376
F1
s(g78
S'NAP'
tp377
F20
s(g41
S'VVP'
tp378
F27
s(g299
S'PPAAP'
tp379
F1
s(g52
S'APNP'
tp380
F5
s(S'MP'
S'MVNNP'
tp381
F2
s(g172
S'CDPP'
tp382
F83
s(S'MP'
S'MVVNNP'
tp383
F1
s(S'CP'
S'ADVCADP'
tp384
F1
s(g242
S'NADVADVADVADVPPP'
tp385
F1
s(S'CP'
S'CDDDDADVPP'
tp386
F1
s(g109
S'ADVADVVNP'
tp387
F1
s(g14
S'PPNNP'
tp388
F2
s(g14
S'PPMP'
tp389
F2
s(g41
S'VDP'
tp390
F64
s(g204
S'AVDDP'
tp391
F1
s(g334
S'DADVNP'
tp392
F2
s(g334
S'DAP'
tp393
F7
s(S'CP'
S'CADPP'
tp394
F4
s(S'PP'
S'PPAVP'
tp395
F1
s(g26
S'AVPP'
tp396
F3
s(S'CP'
S'CAADPPP'
tp397
F1
s(S'CP'
S'CDPPPP'
tp398
F1
s(g129
S'PANNP'
tp399
F1
s(S'PP'
S'APPP'
tp400
F1
s(g161
S'DAPPP'
tp401
F1
s(g123
S'AANVVP'
tp402
F1
s(g24
S'ADVDPP'
tp403
F2
s(S'DP'
S'ADPP'
tp404
F6
s(S'NP'
S'NNADVVVP'
tp405
F1
s(g41
S'VADVPP'
tp406
F3
s(g67
S'ADVPVP'
tp407
F1
s(g306
S'ADVVANP'
tp408
F1
s(S'PP'
S'ADVPDP'
tp409
F1
s(S'NP'
S'NCP'
tp410
F69
s(S'CP'
S'CADVDPPP'
tp411
F2
s(g86
S'AAAP'
tp412
F2
s(g39
S'NNCCP'
tp413
F2
s(S'MP'
S'MNVP'
tp414
F4
s(S'VP'
S'VAPP'
tp415
F1
s(g90
S'ADVVDP'
tp416
F1
s(g149
S'DADVPP'
tp417
F3
s(g183
S'AMP'
tp418
F1
s(g78
S'ADVNNCP'
tp419
F1
s(g301
S'AANMMP'
tp420
F1
s(S'AP'
S'ADVAPP'
tp421
F1
s(g197
S'AACDP'
tp422
F2
s(g129
S'ADVADVADVADVPPDP'
tp423
F1
s(g88
S'CCDDDP'
tp424
F1
s(S'DP'
S'ADVDPPP'
tp425
F2
s(g17
S'DVP'
tp426
F68
s(g105
S'AVP'
tp427
F4
s(S'NP'
S'NADVVP'
tp428
F2
s(g4
S'DDPPP'
tp429
F5
s(S'NP'
S'NNAP'
tp430
F4
s(g52
S'PPANP'
tp431
F2
s(g141
S'CDADVPP'
tp432
F2
s(g271
S'VNP'
tp433
F61
s(S'VP'
S'VANP'
tp434
F2
s(g63
S'VADVAP'
tp435
F2
s(S'DP'
S'DDDDVP'
tp436
F1
s(S'VP'
S'ADVADVVVDP'
tp437
F1
s.