ccollections
defaultdict
p1
(c__builtin__
float
p2
tRp3
(S'MP'
S'MMDP'
tp4
F3
s(S'DP'
p5
S'ADDPP'
tp6
F1
s(S'DP'
p7
S'DDAP'
tp8
F4
s(S'VP'
S'ADVVVNP'
tp9
F1
s(S'AP'
S'AADDDP'
tp10
F1
s(S'CP'
S'CCDDDDP'
tp11
F1
s(S'VP'
S'VVVVP'
tp12
F2
s(S'PP'
p13
S'PAPP'
tp14
F5
s(S'PP'
p15
S'PADVNP'
tp16
F9
s(g7
S'DNP'
tp17
F177
s(S'MP'
S'MVVAAP'
tp18
F1
s(S'NP'
p19
S'ADVNDP'
tp20
F3
s(S'PP'
S'AAPDDP'
tp21
F1
s(S'CP'
S'CDPPP'
tp22
F30
s(S'VP'
S'VADP'
tp23
F4
s(S'DP'
p24
S'DAAP'
tp25
F1
s(S'DP'
S'ADNNP'
tp26
F1
s(S'AP'
S'AAADVPPP'
tp27
F1
s(S'MP'
S'MDVP'
tp28
F1
s(S'PP'
S'APVP'
tp29
F3
s(S'MP'
S'MVDP'
tp30
F14
s(S'PP'
S'PADVANP'
tp31
F1
s(g15
S'PPPP'
tp32
F22
s(S'DP'
S'DDDNP'
tp33
F3
s(S'MP'
S'MMADVVP'
tp34
F1
s(S'VP'
S'VACP'
tp35
F2
s(S'PP'
S'PPAAP'
tp36
F1
s(S'DP'
S'DADVVP'
tp37
F5
s(S'MP'
S'MVVADVDP'
tp38
F1
s(S'PP'
S'PADVNNP'
tp39
F1
s(S'AP'
S'AADVPP'
tp40
F1
s(S'NP'
S'NDDDP'
tp41
F1
s(S'NP'
p42
S'NADVVVP'
tp43
F5
s(S'CP'
p44
S'CADVDAPP'
tp45
F1
s(S'VP'
p46
S'VCP'
tp47
F51
s(S'NP'
p48
S'NMMP'
tp49
F4
s(S'NP'
S'NNADVAP'
tp50
F2
s(S'VP'
p51
S'ADVVCCP'
tp52
F1
s(g13
S'PAP'
tp53
F59
s(S'MP'
S'MMVVP'
tp54
F1
s(S'VP'
S'VADVADVAP'
tp55
F3
s(S'PP'
p56
S'ADVPPVP'
tp57
F2
s(S'NP'
S'ANPPP'
tp58
F1
s(g13
S'PNP'
tp59
F167
s(S'MP'
S'MADVCDP'
tp60
F1
s(S'DP'
p61
S'DDP'
tp62
F20
s(S'NP'
p63
S'NNDP'
tp64
F5
s(S'MP'
S'MCDP'
tp65
F3
s(S'PP'
p66
S'ADVPCP'
tp67
F1
s(S'MP'
p68
S'MNAP'
tp69
F5
s(S'DP'
S'DADVADVADVPP'
tp70
F1
s(S'NP'
p71
S'NMP'
tp72
F56
s(S'VP'
S'VMMP'
tp73
F3
s(g13
S'PDP'
tp74
F139
s(S'CP'
S'CCADVADVDP'
tp75
F3
s(S'PP'
p76
S'PPADVVP'
tp77
F2
s(S'MP'
p78
S'MNNVP'
tp79
F1
s(S'VP'
S'VVVDDP'
tp80
F2
s(S'CP'
S'CDADVADVPPP'
tp81
F1
s(S'AP'
S'ANP'
tp82
F2
s(S'NP'
S'NADVADVADVVP'
tp83
F3
s(S'NP'
p84
S'NNADVCP'
tp85
F1
s(S'PP'
p86
S'ADVADVPPVVP'
tp87
F1
s(S'NP'
S'ANVVVVP'
tp88
F1
s(S'DP'
S'DPPPP'
tp89
F3
s(S'DP'
S'DDANP'
tp90
F1
s(g63
S'NACP'
tp91
F2
s(S'AP'
S'ADVAVP'
tp92
F4
s(S'NP'
S'NCCP'
tp93
F32
s(S'NP'
p94
S'NNCP'
tp95
F30
s(S'DP'
p96
S'ADVDDPP'
tp97
F2
s(S'NP'
p98
S'NADVADVVP'
tp99
F7
s(S'DP'
S'DDDDP'
tp100
F1
s(S'DP'
S'DDAPP'
tp101
F2
s(S'VP'
p102
S'AVNP'
tp103
F5
s(S'VP'
S'VVADP'
tp104
F2
s(S'NP'
S'NADVADVPP'
tp105
F1
s(S'PP'
S'ADVPVVP'
tp106
F1
s(g13
S'ADVAPDP'
tp107
F2
s(S'VP'
S'VVMP'
tp108
F9
s(S'VP'
S'VADVVP'
tp109
F2
s(S'NP'
S'ADVADVADVNMP'
tp110
F1
s(S'NP'
S'ANADVVP'
tp111
F1
s(S'CP'
S'CCCDP'
tp112
F3
s(S'VP'
p113
S'ADVVAP'
tp114
F8
s(g102
S'VCCCP'
tp115
F1
s(S'AP'
S'AAADDP'
tp116
F1
s(g13
S'APDP'
tp117
F8
s(S'AP'
p118
S'AADVCP'
tp119
F2
s(S'MP'
S'MADVADVADVADP'
tp120
F1
s(S'NP'
S'ADVNADVCP'
tp121
F1
s(g102
S'VVANP'
tp122
F4
s(S'PP'
S'ADVPNNP'
tp123
F2
s(S'VP'
S'ADVVVP'
tp124
F2
s(S'PP'
S'ADVADVADVPDP'
tp125
F1
s(S'AP'
S'AANP'
tp126
F1
s(S'NP'
S'ADVADVNNPP'
tp127
F1
s(S'MP'
S'MADVVNP'
tp128
F5
s(S'PP'
S'PAAP'
tp129
F6
s(S'MP'
S'MPNNP'
tp130
F1
s(g61
S'DNNP'
tp131
F33
s(S'CP'
S'CADVDDPP'
tp132
F1
s(S'CP'
S'CDDPPPP'
tp133
F1
s(S'CP'
p134
S'CCADVDP'
tp135
F4
s(S'NP'
S'ADVNNACP'
tp136
F1
s(S'PP'
S'PADVVP'
tp137
F10
s(S'DP'
S'DADVVVP'
tp138
F1
s(S'PP'
p139
S'PPPADP'
tp140
F1
s(S'PP'
p141
S'APAP'
tp142
F2
s(S'CP'
p143
S'ADVADVCDP'
tp144
F3
s(S'NP'
S'NADVMP'
tp145
F3
s(S'AP'
p146
S'AAP'
tp147
F4
s(S'CP'
S'CADVADPP'
tp148
F1
s(S'NP'
p149
S'ADVANPP'
tp150
F1
s(S'CP'
S'CDDDDPP'
tp151
F1
s(S'MP'
S'MPVP'
tp152
F1
s(g66
S'PAANP'
tp153
F2
s(S'DP'
p154
S'DDADVADVVP'
tp155
F1
s(S'NP'
S'ANVP'
tp156
F6
s(S'MP'
S'MVNP'
tp157
F20
s(S'CP'
p158
S'CDDDPPP'
tp159
F1
s(S'PP'
S'PAVP'
tp160
F6
s(S'MP'
S'ADVMVP'
tp161
F5
s(S'PP'
S'ADVADVPPVP'
tp162
F1
s(S'VP'
S'ADVVMP'
tp163
F2
s(S'VP'
S'VVVPP'
tp164
F1
s(g76
S'APPPP'
tp165
F1
s(S'AP'
S'ADVADP'
tp166
F6
s(S'AP'
S'APP'
tp167
F33
s(S'DP'
S'ADVDDP'
tp168
F1
s(S'PP'
S'APDDP'
tp169
F2
s(S'VP'
S'ADVADVVVNP'
tp170
F3
s(S'VP'
S'ADVVNP'
tp171
F21
s(S'MP'
p172
S'MNNCP'
tp173
F1
s(S'CP'
S'CADVADPPP'
tp174
F1
s(S'VP'
S'VVNP'
tp175
F40
s(S'CP'
S'ADVCCDP'
tp176
F1
s(S'PP'
p177
S'PPVP'
tp178
F14
s(S'MP'
S'MAPDDP'
tp179
F1
s(S'VP'
S'VADVDP'
tp180
F1
s(S'MP'
S'MVVVPP'
tp181
F1
s(S'MP'
p182
S'MPADP'
tp183
F1
s(S'VP'
S'VAAP'
tp184
F16
s(S'NP'
S'ANDP'
tp185
F6
s(S'NP'
p186
S'NVVP'
tp187
F47
s(S'PP'
S'AAPVP'
tp188
F1
s(S'VP'
S'VMP'
tp189
F33
s(S'VP'
p190
S'VVNNP'
tp191
F3
s(S'CP'
S'CDAPP'
tp192
F2
s(S'VP'
S'VVAAP'
tp193
F1
s(S'DP'
p194
S'ADNP'
tp195
F7
s(S'PP'
p196
S'PADP'
tp197
F4
s(S'MP'
S'MPADVNP'
tp198
F1
s(S'DP'
S'DADVAP'
tp199
F2
s(S'PP'
S'ADVADVPMP'
tp200
F2
s(S'DP'
S'DAPP'
tp201
F5
s(S'VP'
S'AVVP'
tp202
F1
s(S'VP'
S'ADVADVVPP'
tp203
F2
s(S'AP'
S'AADVADVADVPP'
tp204
F1
s(S'VP'
S'VADVAAP'
tp205
F1
s(S'MP'
S'MDDNP'
tp206
F2
s(S'VP'
S'ADVADVVDP'
tp207
F5
s(g56
S'PPPDP'
tp208
F2
s(S'MP'
S'ADVMVVVP'
tp209
F1
s(S'MP'
S'MVVAP'
tp210
F1
s(S'DP'
S'DAAANP'
tp211
F1
s(S'DP'
S'DADVANP'
tp212
F1
s(S'DP'
S'ADVDNP'
tp213
F3
s(S'VP'
S'VVPP'
tp214
F9
s(S'CP'
p215
S'CCADDP'
tp216
F1
s(S'MP'
S'MNADVAP'
tp217
F1
s(S'CP'
p218
S'AACDDP'
tp219
F1
s(S'MP'
S'MVPP'
tp220
F8
s(g5
S'ADVP'
tp221
F3
s(S'MP'
S'MVADP'
tp222
F1
s(S'VP'
p223
S'VADVADVNNP'
tp224
F1
s(S'NP'
p225
S'AANCCP'
tp226
F1
s(S'CP'
S'CCCADVDP'
tp227
F1
s(S'MP'
S'MVVDP'
tp228
F3
s(g118
S'AACP'
tp229
F1
s(S'PP'
S'PPVVP'
tp230
F1
s(S'DP'
S'DNNNP'
tp231
F1
s(S'PP'
S'PADVADVVP'
tp232
F1
s(S'VP'
S'VADVDDP'
tp233
F1
s(S'PP'
S'PMP'
tp234
F10
s(S'NP'
S'NNMMP'
tp235
F1
s(S'PP'
S'ADVPPAP'
tp236
F1
s(S'CP'
S'CCDP'
tp237
F51
s(g68
S'AMVP'
tp238
F1
s(S'NP'
S'NVVVP'
tp239
F3
s(S'CP'
S'CDDDPP'
tp240
F2
s(g44
S'CDADVADVPP'
tp241
F4
s(g223
S'VVVDP'
tp242
F3
s(S'PP'
S'PNNNP'
tp243
F2
s(S'PP'
p244
S'PVP'
tp245
F128
s(S'PP'
S'AAPNP'
tp246
F1
s(g86
S'PADVVVP'
tp247
F1
s(g13
S'PPP'
tp248
F82
s(S'NP'
S'NNADVDP'
tp249
F1
s(g149
S'NAVP'
tp250
F2
s(S'PP'
p251
S'PADVAP'
tp252
F1
s(S'MP'
S'MPNNNP'
tp253
F1
s(S'DP'
S'ADVDVP'
tp254
F6
s(S'PP'
S'PPADVADVNP'
tp255
F1
s(S'NP'
S'NAAAP'
tp256
F1
s(S'NP'
S'NCCCP'
tp257
F2
s(S'DP'
S'DADVADVPPP'
tp258
F1
s(S'DP'
S'ADVADVDNP'
tp259
F1
s(g46
S'VPP'
tp260
F83
s(S'MP'
S'MANP'
tp261
F1
s(g78
S'ADVADVMVP'
tp262
F2
s(S'NP'
S'NNNCP'
tp263
F5
s(S'PP'
S'PADVDP'
tp264
F5
s(S'MP'
S'MADVVAP'
tp265
F1
s(S'CP'
p266
S'CDDPP'
tp267
F23
s(g96
S'DAAPP'
tp268
F3
s(g196
S'PVVP'
tp269
F22
s(S'CP'
S'CADPPP'
tp270
F1
s(g5
S'DADVPPP'
tp271
F4
s(S'VP'
S'ADVAVDDP'
tp272
F1
s(S'VP'
S'ADVVCP'
tp273
F2
s(S'MP'
S'MCCDP'
tp274
F1
s(S'VP'
p275
S'VPPP'
tp276
F7
s(g223
S'VVPPP'
tp277
F1
s(S'NP'
S'NANP'
tp278
F2
s(g7
S'DVVP'
tp279
F17
s(S'NP'
S'ANMP'
tp280
F3
s(g244
S'PPAP'
tp281
F6
s(S'PP'
S'ADVPPP'
tp282
F4
s(S'DP'
S'ADVADPPP'
tp283
F1
s(S'NP'
S'ADVADVNVP'
tp284
F1
s(S'VP'
p285
S'VVVP'
tp286
F2
s(S'CP'
p287
S'CADVDPP'
tp288
F8
s(S'VP'
p289
S'AVMP'
tp290
F2
s(g186
S'ANCP'
tp291
F5
s(S'VP'
S'ADVADVADVVDDP'
tp292
F1
s(S'DP'
p293
S'DCP'
tp294
F9
s(g293
S'DDDP'
tp295
F2
s(S'DP'
S'DDADVPP'
tp296
F1
s(S'MP'
S'MAADP'
tp297
F1
s(g48
S'ANVVP'
tp298
F4
s(g113
S'VVDP'
tp299
F21
s(S'NP'
S'NPPP'
tp300
F15
s(S'AP'
S'APPP'
tp301
F4
s(g194
S'DAVP'
tp302
F3
s(g218
S'CDADVADVADVPP'
tp303
F1
s(g146
S'ACP'
tp304
F13
s(g66
S'PPNP'
tp305
F31
s(S'AP'
S'ADVACCP'
tp306
F1
s(S'DP'
p307
S'ADVDAPP'
tp308
F1
s(S'CP'
S'CDPPPP'
tp309
F1
s(S'CP'
p310
S'CDDADVPP'
tp311
F1
s(S'AP'
p312
S'ADP'
tp313
F153
s(S'DP'
S'DDPPPP'
tp314
F2
s(S'AP'
S'ADVAADDP'
tp315
F1
s(S'PP'
S'PPMP'
tp316
F1
s(S'VP'
S'VVAP'
tp317
F12
s(S'NP'
p318
S'NNADVADVADVVP'
tp319
F1
s(S'PP'
S'PADVADVDP'
tp320
F1
s(S'NP'
p321
S'NPP'
tp322
F137
s(S'VP'
S'ADVADVVAP'
tp323
F2
s(g321
S'NVP'
tp324
F185
s(g94
S'NAAPP'
tp325
F2
s(S'VP'
S'VDDP'
tp326
F21
s(S'AP'
S'ADVADVADVADP'
tp327
F1
s(S'DP'
S'DADVAPP'
tp328
F1
s(g94
S'NADVADVVVP'
tp329
F3
s(S'NP'
S'ANPP'
tp330
F7
s(S'PP'
S'ADVPPDP'
tp331
F3
s(g139
S'PPPPP'
tp332
F5
s(S'MP'
S'MPDP'
tp333
F3
s(S'PP'
S'ADVADVPDP'
tp334
F2
s(S'MP'
S'MVVPP'
tp335
F1
s(S'AP'
S'AMMP'
tp336
F1
s(S'DP'
p337
S'ADVDPP'
tp338
F14
s(S'NP'
S'NPPPP'
tp339
F1
s(S'CP'
S'CAADPP'
tp340
F1
s(S'NP'
S'NAACP'
tp341
F1
s(S'PP'
S'PNNP'
tp342
F35
s(g312
S'AADVAPP'
tp343
F1
s(S'DP'
S'DDDADVADVPPP'
tp344
F2
s(S'DP'
p345
S'DDAAP'
tp346
F2
s(S'MP'
S'MMNP'
tp347
F4
s(S'VP'
S'AVAP'
tp348
F1
s(S'MP'
p349
S'MMVP'
tp350
F3
s(S'MP'
p351
S'MNCP'
tp352
F1
s(S'NP'
p353
S'ADVNCP'
tp354
F3
s(S'DP'
S'DDADVADVPP'
tp355
F1
s(S'DP'
S'ADPP'
tp356
F9
s(g266
S'ACDP'
tp357
F5
s(g289
S'ADVVDDDP'
tp358
F1
s(S'VP'
p359
S'VCCP'
tp360
F6
s(S'AP'
S'ADVANP'
tp361
F2
s(S'NP'
S'NNACP'
tp362
F1
s(S'MP'
S'MDNNP'
tp363
F1
s(g215
S'CDADVPPP'
tp364
F4
s(S'VP'
S'VAP'
tp365
F85
s(S'DP'
S'DDDPP'
tp366
F4
s(S'CP'
S'ADVCDDP'
tp367
F3
s(S'CP'
p368
S'CDAAPP'
tp369
F1
s(S'VP'
S'VADVMP'
tp370
F2
s(S'MP'
S'MVVVDP'
tp371
F1
s(S'VP'
S'ADVADVVVAP'
tp372
F1
s(g154
S'DDDPPP'
tp373
F2
s(S'MP'
S'MVVCCP'
tp374
F1
s(S'VP'
p375
S'ADVVVDP'
tp376
F4
s(S'VP'
S'VVVVNNNP'
tp377
F1
s(S'AP'
S'AADDP'
tp378
F1
s(S'VP'
S'VAANP'
tp379
F1
s(g321
S'NADVADVCP'
tp380
F3
s(S'DP'
S'DADVADVDP'
tp381
F1
s(S'MP'
S'MPNP'
tp382
F4
s(S'MP'
S'MADP'
tp383
F8
s(S'PP'
S'PPPDDP'
tp384
F1
s(S'VP'
S'ADVADVADVVAP'
tp385
F1
s(S'DP'
S'DDADVNP'
tp386
F3
s(S'PP'
S'PANP'
tp387
F4
s(S'DP'
S'ADVADPP'
tp388
F1
s(S'AP'
p389
S'AAVP'
tp390
F4
s(S'NP'
S'NAAP'
tp391
F4
s(S'NP'
p392
S'NDDP'
tp393
F10
s(g389
S'ACCP'
tp394
F8
s(S'DP'
S'DDDADVPP'
tp395
F1
s(g375
S'AVPPP'
tp396
F1
s(g71
S'NDP'
tp397
F58
s(S'NP'
p398
S'AAANVP'
tp399
F2
s(S'MP'
S'MVAAP'
tp400
F1
s(g7
S'DDVP'
tp401
F24
s(S'NP'
S'AANVP'
tp402
F2
s(g285
S'VNNNP'
tp403
F2
s(S'VP'
S'VADVADVPP'
tp404
F1
s(g177
S'ADVPAP'
tp405
F1
s(S'PP'
S'PCP'
tp406
F6
s(g63
S'NNPPP'
tp407
F2
s(g84
S'ADVNNVP'
tp408
F1
s(S'NP'
S'NADVCCP'
tp409
F1
s(g190
S'VPPPP'
tp410
F1
s(S'MP'
S'MPAP'
tp411
F1
s(S'AP'
S'ADVACP'
tp412
F5
s(S'NP'
S'ADVADVNMP'
tp413
F3
s(S'VP'
S'VVVAP'
tp414
F2
s(g63
S'NNVP'
tp415
F27
s(g182
S'MVCP'
tp416
F4
s(g158
S'CCDDP'
tp417
F3
s(S'NP'
S'NNADVVP'
tp418
F3
s(S'MP'
S'MVMP'
tp419
F2
s(g84
S'NNNADVMP'
tp420
F1
s(S'NP'
p421
S'NNVVP'
tp422
F5
s(S'DP'
p423
S'ADADVNNP'
tp424
F1
s(S'VP'
S'VVCP'
tp425
F5
s(S'VP'
S'VDP'
tp426
F150
s(S'VP'
S'VVDDDP'
tp427
F1
s(S'AP'
S'ADVAVVP'
tp428
F3
s(g421
S'NNDDP'
tp429
F1
s(S'VP'
S'ADVVPP'
tp430
F4
s(S'VP'
S'VNNP'
tp431
F21
s(S'AP'
S'AADVDP'
tp432
F3
s(S'NP'
S'NADP'
tp433
F2
s(S'DP'
p434
S'DDNP'
tp435
F40
s(g318
S'NADVCP'
tp436
F2
s(g293
S'DDNNP'
tp437
F7
s(S'PP'
p438
S'PADVADVVVP'
tp439
F1
s(S'NP'
S'ADVADVNCP'
tp440
F1
s(S'DP'
S'AADPP'
tp441
F1
s(g223
S'VADVAVP'
tp442
F1
s(S'VP'
S'VVMMP'
tp443
F1
s(S'AP'
S'AAMMP'
tp444
F1
s(g118
S'AADVADVVP'
tp445
F1
s(S'NP'
S'ANVVVP'
tp446
F1
s(S'MP'
S'MADVVDP'
tp447
F2
s(S'MP'
S'MVVNP'
tp448
F5
s(S'VP'
S'ADVVCCCP'
tp449
F1
s(S'AP'
S'AAPP'
tp450
F1
s(g102
S'VVCCP'
tp451
F4
s(S'PP'
S'PADVMP'
tp452
F2
s(S'MP'
p453
S'MNAAP'
tp454
F1
s(g48
S'NAPP'
tp455
F8
s(S'AP'
S'ADVADVADP'
tp456
F1
s(S'NP'
S'NADVDP'
tp457
F3
s(S'VP'
S'VVVCP'
tp458
F1
s(S'NP'
S'ANCCP'
tp459
F4
s(S'NP'
S'AANPP'
tp460
F1
s(g98
S'NNCCP'
tp461
F5
s(g318
S'NNMP'
tp462
F14
s(S'DP'
S'DDDVP'
tp463
F1
s(g438
S'ADVADVPNP'
tp464
F3
s(S'PP'
S'PPPAP'
tp465
F1
s(S'CP'
S'CDDAPP'
tp466
F2
s(S'MP'
S'MVAP'
tp467
F6
s(S'MP'
S'MVVVAP'
tp468
F1
s(S'VP'
S'VADVPPP'
tp469
F2
s(S'MP'
p470
S'MNAPP'
tp471
F1
s(S'AP'
S'ADVADVAPP'
tp472
F3
s(g287
S'CDDDADVADVPPP'
tp473
F1
s(S'CP'
S'ACDDDP'
tp474
F1
s(S'NP'
S'ADVNAVP'
tp475
F1
s(S'DP'
S'DVVVP'
tp476
F3
s(S'VP'
S'VADVADVADVCCP'
tp477
F1
s(S'NP'
S'ADVADVADVNVP'
tp478
F1
s(g353
S'NNADVADVPPP'
tp479
F1
s(g13
S'PPDDP'
tp480
F3
s(g225
S'NAVVP'
tp481
F1
s(g7
S'DPP'
tp482
F218
s(S'NP'
S'ADVNVP'
tp483
F5
s(S'DP'
S'DDDVVP'
tp484
F1
s(g434
S'DDPP'
tp485
F37
s(S'DP'
S'DANP'
tp486
F22
s(S'AP'
S'ADVAMP'
tp487
F2
s(g392
S'NADVPP'
tp488
F4
s(S'NP'
p489
S'NAAVP'
tp490
F1
s(S'MP'
S'MAVMP'
tp491
F1
s(S'MP'
S'MDNP'
tp492
F9
s(S'PP'
S'PPADVADVVP'
tp493
F1
s(S'PP'
S'ADVADVPPP'
tp494
F1
s(S'PP'
S'AAPDP'
tp495
F2
s(g359
S'ADVADVADVVDP'
tp496
F1
s(S'DP'
S'DDADVNNP'
tp497
F1
s(S'DP'
S'DDADVVP'
tp498
F1
s(g244
S'PDDP'
tp499
F31
s(S'MP'
S'MVDDP'
tp500
F2
s(S'PP'
S'PCCP'
tp501
F2
s(S'DP'
S'ADPPP'
tp502
F1
s(g190
S'AVDP'
tp503
F4
s(g489
S'NNP'
tp504
F1
s(g46
S'VVDDP'
tp505
F2
s(S'DP'
S'DAANP'
tp506
F4
s(S'AP'
S'ADDP'
tp507
F23
s(g51
S'ADVADVADVVNNP'
tp508
F1
s(S'PP'
S'ADVPPNP'
tp509
F2
s(g349
S'MDAP'
tp510
F1
s(S'CP'
S'CADVADVDPP'
tp511
F7
s(g7
S'DPPP'
tp512
F51
s(S'NP'
S'ADVANADVADVVVP'
tp513
F1
s(g368
S'ADVADVADVCCDP'
tp514
F1
s(g141
S'ADVADVPPNP'
tp515
F2
s(S'NP'
S'NMMMP'
tp516
F1
s(g196
S'ADVPNP'
tp517
F3
s(g244
S'PPDP'
tp518
F24
s(g470
S'MAVDP'
tp519
F1
s(S'AP'
S'AAPPP'
tp520
F1
s(S'MP'
S'MNCCP'
tp521
F1
s(g321
S'NAP'
tp522
F63
s(S'NP'
S'NNAAP'
tp523
F3
s(g223
S'ADVAVNP'
tp524
F1
s(S'VP'
S'VVP'
tp525
F36
s(g307
S'DADVNP'
tp526
F4
s(g141
S'ADVADVPVP'
tp527
F1
s(g139
S'APNP'
tp528
F3
s(S'NP'
S'ADVNPP'
tp529
F4
s(S'DP'
S'DDVVP'
tp530
F3
s(S'MP'
S'MVVADVAP'
tp531
F1
s(S'VP'
S'VVVNP'
tp532
F1
s(S'MP'
S'MNPP'
tp533
F2
s(g489
S'NAMP'
tp534
F1
s(S'MP'
S'MVNNP'
tp535
F2
s(S'AP'
S'AAADVPP'
tp536
F1
s(g143
S'CDPP'
tp537
F175
s(S'AP'
S'ADDDP'
tp538
F1
s(S'MP'
S'MMMVP'
tp539
F1
s(g134
S'ADVCDP'
tp540
F4
s(S'VP'
p541
S'ADVADVVNP'
tp542
F2
s(S'MP'
S'MANCCP'
tp543
F1
s(S'VP'
S'VADVADVDP'
tp544
F1
s(S'PP'
S'PPNNP'
tp545
F5
s(S'MP'
S'MPPNP'
tp546
F1
s(g423
S'ADVADVDPP'
tp547
F12
s(g289
S'VADVNP'
tp548
F5
s(S'NP'
S'NADVAP'
tp549
F4
s(S'VP'
S'AVDDP'
tp550
F1
s(g337
S'DAP'
tp551
F19
s(S'CP'
S'CADPP'
tp552
F6
s(S'MP'
S'MDDANP'
tp553
F1
s(S'NP'
S'NADVAVP'
tp554
F1
s(S'MP'
S'MADVADVVDP'
tp555
F1
s(S'NP'
p556
S'NADVADVMP'
tp557
F2
s(S'MP'
S'MPAANP'
tp558
F1
s(g351
S'AMNP'
tp559
F1
s(g541
S'VVADVDP'
tp560
F2
s(S'MP'
S'MPADVADVNP'
tp561
F1
s(S'VP'
S'AAVDP'
tp562
F1
s(S'VP'
p563
S'ADVADVVVP'
tp564
F1
s(g251
S'APPP'
tp565
F3
s(S'MP'
S'MVANNP'
tp566
F1
s(S'DP'
S'DAPPP'
tp567
F1
s(g307
S'DADVADVPP'
tp568
F4
s(S'DP'
S'DMP'
tp569
F4
s(g310
S'CCADP'
tp570
F2
s(S'PP'
S'PPPNP'
tp571
F1
s(g556
S'NADVAPP'
tp572
F1
s(S'PP'
S'PADVADVNP'
tp573
F4
s(g172
S'MNNCCP'
tp574
F1
s(S'AP'
S'AADP'
tp575
F21
s(S'VP'
S'VADVPP'
tp576
F1
s(S'CP'
S'CDDPPP'
tp577
F3
s(S'PP'
S'ADVPVP'
tp578
F2
s(g345
S'DDDDPP'
tp579
F2
s(S'NP'
S'NNVVVP'
tp580
F1
s(S'PP'
S'PADVADVADVNP'
tp581
F2
s(S'PP'
S'PAMP'
tp582
F1
s(S'PP'
S'ADVPDP'
tp583
F3
s(g139
S'PPPVVP'
tp584
F1
s(g321
S'NCP'
tp585
F121
s(S'CP'
S'CADVDPPP'
tp586
F1
s(S'VP'
S'ADVVVPP'
tp587
F2
s(g398
S'NAAANP'
tp588
F1
s(S'DP'
S'ADVVP'
tp589
F1
s(S'CP'
S'CDDADVADVPP'
tp590
F1
s(S'AP'
S'AAMP'
tp591
F4
s(S'MP'
S'MNADVADVADVVP'
tp592
F1
s(g392
S'AANDP'
tp593
F3
s(g563
S'VDDDP'
tp594
F1
s(g453
S'MNVP'
tp595
F12
s(g71
S'NNPP'
tp596
F15
s(S'VP'
S'ADVVDP'
tp597
F12
s(S'DP'
S'DADVPP'
tp598
F8
s(S'VP'
S'VVADVAP'
tp599
F4
s(S'AP'
S'AMP'
tp600
F16
s(S'MP'
S'ADVMNP'
tp601
F2
s(g19
S'ADVNNCP'
tp602
F1
s(S'DP'
S'ADVDAP'
tp603
F2
s(S'AP'
S'ADVAPP'
tp604
F2
s(S'CP'
S'CCDDDP'
tp605
F1
s(g24
S'ADVDPPP'
tp606
F2
s(g7
S'DVP'
tp607
F139
s(S'AP'
S'AADVADVPP'
tp608
F2
s(S'MP'
S'MDDNNP'
tp609
F1
s(S'AP'
S'AVP'
tp610
F19
s(S'NP'
S'NADVVP'
tp611
F12
s(S'MP'
S'MADVADVPNP'
tp612
F1
s(S'MP'
S'MDDDNP'
tp613
F1
s(S'PP'
S'ADVADVADVPPP'
tp614
F1
s(g61
S'DDPPP'
tp615
F9
s(S'NP'
S'ADVNMP'
tp616
F4
s(S'NP'
S'NNAP'
tp617
F9
s(S'PP'
S'PPANP'
tp618
F2
s(S'CP'
S'CDADVPP'
tp619
F4
s(g46
S'VNP'
tp620
F134
s(S'VP'
S'VANP'
tp621
F1
s(g275
S'VADVAP'
tp622
F9
s(S'VP'
S'ADVADVVVDP'
tp623
F1
s(g42
S'NADVPPP'
tp624
F1
s.