ccollections
defaultdict
p1
(c__builtin__
float
p2
tRp3
(S'MP'
S'MMDP'
tp4
F3
s(S'NP'
S'AANDDP'
tp5
F1
s(S'DP'
S'ADDPP'
tp6
F2
s(S'DP'
p7
S'DDAP'
tp8
F3
s(S'VP'
S'ADVVVNP'
tp9
F1
s(S'VP'
p10
S'VVVVP'
tp11
F2
s(S'DP'
S'DAANNP'
tp12
F1
s(S'MP'
p13
S'MMAVVP'
tp14
F1
s(S'PP'
p15
S'PAPP'
tp16
F9
s(S'PP'
p17
S'PADVNP'
tp18
F16
s(S'DP'
p19
S'DNP'
tp20
F348
s(g13
S'MVVAAP'
tp21
F1
s(S'NP'
p22
S'ADVNDP'
tp23
F1
s(S'PP'
S'AAPDDP'
tp24
F1
s(S'NP'
S'NNNAAP'
tp25
F1
s(S'CP'
p26
S'CDPPP'
tp27
F65
s(S'VP'
p28
S'VADP'
tp29
F6
s(S'VP'
S'ADVADVVAP'
tp30
F1
s(S'CP'
S'ACADVADVDP'
tp31
F1
s(S'DP'
S'DAAP'
tp32
F3
s(S'MP'
S'MVVMMP'
tp33
F1
s(S'DP'
S'DDDADVADVPP'
tp34
F1
s(S'MP'
p35
S'MDVP'
tp36
F1
s(S'PP'
p37
S'APVP'
tp38
F11
s(S'NP'
S'NNADVADVAVP'
tp39
F1
s(S'PP'
S'PADVANP'
tp40
F2
s(S'PP'
p41
S'PPPP'
tp42
F32
s(S'DP'
S'DDDNP'
tp43
F2
s(S'MP'
S'AMCP'
tp44
F1
s(S'VP'
S'VACP'
tp45
F1
s(S'PP'
p46
S'PPAAP'
tp47
F1
s(S'DP'
S'DADVVP'
tp48
F3
s(S'MP'
S'MMCP'
tp49
F1
s(S'AP'
p50
S'AADVPP'
tp51
F3
s(S'AP'
p52
S'AADVADVADVMP'
tp53
F1
s(S'MP'
p54
S'MVVNNNP'
tp55
F1
s(S'NP'
S'NADVACP'
tp56
F1
s(S'NP'
S'NCCCP'
tp57
F4
s(S'VP'
S'VCP'
tp58
F86
s(S'MP'
p59
S'ADVADVADVMDP'
tp60
F1
s(S'NP'
p61
S'NMMP'
tp62
F12
s(S'NP'
S'NNADVAP'
tp63
F1
s(S'VP'
S'ADVVCCP'
tp64
F1
s(g41
S'PAP'
tp65
F91
s(S'MP'
S'MMVVP'
tp66
F1
s(S'PP'
S'APVVP'
tp67
F1
s(S'PP'
S'PPADVDP'
tp68
F1
s(S'MP'
S'AMVP'
tp69
F1
s(S'PP'
p70
S'PNP'
tp71
F310
s(S'DP'
S'ADDP'
tp72
F1
s(S'DP'
S'DDP'
tp73
F39
s(S'NP'
p74
S'NNNPP'
tp75
F5
s(S'NP'
p76
S'NNDP'
tp77
F21
s(S'MP'
S'MCDP'
tp78
F8
s(S'NP'
p79
S'NNADVADVCP'
tp80
F1
s(S'MP'
S'MNAP'
tp81
F1
s(S'VP'
S'ADVADVVVCP'
tp82
F1
s(S'NP'
p83
S'NMP'
tp84
F122
s(S'NP'
S'ADVNCCP'
tp85
F1
s(S'DP'
S'DDDDPP'
tp86
F1
s(S'VP'
p87
S'VMMP'
tp88
F10
s(S'PP'
S'PDP'
tp89
F302
s(S'VP'
S'VAMP'
tp90
F2
s(S'NP'
S'ADVADVADVNDP'
tp91
F1
s(S'MP'
S'MADVVNP'
tp92
F2
s(S'CP'
S'CDADVADVPPP'
tp93
F1
s(S'AP'
S'ANP'
tp94
F4
s(S'PP'
S'PADVPP'
tp95
F1
s(S'VP'
S'VVADVNP'
tp96
F1
s(S'PP'
S'PPADVAP'
tp97
F1
s(S'NP'
S'ANVVVVP'
tp98
F1
s(S'DP'
S'DPPPP'
tp99
F5
s(S'DP'
S'DDANP'
tp100
F1
s(S'NP'
S'NACP'
tp101
F6
s(S'AP'
S'ADVAVP'
tp102
F1
s(S'NP'
p103
S'NCCP'
tp104
F55
s(S'MP'
S'MVVADVNP'
tp105
F1
s(S'VP'
S'VVADVCP'
tp106
F1
s(S'VP'
S'VVCCCP'
tp107
F1
s(S'NP'
p108
S'NNCP'
tp109
F62
s(S'DP'
S'ADVDDPP'
tp110
F4
s(g74
S'NADVADVVP'
tp111
F5
s(S'NP'
S'NNPPPP'
tp112
F1
s(S'DP'
p113
S'DDDDP'
tp114
F2
s(S'VP'
S'AVNP'
tp115
F6
s(S'VP'
S'VANNP'
tp116
F2
s(S'VP'
S'ADVADVADVVVDP'
tp117
F1
s(S'PP'
p118
S'AAPNP'
tp119
F2
s(S'VP'
p120
S'ADVADVAVNP'
tp121
F1
s(S'VP'
p122
S'VADVVP'
tp123
F2
s(S'MP'
p124
S'MVAPP'
tp125
F1
s(S'MP'
S'MVPPP'
tp126
F1
s(S'NP'
S'ANADVVP'
tp127
F2
s(S'MP'
p128
S'AMMVP'
tp129
F1
s(S'MP'
S'MADVADVVNNP'
tp130
F1
s(S'VP'
p131
S'ADVVAP'
tp132
F4
s(S'VP'
S'VCCCP'
tp133
F1
s(g15
S'APDP'
tp134
F16
s(S'VP'
S'ADVVNNP'
tp135
F2
s(S'NP'
S'ADVANADVPP'
tp136
F1
s(S'DP'
p137
S'DNNNNP'
tp138
F1
s(S'VP'
S'VVANP'
tp139
F2
s(S'MP'
S'ADVMPP'
tp140
F1
s(S'VP'
S'VVVVDP'
tp141
F1
s(S'PP'
p142
S'PCCP'
tp143
F2
s(S'PP'
S'PAAP'
tp144
F11
s(S'MP'
p145
S'MPNNP'
tp146
F3
s(S'NP'
S'ADVANCP'
tp147
F1
s(S'DP'
p148
S'DNNP'
tp149
F90
s(S'CP'
S'CADVDDPP'
tp150
F2
s(S'DP'
S'DPPPPP'
tp151
F2
s(S'CP'
S'CCADVDP'
tp152
F6
s(S'VP'
p153
S'VVNNNP'
tp154
F2
s(S'PP'
S'AAPPDP'
tp155
F1
s(S'PP'
p156
S'PADVVP'
tp157
F7
s(S'DP'
S'DADVADVADVPPP'
tp158
F2
s(S'PP'
p159
S'ADVAPNNP'
tp160
F1
s(S'AP'
p161
S'APP'
tp162
F44
s(S'NP'
S'NADVMP'
tp163
F3
s(S'CP'
S'CADDPPP'
tp164
F1
s(S'VP'
S'VADVADVVP'
tp165
F1
s(S'CP'
p166
S'CADVADPP'
tp167
F1
s(S'DP'
S'DADVADVNP'
tp168
F1
s(S'VP'
p169
S'ADVADVVMP'
tp170
F2
s(g156
S'ADVAPADVDP'
tp171
F1
s(S'NP'
p172
S'NAANP'
tp173
F1
s(S'MP'
S'MPVP'
tp174
F2
s(S'MP'
S'MVVCP'
tp175
F1
s(S'PP'
S'PAANP'
tp176
F1
s(S'VP'
S'VADVADVCP'
tp177
F2
s(g159
S'PPVVP'
tp178
F6
s(S'MP'
p179
S'ADVADVMVP'
tp180
F1
s(g54
S'MVNP'
tp181
F43
s(S'MP'
S'MNDP'
tp182
F2
s(S'AP'
p183
S'ADVAADP'
tp184
F1
s(S'PP'
S'PAVP'
tp185
F7
s(S'MP'
S'ADVMVP'
tp186
F1
s(S'VP'
p187
S'ADVVMP'
tp188
F3
s(S'VP'
S'VVVPP'
tp189
F1
s(g131
S'VVADVAPP'
tp190
F1
s(S'AP'
S'ADVACCP'
tp191
F1
s(S'DP'
p192
S'DADP'
tp193
F2
s(S'AP'
S'ADVADP'
tp194
F3
s(S'NP'
S'NAMMP'
tp195
F1
s(S'MP'
S'MDPP'
tp196
F2
s(g137
S'ADVDDP'
tp197
F1
s(S'PP'
S'APDDP'
tp198
F2
s(S'MP'
S'MNACP'
tp199
F1
s(S'NP'
p200
S'ADVNAP'
tp201
F3
s(g37
S'PPCP'
tp202
F1
s(S'VP'
S'ADVVNP'
tp203
F11
s(S'MP'
S'MADVADVVPP'
tp204
F1
s(S'MP'
S'MNNCP'
tp205
F2
s(S'MP'
S'MNCP'
tp206
F11
s(g122
S'VVNP'
tp207
F44
s(S'PP'
S'PPVP'
tp208
F43
s(S'MP'
S'MVDP'
tp209
F30
s(S'MP'
S'MPCP'
tp210
F2
s(S'VP'
S'VADVDP'
tp211
F4
s(S'MP'
S'MAPNP'
tp212
F2
s(S'VP'
p213
S'VAAP'
tp214
F22
s(S'NP'
S'ANDP'
tp215
F5
s(g108
S'NVVP'
tp216
F75
s(g118
S'AAPVP'
tp217
F2
s(S'AP'
S'AAP'
tp218
F3
s(S'VP'
p219
S'VMP'
tp220
F81
s(S'NP'
S'AANNMP'
tp221
F1
s(S'VP'
S'VVNNP'
tp222
F10
s(S'CP'
S'CDAPP'
tp223
F18
s(g187
S'VVAAP'
tp224
F5
s(S'MP'
S'MMPP'
tp225
F1
s(S'NP'
S'ANCCP'
tp226
F3
s(S'VP'
S'ADVADVVVNNP'
tp227
F1
s(S'DP'
p228
S'ADNP'
tp229
F9
s(g153
S'ADVADVVNP'
tp230
F2
s(S'PP'
p231
S'PADP'
tp232
F7
s(S'VP'
S'ADVVVCP'
tp233
F1
s(S'AP'
S'AAADVADVDP'
tp234
F1
s(g228
S'ADVADVDVP'
tp235
F2
s(S'DP'
p236
S'DADVAP'
tp237
F3
s(S'PP'
p238
S'ADVADVPMP'
tp239
F1
s(S'DP'
S'DAPP'
tp240
F30
s(S'VP'
S'VVVVPP'
tp241
F1
s(S'VP'
S'ADVADVVPP'
tp242
F2
s(S'VP'
S'VADVADVNP'
tp243
F3
s(S'MP'
S'MDDNP'
tp244
F4
s(S'VP'
S'ADVADVVDP'
tp245
F5
s(g187
S'AVVNP'
tp246
F1
s(S'PP'
S'PPPDP'
tp247
F2
s(S'MP'
S'MVVVDP'
tp248
F1
s(S'NP'
p249
S'NADVADVANP'
tp250
F1
s(S'AP'
S'AAPPP'
tp251
F1
s(S'VP'
S'VDDDDP'
tp252
F1
s(S'DP'
p253
S'DADVANP'
tp254
F1
s(S'DP'
S'ADVDNP'
tp255
F5
s(g131
S'VVPP'
tp256
F31
s(S'MP'
S'MMMDP'
tp257
F1
s(S'MP'
S'MNPPP'
tp258
F1
s(S'MP'
S'MVPP'
tp259
F17
s(S'DP'
S'ADVP'
tp260
F3
s(S'CP'
S'CDDPPP'
tp261
F2
s(S'PP'
S'PPPAP'
tp262
F1
s(g156
S'PVVP'
tp263
F43
s(S'NP'
p264
S'NNPP'
tp265
F33
s(S'MP'
S'MVVDP'
tp266
F4
s(S'DP'
S'DADVPPP'
tp267
F2
s(S'NP'
S'ANVP'
tp268
F14
s(g236
S'DNNNP'
tp269
F10
s(S'MP'
S'MPPDP'
tp270
F2
s(S'PP'
S'PADVADVVP'
tp271
F1
s(S'VP'
S'VADVDDP'
tp272
F2
s(S'PP'
S'PMMP'
tp273
F4
s(S'PP'
S'PVVVP'
tp274
F3
s(S'PP'
p275
S'PMP'
tp276
F10
s(S'CP'
S'CCDP'
tp277
F86
s(S'VP'
S'VADVANP'
tp278
F2
s(S'VP'
S'VPPP'
tp279
F11
s(S'MP'
S'MVAP'
tp280
F13
s(S'VP'
S'ADVAVVP'
tp281
F1
s(S'NP'
S'NVVVP'
tp282
F13
s(S'CP'
S'CDDDPP'
tp283
F6
s(S'PP'
p284
S'PPADVVP'
tp285
F1
s(S'VP'
S'VVVDP'
tp286
F5
s(S'PP'
S'PDDDDP'
tp287
F1
s(S'PP'
S'PNNNP'
tp288
F5
s(S'VP'
S'VAAPPP'
tp289
F1
s(S'AP'
S'AACCP'
tp290
F1
s(g219
S'VVMP'
tp291
F14
s(S'VP'
S'ADVVVDP'
tp292
F4
s(g70
S'PPP'
tp293
F127
s(S'NP'
p294
S'NAVP'
tp295
F5
s(S'PP'
S'PADVAP'
tp296
F2
s(g253
S'DDNNNP'
tp297
F4
s(S'MP'
S'AMDP'
tp298
F1
s(S'PP'
S'PADDP'
tp299
F1
s(S'DP'
p300
S'ADVDVP'
tp301
F6
s(g79
S'NAAAP'
tp302
F1
s(g76
S'NADVVVP'
tp303
F5
s(S'DP'
S'DADVADVPPP'
tp304
F1
s(S'AP'
S'AADVVP'
tp305
F1
s(S'PP'
S'PPPPDP'
tp306
F1
s(S'DP'
S'DAAAP'
tp307
F1
s(S'DP'
S'ADVADVDNP'
tp308
F2
s(g187
S'VPP'
tp309
F161
s(S'CP'
S'ADVCCDP'
tp310
F1
s(S'CP'
S'ACCDP'
tp311
F1
s(S'DP'
S'ADVDDNP'
tp312
F1
s(S'NP'
p313
S'NNNCP'
tp314
F11
s(S'PP'
S'PADVDP'
tp315
F7
s(S'CP'
S'CDADVAPP'
tp316
F2
s(g17
S'PADVAAP'
tp317
F2
s(S'CP'
S'CDDPP'
tp318
F67
s(S'DP'
S'DAAPP'
tp319
F4
s(S'MP'
S'MVVANP'
tp320
F2
s(S'CP'
S'CADPPP'
tp321
F3
s(S'AP'
S'AACP'
tp322
F4
s(S'MP'
S'MAVCP'
tp323
F1
s(S'VP'
p324
S'ADVVCP'
tp325
F2
s(g179
S'MCCDP'
tp326
F2
s(g17
S'PPNNNP'
tp327
F2
s(S'MP'
S'MVVVVAP'
tp328
F1
s(g87
S'VVPPP'
tp329
F1
s(S'MP'
S'MMPPP'
tp330
F2
s(S'PP'
S'PPAP'
tp331
F8
s(g253
S'DVVP'
tp332
F35
s(S'PP'
S'ADVADVADVPPPP'
tp333
F1
s(S'NP'
S'ANMP'
tp334
F3
s(S'AP'
S'APPP'
tp335
F2
s(S'PP'
S'ADVPPP'
tp336
F3
s(S'NP'
S'ADVADVNVP'
tp337
F2
s(S'VP'
p338
S'VVVP'
tp339
F11
s(S'CP'
S'CADVDPP'
tp340
F7
s(S'VP'
p341
S'AVMP'
tp342
F2
s(S'NP'
p343
S'ANCP'
tp344
F23
s(S'DP'
S'DCP'
tp345
F11
s(S'NP'
S'ANNCP'
tp346
F2
s(S'DP'
S'DDDNNP'
tp347
F1
s(S'AP'
S'AAAPP'
tp348
F1
s(S'DP'
S'DADVADVADVNP'
tp349
F1
s(S'NP'
S'NNVVVVP'
tp350
F2
s(S'PP'
S'ADVADVADVPPNP'
tp351
F1
s(S'DP'
p352
S'DDDP'
tp353
F9
s(S'DP'
S'ADVDPPPPP'
tp354
F1
s(S'DP'
S'DDADVPP'
tp355
F3
s(S'MP'
S'MAADP'
tp356
F3
s(S'NP'
S'ANVVP'
tp357
F6
s(S'NP'
S'NVVVVP'
tp358
F2
s(g61
S'NPPP'
tp359
F33
s(S'AP'
S'AAADP'
tp360
F2
s(g7
S'DAVP'
tp361
F3
s(g74
S'NNNMP'
tp362
F4
s(S'AP'
S'ACP'
tp363
F39
s(g275
S'PPNP'
tp364
F46
s(S'NP'
S'ADVADVANPP'
tp365
F1
s(S'MP'
S'MADNP'
tp366
F1
s(S'MP'
S'MACP'
tp367
F1
s(S'MP'
S'ADVMDP'
tp368
F1
s(S'CP'
S'CDDADVPP'
tp369
F2
s(S'CP'
S'CCCDDP'
tp370
F2
s(S'AP'
S'ADP'
tp371
F189
s(S'PP'
S'APMP'
tp372
F1
s(S'MP'
S'MVVP'
tp373
F1
s(S'NP'
S'ADVANCCP'
tp374
F1
s(S'MP'
S'MADDP'
tp375
F1
s(S'VP'
S'ADVADVVNNP'
tp376
F3
s(g87
S'AVDP'
tp377
F6
s(g120
S'VVAP'
tp378
F14
s(S'PP'
S'PADVADVDP'
tp379
F1
s(g200
S'NADVAPP'
tp380
F1
s(S'PP'
S'PPPPNP'
tp381
F1
s(g108
S'NVP'
tp382
F344
s(S'CP'
S'ADVCCDDP'
tp383
F1
s(S'VP'
S'VVNNNNP'
tp384
F1
s(S'NP'
S'NAAPP'
tp385
F2
s(g213
S'VDDP'
tp386
F46
s(S'DP'
S'DADVAPP'
tp387
F2
s(S'NP'
p388
S'NADVADVVVP'
tp389
F2
s(g108
S'ANPP'
tp390
F22
s(S'PP'
S'ADVPPDP'
tp391
F1
s(S'PP'
p392
S'PPPPP'
tp393
F1
s(g35
S'MPDP'
tp394
F17
s(g46
S'ADVADVPDP'
tp395
F1
s(g238
S'PPPNP'
tp396
F5
s(S'MP'
S'MMDDP'
tp397
F1
s(S'MP'
S'MDADVNNP'
tp398
F1
s(S'NP'
S'NPPPP'
tp399
F1
s(S'AP'
S'AADVADVDP'
tp400
F1
s(g22
S'NNCCCCP'
tp401
F1
s(g341
S'VVVMP'
tp402
F1
s(S'CP'
S'CAADPP'
tp403
F4
s(S'DP'
S'DADVADVVP'
tp404
F1
s(g22
S'NAACP'
tp405
F1
s(g70
S'PNNP'
tp406
F76
s(S'MP'
S'MADVANP'
tp407
F1
s(S'CP'
S'CDADVADVADVPPP'
tp408
F1
s(S'PP'
S'APNNP'
tp409
F2
s(S'DP'
S'DDAAP'
tp410
F1
s(S'MP'
S'MMNP'
tp411
F6
s(S'VP'
S'VVAACP'
tp412
F1
s(S'VP'
S'AVAP'
tp413
F1
s(S'MP'
S'MMVP'
tp414
F13
s(S'PP'
S'PADVDDP'
tp415
F1
s(S'NP'
S'ADVNCP'
tp416
F11
s(S'AP'
S'AADP'
tp417
F41
s(S'NP'
S'ADVANNP'
tp418
F1
s(S'MP'
S'MPDDP'
tp419
F1
s(S'VP'
p420
S'VAPPP'
tp421
F1
s(S'CP'
S'ACDP'
tp422
F9
s(S'VP'
p423
S'VCCP'
tp424
F11
s(S'AP'
p425
S'ADVANP'
tp426
F5
s(S'CP'
p427
S'CCCCDDP'
tp428
F1
s(S'MP'
p429
S'MDNNP'
tp430
F7
s(S'VP'
p431
S'VAP'
tp432
F140
s(S'VP'
p433
S'VVVVNP'
tp434
F2
s(S'MP'
S'MNVVP'
tp435
F3
s(g113
S'DDDPP'
tp436
F12
s(S'CP'
S'ADVCDDP'
tp437
F1
s(S'CP'
S'CDAAPP'
tp438
F3
s(g420
S'VADVMP'
tp439
F2
s(S'PP'
S'PAAPP'
tp440
F1
s(g52
S'AAVVP'
tp441
F1
s(S'MP'
S'MNMP'
tp442
F2
s(S'MP'
S'MAVPP'
tp443
F1
s(S'DP'
S'DDDPPP'
tp444
F2
s(g103
S'NAAP'
tp445
F7
s(S'PP'
S'PPPVP'
tp446
F3
s(S'AP'
S'AADDP'
tp447
F3
s(S'NP'
S'NNNADVADVVP'
tp448
F1
s(S'MP'
S'MDADVADVNP'
tp449
F1
s(g124
S'MNNVP'
tp450
F1
s(S'VP'
S'VAANP'
tp451
F1
s(S'MP'
S'MNADVCP'
tp452
F1
s(S'VP'
p453
S'VVDP'
tp454
F50
s(g145
S'MPNP'
tp455
F19
s(S'MP'
S'MADP'
tp456
F9
s(S'NP'
S'NNNDDP'
tp457
F1
s(g425
S'AMMP'
tp458
F5
s(S'DP'
p459
S'DDADVNP'
tp460
F3
s(S'PP'
S'PANP'
tp461
F16
s(S'DP'
S'AADNP'
tp462
F1
s(S'NP'
p463
S'AANMP'
tp464
F1
s(S'AP'
S'AAVP'
tp465
F2
s(S'AP'
S'AVVP'
tp466
F8
s(S'NP'
S'NDDP'
tp467
F15
s(S'PP'
S'APPDDP'
tp468
F1
s(S'CP'
S'ADVADVCDP'
tp469
F3
s(S'AP'
S'ACCP'
tp470
F2
s(g338
S'VVVVAP'
tp471
F1
s(S'AP'
S'APPPP'
tp472
F1
s(g343
S'NDP'
tp473
F107
s(S'NP'
S'NNADVADVDP'
tp474
F1
s(S'MP'
S'MVAAP'
tp475
F1
s(g148
S'DDVP'
tp476
F28
s(S'NP'
S'AANVP'
tp477
F2
s(g10
S'ADVVVNNP'
tp478
F2
s(g213
S'VNNNP'
tp479
F1
s(g37
S'ADVPAP'
tp480
F4
s(S'PP'
S'PCP'
tp481
F17
s(S'NP'
S'NNPPP'
tp482
F5
s(S'NP'
S'NADVCCP'
tp483
F2
s(S'VP'
S'VPPPP'
tp484
F3
s(g392
S'PPPVVP'
tp485
F1
s(S'PP'
S'PACP'
tp486
F1
s(S'MP'
p487
S'MPAP'
tp488
F1
s(S'NP'
S'NNNDP'
tp489
F1
s(S'AP'
S'ADVACP'
tp490
F4
s(g388
S'ADVADVNMP'
tp491
F1
s(S'VP'
S'VVVAP'
tp492
F1
s(g459
S'ADPPP'
tp493
F3
s(S'MP'
p494
S'MVCP'
tp495
F7
s(S'CP'
S'CCDDP'
tp496
F10
s(S'NP'
S'NNADVVP'
tp497
F1
s(S'CP'
S'CADVDPPPPP'
tp498
F1
s(S'MP'
S'MVMP'
tp499
F2
s(g313
S'ADVANAP'
tp500
F1
s(S'MP'
S'MAADDP'
tp501
F1
s(g343
S'NNVVP'
tp502
F12
s(S'NP'
S'NNNNVP'
tp503
F2
s(g453
S'VVCP'
tp504
F21
s(g172
S'AANCP'
tp505
F3
s(g423
S'VADVNP'
tp506
F3
s(S'VP'
S'ADVAVAP'
tp507
F1
s(g183
S'ADVAVVP'
tp508
F1
s(S'CP'
S'CDDDADVADVPP'
tp509
F1
s(S'NP'
S'NNDDP'
tp510
F4
s(g431
S'ADVVPP'
tp511
F3
s(S'VP'
S'VVADVANP'
tp512
F1
s(S'NP'
S'ADVNNVVP'
tp513
F1
s(S'CP'
S'CDAPPP'
tp514
F1
s(g453
S'VNNP'
tp515
F34
s(S'AP'
S'AADVDP'
tp516
F3
s(S'NP'
S'NADP'
tp517
F1
s(S'DP'
p518
S'DDNP'
tp519
F47
s(S'NP'
p520
S'NADVCP'
tp521
F7
s(g300
S'DDNNP'
tp522
F13
s(S'NP'
S'ADVADVNCP'
tp523
F3
s(g192
S'AADPP'
tp524
F4
s(S'VP'
S'VVMMP'
tp525
F2
s(S'PP'
S'AAPDP'
tp526
F3
s(S'DP'
S'DADVADVAP'
tp527
F1
s(g487
S'MADVVDP'
tp528
F2
s(S'MP'
S'MVVNP'
tp529
F3
s(S'DP'
S'ADVDNNP'
tp530
F1
s(S'AP'
S'AAPP'
tp531
F7
s(S'VP'
S'VVCCP'
tp532
F2
s(S'DP'
S'DADVVVP'
tp533
F1
s(S'MP'
S'MNAAP'
tp534
F1
s(S'PP'
S'ADVPANP'
tp535
F1
s(g264
S'NAPP'
tp536
F8
s(g284
S'APPVP'
tp537
F1
s(S'AP'
S'ADVADVADP'
tp538
F1
s(S'VP'
S'VVVCP'
tp539
F2
s(g161
S'AACCCP'
tp540
F1
s(S'NP'
S'AANPP'
tp541
F1
s(S'VP'
S'VDDDP'
tp542
F2
s(S'NP'
S'NNMP'
tp543
F23
s(S'DP'
S'DDDVP'
tp544
F2
s(S'MP'
S'MCCDDP'
tp545
F1
s(S'CP'
S'CADDPP'
tp546
F1
s(g128
S'MAPDP'
tp547
F2
s(S'MP'
S'MDANP'
tp548
F2
s(S'NP'
S'ANAP'
tp549
F3
s(S'VP'
S'VADVADVANP'
tp550
F1
s(g275
S'PVP'
tp551
F242
s(S'DP'
S'DADVAVP'
tp552
F2
s(S'DP'
S'DVVVP'
tp553
F1
s(S'PP'
p554
S'PPADVPP'
tp555
F1
s(S'MP'
S'MAADVDP'
tp556
F1
s(g249
S'ADVADVANVP'
tp557
F2
s(g231
S'PPDDP'
tp558
F12
s(S'VP'
S'AVCP'
tp559
F2
s(S'DP'
S'DDVVVP'
tp560
F1
s(g148
S'DPP'
tp561
F404
s(g74
S'ADVNVP'
tp562
F6
s(g352
S'DDPP'
tp563
F107
s(g148
S'DANP'
tp564
F41
s(S'AP'
S'ADVAMP'
tp565
F8
s(S'NP'
S'NADVPP'
tp566
F2
s(S'MP'
S'MMAP'
tp567
F3
s(S'PP'
S'PDDDP'
tp568
F4
s(S'VP'
S'VADVCP'
tp569
F2
s(S'NP'
S'NNNNCP'
tp570
F2
s(g54
S'MDNP'
tp571
F27
s(S'DP'
S'ADDPPP'
tp572
F1
s(S'PP'
S'PPADVADVVP'
tp573
F1
s(S'PP'
S'AAPNNP'
tp574
F1
s(S'DP'
S'DCCP'
tp575
F1
s(S'PP'
S'ADVADVPPP'
tp576
F1
s(S'CP'
S'CDPPPPP'
tp577
F1
s(g300
S'ADVADPP'
tp578
F1
s(S'DP'
S'DDADVVP'
tp579
F1
s(g156
S'PDDP'
tp580
F36
s(S'MP'
S'MVDDP'
tp581
F4
s(S'PP'
S'ADVAPNP'
tp582
F1
s(g83
S'NNVP'
tp583
F70
s(S'AP'
S'ADVADVACP'
tp584
F1
s(S'NP'
S'NNP'
tp585
F3
s(S'VP'
S'VVDDP'
tp586
F5
s(S'DP'
S'DAANP'
tp587
F3
s(S'AP'
S'ADDP'
tp588
F24
s(S'PP'
S'PNNNNP'
tp589
F2
s(g324
S'ADVVVAP'
tp590
F1
s(S'PP'
S'ADVPPNP'
tp591
F1
s(S'CP'
S'CADVADVDPP'
tp592
F4
s(S'DP'
p593
S'DPPP'
tp594
F101
s(S'NP'
S'NADVADVAAP'
tp595
F1
s(g142
S'ADVADVPPNP'
tp596
F1
s(S'NP'
S'NNAVP'
tp597
F1
s(S'NP'
S'NNNADVVVP'
tp598
F1
s(S'DP'
S'DDADVADVNP'
tp599
F1
s(S'PP'
S'ADVPNP'
tp600
F5
s(g275
S'PPDP'
tp601
F40
s(S'AP'
S'ADVAAPPP'
tp602
F1
s(S'MP'
S'MAVDP'
tp603
F1
s(S'MP'
S'MNMMP'
tp604
F1
s(S'DP'
S'DDCP'
tp605
F4
s(S'VP'
S'VMMMP'
tp606
F1
s(S'AP'
S'ANNP'
tp607
F1
s(S'AP'
p608
S'ADVADVAADP'
tp609
F1
s(S'MP'
S'MNCCP'
tp610
F1
s(S'NP'
S'NAP'
tp611
F62
s(S'NP'
S'NNAAP'
tp612
F3
s(g433
S'VVP'
tp613
F38
s(S'DP'
S'DADVNP'
tp614
F7
s(S'PP'
S'PADVADVANP'
tp615
F1
s(S'PP'
S'APNP'
tp616
F13
s(S'VP'
S'VVVNNP'
tp617
F3
s(S'DP'
p618
S'DDVVP'
tp619
F11
s(g169
S'VVVNP'
tp620
F8
s(g13
S'MNPP'
tp621
F13
s(S'NP'
S'NAMP'
tp622
F2
s(S'MP'
S'MVANP'
tp623
F2
s(S'MP'
S'MVNNP'
tp624
F3
s(S'CP'
S'CDPP'
tp625
F336
s(S'MP'
S'MVVNNP'
tp626
F2
s(S'AP'
S'ADDDP'
tp627
F2
s(S'CP'
S'ADVCADP'
tp628
F1
s(S'CP'
S'ADVCDP'
tp629
F8
s(S'AP'
S'ADVAAP'
tp630
F1
s(S'PP'
S'PPPPAP'
tp631
F1
s(S'CP'
S'ADVACDP'
tp632
F1
s(S'VP'
S'ADVADVVCP'
tp633
F1
s(S'VP'
S'VADVADVDP'
tp634
F3
s(g41
S'PPNNP'
tp635
F8
s(S'PP'
S'ADVPAVP'
tp636
F1
s(S'PP'
S'PPMP'
tp637
F3
s(S'DP'
S'ADVADVDPP'
tp638
F7
s(g219
S'VDP'
tp639
F255
s(g463
S'NADVAP'
tp640
F2
s(S'VP'
S'AVDDP'
tp641
F1
s(g593
S'DAP'
tp642
F27
s(S'MP'
S'MCADVDP'
tp643
F1
s(S'CP'
S'CADPP'
tp644
F15
s(S'MP'
S'MADVADVVDP'
tp645
F1
s(g28
S'ADVADVVCCP'
tp646
F1
s(S'VP'
S'AVPP'
tp647
F3
s(S'NP'
S'NADVADVMP'
tp648
F1
s(g59
S'AMNP'
tp649
F1
s(S'VP'
S'VVADVDP'
tp650
F1
s(S'CP'
S'CDADVADVPP'
tp651
F2
s(S'CP'
S'CDPPPP'
tp652
F2
s(S'NP'
S'ADVANMP'
tp653
F1
s(S'PP'
S'APPP'
tp654
F7
s(S'DP'
S'DAPPP'
tp655
F1
s(S'DP'
S'DADVADVPP'
tp656
F2
s(S'DP'
S'DMP'
tp657
F2
s(S'CP'
S'CCADP'
tp658
F1
s(g518
S'ADVDPP'
tp659
F14
s(g343
S'NPP'
tp660
F259
s(S'PP'
S'PPAANP'
tp661
F1
s(S'PP'
S'PADVADVNP'
tp662
F1
s(g200
S'NNNP'
tp663
F2
s(g228
S'ADPP'
tp664
F22
s(g618
S'ADVDANP'
tp665
F1
s(S'CP'
S'CCADVDDP'
tp666
F1
s(g37
S'ADVPVP'
tp667
F8
s(S'NP'
S'NADVADVADVVVP'
tp668
F1
s(S'MP'
S'ADVMVVP'
tp669
F1
s(S'NP'
S'NNVVVP'
tp670
F1
s(S'VP'
S'ADVVANP'
tp671
F1
s(S'PP'
S'ADVPDP'
tp672
F4
s(g520
S'ADVNNPP'
tp673
F1
s(g343
S'NCP'
tp674
F300
s(S'CP'
S'CADVDPPP'
tp675
F2
s(S'VP'
S'VAADP'
tp676
F1
s(g608
S'AAMP'
tp677
F2
s(g494
S'MVCCP'
tp678
F1
s(S'DP'
S'DADVNNP'
tp679
F2
s(g294
S'NNCCP'
tp680
F9
s(g429
S'MNVP'
tp681
F9
s(S'PP'
S'PADVADVAP'
tp682
F2
s(S'VP'
S'VAPP'
tp683
F5
s(g122
S'ADVVDP'
tp684
F12
s(g300
S'DADVPP'
tp685
F18
s(S'AP'
S'AMP'
tp686
F36
s(S'MP'
S'ADVMNP'
tp687
F1
s(g50
S'ADVAPP'
tp688
F3
s(S'DP'
S'ADVDAVP'
tp689
F1
s(S'MP'
S'MNADVADVVP'
tp690
F1
s(g427
S'AACDP'
tp691
F2
s(S'CP'
S'CCDDDP'
tp692
F3
s(g26
S'CCCDP'
tp693
F6
s(S'DP'
S'ADVDPPP'
tp694
F3
s(g19
S'DVP'
tp695
F211
s(S'NP'
S'ADVNPP'
tp696
F4
s(S'NP'
S'NNCCCP'
tp697
F1
s(S'AP'
S'AVP'
tp698
F25
s(g61
S'NADVVP'
tp699
F10
s(S'NP'
S'NNADVADVVP'
tp700
F3
s(S'DP'
S'DDPPP'
tp701
F8
s(S'NP'
S'ADVNMP'
tp702
F6
s(g108
S'NNAP'
tp703
F5
s(S'MP'
S'MADVVCP'
tp704
F1
s(S'MP'
S'MCDDP'
tp705
F2
s(g166
S'CDADVPP'
tp706
F14
s(g187
S'VNP'
tp707
F258
s(S'VP'
S'VANP'
tp708
F15
s(S'MP'
S'MAANCP'
tp709
F1
s(S'VP'
S'VADVAP'
tp710
F16
s(g554
S'PPADVNP'
tp711
F2
s.