ccollections
defaultdict
p1
(c__builtin__
float
p2
tRp3
(S'MP'
p4
S'MMDP'
tp5
F2
s(S'DP'
S'DDAP'
tp6
F1
s(S'VP'
S'ADVVVNP'
tp7
F2
s(S'NP'
S'AANVVVVP'
tp8
F1
s(S'DP'
S'DAANNP'
tp9
F1
s(S'PP'
p10
S'PAPP'
tp11
F1
s(S'PP'
p12
S'PADVNP'
tp13
F8
s(S'DP'
p14
S'DNP'
tp15
F145
s(S'NP'
S'ADVNDP'
tp16
F1
s(S'CP'
p17
S'CDPPP'
tp18
F29
s(S'VP'
p19
S'VADP'
tp20
F8
s(S'DP'
S'DNNNNP'
tp21
F1
s(S'DP'
p22
S'DAAP'
tp23
F3
s(S'PP'
p24
S'PPPPPP'
tp25
F1
s(S'VP'
p26
S'VADVVVP'
tp27
F1
s(S'VP'
p28
S'ADVVNP'
tp29
F5
s(S'PP'
p30
S'PPADVADVPP'
tp31
F1
s(S'PP'
p32
S'PPPP'
tp33
F24
s(S'DP'
p34
S'DDDNP'
tp35
F2
s(S'VP'
S'VACP'
tp36
F2
s(S'DP'
p37
S'DADVVP'
tp38
F4
s(S'NP'
p39
S'NCCCP'
tp40
F1
s(S'VP'
p41
S'VCP'
tp42
F55
s(S'NP'
S'NMMP'
tp43
F2
s(S'VP'
S'VVVVDP'
tp44
F1
s(g12
S'PAP'
tp45
F46
s(S'VP'
p46
S'VADVADVAP'
tp47
F2
s(S'CP'
p48
S'CDDPPP'
tp49
F6
s(S'PP'
p50
S'APVVP'
tp51
F1
s(S'VP'
S'VADVANP'
tp52
F1
s(S'PP'
p53
S'PNP'
tp54
F123
s(S'VP'
p55
S'VVADVNNP'
tp56
F1
s(g14
S'DDP'
tp57
F20
s(S'NP'
S'NNNPP'
tp58
F3
s(S'NP'
S'NNDP'
tp59
F10
s(S'MP'
S'MCDP'
tp60
F3
s(S'MP'
S'AMPP'
tp61
F1
s(S'NP'
p62
S'NMP'
tp63
F36
s(S'NP'
S'ADVNCCP'
tp64
F1
s(g39
S'ADVNAPP'
tp65
F1
s(S'DP'
S'ADCP'
tp66
F1
s(S'VP'
p67
S'VMMP'
tp68
F2
s(S'PP'
p69
S'PDP'
tp70
F128
s(S'DP'
S'DDPPPPP'
tp71
F2
s(g67
S'VAMP'
tp72
F3
s(S'MP'
S'MMPPP'
tp73
F1
s(S'NP'
p74
S'ADVNVVP'
tp75
F1
s(S'VP'
S'VNNNNP'
tp76
F1
s(S'NP'
p77
S'NNADVMP'
tp78
F1
s(S'AP'
p79
S'ANP'
tp80
F1
s(S'NP'
p81
S'NADVADVADVVP'
tp82
F1
s(S'PP'
p83
S'PADVPP'
tp84
F3
s(S'VP'
p85
S'VVADVNP'
tp86
F1
s(S'NP'
S'ADVANCP'
tp87
F1
s(g81
S'ADVNACP'
tp88
F1
s(S'DP'
p89
S'DPPPP'
tp90
F3
s(g34
S'DDANP'
tp91
F3
s(S'NP'
S'NACP'
tp92
F8
s(S'AP'
p93
S'ADVAVP'
tp94
F4
s(S'NP'
p95
S'NCCP'
tp96
F21
s(S'NP'
p97
S'ANVP'
tp98
F11
s(S'NP'
p99
S'ADVNCCCCP'
tp100
F1
s(S'NP'
p101
S'NNCP'
tp102
F27
s(S'DP'
S'ADVDDPP'
tp103
F3
s(S'NP'
S'NADVADVVP'
tp104
F1
s(S'DP'
S'DDDDP'
tp105
F1
s(S'DP'
p106
S'DDAPP'
tp107
F1
s(g19
S'AVNP'
tp108
F5
s(S'CP'
S'CCADVDP'
tp109
F2
s(S'PP'
S'ADVPVVP'
tp110
F1
s(S'NP'
S'AAANAAP'
tp111
F1
s(S'PP'
p112
S'ADVAPDP'
tp113
F4
s(S'VP'
S'VADVVP'
tp114
F1
s(S'VP'
S'ADVADVADVVNP'
tp115
F2
s(S'NP'
S'ANADVVP'
tp116
F1
s(S'PP'
S'ADVAPVP'
tp117
F2
s(S'CP'
S'CCCDP'
tp118
F4
s(S'VP'
p119
S'ADVVAP'
tp120
F4
s(S'PP'
S'ADVAPPP'
tp121
F1
s(S'VP'
S'VCCCP'
tp122
F3
s(g12
S'APDP'
tp123
F8
s(S'MP'
p124
S'ADVAMDP'
tp125
F1
s(S'AP'
p126
S'AADVCP'
tp127
F2
s(S'VP'
S'VVADVADVVP'
tp128
F1
s(g119
S'VVANP'
tp129
F1
s(S'PP'
S'ADVPNNP'
tp130
F1
s(g46
S'ADVVVP'
tp131
F1
s(S'MP'
p132
S'MADVVNP'
tp133
F1
s(S'MP'
S'MPNNP'
tp134
F1
s(S'NP'
S'NANP'
tp135
F1
s(S'DP'
p136
S'DNNP'
tp137
F35
s(S'CP'
S'CADVDDPP'
tp138
F3
s(S'CP'
S'CDDPPPP'
tp139
F1
s(S'AP'
p140
S'AAADVVP'
tp141
F1
s(S'NP'
S'NNNVP'
tp142
F3
s(g24
S'PADVVP'
tp143
F7
s(S'DP'
S'DADVVVP'
tp144
F3
s(S'PP'
p145
S'PPPADP'
tp146
F1
s(S'PP'
S'APAP'
tp147
F1
s(S'CP'
S'ADVADVCDP'
tp148
F5
s(S'AP'
S'AAAPPP'
tp149
F1
s(S'MP'
S'MAADVADVVP'
tp150
F1
s(S'NP'
S'NADVMP'
tp151
F1
s(S'AP'
S'AAP'
tp152
F2
s(S'CP'
S'CADVADPP'
tp153
F3
s(g132
S'MVVCP'
tp154
F1
s(S'DP'
S'DAAVP'
tp155
F2
s(S'MP'
S'MPVP'
tp156
F1
s(g50
S'PAANP'
tp157
F3
s(S'VP'
S'VADVADVCP'
tp158
F2
s(S'PP'
p159
S'PPVVP'
tp160
F2
s(S'MP'
S'MVNP'
tp161
F17
s(S'MP'
S'MNDP'
tp162
F1
s(S'AP'
S'ADVAADP'
tp163
F2
s(S'PP'
p164
S'PAVP'
tp165
F10
s(S'MP'
p166
S'ADVMVP'
tp167
F2
s(S'VP'
S'ADVVMP'
tp168
F5
s(S'DP'
S'DDAPPP'
tp169
F1
s(S'VP'
S'VVVPP'
tp170
F1
s(S'CP'
S'CADVADVADPP'
tp171
F1
s(S'AP'
S'ADVACCP'
tp172
F3
s(S'AP'
S'ADVADP'
tp173
F4
s(g126
S'APP'
tp174
F15
s(g41
S'VVADVPP'
tp175
F1
s(S'DP'
p176
S'ADVDDP'
tp177
F1
s(S'PP'
S'APDDP'
tp178
F1
s(g55
S'ADVADVVVNP'
tp179
F1
s(S'VP'
S'ADVADVVANP'
tp180
F1
s(g145
S'APPP'
tp181
F7
s(g10
S'APVP'
tp182
F3
s(S'VP'
p183
S'VVNP'
tp184
F21
s(g46
S'VVVCP'
tp185
F1
s(S'PP'
p186
S'PPVP'
tp187
F18
s(S'MP'
S'MVDP'
tp188
F24
s(S'VP'
p189
S'VADVDP'
tp190
F6
s(S'MP'
S'MPADP'
tp191
F1
s(g119
S'VAAP'
tp192
F10
s(S'NP'
S'ANDP'
tp193
F2
s(g97
S'NVVP'
tp194
F31
s(S'PP'
p195
S'AAPVP'
tp196
F1
s(g28
S'VMP'
tp197
F36
s(S'VP'
p198
S'VVNNP'
tp199
F6
s(S'CP'
S'CDAPP'
tp200
F11
s(S'CP'
p201
S'CDDAAPP'
tp202
F1
s(S'DP'
p203
S'ADVADVP'
tp204
F1
s(S'DP'
S'ADNP'
tp205
F12
s(g69
S'PADP'
tp206
F11
s(S'VP'
S'ADVVVCP'
tp207
F1
s(S'NP'
S'ANDDP'
tp208
F2
s(S'DP'
p209
S'ADVADVADVP'
tp210
F1
s(S'DP'
p211
S'DADVAP'
tp212
F2
s(S'DP'
S'DAPP'
tp213
F14
s(g28
S'AVVP'
tp214
F1
s(g189
S'VADVADVNP'
tp215
F1
s(g4
S'MDDNP'
tp216
F1
s(S'VP'
p217
S'ADVADVVDP'
tp218
F4
s(S'DP'
p219
S'DAAPPP'
tp220
F1
s(S'NP'
S'NNNCCCP'
tp221
F1
s(S'DP'
S'DAAANP'
tp222
F1
s(S'DP'
p223
S'DADVANP'
tp224
F1
s(S'DP'
p225
S'ADVDNP'
tp226
F5
s(g198
S'VVPP'
tp227
F13
s(S'VP'
S'VADVAPP'
tp228
F1
s(S'CP'
S'AACDDP'
tp229
F1
s(S'MP'
S'MVPP'
tp230
F5
s(g136
S'ADVP'
tp231
F6
s(S'MP'
S'MPPNP'
tp232
F1
s(S'NP'
p233
S'NNPP'
tp234
F13
s(S'DP'
S'DDDDNP'
tp235
F1
s(S'MP'
S'MVVDP'
tp236
F3
s(g22
S'DADVPPP'
tp237
F4
s(g74
S'NNNMMP'
tp238
F1
s(g211
S'DNNNP'
tp239
F3
s(S'MP'
p240
S'MPPDP'
tp241
F1
s(S'PP'
S'PADVADVVP'
tp242
F1
s(S'VP'
p243
S'VADVDDP'
tp244
F1
s(S'PP'
S'PVVVP'
tp245
F3
s(S'PP'
S'PMP'
tp246
F3
s(S'CP'
p247
S'CCDP'
tp248
F33
s(S'DP'
S'ADVADVADVDPP'
tp249
F1
s(S'MP'
p250
S'AMVP'
tp251
F2
s(S'NP'
p252
S'NVVVP'
tp253
F2
s(g17
S'CDDDPP'
tp254
F4
s(g186
S'PPADVVP'
tp255
F1
s(S'VP'
S'VVVDP'
tp256
F4
s(S'PP'
S'PDDDDP'
tp257
F1
s(S'PP'
S'PNNNP'
tp258
F2
s(S'CP'
p259
S'CCCCDP'
tp260
F1
s(S'VP'
p261
S'VVMP'
tp262
F6
s(S'PP'
S'PADVVVP'
tp263
F2
s(g69
S'PPP'
tp264
F101
s(S'NP'
p265
S'NAVP'
tp266
F6
s(g24
S'PADVAP'
tp267
F2
s(S'DP'
S'ADVADVVP'
tp268
F1
s(S'VP'
S'VVVVCCP'
tp269
F1
s(S'DP'
p270
S'ADVDVP'
tp271
F10
s(S'NP'
S'NAAAP'
tp272
F1
s(g209
S'DAAAP'
tp273
F1
s(S'DP'
S'ADVADVDNP'
tp274
F1
s(g28
S'VPP'
tp275
F83
s(S'NP'
p276
S'NNNCP'
tp277
F2
s(g12
S'PADVDP'
tp278
F7
s(S'CP'
S'CDADVAPP'
tp279
F2
s(g166
S'MADVVAP'
tp280
F1
s(S'PP'
S'PADVAAP'
tp281
F1
s(g48
S'CDDPP'
tp282
F36
s(g106
S'DAAPP'
tp283
F2
s(g32
S'PVVP'
tp284
F28
s(S'AP'
S'AACP'
tp285
F3
s(S'VP'
S'ADVVCP'
tp286
F4
s(S'VP'
S'VPPP'
tp287
F3
s(S'VP'
S'VVPPP'
tp288
F1
s(g259
S'CAADADVADVPP'
tp289
F1
s(g186
S'PPAP'
tp290
F5
s(S'DP'
p291
S'DVVP'
tp292
F19
s(S'NP'
S'ANMP'
tp293
F2
s(g53
S'ADVPPP'
tp294
F3
s(S'VP'
S'VVVP'
tp295
F5
s(S'DP'
S'DDPPPP'
tp296
F2
s(S'VP'
p297
S'AVMP'
tp298
F4
s(S'NP'
S'ANCP'
tp299
F16
s(g270
S'DCP'
tp300
F14
s(S'DP'
S'DDDP'
tp301
F5
s(S'NP'
S'ANVVP'
tp302
F1
s(g41
S'VVDP'
tp303
F25
s(g265
S'NPPP'
tp304
F16
s(S'PP'
p305
S'PPAPP'
tp306
F1
s(g136
S'DAVP'
tp307
F4
s(S'VP'
S'ADVAVCP'
tp308
F1
s(g79
S'ACP'
tp309
F20
s(S'PP'
S'AAPAP'
tp310
F1
s(g32
S'PPNP'
tp311
F25
s(S'DP'
S'ADVDAPP'
tp312
F1
s(S'MP'
p313
S'MADNP'
tp314
F1
s(g305
S'APADVVVP'
tp315
F1
s(g313
S'ADVMDP'
tp316
F1
s(S'AP'
S'ADP'
tp317
F95
s(S'CP'
S'CCCDDDP'
tp318
F1
s(g195
S'APMP'
tp319
F1
s(S'CP'
S'CADVDPP'
tp320
F7
s(g19
S'AVDP'
tp321
F8
s(g261
S'VVAP'
tp322
F9
s(S'PP'
S'PADVADVDP'
tp323
F1
s(S'DP'
p324
S'AADDPPP'
tp325
F1
s(g95
S'NPP'
tp326
F96
s(S'VP'
p327
S'ADVADVVAP'
tp328
F2
s(g95
S'NVP'
tp329
F139
s(S'VP'
p330
S'VVNNNNP'
tp331
F1
s(g32
S'AAPPNP'
tp332
F1
s(g297
S'VDDP'
tp333
F21
s(S'DP'
S'DMP'
tp334
F1
s(S'DP'
p335
S'DADVAPP'
tp336
F6
s(g97
S'ANPP'
tp337
F6
s(g83
S'ADVPPDP'
tp338
F2
s(S'PP'
p339
S'PPPPP'
tp340
F2
s(S'MP'
S'MPDP'
tp341
F4
s(S'PP'
p342
S'ADVADVPDP'
tp343
F2
s(g159
S'PPPNP'
tp344
F2
s(S'NP'
p345
S'ADVADVNPP'
tp346
F1
s(g270
S'ADDP'
tp347
F2
s(S'VP'
S'VVVMP'
tp348
F1
s(S'CP'
p349
S'CAADPP'
tp350
F2
s(S'NP'
S'NAACP'
tp351
F1
s(g164
S'PNNP'
tp352
F18
s(g124
S'MMNP'
tp353
F2
s(g243
S'AVAP'
tp354
F2
s(S'MP'
S'MMVP'
tp355
F2
s(S'NP'
p356
S'ADVNCP'
tp357
F1
s(g126
S'AADP'
tp358
F21
s(S'PP'
p359
S'PPPPVVVP'
tp360
F1
s(S'CP'
p361
S'ACDP'
tp362
F12
s(g186
S'PAAP'
tp363
F12
s(g276
S'NNACP'
tp364
F1
s(S'MP'
S'MDNNP'
tp365
F2
s(S'CP'
S'CDADVPPP'
tp366
F2
s(g297
S'VAP'
tp367
F63
s(g37
S'DDDPP'
tp368
F6
s(S'CP'
S'CDAAPP'
tp369
F1
s(g119
S'VADVMP'
tp370
F1
s(S'AP'
S'AAVVP'
tp371
F1
s(S'DP'
S'DDDPPP'
tp372
F2
s(S'DP'
S'DADVDP'
tp373
F1
s(S'AP'
p374
S'AAACP'
tp375
F1
s(g26
S'ADVVVDP'
tp376
F2
s(g24
S'PPPVP'
tp377
F1
s(S'VP'
S'AAVAP'
tp378
F1
s(S'AP'
S'AADDP'
tp379
F1
s(S'NP'
S'NADVADVCP'
tp380
F3
s(S'MP'
S'MADVADVADVVNP'
tp381
F1
s(S'NP'
S'NVVVVP'
tp382
F1
s(S'MP'
S'MPNP'
tp383
F6
s(S'MP'
S'MADP'
tp384
F3
s(S'PP'
S'PPPDDP'
tp385
F1
s(S'CP'
S'CCAADP'
tp386
F1
s(S'DP'
S'DDADVNP'
tp387
F1
s(g24
S'PANP'
tp388
F8
s(S'AP'
S'AAVP'
tp389
F1
s(g93
S'AVVP'
tp390
F1
s(g97
S'NDDP'
tp391
F7
s(g132
S'MVADVDP'
tp392
F1
s(S'AP'
p393
S'ACCP'
tp394
F3
s(g95
S'NDP'
tp395
F58
s(g89
S'DDVP'
tp396
F14
s(S'NP'
S'AANVP'
tp397
F2
s(S'VP'
S'VNNNP'
tp398
F3
s(S'PP'
S'ADVPAP'
tp399
F4
s(S'AP'
S'AADVADVADP'
tp400
F1
s(S'PP'
S'PCP'
tp401
F8
s(g252
S'NNPPP'
tp402
F1
s(S'VP'
S'VCCP'
tp403
F8
s(S'AP'
S'ADVACP'
tp404
F1
s(g176
S'DDADVVP'
tp405
F1
s(g95
S'NNVP'
tp406
F21
s(S'MP'
S'MVCP'
tp407
F9
s(g361
S'CCDDP'
tp408
F8
s(S'NP'
S'NNADVVP'
tp409
F1
s(S'VP'
S'AAVCCP'
tp410
F1
s(S'NP'
S'NAAP'
tp411
F4
s(S'MP'
S'MVMP'
tp412
F1
s(S'NP'
S'NNVVP'
tp413
F9
s(g77
S'NNNNVP'
tp414
F1
s(S'VP'
p415
S'VVCP'
tp416
F10
s(S'PP'
S'PADVADVPP'
tp417
F1
s(S'VP'
S'VADVNP'
tp418
F3
s(S'AP'
S'AAAPP'
tp419
F2
s(g219
S'DDDDPPP'
tp420
F1
s(S'MP'
S'MNNPP'
tp421
F1
s(S'VP'
S'ADVVPP'
tp422
F2
s(S'DP'
S'DDDPPPPP'
tp423
F1
s(S'VP'
S'VNNP'
tp424
F13
s(S'AP'
S'AADVDP'
tp425
F6
s(S'NP'
p426
S'NADP'
tp427
F1
s(g136
S'DDNP'
tp428
F32
s(g233
S'NADVCP'
tp429
F3
s(g37
S'DDNNP'
tp430
F6
s(g112
S'AAPPP'
tp431
F1
s(S'NP'
S'ADVNAAP'
tp432
F1
s(g140
S'AADVADP'
tp433
F2
s(S'NP'
S'ADVADVNCP'
tp434
F1
s(g89
S'AADPP'
tp435
F3
s(S'MP'
S'MADVADVPDP'
tp436
F1
s(S'NP'
S'NNNNPP'
tp437
F1
s(S'VP'
p438
S'VVMMP'
tp439
F2
s(g426
S'NNNP'
tp440
F1
s(S'MP'
S'MVVNP'
tp441
F1
s(S'CP'
S'CDDADVPPP'
tp442
F1
s(S'CP'
S'ACDDP'
tp443
F1
s(g393
S'AAPP'
tp444
F5
s(S'VP'
S'VVCCP'
tp445
F1
s(S'PP'
S'APPNP'
tp446
F1
s(g270
S'DADVADVNP'
tp447
F1
s(S'PP'
S'ADVPANP'
tp448
F1
s(S'VP'
S'VVVCCP'
tp449
F1
s(g97
S'NAPP'
tp450
F2
s(S'NP'
S'NADVDP'
tp451
F2
s(S'PP'
S'ADVPPPP'
tp452
F2
s(S'PP'
S'PADVAPP'
tp453
F1
s(S'NP'
S'ANCCP'
tp454
F3
s(g99
S'AANPP'
tp455
F1
s(S'NP'
S'NNCCP'
tp456
F1
s(S'NP'
S'NNMP'
tp457
F4
s(S'PP'
S'ADVADVPNNP'
tp458
F1
s(S'PP'
S'PAAAP'
tp459
F2
s(S'MP'
S'MDANP'
tp460
F1
s(S'PP'
S'PPADVADVVVP'
tp461
F1
s(S'NP'
S'ANAP'
tp462
F1
s(S'MP'
p463
S'MVAP'
tp464
F7
s(g53
S'PVP'
tp465
F126
s(S'NP'
p466
S'ADVNAVP'
tp467
F1
s(S'DP'
S'DVVVP'
tp468
F2
s(S'MP'
S'MAADVDP'
tp469
F1
s(S'PP'
S'PACP'
tp470
F1
s(g112
S'PPDDP'
tp471
F6
s(S'VP'
S'AVCP'
tp472
F1
s(S'PP'
S'ADVADVPDDP'
tp473
F1
s(g136
S'DPP'
tp474
F165
s(S'NP'
S'ADVNVP'
tp475
F4
s(g270
S'DDPP'
tp476
F49
s(S'DP'
S'DDADVPPP'
tp477
F1
s(g37
S'DDAVP'
tp478
F1
s(g89
S'DANP'
tp479
F18
s(S'AP'
S'ADVAMP'
tp480
F1
s(S'DP'
S'ADVDDADVNP'
tp481
F1
s(S'NP'
S'AANADVVP'
tp482
F1
s(S'DP'
S'ADVADVADPP'
tp483
F1
s(S'PP'
S'PDDDP'
tp484
F2
s(g41
S'VADVCP'
tp485
F3
s(S'NP'
S'NNNNCP'
tp486
F3
s(g240
S'MDNP'
tp487
F13
s(S'VP'
S'VVADVAMP'
tp488
F1
s(S'NP'
S'AANNDP'
tp489
F1
s(S'DP'
S'DCCP'
tp490
F2
s(S'PP'
S'PPPPNP'
tp491
F2
s(g342
S'AAPDP'
tp492
F3
s(g330
S'VVDDP'
tp493
F2
s(g339
S'PDDP'
tp494
F22
s(S'NP'
S'ADVADVANVVP'
tp495
F1
s(S'MP'
S'MVDDP'
tp496
F2
s(S'PP'
S'ADVAPNP'
tp497
F1
s(g374
S'ADVADVACP'
tp498
F2
s(S'NP'
p499
S'NNP'
tp500
F1
s(g225
S'ADVADPP'
tp501
F3
s(S'DP'
S'DAANP'
tp502
F2
s(g393
S'ADDP'
tp503
F9
s(S'PP'
S'PNNNNP'
tp504
F1
s(S'PP'
S'ADVPPNP'
tp505
F2
s(S'NP'
S'ADVADVNAPP'
tp506
F1
s(S'CP'
S'CADVADVDPP'
tp507
F1
s(g219
S'DPPP'
tp508
F41
s(S'DP'
S'AADPPP'
tp509
F1
s(g217
S'VANNP'
tp510
F1
s(g356
S'NNAVP'
tp511
F2
s(S'PP'
S'ADVPNP'
tp512
F3
s(g164
S'PPDP'
tp513
F20
s(S'MP'
S'MAVDP'
tp514
F1
s(S'PP'
S'ADVAPNNNP'
tp515
F1
s(S'DP'
S'DDCP'
tp516
F1
s(g345
S'NAP'
tp517
F29
s(S'NP'
S'NNAAP'
tp518
F1
s(S'VP'
S'VVP'
tp519
F28
s(g291
S'DADVNP'
tp520
F5
s(g30
S'ADVADVPVP'
tp521
F2
s(S'AP'
S'AAADP'
tp522
F2
s(S'MP'
S'MDAP'
tp523
F2
s(S'PP'
S'APNP'
tp524
F5
s(g223
S'DDVVP'
tp525
F1
s(S'VP'
S'VVVNP'
tp526
F1
s(S'MP'
S'MNPP'
tp527
F3
s(S'NP'
S'NAMP'
tp528
F2
s(g250
S'MVNNP'
tp529
F1
s(S'AP'
S'AAADVPP'
tp530
F1
s(g247
S'CDPP'
tp531
F150
s(S'CP'
p532
S'ADVCDP'
tp533
F8
s(S'PP'
S'PPNNP'
tp534
F4
s(S'PP'
S'ADVPPADVVP'
tp535
F1
s(g83
S'ADVPAVP'
tp536
F1
s(g223
S'ADVADVDPP'
tp537
F1
s(S'VP'
S'VDP'
tp538
F128
s(S'NP'
S'NADVAP'
tp539
F2
s(S'VP'
S'AVDDP'
tp540
F3
s(g34
S'DAP'
tp541
F19
s(g201
S'CADPP'
tp542
F7
s(S'NP'
p543
S'NADVAVP'
tp544
F1
s(S'PP'
S'PPAVP'
tp545
F1
s(S'VP'
S'ADVADVVCCP'
tp546
F1
s(g438
S'AVPP'
tp547
F2
s(S'CP'
S'CAADPPP'
tp548
F1
s(S'MP'
S'AMNP'
tp549
F1
s(S'MP'
S'AMVVP'
tp550
F1
s(S'CP'
S'CDADVADVPP'
tp551
F1
s(g349
S'CDPPPP'
tp552
F3
s(g335
S'ADVDAAPP'
tp553
F1
s(g203
S'AADADVADVPP'
tp554
F1
s(S'NP'
S'ADVANMP'
tp555
F1
s(g345
S'NNDDP'
tp556
F1
s(S'DP'
S'DADVADVPP'
tp557
F2
s(S'AP'
S'AADVADVVP'
tp558
F2
s(S'DP'
S'ADVDPP'
tp559
F15
s(S'NP'
S'AAANPP'
tp560
F1
s(S'PP'
S'PADVADVNP'
tp561
F1
s(S'CP'
S'CADVDAAPP'
tp562
F1
s(g176
S'ADPP'
tp563
F13
s(g327
S'VADVPP'
tp564
F3
s(g176
S'DDAAPP'
tp565
F2
s(S'DP'
S'ADVDANP'
tp566
F1
s(g359
S'ADVPVP'
tp567
F3
s(S'NP'
S'NNVVVP'
tp568
F1
s(S'VP'
S'ADVVANP'
tp569
F1
s(g32
S'ADVPDP'
tp570
F7
s(g499
S'ANADVDP'
tp571
F1
s(S'NP'
S'ANNPP'
tp572
F1
s(g32
S'PPDDDDP'
tp573
F1
s(g463
S'MVADVAP'
tp574
F1
s(g62
S'NCP'
tp575
F133
s(g85
S'ADVVVPP'
tp576
F1
s(g466
S'ADVANDP'
tp577
F1
s(S'AP'
S'AAAP'
tp578
F2
s(S'VP'
S'VADVADVADVDP'
tp579
F1
s(S'VP'
S'VDDDP'
tp580
F2
s(S'MP'
S'MNVP'
tp581
F3
s(g415
S'VAPP'
tp582
F5
s(g324
S'DDAADDP'
tp583
F1
s(g28
S'ADVVDP'
tp584
F7
s(g14
S'DADVPP'
tp585
F17
s(g393
S'AMP'
tp586
F13
s(S'CP'
S'CCADP'
tp587
F3
s(S'NP'
S'ADVNNCP'
tp588
F1
s(S'DP'
S'DDADVAPP'
tp589
F1
s(g532
S'AACDP'
tp590
F1
s(g543
S'NNNCCP'
tp591
F1
s(S'CP'
S'CCDDDP'
tp592
F2
s(g136
S'DVP'
tp593
F110
s(S'NP'
S'ADVNPP'
tp594
F3
s(S'MP'
S'MDDNNP'
tp595
F1
s(S'AP'
S'AVP'
tp596
F10
s(g101
S'NADVVP'
tp597
F8
s(g270
S'DDPPP'
tp598
F8
s(g345
S'ADVNMP'
tp599
F2
s(S'NP'
S'NNAP'
tp600
F2
s(S'PP'
S'PPANP'
tp601
F1
s(S'CP'
S'CDADVPP'
tp602
F11
s(g297
S'VNP'
tp603
F116
s(g183
S'VANP'
tp604
F8
s(g41
S'VADVAP'
tp605
F7
s(S'VP'
S'ADVADVVVDP'
tp606
F1
s(S'NP'
S'NADVPPP'
tp607
F1
s.