ccollections
defaultdict
p1
(c__builtin__
float
p2
tRp3
(S'DP'
p4
S'DDAP'
tp5
F4
s(S'AP'
S'AADDDP'
tp6
F1
s(S'VP'
p7
S'VVVVP'
tp8
F1
s(S'PP'
p9
S'PAPP'
tp10
F6
s(g9
S'PADVNP'
tp11
F7
s(S'DP'
p12
S'DNP'
tp13
F81
s(S'CP'
p14
S'CDPPP'
tp15
F15
s(S'VP'
p16
S'VADP'
tp17
F9
s(S'DP'
S'DAAP'
tp18
F2
s(S'DP'
S'ADNNP'
tp19
F1
s(S'VP'
S'ADVVNP'
tp20
F3
s(S'MP'
S'MVDP'
tp21
F5
s(S'PP'
p22
S'PPPP'
tp23
F16
s(S'DP'
S'DDDNP'
tp24
F1
s(S'DP'
p25
S'DADVVP'
tp26
F5
s(S'MP'
S'MVVADVDP'
tp27
F1
s(S'AP'
S'AADVPP'
tp28
F1
s(S'NP'
S'NADVVVP'
tp29
F3
s(S'VP'
p30
S'VCP'
tp31
F32
s(S'NP'
S'NMMP'
tp32
F3
s(S'PP'
S'PPVVP'
tp33
F1
s(g16
S'ADVVAAP'
tp34
F2
s(g22
S'PAP'
tp35
F34
s(S'DP'
S'DDADVADVPP'
tp36
F1
s(S'NP'
p37
S'NNNAP'
tp38
F1
s(S'PP'
p39
S'PPADVDP'
tp40
F1
s(S'PP'
p41
S'PNP'
tp42
F79
s(g12
S'DDP'
tp43
F15
s(S'NP'
p44
S'NNNPP'
tp45
F1
s(S'PP'
p46
S'PAAP'
tp47
F5
s(S'NP'
S'NMP'
tp48
F14
s(S'PP'
p49
S'PPMMP'
tp50
F1
s(S'VP'
S'AAVNP'
tp51
F1
s(g41
S'PDP'
tp52
F81
s(S'PP'
p53
S'PPADVVP'
tp54
F1
s(S'DP'
p55
S'DPPPP'
tp56
F6
s(S'DP'
p57
S'DDANP'
tp58
F2
s(S'NP'
p59
S'NACP'
tp60
F8
s(S'NP'
p61
S'NCCP'
tp62
F23
s(S'DP'
p63
S'DADVADVVVP'
tp64
F1
s(S'NP'
p65
S'NNCP'
tp66
F17
s(S'DP'
p67
S'ADVDDPP'
tp68
F2
s(S'VP'
S'AVNP'
tp69
F1
s(S'PP'
S'ADVAPDP'
tp70
F1
s(S'NP'
p71
S'ADVADVADVNMP'
tp72
F1
s(S'VP'
p73
S'ADVVAP'
tp74
F4
s(S'PP'
p75
S'APDP'
tp76
F12
s(S'VP'
S'VVVVDP'
tp77
F1
s(S'VP'
p78
S'ADVVVP'
tp79
F1
s(g55
S'DNNP'
tp80
F24
s(S'CP'
S'CADVDDPP'
tp81
F2
s(g67
S'DPPPPP'
tp82
F2
s(S'CP'
S'CCADVDP'
tp83
F1
s(S'NP'
p84
S'NNNVP'
tp85
F2
s(S'PP'
S'PPNNNNP'
tp86
F1
s(g75
S'PADVVP'
tp87
F4
s(g9
S'APAP'
tp88
F2
s(S'CP'
p89
S'ADVADVCDP'
tp90
F1
s(S'PP'
p91
S'PPADP'
tp92
F2
s(S'CP'
p93
S'CADVADPP'
tp94
F1
s(S'NP'
p95
S'ADVANPP'
tp96
F1
s(S'DP'
S'DAAVP'
tp97
F1
s(S'CP'
S'CDDDDPP'
tp98
F1
s(S'PP'
S'PAANP'
tp99
F1
s(S'VP'
p100
S'VADVADVCP'
tp101
F1
s(S'NP'
p102
S'NADVADVPPP'
tp103
F2
s(S'NP'
S'ANVP'
tp104
F13
s(S'VP'
p105
S'VVAVP'
tp106
F1
s(S'MP'
p107
S'MVNP'
tp108
F3
s(S'NP'
S'ANAAP'
tp109
F1
s(S'PP'
p110
S'PAVP'
tp111
F4
s(S'PP'
p112
S'ADVADVPPVP'
tp113
F1
s(S'VP'
S'ADVVMP'
tp114
F1
s(S'VP'
p115
S'VVVPP'
tp116
F1
s(g102
S'NMMMMP'
tp117
F1
s(S'AP'
S'ADVACCP'
tp118
F1
s(g63
S'DADP'
tp119
F1
s(S'AP'
S'ADVADP'
tp120
F1
s(S'AP'
p121
S'APP'
tp122
F14
s(S'PP'
p123
S'APDDP'
tp124
F2
s(S'VP'
p125
S'ADVADVVVNP'
tp126
F1
s(S'NP'
S'ADVNAP'
tp127
F2
s(S'MP'
p128
S'MAAVDDDP'
tp129
F1
s(g22
S'PPCP'
tp130
F2
s(g41
S'APVP'
tp131
F8
s(S'VP'
p132
S'VVNP'
tp133
F8
s(S'NP'
S'ANNP'
tp134
F1
s(S'PP'
p135
S'PPPNNP'
tp136
F1
s(g9
S'PPVP'
tp137
F12
s(g7
S'VAAP'
tp138
F8
s(S'NP'
p139
S'ANDP'
tp140
F4
s(S'NP'
S'NVVP'
tp141
F11
s(S'PP'
p142
S'AAPVP'
tp143
F1
s(S'AP'
p144
S'AAP'
tp145
F8
s(S'AP'
S'AAAVVP'
tp146
F1
s(S'VP'
S'VVNNP'
tp147
F2
s(S'CP'
p148
S'CDAPP'
tp149
F10
s(S'VP'
p150
S'VVAAP'
tp151
F3
s(S'DP'
p152
S'ADVADVP'
tp153
F1
s(S'DP'
p154
S'ADNP'
tp155
F7
s(S'VP'
S'ADVADVVNP'
tp156
F1
s(S'PP'
S'PADP'
tp157
F5
s(S'VP'
p158
S'ADVVVCP'
tp159
F1
s(S'AP'
S'AAAACP'
tp160
F1
s(S'PP'
p161
S'ADVPMMMMMP'
tp162
F1
s(g12
S'DAPP'
tp163
F24
s(S'VP'
S'ADVADVADVVDP'
tp164
F1
s(S'VP'
S'ADVADVVDP'
tp165
F1
s(S'AP'
S'AAPPP'
tp166
F1
s(S'DP'
p167
S'DADVANP'
tp168
F1
s(S'DP'
p169
S'ADVDNP'
tp170
F3
s(g73
S'VVPP'
tp171
F7
s(S'DP'
S'AADAAAP'
tp172
F1
s(S'CP'
S'AACDDP'
tp173
F1
s(S'MP'
S'MVPP'
tp174
F1
s(S'DP'
p175
S'ADVP'
tp176
F6
s(S'CP'
S'CDDPPP'
tp177
F6
s(g139
S'NNPP'
tp178
F13
s(S'DP'
S'DADVPPP'
tp179
F5
s(S'MP'
S'MADVADVADVVDP'
tp180
F1
s(S'DP'
S'DNNNP'
tp181
F1
s(S'PP'
p182
S'PADVADVVP'
tp183
F2
s(S'PP'
S'PMP'
tp184
F3
s(g148
S'CCDP'
tp185
F34
s(S'MP'
p186
S'AMVP'
tp187
F1
s(g73
S'VPPP'
tp188
F9
s(S'NP'
p189
S'NVVVP'
tp190
F3
s(S'CP'
S'CDADVADVPP'
tp191
F1
s(g7
S'VVVDP'
tp192
F2
s(g49
S'PNNNP'
tp193
F1
s(S'CP'
S'CCCCDP'
tp194
F1
s(S'VP'
S'VVMP'
tp195
F1
s(S'PP'
S'PADVVVP'
tp196
F1
s(g75
S'PPP'
tp197
F49
s(g189
S'NAVP'
tp198
F5
s(S'PP'
S'PADVAP'
tp199
F1
s(S'DP'
S'ADVDVP'
tp200
F3
s(S'AP'
S'AADVVP'
tp201
F1
s(g91
S'PPPPDP'
tp202
F1
s(S'VP'
p203
S'VPP'
tp204
F45
s(g167
S'ADVDDNP'
tp205
F1
s(g44
S'NNNCP'
tp206
F1
s(g161
S'PADVDP'
tp207
F1
s(S'CP'
S'CDADVAPP'
tp208
F1
s(g154
S'DANNP'
tp209
F1
s(g53
S'PADVAAP'
tp210
F1
s(S'CP'
p211
S'CDDPP'
tp212
F11
s(g9
S'PVVP'
tp213
F11
s(S'AP'
S'AACP'
tp214
F4
s(S'PP'
p215
S'ADVPPAP'
tp216
F1
s(S'PP'
p217
S'PPNNNP'
tp218
F1
s(S'VP'
S'ADVVVCCP'
tp219
F1
s(g75
S'PPAP'
tp220
F4
s(S'DP'
p221
S'DVVP'
tp222
F15
s(g37
S'ANMP'
tp223
F1
s(S'AP'
S'APPP'
tp224
F3
s(g215
S'ADVPPP'
tp225
F2
s(g105
S'VVVP'
tp226
F7
s(S'CP'
p227
S'CADVDPP'
tp228
F6
s(g65
S'ANCP'
tp229
F14
s(g175
S'DCP'
tp230
F6
s(S'VP'
S'AAVVCP'
tp231
F1
s(S'DP'
S'DDDP'
tp232
F4
s(g152
S'DDADVPP'
tp233
F1
s(S'NP'
p234
S'ANVVP'
tp235
F1
s(S'NP'
S'NVVVVP'
tp236
F2
s(g71
S'NPPP'
tp237
F8
s(S'VP'
S'ADVADVADVADVVVP'
tp238
F1
s(S'DP'
S'DAVP'
tp239
F4
s(g112
S'ADVADVPAPP'
tp240
F1
s(g78
S'ADVAVCP'
tp241
F1
s(g121
S'ACP'
tp242
F21
s(S'PP'
p243
S'PPNP'
tp244
F12
s(g186
S'MACP'
tp245
F1
s(S'AP'
S'ADP'
tp246
F60
s(g154
S'DDAVP'
tp247
F1
s(g7
S'AAVDP'
tp248
F1
s(S'DP'
S'DVVVVP'
tp249
F1
s(S'AP'
S'AAADP'
tp250
F3
s(S'VP'
p251
S'VVAP'
tp252
F6
s(S'NP'
S'NADVAPP'
tp253
F1
s(S'DP'
S'ADVADVADVDDPP'
tp254
F1
s(S'NP'
p255
S'NVP'
tp256
F63
s(S'CP'
S'ADVCCDDP'
tp257
F1
s(S'PP'
S'PAAVP'
tp258
F1
s(g73
S'VDDP'
tp259
F19
s(S'DP'
S'DADVAPP'
tp260
F1
s(g84
S'NADVADVVVP'
tp261
F1
s(S'NP'
p262
S'ANPP'
tp263
F10
s(S'PP'
S'PPPPP'
tp264
F3
s(g135
S'ADVADVPDP'
tp265
F1
s(g12
S'ADVDPP'
tp266
F8
s(S'DP'
S'ADDP'
tp267
F2
s(S'NP'
p268
S'ADVNADP'
tp269
F1
s(g14
S'CAADPP'
tp270
F3
s(S'DP'
p271
S'DADVADVVP'
tp272
F1
s(g189
S'NAACP'
tp273
F2
s(S'PP'
S'PNNP'
tp274
F17
s(g161
S'APNNP'
tp275
F1
s(S'DP'
S'DDAAP'
tp276
F1
s(S'VP'
S'AVAP'
tp277
F1
s(S'MP'
S'MMVP'
tp278
F4
s(S'NP'
S'ADVNCP'
tp279
F2
s(S'AP'
S'AADP'
tp280
F18
s(g89
S'ACDP'
tp281
F9
s(S'NP'
p282
S'NNDP'
tp283
F4
s(S'CP'
S'CDADVPPP'
tp284
F2
s(g73
S'VAP'
tp285
F43
s(S'VP'
p286
S'VVVVNP'
tp287
F1
s(g169
S'DDDPP'
tp288
F1
s(S'DP'
S'DAACP'
tp289
F1
s(g142
S'PAAPP'
tp290
F1
s(g125
S'ADVVVDP'
tp291
F1
s(S'PP'
p292
S'PPPVP'
tp293
F2
s(S'AP'
S'ACCCCP'
tp294
F1
s(g132
S'VAANP'
tp295
F3
s(g100
S'VVDP'
tp296
F15
s(S'PP'
S'PAAAAP'
tp297
F1
s(S'MP'
S'MADP'
tp298
F1
s(S'PP'
S'PANP'
tp299
F11
s(g63
S'DADVADVNNP'
tp300
F1
s(S'AP'
S'AAVP'
tp301
F1
s(S'AP'
S'AVVP'
tp302
F3
s(g234
S'NDDP'
tp303
F3
s(g144
S'ACCP'
tp304
F4
s(S'VP'
S'VVVVAP'
tp305
F1
s(S'VP'
S'AVPPP'
tp306
F1
s(S'NP'
p307
S'NDP'
tp308
F30
s(S'DP'
p309
S'DDVP'
tp310
F9
s(S'NP'
p311
S'AANVP'
tp312
F2
s(g125
S'VNNNP'
tp313
F1
s(g46
S'PCP'
tp314
F2
s(g95
S'NNPPP'
tp315
F3
s(S'PP'
p316
S'PAADP'
tp317
F1
s(g262
S'ADVNNVP'
tp318
F1
s(g39
S'PPPVVP'
tp319
F1
s(g115
S'VCCP'
tp320
F7
s(S'MP'
S'MPAP'
tp321
F1
s(S'AP'
S'ADVACP'
tp322
F1
s(S'NP'
S'AANVVVP'
tp323
F1
s(S'VP'
S'AVVDP'
tp324
F1
s(g169
S'ADPPP'
tp325
F2
s(S'MP'
S'MVCP'
tp326
F3
s(S'CP'
S'CCDDP'
tp327
F6
s(g255
S'NAAP'
tp328
F3
s(g59
S'NNVVP'
tp329
F3
s(g282
S'NNNNVP'
tp330
F1
s(g158
S'VVCP'
tp331
F3
s(g135
S'PADVADVPP'
tp332
F1
s(g73
S'VDP'
tp333
F73
s(g123
S'APPP'
tp334
F7
s(g7
S'VNNP'
tp335
F7
s(S'AP'
S'AADVDP'
tp336
F2
s(g262
S'NADP'
tp337
F2
s(S'DP'
p338
S'DDNP'
tp339
F21
s(g311
S'NADVCP'
tp340
F2
s(S'DP'
S'DDNNP'
tp341
F5
s(S'AP'
S'AADVADP'
tp342
F1
s(g338
S'AADPP'
tp343
F3
s(S'NP'
S'NNNNPP'
tp344
F1
s(S'AP'
S'AAMMP'
tp345
F1
s(S'MP'
S'MVVNP'
tp346
F1
s(g102
S'ADVADVNNCP'
tp347
F1
s(g121
S'AAPP'
tp348
F3
s(S'VP'
p349
S'VVCCP'
tp350
F2
s(S'PP'
S'ADVPANP'
tp351
F2
s(g61
S'NAPP'
tp352
F6
s(g268
S'NADVDP'
tp353
F1
s(S'PP'
S'ADVPPPP'
tp354
F2
s(g262
S'ANCCP'
tp355
F3
s(S'NP'
S'AANPP'
tp356
F1
s(S'VP'
p357
S'VDDDP'
tp358
F1
s(S'NP'
S'NNMP'
tp359
F3
s(g169
S'DDDVP'
tp360
F2
s(S'VP'
p361
S'AAVDDDP'
tp362
F1
s(S'PP'
S'PAAAP'
tp363
F2
s(S'PP'
S'ADVADVPNP'
tp364
F1
s(g211
S'CDDAPP'
tp365
F3
s(g139
S'ANAP'
tp366
F2
s(S'MP'
p367
S'MVAP'
tp368
F3
s(g41
S'PVP'
tp369
F67
s(g271
S'DADVAVP'
tp370
F1
s(g125
S'VADVCCP'
tp371
F1
s(g152
S'DVVVP'
tp372
F1
s(g367
S'MMMMVP'
tp373
F1
s(g75
S'PPDDP'
tp374
F8
s(g7
S'AVCP'
tp375
F3
s(g12
S'DPP'
tp376
F97
s(g311
S'ADVNVP'
tp377
F4
s(g309
S'DDPP'
tp378
F24
s(g4
S'DANP'
tp379
F23
s(S'NP'
S'NADVPP'
tp380
F1
s(S'PP'
S'PDDDP'
tp381
F1
s(g169
S'DCCP'
tp382
F3
s(S'CP'
S'CCADVADVADVDDP'
tp383
F1
s(S'CP'
S'CDPPPPP'
tp384
F1
s(g150
S'VVDDP'
tp385
F1
s(S'DP'
S'DDADVVP'
tp386
F1
s(S'PP'
S'PDDP'
tp387
F15
s(g128
S'MVDDP'
tp388
F1
s(g255
S'NNVP'
tp389
F14
s(g9
S'APAAP'
tp390
F2
s(g105
S'AVDP'
tp391
F9
s(S'MP'
S'MMMMMVP'
tp392
F1
s(S'DP'
S'ADVADPP'
tp393
F1
s(g25
S'DAANP'
tp394
F3
s(S'MP'
S'MADDP'
tp395
F1
s(S'AP'
S'ADDP'
tp396
F10
s(S'PP'
S'PNNNNP'
tp397
F1
s(S'VP'
S'ADVVVAP'
tp398
F1
s(g243
S'ADVPPNP'
tp399
F2
s(S'VP'
S'VVVCP'
tp400
F1
s(g338
S'DPPP'
tp401
F24
s(S'DP'
S'DAVVP'
tp402
F2
s(S'PP'
S'ADVADVPPNP'
tp403
F2
s(S'NP'
S'NNAVP'
tp404
F1
s(S'VP'
S'AVVCP'
tp405
F1
s(S'PP'
S'ADVPNP'
tp406
F3
s(g9
S'PPDP'
tp407
F18
s(S'MP'
S'MAVDP'
tp408
F3
s(g349
S'VVADVAVP'
tp409
F1
s(g316
S'PPADVDDP'
tp410
F1
s(S'NP'
S'NAP'
tp411
F20
s(g158
S'VAAAP'
tp412
F1
s(g349
S'ADVAVNP'
tp413
F1
s(g7
S'VVP'
tp414
F16
s(g154
S'DDAPP'
tp415
F3
s(g22
S'APNP'
tp416
F11
s(g338
S'DDVVP'
tp417
F4
s(S'AP'
S'AAADDP'
tp418
F1
s(S'MP'
S'MVNNP'
tp419
F2
s(S'AP'
S'AAADVPP'
tp420
F1
s(g227
S'CDPP'
tp421
F88
s(g107
S'MVVNNP'
tp422
F1
s(g93
S'ADVCDP'
tp423
F2
s(g182
S'PPPPAP'
tp424
F1
s(g53
S'PPNNP'
tp425
F4
s(S'PP'
S'ADVAPPP'
tp426
F1
s(g286
S'VAADP'
tp427
F1
s(S'VP'
S'AVDDP'
tp428
F2
s(g63
S'DADVNP'
tp429
F1
s(g338
S'DAP'
tp430
F11
s(g148
S'CADPP'
tp431
F7
s(S'DP'
S'DADVADVADVADVVP'
tp432
F1
s(S'VP'
S'AVPP'
tp433
F2
s(g357
S'VVADVDP'
tp434
F2
s(S'CP'
S'CDPPPP'
tp435
F3
s(g361
S'VADVADVADVNP'
tp436
F1
s(g167
S'AADNNP'
tp437
F1
s(g78
S'ADVADVVVP'
tp438
F1
s(S'AP'
S'AAAPP'
tp439
F1
s(g112
S'PPADVADVPPP'
tp440
F1
s(S'DP'
S'DADVADVPP'
tp441
F1
s(g57
S'DMP'
tp442
F2
s(g110
S'PPPNP'
tp443
F1
s(g255
S'NPP'
tp444
F61
s(g221
S'ADPP'
tp445
F12
s(g30
S'VADVPP'
tp446
F1
s(S'PP'
S'ADVPVP'
tp447
F1
s(g271
S'DDDDPP'
tp448
F1
s(S'VP'
S'ADVVANP'
tp449
F2
s(g49
S'PAMP'
tp450
F1
s(g292
S'ADVPDP'
tp451
F3
s(g262
S'ANNPP'
tp452
F1
s(S'AP'
S'ADVAAMP'
tp453
F1
s(g307
S'NCP'
tp454
F70
s(S'VP'
S'ADVVVPP'
tp455
F1
s(g25
S'DDADVVVP'
tp456
F1
s(S'AP'
S'AAAP'
tp457
F1
s(S'CP'
S'CDDADVADVPP'
tp458
F1
s(g234
S'AANDP'
tp459
F1
s(g154
S'DADVNNP'
tp460
F1
s(S'NP'
S'NNCCP'
tp461
F1
s(g71
S'AANAP'
tp462
F2
s(S'VP'
p463
S'VAPP'
tp464
F3
s(g251
S'ADVVDP'
tp465
F3
s(g221
S'DADVPP'
tp466
F7
s(S'AP'
S'AMP'
tp467
F1
s(S'CP'
S'CCADP'
tp468
F2
s(S'AP'
S'ADVAPP'
tp469
F2
s(S'CP'
S'AACDP'
tp470
F2
s(g55
S'DVP'
tp471
F62
s(g121
S'AVP'
tp472
F19
s(g262
S'NADVVP'
tp473
F3
s(g16
S'ADVVPPP'
tp474
F1
s(S'DP'
S'DDPPP'
tp475
F6
s(S'NP'
S'NNAP'
tp476
F1
s(g217
S'PPANP'
tp477
F1
s(S'CP'
S'CDADVPP'
tp478
F3
s(g203
S'VNP'
tp479
F51
s(g132
S'VANP'
tp480
F7
s(g463
S'VADVAP'
tp481
F4
s(S'VP'
S'VVVAP'
tp482
F1
s(S'VP'
S'ADVADVVVDP'
tp483
F1
s.