ccollections
defaultdict
p1
(c__builtin__
float
p2
tRp3
(S'MP'
p4
S'MMDP'
tp5
F2
s(S'VP'
p6
S'VVAAAP'
tp7
F1
s(S'NP'
p8
S'AANDDP'
tp9
F1
s(S'DP'
p10
S'ADDPP'
tp11
F1
s(S'DP'
p12
S'DDAP'
tp13
F2
s(S'VP'
S'ADVVVNP'
tp14
F1
s(S'VP'
p15
S'ADVADVVVPPP'
tp16
F1
s(S'AP'
p17
S'AADDDP'
tp18
F2
s(S'VP'
p19
S'VVVVP'
tp20
F1
s(S'PP'
S'ADVADVPAP'
tp21
F1
s(S'PP'
p22
S'PAPP'
tp23
F7
s(S'PP'
p24
S'PADVNP'
tp25
F13
s(S'DP'
p26
S'DNP'
tp27
F72
s(S'NP'
p28
S'ADVADVNNNDP'
tp29
F1
s(S'MP'
p30
S'MVVAAP'
tp31
F1
s(S'NP'
p32
S'ADVNDP'
tp33
F2
s(S'VP'
p34
S'ADVVNNP'
tp35
F1
s(S'CP'
S'CDPPP'
tp36
F40
s(S'PP'
p37
S'PADVACP'
tp38
F1
s(S'VP'
p39
S'VADP'
tp40
F11
s(S'DP'
p41
S'DNNNNP'
tp42
F2
s(g26
S'DAAP'
tp43
F7
s(g24
S'PPPPPP'
tp44
F1
s(S'VP'
S'AVMMP'
tp45
F1
s(S'VP'
p46
S'VAVP'
tp47
F2
s(S'PP'
p48
S'APPDP'
tp49
F1
s(S'DP'
p50
S'DAADP'
tp51
F1
s(S'DP'
p52
S'ADNNP'
tp53
F3
s(S'MP'
p54
S'MDVP'
tp55
F2
s(S'PP'
p56
S'PADVADVAAP'
tp57
F1
s(S'VP'
S'ADVVNP'
tp58
F10
s(S'MP'
p59
S'MVDP'
tp60
F21
s(S'PP'
p61
S'PADVANP'
tp62
F2
s(S'PP'
p63
S'PPPP'
tp64
F22
s(g10
S'DDDNP'
tp65
F6
s(S'MP'
p66
S'MMADVVP'
tp67
F1
s(S'VP'
p68
S'VACP'
tp69
F3
s(S'DP'
S'DADVVP'
tp70
F9
s(S'MP'
p71
S'MMCP'
tp72
F1
s(S'PP'
p73
S'PADVNNP'
tp74
F1
s(S'VP'
S'AAVVP'
tp75
F1
s(S'NP'
p76
S'NCCCP'
tp77
F2
s(S'MP'
S'MADVPADP'
tp78
F1
s(g19
S'VCP'
tp79
F42
s(S'NP'
p80
S'NMMP'
tp81
F5
s(S'MP'
S'MADVVPP'
tp82
F1
s(S'VP'
p83
S'ADVVAAP'
tp84
F1
s(g73
S'ADVPNNP'
tp85
F2
s(S'PP'
p86
S'PAP'
tp87
F50
s(S'PP'
S'PPANNP'
tp88
F1
s(S'MP'
p89
S'MMVVP'
tp90
F3
s(S'DP'
p91
S'AADDDP'
tp92
F1
s(S'PP'
p93
S'ADVPPVP'
tp94
F2
s(S'MP'
p95
S'MAVVDDDP'
tp96
F1
s(S'NP'
p97
S'NNNAP'
tp98
F1
s(g37
S'APVVP'
tp99
F4
s(S'PP'
S'PPADVDP'
tp100
F1
s(g46
S'VADVANP'
tp101
F2
s(g86
S'PNP'
tp102
F72
s(S'DP'
p103
S'ADVADVDDADP'
tp104
F1
s(g93
S'PCP'
tp105
F4
s(g26
S'DDP'
tp106
F31
s(S'NP'
p107
S'NNDP'
tp108
F14
s(S'VP'
S'ADVVVDDP'
tp109
F1
s(S'MP'
S'MCDP'
tp110
F2
s(S'DP'
p111
S'DDAANP'
tp112
F1
s(g4
S'MNAP'
tp113
F3
s(S'DP'
S'DAAAANP'
tp114
F1
s(S'PP'
S'PADVVVP'
tp115
F1
s(S'NP'
p116
S'NMP'
tp117
F44
s(S'MP'
p118
S'MPADVVP'
tp119
F1
s(g15
S'AAVNP'
tp120
F2
s(S'VP'
p121
S'VMMP'
tp122
F8
s(g86
S'PDP'
tp123
F69
s(S'CP'
S'CCADVADVDP'
tp124
F1
s(S'VP'
p125
S'VAMP'
tp126
F4
s(S'NP'
p127
S'ADVNVVP'
tp128
F2
s(S'MP'
S'MNNVP'
tp129
F2
s(S'NP'
S'NNADVMP'
tp130
F1
s(S'PP'
p131
S'ADVPAAP'
tp132
F1
s(S'NP'
p133
S'NADVADVADVVP'
tp134
F1
s(g37
S'PADVPP'
tp135
F7
s(g121
S'AAVPP'
tp136
F2
s(S'MP'
p137
S'MVACP'
tp138
F1
s(S'NP'
p139
S'ADVNACP'
tp140
F2
s(S'PP'
p141
S'ADVADVAPPP'
tp142
F1
s(S'DP'
p143
S'DPPPP'
tp144
F5
s(S'DP'
p145
S'DDANP'
tp146
F1
s(S'PP'
S'PADVADP'
tp147
F1
s(S'PP'
p148
S'ADVPADP'
tp149
F1
s(S'AP'
p150
S'ADVAVP'
tp151
F2
s(S'NP'
p152
S'NCCP'
tp153
F35
s(S'DP'
p154
S'DADVADVVVP'
tp155
F1
s(S'NP'
S'NADVADVDDP'
tp156
F1
s(g80
S'ADVNADVADVDP'
tp157
F1
s(S'VP'
p158
S'VVVVVP'
tp159
F1
s(g152
S'NNCP'
tp160
F32
s(g154
S'ADVDDPP'
tp161
F3
s(g28
S'NADVADVVP'
tp162
F1
s(S'NP'
p163
S'NNPPPP'
tp164
F1
s(S'DP'
p165
S'DDDDP'
tp166
F2
s(S'DP'
p167
S'DDAPP'
tp168
F1
s(g133
S'NADVDDP'
tp169
F2
s(g46
S'AVNP'
tp170
F5
s(S'VP'
S'VVADP'
tp171
F1
s(S'MP'
p172
S'MADVVPPP'
tp173
F1
s(S'VP'
p174
S'VVNNNP'
tp175
F2
s(S'PP'
p176
S'ADVPVVP'
tp177
F3
s(S'PP'
p178
S'ADVAPDP'
tp179
F1
s(S'PP'
p180
S'AAPNP'
tp181
F1
s(g6
S'VADVVP'
tp182
F1
s(g116
S'ANADVVP'
tp183
F1
s(g73
S'ADVPAPP'
tp184
F1
s(S'CP'
S'CCCDP'
tp185
F4
s(g6
S'AVNNP'
tp186
F3
s(S'VP'
S'VCCCP'
tp187
F2
s(S'PP'
p188
S'ADVPCCP'
tp189
F1
s(g22
S'APDP'
tp190
F13
s(g28
S'ADVNPPP'
tp191
F2
s(S'AP'
S'AADVCP'
tp192
F2
s(g83
S'VVANP'
tp193
F1
s(g59
S'MVADVNP'
tp194
F1
s(S'VP'
p195
S'ADVVVP'
tp196
F2
s(g52
S'DADVADVADVPP'
tp197
F1
s(g8
S'ADVADVNNPP'
tp198
F1
s(g4
S'MADVVNP'
tp199
F3
s(g176
S'PAAP'
tp200
F12
s(S'NP'
p201
S'ADVANCP'
tp202
F3
s(g50
S'DNNP'
tp203
F39
s(S'CP'
S'CADVDDPP'
tp204
F2
s(g24
S'PADVAP'
tp205
F5
s(S'CP'
p206
S'CCADVDP'
tp207
F4
s(g61
S'PPAADP'
tp208
F1
s(S'AP'
p209
S'ADDDDP'
tp210
F1
s(S'DP'
p211
S'ADDNP'
tp212
F1
s(S'NP'
S'NNNVP'
tp213
F3
s(g195
S'VADVNNP'
tp214
F1
s(S'PP'
p215
S'PADVVP'
tp216
F7
s(S'PP'
S'APAP'
tp217
F3
s(S'AP'
p218
S'APP'
tp219
F28
s(S'AP'
S'AAAPPP'
tp220
F1
s(g163
S'NADVMP'
tp221
F2
s(g218
S'AAP'
tp222
F3
s(S'CP'
p223
S'CADVADPP'
tp224
F1
s(S'NP'
S'ADVANPP'
tp225
F1
s(g54
S'MVVCP'
tp226
F4
s(S'DP'
S'DAAVP'
tp227
F3
s(S'CP'
p228
S'CDDDDPP'
tp229
F1
s(S'MP'
S'MPVP'
tp230
F1
s(g137
S'MADVAPPDP'
tp231
F1
s(S'MP'
p232
S'MAAADVDP'
tp233
F1
s(S'PP'
S'PAANP'
tp234
F1
s(S'VP'
p235
S'VADVADVCP'
tp236
F2
s(g10
S'ADVDVP'
tp237
F7
s(S'NP'
p238
S'ANVP'
tp239
F11
s(S'MP'
S'MVNP'
tp240
F27
s(S'MP'
p241
S'AMVP'
tp242
F4
s(S'MP'
S'MNDP'
tp243
F2
s(S'NP'
S'NNNNP'
tp244
F1
s(S'NP'
p245
S'ANAAP'
tp246
F1
s(S'CP'
S'CDDDPPP'
tp247
F2
s(S'DP'
S'ADVADNP'
tp248
F1
s(g24
S'PAVP'
tp249
F9
s(g66
S'ADVMVP'
tp250
F3
s(g19
S'ADVVMP'
tp251
F5
s(S'VP'
S'VVVPP'
tp252
F1
s(S'CP'
S'ADVCADP'
tp253
F1
s(g86
S'APPPP'
tp254
F3
s(S'DP'
p255
S'DADP'
tp256
F2
s(S'AP'
p257
S'ADVADP'
tp258
F5
s(S'CP'
S'ADVADVCDP'
tp259
F5
s(S'VP'
p260
S'VVADVPP'
tp261
F1
s(S'PP'
p262
S'APDDP'
tp263
F1
s(g6
S'ADVADVVVNP'
tp264
F2
s(g30
S'MNACP'
tp265
F1
s(S'DP'
p266
S'ADVDDDP'
tp267
F1
s(S'PP'
p268
S'APVP'
tp269
F8
s(S'MP'
S'MADVADVVPP'
tp270
F1
s(S'MP'
S'MNNCP'
tp271
F4
s(S'MP'
p272
S'MNCP'
tp273
F11
s(S'VP'
p274
S'VVNP'
tp275
F30
s(g195
S'VADVADVAAP'
tp276
F1
s(g206
S'ADVCCDP'
tp277
F3
s(g22
S'PPVP'
tp278
F25
s(S'VP'
p279
S'VADVDP'
tp280
F9
s(S'MP'
p281
S'MVVVPP'
tp282
F1
s(S'VP'
p283
S'VVADVAP'
tp284
F1
s(g125
S'VAAP'
tp285
F15
s(S'NP'
p286
S'ANDP'
tp287
F6
s(g201
S'NVVP'
tp288
F37
s(g73
S'PPADP'
tp289
F1
s(g19
S'VMP'
tp290
F40
s(S'MP'
p291
S'MMMADVVVP'
tp292
F1
s(g6
S'VVNNP'
tp293
F4
s(S'CP'
p294
S'CDAPP'
tp295
F19
s(g19
S'VVAAP'
tp296
F5
s(g54
S'MMPP'
tp297
F2
s(S'DP'
S'ADVADVP'
tp298
F1
s(S'DP'
p299
S'ADNP'
tp300
F15
s(S'NP'
S'AANPP'
tp301
F1
s(g103
S'DDADVAP'
tp302
F1
s(g22
S'PADP'
tp303
F9
s(g195
S'ADVVVCP'
tp304
F1
s(g28
S'ANDDP'
tp305
F1
s(g66
S'MPADVNP'
tp306
F1
s(S'AP'
S'AAADVADVDP'
tp307
F1
s(S'PP'
S'ADVADVPMP'
tp308
F1
s(g26
S'DAPP'
tp309
F24
s(S'VP'
p310
S'AVVP'
tp311
F2
s(S'VP'
S'ADVADVVPP'
tp312
F1
s(g48
S'ADVADVADVPPP'
tp313
F1
s(S'VP'
p314
S'VADVAAP'
tp315
F1
s(S'MP'
p316
S'MDDNP'
tp317
F2
s(g195
S'ADVADVVDP'
tp318
F3
s(g241
S'MANAAP'
tp319
F1
s(g266
S'DAAANP'
tp320
F1
s(g266
S'DADVANP'
tp321
F3
s(g26
S'ADVDNP'
tp322
F10
s(g19
S'VVPP'
tp323
F21
s(S'DP'
p324
S'ADVADVDADP'
tp325
F1
s(g59
S'MVPP'
tp326
F10
s(g50
S'ADVP'
tp327
F7
s(S'CP'
p328
S'CDDPPP'
tp329
F8
s(g52
S'ADVADVDAADP'
tp330
F1
s(S'VP'
p331
S'ADVADVADVVDP'
tp332
F1
s(g116
S'NNPP'
tp333
F23
s(S'PP'
S'ADVPDDDP'
tp334
F1
s(g201
S'AAANDP'
tp335
F1
s(g95
S'MVVDP'
tp336
F5
s(g218
S'AACP'
tp337
F5
s(S'PP'
p338
S'PPVVP'
tp339
F7
s(S'DP'
S'DNNNP'
tp340
F1
s(g291
S'MPPDP'
tp341
F1
s(S'DP'
p342
S'ADVDDVP'
tp343
F2
s(g73
S'PADVADVVP'
tp344
F3
s(g125
S'VADVDDP'
tp345
F1
s(S'PP'
S'PMMP'
tp346
F2
s(S'PP'
S'PVVVP'
tp347
F4
s(g86
S'PMP'
tp348
F11
s(g294
S'CCDP'
tp349
F43
s(g121
S'VAAVP'
tp350
F2
s(g188
S'PPNNNP'
tp351
F1
s(S'NP'
p352
S'NVVVP'
tp353
F1
s(S'CP'
S'CDDDPP'
tp354
F1
s(g328
S'CDADVADVPP'
tp355
F4
s(g279
S'ADVADVVVVP'
tp356
F1
s(S'VP'
p357
S'VVVDP'
tp358
F1
s(S'NP'
S'AANVVVVP'
tp359
F1
s(g141
S'PNNNP'
tp360
F4
s(S'MP'
S'MADVACP'
tp361
F1
s(g357
S'ADVVVMP'
tp362
F1
s(S'AP'
p363
S'AACCP'
tp364
F2
s(g125
S'VVMP'
tp365
F10
s(S'VP'
S'ADVVVDP'
tp366
F2
s(g22
S'PPP'
tp367
F56
s(S'NP'
p368
S'NAVP'
tp369
F12
s(g255
S'ADVADVDDNP'
tp370
F2
s(S'DP'
S'DDNNNP'
tp371
F2
s(S'VP'
S'VVVVCCP'
tp372
F1
s(g148
S'PADDP'
tp373
F1
s(g37
S'PPADVADVNNP'
tp374
F1
s(g163
S'NAAAP'
tp375
F1
s(g8
S'NADVVVP'
tp376
F3
s(S'AP'
p377
S'AADVVP'
tp378
F4
s(S'DP'
p379
S'DAAAP'
tp380
F1
s(g19
S'VPP'
tp381
F53
s(g211
S'ADVDAAVP'
tp382
F1
s(S'CP'
S'CADVDAPP'
tp383
F1
s(g342
S'ADVDDNP'
tp384
F2
s(g80
S'NNNCP'
tp385
F5
s(g56
S'PADVDP'
tp386
F8
s(S'CP'
S'CDADVAPP'
tp387
F1
s(S'PP'
S'PADVAAP'
tp388
F1
s(g294
S'CDDPP'
tp389
F38
s(g52
S'DAAPP'
tp390
F4
s(g86
S'PVVP'
tp391
F26
s(S'CP'
p392
S'CADPPP'
tp393
F3
s(g266
S'DADVPPP'
tp394
F4
s(S'NP'
S'NADVMMP'
tp395
F1
s(g97
S'NNADVMMP'
tp396
F1
s(S'VP'
p397
S'ADVVCP'
tp398
F2
s(g241
S'MCCDP'
tp399
F1
s(g19
S'VPPP'
tp400
F19
s(S'VP'
p401
S'AVCCP'
tp402
F2
s(g50
S'DVVP'
tp403
F24
s(S'VP'
p404
S'VVPPP'
tp405
F4
s(S'MP'
p406
S'MVPPP'
tp407
F3
s(S'CP'
p408
S'CDADVADVAPP'
tp409
F1
s(S'PP'
S'PADVAVP'
tp410
F1
s(g34
S'VVVADVAP'
tp411
F1
s(S'CP'
S'ADVACDDP'
tp412
F1
s(g245
S'ANMP'
tp413
F2
s(g56
S'PPAP'
tp414
F13
s(S'PP'
S'ADVPPP'
tp415
F5
s(S'NP'
S'ADVADVNVP'
tp416
F2
s(g121
S'VVVP'
tp417
F14
s(S'CP'
S'CADVDPP'
tp418
F17
s(g368
S'ADVADVNNVP'
tp419
F2
s(S'VP'
p420
S'AVMP'
tp421
F2
s(g76
S'ANCP'
tp422
F12
s(S'DP'
S'DCP'
tp423
F26
s(g32
S'ANNCP'
tp424
F1
s(g167
S'DDDNNP'
tp425
F1
s(g89
S'MNADVPP'
tp426
F1
s(g266
S'DDDP'
tp427
F10
s(g54
S'ADVMCP'
tp428
F1
s(g10
S'DDADVPP'
tp429
F6
s(S'NP'
S'ANNVVP'
tp430
F1
s(g76
S'ANVVP'
tp431
F2
s(g83
S'VVDP'
tp432
F28
s(g152
S'NPPP'
tp433
F13
s(g73
S'PPAPP'
tp434
F1
s(S'AP'
p435
S'APPP'
tp436
F5
s(g26
S'DAVP'
tp437
F11
s(g392
S'CDADVADVADVPP'
tp438
F1
s(S'AP'
p439
S'ACP'
tp440
F31
s(g48
S'AAPAP'
tp441
F1
s(g22
S'PPADVADVADVNP'
tp442
F1
s(g241
S'MADVADVDDNP'
tp443
F1
s(S'AP'
p444
S'ADVACCP'
tp445
F1
s(g12
S'ADVDAPP'
tp446
F1
s(g406
S'AMAP'
tp447
F2
s(S'DP'
S'AADVP'
tp448
F1
s(g118
S'MACP'
tp449
F1
s(S'CP'
S'CDDADVPP'
tp450
F4
s(S'CP'
S'CCCDDP'
tp451
F1
s(g218
S'ADP'
tp452
F60
s(g406
S'MVADVDDP'
tp453
F1
s(g48
S'APMP'
tp454
F1
s(g91
S'DDPPPP'
tp455
F2
s(g232
S'MDPP'
tp456
F1
s(S'PP'
p457
S'ADVAPPDP'
tp458
F1
s(g61
S'ADVPAAVP'
tp459
F1
s(g89
S'MAAVAP'
tp460
F1
s(S'VP'
S'AAVCCP'
tp461
F1
s(S'AP'
p462
S'AAADP'
tp463
F2
s(S'VP'
S'AAVADVMP'
tp464
F1
s(S'VP'
p465
S'VVAP'
tp466
F14
s(g28
S'NNAPP'
tp467
F1
s(S'AP'
S'AAAADVDP'
tp468
F1
s(g48
S'PADVADVDP'
tp469
F2
s(S'PP'
p470
S'PPADVVP'
tp471
F1
s(g152
S'NPP'
tp472
F63
s(g41
S'ADVADVADVDDPP'
tp473
F1
s(g152
S'NVP'
tp474
F77
s(g73
S'PPVVVP'
tp475
F2
s(g141
S'PAAVP'
tp476
F1
s(S'MP'
p477
S'ADVMMVP'
tp478
F2
s(g420
S'VDDP'
tp479
F31
s(S'AP'
S'AAADVDP'
tp480
F2
s(S'DP'
p481
S'DADVAPP'
tp482
F1
s(g52
S'AADDNP'
tp483
F1
s(g107
S'ANPP'
tp484
F10
s(g63
S'ADVPPDP'
tp485
F2
s(S'PP'
S'PPPPP'
tp486
F4
s(g59
S'MPDP'
tp487
F9
s(g86
S'ADVADVPDP'
tp488
F4
s(S'CP'
S'CCCADVADVADVDDP'
tp489
F1
s(g73
S'PPPNP'
tp490
F5
s(g12
S'DDDDDP'
tp491
F1
s(S'MP'
p492
S'MMDDP'
tp493
F1
s(S'NP'
S'ADVADVNPP'
tp494
F2
s(g97
S'NPPPP'
tp495
F1
s(g103
S'ADDP'
tp496
F2
s(g174
S'VVVMP'
tp497
F1
s(g201
S'NAACP'
tp498
F2
s(g268
S'PNNP'
tp499
F30
s(S'PP'
S'APNNP'
tp500
F3
s(g30
S'MMNP'
tp501
F3
s(g54
S'MVADVADP'
tp502
F1
s(g6
S'AVAP'
tp503
F7
s(g172
S'MMVP'
tp504
F12
s(g63
S'PADVDDP'
tp505
F3
s(S'NP'
S'ADVNCP'
tp506
F6
s(g439
S'AADP'
tp507
F22
s(g286
S'NAPPP'
tp508
F1
s(g228
S'ACDP'
tp509
F12
s(g54
S'MDADVADVNNP'
tp510
F1
s(g6
S'VCCP'
tp511
F12
s(g316
S'MDNNP'
tp512
F5
s(S'CP'
p513
S'CDADVPPP'
tp514
F4
s(g465
S'VAP'
tp515
F51
s(g406
S'MNVVP'
tp516
F2
s(S'DP'
p517
S'DDDPP'
tp518
F6
s(g408
S'ADVCDDP'
tp519
F2
s(S'CP'
S'CDAAPP'
tp520
F1
s(g22
S'PAAPP'
tp521
F2
s(S'DP'
S'DDDAAP'
tp522
F1
s(S'AP'
p523
S'ADVAAPP'
tp524
F1
s(g54
S'MNMP'
tp525
F3
s(g404
S'ADVADVVVAP'
tp526
F1
s(S'DP'
S'DDDPPP'
tp527
F2
s(g165
S'DADVDP'
tp528
F2
s(S'AP'
S'AAACP'
tp529
F2
s(S'NP'
p530
S'NAAP'
tp531
F5
s(S'PP'
S'PPPVP'
tp532
F2
s(S'VP'
p533
S'AAVAP'
tp534
F1
s(g17
S'AADDP'
tp535
F4
s(S'MP'
S'MAADP'
tp536
F1
s(g260
S'VAANP'
tp537
F1
s(S'NP'
p538
S'NADVADVCP'
tp539
F3
s(S'DP'
S'DADVADVDP'
tp540
F1
s(g492
S'MPNP'
tp541
F11
s(S'MP'
S'MADP'
tp542
F7
s(S'MP'
S'MVADVDP'
tp543
F2
s(g444
S'AMMP'
tp544
F1
s(S'AP'
S'AAACCP'
tp545
F1
s(g10
S'DDADVNP'
tp546
F3
s(g56
S'PANP'
tp547
F12
s(g180
S'PDDDP'
tp548
F1
s(g52
S'DADVADVNNP'
tp549
F1
s(S'AP'
S'AAVP'
tp550
F7
s(g257
S'AVVP'
tp551
F5
s(g310
S'VADVADVAP'
tp552
F1
s(g116
S'NDDP'
tp553
F11
s(g48
S'PADVMP'
tp554
F1
s(g283
S'VADVCP'
tp555
F2
s(S'AP'
p556
S'ACCP'
tp557
F5
s(g158
S'VVVVAP'
tp558
F1
s(g195
S'AVPPP'
tp559
F2
s(S'NP'
S'NDP'
tp560
F46
s(S'NP'
S'NNNNVVP'
tp561
F1
s(g30
S'MVAAP'
tp562
F1
s(S'DP'
p563
S'DDVP'
tp564
F22
s(g530
S'AANVP'
tp565
F2
s(g357
S'ADVVVNNP'
tp566
F1
s(g211
S'DADVADVAPP'
tp567
F1
s(g279
S'VNNNP'
tp568
F2
s(g465
S'VADVADVPP'
tp569
F3
s(g148
S'ADVPAP'
tp570
F3
s(g141
S'ADVPPADVDP'
tp571
F1
s(g215
S'APPNP'
tp572
F2
s(g195
S'VADVADP'
tp573
F1
s(g262
S'PAADP'
tp574
F1
s(g352
S'NADVCCP'
tp575
F2
s(g245
S'NNNMP'
tp576
F1
s(S'VP'
S'VADVMMP'
tp577
F1
s(g363
S'ADVACP'
tp578
F3
s(S'NP'
S'ADVADVNMP'
tp579
F1
s(g255
S'DDADVVP'
tp580
F1
s(g139
S'NNVP'
tp581
F33
s(g59
S'MVCP'
tp582
F12
s(g328
S'CCDDP'
tp583
F16
s(S'NP'
S'NNNVVP'
tp584
F1
s(S'DP'
S'DADVADVADVVVP'
tp585
F1
s(g368
S'NNVVP'
tp586
F10
s(S'VP'
p587
S'VVCP'
tp588
F14
s(g48
S'PADVADVPP'
tp589
F1
s(g103
S'ADVDMP'
tp590
F1
s(g530
S'AANCP'
tp591
F2
s(g19
S'VADVNP'
tp592
F10
s(g533
S'VVDDDP'
tp593
F3
s(S'MP'
S'MDDNNNP'
tp594
F1
s(g150
S'ADVAVVP'
tp595
F3
s(g215
S'APPP'
tp596
F5
s(S'MP'
S'MDDPP'
tp597
F1
s(g6
S'ADVVPP'
tp598
F3
s(g86
S'PPNP'
tp599
F39
s(g465
S'VNNP'
tp600
F30
s(g218
S'AADVDP'
tp601
F6
s(g444
S'AAAMP'
tp602
F2
s(g28
S'NADP'
tp603
F2
s(g50
S'DDNP'
tp604
F34
s(g107
S'NADVCP'
tp605
F10
s(g143
S'DDNNP'
tp606
F7
s(g22
S'PADVADVVVP'
tp607
F3
s(g116
S'ADVNAAP'
tp608
F1
s(g470
S'APCP'
tp609
F1
s(S'AP'
S'AADVADP'
tp610
F1
s(g281
S'MNNNAP'
tp611
F1
s(g50
S'AADPP'
tp612
F1
s(S'NP'
p613
S'AAAANVVP'
tp614
F1
s(S'NP'
S'NNNNPP'
tp615
F1
s(g15
S'VVMMP'
tp616
F2
s(S'AP'
S'AAMMP'
tp617
F1
s(S'MP'
p618
S'MADVVDP'
tp619
F1
s(S'MP'
S'MVVNP'
tp620
F2
s(g408
S'CDDADVPPP'
tp621
F1
s(S'PP'
S'ADVAPVP'
tp622
F1
s(g342
S'ADVDNNP'
tp623
F4
s(g223
S'ACDDP'
tp624
F3
s(S'AP'
p625
S'AAPP'
tp626
F9
s(g68
S'VVCCP'
tp627
F3
s(S'DP'
p628
S'DADVVVP'
tp629
F2
s(S'DP'
S'DADVADVNP'
tp630
F3
s(g48
S'ADVPANP'
tp631
F1
s(g245
S'NNPPP'
tp632
F3
s(g139
S'NAPP'
tp633
F8
s(g444
S'ADVADVADP'
tp634
F1
s(g286
S'NADVDP'
tp635
F6
s(S'PP'
S'APDDDP'
tp636
F1
s(S'MP'
S'MVDDP'
tp637
F2
s(g530
S'ANCCP'
tp638
F4
s(g8
S'ADVNCCP'
tp639
F2
s(S'NP'
S'NNMP'
tp640
F12
s(g52
S'DDDVP'
tp641
F3
s(g8
S'NNADVCP'
tp642
F3
s(g68
S'AAVDDDP'
tp643
F1
s(g457
S'ADVADVPNNP'
tp644
F1
s(g272
S'MAPDP'
tp645
F1
s(g56
S'ADVADVPNP'
tp646
F4
s(g401
S'VVVPPP'
tp647
F1
s(g107
S'ANAP'
tp648
F3
s(g492
S'MVAP'
tp649
F11
s(g6
S'VADVADVDDP'
tp650
F1
s(g86
S'PVP'
tp651
F73
s(g125
S'VADVPPP'
tp652
F1
s(g73
S'PPADVVVP'
tp653
F1
s(S'VP'
p654
S'VADVCCP'
tp655
F1
s(g523
S'ADVAACP'
tp656
F1
s(S'NP'
S'ADVNAVP'
tp657
F2
s(S'DP'
S'DVVVP'
tp658
F2
s(S'PP'
S'AAPPPP'
tp659
F1
s(g103
S'ADVADVDADVADVNNNP'
tp660
F1
s(g37
S'PPDDP'
tp661
F7
s(g19
S'AVCP'
tp662
F2
s(g50
S'DDVVVP'
tp663
F1
s(g54
S'MVADVADVAAP'
tp664
F1
s(g379
S'ADVADVADVDDPPP'
tp665
F1
s(g26
S'DPP'
tp666
F77
s(S'NP'
p667
S'ADVNVP'
tp668
F8
s(g26
S'DDPP'
tp669
F52
s(g211
S'DDADVPPP'
tp670
F2
s(g50
S'DANP'
tp671
F17
s(S'AP'
p672
S'ADVAMP'
tp673
F1
s(S'NP'
p674
S'NADVPP'
tp675
F5
s(g116
S'ADVADVADVNPP'
tp676
F1
s(g517
S'ADADVADVVVP'
tp677
F1
s(S'NP'
S'NADVADP'
tp678
F1
s(g71
S'MMAP'
tp679
F1
s(g538
S'NAAVP'
tp680
F4
s(g91
S'AADNP'
tp681
F2
s(g674
S'NACP'
tp682
F8
s(g211
S'ADVADVDPPP'
tp683
F1
s(g59
S'MDNP'
tp684
F13
s(g91
S'ADVDAAP'
tp685
F1
s(g4
S'MNAVP'
tp686
F1
s(S'CP'
S'CADVADVADVDDPPP'
tp687
F1
s(g667
S'ADVNMMP'
tp688
F1
s(g10
S'DCCP'
tp689
F1
s(g148
S'ADVPAAAP'
tp690
F1
s(g22
S'AAPDP'
tp691
F2
s(g121
S'VVDDP'
tp692
F11
s(g41
S'DDADVNNP'
tp693
F1
s(g174
S'VVADVADVNNP'
tp694
F1
s(g22
S'PDDP'
tp695
F31
s(g178
S'PADVAPP'
tp696
F1
s(S'PP'
p697
S'PCCP'
tp698
F1
s(g52
S'ADPPP'
tp699
F4
s(g538
S'ADVANVVVP'
tp700
F1
s(g54
S'AAMADVCP'
tp701
F1
s(g37
S'APAAP'
tp702
F1
s(g465
S'AVDP'
tp703
F12
s(S'NP'
S'NNP'
tp704
F1
s(g143
S'ADVADPP'
tp705
F3
s(g195
S'VAADDP'
tp706
F1
s(g324
S'DAANP'
tp707
F3
s(g439
S'ADDP'
tp708
F20
s(g672
S'AADVADVVVP'
tp709
F1
s(g235
S'ADVVVAP'
tp710
F1
s(g56
S'ADVPPNP'
tp711
F3
s(g54
S'MDAP'
tp712
F1
s(g299
S'DPPP'
tp713
F49
s(g52
S'AADPPP'
tp714
F2
s(g439
S'AAAP'
tp715
F3
s(g238
S'NMMMP'
tp716
F2
s(g73
S'PPCCCP'
tp717
F1
s(g314
S'AVVDDDP'
tp718
F1
s(g131
S'ADVPNP'
tp719
F11
s(g86
S'PPDP'
tp720
F27
s(S'MP'
S'MAVDP'
tp721
F1
s(g618
S'MNMMP'
tp722
F1
s(g52
S'ADVDCP'
tp723
F1
s(S'AP'
S'ADVADVAACP'
tp724
F1
s(g137
S'MVVADP'
tp725
F1
s(g444
S'ADVADVAAVVP'
tp726
F1
s(g91
S'DDCP'
tp727
F5
s(S'AP'
S'AAADVADVADVDDP'
tp728
F1
s(g556
S'ADVADVAADP'
tp729
F1
s(g116
S'NAP'
tp730
F43
s(g139
S'NNAAP'
tp731
F2
s(g331
S'VAAAP'
tp732
F2
s(S'MP'
S'ADVMMNP'
tp733
F1
s(S'VP'
S'ADVAVNP'
tp734
F1
s(g465
S'VVP'
tp735
F31
s(g89
S'ADVMNP'
tp736
F1
s(g24
S'PPAAP'
tp737
F4
s(g48
S'ADVADVPVP'
tp738
F1
s(g167
S'ADVADVADVDDVP'
tp739
F1
s(g22
S'APNP'
tp740
F8
s(g654
S'VVVNNP'
tp741
F2
s(g52
S'DDVVP'
tp742
F4
s(S'VP'
S'VVVNP'
tp743
F6
s(S'MP'
S'MNPP'
tp744
F4
s(S'NP'
S'NAMP'
tp745
F3
s(g628
S'ADVADVDDPP'
tp746
F1
s(S'MP'
S'MVNNP'
tp747
F3
s(g127
S'NADVADVPP'
tp748
F3
s(g294
S'CDPP'
tp749
F75
s(S'MP'
S'MVVNNP'
tp750
F1
s(S'NP'
S'NNADVADVVVP'
tp751
F1
s(g10
S'ADVDVVP'
tp752
F1
s(g406
S'MMMVP'
tp753
F1
s(S'AP'
S'AAAMMP'
tp754
F1
s(g145
S'DCCCP'
tp755
F1
s(S'CP'
S'ADVCDP'
tp756
F13
s(S'PP'
S'AAPVVP'
tp757
F1
s(g331
S'ADVADVVNP'
tp758
F1
s(g89
S'MNPPP'
tp759
F1
s(g235
S'ADVADVVCP'
tp760
F1
s(g268
S'PPNNP'
tp761
F14
s(g37
S'ADVPAVP'
tp762
F2
s(g56
S'PPMP'
tp763
F3
s(g52
S'ADVADVDPP'
tp764
F3
s(g39
S'VDP'
tp765
F68
s(g54
S'MMADVADVVP'
tp766
F1
s(g8
S'NADVAP'
tp767
F2
s(S'VP'
S'AVDDP'
tp768
F1
s(S'DP'
p769
S'DADVNP'
tp770
F10
s(g769
S'DAP'
tp771
F21
s(g294
S'CADPP'
tp772
F18
s(g19
S'ADVADVVVPP'
tp773
F2
s(S'VP'
S'VVDDDDP'
tp774
F1
s(g141
S'PPDDDP'
tp775
F2
s(g6
S'AVPP'
tp776
F3
s(S'CP'
S'CAADPPP'
tp777
F1
s(g481
S'DDNNNNP'
tp778
F1
s(g272
S'AMNP'
tp779
F3
s(S'CP'
p780
S'CDPPPP'
tp781
F1
s(g538
S'ADVNMP'
tp782
F2
s(g397
S'AAVDP'
tp783
F3
s(g338
S'PANNP'
tp784
F1
s(g613
S'ADVANMP'
tp785
F1
s(S'NP'
S'NNDDP'
tp786
F5
s(S'DP'
S'DAPPP'
tp787
F2
s(g342
S'DADVADVPP'
tp788
F6
s(g50
S'DMP'
tp789
F4
s(g50
S'ADVDPP'
tp790
F28
s(g457
S'PADVADVNP'
tp791
F2
s(g26
S'ADPP'
tp792
F20
s(S'NP'
S'NNNNCCCP'
tp793
F1
s(g587
S'VADVPP'
tp794
F5
s(g154
S'ADVDANP'
tp795
F2
s(g54
S'MAANDDP'
tp796
F1
s(g176
S'ADVPVP'
tp797
F13
s(g769
S'DDDDPP'
tp798
F2
s(g163
S'NNVVVP'
tp799
F2
s(g148
S'ADVPDP'
tp800
F5
s(g174
S'ADVVADP'
tp801
F1
s(g8
S'ADVNNPP'
tp802
F2
s(g152
S'NCP'
tp803
F72
s(g328
S'CADVDPPP'
tp804
F2
s(S'VP'
S'ADVVVPP'
tp805
F1
s(g352
S'ADVANDP'
tp806
F1
s(S'DP'
S'ADVVP'
tp807
F1
s(g15
S'VAADP'
tp808
F2
s(g435
S'AAMP'
tp809
F3
s(g697
S'ADVPDDP'
tp810
F1
s(g143
S'DDDDDPP'
tp811
F1
s(g477
S'MVCCP'
tp812
F1
s(g342
S'DADVNNP'
tp813
F2
s(g152
S'NNCCP'
tp814
F14
s(g172
S'MNVP'
tp815
F9
s(S'NP'
S'AANAP'
tp816
F1
s(g48
S'PADVADVAP'
tp817
F1
s(g195
S'VAPP'
tp818
F3
s(g6
S'ADVVDP'
tp819
F11
s(g397
S'VADDP'
tp820
F1
s(g563
S'DADVPP'
tp821
F15
s(g462
S'AMP'
tp822
F17
s(g328
S'CCADP'
tp823
F3
s(g238
S'ADVNNCP'
tp824
F3
s(g377
S'ADVAPP'
tp825
F1
s(S'PP'
p826
S'ADVADVPVVP'
tp827
F1
s(g223
S'CDDDDDPP'
tp828
F1
s(g780
S'CCCADVDP'
tp829
F1
s(g513
S'AACDP'
tp830
F2
s(g127
S'NNNCCP'
tp831
F2
s(S'CP'
S'CCDDDP'
tp832
F3
s(g342
S'ADVDPPP'
tp833
F3
s(g26
S'DVP'
tp834
F65
s(S'VP'
S'ADVVAP'
tp835
F4
s(g238
S'ADVNPP'
tp836
F6
s(g310
S'ADVADVADVVVNP'
tp837
F1
s(S'VP'
S'VVAMP'
tp838
F1
s(g209
S'ADVAADVVVP'
tp839
F1
s(g73
S'PADVADVDDP'
tp840
F1
s(g625
S'AVP'
tp841
F25
s(g368
S'NADVVP'
tp842
F12
s(g397
S'ADVVPPP'
tp843
F2
s(g342
S'DDPPP'
tp844
F14
s(g71
S'MDAANP'
tp845
F1
s(g238
S'NNAP'
tp846
F5
s(S'MP'
S'MCDDP'
tp847
F1
s(g195
S'VVADVADVDP'
tp848
F1
s(S'CP'
S'CDADVPP'
tp849
F9
s(g465
S'VNP'
tp850
F69
s(g121
S'VANP'
tp851
F9
s(g826
S'PADVPPP'
tp852
F1
s(g274
S'VADVAP'
tp853
F7
s(g48
S'PPADVNP'
tp854
F3
s(g111
S'DDDDVP'
tp855
F1
s.