ccollections
defaultdict
p1
(c__builtin__
float
p2
tRp3
(S'DP'
S'DDADVANP'
tp4
F1
s(S'MP'
p5
S'MMDP'
tp6
F10
s(S'VP'
S'VVAAAP'
tp7
F2
s(S'NP'
p8
S'NNNVVVP'
tp9
F1
s(S'DP'
S'DDADVADVNNP'
tp10
F1
s(S'CP'
S'CAAADPP'
tp11
F1
s(S'DP'
S'DDMP'
tp12
F2
s(S'DP'
p13
S'ADDPP'
tp14
F5
s(S'NP'
p15
S'ADVNNMP'
tp16
F2
s(S'DP'
p17
S'DDAP'
tp18
F11
s(S'VP'
p19
S'ADVVVNP'
tp20
F10
s(S'AP'
S'AADDDP'
tp21
F3
s(S'PP'
p22
S'ADVADVADVPPVP'
tp23
F1
s(S'VP'
S'VVVVP'
tp24
F3
s(S'NP'
p25
S'NNADVADVCCP'
tp26
F1
s(S'NP'
p27
S'NADDP'
tp28
F1
s(S'PP'
S'ADVADVPAP'
tp29
F1
s(S'PP'
p30
S'PAPP'
tp31
F39
s(S'PP'
p32
S'PADVNP'
tp33
F31
s(S'DP'
p34
S'DNP'
tp35
F581
s(S'PP'
p36
S'PPADVAVP'
tp37
F1
s(S'NP'
p38
S'ADVNDP'
tp39
F6
s(S'PP'
p40
S'AAPDDP'
tp41
F2
s(S'NP'
S'ADVNPPP'
tp42
F5
s(S'VP'
p43
S'ADVVNNNP'
tp44
F2
s(S'CP'
p45
S'CDPPP'
tp46
F175
s(S'DP'
S'ADVDDVP'
tp47
F5
s(S'DP'
p48
S'ADVADVADDP'
tp49
F1
s(S'MP'
S'MAVPP'
tp50
F2
s(S'VP'
p51
S'VADP'
tp52
F39
s(S'DP'
S'DNNNNP'
tp53
F3
s(S'CP'
S'ACADVADVDP'
tp54
F1
s(S'CP'
p55
S'CDAAPPP'
tp56
F1
s(g48
S'DAAP'
tp57
F18
s(S'NP'
p58
S'ADVNNDDP'
tp59
F1
s(S'PP'
p60
S'PPPPPP'
tp61
F5
s(S'DP'
S'DDDADVADVPP'
tp62
F1
s(S'VP'
p63
S'VADVADVVVP'
tp64
F1
s(S'VP'
p65
S'VAVP'
tp66
F6
s(S'PP'
p67
S'APPDP'
tp68
F4
s(S'CP'
S'CADVADVDPPP'
tp69
F5
s(S'VP'
S'VADVDDP'
tp70
F3
s(S'DP'
p71
S'DAADP'
tp72
F4
s(S'DP'
p73
S'ADNNP'
tp74
F2
s(S'AP'
p75
S'AAADVPPP'
tp76
F1
s(S'PP'
p77
S'ADVPPPP'
tp78
F5
s(S'MP'
S'MDVP'
tp79
F3
s(S'MP'
S'ADVMNNP'
tp80
F1
s(S'CP'
S'CADVADDPP'
tp81
F1
s(S'VP'
S'ADVVNP'
tp82
F33
s(S'MP'
p83
S'MVDP'
tp84
F85
s(S'PP'
S'PADVANP'
tp85
F5
s(g32
S'PPPP'
tp86
F154
s(S'VP'
S'VVVVDDP'
tp87
F1
s(S'DP'
S'DDDNP'
tp88
F15
s(S'MP'
S'MMADVVP'
tp89
F1
s(S'PP'
S'ADVPADDP'
tp90
F1
s(S'VP'
S'VACP'
tp91
F9
s(S'AP'
S'AAAVP'
tp92
F1
s(S'PP'
S'PPAAP'
tp93
F6
s(S'NP'
p94
S'NNADVDDP'
tp95
F1
s(S'AP'
S'ADVADDP'
tp96
F1
s(S'DP'
p97
S'DADVVP'
tp98
F19
s(S'NP'
S'AAANPPP'
tp99
F1
s(S'MP'
S'MMCP'
tp100
F4
s(S'NP'
p101
S'ANVVVP'
tp102
F1
s(S'DP'
S'ADVDAAANP'
tp103
F1
s(S'PP'
p104
S'PADVNNP'
tp105
F5
s(S'AP'
S'AADVPP'
tp106
F6
s(S'MP'
S'MCADVADVDP'
tp107
F1
s(S'NP'
S'NADVACP'
tp108
F2
s(g27
S'NDDDP'
tp109
F2
s(S'NP'
p110
S'NADVVVP'
tp111
F22
s(S'CP'
S'CADVDAPP'
tp112
F2
s(S'VP'
p113
S'VCP'
tp114
F292
s(S'MP'
S'MVVANP'
tp115
F1
s(S'NP'
p116
S'NMMP'
tp117
F27
s(S'VP'
S'ADVVAAP'
tp118
F3
s(S'NP'
S'NNADVAP'
tp119
F2
s(g65
S'ADVVCCP'
tp120
F4
s(S'PP'
S'ADVPADP'
tp121
F1
s(S'PP'
p122
S'PAP'
tp123
F248
s(S'MP'
S'MVADDP'
tp124
F1
s(S'MP'
S'MMVVP'
tp125
F8
s(S'CP'
S'CDADVADVADVPP'
tp126
F1
s(S'NP'
S'ANNCCP'
tp127
F1
s(S'PP'
p128
S'ADVPPVP'
tp129
F5
s(S'NP'
S'NNNAP'
tp130
F1
s(S'PP'
S'APVVP'
tp131
F7
s(S'NP'
S'NNNACP'
tp132
F1
s(S'PP'
S'PPADVDP'
tp133
F4
s(S'VP'
p134
S'VADVANP'
tp135
F8
s(S'PP'
p136
S'PNP'
tp137
F554
s(g58
S'ADVADVADVNNCP'
tp138
F2
s(S'VP'
p139
S'VVADVADVNP'
tp140
F1
s(S'MP'
S'MADVCDP'
tp141
F2
s(g34
S'DDP'
tp142
F114
s(S'MP'
p143
S'MADVP'
tp144
F1
s(S'MP'
S'MADVADVVAP'
tp145
F1
s(S'VP'
S'ADVVDDP'
tp146
F2
s(S'NP'
p147
S'NNNPP'
tp148
F3
s(g38
S'NNDP'
tp149
F57
s(S'VP'
S'ADVVVDDP'
tp150
F1
s(S'MP'
S'MCDP'
tp151
F22
s(S'PP'
p152
S'ADVPCP'
tp153
F4
s(S'CP'
S'CADVADVDDPP'
tp154
F1
s(S'MP'
S'ADVMMPP'
tp155
F1
s(S'MP'
S'MNNAP'
tp156
F1
s(S'MP'
p157
S'MNAP'
tp158
F4
s(S'VP'
p159
S'VVMMP'
tp160
F7
s(S'VP'
S'ADVADVVVCP'
tp161
F1
s(S'NP'
p162
S'NMP'
tp163
F250
s(S'PP'
S'PVVVVP'
tp164
F4
s(S'PP'
S'PPMMP'
tp165
F2
s(S'MP'
S'MADDDP'
tp166
F1
s(S'DP'
S'ADCP'
tp167
F1
s(S'MP'
S'MCADP'
tp168
F2
s(S'VP'
p169
S'AAVNP'
tp170
F1
s(g113
S'VMMP'
tp171
F40
s(g136
S'PDP'
tp172
F548
s(S'DP'
S'DDPPPPP'
tp173
F1
s(S'CP'
S'CDAAPP'
tp174
F6
s(S'NP'
S'ADVNVVP'
tp175
F1
s(S'VP'
S'VNNNNP'
tp176
F1
s(S'MP'
S'MNNVP'
tp177
F2
s(S'VP'
p178
S'VVVDDP'
tp179
F3
s(S'MP'
S'MADVVNP'
tp180
F5
s(S'CP'
p181
S'CDADVADVPPP'
tp182
F4
s(S'DP'
p183
S'ADVADVDAPP'
tp184
F1
s(S'PP'
S'PPADVADVCP'
tp185
F1
s(S'VP'
S'VVVDP'
tp186
F13
s(S'AP'
S'ANP'
tp187
F1
s(S'AP'
S'AAMMP'
tp188
F7
s(S'NP'
S'NADVADVADVVP'
tp189
F2
s(S'PP'
p190
S'PADVPP'
tp191
F9
s(S'PP'
p192
S'PDDDDP'
tp193
F3
s(S'NP'
p194
S'NNADVCP'
tp195
F6
s(S'VP'
S'VVADVNP'
tp196
F6
s(S'MP'
p197
S'MAAAVAP'
tp198
F1
s(S'MP'
S'MVACP'
tp199
F2
s(S'MP'
S'MMMVVP'
tp200
F1
s(S'AP'
S'ADVADVAMP'
tp201
F2
s(S'MP'
S'MVVADVADVDP'
tp202
F1
s(S'DP'
p203
S'DPPPP'
tp204
F22
s(S'DP'
p205
S'DDANP'
tp206
F14
s(g122
S'PADVADP'
tp207
F4
s(S'NP'
p208
S'NACP'
tp209
F31
s(S'PP'
p210
S'AAAAPNP'
tp211
F1
s(S'NP'
p212
S'NCCP'
tp213
F186
s(S'DP'
S'DADVADVVVP'
tp214
F2
s(S'VP'
p215
S'VVCCCP'
tp216
F2
s(S'PP'
S'APADVAAP'
tp217
F1
s(S'VP'
S'VVVVVP'
tp218
F1
s(g116
S'NNCP'
tp219
F182
s(S'DP'
p220
S'ADVDDPP'
tp221
F11
s(S'NP'
S'NADVADVVP'
tp222
F4
s(S'DP'
S'DPPPPP'
tp223
F4
s(S'MP'
S'MADVADVVVNP'
tp224
F1
s(g48
S'DDDDP'
tp225
F4
s(S'DP'
p226
S'DDAPP'
tp227
F8
s(S'DP'
p228
S'AAADVVVP'
tp229
F1
s(S'DP'
S'DDADVADVPPP'
tp230
F2
s(S'MP'
S'MAAADP'
tp231
F1
s(S'VP'
S'AVNP'
tp232
F23
s(S'VP'
p233
S'VVADP'
tp234
F2
s(g94
S'ADVNDDP'
tp235
F1
s(S'NP'
S'NADVADVMMP'
tp236
F1
s(S'NP'
S'NADVADVPP'
tp237
F3
s(g77
S'PADVADVANP'
tp238
F1
s(S'VP'
p239
S'ADVADVADVVVDP'
tp240
F1
s(S'PP'
p241
S'ADVPVVP'
tp242
F3
s(g30
S'ADVAPDP'
tp243
F6
s(S'PP'
S'AAPNP'
tp244
F1
s(S'VP'
p245
S'VADVVP'
tp246
F7
s(S'CP'
S'ACCDDP'
tp247
F1
s(g197
S'MVAPP'
tp248
F4
s(S'MP'
S'MVPPP'
tp249
F6
s(S'NP'
S'ANADVVP'
tp250
F1
s(S'PP'
S'ADVAPVP'
tp251
F6
s(S'PP'
p252
S'PPPDDP'
tp253
F1
s(S'VP'
p254
S'VAAMP'
tp255
F2
s(S'AP'
S'AAADVADVVP'
tp256
F1
s(S'CP'
S'CCCDP'
tp257
F13
s(S'VP'
p258
S'AVNNP'
tp259
F7
s(S'PP'
S'ADVAPPP'
tp260
F2
s(S'VP'
p261
S'VCCCP'
tp262
F2
s(g136
S'APDP'
tp263
F66
s(S'MP'
S'MAPDP'
tp264
F2
s(S'CP'
S'ADVCCADVDP'
tp265
F1
s(S'NP'
S'NACCP'
tp266
F1
s(S'MP'
p267
S'MMVP'
tp268
F32
s(S'AP'
p269
S'AADVCP'
tp270
F4
s(S'NP'
S'ADVADVNNCP'
tp271
F2
s(S'NP'
S'ANNPP'
tp272
F2
s(S'NP'
S'ADVNADVCP'
tp273
F1
s(S'VP'
p274
S'VVANP'
tp275
F5
s(S'PP'
S'PPACP'
tp276
F1
s(S'PP'
S'ADVPNNP'
tp277
F5
s(S'VP'
p278
S'ADVVVP'
tp279
F3
s(g63
S'ADVADVVVDDP'
tp280
F2
s(S'DP'
S'ADVADVDDNNP'
tp281
F1
s(S'NP'
p282
S'NNNADVAAP'
tp283
F1
s(S'CP'
S'ADVACDP'
tp284
F4
s(S'DP'
S'DADVADVADVPP'
tp285
F1
s(S'AP'
S'AADVADVADVDP'
tp286
F1
s(S'DP'
S'DDDADVNNP'
tp287
F2
s(S'NP'
S'ADVNCCP'
tp288
F6
s(S'MP'
S'MPNNP'
tp289
F3
s(S'NP'
S'ADVANCP'
tp290
F7
s(S'DP'
p291
S'DNNP'
tp292
F188
s(S'CP'
S'CADVDDPP'
tp293
F4
s(S'DP'
S'ADVADVDDNP'
tp294
F1
s(S'CP'
S'CDDPPPP'
tp295
F4
s(S'CP'
S'CCADVDP'
tp296
F9
s(S'PP'
S'PPAADP'
tp297
F1
s(S'VP'
p298
S'VVACP'
tp299
F2
s(S'VP'
S'AAVDDP'
tp300
F3
s(S'DP'
S'ADDNP'
tp301
F5
s(S'NP'
S'NNNVP'
tp302
F9
s(S'PP'
p303
S'PAAVVP'
tp304
F1
s(S'VP'
S'VADVNNP'
tp305
F2
s(S'VP'
S'ADVVVADDP'
tp306
F1
s(S'PP'
S'PPNNNNP'
tp307
F1
s(S'DP'
S'DDCCP'
tp308
F5
s(S'MP'
S'ADVADVMPP'
tp309
F1
s(S'NP'
S'ADVADVANPPP'
tp310
F1
s(g25
S'NNADVADVADVADVVVP'
tp311
F1
s(S'VP'
S'VVVADVDDP'
tp312
F1
s(S'PP'
p313
S'PADVVP'
tp314
F36
s(S'DP'
S'DADVADVADVPPP'
tp315
F1
s(S'PP'
S'PAANNP'
tp316
F1
s(S'MP'
p317
S'MVVDDP'
tp318
F1
s(S'DP'
p319
S'DADVVVP'
tp320
F4
s(S'PP'
p321
S'APAP'
tp322
F6
s(S'CP'
S'ADVADVCDP'
tp323
F9
s(S'AP'
p324
S'ACCCP'
tp325
F1
s(S'VP'
S'ADVAVMP'
tp326
F1
s(S'NP'
S'NADVMP'
tp327
F7
s(g241
S'PPADP'
tp328
F1
s(g233
S'VVAPP'
tp329
F2
s(S'MP'
S'MNAAP'
tp330
F3
s(S'NP'
p331
S'ADVADVNCCP'
tp332
F1
s(S'NP'
S'ADVANPP'
tp333
F7
s(S'MP'
S'MVVCP'
tp334
F6
s(g13
S'DAAVP'
tp335
F6
s(S'CP'
S'CDDDDPP'
tp336
F2
s(S'MP'
S'MPVP'
tp337
F3
s(S'VP'
S'ADVADVVADVPP'
tp338
F1
s(g321
S'PAANP'
tp339
F5
s(S'VP'
S'VADVADVCP'
tp340
F3
s(S'VP'
S'VVVANP'
tp341
F1
s(g241
S'PPVVP'
tp342
F32
s(S'VP'
S'VAACP'
tp343
F1
s(S'PP'
S'PPADVADVNP'
tp344
F1
s(S'MP'
p345
S'MVNP'
tp346
F81
s(S'MP'
p347
S'MNDP'
tp348
F3
s(S'DP'
S'ADVADVDDP'
tp349
F1
s(S'CP'
p350
S'CDDDPPP'
tp351
F7
s(S'MP'
S'MADVVAAP'
tp352
F1
s(S'VP'
S'VADVVVP'
tp353
F1
s(S'PP'
p354
S'PAVP'
tp355
F47
s(S'MP'
p356
S'ADVMVP'
tp357
F7
s(g40
S'ADVPADVDDP'
tp358
F1
s(g245
S'ADVVMP'
tp359
F4
s(S'MP'
S'MDANP'
tp360
F1
s(S'DP'
S'ADVDVVP'
tp361
F2
s(S'VP'
p362
S'VVVPP'
tp363
F17
s(S'NP'
p364
S'ADVADVANDP'
tp365
F1
s(S'PP'
p366
S'APPPP'
tp367
F4
s(S'DP'
S'DADP'
tp368
F5
s(S'DP'
S'ADVADVDNNP'
tp369
F1
s(S'AP'
S'ADVADP'
tp370
F16
s(S'AP'
p371
S'APP'
tp372
F139
s(S'VP'
S'VANNP'
tp373
F1
s(S'DP'
p374
S'ADVDDP'
tp375
F5
s(S'PP'
p376
S'APDDP'
tp377
F7
s(S'AP'
S'AAADVCP'
tp378
F1
s(S'VP'
S'ADVADVVVNP'
tp379
F6
s(S'PP'
S'PADVADVADVNNP'
tp380
F1
s(S'NP'
S'ADVNAP'
tp381
F6
s(S'DP'
S'ADVDDDP'
tp382
F1
s(S'PP'
S'PPCP'
tp383
F14
s(S'PP'
p384
S'APVP'
tp385
F48
s(S'VP'
S'ADVADVADVVVDDP'
tp386
F1
s(S'MP'
S'MNNCP'
tp387
F2
s(S'MP'
p388
S'MNCP'
tp389
F31
s(S'VP'
p390
S'VVNP'
tp391
F147
s(S'NP'
p392
S'ANNP'
tp393
F1
s(S'PP'
S'PPPNNP'
tp394
F1
s(S'DP'
p395
S'DADVCCP'
tp396
F1
s(g32
S'PPVP'
tp397
F144
s(S'VP'
S'VVADVADVANP'
tp398
F1
s(S'MP'
S'MNADVCP'
tp399
F1
s(g192
S'ADVPAADP'
tp400
F1
s(S'VP'
S'VADVDP'
tp401
F28
s(S'MP'
S'MVVVPP'
tp402
F1
s(g388
S'MPADP'
tp403
F1
s(S'VP'
p404
S'VAAP'
tp405
F66
s(S'NP'
S'NNADVAVP'
tp406
F1
s(S'PP'
S'ADVADVADVADVPPNP'
tp407
F1
s(g212
S'ANDP'
tp408
F17
s(g162
S'NVVP'
tp409
F179
s(S'PP'
S'AAPVP'
tp410
F3
s(S'AP'
S'AAP'
tp411
F16
s(g51
S'VMP'
tp412
F151
s(S'MP'
S'MCCCDP'
tp413
F1
s(S'VP'
p414
S'VVNNP'
tp415
F14
s(S'CP'
p416
S'CDAPP'
tp417
F59
s(g233
S'VVAAP'
tp418
F10
s(S'MP'
p419
S'MMPP'
tp420
F15
s(S'DP'
p421
S'ADVADVP'
tp422
F3
s(S'CP'
S'CADVADPP'
tp423
F2
s(g203
S'ADNP'
tp424
F64
s(S'DP'
S'ADVADVDDAPP'
tp425
F1
s(S'VP'
S'AVVDP'
tp426
F1
s(S'MP'
S'MDANNP'
tp427
F2
s(S'MP'
S'ADVADVMVP'
tp428
F3
s(g32
S'PADP'
tp429
F45
s(S'VP'
S'ADVVVCP'
tp430
F3
s(g228
S'ADVDDNP'
tp431
F11
s(g331
S'ADVNADVVP'
tp432
F1
s(S'DP'
p433
S'DADVADVADVADVNP'
tp434
F1
s(S'AP'
S'AAADVAP'
tp435
F1
s(S'DP'
S'ADVADVDVP'
tp436
F5
s(S'DP'
S'DADVAP'
tp437
F3
s(S'PP'
S'AAPDDDDP'
tp438
F1
s(S'PP'
S'PPVVVVP'
tp439
F1
s(S'NP'
S'ADVANNVP'
tp440
F1
s(g48
S'DAPP'
tp441
F86
s(S'VP'
S'AVVP'
tp442
F4
s(S'VP'
p443
S'VVVVPP'
tp444
F3
s(g239
S'ADVADVVPP'
tp445
F3
s(S'MP'
p446
S'MADVADVVNP'
tp447
F2
s(S'VP'
S'VADVAAP'
tp448
F2
s(g347
S'MDDNP'
tp449
F5
s(S'NP'
p450
S'ADVADVNNDP'
tp451
F1
s(S'VP'
S'ADVADVVDP'
tp452
F5
s(S'VP'
p453
S'AVVNP'
tp454
F1
s(g32
S'PPPDP'
tp455
F11
s(S'MP'
S'MADVVNNNP'
tp456
F1
s(g183
S'DAAPPP'
tp457
F1
s(S'AP'
S'AAVVP'
tp458
F1
s(S'MP'
S'MVVAP'
tp459
F7
s(S'AP'
S'AMMMMP'
tp460
F1
s(S'DP'
S'ADVADDPP'
tp461
F1
s(S'VP'
S'VDDDDP'
tp462
F2
s(S'DP'
S'DADVANP'
tp463
F6
s(S'NP'
p464
S'ANADVVVP'
tp465
F1
s(S'VP'
S'VAAPP'
tp466
F3
s(S'DP'
S'ADVDNP'
tp467
F28
s(S'VP'
S'AVDDDP'
tp468
F1
s(g414
S'VVPP'
tp469
F100
s(S'VP'
p470
S'VADVAPP'
tp471
F3
s(S'CP'
S'CCADDP'
tp472
F2
s(S'MP'
p473
S'MMVVVP'
tp474
F2
s(g97
S'ADADVPP'
tp475
F2
s(S'CP'
S'AACDDP'
tp476
F1
s(S'MP'
p477
S'MVPP'
tp478
F51
s(g17
S'ADVP'
tp479
F20
s(S'MP'
S'MVADP'
tp480
F2
s(g181
S'CDDPPP'
tp481
F37
s(g274
S'ADVVVDP'
tp482
F8
s(S'DP'
S'DDADVADVADVNP'
tp483
F1
s(g392
S'NNPP'
tp484
F95
s(S'PP'
S'ADVPDDDP'
tp485
F1
s(S'DP'
S'DDDDNP'
tp486
F1
s(S'MP'
S'MVVDP'
tp487
F16
s(g433
S'DADVPPP'
tp488
F14
s(g212
S'ANVP'
tp489
F32
s(S'DP'
p490
S'DNNNP'
tp491
F19
s(S'VP'
S'ADVAVDDP'
tp492
F1
s(S'MP'
S'MVADVCP'
tp493
F2
s(S'MP'
S'MPPDP'
tp494
F3
s(S'MP'
S'MPPPNP'
tp495
F1
s(S'VP'
S'VADVADVPPP'
tp496
F1
s(S'PP'
p497
S'PADVADVVP'
tp498
F3
s(S'NP'
S'ADVADVADVADVNVP'
tp499
F1
s(S'DP'
S'ADVADVADVADVDNP'
tp500
F1
s(S'PP'
p501
S'PMMP'
tp502
F2
s(S'PP'
p503
S'PVVVP'
tp504
F9
s(g384
S'PMP'
tp505
F49
s(S'NP'
p506
S'NNMMP'
tp507
F3
s(g261
S'ADVVVANP'
tp508
F1
s(S'CP'
p509
S'CCDP'
tp510
F248
s(S'NP'
S'ADVNNDP'
tp511
F1
s(S'MP'
p512
S'AMVP'
tp513
F5
s(S'NP'
S'ADVADVADVNCP'
tp514
F1
s(S'VP'
S'VADVADVANP'
tp515
F2
s(S'PP'
S'ADVADVPPPP'
tp516
F2
s(S'MP'
S'MAAPPP'
tp517
F1
s(S'NP'
p518
S'NVVVP'
tp519
F19
s(S'CP'
S'CDDDPP'
tp520
F20
s(S'CP'
S'CDADVADVPP'
tp521
F6
s(S'VP'
S'AVVAP'
tp522
F2
s(S'VP'
S'AVCCP'
tp523
F2
s(g122
S'PNNNP'
tp524
F17
s(S'MP'
S'MVVVAP'
tp525
F1
s(S'CP'
S'CCCCDP'
tp526
F2
s(S'MP'
S'MADVACP'
tp527
F1
s(S'DP'
S'DDDCCP'
tp528
F1
s(g278
S'ADVVVMP'
tp529
F1
s(S'VP'
p530
S'VADVPPP'
tp531
F3
s(S'AP'
p532
S'AACCP'
tp533
F6
s(g404
S'VVMP'
tp534
F32
s(g252
S'PPPCP'
tp535
F1
s(S'CP'
p536
S'CADADVPP'
tp537
F1
s(S'PP'
S'PADVVVP'
tp538
F10
s(g136
S'PPP'
tp539
F428
s(S'NP'
S'NNADVDP'
tp540
F1
s(g208
S'NAVP'
tp541
F29
s(S'PP'
p542
S'ADVAPNNP'
tp543
F1
s(S'PP'
S'PPADVADVADVDP'
tp544
F1
s(S'PP'
S'PADVAP'
tp545
F8
s(S'NP'
S'ANNPPP'
tp546
F1
s(S'DP'
S'DDNNNP'
tp547
F5
s(S'VP'
S'VVADVNNP'
tp548
F1
s(S'PP'
S'APMP'
tp549
F2
s(g419
S'MMADVAVP'
tp550
F1
s(S'PP'
p551
S'PADVADVDP'
tp552
F7
s(g43
S'AAVVP'
tp553
F1
s(S'DP'
S'ADVDVP'
tp554
F15
s(S'AP'
S'AMMMP'
tp555
F1
s(S'NP'
S'NAAAP'
tp556
F1
s(S'NP'
S'NCCCP'
tp557
F8
s(S'DP'
p558
S'DADVADVPPP'
tp559
F4
s(g324
S'AADVVP'
tp560
F3
s(S'MP'
S'MADVADVADVVVNP'
tp561
F1
s(S'DP'
S'ADVADVDNP'
tp562
F5
s(S'VP'
S'VAAAAP'
tp563
F1
s(g404
S'VPP'
tp564
F411
s(g350
S'ADVCCDP'
tp565
F10
s(S'NP'
S'NNNADVCP'
tp566
F1
s(S'DP'
S'ADVDDPPP'
tp567
F3
s(S'CP'
S'CDAAAAPP'
tp568
F1
s(S'NP'
S'AANPPP'
tp569
F1
s(S'NP'
p570
S'NNNCP'
tp571
F26
s(g384
S'PADVDP'
tp572
F22
s(g536
S'CDADVAPP'
tp573
F5
s(S'AP'
S'AADVADVMP'
tp574
F1
s(S'AP'
S'ADVAADP'
tp575
F3
s(g220
S'DANNP'
tp576
F6
s(S'MP'
S'MADVVAP'
tp577
F2
s(g503
S'PADVAAP'
tp578
F2
s(g509
S'CDDPP'
tp579
F200
s(g226
S'DAAPP'
tp580
F9
s(g354
S'PVVP'
tp581
F154
s(S'CP'
S'CADPPP'
tp582
F11
s(S'AP'
p583
S'AACP'
tp584
F29
s(S'MP'
S'ADVADVADVMVP'
tp585
F1
s(S'VP'
S'ADVVCP'
tp586
F18
s(S'MP'
S'MCCDP'
tp587
F3
s(g233
S'VPPP'
tp588
F87
s(S'NP'
p589
S'NNNADVADVPPP'
tp590
F1
s(S'NP'
S'NADVADVAVP'
tp591
F1
s(g36
S'PPADVADVDP'
tp592
F1
s(S'MP'
S'MPCP'
tp593
F2
s(g101
S'AAANAAAP'
tp594
F1
s(S'VP'
p595
S'VVPPP'
tp596
F13
s(S'MP'
S'MMPPP'
tp597
F2
s(S'MP'
S'MVAAAP'
tp598
F2
s(g136
S'PPAP'
tp599
F38
s(g48
S'DVVP'
tp600
F114
s(S'PP'
S'PADVAVP'
tp601
F2
s(S'MP'
S'MAAVDDP'
tp602
F1
s(g55
S'CADVADVDAPP'
tp603
F1
s(S'NP'
S'NNNNDP'
tp604
F1
s(S'PP'
p605
S'ADVADVADVPPPP'
tp606
F1
s(S'CP'
S'CDDAAPP'
tp607
F1
s(g147
S'ANMP'
tp608
F15
s(S'MP'
S'MPPPDP'
tp609
F2
s(S'AP'
S'APPP'
tp610
F20
s(g241
S'ADVPPP'
tp611
F18
s(S'NP'
p612
S'ADVADVNVP'
tp613
F7
s(g215
S'VVVP'
tp614
F38
s(S'CP'
S'CADVDPP'
tp615
F46
s(g364
S'ADVADVNNVP'
tp616
F2
s(S'VP'
S'ADVADVVCCP'
tp617
F1
s(g134
S'AVMP'
tp618
F5
s(S'VP'
S'VADVADVADVCP'
tp619
F1
s(S'NP'
S'ANCP'
tp620
F69
s(g34
S'DCP'
tp621
F100
s(g319
S'DVVVP'
tp622
F12
s(S'NP'
S'NNDDDDP'
tp623
F1
s(S'DP'
S'DDDNNP'
tp624
F1
s(S'VP'
S'ADVVVVP'
tp625
F1
s(S'AP'
S'AAADVPP'
tp626
F1
s(g48
S'DADVCP'
tp627
F3
s(S'NP'
p628
S'NNVVVVP'
tp629
F2
s(g203
S'DDDP'
tp630
F34
s(S'MP'
S'ADVMCP'
tp631
F2
s(g17
S'DDADVPP'
tp632
F9
s(S'DP'
p633
S'AADDPP'
tp634
F1
s(S'NP'
S'ANNVVP'
tp635
F2
s(g267
S'MADVVCCP'
tp636
F1
s(S'DP'
S'DDDNNNP'
tp637
F2
s(g113
S'VVDP'
tp638
F154
s(S'AP'
S'ADVAAP'
tp639
F1
s(g392
S'NPPP'
tp640
F90
s(S'DP'
S'ADDDP'
tp641
F3
s(S'MP'
S'AMADVPP'
tp642
F1
s(S'VP'
S'VAPPP'
tp643
F1
s(S'AP'
p644
S'AAADP'
tp645
F9
s(g17
S'DAVP'
tp646
F30
s(S'VP'
S'AVVVP'
tp647
F1
s(S'VP'
S'ADVAVCP'
tp648
F2
s(S'NP'
S'NNNNMP'
tp649
F1
s(S'AP'
S'ACP'
tp650
F134
s(S'NP'
S'NDDDDP'
tp651
F1
s(g501
S'ADVPNNNP'
tp652
F1
s(S'PP'
S'PADVADVNNP'
tp653
F2
s(g354
S'PPNP'
tp654
F159
s(S'NP'
S'NAADP'
tp655
F1
s(S'MP'
S'MNADVAPP'
tp656
F1
s(g490
S'ADVDAPP'
tp657
F5
s(S'NP'
S'ADVADVANVP'
tp658
F1
s(S'DP'
S'AADVP'
tp659
F1
s(g388
S'MADNP'
tp660
F3
s(S'MP'
S'MACP'
tp661
F1
s(S'MP'
S'ADVMDP'
tp662
F1
s(g258
S'VADVAMP'
tp663
F1
s(S'CP'
S'CDDADVPP'
tp664
F6
s(S'CP'
S'CCCDDP'
tp665
F3
s(g371
S'ADP'
tp666
F443
s(g450
S'NNNMP'
tp667
F2
s(S'DP'
S'DDADVVP'
tp668
F3
s(S'CP'
S'CADVDDPPP'
tp669
F2
s(S'AP'
S'ADVAAADVVP'
tp670
F1
s(S'DP'
S'DDAVP'
tp671
F2
s(S'NP'
S'ANPPP'
tp672
F5
s(S'DP'
p673
S'ADDADVADVVP'
tp674
F1
s(S'MP'
S'MDPP'
tp675
F3
s(S'NP'
S'AAANNCP'
tp676
F1
s(g313
S'ADVPAAVP'
tp677
F1
s(g530
S'VAAANP'
tp678
F2
s(S'MP'
S'MADDP'
tp679
F2
s(S'PP'
S'APPAP'
tp680
F1
s(S'VP'
p681
S'VVPPPP'
tp682
F4
s(g27
S'NADVADVAP'
tp683
F2
s(S'MP'
p684
S'MVVVCP'
tp685
F1
s(S'MP'
S'MMNNP'
tp686
F1
s(S'VP'
p687
S'AVDP'
tp688
F41
s(S'NP'
S'ANNVP'
tp689
F1
s(S'PP'
S'ADVAPDDP'
tp690
F1
s(g687
S'VVAP'
tp691
F66
s(S'NP'
S'NNAPP'
tp692
F1
s(S'MP'
p693
S'MNADVVP'
tp694
F1
s(S'NP'
S'ADVADVNADVADVACP'
tp695
F1
s(S'CP'
S'CDDDAPP'
tp696
F1
s(S'NP'
p697
S'NNADVADVADVVP'
tp698
F1
s(S'PP'
S'PADDP'
tp699
F4
s(S'VP'
S'ADVADVADVADVVVCP'
tp700
F1
s(S'PP'
S'APPVVP'
tp701
F1
s(g697
S'NNNADVDP'
tp702
F1
s(g152
S'PPADVVP'
tp703
F5
s(g65
S'AAVCP'
tp704
F2
s(S'PP'
S'PADVMP'
tp705
F1
s(S'NP'
S'NNADVCCP'
tp706
F4
s(g116
S'NPP'
tp707
F436
s(S'PP'
S'PPPPNP'
tp708
F3
s(g162
S'NVP'
tp709
F572
s(S'PP'
S'PPAMP'
tp710
F1
s(g503
S'PPVVVP'
tp711
F3
s(S'PP'
S'PAAVP'
tp712
F2
s(S'NP'
p713
S'NAAPP'
tp714
F3
s(S'NP'
S'ADVANDDP'
tp715
F2
s(g684
S'ADVMMVP'
tp716
F1
s(g113
S'VDDP'
tp717
F130
s(g532
S'AAADVDP'
tp718
F1
s(S'MP'
S'MMADVADVVVP'
tp719
F1
s(S'PP'
p720
S'PAAADP'
tp721
F1
s(S'DP'
S'DMP'
tp722
F20
s(g71
S'DADVAPP'
tp723
F8
s(S'VP'
S'ADVADVVAP'
tp724
F2
s(S'NP'
S'NNNDDP'
tp725
F1
s(S'PP'
S'PAAAVP'
tp726
F1
s(g194
S'NADVADVVVP'
tp727
F4
s(g570
S'ANPP'
tp728
F40
s(g384
S'ADVPPDP'
tp729
F10
s(g354
S'PPPPP'
tp730
F24
s(g419
S'MPDP'
tp731
F45
s(S'PP'
S'ADVADVPDP'
tp732
F7
s(g345
S'MVVPP'
tp733
F7
s(S'AP'
S'AMMP'
tp734
F7
s(S'PP'
p735
S'PPPNP'
tp736
F19
s(S'DP'
S'DDDDDP'
tp737
F3
s(S'VP'
S'VADVADVADVNNP'
tp738
F1
s(S'MP'
p739
S'MMDDP'
tp740
F2
s(S'DP'
S'ADVADNNNP'
tp741
F1
s(g392
S'NPPPP'
tp742
F4
s(S'DP'
S'ADDP'
tp743
F5
s(S'MP'
S'ADVADVMMVP'
tp744
F1
s(S'DP'
p745
S'ADVADNP'
tp746
F2
s(g45
S'CAADPP'
tp747
F11
s(g226
S'DADVADVVP'
tp748
F4
s(g392
S'NAACP'
tp749
F9
s(g136
S'PNNP'
tp750
F173
s(S'VP'
S'VADVACP'
tp751
F1
s(S'CP'
S'CDADVADVADVPPP'
tp752
F1
s(S'PP'
p753
S'APNNP'
tp754
F9
s(S'AP'
S'AVVVVP'
tp755
F1
s(g73
S'DDAAP'
tp756
F1
s(S'MP'
p757
S'MMNP'
tp758
F19
s(S'DP'
S'AAADPP'
tp759
F1
s(S'DP'
S'DDACP'
tp760
F1
s(g681
S'AVAP'
tp761
F12
s(g331
S'NNAMP'
tp762
F1
s(g720
S'PADVDDP'
tp763
F8
s(S'CP'
S'CADVADVDDAPP'
tp764
F1
s(g570
S'ADVNCP'
tp765
F30
s(g203
S'ADPP'
tp766
F91
s(S'MP'
S'MPDDP'
tp767
F4
s(S'NP'
S'NAPPP'
tp768
F2
s(g181
S'ACDP'
tp769
F48
s(S'VP'
S'ADVVDDDP'
tp770
F1
s(g354
S'PAAP'
tp771
F47
s(S'NP'
S'ANADVADVVVP'
tp772
F1
s(S'AP'
S'ADVANP'
tp773
F1
s(g22
S'PADVADVADVPPP'
tp774
F1
s(S'NP'
S'NNACP'
tp775
F4
s(S'MP'
S'MDNNP'
tp776
F6
s(S'CP'
S'CDADVPPP'
tp777
F8
s(g414
S'VAP'
tp778
F340
s(S'VP'
p779
S'VVVVNP'
tp780
F4
s(g473
S'MNVVP'
tp781
F1
s(S'DP'
S'DDDDCP'
tp782
F1
s(g97
S'DDDPP'
tp783
F30
s(S'CP'
S'ADVCDDP'
tp784
F6
s(g60
S'ADVPMP'
tp785
F2
s(S'VP'
S'VADVMP'
tp786
F2
s(S'PP'
p787
S'PAAPP'
tp788
F2
s(S'MP'
S'MVVVDP'
tp789
F3
s(S'MP'
S'MNMP'
tp790
F1
s(S'MP'
S'MMAAP'
tp791
F1
s(S'VP'
S'ADVADVVVAP'
tp792
F1
s(g395
S'DDDPPP'
tp793
F9
s(S'VP'
S'ADVAVDP'
tp794
F1
s(g205
S'ADAP'
tp795
F2
s(S'DP'
S'DADVDP'
tp796
F1
s(S'MP'
S'MVVCCP'
tp797
F1
s(S'NP'
p798
S'NADVADVADVVVP'
tp799
F2
s(S'DP'
S'ADVDDVVVP'
tp800
F1
s(S'PP'
S'AAPPPP'
tp801
F1
s(S'MP'
S'MCCDDP'
tp802
F1
s(g8
S'ANDDDP'
tp803
F1
s(g32
S'PADVADVADP'
tp804
F1
s(S'AP'
S'AAACP'
tp805
F2
s(S'NP'
p806
S'NAAP'
tp807
F35
s(g739
S'MANVP'
tp808
F1
s(g122
S'PPPVP'
tp809
F11
s(S'NP'
S'NADVMMP'
tp810
F1
s(S'AP'
S'AADDP'
tp811
F15
s(S'DP'
p812
S'DDAAAAP'
tp813
F1
s(S'MP'
S'MAADP'
tp814
F3
s(S'AP'
S'ACCCCP'
tp815
F1
s(g414
S'VAANP'
tp816
F8
s(S'NP'
S'ANVVP'
tp817
F10
s(S'DP'
S'DADVAMP'
tp818
F1
s(S'NP'
S'NADVADVCP'
tp819
F5
s(g205
S'DAAAAPP'
tp820
F1
s(S'MP'
S'AMPPPP'
tp821
F1
s(g38
S'AANNP'
tp822
F1
s(S'MP'
S'MADVAPDP'
tp823
F1
s(S'MP'
S'AMPP'
tp824
F1
s(S'DP'
S'ADVADVADVDVP'
tp825
F1
s(S'NP'
p826
S'NVVVVP'
tp827
F4
s(S'NP'
S'ADVADVANPP'
tp828
F1
s(S'PP'
S'ADVADVPMP'
tp829
F1
s(S'DP'
S'DADVADVDP'
tp830
F1
s(S'MP'
S'AMVVP'
tp831
F1
s(S'MP'
S'MADVADVAADP'
tp832
F1
s(S'MP'
S'MPNP'
tp833
F28
s(S'VP'
S'ADVVADVANP'
tp834
F1
s(S'NP'
S'AANCCP'
tp835
F1
s(S'MP'
S'MADP'
tp836
F22
s(S'MP'
p837
S'MVADVDP'
tp838
F2
s(S'VP'
S'AAVVNP'
tp839
F1
s(S'CP'
p840
S'CCAADP'
tp841
F2
s(g77
S'ADVPAVP'
tp842
F2
s(S'DP'
S'DDADVNP'
tp843
F6
s(g32
S'PANP'
tp844
F55
s(S'PP'
S'PDDDP'
tp845
F11
s(S'NP'
p846
S'NADVDDP'
tp847
F3
s(g317
S'MANPP'
tp848
F1
s(S'MP'
p849
S'MVVPPP'
tp850
F1
s(g739
S'ADVAMVP'
tp851
F1
s(S'NP'
S'AANMP'
tp852
F1
s(S'AP'
S'AAVP'
tp853
F18
s(S'AP'
S'AVVP'
tp854
F19
s(S'VP'
S'VADVADVAP'
tp855
F4
s(S'NP'
p856
S'NDDP'
tp857
F62
s(S'VP'
S'VVVMP'
tp858
F1
s(S'MP'
S'MNPPP'
tp859
F2
s(S'CP'
S'CDDADVADVPPP'
tp860
F1
s(S'DP'
S'ADVADVDPPP'
tp861
F5
s(S'AP'
S'ACCP'
tp862
F24
s(S'NP'
S'ADVADVANCP'
tp863
F1
s(S'DP'
S'DDDADVPP'
tp864
F1
s(S'VP'
S'AVPPP'
tp865
F1
s(S'AP'
S'APPPP'
tp866
F2
s(g392
S'NDP'
tp867
F292
s(g258
S'ADVVANP'
tp868
F2
s(S'NP'
S'AAANVP'
tp869
F1
s(S'VP'
S'VADVMMP'
tp870
F1
s(S'AP'
S'AADVADVDP'
tp871
F1
s(S'MP'
S'MVAAP'
tp872
F1
s(g34
S'DDVP'
tp873
F107
s(S'MP'
S'MADVDAP'
tp874
F1
s(g518
S'AANVP'
tp875
F8
s(S'PP'
S'PPADVANP'
tp876
F1
s(S'MP'
S'MPPNNP'
tp877
F1
s(S'DP'
S'ADDVP'
tp878
F1
s(S'VP'
S'VNNNP'
tp879
F10
s(S'NP'
S'ANNADVADVVP'
tp880
F1
s(S'VP'
S'VADVADVPP'
tp881
F3
s(g354
S'ADVPAP'
tp882
F11
s(S'PP'
S'PPPPVP'
tp883
F4
s(S'PP'
S'PPPPVVP'
tp884
F1
s(S'MP'
S'MPADVDP'
tp885
F1
s(S'PP'
S'APADVDP'
tp886
F2
s(g32
S'APPNP'
tp887
F3
s(S'VP'
p888
S'VADVADP'
tp889
F2
s(S'PP'
S'PAADDP'
tp890
F1
s(S'NP'
p891
S'NNADVADVDP'
tp892
F1
s(g384
S'PAADP'
tp893
F5
s(g806
S'ADVNNVP'
tp894
F6
s(g110
S'NADVCCP'
tp895
F3
s(g233
S'VPPPP'
tp896
F8
s(S'PP'
p897
S'PPPVVP'
tp898
F1
s(S'VP'
S'VCCP'
tp899
F37
s(S'MP'
S'MPAP'
tp900
F2
s(S'NP'
S'ANNAP'
tp901
F1
s(S'DP'
S'DAAANNP'
tp902
F1
s(S'NP'
S'NNNDP'
tp903
F2
s(g443
S'ADVVVPPP'
tp904
F1
s(g583
S'ADVACP'
tp905
F6
s(S'NP'
S'AANVVVP'
tp906
F1
s(g67
S'PAPPP'
tp907
F2
s(g212
S'NNVP'
tp908
F137
s(g5
S'MVCP'
tp909
F40
s(S'DP'
S'ADVADVDDVP'
tp910
F1
s(g45
S'CCDDP'
tp911
F45
s(g404
S'AAAVAP'
tp912
F1
s(S'PP'
S'PPADVADVVP'
tp913
F1
s(S'DP'
S'DDADP'
tp914
F1
s(g673
S'DADVADVADVVVP'
tp915
F1
s(g757
S'MVMP'
tp916
F2
s(S'NP'
S'ADVANAP'
tp917
F1
s(g779
S'VAMP'
tp918
F2
s(S'NP'
S'NNVVP'
tp919
F36
s(g595
S'VAAAAAP'
tp920
F1
s(S'NP'
S'NNNNVP'
tp921
F4
s(g233
S'VVCP'
tp922
F56
s(S'NP'
p923
S'NAAAMP'
tp924
F1
s(S'PP'
S'PADVADVPP'
tp925
F3
s(S'NP'
S'AANCP'
tp926
F5
s(g254
S'VADVNP'
tp927
F22
s(S'VP'
p928
S'VVDDDP'
tp929
F1
s(S'MP'
S'MADVVDP'
tp930
F1
s(S'AP'
S'ADVAVVP'
tp931
F3
s(S'MP'
S'MDCP'
tp932
F2
s(S'CP'
S'CDDDADVADVPP'
tp933
F1
s(g779
S'ADVVNNP'
tp934
F4
s(g806
S'NNDDP'
tp935
F14
s(S'DP'
S'DDDDPPP'
tp936
F1
s(S'MP'
S'MNNPP'
tp937
F3
s(S'VP'
S'ADVVPP'
tp938
F14
s(S'DP'
S'DDDPPPPP'
tp939
F1
s(S'AP'
S'AAAADDP'
tp940
F1
s(S'CP'
S'CDAPPP'
tp941
F3
s(g113
S'VNNP'
tp942
F127
s(S'AP'
S'AADVDP'
tp943
F11
s(g65
S'ADVADVVVANP'
tp944
F1
s(g116
S'NADP'
tp945
F6
s(g183
S'ADVADDNP'
tp946
F1
s(S'PP'
p947
S'AAAPPP'
tp948
F1
s(g203
S'DDNP'
tp949
F181
s(S'CP'
S'ACADVDP'
tp950
F1
s(g116
S'NADVCP'
tp951
F33
s(g48
S'DDNNP'
tp952
F38
s(S'PP'
S'AAPPP'
tp953
F1
s(S'VP'
S'VVVVADVPP'
tp954
F1
s(S'VP'
p955
S'VPPPPP'
tp956
F1
s(S'VP'
p957
S'ADVAVPP'
tp958
F2
s(g735
S'PADVADVVVP'
tp959
F2
s(g826
S'ADVANVP'
tp960
F5
s(S'NP'
S'ADVNAAP'
tp961
F3
s(S'PP'
S'APCP'
tp962
F2
s(S'AP'
S'AADVADP'
tp963
F2
s(S'VP'
S'VMMMP'
tp964
F1
s(g15
S'ADVADVNCP'
tp965
F5
s(S'DP'
S'DADVADVNNP'
tp966
F2
s(g203
S'DAAADDP'
tp967
F1
s(g542
S'AAPADVDDP'
tp968
F2
s(g203
S'AADPP'
tp969
F17
s(S'VP'
S'VVVAAP'
tp970
F2
s(S'DP'
S'DADVAVP'
tp971
F1
s(S'CP'
S'ADVADVACDP'
tp972
F1
s(S'MP'
S'MVVP'
tp973
F1
s(S'DP'
S'DADVADVANP'
tp974
F2
s(g313
S'ADVADVPPDP'
tp975
F2
s(g110
S'ADVADVNPP'
tp976
F1
s(S'NP'
S'NNADVMP'
tp977
F1
s(S'MP'
S'MAVAP'
tp978
F3
s(g392
S'ADVNADVCCCP'
tp979
F1
s(S'AP'
S'AADVADVVP'
tp980
F3
s(S'CP'
S'CDPPPPP'
tp981
F1
s(S'NP'
S'NNADVADVADVCP'
tp982
F1
s(g421
S'DADVADVAP'
tp983
F1
s(S'NP'
S'NADVADVCCP'
tp984
F1
s(S'PP'
S'PADVADVADVADVDP'
tp985
F1
s(S'CP'
S'CDDADVPPP'
tp986
F1
s(S'DP'
S'ADVDNNP'
tp987
F3
s(g181
S'ACDDP'
tp988
F6
s(g840
S'ADVCCCDP'
tp989
F1
s(S'AP'
S'AADVADVDDP'
tp990
F1
s(S'AP'
p991
S'AAPP'
tp992
F18
s(S'VP'
S'VVCCP'
tp993
F10
s(S'DP'
S'DMMP'
tp994
F3
s(g753
S'PCP'
tp995
F50
s(S'AP'
S'ANNP'
tp996
F1
s(S'DP'
p997
S'DADVADVNP'
tp998
F2
s(g798
S'ANDDP'
tp999
F3
s(g753
S'ADVPANP'
tp1000
F2
s(g212
S'NNPPP'
tp1001
F18
s(S'VP'
S'VVVCCP'
tp1002
F1
s(g208
S'NAPP'
tp1003
F29
s(g897
S'APPVP'
tp1004
F2
s(S'AP'
S'ADVADVADP'
tp1005
F3
s(g589
S'NADVDP'
tp1006
F8
s(g19
S'VVVCP'
tp1007
F6
s(S'PP'
S'PADVAPP'
tp1008
F5
s(S'NP'
S'ADVANNMP'
tp1009
F1
s(g392
S'ANCCP'
tp1010
F13
s(g570
S'AANPP'
tp1011
F2
s(S'VP'
S'VDDDP'
tp1012
F8
s(S'NP'
S'NNMP'
tp1013
F34
s(g17
S'DDDVP'
tp1014
F16
s(S'VP'
S'AAVPP'
tp1015
F2
s(g178
S'VADVADVADVPPP'
tp1016
F1
s(S'PP'
S'ADVADVPNNP'
tp1017
F2
s(S'CP'
S'CADDPP'
tp1018
F3
s(g347
S'MPANP'
tp1019
F1
s(S'DP'
S'DADVACP'
tp1020
F1
s(S'PP'
S'ADVADVPNP'
tp1021
F5
s(S'PP'
S'PPPAP'
tp1022
F3
s(S'CP'
S'CDDAPP'
tp1023
F5
s(g15
S'ANAP'
tp1024
F5
s(S'MP'
S'MVAP'
tp1025
F34
s(S'VP'
S'VADVADVDDP'
tp1026
F1
s(g136
S'PVP'
tp1027
F567
s(S'MP'
S'MVDDDP'
tp1028
F1
s(S'PP'
S'PPADVAP'
tp1029
F2
s(S'VP'
S'VVVVAP'
tp1030
F2
s(S'DP'
S'DDADVAVP'
tp1031
F1
s(S'AP'
S'ADVADVAPP'
tp1032
F2
s(S'VP'
S'VVVVDP'
tp1033
F5
s(S'VP'
p1034
S'VADVCCP'
tp1035
F4
s(S'AP'
S'AADVDDP'
tp1036
F3
s(g644
S'ADVAACP'
tp1037
F1
s(S'NP'
S'ADVNAVP'
tp1038
F1
s(g846
S'ANNCP'
tp1039
F4
s(g40
S'PPADVPP'
tp1040
F2
s(g923
S'ADVNNAP'
tp1041
F1
s(S'NP'
S'ANADVADVCCP'
tp1042
F1
s(S'VP'
S'VCCCCP'
tp1043
F1
s(S'MP'
S'MAADVDP'
tp1044
F2
s(S'DP'
S'ADVADVADVDNP'
tp1045
F1
s(S'MP'
S'MMMMVP'
tp1046
F1
s(S'NP'
S'ADVNACP'
tp1047
F4
s(g32
S'PPDDP'
tp1048
F28
s(g113
S'AVCP'
tp1049
F12
s(S'DP'
S'DDVVVP'
tp1050
F5
s(S'NP'
S'NAVVP'
tp1051
F4
s(g58
S'ADVNNPPP'
tp1052
F1
s(S'PP'
S'ADVADVPDDP'
tp1053
F1
s(g34
S'DPP'
tp1054
F678
s(g713
S'ADVNVP'
tp1055
F22
s(S'DP'
S'DDDVVP'
tp1056
F3
s(g34
S'DDPP'
tp1057
F291
s(S'DP'
S'DDADVPPP'
tp1058
F1
s(g97
S'DANP'
tp1059
F88
s(S'AP'
p1060
S'ADVAMP'
tp1061
F9
s(S'NP'
S'NADVPP'
tp1062
F14
s(S'PP'
p1063
S'ADVADVPPAVP'
tp1064
F1
s(S'PP'
S'PMMMP'
tp1065
F1
s(S'NP'
S'NADVADP'
tp1066
F2
s(S'MP'
S'MMAP'
tp1067
F3
s(S'PP'
S'ADVADVADVPPDP'
tp1068
F1
s(S'PP'
S'APADVDDP'
tp1069
F1
s(g374
S'AADNP'
tp1070
F7
s(S'AP'
S'AAAAPP'
tp1071
F1
s(g390
S'VADVCP'
tp1072
F11
s(S'DP'
S'ADVADVVP'
tp1073
F1
s(g605
S'PAVVP'
tp1074
F1
s(S'AP'
S'ADVAVP'
tp1075
F6
s(S'NP'
S'NNNNCP'
tp1076
F3
s(g197
S'MDNP'
tp1077
F59
s(S'DP'
S'ADDPPP'
tp1078
F1
s(S'NP'
S'NNNVVP'
tp1079
F3
s(g128
S'PADVPPP'
tp1080
F4
s(S'DP'
S'DCCP'
tp1081
F12
s(S'PP'
S'ADVADVPPP'
tp1082
F2
s(S'MP'
S'AAAMVVP'
tp1083
F1
s(g30
S'AAPDP'
tp1084
F5
s(g888
S'VVDDP'
tp1085
F38
s(S'MP'
S'MVPPPPP'
tp1086
F1
s(g159
S'VVVAP'
tp1087
F4
s(g136
S'PDDP'
tp1088
F145
s(g891
S'ADVADVANVVP'
tp1089
F1
s(S'MP'
S'MVADVANP'
tp1090
F1
s(S'MP'
S'MVDDP'
tp1091
F4
s(g67
S'PCCP'
tp1092
F8
s(S'PP'
S'ADVAPNP'
tp1093
F4
s(S'DP'
S'AADAP'
tp1094
F1
s(g17
S'ADPPP'
tp1095
F14
s(g269
S'AAAAADVDP'
tp1096
F1
s(S'MP'
S'MDADVNP'
tp1097
F1
s(S'AP'
S'AADVADVCP'
tp1098
F1
s(S'AP'
S'ADVADVACP'
tp1099
F2
s(g147
S'NNP'
tp1100
F6
s(g291
S'ADVADPP'
tp1101
F5
s(S'PP'
S'ADVPPAAPP'
tp1102
F1
s(g374
S'DAANP'
tp1103
F8
s(S'DP'
S'DVVVVP'
tp1104
F3
s(S'AP'
S'ADDP'
tp1105
F79
s(S'VP'
S'ADVADVADVVNNP'
tp1106
F1
s(S'VP'
S'ADVADVADVVCP'
tp1107
F2
s(S'PP'
S'PPAPPP'
tp1108
F1
s(S'VP'
S'ADVVVAP'
tp1109
F2
s(g104
S'ADVPPNP'
tp1110
F8
s(g453
S'VADVADVMP'
tp1111
F3
s(S'MP'
S'MDAP'
tp1112
F3
s(g416
S'CADVADVDPP'
tp1113
F5
s(S'CP'
S'ADVADVADVCDP'
tp1114
F2
s(g34
S'DPPP'
tp1115
F259
s(S'PP'
S'PNNNNP'
tp1116
F4
s(g48
S'AADPPP'
tp1117
F2
s(S'AP'
S'AAADVVP'
tp1118
F1
s(g241
S'ADVADVPPNP'
tp1119
F4
s(S'AP'
S'AAAP'
tp1120
F5
s(g392
S'NNAVP'
tp1121
F1
s(S'NP'
S'NNNADVVVP'
tp1122
F1
s(S'PP'
p1123
S'PPNNNP'
tp1124
F1
s(g395
S'DDADVADVNP'
tp1125
F1
s(g136
S'ADVPNP'
tp1126
F35
s(S'NP'
S'NNADVVP'
tp1127
F4
s(g32
S'PPDP'
tp1128
F160
s(g446
S'MVPPPP'
tp1129
F1
s(S'MP'
S'MAVDP'
tp1130
F3
s(S'DP'
S'DDPPPP'
tp1131
F5
s(S'PP'
S'PPPAAP'
tp1132
F1
s(g693
S'MVVADP'
tp1133
F1
s(S'VP'
S'VAADP'
tp1134
F3
s(S'NP'
S'NADVADVADVPP'
tp1135
F1
s(S'AP'
S'AAPPP'
tp1136
F4
s(g812
S'DDCP'
tp1137
F7
s(S'VP'
S'VADVADDP'
tp1138
F1
s(g282
S'ADVNAAVP'
tp1139
F1
s(g812
S'ADVDDNNP'
tp1140
F1
s(S'PP'
S'PPADVDDP'
tp1141
F1
s(S'AP'
S'AAAPP'
tp1142
F2
s(S'AP'
S'ADVADVAADP'
tp1143
F1
s(S'MP'
S'MNCCP'
tp1144
F8
s(g162
S'NAP'
tp1145
F182
s(S'NP'
p1146
S'NNAAP'
tp1147
F4
s(S'DP'
S'AADDP'
tp1148
F1
s(S'VP'
S'VAAAP'
tp1149
F5
s(S'VP'
S'AVADVCP'
tp1150
F1
s(S'VP'
S'ADVVVADVAP'
tp1151
F1
s(g210
S'ADVPAAP'
tp1152
F1
s(g113
S'ADVAVNP'
tp1153
F5
s(S'MP'
S'MAADDP'
tp1154
F1
s(S'DP'
S'DAVVP'
tp1155
F1
s(S'VP'
S'VVP'
tp1156
F122
s(S'MP'
S'ADVMNP'
tp1157
F1
s(g374
S'DADVNP'
tp1158
F38
s(g384
S'ADVADVPVP'
tp1159
F4
s(S'MP'
S'MAPP'
tp1160
F2
s(g753
S'APNP'
tp1161
F40
s(g928
S'VVVNNP'
tp1162
F5
s(g745
S'DDDAPP'
tp1163
F1
s(g997
S'DDVVP'
tp1164
F29
s(g75
S'AAADDP'
tp1165
F2
s(S'VP'
S'VVVNP'
tp1166
F10
s(S'MP'
S'MNPP'
tp1167
F9
s(S'CP'
S'CADVADVADVDPPP'
tp1168
F1
s(S'DP'
S'ADVADVADVDPPP'
tp1169
F1
s(g506
S'NAMP'
tp1170
F4
s(S'MP'
S'MVANP'
tp1171
F2
s(S'DP'
S'ADVADVDDPP'
tp1172
F4
s(g512
S'MVNNP'
tp1173
F10
s(g947
S'PPADVAPP'
tp1174
F1
s(S'PP'
S'PPPADVADVDP'
tp1175
F1
s(g509
S'CDPP'
tp1176
F645
s(S'NP'
S'NNADVPP'
tp1177
F1
s(S'MP'
S'MMMNP'
tp1178
F1
s(S'MP'
S'MVVNNP'
tp1179
F1
s(g1060
S'ADDDP'
tp1180
F10
s(S'MP'
S'MVADVPP'
tp1181
F2
s(S'CP'
S'ADVCADP'
tp1182
F1
s(g362
S'VVAANP'
tp1183
F3
s(S'MP'
S'MMMVP'
tp1184
F1
s(S'PP'
S'PADVADVDDP'
tp1185
F2
s(S'VP'
S'VVADVADVPP'
tp1186
F1
s(S'VP'
S'VADVADVADVMP'
tp1187
F1
s(g169
S'AVVPPP'
tp1188
F1
s(S'VP'
S'ADVADVAVCP'
tp1189
F1
s(g45
S'ADVCDP'
tp1190
F51
s(g787
S'AAPVVP'
tp1191
F3
s(g215
S'ADVADVVNP'
tp1192
F8
s(g203
S'AAADDPP'
tp1193
F1
s(g1146
S'NADVVP'
tp1194
F32
s(S'VP'
S'ADVADVVCP'
tp1195
F4
s(S'VP'
S'VADVADVDP'
tp1196
F5
s(g497
S'PPNNP'
tp1197
F34
s(g477
S'MPPNP'
tp1198
F4
s(g303
S'PPMP'
tp1199
F6
s(S'VP'
S'VADVADVNP'
tp1200
F3
s(g97
S'ADVADVDPP'
tp1201
F11
s(g404
S'VDP'
tp1202
F540
s(S'NP'
p1203
S'NADVAP'
tp1204
F6
s(g298
S'AVDDP'
tp1205
F6
s(S'CP'
S'ADVADVCDDP'
tp1206
F1
s(S'DP'
S'DAAAPP'
tp1207
F1
s(g291
S'DAP'
tp1208
F110
s(g837
S'MCADVDP'
tp1209
F1
s(g45
S'CADPP'
tp1210
F72
s(g143
S'MDDANP'
tp1211
F1
s(S'NP'
S'NADVAVP'
tp1212
F4
s(g32
S'PPAVP'
tp1213
F6
s(S'NP'
S'ADVNMMP'
tp1214
F1
s(S'VP'
S'VVDDDDP'
tp1215
F1
s(S'DP'
S'DADVADVADVADVPPP'
tp1216
F1
s(S'PP'
S'PPDDDP'
tp1217
F10
s(g687
S'AVPP'
tp1218
F22
s(S'MP'
S'MADVAVDDP'
tp1219
F1
s(S'DP'
S'DDNNNNP'
tp1220
F1
s(S'VP'
S'VVADVDP'
tp1221
F4
s(S'CP'
S'ADVCADVDP'
tp1222
F2
s(S'CP'
S'CDDPPPPP'
tp1223
F1
s(g45
S'CDPPPP'
tp1224
F13
s(g681
S'AAVDP'
tp1225
F3
s(g633
S'AADNNP'
tp1226
F2
s(S'PP'
S'PANNP'
tp1227
F3
s(S'NP'
S'ADVANMP'
tp1228
F1
s(S'VP'
S'VVNNNP'
tp1229
F2
s(g32
S'APPP'
tp1230
F20
s(g48
S'DAPPP'
tp1231
F6
s(g374
S'DADVADVPP'
tp1232
F12
s(g612
S'AANVVP'
tp1233
F4
s(S'DP'
S'ADVDPP'
tp1234
F68
s(S'NP'
S'NADVAPP'
tp1235
F1
s(S'PP'
S'PPAANP'
tp1236
F1
s(g497
S'PADVADVNP'
tp1237
F7
s(S'AP'
S'AAAAADDP'
tp1238
F1
s(g583
S'AADP'
tp1239
F113
s(g1063
S'PADVADVPPP'
tp1240
F1
s(g1123
S'PPAAVP'
tp1241
F1
s(S'NP'
S'NNADVVVP'
tp1242
F1
s(S'VP'
S'VVVCCCP'
tp1243
F1
s(g687
S'VADVPP'
tp1244
F14
s(g812
S'DDAAPP'
tp1245
F1
s(S'DP'
S'ADVDANP'
tp1246
F3
s(S'CP'
S'CCADVDDP'
tp1247
F2
s(g157
S'MPAVP'
tp1248
F1
s(S'NP'
S'NNNNADVPP'
tp1249
F1
s(g190
S'ADVPVP'
tp1250
F22
s(S'DP'
S'DDDDPP'
tp1251
F6
s(S'AP'
S'ADVADVAVP'
tp1252
F1
s(S'MP'
S'ADVMVVP'
tp1253
F1
s(S'NP'
S'NNVVVP'
tp1254
F2
s(S'MP'
S'AAMPP'
tp1255
F1
s(g753
S'ADVPDP'
tp1256
F24
s(g1034
S'ADVVADP'
tp1257
F1
s(g38
S'ADVNNPP'
tp1258
F3
s(S'PP'
S'PPDDDDP'
tp1259
F1
s(S'AP'
S'ADVAAMP'
tp1260
F1
s(S'MP'
S'MVADVAP'
tp1261
F1
s(g162
S'NCP'
tp1262
F583
s(S'CP'
S'CADVDPPP'
tp1263
F8
s(g955
S'ADVVVPP'
tp1264
F9
s(S'PP'
S'PPADVNNP'
tp1265
F2
s(S'DP'
S'ADVVP'
tp1266
F3
s(S'AP'
S'AADVMP'
tp1267
F2
s(g371
S'AAMP'
tp1268
F10
s(g693
S'AAMVVP'
tp1269
F1
s(g1123
S'ADVPDDP'
tp1270
F2
s(g464
S'AANDP'
tp1271
F1
s(S'MP'
S'MVCCP'
tp1272
F4
s(g374
S'DADVNNP'
tp1273
F8
s(g162
S'NNCCP'
tp1274
F29
s(g757
S'MNVP'
tp1275
F26
s(S'NP'
S'AANAP'
tp1276
F1
s(S'CP'
S'ADVADVCCDP'
tp1277
F3
s(S'MP'
S'MADVADVACP'
tp1278
F1
s(g957
S'VVADVDDP'
tp1279
F1
s(S'PP'
S'PADVADVAP'
tp1280
F1
s(g404
S'VAPP'
tp1281
F28
s(g849
S'MAVNP'
tp1282
F1
s(g65
S'ADVVVMMP'
tp1283
F1
s(S'NP'
S'ADVNAAAAP'
tp1284
F1
s(g65
S'ADVVDP'
tp1285
F29
s(g470
S'VADDP'
tp1286
F1
s(g34
S'DADVPP'
tp1287
F73
s(S'VP'
S'VVADVAP'
tp1288
F2
s(g991
S'AMP'
tp1289
F93
s(g416
S'CCADP'
tp1290
F5
s(S'AP'
S'AAAMP'
tp1291
F1
s(g1203
S'ADVNNCP'
tp1292
F5
s(S'DP'
S'ADVDAP'
tp1293
F6
s(g366
S'ADVADVADVPNP'
tp1294
F2
s(S'NP'
S'NNNPPP'
tp1295
F1
s(g324
S'ADVAPP'
tp1296
F9
s(S'DP'
S'DDADVAPP'
tp1297
F1
s(S'PP'
S'ADVPPVVP'
tp1298
F1
s(g840
S'AACDP'
tp1299
F9
s(g628
S'NNNCCP'
tp1300
F3
s(S'CP'
S'CCDDDP'
tp1301
F5
s(S'CP'
S'CCADVADVDDP'
tp1302
F2
s(g205
S'ADVDPPP'
tp1303
F15
s(g34
S'DVP'
tp1304
F493
s(g139
S'ADVVAP'
tp1305
F22
s(S'NP'
S'ADVNPP'
tp1306
F17
s(S'VP'
S'ADVADVADVVVNP'
tp1307
F2
s(S'DP'
S'DDDADVADVAP'
tp1308
F1
s(g25
S'NNCCCP'
tp1309
F2
s(g551
S'ADVPPNNP'
tp1310
F2
s(S'AP'
S'AVP'
tp1311
F72
s(g83
S'ADVAMADVPP'
tp1312
F1
s(S'NP'
S'NNADVADVVP'
tp1313
F1
s(g51
S'VVADVPPP'
tp1314
F1
s(S'DP'
S'DADVANNP'
tp1315
F2
s(g558
S'DDPPP'
tp1316
F60
s(S'NP'
S'NNNMMP'
tp1317
F2
s(S'NP'
S'ADVNMP'
tp1318
F6
s(g856
S'NNAP'
tp1319
F28
s(S'NP'
S'NNADVPPP'
tp1320
F1
s(S'MP'
S'MADVVCP'
tp1321
F4
s(g32
S'PPANP'
tp1322
F9
s(g356
S'MCDDP'
tp1323
F6
s(S'VP'
S'AAAVNP'
tp1324
F1
s(S'VP'
S'VVADVADVDP'
tp1325
F1
s(S'CP'
S'CDADVPP'
tp1326
F49
s(g113
S'VNP'
tp1327
F487
s(S'NP'
S'AANNVP'
tp1328
F1
s(g51
S'VANP'
tp1329
F30
s(g113
S'VADVAP'
tp1330
F25
s(S'PP'
S'PPADVNP'
tp1331
F8
s(g376
S'AAPVVVP'
tp1332
F1
s(S'DP'
S'DDDDVP'
tp1333
F2
s(S'VP'
S'ADVADVVVDP'
tp1334
F1
s(g806
S'NADVPPP'
tp1335
F4
s.