ccollections
defaultdict
p1
(c__builtin__
float
p2
tRp3
(S'VP'
S'VVAAAP'
tp4
F1
s(S'NP'
p5
S'AANDDP'
tp6
F1
s(S'PP'
S'PAAANP'
tp7
F1
s(S'DP'
S'ADDPP'
tp8
F1
s(S'DP'
p9
S'DDAP'
tp10
F3
s(S'MP'
S'MDADVADVVP'
tp11
F1
s(S'VP'
p12
S'VVVVP'
tp13
F2
s(S'DP'
S'DAANNP'
tp14
F1
s(S'PP'
p15
S'PAPP'
tp16
F5
s(S'PP'
S'PADVNP'
tp17
F3
s(S'DP'
p18
S'DNP'
tp19
F138
s(S'NP'
p20
S'ADVNDP'
tp21
F2
s(S'PP'
S'AAPDDP'
tp22
F1
s(S'CP'
S'CDPPP'
tp23
F31
s(S'DP'
S'ADVADVADPPP'
tp24
F1
s(S'VP'
p25
S'VADP'
tp26
F8
s(g9
S'DNNNNP'
tp27
F1
s(S'CP'
p28
S'CDAAPPP'
tp29
F1
s(S'DP'
p30
S'DAAP'
tp31
F3
s(S'VP'
S'VAVP'
tp32
F1
s(S'PP'
p33
S'APPDP'
tp34
F1
s(S'CP'
S'CADVADVDPPP'
tp35
F1
s(S'VP'
p36
S'ADVADVADVVVPP'
tp37
F2
s(S'DP'
p38
S'ADNNP'
tp39
F2
s(S'MP'
S'MDVP'
tp40
F1
s(S'PP'
p41
S'APVP'
tp42
F9
s(S'MP'
S'MVDP'
tp43
F10
s(S'NP'
S'AANNPP'
tp44
F1
s(g15
S'PPPP'
tp45
F23
s(S'DP'
S'DDDNP'
tp46
F1
s(S'VP'
S'VACP'
tp47
F6
s(S'AP'
S'AAAVP'
tp48
F1
s(S'VP'
p49
S'ADVVADVPP'
tp50
F1
s(S'DP'
p51
S'DADVVP'
tp52
F9
s(S'PP'
S'PADVNNP'
tp53
F2
s(S'AP'
S'AADVPP'
tp54
F1
s(S'NP'
p55
S'NCCCP'
tp56
F4
s(S'CP'
S'CADVADVDDPP'
tp57
F1
s(S'PP'
S'ADVPNNP'
tp58
F1
s(S'VP'
p59
S'VCP'
tp60
F54
s(S'NP'
p61
S'NMMP'
tp62
F6
s(S'VP'
p63
S'VVVPP'
tp64
F1
s(S'DP'
S'ADVADVDDVVP'
tp65
F1
s(S'VP'
S'ADVVAAP'
tp66
F3
s(S'PP'
S'PPPPPDP'
tp67
F1
s(S'CP'
S'CAAADPPP'
tp68
F1
s(S'DP'
p69
S'DDDNNP'
tp70
F1
s(S'PP'
p71
S'ADVPADP'
tp72
F1
s(S'PP'
p73
S'PAP'
tp74
F57
s(S'PP'
p75
S'PPANNP'
tp76
F1
s(S'DP'
p77
S'DDADVADVPP'
tp78
F3
s(S'PP'
p79
S'ADVPPVP'
tp80
F1
s(S'NP'
p81
S'ANPPP'
tp82
F6
s(S'PP'
p83
S'PNP'
tp84
F138
s(S'NP'
p85
S'ADVADVADVNNCP'
tp86
F1
s(S'PP'
p87
S'APADVAVP'
tp88
F1
s(g9
S'DDP'
tp89
F42
s(S'VP'
S'ADVVDDP'
tp90
F2
s(S'NP'
p91
S'NNNPP'
tp92
F4
s(g81
S'NNDP'
tp93
F13
s(S'MP'
p94
S'MCDP'
tp95
F3
s(S'NP'
p96
S'ANADVAP'
tp97
F1
s(S'CP'
S'AACCDP'
tp98
F1
s(S'DP'
p99
S'DDAANP'
tp100
F2
s(S'NP'
S'NNADVADVCP'
tp101
F1
s(S'MP'
p102
S'MNAP'
tp103
F1
s(S'MP'
S'MVVCCCP'
tp104
F1
s(S'NP'
p105
S'NMP'
tp106
F25
s(S'PP'
S'PPMMP'
tp107
F1
s(S'VP'
p108
S'AAVNP'
tp109
F3
s(S'VP'
p110
S'VMMP'
tp111
F2
s(g73
S'PDP'
tp112
F145
s(S'CP'
p113
S'CDADVADVPP'
tp114
F1
s(S'VP'
p115
S'VNNNNP'
tp116
F1
s(S'DP'
p117
S'DDADVADVPPP'
tp118
F1
s(S'VP'
p119
S'AVAAP'
tp120
F1
s(S'VP'
S'AVVAP'
tp121
F2
s(S'AP'
S'ANP'
tp122
F1
s(S'DP'
p123
S'ADVADNNP'
tp124
F1
s(S'PP'
p125
S'PADVPP'
tp126
F1
s(S'NP'
S'NNADVCP'
tp127
F1
s(S'VP'
p128
S'VVADVNP'
tp129
F1
s(S'AP'
S'ADVADVADVADVADP'
tp130
F1
s(S'DP'
p131
S'DPPPP'
tp132
F6
s(g77
S'DDANP'
tp133
F5
s(S'PP'
S'PADVADP'
tp134
F1
s(g55
S'NACP'
tp135
F11
s(g55
S'NCCP'
tp136
F37
s(S'VP'
p137
S'VVCCCP'
tp138
F1
s(S'NP'
p139
S'NNCP'
tp140
F37
s(S'NP'
S'AANPPP'
tp141
F1
s(S'DP'
S'DDDADVVP'
tp142
F1
s(S'PP'
p143
S'ADVADVADVADVPPVP'
tp144
F1
s(S'NP'
S'NNPPPP'
tp145
F1
s(g69
S'DDDDP'
tp146
F4
s(S'DP'
S'DDAPP'
tp147
F4
s(g20
S'NNAAADP'
tp148
F1
s(S'VP'
S'AVNP'
tp149
F3
s(S'VP'
S'VVADP'
tp150
F2
s(S'DP'
S'DDDADVADVADVNNP'
tp151
F1
s(S'NP'
S'NADVADVPP'
tp152
F1
s(S'PP'
S'ADVAPDP'
tp153
F1
s(S'PP'
S'AAPNP'
tp154
F1
s(g36
S'VADVVP'
tp155
F2
s(S'NP'
S'ANADVVP'
tp156
F1
s(S'PP'
S'ADVAPVP'
tp157
F1
s(S'NP'
S'ADVANDDP'
tp158
F1
s(S'NP'
S'NCCCCP'
tp159
F1
s(S'CP'
S'CCCDP'
tp160
F5
s(S'VP'
S'ADVVAP'
tp161
F4
s(g83
S'ADVPPNNP'
tp162
F1
s(S'VP'
p163
S'VCCCP'
tp164
F1
s(S'PP'
p165
S'PADVVVP'
tp166
F1
s(S'PP'
p167
S'APDP'
tp168
F12
s(S'MP'
p169
S'MNNVVP'
tp170
F1
s(g63
S'ADVVNNP'
tp171
F1
s(S'AP'
S'AADVCP'
tp172
F2
s(S'VP'
p173
S'VVANP'
tp174
F1
s(S'MP'
S'ADVMPP'
tp175
F1
s(g12
S'VVVVDP'
tp176
F1
s(S'VP'
p177
S'ADVVVP'
tp178
F1
s(S'CP'
S'CADADVPPP'
tp179
F1
s(S'PP'
S'PAAP'
tp180
F7
s(g77
S'DNNP'
tp181
F51
s(S'DP'
p182
S'DPPPPP'
tp183
F4
s(S'CP'
p184
S'CDDPPPP'
tp185
F2
s(S'CP'
S'CCADVDP'
tp186
F2
s(S'VP'
S'VVNNNP'
tp187
F1
s(S'DP'
S'ADDNP'
tp188
F2
s(S'NP'
S'NNNVP'
tp189
F2
s(S'PP'
S'PAAVVP'
tp190
F1
s(g115
S'VADVNNP'
tp191
F1
s(g71
S'PADVVP'
tp192
F3
s(S'MP'
p193
S'MVVDDP'
tp194
F1
s(g41
S'APAP'
tp195
F2
s(S'AP'
S'APP'
tp196
F29
s(S'AP'
S'ACCCP'
tp197
F1
s(S'NP'
p198
S'NADVMP'
tp199
F3
s(S'AP'
p200
S'AAP'
tp201
F1
s(S'CP'
S'CADVADPP'
tp202
F1
s(S'PP'
S'PAAAAVP'
tp203
F1
s(S'NP'
S'ADVANPP'
tp204
F2
s(S'NP'
S'NAAACP'
tp205
F1
s(g117
S'DAAVP'
tp206
F1
s(S'CP'
S'CDDDDPP'
tp207
F1
s(S'MP'
S'MVVVNP'
tp208
F1
s(S'PP'
S'PAANP'
tp209
F8
s(S'NP'
p210
S'ANVP'
tp211
F10
s(S'VP'
S'VAACP'
tp212
F1
s(g49
S'VAAAP'
tp213
F1
s(S'MP'
S'MVNP'
tp214
F7
s(S'AP'
S'AADVCCP'
tp215
F2
s(g55
S'ANAAP'
tp216
F2
s(S'AP'
S'ADVAADP'
tp217
F3
s(S'DP'
S'ADVADNP'
tp218
F1
s(S'PP'
S'PAVP'
tp219
F10
s(S'MP'
p220
S'ADVMVP'
tp221
F4
s(S'VP'
p222
S'ADVVMP'
tp223
F2
s(g165
S'PPADVNNP'
tp224
F2
s(S'AP'
S'ADVACCP'
tp225
F1
s(S'DP'
p226
S'DADP'
tp227
F3
s(S'AP'
S'ADVADP'
tp228
F2
s(S'CP'
S'ADVADVCDP'
tp229
F2
s(g9
S'ADVDDP'
tp230
F1
s(S'PP'
p231
S'APDDP'
tp232
F1
s(g77
S'DDVVVVP'
tp233
F2
s(g105
S'ADVNAP'
tp234
F2
s(g75
S'PPCP'
tp235
F1
s(S'NP'
p236
S'AAANNPP'
tp237
F1
s(S'VP'
S'ADVVNP'
tp238
F5
s(S'MP'
S'MNCP'
tp239
F1
s(S'VP'
p240
S'VVNP'
tp241
F20
s(S'PP'
S'PPPNNP'
tp242
F2
s(g41
S'PPVP'
tp243
F24
s(g108
S'VPP'
tp244
F80
s(g36
S'VADVDP'
tp245
F6
s(g94
S'ADVMADVVP'
tp246
F1
s(g119
S'VAAP'
tp247
F12
s(S'MP'
S'MPPDDDDP'
tp248
F1
s(S'NP'
p249
S'ANDP'
tp250
F7
s(g61
S'NVVP'
tp251
F33
s(S'PP'
p252
S'PPADP'
tp253
F2
s(S'VP'
S'VMP'
tp254
F9
s(g108
S'VVNNP'
tp255
F4
s(g55
S'NNAAVP'
tp256
F2
s(g163
S'VVAAP'
tp257
F1
s(S'MP'
p258
S'MMPP'
tp259
F1
s(S'DP'
S'ADVADVP'
tp260
F1
s(S'VP'
S'ADVADVVVNNP'
tp261
F1
s(g77
S'ADNP'
tp262
F17
s(S'VP'
S'ADVADVVNP'
tp263
F1
s(S'PP'
p264
S'PADP'
tp265
F15
s(g110
S'ADVVVCP'
tp266
F1
s(g91
S'ANDDP'
tp267
F1
s(S'NP'
S'NNNCP'
tp268
F3
s(g77
S'DAPP'
tp269
F23
s(S'VP'
S'AVVP'
tp270
F2
s(S'MP'
S'ADVMADVADVVP'
tp271
F1
s(S'VP'
S'ADVADVVPP'
tp272
F3
s(S'MP'
p273
S'MDDNP'
tp274
F1
s(S'VP'
S'ADVADVVDP'
tp275
F2
s(g41
S'PPPDP'
tp276
F2
s(S'DP'
p277
S'DAAPPP'
tp278
F1
s(S'VP'
p279
S'VDDDDP'
tp280
F2
s(S'DP'
S'DADVANP'
tp281
F3
s(S'CP'
S'CADVADVADPPP'
tp282
F1
s(g77
S'ADVDNP'
tp283
F5
s(S'VP'
S'VVPP'
tp284
F15
s(S'CP'
S'AACDDP'
tp285
F2
s(S'MP'
S'MVPP'
tp286
F6
s(S'DP'
p287
S'ADVP'
tp288
F11
s(S'MP'
p289
S'MVADP'
tp290
F1
s(S'CP'
S'CDDPPP'
tp291
F10
s(g55
S'NNPP'
tp292
F22
s(S'VP'
S'ADVAVDDDP'
tp293
F1
s(S'DP'
p294
S'DDDDNP'
tp295
F3
s(g289
S'MVVDP'
tp296
F3
s(S'AP'
S'AACP'
tp297
F10
s(g87
S'PPVVP'
tp298
F8
s(S'VP'
p299
S'VVADVCCP'
tp300
F1
s(g287
S'DNNNP'
tp301
F3
s(S'DP'
S'ADVDDVP'
tp302
F2
s(S'VP'
S'VADVDDP'
tp303
F1
s(g128
S'ADVVCP'
tp304
F2
s(g83
S'PMP'
tp305
F9
s(g184
S'CCDP'
tp306
F49
s(S'DP'
S'ADVADVADVDPP'
tp307
F1
s(S'PP'
S'PPNNNP'
tp308
F1
s(S'NP'
S'NVVVP'
tp309
F2
s(S'CP'
p310
S'CDDDPP'
tp311
F9
s(S'CP'
S'CDAAPP'
tp312
F6
s(S'VP'
p313
S'VVVDP'
tp314
F5
s(S'PP'
S'PNNNP'
tp315
F6
s(S'CP'
S'CCCCDP'
tp316
F5
s(S'PP'
S'APADVNNP'
tp317
F1
s(g222
S'VVMP'
tp318
F3
s(S'VP'
S'ADVVVDP'
tp319
F1
s(g83
S'PPP'
tp320
F64
s(S'NP'
p321
S'NAVP'
tp322
F14
s(S'PP'
S'PADVAP'
tp323
F3
s(S'NP'
p324
S'ANADVCCP'
tp325
F1
s(S'DP'
p326
S'ADVDVP'
tp327
F2
s(S'NP'
S'NADVVVP'
tp328
F2
s(S'AP'
p329
S'AADVVP'
tp330
F1
s(g125
S'PPPPDP'
tp331
F1
s(S'DP'
p332
S'DAAADP'
tp333
F1
s(g125
S'ADVPAADP'
tp334
F1
s(S'CP'
S'ADVCCDP'
tp335
F5
s(S'CP'
S'ACCDP'
tp336
F1
s(g131
S'ADVDDNP'
tp337
F3
s(g51
S'DDADVDP'
tp338
F1
s(g83
S'PADVDP'
tp339
F6
s(S'MP'
S'MADVVAP'
tp340
F1
s(S'PP'
S'PADVAAP'
tp341
F1
s(S'CP'
p342
S'CDDPP'
tp343
F41
s(S'DP'
p344
S'DAAPP'
tp345
F8
s(S'PP'
p346
S'PVVP'
tp347
F26
s(g113
S'CADPPP'
tp348
F4
s(S'DP'
S'DADVPPP'
tp349
F4
s(g346
S'PMMP'
tp350
F2
s(g108
S'VPPP'
tp351
F19
s(g252
S'PPADVADVDP'
tp352
F1
s(S'VP'
p353
S'VVPPP'
tp354
F5
s(g125
S'PPAP'
tp355
F4
s(g77
S'DVVP'
tp356
F24
s(g193
S'MADVVVADVDP'
tp357
F1
s(S'CP'
S'CDDAAPP'
tp358
F1
s(S'DP'
S'ADVADPPP'
tp359
F1
s(S'VP'
S'VVVP'
tp360
F4
s(g9
S'DDPPPP'
tp361
F3
s(S'VP'
S'AVMP'
tp362
F1
s(S'DP'
p363
S'DADVAAP'
tp364
F2
s(g321
S'ANCP'
tp365
F15
s(S'DP'
p366
S'DCP'
tp367
F4
s(S'VP'
S'VVADVADP'
tp368
F1
s(S'DP'
S'DADVCP'
tp369
F1
s(S'DP'
p370
S'DDDP'
tp371
F13
s(g38
S'DDADVPP'
tp372
F1
s(S'NP'
p373
S'ANVVP'
tp374
F3
s(S'VP'
S'VVDP'
tp375
F39
s(g55
S'NPPP'
tp376
F22
s(S'NP'
S'NNPPPPPP'
tp377
F1
s(S'DP'
p378
S'AADVVP'
tp379
F2
s(g294
S'DAVP'
tp380
F11
s(S'AP'
S'ACP'
tp381
F22
s(g33
S'AAPAP'
tp382
F1
s(g83
S'PPNP'
tp383
F27
s(S'PP'
S'APPPP'
tp384
F1
s(S'DP'
p385
S'ADVDAPP'
tp386
F2
s(g332
S'AADVP'
tp387
F2
s(g94
S'ADVMDP'
tp388
F1
s(S'CP'
S'CDDADVPP'
tp389
F1
s(g28
S'CCCDDP'
tp390
F4
s(S'AP'
S'ADP'
tp391
F74
s(g342
S'CCCDDDP'
tp392
F1
s(S'CP'
S'CADVDPP'
tp393
F11
s(g167
S'APVVP'
tp394
F1
s(S'MP'
S'MADDP'
tp395
F1
s(g79
S'PPPPNNP'
tp396
F1
s(S'VP'
S'AAAVDP'
tp397
F2
s(S'AP'
p398
S'AAADP'
tp399
F3
s(S'PP'
S'PCCCP'
tp400
F1
s(g240
S'VVAP'
tp401
F7
s(g5
S'NNAPP'
tp402
F1
s(S'NP'
p403
S'ADVNACCP'
tp404
F1
s(g277
S'ADVADVDNP'
tp405
F1
s(S'PP'
p406
S'PPADVVP'
tp407
F2
s(S'VP'
p408
S'AAVCP'
tp409
F1
s(S'NP'
p410
S'NPP'
tp411
F108
s(S'PP'
p412
S'PPPPNP'
tp413
F3
s(g410
S'NVP'
tp414
F116
s(S'PP'
p415
S'PPVVVP'
tp416
F2
s(S'PP'
S'PAAVP'
tp417
F1
s(g252
S'AAPPNP'
tp418
F1
s(S'NP'
S'NAAPP'
tp419
F3
s(S'PP'
S'PPPPVP'
tp420
F1
s(g59
S'VDDP'
tp421
F29
s(S'DP'
p422
S'DMP'
tp423
F2
s(S'DP'
S'DADVAPP'
tp424
F1
s(S'PP'
S'PAAAVP'
tp425
F2
s(S'NP'
p426
S'NADVADVVVP'
tp427
F1
s(S'NP'
p428
S'ANPP'
tp429
F14
s(g252
S'ADVPPDP'
tp430
F2
s(g83
S'PPPPP'
tp431
F3
s(S'MP'
S'MPDP'
tp432
F1
s(g273
S'MVVPP'
tp433
F2
s(g15
S'PPPNP'
tp434
F3
s(S'NP'
p435
S'NPPPP'
tp436
F3
s(S'DP'
S'ADDP'
tp437
F1
s(S'NP'
S'NNCCCCP'
tp438
F1
s(g110
S'VVVMP'
tp439
F1
s(S'PP'
S'PPPPPPP'
tp440
F1
s(S'CP'
p441
S'CAADPP'
tp442
F1
s(g182
S'DADVADVVP'
tp443
F3
s(S'NP'
p444
S'NAACP'
tp445
F3
s(g264
S'PNNP'
tp446
F31
s(g264
S'APNNP'
tp447
F4
s(S'DP'
S'DAAANNP'
tp448
F1
s(g226
S'DDAAP'
tp449
F2
s(S'MP'
S'MMNP'
tp450
F2
s(S'DP'
S'AAADPP'
tp451
F2
s(S'VP'
S'AVAP'
tp452
F2
s(S'MP'
p453
S'MMVP'
tp454
F6
s(g41
S'PADVDDP'
tp455
F3
s(g249
S'ADVNCP'
tp456
F11
s(g200
S'AADP'
tp457
F28
s(S'NP'
S'NAPPP'
tp458
F1
s(g342
S'ACDP'
tp459
F23
s(g59
S'VCCP'
tp460
F14
s(g435
S'NNACP'
tp461
F4
s(g51
S'AAADPPP'
tp462
F1
s(S'CP'
S'CDADVPPP'
tp463
F2
s(g59
S'VAP'
tp464
F44
s(g108
S'VVVVNP'
tp465
F2
s(S'VP'
S'AAAAVDP'
tp466
F1
s(S'DP'
S'DDDPP'
tp467
F12
s(S'CP'
S'ADVCDDP'
tp468
F2
s(S'VP'
S'VADVMP'
tp469
F3
s(S'MP'
S'MVVVDP'
tp470
F1
s(S'NP'
p471
S'NNPPPPP'
tp472
F1
s(g77
S'DDDPPP'
tp473
F1
s(g99
S'DADVDP'
tp474
F1
s(S'PP'
S'PPADVADP'
tp475
F1
s(S'AP'
S'AAACP'
tp476
F1
s(S'NP'
S'NAAP'
tp477
F9
s(S'PP'
p478
S'PAAMP'
tp479
F2
s(g478
S'PPPVP'
tp480
F3
s(g49
S'AAVAP'
tp481
F1
s(g329
S'AADDP'
tp482
F2
s(S'AP'
S'ACCCCP'
tp483
F1
s(S'VP'
S'VAANP'
tp484
F1
s(g471
S'NADVADVCP'
tp485
F1
s(S'VP'
S'ADVVVADP'
tp486
F1
s(S'DP'
S'DDDDPP'
tp487
F1
s(g222
S'VVAADP'
tp488
F1
s(g220
S'MADP'
tp489
F3
s(S'PP'
S'PPPDDP'
tp490
F1
s(S'AP'
p491
S'AMMP'
tp492
F1
s(S'CP'
S'CCAADP'
tp493
F1
s(S'DP'
p494
S'DDADVNP'
tp495
F1
s(g15
S'PANP'
tp496
F13
s(S'DP'
S'AADNP'
tp497
F3
s(S'AP'
S'ACCP'
tp498
F4
s(S'DP'
p499
S'ADVADPP'
tp500
F2
s(g370
S'ADADVADVDP'
tp501
F1
s(S'AP'
S'AAVP'
tp502
F4
s(S'AP'
p503
S'AVVP'
tp504
F2
s(g321
S'NDDP'
tp505
F13
s(S'DP'
S'ADVADVDPPP'
tp506
F1
s(g385
S'DADVADVNNP'
tp507
F1
s(g25
S'AVPPP'
tp508
F2
s(g55
S'NDP'
tp509
F70
s(g408
S'ADVVANP'
tp510
F1
s(S'NP'
S'AAANVP'
tp511
F1
s(g77
S'DDVP'
tp512
F20
s(S'DP'
p513
S'ADADVPPP'
tp514
F1
s(S'NP'
S'AANVP'
tp515
F8
s(g313
S'VNNNP'
tp516
F5
s(g264
S'ADVPAP'
tp517
F3
s(g167
S'PCP'
tp518
F8
s(g139
S'NNPPP'
tp519
F4
s(g25
S'VAACCP'
tp520
F1
s(g346
S'PAADP'
tp521
F4
s(S'NP'
S'ADVNNVP'
tp522
F2
s(S'DP'
S'AADADVPPP'
tp523
F1
s(S'NP'
p524
S'ADVNNPP'
tp525
F3
s(S'MP'
S'MVNNNP'
tp526
F1
s(S'NP'
S'NNNDP'
tp527
F3
s(S'AP'
S'ADVACP'
tp528
F4
s(S'PP'
p529
S'AAPNNP'
tp530
F1
s(g117
S'DDADVVP'
tp531
F1
s(S'DP'
p532
S'ADPPP'
tp533
F5
s(g441
S'CDAPP'
tp534
F13
s(S'MP'
S'MVCP'
tp535
F2
s(g310
S'CCDDP'
tp536
F16
s(g249
S'NNADVVP'
tp537
F2
s(g125
S'PPAAP'
tp538
F2
s(S'NP'
p539
S'NAAMP'
tp540
F2
s(S'PP'
S'PPADVCP'
tp541
F1
s(g428
S'NNNNVP'
tp542
F2
s(g108
S'VVCP'
tp543
F10
s(S'CP'
S'CAADADVPPP'
tp544
F1
s(S'NP'
S'AANCP'
tp545
F2
s(g12
S'VADVNP'
tp546
F3
s(S'VP'
S'VVDDDP'
tp547
F1
s(S'AP'
S'ADVAVVP'
tp548
F1
s(g55
S'NNDDP'
tp549
F7
s(g299
S'ADVVPP'
tp550
F5
s(S'VP'
S'ADVVVPPP'
tp551
F1
s(S'PP'
S'PPDDDDP'
tp552
F1
s(g426
S'ADVNNVVP'
tp553
F1
s(g353
S'VNNP'
tp554
F19
s(S'AP'
S'AADVDP'
tp555
F1
s(S'VP'
S'ADVADVVVANP'
tp556
F1
s(S'NP'
p557
S'NADP'
tp558
F6
s(g378
S'DDNP'
tp559
F32
s(g324
S'NADVCP'
tp560
F4
s(g9
S'DDNNP'
tp561
F10
s(g125
S'AAPPP'
tp562
F3
s(S'PP'
S'PADVADVVVP'
tp563
F1
s(S'NP'
p564
S'ADVANVP'
tp565
F1
s(S'AP'
S'AADVADP'
tp566
F1
s(g131
S'AADPP'
tp567
F3
s(g49
S'ADVVADVDP'
tp568
F1
s(g102
S'MADVVVCP'
tp569
F1
s(S'VP'
S'VVVVCP'
tp570
F1
s(S'MP'
S'MADVVPP'
tp571
F1
s(S'AP'
S'AADVADVVP'
tp572
F1
s(g71
S'AAPDP'
tp573
F4
s(S'CP'
S'AAACDDP'
tp574
F1
s(g184
S'CDDADVPPP'
tp575
F1
s(g117
S'ADVDNNP'
tp576
F1
s(S'CP'
S'ACDDP'
tp577
F1
s(g557
S'ADVADVNNCP'
tp578
F1
s(S'AP'
S'AADVADVDDP'
tp579
F1
s(g200
S'AAPP'
tp580
F7
s(S'VP'
S'VVCCP'
tp581
F4
s(g310
S'ADVCAADP'
tp582
F1
s(S'DP'
S'DADVVVP'
tp583
F1
s(g326
S'DAAAPP'
tp584
F1
s(S'VP'
S'VADVADP'
tp585
F1
s(g198
S'NAPP'
tp586
F7
s(g403
S'NADVDP'
tp587
F1
s(S'NP'
S'ANCCP'
tp588
F5
s(S'NP'
S'AANPP'
tp589
F1
s(S'VP'
S'VDDDP'
tp590
F1
s(S'NP'
S'NNMP'
tp591
F4
s(g344
S'DDDVP'
tp592
F4
s(g128
S'AAVPP'
tp593
F1
s(S'PP'
S'ADVADVPNP'
tp594
F2
s(S'PP'
S'PPPAP'
tp595
F1
s(S'CP'
S'CDDAPP'
tp596
F3
s(S'MP'
S'MVAP'
tp597
F5
s(g83
S'PVP'
tp598
F110
s(g173
S'VADVPPP'
tp599
F1
s(S'MP'
S'AAMVP'
tp600
F3
s(g137
S'VADVCCP'
tp601
F1
s(S'AP'
S'AADVDDP'
tp602
F1
s(S'AP'
S'ADVAACP'
tp603
F1
s(g177
S'VCCCCP'
tp604
F1
s(g412
S'PPDDP'
tp605
F9
s(S'VP'
S'AVCP'
tp606
F1
s(g564
S'NAVVP'
tp607
F3
s(g18
S'DPP'
tp608
F175
s(g557
S'ADVNVP'
tp609
F3
s(g77
S'DDPP'
tp610
F70
s(g9
S'DDADVPPP'
tp611
F1
s(g123
S'DDAVP'
tp612
F2
s(g9
S'DANP'
tp613
F33
s(g503
S'ADVAMP'
tp614
F2
s(S'NP'
p615
S'NADVPP'
tp616
F1
s(S'NP'
S'NAAVP'
tp617
F2
s(g406
S'ADVPADVAP'
tp618
F1
s(g529
S'PDDDP'
tp619
F4
s(S'CP'
S'CADVADVADVDPP'
tp620
F1
s(S'VP'
S'VADVCP'
tp621
F1
s(S'MP'
p622
S'MDNP'
tp623
F3
s(S'MP'
S'MNAVP'
tp624
F1
s(S'NP'
S'NNNVVP'
tp625
F3
s(g79
S'PADVPPP'
tp626
F1
s(S'DP'
p627
S'DCCP'
tp628
F3
s(g415
S'ADVADVPPP'
tp629
F1
s(g143
S'PADVADVADVADVPPP'
tp630
F1
s(S'CP'
S'CDPPPPP'
tp631
F4
s(S'PP'
p632
S'PADVADVADVADVAP'
tp633
F1
s(S'VP'
S'AVVDP'
tp634
F1
s(g264
S'PDDP'
tp635
F30
s(g102
S'MVDDP'
tp636
F3
s(S'NP'
S'NNNADVVP'
tp637
F1
s(g321
S'NNVP'
tp638
F28
s(g59
S'AVDP'
tp639
F22
s(g36
S'VVDDP'
tp640
F8
s(g627
S'DAANP'
tp641
F4
s(g167
S'AAAPAP'
tp642
F1
s(S'AP'
p643
S'ADDP'
tp644
F11
s(S'PP'
S'PNNNNP'
tp645
F1
s(S'PP'
S'ADVPPNP'
tp646
F6
s(g169
S'MAAAADNP'
tp647
F1
s(g258
S'MDAP'
tp648
F1
s(S'CP'
S'CADVADVDPP'
tp649
F2
s(g9
S'DPPP'
tp650
F51
s(S'DP'
S'AADPPP'
tp651
F1
s(S'CP'
S'ADVADVADVCCDP'
tp652
F1
s(S'AP'
S'AAAP'
tp653
F1
s(S'NP'
S'NNAVP'
tp654
F2
s(g85
S'NNNADVAVP'
tp655
F1
s(g73
S'ADVPNP'
tp656
F3
s(g264
S'PPDP'
tp657
F37
s(S'MP'
S'MAVDP'
tp658
F1
s(S'MP'
S'MAADNNP'
tp659
F1
s(g332
S'ADVDCP'
tp660
F1
s(g49
S'ADVVVADVDP'
tp661
F1
s(S'VP'
S'VAADP'
tp662
F1
s(g627
S'DDCP'
tp663
F1
s(S'NP'
S'ANADVADVVP'
tp664
F1
s(g453
S'MMAVP'
tp665
F2
s(S'NP'
S'NAP'
tp666
F37
s(g55
S'NNAAP'
tp667
F3
s(g71
S'ADVADVPPPP'
tp668
F1
s(S'AP'
S'AACCCCP'
tp669
F1
s(S'VP'
p670
S'ADVAVNP'
tp671
F1
s(S'VP'
p672
S'VVP'
tp673
F17
s(g373
S'NNVVP'
tp674
F10
s(g264
S'ADVADVPVP'
tp675
F3
s(g264
S'APNP'
tp676
F7
s(S'AP'
S'AADVADVPP'
tp677
F1
s(g77
S'DDVVP'
tp678
F8
s(S'AP'
S'AAADDP'
tp679
F1
s(S'VP'
S'VVVNP'
tp680
F1
s(S'DP'
S'ADVADVADVDPPP'
tp681
F1
s(S'NP'
S'NNADVPP'
tp682
F1
s(S'DP'
S'ADVADVDDPP'
tp683
F1
s(S'CP'
p684
S'CDPP'
tp685
F154
s(g491
S'ADDDP'
tp686
F1
s(S'VP'
S'VVAANP'
tp687
F1
s(g363
S'DDDCP'
tp688
F1
s(S'CP'
S'ADVCDP'
tp689
F7
s(S'PP'
S'PPPPAP'
tp690
F1
s(g524
S'NNNNPPP'
tp691
F1
s(g173
S'VADVADVDP'
tp692
F1
s(S'PP'
S'PPNNP'
tp693
F12
s(g632
S'PPMP'
tp694
F1
s(S'DP'
S'ADVADVDPP'
tp695
F3
s(g59
S'VDP'
tp696
F110
s(g444
S'NADVAP'
tp697
F2
s(S'AP'
S'ADVAADVDP'
tp698
F1
s(S'VP'
S'AVDDP'
tp699
F3
s(g422
S'DADVNP'
tp700
F12
s(g131
S'DAP'
tp701
F27
s(g342
S'CADPP'
tp702
F21
s(g231
S'PPDDDP'
tp703
F1
s(g279
S'AVPP'
tp704
F6
s(g499
S'DDNNNNP'
tp705
F1
s(S'CP'
S'CDPPPP'
tp706
F4
s(S'DP'
S'AADNNP'
tp707
F1
s(S'PP'
S'APPP'
tp708
F8
s(g532
S'DADVADVPP'
tp709
F1
s(g321
S'NNNNDP'
tp710
F1
s(g30
S'ADVDPP'
tp711
F17
s(g539
S'NADVAPP'
tp712
F1
s(S'VP'
S'ADVADVVAP'
tp713
F1
s(g77
S'ADPP'
tp714
F29
s(S'PP'
S'PPPVVP'
tp715
F1
s(g96
S'NADVADVADVCCP'
tp716
F1
s(g353
S'VADVPP'
tp717
F3
s(g117
S'DDAAPP'
tp718
F1
s(g513
S'ADVDANP'
tp719
F1
s(S'PP'
S'PVVVVP'
tp720
F2
s(S'NP'
S'NADVADVADVVVP'
tp721
F2
s(g102
S'AAMPP'
tp722
F1
s(S'PP'
S'ADVPDP'
tp723
F5
s(S'NP'
S'ANNPP'
tp724
F1
s(S'MP'
S'MAVNNP'
tp725
F1
s(g410
S'NCP'
tp726
F142
s(g441
S'CADVDPPP'
tp727
F1
s(g63
S'ADVVVPP'
tp728
F1
s(g366
S'ADVVP'
tp729
F1
s(g342
S'CDDADVADVPP'
tp730
F1
s(g684
S'CDADVPP'
tp731
F4
s(g670
S'VADVADVADVDP'
tp732
F1
s(S'PP'
S'ADVPDDP'
tp733
F1
s(g494
S'AAAADNP'
tp734
F1
s(S'VP'
S'AAVVDP'
tp735
F1
s(S'NP'
S'AANDP'
tp736
F3
s(g622
S'MVCCP'
tp737
F2
s(S'DP'
S'DADVNNP'
tp738
F1
s(S'NP'
S'NNCCP'
tp739
F9
s(S'MP'
S'MNVP'
tp740
F1
s(S'VP'
S'VAPP'
tp741
F1
s(g210
S'NPPPPP'
tp742
F2
s(S'VP'
S'ADVVDP'
tp743
F7
s(S'VP'
p744
S'VADDP'
tp745
F2
s(g18
S'DADVPP'
tp746
F8
s(g398
S'AMP'
tp747
F7
s(S'CP'
S'CCADP'
tp748
F2
s(S'NP'
S'ADVNNCP'
tp749
F1
s(S'PP'
S'PPADDP'
tp750
F1
s(S'NP'
S'NNNPPP'
tp751
F1
s(S'AP'
S'ADVAPP'
tp752
F1
s(S'CP'
S'AACDP'
tp753
F3
s(S'CP'
S'CCDDDP'
tp754
F2
s(g131
S'ADVDPPP'
tp755
F1
s(g18
S'DVP'
tp756
F105
s(g119
S'AVNNP'
tp757
F2
s(g324
S'ADVNPP'
tp758
F2
s(g615
S'NNCCCP'
tp759
F2
s(g643
S'AVP'
tp760
F16
s(g435
S'NADVVP'
tp761
F7
s(g210
S'NNADVADVVP'
tp762
F1
s(S'DP'
S'DDPPP'
tp763
F20
s(g55
S'NNAP'
tp764
F3
s(S'PP'
S'PPANP'
tp765
F2
s(g503
S'AADVMP'
tp766
F2
s(g672
S'VNP'
tp767
F99
s(g744
S'VANP'
tp768
F7
s(S'VP'
S'VADVAP'
tp769
F5
s(S'PP'
S'PPADVNP'
tp770
F1
s(S'PP'
S'AAPVVVP'
tp771
F1
s(g236
S'NADVPPP'
tp772
F1
s.