ccollections
defaultdict
p1
(c__builtin__
float
p2
tRp3
(S'MP'
S'AMMPP'
tp4
F1
s(S'AP'
S'AADVPPP'
tp5
F1
s(S'MP'
S'MADVNCP'
tp6
F1
s(S'PP'
p7
S'PAAANP'
tp8
F1
s(S'DP'
S'ADDPP'
tp9
F1
s(S'DP'
p10
S'DDAP'
tp11
F2
s(S'MP'
S'MMDP'
tp12
F1
s(S'VP'
p13
S'VVVVP'
tp14
F1
s(S'DP'
S'DAANNP'
tp15
F1
s(S'NP'
S'NADDP'
tp16
F2
s(S'PP'
p17
S'PAPP'
tp18
F4
s(S'DP'
S'DDPPPPP'
tp19
F2
s(S'DP'
p20
S'DNP'
tp21
F168
s(S'NP'
S'ADVNDP'
tp22
F1
s(S'CP'
p23
S'CDPPP'
tp24
F36
s(S'VP'
S'VADP'
tp25
F7
s(S'DP'
p26
S'DNNNNP'
tp27
F2
s(S'NP'
p28
S'ADVNCCP'
tp29
F1
s(g7
S'PPPPPP'
tp30
F1
s(S'MP'
p31
S'MDVP'
tp32
F1
s(S'VP'
S'ADVVNP'
tp33
F8
s(S'MP'
p34
S'MVDP'
tp35
F23
s(S'PP'
p36
S'PADVANP'
tp37
F1
s(S'PP'
p38
S'PPPP'
tp39
F18
s(S'DP'
S'DDDNP'
tp40
F2
s(S'VP'
S'VACP'
tp41
F2
s(S'DP'
p42
S'DADVVP'
tp43
F5
s(S'MP'
S'MMCP'
tp44
F3
s(S'NP'
S'NADVACP'
tp45
F2
s(S'NP'
p46
S'NDDDP'
tp47
F2
s(S'PP'
p48
S'AAPADVDDP'
tp49
F1
s(S'CP'
p50
S'CADVADVDDPP'
tp51
F1
s(S'VP'
p52
S'VCP'
tp53
F64
s(S'MP'
S'MVVANP'
tp54
F1
s(S'NP'
p55
S'NMMP'
tp56
F4
s(S'VP'
p57
S'ADVVAAP'
tp58
F1
s(S'NP'
p59
S'NNADVAP'
tp60
F1
s(S'PP'
p61
S'PAP'
tp62
F61
s(S'VP'
S'VADVADVAP'
tp63
F3
s(S'PP'
p64
S'ADVPPVP'
tp65
F1
s(S'NP'
S'NNNAP'
tp66
F1
s(S'NP'
p67
S'ANPPP'
tp68
F1
s(S'MP'
p69
S'AMVP'
tp70
F2
s(S'PP'
p71
S'PNP'
tp72
F162
s(S'VP'
p73
S'VVADVADVNP'
tp74
F1
s(S'DP'
p75
S'DDP'
tp76
F14
s(S'VP'
p77
S'VVVVMP'
tp78
F1
s(S'NP'
S'NNNPP'
tp79
F2
s(S'NP'
p80
S'NNDP'
tp81
F10
s(S'MP'
p82
S'MCDP'
tp83
F9
s(S'NP'
p84
S'NMP'
tp85
F51
s(S'PP'
p86
S'PVVVVP'
tp87
F1
s(S'DP'
S'ADCP'
tp88
F1
s(S'MP'
p89
S'MADVADVNACP'
tp90
F1
s(S'VP'
p91
S'AAVNP'
tp92
F1
s(S'VP'
S'VMMP'
tp93
F10
s(g71
S'PDP'
tp94
F153
s(S'PP'
S'PADVNP'
tp95
F4
s(S'CP'
p96
S'CCADVADVDP'
tp97
F1
s(S'VP'
S'VAMP'
tp98
F3
s(S'MP'
S'MADVVNP'
tp99
F2
s(S'CP'
S'CDADVADVPPP'
tp100
F2
s(S'DP'
p101
S'ADVADVDAPP'
tp102
F1
s(S'AP'
S'ANP'
tp103
F3
s(S'PP'
S'PADVPP'
tp104
F1
s(S'NP'
S'NNADVCP'
tp105
F2
s(S'AP'
S'ADVADVAMP'
tp106
F3
s(S'DP'
S'DPPPP'
tp107
F7
s(S'PP'
S'PADVADP'
tp108
F1
s(S'NP'
S'NACP'
tp109
F3
s(S'NP'
S'NCCP'
tp110
F31
s(S'VP'
p111
S'VVCCCP'
tp112
F1
s(g55
S'NNCP'
tp113
F26
s(g101
S'ADVDDPP'
tp114
F5
s(S'NP'
p115
S'NADVADVVP'
tp116
F7
s(S'DP'
p117
S'DDDDP'
tp118
F2
s(S'VP'
S'AVNP'
tp119
F4
s(S'DP'
S'DDAAANP'
tp120
F1
s(S'VP'
S'VVNNNP'
tp121
F1
s(S'PP'
S'ADVPVVP'
tp122
F1
s(S'PP'
S'ADVAPDP'
tp123
F1
s(S'VP'
p124
S'VVMP'
tp125
F9
s(S'VP'
S'ADVADVADVVNP'
tp126
F1
s(S'NP'
S'ANADVVP'
tp127
F1
s(S'CP'
S'CCCDP'
tp128
F1
s(g52
S'ADVVAP'
tp129
F1
s(g7
S'PADVVVP'
tp130
F1
s(S'PP'
S'APDP'
tp131
F5
s(S'MP'
S'ADVADVMMDP'
tp132
F1
s(S'VP'
S'ADVVNNP'
tp133
F1
s(S'AP'
S'AADVCP'
tp134
F2
s(S'VP'
S'VVANP'
tp135
F1
s(S'VP'
S'VVVVDP'
tp136
F1
s(S'VP'
S'ADVVVP'
tp137
F2
s(S'MP'
S'ADVMMNNP'
tp138
F1
s(S'AP'
S'AADVMMP'
tp139
F1
s(S'PP'
S'PCCP'
tp140
F3
s(S'NP'
S'ADVANCP'
tp141
F4
s(S'DP'
S'DNNP'
tp142
F39
s(g96
S'CADVDDPP'
tp143
F4
s(S'DP'
p144
S'DPPPPP'
tp145
F2
s(S'CP'
S'CCADVDP'
tp146
F5
s(S'VP'
p147
S'ADVADVADVVVDP'
tp148
F1
s(S'DP'
S'ADDNP'
tp149
F1
s(g59
S'NNNVP'
tp150
F1
s(S'VP'
S'VADVNNP'
tp151
F1
s(S'PP'
S'PADVVP'
tp152
F7
s(S'DP'
S'DAAVP'
tp153
F1
s(g38
S'APAP'
tp154
F2
s(S'CP'
S'ADVADVCDP'
tp155
F2
s(S'NP'
p156
S'AAANNPP'
tp157
F1
s(S'NP'
p158
S'NADVMP'
tp159
F2
s(S'AP'
S'AAP'
tp160
F2
s(S'VP'
p161
S'VADVADVVP'
tp162
F1
s(S'VP'
S'VVVVPPPP'
tp163
F1
s(S'NP'
S'ADVADVNCCP'
tp164
F2
s(S'NP'
S'ADVANPP'
tp165
F1
s(S'VP'
S'VVVVPP'
tp166
F1
s(S'VP'
p167
S'VADVADVNP'
tp168
F1
s(g69
S'MPVP'
tp169
F2
s(g34
S'MVVVNP'
tp170
F2
s(S'NP'
S'ANVP'
tp171
F11
s(S'MP'
p172
S'MVNP'
tp173
F29
s(S'MP'
S'MNDP'
tp174
F2
s(S'AP'
S'ADVAADP'
tp175
F1
s(S'DP'
p176
S'ADVADNP'
tp177
F1
s(S'PP'
S'PAVP'
tp178
F1
s(S'MP'
p179
S'ADVMVP'
tp180
F3
s(g91
S'ADVVMP'
tp181
F8
s(S'MP'
S'ADVMMCP'
tp182
F1
s(S'AP'
S'ADVACCP'
tp183
F1
s(S'DP'
p184
S'DADP'
tp185
F1
s(S'DP'
S'ADVDVVP'
tp186
F1
s(S'AP'
S'ADVADP'
tp187
F2
s(S'AP'
p188
S'APP'
tp189
F31
s(S'MP'
p190
S'MDPP'
tp191
F1
s(S'PP'
S'APDDP'
tp192
F3
s(S'DP'
p193
S'ADVADVDAP'
tp194
F1
s(g17
S'PPCP'
tp195
F3
s(S'PP'
S'PPAAAVP'
tp196
F1
s(g17
S'APVP'
tp197
F8
s(S'MP'
S'MNCP'
tp198
F7
s(S'VP'
p199
S'VVNP'
tp200
F23
s(g61
S'PPVP'
tp201
F21
s(S'MP'
S'MAPDDP'
tp202
F1
s(S'VP'
S'VADVDP'
tp203
F5
s(g34
S'MDDAP'
tp204
F1
s(S'VP'
p205
S'VVADVAP'
tp206
F1
s(g13
S'VAAP'
tp207
F11
s(S'NP'
p208
S'ANDP'
tp209
F9
s(g115
S'NVVP'
tp210
F33
s(S'PP'
p211
S'AAPVP'
tp212
F1
s(g52
S'VMP'
tp213
F88
s(S'VP'
S'VVNNP'
tp214
F5
s(S'CP'
S'CDAPP'
tp215
F10
s(S'VP'
S'VVAAP'
tp216
F2
s(S'MP'
p217
S'MMPP'
tp218
F2
s(S'CP'
S'CADVADPP'
tp219
F1
s(S'DP'
S'ADNP'
tp220
F7
s(g64
S'PADP'
tp221
F1
s(S'VP'
S'ADVVVCP'
tp222
F1
s(S'NP'
S'NADVADVADVVVP'
tp223
F1
s(g84
S'ANDDP'
tp224
F2
s(S'DP'
S'ADVADVDVP'
tp225
F1
s(S'MP'
S'MDANP'
tp226
F2
s(S'NP'
S'ADVADVADVNVP'
tp227
F2
s(S'VP'
S'ADVADVVMP'
tp228
F1
s(S'VP'
p229
S'ADVADVVPP'
tp230
F1
s(S'MP'
S'MADVADVVNP'
tp231
F3
s(S'VP'
p232
S'VADVAAP'
tp233
F1
s(S'MP'
S'MDDNP'
tp234
F1
s(g161
S'ADVADVVDP'
tp235
F1
s(g86
S'PPPDP'
tp236
F1
s(S'AP'
S'AAPPP'
tp237
F1
s(S'VP'
S'VDDDDP'
tp238
F1
s(S'DP'
S'DAAANP'
tp239
F1
s(S'DP'
S'DADVANP'
tp240
F2
s(S'DP'
p241
S'ADVDNP'
tp242
F5
s(S'VP'
p243
S'VVPP'
tp244
F9
s(S'MP'
S'MVPP'
tp245
F7
s(S'DP'
S'ADVP'
tp246
F2
s(S'MP'
S'MVADP'
tp247
F1
s(g96
S'CDDPPP'
tp248
F5
s(S'MP'
S'ADVMVVP'
tp249
F1
s(S'VP'
S'ADVADVADVVDP'
tp250
F1
s(S'NP'
S'NNPP'
tp251
F11
s(S'DP'
p252
S'DDDDNP'
tp253
F1
s(S'MP'
S'MVVDP'
tp254
F3
s(g42
S'DADVPPP'
tp255
F5
s(S'PP'
S'PPVVP'
tp256
F1
s(S'DP'
S'DNNNP'
tp257
F4
s(S'MP'
S'MVADVCP'
tp258
F1
s(S'MP'
S'MPPDP'
tp259
F1
s(S'DP'
p260
S'ADVDDVP'
tp261
F1
s(S'PP'
p262
S'PADVADVVP'
tp263
F2
s(S'CP'
S'ADVCAADDP'
tp264
F1
s(g262
S'PVVVP'
tp265
F1
s(S'PP'
S'PMP'
tp266
F7
s(S'CP'
S'CCDP'
tp267
F44
s(S'VP'
p268
S'VADVANP'
tp269
F4
s(S'CP'
S'CCCCDDDP'
tp270
F1
s(S'DP'
S'ADVADVADVDDAP'
tp271
F1
s(S'NP'
S'NVVVP'
tp272
F10
s(g96
S'CDDDPP'
tp273
F2
s(S'CP'
S'CDAAPP'
tp274
F2
s(S'VP'
S'ADVADVVVVP'
tp275
F1
s(S'VP'
p276
S'VVVDP'
tp277
F3
s(S'PP'
S'PDDDDP'
tp278
F1
s(S'CP'
S'CCCCDP'
tp279
F2
s(S'VP'
p280
S'VADVADVADVDDP'
tp281
F1
s(g280
S'ADVVVMP'
tp282
F1
s(S'PP'
S'AAPNP'
tp283
F1
s(S'VP'
S'ADVVVDP'
tp284
F2
s(S'PP'
S'PPP'
tp285
F80
s(S'NP'
S'NNADVDP'
tp286
F1
s(S'NP'
p287
S'NAVP'
tp288
F7
s(g117
S'ADVADVDDNP'
tp289
F1
s(S'DP'
p290
S'DDNNNP'
tp291
F1
s(S'MP'
S'AMDP'
tp292
F1
s(S'PP'
S'PADDP'
tp293
F1
s(S'DP'
S'ADVDVP'
tp294
F1
s(g28
S'NADVVVP'
tp295
F4
s(g26
S'DADVADVPPP'
tp296
F3
s(g184
S'ADVADVDNP'
tp297
F1
s(S'VP'
S'VPP'
tp298
F81
s(S'NP'
p299
S'NNNCP'
tp300
F2
s(S'PP'
p301
S'PADVDP'
tp302
F1
s(S'CP'
S'CDADVAPP'
tp303
F1
s(S'CP'
S'CDDPP'
tp304
F31
s(g260
S'DAAPP'
tp305
F3
s(S'PP'
p306
S'PVVP'
tp307
F17
s(S'CP'
p308
S'CADPPP'
tp309
F3
s(S'AP'
p310
S'AACP'
tp311
F4
s(S'AP'
p312
S'ADVAADDP'
tp313
F1
s(S'VP'
S'ADVVCP'
tp314
F2
s(g111
S'VPPP'
tp315
F9
s(S'PP'
S'PPADVADVDP'
tp316
F1
s(S'VP'
S'VVPPP'
tp317
F1
s(S'MP'
S'MVPPP'
tp318
F2
s(g10
S'DVVP'
tp319
F17
s(g208
S'ANMP'
tp320
F2
s(g17
S'PPAP'
tp321
F6
s(S'PP'
S'ADVPPP'
tp322
F2
s(g115
S'ADVADVNVP'
tp323
F1
s(g57
S'VVVP'
tp324
F7
s(S'CP'
S'CADVDPP'
tp325
F6
s(S'VP'
S'AVMP'
tp326
F1
s(S'NP'
p327
S'ANCP'
tp328
F15
s(S'DP'
p329
S'DCP'
tp330
F15
s(g46
S'AAANCP'
tp331
F1
s(S'DP'
S'DAAVVP'
tp332
F1
s(g205
S'AAVVCP'
tp333
F1
s(g193
S'DDDP'
tp334
F2
s(S'MP'
p335
S'ADVMCP'
tp336
F1
s(g241
S'DDADVPP'
tp337
F4
s(S'DP'
S'AADDPP'
tp338
F1
s(g89
S'MAADP'
tp339
F2
s(S'NP'
S'ANVVP'
tp340
F2
s(S'DP'
p341
S'ADDNNP'
tp342
F1
s(S'VP'
p343
S'VVDP'
tp344
F21
s(g115
S'NPPP'
tp345
F15
s(S'NP'
p346
S'ANCCCCP'
tp347
F1
s(g193
S'DAVP'
tp348
F8
s(g329
S'DDADVADVPP'
tp349
F1
s(g188
S'ACP'
tp350
F28
s(S'PP'
S'PPADVADVADVNP'
tp351
F1
s(S'DP'
S'ADVDAPP'
tp352
F1
s(S'CP'
p353
S'CDDADVPP'
tp354
F3
s(g188
S'ADP'
tp355
F109
s(S'NP'
p356
S'NAMMP'
tp357
F1
s(g290
S'DDPPPP'
tp358
F1
s(S'NP'
p359
S'ADVANCCP'
tp360
F1
s(g17
S'ADVPAAVP'
tp361
F1
s(S'MP'
S'MADDP'
tp362
F1
s(S'PP'
S'PPMP'
tp363
F1
s(g57
S'VVAP'
tp364
F6
s(g67
S'NNAPP'
tp365
F1
s(S'MP'
S'MNADVVP'
tp366
F2
s(S'MP'
S'MPPDDP'
tp367
F1
s(g36
S'PADVADVDP'
tp368
F1
s(S'NP'
p369
S'NPP'
tp370
F127
s(g48
S'PPPPNP'
tp371
F3
s(g327
S'NVP'
tp372
F203
s(S'NP'
S'NAAPP'
tp373
F1
s(S'PP'
S'PPPPVP'
tp374
F2
s(g343
S'VDDP'
tp375
F29
s(S'AP'
S'AAADVACP'
tp376
F1
s(S'NP'
S'ADVADVNACP'
tp377
F1
s(S'DP'
S'DADVADVPP'
tp378
F1
s(g356
S'NNNNDP'
tp379
F1
s(S'DP'
S'DADVAPP'
tp380
F1
s(g156
S'ANPP'
tp381
F11
s(g17
S'ADVPPDP'
tp382
F2
s(S'PP'
S'PPPPP'
tp383
F4
s(g82
S'MPDP'
tp384
F12
s(g335
S'MVVPP'
tp385
F1
s(S'DP'
S'ADVDPP'
tp386
F15
s(S'AP'
S'AAADVMMP'
tp387
F1
s(S'NP'
S'NADVAAP'
tp388
F1
s(S'NP'
S'NNCCCCP'
tp389
F2
s(S'VP'
S'VVVMP'
tp390
F1
s(S'CP'
S'CAADPP'
tp391
F2
s(S'DP'
S'DADVADVVP'
tp392
F1
s(S'MP'
S'MADVP'
tp393
F1
s(g61
S'PNNP'
tp394
F30
s(S'MP'
S'MNNADVPP'
tp395
F1
s(S'VP'
S'VVADVADVDDP'
tp396
F1
s(S'MP'
p397
S'MMVP'
tp398
F10
s(S'NP'
p399
S'ADVNCP'
tp400
F8
s(S'AP'
S'AADP'
tp401
F22
s(S'MP'
S'MPDDP'
tp402
F3
s(g23
S'ACDP'
tp403
F9
s(g71
S'PAAP'
tp404
F8
s(S'AP'
S'ADVANP'
tp405
F2
s(g327
S'NNACP'
tp406
F2
s(g397
S'MDNNP'
tp407
F3
s(S'CP'
S'CDADVPPP'
tp408
F5
s(g52
S'VAP'
tp409
F83
s(S'MP'
S'MNVVP'
tp410
F3
s(g101
S'DDDPP'
tp411
F5
s(S'CP'
S'ADVCDDP'
tp412
F1
s(g167
S'VADVMP'
tp413
F4
s(g211
S'PAAPP'
tp414
F1
s(S'PP'
S'AAAAPDDP'
tp415
F1
s(S'AP'
S'AVVP'
tp416
F2
s(S'MP'
S'MAVP'
tp417
F1
s(S'PP'
S'PPPVP'
tp418
F4
s(g312
S'AADDP'
tp419
F2
s(g268
S'VAANP'
tp420
F1
s(S'NP'
S'NADVADVCP'
tp421
F2
s(S'MP'
S'MADVADVADVVNP'
tp422
F1
s(S'NP'
p423
S'NVVVVP'
tp424
F3
s(S'NP'
S'ADVNNVP'
tp425
F1
s(S'MP'
S'MPNP'
tp426
F10
s(g217
S'MADP'
tp427
F10
s(g7
S'PPPDDP'
tp428
F1
s(S'AP'
S'AMMP'
tp429
F4
s(S'AP'
S'ADVADVADDP'
tp430
F1
s(g306
S'PANP'
tp431
F11
s(S'DP'
S'ADVADPP'
tp432
F1
s(S'AP'
S'AAVP'
tp433
F2
s(g80
S'NAAP'
tp434
F8
s(S'NP'
S'NDDP'
tp435
F7
s(S'AP'
S'ACCP'
tp436
F7
s(g84
S'NDP'
tp437
F65
s(S'MP'
S'MAANPP'
tp438
F1
s(S'NP'
S'NNNNVVP'
tp439
F2
s(S'MP'
S'MVAAP'
tp440
F1
s(S'DP'
S'DDVP'
tp441
F16
s(S'NP'
S'AANVP'
tp442
F6
s(S'VP'
S'VNNNP'
tp443
F2
s(S'PP'
S'ADVPAP'
tp444
F1
s(S'NP'
S'AAANVP'
tp445
F3
s(g306
S'PCP'
tp446
F12
s(S'NP'
S'NNPPP'
tp447
F3
s(g232
S'ADVVADP'
tp448
F1
s(g359
S'AANPPPPP'
tp449
F1
s(S'VP'
S'VCCP'
tp450
F6
s(S'AP'
S'ADVACP'
tp451
F3
s(g260
S'DDADVVP'
tp452
F2
s(g75
S'ADPPP'
tp453
F4
s(g179
S'MVCP'
tp454
F9
s(g353
S'CCDDP'
tp455
F7
s(S'NP'
S'NNADVVP'
tp456
F1
s(g423
S'NNNVVP'
tp457
F1
s(S'MP'
S'MAADDP'
tp458
F1
s(S'DP'
S'DADVNP'
tp459
F7
s(S'NP'
p460
S'NNNNVP'
tp461
F1
s(g167
S'VVCP'
tp462
F11
s(S'MP'
S'MAAVPP'
tp463
F1
s(S'VP'
p464
S'VADVNP'
tp465
F3
s(S'MP'
p466
S'MDCP'
tp467
F2
s(g301
S'APPP'
tp468
F1
s(S'VP'
S'ADVVPP'
tp469
F2
s(g262
S'PPNP'
tp470
F18
s(g276
S'VNNP'
tp471
F30
s(S'AP'
S'AADVDP'
tp472
F2
s(S'NP'
S'NADP'
tp473
F2
s(g20
S'DDNP'
tp474
F35
s(g158
S'NADVCP'
tp475
F4
s(g252
S'DDNNP'
tp476
F7
s(S'NP'
S'ADVANVP'
tp477
F2
s(S'MP'
S'MNNNAP'
tp478
F1
s(g329
S'AADPP'
tp479
F2
s(g73
S'VVVAAP'
tp480
F1
s(g199
S'VVMMP'
tp481
F1
s(g243
S'VAAANNP'
tp482
F1
s(S'NP'
S'NNADVMP'
tp483
F1
s(S'PP'
S'AAPDP'
tp484
F1
s(S'MP'
S'MVAAAP'
tp485
F1
s(g466
S'MVVNP'
tp486
F3
s(S'DP'
S'ADVDNNP'
tp487
F1
s(S'CP'
S'ACDDP'
tp488
F1
s(S'NP'
S'ADVADVNNCP'
tp489
F1
s(S'AP'
S'AAPP'
tp490
F3
s(S'MP'
S'ADVMAPP'
tp491
F1
s(g299
S'NAPP'
tp492
F4
s(S'AP'
S'ADVADVADP'
tp493
F1
s(S'NP'
S'NADVDP'
tp494
F2
s(g217
S'MADVADVVVDP'
tp495
F1
s(g341
S'DADVADVADVVP'
tp496
F1
s(S'NP'
S'ANCCP'
tp497
F5
s(S'NP'
S'AANPP'
tp498
F2
s(S'NP'
S'NNMP'
tp499
F9
s(S'VP'
S'AAVPP'
tp500
F1
s(S'MP'
S'MPANP'
tp501
F2
s(S'PP'
S'ADVADVPNP'
tp502
F2
s(S'PP'
S'PPPAP'
tp503
F1
s(g46
S'ANAP'
tp504
F1
s(S'MP'
S'MVAP'
tp505
F6
s(S'PP'
p506
S'PVP'
tp507
F143
s(S'DP'
S'DVVVP'
tp508
F2
s(S'DP'
S'DAPP'
tp509
F11
s(g399
S'ADVADVANVP'
tp510
F2
s(S'PP'
S'PPDDP'
tp511
F3
s(S'NP'
S'NADVADVAP'
tp512
F1
s(g20
S'DPP'
tp513
F216
s(S'DP'
S'ADVVP'
tp514
F1
s(S'NP'
S'ADVNVP'
tp515
F5
s(S'DP'
p516
S'DDPP'
tp517
F53
s(g176
S'DDAVP'
tp518
F1
s(g516
S'DANP'
tp519
F29
s(S'AP'
S'ADVAMP'
tp520
F2
s(S'NP'
S'NADVPP'
tp521
F1
s(S'MP'
S'MMAP'
tp522
F1
s(S'MP'
S'MNNCCCCP'
tp523
F1
s(S'MP'
S'MADVVADVAP'
tp524
F1
s(g147
S'VADVCP'
tp525
F1
s(S'MP'
S'MDNP'
tp526
F8
s(g287
S'AANNDP'
tp527
F1
s(S'NP'
p528
S'NNADVNP'
tp529
F1
s(g64
S'PADVPPP'
tp530
F1
s(S'DP'
S'DCCP'
tp531
F1
s(S'CP'
S'CDPPPPP'
tp532
F2
s(g190
S'MADVVDP'
tp533
F1
s(S'VP'
S'VVVAP'
tp534
F2
s(g262
S'PDDP'
tp535
F21
s(S'MP'
S'MVDDP'
tp536
F2
s(S'NP'
S'NNNADVVP'
tp537
F1
s(S'NP'
S'NNVP'
tp538
F42
s(S'VP'
S'AVDP'
tp539
F9
s(S'NP'
S'NNP'
tp540
F1
s(g77
S'VVDDP'
tp541
F2
s(S'DP'
S'DAANP'
tp542
F7
s(S'MP'
p543
S'MDADVNP'
tp544
F1
s(g310
S'ADDP'
tp545
F11
s(S'VP'
S'ADVVVAP'
tp546
F1
s(S'PP'
S'ADVPPNP'
tp547
F4
s(S'MP'
S'MDAP'
tp548
F1
s(S'CP'
S'CADVADVDPP'
tp549
F1
s(g516
S'DPPP'
tp550
F48
s(S'PP'
S'ADVADVPPNP'
tp551
F3
s(S'PP'
S'ADVPNP'
tp552
F6
s(g38
S'PPDP'
tp553
F24
s(S'MP'
S'MAVDP'
tp554
F1
s(S'DP'
p555
S'DDADVANP'
tp556
F1
s(g460
S'NNADVADVMMP'
tp557
F1
s(g327
S'NAP'
tp558
F27
s(g464
S'VAAAP'
tp559
F2
s(S'VP'
S'VVP'
tp560
F24
s(S'MP'
S'ADVMNP'
tp561
F1
s(S'NP'
S'NNVVP'
tp562
F6
s(g38
S'PADVADVANP'
tp563
F2
s(S'PP'
S'APNP'
tp564
F6
s(S'DP'
S'DDVVP'
tp565
F2
s(S'AP'
S'AAADDP'
tp566
F1
s(g167
S'VVVNP'
tp567
F9
s(S'MP'
S'MNPP'
tp568
F4
s(S'NP'
S'NNADVPP'
tp569
F1
s(S'MP'
S'MVANP'
tp570
F4
s(S'DP'
S'ADVADVDDPP'
tp571
F2
s(S'MP'
S'MVNNP'
tp572
F3
s(S'CP'
S'CDPP'
tp573
F191
s(S'AP'
S'ADDDP'
tp574
F1
s(g50
S'ADVCADP'
tp575
F1
s(S'VP'
S'VVAANP'
tp576
F1
s(S'MP'
S'MVVAANP'
tp577
F1
s(g308
S'ADVCDP'
tp578
F7
s(g167
S'ADVADVVNP'
tp579
F9
s(S'CP'
S'ADVACDP'
tp580
F2
s(g276
S'ADVADVVCP'
tp581
F2
s(S'PP'
S'PPNNP'
tp582
F3
s(g7
S'PADVCP'
tp583
F1
s(S'NP'
S'NAAAAPP'
tp584
F1
s(S'AP'
S'AAAADVADVVVP'
tp585
F1
s(S'DP'
S'ADVADVDPP'
tp586
F1
s(S'VP'
p587
S'VDP'
tp588
F144
s(S'MP'
S'MMADVADVVP'
tp589
F1
s(g299
S'NADVAP'
tp590
F2
s(S'VP'
S'AVDDP'
tp591
F1
s(S'DP'
S'DAP'
tp592
F22
s(S'CP'
S'CADPP'
tp593
F10
s(S'VP'
S'ADVADVVVPP'
tp594
F2
s(S'PP'
S'PPPADVPP'
tp595
F1
s(S'VP'
S'AVPP'
tp596
F1
s(g346
S'NADVADVMP'
tp597
F1
s(S'MP'
S'AMNP'
tp598
F1
s(S'VP'
p599
S'VVADVDP'
tp600
F1
s(S'CP'
S'CDDPPPPP'
tp601
F1
s(S'CP'
S'CDPPPP'
tp602
F5
s(S'VP'
S'AAVDP'
tp603
F1
s(S'NP'
S'ADVANMP'
tp604
F1
s(S'VP'
S'ADVVADVAP'
tp605
F2
s(S'AP'
S'AAADVDP'
tp606
F1
s(S'NP'
S'AANVVP'
tp607
F1
s(S'PP'
S'PPPNP'
tp608
F3
s(S'PP'
S'PADVADVNP'
tp609
F1
s(S'VP'
S'ADVADVVAP'
tp610
F1
s(S'DP'
S'ADPP'
tp611
F14
s(g124
S'VADVPP'
tp612
F1
s(S'VP'
S'VADVADVNNP'
tp613
F1
s(g555
S'ADVDANP'
tp614
F1
s(S'CP'
S'CCADVDDP'
tp615
F1
s(S'PP'
S'APNNNNP'
tp616
F1
s(g506
S'ADVPVP'
tp617
F9
s(S'DP'
S'DDDDPP'
tp618
F1
s(g144
S'DAAP'
tp619
F3
s(S'NP'
p620
S'NNVVVP'
tp621
F1
s(g64
S'PADVADVADVNP'
tp622
F1
s(S'PP'
S'ADVPDP'
tp623
F2
s(g156
S'ANADVDP'
tp624
F1
s(g84
S'NCP'
tp625
F160
s(S'CP'
S'CADVDPPP'
tp626
F1
s(g543
S'MVVADVADVNP'
tp627
F1
s(S'AP'
p628
S'AAAP'
tp629
F1
s(S'AP'
S'AAMP'
tp630
F7
s(g229
S'VADVADVANP'
tp631
F1
s(S'NP'
S'NNCCP'
tp632
F1
s(g82
S'MNVP'
tp633
F10
s(S'NP'
S'AANAP'
tp634
F1
s(S'PP'
S'PADVADVAP'
tp635
F1
s(g599
S'VAPP'
tp636
F1
s(g587
S'ADVVDP'
tp637
F7
s(S'DP'
p638
S'DADVPP'
tp639
F13
s(S'AP'
S'AMP'
tp640
F17
s(S'CP'
S'CCADP'
tp641
F1
s(g628
S'ADVAPP'
tp642
F1
s(g31
S'ADVADVMNP'
tp643
F1
s(S'CP'
S'CCADVADVDDP'
tp644
F1
s(S'DP'
S'ADVDPPP'
tp645
F2
s(g638
S'DVP'
tp646
F128
s(S'VP'
S'AVNNP'
tp647
F2
s(g528
S'ADVNPP'
tp648
F2
s(S'NP'
S'ADVADVANMP'
tp649
F1
s(S'AP'
S'AVP'
tp650
F18
s(g369
S'NADVVP'
tp651
F14
s(S'NP'
S'NNNMP'
tp652
F1
s(g101
S'DDPPP'
tp653
F5
s(S'NP'
S'ADVNMP'
tp654
F1
s(g620
S'NNAP'
tp655
F7
s(S'CP'
S'ADVACADVDP'
tp656
F1
s(S'MP'
S'MADVVCP'
tp657
F1
s(S'PP'
S'PPANP'
tp658
F2
s(g172
S'MCDDP'
tp659
F1
s(S'VP'
S'AAAVNP'
tp660
F1
s(S'VP'
S'VVADVADVDP'
tp661
F1
s(S'CP'
S'CDADVPP'
tp662
F10
s(g52
S'VNP'
tp663
F144
s(S'VP'
S'VANP'
tp664
F9
s(S'VP'
S'VADVAP'
tp665
F5
s(S'PP'
S'PPADVNP'
tp666
F2
s(S'VP'
S'ADVADVVVDP'
tp667
F1
s.