ccollections
defaultdict
p1
(c__builtin__
float
p2
tRp3
(S'MP'
S'MMDP'
tp4
F7
s(S'DP'
S'DDADVADVDDP'
tp5
F1
s(S'DP'
p6
S'ADDPP'
tp7
F1
s(S'DP'
S'DDAP'
tp8
F4
s(S'VP'
p9
S'ADVVVNP'
tp10
F3
s(S'VP'
p11
S'VVVVP'
tp12
F1
s(S'PP'
p13
S'PAPP'
tp14
F6
s(S'PP'
p15
S'PADVNP'
tp16
F13
s(S'DP'
p17
S'DNP'
tp18
F173
s(S'CP'
S'CDADVADVPPP'
tp19
F2
s(S'NP'
p20
S'ADVNDP'
tp21
F5
s(S'PP'
p22
S'AAPDDP'
tp23
F1
s(S'CP'
p24
S'CDPPP'
tp25
F56
s(S'DP'
S'ADPPP'
tp26
F1
s(S'VP'
p27
S'VADP'
tp28
F7
s(S'NP'
p29
S'ANADVADVADVVVP'
tp30
F1
s(S'CP'
p31
S'ACADVADVDP'
tp32
F1
s(S'DP'
p33
S'DAAP'
tp34
F7
s(S'PP'
p35
S'PPPPPP'
tp36
F1
s(S'VP'
S'VAVP'
tp37
F1
s(S'PP'
S'APPDP'
tp38
F1
s(S'AP'
S'AADVMP'
tp39
F1
s(S'DP'
S'DAADP'
tp40
F1
s(S'DP'
S'ADNNP'
tp41
F2
s(S'VP'
p42
S'AVADVDP'
tp43
F1
s(S'MP'
S'MDVP'
tp44
F1
s(S'DP'
S'ADVADVDPPP'
tp45
F4
s(S'VP'
p46
S'ADVVNP'
tp47
F14
s(S'MP'
p48
S'MVDP'
tp49
F31
s(g15
S'ADVPAMP'
tp50
F1
s(S'PP'
p51
S'PPPP'
tp52
F37
s(S'DP'
p53
S'DDDNP'
tp54
F11
s(S'MP'
p55
S'MMADVVP'
tp56
F1
s(S'MP'
p57
S'AMCP'
tp58
F1
s(S'VP'
p59
S'VACP'
tp60
F5
s(g22
S'PPAAP'
tp61
F3
s(g17
S'DADVVP'
tp62
F3
s(S'MP'
p63
S'MMCP'
tp64
F1
s(S'AP'
S'AADVPP'
tp65
F1
s(S'NP'
p66
S'NDDDP'
tp67
F2
s(S'NP'
p68
S'NCCCP'
tp69
F4
s(S'CP'
S'CADVDAPP'
tp70
F2
s(S'VP'
p71
S'VCP'
tp72
F76
s(S'NP'
p73
S'NMMP'
tp74
F9
s(S'VP'
S'VVVPP'
tp75
F4
s(S'DP'
S'ADVADVADVDDPP'
tp76
F1
s(S'VP'
S'ADVVAAP'
tp77
F1
s(S'CP'
S'CAAADPPP'
tp78
F1
s(S'MP'
p79
S'MVADVNP'
tp80
F1
s(S'PP'
p81
S'PAP'
tp82
F80
s(S'MP'
p83
S'MVVADVANP'
tp84
F1
s(g9
S'VADVADVAP'
tp85
F2
s(S'PP'
p86
S'ADVPPVP'
tp87
F2
s(S'NP'
p88
S'ANPPP'
tp89
F4
s(g31
S'CADPPPP'
tp90
F1
s(S'PP'
p91
S'PNP'
tp92
F181
s(S'DP'
S'ADDP'
tp93
F1
s(g17
S'DDP'
tp94
F43
s(S'VP'
p95
S'ADVVDDP'
tp96
F2
s(S'NP'
S'NNNPP'
tp97
F4
s(S'NP'
p98
S'NNDP'
tp99
F19
s(g48
S'MCDP'
tp100
F3
s(g48
S'ADVMMPP'
tp101
F1
s(S'MP'
S'AMPP'
tp102
F1
s(g88
S'NMP'
tp103
F70
s(S'NP'
S'ADVNCCP'
tp104
F2
s(S'NP'
S'ADVNAPP'
tp105
F1
s(S'VP'
S'VAAADP'
tp106
F1
s(S'VP'
p107
S'AAVNP'
tp108
F4
s(S'VP'
p109
S'VMMP'
tp110
F12
s(g91
S'PDP'
tp111
F159
s(S'DP'
p112
S'DDPPPPP'
tp113
F1
s(S'CP'
p114
S'CCADVADVDP'
tp115
F1
s(S'VP'
S'VAMP'
tp116
F4
s(S'NP'
S'ADVNVVP'
tp117
F2
s(S'MP'
S'MNNVP'
tp118
F1
s(S'MP'
S'MADVVNP'
tp119
F2
s(S'DP'
S'DADVADVVP'
tp120
F1
s(S'DP'
S'ADVADVDAPP'
tp121
F1
s(S'VP'
p122
S'VVVDP'
tp123
F3
s(S'NP'
S'NADVADVADVVP'
tp124
F1
s(S'PP'
p125
S'PADVPP'
tp126
F3
s(S'VP'
p127
S'VVADVNP'
tp128
F1
s(g22
S'PPADVAP'
tp129
F1
s(S'AP'
S'AAADVADVPPP'
tp130
F1
s(S'NP'
p131
S'ADVNACP'
tp132
F1
s(g53
S'DPPPP'
tp133
F8
s(S'DP'
p134
S'DDANP'
tp135
F1
s(S'DP'
p136
S'ADNNNP'
tp137
F1
s(g98
S'NACP'
tp138
F17
s(S'AP'
p139
S'ADVAVP'
tp140
F2
s(S'NP'
p141
S'NCCP'
tp142
F67
s(S'CP'
S'CDDDDPPP'
tp143
F1
s(S'MP'
S'MADVPDP'
tp144
F1
s(S'AP'
S'AAAADP'
tp145
F1
s(S'NP'
p146
S'NNCP'
tp147
F52
s(S'DP'
S'ADVDDPP'
tp148
F4
s(g73
S'NADVADVVP'
tp149
F1
s(S'DP'
p150
S'DDDADVADVVVP'
tp151
F1
s(S'PP'
S'PADVADVADVAAP'
tp152
F1
s(S'DP'
p153
S'DDDDP'
tp154
F2
s(g71
S'AVNP'
tp155
F8
s(S'VP'
S'VVNNNP'
tp156
F1
s(S'PP'
p157
S'ADVPVVP'
tp158
F1
s(S'VP'
S'VADVADVADVNP'
tp159
F1
s(g95
S'VVMP'
tp160
F12
s(S'DP'
p161
S'DDADVVP'
tp162
F1
s(S'MP'
S'MVAPP'
tp163
F1
s(S'MP'
p164
S'MVPPP'
tp165
F2
s(S'PP'
p166
S'ADVAPVP'
tp167
F2
s(S'DP'
S'DADVAP'
tp168
F1
s(S'NP'
p169
S'NCCCCP'
tp170
F1
s(g24
S'CCCDP'
tp171
F3
s(S'VP'
p172
S'AVNNP'
tp173
F4
s(S'PP'
S'ADVPPNNP'
tp174
F1
s(S'PP'
p175
S'APDP'
tp176
F17
s(S'PP'
p177
S'ADVADVAPNP'
tp178
F1
s(g98
S'ADVNPPP'
tp179
F1
s(S'AP'
p180
S'AADVCP'
tp181
F2
s(S'VP'
S'VVANP'
tp182
F1
s(S'DP'
p183
S'DADVNP'
tp184
F18
s(S'MP'
S'ADVMPP'
tp185
F1
s(S'PP'
S'ADVPNNP'
tp186
F2
s(S'VP'
p187
S'ADVVVP'
tp188
F1
s(S'AP'
p189
S'AADVMMP'
tp190
F1
s(S'AP'
S'ADVADVADVAAMP'
tp191
F1
s(S'PP'
S'PCCP'
tp192
F1
s(S'PP'
p193
S'PAAP'
tp194
F21
s(S'NP'
S'NANP'
tp195
F1
s(S'MP'
S'MVAAP'
tp196
F1
s(S'DP'
S'DNNP'
tp197
F68
s(S'CP'
S'CADVDDPP'
tp198
F2
s(S'DP'
p199
S'DPPPPP'
tp200
F1
s(S'CP'
S'CDDPPPP'
tp201
F1
s(S'AP'
S'AADVADVMMP'
tp202
F1
s(g24
S'CCADVDP'
tp203
F8
s(S'VP'
p204
S'ADVADVADVVVDP'
tp205
F1
s(S'VP'
S'AAVDDP'
tp206
F2
s(S'DP'
p207
S'ADDNP'
tp208
F1
s(S'NP'
p209
S'NNNVP'
tp210
F8
s(g187
S'VADVNNP'
tp211
F2
s(S'PP'
S'PPNNNNP'
tp212
F1
s(S'PP'
S'PADVVP'
tp213
F9
s(S'DP'
p214
S'DAAVP'
tp215
F1
s(S'PP'
p216
S'APAP'
tp217
F1
s(S'AP'
p218
S'APP'
tp219
F53
s(g73
S'AANADVVVP'
tp220
F1
s(g66
S'NADVMP'
tp221
F2
s(S'CP'
S'CADDPPP'
tp222
F1
s(S'VP'
S'ADVVMMP'
tp223
F1
s(g122
S'AVVDDP'
tp224
F1
s(S'MP'
S'MNAAP'
tp225
F1
s(S'NP'
S'ADVANPP'
tp226
F2
s(S'VP'
p227
S'VADVADVNP'
tp228
F1
s(S'MP'
p229
S'MVVVNP'
tp230
F2
s(g177
S'PAANP'
tp231
F4
s(S'VP'
p232
S'VADVADVCP'
tp233
F1
s(S'PP'
S'PPADVADVNNP'
tp234
F1
s(S'NP'
p235
S'ANVP'
tp236
F16
s(S'NP'
S'NNAAAP'
tp237
F1
s(S'MP'
p238
S'MVNP'
tp239
F25
s(S'AP'
S'AADVCCP'
tp240
F1
s(S'AP'
S'ADVAADP'
tp241
F1
s(S'DP'
p242
S'ADVADNP'
tp243
F2
s(g81
S'PAVP'
tp244
F10
s(g238
S'ADVMVP'
tp245
F3
s(S'PP'
p246
S'ADVADVPPVP'
tp247
F1
s(S'VP'
S'ADVVMP'
tp248
F3
s(S'MP'
p249
S'MDANP'
tp250
F1
s(g193
S'PPADVNNP'
tp251
F2
s(S'AP'
S'ADVACCP'
tp252
F1
s(S'DP'
S'DADP'
tp253
F2
s(S'AP'
p254
S'ADVADP'
tp255
F9
s(S'CP'
S'ADVADVCDP'
tp256
F2
s(S'MP'
S'MDPP'
tp257
F1
s(S'DP'
S'ADVDDP'
tp258
F2
s(S'PP'
S'APDDP'
tp259
F2
s(g27
S'ADVADVVVNP'
tp260
F1
s(g175
S'PPCP'
tp261
F4
s(S'AP'
S'AAAPPP'
tp262
F1
s(g13
S'APVP'
tp263
F11
s(S'MP'
S'MADVADVVPP'
tp264
F1
s(S'MP'
p265
S'MMNNNNP'
tp266
F1
s(g55
S'MNCP'
tp267
F10
s(S'VP'
p268
S'VVNP'
tp269
F46
s(g51
S'PPPNNP'
tp270
F1
s(S'DP'
p271
S'DADVCCP'
tp272
F1
s(g81
S'PPVP'
tp273
F55
s(S'VP'
p274
S'VADVDP'
tp275
F6
s(g17
S'DDDPP'
tp276
F13
s(g71
S'VAAP'
tp277
F23
s(S'VP'
S'VADVADVADVADVANP'
tp278
F1
s(g66
S'ANDP'
tp279
F7
s(g66
S'NVVP'
tp280
F59
s(S'PP'
p281
S'PPADP'
tp282
F1
s(g9
S'VMP'
tp283
F65
s(S'VP'
S'VVNNP'
tp284
F6
s(S'CP'
p285
S'CDAPP'
tp286
F15
s(S'CP'
p287
S'CDDAAPP'
tp288
F1
s(S'MP'
p289
S'MMPP'
tp290
F3
s(S'DP'
S'ADVADVP'
tp291
F1
s(S'CP'
p292
S'CADVADPP'
tp293
F1
s(g17
S'ADNP'
tp294
F10
s(g91
S'PADP'
tp295
F11
s(S'VP'
S'ADVVVCP'
tp296
F1
s(S'MP'
S'MNADVCCP'
tp297
F1
s(S'NP'
p298
S'ADVNADVVP'
tp299
F1
s(S'NP'
S'ANDDP'
tp300
F2
s(g17
S'ADVADVADVP'
tp301
F1
s(S'AP'
S'AAADVADVDP'
tp302
F1
s(S'DP'
p303
S'ADVADVDVP'
tp304
F1
s(S'VP'
p305
S'VVVDDP'
tp306
F1
s(g150
S'ADVDAANP'
tp307
F1
s(g33
S'DAPP'
tp308
F19
s(S'VP'
S'AVVP'
tp309
F2
s(S'VP'
S'ADVADVVPP'
tp310
F2
s(S'MP'
S'MADVADVVNP'
tp311
F1
s(S'VP'
p312
S'VADVAAP'
tp313
F2
s(S'MP'
S'MDDNP'
tp314
F3
s(S'VP'
S'ADVADVVDP'
tp315
F1
s(S'PP'
S'PPPDP'
tp316
F1
s(S'MP'
S'MVADVAPP'
tp317
F1
s(S'PP'
S'AAAPDP'
tp318
F1
s(g214
S'DDAAVP'
tp319
F2
s(S'MP'
S'MVVAP'
tp320
F2
s(S'VP'
S'VDDDDP'
tp321
F1
s(S'DP'
S'DADVANP'
tp322
F2
s(S'NP'
S'ANADVVVP'
tp323
F1
s(S'VP'
S'VAAPP'
tp324
F4
s(S'DP'
p325
S'ADVADVDADVADVAPP'
tp326
F1
s(S'NP'
S'ANAP'
tp327
F2
s(S'VP'
p328
S'VVPP'
tp329
F22
s(S'VP'
p330
S'VADVAPP'
tp331
F2
s(S'DP'
p332
S'ADADVPP'
tp333
F1
s(g287
S'AACDDP'
tp334
F1
s(S'MP'
S'MVPP'
tp335
F30
s(g183
S'ADVP'
tp336
F11
s(S'CP'
p337
S'CDDPPP'
tp338
F9
s(S'MP'
S'ADVMVVP'
tp339
F1
s(g150
S'ADVADVDDADVNP'
tp340
F1
s(g68
S'AANCCP'
tp341
F3
s(S'DP'
p342
S'DDDDNP'
tp343
F1
s(S'MP'
p344
S'MVVDP'
tp345
F7
s(g254
S'AACP'
tp346
F6
s(S'PP'
S'PPVVP'
tp347
F8
s(S'DP'
S'DNNNP'
tp348
F7
s(g107
S'ADVVAACP'
tp349
F1
s(S'MP'
S'MPPDP'
tp350
F1
s(g112
S'ADVDDVP'
tp351
F2
s(S'PP'
S'PADVADVVP'
tp352
F1
s(S'VP'
S'VADVDDP'
tp353
F1
s(g268
S'ADVVCP'
tp354
F3
s(S'PP'
S'PVVVP'
tp355
F5
s(S'PP'
p356
S'PMP'
tp357
F12
s(S'NP'
S'NNMMP'
tp358
F2
s(S'CP'
p359
S'CCDP'
tp360
F71
s(S'DP'
S'ADVADVADVDPP'
tp361
F1
s(S'MP'
S'AMVP'
tp362
F4
s(g246
S'PPNNNP'
tp363
F3
s(g66
S'NVVVP'
tp364
F7
s(S'CP'
S'CDDDPP'
tp365
F9
s(S'CP'
S'CDAAPP'
tp366
F2
s(S'MP'
S'AMMNP'
tp367
F1
s(S'PP'
p368
S'PNNNP'
tp369
F4
s(S'CP'
S'CCCCDP'
tp370
F3
s(g73
S'ANMMP'
tp371
F2
s(S'PP'
p372
S'AAPNP'
tp373
F4
s(S'PP'
S'PADVVVP'
tp374
F2
s(g91
S'PPP'
tp375
F101
s(S'VP'
S'VADVADVADVANP'
tp376
F1
s(S'NP'
p377
S'NNADVDP'
tp378
F1
s(S'NP'
p379
S'NAVP'
tp380
F13
s(S'PP'
S'PADVAP'
tp381
F4
s(S'MP'
S'ADVMMDP'
tp382
F1
s(S'DP'
S'DDNNNP'
tp383
F1
s(S'MP'
S'AMDP'
tp384
F1
s(S'DP'
p385
S'ADVADVDDPPP'
tp386
F2
s(g303
S'ADVDVP'
tp387
F3
s(S'NP'
S'NAAAP'
tp388
F2
s(g235
S'NADVVVP'
tp389
F5
s(g161
S'DADVADVPPP'
tp390
F2
s(S'AP'
S'AADVVP'
tp391
F1
s(S'PP'
p392
S'AAAAPPDP'
tp393
F1
s(S'DP'
S'ADVADVDNP'
tp394
F3
s(S'VP'
p395
S'VAAAAP'
tp396
F2
s(g71
S'VPP'
tp397
F117
s(S'CP'
S'ADVCCDP'
tp398
F3
s(S'CP'
S'CDDDPPPP'
tp399
F1
s(g153
S'ADVDDPPP'
tp400
F2
s(g199
S'ADVDDNP'
tp401
F2
s(S'NP'
p402
S'NNNCP'
tp403
F3
s(g281
S'PADVDP'
tp404
F7
s(S'CP'
S'CDDDPPP'
tp405
F2
s(S'DP'
p406
S'ADVADVDADVNNP'
tp407
F1
s(g337
S'CDDPP'
tp408
F65
s(S'DP'
S'DAAPP'
tp409
F3
s(g81
S'PVVP'
tp410
F38
s(S'CP'
S'CADPPP'
tp411
F1
s(g153
S'DADVPPP'
tp412
F8
s(S'PP'
p413
S'PMMP'
tp414
F1
s(S'VP'
S'VPPP'
tp415
F21
s(S'VP'
S'VVPPP'
tp416
F3
s(g172
S'AADVAVVPP'
tp417
F1
s(g177
S'PPAP'
tp418
F12
s(g183
S'DVVP'
tp419
F41
s(S'PP'
S'PADVAVP'
tp420
F1
s(S'CP'
S'CADVADVDAPP'
tp421
F1
s(g141
S'ANMP'
tp422
F3
s(S'VP'
S'ADVADVVVP'
tp423
F1
s(g180
S'APPP'
tp424
F7
s(g216
S'ADVPPP'
tp425
F9
s(S'NP'
p426
S'ADVADVNVP'
tp427
F4
s(g9
S'VVVP'
tp428
F14
s(g131
S'ADVNNCCP'
tp429
F1
s(S'CP'
S'CADVDPP'
tp430
F11
s(S'NP'
S'ADVADVNNVP'
tp431
F3
s(S'VP'
S'ADVVAAAAP'
tp432
F1
s(g68
S'ANCP'
tp433
F17
s(g342
S'DCP'
tp434
F11
s(g17
S'DDDP'
tp435
F17
s(S'MP'
S'MADVVANP'
tp436
F2
s(g153
S'DDADVPP'
tp437
F3
s(S'MP'
S'MAADP'
tp438
F1
s(S'NP'
p439
S'ANVVP'
tp440
F4
s(S'VP'
p441
S'VVDP'
tp442
F60
s(g66
S'NPPP'
tp443
F44
s(S'DP'
p444
S'AADVVP'
tp445
F1
s(g271
S'DAVP'
tp446
F8
s(g426
S'NNNMP'
tp447
F2
s(S'AP'
S'ACP'
tp448
F34
s(g35
S'PADVADVNNP'
tp449
F1
s(g91
S'PPNP'
tp450
F49
s(S'PP'
S'APPPP'
tp451
F2
s(g169
S'ADVADVANPP'
tp452
F1
s(g136
S'ADVDAPP'
tp453
F2
s(S'MP'
S'AMAP'
tp454
F1
s(g249
S'ADVMDP'
tp455
F2
s(S'CP'
p456
S'CDDADVPP'
tp457
F3
s(g285
S'CCCDDP'
tp458
F1
s(g218
S'ADP'
tp459
F130
s(S'MP'
S'MVADVDDP'
tp460
F1
s(S'NP'
S'NAMMP'
tp461
F1
s(g456
S'CADVDDPPP'
tp462
F2
s(g444
S'DDAVP'
tp463
F1
s(S'PP'
S'APVVP'
tp464
F2
s(g134
S'ADVDAAPP'
tp465
F1
s(S'DP'
S'DAAAPP'
tp466
F1
s(g187
S'ADVADVVNNP'
tp467
F1
s(g268
S'AVDP'
tp468
F11
s(g9
S'VVAP'
tp469
F31
s(S'CP'
S'CDDDAPP'
tp470
F1
s(S'AP'
S'AAAACCP'
tp471
F1
s(S'PP'
S'PADVADVDP'
tp472
F4
s(S'VP'
p473
S'AAVNNP'
tp474
F1
s(S'VP'
S'VVVVADVDP'
tp475
F1
s(g439
S'NADVADVDP'
tp476
F2
s(S'PP'
S'PPPPNP'
tp477
F1
s(g66
S'NVP'
tp478
F173
s(g157
S'PPVVVP'
tp479
F2
s(S'PP'
p480
S'PAAVP'
tp481
F3
s(S'NP'
S'NAAPP'
tp482
F1
s(S'PP'
p483
S'PPPPVP'
tp484
F1
s(g24
S'CADVADVDADVADVAPP'
tp485
F1
s(g46
S'ADVVADVAP'
tp486
F1
s(S'NP'
S'ADVNVP'
tp487
F3
s(S'AP'
S'AAADVDP'
tp488
F1
s(S'NP'
S'AANNVP'
tp489
F1
s(S'NP'
p490
S'AANVVP'
tp491
F2
s(g209
S'NADVADVVVP'
tp492
F1
s(S'NP'
S'ANPP'
tp493
F17
s(g480
S'ADVPPDP'
tp494
F3
s(g81
S'PPPPP'
tp495
F6
s(g265
S'MPDP'
tp496
F13
s(S'PP'
p497
S'ADVADVPDP'
tp498
F1
s(g265
S'MVVPP'
tp499
F4
s(S'NP'
S'NNNCCCCP'
tp500
F1
s(S'PP'
p501
S'PPPNP'
tp502
F2
s(S'AP'
S'AADVADVDP'
tp503
F1
s(g330
S'VVVMP'
tp504
F1
s(S'PP'
S'PADVADVADVADVVP'
tp505
F1
s(S'DP'
p506
S'DDADVADVPPP'
tp507
F1
s(S'NP'
S'NAACP'
tp508
F1
s(g15
S'PNNP'
tp509
F44
s(g214
S'DDAAP'
tp510
F1
s(S'MP'
S'MMNP'
tp511
F6
s(S'MP'
S'MNNCP'
tp512
F1
s(g172
S'AVAP'
tp513
F4
s(g265
S'MMVP'
tp514
F14
s(g483
S'PADVDDP'
tp515
F2
s(g131
S'ADVNCP'
tp516
F17
s(g139
S'AADP'
tp517
F40
s(g238
S'MPDDP'
tp518
F4
s(S'VP'
S'VAPPP'
tp519
F1
s(g359
S'ACDP'
tp520
F20
s(g328
S'VCCP'
tp521
F18
s(S'DP'
S'AAADPPP'
tp522
F1
s(S'MP'
S'MDNNP'
tp523
F1
s(g456
S'CDADVPPP'
tp524
F6
s(S'VP'
S'VAP'
tp525
F113
s(S'VP'
p526
S'VVVVNP'
tp527
F1
s(S'MP'
p528
S'MNVVP'
tp529
F1
s(g71
S'VVADVAP'
tp530
F1
s(S'CP'
S'ADVCDDP'
tp531
F3
s(S'PP'
S'ADVPMP'
tp532
F1
s(g187
S'VADVMP'
tp533
F5
s(g385
S'DDDPPPP'
tp534
F1
s(S'NP'
p535
S'ADVADVADVANVP'
tp536
F1
s(S'AP'
S'AAVVP'
tp537
F2
s(g91
S'PPADVADVADP'
tp538
F1
s(S'DP'
p539
S'DDDPPP'
tp540
F3
s(S'VP'
S'ADVAVDP'
tp541
F1
s(g136
S'ADAP'
tp542
F1
s(S'DP'
S'DADVDP'
tp543
F1
s(S'MP'
S'MVVCCP'
tp544
F1
s(g497
S'AAPPPP'
tp545
F1
s(g526
S'ADVVVDP'
tp546
F4
s(S'DP'
S'DAAAP'
tp547
F1
s(g372
S'PPPVP'
tp548
F1
s(S'AP'
p549
S'AADDP'
tp550
F5
s(g528
S'ADVMAAAP'
tp551
F1
s(S'VP'
S'VAANP'
tp552
F3
s(S'PP'
S'ADVPACP'
tp553
F1
s(g131
S'NADVADVCP'
tp554
F2
s(g57
S'MNAP'
tp555
F3
s(S'PP'
S'ADVPADVANP'
tp556
F1
s(g344
S'MPNP'
tp557
F15
s(S'MP'
p558
S'MVAAPP'
tp559
F2
s(g289
S'MADP'
tp560
F9
s(S'MP'
p561
S'MVADVDP'
tp562
F1
s(S'AP'
S'AMMP'
tp563
F3
s(g207
S'DDADVNP'
tp564
F1
s(g177
S'PANP'
tp565
F15
s(S'PP'
p566
S'PDDDP'
tp567
F1
s(g153
S'DADVADVNNP'
tp568
F2
s(S'MP'
S'MVVPPP'
tp569
F1
s(S'PP'
p570
S'AAPAAP'
tp571
F1
s(S'MP'
p572
S'MPPADDP'
tp573
F1
s(g139
S'AAVP'
tp574
F7
s(g549
S'AVVP'
tp575
F7
s(g141
S'NDDP'
tp576
F23
s(g114
S'CDDADVADVPPP'
tp577
F1
s(S'MP'
p578
S'MAACP'
tp579
F2
s(g549
S'ACCP'
tp580
F2
s(S'PP'
S'PADVADVADVDDP'
tp581
F1
s(S'NP'
S'ADVADVADVADVANMP'
tp582
F1
s(g66
S'NDP'
tp583
F95
s(S'PP'
S'PPPVVVP'
tp584
F1
s(g183
S'DDVP'
tp585
F43
s(g402
S'ANADVADVDP'
tp586
F1
s(S'NP'
S'AANVP'
tp587
F4
s(S'VP'
S'VNNNP'
tp588
F2
s(g187
S'VADVADVPP'
tp589
F1
s(S'PP'
S'ADVPAP'
tp590
F3
s(S'PP'
S'PCP'
tp591
F15
s(g11
S'VADVADP'
tp592
F1
s(g15
S'PAADP'
tp593
F2
s(g209
S'ADVNNVP'
tp594
F2
s(S'NP'
S'NADVCCP'
tp595
F1
s(g83
S'MADVADVVCP'
tp596
F1
s(S'PP'
p597
S'PPPVVP'
tp598
F1
s(g473
S'VADVMMP'
tp599
F1
s(g572
S'MPAP'
tp600
F2
s(g42
S'ADVVVPPP'
tp601
F1
s(S'AP'
S'ADVACP'
tp602
F5
s(S'AP'
S'ADVADVAMP'
tp603
F1
s(S'PP'
p604
S'PAPPP'
tp605
F1
s(g146
S'NNVP'
tp606
F49
s(g55
S'MVCP'
tp607
F8
s(S'CP'
S'CCDDP'
tp608
F14
s(S'NP'
S'NNADVVP'
tp609
F2
s(g439
S'NAAP'
tp610
F9
s(S'DP'
S'AAADNP'
tp611
F1
s(g57
S'MAADDP'
tp612
F1
s(g20
S'NNVVP'
tp613
F15
s(S'NP'
S'NNNNVP'
tp614
F1
s(g59
S'VVCP'
tp615
F15
s(S'CP'
S'CDAAAAPPP'
tp616
F1
s(S'NP'
S'AANCP'
tp617
F2
s(g187
S'VADVNP'
tp618
F9
s(g268
S'VVDDDP'
tp619
F2
s(S'AP'
S'ADVAVVP'
tp620
F2
s(S'MP'
p621
S'MDCP'
tp622
F1
s(g356
S'APPP'
tp623
F2
s(S'VP'
S'ADVADVADVVMP'
tp624
F1
s(S'DP'
S'DDDDPPP'
tp625
F1
s(g558
S'MNNPP'
tp626
F2
s(S'VP'
S'ADVVPP'
tp627
F2
s(g59
S'VVADVANP'
tp628
F2
s(S'CP'
S'CADVADVADVDDPP'
tp629
F1
s(S'VP'
p630
S'VNNP'
tp631
F41
s(g189
S'AADVDP'
tp632
F2
s(S'AP'
S'AAAMP'
tp633
F3
s(g98
S'NADP'
tp634
F4
s(S'DP'
S'DDNP'
tp635
F58
s(g141
S'NADVCP'
tp636
F9
s(g136
S'DDNNP'
tp637
F12
s(g395
S'ADVAVPP'
tp638
F1
s(g73
S'ADVADVNCP'
tp639
F2
s(g112
S'AADPP'
tp640
F2
s(S'DP'
p641
S'DADVADVANP'
tp642
F1
s(S'PP'
S'ADVADVPPDP'
tp643
F1
s(S'AP'
S'AAMMP'
tp644
F2
s(g621
S'MADVDNP'
tp645
F1
s(g229
S'MVAAAP'
tp646
F1
s(S'MP'
S'MADVVDP'
tp647
F2
s(S'MP'
S'MVVNP'
tp648
F5
s(S'DP'
S'ADVDNNP'
tp649
F1
s(S'CP'
S'ACDDP'
tp650
F2
s(S'NP'
S'ADVADVNNCP'
tp651
F1
s(S'AP'
S'AAPP'
tp652
F7
s(S'VP'
S'VVCCP'
tp653
F4
s(S'CP'
S'ADVCAADP'
tp654
F1
s(g265
S'MVADVADVPP'
tp655
F1
s(S'PP'
S'PADVMP'
tp656
F1
s(g332
S'DADVADVNP'
tp657
F3
s(g621
S'MPPVP'
tp658
F1
s(S'NP'
S'NNPPP'
tp659
F5
s(S'NP'
S'NAPP'
tp660
F9
s(g604
S'APPVP'
tp661
F1
s(g157
S'ADVPPPP'
tp662
F2
s(S'NP'
S'ANCCP'
tp663
F2
s(S'NP'
S'AANPP'
tp664
F1
s(g328
S'VDDDP'
tp665
F7
s(g73
S'NNMP'
tp666
F17
s(S'CP'
S'CADDPP'
tp667
F1
s(g216
S'ADVADVPNP'
tp668
F4
s(S'PP'
S'PPPAP'
tp669
F2
s(S'CP'
S'CDDAPP'
tp670
F1
s(S'VP'
S'VVVPPP'
tp671
F1
s(S'NP'
S'ADVANVVP'
tp672
F1
s(g406
S'ADVADVADVDDNP'
tp673
F1
s(S'MP'
S'MVAP'
tp674
F8
s(S'VP'
S'VADVADVDDP'
tp675
F1
s(g91
S'PVP'
tp676
F158
s(S'MP'
S'MVDDDP'
tp677
F1
s(S'MP'
S'MNAPP'
tp678
F1
s(g271
S'DAAAAPPP'
tp679
F1
s(g558
S'MADVVVDP'
tp680
F1
s(g305
S'VPPPP'
tp681
F1
s(S'NP'
S'ADVNAVP'
tp682
F1
s(g506
S'DVVVP'
tp683
F2
s(g274
S'VCCCCP'
tp684
F1
s(S'NP'
S'ADVADVADVNVP'
tp685
F1
s(S'AP'
S'AAP'
tp686
F2
s(S'PP'
S'PPDDP'
tp687
F5
s(g312
S'AVCP'
tp688
F2
s(g377
S'NAVVP'
tp689
F1
s(g17
S'DPP'
tp690
F201
s(S'CP'
S'CADVADVDDPP'
tp691
F1
s(g17
S'DDPP'
tp692
F89
s(g17
S'DANP'
tp693
F36
s(S'AP'
S'ADVAMP'
tp694
F2
s(g131
S'NADVPP'
tp695
F9
s(S'NP'
S'NNADVADVPP'
tp696
F1
s(S'NP'
S'ADVNVVVP'
tp697
F1
s(S'MP'
S'MMAP'
tp698
F1
s(S'NP'
S'NAAVP'
tp699
F3
s(S'PP'
S'PADVADP'
tp700
F2
s(g490
S'NADVAPP'
tp701
F2
s(S'DP'
p702
S'AADNP'
tp703
F1
s(S'CP'
S'CADVADVADVDPP'
tp704
F1
s(g9
S'VADVCP'
tp705
F5
s(g193
S'APAAP'
tp706
F2
s(g15
S'APPVVVVP'
tp707
F1
s(g73
S'NNNNCP'
tp708
F1
s(S'MP'
S'MDNP'
tp709
F20
s(S'NP'
S'NNAACP'
tp710
F1
s(S'MP'
S'MNAVP'
tp711
F1
s(S'DP'
p712
S'ADDPPP'
tp713
F1
s(S'NP'
S'NNNVVP'
tp714
F1
s(S'VP'
S'VVAAP'
tp715
F1
s(g702
S'DDADVADVVVP'
tp716
F1
s(g86
S'PADVPPP'
tp717
F1
s(S'DP'
p718
S'DCCP'
tp719
F1
s(S'PP'
p720
S'AAPDP'
tp721
F3
s(g718
S'ADVADPP'
tp722
F1
s(g122
S'AVVDP'
tp723
F1
s(g51
S'PDDP'
tp724
F45
s(g238
S'MVDDP'
tp725
F3
s(g720
S'ADVAPNP'
tp726
F2
s(S'NP'
S'NNNADVVP'
tp727
F1
s(S'AP'
S'AADVDDP'
tp728
F1
s(S'NP'
S'ADVNNCP'
tp729
F2
s(S'AP'
S'ADVADVACP'
tp730
F1
s(S'PP'
S'ADVADVADVPNP'
tp731
F1
s(g439
S'NNP'
tp732
F3
s(g11
S'VVDDP'
tp733
F9
s(g33
S'DAANP'
tp734
F4
s(g265
S'MDADVNP'
tp735
F1
s(g254
S'ADDP'
tp736
F36
s(S'DP'
S'DDAADVAVVP'
tp737
F1
s(S'PP'
S'ADVPPNP'
tp738
F3
s(S'NP'
S'ADVADVNVVP'
tp739
F1
s(S'DP'
S'DDADVADVVP'
tp740
F1
s(S'VP'
S'VVVCP'
tp741
F1
s(S'MP'
S'MDAP'
tp742
F1
s(S'CP'
S'CADVADVDPP'
tp743
F2
s(g17
S'DPPP'
tp744
F90
s(g298
S'NADVADVAAP'
tp745
F1
s(g6
S'DAVVP'
tp746
F1
s(S'DP'
S'AADPPP'
tp747
F2
s(g570
S'ADVADVPPNP'
tp748
F2
s(g368
S'ADVPNP'
tp749
F6
s(g13
S'PPDP'
tp750
F49
s(g63
S'MAVDP'
tp751
F1
s(S'DP'
p752
S'ADVDCP'
tp753
F1
s(S'DP'
S'DDPPPP'
tp754
F1
s(g79
S'AMADVVP'
tp755
F1
s(g127
S'ADVVVADVDP'
tp756
F1
s(S'VP'
S'VAADP'
tp757
F1
s(S'MP'
S'ADVADVMMNP'
tp758
F1
s(S'NP'
S'NADVADVADVPP'
tp759
F1
s(S'DP'
S'ADVDDNNP'
tp760
F1
s(S'AP'
S'AAPPP'
tp761
F2
s(g712
S'DDCP'
tp762
F3
s(S'PP'
S'PAANNP'
tp763
F1
s(S'PP'
p764
S'PPADVDDP'
tp765
F1
s(S'AP'
S'AAAPP'
tp766
F1
s(S'MP'
S'MNCCP'
tp767
F3
s(S'NP'
S'NAP'
tp768
F71
s(g630
S'VAAAP'
tp769
F6
s(g268
S'VVP'
tp770
F51
s(S'MP'
S'MDNNNP'
tp771
F1
s(g242
S'DDAPP'
tp772
F2
s(g139
S'AAADP'
tp773
F8
s(g166
S'APNP'
tp774
F11
s(S'VP'
p775
S'VVVNNP'
tp776
F2
s(S'DP'
S'DDDAPP'
tp777
F1
s(S'DP'
S'DDVVP'
tp778
F6
s(S'AP'
S'AAADDP'
tp779
F1
s(g71
S'VVVNP'
tp780
F9
s(g55
S'MNPP'
tp781
F6
s(g68
S'NAMP'
tp782
F5
s(S'AP'
S'ADVADVAAPP'
tp783
F1
s(S'MP'
S'MVANP'
tp784
F1
s(g53
S'ADVADVDDPP'
tp785
F2
s(S'MP'
S'MVNNP'
tp786
F2
s(g337
S'CDPP'
tp787
F188
s(S'DP'
S'ADVDNP'
tp788
F9
s(S'AP'
S'ADDDP'
tp789
F1
s(S'CP'
p790
S'ADVCADP'
tp791
F1
s(g539
S'ADVDVVP'
tp792
F1
s(g790
S'ADVCDP'
tp793
F11
s(S'VP'
S'ADVADVVNP'
tp794
F2
s(S'MP'
S'MNPPP'
tp795
F1
s(g59
S'ADVADVVCP'
tp796
F1
s(g305
S'VADVADVDP'
tp797
F1
s(g193
S'PPNNP'
tp798
F13
s(S'CP'
S'CDAAAPP'
tp799
F1
s(g597
S'PPMP'
tp800
F1
s(g134
S'ADDNNNP'
tp801
F1
s(g506
S'ADVADVDPP'
tp802
F4
s(g71
S'VDP'
tp803
F166
s(g131
S'NADVAP'
tp804
F5
s(g526
S'AVDDP'
tp805
F3
s(S'CP'
S'ADVADVCDDP'
tp806
F1
s(g53
S'DAP'
tp807
F36
s(g359
S'CADPP'
tp808
F12
s(g539
S'ADVADVDVVP'
tp809
F1
s(g379
S'NADVAVP'
tp810
F1
s(g91
S'PPAVP'
tp811
F1
s(S'MP'
S'MADVPPDP'
tp812
F1
s(g232
S'AVPP'
tp813
F2
s(g88
S'NADVADVMP'
tp814
F1
s(S'CP'
S'CAADPPP'
tp815
F1
s(g227
S'AAVCP'
tp816
F1
s(g238
S'AMNP'
tp817
F2
s(S'MP'
S'AMVVP'
tp818
F1
s(S'CP'
S'CDADVADVPP'
tp819
F2
s(S'CP'
S'CDDPPPPP'
tp820
F1
s(g790
S'CDPPPP'
tp821
F2
s(S'VP'
S'VADVADVCCP'
tp822
F1
s(S'VP'
S'AAVDP'
tp823
F1
s(S'VP'
S'ADVADVADVADVVPP'
tp824
F1
s(g426
S'ADVANMP'
tp825
F2
s(g29
S'NNDDP'
tp826
F2
s(S'DP'
S'ADPPPP'
tp827
F1
s(g444
S'DAPPP'
tp828
F1
s(g752
S'DADVADVPP'
tp829
F3
s(g506
S'DMP'
tp830
F4
s(S'CP'
p831
S'CCADP'
tp832
F1
s(g325
S'ADVDPP'
tp833
F21
s(g66
S'NPP'
tp834
F140
s(g216
S'PADVADVNP'
tp835
F3
s(g287
S'CADVDAAPP'
tp836
F1
s(g53
S'ADPP'
tp837
F17
s(S'AP'
S'AAAAVP'
tp838
F1
s(S'VP'
S'VADVPP'
tp839
F1
s(g134
S'DDAAPP'
tp840
F1
s(g641
S'ADVDANP'
tp841
F1
s(g413
S'PVVVVP'
tp842
F1
s(g125
S'ADVPVP'
tp843
F10
s(S'NP'
S'NADVADVADVVVP'
tp844
F1
s(S'NP'
S'ADVNADVDP'
tp845
F1
s(S'NP'
S'NNVVVP'
tp846
F2
s(g204
S'ADVVANP'
tp847
F2
s(S'PP'
S'ADVPDP'
tp848
F11
s(g73
S'ADVNNPP'
tp849
F1
s(S'AP'
S'ADVAAMP'
tp850
F1
s(S'MP'
S'MVADVAP'
tp851
F1
s(g66
S'NCP'
tp852
F175
s(S'CP'
S'CADVDPPP'
tp853
F3
s(S'VP'
S'ADVVVPP'
tp854
F1
s(S'AP'
S'AAAP'
tp855
F1
s(S'CP'
S'CCCADVDDP'
tp856
F2
s(S'AP'
S'AAMP'
tp857
F8
s(S'PP'
S'PPAAAP'
tp858
F1
s(g501
S'ADVPDDP'
tp859
F1
s(g578
S'MVCCP'
tp860
F2
s(g444
S'DADVNNP'
tp861
F1
s(g235
S'NNCCP'
tp862
F9
s(S'MP'
S'MNVP'
tp863
F13
s(S'CP'
S'ADVADVCCDP'
tp864
F1
s(g426
S'NNPP'
tp865
F34
s(g330
S'VAPP'
tp866
F6
s(g441
S'VDDP'
tp867
F41
s(S'MP'
S'MAVNP'
tp868
F1
s(g71
S'ADVVDP'
tp869
F10
s(S'VP'
S'VADDP'
tp870
F1
s(g444
S'DADVPP'
tp871
F28
s(S'AP'
p872
S'AMP'
tp873
F37
s(g265
S'ADVMNP'
tp874
F1
s(g164
S'MADVVDDP'
tp875
F1
s(S'DP'
S'ADVDAP'
tp876
F1
s(g764
S'PPADDP'
tp877
F1
s(g292
S'AACDP'
tp878
F2
s(S'CP'
S'CCDDDP'
tp879
F3
s(g790
S'CCADVADVDDP'
tp880
F2
s(S'DP'
S'ADVDPPP'
tp881
F4
s(g17
S'DVP'
tp882
F154
s(g328
S'ADVVAP'
tp883
F4
s(g73
S'ADVNPP'
tp884
F6
s(S'VP'
S'ADVADVADVVVNP'
tp885
F1
s(g73
S'NNCCCP'
tp886
F2
s(g872
S'AVP'
tp887
F44
s(g141
S'NADVVP'
tp888
F17
s(S'NP'
S'NNADVADVVP'
tp889
F1
s(g17
S'DDPPP'
tp890
F17
s(g73
S'ADVNMP'
tp891
F3
s(S'NP'
S'NNAP'
tp892
F8
s(g561
S'MADVVCP'
tp893
F1
s(g392
S'PPANP'
tp894
F2
s(S'MP'
S'MCDDP'
tp895
F1
s(g831
S'CDADVPP'
tp896
F18
s(g71
S'VNP'
tp897
F166
s(S'PP'
S'ADVPMMP'
tp898
F1
s(g268
S'VANP'
tp899
F16
s(S'MP'
S'MAANCP'
tp900
F1
s(g775
S'VADVAP'
tp901
F8
s(g566
S'PPADVNP'
tp902
F1
s(g109
S'ADVADVVVDP'
tp903
F2
s(g535
S'NADVPPP'
tp904
F1
s.