ccollections
defaultdict
p1
(c__builtin__
float
p2
tRp3
(S'DP'
p4
S'DDPP'
tp5
F1
s(S'VP'
p6
S'ADVADVVAP'
tp7
F1
s(S'DP'
p8
S'DANP'
tp9
F4
s(g6
S'AVVP'
tp10
F1
s(S'NP'
p11
S'ANPP'
tp12
F3
s(S'VP'
p13
S'ADVVVNP'
tp14
F1
s(S'VP'
p15
S'VAAP'
tp16
F1
s(S'VP'
p17
S'VADVCP'
tp18
F1
s(g11
S'ANDP'
tp19
F1
s(g11
S'NVVP'
tp20
F2
s(S'DP'
p21
S'DNP'
tp22
F12
s(S'PP'
p23
S'PNNP'
tp24
F3
s(g23
S'APNNP'
tp25
F1
s(S'CP'
S'CDPPP'
tp26
F1
s(S'DP'
p27
S'ADNP'
tp28
F2
s(g15
S'AVAP'
tp29
F2
s(S'PP'
p30
S'PADVDDP'
tp31
F1
s(S'PP'
p32
S'PADP'
tp33
F3
s(S'PP'
p34
S'PDDP'
tp35
F2
s(g6
S'VAVP'
tp36
F1
s(S'DP'
p37
S'DAPP'
tp38
F2
s(S'CP'
S'CDADVPPP'
tp39
F1
s(S'VP'
p40
S'VAP'
tp41
F5
s(S'PP'
p42
S'APVP'
tp43
F1
s(S'DP'
p44
S'DDDPP'
tp45
F1
s(S'AP'
S'ADDP'
tp46
F2
s(S'DP'
p47
S'DADVVP'
tp48
F1
s(g34
S'ADVPPNP'
tp49
F1
s(S'DP'
p50
S'DPPP'
tp51
F3
s(g11
S'NADVVVP'
tp52
F1
s(g15
S'VCP'
tp53
F3
s(S'NP'
p54
S'NMMP'
tp55
F2
s(g32
S'PAP'
tp56
F4
s(S'VP'
p57
S'VADVAVP'
tp58
F1
s(g23
S'PPDP'
tp59
F4
s(S'NP'
S'NNPP'
tp60
F1
s(S'NP'
S'NNNPPPPP'
tp61
F1
s(S'PP'
p62
S'PNP'
tp63
F11
s(g40
S'VVVVDDDP'
tp64
F1
s(g21
S'DDP'
tp65
F4
s(g27
S'ADVDDVP'
tp66
F1
s(S'MP'
S'MADVADVVAP'
tp67
F1
s(S'NP'
S'AANMP'
tp68
F1
s(S'AP'
p69
S'AAVP'
tp70
F1
s(S'NP'
p71
S'NMP'
tp72
F2
s(S'CP'
S'CDAAPP'
tp73
F1
s(S'NP'
p74
S'NDP'
tp75
F3
s(g57
S'ADVAVNP'
tp76
F1
s(g32
S'PVP'
tp77
F7
s(g37
S'DDVP'
tp78
F3
s(S'PP'
S'PDP'
tp79
F14
s(S'MP'
S'MMADVVVP'
tp80
F1
s(g42
S'APNP'
tp81
F2
s(g62
S'PPP'
tp82
F5
s(g74
S'NAVP'
tp83
F1
s(g23
S'PCP'
tp84
F1
s(S'CP'
S'CDPP'
tp85
F10
s(g69
S'AADVVP'
tp86
F1
s(g50
S'DDANP'
tp87
F1
s(S'VP'
S'VPP'
tp88
F7
s(g47
S'DNNP'
tp89
F1
s(S'CP'
p90
S'ADVCDP'
tp91
F2
s(g11
S'NNVP'
tp92
F2
s(S'CP'
S'CDAPP'
tp93
F1
s(S'NP'
p94
S'NNCP'
tp95
F3
s(S'DP'
S'AADNNNP'
tp96
F1
s(S'NP'
p97
S'NCP'
tp98
F10
s(g27
S'DAAPP'
tp99
F1
s(S'DP'
p100
S'DADVPPP'
tp101
F1
s(S'VP'
S'AVNP'
tp102
F1
s(g100
S'DADVADVADVNNP'
tp103
F1
s(g23
S'PPAP'
tp104
F3
s(g71
S'NNVVP'
tp105
F1
s(g50
S'DAP'
tp106
F2
s(g15
S'VDP'
tp107
F6
s(g23
S'ADVPPP'
tp108
F1
s(g13
S'VNNP'
tp109
F1
s(S'CP'
S'CADVDPP'
tp110
F2
s(g17
S'AAVDP'
tp111
F1
s(g100
S'DDNP'
tp112
F1
s(g94
S'ANCP'
tp113
F2
s(g30
S'AAPPP'
tp114
F1
s(g4
S'ADVDPP'
tp115
F2
s(g15
S'ADVVNNP'
tp116
F1
s(S'AP'
S'AADVCP'
tp117
F1
s(g23
S'ADVPVP'
tp118
F1
s(g17
S'VVDP'
tp119
F4
s(g11
S'NPPP'
tp120
F5
s(S'DP'
S'DAVP'
tp121
F3
s(S'VP'
S'ADVVPP'
tp122
F2
s(S'AP'
S'ACP'
tp123
F3
s(g17
S'ADVVVPP'
tp124
F1
s(g34
S'PPNP'
tp125
F3
s(S'VP'
S'VAADP'
tp126
F1
s(S'MP'
S'MADVVPP'
tp127
F1
s(g34
S'PADVVP'
tp128
F1
s(S'AP'
S'ADP'
tp129
F6
s(g54
S'NAPP'
tp130
F2
s(S'AP'
S'APP'
tp131
F3
s(g37
S'DADVPP'
tp132
F1
s(g37
S'DAAVP'
tp133
F1
s(g44
S'DVVVVP'
tp134
F1
s(g40
S'AVDP'
tp135
F2
s(g97
S'ANVP'
tp136
F1
s(S'PP'
S'PPPPAAADDP'
tp137
F1
s(g44
S'DVP'
tp138
F6
s(S'MP'
S'MVNP'
tp139
F1
s(g34
S'PAVP'
tp140
F1
s(g15
S'ADVVPPP'
tp141
F1
s(g37
S'DDPPP'
tp142
F1
s(g97
S'NPP'
tp143
F12
s(g13
S'VAPP'
tp144
F1
s(S'NP'
S'NVP'
tp145
F7
s(g90
S'CDADVPP'
tp146
F1
s(S'VP'
S'VNP'
tp147
F7
s(g17
S'VANP'
tp148
F1
s(g17
S'VDDP'
tp149
F1
s(S'PP'
S'PPDDP'
tp150
F1
s(g94
S'ADVADVADVNNPP'
tp151
F1
s(S'PP'
S'APDDP'
tp152
F1
s(g8
S'DPP'
tp153
F11
s.