ccollections
defaultdict
p1
(c__builtin__
float
p2
tRp3
(S'DP'
S'DADVAPP'
tp4
F1
s(S'MP'
S'MMDP'
tp5
F1
s(S'AP'
S'AADVPPP'
tp6
F1
s(S'DP'
S'ADVDAAVP'
tp7
F1
s(S'VP'
p8
S'ADVVVNP'
tp9
F2
s(S'CP'
p10
S'CCDDDDP'
tp11
F1
s(S'NP'
S'ADVNAPP'
tp12
F1
s(S'DP'
S'DDPPPPP'
tp13
F1
s(S'DP'
S'DNP'
tp14
F94
s(S'NP'
p15
S'ADVNDP'
tp16
F1
s(S'PP'
S'AAPDDP'
tp17
F1
s(S'CP'
p18
S'CDPPP'
tp19
F23
s(S'PP'
p20
S'ADVPPANP'
tp21
F1
s(S'VP'
p22
S'VADP'
tp23
F9
s(S'NP'
p24
S'ADVNCCP'
tp25
F2
s(S'PP'
p26
S'PPPPPP'
tp27
F2
s(S'VP'
S'VAVP'
tp28
F1
s(S'MP'
p29
S'MDVP'
tp30
F1
s(S'PP'
p31
S'APVP'
tp32
F11
s(S'CP'
p33
S'AACADVDP'
tp34
F1
s(S'MP'
S'MVDP'
tp35
F8
s(S'PP'
p36
S'PPPP'
tp37
F15
s(S'DP'
p38
S'DDDNP'
tp39
F3
s(S'VP'
p40
S'VACP'
tp41
F2
s(S'AP'
S'AAAVP'
tp42
F1
s(S'VP'
S'ADVVVANP'
tp43
F1
s(S'PP'
p44
S'PADVNNP'
tp45
F2
s(S'NP'
S'NADVACP'
tp46
F1
s(S'NP'
p47
S'NADVVVP'
tp48
F6
s(S'VP'
p49
S'VCP'
tp50
F38
s(S'NP'
p51
S'NMMP'
tp52
F3
s(S'DP'
p53
S'DDDNNP'
tp54
F1
s(g31
S'PAP'
tp55
F46
s(S'PP'
S'ADVPPVP'
tp56
F3
s(S'PP'
p57
S'APVVP'
tp58
F2
s(S'PP'
S'PPADVDP'
tp59
F1
s(g40
S'VAAVP'
tp60
F1
s(S'PP'
p61
S'PNP'
tp62
F77
s(S'NP'
p63
S'ADVADVADVNNCP'
tp64
F1
s(S'DP'
p65
S'DDP'
tp66
F19
s(S'NP'
S'NNNPP'
tp67
F1
s(S'NP'
S'NNDP'
tp68
F6
s(S'PP'
p69
S'ADVPCP'
tp70
F1
s(S'VP'
S'ADVADVVVCP'
tp71
F1
s(S'NP'
p72
S'NMP'
tp73
F25
s(S'PP'
S'PAPP'
tp74
F5
s(S'VP'
p75
S'AAVNP'
tp76
F2
s(S'VP'
p77
S'VMMP'
tp78
F1
s(S'PP'
S'PDP'
tp79
F91
s(g57
S'PADVNP'
tp80
F6
s(S'CP'
S'CDADVADVPP'
tp81
F1
s(S'NP'
p82
S'ADVNVVP'
tp83
F2
s(g40
S'AVAAP'
tp84
F1
s(S'NP'
p85
S'NADVADVADVVP'
tp86
F1
s(S'VP'
S'AAVPP'
tp87
F1
s(S'PP'
S'PPADVAP'
tp88
F1
s(S'DP'
S'DPPPP'
tp89
F7
s(S'DP'
S'DDANP'
tp90
F3
s(g82
S'NACP'
tp91
F18
s(S'AP'
S'ADVAVP'
tp92
F2
s(g24
S'NCCP'
tp93
F19
s(S'NP'
S'ANVP'
tp94
F5
s(S'AP'
S'AAAADP'
tp95
F1
s(S'VP'
S'VVVVVP'
tp96
F1
s(g82
S'NNCP'
tp97
F19
s(S'DP'
p98
S'ADVDDPP'
tp99
F5
s(g15
S'NNPPPP'
tp100
F1
s(S'DP'
p101
S'DDDDP'
tp102
F1
s(S'DP'
p103
S'DDAPP'
tp104
F3
s(S'VP'
p105
S'VVADP'
tp106
F1
s(S'VP'
S'VADVVP'
tp107
F3
s(S'MP'
S'MVAPP'
tp108
F1
s(S'PP'
p109
S'ADVPAPP'
tp110
F1
s(g33
S'CCCDP'
tp111
F1
s(g22
S'ADVVAP'
tp112
F6
s(S'PP'
S'APDP'
tp113
F16
s(S'NP'
S'NNNAAP'
tp114
F1
s(S'AP'
S'AADVCP'
tp115
F1
s(S'MP'
S'MVADVNP'
tp116
F2
s(S'PP'
p117
S'PPPPMP'
tp118
F1
s(S'DP'
S'DAAP'
tp119
F1
s(S'NP'
S'ADVANCP'
tp120
F2
s(S'DP'
p121
S'DNNP'
tp122
F19
s(S'CP'
p123
S'CADVDDPP'
tp124
F3
s(S'DP'
S'DPPPPP'
tp125
F2
s(S'CP'
S'CDDPPPP'
tp126
F1
s(S'CP'
S'CCADVDP'
tp127
F1
s(S'PP'
S'PPAADP'
tp128
F1
s(S'VP'
S'VVACP'
tp129
F1
s(S'VP'
S'AAVDDP'
tp130
F1
s(S'NP'
p131
S'NNNVP'
tp132
F2
s(S'VP'
p133
S'VDP'
tp134
F83
s(S'PP'
p135
S'PADVVP'
tp136
F4
s(S'PP'
p137
S'PPADVADVADVDDP'
tp138
F1
s(S'PP'
S'APAP'
tp139
F1
s(S'AP'
p140
S'APP'
tp141
F20
s(S'NP'
p142
S'NADVMP'
tp143
F1
s(S'PP'
p144
S'PPADP'
tp145
F1
s(S'CP'
p146
S'CADVADPP'
tp147
F1
s(S'NP'
S'ADVANPP'
tp148
F1
s(S'MP'
p149
S'MVVCP'
tp150
F1
s(S'DP'
p151
S'DAAVP'
tp152
F3
s(S'CP'
S'CDDDDPP'
tp153
F1
s(S'PP'
p154
S'PAANP'
tp155
F2
s(S'PP'
p156
S'PPVVP'
tp157
F2
s(g29
S'MVNP'
tp158
F7
s(S'MP'
S'AMVP'
tp159
F1
s(S'CP'
S'ACADDP'
tp160
F1
s(S'AP'
p161
S'ADVAADP'
tp162
F1
s(S'DP'
p163
S'ADVADNP'
tp164
F1
s(S'PP'
S'PAVP'
tp165
F5
s(S'MP'
p166
S'ADVMVP'
tp167
F3
s(S'VP'
p168
S'VVVPP'
tp169
F2
s(S'PP'
p170
S'APPPP'
tp171
F2
s(S'DP'
S'DADP'
tp172
F2
s(S'CP'
S'ADVADVCDP'
tp173
F1
s(S'VP'
S'VVADVPP'
tp174
F1
s(g31
S'APDDP'
tp175
F3
s(S'DP'
p176
S'DDVVVVP'
tp177
F1
s(S'NP'
S'ADVNAP'
tp178
F1
s(S'VP'
S'ADVVNP'
tp179
F1
s(g133
S'VVNP'
tp180
F9
s(S'PP'
p181
S'ADVPPPP'
tp182
F1
s(S'PP'
p183
S'PPVP'
tp184
F16
s(S'VP'
p185
S'VADVDP'
tp186
F7
s(g101
S'DDDPP'
tp187
F2
s(S'VP'
S'VAAP'
tp188
F8
s(S'NP'
S'ANDP'
tp189
F4
s(S'NP'
p190
S'NVVP'
tp191
F11
s(S'PP'
p192
S'AAPVP'
tp193
F1
s(S'AP'
p194
S'AAP'
tp195
F1
s(S'VP'
S'VMP'
tp196
F2
s(S'CP'
S'CDAPP'
tp197
F8
s(S'VP'
p198
S'VVAAP'
tp199
F2
s(S'DP'
p200
S'ADNP'
tp201
F7
s(g44
S'PPADVMP'
tp202
F1
s(g135
S'PADP'
tp203
F9
s(S'VP'
p204
S'ADVVVCP'
tp205
F1
s(S'NP'
S'ANAAP'
tp206
F1
s(S'AP'
p207
S'AAADVADVDP'
tp208
F1
s(g65
S'DAPP'
tp209
F16
s(g75
S'AVVP'
tp210
F2
s(S'VP'
p211
S'ADVADVVDP'
tp212
F1
s(g57
S'PPPDP'
tp213
F3
s(g77
S'ADVAVVVP'
tp214
F1
s(S'MP'
p215
S'MVVAP'
tp216
F2
s(S'DP'
S'DADVANP'
tp217
F1
s(g176
S'ADANNP'
tp218
F1
s(S'DP'
p219
S'ADVDNP'
tp220
F6
s(S'VP'
p221
S'VVPP'
tp222
F9
s(g192
S'ADVPAAPP'
tp223
F1
s(S'MP'
S'MVPP'
tp224
F14
s(S'DP'
p225
S'ADVP'
tp226
F1
s(S'MP'
S'MVADP'
tp227
F1
s(g18
S'CDDPPP'
tp228
F5
s(S'NP'
p229
S'NNPP'
tp230
F7
s(S'DP'
p231
S'DADVPPP'
tp232
F7
s(g142
S'NNNMMP'
tp233
F1
s(S'VP'
S'VVADVCCP'
tp234
F1
s(S'DP'
S'DNNNP'
tp235
F3
s(g219
S'ADVDDVP'
tp236
F2
s(g137
S'PADVADVVP'
tp237
F1
s(g105
S'VADVDDP'
tp238
F4
s(S'PP'
S'PMMP'
tp239
F2
s(g135
S'PVVVP'
tp240
F3
s(S'PP'
S'PMP'
tp241
F13
s(S'CP'
p242
S'CCDP'
tp243
F31
s(g24
S'ADVNNDP'
tp244
F2
s(S'DP'
S'ADVADVADVDPP'
tp245
F1
s(S'VP'
S'VADVANP'
tp246
F2
s(S'DP'
S'AADDPP'
tp247
F1
s(S'NP'
p248
S'NVVVP'
tp249
F2
s(S'CP'
S'CDDDPP'
tp250
F1
s(S'CP'
p251
S'CDAAPP'
tp252
F4
s(S'VP'
p253
S'VVVDP'
tp254
F3
s(S'PP'
S'PNNNP'
tp255
F3
s(g154
S'PADVADVADVNNP'
tp256
F1
s(S'PP'
S'AAPNP'
tp257
F2
s(g36
S'PADVVVP'
tp258
F2
s(g31
S'PPP'
tp259
F58
s(S'VP'
S'ADVVVVCCP'
tp260
F1
s(g248
S'NAVP'
tp261
F4
s(S'PP'
p262
S'PADVAP'
tp263
F2
s(S'DP'
S'DDNNNP'
tp264
F1
s(S'VP'
S'ADVVAPP'
tp265
F1
s(S'DP'
S'ADVDVP'
tp266
F3
s(S'NP'
S'NCCCP'
tp267
F2
s(g140
S'AADVVP'
tp268
F1
s(S'DP'
S'ADVADVDNP'
tp269
F1
s(S'CP'
S'CADPP'
tp270
F13
s(S'VP'
S'VPP'
tp271
F68
s(S'CP'
S'ADVCCDP'
tp272
F3
s(g53
S'ADVDDNP'
tp273
F3
s(S'NP'
p274
S'NNNCP'
tp275
F3
s(S'PP'
S'PADVDP'
tp276
F3
s(S'CP'
p277
S'CDADVAPP'
tp278
F1
s(S'CP'
S'CDDDPPP'
tp279
F1
s(S'MP'
S'MADVVAP'
tp280
F2
s(S'CP'
S'CDDPP'
tp281
F20
s(S'DP'
p282
S'DAAPP'
tp283
F5
s(g61
S'PVVP'
tp284
F11
s(S'CP'
p285
S'CADPPP'
tp286
F3
s(S'AP'
S'AACP'
tp287
F4
s(g49
S'ADVVCP'
tp288
F2
s(g221
S'VPPP'
tp289
F12
s(g8
S'AVCCP'
tp290
F2
s(S'VP'
p291
S'VVPPP'
tp292
F1
s(S'PP'
p293
S'PPAP'
tp294
F5
s(g231
S'DVVP'
tp295
F10
s(S'VP'
p296
S'VVAPPP'
tp297
F1
s(S'NP'
S'ANMP'
tp298
F5
s(S'AP'
S'APPP'
tp299
F2
s(g38
S'ADVVP'
tp300
F2
s(g291
S'VVVP'
tp301
F1
s(g103
S'DDPPPP'
tp302
F2
s(g69
S'ADVAPPPP'
tp303
F1
s(g15
S'ANCP'
tp304
F16
s(g219
S'DCP'
tp305
F2
s(S'VP'
p306
S'ADVVCCP'
tp307
F1
s(S'NP'
S'NNVVVVP'
tp308
F1
s(g65
S'DDDP'
tp309
F5
s(S'DP'
S'DDADVPP'
tp310
F2
s(S'NP'
S'ANVVP'
tp311
F2
s(g49
S'VVDP'
tp312
F16
s(S'NP'
p313
S'NPPP'
tp314
F13
s(g103
S'DAVP'
tp315
F8
s(S'NP'
S'NNNMP'
tp316
F1
s(S'AP'
p317
S'ACP'
tp318
F22
s(g144
S'AAPAP'
tp319
F1
s(g31
S'PPNP'
tp320
F19
s(S'VP'
p321
S'VVVVNNP'
tp322
F1
s(S'CP'
p323
S'CDDADVPP'
tp324
F1
s(g277
S'CCCDDP'
tp325
F1
s(S'AP'
S'ADP'
tp326
F47
s(S'CP'
S'CADVDPP'
tp327
F9
s(g24
S'ANPPP'
tp328
F1
s(g317
S'AAADP'
tp329
F2
s(S'NP'
p330
S'ANNVP'
tp331
F1
s(g8
S'VVAP'
tp332
F5
s(S'NP'
p333
S'NNAPP'
tp334
F1
s(S'CP'
S'CDDDAPP'
tp335
F1
s(S'PP'
S'PADVADVDP'
tp336
F1
s(g40
S'AAVCP'
tp337
F2
s(S'PP'
S'PADVMP'
tp338
F1
s(g229
S'NNADVCCP'
tp339
F1
s(g72
S'NPP'
tp340
F69
s(S'PP'
S'PPPPNP'
tp341
F1
s(g82
S'NVP'
tp342
F66
s(S'PP'
p343
S'PPADVADVADVAAP'
tp344
F1
s(g181
S'PAAVP'
tp345
F1
s(S'NP'
S'NAAPP'
tp346
F1
s(S'VP'
p347
S'VDDP'
tp348
F18
s(S'AP'
S'ADVADVADVAADP'
tp349
F1
s(S'NP'
p350
S'NADVADVVVP'
tp351
F1
s(S'NP'
S'ANPP'
tp352
F10
s(S'PP'
p353
S'ADVPPDP'
tp354
F1
s(g36
S'PPPPP'
tp355
F3
s(g219
S'ADVDPP'
tp356
F13
s(S'VP'
p357
S'ADVVADVADVNP'
tp358
F1
s(g85
S'ADVADVNPP'
tp359
F1
s(S'NP'
S'NPPPP'
tp360
F2
s(S'DP'
p361
S'ADDP'
tp362
F1
s(S'PP'
S'PADVADVADVADVVP'
tp363
F1
s(g282
S'DDADVADVPPP'
tp364
F1
s(g333
S'NAACP'
tp365
F1
s(g135
S'PNNP'
tp366
F23
s(g190
S'NNNAPP'
tp367
F1
s(S'MP'
S'MMNP'
tp368
F1
s(S'VP'
S'VVAACP'
tp369
F1
s(g185
S'AVAP'
tp370
F3
s(g166
S'MMVP'
tp371
F4
s(g36
S'PADVDDP'
tp372
F2
s(g15
S'ADVNCP'
tp373
F3
s(S'AP'
S'AADP'
tp374
F19
s(S'MP'
S'MPDDP'
tp375
F1
s(g146
S'ACDP'
tp376
F20
s(g293
S'PAAP'
tp377
F8
s(g274
S'NNACP'
tp378
F1
s(S'CP'
p379
S'CDADVPPP'
tp380
F5
s(g49
S'VAP'
tp381
F43
s(S'VP'
S'VVVVNP'
tp382
F1
s(S'VP'
S'VVADVAP'
tp383
F2
s(g10
S'ADVCDDP'
tp384
F1
s(S'MP'
S'MVVAPPP'
tp385
F1
s(S'VP'
p386
S'VVPPPPP'
tp387
F1
s(S'DP'
p388
S'DDDPPP'
tp389
F1
s(g386
S'ADVAVDP'
tp390
F1
s(g225
S'ADAP'
tp391
F1
s(S'AP'
S'AAVP'
tp392
F2
s(S'AP'
S'AAACP'
tp393
F1
s(S'VP'
S'ADVVVDP'
tp394
F1
s(S'PP'
S'PPPVP'
tp395
F2
s(S'AP'
S'AADDP'
tp396
F2
s(S'VP'
S'VAANP'
tp397
F1
s(S'NP'
S'NADVADVCP'
tp398
F1
s(g20
S'PAAAAP'
tp399
F1
s(S'CP'
S'CCAADP'
tp400
F1
s(S'PP'
S'PANP'
tp401
F11
s(S'DP'
S'AADNP'
tp402
F2
s(S'NP'
S'ANDDDP'
tp403
F1
s(S'NP'
S'NAAP'
tp404
F7
s(S'NP'
p405
S'NDDP'
tp406
F1
s(g251
S'CDDADVADVPPP'
tp407
F1
s(S'MP'
S'MVADVDP'
tp408
F1
s(S'AP'
S'ACCP'
tp409
F2
s(g253
S'AVPPP'
tp410
F3
s(g72
S'NDP'
tp411
F30
s(S'MP'
S'MVAAP'
tp412
F1
s(g151
S'DDVP'
tp413
F11
s(g105
S'VNNNP'
tp414
F2
s(S'NP'
S'ADVNADVVVVP'
tp415
F1
s(g117
S'ADVPPADVDP'
tp416
F1
s(g36
S'PCP'
tp417
F5
s(g291
S'VADVADP'
tp418
F1
s(S'CP'
S'ACADVDDP'
tp419
F1
s(S'PP'
S'PAADP'
tp420
F1
s(S'NP'
p421
S'ADVNNVP'
tp422
F1
s(S'VP'
p423
S'VPPPP'
tp424
F1
s(S'NP'
S'ADVNNPP'
tp425
F1
s(g185
S'VCCP'
tp426
F6
s(S'AP'
S'ADVACP'
tp427
F2
s(g405
S'ADVADVNMP'
tp428
F1
s(g163
S'ADPPP'
tp429
F6
s(S'MP'
S'MVCP'
tp430
F3
s(S'CP'
S'CCDDP'
tp431
F3
s(g357
S'ADVADVADVVPP'
tp432
F1
s(S'PP'
p433
S'PPAAP'
tp434
F2
s(S'DP'
S'ADADVNNP'
tp435
F1
s(g168
S'VVCP'
tp436
F9
s(g183
S'PADVADVPP'
tp437
F1
s(g63
S'AANCP'
tp438
F3
s(S'VP'
S'VAADP'
tp439
F1
s(S'NP'
p440
S'NNDDP'
tp441
F1
s(g423
S'ADVVPP'
tp442
F1
s(S'VP'
S'ADVVVPPP'
tp443
F1
s(S'AP'
S'AAAADDP'
tp444
F1
s(g40
S'VNNP'
tp445
F5
s(S'AP'
S'AADVDP'
tp446
F1
s(g65
S'DDNP'
tp447
F22
s(S'NP'
p448
S'NADVCP'
tp449
F3
s(S'DP'
S'DDNNP'
tp450
F6
s(g137
S'AAPPP'
tp451
F1
s(S'PP'
S'PADVADVVVP'
tp452
F1
s(g448
S'ADVANVP'
tp453
F1
s(g211
S'AAVNNP'
tp454
F1
s(S'NP'
S'ADVADVNCP'
tp455
F2
s(S'DP'
S'AADPP'
tp456
F2
s(S'PP'
p457
S'ADVADVPPDP'
tp458
F1
s(g323
S'CDPPPPP'
tp459
F1
s(S'MP'
S'MADVVADVADVNP'
tp460
F1
s(g149
S'MVVNP'
tp461
F1
s(S'DP'
S'ADVDNNP'
tp462
F1
s(g379
S'ACDDP'
tp463
F2
s(S'AP'
S'AAPP'
tp464
F5
s(g321
S'VVCCP'
tp465
F1
s(g109
S'APPNP'
tp466
F1
s(S'NP'
S'NNPPP'
tp467
F1
s(g72
S'NAPP'
tp468
F10
s(S'NP'
S'NADVDP'
tp469
F1
s(g291
S'VVVCP'
tp470
F1
s(g350
S'ANCCP'
tp471
F2
s(g421
S'AANPP'
tp472
F1
s(g40
S'VDDDP'
tp473
F3
s(g440
S'NNMP'
tp474
F4
s(g388
S'DDDADVVVP'
tp475
F1
s(g170
S'PAAAP'
tp476
F1
s(S'PP'
S'ADVADVPNP'
tp477
F1
s(g98
S'ADVDDAP'
tp478
F1
s(g242
S'CDDAPP'
tp479
F2
s(g448
S'ANAP'
tp480
F1
s(g215
S'MVAP'
tp481
F4
s(g31
S'PVP'
tp482
F76
s(g133
S'VADVPPP'
tp483
F1
s(S'DP'
S'DADVAVP'
tp484
F2
s(g198
S'VVVVDP'
tp485
F1
s(S'AP'
S'AADVDDP'
tp486
F1
s(g26
S'PPPPADVVP'
tp487
F1
s(g194
S'ADVAACP'
tp488
F1
s(S'DP'
p489
S'DVVVP'
tp490
F2
s(g262
S'PPADVPP'
tp491
F1
s(S'DP'
S'ADVADVADVDNP'
tp492
F1
s(g170
S'PPDDP'
tp493
F3
s(g296
S'AVCP'
tp494
F1
s(g65
S'DPP'
tp495
F103
s(g38
S'DDPP'
tp496
F37
s(g103
S'DDAVP'
tp497
F2
s(S'DP'
S'DANP'
tp498
F19
s(g51
S'NADVPP'
tp499
F1
s(S'MP'
S'MMAP'
tp500
F1
s(g47
S'NAAVP'
tp501
F1
s(g293
S'PDDDP'
tp502
F1
s(S'CP'
S'CADVADVADVDPP'
tp503
F1
s(S'VP'
S'VADVCP'
tp504
F1
s(S'NP'
S'NADVCCP'
tp505
F1
s(S'DP'
S'ADDPPP'
tp506
F1
s(S'DP'
S'DCCP'
tp507
F1
s(g457
S'AAPDP'
tp508
F2
s(g49
S'VVDDP'
tp509
F3
s(g31
S'PDDP'
tp510
F24
s(S'MP'
S'MVDDP'
tp511
F1
s(g313
S'NNVP'
tp512
F14
s(g347
S'AVDP'
tp513
F9
s(g121
S'ADVADPP'
tp514
F1
s(S'AP'
S'ADDP'
tp515
F14
s(g343
S'ADVPPNP'
tp516
F2
s(S'CP'
S'AACADVADVDP'
tp517
F1
s(S'MP'
S'MVVADVAP'
tp518
F1
s(S'CP'
p519
S'ADVADVADVCDP'
tp520
F1
s(g65
S'DPPP'
tp521
F34
s(g489
S'AADPPP'
tp522
F1
s(S'AP'
S'AVVP'
tp523
F2
s(g457
S'PPPANP'
tp524
F1
s(g353
S'ADVPNP'
tp525
F4
s(g135
S'PPDP'
tp526
F23
s(S'MP'
S'MAVDP'
tp527
F2
s(S'DP'
S'DDCP'
tp528
F3
s(S'AP'
S'AAAPP'
tp529
F2
s(S'NP'
S'NAP'
tp530
F15
s(S'VP'
S'VAAAP'
tp531
F3
s(g253
S'VVP'
tp532
F13
s(g131
S'NNVVP'
tp533
F6
s(g183
S'ADVADVPVP'
tp534
F1
s(S'PP'
S'APNP'
tp535
F9
s(S'DP'
S'DDDAPP'
tp536
F1
s(g163
S'DDVVP'
tp537
F3
s(g22
S'VVVNP'
tp538
F1
s(S'MP'
S'MVANP'
tp539
F2
s(S'AP'
S'AAADVPP'
tp540
F1
s(g519
S'CDPP'
tp541
F96
s(S'DP'
S'ADVDVVP'
tp542
F1
s(g123
S'ADVCDP'
tp543
F4
s(g72
S'NADVADVADVCP'
tp544
F1
s(S'CP'
S'ADVACDP'
tp545
F1
s(S'PP'
p546
S'PPNNP'
tp547
F5
s(S'PP'
S'ADVAPPP'
tp548
F1
s(S'CP'
S'CAADDPP'
tp549
F1
s(g38
S'ADVADVDPP'
tp550
F2
s(g49
S'VADVNP'
tp551
F4
s(g101
S'DADVNP'
tp552
F5
s(g101
S'DAP'
tp553
F9
s(S'MP'
S'MCADP'
tp554
F1
s(g291
S'VAAAAP'
tp555
F1
s(g489
S'ADVADVDVVP'
tp556
F1
s(g293
S'PPAVP'
tp557
F2
s(g306
S'AVPP'
tp558
F4
s(S'CP'
S'CAADPPP'
tp559
F1
s(S'CP'
S'CDDPPPPP'
tp560
F1
s(g285
S'CDPPPP'
tp561
F3
s(S'VP'
S'AAVDP'
tp562
F1
s(S'VP'
S'ADVADVADVADVVPP'
tp563
F1
s(g31
S'APPP'
tp564
F4
s(g204
S'ADVVADVAP'
tp565
F1
s(S'DP'
S'DADVADVPP'
tp566
F1
s(S'DP'
S'DMP'
tp567
F4
s(g546
S'PPPNP'
tp568
F3
s(g433
S'PADVADVNP'
tp569
F3
s(g200
S'ADPP'
tp570
F18
s(S'VP'
S'VADVPP'
tp571
F1
s(g433
S'PVVVVP'
tp572
F1
s(S'PP'
S'ADVPVP'
tp573
F3
s(S'DP'
S'DDDDPP'
tp574
F2
s(S'NP'
S'NNVVVP'
tp575
F1
s(S'PP'
S'PAMP'
tp576
F1
s(g293
S'ADVPDP'
tp577
F3
s(g156
S'PPPVVP'
tp578
F1
s(g72
S'NCP'
tp579
F82
s(S'CP'
S'CADVDPPP'
tp580
F1
s(S'VP'
S'ADVVVPP'
tp581
F3
s(g181
S'PPADVNNP'
tp582
F1
s(g161
S'AAAP'
tp583
F1
s(S'VP'
S'VADVADVADVDP'
tp584
F1
s(S'MP'
S'MVCCP'
tp585
F2
s(S'DP'
S'DADVNNP'
tp586
F1
s(S'NP'
S'NNCCP'
tp587
F6
s(S'MP'
S'MNVP'
tp588
F1
s(S'VP'
S'VAPP'
tp589
F5
s(S'VP'
S'ADVVDP'
tp590
F1
s(g38
S'DADVPP'
tp591
F7
s(S'AP'
S'AMP'
tp592
F2
s(g33
S'CCADP'
tp593
F2
s(g330
S'ADVNNCP'
tp594
F1
s(g207
S'ADVAPP'
tp595
F1
s(g361
S'DDADVAPP'
tp596
F1
s(S'CP'
S'CDDADVAPP'
tp597
F1
s(S'DP'
S'ADVDPPP'
tp598
F1
s(g65
S'DVP'
tp599
F66
s(g151
S'ADVADVADVDDVP'
tp600
F1
s(S'AP'
S'AVP'
tp601
F12
s(S'NP'
S'NADVVP'
tp602
F1
s(g40
S'VVADVPPP'
tp603
F1
s(g38
S'DDPPP'
tp604
F7
s(S'NP'
S'ADVNMP'
tp605
F5
s(S'NP'
S'NNAP'
tp606
F1
s(S'MP'
S'MADVVCP'
tp607
F1
s(g181
S'PPANP'
tp608
F2
s(g347
S'VVADVADVDP'
tp609
F1
s(S'CP'
S'CDADVPP'
tp610
F4
s(g133
S'VNP'
tp611
F48
s(S'VP'
S'VANP'
tp612
F7
s(g357
S'VADVAP'
tp613
F1
s(S'PP'
S'PPADVNP'
tp614
F1
s(S'VP'
S'ADVADVVVDP'
tp615
F1
s.