ccollections
defaultdict
p1
(c__builtin__
float
p2
tRp3
(S'DP'
p4
S'DDPP'
tp5
F2
s(S'DP'
S'DANP'
tp6
F4
s(S'PP'
S'APVP'
tp7
F1
s(S'NP'
p8
S'ANPP'
tp9
F5
s(S'PP'
p10
S'PPPPP'
tp11
F1
s(S'VP'
S'VVNP'
tp12
F3
s(S'PP'
p13
S'PPVVVVP'
tp14
F1
s(S'VP'
p15
S'VADVDP'
tp16
F1
s(S'PP'
p17
S'PDDDP'
tp18
F1
s(S'NP'
p19
S'ANDP'
tp20
F1
s(S'NP'
p21
S'NVVP'
tp22
F4
s(g4
S'DNP'
tp23
F10
s(S'MP'
p24
S'MDNP'
tp25
F1
s(S'NP'
S'NCCP'
tp26
F3
s(S'CP'
S'CDAPP'
tp27
F1
s(S'CP'
S'CDPPP'
tp28
F1
s(S'DP'
p29
S'AAADPP'
tp30
F1
s(S'VP'
p31
S'ADVVVCP'
tp32
F1
s(S'MP'
p33
S'MADVVDP'
tp34
F2
s(g10
S'PDDP'
tp35
F3
s(S'DP'
S'DAPP'
tp36
F1
s(S'VP'
p37
S'VAP'
tp38
F4
s(S'VP'
S'ADVVNP'
tp39
F1
s(S'NP'
p40
S'NNADVADVAVP'
tp41
F1
s(S'DP'
S'DDDPP'
tp42
F1
s(g13
S'PPPP'
tp43
F1
s(S'DP'
p44
S'DAANP'
tp45
F1
s(S'AP'
S'ADDP'
tp46
F1
s(S'DP'
p47
S'DADVVP'
tp48
F1
s(S'VP'
p49
S'VVAAMP'
tp50
F1
s(S'VP'
S'VVANP'
tp51
F1
s(g37
S'ADVVVDP'
tp52
F1
s(S'DP'
S'DPPP'
tp53
F2
s(S'VP'
p54
S'VCP'
tp55
F3
s(S'CP'
S'CDDPP'
tp56
F1
s(S'CP'
p57
S'CDDPPP'
tp58
F1
s(S'DP'
p59
S'DDADVADVPP'
tp60
F1
s(g17
S'PPDP'
tp61
F2
s(g19
S'NNPP'
tp62
F2
s(g17
S'PNP'
tp63
F13
s(S'DP'
p64
S'DNNNP'
tp65
F1
s(g44
S'DDP'
tp66
F1
s(S'NP'
S'NAAP'
tp67
F1
s(S'AP'
S'ACP'
tp68
F1
s(S'CP'
p69
S'CCDP'
tp70
F4
s(S'MP'
S'AAMDP'
tp71
F1
s(g21
S'NAP'
tp72
F1
s(S'NP'
p73
S'NMP'
tp74
F3
s(g15
S'VVVVAP'
tp75
F1
s(S'CP'
S'CDDDPP'
tp76
F1
s(S'NP'
p77
S'NDP'
tp78
F1
s(S'VP'
p79
S'VVVDP'
tp80
F1
s(g17
S'PVP'
tp81
F8
s(g37
S'VVP'
tp82
F2
s(g29
S'DDVP'
tp83
F1
s(S'PP'
S'PDP'
tp84
F7
s(S'NP'
p85
S'AANVP'
tp86
F1
s(g44
S'DADVADVAPP'
tp87
F1
s(S'PP'
p88
S'PPP'
tp89
F4
s(S'NP'
p90
S'NAVP'
tp91
F1
s(S'PP'
S'PADVAP'
tp92
F1
s(g77
S'NAAADP'
tp93
F1
s(g57
S'CDPP'
tp94
F13
s(S'DP'
S'ADVDVP'
tp95
F1
s(S'VP'
p96
S'VMP'
tp97
F1
s(g47
S'DDANP'
tp98
F1
s(g15
S'VPP'
tp99
F3
s(g96
S'ADVADVAVCP'
tp100
F1
s(g10
S'PPPADVVVP'
tp101
F1
s(g90
S'NNVP'
tp102
F1
s(S'PP'
S'PADVDP'
tp103
F1
s(S'NP'
S'NNCP'
tp104
F1
s(S'VP'
S'VVPP'
tp105
F1
s(S'CP'
S'CCDDP'
tp106
F1
s(S'PP'
S'PPNNP'
tp107
F2
s(S'PP'
S'PVVP'
tp108
F2
s(S'PP'
S'PPAP'
tp109
F1
s(S'VP'
p110
S'VVCP'
tp111
F1
s(g21
S'AANCP'
tp112
F1
s(g79
S'VDP'
tp113
F7
s(g29
S'DVVP'
tp114
F1
s(g44
S'DDPPP'
tp115
F2
s(S'VP'
p116
S'AVPP'
tp117
F1
s(g69
S'CADVDPP'
tp118
F1
s(g59
S'DDVVP'
tp119
F1
s(g29
S'DDNP'
tp120
F1
s(g17
S'ADVADVAPNP'
tp121
F1
s(g64
S'ADVDPP'
tp122
F2
s(g4
S'DVVVP'
tp123
F1
s(S'NP'
S'NNADVVVP'
tp124
F1
s(g10
S'PAP'
tp125
F3
s(S'DP'
S'ADVADVADVDNNP'
tp126
F1
s(g49
S'VVDP'
tp127
F2
s(g21
S'NPPP'
tp128
F2
s(g47
S'DNNP'
tp129
F2
s(g85
S'NCP'
tp130
F10
s(g88
S'PPNP'
tp131
F1
s(S'AP'
p132
S'AAAP'
tp133
F1
s(S'CP'
S'CDDADVADVPP'
tp134
F1
s(g110
S'VADVADVADVDP'
tp135
F1
s(g85
S'AANDP'
tp136
F1
s(S'PP'
S'PADVVP'
tp137
F1
s(g116
S'VANP'
tp138
F1
s(S'AP'
p139
S'ADP'
tp140
F9
s(g139
S'APP'
tp141
F1
s(g24
S'MPPNNP'
tp142
F1
s(g37
S'ADVVDP'
tp143
F4
s(g73
S'NADVMP'
tp144
F1
s(g90
S'ANCCP'
tp145
F1
s(S'AP'
S'AMP'
tp146
F1
s(g44
S'DDDVP'
tp147
F1
s(S'MP'
S'MVVCP'
tp148
F1
s(S'AP'
S'ADVAPP'
tp149
F1
s(S'PP'
S'ADVADVPVVP'
tp150
F1
s(g17
S'PAANP'
tp151
F1
s(g40
S'NNNCCP'
tp152
F1
s(g8
S'ANVP'
tp153
F1
s(S'VP'
S'VVAP'
tp154
F1
s(g47
S'DVP'
tp155
F8
s(S'AP'
S'AVP'
tp156
F1
s(S'NP'
S'NADVVP'
tp157
F1
s(g33
S'ADVMVP'
tp158
F1
s(g77
S'NNAP'
tp159
F1
s(g85
S'NPP'
tp160
F8
s(g85
S'NVP'
tp161
F9
s(g54
S'VNP'
tp162
F5
s(g132
S'ADVADP'
tp163
F1
s(g49
S'VDDP'
tp164
F1
s(S'MP'
S'MAANCP'
tp165
F1
s(g31
S'VADVAP'
tp166
F1
s(g88
S'PNNP'
tp167
F1
s(g44
S'DPP'
tp168
F16
s.