ccollections
defaultdict
p1
(c__builtin__
float
p2
tRp3
(S'DP'
p4
S'DDPP'
tp5
F4
s(S'DP'
p6
S'DANP'
tp7
F3
s(S'NP'
S'ANPP'
tp8
F1
s(S'PP'
S'PPPPP'
tp9
F1
s(S'DP'
S'ADVDPP'
tp10
F1
s(S'PP'
p11
S'PPVP'
tp12
F3
s(S'NP'
p13
S'NPPPP'
tp14
F1
s(S'MP'
S'MPADP'
tp15
F1
s(S'NP'
p16
S'ANDP'
tp17
F1
s(S'NP'
p18
S'NVVP'
tp19
F1
s(S'DP'
p20
S'DNP'
tp21
F10
s(S'PP'
p22
S'PNNP'
tp23
F7
s(S'VP'
p24
S'VVNNP'
tp25
F1
s(S'CP'
S'CDPPP'
tp26
F4
s(S'DP'
p27
S'ADNP'
tp28
F1
s(S'PP'
p29
S'PADP'
tp30
F3
s(S'PP'
p31
S'PDDP'
tp32
F1
s(S'MP'
S'MVDDP'
tp33
F1
s(g29
S'PAAP'
tp34
F2
s(g4
S'ADNNP'
tp35
F1
s(S'AP'
p36
S'ADVANP'
tp37
F1
s(S'NP'
p38
S'ADVANPP'
tp39
F1
s(S'VP'
p40
S'VAP'
tp41
F1
s(g40
S'VVADVAP'
tp42
F1
s(g11
S'PPPP'
tp43
F2
s(S'VP'
p44
S'VVDDP'
tp45
F1
s(g31
S'PPPDP'
tp46
F1
s(S'AP'
S'ADDP'
tp47
F2
s(S'VP'
S'ADVADVADVVNNP'
tp48
F1
s(S'DP'
S'DPPP'
tp49
F6
s(S'VP'
p50
S'VCP'
tp51
F4
s(S'CP'
p52
S'CDDPP'
tp53
F3
s(S'MP'
S'MVPP'
tp54
F1
s(S'DP'
p55
S'ADVP'
tp56
F2
s(S'PP'
p57
S'PAP'
tp58
F5
s(g31
S'PPDP'
tp59
F1
s(S'MP'
S'MPNP'
tp60
F1
s(g22
S'PNP'
tp61
F12
s(S'DP'
p62
S'DNNNP'
tp63
F1
s(g52
S'CCAADP'
tp64
F1
s(g6
S'DDP'
tp65
F2
s(S'PP'
S'PANP'
tp66
F2
s(S'PP'
p67
S'PADVADVVP'
tp68
F1
s(S'NP'
p69
S'NNDP'
tp70
F3
s(S'VP'
S'VVAP'
tp71
F1
s(S'NP'
p72
S'NDDP'
tp73
F2
s(S'CP'
p74
S'CCDP'
tp75
F4
s(S'NP'
p76
S'NAP'
tp77
F2
s(g76
S'NMP'
tp78
F4
s(g13
S'NDP'
tp79
F2
s(S'PP'
S'PVP'
tp80
F6
s(S'VP'
S'VVP'
tp81
F1
s(g55
S'DDVP'
tp82
F3
s(g57
S'PDP'
tp83
F10
s(S'DP'
S'DDAPP'
tp84
F1
s(g67
S'PPP'
tp85
F2
s(S'CP'
S'CDPP'
tp86
F14
s(S'AP'
S'ADDDP'
tp87
F1
s(S'DP'
p88
S'DPPPP'
tp89
F1
s(g62
S'DDANP'
tp90
F1
s(g50
S'VPP'
tp91
F5
s(S'NP'
p92
S'NCCP'
tp93
F2
s(S'AP'
S'ADVAAP'
tp94
F1
s(S'VP'
p95
S'ADVADVVNP'
tp96
F1
s(g76
S'NNVP'
tp97
F4
s(S'NP'
S'NNCP'
tp98
F6
s(S'AP'
S'AADDP'
tp99
F1
s(g74
S'CCDDP'
tp100
F1
s(S'PP'
p101
S'PPNNP'
tp102
F1
s(g11
S'PVVP'
tp103
F1
s(S'AP'
S'AACP'
tp104
F1
s(g16
S'NANP'
tp105
F1
s(g92
S'NNVVP'
tp106
F2
s(g24
S'VVCP'
tp107
F2
s(S'DP'
S'DAP'
tp108
F1
s(S'MP'
S'MVVVADVAP'
tp109
F1
s(g69
S'AANCP'
tp110
F1
s(g50
S'VDP'
tp111
F13
s(g6
S'DVVP'
tp112
F2
s(S'VP'
S'VVVADVAP'
tp113
F1
s(g72
S'NNDDP'
tp114
F1
s(S'NP'
S'ANMP'
tp115
F1
s(g11
S'PPAP'
tp116
F1
s(S'VP'
p117
S'ADVVPP'
tp118
F1
s(g44
S'VVVP'
tp119
F1
s(S'VP'
S'VNNP'
tp120
F1
s(S'CP'
S'CADVDPP'
tp121
F1
s(g67
S'ADVPPNNP'
tp122
F1
s(S'DP'
p123
S'DDNP'
tp124
F2
s(g4
S'DDNNP'
tp125
F1
s(S'NP'
S'ANCP'
tp126
F1
s(S'PP'
p127
S'PPPNP'
tp128
F1
s(S'NP'
S'NCP'
tp129
F10
s(S'CP'
S'CDPPPP'
tp130
F1
s(g38
S'NADVANP'
tp131
F1
s(g27
S'AADPP'
tp132
F1
s(S'NP'
S'ANVVP'
tp133
F1
s(g95
S'VVDP'
tp134
F1
s(g62
S'AADVVP'
tp135
F1
s(S'DP'
S'DNNP'
tp136
F4
s(S'AP'
S'ACP'
tp137
F1
s(g127
S'PPNP'
tp138
F1
s(g18
S'NNNVP'
tp139
F1
s(g18
S'NAADP'
tp140
F1
s(g95
S'VVCCP'
tp141
F1
s(g31
S'PADVVP'
tp142
F1
s(S'NP'
S'NNCCP'
tp143
F2
s(S'MP'
S'MNVP'
tp144
F1
s(g88
S'DDDDP'
tp145
F1
s(S'AP'
S'ADP'
tp146
F7
s(g36
S'APP'
tp147
F1
s(g127
S'APMP'
tp148
F1
s(g24
S'ADVVDP'
tp149
F1
s(g67
S'PPADP'
tp150
F1
s(g18
S'ANCCP'
tp151
F1
s(S'VP'
S'VVPP'
tp152
F1
s(g123
S'DDDVP'
tp153
F1
s(g101
S'PAANP'
tp154
F1
s(S'AP'
S'AAADP'
tp155
F1
s(g92
S'ANVP'
tp156
F2
s(g95
S'VAAAP'
tp157
F1
s(g20
S'DVP'
tp158
F6
s(g95
S'VADVPPP'
tp159
F1
s(S'NP'
S'NADVVP'
tp160
F1
s(g6
S'DDPPP'
tp161
F2
s(g16
S'NPP'
tp162
F9
s(g69
S'NVP'
tp163
F9
s(S'VP'
S'VNP'
tp164
F7
s(g117
S'VDDP'
tp165
F2
s(g67
S'PPADVNP'
tp166
F1
s(g20
S'DPP'
tp167
F16
s(g92
S'ADVNVP'
tp168
F1
s.