ccollections
defaultdict
p1
(c__builtin__
float
p2
tRp3
(S'DP'
p4
S'DDPP'
tp5
F5
s(S'DP'
p6
S'DANP'
tp7
F5
s(S'NP'
p8
S'ANPP'
tp9
F6
s(S'VP'
p10
S'VVNP'
tp11
F5
s(S'PP'
p12
S'PPVP'
tp13
F1
s(S'DP'
S'DPPPPP'
tp14
F1
s(S'PP'
S'PDDDP'
tp15
F1
s(S'VP'
p16
S'VAAP'
tp17
F1
s(S'NP'
p18
S'NNADVAVP'
tp19
F1
s(S'CP'
S'CAADPP'
tp20
F1
s(S'NP'
p21
S'NVVP'
tp22
F5
s(S'DP'
p23
S'DNP'
tp24
F24
s(S'MP'
S'MDNP'
tp25
F1
s(S'VP'
S'VVNNP'
tp26
F1
s(S'CP'
S'CDAPP'
tp27
F1
s(S'VP'
S'VADVNP'
tp28
F1
s(S'CP'
S'CDPPP'
tp29
F3
s(S'VP'
S'VADP'
tp30
F1
s(S'DP'
p31
S'DNNNNP'
tp32
F1
s(S'PP'
p33
S'PADP'
tp34
F1
s(S'CP'
S'CDPPPPP'
tp35
F1
s(S'VP'
S'ADVADVADVVDP'
tp36
F1
s(S'PP'
p37
S'PDDP'
tp38
F4
s(S'PP'
p39
S'PAAP'
tp40
F2
s(S'DP'
p41
S'AAADPPP'
tp42
F1
s(g31
S'DAPP'
tp43
F3
s(g10
S'VAP'
tp44
F6
s(g12
S'APVP'
tp45
F1
s(S'MP'
p46
S'MVDP'
tp47
F2
s(S'DP'
S'DDDPP'
tp48
F2
s(S'PP'
S'PPPP'
tp49
F1
s(S'VP'
p50
S'VVDDP'
tp51
F1
s(S'DP'
p52
S'DAANP'
tp53
F1
s(S'AP'
p54
S'ADDP'
tp55
F2
s(S'PP'
p56
S'PMP'
tp57
F1
s(S'DP'
p58
S'DDAANP'
tp59
F1
s(S'DP'
p60
S'DPPP'
tp61
F3
s(S'VP'
p62
S'VCP'
tp63
F7
s(g39
S'PPNNP'
tp64
F1
s(S'MP'
p65
S'MVPP'
tp66
F1
s(g6
S'ADVP'
tp67
F1
s(S'MP'
S'MVADP'
tp68
F1
s(S'PP'
p69
S'PAP'
tp70
F5
s(g69
S'PPDP'
tp71
F3
s(S'NP'
S'AANCCP'
tp72
F1
s(g65
S'MADVADVADVVDP'
tp73
F1
s(S'PP'
S'PNP'
tp74
F20
s(g58
S'DDP'
tp75
F5
s(S'PP'
S'PANP'
tp76
F1
s(S'NP'
p77
S'NNDP'
tp78
F2
s(S'NP'
p79
S'AANMP'
tp80
F1
s(S'AP'
S'AAVP'
tp81
F1
s(S'AP'
p82
S'AVVP'
tp83
F1
s(S'NP'
p84
S'NDDP'
tp85
F2
s(S'CP'
S'CCDP'
tp86
F4
s(g8
S'NAP'
tp87
F5
s(g50
S'VPPP'
tp88
F3
s(g16
S'ADVADVVVCP'
tp89
F1
s(S'NP'
p90
S'NMP'
tp91
F9
s(S'CP'
S'CDDDPP'
tp92
F1
s(g79
S'NDP'
tp93
F5
s(S'VP'
S'VVVDP'
tp94
F1
s(S'DP'
p95
S'DVP'
tp96
F13
s(S'VP'
p97
S'VVP'
tp98
F2
s(S'DP'
S'DDVP'
tp99
F1
s(S'PP'
p100
S'PDP'
tp101
F27
s(g52
S'DDAPP'
tp102
F1
s(S'AP'
p103
S'AAADP'
tp104
F1
s(S'AP'
S'AADP'
tp105
F2
s(S'PP'
S'APNP'
tp106
F2
s(g100
S'PPP'
tp107
F9
s(g21
S'NAVP'
tp108
F2
s(S'PP'
p109
S'PCP'
tp110
F2
s(S'NP'
S'NNPPP'
tp111
F1
s(S'CP'
S'CDPP'
tp112
F22
s(S'PP'
S'PNNP'
tp113
F2
s(g103
S'AADVVP'
tp114
F1
s(g4
S'ADVADVDNP'
tp115
F1
s(S'VP'
p116
S'VPP'
tp117
F10
s(S'NP'
S'NACP'
tp118
F1
s(g90
S'NCCP'
tp119
F3
s(g4
S'DADVADVVVP'
tp120
F1
s(g50
S'VVCCCP'
tp121
F1
s(S'NP'
p122
S'NNVP'
tp123
F1
s(g56
S'PADVDP'
tp124
F2
s(S'NP'
S'NNCP'
tp125
F1
s(S'MP'
p126
S'MVCP'
tp127
F1
s(S'NP'
p128
S'NCP'
tp129
F19
s(S'CP'
S'CDDPP'
tp130
F4
s(g33
S'PVVP'
tp131
F2
s(S'DP'
p132
S'DMMMP'
tp133
F1
s(g62
S'AVNP'
tp134
F2
s(g122
S'NAAP'
tp135
F2
s(g62
S'VDP'
tp136
F14
s(g128
S'NNVVP'
tp137
F2
s(S'VP'
S'VVCP'
tp138
F1
s(g58
S'DAP'
tp139
F1
s(S'CP'
p140
S'CADPP'
tp141
F2
s(g126
S'MVPPP'
tp142
F2
s(g95
S'DVVP'
tp143
F2
s(g84
S'NNDDP'
tp144
F1
s(S'AP'
S'APPP'
tp145
F1
s(S'NP'
S'NNNNMP'
tp146
F1
s(S'CP'
S'CADVDPP'
tp147
F1
s(S'NP'
S'ADVADVNNVP'
tp148
F1
s(g140
S'CCCDP'
tp149
F1
s(g50
S'AVNNP'
tp150
F1
s(g31
S'DDNP'
tp151
F3
s(S'VP'
S'AVPP'
tp152
F1
s(g60
S'DDNNP'
tp153
F3
s(S'NP'
p154
S'ANCP'
tp155
F2
s(g37
S'APDP'
tp156
F2
s(S'NP'
p157
S'AANVVP'
tp158
F1
s(S'DP'
S'DCP'
tp159
F1
s(S'DP'
S'ADVDPP'
tp160
F1
s(S'DP'
S'DVVVP'
tp161
F1
s(g52
S'ADPP'
tp162
F2
s(g18
S'NVP'
tp163
F9
s(S'VP'
S'VADVADVNNP'
tp164
F1
s(g6
S'AADPP'
tp165
F1
s(g116
S'ADVVAAAP'
tp166
F1
s(S'CP'
p167
S'CCAAADP'
tp168
F1
s(S'VP'
S'VVDP'
tp169
F3
s(g39
S'ADVPDP'
tp170
F1
s(g157
S'ADVNNPP'
tp171
F1
s(S'DP'
S'DNNP'
tp172
F2
s(g54
S'ACP'
tp173
F2
s(g33
S'PPNP'
tp174
F4
s(g132
S'ADVDNNP'
tp175
F1
s(g167
S'CDADVPP'
tp176
F1
s(S'AP'
S'AAPP'
tp177
F2
s(S'NP'
S'NNPP'
tp178
F1
s(g82
S'ADP'
tp179
F9
s(g154
S'NAPP'
tp180
F2
s(S'AP'
S'APP'
tp181
F5
s(g41
S'DADVPP'
tp182
F1
s(g10
S'VVPP'
tp183
F2
s(g157
S'NNMP'
tp184
F2
s(S'MP'
S'MVVCP'
tp185
F1
s(S'PP'
S'PAANP'
tp186
F1
s(g97
S'AVDP'
tp187
F1
s(S'NP'
S'NNNCCP'
tp188
F1
s(g8
S'ANVP'
tp189
F1
s(g97
S'VVAP'
tp190
F1
s(S'MP'
S'MVAP'
tp191
F2
s(g37
S'PVP'
tp192
F18
s(S'MP'
S'MVNP'
tp193
F1
s(S'AP'
S'AVP'
tp194
F1
s(g109
S'PADVADVDP'
tp195
F1
s(S'CP'
S'ACDDDP'
tp196
F1
s(g100
S'PAVP'
tp197
F3
s(g60
S'DDPPP'
tp198
F2
s(S'NP'
S'NNAP'
tp199
F1
s(g128
S'NPP'
tp200
F22
s(S'PP'
S'PPPPNP'
tp201
F1
s(g37
S'PPADVNNP'
tp202
F1
s(S'VP'
S'ADVVPP'
tp203
F1
s(S'MP'
S'MADVVPP'
tp204
F1
s(S'VP'
S'VNP'
tp205
F13
s(S'VP'
S'VANP'
tp206
F2
s(g10
S'VDDP'
tp207
F4
s(S'DP'
S'ADVDDP'
tp208
F1
s(g46
S'MMMVP'
tp209
F1
s(g58
S'DDDANP'
tp210
F1
s(g23
S'DPP'
tp211
F27
s(g77
S'ADVNVP'
tp212
F1
s.