ccollections
defaultdict
p1
(c__builtin__
float
p2
tRp3
(S'MP'
S'MMDP'
tp4
F3
s(S'VP'
p5
S'VVAAAP'
tp6
F1
s(S'NP'
p7
S'NAMP'
tp8
F2
s(S'DP'
S'ADVADVADVDANP'
tp9
F1
s(S'AP'
S'AAADVADVADVVP'
tp10
F1
s(S'NP'
S'ADVNNMP'
tp11
F1
s(S'VP'
S'ADVVVNP'
tp12
F2
s(S'NP'
S'NNAAPPP'
tp13
F1
s(S'NP'
S'ADVANVP'
tp14
F2
s(S'PP'
S'ADVADVPAP'
tp15
F1
s(S'PP'
p16
S'PAPP'
tp17
F6
s(S'PP'
S'PADVNP'
tp18
F9
s(S'DP'
p19
S'DNP'
tp20
F301
s(S'NP'
S'ADVNDP'
tp21
F1
s(S'PP'
S'ADVPADVADVADVDDDP'
tp22
F1
s(S'CP'
S'CDPPP'
tp23
F47
s(S'VP'
S'VADP'
tp24
F18
s(S'CP'
p25
S'CDAAPPP'
tp26
F1
s(S'DP'
p27
S'DAAP'
tp28
F4
s(S'VP'
S'AAVPPP'
tp29
F1
s(S'PP'
p30
S'PPPPPP'
tp31
F3
s(S'VP'
S'VADVADVADVAP'
tp32
F1
s(S'DP'
p33
S'ADNNP'
tp34
F2
s(S'CP'
S'ACDDDDP'
tp35
F1
s(S'PP'
S'APVP'
tp36
F17
s(S'MP'
p37
S'MVDP'
tp38
F38
s(S'PP'
S'PADVANP'
tp39
F2
s(S'PP'
S'PPPP'
tp40
F23
s(S'DP'
p41
S'DDDNP'
tp42
F10
s(S'MP'
S'AMCP'
tp43
F1
s(S'VP'
S'VACP'
tp44
F3
s(S'PP'
S'PPAAP'
tp45
F2
s(S'MP'
S'MVVPPP'
tp46
F1
s(g27
S'DADVVP'
tp47
F11
s(S'NP'
S'AANPPPP'
tp48
F1
s(S'PP'
S'PADVNNP'
tp49
F1
s(S'NP'
S'NADVACP'
tp50
F1
s(S'NP'
S'NDDDP'
tp51
F1
s(S'NP'
S'NCCCP'
tp52
F2
s(S'CP'
S'CADVDAPP'
tp53
F1
s(S'VP'
S'VCP'
tp54
F69
s(S'NP'
p55
S'AANCCP'
tp56
F1
s(S'NP'
p57
S'NMMP'
tp58
F9
s(S'VP'
p59
S'VVVPP'
tp60
F1
s(S'DP'
S'DDDNNP'
tp61
F1
s(S'PP'
p62
S'ADVPADP'
tp63
F1
s(g16
S'PAP'
tp64
F97
s(S'NP'
p65
S'ADVADVADVNNMP'
tp66
F1
s(S'MP'
p67
S'MMVVP'
tp68
F2
s(S'VP'
S'VADVADVAP'
tp69
F2
s(S'PP'
p70
S'ADVPPVP'
tp71
F1
s(g16
S'APVVP'
tp72
F3
s(S'PP'
S'PPADVDP'
tp73
F1
s(S'NP'
p74
S'ANADVANP'
tp75
F1
s(S'CP'
S'CADPPPP'
tp76
F1
s(g16
S'PNP'
tp77
F279
s(S'VP'
S'VVVVP'
tp78
F2
s(S'DP'
p79
S'DDP'
tp80
F59
s(S'VP'
p81
S'ADVVDDP'
tp82
F1
s(S'NP'
S'NNNPP'
tp83
F1
s(S'PP'
p84
S'PAAP'
tp85
F17
s(S'MP'
S'MCDP'
tp86
F9
s(S'PP'
S'ADVPCP'
tp87
F1
s(S'DP'
S'DDAANP'
tp88
F1
s(S'MP'
S'MNAP'
tp89
F2
s(S'VP'
S'ADVADVVVCP'
tp90
F1
s(S'NP'
p91
S'NMP'
tp92
F63
s(S'MP'
S'MAVDDP'
tp93
F2
s(S'DP'
p94
S'ADCP'
tp95
F2
s(S'VP'
p96
S'AAVNP'
tp97
F3
s(S'VP'
p98
S'VMMP'
tp99
F7
s(g16
S'PDP'
tp100
F303
s(S'VP'
p101
S'VAMP'
tp102
F3
s(S'MP'
S'MADVVNP'
tp103
F1
s(S'CP'
S'CDADVADVPPP'
tp104
F1
s(S'VP'
S'AVAAP'
tp105
F1
s(S'NP'
S'NACCP'
tp106
F1
s(S'AP'
S'ANP'
tp107
F2
s(S'PP'
p108
S'PADVPP'
tp109
F2
s(S'VP'
p110
S'AAVPP'
tp111
F3
s(S'VP'
S'VVADVNP'
tp112
F1
s(g74
S'ADVANCP'
tp113
F3
s(S'AP'
S'ADVADVAMP'
tp114
F2
s(S'PP'
S'ADVADVAPPP'
tp115
F1
s(S'DP'
p116
S'DPPPP'
tp117
F14
s(S'DP'
S'DDANP'
tp118
F1
s(S'PP'
p119
S'PADVADP'
tp120
F1
s(S'NP'
p121
S'NACP'
tp122
F18
s(S'AP'
S'ADVAVP'
tp123
F1
s(g91
S'NCCP'
tp124
F55
s(S'CP'
S'CDDDDPPP'
tp125
F1
s(S'DP'
S'DADVADVVVP'
tp126
F1
s(S'VP'
p127
S'ADVVAANP'
tp128
F1
s(S'NP'
S'NNCP'
tp129
F47
s(S'DP'
S'ADVDDPP'
tp130
F1
s(S'NP'
S'NADVADVVP'
tp131
F1
s(S'DP'
S'DPPPPP'
tp132
F2
s(S'DP'
p133
S'DDDDP'
tp134
F2
s(S'DP'
S'DDAPP'
tp135
F5
s(S'PP'
p136
S'PPAP'
tp137
F10
s(S'NP'
S'ANVVVP'
tp138
F1
s(S'VP'
p139
S'AVNP'
tp140
F14
s(S'CP'
S'CCADVDP'
tp141
F2
s(g91
S'NADVADVPP'
tp142
F1
s(S'PP'
S'AAPNP'
tp143
F1
s(S'VP'
S'VADVVP'
tp144
F2
s(S'NP'
p145
S'ADVADVADVNNDP'
tp146
F1
s(S'VP'
p147
S'VAAMP'
tp148
F2
s(S'NP'
p149
S'NCCCCP'
tp150
F1
s(S'CP'
S'CCCDP'
tp151
F4
s(S'VP'
p152
S'ADVVAP'
tp153
F7
s(S'VP'
S'VCCCP'
tp154
F1
s(S'PP'
p155
S'APDP'
tp156
F27
s(S'NP'
p157
S'AANNCCP'
tp158
F1
s(g62
S'PPADVADVADVDP'
tp159
F1
s(S'VP'
p160
S'VVANP'
tp161
F3
s(S'PP'
p162
S'ADVPNNP'
tp163
F1
s(S'PP'
S'PADVCCP'
tp164
F1
s(g25
S'ADVACDP'
tp165
F1
s(S'PP'
S'PCCP'
tp166
F1
s(S'MP'
S'AAMCP'
tp167
F1
s(S'DP'
p168
S'DNNP'
tp169
F74
s(S'CP'
S'CADVDDPP'
tp170
F1
s(S'DP'
p171
S'ADVADVDDNP'
tp172
F1
s(S'AP'
S'AAADVVP'
tp173
F1
s(S'VP'
p174
S'VVNNNP'
tp175
F1
s(S'NP'
S'NNNVP'
tp176
F5
s(S'VP'
S'VADVNNP'
tp177
F1
s(S'PP'
S'AAPPDP'
tp178
F1
s(S'VP'
S'VVANNP'
tp179
F1
s(S'PP'
p180
S'PADVVP'
tp181
F3
s(S'DP'
S'DADVADVADVPPP'
tp182
F1
s(S'DP'
S'DADVVVP'
tp183
F2
s(g119
S'PPPADP'
tp184
F1
s(S'PP'
S'APAP'
tp185
F5
s(S'AP'
S'APP'
tp186
F53
s(S'CP'
S'CDDDADVPPP'
tp187
F1
s(S'NP'
p188
S'NADVMP'
tp189
F3
s(S'PP'
p190
S'PPADP'
tp191
F1
s(S'VP'
S'VADVADVVP'
tp192
F2
s(S'VP'
S'VVAPP'
tp193
F1
s(S'DP'
p194
S'DADVADVNP'
tp195
F1
s(S'NP'
S'ADVANPP'
tp196
F2
s(S'VP'
S'VVVVPP'
tp197
F2
s(S'DP'
p198
S'DAAVP'
tp199
F1
s(S'CP'
S'CDDDDPP'
tp200
F3
s(S'MP'
S'MPVP'
tp201
F4
s(S'NP'
S'ADVAAANCCP'
tp202
F1
s(S'MP'
S'MVVVNP'
tp203
F1
s(g155
S'PAANP'
tp204
F6
s(g30
S'PPVVP'
tp205
F5
s(g67
S'MVNP'
tp206
F29
s(S'MP'
p207
S'MNDP'
tp208
F1
s(S'NP'
S'ANAAP'
tp209
F1
s(S'CP'
S'CDDDPPP'
tp210
F1
s(g19
S'ADVADNP'
tp211
F1
s(S'PP'
p212
S'PAVP'
tp213
F17
s(g37
S'ADVMVP'
tp214
F7
s(S'VP'
S'ADVVMP'
tp215
F2
s(S'DP'
S'ADVDVVP'
tp216
F1
s(S'DP'
p217
S'DDAPPP'
tp218
F1
s(S'PP'
p219
S'PPADVNNP'
tp220
F2
s(S'MP'
S'ADVMMCP'
tp221
F1
s(S'AP'
p222
S'AAADP'
tp223
F1
s(S'PP'
p224
S'APPPP'
tp225
F2
s(S'DP'
S'DADP'
tp226
F2
s(S'VP'
S'VVAANP'
tp227
F1
s(S'AP'
S'ADVADP'
tp228
F3
s(S'NP'
S'NAMMP'
tp229
F1
s(S'PP'
S'APDDP'
tp230
F3
s(S'VP'
S'ADVADVVVNP'
tp231
F1
s(S'DP'
S'DDVVVVP'
tp232
F1
s(S'NP'
S'NADVDP'
tp233
F2
s(S'PP'
p234
S'PPCP'
tp235
F2
s(S'VP'
S'ADVVNP'
tp236
F2
s(S'MP'
S'MNCP'
tp237
F3
s(S'VP'
p238
S'VVNP'
tp239
F42
s(g219
S'PPVP'
tp240
F31
s(S'MP'
S'MPCP'
tp241
F1
s(g101
S'VADVDP'
tp242
F2
s(S'VP'
p243
S'VVADVAP'
tp244
F1
s(S'VP'
p245
S'VAAP'
tp246
F16
s(S'MP'
S'MANPP'
tp247
F1
s(S'NP'
S'ANDP'
tp248
F14
s(g91
S'NVVP'
tp249
F55
s(S'PP'
S'AAPVP'
tp250
F1
s(S'AP'
S'AAP'
tp251
F7
s(g160
S'VMP'
tp252
F77
s(S'AP'
S'AAAVVP'
tp253
F2
s(S'VP'
S'VVNNP'
tp254
F4
s(S'CP'
S'CDAPP'
tp255
F25
s(g98
S'VVAAP'
tp256
F3
s(g67
S'MMPP'
tp257
F5
s(S'DP'
S'ADVADVP'
tp258
F1
s(S'CP'
S'CADVADPP'
tp259
F1
s(S'PP'
S'PPPVVVVVP'
tp260
F1
s(S'DP'
S'ADNP'
tp261
F25
s(g16
S'PADP'
tp262
F23
s(g91
S'ADVNNNCP'
tp263
F1
s(S'VP'
S'ADVVVCP'
tp264
F1
s(S'NP'
p265
S'ANDDP'
tp266
F4
s(S'DP'
S'DADVAP'
tp267
F5
s(S'VP'
S'VVVVVDP'
tp268
F1
s(g33
S'DAPP'
tp269
F44
s(S'VP'
S'AVVP'
tp270
F1
s(S'VP'
S'ADVADVVPP'
tp271
F4
s(S'VP'
S'VADVADVNP'
tp272
F1
s(S'VP'
p273
S'ADVADVADVVDP'
tp274
F1
s(S'PP'
S'AAAPVP'
tp275
F1
s(S'NP'
S'ADVADVNNDP'
tp276
F1
s(S'VP'
S'ADVADVVDP'
tp277
F3
s(S'PP'
S'PPPDP'
tp278
F5
s(S'DP'
S'DAAPPP'
tp279
F1
s(S'VP'
S'AVVAAP'
tp280
F1
s(S'AP'
S'AAPPP'
tp281
F1
s(S'DP'
p282
S'DAAANP'
tp283
F2
s(S'DP'
S'DADVANP'
tp284
F4
s(S'MP'
S'MPANP'
tp285
F3
s(S'DP'
S'ADVDNP'
tp286
F7
s(S'VP'
S'VVPP'
tp287
F27
s(S'PP'
S'PAVVP'
tp288
F2
s(S'MP'
p289
S'MVPP'
tp290
F19
s(g19
S'ADVP'
tp291
F13
s(S'MP'
S'MVADP'
tp292
F1
s(S'MP'
S'MDAAP'
tp293
F1
s(S'CP'
S'CDDPPP'
tp294
F7
s(S'VP'
S'ADVVVDP'
tp295
F2
s(S'MP'
S'MDDNP'
tp296
F1
s(S'NP'
p297
S'NNPP'
tp298
F37
s(S'MP'
S'MMMPP'
tp299
F3
s(S'DP'
S'DDDDNP'
tp300
F1
s(S'MP'
p301
S'MVVDP'
tp302
F3
s(S'DP'
S'DADVPPP'
tp303
F3
s(S'NP'
S'ANVP'
tp304
F23
s(S'DP'
p305
S'DNNNP'
tp306
F3
s(S'MP'
p307
S'MPPDP'
tp308
F1
s(S'DP'
S'ADVDDVP'
tp309
F4
s(S'VP'
p310
S'VADVADVPPP'
tp311
F1
s(S'PP'
p312
S'PADVADVVP'
tp313
F2
s(S'VP'
S'VADVDDP'
tp314
F1
s(S'PP'
S'PMMP'
tp315
F1
s(S'PP'
S'PVVVP'
tp316
F2
s(g312
S'PMP'
tp317
F16
s(S'CP'
p318
S'CCDP'
tp319
F69
s(g65
S'ADVNNDP'
tp320
F1
s(S'VP'
S'VADVANP'
tp321
F1
s(S'PP'
S'PPNNNP'
tp322
F2
s(S'VP'
S'VADVADVANP'
tp323
F1
s(S'NP'
S'NVVVP'
tp324
F9
s(S'CP'
S'CDDDPP'
tp325
F5
s(S'CP'
p326
S'CDAAPP'
tp327
F3
s(g101
S'VVVDP'
tp328
F5
s(g212
S'PNNNP'
tp329
F6
s(g16
S'PVP'
tp330
F215
s(g326
S'CCCCDP'
tp331
F1
s(S'VP'
p332
S'VVVVCP'
tp333
F1
s(S'AP'
S'AACCP'
tp334
F1
s(S'VP'
S'VVMP'
tp335
F16
s(S'PP'
p336
S'PADVVVP'
tp337
F2
s(g16
S'PPP'
tp338
F148
s(g7
S'NNADVDP'
tp339
F1
s(S'NP'
S'NAVP'
tp340
F12
s(g224
S'PADVAP'
tp341
F2
s(S'MP'
S'ADVMMDP'
tp342
F1
s(S'MP'
S'AMDP'
tp343
F3
s(S'PP'
S'PADDP'
tp344
F1
s(S'DP'
p345
S'ADVDVP'
tp346
F5
s(S'NP'
p347
S'NNNADVCCP'
tp348
F1
s(S'DP'
S'DADVADVPPP'
tp349
F1
s(S'PP'
S'PPPPDP'
tp350
F2
s(S'DP'
S'ADVADVADVDDDVP'
tp351
F1
s(S'MP'
p352
S'MADVADVVPP'
tp353
F1
s(S'DP'
p354
S'ADVADVDNP'
tp355
F4
s(g98
S'VPP'
tp356
F184
s(S'MP'
p357
S'AAMVP'
tp358
F1
s(S'CP'
S'ADVCCDP'
tp359
F6
s(S'CP'
S'ACCDP'
tp360
F1
s(S'DP'
p361
S'ADVDDNP'
tp362
F3
s(S'NP'
S'NNNCP'
tp363
F5
s(g84
S'PADVDP'
tp364
F7
s(g198
S'DANNP'
tp365
F1
s(S'MP'
S'MADVVAP'
tp366
F3
s(g318
S'CDDPP'
tp367
F53
s(g194
S'DAAPP'
tp368
F5
s(S'PP'
p369
S'PVVP'
tp370
F32
s(S'CP'
S'CADPPP'
tp371
F1
s(S'AP'
S'AACP'
tp372
F3
s(S'VP'
p373
S'ADVVCP'
tp374
F2
s(S'PP'
S'ADVPPAP'
tp375
F1
s(g238
S'VPPP'
tp376
F23
s(S'NP'
S'ADVNDDP'
tp377
F1
s(S'CP'
S'CDADVADVAPP'
tp378
F1
s(S'VP'
S'VVPPP'
tp379
F5
s(g37
S'MVPPP'
tp380
F4
s(g168
S'DVVP'
tp381
F52
s(S'PP'
S'PADVAVP'
tp382
F2
s(g157
S'NNNNDP'
tp383
F1
s(g94
S'DDDADVPPP'
tp384
F1
s(S'NP'
S'ANMP'
tp385
F1
s(S'DP'
S'ADVADADVPPP'
tp386
F1
s(S'PP'
p387
S'ADVPPP'
tp388
F1
s(S'DP'
S'ADVADPPP'
tp389
F1
s(S'NP'
S'ADVADVNVP'
tp390
F1
s(g152
S'VVVP'
tp391
F14
s(g305
S'DDPPPP'
tp392
F2
s(S'NP'
S'ADVADVNNVP'
tp393
F2
s(S'VP'
p394
S'AVMP'
tp395
F2
s(g265
S'ANCP'
tp396
F37
s(g168
S'DCP'
tp397
F14
s(g347
S'ANNCP'
tp398
F2
s(g238
S'VVADVADP'
tp399
F1
s(g171
S'DADVCP'
tp400
F3
s(g336
S'ADVADVADVPPNP'
tp401
F1
s(S'DP'
S'DDDP'
tp402
F10
s(S'NP'
p403
S'ANVVP'
tp404
F7
s(S'NP'
S'NVVVVP'
tp405
F2
s(S'NP'
p406
S'NPPP'
tp407
F30
s(S'PP'
S'PPAPP'
tp408
F1
s(S'AP'
S'APPP'
tp409
F7
s(S'DP'
S'DAVP'
tp410
F19
s(g5
S'AVVVP'
tp411
F1
s(S'NP'
S'NNNMP'
tp412
F1
s(S'AP'
S'ACP'
tp413
F42
s(S'PP'
S'AAPAP'
tp414
F2
s(S'NP'
S'NDDDDP'
tp415
F1
s(S'PP'
S'PADVADVNNP'
tp416
F3
s(g16
S'PPNP'
tp417
F59
s(S'NP'
S'NAADP'
tp418
F1
s(S'DP'
p419
S'ADVDAPP'
tp420
F1
s(S'AP'
p421
S'ADP'
tp422
F167
s(S'PP'
S'APMP'
tp423
F1
s(S'CP'
p424
S'CADVDPP'
tp425
F9
s(S'NP'
S'ANPPP'
tp426
F4
s(S'NP'
S'ADVANCCP'
tp427
F1
s(S'DP'
S'AAAADPP'
tp428
F1
s(g96
S'VAAANP'
tp429
F2
s(g207
S'MADDP'
tp430
F1
s(S'PP'
S'PPPPNNP'
tp431
F1
s(S'VP'
S'ADVADVVNNP'
tp432
F1
s(S'MP'
S'MMNNP'
tp433
F1
s(S'VP'
S'AVDP'
tp434
F17
s(S'VP'
S'VVAP'
tp435
F22
s(S'NP'
S'NNAPP'
tp436
F2
s(g190
S'PADVADVDP'
tp437
F3
s(S'AP'
S'ADVADVAAMP'
tp438
F1
s(g91
S'NPP'
tp439
F264
s(S'PP'
S'PPPPNP'
tp440
F1
s(g91
S'NVP'
tp441
F265
s(g357
S'MADCP'
tp442
F1
s(S'PP'
S'PAAVP'
tp443
F4
s(g30
S'PPPPVP'
tp444
F1
s(S'NP'
S'ADVNAP'
tp445
F1
s(g59
S'VDDP'
tp446
F30
s(S'VP'
S'ADVVADVAP'
tp447
F1
s(S'DP'
p448
S'DMP'
tp449
F5
s(S'NP'
S'NADVADVVVP'
tp450
F2
s(S'NP'
p451
S'ANPP'
tp452
F43
s(S'PP'
S'ADVPPDP'
tp453
F2
s(S'PP'
S'PPPPP'
tp454
F6
s(g301
S'MPDP'
tp455
F32
s(S'MP'
S'MVVPP'
tp456
F3
s(S'VP'
S'AAVVNP'
tp457
F1
s(S'PP'
S'PPPAAP'
tp458
F1
s(S'DP'
S'DDDDDP'
tp459
F1
s(S'NP'
S'NPPPP'
tp460
F2
s(S'DP'
S'ADDP'
tp461
F1
s(g394
S'VVVMP'
tp462
F1
s(S'PP'
S'PPNNNNP'
tp463
F1
s(S'CP'
p464
S'CAADPP'
tp465
F5
s(g448
S'DADVADVVP'
tp466
F1
s(S'NP'
S'NAACP'
tp467
F1
s(g16
S'PNNP'
tp468
F62
s(S'CP'
p469
S'CDADVADVADVPPP'
tp470
F1
s(S'PP'
S'APNNP'
tp471
F2
s(S'MP'
p472
S'MMNP'
tp473
F1
s(S'VP'
S'AVAP'
tp474
F4
s(S'MP'
S'MMVP'
tp475
F8
s(g162
S'PADVDDP'
tp476
F6
s(S'AP'
S'AAPPPP'
tp477
F1
s(g403
S'ADVNCP'
tp478
F7
s(S'MP'
S'MADVPPNP'
tp479
F1
s(g421
S'AADP'
tp480
F35
s(S'MP'
S'MMDDDP'
tp481
F1
s(S'MP'
S'MPDDP'
tp482
F3
s(g318
S'ACDP'
tp483
F22
s(S'VP'
S'VCCP'
tp484
F4
s(S'AP'
S'ADVANP'
tp485
F1
s(g91
S'NNACP'
tp486
F3
s(S'MP'
S'MDNNP'
tp487
F2
s(S'CP'
S'CDADVPPP'
tp488
F1
s(g238
S'VAP'
tp489
F128
s(S'VP'
S'VVVVNP'
tp490
F1
s(S'DP'
S'DDDPP'
tp491
F9
s(S'CP'
S'ADVCDDP'
tp492
F1
s(g387
S'ADVPMP'
tp493
F1
s(g133
S'DDDPPPP'
tp494
F1
s(g81
S'VVPPPPP'
tp495
F1
s(S'AP'
S'ADVADVADVAMP'
tp496
F1
s(S'MP'
S'MVVVDP'
tp497
F1
s(S'MP'
S'MAVPP'
tp498
F1
s(S'DP'
S'DDDPPP'
tp499
F2
s(g5
S'ADVAVDP'
tp500
F3
s(S'DP'
S'DADVDP'
tp501
F1
s(S'AP'
S'AAACP'
tp502
F1
s(S'AP'
S'AVVP'
tp503
F6
s(S'AP'
S'AAAMMMP'
tp504
F1
s(g307
S'MANVP'
tp505
F1
s(S'PP'
p506
S'PPPVP'
tp507
F7
s(S'AP'
S'AADDP'
tp508
F4
s(S'VP'
S'VAANP'
tp509
F2
s(S'NP'
S'NADVADVCP'
tp510
F1
s(S'DP'
S'DDAAVVP'
tp511
F1
s(g98
S'VVDP'
tp512
F46
s(S'MP'
S'MVVMP'
tp513
F1
s(S'MP'
p514
S'MPNP'
tp515
F28
s(S'MP'
S'MADP'
tp516
F9
s(S'AP'
S'AMMP'
tp517
F2
s(S'DP'
S'AADDVP'
tp518
F1
s(g155
S'PANP'
tp519
F35
s(S'PP'
S'PDDDP'
tp520
F4
s(S'DP'
S'ADVADPP'
tp521
F1
s(S'NP'
S'AANMP'
tp522
F1
s(S'NP'
S'ANDDDP'
tp523
F1
s(S'NP'
S'NAAP'
tp524
F5
s(g297
S'NDDP'
tp525
F11
s(S'CP'
S'ADVADVCDP'
tp526
F1
s(S'VP'
S'VVADVDDP'
tp527
F1
s(S'AP'
S'ACCP'
tp528
F5
s(S'DP'
S'ADAAP'
tp529
F1
s(g361
S'DDDADVPP'
tp530
F1
s(g91
S'NDP'
tp531
F119
s(S'MP'
S'MAANPP'
tp532
F1
s(S'NP'
S'AAANVP'
tp533
F2
s(S'MP'
S'MVAAP'
tp534
F1
s(g19
S'DDVP'
tp535
F30
s(S'NP'
S'AANVP'
tp536
F4
s(S'DP'
S'DADVADVAPP'
tp537
F1
s(g243
S'VNNNP'
tp538
F4
s(g234
S'ADVPAP'
tp539
F3
s(g108
S'PCP'
tp540
F10
s(S'VP'
S'VADVADP'
tp541
F1
s(g190
S'PAADP'
tp542
F3
s(S'NP'
S'ADVNNVP'
tp543
F2
s(g514
S'MDNP'
tp544
F32
s(g238
S'VPPPP'
tp545
F4
s(S'VP'
S'VADVMMP'
tp546
F1
s(S'MP'
S'MPAP'
tp547
F1
s(S'MP'
S'MVNNNP'
tp548
F1
s(S'NP'
S'NNNDP'
tp549
F1
s(S'AP'
S'ADVACP'
tp550
F4
s(g149
S'ADVADVNMP'
tp551
F2
s(S'VP'
S'AVVDP'
tp552
F2
s(S'DP'
S'ADPPP'
tp553
F2
s(S'MP'
S'MVCP'
tp554
F7
s(S'CP'
S'CCDDP'
tp555
F8
s(S'VP'
S'AAVVNNP'
tp556
F1
s(S'NP'
S'NNADVVP'
tp557
F2
s(g174
S'ADVADVADVVPP'
tp558
F1
s(S'MP'
S'MVMP'
tp559
F1
s(S'DP'
S'DADVNP'
tp560
F8
s(g98
S'VVCP'
tp561
F13
s(S'NP'
p562
S'AANCP'
tp563
F8
s(S'VP'
S'VADVNP'
tp564
F3
s(S'VP'
S'ADVAVAP'
tp565
F1
s(S'AP'
S'ADVAVVP'
tp566
F1
s(S'NP'
S'NNDDP'
tp567
F3
s(S'DP'
S'DDDDPPP'
tp568
F1
s(S'VP'
S'ADVVPP'
tp569
F3
s(S'CP'
S'CDAPPP'
tp570
F1
s(g139
S'VNNP'
tp571
F29
s(S'AP'
S'AADVDP'
tp572
F1
s(S'AP'
p573
S'AAAMP'
tp574
F2
s(S'NP'
S'NADP'
tp575
F4
s(S'MP'
S'MDADVADVADVNNP'
tp576
F1
s(S'DP'
p577
S'DDNP'
tp578
F55
s(g406
S'NADVCP'
tp579
F5
s(S'DP'
S'DDNNP'
tp580
F6
s(S'PP'
S'AAPPP'
tp581
F1
s(S'VP'
S'VPPPPP'
tp582
F1
s(S'NP'
S'NNADVADVCCP'
tp583
F1
s(S'VP'
S'AAVNNP'
tp584
F1
s(g116
S'AADPP'
tp585
F7
s(S'VP'
S'AAVMP'
tp586
F1
s(S'PP'
S'APPNP'
tp587
F2
s(S'PP'
S'ADVADVPPDP'
tp588
F1
s(S'VP'
S'VVMMP'
tp589
F1
s(S'AP'
S'AAMMP'
tp590
F1
s(S'CP'
S'CDPPPPP'
tp591
F1
s(g514
S'MVAAAP'
tp592
F1
s(S'MP'
S'MVVNP'
tp593
F2
s(S'CP'
S'CDDADVPPP'
tp594
F1
s(S'NP'
S'AAANCP'
tp595
F1
s(S'CP'
S'ACDDP'
tp596
F2
s(S'DP'
S'ADVDDNNP'
tp597
F1
s(S'PP'
S'PPPADVDP'
tp598
F1
s(S'AP'
S'AAPP'
tp599
F11
s(S'AP'
S'ADVADVACCP'
tp600
F1
s(S'VP'
S'VVCCP'
tp601
F1
s(g180
S'PADVMP'
tp602
F2
s(S'DP'
S'DAAAPP'
tp603
F1
s(S'PP'
S'ADVPANP'
tp604
F1
s(g188
S'NNPPP'
tp605
F7
s(g57
S'NAPP'
tp606
F23
s(S'AP'
S'ADVAAVP'
tp607
F1
s(S'VP'
S'VVVCP'
tp608
F2
s(S'NP'
S'ANCCP'
tp609
F3
s(g451
S'AANPP'
tp610
F4
s(g245
S'VDDDP'
tp611
F6
s(S'NP'
S'NNMP'
tp612
F18
s(S'DP'
S'DDDVP'
tp613
F2
s(S'DP'
S'DDAANNP'
tp614
F1
s(g514
S'MAPDP'
tp615
F2
s(g136
S'PAAAP'
tp616
F2
s(S'PP'
S'ADVADVPNP'
tp617
F1
s(S'MP'
S'MDANP'
tp618
F1
s(S'VP'
S'ADVAVNNP'
tp619
F1
s(S'CP'
S'CDDAPP'
tp620
F5
s(S'NP'
S'ANAP'
tp621
F2
s(S'MP'
p622
S'MVAP'
tp623
F13
s(S'VP'
p624
S'VADVADVDDP'
tp625
F1
s(g622
S'MVVVAP'
tp626
F1
s(g624
S'VADVPPP'
tp627
F1
s(S'DP'
p628
S'ADVDPP'
tp629
F13
s(S'DP'
p630
S'DADVAVP'
tp631
F2
s(S'AP'
S'ADVADVAPP'
tp632
F1
s(S'PP'
S'PPADVVVP'
tp633
F1
s(S'VP'
S'VADVCCP'
tp634
F1
s(g310
S'VADVADVADVNNP'
tp635
F1
s(g419
S'DVVVP'
tp636
F1
s(S'PP'
p637
S'PPADVPP'
tp638
F1
s(g630
S'ADVADVADVDNP'
tp639
F1
s(S'PP'
S'PACP'
tp640
F1
s(S'PP'
p641
S'PPDDP'
tp642
F4
s(S'VP'
S'AVCP'
tp643
F2
s(S'NP'
S'ADVNNPPP'
tp644
F1
s(g19
S'DPP'
tp645
F327
s(S'NP'
S'ADVNVP'
tp646
F7
s(S'DP'
S'DDDVVP'
tp647
F2
s(g19
S'DDPP'
tp648
F76
s(S'DP'
S'DDADVPPP'
tp649
F1
s(g577
S'DANP'
tp650
F63
s(S'AP'
S'ADVAMP'
tp651
F3
s(g297
S'NADVPP'
tp652
F5
s(g145
S'NNADVADVPP'
tp653
F1
s(S'NP'
S'NADVADP'
tp654
F1
s(S'PP'
S'AAPPVP'
tp655
F1
s(g149
S'NAAVP'
tp656
F7
s(S'MP'
S'AMMVVP'
tp657
F1
s(g354
S'AADNP'
tp658
F1
s(S'NP'
S'NNNNCP'
tp659
F1
s(S'NP'
S'NADVCCP'
tp660
F3
s(S'NP'
S'NNNVVP'
tp661
F1
s(g70
S'PADVPPP'
tp662
F1
s(S'PP'
p663
S'AAPDP'
tp664
F1
s(S'MP'
S'MADVVDP'
tp665
F2
s(g110
S'VVVAP'
tp666
F2
s(S'PP'
p667
S'PDDP'
tp668
F50
s(S'MP'
S'MVDDP'
tp669
F1
s(S'NP'
S'AAAANCP'
tp670
F1
s(g265
S'NNVP'
tp671
F51
s(S'PP'
S'PADVADVADVDP'
tp672
F1
s(S'PP'
S'PPPMP'
tp673
F1
s(g637
S'APAAP'
tp674
F2
s(S'NP'
p675
S'NNP'
tp676
F2
s(S'VP'
p677
S'VVDDP'
tp678
F4
s(S'DP'
S'DAANP'
tp679
F8
s(S'MP'
S'MDADVNP'
tp680
F1
s(S'AP'
p681
S'ADDP'
tp682
F25
s(S'PP'
p683
S'ADVPPNP'
tp684
F5
s(g273
S'VADVADVADVVP'
tp685
F1
s(g16
S'ADVADVPADVNNNP'
tp686
F1
s(S'MP'
S'MDAP'
tp687
F3
s(S'CP'
S'CADVADVDPP'
tp688
F2
s(g19
S'DPPP'
tp689
F71
s(S'NP'
S'NADVADVAAP'
tp690
F1
s(g282
S'DADVADVADVNNP'
tp691
F1
s(S'DP'
S'AADPPP'
tp692
F1
s(S'PP'
S'ADVADVPPNP'
tp693
F1
s(S'AP'
S'AAAP'
tp694
F1
s(S'NP'
S'NMMMP'
tp695
F2
s(g180
S'ADVPNP'
tp696
F10
s(g641
S'PPDP'
tp697
F43
s(g352
S'MAVDP'
tp698
F1
s(S'MP'
S'MVVAP'
tp699
F3
s(g577
S'DDCP'
tp700
F4
s(g152
S'VMMMP'
tp701
F1
s(S'MP'
S'MNCCP'
tp702
F1
s(g57
S'NAP'
tp703
F65
s(g59
S'VAAAP'
tp704
F3
s(S'MP'
S'MPPCP'
tp705
F1
s(g174
S'VVP'
tp706
F46
s(g675
S'NNVVP'
tp707
F9
s(S'MP'
S'MAPP'
tp708
F2
s(g16
S'APNP'
tp709
F32
s(g332
S'VVVNNP'
tp710
F1
s(S'DP'
p711
S'DDVVP'
tp712
F7
s(S'AP'
S'AAADDP'
tp713
F1
s(S'VP'
S'VVVNP'
tp714
F7
s(S'MP'
S'MNPP'
tp715
F9
s(S'NP'
S'NNADVPP'
tp716
F2
s(S'MP'
S'MVANP'
tp717
F2
s(S'MP'
S'MAVVDP'
tp718
F1
s(g472
S'MVNNP'
tp719
F3
s(g318
S'CDPP'
tp720
F284
s(g127
S'ADVVADVVP'
tp721
F1
s(S'PP'
S'PAAAADP'
tp722
F1
s(S'MP'
S'MVVNNP'
tp723
F1
s(S'AP'
S'ADDDP'
tp724
F2
s(S'MP'
S'MVADVPP'
tp725
F1
s(g57
S'NNDP'
tp726
F20
s(S'MP'
S'MMMVP'
tp727
F1
s(S'MP'
S'MADVADVVVCP'
tp728
F1
s(S'CP'
S'ADVCDP'
tp729
F7
s(g222
S'ADVAAP'
tp730
F1
s(S'VP'
p731
S'ADVADVVNP'
tp732
F1
s(S'NP'
S'NADVVP'
tp733
F5
s(S'VP'
S'VADVADVDP'
tp734
F1
s(S'PP'
S'PPNNP'
tp735
F8
s(S'NP'
S'NNADVADVVP'
tp736
F1
s(S'PP'
S'ADVAPPP'
tp737
F1
s(S'DP'
S'ADVADVDPP'
tp738
F2
s(g238
S'VDP'
tp739
F248
s(S'PP'
S'PPPADVNP'
tp740
F1
s(S'AP'
S'ADVAADVDP'
tp741
F1
s(g731
S'AVDDP'
tp742
F6
s(S'VP'
S'VVADVMMP'
tp743
F1
s(S'VP'
S'VVDDDP'
tp744
F1
s(S'DP'
S'DAP'
tp745
F43
s(S'MP'
S'MAVNP'
tp746
F1
s(S'CP'
S'CADPP'
tp747
F23
s(S'NP'
S'NADVAVP'
tp748
F1
s(S'PP'
S'PPAVP'
tp749
F3
s(S'PP'
p750
S'PPDDDP'
tp751
F1
s(g147
S'AVPP'
tp752
F8
s(S'CP'
S'CAADPPP'
tp753
F1
s(S'VP'
S'VVADVDP'
tp754
F2
s(S'CP'
S'CDADVADVPP'
tp755
F1
s(g464
S'CDPPPP'
tp756
F8
s(g677
S'VADVADVCCP'
tp757
F1
s(S'VP'
S'AAVDP'
tp758
F3
s(g506
S'PANNP'
tp759
F3
s(g667
S'APPP'
tp760
F6
s(S'DP'
S'ADPPPP'
tp761
F1
s(S'DP'
S'DAPPP'
tp762
F1
s(S'DP'
S'DADVADVPP'
tp763
F1
s(g121
S'AANVVP'
tp764
F2
s(g16
S'PPPNP'
tp765
F8
s(S'NP'
S'AAANPP'
tp766
F1
s(g136
S'PADVADVNP'
tp767
F1
s(g628
S'ADVADVADVDDPP'
tp768
F1
s(g41
S'ADPP'
tp769
F32
s(S'NP'
S'NNADVVVP'
tp770
F1
s(S'VP'
S'VADVPP'
tp771
F3
s(S'DP'
S'DDAAPP'
tp772
F1
s(g217
S'ADVDANP'
tp773
F2
s(S'PP'
S'PVVVVP'
tp774
F1
s(g108
S'ADVPVP'
tp775
F4
s(S'DP'
S'DDDDPP'
tp776
F4
s(S'DP'
S'ADMP'
tp777
F1
s(S'MP'
S'MVMMP'
tp778
F1
s(g451
S'NNVVVP'
tp779
F3
s(g369
S'ADVPDP'
tp780
F5
s(S'MP'
S'MPVVP'
tp781
F1
s(g55
S'ANNPP'
tp782
F3
s(g91
S'NCP'
tp783
F268
s(S'CP'
S'CADVDPPP'
tp784
F1
s(S'VP'
S'ADVVVPP'
tp785
F1
s(g424
S'CCADVADVADVDDP'
tp786
F1
s(g681
S'AADVMP'
tp787
F2
s(S'AP'
S'AAMP'
tp788
F7
s(S'NP'
S'AANDP'
tp789
F3
s(S'DP'
S'DADVNNP'
tp790
F2
s(S'NP'
S'NNCCP'
tp791
F8
s(S'MP'
S'MNVP'
tp792
F5
s(S'CP'
S'ADVADVCCDP'
tp793
F2
s(g289
S'AMPPP'
tp794
F1
s(g683
S'PADVADVAP'
tp795
F2
s(g238
S'VAPP'
tp796
F12
s(S'MP'
S'MPPNNP'
tp797
F2
s(g152
S'ADVVDP'
tp798
F9
s(S'PP'
S'APADVNP'
tp799
F1
s(S'DP'
S'DADVPP'
tp800
F15
s(g573
S'AMP'
tp801
F66
s(g469
S'CCADP'
tp802
F2
s(S'VP'
S'ADVADVVVANP'
tp803
F1
s(S'NP'
S'ADVNNCP'
tp804
F1
s(g711
S'ADVDAP'
tp805
F1
s(S'AP'
S'ADVAPP'
tp806
F3
s(g27
S'DDADVAPP'
tp807
F1
s(S'CP'
S'CDDADVAPP'
tp808
F1
s(g145
S'AAANDP'
tp809
F2
s(S'CP'
S'AACDP'
tp810
F1
s(S'NP'
S'NNNCCP'
tp811
F1
s(S'CP'
S'CCDDDP'
tp812
F2
s(g345
S'ADVDPPP'
tp813
F1
s(g19
S'DVP'
tp814
F223
s(S'NP'
S'ADVNPP'
tp815
F4
s(S'NP'
S'ADVADVANMP'
tp816
F1
s(S'NP'
S'NNCCCP'
tp817
F1
s(g573
S'AVP'
tp818
F40
s(S'MP'
S'MNPPP'
tp819
F1
s(S'CP'
S'CDAAAPP'
tp820
F1
s(g373
S'ADVVPPP'
tp821
F1
s(g79
S'DDPPP'
tp822
F10
s(g562
S'ADVNMP'
tp823
F3
s(S'NP'
S'NNAP'
tp824
F4
s(g750
S'PPANP'
tp825
F2
s(S'MP'
S'MCDDP'
tp826
F1
s(S'CP'
S'CDADVPP'
tp827
F11
s(g238
S'VNP'
tp828
F210
s(g373
S'VANP'
tp829
F19
s(S'VP'
S'VADVAP'
tp830
F10
s(g663
S'PPADVNP'
tp831
F1
s(S'DP'
S'DDDDDDP'
tp832
F1
s(S'VP'
S'ADVADVVVDP'
tp833
F1
s.