ccollections
defaultdict
p1
(c__builtin__
float
p2
tRp3
(S'DP'
p4
S'DDPP'
tp5
F3
s(S'DP'
S'DDAVP'
tp6
F1
s(S'DP'
p7
S'DANP'
tp8
F7
s(S'AP'
p9
S'ADVAMP'
tp10
F1
s(S'NP'
p11
S'ANPP'
tp12
F3
s(S'PP'
p13
S'PPPPP'
tp14
F1
s(S'MP'
S'MPDP'
tp15
F4
s(S'PP'
S'ADVADVPDP'
tp16
F1
s(S'VP'
S'VVNP'
tp17
F2
s(S'MP'
S'MVVPP'
tp18
F1
s(S'PP'
p19
S'PADVANP'
tp20
F1
s(S'VP'
S'VAAP'
tp21
F2
s(S'PP'
S'PAPP'
tp22
F2
s(S'PP'
p23
S'PADVNP'
tp24
F2
s(S'NP'
p25
S'NVVP'
tp26
F4
s(S'DP'
p27
S'DNP'
tp28
F23
s(S'PP'
p29
S'PNNP'
tp30
F3
s(S'VP'
S'VVVVADVNP'
tp31
F1
s(S'VP'
p32
S'VADVADVVP'
tp33
F1
s(g7
S'ADDPPP'
tp34
F1
s(S'NP'
p35
S'ADVNPPP'
tp36
F1
s(S'MP'
p37
S'MMPP'
tp38
F1
s(S'CP'
S'CDPPP'
tp39
F3
s(S'DP'
S'DDADVNP'
tp40
F1
s(g4
S'ADNP'
tp41
F3
s(S'VP'
S'AVAP'
tp42
F1
s(S'VP'
p43
S'VADP'
tp44
F3
s(S'VP'
p45
S'VMMP'
tp46
F2
s(S'DP'
p47
S'DAAP'
tp48
F1
s(g47
S'ADPP'
tp49
F2
s(g23
S'PDDP'
tp50
F7
s(S'CP'
p51
S'ACDP'
tp52
F2
s(S'VP'
S'ADVADVADVVVPP'
tp53
F1
s(S'NP'
S'NNNCP'
tp54
F1
s(S'MP'
S'MDNNP'
tp55
F1
s(S'VP'
p56
S'VAP'
tp57
F17
s(S'PP'
p58
S'APVP'
tp59
F2
s(S'MP'
S'MVDP'
tp60
F2
s(S'VP'
S'VVADVAP'
tp61
F1
s(S'PP'
S'PPPP'
tp62
F1
s(S'AP'
S'ADVAPPP'
tp63
F1
s(g32
S'VVDDP'
tp64
F1
s(S'DP'
p65
S'DAANP'
tp66
F1
s(S'MP'
p67
S'MVVAP'
tp68
F1
s(S'AP'
p69
S'AADVADVADVMP'
tp70
F1
s(S'DP'
S'DADVANP'
tp71
F1
s(S'DP'
S'DPPP'
tp72
F5
s(S'CP'
S'CADVDAPP'
tp73
F1
s(g43
S'VCP'
tp74
F4
s(g58
S'PPNNP'
tp75
F1
s(S'NP'
S'NDDP'
tp76
F2
s(S'DP'
p77
S'ADVP'
tp78
F1
s(S'MP'
S'MVADP'
tp79
F1
s(S'PP'
p80
S'PAP'
tp81
F2
s(S'VP'
S'VADVADVAP'
tp82
F2
s(S'PP'
S'ADVPNP'
tp83
F1
s(S'PP'
S'PPDP'
tp84
F6
s(S'NP'
p85
S'ANPPP'
tp86
F1
s(S'VP'
p87
S'AVNNP'
tp88
F1
s(S'MP'
S'MVVDP'
tp89
F1
s(S'PP'
S'PPADVAAP'
tp90
F1
s(g37
S'MPNP'
tp91
F1
s(g29
S'PNP'
tp92
F21
s(S'MP'
S'MADP'
tp93
F1
s(S'DP'
S'DNNNP'
tp94
F1
s(S'AP'
S'AMMP'
tp95
F1
s(g4
S'DDP'
tp96
F3
s(S'AP'
S'AAPPP'
tp97
F1
s(g80
S'PANP'
tp98
F3
s(g56
S'VADVADVPPP'
tp99
F1
s(g25
S'NNDP'
tp100
F1
s(S'VP'
p101
S'ADVVCP'
tp102
F1
s(S'NP'
p103
S'AANMP'
tp104
F1
s(S'AP'
S'AAVP'
tp105
F1
s(S'NP'
p106
S'NAAP'
tp107
F1
s(g32
S'ADVADVVVP'
tp108
F1
s(S'CP'
p109
S'CCDP'
tp110
F8
s(S'NP'
p111
S'NAP'
tp112
F5
s(S'NP'
p113
S'NMP'
tp114
F6
s(S'NP'
p115
S'NVVVP'
tp116
F1
s(g106
S'NDP'
tp117
F7
s(g19
S'PNNNP'
tp118
F1
s(S'DP'
p119
S'DVP'
tp120
F21
s(g56
S'VVP'
tp121
F1
s(S'DP'
p122
S'DDVP'
tp123
F1
s(g29
S'PDP'
tp124
F28
s(S'NP'
S'ANDP'
tp125
F1
s(S'AP'
S'AAADP'
tp126
F1
s(S'NP'
S'ADVNVVP'
tp127
F1
s(S'PP'
S'APNP'
tp128
F3
s(g9
S'ADVADVAAP'
tp129
F1
s(S'DP'
S'DDVVP'
tp130
F1
s(S'PP'
p131
S'PPP'
tp132
F13
s(g45
S'VMP'
tp133
F3
s(g35
S'NNVVP'
tp134
F2
s(g85
S'NAVP'
tp135
F1
s(S'AP'
S'ANP'
tp136
F1
s(S'PP'
S'PCP'
tp137
F1
s(g56
S'VVCP'
tp138
F1
s(S'CP'
S'CDPP'
tp139
F25
s(S'MP'
p140
S'MDNP'
tp141
F2
s(g103
S'NNNMP'
tp142
F1
s(S'DP'
S'DPPPP'
tp143
F1
s(S'VP'
p144
S'VPP'
tp145
F9
s(g35
S'NACP'
tp146
F1
s(S'AP'
p147
S'ADVACP'
tp148
F1
s(g109
S'ADVCDP'
tp149
F2
s(g45
S'VVVAP'
tp150
F1
s(g113
S'NNVP'
tp151
F5
s(S'NP'
p152
S'NNCP'
tp153
F5
s(g43
S'VVPP'
tp154
F3
s(S'CP'
S'CDDPP'
tp155
F3
s(S'PP'
p156
S'PVVP'
tp157
F2
s(S'AP'
p158
S'AACP'
tp159
F4
s(S'VP'
p160
S'AVNP'
tp161
F3
s(S'NP'
S'NNNNNCP'
tp162
F1
s(S'NP'
S'NCCP'
tp163
F3
s(S'PP'
S'PPAP'
tp164
F2
s(g27
S'DADVNP'
tp165
F1
s(g101
S'AVDDP'
tp166
F1
s(S'MP'
S'MMADVADVADVVVP'
tp167
F1
s(g144
S'VVPPP'
tp168
F2
s(g77
S'DAP'
tp169
F8
s(S'CP'
p170
S'CADPP'
tp171
F2
s(S'MP'
S'MMNP'
tp172
F1
s(S'VP'
p173
S'VDP'
tp174
F23
s(g27
S'DVVP'
tp175
F4
s(g80
S'ADVAPDP'
tp176
F1
s(g56
S'VVMP'
tp177
F3
s(g87
S'AVPP'
tp178
F1
s(g147
S'ADVAACP'
tp179
F1
s(S'AP'
S'APPP'
tp180
F1
s(g23
S'ADVPPP'
tp181
F2
s(g115
S'ADVADVNVP'
tp182
F1
s(S'VP'
p183
S'VNNP'
tp184
F1
s(S'CP'
S'CADVDPP'
tp185
F1
s(S'CP'
S'CCCDP'
tp186
F1
s(g160
S'ADVVAP'
tp187
F1
s(g119
S'DDNP'
tp188
F6
s(S'NP'
p189
S'NADVCP'
tp190
F1
s(g111
S'ANCP'
tp191
F5
s(g4
S'DADVADVPP'
tp192
F1
s(S'DP'
S'DCP'
tp193
F1
s(S'DP'
S'ADVDPP'
tp194
F1
s(g11
S'NADVAPP'
tp195
F1
s(S'NP'
S'ADVANVP'
tp196
F2
s(g152
S'ADVNAAP'
tp197
F1
s(S'MP'
S'MMVP'
tp198
F1
s(S'PP'
S'PADVADVNP'
tp199
F1
s(S'AP'
S'AADVCP'
tp200
F1
s(g158
S'AADP'
tp201
F3
s(S'MP'
S'MADVVCP'
tp202
F1
s(g170
S'CDDPPP'
tp203
F1
s(S'PP'
S'PVVVVP'
tp204
F2
s(S'VP'
S'VVVVDP'
tp205
F1
s(S'PP'
S'ADVPVP'
tp206
F2
s(g43
S'VVDP'
tp207
F4
s(g152
S'NPPP'
tp208
F4
s(S'MP'
S'MAVNP'
tp209
F1
s(g65
S'DAVP'
tp210
F1
s(S'DP'
S'DDADVADVPP'
tp211
F1
s(S'DP'
S'DNNP'
tp212
F9
s(g113
S'NCP'
tp213
F19
s(g65
S'DDDP'
tp214
F1
s(S'PP'
p215
S'PPNP'
tp216
F6
s(S'AP'
S'ADVACCP'
tp217
F1
s(S'DP'
p218
S'ADVDAPP'
tp219
F1
s(S'AP'
S'ADVADVACCP'
tp220
F1
s(g218
S'DMMP'
tp221
F1
s(g13
S'PADVVP'
tp222
F1
s(g103
S'NNCCP'
tp223
F1
s(S'CP'
S'CDPPPP'
tp224
F1
s(g69
S'ADP'
tp225
F12
s(S'NP'
p226
S'NAPP'
tp227
F6
s(S'AP'
S'APP'
tp228
F9
s(S'DP'
S'DDNNNNNP'
tp229
F1
s(S'VP'
S'ADVVDP'
tp230
F1
s(S'CP'
S'CADDPPP'
tp231
F1
s(g122
S'DADVPP'
tp232
F6
s(g11
S'ANCCP'
tp233
F2
s(S'AP'
S'AMP'
tp234
F3
s(g115
S'NNMP'
tp235
F1
s(S'VP'
S'AVDP'
tp236
F2
s(g173
S'VVAP'
tp237
F2
s(S'MP'
S'MVAP'
tp238
F2
s(g131
S'PVP'
tp239
F17
s(g67
S'MVNP'
tp240
F2
s(S'AP'
S'AVP'
tp241
F5
s(S'NP'
S'NADVVP'
tp242
F1
s(g140
S'ADVADVADVMVP'
tp243
F1
s(g183
S'VCCCP'
tp244
F1
s(g215
S'PAVP'
tp245
F3
s(g47
S'DDPPP'
tp246
F2
s(g131
S'ADVADVPPVP'
tp247
F1
s(g189
S'ADVNAVP'
tp248
F1
s(S'NP'
S'ADVNMP'
tp249
F1
s(g226
S'NNAP'
tp250
F1
s(g113
S'NPP'
tp251
F20
s(g101
S'VAPP'
tp252
F1
s(g106
S'NVP'
tp253
F20
s(g119
S'DPP'
tp254
F32
s(g51
S'CDADVPP'
tp255
F5
s(g173
S'VNP'
tp256
F11
s(g87
S'VANP'
tp257
F1
s(g173
S'VDDP'
tp258
F5
s(S'VP'
S'VAAAP'
tp259
F1
s(S'VP'
S'VADVAP'
tp260
F3
s(g156
S'PPADVNP'
tp261
F2
s(S'PP'
S'APDP'
tp262
F4
s(g158
S'ACP'
tp263
F8
s(S'NP'
S'ADVNVP'
tp264
F2
s.