ccollections
defaultdict
p1
(c__builtin__
float
p2
tRp3
(S'DP'
p4
S'ADDPP'
tp5
F2
s(S'DP'
p6
S'DDAP'
tp7
F2
s(S'VP'
p8
S'ADVVVNP'
tp9
F1
s(S'CP'
S'CCDDDDP'
tp10
F1
s(S'VP'
p11
S'VVVVP'
tp12
F1
s(S'PP'
p13
S'PAPP'
tp14
F9
s(S'PP'
p15
S'PADVNP'
tp16
F9
s(S'DP'
p17
S'DNP'
tp18
F88
s(S'NP'
p19
S'ADVNDP'
tp20
F1
s(S'CP'
p21
S'CDPPP'
tp22
F31
s(S'VP'
p23
S'VADP'
tp24
F16
s(S'DP'
p25
S'DNNNNP'
tp26
F1
s(S'DP'
p27
S'DAAP'
tp28
F9
s(g25
S'DAADP'
tp29
F1
s(g6
S'ADNNP'
tp30
F4
s(g8
S'ADVVNP'
tp31
F3
s(S'MP'
p32
S'MVDP'
tp33
F18
s(S'PP'
p34
S'PADVANP'
tp35
F1
s(g13
S'PPPP'
tp36
F16
s(S'VP'
S'VVVVDDP'
tp37
F1
s(S'DP'
S'DDDNP'
tp38
F2
s(S'MP'
S'AMCP'
tp39
F1
s(S'VP'
p40
S'VACP'
tp41
F8
s(S'DP'
S'DADVVP'
tp42
F4
s(S'MP'
S'MMCP'
tp43
F1
s(S'PP'
p44
S'PADVNNP'
tp45
F1
s(S'AP'
S'AADVPP'
tp46
F1
s(S'NP'
p47
S'NADVACP'
tp48
F2
s(S'NP'
S'NCCCP'
tp49
F1
s(S'CP'
S'CADVDAPP'
tp50
F1
s(S'VP'
p51
S'VCP'
tp52
F39
s(S'NP'
S'NMMP'
tp53
F1
s(S'VP'
S'ADVVAAP'
tp54
F2
s(S'PP'
p55
S'PAP'
tp56
F53
s(S'PP'
p57
S'ADVPPVP'
tp58
F1
s(S'NP'
p59
S'ANPPP'
tp60
F1
s(g15
S'PPADVDP'
tp61
F2
s(S'MP'
p62
S'MADVADVADVDDNP'
tp63
F1
s(S'VP'
p64
S'ADVADVVPPP'
tp65
F1
s(g55
S'PNP'
tp66
F92
s(g17
S'DDP'
tp67
F22
s(S'NP'
S'NNNPP'
tp68
F1
s(S'PP'
p69
S'PAAP'
tp70
F13
s(S'MP'
p71
S'MCDP'
tp72
F9
s(S'MP'
S'AMPP'
tp73
F1
s(S'NP'
p74
S'NMP'
tp75
F26
s(S'NP'
p76
S'ADVNAPP'
tp77
F1
s(S'VP'
p78
S'VMMP'
tp79
F3
s(S'PP'
p80
S'PDP'
tp81
F88
s(S'CP'
p82
S'CDADVADVPP'
tp83
F1
s(g64
S'VNNNNP'
tp84
F1
s(S'DP'
p85
S'ADVADVDAPP'
tp86
F2
s(S'AP'
S'ANP'
tp87
F1
s(S'NP'
S'ADVADVADVADVNCP'
tp88
F1
s(S'CP'
S'CDDAPPP'
tp89
F1
s(S'AP'
S'ADVADVADVADVADP'
tp90
F1
s(S'NP'
p91
S'ADVNACP'
tp92
F2
s(S'DP'
p93
S'DPPPP'
tp94
F4
s(S'PP'
p95
S'PADVADP'
tp96
F1
s(S'NP'
p97
S'NACP'
tp98
F21
s(S'NP'
p99
S'NCCP'
tp100
F24
s(S'MP'
p101
S'MNVVVVP'
tp102
F1
s(S'AP'
p103
S'AAAADP'
tp104
F1
s(S'NP'
S'NNCP'
tp105
F34
s(S'DP'
S'ADVDDPP'
tp106
F3
s(S'NP'
p107
S'NADVADVVP'
tp108
F1
s(S'DP'
p109
S'DPPPPP'
tp110
F1
s(S'NP'
p111
S'NNPPPP'
tp112
F1
s(S'DP'
p113
S'DDAPP'
tp114
F1
s(S'VP'
p115
S'AVNP'
tp116
F5
s(S'DP'
S'DDAVVP'
tp117
F1
s(S'VP'
S'AVDDDP'
tp118
F1
s(S'VP'
p119
S'VADVVP'
tp120
F1
s(S'MP'
S'MVAPP'
tp121
F1
s(S'NP'
p122
S'ANADVVP'
tp123
F1
s(S'PP'
S'ADVAPVP'
tp124
F1
s(S'CP'
S'CCCDP'
tp125
F1
s(S'VP'
p126
S'ADVVAP'
tp127
F4
s(g13
S'APDP'
tp128
F23
s(S'MP'
S'ADVAMDP'
tp129
F1
s(g103
S'AADVCP'
tp130
F2
s(S'DP'
p131
S'DDANNP'
tp132
F2
s(S'AP'
p133
S'AADVACP'
tp134
F2
s(S'VP'
S'VVANP'
tp135
F1
s(S'VP'
S'ADVVVP'
tp136
F1
s(S'MP'
p137
S'MAVNP'
tp138
F1
s(S'MP'
S'MPNNP'
tp139
F1
s(S'DP'
p140
S'DNNP'
tp141
F22
s(S'CP'
p142
S'CADVDDPP'
tp143
F3
s(S'NP'
p144
S'NAMP'
tp145
F3
s(S'CP'
S'CCADVDP'
tp146
F4
s(S'VP'
p147
S'VAAAMP'
tp148
F1
s(g11
S'VVACP'
tp149
F1
s(S'PP'
p150
S'ADVPPAAP'
tp151
F1
s(S'PP'
p152
S'PADVVP'
tp153
F6
s(g55
S'APAP'
tp154
F5
s(S'AP'
p155
S'APP'
tp156
F22
s(S'AP'
p157
S'AAP'
tp158
F2
s(S'VP'
p159
S'VVAPP'
tp160
F2
s(g122
S'ADVANPP'
tp161
F1
s(S'MP'
S'MVVCP'
tp162
F1
s(S'CP'
p163
S'CDDDDPP'
tp164
F1
s(S'MP'
S'MPVP'
tp165
F3
s(S'MP'
p166
S'MAAPP'
tp167
F1
s(g15
S'PAANP'
tp168
F6
s(g99
S'ANVP'
tp169
F9
s(S'MP'
S'MVNP'
tp170
F9
s(S'MP'
S'MNDP'
tp171
F1
s(S'DP'
S'ADVADNP'
tp172
F1
s(g55
S'PAVP'
tp173
F15
s(S'PP'
p174
S'ADVADVPPVP'
tp175
F2
s(S'DP'
S'DDAPPP'
tp176
F1
s(S'MP'
S'MADVVPP'
tp177
F1
s(S'DP'
p178
S'DADP'
tp179
F2
s(g103
S'ADVADP'
tp180
F3
s(S'PP'
S'APDDP'
tp181
F3
s(S'NP'
p182
S'ADVNAP'
tp183
F1
s(S'DP'
S'ADVDDDP'
tp184
F2
s(S'PP'
S'PPCP'
tp185
F1
s(S'AP'
S'AVVP'
tp186
F1
s(g55
S'APVP'
tp187
F18
s(g32
S'MNCP'
tp188
F2
s(S'VP'
p189
S'VVNP'
tp190
F10
s(g174
S'ADVPPPP'
tp191
F2
s(g55
S'PPVP'
tp192
F16
s(g69
S'PPPADVNNP'
tp193
F1
s(S'VP'
p194
S'VADVDP'
tp195
F2
s(S'VP'
p196
S'VAAP'
tp197
F10
s(S'MP'
S'MANPP'
tp198
F1
s(S'NP'
p199
S'ANDP'
tp200
F6
s(g199
S'NVVP'
tp201
F17
s(S'PP'
p202
S'AAPVP'
tp203
F3
s(g69
S'PPADP'
tp204
F2
s(g8
S'VMP'
tp205
F20
s(S'VP'
p206
S'VVNNP'
tp207
F1
s(g21
S'CDAPP'
tp208
F25
s(S'MP'
p209
S'MMPP'
tp210
F1
s(g85
S'ADVADVP'
tp211
F1
s(S'DP'
S'ADVADVDDVP'
tp212
F1
s(S'DP'
p213
S'ADNP'
tp214
F22
s(g34
S'PADP'
tp215
F16
s(S'DP'
S'ADVDDNP'
tp216
F1
s(S'NP'
S'ANDDP'
tp217
F1
s(S'MP'
S'MPADVNP'
tp218
F1
s(S'MP'
p219
S'MDANP'
tp220
F2
s(g140
S'DAPP'
tp221
F41
s(S'VP'
S'AVVP'
tp222
F2
s(S'MP'
p223
S'MDDNP'
tp224
F1
s(S'PP'
S'AAAPVP'
tp225
F1
s(g78
S'ADVADVVDP'
tp226
F1
s(g202
S'PPPDP'
tp227
F3
s(g71
S'MVVAP'
tp228
F1
s(g4
S'DAAANP'
tp229
F1
s(S'DP'
p230
S'ADVDNP'
tp231
F6
s(g8
S'VVPP'
tp232
F6
s(S'CP'
S'CCADDP'
tp233
F1
s(S'CP'
p234
S'AACDDP'
tp235
F1
s(g32
S'MVPP'
tp236
F6
s(S'DP'
p237
S'ADVP'
tp238
F11
s(S'MP'
p239
S'MVADP'
tp240
F1
s(S'MP'
S'MDAAP'
tp241
F1
s(S'CP'
S'CDDPPP'
tp242
F6
s(g99
S'NNPP'
tp243
F16
s(g239
S'MMMPP'
tp244
F1
s(S'MP'
S'MVVDP'
tp245
F1
s(S'AP'
S'AACP'
tp246
F19
s(S'PP'
p247
S'PPVVP'
tp248
F2
s(g140
S'DNNNP'
tp249
F4
s(S'VP'
p250
S'VADVDDP'
tp251
F1
s(S'PP'
S'PVVVP'
tp252
F1
s(S'PP'
p253
S'PMP'
tp254
F14
s(S'NP'
p255
S'NNMMP'
tp256
F1
s(g21
S'CCDP'
tp257
F28
s(g239
S'AMVP'
tp258
F4
s(S'NP'
S'NVVVP'
tp259
F1
s(S'CP'
p260
S'CDDDPP'
tp261
F2
s(S'CP'
S'CDAAPP'
tp262
F3
s(S'VP'
p263
S'VVVDP'
tp264
F1
s(S'VP'
S'ADVVVMP'
tp265
F1
s(S'PP'
S'AAPNP'
tp266
F2
s(g80
S'PPP'
tp267
F69
s(g91
S'NAVP'
tp268
F6
s(S'PP'
p269
S'PADVAP'
tp270
F1
s(S'DP'
S'DDNNNP'
tp271
F1
s(S'MP'
p272
S'AMDP'
tp273
F2
s(g27
S'ADVDVP'
tp274
F6
s(g237
S'DAP'
tp275
F32
s(g59
S'NAAAP'
tp276
F1
s(S'DP'
S'DADVADVPPP'
tp277
F1
s(S'PP'
S'PPPPDP'
tp278
F1
s(g115
S'VPP'
tp279
F54
s(S'CP'
S'ADVCCDP'
tp280
F1
s(g142
S'ACCDP'
tp281
F3
s(S'MP'
S'MMADVNNP'
tp282
F1
s(S'NP'
p283
S'NNNCP'
tp284
F2
s(g152
S'PADVDP'
tp285
F7
s(S'CP'
S'CDADVAPP'
tp286
F1
s(S'DP'
S'DANNP'
tp287
F1
s(g21
S'CDDPP'
tp288
F28
s(S'DP'
p289
S'DAAPP'
tp290
F5
s(g55
S'PVVP'
tp291
F15
s(S'CP'
p292
S'CADPPP'
tp293
F5
s(S'DP'
p294
S'DADVPPP'
tp295
F3
s(S'VP'
S'VADVADVADVADVNP'
tp296
F1
s(g40
S'ADVVCP'
tp297
F3
s(S'VP'
p298
S'VPPP'
tp299
F6
s(S'VP'
S'AVCCP'
tp300
F1
s(g55
S'PPAP'
tp301
F7
s(g140
S'DVVP'
tp302
F14
s(S'CP'
S'CADVADVDAPP'
tp303
F2
s(g101
S'MNNNMP'
tp304
F1
s(g97
S'ANMP'
tp305
F1
s(S'AP'
S'APPP'
tp306
F1
s(g55
S'ADVPPP'
tp307
F5
s(S'VP'
p308
S'VVVP'
tp309
F3
s(S'CP'
S'CADVDPP'
tp310
F12
s(g159
S'AVMP'
tp311
F2
s(S'MP'
p312
S'MMADP'
tp313
F1
s(S'NP'
p314
S'ANCP'
tp315
F34
s(g237
S'DCP'
tp316
F5
s(S'NP'
S'AAANCP'
tp317
F1
s(S'DP'
S'DDDP'
tp318
F5
s(g113
S'DDADVPP'
tp319
F2
s(g115
S'VVDP'
tp320
F19
s(g99
S'NPPP'
tp321
F17
s(g269
S'PPAPP'
tp322
F1
s(S'DP'
S'DAVP'
tp323
F6
s(g159
S'AVVVP'
tp324
F2
s(g99
S'NNNMP'
tp325
F3
s(g155
S'ACP'
tp326
F46
s(S'PP'
S'PADVADVNNP'
tp327
F1
s(g55
S'PPNP'
tp328
F28
s(g152
S'APPPP'
tp329
F2
s(S'DP'
S'ADVDAPP'
tp330
F1
s(S'MP'
S'MMADVDP'
tp331
F1
s(g163
S'CDDADVPP'
tp332
F1
s(S'AP'
S'ADP'
tp333
F53
s(g4
S'DDADVVP'
tp334
F1
s(g247
S'APMP'
tp335
F1
s(g6
S'DDAVP'
tp336
F2
s(S'PP'
S'APVVP'
tp337
F1
s(g298
S'AVDP'
tp338
F19
s(S'VP'
S'VVAP'
tp339
F8
s(S'CP'
S'ADVACDP'
tp340
F4
s(S'PP'
S'PPADVVP'
tp341
F1
s(g23
S'AAVCP'
tp342
F1
s(S'NP'
p343
S'NADVADVDP'
tp344
F1
s(g314
S'NVP'
tp345
F69
s(g174
S'PAAVP'
tp346
F2
s(S'NP'
S'NAAPP'
tp347
F2
s(g230
S'ADVADAP'
tp348
F1
s(g8
S'VDDP'
tp349
F13
s(S'MP'
p350
S'MADVVMMP'
tp351
F1
s(S'AP'
p352
S'AAADVDP'
tp353
F1
s(S'DP'
S'DADVAPP'
tp354
F1
s(S'NP'
p355
S'ANPP'
tp356
F21
s(S'PP'
p357
S'PPPPP'
tp358
F3
s(S'MP'
p359
S'MPDP'
tp360
F14
s(S'PP'
S'ADVADVPDP'
tp361
F1
s(g213
S'ADVDPP'
tp362
F16
s(g93
S'DDDDDP'
tp363
F1
s(g47
S'NPPPP'
tp364
F4
s(g237
S'ADDP'
tp365
F2
s(g19
S'ADVNADP'
tp366
F1
s(S'CP'
S'CAADPP'
tp367
F2
s(g122
S'NAACP'
tp368
F4
s(g55
S'PNNP'
tp369
F30
s(g152
S'APNNP'
tp370
F4
s(g350
S'MMNP'
tp371
F1
s(g308
S'AVAP'
tp372
F3
s(g71
S'MMVP'
tp373
F4
s(S'PP'
p374
S'PADVDDP'
tp375
F2
s(g99
S'ADVNCP'
tp376
F8
s(g140
S'ADPP'
tp377
F42
s(g292
S'ACDP'
tp378
F33
s(g99
S'NNDP'
tp379
F4
s(S'NP'
S'NNACP'
tp380
F1
s(g292
S'CDADVPPP'
tp381
F1
s(g115
S'VAP'
tp382
F55
s(g93
S'DDDPP'
tp383
F3
s(g234
S'ADVCDDP'
tp384
F1
s(g253
S'ADVPMP'
tp385
F1
s(g209
S'AAMNP'
tp386
F1
s(S'VP'
S'VADVMP'
tp387
F1
s(S'PP'
p388
S'PAAPP'
tp389
F1
s(g250
S'VVPPPPP'
tp390
F1
s(S'MP'
S'MAVPP'
tp391
F1
s(g131
S'ADAP'
tp392
F2
s(g103
S'AAACP'
tp393
F2
s(g126
S'ADVVVDP'
tp394
F1
s(g196
S'AAVAP'
tp395
F2
s(g157
S'AADDP'
tp396
F4
s(S'MP'
S'MADVNVP'
tp397
F1
s(S'VP'
S'VAANP'
tp398
F1
s(S'NP'
p399
S'NVVVVP'
tp400
F1
s(g19
S'NADVDP'
tp401
F1
s(g223
S'MVVVCP'
tp402
F1
s(g71
S'MPNP'
tp403
F8
s(S'MP'
S'MADP'
tp404
F3
s(S'PP'
S'PPPDDP'
tp405
F2
s(S'AP'
S'AMMP'
tp406
F4
s(g294
S'DDADVNP'
tp407
F1
s(g174
S'PANP'
tp408
F24
s(S'NP'
S'ADVANADVCP'
tp409
F1
s(g352
S'AAVP'
tp410
F6
s(g91
S'NAAP'
tp411
F3
s(g76
S'NDDP'
tp412
F3
s(S'AP'
S'ACCP'
tp413
F5
s(g255
S'NNVVVP'
tp414
F1
s(g126
S'AVPPP'
tp415
F2
s(g314
S'NDP'
tp416
F39
s(g131
S'DDVP'
tp417
F14
s(S'NP'
S'AANVP'
tp418
F1
s(S'PP'
p419
S'PPADVANP'
tp420
F2
s(g247
S'PPPPVVP'
tp421
F1
s(g312
S'MPADVDP'
tp422
F1
s(g69
S'PCP'
tp423
F3
s(S'VP'
S'VADVADP'
tp424
F1
s(g44
S'PAADP'
tp425
F1
s(S'NP'
S'ADVNNVP'
tp426
F2
s(g294
S'ADVADVADVDDNP'
tp427
F1
s(g206
S'VPPPP'
tp428
F1
s(S'PP'
S'PPPVVP'
tp429
F1
s(g8
S'VCCP'
tp430
F6
s(S'MP'
S'MPAP'
tp431
F1
s(S'NP'
S'NNNDP'
tp432
F1
s(S'NP'
p433
S'AANVVVP'
tp434
F1
s(S'VP'
S'VVVAP'
tp435
F2
s(g294
S'ADPPP'
tp436
F5
s(g272
S'MVCP'
tp437
F5
s(S'CP'
S'CCDDP'
tp438
F5
s(S'VP'
p439
S'AVNNP'
tp440
F1
s(g140
S'DDADP'
tp441
F1
s(g263
S'VAMP'
tp442
F2
s(g253
S'PPAAP'
tp443
F2
s(g107
S'NNNNVP'
tp444
F1
s(g189
S'VVCP'
tp445
F7
s(S'VP'
S'VVMP'
tp446
F4
s(g51
S'VDP'
tp447
F80
s(S'PP'
S'APPP'
tp448
F4
s(S'VP'
p449
S'ADVADVADVVMP'
tp450
F1
s(g219
S'MNNPP'
tp451
F1
s(g64
S'ADVVPP'
tp452
F3
s(S'CP'
S'CDAPPP'
tp453
F1
s(g115
S'VNNP'
tp454
F10
s(S'AP'
S'AADVDP'
tp455
F2
s(g157
S'AAAMP'
tp456
F1
s(g111
S'NADP'
tp457
F5
s(g17
S'DDNP'
tp458
F21
s(g433
S'NADVCP'
tp459
F7
s(S'NP'
S'NNADVAP'
tp460
F1
s(S'PP'
S'APCP'
tp461
F1
s(S'AP'
S'AADVADP'
tp462
F1
s(g99
S'ADVADVNCP'
tp463
F1
s(g352
S'ADVADDP'
tp464
F2
s(g25
S'AADPP'
tp465
F4
s(g178
S'AAADVP'
tp466
F1
s(g137
S'MAVAP'
tp467
F1
s(g133
S'AAMMP'
tp468
F1
s(S'PP'
S'PADVADVADVADVAP'
tp469
F1
s(S'CP'
S'ACDDP'
tp470
F2
s(S'NP'
S'ADVADVNNCP'
tp471
F1
s(g352
S'AAPP'
tp472
F7
s(g159
S'VVCCP'
tp473
F1
s(S'CP'
p474
S'ADVCAADP'
tp475
F1
s(g103
S'AADVAMP'
tp476
F1
s(S'MP'
S'AAAMVP'
tp477
F1
s(g131
S'DADVVVP'
tp478
F2
s(S'PP'
S'ADVPANP'
tp479
F1
s(g283
S'NNPPP'
tp480
F1
s(S'NP'
S'NAPP'
tp481
F13
s(S'NP'
S'NNACCP'
tp482
F1
s(g449
S'VVVCP'
tp483
F1
s(g166
S'MVDDP'
tp484
F1
s(g99
S'ANCCP'
tp485
F5
s(g199
S'AANPP'
tp486
F5
s(g119
S'VDDDP'
tp487
F1
s(g99
S'NNMP'
tp488
F4
s(S'CP'
S'CADDPP'
tp489
F1
s(S'MP'
S'MAPDP'
tp490
F2
s(g374
S'PAAAP'
tp491
F1
s(g202
S'ADVADVPNP'
tp492
F1
s(S'DP'
S'DADVAP'
tp493
F1
s(S'CP'
S'CDDAPP'
tp494
F1
s(g122
S'ANAP'
tp495
F3
s(g62
S'MVAP'
tp496
F8
s(g80
S'PVP'
tp497
F81
s(S'PP'
S'APPNNP'
tp498
F1
s(g343
S'ANNCP'
tp499
F2
s(g85
S'ADVADVADVDNP'
tp500
F1
s(S'PP'
p501
S'PPDDP'
tp502
F4
s(g189
S'AVCP'
tp503
F1
s(g76
S'NADVADVAP'
tp504
F1
s(g355
S'NAVVP'
tp505
F1
s(g17
S'DPP'
tp506
F99
s(S'NP'
S'ADVNVP'
tp507
F2
s(g140
S'DDPP'
tp508
F41
s(g17
S'DANP'
tp509
F33
s(S'AP'
S'ADVAMP'
tp510
F1
s(S'NP'
S'NADVPP'
tp511
F3
s(g199
S'NAAVP'
tp512
F1
s(S'DP'
S'AADNP'
tp513
F1
s(g115
S'VADVCP'
tp514
F1
s(g152
S'APAAP'
tp515
F2
s(g111
S'NNNNCP'
tp516
F1
s(S'NP'
S'NADVCCP'
tp517
F1
s(g140
S'DADVPP'
tp518
F15
s(g57
S'PADVPPP'
tp519
F1
s(g474
S'AACDDDP'
tp520
F1
s(g74
S'ADVNNAVP'
tp521
F1
s(g357
S'AAPDP'
tp522
F3
s(g71
S'MADVVDP'
tp523
F2
s(S'MP'
p524
S'ADVMNNP'
tp525
F1
s(g55
S'PDDP'
tp526
F19
s(g69
S'APADVAP'
tp527
F1
s(S'DP'
p528
S'DADVADVADVVP'
tp529
F1
s(g97
S'NNVP'
tp530
F12
s(g95
S'PADVADVADVDP'
tp531
F1
s(g133
S'ADVADVACP'
tp532
F1
s(S'NP'
S'NNP'
tp533
F1
s(g27
S'ADVADPP'
tp534
F2
s(g213
S'DAANP'
tp535
F1
s(g155
S'ADDP'
tp536
F11
s(S'MP'
p537
S'MDAP'
tp538
F1
s(g140
S'DPPP'
tp539
F39
s(g524
S'MMAAAPP'
tp540
F1
s(S'DP'
S'AADPPP'
tp541
F1
s(g8
S'AAVADVPP'
tp542
F1
s(g189
S'AVVCP'
tp543
F1
s(S'NP'
S'NMMMP'
tp544
F1
s(S'PP'
S'ADVPNP'
tp545
F10
s(g13
S'PPDP'
tp546
F14
s(S'MP'
S'MAVDP'
tp547
F3
s(g97
S'NAP'
tp548
F21
s(S'VP'
S'VAAAP'
tp549
F1
s(g109
S'ADVDPPP'
tp550
F1
s(g23
S'VVP'
tp551
F15
s(g76
S'NNVVP'
tp552
F2
s(S'AP'
S'AAADP'
tp553
F2
s(g13
S'APNP'
tp554
F29
s(S'DP'
p555
S'DDVVP'
tp556
F2
s(S'VP'
S'VVVNP'
tp557
F1
s(g359
S'MNPP'
tp558
F1
s(g144
S'NNADVPP'
tp559
F1
s(S'MP'
S'MVANP'
tp560
F3
s(g439
S'ADVVMMP'
tp561
F1
s(S'CP'
S'CDPP'
tp562
F98
s(g131
S'ADVDVVP'
tp563
F2
s(g21
S'ADVCDP'
tp564
F10
s(g150
S'AAPVVP'
tp565
F1
s(g537
S'MNPPP'
tp566
F1
s(g206
S'ADVADVVCP'
tp567
F1
s(g55
S'PPNNP'
tp568
F4
s(S'PP'
S'PADVCP'
tp569
F1
s(S'PP'
S'PPMP'
tp570
F3
s(S'DP'
S'ADVADVDPP'
tp571
F1
s(S'NP'
S'NADVAP'
tp572
F1
s(S'AP'
S'ADVAADVDP'
tp573
F1
s(g140
S'DADVNP'
tp574
F8
s(S'AP'
S'AMMMP'
tp575
F1
s(S'MP'
S'MCADVDP'
tp576
F1
s(g21
S'CADPP'
tp577
F36
s(g419
S'PPAVP'
tp578
F1
s(S'VP'
S'AVPP'
tp579
F3
s(S'CP'
S'CAADPPP'
tp580
F1
s(S'MP'
p581
S'AMNP'
tp582
F1
s(g260
S'CDPPPP'
tp583
F3
s(g399
S'ADVANMP'
tp584
F1
s(g263
S'VACCP'
tp585
F2
s(g174
S'PPADVADVPPP'
tp586
F1
s(g230
S'DAPPP'
tp587
F2
s(g289
S'DADVADVPP'
tp588
F2
s(g91
S'AANVVP'
tp589
F1
s(S'PP'
S'PPPNP'
tp590
F3
s(g314
S'NPP'
tp591
F79
s(g55
S'PADVADVNP'
tp592
F1
s(S'AP'
S'AADP'
tp593
F15
s(g69
S'PPAAVP'
tp594
F1
s(S'NP'
S'NNADVVVP'
tp595
F1
s(S'NP'
p596
S'NADVANP'
tp597
F1
s(g555
S'DDAAPP'
tp598
F1
s(g501
S'ADVPVP'
tp599
F2
s(g555
S'DDDDPP'
tp600
F2
s(S'DP'
S'ADMP'
tp601
F1
s(g388
S'PADVADVADVDDP'
tp602
F1
s(g194
S'ADVVANP'
tp603
F1
s(S'PP'
S'PAMP'
tp604
F1
s(g69
S'ADVPDP'
tp605
F6
s(g74
S'ANNPP'
tp606
F1
s(g99
S'NCP'
tp607
F89
s(g272
S'MDNP'
tp608
F5
s(g596
S'ADVANDDP'
tp609
F1
s(S'AP'
S'AAMP'
tp610
F6
s(S'MP'
S'MADVADVVVANP'
tp611
F1
s(g294
S'DADVNNP'
tp612
F1
s(g182
S'NNCCP'
tp613
F3
s(g581
S'MNVP'
tp614
F3
s(g23
S'VAPP'
tp615
F10
s(S'VP'
S'ADVVDP'
tp616
F6
s(g131
S'DDPPPP'
tp617
F2
s(S'AP'
S'AMP'
tp618
F25
s(g82
S'CCADP'
tp619
F1
s(S'VP'
S'ADVADVVVANP'
tp620
F1
s(g97
S'ADVNNCP'
tp621
F1
s(S'DP'
S'ADVDAP'
tp622
F1
s(S'CP'
S'AACDP'
tp623
F2
s(S'CP'
S'CADVADPP'
tp624
F2
s(g140
S'DVP'
tp625
F69
s(S'DP'
S'ADVADVADVDDVP'
tp626
F1
s(S'NP'
S'ADVNPP'
tp627
F3
s(S'PP'
S'PADVADVDDP'
tp628
F1
s(g155
S'AVP'
tp629
F16
s(g74
S'NADVVP'
tp630
F6
s(g255
S'NNADVADVVP'
tp631
F1
s(g528
S'DDPPP'
tp632
F8
s(S'NP'
S'ADVNMP'
tp633
F3
s(g152
S'PPANP'
tp634
F6
s(g21
S'CDADVPP'
tp635
F10
s(g115
S'VNP'
tp636
F58
s(S'MP'
S'MNNPPP'
tp637
F1
s(g115
S'VANP'
tp638
F8
s(g147
S'VADVAP'
tp639
F2
s.