ccollections
defaultdict
p1
(c__builtin__
float
p2
tRp3
(S'MP'
p4
S'MMDP'
tp5
F4
s(S'PP'
S'ADVADVPPAP'
tp6
F1
s(S'DP'
p7
S'ADDPP'
tp8
F2
s(S'DP'
p9
S'ADVDAAVP'
tp10
F1
s(S'DP'
p11
S'DDAP'
tp12
F6
s(S'VP'
S'ADVVVNP'
tp13
F1
s(S'MP'
S'AMMPP'
tp14
F1
s(S'VP'
p15
S'VVVVP'
tp16
F1
s(S'DP'
p17
S'DAANNP'
tp18
F1
s(S'PP'
S'PAPP'
tp19
F5
s(S'PP'
p20
S'PADVNP'
tp21
F13
s(S'DP'
S'DNP'
tp22
F125
s(S'NP'
S'ADVNDP'
tp23
F3
s(S'PP'
p24
S'AAPDDP'
tp25
F1
s(S'CP'
p26
S'CDPPP'
tp27
F46
s(S'MP'
S'MPADVADVADVNNP'
tp28
F1
s(S'VP'
p29
S'VADP'
tp30
F16
s(S'DP'
p31
S'DNNNNP'
tp32
F2
s(S'CP'
p33
S'CDAAPPP'
tp34
F1
s(S'DP'
p35
S'DAAP'
tp36
F3
s(S'MP'
S'MVVVADVAAP'
tp37
F1
s(S'PP'
p38
S'PPPPPP'
tp39
F1
s(g15
S'VAVP'
tp40
F1
s(S'PP'
p41
S'APPDP'
tp42
F1
s(S'DP'
S'ADNNP'
tp43
F3
s(S'VP'
p44
S'AVADVDP'
tp45
F1
s(S'MP'
p46
S'MDVP'
tp47
F3
s(S'VP'
p48
S'ADVVNP'
tp49
F14
s(S'MP'
p50
S'MVDP'
tp51
F33
s(S'PP'
p52
S'PADVANP'
tp53
F3
s(S'NP'
p54
S'AANNPP'
tp55
F1
s(S'PP'
p56
S'PPPP'
tp57
F35
s(S'MP'
S'MAVADVDP'
tp58
F1
s(S'DP'
p59
S'DDDNP'
tp60
F5
s(S'MP'
p61
S'MMADVVP'
tp62
F2
s(S'VP'
p63
S'VACP'
tp64
F3
s(S'AP'
p65
S'AAAVP'
tp66
F1
s(S'PP'
p67
S'PPAAP'
tp68
F2
s(S'DP'
S'DADVVP'
tp69
F6
s(S'MP'
S'MMCP'
tp70
F1
s(S'NP'
p71
S'NADVACP'
tp72
F1
s(S'VP'
S'AAVVP'
tp73
F1
s(S'NP'
S'NCCCP'
tp74
F2
s(S'CP'
S'CADVDAPP'
tp75
F2
s(g29
S'VCP'
tp76
F66
s(S'NP'
p77
S'NMMP'
tp78
F9
s(S'VP'
p79
S'ADVVAAP'
tp80
F1
s(S'NP'
p81
S'NNADVAP'
tp82
F1
s(S'MP'
S'MVADVNP'
tp83
F1
s(S'PP'
p84
S'ADVPADP'
tp85
F1
s(S'PP'
p86
S'PAP'
tp87
F62
s(S'MP'
S'MMVVP'
tp88
F3
s(S'VP'
p89
S'VADVADVAP'
tp90
F4
s(S'PP'
S'ADVPPVP'
tp91
F1
s(S'PP'
p92
S'APVVP'
tp93
F1
s(S'VP'
S'AAVNNP'
tp94
F1
s(g56
S'PNP'
tp95
F114
s(S'NP'
S'ADVADVADVNNCP'
tp96
F1
s(S'VP'
p97
S'AVNNNP'
tp98
F1
s(g7
S'DDP'
tp99
F26
s(g44
S'ADVVDDP'
tp100
F1
s(S'NP'
S'NNNPP'
tp101
F3
s(S'NP'
p102
S'NNDP'
tp103
F20
s(S'MP'
S'MCDP'
tp104
F9
s(S'PP'
p105
S'ADVPCP'
tp106
F1
s(S'DP'
S'ADVADVADNP'
tp107
F1
s(S'DP'
p108
S'DDAANP'
tp109
F1
s(S'MP'
p110
S'ADVMMPP'
tp111
F1
s(S'MP'
p112
S'MNNAP'
tp113
F1
s(S'MP'
p114
S'MNAP'
tp115
F2
s(S'CP'
S'CADVDADVAPP'
tp116
F1
s(S'NP'
p117
S'NMP'
tp118
F53
s(S'VP'
p119
S'AVVDDP'
tp120
F1
s(S'CP'
S'CADVDADVPP'
tp121
F1
s(S'VP'
S'AAVNP'
tp122
F3
s(S'VP'
S'VMMP'
tp123
F18
s(S'PP'
S'PDP'
tp124
F121
s(S'PP'
p125
S'PPADVVP'
tp126
F1
s(g71
S'ADVNVVP'
tp127
F1
s(S'MP'
p128
S'MNNVP'
tp129
F1
s(g108
S'ADVDADVAPP'
tp130
F1
s(S'CP'
S'CDADVADVPPP'
tp131
F2
s(S'PP'
S'PADVPP'
tp132
F3
s(S'NP'
p133
S'NNADVCP'
tp134
F1
s(S'VP'
p135
S'VVADVNP'
tp136
F5
s(S'DP'
p137
S'AADDVP'
tp138
F1
s(S'PP'
p139
S'AAPPPP'
tp140
F1
s(S'MP'
p141
S'AMNNP'
tp142
F1
s(S'DP'
p143
S'DPPPP'
tp144
F4
s(S'DP'
S'DDANP'
tp145
F3
s(S'VP'
p146
S'VVP'
tp147
F27
s(S'AP'
S'ADVAVP'
tp148
F1
s(g7
S'ADVDAAP'
tp149
F1
s(S'MP'
p150
S'MPNNNNP'
tp151
F1
s(S'NP'
p152
S'NNCP'
tp153
F42
s(S'DP'
S'ADVDDPP'
tp154
F2
s(S'NP'
S'NADVADVVP'
tp155
F4
s(S'NP'
p156
S'NNPPPP'
tp157
F1
s(S'DP'
p158
S'DDDDP'
tp159
F1
s(S'VP'
p160
S'AVNP'
tp161
F12
s(S'VP'
p162
S'VVADP'
tp163
F1
s(S'NP'
p164
S'ADVNDDP'
tp165
F1
s(S'NP'
p166
S'NADVADVPP'
tp167
F2
s(S'PP'
p168
S'ADVPVVP'
tp169
F1
s(S'PP'
p170
S'PADVADVADVADVDP'
tp171
F1
s(S'PP'
p172
S'ADVAPDP'
tp173
F1
s(g170
S'AAPNP'
tp174
F2
s(S'PP'
S'PADVAAANP'
tp175
F1
s(S'MP'
S'MVAPP'
tp176
F1
s(S'MP'
S'MVPPP'
tp177
F1
s(S'DP'
p178
S'DADVPPP'
tp179
F1
s(S'CP'
p180
S'CCCDP'
tp181
F4
s(S'VP'
p182
S'ADVVAP'
tp183
F7
s(S'PP'
p184
S'ADVPPNNP'
tp185
F1
s(S'PP'
p186
S'APCP'
tp187
F1
s(g56
S'APDP'
tp188
F25
s(S'MP'
S'MNNVVP'
tp189
F1
s(S'VP'
S'ADVVNNP'
tp190
F2
s(S'AP'
p191
S'AADVCP'
tp192
F1
s(S'PP'
S'ADVPNNP'
tp193
F2
s(S'VP'
p194
S'ADVVVP'
tp195
F2
s(g33
S'CADADVPPP'
tp196
F1
s(S'NP'
p197
S'NNMMMMP'
tp198
F1
s(S'MP'
p199
S'MADVVNP'
tp200
F3
s(g125
S'PAAP'
tp201
F18
s(S'MP'
p202
S'MPNNP'
tp203
F2
s(S'NP'
S'ADVANCP'
tp204
F3
s(S'DP'
p205
S'DNNP'
tp206
F53
s(S'CP'
S'CADVDDPP'
tp207
F2
s(S'DP'
p208
S'ADVADVDDNP'
tp209
F1
s(S'CP'
S'CDDPPPP'
tp210
F1
s(g79
S'VVNNNP'
tp211
F1
s(S'MP'
S'MADVADVADVADVVDP'
tp212
F1
s(S'DP'
p213
S'ADDNP'
tp214
F3
s(g54
S'NNNVP'
tp215
F5
s(S'VP'
p216
S'VADVNNP'
tp217
F2
s(S'MP'
S'ADVADVMPP'
tp218
F1
s(S'PP'
S'PADVVP'
tp219
F12
s(S'DP'
S'DACP'
tp220
F1
s(S'MP'
p221
S'MADVADDP'
tp222
F1
s(S'PP'
S'ADVAPNNP'
tp223
F1
s(S'NP'
S'NNADVADVMP'
tp224
F1
s(S'AP'
p225
S'APP'
tp226
F47
s(S'NP'
p227
S'NADVMP'
tp228
F1
s(S'PP'
p229
S'PPADP'
tp230
F1
s(S'MP'
S'ADVMAVP'
tp231
F1
s(S'CP'
p232
S'CADVADPP'
tp233
F2
s(S'AP'
p234
S'AAADVDDP'
tp235
F1
s(S'NP'
S'ADVANPP'
tp236
F2
s(S'MP'
p237
S'MVVCP'
tp238
F2
s(S'DP'
S'DAAVP'
tp239
F4
s(g202
S'MPVP'
tp240
F2
s(S'MP'
p241
S'MADVAPPDP'
tp242
F1
s(S'VP'
p243
S'VADVADVCP'
tp244
F1
s(S'PP'
p245
S'PPVVP'
tp246
F8
s(S'MP'
S'MMMCP'
tp247
F1
s(S'MP'
p248
S'MMADVADVNP'
tp249
F1
s(S'NP'
S'NNAAAP'
tp250
F1
s(S'MP'
S'MVNP'
tp251
F29
s(S'MP'
p252
S'MNDP'
tp253
F2
s(g65
S'AADVCCP'
tp254
F1
s(S'AP'
S'ADVAADP'
tp255
F2
s(S'MP'
p256
S'MADVVAAP'
tp257
F1
s(S'PP'
p258
S'PAVP'
tp259
F12
s(S'CP'
S'CDADVADVPP'
tp260
F2
s(g184
S'ADVADVPPVP'
tp261
F2
s(g48
S'ADVVMP'
tp262
F4
s(S'DP'
p263
S'DDAPPP'
tp264
F1
s(S'VP'
p265
S'VVVPP'
tp266
F3
s(g232
S'ADVCADP'
tp267
F1
s(S'AP'
S'AAADVADVDDP'
tp268
F1
s(g65
S'ADVACCP'
tp269
F1
s(S'DP'
p270
S'DADP'
tp271
F2
s(S'AP'
p272
S'ADVADP'
tp273
F3
s(S'NP'
p274
S'NAMMP'
tp275
F1
s(S'NP'
p276
S'ADVADVADVNNPP'
tp277
F1
s(S'PP'
S'APDDP'
tp278
F1
s(S'VP'
p279
S'ADVADVVVNP'
tp280
F1
s(S'NP'
p281
S'ADVNAP'
tp282
F2
s(S'DP'
S'ADVADVDAP'
tp283
F1
s(g172
S'PPCP'
tp284
F1
s(g20
S'APVP'
tp285
F11
s(g202
S'MNCP'
tp286
F14
s(g29
S'VVNP'
tp287
F40
s(S'PP'
p288
S'ADVPAVP'
tp289
F2
s(S'PP'
S'ADVPPPP'
tp290
F1
s(g86
S'PPVP'
tp291
F27
s(g61
S'MPCP'
tp292
F2
s(S'VP'
p293
S'VADVDP'
tp294
F6
s(S'PP'
S'PPADVADVADVNP'
tp295
F1
s(S'MP'
p296
S'MPADP'
tp297
F1
s(g29
S'VAAP'
tp298
F25
s(S'MP'
p299
S'MANPP'
tp300
F1
s(S'NP'
p301
S'ANDP'
tp302
F3
s(S'NP'
p303
S'NVVP'
tp304
F45
s(S'AP'
S'AAP'
tp305
F1
s(g29
S'VMP'
tp306
F76
s(g293
S'VVNNP'
tp307
F8
s(S'CP'
p308
S'CDAPP'
tp309
F21
s(S'VP'
S'VVAAP'
tp310
F3
s(g252
S'MMPP'
tp311
F2
s(S'DP'
S'ADVADVDDVP'
tp312
F2
s(g205
S'ADNP'
tp313
F15
s(S'AP'
S'AAAAADP'
tp314
F1
s(g52
S'PADP'
tp315
F9
s(g146
S'ADVVVCP'
tp316
F1
s(S'DP'
S'DADVAP'
tp317
F1
s(S'MP'
p318
S'MVAMP'
tp319
F1
s(S'DP'
p320
S'DDDVP'
tp321
F5
s(g143
S'DAPP'
tp322
F30
s(S'VP'
S'AVVP'
tp323
F1
s(S'VP'
S'ADVADVVMP'
tp324
F2
s(S'MP'
p325
S'MADVVVNP'
tp326
F1
s(g241
S'MADVADVVNP'
tp327
F1
s(S'VP'
S'VADVAAP'
tp328
F1
s(S'NP'
p329
S'NNNAVP'
tp330
F1
s(S'MP'
S'MDDNP'
tp331
F1
s(S'VP'
p332
S'ADVADVVDP'
tp333
F4
s(S'VP'
p334
S'AVVNP'
tp335
F1
s(g92
S'PPPDP'
tp336
F3
s(S'DP'
p337
S'DAAPPP'
tp338
F2
s(S'PP'
p339
S'AAAPDP'
tp340
F1
s(S'VP'
p341
S'VAMMP'
tp342
F2
s(S'AP'
S'AAPPP'
tp343
F3
s(g162
S'VDDDDP'
tp344
F1
s(S'DP'
S'DADVANP'
tp345
F3
s(S'NP'
p346
S'ANADVVVP'
tp347
F1
s(g162
S'VAAPP'
tp348
F1
s(g11
S'ADVDNP'
tp349
F10
s(S'VP'
p350
S'VVPP'
tp351
F20
s(S'DP'
p352
S'ADADVPP'
tp353
F2
s(S'MP'
S'MVPP'
tp354
F21
s(S'DP'
S'ADVP'
tp355
F8
s(S'MP'
p356
S'MVADP'
tp357
F2
s(S'CP'
p358
S'CDDPPP'
tp359
F12
s(S'NP'
S'NNADVADVAP'
tp360
F1
s(g44
S'ADVVVDP'
tp361
F1
s(S'NP'
p362
S'NNPP'
tp363
F38
s(g352
S'DDDDNP'
tp364
F1
s(g128
S'MVVDP'
tp365
F6
s(g29
S'VVVPPP'
tp366
F2
s(g117
S'ANVP'
tp367
F13
s(S'DP'
p368
S'DNNNP'
tp369
F4
s(S'DP'
S'ADVDADVPP'
tp370
F1
s(g325
S'MPPDP'
tp371
F3
s(S'DP'
S'ADVDDVP'
tp372
F3
s(S'PP'
S'PADVADVVP'
tp373
F1
s(g119
S'VADVDDP'
tp374
F1
s(S'PP'
S'PMMP'
tp375
F1
s(S'PP'
S'PVVVP'
tp376
F6
s(S'PP'
S'PMP'
tp377
F11
s(S'PP'
p378
S'PADVADVADVVP'
tp379
F1
s(g26
S'CCDP'
tp380
F51
s(S'NP'
p381
S'ADVNNDP'
tp382
F1
s(S'MP'
S'AMVP'
tp383
F2
s(g146
S'VPPP'
tp384
F20
s(g117
S'NVVVP'
tp385
F8
s(S'CP'
p386
S'CDDDPP'
tp387
F4
s(S'CP'
p388
S'CDAAPP'
tp389
F4
s(g293
S'VVVDP'
tp390
F5
s(g24
S'PNNNP'
tp391
F3
s(g350
S'VVADVAAP'
tp392
F1
s(g381
S'ANMMP'
tp393
F1
s(g135
S'VAAPPP'
tp394
F1
s(S'PP'
S'PADVADVADVNNP'
tp395
F1
s(g332
S'VVMP'
tp396
F11
s(S'CP'
S'CADADVPP'
tp397
F1
s(g245
S'PADVVVP'
tp398
F1
s(S'PP'
p399
S'PPP'
tp400
F75
s(g303
S'NAVP'
tp401
F13
s(S'PP'
S'PADVAP'
tp402
F4
s(S'DP'
S'DDNNNP'
tp403
F2
s(g270
S'ADVADVADVADVDDP'
tp404
F1
s(S'PP'
S'PADDP'
tp405
F3
s(g301
S'NDDDP'
tp406
F2
s(g368
S'ADVDVP'
tp407
F6
s(S'PP'
S'PPADVADVNP'
tp408
F1
s(g276
S'NAAAP'
tp409
F1
s(S'PP'
p410
S'PPAAVVP'
tp411
F1
s(S'NP'
p412
S'NADVVVP'
tp413
F1
s(S'DP'
S'DADVADVPPP'
tp414
F3
s(g52
S'PPPPDP'
tp415
F1
s(g178
S'DAAAP'
tp416
F1
s(S'MP'
S'MVVVNNP'
tp417
F1
s(S'VP'
p418
S'VPP'
tp419
F85
s(S'CP'
S'ADVCCDP'
tp420
F2
s(S'DP'
S'ADVDDNP'
tp421
F4
s(S'NP'
S'NNNCP'
tp422
F2
s(g86
S'PADVDP'
tp423
F9
s(S'CP'
S'CDDDPPP'
tp424
F1
s(S'DP'
S'DANNP'
tp425
F2
s(S'PP'
S'PADVAAP'
tp426
F2
s(S'CP'
S'CDDPP'
tp427
F52
s(g7
S'DAAPP'
tp428
F6
s(g139
S'PVVP'
tp429
F40
s(g308
S'CADPPP'
tp430
F4
s(S'AP'
S'AACP'
tp431
F9
s(g329
S'NADVMMP'
tp432
F2
s(g350
S'ADVVCP'
tp433
F4
s(S'PP'
S'PPNNNP'
tp434
F2
s(S'VP'
S'AVCCP'
tp435
F1
s(S'VP'
p436
S'VVPPP'
tp437
F2
s(S'NP'
p438
S'ADVADVADVNVVP'
tp439
F1
s(g86
S'PPAP'
tp440
F13
s(g205
S'DVVP'
tp441
F33
s(S'PP'
S'PADVAVP'
tp442
F1
s(g4
S'ADVMVP'
tp443
F1
s(S'NP'
p444
S'ANMP'
tp445
F3
s(S'AP'
S'APPP'
tp446
F9
s(g137
S'ADVVP'
tp447
F2
s(g71
S'ADVADVNVP'
tp448
F4
s(g29
S'VVVP'
tp449
F10
s(g281
S'ADVNNCCP'
tp450
F1
s(S'CP'
p451
S'CADVDPP'
tp452
F15
s(S'VP'
S'AVMP'
tp453
F3
s(g303
S'ANCP'
tp454
F16
s(g205
S'DCP'
tp455
F20
s(g381
S'ANNCP'
tp456
F3
s(S'AP'
S'AAAPP'
tp457
F1
s(g63
S'ADVVVVP'
tp458
F1
s(S'PP'
S'PPADVPP'
tp459
F1
s(S'DP'
S'DDDP'
tp460
F6
s(g296
S'MADVVANP'
tp461
F1
s(S'DP'
p462
S'DDADVPP'
tp463
F3
s(S'NP'
p464
S'ANVVP'
tp465
F4
s(g29
S'VVDP'
tp466
F42
s(S'NP'
S'ANPPP'
tp467
F1
s(g444
S'NPPP'
tp468
F28
s(S'DP'
S'ADDDP'
tp469
F1
s(S'VP'
S'ADVVNNNP'
tp470
F1
s(g150
S'AMVVP'
tp471
F1
s(g17
S'DAVP'
tp472
F7
s(S'NP'
S'NNNMP'
tp473
F1
s(g301
S'NNNNMP'
tp474
F1
s(g4
S'MCAADP'
tp475
F1
s(S'AP'
p476
S'ACP'
tp477
F33
s(g378
S'AAPAP'
tp478
F1
s(S'PP'
S'PADVADVNNP'
tp479
F1
s(g56
S'PPNP'
tp480
F41
s(S'MP'
S'MADVVPP'
tp481
F1
s(S'DP'
p482
S'ADVDAPP'
tp483
F2
s(S'MP'
S'MMMMVP'
tp484
F2
s(S'DP'
S'AADVP'
tp485
F2
s(S'MP'
S'MMADVDP'
tp486
F1
s(S'CP'
S'CDDADVPP'
tp487
F2
s(S'VP'
p488
S'VVVADVAAP'
tp489
F1
s(g225
S'ADP'
tp490
F84
s(g208
S'DDPPPP'
tp491
F1
s(S'DP'
p492
S'DDCCP'
tp493
F2
s(S'MP'
S'MADVVADVANP'
tp494
F1
s(S'PP'
p495
S'ADVAPPDP'
tp496
F1
s(S'MP'
S'MADDP'
tp497
F1
s(S'AP'
S'AAADP'
tp498
F5
s(S'NP'
p499
S'ANNVP'
tp500
F3
s(g146
S'VVAP'
tp501
F18
s(g114
S'MNADVVP'
tp502
F1
s(S'PP'
p503
S'PADVADVDP'
tp504
F1
s(S'DP'
S'ADVADVDNP'
tp505
F1
s(g152
S'NADVAPP'
tp506
F2
s(g97
S'ADVADVVAP'
tp507
F1
s(S'NP'
p508
S'NVP'
tp509
F120
s(S'PP'
S'PPVVVP'
tp510
F1
s(g105
S'PAAVP'
tp511
F1
s(S'PP'
S'AAPPNP'
tp512
F3
s(S'NP'
S'NAAPP'
tp513
F2
s(g29
S'VDDP'
tp514
F34
s(g79
S'ADVVADVAP'
tp515
F1
s(g164
S'AANNVP'
tp516
F1
s(g303
S'NADVADVVVP'
tp517
F2
s(S'NP'
p518
S'ANPP'
tp519
F17
s(g139
S'PPPPP'
tp520
F6
s(g299
S'MPDP'
tp521
F12
s(S'PP'
S'ADVADVPDP'
tp522
F3
s(g150
S'MVVPP'
tp523
F2
s(S'PP'
S'PPPNP'
tp524
F3
s(S'MP'
S'MMDDP'
tp525
F1
s(S'NP'
p526
S'ADVADVNPP'
tp527
F2
s(S'NP'
S'NPPPP'
tp528
F3
s(S'DP'
S'ADDP'
tp529
F1
s(g346
S'ADVNADP'
tp530
F1
s(g243
S'VVVMMP'
tp531
F1
s(g168
S'PPPPPPP'
tp532
F1
s(S'CP'
S'CAADPP'
tp533
F4
s(S'DP'
S'DADVADVVP'
tp534
F4
s(g438
S'NAACP'
tp535
F1
s(S'PP'
p536
S'PNNP'
tp537
F50
s(g213
S'DDAAP'
tp538
F1
s(S'DP'
S'ADVADVDDDP'
tp539
F1
s(S'MP'
p540
S'MMNP'
tp541
F4
s(g71
S'ADVNACP'
tp542
F1
s(g35
S'AAADPP'
tp543
F1
s(S'VP'
S'VVADVADVDDP'
tp544
F1
s(g162
S'AVAP'
tp545
F4
s(S'MP'
p546
S'MMVP'
tp547
F15
s(S'PP'
S'PADVDDP'
tp548
F3
s(g56
S'PCCP'
tp549
F4
s(g225
S'AADP'
tp550
F28
s(S'MP'
S'MPDDP'
tp551
F1
s(g438
S'NAPPP'
tp552
F1
s(S'CP'
S'ACDP'
tp553
F10
s(S'VP'
p554
S'VCCP'
tp555
F11
s(g279
S'ADVADVVAAP'
tp556
F1
s(g276
S'NNACP'
tp557
F2
s(g237
S'MDNNP'
tp558
F2
s(S'CP'
S'CDADVPPP'
tp559
F1
s(g29
S'VAP'
tp560
F82
s(g482
S'DDDPP'
tp561
F9
s(S'VP'
S'VADVADVAAP'
tp562
F1
s(g378
S'ADVPMP'
tp563
F1
s(g438
S'NADVDP'
tp564
F2
s(g160
S'VADVMP'
tp565
F2
s(S'NP'
S'ANADVAP'
tp566
F1
s(S'AP'
S'ADVAAPP'
tp567
F1
s(g476
S'AAVVP'
tp568
F2
s(S'MP'
S'MNMP'
tp569
F1
s(g4
S'MAVPP'
tp570
F2
s(S'DP'
S'DDDPPP'
tp571
F2
s(g89
S'ADVAVDP'
tp572
F1
s(g462
S'ADAP'
tp573
F1
s(g108
S'DADVDP'
tp574
F1
s(S'CP'
S'AACCDP'
tp575
F1
s(g152
S'NAAP'
tp576
F10
s(g256
S'MAVP'
tp577
F1
s(g168
S'PPPVP'
tp578
F3
s(g279
S'AAVAP'
tp579
F1
s(S'AP'
S'AADDP'
tp580
F5
s(g114
S'MADVNVP'
tp581
F1
s(g436
S'VAANP'
tp582
F1
s(g89
S'ADVADVADVADVVDP'
tp583
F1
s(g318
S'AMPP'
tp584
F1
s(g46
S'ADVAMCP'
tp585
F1
s(g241
S'MVVMP'
tp586
F1
s(S'MP'
S'MVVVCP'
tp587
F1
s(g141
S'MPNP'
tp588
F18
s(S'VP'
S'ADVVADVANP'
tp589
F1
s(S'MP'
p590
S'MADP'
tp591
F7
s(g258
S'PPPDDP'
tp592
F3
s(S'AP'
S'AMMP'
tp593
F4
s(S'MP'
p594
S'MVVADVADVADVNNP'
tp595
F1
s(g139
S'PANP'
tp596
F16
s(S'DP'
p597
S'AADNP'
tp598
F4
s(g221
S'ADVAMVP'
tp599
F1
s(S'AP'
S'AAVP'
tp600
F7
s(S'AP'
S'AVVP'
tp601
F3
s(g77
S'NDDP'
tp602
F15
s(S'PP'
p603
S'APPDDP'
tp604
F2
s(S'CP'
S'ADVADVCDP'
tp605
F1
s(S'AP'
p606
S'ACCP'
tp607
F4
s(S'PP'
S'ADVPAANP'
tp608
F1
s(g508
S'NDP'
tp609
F82
s(g293
S'ADVVANP'
tp610
F2
s(g50
S'MVAAP'
tp611
F2
s(g205
S'DDVP'
tp612
F30
s(g337
S'ADADVPPP'
tp613
F1
s(S'NP'
S'AANVP'
tp614
F4
s(S'DP'
S'ADDVP'
tp615
F1
s(g334
S'VADVADVPP'
tp616
F1
s(S'PP'
S'ADVPAP'
tp617
F3
s(g299
S'MPADVDP'
tp618
F1
s(S'PP'
S'APADVDP'
tp619
F1
s(S'PP'
S'PCP'
tp620
F16
s(S'NP'
p621
S'NNPPP'
tp622
F6
s(S'PP'
S'PAADP'
tp623
F2
s(S'VP'
S'VVMMMMP'
tp624
F1
s(S'MP'
S'MAAAPDP'
tp625
F1
s(g229
S'ADVPPP'
tp626
F1
s(g276
S'NNNDP'
tp627
F1
s(g594
S'MANCP'
tp628
F1
s(S'AP'
S'ADVACP'
tp629
F1
s(g603
S'PAPPP'
tp630
F1
s(S'DP'
p631
S'ADPPP'
tp632
F6
s(S'MP'
p633
S'MVCP'
tp634
F13
s(g388
S'CCDDP'
tp635
F12
s(S'NP'
S'NNADVVP'
tp636
F2
s(g281
S'NNNVVP'
tp637
F1
s(g31
S'DDADP'
tp638
F1
s(g299
S'MVMP'
tp639
F1
s(g182
S'VAMP'
tp640
F4
s(g156
S'NNVVP'
tp641
F9
s(g526
S'NNNNVP'
tp642
F1
s(S'VP'
S'VVCP'
tp643
F14
s(S'PP'
p644
S'PADVADVPP'
tp645
F1
s(S'NP'
S'AANCP'
tp646
F1
s(g350
S'VADVNP'
tp647
F9
s(S'VP'
S'VVDDDP'
tp648
F2
s(S'AP'
p649
S'ADVAVVP'
tp650
F3
s(S'MP'
S'MDCP'
tp651
F1
s(S'CP'
p652
S'ADVACDP'
tp653
F1
s(g125
S'APPP'
tp654
F7
s(S'MP'
S'MNNPP'
tp655
F2
s(g146
S'ADVVPP'
tp656
F4
s(g381
S'NAAAAP'
tp657
F1
s(g451
S'CDAPPP'
tp658
F1
s(g418
S'VNNP'
tp659
F38
s(S'AP'
S'AADVDP'
tp660
F4
s(S'VP'
p661
S'ADVADVVVANP'
tp662
F1
s(g621
S'NADP'
tp663
F4
s(g205
S'DDNP'
tp664
F46
s(g102
S'NADVCP'
tp665
F11
s(S'DP'
p666
S'DDNNP'
tp667
F14
s(g67
S'AAPPP'
tp668
F1
s(S'DP'
S'DDDVVVP'
tp669
F1
s(S'VP'
S'VPPPPP'
tp670
F1
s(S'NP'
S'ADVNCP'
tp671
F8
s(g518
S'ADVANVP'
tp672
F3
s(S'NP'
S'ADVNAAP'
tp673
F1
s(S'MP'
p674
S'MPADVANP'
tp675
F1
s(g102
S'ADVADVNCP'
tp676
F4
s(S'AP'
S'ADVADDP'
tp677
F1
s(g248
S'MDANNP'
tp678
F1
s(g666
S'AADPP'
tp679
F5
s(S'VP'
S'ADVADVADVVAAP'
tp680
F1
s(g63
S'VVMMP'
tp681
F3
s(S'MP'
S'MMAPP'
tp682
F1
s(S'AP'
S'AAMMP'
tp683
F1
s(g674
S'MADVVDP'
tp684
F2
s(g199
S'MVVNP'
tp685
F6
s(g652
S'ACDDP'
tp686
F1
s(S'NP'
S'ADVADVNNCP'
tp687
F1
s(g202
S'MVDDDDP'
tp688
F1
s(S'AP'
p689
S'AAPP'
tp690
F10
s(S'VP'
p691
S'VVCCP'
tp692
F1
s(g308
S'ADVCAADP'
tp693
F1
s(g631
S'DADVVVP'
tp694
F1
s(S'DP'
S'DADVADVNP'
tp695
F4
s(S'MP'
S'ADVMANP'
tp696
F1
s(g84
S'ADVADVPANP'
tp697
F1
s(S'NP'
S'NAPP'
tp698
F10
s(g536
S'APPVP'
tp699
F2
s(g410
S'APAP'
tp700
F2
s(g689
S'ADVAAVP'
tp701
F1
s(S'VP'
S'VVVCP'
tp702
F1
s(S'VP'
S'VVVDDDDDP'
tp703
F1
s(g117
S'ANCCP'
tp704
F2
s(g418
S'VDDDP'
tp705
F4
s(S'NP'
S'NNMP'
tp706
F9
s(g649
S'AAACCCP'
tp707
F1
s(S'MP'
S'AMMDP'
tp708
F1
s(S'MP'
p709
S'MPMP'
tp710
F1
s(S'CP'
S'CADDPP'
tp711
F1
s(S'MP'
S'MAPDP'
tp712
F2
s(g503
S'PAAAP'
tp713
F1
s(g20
S'ADVADVPNP'
tp714
F3
s(S'CP'
S'CDDAPP'
tp715
F6
s(g164
S'ANAP'
tp716
F1
s(S'MP'
p717
S'MVAP'
tp718
F15
s(S'VP'
p719
S'VADVADVDDP'
tp720
F1
s(g399
S'PVP'
tp721
F107
s(S'DP'
S'DADVAVP'
tp722
F1
s(g606
S'ADVADVAPP'
tp723
F2
s(S'VP'
S'VVVVDP'
tp724
F1
s(S'VP'
S'VADVCCP'
tp725
F1
s(S'NP'
S'ADVAAANVP'
tp726
F1
s(S'AP'
p727
S'AADVDDP'
tp728
F1
s(S'NP'
p729
S'ADVNAVP'
tp730
F2
s(g17
S'DVVVP'
tp731
F3
s(S'VP'
p732
S'VAPP'
tp733
F6
s(g412
S'ADVADVANVP'
tp734
F1
s(g234
S'ADVADVAMP'
tp735
F2
s(g245
S'PPDDP'
tp736
F13
s(S'VP'
S'AVCP'
tp737
F1
s(S'NP'
p738
S'NAVVP'
tp739
F2
s(S'PP'
S'ADVADVPDDP'
tp740
F1
s(g59
S'DPP'
tp741
F129
s(g329
S'ADVNVP'
tp742
F15
s(S'DP'
S'DDDVVP'
tp743
F2
s(S'DP'
S'DDPP'
tp744
F64
s(g205
S'DANP'
tp745
F22
s(g272
S'ADVAMP'
tp746
F4
s(g362
S'NADVPP'
tp747
F6
s(g738
S'NNADVADVPP'
tp748
F2
s(S'NP'
p749
S'NADVADP'
tp750
F1
s(g318
S'MMAP'
tp751
F1
s(g227
S'NAAVP'
tp752
F2
s(g674
S'AMMVVP'
tp753
F1
s(S'PP'
S'APADVDDP'
tp754
F1
s(S'PP'
p755
S'PDDDP'
tp756
F4
s(S'NP'
S'NACP'
tp757
F5
s(g727
S'AAAAPP'
tp758
F1
s(g135
S'VADVCP'
tp759
F2
s(g38
S'PPPVVP'
tp760
F1
s(S'NP'
S'NNNNAP'
tp761
F1
s(g50
S'MDNP'
tp762
F17
s(g117
S'NCCP'
tp763
F40
s(S'PP'
S'PPADVADVVP'
tp764
F1
s(S'NP'
S'ADVANCCP'
tp765
F1
s(g597
S'DCCP'
tp766
F2
s(S'PP'
S'ADVADVPPP'
tp767
F1
s(g410
S'AAPDP'
tp768
F2
s(g162
S'VVDDP'
tp769
F12
s(g299
S'MVPPPPP'
tp770
F1
s(g158
S'DDADVVP'
tp771
F1
s(g56
S'PDDP'
tp772
F41
s(S'MP'
S'MVDDP'
tp773
F4
s(S'NP'
S'NNNADVPP'
tp774
F1
s(g508
S'NNVP'
tp775
F52
s(S'AP'
S'ADVADVACP'
tp776
F1
s(g661
S'AVDP'
tp777
F18
s(g329
S'NNP'
tp778
F4
s(g11
S'ADVADPP'
tp779
F3
s(g320
S'DAANP'
tp780
F2
s(g225
S'ADDP'
tp781
F23
s(g288
S'PNNNNP'
tp782
F1
s(S'PP'
S'ADVPPNP'
tp783
F1
s(g381
S'ADVADVNVVP'
tp784
F1
s(S'DP'
S'DDADVADVVP'
tp785
F1
s(S'DP'
S'DDDDDNNP'
tp786
F1
s(S'VP'
S'ADVAVVVP'
tp787
F1
s(g709
S'MDAP'
tp788
F4
s(S'CP'
S'CADVADVDPP'
tp789
F5
s(g205
S'DPPP'
tp790
F62
s(g631
S'AADPPP'
tp791
F2
s(g554
S'VANNP'
tp792
F1
s(g499
S'NNAVP'
tp793
F2
s(g156
S'NMMMP'
tp794
F2
s(g24
S'ADVPNP'
tp795
F11
s(g86
S'PPDP'
tp796
F37
s(g61
S'MAVDP'
tp797
F1
s(S'PP'
S'ADVAPNNNP'
tp798
F1
s(S'DP'
S'ADVDCP'
tp799
F1
s(g191
S'ADVADVAACP'
tp800
F1
s(g438
S'NNAAACP'
tp801
F1
s(S'MP'
S'MVVAP'
tp802
F2
s(g352
S'DDCP'
tp803
F2
s(S'NP'
p804
S'NAAAVVP'
tp805
F1
s(g197
S'ANADVADVVP'
tp806
F1
s(g334
S'VMMMP'
tp807
F2
s(g318
S'MADVNPP'
tp808
F1
s(g202
S'MNCCP'
tp809
F3
s(g102
S'NAP'
tp810
F53
s(g117
S'NNAAP'
tp811
F2
s(S'VP'
S'VAAAP'
tp812
F3
s(g526
S'NAACCP'
tp813
F1
s(g202
S'ADVMMNP'
tp814
F1
s(g368
S'DDAPP'
tp815
F7
s(g644
S'ADVADVPVP'
tp816
F1
s(S'MP'
S'MAPP'
tp817
F1
s(g41
S'APNP'
tp818
F10
s(S'VP'
S'VVVNNP'
tp819
F2
s(g11
S'DDVVP'
tp820
F8
s(S'AP'
S'AAADDP'
tp821
F1
s(g691
S'VVVNP'
tp822
F7
s(g633
S'MNPP'
tp823
F13
s(S'MP'
S'MVANP'
tp824
F2
s(S'AP'
S'AAADDDP'
tp825
F1
s(g4
S'MVNNP'
tp826
F2
s(g166
S'NADVAMP'
tp827
F2
s(g358
S'CDPP'
tp828
F125
s(g4
S'MVVNNP'
tp829
F1
s(S'AP'
S'ADDDP'
tp830
F4
s(S'MP'
p831
S'MVADVPP'
tp832
F1
s(S'VP'
S'AAAVVCP'
tp833
F1
s(S'VP'
S'VVAANP'
tp834
F1
s(S'MP'
S'MMMVP'
tp835
F3
s(S'CP'
S'ADVCDP'
tp836
F13
s(g495
S'AAPVVP'
tp837
F1
s(g436
S'ADVADVVNP'
tp838
F3
s(g749
S'ADVADVADVNAP'
tp839
F1
s(g674
S'MVADVADVDP'
tp840
F1
s(S'MP'
S'MNPPP'
tp841
F1
s(S'VP'
S'ADVADVVCP'
tp842
F1
s(g341
S'VADVADVDP'
tp843
F2
s(g755
S'PPNNP'
tp844
F12
s(g356
S'MPPNP'
tp845
F1
s(g186
S'PPMP'
tp846
F1
s(g216
S'VADVADVNP'
tp847
F2
s(g158
S'ADVADVDPP'
tp848
F6
s(S'VP'
S'VDP'
tp849
F116
s(g168
S'PPPADVNP'
tp850
F1
s(g156
S'NADVAP'
tp851
F7
s(g15
S'AVDDP'
tp852
F1
s(g352
S'DADVNP'
tp853
F15
s(g540
S'ADVADVMDP'
tp854
F1
s(g7
S'DAP'
tp855
F32
s(g180
S'CADPP'
tp856
F17
s(g603
S'PPAVP'
tp857
F1
s(g216
S'VVDDDDP'
tp858
F1
s(g133
S'ADVNPPPP'
tp859
F1
s(g488
S'AVPP'
tp860
F6
s(S'NP'
S'NADVADVMP'
tp861
F1
s(S'CP'
p862
S'CAADPPP'
tp863
F1
s(g732
S'VVADVDP'
tp864
F2
s(g862
S'CDPPPP'
tp865
F2
s(g719
S'AAVDP'
tp866
F3
s(g35
S'AADNNP'
tp867
F1
s(S'PP'
S'PANNP'
tp868
F1
s(g438
S'NNDDP'
tp869
F1
s(g546
S'MVANNP'
tp870
F1
s(S'DP'
p871
S'DAPPP'
tp872
F2
s(S'DP'
S'DADVADVPP'
tp873
F4
s(g492
S'DMP'
tp874
F3
s(g871
S'ADVDPP'
tp875
F19
s(S'NP'
S'NPP'
tp876
F109
s(g125
S'PADVADVNP'
tp877
F3
s(S'DP'
S'ADPP'
tp878
F25
s(S'PP'
S'APAAP'
tp879
F1
s(S'PP'
S'PPAAVP'
tp880
F1
s(g9
S'DDDDCP'
tp881
F1
s(S'VP'
S'VVVMP'
tp882
F1
s(g436
S'VADVPP'
tp883
F5
s(g339
S'ADVPVP'
tp884
F12
s(S'NP'
S'NADVADVADVVVP'
tp885
F1
s(g81
S'NNVVVP'
tp886
F2
s(g56
S'PADVADVADVNP'
tp887
F1
s(g536
S'ADVPDP'
tp888
F6
s(g77
S'ANNPP'
tp889
F4
s(S'AP'
S'ADVAAMP'
tp890
F1
s(g112
S'MVADVAP'
tp891
F1
s(g464
S'NCP'
tp892
F121
s(S'CP'
S'CADVDPPP'
tp893
F4
s(g182
S'ADVVVPP'
tp894
F2
s(g158
S'DDADVVVP'
tp895
F1
s(S'AP'
p896
S'AAAP'
tp897
F1
s(g194
S'VAADP'
tp898
F5
s(S'AP'
S'AAMP'
tp899
F12
s(g119
S'AAVVDP'
tp900
F1
s(S'NP'
S'AANDP'
tp901
F1
s(g590
S'MVCCP'
tp902
F1
s(g263
S'DADVNNP'
tp903
F2
s(S'NP'
S'NNCCP'
tp904
F10
s(S'MP'
S'MNVP'
tp905
F9
s(S'VP'
S'ADVADVADVVVCP'
tp906
F1
s(g110
S'AMPPP'
tp907
F1
s(g717
S'MADVANCP'
tp908
F1
s(g546
S'MAVNP'
tp909
F2
s(S'VP'
S'ADVVDP'
tp910
F5
s(S'VP'
S'VADDP'
tp911
F1
s(S'DP'
S'DADVPP'
tp912
F17
s(g225
S'AMP'
tp913
F43
s(g386
S'CCADP'
tp914
F3
s(g227
S'ADVNNCP'
tp915
F2
s(g205
S'ADVDAP'
tp916
F2
s(S'PP'
S'AAPDDDP'
tp917
F1
s(g896
S'ADVAPP'
tp918
F8
s(S'DP'
S'ADVDAVP'
tp919
F2
s(S'CP'
p920
S'AACDP'
tp921
F1
s(S'NP'
S'NNNCCP'
tp922
F1
s(S'CP'
S'CCDDDP'
tp923
F1
s(g17
S'ADVDPPP'
tp924
F4
s(g59
S'DVP'
tp925
F104
s(S'VP'
S'AVNNP'
tp926
F1
s(g301
S'ADVNPP'
tp927
F8
s(g804
S'NNCCCP'
tp928
F1
s(g288
S'PADVADVDDP'
tp929
F1
s(g476
S'AVP'
tp930
F42
s(g117
S'NADVVP'
tp931
F14
s(g7
S'DADDP'
tp932
F1
s(g920
S'AAACDP'
tp933
F1
s(g205
S'DDPPP'
tp934
F16
s(g729
S'ADVNMP'
tp935
F4
s(S'NP'
S'NNAP'
tp936
F5
s(S'MP'
S'MADVVCP'
tp937
F1
s(S'PP'
S'PPANP'
tp938
F1
s(g831
S'MCDDP'
tp939
F1
s(g597
S'DDADVADVANP'
tp940
F1
s(g170
S'PPCCP'
tp941
F1
s(S'CP'
S'CDADVPP'
tp942
F10
s(g29
S'VNP'
tp943
F108
s(g48
S'VANP'
tp944
F13
s(S'VP'
S'VADVAP'
tp945
F5
s(S'VP'
S'VADVADVADP'
tp946
F1
s(g265
S'VVVAP'
tp947
F2
s(S'VP'
S'VVADVADVADVNNP'
tp948
F1
s(g274
S'NADVPPP'
tp949
F2
s.