ccollections
defaultdict
p1
(c__builtin__
float
p2
tRp3
(S'MP'
S'MMDP'
tp4
F2
s(S'AP'
p5
S'AADVPPP'
tp6
F1
s(S'DP'
p7
S'DDMMP'
tp8
F1
s(S'MP'
S'MADVVANP'
tp9
F1
s(S'DP'
p10
S'DDAP'
tp11
F5
s(S'VP'
p12
S'ADVVVNP'
tp13
F1
s(S'NP'
S'NNADVADVCCP'
tp14
F1
s(S'NP'
p15
S'ADVNAPP'
tp16
F2
s(S'PP'
p17
S'PADVNP'
tp18
F13
s(S'DP'
S'DNP'
tp19
F151
s(S'NP'
p20
S'NAMP'
tp21
F1
s(S'NP'
S'ADVNDP'
tp22
F1
s(S'VP'
S'ADVVNNP'
tp23
F1
s(S'CP'
p24
S'CDPPP'
tp25
F30
s(S'VP'
p26
S'VADP'
tp27
F6
s(S'DP'
S'DNNNNP'
tp28
F2
s(S'CP'
S'CDAAPPP'
tp29
F1
s(S'DP'
p30
S'DAAP'
tp31
F3
s(S'AP'
p32
S'AADP'
tp33
F21
s(S'PP'
p34
S'PPPPPP'
tp35
F1
s(S'VP'
S'VADVADVADVAP'
tp36
F1
s(S'PP'
p37
S'APPDP'
tp38
F1
s(S'DP'
S'DAADP'
tp39
F1
s(S'NP'
S'ADVNAAACP'
tp40
F1
s(S'MP'
S'MDVP'
tp41
F4
s(S'PP'
p42
S'APVP'
tp43
F16
s(S'MP'
p44
S'MVDP'
tp45
F20
s(S'PP'
p46
S'PADVANP'
tp47
F2
s(S'PP'
p48
S'PPPP'
tp49
F22
s(S'VP'
p50
S'VVVVDDP'
tp51
F1
s(S'DP'
S'DDDNP'
tp52
F4
s(S'VP'
p53
S'VACP'
tp54
F1
s(S'AP'
S'AAAVP'
tp55
F1
s(S'PP'
S'PPAAP'
tp56
F2
s(S'DP'
p57
S'DADVVP'
tp58
F12
s(S'MP'
p59
S'MVVADVDP'
tp60
F1
s(S'AP'
p61
S'AADVPP'
tp62
F1
s(S'NP'
p63
S'NADVACP'
tp64
F2
s(S'NP'
S'NDDDP'
tp65
F3
s(S'NP'
p66
S'NCCCP'
tp67
F2
s(S'CP'
S'CADVDAPP'
tp68
F1
s(S'VP'
p69
S'VCP'
tp70
F68
s(S'NP'
S'NMMP'
tp71
F5
s(S'NP'
S'NANP'
tp72
F2
s(S'VP'
p73
S'ADVVAAP'
tp74
F2
s(S'NP'
S'NNADVAP'
tp75
F1
s(S'VP'
p76
S'ADVVCCP'
tp77
F1
s(S'PP'
p78
S'PAP'
tp79
F74
s(S'MP'
p80
S'MADVVCCP'
tp81
F1
s(S'MP'
S'MMVVP'
tp82
F1
s(S'DP'
p83
S'AADDDP'
tp84
F1
s(g17
S'ADVPPVP'
tp85
F1
s(g20
S'NNNAP'
tp86
F1
s(S'PP'
S'APVVP'
tp87
F1
s(S'PP'
p88
S'PPADVDP'
tp89
F3
s(g78
S'PNP'
tp90
F132
s(S'DP'
p91
S'DDP'
tp92
F30
s(S'VP'
p93
S'ADVVDDP'
tp94
F5
s(S'NP'
S'NNNPP'
tp95
F1
s(S'PP'
p96
S'PAAP'
tp97
F13
s(S'MP'
S'MCDP'
tp98
F9
s(S'NP'
p99
S'ANADVAP'
tp100
F1
s(S'MP'
S'MNAP'
tp101
F2
s(S'NP'
p102
S'NMP'
tp103
F61
s(S'PP'
S'PPMMP'
tp104
F2
s(g48
S'PAPP'
tp105
F7
s(S'DP'
p106
S'ADCP'
tp107
F1
s(S'VP'
p108
S'VMMP'
tp109
F10
s(S'PP'
S'PDP'
tp110
F146
s(S'CP'
S'CDADVADVPP'
tp111
F4
s(S'NP'
S'ADVNVVP'
tp112
F1
s(S'MP'
p113
S'MNNVP'
tp114
F1
s(S'NP'
p115
S'NNADVADVADVVVP'
tp116
F1
s(S'PP'
S'ADVPAAP'
tp117
F1
s(g96
S'PADVPP'
tp118
F4
s(S'NP'
S'ADVADVADVADVNCP'
tp119
F1
s(S'NP'
p120
S'NNADVCP'
tp121
F1
s(S'VP'
S'VVADVNP'
tp122
F1
s(S'NP'
S'ADVNACP'
tp123
F1
s(g57
S'DPPPP'
tp124
F6
s(S'DP'
S'DDANP'
tp125
F1
s(S'PP'
S'PADVADP'
tp126
F1
s(g76
S'VVP'
tp127
F30
s(S'AP'
S'ADVAVP'
tp128
F3
s(S'NP'
p129
S'NCCP'
tp130
F29
s(S'AP'
S'AADVAPP'
tp131
F1
s(g50
S'VVVVVP'
tp132
F1
s(S'NP'
S'NNCP'
tp133
F36
s(S'DP'
p134
S'ADVDDPP'
tp135
F2
s(S'NP'
S'NADVADVVP'
tp136
F2
s(S'VP'
p137
S'AVNP'
tp138
F6
s(S'NP'
S'ADVNDDP'
tp139
F1
s(S'PP'
S'ADVPVVP'
tp140
F1
s(S'PP'
S'ADVAPDP'
tp141
F1
s(g48
S'AAPNP'
tp142
F2
s(S'VP'
S'VADVVP'
tp143
F3
s(S'MP'
S'MVAPP'
tp144
F1
s(S'PP'
S'ADVPADVDP'
tp145
F2
s(S'NP'
S'NCCCCP'
tp146
F1
s(S'CP'
p147
S'CCCDP'
tp148
F2
s(S'VP'
p149
S'AVNNP'
tp150
F4
s(S'PP'
p151
S'ADVPPNNP'
tp152
F1
s(S'VP'
S'VCCCP'
tp153
F1
s(S'PP'
p154
S'APDP'
tp155
F17
s(S'VP'
S'AVADVAP'
tp156
F1
s(S'VP'
p157
S'ADVADVADVVVMP'
tp158
F1
s(S'AP'
S'AADVCP'
tp159
F3
s(S'VP'
p160
S'ADVADVAVPP'
tp161
F1
s(S'VP'
p162
S'ADVAVPPP'
tp163
F1
s(S'VP'
S'ADVVVP'
tp164
F2
s(S'DP'
p165
S'DADVADVADVPP'
tp166
F1
s(S'NP'
p167
S'ADVNCP'
tp168
F9
s(S'MP'
p169
S'MPNNP'
tp170
F1
s(S'NP'
S'ADVANCP'
tp171
F1
s(g7
S'DNNP'
tp172
F39
s(S'CP'
p173
S'CADVDDPP'
tp174
F2
s(S'DP'
p175
S'DPPPPP'
tp176
F1
s(S'CP'
S'CCADVDP'
tp177
F3
s(S'VP'
p178
S'VVNNNP'
tp179
F1
s(S'VP'
S'AAVDDP'
tp180
F1
s(S'NP'
S'NNNVP'
tp181
F5
s(S'VP'
S'VADVNNP'
tp182
F1
s(S'AP'
S'ADVAADVPP'
tp183
F1
s(S'PP'
S'PADVVP'
tp184
F11
s(S'DP'
p185
S'DADVADVADVPPP'
tp186
F1
s(S'PP'
S'PADVADVADVAP'
tp187
F1
s(S'PP'
S'APAP'
tp188
F2
s(S'NP'
p189
S'NNADVADVMP'
tp190
F1
s(S'CP'
S'ADVADVCDP'
tp191
F3
s(S'NP'
S'AANADVVVP'
tp192
F1
s(S'NP'
S'NADVMP'
tp193
F3
s(S'AP'
S'AAP'
tp194
F4
s(g73
S'VVAPP'
tp195
F1
s(S'NP'
p196
S'ADVADVNCCP'
tp197
F1
s(S'VP'
S'ADVADVVMP'
tp198
F1
s(g149
S'VADVADVNP'
tp199
F2
s(S'MP'
p200
S'MPVP'
tp201
F1
s(S'PP'
S'PAANP'
tp202
F3
s(g160
S'VADVADVCP'
tp203
F2
s(g96
S'PPVVP'
tp204
F9
s(S'PP'
S'PPAVP'
tp205
F1
s(S'NP'
S'NNAAAP'
tp206
F1
s(S'MP'
p207
S'MVNP'
tp208
F15
s(S'NP'
S'NNNNP'
tp209
F1
s(S'CP'
p210
S'CDDDPPP'
tp211
F2
s(S'DP'
S'ADVADNP'
tp212
F2
s(S'PP'
S'PAVP'
tp213
F12
s(S'MP'
S'ADVMVP'
tp214
F5
s(S'VP'
S'ADVVMP'
tp215
F3
s(S'VP'
p216
S'VVVPP'
tp217
F1
s(g210
S'ADVCADP'
tp218
F4
s(S'NP'
S'NMMMMP'
tp219
F1
s(S'PP'
p220
S'APPPP'
tp221
F1
s(g91
S'DADP'
tp222
F3
s(S'VP'
S'VVAANP'
tp223
F2
s(g32
S'ADVADP'
tp224
F3
s(S'AP'
S'APP'
tp225
F37
s(S'MP'
p226
S'MDPP'
tp227
F4
s(g78
S'APDDP'
tp228
F2
s(S'PP'
p229
S'PPADVCCP'
tp230
F1
s(S'DP'
p231
S'ADVDDDP'
tp232
F2
s(S'MP'
S'MDVVP'
tp233
F1
s(S'VP'
S'ADVVNP'
tp234
F10
s(g196
S'ADVNADVMP'
tp235
F1
s(S'MP'
S'MNCP'
tp236
F3
s(g69
S'VVNP'
tp237
F26
s(S'NP'
S'ANNP'
tp238
F1
s(g96
S'PPVP'
tp239
F24
s(S'MP'
S'MAPDDP'
tp240
F1
s(S'MP'
p241
S'MPCP'
tp242
F4
s(S'VP'
p243
S'VADVDP'
tp244
F7
s(S'VP'
p245
S'VAAP'
tp246
F19
s(S'NP'
p247
S'ANDP'
tp248
F7
s(g15
S'NVVP'
tp249
F31
s(g229
S'AAPVP'
tp250
F1
s(g76
S'VMP'
tp251
F56
s(g189
S'ANNAP'
tp252
F1
s(g245
S'VVNNP'
tp253
F8
s(g173
S'CDAPP'
tp254
F12
s(S'VP'
S'VVAAP'
tp255
F3
s(g185
S'ADNP'
tp256
F6
s(S'MP'
S'MNNNCP'
tp257
F1
s(S'MP'
S'ADVADVMVP'
tp258
F3
s(S'PP'
p259
S'PADP'
tp260
F8
s(S'VP'
S'ADVVVCP'
tp261
F1
s(S'DP'
S'DADVADVADVADVNP'
tp262
F1
s(S'DP'
S'DADVAP'
tp263
F1
s(S'MP'
S'MDADVAP'
tp264
F1
s(S'DP'
p265
S'ADVDAANP'
tp266
F1
s(S'DP'
S'DAPP'
tp267
F21
s(S'VP'
S'AVVP'
tp268
F1
s(S'MP'
p269
S'MVVCP'
tp270
F2
s(S'MP'
p271
S'ADVMANP'
tp272
F1
s(g80
S'MDDNP'
tp273
F3
s(S'VP'
p274
S'ADVADVVDP'
tp275
F1
s(S'PP'
p276
S'PPPDP'
tp277
F1
s(S'DP'
S'DAAPPP'
tp278
F1
s(S'AP'
S'AAPPP'
tp279
F1
s(S'VP'
S'VDDDDP'
tp280
F1
s(g57
S'ADVDNP'
tp281
F8
s(g76
S'VVPP'
tp282
F20
s(S'MP'
p283
S'MMMDP'
tp284
F1
s(g207
S'MVPP'
tp285
F11
s(g24
S'CADVADVDDPP'
tp286
F1
s(S'CP'
p287
S'CDDPPP'
tp288
F5
s(S'MP'
p289
S'ADVMVVP'
tp290
F1
s(g283
S'MACCDP'
tp291
F1
s(S'NP'
S'AANPPPP'
tp292
F1
s(S'VP'
p293
S'ADVADVADVVDP'
tp294
F1
s(S'NP'
p295
S'NNPP'
tp296
F22
s(S'DP'
S'DDDDNP'
tp297
F1
s(g44
S'MVVDP'
tp298
F3
s(g61
S'AACP'
tp299
F5
s(S'NP'
p300
S'ANVP'
tp301
F13
s(S'DP'
S'DNNNP'
tp302
F3
s(S'MP'
p303
S'MPPDP'
tp304
F1
s(S'DP'
p305
S'ADVDDVP'
tp306
F3
s(S'PP'
p307
S'PADVADVVP'
tp308
F2
s(g53
S'VADVDDP'
tp309
F2
s(g151
S'PMMP'
tp310
F1
s(S'PP'
S'PVVVP'
tp311
F4
s(S'PP'
p312
S'PMP'
tp313
F12
s(S'NP'
S'NNMMP'
tp314
F1
s(S'PP'
S'ADVPPAP'
tp315
F1
s(S'CP'
p316
S'CCDP'
tp317
F56
s(S'VP'
S'VADVANP'
tp318
F1
s(S'NP'
p319
S'NVVVP'
tp320
F2
s(S'CP'
S'CDDDPP'
tp321
F2
s(S'CP'
p322
S'CDAAPP'
tp323
F1
s(g76
S'VVVDP'
tp324
F2
s(S'PP'
p325
S'PNNNP'
tp326
F4
s(S'CP'
S'CCCCDP'
tp327
F1
s(S'AP'
p328
S'AACCP'
tp329
F1
s(g157
S'VVMP'
tp330
F6
s(g88
S'PADVVVP'
tp331
F1
s(S'PP'
p332
S'PPP'
tp333
F84
s(g295
S'NAVP'
tp334
F12
s(S'DP'
p335
S'ADVADVDDNP'
tp336
F1
s(S'DP'
S'DDNNNP'
tp337
F2
s(S'MP'
S'AMDP'
tp338
F1
s(S'MP'
p339
S'MPNNNP'
tp340
F1
s(S'DP'
S'ADVADVDDPPP'
tp341
F1
s(S'DP'
S'ADVDVP'
tp342
F5
s(S'NP'
S'NAAAP'
tp343
F1
s(S'NP'
p344
S'NADVVVP'
tp345
F3
s(S'MP'
p346
S'MPAAP'
tp347
F1
s(S'AP'
S'AADVVP'
tp348
F2
s(g69
S'VPP'
tp349
F71
s(S'CP'
S'ADVCCDP'
tp350
F2
s(S'AP'
S'ADVADVADVACP'
tp351
F1
s(S'CP'
S'ACCDP'
tp352
F1
s(S'DP'
S'ADVDDNP'
tp353
F4
s(S'NP'
p354
S'NNNCP'
tp355
F5
s(g17
S'PADVDP'
tp356
F6
s(S'CP'
S'CDADVAPP'
tp357
F2
s(S'AP'
S'ADVAADP'
tp358
F1
s(S'DP'
p359
S'DANNP'
tp360
F2
s(S'MP'
S'MADVVAP'
tp361
F1
s(S'PP'
S'PADVAAP'
tp362
F1
s(S'CP'
S'CDDPP'
tp363
F33
s(g106
S'DAAPP'
tp364
F2
s(g332
S'PVVP'
tp365
F23
s(g147
S'CADPPP'
tp366
F1
s(g335
S'DADVPPP'
tp367
F5
s(S'MP'
S'MAVCP'
tp368
F2
s(S'VP'
S'ADVVCP'
tp369
F3
s(g241
S'MCCDP'
tp370
F1
s(g245
S'VPPP'
tp371
F11
s(S'VP'
S'ADVADVVVCCP'
tp372
F1
s(g108
S'AVCCP'
tp373
F1
s(S'VP'
S'VVPPP'
tp374
F2
s(S'PP'
S'PPAP'
tp375
F7
s(S'DP'
p376
S'DVVP'
tp377
F26
s(S'PP'
p378
S'PADVAVP'
tp379
F2
s(g96
S'ADVADVADVPPPP'
tp380
F1
s(S'CP'
S'ADVACDDP'
tp381
F1
s(S'NP'
p382
S'ANMP'
tp383
F4
s(S'AP'
p384
S'APPP'
tp385
F5
s(S'NP'
p386
S'NNNNMP'
tp387
F1
s(S'NP'
p388
S'ADVADVNVP'
tp389
F1
s(g69
S'VVVP'
tp390
F6
s(S'NP'
p391
S'ADVNNCCP'
tp392
F1
s(g24
S'CADVDPP'
tp393
F9
s(S'VP'
p394
S'AVMP'
tp395
F2
s(g102
S'ANCP'
tp396
F19
s(g185
S'DCP'
tp397
F15
s(g165
S'DVVVP'
tp398
F2
s(S'DP'
S'DDDNNP'
tp399
F1
s(S'VP'
p400
S'ADVAVAP'
tp401
F1
s(S'MP'
S'MNADVPP'
tp402
F1
s(S'DP'
p403
S'DDDP'
tp404
F2
s(S'AP'
S'ADDDDP'
tp405
F1
s(S'DP'
S'DDADVPP'
tp406
F3
s(S'NP'
p407
S'ANNVVP'
tp408
F2
s(S'NP'
S'ANVVP'
tp409
F3
s(S'VP'
p410
S'VVDP'
tp411
F26
s(S'NP'
p412
S'NPPP'
tp413
F29
s(g120
S'NADVADVCP'
tp414
F1
s(S'DP'
S'AADVVP'
tp415
F1
s(S'DP'
S'DAVP'
tp416
F6
s(g216
S'VADVADVAP'
tp417
F1
s(S'PP'
p418
S'ADVPPP'
tp419
F2
s(S'AP'
S'ACP'
tp420
F36
s(g276
S'AAPAP'
tp421
F1
s(g259
S'PPNP'
tp422
F33
s(g271
S'MADVVPP'
tp423
F1
s(g300
S'NAADP'
tp424
F1
s(g175
S'ADVDAPP'
tp425
F2
s(g160
S'VVADVMP'
tp426
F1
s(g359
S'AADVP'
tp427
F1
s(g120
S'NNNNCCP'
tp428
F1
s(S'MP'
S'MADNP'
tp429
F1
s(S'PP'
S'ADVADVADVPMMP'
tp430
F1
s(S'MP'
p431
S'MNADVACP'
tp432
F1
s(S'CP'
S'CDDADVPP'
tp433
F3
s(g287
S'CCCDDP'
tp434
F1
s(S'AP'
p435
S'ADP'
tp436
F102
s(g134
S'DDAVP'
tp437
F3
s(S'MP'
S'MADDP'
tp438
F1
s(S'NP'
S'NADVADVAP'
tp439
F1
s(S'VP'
p440
S'ADVADVVNNP'
tp441
F1
s(S'AP'
S'AAADP'
tp442
F6
s(g344
S'ANNVP'
tp443
F2
s(S'VP'
S'VVAP'
tp444
F13
s(S'NP'
p445
S'NNAPP'
tp446
F1
s(g418
S'ADVPPADVNP'
tp447
F1
s(S'CP'
S'ADVACDP'
tp448
F1
s(S'NP'
S'NPP'
tp449
F126
s(g274
S'ADVADVVAP'
tp450
F3
s(g300
S'NVP'
tp451
F139
s(g220
S'PPVVVP'
tp452
F2
s(g378
S'PAAVP'
tp453
F1
s(S'PP'
S'AAPPNP'
tp454
F1
s(S'NP'
S'NAAPP'
tp455
F2
s(g245
S'VDDP'
tp456
F32
s(g319
S'AANNVP'
tp457
F1
s(g265
S'DMP'
tp458
F2
s(S'DP'
S'DADVAPP'
tp459
F2
s(g66
S'NADVADVVVP'
tp460
F1
s(g129
S'ANPP'
tp461
F18
s(S'PP'
S'ADVPPDP'
tp462
F2
s(S'PP'
p463
S'PPPPP'
tp464
F6
s(S'MP'
p465
S'MPDP'
tp466
F15
s(S'PP'
p467
S'ADVADVPDP'
tp468
F2
s(g467
S'PPCP'
tp469
F1
s(S'MP'
S'MVVPP'
tp470
F2
s(g91
S'ADVDPP'
tp471
F14
s(S'NP'
p472
S'ADVADVNPP'
tp473
F2
s(g63
S'NPPPP'
tp474
F1
s(g185
S'ADDP'
tp475
F1
s(S'VP'
p476
S'VVVMP'
tp477
F2
s(S'CP'
p478
S'CAADPP'
tp479
F2
s(S'NP'
S'NAACP'
tp480
F2
s(g96
S'PNNP'
tp481
F29
s(S'CP'
p482
S'CDADVADVADVPPP'
tp483
F1
s(g96
S'APNNP'
tp484
F4
s(S'MP'
p485
S'MMNP'
tp486
F3
s(S'VP'
p487
S'AVAP'
tp488
F5
s(S'MP'
S'MMVP'
tp489
F15
s(S'PP'
p490
S'PADVDDP'
tp491
F5
s(g332
S'PCCP'
tp492
F2
s(g490
S'PPAADP'
tp493
F3
s(S'NP'
S'ANNMP'
tp494
F4
s(S'MP'
S'MPDDP'
tp495
F1
s(S'NP'
S'NAPPP'
tp496
F1
s(g322
S'ACDP'
tp497
F12
s(g69
S'VCCP'
tp498
F13
s(S'MP'
p499
S'MDNNP'
tp500
F3
s(S'CP'
S'CDADVPPP'
tp501
F3
s(g410
S'VAP'
tp502
F75
s(S'DP'
S'DDDPP'
tp503
F7
s(S'CP'
S'ADVCDDP'
tp504
F1
s(g391
S'AANNCP'
tp505
F1
s(S'PP'
S'ADVPMP'
tp506
F2
s(S'PP'
p507
S'PPAADDP'
tp508
F1
s(S'VP'
p509
S'VADVMP'
tp510
F1
s(S'AP'
S'AAVVP'
tp511
F3
s(g403
S'DDDPPP'
tp512
F3
s(g30
S'DDDAP'
tp513
F2
s(S'AP'
p514
S'AAACP'
tp515
F2
s(S'PP'
p516
S'PAPPP'
tp517
F1
s(g76
S'ADVVVDP'
tp518
F3
s(g226
S'MAVP'
tp519
F1
s(g17
S'PPPVP'
tp520
F5
s(S'AP'
p521
S'AADDP'
tp522
F8
s(S'VP'
S'VAANP'
tp523
F3
s(g445
S'ANAVVP'
tp524
F1
s(S'PP'
S'PPPCP'
tp525
F2
s(S'DP'
S'ADVADVADVDVP'
tp526
F1
s(g403
S'DDDDPP'
tp527
F1
s(g303
S'MPNP'
tp528
F4
s(g12
S'VVAADP'
tp529
F1
s(S'MP'
S'MADP'
tp530
F3
s(S'PP'
p531
S'PPPDDP'
tp532
F1
s(g328
S'AMMP'
tp533
F1
s(g10
S'DDADVNP'
tp534
F2
s(g154
S'PANP'
tp535
F14
s(g312
S'PDDDP'
tp536
F3
s(g42
S'PADVAP'
tp537
F3
s(S'DP'
S'ADVADPP'
tp538
F1
s(S'AP'
S'AAVP'
tp539
F13
s(S'AP'
S'AVVP'
tp540
F8
s(g15
S'NDDP'
tp541
F12
s(S'MP'
S'MVADVDP'
tp542
F1
s(S'AP'
S'ACCP'
tp543
F3
s(S'VP'
p544
S'ADVVADVADVVP'
tp545
F1
s(S'PP'
S'PADVADVADVDDP'
tp546
F1
s(g129
S'NDP'
tp547
F76
s(g169
S'MVAAP'
tp548
F2
s(S'DP'
S'DDVP'
tp549
F29
s(g231
S'AADNNNP'
tp550
F1
s(g99
S'AANVP'
tp551
F4
s(S'PP'
S'PPADVANP'
tp552
F1
s(S'VP'
S'ADVVVNNP'
tp553
F1
s(S'VP'
S'VNNNP'
tp554
F1
s(S'VP'
S'VADVADVPP'
tp555
F1
s(g46
S'ADVPAP'
tp556
F1
s(g80
S'MMVVVP'
tp557
F1
s(g332
S'PCP'
tp558
F19
s(S'VP'
S'VADVADP'
tp559
F2
s(g271
S'AMDDP'
tp560
F1
s(g42
S'PAADP'
tp561
F2
s(S'NP'
S'ADVNNVP'
tp562
F1
s(g178
S'ADVAVNNP'
tp563
F1
s(S'VP'
S'VPPPP'
tp564
F1
s(S'NP'
S'ADVNNPP'
tp565
F1
s(S'VP'
S'VVADVACP'
tp566
F1
s(S'NP'
S'ANPPPP'
tp567
F1
s(g346
S'MPAP'
tp568
F3
s(S'NP'
p569
S'NNNDP'
tp570
F1
s(S'AP'
S'ADVACP'
tp571
F1
s(S'AP'
S'ADVADVAMP'
tp572
F1
s(S'VP'
S'AVVDP'
tp573
F1
s(S'DP'
p574
S'ADPPP'
tp575
F3
s(g499
S'MVCP'
tp576
F7
s(S'CP'
S'CCDDP'
tp577
F11
s(S'NP'
S'NNNVVP'
tp578
F1
s(S'VP'
S'ADVADVADVVPP'
tp579
F1
s(g305
S'DDADP'
tp580
F2
s(g295
S'NAAP'
tp581
F8
s(g339
S'MVMP'
tp582
F1
s(g509
S'VAMP'
tp583
F1
s(g388
S'NNVVP'
tp584
F9
s(g26
S'VVCP'
tp585
F17
s(S'MP'
S'MVAANP'
tp586
F1
s(S'DP'
p587
S'ADVDMP'
tp588
F1
s(S'NP'
S'AANCP'
tp589
F5
s(S'VP'
S'VADVNP'
tp590
F6
s(S'VP'
S'VVDDDP'
tp591
F1
s(S'AP'
S'ADVAVVP'
tp592
F1
s(g59
S'MDCP'
tp593
F1
s(S'VP'
S'AVVPP'
tp594
F1
s(g259
S'APPP'
tp595
F3
s(g162
S'AAVPP'
tp596
F2
s(g216
S'ADVVPP'
tp597
F2
s(S'VP'
p598
S'VNNP'
tp599
F31
s(g384
S'AADVDP'
tp600
F3
s(S'NP'
p601
S'NADP'
tp602
F3
s(g376
S'DDNP'
tp603
F39
s(S'NP'
p604
S'NADVNP'
tp605
F1
s(S'NP'
S'NADVCP'
tp606
F15
s(g57
S'DDNNP'
tp607
F9
s(S'VP'
S'ADVVVANNP'
tp608
F1
s(g247
S'ADVANVP'
tp609
F2
s(g407
S'ADVNAAP'
tp610
F2
s(g269
S'MNNNNMP'
tp611
F1
s(S'NP'
S'ADVADVNCP'
tp612
F2
s(g83
S'AADPP'
tp613
F3
s(S'DP'
S'DDADVADVADVNNP'
tp614
F1
s(g178
S'VADVAVP'
tp615
F1
s(S'NP'
S'NNNNPP'
tp616
F1
s(S'MP'
S'MAVAP'
tp617
F1
s(S'CP'
S'AAACDDP'
tp618
F1
s(S'MP'
S'MVVNP'
tp619
F3
s(S'CP'
p620
S'ACDDP'
tp621
F4
s(S'AP'
S'AADVADVDDP'
tp622
F1
s(S'AP'
S'AAPP'
tp623
F7
s(S'VP'
S'VVCCP'
tp624
F3
s(S'AP'
S'AADVAMP'
tp625
F1
s(S'PP'
S'APDDDDP'
tp626
F1
s(S'DP'
p627
S'DADVADVNP'
tp628
F2
s(g196
S'ANDDP'
tp629
F1
s(g115
S'NNPPP'
tp630
F2
s(S'MP'
S'MACP'
tp631
F1
s(g243
S'VVVCCP'
tp632
F1
s(g129
S'NAPP'
tp633
F10
s(g516
S'APPVP'
tp634
F1
s(g5
S'ADVADVADP'
tp635
F1
s(S'NP'
p636
S'NADVDP'
tp637
F1
s(g108
S'VVVCP'
tp638
F3
s(S'NP'
p639
S'ANCCP'
tp640
F1
s(S'NP'
p641
S'AANPP'
tp642
F1
s(S'VP'
S'VDDDP'
tp643
F6
s(S'NP'
S'NNMP'
tp644
F9
s(S'DP'
p645
S'DDDVP'
tp646
F2
s(g7
S'DDDADVVVP'
tp647
F1
s(g499
S'MAPDP'
tp648
F2
s(S'PP'
S'PAAAP'
tp649
F2
s(S'PP'
S'ADVADVPNP'
tp650
F4
s(S'VP'
S'VVVDDP'
tp651
F1
s(S'CP'
S'CADVADVDDPPP'
tp652
F1
s(S'CP'
S'CDDAPP'
tp653
F2
s(g639
S'AANAP'
tp654
F1
s(g386
S'ANAP'
tp655
F3
s(S'MP'
S'MVAP'
tp656
F11
s(g78
S'PVP'
tp657
F128
s(g216
S'VADVPPP'
tp658
F1
s(S'MP'
S'AMPPP'
tp659
F1
s(S'VP'
S'VADVCCP'
tp660
F1
s(S'AP'
S'AADVDDP'
tp661
F1
s(S'MP'
S'MADVADVVCP'
tp662
F1
s(S'NP'
S'ANAAAP'
tp663
F1
s(g569
S'ADVNAVP'
tp664
F1
s(g167
S'ANNCP'
tp665
F6
s(S'PP'
S'PPADVPP'
tp666
F1
s(S'AP'
S'AAAADVVP'
tp667
F1
s(S'DP'
S'DDDDNNNP'
tp668
F1
s(S'DP'
S'ADVADVADVDNP'
tp669
F1
s(g289
S'MMMMVP'
tp670
F1
s(g293
S'VVADVADVADVVP'
tp671
F1
s(S'PP'
S'PPDDP'
tp672
F3
s(S'VP'
S'AVCP'
tp673
F4
s(g175
S'DDVVVP'
tp674
F2
s(S'NP'
S'NAVVP'
tp675
F1
s(S'DP'
S'ADVADVADVDDPPP'
tp676
F1
s(g376
S'DPP'
tp677
F159
s(g601
S'ADVNVP'
tp678
F13
s(S'CP'
S'CDADVADVADVPP'
tp679
F1
s(S'DP'
p680
S'DDPP'
tp681
F54
s(g376
S'DANP'
tp682
F36
s(S'AP'
S'ADVAMP'
tp683
F3
s(S'NP'
p684
S'NADVPP'
tp685
F5
s(S'NP'
p686
S'NAAVP'
tp687
F3
s(g680
S'AADNP'
tp688
F4
s(g412
S'NACP'
tp689
F14
s(g293
S'VADVCP'
tp690
F1
s(S'NP'
S'NNNNCP'
tp691
F1
s(S'MP'
p692
S'MDNP'
tp693
F13
s(S'AP'
S'ADVADVADVAPPP'
tp694
F1
s(S'MP'
S'MNAVP'
tp695
F1
s(g463
S'PPADVADVVP'
tp696
F1
s(g17
S'PADVPPP'
tp697
F1
s(S'DP'
S'DCCP'
tp698
F2
s(g620
S'CDPPPPP'
tp699
F1
s(S'MP'
S'MADVVDP'
tp700
F2
s(g10
S'DDADVVP'
tp701
F1
s(g312
S'PDDP'
tp702
F31
s(S'MP'
S'MVDDP'
tp703
F3
s(S'NP'
S'NNNADVVP'
tp704
F1
s(g15
S'NNVP'
tp705
F53
s(S'PP'
S'PADVADVADVDP'
tp706
F2
s(g598
S'AVDP'
tp707
F11
s(S'NP'
S'NNP'
tp708
F1
s(g487
S'VVDDP'
tp709
F2
s(S'DP'
S'DAANP'
tp710
F3
s(S'AP'
S'ADDP'
tp711
F18
s(S'VP'
S'VADVADVMP'
tp712
F1
s(g325
S'ADVPPNP'
tp713
F4
s(S'MP'
S'MDAP'
tp714
F6
s(g482
S'CADVADVDPP'
tp715
F3
s(g91
S'DPPP'
tp716
F60
s(S'NP'
S'NNAVP'
tp717
F1
s(S'PP'
S'ADVPNP'
tp718
F9
s(g332
S'PPDP'
tp719
F30
s(S'DP'
S'DADVVVP'
tp720
F1
s(S'MP'
S'MAVDP'
tp721
F2
s(S'PP'
S'ADVAPNNNP'
tp722
F1
s(g627
S'DDPPPP'
tp723
F1
s(S'DP'
S'DDCP'
tp724
F1
s(g137
S'VMMMP'
tp725
F1
s(S'DP'
S'ADDPP'
tp726
F1
s(g15
S'NAP'
tp727
F44
s(g382
S'NNAAP'
tp728
F2
s(S'VP'
S'VAAAP'
tp729
F5
s(S'VP'
S'AVADVCP'
tp730
F1
s(g440
S'ADVAVNP'
tp731
F1
s(g34
S'ADVPADP'
tp732
F1
s(g7
S'DDAPP'
tp733
F6
s(S'PP'
S'ADVADVPVP'
tp734
F1
s(g465
S'MAPP'
tp735
F1
s(g312
S'APNP'
tp736
F8
s(g574
S'DDVVP'
tp737
F3
s(S'AP'
S'AAADDP'
tp738
F1
s(S'VP'
S'VVVNP'
tp739
F4
s(g692
S'MNPP'
tp740
F6
s(g73
S'ADVADVADVVVCCP'
tp741
F1
s(S'NP'
S'NNADVPP'
tp742
F2
s(g283
S'MVANP'
tp743
F1
s(S'MP'
S'MAVVDP'
tp744
F1
s(g91
S'ADVADVDDPP'
tp745
F1
s(g113
S'MVNNP'
tp746
F2
s(g316
S'CDPP'
tp747
F154
s(g485
S'MVVNNP'
tp748
F2
s(S'AP'
S'ADDDP'
tp749
F1
s(S'NP'
S'NNADVADVVVP'
tp750
F2
s(g66
S'NNDP'
tp751
F11
s(S'MP'
S'MVVAANP'
tp752
F1
s(S'CP'
p753
S'ADVCDP'
tp754
F16
s(S'AP'
S'ADVAAP'
tp755
F1
s(g544
S'ADVADVVNP'
tp756
F2
s(g431
S'MNPPP'
tp757
F1
s(S'VP'
S'ADVADVVCP'
tp758
F2
s(S'PP'
S'PPNNP'
tp759
F5
s(g636
S'NNADVADVVP'
tp760
F1
s(S'PP'
S'ADVPAVP'
tp761
F1
s(S'PP'
S'PPMP'
tp762
F2
s(g185
S'ADVADVDPP'
tp763
F3
s(g410
S'VDP'
tp764
F139
s(S'MP'
S'MMADVADVVP'
tp765
F1
s(S'NP'
S'NADVAP'
tp766
F3
s(S'MP'
S'ADVAMPP'
tp767
F1
s(S'VP'
S'AVDDP'
tp768
F1
s(g7
S'DADVNP'
tp769
F15
s(S'DP'
S'DDCCP'
tp770
F1
s(g106
S'DAP'
tp771
F34
s(g753
S'CADPP'
tp772
F12
s(g686
S'NADVAVP'
tp773
F1
s(g245
S'ADVADVVVPP'
tp774
F2
s(g604
S'ANNADVVVP'
tp775
F1
s(g37
S'PPDDDP'
tp776
F1
s(g394
S'AVPP'
tp777
F5
s(g66
S'NADVADVMP'
tp778
F1
s(S'DP'
S'DDNNNNP'
tp779
F1
s(S'VP'
p780
S'VVADVDP'
tp781
F1
s(g307
S'PPADVADVDDP'
tp782
F1
s(S'CP'
S'CDPPPP'
tp783
F5
s(g400
S'AAVDP'
tp784
F1
s(g305
S'AADNNP'
tp785
F3
s(S'NP'
S'ADVANMP'
tp786
F1
s(g684
S'NNDDP'
tp787
F3
s(g645
S'DADVADVPP'
tp788
F5
s(g7
S'ADVP'
tp789
F5
s(g531
S'PPPNP'
tp790
F2
s(S'CP'
S'ADVACADVDP'
tp791
F1
s(S'PP'
S'PPAANP'
tp792
F1
s(S'PP'
S'PADVADVNP'
tp793
F2
s(g91
S'ADPP'
tp794
F25
s(S'NP'
S'NNADVVVP'
tp795
F2
s(S'VP'
p796
S'VADVPP'
tp797
F1
s(g587
S'ADVDANP'
tp798
F1
s(S'PP'
S'ADVPVP'
tp799
F6
s(S'NP'
S'NADVADVADVVVP'
tp800
F2
s(S'MP'
S'MVMMP'
tp801
F1
s(g354
S'NNVVVP'
tp802
F1
s(g796
S'ADVVANP'
tp803
F1
s(g96
S'ADVPDP'
tp804
F9
s(g245
S'ADVVADP'
tp805
F1
s(g641
S'ANNPP'
tp806
F4
s(S'PP'
S'PPDDDDP'
tp807
F1
s(S'MP'
S'MVADVAP'
tp808
F1
s(g129
S'NCP'
tp809
F126
s(g322
S'CADVDPPP'
tp810
F3
s(g476
S'ADVVVPP'
tp811
F3
s(S'PP'
S'PPADVNNP'
tp812
F1
s(S'AP'
S'AAAP'
tp813
F1
s(S'VP'
S'VAADP'
tp814
F2
s(S'AP'
S'AAMP'
tp815
F3
s(S'MP'
S'MVCCP'
tp816
F1
s(g403
S'DADVNNP'
tp817
F2
s(g295
S'NNCCP'
tp818
F10
s(S'MP'
S'MNVP'
tp819
F8
s(S'PP'
S'APADVNP'
tp820
F1
s(S'VP'
S'ADVADVADVVVCP'
tp821
F1
s(S'CP'
S'ADVADVCCDP'
tp822
F1
s(g472
S'AANCCP'
tp823
F1
s(g394
S'VAPP'
tp824
F6
s(g200
S'MAVNP'
tp825
F1
s(S'VP'
S'ADVVDP'
tp826
F13
s(g507
S'PAACP'
tp827
F2
s(g684
S'ADVADVADVNNVP'
tp828
F1
s(S'DP'
S'DADVPP'
tp829
F17
s(g435
S'AMP'
tp830
F24
s(S'NP'
S'ADVNNCP'
tp831
F1
s(S'NP'
S'NNNPPP'
tp832
F1
s(g521
S'ADVAPP'
tp833
F6
s(g478
S'AACDP'
tp834
F4
s(S'CP'
S'CCDDDP'
tp835
F1
s(g106
S'ADVDPPP'
tp836
F5
s(g680
S'DVP'
tp837
F116
s(g93
S'ADVVAP'
tp838
F6
s(S'NP'
S'ADVNPP'
tp839
F5
s(S'VP'
S'VVAMP'
tp840
F1
s(g514
S'AVP'
tp841
F35
s(g66
S'NADVVP'
tp842
F16
s(g113
S'MADVADVPNP'
tp843
F1
s(S'PP'
S'ADVAPCCP'
tp844
F1
s(g149
S'ADVVPPP'
tp845
F2
s(g185
S'DDPPP'
tp846
F7
s(S'NP'
S'ADVNMP'
tp847
F2
s(S'NP'
S'NNAP'
tp848
F4
s(S'NP'
S'NNADVPPP'
tp849
F1
s(S'PP'
S'PPANP'
tp850
F3
s(S'MP'
S'MCDDP'
tp851
F1
s(S'CP'
S'CDADVPP'
tp852
F9
s(S'VP'
S'VNP'
tp853
F118
s(g137
S'VANP'
tp854
F8
s(g780
S'VADVAP'
tp855
F9
s(S'PP'
S'PADVADVAVP'
tp856
F1
s(S'NP'
S'NADVPPP'
tp857
F1
s.