ccollections
defaultdict
p1
(c__builtin__
float
p2
tRp3
(S'MP'
S'MMDP'
tp4
F3
s(S'AP'
p5
S'AADVPPP'
tp6
F1
s(S'PP'
p7
S'ADVADVPPAP'
tp8
F2
s(S'PP'
S'PAAANP'
tp9
F2
s(S'DP'
S'ADDPP'
tp10
F1
s(S'DP'
p11
S'DDAP'
tp12
F6
s(S'VP'
p13
S'ADVVVNP'
tp14
F2
s(S'VP'
p15
S'VVVVP'
tp16
F1
s(g5
S'AVVVP'
tp17
F1
s(S'PP'
p18
S'PAPP'
tp19
F8
s(S'PP'
p20
S'PADVNP'
tp21
F10
s(S'DP'
p22
S'DNP'
tp23
F208
s(S'CP'
S'CDADVADVPPP'
tp24
F1
s(S'DP'
S'AADDNP'
tp25
F1
s(S'NP'
p26
S'ADVNDP'
tp27
F5
s(S'PP'
p28
S'AAPDDP'
tp29
F1
s(S'VP'
p30
S'ADVVNNP'
tp31
F1
s(S'CP'
p32
S'CDPPP'
tp33
F44
s(S'MP'
p34
S'MAAVVPP'
tp35
F1
s(S'VP'
p36
S'VADP'
tp37
F17
s(S'DP'
p38
S'DNNNNP'
tp39
F1
s(S'DP'
p40
S'DAAP'
tp41
F3
s(S'PP'
S'PPAVP'
tp42
F1
s(S'PP'
p43
S'PPPPPP'
tp44
F4
s(S'VP'
S'AVMMP'
tp45
F1
s(S'VP'
S'VAVP'
tp46
F3
s(S'AP'
S'AADVMP'
tp47
F1
s(S'DP'
p48
S'ADNNP'
tp49
F4
s(S'MP'
p50
S'MDVP'
tp51
F3
s(S'NP'
p52
S'ADVADVNCP'
tp53
F1
s(S'VP'
p54
S'ADVVNP'
tp55
F10
s(S'MP'
p56
S'MVDP'
tp57
F28
s(S'NP'
p58
S'AANNPP'
tp59
F2
s(S'PP'
p60
S'PPPP'
tp61
F36
s(S'MP'
S'MMMADVVP'
tp62
F1
s(S'AP'
S'ADVAPPP'
tp63
F1
s(S'DP'
p64
S'DDDNP'
tp65
F6
s(S'MP'
p66
S'MMADVVP'
tp67
F1
s(S'MP'
S'AMCP'
tp68
F1
s(g13
S'VACP'
tp69
F1
s(S'AP'
S'AAAVP'
tp70
F1
s(S'PP'
S'PPAAP'
tp71
F2
s(S'MP'
p72
S'MVVPPP'
tp73
F1
s(S'DP'
p74
S'DADVVP'
tp75
F8
s(S'AP'
S'AADVPP'
tp76
F5
s(S'NP'
p77
S'NADVACP'
tp78
F3
s(S'NP'
p79
S'NADVVVP'
tp80
F4
s(S'CP'
p81
S'CADVDAPP'
tp82
F4
s(S'VP'
S'VCP'
tp83
F87
s(S'NP'
S'ADVNNP'
tp84
F1
s(g77
S'NMMP'
tp85
F9
s(S'NP'
S'NANP'
tp86
F1
s(S'VP'
p87
S'ADVVAAP'
tp88
F1
s(S'NP'
S'NNADVAP'
tp89
F1
s(S'MP'
S'MVADVNP'
tp90
F2
s(g20
S'PAP'
tp91
F93
s(S'MP'
p92
S'MMVVP'
tp93
F2
s(S'VP'
S'VADVADVAP'
tp94
F4
s(g52
S'ANNCCP'
tp95
F1
s(S'PP'
p96
S'ADVPPVP'
tp97
F3
s(S'NP'
S'NNNAP'
tp98
F1
s(g18
S'APVVP'
tp99
F1
s(S'PP'
p100
S'PPADVDP'
tp101
F1
s(S'VP'
p102
S'VADVANP'
tp103
F3
s(g20
S'PNP'
tp104
F175
s(S'NP'
S'AAANNDP'
tp105
F1
s(S'MP'
S'MADVCDP'
tp106
F1
s(S'DP'
p107
S'DDP'
tp108
F46
s(S'AP'
S'ADVADVAADVMP'
tp109
F1
s(S'NP'
p110
S'NNNPP'
tp111
F4
s(S'VP'
S'VCCP'
tp112
F19
s(S'MP'
p113
S'MCDP'
tp114
F12
s(S'MP'
S'MNAP'
tp115
F1
s(S'NP'
p116
S'NMP'
tp117
F72
s(S'MP'
S'MAVDDP'
tp118
F1
s(S'VP'
S'VAAADP'
tp119
F2
s(S'VP'
p120
S'AAVNP'
tp121
F1
s(S'VP'
S'VMMP'
tp122
F2
s(g20
S'PDP'
tp123
F193
s(S'CP'
S'CCADVADVDP'
tp124
F1
s(S'PP'
p125
S'PPADVVP'
tp126
F2
s(S'MP'
S'MNNVP'
tp127
F2
s(S'DP'
p128
S'DDADVADVPPP'
tp129
F2
s(g87
S'AVAAP'
tp130
F1
s(S'PP'
S'PPPADVVP'
tp131
F1
s(S'PP'
p132
S'ADVADVADVPPDP'
tp133
F1
s(S'AP'
S'ANP'
tp134
F1
s(S'PP'
p135
S'ADVPAAP'
tp136
F3
s(g18
S'PADVPP'
tp137
F2
s(S'VP'
p138
S'AAVPP'
tp139
F2
s(S'NP'
S'AANNMMMP'
tp140
F1
s(S'PP'
p141
S'PPADVAP'
tp142
F1
s(S'PP'
p143
S'AAPPPP'
tp144
F1
s(S'DP'
S'DPPPP'
tp145
F12
s(S'DP'
p146
S'DDANP'
tp147
F2
s(S'PP'
S'PADVADP'
tp148
F3
s(g116
S'NACP'
tp149
F14
s(S'AP'
S'ADVAVP'
tp150
F6
s(S'NP'
p151
S'NCCP'
tp152
F43
s(S'DP'
p153
S'DADVADVVVP'
tp154
F1
s(S'AP'
S'AAAADP'
tp155
F1
s(S'NP'
S'NADVADVADVDP'
tp156
F1
s(S'NP'
p157
S'NNCP'
tp158
F50
s(g40
S'ADVDDPP'
tp159
F5
s(g26
S'NADVADVVP'
tp160
F4
s(S'NP'
p161
S'NNPPPP'
tp162
F1
s(S'DP'
S'DDDDP'
tp163
F1
s(S'MP'
S'MAAADP'
tp164
F1
s(S'VP'
p165
S'AVNP'
tp166
F13
s(S'NP'
S'NADVADVPP'
tp167
F1
s(g143
S'ADVPVVP'
tp168
F2
s(S'VP'
S'VVADVCP'
tp169
F1
s(g107
S'DADVADVMMP'
tp170
F1
s(S'PP'
p171
S'ADVAPDP'
tp172
F2
s(S'CP'
p173
S'ACCDDP'
tp174
F1
s(S'MP'
S'MVAPP'
tp175
F1
s(g7
S'ADVPAPP'
tp176
F1
s(g38
S'DADVPPP'
tp177
F1
s(S'MP'
p178
S'MPPADVAP'
tp179
F1
s(g81
S'CCCDP'
tp180
F9
s(S'VP'
p181
S'ADVVAP'
tp182
F4
s(S'VP'
S'VCCCP'
tp183
F1
s(S'PP'
p184
S'APDP'
tp185
F24
s(S'AP'
S'AANNP'
tp186
F1
s(S'NP'
S'ADVNPPP'
tp187
F1
s(S'AP'
S'AADVCP'
tp188
F1
s(S'MP'
S'ADVMPP'
tp189
F2
s(S'VP'
p190
S'VVVVDP'
tp191
F1
s(S'PP'
p192
S'PPADVADVAP'
tp193
F1
s(S'MP'
S'MADVVNP'
tp194
F1
s(S'PP'
p195
S'PAAP'
tp196
F11
s(S'MP'
p197
S'MPNNP'
tp198
F1
s(S'NP'
S'ADVANCP'
tp199
F1
s(g107
S'DNNP'
tp200
F59
s(g54
S'VVACCP'
tp201
F1
s(S'DP'
p202
S'DPPPPP'
tp203
F1
s(S'CP'
p204
S'CCADVDP'
tp205
F4
s(S'VP'
S'ADVADVADVVVDP'
tp206
F1
s(S'DP'
S'ADDNP'
tp207
F1
s(g79
S'NNNVP'
tp208
F4
s(S'VP'
S'VADVNNP'
tp209
F1
s(S'VP'
p210
S'ADVAVVNNP'
tp211
F1
s(S'PP'
p212
S'PADVVP'
tp213
F14
s(S'VP'
S'ADVADVVPPP'
tp214
F1
s(S'PP'
p215
S'PADVADVADVAP'
tp216
F1
s(S'PP'
p217
S'APAP'
tp218
F5
s(S'CP'
S'ADVADVCDP'
tp219
F1
s(S'NP'
S'NADVMP'
tp220
F1
s(S'AP'
S'AAP'
tp221
F3
s(S'VP'
p222
S'VADVADVVP'
tp223
F1
s(S'VP'
S'VVAPP'
tp224
F1
s(S'MP'
S'ADVADVMMVP'
tp225
F1
s(S'CP'
S'CDDDDPP'
tp226
F1
s(S'MP'
S'MPVP'
tp227
F2
s(S'MP'
S'MVVVNP'
tp228
F1
s(S'PP'
S'PAANP'
tp229
F1
s(S'NP'
S'ANVP'
tp230
F13
s(S'NP'
S'NNADVPP'
tp231
F1
s(g120
S'VAAAP'
tp232
F3
s(g113
S'MVNP'
tp233
F25
s(S'MP'
p234
S'MNDP'
tp235
F1
s(S'AP'
S'AADVCCP'
tp236
F1
s(S'NP'
S'ANAAP'
tp237
F1
s(S'AP'
S'ADVAADP'
tp238
F2
s(S'DP'
S'ADVADNP'
tp239
F2
s(g141
S'PAVP'
tp240
F16
s(S'MP'
S'ADVMVP'
tp241
F2
s(S'PP'
p242
S'ADVADVPPVP'
tp243
F4
s(S'VP'
S'ADVVMP'
tp244
F1
s(S'CP'
S'CADVADVADPP'
tp245
F1
s(S'PP'
p246
S'APPPP'
tp247
F4
s(S'DP'
S'DADP'
tp248
F3
s(S'AP'
S'ADVADP'
tp249
F4
s(S'AP'
p250
S'APP'
tp251
F51
s(S'DP'
p252
S'ADVDDP'
tp253
F2
s(S'PP'
p254
S'APDDP'
tp255
F2
s(S'NP'
S'ADVNAP'
tp256
F2
s(S'PP'
p257
S'PPCP'
tp258
F3
s(g257
S'APVP'
tp259
F18
s(g197
S'MNCP'
tp260
F3
s(S'VP'
p261
S'VVNP'
tp262
F46
s(g43
S'PPVP'
tp263
F34
s(S'MP'
p264
S'MPCP'
tp265
F1
s(S'VP'
S'VADVDP'
tp266
F5
s(S'MP'
S'MDDAP'
tp267
F1
s(g11
S'DDDPP'
tp268
F7
s(S'VP'
p269
S'VAAP'
tp270
F20
s(S'NP'
S'ANDP'
tp271
F9
s(g151
S'NVVP'
tp272
F43
s(S'PP'
S'AAPVP'
tp273
F1
s(S'VP'
p274
S'VMP'
tp275
F39
s(S'VP'
S'VVNNP'
tp276
F6
s(S'CP'
p277
S'CDAPP'
tp278
F30
s(g15
S'VVAAP'
tp279
F3
s(S'DP'
p280
S'ADVADVP'
tp281
F1
s(S'DP'
S'ADNP'
tp282
F18
s(g215
S'PAPPP'
tp283
F1
s(g38
S'ADVDDCP'
tp284
F1
s(S'PP'
p285
S'PADP'
tp286
F11
s(S'DP'
S'ADVADVADVVP'
tp287
F1
s(S'VP'
S'ADVVVCP'
tp288
F3
s(g52
S'ANDDP'
tp289
F1
s(S'AP'
S'AAADVADVDP'
tp290
F1
s(S'DP'
S'ADVADVDVP'
tp291
F1
s(S'DP'
S'DAPP'
tp292
F44
s(S'PP'
S'ADVPADDP'
tp293
F1
s(S'MP'
S'MPDDDP'
tp294
F1
s(S'VP'
S'AVVP'
tp295
F1
s(S'DP'
p296
S'DAAVP'
tp297
F1
s(S'VP'
p298
S'ADVADVADVVDP'
tp299
F2
s(S'CP'
S'CADPPPP'
tp300
F1
s(S'VP'
S'ADVADVVDP'
tp301
F4
s(S'VP'
S'AVVNP'
tp302
F1
s(g125
S'PPPDP'
tp303
F7
s(S'AP'
S'AAPPP'
tp304
F1
s(S'NP'
p305
S'NNNCCCP'
tp306
F1
s(S'DP'
S'DAAANP'
tp307
F1
s(S'DP'
S'DADVANP'
tp308
F2
s(g254
S'ADVPADVNNP'
tp309
F1
s(S'VP'
p310
S'VAAPP'
tp311
F1
s(S'NP'
S'NNPPPPP'
tp312
F1
s(S'DP'
S'ADVDNP'
tp313
F10
s(g13
S'VVPP'
tp314
F23
s(S'VP'
S'VADVAPP'
tp315
F1
s(S'DP'
S'DDDADVNP'
tp316
F1
s(S'CP'
S'AACDDP'
tp317
F1
s(g178
S'MVPP'
tp318
F25
s(S'DP'
p319
S'ADVP'
tp320
F5
s(g92
S'MVADP'
tp321
F1
s(S'CP'
p322
S'CDDPPP'
tp323
F7
s(S'MP'
S'ADVMVVP'
tp324
F1
s(g116
S'NNPP'
tp325
F28
s(g264
S'MMMPP'
tp326
F1
s(S'DP'
S'DDDDNP'
tp327
F1
s(S'MP'
S'MVVDP'
tp328
F2
s(S'CP'
S'CDDDDPPP'
tp329
F1
s(g195
S'PPVVP'
tp330
F6
s(S'DP'
S'DNNNP'
tp331
F2
s(S'MP'
p332
S'MPPDP'
tp333
F1
s(S'PP'
S'PADVADVVP'
tp334
F2
s(S'NP'
S'ADVANVVP'
tp335
F1
s(S'PP'
p336
S'PMMP'
tp337
F3
s(S'PP'
S'PVVVP'
tp338
F4
s(S'PP'
p339
S'PMP'
tp340
F30
s(S'NP'
S'NNMMP'
tp341
F1
s(S'CP'
S'CCDP'
tp342
F66
s(g26
S'ADVNNDP'
tp343
F1
s(g197
S'AMVP'
tp344
F2
s(S'NP'
S'NVVVP'
tp345
F7
s(g32
S'CDDDPP'
tp346
F3
s(S'CP'
p347
S'CDAAPP'
tp348
F7
s(S'VP'
p349
S'VVVDP'
tp350
F9
s(g192
S'PDDDDP'
tp351
F1
s(g20
S'PNNNP'
tp352
F2
s(S'CP'
S'CCCCDP'
tp353
F1
s(S'NP'
S'ANMMP'
tp354
F1
s(S'AP'
S'AACCP'
tp355
F1
s(g13
S'VVMP'
tp356
F5
s(g28
S'ADVPCCP'
tp357
F1
s(g20
S'PPP'
tp358
F116
s(S'NP'
p359
S'NAVP'
tp360
F12
s(S'PP'
S'PADVAP'
tp361
F3
s(S'DP'
S'DDNNNP'
tp362
F2
s(g64
S'ADVDVP'
tp363
F5
s(S'NP'
p364
S'NCCCP'
tp365
F3
s(S'DP'
p366
S'DADVADVPPP'
tp367
F5
s(S'AP'
S'AADVVP'
tp368
F2
s(S'PP'
S'PPPPDP'
tp369
F1
s(S'DP'
S'DAAAP'
tp370
F2
s(g261
S'VPP'
tp371
F118
s(S'CP'
p372
S'ADVCCDP'
tp373
F2
s(S'AP'
S'ADVADVADVACP'
tp374
F1
s(S'MP'
S'ADVADVMVP'
tp375
F1
s(g366
S'ADVDDNP'
tp376
F1
s(g161
S'NNNCP'
tp377
F5
s(g257
S'PADVDP'
tp378
F8
s(g204
S'CDADVAPP'
tp379
F2
s(S'CP'
S'CDDDPPP'
tp380
F1
s(S'DP'
p381
S'DANNP'
tp382
F2
s(S'PP'
p383
S'PADVAAP'
tp384
F2
s(g277
S'CDDPP'
tp385
F45
s(g107
S'DAAPP'
tp386
F8
s(g20
S'PVVP'
tp387
F38
s(S'CP'
S'CADPPP'
tp388
F3
s(S'AP'
p389
S'AACP'
tp390
F5
s(g36
S'ADVVCP'
tp391
F5
s(S'MP'
S'MCCDP'
tp392
F1
s(S'VP'
p393
S'VPPP'
tp394
F25
s(g100
S'APCCP'
tp395
F1
s(g13
S'VVPPP'
tp396
F2
s(S'NP'
p397
S'ADVNAMP'
tp398
F1
s(g217
S'PPAP'
tp399
F7
s(S'DP'
S'DVVP'
tp400
F30
s(g192
S'PADVAVP'
tp401
F1
s(g116
S'ANMP'
tp402
F3
s(S'AP'
S'APPP'
tp403
F4
s(g336
S'ADVPPP'
tp404
F2
s(g102
S'VVVP'
tp405
F8
s(S'CP'
S'CADVDPP'
tp406
F17
s(S'NP'
p407
S'ADVADVNNVP'
tp408
F2
s(S'CP'
S'CADVDDPP'
tp409
F2
s(g407
S'ANCP'
tp410
F17
s(S'DP'
S'DCP'
tp411
F13
s(g157
S'ANNCP'
tp412
F4
s(S'AP'
p413
S'AAADVPP'
tp414
F1
s(S'DP'
p415
S'DDDP'
tp416
F14
s(S'VP'
S'VVADVADVPPP'
tp417
F1
s(S'DP'
p418
S'DDADVPP'
tp419
F3
s(S'MP'
S'MVVVVNP'
tp420
F1
s(S'MP'
S'MAADP'
tp421
F1
s(S'NP'
S'ANVVP'
tp422
F1
s(g393
S'VVDP'
tp423
F48
s(g157
S'NPPP'
tp424
F33
s(S'PP'
S'PPAPP'
tp425
F1
s(S'DP'
p426
S'AADVVP'
tp427
F1
s(S'DP'
p428
S'DAVP'
tp429
F14
s(S'AP'
S'ACP'
tp430
F29
s(S'PP'
S'AAPAP'
tp431
F1
s(g18
S'ADVPNNNP'
tp432
F1
s(g184
S'PPNP'
tp433
F38
s(g113
S'MADVVPP'
tp434
F2
s(S'NP'
p435
S'NAADP'
tp436
F2
s(S'DP'
S'AAADNNP'
tp437
F1
s(g48
S'ADVDAPP'
tp438
F5
s(g366
S'AADVP'
tp439
F2
s(S'MP'
S'MADNP'
tp440
F1
s(S'PP'
S'ADVADVADVADVPVP'
tp441
F1
s(S'CP'
S'CDDADVPP'
tp442
F2
s(S'AP'
S'ADP'
tp443
F133
s(S'DP'
p444
S'DDPPPP'
tp445
F3
s(S'VP'
S'VVADVADVADVDDP'
tp446
F1
s(S'NP'
S'ANPPP'
tp447
F1
s(g435
S'NADVADVAMP'
tp448
F1
s(S'DP'
p449
S'DVVVVP'
tp450
F1
s(g202
S'DADVADP'
tp451
F1
s(S'VP'
p452
S'VVPPPP'
tp453
F1
s(S'DP'
S'DDVVVP'
tp454
F1
s(S'VP'
p455
S'AVDP'
tp456
F16
s(S'NP'
S'ANNVP'
tp457
F2
s(g102
S'VVAP'
tp458
F16
s(S'MP'
S'MPPDDP'
tp459
F1
s(S'CP'
S'ADVACDP'
tp460
F3
s(g54
S'AAVCP'
tp461
F1
s(g110
S'NPP'
tp462
F167
s(S'DP'
S'ADVADVADVDDPP'
tp463
F1
s(S'NP'
p464
S'NVP'
tp465
F185
s(g285
S'PPVVVP'
tp466
F3
s(S'PP'
S'PAAVP'
tp467
F1
s(S'NP'
p468
S'NAAPP'
tp469
F1
s(S'PP'
S'PPPPVP'
tp470
F1
s(g274
S'VDDP'
tp471
F46
s(S'NP'
S'ANCCCP'
tp472
F1
s(g153
S'DADVADVPP'
tp473
F4
s(S'NP'
S'NNNNDP'
tp474
F1
s(S'DP'
S'DADVAPP'
tp475
F7
s(S'DP'
p476
S'DDADVADVNNP'
tp477
F1
s(S'PP'
S'ADVAPAP'
tp478
F1
s(S'NP'
S'NADVADVVVP'
tp479
F1
s(S'NP'
p480
S'ANPP'
tp481
F14
s(g285
S'PPPPP'
tp482
F7
s(S'MP'
S'MPDP'
tp483
F13
s(S'PP'
S'ADVADVPDP'
tp484
F3
s(g50
S'MVVPP'
tp485
F1
s(g383
S'PPPNP'
tp486
F4
s(S'NP'
S'ADVADVNPP'
tp487
F1
s(S'AP'
S'ADVADVAVP'
tp488
F1
s(g138
S'VVADVNNP'
tp489
F1
s(S'NP'
S'NNCCCCP'
tp490
F1
s(S'CP'
S'CDDDADVPP'
tp491
F1
s(S'DP'
S'DADVADVVP'
tp492
F2
s(S'NP'
S'NAACP'
tp493
F5
s(S'PP'
p494
S'PNNP'
tp495
F47
s(S'NP'
S'AAANADVVVP'
tp496
F1
s(g383
S'APNNP'
tp497
F3
s(S'DP'
S'DAAANNP'
tp498
F1
s(S'MP'
S'MDDVP'
tp499
F1
s(S'MP'
S'MVADVADP'
tp500
F1
s(g190
S'AVAP'
tp501
F2
s(S'MP'
p502
S'MMVP'
tp503
F14
s(g336
S'PADVDDP'
tp504
F1
s(g332
S'MADVAVVNNP'
tp505
F1
s(g110
S'ADVNCP'
tp506
F7
s(S'AP'
S'AADP'
tp507
F36
s(S'MP'
S'MPDDP'
tp508
F1
s(g138
S'VAPPP'
tp509
F1
s(g32
S'ACDP'
tp510
F21
s(S'NP'
p511
S'NNDP'
tp512
F15
s(S'NP'
S'NNACP'
tp513
F2
s(S'VP'
p514
S'AVADVADVNNP'
tp515
F1
s(S'MP'
S'MDNNP'
tp516
F2
s(S'CP'
S'CDADVPPP'
tp517
F1
s(g261
S'VAP'
tp518
F112
s(S'VP'
p519
S'VVVVNP'
tp520
F1
s(g102
S'VVADVAP'
tp521
F1
s(S'CP'
S'ADVCDDP'
tp522
F2
s(S'PP'
S'ADVPMP'
tp523
F3
s(g128
S'DAACP'
tp524
F1
s(S'MP'
p525
S'MNMP'
tp526
F1
s(S'NP'
S'NPPPP'
tp527
F2
s(S'DP'
p528
S'DDDPPP'
tp529
F1
s(S'VP'
S'ADVAVDP'
tp530
F1
s(g381
S'ADAP'
tp531
F1
s(S'DP'
S'DADVDP'
tp532
F2
s(S'AP'
S'AAACP'
tp533
F1
s(S'AP'
S'AVVP'
tp534
F8
s(S'PP'
S'PPPVP'
tp535
F1
s(S'AP'
p536
S'AADDP'
tp537
F4
s(S'DP'
S'ADVADVADPP'
tp538
F1
s(S'NP'
S'NADVADVCP'
tp539
F1
s(S'CP'
S'CCAAADP'
tp540
F1
s(S'PP'
S'ADVPNNP'
tp541
F3
s(S'MP'
S'AMPP'
tp542
F3
s(S'DP'
p543
S'DDDDPP'
tp544
F1
s(S'CP'
S'CDDADVADVPPP'
tp545
F1
s(g234
S'MPNP'
tp546
F6
s(S'MP'
S'MADP'
tp547
F3
s(S'PP'
S'PPPDDP'
tp548
F1
s(S'AP'
S'AMMP'
tp549
F1
s(S'DP'
S'DDADVNP'
tp550
F1
s(S'PP'
S'PANP'
tp551
F18
s(g128
S'AADNP'
tp552
F3
s(g202
S'ADVADPP'
tp553
F2
s(S'MP'
S'ADVAMVP'
tp554
F1
s(S'AP'
S'AAVP'
tp555
F6
s(S'NP'
S'NAAP'
tp556
F13
s(g116
S'NDDP'
tp557
F22
s(S'PP'
S'PADVMP'
tp558
F2
s(S'AP'
S'ACCP'
tp559
F5
s(g319
S'DDDADVPP'
tp560
F1
s(g274
S'AVPPP'
tp561
F1
s(g110
S'NDP'
tp562
F119
s(g58
S'AAANVP'
tp563
F1
s(g72
S'MVAAP'
tp564
F1
s(g11
S'DDVP'
tp565
F33
s(g26
S'AANVP'
tp566
F3
s(g30
S'AAVVPP'
tp567
F1
s(S'VP'
S'VNNNP'
tp568
F6
s(g452
S'VADVADVPP'
tp569
F2
s(g494
S'ADVPAP'
tp570
F1
s(g28
S'APADVDP'
tp571
F1
s(g20
S'PCP'
tp572
F17
s(S'NP'
S'NNPPP'
tp573
F1
s(S'PP'
S'PAADDP'
tp574
F1
s(g135
S'PAADP'
tp575
F1
s(S'NP'
p576
S'ADVNNVP'
tp577
F3
s(S'MP'
S'MDNP'
tp578
F9
s(g222
S'VPPPP'
tp579
F1
s(S'NP'
S'AANADVADVADVVVP'
tp580
F1
s(S'PP'
p581
S'PACP'
tp582
F1
s(S'MP'
S'MPAP'
tp583
F2
s(S'AP'
p584
S'ADVACP'
tp585
F2
s(S'VP'
S'VVVAP'
tp586
F2
s(g157
S'NNVP'
tp587
F74
s(S'PP'
S'APPCCP'
tp588
F1
s(S'MP'
p589
S'MVCP'
tp590
F10
s(S'CP'
S'CCDDP'
tp591
F9
s(g435
S'NNADVVP'
tp592
F2
s(S'MP'
S'MVMP'
tp593
F1
s(g252
S'AAADNP'
tp594
F1
s(S'VP'
S'VAMP'
tp595
F1
s(g364
S'NNVVP'
tp596
F12
s(S'NP'
S'NNNNVP'
tp597
F1
s(g15
S'VVCP'
tp598
F10
s(S'NP'
S'AANCP'
tp599
F1
s(g165
S'VADVNP'
tp600
F6
s(g250
S'ADVAVVP'
tp601
F2
s(S'VP'
S'VADVDDP'
tp602
F1
s(S'VP'
p603
S'AVVPP'
tp604
F1
s(g212
S'APPP'
tp605
F11
s(S'DP'
S'DDDDPPP'
tp606
F1
s(S'MP'
S'MNNPP'
tp607
F1
s(S'VP'
S'ADVVPP'
tp608
F8
s(S'CP'
S'CADVADVADVDDPP'
tp609
F1
s(S'CP'
S'CDAPPP'
tp610
F1
s(g54
S'VNNP'
tp611
F33
s(g536
S'AADVDP'
tp612
F2
s(g364
S'NADP'
tp613
F5
s(g22
S'DDNP'
tp614
F61
s(g359
S'NADVCP'
tp615
F10
s(S'DP'
p616
S'DDNNP'
tp617
F7
s(S'PP'
p618
S'AAPPP'
tp619
F2
s(S'VP'
p620
S'ADVAVPP'
tp621
F1
s(S'PP'
S'PADVADVVVP'
tp622
F1
s(g242
S'PADVADVPPP'
tp623
F1
s(g66
S'MNVVVP'
tp624
F1
s(g116
S'AANAAP'
tp625
F1
s(S'AP'
p626
S'ADVADDP'
tp627
F1
s(S'DP'
S'AADPP'
tp628
F1
s(S'VP'
S'VVVAAP'
tp629
F1
s(g468
S'NNDDP'
tp630
F2
s(S'MP'
S'MADVVVCP'
tp631
F1
s(g28
S'ADVADVPPDP'
tp632
F1
s(g15
S'VVMMP'
tp633
F1
s(g626
S'ADVADDDP'
tp634
F1
s(g589
S'MVVNP'
tp635
F4
s(g48
S'ADVDNNP'
tp636
F2
s(S'CP'
S'ACDDP'
tp637
F3
s(S'AP'
S'AAPP'
tp638
F7
s(S'VP'
S'VVCCP'
tp639
F2
s(S'DP'
S'DMMP'
tp640
F2
s(S'PP'
p641
S'APPNP'
tp642
F1
s(S'DP'
S'DADVADVNP'
tp643
F1
s(g603
S'VADVADP'
tp644
F1
s(g480
S'NAPP'
tp645
F11
s(g215
S'APPVP'
tp646
F1
s(S'AP'
S'ADVADVADP'
tp647
F2
s(S'DP'
S'DDADVADVADVADVPP'
tp648
F1
s(g116
S'NADVDP'
tp649
F7
s(S'DP'
S'DADVADVADVVP'
tp650
F1
s(S'NP'
p651
S'ANCCP'
tp652
F2
s(S'NP'
S'AANPP'
tp653
F3
s(g393
S'VDDDP'
tp654
F5
s(S'NP'
S'NNMP'
tp655
F12
s(g141
S'ADVPANNP'
tp656
F1
s(S'DP'
p657
S'DDDVP'
tp658
F2
s(S'MP'
S'MNVP'
tp659
F6
s(S'CP'
S'CADDPP'
tp660
F1
s(S'MP'
S'MPANP'
tp661
F1
s(S'PP'
p662
S'ADVADVPNP'
tp663
F4
s(S'CP'
S'CDDAPP'
tp664
F2
s(S'NP'
S'ANAP'
tp665
F1
s(g476
S'ADVADVADVDDNP'
tp666
F1
s(g525
S'MVAP'
tp667
F12
s(g20
S'PVP'
tp668
F178
s(g528
S'DADVAVP'
tp669
F1
s(S'MP'
p670
S'MNAPP'
tp671
F1
s(S'AP'
S'ADVADVAPP'
tp672
F4
s(S'VP'
S'VVAAAAP'
tp673
F1
s(S'MP'
S'MCADVDP'
tp674
F1
s(g397
S'ADVNAVP'
tp675
F1
s(g74
S'DVVVP'
tp676
F1
s(S'DP'
S'ADVADVADVDNP'
tp677
F1
s(S'NP'
S'ADVNACP'
tp678
F2
s(g339
S'PPDDP'
tp679
F14
s(g455
S'AVCP'
tp680
F5
s(S'NP'
S'NADVADVAP'
tp681
F3
s(g415
S'DPP'
tp682
F216
s(g511
S'ADVNVP'
tp683
F12
s(S'DP'
S'AAADPP'
tp684
F1
s(g415
S'DDPP'
tp685
F67
s(S'DP'
S'DDADVPPP'
tp686
F1
s(S'DP'
S'DDAVP'
tp687
F1
s(g428
S'DANP'
tp688
F29
s(S'AP'
S'ADVAMP'
tp689
F3
s(g157
S'NADVPP'
tp690
F7
s(S'NP'
S'NNADVADVPP'
tp691
F1
s(S'NP'
p692
S'NAAVP'
tp693
F3
s(S'NP'
S'AAANADVVP'
tp694
F1
s(S'CP'
S'ADVCADVDDP'
tp695
F1
s(g171
S'PDDDP'
tp696
F5
s(g138
S'VADVCP'
tp697
F4
s(S'NP'
S'NNNNCP'
tp698
F1
s(g26
S'NADVCCP'
tp699
F1
s(S'DP'
S'ADVDAAP'
tp700
F1
s(S'NP'
S'NNNVVP'
tp701
F1
s(g96
S'PADVPPP'
tp702
F3
s(g34
S'MAVNP'
tp703
F1
s(g418
S'DCCP'
tp704
F2
s(S'PP'
S'PPPPNP'
tp705
F1
s(g662
S'ADVPAAAP'
tp706
F1
s(g285
S'AAPDP'
tp707
F5
s(g525
S'MADVVDP'
tp708
F2
s(g296
S'DDADVNNP'
tp709
F1
s(S'DP'
S'DDADVVP'
tp710
F1
s(S'PP'
S'PDDP'
tp711
F37
s(g502
S'MVDDP'
tp712
F3
s(S'PP'
S'PCCP'
tp713
F2
s(g246
S'ADVAPNP'
tp714
F4
s(g444
S'ADPPP'
tp715
F5
s(S'PP'
S'PPPMP'
tp716
F2
s(g305
S'NNP'
tp717
F1
s(g15
S'VVDDP'
tp718
F5
s(g40
S'DAANP'
tp719
F8
s(g389
S'ADDP'
tp720
F21
s(S'DP'
S'DDCCCP'
tp721
F1
s(S'PP'
S'PNNNNP'
tp722
F1
s(S'VP'
S'ADVVVAP'
tp723
F1
s(g641
S'ADVPPNP'
tp724
F3
s(S'MP'
S'MMCCP'
tp725
F1
s(S'NP'
S'ADVNCCCP'
tp726
F1
s(g670
S'MDAP'
tp727
F2
s(S'CP'
S'CADVADVDPP'
tp728
F2
s(g372
S'ADVADVADVCDP'
tp729
F1
s(g428
S'DPPP'
tp730
F66
s(g657
S'ADVADVDAAP'
tp731
F1
s(S'CP'
S'ADVADVADVCCDP'
tp732
F1
s(S'NP'
p733
S'NNAVP'
tp734
F3
s(S'NP'
S'ANNAAP'
tp735
F1
s(g280
S'DDADVADVNP'
tp736
F1
s(g184
S'ADVPNP'
tp737
F10
s(g339
S'PPDP'
tp738
F37
s(S'DP'
S'DADVVVP'
tp739
F1
s(S'MP'
S'MAVDP'
tp740
F1
s(S'NP'
S'ADVADVNVVP'
tp741
F1
s(S'VP'
p742
S'VAADP'
tp743
F2
s(g107
S'DDCP'
tp744
F3
s(S'VP'
S'VMMMP'
tp745
F1
s(g464
S'NAP'
tp746
F60
s(g364
S'NNAAP'
tp747
F1
s(g336
S'ADVADVPPPP'
tp748
F2
s(g261
S'VVP'
tp749
F24
s(S'DP'
p750
S'DDAPP'
tp751
F3
s(S'PP'
S'ADVADVPVP'
tp752
F3
s(S'AP'
S'AAADP'
tp753
F5
s(g618
S'APNP'
tp754
F12
s(S'AP'
S'AADVADVPP'
tp755
F1
s(g40
S'DDVVP'
tp756
F9
s(g584
S'AAADDP'
tp757
F1
s(S'VP'
S'VVVNP'
tp758
F4
s(g56
S'MNPP'
tp759
F4
s(S'MP'
S'ADVADVAMVP'
tp760
F1
s(S'PP'
S'PADVAPP'
tp761
F1
s(g110
S'NAMP'
tp762
F6
s(S'MP'
S'MVNNP'
tp763
F4
s(g157
S'NADVAMP'
tp764
F2
s(S'CP'
S'CDPP'
tp765
F192
s(S'AP'
S'ADDDP'
tp766
F1
s(S'CP'
S'ADVCADP'
tp767
F1
s(g543
S'ADVDVVP'
tp768
F1
s(g15
S'ADVADVADVVVNNP'
tp769
F1
s(g620
S'VVADVADVPP'
tp770
F1
s(S'NP'
S'NAANP'
tp771
F1
s(S'CP'
S'ADVCDP'
tp772
F14
s(S'PP'
S'AAPVVP'
tp773
F1
s(g138
S'ADVADVVNP'
tp774
F4
s(S'MP'
S'MAAADDP'
tp775
F1
s(g26
S'NADVADVADVCP'
tp776
F1
s(g332
S'MNPPP'
tp777
F1
s(g135
S'APMMP'
tp778
F1
s(g210
S'VADVADVDP'
tp779
F1
s(g96
S'PPNNP'
tp780
F10
s(g397
S'AAANNVP'
tp781
F1
s(S'MP'
S'MPPNP'
tp782
F1
s(S'DP'
S'ADVADVDPP'
tp783
F4
s(g261
S'VDP'
tp784
F192
s(S'MP'
S'MVADVNNP'
tp785
F1
s(S'NP'
p786
S'NADVAP'
tp787
F4
s(g178
S'ADVAMPP'
tp788
F1
s(g298
S'AVDDP'
tp789
F4
s(g146
S'DADVNP'
tp790
F18
s(g415
S'DAP'
tp791
F30
s(S'MP'
S'MCADP'
tp792
F1
s(g347
S'CADPP'
tp793
F20
s(S'VP'
S'ADVADVVVPP'
tp794
F2
s(S'PP'
S'PPDDDP'
tp795
F1
s(S'VP'
S'AVPP'
tp796
F9
s(S'NP'
S'NADVADVMP'
tp797
F1
s(S'MP'
S'AMNP'
tp798
F2
s(g269
S'VVADVDP'
tp799
F1
s(S'CP'
S'CDADVADVPP'
tp800
F2
s(S'PP'
S'PAVVP'
tp801
F2
s(S'CP'
S'CDPPPP'
tp802
F6
s(S'NP'
S'ADVNMP'
tp803
F3
s(S'VP'
S'AAVDP'
tp804
F1
s(S'DP'
S'AADNNP'
tp805
F1
s(g7
S'PANNP'
tp806
F1
s(S'AP'
S'AAAPP'
tp807
F5
s(S'DP'
S'ADPPPP'
tp808
F1
s(g426
S'DAPPP'
tp809
F2
s(S'AP'
S'AAADVDP'
tp810
F1
s(g449
S'DMP'
tp811
F8
s(g616
S'ADVDPP'
tp812
F25
s(S'NP'
S'NADVAPP'
tp813
F1
s(g60
S'PPAANP'
tp814
F1
s(g7
S'PADVADVNP'
tp815
F1
s(S'NP'
S'NNNP'
tp816
F1
s(g107
S'ADPP'
tp817
F35
s(S'PP'
S'PPPVVP'
tp818
F1
s(S'NP'
S'NNADVVVP'
tp819
F1
s(g733
S'NADVADVADVCCP'
tp820
F1
s(g13
S'VADVPP'
tp821
F6
s(S'NP'
S'NADVADVADP'
tp822
F1
s(S'CP'
S'CCADVDDP'
tp823
F1
s(g18
S'ADVPVP'
tp824
F8
s(g364
S'NADVADVADVVVP'
tp825
F2
s(g132
S'ADVPDP'
tp826
F7
s(S'VP'
S'ADVVADP'
tp827
F1
s(g576
S'ANNPP'
tp828
F4
s(S'PP'
S'PPDDDDP'
tp829
F2
s(g110
S'NCP'
tp830
F178
s(S'CP'
S'CADVDPPP'
tp831
F1
s(g519
S'ADVVVPP'
tp832
F2
s(g651
S'ADVANDP'
tp833
F2
s(g581
S'ADVAPVP'
tp834
F3
s(g173
S'CCCADVDDP'
tp835
F1
s(S'AP'
S'AAMP'
tp836
F3
s(S'MP'
S'MADVDNP'
tp837
F1
s(g692
S'AANDP'
tp838
F1
s(S'MP'
S'MVCCP'
tp839
F1
s(g359
S'NNCCP'
tp840
F5
s(g181
S'VADVADVADVPPP'
tp841
F1
s(S'MP'
S'MNADVADVADVVVP'
tp842
F1
s(S'NP'
S'AANCCP'
tp843
F1
s(S'VP'
S'VAPP'
tp844
F4
s(S'NP'
S'NPPPPP'
tp845
F1
s(S'MP'
S'MPPNNP'
tp846
F1
s(g87
S'ADVVDP'
tp847
F13
s(S'PP'
S'APADVNP'
tp848
F1
s(S'DP'
S'DADVPP'
tp849
F22
s(g413
S'AMP'
tp850
F26
s(S'CP'
S'CCADP'
tp851
F2
s(g750
S'ADVDAP'
tp852
F1
s(S'NP'
S'NNNPPP'
tp853
F1
s(S'AP'
S'ADVAPP'
tp854
F3
s(S'CP'
S'AACDP'
tp855
F5
s(S'CP'
S'CCDDDP'
tp856
F1
s(S'DP'
S'ADVDPPP'
tp857
F1
s(g415
S'DVP'
tp858
F175
s(S'NP'
S'ADVNPP'
tp859
F5
s(S'VP'
S'ADVADVADVVVNP'
tp860
F1
s(g692
S'NNCCCP'
tp861
F2
s(g413
S'AVP'
tp862
F41
s(g786
S'NADVVP'
tp863
F6
s(S'NP'
S'NNADVADVVP'
tp864
F1
s(g11
S'DDPPP'
tp865
F18
s(S'MP'
S'MADVADVADVVDP'
tp866
F1
s(g310
S'VVVAPP'
tp867
F1
s(S'MP'
S'MDAANP'
tp868
F2
s(g692
S'NNAP'
tp869
F4
s(S'PP'
S'PPANP'
tp870
F1
s(S'VP'
S'VVADVADVDP'
tp871
F1
s(g322
S'CDADVPP'
tp872
F13
s(g393
S'VNP'
tp873
F153
s(g215
S'ADVPMMP'
tp874
F1
s(g514
S'VANP'
tp875
F12
s(g349
S'VADVAP'
tp876
F9
s(S'PP'
S'PPADVNP'
tp877
F2
s(S'DP'
S'DDDDVP'
tp878
F2
s(g742
S'ADVADVVVDP'
tp879
F1
s.