ccollections
defaultdict
p1
(c__builtin__
float
p2
tRp3
(S'MP'
S'MMDP'
tp4
F1
s(S'AP'
p5
S'AADVPPP'
tp6
F1
s(S'NP'
p7
S'AANDDP'
tp8
F1
s(S'DP'
S'DDMP'
tp9
F1
s(S'DP'
S'ADDPP'
tp10
F2
s(S'DP'
S'DDAP'
tp11
F3
s(S'VP'
S'ADVVVNP'
tp12
F1
s(S'VP'
p13
S'AVADVADVDP'
tp14
F1
s(S'PP'
S'ADVADVPAP'
tp15
F1
s(S'PP'
p16
S'PAPP'
tp17
F15
s(S'PP'
p18
S'PADVNP'
tp19
F12
s(S'DP'
S'DNP'
tp20
F242
s(g7
S'ADVNDP'
tp21
F1
s(S'CP'
S'CDPPP'
tp22
F56
s(S'VP'
S'ADVADVVCP'
tp23
F2
s(S'VP'
p24
S'VADP'
tp25
F28
s(S'DP'
p26
S'DAAP'
tp27
F7
s(S'VP'
p28
S'VAVP'
tp29
F5
s(S'PP'
p30
S'APPDP'
tp31
F1
s(S'DP'
p32
S'DAADP'
tp33
F1
s(S'DP'
S'ADNNP'
tp34
F6
s(S'VP'
p35
S'AVADVDP'
tp36
F1
s(g16
S'APVP'
tp37
F23
s(S'MP'
p38
S'MVDP'
tp39
F28
s(S'PP'
S'PADVANP'
tp40
F3
s(S'PP'
p41
S'PPPP'
tp42
F37
s(S'DP'
S'DDDNP'
tp43
F1
s(S'MP'
p44
S'MMADVVP'
tp45
F1
s(S'MP'
p46
S'AMCP'
tp47
F1
s(S'VP'
p48
S'VACP'
tp49
F6
s(S'DP'
S'DADVVP'
tp50
F8
s(S'PP'
S'PADVNNP'
tp51
F3
s(S'AP'
S'AADVPP'
tp52
F3
s(S'NP'
S'NADVACP'
tp53
F3
s(S'NP'
S'NAAVVP'
tp54
F1
s(S'VP'
S'AAVVP'
tp55
F1
s(S'NP'
S'NADVVVP'
tp56
F2
s(S'CP'
S'CADVDAPP'
tp57
F1
s(g28
S'VCP'
tp58
F73
s(S'NP'
p59
S'AANCCP'
tp60
F2
s(S'NP'
S'NMMP'
tp61
F9
s(S'PP'
S'PPVVP'
tp62
F1
s(S'VP'
p63
S'ADVVAAP'
tp64
F2
s(S'PP'
S'ADVPADP'
tp65
F1
s(S'PP'
p66
S'PAP'
tp67
F124
s(S'PP'
p68
S'PPANNP'
tp69
F1
s(S'VP'
S'VADVADVAP'
tp70
F1
s(S'PP'
p71
S'ADVPPVP'
tp72
F2
s(S'NP'
p73
S'ANPPP'
tp74
F3
s(S'PP'
S'PPADVDP'
tp75
F3
s(g35
S'VAAVP'
tp76
F1
s(S'PP'
p77
S'PNP'
tp78
F244
s(S'NP'
S'ADVADVADVNNCP'
tp79
F1
s(S'VP'
S'VVADVNNP'
tp80
F2
s(S'DP'
p81
S'DDP'
tp82
F52
s(S'MP'
S'MADVADVVAP'
tp83
F1
s(S'VP'
S'ADVVDDP'
tp84
F1
s(S'NP'
S'NNNPP'
tp85
F2
s(S'VP'
p86
S'VCCP'
tp87
F14
s(S'MP'
p88
S'MCDP'
tp89
F6
s(S'CP'
S'CADVADVDDPP'
tp90
F1
s(S'MP'
p91
S'MADVDNP'
tp92
F1
s(S'MP'
S'MVVADVNNP'
tp93
F1
s(S'DP'
p94
S'DADVDDP'
tp95
F1
s(S'MP'
S'AMPP'
tp96
F1
s(S'NP'
p97
S'NMP'
tp98
F83
s(S'VP'
S'AVADVPP'
tp99
F1
s(S'DP'
S'ADCP'
tp100
F1
s(g35
S'AAVNP'
tp101
F2
s(S'VP'
S'VMMP'
tp102
F3
s(g66
S'PDP'
tp103
F236
s(g30
S'PPADVVP'
tp104
F1
s(S'DP'
S'ADVDAPPP'
tp105
F1
s(S'VP'
S'AVAAP'
tp106
F1
s(S'PP'
p107
S'PPPADVVP'
tp108
F1
s(S'PP'
p109
S'ADVADVADVPPDP'
tp110
F1
s(S'AP'
S'ANP'
tp111
F1
s(S'PP'
p112
S'ADVPAAP'
tp113
F1
s(S'PP'
S'PADVPP'
tp114
F7
s(S'VP'
S'VVADVNP'
tp115
F2
s(S'PP'
p116
S'PPADVAP'
tp117
F2
s(S'MP'
S'MVACP'
tp118
F1
s(S'NP'
p119
S'ADVNACP'
tp120
F2
s(S'DP'
S'DPPPP'
tp121
F5
s(S'DP'
S'DDANP'
tp122
F3
s(S'PP'
S'PADVADP'
tp123
F3
s(S'NP'
p124
S'NACP'
tp125
F26
s(S'AP'
S'ADVAVP'
tp126
F2
s(S'NP'
p127
S'NCCP'
tp128
F59
s(S'DP'
S'DADVADVVVP'
tp129
F1
s(S'MP'
S'MADVPDP'
tp130
F1
s(S'VP'
S'ADVADVVAAAP'
tp131
F1
s(S'NP'
p132
S'NNCP'
tp133
F53
s(g94
S'ADVDDPP'
tp134
F3
s(S'NP'
S'NADVADVVP'
tp135
F1
s(S'NP'
S'NNADVADVADVAVVP'
tp136
F1
s(S'DP'
p137
S'DDDDP'
tp138
F4
s(S'PP'
p139
S'PPAP'
tp140
F18
s(S'MP'
S'MAAADP'
tp141
F1
s(S'MP'
S'MMADVADVVP'
tp142
F1
s(S'VP'
p143
S'AVNP'
tp144
F18
s(S'VP'
S'VVADP'
tp145
F3
s(g119
S'ADVNDDP'
tp146
F1
s(S'PP'
p147
S'ADVPVVP'
tp148
F1
s(S'VP'
S'VVMP'
tp149
F2
s(g63
S'VADVVP'
tp150
F3
s(S'MP'
S'MVAPP'
tp151
F1
s(S'PP'
S'ADVADVPPANP'
tp152
F1
s(S'NP'
p153
S'ANADVVP'
tp154
F2
s(S'PP'
S'ADVAPVP'
tp155
F2
s(S'CP'
p156
S'CCCDP'
tp157
F2
s(S'VP'
p158
S'AVNNP'
tp159
F4
s(S'MP'
S'MADVPNP'
tp160
F2
s(g18
S'APDP'
tp161
F45
s(S'CP'
p162
S'ACDDP'
tp163
F3
s(S'AP'
S'AADVCP'
tp164
F4
s(S'NP'
S'AANNADVCP'
tp165
F1
s(S'AP'
S'AADVACP'
tp166
F1
s(S'VP'
S'VVVVPP'
tp167
F1
s(S'VP'
S'VVANP'
tp168
F4
s(S'MP'
S'ADVMPP'
tp169
F1
s(S'MP'
S'MVADVNP'
tp170
F1
s(S'PP'
S'ADVADVADVPDP'
tp171
F1
s(S'DP'
S'DDDADVNNP'
tp172
F1
s(S'NP'
S'ADVNCCP'
tp173
F1
s(S'PP'
p174
S'PAAP'
tp175
F21
s(S'NP'
S'ADVANCP'
tp176
F3
s(S'DP'
S'DNNP'
tp177
F61
s(S'CP'
S'CADVDDPP'
tp178
F1
s(S'DP'
S'ADVADVDDNP'
tp179
F1
s(S'CP'
S'CCADVDP'
tp180
F7
s(g73
S'NNNVP'
tp181
F2
s(S'VP'
S'VADVNNP'
tp182
F2
s(g139
S'PADVVP'
tp183
F8
s(S'DP'
p184
S'DADVADVADVPPP'
tp185
F1
s(S'PP'
p186
S'APAP'
tp187
F7
s(g5
S'APP'
tp188
F68
s(S'NP'
S'NADVMP'
tp189
F2
s(S'PP'
p190
S'PPADP'
tp191
F4
s(S'CP'
S'CADVADPP'
tp192
F5
s(S'NP'
p193
S'ADVADVNDP'
tp194
F1
s(S'NP'
S'ADVANPP'
tp195
F6
s(S'NP'
p196
S'NAAACP'
tp197
F1
s(S'DP'
p198
S'DAAVP'
tp199
F4
s(S'CP'
S'CDDDDPP'
tp200
F1
s(g91
S'MPVP'
tp201
F1
s(g174
S'PAANP'
tp202
F6
s(g94
S'DDADVADVVP'
tp203
F1
s(S'DP'
S'ADVDVP'
tp204
F9
s(g127
S'ANVP'
tp205
F22
s(S'MP'
p206
S'MVAADDP'
tp207
F1
s(S'MP'
S'MVNP'
tp208
F29
s(S'NP'
S'NNNNP'
tp209
F1
s(S'AP'
S'AADVCCP'
tp210
F2
s(S'NP'
S'ANAAP'
tp211
F2
s(S'AP'
S'ADVAADP'
tp212
F2
s(S'DP'
S'ADVADNP'
tp213
F2
s(g41
S'PAVP'
tp214
F27
s(S'MP'
S'ADVMVP'
tp215
F2
s(S'DP'
S'DDAPPP'
tp216
F1
s(S'VP'
S'VVVPP'
tp217
F1
s(S'CP'
p218
S'CADVADVADPP'
tp219
F1
s(S'MP'
p220
S'MVVVAANP'
tp221
F1
s(g7
S'NMMMMP'
tp222
F1
s(S'MP'
S'MADVVPP'
tp223
F3
s(S'DP'
S'DADP'
tp224
F5
s(S'AP'
S'ADVADP'
tp225
F6
s(S'NP'
S'ADVNNVVP'
tp226
F1
s(g86
S'VVADVPP'
tp227
F1
s(S'DP'
S'ADVDDP'
tp228
F4
s(S'PP'
S'APDDP'
tp229
F9
s(S'PP'
S'PPPPDP'
tp230
F1
s(S'PP'
S'PADVADVADVNNP'
tp231
F1
s(S'MP'
S'MPADP'
tp232
F1
s(g196
S'ADVNAP'
tp233
F1
s(S'PP'
S'PPCP'
tp234
F1
s(S'VP'
p235
S'ADVVNP'
tp236
F9
s(S'VP'
p237
S'VAAACCP'
tp238
F1
s(S'VP'
p239
S'VVNP'
tp240
F24
s(g143
S'VVVCP'
tp241
F1
s(S'NP'
S'AANADVCP'
tp242
F1
s(S'PP'
p243
S'PPVP'
tp244
F32
s(S'NP'
S'ADVNAAPP'
tp245
F1
s(S'VP'
S'VADVDP'
tp246
F10
s(S'MP'
p247
S'MAPNP'
tp248
F2
s(S'VP'
p249
S'VAAP'
tp250
F24
s(S'NP'
S'NNADVAVP'
tp251
F1
s(S'NP'
p252
S'ANDP'
tp253
F18
s(S'NP'
p254
S'NVVP'
tp255
F28
s(S'PP'
S'AAPVP'
tp256
F1
s(g5
S'AAP'
tp257
F9
s(S'VP'
p258
S'VMP'
tp259
F25
s(S'VP'
S'VVNNP'
tp260
F2
s(S'CP'
p261
S'CDAPP'
tp262
F35
s(S'MP'
S'MMPP'
tp263
F3
s(S'DP'
S'ADVADVP'
tp264
F1
s(g24
S'VVAPP'
tp265
F2
s(S'DP'
p266
S'ADNP'
tp267
F36
s(g94
S'ADVDDPPP'
tp268
F1
s(g109
S'PADP'
tp269
F32
s(S'PP'
p270
S'PMMP'
tp271
F3
s(S'DP'
p272
S'ADVDDNP'
tp273
F1
s(S'NP'
S'ANDDP'
tp274
F3
s(S'DP'
S'ADVADVADVP'
tp275
F1
s(S'DP'
S'ADVADVDVP'
tp276
F1
s(S'MP'
p277
S'MDANP'
tp278
F2
s(S'DP'
S'ADVDAANP'
tp279
F1
s(g266
S'DAPP'
tp280
F64
s(S'CP'
S'CADVDAPPP'
tp281
F1
s(S'VP'
S'AVVP'
tp282
F4
s(g44
S'MVVCP'
tp283
F1
s(g24
S'VADVADVNP'
tp284
F1
s(S'VP'
S'ADVADVADVVDP'
tp285
F2
s(S'VP'
S'ADVADVVDP'
tp286
F4
s(g41
S'PPPDP'
tp287
F5
s(S'MP'
S'MVVAP'
tp288
F1
s(S'VP'
p289
S'VDDDDP'
tp290
F1
s(S'DP'
S'DAAANP'
tp291
F1
s(S'DP'
S'DADVANP'
tp292
F8
s(S'MP'
p293
S'MPANP'
tp294
F1
s(S'VP'
p295
S'VAAPP'
tp296
F1
s(S'DP'
S'ADVDNP'
tp297
F14
s(g235
S'VVPP'
tp298
F18
s(S'MP'
S'MMMDP'
tp299
F1
s(g137
S'ADADVPP'
tp300
F1
s(S'MP'
S'MVPP'
tp301
F21
s(S'DP'
p302
S'ADVP'
tp303
F24
s(S'DP'
S'ADAP'
tp304
F1
s(S'CP'
p305
S'CDDPPP'
tp306
F6
s(S'MP'
S'ADVMVVP'
tp307
F1
s(S'VP'
p308
S'VAADVPP'
tp309
F1
s(S'PP'
S'ADVADVPADVDP'
tp310
F1
s(S'NP'
S'NNPP'
tp311
F37
s(S'DP'
S'DDDDNP'
tp312
F1
s(S'MP'
S'MVVDP'
tp313
F2
s(S'AP'
p314
S'AACP'
tp315
F13
s(S'MP'
S'MADVADVADVVDP'
tp316
F1
s(S'DP'
S'DNNNP'
tp317
F3
s(S'MP'
S'MVADVCP'
tp318
F1
s(g247
S'MPPDP'
tp319
F1
s(S'DP'
S'ADVDDVP'
tp320
F3
s(S'VP'
S'VADVADVPPP'
tp321
F2
s(S'PP'
S'PADVADVVP'
tp322
F1
s(S'NP'
S'ADVANVVP'
tp323
F1
s(S'DP'
p324
S'ADVDADVNNP'
tp325
F1
s(S'PP'
S'PVVVP'
tp326
F4
s(g68
S'PMP'
tp327
F29
s(S'CP'
p328
S'CCDP'
tp329
F81
s(S'NP'
p330
S'ADVNNDP'
tp331
F1
s(S'DP'
S'ADVADVADVDPP'
tp332
F1
s(S'MP'
S'AMVP'
tp333
F5
s(g258
S'VPPP'
tp334
F12
s(S'DP'
p335
S'AADDPP'
tp336
F2
s(S'NP'
p337
S'NVVVP'
tp338
F4
s(S'CP'
S'CDDDPP'
tp339
F2
s(S'CP'
S'CDADVADVPP'
tp340
F3
s(S'VP'
S'VVVDP'
tp341
F3
s(S'PP'
S'PDDDDP'
tp342
F1
s(S'PP'
S'PNNNP'
tp343
F3
s(g71
S'APADVNNP'
tp344
F1
s(S'AP'
S'AACCP'
tp345
F1
s(g243
S'AAPNP'
tp346
F7
s(S'CP'
S'CADADVPP'
tp347
F1
s(S'PP'
p348
S'PADVVVP'
tp349
F1
s(g77
S'PPP'
tp350
F135
s(g337
S'NNVVP'
tp351
F7
s(g97
S'NAVP'
tp352
F16
s(S'PP'
S'PADVAP'
tp353
F3
s(S'VP'
p354
S'VVDDDP'
tp355
F1
s(g158
S'VVVANP'
tp356
F3
s(g112
S'PPADVADVNP'
tp357
F1
s(S'NP'
S'NAAAP'
tp358
F2
s(g119
S'NCCCP'
tp359
F2
s(S'AP'
p360
S'AADVVP'
tp361
F1
s(S'NP'
S'NNDDP'
tp362
F2
s(S'DP'
p363
S'DAAAP'
tp364
F1
s(g184
S'ADVADVDNP'
tp365
F3
s(S'VP'
S'VAAAAP'
tp366
F1
s(g239
S'VPP'
tp367
F126
s(g162
S'ADVCCDP'
tp368
F4
s(S'CP'
S'ACCDP'
tp369
F3
s(S'AP'
p370
S'AAAACP'
tp371
F1
s(S'NP'
S'NNNCP'
tp372
F2
s(S'PP'
S'PADVDP'
tp373
F13
s(S'CP'
S'CDADVAPP'
tp374
F4
s(S'CP'
S'CDDDPPP'
tp375
F1
s(S'MP'
p376
S'MADVVAP'
tp377
F2
s(S'PP'
S'PADVAAP'
tp378
F1
s(S'CP'
S'CDDPP'
tp379
F55
s(S'DP'
p380
S'DAAPP'
tp381
F9
s(g18
S'PVVP'
tp382
F40
s(S'CP'
S'CADPPP'
tp383
F1
s(g324
S'DADVPPP'
tp384
F4
s(S'DP'
S'ADVADDP'
tp385
F1
s(S'VP'
p386
S'ADVVCP'
tp387
F2
s(g186
S'ADVPPAP'
tp388
F1
s(S'PP'
S'PPNNNP'
tp389
F1
s(S'VP'
p390
S'AVCCP'
tp391
F1
s(S'DP'
p392
S'ADADVVVP'
tp393
F1
s(S'VP'
S'VVPPP'
tp394
F2
s(S'VP'
S'ADVVVCCP'
tp395
F1
s(S'MP'
p396
S'MVPPP'
tp397
F1
s(g81
S'DVVP'
tp398
F28
s(S'MP'
S'MPAAAP'
tp399
F1
s(S'PP'
S'PADVADVADVAAP'
tp400
F1
s(S'PP'
S'AADVPADVADVDDDP'
tp401
F1
s(S'CP'
S'ADVACDDP'
tp402
F1
s(S'NP'
S'ANMP'
tp403
F10
s(S'AP'
S'APPP'
tp404
F5
s(S'PP'
p405
S'ADVPPP'
tp406
F2
s(g7
S'ADVADVNVP'
tp407
F1
s(g28
S'VVVP'
tp408
F16
s(g156
S'CADVDPP'
tp409
F15
s(S'PP'
p410
S'PADVADVMP'
tp411
F1
s(S'VP'
S'ADVVAAAAP'
tp412
F1
s(g112
S'ADVPAPP'
tp413
F1
s(g239
S'AVMP'
tp414
F3
s(S'NP'
S'NNAAAVVP'
tp415
F1
s(g97
S'ANCP'
tp416
F50
s(g184
S'DCP'
tp417
F12
s(S'DP'
S'DVVVP'
tp418
F1
s(S'DP'
S'ADVADVDDDNNP'
tp419
F1
s(S'VP'
S'ADVVVVP'
tp420
F1
s(S'DP'
p421
S'DDDP'
tp422
F13
s(S'DP'
S'ADVDPPPPP'
tp423
F1
s(g363
S'DDADVPP'
tp424
F3
s(S'NP'
S'ANVVP'
tp425
F2
s(g28
S'VVDP'
tp426
F37
s(g127
S'NPPP'
tp427
F37
s(S'NP'
S'NADVADVCP'
tp428
F1
s(g421
S'ADDDP'
tp429
F1
s(S'VP'
S'ADVVNNNP'
tp430
F1
s(S'VP'
S'VVADVDP'
tp431
F2
s(S'DP'
p432
S'DAVP'
tp433
F29
s(S'VP'
p434
S'AVVVP'
tp435
F3
s(S'NP'
S'NNNMP'
tp436
F1
s(S'AP'
S'ACP'
tp437
F59
s(S'PP'
p438
S'AAPAP'
tp439
F4
s(g18
S'PPNP'
tp440
F46
s(S'MP'
S'MADNNP'
tp441
F1
s(S'NP'
S'NAADP'
tp442
F1
s(S'DP'
p443
S'ADVDAPP'
tp444
F4
s(S'CP'
S'AAACCDP'
tp445
F1
s(S'DP'
S'AADVP'
tp446
F2
s(S'MP'
S'MADNP'
tp447
F2
s(S'PP'
S'APADVVVP'
tp448
F1
s(S'CP'
S'CDDADVPP'
tp449
F1
s(S'AP'
S'AAAADVCP'
tp450
F1
s(S'AP'
p451
S'ADP'
tp452
F166
s(g147
S'APMP'
tp453
F2
s(S'DP'
S'DDPPPP'
tp454
F1
s(g48
S'VADVADVADVNP'
tp455
F1
s(S'MP'
p456
S'MADVVADVANP'
tp457
F1
s(S'DP'
S'DADVADP'
tp458
F2
s(g239
S'VVPPPP'
tp459
F1
s(S'MP'
S'MVVAANNP'
tp460
F1
s(S'MP'
S'MMNNP'
tp461
F1
s(g360
S'AAADP'
tp462
F8
s(S'VP'
p463
S'VVAP'
tp464
F26
s(S'NP'
p465
S'NNAPP'
tp466
F2
s(S'VP'
S'VADVADVADVPP'
tp467
F1
s(S'CP'
S'ADVACDP'
tp468
F5
s(S'PP'
S'APPVVP'
tp469
F1
s(g463
S'AAVCP'
tp470
F1
s(g254
S'NPP'
tp471
F229
s(S'VP'
S'ADVADVVAP'
tp472
F2
s(g254
S'NVP'
tp473
F167
s(S'PP'
S'PAAVP'
tp474
F1
s(S'NP'
S'NAAPP'
tp475
F1
s(S'NP'
S'ADVANDDP'
tp476
F1
s(g13
S'VDDP'
tp477
F28
s(S'DP'
S'DAPPP'
tp478
F3
s(g198
S'DADVAPP'
tp479
F5
s(S'NP'
S'NNADVACP'
tp480
F2
s(g174
S'ADVAPAP'
tp481
F2
s(S'DP'
p482
S'AADDNP'
tp483
F1
s(g252
S'ANPP'
tp484
F60
s(g41
S'ADVPPDP'
tp485
F4
s(g107
S'PPPPP'
tp486
F4
s(g38
S'MPDP'
tp487
F25
s(g77
S'ADVADVPDP'
tp488
F2
s(S'MP'
p489
S'MVVPP'
tp490
F2
s(S'PP'
S'PPPNP'
tp491
F3
s(g193
S'NPPPP'
tp492
F3
s(g421
S'ADDP'
tp493
F3
s(g97
S'NADVAAP'
tp494
F2
s(S'VP'
S'VVVMMP'
tp495
F1
s(S'CP'
S'CAADPP'
tp496
F2
s(S'DP'
S'DADVADVVP'
tp497
F2
s(S'NP'
S'NAACP'
tp498
F3
s(g16
S'PNNP'
tp499
F51
s(g305
S'CDADVADVADVPPP'
tp500
F1
s(S'PP'
p501
S'APNNP'
tp502
F4
s(S'VP'
S'AVAP'
tp503
F10
s(S'MP'
p504
S'MMVP'
tp505
F11
s(S'PP'
S'PADVDDP'
tp506
F2
s(S'PP'
S'ADVADVAPDP'
tp507
F1
s(S'NP'
S'ADVNCP'
tp508
F8
s(g451
S'AADP'
tp509
F44
s(S'VP'
S'VAPPP'
tp510
F1
s(S'CP'
S'ACDP'
tp511
F31
s(g153
S'NNDP'
tp512
F11
s(S'AP'
S'ADVANP'
tp513
F2
s(S'NP'
p514
S'NNACP'
tp515
F1
s(S'CP'
S'CDADVPPP'
tp516
F2
s(g249
S'VAP'
tp517
F132
s(S'DP'
S'DDDPP'
tp518
F5
s(S'CP'
S'ADVCDDP'
tp519
F3
s(S'PP'
S'ADVPMP'
tp520
F1
s(S'CP'
S'CDAAPP'
tp521
F4
s(g158
S'VADVMP'
tp522
F2
s(g139
S'PAAPP'
tp523
F1
s(S'DP'
S'DDDPPP'
tp524
F1
s(S'VP'
S'ADVAVDP'
tp525
F1
s(S'VP'
p526
S'ADVADVVAVP'
tp527
F1
s(g443
S'DADVDP'
tp528
F1
s(S'NP'
S'AANMP'
tp529
F1
s(S'AP'
S'AAACP'
tp530
F1
s(S'VP'
S'ADVVVDP'
tp531
F3
s(g405
S'PPPVP'
tp532
F2
s(S'AP'
S'AADDP'
tp533
F2
s(S'VP'
S'VAANP'
tp534
F5
s(S'DP'
S'ADADVCP'
tp535
F1
s(S'MP'
S'MADVANVP'
tp536
F1
s(S'PP'
S'ADVPADVANP'
tp537
F1
s(g277
S'MVVMP'
tp538
F1
s(g88
S'MPNP'
tp539
F12
s(g434
S'ADVVADVANP'
tp540
F1
s(S'MP'
S'MADP'
tp541
F4
s(S'MP'
p542
S'MVAADP'
tp543
F1
s(S'AP'
S'AMMP'
tp544
F3
s(S'MP'
S'MADVANCP'
tp545
F1
s(g243
S'PANP'
tp546
F49
s(S'PP'
S'PDDDP'
tp547
F2
s(S'VP'
S'VADVPPP'
tp548
F1
s(S'NP'
S'NADVDDP'
tp549
F1
s(S'CP'
S'CADVADVADVDPP'
tp550
F1
s(S'NP'
S'ADVANPPP'
tp551
F1
s(S'AP'
S'AAVP'
tp552
F7
s(S'AP'
S'AVVP'
tp553
F5
s(S'NP'
S'NDDP'
tp554
F12
s(S'MP'
S'MNPPP'
tp555
F1
s(g46
S'MVADVDP'
tp556
F2
s(S'AP'
S'ACCP'
tp557
F8
s(g324
S'ADAAP'
tp558
F1
s(S'AP'
S'APPPP'
tp559
F1
s(g97
S'NDP'
tp560
F89
s(S'VP'
S'ADVVANP'
tp561
F2
s(S'NP'
S'AAANVP'
tp562
F1
s(S'MP'
S'MVAAP'
tp563
F2
s(g324
S'DDVP'
tp564
F31
s(S'MP'
S'MMADVVVP'
tp565
F1
s(S'MP'
S'MVADP'
tp566
F1
s(S'NP'
p567
S'AANVP'
tp568
F2
s(S'PP'
S'PPADVANP'
tp569
F1
s(S'VP'
S'AAVVPP'
tp570
F1
s(S'VP'
S'ADVADVADVVVCP'
tp571
F1
s(S'VP'
S'VADVADVPP'
tp572
F1
s(S'PP'
p573
S'ADVPAP'
tp574
F7
s(S'PP'
S'PPPPVP'
tp575
F1
s(S'AP'
S'AADVADVADP'
tp576
F1
s(S'PP'
S'PCP'
tp577
F6
s(S'NP'
S'NNPPP'
tp578
F2
s(S'PP'
p579
S'PAADDP'
tp580
F1
s(g41
S'PAADP'
tp581
F2
s(S'NP'
S'ADVNNVP'
tp582
F4
s(S'NP'
S'NADVCCP'
tp583
F1
s(g386
S'VPPPP'
tp584
F3
s(S'NP'
S'ANNPP'
tp585
F2
s(S'MP'
S'MPAP'
tp586
F1
s(S'AP'
S'ADVACP'
tp587
F5
s(S'DP'
S'DDADVVP'
tp588
F2
s(S'PP'
S'ADVPADVDP'
tp589
F1
s(g421
S'ADPPP'
tp590
F8
s(S'NP'
S'NNAAVP'
tp591
F1
s(S'MP'
S'MVCP'
tp592
F5
s(g328
S'CCDDP'
tp593
F7
s(S'NP'
S'NNADVVP'
tp594
F1
s(S'VP'
S'ADVADVADVVPP'
tp595
F1
s(S'DP'
S'DDADP'
tp596
F1
s(S'VP'
S'VAADP'
tp597
F1
s(S'NP'
p598
S'NAAP'
tp599
F12
s(g376
S'MVMP'
tp600
F3
s(g567
S'ADVANAP'
tp601
F1
s(g348
S'PPAAP'
tp602
F2
s(S'VP'
S'VVCP'
tp603
F11
s(g598
S'AANCP'
tp604
F3
s(g249
S'VDP'
tp605
F210
s(S'MP'
S'MADVAPNP'
tp606
F1
s(S'AP'
S'ADVAVVP'
tp607
F1
s(g124
S'ADVADVNAVP'
tp608
F1
s(g116
S'APPP'
tp609
F18
s(S'AP'
S'ADVADVADVAACP'
tp610
F1
s(S'VP'
S'ADVVPP'
tp611
F5
s(S'CP'
S'CDAPPP'
tp612
F2
s(g289
S'VNNP'
tp613
F20
s(g501
S'APADVNP'
tp614
F1
s(g314
S'AAAMP'
tp615
F1
s(S'NP'
p616
S'NADP'
tp617
F12
s(g302
S'DDNP'
tp618
F43
s(S'CP'
S'ACADVDP'
tp619
F1
s(S'NP'
p620
S'NADVCP'
tp621
F15
s(g184
S'DDNNP'
tp622
F5
s(S'DP'
S'ADVDDADVVP'
tp623
F1
s(g354
S'ADVAVPP'
tp624
F1
s(S'NP'
S'ADVANVP'
tp625
F6
s(S'DP'
p626
S'AADDAADVNP'
tp627
F1
s(S'AP'
S'AADVADP'
tp628
F1
s(S'DP'
S'AADPP'
tp629
F4
s(g295
S'AAVMP'
tp630
F1
s(S'AP'
S'AAAADVDDP'
tp631
F1
s(S'VP'
S'VVAANNP'
tp632
F1
s(S'MP'
S'MAVAP'
tp633
F1
s(S'AP'
S'AAMMP'
tp634
F2
s(S'PP'
S'ADVPDDP'
tp635
F1
s(S'NP'
S'ANVVVP'
tp636
F1
s(S'MP'
p637
S'MPVVP'
tp638
F1
s(g456
S'MVVNP'
tp639
F3
s(S'CP'
S'CDDADVPPP'
tp640
F3
s(S'NP'
p641
S'NACCP'
tp642
F1
s(S'NP'
S'ADVADVNNCP'
tp643
F2
s(g360
S'AAPP'
tp644
F15
s(S'AP'
S'ADVADVACCP'
tp645
F1
s(S'VP'
S'VVCCP'
tp646
F1
s(S'DP'
S'DMMP'
tp647
F1
s(S'CP'
S'ADVCAADP'
tp648
F2
s(S'PP'
S'APPNP'
tp649
F4
s(g186
S'ADVPANP'
tp650
F1
s(S'VP'
S'VADVADP'
tp651
F1
s(g620
S'NAPP'
tp652
F31
s(g127
S'NADVDP'
tp653
F3
s(g147
S'ADVPPPP'
tp654
F2
s(g270
S'APDDDP'
tp655
F1
s(g335
S'DADVADVADVVP'
tp656
F1
s(g616
S'ANCCP'
tp657
F13
s(g465
S'AANPP'
tp658
F5
s(g390
S'VDDDP'
tp659
F2
s(g132
S'NNMP'
tp660
F8
s(S'DP'
S'DDDVP'
tp661
F2
s(S'DP'
S'DDDADVVVP'
tp662
F1
s(S'CP'
S'CADDPP'
tp663
F2
s(S'MP'
S'MAPDP'
tp664
F2
s(g270
S'PAAAP'
tp665
F3
s(S'PP'
S'ADVADVPNP'
tp666
F4
s(S'DP'
S'DADVAP'
tp667
F2
s(S'CP'
S'CDDAPP'
tp668
F4
s(S'NP'
S'ANAP'
tp669
F3
s(S'VP'
S'VADVADVAPP'
tp670
F1
s(g504
S'MVAP'
tp671
F17
s(S'VP'
S'VADVADVDDP'
tp672
F1
s(g77
S'PVP'
tp673
F173
s(g396
S'MVDDDP'
tp674
F1
s(g526
S'ADVADVADVAVVADVDP'
tp675
F1
s(S'AP'
S'ADVADVAPP'
tp676
F1
s(S'VP'
p677
S'VVVAANP'
tp678
F1
s(S'VP'
S'VADVCCP'
tp679
F1
s(S'CP'
S'ACDDDP'
tp680
F1
s(S'AP'
S'AADVDDP'
tp681
F2
s(g514
S'ADVNAVP'
tp682
F1
s(g127
S'ANNCP'
tp683
F1
s(g410
S'PPADVPP'
tp684
F1
s(S'NP'
S'ADVADVADVNVP'
tp685
F1
s(g220
S'MMMMVP'
tp686
F1
s(g405
S'PPDDP'
tp687
F4
s(S'VP'
S'AVCP'
tp688
F4
s(S'DP'
p689
S'DPP'
tp690
F260
s(S'NP'
p691
S'ADVNVP'
tp692
F6
s(g26
S'DDPP'
tp693
F80
s(S'DP'
S'DDADVPPP'
tp694
F3
s(S'NP'
S'ANADVVVP'
tp695
F1
s(g81
S'DANP'
tp696
F78
s(S'AP'
S'ADVAMP'
tp697
F7
s(g641
S'NADVPP'
tp698
F8
s(g514
S'AADVNACCP'
tp699
F1
s(g489
S'MMAP'
tp700
F1
s(S'NP'
S'AANADVVP'
tp701
F2
s(g193
S'NAAVP'
tp702
F2
s(S'DP'
S'ADVADVADPP'
tp703
F1
s(g26
S'AADNP'
tp704
F3
s(S'DP'
S'ADVDDAPP'
tp705
F1
s(S'AP'
S'AAAAPP'
tp706
F1
s(S'VP'
S'VADVCP'
tp707
F1
s(S'PP'
S'PMMMP'
tp708
F2
s(S'MP'
S'MADVVVPP'
tp709
F1
s(S'VP'
S'ADVVAADP'
tp710
F1
s(g38
S'MDNP'
tp711
F12
s(g302
S'DCCP'
tp712
F1
s(g579
S'ADVADVPPP'
tp713
F1
s(g139
S'AAPDP'
tp714
F4
s(S'VP'
p715
S'VVDDP'
tp716
F3
s(S'PP'
S'PDDP'
tp717
F45
s(S'MP'
S'MVDDP'
tp718
F3
s(S'PP'
S'ADVAPNP'
tp719
F2
s(g132
S'NNVP'
tp720
F23
s(g330
S'NADVADVVVP'
tp721
F2
s(g239
S'AVDP'
tp722
F34
s(S'PP'
p723
S'ADVADVADVPNP'
tp724
F1
s(S'NP'
S'NNP'
tp725
F1
s(S'DP'
S'ADVADPP'
tp726
F8
s(S'VP'
S'VAADDP'
tp727
F2
s(S'DP'
S'DAANP'
tp728
F7
s(S'AP'
S'ADDP'
tp729
F19
s(S'VP'
S'ADVVVAP'
tp730
F1
s(S'PP'
p731
S'ADVPPNP'
tp732
F1
s(S'MP'
S'MMCCP'
tp733
F1
s(S'CP'
S'CADVADVDPP'
tp734
F3
s(S'CP'
S'ADVADVADVCDP'
tp735
F1
s(g81
S'DPPP'
tp736
F87
s(S'DP'
S'DAVVP'
tp737
F1
s(g32
S'AADPPP'
tp738
F2
s(S'AP'
S'AAADVVP'
tp739
F1
s(S'PP'
p740
S'ADVADVPPNP'
tp741
F1
s(S'AP'
p742
S'AAAP'
tp743
F3
s(S'NP'
S'NNAVP'
tp744
F1
s(g691
S'NNAAPP'
tp745
F2
s(S'NP'
S'NMMMP'
tp746
F1
s(S'PP'
S'PPPANP'
tp747
F1
s(S'MP'
S'ADVADVMVVP'
tp748
F1
s(S'CP'
S'ADVADVCDDP'
tp749
F1
s(g190
S'ADVPNP'
tp750
F15
s(S'MP'
S'MAADVCCP'
tp751
F1
s(g243
S'PPDP'
tp752
F44
s(S'MP'
p753
S'MAVDP'
tp754
F2
s(g482
S'ADVDCP'
tp755
F1
s(S'CP'
S'CADVDPPPPP'
tp756
F1
s(S'DP'
S'DDADVANP'
tp757
F1
s(S'NP'
S'NADVADVADVPP'
tp758
F1
s(S'DP'
S'DDCP'
tp759
F1
s(S'CP'
S'CADADVADVPP'
tp760
F1
s(S'PP'
p761
S'PPADVDDP'
tp762
F1
s(g81
S'AADADVNP'
tp763
F1
s(g542
S'MNCCP'
tp764
F1
s(S'DP'
p765
S'ADVDADVNP'
tp766
F2
s(g97
S'NAP'
tp767
F79
s(S'VP'
S'VADVANP'
tp768
F4
s(g235
S'VVP'
tp769
F70
s(S'MP'
p770
S'ADVMNP'
tp771
F1
s(g266
S'DDAPP'
tp772
F13
s(g740
S'ADVADVPVP'
tp773
F1
s(g243
S'APNP'
tp774
F39
s(g765
S'DDDAPP'
tp775
F1
s(S'DP'
S'DDVVP'
tp776
F1
s(S'AP'
S'AAADDP'
tp777
F2
s(S'VP'
S'VVVNP'
tp778
F1
s(S'MP'
S'MNPP'
tp779
F1
s(g504
S'MAAVCP'
tp780
F1
s(S'NP'
S'NAMP'
tp781
F5
s(S'VP'
S'VVVADVANP'
tp782
F1
s(g753
S'MVANP'
tp783
F5
s(g272
S'ADVADVDDPP'
tp784
F1
s(g206
S'MVNNP'
tp785
F3
s(g370
S'AAADVPP'
tp786
F1
s(S'CP'
S'CDPP'
tp787
F240
s(S'MP'
S'MVADVADVPPP'
tp788
F1
s(S'AP'
S'ADDDP'
tp789
F1
s(g489
S'MVADVPP'
tp790
F1
s(S'CP'
S'ADVCADP'
tp791
F3
s(S'MP'
S'MMMVP'
tp792
F2
s(g626
S'ADADVADVPP'
tp793
F1
s(S'CP'
S'ADVCDP'
tp794
F17
s(S'NP'
S'NADVADVADVCP'
tp795
F1
s(S'PP'
S'PADVADVDP'
tp796
F2
s(S'PP'
S'APMMP'
tp797
F1
s(g116
S'PPNNP'
tp798
F9
s(g731
S'ADVPAVP'
tp799
F1
s(g761
S'PADVCP'
tp800
F1
s(g405
S'PPMP'
tp801
F2
s(S'CP'
S'CAADDPP'
tp802
F1
s(S'PP'
S'PADVADVADVVVP'
tp803
F1
s(S'DP'
S'ADVADVDPP'
tp804
F3
s(S'VP'
S'VADVNP'
tp805
F10
s(g112
S'PPPADVNP'
tp806
F1
s(S'NP'
S'NADVAP'
tp807
F1
s(g715
S'AVDDP'
tp808
F3
s(g81
S'DADVNP'
tp809
F9
s(g81
S'DAP'
tp810
F33
s(g542
S'MCADP'
tp811
F1
s(S'CP'
S'CADPP'
tp812
F42
s(S'NP'
S'NADVAVP'
tp813
F1
s(g405
S'PPAVP'
tp814
F4
s(g740
S'APADVADVPP'
tp815
F1
s(S'MP'
S'MADVADVVDP'
tp816
F2
s(S'VP'
S'AVPP'
tp817
F6
s(S'CP'
S'CAADPPP'
tp818
F1
s(g88
S'MPAANP'
tp819
F1
s(S'MP'
S'AMVVP'
tp820
F2
s(S'VP'
S'VVAVP'
tp821
F1
s(S'NP'
S'ADVNAPP'
tp822
F1
s(S'CP'
S'CDPPPP'
tp823
F1
s(S'VP'
S'AAVDP'
tp824
F6
s(S'PP'
S'PANNP'
tp825
F1
s(S'NP'
S'ADVANMP'
tp826
F1
s(g677
S'VACCP'
tp827
F1
s(S'AP'
S'AAAPP'
tp828
F2
s(g308
S'ADVVADVAP'
tp829
F1
s(g689
S'DADVADVPP'
tp830
F7
s(g432
S'DMP'
tp831
F10
s(g421
S'ADVDPP'
tp832
F22
s(S'NP'
S'NADVADVDP'
tp833
F1
s(S'PP'
S'PPAANP'
tp834
F1
s(S'PP'
S'PADVADVNP'
tp835
F1
s(g380
S'ADPP'
tp836
F66
s(g438
S'PPAAVP'
tp837
F1
s(g295
S'VADVPP'
tp838
F1
s(S'VP'
S'VADVADVNNP'
tp839
F2
s(g26
S'ADVDANP'
tp840
F4
s(g156
S'CCADVDDP'
tp841
F1
s(S'PP'
S'PVVVVP'
tp842
F1
s(S'PP'
S'ADVPVP'
tp843
F14
s(S'DP'
S'DDDDPP'
tp844
F1
s(g753
S'AAMPP'
tp845
F1
s(g116
S'PAMP'
tp846
F3
s(g573
S'ADVPDP'
tp847
F13
s(g35
S'ADVVADP'
tp848
F1
s(S'NP'
S'ADVNNPP'
tp849
F6
s(g456
S'MAVNNP'
tp850
F1
s(g5
S'ADVAAMP'
tp851
F1
s(g293
S'MVADVAP'
tp852
F2
s(S'NP'
S'NCP'
tp853
F213
s(S'VP'
S'ADVADVVVPP'
tp854
F1
s(g218
S'CADVDPPP'
tp855
F1
s(g289
S'ADVVVPP'
tp856
F3
s(S'NP'
S'ADVANDP'
tp857
F3
s(S'DP'
p858
S'ADVVP'
tp859
F3
s(g742
S'AADVMP'
tp860
F1
s(S'AP'
p861
S'AAMP'
tp862
F6
s(S'MP'
S'MMVVVP'
tp863
F1
s(S'PP'
S'PPAPP'
tp864
F1
s(S'NP'
S'AANDP'
tp865
F2
s(S'MP'
S'MVCCP'
tp866
F2
s(g858
S'DADVNNP'
tp867
F6
s(S'NP'
S'NNCCP'
tp868
F7
s(g770
S'MNVP'
tp869
F4
s(S'NP'
S'AANAP'
tp870
F1
s(S'MP'
S'AMPPP'
tp871
F2
s(S'PP'
S'PADVADVAP'
tp872
F1
s(g158
S'VAPP'
tp873
F11
s(S'NP'
S'NPPPPP'
tp874
F1
s(S'MP'
S'MAVNP'
tp875
F2
s(g158
S'ADVVDP'
tp876
F8
s(S'AP'
S'AADVDP'
tp877
F6
s(S'DP'
S'DADVPP'
tp878
F31
s(g526
S'VVADVAP'
tp879
F2
s(g451
S'AMP'
tp880
F40
s(g261
S'CCADP'
tp881
F9
s(g59
S'ADVNNCP'
tp882
F4
s(g392
S'ADVDAP'
tp883
F1
s(g637
S'MADVVADVAP'
tp884
F1
s(S'AP'
S'ADVAPP'
tp885
F4
s(S'DP'
S'ADVDAVP'
tp886
F1
s(S'CP'
S'AACDP'
tp887
F3
s(g302
S'ADVDPPP'
tp888
F3
s(g689
S'DVP'
tp889
F209
s(S'VP'
S'ADVVAP'
tp890
F13
s(g97
S'ADVNPP'
tp891
F8
s(g193
S'ADVADVANMP'
tp892
F1
s(S'VP'
S'VVAMP'
tp893
F1
s(S'CP'
S'AAACDP'
tp894
F1
s(g861
S'AVP'
tp895
F41
s(g616
S'NADVVP'
tp896
F7
s(g237
S'AAAVVDP'
tp897
F1
s(g184
S'DDPPP'
tp898
F13
s(g620
S'ADVNMP'
tp899
F5
s(S'NP'
S'NNAP'
tp900
F5
s(g153
S'NNADVPPP'
tp901
F1
s(g723
S'PPANP'
tp902
F4
s(S'MP'
S'MCDDP'
tp903
F1
s(S'CP'
S'CDADVPP'
tp904
F19
s(g235
S'VNP'
tp905
F154
s(g28
S'VANP'
tp906
F26
s(S'VP'
S'VADVAP'
tp907
F15
s(S'DP'
S'DDDDVP'
tp908
F1
s(S'VP'
S'ADVADVVVDP'
tp909
F2
s.