ccollections
defaultdict
p1
(c__builtin__
float
p2
tRp3
(S'DP'
S'DADVAPP'
tp4
F7
s(S'DP'
S'ADVADVDNNP'
tp5
F1
s(S'MP'
S'MMDP'
tp6
F5
s(S'VP'
S'VVAAAP'
tp7
F1
s(S'DP'
p8
S'ADDPP'
tp9
F5
s(S'DP'
S'DDAP'
tp10
F10
s(S'VP'
S'ADVVVNP'
tp11
F5
s(S'AP'
S'AADDDP'
tp12
F3
s(S'PP'
p13
S'ADVADVADVPPVP'
tp14
F1
s(S'VP'
p15
S'VVVVP'
tp16
F3
s(S'DP'
S'DAANNP'
tp17
F2
s(S'AP'
S'AVVVP'
tp18
F1
s(S'PP'
S'ADVADVPAP'
tp19
F1
s(S'VP'
S'AVADVPP'
tp20
F1
s(S'PP'
p21
S'PADVNP'
tp22
F37
s(S'DP'
p23
S'DNP'
tp24
F603
s(S'CP'
S'CDADVADVPPP'
tp25
F2
s(S'MP'
S'MVVAAP'
tp26
F5
s(S'NP'
p27
S'ADVNDP'
tp28
F10
s(S'PP'
p29
S'AAPDDP'
tp30
F6
s(S'VP'
p31
S'ADVVNNP'
tp32
F2
s(S'NP'
p33
S'NNAAAAP'
tp34
F1
s(S'CP'
S'CDPPP'
tp35
F175
s(S'DP'
p36
S'ADVDDVP'
tp37
F2
s(S'VP'
S'AVADVDDP'
tp38
F1
s(S'MP'
S'ADVAMCP'
tp39
F1
s(S'NP'
S'AAANCP'
tp40
F1
s(S'VP'
p41
S'VADP'
tp42
F39
s(S'DP'
S'DNNNNP'
tp43
F4
s(S'MP'
p44
S'MPPNNNP'
tp45
F1
s(S'DP'
S'DAAP'
tp46
F16
s(S'DP'
S'ADVADVADVDDADVPP'
tp47
F1
s(S'MP'
S'MADVADVVNP'
tp48
F2
s(S'PP'
S'PPPPPP'
tp49
F1
s(S'VP'
p50
S'VADVADVADVAP'
tp51
F1
s(S'VP'
p52
S'VAVP'
tp53
F4
s(S'PP'
p54
S'APPDP'
tp55
F1
s(S'CP'
S'CADVADVDPPP'
tp56
F3
s(S'AP'
S'AADVMP'
tp57
F1
s(S'DP'
S'DAADP'
tp58
F2
s(S'DP'
p59
S'ADNNP'
tp60
F9
s(S'VP'
p61
S'VADVVVP'
tp62
F1
s(S'CP'
p63
S'CCCADVADVDP'
tp64
F2
s(S'MP'
S'MDVP'
tp65
F6
s(S'PP'
S'PADVADVAAP'
tp66
F1
s(g41
S'ADVVNP'
tp67
F43
s(S'MP'
S'MADVNMP'
tp68
F1
s(S'PP'
p69
S'PPADVADVPP'
tp70
F2
s(S'PP'
p71
S'PADVANP'
tp72
F7
s(S'VP'
S'ADVVAMP'
tp73
F2
s(S'PP'
p74
S'PPPP'
tp75
F96
s(S'MP'
p76
S'MVCCCP'
tp77
F1
s(S'AP'
S'ADVAPPP'
tp78
F1
s(S'DP'
S'DDDNP'
tp79
F19
s(S'MP'
S'MMADVVP'
tp80
F3
s(S'VP'
S'VACP'
tp81
F9
s(S'AP'
p82
S'AAAVP'
tp83
F5
s(S'VP'
S'AAVADVCP'
tp84
F1
s(S'PP'
S'PVVVP'
tp85
F7
s(S'VP'
S'VVVAAAP'
tp86
F1
s(S'DP'
p87
S'DADVVP'
tp88
F13
s(S'NP'
S'AAANPPP'
tp89
F1
s(S'MP'
S'MMCP'
tp90
F4
s(S'PP'
S'PADVNNP'
tp91
F4
s(S'AP'
S'AADVPP'
tp92
F2
s(S'MP'
p93
S'MCADVADVDP'
tp94
F1
s(S'DP'
S'ADADVADVADVPPP'
tp95
F1
s(S'NP'
S'AAANVP'
tp96
F1
s(g76
S'MVVNNNP'
tp97
F1
s(S'NP'
S'NADVACP'
tp98
F7
s(S'NP'
p99
S'NDDDP'
tp100
F4
s(S'NP'
p101
S'NADVVVP'
tp102
F20
s(S'PP'
S'PPADVADVADVNP'
tp103
F1
s(S'NP'
p104
S'ANADVPP'
tp105
F1
s(g50
S'VCP'
tp106
F260
s(S'NP'
p107
S'NMMP'
tp108
F27
s(S'NP'
S'NANP'
tp109
F4
s(S'VP'
S'ADVVAAP'
tp110
F3
s(S'NP'
S'NNADVAP'
tp111
F1
s(g63
S'CAAADPPP'
tp112
F1
s(S'PP'
p113
S'ADVPNNP'
tp114
F3
s(S'PP'
p115
S'ADVPADP'
tp116
F1
s(S'PP'
p117
S'PAP'
tp118
F270
s(S'MP'
p119
S'MMVVP'
tp120
F4
s(S'VP'
p121
S'VADVADVAP'
tp122
F3
s(S'MP'
S'MVADVNP'
tp123
F5
s(S'NP'
S'ADVADVADVADVNMP'
tp124
F1
s(S'NP'
S'NNNAP'
tp125
F2
s(S'PP'
p126
S'APVVP'
tp127
F8
s(S'VP'
p128
S'ADVVCCP'
tp129
F1
s(S'PP'
S'PPADVDP'
tp130
F6
s(S'MP'
p131
S'MADVCDP'
tp132
F1
s(S'CP'
p133
S'CCDDDDP'
tp134
F1
s(S'VP'
S'VADVANP'
tp135
F2
s(g117
S'PNP'
tp136
F579
s(S'NP'
S'ADVADVADVNNCP'
tp137
F1
s(S'AP'
S'AADVADVDP'
tp138
F4
s(S'MP'
S'MVAAAP'
tp139
F1
s(S'NP'
S'ADVADVADVNCP'
tp140
F1
s(g131
S'MPVVP'
tp141
F1
s(g23
S'DDP'
tp142
F114
s(S'CP'
S'CADVDADVADVPP'
tp143
F1
s(S'PP'
S'PPMMP'
tp144
F1
s(S'VP'
p145
S'ADVVDDP'
tp146
F3
s(S'NP'
S'NNNPP'
tp147
F7
s(S'PP'
p148
S'PAAP'
tp149
F39
s(S'MP'
S'MCDP'
tp150
F36
s(S'VP'
p151
S'VVVMP'
tp152
F4
s(S'DP'
S'DDDDPPPP'
tp153
F1
s(S'MP'
p154
S'MNNAP'
tp155
F1
s(S'MP'
p156
S'MNAP'
tp157
F3
s(S'VP'
S'VVMMP'
tp158
F2
s(S'VP'
S'ADVADVADVVVAP'
tp159
F1
s(S'AP'
S'ADVADVAVVP'
tp160
F1
s(S'VP'
S'ADVADVVVCP'
tp161
F1
s(S'NP'
p162
S'NMP'
tp163
F282
s(S'NP'
S'AANAAP'
tp164
F1
s(S'NP'
S'ADVNCCP'
tp165
F1
s(S'PP'
p166
S'PAPP'
tp167
F19
s(S'DP'
p168
S'DADVADVDDP'
tp169
F1
s(S'VP'
S'VAAADP'
tp170
F2
s(S'CP'
p171
S'CAADPP'
tp172
F13
s(S'PP'
S'PADVADVADVADVNP'
tp173
F1
s(S'VP'
p174
S'AAVNP'
tp175
F2
s(S'VP'
p176
S'VMMP'
tp177
F28
s(g117
S'PDP'
tp178
F585
s(S'DP'
S'DDPPPPP'
tp179
F1
s(S'CP'
S'CCADVADVDP'
tp180
F3
s(S'CP'
S'CDADVADVPP'
tp181
F8
s(g36
S'ADVADVDDAAP'
tp182
F1
s(S'NP'
S'ADVNVVP'
tp183
F3
s(S'VP'
S'VNNNNP'
tp184
F2
s(S'MP'
S'MNNVP'
tp185
F4
s(S'NP'
S'AAANVVP'
tp186
F1
s(S'MP'
S'MADVVNP'
tp187
F5
s(S'DP'
p188
S'ADVDDAPP'
tp189
F1
s(S'NP'
S'NNADVMP'
tp190
F1
s(S'MP'
S'MADVAPP'
tp191
F1
s(S'PP'
p192
S'ADVADVADVPPDP'
tp193
F1
s(S'AP'
S'ANP'
tp194
F2
s(S'PP'
S'ADVPAAP'
tp195
F4
s(S'NP'
S'NADVADVADVVP'
tp196
F1
s(S'DP'
p197
S'ADVADMP'
tp198
F1
s(S'PP'
p199
S'PADVPP'
tp200
F10
s(S'MP'
p201
S'MVVADVADVCCP'
tp202
F1
s(S'NP'
S'NNADVCP'
tp203
F3
s(S'VP'
S'VVADVNP'
tp204
F2
s(S'PP'
S'PPADVAP'
tp205
F1
s(S'VP'
S'ADVADVADVVCCP'
tp206
F1
s(S'AP'
S'ADVADVAMP'
tp207
F2
s(S'VP'
S'VADVAAP'
tp208
F3
s(S'MP'
S'MNACP'
tp209
F1
s(S'DP'
p210
S'DPPPP'
tp211
F28
s(S'DP'
S'DDANP'
tp212
F12
s(S'PP'
p213
S'PADVADP'
tp214
F2
s(g162
S'NACP'
tp215
F38
s(S'AP'
S'ADVAVP'
tp216
F15
s(S'NP'
p217
S'NCCP'
tp218
F139
s(S'CP'
S'CDDDDPPP'
tp219
F1
s(S'MP'
p220
S'MADVPDP'
tp221
F3
s(S'VP'
S'VVCCCP'
tp222
F2
s(S'VP'
S'VVVVVP'
tp223
F2
s(S'NP'
p224
S'NNCP'
tp225
F158
s(S'DP'
p226
S'ADVDDPP'
tp227
F6
s(S'NP'
S'NADVADVVP'
tp228
F8
s(S'DP'
S'DPPPPP'
tp229
F2
s(S'VP'
p230
S'ADVADVADVADVVVNP'
tp231
F1
s(S'DP'
S'DDDDP'
tp232
F5
s(S'DP'
S'DDAPP'
tp233
F8
s(S'NP'
S'NNADVADVADVCP'
tp234
F1
s(g44
S'MAAADP'
tp235
F1
s(S'MP'
p236
S'ADVADVMVVVVP'
tp237
F1
s(S'VP'
p238
S'AVNP'
tp239
F34
s(S'VP'
S'VVADP'
tp240
F1
s(S'NP'
S'NNNAPP'
tp241
F1
s(S'NP'
S'NADVADVPP'
tp242
F1
s(S'PP'
S'PADVADVANP'
tp243
F2
s(g128
S'VVNNNP'
tp244
F3
s(S'PP'
p245
S'ADVPVVP'
tp246
F4
s(S'PP'
p247
S'ADVAPDP'
tp248
F3
s(S'PP'
S'AAPNP'
tp249
F6
s(S'VP'
S'ADVADVAVNP'
tp250
F2
s(S'CP'
S'CDDADVPPP'
tp251
F1
s(S'VP'
S'VADVVP'
tp252
F6
s(S'NP'
p253
S'ADVADVADVNMP'
tp254
F2
s(S'VP'
p255
S'ADVADVADVVNP'
tp256
F2
s(S'MP'
p257
S'MVAPP'
tp258
F1
s(g145
S'ADVVANNP'
tp259
F1
s(S'MP'
S'MVPPP'
tp260
F3
s(S'NP'
p261
S'ANADVVP'
tp262
F1
s(S'PP'
S'ADVPAPP'
tp263
F1
s(g41
S'VAAMP'
tp264
F3
s(S'NP'
S'ADVADVADVADVNCP'
tp265
F1
s(S'PP'
S'ADVPPAAP'
tp266
F1
s(S'NP'
S'NCCCCP'
tp267
F5
s(S'CP'
S'CCCDP'
tp268
F19
s(g50
S'ADVVAP'
tp269
F21
s(g126
S'ADVPPNNP'
tp270
F1
s(S'VP'
S'VCCCP'
tp271
F6
s(S'MP'
S'MVCCCCP'
tp272
F1
s(S'NP'
S'NNNNMMP'
tp273
F1
s(S'DP'
S'DDADVADVADVPPP'
tp274
F1
s(S'PP'
S'PADVVVP'
tp275
F4
s(g117
S'APDP'
tp276
F66
s(S'DP'
p277
S'DADVMP'
tp278
F1
s(S'NP'
S'NNADVADVVVP'
tp279
F1
s(S'CP'
S'ADVCCADVDP'
tp280
F1
s(S'VP'
S'VADVNNP'
tp281
F2
s(S'NP'
S'ADVNPPP'
tp282
F3
s(S'AP'
S'AADVCP'
tp283
F5
s(S'CP'
S'CDADVADVADVPP'
tp284
F1
s(S'DP'
p285
S'DADVADVPPP'
tp286
F2
s(S'VP'
S'VVANP'
tp287
F7
s(S'NP'
p288
S'NNADVDP'
tp289
F2
s(S'MP'
S'ADVMPP'
tp290
F1
s(S'VP'
S'VVVVDP'
tp291
F2
s(S'VP'
S'ADVVVP'
tp292
F5
s(S'PP'
S'ADVADVADVPDP'
tp293
F1
s(S'NP'
S'ADVADVADVNNDP'
tp294
F1
s(S'PP'
S'PADVCCP'
tp295
F1
s(S'PP'
S'PPADVNNP'
tp296
F1
s(S'PP'
p297
S'ADVPCP'
tp298
F1
s(S'DP'
S'DADVADVADVPP'
tp299
F1
s(S'NP'
p300
S'ADVADVNNPP'
tp301
F1
s(S'CP'
S'CCCADP'
tp302
F1
s(S'CP'
S'CCCCADVDP'
tp303
F1
s(S'MP'
p304
S'MAVNP'
tp305
F4
s(S'DP'
S'ADVADNNP'
tp306
F1
s(S'MP'
S'MPNNP'
tp307
F7
s(g224
S'ADVANCP'
tp308
F5
s(S'DP'
p309
S'DNNP'
tp310
F200
s(S'CP'
p311
S'CADVDDPP'
tp312
F4
s(g285
S'ADVADVDDNP'
tp313
F2
s(S'CP'
S'CDDPPPP'
tp314
F2
s(S'CP'
p315
S'CCADVDP'
tp316
F8
s(g15
S'ADVADVADVVVDP'
tp317
F2
s(S'VP'
S'VVACP'
tp318
F1
s(S'VP'
S'AAVDDP'
tp319
F1
s(S'DP'
S'ADDNP'
tp320
F1
s(S'NP'
p321
S'NNNVP'
tp322
F15
s(S'PP'
S'PPAAPP'
tp323
F1
s(S'MP'
p324
S'MVADVADVADVAP'
tp325
F1
s(S'VP'
p326
S'VDP'
tp327
F564
s(S'CP'
S'ADVCAADP'
tp328
F2
s(S'MP'
p329
S'ADVADVMPP'
tp330
F1
s(S'PP'
S'APAAP'
tp331
F1
s(S'DP'
S'DDADVADVADVVP'
tp332
F1
s(S'PP'
S'PPNNNNP'
tp333
F1
s(S'PP'
p334
S'PADVVP'
tp335
F35
s(S'DP'
S'DACP'
tp336
F2
s(S'DP'
p337
S'DADVADVADVPPP'
tp338
F3
s(S'MP'
p339
S'MVVDDP'
tp340
F2
s(S'PP'
S'APAP'
tp341
F6
s(S'NP'
S'NADVAMP'
tp342
F1
s(S'CP'
S'ADVADVCDP'
tp343
F8
s(S'DP'
S'ADVDDCP'
tp344
F1
s(S'VP'
p345
S'VAPPP'
tp346
F2
s(S'NP'
p347
S'NADVADVCCP'
tp348
F2
s(S'MP'
p349
S'ADVADVADVADVMMPP'
tp350
F1
s(S'NP'
S'NADVMP'
tp351
F5
s(S'AP'
S'AAP'
tp352
F10
s(S'VP'
p353
S'VADVADVVP'
tp354
F3
s(S'CP'
S'CADVADPP'
tp355
F5
s(S'MP'
p356
S'MPPANP'
tp357
F1
s(S'DP'
p358
S'DAAAPP'
tp359
F1
s(S'NP'
p360
S'ADVANPP'
tp361
F5
s(g356
S'MVVCP'
tp362
F4
s(S'DP'
S'DAAVP'
tp363
F6
s(S'MP'
p364
S'MAVCP'
tp365
F1
s(S'CP'
S'CDDDDPP'
tp366
F1
s(S'MP'
S'MPVP'
tp367
F3
s(S'CP'
S'CADVADVADVDDADVPP'
tp368
F1
s(S'MP'
S'MADVVMP'
tp369
F1
s(S'PP'
S'ADVPANP'
tp370
F1
s(g213
S'PAANP'
tp371
F6
s(S'DP'
S'DDADVADVVP'
tp372
F1
s(S'PP'
S'PDDDDP'
tp373
F1
s(g245
S'PPADVADVNNP'
tp374
F2
s(S'NP'
S'ANVP'
tp375
F44
s(S'VP'
S'VAACP'
tp376
F1
s(S'PP'
p377
S'PPAVP'
tp378
F1
s(S'VP'
S'VVAVP'
tp379
F1
s(S'NP'
p380
S'NNAAAP'
tp381
F1
s(S'MP'
S'MVNP'
tp382
F120
s(S'CP'
S'CDDDDPPPP'
tp383
F1
s(S'MP'
p384
S'MNDP'
tp385
F8
s(S'MP'
p386
S'MADVADVADVVAP'
tp387
F1
s(S'AP'
S'ADVAADP'
tp388
F3
s(S'DP'
p389
S'ADVADNP'
tp390
F3
s(S'PP'
S'ADVPVVVP'
tp391
F1
s(g148
S'PAVP'
tp392
F51
s(S'MP'
S'ADVMVP'
tp393
F10
s(S'PP'
p394
S'ADVADVPPVP'
tp395
F2
s(S'VP'
p396
S'ADVVMP'
tp397
F10
s(S'DP'
S'ADVDVVP'
tp398
F2
s(S'MP'
S'MADVVADVAP'
tp399
F1
s(S'VP'
S'VVVAAP'
tp400
F1
s(S'VP'
S'VVVPP'
tp401
F8
s(S'NP'
S'NNADP'
tp402
F2
s(S'CP'
S'ADVCADP'
tp403
F1
s(S'NP'
S'ADVADVANDP'
tp404
F1
s(S'MP'
S'MADVVPP'
tp405
F3
s(S'DP'
p406
S'DADP'
tp407
F10
s(S'VP'
p408
S'VVAANP'
tp409
F1
s(g82
S'ADVADP'
tp410
F21
s(g82
S'APP'
tp411
F180
s(S'VP'
S'VVADVPP'
tp412
F1
s(S'DP'
S'ADVDDP'
tp413
F4
s(S'PP'
S'APDDP'
tp414
F11
s(S'MP'
p415
S'MAAPAP'
tp416
F1
s(S'VP'
S'ADVADVVVNP'
tp417
F3
s(S'DP'
S'DDVVVVP'
tp418
F1
s(S'NP'
S'ADVNAP'
tp419
F4
s(S'DP'
S'ADVDDDP'
tp420
F1
s(g21
S'PPCP'
tp421
F8
s(g166
S'APVP'
tp422
F38
s(S'MP'
S'MADVADVVPP'
tp423
F1
s(S'VP'
S'ADVADVADVVVDDP'
tp424
F1
s(S'MP'
p425
S'MNNCP'
tp426
F1
s(S'MP'
p427
S'MNCP'
tp428
F26
s(S'VP'
S'ADVADVADVVCP'
tp429
F1
s(S'VP'
S'ADVADVADVADVVVNNP'
tp430
F1
s(g326
S'VVNP'
tp431
F151
s(S'PP'
p432
S'PPPNNP'
tp433
F2
s(g69
S'PPVP'
tp434
F126
s(S'MP'
S'MAPDDP'
tp435
F1
s(g326
S'VAVVP'
tp436
F1
s(g220
S'MPCP'
tp437
F4
s(S'PP'
S'ADVPAADP'
tp438
F1
s(g255
S'VADVDP'
tp439
F26
s(S'MP'
S'MDDAP'
tp440
F3
s(S'VP'
p441
S'VVADVAP'
tp442
F5
s(g131
S'ADVMADVVP'
tp443
F1
s(S'VP'
p444
S'VAAP'
tp445
F67
s(S'MP'
S'MANPP'
tp446
F1
s(S'NP'
S'AANNPP'
tp447
F1
s(S'NP'
p448
S'ANDP'
tp449
F37
s(S'NP'
p450
S'NVVP'
tp451
F194
s(S'PP'
S'AAPVP'
tp452
F4
s(g171
S'ADVCADDP'
tp453
F1
s(S'VP'
p454
S'VMP'
tp455
F198
s(S'MP'
S'MCCCDP'
tp456
F1
s(S'NP'
S'NADVADVADVADVVP'
tp457
F1
s(S'VP'
S'VVNNP'
tp458
F29
s(S'CP'
S'CDAPP'
tp459
F63
s(S'VP'
p460
S'VVAAP'
tp461
F19
s(S'NP'
S'ANADVCP'
tp462
F1
s(S'MP'
S'MMPP'
tp463
F11
s(S'PP'
S'ADVADVADVPPDDP'
tp464
F1
s(S'DP'
S'ADVADVP'
tp465
F1
s(S'VP'
S'VVAPP'
tp466
F3
s(S'DP'
p467
S'DDDDDADVPP'
tp468
F1
s(S'DP'
S'ADNP'
tp469
F50
s(S'DP'
p470
S'AADAP'
tp471
F2
s(g201
S'MADVVNNP'
tp472
F1
s(S'MP'
S'ADVMAP'
tp473
F2
s(g197
S'DDDDPP'
tp474
F2
s(S'DP'
S'DDDAAPP'
tp475
F1
s(g71
S'PADP'
tp476
F42
s(S'NP'
p477
S'NADVADVADVPPP'
tp478
F1
s(g441
S'ADVVVCP'
tp479
F4
s(g277
S'DDDPPPP'
tp480
F1
s(S'AP'
S'AAAACP'
tp481
F1
s(g380
S'ANDDP'
tp482
F5
s(S'VP'
S'VADVADVADVADVMMP'
tp483
F1
s(S'AP'
p484
S'AAADVADVDP'
tp485
F1
s(S'MP'
S'MMAAP'
tp486
F1
s(g467
S'ADVADVDVP'
tp487
F6
s(S'MP'
p488
S'MDANP'
tp489
F3
s(S'MP'
S'MDADVAP'
tp490
F1
s(S'PP'
S'ADVADVPMP'
tp491
F1
s(S'CP'
S'ADVADVCCDDP'
tp492
F2
s(S'CP'
S'ACADVDP'
tp493
F2
s(S'DP'
p494
S'DAPP'
tp495
F102
s(g154
S'MPDDDP'
tp496
F1
s(S'VP'
p497
S'AVVP'
tp498
F4
s(S'VP'
p499
S'ADVADVVMP'
tp500
F1
s(S'VP'
S'ADVADVVPP'
tp501
F3
s(S'MP'
S'MADPP'
tp502
F1
s(S'PP'
S'PPPPNNP'
tp503
F1
s(g460
S'VADVADVNP'
tp504
F7
s(S'MP'
S'MDDNP'
tp505
F4
s(g353
S'ADVADVVDP'
tp506
F9
s(S'VP'
p507
S'AVVNP'
tp508
F1
s(g334
S'PPPDP'
tp509
F12
s(S'NP'
S'NACCP'
tp510
F1
s(g384
S'MVVVDP'
tp511
F2
s(S'PP'
S'ADVADVPNNP'
tp512
F1
s(S'PP'
S'AAAPDP'
tp513
F1
s(S'MP'
p514
S'MVVAP'
tp515
F6
s(S'VP'
S'VDDDDP'
tp516
F1
s(S'DP'
S'DAAANP'
tp517
F3
s(S'DP'
S'DADVANP'
tp518
F11
s(S'MP'
S'MPANP'
tp519
F2
s(S'VP'
S'VAAPP'
tp520
F4
s(S'DP'
S'ADVDNP'
tp521
F36
s(S'VP'
S'AVDDDP'
tp522
F2
s(S'VP'
p523
S'VVPP'
tp524
F94
s(S'CP'
S'CCADDP'
tp525
F1
s(S'MP'
S'MVVVNP'
tp526
F2
s(S'DP'
S'ADADVPP'
tp527
F3
s(S'CP'
S'AACDDP'
tp528
F3
s(g304
S'MVPP'
tp529
F54
s(S'DP'
p530
S'ADVP'
tp531
F21
s(S'MP'
S'MVADP'
tp532
F1
s(S'MP'
S'MDAAP'
tp533
F1
s(S'CP'
p534
S'CDDPPP'
tp535
F31
s(S'PP'
S'PPPAP'
tp536
F3
s(S'VP'
p537
S'ADVADVADVVDP'
tp538
F1
s(S'PP'
S'AAPMP'
tp539
F2
s(g321
S'NNPP'
tp540
F94
s(g33
S'NADVADVDP'
tp541
F1
s(S'DP'
p542
S'DDDDNP'
tp543
F1
s(S'MP'
p544
S'MVVDP'
tp545
F15
s(S'DP'
p546
S'DADVPPP'
tp547
F13
s(S'PP'
S'PPADVAAP'
tp548
F1
s(g432
S'PPVVP'
tp549
F29
s(S'CP'
S'CADVDAPP'
tp550
F1
s(S'DP'
S'DNNNP'
tp551
F15
s(S'MP'
S'MVADVCP'
tp552
F1
s(S'MP'
S'MPPDP'
tp553
F5
s(g477
S'ADVNNDP'
tp554
F2
s(S'VP'
S'VADVADVPPP'
tp555
F1
s(g54
S'PADVADVVP'
tp556
F5
s(g174
S'VADVDDP'
tp557
F2
s(S'DP'
S'ADVADVADVADVDNP'
tp558
F1
s(S'DP'
p559
S'DADVADVADVNNP'
tp560
F2
s(S'NP'
p561
S'NNADVDDP'
tp562
F1
s(g71
S'PMP'
tp563
F79
s(S'NP'
S'NNMMP'
tp564
F5
s(g345
S'AAVDDDP'
tp565
F1
s(g349
S'MCCDP'
tp566
F3
s(S'CP'
S'CCDP'
tp567
F207
s(S'NP'
S'ANNDP'
tp568
F2
s(g59
S'ADVADVADVDPP'
tp569
F1
s(S'MP'
S'AMVP'
tp570
F11
s(S'PP'
S'PPNNNP'
tp571
F2
s(S'VP'
S'VVVVMP'
tp572
F2
s(S'MP'
p573
S'MVAP'
tp574
F39
s(S'NP'
S'NVVVP'
tp575
F22
s(S'CP'
S'CDDDPP'
tp576
F11
s(g61
S'ADVVVAAP'
tp577
F1
s(S'CP'
S'CDAAPP'
tp578
F9
s(S'MP'
S'AAMPP'
tp579
F3
s(S'VP'
p580
S'VVVDP'
tp581
F11
s(g119
S'MMACP'
tp582
F1
s(g117
S'PNNNP'
tp583
F13
s(S'CP'
S'CCCCDP'
tp584
F3
s(S'VP'
S'VVADVADVDDP'
tp585
F1
s(g497
S'ADVVVMP'
tp586
F3
s(g377
S'APADVNNP'
tp587
F1
s(S'AP'
S'AACCP'
tp588
F3
s(S'VP'
S'VVMP'
tp589
F23
s(S'AP'
p590
S'ADVAAAP'
tp591
F1
s(S'CP'
S'CADADVPP'
tp592
F2
s(S'VP'
S'ADVVVDP'
tp593
F8
s(g74
S'PPP'
tp594
F324
s(S'PP'
S'PPPPPVVP'
tp595
F1
s(g321
S'NNVVP'
tp596
F38
s(S'NP'
S'NAVP'
tp597
F38
s(g21
S'PADVAP'
tp598
F10
s(g546
S'AADADVADVPPP'
tp599
F1
s(S'VP'
S'VVADVNNP'
tp600
F1
s(S'MP'
S'AMDP'
tp601
F2
s(S'MP'
S'ADVADVMDP'
tp602
F1
s(S'PP'
p603
S'PADDP'
tp604
F3
s(S'MP'
S'MAVP'
tp605
F1
s(S'DP'
p606
S'ADVDVP'
tp607
F23
s(S'AP'
S'AMMMP'
tp608
F1
s(S'NP'
S'NAAAP'
tp609
F2
s(S'NP'
p610
S'ADVANDDDP'
tp611
F1
s(g360
S'NCCCP'
tp612
F13
s(S'MP'
S'MCADVDP'
tp613
F1
s(g484
S'AADVVP'
tp614
F1
s(S'VP'
S'ADVAVVNP'
tp615
F1
s(S'DP'
p616
S'DAAAP'
tp617
F2
s(S'DP'
S'ADVADVDNP'
tp618
F11
s(S'VP'
S'VAAAAP'
tp619
F1
s(g326
S'VPP'
tp620
F379
s(S'PP'
S'PPADVVVP'
tp621
F1
s(S'CP'
p622
S'ADVCCDP'
tp623
F5
s(S'VP'
S'VVVVNNNP'
tp624
F1
s(S'MP'
p625
S'ADVADVMVP'
tp626
F2
s(S'DP'
S'ADVDDNP'
tp627
F3
s(S'NP'
p628
S'NNNCP'
tp629
F18
s(S'PP'
p630
S'PADVDP'
tp631
F33
s(S'CP'
S'CDADVAPP'
tp632
F2
s(S'AP'
S'AADVADVMP'
tp633
F1
s(S'CP'
S'CDDDPPP'
tp634
F5
s(S'DP'
S'DANNP'
tp635
F3
s(S'MP'
S'MADVVAP'
tp636
F3
s(S'PP'
S'PADVAAP'
tp637
F1
s(g534
S'CDDPP'
tp638
F163
s(S'DP'
S'DDAAP'
tp639
F2
s(g389
S'DAAPP'
tp640
F15
s(g74
S'PVVP'
tp641
F136
s(S'CP'
S'CADPPP'
tp642
F13
s(S'AP'
S'AACP'
tp643
F34
s(S'DP'
S'ADVADDP'
tp644
F1
s(S'MP'
S'MADVVAAP'
tp645
F1
s(g315
S'CAADADVADVPPP'
tp646
F1
s(S'PP'
S'PMMP'
tp647
F7
s(S'PP'
S'ADVPPAP'
tp648
F1
s(S'VP'
p649
S'VPPP'
tp650
F61
s(S'VP'
S'AVCCP'
tp651
F2
s(S'NP'
S'NADVADVAVP'
tp652
F1
s(S'VP'
S'ADVADVADVADVVAP'
tp653
F1
s(S'CP'
S'CDADVADVAPP'
tp654
F1
s(S'VP'
p655
S'VVPPP'
tp656
F17
s(S'MP'
S'MMPPP'
tp657
F2
s(S'NP'
S'ANADVAAP'
tp658
F1
s(g121
S'ADVVVCCP'
tp659
F1
s(g21
S'PPAP'
tp660
F39
s(S'DP'
p661
S'DVVP'
tp662
F127
s(S'PP'
S'PADVAVP'
tp663
F4
s(g630
S'PPADVADVADVVP'
tp664
F1
s(S'VP'
S'VVAPPP'
tp665
F1
s(S'VP'
S'VVVADVAP'
tp666
F1
s(S'NP'
S'NNNNDP'
tp667
F1
s(S'PP'
p668
S'ADVADVADVPPPP'
tp669
F2
s(S'CP'
S'ADVACDDP'
tp670
F3
s(S'NP'
S'ANMP'
tp671
F9
s(S'MP'
S'MPPADVDP'
tp672
F1
s(S'AP'
S'APPP'
tp673
F14
s(S'PP'
S'ADVPPP'
tp674
F11
s(S'DP'
S'ADVADPPP'
tp675
F1
s(S'NP'
S'ADVADVNVP'
tp676
F7
s(g255
S'VVVP'
tp677
F26
s(S'CP'
S'CADVDPP'
tp678
F47
s(g247
S'PADVADVMP'
tp679
F1
s(S'PP'
S'PPDDDP'
tp680
F1
s(g255
S'AVMP'
tp681
F6
s(S'DP'
S'DDADVADVADVAPP'
tp682
F1
s(S'DP'
S'ADVDNNNP'
tp683
F1
s(S'MP'
S'MADVAVCP'
tp684
F1
s(g217
S'ANCP'
tp685
F80
s(S'DP'
S'DCP'
tp686
F64
s(S'NP'
S'ANNCP'
tp687
F4
s(S'DP'
S'DDDNNP'
tp688
F1
s(S'DP'
S'DADVADVADVNP'
tp689
F2
s(S'DP'
S'DADVCP'
tp690
F1
s(S'NP'
S'NNVVVVP'
tp691
F2
s(S'PP'
S'ADVADVADVPPNP'
tp692
F1
s(S'DP'
p693
S'DDDP'
tp694
F37
s(S'VP'
p695
S'VADVADVMMP'
tp696
F1
s(S'VP'
S'VVADVADVPPP'
tp697
F1
s(g87
S'DDADVPP'
tp698
F9
s(S'DP'
S'AADDPP'
tp699
F1
s(S'CP'
S'CADVADVADPP'
tp700
F1
s(S'MP'
p701
S'MAADP'
tp702
F6
s(S'NP'
S'ANVVP'
tp703
F8
s(g616
S'ADDNNP'
tp704
F2
s(g655
S'VVDP'
tp705
F159
s(S'AP'
S'ADVAAP'
tp706
F1
s(g217
S'NPPP'
tp707
F91
s(S'AP'
S'AAADP'
tp708
F10
s(S'DP'
p709
S'DAVP'
tp710
F34
s(S'VP'
S'AVVVP'
tp711
F1
s(S'CP'
S'CDDADVADVADVPPP'
tp712
F1
s(S'NP'
S'NNNMP'
tp713
F6
s(S'NP'
p714
S'NNNNMP'
tp715
F1
s(S'AP'
p716
S'ACP'
tp717
F118
s(S'PP'
S'AAPAP'
tp718
F1
s(S'PP'
S'PADVADVNNP'
tp719
F2
s(g74
S'PPNP'
tp720
F149
s(S'NP'
S'ADVADVANCCP'
tp721
F1
s(g514
S'MADNNP'
tp722
F3
s(S'PP'
S'APPPP'
tp723
F2
s(S'NP'
p724
S'ADVADVANPP'
tp725
F1
s(S'DP'
S'ADVDAPP'
tp726
F2
s(S'CP'
S'CDDPPPPP'
tp727
F1
s(S'VP'
S'VVADVMP'
tp728
F1
s(S'DP'
S'AADVP'
tp729
F2
s(g104
S'NNNNCCP'
tp730
F1
s(S'MP'
S'MADNP'
tp731
F4
s(S'MP'
S'MACP'
tp732
F1
s(S'MP'
S'ADVMDP'
tp733
F2
s(S'CP'
S'CDDADVPP'
tp734
F7
s(S'CP'
S'CCCDDP'
tp735
F4
s(S'AP'
p736
S'ADP'
tp737
F421
s(g297
S'ADVPPDDP'
tp738
F1
s(S'DP'
S'DDADVVP'
tp739
F3
s(S'PP'
p740
S'APMP'
tp741
F5
s(g210
S'DDAVP'
tp742
F4
s(S'PP'
S'ADVADVPPMP'
tp743
F1
s(g714
S'ANPPP'
tp744
F6
s(S'MP'
p745
S'MDPP'
tp746
F4
s(S'NP'
S'ADVADVADVADVNVP'
tp747
F1
s(S'NP'
S'ADVADVNNVP'
tp748
F2
s(S'DP'
S'DVVVVP'
tp749
F2
s(S'PP'
p750
S'APPAP'
tp751
F3
s(S'NP'
S'NADVADVAP'
tp752
F2
s(g151
S'ADVADVVNNP'
tp753
F3
s(S'MP'
S'MMNNP'
tp754
F4
s(g444
S'AVDP'
tp755
F48
s(S'NP'
S'ANNVP'
tp756
F2
s(S'PP'
S'PCCCP'
tp757
F1
s(g50
S'VVAP'
tp758
F74
s(S'NP'
S'NNAPP'
tp759
F1
s(S'MP'
S'MNADVVP'
tp760
F4
s(S'CP'
S'CDPPPPP'
tp761
F1
s(S'NP'
S'NNADVADVADVVP'
tp762
F1
s(S'PP'
p763
S'PADVADVDP'
tp764
F6
s(S'PP'
S'APPVVP'
tp765
F1
s(S'PP'
S'PPADVVP'
tp766
F6
s(S'VP'
S'AAVNNP'
tp767
F1
s(S'MP'
S'MMADVDP'
tp768
F1
s(g450
S'NPP'
tp769
F526
s(S'VP'
p770
S'ADVADVVAP'
tp771
F2
s(g321
S'NVP'
tp772
F596
s(g29
S'PPVVVP'
tp773
F4
s(S'PP'
S'PAAVP'
tp774
F6
s(S'MP'
p775
S'ADVMCP'
tp776
F3
s(S'CP'
S'CADVADVDDPP'
tp777
F3
s(S'DP'
S'DDDDNNP'
tp778
F1
s(g50
S'VDDP'
tp779
F117
s(S'VP'
S'ADVVADVAP'
tp780
F3
s(S'PP'
p781
S'ADVPPPP'
tp782
F4
s(g360
S'NNAAMP'
tp783
F2
s(S'PP'
S'ADVPPVP'
tp784
F2
s(S'MP'
S'MADVAVDP'
tp785
F1
s(g606
S'DMP'
tp786
F19
s(S'VP'
S'ADVVCP'
tp787
F7
s(S'DP'
p788
S'DDADVADVNNP'
tp789
F3
s(S'NP'
S'NNNDDP'
tp790
F1
s(S'NP'
p791
S'NADVADVVVP'
tp792
F6
s(g321
S'ANPP'
tp793
F69
s(S'PP'
p794
S'ADVPPDP'
tp795
F4
s(g763
S'PPPPP'
tp796
F18
s(S'MP'
p797
S'MPDP'
tp798
F59
s(S'PP'
S'ADVADVPDP'
tp799
F3
s(S'MP'
p800
S'MDVVP'
tp801
F1
s(S'MP'
p802
S'MVVPP'
tp803
F9
s(S'VP'
p804
S'ADVADVADVVAP'
tp805
F1
s(g781
S'PPPNP'
tp806
F13
s(g804
S'ADVVADVADVNP'
tp807
F1
s(S'DP'
S'DDDDDP'
tp808
F2
s(S'DP'
S'DDDADVADVAPP'
tp809
F1
s(S'MP'
S'MDADVADVAP'
tp810
F1
s(g104
S'ADVADVNPP'
tp811
F2
s(g162
S'NPPPP'
tp812
F8
s(S'DP'
S'ADDP'
tp813
F5
s(S'NP'
S'NADVAAP'
tp814
F1
s(S'NP'
p815
S'ADVADVNAP'
tp816
F1
s(S'MP'
S'MPADVNNP'
tp817
F1
s(g329
S'MMMDDP'
tp818
F1
s(S'DP'
S'DADVADVVP'
tp819
F2
s(g448
S'NAACP'
tp820
F9
s(g117
S'PNNP'
tp821
F137
s(S'VP'
S'VADVACP'
tp822
F1
s(S'CP'
S'CDADVADVADVPPP'
tp823
F2
s(S'PP'
S'APNNP'
tp824
F2
s(S'DP'
S'ADVADVDDPPP'
tp825
F1
s(S'DP'
p826
S'ADVDADVADVPP'
tp827
F1
s(S'NP'
S'NADVDP'
tp828
F5
s(g802
S'MMNP'
tp829
F7
s(S'DP'
p830
S'AAADPP'
tp831
F1
s(S'AP'
S'ADVAVVVP'
tp832
F1
s(S'VP'
S'VADVADVADVADVDP'
tp833
F1
s(S'VP'
S'AVAP'
tp834
F8
s(g324
S'MMVP'
tp835
F40
s(S'PP'
S'ADVPPAANP'
tp836
F1
s(S'PP'
S'ADVADVAPDP'
tp837
F1
s(g339
S'MVADVDP'
tp838
F1
s(g217
S'ADVNCP'
tp839
F37
s(S'DP'
S'DDADVADVPP'
tp840
F2
s(g23
S'ADPP'
tp841
F88
s(S'VP'
p842
S'ADVAVCP'
tp843
F2
s(g408
S'VVADVADVVVP'
tp844
F1
s(S'DP'
S'DDDAVP'
tp845
F1
s(S'MP'
S'MPDDP'
tp846
F15
s(g162
S'NAPPP'
tp847
F2
s(g534
S'ACDP'
tp848
F45
s(S'NP'
S'ADVADVADVNPP'
tp849
F1
s(S'VP'
S'VCCP'
tp850
F38
s(S'AP'
S'AAAAVP'
tp851
F1
s(S'AP'
S'ADVANP'
tp852
F1
s(S'CP'
S'CCCCDDP'
tp853
F2
s(S'NP'
p854
S'NNACP'
tp855
F4
s(S'DP'
p856
S'AAADPPP'
tp857
F2
s(S'MP'
S'MDNNP'
tp858
F7
s(g364
S'MNADVPP'
tp859
F1
s(g315
S'CDADVPPP'
tp860
F11
s(g523
S'VAP'
tp861
F360
s(S'VP'
p862
S'VVVVNP'
tp863
F4
s(g701
S'MNVVP'
tp864
F3
s(S'DP'
S'DDDPP'
tp865
F25
s(S'CP'
S'ADVCDDP'
tp866
F6
s(S'PP'
p867
S'ADVPMP'
tp868
F3
s(S'VP'
S'VADVMP'
tp869
F6
s(g29
S'PAAPP'
tp870
F2
s(S'DP'
S'DDDAAP'
tp871
F1
s(S'NP'
S'ADVADVADVANVP'
tp872
F1
s(S'CP'
S'CDDDADVADVAPP'
tp873
F1
s(S'AP'
S'ADVAAPP'
tp874
F1
s(S'AP'
p875
S'ADVADVADVAMP'
tp876
F1
s(S'AP'
S'AAVVP'
tp877
F4
s(g625
S'MNMP'
tp878
F9
s(S'MP'
S'MAVPP'
tp879
F2
s(g230
S'ADVADVVVAP'
tp880
F1
s(g709
S'DDDPPP'
tp881
F7
s(S'VP'
p882
S'ADVAVDP'
tp883
F5
s(S'DP'
S'ADAP'
tp884
F1
s(S'DP'
S'DADVDP'
tp885
F5
s(S'MP'
p886
S'MVVCCP'
tp887
F3
s(S'NP'
p888
S'ADVNADVAPP'
tp889
F1
s(g31
S'VVADVADVCCP'
tp890
F2
s(S'DP'
S'DDDAP'
tp891
F1
s(S'AP'
S'AAVP'
tp892
F28
s(S'AP'
p893
S'AAACP'
tp894
F3
s(g261
S'NAAP'
tp895
F26
s(g775
S'MVVAPP'
tp896
F1
s(g745
S'MANVP'
tp897
F1
s(g74
S'PPPVP'
tp898
F11
s(S'VP'
S'AAVAP'
tp899
F2
s(S'AP'
S'AADDP'
tp900
F6
s(S'PP'
S'PPPADVADVNP'
tp901
F1
s(S'PP'
S'PADVAVVP'
tp902
F1
s(S'NP'
S'ANNVVP'
tp903
F1
s(S'MP'
S'MADVNVP'
tp904
F4
s(g826
S'DADVAAP'
tp905
F3
s(g770
S'VAANP'
tp906
F6
s(g188
S'DDDADVDDP'
tp907
F1
s(g101
S'NADVADVCP'
tp908
F7
s(S'DP'
S'ADVADVDAAPP'
tp909
F1
s(S'CP'
S'CCAAADP'
tp910
F1
s(g573
S'MADVADVADVVNP'
tp911
F2
s(g93
S'AMPP'
tp912
F1
s(g830
S'DAAADP'
tp913
F1
s(S'NP'
S'NVVVVP'
tp914
F4
s(S'MP'
S'ADVADVADVMMVP'
tp915
F1
s(S'PP'
S'PAAAAP'
tp916
F2
s(S'DP'
S'DADVADVDP'
tp917
F2
s(S'MP'
S'AMVVP'
tp918
F1
s(S'MP'
S'MVVVPP'
tp919
F1
s(S'MP'
p920
S'MPNP'
tp921
F32
s(S'VP'
S'VVAADP'
tp922
F1
s(S'MP'
S'MADP'
tp923
F33
s(S'PP'
S'PPPDDP'
tp924
F3
s(S'MP'
S'MVAADP'
tp925
F1
s(g875
S'AMMP'
tp926
F10
s(S'MP'
S'MPADP'
tp927
F2
s(S'AP'
S'ADVAACCP'
tp928
F1
s(S'DP'
S'DDADVNP'
tp929
F3
s(g117
S'PANP'
tp930
F58
s(g406
S'AADNP'
tp931
F11
s(S'NP'
S'ANNMP'
tp932
F1
s(S'DP'
p933
S'DADVADVNNP'
tp934
F2
s(S'DP'
S'ADVADPP'
tp935
F6
s(S'PP'
p936
S'AAPAAP'
tp937
F1
s(S'NP'
S'AANMP'
tp938
F4
s(g253
S'ANDDDP'
tp939
F1
s(S'AP'
S'AVVP'
tp940
F23
s(g217
S'NDDP'
tp941
F55
s(S'PP'
S'APPDDP'
tp942
F1
s(g856
S'ADVADVDPPP'
tp943
F5
s(S'AP'
S'ACCP'
tp944
F15
s(S'DP'
S'ADAAP'
tp945
F1
s(g52
S'AVPPP'
tp946
F4
s(S'AP'
S'APPPP'
tp947
F2
s(g321
S'NDP'
tp948
F334
s(S'VP'
S'ADVVANP'
tp949
F2
s(S'NP'
S'NNNNVVP'
tp950
F2
s(S'MP'
S'MVAAP'
tp951
F7
s(g309
S'DDVP'
tp952
F82
s(S'NP'
S'ADVADVNVVVP'
tp953
F1
s(g507
S'VVMMMP'
tp954
F1
s(g427
S'MMADVVVP'
tp955
F1
s(g162
S'AANVP'
tp956
F11
s(S'MP'
S'ADVADVMAP'
tp957
F1
s(S'DP'
S'DADVADVAPP'
tp958
F1
s(S'DP'
S'DADVACP'
tp959
F1
s(S'VP'
p960
S'VNNNP'
tp961
F14
s(S'NP'
S'NNNNCP'
tp962
F1
s(S'VP'
S'VADVADVPP'
tp963
F1
s(g213
S'ADVPAP'
tp964
F7
s(S'MP'
S'MPADVDP'
tp965
F1
s(S'PP'
S'APADVDP'
tp966
F1
s(S'PP'
p967
S'PCP'
tp968
F60
s(g101
S'NNPPP'
tp969
F21
s(S'MP'
p970
S'AMDDP'
tp971
F2
s(S'PP'
S'PAADP'
tp972
F4
s(S'NP'
S'ADVNNVP'
tp973
F6
s(g99
S'NADVCCP'
tp974
F2
s(S'NP'
S'ADVANVVP'
tp975
F2
s(S'VP'
S'VPPPP'
tp976
F9
s(S'PP'
p977
S'PPPVVP'
tp978
F4
s(S'PP'
S'PACP'
tp979
F3
s(g544
S'MPAP'
tp980
F6
s(S'NP'
S'NNNDP'
tp981
F1
s(S'AP'
S'AAAVVP'
tp982
F1
s(S'MP'
S'AAMVVVP'
tp983
F1
s(S'MP'
S'MANCP'
tp984
F1
s(S'AP'
S'ADVACP'
tp985
F13
s(S'NP'
S'ADVADVNMP'
tp986
F1
s(g470
S'DDDADVVP'
tp987
F1
s(g326
S'AVVDP'
tp988
F1
s(S'VP'
p989
S'ADVADVAVDP'
tp990
F1
s(g389
S'ADPPP'
tp991
F19
s(S'PP'
S'PPPAADP'
tp992
F2
s(S'MP'
S'MAADVADVCP'
tp993
F1
s(S'MP'
S'MVCP'
tp994
F34
s(S'DP'
p995
S'ADVADVDDVP'
tp996
F1
s(S'CP'
p997
S'CCDDP'
tp998
F36
s(S'NP'
S'NNADVVP'
tp999
F7
s(S'VP'
p1000
S'VVADVADVAP'
tp1001
F2
s(S'NP'
S'AANNDP'
tp1002
F1
s(S'VP'
S'ADVADVADVVPP'
tp1003
F2
s(S'DP'
S'DDADP'
tp1004
F1
s(S'DP'
S'DADVADVADVVVP'
tp1005
F1
s(S'MP'
S'MVMP'
tp1006
F11
s(g788
S'AAADNP'
tp1007
F2
s(S'VP'
S'VAMP'
tp1008
F3
s(S'PP'
S'PPAAP'
tp1009
F12
s(g288
S'NAAMP'
tp1010
F1
s(g450
S'NNNNVP'
tp1011
F5
s(g41
S'VVCP'
tp1012
F48
s(S'MP'
S'MVAANP'
tp1013
F1
s(S'VP'
S'AVVMP'
tp1014
F1
s(S'NP'
S'AANCP'
tp1015
F6
s(g238
S'VADVNP'
tp1016
F21
s(S'VP'
p1017
S'VVDDDP'
tp1018
F5
s(S'AP'
S'ADVAVVP'
tp1019
F5
s(S'MP'
S'MDCP'
tp1020
F3
s(S'CP'
S'CCCDDDDP'
tp1021
F1
s(g797
S'MVDP'
tp1022
F93
s(g842
S'AVVPP'
tp1023
F1
s(g253
S'NNDDP'
tp1024
F12
s(S'VP'
S'ADVADVADVVMP'
tp1025
F1
s(S'PP'
S'PPADP'
tp1026
F4
s(S'DP'
S'DDDDPPP'
tp1027
F3
s(g324
S'MNNPP'
tp1028
F1
s(S'VP'
S'ADVVPP'
tp1029
F16
s(S'VP'
S'ADVVVPPP'
tp1030
F1
s(S'AP'
S'AAAADDP'
tp1031
F1
s(S'CP'
S'CDAPPP'
tp1032
F3
s(g523
S'VNNP'
tp1033
F134
s(S'AP'
S'AADVDP'
tp1034
F16
s(S'AP'
S'AAAMP'
tp1035
F5
s(S'NP'
p1036
S'NADP'
tp1037
F10
s(S'CP'
S'ADVCCDDP'
tp1038
F1
s(S'DP'
S'ADCP'
tp1039
F2
s(g559
S'DDNP'
tp1040
F188
s(S'NP'
S'NADVNP'
tp1041
F1
s(S'NP'
S'NADVCP'
tp1042
F39
s(S'DP'
S'DDNNP'
tp1043
F40
s(S'PP'
S'AAPPP'
tp1044
F3
s(S'VP'
S'VVVVPPP'
tp1045
F1
s(g668
S'PADVADVVVP'
tp1046
F1
s(g628
S'ADVANVP'
tp1047
F4
s(S'AP'
S'AADVADP'
tp1048
F1
s(S'MP'
S'MNVVVP'
tp1049
F2
s(S'NP'
S'ADVADVNCP'
tp1050
F5
s(S'AP'
S'ADVADDP'
tp1051
F1
s(S'VP'
S'ADVVAAAAP'
tp1052
F1
s(g800
S'AAMDDP'
tp1053
F1
s(g8
S'AADPP'
tp1054
F19
s(S'NP'
S'AAAANVVP'
tp1055
F1
s(S'PP'
S'APPNP'
tp1056
F1
s(S'DP'
S'DADVADVANP'
tp1057
F2
s(g192
S'ADVADVPPDP'
tp1058
F2
s(g854
S'NNNNADVADVVVP'
tp1059
F1
s(S'PP'
S'ADVPCCP'
tp1060
F1
s(S'AP'
S'AAMMP'
tp1061
F2
s(S'AP'
S'AADVADVVP'
tp1062
F1
s(S'VP'
S'VADVADVADVADVNP'
tp1063
F1
s(S'CP'
S'ACDDDDP'
tp1064
F1
s(S'MP'
p1065
S'MPPAP'
tp1066
F1
s(S'NP'
S'ANVVVP'
tp1067
F2
s(g693
S'DADVADVAP'
tp1068
F2
s(g386
S'MADVVADVADVNP'
tp1069
F1
s(g427
S'MVVNP'
tp1070
F13
s(S'NP'
S'NNADVADVADVVVP'
tp1071
F1
s(S'CP'
S'CAAADDPP'
tp1072
F1
s(S'PP'
S'ADVAPVP'
tp1073
F3
s(S'DP'
S'ADVDNNP'
tp1074
F2
s(S'MP'
S'MADVADVCDP'
tp1075
F1
s(S'CP'
S'ACDDP'
tp1076
F9
s(S'NP'
p1077
S'ADVADVNNCP'
tp1078
F5
s(S'PP'
S'PPPPDDP'
tp1079
F1
s(S'AP'
S'AAPP'
tp1080
F35
s(S'AP'
S'ADVADVACCP'
tp1081
F1
s(S'VP'
S'VVCCP'
tp1082
F12
s(g997
S'CADVADVDAAPP'
tp1083
F1
s(g590
S'AAADVDP'
tp1084
F1
s(S'DP'
S'DADVVVP'
tp1085
F2
s(S'DP'
S'DADVADVNP'
tp1086
F6
s(g156
S'MPPVP'
tp1087
F1
s(g41
S'VADVADP'
tp1088
F3
s(S'MP'
S'MDADVVP'
tp1089
F1
s(S'AP'
S'ADVANNP'
tp1090
F1
s(S'DP'
S'DDPPPPPP'
tp1091
F1
s(g321
S'NAPP'
tp1092
F34
s(g74
S'APPVP'
tp1093
F2
s(S'AP'
S'ADVADVADP'
tp1094
F1
s(S'AP'
S'ADVAAVP'
tp1095
F2
s(S'MP'
S'MPADVNP'
tp1096
F1
s(g862
S'VVVCP'
tp1097
F4
s(S'PP'
p1098
S'APDDDP'
tp1099
F4
s(g989
S'VVPPPPP'
tp1100
F1
s(S'PP'
S'PADVAPP'
tp1101
F1
s(S'NP'
p1102
S'ANCCP'
tp1103
F21
s(g27
S'AANPP'
tp1104
F5
s(g649
S'VDDDP'
tp1105
F7
s(g448
S'NNMP'
tp1106
F57
s(S'PP'
S'ADVPANNP'
tp1107
F1
s(S'DP'
p1108
S'DDDVP'
tp1109
F10
s(S'VP'
S'AAVPP'
tp1110
F1
s(S'MP'
S'MADVNMMP'
tp1111
F1
s(S'NP'
p1112
S'ADVNADVADVVVVP'
tp1113
F1
s(S'DP'
S'DDADVVVP'
tp1114
F1
s(S'MP'
S'MNAMP'
tp1115
F1
s(S'CP'
S'CADDPP'
tp1116
F2
s(g488
S'MAPDP'
tp1117
F2
s(g113
S'PAAAP'
tp1118
F4
s(S'PP'
S'ADVADVPNP'
tp1119
F8
s(g41
S'VVVDDP'
tp1120
F1
s(S'CP'
S'CADVADVDDPPP'
tp1121
F1
s(g311
S'CDDAPP'
tp1122
F2
s(g15
S'VVVPPP'
tp1123
F2
s(g217
S'ANAP'
tp1124
F7
s(S'DP'
S'DDNNNP'
tp1125
F1
s(g580
S'VADVADVANP'
tp1126
F1
s(S'VP'
S'VADVADVDDP'
tp1127
F1
s(g74
S'PVP'
tp1128
F557
s(g804
S'VADVPPP'
tp1129
F3
s(S'DP'
S'DADVAVP'
tp1130
F3
s(S'PP'
S'ADVAPAAP'
tp1131
F1
s(S'AP'
S'ADVADVAPP'
tp1132
F1
s(g886
S'AAMVP'
tp1133
F1
s(S'AP'
S'AAVVVP'
tp1134
F1
s(g695
S'VADVCCP'
tp1135
F4
s(g133
S'ACDDDP'
tp1136
F1
s(S'AP'
S'AADVDDP'
tp1137
F3
s(S'AP'
S'ADVAACP'
tp1138
F2
s(S'NP'
S'ADVNAVP'
tp1139
F1
s(g542
S'DVVVP'
tp1140
F9
s(g115
S'PPADVPP'
tp1141
F3
s(g107
S'ADVNNAP'
tp1142
F1
s(S'VP'
S'ADVADVVVVNNP'
tp1143
F1
s(S'VP'
S'VCCCCP'
tp1144
F1
s(S'MP'
S'MAADVDP'
tp1145
F1
s(S'NP'
S'ADVADVADVNVP'
tp1146
F2
s(g253
S'ADVADVANVP'
tp1147
F1
s(S'PP'
S'AAPPPP'
tp1148
F1
s(g477
S'NNADVADVPPP'
tp1149
F2
s(g13
S'PPDDP'
tp1150
F27
s(S'VP'
S'AVCP'
tp1151
F12
s(g1108
S'DDVVVP'
tp1152
F1
s(g800
S'MPPNNP'
tp1153
F1
s(g23
S'DPP'
tp1154
F684
s(S'DP'
S'ADVVP'
tp1155
F2
s(g224
S'ADVNVP'
tp1156
F31
s(S'DP'
S'DDDVVP'
tp1157
F1
s(g415
S'MPANNP'
tp1158
F1
s(g661
S'DDPP'
tp1159
F267
s(S'DP'
S'DDADVPPP'
tp1160
F2
s(S'MP'
S'MNNVVVVP'
tp1161
F1
s(g530
S'DANP'
tp1162
F129
s(g736
S'ADVAMP'
tp1163
F8
s(g101
S'NADVPP'
tp1164
F19
s(S'NP'
S'NNADVADVPP'
tp1165
F1
s(S'PP'
S'ADVADVPPNP'
tp1166
F1
s(S'MP'
S'MAACDP'
tp1167
F1
s(S'NP'
S'NADVADP'
tp1168
F2
s(g499
S'ADVADVADVADVVVDP'
tp1169
F1
s(S'NP'
S'NAAVP'
tp1170
F8
s(S'DP'
S'ADVADVADPP'
tp1171
F1
s(g36
S'ADNNNP'
tp1172
F2
s(S'MP'
S'MADVADVAVP'
tp1173
F1
s(S'PP'
p1174
S'PDDDP'
tp1175
F14
s(S'CP'
S'CADVADVADVDPP'
tp1176
F1
s(S'AP'
S'AAAAPP'
tp1177
F2
s(S'VP'
S'VADVCP'
tp1178
F14
s(S'DP'
S'AADADVAP'
tp1179
F1
s(S'PP'
S'PAVVP'
tp1180
F2
s(S'AP'
S'AAAAP'
tp1181
F2
s(S'VP'
S'ADVVAADP'
tp1182
F1
s(g324
S'MDNP'
tp1183
F59
s(g856
S'ADVDAAP'
tp1184
F1
s(S'VP'
S'ADVAVAP'
tp1185
F2
s(S'NP'
S'NNNVVP'
tp1186
F3
s(S'VP'
S'AVADVNP'
tp1187
F1
s(S'NP'
S'ADVNMMP'
tp1188
F1
s(g199
S'ADVPADVADVVP'
tp1189
F1
s(S'DP'
p1190
S'DCCP'
tp1191
F8
s(S'PP'
S'ADVADVPPP'
tp1192
F1
s(S'DP'
S'ADAPPP'
tp1193
F1
s(S'PP'
S'PPPPNP'
tp1194
F3
s(g867
S'AAPDP'
tp1195
F6
s(g573
S'MADVVDP'
tp1196
F10
s(S'DP'
S'DDADVNNP'
tp1197
F1
s(g933
S'DADVAP'
tp1198
F10
s(g69
S'PDDP'
tp1199
F166
s(S'PP'
S'APADVAP'
tp1200
F1
s(S'MP'
S'MVDDP'
tp1201
F7
s(S'PP'
S'PCCP'
tp1202
F6
s(S'PP'
S'ADVAPNP'
tp1203
F2
s(S'NP'
S'NNNADVPP'
tp1204
F1
s(S'CP'
S'ADVADVCCADDP'
tp1205
F1
s(g450
S'NNVP'
tp1206
F189
s(S'DP'
S'DADVADVADVANP'
tp1207
F1
s(S'AP'
S'AADVADVCP'
tp1208
F1
s(S'AP'
S'ADVADVACP'
tp1209
F2
s(S'NP'
S'NNP'
tp1210
F11
s(g151
S'VVDDP'
tp1211
F32
s(g661
S'DAANP'
tp1212
F21
s(S'MP'
S'MADDP'
tp1213
F6
s(S'NP'
S'NNADVADVADVADVVVP'
tp1214
F1
s(S'AP'
S'ADDP'
tp1215
F58
s(g396
S'VADVADVMP'
tp1216
F2
s(g603
S'PNNNNP'
tp1217
F1
s(S'MP'
S'MDPPP'
tp1218
F1
s(S'VP'
S'ADVVVAP'
tp1219
F2
s(g394
S'ADVPPNP'
tp1220
F9
s(g537
S'VADVADVADVVP'
tp1221
F1
s(S'NP'
S'ADVADVNVVP'
tp1222
F1
s(S'MP'
S'MVVVAAAP'
tp1223
F1
s(S'MP'
S'MADVNPP'
tp1224
F1
s(S'NP'
S'ADVADVNNMP'
tp1225
F1
s(g488
S'MDAP'
tp1226
F10
s(S'CP'
S'CADVADVDPP'
tp1227
F12
s(S'CP'
S'ADVADVADVCDP'
tp1228
F2
s(g309
S'DPPP'
tp1229
F259
s(S'NP'
S'NNPPPP'
tp1230
F1
s(S'PP'
S'ADVADVADVAPAP'
tp1231
F1
s(S'NP'
S'ADVNAAVP'
tp1232
F1
s(S'DP'
S'AADPPP'
tp1233
F1
s(S'VP'
S'VANNP'
tp1234
F3
s(g610
S'NNAVP'
tp1235
F3
s(S'NP'
S'NNAAPP'
tp1236
F1
s(g888
S'NMMMP'
tp1237
F2
s(S'PP'
S'PPPANP'
tp1238
F1
s(S'DP'
S'AADCP'
tp1239
F1
s(S'NP'
S'NNNADVVVP'
tp1240
F1
s(S'MP'
S'MMADVADVAVP'
tp1241
F1
s(g13
S'ADVPNP'
tp1242
F37
s(g74
S'PPDP'
tp1243
F139
s(S'MP'
S'MNADVVVP'
tp1244
F1
s(S'VP'
S'AAVADVPPP'
tp1245
F1
s(S'MP'
S'MAVDP'
tp1246
F5
s(S'VP'
S'VVVAAANP'
tp1247
F1
s(S'DP'
S'ADVDCP'
tp1248
F2
s(S'DP'
p1249
S'DDPPPP'
tp1250
F6
s(S'PP'
S'PPPAAP'
tp1251
F1
s(S'CP'
S'CADVDPPPPP'
tp1252
F1
s(S'MP'
p1253
S'ADVADVMMNP'
tp1254
F1
s(S'NP'
S'NADVADVADVPP'
tp1255
F2
s(S'AP'
S'AAPPP'
tp1256
F6
s(S'NP'
S'ADVNAPP'
tp1257
F1
s(S'DP'
S'DDCP'
tp1258
F7
s(S'CP'
S'CADADVADVPP'
tp1259
F1
s(S'VP'
S'VVADVAVP'
tp1260
F1
s(S'NP'
S'ANADVADVVP'
tp1261
F1
s(g396
S'VMMMP'
tp1262
F1
s(S'PP'
S'PPADVDDP'
tp1263
F2
s(S'AP'
S'AAAPP'
tp1264
F4
s(S'AP'
S'ADVADVAADP'
tp1265
F1
s(S'MP'
S'MNCCP'
tp1266
F4
s(S'NP'
S'NNADVADP'
tp1267
F1
s(S'DP'
S'ADVDADVNP'
tp1268
F1
s(g162
S'NAP'
tp1269
F184
s(S'NP'
S'NNAAP'
tp1270
F7
s(g358
S'AADDP'
tp1271
F1
s(g454
S'VAAAP'
tp1272
F10
s(S'VP'
S'ADVAVNP'
tp1273
F2
s(S'MP'
S'MAADDP'
tp1274
F1
s(S'VP'
p1275
S'VVP'
tp1276
F108
s(g494
S'DADVNP'
tp1277
F38
s(g69
S'ADVADVPVP'
tp1278
F6
s(g920
S'MAPP'
tp1279
F1
s(g1174
S'APNP'
tp1280
F35
s(S'VP'
S'VVVNNP'
tp1281
F5
s(g546
S'DDVVP'
tp1282
F20
s(S'AP'
S'AAADDP'
tp1283
F1
s(S'VP'
S'VVVNP'
tp1284
F16
s(g1253
S'MNPP'
tp1285
F16
s(S'NP'
S'NAMP'
tp1286
F8
s(S'MP'
S'MVANP'
tp1287
F6
s(S'VP'
S'VADVADVCP'
tp1288
F1
s(g168
S'ADVADVDDPP'
tp1289
F4
s(g970
S'MVNNP'
tp1290
F17
s(S'AP'
S'AAADVPP'
tp1291
F1
s(S'CP'
p1292
S'CDPP'
tp1293
F625
s(S'MP'
S'MVVNNP'
tp1294
F2
s(S'AP'
S'ADDDP'
tp1295
F2
s(S'PP'
S'PDDDDDP'
tp1296
F1
s(g561
S'NNDP'
tp1297
F39
s(S'MP'
S'MMMVP'
tp1298
F4
s(S'AP'
S'AAAMMP'
tp1299
F1
s(g226
S'ADADVADVPP'
tp1300
F1
s(S'CP'
S'ADVCDP'
tp1301
F54
s(S'PP'
S'PPADVADVADVADVNP'
tp1302
F1
s(S'VP'
S'ADVADVVNP'
tp1303
F7
s(g800
S'MADVPCP'
tp1304
F1
s(S'DP'
S'AAADDPP'
tp1305
F1
s(S'MP'
S'MNDDP'
tp1306
F2
s(g622
S'ADVACDP'
tp1307
F6
s(S'VP'
S'ADVADVVCP'
tp1308
F4
s(g1275
S'VADVADVDP'
tp1309
F7
s(g71
S'PPNNP'
tp1310
F30
s(S'CP'
S'CDAAAPP'
tp1311
F1
s(S'MP'
S'MPPNP'
tp1312
F2
s(S'PP'
S'PADVCP'
tp1313
F1
s(S'AP'
S'ADVACCP'
tp1314
F1
s(g967
S'PPMP'
tp1315
F10
s(S'CP'
S'CAADDPP'
tp1316
F1
s(g693
S'ADVADVDPP'
tp1317
F18
s(S'VP'
S'VVVDDDDP'
tp1318
F1
s(g384
S'MMADVADVVP'
tp1319
F1
s(S'NP'
S'NADVAP'
tp1320
F17
s(g882
S'AVDDP'
tp1321
F7
s(S'PP'
S'ADVADVPPNNP'
tp1322
F1
s(S'CP'
S'ADVADVCDDP'
tp1323
F2
s(g1190
S'DDCCP'
tp1324
F2
s(g23
S'DAP'
tp1325
F118
s(S'PP'
S'ADVAPPP'
tp1326
F2
s(g1292
S'CADPP'
tp1327
F60
s(S'NP'
S'NADVAVP'
tp1328
F1
s(S'PP'
S'PADVMP'
tp1329
F5
s(S'NP'
S'ADVADVANAP'
tp1330
F1
s(S'NP'
S'NNVVVP'
tp1331
F4
s(S'PP'
S'PAAAANP'
tp1332
F1
s(g176
S'ADVADVVCCP'
tp1333
F1
s(g580
S'AVPP'
tp1334
F24
s(g815
S'NADVADVMP'
tp1335
F2
s(S'CP'
S'CAADPPP'
tp1336
F1
s(g309
S'DDNNNNP'
tp1337
F1
s(S'MP'
S'AMNP'
tp1338
F2
s(g396
S'VVADVDP'
tp1339
F7
s(S'PP'
S'PPADVADVDDP'
tp1340
F1
s(g236
S'MVADVADVNP'
tp1341
F1
s(S'CP'
S'CDPPPP'
tp1342
F16
s(g360
S'ADVNMP'
tp1343
F9
s(S'VP'
S'AAVDP'
tp1344
F11
s(S'DP'
S'AADNNP'
tp1345
F2
s(g740
S'PANNP'
tp1346
F4
s(g347
S'ADVANMP'
tp1347
F2
s(g1098
S'APPP'
tp1348
F19
s(g358
S'ADPPPP'
tp1349
F1
s(g1249
S'DAPPP'
tp1350
F3
s(S'DP'
S'DADVADVPP'
tp1351
F13
s(S'NP'
p1352
S'AANVVP'
tp1353
F7
s(g559
S'ADVDPP'
tp1354
F73
s(S'NP'
S'NADVAPP'
tp1355
F2
s(S'PP'
S'APADVPP'
tp1356
F2
s(g763
S'PPAANP'
tp1357
F1
s(g603
S'PADVADVNP'
tp1358
F3
s(S'NP'
S'NNNP'
tp1359
F2
s(g716
S'AADP'
tp1360
F100
s(S'NP'
S'ADVADVNNAP'
tp1361
F1
s(S'NP'
S'NNADVVVP'
tp1362
F1
s(S'VP'
S'VVVCCCP'
tp1363
F1
s(S'VP'
S'VADVPP'
tp1364
F10
s(g1017
S'VADVADVNNP'
tp1365
F1
s(S'DP'
S'ADVDANP'
tp1366
F1
s(g763
S'ADVPVP'
tp1367
F28
s(g1352
S'NADVADVADVVVP'
tp1368
F7
s(g168
S'ADMP'
tp1369
F1
s(S'AP'
S'ADVADVAVP'
tp1370
F2
s(S'MP'
S'ADVMVVP'
tp1371
F1
s(g300
S'NNDDDP'
tp1372
F3
s(S'PP'
S'PADVADVADVNP'
tp1373
F3
s(S'NP'
S'NADVADVADVADVVVP'
tp1374
F2
s(S'VP'
S'ADVADVVAANP'
tp1375
F1
s(g977
S'PAMP'
tp1376
F4
s(S'PP'
S'ADVPDP'
tp1377
F21
s(S'VP'
S'VVNNNNP'
tp1378
F1
s(S'NP'
S'ANADVDP'
tp1379
F1
s(g1036
S'ANNPP'
tp1380
F6
s(S'AP'
S'ADVAAMP'
tp1381
F1
s(g425
S'MVADVAP'
tp1382
F3
s(g321
S'NCP'
tp1383
F549
s(S'VP'
S'ADVADVVVPP'
tp1384
F1
s(S'CP'
S'CADVDPPP'
tp1385
F2
s(S'VP'
p1386
S'ADVVVPP'
tp1387
F6
s(S'NP'
S'NAAPP'
tp1388
F2
s(S'PP'
S'AAAPNP'
tp1389
F1
s(S'AP'
S'AAAADP'
tp1390
F2
s(g1102
S'ADVANDP'
tp1391
F1
s(S'AP'
S'AAAP'
tp1392
F1
s(S'CP'
S'CDDADVADVPP'
tp1393
F2
s(S'VP'
S'VAADP'
tp1394
F11
s(g1065
S'MNADVADVADVADVVVP'
tp1395
F1
s(S'AP'
S'AAMP'
tp1396
F15
s(g794
S'PPAAAP'
tp1397
F2
s(S'PP'
S'ADVPDDP'
tp1398
F1
s(g791
S'AANDP'
tp1399
F4
s(S'VP'
S'VADVADVADVMMP'
tp1400
F1
s(g384
S'MVCCP'
tp1401
F3
s(g210
S'DADVNNP'
tp1402
F4
s(S'NP'
S'NNCCP'
tp1403
F22
s(S'MP'
S'MNVP'
tp1404
F25
s(S'NP'
S'AANAP'
tp1405
F1
s(S'CP'
S'ADVADVCCDP'
tp1406
F1
s(S'MP'
S'AMPPP'
tp1407
F1
s(g960
S'VAPP'
tp1408
F20
s(S'NP'
S'NPPPPP'
tp1409
F1
s(S'MP'
S'MADVVANP'
tp1410
F1
s(g255
S'ADVVDP'
tp1411
F30
s(g893
S'ADDDDP'
tp1412
F1
s(S'VP'
S'VADDP'
tp1413
F1
s(S'VP'
S'VADVADVADVCP'
tp1414
F1
s(g995
S'DDAAAP'
tp1415
F1
s(g337
S'DADVPP'
tp1416
F60
s(S'AP'
S'AMP'
tp1417
F111
s(S'CP'
S'CCADP'
tp1418
F5
s(g561
S'ADVNNCP'
tp1419
F5
s(S'DP'
S'ADVDAP'
tp1420
F4
s(S'PP'
S'ADVADVADVPNP'
tp1421
F2
s(S'NP'
S'NNNPPP'
tp1422
F1
s(S'AP'
S'ADVAPP'
tp1423
F23
s(S'PP'
S'ADVADVPVVP'
tp1424
F2
s(S'PP'
S'ADVPPVVP'
tp1425
F2
s(S'DP'
S'ADVDAVP'
tp1426
F2
s(S'MP'
S'MNADVADVVP'
tp1427
F1
s(S'CP'
S'AACDP'
tp1428
F9
s(S'CP'
S'CCDDDP'
tp1429
F4
s(S'MP'
S'MADVADVVNNP'
tp1430
F1
s(g277
S'DDDDAPP'
tp1431
F1
s(S'DP'
S'ADVDPPP'
tp1432
F4
s(g23
S'DVP'
tp1433
F505
s(g1386
S'AVNNP'
tp1434
F5
s(S'NP'
S'ADVNPP'
tp1435
F11
s(g770
S'ADVADVADVVVNP'
tp1436
F5
s(g1017
S'VVAMP'
tp1437
F1
s(S'NP'
S'NNCCCP'
tp1438
F3
s(g936
S'PADVADVDDP'
tp1439
F1
s(g736
S'AVP'
tp1440
F114
s(S'NP'
S'NADVVP'
tp1441
F43
s(S'NP'
S'NNADVADVVP'
tp1442
F4
s(S'VP'
S'ADVVPPP'
tp1443
F1
s(g661
S'DDPPP'
tp1444
F50
s(g1112
S'NNNMMP'
tp1445
F1
s(g329
S'MDAANP'
tp1446
F2
s(g1077
S'NNAP'
tp1447
F27
s(g257
S'MADVVCP'
tp1448
F1
s(g750
S'PPANP'
tp1449
F8
s(S'DP'
S'ADVDPPPPP'
tp1450
F1
s(S'MP'
S'MCDDP'
tp1451
F5
s(S'VP'
S'AVADVADVPP'
tp1452
F1
s(S'PP'
S'PPCCP'
tp1453
F1
s(S'CP'
S'CDADVPP'
tp1454
F45
s(g326
S'VNP'
tp1455
F552
s(S'PP'
S'ADVPMMP'
tp1456
F1
s(g454
S'VANP'
tp1457
F50
s(S'PP'
S'PADVPPP'
tp1458
F2
s(g326
S'VADVAP'
tp1459
F33
s(S'PP'
S'PADVADVAVP'
tp1460
F1
s(S'PP'
S'ADVADVAPVVP'
tp1461
F1
s(S'CP'
S'ACCDP'
tp1462
F1
s(S'PP'
S'PPADVNP'
tp1463
F5
s(g1000
S'VVVAP'
tp1464
F3
s(S'DP'
S'DDDDVP'
tp1465
F1
s(g649
S'ADVADVVVDP'
tp1466
F5
s(g724
S'NADVPPP'
tp1467
F3
s.