ccollections
defaultdict
p1
(c__builtin__
float
p2
tRp3
(S'DP'
p4
S'DDPP'
tp5
F1
s(S'DP'
p6
S'DANP'
tp7
F3
s(S'NP'
p8
S'ANPP'
tp9
F1
s(S'PP'
p10
S'PPPPP'
tp11
F2
s(S'PP'
p12
S'PPVP'
tp13
F1
s(S'DP'
p14
S'DDAP'
tp15
F1
s(g6
S'ADDP'
tp16
F1
s(S'VP'
p17
S'VAAP'
tp18
F1
s(S'PP'
p19
S'PADVNP'
tp20
F1
s(S'NP'
p21
S'NVVP'
tp22
F1
s(S'DP'
p23
S'DNP'
tp24
F8
s(S'VP'
p25
S'VMP'
tp26
F1
s(S'CP'
S'CDPPP'
tp27
F2
s(S'CP'
S'CADVADPP'
tp28
F1
s(g4
S'ADNP'
tp29
F1
s(g14
S'DAAP'
tp30
F1
s(S'PP'
p31
S'AAPDP'
tp32
F1
s(S'CP'
p33
S'CCCCDP'
tp34
F1
s(S'PP'
p35
S'PDDP'
tp36
F1
s(S'CP'
S'ACDP'
tp37
F2
s(S'VP'
p38
S'VAP'
tp39
F2
s(g12
S'PPPP'
tp40
F1
s(S'DP'
p41
S'ADVADPP'
tp42
F1
s(g25
S'ADVADVVDP'
tp43
F1
s(g6
S'DADVVP'
tp44
F1
s(S'MP'
S'MVCP'
tp45
F1
s(S'DP'
p46
S'DPPP'
tp47
F3
s(S'VP'
S'VCP'
tp48
F3
s(g35
S'PPDP'
tp49
F2
s(S'MP'
S'MAVDP'
tp50
F1
s(S'PP'
S'PPADVDP'
tp51
F1
s(S'PP'
p52
S'PNP'
tp53
F7
s(S'DP'
S'DDP'
tp54
F3
s(S'MP'
S'MVVPPP'
tp55
F1
s(S'NP'
p56
S'NAAP'
tp57
F1
s(S'CP'
p58
S'CCDP'
tp59
F1
s(S'NP'
p60
S'NMP'
tp61
F3
s(g12
S'PADVADVADVADVNP'
tp62
F1
s(S'NP'
p63
S'NDP'
tp64
F3
s(g19
S'PVP'
tp65
F3
s(S'VP'
S'VVP'
tp66
F1
s(g52
S'PDP'
tp67
F7
s(S'AP'
S'AAADP'
tp68
F1
s(S'AP'
p69
S'AACCP'
tp70
F1
s(g52
S'PPP'
tp71
F5
s(S'NP'
p72
S'ADVADVADVADVNCP'
tp73
F1
s(g41
S'ADVDVP'
tp74
F1
s(S'NP'
S'NAAAP'
tp75
F1
s(g46
S'ADVADVDNP'
tp76
F1
s(g38
S'VPP'
tp77
F1
s(g63
S'NACP'
tp78
F2
s(g33
S'ADVCDP'
tp79
F1
s(g72
S'NNCP'
tp80
F1
s(g8
S'NADVADVVP'
tp81
F1
s(S'VP'
S'VADVADVDP'
tp82
F1
s(g58
S'CCDDP'
tp83
F1
s(g35
S'PVVP'
tp84
F1
s(S'VP'
p85
S'AVNP'
tp86
F2
s(S'VP'
p87
S'VVADP'
tp88
F1
s(S'VP'
p89
S'VADVNP'
tp90
F1
s(g21
S'ADVNDDP'
tp91
F1
s(g17
S'VVPPP'
tp92
F2
s(g10
S'PPAVP'
tp93
F1
s(g87
S'VDP'
tp94
F3
s(g6
S'DVVP'
tp95
F1
s(g38
S'VNNP'
tp96
F1
s(S'CP'
S'CADVDPP'
tp97
F1
s(S'NP'
S'NADP'
tp98
F1
s(g60
S'NCCCCP'
tp99
F1
s(g60
S'NADVCP'
tp100
F1
s(g72
S'ANCP'
tp101
F1
s(S'DP'
S'ADVDPP'
tp102
F1
s(g6
S'ADPP'
tp103
F1
s(g6
S'DDDP'
tp104
F1
s(g89
S'VVDP'
tp105
F1
s(g35
S'ADVPDP'
tp106
F1
s(S'NP'
p107
S'NCP'
tp108
F7
s(g31
S'PPNP'
tp109
F1
s(S'AP'
S'AAPP'
tp110
F1
s(S'AP'
S'AADP'
tp111
F1
s(g69
S'ADP'
tp112
F2
s(g87
S'ADVVDP'
tp113
F2
s(g4
S'DADVPP'
tp114
F1
s(g56
S'ANCCP'
tp115
F1
s(S'CP'
S'CCADP'
tp116
F1
s(g85
S'AVDP'
tp117
F1
s(S'PP'
S'PPADVNP'
tp118
F1
s(g46
S'DVP'
tp119
F3
s(S'MP'
S'MVNP'
tp120
F1
s(S'AP'
S'AVP'
tp121
F1
s(g72
S'NADVVP'
tp122
F1
s(g52
S'PAVP'
tp123
F1
s(g6
S'DDPPP'
tp124
F2
s(g60
S'NPP'
tp125
F6
s(g60
S'NVP'
tp126
F6
s(g21
S'NAAPP'
tp127
F1
s(g85
S'VNP'
tp128
F6
s(g33
S'CDPP'
tp129
F9
s(g23
S'DPP'
tp130
F9
s(g107
S'ADVNVP'
tp131
F2
s.