ccollections
defaultdict
p1
(c__builtin__
float
p2
tRp3
(S'DP'
p4
S'DDAP'
tp5
F1
s(S'VP'
S'ADVVVNP'
tp6
F1
s(S'PP'
S'PAPP'
tp7
F2
s(S'PP'
p8
S'PADVNP'
tp9
F3
s(S'DP'
p10
S'DNP'
tp11
F84
s(S'NP'
S'ADVNDP'
tp12
F1
s(S'CP'
S'CDPPP'
tp13
F22
s(S'VP'
p14
S'VADP'
tp15
F9
s(S'DP'
S'DAAP'
tp16
F5
s(S'PP'
p17
S'PPPPPP'
tp18
F1
s(S'VP'
p19
S'VADVADVADVAP'
tp20
F1
s(S'VP'
S'VAVP'
tp21
F1
s(S'VP'
S'ADVADVADVVVPP'
tp22
F2
s(S'DP'
p23
S'DAADP'
tp24
F1
s(S'DP'
S'ADNNP'
tp25
F2
s(S'MP'
S'MDVP'
tp26
F1
s(S'VP'
S'ADVVNP'
tp27
F4
s(S'MP'
p28
S'MVDP'
tp29
F3
s(S'PP'
p30
S'PPPP'
tp31
F16
s(S'DP'
p32
S'DDDNP'
tp33
F1
s(S'VP'
S'VACP'
tp34
F1
s(S'AP'
p35
S'AAAVP'
tp36
F1
s(S'VP'
p37
S'VVVAAAP'
tp38
F1
s(S'DP'
p39
S'DADVVP'
tp40
F5
s(S'PP'
p41
S'PADVNNP'
tp42
F1
s(S'NP'
p43
S'NADVVVP'
tp44
F3
s(S'VP'
p45
S'VCP'
tp46
F24
s(S'NP'
p47
S'NMMP'
tp48
F2
s(S'VP'
p49
S'ADVVAAP'
tp50
F1
s(S'PP'
p51
S'ADVPNNP'
tp52
F1
s(S'PP'
p53
S'PAP'
tp54
F36
s(S'VP'
p55
S'VADVADVAP'
tp56
F3
s(S'NP'
p57
S'NPPPP'
tp58
F2
s(S'PP'
p59
S'PPADVDP'
tp60
F1
s(S'PP'
p61
S'PNP'
tp62
F78
s(S'AP'
S'AADVADVDP'
tp63
F1
s(S'DP'
p64
S'DDP'
tp65
F14
s(S'NP'
p66
S'NNDP'
tp67
F9
s(S'MP'
S'MCDP'
tp68
F2
s(S'NP'
S'ANADVAP'
tp69
F1
s(S'DP'
S'DDAANP'
tp70
F1
s(S'MP'
p71
S'MNAP'
tp72
F1
s(S'NP'
p73
S'NMP'
tp74
F17
s(g61
S'PDP'
tp75
F81
s(S'CP'
S'CDADVADVPP'
tp76
F2
s(S'PP'
p77
S'PADVPP'
tp78
F2
s(S'MP'
S'MVADVANP'
tp79
F1
s(S'NP'
p80
S'ADVNACP'
tp81
F1
s(S'DP'
p82
S'DPPPP'
tp83
F1
s(S'DP'
S'DDANP'
tp84
F1
s(S'PP'
p85
S'PADVADP'
tp86
F2
s(S'NP'
p87
S'NACP'
tp88
F11
s(g43
S'NCCP'
tp89
F15
s(S'DP'
S'DADVADVVVP'
tp90
F1
s(S'AP'
S'AAAADP'
tp91
F1
s(S'NP'
p92
S'NNCP'
tp93
F18
s(S'DP'
S'ADVDDPP'
tp94
F1
s(g37
S'AVNP'
tp95
F6
s(S'PP'
p96
S'ADVPVVP'
tp97
F1
s(S'NP'
p98
S'ADVADVADVNMP'
tp99
F1
s(g96
S'ADVAPVP'
tp100
F1
s(S'CP'
S'CCCDP'
tp101
F2
s(g37
S'ADVVAP'
tp102
F5
s(S'PP'
p103
S'APDP'
tp104
F12
s(S'VP'
p105
S'VVANP'
tp106
F2
s(S'MP'
S'ADVMPP'
tp107
F1
s(S'VP'
S'VVVVDP'
tp108
F1
s(g37
S'ADVVVP'
tp109
F3
s(S'PP'
S'PAAP'
tp110
F4
s(S'DP'
p111
S'DNNP'
tp112
F24
s(S'CP'
S'CADVDDPP'
tp113
F1
s(S'NP'
S'NNNVP'
tp114
F1
s(S'PP'
S'PADVVP'
tp115
F3
s(S'DP'
S'DADVADVADVPPP'
tp116
F1
s(S'PP'
p117
S'APAP'
tp118
F2
s(S'VP'
p119
S'VVVVAAP'
tp120
F1
s(S'AP'
p121
S'ACCCP'
tp122
F1
s(g59
S'PPADP'
tp123
F1
s(S'VP'
p124
S'VVAAAANP'
tp125
F1
s(g119
S'ADVADVVMP'
tp126
F1
s(S'PP'
S'PAANP'
tp127
F1
s(g73
S'ANVP'
tp128
F3
s(g37
S'VAACP'
tp129
F1
s(S'PP'
p130
S'PAAAAAAVP'
tp131
F1
s(S'MP'
S'MVNP'
tp132
F5
s(S'PP'
S'ADVADVPANP'
tp133
F1
s(S'DP'
p134
S'ADVADNP'
tp135
F1
s(S'PP'
p136
S'PAVP'
tp137
F10
s(S'MP'
p138
S'ADVMVP'
tp139
F1
s(S'PP'
S'ADVADVPPVP'
tp140
F1
s(S'NP'
p141
S'NNNNNVVVVP'
tp142
F1
s(S'DP'
S'DADP'
tp143
F3
s(S'AP'
p144
S'ADVADP'
tp145
F2
s(S'AP'
p146
S'APP'
tp147
F25
s(g77
S'APDDP'
tp148
F1
s(S'NP'
S'ADVNAP'
tp149
F3
s(g39
S'ADVDVVVP'
tp150
F1
s(S'PP'
p151
S'APVP'
tp152
F7
s(S'MP'
S'MNNCP'
tp153
F1
s(S'MP'
S'MNCP'
tp154
F1
s(S'VP'
p155
S'VVNP'
tp156
F10
s(S'PP'
S'PPPNNP'
tp157
F1
s(g151
S'PPVP'
tp158
F18
s(S'VP'
p159
S'VADVDP'
tp160
F3
s(g159
S'VAAP'
tp161
F11
s(S'NP'
p162
S'ANDP'
tp163
F5
s(g87
S'NVVP'
tp164
F14
s(S'PP'
S'AAPVP'
tp165
F1
s(S'VP'
p166
S'VMP'
tp167
F12
s(S'VP'
p168
S'VVNNP'
tp169
F2
s(S'CP'
S'CDAPP'
tp170
F13
s(S'VP'
S'VVAAP'
tp171
F2
s(S'MP'
S'MMPP'
tp172
F1
s(S'DP'
S'ADVADVP'
tp173
F1
s(S'DP'
p174
S'ADNP'
tp175
F14
s(S'VP'
p176
S'ADVVACP'
tp177
F1
s(g53
S'PADP'
tp178
F11
s(g166
S'ADVVVCP'
tp179
F3
s(g144
S'AAADVAP'
tp180
F1
s(S'DP'
S'ADVADVDVP'
tp181
F1
s(S'DP'
p182
S'DAPP'
tp183
F22
s(S'VP'
p184
S'ADVADVVDP'
tp185
F1
s(S'PP'
p186
S'PPPDP'
tp187
F2
s(S'VP'
p188
S'VVAAANP'
tp189
F1
s(S'PP'
S'AAAPDP'
tp190
F1
s(S'MP'
S'MPANP'
tp191
F1
s(S'DP'
p192
S'ADVDNP'
tp193
F5
s(g37
S'VVPP'
tp194
F10
s(g174
S'ADVP'
tp195
F5
s(S'CP'
S'CDDPPP'
tp196
F6
s(g73
S'NNPP'
tp197
F11
s(S'MP'
S'MVVDP'
tp198
F1
s(S'DP'
p199
S'DADVPPP'
tp200
F2
s(S'PP'
S'PPVVP'
tp201
F1
s(S'DP'
S'DNNNP'
tp202
F2
s(S'MP'
p203
S'MPPDP'
tp204
F1
s(g174
S'ADVDDVP'
tp205
F2
s(g41
S'PADVADVVP'
tp206
F2
s(S'VP'
S'VADVDDP'
tp207
F1
s(S'NP'
S'AANDDDP'
tp208
F1
s(g85
S'PMP'
tp209
F2
s(S'CP'
S'CCDP'
tp210
F22
s(S'VP'
S'VADVANP'
tp211
F2
s(S'NP'
p212
S'NVVVP'
tp213
F1
s(S'CP'
p214
S'CDDDPP'
tp215
F2
s(g30
S'PPADVVP'
tp216
F2
s(S'VP'
p217
S'VVVDP'
tp218
F1
s(S'PP'
p219
S'PDDDDP'
tp220
F1
s(g53
S'PNNNP'
tp221
F2
s(S'CP'
S'CCCCDP'
tp222
F1
s(S'AP'
p223
S'AACCP'
tp224
F1
s(S'VP'
p225
S'VVMP'
tp226
F3
s(g61
S'PADVVVP'
tp227
F3
s(g85
S'PPP'
tp228
F43
s(S'NP'
p229
S'NNVVP'
tp230
F2
s(S'NP'
S'NAVP'
tp231
F3
s(S'PP'
S'PADVAP'
tp232
F1
s(S'DP'
S'ADVDVP'
tp233
F2
s(S'DP'
S'DADVADVPPP'
tp234
F1
s(S'AP'
S'AADVVP'
tp235
F2
s(S'DP'
S'ADVADVDNP'
tp236
F1
s(g223
S'AAADVCP'
tp237
F1
s(g14
S'VPP'
tp238
F43
s(S'CP'
S'ADVCCDP'
tp239
F2
s(S'DP'
p240
S'ADVDDNP'
tp241
F1
s(S'NP'
S'NNNCP'
tp242
F2
s(g30
S'PADVDP'
tp243
F3
s(S'CP'
S'CDADVAPP'
tp244
F1
s(S'MP'
S'MADVVAP'
tp245
F1
s(S'CP'
S'CDDPP'
tp246
F16
s(S'DP'
S'DAAPP'
tp247
F2
s(g85
S'PVVP'
tp248
F12
s(S'CP'
S'CADPPP'
tp249
F2
s(S'AP'
p250
S'AACP'
tp251
F4
s(g151
S'ADVPPAP'
tp252
F1
s(g155
S'VPPP'
tp253
F4
s(S'VP'
S'AVCCP'
tp254
F1
s(S'PP'
S'PPADVADVDP'
tp255
F1
s(S'PP'
S'PPAP'
tp256
F3
s(S'DP'
p257
S'DVVP'
tp258
F14
s(S'NP'
S'ANMP'
tp259
F2
s(g250
S'APPP'
tp260
F2
s(S'PP'
S'ADVPPP'
tp261
F2
s(S'NP'
S'ADVADVNVP'
tp262
F1
s(S'VP'
S'VVVP'
tp263
F3
s(S'CP'
p264
S'CADVDPP'
tp265
F5
s(S'NP'
S'ANCP'
tp266
F12
s(g32
S'DCP'
tp267
F1
s(g141
S'AAANCP'
tp268
F1
s(g57
S'NNVVVVP'
tp269
F1
s(g51
S'ADVADVADVPPNP'
tp270
F1
s(S'DP'
p271
S'DDDP'
tp272
F4
s(S'DP'
p273
S'DDADVPP'
tp274
F1
s(S'VP'
p275
S'VVDP'
tp276
F16
s(g229
S'NPPP'
tp277
F15
s(g82
S'DAVP'
tp278
F8
s(S'VP'
p279
S'ADVAVCP'
tp280
F1
s(S'AP'
p281
S'ACP'
tp282
F13
s(g103
S'PPNP'
tp283
F20
s(S'DP'
S'AADVP'
tp284
F1
s(g141
S'NNNNCCP'
tp285
F1
s(S'AP'
S'ADP'
tp286
F60
s(g271
S'DDAVP'
tp287
F3
s(S'NP'
S'ANPPP'
tp288
F2
s(S'NP'
p289
S'NADVADVAP'
tp290
F2
s(S'VP'
S'AVDP'
tp291
F12
s(g105
S'VVAP'
tp292
F4
s(S'NP'
S'NNAPP'
tp293
F1
s(g8
S'PADVADVDP'
tp294
F1
s(g43
S'NPP'
tp295
F73
s(S'VP'
p296
S'ADVADVVAP'
tp297
F1
s(g229
S'NVP'
tp298
F70
s(g45
S'VDDP'
tp299
F12
s(S'DP'
S'DMP'
tp300
F1
s(g64
S'DADVAPP'
tp301
F2
s(S'NP'
p302
S'ANPP'
tp303
F9
s(g136
S'PPPPP'
tp304
F3
s(S'MP'
S'MPDP'
tp305
F3
s(g103
S'ADVADVPDP'
tp306
F1
s(S'MP'
S'MVVPP'
tp307
F1
s(g39
S'ADVDPP'
tp308
F6
s(S'AP'
S'ADVADVAVP'
tp309
F2
s(S'DP'
S'ADDP'
tp310
F1
s(S'NP'
S'NNCCCCP'
tp311
F1
s(S'CP'
S'CAADPP'
tp312
F1
s(S'DP'
p313
S'DADVADVVP'
tp314
F1
s(S'NP'
S'NAACP'
tp315
F1
s(g103
S'PNNP'
tp316
F21
s(S'CP'
S'CDADVADVADVPPP'
tp317
F1
s(S'PP'
S'APNNP'
tp318
F2
s(S'MP'
S'MMNP'
tp319
F1
s(S'VP'
S'AVAP'
tp320
F1
s(S'MP'
S'MMVP'
tp321
F2
s(g53
S'PADVDDP'
tp322
F2
s(g212
S'ADVNCP'
tp323
F1
s(S'AP'
S'AADP'
tp324
F16
s(g19
S'VAPPP'
tp325
F1
s(g264
S'ACDP'
tp326
F11
s(S'VP'
S'VCCP'
tp327
F2
s(S'AP'
S'ADVANP'
tp328
F1
s(S'DP'
S'AAADPPP'
tp329
F1
s(S'MP'
S'MDNNP'
tp330
F1
s(S'CP'
S'CDADVPPP'
tp331
F1
s(g159
S'VAP'
tp332
F35
s(g71
S'MNVVP'
tp333
F1
s(g134
S'DDDPP'
tp334
F2
s(S'CP'
S'ADVCDDP'
tp335
F1
s(S'PP'
S'ADVPMP'
tp336
F1
s(g119
S'VVVCCCP'
tp337
F1
s(S'AP'
p338
S'ADVADVADVAMP'
tp339
F1
s(g121
S'AAVVP'
tp340
F1
s(g225
S'ADVADVVVAP'
tp341
F1
s(g240
S'DDDPPP'
tp342
F1
s(g296
S'VVADVADVCCP'
tp343
F1
s(g166
S'ADVVVDP'
tp344
F2
s(g17
S'PPPVP'
tp345
F1
s(S'AP'
S'AADDP'
tp346
F3
s(g124
S'VAANP'
tp347
F1
s(S'PP'
S'ADVPVP'
tp348
F3
s(S'MP'
p349
S'AMPP'
tp350
F2
s(g47
S'NVVVVP'
tp351
F1
s(g28
S'MPNP'
tp352
F3
s(g138
S'MADP'
tp353
F4
s(g35
S'AMMP'
tp354
F2
s(S'AP'
S'ADVADVADDP'
tp355
F1
s(g59
S'PANP'
tp356
F9
s(S'NP'
p357
S'AANMP'
tp358
F1
s(g146
S'AAVP'
tp359
F3
s(g57
S'NAAP'
tp360
F3
s(g212
S'NDDP'
tp361
F5
s(S'PP'
S'APPDDP'
tp362
F1
s(S'MP'
S'MVADVDP'
tp363
F1
s(S'AP'
S'ACCP'
tp364
F1
s(g296
S'ADVVADVADVVP'
tp365
F1
s(S'VP'
S'AVPPP'
tp366
F1
s(g43
S'NDP'
tp367
F37
s(S'NP'
S'NNNADVADVADVVVP'
tp368
F1
s(g111
S'DDVP'
tp369
F8
s(g43
S'AANVP'
tp370
F1
s(S'PP'
S'ADVPAP'
tp371
F1
s(g53
S'PCP'
tp372
F4
s(S'NP'
S'NNPPP'
tp373
F3
s(g219
S'PAADP'
tp374
F1
s(S'MP'
S'MDNP'
tp375
F5
s(S'MP'
S'MPAP'
tp376
F1
s(S'DP'
S'ADPPP'
tp377
F2
s(g203
S'MVCP'
tp378
F3
s(S'CP'
S'CCDDP'
tp379
F1
s(g162
S'NNADVVP'
tp380
F2
s(g240
S'ADVADVDAANP'
tp381
F1
s(g17
S'PPAAP'
tp382
F1
s(g168
S'VVCP'
tp383
F5
s(g103
S'PADVADVPP'
tp384
F1
s(g275
S'VDP'
tp385
F64
s(S'MP'
p386
S'MDCP'
tp387
F1
s(g49
S'AVVPP'
tp388
F1
s(S'NP'
p389
S'NNDDP'
tp390
F3
s(g296
S'ADVVPP'
tp391
F2
s(g105
S'VNNP'
tp392
F6
s(S'AP'
S'AADVDP'
tp393
F1
s(S'NP'
p394
S'NADP'
tp395
F1
s(g174
S'DDNP'
tp396
F15
s(S'CP'
S'ACADVDP'
tp397
F1
s(S'NP'
S'NADVCP'
tp398
F4
s(g273
S'DDNNP'
tp399
F3
s(g130
S'AAPPP'
tp400
F1
s(S'DP'
S'ADVDDVVP'
tp401
F1
s(g41
S'APCP'
tp402
F1
s(g82
S'AADPP'
tp403
F1
s(g279
S'VADVAVP'
tp404
F1
s(g77
S'APPNP'
tp405
F1
s(g146
S'AAMMP'
tp406
F1
s(S'MP'
S'MVVNP'
tp407
F1
s(S'CP'
S'ACDDP'
tp408
F2
s(S'AP'
S'AAPP'
tp409
F4
s(S'DP'
S'DADVVVP'
tp410
F1
s(g66
S'NAPP'
tp411
F5
s(S'AP'
S'ADVADVADP'
tp412
F1
s(g49
S'VVVCP'
tp413
F1
s(S'MP'
S'MADVADVVVDP'
tp414
F1
s(g357
S'ANCCP'
tp415
F3
s(g389
S'AANPP'
tp416
F3
s(g98
S'NNMP'
tp417
F1
s(S'MP'
S'MAPDP'
tp418
F1
s(S'PP'
S'PAAAP'
tp419
F2
s(S'PP'
S'ADVADVPNP'
tp420
F1
s(S'NP'
p421
S'AAAANCP'
tp422
F1
s(S'CP'
S'CDDAPP'
tp423
F1
s(S'NP'
p424
S'ANAP'
tp425
F2
s(g71
S'MVAP'
tp426
F7
s(g103
S'PVP'
tp427
F59
s(g386
S'MVDDDP'
tp428
F1
s(S'AP'
S'ADVADVAPP'
tp429
F2
s(g176
S'VADVCCP'
tp430
F1
s(S'AP'
S'AADVDDP'
tp431
F1
s(S'DP'
S'ADVADVADVDNP'
tp432
F1
s(S'PP'
S'PPDDP'
tp433
F2
s(S'VP'
S'AVCP'
tp434
F2
s(S'DP'
p435
S'DDVVVP'
tp436
F1
s(g394
S'NAPPP'
tp437
F1
s(g10
S'DPP'
tp438
F95
s(S'NP'
S'ADVNVP'
tp439
F1
s(g82
S'DDDVVP'
tp440
F1
s(g174
S'DDPP'
tp441
F26
s(g192
S'DANP'
tp442
F17
s(g281
S'ADVAMP'
tp443
F5
s(g389
S'NADVPP'
tp444
F3
s(S'NP'
S'NAAVP'
tp445
F1
s(g4
S'AADNP'
tp446
F1
s(S'VP'
S'VADVCP'
tp447
F2
s(g80
S'NADVCCP'
tp448
F1
s(S'MP'
S'MADVVDP'
tp449
F1
s(g53
S'PDDP'
tp450
F14
s(g117
S'ADVAPNP'
tp451
F1
s(S'NP'
S'NNVP'
tp452
F13
s(g10
S'DAANP'
tp453
F3
s(S'AP'
S'ADDP'
tp454
F6
s(S'PP'
S'ADVPPNP'
tp455
F1
s(g182
S'DPPP'
tp456
F32
s(g313
S'AADVVVP'
tp457
F1
s(g435
S'DAVVP'
tp458
F1
s(g23
S'AADPPP'
tp459
F1
s(S'CP'
S'ADVADVADVCCDP'
tp460
F1
s(g103
S'ADVPNP'
tp461
F4
s(g85
S'PPDP'
tp462
F19
s(S'VP'
S'VMMMP'
tp463
F1
s(S'MP'
S'MMAVP'
tp464
F1
s(g302
S'NAP'
tp465
F29
s(S'NP'
S'NNAAP'
tp466
F1
s(g105
S'VAAAP'
tp467
F1
s(S'NP'
S'NAAAPP'
tp468
F1
s(g14
S'VVP'
tp469
F16
s(S'DP'
S'DDAPP'
tp470
F1
s(S'AP'
p471
S'AAADP'
tp472
F5
s(g8
S'APNP'
tp473
F11
s(S'DP'
S'DDVVP'
tp474
F2
s(g349
S'MNPP'
tp475
F1
s(S'MP'
S'MVANP'
tp476
F1
s(S'CP'
p477
S'CDPP'
tp478
F83
s(S'AP'
S'ADDDP'
tp479
F1
s(S'MP'
p480
S'MVADVPP'
tp481
F1
s(S'MP'
S'MMMVP'
tp482
F1
s(S'CP'
S'ADVCDP'
tp483
F5
s(S'VP'
S'ADVADVVNP'
tp484
F1
s(g186
S'PPNNP'
tp485
F4
s(g217
S'VADVNP'
tp486
F2
s(g184
S'AVDDP'
tp487
F1
s(S'DP'
S'DADVNP'
tp488
F4
s(g257
S'DAP'
tp489
F11
s(g71
S'MCADP'
tp490
F1
s(g214
S'CADPP'
tp491
F10
s(S'VP'
S'ADVADVVVPP'
tp492
F1
s(g55
S'AVPP'
tp493
F2
s(g28
S'MADVADVVVAP'
tp494
F1
s(S'CP'
p495
S'ADVCADVDP'
tp496
F1
s(S'VP'
S'AAVDP'
tp497
F1
s(S'NP'
S'ADVANMP'
tp498
F1
s(g103
S'APPP'
tp499
F7
s(S'DP'
S'DADVADVPP'
tp500
F2
s(g421
S'AANVVP'
tp501
F1
s(S'PP'
p502
S'PPPNP'
tp503
F1
s(S'PP'
S'PADVADVNP'
tp504
F1
s(g10
S'ADPP'
tp505
F15
s(S'NP'
S'NNADVVVP'
tp506
F1
s(S'NP'
p507
S'NADVADVADVCCP'
tp508
F1
s(S'VP'
S'VADVPP'
tp509
F2
s(S'CP'
S'CCAAADP'
tp510
F1
s(S'NP'
S'NADVADVADVVVP'
tp511
F2
s(S'PP'
S'PADVADVADVDDP'
tp512
F1
s(S'PP'
S'PADVADVADVNP'
tp513
F1
s(g502
S'ADVPDP'
tp514
F4
s(g43
S'ADVNNPP'
tp515
F1
s(S'MP'
S'MVADVAP'
tp516
F2
s(g43
S'NCP'
tp517
F77
s(S'CP'
S'CADVDPPP'
tp518
F1
s(S'VP'
S'ADVVVPP'
tp519
F2
s(S'NP'
S'ADVANDP'
tp520
F1
s(g32
S'ADVVP'
tp521
F1
s(g495
S'CDADVPP'
tp522
F4
s(g338
S'AAMP'
tp523
F2
s(S'VP'
S'VADVADVADVDP'
tp524
F1
s(g480
S'MVCCP'
tp525
F1
s(g10
S'DADVNNP'
tp526
F1
s(S'VP'
S'AAAAAAVNNP'
tp527
F1
s(S'VP'
S'VDDDP'
tp528
F1
s(S'CP'
S'ADVADVCCDP'
tp529
F1
s(S'PP'
S'PADVADVAP'
tp530
F1
s(g275
S'VAPP'
tp531
F5
s(g188
S'VVVVNNNNP'
tp532
F1
s(g203
S'MPPNNP'
tp533
F1
s(g45
S'ADVVDP'
tp534
F4
s(g182
S'DADVPP'
tp535
F8
s(S'AP'
S'AMP'
tp536
F6
s(g477
S'CCADP'
tp537
F1
s(g424
S'ADVNNCP'
tp538
F1
s(g471
S'ADVAPP'
tp539
F2
s(g264
S'AACDP'
tp540
F2
s(g92
S'NNNCCP'
tp541
F1
s(S'DP'
S'ADVDPPP'
tp542
F2
s(g134
S'DVP'
tp543
F65
s(S'DP'
S'ADVADVADVDDVP'
tp544
F1
s(S'NP'
S'ADVNPP'
tp545
F2
s(S'VP'
S'ADVADVADVVVNP'
tp546
F1
s(S'AP'
S'AVP'
tp547
F16
s(g507
S'NADVVP'
tp548
F2
s(g37
S'ADVVPPP'
tp549
F1
s(g199
S'DDPPP'
tp550
F7
s(S'NP'
S'ADVNMP'
tp551
F2
s(g289
S'NNAP'
tp552
F1
s(S'PP'
S'PPANP'
tp553
F1
s(g250
S'AADVMP'
tp554
F2
s(g155
S'VNP'
tp555
F47
s(g296
S'VANP'
tp556
F7
s(g105
S'VADVAP'
tp557
F7
s(S'PP'
S'PPADVNP'
tp558
F2
s(g4
S'DDDDVP'
tp559
F1
s(S'VP'
S'ADVADVVVDP'
tp560
F1
s.