ccollections
defaultdict
p1
(c__builtin__
float
p2
tRp3
(S'VP'
S'AAVADVADVADP'
tp4
F1
s(S'MP'
S'MMDP'
tp5
F2
s(S'DP'
S'AAAADPPP'
tp6
F1
s(S'DP'
S'DDDPPPPP'
tp7
F1
s(S'CP'
S'CAAADPP'
tp8
F2
s(S'PP'
S'PAAANP'
tp9
F7
s(S'DP'
p10
S'ADDPP'
tp11
F4
s(S'NP'
S'AAANNAP'
tp12
F1
s(S'DP'
p13
S'DDAP'
tp14
F1
s(S'VP'
S'ADVVVNP'
tp15
F2
s(S'MP'
S'AMMPP'
tp16
F1
s(S'AP'
S'AADDDP'
tp17
F1
s(S'CP'
S'CCDDDDP'
tp18
F7
s(S'VP'
p19
S'VVVVP'
tp20
F1
s(S'NP'
p21
S'ADVANVP'
tp22
F1
s(S'NP'
S'NADDP'
tp23
F2
s(S'AP'
S'AVVVP'
tp24
F1
s(S'PP'
p25
S'ADVADVPAP'
tp26
F2
s(S'PP'
p27
S'PAPP'
tp28
F8
s(S'PP'
S'PADVNP'
tp29
F16
s(S'VP'
S'VVADVADVADVNP'
tp30
F1
s(S'DP'
p31
S'DNP'
tp32
F270
s(S'NP'
p33
S'ANCCCP'
tp34
F2
s(S'PP'
S'AAPDDP'
tp35
F1
s(S'CP'
p36
S'CDPPP'
tp37
F65
s(S'MP'
S'ADVAMCP'
tp38
F1
s(S'VP'
p39
S'VADP'
tp40
F9
s(S'NP'
p41
S'ANADVADVADVVVP'
tp42
F1
s(S'DP'
S'DAAP'
tp43
F2
s(S'PP'
p44
S'PPPPPP'
tp45
F2
s(S'DP'
p46
S'DDDADVADVPP'
tp47
F1
s(S'VP'
S'VADVADVADVAP'
tp48
F1
s(S'VP'
S'VAVP'
tp49
F1
s(S'NP'
p50
S'NNNPPPP'
tp51
F1
s(S'VP'
S'ADVADVADVVVPP'
tp52
F2
s(S'DP'
p53
S'DAADP'
tp54
F2
s(S'DP'
p55
S'ADNNP'
tp56
F1
s(S'VP'
S'AVADVDP'
tp57
F1
s(g27
S'APVP'
tp58
F13
s(S'MP'
S'MVDP'
tp59
F21
s(S'CP'
S'AAACCDP'
tp60
F1
s(S'NP'
S'AANNPP'
tp61
F1
s(S'PP'
p62
S'PPPP'
tp63
F26
s(S'DP'
S'DDDNP'
tp64
F4
s(S'MP'
S'AMCP'
tp65
F1
s(S'VP'
p66
S'VACP'
tp67
F5
s(S'AP'
p68
S'AAAVP'
tp69
F4
s(S'PP'
p70
S'PPAAP'
tp71
F2
s(S'DP'
S'DADVVP'
tp72
F7
s(S'VP'
S'VVVANNP'
tp73
F1
s(S'VP'
S'VVADDP'
tp74
F1
s(g44
S'PADVNNP'
tp75
F3
s(S'MP'
S'MVADVADVNNP'
tp76
F1
s(S'AP'
S'ANNP'
tp77
F1
s(S'NP'
S'NADVVVP'
tp78
F6
s(S'NP'
S'ANADVPP'
tp79
F1
s(g39
S'VCP'
tp80
F85
s(S'NP'
p81
S'NMMP'
tp82
F3
s(g50
S'NNNNAAACCP'
tp83
F1
s(S'VP'
S'ADVVCCP'
tp84
F1
s(S'PP'
p85
S'PAP'
tp86
F98
s(S'VP'
S'VADVADVAP'
tp87
F3
s(S'NP'
S'NNNAP'
tp88
F1
s(S'CP'
S'AAAACDP'
tp89
F1
s(S'PP'
p90
S'APVVP'
tp91
F4
s(S'PP'
S'PPADVDP'
tp92
F3
s(S'MP'
S'AMVP'
tp93
F1
s(S'PP'
p94
S'PNP'
tp95
F285
s(S'NP'
p96
S'ANACP'
tp97
F1
s(g70
S'PADVADVVP'
tp98
F1
s(g31
S'DDP'
tp99
F32
s(S'NP'
S'NNDDDP'
tp100
F1
s(S'VP'
S'ADVVDDP'
tp101
F1
s(S'NP'
S'NNNPP'
tp102
F9
s(S'PP'
p103
S'PAAP'
tp104
F18
s(S'MP'
S'MCDP'
tp105
F7
s(S'NP'
S'ANADVAP'
tp106
F1
s(S'DP'
p107
S'ADVADVADNP'
tp108
F1
s(S'NP'
S'NNADVADVCP'
tp109
F1
s(S'DP'
p110
S'DADVADVADVPP'
tp111
F1
s(S'NP'
p112
S'NMP'
tp113
F84
s(S'NP'
p114
S'ADVNAPP'
tp115
F2
s(S'VP'
p116
S'VMMP'
tp117
F2
s(S'PP'
S'PDP'
tp118
F286
s(S'VP'
S'VAMP'
tp119
F1
s(S'NP'
S'ADVNVVP'
tp120
F2
s(S'VP'
p121
S'VNNNNP'
tp122
F1
s(S'MP'
p123
S'MNNVP'
tp124
F1
s(S'VP'
S'VVVDDP'
tp125
F2
s(S'NP'
S'AAAANNVVP'
tp126
F1
s(S'CP'
S'CDDDPPPPP'
tp127
F1
s(S'VP'
p128
S'AVAAP'
tp129
F1
s(S'NP'
p130
S'NNADVADVADVVVP'
tp131
F1
s(S'AP'
S'ANP'
tp132
F1
s(S'NP'
p133
S'NADVADVADVVP'
tp134
F1
s(g70
S'PADVPP'
tp135
F5
s(S'VP'
S'AAVPP'
tp136
F4
s(S'PP'
S'AAAPAANNNP'
tp137
F1
s(S'DP'
p138
S'DDAAPPP'
tp139
F1
s(S'PP'
S'AAPPPP'
tp140
F1
s(S'DP'
p141
S'DPPPP'
tp142
F13
s(S'DP'
S'DDANP'
tp143
F6
s(S'NP'
S'NACP'
tp144
F16
s(S'AP'
S'ADVAVP'
tp145
F4
s(S'NP'
p146
S'NCCP'
tp147
F79
s(S'CP'
S'CDDDDPPP'
tp148
F1
s(S'VP'
S'VVCCCP'
tp149
F1
s(S'NP'
p150
S'NNCP'
tp151
F65
s(S'NP'
S'ANADVADVVVP'
tp152
F1
s(S'NP'
S'NADVADVVP'
tp153
F4
s(S'DP'
S'DDDDP'
tp154
F3
s(S'DP'
S'DDAPP'
tp155
F1
s(g103
S'PPAP'
tp156
F15
s(S'MP'
S'MVAAAP'
tp157
F1
s(S'VP'
p158
S'AVNP'
tp159
F6
s(g158
S'VVADP'
tp160
F1
s(S'DP'
p161
S'AADDDPP'
tp162
F1
s(S'MP'
S'MADVADVVANP'
tp163
F1
s(S'PP'
p164
S'ADVAPDP'
tp165
F2
s(S'VP'
S'VVMP'
tp166
F2
s(S'VP'
S'VADVVP'
tp167
F2
s(S'VP'
S'ADVADVADVVNP'
tp168
F1
s(S'NP'
S'ANADVVP'
tp169
F2
s(S'PP'
S'ADVAPVP'
tp170
F2
s(S'NP'
p171
S'AAAANNDDP'
tp172
F1
s(S'DP'
p173
S'ADVVVP'
tp174
F1
s(S'NP'
p175
S'NCCCCP'
tp176
F2
s(S'MP'
S'MADVVNNP'
tp177
F2
s(S'VP'
S'AVNNP'
tp178
F2
s(S'PP'
S'ADVPPNNP'
tp179
F1
s(S'CP'
p180
S'CCCADVADVDDP'
tp181
F1
s(g62
S'APDP'
tp182
F26
s(g66
S'ADVVNNP'
tp183
F2
s(S'AP'
p184
S'AADVCP'
tp185
F2
s(S'DP'
p186
S'DNNNNP'
tp187
F4
s(S'VP'
S'VVANP'
tp188
F4
s(S'VP'
S'VVVVDP'
tp189
F2
s(S'VP'
S'ADVVVP'
tp190
F1
s(S'AP'
S'AANP'
tp191
F1
s(S'PP'
S'PPPPMP'
tp192
F1
s(S'MP'
p193
S'MADVVNP'
tp194
F1
s(S'CP'
S'CDDADVADVADVPP'
tp195
F1
s(S'MP'
S'MPNNP'
tp196
F1
s(S'NP'
S'ADVANCP'
tp197
F2
s(g31
S'DNNP'
tp198
F51
s(S'CP'
S'CADVDDPP'
tp199
F3
s(S'DP'
S'DPPPPP'
tp200
F2
s(S'CP'
S'CDDPPPP'
tp201
F2
s(S'CP'
S'CCADVDP'
tp202
F2
s(S'VP'
S'VVNNNP'
tp203
F1
s(S'DP'
S'ADDNP'
tp204
F4
s(S'NP'
S'NNNVP'
tp205
F10
s(S'PP'
S'PAAVVP'
tp206
F1
s(S'VP'
S'VADVNNP'
tp207
F1
s(S'NP'
S'NNAAAACP'
tp208
F1
s(S'PP'
S'PPNNNNP'
tp209
F1
s(S'PP'
S'PADVVP'
tp210
F7
s(S'NP'
p211
S'AAAANNCCP'
tp212
F1
s(S'PP'
S'APAP'
tp213
F5
s(S'NP'
S'NADVAMP'
tp214
F1
s(S'AP'
p215
S'APP'
tp216
F51
s(S'NP'
S'NADVMP'
tp217
F1
s(S'PP'
p218
S'PPADP'
tp219
F2
s(S'CP'
S'CADVADPP'
tp220
F2
s(g81
S'ADVANPP'
tp221
F2
s(S'MP'
S'MVVCP'
tp222
F2
s(S'DP'
p223
S'DAAVP'
tp224
F7
s(S'CP'
S'CDDDDPP'
tp225
F2
s(S'MP'
S'MPVP'
tp226
F1
s(S'PP'
S'PAANP'
tp227
F9
s(g223
S'DDADVADVVP'
tp228
F1
s(S'NP'
S'NADVADVPPP'
tp229
F1
s(S'NP'
p230
S'ANVP'
tp231
F33
s(S'VP'
p232
S'VAACP'
tp233
F1
s(S'NP'
p234
S'AAANVVVP'
tp235
F1
s(g223
S'ADVDDPP'
tp236
F5
s(S'VP'
S'VVADVAAP'
tp237
F1
s(S'MP'
S'MVNP'
tp238
F12
s(S'DP'
S'ADVADVDDVP'
tp239
F1
s(S'NP'
S'ANAAP'
tp240
F2
s(S'CP'
S'CDDDPPP'
tp241
F1
s(g110
S'ADVADNP'
tp242
F1
s(g85
S'PAVP'
tp243
F13
s(S'CP'
S'ADVCDDDP'
tp244
F1
s(S'PP'
p245
S'ADVADVPPVP'
tp246
F1
s(S'VP'
S'VVVPP'
tp247
F2
s(S'CP'
S'CADVADVADPP'
tp248
F2
s(S'DP'
p249
S'DADP'
tp250
F3
s(S'AP'
p251
S'ADVADP'
tp252
F3
s(S'CP'
S'ADVADVCDP'
tp253
F3
s(g164
S'APDDP'
tp254
F4
s(S'VP'
p255
S'ADVADVVVNP'
tp256
F2
s(S'VP'
S'ADVADVVANP'
tp257
F3
s(g133
S'ADVNAP'
tp258
F2
s(S'DP'
p259
S'DDDDVVP'
tp260
F1
s(S'PP'
S'PPCP'
tp261
F2
s(g158
S'ADVVNP'
tp262
F9
s(S'DP'
S'DAAAP'
tp263
F3
s(S'MP'
S'MNNCP'
tp264
F1
s(S'MP'
S'MNCP'
tp265
F2
s(S'VP'
p266
S'VVNP'
tp267
F29
s(S'PP'
p268
S'PPPNNP'
tp269
F2
s(S'VP'
S'AAAAVDP'
tp270
F1
s(g62
S'PPVP'
tp271
F31
s(S'MP'
S'MPANP'
tp272
F1
s(S'VP'
S'VADVDP'
tp273
F4
s(S'VP'
S'VVADVAP'
tp274
F1
s(S'VP'
p275
S'VAAP'
tp276
F6
s(g81
S'ANDP'
tp277
F8
s(g230
S'NVVP'
tp278
F33
s(S'PP'
S'AAPVP'
tp279
F1
s(S'AP'
S'AAP'
tp280
F4
s(S'VP'
S'VMP'
tp281
F20
s(S'VP'
p282
S'VVNNP'
tp283
F9
s(S'CP'
p284
S'CDAPP'
tp285
F21
s(S'CP'
S'CDDAAPP'
tp286
F2
s(S'PP'
S'ADVPMP'
tp287
F2
s(g193
S'MMPP'
tp288
F1
s(S'VP'
S'VVAPP'
tp289
F1
s(g31
S'ADNP'
tp290
F11
s(S'NP'
S'ADVNNPP'
tp291
F2
s(S'CP'
S'ACCDP'
tp292
F2
s(g94
S'PADP'
tp293
F12
s(g186
S'DDAAAPP'
tp294
F2
s(S'VP'
S'ADVVVCP'
tp295
F2
s(S'NP'
S'ANDDP'
tp296
F1
s(S'AP'
S'AAADVADVDP'
tp297
F1
s(S'DP'
S'ADVADVDVP'
tp298
F1
s(S'DP'
S'DADVAP'
tp299
F2
s(S'CP'
S'ADVADVACDP'
tp300
F1
s(S'DP'
p301
S'DAPP'
tp302
F30
s(S'VP'
S'AVVP'
tp303
F1
s(S'VP'
S'ADVADVVPP'
tp304
F3
s(S'MP'
S'MADVADVVNP'
tp305
F1
s(S'PP'
S'ADVADVADVPPP'
tp306
F1
s(S'VP'
p307
S'ADVADVADVVDP'
tp308
F3
s(S'PP'
S'AAAPVP'
tp309
F1
s(S'NP'
S'NNNNAANP'
tp310
F1
s(S'VP'
S'ADVADVVDP'
tp311
F2
s(g114
S'NAAAAVP'
tp312
F1
s(S'MP'
S'MVVVDP'
tp313
F1
s(S'PP'
p314
S'PPPPAAAAAAPP'
tp315
F1
s(S'PP'
S'AAAPDP'
tp316
F2
s(S'VP'
S'VAMMP'
tp317
F1
s(S'MP'
S'MVVAP'
tp318
F3
s(S'NP'
S'NNNCCCP'
tp319
F3
s(S'VP'
S'VDDDDP'
tp320
F1
s(S'DP'
S'DAAANP'
tp321
F3
s(S'DP'
p322
S'DADVANP'
tp323
F5
s(S'VP'
S'VVAAP'
tp324
F2
s(S'VP'
S'VAAPP'
tp325
F2
s(S'DP'
p326
S'ADVDNP'
tp327
F6
s(g116
S'VVPP'
tp328
F17
s(S'VP'
S'VADVAPP'
tp329
F1
s(S'NP'
p330
S'AAAANVP'
tp331
F1
s(S'MP'
S'MMMDP'
tp332
F1
s(S'MP'
S'MVPP'
tp333
F12
s(g31
S'ADVP'
tp334
F11
s(g284
S'CDDPPP'
tp335
F16
s(S'PP'
S'PPPAP'
tp336
F3
s(S'MP'
S'MDDNP'
tp337
F2
s(S'NP'
p338
S'AANCCP'
tp339
F2
s(S'CP'
S'CCCADVDP'
tp340
F1
s(S'DP'
S'DDDDNP'
tp341
F1
s(S'MP'
p342
S'MVVDP'
tp343
F1
s(S'AP'
S'AACP'
tp344
F10
s(S'MP'
S'MADVADVADVVDP'
tp345
F1
s(S'DP'
S'DNNNP'
tp346
F8
s(S'MP'
S'MPPDP'
tp347
F1
s(S'DP'
S'ADVDDVP'
tp348
F2
s(S'CP'
p349
S'ACAADDDP'
tp350
F1
s(S'NP'
S'ADVANVVP'
tp351
F1
s(S'NP'
S'AAAANDP'
tp352
F1
s(S'MP'
S'MAADVADVDDP'
tp353
F1
s(g218
S'PVVVP'
tp354
F4
s(S'PP'
p355
S'PMP'
tp356
F8
s(S'PP'
S'PADVADVADVVP'
tp357
F1
s(S'CP'
S'CCDP'
tp358
F102
s(S'NP'
S'ANNDP'
tp359
F1
s(S'NP'
S'ANADVDP'
tp360
F1
s(S'VP'
p361
S'VADVANP'
tp362
F1
s(S'PP'
p363
S'PPNNNP'
tp364
F8
s(S'MP'
S'MVAP'
tp365
F15
s(S'NP'
p366
S'NVVVP'
tp367
F3
s(S'CP'
S'CDDDPP'
tp368
F9
s(S'CP'
S'CDAAPP'
tp369
F3
s(S'VP'
S'VVVDP'
tp370
F8
s(S'PP'
p371
S'PDDDDP'
tp372
F1
s(g27
S'PNNNP'
tp373
F13
s(S'CP'
S'CCCCDP'
tp374
F3
s(S'AP'
S'AAMMMP'
tp375
F1
s(S'PP'
p376
S'AAPNP'
tp377
F9
s(S'PP'
S'PADVVVP'
tp378
F3
s(S'PP'
S'PPP'
tp379
F99
s(S'NP'
p380
S'NAVP'
tp381
F17
s(S'PP'
p382
S'PADVAP'
tp383
F3
s(S'MP'
S'AMDP'
tp384
F1
s(S'VP'
p385
S'ADVVAPP'
tp386
F1
s(g382
S'PADDP'
tp387
F1
s(g326
S'ADVDVP'
tp388
F7
s(S'NP'
S'NCCCP'
tp389
F6
s(S'NP'
p390
S'NNNNNADVVP'
tp391
F1
s(S'DP'
S'DADVADVPPP'
tp392
F1
s(g44
S'PPPPDP'
tp393
F2
s(S'MP'
S'MVVVVDP'
tp394
F1
s(S'DP'
S'ADPP'
tp395
F36
s(g39
S'VPP'
tp396
F117
s(S'CP'
S'ADVCCDP'
tp397
F1
s(g249
S'DDDAAPP'
tp398
F3
s(S'DP'
p399
S'ADVDDNP'
tp400
F1
s(g41
S'NNNCP'
tp401
F9
s(S'PP'
S'PADVDP'
tp402
F5
s(S'CP'
S'CCCAADP'
tp403
F1
s(S'DP'
S'DANNP'
tp404
F2
s(S'CP'
p405
S'CDDPP'
tp406
F57
s(g322
S'DAAPP'
tp407
F9
s(S'PP'
S'PVVP'
tp408
F21
s(S'CP'
p409
S'CADPPP'
tp410
F1
s(S'DP'
S'DADVPPP'
tp411
F3
s(S'VP'
S'ADVVCP'
tp412
F2
s(g342
S'MCCDP'
tp413
F1
s(g39
S'VPPP'
tp414
F13
s(S'VP'
S'VVPPP'
tp415
F5
s(S'NP'
S'ADVNAMP'
tp416
F1
s(S'MP'
S'MVPPP'
tp417
F2
s(g31
S'DVVP'
tp418
F28
s(S'MP'
p419
S'MADVADVVCCP'
tp420
F1
s(S'MP'
S'ADVMVP'
tp421
F1
s(S'NP'
p422
S'ANMP'
tp423
F4
s(S'AP'
S'APPP'
tp424
F8
s(g25
S'ADVPPP'
tp425
F3
s(S'DP'
S'ADVADPPP'
tp426
F1
s(S'VP'
p427
S'VVVP'
tp428
F8
s(S'NP'
S'ADVNNCCP'
tp429
F1
s(S'CP'
S'CADVDPP'
tp430
F20
s(S'PP'
p431
S'PPDDDP'
tp432
F1
s(S'PP'
S'ADVPAPP'
tp433
F1
s(S'VP'
S'AVMP'
tp434
F1
s(S'NP'
S'ANCP'
tp435
F33
s(S'PP'
S'PPVVP'
tp436
F3
s(S'DP'
S'DCP'
tp437
F6
s(S'DP'
p438
S'DDAAPP'
tp439
F2
s(g211
S'ANNCP'
tp440
F3
s(S'NP'
S'AAANCP'
tp441
F2
s(S'VP'
S'VVVNNNP'
tp442
F2
s(g138
S'DDDP'
tp443
F5
s(S'DP'
S'DDADVPP'
tp444
F3
s(g46
S'AADDPP'
tp445
F4
s(g419
S'MAADP'
tp446
F1
s(g338
S'ANVVP'
tp447
F5
s(g371
S'PPPAAAADP'
tp448
F1
s(g338
S'NVVVVP'
tp449
F2
s(S'NP'
S'NPPP'
tp450
F26
s(S'NP'
S'NADVADVCP'
tp451
F2
s(S'PP'
S'PPAPP'
tp452
F1
s(S'DP'
S'DAVP'
tp453
F15
s(S'CP'
S'CCCCDDP'
tp454
F1
s(S'VP'
S'VAAAANP'
tp455
F1
s(S'NP'
S'NNNMP'
tp456
F2
s(S'MP'
p457
S'MCAADP'
tp458
F1
s(S'AP'
S'ACP'
tp459
F59
s(g349
S'CCCCADDP'
tp460
F1
s(g94
S'PPNP'
tp461
F64
s(S'NP'
S'NAADP'
tp462
F1
s(S'VP'
S'VVADVMP'
tp463
F1
s(S'DP'
S'AADVP'
tp464
F1
s(g234
S'NNNNCCP'
tp465
F9
s(g427
S'VAANNP'
tp466
F1
s(S'AP'
S'ADVAAVP'
tp467
F1
s(S'MP'
S'ADVMDP'
tp468
F1
s(S'PP'
S'PPPNNNNP'
tp469
F3
s(g409
S'CDDADVPP'
tp470
F2
s(S'AP'
S'ADP'
tp471
F156
s(S'CP'
p472
S'CCCDDDP'
tp473
F3
s(S'DP'
S'DDAAVP'
tp474
F1
s(S'NP'
S'ANPPP'
tp475
F2
s(S'VP'
S'VVVAANNP'
tp476
F1
s(S'NP'
S'ADVANCCP'
tp477
F1
s(S'NP'
p478
S'NNNNNNCP'
tp479
F3
s(S'MP'
S'MADDP'
tp480
F1
s(S'VP'
S'VVPPPP'
tp481
F1
s(S'DP'
S'DADVADVDP'
tp482
F1
s(S'VP'
p483
S'AVDP'
tp484
F25
s(S'PP'
p485
S'ADVAPDDP'
tp486
F1
s(S'VP'
S'VVAP'
tp487
F16
s(S'NP'
S'NNAPP'
tp488
F5
s(S'PP'
S'PAAAANP'
tp489
F3
s(S'VP'
S'AAVCP'
tp490
F1
s(S'NP'
S'NNADVCCP'
tp491
F1
s(g150
S'NPP'
tp492
F216
s(g25
S'PPPPNP'
tp493
F2
s(g380
S'NVP'
tp494
F206
s(g180
S'ADVCCDDP'
tp495
F1
s(g121
S'VVVVAANP'
tp496
F1
s(S'NP'
S'NAAPP'
tp497
F1
s(S'NP'
S'ADVANVVVVP'
tp498
F1
s(g66
S'VDDP'
tp499
F30
s(S'AP'
S'ADVADVADVADP'
tp500
F1
s(S'PP'
S'PPPDDDDDDDP'
tp501
F1
s(S'NP'
S'AANNVP'
tp502
F1
s(S'NP'
p503
S'AANVVP'
tp504
F1
s(S'DP'
S'DADVAPP'
tp505
F2
s(S'NP'
S'NADVADVVVP'
tp506
F1
s(g366
S'ANPP'
tp507
F38
s(S'PP'
S'ADVPPDP'
tp508
F3
s(S'PP'
S'PPPPP'
tp509
F6
s(S'MP'
S'MPDP'
tp510
F15
s(S'PP'
S'ADVADVPDP'
tp511
F1
s(S'MP'
S'MVVPP'
tp512
F4
s(S'DP'
S'ADVDPP'
tp513
F25
s(S'NP'
S'NPPPP'
tp514
F1
s(S'NP'
S'ANPPPPP'
tp515
F1
s(S'DP'
S'ADDP'
tp516
F2
s(g96
S'NNCCCCP'
tp517
F1
s(S'CP'
S'CAADPP'
tp518
F10
s(S'DP'
S'DADVADVVP'
tp519
F2
s(S'NP'
S'NAACP'
tp520
F2
s(g94
S'PNNP'
tp521
F72
s(S'AP'
S'AADVAPP'
tp522
F1
s(S'PP'
p523
S'APNNP'
tp524
F2
s(S'DP'
S'DDAAP'
tp525
F1
s(S'MP'
S'MMNP'
tp526
F1
s(S'DP'
S'AAADPP'
tp527
F3
s(S'VP'
S'AVAP'
tp528
F4
s(g457
S'MMVP'
tp529
F4
s(S'PP'
S'PADVDDP'
tp530
F4
s(S'CP'
S'CADVADPPP'
tp531
F1
s(S'PP'
S'PCCP'
tp532
F4
s(g62
S'PPAADP'
tp533
F1
s(S'MP'
S'MPDDP'
tp534
F2
s(S'CP'
p535
S'ACDP'
tp536
F26
s(g503
S'AAAAANAP'
tp537
F1
s(g41
S'NNDP'
tp538
F12
s(S'AP'
S'ADVANP'
tp539
F2
s(S'PP'
p540
S'PADVADVADVPPP'
tp541
F1
s(S'NP'
S'NNACP'
tp542
F1
s(S'MP'
S'MDNNP'
tp543
F2
s(S'CP'
S'CDADVPPP'
tp544
F1
s(g39
S'VAP'
tp545
F106
s(S'VP'
p546
S'VVVVNP'
tp547
F2
s(S'MP'
S'MNVVP'
tp548
F1
s(S'DP'
S'DDDPP'
tp549
F15
s(S'CP'
S'ADVCDDP'
tp550
F1
s(S'NP'
S'AANNCP'
tp551
F5
s(g133
S'ANADVCP'
tp552
F1
s(S'PP'
p553
S'PAAPP'
tp554
F2
s(S'PP'
p555
S'ADVPCP'
tp556
F1
s(S'AP'
S'AAVVP'
tp557
F1
s(g161
S'DDDPPP'
tp558
F5
s(S'VP'
S'ADVAVDP'
tp559
F2
s(S'DP'
S'ADAP'
tp560
F1
s(S'MP'
S'MVVCCP'
tp561
F2
s(g251
S'AAVP'
tp562
F3
s(g215
S'AAACP'
tp563
F4
s(S'NP'
S'AANADVADVADVACP'
tp564
F1
s(g128
S'ADVVVDP'
tp565
F1
s(S'PP'
S'PPPVP'
tp566
F4
s(S'VP'
S'AAVAP'
tp567
F1
s(S'AP'
S'AADDP'
tp568
F5
s(S'DP'
S'DDAAAAP'
tp569
F1
s(S'DP'
S'DDADVADVADVAPP'
tp570
F1
s(S'VP'
S'VAANP'
tp571
F6
s(S'VP'
S'ADVVAAAP'
tp572
F1
s(S'NP'
S'AAANADVVP'
tp573
F1
s(S'VP'
p574
S'AAVADVDDP'
tp575
F1
s(S'CP'
S'CCAAADP'
tp576
F1
s(g314
S'AAAAAAPVP'
tp577
F1
s(g39
S'VVDP'
tp578
F25
s(S'MP'
S'MVVVCP'
tp579
F1
s(S'MP'
S'MPNP'
tp580
F8
s(g540
S'ADVADVADVPPAVP'
tp581
F1
s(S'MP'
S'MADP'
tp582
F3
s(S'MP'
S'MADVADVADVVVNP'
tp583
F1
s(S'NP'
S'NNNDDP'
tp584
F1
s(S'NP'
p585
S'NAAP'
tp586
F10
s(S'AP'
S'AMMP'
tp587
F1
s(S'CP'
p588
S'CCAADP'
tp589
F2
s(S'PP'
S'PANP'
tp590
F32
s(S'PP'
p591
S'PDDDP'
tp592
F3
s(S'MP'
S'MVVPPP'
tp593
F1
s(S'NP'
S'AANMP'
tp594
F2
s(S'CP'
S'CCADVADVADVADVADP'
tp595
F1
s(S'AP'
S'AVVP'
tp596
F5
s(S'NP'
S'NDDP'
tp597
F8
s(S'NP'
S'NADVCCP'
tp598
F1
s(S'AP'
S'ACCP'
tp599
F6
s(S'VP'
S'AVPPP'
tp600
F1
s(g150
S'NDP'
tp601
F86
s(S'NP'
S'AAANVP'
tp602
F1
s(S'MP'
S'MVAAP'
tp603
F2
s(S'DP'
S'DDVP'
tp604
F30
s(S'NP'
S'AAANNVVP'
tp605
F1
s(S'NP'
S'AANVP'
tp606
F8
s(S'VP'
S'ADVVVNNP'
tp607
F1
s(S'VP'
S'VNNNP'
tp608
F3
s(S'VP'
S'VADVADVPP'
tp609
F1
s(S'PP'
S'ADVPAP'
tp610
F1
s(S'NP'
S'NNNNVVP'
tp611
F1
s(S'PP'
p612
S'APADVDP'
tp613
F1
s(g485
S'PCP'
tp614
F7
s(S'NP'
S'NNPPP'
tp615
F3
s(S'PP'
S'PAADP'
tp616
F2
s(S'NP'
p617
S'ADVNNVP'
tp618
F3
s(g10
S'AADADVPPP'
tp619
F1
s(S'VP'
S'VPPPP'
tp620
F3
s(S'VP'
S'VVVVANP'
tp621
F2
s(S'VP'
S'VCCP'
tp622
F11
s(S'NP'
S'NNNDP'
tp623
F3
s(S'AP'
S'ADVACP'
tp624
F4
s(S'NP'
S'ADVADVNMP'
tp625
F1
s(S'DP'
p626
S'DDADVVP'
tp627
F1
s(S'DP'
p628
S'ADPPP'
tp629
F3
s(S'NP'
p630
S'NNAAVP'
tp631
F1
s(S'MP'
S'MVCP'
tp632
F13
s(S'PP'
p633
S'PPAAANP'
tp634
F1
s(S'PP'
S'PADVANP'
tp635
F1
s(S'CP'
S'CCDDP'
tp636
F19
s(S'NP'
S'NNADVVP'
tp637
F1
s(S'VP'
p638
S'ADVADVADVVPP'
tp639
F1
s(S'DP'
S'DDADP'
tp640
F1
s(S'DP'
S'DADVADVADVVVP'
tp641
F2
s(S'MP'
S'MVMP'
tp642
F1
s(g130
S'NNVVP'
tp643
F8
s(S'NP'
S'NAAMP'
tp644
F1
s(S'NP'
S'NNNNVP'
tp645
F2
s(g116
S'VVCP'
tp646
F11
s(S'MP'
S'MAAVPP'
tp647
F2
s(g146
S'AANCP'
tp648
F14
s(g638
S'VADVNP'
tp649
F2
s(S'AP'
p650
S'ADVAVVP'
tp651
F2
s(g472
S'CDDDADVADVPP'
tp652
F1
s(S'NP'
S'NNDDP'
tp653
F2
s(g628
S'DDDDPPP'
tp654
F5
s(S'VP'
S'ADVVPP'
tp655
F4
s(g546
S'VVADVANP'
tp656
F1
s(S'NP'
S'NAAAAP'
tp657
F1
s(S'CP'
S'CDAPPP'
tp658
F1
s(g255
S'VNNP'
tp659
F23
s(g251
S'AADVDP'
tp660
F2
s(S'NP'
S'NADP'
tp661
F3
s(S'MP'
S'MMCP'
tp662
F1
s(g363
S'AAAPPP'
tp663
F1
s(g301
S'DDNP'
tp664
F38
s(S'NP'
S'NADVCP'
tp665
F5
s(g301
S'DDNNP'
tp666
F6
s(S'PP'
p667
S'AAPPP'
tp668
F1
s(S'NP'
S'ADVNCP'
tp669
F5
s(S'PP'
S'PPAAANNP'
tp670
F1
s(S'NP'
S'ADVADVNCP'
tp671
F1
s(S'DP'
S'AADPP'
tp672
F14
s(S'VP'
S'AAVMP'
tp673
F1
s(S'NP'
S'NNNNPP'
tp674
F6
s(S'NP'
S'NAAAACCP'
tp675
F1
s(g431
S'ADVADVPPDP'
tp676
F1
s(S'VP'
S'VVMMP'
tp677
F2
s(g171
S'NNNVVVVP'
tp678
F1
s(S'NP'
S'NNNP'
tp679
F1
s(S'MP'
p680
S'MMAPP'
tp681
F1
s(g330
S'NNAAAANP'
tp682
F1
s(S'NP'
S'ANVVVP'
tp683
F2
s(S'DP'
S'ADVADVADVADVADPP'
tp684
F1
s(S'CP'
S'CDDADVPPP'
tp685
F1
s(S'DP'
S'ADVDNNP'
tp686
F1
s(S'CP'
S'ACDDP'
tp687
F1
s(S'NP'
S'AANDP'
tp688
F1
s(g617
S'ADVADVANADVADVVP'
tp689
F1
s(S'AP'
S'AADVADVDDP'
tp690
F1
s(S'AP'
S'AAPP'
tp691
F8
s(S'VP'
S'VVCCP'
tp692
F3
s(S'DP'
p693
S'DMMP'
tp694
F2
s(S'DP'
S'DDAAAANNP'
tp695
F1
s(S'PP'
S'APDDDDP'
tp696
F1
s(S'NP'
S'NNNNNNDDP'
tp697
F1
s(S'DP'
S'DAAAPP'
tp698
F2
s(g385
S'VADVADP'
tp699
F1
s(S'NP'
S'AAANNCCP'
tp700
F1
s(g422
S'NAPP'
tp701
F18
s(S'PP'
S'APPVP'
tp702
F1
s(S'NP'
S'NNACCP'
tp703
F1
s(g376
S'ADVPPPP'
tp704
F1
s(S'DP'
S'DADVADVADVVP'
tp705
F1
s(S'NP'
S'ANCCP'
tp706
F8
s(S'NP'
S'AANPP'
tp707
F5
s(S'NP'
S'NNCCP'
tp708
F13
s(S'NP'
p709
S'NNMP'
tp710
F17
s(S'DP'
S'DDDVP'
tp711
F4
s(g588
S'CADDPP'
tp712
F3
s(g193
S'MAPDP'
tp713
F1
s(g523
S'ADVADVPNP'
tp714
F1
s(S'NP'
S'AAAANCP'
tp715
F3
s(S'CP'
S'CDDAPP'
tp716
F1
s(S'NP'
S'ADVNPPPP'
tp717
F1
s(S'NP'
S'ANAP'
tp718
F3
s(S'VP'
S'VADVADVANP'
tp719
F1
s(g85
S'PVP'
tp720
F161
s(S'VP'
p721
S'VADVPPP'
tp722
F2
s(S'PP'
S'PPADVVVP'
tp723
F1
s(g553
S'APPNNP'
tp724
F1
s(g184
S'ADVAACP'
tp725
F1
s(S'PP'
S'PPPNNNNNNP'
tp726
F1
s(S'DP'
S'DVVVP'
tp727
F4
s(g591
S'PPADVPP'
tp728
F1
s(S'VP'
p729
S'VCCCCP'
tp730
F1
s(S'DP'
S'ADVADVADVDNP'
tp731
F1
s(g355
S'PPDDP'
tp732
F6
s(g275
S'AVCP'
tp733
F3
s(S'DP'
S'DDVVVP'
tp734
F2
s(g13
S'DPP'
tp735
F388
s(S'NP'
S'ADVNVP'
tp736
F6
s(S'DP'
S'DDDVVP'
tp737
F1
s(S'CP'
S'CDADVADVADVPP'
tp738
F1
s(g141
S'DDPP'
tp739
F91
s(S'DP'
S'DDADVPPP'
tp740
F1
s(S'DP'
S'DANP'
tp741
F77
s(S'AP'
S'ADVAMP'
tp742
F2
s(g709
S'NADVPP'
tp743
F3
s(S'VP'
S'VVAAAAANP'
tp744
F1
s(S'NP'
S'NAAVP'
tp745
F2
s(S'DP'
S'ADVADVADPP'
tp746
F3
s(S'PP'
S'APADVDDP'
tp747
F2
s(S'DP'
p748
S'AADNP'
tp749
F3
s(S'DP'
S'ADVDDADVPP'
tp750
F1
s(g361
S'VADVCP'
tp751
F1
s(S'NP'
S'NNNNNAAP'
tp752
F1
s(g478
S'NNNNAP'
tp753
F3
s(g171
S'NNNNDDP'
tp754
F1
s(g630
S'NNNNCP'
tp755
F4
s(S'MP'
S'MDNP'
tp756
F10
s(g103
S'PPAANNP'
tp757
F2
s(S'DP'
S'ADVDAAP'
tp758
F1
s(S'MP'
S'MNAVP'
tp759
F1
s(S'NP'
S'NNP'
tp760
F3
s(S'DP'
S'DCCP'
tp761
F2
s(g301
S'AADDP'
tp762
F1
s(S'PP'
S'ADVPPDDP'
tp763
F1
s(g161
S'ADDPPPP'
tp764
F2
s(g553
S'AAPDP'
tp765
F4
s(g55
S'ADVADPP'
tp766
F2
s(g693
S'DDADVNNP'
tp767
F1
s(g553
S'PDDP'
tp768
F41
s(S'PP'
p769
S'PADVAPP'
tp770
F1
s(S'AP'
S'AAAADP'
tp771
F2
s(S'NP'
S'NNNADVVP'
tp772
F1
s(g112
S'NNVP'
tp773
F50
s(S'PP'
S'PPPMP'
tp774
F1
s(S'AP'
S'ADVADVACP'
tp775
F3
s(S'NP'
S'NAANP'
tp776
F2
s(S'VP'
S'VVDDP'
tp777
F4
s(S'DP'
S'DAANP'
tp778
F12
s(S'PP'
S'PPPDP'
tp779
F8
s(S'AP'
S'ADDP'
tp780
F19
s(g633
S'PNNNNP'
tp781
F6
s(g232
S'ADVVVAP'
tp782
F1
s(S'PP'
S'ADVPPNP'
tp783
F2
s(g307
S'VADVADVADVVP'
tp784
F2
s(g33
S'ADVADVNNMP'
tp785
F1
s(S'VP'
S'VVVCP'
tp786
F2
s(S'CP'
S'CADVADVDPP'
tp787
F3
s(g31
S'DPPP'
tp788
F97
s(S'PP'
S'PNNNNNNP'
tp789
F1
s(S'DP'
S'AADPPP'
tp790
F1
s(g245
S'ADVADVPPNP'
tp791
F1
s(g230
S'NNAVP'
tp792
F3
s(g259
S'AAAADNNNP'
tp793
F1
s(S'PP'
S'PPPANP'
tp794
F1
s(S'PP'
S'ADVPNP'
tp795
F7
s(g94
S'PPDP'
tp796
F40
s(S'MP'
S'MAVDP'
tp797
F2
s(S'NP'
S'NNNCCP'
tp798
F8
s(S'NP'
p799
S'AAANNPPP'
tp800
F1
s(g626
S'DDPPPP'
tp801
F4
s(S'PP'
S'AAPADVNNP'
tp802
F1
s(S'CP'
S'CADDPPPP'
tp803
F1
s(S'NP'
S'AAANMP'
tp804
F1
s(g173
S'DDCP'
tp805
F1
s(g585
S'NNNNNCP'
tp806
F1
s(S'PP'
S'PAANNP'
tp807
F2
s(g650
S'AAAPP'
tp808
F2
s(S'MP'
S'MNCCP'
tp809
F2
s(g680
S'AAMDP'
tp810
F1
s(g230
S'NAP'
tp811
F51
s(S'NP'
S'NNAAP'
tp812
F1
s(g158
S'VAAAP'
tp813
F3
s(S'CP'
S'AAAACCDP'
tp814
F1
s(g255
S'AVADVCP'
tp815
F1
s(S'NP'
S'NAAAPP'
tp816
F1
s(S'AP'
S'AACCCCP'
tp817
F1
s(S'NP'
S'AANNNCP'
tp818
F1
s(g266
S'VVP'
tp819
F23
s(g399
S'DADVNP'
tp820
F4
s(S'AP'
S'AAADP'
tp821
F3
s(S'CP'
S'CCAAAADP'
tp822
F1
s(g667
S'APNP'
tp823
F22
s(g729
S'VVVNNP'
tp824
F2
s(g46
S'DDDAPP'
tp825
F1
s(g628
S'DDVVP'
tp826
F4
s(S'VP'
S'VVVNP'
tp827
F2
s(S'MP'
S'MNPP'
tp828
F2
s(S'CP'
S'CDDAAAPP'
tp829
F1
s(S'NP'
p830
S'NAMP'
tp831
F1
s(S'VP'
S'VVVADVANP'
tp832
F1
s(S'DP'
S'ADVADVDDPP'
tp833
F1
s(S'MP'
S'MVNNP'
tp834
F2
s(S'AP'
S'AAADVPP'
tp835
F1
s(g535
S'CDPP'
tp836
F310
s(S'MP'
p837
S'MVVNNP'
tp838
F1
s(S'AP'
S'ADDDP'
tp839
F2
s(S'MP'
S'MVADVPP'
tp840
F1
s(g748
S'DDDDDDDNNNNP'
tp841
F1
s(S'CP'
S'ADVCDP'
tp842
F8
s(S'VP'
S'ADVADVVNP'
tp843
F3
s(S'VP'
S'ADVADVVCP'
tp844
F1
s(g85
S'PPNNP'
tp845
F14
s(S'CP'
S'CDAAAPP'
tp846
F2
s(g769
S'ADVPAVP'
tp847
F1
s(S'PP'
S'PPMP'
tp848
F2
s(g472
S'CAADDPP'
tp849
F4
s(S'DP'
S'ADVADVDPP'
tp850
F4
s(S'VP'
S'VDP'
tp851
F206
s(S'NP'
S'NADVAP'
tp852
F3
s(S'VP'
S'AVDDP'
tp853
F1
s(S'DP'
S'DAP'
tp854
F36
s(S'CP'
S'CADPP'
tp855
F26
s(S'VP'
S'VAAAPP'
tp856
F2
s(g19
S'ADVADVVCCP'
tp857
F1
s(g39
S'AVPP'
tp858
F9
s(S'DP'
S'DDNNNNP'
tp859
F1
s(S'MP'
S'AMNP'
tp860
F1
s(S'VP'
S'VVADVDP'
tp861
F1
s(g405
S'CDPPPP'
tp862
F8
s(S'VP'
S'AAVDP'
tp863
F5
s(S'PP'
S'ADVADVADVAPVP'
tp864
F1
s(S'PP'
S'PANNP'
tp865
F2
s(S'VP'
S'VACCP'
tp866
F1
s(S'PP'
p867
S'APPP'
tp868
F1
s(g141
S'DAPPP'
tp869
F2
s(S'DP'
S'DADVADVPP'
tp870
F2
s(S'DP'
S'DMP'
tp871
F3
s(g553
S'PPPNP'
tp872
F4
s(g268
S'PPAANP'
tp873
F4
s(S'NP'
S'AAANPP'
tp874
F2
s(g90
S'PADVADVNP'
tp875
F2
s(g574
S'ADVADVVAP'
tp876
F2
s(g68
S'AADP'
tp877
F32
s(g21
S'NADVANP'
tp878
F1
s(S'VP'
S'VADVPP'
tp879
F3
s(g721
S'VADVADVNNP'
tp880
F1
s(g10
S'ADVDANP'
tp881
F1
s(S'PP'
S'PVVVVP'
tp882
F1
s(S'PP'
S'ADVPVP'
tp883
F8
s(g438
S'DDDDPP'
tp884
F5
s(g211
S'NNVVVP'
tp885
F4
s(S'PP'
S'ADVPDP'
tp886
F9
s(S'VP'
S'ADVVADP'
tp887
F1
s(S'NP'
S'ANNPP'
tp888
F2
s(S'MP'
S'MAVNNP'
tp889
F1
s(g150
S'NCP'
tp890
F263
s(S'VP'
S'ADVVVPP'
tp891
F3
s(g867
S'PPADVNNP'
tp892
F1
s(g540
S'AAAPNP'
tp893
F1
s(S'NP'
S'ADVANDP'
tp894
F2
s(g107
S'ADVVP'
tp895
F2
s(g837
S'MPPNP'
tp896
F1
s(S'VP'
S'VAADP'
tp897
F3
s(S'AP'
S'AAMP'
tp898
F2
s(S'VP'
S'VADVADVADVDP'
tp899
F1
s(S'PP'
S'PPAAAP'
tp900
F1
s(S'MP'
S'MADVDNP'
tp901
F1
s(g53
S'AADADVPP'
tp902
F1
s(S'VP'
S'AAVVDP'
tp903
F1
s(g612
S'PPPADVDP'
tp904
F1
s(S'DP'
S'DADVNNP'
tp905
F1
s(S'VP'
S'VDDDP'
tp906
F2
s(g123
S'MNVP'
tp907
F3
s(g799
S'AANAP'
tp908
F1
s(S'NP'
p909
S'NNPP'
tp910
F20
s(S'VP'
p911
S'VAPP'
tp912
F12
s(S'MP'
S'MPPNNP'
tp913
F1
s(S'VP'
S'ADVVDP'
tp914
F12
s(S'DP'
S'DDADVADVADVPP'
tp915
F1
s(S'VP'
S'VADDP'
tp916
F1
s(S'DP'
S'DADVPP'
tp917
F18
s(S'AP'
S'AMP'
tp918
F23
s(S'CP'
S'CCADP'
tp919
F2
s(g175
S'ADVNNCP'
tp920
F2
s(S'PP'
S'ADVADVADVPNP'
tp921
F1
s(S'AP'
p922
S'ADVAPP'
tp923
F11
s(g830
S'AAANDP'
tp924
F1
s(g36
S'AACDP'
tp925
F4
s(S'NP'
S'NADVADVACP'
tp926
F1
s(S'CP'
S'CCDDDP'
tp927
F10
s(g405
S'CCCDP'
tp928
F6
s(g693
S'ADVDPPP'
tp929
F1
s(S'DP'
S'DVP'
tp930
F188
s(S'VP'
S'ADVVAP'
tp931
F5
s(g282
S'ADVADVADVVVNP'
tp932
F3
s(g922
S'AVP'
tp933
F26
s(S'NP'
S'NADVVP'
tp934
F7
s(g909
S'NNADVADVVP'
tp935
F1
s(S'MP'
S'MDDDNP'
tp936
F1
s(g301
S'DDPPP'
tp937
F26
s(S'NP'
S'ADVNMP'
tp938
F4
s(S'NP'
S'NNAP'
tp939
F7
s(g555
S'PPANP'
tp940
F3
s(S'PP'
S'PPCCP'
tp941
F1
s(S'CP'
S'CDADVPP'
tp942
F11
s(g483
S'VNP'
tp943
F143
s(S'MP'
S'MADVAVDP'
tp944
F2
s(S'VP'
S'VANP'
tp945
F13
s(g911
S'VADVAP'
tp946
F14
s(S'VP'
S'VADVADVADP'
tp947
F1
s(S'PP'
S'PPADVNP'
tp948
F1
s(S'CP'
S'ADVADVADVACDDP'
tp949
F1
s(S'DP'
S'DDDDVP'
tp950
F1
s(g390
S'AANNAP'
tp951
F1
s.