ccollections
defaultdict
p1
(c__builtin__
float
p2
tRp3
(S'VP'
S'VVAAAP'
tp4
F1
s(S'AP'
S'AADVPPP'
tp5
F1
s(S'NP'
S'AANDDP'
tp6
F1
s(S'PP'
S'PAAANP'
tp7
F2
s(S'DP'
S'ADDPP'
tp8
F2
s(S'DP'
S'DDAP'
tp9
F1
s(S'VP'
S'ADVVVNP'
tp10
F2
s(S'PP'
S'ADVADVADVPPVP'
tp11
F1
s(S'VP'
S'VVVVP'
tp12
F3
s(S'DP'
S'DAANNP'
tp13
F1
s(S'AP'
S'AVVVP'
tp14
F1
s(S'PP'
p15
S'ADVADVPAP'
tp16
F1
s(S'PP'
p17
S'PAPP'
tp18
F9
s(S'PP'
p19
S'PADVNP'
tp20
F22
s(S'DP'
p21
S'DNP'
tp22
F380
s(S'VP'
p23
S'VVADVCP'
tp24
F1
s(S'NP'
S'ADVNPPP'
tp25
F2
s(S'CP'
S'CDPPP'
tp26
F105
s(S'DP'
S'ADADVADVADVVVP'
tp27
F1
s(S'VP'
p28
S'VADP'
tp29
F24
s(S'DP'
p30
S'DNNNNP'
tp31
F2
s(S'DP'
S'ADVADPPP'
tp32
F1
s(S'DP'
S'DAAP'
tp33
F2
s(S'VP'
S'AAVPPP'
tp34
F1
s(S'PP'
S'PPPPPP'
tp35
F1
s(S'VP'
p36
S'VADVADVADVAP'
tp37
F2
s(S'VP'
S'VAVP'
tp38
F2
s(S'PP'
S'APPDP'
tp39
F1
s(S'VP'
S'ADVADVADVVVPP'
tp40
F1
s(S'DP'
p41
S'DAADP'
tp42
F1
s(S'DP'
S'ADNNP'
tp43
F3
s(S'VP'
p44
S'VADVVVP'
tp45
F1
s(S'MP'
S'MDVP'
tp46
F1
s(S'VP'
S'ADVVNP'
tp47
F18
s(S'MP'
p48
S'MVDP'
tp49
F31
s(S'PP'
p50
S'PADVANP'
tp51
F3
s(S'PP'
p52
S'PPPP'
tp53
F50
s(S'PP'
p54
S'PPCCCP'
tp55
F1
s(S'DP'
S'DDDNP'
tp56
F13
s(S'VP'
p57
S'VACP'
tp58
F7
s(S'AP'
S'AAAVP'
tp59
F1
s(g30
S'DADVVP'
tp60
F9
s(S'MP'
S'MMCP'
tp61
F1
s(S'PP'
p62
S'PADVNNP'
tp63
F2
s(S'AP'
S'AADVPP'
tp64
F1
s(S'NP'
p65
S'NAAVVP'
tp66
F2
s(S'NP'
S'NDDDP'
tp67
F1
s(S'NP'
S'NADVVVP'
tp68
F4
s(S'CP'
S'CADVADVDDPP'
tp69
F1
s(S'VP'
S'VCP'
tp70
F182
s(S'NP'
S'AANCCP'
tp71
F1
s(S'CP'
S'ADVCADVADVDDDP'
tp72
F1
s(S'NP'
p73
S'NMMP'
tp74
F8
s(S'DP'
p75
S'ADVADVDDVVP'
tp76
F1
s(S'VP'
p77
S'ADVVAAP'
tp78
F2
s(g41
S'DDDNNP'
tp79
F2
s(S'PP'
S'PAP'
tp80
F146
s(S'MP'
S'MMVVP'
tp81
F1
s(S'VP'
p82
S'VADVADVAP'
tp83
F4
s(S'NP'
S'ANNCCP'
tp84
F3
s(S'PP'
S'ADVPPVP'
tp85
F4
s(g62
S'APVVP'
tp86
F6
s(S'NP'
S'NAAAVP'
tp87
F2
s(S'MP'
S'AMVP'
tp88
F7
s(g62
S'PNP'
tp89
F343
s(S'VP'
S'VVNNNNNP'
tp90
F1
s(S'VP'
S'VVADVADVNP'
tp91
F1
s(S'NP'
p92
S'ADVADVADVNCP'
tp93
F1
s(S'VP'
S'AVNNNP'
tp94
F1
s(S'DP'
p95
S'DDP'
tp96
F81
s(S'VP'
S'ADVVDDP'
tp97
F2
s(S'NP'
p98
S'NNNPP'
tp99
F7
s(S'NP'
p100
S'NNDP'
tp101
F25
s(g48
S'MCDP'
tp102
F8
s(S'CP'
S'CDDDADVPP'
tp103
F1
s(S'CP'
S'AACCDP'
tp104
F1
s(S'DP'
S'DDAANP'
tp105
F1
s(S'MP'
S'MNAP'
tp106
F1
s(S'VP'
S'ADVADVVVCP'
tp107
F1
s(S'NP'
p108
S'NMP'
tp109
F90
s(S'VP'
S'VAAADP'
tp110
F1
s(S'VP'
S'AAVNP'
tp111
F3
s(g62
S'PDP'
tp112
F329
s(S'DP'
S'DDPPPPP'
tp113
F2
s(S'CP'
p114
S'CDADVADVPP'
tp115
F7
s(S'VP'
p116
S'VVVADVPP'
tp117
F1
s(S'NP'
S'ADVNVVP'
tp118
F4
s(S'VP'
p119
S'VNNNNP'
tp120
F2
s(S'MP'
p121
S'MNNVP'
tp122
F1
s(S'CP'
S'CDADVADVPPP'
tp123
F2
s(S'NP'
p124
S'NACCP'
tp125
F5
s(S'AP'
S'ANP'
tp126
F1
s(S'PP'
S'ADVPAAP'
tp127
F1
s(S'NP'
S'NADVADVADVVP'
tp128
F1
s(S'PP'
p129
S'PADVPP'
tp130
F8
s(S'NP'
S'NNADVCP'
tp131
F4
s(S'VP'
S'VVADVNP'
tp132
F1
s(S'PP'
p133
S'PPADVAP'
tp134
F2
s(S'VP'
S'VADVAAP'
tp135
F1
s(S'DP'
S'DPPPP'
tp136
F20
s(S'DP'
p137
S'DDANP'
tp138
F5
s(S'PP'
S'PADVADP'
tp139
F1
s(S'VP'
p140
S'VVP'
tp141
F88
s(S'AP'
S'ADVAVP'
tp142
F2
s(S'NP'
p143
S'NCCP'
tp144
F121
s(S'NP'
p145
S'ADVNDP'
tp146
F1
s(g54
S'APADVADVDP'
tp147
F1
s(S'NP'
p148
S'NADVADVDDP'
tp149
F3
s(S'VP'
S'VVVVVP'
tp150
F1
s(g143
S'NNCP'
tp151
F100
s(S'DP'
p152
S'ADVDDPP'
tp153
F8
s(S'NP'
S'NADVADVVP'
tp154
F3
s(S'DP'
S'DDDDP'
tp155
F7
s(S'DP'
S'DDADVADVPPP'
tp156
F1
s(S'VP'
p157
S'AVNP'
tp158
F13
s(S'VP'
S'VVADP'
tp159
F1
s(S'AP'
S'AAADVVP'
tp160
F1
s(S'PP'
S'ADVPVVP'
tp161
F2
s(S'VP'
S'VADVVP'
tp162
F3
s(S'NP'
S'ADVADVADVNMP'
tp163
F1
s(S'MP'
S'MVAPP'
tp164
F1
s(S'MP'
S'MVPPP'
tp165
F2
s(S'NP'
S'ANADVVP'
tp166
F1
s(S'DP'
S'ADVVVP'
tp167
F1
s(S'NP'
p168
S'NCCCCP'
tp169
F2
s(S'CP'
p170
S'CCCDP'
tp171
F8
s(g23
S'ADVVAP'
tp172
F7
s(S'PP'
S'ADVPPNNP'
tp173
F1
s(S'VP'
S'VCCCP'
tp174
F1
s(S'DP'
p175
S'DDADVADVADVPPP'
tp176
F1
s(S'PP'
p177
S'PADVVVP'
tp178
F1
s(S'PP'
p179
S'APDP'
tp180
F27
s(S'MP'
S'MNNVVP'
tp181
F1
s(S'VP'
S'ADVVNNP'
tp182
F4
s(S'AP'
S'AADVCP'
tp183
F1
s(S'NP'
S'ANNPP'
tp184
F1
s(S'MP'
S'MVADVVP'
tp185
F1
s(S'DP'
S'DDANNP'
tp186
F1
s(S'PP'
S'PPADVADVVVP'
tp187
F1
s(S'VP'
p188
S'VVANP'
tp189
F2
s(S'NP'
p190
S'NNADVDP'
tp191
F1
s(S'PP'
S'ADVPNNP'
tp192
F6
s(S'VP'
S'ADVVVP'
tp193
F1
s(S'CP'
S'CADADVPPP'
tp194
F1
s(S'NP'
S'NNMMMMP'
tp195
F1
s(S'DP'
S'DADVADVADVPP'
tp196
F2
s(S'CP'
S'CCCADP'
tp197
F1
s(S'NP'
S'ADVNCCP'
tp198
F2
s(g148
S'ADVANCP'
tp199
F3
s(g21
S'DNNP'
tp200
F128
s(S'CP'
S'CADVDDPP'
tp201
F4
s(g152
S'DPPPPP'
tp202
F7
s(S'CP'
p203
S'CDDPPPP'
tp204
F4
s(S'CP'
S'CCADVDP'
tp205
F4
s(g77
S'VVNNNP'
tp206
F1
s(S'VP'
p207
S'AAVDDP'
tp208
F2
s(S'NP'
S'NNNVP'
tp209
F5
s(S'MP'
S'MVADVADVADVAP'
tp210
F2
s(g57
S'VADVNNP'
tp211
F4
s(g124
S'ADVNNACP'
tp212
F1
s(S'PP'
p213
S'PADVVP'
tp214
F18
s(S'MP'
S'MVVDDP'
tp215
F3
s(S'PP'
p216
S'APAP'
tp217
F4
s(S'AP'
p218
S'APP'
tp219
F65
s(S'AP'
S'ACCCP'
tp220
F1
s(S'NP'
S'NADVMP'
tp221
F2
s(S'AP'
p222
S'AAP'
tp223
F8
s(S'VP'
p224
S'VVAPP'
tp225
F1
s(S'NP'
p226
S'ADVADVNDP'
tp227
F1
s(S'NP'
p228
S'ADVANPP'
tp229
F2
s(S'DP'
p230
S'DAAVP'
tp231
F3
s(S'CP'
S'CDDDDPP'
tp232
F3
s(S'PP'
p233
S'PAANP'
tp234
F4
s(g119
S'VADVADVCP'
tp235
F2
s(g100
S'ANVP'
tp236
F33
s(S'VP'
S'VAACP'
tp237
F3
s(S'NP'
p238
S'AANDDDDP'
tp239
F1
s(S'VP'
S'VVADVAAP'
tp240
F1
s(S'MP'
p241
S'MVNP'
tp242
F32
s(S'DP'
S'ADVADVDDP'
tp243
F1
s(S'CP'
S'ACADDP'
tp244
F1
s(S'AP'
p245
S'ADVAADP'
tp246
F3
s(S'MP'
S'ADVADVADVMVP'
tp247
F1
s(S'PP'
p248
S'PAVP'
tp249
F22
s(S'MP'
S'ADVMVP'
tp250
F2
s(S'MP'
S'MDANP'
tp251
F1
s(S'DP'
p252
S'DDAPPP'
tp253
F1
s(S'VP'
S'VVVPP'
tp254
F3
s(g148
S'NNADP'
tp255
F1
s(S'NP'
S'NNADVADVVVP'
tp256
F2
s(S'AP'
S'ADVACCP'
tp257
F2
s(S'DP'
S'DADP'
tp258
F3
s(S'AP'
S'ADVADP'
tp259
F10
s(S'CP'
S'ADVADVCDP'
tp260
F6
s(S'NP'
p261
S'ADVADVADVNNPP'
tp262
F1
s(S'DP'
p263
S'ADVDDP'
tp264
F2
s(S'PP'
S'APDDP'
tp265
F2
s(S'VP'
S'ADVADVVVNP'
tp266
F2
s(S'NP'
p267
S'ADVNAP'
tp268
F2
s(S'VP'
p269
S'VAP'
tp270
F185
s(S'PP'
S'PPCP'
tp271
F1
s(g121
S'MNNADVADVAP'
tp272
F1
s(g17
S'APVP'
tp273
F20
s(S'MP'
S'MNCP'
tp274
F2
s(S'VP'
p275
S'VVVVNP'
tp276
F4
s(S'VP'
S'VVNP'
tp277
F88
s(S'NP'
S'ANNP'
tp278
F1
s(S'PP'
p279
S'ADVPPPP'
tp280
F2
s(g62
S'PPVP'
tp281
F87
s(S'MP'
p282
S'MADVAADP'
tp283
F1
s(g269
S'VADVDP'
tp284
F14
s(S'MP'
S'MVVVPP'
tp285
F1
s(S'DP'
S'DDDPP'
tp286
F19
s(S'VP'
p287
S'VAAP'
tp288
F38
s(g73
S'NNADVAVP'
tp289
F1
s(S'NP'
p290
S'ANDP'
tp291
F19
s(S'NP'
p292
S'NVVP'
tp293
F89
s(S'PP'
p294
S'AAPVP'
tp295
F3
s(g50
S'PPADP'
tp296
F4
s(S'VP'
S'VVNNP'
tp297
F20
s(S'CP'
p298
S'CDAPP'
tp299
F32
s(g207
S'VVAAP'
tp300
F4
s(g54
S'ADVPMP'
tp301
F3
s(S'CP'
S'CADVADPP'
tp302
F2
s(S'VP'
S'ADVADVVVNNP'
tp303
F1
s(g230
S'ADNP'
tp304
F28
s(S'AP'
S'ADVAAP'
tp305
F1
s(g77
S'ADVAVNNNNP'
tp306
F1
s(S'PP'
S'PPPPAP'
tp307
F1
s(S'PP'
S'PADP'
tp308
F17
s(S'VP'
S'AAAVADVPPP'
tp309
F1
s(S'VP'
p310
S'ADVVVCP'
tp311
F6
s(S'NP'
S'ANDDP'
tp312
F2
s(S'CP'
p313
S'CDDADVADVADVPPP'
tp314
F1
s(g310
S'VVVDDP'
tp315
F3
s(g21
S'DAPP'
tp316
F54
s(S'VP'
S'AVVP'
tp317
F1
s(S'VP'
p318
S'VADVADVNP'
tp319
F3
s(S'VP'
p320
S'ADVADVADVVDP'
tp321
F1
s(S'VP'
S'ADVADVVDP'
tp322
F3
s(S'AP'
S'ADVAVVVVP'
tp323
F1
s(g62
S'PPPDP'
tp324
F6
s(S'AP'
p325
S'AAPPP'
tp326
F3
s(S'VP'
S'VDDDDP'
tp327
F1
s(S'DP'
p328
S'DAAANP'
tp329
F2
s(g230
S'DADVANP'
tp330
F1
s(S'NP'
S'ANADVVVP'
tp331
F2
s(S'VP'
S'VAAPP'
tp332
F2
s(S'DP'
p333
S'ADVDNP'
tp334
F15
s(S'PP'
S'PADVAAP'
tp335
F1
s(S'AP'
S'ADVADVADVAVP'
tp336
F2
s(S'VP'
p337
S'VVPP'
tp338
F48
s(S'CP'
S'AACDDP'
tp339
F1
s(S'MP'
S'MVPP'
tp340
F16
s(S'DP'
p341
S'ADVP'
tp342
F16
s(S'CP'
p343
S'CDDPPP'
tp344
F19
s(S'NP'
S'NNADVADVAP'
tp345
F1
s(S'MP'
p346
S'ADVMVVP'
tp347
F1
s(S'CP'
S'CCCADDP'
tp348
F1
s(g292
S'NNPP'
tp349
F39
s(S'NP'
S'NADVADVDP'
tp350
F2
s(S'CP'
S'CCCADVDP'
tp351
F1
s(g341
S'DDDDNP'
tp352
F3
s(S'MP'
S'MVVDP'
tp353
F5
s(S'DP'
p354
S'DADVPPP'
tp355
F5
s(g179
S'PPVVP'
tp356
F17
s(S'DP'
p357
S'DNNNP'
tp358
F9
s(S'MP'
S'MVADVCP'
tp359
F1
s(g41
S'ADVDDVP'
tp360
F2
s(S'CP'
S'CAADDPPP'
tp361
F1
s(S'PP'
S'PADVADVVP'
tp362
F2
s(S'VP'
S'VADVDDP'
tp363
F1
s(S'DP'
S'ADVADPP'
tp364
F2
s(S'VP'
p365
S'ADVVCP'
tp366
F8
s(g15
S'PVVVP'
tp367
F6
s(S'PP'
p368
S'PMP'
tp369
F32
s(g190
S'NNMMP'
tp370
F3
s(S'DP'
S'ADADVAP'
tp371
F1
s(S'CP'
S'CCDP'
tp372
F167
s(S'NP'
S'ADVNNDP'
tp373
F1
s(g57
S'VADVANP'
tp374
F3
s(S'PP'
S'PPNNNP'
tp375
F3
s(g263
S'AADDPP'
tp376
F5
s(S'PP'
p377
S'ADVADVPPPP'
tp378
F1
s(S'NP'
S'NVVVP'
tp379
F13
s(S'CP'
S'CDDDPP'
tp380
F10
s(S'CP'
S'CDAAPP'
tp381
F4
s(S'VP'
S'VVVDP'
tp382
F13
s(g233
S'PDDDDP'
tp383
F1
s(g179
S'PNNNP'
tp384
F10
s(S'MP'
S'MVVVAP'
tp385
F1
s(S'CP'
p386
S'CCCCDP'
tp387
F2
s(S'AP'
S'AACCP'
tp388
F2
s(S'PP'
S'AAPNP'
tp389
F2
s(S'PP'
S'AAPADVDP'
tp390
F1
s(S'PP'
p391
S'ADVPCCP'
tp392
F1
s(g62
S'PPP'
tp393
F165
s(S'NP'
S'NNVVP'
tp394
F34
s(S'NP'
p395
S'NAVP'
tp396
F20
s(g357
S'ADVADVDDNP'
tp397
F3
s(S'DP'
S'DDNNNP'
tp398
F1
s(S'VP'
S'VVVVCCP'
tp399
F1
s(g30
S'ADVDVP'
tp400
F10
s(S'NP'
p401
S'NAAAP'
tp402
F1
s(S'NP'
S'NCCCP'
tp403
F7
s(S'DP'
p404
S'DADVADVPPP'
tp405
F2
s(S'CP'
S'CCADVADVADVDP'
tp406
F1
s(S'PP'
S'PPPPDP'
tp407
F1
s(S'VP'
S'ADVADVVVPP'
tp408
F1
s(g252
S'ADVADVDNP'
tp409
F3
s(S'AP'
S'AAADVCP'
tp410
F1
s(g287
S'VPP'
tp411
F216
s(S'MP'
S'AAMVP'
tp412
F1
s(S'CP'
p413
S'ADVCCDP'
tp414
F7
s(S'CP'
S'CADVDAPP'
tp415
F1
s(S'CP'
p416
S'ACCDP'
tp417
F5
s(S'AP'
S'AAAACP'
tp418
F1
s(S'NP'
p419
S'NNNCP'
tp420
F8
s(g368
S'PADVDP'
tp421
F14
s(S'CP'
S'CDADVAPP'
tp422
F1
s(S'MP'
S'MVAACP'
tp423
F1
s(S'DP'
S'DANNP'
tp424
F2
s(S'MP'
p425
S'MADVVAP'
tp426
F2
s(S'NP'
S'NADVAVP'
tp427
F2
s(g298
S'CDDPP'
tp428
F100
s(S'DP'
S'DAAPP'
tp429
F10
s(g62
S'PVVP'
tp430
F78
s(g170
S'CADPPP'
tp431
F7
s(S'AP'
p432
S'AACP'
tp433
F14
s(S'DP'
S'ADVADNP'
tp434
F1
s(g213
S'PMMP'
tp435
F4
s(S'PP'
S'ADVPPAP'
tp436
F1
s(g287
S'VPPP'
tp437
F35
s(S'VP'
S'AVCCP'
tp438
F1
s(S'VP'
p439
S'VVPPP'
tp440
F7
s(S'PP'
S'PPAP'
tp441
F16
s(S'DP'
p442
S'DVVP'
tp443
F55
s(S'PP'
p444
S'PADVAVP'
tp445
F3
s(S'DP'
S'DDDADVPPP'
tp446
F1
s(S'CP'
S'CDDAAPP'
tp447
F2
s(S'AP'
S'APPP'
tp448
F3
s(g19
S'ADVPPP'
tp449
F6
s(S'DP'
S'ADVDADVADVCCCP'
tp450
F1
s(g261
S'ADVADVNVP'
tp451
F4
s(g116
S'VVVP'
tp452
F18
s(S'DP'
p453
S'DDPPPP'
tp454
F4
s(S'NP'
S'ADVADVNNVP'
tp455
F2
s(S'VP'
S'VVADVPPP'
tp456
F1
s(S'VP'
S'ADVVMMP'
tp457
F1
s(g143
S'ANCP'
tp458
F43
s(S'DP'
S'DCP'
tp459
F23
s(g401
S'ANNCP'
tp460
F3
s(S'VP'
S'ADVVCCP'
tp461
F2
s(S'VP'
S'ADVVVVP'
tp462
F1
s(S'DP'
S'DADVCP'
tp463
F1
s(S'DP'
S'DDDP'
tp464
F18
s(S'AP'
S'ADDDDP'
tp465
F1
s(S'DP'
S'DDADVPP'
tp466
F6
s(S'CP'
S'CADVADVADPP'
tp467
F1
s(S'MP'
S'MAADP'
tp468
F2
s(S'NP'
S'ANVVP'
tp469
F8
s(g287
S'VVDP'
tp470
F81
s(S'NP'
S'NPPP'
tp471
F48
s(S'PP'
S'ADVADVPPDDP'
tp472
F1
s(S'DP'
p473
S'ADDDP'
tp474
F3
s(S'DP'
p475
S'AADVVP'
tp476
F1
s(g222
S'AAADP'
tp477
F9
s(g95
S'DAVP'
tp478
F11
s(S'VP'
S'AVVVP'
tp479
F1
s(g328
S'DDADVADVPP'
tp480
F2
s(S'NP'
p481
S'NNNNMP'
tp482
F1
s(S'AP'
S'ACP'
tp483
F83
s(S'PP'
S'AAPAP'
tp484
F2
s(S'PP'
S'ADVADVPPP'
tp485
F1
s(g279
S'PADVADVNNP'
tp486
F1
s(g62
S'PPNP'
tp487
F97
s(S'PP'
p488
S'APPPP'
tp489
F2
s(S'NP'
S'NAADP'
tp490
F1
s(S'DP'
S'ADVDAPP'
tp491
F3
s(S'MP'
S'MMMMVP'
tp492
F1
s(S'DP'
p493
S'AADVP'
tp494
F5
s(S'PP'
S'PPPPDDP'
tp495
F2
s(g413
S'CDDADVPP'
tp496
F3
s(S'AP'
S'ADP'
tp497
F268
s(S'PP'
p498
S'APMP'
tp499
F1
s(g114
S'CADVDPP'
tp500
F20
s(S'DP'
S'ADDP'
tp501
F1
s(S'NP'
S'ANPPP'
tp502
F3
s(S'DP'
p503
S'DVVVVP'
tp504
F1
s(S'PP'
S'PPPPNNP'
tp505
F1
s(S'VP'
S'VVPPPP'
tp506
F1
s(S'DP'
S'DDVVVP'
tp507
F1
s(S'PP'
S'PPMP'
tp508
F3
s(S'NP'
p509
S'ANNVP'
tp510
F3
s(S'VP'
p511
S'VVAP'
tp512
F24
s(g419
S'NNAPP'
tp513
F1
s(S'DP'
S'DDDCP'
tp514
F1
s(g157
S'ADVADVADVADVVVCP'
tp515
F2
s(g52
S'PPADVVP'
tp516
F2
s(S'VP'
S'AAVNNP'
tp517
F1
s(S'DP'
S'AADDPPP'
tp518
F1
s(g143
S'NPP'
tp519
F265
s(S'PP'
p520
S'PPPPNP'
tp521
F4
s(g143
S'NVP'
tp522
F378
s(S'PP'
S'PPVVVP'
tp523
F2
s(S'PP'
p524
S'PAAVP'
tp525
F4
s(g145
S'NAAPP'
tp526
F1
s(S'PP'
S'PPPPVP'
tp527
F2
s(S'DP'
S'DDDDNNP'
tp528
F1
s(g511
S'VDDP'
tp529
F78
s(S'DP'
p530
S'DMP'
tp531
F6
s(S'DP'
p532
S'DADVAPP'
tp533
F2
s(S'DP'
S'DDADVADVNNP'
tp534
F1
s(S'DP'
S'AADDNP'
tp535
F1
s(g143
S'ANPP'
tp536
F27
s(g54
S'ADVPPDP'
tp537
F3
s(g233
S'PPPPP'
tp538
F13
s(S'PP'
S'ADVADVPDP'
tp539
F1
s(S'PP'
S'ADVADVPADP'
tp540
F1
s(g241
S'MVVPP'
tp541
F2
s(S'PP'
S'PPPNP'
tp542
F10
s(S'PP'
S'PPVVVVP'
tp543
F1
s(S'AP'
S'AAADVCCP'
tp544
F2
s(S'AP'
S'ADVADVAVP'
tp545
F2
s(S'VP'
p546
S'VVADVNNP'
tp547
F1
s(g92
S'NADVAAP'
tp548
F1
s(S'NP'
S'NNCCCCP'
tp549
F1
s(S'MP'
S'MVAADP'
tp550
F1
s(g386
S'CAADPP'
tp551
F6
s(S'DP'
S'DADVADVVP'
tp552
F3
s(S'NP'
S'NAACP'
tp553
F3
s(g62
S'PNNP'
tp554
F92
s(S'NP'
p555
S'AAANADVVVP'
tp556
F1
s(S'PP'
S'APNNP'
tp557
F3
s(S'DP'
S'DDAAP'
tp558
F2
s(S'DP'
S'ADVADVDDDP'
tp559
F1
s(S'MP'
S'MMNP'
tp560
F2
s(S'DP'
S'AAADPP'
tp561
F1
s(g224
S'VVADVADVDDP'
tp562
F2
s(g439
S'AVAP'
tp563
F3
s(S'MP'
S'MMVP'
tp564
F15
s(S'CP'
S'CADVADPPP'
tp565
F1
s(g98
S'ADVNCP'
tp566
F21
s(g218
S'AADP'
tp567
F62
s(S'NP'
p568
S'NAPPP'
tp569
F1
s(g298
S'ACDP'
tp570
F25
s(g19
S'PAAP'
tp571
F27
s(S'CP'
S'CCCCDDP'
tp572
F1
s(S'MP'
S'MDNNP'
tp573
F1
s(S'CP'
S'CDADVPPP'
tp574
F3
s(S'DP'
S'ADVDDDP'
tp575
F1
s(S'PP'
S'AAPNNNNP'
tp576
F1
s(S'MP'
S'MNVVP'
tp577
F1
s(S'VP'
S'VVADVAP'
tp578
F1
s(g416
S'ADVCDDP'
tp579
F3
s(g267
S'AANNCP'
tp580
F1
s(g290
S'ANADVCP'
tp581
F1
s(g294
S'PAAPP'
tp582
F1
s(S'NP'
S'NNPPPPP'
tp583
F1
s(S'DP'
S'DDDPPP'
tp584
F2
s(g36
S'ADVAVDP'
tp585
F3
s(S'DP'
p586
S'ADAP'
tp587
F1
s(S'DP'
S'DADVDP'
tp588
F4
s(S'NP'
S'ADVADVANCCP'
tp589
F1
s(S'AP'
S'AAACP'
tp590
F2
s(S'VP'
S'ADVVVDP'
tp591
F5
s(S'PP'
S'PAAMP'
tp592
F1
s(S'PP'
p593
S'PPPVP'
tp594
F5
s(g218
S'AADDP'
tp595
F4
s(g175
S'AADPPPP'
tp596
F1
s(S'MP'
p597
S'MADVVANNP'
tp598
F1
s(g546
S'VAANP'
tp599
F6
s(S'NP'
S'NAADDP'
tp600
F2
s(S'NP'
p601
S'NADVADVCP'
tp602
F4
s(S'DP'
S'AAADDP'
tp603
F1
s(S'NP'
S'NVVVVP'
tp604
F4
s(S'DP'
S'DADVADVDP'
tp605
F1
s(S'MP'
S'AMVVP'
tp606
F1
s(g346
S'MADP'
tp607
F1
s(g177
S'PPPDDP'
tp608
F2
s(S'VP'
S'AAVVNP'
tp609
F1
s(S'DP'
S'DDADVNP'
tp610
F3
s(g62
S'PANP'
tp611
F34
s(S'PP'
S'PDDDP'
tp612
F5
s(S'DP'
S'DADVADVNNP'
tp613
F1
s(S'MP'
S'MVVPPP'
tp614
F1
s(S'NP'
S'AANMP'
tp615
F1
s(S'AP'
S'AAVP'
tp616
F11
s(S'AP'
S'AVVP'
tp617
F12
s(g493
S'AADDDP'
tp618
F1
s(g108
S'NDDP'
tp619
F31
s(S'PP'
S'PADVMP'
tp620
F1
s(S'DP'
S'ADVADVDPPP'
tp621
F1
s(g432
S'ACCP'
tp622
F11
s(S'DP'
S'DDDADVPP'
tp623
F1
s(g365
S'AVPPP'
tp624
F2
s(g143
S'NDP'
tp625
F176
s(S'VP'
S'ADVVANP'
tp626
F1
s(S'NP'
S'AAANVP'
tp627
F1
s(g597
S'MVAAP'
tp628
F3
s(g530
S'DDVP'
tp629
F52
s(S'DP'
S'ADADVPPP'
tp630
F1
s(g168
S'AANVP'
tp631
F10
s(g21
S'ADDVP'
tp632
F1
s(g28
S'VNNNP'
tp633
F7
s(S'PP'
S'ADVPAP'
tp634
F3
s(S'PP'
p635
S'PPPPVVP'
tp636
F1
s(S'PP'
p637
S'PCP'
tp638
F23
s(g238
S'NNPPP'
tp639
F6
s(S'PP'
S'PAADDP'
tp640
F2
s(g238
S'NADVADVADVMP'
tp641
F1
s(S'PP'
p642
S'PAADP'
tp643
F12
s(g143
S'ADVNNVP'
tp644
F3
s(g287
S'VPPPP'
tp645
F5
s(g601
S'ADVNNPP'
tp646
F2
s(S'VP'
S'VCCP'
tp647
F31
s(S'NP'
S'NNNDP'
tp648
F4
s(S'AP'
S'ADVACP'
tp649
F3
s(S'NP'
p650
S'ADVADVNMP'
tp651
F1
s(S'VP'
S'VVVAP'
tp652
F3
s(S'DP'
S'ADPPP'
tp653
F9
s(S'NP'
S'NNAAVP'
tp654
F1
s(S'MP'
p655
S'MVCP'
tp656
F2
s(g298
S'CCDDP'
tp657
F36
s(S'VP'
S'AVNNP'
tp658
F2
s(S'NP'
S'NNADVVP'
tp659
F4
s(g216
S'PPADVADVVP'
tp660
F1
s(S'VP'
S'ADVADVADVVPP'
tp661
F2
s(g108
S'NAAP'
tp662
F17
s(S'NP'
S'NAACCP'
tp663
F1
s(g391
S'PPAAP'
tp664
F4
s(S'NP'
S'NNNNVP'
tp665
F3
s(g269
S'VVCP'
tp666
F43
s(g328
S'ADVDMP'
tp667
F1
s(g100
S'AANCP'
tp668
F14
s(g511
S'VADVNP'
tp669
F16
s(g207
S'VVDDDP'
tp670
F5
s(S'AP'
S'ADVAVVP'
tp671
F2
s(S'MP'
S'MVVADVADVNP'
tp672
F1
s(g637
S'APPP'
tp673
F8
s(S'VP'
S'ADVVPP'
tp674
F5
s(S'CP'
S'CADVADVADVDDPP'
tp675
F1
s(S'CP'
p676
S'CDAPPP'
tp677
F2
s(S'VP'
p678
S'VNNP'
tp679
F79
s(g245
S'AADVDP'
tp680
F9
s(g419
S'NADP'
tp681
F8
s(S'CP'
S'ADVCCDDP'
tp682
F1
s(g21
S'DDNP'
tp683
F102
s(S'CP'
S'ACADVDP'
tp684
F3
s(g395
S'NADVCP'
tp685
F16
s(g341
S'DDNNP'
tp686
F18
s(S'PP'
S'AAPPP'
tp687
F2
s(S'VP'
S'VPPPPP'
tp688
F2
s(S'VP'
S'ADVAVPP'
tp689
F1
s(S'PP'
S'PADVADVVVP'
tp690
F1
s(g509
S'ADVANVP'
tp691
F2
s(S'CP'
S'CCCADVDDP'
tp692
F1
s(S'NP'
S'ADVADVNCP'
tp693
F2
s(g41
S'AADPP'
tp694
F9
s(g377
S'APPNP'
tp695
F1
s(S'NP'
S'NNNNPP'
tp696
F2
s(g488
S'AAPDP'
tp697
F5
s(g65
S'NADVADVCCP'
tp698
F1
s(S'MP'
S'MVVNP'
tp699
F2
s(g203
S'CDDADVPPP'
tp700
F1
s(S'NP'
S'AAANCP'
tp701
F2
s(S'DP'
p702
S'ADVDNNP'
tp703
F7
s(g416
S'ACDDP'
tp704
F3
s(g481
S'ADVADVNNCP'
tp705
F1
s(S'AP'
S'AADVADVDDP'
tp706
F1
s(g218
S'AAPP'
tp707
F12
s(S'VP'
S'VVCCP'
tp708
F7
s(g175
S'DMMP'
tp709
F1
s(g313
S'ADVCAADP'
tp710
F1
s(S'DP'
S'DADVVVP'
tp711
F5
s(S'DP'
S'DADVADVNP'
tp712
F2
s(g520
S'ADVPANP'
tp713
F1
s(S'VP'
S'VVVCCP'
tp714
F1
s(g419
S'NAPP'
tp715
F18
s(S'PP'
p716
S'APPVP'
tp717
F3
s(S'AP'
S'ADVADVADP'
tp718
F2
s(g601
S'NADVDP'
tp719
F5
s(S'VP'
S'VVVCP'
tp720
F5
s(g473
S'ADVDANNP'
tp721
F1
s(g228
S'ANCCP'
tp722
F10
s(S'NP'
S'AANPP'
tp723
F3
s(g188
S'VDDDP'
tp724
F8
s(S'NP'
S'NNMP'
tp725
F11
s(S'DP'
S'DDDVP'
tp726
F2
s(S'VP'
S'AAVPP'
tp727
F1
s(S'VP'
S'VADVADVADVPPP'
tp728
F1
s(S'PP'
S'PAAAP'
tp729
F4
s(g133
S'ADVADVPNP'
tp730
F2
s(g524
S'PPPAP'
tp731
F1
s(g386
S'CDDAPP'
tp732
F4
s(S'MP'
S'MVAP'
tp733
F16
s(g62
S'PVP'
tp734
F351
s(S'VP'
S'VADVPPP'
tp735
F2
s(g325
S'ADVADVAPP'
tp736
F2
s(S'VP'
S'VVAAAAP'
tp737
F1
s(S'VP'
S'VVVVDP'
tp738
F2
s(S'VP'
S'VADVCCP'
tp739
F2
s(S'CP'
S'ACDDDP'
tp740
F1
s(S'AP'
S'AADVDDP'
tp741
F1
s(S'NP'
S'NNNNNVP'
tp742
F1
s(S'AP'
S'ADVAACP'
tp743
F2
s(g137
S'DVVVP'
tp744
F9
s(g498
S'PADVAP'
tp745
F3
s(g292
S'ADVADVANVP'
tp746
F2
s(S'NP'
S'NNADVADVPPP'
tp747
F1
s(g54
S'PPDDP'
tp748
F16
s(S'VP'
S'AVCP'
tp749
F6
s(S'NP'
p750
S'NADVADVAP'
tp751
F1
s(g21
S'DPP'
tp752
F448
s(g650
S'ADVNVP'
tp753
F16
s(S'CP'
S'CDADVADVADVPP'
tp754
F2
s(g21
S'DDPP'
tp755
F154
s(g453
S'DDADVPPP'
tp756
F1
s(g41
S'DDAVP'
tp757
F4
s(g230
S'DANP'
tp758
F66
s(S'NP'
S'NADVPP'
tp759
F3
s(S'PP'
S'ADVADVADVPPDP'
tp760
F1
s(g168
S'NAAVP'
tp761
F6
s(S'DP'
p762
S'ADVADVADPP'
tp763
F1
s(g341
S'AADNP'
tp764
F7
s(g143
S'NACP'
tp765
F22
s(S'VP'
S'VADVCP'
tp766
F6
s(S'NP'
S'NNNNCP'
tp767
F1
s(g750
S'NADVCCP'
tp768
F3
s(S'MP'
S'MNAVP'
tp769
F1
s(g228
S'NNNVVP'
tp770
F4
s(S'CP'
S'CADVADVDADVPP'
tp771
F1
s(S'PP'
p772
S'PADVPPP'
tp773
F4
s(S'PP'
S'AAPNNP'
tp774
F1
s(S'DP'
S'DCCP'
tp775
F5
s(S'DP'
S'AADDP'
tp776
F2
s(S'CP'
p777
S'CDPPPPP'
tp778
F4
s(S'MP'
S'MADVVDP'
tp779
F3
s(g75
S'DDADVNNP'
tp780
F1
s(g216
S'PDDP'
tp781
F72
s(S'MP'
S'MVDDP'
tp782
F1
s(S'PP'
S'ADVAPNP'
tp783
F1
s(S'DP'
S'ADVADVDADVPP'
tp784
F1
s(g143
S'NNVP'
tp785
F121
s(S'NP'
S'NADVADVVVP'
tp786
F1
s(S'PP'
S'PPPMP'
tp787
F2
s(g337
S'AVDP'
tp788
F25
s(S'NP'
S'NNP'
tp789
F2
s(g287
S'VVDDP'
tp790
F11
s(S'VP'
S'VAADDP'
tp791
F1
s(g41
S'DAANP'
tp792
F18
s(g432
S'ADDP'
tp793
F35
s(S'PP'
S'PNNNNP'
tp794
F2
s(g44
S'ADVVVAP'
tp795
F1
s(S'PP'
S'ADVPPNP'
tp796
F6
s(g320
S'VADVADVADVVP'
tp797
F1
s(S'NP'
S'ADVNCCCP'
tp798
F1
s(S'MP'
p799
S'MDAP'
tp800
F1
s(S'CP'
S'CADVADVDPP'
tp801
F4
s(S'DP'
S'DPPP'
tp802
F157
s(S'DP'
S'AADPPP'
tp803
F2
s(S'CP'
S'ADVADVADVCCDP'
tp804
F1
s(S'PP'
p805
S'ADVADVPPNP'
tp806
F2
s(S'AP'
S'AAAP'
tp807
F2
s(S'NP'
S'NNAVP'
tp808
F2
s(S'PP'
S'PPPANP'
tp809
F2
s(g368
S'ADVPNP'
tp810
F12
s(S'VP'
S'AAAVAP'
tp811
F1
s(S'PP'
p812
S'PPDP'
tp813
F67
s(S'AP'
S'ADVADVACCCP'
tp814
F1
s(g333
S'ADVDDADVPP'
tp815
F1
s(S'PP'
p816
S'ADVADVADVPVP'
tp817
F1
s(g586
S'ADVDCP'
tp818
F1
s(S'NP'
S'NADVADVADVPP'
tp819
F1
s(S'DP'
S'DDCP'
tp820
F2
s(S'VP'
S'VMMMP'
tp821
F1
s(g637
S'PPADVDDP'
tp822
F1
s(S'AP'
S'AAAPP'
tp823
F2
s(g143
S'NAP'
tp824
F102
s(S'VP'
S'VAAAP'
tp825
F2
s(g568
S'NPPPP'
tp826
F1
s(S'VP'
S'ADVAVNP'
tp827
F1
s(g248
S'ADVPADP'
tp828
F1
s(g41
S'DDAPP'
tp829
F5
s(g812
S'ADVADVPVP'
tp830
F4
s(S'PP'
S'PADVADVANP'
tp831
F2
s(g62
S'APNP'
tp832
F30
s(S'VP'
S'VVVNNP'
tp833
F3
s(S'NP'
S'ADVNPP'
tp834
F4
s(g503
S'DDVVP'
tp835
F5
s(S'VP'
S'VVVNP'
tp836
F10
s(S'DP'
S'ADVADVADVDPPP'
tp837
F1
s(S'VP'
S'AVPPPP'
tp838
F1
s(S'NP'
S'NAMP'
tp839
F7
s(g282
S'MVANP'
tp840
F1
s(g530
S'ADVADVDDPP'
tp841
F2
s(S'MP'
S'MVNNP'
tp842
F2
s(g298
S'CDPP'
tp843
F397
s(S'MP'
S'MMMNP'
tp844
F1
s(S'CP'
S'ADVADVCCCDP'
tp845
F1
s(S'AP'
S'ADDDP'
tp846
F1
s(g413
S'ADVCADP'
tp847
F1
s(g404
S'ADADVADVPP'
tp848
F1
s(S'VP'
S'VADVADVADVADVADVNNP'
tp849
F1
s(g114
S'ADVCDP'
tp850
F25
s(g391
S'AAPVVP'
tp851
F2
s(g224
S'ADVADVVNP'
tp852
F5
s(g816
S'ADVPPPPP'
tp853
F1
s(S'VP'
S'VAAVP'
tp854
F1
s(g716
S'PADVADVDP'
tp855
F2
s(S'VP'
S'ADVADVVCP'
tp856
F2
s(S'VP'
S'VADVADVDP'
tp857
F1
s(g444
S'PPNNP'
tp858
F16
s(S'PP'
S'ADVAPPP'
tp859
F1
s(S'CP'
S'CAADDPP'
tp860
F2
s(S'DP'
S'ADVADVDPP'
tp861
F5
s(g287
S'VDP'
tp862
F357
s(S'NP'
S'NADVAP'
tp863
F4
s(g140
S'AVDDP'
tp864
F3
s(S'PP'
S'ADVADVPPNNP'
tp865
F1
s(g702
S'DADVNP'
tp866
F16
s(g21
S'DAP'
tp867
F41
s(g343
S'CADPP'
tp868
F39
s(S'DP'
S'ADVADVDVVP'
tp869
F1
s(S'CP'
S'CADVDDADVPP'
tp870
F1
s(g233
S'PPAVP'
tp871
F3
s(S'PP'
S'PPDDDP'
tp872
F2
s(g224
S'AVPP'
tp873
F7
s(S'CP'
S'CAADPPP'
tp874
F1
s(S'DP'
S'DDNNNNP'
tp875
F2
s(S'VP'
S'VVADVDP'
tp876
F5
s(S'NP'
p877
S'NNNDDDDP'
tp878
F1
s(S'CP'
S'CDDPPPPP'
tp879
F1
s(S'CP'
S'CDPPPP'
tp880
F15
s(g28
S'AAVDP'
tp881
F6
s(S'NP'
S'NNADVCCP'
tp882
F1
s(g877
S'NNDDP'
tp883
F3
s(S'MP'
S'MVANNP'
tp884
F1
s(S'DP'
p885
S'DAPPP'
tp886
F4
s(S'DP'
p887
S'DADVADVPP'
tp888
F9
s(S'NP'
S'NNNNDP'
tp889
F3
s(g676
S'CCADP'
tp890
F3
s(S'DP'
S'ADVDPP'
tp891
F35
s(g44
S'VANNP'
tp892
F3
s(S'PP'
S'PPAANP'
tp893
F2
s(S'PP'
S'PADVADVNP'
tp894
F2
s(g475
S'ADVADVADVDDPP'
tp895
F1
s(g442
S'ADPP'
tp896
F54
s(S'NP'
S'NNADVVVP'
tp897
F2
s(S'NP'
p898
S'NADVADVADVCCP'
tp899
F1
s(g28
S'VADVPP'
tp900
F4
s(S'DP'
S'DDAAPP'
tp901
F4
s(S'DP'
S'ADVDANP'
tp902
F2
s(g777
S'CCADVDDP'
tp903
F2
s(g129
S'ADVPVP'
tp904
F19
s(g702
S'DDDDPP'
tp905
F3
s(S'VP'
S'AAVAAP'
tp906
F2
s(S'NP'
S'NNVVVP'
tp907
F4
s(S'PP'
S'PADVADVADVNP'
tp908
F2
s(g444
S'PAMP'
tp909
F1
s(S'PP'
S'ADVPDP'
tp910
F7
s(g593
S'PPPVVP'
tp911
F1
s(S'PP'
S'PPDDDDP'
tp912
F1
s(S'MP'
S'MVADVAP'
tp913
F1
s(g143
S'NCP'
tp914
F366
s(S'VP'
S'AAVVDDP'
tp915
F1
s(g114
S'CADVDPPP'
tp916
F7
s(S'VP'
S'ADVVVPP'
tp917
F3
s(S'PP'
S'PPPAPP'
tp918
F1
s(S'DP'
S'DDADVVVP'
tp919
F1
s(g30
S'ADVVP'
tp920
F1
s(S'CP'
S'CDDADVADVPP'
tp921
F2
s(g140
S'VAADP'
tp922
F5
s(g425
S'MADVDNP'
tp923
F1
s(g555
S'AANDP'
tp924
F3
s(g532
S'DADVNNP'
tp925
F6
s(S'VP'
S'VADVADVANP'
tp926
F1
s(S'NP'
S'NNCCP'
tp927
F27
s(S'MP'
S'MNVP'
tp928
F16
s(S'CP'
S'ADVADVCCDP'
tp929
F1
s(S'VP'
S'ADVVANNP'
tp930
F2
s(g812
S'PADVADVAP'
tp931
F2
s(g511
S'VAPP'
tp932
F10
s(S'MP'
S'MAVNP'
tp933
F1
s(S'VP'
S'ADVVVMMP'
tp934
F1
s(g82
S'ADVVDP'
tp935
F27
s(g354
S'DDADVADVADVPP'
tp936
F1
s(S'MP'
S'MAVDP'
tp937
F1
s(g41
S'DADVPP'
tp938
F35
s(S'AP'
S'AMP'
tp939
F2
s(S'NP'
S'AANVVP'
tp940
F3
s(S'NP'
S'ADVNNCP'
tp941
F7
s(S'PP'
S'ADVADVADVPNNP'
tp942
F1
s(g642
S'ADVADVADVPNP'
tp943
F2
s(S'AP'
S'ADVAPP'
tp944
F5
s(g805
S'ADVADVPVVP'
tp945
F2
s(g772
S'ADVPPVVP'
tp946
F1
s(S'PP'
S'ADVPAAADP'
tp947
F1
s(g762
S'ADVDAVP'
tp948
F1
s(g777
S'AACDP'
tp949
F6
s(S'CP'
S'CCDDDP'
tp950
F7
s(g887
S'ADVDPPP'
tp951
F8
s(g21
S'DVP'
tp952
F303
s(g395
S'NADVADVADVADVVVP'
tp953
F2
s(S'AP'
S'AADVADVPP'
tp954
F1
s(S'AP'
S'AVP'
tp955
F62
s(g885
S'DDDDVP'
tp956
F2
s(S'NP'
S'NADVVP'
tp957
F26
s(g898
S'NNADVADVVP'
tp958
F1
s(S'DP'
S'ADVADVDDDPP'
tp959
F1
s(g190
S'ADVADVADVADVADVNNPP'
tp960
F1
s(g226
S'NNNMP'
tp961
F2
s(g275
S'ADVVPPP'
tp962
F2
s(g21
S'DDPPP'
tp963
F29
s(S'NP'
S'NNNMMP'
tp964
F1
s(g108
S'ADVNMP'
tp965
F7
s(S'NP'
S'NNAP'
tp966
F13
s(g655
S'MADVVCP'
tp967
F3
s(g635
S'PPANP'
tp968
F2
s(g799
S'MCDDP'
tp969
F2
s(S'PP'
S'PPCCP'
tp970
F2
s(S'CP'
S'CDADVPP'
tp971
F24
s(g287
S'VNP'
tp972
F348
s(g140
S'VANP'
tp973
F20
s(g678
S'VADVAP'
tp974
F12
s(S'PP'
S'PPADVNP'
tp975
F1
s(g318
S'VVADVADVADVNNP'
tp976
F1
s(g65
S'NADVPPP'
tp977
F2
s.