ccollections
defaultdict
p1
(c__builtin__
float
p2
tRp3
(S'MP'
S'MADVVANP'
tp4
F1
s(S'NP'
p5
S'ADVNNMP'
tp6
F2
s(S'DP'
p7
S'DDAP'
tp8
F2
s(S'VP'
S'ADVVVNP'
tp9
F4
s(S'AP'
S'AADVADVACP'
tp10
F1
s(S'VP'
S'VVVVP'
tp11
F1
s(S'PP'
S'ADVADVPAP'
tp12
F1
s(S'PP'
p13
S'PAPP'
tp14
F9
s(S'PP'
S'PADVNP'
tp15
F9
s(S'DP'
p16
S'DNP'
tp17
F258
s(S'NP'
S'ADVNDP'
tp18
F1
s(S'PP'
S'AAPDDP'
tp19
F1
s(S'PP'
p20
S'ADVAPPPPP'
tp21
F1
s(S'VP'
S'ADVVNNP'
tp22
F3
s(S'CP'
S'CDPPP'
tp23
F61
s(S'DP'
S'ADVADVDDNNP'
tp24
F1
s(S'VP'
p25
S'VADP'
tp26
F7
s(S'VP'
S'ADVADVVAP'
tp27
F1
s(S'DP'
p28
S'DAAP'
tp29
F7
s(S'PP'
S'PPPPPP'
tp30
F2
s(S'PP'
S'APPDP'
tp31
F1
s(S'CP'
S'CADVADVDPPP'
tp32
F2
s(S'DP'
p33
S'DAADP'
tp34
F1
s(S'DP'
S'ADNNP'
tp35
F1
s(S'VP'
p36
S'ADVVNP'
tp37
F17
s(S'MP'
S'MVDP'
tp38
F25
s(S'PP'
S'PADVANP'
tp39
F1
s(S'PP'
p40
S'PPPP'
tp41
F32
s(S'MP'
S'MVCCCP'
tp42
F1
s(S'DP'
p43
S'DDDNP'
tp44
F6
s(S'AP'
S'APPPPP'
tp45
F1
s(S'MP'
S'AMCP'
tp46
F1
s(S'VP'
p47
S'VACP'
tp48
F5
s(S'AP'
S'AAAVP'
tp49
F1
s(S'PP'
S'PPAAP'
tp50
F1
s(S'DP'
S'DADVVP'
tp51
F3
s(S'VP'
p52
S'ADVADVVDDP'
tp53
F1
s(S'PP'
S'PADVNNP'
tp54
F1
s(S'NP'
S'NADVACP'
tp55
F1
s(S'NP'
S'NDDDP'
tp56
F2
s(S'NP'
p57
S'NCCCP'
tp58
F8
s(g25
S'VCP'
tp59
F128
s(S'MP'
S'MVVANP'
tp60
F1
s(S'NP'
S'NMMP'
tp61
F9
s(S'VP'
p62
S'VVVPP'
tp63
F2
s(S'VP'
p64
S'AVADVNNP'
tp65
F2
s(S'DP'
S'DDDNNP'
tp66
F1
s(S'PP'
p67
S'PAP'
tp68
F107
s(S'MP'
S'MMVVP'
tp69
F3
s(S'CP'
S'CDADVADVADVPP'
tp70
F1
s(S'PP'
p71
S'ADVPPVP'
tp72
F2
s(S'CP'
S'AAAACDP'
tp73
F1
s(S'PP'
S'APVVP'
tp74
F1
s(S'NP'
p75
S'NNNACP'
tp76
F1
s(S'NP'
p77
S'NAAAVP'
tp78
F1
s(S'CP'
S'CCDDDDP'
tp79
F1
s(S'VP'
p80
S'AAVNNP'
tp81
F1
s(g67
S'PNP'
tp82
F251
s(S'NP'
S'ADVADVADVNNCP'
tp83
F1
s(S'VP'
S'VVADVADVNP'
tp84
F1
s(S'MP'
p85
S'MADVCDP'
tp86
F1
s(S'DP'
p87
S'ADVDDAANP'
tp88
F1
s(S'DP'
p89
S'DDP'
tp90
F36
s(S'MP'
S'MADVADVVAP'
tp91
F1
s(S'VP'
S'ADVVDDP'
tp92
F2
s(S'NP'
S'NNNPP'
tp93
F1
s(S'NP'
p94
S'NNDP'
tp95
F15
s(S'MP'
S'MCDP'
tp96
F9
s(S'DP'
S'DDAANP'
tp97
F1
s(S'AP'
S'AANP'
tp98
F1
s(S'AP'
S'ADVADVAVVP'
tp99
F1
s(S'NP'
S'NMP'
tp100
F119
s(S'VP'
S'AVADVPP'
tp101
F1
s(S'DP'
p102
S'ADCP'
tp103
F1
s(S'VP'
S'VMMP'
tp104
F1
s(S'PP'
p105
S'PDP'
tp106
F243
s(S'DP'
S'DDPPPPP'
tp107
F1
s(S'CP'
p108
S'CDAAPP'
tp109
F5
s(S'VP'
p110
S'VNNNNP'
tp111
F1
s(S'CP'
S'CDADVADVPPP'
tp112
F2
s(S'DP'
S'ADVADVDAPP'
tp113
F1
s(S'VP'
S'AVAAP'
tp114
F1
s(S'NP'
p115
S'NACCP'
tp116
F1
s(S'AP'
S'ANP'
tp117
F1
s(S'NP'
S'NADVADVADVVP'
tp118
F1
s(S'PP'
p119
S'PADVPP'
tp120
F1
s(S'VP'
S'AAVPP'
tp121
F1
s(S'NP'
S'ADVANCP'
tp122
F1
s(S'VP'
p123
S'VADVAAP'
tp124
F1
s(S'DP'
p125
S'DPPPP'
tp126
F10
s(S'DP'
p127
S'DDANP'
tp128
F1
s(S'NP'
S'NACP'
tp129
F14
s(S'AP'
p130
S'ADVAVP'
tp131
F3
s(S'NP'
p132
S'NCCP'
tp133
F57
s(S'CP'
S'CDADVADVADVPPP'
tp134
F1
s(S'VP'
S'VANNP'
tp135
F1
s(S'NP'
S'NADVADVADVDP'
tp136
F1
s(S'NP'
S'NNCP'
tp137
F71
s(S'DP'
S'ADVDDPP'
tp138
F5
s(S'NP'
p139
S'NADVADVVP'
tp140
F3
s(S'CP'
p141
S'ACCDDDDP'
tp142
F1
s(S'DP'
S'DDDDP'
tp143
F2
s(S'VP'
S'AVVNNP'
tp144
F1
s(S'DP'
S'DDADVADVPPP'
tp145
F1
s(S'VP'
p146
S'AVNP'
tp147
F16
s(S'NP'
S'ADVNDDP'
tp148
F1
s(S'PP'
p149
S'PPPPADVADVDDP'
tp150
F1
s(g119
S'ADVPVVP'
tp151
F1
s(S'DP'
p152
S'ADADVNP'
tp153
F1
s(S'PP'
p154
S'ADVAPDP'
tp155
F4
s(S'VP'
S'AVDDDP'
tp156
F1
s(S'VP'
S'VADVVP'
tp157
F4
s(S'DP'
S'ADVADVADVDDPP'
tp158
F2
s(S'MP'
S'MVPPP'
tp159
F1
s(S'NP'
S'ANADVVP'
tp160
F3
s(S'AP'
p161
S'AAAAP'
tp162
F1
s(S'NP'
S'NCCCCP'
tp163
F1
s(S'CP'
p164
S'CCCDP'
tp165
F10
s(S'VP'
p166
S'AVNNP'
tp167
F2
s(S'PP'
p168
S'ADVPPNNP'
tp169
F1
s(S'PP'
p170
S'PPAAPP'
tp171
F1
s(g20
S'APDP'
tp172
F20
s(S'NP'
p173
S'NAAPPP'
tp174
F1
s(S'NP'
S'ADVNPPP'
tp175
F2
s(S'AP'
S'AADVCP'
tp176
F1
s(S'VP'
S'VNNNNNP'
tp177
F1
s(g110
S'VVANP'
tp178
F4
s(S'VP'
S'VVVVDP'
tp179
F2
s(S'NP'
p180
S'ADVADVNPPP'
tp181
F1
s(S'DP'
S'DADVADVADVPP'
tp182
F1
s(S'NP'
S'ADVADVNNPP'
tp183
F1
s(S'PP'
S'PPADVADVAP'
tp184
F1
s(S'CP'
S'CCCADP'
tp185
F1
s(S'MP'
S'MADVVNP'
tp186
F3
s(S'PP'
p187
S'PAAP'
tp188
F13
s(S'NP'
S'NANP'
tp189
F1
s(S'DP'
p190
S'DNNP'
tp191
F55
s(S'CP'
S'CADVDDPP'
tp192
F2
s(g28
S'DPPPPP'
tp193
F4
s(S'CP'
S'CDDPPPP'
tp194
F1
s(S'CP'
S'CCADVDP'
tp195
F3
s(S'VP'
S'VVNNNP'
tp196
F1
s(S'DP'
p197
S'ADDNP'
tp198
F1
s(S'NP'
S'NNNVP'
tp199
F4
s(S'PP'
S'PAAVVP'
tp200
F1
s(S'VP'
S'VADVNNP'
tp201
F4
s(S'NP'
S'NNAAAACP'
tp202
F1
s(S'VP'
S'VVANNP'
tp203
F1
s(S'PP'
S'PADVVP'
tp204
F9
s(S'DP'
S'DACP'
tp205
F1
s(S'DP'
S'DADVADVADVPPP'
tp206
F1
s(S'MP'
S'MVVDDP'
tp207
F1
s(S'PP'
S'APAP'
tp208
F4
s(S'AP'
p209
S'APP'
tp210
F42
s(S'PP'
p211
S'PPADP'
tp212
F1
s(S'CP'
S'CADVADPP'
tp213
F1
s(S'NP'
p214
S'ADVADVNDP'
tp215
F1
s(S'NP'
S'ADVADVNCCP'
tp216
F1
s(S'NP'
S'ADVANPP'
tp217
F2
s(S'MP'
S'MVVCP'
tp218
F1
s(S'VP'
S'VADVADVNP'
tp219
F3
s(S'CP'
S'CDDDDPP'
tp220
F2
s(S'MP'
S'MVVVNP'
tp221
F1
s(S'PP'
S'PAANP'
tp222
F1
s(S'NP'
S'NADVADVPPP'
tp223
F1
s(g94
S'ANVP'
tp224
F20
s(S'VP'
S'VAACP'
tp225
F1
s(S'MP'
S'MVNP'
tp226
F47
s(S'DP'
S'ADVADVDDVP'
tp227
F1
s(S'DP'
S'ADVADVDDP'
tp228
F1
s(S'AP'
S'AADVCCP'
tp229
F1
s(S'NP'
p230
S'ANAAP'
tp231
F1
s(S'CP'
p232
S'CDDDPPP'
tp233
F1
s(S'MP'
S'ADVADVADVMVP'
tp234
F1
s(g40
S'PAVP'
tp235
F17
s(S'MP'
S'ADVMVP'
tp236
F2
s(S'PP'
S'PPADVNNP'
tp237
F2
s(S'NP'
p238
S'NNADP'
tp239
F1
s(S'PP'
S'APPPP'
tp240
F1
s(S'DP'
p241
S'DADP'
tp242
F2
s(S'AP'
S'ADVADP'
tp243
F1
s(S'CP'
p244
S'ADVADVCDP'
tp245
F2
s(g47
S'VVADVPP'
tp246
F1
s(S'DP'
S'ADVDDP'
tp247
F1
s(g20
S'APDDP'
tp248
F3
s(S'NP'
S'ADVNAP'
tp249
F1
s(S'DP'
S'DAAAVP'
tp250
F2
s(g13
S'APVP'
tp251
F10
s(g127
S'DAAAP'
tp252
F2
s(S'CP'
p253
S'CADVADPPP'
tp254
F1
s(S'VP'
S'VVVVNP'
tp255
F1
s(g25
S'VVNP'
tp256
F48
s(S'PP'
S'PPPNNP'
tp257
F1
s(S'PP'
S'PPVP'
tp258
F51
s(S'MP'
S'MPCP'
tp259
F1
s(S'PP'
p260
S'PPPADVNNP'
tp261
F1
s(S'VP'
S'VADVDP'
tp262
F8
s(S'VP'
p263
S'VVADVAP'
tp264
F2
s(g25
S'VAAP'
tp265
F17
s(S'NP'
S'ANDP'
tp266
F4
s(S'NP'
p267
S'NVVP'
tp268
F56
s(g170
S'AAPVP'
tp269
F4
s(S'AP'
S'AAP'
tp270
F6
s(S'VP'
S'VMP'
tp271
F15
s(S'NP'
S'ANNAP'
tp272
F1
s(S'AP'
S'AAAVVP'
tp273
F1
s(g36
S'VVNNP'
tp274
F14
s(S'CP'
p275
S'CDAPP'
tp276
F19
s(S'VP'
p277
S'VVAAP'
tp278
F4
s(S'MP'
S'MNPP'
tp279
F1
s(S'NP'
S'ANCCP'
tp280
F1
s(S'VP'
S'ADVADVVVNNP'
tp281
F1
s(S'DP'
p282
S'ADNP'
tp283
F10
s(S'PP'
p284
S'AAPVVP'
tp285
F1
s(S'PP'
S'PPPPAP'
tp286
F1
s(g40
S'PADP'
tp287
F11
s(S'VP'
p288
S'ADVVVCP'
tp289
F2
s(S'NP'
p290
S'NADVADVADVVVP'
tp291
F2
s(S'NP'
S'ANDDP'
tp292
F1
s(S'MP'
S'MPADVNP'
tp293
F1
s(S'VP'
p294
S'VVVDDP'
tp295
F1
s(S'PP'
S'AAPDDDDP'
tp296
F1
s(S'CP'
S'ADVADVACDP'
tp297
F1
s(g152
S'DAPP'
tp298
F26
s(S'VP'
S'AVVP'
tp299
F2
s(S'VP'
S'ADVADVVPP'
tp300
F2
s(S'DP'
S'DAAVP'
tp301
F3
s(g290
S'NNNAVP'
tp302
F1
s(S'VP'
S'ADVADVADVVDP'
tp303
F1
s(S'VP'
S'ADVADVVDP'
tp304
F1
s(S'PP'
p305
S'PPPDP'
tp306
F6
s(S'VP'
S'AVVAAP'
tp307
F1
s(S'VP'
S'VDDDDP'
tp308
F1
s(S'DP'
S'DAAANP'
tp309
F1
s(S'DP'
S'DADVANP'
tp310
F3
s(S'VP'
S'VAAPP'
tp311
F1
s(S'DP'
p312
S'ADVDNP'
tp313
F8
s(S'VP'
S'VVPP'
tp314
F17
s(S'VP'
S'VADVAPP'
tp315
F1
s(S'DP'
S'DDDADVNP'
tp316
F1
s(S'CP'
S'AACDDP'
tp317
F1
s(S'MP'
p318
S'MVPP'
tp319
F27
s(S'CP'
S'CADVADVDDPP'
tp320
F1
s(S'MP'
S'MVADP'
tp321
F1
s(S'CP'
S'CDDPPP'
tp322
F16
s(g132
S'NNPP'
tp323
F29
s(S'CP'
S'CCCADVDP'
tp324
F1
s(S'NP'
S'NNNPPPPP'
tp325
F1
s(S'MP'
S'MVVDP'
tp326
F1
s(S'DP'
p327
S'DADVPPP'
tp328
F7
s(g168
S'PPVVP'
tp329
F8
s(S'VP'
S'AAAVDDP'
tp330
F1
s(S'DP'
p331
S'DNNNP'
tp332
F4
s(S'MP'
S'MPPDP'
tp333
F1
s(S'DP'
S'ADVDDVP'
tp334
F4
s(S'PP'
S'PADVADVVP'
tp335
F1
s(S'VP'
p336
S'VADVDDP'
tp337
F2
s(S'DP'
S'ADVADPP'
tp338
F1
s(g211
S'PMMP'
tp339
F2
s(S'PP'
S'PVVVP'
tp340
F4
s(g187
S'PMP'
tp341
F19
s(S'NP'
p342
S'NNMMP'
tp343
F2
s(g275
S'CCDP'
tp344
F84
s(S'NP'
p345
S'ADVNNDP'
tp346
F1
s(S'DP'
S'ADVADVADVDPP'
tp347
F3
s(S'MP'
p348
S'AMVP'
tp349
F6
s(S'PP'
S'PPNNNP'
tp350
F1
s(S'NP'
p351
S'NVVVP'
tp352
F5
s(S'CP'
S'CDDDPP'
tp353
F3
s(S'PP'
p354
S'PPADVVP'
tp355
F3
s(S'VP'
S'VVVDP'
tp356
F2
s(S'PP'
p357
S'PDDDDP'
tp358
F1
s(S'PP'
S'PNNNP'
tp359
F8
s(S'CP'
S'CCCCDP'
tp360
F1
s(S'NP'
S'ANMMP'
tp361
F4
s(S'PP'
S'PADVADVADVNNP'
tp362
F1
s(S'PP'
p363
S'AAPNP'
tp364
F2
s(S'PP'
S'AAPADVDP'
tp365
F1
s(S'PP'
p366
S'PADVVVP'
tp367
F2
s(g67
S'PPP'
tp368
F120
s(S'NP'
p369
S'NNADVDP'
tp370
F1
s(S'NP'
p371
S'NAVP'
tp372
F16
s(S'PP'
p373
S'PADVAP'
tp374
F3
s(S'DP'
S'DDNNNP'
tp375
F1
s(S'PP'
p376
S'PADDP'
tp377
F1
s(S'DP'
p378
S'ADVDVP'
tp379
F4
s(g342
S'NNNNNVVP'
tp380
F1
s(S'NP'
S'NAAAP'
tp381
F2
s(g115
S'NADVVVP'
tp382
F12
s(S'DP'
S'DADVADVPPP'
tp383
F2
s(S'AP'
p384
S'AADVVP'
tp385
F1
s(S'PP'
S'PPPPDP'
tp386
F2
s(S'MP'
S'MADVADVVPP'
tp387
F1
s(g25
S'VPP'
tp388
F168
s(S'CP'
p389
S'ADVCCDP'
tp390
F6
s(S'NP'
S'NNNADVCP'
tp391
F1
s(g164
S'ACCDP'
tp392
F2
s(S'DP'
p393
S'ADVDDNP'
tp394
F4
s(S'NP'
S'AANPPP'
tp395
F1
s(S'NP'
S'NNNCP'
tp396
F7
s(S'PP'
S'PADVDP'
tp397
F1
s(S'CP'
S'CDADVAPP'
tp398
F1
s(S'AP'
S'ADVAADP'
tp399
F2
s(S'DP'
S'DDDADVADVNNP'
tp400
F1
s(S'PP'
S'PADVAAP'
tp401
F1
s(S'CP'
S'CDDPP'
tp402
F68
s(g102
S'DAAPP'
tp403
F6
s(g67
S'PVVP'
tp404
F40
s(S'CP'
S'CADPPP'
tp405
F5
s(S'CP'
S'CDDDDPPP'
tp406
F2
s(S'DP'
S'ADVADNP'
tp407
F1
s(S'VP'
S'ADVVCP'
tp408
F5
s(S'VP'
p409
S'VPPP'
tp410
F26
s(S'PP'
S'PPADVADVDP'
tp411
F1
s(g277
S'VVPPP'
tp412
F2
s(S'NP'
S'ADVADVADVNVVP'
tp413
F1
s(S'PP'
p414
S'PPAP'
tp415
F12
s(g190
S'DVVP'
tp416
F33
s(S'CP'
S'CADVADVDAPP'
tp417
F1
s(S'DP'
S'DADVADVAAP'
tp418
F1
s(S'NP'
S'ANMP'
tp419
F5
s(g384
S'APPP'
tp420
F8
s(S'PP'
S'ADVPPP'
tp421
F4
s(g125
S'ADVADPPP'
tp422
F1
s(g139
S'ADVADVNVP'
tp423
F3
s(S'VP'
S'VVVP'
tp424
F7
s(g327
S'DDPPPP'
tp425
F4
s(S'NP'
p426
S'ANCP'
tp427
F27
s(S'DP'
p428
S'DCP'
tp429
F27
s(S'NP'
S'ANNCP'
tp430
F2
s(S'NP'
S'NNDDDDP'
tp431
F1
s(S'VP'
S'ADVVCCP'
tp432
F1
s(S'PP'
S'ADVADVADVPPNP'
tp433
F1
s(g312
S'DDDP'
tp434
F10
s(S'AP'
S'ADDDDP'
tp435
F2
s(S'DP'
S'DDADVPP'
tp436
F3
s(S'MP'
S'MAADP'
tp437
F1
s(S'NP'
S'ANVVP'
tp438
F5
s(S'DP'
S'ADDNNP'
tp439
F1
s(S'VP'
S'VVDP'
tp440
F44
s(S'NP'
S'NPPP'
tp441
F13
s(S'VP'
S'AAVADVDDP'
tp442
F1
s(g197
S'DAVP'
tp443
F10
s(S'VP'
p444
S'AVVVP'
tp445
F1
s(S'VP'
S'VADVADVAP'
tp446
F1
s(S'AP'
p447
S'ACP'
tp448
F35
s(g67
S'PPNP'
tp449
F51
s(S'VP'
S'AAAVVP'
tp450
F1
s(S'AP'
S'ADVACCP'
tp451
F2
s(S'CP'
S'CDDADVPP'
tp452
F2
s(g141
S'CCCDDP'
tp453
F3
s(g209
S'ADP'
tp454
F206
s(g275
S'CADVDPP'
tp455
F12
s(S'NP'
S'ANPPP'
tp456
F2
s(S'NP'
S'ADVANCCP'
tp457
F1
s(S'VP'
S'AAAVDP'
tp458
F1
s(S'VP'
S'ADVADVVNNP'
tp459
F1
s(S'VP'
S'AVDP'
tp460
F20
s(S'NP'
S'ANNVP'
tp461
F1
s(g25
S'VVAP'
tp462
F23
s(S'NP'
p463
S'NNAPP'
tp464
F1
s(S'PP'
S'PADVADVDP'
tp465
F2
s(g294
S'AAVCP'
tp466
F2
s(S'NP'
p467
S'NPP'
tp468
F190
s(S'PP'
S'PPPPNP'
tp469
F2
s(g467
S'NVP'
tp470
F281
s(S'MP'
p471
S'MVVADVPP'
tp472
F1
s(S'PP'
S'PPVVVP'
tp473
F2
s(S'VP'
S'VVNNNNP'
tp474
F1
s(S'PP'
S'AAPPNP'
tp475
F1
s(S'NP'
S'NAAPP'
tp476
F2
s(g260
S'PPADVADVADVDP'
tp477
F1
s(S'VP'
p478
S'VDDP'
tp479
F37
s(S'PP'
p480
S'ADVPPPP'
tp481
F1
s(S'NP'
S'AANVVP'
tp482
F1
s(S'DP'
p483
S'DADVAPP'
tp484
F3
s(S'NP'
S'NNNDDP'
tp485
F1
s(g180
S'ANCCCP'
tp486
F1
s(g94
S'ANPP'
tp487
F18
s(g376
S'PPPPP'
tp488
F11
s(S'MP'
S'MPDP'
tp489
F2
s(g357
S'ADVADVPDP'
tp490
F2
s(S'MP'
p491
S'MVVPP'
tp492
F2
s(g152
S'ADVDPP'
tp493
F20
s(S'NP'
S'NPPPP'
tp494
F4
s(g33
S'ADDP'
tp495
F2
s(S'CP'
S'CAADPP'
tp496
F9
s(S'DP'
S'DADVADVVP'
tp497
F3
s(S'NP'
S'NAACP'
tp498
F2
s(S'PP'
S'PNNP'
tp499
F63
s(S'AP'
S'AADVAPP'
tp500
F1
s(S'MP'
p501
S'MDDVP'
tp502
F1
s(S'VP'
p503
S'AVAP'
tp504
F1
s(g348
S'MMVP'
tp505
F16
s(S'PP'
S'PADVDDP'
tp506
F1
s(S'MP'
S'MNCP'
tp507
F4
s(S'MP'
S'MVADVDP'
tp508
F2
s(S'NP'
p509
S'ADVNCP'
tp510
F8
s(S'DP'
S'DDADVADVPP'
tp511
F1
s(g447
S'AADP'
tp512
F31
s(g389
S'ACDP'
tp513
F24
s(S'VP'
S'VCCP'
tp514
F12
s(S'AP'
p515
S'ADVANP'
tp516
F2
s(S'NP'
S'NNACP'
tp517
F1
s(S'MP'
S'MDNNP'
tp518
F1
s(g141
S'CDADVPPP'
tp519
F6
s(g62
S'VAP'
tp520
F121
s(S'PP'
S'AAPNNNNP'
tp521
F1
s(g89
S'DDDPP'
tp522
F6
s(g244
S'ADVCDDP'
tp523
F5
s(S'VP'
S'VADVADVAAP'
tp524
F2
s(g284
S'PAAPP'
tp525
F1
s(S'AP'
p526
S'ADVAAPP'
tp527
F1
s(S'AP'
S'AAVVP'
tp528
F2
s(S'MP'
p529
S'MNMP'
tp530
F3
s(g123
S'ADVADVVVAP'
tp531
F1
s(g282
S'DDDPPP'
tp532
F3
s(S'VP'
S'ADVAVDP'
tp533
F1
s(S'DP'
S'DADVDP'
tp534
F2
s(S'DP'
p535
S'DDDAP'
tp536
F1
s(g146
S'ADVVVDP'
tp537
F8
s(S'PP'
p538
S'PPPVP'
tp539
F6
s(S'VP'
p540
S'AAVAP'
tp541
F2
s(S'AP'
S'AADDP'
tp542
F4
s(S'DP'
S'DADVAAP'
tp543
F2
s(S'VP'
S'VAANP'
tp544
F2
s(S'NP'
p545
S'NADVADVCP'
tp546
F2
s(S'PP'
S'PPPCP'
tp547
F1
s(S'PP'
S'ADVPNNP'
tp548
F1
s(S'NP'
p549
S'NVVVVP'
tp550
F3
s(S'MP'
S'MVVMP'
tp551
F1
s(g471
S'MPNP'
tp552
F2
s(S'MP'
p553
S'MADP'
tp554
F3
s(S'PP'
S'PPPDDP'
tp555
F1
s(S'VP'
S'AAVVNP'
tp556
F1
s(S'CP'
S'CCAADP'
tp557
F3
s(g7
S'DDADVNP'
tp558
F2
s(g414
S'PANP'
tp559
F22
s(g378
S'AADNP'
tp560
F2
s(S'NP'
S'NADVDDP'
tp561
F3
s(S'MP'
S'MVVPPP'
tp562
F1
s(S'NP'
S'AANMP'
tp563
F1
s(g209
S'AAVP'
tp564
F9
s(S'AP'
S'AVVP'
tp565
F4
s(g173
S'NDDP'
tp566
F13
s(S'CP'
S'CDDADVADVPPP'
tp567
F1
s(S'VP'
S'VADVCP'
tp568
F2
s(g515
S'ACCP'
tp569
F5
s(S'VP'
S'VVVVAP'
tp570
F1
s(g467
S'NDP'
tp571
F115
s(S'VP'
S'ADVVANP'
tp572
F1
s(S'MP'
S'MVAAP'
tp573
F2
s(g312
S'DDVP'
tp574
F35
s(g535
S'AADADVDP'
tp575
F1
s(S'NP'
S'AANVP'
tp576
F4
s(S'VP'
S'VNNNP'
tp577
F4
s(S'VP'
S'VADVADVPP'
tp578
F1
s(S'CP'
S'CDADVADVPP'
tp579
F1
s(S'PP'
S'ADVPPADVDP'
tp580
F1
s(g67
S'PCP'
tp581
F15
s(g75
S'NNPPP'
tp582
F2
s(S'NP'
S'NADVADVADVMP'
tp583
F1
s(S'PP'
S'PAADP'
tp584
F2
s(S'NP'
S'ADVNNVP'
tp585
F3
s(S'NP'
S'NADVCCP'
tp586
F2
s(S'VP'
S'VPPPP'
tp587
F5
s(S'NP'
S'NNNMP'
tp588
F1
s(g130
S'AADVAP'
tp589
F2
s(g463
S'NNNDP'
tp590
F1
s(S'AP'
S'ADVACP'
tp591
F2
s(S'NP'
S'ADVADVNMP'
tp592
F3
s(S'VP'
S'VVVAP'
tp593
F2
s(g312
S'ADPPP'
tp594
F6
s(g549
S'NNAAVP'
tp595
F1
s(g491
S'MVCP'
tp596
F7
s(S'CP'
S'CCDDP'
tp597
F6
s(g549
S'NNADVVP'
tp598
F4
s(g238
S'NAAP'
tp599
F4
s(g553
S'MVMP'
tp600
F1
s(g139
S'ADVNNMMP'
tp601
F1
s(S'MP'
S'MAADDP'
tp602
F1
s(S'NP'
S'NNVVP'
tp603
F13
s(S'NP'
p604
S'NNNNVP'
tp605
F5
s(S'VP'
p606
S'VVCP'
tp607
F25
s(S'VP'
S'VVMP'
tp608
F1
s(S'NP'
p609
S'AANCP'
tp610
F2
s(g409
S'VDP'
tp611
F236
s(S'VP'
S'VVDDDP'
tp612
F2
s(S'AP'
S'ADVAVVP'
tp613
F1
s(g369
S'NNDDP'
tp614
F2
s(S'DP'
p615
S'DDDDPPP'
tp616
F2
s(S'VP'
S'ADVVPP'
tp617
F9
s(S'CP'
S'CADVADVADVDDPP'
tp618
F2
s(S'NP'
S'NAAAAP'
tp619
F2
s(S'CP'
S'CDAPPP'
tp620
F2
s(g478
S'VNNP'
tp621
F45
s(S'AP'
p622
S'AADVDP'
tp623
F5
s(g509
S'NADP'
tp624
F5
s(g152
S'DDNP'
tp625
F65
s(g351
S'NADVCP'
tp626
F11
s(S'DP'
p627
S'DDNNP'
tp628
F8
s(S'PP'
S'PADVADVVVP'
tp629
F1
s(S'NP'
S'ADVNAAP'
tp630
F1
s(S'MP'
S'MNVVVP'
tp631
F1
s(S'NP'
S'ADVADVNCP'
tp632
F1
s(S'AP'
S'ADVADDP'
tp633
F1
s(S'AP'
S'AAAACP'
tp634
F1
s(S'DP'
S'AADPP'
tp635
F14
s(g64
S'ADVVACP'
tp636
F1
s(S'NP'
S'NNNNPP'
tp637
F1
s(S'MP'
S'MVVP'
tp638
F1
s(g80
S'VVVVCP'
tp639
F1
s(S'DP'
S'AAADVP'
tp640
F1
s(g149
S'AAPDP'
tp641
F1
s(g345
S'NNADVADVADVCP'
tp642
F1
s(S'DP'
S'DADVADVAP'
tp643
F1
s(S'DP'
S'ADADVPP'
tp644
F1
s(g230
S'NADVADVCCP'
tp645
F1
s(S'MP'
S'MVVNP'
tp646
F2
s(S'DP'
S'ADVDNNP'
tp647
F3
s(S'CP'
S'ACDDP'
tp648
F1
s(S'NP'
S'ADVADVNNCP'
tp649
F1
s(S'AP'
S'AAPP'
tp650
F12
s(S'DP'
S'DMMP'
tp651
F1
s(S'CP'
S'ADVCAADP'
tp652
F1
s(g284
S'PADVMP'
tp653
F1
s(S'DP'
S'DADVADVNP'
tp654
F4
s(g363
S'ADVPANP'
tp655
F2
s(g371
S'NAPP'
tp656
F7
s(S'AP'
S'ADVADVADP'
tp657
F3
s(S'NP'
S'NADVDP'
tp658
F2
s(S'VP'
S'VVVCP'
tp659
F3
s(S'VP'
S'VVVDDDDDP'
tp660
F1
s(S'CP'
S'ACADVDDP'
tp661
F1
s(S'NP'
S'ADVNCCP'
tp662
F1
s(S'VP'
p663
S'VDDDP'
tp664
F3
s(S'NP'
S'NNMP'
tp665
F16
s(g282
S'DDDVP'
tp666
F2
s(S'VP'
S'AAVDDDP'
tp667
F1
s(S'PP'
S'PAAAP'
tp668
F1
s(g480
S'ADVADVPNP'
tp669
F1
s(S'PP'
p670
S'PPPAP'
tp671
F2
s(S'VP'
S'ADVAVNNP'
tp672
F1
s(g318
S'MVAP'
tp673
F17
s(g105
S'PVP'
tp674
F234
s(S'DP'
S'DADVAVP'
tp675
F2
s(S'PP'
S'ADVAPAAP'
tp676
F1
s(S'AP'
S'ADVADVAPP'
tp677
F1
s(g670
S'PPADVVVP'
tp678
F1
s(S'VP'
S'VADVCCP'
tp679
F3
s(g526
S'AADVDDP'
tp680
F2
s(S'AP'
S'ADVAACP'
tp681
F1
s(S'DP'
S'DVVVP'
tp682
F5
s(g214
S'ADVANNVP'
tp683
F1
s(S'AP'
S'AAAAACP'
tp684
F1
s(S'DP'
S'ADVADVADVDNP'
tp685
F1
s(g105
S'PPDDP'
tp686
F8
s(S'VP'
S'AVCP'
tp687
F7
s(S'NP'
S'NADVADVAP'
tp688
F2
s(S'MP'
S'MVADVADVAAP'
tp689
F2
s(S'NP'
S'NAVVP'
tp690
F2
s(g16
S'DPP'
tp691
F340
s(g426
S'ADVNVP'
tp692
F11
s(S'DP'
p693
S'DDPP'
tp694
F99
s(g393
S'DANP'
tp695
F36
s(S'PP'
S'PPPNNNP'
tp696
F1
s(g351
S'NADVPP'
tp697
F3
s(S'NP'
S'NADVADP'
tp698
F1
s(S'NP'
S'NAAVP'
tp699
F2
s(g373
S'PDDDP'
tp700
F6
s(S'CP'
S'CADVADVADVDPP'
tp701
F2
s(g483
S'ADVADVDPPP'
tp702
F2
s(S'MP'
S'MDNP'
tp703
F1
s(S'NP'
S'NNAACP'
tp704
F1
s(S'NP'
S'NNNVVP'
tp705
F2
s(g71
S'PADVPPP'
tp706
F2
s(S'NP'
S'NNP'
tp707
F1
s(S'AP'
S'AAAADP'
tp708
F2
s(S'DP'
S'DCCP'
tp709
F3
s(S'CP'
S'CDPPPPP'
tp710
F3
s(S'MP'
S'MADVVDP'
tp711
F1
s(S'DP'
S'DADVAP'
tp712
F1
s(g40
S'PDDP'
tp713
F40
s(S'MP'
S'MVDDP'
tp714
F1
s(S'VP'
S'VVCCCP'
tp715
F1
s(g5
S'NNNADVVP'
tp716
F1
s(g57
S'NNVP'
tp717
F64
s(S'NP'
S'NADVADVVVP'
tp718
F2
s(S'PP'
S'PPPMP'
tp719
F1
s(S'NP'
S'NAANP'
tp720
F1
s(S'VP'
S'VVDDP'
tp721
F14
s(S'DP'
S'DAANP'
tp722
F6
s(S'VP'
S'ADVVACCP'
tp723
F1
s(S'AP'
S'ADDP'
tp724
F32
s(S'PP'
S'PNNNNP'
tp725
F1
s(S'VP'
p726
S'ADVVVAP'
tp727
F2
s(g305
S'ADVPPNP'
tp728
F5
s(S'MP'
p729
S'MMCCP'
tp730
F1
s(S'DP'
p731
S'ADVP'
tp732
F3
s(S'DP'
S'DDDDDNNP'
tp733
F1
s(S'CP'
S'CADVADVDPP'
tp734
F1
s(S'CP'
S'ADVADVADVCDP'
tp735
F1
s(g428
S'DPPP'
tp736
F84
s(S'NP'
S'NADVADVAAP'
tp737
F1
s(S'CP'
S'ADVADVADVCCDP'
tp738
F1
s(S'PP'
S'ADVADVPPNP'
tp739
F4
s(S'NP'
S'NNAVP'
tp740
F4
s(g371
S'NNAAPP'
tp741
F1
s(S'PP'
S'ADVPNP'
tp742
F15
s(g40
S'PPDP'
tp743
F34
s(S'MP'
S'MAVDP'
tp744
F3
s(S'MP'
S'MVVDDDDP'
tp745
F1
s(S'AP'
S'ADVADVAAVVP'
tp746
F1
s(S'DP'
S'DDCP'
tp747
F1
s(S'PP'
p748
S'PPADVDDP'
tp749
F1
s(S'AP'
S'AAAPP'
tp750
F2
s(S'AP'
S'ADVADVAADP'
tp751
F2
s(g351
S'NAP'
tp752
F60
s(g351
S'NNAAP'
tp753
F2
s(g80
S'VAAAP'
tp754
F1
s(g627
S'DADVADVADVADVNNP'
tp755
F1
s(S'NP'
S'NAACCP'
tp756
F1
s(g663
S'VVP'
tp757
F55
s(g43
S'DADVNP'
tp758
F7
s(S'AP'
S'AAADP'
tp759
F7
s(g305
S'APNP'
tp760
F10
s(S'VP'
S'VVVNNP'
tp761
F2
s(g615
S'DDVVP'
tp762
F10
s(g161
S'AAADDP'
tp763
F1
s(g540
S'VVVNP'
tp764
F4
s(S'MP'
S'AMAP'
tp765
F1
s(S'NP'
S'NAMP'
tp766
F6
s(S'AP'
S'ADVADVAAPP'
tp767
F1
s(g731
S'ADVADVDDPP'
tp768
F1
s(g529
S'MVNNP'
tp769
F4
s(g232
S'CDPP'
tp770
F303
s(S'MP'
S'MVVNNP'
tp771
F3
s(g209
S'ADDDP'
tp772
F2
s(S'DP'
S'ADVDVVP'
tp773
F1
s(S'PP'
S'PADVADVDDP'
tp774
F1
s(S'CP'
S'ADVCDP'
tp775
F12
s(S'AP'
S'ADVAAP'
tp776
F1
s(g336
S'ADVADVVNP'
tp777
F5
s(g108
S'ADVACDP'
tp778
F1
s(S'VP'
S'ADVADVVCP'
tp779
F1
s(g414
S'PPNNP'
tp780
F9
s(S'PP'
S'PADVCP'
tp781
F2
s(g373
S'PPMP'
tp782
F4
s(g331
S'ADVADVDPP'
tp783
F3
s(g288
S'VADVNP'
tp784
F7
s(S'NP'
S'NADVAP'
tp785
F1
s(S'VP'
S'AVDDP'
tp786
F3
s(g190
S'DAP'
tp787
F32
s(S'CP'
S'CADPP'
tp788
F19
s(g366
S'PPAVP'
tp789
F1
s(g263
S'VVDDDDP'
tp790
F1
s(g478
S'AVPP'
tp791
F1
s(S'MP'
S'MPAANP'
tp792
F1
s(S'CP'
S'CDDPPPPP'
tp793
F1
s(g253
S'CDPPPP'
tp794
F7
s(S'VP'
S'AAVDP'
tp795
F2
s(S'VP'
S'VACCP'
tp796
F1
s(g40
S'APPP'
tp797
F3
s(S'DP'
S'DAPPP'
tp798
F2
s(g87
S'DADVADVPP'
tp799
F4
s(S'DP'
S'DMP'
tp800
F2
s(S'CP'
S'CCADP'
tp801
F3
s(g154
S'PPPNP'
tp802
F6
s(g545
S'NADVAPP'
tp803
F1
s(S'PP'
S'PADVADVNP'
tp804
F2
s(S'DP'
S'DADVMP'
tp805
F1
s(g241
S'ADPP'
tp806
F32
s(g609
S'NADVADVADVCCP'
tp807
F1
s(g606
S'VADVPP'
tp808
F2
s(S'VP'
S'VADVADVNNP'
tp809
F1
s(S'DP'
S'ADVDANP'
tp810
F1
s(S'CP'
S'CCADVDDP'
tp811
F1
s(S'PP'
S'PVVVVP'
tp812
F1
s(S'PP'
S'ADVPVP'
tp813
F2
s(g327
S'DDDDPP'
tp814
F6
s(g168
S'PADVADVADVNP'
tp815
F1
s(g154
S'PAMP'
tp816
F3
s(g20
S'ADVPDP'
tp817
F5
s(g748
S'PAAVP'
tp818
F3
s(S'DP'
S'DDDAVP'
tp819
F1
s(S'MP'
S'MVADVAP'
tp820
F2
s(g267
S'NCP'
tp821
F256
s(S'VP'
S'ADVADVVVPP'
tp822
F1
s(S'CP'
p823
S'CADVDPPP'
tp824
F3
s(g503
S'ADVVVPP'
tp825
F1
s(g622
S'AACP'
tp826
F6
s(S'AP'
S'AAAP'
tp827
F2
s(S'CP'
S'CDDADVADVPP'
tp828
F1
s(g726
S'VAADP'
tp829
F2
s(S'AP'
S'AAMP'
tp830
F1
s(S'PP'
S'PPAAAP'
tp831
F2
s(S'MP'
S'MADVDNP'
tp832
F1
s(g748
S'ADVADVPAANP'
tp833
F1
s(g85
S'MVCCP'
tp834
F1
s(g693
S'DADVNNP'
tp835
F3
s(g351
S'NNCCP'
tp836
F17
s(S'MP'
S'MNVP'
tp837
F6
s(S'NP'
S'AANAP'
tp838
F1
s(S'CP'
S'ADVADVCCDP'
tp839
F1
s(S'NP'
S'AANCCP'
tp840
F2
s(S'PP'
S'PCCP'
tp841
F3
s(g146
S'VAPP'
tp842
F6
s(g729
S'MAVNP'
tp843
F4
s(S'VP'
S'ADVVDP'
tp844
F11
s(g444
S'VADDP'
tp845
F1
s(g43
S'DADVPP'
tp846
F17
s(S'AP'
S'AMP'
tp847
F3
s(S'DP'
S'ADVADVDADVPPP'
tp848
F1
s(g371
S'ADVADVADVADVNNDP'
tp849
F1
s(S'NP'
S'ADVNNCP'
tp850
F6
s(S'PP'
S'ADVADVADVPNP'
tp851
F1
s(S'AP'
S'ADVAPP'
tp852
F4
s(S'PP'
S'ADVADVPVVP'
tp853
F1
s(g354
S'ADVPPVVP'
tp854
F1
s(g77
S'AAANDP'
tp855
F1
s(S'CP'
S'AACDP'
tp856
F4
s(S'NP'
S'NNNCCP'
tp857
F2
s(S'DP'
S'DDDDNP'
tp858
F2
s(S'CP'
S'CCDDDP'
tp859
F2
s(g501
S'MDCCP'
tp860
F1
s(S'DP'
S'ADVDPPP'
tp861
F4
s(g282
S'DVP'
tp862
F211
s(S'VP'
S'ADVVAP'
tp863
F4
s(g132
S'ADVNPP'
tp864
F2
s(g166
S'ADVADVADVVVNP'
tp865
F2
s(S'NP'
S'NNCCCP'
tp866
F2
s(S'PP'
S'ADVPPCP'
tp867
F1
s(g447
S'AVP'
tp868
F35
s(S'NP'
S'NADVVP'
tp869
F22
s(g94
S'NNADVADVVP'
tp870
F2
s(g52
S'VCCCP'
tp871
F3
s(S'VP'
S'ADVVPPP'
tp872
F1
s(g152
S'DDPPP'
tp873
F20
s(S'CP'
S'AACCADVADVDP'
tp874
F1
s(S'NP'
S'ADVNMP'
tp875
F3
s(g604
S'NNAP'
tp876
F8
s(S'MP'
S'MADVVCP'
tp877
F2
s(g154
S'PPANP'
tp878
F1
s(g823
S'CDADVPP'
tp879
F13
s(g409
S'VNP'
tp880
F249
s(S'VP'
S'VANP'
tp881
F20
s(S'VP'
S'VADVAP'
tp882
F8
s(g538
S'PPADVNP'
tp883
F3
s(S'DP'
S'DDDDVP'
tp884
F3
s(S'NP'
S'NADVPPP'
tp885
F1
s.