ccollections
defaultdict
p1
(c__builtin__
float
p2
tRp3
(S'DP'
S'DADVAPP'
tp4
F1
s(S'DP'
p5
S'DDPP'
tp6
F9
s(S'PP'
p7
S'PPCP'
tp8
F1
s(g5
S'DANP'
tp9
F6
s(S'VP'
p10
S'ADVVNP'
tp11
F3
s(S'NP'
S'NADVPP'
tp12
F2
s(S'NP'
p13
S'ANPP'
tp14
F6
s(S'MP'
S'MPDP'
tp15
F1
s(S'VP'
p16
S'VVNP'
tp17
F1
s(S'VP'
p18
S'ADVADVVPP'
tp19
F1
s(S'NP'
S'ADVNNMP'
tp20
F1
s(S'PP'
S'PPVP'
tp21
F3
s(S'NP'
S'NAAVP'
tp22
F1
s(S'VP'
p23
S'VADVDP'
tp24
F1
s(S'VP'
S'VVADVNNP'
tp25
F1
s(S'PP'
p26
S'PADVANP'
tp27
F1
s(S'VP'
p28
S'VAAP'
tp29
F3
s(S'VP'
p30
S'VADVCP'
tp31
F1
s(S'PP'
p32
S'PAPP'
tp33
F1
s(S'NP'
S'ANDP'
tp34
F2
s(S'NP'
p35
S'NVVP'
tp36
F3
s(g5
S'DNP'
tp37
F29
s(S'PP'
p38
S'PNNP'
tp39
F5
s(S'VP'
S'VVNNP'
tp40
F1
s(S'CP'
p41
S'CDAPP'
tp42
F3
s(S'CP'
S'CDPPP'
tp43
F2
s(g13
S'ADVNMMP'
tp44
F1
s(S'DP'
S'ADNP'
tp45
F3
s(S'DP'
p46
S'DCCP'
tp47
F3
s(g16
S'VADP'
tp48
F3
s(S'NP'
p49
S'ANADVADVADVVVP'
tp50
F1
s(S'PP'
p51
S'PADP'
tp52
F2
s(S'AP'
S'AADP'
tp53
F5
s(S'PP'
S'PDDP'
tp54
F4
s(S'CP'
S'ACDP'
tp55
F1
s(S'NP'
p56
S'NNDP'
tp57
F2
s(S'NP'
p58
S'NNVP'
tp59
F2
s(S'PP'
S'PPPNP'
tp60
F1
s(S'DP'
p61
S'DAPP'
tp62
F6
s(g28
S'VAP'
tp63
F16
s(g32
S'APVP'
tp64
F2
s(S'CP'
p65
S'AACADVDP'
tp66
F1
s(S'MP'
S'MVDP'
tp67
F3
s(S'DP'
p68
S'DDDPP'
tp69
F1
s(S'CP'
S'ADVCDDP'
tp70
F1
s(S'PP'
p71
S'PPPP'
tp72
F5
s(g23
S'VVDDP'
tp73
F1
s(S'PP'
p74
S'AAAPVP'
tp75
F1
s(S'AP'
p76
S'ADDP'
tp77
F2
s(S'MP'
p78
S'MAVPP'
tp79
F1
s(g61
S'DDP'
tp80
F6
s(S'DP'
p81
S'DADVVP'
tp82
F3
s(S'DP'
p83
S'ADAP'
tp84
F1
s(S'PP'
p85
S'ADVPPNP'
tp86
F1
s(S'CP'
p87
S'CCADDP'
tp88
F1
s(S'MP'
S'MVVAP'
tp89
F1
s(g78
S'MVPP'
tp90
F5
s(S'AP'
p91
S'AAACP'
tp92
F1
s(S'DP'
p93
S'DPPP'
tp94
F7
s(g83
S'ADVDNP'
tp95
F2
s(g56
S'NCCCP'
tp96
F1
s(S'CP'
S'CADVDAPP'
tp97
F2
s(S'VP'
p98
S'VCP'
tp99
F8
s(S'VP'
S'VADVAPP'
tp100
F1
s(g26
S'PPNNP'
tp101
F1
s(S'NP'
p102
S'NMMP'
tp103
F2
s(S'DP'
p104
S'DPPPP'
tp105
F2
s(S'PP'
S'APPDDP'
tp106
F1
s(g104
S'ADVP'
tp107
F1
s(g32
S'PAP'
tp108
F13
s(S'PP'
p109
S'ADVPNP'
tp110
F1
s(S'PP'
p111
S'PPDP'
tp112
F2
s(g13
S'NNPP'
tp113
F6
s(g49
S'ANPPP'
tp114
F1
s(g38
S'PPVVP'
tp115
F2
s(g32
S'PNP'
tp116
F28
s(S'NP'
p117
S'ANACP'
tp118
F1
s(S'DP'
p119
S'DNNNP'
tp120
F1
s(S'MP'
S'MVADVCP'
tp121
F1
s(g71
S'PANP'
tp122
F4
s(S'CP'
S'ACAADDDP'
tp123
F1
s(g32
S'PAAP'
tp124
F1
s(S'DP'
S'ADVADPP'
tp125
F1
s(S'MP'
S'MCDP'
tp126
F2
s(S'CP'
S'CADVADVADVDPP'
tp127
F1
s(g38
S'PMP'
tp128
F3
s(S'CP'
p129
S'CCDP'
tp130
F13
s(S'DP'
S'ADVADVADVDPP'
tp131
F1
s(S'NP'
p132
S'NAP'
tp133
F6
s(S'MP'
S'AMVP'
tp134
F1
s(S'NP'
S'NMP'
tp135
F12
s(S'CP'
S'CDDDPP'
tp136
F1
s(S'CP'
S'CDAAPP'
tp137
F1
s(g35
S'NDP'
tp138
F11
s(S'DP'
S'DDDDPP'
tp139
F1
s(S'PP'
p140
S'PNNNP'
tp141
F2
s(g5
S'DVP'
tp142
F21
s(g23
S'VVP'
tp143
F3
s(S'DP'
S'DDVP'
tp144
F2
s(g32
S'PDP'
tp145
F32
s(g71
S'PADVNP'
tp146
F1
s(S'MP'
S'MVNP'
tp147
F2
s(g26
S'APNP'
tp148
F3
s(S'DP'
S'DDVVP'
tp149
F1
s(S'PP'
p150
S'PADVVVP'
tp151
F1
s(g71
S'PPP'
tp152
F18
s(S'MP'
S'MADVVDP'
tp153
F1
s(S'PP'
S'ADVPDP'
tp154
F1
s(S'PP'
p155
S'PADVAP'
tp156
F1
s(S'PP'
S'APADVDP'
tp157
F1
s(S'NP'
p158
S'NNPPP'
tp159
F1
s(g129
S'CDPP'
tp160
F29
s(S'AP'
S'ADDDP'
tp161
F1
s(S'NP'
S'ADVANCP'
tp162
F1
s(S'VP'
S'VCCP'
tp163
F2
s(S'MP'
S'MADVADVVPP'
tp164
F1
s(g58
S'NNNDP'
tp165
F1
s(g98
S'VPP'
tp166
F15
s(S'NP'
S'NACP'
tp167
F1
s(g87
S'ADVCCDP'
tp168
F1
s(g132
S'NCCP'
tp169
F7
s(S'CP'
S'ADVCDP'
tp170
F1
s(S'NP'
S'NNNCP'
tp171
F1
s(S'PP'
S'PADVDP'
tp172
F2
s(S'CP'
S'CDADVAPP'
tp173
F1
s(g102
S'NNCP'
tp174
F5
s(S'NP'
S'AANMP'
tp175
F1
s(S'MP'
S'MVCP'
tp176
F2
s(g132
S'NCP'
tp177
F29
s(S'VP'
p178
S'ADVVVPP'
tp179
F1
s(g41
S'CCDDP'
tp180
F1
s(g129
S'CDDPP'
tp181
F8
s(S'DP'
S'DAAPP'
tp182
F1
s(S'PP'
p183
S'PVVP'
tp184
F2
s(g76
S'AACP'
tp185
F2
s(g16
S'ADVVCP'
tp186
F2
s(g178
S'VPPP'
tp187
F1
s(S'AP'
S'ADVAADP'
tp188
F1
s(g119
S'AADDDPP'
tp189
F1
s(g5
S'DAP'
tp190
F5
s(S'CP'
S'CADPP'
tp191
F8
s(S'PP'
p192
S'PPAVP'
tp193
F1
s(g10
S'VDP'
tp194
F27
s(S'DP'
S'DVVP'
tp195
F3
s(S'PP'
p196
S'PADVPPP'
tp197
F1
s(g111
S'ADVAPDP'
tp198
F1
s(g98
S'AVPP'
tp199
F2
s(S'DP'
S'ADDPP'
tp200
F1
s(g91
S'APPP'
tp201
F1
s(g140
S'ADVPPP'
tp202
F1
s(S'VP'
p203
S'VVADVANP'
tp204
F1
s(g109
S'ADVAPVP'
tp205
F1
s(S'CP'
S'CDAPPP'
tp206
F1
s(g30
S'VNNP'
tp207
F3
s(S'CP'
S'CADVDPP'
tp208
F1
s(g65
S'CCCDP'
tp209
F1
s(S'VP'
p210
S'ADVVAP'
tp211
F1
s(g68
S'DDNP'
tp212
F4
s(g38
S'APPP'
tp213
F3
s(g81
S'DDNNP'
tp214
F1
s(S'NP'
S'ANCP'
tp215
F6
s(g51
S'APDP'
tp216
F1
s(S'DP'
S'DCP'
tp217
F5
s(S'DP'
S'ADVDPP'
tp218
F2
s(g71
S'PADVADVVVP'
tp219
F1
s(S'MP'
S'MMVP'
tp220
F3
s(g46
S'ADPP'
tp221
F9
s(S'CP'
S'CDPPPP'
tp222
F2
s(S'DP'
p223
S'DDDP'
tp224
F2
s(g41
S'CDDPPP'
tp225
F2
s(S'MP'
S'MVVCCP'
tp226
F1
s(g132
S'ANVVP'
tp227
F1
s(g158
S'NADVCP'
tp228
F1
s(g10
S'VVDP'
tp229
F5
s(g13
S'NPPP'
tp230
F5
s(g223
S'DAPPP'
tp231
F1
s(S'PP'
S'PAMP'
tp232
F1
s(g83
S'DAVP'
tp233
F2
s(g117
S'NNNMP'
tp234
F1
s(g93
S'DNNP'
tp235
F8
s(g76
S'ACP'
tp236
F10
s(S'VP'
p237
S'VVCCP'
tp238
F1
s(g74
S'PAAAPP'
tp239
F1
s(g210
S'ADVADVADVVVDP'
tp240
F1
s(g71
S'PPNP'
tp241
F9
s(g132
S'NAADP'
tp242
F1
s(S'DP'
S'ADVDAPP'
tp243
F2
s(S'PP'
S'PADVAAP'
tp244
F1
s(g5
S'AADVP'
tp245
F1
s(g7
S'PADVVP'
tp246
F2
s(g56
S'NNCCP'
tp247
F3
s(S'VP'
S'VVVP'
tp248
F1
s(S'AP'
S'ADVADP'
tp249
F1
s(g76
S'ADP'
tp250
F18
s(g85
S'APAP'
tp251
F1
s(g203
S'VAPP'
tp252
F1
s(S'AP'
S'APP'
tp253
F6
s(g23
S'ADVVDP'
tp254
F3
s(S'AP'
S'AAP'
tp255
F1
s(S'DP'
S'DADVPP'
tp256
F1
s(g132
S'ANCCP'
tp257
F2
s(g18
S'VVPP'
tp258
F1
s(S'AP'
S'AMP'
tp259
F1
s(g49
S'NNMP'
tp260
F2
s(S'DP'
S'DDDVP'
tp261
F1
s(S'MP'
S'MNVP'
tp262
F1
s(S'CP'
S'CDDDDPP'
tp263
F1
s(g196
S'ADVPPVVP'
tp264
F1
s(g183
S'PAANP'
tp265
F1
s(g192
S'PPPAP'
tp266
F1
s(S'VP'
S'AVDP'
tp267
F2
s(g132
S'ANVP'
tp268
F2
s(S'VP'
S'VVAP'
tp269
F2
s(S'CP'
S'CADVADPP'
tp270
F1
s(g32
S'PVP'
tp271
F23
s(g30
S'VADVPPP'
tp272
F1
s(S'NP'
S'ADVANPPP'
tp273
F1
s(g76
S'AVP'
tp274
F5
s(g132
S'NADVVP'
tp275
F2
s(g237
S'VADVCCP'
tp276
F1
s(g155
S'PAVP'
tp277
F2
s(g81
S'DDPPP'
tp278
F2
s(S'VP'
S'AAVNNP'
tp279
F1
s(S'AP'
S'ACCP'
tp280
F1
s(S'NP'
S'NPP'
tp281
F21
s(g237
S'VVADP'
tp282
F1
s(g13
S'NVP'
tp283
F18
s(g150
S'PPANP'
tp284
F2
s(S'CP'
S'CDADVPP'
tp285
F1
s(g10
S'VNP'
tp286
F13
s(g10
S'VANP'
tp287
F2
s(g28
S'VDDP'
tp288
F4
s(S'VP'
S'AVCP'
tp289
F2
s(S'PP'
S'AAPPP'
tp290
F1
s(g28
S'ADVADVVVDP'
tp291
F1
s(g5
S'DPP'
tp292
F34
s(g81
S'ADVDDDP'
tp293
F1
s.