ccollections
defaultdict
p1
(c__builtin__
float
p2
tRp3
(S'DP'
p4
S'DDPP'
tp5
F10
s(g4
S'DANP'
tp6
F8
s(S'VP'
p7
S'AVVP'
tp8
F1
s(S'NP'
p9
S'ANCCCP'
tp10
F1
s(S'NP'
S'ANPP'
tp11
F6
s(S'PP'
p12
S'ADVADVPPMP'
tp13
F1
s(S'VP'
p14
S'VVNP'
tp15
F1
s(S'MP'
S'MVVPP'
tp16
F1
s(S'PP'
p17
S'PPVP'
tp18
F4
s(S'DP'
p19
S'DDAP'
tp20
F1
s(S'VP'
p21
S'ADVVVNP'
tp22
F1
s(S'NP'
p23
S'NAAVP'
tp24
F1
s(S'CP'
p25
S'ADVCADVAADP'
tp26
F1
s(S'CP'
S'CDADVPP'
tp27
F1
s(S'NP'
p28
S'NACP'
tp29
F2
s(S'VP'
p30
S'VADVCP'
tp31
F1
s(S'CP'
p32
S'CAADPP'
tp33
F1
s(S'PP'
p34
S'PADVNP'
tp35
F1
s(g23
S'NVVP'
tp36
F5
s(S'DP'
p37
S'DNP'
tp38
F23
s(S'NP'
p39
S'NAACP'
tp40
F1
s(g17
S'PNNP'
tp41
F7
s(g23
S'ANPPPP'
tp42
F1
s(S'AP'
S'ADVADVADVACP'
tp43
F1
s(S'CP'
p44
S'CDAPP'
tp45
F6
s(S'NP'
S'ANADVCP'
tp46
F1
s(S'CP'
S'CDPPP'
tp47
F4
s(S'NP'
S'ADVANCCP'
tp48
F1
s(S'DP'
S'ADNP'
tp49
F4
s(S'VP'
p50
S'VAVP'
tp51
F2
s(S'VP'
p52
S'VADP'
tp53
F2
s(S'PP'
p54
S'PADP'
tp55
F2
s(S'PP'
p56
S'AAPDP'
tp57
F2
s(S'AP'
S'AADP'
tp58
F1
s(S'DP'
p59
S'ADVDDNP'
tp60
F1
s(g17
S'PDDP'
tp61
F8
s(S'VP'
S'VADVADVADVAP'
tp62
F1
s(S'CP'
p63
S'ACDP'
tp64
F3
s(S'PP'
p65
S'PAAP'
tp66
F2
s(S'PP'
p67
S'ADVADVPMP'
tp68
F1
s(S'NP'
p69
S'NNVP'
tp70
F4
s(g4
S'DAPP'
tp71
F7
s(S'CP'
S'CDADVPPP'
tp72
F1
s(S'VP'
p73
S'VAP'
tp74
F8
s(g17
S'APVP'
tp75
F3
s(S'MP'
S'MVDP'
tp76
F3
s(S'DP'
p77
S'DDDPP'
tp78
F1
s(S'CP'
S'ADVCDDP'
tp79
F1
s(S'VP'
S'AVDP'
tp80
F2
s(g17
S'PPPP'
tp81
F4
s(S'MP'
S'MCAADP'
tp82
F1
s(S'VP'
p83
S'VVDDP'
tp84
F1
s(g21
S'VACP'
tp85
F1
s(g17
S'PPPDP'
tp86
F1
s(S'AP'
S'ADDP'
tp87
F2
s(S'DP'
p88
S'DDDPPP'
tp89
F1
s(g54
S'ADVPPNP'
tp90
F1
s(S'NP'
p91
S'ANADVVVP'
tp92
F1
s(S'VP'
p93
S'VAAPP'
tp94
F1
s(g4
S'DPPP'
tp95
F7
s(S'NP'
S'NDDDP'
tp96
F1
s(S'NP'
p97
S'NADVVVP'
tp98
F1
s(g83
S'VVPP'
tp99
F2
s(S'NP'
p100
S'AANCCP'
tp101
F1
s(S'NP'
p102
S'NMMP'
tp103
F1
s(S'NP'
S'ANNVVP'
tp104
F1
s(S'MP'
S'MVPP'
tp105
F3
s(S'VP'
p106
S'VAANP'
tp107
F1
s(g17
S'PAP'
tp108
F13
s(S'VP'
p109
S'ADVVVDP'
tp110
F1
s(S'VP'
S'VADVADVAP'
tp111
F1
s(S'NP'
p112
S'NNADVVP'
tp113
F1
s(g34
S'PPDP'
tp114
F4
s(g23
S'NNPP'
tp115
F2
s(S'AP'
S'AACP'
tp116
F1
s(S'MP'
S'MPNP'
tp117
F1
s(S'PP'
p118
S'PNP'
tp119
F22
s(g39
S'NNNNPP'
tp120
F1
s(S'VP'
S'VAADP'
tp121
F1
s(g37
S'DDP'
tp122
F5
s(g34
S'PANP'
tp123
F3
s(S'VP'
p124
S'ADVVDDP'
tp125
F1
s(g102
S'ANNMP'
tp126
F1
s(S'VP'
p127
S'VCCP'
tp128
F2
s(S'PP'
S'PMP'
tp129
F1
s(S'PP'
p130
S'PPADVDDP'
tp131
F1
s(S'NP'
S'NAAP'
tp132
F1
s(g23
S'NDDP'
tp133
F2
s(S'CP'
p134
S'CCDP'
tp135
F14
s(g23
S'NAP'
tp136
F3
s(S'NP'
S'ADVANAP'
tp137
F1
s(g124
S'ADVADVVVCP'
tp138
F1
s(S'NP'
p139
S'NMP'
tp140
F4
s(S'NP'
p141
S'NDP'
tp142
F7
s(g37
S'DVP'
tp143
F18
s(g73
S'AAVNP'
tp144
F1
s(S'DP'
S'DDVP'
tp145
F4
s(S'PP'
p146
S'PDP'
tp147
F20
s(S'NP'
p148
S'ANDP'
tp149
F1
s(g9
S'AANVP'
tp150
F1
s(S'PP'
p151
S'PMMMP'
tp152
F1
s(g37
S'DDVVP'
tp153
F1
s(g151
S'PADVVVP'
tp154
F1
s(g146
S'PPP'
tp155
F11
s(S'PP'
p156
S'AAPVP'
tp157
F1
s(g39
S'NNVVP'
tp158
F1
s(g148
S'NAVP'
tp159
F1
s(g19
S'DAVP'
tp160
F2
s(g67
S'PADVAP'
tp161
F1
s(S'PP'
p162
S'ADVPADVAAPP'
tp163
F1
s(g67
S'PCP'
tp164
F1
s(g134
S'CDPP'
tp165
F23
s(g97
S'ADVNNVP'
tp166
F1
s(S'MP'
S'MMMNP'
tp167
F1
s(g93
S'VMP'
tp168
F2
s(g44
S'ADVCADP'
tp169
F1
s(S'DP'
p170
S'DADVADVPPP'
tp171
F1
s(g170
S'DDANP'
tp172
F2
s(g73
S'VPP'
tp173
F13
s(S'VP'
S'VVP'
tp174
F1
s(g141
S'NCCP'
tp175
F7
s(g32
S'ADVCDP'
tp176
F1
s(g77
S'DADVADVVVP'
tp177
F1
s(g77
S'DDADVVP'
tp178
F1
s(S'DP'
p179
S'ADPPP'
tp180
F2
s(g156
S'PADVDP'
tp181
F1
s(g23
S'NNCP'
tp182
F7
s(g4
S'ADVDDPP'
tp183
F1
s(S'MP'
S'MVCP'
tp184
F1
s(g52
S'VCP'
tp185
F8
s(g25
S'CCDDP'
tp186
F1
s(g63
S'CDDPP'
tp187
F6
s(g156
S'PPAP'
tp188
F1
s(g146
S'PVVP'
tp189
F3
s(S'CP'
p190
S'CADPPP'
tp191
F2
s(S'DP'
S'DADVPPP'
tp192
F1
s(S'VP'
p193
S'AVNP'
tp194
F1
s(g59
S'ADVADVDPP'
tp195
F1
s(g21
S'VPPP'
tp196
F6
s(g97
S'NADVAP'
tp197
F1
s(S'PP'
p198
S'PPAAP'
tp199
F1
s(g109
S'AVDDP'
tp200
F1
s(g127
S'VVCP'
tp201
F1
s(S'DP'
S'DAP'
tp202
F2
s(S'CP'
S'CADPP'
tp203
F1
s(g109
S'VADVVP'
tp204
F1
s(S'VP'
S'ADVADVVVPP'
tp205
F1
s(g73
S'VDP'
tp206
F19
s(S'DP'
S'DVVP'
tp207
F1
s(S'AP'
S'ADVAVVP'
tp208
F1
s(g146
S'APNP'
tp209
F1
s(g21
S'AVPP'
tp210
F1
s(g50
S'AVCP'
tp211
F1
s(S'MP'
S'MVPPP'
tp212
F1
s(g106
S'ADVVPP'
tp213
F1
s(S'VP'
S'VVADVANP'
tp214
F2
s(g73
S'VNNP'
tp215
F2
s(g63
S'CADVDPP'
tp216
F3
s(S'VP'
p217
S'AAVDP'
tp218
F1
s(g23
S'NADP'
tp219
F2
s(g190
S'CCCDP'
tp220
F1
s(g109
S'ADVVAP'
tp221
F1
s(g37
S'DDNP'
tp222
F7
s(g23
S'NADVCP'
tp223
F2
s(g77
S'DDNNP'
tp224
F2
s(g91
S'ANCP'
tp225
F4
s(g77
S'DADVADVPP'
tp226
F1
s(g59
S'DCP'
tp227
F1
s(S'DP'
S'ADVDPP'
tp228
F3
s(g118
S'PPAANP'
tp229
F1
s(S'MP'
p230
S'MMVP'
tp231
F1
s(g146
S'PMMMMP'
tp232
F1
s(g4
S'ADPP'
tp233
F3
s(S'DP'
p234
S'DDDP'
tp235
F1
s(g30
S'VADVPP'
tp236
F1
s(S'AP'
S'ADVADDP'
tp237
F2
s(g59
S'DDADVPP'
tp238
F1
s(g88
S'AADPP'
tp239
F2
s(g130
S'ADVPVP'
tp240
F1
s(g73
S'VVDP'
tp241
F5
s(g139
S'NPPP'
tp242
F1
s(g112
S'NADVADVVVP'
tp243
F1
s(S'MP'
S'MCDDP'
tp244
F1
s(S'AP'
S'ACCP'
tp245
F1
s(S'PP'
S'ADVPDP'
tp246
F1
s(S'MP'
S'MPNNP'
tp247
F1
s(S'DP'
S'DNNP'
tp248
F3
s(g44
S'CADVDDPP'
tp249
F1
s(g9
S'NCP'
tp250
F17
s(g234
S'ADVAADPP'
tp251
F1
s(g193
S'ADVVVPP'
tp252
F1
s(g12
S'PPNP'
tp253
F4
s(g193
S'VADVNNP'
tp254
F1
s(S'AP'
S'AAMP'
tp255
F2
s(S'AP'
p256
S'AAPP'
tp257
F1
s(S'AP'
S'ADVADVACCP'
tp258
F1
s(g198
S'PPNNNNP'
tp259
F1
s(g230
S'MVCCP'
tp260
F1
s(S'AP'
S'ACP'
tp261
F7
s(S'AP'
S'ADVADP'
tp262
F1
s(S'CP'
p263
S'CDDADVPP'
tp264
F1
s(S'MP'
S'MMMMVVP'
tp265
F1
s(S'AP'
p266
S'ADP'
tp267
F14
s(g12
S'APAP'
tp268
F2
s(g141
S'NAPP'
tp269
F1
s(g266
S'APP'
tp270
F7
s(g65
S'APMP'
tp271
F1
s(g100
S'AAANNPP'
tp272
F1
s(g217
S'ADVVDP'
tp273
F2
s(g256
S'AAP'
tp274
F2
s(S'DP'
S'DADVPP'
tp275
F1
s(g91
S'ANCCP'
tp276
F1
s(g28
S'NNMP'
tp277
F1
s(S'PP'
S'PAANP'
tp278
F1
s(g25
S'AACDP'
tp279
F1
s(S'DP'
S'ADVDVP'
tp280
F1
s(g141
S'ANVP'
tp281
F4
s(g69
S'AANAP'
tp282
F1
s(g32
S'CCDDDP'
tp283
F1
s(S'MP'
S'MVAP'
tp284
F1
s(g263
S'CADVADVDPP'
tp285
F1
s(g146
S'PVP'
tp286
F16
s(S'AP'
S'AVP'
tp287
F4
s(g97
S'NADVVP'
tp288
F2
s(g59
S'DADVADVVP'
tp289
F1
s(g34
S'PAVP'
tp290
F2
s(g91
S'ADVNMP'
tp291
F1
s(g7
S'ADVADVVVP'
tp292
F1
s(g141
S'NPP'
tp293
F17
s(g14
S'VAPP'
tp294
F1
s(g23
S'NVP'
tp295
F13
s(g56
S'PPANP'
tp296
F1
s(g156
S'PAAPP'
tp297
F2
s(S'PP'
S'PAAVP'
tp298
F1
s(g162
S'ADVAAPVP'
tp299
F1
s(g83
S'VNP'
tp300
F7
s(S'VP'
S'VANP'
tp301
F4
s(g124
S'VDDP'
tp302
F3
s(g83
S'VADVAP'
tp303
F2
s(S'PP'
S'APDP'
tp304
F4
s(g179
S'DPP'
tp305
F30
s.