ccollections
defaultdict
p1
(c__builtin__
float
p2
tRp3
(S'DP'
p4
S'DDPP'
tp5
F7
s(S'DP'
p6
S'DANP'
tp7
F7
s(S'NP'
p8
S'ANPP'
tp9
F4
s(S'VP'
p10
S'VVNP'
tp11
F3
s(S'MP'
p12
S'MPADP'
tp13
F1
s(g10
S'VAAP'
tp14
F1
s(S'CP'
p15
S'CAADPP'
tp16
F1
s(S'NP'
p17
S'ANDP'
tp18
F1
s(S'NP'
p19
S'NVVP'
tp20
F6
s(g6
S'DNP'
tp21
F19
s(S'VP'
p22
S'VMP'
tp23
F1
s(S'NP'
S'NCCP'
tp24
F1
s(S'CP'
S'CDAPP'
tp25
F1
s(S'CP'
S'CDPPP'
tp26
F4
s(g4
S'ADNP'
tp27
F2
s(S'VP'
p28
S'AVAP'
tp29
F1
s(S'MP'
p30
S'MMVP'
tp31
F1
s(S'PP'
p32
S'PADP'
tp33
F4
s(S'DP'
S'DAAP'
tp34
F1
s(g32
S'AAPDP'
tp35
F2
s(S'DP'
S'ADPP'
tp36
F4
s(S'DP'
p37
S'ADVDDNP'
tp38
F1
s(S'PP'
p39
S'PDDP'
tp40
F5
s(S'VP'
p41
S'VCCP'
tp42
F1
s(S'PP'
p43
S'ADVADVPMP'
tp44
F1
s(S'DP'
p45
S'DAPP'
tp46
F3
s(S'VP'
p47
S'VAP'
tp48
F3
s(S'VP'
S'ADVADVVPP'
tp49
F1
s(S'DP'
S'DDDPP'
tp50
F1
s(g19
S'AANNVVVP'
tp51
F1
s(S'PP'
p52
S'PPPP'
tp53
F2
s(S'MP'
S'MMMADVVP'
tp54
F1
s(g22
S'VVDDP'
tp55
F1
s(S'DP'
p56
S'DAANP'
tp57
F1
s(g10
S'ADVADVVDP'
tp58
F1
s(g32
S'PPPDP'
tp59
F1
s(S'AP'
S'ADDP'
tp60
F1
s(S'NP'
p61
S'NADVADVVP'
tp62
F1
s(g43
S'ADVPPNP'
tp63
F1
s(S'MP'
p64
S'MDAP'
tp65
F1
s(g28
S'ADVVVDP'
tp66
F1
s(S'DP'
S'DPPP'
tp67
F4
s(S'DP'
S'ADVDNP'
tp68
F1
s(g15
S'CCDDP'
tp69
F1
s(g22
S'VCP'
tp70
F7
s(g12
S'AAMMVP'
tp71
F1
s(S'PP'
S'ADVADVPPNP'
tp72
F1
s(g39
S'PPVVP'
tp73
F1
s(S'DP'
p74
S'AADPP'
tp75
F1
s(S'NP'
p76
S'AANPP'
tp77
F1
s(g32
S'PAP'
tp78
F9
s(g52
S'PPAVVP'
tp79
F1
s(S'VP'
p80
S'ADVADVADVVDP'
tp81
F1
s(S'PP'
p82
S'PPDP'
tp83
F2
s(S'MP'
p84
S'MPNP'
tp85
F2
s(S'PP'
p86
S'PNP'
tp87
F21
s(S'AP'
S'AMMP'
tp88
F1
s(g37
S'DDP'
tp89
F3
s(S'DP'
p90
S'DDADVNP'
tp91
F1
s(S'PP'
p92
S'PANP'
tp93
F2
s(S'AP'
S'ACCP'
tp94
F2
s(S'PP'
p95
S'PPADVDDP'
tp96
F1
s(S'NP'
S'NAAP'
tp97
F1
s(S'NP'
p98
S'NDDP'
tp99
F1
s(S'CP'
p100
S'CCDP'
tp101
F5
s(S'NP'
p102
S'NAP'
tp103
F5
s(g92
S'ADVPPPNP'
tp104
F1
s(g98
S'NMP'
tp105
F8
s(S'DP'
p106
S'AAADVDADVPPPP'
tp107
F1
s(S'CP'
S'CDDDPP'
tp108
F1
s(S'AP'
p109
S'APPPP'
tp110
F1
s(S'VP'
S'AVPP'
tp111
F1
s(S'NP'
S'NDP'
tp112
F12
s(S'VP'
p113
S'VVVDP'
tp114
F1
s(g52
S'PNNNP'
tp115
F1
s(S'PP'
p116
S'PVP'
tp117
F17
s(g22
S'VVP'
tp118
F2
s(g4
S'DDVP'
tp119
F2
s(g86
S'PDP'
tp120
F16
s(g74
S'DDAPP'
tp121
F1
s(g28
S'VADVPPP'
tp122
F1
s(g109
S'AAADP'
tp123
F3
s(S'PP'
p124
S'APNP'
tp125
F1
s(g80
S'VADVVP'
tp126
F1
s(g43
S'PADVVVP'
tp127
F1
s(S'PP'
S'PPP'
tp128
F5
s(S'MP'
S'MNPP'
tp129
F1
s(g102
S'NAVP'
tp130
F3
s(S'CP'
p131
S'CDADVADVPP'
tp132
F1
s(g82
S'PCP'
tp133
F1
s(S'NP'
S'NADVADVADVVP'
tp134
F1
s(g100
S'CDPP'
tp135
F24
s(g8
S'NADVCCP'
tp136
F1
s(g19
S'NAAAP'
tp137
F1
s(S'CP'
p138
S'CCCAAADVDP'
tp139
F1
s(g4
S'ADVDVVP'
tp140
F1
s(g56
S'DDANP'
tp141
F1
s(g22
S'VPP'
tp142
F15
s(S'NP'
p143
S'NACP'
tp144
F1
s(g138
S'ADVCCDP'
tp145
F1
s(S'AP'
S'ADVACP'
tp146
F1
s(S'CP'
p147
S'ADVCDP'
tp148
F1
s(g92
S'AAPNNP'
tp149
F1
s(g41
S'AVVDP'
tp150
F1
s(g61
S'NNVP'
tp151
F2
s(S'PP'
p152
S'PADVDP'
tp153
F2
s(g61
S'NNCP'
tp154
F4
s(S'DP'
p155
S'ADVDDPP'
tp156
F1
s(g84
S'MVCP'
tp157
F1
s(g109
S'ACP'
tp158
F4
s(g152
S'PADVAAP'
tp159
F1
s(S'CP'
S'CDDPP'
tp160
F5
s(g106
S'DAAPP'
tp161
F2
s(g95
S'PVVP'
tp162
F1
s(g47
S'VDP'
tp163
F17
s(S'VP'
S'AVDDP'
tp164
F1
s(S'VP'
S'VVCP'
tp165
F1
s(g45
S'DAP'
tp166
F4
s(g131
S'CADPP'
tp167
F2
s(g32
S'PPAP'
tp168
F1
s(S'DP'
S'DVVP'
tp169
F2
s(g28
S'VVMP'
tp170
F1
s(g116
S'APPP'
tp171
F2
s(g143
S'ANMP'
tp172
F1
s(g80
S'ADVVPP'
tp173
F1
s(S'CP'
S'CADVDPP'
tp174
F1
s(g109
S'AADVDP'
tp175
F1
s(g98
S'NAAMMP'
tp176
F1
s(g90
S'DDNP'
tp177
F5
s(g143
S'NADVCP'
tp178
F1
s(g17
S'ANCP'
tp179
F1
s(S'DP'
S'DADVADVPP'
tp180
F1
s(S'DP'
S'ADVDPP'
tp181
F2
s(S'AP'
S'AADP'
tp182
F3
s(g37
S'DDDP'
tp183
F1
s(g155
S'DADVADVPPP'
tp184
F1
s(S'CP'
S'CCADVDDP'
tp185
F1
s(S'MP'
S'MAADP'
tp186
F1
s(g76
S'ANVVP'
tp187
F1
s(g113
S'VVDP'
tp188
F5
s(g19
S'NPPP'
tp189
F2
s(S'DP'
S'DAVP'
tp190
F1
s(S'PP'
S'PAAP'
tp191
F1
s(g106
S'DNNP'
tp192
F4
s(S'NP'
S'NCP'
tp193
F21
s(S'MP'
S'MDNP'
tp194
F1
s(g52
S'PADVADVNNP'
tp195
F1
s(g82
S'PPNP'
tp196
F5
s(S'NP'
p197
S'NNNVP'
tp198
F1
s(g74
S'ADVVP'
tp199
F1
s(S'MP'
S'MPPNP'
tp200
F1
s(g147
S'ACDDP'
tp201
F1
s(g197
S'ADVADVNNCP'
tp202
F1
s(S'AP'
p203
S'AAPP'
tp204
F1
s(S'VP'
S'VVCCP'
tp205
F1
s(g131
S'CDAAPP'
tp206
F1
s(S'NP'
S'AANDP'
tp207
F1
s(g113
S'VAANNP'
tp208
F1
s(S'NP'
S'NNCCP'
tp209
F1
s(g12
S'MNVP'
tp210
F1
s(S'AP'
p211
S'ADP'
tp212
F9
s(S'NP'
S'NAPP'
tp213
F1
s(g211
S'APP'
tp214
F3
s(S'AP'
S'AAP'
tp215
F1
s(S'VP'
S'VVPP'
tp216
F1
s(g203
S'AMP'
tp217
F1
s(S'VP'
S'ADVADVVMP'
tp218
F1
s(S'PP'
p219
S'APDDP'
tp220
F1
s(g32
S'PAAAP'
tp221
F1
s(S'PP'
S'PAANP'
tp222
F1
s(g47
S'AVDP'
tp223
F2
s(g102
S'ANVP'
tp224
F3
s(g6
S'DVP'
tp225
F13
s(S'MP'
S'MVNP'
tp226
F1
s(g61
S'ADVNPP'
tp227
F1
s(g30
S'MNDP'
tp228
F1
s(g8
S'NNCCCP'
tp229
F1
s(S'AP'
S'AVP'
tp230
F1
s(S'AP'
S'ADVAADP'
tp231
F1
s(g8
S'NNADVADVVP'
tp232
F2
s(g219
S'PAVP'
tp233
F1
s(g4
S'DDPPP'
tp234
F1
s(g102
S'NPP'
tp235
F17
s(g102
S'NVP'
tp236
F15
s(g98
S'NAAPP'
tp237
F1
s(g82
S'APPPP'
tp238
F1
s(g47
S'VNP'
tp239
F10
s(S'NP'
S'ANMMMP'
tp240
F1
s(S'VP'
S'VANP'
tp241
F1
s(g10
S'VDDP'
tp242
F2
s(g124
S'PNNP'
tp243
F3
s(g45
S'DPP'
tp244
F25
s(g64
S'MVADVPPP'
tp245
F1
s.