ccollections
defaultdict
p1
(c__builtin__
float
p2
tRp3
(S'DP'
p4
S'DDPP'
tp5
F3
s(S'DP'
p6
S'DANP'
tp7
F4
s(S'VP'
S'ADVVNP'
tp8
F1
s(S'NP'
p9
S'NADVADVVVP'
tp10
F1
s(S'NP'
p11
S'ANPP'
tp12
F2
s(S'PP'
S'ADVPPDP'
tp13
F1
s(S'MP'
p14
S'MPDP'
tp15
F1
s(S'VP'
p16
S'VVNP'
tp17
F5
s(S'DP'
p18
S'DDMP'
tp19
F1
s(S'PP'
p20
S'PPVP'
tp21
F2
s(g16
S'ADVVVNP'
tp22
F1
s(S'MP'
p23
S'MVDP'
tp24
F3
s(S'NP'
S'ADVADVNPP'
tp25
F1
s(S'PP'
p26
S'PAPP'
tp27
F1
s(S'NP'
S'NVVP'
tp28
F3
s(S'DP'
p29
S'DNP'
tp30
F15
s(g26
S'PNNP'
tp31
F2
s(S'VP'
p32
S'VVADVCP'
tp33
F1
s(S'CP'
S'CDAPP'
tp34
F1
s(S'CP'
S'CDPPP'
tp35
F2
s(S'NP'
p36
S'ANCCP'
tp37
F1
s(g6
S'AAADPP'
tp38
F1
s(S'DP'
p39
S'ADNP'
tp40
F2
s(S'VP'
S'VADP'
tp41
F1
s(S'PP'
p42
S'PADP'
tp43
F2
s(S'DP'
p44
S'ADVADPP'
tp45
F1
s(g26
S'PDDP'
tp46
F3
s(S'CP'
S'ACDP'
tp47
F1
s(S'DP'
S'DDADVADVVP'
tp48
F1
s(S'NP'
S'NNNCP'
tp49
F1
s(S'DP'
S'DAPP'
tp50
F3
s(S'CP'
S'CDADVPPP'
tp51
F2
s(S'VP'
p52
S'VAP'
tp53
F7
s(g26
S'APVP'
tp54
F2
s(g42
S'PPADVADVPP'
tp55
F1
s(S'PP'
p56
S'APPPPP'
tp57
F1
s(S'PP'
p58
S'PPPP'
tp59
F2
s(g16
S'VVDDP'
tp60
F3
s(g58
S'PPADVADVADVADVVP'
tp61
F1
s(S'VP'
p62
S'ADVADVVDP'
tp63
F1
s(S'AP'
p64
S'ADDP'
tp65
F1
s(S'VP'
S'ADVVVDP'
tp66
F1
s(g39
S'DPPP'
tp67
F3
s(S'PP'
S'PADVAAP'
tp68
F1
s(g56
S'PPPVP'
tp69
F1
s(g32
S'VCP'
tp70
F6
s(g42
S'PAP'
tp71
F5
s(S'PP'
S'ADVPNP'
tp72
F1
s(S'NP'
p73
S'NNPP'
tp74
F1
s(g58
S'PNP'
tp75
F16
s(S'NP'
p76
S'NAPP'
tp77
F1
s(S'MP'
S'MADP'
tp78
F1
s(g29
S'DNNNP'
tp79
F1
s(S'DP'
p80
S'DDP'
tp81
F2
s(S'PP'
S'PANP'
tp82
F1
s(S'NP'
p83
S'ANNMP'
tp84
F1
s(S'AP'
S'ACCP'
tp85
F1
s(g11
S'ANADVADVVP'
tp86
F1
s(g20
S'PMP'
tp87
F2
s(g73
S'NAAP'
tp88
F1
s(S'CP'
p89
S'CCDP'
tp90
F5
s(g18
S'ADVADVADVDPP'
tp91
F1
s(S'NP'
S'NAP'
tp92
F5
s(g62
S'ADVADVADVADVVCCP'
tp93
F1
s(S'NP'
p94
S'NMP'
tp95
F4
s(g62
S'VVVVAP'
tp96
F1
s(S'NP'
p97
S'NDP'
tp98
F4
s(S'PP'
S'PNNNP'
tp99
F1
s(S'PP'
p100
S'PVP'
tp101
F14
s(g52
S'VVP'
tp102
F2
s(g44
S'DDVP'
tp103
F2
s(g100
S'PDP'
tp104
F16
s(g42
S'ADVADVPVP'
tp105
F1
s(g64
S'AADP'
tp106
F2
s(S'PP'
S'APNP'
tp107
F1
s(g58
S'PPP'
tp108
F8
s(S'NP'
p109
S'NAVP'
tp110
F1
s(g36
S'NNADVPP'
tp111
F1
s(S'MP'
S'MVNNP'
tp112
F1
s(S'CP'
p113
S'CDPP'
tp114
F13
s(g83
S'NADVVVP'
tp115
F2
s(S'CP'
p116
S'ADVCADP'
tp117
F1
s(S'CP'
S'CCADVADVADVDP'
tp118
F1
s(S'VP'
p119
S'VPP'
tp120
F8
s(g76
S'NACP'
tp121
F1
s(g11
S'NCCP'
tp122
F4
s(g113
S'ADVCDP'
tp123
F1
s(S'DP'
p124
S'ADPPP'
tp125
F1
s(g97
S'NNVP'
tp126
F1
s(g94
S'NNCP'
tp127
F2
s(S'AP'
S'ACP'
tp128
F2
s(S'CP'
p129
S'CCDDP'
tp130
F1
s(g89
S'CDDPP'
tp131
F2
s(g100
S'PVVP'
tp132
F4
s(S'CP'
S'CADPPP'
tp133
F1
s(g80
S'DADVPPP'
tp134
F2
s(g26
S'ADVPPAP'
tp135
F1
s(g83
S'NNVVP'
tp136
F2
s(g23
S'MADVVPPP'
tp137
F1
s(g80
S'DAP'
tp138
F4
s(S'CP'
p139
S'CADPP'
tp140
F4
s(g32
S'VDP'
tp141
F14
s(g80
S'DVVP'
tp142
F1
s(S'MP'
p143
S'ADVMVP'
tp144
F1
s(S'VP'
p145
S'ADVADVVCCP'
tp146
F1
s(S'VP'
p147
S'VADVVP'
tp148
F1
s(g147
S'ADVVPP'
tp149
F1
s(S'NP'
S'ADVADVNVP'
tp150
F1
s(S'NP'
S'NVVVP'
tp151
F1
s(g52
S'VNNP'
tp152
F3
s(g139
S'CADVDPP'
tp153
F1
s(g80
S'DDNP'
tp154
F5
s(g83
S'NADVCP'
tp155
F1
s(S'NP'
S'ANCP'
tp156
F1
s(g58
S'APDP'
tp157
F3
s(S'DP'
p158
S'DMP'
tp159
F1
s(S'DP'
p160
S'ADVDPP'
tp161
F1
s(g145
S'VVVNP'
tp162
F1
s(g119
S'ADVVVVP'
tp163
F1
s(g56
S'PADVADVNP'
tp164
F1
s(g160
S'ADPP'
tp165
F5
s(g11
S'NNVVVVP'
tp166
F1
s(g129
S'CCAAADP'
tp167
F1
s(g52
S'VVDP'
tp168
F3
s(g143
S'MADVVNP'
tp169
F1
s(g18
S'DAVP'
tp170
F1
s(S'DP'
S'DNNP'
tp171
F4
s(g11
S'NCP'
tp172
F14
s(g14
S'MADVVDP'
tp173
F1
s(g58
S'PPNP'
tp174
F3
s(S'NP'
p175
S'NNNVP'
tp176
F1
s(g158
S'ADVVP'
tp177
F1
s(g39
S'DADVVVP'
tp178
F1
s(g9
S'NNCCP'
tp179
F1
s(S'AP'
S'ADP'
tp180
F9
s(g62
S'VAPP'
tp181
F3
s(S'NP'
S'NPPPPP'
tp182
F1
s(S'AP'
S'APP'
tp183
F4
s(S'VP'
S'ADVVDP'
tp184
F1
s(g36
S'NADVMP'
tp185
F1
s(g4
S'DADVPP'
tp186
F1
s(S'CP'
S'CADVADPP'
tp187
F1
s(g124
S'DADVADVNP'
tp188
F1
s(S'PP'
S'ADVPANNP'
tp189
F1
s(g147
S'AVDP'
tp190
F2
s(g109
S'ANVP'
tp191
F1
s(g80
S'DVP'
tp192
F9
s(S'AP'
p193
S'AVP'
tp194
F3
s(g193
S'ADVAADP'
tp195
F1
s(g16
S'ADVVPPP'
tp196
F1
s(g6
S'DDPPP'
tp197
F1
s(g97
S'NNAP'
tp198
F1
s(g175
S'NPP'
tp199
F10
s(S'PP'
S'PPPPNP'
tp200
F1
s(g175
S'NVP'
tp201
F13
s(g116
S'CDADVPP'
tp202
F1
s(g52
S'VNP'
tp203
F4
s(g16
S'VDDP'
tp204
F3
s(S'VP'
S'ADVADVVVNP'
tp205
F1
s(g29
S'DPP'
tp206
F18
s(g56
S'APPP'
tp207
F2
s.