ccollections
defaultdict
p1
(c__builtin__
float
p2
tRp3
(S'DP'
p4
S'DDPP'
tp5
F5
s(S'PP'
S'PPCP'
tp6
F1
s(S'DP'
p7
S'DANP'
tp8
F9
s(S'PP'
p9
S'APVP'
tp10
F1
s(S'NP'
p11
S'NNADVADVPP'
tp12
F1
s(S'NP'
p13
S'ANPP'
tp14
F5
s(S'PP'
p15
S'PPPPP'
tp16
F1
s(S'DP'
S'DCP'
tp17
F1
s(S'VP'
p18
S'VVNP'
tp19
F2
s(S'MP'
p20
S'MVVPP'
tp21
F1
s(S'PP'
p22
S'PPVP'
tp23
F3
s(S'PP'
S'PDDDP'
tp24
F1
s(S'VP'
p25
S'VAAP'
tp26
F1
s(S'NP'
p27
S'ANDDP'
tp28
F1
s(S'PP'
p29
S'PAPP'
tp30
F1
s(S'CP'
S'CAADPP'
tp31
F1
s(S'NP'
p32
S'ANDP'
tp33
F2
s(S'DP'
p34
S'DNP'
tp35
F18
s(S'VP'
p36
S'ADVVAADP'
tp37
F1
s(S'VP'
p38
S'VMP'
tp39
F1
s(S'VP'
S'VVNNP'
tp40
F1
s(S'VP'
p41
S'VVAAP'
tp42
F1
s(S'AP'
p43
S'AAAAAMMP'
tp44
F1
s(S'CP'
p45
S'CDPPP'
tp46
F5
s(S'DP'
p47
S'ADNP'
tp48
F1
s(S'VP'
S'ADVADVVCP'
tp49
F1
s(S'VP'
S'AVAP'
tp50
F1
s(g38
S'VADP'
tp51
F2
s(g22
S'PADP'
tp52
F1
s(S'DP'
p53
S'DAAP'
tp54
F2
s(S'DP'
p55
S'ADPP'
tp56
F5
s(S'DP'
S'DDADVNNP'
tp57
F1
s(g9
S'PDDP'
tp58
F4
s(S'NP'
p59
S'NAPPP'
tp60
F1
s(S'CP'
p61
S'ACDP'
tp62
F1
s(g15
S'APPDP'
tp63
F1
s(S'VP'
S'VADVDDP'
tp64
F1
s(g34
S'ADNNP'
tp65
F1
s(g47
S'ADPPP'
tp66
F2
s(S'DP'
p67
S'DAPP'
tp68
F1
s(S'VP'
p69
S'VAP'
tp70
F9
s(g36
S'ADVVNP'
tp71
F1
s(S'VP'
S'ADVADVVPP'
tp72
F1
s(S'MP'
S'MVDP'
tp73
F1
s(g9
S'PPPP'
tp74
F4
s(S'DP'
p75
S'ADVADPP'
tp76
F1
s(S'VP'
S'ADVADVVDP'
tp77
F1
s(S'PP'
p78
S'PPPDP'
tp79
F1
s(S'AP'
S'ADDP'
tp80
F3
s(g4
S'DADVVP'
tp81
F2
s(g59
S'ANNCP'
tp82
F1
s(S'MP'
S'MMCP'
tp83
F1
s(S'DP'
S'DDAAVP'
tp84
F1
s(g47
S'DANNP'
tp85
F1
s(S'DP'
S'DAAANP'
tp86
F1
s(g55
S'DPPP'
tp87
F8
s(S'VP'
p88
S'VCP'
tp89
F6
s(S'VP'
p90
S'ADVVVVP'
tp91
F1
s(S'NP'
p92
S'NMMP'
tp93
F2
s(S'MP'
p94
S'MVPP'
tp95
F1
s(S'DP'
p96
S'ADVP'
tp97
F1
s(S'PP'
p98
S'PAP'
tp99
F11
s(S'MP'
p100
S'ADVMVVP'
tp101
F1
s(S'PP'
S'ADVPNP'
tp102
F1
s(S'PP'
p103
S'PPDP'
tp104
F3
s(g11
S'NNPP'
tp105
F1
s(S'MP'
S'MPNP'
tp106
F1
s(g9
S'PNP'
tp107
F20
s(S'AP'
S'ADVADVAACP'
tp108
F1
s(S'CP'
p109
S'CCADVADP'
tp110
F1
s(g47
S'DDP'
tp111
F1
s(S'PP'
p112
S'PANP'
tp113
F4
s(g55
S'DDCP'
tp114
F1
s(g22
S'PAAP'
tp115
F4
s(S'PP'
S'PMP'
tp116
F1
s(S'AP'
S'AAVP'
tp117
F2
s(S'NP'
p118
S'NAAP'
tp119
F1
s(S'CP'
p120
S'CCDP'
tp121
F8
s(g118
S'NAP'
tp122
F2
s(g94
S'AMVP'
tp123
F1
s(S'NP'
p124
S'NMP'
tp125
F3
s(S'MP'
S'AAMMPP'
tp126
F1
s(g92
S'NVVVP'
tp127
F1
s(g29
S'PPADVVP'
tp128
F1
s(S'NP'
p129
S'NDP'
tp130
F6
s(S'VP'
S'VVVDP'
tp131
F1
s(g22
S'PDDDDP'
tp132
F1
s(S'PP'
S'PNNNP'
tp133
F2
s(g55
S'DVP'
tp134
F18
s(S'DP'
p135
S'DDVP'
tp136
F2
s(g9
S'PDP'
tp137
F19
s(S'PP'
S'PADVNP'
tp138
F1
s(S'PP'
p139
S'APNP'
tp140
F1
s(g98
S'PPP'
tp141
F9
s(S'DP'
p142
S'DADVADVVP'
tp143
F2
s(g59
S'NAVP'
tp144
F1
s(g129
S'NAMP'
tp145
F1
s(g103
S'APPNP'
tp146
F1
s(g120
S'CDPP'
tp147
F26
s(g53
S'ADVDVP'
tp148
F1
s(g29
S'PPADVADVNP'
tp149
F1
s(S'AP'
p150
S'ADDDP'
tp151
F1
s(S'NP'
p152
S'NNNMP'
tp153
F1
s(g38
S'VCCP'
tp154
F1
s(g100
S'MVNNNP'
tp155
F1
s(g69
S'VPP'
tp156
F10
s(g13
S'NCCP'
tp157
F4
s(S'CP'
S'ADVCDP'
tp158
F1
s(g129
S'ADVADVNMP'
tp159
F1
s(g13
S'NNVP'
tp160
F2
s(S'PP'
S'PADVDP'
tp161
F1
s(S'NP'
p162
S'NNCP'
tp163
F1
s(g7
S'ADVDDPP'
tp164
F1
s(S'NP'
p165
S'NADVADVVP'
tp166
F1
s(S'AP'
S'ACP'
tp167
F6
s(g124
S'NNNCP'
tp168
F1
s(g61
S'CDDPP'
tp169
F4
s(g112
S'PVVP'
tp170
F3
s(S'AP'
S'AACP'
tp171
F3
s(S'VP'
S'AVNP'
tp172
F1
s(S'PP'
S'PPAP'
tp173
F2
s(g90
S'VVCP'
tp174
F1
s(g7
S'DAP'
tp175
F3
s(S'MP'
p176
S'MCADP'
tp177
F1
s(S'CP'
S'CADPP'
tp178
F4
s(g36
S'ADVVVCCP'
tp179
F2
s(g69
S'VDP'
tp180
F19
s(g47
S'DVVP'
tp181
F1
s(g36
S'VADVVP'
tp182
F1
s(S'MP'
S'MVAPP'
tp183
F1
s(g129
S'ANMP'
tp184
F2
s(S'AP'
p185
S'APPP'
tp186
F1
s(g36
S'ADVVPP'
tp187
F1
s(g69
S'VNNP'
tp188
F1
s(g45
S'CADVDPP'
tp189
F1
s(g4
S'AADNNP'
tp190
F1
s(g27
S'NADP'
tp191
F1
s(g15
S'PANNP'
tp192
F1
s(S'VP'
p193
S'ADVVAP'
tp194
F1
s(S'DP'
S'DDNP'
tp195
F2
s(g34
S'DDNNP'
tp196
F1
s(g32
S'ANCP'
tp197
F6
s(g29
S'APDP'
tp198
F4
s(g185
S'ADVADVAADVCP'
tp199
F1
s(g55
S'ADVDPP'
tp200
F1
s(g18
S'VNNNP'
tp201
F2
s(S'PP'
S'PPAANP'
tp202
F1
s(S'NP'
S'AAANPP'
tp203
F1
s(g20
S'MMVP'
tp204
F1
s(S'AP'
p205
S'AADP'
tp206
F3
s(g94
S'MADVVVCCP'
tp207
F1
s(g47
S'DDDP'
tp208
F1
s(S'VP'
S'VADVPP'
tp209
F1
s(S'CP'
S'CDDPPP'
tp210
F1
s(S'DP'
S'AADPP'
tp211
F1
s(S'NP'
S'ANVVP'
tp212
F1
s(S'PP'
S'ADVPVP'
tp213
F1
s(g41
S'VVDP'
tp214
F1
s(g129
S'NPPP'
tp215
F4
s(g112
S'PPADVADVAP'
tp216
F1
s(g15
S'PPAAAP'
tp217
F1
s(S'DP'
S'DAPPP'
tp218
F1
s(S'PP'
p219
S'ADVPDP'
tp220
F1
s(g43
S'ACCP'
tp221
F1
s(S'NP'
S'ADVNNPP'
tp222
F1
s(g55
S'DNNP'
tp223
F2
s(g11
S'NCP'
tp224
F21
s(S'CP'
S'CDDPPPP'
tp225
F1
s(S'MP'
S'MDNP'
tp226
F1
s(g100
S'MVVNP'
tp227
F1
s(g15
S'AAAPNP'
tp228
F1
s(g78
S'PPNP'
tp229
F4
s(g165
S'NNNVP'
tp230
F1
s(S'AP'
S'AAPP'
tp231
F4
s(S'VP'
S'VVCCP'
tp232
F1
s(S'AP'
S'AAADVDP'
tp233
F1
s(g219
S'PADVVP'
tp234
F1
s(g4
S'DACP'
tp235
F1
s(g11
S'NNCCP'
tp236
F1
s(g176
S'MNVP'
tp237
F2
s(g205
S'ADP'
tp238
F10
s(g13
S'NAPP'
tp239
F2
s(g150
S'APP'
tp240
F3
s(g142
S'DDPPPP'
tp241
F1
s(g152
S'NADVMP'
tp242
F1
s(S'AP'
S'AAP'
tp243
F1
s(g135
S'DADVPP'
tp244
F2
s(g25
S'AVCP'
tp245
F1
s(S'VP'
S'VVPP'
tp246
F2
s(g75
S'DAAAPP'
tp247
F1
s(g45
S'CCADP'
tp248
F1
s(g7
S'DDDVP'
tp249
F2
s(g18
S'ADVADVVMP'
tp250
F1
s(g22
S'ADVADVPNP'
tp251
F1
s(g162
S'NNNCCP'
tp252
F1
s(g139
S'PPVVP'
tp253
F1
s(g18
S'VVAP'
tp254
F2
s(g9
S'PVP'
tp255
F14
s(S'AP'
S'AVP'
tp256
F3
s(g109
S'CDAAAPP'
tp257
F1
s(g67
S'DDPPP'
tp258
F1
s(S'NP'
S'ADVNMP'
tp259
F1
s(S'NP'
S'NNAP'
tp260
F1
s(g13
S'NPP'
tp261
F18
s(g193
S'VAPP'
tp262
F3
s(g11
S'NVP'
tp263
F12
s(g96
S'ADVDADVAAPPP'
tp264
F1
s(S'CP'
S'CDADVPP'
tp265
F1
s(g88
S'VNP'
tp266
F9
s(g88
S'VANP'
tp267
F1
s(g38
S'VDDP'
tp268
F2
s(g27
S'ANNPP'
tp269
F1
s(g219
S'APDDP'
tp270
F1
s(g34
S'DDDDVP'
tp271
F1
s(g34
S'DPP'
tp272
F27
s.