ccollections
defaultdict
p1
(c__builtin__
float
p2
tRp3
(S'DP'
S'ADDPP'
tp4
F1
s(S'DP'
S'DDAP'
tp5
F1
s(S'VP'
p6
S'ADVVVNP'
tp7
F1
s(S'PP'
p8
S'ADVADVADVPPVP'
tp9
F1
s(S'VP'
S'VVVVP'
tp10
F1
s(S'PP'
p11
S'PAPP'
tp12
F7
s(S'PP'
p13
S'PADVNP'
tp14
F9
s(S'DP'
p15
S'DNP'
tp16
F119
s(S'NP'
S'ADVNDP'
tp17
F1
s(S'CP'
p18
S'CDPPP'
tp19
F44
s(S'VP'
p20
S'VADP'
tp21
F9
s(S'DP'
p22
S'DAAP'
tp23
F1
s(S'VP'
S'AAVPPP'
tp24
F1
s(S'PP'
p25
S'APPDP'
tp26
F2
s(S'CP'
S'CADVADVDPPP'
tp27
F2
s(S'DP'
S'ADNNP'
tp28
F1
s(g6
S'VADVVVP'
tp29
F1
s(S'PP'
S'PADVADVADVADVDDP'
tp30
F1
s(S'PP'
p31
S'APVP'
tp32
F9
s(g11
S'PPADVADVPP'
tp33
F1
s(S'PP'
p34
S'PADVANP'
tp35
F1
s(S'PP'
p36
S'PPPP'
tp37
F24
s(S'DP'
p38
S'DDDNP'
tp39
F2
s(S'MP'
S'AMCP'
tp40
F1
s(S'VP'
p41
S'VACP'
tp42
F3
s(S'DP'
p43
S'DADVVP'
tp44
F3
s(S'PP'
p45
S'PADVNNP'
tp46
F2
s(S'AP'
p47
S'AADVPP'
tp48
F1
s(S'NP'
p49
S'NADVACP'
tp50
F1
s(S'VP'
p51
S'AAVVP'
tp52
F1
s(S'NP'
p53
S'NADVVVP'
tp54
F1
s(S'VP'
p55
S'VCP'
tp56
F74
s(S'NP'
p57
S'NMMP'
tp58
F5
s(S'NP'
S'NANP'
tp59
F1
s(S'MP'
S'MVADVNP'
tp60
F1
s(S'PP'
p61
S'PAP'
tp62
F53
s(S'MP'
S'MMVVP'
tp63
F1
s(S'MP'
S'MVVADVANP'
tp64
F1
s(S'VP'
p65
S'VADVADVAP'
tp66
F1
s(S'PP'
S'ADVPPVP'
tp67
F1
s(S'CP'
p68
S'CDDPPP'
tp69
F9
s(S'PP'
p70
S'APVVP'
tp71
F1
s(S'PP'
S'PPADVDP'
tp72
F1
s(S'CP'
p73
S'CADPPPP'
tp74
F1
s(g13
S'PNP'
tp75
F123
s(S'DP'
p76
S'DDP'
tp77
F34
s(S'VP'
S'ADVVDDP'
tp78
F1
s(S'NP'
p79
S'NNDP'
tp80
F9
s(S'MP'
p81
S'MCDP'
tp82
F5
s(S'PP'
S'ADVPCP'
tp83
F1
s(S'VP'
S'ADVADVVVCP'
tp84
F2
s(S'NP'
p85
S'NMP'
tp86
F45
s(S'PP'
S'PPMMP'
tp87
F1
s(S'DP'
S'ADCP'
tp88
F1
s(S'VP'
p89
S'VMMP'
tp90
F1
s(g61
S'PDP'
tp91
F120
s(S'VP'
S'VAMP'
tp92
F1
s(S'NP'
p93
S'ADVNVVP'
tp94
F1
s(S'VP'
p95
S'VNNNNP'
tp96
F1
s(S'CP'
S'CDADVADVPPP'
tp97
F1
s(S'NP'
p98
S'NACCP'
tp99
F3
s(g31
S'PADVPP'
tp100
F6
s(S'NP'
p101
S'NNADVCP'
tp102
F1
s(S'NP'
p103
S'ADVANCP'
tp104
F1
s(S'PP'
p105
S'AAPPPP'
tp106
F1
s(S'DP'
p107
S'DPPPP'
tp108
F3
s(S'NP'
S'NACP'
tp109
F14
s(S'AP'
S'ADVAVP'
tp110
F1
s(g79
S'NCCP'
tp111
F25
s(S'VP'
p112
S'VVCCCP'
tp113
F1
s(g20
S'ADVVAANP'
tp114
F1
s(S'VP'
S'VVVVVP'
tp115
F1
s(g85
S'NNCP'
tp116
F34
s(S'DP'
p117
S'ADVDDPP'
tp118
F3
s(S'NP'
p119
S'NADVADVVP'
tp120
F1
s(S'VP'
S'VADVCP'
tp121
F1
s(S'VP'
S'AVNP'
tp122
F3
s(S'MP'
S'MNNNNVP'
tp123
F1
s(g49
S'NADVADVMMP'
tp124
F1
s(S'PP'
p125
S'ADVPVVP'
tp126
F1
s(S'DP'
p127
S'ADVADVDANP'
tp128
F1
s(S'MP'
p129
S'MVVNP'
tp130
F1
s(S'PP'
S'ADVAPDP'
tp131
F1
s(g45
S'APNP'
tp132
F15
s(S'VP'
S'AAVDDP'
tp133
F1
s(S'NP'
p134
S'ADVADVADVNMP'
tp135
F1
s(S'MP'
S'MVAPP'
tp136
F2
s(S'PP'
S'ADVPADVDP'
tp137
F1
s(S'DP'
p138
S'DADVPPP'
tp139
F3
s(S'CP'
S'CCCDP'
tp140
F3
s(S'VP'
p141
S'AVNNP'
tp142
F1
s(S'PP'
S'ADVPPCP'
tp143
F1
s(g36
S'APDP'
tp144
F18
s(S'PP'
p145
S'PPACP'
tp146
F1
s(g129
S'MADVVAANP'
tp147
F1
s(S'PP'
p148
S'ADVPNNP'
tp149
F1
s(S'VP'
p150
S'ADVVVP'
tp151
F1
s(g98
S'ADVADVNNPP'
tp152
F1
s(S'PP'
p153
S'PAAP'
tp154
F6
s(S'DP'
p155
S'AADDVP'
tp156
F1
s(g15
S'DNNP'
tp157
F29
s(S'VP'
S'VVACCP'
tp158
F1
s(S'DP'
S'DPPPPP'
tp159
F4
s(S'VP'
p160
S'VVNNNP'
tp161
F1
s(S'MP'
p162
S'MADVADVADVADVVDP'
tp163
F1
s(S'DP'
S'ADDNP'
tp164
F1
s(S'NP'
S'NNNVP'
tp165
F2
s(S'PP'
S'PADVVP'
tp166
F2
s(S'DP'
p167
S'DACP'
tp168
F2
s(S'DP'
S'DADVADVADVPPP'
tp169
F1
s(S'PP'
S'APAP'
tp170
F2
s(S'AP'
p171
S'APP'
tp172
F31
s(S'NP'
p173
S'NADVMP'
tp174
F1
s(S'PP'
p175
S'PPADP'
tp176
F1
s(S'CP'
S'CADVADPP'
tp177
F2
s(S'MP'
S'MCDDDP'
tp178
F1
s(S'VP'
p179
S'ADVADVVMP'
tp180
F1
s(S'VP'
p181
S'VADVADVNP'
tp182
F3
s(S'MP'
S'MPVP'
tp183
F1
s(S'MP'
S'MVVCP'
tp184
F1
s(S'PP'
S'PAANP'
tp185
F2
s(g45
S'PPVVP'
tp186
F3
s(S'VP'
S'VVADVAAP'
tp187
F1
s(g129
S'MVNP'
tp188
F16
s(S'MP'
S'AMVP'
tp189
F1
s(S'NP'
S'NNANP'
tp190
F1
s(S'AP'
S'AADVCCP'
tp191
F1
s(S'CP'
S'CDDDPPP'
tp192
F1
s(S'PP'
S'PAVP'
tp193
F8
s(S'MP'
S'ADVMVP'
tp194
F2
s(g31
S'ADVADVPPVP'
tp195
F3
s(g20
S'ADVVMP'
tp196
F1
s(g70
S'APPPP'
tp197
F1
s(S'DP'
p198
S'DADP'
tp199
F3
s(S'CP'
S'ADVADVCDP'
tp200
F1
s(g51
S'VVADVPP'
tp201
F1
s(S'PP'
p202
S'APDDP'
tp203
F3
s(S'PP'
p204
S'PPPPDP'
tp205
F2
s(S'VP'
S'ADVVNP'
tp206
F2
s(g20
S'VVNP'
tp207
F18
s(S'PP'
p208
S'ADVPAVP'
tp209
F1
s(g51
S'VADVADVAAP'
tp210
F1
s(g8
S'PPVP'
tp211
F24
s(g81
S'MADVPPCP'
tp212
F1
s(S'MP'
p213
S'MVDP'
tp214
F18
s(g150
S'VADVDP'
tp215
F7
s(S'VP'
S'VAAP'
tp216
F9
s(S'NP'
S'ANDP'
tp217
F8
s(S'NP'
p218
S'NVVP'
tp219
F36
s(g153
S'AAPVP'
tp220
F3
s(S'AP'
p221
S'AAP'
tp222
F8
s(g150
S'VMP'
tp223
F11
s(g181
S'VVNNP'
tp224
F3
s(S'CP'
p225
S'CDAPP'
tp226
F11
s(S'VP'
S'VVAAP'
tp227
F1
s(S'MP'
S'MMPP'
tp228
F1
s(g76
S'ADNP'
tp229
F14
s(g36
S'PADP'
tp230
F19
s(S'DP'
S'DADVAP'
tp231
F1
s(g117
S'DAPP'
tp232
F26
s(S'NP'
S'NAAACP'
tp233
F1
s(S'DP'
p234
S'DAAVP'
tp235
F1
s(g8
S'PPPDP'
tp236
F3
s(S'VP'
p237
S'VDDDDP'
tp238
F1
s(g155
S'DAAANP'
tp239
F1
s(S'DP'
S'DADVANP'
tp240
F1
s(S'DP'
S'ADVDNP'
tp241
F3
s(S'VP'
p242
S'VVPP'
tp243
F15
s(S'CP'
p244
S'AACDDP'
tp245
F1
s(S'MP'
S'MVPP'
tp246
F8
s(g76
S'ADVP'
tp247
F6
s(S'VP'
S'VADVADVNNP'
tp248
F1
s(S'CP'
S'CADVDADVADVPPP'
tp249
F1
s(S'DP'
S'ADVADVADVADVDDVP'
tp250
F1
s(g218
S'NNPP'
tp251
F13
s(S'CP'
p252
S'CAADPPPP'
tp253
F1
s(S'MP'
S'MVVDP'
tp254
F3
s(S'CP'
S'CDDDDPPP'
tp255
F1
s(g79
S'ANVP'
tp256
F11
s(S'DP'
p257
S'DNNNP'
tp258
F1
s(S'DP'
p259
S'ADVDDVP'
tp260
F1
s(g181
S'VADVADVPPP'
tp261
F2
s(g20
S'VADVDDP'
tp262
F1
s(g153
S'PMMP'
tp263
F2
s(S'PP'
p264
S'PVVVP'
tp265
F2
s(g61
S'PMP'
tp266
F13
s(g18
S'CCDP'
tp267
F35
s(S'VP'
S'VADVANP'
tp268
F1
s(g234
S'AADDPP'
tp269
F1
s(g98
S'NVVVP'
tp270
F1
s(g244
S'CDDDPP'
tp271
F3
s(g61
S'PPADVVP'
tp272
F4
s(g160
S'VVVDP'
tp273
F2
s(g34
S'PNNNP'
tp274
F1
s(g237
S'ADVVVMP'
tp275
F1
s(S'VP'
S'VVMP'
tp276
F3
s(S'VP'
S'ADVVVDP'
tp277
F1
s(g13
S'PPP'
tp278
F85
s(S'NP'
p279
S'NAVP'
tp280
F7
s(S'NP'
S'ANNPPP'
tp281
F1
s(g162
S'AMDP'
tp282
F1
s(g208
S'PADDP'
tp283
F1
s(g117
S'ADVDVP'
tp284
F3
s(g119
S'NCCCP'
tp285
F2
s(S'DP'
p286
S'DADVADVPPP'
tp287
F1
s(S'NP'
S'NNDDP'
tp288
F2
s(g20
S'VPP'
tp289
F79
s(g73
S'ADVCCDP'
tp290
F3
s(S'CP'
S'ACCDP'
tp291
F4
s(g76
S'ADVDDNP'
tp292
F3
s(S'NP'
S'NNNCP'
tp293
F2
s(g202
S'PADVDP'
tp294
F2
s(S'CP'
S'CDADVAPP'
tp295
F2
s(S'DP'
S'DANNP'
tp296
F1
s(g225
S'CDDPP'
tp297
F31
s(S'DP'
p298
S'DAAPP'
tp299
F6
s(g31
S'PVVP'
tp300
F21
s(S'CP'
S'CADPPP'
tp301
F1
s(S'AP'
p302
S'AACP'
tp303
F3
s(S'NP'
p304
S'NADVMMP'
tp305
F1
s(S'VP'
p306
S'ADVVCP'
tp307
F3
s(S'VP'
S'VPPP'
tp308
F10
s(g179
S'ADVADVVVCCP'
tp309
F1
s(S'VP'
S'VVPPP'
tp310
F2
s(S'VP'
S'ADVVVCCP'
tp311
F1
s(g85
S'ADVNAMP'
tp312
F1
s(g31
S'PPAP'
tp313
F8
s(S'DP'
S'DVVP'
tp314
F18
s(S'DP'
p315
S'DADVADVAAP'
tp316
F1
s(g173
S'ANMP'
tp317
F1
s(S'AP'
p318
S'APPP'
tp319
F1
s(g36
S'ADVPPP'
tp320
F3
s(S'NP'
S'ADVADVNVP'
tp321
F1
s(S'VP'
S'VVVP'
tp322
F2
s(g73
S'CADVDPP'
tp323
F7
s(S'NP'
S'ADVADVNNVP'
tp324
F1
s(S'AP'
p325
S'ADVAAADVDP'
tp326
F1
s(S'DP'
S'ADVDADVADVPPP'
tp327
F1
s(g225
S'CADVDDPP'
tp328
F1
s(g79
S'ANCP'
tp329
F26
s(g76
S'DCP'
tp330
F11
s(g179
S'ADVVVVP'
tp331
F1
s(S'DP'
p332
S'DDDP'
tp333
F4
s(g53
S'ANVVP'
tp334
F1
s(g20
S'VVDP'
tp335
F22
s(g218
S'NPPP'
tp336
F16
s(S'PP'
S'PPAPP'
tp337
F1
s(g117
S'DAVP'
tp338
F5
s(S'NP'
S'NNNMP'
tp339
F1
s(S'AP'
S'ACP'
tp340
F19
s(S'PP'
S'AAPAP'
tp341
F2
s(S'PP'
p342
S'PADVADVNNP'
tp343
F2
s(g36
S'PPNP'
tp344
F31
s(S'DP'
S'ADVDAPP'
tp345
F2
s(S'DP'
S'AADVP'
tp346
F3
s(S'MP'
S'ADVMDP'
tp347
F1
s(S'CP'
p348
S'CCCDDP'
tp349
F2
s(g171
S'ADP'
tp350
F84
s(S'PP'
S'APMP'
tp351
F1
s(S'DP'
S'DDAAVP'
tp352
F1
s(g315
S'DVVVVP'
tp353
F1
s(S'PP'
S'PPPPNNP'
tp354
F1
s(g55
S'AVDP'
tp355
F10
s(S'NP'
p356
S'ANNVP'
tp357
F1
s(g89
S'VVAP'
tp358
F10
s(S'NP'
p359
S'NNAPP'
tp360
F1
s(S'CP'
S'ADVACDP'
tp361
F2
s(S'MP'
S'MPNP'
tp362
F2
s(g218
S'NPP'
tp363
F103
s(S'PP'
S'PPPPNP'
tp364
F1
s(g79
S'NVP'
tp365
F105
s(S'PP'
S'PPVVVP'
tp366
F1
s(S'PP'
S'PAAVP'
tp367
F2
s(S'PP'
S'PPADVADVPPP'
tp368
F1
s(S'MP'
S'ADVMMVP'
tp369
F1
s(S'VP'
p370
S'VDDP'
tp371
F15
s(S'MP'
S'MMNNNP'
tp372
F1
s(S'DP'
S'DADVAPP'
tp373
F3
s(g134
S'NADVADVVVP'
tp374
F3
s(g57
S'ANPP'
tp375
F16
s(g125
S'ADVPPDP'
tp376
F2
s(S'PP'
S'PPPPP'
tp377
F4
s(S'MP'
S'MPDP'
tp378
F2
s(S'MP'
S'MVVPP'
tp379
F1
s(S'DP'
p380
S'ADVDPP'
tp381
F9
s(S'NP'
S'NPPPP'
tp382
F1
s(g380
S'ADDP'
tp383
F1
s(g242
S'VVVMP'
tp384
F1
s(g348
S'CAADPP'
tp385
F2
s(S'AP'
S'AADVADVADVCCP'
tp386
F1
s(g279
S'NAACP'
tp387
F2
s(g13
S'PNNP'
tp388
F29
s(S'VP'
S'VADVACP'
tp389
F1
s(S'CP'
S'CDADVADVADVPPP'
tp390
F1
s(g125
S'APNNP'
tp391
F1
s(g112
S'AVAP'
tp392
F2
s(S'MP'
S'MMVP'
tp393
F7
s(S'PP'
p394
S'PADVDDP'
tp395
F1
s(S'NP'
p396
S'ADVNCP'
tp397
F5
s(S'AP'
S'AADP'
tp398
F11
s(S'NP'
p399
S'NAPPP'
tp400
F1
s(S'CP'
p401
S'ACDP'
tp402
F20
s(g65
S'VCCP'
tp403
F6
s(S'AP'
S'ADVANP'
tp404
F2
s(g279
S'NNACP'
tp405
F1
s(g252
S'CDADVPPP'
tp406
F3
s(g55
S'VAP'
tp407
F58
s(S'VP'
p408
S'AAAAVDP'
tp409
F1
s(g43
S'DDDPP'
tp410
F3
s(S'NP'
S'AANNCP'
tp411
F1
s(S'PP'
S'ADVPMP'
tp412
F1
s(S'CP'
S'CDAAPP'
tp413
F2
s(S'VP'
S'VADVMP'
tp414
F1
s(S'PP'
p415
S'PAAPP'
tp416
F2
s(S'MP'
S'MNMP'
tp417
F1
s(g22
S'DDDPPP'
tp418
F1
s(g95
S'ADVAVDP'
tp419
F3
s(S'DP'
S'ADAP'
tp420
F1
s(g127
S'ADVDDVVVP'
tp421
F1
s(g318
S'AVVP'
tp422
F1
s(S'PP'
S'PPPVP'
tp423
F1
s(S'AP'
S'AADDP'
tp424
F4
s(g138
S'AADPPPP'
tp425
F1
s(S'VP'
S'VAANP'
tp426
F1
s(S'NP'
S'NADVADVCP'
tp427
F1
s(S'VP'
S'ADVADVADVADVVDP'
tp428
F1
s(g31
S'PADVADVPPP'
tp429
F2
s(S'MP'
S'MADP'
tp430
F4
s(S'MP'
S'ADVADVMMDDP'
tp431
F1
s(g325
S'AMMP'
tp432
F1
s(S'PP'
p433
S'PANP'
tp434
F13
s(S'PP'
S'PDDDP'
tp435
F1
s(g8
S'PPADVADVADVPPP'
tp436
F1
s(g396
S'NADVDDP'
tp437
F2
s(S'DP'
S'ADVADPP'
tp438
F2
s(g302
S'AAVP'
tp439
F3
s(S'NP'
S'NAAP'
tp440
F6
s(S'DP'
S'AADDDP'
tp441
F1
s(S'NP'
S'NDDP'
tp442
F12
s(S'MP'
S'MVADVDP'
tp443
F2
s(g332
S'DADVADVNNP'
tp444
F1
s(g41
S'AVPPP'
tp445
F1
s(g218
S'NDP'
tp446
F57
s(S'NP'
S'NNNNVVP'
tp447
F1
s(g49
S'NNAAAAVP'
tp448
F1
s(S'DP'
S'DDVP'
tp449
F16
s(S'DP'
S'ADVDACP'
tp450
F1
s(g198
S'DDDDCCP'
tp451
F1
s(S'NP'
S'AANVP'
tp452
F1
s(S'CP'
S'ADVCADDP'
tp453
F1
s(g433
S'APADVDP'
tp454
F1
s(g8
S'PCP'
tp455
F14
s(g359
S'NNPPP'
tp456
F4
s(g415
S'PAADDP'
tp457
F2
s(g31
S'PAADP'
tp458
F8
s(g98
S'ADVNNVP'
tp459
F1
s(g359
S'NADVCCP'
tp460
F2
s(S'NP'
S'ADVNNPP'
tp461
F1
s(S'PP'
S'PACP'
tp462
F1
s(S'AP'
S'ADVADVAAVP'
tp463
F1
s(S'AP'
S'ADVACP'
tp464
F3
s(S'NP'
p465
S'ADVADVNMP'
tp466
F1
s(S'DP'
S'DDADVVP'
tp467
F1
s(g198
S'ADPPP'
tp468
F2
s(g129
S'MVCP'
tp469
F9
s(g401
S'CCDDP'
tp470
F8
s(g79
S'NNADVVP'
tp471
F2
s(S'NP'
S'ADVANAP'
tp472
F1
s(S'NP'
S'NNVVP'
tp473
F3
s(S'NP'
S'NNNNVP'
tp474
F1
s(g89
S'VVCP'
tp475
F15
s(S'NP'
p476
S'AANCP'
tp477
F3
s(g141
S'VADVNP'
tp478
F4
s(g13
S'APPP'
tp479
F5
s(S'DP'
S'DDDDPPP'
tp480
F1
s(S'MP'
p481
S'MNNPP'
tp482
F1
s(S'VP'
S'VVADVANP'
tp483
F1
s(g306
S'VNNP'
tp484
F16
s(g171
S'AADVDP'
tp485
F1
s(g476
S'NADP'
tp486
F4
s(g76
S'DDNP'
tp487
F33
s(S'NP'
S'NADVCP'
tp488
F2
s(S'DP'
S'DDNNP'
tp489
F2
s(g465
S'ADVANVP'
tp490
F1
s(g218
S'ADVADVNCP'
tp491
F3
s(S'DP'
p492
S'AADPP'
tp493
F4
s(S'PP'
S'ADVADVPPDP'
tp494
F1
s(g264
S'AAPDP'
tp495
F2
s(g175
S'PADVADVADVADVDP'
tp496
F1
s(g145
S'ADVAPVP'
tp497
F1
s(S'DP'
S'ADVDNNP'
tp498
F1
s(S'CP'
S'ACDDP'
tp499
F3
s(g399
S'ADVADVNNCP'
tp500
F1
s(S'AP'
S'AAPP'
tp501
F3
s(S'VP'
p502
S'VVCCP'
tp503
F2
s(g53
S'ADVNANP'
tp504
F1
s(g298
S'DADVVVP'
tp505
F1
s(g15
S'DADVADVNP'
tp506
F2
s(g57
S'NAPP'
tp507
F8
s(g399
S'NADVDP'
tp508
F2
s(S'VP'
S'VVVCP'
tp509
F2
s(S'PP'
p510
S'APDDDP'
tp511
F1
s(g279
S'AANPP'
tp512
F2
s(g89
S'VDDDP'
tp513
F1
s(g79
S'NNMP'
tp514
F6
s(g117
S'DDDVP'
tp515
F4
s(S'VP'
S'AAVPP'
tp516
F1
s(g259
S'DDADVVVP'
tp517
F1
s(g153
S'PAAAP'
tp518
F2
s(S'CP'
S'CDDAPP'
tp519
F1
s(g103
S'ANAP'
tp520
F1
s(S'DP'
S'ADVADVADVDDNP'
tp521
F1
s(S'MP'
S'MVAP'
tp522
F5
s(g61
S'PVP'
tp523
F110
s(S'DP'
S'DADVAVP'
tp524
F1
s(g47
S'ADVADVAPP'
tp525
F1
s(S'AP'
S'AAVVVP'
tp526
F1
s(S'AP'
S'AADVDDP'
tp527
F2
s(S'CP'
p528
S'CDDAAPP'
tp529
F1
s(g259
S'DVVVP'
tp530
F1
s(S'NP'
S'ADVNACP'
tp531
F1
s(S'PP'
p532
S'PPDDP'
tp533
F1
s(g150
S'AVCP'
tp534
F4
s(g15
S'DPP'
tp535
F142
s(S'NP'
S'ADVNVP'
tp536
F7
s(g117
S'DDPP'
tp537
F53
s(S'DP'
S'DDADVPPP'
tp538
F1
s(S'DP'
S'DANP'
tp539
F31
s(S'NP'
S'NADVPP'
tp540
F3
s(S'PP'
S'ADVADVADVPPDP'
tp541
F1
s(S'NP'
S'NAAVP'
tp542
F2
s(g38
S'AADNP'
tp543
F3
s(S'NP'
S'NNAPPP'
tp544
F1
s(S'DP'
S'ADVADVDPPP'
tp545
F2
s(g129
S'MDNP'
tp546
F5
s(S'PP'
p547
S'PADVPPP'
tp548
F1
s(S'DP'
p549
S'DCCP'
tp550
F2
s(S'DP'
S'AADDP'
tp551
F1
s(S'CP'
S'CDPPPPP'
tp552
F2
s(S'MP'
S'MADVVDP'
tp553
F1
s(g36
S'PDDP'
tp554
F26
s(S'MP'
S'MVDDP'
tp555
F1
s(S'AP'
S'ADVAVVVP'
tp556
F1
s(g279
S'NNVP'
tp557
F25
s(g101
S'NNP'
tp558
F1
s(S'VP'
S'VVDDP'
tp559
F5
s(g43
S'DAANP'
tp560
F3
s(g481
S'MDADVNP'
tp561
F1
s(g221
S'ADDP'
tp562
F13
s(g394
S'ADVPPNP'
tp563
F2
s(g359
S'ADVADVNNMP'
tp564
F1
s(g15
S'DPPP'
tp565
F58
s(S'DP'
S'AADPPP'
tp566
F1
s(S'CP'
S'ADVADVADVCCDP'
tp567
F1
s(S'PP'
S'ADVADVPPNP'
tp568
F2
s(g36
S'ADVPNP'
tp569
F3
s(g61
S'PPDP'
tp570
F35
s(S'DP'
S'DDCP'
tp571
F2
s(g204
S'PPADVDDP'
tp572
F1
s(S'AP'
S'AAAPP'
tp573
F1
s(g396
S'NAP'
tp574
F34
s(g510
S'ADVADVPPPP'
tp575
F1
s(g55
S'VVP'
tp576
F13
s(g43
S'DDAPP'
tp577
F3
s(g11
S'ADVADVPVP'
tp578
F1
s(S'AP'
S'AAADP'
tp579
F2
s(S'VP'
p580
S'AVDDDP'
tp581
F1
s(S'VP'
S'VVVNNP'
tp582
F1
s(g257
S'DDVVP'
tp583
F2
s(g370
S'VVVNP'
tp584
F3
s(S'NP'
p585
S'NAMP'
tp586
F1
s(S'AP'
S'ADVADVAAPP'
tp587
F1
s(S'MP'
S'MVANP'
tp588
F1
s(S'MP'
S'MVNNP'
tp589
F2
s(g18
S'CDPP'
tp590
F132
s(g171
S'ADDDP'
tp591
F3
s(S'CP'
S'ADVCADP'
tp592
F2
s(S'VP'
S'ADVADVADVVVNNP'
tp593
F1
s(g380
S'DCCCP'
tp594
F1
s(S'CP'
S'ADVCDP'
tp595
F1
s(S'AP'
S'ADVAAP'
tp596
F1
s(g93
S'NADVVP'
tp597
F3
s(g160
S'VADVADVDP'
tp598
F1
s(g36
S'PPNNP'
tp599
F9
s(g202
S'ADVAPPP'
tp600
F1
s(S'CP'
S'CAADDPP'
tp601
F1
s(g502
S'VDP'
tp602
F110
s(g580
S'AVDDP'
tp603
F2
s(g198
S'DADVNP'
tp604
F3
s(g117
S'DAP'
tp605
F19
s(g348
S'CADPP'
tp606
F19
s(S'NP'
S'NADVAVP'
tp607
F1
s(g41
S'AVPP'
tp608
F3
s(g528
S'CAADPPP'
tp609
F1
s(S'MP'
S'AMVVP'
tp610
F1
s(S'CP'
S'CDPPPP'
tp611
F1
s(g181
S'AAVDP'
tp612
F2
s(g549
S'ADVDVVVP'
tp613
F1
s(S'DP'
p614
S'ADPPPP'
tp615
F1
s(g57
S'NNNNDP'
tp616
F1
s(g342
S'PPPNP'
tp617
F2
s(g107
S'DADVMP'
tp618
F1
s(g76
S'ADPP'
tp619
F32
s(S'NP'
S'NNADVVVP'
tp620
F1
s(g51
S'VADVPP'
tp621
F1
s(S'DP'
S'DDAAPP'
tp622
F2
s(g286
S'ADVDANP'
tp623
F1
s(g167
S'ADVADVADVADVDDDP'
tp624
F1
s(g31
S'ADVPVP'
tp625
F6
s(g304
S'NADVADVADVVVP'
tp626
F1
s(g302
S'AADVAVP'
tp627
F1
s(S'PP'
S'PADVADVADVDDP'
tp628
F1
s(g105
S'PADVADVADVNP'
tp629
F1
s(S'AP'
S'ACCP'
tp630
F2
s(g532
S'ADVPDP'
tp631
F3
s(g547
S'AAPADVPP'
tp632
F1
s(S'NP'
S'ANNPP'
tp633
F2
s(g218
S'NCP'
tp634
F118
s(S'NP'
S'ADVANDP'
tp635
F1
s(S'AP'
S'AAAP'
tp636
F1
s(g408
S'VAADP'
tp637
F1
s(S'AP'
S'AAMP'
tp638
F1
s(g148
S'ADVPDDP'
tp639
F1
s(S'NP'
S'AAANCCCP'
tp640
F1
s(S'MP'
S'MVCCP'
tp641
F1
s(g614
S'DADVNNP'
tp642
F2
s(g356
S'NNCCP'
tp643
F5
s(S'MP'
S'MNVP'
tp644
F3
s(g79
S'AANAP'
tp645
F1
s(g20
S'VAPP'
tp646
F5
s(g502
S'ADVVDP'
tp647
F7
s(S'VP'
S'VADDP'
tp648
F1
s(g76
S'DADVPP'
tp649
F8
s(S'AP'
S'AMP'
tp650
F4
s(S'CP'
S'CCADP'
tp651
F1
s(g359
S'ADVNNCP'
tp652
F2
s(S'DP'
S'ADVDAP'
tp653
F2
s(S'AP'
S'ADVAPP'
tp654
F2
s(S'CP'
S'AACDP'
tp655
F1
s(g103
S'NNNCCP'
tp656
F1
s(g117
S'DVP'
tp657
F88
s(S'VP'
S'ADVVAP'
tp658
F2
s(S'CP'
S'AAACDP'
tp659
F1
s(g221
S'AVP'
tp660
F10
s(g213
S'MNPPP'
tp661
F2
s(g76
S'DDPPP'
tp662
F15
s(g585
S'ADVNMP'
tp663
F3
s(S'NP'
S'NNAP'
tp664
F4
s(S'MP'
S'MADVVCP'
tp665
F2
s(g25
S'PPANP'
tp666
F2
s(g68
S'CDADVPP'
tp667
F6
s(g55
S'VNP'
tp668
F101
s(g20
S'VANP'
tp669
F11
s(g306
S'VADVAP'
tp670
F8
s(g492
S'DDDANP'
tp671
F1
s(S'PP'
S'PPADVNP'
tp672
F3
s.