ccollections
defaultdict
p1
(c__builtin__
float
p2
tRp3
(S'DP'
S'DDPP'
tp4
F13
s(S'NP'
p5
S'ANNAAAP'
tp6
F1
s(S'DP'
p7
S'DANP'
tp8
F9
s(S'VP'
S'ADVVNP'
tp9
F3
s(S'NP'
p10
S'NADVADVVVP'
tp11
F1
s(S'NP'
p12
S'ANPP'
tp13
F4
s(S'DP'
p14
S'DCP'
tp15
F1
s(S'VP'
p16
S'VVNP'
tp17
F6
s(g14
S'ADDPP'
tp18
F1
s(S'PP'
p19
S'PPVP'
tp20
F1
s(S'VP'
p21
S'VADVDP'
tp22
F3
s(g14
S'AADNP'
tp23
F1
s(g21
S'VAAP'
tp24
F2
s(S'PP'
p25
S'PAPP'
tp26
F1
s(S'CP'
p27
S'CADVADVDPP'
tp28
F1
s(S'NP'
p29
S'ANDP'
tp30
F1
s(S'NP'
p31
S'NVVP'
tp32
F5
s(g7
S'DNP'
tp33
F26
s(S'PP'
p34
S'PNNP'
tp35
F11
s(S'VP'
p36
S'VVNNP'
tp37
F1
s(S'CP'
S'CDAPP'
tp38
F5
s(S'VP'
p39
S'VADVNP'
tp40
F1
s(S'CP'
S'CDPPP'
tp41
F5
s(S'PP'
p42
S'PADVPPP'
tp43
F1
s(S'DP'
p44
S'ADNP'
tp45
F2
s(S'DP'
S'DDDDPP'
tp46
F1
s(S'DP'
S'DNNNNP'
tp47
F1
s(S'PP'
p48
S'PADP'
tp49
F4
s(S'DP'
S'DAAP'
tp50
F1
s(S'DP'
p51
S'ADPP'
tp52
F5
s(S'PP'
p53
S'PDDP'
tp54
F12
s(S'CP'
S'ACDP'
tp55
F1
s(S'VP'
S'ADVADVADVVVPP'
tp56
F1
s(S'DP'
S'DAANP'
tp57
F2
s(g51
S'ADNNP'
tp58
F1
s(S'DP'
p59
S'DAPP'
tp60
F5
s(S'NP'
p61
S'ADVADVNCP'
tp62
F1
s(S'VP'
p63
S'VAP'
tp64
F9
s(g25
S'APVP'
tp65
F2
s(S'VP'
p66
S'VVVVNP'
tp67
F1
s(S'DP'
p68
S'DDDPP'
tp69
F3
s(g53
S'PPPP'
tp70
F4
s(S'VP'
S'VVDDP'
tp71
F1
s(S'NP'
S'NNNADVVP'
tp72
F1
s(S'VP'
S'ADVADVAVNP'
tp73
F1
s(S'VP'
S'ADVADVVDP'
tp74
F1
s(S'VP'
S'VACP'
tp75
F1
s(S'AP'
S'AAAVP'
tp76
F1
s(S'AP'
p77
S'ADDP'
tp78
F3
s(S'CP'
S'CDDDDPP'
tp79
F1
s(S'PP'
p80
S'PNNNNP'
tp81
F1
s(S'DP'
S'DADVVP'
tp82
F2
s(S'AP'
S'AAAAP'
tp83
F1
s(S'PP'
p84
S'PADVNNP'
tp85
F2
s(S'AP'
S'AADVPP'
tp86
F1
s(S'MP'
S'MVVVPPP'
tp87
F1
s(S'NP'
S'NAAP'
tp88
F1
s(S'DP'
p89
S'DPPP'
tp90
F10
s(g89
S'ADVDNP'
tp91
F2
s(S'VP'
S'VVPP'
tp92
F4
s(S'NP'
p93
S'NADVADVAVP'
tp94
F1
s(S'DP'
p95
S'AADPPP'
tp96
F1
s(S'NP'
S'NNAVP'
tp97
F1
s(S'VP'
p98
S'ADVVAVP'
tp99
F1
s(S'MP'
S'MVPP'
tp100
F1
s(g44
S'ADVP'
tp101
F3
s(S'PP'
S'PAP'
tp102
F8
s(S'PP'
S'PPANNP'
tp103
F1
s(g98
S'ADVVVDP'
tp104
F1
s(g25
S'ADVPNP'
tp105
F1
s(g42
S'ADVPPVP'
tp106
F1
s(g53
S'PPDP'
tp107
F3
s(S'NP'
p108
S'AANCCP'
tp109
F1
s(S'AP'
p110
S'AACP'
tp111
F1
s(S'PP'
p112
S'PNP'
tp113
F23
s(S'NP'
p114
S'NPPP'
tp115
F1
s(S'DP'
S'DNNNP'
tp116
F2
s(S'DP'
p117
S'DDP'
tp118
F5
s(S'PP'
S'PANP'
tp119
F5
s(S'PP'
p120
S'PADVADVVP'
tp121
F1
s(S'NP'
S'NNDP'
tp122
F2
s(S'NP'
S'ANADVAP'
tp123
F1
s(S'AP'
S'AVVP'
tp124
F3
s(g77
S'ACP'
tp125
F2
s(S'CP'
S'CCDP'
tp126
F7
s(S'NP'
S'NAP'
tp127
F2
s(S'NP'
p128
S'NMP'
tp129
F3
s(g36
S'VVVVAP'
tp130
F1
s(S'CP'
S'CDDDPP'
tp131
F3
s(S'NP'
S'NDP'
tp132
F10
s(S'VP'
p133
S'VVVDP'
tp134
F1
s(S'AP'
S'AAADVADVADVVVP'
tp135
F1
s(S'PP'
S'PNNNP'
tp136
F4
s(S'PP'
S'PVP'
tp137
F18
s(g63
S'VVP'
tp138
F2
s(S'DP'
S'DDVP'
tp139
F4
s(g112
S'PDP'
tp140
F27
s(S'DP'
p141
S'DADVNP'
tp142
F2
s(S'AP'
S'AAADP'
tp143
F1
s(g120
S'APNP'
tp144
F3
s(S'VP'
p145
S'AAVVPP'
tp146
F1
s(g53
S'PPP'
tp147
F11
s(g5
S'NAVP'
tp148
F1
s(g51
S'DAVP'
tp149
F1
s(g5
S'ANNPPP'
tp150
F1
s(S'NP'
S'NNNPP'
tp151
F1
s(S'CP'
S'CDPP'
tp152
F22
s(g19
S'PAADP'
tp153
F1
s(S'NP'
p154
S'ADVNNVP'
tp155
F2
s(g84
S'PADVVVP'
tp156
F1
s(S'AP'
S'ADDDP'
tp157
F1
s(g114
S'ADVNNPP'
tp158
F1
s(S'VP'
p159
S'VCCP'
tp160
F2
s(g141
S'DPPPP'
tp161
F2
s(g16
S'VPP'
tp162
F19
s(S'NP'
S'NCCP'
tp163
F3
s(g27
S'ADVCDP'
tp164
F2
s(S'NP'
p165
S'ADVNDP'
tp166
F1
s(g51
S'DDADVVP'
tp167
F1
s(g108
S'NNVP'
tp168
F7
s(g84
S'PADVDP'
tp169
F1
s(g12
S'NNCP'
tp170
F7
s(S'NP'
S'AANPPP'
tp171
F1
s(S'VP'
S'VCP'
tp172
F7
s(g27
S'CCDDP'
tp173
F1
s(S'CP'
S'CDDPP'
tp174
F10
s(g44
S'DDAPP'
tp175
F1
s(S'PP'
S'PVVP'
tp176
F3
s(S'VP'
S'VVVPPP'
tp177
F1
s(g133
S'AVNP'
tp178
F2
s(g44
S'ADVADVDPP'
tp179
F1
s(g48
S'PPNNNP'
tp180
F1
s(S'NP'
S'NNVVP'
tp181
F1
s(S'PP'
S'PPADVADVDP'
tp182
F1
s(g93
S'NNNNVP'
tp183
F1
s(g66
S'VVCP'
tp184
F1
s(S'DP'
S'DAP'
tp185
F2
s(S'CP'
S'CADPP'
tp186
F2
s(g34
S'PPAVP'
tp187
F1
s(S'VP'
S'VDP'
tp188
F17
s(g68
S'DVVP'
tp189
F4
s(g36
S'VVVP'
tp190
F1
s(g21
S'AVPP'
tp191
F1
s(S'NP'
S'NNNAAVVP'
tp192
F1
s(S'PP'
S'PPAP'
tp193
F1
s(g133
S'ADVVPP'
tp194
F1
s(S'VP'
p195
S'VNNP'
tp196
F4
s(g195
S'ADVVAP'
tp197
F1
s(S'DP'
S'DDNP'
tp198
F11
s(S'PP'
p199
S'APPP'
tp200
F1
s(S'DP'
S'DDNNP'
tp201
F1
s(S'NP'
p202
S'ANCP'
tp203
F3
s(S'PP'
S'APDP'
tp204
F4
s(S'NP'
S'NNNNDP'
tp205
F1
s(S'CP'
S'CCADP'
tp206
F1
s(S'PP'
p207
S'PPPNP'
tp208
F1
s(g159
S'VADP'
tp209
F2
s(S'AP'
p210
S'AADP'
tp211
F4
s(S'NP'
p212
S'NVVVVP'
tp213
F1
s(g59
S'DDDP'
tp214
F1
s(g141
S'DDADVPP'
tp215
F2
s(S'PP'
S'ADVPVP'
tp216
F1
s(g195
S'VVDP'
tp217
F4
s(g39
S'AVVP'
tp218
F1
s(g110
S'ACCP'
tp219
F1
s(S'NP'
S'ADVNCP'
tp220
F2
s(g207
S'ADVPDP'
tp221
F1
s(g80
S'PAAP'
tp222
F1
s(g14
S'DDDAVP'
tp223
F1
s(S'PP'
p224
S'PPPAAVVP'
tp225
F1
s(S'DP'
S'DNNP'
tp226
F6
s(S'NP'
p227
S'NCP'
tp228
F23
s(g53
S'PPNP'
tp229
F3
s(S'NP'
S'NNNVP'
tp230
F4
s(S'DP'
p231
S'ADVVP'
tp232
F2
s(g61
S'NAADP'
tp233
F1
s(S'AP'
S'AAPP'
tp234
F2
s(g14
S'DADP'
tp235
F1
s(S'VP'
S'VVCCP'
tp236
F1
s(S'VP'
S'AAVVDP'
tp237
F1
s(g199
S'PADVVP'
tp238
F1
s(g95
S'DADVADVNP'
tp239
F1
s(S'CP'
S'CDPPPP'
tp240
F2
s(g48
S'ADVPANP'
tp241
F1
s(g154
S'AANAP'
tp242
F1
s(S'CP'
S'CDDADVPP'
tp243
F1
s(g31
S'NNPP'
tp244
F7
s(g210
S'ADP'
tp245
F12
s(g19
S'APAP'
tp246
F1
s(g202
S'NAPP'
tp247
F3
s(S'AP'
S'APP'
tp248
F6
s(g51
S'DDAVP'
tp249
F1
s(g159
S'ADVVDP'
tp250
F1
s(g231
S'DADVPP'
tp251
F1
s(S'NP'
S'ANCCP'
tp252
F1
s(g165
S'NNMP'
tp253
F1
s(g51
S'ADVDAP'
tp254
F1
s(S'DP'
S'DVVVVP'
tp255
F1
s(S'AP'
S'ADVAPP'
tp256
F1
s(S'CP'
S'CADDPP'
tp257
F1
s(g224
S'PADVNP'
tp258
F2
s(g199
S'PAAAP'
tp259
F1
s(g34
S'PAANP'
tp260
F2
s(S'VP'
S'AVDP'
tp261
F4
s(g14
S'ADVDADVNNP'
tp262
F1
s(S'NP'
S'ANVP'
tp263
F4
s(g212
S'ANAP'
tp264
F1
s(g145
S'VVAP'
tp265
F2
s(g165
S'NNAPP'
tp266
F1
s(S'MP'
S'MVAP'
tp267
F1
s(g117
S'DVP'
tp268
F15
s(S'MP'
S'MVNP'
tp269
F1
s(g114
S'ADVNPP'
tp270
F1
s(S'AP'
S'AVP'
tp271
F3
s(g10
S'NADVVP'
tp272
F1
s(S'PP'
S'PAVP'
tp273
F2
s(g117
S'DDPPP'
tp274
F2
s(S'NP'
S'NNAP'
tp275
F1
s(g29
S'NPP'
tp276
F22
s(g159
S'VAPP'
tp277
F3
s(g227
S'NVP'
tp278
F22
s(S'NP'
S'NADVCP'
tp279
F2
s(S'PP'
S'PPVVVP'
tp280
F1
s(S'CP'
S'CDADVPP'
tp281
F1
s(S'VP'
S'VNP'
tp282
F13
s(S'DP'
S'ADVADVDNNP'
tp283
F1
s(g63
S'VDDP'
tp284
F7
s(g53
S'PPDDP'
tp285
F2
s(g98
S'AVCP'
tp286
F1
s(g199
S'APDDP'
tp287
F2
s(S'VP'
S'ADVADVVVNP'
tp288
F1
s(g7
S'DPP'
tp289
F26
s(g154
S'ADVNVP'
tp290
F1
s(g128
S'AANVVP'
tp291
F1
s.