ccollections
defaultdict
p1
(c__builtin__
float
p2
tRp3
(S'PP'
S'PAAANP'
tp4
F1
s(S'DP'
S'ADDPP'
tp5
F5
s(S'DP'
S'DDAP'
tp6
F5
s(S'VP'
S'ADVVVNP'
tp7
F1
s(S'AP'
S'AADDDP'
tp8
F1
s(S'CP'
S'CCDDDDP'
tp9
F1
s(S'DP'
p10
S'DAANNP'
tp11
F1
s(S'VP'
S'VVADVVP'
tp12
F1
s(S'PP'
p13
S'PAPP'
tp14
F28
s(S'PP'
S'PADVNP'
tp15
F7
s(S'DP'
p16
S'DNP'
tp17
F699
s(S'PP'
S'AAPDDP'
tp18
F3
s(S'VP'
S'ADVVNNP'
tp19
F1
s(S'CP'
p20
S'CDPPP'
tp21
F100
s(S'VP'
p22
S'VADP'
tp23
F31
s(S'DP'
S'DNNNNP'
tp24
F2
s(S'DP'
S'DACCP'
tp25
F1
s(S'CP'
S'CDAAPPP'
tp26
F1
s(S'DP'
p27
S'DAAP'
tp28
F9
s(S'PP'
p29
S'PPPPPP'
tp30
F1
s(S'PP'
p31
S'APPDP'
tp32
F4
s(S'CP'
S'CADVADVDPPP'
tp33
F1
s(S'DP'
S'DAADP'
tp34
F1
s(S'DP'
S'ADNNP'
tp35
F4
s(g13
S'APVP'
tp36
F37
s(S'MP'
S'MVDP'
tp37
F40
s(S'PP'
S'PADVANP'
tp38
F1
s(S'PP'
p39
S'PPPP'
tp40
F51
s(S'DP'
S'DDDNP'
tp41
F4
s(S'VP'
S'VACP'
tp42
F10
s(S'PP'
S'PPAAP'
tp43
F1
s(S'DP'
S'DADVVP'
tp44
F8
s(S'VP'
S'VVADDP'
tp45
F1
s(S'AP'
S'AADVPP'
tp46
F2
s(S'NP'
S'NADVACP'
tp47
F2
s(S'NP'
S'NDDDP'
tp48
F1
s(S'NP'
p49
S'NADVVVP'
tp50
F6
s(S'VP'
p51
S'VCP'
tp52
F196
s(S'NP'
S'NMMP'
tp53
F2
s(S'CP'
S'CAAADPPP'
tp54
F1
s(S'DP'
S'DDDNNP'
tp55
F1
s(S'PP'
p56
S'PAP'
tp57
F162
s(S'VP'
S'VADVADVAP'
tp58
F1
s(S'PP'
p59
S'ADVPPVP'
tp60
F1
s(S'VP'
S'VADVNP'
tp61
F2
s(S'NP'
S'NNNAP'
tp62
F3
s(S'PP'
S'APVVP'
tp63
F5
s(S'NP'
S'NNNACP'
tp64
F2
s(S'NP'
S'NAAAVP'
tp65
F1
s(S'NP'
S'NNNNVVVP'
tp66
F1
s(S'PP'
p67
S'ADVADVADVPPVP'
tp68
F1
s(S'MP'
S'AMVP'
tp69
F4
s(S'PP'
p70
S'PNP'
tp71
F541
s(S'PP'
S'PAAADP'
tp72
F1
s(S'VP'
S'AVNNNP'
tp73
F1
s(S'DP'
p74
S'DDP'
tp75
F142
s(S'NP'
S'NNNPP'
tp76
F6
s(S'PP'
p77
S'PAAP'
tp78
F22
s(S'MP'
p79
S'MCDP'
tp80
F3
s(S'DP'
S'DDAANP'
tp81
F1
s(S'NP'
S'NMP'
tp82
F98
s(S'VP'
S'AVADVPP'
tp83
F2
s(S'CP'
S'CADVDADVPP'
tp84
F1
s(g56
S'PDP'
tp85
F720
s(S'CP'
S'CDADVADVPP'
tp86
F2
s(S'DP'
S'ADVDAPPP'
tp87
F1
s(S'VP'
S'AAAVCP'
tp88
F1
s(S'NP'
S'NACCP'
tp89
F1
s(S'AP'
S'ANP'
tp90
F3
s(S'NP'
S'NADVADVADVVP'
tp91
F3
s(S'PP'
p92
S'PADVPP'
tp93
F3
s(S'VP'
S'AAVPP'
tp94
F3
s(S'CP'
S'CDDAPPP'
tp95
F1
s(S'PP'
p96
S'PPADVAP'
tp97
F2
s(S'PP'
S'AAPPPP'
tp98
F1
s(S'DP'
S'DPPPP'
tp99
F11
s(S'DP'
S'DDANP'
tp100
F6
s(S'NP'
p101
S'NACP'
tp102
F43
s(S'AP'
S'ADVAVP'
tp103
F2
s(S'NP'
p104
S'NCCP'
tp105
F101
s(S'DP'
S'DADVADVVVP'
tp106
F2
s(S'AP'
S'ADVAVVVP'
tp107
F1
s(S'NP'
p108
S'NNCP'
tp109
F104
s(S'DP'
p110
S'ADVDDPP'
tp111
F5
s(S'NP'
S'NADVADVVP'
tp112
F1
s(S'DP'
p113
S'DDDDP'
tp114
F1
s(S'VP'
S'AVACCP'
tp115
F1
s(g22
S'AVNP'
tp116
F9
s(g51
S'VVADP'
tp117
F6
s(S'PP'
S'ADVPVVP'
tp118
F1
s(S'MP'
S'MVVNP'
tp119
F1
s(S'VP'
S'VADVVP'
tp120
F2
s(S'MP'
S'MVPPP'
tp121
F1
s(S'NP'
S'ANADVVP'
tp122
F2
s(S'PP'
p123
S'ADVPAPP'
tp124
F1
s(S'CP'
S'CCCDP'
tp125
F6
s(S'VP'
S'AVNNP'
tp126
F3
s(S'VP'
S'VCCCP'
tp127
F1
s(g59
S'APDP'
tp128
F105
s(S'NP'
S'NAAPPP'
tp129
F1
s(S'VP'
S'AVADVAP'
tp130
F1
s(S'VP'
S'VANNP'
tp131
F1
s(S'AP'
S'AADVCP'
tp132
F1
s(S'NP'
S'ANNPP'
tp133
F1
s(S'DP'
p134
S'DDANNP'
tp135
F1
s(S'VP'
S'VVANP'
tp136
F4
s(S'PP'
S'ADVPNNP'
tp137
F2
s(S'VP'
S'ADVVVP'
tp138
F1
s(S'PP'
S'PPADVADVAP'
tp139
F1
s(S'MP'
S'MADVVNP'
tp140
F2
s(S'NP'
S'NANP'
tp141
F3
s(S'DP'
p142
S'DNNP'
tp143
F125
s(S'CP'
S'CADVDDPP'
tp144
F2
s(S'DP'
S'DPPPPP'
tp145
F1
s(S'CP'
S'CCADVDP'
tp146
F5
s(S'VP'
S'VVACP'
tp147
F2
s(S'NP'
S'NNNVP'
tp148
F5
s(S'PP'
p149
S'PPAAPP'
tp150
F2
s(S'PP'
S'PADVVP'
tp151
F7
s(S'DP'
S'DAAVP'
tp152
F2
s(S'DP'
S'DADVVVP'
tp153
F2
s(S'PP'
S'APAP'
tp154
F6
s(S'CP'
S'ADVADVCDP'
tp155
F2
s(S'AP'
S'ACCCP'
tp156
F3
s(S'AP'
p157
S'AAP'
tp158
F5
s(S'CP'
S'CADVADPP'
tp159
F1
s(S'NP'
S'ADVANPP'
tp160
F4
s(S'VP'
S'VVVVPP'
tp161
F1
s(S'VP'
S'VADVADVNP'
tp162
F2
s(S'CP'
S'CDDDDPP'
tp163
F1
s(S'PP'
S'PAANP'
tp164
F12
s(S'DP'
S'DDADVADVVP'
tp165
F1
s(g31
S'PPVVP'
tp166
F5
s(S'VP'
S'VAACP'
tp167
F1
s(g79
S'MVNP'
tp168
F22
s(S'AP'
S'ADVAADP'
tp169
F1
s(S'PP'
p170
S'PAVP'
tp171
F43
s(S'PP'
S'ADVAPNNP'
tp172
F1
s(S'DP'
p173
S'DDAPPP'
tp174
F1
s(S'VP'
S'VVVPP'
tp175
F9
s(S'AP'
S'ADVACCP'
tp176
F3
s(S'NP'
S'AANNAAP'
tp177
F1
s(S'AP'
S'ADVADP'
tp178
F4
s(S'AP'
S'APP'
tp179
F55
s(S'VP'
S'VVADVPP'
tp180
F1
s(S'DP'
S'ADVDDP'
tp181
F2
s(S'PP'
p182
S'APDDP'
tp183
F11
s(S'VP'
S'ADVADVVVNP'
tp184
F1
s(S'NP'
S'ADVNAP'
tp185
F1
s(S'VP'
S'ADVVNP'
tp186
F14
s(S'VP'
S'VVNP'
tp187
F27
s(S'VP'
S'VAAACP'
tp188
F1
s(S'VP'
S'VVVCP'
tp189
F1
s(S'DP'
S'DADVCCP'
tp190
F1
s(S'PP'
p191
S'PPVP'
tp192
F51
s(S'VP'
S'VADVDP'
tp193
F3
s(S'VP'
S'VAAP'
tp194
F18
s(S'NP'
p195
S'ANDP'
tp196
F35
s(g195
S'NVVP'
tp197
F79
s(S'PP'
S'AAPVP'
tp198
F4
s(S'PP'
S'PPADP'
tp199
F2
s(S'VP'
S'VMP'
tp200
F5
s(S'VP'
S'VVNNP'
tp201
F1
s(S'CP'
p202
S'CDAPP'
tp203
F76
s(S'VP'
S'VVAAP'
tp204
F4
s(S'PP'
S'ADVPMP'
tp205
F2
s(g142
S'ADNP'
tp206
F65
s(S'AP'
S'ADVAAP'
tp207
F1
s(S'PP'
p208
S'PADP'
tp209
F72
s(S'VP'
S'ADVVVCP'
tp210
F1
s(S'NP'
S'ANDDP'
tp211
F4
s(S'DP'
S'DADVAP'
tp212
F3
s(S'DP'
p213
S'DAPP'
tp214
F119
s(S'VP'
p215
S'AVVP'
tp216
F2
s(S'VP'
S'ADVADVVPP'
tp217
F3
s(S'VP'
S'VADVAAP'
tp218
F3
s(S'VP'
S'ADVADVADVVDP'
tp219
F2
s(S'VP'
S'ADVADVVDP'
tp220
F2
s(S'VP'
S'AVVNP'
tp221
F1
s(S'PP'
S'PPPDP'
tp222
F7
s(S'DP'
S'DAAPPP'
tp223
F1
s(S'AP'
S'AAPPP'
tp224
F1
s(S'DP'
S'DADVANP'
tp225
F3
s(S'NP'
S'ANADVVVP'
tp226
F2
s(S'VP'
S'VAAPP'
tp227
F5
s(S'DP'
S'ADVDNP'
tp228
F8
s(g215
S'VVPP'
tp229
F54
s(S'DP'
S'ADADVPP'
tp230
F2
s(S'CP'
S'AACDDP'
tp231
F1
s(S'MP'
p232
S'MVPP'
tp233
F8
s(g110
S'ADVP'
tp234
F19
s(S'MP'
S'MVADP'
tp235
F1
s(S'CP'
p236
S'CDDPPP'
tp237
F10
s(S'VP'
S'ADVADVADVVVANP'
tp238
F1
s(S'NP'
p239
S'NNPP'
tp240
F51
s(S'CP'
S'CCCADVDP'
tp241
F1
s(S'MP'
S'MVVDP'
tp242
F7
s(S'CP'
S'CDDDDPPP'
tp243
F1
s(S'NP'
S'ANVP'
tp244
F55
s(S'MP'
S'MVVVVNNP'
tp245
F1
s(S'DP'
p246
S'DNNNP'
tp247
F9
s(S'DP'
p248
S'ADVDADVPP'
tp249
F1
s(S'DP'
p250
S'ADVDDVP'
tp251
F3
s(S'VP'
S'VADVDDP'
tp252
F2
s(S'PP'
S'PVVVP'
tp253
F2
s(g170
S'PMP'
tp254
F8
s(S'PP'
p255
S'PAAPPP'
tp256
F1
s(S'CP'
S'CCDP'
tp257
F151
s(g108
S'ANNDP'
tp258
F3
s(S'VP'
S'VADVANP'
tp259
F3
s(g70
S'PPNNNP'
tp260
F3
s(g248
S'AADDPP'
tp261
F1
s(S'NP'
S'NVVVP'
tp262
F13
s(S'CP'
S'CDDDPP'
tp263
F1
s(S'CP'
S'CDAAPP'
tp264
F13
s(S'VP'
S'VVVDP'
tp265
F12
s(S'PP'
S'PNNNP'
tp266
F7
s(S'CP'
S'CCCCDP'
tp267
F1
s(S'AP'
S'AACCP'
tp268
F3
s(g149
S'AAPNP'
tp269
F4
s(S'CP'
S'CADADVPP'
tp270
F1
s(S'VP'
S'ADVVVDP'
tp271
F3
s(g191
S'PPP'
tp272
F236
s(S'MP'
S'MADVADVVADVAP'
tp273
F1
s(S'NP'
p274
S'NNVVP'
tp275
F11
s(S'NP'
S'NAVP'
tp276
F27
s(S'DP'
p277
S'DDADVDDP'
tp278
F1
s(S'PP'
S'PADVAP'
tp279
F2
s(S'VP'
p280
S'ADVVVCCCP'
tp281
F1
s(S'DP'
S'DDNNNP'
tp282
F2
s(S'DP'
S'DADVAAAVP'
tp283
F1
s(S'PP'
S'PADDP'
tp284
F2
s(S'DP'
p285
S'ADVDVP'
tp286
F5
s(S'PP'
p287
S'PPADVADVNP'
tp288
F1
s(S'NP'
S'NCCCP'
tp289
F1
s(g29
S'PPPPDP'
tp290
F2
s(S'VP'
S'ADVADVVVPP'
tp291
F1
s(g51
S'VPP'
tp292
F437
s(S'CP'
S'ADVCCDP'
tp293
F1
s(S'CP'
S'ACCDP'
tp294
F3
s(S'DP'
S'ADVDDNP'
tp295
F5
s(S'NP'
p296
S'NNNCP'
tp297
F10
s(S'PP'
S'PADVDP'
tp298
F11
s(S'CP'
S'CDDDPPP'
tp299
F1
s(g142
S'DANNP'
tp300
F5
s(S'CP'
S'CDDPP'
tp301
F84
s(g142
S'DAAPP'
tp302
F21
s(g182
S'PVVP'
tp303
F51
s(S'CP'
S'CADPPP'
tp304
F6
s(g213
S'DADVPPP'
tp305
F7
s(S'VP'
S'ADVVCP'
tp306
F6
s(g59
S'ADVPPAP'
tp307
F2
s(g51
S'VPPP'
tp308
F43
s(S'VP'
S'AVCCP'
tp309
F1
s(S'VP'
S'VVPPP'
tp310
F3
s(g182
S'PPAP'
tp311
F15
s(S'DP'
S'DVVP'
tp312
F40
s(S'CP'
S'CDDAAPP'
tp313
F1
s(S'VP'
S'VVVADVAP'
tp314
F1
s(S'CP'
S'ADVACDDP'
tp315
F1
s(S'NP'
p316
S'ANMP'
tp317
F4
s(S'AP'
S'APPP'
tp318
F4
s(S'PP'
S'ADVPPP'
tp319
F5
s(S'NP'
S'ADVADVNVP'
tp320
F1
s(g51
S'VVVP'
tp321
F10
s(S'CP'
S'CADVDPP'
tp322
F21
s(S'AP'
S'ACCCCP'
tp323
F1
s(g108
S'ANCP'
tp324
F118
s(S'DP'
S'DCP'
tp325
F17
s(S'NP'
p326
S'ANNCP'
tp327
F1
s(S'NP'
S'AAANCP'
tp328
F1
s(S'DP'
S'DADVCP'
tp329
F1
s(S'NP'
S'NVVVVP'
tp330
F3
s(S'DP'
p331
S'DDDP'
tp332
F21
s(S'DP'
S'DDADVPP'
tp333
F1
s(S'MP'
S'MAADP'
tp334
F2
s(S'NP'
S'ANVVP'
tp335
F7
s(S'DP'
S'ADDNNP'
tp336
F1
s(g215
S'VVDP'
tp337
F78
s(g239
S'NPPP'
tp338
F43
s(S'DP'
p339
S'AADVVP'
tp340
F1
s(g134
S'DAVP'
tp341
F38
s(S'DP'
S'AADDDP'
tp342
F1
s(S'AP'
p343
S'ACP'
tp344
F70
s(g208
S'AAPAP'
tp345
F1
s(S'PP'
S'ADVADVPPP'
tp346
F1
s(g39
S'PPNP'
tp347
F69
s(S'MP'
S'MADVVPP'
tp348
F2
s(S'NP'
S'NAADP'
tp349
F1
s(g27
S'DADP'
tp350
F8
s(S'DP'
S'AADVP'
tp351
F3
s(S'CP'
S'CADAPPP'
tp352
F1
s(S'VP'
S'VVVVNNP'
tp353
F1
s(S'VP'
S'VAANNP'
tp354
F1
s(S'AP'
p355
S'ADP'
tp356
F351
s(S'DP'
S'DDPPPP'
tp357
F1
s(S'NP'
S'ANPPP'
tp358
F4
s(S'AP'
S'ADVAADDP'
tp359
F1
s(S'CP'
S'CDDAAAAPP'
tp360
F1
s(S'DP'
S'ADVADVDAVVP'
tp361
F1
s(S'VP'
S'AVDP'
tp362
F47
s(S'NP'
S'ANNVP'
tp363
F2
s(S'PP'
S'PPADVDP'
tp364
F1
s(S'VP'
S'VVAP'
tp365
F14
s(S'NP'
S'NNAPP'
tp366
F5
s(S'CP'
p367
S'ADVACDP'
tp368
F1
s(S'NP'
S'NADVADVDP'
tp369
F1
s(S'PP'
S'PPPPNP'
tp370
F1
s(g108
S'NVP'
tp371
F547
s(S'PP'
S'PPAMP'
tp372
F1
s(S'CP'
S'ADVCCDDP'
tp373
F1
s(S'PP'
S'PAAVP'
tp374
F6
s(S'PP'
S'AAPPNP'
tp375
F2
s(S'NP'
S'NAAPP'
tp376
F6
s(S'VP'
S'VDDP'
tp377
F53
s(S'NP'
S'AANNVP'
tp378
F1
s(S'DP'
S'DMP'
tp379
F4
s(S'DP'
S'DDADVADVNNP'
tp380
F1
s(S'NP'
S'NNNDDP'
tp381
F1
s(g108
S'ANPP'
tp382
F78
s(S'PP'
S'ADVPPDP'
tp383
F1
s(S'PP'
S'PPPPP'
tp384
F7
s(S'MP'
S'MVVPP'
tp385
F2
s(g285
S'ADVDPP'
tp386
F33
s(S'DP'
p387
S'DDDDDP'
tp388
F1
s(S'VP'
S'ADVADVVADVAP'
tp389
F1
s(S'AP'
S'ADVADVAVP'
tp390
F1
s(g331
S'ADDP'
tp391
F12
s(g202
S'CAADPP'
tp392
F7
s(S'DP'
S'DADVADVVP'
tp393
F1
s(S'NP'
S'NAACP'
tp394
F7
s(g56
S'PNNP'
tp395
F69
s(S'VP'
S'ADVAAAVCP'
tp396
F1
s(S'PP'
S'APNNP'
tp397
F6
s(g113
S'DDDADVADVPPP'
tp398
F1
s(S'VP'
S'AVAP'
tp399
F4
s(S'MP'
S'MMVP'
tp400
F2
s(S'PP'
S'PADVDDP'
tp401
F3
s(S'NP'
S'ADVNCP'
tp402
F8
s(S'AP'
S'AADP'
tp403
F52
s(S'VP'
S'VAPPP'
tp404
F1
s(g236
S'ACDP'
tp405
F53
s(g108
S'NNDP'
tp406
F30
s(S'AP'
S'ADVANP'
tp407
F2
s(S'NP'
S'NNACP'
tp408
F1
s(S'DP'
S'AAADPPP'
tp409
F1
s(S'CP'
p410
S'CDADVPPP'
tp411
F5
s(g51
S'VAP'
tp412
F181
s(S'MP'
S'MVVPPP'
tp413
F1
s(S'MP'
S'MNVVP'
tp414
F1
s(S'DP'
S'DDDPP'
tp415
F2
s(S'CP'
S'ADVCDDP'
tp416
F2
s(S'NP'
S'AANNCP'
tp417
F2
s(S'NP'
S'ANADVCP'
tp418
F2
s(S'PP'
S'PAAPP'
tp419
F5
s(S'MP'
S'MVVVDP'
tp420
F1
s(S'DP'
S'DDDPPP'
tp421
F1
s(g250
S'DADVDP'
tp422
F3
s(g104
S'NAAP'
tp423
F13
s(S'VP'
p424
S'ADVADVVADVAVP'
tp425
F1
s(S'PP'
S'PPPVP'
tp426
F3
s(S'AP'
S'AADDP'
tp427
F4
s(S'DP'
S'DADVAAP'
tp428
F1
s(S'VP'
S'VAANP'
tp429
F2
s(S'NP'
S'NADVADVCP'
tp430
F2
s(S'DP'
S'DDDDPP'
tp431
F2
s(S'PP'
S'PAAAAP'
tp432
F1
s(S'NP'
S'NNNNAPP'
tp433
F1
s(S'MP'
S'MPNP'
tp434
F1
s(S'MP'
S'MADP'
tp435
F1
s(S'PP'
S'PPPDDP'
tp436
F1
s(g208
S'PANP'
tp437
F71
s(S'DP'
S'AADNP'
tp438
F2
s(S'DP'
S'ADVADPP'
tp439
F1
s(g274
S'AANMP'
tp440
F3
s(S'AP'
S'AAVP'
tp441
F9
s(S'AP'
S'AVVP'
tp442
F5
s(S'DP'
S'ADADVAPP'
tp443
F1
s(S'NP'
S'NDDP'
tp444
F10
s(S'VP'
S'VADVCP'
tp445
F1
s(S'AP'
S'ACCP'
tp446
F9
s(S'VP'
S'AVPPP'
tp447
F1
s(S'AP'
S'APPPP'
tp448
F1
s(g108
S'NDP'
tp449
F195
s(g67
S'APADVADVADVPPP'
tp450
F1
s(g142
S'DDVP'
tp451
F56
s(S'NP'
S'AANVP'
tp452
F6
s(S'VP'
S'VNNNP'
tp453
F4
s(S'PP'
p454
S'ADVPAP'
tp455
F1
s(S'PP'
S'PCP'
tp456
F14
s(g454
S'PAADDP'
tp457
F2
s(S'CP'
S'ACADVDDP'
tp458
F1
s(S'PP'
S'PAADP'
tp459
F7
s(S'VP'
S'VPPPP'
tp460
F3
s(S'NP'
S'ADVNNPP'
tp461
F1
s(S'VP'
S'VCCP'
tp462
F31
s(S'NP'
S'NNNDP'
tp463
F1
s(S'AP'
S'ADVACP'
tp464
F5
s(S'NP'
S'AANVVVP'
tp465
F1
s(S'VP'
S'AVVDP'
tp466
F1
s(S'PP'
S'ADVPADVDP'
tp467
F1
s(S'DP'
S'ADPPP'
tp468
F10
s(g232
S'MVCP'
tp469
F7
s(g410
S'CCDDP'
tp470
F14
s(S'NP'
S'NNADVVP'
tp471
F3
s(S'VP'
S'ADVADVADVVPP'
tp472
F1
s(S'DP'
S'DDADP'
tp473
F2
s(S'NP'
S'ADVANAP'
tp474
F1
s(g213
S'DADVNP'
tp475
F10
s(S'NP'
S'NNNNVP'
tp476
F1
s(S'VP'
S'VVCP'
tp477
F26
s(S'NP'
S'AANCP'
tp478
F13
s(S'VP'
S'VDP'
tp479
F564
s(S'VP'
S'VVDDDP'
tp480
F1
s(S'AP'
S'ADVAVVP'
tp481
F1
s(S'VP'
S'AVVPP'
tp482
F1
s(S'NP'
S'NNDDP'
tp483
F3
s(g16
S'DDDDPPP'
tp484
F1
s(S'VP'
S'ADVVPP'
tp485
F14
s(S'VP'
S'ADVVVPPP'
tp486
F1
s(S'VP'
S'VNNP'
tp487
F32
s(g96
S'APADVNP'
tp488
F1
s(S'NP'
p489
S'NADP'
tp490
F13
s(S'DP'
S'DDNP'
tp491
F66
s(S'CP'
S'ACADVDP'
tp492
F1
s(g49
S'NADVCP'
tp493
F11
s(S'DP'
p494
S'DDNNP'
tp495
F9
s(S'PP'
S'AAPPP'
tp496
F2
s(S'VP'
S'VPPPPP'
tp497
F1
s(S'VP'
S'ADVAVPP'
tp498
F1
s(S'NP'
S'ADVANVP'
tp499
F2
s(S'NP'
S'ADVADVNCP'
tp500
F2
s(g331
S'AADPP'
tp501
F9
s(S'CP'
S'CDPPPPP'
tp502
F1
s(S'VP'
S'ADVADVADVVDDP'
tp503
F1
s(g10
S'ADVVP'
tp504
F1
s(g367
S'ACDDP'
tp505
F6
s(S'NP'
S'ADVADVNNCP'
tp506
F1
s(S'AP'
S'AAPP'
tp507
F7
s(S'AP'
S'ADVADVACCP'
tp508
F1
s(S'VP'
S'VVCCP'
tp509
F4
s(g287
S'APPNP'
tp510
F2
s(S'PP'
S'ADVPANP'
tp511
F1
s(S'NP'
S'NAPP'
tp512
F29
s(S'PP'
S'APPVP'
tp513
F1
s(S'NP'
S'NADVDP'
tp514
F3
s(g123
S'ADVPPPP'
tp515
F1
s(S'NP'
S'ANCCP'
tp516
F13
s(S'NP'
S'AANPP'
tp517
F9
s(S'VP'
S'VDDDP'
tp518
F3
s(g49
S'NNMP'
tp519
F9
s(g173
S'DDDVP'
tp520
F8
s(S'CP'
S'CADDPP'
tp521
F1
s(S'PP'
S'PAAAP'
tp522
F2
s(S'PP'
S'ADVADVPNP'
tp523
F1
s(g410
S'CDDAPP'
tp524
F8
s(S'NP'
S'ANAP'
tp525
F9
s(S'MP'
S'MVAP'
tp526
F8
s(g191
S'PVP'
tp527
F488
s(S'VP'
S'VADVPPP'
tp528
F1
s(S'DP'
S'DADVAVP'
tp529
F1
s(S'VP'
S'VVVVDP'
tp530
F1
s(S'AP'
S'AADVDDP'
tp531
F1
s(S'AP'
S'ADVAACP'
tp532
F2
s(S'DP'
S'DVVVP'
tp533
F6
s(S'NP'
S'ADVNACP'
tp534
F1
s(S'PP'
S'PPDDP'
tp535
F10
s(S'VP'
S'AVCP'
tp536
F2
s(S'NP'
S'NAVVP'
tp537
F2
s(S'NP'
S'NAPPP'
tp538
F1
s(g246
S'DPP'
tp539
F817
s(g104
S'ADVNVP'
tp540
F10
s(S'DP'
S'DDDVVP'
tp541
F1
s(g74
S'DDPP'
tp542
F142
s(g142
S'DANP'
tp543
F194
s(S'NP'
S'NADVPP'
tp544
F4
s(g255
S'AAPPVP'
tp545
F1
s(S'NP'
S'NAAVP'
tp546
F5
s(S'DP'
S'ADDADVNP'
tp547
F1
s(S'NP'
S'NADVAPP'
tp548
F2
s(g31
S'PDDDP'
tp549
F3
s(g277
S'ADVDDAPP'
tp550
F1
s(S'DP'
S'ADVADVDPPP'
tp551
F2
s(S'PP'
S'PPPPCCP'
tp552
F1
s(S'NP'
S'NNNNCP'
tp553
F1
s(S'NP'
S'NADVCCP'
tp554
F1
s(S'MP'
S'MAAVDP'
tp555
F1
s(g110
S'DCCP'
tp556
F2
s(g387
S'AADDP'
tp557
F1
s(g208
S'AAPDP'
tp558
F22
s(S'MP'
S'MADVVDP'
tp559
F5
s(S'DP'
S'DDADVNNP'
tp560
F1
s(g59
S'PDDP'
tp561
F74
s(S'MP'
S'MVDDP'
tp562
F1
s(S'AP'
S'AAAADP'
tp563
F1
s(S'NP'
S'NNVP'
tp564
F64
s(S'NP'
S'NNP'
tp565
F1
s(S'VP'
S'VVDDP'
tp566
F2
s(S'DP'
S'DAANP'
tp567
F22
s(g355
S'ADDP'
tp568
F34
s(S'PP'
S'PNNNNP'
tp569
F1
s(S'PP'
S'ADVPPNP'
tp570
F4
s(S'CP'
S'CADVADVDPP'
tp571
F1
s(g246
S'DPPP'
tp572
F160
s(g339
S'AADPPP'
tp573
F5
s(S'PP'
S'ADVADVPPNP'
tp574
F1
s(S'PP'
S'AAPVVP'
tp575
F1
s(g489
S'NMMMP'
tp576
F2
s(S'PP'
S'ADVPNP'
tp577
F8
s(S'MP'
S'MCDDDDP'
tp578
F1
s(g56
S'PPDP'
tp579
F112
s(S'CP'
S'CAADADVPP'
tp580
F1
s(S'MP'
S'MVVAP'
tp581
F1
s(S'DP'
S'DDCP'
tp582
F2
s(S'NP'
S'NNNNNCP'
tp583
F1
s(S'PP'
S'PAANNP'
tp584
F1
s(S'PP'
S'PPADVDDP'
tp585
F1
s(S'AP'
S'AAAPP'
tp586
F3
s(S'AP'
S'ADVADVAADP'
tp587
F1
s(g101
S'NAP'
tp588
F78
s(g326
S'NNAAP'
tp589
F2
s(S'VP'
S'VAAAP'
tp590
F1
s(g424
S'ADVAVNP'
tp591
F1
s(g51
S'VVP'
tp592
F57
s(g213
S'DDAPP'
tp593
F12
s(g157
S'AAADP'
tp594
F7
s(g59
S'APNP'
tp595
F34
s(S'VP'
S'VVVNNP'
tp596
F2
s(S'DP'
S'DDVVP'
tp597
F3
s(S'VP'
S'VVVNP'
tp598
F5
s(S'NP'
S'NAMP'
tp599
F3
s(S'MP'
S'MVANP'
tp600
F1
s(S'DP'
S'ADVADVDDPP'
tp601
F2
s(S'MP'
S'MVNNP'
tp602
F3
s(S'AP'
p603
S'AAADVPP'
tp604
F1
s(g20
S'CDPP'
tp605
F690
s(S'NP'
S'NNADVPP'
tp606
F1
s(S'AP'
S'ADDDP'
tp607
F4
s(S'CP'
S'ADVCADP'
tp608
F2
s(S'VP'
S'VVAANP'
tp609
F3
s(S'MP'
S'MMMVP'
tp610
F2
s(S'CP'
S'ADVCDP'
tp611
F11
s(S'DP'
S'DDAAAAPP'
tp612
F1
s(S'PP'
S'PADVADVDP'
tp613
F1
s(S'PP'
S'ADVADVAPPAAP'
tp614
F1
s(S'PP'
S'PPNNP'
tp615
F4
s(S'PP'
S'ADVPAVP'
tp616
F1
s(S'PP'
S'PPMP'
tp617
F1
s(S'DP'
S'ADVADVDPP'
tp618
F1
s(S'VP'
S'VAADP'
tp619
F3
s(S'NP'
S'NADVAP'
tp620
F2
s(S'VP'
S'AVDDP'
tp621
F6
s(g134
S'DAP'
tp622
F35
s(S'CP'
S'CADPP'
tp623
F65
s(S'PP'
S'PPAVP'
tp624
F5
s(g10
S'ADAPPP'
tp625
F1
s(S'PP'
S'PPDDDP'
tp626
F2
s(g215
S'AVPP'
tp627
F33
s(S'CP'
S'CAADPPP'
tp628
F2
s(S'MP'
S'AMNP'
tp629
F1
s(S'VP'
S'VVADVDP'
tp630
F1
s(S'MP'
S'MVADVADVNP'
tp631
F1
s(S'CP'
S'CDPPPP'
tp632
F4
s(g280
S'AAVDP'
tp633
F9
s(g59
S'APPP'
tp634
F23
s(S'DP'
S'DAPPP'
tp635
F2
s(S'DP'
S'DADVADVPP'
tp636
F2
s(S'NP'
S'AANVVP'
tp637
F5
s(S'PP'
S'PPPNP'
tp638
F7
s(g239
S'NPP'
tp639
F508
s(S'PP'
S'PPAANP'
tp640
F2
s(g339
S'ADPP'
tp641
F92
s(S'VP'
S'VADVPP'
tp642
F4
s(S'DP'
S'DDAAPP'
tp643
F1
s(S'CP'
S'CCADVDDP'
tp644
F2
s(g92
S'ADVPVP'
tp645
F9
s(S'NP'
S'NADVADVADVVVP'
tp646
F1
s(S'NP'
S'NNVVVP'
tp647
F1
s(S'PP'
S'PAMP'
tp648
F1
s(g77
S'ADVPDP'
tp649
F11
s(S'PP'
S'PPPVVP'
tp650
F1
s(S'NP'
S'NNAAAVVP'
tp651
F1
s(g296
S'NCP'
tp652
F552
s(S'CP'
S'CADVDPPP'
tp653
F3
s(g22
S'ADVVVPP'
tp654
F4
s(S'AP'
S'AACP'
tp655
F14
s(S'NP'
S'ADVANDP'
tp656
F1
s(g603
S'AAAP'
tp657
F1
s(S'PP'
S'AAAAPVP'
tp658
F1
s(S'DP'
S'AADADVPP'
tp659
F1
s(S'NP'
S'AANDP'
tp660
F4
s(S'MP'
S'MVCCP'
tp661
F2
s(S'DP'
S'DADVNNP'
tp662
F1
s(S'NP'
S'NNCCP'
tp663
F10
s(S'MP'
S'MNVP'
tp664
F6
s(g316
S'AANAP'
tp665
F2
s(S'PP'
S'ADVAPAAP'
tp666
F1
s(S'PP'
S'PCCP'
tp667
F1
s(S'VP'
S'VAPP'
tp668
F43
s(S'NP'
S'NPPPPP'
tp669
F1
s(S'CP'
S'CDADVADVAPPP'
tp670
F1
s(g215
S'ADVVDP'
tp671
F25
s(S'VP'
S'VADDP'
tp672
F1
s(S'AP'
S'AADVDP'
tp673
F2
s(g494
S'DADVPP'
tp674
F21
s(S'CP'
S'CCADP'
tp675
F5
s(S'NP'
p676
S'ADVNNCP'
tp677
F1
s(S'PP'
S'AAPDDDP'
tp678
F1
s(S'AP'
S'ADVAPP'
tp679
F1
s(S'DP'
S'DADVADVAPPP'
tp680
F1
s(g202
S'AACDP'
tp681
F7
s(S'CP'
S'CCADVADVDDP'
tp682
F2
s(S'DP'
S'ADVDPPP'
tp683
F4
s(g142
S'DVP'
tp684
F466
s(S'VP'
S'ADVVAP'
tp685
F1
s(g676
S'ADVNPP'
tp686
F3
s(S'CP'
S'AAACDP'
tp687
F1
s(g343
S'AVP'
tp688
F25
s(S'NP'
S'NADVVP'
tp689
F16
s(S'NP'
S'NNADVADVVP'
tp690
F1
s(S'DP'
S'DADDP'
tp691
F1
s(S'NP'
S'NNNMP'
tp692
F1
s(S'VP'
S'ADVVPPP'
tp693
F2
s(g134
S'DDPPP'
tp694
F16
s(S'MP'
S'MADVADVADVVDP'
tp695
F1
s(S'NP'
S'ADVNMP'
tp696
F1
s(S'NP'
S'NNAP'
tp697
F5
s(g208
S'PPANP'
tp698
F3
s(S'VP'
S'AAAVVADVDDP'
tp699
F1
s(S'MP'
S'MCDDP'
tp700
F2
s(S'CP'
S'CDADVPP'
tp701
F13
s(g51
S'VNP'
tp702
F286
s(S'VP'
S'VANP'
tp703
F27
s(S'VP'
S'VADVAP'
tp704
F5
s(S'PP'
S'PPADVNP'
tp705
F3
s(S'NP'
S'NADVPPP'
tp706
F1
s.