ccollections
defaultdict
p1
(c__builtin__
float
p2
tRp3
(S'NP'
S'AANDDP'
tp4
F1
s(S'CP'
S'CAAADPP'
tp5
F1
s(S'DP'
S'DDAP'
tp6
F2
s(S'AP'
p7
S'AADDDP'
tp8
F1
s(S'CP'
S'CCDDDDP'
tp9
F1
s(S'VP'
p10
S'VVVVP'
tp11
F2
s(S'PP'
S'ADVADVPAP'
tp12
F1
s(S'PP'
p13
S'PAPP'
tp14
F5
s(S'PP'
S'PADVNP'
tp15
F2
s(S'DP'
p16
S'DNP'
tp17
F116
s(S'NP'
p18
S'ADVNDP'
tp19
F1
s(S'PP'
S'AAPDDP'
tp20
F1
s(S'CP'
S'CDPPP'
tp21
F26
s(g10
S'VADP'
tp22
F6
s(S'DP'
S'DAAP'
tp23
F1
s(S'VP'
p24
S'AAVPPP'
tp25
F1
s(S'PP'
p26
S'PPPPPP'
tp27
F1
s(S'VP'
S'VAVP'
tp28
F1
s(S'DP'
S'DAADP'
tp29
F1
s(S'DP'
p30
S'ADNNP'
tp31
F1
s(S'VP'
p32
S'VADVVVP'
tp33
F1
s(S'VP'
p34
S'ADVVNP'
tp35
F2
s(S'MP'
S'MVDP'
tp36
F11
s(S'PP'
S'PPPP'
tp37
F20
s(S'VP'
S'VVVVDDP'
tp38
F1
s(S'DP'
S'DDDNP'
tp39
F2
s(S'VP'
S'VACP'
tp40
F4
s(S'PP'
p41
S'PPAAP'
tp42
F2
s(S'DP'
p43
S'DADVVP'
tp44
F4
s(S'NP'
p45
S'AANPPPP'
tp46
F1
s(S'AP'
S'AADVPP'
tp47
F3
s(S'NP'
S'NADVVVP'
tp48
F1
s(S'CP'
p49
S'CADVDAPP'
tp50
F1
s(S'NP'
S'ANADVPP'
tp51
F1
s(g24
S'VCP'
tp52
F48
s(S'NP'
p53
S'NMMP'
tp54
F3
s(S'PP'
S'ADVPNNP'
tp55
F2
s(S'PP'
p56
S'PAP'
tp57
F44
s(S'VP'
S'VADVADVAP'
tp58
F2
s(S'PP'
p59
S'ADVPPVP'
tp60
F3
s(S'NP'
S'NNNAP'
tp61
F1
s(S'NP'
S'ANPPP'
tp62
F2
s(S'PP'
p63
S'PPADVDP'
tp64
F1
s(S'PP'
p65
S'PNP'
tp66
F99
s(S'DP'
p67
S'DDP'
tp68
F22
s(S'VP'
S'VCCP'
tp69
F8
s(S'MP'
S'MCDP'
tp70
F1
s(S'NP'
S'ANADVAP'
tp71
F1
s(S'DP'
S'ADVADVADNP'
tp72
F1
s(S'VP'
S'ADVADVVVCP'
tp73
F1
s(S'NP'
p74
S'NMP'
tp75
F37
s(S'NP'
S'ADVNAPP'
tp76
F1
s(S'VP'
p77
S'VMMP'
tp78
F1
s(g56
S'PDP'
tp79
F108
s(S'VP'
p80
S'VNNNNP'
tp81
F1
s(S'NP'
p82
S'NNADVMP'
tp83
F1
s(g77
S'AVVAP'
tp84
F1
s(S'DP'
S'DDDPP'
tp85
F3
s(S'PP'
p86
S'PPADVAP'
tp87
F1
s(S'DP'
S'DPPPP'
tp88
F1
s(S'NP'
S'NACP'
tp89
F8
s(S'AP'
S'ADVAVP'
tp90
F1
s(S'NP'
p91
S'NCCP'
tp92
F23
s(S'CP'
S'CDDDDPPP'
tp93
F1
s(S'VP'
p94
S'ADVVAANP'
tp95
F1
s(g91
S'NNCP'
tp96
F19
s(S'DP'
S'ADVDDPP'
tp97
F1
s(S'NP'
S'NADVADVVP'
tp98
F1
s(S'DP'
p99
S'DDDDP'
tp100
F1
s(S'DP'
S'DDAPP'
tp101
F1
s(S'VP'
S'AVNP'
tp102
F1
s(S'PP'
p103
S'ADVAPDP'
tp104
F2
s(S'PP'
p105
S'APNP'
tp106
F10
s(S'NP'
S'ADVADVADVNMP'
tp107
F1
s(S'MP'
p108
S'MVAPP'
tp109
F2
s(S'NP'
p110
S'ANADVVP'
tp111
F1
s(S'PP'
p112
S'ADVPPADVPP'
tp113
F1
s(S'CP'
S'CCCDP'
tp114
F2
s(S'VP'
S'AVNNP'
tp115
F3
s(S'VP'
p116
S'VCCCP'
tp117
F1
s(g13
S'APDP'
tp118
F18
s(S'VP'
p119
S'VVVVDP'
tp120
F1
s(g18
S'ADVADVNNPP'
tp121
F1
s(S'NP'
p122
S'NNADVANP'
tp123
F1
s(S'MP'
p124
S'MADVVNP'
tp125
F1
s(S'PP'
p126
S'PAAP'
tp127
F11
s(S'NP'
S'ADVANCP'
tp128
F1
s(S'DP'
p129
S'DNNP'
tp130
F22
s(S'CP'
S'CADVDDPP'
tp131
F1
s(S'CP'
S'CCADVDP'
tp132
F1
s(S'VP'
S'VVNNNP'
tp133
F1
s(S'AP'
S'ADVAADVPP'
tp134
F1
s(S'MP'
p135
S'MAVDDDP'
tp136
F1
s(g13
S'PADVVP'
tp137
F9
s(S'PP'
S'APAP'
tp138
F3
s(S'AP'
S'APP'
tp139
F24
s(S'NP'
S'NADVMP'
tp140
F1
s(S'AP'
S'AAP'
tp141
F2
s(S'CP'
S'CADVADPP'
tp142
F4
s(S'NP'
p143
S'ADVANPP'
tp144
F1
s(S'VP'
S'VVVVPP'
tp145
F1
s(S'CP'
p146
S'CDDDDPP'
tp147
F1
s(S'PP'
S'PAANP'
tp148
F1
s(g26
S'PPADVADVNNP'
tp149
F1
s(S'NP'
S'ANVP'
tp150
F12
s(S'MP'
S'MVNP'
tp151
F9
s(S'NP'
S'NNANP'
tp152
F1
s(S'AP'
S'ADVAADP'
tp153
F1
s(S'PP'
p154
S'PAVP'
tp155
F8
s(S'MP'
S'ADVMVP'
tp156
F2
s(S'PP'
p157
S'ADVADVPPVP'
tp158
F1
s(S'VP'
S'VVVPP'
tp159
F1
s(S'CP'
S'CADVADVADPP'
tp160
F1
s(S'PP'
p161
S'APPPP'
tp162
F1
s(S'DP'
p163
S'DADP'
tp164
F2
s(S'AP'
S'ADVADP'
tp165
F2
s(S'VP'
p166
S'VVADVPP'
tp167
F1
s(g94
S'ADVADVVVNP'
tp168
F1
s(g110
S'ADVNAP'
tp169
F1
s(g105
S'APVP'
tp170
F7
s(S'VP'
p171
S'VVNP'
tp172
F10
s(S'PP'
S'PPPNNP'
tp173
F1
s(g26
S'PPVP'
tp174
F16
s(S'VP'
p175
S'VADVDP'
tp176
F3
s(S'MP'
S'MAPNP'
tp177
F1
s(g175
S'VAAP'
tp178
F9
s(g91
S'ANDP'
tp179
F9
s(g74
S'NVVP'
tp180
F15
s(S'PP'
S'AAPVP'
tp181
F1
s(S'PP'
p182
S'PPADP'
tp183
F2
s(g10
S'VMP'
tp184
F4
s(S'AP'
p185
S'AAAVVP'
tp186
F1
s(S'VP'
p187
S'VVNNP'
tp188
F2
s(S'CP'
S'CDAPP'
tp189
F4
s(S'VP'
p190
S'VVAPP'
tp191
F1
s(S'DP'
p192
S'ADNP'
tp193
F10
s(S'PP'
S'PPADVMP'
tp194
F1
s(S'PP'
S'PADP'
tp195
F10
s(S'NP'
S'ANDDP'
tp196
F1
s(S'DP'
S'DADVAP'
tp197
F1
s(S'DP'
S'DAPP'
tp198
F12
s(S'VP'
S'AVVP'
tp199
F2
s(S'VP'
S'ADVADVVPP'
tp200
F1
s(S'VP'
S'ADVADVVDP'
tp201
F1
s(S'MP'
S'MVVVDP'
tp202
F1
s(S'MP'
S'ADVMVVVP'
tp203
F1
s(S'MP'
S'MVVAP'
tp204
F2
s(S'DP'
S'DADVANP'
tp205
F2
s(S'VP'
S'VAAPP'
tp206
F1
s(g30
S'ADVDNP'
tp207
F4
s(g24
S'VVPP'
tp208
F10
s(g119
S'VADVAPP'
tp209
F1
s(S'PP'
p210
S'PAVVP'
tp211
F1
s(S'MP'
S'MVPP'
tp212
F9
s(S'CP'
S'CADVADVDDPP'
tp213
F2
s(S'CP'
S'CDDPPP'
tp214
F4
s(S'NP'
p215
S'NNPP'
tp216
F7
s(S'MP'
p217
S'MVVDP'
tp218
F1
s(g7
S'AACP'
tp219
F6
s(g182
S'PPADVAAP'
tp220
F1
s(g157
S'PPVVP'
tp221
F1
s(S'DP'
S'DNNNP'
tp222
F4
s(S'VP'
S'VADVDDP'
tp223
F1
s(g56
S'PMP'
tp224
F13
s(S'CP'
S'CCDP'
tp225
F34
s(S'MP'
p226
S'AMVP'
tp227
F3
s(g24
S'VPPP'
tp228
F9
s(S'NP'
p229
S'NVVVP'
tp230
F3
s(S'CP'
S'CDDDPP'
tp231
F1
s(g161
S'PPADVVP'
tp232
F1
s(S'VP'
p233
S'VVVDP'
tp234
F3
s(S'NP'
S'AAANCCP'
tp235
F1
s(S'PP'
S'PNNNP'
tp236
F1
s(S'PP'
p237
S'APADVNNP'
tp238
F1
s(S'PP'
p239
S'AAPNP'
tp240
F3
s(g56
S'PPP'
tp241
F66
s(g124
S'MNDP'
tp242
F1
s(g229
S'NAVP'
tp243
F9
s(g103
S'PADVAP'
tp244
F2
s(g67
S'ADVDVP'
tp245
F3
s(S'DP'
S'DADVADVPPP'
tp246
F1
s(S'DP'
S'ADVADVDNP'
tp247
F1
s(S'AP'
S'AAADVCP'
tp248
F1
s(S'VP'
p249
S'VPP'
tp250
F67
s(S'CP'
p251
S'ADVCCDP'
tp252
F3
s(S'CP'
p253
S'ACCDP'
tp254
F1
s(S'DP'
p255
S'ADVDDNP'
tp256
F1
s(S'NP'
p257
S'NNNCP'
tp258
F4
s(S'PP'
p259
S'PADVDP'
tp260
F4
s(S'CP'
S'CDADVAPP'
tp261
F1
s(S'DP'
S'DANNP'
tp262
F1
s(S'CP'
S'CDDPP'
tp263
F20
s(S'DP'
p264
S'DAAPP'
tp265
F5
s(S'PP'
p266
S'PVVP'
tp267
F14
s(S'CP'
S'CADPPP'
tp268
F3
s(S'DP'
S'DADVPPP'
tp269
F3
s(g175
S'ADVVCP'
tp270
F4
s(S'PP'
S'PPNNNP'
tp271
F1
s(S'VP'
S'AVCCP'
tp272
F1
s(S'PP'
p273
S'PPADVADVDP'
tp274
F1
s(S'VP'
S'VVPPP'
tp275
F1
s(S'NP'
p276
S'ADVADVNNADVPPP'
tp277
F1
s(S'MP'
S'MVPPP'
tp278
F4
s(S'DP'
p279
S'DVVP'
tp280
F11
s(g65
S'APADVCCP'
tp281
F1
s(S'NP'
S'ANMP'
tp282
F2
s(g59
S'PPAP'
tp283
F3
s(S'PP'
S'ADVPPP'
tp284
F1
s(S'NP'
S'ADVADVNVP'
tp285
F1
s(g190
S'VVVP'
tp286
F3
s(S'CP'
S'CADVDPP'
tp287
F4
s(g215
S'ANCP'
tp288
F16
s(g163
S'DDDP'
tp289
F8
s(S'NP'
S'NADVADVADVDDP'
tp290
F1
s(S'NP'
S'ANVVP'
tp291
F2
s(S'NP'
S'NVVVVP'
tp292
F2
s(S'NP'
p293
S'NPPP'
tp294
F16
s(g154
S'PPAPP'
tp295
F1
s(S'VP'
S'ADVVNNNP'
tp296
F1
s(S'AP'
S'APPP'
tp297
F4
s(S'DP'
p298
S'DAVP'
tp299
F10
s(S'NP'
p300
S'NNNMP'
tp301
F1
s(S'AP'
S'ACP'
tp302
F18
s(S'PP'
S'PADVADVNNP'
tp303
F1
s(g41
S'PPNP'
tp304
F25
s(g255
S'ADVDAPP'
tp305
F1
s(g166
S'VVVVNNP'
tp306
F1
s(S'AP'
S'ADVAAVP'
tp307
F1
s(g116
S'VVVADVAAP'
tp308
F1
s(S'AP'
p309
S'ADP'
tp310
F69
s(S'CP'
S'CCCDDDP'
tp311
F1
s(g86
S'APMP'
tp312
F1
s(S'DP'
p313
S'DMP'
tp314
F4
s(S'DP'
p315
S'DVVVVP'
tp316
F2
s(g276
S'NADVADVAP'
tp317
F1
s(g34
S'AVDP'
tp318
F13
s(g171
S'VVAP'
tp319
F10
s(S'NP'
S'NNAPP'
tp320
F1
s(S'PP'
S'PADVADVDP'
tp321
F2
s(S'NP'
p322
S'NPP'
tp323
F101
s(S'VP'
S'ADVADVVAP'
tp324
F1
s(g74
S'NVP'
tp325
F85
s(g26
S'PPPPVP'
tp326
F1
s(g249
S'VDDP'
tp327
F18
s(S'VP'
S'VVVVCCCP'
tp328
F1
s(S'NP'
S'AANVVP'
tp329
F1
s(S'DP'
p330
S'DADVAPP'
tp331
F1
s(S'DP'
S'DDADVADVNNP'
tp332
F1
s(g26
S'ADVAPAP'
tp333
F1
s(S'NP'
p334
S'NADVADVVVP'
tp335
F5
s(S'NP'
S'ANPP'
tp336
F19
s(S'PP'
S'PPPPP'
tp337
F2
s(S'MP'
S'MVVPP'
tp338
F2
s(S'PP'
S'PPPNP'
tp339
F1
s(S'NP'
S'NPPPP'
tp340
F1
s(S'DP'
p341
S'ADDP'
tp342
F1
s(S'CP'
p343
S'CAADPP'
tp344
F4
s(S'DP'
p345
S'DADVADVVP'
tp346
F1
s(S'NP'
S'NAACP'
tp347
F2
s(g56
S'PNNP'
tp348
F22
s(g161
S'APNNP'
tp349
F1
s(S'DP'
S'AAADPP'
tp350
F1
s(S'VP'
S'AVAP'
tp351
F6
s(S'MP'
S'MMVP'
tp352
F4
s(S'NP'
S'ADVNCP'
tp353
F4
s(S'DP'
S'DDADVADVPP'
tp354
F1
s(S'AP'
S'AADP'
tp355
F17
s(S'CP'
S'ACDP'
tp356
F16
s(g91
S'NNDP'
tp357
F7
s(S'NP'
S'NNACP'
tp358
F1
s(S'CP'
S'CDADVPPP'
tp359
F2
s(g249
S'VAP'
tp360
F48
s(S'VP'
S'VVADVAP'
tp361
F1
s(S'CP'
S'ADVCDDP'
tp362
F1
s(S'PP'
p363
S'ADVPMP'
tp364
F1
s(S'PP'
p365
S'PAAPP'
tp366
F1
s(S'AP'
S'AAVVP'
tp367
F1
s(g279
S'DADVDP'
tp368
F1
s(g32
S'ADVVVDP'
tp369
F1
s(S'MP'
S'MANVP'
tp370
F1
s(S'PP'
S'PPPVP'
tp371
F1
s(S'AP'
p372
S'AADDP'
tp373
F4
s(S'VP'
S'VAANP'
tp374
F2
s(g10
S'ADVVAAAP'
tp375
F1
s(S'VP'
S'VVDP'
tp376
F16
s(S'MP'
S'MADP'
tp377
F1
s(S'DP'
S'DDADVNP'
tp378
F1
s(g56
S'PANP'
tp379
F11
s(S'MP'
S'MVVPPP'
tp380
F1
s(S'AP'
S'AAVP'
tp381
F5
s(S'NP'
S'NAAP'
tp382
F3
s(g300
S'NDDP'
tp383
F3
s(g185
S'ACCP'
tp384
F4
s(S'VP'
S'AVPPP'
tp385
F2
s(g91
S'NDP'
tp386
F37
s(S'VP'
S'ADVVANP'
tp387
F1
s(S'MP'
S'MVAAP'
tp388
F2
s(g192
S'DDVP'
tp389
F19
s(S'NP'
p390
S'AANVP'
tp391
F3
s(S'PP'
S'ADVPAP'
tp392
F1
s(g266
S'PCP'
tp393
F6
s(S'NP'
S'NNPPP'
tp394
F2
s(S'PP'
p395
S'PAADP'
tp396
F1
s(S'DP'
S'ADVADVADVDDNP'
tp397
F1
s(S'VP'
S'VPPPP'
tp398
F1
s(S'AP'
S'ADVACP'
tp399
F1
s(S'VP'
p400
S'VVVAP'
tp401
F2
s(g345
S'ADPPP'
tp402
F3
s(S'MP'
S'MVCP'
tp403
F10
s(S'DP'
S'ADVADVDDVP'
tp404
F1
s(S'CP'
S'CCDDP'
tp405
F7
s(g237
S'PPADVADVVP'
tp406
F1
s(g298
S'DADVNP'
tp407
F5
s(g239
S'PPADVPPP'
tp408
F1
s(g10
S'VVCP'
tp409
F10
s(g135
S'MAAVPP'
tp410
F1
s(g226
S'MVAANP'
tp411
F1
s(g334
S'AANCP'
tp412
F2
s(g10
S'VADVNP'
tp413
F2
s(g372
S'ADVAVVP'
tp414
F2
s(S'PP'
p415
S'APPP'
tp416
F2
s(S'DP'
S'DDDDPPP'
tp417
F1
s(g77
S'ADVVPP'
tp418
F2
s(S'VP'
S'VNNP'
tp419
F10
s(S'VP'
S'ADVADVVVANP'
tp420
F1
s(S'NP'
S'NADP'
tp421
F5
s(S'MP'
S'MAAVPPP'
tp422
F1
s(g129
S'DDNP'
tp423
F16
s(S'NP'
p424
S'NADVCP'
tp425
F8
s(g255
S'DDNNP'
tp426
F3
s(g264
S'AADPP'
tp427
F5
s(S'MP'
S'MADVVDP'
tp428
F1
s(S'MP'
S'MVVNP'
tp429
F1
s(S'NP'
S'ADVADVNNCP'
tp430
F1
s(S'AP'
S'AAPP'
tp431
F1
s(S'VP'
p432
S'ADVADVVVAAP'
tp433
F1
s(S'NP'
S'NNADVCP'
tp434
F1
s(g322
S'NAPP'
tp435
F11
s(S'NP'
S'NADVDP'
tp436
F1
s(S'PP'
S'ADVPPPP'
tp437
F1
s(g395
S'APDDDP'
tp438
F1
s(g229
S'ANCCP'
tp439
F4
s(S'NP'
S'AANPP'
tp440
F1
s(S'VP'
S'VDDDP'
tp441
F1
s(g293
S'NNMP'
tp442
F7
s(S'DP'
p443
S'DDDVP'
tp444
F1
s(S'VP'
p445
S'AAVPP'
tp446
F1
s(S'MP'
S'MAPDP'
tp447
F1
s(g56
S'PAAAP'
tp448
F1
s(S'CP'
S'CDDAPP'
tp449
F1
s(S'NP'
S'ANAP'
tp450
F1
s(g108
S'MVAP'
tp451
F8
s(g65
S'PVP'
tp452
F92
s(S'AP'
S'ADVADVAPP'
tp453
F1
s(g171
S'VVADVADVADVCP'
tp454
F1
s(S'NP'
S'ANNCP'
tp455
F1
s(S'DP'
S'ADVADVADVDNP'
tp456
F1
s(S'PP'
S'PPDDP'
tp457
F2
s(S'VP'
S'AVCP'
tp458
F3
s(g192
S'DDVVVP'
tp459
F1
s(g16
S'DPP'
tp460
F119
s(g53
S'ADVNVP'
tp461
F3
s(g129
S'DDPP'
tp462
F36
s(S'DP'
S'DDADVPPP'
tp463
F1
s(g298
S'DANP'
tp464
F35
s(S'NP'
S'NADVPP'
tp465
F3
s(g82
S'ANACCP'
tp466
F1
s(S'NP'
S'NADVADP'
tp467
F1
s(g424
S'AANADVVP'
tp468
F1
s(g99
S'ADVADVADPP'
tp469
F1
s(S'MP'
S'MADVVADVAP'
tp470
F1
s(S'VP'
S'VADVCP'
tp471
F2
s(g390
S'NNNNCP'
tp472
F2
s(g82
S'NADVCCP'
tp473
F2
s(S'NP'
p474
S'NNNVVP'
tp475
F1
s(g264
S'DDADVADVVVP'
tp476
F1
s(g415
S'PADVPPP'
tp477
F1
s(S'DP'
p478
S'DCCP'
tp479
F1
s(S'PP'
S'AAPDP'
tp480
F1
s(S'VP'
S'VVDDP'
tp481
F4
s(S'DP'
S'DDADVNNP'
tp482
F1
s(g259
S'PDDP'
tp483
F20
s(g424
S'NNVP'
tp484
F16
s(g122
S'ADVANVVVP'
tp485
F1
s(S'AP'
S'ADVADVACP'
tp486
F2
s(S'DP'
p487
S'ADVADPP'
tp488
F5
s(g315
S'DAANP'
tp489
F5
s(g185
S'ADDP'
tp490
F9
s(g210
S'PNNNNP'
tp491
F1
s(S'DP'
S'DDDADVVP'
tp492
F1
s(S'PP'
S'ADVPPNP'
tp493
F2
s(g49
S'CADVADVDPP'
tp494
F3
s(S'CP'
S'ADVADVADVCDP'
tp495
F1
s(g43
S'DPPP'
tp496
F36
s(g443
S'AADVVVP'
tp497
F1
s(S'VP'
S'ADVADVVVADVDP'
tp498
F1
s(g487
S'AADPPP'
tp499
F1
s(S'NP'
S'NNAVP'
tp500
F1
s(S'AP'
S'AVVP'
tp501
F5
s(g26
S'ADVPNP'
tp502
F5
s(g41
S'PPMP'
tp503
F6
s(S'MP'
S'MAVDP'
tp504
F1
s(S'AP'
S'AAPPP'
tp505
F1
s(g229
S'NAP'
tp506
F19
s(g400
S'VAAAP'
tp507
F1
s(g432
S'VVP'
tp508
F12
s(g257
S'NNVVP'
tp509
F4
s(S'NP'
p510
S'NADVADVADP'
tp511
F1
s(g309
S'AAADP'
tp512
F3
s(g445
S'AVDDDP'
tp513
F1
s(g313
S'DDVVP'
tp514
F4
s(g190
S'VVVNP'
tp515
F1
s(g45
S'NAMP'
tp516
F2
s(g217
S'MVANP'
tp517
F1
s(S'DP'
S'ADVADVDDPP'
tp518
F2
s(g251
S'CDPP'
tp519
F112
s(S'PP'
S'PAAAADP'
tp520
F1
s(g343
S'ADVCDP'
tp521
F10
s(g365
S'AAPVVP'
tp522
F1
s(g187
S'ADVADVVNP'
tp523
F1
s(S'PP'
S'PPNNP'
tp524
F3
s(g112
S'ADVPAVP'
tp525
F1
s(g255
S'ADVADVDPP'
tp526
F4
s(S'VP'
p527
S'VDP'
tp528
F99
s(S'NP'
S'NADVAP'
tp529
F1
s(g94
S'AVDDP'
tp530
F2
s(S'DP'
S'DAP'
tp531
F20
s(g343
S'CADPP'
tp532
F20
s(g478
S'ADVADVDVVP'
tp533
F2
s(S'VP'
S'AVPP'
tp534
F2
s(S'CP'
S'CAADPPP'
tp535
F1
s(g253
S'CDPPPP'
tp536
F1
s(S'VP'
S'AAVDP'
tp537
F1
s(g363
S'ADVPAAANP'
tp538
F1
s(S'VP'
S'ADVVADVAP'
tp539
F1
s(g330
S'ADVP'
tp540
F4
s(g279
S'ADVDPP'
tp541
F7
s(g63
S'PPAANP'
tp542
F1
s(g126
S'PADVADVNP'
tp543
F1
s(g264
S'ADPP'
tp544
F26
s(g182
S'PPAAVP'
tp545
F1
s(g143
S'NNADVVVP'
tp546
F2
s(S'VP'
S'VADVPP'
tp547
F2
s(S'DP'
S'ADVDANP'
tp548
F2
s(S'PP'
p549
S'PVVVVP'
tp550
F1
s(S'PP'
S'ADVPVP'
tp551
F1
s(g129
S'DDDDPP'
tp552
F2
s(S'PP'
S'PADVADVADVNP'
tp553
F1
s(g273
S'PAMP'
tp554
F1
s(g549
S'ADVPDP'
tp555
F3
s(S'NP'
S'ADVNNPP'
tp556
F2
s(g322
S'NCP'
tp557
F100
s(S'VP'
S'ADVVVPP'
tp558
F2
s(S'DP'
S'ADVVP'
tp559
F2
s(S'VP'
S'VADVADVADVDP'
tp560
F1
s(S'PP'
S'PPAAAP'
tp561
F1
s(S'PP'
S'ADVPDDP'
tp562
F2
s(g341
S'AAAADNP'
tp563
F1
s(S'PP'
S'PPDP'
tp564
F20
s(S'MP'
S'MVCCP'
tp565
F2
s(S'DP'
S'DADVNNP'
tp566
F2
s(S'NP'
S'NNCCP'
tp567
F3
s(S'VP'
S'VAPP'
tp568
F7
s(g24
S'ADVVDP'
tp569
F7
s(S'DP'
S'DADVPP'
tp570
F7
s(S'AP'
S'AMP'
tp571
F2
s(S'CP'
S'CCADP'
tp572
F1
s(S'NP'
S'ADVNNCP'
tp573
F2
s(S'DP'
S'ADVDAP'
tp574
F1
s(S'AP'
S'ADVAPP'
tp575
F4
s(S'DP'
S'DDADVAPP'
tp576
F1
s(S'CP'
S'CDDADVAPP'
tp577
F1
s(g343
S'AACDP'
tp578
F2
s(g510
S'NNNCCP'
tp579
F1
s(g129
S'DVP'
tp580
F87
s(g527
S'ADVVAP'
tp581
F2
s(g474
S'NNCCCP'
tp582
F1
s(S'PP'
S'PADVADVDDP'
tp583
F1
s(S'AP'
S'AVP'
tp584
F18
s(g334
S'NADVVP'
tp585
F3
s(g400
S'ADVVPPP'
tp586
F2
s(g67
S'DDPPP'
tp587
F6
s(S'MP'
S'MADVVCP'
tp588
F1
s(g395
S'PPANP'
tp589
F2
s(g80
S'VVADVADVDP'
tp590
F1
s(g146
S'CDADVPP'
tp591
F4
s(g249
S'VNP'
tp592
F60
s(g233
S'VANP'
tp593
F11
s(S'VP'
S'VADVAP'
tp594
F3
s(S'PP'
S'PPADVNP'
tp595
F1
s(S'VP'
S'ADVADVVVDP'
tp596
F1
s.