ccollections
defaultdict
p1
(c__builtin__
float
p2
tRp3
(S'VP'
p4
S'VVAAAP'
tp5
F2
s(S'NP'
p6
S'NNNVVVP'
tp7
F1
s(S'DP'
S'DDMP'
tp8
F1
s(S'DP'
S'ADDPP'
tp9
F1
s(S'DP'
p10
S'DDAP'
tp11
F5
s(S'VP'
S'ADVVVNP'
tp12
F2
s(S'AP'
S'AADDDP'
tp13
F1
s(S'CP'
S'CCDDDDP'
tp14
F1
s(g4
S'VVVVP'
tp15
F2
s(S'VP'
S'ADVADVADVVVADVAP'
tp16
F1
s(S'NP'
S'NADDP'
tp17
F1
s(S'AP'
S'AVVVP'
tp18
F1
s(S'PP'
p19
S'PAPP'
tp20
F26
s(S'DP'
S'DDPPPPP'
tp21
F4
s(S'DP'
p22
S'DNP'
tp23
F394
s(S'NP'
S'ADVNDP'
tp24
F3
s(g19
S'AAPDDP'
tp25
F2
s(S'CP'
S'CDPPP'
tp26
F93
s(S'VP'
p27
S'VADP'
tp28
F27
s(S'VP'
S'ADVADVVAP'
tp29
F3
s(S'DP'
S'ADVADVDDDDP'
tp30
F1
s(S'DP'
S'DAAP'
tp31
F4
s(S'PP'
p32
S'PPPPPP'
tp33
F4
s(S'VP'
S'VAVP'
tp34
F3
s(S'PP'
S'APPDP'
tp35
F2
s(S'CP'
S'CADVADVDPPP'
tp36
F1
s(S'VP'
S'ADVADVADVVVPP'
tp37
F1
s(S'DP'
S'DAADP'
tp38
F1
s(S'DP'
S'ADNNP'
tp39
F6
s(S'VP'
p40
S'ADVVAAPP'
tp41
F1
s(S'PP'
S'APVP'
tp42
F23
s(S'MP'
S'MVDP'
tp43
F14
s(S'PP'
S'PADVANP'
tp44
F3
s(S'NP'
S'AANNPP'
tp45
F1
s(S'PP'
p46
S'PPPP'
tp47
F61
s(S'VP'
S'VVVVDDP'
tp48
F3
s(S'DP'
p49
S'DDDNP'
tp50
F6
s(S'AP'
S'APPPPP'
tp51
F1
s(S'MP'
S'MMADVVP'
tp52
F1
s(S'VP'
S'VACP'
tp53
F12
s(S'PP'
S'PPPAAP'
tp54
F1
s(S'DP'
S'DADVVP'
tp55
F6
s(S'PP'
S'PADVNNP'
tp56
F4
s(S'DP'
p57
S'ADVADVDDPPP'
tp58
F1
s(S'NP'
p59
S'NCCCP'
tp60
F6
s(S'VP'
p61
S'VCP'
tp62
F153
s(S'NP'
S'NMMP'
tp63
F2
s(S'DP'
S'ADVADVDDVVP'
tp64
F1
s(S'VP'
S'ADVVAAP'
tp65
F3
s(S'VP'
S'ADVVCCP'
tp66
F2
s(S'PP'
p67
S'PAP'
tp68
F150
s(S'MP'
S'MADVVCCP'
tp69
F1
s(S'DP'
S'DDADVADVPP'
tp70
F1
s(S'NP'
S'ANNCCP'
tp71
F1
s(S'PP'
p72
S'ADVPPVP'
tp73
F5
s(S'NP'
S'NNNAP'
tp74
F1
s(S'PP'
p75
S'APVVP'
tp76
F7
s(S'PP'
p77
S'PPADVDP'
tp78
F1
s(S'VP'
S'VADVANP'
tp79
F1
s(g67
S'PNP'
tp80
F348
s(S'VP'
S'VVADVNNP'
tp81
F1
s(S'PP'
S'PAAADP'
tp82
F1
s(S'DP'
S'DDP'
tp83
F86
s(S'PP'
S'ADVPPMP'
tp84
F1
s(S'VP'
S'ADVVDDP'
tp85
F1
s(S'NP'
p86
S'NNNPP'
tp87
F5
s(S'VP'
S'VCCP'
tp88
F24
s(S'MP'
S'MCDP'
tp89
F5
s(S'NP'
S'ANADVAP'
tp90
F1
s(S'NP'
p91
S'NMP'
tp92
F45
s(S'PP'
S'PPMMP'
tp93
F1
s(S'VP'
S'AVADVPP'
tp94
F1
s(S'NP'
S'ADVNAPP'
tp95
F1
s(S'CP'
S'CADVDADVPP'
tp96
F1
s(S'DP'
p97
S'DDDDPP'
tp98
F4
s(S'VP'
S'AAVNP'
tp99
F2
s(S'PP'
p100
S'PDP'
tp101
F396
s(S'PP'
S'PADVNP'
tp102
F15
s(S'CP'
S'CCADVADVDP'
tp103
F1
s(S'CP'
S'CDAAPP'
tp104
F6
s(S'NP'
S'ADVNVVP'
tp105
F3
s(S'NP'
S'NADVADVADVVP'
tp106
F2
s(S'PP'
p107
S'PADVPP'
tp108
F10
s(S'VP'
p109
S'AAVPP'
tp110
F2
s(S'VP'
S'VVADVNP'
tp111
F1
s(S'NP'
S'ADVNACP'
tp112
F1
s(g49
S'DPPPP'
tp113
F13
s(S'DP'
S'DDANP'
tp114
F5
s(S'DP'
S'ADNNNP'
tp115
F3
s(g59
S'NACP'
tp116
F43
s(S'AP'
S'ADVAVP'
tp117
F1
s(S'NP'
p118
S'NCCP'
tp119
F75
s(S'DP'
S'DADVADVVVP'
tp120
F3
s(S'AP'
p121
S'AAAADP'
tp122
F2
s(S'NP'
S'NADVADVDDP'
tp123
F2
s(S'NP'
p124
S'NNCP'
tp125
F74
s(S'DP'
S'ADVDDPP'
tp126
F7
s(S'NP'
p127
S'NADVADVVP'
tp128
F4
s(g57
S'DDDDP'
tp129
F4
s(S'DP'
S'DDAPP'
tp130
F8
s(S'CP'
S'CDDPPPP'
tp131
F1
s(S'VP'
S'AVNP'
tp132
F12
s(S'VP'
S'VVADP'
tp133
F2
s(S'NP'
p134
S'NADVADVMMP'
tp135
F1
s(S'NP'
p136
S'NADVADVPP'
tp137
F1
s(S'VP'
S'VVNNNP'
tp138
F1
s(S'DP'
S'DDAAANNP'
tp139
F1
s(S'VP'
S'VVADVCP'
tp140
F2
s(S'PP'
p141
S'ADVAPDP'
tp142
F1
s(S'VP'
p143
S'AVDDDP'
tp144
F1
s(S'VP'
S'VADVVP'
tp145
F1
s(S'MP'
S'MVPPP'
tp146
F1
s(S'VP'
S'ADVADVADVVVPPP'
tp147
F1
s(S'PP'
S'ADVAPVP'
tp148
F1
s(S'NP'
S'NCCCCP'
tp149
F1
s(S'CP'
p150
S'CCCDP'
tp151
F10
s(g61
S'ADVVAP'
tp152
F16
s(S'PP'
p153
S'ADVPPNNP'
tp154
F1
s(S'VP'
S'VCCCP'
tp155
F2
s(S'PP'
p156
S'PADVVVP'
tp157
F1
s(g100
S'APDP'
tp158
F57
s(S'PP'
p159
S'ADVADVPAAVP'
tp160
F1
s(S'AP'
S'AADVCP'
tp161
F1
s(S'AP'
S'AADVADVADVDP'
tp162
F1
s(S'DP'
S'DNNNNP'
tp163
F1
s(S'VP'
p164
S'VVANP'
tp165
F3
s(S'VP'
S'VVVVDP'
tp166
F3
s(S'PP'
S'ADVADVADVPDP'
tp167
F1
s(S'DP'
S'DADVADVADVPP'
tp168
F2
s(g141
S'APPNP'
tp169
F1
s(S'MP'
S'MVVVCCP'
tp170
F1
s(S'NP'
S'ADVNCCP'
tp171
F3
s(S'VP'
p172
S'VVVPPPP'
tp173
F1
s(S'PP'
S'PAAP'
tp174
F28
s(S'NP'
p175
S'ADVANCP'
tp176
F3
s(S'DP'
p177
S'DNNP'
tp178
F97
s(S'CP'
S'CADVDDPP'
tp179
F5
s(S'DP'
S'DPPPPP'
tp180
F3
s(S'VP'
S'AVVNNP'
tp181
F1
s(S'CP'
p182
S'CCADVDP'
tp183
F6
s(S'PP'
p184
S'PPAADP'
tp185
F1
s(S'VP'
S'AAVDDP'
tp186
F1
s(S'NP'
p187
S'NNNVP'
tp188
F9
s(S'PP'
p189
S'PAAVVP'
tp190
F2
s(S'PP'
p191
S'PADVVP'
tp192
F18
s(S'DP'
S'DADVADVADVPPP'
tp193
F1
s(S'PP'
p194
S'APAP'
tp195
F7
s(S'NP'
S'NANP'
tp196
F1
s(S'AP'
p197
S'APP'
tp198
F72
s(S'NP'
S'AANADVVVP'
tp199
F2
s(S'AP'
S'AAP'
tp200
F4
s(S'CP'
S'CADVADPP'
tp201
F2
s(S'DP'
S'DAAAPP'
tp202
F1
s(g59
S'ADVANPP'
tp203
F2
s(S'VP'
p204
S'VVVVPP'
tp205
F4
s(S'DP'
p206
S'DAAVP'
tp207
F2
s(S'CP'
p208
S'CDDDDPP'
tp209
F3
s(S'PP'
S'PAANP'
tp210
F10
s(S'DP'
S'DDADVADVVP'
tp211
F2
s(S'NP'
S'NADVADVPPP'
tp212
F1
s(S'NP'
S'ANVP'
tp213
F32
s(S'VP'
S'VAACP'
tp214
F1
s(S'VP'
S'VVAPP'
tp215
F1
s(S'MP'
S'MVNP'
tp216
F17
s(S'MP'
S'MVAPPP'
tp217
F1
s(S'CP'
S'CDDDPPP'
tp218
F2
s(S'PP'
p219
S'PAVP'
tp220
F34
s(S'MP'
S'ADVMVP'
tp221
F1
s(S'PP'
S'ADVAPNNP'
tp222
F2
s(S'AP'
S'AADVVVP'
tp223
F1
s(S'VP'
S'VVVPP'
tp224
F6
s(S'CP'
p225
S'CADVADVADPP'
tp226
F1
s(S'PP'
S'APPPP'
tp227
F6
s(S'DP'
S'DADP'
tp228
F7
s(S'AP'
p229
S'ADVADP'
tp230
F6
s(S'CP'
S'ADVADVCDP'
tp231
F4
s(S'VP'
S'VVADVPP'
tp232
F1
s(g153
S'ADVPPCP'
tp233
F1
s(S'PP'
p234
S'APDDP'
tp235
F5
s(S'VP'
S'ADVADVVVNP'
tp236
F1
s(S'DP'
S'DDVVVVP'
tp237
F1
s(S'NP'
p238
S'ADVNAP'
tp239
F1
s(S'DP'
S'ADVDDDP'
tp240
F1
s(S'DP'
S'DAAAVP'
tp241
F1
s(S'PP'
S'PPCP'
tp242
F1
s(g164
S'ADVVNP'
tp243
F10
s(S'DP'
S'DDADVADVADVAAP'
tp244
F1
s(g204
S'VVNP'
tp245
F27
s(S'PP'
p246
S'ADVPPPP'
tp247
F5
s(g46
S'PPVP'
tp248
F53
s(S'PP'
p249
S'PPADVADVPP'
tp250
F1
s(S'VP'
S'VADVDP'
tp251
F7
s(S'VP'
p252
S'VVADVAP'
tp253
F1
s(S'VP'
p254
S'VAAP'
tp255
F31
s(g124
S'ANDP'
tp256
F19
s(g59
S'NVVP'
tp257
F53
s(S'PP'
p258
S'AAPVP'
tp259
F3
s(S'PP'
S'PPADP'
tp260
F2
s(S'VP'
S'VMP'
tp261
F1
s(S'VP'
S'VVNNP'
tp262
F5
s(S'CP'
p263
S'CDAPP'
tp264
F48
s(S'CP'
S'CDDAAPP'
tp265
F1
s(S'NP'
S'ANADVCP'
tp266
F1
s(S'DP'
p267
S'ADVADVDDVP'
tp268
F4
s(S'DP'
p269
S'ADNP'
tp270
F30
s(S'CP'
S'CDPPPPP'
tp271
F2
s(S'PP'
S'PADP'
tp272
F49
s(g254
S'ADVVVCP'
tp273
F8
s(S'DP'
S'ADVDDNP'
tp274
F3
s(S'NP'
p275
S'ANDDP'
tp276
F3
s(g121
S'AAADVADVDP'
tp277
F1
s(S'DP'
p278
S'DADVAP'
tp279
F3
s(S'PP'
p280
S'ADVADVPMP'
tp281
F1
s(S'DP'
S'DDADVDP'
tp282
F2
s(S'PP'
S'PPVVVVP'
tp283
F1
s(g22
S'DAPP'
tp284
F79
s(S'VP'
p285
S'AVVP'
tp286
F2
s(S'MP'
S'MVVCP'
tp287
F4
s(S'VP'
S'ADVADVVPP'
tp288
F2
s(S'MP'
S'MADVADVVNP'
tp289
F1
s(S'VP'
S'ADVADVADVVDP'
tp290
F3
s(S'VP'
S'ADVADVVDP'
tp291
F2
s(S'PP'
S'PPPDP'
tp292
F5
s(S'VP'
S'VVAAANP'
tp293
F1
s(S'MP'
S'MVVAP'
tp294
F2
s(S'DP'
S'DAAANP'
tp295
F1
s(S'DP'
p296
S'DADVANP'
tp297
F3
s(S'VP'
S'VVAAP'
tp298
F2
s(S'VP'
S'VAAPP'
tp299
F2
s(S'DP'
S'ADVDNP'
tp300
F7
s(S'VP'
S'VVPP'
tp301
F48
s(S'VP'
S'VADVAPP'
tp302
F2
s(S'CP'
S'CCADDP'
tp303
F1
s(S'DP'
S'ADADVPP'
tp304
F1
s(S'PP'
S'PAVVP'
tp305
F2
s(S'MP'
S'MVPP'
tp306
F19
s(S'DP'
p307
S'ADVP'
tp308
F13
s(S'VP'
S'ADVADVADVADVVAAP'
tp309
F1
s(S'CP'
S'CDDPPP'
tp310
F12
s(S'AP'
S'ADVADVADVAAVP'
tp311
F1
s(S'PP'
S'AAPMP'
tp312
F1
s(S'NP'
p313
S'NNPP'
tp314
F37
s(S'DP'
S'DDDDNP'
tp315
F1
s(S'MP'
S'MVVDP'
tp316
F1
s(S'AP'
p317
S'AACP'
tp318
F23
s(S'PP'
S'PPVVP'
tp319
F4
s(S'DP'
S'DADVADVADVADVPP'
tp320
F1
s(S'VP'
S'VVADVCCP'
tp321
F1
s(S'DP'
S'DNNNP'
tp322
F10
s(S'DP'
S'ADVDADVPP'
tp323
F1
s(S'DP'
S'ADVDDVP'
tp324
F2
s(S'VP'
S'VADVADVPPP'
tp325
F2
s(S'PP'
S'PADVADVVP'
tp326
F1
s(S'VP'
S'VADVDDP'
tp327
F2
s(S'VP'
S'ADVVCP'
tp328
F1
s(S'PP'
S'PVVVP'
tp329
F2
s(g67
S'PMP'
tp330
F26
s(S'NP'
p331
S'NNMMP'
tp332
F2
s(S'PP'
S'PADVADVADVVP'
tp333
F2
s(S'CP'
p334
S'CCDP'
tp335
F121
s(S'NP'
S'ANNDP'
tp336
F1
s(S'MP'
p337
S'AMVP'
tp338
F3
s(S'PP'
S'PPNNNP'
tp339
F2
s(S'VP'
S'VADVADVANP'
tp340
F1
s(g91
S'NVVVP'
tp341
F6
s(S'CP'
S'CDDDPP'
tp342
F7
s(S'CP'
S'CDADVADVPP'
tp343
F3
s(S'VP'
p344
S'VVVDP'
tp345
F4
s(S'PP'
S'PNNNP'
tp346
F6
s(S'CP'
S'CCCCDP'
tp347
F3
s(S'NP'
S'ANMMP'
tp348
F1
s(S'MP'
S'MVDDDP'
tp349
F1
s(S'AP'
S'AACCP'
tp350
F4
s(S'PP'
S'AAPNP'
tp351
F3
s(S'CP'
S'CADADVPP'
tp352
F1
s(S'CP'
S'CDADVADVADVADVPP'
tp353
F1
s(g67
S'PPP'
tp354
F253
s(S'NP'
S'NNVVP'
tp355
F10
s(S'NP'
S'NAVP'
tp356
F21
s(S'PP'
S'PADVAP'
tp357
F2
s(S'VP'
S'ADVVVCCCP'
tp358
F1
s(S'DP'
p359
S'DDNNNP'
tp360
F2
s(S'PP'
S'APVVVP'
tp361
F1
s(S'VP'
S'AAVVP'
tp362
F1
s(S'DP'
S'ADVDVP'
tp363
F10
s(S'NP'
p364
S'NADVVVP'
tp365
F11
s(g197
S'AADVVP'
tp366
F2
s(S'PP'
S'PPPPDP'
tp367
F2
s(S'MP'
S'MADVADVVPP'
tp368
F3
s(S'DP'
S'ADVADVDNP'
tp369
F2
s(S'AP'
S'AAADVCP'
tp370
F2
s(g344
S'VPP'
tp371
F218
s(S'CP'
S'ADVCCDP'
tp372
F7
s(S'NP'
S'NNNADVCP'
tp373
F1
s(S'AP'
S'AAAACP'
tp374
F1
s(S'NP'
S'NNNCP'
tp375
F9
s(S'PP'
p376
S'PADVDP'
tp377
F10
s(S'CP'
S'CDADVAPP'
tp378
F3
s(S'DP'
S'DANNP'
tp379
F2
s(S'MP'
S'MADVVAP'
tp380
F2
s(S'PP'
S'PADVAAP'
tp381
F2
s(g334
S'CDDPP'
tp382
F86
s(g10
S'DAAPP'
tp383
F9
s(S'PP'
p384
S'PVVP'
tp385
F52
s(S'CP'
S'CADPPP'
tp386
F8
s(S'DP'
p387
S'DADVPPP'
tp388
F12
s(S'AP'
S'ADVAADDP'
tp389
F1
s(g376
S'PMMP'
tp390
F4
s(S'VP'
p391
S'VPPP'
tp392
F18
s(S'VP'
S'AVCCP'
tp393
F1
s(S'PP'
S'ADVADVADVADVPMP'
tp394
F1
s(S'DP'
p395
S'ADVADVDDNP'
tp396
F1
s(S'VP'
S'VVPPP'
tp397
F4
s(S'VP'
p398
S'ADVVVCCP'
tp399
F2
s(S'PP'
S'PPAP'
tp400
F18
s(S'DP'
S'DVVP'
tp401
F38
s(S'PP'
S'PADVAVP'
tp402
F1
s(S'NP'
S'ANMP'
tp403
F2
s(S'AP'
S'APPP'
tp404
F6
s(S'PP'
p405
S'ADVPPP'
tp406
F8
s(S'NP'
S'ADVADVNVP'
tp407
F1
s(S'VP'
p408
S'VVVP'
tp409
F7
s(S'CP'
S'CADVDPP'
tp410
F18
s(S'NP'
p411
S'ADVADVNNVP'
tp412
F1
s(S'PP'
S'PPDDDP'
tp413
F2
s(S'NP'
p414
S'ANCP'
tp415
F74
s(S'NP'
S'NNMMMMMP'
tp416
F1
s(S'DP'
S'DCP'
tp417
F13
s(g206
S'DVVVP'
tp418
F3
s(g86
S'NNVVVVP'
tp419
F3
s(S'PP'
p420
S'ADVADVADVPPNP'
tp421
F1
s(S'DP'
p422
S'DDDP'
tp423
F28
s(S'AP'
p424
S'ADDDDP'
tp425
F1
s(S'DP'
p426
S'DDADVPP'
tp427
F4
s(S'MP'
p428
S'MVVVVNP'
tp429
F1
s(g175
S'ANVVP'
tp430
F7
s(S'VP'
S'VVDP'
tp431
F48
s(S'NP'
S'NPPP'
tp432
F39
s(S'VP'
S'AAVVADVADVDP'
tp433
F1
s(S'DP'
S'ADDDP'
tp434
F2
s(S'DP'
S'AADVVP'
tp435
F1
s(S'VP'
S'VAPPP'
tp436
F1
s(g40
S'VVADVDP'
tp437
F3
s(S'DP'
p438
S'DAVP'
tp439
F21
s(S'VP'
S'VADVADVAP'
tp440
F1
s(g197
S'ACP'
tp441
F103
s(g189
S'PADVADVNNP'
tp442
F2
s(S'PP'
p443
S'PPNP'
tp444
F75
s(S'AP'
S'ADVACCP'
tp445
F1
s(g124
S'NAADP'
tp446
F2
s(S'MP'
S'MACP'
tp447
F1
s(S'AP'
S'ADVAAVP'
tp448
F1
s(g225
S'CDDADVPP'
tp449
F2
s(S'CP'
S'CCCDDP'
tp450
F1
s(g197
S'ADP'
tp451
F177
s(S'PP'
p452
S'APMP'
tp453
F4
s(S'DP'
S'DDPPPP'
tp454
F3
s(S'NP'
S'ANPPP'
tp455
F2
s(S'VP'
p456
S'VVVADVADVCP'
tp457
F1
s(S'NP'
p458
S'ADVANCCP'
tp459
F1
s(S'DP'
S'DVVVVP'
tp460
F1
s(S'VP'
S'VVPPPP'
tp461
F1
s(S'VP'
S'AAAVDP'
tp462
F1
s(S'VP'
p463
S'AVDP'
tp464
F31
s(g238
S'ANNVP'
tp465
F1
s(S'VP'
p466
S'VVAP'
tp467
F21
s(S'NP'
p468
S'NNAPP'
tp469
F2
s(S'PP'
S'ADVPPADVNP'
tp470
F1
s(S'NP'
S'NNADVADVADVVP'
tp471
F1
s(S'PP'
p472
S'PADVADVDP'
tp473
F1
s(S'PP'
S'APPVVP'
tp474
F2
s(S'DP'
p475
S'ADPPPP'
tp476
F1
s(S'NP'
S'ADVADVANADVCP'
tp477
F1
s(S'PP'
S'PPADVVP'
tp478
F3
s(S'VP'
p479
S'AAVCP'
tp480
F1
s(S'NP'
S'NNADVCCP'
tp481
F1
s(g91
S'NPP'
tp482
F304
s(S'PP'
S'PPPPNP'
tp483
F6
s(S'NP'
S'NVP'
tp484
F280
s(g77
S'PPVVVP'
tp485
F2
s(g194
S'PAAVP'
tp486
F3
s(S'NP'
S'NAAPP'
tp487
F2
s(g32
S'PPPPVP'
tp488
F3
s(g395
S'ADADVVVP'
tp489
F1
s(g164
S'VDDP'
tp490
F48
s(S'AP'
S'AAADVDP'
tp491
F3
s(S'DP'
S'DDDVVP'
tp492
F1
s(S'NP'
S'AANNVP'
tp493
F1
s(S'DP'
S'DADVAPP'
tp494
F5
s(g456
S'AVAAAP'
tp495
F1
s(g364
S'ANPP'
tp496
F56
s(S'PP'
S'ADVPPDP'
tp497
F2
s(S'PP'
S'PPPPP'
tp498
F6
s(S'PP'
S'ADVADVPDP'
tp499
F2
s(S'MP'
S'MVVPP'
tp500
F2
s(S'VP'
S'ADVADVADVVAP'
tp501
F1
s(g422
S'ADVDPP'
tp502
F32
s(S'PP'
S'APADVAAP'
tp503
F1
s(S'NP'
p504
S'ADVADVNPP'
tp505
F1
s(S'NP'
S'NPPPP'
tp506
F4
s(g267
S'ADDP'
tp507
F2
s(S'NP'
S'NNCCCCP'
tp508
F1
s(S'PP'
S'PPPPPPP'
tp509
F1
s(g208
S'CAADPP'
tp510
F5
s(S'NP'
S'NAACP'
tp511
F3
s(S'PP'
S'PNNP'
tp512
F69
s(S'AP'
p513
S'AADVAPP'
tp514
F1
s(S'PP'
S'APNNP'
tp515
F2
s(S'MP'
S'MMNP'
tp516
F1
s(S'DP'
S'AAADPP'
tp517
F1
s(S'VP'
S'VVADVADVDDP'
tp518
F1
s(S'VP'
S'AVAP'
tp519
F6
s(g337
S'MMVP'
tp520
F8
s(S'PP'
S'PADVDDP'
tp521
F5
s(g127
S'ADVNCP'
tp522
F10
s(S'AP'
S'AADP'
tp523
F38
s(S'DP'
p524
S'DADVADVADVDDP'
tp525
F1
s(g150
S'ACDP'
tp526
F52
s(g91
S'NNDP'
tp527
F21
s(S'AP'
S'ADVANP'
tp528
F2
s(g504
S'NNACP'
tp529
F2
s(g182
S'CDADVPPP'
tp530
F7
s(g61
S'VAP'
tp531
F143
s(S'VP'
p532
S'VVVVNP'
tp533
F3
s(S'DP'
p534
S'DDDPP'
tp535
F9
s(S'VP'
S'AVAPPP'
tp536
F1
s(g194
S'ADVPMP'
tp537
F2
s(g258
S'PAAPP'
tp538
F3
s(S'AP'
S'AAVVP'
tp539
F2
s(S'PP'
S'AAAPNNNP'
tp540
F1
s(S'VP'
p541
S'ADVADVVVAP'
tp542
F1
s(S'DP'
S'DDDPPP'
tp543
F4
s(S'VP'
S'ADVAVDP'
tp544
F2
s(g534
S'ADAP'
tp545
F2
s(S'DP'
S'DADVDP'
tp546
F1
s(S'CP'
S'CCADVADP'
tp547
F1
s(S'DP'
S'DDDAP'
tp548
F1
s(S'AP'
p549
S'AAACP'
tp550
F4
s(S'VP'
S'ADVVVDP'
tp551
F2
s(S'PP'
S'PPPVP'
tp552
F8
s(g307
S'AADADVADVVVP'
tp553
F1
s(g229
S'AADDP'
tp554
F4
s(S'VP'
S'VAANP'
tp555
F2
s(S'NP'
S'NADVADVCP'
tp556
F2
s(S'PP'
S'PPPCP'
tp557
F1
s(g524
S'ADVADVADVDVP'
tp558
F3
s(g124
S'NVVVVP'
tp559
F7
s(S'PP'
S'PAAAAP'
tp560
F3
s(S'MP'
S'MADP'
tp561
F2
s(S'VP'
S'AAVVNP'
tp562
F1
s(S'DP'
S'DDADVNP'
tp563
F3
s(g100
S'PANP'
tp564
F53
s(S'DP'
S'AADNP'
tp565
F2
s(S'NP'
S'AANMP'
tp566
F1
s(S'AP'
S'AAVP'
tp567
F14
s(g331
S'NAAP'
tp568
F12
s(g187
S'NDDP'
tp569
F16
s(S'PP'
p570
S'APPDDP'
tp571
F1
s(g420
S'PADVMP'
tp572
F1
s(S'DP'
S'ADVADVDPPP'
tp573
F1
s(g549
S'ACCP'
tp574
F11
s(S'VP'
S'VVVVAP'
tp575
F1
s(S'VP'
S'AVPPP'
tp576
F4
s(g124
S'NDP'
tp577
F122
s(g252
S'VVADVADVCP'
tp578
F1
s(S'NP'
S'NNADVADVDP'
tp579
F1
s(S'MP'
S'MVAAP'
tp580
F1
s(g307
S'DDVP'
tp581
F27
s(S'NP'
S'AANVP'
tp582
F9
s(S'PP'
S'PPADVANP'
tp583
F1
s(g204
S'VNNNP'
tp584
F2
s(S'MP'
S'MADVVVPP'
tp585
F1
s(S'VP'
p586
S'VADVADVPP'
tp587
F1
s(S'DP'
S'DDDVVVVP'
tp588
F1
s(S'PP'
S'APADVDP'
tp589
F2
s(g219
S'PCP'
tp590
F25
s(S'NP'
S'NNPPP'
tp591
F7
s(S'CP'
S'ACADVDDP'
tp592
F1
s(g19
S'PAADP'
tp593
F5
s(S'NP'
S'ADVNNVP'
tp594
F2
s(S'NP'
S'NADVCCP'
tp595
F4
s(S'CP'
S'CDDDDAAPP'
tp596
F1
s(S'VP'
S'VPPPP'
tp597
F3
s(S'NP'
S'ANNPP'
tp598
F2
s(g428
S'MPAP'
tp599
F1
s(S'PP'
S'APADVMP'
tp600
F1
s(g317
S'ADVACP'
tp601
F15
s(S'NP'
S'AANVVVP'
tp602
F1
s(S'NP'
p603
S'ADVADVNMP'
tp604
F1
s(g570
S'PAPPP'
tp605
F2
s(g414
S'NNVP'
tp606
F45
s(S'MP'
S'MVCP'
tp607
F9
s(S'CP'
S'CCDDP'
tp608
F14
s(S'VP'
S'AVNNP'
tp609
F3
s(S'NP'
S'NNADVVP'
tp610
F3
s(g541
S'VVADVADVAP'
tp611
F1
s(g285
S'ADVADVADVVPP'
tp612
F1
s(S'PP'
S'PPAAP'
tp613
F6
s(S'VP'
S'VVCP'
tp614
F31
s(S'VP'
S'VVMP'
tp615
F2
s(g159
S'PADVADVPP'
tp616
F2
s(S'NP'
S'AANCP'
tp617
F8
s(S'VP'
S'VADVNP'
tp618
F4
s(S'VP'
S'VVDDDP'
tp619
F1
s(S'MP'
S'MADVVDP'
tp620
F1
s(S'AP'
S'ADVAVVP'
tp621
F1
s(S'VP'
S'AVVPP'
tp622
F1
s(S'PP'
S'APPP'
tp623
F12
s(S'VP'
S'ADVVPP'
tp624
F6
s(S'CP'
S'CADVADVADVDDPP'
tp625
F1
s(S'CP'
S'CDAPPP'
tp626
F2
s(g344
S'VNNP'
tp627
F18
s(g263
S'CCADVADVADVDDP'
tp628
F1
s(S'AP'
S'AAAMP'
tp629
F1
s(S'NP'
p630
S'NADP'
tp631
F8
s(g438
S'DDNP'
tp632
F64
s(S'NP'
p633
S'NADVCP'
tp634
F8
s(S'DP'
S'DDNNP'
tp635
F7
s(S'DP'
S'ADVDDADVVP'
tp636
F1
s(g153
S'AAPPP'
tp637
F1
s(S'VP'
S'ADVAVPP'
tp638
F1
s(g184
S'PADVADVVVP'
tp639
F1
s(S'NP'
S'ADVANVP'
tp640
F1
s(S'PP'
p641
S'APCP'
tp642
F2
s(S'CP'
S'ADVADVCCDDP'
tp643
F1
s(g97
S'AADPP'
tp644
F8
s(g479
S'VVVAAP'
tp645
F1
s(S'NP'
S'NNDDP'
tp646
F1
s(S'NP'
S'NNNNPP'
tp647
F1
s(S'PP'
S'ADVADVPPDP'
tp648
F2
s(S'VP'
p649
S'VVVADVNP'
tp650
F1
s(S'NP'
S'NNNP'
tp651
F1
s(S'AP'
S'AADVADVVP'
tp652
F1
s(S'DP'
S'ADVADADVPPP'
tp653
F1
s(g411
S'ANVVVP'
tp654
F2
s(S'NP'
S'NADVADVCCP'
tp655
F1
s(S'MP'
S'MVVNP'
tp656
F1
s(S'CP'
S'CDDADVPPP'
tp657
F1
s(S'DP'
S'ADVDNNP'
tp658
F2
s(S'CP'
S'ACDDP'
tp659
F7
s(S'NP'
S'ADVADVNNCP'
tp660
F1
s(S'AP'
S'AADVADVDDP'
tp661
F1
s(S'AP'
S'AAPP'
tp662
F17
s(S'VP'
S'VVCCP'
tp663
F3
s(S'DP'
S'DADVVVP'
tp664
F3
s(S'DP'
S'DADVADVNP'
tp665
F2
s(S'PP'
S'ADVPANP'
tp666
F2
s(S'VP'
S'VVVCCP'
tp667
F2
s(S'NP'
S'NAPP'
tp668
F23
s(S'DP'
S'DDADVAPP'
tp669
F1
s(S'NP'
S'NADVDP'
tp670
F2
s(g408
S'VVVCP'
tp671
F4
s(S'PP'
S'APDDDP'
tp672
F1
s(g475
S'DADVADVADVVP'
tp673
F1
s(g91
S'ANCCP'
tp674
F11
s(g313
S'AANPP'
tp675
F5
s(g164
S'VDDDP'
tp676
F3
s(S'NP'
S'NNMP'
tp677
F6
s(g438
S'DDDVP'
tp678
F3
s(S'NP'
S'NNADVCP'
tp679
F1
s(S'PP'
S'PAAAP'
tp680
F2
s(S'PP'
S'ADVADVPNP'
tp681
F2
s(S'PP'
S'PPPAP'
tp682
F2
s(S'DP'
S'ADVDDAP'
tp683
F1
s(S'CP'
S'CDDAPP'
tp684
F3
s(S'NP'
S'ANAP'
tp685
F4
s(S'MP'
S'MADVAVDP'
tp686
F1
s(S'MP'
S'MVAP'
tp687
F7
s(g100
S'PVP'
tp688
F321
s(g532
S'VADVPPP'
tp689
F2
s(S'DP'
S'DADVAVP'
tp690
F2
s(S'AP'
S'AADVADVADVCP'
tp691
F1
s(S'AP'
S'ADVADVAPP'
tp692
F1
s(S'PP'
S'PPADVVVP'
tp693
F1
s(S'VP'
S'VADVCCP'
tp694
F1
s(S'AP'
S'ADVAACP'
tp695
F1
s(g468
S'ANNCP'
tp696
F1
s(S'PP'
S'PPADVPP'
tp697
F1
s(S'VP'
S'VCCCCP'
tp698
F1
s(S'PP'
S'AAPPPP'
tp699
F1
s(g246
S'PPDDP'
tp700
F10
s(g649
S'AVCP'
tp701
F10
s(S'DP'
S'DDVVVP'
tp702
F2
s(g22
S'DPP'
tp703
F459
s(S'NP'
S'ADVNVP'
tp704
F11
s(S'AP'
S'AAADVVVP'
tp705
F1
s(g22
S'DDPP'
tp706
F133
s(g278
S'DDADVPPP'
tp707
F2
s(S'DP'
S'DDAVP'
tp708
F1
s(g177
S'DANP'
tp709
F96
s(S'NP'
S'NADVPP'
tp710
F4
s(S'PP'
S'ADVADVPPNP'
tp711
F1
s(g172
S'VVVADVDP'
tp712
F1
s(S'PP'
p713
S'PAAAAPP'
tp714
F1
s(g6
S'NAAVP'
tp715
F1
s(g426
S'ADVADVADPP'
tp716
F1
s(S'CP'
S'ADVCADVDDP'
tp717
F1
s(g472
S'PDDDP'
tp718
F6
s(g398
S'VADVCP'
tp719
F1
s(g603
S'NNNNCP'
tp720
F1
s(S'VP'
S'ADVVAADP'
tp721
F1
s(S'MP'
S'MDNP'
tp722
F1
s(S'DP'
S'ADVDAAP'
tp723
F1
s(S'DP'
S'ADDPPP'
tp724
F1
s(g72
S'PADVPPP'
tp725
F4
s(S'VP'
S'AVADVADVAAP'
tp726
F1
s(S'DP'
S'DCCP'
tp727
F2
s(g376
S'ADVADVPPP'
tp728
F1
s(g513
S'AADDDDP'
tp729
F2
s(g191
S'AAPDP'
tp730
F4
s(S'DP'
S'ADVADPP'
tp731
F2
s(S'DP'
S'DDADVNNP'
tp732
F2
s(S'DP'
S'DDADVVP'
tp733
F2
s(g376
S'PDDP'
tp734
F68
s(S'MP'
S'MVDDP'
tp735
F1
s(g75
S'ADVAPNP'
tp736
F4
s(S'NP'
S'ADVANADVVVP'
tp737
F1
s(g177
S'ADPPP'
tp738
F14
s(S'PP'
S'PADVADVADVDP'
tp739
F2
s(g280
S'APAAP'
tp740
F2
s(S'PP'
S'AAPDDDP'
tp741
F1
s(S'MP'
S'MMMMMVP'
tp742
F1
s(g143
S'VVDDP'
tp743
F7
s(g387
S'DAANP'
tp744
F11
s(S'AP'
S'ADDP'
tp745
F18
s(S'PP'
p746
S'PNNNNP'
tp747
F1
s(S'VP'
S'ADVVVAP'
tp748
F1
s(S'PP'
S'ADVPPNP'
tp749
F8
s(g136
S'ADVADVNAPP'
tp750
F1
s(S'CP'
S'CADVADVDPP'
tp751
F2
s(S'CP'
S'ADVADVADVCDP'
tp752
F1
s(S'DP'
S'DPPP'
tp753
F145
s(g177
S'AADPPP'
tp754
F1
s(g27
S'VANNP'
tp755
F2
s(S'AP'
S'AAAP'
tp756
F1
s(g118
S'NNAVP'
tp757
F3
s(S'AP'
S'AVVP'
tp758
F5
s(S'AP'
S'ADDDDDP'
tp759
F1
s(S'PP'
S'ADVPNP'
tp760
F7
s(g384
S'PPDP'
tp761
F56
s(S'CP'
S'CCDDDDDP'
tp762
F1
s(S'PP'
S'ADVADVADVPVP'
tp763
F1
s(S'NP'
S'NADVADVADVPP'
tp764
F1
s(S'AP'
S'AAPPP'
tp765
F3
s(S'DP'
S'DDCP'
tp766
F3
s(g97
S'ADVDDNNP'
tp767
F1
s(S'PP'
S'PPADVDDP'
tp768
F1
s(S'AP'
S'ADVADVAADP'
tp769
F2
s(S'NP'
p770
S'NAP'
tp771
F48
s(S'NP'
S'NNAAP'
tp772
F2
s(S'DP'
S'AADDP'
tp773
F1
s(g466
S'VAAAP'
tp774
F3
s(S'MP'
S'MVVADVCP'
tp775
F1
s(S'VP'
S'ADVAVNP'
tp776
F1
s(g463
S'VVP'
tp777
F40
s(S'DP'
S'DDDDDPPP'
tp778
F1
s(S'PP'
S'ADVADVPVP'
tp779
F3
s(S'AP'
S'AAADP'
tp780
F5
s(g405
S'APNP'
tp781
F24
s(g307
S'DDVVP'
tp782
F2
s(S'NP'
S'ANADVVVP'
tp783
F1
s(S'VP'
S'VVVNP'
tp784
F1
s(S'MP'
S'ADVMACP'
tp785
F1
s(g770
S'NAMP'
tp786
F4
s(S'DP'
S'ADVADVDDPP'
tp787
F2
s(S'MP'
S'MVNNP'
tp788
F2
s(g334
S'CDPP'
tp789
F419
s(g6
S'NNADVPP'
tp790
F1
s(S'AP'
S'ADDDP'
tp791
F2
s(S'CP'
S'ADVCADP'
tp792
F2
s(g359
S'ADVDVVP'
tp793
F2
s(S'MP'
S'MMMVP'
tp794
F1
s(S'DP'
S'DCCCP'
tp795
F1
s(S'CP'
S'ADVCDP'
tp796
F14
s(S'PP'
p797
S'AAPVVP'
tp798
F3
s(S'VP'
S'ADVADVVNP'
tp799
F3
s(S'VP'
S'VADVADVDP'
tp800
F1
s(S'PP'
S'PPNNP'
tp801
F10
s(S'PP'
S'ADVPAVP'
tp802
F2
s(S'PP'
S'PPMP'
tp803
F3
s(g156
S'PADVADVADVVVP'
tp804
F1
s(S'DP'
S'ADVADVDPP'
tp805
F4
s(g344
S'VDP'
tp806
F311
s(S'PP'
S'PPPADVNP'
tp807
F1
s(S'NP'
S'NADVAP'
tp808
F1
s(S'VP'
S'AVDDP'
tp809
F4
s(S'DP'
S'DADVNP'
tp810
F11
s(S'DP'
S'DAP'
tp811
F34
s(S'PP'
S'ADVAPPP'
tp812
F2
s(S'CP'
S'CADPP'
tp813
F55
s(S'DP'
S'ADVADVDVVP'
tp814
F1
s(S'PP'
S'PPAVP'
tp815
F3
s(S'VP'
S'VVDDDDP'
tp816
F1
s(S'DP'
S'DADVADVADVADVVP'
tp817
F1
s(S'VP'
S'ADVADVVCCP'
tp818
F1
s(S'VP'
p819
S'AVPP'
tp820
F14
s(g641
S'APNNNP'
tp821
F1
s(S'MP'
S'AMVVP'
tp822
F2
s(S'CP'
S'CDDPPPPP'
tp823
F2
s(S'VP'
S'VVVVCP'
tp824
F2
s(S'CP'
S'CDPPPP'
tp825
F10
s(S'PP'
S'PANNP'
tp826
F2
s(S'NP'
S'NMMMP'
tp827
F1
s(S'VP'
S'AVVDP'
tp828
F1
s(S'AP'
S'AAAPP'
tp829
F1
s(S'MP'
S'MVANNP'
tp830
F1
s(g395
S'DAPPP'
tp831
F3
s(g422
S'DADVADVPP'
tp832
F5
s(S'DP'
S'DMP'
tp833
F7
s(g443
S'PPPNP'
tp834
F7
s(S'NP'
S'NADVAPP'
tp835
F1
s(S'PP'
S'PPAANP'
tp836
F3
s(S'NP'
S'AAANPP'
tp837
F2
s(g746
S'PADVADVNP'
tp838
F2
s(S'DP'
p839
S'ADVADVADVDDPP'
tp840
F3
s(S'DP'
S'ADPP'
tp841
F90
s(S'PP'
S'PPPVVP'
tp842
F2
s(g134
S'NADVANP'
tp843
F1
s(g586
S'VADVPP'
tp844
F3
s(S'DP'
S'DDAAPP'
tp845
F1
s(g296
S'ADVDANP'
tp846
F1
s(S'PP'
S'PVVVVP'
tp847
F1
s(g107
S'ADVPVP'
tp848
F11
s(S'NP'
S'NADVADVADVVVP'
tp849
F2
s(g307
S'DDDDAAPP'
tp850
F1
s(S'NP'
S'NNVVVP'
tp851
F1
s(S'VP'
S'ADVVANP'
tp852
F2
s(S'PP'
S'PAMP'
tp853
F1
s(g797
S'ADVPDP'
tp854
F11
s(S'NP'
S'ADVNNPP'
tp855
F2
s(g91
S'NCP'
tp856
F333
s(S'CP'
S'CADVDPPP'
tp857
F2
s(S'VP'
p858
S'ADVVVPP'
tp859
F8
s(S'PP'
S'PPADVNNP'
tp860
F1
s(g134
S'ADVANDP'
tp861
F1
s(S'DP'
S'ADVVP'
tp862
F5
s(g713
S'AAAAPVP'
tp863
F1
s(S'PP'
S'PPAAAP'
tp864
F2
s(S'PP'
S'ADVPDDP'
tp865
F4
s(S'MP'
S'MVCCP'
tp866
F1
s(S'MP'
S'MADVVPP'
tp867
F1
s(g770
S'NNCCP'
tp868
F18
s(S'MP'
S'MNVP'
tp869
F1
s(g458
S'AANAP'
tp870
F1
s(S'NP'
S'AANCCP'
tp871
F1
s(S'VP'
S'VAPP'
tp872
F11
s(S'NP'
S'NPPPPP'
tp873
F1
s(g819
S'ADVVDP'
tp874
F12
s(S'AP'
S'AADVDP'
tp875
F3
s(g839
S'DADVPP'
tp876
F21
s(S'AP'
S'AMP'
tp877
F1
s(S'CP'
S'CCADP'
tp878
F9
s(g633
S'ADVNNCP'
tp879
F4
s(g426
S'ADVDAP'
tp880
F1
s(g452
S'ADVADVADVPNP'
tp881
F1
s(g124
S'NNNPPP'
tp882
F3
s(S'AP'
S'ADVAPP'
tp883
F9
s(g249
S'ADVADVPVVP'
tp884
F1
s(S'CP'
S'CDDADVAPP'
tp885
F1
s(S'CP'
S'AACDP'
tp886
F4
s(S'CP'
S'CCDDDP'
tp887
F1
s(S'CP'
S'CCADVADVDDP'
tp888
F1
s(S'DP'
S'ADVDPPP'
tp889
F3
s(g22
S'DVP'
tp890
F245
s(S'NP'
S'NADVADVADVADVVVP'
tp891
F1
s(S'NP'
S'ADVNPP'
tp892
F3
s(g630
S'NNCCCP'
tp893
F2
s(S'PP'
S'PADVADVDDP'
tp894
F5
s(g424
S'AVP'
tp895
F59
s(g275
S'NADVVP'
tp896
F14
s(S'NP'
S'AAANNVP'
tp897
F1
s(g541
S'ADVVPPP'
tp898
F1
s(g269
S'DDPPP'
tp899
F20
s(S'NP'
S'ADVNMP'
tp900
F3
s(S'NP'
S'NNAP'
tp901
F3
s(S'NP'
S'NNADVPPP'
tp902
F1
s(g234
S'PPANP'
tp903
F8
s(g263
S'CDADVPP'
tp904
F15
s(g344
S'VNP'
tp905
F184
s(g109
S'ADVADVADVADVVVDP'
tp906
F1
s(g858
S'VANP'
tp907
F30
s(g391
S'VADVAP'
tp908
F26
s(S'PP'
S'PPADVNP'
tp909
F2
s(g422
S'DDDDVP'
tp910
F3
s(S'VP'
S'ADVADVVVDP'
tp911
F3
s(S'DP'
S'DDDDDVP'
tp912
F1
s(S'NP'
S'NADVPPP'
tp913
F1
s.