ccollections
defaultdict
p1
(c__builtin__
float
p2
tRp3
(S'AP'
S'AAADVADVADVVP'
tp4
F1
s(S'VP'
S'ADVVVNP'
tp5
F1
s(S'CP'
S'CCDDDDP'
tp6
F1
s(S'VP'
S'VVVVP'
tp7
F1
s(S'PP'
p8
S'PAPP'
tp9
F4
s(S'PP'
p10
S'PADVNP'
tp11
F3
s(S'DP'
p12
S'DNP'
tp13
F65
s(S'NP'
S'ADVADVNNVVP'
tp14
F1
s(S'CP'
p15
S'CDPPP'
tp16
F15
s(S'VP'
p17
S'VADP'
tp18
F6
s(S'DP'
p19
S'DNNNNP'
tp20
F1
s(S'DP'
p21
S'DAAP'
tp22
F5
s(S'AP'
S'AADP'
tp23
F16
s(g8
S'APVP'
tp24
F6
s(S'MP'
S'MVDP'
tp25
F5
s(S'PP'
p26
S'PPPP'
tp27
F11
s(S'MP'
S'MMADVVP'
tp28
F1
s(S'VP'
S'VACP'
tp29
F3
s(g12
S'DADVVP'
tp30
F1
s(S'NP'
p31
S'NNNADVADVVVP'
tp32
F1
s(S'NP'
p33
S'NADVVVP'
tp34
F2
s(g17
S'VCP'
tp35
F27
s(S'NP'
p36
S'NMMP'
tp37
F2
s(S'VP'
p38
S'ADVVAAP'
tp39
F1
s(g8
S'PAP'
tp40
F25
s(S'CP'
S'CDADVADVADVPP'
tp41
F1
s(g33
S'ANPPP'
tp42
F1
s(S'PP'
S'PPADVDP'
tp43
F2
s(g8
S'PNP'
tp44
F55
s(S'DP'
p45
S'DDP'
tp46
F16
s(S'VP'
p47
S'VCCP'
tp48
F3
s(S'MP'
S'MCDP'
tp49
F1
s(g17
S'ADVADVVVCP'
tp50
F1
s(S'NP'
p51
S'NMP'
tp52
F15
s(g8
S'PDP'
tp53
F65
s(S'NP'
S'NNADVCP'
tp54
F1
s(S'DP'
S'DPPPP'
tp55
F4
s(S'NP'
S'NACP'
tp56
F6
s(S'AP'
S'ADVAVP'
tp57
F3
s(g51
S'NCCP'
tp58
F13
s(S'AP'
S'ADVAVVVP'
tp59
F1
s(g51
S'NNCP'
tp60
F14
s(S'DP'
S'ADVDDPP'
tp61
F1
s(S'NP'
p62
S'NADVADVVP'
tp63
F2
s(S'VP'
p64
S'ADVADVADVADVVVNP'
tp65
F1
s(g38
S'AVNP'
tp66
F3
s(S'PP'
S'ADVPVVP'
tp67
F1
s(S'VP'
S'VADVVP'
tp68
F1
s(S'MP'
p69
S'MVPPP'
tp70
F3
s(S'PP'
S'ADVAPVP'
tp71
F2
s(S'CP'
p72
S'CCCDP'
tp73
F1
s(S'VP'
p74
S'AVNNP'
tp75
F2
s(S'PP'
S'APDP'
tp76
F16
s(S'MP'
S'MVADVNP'
tp77
F1
s(S'DP'
S'DADVADVADVPP'
tp78
F1
s(S'PP'
p79
S'PAAP'
tp80
F9
s(S'NP'
p81
S'ADVANCP'
tp82
F1
s(S'PP'
p83
S'ADVADVPAVP'
tp84
F1
s(g12
S'DNNP'
tp85
F21
s(S'CP'
S'CADVDDPP'
tp86
F1
s(S'DP'
S'DPPPPP'
tp87
F1
s(S'NP'
p88
S'NNNVP'
tp89
F2
s(S'PP'
p90
S'ADVAPVVP'
tp91
F1
s(g83
S'PADVVP'
tp92
F1
s(S'PP'
p93
S'APAP'
tp94
F5
s(S'AP'
S'APP'
tp95
F15
s(g31
S'NADVMP'
tp96
F1
s(S'AP'
S'AAP'
tp97
F2
s(S'MP'
S'MVVCP'
tp98
F2
s(S'VP'
p99
S'VADVADVNP'
tp100
F1
s(S'PP'
S'PAANP'
tp101
F1
s(g81
S'ANVP'
tp102
F2
s(S'MP'
S'MVNP'
tp103
F5
s(S'AP'
p104
S'ADVAADP'
tp105
F1
s(S'PP'
p106
S'PAVP'
tp107
F7
s(S'MP'
p108
S'ADVMVP'
tp109
F1
s(S'VP'
p110
S'VVVPP'
tp111
F2
s(S'PP'
p112
S'APPPP'
tp113
F2
s(S'DP'
S'DADP'
tp114
F1
s(S'DP'
p115
S'ADVDDP'
tp116
F1
s(S'PP'
p117
S'APDDP'
tp118
F1
s(S'MP'
S'MNCP'
tp119
F1
s(S'VP'
p120
S'VVNP'
tp121
F4
s(g8
S'PPVP'
tp122
F12
s(S'VP'
S'VADVDP'
tp123
F2
s(S'VP'
S'VVADVAP'
tp124
F1
s(S'VP'
p125
S'VAAP'
tp126
F10
s(S'NP'
p127
S'ANDP'
tp128
F3
s(S'NP'
S'NVVP'
tp129
F9
s(S'PP'
p130
S'AAPVP'
tp131
F1
s(S'VP'
S'VMP'
tp132
F2
s(S'VP'
S'VVNNP'
tp133
F1
s(S'CP'
p134
S'CDAPP'
tp135
F13
s(S'VP'
p136
S'VVAAP'
tp137
F2
s(g12
S'ADNP'
tp138
F7
s(S'PP'
p139
S'PADP'
tp140
F5
s(S'VP'
S'ADVVVCP'
tp141
F2
s(S'AP'
S'AAAACP'
tp142
F1
s(S'NP'
S'ADVANNVP'
tp143
F1
s(g45
S'DAPP'
tp144
F23
s(S'VP'
S'AVVP'
tp145
F1
s(S'VP'
S'ADVADVVPP'
tp146
F1
s(S'PP'
S'ADVADVADVPPP'
tp147
F1
s(g110
S'ADVADVVDP'
tp148
F1
s(S'AP'
p149
S'AAPPP'
tp150
F1
s(S'DP'
p151
S'DADVANP'
tp152
F1
s(S'DP'
p153
S'ADVDNP'
tp154
F3
s(S'VP'
p155
S'VVPP'
tp156
F9
s(S'MP'
S'MVPP'
tp157
F2
s(S'DP'
S'ADVP'
tp158
F3
s(S'CP'
p159
S'CDDPPP'
tp160
F2
s(g51
S'NNPP'
tp161
F10
s(S'MP'
S'MVVDP'
tp162
F1
s(g45
S'DADVPPP'
tp163
F1
s(g104
S'AADVAAP'
tp164
F1
s(S'MP'
S'MVADVCP'
tp165
F1
s(S'PP'
S'PADVADVVP'
tp166
F2
s(g93
S'PMMP'
tp167
F1
s(g139
S'PMP'
tp168
F4
s(g15
S'CCDP'
tp169
F20
s(g69
S'AMVP'
tp170
F1
s(S'PP'
S'PPNNNP'
tp171
F1
s(S'NP'
S'NVVVP'
tp172
F2
s(g159
S'CDDDPP'
tp173
F1
s(S'CP'
p174
S'CDAAPP'
tp175
F2
s(g120
S'VVVDP'
tp176
F4
s(S'PP'
S'PNNNP'
tp177
F2
s(S'NP'
p178
S'ANMMP'
tp179
F1
s(S'AP'
S'AACCP'
tp180
F2
s(S'PP'
S'AAPNP'
tp181
F1
s(S'PP'
p182
S'PADVVVP'
tp183
F1
s(g8
S'PPP'
tp184
F41
s(S'NP'
p185
S'NAVP'
tp186
F3
s(g12
S'ADVADVDDNP'
tp187
F2
s(g153
S'DDNNNP'
tp188
F1
s(S'DP'
S'ADVDVP'
tp189
F3
s(S'NP'
S'NCCCP'
tp190
F1
s(S'PP'
S'PPPPDP'
tp191
F1
s(S'MP'
S'MADVADVVPP'
tp192
F1
s(g17
S'VPP'
tp193
F37
s(S'CP'
S'ADVCCDP'
tp194
F1
s(S'MP'
S'ADVADVMVP'
tp195
F1
s(g12
S'ADVDDNP'
tp196
F1
s(g185
S'NNNCP'
tp197
F1
s(S'PP'
p198
S'PADVDP'
tp199
F4
s(S'CP'
S'CDADVAPP'
tp200
F1
s(S'DP'
p201
S'ADVADVADVDDDP'
tp202
F1
s(S'CP'
S'CDDPP'
tp203
F13
s(g19
S'DAAPP'
tp204
F3
s(g26
S'PVVP'
tp205
F9
s(S'AP'
p206
S'AACP'
tp207
F3
s(S'MP'
S'MAVCP'
tp208
F1
s(S'VP'
S'ADVVCP'
tp209
F1
s(g17
S'VPPP'
tp210
F7
s(S'PP'
S'PPAP'
tp211
F1
s(S'DP'
p212
S'DVVP'
tp213
F6
s(S'NP'
p214
S'ANMP'
tp215
F2
s(S'PP'
S'ADVPPP'
tp216
F1
s(g127
S'ADVADVNVP'
tp217
F2
s(g134
S'CADVDPP'
tp218
F4
s(S'NP'
p219
S'ANCP'
tp220
F12
s(S'DP'
p221
S'DCP'
tp222
F2
s(S'DP'
p223
S'DDDP'
tp224
F1
s(S'DP'
p225
S'DDADVPP'
tp226
F3
s(S'VP'
S'VVDP'
tp227
F10
s(g51
S'NPPP'
tp228
F10
s(S'DP'
S'DAVP'
tp229
F9
s(S'VP'
S'AVVVP'
tp230
F1
s(S'AP'
p231
S'ACP'
tp232
F12
s(g93
S'PPNP'
tp233
F15
s(S'PP'
p234
S'PPPPDDP'
tp235
F1
s(S'CP'
S'CDDADVPP'
tp236
F2
s(S'CP'
p237
S'CCCDDP'
tp238
F1
s(S'AP'
S'ADP'
tp239
F36
s(g10
S'APVVP'
tp240
F1
s(S'NP'
p241
S'ADVANCCP'
tp242
F1
s(S'AP'
S'AAADP'
tp243
F1
s(g125
S'VVAP'
tp244
F4
s(S'NP'
S'NNAPP'
tp245
F1
s(g51
S'NPP'
tp246
F53
s(g51
S'NVP'
tp247
F57
s(S'NP'
S'NAAPP'
tp248
F1
s(g120
S'VDDP'
tp249
F5
s(g241
S'ADVADVNACP'
tp250
F1
s(S'DP'
S'DADVAPP'
tp251
F2
s(g223
S'DDPP'
tp252
F15
s(g51
S'ANPP'
tp253
F9
s(g93
S'ADVPPDP'
tp254
F2
s(g26
S'PPPPP'
tp255
F4
s(S'MP'
S'MVVPP'
tp256
F2
s(g8
S'PNNP'
tp257
F12
s(g17
S'VVADVADVDDP'
tp258
F2
s(S'MP'
p259
S'MMVP'
tp260
F4
s(g8
S'PADVDDP'
tp261
F1
s(S'NP'
p262
S'ADVNCP'
tp263
F3
s(S'PP'
p264
S'PPAADP'
tp265
F1
s(S'CP'
S'ACDP'
tp266
F9
s(S'NP'
p267
S'NNDP'
tp268
F1
s(S'NP'
p269
S'NNACP'
tp270
F2
s(g134
S'CDADVPPP'
tp271
F1
s(g17
S'VAP'
tp272
F28
s(S'DP'
p273
S'DDDPP'
tp274
F1
s(S'CP'
S'ADVCDDP'
tp275
F1
s(g130
S'PAAPP'
tp276
F1
s(g221
S'DDDPPP'
tp277
F1
s(S'DP'
S'DADVDP'
tp278
F1
s(g206
S'AVVP'
tp279
F2
s(g231
S'AADDP'
tp280
F3
s(g64
S'VAANP'
tp281
F1
s(g79
S'PANP'
tp282
F11
s(g178
S'AANMP'
tp283
F1
s(S'AP'
S'AAVP'
tp284
F3
s(S'NP'
p285
S'NAAP'
tp286
F2
s(S'NP'
S'NDDP'
tp287
F2
s(S'MP'
S'MVADVDP'
tp288
F1
s(g225
S'DADVADVNNP'
tp289
F1
s(S'DP'
S'DDADVADVADVADVVVP'
tp290
F1
s(g51
S'NDP'
tp291
F17
s(g108
S'MVAAP'
tp292
F2
s(g21
S'DDVP'
tp293
F11
s(g264
S'PCP'
tp294
F4
s(S'AP'
p295
S'ADVACP'
tp296
F1
s(S'VP'
S'AVVDP'
tp297
F1
s(S'DP'
p298
S'ADPPP'
tp299
F1
s(g69
S'MVCP'
tp300
F1
s(g262
S'NNADVVP'
tp301
F1
s(g182
S'AAPAAAAP'
tp302
F1
s(g264
S'PPAAP'
tp303
F1
s(g125
S'VVCP'
tp304
F9
s(g83
S'PADVADVPP'
tp305
F1
s(g62
S'AANCP'
tp306
F2
s(S'VP'
S'VADVNP'
tp307
F2
s(g267
S'NNDDP'
tp308
F1
s(S'DP'
S'DDDDPPP'
tp309
F1
s(S'VP'
S'ADVVPP'
tp310
F2
s(S'VP'
S'VNNP'
tp311
F9
s(S'AP'
S'AADVDP'
tp312
F1
s(S'NP'
p313
S'NADP'
tp314
F1
s(g12
S'DDNP'
tp315
F12
s(S'CP'
S'ACADVDP'
tp316
F1
s(S'NP'
S'NADVCP'
tp317
F4
s(g12
S'DDNNP'
tp318
F2
s(S'PP'
p319
S'AAPDP'
tp320
F1
s(S'CP'
S'ACDDP'
tp321
F1
s(S'PP'
S'PPPADVDP'
tp322
F1
s(g295
S'AAPP'
tp323
F4
s(S'VP'
p324
S'VVCCP'
tp325
F1
s(g151
S'DADVADVNP'
tp326
F1
s(g117
S'ADVPANP'
tp327
F1
s(g33
S'NAPP'
tp328
F7
s(S'NP'
S'NADVDP'
tp329
F3
s(g285
S'ANCCP'
tp330
F2
s(S'NP'
p331
S'AANPP'
tp332
F1
s(S'NP'
p333
S'NNMP'
tp334
F2
s(S'PP'
S'PAAAP'
tp335
F1
s(S'PP'
S'PPPAP'
tp336
F1
s(g201
S'ADVDDAP'
tp337
F1
s(S'MP'
S'MVAP'
tp338
F2
s(g79
S'PVP'
tp339
F46
s(g74
S'VADVPPP'
tp340
F1
s(g221
S'AADPPPPP'
tp341
F1
s(S'VP'
S'VADVCCP'
tp342
F1
s(S'DP'
p343
S'DVVVP'
tp344
F2
s(g8
S'PPDDP'
tp345
F2
s(S'VP'
p346
S'AVCP'
tp347
F1
s(g12
S'DPP'
tp348
F65
s(g219
S'ADVNVP'
tp349
F2
s(g21
S'DDDVVP'
tp350
F1
s(g51
S'NADVADVVVP'
tp351
F1
s(g12
S'DANP'
tp352
F15
s(S'NP'
S'NADVPP'
tp353
F1
s(g259
S'MPPADVNP'
tp354
F1
s(S'DP'
S'AADNP'
tp355
F1
s(g47
S'VADVCP'
tp356
F2
s(S'DP'
p357
S'ADVDAAP'
tp358
F1
s(g319
S'PADVPPP'
tp359
F1
s(S'DP'
p360
S'AADDP'
tp361
F1
s(S'CP'
S'CDPPPPP'
tp362
F1
s(g8
S'PDDP'
tp363
F11
s(g333
S'NNVP'
tp364
F8
s(g45
S'DAANP'
tp365
F4
s(S'AP'
S'ADDP'
tp366
F5
s(S'VP'
S'ADVADVADVVCP'
tp367
F1
s(g10
S'ADVPPNP'
tp368
F1
s(g12
S'DPPP'
tp369
F25
s(g357
S'DAVVP'
tp370
F1
s(S'DP'
S'ADVADVDDADVPP'
tp371
F1
s(g31
S'NNAVP'
tp372
F2
s(g51
S'NMMMP'
tp373
F1
s(S'PP'
S'ADVPNP'
tp374
F3
s(g324
S'AVDP'
tp375
F11
s(S'DP'
p376
S'DDADVANP'
tp377
F1
s(S'PP'
p378
S'PPADVDDP'
tp379
F1
s(g214
S'NAP'
tp380
F9
s(S'VP'
p381
S'VVP'
tp382
F11
s(g51
S'NNVVP'
tp383
F3
s(g198
S'ADVADVPVP'
tp384
F1
s(g106
S'APNP'
tp385
F8
s(g376
S'DDVVP'
tp386
F2
s(g185
S'AAANMMP'
tp387
F1
s(g90
S'PPADVAPP'
tp388
F1
s(g15
S'CDPP'
tp389
F59
s(g231
S'ADDDP'
tp390
F1
s(g174
S'ADVCADP'
tp391
F2
s(g69
S'MMMVP'
tp392
F1
s(S'CP'
S'ADVCDP'
tp393
F4
s(S'VP'
S'ADVADVVNP'
tp394
F2
s(S'CP'
p395
S'CADVADVADVADVDPPP'
tp396
F1
s(S'VP'
S'ADVADVVCP'
tp397
F1
s(g234
S'PPNNP'
tp398
F1
s(g8
S'PPMP'
tp399
F3
s(g17
S'ADVVAVP'
tp400
F1
s(g17
S'VDP'
tp401
F60
s(g346
S'AVDDP'
tp402
F1
s(g212
S'DADVNP'
tp403
F2
s(S'DP'
S'DAP'
tp404
F7
s(g395
S'CADPP'
tp405
F11
s(g136
S'ADVADVVVPP'
tp406
F1
s(g360
S'ADVADVADVADVDPPP'
tp407
F1
s(g17
S'AVPP'
tp408
F5
s(g88
S'NADVADVMP'
tp409
F1
s(S'CP'
S'CDPPPP'
tp410
F3
s(S'VP'
S'VADVADVCCP'
tp411
F1
s(g93
S'APPP'
tp412
F3
s(g115
S'DADVADVPP'
tp413
F1
s(g343
S'DMP'
tp414
F1
s(S'NP'
S'NNNNADVVP'
tp415
F1
s(g45
S'ADVDPP'
tp416
F8
s(g112
S'PADVADVNP'
tp417
F1
s(g21
S'ADPP'
tp418
F16
s(g269
S'NNADVVVP'
tp419
F2
s(g99
S'VADVPP'
tp420
F1
s(S'PP'
S'ADVPVP'
tp421
F2
s(g378
S'PADVADVADVDDP'
tp422
F1
s(g8
S'PAMP'
tp423
F1
s(S'PP'
S'ADVPDP'
tp424
F3
s(g26
S'PPPVVP'
tp425
F1
s(g51
S'NCP'
tp426
F51
s(g324
S'ADVVVPP'
tp427
F3
s(S'PP'
S'PPPAPP'
tp428
F1
s(S'DP'
S'DDADVVVP'
tp429
F1
s(S'AP'
S'AAAP'
tp430
F2
s(g324
S'VAADP'
tp431
F2
s(g93
S'PPDP'
tp432
F13
s(g262
S'AANDP'
tp433
F2
s(S'DP'
S'DADVNNP'
tp434
F1
s(g36
S'NNCCP'
tp435
F2
s(g237
S'ADVADVCCDP'
tp436
F1
s(S'VP'
S'VAPP'
tp437
F5
s(g381
S'ADVVDP'
tp438
F4
s(S'DP'
S'DADVPP'
tp439
F5
s(S'CP'
S'CCADP'
tp440
F1
s(g313
S'ADVNNCP'
tp441
F1
s(g201
S'ADVDAP'
tp442
F1
s(S'AP'
S'ADVAPP'
tp443
F1
s(S'CP'
S'CCDDDP'
tp444
F1
s(g273
S'ADVDPPP'
tp445
F1
s(g12
S'DVP'
tp446
F50
s(g155
S'ADVVAP'
tp447
F1
s(g331
S'ADVNPP'
tp448
F3
s(S'NP'
S'NNCCCP'
tp449
F1
s(g149
S'AVP'
tp450
F8
s(g219
S'NADVVP'
tp451
F4
s(g298
S'DADVANNP'
tp452
F1
s(g273
S'DDPPP'
tp453
F3
s(S'NP'
S'ADVNMP'
tp454
F1
s(S'NP'
S'NNAP'
tp455
F1
s(g264
S'PPANP'
tp456
F1
s(g72
S'CADVADVDDADVPP'
tp457
F1
s(S'CP'
S'CDADVPP'
tp458
F4
s(g17
S'VNP'
tp459
F32
s(S'VP'
S'VANP'
tp460
F3
s(g324
S'VADVAP'
tp461
F5
s(g79
S'PPADVNP'
tp462
F2
s.