ccollections
defaultdict
p1
(c__builtin__
float
p2
tRp3
(S'DP'
S'DDPP'
tp4
F18
s(S'PP'
S'PPCP'
tp5
F1
s(S'DP'
S'DANP'
tp6
F21
s(S'VP'
S'ADVVNP'
tp7
F1
s(S'NP'
p8
S'ANPP'
tp9
F6
s(S'PP'
p10
S'PPPPP'
tp11
F1
s(S'DP'
S'AADPPP'
tp12
F1
s(S'VP'
p13
S'VVNP'
tp14
F7
s(S'NP'
p15
S'ANDP'
tp16
F2
s(S'PP'
S'PPVP'
tp17
F6
s(S'VP'
S'ADVVVVNNP'
tp18
F1
s(S'VP'
p19
S'VAAP'
tp20
F3
s(S'PP'
p21
S'PAPP'
tp22
F4
s(S'PP'
p23
S'PADVNP'
tp24
F4
s(S'NP'
p25
S'NVVP'
tp26
F20
s(S'DP'
p27
S'DNP'
tp28
F99
s(S'NP'
S'NAACP'
tp29
F1
s(S'PP'
S'PNNP'
tp30
F14
s(S'AP'
S'ADVACP'
tp31
F2
s(S'CP'
S'CDAPP'
tp32
F2
s(S'VP'
S'VVAAP'
tp33
F1
s(S'VP'
S'AVCP'
tp34
F1
s(S'CP'
S'CDPPP'
tp35
F9
s(S'AP'
S'ADVADP'
tp36
F1
s(S'DP'
p37
S'ADNP'
tp38
F1
s(S'DP'
S'DCCP'
tp39
F1
s(S'VP'
p40
S'VADP'
tp41
F1
s(S'VP'
S'ADVADVVNP'
tp42
F1
s(g13
S'VVVVCP'
tp43
F1
s(S'NP'
S'NNAP'
tp44
F2
s(S'PP'
p45
S'PDDP'
tp46
F8
s(S'CP'
S'ACDP'
tp47
F1
s(g23
S'APPDP'
tp48
F1
s(S'PP'
S'PAAP'
tp49
F2
s(S'MP'
S'MMADVVP'
tp50
F1
s(S'AP'
S'ADVANP'
tp51
F1
s(S'NP'
S'NNVP'
tp52
F16
s(S'DP'
S'DAPP'
tp53
F6
s(S'CP'
S'CDADVPPP'
tp54
F1
s(S'VP'
S'VAP'
tp55
F30
s(g21
S'APVP'
tp56
F3
s(S'MP'
S'MVDP'
tp57
F12
s(S'DP'
p58
S'DDDPP'
tp59
F1
s(S'PP'
S'PPPP'
tp60
F2
s(S'DP'
S'ADVADPP'
tp61
F1
s(S'DP'
S'DAANP'
tp62
F3
s(S'VP'
S'VACP'
tp63
F1
s(S'PP'
S'PPPDP'
tp64
F2
s(S'AP'
S'ADDP'
tp65
F2
s(S'AP'
S'ADVAPP'
tp66
F1
s(S'DP'
S'DDCCCP'
tp67
F1
s(S'DP'
S'DADVDP'
tp68
F1
s(S'PP'
S'ADVPPNP'
tp69
F2
s(S'CP'
S'CCADVADP'
tp70
F1
s(S'AP'
S'AAPPP'
tp71
F1
s(S'CP'
S'CAAADADVPPP'
tp72
F1
s(S'AP'
S'AAVP'
tp73
F1
s(S'AP'
S'AVVP'
tp74
F1
s(S'DP'
S'DPPP'
tp75
F18
s(S'VP'
p76
S'AAVVP'
tp77
F1
s(S'NP'
S'NCCCP'
tp78
F1
s(g10
S'PPPVP'
tp79
F1
s(S'VP'
p80
S'VCP'
tp81
F19
s(S'CP'
p82
S'CDDPP'
tp83
F6
s(S'NP'
S'NDDP'
tp84
F1
s(S'MP'
S'MVPP'
tp85
F2
s(S'DP'
S'ADVP'
tp86
F1
s(S'MP'
p87
S'MVADP'
tp88
F1
s(S'NP'
S'ANADVVP'
tp89
F1
s(S'PP'
S'PAP'
tp90
F20
s(S'PP'
S'ADVPNP'
tp91
F1
s(S'CP'
S'CDDPPP'
tp92
F1
s(S'PP'
S'PPMP'
tp93
F1
s(g80
S'VVDP'
tp94
F15
s(S'PP'
S'APVVP'
tp95
F1
s(S'PP'
S'PPADVDP'
tp96
F1
s(S'MP'
S'MVVDP'
tp97
F1
s(S'MP'
S'MDAANP'
tp98
F1
s(S'PP'
p99
S'PNP'
tp100
F68
s(S'MP'
S'MADP'
tp101
F1
s(S'CP'
S'CCAADP'
tp102
F1
s(S'DP'
S'DDP'
tp103
F12
s(S'NP'
S'AAAAAANCCP'
tp104
F3
s(S'PP'
S'PANP'
tp105
F5
s(S'VP'
p106
S'ADVVDDP'
tp107
F1
s(g19
S'VCCP'
tp108
F1
s(S'MP'
S'MCDP'
tp109
F1
s(S'NP'
S'ANADVAP'
tp110
F1
s(S'CP'
p111
S'AACDP'
tp112
F1
s(S'PP'
S'PMP'
tp113
F1
s(S'NP'
S'NNMMP'
tp114
F1
s(S'NP'
S'NAAP'
tp115
F2
s(S'AP'
S'ACP'
tp116
F12
s(S'CP'
S'CCDP'
tp117
F17
s(S'NP'
p118
S'NAP'
tp119
F16
s(S'MP'
S'AMVP'
tp120
F1
s(S'NP'
S'ADVADVADVNCP'
tp121
F1
s(S'NP'
S'NMP'
tp122
F22
s(S'NP'
S'NVVVP'
tp123
F3
s(S'CP'
S'CDDDPP'
tp124
F1
s(g76
S'AVPP'
tp125
F2
s(S'NP'
S'NDP'
tp126
F20
s(S'DP'
S'ADNNP'
tp127
F1
s(S'VP'
p128
S'VVVDP'
tp129
F1
s(S'DP'
S'DVP'
tp130
F53
s(g40
S'VVP'
tp131
F7
s(S'DP'
S'DDVP'
tp132
F2
s(S'PP'
p133
S'PDP'
tp134
F87
s(g58
S'DADVNP'
tp135
F1
s(S'PP'
S'ADVADVPVP'
tp136
F1
s(S'CP'
S'CDADVADVPP'
tp137
F1
s(S'NP'
S'AANVP'
tp138
F1
s(S'VP'
S'ADVVVNNP'
tp139
F1
s(S'DP'
S'DDVVP'
tp140
F1
s(S'NP'
S'NNNCP'
tp141
F3
s(S'PP'
p142
S'PPP'
tp143
F18
s(S'NP'
S'NNNNCP'
tp144
F1
s(S'NP'
p145
S'NAVP'
tp146
F3
s(S'NP'
S'ADVNADVVVVP'
tp147
F1
s(S'NP'
S'NAMP'
tp148
F1
s(S'MP'
S'MVANP'
tp149
F1
s(S'PP'
S'PADVMP'
tp150
F1
s(g145
S'NNPPP'
tp151
F1
s(S'VP'
S'VVCP'
tp152
F1
s(S'CP'
S'CDPP'
tp153
F105
s(S'VP'
S'VMP'
tp154
F1
s(S'VP'
S'VVDDP'
tp155
F1
s(S'VP'
p156
S'VPPPP'
tp157
F1
s(S'PP'
S'PADVADVAP'
tp158
F1
s(S'NP'
S'NNDP'
tp159
F2
s(S'PP'
S'PPPPDP'
tp160
F1
s(S'DP'
S'ADPP'
tp161
F2
s(S'DP'
S'DPPPP'
tp162
F1
s(S'VP'
p163
S'VPP'
tp164
F32
s(S'MP'
S'MVAAP'
tp165
F1
s(S'CP'
S'ADVCCDP'
tp166
F1
s(S'NP'
p167
S'NCCP'
tp168
F9
s(S'NP'
S'ADVADVNMP'
tp169
F1
s(g111
S'ACCDP'
tp170
F1
s(S'NP'
S'ANMMP'
tp171
F1
s(S'DP'
S'ADPPP'
tp172
F1
s(S'PP'
S'PADVDP'
tp173
F1
s(S'NP'
p174
S'NNCP'
tp175
F17
s(S'NP'
S'NADVADVVP'
tp176
F1
s(g163
S'VVPP'
tp177
F10
s(g87
S'MADVVAP'
tp178
F1
s(S'CP'
S'CCDDP'
tp179
F6
s(g142
S'PPNNP'
tp180
F2
s(g99
S'PVVP'
tp181
F7
s(S'CP'
S'CADPPP'
tp182
F1
s(S'DP'
p183
S'DADVPPP'
tp184
F1
s(S'VP'
S'AVNP'
tp185
F1
s(S'VP'
S'ADVVCP'
tp186
F1
s(g40
S'VPPP'
tp187
F3
s(S'NP'
S'NNVVP'
tp188
F2
s(S'CP'
S'CADVDPPP'
tp189
F1
s(S'VP'
S'VVPPP'
tp190
F2
s(g27
S'DAP'
tp191
F8
s(S'CP'
S'CADPP'
tp192
F1
s(S'NP'
S'AANCP'
tp193
F2
s(g163
S'VDP'
tp194
F85
s(S'DP'
S'DVVP'
tp195
F7
s(S'DP'
S'DDPPP'
tp196
F1
s(g106
S'VADVVP'
tp197
F1
s(S'NP'
S'ANMP'
tp198
F3
s(S'VP'
S'ADVADVVVP'
tp199
F1
s(S'PP'
S'PPAP'
tp200
F5
s(S'VP'
S'ADVVPP'
tp201
F2
s(g128
S'VNNP'
tp202
F5
s(S'CP'
S'CADVDPP'
tp203
F3
s(S'VP'
S'VADVADVADVNP'
tp204
F1
s(S'CP'
S'CCCDP'
tp205
F2
s(g40
S'ADVVAP'
tp206
F2
s(S'DP'
S'DDNP'
tp207
F3
s(S'PP'
S'APPP'
tp208
F1
s(S'NP'
S'ANCP'
tp209
F6
s(S'PP'
S'APDP'
tp210
F4
s(g183
S'DMP'
tp211
F1
s(S'DP'
S'DCP'
tp212
F6
s(S'DP'
S'ADVDPP'
tp213
F4
s(S'MP'
S'MMVP'
tp214
F1
s(S'PP'
S'PADVADVNP'
tp215
F1
s(S'MP'
S'MNPP'
tp216
F1
s(S'AP'
S'AADP'
tp217
F7
s(S'DP'
S'DDDP'
tp218
F2
s(S'VP'
S'VADVPP'
tp219
F1
s(S'NP'
S'NNNADVVVP'
tp220
F1
s(S'VP'
S'VVANP'
tp221
F2
s(S'NP'
S'ANVVP'
tp222
F2
s(S'PP'
S'ADVPVP'
tp223
F1
s(S'DP'
S'DDDDPP'
tp224
F1
s(S'NP'
S'NPPP'
tp225
F3
s(S'PP'
S'PADP'
tp226
F2
s(S'NP'
S'NNVVVP'
tp227
F1
s(S'AP'
S'ACCP'
tp228
F3
s(S'DP'
S'DAVP'
tp229
F4
s(S'DP'
S'DNNP'
tp230
F12
s(g25
S'NCP'
tp231
F54
s(S'AP'
S'AADDP'
tp232
F1
s(S'MP'
S'MDNP'
tp233
F1
s(g82
S'CCADVDP'
tp234
F1
s(S'MP'
S'MADVVDP'
tp235
F1
s(g142
S'PPNP'
tp236
F6
s(S'AP'
S'AAPP'
tp237
F2
s(g156
S'VVCCP'
tp238
F1
s(S'PP'
S'PPDP'
tp239
F5
s(S'NP'
S'NNCCP'
tp240
F2
s(S'NP'
S'AANAP'
tp241
F2
s(g15
S'NNPP'
tp242
F1
s(S'AP'
S'ADP'
tp243
F60
s(S'VP'
S'VVVCCP'
tp244
F2
s(S'NP'
S'NPPPPP'
tp245
F1
s(S'AP'
S'APP'
tp246
F11
s(S'PP'
S'APMP'
tp247
F1
s(S'VP'
S'ADVVDP'
tp248
F4
s(S'VP'
S'VVVCP'
tp249
F2
s(S'DP'
S'DADVPP'
tp250
F1
s(S'NP'
S'ANCCP'
tp251
F3
s(S'DP'
S'AAADADVPPP'
tp252
F1
s(S'NP'
S'NNMP'
tp253
F4
s(S'DP'
S'DAAVP'
tp254
F1
s(S'CP'
S'CDDDDPP'
tp255
F1
s(S'MP'
S'MAPDP'
tp256
F1
s(S'PP'
S'PAANP'
tp257
F1
s(S'DP'
S'DADVAP'
tp258
F1
s(S'VP'
S'AVDP'
tp259
F5
s(g174
S'NNNCCP'
tp260
F1
s(g167
S'ANVP'
tp261
F4
s(S'NP'
S'ANAP'
tp262
F3
s(S'VP'
S'VVAP'
tp263
F1
s(S'PP'
S'PPAVP'
tp264
F1
s(S'MP'
S'MVAP'
tp265
F2
s(g37
S'ADVDPPP'
tp266
F2
s(g133
S'PVP'
tp267
F45
s(S'MP'
S'MVNP'
tp268
F7
s(S'AP'
S'AVP'
tp269
F7
s(g8
S'NADVVP'
tp270
F5
s(S'AP'
S'ADVADVADP'
tp271
F1
s(S'DP'
S'DADVADVVP'
tp272
F2
s(g45
S'PAVP'
tp273
F2
s(S'MP'
S'ADVMVP'
tp274
F1
s(S'PP'
S'APAP'
tp275
F1
s(S'VP'
S'VACCP'
tp276
F1
s(S'NP'
S'ADVNMP'
tp277
F1
s(g145
S'NNADVCCP'
tp278
F1
s(g118
S'NPP'
tp279
F65
s(S'VP'
S'VVADP'
tp280
F1
s(g25
S'NVP'
tp281
F80
s(S'NP'
S'ANVVVP'
tp282
F1
s(g163
S'VNP'
tp283
F49
s(S'VP'
S'VANP'
tp284
F4
s(S'VP'
S'VDDP'
tp285
F2
s(S'VP'
S'VADVAP'
tp286
F2
s(S'DP'
S'DADVADVPP'
tp287
F1
s(g27
S'DPP'
tp288
F131
s(S'NP'
S'ADVNVP'
tp289
F4
s.