ccollections
defaultdict
p1
(c__builtin__
float
p2
tRp3
(S'DP'
S'DDPP'
tp4
F2
s(S'DP'
p5
S'DANP'
tp6
F1
s(S'DP'
p7
S'DDDDDP'
tp8
F1
s(S'VP'
p9
S'VAAP'
tp10
F1
s(S'DP'
p11
S'DNP'
tp12
F12
s(S'PP'
p13
S'PNNP'
tp14
F2
s(S'NP'
p15
S'NCCP'
tp16
F4
s(S'CP'
p17
S'CDAPP'
tp18
F2
s(g17
S'CDPPP'
tp19
F1
s(S'NP'
S'ADVNCP'
tp20
F1
s(S'MP'
S'MADVVDP'
tp21
F1
s(S'PP'
p22
S'PDDP'
tp23
F1
s(S'NP'
S'NNNCP'
tp24
F1
s(g11
S'DAPP'
tp25
F2
s(S'CP'
S'CDADVPPP'
tp26
F1
s(S'VP'
p27
S'VAP'
tp28
F1
s(S'MP'
S'MVDP'
tp29
F1
s(S'DP'
S'DDDPP'
tp30
F2
s(S'NP'
p31
S'NNP'
tp32
F1
s(S'DP'
S'DADVVP'
tp33
F1
s(g11
S'DPPP'
tp34
F2
s(S'PP'
S'PPPVP'
tp35
F1
s(S'VP'
p36
S'VCP'
tp37
F3
s(g13
S'PAP'
tp38
F4
s(S'PP'
S'PPDP'
tp39
F1
s(g7
S'DDDDPP'
tp40
F1
s(S'PP'
S'PNP'
tp41
F10
s(S'DP'
p42
S'DNNNP'
tp43
F2
s(g7
S'DDP'
tp44
F2
s(S'PP'
S'PANP'
tp45
F1
s(S'NP'
S'NNNPP'
tp46
F1
s(g15
S'NNDP'
tp47
F1
s(S'MP'
S'MCDP'
tp48
F1
s(S'NP'
S'NDDP'
tp49
F2
s(S'CP'
S'CCDP'
tp50
F4
s(S'NP'
p51
S'NAP'
tp52
F3
s(g27
S'VPPP'
tp53
F1
s(S'NP'
S'NMP'
tp54
F4
s(S'NP'
S'NVVVP'
tp55
F1
s(S'PP'
p56
S'PVP'
tp57
F6
s(S'DP'
p58
S'DDVP'
tp59
F1
s(g56
S'PDP'
tp60
F11
s(S'AP'
S'AADP'
tp61
F1
s(S'PP'
S'APNP'
tp62
F1
s(S'PP'
S'PPP'
tp63
F2
s(g13
S'PCP'
tp64
F1
s(S'CP'
S'CDPP'
tp65
F16
s(S'DP'
S'DPPPP'
tp66
F1
s(g36
S'VPP'
tp67
F5
s(S'AP'
S'ADVAVP'
tp68
F1
s(g58
S'DNNP'
tp69
F1
s(S'MP'
p70
S'ADVADVMVP'
tp71
F1
s(S'NP'
p72
S'NNVP'
tp73
F2
s(g13
S'APNNP'
tp74
F1
s(g51
S'NNCP'
tp75
F3
s(S'AP'
p76
S'ACP'
tp77
F2
s(S'CP'
S'CDDPP'
tp78
F1
s(S'PP'
S'PVVP'
tp79
F2
s(S'DP'
S'DADVPPP'
tp80
F1
s(S'VP'
S'AVNP'
tp81
F1
s(S'VP'
S'VADVNP'
tp82
F1
s(g42
S'DAP'
tp83
F2
s(S'CP'
S'CADPP'
tp84
F1
s(g36
S'VDP'
tp85
F13
s(g13
S'PPAP'
tp86
F2
s(S'VP'
S'ADVVPP'
tp87
F1
s(S'CP'
S'CDPPPP'
tp88
F1
s(S'VP'
p89
S'VNNP'
tp90
F1
s(S'CP'
S'CADVDPP'
tp91
F1
s(g9
S'AAVDP'
tp92
F1
s(S'DP'
S'DDNP'
tp93
F1
s(S'NP'
p94
S'ANCP'
tp95
F1
s(S'DP'
S'ADVDPP'
tp96
F1
s(S'VP'
S'ADVVNNP'
tp97
F2
s(g5
S'ADPP'
tp98
F2
s(g58
S'DDDP'
tp99
F1
s(S'NP'
S'ANVVP'
tp100
F1
s(S'VP'
S'VVDP'
tp101
F4
s(S'NP'
S'NPPP'
tp102
F1
s(g76
S'AADVADVMP'
tp103
F1
s(S'NP'
S'NCP'
tp104
F12
s(S'NP'
S'NNNNCCP'
tp105
F2
s(g70
S'MNVP'
tp106
F1
s(g76
S'ADP'
tp107
F7
s(S'PP'
S'ADVAPNNP'
tp108
F1
s(S'VP'
S'ADVVDP'
tp109
F1
s(g94
S'ANCCP'
tp110
F1
s(S'CP'
S'CCADP'
tp111
F1
s(S'DP'
S'DAAVP'
tp112
F1
s(S'DP'
S'DDADVAPP'
tp113
F1
s(S'CP'
S'CDDADVAPP'
tp114
F1
s(S'CP'
S'CCDDDP'
tp115
F2
s(g11
S'DVP'
tp116
F6
s(S'PP'
S'ADVPPADVNP'
tp117
F1
s(S'AP'
S'AVP'
tp118
F2
s(g72
S'NADVVP'
tp119
F1
s(g31
S'ADVNAVP'
tp120
F1
s(g51
S'NNAP'
tp121
F1
s(S'NP'
S'NPP'
tp122
F6
s(S'NP'
S'NNNP'
tp123
F1
s(g51
S'NVP'
tp124
F13
s(g36
S'VNP'
tp125
F10
s(g89
S'VDDP'
tp126
F1
s(g22
S'PPDDP'
tp127
F1
s(S'DP'
S'DPP'
tp128
F21
s.