ccollections
defaultdict
p1
(c__builtin__
float
p2
tRp3
(S'DP'
p4
S'DDPP'
tp5
F14
s(S'DP'
S'DANP'
tp6
F11
s(S'NP'
S'NADVADVVVP'
tp7
F1
s(S'NP'
p8
S'ANPP'
tp9
F3
s(S'MP'
S'MNCP'
tp10
F1
s(S'VP'
S'VVNP'
tp11
F5
s(S'PP'
p12
S'PPPNP'
tp13
F2
s(S'PP'
p14
S'PPVP'
tp15
F5
s(S'DP'
p16
S'DDAP'
tp17
F1
s(S'VP'
S'ADVVVNP'
tp18
F2
s(S'NP'
S'NPPPP'
tp19
F1
s(S'VP'
S'VVVVP'
tp20
F1
s(S'NP'
p21
S'NNAPPP'
tp22
F1
s(S'AP'
S'ADVADVACP'
tp23
F1
s(S'PP'
S'PADVNP'
tp24
F3
s(S'NP'
p25
S'NVVP'
tp26
F17
s(S'DP'
p27
S'DNP'
tp28
F65
s(S'PP'
p29
S'PNNP'
tp30
F7
s(S'VP'
S'VVVPP'
tp31
F2
s(S'NP'
p32
S'NCCP'
tp33
F8
s(S'CP'
p34
S'CDAPP'
tp35
F2
s(S'PP'
S'PPPP'
tp36
F1
s(S'CP'
S'CDPPP'
tp37
F7
s(S'PP'
p38
S'PADVPPP'
tp39
F1
s(S'VP'
p40
S'VADP'
tp41
F3
s(S'MP'
S'ADVADVMVP'
tp42
F1
s(S'PP'
S'PADP'
tp43
F2
s(S'DP'
S'DAAP'
tp44
F2
s(S'PP'
p45
S'AAPDP'
tp46
F1
s(S'MP'
S'MADVVDP'
tp47
F1
s(S'MP'
S'MADVADVVNP'
tp48
F1
s(S'PP'
p49
S'PDDP'
tp50
F3
s(S'CP'
S'ACDP'
tp51
F1
s(S'DP'
S'ADVADVDVP'
tp52
F1
s(S'VP'
p53
S'ADVADVADVVVPP'
tp54
F1
s(S'DP'
S'ADNNP'
tp55
F1
s(S'AP'
S'ADVANP'
tp56
F2
s(S'NP'
p57
S'NNVP'
tp58
F13
s(S'NP'
S'ADVADVADVNVP'
tp59
F1
s(S'CP'
S'CDADVPPP'
tp60
F2
s(S'VP'
p61
S'VAP'
tp62
F32
s(S'VP'
S'ADVVNP'
tp63
F5
s(S'MP'
S'MVDP'
tp64
F3
s(S'DP'
S'DDDPP'
tp65
F1
s(S'CP'
S'ADVCDDP'
tp66
F1
s(S'PP'
S'ADVPMP'
tp67
F1
s(S'VP'
S'VVDDP'
tp68
F1
s(S'DP'
S'DAANP'
tp69
F1
s(S'VP'
S'ADVADVVDP'
tp70
F1
s(S'VP'
p71
S'VNNNP'
tp72
F3
s(S'AP'
S'ADDP'
tp73
F5
s(S'DP'
S'DDDPPP'
tp74
F1
s(g49
S'PADVCP'
tp75
F1
s(g40
S'ADVVVAP'
tp76
F1
s(S'PP'
p77
S'ADVPPNP'
tp78
F2
s(S'VP'
p79
S'VADVADVADVVP'
tp80
F1
s(S'AP'
p81
S'AAPPP'
tp82
F1
s(S'VP'
S'VDDDDP'
tp83
F1
s(S'DP'
S'DAAANP'
tp84
F1
s(S'NP'
S'NAAP'
tp85
F1
s(g16
S'DPPP'
tp86
F12
s(g8
S'NADVVVP'
tp87
F2
s(S'PP'
S'PPPVP'
tp88
F1
s(S'VP'
p89
S'VVPP'
tp90
F7
s(S'NP'
S'AANCCP'
tp91
F1
s(g21
S'NDDP'
tp92
F1
s(S'DP'
p93
S'DADVVP'
tp94
F1
s(S'MP'
S'MVPP'
tp95
F4
s(S'AP'
p96
S'AADVADVVP'
tp97
F1
s(S'NP'
S'ANADVVP'
tp98
F1
s(g29
S'PAP'
tp99
F20
s(S'VP'
S'VADVADVAP'
tp100
F1
s(S'PP'
S'ADVPNP'
tp101
F1
s(g38
S'ADVPPVP'
tp102
F1
s(g79
S'ADVADVADVVDP'
tp103
F1
s(g45
S'PPDP'
tp104
F3
s(g32
S'NADVADVADVVVP'
tp105
F1
s(S'PP'
S'APVVP'
tp106
F1
s(S'DP'
S'DDDDNP'
tp107
F1
s(S'MP'
S'MVVDP'
tp108
F1
s(S'AP'
S'AACP'
tp109
F1
s(S'PP'
S'PNP'
tp110
F55
s(S'DP'
S'ADDP'
tp111
F1
s(g4
S'DNNNP'
tp112
F3
s(S'NP'
S'NADVADVADVVP'
tp113
F1
s(S'PP'
S'PADVADVVP'
tp114
F1
s(g93
S'DDP'
tp115
F4
s(g14
S'PADVNNP'
tp116
F1
s(S'PP'
S'PANP'
tp117
F2
s(S'NP'
S'NNNPP'
tp118
F3
s(g89
S'VCCP'
tp119
F2
s(S'CP'
S'CDDDPPP'
tp120
F1
s(S'PP'
S'PVVVP'
tp121
F1
s(S'PP'
S'PMP'
tp122
F2
s(S'PP'
S'PPADVDDP'
tp123
F1
s(S'AP'
S'AVVP'
tp124
F2
s(S'AP'
S'ADVADVAADP'
tp125
F1
s(S'VP'
S'ADVVVANP'
tp126
F1
s(S'CP'
S'CCDP'
tp127
F18
s(S'NP'
S'NAP'
tp128
F14
s(S'PP'
S'PPNNNP'
tp129
F1
s(S'VP'
S'ADVADVVVCP'
tp130
F1
s(S'NP'
p131
S'NMP'
tp132
F16
s(S'VP'
S'VVVVAP'
tp133
F1
s(S'CP'
S'CDDDPP'
tp134
F1
s(S'CP'
S'CDAAPP'
tp135
F1
s(S'NP'
S'NDP'
tp136
F15
s(S'NP'
S'AAANVP'
tp137
F1
s(S'DP'
S'DVP'
tp138
F51
s(g89
S'VVP'
tp139
F7
s(g16
S'DDVP'
tp140
F6
s(g29
S'PDP'
tp141
F52
s(S'DP'
S'DADVNP'
tp142
F1
s(S'AP'
S'AADP'
tp143
F1
s(S'PP'
S'APNP'
tp144
F1
s(S'VP'
S'VCP'
tp145
F21
s(S'NP'
S'NAVP'
tp146
F1
s(S'PP'
S'PCP'
tp147
F3
s(S'VP'
S'ADVVPP'
tp148
F3
s(S'CP'
S'CDPP'
tp149
F100
s(g57
S'ADVNNVP'
tp150
F1
s(S'VP'
p151
S'VMP'
tp152
F1
s(S'AP'
S'ADDDP'
tp153
F1
s(S'VP'
S'VVVVANP'
tp154
F1
s(S'NP'
S'NNDP'
tp155
F1
s(S'DP'
S'DPPPP'
tp156
F1
s(S'DP'
S'DDANP'
tp157
F1
s(g151
S'VPP'
tp158
F29
s(S'NP'
S'NACP'
tp159
F1
s(S'DP'
S'ADVDPPPP'
tp160
F1
s(S'AP'
S'ADVACP'
tp161
F2
s(g53
S'ADVADVVNP'
tp162
F4
s(S'NP'
S'NNNCP'
tp163
F2
s(S'VP'
S'VAANP'
tp164
F1
s(g32
S'NNCP'
tp165
F17
s(S'PP'
S'PADVADVDP'
tp166
F1
s(S'NP'
S'NADVADVVP'
tp167
F2
s(S'NP'
S'NCP'
tp168
F67
s(S'CP'
S'CCDDP'
tp169
F1
s(S'CP'
S'CDDPP'
tp170
F12
s(S'DP'
S'DAAPP'
tp171
F1
s(g29
S'PVVP'
tp172
F2
s(S'DP'
S'DADVPPP'
tp173
F2
s(S'VP'
S'ADVADVADVVPP'
tp174
F1
s(S'PP'
S'PPAP'
tp175
F1
s(S'NP'
S'NNVVP'
tp176
F3
s(S'VP'
S'VVCP'
tp177
F2
s(S'DP'
S'DAP'
tp178
F3
s(g34
S'CADPP'
tp179
F3
s(g53
S'VDP'
tp180
F71
s(S'DP'
S'DVVP'
tp181
F1
s(S'PP'
p182
S'ADVAPDP'
tp183
F1
s(S'VP'
S'VADVAPP'
tp184
F1
s(g81
S'AAAPP'
tp185
F1
s(S'NP'
S'NADVADVMP'
tp186
F1
s(S'NP'
S'ANMP'
tp187
F1
s(S'MP'
S'MNNPP'
tp188
F1
s(g29
S'ADVPPP'
tp189
F1
s(S'NP'
S'NVVVP'
tp190
F2
s(S'VP'
S'VNNP'
tp191
F8
s(S'CP'
S'CADVDPP'
tp192
F4
s(g182
S'APDDP'
tp193
F2
s(S'DP'
S'DDNP'
tp194
F7
s(S'VP'
p195
S'VADVVP'
tp196
F5
s(S'DP'
S'DDNNP'
tp197
F1
s(S'NP'
S'ANCP'
tp198
F10
s(g12
S'APDP'
tp199
F1
s(S'DP'
S'ADVP'
tp200
F1
s(S'DP'
S'DCP'
tp201
F2
s(S'DP'
S'ADVDPP'
tp202
F5
s(S'PP'
S'PPP'
tp203
F7
s(S'DP'
S'ADPP'
tp204
F5
s(S'NP'
S'NNVVVVP'
tp205
F1
s(S'NP'
p206
S'NVVVVP'
tp207
F1
s(S'DP'
S'DDDP'
tp208
F1
s(S'VP'
S'VVANP'
tp209
F1
s(S'NP'
S'ANVVP'
tp210
F1
s(S'PP'
S'ADVPVP'
tp211
F1
s(S'VP'
S'VVDP'
tp212
F6
s(S'NP'
S'NPPP'
tp213
F2
s(S'PP'
S'PADVADVADVNP'
tp214
F1
s(S'AP'
S'ACCP'
tp215
F3
s(S'MP'
S'MADVVNP'
tp216
F1
s(S'PP'
S'PAAP'
tp217
F1
s(S'DP'
S'DNNP'
tp218
F8
s(S'AP'
S'ACP'
tp219
F5
s(S'AP'
S'AADDP'
tp220
F1
s(S'DP'
S'DADVADVAP'
tp221
F1
s(S'CP'
S'CCADVDP'
tp222
F1
s(S'VP'
S'ADVVVPP'
tp223
F1
s(g45
S'PPNP'
tp224
F3
s(g25
S'NNNVP'
tp225
F2
s(S'AP'
S'ADVACCP'
tp226
F2
s(S'VP'
S'VVCCP'
tp227
F1
s(S'DP'
S'DADVVVP'
tp228
F1
s(S'PP'
S'PADVVP'
tp229
F1
s(S'NP'
S'NNCCP'
tp230
F1
s(S'MP'
S'MNVP'
tp231
F4
s(S'PP'
S'ADVPANP'
tp232
F1
s(S'VP'
S'VANP'
tp233
F1
s(S'NP'
S'NNPP'
tp234
F6
s(S'AP'
S'ADP'
tp235
F69
s(S'PP'
S'PADVADVAP'
tp236
F1
s(S'NP'
S'NAPP'
tp237
F3
s(S'PP'
S'APPVP'
tp238
F1
s(g96
S'APP'
tp239
F6
s(S'NP'
S'AANADVVVP'
tp240
F1
s(g195
S'ADVVDP'
tp241
F7
s(g77
S'ADVPPPP'
tp242
F1
s(S'AP'
S'AAP'
tp243
F2
s(g27
S'DADVPP'
tp244
F5
s(S'NP'
S'ANCCP'
tp245
F1
s(S'VP'
S'AVVDDP'
tp246
F1
s(S'DP'
S'DDDVP'
tp247
F1
s(S'AP'
S'ADVAPP'
tp248
F1
s(S'CP'
S'CADVDPPPP'
tp249
F1
s(S'AP'
S'ADVADVANP'
tp250
F1
s(S'DP'
S'DADVAP'
tp251
F3
s(S'VP'
S'AVDP'
tp252
F2
s(S'NP'
S'ANVP'
tp253
F4
s(g206
S'ANAP'
tp254
F1
s(g53
S'VVAP'
tp255
F4
s(S'MP'
S'MVAP'
tp256
F2
s(S'MP'
S'MNADVVP'
tp257
F1
s(g29
S'PVP'
tp258
F36
s(S'MP'
S'MVNP'
tp259
F7
s(S'NP'
S'ADVNPP'
tp260
F1
s(S'AP'
S'AVP'
tp261
F3
s(S'NP'
S'NADVVP'
tp262
F5
s(S'NP'
S'NNADVADVVP'
tp263
F1
s(S'PP'
S'PAVP'
tp264
F1
s(g71
S'ADVVPPP'
tp265
F1
s(S'NP'
S'ADVNMP'
tp266
F2
s(g131
S'NPP'
tp267
F35
s(S'VP'
S'VVVNP'
tp268
F1
s(S'NP'
S'NVP'
tp269
F124
s(S'CP'
S'CDADVPP'
tp270
F3
s(S'VP'
S'VNP'
tp271
F68
s(S'AP'
S'ADVADP'
tp272
F1
s(g61
S'VDDP'
tp273
F5
s(S'VP'
S'VADVAP'
tp274
F7
s(S'DP'
S'DAPP'
tp275
F3
s(S'DP'
S'DDVVVP'
tp276
F1
s(S'NP'
S'NAVVP'
tp277
F1
s(S'DP'
S'DPP'
tp278
F119
s(S'NP'
S'ADVNVP'
tp279
F1
s.