ccollections
defaultdict
p1
(c__builtin__
float
p2
tRp3
(S'DP'
S'DAAAVP'
tp4
F1
s(S'DP'
S'DDPP'
tp5
F9
s(S'DP'
S'DANP'
tp6
F7
s(S'NP'
p7
S'NNADVADVPP'
tp8
F1
s(S'NP'
S'ANPP'
tp9
F7
s(S'VP'
S'VVNP'
tp10
F5
s(S'MP'
S'MVVPP'
tp11
F2
s(S'DP'
S'ADVDPP'
tp12
F4
s(S'PP'
p13
S'PPVP'
tp14
F4
s(S'PP'
S'PPVVVVP'
tp15
F1
s(S'VP'
S'VADVDP'
tp16
F2
s(S'VP'
S'VVVVP'
tp17
F1
s(S'DP'
S'AADNP'
tp18
F1
s(S'VP'
S'VAAP'
tp19
F1
s(S'VP'
S'VADVCP'
tp20
F1
s(S'PP'
S'ADVADVADVADVPPNP'
tp21
F1
s(S'DP'
p22
S'DDPPPPP'
tp23
F1
s(S'NP'
p24
S'NVVP'
tp25
F13
s(S'DP'
p26
S'DNP'
tp27
F53
s(S'AP'
S'AAP'
tp28
F1
s(S'PP'
S'PNNP'
tp29
F6
s(S'AP'
S'ADVADVANP'
tp30
F1
s(S'AP'
S'ADVACP'
tp31
F3
s(S'CP'
S'CDAPP'
tp32
F1
s(S'CP'
S'CDPPP'
tp33
F3
s(S'DP'
S'ADPPP'
tp34
F1
s(S'DP'
S'ADNP'
tp35
F1
s(S'MP'
S'MMVP'
tp36
F1
s(S'DP'
S'DNNNNP'
tp37
F1
s(g13
S'PADP'
tp38
F3
s(S'PP'
S'PCCP'
tp39
F1
s(S'AP'
S'AADP'
tp40
F3
s(S'PP'
S'PDDP'
tp41
F5
s(S'CP'
p42
S'ACDP'
tp43
F1
s(S'VP'
S'VCCP'
tp44
F1
s(S'NP'
S'NNNCP'
tp45
F1
s(S'DP'
p46
S'DAPP'
tp47
F3
s(S'VP'
p48
S'VAP'
tp49
F19
s(S'VP'
S'ADVVNP'
tp50
F3
s(S'VP'
S'VVVVNP'
tp51
F1
s(S'MP'
S'MVDP'
tp52
F3
s(S'VP'
p53
S'VVADVAP'
tp54
F1
s(S'MP'
S'MADVADVVNP'
tp55
F1
s(S'PP'
p56
S'PPPP'
tp57
F1
s(S'VP'
S'VVDDP'
tp58
F1
s(S'VP'
S'ADVADVVDP'
tp59
F2
s(S'AP'
S'ADDP'
tp60
F3
s(S'MP'
S'MVCP'
tp61
F1
s(S'VP'
p62
S'ADVADVVDDP'
tp63
F1
s(S'AP'
S'AVVP'
tp64
F1
s(S'DP'
S'DPPP'
tp65
F5
s(S'DP'
S'ADVDNP'
tp66
F2
s(S'PP'
S'PPPVP'
tp67
F1
s(g48
S'VVPP'
tp68
F14
s(g7
S'NMMP'
tp69
F1
s(S'VP'
S'VVVPP'
tp70
F1
s(S'MP'
S'MVPP'
tp71
F2
s(S'CP'
S'CADVADVDDPP'
tp72
F1
s(S'VP'
p73
S'VVVVDP'
tp74
F1
s(S'PP'
S'PAP'
tp75
F13
s(S'PP'
S'ADVPNP'
tp76
F2
s(S'PP'
S'PPDP'
tp77
F2
s(g7
S'NNPP'
tp78
F4
s(S'NP'
S'ANPPP'
tp79
F1
s(S'PP'
S'PNP'
tp80
F66
s(S'NP'
S'NAPP'
tp81
F2
s(S'MP'
S'MADP'
tp82
F1
s(S'DP'
p83
S'ADDP'
tp84
F1
s(S'VP'
S'VAADP'
tp85
F2
s(S'DP'
p86
S'DNNNP'
tp87
F1
s(S'MP'
S'MVVADVAP'
tp88
F1
s(g46
S'DDP'
tp89
F6
s(S'AP'
S'ADVACCP'
tp90
F1
s(S'PP'
S'PANP'
tp91
F5
s(S'CP'
S'CADVADPPPP'
tp92
F1
s(S'PP'
S'PADVADVVP'
tp93
F1
s(S'PP'
S'PAAP'
tp94
F2
s(S'PP'
S'PMP'
tp95
F1
s(S'NP'
S'NAAP'
tp96
F1
s(S'PP'
S'PADVADVADVVP'
tp97
F1
s(g24
S'NDDP'
tp98
F2
s(S'CP'
S'CCDP'
tp99
F9
s(S'DP'
S'AADCP'
tp100
F1
s(S'NP'
S'NAP'
tp101
F14
s(S'NP'
S'NMP'
tp102
F16
s(S'NP'
S'NVVVP'
tp103
F1
s(S'CP'
S'CDADVADVPP'
tp104
F1
s(S'NP'
S'NDP'
tp105
F13
s(S'PP'
S'PVP'
tp106
F35
s(S'VP'
S'VVP'
tp107
F1
s(S'DP'
S'DDVP'
tp108
F3
s(S'PP'
S'PDP'
tp109
F51
s(S'PP'
S'PADVNP'
tp110
F2
s(S'NP'
S'NNMP'
tp111
F1
s(S'PP'
p112
S'PPP'
tp113
F11
s(S'DP'
S'DADVADVVP'
tp114
F1
s(S'NP'
S'NAVP'
tp115
F2
s(S'PP'
p116
S'ADVPDP'
tp117
F1
s(S'PP'
S'PADVAP'
tp118
F1
s(S'PP'
S'PADVMP'
tp119
F1
s(S'CP'
S'CDPP'
tp120
F81
s(S'DP'
S'ADVDVP'
tp121
F1
s(S'VP'
S'VMP'
tp122
F1
s(S'DP'
S'DPPPP'
tp123
F1
s(S'VP'
S'VPP'
tp124
F25
s(S'AP'
S'ADVAVP'
tp125
F1
s(S'NP'
S'NCCP'
tp126
F4
s(S'CP'
S'ADVCDP'
tp127
F1
s(S'NP'
S'ADVADVNMP'
tp128
F1
s(S'VP'
S'ADVADVVNP'
tp129
F1
s(S'NP'
S'NNVP'
tp130
F5
s(g116
S'PADVDP'
tp131
F2
s(g56
S'AAPDDP'
tp132
F1
s(S'NP'
S'NNCP'
tp133
F5
s(S'NP'
S'NADVADVVP'
tp134
F4
s(S'VP'
S'VCP'
tp135
F15
s(S'CP'
S'CCDDP'
tp136
F1
s(S'CP'
S'CDDPP'
tp137
F5
s(g112
S'PVVP'
tp138
F3
s(S'CP'
S'CADPPP'
tp139
F1
s(S'AP'
S'AACP'
tp140
F3
s(S'VP'
S'AVNP'
tp141
F1
s(S'VP'
p142
S'VPPP'
tp143
F1
s(S'NP'
S'NADVAP'
tp144
F2
s(S'NP'
S'NNVVP'
tp145
F1
s(S'NP'
p146
S'NNNNVP'
tp147
F1
s(S'VP'
S'VVCP'
tp148
F1
s(g83
S'DAP'
tp149
F3
s(S'CP'
S'CADPP'
tp150
F4
s(S'VP'
S'VDP'
tp151
F48
s(g22
S'DVVP'
tp152
F4
s(S'AP'
S'ADVAVVP'
tp153
F1
s(S'VP'
S'VVVP'
tp154
F2
s(g53
S'ADVADVADVVNP'
tp155
F1
s(S'PP'
S'PPAP'
tp156
F1
s(S'CP'
S'CDDPPPPP'
tp157
F1
s(S'AP'
S'ACP'
tp158
F8
s(S'VP'
S'VNNP'
tp159
F3
s(S'CP'
S'CADVDPP'
tp160
F3
s(g142
S'ADVVAP'
tp161
F2
s(S'DP'
S'DDNP'
tp162
F4
s(S'NP'
S'ANCP'
tp163
F7
s(S'PP'
S'APDP'
tp164
F5
s(S'DP'
S'DCP'
tp165
F3
s(S'PP'
S'PPPNP'
tp166
F1
s(S'DP'
S'DVVVP'
tp167
F2
s(S'VP'
S'VADVNNP'
tp168
F1
s(S'PP'
S'PADVADVNP'
tp169
F1
s(S'DP'
S'ADPP'
tp170
F4
s(S'NP'
S'NNVVVVP'
tp171
F1
s(g86
S'DDDP'
tp172
F2
s(S'DP'
S'ADVADPPPP'
tp173
F1
s(S'CP'
S'CDDPPP'
tp174
F1
s(S'VP'
S'VVANP'
tp175
F2
s(S'NP'
S'ANVVP'
tp176
F1
s(g48
S'VVDP'
tp177
F7
s(S'NP'
p178
S'NPPP'
tp179
F3
s(S'AP'
S'ACCP'
tp180
F1
s(S'DP'
S'DAAP'
tp181
F1
s(S'DP'
S'DAVP'
tp182
F1
s(S'DP'
S'DNNP'
tp183
F7
s(S'MP'
S'MVADVAP'
tp184
F1
s(S'NP'
p185
S'NCP'
tp186
F52
s(S'MP'
S'MDNP'
tp187
F1
s(S'PP'
S'PPNP'
tp188
F5
s(S'PP'
S'PPPPVP'
tp189
F1
s(S'CP'
S'CDPPPP'
tp190
F1
s(S'PP'
S'PCP'
tp191
F1
s(S'VP'
S'VDDDP'
tp192
F1
s(S'DP'
S'ADVADVDDPP'
tp193
F1
s(S'AP'
S'ADP'
tp194
F43
s(S'VP'
S'VAPP'
tp195
F1
s(S'AP'
S'APP'
tp196
F4
s(S'VP'
S'ADVVDP'
tp197
F2
s(S'VP'
S'VVVCP'
tp198
F1
s(S'MP'
S'MVDDP'
tp199
F1
s(S'DP'
p200
S'DADVPP'
tp201
F3
s(g178
S'ANCCP'
tp202
F1
s(S'MP'
S'ADVMNP'
tp203
F1
s(S'NP'
S'ADVNNCP'
tp204
F1
s(S'AP'
S'ADVAPP'
tp205
F3
s(S'VP'
S'AAAVDP'
tp206
F1
s(S'PP'
S'ADVADVPNP'
tp207
F2
s(S'VP'
S'AVDP'
tp208
F3
s(S'NP'
S'ANVP'
tp209
F1
s(S'NP'
S'ANAP'
tp210
F1
s(g73
S'VVAP'
tp211
F1
s(g200
S'DVP'
tp212
F35
s(S'MP'
S'MVNP'
tp213
F4
s(g62
S'VADVADVVP'
tp214
F1
s(S'AP'
S'AVP'
tp215
F4
s(S'CP'
S'CDDADVADVADVADVPPP'
tp216
F1
s(S'NP'
S'NADVVP'
tp217
F3
s(S'PP'
S'PAVP'
tp218
F1
s(g26
S'DDPPP'
tp219
F2
s(g185
S'NPP'
tp220
F36
s(S'VP'
S'ADVADVVAP'
tp221
F2
s(S'NP'
S'NVP'
tp222
F74
s(S'NP'
S'NAAPP'
tp223
F1
s(g42
S'CDADVPP'
tp224
F3
s(S'VP'
S'VNP'
tp225
F28
s(S'VP'
S'VANP'
tp226
F3
s(S'VP'
S'VDDP'
tp227
F2
s(S'VP'
S'VADVAP'
tp228
F5
s(S'DP'
S'DDADVADVADVADVPPP'
tp229
F1
s(S'DP'
S'DADVADVPP'
tp230
F1
s(S'DP'
S'DPP'
tp231
F94
s(g146
S'ADVNVP'
tp232
F2
s.