ccollections
defaultdict
p1
(c__builtin__
float
p2
tRp3
(S'NP'
p4
S'AANDDP'
tp5
F2
s(S'NP'
p6
S'NNNVVVP'
tp7
F1
s(S'DP'
p8
S'ADDPP'
tp9
F1
s(S'DP'
S'DDAP'
tp10
F6
s(S'VP'
p11
S'ADVVVNP'
tp12
F5
s(S'VP'
p13
S'VVVVP'
tp14
F1
s(S'AP'
S'AVVVP'
tp15
F3
s(S'PP'
p16
S'ADVADVPAP'
tp17
F2
s(S'PP'
p18
S'PAPP'
tp19
F18
s(S'PP'
S'PADVNP'
tp20
F14
s(S'DP'
p21
S'DNP'
tp22
F249
s(S'MP'
S'MVVAAP'
tp23
F1
s(S'VP'
S'AAAVPP'
tp24
F1
s(S'PP'
p25
S'AAPDDP'
tp26
F2
s(S'CP'
p27
S'CDPPP'
tp28
F52
s(S'DP'
p29
S'ADVDDVP'
tp30
F1
s(S'VP'
p31
S'VADP'
tp32
F15
s(S'DP'
S'DAAP'
tp33
F6
s(S'PP'
p34
S'PPAVP'
tp35
F4
s(S'CP'
S'ADVADVCDDDP'
tp36
F1
s(S'PP'
p37
S'PPPPPP'
tp38
F1
s(S'VP'
S'VAVP'
tp39
F1
s(S'CP'
S'CADVADVDPPP'
tp40
F1
s(S'DP'
S'ADNNP'
tp41
F5
s(S'PP'
p42
S'APVP'
tp43
F15
s(S'MP'
S'MVDP'
tp44
F23
s(S'PP'
p45
S'PADVANP'
tp46
F1
s(S'PP'
p47
S'PPPP'
tp48
F37
s(S'DP'
S'DDDNP'
tp49
F5
s(S'MP'
S'MMADVVP'
tp50
F1
s(S'VP'
p51
S'VACP'
tp52
F3
s(S'PP'
S'PPAAP'
tp53
F4
s(S'DP'
S'DADVVP'
tp54
F6
s(S'VP'
S'VCCP'
tp55
F10
s(S'PP'
p56
S'PADVNNP'
tp57
F1
s(S'AP'
S'AADVPP'
tp58
F1
s(S'NP'
S'NADVACP'
tp59
F3
s(S'NP'
S'NADVVVP'
tp60
F7
s(S'VP'
p61
S'VCP'
tp62
F101
s(S'CP'
S'CAADADVADVPP'
tp63
F1
s(S'VP'
p64
S'ADVVAAP'
tp65
F1
s(S'NP'
p66
S'NNADVAP'
tp67
F1
s(S'VP'
S'VVVVDP'
tp68
F1
s(S'PP'
p69
S'PAP'
tp70
F131
s(S'MP'
S'MMVVP'
tp71
F1
s(S'DP'
S'DDADVADVPP'
tp72
F1
s(S'PP'
S'ADVPPVP'
tp73
F1
s(S'NP'
S'ADVADVADVADVNMP'
tp74
F1
s(S'NP'
S'NNNAP'
tp75
F1
s(S'NP'
S'ANPPP'
tp76
F2
s(S'NP'
p77
S'NNNACP'
tp78
F1
s(S'PP'
S'PPADVDP'
tp79
F3
s(S'VP'
p80
S'VADVANP'
tp81
F2
s(g69
S'PNP'
tp82
F222
s(S'AP'
S'AADVADVDP'
tp83
F1
s(S'CP'
S'CDDDDADVADVPPP'
tp84
F1
s(S'DP'
S'DDP'
tp85
F58
s(S'VP'
S'ADVVDDP'
tp86
F2
s(S'NP'
S'NNNPP'
tp87
F3
s(S'NP'
p88
S'NNDP'
tp89
F12
s(S'PP'
S'PPPDDDDP'
tp90
F1
s(S'MP'
p91
S'MCDP'
tp92
F10
s(S'MP'
S'MNAP'
tp93
F1
s(S'VP'
p94
S'ADVADVVVCP'
tp95
F1
s(S'NP'
p96
S'NMP'
tp97
F64
s(S'NP'
S'ADVNAPP'
tp98
F1
s(g8
S'ADCP'
tp99
F1
s(S'VP'
S'VAAADP'
tp100
F1
s(S'VP'
S'AAVNP'
tp101
F3
s(g69
S'PDP'
tp102
F261
s(S'DP'
S'DDPPPPP'
tp103
F2
s(S'CP'
p104
S'CCADVADVDP'
tp105
F2
s(S'CP'
S'CDADVADVPP'
tp106
F3
s(S'NP'
S'ADVNVVP'
tp107
F2
s(S'VP'
S'VNNNNP'
tp108
F1
s(S'MP'
S'MNNVP'
tp109
F1
s(S'NP'
S'AAANVVP'
tp110
F1
s(S'VP'
S'VVVDDP'
tp111
F1
s(S'DP'
S'ADVDADVAPP'
tp112
F1
s(g104
S'CDADVADVPPP'
tp113
F2
s(S'DP'
S'ADVADVDAPP'
tp114
F2
s(S'NP'
p115
S'ADVADVNADVADVCCP'
tp116
F1
s(S'PP'
p117
S'ADVADVADVPPDP'
tp118
F1
s(S'PP'
p119
S'ADVPAAP'
tp120
F3
s(S'PP'
p121
S'PADVPP'
tp122
F3
s(S'NP'
S'NNADVCP'
tp123
F1
s(S'VP'
S'VVADVNP'
tp124
F1
s(S'PP'
p125
S'PPADVAP'
tp126
F1
s(S'DP'
S'DPPPP'
tp127
F6
s(S'DP'
p128
S'DDANP'
tp129
F3
s(S'PP'
p130
S'PADVADP'
tp131
F2
s(S'NP'
p132
S'NACP'
tp133
F22
s(S'AP'
S'ADVAVP'
tp134
F3
s(S'NP'
p135
S'NCCP'
tp136
F45
s(S'DP'
S'DADVADVVVP'
tp137
F1
s(S'AP'
S'AAAADP'
tp138
F1
s(g96
S'NNCP'
tp139
F41
s(S'DP'
p140
S'ADVDDPP'
tp141
F7
s(g135
S'NADVADVVP'
tp142
F2
s(g140
S'DDAPP'
tp143
F2
s(S'VP'
p144
S'AVNP'
tp145
F9
s(S'NP'
p146
S'NADVADVPP'
tp147
F1
s(S'VP'
p148
S'VVNNNP'
tp149
F1
s(g121
S'ADVPVVP'
tp150
F1
s(S'DP'
p151
S'ADADVNP'
tp152
F1
s(S'MP'
S'MVVNP'
tp153
F2
s(S'PP'
p154
S'ADVAPDP'
tp155
F3
s(g13
S'VVMP'
tp156
F2
s(S'VP'
S'ADVADVADVVNP'
tp157
F2
s(S'DP'
S'ADVADVADVDDPP'
tp158
F2
s(S'MP'
p159
S'MVPPP'
tp160
F2
s(S'PP'
p161
S'ADVAPVP'
tp162
F1
s(S'NP'
S'ANNPP'
tp163
F1
s(S'NP'
S'NCCCCP'
tp164
F1
s(S'CP'
p165
S'CCCDP'
tp166
F3
s(S'VP'
p167
S'ADVVAP'
tp168
F7
s(S'PP'
S'ADVPPNNP'
tp169
F1
s(S'VP'
S'VCCCP'
tp170
F1
s(S'CP'
p171
S'CCCADVADVDDP'
tp172
F1
s(g69
S'APDP'
tp173
F48
s(S'PP'
S'ADVADVAPNP'
tp174
F1
s(S'AP'
p175
S'AADVCP'
tp176
F2
s(S'MP'
S'MADVVVCCP'
tp177
F1
s(S'DP'
p178
S'DDANNP'
tp179
F1
s(S'VP'
S'VVANP'
tp180
F1
s(g161
S'ADVPNNP'
tp181
F2
s(S'VP'
S'ADVVVP'
tp182
F2
s(g91
S'MADVADVADVVVDP'
tp183
F1
s(g66
S'ADVADVNNPP'
tp184
F1
s(S'PP'
p185
S'PCCP'
tp186
F2
s(S'MP'
S'MVADVADP'
tp187
F1
s(S'NP'
S'ADVANCP'
tp188
F1
s(S'DP'
p189
S'DNNP'
tp190
F39
s(S'CP'
S'CADVDDPP'
tp191
F4
s(S'DP'
p192
S'DPPPPP'
tp193
F4
s(S'CP'
S'CDDPPPP'
tp194
F2
s(S'CP'
S'CCADVDP'
tp195
F2
s(g167
S'ADVADVADVVVDP'
tp196
F3
s(S'DP'
p197
S'ADDNP'
tp198
F2
s(S'NP'
S'NNNVP'
tp199
F2
s(S'VP'
S'VADVNNP'
tp200
F4
s(S'PP'
p201
S'ADVAPVVP'
tp202
F1
s(g18
S'PADVVP'
tp203
F8
s(S'DP'
p204
S'DADVADVADVPPP'
tp205
F1
s(S'NP'
S'ANNADVCP'
tp206
F1
s(S'PP'
S'APAP'
tp207
F5
s(S'AP'
S'APP'
tp208
F52
s(S'AP'
p209
S'AAAPPP'
tp210
F1
s(S'CP'
p211
S'CADPPPPP'
tp212
F1
s(S'NP'
p213
S'NADVMP'
tp214
F1
s(S'PP'
p215
S'PPADP'
tp216
F5
s(S'CP'
S'CADVADPP'
tp217
F4
s(g115
S'ADVADVNDP'
tp218
F1
s(S'AP'
S'AAADVDDP'
tp219
F1
s(S'NP'
S'ADVANPP'
tp220
F3
s(S'NP'
p221
S'NAAACP'
tp222
F1
s(g128
S'DAAVP'
tp223
F1
s(S'CP'
S'CDDDDPP'
tp224
F2
s(S'MP'
S'MVVVNP'
tp225
F1
s(S'PP'
S'PAANP'
tp226
F3
s(S'PP'
p227
S'PPADVADVNNP'
tp228
F1
s(S'PP'
p229
S'PPVVP'
tp230
F6
s(S'MP'
S'MVNP'
tp231
F15
s(S'NP'
S'ANAAP'
tp232
F2
s(S'AP'
p233
S'ADVAADP'
tp234
F1
s(S'DP'
p235
S'ADVADNP'
tp236
F3
s(S'PP'
p237
S'PAVP'
tp238
F25
s(g159
S'ADVMVP'
tp239
F1
s(g42
S'ADVADVPPVP'
tp240
F2
s(S'NP'
S'NNACP'
tp241
F3
s(S'VP'
S'VVVPP'
tp242
F4
s(S'MP'
S'MADVVPP'
tp243
F2
s(S'DP'
p244
S'DADP'
tp245
F3
s(S'AP'
S'ADVADP'
tp246
F7
s(S'CP'
p247
S'ADVADVCDP'
tp248
F6
s(S'DP'
S'ADVDDP'
tp249
F1
s(g117
S'APDDP'
tp250
F6
s(S'DP'
S'DDVVVVP'
tp251
F1
s(S'NP'
S'ADVNAP'
tp252
F2
s(S'DP'
S'ADVDVVVP'
tp253
F1
s(S'DP'
S'DDDDADVADVPPP'
tp254
F1
s(g34
S'PPCP'
tp255
F4
s(g61
S'ADVVNP'
tp256
F5
s(S'DP'
S'DAAAP'
tp257
F1
s(S'MP'
S'MNCP'
tp258
F1
s(S'VP'
S'VVNP'
tp259
F36
s(S'PP'
S'ADVPPPP'
tp260
F1
s(g69
S'PPVP'
tp261
F29
s(S'VP'
S'VADVDP'
tp262
F8
s(S'VP'
p263
S'VVADVAP'
tp264
F2
s(g61
S'VAAP'
tp265
F17
s(S'NP'
p266
S'ANDP'
tp267
F14
s(S'NP'
p268
S'NVVP'
tp269
F45
s(S'PP'
S'AAPVP'
tp270
F3
s(S'AP'
p271
S'AAP'
tp272
F6
s(g51
S'VMP'
tp273
F5
s(g88
S'ANNAP'
tp274
F1
s(g77
S'NADVADVADVADVVP'
tp275
F1
s(S'VP'
S'VVNNP'
tp276
F5
s(S'CP'
p277
S'CDAPP'
tp278
F31
s(S'VP'
S'VVAAP'
tp279
F6
s(S'DP'
p280
S'ADVADVP'
tp281
F1
s(S'DP'
p282
S'ADNP'
tp283
F22
s(g221
S'AANPP'
tp284
F5
s(S'PP'
S'PPPPAP'
tp285
F1
s(S'PP'
S'PADP'
tp286
F40
s(S'VP'
p287
S'ADVVVCP'
tp288
F4
s(S'NP'
S'NADVADVADVVVP'
tp289
F2
s(S'NP'
p290
S'ANDDP'
tp291
F5
s(S'DP'
S'ADVADVDVP'
tp292
F2
s(g29
S'DADVAP'
tp293
F1
s(S'DP'
S'ADVDAANP'
tp294
F1
s(S'MP'
S'MMMAP'
tp295
F1
s(g192
S'DAPP'
tp296
F58
s(S'VP'
S'AVVP'
tp297
F2
s(S'VP'
S'VVVVPP'
tp298
F2
s(S'VP'
p299
S'ADVADVVPP'
tp300
F3
s(S'MP'
S'MADVADVVNP'
tp301
F1
s(g94
S'ADVADVADVVDP'
tp302
F1
s(S'VP'
S'ADVADVVDP'
tp303
F2
s(S'PP'
S'PPPDP'
tp304
F1
s(S'PP'
p305
S'AAAPDP'
tp306
F1
s(S'AP'
S'AAPPP'
tp307
F2
s(S'DP'
S'DADVANP'
tp308
F3
s(S'NP'
S'ANADVVVP'
tp309
F1
s(S'VP'
S'VAAPP'
tp310
F3
s(S'DP'
S'ADVDNP'
tp311
F10
s(S'PP'
S'ADVADVPAAP'
tp312
F1
s(g80
S'VVPP'
tp313
F25
s(S'DP'
p314
S'ADADVPP'
tp315
F2
s(S'MP'
S'MVPP'
tp316
F16
s(S'DP'
p317
S'ADVP'
tp318
F24
s(S'MP'
S'MVADP'
tp319
F1
s(S'CP'
S'CDDPPP'
tp320
F8
s(S'MP'
S'ADVMVVP'
tp321
F2
s(S'PP'
p322
S'AAPMP'
tp323
F1
s(S'NP'
S'AANCCP'
tp324
F1
s(S'DP'
S'DDDDNP'
tp325
F1
s(S'MP'
S'MVVDP'
tp326
F3
s(S'DP'
S'DADVPPP'
tp327
F1
s(S'NP'
p328
S'ANVP'
tp329
F14
s(S'DP'
S'DNNNP'
tp330
F2
s(S'MP'
S'MAAVNP'
tp331
F1
s(S'VP'
S'VADVADVPPP'
tp332
F1
s(S'PP'
S'PADVADVVP'
tp333
F1
s(S'VP'
S'ADVVCP'
tp334
F4
s(g119
S'PVVVP'
tp335
F2
s(S'PP'
p336
S'PMP'
tp337
F36
s(S'PP'
S'PADVADVADVVP'
tp338
F1
s(S'CP'
S'CCDP'
tp339
F65
s(g8
S'AADCP'
tp340
F1
s(S'DP'
S'ADVADVADVDPP'
tp341
F1
s(S'MP'
p342
S'AMVP'
tp343
F3
s(S'PP'
S'PPNNNP'
tp344
F1
s(S'CP'
S'AACADVDDP'
tp345
F1
s(S'NP'
p346
S'NVVVP'
tp347
F6
s(S'CP'
S'CDDDPP'
tp348
F5
s(S'PP'
S'PADVADVADVADVNP'
tp349
F1
s(S'CP'
S'CDAAPP'
tp350
F9
s(S'VP'
p351
S'VVVDP'
tp352
F7
s(S'PP'
S'PDDDDP'
tp353
F2
s(S'PP'
S'PNNNP'
tp354
F6
s(S'CP'
S'CCCCDP'
tp355
F2
s(S'VP'
S'VADVADVADVDDP'
tp356
F1
s(S'AP'
p357
S'AACCP'
tp358
F2
s(S'PP'
S'AAPNP'
tp359
F6
s(S'VP'
S'ADVVVDP'
tp360
F2
s(g18
S'PPP'
tp361
F122
s(S'NP'
S'NAVP'
tp362
F9
s(g140
S'DDADVDDP'
tp363
F1
s(S'DP'
S'ADVADVDDNP'
tp364
F2
s(S'DP'
S'DDNNNP'
tp365
F2
s(S'MP'
S'AMDP'
tp366
F1
s(S'PP'
S'PADDP'
tp367
F2
s(g4
S'ANADVCCP'
tp368
F1
s(S'DP'
S'ADVDVP'
tp369
F6
s(S'NP'
S'NCCCP'
tp370
F4
s(S'DP'
p371
S'DADVADVPPP'
tp372
F2
s(g357
S'AADVVP'
tp373
F2
s(S'PP'
p374
S'PPPPDP'
tp375
F3
s(S'MP'
S'MVVVVDP'
tp376
F1
s(S'MP'
S'MADVADVVPP'
tp377
F2
s(g8
S'ADVADVDNP'
tp378
F3
s(S'VP'
p379
S'VPP'
tp380
F160
s(S'CP'
S'ADVCCDP'
tp381
F3
s(S'DP'
p382
S'ADVDDNP'
tp383
F2
s(S'NP'
p384
S'NNNCP'
tp385
F3
s(g215
S'PADVDP'
tp386
F14
s(g247
S'CDADVAPP'
tp387
F3
s(S'MP'
p388
S'MADVVAP'
tp389
F4
s(S'PP'
S'PADVAAP'
tp390
F1
s(S'CP'
S'CDDPP'
tp391
F61
s(S'DP'
p392
S'DAAPP'
tp393
F14
s(g374
S'PVVP'
tp394
F29
s(S'CP'
S'CADPPP'
tp395
F8
s(S'AP'
S'AACP'
tp396
F19
s(S'PP'
p397
S'PMMP'
tp398
F3
s(g37
S'ADVPPAP'
tp399
F1
s(S'VP'
S'VPPP'
tp400
F17
s(S'VP'
p401
S'AVCCP'
tp402
F2
s(S'VP'
p403
S'VVPPP'
tp404
F5
s(S'NP'
S'NMMP'
tp405
F3
s(S'VP'
S'ADVVVCCP'
tp406
F1
s(g88
S'ADVNAMP'
tp407
F1
s(S'PP'
S'PPAP'
tp408
F7
s(g317
S'DVVP'
tp409
F34
s(S'PP'
S'PADVAVP'
tp410
F1
s(S'PP'
S'PPADVADVADVVP'
tp411
F1
s(S'CP'
p412
S'CADVADVDAPP'
tp413
F2
s(S'NP'
p414
S'ANMP'
tp415
F3
s(S'CP'
S'ADVADVADVCCADP'
tp416
F1
s(S'AP'
S'APPP'
tp417
F10
s(S'PP'
S'ADVPPP'
tp418
F1
s(S'NP'
p419
S'ADVADVNVP'
tp420
F1
s(g51
S'VVVP'
tp421
F3
s(g384
S'ADVNNCCP'
tp422
F1
s(S'CP'
S'CADVDPP'
tp423
F21
s(S'PP'
S'ADVAPVVVP'
tp424
F1
s(g42
S'ADVPAPP'
tp425
F1
s(g209
S'ACCCCP'
tp426
F1
s(S'DP'
S'ADVDNNNP'
tp427
F1
s(g268
S'ANCP'
tp428
F41
s(S'DP'
p429
S'DCP'
tp430
F11
s(S'DP'
S'DVVVP'
tp431
F7
s(S'VP'
S'ADVVCCP'
tp432
F1
s(S'DP'
p433
S'DDDP'
tp434
F10
s(S'DP'
S'DDADVPP'
tp435
F3
s(S'MP'
S'MAADP'
tp436
F1
s(S'NP'
S'ANVVP'
tp437
F4
s(S'VP'
p438
S'VVDP'
tp439
F47
s(g268
S'NPPP'
tp440
F25
s(S'AP'
S'AAADP'
tp441
F2
s(S'DP'
p442
S'DAVP'
tp443
F24
s(S'NP'
p444
S'NNNMP'
tp445
F1
s(S'AP'
p446
S'ACP'
tp447
F71
s(S'PP'
S'AAPAP'
tp448
F1
s(g305
S'PAAAPP'
tp449
F1
s(S'PP'
p450
S'PPNP'
tp451
F51
s(S'PP'
S'APPPP'
tp452
F1
s(S'NP'
p453
S'NAADP'
tp454
F1
s(g204
S'ADVDAPP'
tp455
F1
s(S'DP'
p456
S'AADVP'
tp457
F1
s(S'VP'
p458
S'VVVANP'
tp459
F1
s(S'CP'
S'CDDADVPP'
tp460
F3
s(g412
S'ADVCADVADVDDP'
tp461
F1
s(g446
S'ADP'
tp462
F149
s(S'CP'
S'CCCDDDP'
tp463
F1
s(g185
S'APMP'
tp464
F4
s(S'DP'
S'DDAVP'
tp465
F1
s(S'VP'
S'VADVADVADVNP'
tp466
F1
s(g392
S'DVVVVP'
tp467
F1
s(S'DP'
S'DADVADP'
tp468
F1
s(S'VP'
S'ADVADVVNNP'
tp469
F1
s(g167
S'AVDP'
tp470
F25
s(S'NP'
S'NNNNVVVP'
tp471
F1
s(g31
S'VVAP'
tp472
F9
s(g88
S'NNAPP'
tp473
F3
s(S'CP'
S'ADVACDP'
tp474
F3
s(S'PP'
S'PPADVVP'
tp475
F1
s(g148
S'AAVNNP'
tp476
F1
s(S'NP'
p477
S'NPP'
tp478
F222
s(S'NP'
S'NNNP'
tp479
F1
s(g135
S'NVP'
tp480
F186
s(S'PP'
p481
S'AAPPNP'
tp482
F1
s(S'NP'
S'NAAPP'
tp483
F5
s(g322
S'PPPPVP'
tp484
F3
s(S'VP'
S'VDDP'
tp485
F33
s(g132
S'ADVNVP'
tp486
F4
s(S'AP'
S'AAADVDP'
tp487
F2
s(S'MP'
p488
S'MADVAVDP'
tp489
F1
s(g314
S'DADVAPP'
tp490
F5
s(S'DP'
p491
S'DAAAVP'
tp492
F1
s(S'NP'
S'NADVADVVVP'
tp493
F3
s(g266
S'ANPP'
tp494
F63
s(g47
S'ADVPPDP'
tp495
F2
s(S'PP'
S'PPPPP'
tp496
F2
s(S'MP'
S'MPDP'
tp497
F3
s(S'PP'
S'ADVADVPDP'
tp498
F1
s(S'MP'
S'MDVVP'
tp499
F1
s(g388
S'MVVPP'
tp500
F4
s(S'DP'
S'ADVDPP'
tp501
F32
s(S'NP'
S'NNMMMP'
tp502
F1
s(g280
S'DDDDDP'
tp503
F1
s(S'NP'
p504
S'NPPPP'
tp505
F3
s(S'DP'
p506
S'ADDP'
tp507
F5
s(S'CP'
S'CAADPP'
tp508
F1
s(S'PP'
S'PADVADVADVADVVP'
tp509
F1
s(S'DP'
S'DADVADVVP'
tp510
F1
s(S'NP'
S'NAACP'
tp511
F4
s(g18
S'PNNP'
tp512
F61
s(S'VP'
S'VVVVVVP'
tp513
F1
s(S'PP'
S'APNNP'
tp514
F1
s(S'NP'
p515
S'ADVNDP'
tp516
F1
s(g481
S'ADVPADVVP'
tp517
F1
s(S'VP'
p518
S'AVAP'
tp519
F2
s(S'MP'
S'MMVP'
tp520
F3
s(g504
S'ADVNCP'
tp521
F10
s(S'AP'
S'AADP'
tp522
F40
s(S'MP'
S'MPDDP'
tp523
F1
s(S'CP'
S'ACDP'
tp524
F28
s(S'PP'
p525
S'PAAP'
tp526
F25
s(g16
S'PAAAVP'
tp527
F1
s(S'VP'
S'ADVVVAAP'
tp528
F1
s(S'CP'
S'CDADVPPP'
tp529
F1
s(g31
S'VAP'
tp530
F95
s(S'VP'
S'VVVVNP'
tp531
F2
s(S'DP'
S'DDDPP'
tp532
F9
s(S'NP'
S'NADVADVADVCCP'
tp533
F1
s(S'PP'
p534
S'PAAPP'
tp535
F2
s(S'MP'
S'MAVPP'
tp536
F1
s(g51
S'ADVAVDP'
tp537
F2
s(S'DP'
S'DADVDP'
tp538
F6
s(S'AP'
S'AAACP'
tp539
F3
s(S'AP'
S'AVVP'
tp540
F8
s(S'PP'
S'PPPVP'
tp541
F3
s(S'AP'
S'AADDP'
tp542
F6
s(S'DP'
S'DADVAAP'
tp543
F1
s(S'VP'
p544
S'VAANP'
tp545
F2
s(S'NP'
S'NADVADVCP'
tp546
F4
s(g235
S'DAAAAPP'
tp547
F1
s(S'VP'
S'ADVADVADVADVVDP'
tp548
F2
s(S'NP'
S'NVVVVP'
tp549
F5
s(g488
S'MVVVCP'
tp550
F1
s(S'MP'
S'MPNP'
tp551
F1
s(S'MP'
S'MADP'
tp552
F4
s(S'NP'
S'NNNDDP'
tp553
F1
s(S'AP'
S'AAACCP'
tp554
F1
s(g374
S'PANP'
tp555
F42
s(g456
S'AADNP'
tp556
F3
s(S'DP'
S'DADVADVNNP'
tp557
F1
s(S'MP'
S'MVVPPP'
tp558
F1
s(g119
S'AAPAAP'
tp559
F2
s(S'AP'
S'AAVP'
tp560
F8
s(S'NP'
S'NAAP'
tp561
F6
s(g263
S'VADVADVAP'
tp562
F2
s(g453
S'NDDP'
tp563
F12
s(S'NP'
S'NADVCCP'
tp564
F1
s(S'DP'
S'ADVADVDPPP'
tp565
F1
s(S'AP'
S'ACCP'
tp566
F4
s(S'DP'
S'ADAAP'
tp567
F1
s(S'VP'
S'AVPPP'
tp568
F1
s(g477
S'NDP'
tp569
F119
s(S'MP'
S'MVAAP'
tp570
F1
s(g314
S'DDVP'
tp571
F29
s(g266
S'AANVP'
tp572
F9
s(S'DP'
S'DADVADVAPP'
tp573
F1
s(S'DP'
S'ADDVP'
tp574
F1
s(g351
S'VNNNP'
tp575
F5
s(S'VP'
S'ADVADVADVVVCP'
tp576
F1
s(S'VP'
p577
S'VADVADVPP'
tp578
F1
s(g525
S'ADVPAP'
tp579
F5
s(S'PP'
S'APADVDP'
tp580
F1
s(g56
S'PCP'
tp581
F8
s(S'NP'
p582
S'NNPPP'
tp583
F2
s(S'PP'
S'PAADP'
tp584
F5
s(g213
S'ADVNNVP'
tp585
F3
s(S'PP'
S'PADVVVP'
tp586
F1
s(S'VP'
S'VPPPP'
tp587
F4
s(S'VP'
S'ADVAVCP'
tp588
F1
s(g161
S'PACP'
tp589
F1
s(g233
S'AADVAP'
tp590
F1
s(S'NP'
S'NNNDP'
tp591
F1
s(S'AP'
S'ADVACP'
tp592
F4
s(S'PP'
S'AAPNNP'
tp593
F1
s(S'DP'
p594
S'DDADVVP'
tp595
F1
s(S'VP'
S'ADVADVAVDP'
tp596
F1
s(g290
S'NNVP'
tp597
F45
s(g342
S'MVCP'
tp598
F10
s(g171
S'CCDDP'
tp599
F10
s(g429
S'DADVADVADVVVP'
tp600
F1
s(S'DP'
S'AAADNP'
tp601
F1
s(g403
S'VAMP'
tp602
F1
s(g414
S'NNVVP'
tp603
F8
s(S'PP'
p604
S'PPADVCP'
tp605
F1
s(S'VP'
p606
S'VVCP'
tp607
F17
s(S'NP'
S'AANCP'
tp608
F5
s(g351
S'VADVNP'
tp609
F5
s(S'AP'
S'ADVAVVP'
tp610
F1
s(S'PP'
p611
S'APPP'
tp612
F13
s(S'VP'
p613
S'ADVVPP'
tp614
F6
s(S'CP'
S'CADVADVADVDDPP'
tp615
F1
s(g613
S'VNNP'
tp616
F32
s(S'AP'
p617
S'AADVDP'
tp618
F2
s(g346
S'NADP'
tp619
F8
s(g442
S'DDNP'
tp620
F45
s(S'NP'
S'NADVCP'
tp621
F9
s(g151
S'DDNNP'
tp622
F3
s(S'PP'
S'AAPPP'
tp623
F1
s(S'VP'
S'VVVVPPP'
tp624
F1
s(g504
S'ADVANVP'
tp625
F2
s(g146
S'ADVNAAP'
tp626
F1
s(S'AP'
S'AADVADP'
tp627
F1
s(g277
S'ADVADVCCDDP'
tp628
F1
s(S'NP'
S'ADVADVNCP'
tp629
F1
s(S'AP'
S'ADVADDP'
tp630
F1
s(S'DP'
S'AADPP'
tp631
F1
s(S'VP'
S'ADVVADVDP'
tp632
F1
s(S'NP'
S'NNNNPP'
tp633
F1
s(S'VP'
S'VVVVCP'
tp634
F2
s(S'MP'
S'MAVAP'
tp635
F1
s(S'AP'
S'AADVADVVP'
tp636
F1
s(S'CP'
S'CDPPPPP'
tp637
F2
s(g328
S'ANVVVP'
tp638
F1
s(g582
S'NADVADVCCP'
tp639
F1
s(S'DP'
p640
S'ADVVP'
tp641
F2
s(S'CP'
S'CDDADVPPP'
tp642
F2
s(g211
S'ACDDP'
tp643
F4
s(g384
S'ADVADVNNCP'
tp644
F1
s(g617
S'AAPP'
tp645
F9
s(g351
S'VVCCP'
tp646
F5
s(S'DP'
S'DMMP'
tp647
F1
s(g282
S'DADVVVP'
tp648
F3
s(S'DP'
S'DAAAPP'
tp649
F1
s(S'PP'
p650
S'ADVPANP'
tp651
F1
s(g458
S'VADVADP'
tp652
F1
s(S'VP'
S'ADVADVVADVDP'
tp653
F1
s(S'AP'
S'ADVANNP'
tp654
F2
s(g213
S'NAPP'
tp655
F26
s(g209
S'ADVADVADP'
tp656
F1
s(g64
S'ADVADVADVVVVP'
tp657
F1
s(S'VP'
S'VVVCP'
tp658
F8
s(g185
S'APDDDP'
tp659
F3
s(S'CP'
S'ADVADVCADP'
tp660
F1
s(g201
S'PADVAPP'
tp661
F1
s(g582
S'ANCCP'
tp662
F6
s(S'NP'
S'ADVADVADVNVP'
tp663
F1
s(g132
S'NNMP'
tp664
F10
s(S'DP'
p665
S'DDDVP'
tp666
F2
s(S'VP'
S'AAVPP'
tp667
F1
s(S'CP'
S'CADDPP'
tp668
F1
s(g25
S'PAAAP'
tp669
F2
s(g336
S'ADVADVPNP'
tp670
F5
s(S'PP'
S'PPPAP'
tp671
F1
s(g491
S'ADVDDAP'
tp672
F1
s(g477
S'ANAP'
tp673
F5
s(g388
S'MVAP'
tp674
F11
s(S'VP'
S'VADVADVDDP'
tp675
F2
s(g18
S'PVP'
tp676
F186
s(S'NP'
S'ADVANNVVP'
tp677
F1
s(S'DP'
S'DADVAVP'
tp678
F1
s(S'PP'
S'PPADVVVP'
tp679
F1
s(S'VP'
S'VADVCCP'
tp680
F1
s(S'AP'
p681
S'ADVAACP'
tp682
F2
s(S'NP'
S'ANNCP'
tp683
F2
s(S'PP'
S'PADVAP'
tp684
F5
s(S'DP'
S'ADVADVADVDNP'
tp685
F1
s(g125
S'PADVADVADVADVMP'
tp686
F1
s(S'PP'
S'PPDDP'
tp687
F2
s(S'VP'
S'AVCP'
tp688
F7
s(S'DP'
S'DDVVVP'
tp689
F2
s(g21
S'DPP'
tp690
F271
s(S'CP'
S'CADVADVDDPP'
tp691
F2
s(g665
S'DDPP'
tp692
F95
s(S'DP'
S'DDADVPPP'
tp693
F2
s(g21
S'DANP'
tp694
F78
s(S'NP'
S'NADVPP'
tp695
F5
s(S'PP'
S'ADVADVPPNP'
tp696
F2
s(S'NP'
S'ADVNVVVP'
tp697
F1
s(S'NP'
S'NAAVP'
tp698
F2
s(g229
S'APADVDDP'
tp699
F1
s(S'PP'
S'PDDDP'
tp700
F4
s(S'CP'
S'CADVADVADVDPP'
tp701
F1
s(S'VP'
S'VADVCP'
tp702
F3
s(g37
S'PPPVVP'
tp703
F1
s(S'PP'
S'PMMMP'
tp704
F1
s(S'NP'
S'AANNADVVVP'
tp705
F1
s(S'MP'
S'MDNP'
tp706
F1
s(S'DP'
S'DADVADVAVP'
tp707
F1
s(S'MP'
S'ADVADVADVADVMVP'
tp708
F1
s(g314
S'DCCP'
tp709
F2
s(g244
S'AADDP'
tp710
F3
s(S'PP'
S'AAPDP'
tp711
F6
s(g594
S'ADVADPP'
tp712
F5
s(S'DP'
S'DDADVNNP'
tp713
F2
s(S'VP'
S'VVVAP'
tp714
F1
s(g161
S'PDDP'
tp715
F53
s(S'MP'
S'MVDDP'
tp716
F1
s(S'PP'
S'ADVAPNP'
tp717
F2
s(S'NP'
S'NNNADVPP'
tp718
F1
s(g192
S'ADPPP'
tp719
F8
s(S'PP'
S'PADVADVADVDP'
tp720
F1
s(g154
S'PPPMP'
tp721
F1
s(g397
S'APAAP'
tp722
F2
s(S'NP'
S'NNP'
tp723
F1
s(S'VP'
S'VVDDP'
tp724
F4
s(g192
S'DAANP'
tp725
F13
s(g271
S'ADDP'
tp726
F11
s(g604
S'APPAP'
tp727
F2
s(g544
S'ADVVVAP'
tp728
F1
s(S'PP'
S'ADVPPNP'
tp729
F1
s(S'DP'
S'ADPPPPP'
tp730
F1
s(g21
S'DPPP'
tp731
F85
s(S'PP'
S'APPADVMP'
tp732
F1
s(S'NP'
S'ADVNAAVP'
tp733
F1
s(g640
S'AADPPP'
tp734
F3
s(S'CP'
S'ADVADVADVCCDP'
tp735
F1
s(S'VP'
S'VANNP'
tp736
F1
s(S'DP'
S'DDADVADVNP'
tp737
F1
s(g161
S'ADVPNP'
tp738
F11
s(g18
S'PPDP'
tp739
F31
s(S'MP'
S'MAVDP'
tp740
F1
s(S'PP'
S'AAAPPPPPP'
tp741
F1
s(S'DP'
S'DDPPPP'
tp742
F3
s(S'MP'
S'AMADVVP'
tp743
F1
s(S'CP'
S'CAADADVPP'
tp744
F1
s(S'MP'
S'MVVAP'
tp745
F1
s(S'DP'
S'DDCP'
tp746
F2
s(S'PP'
S'PAANNP'
tp747
F1
s(S'PP'
S'PPADVDDP'
tp748
F2
s(S'MP'
S'MADVADP'
tp749
F1
s(S'MP'
S'MMAVP'
tp750
F1
s(S'AP'
S'ADVADVAADVVVP'
tp751
F1
s(g419
S'NAP'
tp752
F41
s(g401
S'VAAAP'
tp753
F2
s(g577
S'ADVVVADVAP'
tp754
F1
s(S'VP'
S'ADVAVNP'
tp755
F1
s(g351
S'VVP'
tp756
F25
s(g382
S'DADVNP'
tp757
F6
s(S'PP'
S'ADVADVPVP'
tp758
F2
s(S'MP'
S'MAPP'
tp759
F1
s(g374
S'APNP'
tp760
F33
s(S'VP'
S'VVVNNP'
tp761
F1
s(S'AP'
S'ADVADVAAP'
tp762
F1
s(g314
S'DDVVP'
tp763
F6
s(S'CP'
S'CADVADVDPP'
tp764
F4
s(g299
S'VVVNP'
tp765
F10
s(g11
S'AVPPPP'
tp766
F1
s(S'NP'
S'NNADVPP'
tp767
F1
s(S'PP'
S'PPADVADVADVCCP'
tp768
F1
s(S'MP'
S'MVANP'
tp769
F1
s(S'MP'
S'MAADVVP'
tp770
F1
s(g433
S'ADVADVDDPP'
tp771
F5
s(S'MP'
S'MVNNP'
tp772
F1
s(g27
S'CDPP'
tp773
F248
s(S'AP'
S'ADDDP'
tp774
F1
s(S'MP'
S'MVADVPP'
tp775
F1
s(S'CP'
S'ADVCADP'
tp776
F2
s(S'VP'
S'VVAANP'
tp777
F1
s(S'MP'
S'MMMVP'
tp778
F1
s(g130
S'AAAAPPPP'
tp779
F1
s(S'CP'
S'ADVCDP'
tp780
F14
s(S'AP'
S'ADVAAP'
tp781
F3
s(S'VP'
S'ADVADVVNP'
tp782
F2
s(g305
S'PADVADVDP'
tp783
F2
s(S'VP'
S'VADVADVDP'
tp784
F4
s(g237
S'PPNNP'
tp785
F6
s(g121
S'ADVPAVP'
tp786
F1
s(S'PP'
S'PPMP'
tp787
F1
s(S'PP'
S'PADVADVADVVVP'
tp788
F1
s(g371
S'ADVADVDPP'
tp789
F7
s(g379
S'VDP'
tp790
F204
s(g45
S'PPPADVNP'
tp791
F1
s(S'VP'
S'AVDDP'
tp792
F8
s(g189
S'DAP'
tp793
F46
s(g27
S'CADPP'
tp794
F47
s(S'NP'
S'NADVAVP'
tp795
F1
s(S'PP'
S'PADVMP'
tp796
F2
s(S'MP'
S'MADVADVVDP'
tp797
F1
s(g450
S'PPDDDP'
tp798
F1
s(g167
S'AVPP'
tp799
F15
s(S'CP'
S'CAADPPP'
tp800
F3
s(S'DP'
S'AAADADVVVP'
tp801
F1
s(S'DP'
S'DDNNNNP'
tp802
F1
s(S'MP'
S'MPAANP'
tp803
F1
s(g148
S'VVADVDP'
tp804
F2
s(S'CP'
S'CDDPPPPP'
tp805
F1
s(S'CP'
S'CDPPPP'
tp806
F3
s(S'DP'
S'ADVDAAPP'
tp807
F1
s(g229
S'PANNP'
tp808
F3
s(g197
S'AADADVADVPP'
tp809
F2
s(g414
S'ADVANMP'
tp810
F2
s(S'AP'
S'AAAPP'
tp811
F3
s(S'DP'
S'DAPPP'
tp812
F3
s(S'DP'
S'DADVADVPP'
tp813
F6
s(S'DP'
p814
S'DMP'
tp815
F6
s(S'CP'
S'CCADP'
tp816
F5
s(S'PP'
S'PPPNP'
tp817
F8
s(S'PP'
S'PPAANP'
tp818
F1
s(g611
S'PADVADVNP'
tp819
F4
s(g650
S'PPPPNP'
tp820
F1
s(g21
S'ADPP'
tp821
F68
s(S'PP'
S'PADVADVPPP'
tp822
F1
s(S'MP'
S'MNADVAVP'
tp823
F1
s(S'NP'
S'NNADVVVP'
tp824
F2
s(S'NP'
S'NADVANP'
tp825
F1
s(g438
S'VADVPP'
tp826
F4
s(S'DP'
S'ADVDANP'
tp827
F2
s(g322
S'ADVPVP'
tp828
F8
s(S'DP'
S'DDDDPP'
tp829
F2
s(S'NP'
S'NNVVVP'
tp830
F2
s(g148
S'VVADVADVCP'
tp831
F3
s(S'MP'
S'MPPANP'
tp832
F1
s(S'PP'
S'PAMP'
tp833
F3
s(S'PP'
S'ADVPDP'
tp834
F5
s(g287
S'ADVVADP'
tp835
F2
s(g221
S'ADVNNPP'
tp836
F2
s(g37
S'PPDDDDP'
tp837
F1
s(S'MP'
S'MVADVAP'
tp838
F2
s(g477
S'NCP'
tp839
F222
s(S'DP'
S'DDADVADVCP'
tp840
F1
s(S'VP'
S'ADVADVVVPP'
tp841
F2
s(g144
S'ADVVVPP'
tp842
F4
s(g227
S'PPADVNNP'
tp843
F1
s(g681
S'AAAP'
tp844
F2
s(S'VP'
S'VAADP'
tp845
F3
s(S'AP'
S'AAMP'
tp846
F1
s(g37
S'ADVPDDP'
tp847
F1
s(S'DP'
S'AADADVPP'
tp848
F1
s(g146
S'ANADVADVADVVP'
tp849
F1
s(S'MP'
S'MVCCP'
tp850
F1
s(S'DP'
S'DADVNNP'
tp851
F2
s(S'NP'
S'NNCCP'
tp852
F5
s(S'MP'
S'MNVP'
tp853
F1
s(g515
S'NNNADVDP'
tp854
F1
s(S'CP'
S'ADVADVCCDP'
tp855
F1
s(g96
S'NNPP'
tp856
F24
s(g481
S'PADVADVAP'
tp857
F1
s(g379
S'VAPP'
tp858
F21
s(S'MP'
S'MAVNP'
tp859
F1
s(g31
S'ADVVDP'
tp860
F7
s(g577
S'VADDP'
tp861
F1
s(S'PP'
S'APADVNP'
tp862
F1
s(g506
S'DADVPP'
tp863
F21
s(g271
S'AMP'
tp864
F2
s(S'MP'
S'ADVMNP'
tp865
F1
s(S'NP'
S'ADVNNCP'
tp866
F4
s(g178
S'ADVDAP'
tp867
F1
s(g268
S'NNNPPP'
tp868
F2
s(g175
S'ADVAPP'
tp869
F3
s(S'DP'
S'DDADVAPP'
tp870
F1
s(S'DP'
S'ADVDAVP'
tp871
F2
s(S'CP'
S'AACDP'
tp872
F4
s(S'CP'
S'CCDDDP'
tp873
F1
s(g21
S'DVP'
tp874
F177
s(S'VP'
S'AAAVADVDDP'
tp875
F1
s(g268
S'ADVNPP'
tp876
F5
s(S'CP'
S'AAACDP'
tp877
F1
s(S'PP'
S'PADVADVDDP'
tp878
F1
s(S'AP'
S'AVP'
tp879
F32
s(S'NP'
p880
S'NADVVP'
tp881
F10
s(S'PP'
S'ADVPVVVP'
tp882
F1
s(g518
S'VVADVPPP'
tp883
F1
s(S'DP'
S'DADVANNP'
tp884
F1
s(S'DP'
S'DDPPP'
tp885
F13
s(g444
S'ADVNMP'
tp886
F2
s(g880
S'NNAP'
tp887
F7
s(g6
S'ADVADVNMP'
tp888
F1
s(g185
S'PPANP'
tp889
F6
s(g165
S'CDADVPP'
tp890
F10
s(S'VP'
S'VNP'
tp891
F148
s(g606
S'VANP'
tp892
F13
s(S'VP'
S'VADVAP'
tp893
F9
s(g814
S'DDDANP'
tp894
F1
s(S'PP'
S'PPADVNP'
tp895
F2
s(g534
S'AAPVVVP'
tp896
F1
s(S'DP'
S'DDDDVP'
tp897
F2
s(S'VP'
S'ADVADVVVDP'
tp898
F2
s(g328
S'NADVPPP'
tp899
F3
s.