ccollections
defaultdict
p1
(c__builtin__
float
p2
tRp3
(S'VP'
S'VVAAAP'
tp4
F1
s(S'AP'
S'AADVPPP'
tp5
F1
s(S'DP'
S'ADDPP'
tp6
F1
s(S'NP'
S'ADVNNMP'
tp7
F1
s(S'DP'
S'DDAP'
tp8
F3
s(S'VP'
S'ADVVVNP'
tp9
F2
s(S'AP'
p10
S'AADDDP'
tp11
F2
s(S'CP'
p12
S'CCDDDDP'
tp13
F2
s(S'VP'
S'VVVVP'
tp14
F1
s(S'AP'
S'AVVVP'
tp15
F3
s(S'VP'
S'VVADVVP'
tp16
F3
s(S'PP'
S'PAPP'
tp17
F16
s(S'PP'
S'PADVNP'
tp18
F15
s(S'DP'
p19
S'DNP'
tp20
F884
s(S'NP'
p21
S'ANCCCP'
tp22
F2
s(S'VP'
S'VVADVCP'
tp23
F1
s(S'CP'
S'CDPPP'
tp24
F70
s(S'VP'
S'VADP'
tp25
F28
s(S'VP'
S'ADVADVVAP'
tp26
F1
s(S'DP'
S'DAAP'
tp27
F6
s(S'PP'
S'PPPPPP'
tp28
F2
s(S'VP'
S'ADVADVADVVVPP'
tp29
F3
s(S'DP'
S'ADNNP'
tp30
F3
s(S'VP'
S'ADVVNP'
tp31
F34
s(S'MP'
p32
S'MVDP'
tp33
F23
s(S'PP'
p34
S'PADVANP'
tp35
F2
s(S'PP'
p36
S'PPPP'
tp37
F37
s(S'AP'
S'ADVAPPP'
tp38
F1
s(S'DP'
p39
S'DDDNP'
tp40
F15
s(S'VP'
p41
S'VACP'
tp42
F9
s(S'PP'
S'PPAAP'
tp43
F2
s(S'AP'
S'ADVADDP'
tp44
F1
s(S'DP'
S'DADVVP'
tp45
F14
s(S'PP'
S'PADVNNP'
tp46
F3
s(S'PP'
p47
S'PAADVAPPP'
tp48
F1
s(S'DP'
S'ADVADVDDPPP'
tp49
F2
s(S'NP'
S'NADVVVP'
tp50
F16
s(S'CP'
S'CADVDAPP'
tp51
F1
s(S'VP'
p52
S'VCP'
tp53
F180
s(S'MP'
S'MVVANP'
tp54
F1
s(S'NP'
S'NMMP'
tp55
F3
s(S'VP'
S'ADVVAAP'
tp56
F1
s(S'DP'
S'AAADADVADVPPP'
tp57
F1
s(S'DP'
S'ADVDDDPP'
tp58
F1
s(S'VP'
S'ADVVCCP'
tp59
F2
s(S'PP'
S'ADVPADP'
tp60
F1
s(S'PP'
S'PAP'
tp61
F149
s(S'PP'
S'PPANNP'
tp62
F1
s(S'MP'
S'MMVVP'
tp63
F1
s(S'CP'
S'CDADVADVADVPP'
tp64
F1
s(S'NP'
S'ANNCCP'
tp65
F1
s(S'PP'
S'ADVPPVP'
tp66
F1
s(S'NP'
S'ANPPP'
tp67
F1
s(S'PP'
p68
S'PPADVDP'
tp69
F1
s(S'PP'
p70
S'ADVADVADVPPVP'
tp71
F1
s(S'CP'
S'CADPPPP'
tp72
F1
s(S'PP'
p73
S'PNP'
tp74
F552
s(S'VP'
S'VVADVADVNP'
tp75
F1
s(S'VP'
S'ADVADVADVADVVCCP'
tp76
F1
s(S'MP'
S'MADVADVADVVPPP'
tp77
F1
s(S'DP'
p78
S'DDP'
tp79
F84
s(S'NP'
S'NNDDDP'
tp80
F1
s(S'VP'
S'ADVVDDP'
tp81
F3
s(S'NP'
S'NNNPP'
tp82
F5
s(S'VP'
p83
S'VCCP'
tp84
F30
s(S'MP'
p85
S'MCDP'
tp86
F2
s(S'NP'
S'ANADVAP'
tp87
F1
s(S'NP'
S'ANNVVVVP'
tp88
F1
s(S'AP'
S'AANP'
tp89
F1
s(S'AP'
S'ADVADVAVVP'
tp90
F1
s(S'VP'
p91
S'ADVADVVVCP'
tp92
F1
s(S'NP'
p93
S'NMP'
tp94
F124
s(S'PP'
p95
S'PDP'
tp96
F797
s(S'CP'
S'CCADVADVDP'
tp97
F2
s(S'CP'
S'CDAAPP'
tp98
F1
s(S'NP'
p99
S'ADVNVVP'
tp100
F1
s(S'VP'
S'VNNNNP'
tp101
F1
s(S'VP'
S'VVVDDP'
tp102
F1
s(S'CP'
S'CDADVADVPPP'
tp103
F1
s(S'VP'
S'AVAAP'
tp104
F1
s(S'PP'
S'ADVADVADVPPDP'
tp105
F1
s(S'AP'
S'ANP'
tp106
F1
s(S'NP'
S'NADVADVADVVP'
tp107
F5
s(S'PP'
S'PADVPP'
tp108
F5
s(S'VP'
S'VVADVNP'
tp109
F4
s(S'NP'
S'ANVVVVP'
tp110
F2
s(S'DP'
S'DPPPP'
tp111
F23
s(S'DP'
S'DDANP'
tp112
F2
s(S'NP'
S'NACP'
tp113
F17
s(S'AP'
S'ADVAVP'
tp114
F3
s(g93
S'NCCP'
tp115
F137
s(S'MP'
S'MVVADVNP'
tp116
F1
s(S'DP'
S'DADVADVVVP'
tp117
F1
s(S'VP'
S'VVCCCP'
tp118
F2
s(S'NP'
S'NADVADVDDP'
tp119
F1
s(S'VP'
S'VVVVVP'
tp120
F1
s(S'NP'
S'NNCP'
tp121
F70
s(S'DP'
S'ADVDDPP'
tp122
F11
s(g93
S'NADVADVVP'
tp123
F12
s(S'VP'
S'AVNP'
tp124
F6
s(S'MP'
S'MVVVNNP'
tp125
F2
s(S'PP'
S'ADVPVVP'
tp126
F1
s(g41
S'ADVADVVVADVAP'
tp127
F1
s(S'PP'
S'AAPNP'
tp128
F1
s(S'VP'
p129
S'VADVVP'
tp130
F16
s(S'DP'
S'ADVADVADVDVVP'
tp131
F1
s(S'VP'
S'ADVADVADVVNP'
tp132
F2
s(S'MP'
S'MVAPP'
tp133
F1
s(S'NP'
S'ADVADVNADVCCCP'
tp134
F1
s(S'NP'
S'ANADVVP'
tp135
F3
s(S'DP'
S'DADVAP'
tp136
F2
s(S'DP'
S'DADVPPP'
tp137
F6
s(S'CP'
p138
S'CCCDP'
tp139
F16
s(S'VP'
S'AVNNP'
tp140
F1
s(S'VP'
S'VCCCP'
tp141
F4
s(S'CP'
S'CCCADVADVDDP'
tp142
F1
s(S'PP'
p143
S'APDP'
tp144
F51
s(S'PP'
S'PPPPDDDP'
tp145
F1
s(S'VP'
S'ADVVNNP'
tp146
F2
s(S'AP'
S'AADVCP'
tp147
F5
s(S'AP'
S'AVVVVP'
tp148
F1
s(S'MP'
S'MADVVVCCP'
tp149
F1
s(S'VP'
S'VVANP'
tp150
F6
s(S'VP'
S'VVVVDP'
tp151
F7
s(S'VP'
S'ADVVVP'
tp152
F2
s(S'PP'
S'ADVADVADVPDP'
tp153
F1
s(g47
S'AADVAPPVVP'
tp154
F1
s(S'DP'
S'DADVADVADVPP'
tp155
F1
s(S'PP'
S'PPADVADVAP'
tp156
F1
s(S'MP'
S'MADVVNP'
tp157
F6
s(S'NP'
p158
S'NANP'
tp159
F1
s(g78
S'DNNP'
tp160
F98
s(S'CP'
S'CADVDDPP'
tp161
F8
s(g39
S'DPPPPP'
tp162
F4
s(S'CP'
S'CDDPPPP'
tp163
F3
s(S'CP'
S'CCADVDP'
tp164
F8
s(S'VP'
S'VVNNNP'
tp165
F1
s(S'VP'
S'VVACP'
tp166
F1
s(S'NP'
S'NNNVP'
tp167
F8
s(S'VP'
S'VADVNNP'
tp168
F2
s(S'PP'
p169
S'PADVVP'
tp170
F11
s(S'PP'
S'AAPAAAAAP'
tp171
F1
s(S'DP'
S'DADVADVADVPPP'
tp172
F1
s(S'PP'
S'APAP'
tp173
F3
s(S'AP'
p174
S'APP'
tp175
F81
s(S'AP'
S'ACCCP'
tp176
F1
s(S'CP'
S'CADPPPPP'
tp177
F1
s(g93
S'NADVMP'
tp178
F2
s(S'AP'
S'AAP'
tp179
F5
s(S'VP'
S'VADVADVVP'
tp180
F3
s(S'NP'
S'ADVADVNDP'
tp181
F2
s(S'MP'
S'MNAAP'
tp182
F1
s(S'NP'
S'ADVANPP'
tp183
F5
s(S'VP'
S'VVVVPP'
tp184
F8
s(S'VP'
p185
S'VADVADVNP'
tp186
F1
s(S'CP'
S'CDDDDPP'
tp187
F4
s(S'PP'
S'PAANP'
tp188
F5
s(S'VP'
p189
S'VVVANP'
tp190
F1
s(S'NP'
S'ANVP'
tp191
F29
s(S'MP'
S'MVNP'
tp192
F35
s(S'MP'
S'AMVP'
tp193
F1
s(S'MP'
S'MNDP'
tp194
F1
s(S'DP'
S'ADVADVDDP'
tp195
F1
s(S'NP'
p196
S'ANAAP'
tp197
F1
s(S'AP'
p198
S'ADVAADP'
tp199
F1
s(S'CP'
S'CADVADVDDPP'
tp200
F2
s(S'PP'
S'PAVP'
tp201
F28
s(S'MP'
p202
S'ADVMVP'
tp203
F3
s(S'PP'
p204
S'ADVADVPPVP'
tp205
F2
s(S'VP'
S'VVVPP'
tp206
F17
s(S'NP'
S'NNADP'
tp207
F1
s(S'PP'
p208
S'PCCP'
tp209
F4
s(S'AP'
S'ADVACCP'
tp210
F3
s(S'DP'
p211
S'DADP'
tp212
F6
s(S'AP'
S'ADVADP'
tp213
F5
s(S'CP'
S'ADVADVCDP'
tp214
F3
s(S'DP'
p215
S'ADVDDP'
tp216
F1
s(S'PP'
p217
S'APDDP'
tp218
F11
s(S'CP'
S'CADVADADVPP'
tp219
F1
s(S'PP'
S'PPCP'
tp220
F1
s(S'NP'
S'AANADVVVP'
tp221
F2
s(g143
S'APVP'
tp222
F23
s(S'CP'
S'CADVADPPP'
tp223
F1
s(S'VP'
p224
S'VVNP'
tp225
F75
s(S'PP'
p226
S'PPVP'
tp227
F55
s(S'NP'
S'ADVNAAPP'
tp228
F1
s(S'VP'
S'VADVDP'
tp229
F4
s(S'MP'
S'MVVVPP'
tp230
F1
s(S'VP'
S'VVADVAP'
tp231
F2
s(S'VP'
S'VAAP'
tp232
F20
s(S'NP'
S'ANDP'
tp233
F11
s(S'NP'
p234
S'NVVP'
tp235
F205
s(S'PP'
S'AAPVP'
tp236
F1
s(S'PP'
S'PPADP'
tp237
F2
s(S'VP'
S'VMP'
tp238
F7
s(S'NP'
S'NADVADVADVADVVP'
tp239
F1
s(S'VP'
S'VVNNP'
tp240
F7
s(S'CP'
S'CDAPP'
tp241
F44
s(S'VP'
S'VVAAP'
tp242
F2
s(S'DP'
S'ADVADVDDVP'
tp243
F1
s(S'VP'
S'ADVADVVVNNP'
tp244
F1
s(S'DP'
S'ADNP'
tp245
F28
s(S'NP'
S'AANPP'
tp246
F5
s(S'AP'
S'AAAAADP'
tp247
F1
s(S'PP'
S'PPPPAP'
tp248
F1
s(S'PP'
S'PADP'
tp249
F29
s(S'NP'
S'NADVADVADVPPP'
tp250
F1
s(S'VP'
S'ADVVVCP'
tp251
F4
s(S'NP'
S'NADVADVADVVVP'
tp252
F6
s(S'NP'
S'ANDDP'
tp253
F3
s(S'DP'
S'ADVADVDVP'
tp254
F1
s(S'MP'
S'MDANP'
tp255
F1
s(S'PP'
p256
S'ADVADVPMP'
tp257
F2
s(S'DP'
S'DAPP'
tp258
F74
s(S'MP'
S'MVVVAAP'
tp259
F1
s(S'MP'
S'MVVCP'
tp260
F2
s(S'VP'
S'ADVADVVPP'
tp261
F12
s(S'VP'
p262
S'ADVADVADVVDP'
tp263
F2
s(g224
S'ADVADVVDP'
tp264
F15
s(S'AP'
S'ADVAVVVVP'
tp265
F2
s(g68
S'PPPDP'
tp266
F6
s(S'AP'
S'AAPPP'
tp267
F2
s(S'DP'
S'DAAANP'
tp268
F1
s(S'DP'
S'DADVANP'
tp269
F2
s(S'NP'
S'ANADVVVP'
tp270
F3
s(g185
S'VAAPP'
tp271
F2
s(S'DP'
S'ADANNP'
tp272
F1
s(S'DP'
S'ADVADVADVDAPP'
tp273
F1
s(S'VP'
p274
S'VVPP'
tp275
F99
s(S'CP'
S'CCADDP'
tp276
F1
s(g202
S'MVPP'
tp277
F24
s(S'AP'
S'AADVADVVP'
tp278
F1
s(S'CP'
S'CDDPPP'
tp279
F13
s(S'NP'
p280
S'NNPP'
tp281
F33
s(S'NP'
S'ADVADVADVNCCP'
tp282
F1
s(S'DP'
S'DDDDNP'
tp283
F2
s(S'MP'
S'MVVDP'
tp284
F2
s(S'AP'
p285
S'AACP'
tp286
F22
s(S'PP'
p287
S'PPVVP'
tp288
F9
s(S'MP'
S'MADVADVVANNP'
tp289
F1
s(S'DP'
S'DDADVADVADVADVVP'
tp290
F2
s(S'DP'
S'DADVADVADVADVPP'
tp291
F1
s(S'VP'
S'VVADVCCP'
tp292
F1
s(S'DP'
p293
S'DNNNP'
tp294
F11
s(S'DP'
S'ADVDDVP'
tp295
F2
s(S'CP'
S'CAADADVADVPPP'
tp296
F1
s(S'PP'
S'PADVADVVP'
tp297
F3
s(S'VP'
S'ADVVCP'
tp298
F14
s(S'PP'
S'PVVVP'
tp299
F5
s(g217
S'PMP'
tp300
F33
s(S'NP'
p301
S'NNMMP'
tp302
F1
s(S'CP'
S'CCDP'
tp303
F221
s(S'NP'
p304
S'ADVNNDP'
tp305
F1
s(S'DP'
p306
S'ADVADVADVDPP'
tp307
F2
s(S'VP'
S'VADVANP'
tp308
F2
s(S'NP'
S'NADVADVADVAP'
tp309
F1
s(g93
S'NVVVP'
tp310
F45
s(S'CP'
S'CDDDPP'
tp311
F9
s(S'DP'
S'AADADVADVPPP'
tp312
F1
s(S'CP'
S'CDADVADVPP'
tp313
F5
s(S'VP'
S'VVVDP'
tp314
F21
s(S'PP'
S'PDDDDP'
tp315
F1
s(S'PP'
S'PNNNP'
tp316
F9
s(S'CP'
S'CCCCDP'
tp317
F1
s(S'AP'
S'AACCP'
tp318
F3
s(S'VP'
S'VVMP'
tp319
F3
s(g36
S'PADVVVP'
tp320
F3
s(S'PP'
p321
S'PPP'
tp322
F193
s(S'NP'
S'NAVP'
tp323
F16
s(S'PP'
S'PADVAP'
tp324
F5
s(S'DP'
S'DDNNNP'
tp325
F3
s(S'NP'
p326
S'NDDDP'
tp327
F1
s(S'DP'
S'ADVDVP'
tp328
F13
s(S'PP'
S'PPADVADVNP'
tp329
F1
s(S'NP'
S'NAAAP'
tp330
F1
s(S'NP'
S'NCCCP'
tp331
F7
s(S'DP'
S'DADVADVPPP'
tp332
F1
s(S'CP'
S'CCADVADVADVDP'
tp333
F1
s(S'PP'
S'PPPPDP'
tp334
F1
s(S'MP'
S'MADVADVVPP'
tp335
F8
s(S'DP'
S'ADVADVDNP'
tp336
F2
s(S'VP'
S'VAAAAP'
tp337
F1
s(g274
S'VPP'
tp338
F418
s(S'CP'
S'ADVCCDP'
tp339
F3
s(S'PP'
p340
S'ADVPMMP'
tp341
F1
s(S'MP'
S'ADVADVMVP'
tp342
F3
s(S'DP'
S'ADVDDNP'
tp343
F3
s(g280
S'NNNCP'
tp344
F7
s(S'PP'
p345
S'PADVDP'
tp346
F14
s(S'CP'
S'CDDDPPP'
tp347
F1
s(S'DP'
S'DANNP'
tp348
F2
s(S'MP'
S'MADVVAP'
tp349
F1
s(g287
S'PADVAAP'
tp350
F1
s(S'CP'
S'CDDPP'
tp351
F67
s(S'DP'
S'DAAPP'
tp352
F3
s(g73
S'PVVP'
tp353
F55
s(S'CP'
S'CADPPP'
tp354
F7
s(S'VP'
p355
S'VVVPPP'
tp356
F2
s(S'NP'
S'NADVMMP'
tp357
F1
s(S'VP'
S'VADVADVADVADVNP'
tp358
F1
s(S'PP'
S'PMMP'
tp359
F2
s(S'VP'
p360
S'VPPP'
tp361
F27
s(S'VP'
S'ADVADVVVCCP'
tp362
F1
s(S'VP'
S'AVCCP'
tp363
F1
s(S'PP'
p364
S'PPADVADVDP'
tp365
F1
s(S'DP'
S'ADVADVDDNP'
tp366
F1
s(g355
S'VVPPP'
tp367
F6
s(S'VP'
S'ADVADVADVVPPP'
tp368
F1
s(S'NP'
S'NNNNCP'
tp369
F2
s(S'VP'
p370
S'ADVVVCCP'
tp371
F5
s(S'PP'
S'PPAP'
tp372
F9
s(S'DP'
S'DVVP'
tp373
F52
s(S'MP'
S'MADVADVVCCP'
tp374
F1
s(S'VP'
S'VVVADVAP'
tp375
F1
s(g158
S'ANMP'
tp376
F7
s(S'AP'
S'APPP'
tp377
F5
s(S'PP'
S'ADVPPP'
tp378
F3
s(S'DP'
p379
S'ADVADPPP'
tp380
F1
s(S'NP'
S'ADVADVNVP'
tp381
F5
s(S'VP'
S'VVVP'
tp382
F7
s(S'CP'
S'CADVDPP'
tp383
F29
s(S'PP'
S'PADVADVMP'
tp384
F2
s(S'VP'
S'ADVADVVCCP'
tp385
F2
s(S'NP'
p386
S'ANCP'
tp387
F52
s(S'DP'
p388
S'DCP'
tp389
F16
s(S'NP'
S'ANNCP'
tp390
F2
s(S'DP'
S'DNNNNP'
tp391
F2
s(g215
S'DDDNNP'
tp392
F2
s(S'VP'
S'ADVVVVP'
tp393
F1
s(S'NP'
S'NNVVVVP'
tp394
F4
s(g306
S'DDDP'
tp395
F14
s(S'DP'
S'DDADVPP'
tp396
F8
s(S'MP'
S'MVVVVNP'
tp397
F2
s(S'NP'
S'ANNVVP'
tp398
F1
s(g196
S'ANVVP'
tp399
F10
s(S'NP'
S'NVVVVP'
tp400
F9
s(S'NP'
p401
S'NPPP'
tp402
F35
s(S'DP'
S'ADDDP'
tp403
F1
s(S'VP'
S'ADVADVADVADVVVP'
tp404
F1
s(S'DP'
S'DAVP'
tp405
F18
s(S'VP'
S'ADVADVADVADVVNP'
tp406
F1
s(S'NP'
S'NNNMP'
tp407
F2
s(S'AP'
S'ACP'
tp408
F98
s(g364
S'PADVADVNNP'
tp409
F2
s(S'PP'
p410
S'PPNP'
tp411
F69
s(S'MP'
S'MADVADVADVADVVCCP'
tp412
F1
s(S'MP'
S'MADVVPP'
tp413
F4
s(S'DP'
S'ADVDAPP'
tp414
F1
s(S'VP'
S'VAANNP'
tp415
F1
s(S'PP'
S'ADVADVADVADVPVP'
tp416
F1
s(S'CP'
S'CDDADVPP'
tp417
F4
s(S'CP'
S'CCCDDP'
tp418
F1
s(g285
S'ADP'
tp419
F310
s(S'PP'
S'APMP'
tp420
F1
s(S'DP'
S'DDAVP'
tp421
F1
s(S'PP'
S'APVVP'
tp422
F3
s(S'NP'
S'ADVANCCP'
tp423
F1
s(S'NP'
S'ADVADVNNVP'
tp424
F1
s(S'DP'
S'DVVVVP'
tp425
F5
s(g21
S'NADVADVAP'
tp426
F2
s(S'VP'
S'ADVADVVNNP'
tp427
F1
s(S'VP'
S'AVDP'
tp428
F26
s(S'NP'
S'ANNVP'
tp429
F2
s(S'VP'
S'VVAP'
tp430
F43
s(S'NP'
S'NNAPP'
tp431
F1
s(S'MP'
S'MNADVVP'
tp432
F4
s(S'PP'
S'PADVADVDP'
tp433
F3
s(g340
S'PPADVVP'
tp434
F3
s(S'MP'
S'MPNP'
tp435
F2
s(S'NP'
p436
S'NPP'
tp437
F558
s(S'DP'
S'ADVADVADVDDPP'
tp438
F1
s(g234
S'NVP'
tp439
F719
s(S'PP'
S'PPVVVP'
tp440
F1
s(S'PP'
S'PAAVP'
tp441
F1
s(S'NP'
S'NAAPP'
tp442
F1
s(S'DP'
S'ADPPPP'
tp443
F1
s(g85
S'ADVMMVP'
tp444
F1
s(S'VP'
S'VDDP'
tp445
F51
s(S'AP'
S'ADVADVADVADP'
tp446
F1
s(S'MP'
S'MMADVADVVVP'
tp447
F1
s(S'NP'
S'AANVVP'
tp448
F4
s(S'NP'
S'NADVADVVVP'
tp449
F3
s(S'NP'
p450
S'ANPP'
tp451
F65
s(S'PP'
S'ADVPPDP'
tp452
F3
s(S'PP'
S'PPPPP'
tp453
F9
s(S'PP'
S'ADVADVPDP'
tp454
F1
s(S'MP'
S'MVVPP'
tp455
F1
s(S'PP'
S'PPPNP'
tp456
F13
s(S'CP'
S'CDADVADVADVADVPP'
tp457
F1
s(g410
S'PPVVVVP'
tp458
F1
s(S'AP'
S'ADVADVAVP'
tp459
F1
s(S'DP'
p460
S'ADDP'
tp461
F2
s(S'NP'
S'NNDDDDP'
tp462
F1
s(g304
S'NNCCCCP'
tp463
F1
s(S'VP'
S'VVVMP'
tp464
F1
s(S'DP'
S'ADVADNP'
tp465
F1
s(S'CP'
S'CAADPP'
tp466
F2
s(S'DP'
S'DADVADVVP'
tp467
F4
s(S'NP'
S'NAACP'
tp468
F1
s(S'PP'
S'PNNP'
tp469
F72
s(S'VP'
S'VADVACP'
tp470
F1
s(S'CP'
S'CDADVADVADVPPP'
tp471
F1
s(S'PP'
S'APNNP'
tp472
F5
s(S'DP'
S'DDAAP'
tp473
F1
s(S'VP'
S'AVAP'
tp474
F3
s(S'MP'
S'MMVP'
tp475
F6
s(S'PP'
S'PADVDDP'
tp476
F5
s(S'NP'
S'ADVADVNDDP'
tp477
F1
s(g301
S'ADVNCP'
tp478
F10
s(g211
S'ADPP'
tp479
F64
s(S'PP'
S'PPPPVVVP'
tp480
F1
s(S'AP'
S'AADVADVADVVP'
tp481
F2
s(S'VP'
S'VAPPP'
tp482
F1
s(S'CP'
S'ACDP'
tp483
F25
s(g321
S'PAAP'
tp484
F13
s(S'NP'
S'ANADVADVVVP'
tp485
F1
s(S'AP'
S'ADVANP'
tp486
F1
s(g70
S'PADVADVADVPPP'
tp487
F1
s(S'CP'
S'CDADVPPP'
tp488
F5
s(g224
S'VAP'
tp489
F223
s(g360
S'VVVVNP'
tp490
F8
s(S'MP'
S'MNVVP'
tp491
F2
s(S'DP'
S'DDDPP'
tp492
F21
s(S'CP'
S'ADVCDDP'
tp493
F4
s(S'NP'
S'AANNCP'
tp494
F1
s(S'PP'
S'ADVPMP'
tp495
F1
s(S'AP'
S'AAVVP'
tp496
F1
s(S'MP'
S'MAVPP'
tp497
F1
s(S'VP'
S'ADVADVVVAP'
tp498
F1
s(g293
S'DDDPPP'
tp499
F4
s(S'MP'
S'MVVCCP'
tp500
F1
s(S'DP'
S'ADADVVP'
tp501
F1
s(S'VP'
S'ADVVVDP'
tp502
F7
s(S'PP'
S'PPPVP'
tp503
F7
s(S'AP'
S'AADDP'
tp504
F7
s(S'MP'
S'MAADP'
tp505
F1
s(S'MP'
S'MADVVANNP'
tp506
F1
s(g189
S'VAANP'
tp507
F2
s(S'NP'
S'NADVADVCP'
tp508
F2
s(S'PP'
S'ADVPADVDDDP'
tp509
F1
s(S'PP'
S'ADVPNNP'
tp510
F1
s(S'VP'
S'ADVADVADVADVVDP'
tp511
F2
s(S'DP'
S'ADVADVADVDVP'
tp512
F1
s(g52
S'VVDP'
tp513
F102
s(g204
S'PADVADVPPP'
tp514
F1
s(S'MP'
S'MADP'
tp515
F8
s(S'VP'
S'ADVADVADVVAP'
tp516
F1
s(S'DP'
S'DDADVNP'
tp517
F3
s(g287
S'PANP'
tp518
F28
s(S'DP'
S'AADNP'
tp519
F1
s(S'NP'
S'ANNMP'
tp520
F1
s(S'NP'
p521
S'AANMP'
tp522
F1
s(S'AP'
S'AAVP'
tp523
F8
s(S'AP'
S'AVVP'
tp524
F21
s(S'VP'
p525
S'VADVADVAP'
tp526
F6
s(S'NP'
p527
S'NDDP'
tp528
F22
s(S'MP'
S'MADVADVVVPP'
tp529
F2
s(S'AP'
S'ACCP'
tp530
F33
s(S'VP'
S'VVVVAP'
tp531
F2
s(S'VP'
S'AVPPP'
tp532
F2
s(S'NP'
S'NDP'
tp533
F182
s(S'PP'
S'PADVADVADVNP'
tp534
F1
s(S'NP'
S'AAANVP'
tp535
F1
s(S'DP'
S'DDVP'
tp536
F56
s(S'DP'
S'ADADVPPP'
tp537
F1
s(S'NP'
S'AANVP'
tp538
F4
s(S'VP'
S'VNNNP'
tp539
F2
s(S'VP'
S'ADVADVADVVVCP'
tp540
F2
s(S'PP'
S'ADVPAP'
tp541
F5
s(g169
S'PPPPVVP'
tp542
F1
s(S'NP'
S'NNNNVVP'
tp543
F1
s(S'PP'
S'APADVDP'
tp544
F1
s(S'PP'
S'PCP'
tp545
F9
s(S'NP'
S'NNPPP'
tp546
F3
s(S'NP'
S'NADVADVADVADVCP'
tp547
F1
s(S'PP'
S'PAADP'
tp548
F1
s(S'NP'
S'ADVNNVP'
tp549
F2
s(S'MP'
S'MDNP'
tp550
F4
s(S'VP'
S'VPPPP'
tp551
F1
s(g32
S'MAVNNP'
tp552
F1
s(S'NP'
S'NNNDP'
tp553
F2
s(S'AP'
S'ADVACP'
tp554
F10
s(S'NP'
S'AANVVVP'
tp555
F3
s(S'NP'
S'ADVADVNMP'
tp556
F1
s(S'VP'
S'VVVAP'
tp557
F2
s(S'DP'
S'ADPPP'
tp558
F13
s(S'MP'
S'MVCP'
tp559
F7
s(S'CP'
S'CCDDP'
tp560
F24
s(S'NP'
S'NNADVVP'
tp561
F10
s(S'MP'
S'MADVADVADVADVVVDP'
tp562
F1
s(S'PP'
S'PPADVADVVP'
tp563
F1
s(S'NP'
p564
S'NAAP'
tp565
F14
s(S'MP'
S'MADVADVADVVVPP'
tp566
F1
s(S'NP'
S'NNVVP'
tp567
F20
s(S'NP'
S'NNNNVP'
tp568
F3
s(g129
S'VVCP'
tp569
F63
s(S'PP'
S'PADVADVPP'
tp570
F1
s(S'DP'
S'ADVDMP'
tp571
F1
s(g521
S'AANCP'
tp572
F2
s(S'VP'
S'VADVNP'
tp573
F5
s(S'VP'
S'VVDDDP'
tp574
F3
s(g174
S'ADVAVVP'
tp575
F4
s(S'NP'
S'NNDDP'
tp576
F3
s(S'DP'
S'DDDDPPP'
tp577
F1
s(S'VP'
S'ADVVPP'
tp578
F28
s(S'VP'
S'VVADVANP'
tp579
F1
s(S'CP'
S'CADVADVADVDDPP'
tp580
F1
s(S'VP'
S'VNNP'
tp581
F39
s(g198
S'AADVDP'
tp582
F4
s(g450
S'NADP'
tp583
F6
s(S'DP'
S'DDNP'
tp584
F75
s(S'NP'
p585
S'NADVCP'
tp586
F11
s(S'DP'
S'DDNNP'
tp587
F9
s(S'PP'
S'AAPPP'
tp588
F1
s(S'VP'
S'VPPPPP'
tp589
F2
s(S'PP'
S'PADVADVVVP'
tp590
F2
s(S'NP'
S'ADVANVP'
tp591
F3
s(S'NP'
S'ADVNAAP'
tp592
F1
s(g401
S'ADVADVNCP'
tp593
F3
s(S'CP'
S'ACADVDDP'
tp594
F1
s(S'DP'
S'AADPP'
tp595
F3
s(S'VP'
S'VVVAAP'
tp596
F1
s(S'PP'
S'APPNP'
tp597
F1
s(S'MP'
S'MVVP'
tp598
F4
s(S'VP'
S'VVVVCP'
tp599
F1
s(S'NP'
S'ADVADVADVADVNDP'
tp600
F1
s(S'PP'
S'AAPDP'
tp601
F2
s(g527
S'ANVVVP'
tp602
F2
s(S'VP'
S'ADVADVADVVDDP'
tp603
F1
s(S'MP'
S'MVVNP'
tp604
F10
s(S'CP'
S'ACDDP'
tp605
F3
s(S'CP'
S'ADVCCCDP'
tp606
F1
s(S'DP'
S'DDDDDPP'
tp607
F1
s(S'AP'
S'AAPP'
tp608
F6
s(g370
S'VVCCP'
tp609
F14
s(S'DP'
S'DMMP'
tp610
F1
s(S'PP'
S'PADVMP'
tp611
F1
s(S'DP'
S'DADVADVNP'
tp612
F4
s(S'VP'
S'VVVCCP'
tp613
F2
s(S'NP'
S'NAPP'
tp614
F21
s(S'AP'
S'ADVADVADP'
tp615
F1
s(S'NP'
S'NADVDP'
tp616
F2
s(S'VP'
S'VVVCP'
tp617
F9
s(S'MP'
S'MVVADVVP'
tp618
F1
s(S'DP'
S'DADVADVADVVP'
tp619
F1
s(S'NP'
S'ANCCP'
tp620
F15
s(S'NP'
p621
S'ADVNCCP'
tp622
F1
s(g525
S'VDDDP'
tp623
F5
s(S'NP'
S'NNMP'
tp624
F7
s(S'DP'
S'DDDVP'
tp625
F11
s(S'PP'
S'PAAAP'
tp626
F4
s(S'PP'
S'ADVADVPNP'
tp627
F1
s(S'PP'
S'PPPAP'
tp628
F2
s(S'CP'
S'CADVADVDDPPP'
tp629
F1
s(g388
S'ADVDADP'
tp630
F1
s(S'NP'
S'ANAP'
tp631
F4
s(S'MP'
S'MVAP'
tp632
F10
s(g95
S'PVP'
tp633
F482
s(S'VP'
S'VADVPPP'
tp634
F1
s(S'AP'
S'ADVADVAPP'
tp635
F3
s(S'CP'
S'ACDDDP'
tp636
F2
s(S'AP'
S'AADVVP'
tp637
F1
s(S'DP'
p638
S'DVVVP'
tp639
F6
s(S'NP'
S'ADVADVADVNVP'
tp640
F1
s(g256
S'PPDDP'
tp641
F6
s(S'VP'
S'AVCP'
tp642
F5
s(S'DP'
S'DDVVVP'
tp643
F2
s(g19
S'DPP'
tp644
F854
s(g585
S'ADVNVP'
tp645
F10
s(S'DP'
p646
S'DDDVVP'
tp647
F1
s(g306
S'DDPP'
tp648
F136
s(S'DP'
p649
S'DANP'
tp650
F137
s(S'NP'
S'NADVPP'
tp651
F5
s(S'PP'
S'ADVADVPPNP'
tp652
F2
s(g34
S'PDDDP'
tp653
F13
s(S'CP'
S'CADVADVADVDPP'
tp654
F2
s(S'VP'
S'VADVCP'
tp655
F6
s(S'PP'
S'APAAP'
tp656
F1
s(S'MP'
S'MADVVVPP'
tp657
F1
s(g386
S'NADVCCP'
tp658
F2
s(S'NP'
S'NNNVVP'
tp659
F2
s(S'VP'
S'ADVADVADVADVVVCP'
tp660
F1
s(g460
S'DCCP'
tp661
F3
s(S'PP'
p662
S'ADVADVPPP'
tp663
F1
s(S'AP'
S'AADDDDP'
tp664
F2
s(g138
S'CDPPPPP'
tp665
F1
s(S'MP'
S'MADVVDP'
tp666
F8
s(S'DP'
S'DDADVNNP'
tp667
F2
s(S'VP'
S'ADVADVVANNP'
tp668
F1
s(S'PP'
S'PDDP'
tp669
F82
s(S'CP'
S'CDDDDPPP'
tp670
F1
s(S'MP'
S'MVDDP'
tp671
F4
s(S'AP'
S'AAAADP'
tp672
F1
s(S'NP'
S'NNVP'
tp673
F93
s(S'PP'
S'PADVADVADVDP'
tp674
F2
s(S'NP'
S'NNADVADP'
tp675
F1
s(S'PP'
S'PPPMP'
tp676
F2
s(S'PP'
S'APPPPP'
tp677
F1
s(S'AP'
S'ADVADVACP'
tp678
F3
s(S'NP'
S'NAANP'
tp679
F1
s(S'VP'
S'VVDDP'
tp680
F8
s(S'DP'
p681
S'DAANP'
tp682
F14
s(S'MP'
S'MADDP'
tp683
F2
s(S'AP'
S'ADDP'
tp684
F27
s(S'PP'
S'PNNNNP'
tp685
F1
s(g83
S'ADVVVAP'
tp686
F4
s(S'PP'
S'ADVPPNP'
tp687
F9
s(g262
S'VADVADVADVVP'
tp688
F1
s(S'DP'
S'ADVP'
tp689
F4
s(S'NP'
S'ADVADVNNMP'
tp690
F1
s(S'CP'
S'CAAADADVADVPPP'
tp691
F1
s(S'CP'
S'CADVADVDPP'
tp692
F7
s(S'DP'
S'DPPP'
tp693
F116
s(S'CP'
S'ADVADVADVCCDP'
tp694
F1
s(S'VP'
S'VANNP'
tp695
F1
s(g10
S'AAAP'
tp696
F1
s(S'NP'
S'NNAVP'
tp697
F2
s(S'PP'
S'ADVPNP'
tp698
F6
s(g226
S'PPDP'
tp699
F59
s(S'VP'
S'AAVADVPPP'
tp700
F1
s(S'CP'
S'CCDDDDDP'
tp701
F1
s(S'DP'
S'DDPPPP'
tp702
F5
s(S'VP'
S'VAADP'
tp703
F1
s(S'MP'
S'MVVAP'
tp704
F2
s(S'DP'
S'DDCP'
tp705
F2
s(S'NP'
S'ANADVADVVP'
tp706
F1
s(S'DP'
S'DADVADVADVVVP'
tp707
F2
s(g208
S'PPADVDDP'
tp708
F2
s(S'AP'
S'ANNP'
tp709
F1
s(S'AP'
S'ADVADVAADVVVP'
tp710
F1
s(g436
S'NAP'
tp711
F60
s(S'NP'
S'NNAAP'
tp712
F1
s(S'NP'
S'NPPPP'
tp713
F2
s(S'VP'
S'ADVADVADVADVVVPP'
tp714
F1
s(S'VP'
S'VVP'
tp715
F32
s(S'DP'
S'DDAPP'
tp716
F1
s(S'PP'
S'ADVADVPVP'
tp717
F3
s(S'AP'
S'AAADP'
tp718
F6
s(g345
S'APNP'
tp719
F17
s(S'VP'
S'VVVNNP'
tp720
F3
s(S'DP'
S'DDVVP'
tp721
F6
s(S'DP'
S'ADPPPPP'
tp722
F1
s(g224
S'VVVNP'
tp723
F13
s(S'PP'
S'PPADVADVADVDP'
tp724
F1
s(S'NP'
S'NAMP'
tp725
F1
s(S'MP'
S'MVANP'
tp726
F1
s(S'DP'
S'ADVADVDDPP'
tp727
F2
s(S'AP'
S'AAADVPP'
tp728
F1
s(S'CP'
S'CDPP'
tp729
F660
s(S'DP'
S'ADVDNP'
tp730
F5
s(S'MP'
S'MVVNNP'
tp731
F1
s(S'AP'
S'ADDDP'
tp732
F4
s(g564
S'AANADVADVCCP'
tp733
F1
s(S'CP'
S'ADVCADP'
tp734
F1
s(S'NP'
S'NNDP'
tp735
F10
s(S'VP'
S'ADVADVADVVVNNP'
tp736
F2
s(S'CP'
S'ADVCDP'
tp737
F18
s(S'VP'
S'ADVADVVNP'
tp738
F6
s(S'CP'
S'ADVACDP'
tp739
F1
s(S'VP'
S'ADVADVVCP'
tp740
F2
s(S'PP'
S'PPNNP'
tp741
F3
s(S'PP'
S'PPMP'
tp742
F6
s(S'DP'
S'ADVADVDPP'
tp743
F9
s(g274
S'VDP'
tp744
F568
s(S'NP'
S'NADVAP'
tp745
F3
s(S'VP'
S'AVDDP'
tp746
F6
s(g681
S'DADVNP'
tp747
F5
s(g19
S'DAP'
tp748
F66
s(S'CP'
S'CADPP'
tp749
F41
s(S'VP'
S'ADVADVVVPP'
tp750
F4
s(S'DP'
S'DADVADVADVADVVP'
tp751
F1
s(S'PP'
S'PPDDDP'
tp752
F1
s(S'VP'
S'AVPP'
tp753
F19
s(S'NP'
S'NADVADVMP'
tp754
F1
s(S'DP'
S'DDNNNNP'
tp755
F1
s(S'VP'
S'VVADVDP'
tp756
F4
s(S'PP'
S'PPADVADVDDP'
tp757
F1
s(S'CP'
S'CDPPPP'
tp758
F17
s(S'DP'
S'ADVADADVPP'
tp759
F1
s(S'VP'
S'VADVADVADVNP'
tp760
F1
s(S'PP'
S'ADVADVADVPPNNP'
tp761
F1
s(g662
S'APPP'
tp762
F13
s(S'MP'
S'MVANNP'
tp763
F1
s(g91
S'ADVVADVAP'
tp764
F1
s(S'DP'
S'DADVADVPP'
tp765
F7
s(g638
S'DMP'
tp766
F15
s(S'DP'
S'ADVDPP'
tp767
F43
s(S'NP'
S'NADVADVDP'
tp768
F1
s(S'CP'
S'ADVADVADVADVCDP'
tp769
F1
s(g169
S'PADVADVNP'
tp770
F6
s(S'PP'
S'PPPPNP'
tp771
F4
s(S'AP'
S'AADP'
tp772
F29
s(S'VP'
S'ADVVANNP'
tp773
F1
s(S'NP'
S'NADVADVADVCCP'
tp774
F1
s(S'VP'
S'VADVPP'
tp775
F2
s(g379
S'ADVDANP'
tp776
F1
s(S'PP'
S'ADVPVP'
tp777
F21
s(S'DP'
S'DDDDPP'
tp778
F7
s(S'NP'
S'ADVANCP'
tp779
F2
s(S'NP'
S'NNVVVP'
tp780
F8
s(S'VP'
S'ADVVANP'
tp781
F2
s(S'NP'
S'NADVADVADVADVVVP'
tp782
F2
s(S'PP'
S'ADVPDP'
tp783
F5
s(S'NP'
S'ADVNNPP'
tp784
F3
s(S'PP'
S'PPDDDDP'
tp785
F2
s(S'MP'
S'MVADVAP'
tp786
F1
s(g234
S'NCP'
tp787
F539
s(S'MP'
S'MVADVADVVP'
tp788
F1
s(S'VP'
S'ADVVVPP'
tp789
F5
s(S'PP'
S'PPADVNNP'
tp790
F1
s(g646
S'ADVVP'
tp791
F1
s(S'PP'
S'PPPPVP'
tp792
F1
s(S'PP'
S'PPAPP'
tp793
F1
s(g621
S'AANDP'
tp794
F2
s(S'MP'
S'MVCCP'
tp795
F2
s(S'DP'
S'DADVNNP'
tp796
F1
s(S'NP'
p797
S'NNCCP'
tp798
F13
s(g32
S'MNVP'
tp799
F10
s(S'NP'
S'NNNADVADVCP'
tp800
F1
s(S'CP'
S'ADVADVCCDP'
tp801
F1
s(g797
S'AANCCP'
tp802
F1
s(S'PP'
S'PADVADVAP'
tp803
F1
s(S'VP'
S'VAPP'
tp804
F21
s(S'NP'
S'NPPPPP'
tp805
F2
s(g129
S'ADVVDP'
tp806
F42
s(S'DP'
S'DADVPP'
tp807
F26
s(S'AP'
S'AMP'
tp808
F2
s(S'CP'
S'CCADP'
tp809
F2
s(S'NP'
S'ADVNNCP'
tp810
F2
s(S'PP'
S'AAPDDDP'
tp811
F1
s(g326
S'NNNPPP'
tp812
F1
s(S'AP'
S'ADVAPP'
tp813
F8
s(S'CP'
S'AACDP'
tp814
F1
s(S'NP'
S'NNNCCP'
tp815
F1
s(g12
S'CCDDDP'
tp816
F8
s(S'DP'
S'ADVDPPP'
tp817
F2
s(g78
S'DVP'
tp818
F378
s(S'VP'
S'ADVVAP'
tp819
F4
s(S'NP'
S'ADVNPP'
tp820
F2
s(S'VP'
S'ADVADVADVVVNP'
tp821
F2
s(g99
S'NNCCCP'
tp822
F2
s(S'PP'
S'PADVADVDDP'
tp823
F1
s(S'AP'
S'AVP'
tp824
F51
s(S'NP'
S'NADVVP'
tp825
F39
s(S'NP'
S'NNADVADVVP'
tp826
F2
s(S'MP'
S'MDDDNP'
tp827
F1
s(S'VP'
S'ADVVPPP'
tp828
F2
s(g649
S'DDPPP'
tp829
F19
s(S'NP'
S'ADVNMP'
tp830
F7
s(S'NP'
S'NNAP'
tp831
F5
s(S'MP'
S'MADVVCP'
tp832
F1
s(g204
S'PPANP'
tp833
F4
s(S'CP'
S'CDADVPP'
tp834
F16
s(g274
S'VNP'
tp835
F352
s(S'VP'
S'ADVADVADVADVVVDP'
tp836
F1
s(S'VP'
S'VANP'
tp837
F15
s(g224
S'VADVAP'
tp838
F19
s(S'PP'
S'PPADVNP'
tp839
F1
s(S'DP'
S'DDDDVP'
tp840
F3
s(S'VP'
S'ADVADVVVDP'
tp841
F1
s(S'NP'
S'NADVPPP'
tp842
F3
s.