ccollections
defaultdict
p1
(c__builtin__
float
p2
tRp3
(S'CP'
p4
S'CAAADPP'
tp5
F1
s(S'DP'
S'ADDPP'
tp6
F3
s(S'DP'
S'DDAP'
tp7
F2
s(S'VP'
S'ADVVVNP'
tp8
F1
s(S'PP'
p9
S'PAPP'
tp10
F7
s(S'DP'
S'DDPPPPP'
tp11
F1
s(S'DP'
p12
S'DNP'
tp13
F111
s(S'NP'
S'ADVNDP'
tp14
F1
s(S'CP'
p15
S'CDPPP'
tp16
F23
s(S'VP'
p17
S'VADP'
tp18
F5
s(S'DP'
p19
S'DAAP'
tp20
F3
s(S'PP'
p21
S'APPDP'
tp22
F1
s(S'DP'
S'ADNNP'
tp23
F1
s(S'VP'
S'ADVVNP'
tp24
F3
s(S'MP'
S'MVDP'
tp25
F9
s(S'PP'
p26
S'PPPP'
tp27
F12
s(S'DP'
S'DDDNP'
tp28
F1
s(S'PP'
p29
S'ADVPADDP'
tp30
F1
s(S'PP'
S'PPAAP'
tp31
F1
s(S'DP'
p32
S'DADVVP'
tp33
F2
s(S'PP'
S'PADVNNP'
tp34
F1
s(S'AP'
S'AADVPP'
tp35
F1
s(S'NP'
S'NCCCP'
tp36
F1
s(S'DP'
S'ADAANNNP'
tp37
F1
s(S'VP'
S'VCP'
tp38
F35
s(S'NP'
S'NMMP'
tp39
F1
s(S'NP'
S'ADVADVNNCCP'
tp40
F1
s(S'PP'
S'PAP'
tp41
F27
s(S'PP'
p42
S'ADVPPVP'
tp43
F1
s(S'NP'
S'ANPPP'
tp44
F2
s(S'MP'
S'AMVP'
tp45
F3
s(S'PP'
p46
S'PNP'
tp47
F101
s(S'DP'
p48
S'DDP'
tp49
F25
s(S'PP'
p50
S'ADVPPMP'
tp51
F1
s(S'VP'
p52
S'ADVVDDP'
tp53
F1
s(S'NP'
S'NNNPP'
tp54
F1
s(S'NP'
S'NNDP'
tp55
F6
s(S'MP'
S'MCDP'
tp56
F3
s(S'NP'
p57
S'NMP'
tp58
F27
s(S'VP'
p59
S'AAVNP'
tp60
F1
s(g46
S'PDP'
tp61
F109
s(S'PP'
S'PADVNP'
tp62
F1
s(S'CP'
S'CDAAPP'
tp63
F2
s(S'DP'
S'DPPPP'
tp64
F2
s(S'DP'
S'DDANP'
tp65
F3
s(S'NP'
S'NACP'
tp66
F10
s(S'NP'
p67
S'NCCP'
tp68
F14
s(S'NP'
p69
S'ANVP'
tp70
F6
s(S'NP'
p71
S'NNCP'
tp72
F21
s(S'NP'
p73
S'NADVADVVP'
tp74
F2
s(S'NP'
p75
S'NNPPPP'
tp76
F1
s(S'VP'
p77
S'AVNP'
tp78
F3
s(S'PP'
p79
S'ADVAPDP'
tp80
F1
s(S'MP'
S'MVPPP'
tp81
F2
s(S'CP'
S'CCCDP'
tp82
F1
s(S'VP'
S'ADVVAP'
tp83
F1
s(S'VP'
S'VCCCP'
tp84
F1
s(S'PP'
S'APDP'
tp85
F14
s(S'VP'
S'ADVVNNP'
tp86
F1
s(g50
S'PADVADVADVPP'
tp87
F1
s(S'AP'
S'AADVCP'
tp88
F1
s(S'VP'
S'VVANP'
tp89
F1
s(S'DP'
p90
S'DADVNP'
tp91
F3
s(g42
S'ADVPNNP'
tp92
F1
s(g50
S'ADVADVADVPDP'
tp93
F1
s(S'AP'
S'AAPP'
tp94
F1
s(S'NP'
S'ADVNCCP'
tp95
F1
s(S'PP'
S'PAAP'
tp96
F6
s(S'DP'
S'DNNP'
tp97
F24
s(S'CP'
S'CDDPPPP'
tp98
F1
s(S'CP'
S'CCADVDP'
tp99
F1
s(g69
S'NNNVP'
tp100
F4
s(g59
S'VADVNNP'
tp101
F1
s(S'NP'
p102
S'AANNNVP'
tp103
F1
s(S'PP'
S'PADVVP'
tp104
F2
s(S'AP'
S'APP'
tp105
F21
s(S'NP'
S'NADVMP'
tp106
F1
s(S'AP'
S'AAP'
tp107
F2
s(S'NP'
S'ADVANPP'
tp108
F2
s(S'MP'
S'MVVCP'
tp109
F1
s(S'DP'
p110
S'DAAVP'
tp111
F1
s(S'PP'
S'PAANP'
tp112
F1
s(S'DP'
S'ADVDVP'
tp113
F1
s(g26
S'PPVVP'
tp114
F5
s(S'VP'
p115
S'VAACP'
tp116
F1
s(S'MP'
S'MVNP'
tp117
F9
s(S'DP'
S'ADDDP'
tp118
F1
s(S'CP'
S'CDDDPPP'
tp119
F2
s(S'PP'
p120
S'PAVP'
tp121
F9
s(S'MP'
S'ADVMVP'
tp122
F1
s(S'NP'
S'NNADP'
tp123
F1
s(S'PP'
S'APPPP'
tp124
F1
s(S'DP'
p125
S'DADP'
tp126
F2
s(S'PP'
S'AAPNNNP'
tp127
F1
s(S'PP'
p128
S'APVP'
tp129
F9
s(S'MP'
p130
S'MADVADVVPP'
tp131
F1
s(S'VP'
S'VVNP'
tp132
F8
s(S'PP'
S'PPVP'
tp133
F8
s(g115
S'VADVDP'
tp134
F1
s(g17
S'VAAP'
tp135
F2
s(g69
S'ANDP'
tp136
F8
s(S'NP'
p137
S'NVVP'
tp138
F18
s(S'PP'
p139
S'AAPVP'
tp140
F1
s(S'VP'
S'VMP'
tp141
F1
s(S'VP'
S'VVNNP'
tp142
F2
s(S'CP'
S'CDAPP'
tp143
F15
s(S'VP'
S'VVAAP'
tp144
F3
s(S'DP'
S'ADNP'
tp145
F8
s(S'PP'
S'PADP'
tp146
F14
s(S'DP'
S'DADVAP'
tp147
F1
s(g48
S'DAPP'
tp148
F20
s(S'VP'
S'ADVADVVPP'
tp149
F3
s(S'VP'
S'ADVADVADVVDP'
tp150
F1
s(S'PP'
S'PPPDP'
tp151
F1
s(S'MP'
S'MVVAP'
tp152
F3
s(S'DP'
S'DAAANP'
tp153
F1
s(S'DP'
S'DADVANP'
tp154
F1
s(S'VP'
p155
S'VAAPP'
tp156
F1
s(S'DP'
S'ADVDNP'
tp157
F2
s(S'VP'
p158
S'VVPP'
tp159
F3
s(S'CP'
p160
S'CCADDP'
tp161
F1
s(S'MP'
S'MVPP'
tp162
F4
s(S'DP'
S'ADVP'
tp163
F4
s(g4
S'CDDPPP'
tp164
F1
s(S'PP'
p165
S'AAPMP'
tp166
F1
s(S'NP'
S'NNPP'
tp167
F13
s(S'MP'
S'MVVDP'
tp168
F1
s(S'AP'
S'AACP'
tp169
F3
s(S'MP'
S'MADVADVADVVDP'
tp170
F1
s(g48
S'DNNNP'
tp171
F3
s(S'DP'
S'DDDADVADVPP'
tp172
F1
s(S'PP'
p173
S'PMP'
tp174
F4
s(S'CP'
p175
S'CCDP'
tp176
F23
s(S'DP'
S'ADVADVADVDPP'
tp177
F1
s(S'VP'
S'VADVANP'
tp178
F1
s(S'PP'
p179
S'PPNNNP'
tp180
F1
s(S'NP'
S'NVVVP'
tp181
F5
s(S'CP'
p182
S'CDDDPP'
tp183
F1
s(S'PP'
S'PPADVVP'
tp184
F1
s(S'VP'
S'VVVDP'
tp185
F2
s(g46
S'PNNNP'
tp186
F5
s(S'PP'
S'PADVVVP'
tp187
F1
s(g46
S'PPP'
tp188
F45
s(S'NP'
S'NAVP'
tp189
F7
s(S'VP'
S'VVVANP'
tp190
F1
s(S'NP'
S'NADVVVP'
tp191
F2
s(g90
S'DAAAP'
tp192
F2
s(S'VP'
p193
S'VPP'
tp194
F60
s(S'CP'
S'ADVCCDP'
tp195
F1
s(S'CP'
S'ACCDP'
tp196
F1
s(S'NP'
S'NNNCP'
tp197
F6
s(S'PP'
p198
S'PADVDP'
tp199
F3
s(S'MP'
p200
S'MADVVAP'
tp201
F1
s(g179
S'PADVAAP'
tp202
F1
s(S'CP'
S'CDDPP'
tp203
F24
s(S'DP'
S'DAAPP'
tp204
F2
s(g198
S'PVVP'
tp205
F9
s(g182
S'CADPPP'
tp206
F3
s(S'DP'
p207
S'DADVPPP'
tp208
F3
s(S'VP'
S'ADVVCP'
tp209
F2
s(S'VP'
S'VPPP'
tp210
F5
s(S'VP'
p211
S'VVPPP'
tp212
F1
s(g120
S'PPAP'
tp213
F5
s(S'DP'
p214
S'DVVP'
tp215
F17
s(S'NP'
S'ANMP'
tp216
F2
s(g57
S'ADVADVNVP'
tp217
F2
s(S'VP'
S'VVVP'
tp218
F2
s(S'CP'
S'CADVDPP'
tp219
F3
s(S'NP'
p220
S'ANCP'
tp221
F25
s(g32
S'DCP'
tp222
F6
s(S'DP'
p223
S'DDDP'
tp224
F4
s(S'DP'
p225
S'DDADVPP'
tp226
F1
s(g71
S'ANVVP'
tp227
F1
s(g77
S'VVDP'
tp228
F22
s(S'NP'
p229
S'NPPP'
tp230
F10
s(S'PP'
S'PPAPP'
tp231
F1
s(g207
S'DAVP'
tp232
F6
s(g137
S'NNNMP'
tp233
F1
s(S'AP'
S'ACP'
tp234
F23
s(S'PP'
S'PADVADVNNP'
tp235
F1
s(g120
S'PPNP'
tp236
F22
s(g69
S'NAADP'
tp237
F2
s(S'AP'
S'ADP'
tp238
F58
s(S'PP'
S'APMP'
tp239
F1
s(g225
S'DDPPPP'
tp240
F1
s(g26
S'PPPAVP'
tp241
F1
s(S'VP'
p242
S'AVDP'
tp243
F12
s(S'VP'
S'VVAP'
tp244
F7
s(g165
S'PADVADVDP'
tp245
F1
s(g137
S'NPP'
tp246
F93
s(g137
S'NVP'
tp247
F99
s(S'PP'
S'PAAVP'
tp248
F2
s(S'PP'
S'PPPPVP'
tp249
F1
s(g242
S'VDDP'
tp250
F13
s(S'NP'
p251
S'ANPP'
tp252
F19
s(S'PP'
S'ADVPPDP'
tp253
F1
s(g26
S'PPPPP'
tp254
F1
s(S'MP'
S'MPDP'
tp255
F1
s(g50
S'ADVADVPDP'
tp256
F1
s(S'DP'
S'ADVDPP'
tp257
F4
s(S'DP'
S'ADDP'
tp258
F6
s(S'CP'
S'CAADPP'
tp259
F1
s(S'DP'
S'DADVADVVP'
tp260
F1
s(g26
S'PNNP'
tp261
F21
s(g110
S'AAADPP'
tp262
F1
s(S'VP'
p263
S'AVAP'
tp264
F1
s(S'MP'
S'MMVP'
tp265
F1
s(g125
S'ADPP'
tp266
F17
s(S'CP'
S'ACDP'
tp267
F8
s(g158
S'VCCP'
tp268
F4
s(S'AP'
S'ADVANP'
tp269
F1
s(S'CP'
S'CDADVPPP'
tp270
F1
s(g193
S'VAP'
tp271
F35
s(S'DP'
p272
S'DDDPP'
tp273
F1
s(g125
S'DAACP'
tp274
F1
s(S'VP'
S'ADVADVVVAP'
tp275
F1
s(g223
S'DDDPPP'
tp276
F2
s(S'AP'
S'AAACP'
tp277
F2
s(S'VP'
p278
S'ADVVVDP'
tp279
F1
s(S'AP'
S'AADDP'
tp280
F1
s(S'NP'
S'NADVADVCP'
tp281
F1
s(g225
S'ADVADVDAAPP'
tp282
F1
s(g26
S'PANP'
tp283
F20
s(S'PP'
S'PDDDP'
tp284
F1
s(S'NP'
S'AANMP'
tp285
F1
s(S'AP'
S'AAVP'
tp286
F1
s(S'AP'
S'AVVP'
tp287
F2
s(g137
S'NDDP'
tp288
F6
s(S'AP'
S'ACCP'
tp289
F2
s(g57
S'NDP'
tp290
F42
s(S'DP'
S'DDVP'
tp291
F8
s(S'VP'
p292
S'VNNNP'
tp293
F3
s(g50
S'PPADVADVCCP'
tp294
F1
s(S'PP'
p295
S'ADVPAP'
tp296
F1
s(g9
S'PCP'
tp297
F2
s(S'NP'
S'NNPPP'
tp298
F1
s(S'NP'
p299
S'ADVNNVP'
tp300
F1
s(S'MP'
S'MPAP'
tp301
F1
s(g57
S'NNNDP'
tp302
F1
s(S'VP'
S'VVVAP'
tp303
F1
s(S'NP'
S'NNVP'
tp304
F14
s(g102
S'NNAAVP'
tp305
F1
s(S'CP'
S'CCDDP'
tp306
F3
s(S'NP'
p307
S'NAAP'
tp308
F4
s(S'NP'
S'NNVVP'
tp309
F2
s(g158
S'VVCP'
tp310
F9
s(g52
S'AVVMP'
tp311
F1
s(S'NP'
S'AANCP'
tp312
F2
s(g193
S'VDP'
tp313
F96
s(S'CP'
S'CDDDADVADVPP'
tp314
F1
s(g307
S'NNDDP'
tp315
F1
s(S'VP'
S'ADVVPP'
tp316
F1
s(S'VP'
S'VNNP'
tp317
F10
s(S'AP'
S'AADVDP'
tp318
F1
s(g29
S'ADVADVPADVPP'
tp319
F1
s(g214
S'DDNP'
tp320
F15
s(S'DP'
S'DDNNP'
tp321
F1
s(S'DP'
S'AADPP'
tp322
F1
s(S'VP'
S'VADVADVPP'
tp323
F1
s(S'NP'
S'NNAMP'
tp324
F1
s(S'VP'
S'VVVVCP'
tp325
F1
s(S'CP'
S'CDDADVPPP'
tp326
F1
s(S'CP'
S'ACDDP'
tp327
F2
s(S'CP'
S'CCCADP'
tp328
F1
s(g193
S'VVCCP'
tp329
F2
s(S'DP'
S'DADVVVP'
tp330
F2
s(S'VP'
S'AAVADP'
tp331
F1
s(g48
S'DADVADVNP'
tp332
F2
s(S'NP'
S'NAPP'
tp333
F8
s(g229
S'NNACCP'
tp334
F1
s(S'VP'
S'VVVCP'
tp335
F4
s(g251
S'ANCCP'
tp336
F4
s(g137
S'AANPP'
tp337
F2
s(S'NP'
S'NNMP'
tp338
F1
s(g160
S'CADDPP'
tp339
F1
s(S'NP'
S'ANAP'
tp340
F2
s(S'MP'
S'MVAP'
tp341
F2
s(g46
S'PVP'
tp342
F70
s(g263
S'VADVPPP'
tp343
F1
s(S'VP'
S'VADVCCP'
tp344
F1
s(S'AP'
S'ADVAACP'
tp345
F1
s(g75
S'ADVNAVP'
tp346
F1
s(S'DP'
S'DVVVP'
tp347
F3
s(g173
S'PPDDP'
tp348
F2
s(g158
S'AVCP'
tp349
F5
s(S'NP'
S'NADVADVAP'
tp350
F1
s(g12
S'DPP'
tp351
F134
s(S'NP'
S'ADVNVP'
tp352
F2
s(g12
S'DDPP'
tp353
F38
s(g19
S'DDADVPPP'
tp354
F2
s(g272
S'DANP'
tp355
F30
s(S'NP'
S'NADVPP'
tp356
F1
s(S'DP'
S'AADNP'
tp357
F2
s(S'CP'
S'CADVADVADVDPP'
tp358
F1
s(S'NP'
S'NADVCCP'
tp359
F1
s(S'DP'
S'ADDPPP'
tp360
F1
s(S'CP'
S'CADVADVDADVPP'
tp361
F1
s(S'DP'
S'DDADVADVVVP'
tp362
F1
s(g295
S'AAPDP'
tp363
F1
s(S'MP'
S'MADVVDP'
tp364
F1
s(g21
S'PAPPP'
tp365
F1
s(S'PP'
S'PDDP'
tp366
F16
s(S'DP'
S'ADVADVDADVPP'
tp367
F1
s(g272
S'ADPPP'
tp368
F4
s(S'MP'
S'MADVVDDP'
tp369
F1
s(S'AP'
S'ADVADVACP'
tp370
F1
s(S'VP'
S'VVDDP'
tp371
F2
s(g12
S'DAANP'
tp372
F3
s(S'AP'
S'ADDP'
tp373
F3
s(S'VP'
S'ADVVVAP'
tp374
F1
s(S'PP'
S'ADVPPNP'
tp375
F4
s(g125
S'DPPP'
tp376
F39
s(S'NP'
S'NADVADVAAP'
tp377
F1
s(g225
S'DAVVP'
tp378
F1
s(S'NP'
p379
S'NNAVP'
tp380
F2
s(S'PP'
p381
S'ADVPNP'
tp382
F5
s(S'AP'
S'AAADP'
tp383
F2
s(S'CP'
S'ADVCCADDP'
tp384
F1
s(S'AP'
S'ADVADVAADP'
tp385
F1
s(g67
S'NAP'
tp386
F13
s(S'VP'
S'AAVADVNP'
tp387
F1
s(S'VP'
S'ADVAVNP'
tp388
F1
s(S'VP'
S'VVP'
tp389
F8
s(g110
S'DDAPP'
tp390
F2
s(g128
S'APNP'
tp391
F8
s(S'DP'
S'DDVVP'
tp392
F1
s(g211
S'VVVNP'
tp393
F1
s(g299
S'NAMP'
tp394
F1
s(g200
S'MVANP'
tp395
F1
s(S'DP'
S'ADVADVDDPP'
tp396
F1
s(g79
S'PPADVAPP'
tp397
F1
s(g175
S'CDPP'
tp398
F117
s(S'CP'
S'ADVCDP'
tp399
F1
s(S'PP'
S'PPNNP'
tp400
F2
s(S'PP'
S'PPPADVNP'
tp401
F1
s(g278
S'AVDDP'
tp402
F2
s(g160
S'ADVADVCDDP'
tp403
F1
s(g223
S'DAP'
tp404
F17
s(g4
S'CADPP'
tp405
F12
s(g75
S'NADVAVP'
tp406
F1
s(g139
S'PPAVP'
tp407
F1
s(g292
S'AVPP'
tp408
F3
s(S'CP'
S'CDDPPPPP'
tp409
F1
s(S'CP'
S'CDPPPP'
tp410
F1
s(S'VP'
S'AAVDP'
tp411
F1
s(g295
S'APPP'
tp412
F7
s(g90
S'DMP'
tp413
F3
s(S'PP'
S'PPPNP'
tp414
F2
s(S'PP'
S'PPAANP'
tp415
F1
s(S'NP'
S'AAANPP'
tp416
F2
s(S'AP'
S'AADP'
tp417
F12
s(g155
S'VADVPP'
tp418
F1
s(S'PP'
S'PVVVVP'
tp419
F1
s(S'DP'
p420
S'ADMP'
tp421
F1
s(S'NP'
S'NNVVVP'
tp422
F1
s(g198
S'PAMP'
tp423
F1
s(g381
S'ADVPDP'
tp424
F2
s(S'NP'
S'ADVNNPP'
tp425
F1
s(g137
S'NCP'
tp426
F86
s(S'VP'
S'ADVVVPP'
tp427
F1
s(S'PP'
S'PPDP'
tp428
F15
s(S'MP'
S'MVCCP'
tp429
F1
s(g32
S'DADVNNP'
tp430
F2
s(g220
S'NNCCP'
tp431
F3
s(S'MP'
S'MNVP'
tp432
F2
s(S'CP'
S'ADVADVCCDP'
tp433
F1
s(S'VP'
S'VAPP'
tp434
F2
s(S'VP'
S'ADVVDP'
tp435
F8
s(g420
S'DADVPP'
tp436
F4
s(S'AP'
S'AMP'
tp437
F1
s(S'CP'
S'CCADP'
tp438
F2
s(S'NP'
S'ADVNNCP'
tp439
F2
s(S'DP'
S'ADVDAP'
tp440
F1
s(S'AP'
S'ADVAPP'
tp441
F1
s(g379
S'NADP'
tp442
F1
s(g15
S'AACDP'
tp443
F2
s(S'CP'
S'CCADVADVDDP'
tp444
F1
s(g12
S'DVP'
tp445
F79
s(S'NP'
S'ADVNPP'
tp446
F1
s(S'AP'
S'AVP'
tp447
F8
s(g73
S'NADVVP'
tp448
F6
s(S'VP'
S'VVADVPPP'
tp449
F1
s(g110
S'DDPPP'
tp450
F3
s(S'NP'
S'ADVNMP'
tp451
F1
s(g130
S'MADVVCP'
tp452
F1
s(S'PP'
S'PPANP'
tp453
F1
s(S'MP'
S'MCDDP'
tp454
F1
s(S'CP'
S'CDADVPP'
tp455
F3
s(g77
S'VNP'
tp456
F60
s(S'VP'
S'VANP'
tp457
F5
s(S'VP'
S'VADVAP'
tp458
F1
s(S'PP'
S'PPADVNP'
tp459
F1
s.