ccollections
defaultdict
p1
(c__builtin__
float
p2
tRp3
(S'NP'
S'AANDDP'
tp4
F2
s(S'CP'
S'CAAADPP'
tp5
F1
s(S'DP'
S'ADDPP'
tp6
F1
s(S'DP'
S'DDAP'
tp7
F3
s(S'VP'
S'ADVVVNP'
tp8
F8
s(S'AP'
S'AADDDP'
tp9
F1
s(S'DP'
S'ADVDDVVP'
tp10
F1
s(S'NP'
S'NADDP'
tp11
F1
s(S'CP'
S'CDDDDAPP'
tp12
F1
s(S'VP'
S'VVADVVP'
tp13
F2
s(S'PP'
p14
S'PAPP'
tp15
F14
s(S'PP'
p16
S'PADVNP'
tp17
F12
s(S'CP'
S'CDADVADVPPP'
tp18
F2
s(S'PP'
S'PPPPPPPP'
tp19
F1
s(S'VP'
S'VVADVADVADVADVAP'
tp20
F1
s(S'NP'
S'ANCCCP'
tp21
F1
s(S'NP'
S'ADVNDP'
tp22
F1
s(S'PP'
S'AAPDDP'
tp23
F2
s(S'VP'
S'ADVVNNP'
tp24
F1
s(S'CP'
p25
S'CDPPP'
tp26
F90
s(S'VP'
S'VADP'
tp27
F28
s(S'DP'
S'DNNNNP'
tp28
F2
s(S'DP'
S'DAAP'
tp29
F8
s(S'VP'
p30
S'AAVPPP'
tp31
F1
s(S'PP'
p32
S'PPPPPP'
tp33
F2
s(S'AP'
S'AADVADVADVDP'
tp34
F1
s(S'PP'
S'APPDP'
tp35
F2
s(S'VP'
S'ADVADVADVVVPP'
tp36
F1
s(S'DP'
p37
S'DAADP'
tp38
F2
s(S'DP'
p39
S'ADNNP'
tp40
F8
s(S'VP'
S'VADVVVP'
tp41
F1
s(S'CP'
S'CCCADVADVDP'
tp42
F1
s(S'PP'
S'PADVADVAAP'
tp43
F1
s(S'VP'
p44
S'ADVVNP'
tp45
F24
s(S'MP'
S'MVDP'
tp46
F21
s(S'PP'
S'PADVANP'
tp47
F1
s(S'PP'
p48
S'PPPP'
tp49
F46
s(S'AP'
S'ADVAPPP'
tp50
F1
s(S'DP'
S'DDDNP'
tp51
F4
s(S'VP'
p52
S'VACP'
tp53
F10
s(S'AP'
S'AAAVP'
tp54
F3
s(S'PP'
S'PPAAP'
tp55
F1
s(S'NP'
S'NNADVDDP'
tp56
F1
s(S'DP'
S'DADVVP'
tp57
F20
s(S'DP'
S'DDAANP'
tp58
F1
s(S'PP'
S'PADVNNP'
tp59
F2
s(S'AP'
S'AADVPP'
tp60
F1
s(S'NP'
S'NADVACP'
tp61
F1
s(S'NP'
p62
S'NAAVVP'
tp63
F1
s(S'VP'
S'AAVVP'
tp64
F1
s(S'NP'
p65
S'NADVVVP'
tp66
F15
s(S'CP'
S'CADVADVDDPP'
tp67
F1
s(S'VP'
p68
S'VCP'
tp69
F149
s(S'NP'
p70
S'NMMP'
tp71
F3
s(S'NP'
S'NANP'
tp72
F2
s(S'VP'
S'ADVVAAP'
tp73
F1
s(S'DP'
S'DDDNNP'
tp74
F1
s(S'DP'
S'ADVDDDPP'
tp75
F1
s(g52
S'ADVVCCP'
tp76
F4
s(S'PP'
p77
S'PAP'
tp78
F189
s(S'MP'
S'MMVVP'
tp79
F1
s(S'DP'
S'DDADVADVPP'
tp80
F1
s(S'PP'
S'ADVPPVP'
tp81
F5
s(S'NP'
S'NNNAP'
tp82
F1
s(S'PP'
S'APVVP'
tp83
F2
s(S'PP'
S'PPADVDP'
tp84
F2
s(S'DP'
S'ADANNNP'
tp85
F1
s(S'MP'
S'AMVP'
tp86
F2
s(S'PP'
p87
S'PNP'
tp88
F476
s(S'PP'
S'PAAADP'
tp89
F1
s(S'PP'
S'APADVAVP'
tp90
F1
s(S'DP'
p91
S'DDP'
tp92
F62
s(S'VP'
S'ADVVDDP'
tp93
F6
s(S'NP'
S'NNNPP'
tp94
F5
s(S'NP'
S'NNDP'
tp95
F24
s(S'MP'
S'MCDP'
tp96
F2
s(S'PP'
S'ADVPCP'
tp97
F1
s(S'PP'
S'ADVADVPPDP'
tp98
F2
s(S'NP'
p99
S'NNADVADVCP'
tp100
F1
s(S'NP'
p101
S'ANNNDP'
tp102
F1
s(S'PP'
S'ADVADVPAP'
tp103
F1
s(S'NP'
S'NMP'
tp104
F86
s(S'MP'
S'MAVDDP'
tp105
F1
s(S'VP'
p106
S'AVADVPP'
tp107
F1
s(S'VP'
S'AAVNP'
tp108
F1
s(g48
S'PDP'
tp109
F646
s(S'DP'
S'DDPPPPP'
tp110
F1
s(S'CP'
S'CCADVADVDP'
tp111
F1
s(S'CP'
S'CDAAPP'
tp112
F6
s(S'VP'
S'VVVADVPP'
tp113
F1
s(S'VP'
p114
S'VNNNNP'
tp115
F1
s(S'MP'
S'MADVVNP'
tp116
F6
s(S'DP'
p117
S'DNP'
tp118
F675
s(S'NP'
S'NACCP'
tp119
F1
s(S'AP'
S'ANP'
tp120
F1
s(S'NP'
S'NADVADVADVVP'
tp121
F1
s(S'PP'
p122
S'PADVPP'
tp123
F4
s(S'DP'
p124
S'AADAVVP'
tp125
F1
s(S'VP'
p126
S'AAVPP'
tp127
F1
s(S'NP'
S'ANVVVVP'
tp128
F1
s(S'AP'
S'ADVADVADVADVADP'
tp129
F1
s(S'PP'
S'AAPPPP'
tp130
F2
s(S'DP'
S'DPPPP'
tp131
F14
s(S'DP'
p132
S'DDANP'
tp133
F9
s(S'NP'
p134
S'NACP'
tp135
F23
s(S'AP'
S'ADVAVP'
tp136
F2
s(S'NP'
p137
S'NCCP'
tp138
F114
s(S'DP'
S'DADVADVVVP'
tp139
F1
s(S'AP'
S'AAAADP'
tp140
F2
s(S'NP'
p141
S'NNCP'
tp142
F68
s(S'DP'
S'ADVDDPP'
tp143
F5
s(S'NP'
S'NADVADVVP'
tp144
F5
s(g39
S'DDDDP'
tp145
F4
s(S'VP'
p146
S'AVNP'
tp147
F10
s(S'VP'
S'VVADP'
tp148
F1
s(S'CP'
S'CCADVADVADVDP'
tp149
F1
s(S'NP'
S'NADVADVPP'
tp150
F1
s(S'PP'
S'PADVADVANP'
tp151
F1
s(S'PP'
p152
S'ADVPVVP'
tp153
F3
s(S'PP'
S'ADVAPDP'
tp154
F1
s(S'CP'
p155
S'CADVDDAPP'
tp156
F1
s(g52
S'ADVADVAVNP'
tp157
F1
s(S'VP'
S'VADVVP'
tp158
F8
s(S'VP'
S'ADVADVADVVNP'
tp159
F2
s(S'MP'
S'MVAPP'
tp160
F1
s(S'MP'
S'MVPPP'
tp161
F1
s(S'NP'
p162
S'ANADVVP'
tp163
F2
s(S'VP'
S'VAAMP'
tp164
F1
s(S'NP'
S'NNNVP'
tp165
F6
s(S'CP'
p166
S'CCCDP'
tp167
F14
s(g52
S'ADVVAP'
tp168
F9
s(S'VP'
S'VCCCP'
tp169
F3
s(S'PP'
S'PADVVVP'
tp170
F3
s(g16
S'APDP'
tp171
F62
s(S'VP'
S'AVADVAP'
tp172
F1
s(S'MP'
p173
S'MMVP'
tp174
F2
s(S'CP'
S'ADVADVCADVDDDP'
tp175
F1
s(S'AP'
S'AVVVVP'
tp176
F1
s(S'DP'
p177
S'DDANNP'
tp178
F1
s(S'VP'
S'VVANP'
tp179
F6
s(g77
S'ADVPNNP'
tp180
F1
s(S'VP'
S'ADVVVP'
tp181
F1
s(S'DP'
S'ADVDADVPPPP'
tp182
F1
s(S'NP'
S'NAAAAAP'
tp183
F1
s(S'AP'
S'AANP'
tp184
F1
s(S'PP'
p185
S'PCCP'
tp186
F2
s(S'NP'
S'ADVANCP'
tp187
F3
s(g91
S'DNNP'
tp188
F112
s(S'CP'
S'CADVDDPP'
tp189
F1
s(S'DP'
S'DPPPPP'
tp190
F3
s(S'CP'
S'CDDPPPP'
tp191
F2
s(S'CP'
p192
S'CCADVDP'
tp193
F9
s(S'VP'
S'VVNNNP'
tp194
F1
s(S'VP'
S'AAVDDP'
tp195
F1
s(S'DP'
S'ADDNP'
tp196
F2
s(S'DP'
S'ADVVVP'
tp197
F2
s(S'PP'
S'PAAVVP'
tp198
F1
s(S'VP'
p199
S'VADVNNP'
tp200
F2
s(S'DP'
S'DDADVADVADVVP'
tp201
F1
s(g122
S'PPNNNNP'
tp202
F1
s(S'PP'
p203
S'PADVVP'
tp204
F16
s(S'DP'
S'DACP'
tp205
F1
s(S'DP'
S'DADVADVADVPPP'
tp206
F1
s(S'DP'
S'DADVVVP'
tp207
F2
s(S'PP'
S'APAP'
tp208
F3
s(S'AP'
p209
S'APP'
tp210
F95
s(S'AP'
S'ACCCP'
tp211
F1
s(S'NP'
p212
S'NADVMP'
tp213
F1
s(S'PP'
S'PPADP'
tp214
F3
s(S'VP'
p215
S'VADVADVVP'
tp216
F2
s(S'CP'
S'CADVADPP'
tp217
F1
s(S'NP'
S'ADVADVNCCP'
tp218
F1
s(S'NP'
p219
S'ADVANPP'
tp220
F4
s(S'MP'
S'MVVCP'
tp221
F1
s(g132
S'DAAVP'
tp222
F4
s(S'CP'
p223
S'CDDDDPP'
tp224
F5
s(S'PP'
S'PAANP'
tp225
F8
s(S'VP'
S'VADVADVCP'
tp226
F1
s(S'PP'
S'PPVVP'
tp227
F8
s(S'DP'
S'AAADNNNNP'
tp228
F1
s(g114
S'VVADVANP'
tp229
F2
s(S'MP'
S'MVNP'
tp230
F21
s(S'NP'
S'NNNNP'
tp231
F1
s(S'AP'
S'ADVAADP'
tp232
F3
s(S'DP'
S'DADVADVVP'
tp233
F1
s(S'PP'
p234
S'PAVP'
tp235
F37
s(S'MP'
S'ADVMVP'
tp236
F2
s(S'PP'
p237
S'ADVADVPPVP'
tp238
F4
s(S'VP'
S'ADVVMP'
tp239
F1
s(S'VP'
S'VVVPP'
tp240
F9
s(S'NP'
p241
S'NNADP'
tp242
F1
s(S'PP'
S'APPPP'
tp243
F1
s(g39
S'DADP'
tp244
F5
s(S'AP'
S'ADVADP'
tp245
F11
s(S'CP'
S'ADVADVCDP'
tp246
F1
s(S'DP'
S'ADVDDP'
tp247
F1
s(S'PP'
S'APDDP'
tp248
F5
s(S'VP'
p249
S'ADVADVVVNP'
tp250
F1
s(S'PP'
p251
S'PADVADVADVNNP'
tp252
F1
s(S'VP'
S'ADVADVVANP'
tp253
F1
s(S'DP'
p254
S'ADVDDDP'
tp255
F1
s(S'PP'
S'PPCP'
tp256
F2
s(S'NP'
S'AANADVVVP'
tp257
F1
s(S'PP'
S'APVP'
tp258
F18
s(S'MP'
p259
S'MNNCP'
tp260
F1
s(g259
S'MNCP'
tp261
F1
s(S'VP'
S'VVVVNP'
tp262
F1
s(S'VP'
p263
S'VVNP'
tp264
F69
s(S'NP'
S'ANNP'
tp265
F1
s(S'PP'
S'PPPNNP'
tp266
F1
s(S'CP'
S'ADVCCDP'
tp267
F2
s(g48
S'PPVP'
tp268
F61
s(g68
S'VPP'
tp269
F407
s(S'VP'
S'VADVDP'
tp270
F9
s(S'VP'
S'VVADVAP'
tp271
F3
s(S'VP'
S'VAAP'
tp272
F19
s(g65
S'ANDP'
tp273
F24
s(S'NP'
S'NVVP'
tp274
F134
s(g185
S'AAPVP'
tp275
F4
s(S'AP'
S'AAP'
tp276
F8
s(S'VP'
S'VMP'
tp277
F4
s(S'VP'
p278
S'VVNNP'
tp279
F7
s(g25
S'CDAPP'
tp280
F37
s(S'VP'
S'VVAAP'
tp281
F2
s(S'VP'
S'ADVAVADVDDP'
tp282
F1
s(S'DP'
S'ADNP'
tp283
F27
s(S'AP'
S'AAAAADP'
tp284
F1
s(S'DP'
S'ADVDDPPP'
tp285
F1
s(g48
S'PADP'
tp286
F31
s(S'VP'
S'ADVVVCP'
tp287
F3
s(S'DP'
S'ADVDDNP'
tp288
F4
s(S'DP'
p289
S'ADDDDP'
tp290
F1
s(S'DP'
S'ADVADVDVP'
tp291
F1
s(S'DP'
S'DADVAP'
tp292
F3
s(S'PP'
S'ADVADVPMP'
tp293
F1
s(g91
S'DAPP'
tp294
F62
s(S'VP'
S'VVVVPP'
tp295
F3
s(g278
S'ADVADVVPP'
tp296
F4
s(g173
S'MADVADVVNP'
tp297
F2
s(S'VP'
p298
S'VADVADVNP'
tp299
F1
s(S'NP'
S'NNNAVP'
tp300
F1
s(S'VP'
S'ADVADVADVVDP'
tp301
F1
s(g215
S'ADVADVVDP'
tp302
F6
s(S'PP'
S'PPPDP'
tp303
F9
s(S'DP'
S'DADVADVADVAAP'
tp304
F1
s(S'PP'
S'AAAPDP'
tp305
F1
s(S'AP'
S'AAPPP'
tp306
F2
s(S'MP'
S'MAVPP'
tp307
F1
s(S'DP'
S'DAAANP'
tp308
F4
s(S'DP'
S'DADVANP'
tp309
F3
s(S'NP'
S'ANADVVVP'
tp310
F1
s(S'VP'
S'VAAPP'
tp311
F2
s(S'DP'
S'ADVDNP'
tp312
F9
s(S'VP'
S'VVPP'
tp313
F73
s(S'PP'
S'PAVVP'
tp314
F1
s(S'MP'
S'MVPP'
tp315
F14
s(S'DP'
S'ADVP'
tp316
F13
s(S'CP'
S'CDDPPP'
tp317
F8
s(g155
S'ADVADVADVCDDP'
tp318
F1
s(S'NP'
S'NNPP'
tp319
F62
s(S'CP'
S'CCCADVDP'
tp320
F1
s(S'NP'
p321
S'NNNPPPPP'
tp322
F2
s(S'MP'
S'MVVDP'
tp323
F1
s(S'AP'
S'AACP'
tp324
F11
s(S'NP'
p325
S'ANVP'
tp326
F42
s(S'DP'
S'DNNNP'
tp327
F11
s(S'DP'
S'ADVDDVP'
tp328
F2
s(S'VP'
S'VADVADVPPP'
tp329
F2
s(S'PP'
S'PADVADVVP'
tp330
F1
s(g44
S'VADVDDP'
tp331
F4
s(S'PP'
p332
S'PMMP'
tp333
F1
s(S'PP'
S'PVVVP'
tp334
F5
s(S'PP'
S'PMP'
tp335
F8
s(S'PP'
S'PADVADVADVVP'
tp336
F1
s(S'CP'
p337
S'CCDP'
tp338
F141
s(g321
S'ADVNNDP'
tp339
F1
s(S'DP'
S'ADVADVADVDPP'
tp340
F2
s(g126
S'VAAVP'
tp341
F1
s(S'NP'
S'NVVVP'
tp342
F37
s(S'CP'
S'CDDDPP'
tp343
F10
s(S'CP'
S'CDADVADVPP'
tp344
F2
s(S'VP'
p345
S'VVVDP'
tp346
F21
s(S'PP'
S'PDDDDP'
tp347
F1
s(S'PP'
p348
S'PNNNP'
tp349
F10
s(S'NP'
S'ANMMP'
tp350
F1
s(S'PP'
S'APADVNNP'
tp351
F1
s(S'AP'
S'AACCP'
tp352
F1
s(S'PP'
S'AAPNP'
tp353
F3
s(S'VP'
S'ADVVVDP'
tp354
F3
s(g48
S'PPP'
tp355
F162
s(S'NP'
p356
S'NAVP'
tp357
F24
s(S'PP'
S'PADVAP'
tp358
F6
s(S'DP'
S'DDNNNP'
tp359
F5
s(S'PP'
S'PADDP'
tp360
F2
s(S'DP'
S'ADVDVP'
tp361
F8
s(S'NP'
S'NNNADVCCP'
tp362
F1
s(S'NP'
S'NCCCP'
tp363
F7
s(S'DP'
p364
S'DADVADVPPP'
tp365
F2
s(S'AP'
S'AADVVP'
tp366
F1
s(S'PP'
p367
S'PPPPDP'
tp368
F2
s(S'MP'
S'MADVADVVPP'
tp369
F2
s(S'DP'
S'ADVADVDNP'
tp370
F3
s(S'PP'
S'ADVPAADP'
tp371
F1
s(S'DP'
S'ADVDPPPP'
tp372
F1
s(S'NP'
S'ANADVDDP'
tp373
F1
s(g166
S'ACCDP'
tp374
F1
s(S'AP'
S'AAAACP'
tp375
F1
s(S'NP'
S'NNNCP'
tp376
F9
s(S'PP'
S'PADVDP'
tp377
F10
s(S'CP'
S'CDADVAPP'
tp378
F2
s(S'DP'
S'DANNP'
tp379
F6
s(S'MP'
S'MADVVAP'
tp380
F2
s(S'PP'
S'PADVAAP'
tp381
F1
s(g337
S'CDDPP'
tp382
F72
s(S'DP'
S'DAAPP'
tp383
F9
s(g122
S'PVVP'
tp384
F63
s(S'CP'
S'CADPPP'
tp385
F5
s(g39
S'DADVPPP'
tp386
F7
s(S'VP'
S'ADVVCP'
tp387
F10
s(g263
S'VPPP'
tp388
F29
s(S'VP'
S'AVCCP'
tp389
F1
s(S'PP'
S'PPADVADVDP'
tp390
F1
s(S'VP'
S'VVPPP'
tp391
F6
s(S'PP'
S'PPAP'
tp392
F17
s(S'DP'
S'DVVP'
tp393
F47
s(S'PP'
S'PADVAVP'
tp394
F1
s(S'CP'
S'ADVADVCADDP'
tp395
F1
s(S'NP'
S'ANMP'
tp396
F1
s(S'AP'
S'APPP'
tp397
F9
s(S'PP'
S'ADVPPP'
tp398
F2
s(S'DP'
S'ADVADPPP'
tp399
F1
s(S'NP'
p400
S'ADVANVVP'
tp401
F1
s(S'VP'
S'VVVP'
tp402
F7
s(S'CP'
S'CADVDPP'
tp403
F19
s(S'NP'
S'ANCP'
tp404
F71
s(S'DP'
S'DCP'
tp405
F16
s(S'NP'
S'ANNCP'
tp406
F1
s(S'NP'
p407
S'AAANCP'
tp408
F1
s(S'DP'
S'DAAVVP'
tp409
F1
s(S'DP'
S'DADVADVADVNP'
tp410
F1
s(S'NP'
S'NNVVVVP'
tp411
F3
s(S'PP'
S'ADVADVADVPPNP'
tp412
F1
s(g39
S'DDDP'
tp413
F18
s(S'DP'
p414
S'DDADVPP'
tp415
F3
s(S'NP'
p416
S'ANVVP'
tp417
F12
s(S'DP'
S'ADDNNP'
tp418
F1
s(g219
S'NVVVVP'
tp419
F9
s(S'NP'
S'NPPP'
tp420
F43
s(S'PP'
p421
S'PPAPP'
tp422
F1
s(S'DP'
S'DAVP'
tp423
F27
s(S'NP'
S'NNNMP'
tp424
F1
s(S'DP'
S'ADDPPPPP'
tp425
F1
s(S'AP'
S'ACP'
tp426
F83
s(S'PP'
S'ADVADVPPP'
tp427
F1
s(g348
S'PPNP'
tp428
F82
s(S'NP'
S'ADVADVNVP'
tp429
F3
s(S'PP'
S'PPPAP'
tp430
F1
s(S'AP'
S'ADVACCP'
tp431
F3
s(g62
S'NAADP'
tp432
F1
s(S'VP'
S'AVADVCCP'
tp433
F1
s(S'DP'
p434
S'AADVP'
tp435
F1
s(S'CP'
S'CDDADVPP'
tp436
F1
s(S'CP'
S'CCCDDP'
tp437
F1
s(S'AP'
S'ADP'
tp438
F374
s(S'NP'
S'ADVADVNNNCP'
tp439
F1
s(S'CP'
S'CADVDDPPP'
tp440
F1
s(S'DP'
p441
S'DDPPPP'
tp442
F4
s(S'NP'
S'ANPPP'
tp443
F5
s(S'VP'
S'VADVADVADVNP'
tp444
F1
s(S'VP'
S'ADVADVVNNP'
tp445
F1
s(g52
S'AVDP'
tp446
F51
s(S'NP'
S'ANNVP'
tp447
F1
s(S'PP'
S'PCCCP'
tp448
F1
s(S'VP'
S'VVAP'
tp449
F33
s(g416
S'NNAPP'
tp450
F6
s(S'NP'
S'NNADVADVADVVP'
tp451
F1
s(S'CP'
S'ADVACDP'
tp452
F2
s(S'VP'
S'VAAAPP'
tp453
F1
s(g141
S'NPP'
tp454
F502
s(S'PP'
S'PPPPNP'
tp455
F3
s(S'NP'
p456
S'NVP'
tp457
F668
s(S'PP'
p458
S'PAAVP'
tp459
F5
s(g65
S'NAAPP'
tp460
F6
s(g32
S'PPPPVP'
tp461
F3
s(S'VP'
p462
S'VDDP'
tp463
F57
s(S'DP'
S'DAAAAP'
tp464
F1
s(S'AP'
S'AAADVDP'
tp465
F1
s(g364
S'DMP'
tp466
F2
s(S'DP'
S'DADVAPP'
tp467
F2
s(S'NP'
S'NADVADVVVP'
tp468
F2
s(g407
S'ANPP'
tp469
F94
s(S'PP'
p470
S'ADVPPDP'
tp471
F4
s(S'PP'
S'PPPPP'
tp472
F4
s(S'NP'
S'ADVANVVVVP'
tp473
F1
s(S'PP'
p474
S'ADVADVPDP'
tp475
F1
s(S'MP'
S'MVVPP'
tp476
F1
s(S'DP'
S'ADVDPP'
tp477
F30
s(S'DP'
S'DADVADVCCP'
tp478
F1
s(S'NP'
S'NPPPP'
tp479
F5
s(g254
S'ADDP'
tp480
F3
s(S'NP'
S'NADVAAP'
tp481
F2
s(S'CP'
S'CAADPP'
tp482
F5
s(S'DP'
S'DDADVADVPPP'
tp483
F2
s(g456
S'NAACP'
tp484
F4
s(g87
S'PNNP'
tp485
F68
s(S'VP'
S'VADVACP'
tp486
F1
s(g470
S'APNNP'
tp487
F5
s(S'DP'
S'DAAANNP'
tp488
F2
s(S'MP'
S'MMNP'
tp489
F1
s(g101
S'NCCCCCP'
tp490
F1
s(S'DP'
S'AAADPP'
tp491
F1
s(S'VP'
p492
S'AVAP'
tp493
F4
s(g99
S'NNAMP'
tp494
F1
s(S'PP'
S'PADVDDP'
tp495
F2
s(g356
S'ADVNCP'
tp496
F6
s(S'AP'
p497
S'AADP'
tp498
F51
s(S'VP'
S'VAPPP'
tp499
F1
s(g25
S'ACDP'
tp500
F29
s(g122
S'PAAP'
tp501
F31
s(S'AP'
S'ADVANP'
tp502
F2
s(S'NP'
S'NNACP'
tp503
F2
s(S'CP'
S'CDADVPPP'
tp504
F4
s(g462
S'VAP'
tp505
F198
s(S'MP'
S'MVVPPP'
tp506
F1
s(S'MP'
S'MNVVP'
tp507
F1
s(S'DP'
S'DDDPP'
tp508
F15
s(g249
S'VADVADVAAP'
tp509
F1
s(g234
S'ADVPMP'
tp510
F2
s(g185
S'PAAPP'
tp511
F3
s(S'NP'
S'ANADVAP'
tp512
F2
s(S'MP'
S'MVVVDP'
tp513
F1
s(S'AP'
S'ADVADVADVAAAP'
tp514
F1
s(S'VP'
S'ADVADVVVAP'
tp515
F1
s(S'DP'
S'DDDPPP'
tp516
F2
s(S'DP'
S'ADAP'
tp517
F2
s(S'DP'
S'DADVDP'
tp518
F3
s(S'CP'
S'CCADVADP'
tp519
F1
s(g400
S'NAAP'
tp520
F11
s(S'PP'
S'PPPVP'
tp521
F3
s(S'AP'
S'AADDP'
tp522
F1
s(S'PP'
S'PPPADVADVNP'
tp523
F1
s(S'VP'
S'VAANP'
tp524
F1
s(g298
S'ADVVAAAP'
tp525
F1
s(S'NP'
p526
S'NADVADVCP'
tp527
F2
s(g263
S'VVDP'
tp528
F94
s(S'PP'
S'PAAAAP'
tp529
F1
s(S'DP'
S'ADVDADVADVNNNP'
tp530
F1
s(S'VP'
S'VVVVADVAP'
tp531
F1
s(S'PP'
S'PPPDDP'
tp532
F3
s(S'AP'
S'AMMP'
tp533
F1
s(g166
S'CCAADP'
tp534
F2
s(S'PP'
S'ADVPAVP'
tp535
F1
s(S'PP'
S'PANP'
tp536
F50
s(S'PP'
S'PDDDP'
tp537
F2
s(S'DP'
S'ADVADPP'
tp538
F1
s(S'CP'
S'CADVADVADVDPP'
tp539
F1
s(S'NP'
S'AANMP'
tp540
F1
s(S'AP'
S'AAVP'
tp541
F9
s(S'AP'
S'AVVP'
tp542
F12
s(S'NP'
S'NDDP'
tp543
F21
s(S'VP'
S'VVADVDDP'
tp544
F1
s(S'CP'
S'CDDADVADVPPP'
tp545
F1
s(S'PP'
S'ADVPPPNP'
tp546
F1
s(S'AP'
S'ACCP'
tp547
F11
s(S'NP'
S'ADVADVANCP'
tp548
F1
s(S'VP'
S'AVPPP'
tp549
F5
s(g456
S'NDP'
tp550
F191
s(g70
S'AAANVP'
tp551
F2
s(S'NP'
S'NADVADVADVVVP'
tp552
F1
s(S'DP'
p553
S'DDVP'
tp554
F42
s(S'NP'
S'AANVP'
tp555
F6
s(S'DP'
p556
S'ADDVP'
tp557
F1
s(S'VP'
S'VNNNP'
tp558
F5
s(g474
S'ADVPAP'
tp559
F4
s(S'PP'
S'PPPPVVP'
tp560
F1
s(S'PP'
S'APADVDP'
tp561
F1
s(g421
S'PADVMP'
tp562
F1
s(g241
S'NNPPP'
tp563
F5
s(g367
S'PAADP'
tp564
F5
s(S'NP'
S'ADVNNVP'
tp565
F1
s(S'PP'
S'APADVADVVP'
tp566
F1
s(S'VP'
S'VPPPP'
tp567
F4
s(S'NP'
S'ANNPP'
tp568
F5
s(S'VP'
S'VCCP'
tp569
F17
s(S'AP'
S'ADVADVAAVP'
tp570
F1
s(g162
S'NNNDP'
tp571
F2
s(g497
S'ADVACP'
tp572
F7
s(S'VP'
S'AVVDP'
tp573
F2
s(S'NP'
p574
S'NNVP'
tp575
F62
s(S'MP'
S'MVCP'
tp576
F6
s(g337
S'CCDDP'
tp577
F17
s(S'NP'
S'NNADVVP'
tp578
F2
s(g251
S'PPADVADVVP'
tp579
F1
s(S'VP'
S'ADVADVADVVPP'
tp580
F2
s(S'DP'
S'DDADP'
tp581
F1
s(S'NP'
p582
S'NNVVP'
tp583
F17
s(g582
S'NNNNVP'
tp584
F2
s(S'VP'
S'VVCP'
tp585
F20
s(S'VP'
S'VVMP'
tp586
F1
s(S'PP'
S'PADVADVPP'
tp587
F2
s(S'NP'
S'AANCP'
tp588
F9
s(S'VP'
S'VADVNP'
tp589
F5
s(g106
S'VVDDDP'
tp590
F1
s(S'AP'
S'ADVAVVP'
tp591
F3
s(S'NP'
S'NNDDP'
tp592
F5
s(S'VP'
S'ADVVPP'
tp593
F18
s(S'VP'
S'ADVVVPPP'
tp594
F1
s(S'CP'
S'CDAPPP'
tp595
F1
s(g263
S'VNNP'
tp596
F47
s(S'CP'
S'CCCCCDDP'
tp597
F1
s(S'AP'
S'AADVDP'
tp598
F2
s(S'NP'
S'NADP'
tp599
F12
s(g117
S'DDNP'
tp600
F84
s(S'NP'
S'NADVCP'
tp601
F5
s(g553
S'DDNNP'
tp602
F12
s(S'PP'
S'AAPPP'
tp603
F1
s(S'VP'
S'VPPPPP'
tp604
F1
s(S'NP'
S'ADVANVP'
tp605
F2
s(S'NP'
S'ADVADVANPP'
tp606
F1
s(S'NP'
S'ADVADVNCP'
tp607
F1
s(g37
S'AADPP'
tp608
F13
s(S'NP'
S'NNNNPP'
tp609
F1
s(S'DP'
S'DADVADVANP'
tp610
F1
s(S'VP'
S'VVVVCP'
tp611
F2
s(S'MP'
S'MADVVPP'
tp612
F3
s(S'DP'
S'ADVADVADVDAVP'
tp613
F1
s(S'CP'
S'CDPPPPP'
tp614
F3
s(S'NP'
S'ANVVVP'
tp615
F2
s(S'NP'
S'NADVADVCCP'
tp616
F2
s(S'MP'
S'MVVNP'
tp617
F3
s(S'CP'
S'CDDADVPPP'
tp618
F1
s(S'DP'
p619
S'ADVDNNP'
tp620
F4
s(S'CP'
p621
S'ACDDP'
tp622
F8
s(S'DP'
S'DDDDDPP'
tp623
F1
s(S'VP'
S'ADVVCCCP'
tp624
F1
s(S'AP'
S'AAPP'
tp625
F9
s(S'VP'
S'VVCCP'
tp626
F5
s(S'PP'
S'PCP'
tp627
F15
s(S'NP'
S'ADVADVNADVADVVVVP'
tp628
F1
s(S'DP'
S'DADVADVNP'
tp629
F1
s(S'AP'
S'ADVANNP'
tp630
F1
s(S'VP'
S'VVVCCP'
tp631
F1
s(S'NP'
S'NAPP'
tp632
F33
s(S'AP'
S'ADVADVADP'
tp633
F1
s(S'NP'
S'NADVDP'
tp634
F2
s(S'VP'
S'VVVCP'
tp635
F5
s(S'NP'
S'ANCCP'
tp636
F12
s(S'NP'
S'AANPP'
tp637
F11
s(S'VP'
S'VDDDP'
tp638
F8
s(S'NP'
S'NNMP'
tp639
F11
s(S'DP'
S'DDDVP'
tp640
F4
s(g212
S'NNADVCP'
tp641
F1
s(S'PP'
S'PAAAP'
tp642
F1
s(S'PP'
S'ADVADVPNP'
tp643
F1
s(S'VP'
S'VVVDDP'
tp644
F4
s(S'DP'
S'ADVDDAP'
tp645
F1
s(S'CP'
S'CDDAPP'
tp646
F4
s(S'VP'
S'VVVPPP'
tp647
F1
s(S'NP'
S'ANAP'
tp648
F6
s(S'MP'
S'MVAP'
tp649
F6
s(g348
S'PVP'
tp650
F413
s(g30
S'VADVPPP'
tp651
F2
s(S'AP'
S'AADVADVADVCP'
tp652
F1
s(S'VP'
S'VVVVDP'
tp653
F10
s(S'AP'
S'AADVDDP'
tp654
F1
s(S'DP'
S'DVVVP'
tp655
F10
s(S'PP'
S'PPADVPP'
tp656
F1
s(S'NP'
S'ADVADVADVNVP'
tp657
F2
s(S'PP'
S'PPDDP'
tp658
F9
s(S'VP'
S'AVCP'
tp659
F2
s(g14
S'ADVADVPDDP'
tp660
F1
s(S'DP'
S'DPP'
tp661
F705
s(g574
S'ADVNVP'
tp662
F6
s(S'DP'
p663
S'DDPP'
tp664
F135
s(S'DP'
S'DDADVPPP'
tp665
F1
s(g414
S'DDAVP'
tp666
F1
s(g553
S'DANP'
tp667
F180
s(S'AP'
S'ADVAMP'
tp668
F1
s(g134
S'NADVPP'
tp669
F4
s(S'PP'
p670
S'PPADVVP'
tp671
F2
s(S'PP'
S'ADVADVPPNP'
tp672
F1
s(S'NP'
S'AANADVVP'
tp673
F1
s(S'NP'
S'NAAVP'
tp674
F2
s(S'PP'
S'APADVDDP'
tp675
F1
s(S'DP'
S'AADNP'
tp676
F4
s(S'DP'
S'ADVDDAPP'
tp677
F1
s(g162
S'NNAPPP'
tp678
F1
s(S'VP'
S'VADVCP'
tp679
F2
s(g526
S'ANNDDP'
tp680
F1
s(S'NP'
S'NNNNCP'
tp681
F4
s(S'MP'
p682
S'MDNP'
tp683
F2
s(S'MP'
S'MNAVP'
tp684
F1
s(S'NP'
S'NNNVVP'
tp685
F3
s(S'PP'
S'PADVPPP'
tp686
F4
s(S'NP'
S'NNP'
tp687
F1
s(S'DP'
S'DCCP'
tp688
F1
s(S'DP'
S'AADDP'
tp689
F2
s(S'PP'
S'AAPDP'
tp690
F8
s(S'MP'
S'MADVVDP'
tp691
F8
s(S'MP'
S'MVPPPPP'
tp692
F1
s(S'DP'
S'DDADVVP'
tp693
F2
s(g48
S'PDDP'
tp694
F85
s(g682
S'MVDDP'
tp695
F2
s(S'NP'
S'NNNNMP'
tp696
F1
s(S'DP'
S'ADPPP'
tp697
F5
s(S'PP'
S'PPPPADP'
tp698
F1
s(S'PP'
p699
S'APAAP'
tp700
F1
s(S'NP'
S'NAANP'
tp701
F1
s(g146
S'VVDDP'
tp702
F6
s(S'DP'
S'DAANP'
tp703
F27
s(S'AP'
S'ADDP'
tp704
F24
s(S'PP'
S'PNNNNP'
tp705
F3
s(S'VP'
S'ADVVVAP'
tp706
F3
s(g458
S'ADVPPNP'
tp707
F6
s(S'NP'
S'ADVADVNVVP'
tp708
F1
s(S'VP'
S'ADVADVVVVAP'
tp709
F1
s(S'CP'
S'CADVADVDPP'
tp710
F2
s(S'CP'
S'ADVADVADVCDP'
tp711
F1
s(g91
S'DPPP'
tp712
F140
s(S'CP'
S'CADVDADVPPPP'
tp713
F1
s(S'DP'
S'AADPPP'
tp714
F2
s(S'VP'
S'VANNP'
tp715
F1
s(S'AP'
S'AAAP'
tp716
F1
s(S'NP'
S'NNAVP'
tp717
F1
s(S'DP'
S'ADDADVPP'
tp718
F1
s(S'DP'
S'DDADVADVNP'
tp719
F1
s(S'PP'
S'ADVPNP'
tp720
F11
s(S'PP'
S'PPDP'
tp721
F69
s(S'MP'
S'MADP'
tp722
F1
s(S'CP'
S'CCDDDDDP'
tp723
F1
s(g441
S'ADVDCP'
tp724
F1
s(S'DP'
S'DDADVANP'
tp725
F1
s(S'MP'
S'MVVAP'
tp726
F1
s(S'CP'
S'CCADVADVDDP'
tp727
F1
s(S'AP'
S'ADVADVAADP'
tp728
F1
s(S'MP'
S'MMAVP'
tp729
F1
s(S'MP'
S'AAMDP'
tp730
F1
s(g456
S'NAP'
tp731
F92
s(S'NP'
S'NNAAP'
tp732
F1
s(g203
S'ADVADVPPPP'
tp733
F1
s(S'VP'
S'VADVANP'
tp734
F1
s(S'DP'
S'DADVADVADVADVNNP'
tp735
F1
s(S'VP'
S'ADVAVNP'
tp736
F1
s(g263
S'VVP'
tp737
F53
s(S'DP'
S'DDAPP'
tp738
F7
s(S'PP'
S'ADVADVPVP'
tp739
F3
s(S'AP'
S'AAADP'
tp740
F7
s(g77
S'APNP'
tp741
F35
s(g289
S'DDDAPP'
tp742
F1
s(g619
S'DDVVP'
tp743
F11
s(S'AP'
S'AAADDP'
tp744
F1
s(S'VP'
S'VVVNP'
tp745
F14
s(S'NP'
S'NNADVPP'
tp746
F1
s(S'NP'
S'AANVVP'
tp747
F4
s(S'MP'
S'MVANP'
tp748
F1
s(g556
S'ADVADVDDPP'
tp749
F2
s(S'MP'
S'MVNNP'
tp750
F4
s(S'AP'
S'AAADVPP'
tp751
F1
s(S'CP'
S'CDPP'
tp752
F561
s(S'NP'
S'NNCCCP'
tp753
F2
s(S'AP'
S'ADDDP'
tp754
F1
s(S'CP'
S'ADVCADP'
tp755
F1
s(S'DP'
S'ADVDVVP'
tp756
F1
s(S'PP'
S'APNNNP'
tp757
F1
s(S'CP'
S'ADVCDP'
tp758
F7
s(g278
S'ADVADVVNP'
tp759
F6
s(S'NP'
S'NADVADVADVCP'
tp760
F1
s(S'VP'
S'ADVADVVCP'
tp761
F2
s(S'VP'
S'VADVADVDP'
tp762
F3
s(S'PP'
S'PPNNP'
tp763
F8
s(S'PP'
S'ADVAPPP'
tp764
F1
s(g670
S'PPMP'
tp765
F1
s(S'DP'
S'ADVADVDPP'
tp766
F4
s(g462
S'VDP'
tp767
F561
s(S'NP'
S'NADVAP'
tp768
F4
s(S'VP'
S'AVDDP'
tp769
F7
s(S'DP'
S'DADVNP'
tp770
F3
s(S'DP'
S'DAP'
tp771
F68
s(S'MP'
S'MCADVDP'
tp772
F1
s(g192
S'CADPP'
tp773
F36
s(S'PP'
S'PPAVP'
tp774
F4
s(S'MP'
S'MADVADVVDP'
tp775
F1
s(S'VP'
S'AVPP'
tp776
F14
s(S'CP'
S'CAADPPP'
tp777
F1
s(S'DP'
S'DDNNNNP'
tp778
F2
s(S'VP'
S'VVADVDP'
tp779
F2
s(S'CP'
S'CDDPPPPP'
tp780
F1
s(S'CP'
S'CDPPPP'
tp781
F10
s(g345
S'AAVDP'
tp782
F8
s(S'DP'
S'AADNNP'
tp783
F1
s(g77
S'APPP'
tp784
F10
s(g237
S'PPADVADVPPP'
tp785
F2
s(g177
S'DAPPP'
tp786
F1
s(S'DP'
S'DADVADVPP'
tp787
F6
s(g325
S'NNNNDP'
tp788
F1
s(S'PP'
S'PPPNP'
tp789
F8
s(S'CP'
p790
S'ADVADVCAADP'
tp791
F1
s(g152
S'APADVPP'
tp792
F1
s(S'NP'
S'AAANPP'
tp793
F2
s(S'PP'
S'PADVADVNP'
tp794
F2
s(S'VP'
S'ADVADVVAP'
tp795
F1
s(g117
S'ADPP'
tp796
F65
s(S'NP'
S'NNADVVVP'
tp797
F1
s(S'VP'
S'VADVPP'
tp798
F2
s(S'CP'
S'CCADVDDP'
tp799
F1
s(S'PP'
S'PVVVVP'
tp800
F2
s(g122
S'ADVPVP'
tp801
F11
s(g117
S'DDDDPP'
tp802
F5
s(S'NP'
S'NNVVVP'
tp803
F3
s(S'VP'
S'ADVVANP'
tp804
F3
s(g332
S'PAMP'
tp805
F1
s(S'PP'
S'ADVPDP'
tp806
F7
s(S'NP'
S'ADVNNPP'
tp807
F1
s(S'MP'
S'MVADVAP'
tp808
F1
s(g137
S'NCP'
tp809
F437
s(S'VP'
S'ADVADVVVPP'
tp810
F1
s(g492
S'ADVVVPP'
tp811
F7
s(S'DP'
S'DDADVVVP'
tp812
F1
s(S'DP'
S'ADVVP'
tp813
F3
s(S'CP'
S'CDDADVADVPP'
tp814
F1
s(S'VP'
S'VAADP'
tp815
F5
s(g699
S'ADVPDDP'
tp816
F3
s(S'VP'
S'AAVVDP'
tp817
F3
s(S'NP'
S'AANDP'
tp818
F4
s(g434
S'DADVNNP'
tp819
F1
s(g137
S'NNCCP'
tp820
F11
s(S'MP'
S'MADVADVAVNP'
tp821
F1
s(S'NP'
S'NNNADVDP'
tp822
F1
s(S'CP'
S'ADVADVCCDP'
tp823
F3
s(S'NP'
S'AANCCP'
tp824
F2
s(S'PP'
S'PADVADVAP'
tp825
F1
s(g199
S'VAPP'
tp826
F22
s(S'VP'
S'ADVVDP'
tp827
F35
s(S'VP'
S'VADDP'
tp828
F3
s(S'NP'
S'ADVADVADVNNVP'
tp829
F1
s(S'DP'
S'DADVPP'
tp830
F26
s(S'AP'
S'AMP'
tp831
F1
s(g621
S'CCADP'
tp832
F5
s(S'NP'
S'ADVADVADVADVNNDP'
tp833
F1
s(g574
S'ADVNNCP'
tp834
F3
s(S'AP'
S'ADVAPP'
tp835
F15
s(S'PP'
S'ADVADVPVVP'
tp836
F1
s(g223
S'AACDP'
tp837
F4
s(S'NP'
S'NNNCCP'
tp838
F1
s(g790
S'CCDDDP'
tp839
F3
s(S'MP'
S'MADVADVVNNP'
tp840
F1
s(S'DP'
S'ADVDPPP'
tp841
F3
s(g117
S'DVP'
tp842
F441
s(g30
S'AVNNP'
tp843
F4
s(S'NP'
S'ADVNPP'
tp844
F2
s(S'VP'
S'ADVADVADVVVNP'
tp845
F1
s(S'CP'
S'AAACDP'
tp846
F1
s(g209
S'AVP'
tp847
F54
s(S'NP'
S'NADVVP'
tp848
F36
s(S'NP'
S'AAANNVP'
tp849
F2
s(S'AP'
S'AACCCP'
tp850
F1
s(g663
S'DDPPP'
tp851
F17
s(S'MP'
S'MADVADVADVVDP'
tp852
F1
s(S'NP'
S'ADVNMP'
tp853
F6
s(S'NP'
S'NNAP'
tp854
F12
s(S'MP'
S'MADVVCP'
tp855
F1
s(S'PP'
S'PPANP'
tp856
F3
s(S'CP'
S'CDADVPP'
tp857
F18
s(S'VP'
S'VNP'
tp858
F383
s(S'VP'
S'VANP'
tp859
F22
s(g263
S'VADVAP'
tp860
F24
s(g124
S'DDDDAPP'
tp861
F1
s(S'VP'
S'VVVAP'
tp862
F2
s(S'DP'
S'DDDDVP'
tp863
F1
s(S'NP'
S'NADVPPP'
tp864
F1
s.