ccollections
defaultdict
p1
(c__builtin__
float
p2
tRp3
(S'DP'
S'ADDPP'
tp4
F2
s(S'NP'
S'ADVNNMP'
tp5
F1
s(S'DP'
S'DDAP'
tp6
F1
s(S'VP'
S'ADVVVNP'
tp7
F5
s(S'AP'
S'AADDDP'
tp8
F1
s(S'CP'
S'CCDDDDP'
tp9
F1
s(S'NP'
p10
S'ADVANADVVP'
tp11
F1
s(S'DP'
S'DAANNP'
tp12
F1
s(S'VP'
S'ADVADVADVVVADVAP'
tp13
F1
s(S'PP'
S'PAAANNP'
tp14
F1
s(S'AP'
S'AVVVP'
tp15
F1
s(S'PP'
p16
S'PAPP'
tp17
F18
s(S'PP'
S'PADVNP'
tp18
F20
s(S'DP'
S'DNP'
tp19
F542
s(S'NP'
S'ANCCCP'
tp20
F1
s(S'NP'
S'ADVNDP'
tp21
F2
s(S'PP'
S'AAPDDP'
tp22
F1
s(S'CP'
p23
S'CDPPP'
tp24
F100
s(S'PP'
S'ADVPPANP'
tp25
F2
s(S'VP'
p26
S'VADP'
tp27
F29
s(S'DP'
S'DNNNNP'
tp28
F1
s(S'DP'
p29
S'DAAP'
tp30
F4
s(S'VP'
S'AAVPPP'
tp31
F1
s(S'PP'
p32
S'PPPPPP'
tp33
F2
s(S'VP'
S'VAVP'
tp34
F2
s(g32
S'APPDP'
tp35
F2
s(S'DP'
p36
S'DAADP'
tp37
F1
s(S'DP'
S'ADNNP'
tp38
F7
s(S'MP'
S'MDVP'
tp39
F2
s(S'PP'
S'APVP'
tp40
F19
s(S'DP'
S'DADVADVMP'
tp41
F1
s(S'PP'
S'PADVANP'
tp42
F1
s(S'NP'
S'AANNPP'
tp43
F1
s(S'PP'
S'PPPP'
tp44
F37
s(S'VP'
S'ADVADVADVVAANP'
tp45
F1
s(S'AP'
S'ADVAPPP'
tp46
F1
s(S'DP'
S'DDDNP'
tp47
F4
s(S'VP'
S'VACP'
tp48
F11
s(S'DP'
S'DADVVP'
tp49
F5
s(S'PP'
p50
S'PMP'
tp51
F17
s(S'PP'
S'PADVNNP'
tp52
F2
s(S'AP'
S'AADVPP'
tp53
F1
s(S'NP'
S'NADVACP'
tp54
F1
s(S'NP'
S'NDDDP'
tp55
F1
s(S'NP'
S'NADVVVP'
tp56
F15
s(S'CP'
S'CADVDAPP'
tp57
F3
s(S'NP'
S'ANADVPP'
tp58
F1
s(g26
S'VCP'
tp59
F183
s(S'MP'
S'MVVANP'
tp60
F1
s(S'NP'
p61
S'NMMP'
tp62
F11
s(S'DP'
S'DDDDADVVP'
tp63
F1
s(S'VP'
S'ADVVCCP'
tp64
F2
s(S'PP'
S'PAP'
tp65
F154
s(S'NP'
S'ADVNNDP'
tp66
F1
s(S'CP'
S'CDADVADVADVPP'
tp67
F1
s(S'MP'
S'MVADVNP'
tp68
F1
s(S'VP'
S'VADVNP'
tp69
F8
s(S'NP'
S'NNNAP'
tp70
F1
s(S'NP'
p71
S'ANPPP'
tp72
F4
s(S'VP'
S'VADVANP'
tp73
F3
s(S'PP'
p74
S'PNP'
tp75
F475
s(S'VP'
p76
S'VVADVADVNP'
tp77
F1
s(S'DP'
p78
S'DDP'
tp79
F86
s(S'DP'
p80
S'AADAAP'
tp81
F1
s(S'PP'
S'PPMMP'
tp82
F1
s(S'NP'
p83
S'NNNPP'
tp84
F2
s(S'NP'
p85
S'NNDP'
tp86
F30
s(S'VP'
p87
S'ADVVVDDP'
tp88
F1
s(S'MP'
p89
S'MCDP'
tp90
F4
s(S'CP'
p91
S'AACCDP'
tp92
F1
s(g36
S'DDAANP'
tp93
F3
s(S'VP'
S'ADVVVDP'
tp94
F5
s(S'DP'
S'DADVDDP'
tp95
F1
s(S'MP'
S'MNAP'
tp96
F1
s(S'PP'
S'PPPNNP'
tp97
F2
s(S'VP'
p98
S'ADVADVVVCP'
tp99
F2
s(g61
S'NMP'
tp100
F121
s(S'MP'
S'MAVDDP'
tp101
F1
s(S'NP'
S'ADVNAPP'
tp102
F1
s(S'CP'
S'CADVDADVPP'
tp103
F1
s(S'VP'
p104
S'AAVNP'
tp105
F2
s(S'VP'
S'VMMP'
tp106
F1
s(S'PP'
S'PDP'
tp107
F480
s(S'CP'
S'CCADVADVDP'
tp108
F3
s(S'PP'
p109
S'PPADVVP'
tp110
F1
s(S'MP'
S'MADVVNP'
tp111
F6
s(S'CP'
S'CDADVADVPPP'
tp112
F2
s(S'NP'
S'NNADVADVADVVVP'
tp113
F1
s(S'NP'
p114
S'NACCP'
tp115
F2
s(S'AP'
S'ANP'
tp116
F2
s(S'NP'
S'NADVADVADVVP'
tp117
F2
s(g50
S'PADVPP'
tp118
F3
s(S'NP'
S'NNADVCP'
tp119
F2
s(S'VP'
S'VVADVNP'
tp120
F1
s(S'PP'
p121
S'PPADVAP'
tp122
F1
s(S'DP'
S'DPPPP'
tp123
F16
s(S'DP'
S'DDANP'
tp124
F3
s(S'DP'
p125
S'ADNNNP'
tp126
F1
s(S'NP'
p127
S'NACP'
tp128
F25
s(S'AP'
S'ADVAVP'
tp129
F2
s(S'NP'
p130
S'NCCP'
tp131
F110
s(S'AP'
S'AAAADP'
tp132
F3
s(S'MP'
S'MADVADVVAAP'
tp133
F1
s(S'VP'
p134
S'VVVVVP'
tp135
F1
s(S'NP'
p136
S'NNCP'
tp137
F82
s(S'DP'
S'ADVDDPP'
tp138
F9
s(S'NP'
S'NADVADVVP'
tp139
F6
s(S'DP'
p140
S'DDDDP'
tp141
F2
s(S'DP'
S'DDAPP'
tp142
F4
s(S'VP'
S'AVNP'
tp143
F10
s(S'VP'
S'VVADP'
tp144
F3
s(S'CP'
S'CCADVADVADVDP'
tp145
F1
s(S'NP'
S'NADVADVPP'
tp146
F1
s(S'VP'
S'VVNNNP'
tp147
F1
s(S'PP'
S'ADVPVVP'
tp148
F1
s(S'PP'
p149
S'ADVAPDP'
tp150
F2
s(S'VP'
p151
S'VADVVP'
tp152
F8
s(S'NP'
S'ADVADVADVNMP'
tp153
F2
s(S'MP'
S'MVAPP'
tp154
F1
s(S'MP'
S'MVPPP'
tp155
F3
s(S'NP'
S'ANADVVP'
tp156
F1
s(S'DP'
S'DADVAP'
tp157
F4
s(S'CP'
S'CCCDP'
tp158
F5
s(S'VP'
S'ADVVAP'
tp159
F8
s(S'PP'
S'ADVPPNNP'
tp160
F1
s(S'VP'
S'VCCCP'
tp161
F1
s(S'MP'
S'MVCCCCP'
tp162
F1
s(S'AP'
S'AAADDP'
tp163
F2
s(g16
S'APDP'
tp164
F60
s(S'VP'
p165
S'ADVVNNP'
tp166
F4
s(S'AP'
S'AADVCP'
tp167
F2
s(S'DP'
p168
S'DDANNP'
tp169
F1
s(S'VP'
p170
S'VVANP'
tp171
F7
s(S'NP'
S'NNADVDP'
tp172
F1
s(S'PP'
p173
S'ADVPNNP'
tp174
F1
s(S'VP'
S'ADVVVP'
tp175
F2
s(S'CP'
S'ADVACDP'
tp176
F1
s(S'DP'
S'DADVADVADVPP'
tp177
F2
s(S'AP'
S'AAPP'
tp178
F8
s(S'MP'
S'MAVNP'
tp179
F3
s(S'PP'
S'PAAP'
tp180
F20
s(g85
S'NANP'
tp181
F3
s(S'DP'
p182
S'DNNP'
tp183
F109
s(S'CP'
S'CADVDDPP'
tp184
F4
s(S'DP'
S'DPPPPP'
tp185
F3
s(S'VP'
S'AVVNNP'
tp186
F1
s(S'CP'
S'CCADVDP'
tp187
F5
s(S'PP'
S'PPAADP'
tp188
F1
s(S'VP'
S'VVACP'
tp189
F1
s(S'VP'
S'AAVDDP'
tp190
F1
s(g168
S'ADDNP'
tp191
F1
s(S'NP'
S'NNNVP'
tp192
F9
s(S'PP'
S'PPAAPP'
tp193
F1
s(S'NP'
S'NNNNACP'
tp194
F1
s(S'VP'
S'VADVNNP'
tp195
F2
s(S'PP'
S'AAPPDP'
tp196
F1
s(S'VP'
S'VVANNP'
tp197
F1
s(S'PP'
p198
S'PADVVP'
tp199
F12
s(S'CP'
S'CADVADVADVDAPP'
tp200
F1
s(S'PP'
S'APAP'
tp201
F2
s(S'VP'
S'ADVADVVDDP'
tp202
F1
s(S'AP'
p203
S'APP'
tp204
F68
s(S'AP'
S'ACCCP'
tp205
F2
s(S'CP'
p206
S'CADPPPPP'
tp207
F1
s(S'DP'
S'DADVADVADVADVVVP'
tp208
F1
s(S'AP'
S'AAP'
tp209
F10
s(S'VP'
S'VADVADVVP'
tp210
F1
s(S'VP'
S'VVAPP'
tp211
F4
s(g198
S'PAAAAVP'
tp212
F1
s(S'NP'
S'ADVANPP'
tp213
F4
s(S'DP'
S'DAAVP'
tp214
F4
s(S'CP'
S'CDDDDPP'
tp215
F1
s(S'PP'
S'PAANP'
tp216
F7
s(S'DP'
S'DDADVADVVP'
tp217
F1
s(S'VP'
S'VVVANP'
tp218
F1
s(S'NP'
p219
S'ANVP'
tp220
F38
s(S'MP'
S'MVNP'
tp221
F31
s(S'MP'
S'MNDP'
tp222
F1
s(S'AP'
S'ADVAADP'
tp223
F1
s(S'DP'
S'ADVADNP'
tp224
F1
s(g173
S'PAVP'
tp225
F21
s(S'CP'
S'CDADVADVPP'
tp226
F1
s(S'PP'
p227
S'ADVADVPPVP'
tp228
F1
s(S'MP'
S'MADVVADVAP'
tp229
F1
s(S'VP'
p230
S'VVVPP'
tp231
F10
s(S'NP'
S'NNADP'
tp232
F1
s(S'CP'
S'CDDDADVAPP'
tp233
F1
s(S'MP'
S'MADVVADVANP'
tp234
F1
s(S'PP'
p235
S'APPPP'
tp236
F3
s(S'DP'
S'DADP'
tp237
F3
s(S'VP'
S'VVAANP'
tp238
F1
s(S'AP'
S'ADVADP'
tp239
F3
s(S'CP'
S'ADVADVCDP'
tp240
F1
s(g87
S'VVADVPP'
tp241
F2
s(S'DP'
S'ADVDDP'
tp242
F3
s(S'PP'
S'APDDP'
tp243
F6
s(S'VP'
p244
S'ADVADVVVNP'
tp245
F1
s(S'DP'
S'DDVVVVP'
tp246
F1
s(S'PP'
S'PPCP'
tp247
F1
s(S'NP'
S'AANADVVVP'
tp248
F1
s(S'VP'
S'ADVVNP'
tp249
F14
s(S'MP'
S'MNCP'
tp250
F2
s(S'VP'
S'ADVADVADVVCP'
tp251
F2
s(S'VP'
p252
S'VVNP'
tp253
F65
s(S'NP'
S'ANNP'
tp254
F1
s(S'PP'
p255
S'ADVPPPP'
tp256
F3
s(g16
S'PPVP'
tp257
F65
s(S'MP'
S'MVDP'
tp258
F44
s(S'VP'
p259
S'VADVDP'
tp260
F9
s(S'MP'
S'MVVVPP'
tp261
F1
s(S'VP'
S'VVADVAP'
tp262
F1
s(g230
S'VAAP'
tp263
F28
s(S'NP'
S'ANDP'
tp264
F22
s(S'NP'
p265
S'NVVP'
tp266
F123
s(S'PP'
S'PPADP'
tp267
F3
s(S'VP'
S'VMP'
tp268
F7
s(S'VP'
p269
S'VVNNP'
tp270
F6
s(S'CP'
p271
S'CDAPP'
tp272
F60
s(S'VP'
S'VVAAP'
tp273
F2
s(S'AP'
p274
S'AACCCP'
tp275
F1
s(S'VP'
S'ADVADVVVNNP'
tp276
F1
s(S'DP'
p277
S'ADNP'
tp278
F32
s(S'MP'
S'ADVADVMVP'
tp279
F2
s(S'PP'
S'PADP'
tp280
F35
s(S'VP'
S'ADVVVCP'
tp281
F2
s(S'AP'
S'AAAACP'
tp282
F1
s(S'NP'
S'ANDDP'
tp283
F5
s(S'VP'
S'VVVDDP'
tp284
F4
s(S'DP'
S'DDADVDP'
tp285
F1
s(g78
S'DAPP'
tp286
F79
s(S'NP'
S'ANNNNVP'
tp287
F1
s(S'VP'
S'AVVP'
tp288
F2
s(S'VP'
p289
S'ADVADVVPP'
tp290
F2
s(S'PP'
S'ADVADVADVPPP'
tp291
F1
s(S'MP'
S'MDDNP'
tp292
F1
s(g83
S'ADVNNPP'
tp293
F1
s(S'VP'
p294
S'ADVADVVDP'
tp295
F2
s(S'VP'
S'AVVNP'
tp296
F1
s(g109
S'PPPDP'
tp297
F1
s(S'DP'
S'DAAPPP'
tp298
F1
s(S'MP'
S'MVVVDP'
tp299
F1
s(g294
S'VVAACCP'
tp300
F1
s(S'AP'
S'AAPPP'
tp301
F1
s(S'DP'
S'DAAANP'
tp302
F1
s(S'DP'
p303
S'DADVANP'
tp304
F3
s(S'NP'
S'ANADVVVP'
tp305
F2
s(g289
S'VAAPP'
tp306
F2
s(S'DP'
p307
S'ADVDNP'
tp308
F7
s(S'VP'
p309
S'VVPP'
tp310
F53
s(S'VP'
S'VADVAPP'
tp311
F1
s(S'PP'
S'PAVVP'
tp312
F1
s(S'MP'
p313
S'MVPP'
tp314
F20
s(S'CP'
S'CADVADVDDPP'
tp315
F1
s(S'MP'
S'MVADP'
tp316
F1
s(S'CP'
S'CDDPPP'
tp317
F21
s(g130
S'NNNNNCCP'
tp318
F1
s(S'VP'
S'ADVADVADVVDP'
tp319
F2
s(S'NP'
S'NNPP'
tp320
F41
s(S'DP'
S'DDDDNP'
tp321
F1
s(g89
S'MVVDP'
tp322
F4
s(S'AP'
S'AACP'
tp323
F16
s(S'PP'
S'PPVVP'
tp324
F12
s(S'VP'
S'VVADVCCP'
tp325
F1
s(S'DP'
p326
S'DNNNP'
tp327
F5
s(S'DP'
S'ADVDADVPP'
tp328
F1
s(S'DP'
S'ADVDDVP'
tp329
F2
s(S'PP'
S'PADVADVVP'
tp330
F1
s(S'VP'
S'VADVDDP'
tp331
F3
s(S'PP'
S'PMMP'
tp332
F1
s(S'PP'
S'PVVVP'
tp333
F7
s(S'VP'
S'ADVVVANP'
tp334
F1
s(S'NP'
S'NNMMP'
tp335
F2
s(S'CP'
p336
S'CCDP'
tp337
F174
s(S'NP'
S'ANNDP'
tp338
F2
s(S'DP'
S'ADVADVADVDPP'
tp339
F3
s(S'MP'
S'AMVP'
tp340
F3
s(S'PP'
S'PPNNNP'
tp341
F1
s(S'DP'
S'AADDPP'
tp342
F1
s(S'AP'
S'AAACP'
tp343
F2
s(S'NP'
p344
S'NVVVP'
tp345
F22
s(S'CP'
S'CDDDPP'
tp346
F8
s(g206
S'CDAAPP'
tp347
F4
s(S'VP'
p348
S'VVVDP'
tp349
F18
s(S'PP'
S'PDDDDP'
tp350
F1
s(S'PP'
S'PNNNP'
tp351
F8
s(S'PP'
p352
S'PVP'
tp353
F423
s(S'CP'
S'CCCCDP'
tp354
F3
s(S'VP'
S'VADVADVADVDDP'
tp355
F1
s(S'PP'
S'APADVNNP'
tp356
F1
s(S'AP'
S'AACCP'
tp357
F1
s(S'PP'
p358
S'AAPNP'
tp359
F3
s(S'PP'
S'PADVVVP'
tp360
F2
s(g352
S'PPP'
tp361
F182
s(g219
S'NNVVP'
tp362
F20
s(S'NP'
p363
S'NAVP'
tp364
F28
s(S'PP'
S'PADVAP'
tp365
F2
s(S'DP'
S'DDNNNP'
tp366
F2
s(S'VP'
S'VCCCCP'
tp367
F1
s(g344
S'ANADVCCP'
tp368
F1
s(g307
S'ADVDVP'
tp369
F7
s(S'PP'
S'PPADVADVNP'
tp370
F1
s(S'NP'
S'NAAAP'
tp371
F4
s(S'NP'
S'NCCCP'
tp372
F2
s(S'DP'
S'DADVADVPPP'
tp373
F2
s(S'AP'
S'AADVVP'
tp374
F3
s(g307
S'DAAAP'
tp375
F1
s(S'DP'
S'ADVADVDNP'
tp376
F1
s(S'VP'
S'VAAAAP'
tp377
F1
s(g294
S'VPP'
tp378
F300
s(S'PP'
p379
S'AAAPPDP'
tp380
F1
s(S'CP'
p381
S'ADVCCDP'
tp382
F8
s(S'CP'
S'ACCDP'
tp383
F3
s(S'DP'
S'ADVDDNP'
tp384
F4
s(S'NP'
S'AANPPP'
tp385
F1
s(S'NP'
S'NNNCP'
tp386
F12
s(S'PP'
p387
S'PADVDP'
tp388
F7
s(S'CP'
S'CDADVAPP'
tp389
F2
s(S'CP'
S'CDDDPPP'
tp390
F1
s(S'DP'
S'DANNP'
tp391
F1
s(S'MP'
S'MADVVAP'
tp392
F2
s(g336
S'CDDPP'
tp393
F78
s(S'DP'
p394
S'DAAPP'
tp395
F7
s(g352
S'PVVP'
tp396
F65
s(g91
S'CADPPP'
tp397
F8
s(S'DP'
S'DADVPPP'
tp398
F9
s(S'VP'
S'ADVVCP'
tp399
F15
s(S'VP'
p400
S'VPPP'
tp401
F35
s(S'NP'
S'ADVADVADVNMMP'
tp402
F1
s(S'VP'
S'VVPPP'
tp403
F2
s(S'DP'
S'ADVDADVANP'
tp404
F1
s(S'VP'
S'ADVVVCCP'
tp405
F1
s(S'PP'
p406
S'PPAP'
tp407
F16
s(S'DP'
p408
S'DVVP'
tp409
F40
s(S'PP'
S'PADVAVP'
tp410
F2
s(S'NP'
p411
S'ANMP'
tp412
F7
s(S'PP'
S'ADVPPP'
tp413
F2
s(S'NP'
S'ADVADVNVP'
tp414
F2
s(g76
S'VVVP'
tp415
F12
s(g271
S'CADVDPP'
tp416
F28
s(S'PP'
S'PPDDDP'
tp417
F1
s(S'DP'
S'AADANNNNP'
tp418
F1
s(S'NP'
p419
S'ANCP'
tp420
F67
s(S'DP'
S'DCP'
tp421
F27
s(S'MP'
p422
S'MVVPPP'
tp423
F1
s(S'DP'
S'DDDNNP'
tp424
F1
s(S'PP'
S'PPADVPP'
tp425
F1
s(S'NP'
S'NNVVVVP'
tp426
F1
s(g303
S'DDDP'
tp427
F15
s(S'DP'
S'ADVADVADVDNNP'
tp428
F1
s(S'NP'
S'ANNVVP'
tp429
F2
s(S'NP'
p430
S'ANVVP'
tp431
F9
s(S'NP'
p432
S'NVVVVP'
tp433
F6
s(S'NP'
S'NPPP'
tp434
F42
s(S'DP'
S'ADDDP'
tp435
F1
s(S'VP'
S'ADVVNNNP'
tp436
F1
s(S'DP'
S'AADVVP'
tp437
F1
s(S'DP'
p438
S'DAVP'
tp439
F19
s(S'VP'
S'VADVADVAP'
tp440
F5
s(S'AP'
S'ACP'
tp441
F75
s(S'VP'
S'VVVVP'
tp442
F2
s(g74
S'PPNP'
tp443
F88
s(S'MP'
S'MADVVPP'
tp444
F1
s(S'DP'
S'ADVDAPP'
tp445
F4
s(S'DP'
S'AADVP'
tp446
F5
s(S'CP'
S'CDDADVPP'
tp447
F1
s(S'CP'
S'CCCDDP'
tp448
F1
s(g203
S'ADP'
tp449
F278
s(g381
S'CCCDDDP'
tp450
F2
s(S'DP'
p451
S'DDADVVP'
tp452
F1
s(S'CP'
S'CADVDDPPP'
tp453
F1
s(S'DP'
S'DDAVP'
tp454
F2
s(S'PP'
S'APVVP'
tp455
F4
s(S'VP'
S'VADVADVADVNP'
tp456
F1
s(S'NP'
p457
S'ADVANCCP'
tp458
F1
s(S'NP'
S'AAANNCP'
tp459
F1
s(S'PP'
p460
S'ADVPAAVP'
tp461
F1
s(g32
S'APPAP'
tp462
F1
s(S'AP'
p463
S'AAADP'
tp464
F10
s(S'VP'
p465
S'VVAP'
tp466
F15
s(S'PP'
S'PPAAAAP'
tp467
F1
s(g451
S'ADVADVDDPPP'
tp468
F1
s(S'PP'
p469
S'ADVPPADVNP'
tp470
F1
s(S'PP'
S'PADVADVDP'
tp471
F1
s(S'CP'
S'CADPPPP'
tp472
F2
s(S'VP'
S'VVVVADVDP'
tp473
F1
s(S'NP'
S'NPP'
tp474
F371
s(S'VP'
S'ADVADVVAP'
tp475
F2
s(g265
S'NVP'
tp476
F530
s(S'CP'
S'CADVADPP'
tp477
F1
s(S'PP'
S'PAAVP'
tp478
F5
s(S'NP'
S'NAAPP'
tp479
F4
s(S'PP'
S'PPPPVP'
tp480
F1
s(S'VP'
S'VDDP'
tp481
F59
s(S'VP'
S'AVANNP'
tp482
F1
s(S'VP'
S'VVVVCCCP'
tp483
F1
s(S'PP'
p484
S'ADVADVADVADVPNP'
tp485
F1
s(S'DP'
S'DADVADVPP'
tp486
F1
s(S'PP'
p487
S'ADVPPVP'
tp488
F4
s(S'NP'
S'AANNVP'
tp489
F1
s(S'NP'
S'AANVVP'
tp490
F3
s(S'DP'
S'DADVAPP'
tp491
F2
s(S'DP'
S'DDADVADVNNP'
tp492
F1
s(S'PP'
S'ADVAPAP'
tp493
F1
s(S'NP'
S'NADVADVVVP'
tp494
F2
s(S'NP'
S'ANPP'
tp495
F58
s(S'PP'
S'ADVPPDP'
tp496
F2
s(S'PP'
p497
S'PPPPP'
tp498
F7
s(g422
S'MPDP'
tp499
F1
s(S'PP'
S'ADVADVPDP'
tp500
F2
s(S'MP'
S'MVVPP'
tp501
F2
s(g78
S'ADVDPP'
tp502
F38
s(g134
S'VVAAPP'
tp503
F1
s(S'NP'
S'ADVADVNPP'
tp504
F1
s(S'DP'
p505
S'ADDP'
tp506
F5
s(S'NP'
p507
S'NADVAAP'
tp508
F2
s(S'NP'
S'NNCCCCP'
tp509
F2
s(S'CP'
S'CAADPP'
tp510
F7
s(S'DP'
S'DADVADVVP'
tp511
F2
s(S'NP'
S'NAACP'
tp512
F2
s(S'PP'
S'PNNP'
tp513
F79
s(g252
S'ADVAAAVCP'
tp514
F1
s(S'PP'
S'APNNP'
tp515
F1
s(S'MP'
S'MMNP'
tp516
F1
s(S'VP'
S'AVAP'
tp517
F2
s(S'MP'
p518
S'MMVP'
tp519
F13
s(S'PP'
S'PADVDDP'
tp520
F4
s(S'NP'
p521
S'ADVNCP'
tp522
F14
s(S'AP'
S'AADP'
tp523
F41
s(S'VP'
S'ADVAVCP'
tp524
F1
s(S'VP'
S'VAPPP'
tp525
F2
s(S'CP'
S'ACDP'
tp526
F39
s(g26
S'VCCP'
tp527
F25
s(S'DP'
S'DMP'
tp528
F4
s(S'VP'
S'ADVADVVAAP'
tp529
F1
s(S'AP'
p530
S'ADVANP'
tp531
F3
s(g411
S'NNACP'
tp532
F3
s(S'CP'
S'CDADVPPP'
tp533
F4
s(g26
S'VAP'
tp534
F197
s(S'VP'
S'VVVVNP'
tp535
F1
s(g165
S'AAAAVDP'
tp536
F1
s(g408
S'DDDPP'
tp537
F14
s(S'CP'
S'ADVCDDP'
tp538
F3
s(S'PP'
S'ADVPMP'
tp539
F1
s(S'VP'
S'VVPPPPP'
tp540
F1
s(S'DP'
S'ADVADPPPP'
tp541
F1
s(S'AP'
S'AAVVP'
tp542
F2
s(S'DP'
S'DDDPPP'
tp543
F1
s(S'VP'
S'ADVAVDP'
tp544
F2
s(g140
S'ADAP'
tp545
F3
s(S'DP'
S'DADVDP'
tp546
F2
s(S'NP'
S'NNAVVP'
tp547
F1
s(S'CP'
S'CCADVADP'
tp548
F1
s(S'DP'
S'DDADVPP'
tp549
F2
s(S'NP'
S'NAAP'
tp550
F8
s(S'PP'
S'PPPVP'
tp551
F6
s(S'AP'
S'AADDP'
tp552
F6
s(S'NP'
S'NNNADVADVVP'
tp553
F1
s(S'DP'
S'DADVAAP'
tp554
F1
s(S'VP'
S'VAANP'
tp555
F4
s(S'NP'
S'NAADDP'
tp556
F1
s(S'DP'
p557
S'ADVADVADVDVP'
tp558
F1
s(g26
S'VVDP'
tp559
F105
s(S'MP'
S'MVVVCP'
tp560
F1
s(S'MP'
S'MPNP'
tp561
F1
s(S'VP'
S'ADVVADVANP'
tp562
F1
s(S'MP'
S'MADP'
tp563
F3
s(S'AP'
S'AMMP'
tp564
F1
s(S'DP'
S'DDAAAPPP'
tp565
F1
s(S'DP'
p566
S'DDADVNP'
tp567
F2
s(g406
S'PANP'
tp568
F50
s(g80
S'AADNP'
tp569
F2
s(S'NP'
S'ANNMP'
tp570
F1
s(S'DP'
S'ADVADPP'
tp571
F1
s(S'MP'
S'ADVAMVP'
tp572
F1
s(S'NP'
S'AANMP'
tp573
F3
s(S'AP'
S'AAVP'
tp574
F7
s(S'AP'
S'AVVP'
tp575
F7
s(g344
S'NDDP'
tp576
F18
s(S'AP'
p577
S'ACCP'
tp578
F11
s(S'DP'
p579
S'ADAAP'
tp580
F1
s(S'DP'
S'ADADVAAP'
tp581
F1
s(S'AP'
S'APPPP'
tp582
F1
s(S'VP'
S'AVPPP'
tp583
F1
s(g136
S'NDP'
tp584
F167
s(S'VP'
S'ADVVANP'
tp585
F1
s(S'NP'
S'NNNNVVP'
tp586
F2
s(g313
S'MVAAP'
tp587
F2
s(S'DP'
S'DDVP'
tp588
F45
s(g484
S'ADVPPADP'
tp589
F1
s(S'NP'
p590
S'AANVP'
tp591
F9
s(S'NP'
S'ADVNCCP'
tp592
F3
s(S'VP'
S'ADVVVNNP'
tp593
F2
s(S'VP'
S'VNNNP'
tp594
F7
s(S'VP'
S'VADVADVPP'
tp595
F1
s(S'PP'
S'ADVPAP'
tp596
F2
s(g32
S'PPPPVVP'
tp597
F1
s(S'PP'
S'APADVDP'
tp598
F1
s(S'PP'
S'PCP'
tp599
F5
s(g219
S'NNPPP'
tp600
F5
s(S'PP'
S'PAADP'
tp601
F6
s(S'NP'
S'ADVNNVP'
tp602
F3
s(S'MP'
S'MDNP'
tp603
F1
s(S'NP'
S'ADVANVVP'
tp604
F1
s(S'VP'
S'VPPPP'
tp605
F3
s(S'NP'
S'ANNPP'
tp606
F5
s(g530
S'AADVAP'
tp607
F1
s(g71
S'NNNDP'
tp608
F1
s(S'AP'
S'ADVACP'
tp609
F10
s(S'NP'
S'AANVVVP'
tp610
F4
s(S'NP'
S'ADVADVNMP'
tp611
F3
s(S'DP'
S'ADVDDPPP'
tp612
F1
s(S'VP'
S'VVVAP'
tp613
F4
s(S'NP'
S'NNVP'
tp614
F92
s(S'MP'
S'MVCP'
tp615
F8
s(g336
S'CCDDP'
tp616
F28
s(g432
S'NNADVVP'
tp617
F2
s(S'MP'
S'MVVADVAP'
tp618
F1
s(g387
S'PPAAP'
tp619
F3
s(S'NP'
p620
S'NAAMP'
tp621
F2
s(S'PP'
S'PPADVPPP'
tp622
F1
s(S'NP'
S'NNNNVP'
tp623
F1
s(S'VP'
p624
S'VVCP'
tp625
F32
s(S'MP'
S'MVAANP'
tp626
F1
s(S'PP'
p627
S'PADVADVPP'
tp628
F1
s(g265
S'AANCP'
tp629
F12
s(g624
S'VDP'
tp630
F456
s(S'VP'
S'VVDDDP'
tp631
F1
s(S'AP'
S'ADVAVVP'
tp632
F3
s(g460
S'APANNP'
tp633
F1
s(g521
S'NNDDP'
tp634
F7
s(g465
S'ADVVPP'
tp635
F9
s(S'NP'
S'NAAAAP'
tp636
F1
s(S'CP'
S'CDAPPP'
tp637
F3
s(g259
S'VNNP'
tp638
F53
s(S'AP'
S'AADVDP'
tp639
F7
s(S'NP'
S'NADP'
tp640
F8
s(S'DP'
S'DCCP'
tp641
F2
s(g140
S'DDNP'
tp642
F79
s(g620
S'NADVCP'
tp643
F11
s(g125
S'DDNNP'
tp644
F15
s(S'PP'
S'PADVADVVVP'
tp645
F2
s(g590
S'ADVANVP'
tp646
F4
s(S'VP'
S'AAVNNP'
tp647
F1
s(S'AP'
S'ADVADDP'
tp648
F1
s(S'DP'
p649
S'AADPP'
tp650
F10
s(S'VP'
S'ADVVACP'
tp651
F1
s(g309
S'VVNNNNNP'
tp652
F1
s(g465
S'VVVVCP'
tp653
F2
s(S'MP'
S'MAVAP'
tp654
F1
s(S'AP'
S'AADVADVVP'
tp655
F1
s(S'CP'
S'CDPPPPP'
tp656
F2
s(S'NP'
S'ANVVVP'
tp657
F2
s(S'NP'
S'NADVADVCCP'
tp658
F3
s(S'MP'
S'MVVNP'
tp659
F6
s(S'CP'
S'CDDADVPPP'
tp660
F1
s(S'NP'
S'AAANCP'
tp661
F1
s(S'DP'
S'ADVDNNP'
tp662
F2
s(S'CP'
p663
S'ACDDP'
tp664
F7
s(S'NP'
S'ADVADVNNCP'
tp665
F2
s(S'CP'
S'CCCADP'
tp666
F1
s(S'AP'
S'ADVADVACCP'
tp667
F1
s(S'VP'
S'VVCCP'
tp668
F3
s(g121
S'APPNP'
tp669
F4
s(S'DP'
S'DADVADVNP'
tp670
F2
s(S'VP'
S'VVVCCP'
tp671
F1
s(S'NP'
S'NAPP'
tp672
F16
s(S'PP'
S'APPVP'
tp673
F1
s(g358
S'PPPPADVADVNNP'
tp674
F1
s(g269
S'VVVCP'
tp675
F2
s(S'PP'
p676
S'APDDDP'
tp677
F1
s(S'DP'
S'ADVDANNP'
tp678
F1
s(g149
S'PADVAPP'
tp679
F1
s(S'NP'
S'ANCCP'
tp680
F17
s(S'NP'
S'AANPP'
tp681
F7
s(S'VP'
S'VDDDP'
tp682
F5
s(S'NP'
p683
S'NNMP'
tp684
F11
s(g579
S'DDDVP'
tp685
F7
s(S'CP'
S'ADVADVCCDDDP'
tp686
F1
s(S'CP'
S'CADDPP'
tp687
F2
s(S'PP'
S'PAAAP'
tp688
F3
s(S'PP'
S'ADVADVPNP'
tp689
F2
s(S'PP'
S'PPPAP'
tp690
F6
s(S'DP'
S'ADVDDAP'
tp691
F1
s(S'CP'
S'CADVADVDDPPP'
tp692
F1
s(S'CP'
S'CDDAPP'
tp693
F1
s(S'NP'
S'ANAP'
tp694
F8
s(S'DP'
S'ADVADVADVDDNP'
tp695
F1
s(g518
S'MVAP'
tp696
F16
s(S'MP'
S'MVVVAP'
tp697
F1
s(S'VP'
S'VADVPPP'
tp698
F2
s(S'DP'
p699
S'DADVAVP'
tp700
F1
s(S'AP'
S'ADVADVAPP'
tp701
F1
s(S'MP'
S'AAMVP'
tp702
F2
s(S'VP'
S'VVVVDP'
tp703
F4
s(S'VP'
S'VADVCCP'
tp704
F4
s(g235
S'APPNNP'
tp705
F1
s(S'AP'
S'ADVAACP'
tp706
F3
s(g10
S'ADVNAVP'
tp707
F2
s(S'DP'
S'DVVVP'
tp708
F4
s(S'PP'
S'ADVPPDDP'
tp709
F1
s(S'VP'
p710
S'ADVVVAPP'
tp711
F1
s(g469
S'PPDDP'
tp712
F14
s(g98
S'AVCP'
tp713
F8
s(S'DP'
S'DDVVVP'
tp714
F1
s(S'VP'
S'ADVVADVAP'
tp715
F1
s(S'DP'
p716
S'DPP'
tp717
F656
s(g430
S'ADVNVP'
tp718
F15
s(S'DP'
p719
S'DDPP'
tp720
F146
s(S'DP'
S'DDADVPPP'
tp721
F1
s(S'DP'
S'DANP'
tp722
F123
s(S'NP'
S'ADVADVNAP'
tp723
F1
s(S'NP'
S'NADVPP'
tp724
F5
s(S'NP'
S'AANADVVP'
tp725
F1
s(g457
S'NAAVP'
tp726
F2
s(S'PP'
S'PADVADP'
tp727
F1
s(S'PP'
S'APADVDDP'
tp728
F1
s(g16
S'PDDDP'
tp729
F5
s(S'CP'
S'CADVADVADVDPP'
tp730
F1
s(S'VP'
S'VADVCP'
tp731
F5
s(S'AP'
S'ADVADVACP'
tp732
F2
s(S'PP'
S'PMMMP'
tp733
F1
s(S'NP'
S'NNNNCP'
tp734
F1
s(g683
S'NADVCCP'
tp735
F2
s(S'NP'
S'NNAACP'
tp736
F1
s(S'DP'
S'DDDADVAPP'
tp737
F1
s(S'NP'
S'NNNVVP'
tp738
F3
s(g487
S'PADVPPP'
tp739
F3
s(S'PP'
S'AAPNNP'
tp740
F2
s(S'DP'
S'AADDP'
tp741
F1
s(S'MP'
S'MMCP'
tp742
F1
s(g469
S'AAPDP'
tp743
F10
s(S'MP'
S'MADVVDP'
tp744
F1
s(S'VP'
p745
S'AVVDP'
tp746
F1
s(S'PP'
S'PDDP'
tp747
F51
s(S'CP'
S'CDDDDAPP'
tp748
F1
s(S'MP'
S'MVDDP'
tp749
F3
s(S'PP'
p750
S'PCCP'
tp751
F1
s(S'PP'
S'ADVAPNP'
tp752
F2
s(S'NP'
S'NNNADVVP'
tp753
F1
s(g716
S'ADPPP'
tp754
F11
s(S'PP'
S'PADVADVADVDP'
tp755
F2
s(S'AP'
S'AADVADVCP'
tp756
F1
s(g406
S'APAAP'
tp757
F1
s(g26
S'AVDP'
tp758
F48
s(S'PP'
S'PPADDP'
tp759
F1
s(S'NP'
p760
S'NNP'
tp761
F3
s(g151
S'VVDDP'
tp762
F15
s(g716
S'DAANP'
tp763
F26
s(g104
S'ADVVACCP'
tp764
F1
s(S'AP'
S'ADDP'
tp765
F34
s(S'VP'
S'VADVADVMP'
tp766
F1
s(g408
S'DDCCCP'
tp767
F1
s(S'PP'
S'PNNNNP'
tp768
F4
s(g379
S'PPAPPP'
tp769
F1
s(g255
S'ADVPPNP'
tp770
F7
s(S'NP'
S'ADVADVNNMP'
tp771
F1
s(S'CP'
p772
S'CADVADVDPP'
tp773
F3
s(S'CP'
S'ADVADVADVCDP'
tp774
F1
s(g719
S'DPPP'
tp775
F141
s(S'DP'
S'AADVVVP'
tp776
F1
s(S'DP'
S'DAVVP'
tp777
F1
s(g699
S'AADPPP'
tp778
F1
s(g676
S'ADVADVPPNP'
tp779
F2
s(S'NP'
S'NNAVP'
tp780
F2
s(g127
S'NNAAPP'
tp781
F1
s(S'PP'
S'PPPANP'
tp782
F2
s(S'PP'
S'ADVPNP'
tp783
F12
s(S'PP'
S'PPDP'
tp784
F63
s(S'MP'
S'MAVDP'
tp785
F2
s(S'DP'
S'ADVDCP'
tp786
F1
s(S'MP'
S'MADVADVADVVAANP'
tp787
F1
s(S'MP'
S'MVVAP'
tp788
F2
s(g557
S'DDCP'
tp789
F2
s(S'PP'
S'PPADVDDP'
tp790
F1
s(S'MP'
S'MMAVP'
tp791
F3
s(g760
S'NAP'
tp792
F66
s(S'VP'
S'VAAAP'
tp793
F3
s(S'VP'
S'ADVVVADVAP'
tp794
F2
s(S'VP'
S'ADVADVADVADVVVPP'
tp795
F1
s(S'VP'
S'VVP'
tp796
F58
s(g326
S'DADVNP'
tp797
F15
s(S'PP'
S'ADVADVPVP'
tp798
F1
s(g352
S'APNP'
tp799
F32
s(S'DP'
S'DDDAPP'
tp800
F1
s(g419
S'NNADVAAAVP'
tp801
F1
s(S'DP'
S'DDVVP'
tp802
F8
s(g394
S'ADPPPPP'
tp803
F1
s(S'VP'
S'VVVNP'
tp804
F10
s(S'NP'
S'NAMP'
tp805
F2
s(S'MP'
S'MVANP'
tp806
F1
s(g182
S'ADVADVDDPP'
tp807
F1
s(S'MP'
S'MVNNP'
tp808
F2
s(S'NP'
S'NADVAMP'
tp809
F1
s(g336
S'CDPP'
tp810
F546
s(S'DP'
S'ADVADVADVDAPP'
tp811
F1
s(S'MP'
S'MMMNP'
tp812
F1
s(S'AP'
S'ADDDP'
tp813
F3
s(S'MP'
S'MVADVPP'
tp814
F1
s(S'DP'
S'ADVDVVP'
tp815
F1
s(g505
S'ADADVADVPP'
tp816
F1
s(g772
S'ADVCDP'
tp817
F16
s(S'VP'
S'ADVADVVNP'
tp818
F3
s(S'NP'
S'NADVADVADVCP'
tp819
F1
s(S'MP'
S'MDDVP'
tp820
F1
s(S'VP'
S'ADVADVVCP'
tp821
F2
s(S'PP'
S'PPNNP'
tp822
F6
s(S'AP'
S'ADVACCP'
tp823
F3
s(S'DP'
S'ADVADVDPP'
tp824
F6
s(g710
S'VAADP'
tp825
F3
s(S'NP'
S'AANVVVVP'
tp826
F1
s(g400
S'AVDDP'
tp827
F5
s(S'DP'
S'DDCCP'
tp828
F1
s(g408
S'DAP'
tp829
F50
s(g663
S'CADPP'
tp830
F40
s(S'NP'
S'NADVAVP'
tp831
F1
s(S'VP'
p832
S'VVDDDDP'
tp833
F1
s(S'VP'
S'ADVADVVCCP'
tp834
F2
s(g269
S'AVPP'
tp835
F11
s(S'CP'
S'CAADPPP'
tp836
F1
s(g244
S'AAVCP'
tp837
F1
s(S'CP'
S'ADVCADVDP'
tp838
F1
s(S'CP'
S'CDPPPP'
tp839
F9
s(S'VP'
S'VADVADVCCP'
tp840
F1
s(S'VP'
S'AAVDP'
tp841
F6
s(S'PP'
S'PANNP'
tp842
F2
s(S'PP'
S'APPP'
tp843
F12
s(S'DP'
S'ADPPPP'
tp844
F3
s(g438
S'DAPPP'
tp845
F5
s(g463
S'AAADVDP'
tp846
F2
s(g649
S'ADVP'
tp847
F17
s(g235
S'PPPNP'
tp848
F7
s(S'PP'
S'PADVADVNP'
tp849
F3
s(S'PP'
S'PPPPNP'
tp850
F2
s(S'DP'
S'ADPP'
tp851
F60
s(g227
S'PADVADVPPP'
tp852
F1
s(S'NP'
S'NNADVVVP'
tp853
F2
s(g832
S'VADVPP'
tp854
F2
s(S'VP'
S'VADVADVNNP'
tp855
F1
s(S'DP'
S'ADVDANP'
tp856
F1
s(S'CP'
S'CCADVDDP'
tp857
F3
s(g50
S'ADVPVP'
tp858
F7
s(S'DP'
S'DDDDPP'
tp859
F2
s(S'AP'
S'AAADVADVPP'
tp860
F1
s(g507
S'NNVVVP'
tp861
F4
s(g750
S'PADVADVADVNP'
tp862
F2
s(S'PP'
S'PAMP'
tp863
F1
s(S'PP'
S'ADVPDP'
tp864
F10
s(g497
S'PPPVVP'
tp865
F2
s(S'MP'
S'MVADVAP'
tp866
F1
s(g130
S'NCP'
tp867
F461
s(S'CP'
S'CADVDPPP'
tp868
F4
s(g745
S'ADVVVPP'
tp869
F6
s(S'DP'
S'DDADVVVP'
tp870
F1
s(S'AP'
S'AAAP'
tp871
F3
s(S'AP'
S'AAMP'
tp872
F1
s(S'NP'
S'AANDP'
tp873
F1
s(S'MP'
S'MVCCP'
tp874
F1
s(g566
S'DADVNNP'
tp875
F4
s(g274
S'AAADVADVADVDP'
tp876
F1
s(S'NP'
S'NNCCP'
tp877
F23
s(S'MP'
S'MNVP'
tp878
F7
s(S'CP'
S'ADVADVCCDP'
tp879
F3
s(g114
S'AANCCP'
tp880
F1
s(S'VP'
S'VAPP'
tp881
F15
s(g252
S'ADVVDP'
tp882
F22
s(g277
S'DADVPP'
tp883
F22
s(S'AP'
S'AMP'
tp884
F1
s(S'CP'
S'CCADP'
tp885
F3
s(S'NP'
S'ADVNNCP'
tp886
F2
s(S'PP'
S'ADVADVADVPNP'
tp887
F1
s(S'AP'
S'ADVAPP'
tp888
F10
s(g627
S'ADVADVPVVP'
tp889
F1
s(S'DP'
S'ADVDAVP'
tp890
F1
s(S'AP'
S'ADVADVANP'
tp891
F1
s(S'CP'
S'AACDP'
tp892
F3
s(S'CP'
S'CCDDDP'
tp893
F1
s(S'MP'
S'MADVVNNP'
tp894
F1
s(S'DP'
S'DDDDAPP'
tp895
F1
s(g29
S'ADVDPPP'
tp896
F4
s(g277
S'DVP'
tp897
F319
s(S'VP'
S'AVNNP'
tp898
F1
s(S'NP'
S'ADVNPP'
tp899
F6
s(g577
S'AVP'
tp900
F35
s(g363
S'NADVVP'
tp901
F23
s(S'NP'
S'NNNMP'
tp902
F1
s(S'VP'
S'ADVVPPP'
tp903
F1
s(S'DP'
S'DDPPP'
tp904
F28
s(S'MP'
S'MADVADVADVVDP'
tp905
F1
s(g363
S'ADVNMP'
tp906
F9
s(S'NP'
S'NNAP'
tp907
F4
s(S'MP'
S'MADVVCP'
tp908
F1
s(S'PP'
S'PPANP'
tp909
F6
s(g23
S'CDADVPP'
tp910
F14
s(g348
S'VNP'
tp911
F338
s(S'NP'
S'ANADVPPP'
tp912
F2
s(S'VP'
S'VANP'
tp913
F34
s(g170
S'VADVAP'
tp914
F18
s(g16
S'PPADVNP'
tp915
F6
s(S'DP'
S'DADVADVADVADVPP'
tp916
F1
s(S'NP'
S'NADVPPP'
tp917
F2
s.