ccollections
defaultdict
p1
(c__builtin__
float
p2
tRp3
(S'MP'
S'MMDP'
tp4
F2
s(S'DP'
p5
S'ADDPP'
tp6
F3
s(S'DP'
S'DDAP'
tp7
F3
s(S'VP'
p8
S'ADVVVNP'
tp9
F4
s(S'PP'
p10
S'ADVADVADVPPVP'
tp11
F1
s(S'VP'
S'VVVVP'
tp12
F4
s(S'DP'
S'ADVDDVVP'
tp13
F1
s(S'VP'
p14
S'VVADVVP'
tp15
F1
s(S'PP'
p16
S'PAPP'
tp17
F3
s(S'PP'
p18
S'PADVNP'
tp19
F10
s(S'DP'
p20
S'DNP'
tp21
F197
s(S'PP'
p22
S'AAPDDP'
tp23
F1
s(S'CP'
S'CDPPP'
tp24
F40
s(S'VP'
p25
S'VADP'
tp26
F10
s(S'DP'
S'DNNNNP'
tp27
F1
s(S'DP'
S'DAAP'
tp28
F3
s(S'PP'
S'PPAVP'
tp29
F1
s(S'PP'
p30
S'PPPPPP'
tp31
F2
s(S'VP'
p32
S'VAVP'
tp33
F1
s(S'DP'
p34
S'ADNNP'
tp35
F2
s(S'PP'
p36
S'APVP'
tp37
F6
s(S'MP'
p38
S'MVDP'
tp39
F11
s(S'PP'
p40
S'PADVANP'
tp41
F2
s(S'PP'
p42
S'PPPP'
tp43
F29
s(S'DP'
p44
S'DDDNP'
tp45
F7
s(S'VP'
p46
S'VACP'
tp47
F4
s(S'DP'
p48
S'DADVVP'
tp49
F2
s(S'VP'
p50
S'VVADDP'
tp51
F1
s(S'PP'
p52
S'PADVNNP'
tp53
F1
s(S'AP'
S'AADVPP'
tp54
F1
s(S'NP'
S'NDDDP'
tp55
F1
s(S'NP'
p56
S'NADVVVP'
tp57
F10
s(S'VP'
p58
S'VCP'
tp59
F70
s(S'NP'
S'NMMP'
tp60
F5
s(S'VP'
S'VVAANNP'
tp61
F1
s(S'VP'
S'ADVVCCP'
tp62
F2
s(S'PP'
S'PAP'
tp63
F71
s(S'MP'
S'MADVVCCP'
tp64
F1
s(S'MP'
S'MMVVP'
tp65
F2
s(S'MP'
S'MVVADVANP'
tp66
F1
s(S'VP'
p67
S'VADVADVAP'
tp68
F2
s(S'PP'
p69
S'ADVPPVP'
tp70
F2
s(S'NP'
S'ANPPP'
tp71
F1
s(S'NP'
p72
S'NNNACP'
tp73
F1
s(S'MP'
p74
S'AMVP'
tp75
F2
s(g42
S'PNP'
tp76
F171
s(S'NP'
S'ADVADVADVNCP'
tp77
F1
s(g44
S'DDP'
tp78
F30
s(S'NP'
p79
S'NNNPP'
tp80
F7
s(S'NP'
p81
S'NNDP'
tp82
F9
s(S'MP'
S'MCDP'
tp83
F2
s(S'VP'
S'ADVVVDP'
tp84
F4
s(S'DP'
p85
S'DADVDDP'
tp86
F1
s(S'AP'
S'ADVADVAVVP'
tp87
F1
s(S'VP'
S'ADVADVVVCP'
tp88
F1
s(S'NP'
p89
S'NMP'
tp90
F43
s(S'DP'
S'DDDDDNP'
tp91
F1
s(g42
S'PDP'
tp92
F192
s(S'CP'
p93
S'CCADVADVDP'
tp94
F1
s(g81
S'ADVNVVP'
tp95
F1
s(S'VP'
p96
S'AVAAP'
tp97
F1
s(S'AP'
S'ANP'
tp98
F1
s(g22
S'PADVPP'
tp99
F3
s(S'NP'
p100
S'NNADVCP'
tp101
F1
s(S'CP'
S'CDDAPPP'
tp102
F1
s(S'DP'
p103
S'DPPPP'
tp104
F8
s(S'DP'
S'DDANP'
tp105
F2
s(g72
S'NACP'
tp106
F18
s(S'AP'
S'ADVAVP'
tp107
F4
s(g81
S'NCCP'
tp108
F32
s(S'DP'
S'DADVADVVVP'
tp109
F1
s(S'AP'
S'AAAADP'
tp110
F1
s(S'PP'
S'PPNNNNNP'
tp111
F1
s(g67
S'VVVVVP'
tp112
F1
s(S'NP'
p113
S'NNCP'
tp114
F43
s(S'DP'
S'ADVDDPP'
tp115
F3
s(S'NP'
S'NADVADVVP'
tp116
F1
s(S'DP'
S'DDDDP'
tp117
F1
s(S'DP'
S'DDAPP'
tp118
F4
s(S'VP'
p119
S'AVNP'
tp120
F7
s(g32
S'VVADP'
tp121
F2
s(S'NP'
S'NADVADVPP'
tp122
F1
s(S'PP'
p123
S'ADVPVVP'
tp124
F1
s(S'PP'
p125
S'ADVAPDP'
tp126
F5
s(S'VP'
p127
S'AVDDDP'
tp128
F1
s(S'VP'
S'VADVVP'
tp129
F1
s(S'MP'
S'MVAPP'
tp130
F1
s(S'PP'
S'ADVAPVP'
tp131
F1
s(S'DP'
p132
S'ADVVVP'
tp133
F1
s(S'VP'
p134
S'AVNNP'
tp135
F2
s(S'PP'
S'ADVADVADVPPP'
tp136
F1
s(S'PP'
p137
S'APDP'
tp138
F23
s(S'NP'
p139
S'NAAPPP'
tp140
F1
s(S'VP'
p141
S'ADVVNNP'
tp142
F2
s(S'AP'
S'AADVCP'
tp143
F1
s(S'MP'
S'MVADVVP'
tp144
F1
s(S'PP'
S'PPANNP'
tp145
F1
s(S'VP'
S'VVANP'
tp146
F1
s(S'VP'
S'VVVVDP'
tp147
F2
s(g10
S'PCCP'
tp148
F2
s(g22
S'PAAP'
tp149
F12
s(S'NP'
S'ADVANCP'
tp150
F2
s(S'DP'
p151
S'DNNP'
tp152
F38
s(g93
S'CADVDDPP'
tp153
F2
s(S'DP'
S'DPPPPP'
tp154
F1
s(S'CP'
S'CDDPPPP'
tp155
F1
s(S'CP'
S'CCADVDP'
tp156
F2
s(g96
S'VVNNNP'
tp157
F2
s(S'VP'
S'VVACP'
tp158
F1
s(g103
S'ADDNP'
tp159
F1
s(S'NP'
S'NNNVP'
tp160
F6
s(S'VP'
S'VADVNNP'
tp161
F1
s(g125
S'PADVVP'
tp162
F7
s(S'PP'
p163
S'APAP'
tp164
F4
s(S'AP'
S'APP'
tp165
F41
s(S'NP'
p166
S'NADVMP'
tp167
F2
s(S'AP'
S'AAP'
tp168
F1
s(S'VP'
S'VVAPP'
tp169
F2
s(S'DP'
S'DADVADVNP'
tp170
F1
s(g72
S'ADVANPP'
tp171
F3
s(S'VP'
S'VVVVPP'
tp172
F1
s(S'CP'
S'CDDDDPP'
tp173
F1
s(S'MP'
S'MVVVNP'
tp174
F1
s(S'PP'
S'PAANP'
tp175
F2
s(S'NP'
S'NADVADVPPP'
tp176
F1
s(S'NP'
p177
S'ANVP'
tp178
F17
s(S'MP'
S'MVNP'
tp179
F16
s(S'NP'
p180
S'NNANP'
tp181
F1
s(S'NP'
S'ANAAP'
tp182
F2
s(S'CP'
p183
S'CDDDPPP'
tp184
F1
s(S'PP'
p185
S'PAVP'
tp186
F15
s(S'MP'
S'ADVMVP'
tp187
F1
s(S'PP'
S'ADVPADVDDP'
tp188
F1
s(g132
S'ADVDVVP'
tp189
F1
s(S'DP'
S'DDAPPP'
tp190
F1
s(g141
S'VVVPP'
tp191
F6
s(S'VP'
p192
S'VVADVAPP'
tp193
F1
s(S'PP'
S'APPPP'
tp194
F2
s(S'DP'
S'DADP'
tp195
F1
s(S'DP'
S'DAAAPPP'
tp196
F1
s(S'PP'
S'APDDP'
tp197
F2
s(S'AP'
S'AAADVCP'
tp198
F1
s(S'AP'
S'AAAACCP'
tp199
F1
s(S'DP'
S'DDVVVVP'
tp200
F1
s(S'NP'
p201
S'ADVNAP'
tp202
F2
s(g22
S'PPCP'
tp203
F3
s(S'VP'
p204
S'ADVVNP'
tp205
F5
s(g74
S'MNCP'
tp206
F1
s(S'VP'
S'VVNP'
tp207
F31
s(S'VP'
p208
S'VVVCP'
tp209
F1
s(g185
S'PPVP'
tp210
F25
s(g58
S'VPP'
tp211
F110
s(S'VP'
S'VADVDP'
tp212
F1
s(S'VP'
S'VVADVAP'
tp213
F1
s(g127
S'VAAP'
tp214
F14
s(S'CP'
S'ADVCDDP'
tp215
F1
s(g56
S'ANDP'
tp216
F7
s(S'NP'
p217
S'NVVP'
tp218
F36
s(S'PP'
p219
S'AAPVP'
tp220
F1
s(S'CP'
S'ADVCADDP'
tp221
F1
s(g134
S'VMP'
tp222
F5
s(g119
S'VVNNP'
tp223
F6
s(g177
S'NNAAVP'
tp224
F1
s(g204
S'VVAAP'
tp225
F4
s(S'PP'
p226
S'PADVADVADVADVPP'
tp227
F1
s(S'DP'
p228
S'ADNP'
tp229
F16
s(g123
S'PADP'
tp230
F17
s(S'VP'
p231
S'ADVVVCP'
tp232
F2
s(S'NP'
S'ANDDP'
tp233
F2
s(g192
S'VVVDDP'
tp234
F1
s(S'DP'
S'DAPP'
tp235
F37
s(S'VP'
S'AVVP'
tp236
F1
s(g8
S'ADVADVVPP'
tp237
F2
s(S'MP'
S'MADVVVNP'
tp238
F1
s(S'CP'
S'CCCCDDP'
tp239
F1
s(S'VP'
p240
S'VADVAAP'
tp241
F2
s(S'VP'
p242
S'ADVADVADVVDP'
tp243
F1
s(S'VP'
p244
S'ADVADVVDP'
tp245
F1
s(S'VP'
S'AVVNP'
tp246
F2
s(S'PP'
p247
S'PPPDP'
tp248
F5
s(S'AP'
S'AAVVP'
tp249
F1
s(S'PP'
S'AAPADVADVDDP'
tp250
F1
s(S'MP'
S'MVVAP'
tp251
F1
s(S'DP'
p252
S'DADVANP'
tp253
F4
s(g85
S'ADVDNP'
tp254
F3
s(S'VP'
p255
S'VVPP'
tp256
F18
s(S'VP'
p257
S'VADVAPP'
tp258
F1
s(S'PP'
p259
S'PAVVP'
tp260
F1
s(g38
S'MVPP'
tp261
F13
s(S'DP'
S'ADVP'
tp262
F3
s(S'MP'
p263
S'MVADP'
tp264
F2
s(S'CP'
S'CDDPPP'
tp265
F3
s(S'MP'
S'ADVMVVP'
tp266
F1
s(S'MP'
S'MDDNP'
tp267
F1
s(S'NP'
p268
S'NNPP'
tp269
F24
s(S'DP'
S'DDDDNP'
tp270
F1
s(S'MP'
p271
S'MVVDP'
tp272
F2
s(S'DP'
S'DADVPPP'
tp273
F1
s(S'PP'
p274
S'PPVVP'
tp275
F7
s(S'DP'
S'DNNNP'
tp276
F5
s(g18
S'PADVADVVP'
tp277
F1
s(S'NP'
p278
S'ADVANVVP'
tp279
F1
s(S'VP'
S'ADVVCP'
tp280
F2
s(g36
S'PVVVP'
tp281
F5
s(S'PP'
S'PMP'
tp282
F12
s(S'NP'
p283
S'NNMMP'
tp284
F1
s(S'CP'
S'CCDP'
tp285
F52
s(S'NP'
S'ADVNNDP'
tp286
F1
s(g20
S'ADVADVADVDPP'
tp287
F3
s(S'VP'
S'VADVANP'
tp288
F2
s(S'PP'
S'PPNNNP'
tp289
F5
s(S'MP'
S'MVAP'
tp290
F6
s(g201
S'NVVVP'
tp291
F8
s(S'CP'
p292
S'CDDDPP'
tp293
F3
s(S'CP'
S'CDAAPP'
tp294
F3
s(S'VP'
p295
S'VVVDP'
tp296
F6
s(S'PP'
S'PDDDDP'
tp297
F1
s(S'PP'
S'PNNNP'
tp298
F10
s(g69
S'PADVVVP'
tp299
F3
s(g274
S'PPP'
tp300
F99
s(S'MP'
S'MADVADVVADVAP'
tp301
F1
s(S'NP'
p302
S'NAVP'
tp303
F6
s(g163
S'PADVAP'
tp304
F3
s(g16
S'APVVVP'
tp305
F1
s(S'NP'
S'NNNADVVP'
tp306
F1
s(S'DP'
S'ADVDVP'
tp307
F1
s(S'PP'
S'PPADVADVNP'
tp308
F1
s(S'NP'
S'NCCCP'
tp309
F1
s(S'CP'
S'CCADVADVADVDP'
tp310
F1
s(S'MP'
S'MADVADVVPP'
tp311
F1
s(S'VP'
S'VAAAAP'
tp312
F1
s(S'PP'
p313
S'ADVPAADP'
tp314
F1
s(g292
S'ADVCCDP'
tp315
F3
s(S'DP'
S'ADVDDNP'
tp316
F2
s(S'NP'
p317
S'NNNCP'
tp318
F11
s(S'PP'
S'PADVDP'
tp319
F6
s(S'AP'
S'ADVAADP'
tp320
F2
s(g48
S'DANNP'
tp321
F6
s(S'CP'
p322
S'CDDPP'
tp323
F32
s(g252
S'DAAPP'
tp324
F4
s(g247
S'PVVP'
tp325
F17
s(S'CP'
S'CADPPP'
tp326
F2
s(S'AP'
S'AACP'
tp327
F14
s(S'PP'
S'PMMP'
tp328
F2
s(S'PP'
S'ADVPPAP'
tp329
F1
s(g46
S'VPPP'
tp330
F14
s(S'DP'
p331
S'ADVADVDDNP'
tp332
F1
s(g192
S'VVPPP'
tp333
F1
s(g247
S'PPAP'
tp334
F8
s(g20
S'DVVP'
tp335
F35
s(S'NP'
S'ANMP'
tp336
F4
s(S'AP'
p337
S'APPP'
tp338
F4
s(S'PP'
S'ADVPPP'
tp339
F1
s(g46
S'VVVP'
tp340
F4
s(g228
S'DDPPPP'
tp341
F4
s(S'PP'
S'ADVPAPP'
tp342
F1
s(g217
S'ANCP'
tp343
F18
s(g44
S'DCP'
tp344
F12
s(S'DP'
S'DVVVP'
tp345
F4
s(S'NP'
p346
S'NNDDDDP'
tp347
F1
s(S'DP'
S'DADVCP'
tp348
F1
s(S'NP'
S'NNVVVVP'
tp349
F1
s(g44
S'DDDP'
tp350
F7
s(S'DP'
S'DDADVPP'
tp351
F1
s(S'NP'
S'ANVVP'
tp352
F6
s(g58
S'VVDP'
tp353
F42
s(S'NP'
S'NPPP'
tp354
F34
s(S'PP'
p355
S'PPAPP'
tp356
F1
s(g257
S'ADVVNNNP'
tp357
F1
s(g151
S'DAVP'
tp358
F8
s(S'VP'
S'AVVVP'
tp359
F1
s(S'NP'
S'NNNMP'
tp360
F2
s(S'AP'
p361
S'ACP'
tp362
F39
s(g355
S'PADVADVNNP'
tp363
F1
s(g137
S'PPNP'
tp364
F35
s(S'MP'
S'MADVADVVPPP'
tp365
F1
s(S'DP'
S'ADVDAPP'
tp366
F1
s(S'NP'
p367
S'NNNNCCP'
tp368
F1
s(S'VP'
S'VVVVNNP'
tp369
F1
s(S'NP'
S'NADVAP'
tp370
F1
s(g226
S'ADVADVADVADVPVP'
tp371
F1
s(S'CP'
S'CDDADVPP'
tp372
F1
s(S'CP'
S'CCCDDP'
tp373
F1
s(S'AP'
p374
S'ADP'
tp375
F116
s(S'CP'
S'CADVDPP'
tp376
F10
s(S'DP'
S'DVVVVP'
tp377
F1
s(S'PP'
S'APPAP'
tp378
F1
s(S'VP'
p379
S'AVDP'
tp380
F15
s(g240
S'VVAP'
tp381
F13
s(S'NP'
S'NNAPP'
tp382
F1
s(S'DP'
S'ADVADVDDPPP'
tp383
F1
s(S'NP'
p384
S'ANNDP'
tp385
F1
s(S'CP'
S'CDDDAPP'
tp386
F1
s(g244
S'ADVADVVPPP'
tp387
F1
s(g89
S'NPP'
tp388
F165
s(S'PP'
S'PPPPNP'
tp389
F1
s(g89
S'NVP'
tp390
F165
s(S'PP'
S'PAAVP'
tp391
F1
s(S'PP'
p392
S'AAPPNP'
tp393
F1
s(S'NP'
S'NAAPP'
tp394
F2
s(g30
S'PPPPVP'
tp395
F1
s(S'PP'
S'PPDDDDDP'
tp396
F1
s(S'DP'
S'DDDDNNP'
tp397
F1
s(g25
S'VDDP'
tp398
F16
s(g139
S'NMMMMMP'
tp399
F1
s(S'AP'
S'AAAADVVVP'
tp400
F1
s(S'NP'
p401
S'NADVADVVVP'
tp402
F2
s(g113
S'ANPP'
tp403
F34
s(S'PP'
S'PPPPP'
tp404
F9
s(S'PP'
p405
S'ADVADVPDP'
tp406
F1
s(S'MP'
S'MVVPP'
tp407
F2
s(S'PP'
S'PPPNP'
tp408
F5
s(S'VP'
S'VVAAPP'
tp409
F1
s(S'VP'
S'ADVADVVADVAP'
tp410
F1
s(g100
S'NPPPP'
tp411
F4
s(S'DP'
S'ADDP'
tp412
F3
s(g302
S'NADVAAP'
tp413
F1
s(S'CP'
S'CAADPP'
tp414
F1
s(S'DP'
S'DDADVADVPPP'
tp415
F1
s(g274
S'PNNP'
tp416
F51
s(S'DP'
p417
S'DDAAP'
tp418
F1
s(g226
S'AAPCP'
tp419
F1
s(S'MP'
p420
S'MMVP'
tp421
F6
s(S'PP'
p422
S'PADVDDP'
tp423
F1
s(S'AP'
S'AAPPPP'
tp424
F1
s(g201
S'ADVNCP'
tp425
F2
s(S'DP'
p426
S'ADPP'
tp427
F22
s(g240
S'VAPPP'
tp428
F1
s(S'CP'
S'ACDP'
tp429
F24
s(S'DP'
S'DDADVADVVP'
tp430
F1
s(S'AP'
S'ADVANP'
tp431
F1
s(g10
S'PADVADVADVPPP'
tp432
F1
s(S'NP'
S'NNACP'
tp433
F2
s(S'VP'
S'VVADVNP'
tp434
F1
s(S'CP'
S'CDADVPPP'
tp435
F1
s(g58
S'VAP'
tp436
F63
s(S'VP'
S'VVVVNP'
tp437
F2
s(g103
S'DDDPP'
tp438
F10
s(S'PP'
S'PPPNNP'
tp439
F2
s(S'NP'
S'AANNCP'
tp440
F1
s(S'PP'
S'ADVPMP'
tp441
F1
s(g219
S'PAAPP'
tp442
F1
s(g361
S'ADVAAPP'
tp443
F1
s(S'MP'
S'MVVVDP'
tp444
F1
s(S'DP'
S'DDDPPP'
tp445
F4
s(S'VP'
S'ADVAVDP'
tp446
F1
s(S'DP'
S'ADAP'
tp447
F1
s(S'DP'
p448
S'DADVDP'
tp449
F1
s(S'AP'
p450
S'AAACP'
tp451
F1
s(g268
S'NAAP'
tp452
F10
s(S'MP'
S'MVVAPP'
tp453
F1
s(S'PP'
S'PPPVP'
tp454
F6
s(S'VP'
S'VAANP'
tp455
F2
s(S'NP'
S'NVVVVP'
tp456
F3
s(g313
S'PAAAAP'
tp457
F1
s(g420
S'MVVVCP'
tp458
F1
s(S'MP'
S'MPNP'
tp459
F1
s(S'MP'
S'MADP'
tp460
F3
s(S'CP'
p461
S'CCAADP'
tp462
F1
s(S'DP'
S'DDADVNP'
tp463
F1
s(g422
S'PANP'
tp464
F23
s(S'PP'
S'PDDDP'
tp465
F7
s(S'AP'
S'AAVP'
tp466
F4
s(S'AP'
p467
S'AVVP'
tp468
F8
s(S'NP'
S'NDDP'
tp469
F4
s(g274
S'APPDDP'
tp470
F1
s(S'CP'
S'CDDADVADVPPP'
tp471
F1
s(S'AP'
S'ACCP'
tp472
F7
s(g79
S'NDP'
tp473
F60
s(S'NP'
S'NNNNVVP'
tp474
F1
s(S'NP'
p475
S'NNADVADVDP'
tp476
F1
s(g426
S'DDVP'
tp477
F18
s(S'VP'
p478
S'VNNNP'
tp479
F7
s(S'VP'
p480
S'VADVADVPP'
tp481
F1
s(g263
S'MADVAVPP'
tp482
F1
s(S'DP'
S'AADADVADVVP'
tp483
F1
s(S'PP'
p484
S'PCP'
tp485
F6
s(S'NP'
p486
S'NNPPP'
tp487
F3
s(S'PP'
S'AAPMMP'
tp488
F1
s(g36
S'PAADP'
tp489
F2
s(g166
S'ADVNNVP'
tp490
F2
s(S'MP'
S'MDNP'
tp491
F1
s(S'VP'
S'VPPPP'
tp492
F2
s(S'NP'
S'AANADVADVADVVVP'
tp493
F1
s(g134
S'VCCP'
tp494
F6
s(g337
S'ADVACP'
tp495
F3
s(S'NP'
S'ADVADVNMP'
tp496
F2
s(S'VP'
S'VVVAP'
tp497
F2
s(g217
S'NNVP'
tp498
F38
s(S'CP'
S'CDAPP'
tp499
F23
s(S'MP'
S'MVCP'
tp500
F5
s(S'CP'
S'CCDDP'
tp501
F9
s(S'NP'
S'NNADVVP'
tp502
F6
s(g401
S'NNVVP'
tp503
F9
s(g69
S'PPADVPPP'
tp504
F1
s(g208
S'VVCP'
tp505
F12
s(S'NP'
S'AANCP'
tp506
F5
s(g240
S'VDP'
tp507
F157
s(S'VP'
S'VVVVVNP'
tp508
F1
s(S'PP'
S'APPP'
tp509
F10
s(g204
S'ADVADVVVNNP'
tp510
F1
s(S'VP'
S'ADVVPP'
tp511
F9
s(S'VP'
S'VVADVANP'
tp512
F1
s(S'PP'
S'PPADVADVADVNP'
tp513
F1
s(S'CP'
S'CDAPPP'
tp514
F1
s(g50
S'VNNP'
tp515
F28
s(S'AP'
S'AADVDP'
tp516
F1
s(g113
S'NADP'
tp517
F5
s(g40
S'AAAPPP'
tp518
F1
s(g426
S'DDNP'
tp519
F31
s(S'DP'
S'DDNNP'
tp520
F4
s(g134
S'ADVAVPP'
tp521
F1
s(S'PP'
S'PADVADVVVP'
tp522
F1
s(S'NP'
S'ADVANVP'
tp523
F2
s(S'NP'
S'ADVADVNCP'
tp524
F2
s(S'DP'
S'AADPP'
tp525
F2
s(S'NP'
p526
S'NNNNPP'
tp527
F1
s(g392
S'ADVPAP'
tp528
F1
s(S'AP'
S'AADVADVVP'
tp529
F1
s(S'VP'
S'ADVVVACP'
tp530
F1
s(S'CP'
S'CDPPPPP'
tp531
F1
s(g180
S'ANVVVP'
tp532
F2
s(S'MP'
S'MADVVDP'
tp533
F1
s(S'MP'
S'MVVNP'
tp534
F1
s(S'DP'
S'ADVDNNP'
tp535
F1
s(g183
S'ACDDP'
tp536
F5
s(S'NP'
S'ADVADVNNCP'
tp537
F1
s(g467
S'AAPP'
tp538
F5
s(g379
S'VVCCP'
tp539
F4
s(S'DP'
S'DMMP'
tp540
F1
s(S'PP'
S'APPNP'
tp541
F1
s(S'DP'
S'DAAAPP'
tp542
F1
s(S'VP'
S'VVVCCP'
tp543
F2
s(g367
S'NAPP'
tp544
F11
s(S'NP'
S'NADVDP'
tp545
F1
s(S'AP'
S'ADVADVAACCP'
tp546
F1
s(S'MP'
S'MVDDP'
tp547
F2
s(S'NP'
S'ANCCP'
tp548
F6
s(S'VP'
S'VDDDP'
tp549
F1
s(S'NP'
S'NNMP'
tp550
F12
s(S'DP'
S'DDDVP'
tp551
F1
s(S'DP'
S'DDDADVVVP'
tp552
F1
s(S'PP'
S'PAAAP'
tp553
F1
s(S'PP'
S'ADVADVPNP'
tp554
F1
s(S'PP'
S'PPPAP'
tp555
F1
s(S'CP'
S'CDDAPP'
tp556
F3
s(S'NP'
S'ANAP'
tp557
F4
s(S'VP'
S'VADVADVANP'
tp558
F1
s(g42
S'PVP'
tp559
F148
s(S'PP'
p560
S'PADVADVCCP'
tp561
F1
s(S'AP'
S'ADVADVAPP'
tp562
F2
s(S'VP'
S'VADVCCP'
tp563
F1
s(g450
S'AADVDDP'
tp564
F1
s(S'NP'
S'ANNCP'
tp565
F2
s(g123
S'PPADVPP'
tp566
F2
s(S'NP'
S'ADVADVANVP'
tp567
F1
s(S'PP'
S'PPDDP'
tp568
F6
s(g480
S'AVCP'
tp569
F2
s(S'NP'
S'NADVADVAP'
tp570
F1
s(g20
S'DPP'
tp571
F233
s(g177
S'ADVNVP'
tp572
F6
s(g20
S'DDPP'
tp573
F55
s(S'DP'
S'DDAVP'
tp574
F1
s(g426
S'DANP'
tp575
F51
s(S'NP'
S'NADVADP'
tp576
F2
s(S'MP'
S'MMAP'
tp577
F1
s(g228
S'ADADVADVNP'
tp578
F1
s(S'DP'
p579
S'AADNP'
tp580
F1
s(g322
S'CADVADVADVDPP'
tp581
F2
s(g346
S'NNAPPP'
tp582
F1
s(S'VP'
S'VADVCP'
tp583
F3
s(S'MP'
S'MADVVVPP'
tp584
F1
s(g486
S'NADVCCP'
tp585
F2
s(g48
S'ADVDAAP'
tp586
F1
s(S'NP'
p587
S'NNAACP'
tp588
F1
s(S'NP'
S'NNNVVP'
tp589
F4
s(S'PP'
S'PADVPPP'
tp590
F1
s(S'CP'
S'AACDDDP'
tp591
F1
s(S'DP'
S'DCCP'
tp592
F1
s(S'PP'
S'AAPDP'
tp593
F3
s(S'DP'
S'ADVADPP'
tp594
F2
s(S'PP'
S'PDDP'
tp595
F34
s(g52
S'PADVAPP'
tp596
F4
s(S'DP'
S'DAANP'
tp597
F3
s(S'DP'
S'ADPPP'
tp598
F3
s(S'NP'
S'NNP'
tp599
F1
s(g255
S'VVDDP'
tp600
F3
s(g34
S'ADVADVDADVPP'
tp601
F1
s(g361
S'ADDP'
tp602
F16
s(g242
S'VADVADVADVVP'
tp603
F1
s(S'CP'
S'CADVADVDPP'
tp604
F2
s(g20
S'DPPP'
tp605
F69
s(S'NP'
S'NADVADVAAP'
tp606
F1
s(S'DP'
S'DAVVP'
tp607
F1
s(S'DP'
S'AADPPP'
tp608
F1
s(g259
S'ADVADVPPNP'
tp609
F2
s(S'NP'
S'NNAVP'
tp610
F2
s(g526
S'NNAAPP'
tp611
F1
s(S'PP'
S'ADVPNP'
tp612
F5
s(g484
S'PPDP'
tp613
F31
s(S'MP'
S'MAVDP'
tp614
F2
s(S'MP'
S'MMMMMADVVP'
tp615
F1
s(S'NP'
S'NNNNNCP'
tp616
F1
s(g217
S'NAP'
tp617
F48
s(g278
S'NNAAP'
tp618
F1
s(g231
S'VAAAP'
tp619
F1
s(S'AP'
S'AACCCCP'
tp620
F1
s(g257
S'VVP'
tp621
F17
s(S'VP'
S'VVVDDDP'
tp622
F1
s(g579
S'DADVNP'
tp623
F5
s(S'PP'
S'APVVVVVP'
tp624
F1
s(g137
S'APNP'
tp625
F22
s(S'DP'
S'DDDAPP'
tp626
F1
s(S'DP'
S'DDVVP'
tp627
F4
s(S'AP'
S'AAADDP'
tp628
F1
s(S'VP'
S'VVVNP'
tp629
F4
s(S'CP'
S'CADVADVADVDPPP'
tp630
F1
s(g331
S'ADVADVADVDPPP'
tp631
F1
s(g283
S'NAMP'
tp632
F2
s(S'MP'
S'MVNNP'
tp633
F1
s(S'AP'
S'AAADVPP'
tp634
F1
s(g322
S'CDPP'
tp635
F194
s(g263
S'MVVNNP'
tp636
F3
s(S'AP'
S'ADDDP'
tp637
F1
s(S'NP'
p638
S'NNADVADVVVP'
tp639
F1
s(S'VP'
S'VVAANP'
tp640
F1
s(S'CP'
S'ADVCDP'
tp641
F5
s(S'AP'
S'ADVAAP'
tp642
F1
s(S'VP'
S'ADVADVVNP'
tp643
F2
s(S'VP'
S'ADVADVVCP'
tp644
F3
s(g16
S'PPNNP'
tp645
F6
s(S'PP'
p646
S'ADVPAVP'
tp647
F2
s(g405
S'PPMP'
tp648
F3
s(g44
S'ADVADVDPP'
tp649
F3
s(g255
S'VADVNP'
tp650
F1
s(S'PP'
S'PPPADVNP'
tp651
F1
s(g317
S'AAANCCP'
tp652
F4
s(S'DP'
S'DAP'
tp653
F30
s(S'CP'
S'CADPP'
tp654
F14
s(g587
S'NADVAVP'
tp655
F1
s(S'VP'
S'ADVADVVVPP'
tp656
F2
s(g646
S'PPPADVPP'
tp657
F1
s(g127
S'AVPP'
tp658
F9
s(S'CP'
S'CAADPPP'
tp659
F1
s(S'DP'
S'DDNNNNP'
tp660
F1
s(g271
S'MPAANP'
tp661
F1
s(S'VP'
S'VVADVDP'
tp662
F1
s(g292
S'CDPPPP'
tp663
F5
s(g134
S'AAVDP'
tp664
F2
s(S'DP'
S'DAPPP'
tp665
F1
s(S'DP'
S'DMP'
tp666
F1
s(g448
S'ADVDPP'
tp667
F14
s(S'PP'
S'AAAPPNP'
tp668
F1
s(S'PP'
S'PADVADVNP'
tp669
F1
s(S'AP'
S'AADP'
tp670
F24
s(g346
S'NNADVVVP'
tp671
F2
s(g134
S'VADVPP'
tp672
F5
s(S'DP'
S'ADVDANP'
tp673
F1
s(g22
S'ADVPVP'
tp674
F8
s(S'DP'
S'DDDDPP'
tp675
F1
s(g478
S'ADVVANP'
tp676
F1
s(g69
S'ADVPDP'
tp677
F4
s(g283
S'ANNPP'
tp678
F4
s(g560
S'PPDDDDP'
tp679
F1
s(g89
S'NCP'
tp680
F148
s(S'VP'
S'ADVVVPP'
tp681
F7
s(g317
S'NAAANP'
tp682
F4
s(S'NP'
S'ADVANDP'
tp683
F1
s(S'AP'
S'AAAP'
tp684
F2
s(g384
S'AANDP'
tp685
F1
s(S'MP'
S'MVCCP'
tp686
F1
s(S'DP'
S'DADVNNP'
tp687
F1
s(g401
S'NNCCP'
tp688
F7
s(S'MP'
S'MNVP'
tp689
F1
s(g46
S'VANP'
tp690
F12
s(S'CP'
S'ADVADVCCDP'
tp691
F1
s(g475
S'AANCCP'
tp692
F1
s(S'VP'
S'VAPP'
tp693
F6
s(S'MP'
S'MAVNP'
tp694
F1
s(g14
S'ADVVDP'
tp695
F6
s(S'DP'
S'DDADVADVADVPP'
tp696
F1
s(S'DP'
S'DADVPP'
tp697
F12
s(S'AP'
S'AMP'
tp698
F1
s(g461
S'CCADP'
tp699
F1
s(S'DP'
S'ADVDAP'
tp700
F1
s(S'NP'
p701
S'NNNPPP'
tp702
F1
s(S'AP'
S'ADVAPP'
tp703
F3
s(S'NP'
S'NNNCCP'
tp704
F1
s(S'CP'
S'CCDDDP'
tp705
F7
s(S'CP'
S'CCADVADVDDP'
tp706
F1
s(g20
S'DVP'
tp707
F128
s(g58
S'ADVVAP'
tp708
F1
s(g638
S'ADVNPP'
tp709
F4
s(g374
S'AVP'
tp710
F27
s(g89
S'NADVVP'
tp711
F5
s(g701
S'NNADVADVVP'
tp712
F2
s(g5
S'DADDP'
tp713
F2
s(g417
S'DDPPP'
tp714
F6
s(g475
S'NNNMMP'
tp715
F1
s(S'NP'
S'ADVNMP'
tp716
F5
s(g401
S'NNAP'
tp717
F4
s(S'PP'
S'PPANP'
tp718
F3
s(S'CP'
S'CDADVPP'
tp719
F7
s(g58
S'VNP'
tp720
F127
s(g283
S'NNNADVDP'
tp721
F1
s(S'VP'
S'VADVAP'
tp722
F3
s(S'PP'
S'PPADVNP'
tp723
F1
s(S'DP'
S'DDDDVP'
tp724
F1
s(g295
S'ADVADVVVDP'
tp725
F1
s.