ccollections
defaultdict
p1
(c__builtin__
float
p2
tRp3
(S'DP'
S'DDAP'
tp4
F1
s(S'VP'
S'ADVVVNP'
tp5
F3
s(S'PP'
S'ADVADVADVADVPPNP'
tp6
F1
s(S'CP'
S'CCDDDDP'
tp7
F1
s(S'VP'
S'VVVVP'
tp8
F1
s(S'AP'
p9
S'AVVVP'
tp10
F1
s(S'PP'
p11
S'PAPP'
tp12
F9
s(S'PP'
p13
S'PADVNP'
tp14
F11
s(S'DP'
p15
S'DNP'
tp16
F213
s(S'MP'
S'MVVAAP'
tp17
F1
s(S'NP'
p18
S'ADVNDP'
tp19
F2
s(S'PP'
S'AAPDDP'
tp20
F1
s(S'CP'
p21
S'CDPPP'
tp22
F45
s(S'VP'
p23
S'ADVADVVCP'
tp24
F4
s(S'VP'
S'VADP'
tp25
F16
s(S'VP'
S'AAAAVVVVP'
tp26
F1
s(S'DP'
p27
S'DAAP'
tp28
F7
s(S'PP'
S'PPAVP'
tp29
F1
s(S'PP'
p30
S'PPPPPP'
tp31
F1
s(S'VP'
S'VVVPPP'
tp32
F1
s(S'VP'
p33
S'VAVP'
tp34
F1
s(S'PP'
p35
S'APPDP'
tp36
F1
s(S'CP'
S'CADVADVDPPP'
tp37
F2
s(S'DP'
p38
S'ADNNP'
tp39
F2
s(S'CP'
S'CCCADVADVDP'
tp40
F1
s(S'CP'
S'ACDDDDP'
tp41
F1
s(S'PP'
S'PADVADVAAP'
tp42
F1
s(S'PP'
S'APVP'
tp43
F19
s(S'MP'
p44
S'MVDP'
tp45
F9
s(S'PP'
p46
S'PADVANP'
tp47
F3
s(S'PP'
p48
S'PPPP'
tp49
F30
s(S'DP'
S'DDDNP'
tp50
F1
s(S'VP'
p51
S'VACP'
tp52
F4
s(S'AP'
p53
S'AAAVP'
tp54
F1
s(S'PP'
S'PPAAP'
tp55
F1
s(S'DP'
S'DADVVP'
tp56
F7
s(S'PP'
S'PADVNNP'
tp57
F2
s(S'AP'
S'AADVPP'
tp58
F2
s(S'NP'
S'NADVACP'
tp59
F1
s(S'NP'
S'NDDDP'
tp60
F1
s(S'NP'
S'NCCCP'
tp61
F4
s(S'CP'
S'CADVDAPP'
tp62
F1
s(S'VP'
S'VCP'
tp63
F84
s(S'NP'
S'NMMP'
tp64
F1
s(g11
S'PPVVP'
tp65
F5
s(S'PP'
p66
S'ADVPNNP'
tp67
F1
s(g48
S'PAP'
tp68
F87
s(S'MP'
S'MMVVP'
tp69
F1
s(S'CP'
S'CDADVADVADVPP'
tp70
F2
s(S'PP'
p71
S'ADVPPVP'
tp72
F2
s(S'NP'
p73
S'ANPPP'
tp74
F4
s(S'NP'
S'NNNACP'
tp75
F1
s(S'PP'
p76
S'PPADVDP'
tp77
F1
s(S'MP'
S'AMVP'
tp78
F4
s(S'PP'
p79
S'PNP'
tp80
F193
s(S'DP'
S'ADDP'
tp81
F3
s(S'DP'
p82
S'DDP'
tp83
F48
s(S'NP'
S'NNNPP'
tp84
F2
s(g48
S'PAAP'
tp85
F13
s(S'DP'
S'DDAANP'
tp86
F1
s(S'DP'
p87
S'DDDDADVPPP'
tp88
F1
s(S'VP'
p89
S'ADVADVVVCP'
tp90
F2
s(S'NP'
p91
S'NMP'
tp92
F44
s(S'NP'
p93
S'ADVNCCP'
tp94
F1
s(g87
S'ADCP'
tp95
F1
s(S'NP'
S'NVVVVP'
tp96
F1
s(S'VP'
S'AAVNP'
tp97
F1
s(g48
S'PDP'
tp98
F213
s(S'CP'
S'CDAAPP'
tp99
F3
s(S'NP'
S'ADVNVVP'
tp100
F2
s(S'VP'
S'VNNNNP'
tp101
F2
s(S'CP'
p102
S'CDADVADVPPP'
tp103
F2
s(g30
S'PPPADVVP'
tp104
F1
s(S'AP'
S'ANP'
tp105
F1
s(S'NP'
p106
S'NADVADVADVVP'
tp107
F3
s(S'PP'
p108
S'PADVPP'
tp109
F1
s(S'NP'
S'NNADVCP'
tp110
F1
s(g66
S'ADVADVPPVVP'
tp111
F1
s(S'VP'
S'VVADVNP'
tp112
F1
s(S'PP'
S'ADVAPDDDP'
tp113
F1
s(S'NP'
p114
S'ADVNACP'
tp115
F1
s(S'DP'
p116
S'DPPPP'
tp117
F3
s(S'DP'
p118
S'DDANP'
tp119
F3
s(S'PP'
p120
S'PADVADP'
tp121
F1
s(S'NP'
p122
S'NACP'
tp123
F17
s(S'AP'
S'ADVAVP'
tp124
F2
s(S'NP'
p125
S'NCCP'
tp126
F33
s(S'VP'
S'VVADVCP'
tp127
F1
s(S'AP'
p128
S'AAAADP'
tp129
F1
s(g73
S'NNCP'
tp130
F47
s(S'DP'
p131
S'ADVDDPP'
tp132
F8
s(g122
S'NADVADVVP'
tp133
F4
s(S'DP'
S'DPPPPP'
tp134
F1
s(S'NP'
S'NNPPPP'
tp135
F1
s(S'VP'
S'AVNP'
tp136
F6
s(S'VP'
S'VVADP'
tp137
F2
s(S'MP'
S'MADVADVADVVCP'
tp138
F1
s(S'MP'
S'MADVVPPP'
tp139
F1
s(S'VP'
S'VVNNNP'
tp140
F1
s(S'NP'
S'AAAAANCP'
tp141
F1
s(S'VP'
S'ADVADVAVNP'
tp142
F1
s(S'VP'
S'VADVVP'
tp143
F1
s(S'MP'
S'MVAPP'
tp144
F2
s(S'AP'
p145
S'AAAAP'
tp146
F1
s(S'NP'
S'NCCCCP'
tp147
F1
s(g102
S'CCCDP'
tp148
F4
s(g89
S'ADVVAP'
tp149
F4
s(S'PP'
p150
S'APDP'
tp151
F49
s(S'CP'
p152
S'ADVCCADVDP'
tp153
F1
s(S'NP'
S'ADVNPPP'
tp154
F1
s(S'AP'
p155
S'AADVCP'
tp156
F4
s(g23
S'VVANP'
tp157
F1
s(S'VP'
p158
S'VVVVDP'
tp159
F1
s(S'VP'
S'ADVVVP'
tp160
F1
s(S'DP'
p161
S'ADVDADVPPPP'
tp162
F1
s(S'NP'
S'ADVNNADVVP'
tp163
F1
s(S'DP'
p164
S'DADVADVADVPP'
tp165
F3
s(S'NP'
p166
S'ADVNCP'
tp167
F3
s(S'NP'
S'ANADVADVADVADVVVP'
tp168
F1
s(S'NP'
S'ADVANCP'
tp169
F6
s(S'DP'
p170
S'DNNP'
tp171
F43
s(S'CP'
S'CADVDDPP'
tp172
F7
s(S'DP'
S'ADVADVDDNP'
tp173
F1
s(S'DP'
S'ADADVANP'
tp174
F1
s(S'VP'
p175
S'ADVADVADVVVDP'
tp176
F1
s(S'NP'
S'NNNVP'
tp177
F2
s(S'NP'
S'NNNNADVCP'
tp178
F1
s(S'PP'
S'PPNNNNP'
tp179
F1
s(g46
S'PADVVP'
tp180
F8
s(S'DP'
S'DADVADVADVPPP'
tp181
F2
s(S'PP'
p182
S'APAP'
tp183
F4
s(S'CP'
p184
S'ADVADVCDP'
tp185
F1
s(S'AP'
S'ACCCP'
tp186
F1
s(S'NP'
S'NADVMP'
tp187
F1
s(S'AP'
S'AAP'
tp188
F4
s(S'NP'
p189
S'ADVANPP'
tp190
F1
s(S'MP'
S'MVVCP'
tp191
F3
s(S'DP'
S'DAAVP'
tp192
F2
s(S'CP'
S'CDDDDPP'
tp193
F1
s(S'PP'
p194
S'PAANP'
tp195
F4
s(S'NP'
p196
S'NADVADVPPP'
tp197
F1
s(S'NP'
p198
S'ANVP'
tp199
F17
s(S'MP'
p200
S'MVNP'
tp201
F7
s(S'AP'
p202
S'ADVAADP'
tp203
F1
s(S'CP'
S'CADVADVDDPP'
tp204
F2
s(S'PP'
p205
S'PAVP'
tp206
F23
s(S'CP'
S'ADVCDDDP'
tp207
F1
s(S'PP'
p208
S'ADVADVPPVP'
tp209
F1
s(S'VP'
S'AVADVVP'
tp210
F1
s(S'DP'
S'DDAPPP'
tp211
F1
s(S'VP'
S'VVVPP'
tp212
F5
s(S'NP'
S'NNADP'
tp213
F1
s(S'PP'
p214
S'APPPP'
tp215
F2
s(g82
S'DADP'
tp216
F5
s(S'AP'
S'ADVADP'
tp217
F2
s(g53
S'APP'
tp218
F50
s(S'DP'
S'ADVDDP'
tp219
F2
s(S'PP'
S'APDDP'
tp220
F1
s(S'NP'
S'ADVNAP'
tp221
F1
s(S'VP'
p222
S'ADVVNP'
tp223
F5
s(S'MP'
S'MNNCP'
tp224
F1
s(S'VP'
S'VVNP'
tp225
F20
s(S'PP'
S'PPPNNP'
tp226
F1
s(S'PP'
p227
S'PPVP'
tp228
F28
s(S'VP'
S'VADVDP'
tp229
F5
s(S'VP'
S'VVADVAP'
tp230
F2
s(S'VP'
S'VAAP'
tp231
F17
s(S'NP'
S'ADVADVNAMP'
tp232
F1
s(g73
S'ANDP'
tp233
F11
s(S'NP'
S'NVVP'
tp234
F26
s(g205
S'AAPVP'
tp235
F4
s(S'VP'
p236
S'VMP'
tp237
F1
s(S'NP'
p238
S'ANPPPP'
tp239
F1
s(g21
S'CDAPP'
tp240
F28
s(S'VP'
S'VVAAP'
tp241
F4
s(S'DP'
p242
S'ADVADVP'
tp243
F2
s(S'DP'
p244
S'ADNP'
tp245
F19
s(g33
S'AVVDP'
tp246
F1
s(S'PP'
S'PPADVMP'
tp247
F1
s(S'CP'
S'ACCDP'
tp248
F2
s(S'VP'
S'VVVVCP'
tp249
F2
s(S'VP'
S'ADVVVCP'
tp250
F1
s(S'MP'
S'MMADVNNP'
tp251
F1
s(S'NP'
S'ANDDP'
tp252
F3
s(g116
S'ADVADVDVP'
tp253
F1
s(g131
S'DADVAP'
tp254
F5
s(S'VP'
S'AVVCCP'
tp255
F1
s(S'DP'
p256
S'DAPP'
tp257
F45
s(S'VP'
S'AVVP'
tp258
F1
s(S'VP'
S'VVVVPP'
tp259
F1
s(g158
S'ADVADVVPP'
tp260
F2
s(S'VP'
p261
S'VADVAAP'
tp262
F1
s(S'VP'
p263
S'ADVADVADVVDP'
tp264
F2
s(S'VP'
S'ADVADVVDP'
tp265
F3
s(g205
S'PPPDP'
tp266
F4
s(S'AP'
S'AAVVP'
tp267
F1
s(S'MP'
S'MVVAP'
tp268
F1
s(S'DP'
S'DADVANP'
tp269
F6
s(S'VP'
S'VAAPP'
tp270
F1
s(S'DP'
S'ADVDNP'
tp271
F2
s(S'VP'
S'VVPP'
tp272
F24
s(S'DP'
S'DDDADVNP'
tp273
F1
s(S'CP'
S'AACDDP'
tp274
F1
s(S'MP'
S'MVPP'
tp275
F11
s(S'DP'
S'ADVP'
tp276
F9
s(g152
S'CDDPPP'
tp277
F10
s(g114
S'NNPP'
tp278
F28
s(S'CP'
S'CCCADVDP'
tp279
F1
s(S'DP'
p280
S'DDDDNP'
tp281
F1
s(S'DP'
p282
S'DADVPPP'
tp283
F9
s(S'PP'
p284
S'PPAAAAPP'
tp285
F1
s(S'DP'
S'DNNNP'
tp286
F3
s(S'PP'
S'PADVADVVP'
tp287
F2
s(S'PP'
S'PMMP'
tp288
F1
s(S'PP'
p289
S'PVVVP'
tp290
F3
s(S'PP'
S'PMP'
tp291
F12
s(S'PP'
S'PADVADVADVVP'
tp292
F2
s(S'CP'
p293
S'CCDP'
tp294
F54
s(S'VP'
p295
S'VAAVP'
tp296
F1
s(S'NP'
p297
S'NVVVP'
tp298
F7
s(S'CP'
S'CDDDPP'
tp299
F2
s(S'CP'
S'CDADVADVPP'
tp300
F2
s(S'VP'
S'VVVDP'
tp301
F7
s(S'PP'
S'PDDDDP'
tp302
F1
s(S'PP'
S'PNNNP'
tp303
F2
s(g293
S'CCCCDP'
tp304
F4
s(S'PP'
S'APADVNNP'
tp305
F1
s(S'PP'
S'AAPNP'
tp306
F1
s(S'MP'
S'MVVNP'
tp307
F2
s(g71
S'PADVVVP'
tp308
F2
s(S'PP'
p309
S'PPP'
tp310
F117
s(g91
S'NNVVP'
tp311
F7
s(S'NP'
p312
S'NAVP'
tp313
F11
s(S'PP'
p314
S'PADVAP'
tp315
F2
s(S'VP'
p316
S'ADVVVCCCP'
tp317
F1
s(S'DP'
S'DDNNNP'
tp318
F2
s(S'VP'
p319
S'ADVVAPP'
tp320
F1
s(g120
S'APVVVP'
tp321
F1
s(S'DP'
S'ADVDVP'
tp322
F5
s(S'PP'
p323
S'PPADVADVNP'
tp324
F1
s(S'NP'
S'NADVVVP'
tp325
F6
s(S'DP'
S'DADVADVPPP'
tp326
F2
s(g202
S'AADVVP'
tp327
F3
s(g166
S'NNDDP'
tp328
F2
s(S'DP'
S'DAAAP'
tp329
F1
s(S'DP'
S'ADVADVDNP'
tp330
F1
s(S'AP'
S'AAADVCP'
tp331
F1
s(S'VP'
p332
S'VPP'
tp333
F126
s(S'CP'
S'ADVCCDP'
tp334
F5
s(S'DP'
S'ADVDDPPP'
tp335
F1
s(S'DP'
S'ADVDDNP'
tp336
F1
s(S'NP'
S'NNNCP'
tp337
F2
s(g194
S'PADVDP'
tp338
F7
s(S'CP'
p339
S'CDADVAPP'
tp340
F1
s(S'DP'
S'DANNP'
tp341
F2
s(S'MP'
S'MADVVAP'
tp342
F2
s(g152
S'CDDPP'
tp343
F34
s(g82
S'DAAPP'
tp344
F6
s(S'PP'
S'PVVP'
tp345
F22
s(S'CP'
S'CADPPP'
tp346
F4
s(S'AP'
p347
S'AACP'
tp348
F9
s(S'DP'
S'ADVADDP'
tp349
F1
s(g263
S'ADVVCP'
tp350
F4
s(S'MP'
S'MCCDP'
tp351
F1
s(S'VP'
p352
S'VPPP'
tp353
F15
s(S'NP'
S'NADVADVAVP'
tp354
F1
s(S'PP'
p355
S'PPADVADVDP'
tp356
F1
s(S'VP'
S'ADVVVCCP'
tp357
F1
s(S'PP'
S'PPAP'
tp358
F9
s(S'DP'
S'DVVP'
tp359
F15
s(S'MP'
S'ADVMVP'
tp360
F2
s(g189
S'ANMP'
tp361
F4
s(S'AP'
S'APPP'
tp362
F3
s(S'PP'
p363
S'ADVPPP'
tp364
F2
s(g312
S'ADVADVNVP'
tp365
F2
s(g23
S'VVVP'
tp366
F2
s(S'CP'
p367
S'CADVDPP'
tp368
F8
s(S'NP'
p369
S'ANCP'
tp370
F39
s(S'DP'
S'DCP'
tp371
F7
s(S'DP'
S'DVVVP'
tp372
F1
s(S'DP'
p373
S'DAAVVP'
tp374
F1
s(S'NP'
S'NNVVVVP'
tp375
F2
s(g314
S'ADVADVADVPPNP'
tp376
F2
s(S'VP'
S'AAVVCP'
tp377
F1
s(g82
S'DDDP'
tp378
F6
s(S'DP'
S'DDADVPP'
tp379
F1
s(S'MP'
S'MVVVVNP'
tp380
F1
s(S'NP'
p381
S'ANVVP'
tp382
F4
s(S'VP'
S'VVDP'
tp383
F25
s(S'NP'
S'NPPP'
tp384
F27
s(g30
S'PPAPP'
tp385
F1
s(S'VP'
p386
S'VVADVDP'
tp387
F2
s(g82
S'DAVP'
tp388
F24
s(S'VP'
S'AVVVP'
tp389
F1
s(S'NP'
S'NNNNMP'
tp390
F1
s(S'AP'
S'ACP'
tp391
F64
s(S'PP'
S'AAPAP'
tp392
F1
s(S'CP'
p393
S'CADPP'
tp394
F38
s(g79
S'PPNP'
tp395
F47
s(S'AP'
S'ADVACCP'
tp396
F2
s(g284
S'AAAAPDP'
tp397
F1
s(g82
S'ADVDAPP'
tp398
F2
s(S'DP'
S'AADVP'
tp399
F1
s(S'NP'
S'NNNNCCP'
tp400
F1
s(S'AP'
p401
S'ADP'
tp402
F104
s(S'PP'
S'ADVPPDDP'
tp403
F1
s(S'CP'
S'CADVDDPPP'
tp404
F1
s(S'PP'
p405
S'APVVP'
tp406
F2
s(g373
S'DVVVVP'
tp407
F1
s(S'VP'
S'AVDP'
tp408
F28
s(S'VP'
p409
S'VVAP'
tp410
F16
s(S'NP'
S'NNAPP'
tp411
F1
s(S'CP'
S'ADVACDP'
tp412
F1
s(S'NP'
S'NNADVCCP'
tp413
F1
s(S'NP'
S'NPP'
tp414
F177
s(S'PP'
S'PPPPNP'
tp415
F1
s(S'NP'
p416
S'NVP'
tp417
F160
s(S'CP'
S'ADVCCDDP'
tp418
F1
s(S'PP'
S'PAAVP'
tp419
F1
s(g369
S'NAAPP'
tp420
F1
s(S'DP'
S'ADPPPP'
tp421
F1
s(g131
S'DDDADVDDP'
tp422
F1
s(S'NP'
S'AANVVP'
tp423
F1
s(g131
S'DADVAPP'
tp424
F3
s(S'PP'
S'ADVAPAP'
tp425
F1
s(S'NP'
p426
S'NADVADVVVP'
tp427
F3
s(g73
S'ANPP'
tp428
F42
s(g355
S'ADVPPDP'
tp429
F6
s(S'PP'
S'PPPPP'
tp430
F3
s(S'NP'
p431
S'ADVNAAAP'
tp432
F1
s(S'MP'
p433
S'MVVPP'
tp434
F2
s(S'AP'
S'AMMP'
tp435
F1
s(S'PP'
S'PPPNP'
tp436
F1
s(S'DP'
p437
S'DDDDDP'
tp438
F1
s(g18
S'ADVADVNPP'
tp439
F1
s(S'NP'
S'NPPPP'
tp440
F2
s(S'AP'
S'AADVADVDP'
tp441
F1
s(S'CP'
S'CAADPP'
tp442
F3
s(g426
S'NAACP'
tp443
F3
s(g227
S'PNNP'
tp444
F50
s(S'CP'
S'CDADVADVADVPPP'
tp445
F2
s(g323
S'APNNP'
tp446
F2
s(S'DP'
S'DDACP'
tp447
F1
s(S'VP'
p448
S'AVAP'
tp449
F7
s(S'MP'
p450
S'MMVP'
tp451
F2
s(g347
S'AAPPPP'
tp452
F1
s(S'PP'
S'APAAAAP'
tp453
F1
s(g401
S'AADP'
tp454
F23
s(g312
S'ADVANNP'
tp455
F1
s(S'CP'
S'ACDP'
tp456
F25
s(S'NP'
S'NNDP'
tp457
F10
s(S'NP'
p458
S'ANADVADVVVP'
tp459
F1
s(S'NP'
p460
S'NNACP'
tp461
F3
s(S'CP'
S'CDADVPPP'
tp462
F4
s(g332
S'VAP'
tp463
F76
s(S'VP'
S'VVVVNP'
tp464
F1
s(S'DP'
p465
S'DDDPP'
tp466
F4
s(S'CP'
S'ADVCDDP'
tp467
F2
s(S'PP'
S'ADVPMP'
tp468
F2
s(g46
S'PAAPP'
tp469
F6
s(S'MP'
S'MVVVDP'
tp470
F2
s(g319
S'ADVADVVVAP'
tp471
F1
s(g280
S'ADAP'
tp472
F1
s(S'DP'
S'DADVDP'
tp473
F2
s(S'NP'
S'AANMP'
tp474
F1
s(S'AP'
S'AAACP'
tp475
F3
s(S'VP'
S'ADVVVDP'
tp476
F5
s(S'AP'
S'AADDP'
tp477
F1
s(S'VP'
S'VADVADVADVCP'
tp478
F1
s(S'VP'
S'VAANP'
tp479
F1
s(g426
S'NADVADVCP'
tp480
F1
s(S'DP'
p481
S'DDDDPP'
tp482
F2
s(S'DP'
p483
S'DADVADVDP'
tp484
F1
s(S'MP'
S'MADP'
tp485
F4
s(g13
S'PPPDDP'
tp486
F1
s(g125
S'NNNCCCCP'
tp487
F1
s(g48
S'PANP'
tp488
F38
s(S'PP'
p489
S'PDDDP'
tp490
F2
s(S'NP'
S'ANNMP'
tp491
F1
s(S'MP'
S'MADVADVVDP'
tp492
F1
s(S'NP'
S'ADVANPPP'
tp493
F1
s(S'AP'
p494
S'AAVP'
tp495
F9
s(S'AP'
S'AVVP'
tp496
F2
s(S'NP'
S'NDDP'
tp497
F12
s(S'VP'
S'VADVCP'
tp498
F2
s(S'PP'
S'ADVPPPNP'
tp499
F1
s(S'AP'
S'ACCP'
tp500
F6
s(S'DP'
S'DDDADVPP'
tp501
F1
s(g448
S'AVPPP'
tp502
F1
s(g125
S'NDP'
tp503
F75
s(S'MP'
S'MVAAP'
tp504
F1
s(g481
S'DDVP'
tp505
F17
s(S'VP'
S'ADVVVNNP'
tp506
F1
s(S'VP'
S'VNNNP'
tp507
F4
s(S'MP'
S'MADVADVADVVNNP'
tp508
F1
s(S'PP'
S'ADVPAP'
tp509
F1
s(S'PP'
p510
S'APADVDP'
tp511
F1
s(g13
S'PCP'
tp512
F6
s(S'NP'
S'NNPPP'
tp513
F3
s(S'PP'
p514
S'PAADP'
tp515
F2
s(S'NP'
S'ADVNNVP'
tp516
F1
s(S'MP'
S'MDNP'
tp517
F3
s(S'MP'
S'MADVADVVCP'
tp518
F1
s(g332
S'VCCP'
tp519
F12
s(S'MP'
S'MPAP'
tp520
F1
s(S'MP'
S'MVNNNP'
tp521
F2
s(S'NP'
S'NNNDP'
tp522
F2
s(g155
S'ADVACP'
tp523
F5
s(S'NP'
S'ADVADVNMP'
tp524
F1
s(g35
S'PAPPP'
tp525
F1
s(S'NP'
S'NNVP'
tp526
F31
s(g200
S'MVCP'
tp527
F11
s(g339
S'CCDDP'
tp528
F9
s(S'NP'
S'NNADVVP'
tp529
F2
s(S'DP'
S'DAAAAVP'
tp530
F1
s(S'NP'
S'NAAP'
tp531
F4
s(g244
S'DADVNP'
tp532
F7
s(g514
S'PPADVPPP'
tp533
F1
s(g196
S'NNNNVP'
tp534
F2
s(g51
S'VVCP'
tp535
F7
s(g431
S'AANCP'
tp536
F4
s(S'VP'
S'VDP'
tp537
F166
s(S'AP'
S'ADVAVVP'
tp538
F1
s(g205
S'APPP'
tp539
F11
s(S'VP'
S'ADVVPP'
tp540
F5
s(g175
S'VNNP'
tp541
F13
s(S'AP'
S'AADVDP'
tp542
F4
s(g238
S'NADP'
tp543
F8
s(g256
S'DDNP'
tp544
F42
s(g198
S'NADVCP'
tp545
F5
s(S'DP'
S'DDNNP'
tp546
F6
s(S'VP'
S'ADVAVPP'
tp547
F1
s(S'AP'
S'ADVADDP'
tp548
F1
s(g118
S'AADPP'
tp549
F3
s(S'VP'
p550
S'VVVAAP'
tp551
F1
s(S'PP'
S'APPNP'
tp552
F1
s(g284
S'PADP'
tp553
F24
s(S'MP'
S'MADVAVPP'
tp554
F1
s(g458
S'NNNP'
tp555
F2
s(g128
S'AADVADVVP'
tp556
F1
s(g48
S'AAPDP'
tp557
F6
s(g316
S'ADVADVADVVDDP'
tp558
F1
s(S'DP'
S'ADVVP'
tp559
F2
s(g242
S'ADVDNNP'
tp560
F3
s(g76
S'ADVADVADVADVPPNNP'
tp561
F1
s(S'CP'
S'ACDDP'
tp562
F3
s(S'AP'
S'AAPP'
tp563
F8
s(S'VP'
S'VVCCP'
tp564
F3
s(S'DP'
S'DADVVVP'
tp565
F1
s(S'DP'
S'DADVADVNP'
tp566
F1
s(g214
S'ADVPANP'
tp567
F1
s(S'NP'
S'NAPP'
tp568
F26
s(S'PP'
S'ADVPPPP'
tp569
F1
s(S'NP'
S'ANCCP'
tp570
F5
s(g381
S'AANPP'
tp571
F3
s(S'AP'
S'ADVADDDP'
tp572
F1
s(g73
S'NNMP'
tp573
F5
s(S'DP'
S'DDDVP'
tp574
F1
s(g227
S'PAAAP'
tp575
F3
s(S'PP'
S'ADVADVPNP'
tp576
F2
s(g38
S'ADVDADP'
tp577
F1
s(S'NP'
S'AANAP'
tp578
F1
s(S'CP'
S'CDDAPP'
tp579
F4
s(S'MP'
S'MVAP'
tp580
F7
s(g309
S'PVP'
tp581
F164
s(S'VP'
S'VADVPPP'
tp582
F2
s(g79
S'PPADVVVP'
tp583
F3
s(S'AP'
S'AAADVADVADVADVDP'
tp584
F1
s(S'VP'
p585
S'VADVCCP'
tp586
F1
s(g200
S'MADVVVDP'
tp587
F1
s(S'AP'
S'AADVDDP'
tp588
F1
s(S'AP'
S'ADVAACP'
tp589
F1
s(g369
S'ANNCP'
tp590
F5
s(S'PP'
S'PPADVPP'
tp591
F1
s(S'NP'
S'ADVNNAP'
tp592
F1
s(S'NP'
S'AAAANADVVVP'
tp593
F1
s(S'VP'
S'VCCCCP'
tp594
F1
s(S'MP'
S'MMMMVP'
tp595
F1
s(S'PP'
S'PPDDP'
tp596
F6
s(S'VP'
p597
S'AVCP'
tp598
F6
s(g297
S'NAVVP'
tp599
F2
s(g170
S'DPP'
tp600
F247
s(S'NP'
S'ADVNVP'
tp601
F6
s(S'DP'
S'DDDVVP'
tp602
F1
s(g82
S'DDPP'
tp603
F65
s(g282
S'DANP'
tp604
F61
s(S'NP'
S'NADVPP'
tp605
F2
s(S'NP'
S'NADVADP'
tp606
F2
s(g27
S'AADNP'
tp607
F4
s(S'DP'
S'ADVADVDPPP'
tp608
F2
s(S'NP'
S'NNNNCP'
tp609
F1
s(S'VP'
S'ADVVAADP'
tp610
F1
s(g238
S'NADVCCP'
tp611
F5
s(S'DP'
S'DDDADVAPP'
tp612
F1
s(g71
S'PADVPPP'
tp613
F1
s(S'PP'
S'ADVADVPPP'
tp614
F1
s(S'CP'
S'CDPPPPP'
tp615
F1
s(S'MP'
S'MADVVDP'
tp616
F2
s(S'DP'
S'DDADVNNP'
tp617
F1
s(g242
S'DDADVVP'
tp618
F3
s(S'PP'
p619
S'PDDP'
tp620
F25
s(g44
S'MVDDP'
tp621
F2
s(g405
S'ADVAPNP'
tp622
F2
s(S'DP'
S'DAANP'
tp623
F3
s(g164
S'ADPPP'
tp624
F8
s(g114
S'ADVNNCP'
tp625
F2
s(S'PP'
S'PPPMP'
tp626
F1
s(S'AP'
S'ADVADVACP'
tp627
F1
s(S'NP'
S'NNP'
tp628
F1
s(g263
S'VVDDP'
tp629
F5
s(S'DP'
S'DDADVAAP'
tp630
F1
s(g483
S'ADVADVDADVPP'
tp631
F1
s(g401
S'ADDP'
tp632
F12
s(S'VP'
S'ADVADVADVVNNP'
tp633
F1
s(g386
S'ADVADVADVVCP'
tp634
F3
s(S'DP'
S'DDDADVVP'
tp635
F1
s(S'VP'
S'ADVVVAP'
tp636
F1
s(g510
S'ADVPPNP'
tp637
F5
s(S'DP'
S'DADVADVADVADVPPP'
tp638
F1
s(S'VP'
S'VVVCP'
tp639
F2
s(S'CP'
S'CADVADVDPP'
tp640
F4
s(S'CP'
S'ADVADVADVCDP'
tp641
F2
s(g170
S'DPPP'
tp642
F76
s(S'PP'
S'PNNNNP'
tp643
F2
s(g87
S'AADPPP'
tp644
F2
s(S'PP'
S'ADVADVPPNP'
tp645
F2
s(S'NP'
S'NNAVP'
tp646
F1
s(g106
S'NNNADVVVP'
tp647
F1
s(g309
S'ADVPNP'
tp648
F11
s(g48
S'PPDP'
tp649
F41
s(S'MP'
S'MAVDP'
tp650
F2
s(S'AP'
S'ADVADVAACP'
tp651
F1
s(S'DP'
S'DDADVANP'
tp652
F1
s(S'DP'
S'DDCP'
tp653
F1
s(g114
S'NAP'
tp654
F22
s(S'VP'
S'VAAAP'
tp655
F2
s(S'VP'
S'AVADVCP'
tp656
F1
s(S'VP'
S'ADVADVADVADVVVPP'
tp657
F1
s(g236
S'VVP'
tp658
F13
s(g465
S'DDAPP'
tp659
F6
s(S'AP'
S'AAADP'
tp660
F4
s(g150
S'APNP'
tp661
F19
s(g437
S'DDDAPP'
tp662
F1
s(g244
S'DDVVP'
tp663
F2
s(g433
S'MVVADVAP'
tp664
F1
s(S'VP'
S'VVVNP'
tp665
F2
s(S'MP'
S'MVANP'
tp666
F1
s(g145
S'AAADDDP'
tp667
F1
s(S'DP'
S'ADVADVDDPP'
tp668
F2
s(g393
S'CDPP'
tp669
F219
s(S'AP'
S'ADDDP'
tp670
F2
s(S'CP'
S'ADVCADP'
tp671
F1
s(S'AP'
S'AAACCCCP'
tp672
F1
s(S'NP'
S'NADVADVADVADVPPP'
tp673
F1
s(g152
S'ADVCDP'
tp674
F12
s(g585
S'ADVADVVNP'
tp675
F1
s(S'NP'
S'NADVADVADVCP'
tp676
F1
s(S'PP'
S'APMMP'
tp677
F1
s(g289
S'PPNNP'
tp678
F11
s(g214
S'PPMP'
tp679
F1
s(g38
S'ADVADVDPP'
tp680
F5
s(g352
S'VADVNP'
tp681
F4
s(g89
S'AVDDP'
tp682
F6
s(g170
S'DAP'
tp683
F27
s(g332
S'VANNP'
tp684
F1
s(g550
S'ADVADVVVPP'
tp685
F1
s(S'DP'
S'ADVADVADVADVDVP'
tp686
F1
s(S'VP'
p687
S'AVPP'
tp688
F3
s(S'CP'
S'CAADPPP'
tp689
F1
s(S'MP'
S'AMVVP'
tp690
F1
s(S'PP'
S'PPADVADVDDP'
tp691
F1
s(g295
S'AAVDP'
tp692
F3
s(g363
S'PANNP'
tp693
F2
s(S'VP'
S'VACCP'
tp694
F2
s(S'AP'
S'AAAPP'
tp695
F1
s(g208
S'PPADVADVPPP'
tp696
F1
s(S'DP'
S'DADVADVPP'
tp697
F3
s(S'DP'
S'DMP'
tp698
F6
s(g15
S'ADVDPP'
tp699
F16
s(g182
S'PADVADVNP'
tp700
F3
s(S'PP'
S'PMMMMP'
tp701
F1
s(g170
S'ADPP'
tp702
F58
s(S'NP'
S'NNADVVVP'
tp703
F1
s(S'VP'
S'VADVPP'
tp704
F2
s(g161
S'ADVDANP'
tp705
F1
s(S'PP'
S'ADVPVP'
tp706
F7
s(S'NP'
S'NADVADVADVVVP'
tp707
F2
s(g93
S'NNVVVP'
tp708
F1
s(g489
S'PAMP'
tp709
F4
s(g108
S'ADVPDP'
tp710
F5
s(S'NP'
S'ANADVDP'
tp711
F1
s(S'NP'
S'ADVNNPP'
tp712
F2
s(g416
S'NCP'
tp713
F187
s(S'CP'
S'CADVDPPP'
tp714
F1
s(S'VP'
S'ADVVVPP'
tp715
F3
s(g460
S'ADVANDP'
tp716
F2
s(S'AP'
S'AAAP'
tp717
F2
s(g687
S'VAADP'
tp718
F2
s(g494
S'AAMP'
tp719
F1
s(S'DP'
S'DADVNNP'
tp720
F2
s(g238
S'NNCCP'
tp721
F3
s(g450
S'MNVP'
tp722
F1
s(g222
S'ADVADVADVVVCP'
tp723
F1
s(S'PP'
S'PADVADVAP'
tp724
F1
s(g687
S'VAPP'
tp725
F16
s(g175
S'VDDP'
tp726
F35
s(g261
S'ADVVDP'
tp727
F14
s(g15
S'DADVPP'
tp728
F19
s(g9
S'AMP'
tp729
F3
s(S'CP'
S'CCADP'
tp730
F4
s(g114
S'ADVANVVVP'
tp731
F1
s(g619
S'ADVADVADVPNP'
tp732
F3
s(S'AP'
S'ADVAPP'
tp733
F2
s(g227
S'ADVPPVVP'
tp734
F1
s(S'DP'
S'ADVDAVP'
tp735
F1
s(g184
S'AACDP'
tp736
F2
s(S'CP'
S'CCDDDP'
tp737
F1
s(S'DP'
S'ADVDPPP'
tp738
F1
s(g481
S'DVP'
tp739
F140
s(g597
S'AVNNP'
tp740
F6
s(S'NP'
S'ADVNPP'
tp741
F2
s(S'PP'
S'AAPVVVP'
tp742
F1
s(S'CP'
S'CDADVADVADVADVPPP'
tp743
F1
s(g401
S'AVP'
tp744
F25
s(S'NP'
S'NADVVP'
tp745
F4
s(S'PP'
S'PPPADVADVVP'
tp746
F1
s(S'VP'
S'ADVVPPP'
tp747
F1
s(g82
S'DDPPP'
tp748
F16
s(S'NP'
S'ADVNMP'
tp749
F3
s(S'NP'
S'NNAP'
tp750
F3
s(g619
S'PPANP'
tp751
F3
s(g367
S'CDADVPP'
tp752
F8
s(g409
S'VNP'
tp753
F108
s(S'VP'
S'VANP'
tp754
F10
s(g597
S'VADVAP'
tp755
F8
s(S'VP'
S'VVVAP'
tp756
F1
s(g189
S'NADVPPP'
tp757
F2
s.