ccollections
defaultdict
p1
(c__builtin__
float
p2
tRp3
(S'PP'
S'AAAPDDDP'
tp4
F1
s(S'CP'
S'CAAADPP'
tp5
F1
s(S'PP'
p6
S'PAAANP'
tp7
F1
s(S'DP'
S'ADDPP'
tp8
F1
s(S'DP'
S'DDAP'
tp9
F4
s(S'VP'
S'ADVVVNP'
tp10
F3
s(S'NP'
S'ADVAANNPP'
tp11
F1
s(S'PP'
S'ADVADVPAP'
tp12
F2
s(S'PP'
p13
S'PAPP'
tp14
F17
s(S'PP'
S'PADVNP'
tp15
F23
s(S'DP'
p16
S'DNP'
tp17
F553
s(S'NP'
S'ADVNDP'
tp18
F1
s(S'PP'
S'AAPDDP'
tp19
F1
s(S'CP'
p20
S'CDPPP'
tp21
F79
s(S'DP'
S'DCCCCP'
tp22
F1
s(S'VP'
S'VADP'
tp23
F24
s(S'DP'
p24
S'DAAP'
tp25
F15
s(S'PP'
S'PPAVP'
tp26
F3
s(S'PP'
p27
S'PPPPPP'
tp28
F2
s(S'VP'
S'VAVP'
tp29
F1
s(S'PP'
p30
S'APPDP'
tp31
F1
s(S'VP'
S'ADVADVADVVVPP'
tp32
F1
s(S'DP'
p33
S'ADNNP'
tp34
F6
s(S'PP'
S'APVP'
tp35
F20
s(S'MP'
S'MVDP'
tp36
F27
s(S'PP'
S'PADVANP'
tp37
F1
s(S'PP'
S'PPPP'
tp38
F45
s(S'VP'
p39
S'VVVVDDP'
tp40
F1
s(S'DP'
S'DDDNP'
tp41
F8
s(S'DP'
S'DDMP'
tp42
F1
s(S'VP'
p43
S'VACP'
tp44
F6
s(S'AP'
S'AAAVP'
tp45
F1
s(S'PP'
S'PPAAP'
tp46
F5
s(S'DP'
p47
S'DADVVP'
tp48
F9
s(S'VP'
S'ADVVVANP'
tp49
F1
s(S'PP'
p50
S'PADVNNP'
tp51
F3
s(S'AP'
S'AADVPP'
tp52
F2
s(S'NP'
S'NDDDP'
tp53
F1
s(S'NP'
S'NCCCP'
tp54
F10
s(S'CP'
S'CADVDAPP'
tp55
F1
s(S'VP'
p56
S'VCP'
tp57
F176
s(S'NP'
S'NMMP'
tp58
F3
s(S'NP'
S'NANP'
tp59
F2
s(g56
S'ADVVAAP'
tp60
F4
s(S'NP'
S'NNADVAP'
tp61
F1
s(S'VP'
S'ADVVCCP'
tp62
F3
s(S'PP'
p63
S'PAP'
tp64
F138
s(S'NP'
S'ANNCCP'
tp65
F1
s(S'PP'
p66
S'ADVPPVP'
tp67
F6
s(S'NP'
S'NNNAP'
tp68
F1
s(S'NP'
p69
S'ANPPP'
tp70
F7
s(S'NP'
p71
S'NAAAVP'
tp72
F1
s(S'PP'
p73
S'PPADVDP'
tp74
F2
s(S'MP'
S'AMVP'
tp75
F3
s(S'PP'
p76
S'PNP'
tp77
F461
s(S'PP'
S'PAAADP'
tp78
F1
s(S'DP'
p79
S'DDP'
tp80
F78
s(S'NP'
p81
S'NNNPP'
tp82
F3
s(S'VP'
p83
S'VCCP'
tp84
F20
s(S'MP'
p85
S'MCDP'
tp86
F3
s(S'MP'
S'MNAP'
tp87
F1
s(S'VP'
S'ADVADVVVCP'
tp88
F1
s(S'NP'
S'NMP'
tp89
F97
s(S'NP'
S'ADVNCCP'
tp90
F2
s(S'NP'
S'ADVNAPP'
tp91
F1
s(S'DP'
S'ADCP'
tp92
F1
s(S'VP'
S'AAVNP'
tp93
F4
s(S'PP'
S'PDP'
tp94
F523
s(S'NP'
S'AAANCCP'
tp95
F1
s(S'CP'
S'CDAAPP'
tp96
F9
s(S'NP'
S'ADVNVVP'
tp97
F4
s(S'MP'
S'MNNVP'
tp98
F1
s(S'NP'
S'AAANVVP'
tp99
F1
s(g43
S'VVVDDP'
tp100
F2
s(S'CP'
S'CDADVADVPPP'
tp101
F1
s(S'VP'
S'AVAAP'
tp102
F1
s(S'PP'
S'PPPADVVP'
tp103
F1
s(S'PP'
p104
S'ADVADVADVPPDP'
tp105
F1
s(S'AP'
S'ANP'
tp106
F4
s(S'PP'
S'PADVPP'
tp107
F3
s(S'VP'
p108
S'VVADVNP'
tp109
F3
s(S'VP'
p110
S'VVDDP'
tp111
F9
s(S'DP'
S'DPPPP'
tp112
F8
s(S'DP'
S'DDANP'
tp113
F7
s(S'PP'
S'PADVADP'
tp114
F2
s(S'NP'
S'NACP'
tp115
F22
s(S'AP'
S'ADVAVP'
tp116
F1
s(S'NP'
p117
S'NCCP'
tp118
F93
s(S'DP'
S'DADVADVVVP'
tp119
F1
s(S'AP'
S'AAAADP'
tp120
F1
s(S'VP'
p121
S'VVVVVP'
tp122
F2
s(S'NP'
S'NNCP'
tp123
F84
s(S'DP'
S'ADVDDPP'
tp124
F8
s(S'NP'
S'NADVADVVP'
tp125
F1
s(S'PP'
S'APPPDP'
tp126
F1
s(S'NP'
S'ANAPPPP'
tp127
F1
s(S'VP'
S'AVVNNP'
tp128
F1
s(S'DP'
S'DDDADVADVPPP'
tp129
F1
s(S'VP'
p130
S'AVNP'
tp131
F18
s(S'VP'
p132
S'VVADP'
tp133
F6
s(S'AP'
S'AAADVVP'
tp134
F1
s(S'PP'
p135
S'ADVPVVP'
tp136
F1
s(S'DP'
S'DDAAANNP'
tp137
F1
s(S'DP'
p138
S'ADADVNP'
tp139
F1
s(S'VP'
S'VADVVP'
tp140
F4
s(S'NP'
S'ADVADVADVNMP'
tp141
F1
s(S'VP'
S'ADVADVADVVNP'
tp142
F1
s(S'NP'
S'ADVADVADVNNDP'
tp143
F1
s(S'NP'
p144
S'ANADVVP'
tp145
F4
s(S'AP'
p146
S'AAAAP'
tp147
F2
s(S'CP'
S'CCCDP'
tp148
F13
s(S'VP'
p149
S'ADVVAP'
tp150
F9
s(S'VP'
S'VCCCP'
tp151
F2
s(S'PP'
S'PADVVVP'
tp152
F2
s(S'PP'
S'APDP'
tp153
F54
s(g6
S'ADVADVAPNP'
tp154
F1
s(S'VP'
p155
S'ADVVNNP'
tp156
F2
s(S'AP'
S'AADVCP'
tp157
F2
s(S'NP'
S'ADVANADVPP'
tp158
F1
s(S'DP'
S'DDANNP'
tp159
F1
s(S'CP'
S'CDADVADVADVAPP'
tp160
F1
s(S'PP'
S'PPADVADVVVP'
tp161
F1
s(S'VP'
S'VVANP'
tp162
F5
s(S'VP'
p163
S'VVVVDP'
tp164
F1
s(S'VP'
S'ADVVVP'
tp165
F3
s(S'CP'
S'CCCADP'
tp166
F2
s(S'MP'
S'MADVVNP'
tp167
F3
s(g13
S'PAAP'
tp168
F30
s(S'NP'
S'ADVANCP'
tp169
F3
s(S'DP'
p170
S'DNNP'
tp171
F103
s(S'CP'
S'CADVDDPP'
tp172
F5
s(S'DP'
S'DPPPPP'
tp173
F2
s(g20
S'CDDPPPP'
tp174
F1
s(S'CP'
S'CCADVDP'
tp175
F8
s(S'VP'
S'VVNNNP'
tp176
F1
s(S'VP'
S'VVACP'
tp177
F1
s(S'VP'
S'AAVDDP'
tp178
F1
s(S'NP'
S'NNNVP'
tp179
F8
s(S'VP'
p180
S'VDP'
tp181
F520
s(S'PP'
S'PPNNNNP'
tp182
F1
s(S'PP'
S'PADVVP'
tp183
F7
s(S'VP'
S'VADVACCP'
tp184
F1
s(S'NP'
S'ANNADVCP'
tp185
F1
s(S'DP'
S'ADVDADVADVADVPPP'
tp186
F1
s(S'PP'
S'APAP'
tp187
F6
s(S'AP'
p188
S'APP'
tp189
F68
s(S'AP'
S'ACCCP'
tp190
F1
s(S'CP'
S'CDDDADVPPP'
tp191
F1
s(S'NP'
S'NADVMP'
tp192
F1
s(S'AP'
S'AAP'
tp193
F11
s(S'VP'
S'VADVADVVP'
tp194
F2
s(S'CP'
S'CADVADPP'
tp195
F4
s(S'NP'
S'ADVADVNDP'
tp196
F1
s(S'PP'
S'PAAAAVP'
tp197
F1
s(S'NP'
S'ADVANPP'
tp198
F1
s(S'MP'
p199
S'MVVCP'
tp200
F3
s(S'VP'
S'VADVADVNP'
tp201
F1
s(S'CP'
p202
S'CDDDDPP'
tp203
F2
s(S'MP'
S'MVVVNP'
tp204
F1
s(S'PP'
S'PAANP'
tp205
F11
s(S'VP'
p206
S'VVVANP'
tp207
F2
s(S'PP'
p208
S'PPVVP'
tp209
F9
s(S'VP'
S'VAACP'
tp210
F2
s(S'VP'
S'VVADVAAP'
tp211
F1
s(g85
S'MVNP'
tp212
F32
s(S'DP'
S'ADVADVDDP'
tp213
F1
s(S'PP'
S'ADVADVADVPPAP'
tp214
F1
s(S'MP'
p215
S'MADVVAAP'
tp216
F1
s(S'PP'
p217
S'PAVP'
tp218
F31
s(S'CP'
S'CDADVADVPP'
tp219
F2
s(S'PP'
S'ADVADVPPVP'
tp220
F1
s(S'CP'
S'AACDDP'
tp221
F1
s(S'NP'
S'AAAAANNVP'
tp222
F1
s(g130
S'VVVPP'
tp223
F3
s(S'PP'
p224
S'APPPP'
tp225
F4
s(S'DP'
S'DADP'
tp226
F5
s(S'AP'
S'ADVADP'
tp227
F9
s(S'CP'
S'ADVADVCDP'
tp228
F3
s(g130
S'VVADVPP'
tp229
F1
s(S'PP'
S'APDDP'
tp230
F9
s(S'VP'
S'ADVADVVVNP'
tp231
F1
s(g138
S'ADVDDDP'
tp232
F2
s(S'PP'
S'PPCP'
tp233
F1
s(S'NP'
S'AAANNPP'
tp234
F2
s(S'VP'
p235
S'ADVVNP'
tp236
F26
s(S'DP'
S'DAAAP'
tp237
F1
s(S'DP'
S'DPPPPPP'
tp238
F1
s(S'MP'
S'MNCP'
tp239
F1
s(S'VP'
S'AAAAVADVPPP'
tp240
F1
s(S'VP'
p241
S'VVNP'
tp242
F55
s(S'PP'
S'ADVPAVP'
tp243
F2
s(S'PP'
S'ADVPPPP'
tp244
F3
s(S'PP'
S'PPVP'
tp245
F47
s(S'VP'
S'VADVDP'
tp246
F5
s(S'VP'
S'VVADVAP'
tp247
F3
s(S'VP'
S'VAAP'
tp248
F19
s(g144
S'ANDP'
tp249
F28
s(S'NP'
S'NVVP'
tp250
F93
s(S'PP'
S'AAPVP'
tp251
F6
s(S'PP'
p252
S'PPADP'
tp253
F6
s(S'VP'
p254
S'VMP'
tp255
F9
s(S'NP'
S'ANNAP'
tp256
F1
s(S'AP'
S'ADVADVAVVVP'
tp257
F1
s(g254
S'VVNNP'
tp258
F4
s(S'CP'
S'CDAPP'
tp259
F52
s(S'VP'
S'VVAAP'
tp260
F1
s(g170
S'ADVADVP'
tp261
F1
s(S'VP'
S'VVAPP'
tp262
F2
s(S'CP'
S'CDADVADVADVADVPP'
tp263
F1
s(S'DP'
p264
S'ADNP'
tp265
F26
s(S'MP'
S'ADVADVMVP'
tp266
F1
s(S'PP'
p267
S'PADP'
tp268
F27
s(S'NP'
S'NADVADVADVPPP'
tp269
F1
s(g180
S'ADVVVCP'
tp270
F6
s(S'DP'
S'ADVDDNP'
tp271
F4
s(S'NP'
S'ANDDP'
tp272
F2
s(S'DP'
S'ADVADVDVP'
tp273
F1
s(S'DP'
S'DADVAP'
tp274
F4
s(S'DP'
S'DDADVDP'
tp275
F1
s(S'DP'
p276
S'DAPP'
tp277
F84
s(S'VP'
S'AVVP'
tp278
F2
s(S'VP'
S'ADVADVVPP'
tp279
F1
s(S'MP'
S'MADVADVVNP'
tp280
F1
s(S'DP'
S'DAAVP'
tp281
F1
s(S'VP'
S'ADVADVADVVDP'
tp282
F3
s(S'NP'
S'ADVADVNNDP'
tp283
F1
s(S'VP'
S'ADVADVVDP'
tp284
F5
s(S'PP'
S'PPPDP'
tp285
F7
s(S'MP'
S'MVVVDP'
tp286
F1
s(S'VP'
S'AVVAAP'
tp287
F1
s(S'AP'
S'AAPPP'
tp288
F1
s(S'VP'
S'VDDDDP'
tp289
F1
s(S'DP'
S'DAAANP'
tp290
F3
s(S'DP'
S'DADVANP'
tp291
F4
s(S'NP'
S'ANADVVVP'
tp292
F3
s(g235
S'VAAPP'
tp293
F2
s(S'DP'
S'ADVDNP'
tp294
F8
s(g56
S'VVPP'
tp295
F51
s(S'NP'
S'AAAANVP'
tp296
F1
s(S'DP'
S'ADADVPP'
tp297
F1
s(S'PP'
S'PAVVP'
tp298
F2
s(S'MP'
S'MVPP'
tp299
F12
s(S'DP'
p300
S'ADVP'
tp301
F10
s(S'CP'
S'CDDPPP'
tp302
F14
s(S'NP'
p303
S'NNNNNCCP'
tp304
F1
s(S'NP'
p305
S'ADVADVANVVVP'
tp306
F1
s(g303
S'NNPP'
tp307
F46
s(S'CP'
S'CCCADVDP'
tp308
F2
s(S'MP'
S'MVVDP'
tp309
F3
s(S'AP'
S'AACP'
tp310
F22
s(S'NP'
p311
S'ANVP'
tp312
F39
s(S'DP'
S'DADVADVADVADVPP'
tp313
F1
s(S'VP'
S'AAAVDDP'
tp314
F1
s(S'VP'
S'ADVVADVAANNP'
tp315
F1
s(g16
S'DNNNP'
tp316
F7
s(S'DP'
S'ADVDDVP'
tp317
F5
s(g155
S'VADVDDP'
tp318
F3
s(S'PP'
S'PVVVP'
tp319
F4
s(g63
S'PMP'
tp320
F14
s(S'PP'
S'PADVADVADVVP'
tp321
F1
s(S'CP'
S'CCDP'
tp322
F136
s(S'VP'
S'VADVANP'
tp323
F1
s(S'PP'
S'PPNNNP'
tp324
F1
s(S'VP'
S'VVVVADVAAP'
tp325
F1
s(S'DP'
S'AADDPP'
tp326
F1
s(S'VP'
S'ADVAVVP'
tp327
F1
s(S'NP'
p328
S'NVVVP'
tp329
F18
s(S'CP'
S'CDDDPP'
tp330
F11
s(g208
S'PPADVVP'
tp331
F4
s(S'VP'
p332
S'ADVADVVVVP'
tp333
F1
s(S'VP'
S'VVVDP'
tp334
F15
s(S'PP'
S'PDDDDP'
tp335
F2
s(g76
S'PNNNP'
tp336
F8
s(S'CP'
S'CCCCDP'
tp337
F1
s(S'PP'
S'PADVADVADVNNP'
tp338
F1
s(S'AP'
S'AACCP'
tp339
F2
s(S'PP'
S'AAPNP'
tp340
F5
s(S'CP'
S'CADADVPP'
tp341
F1
s(S'VP'
S'ADVVVDP'
tp342
F3
s(g267
S'PPP'
tp343
F150
s(S'NP'
S'NNADVDP'
tp344
F1
s(S'NP'
S'NAVP'
tp345
F25
s(S'PP'
S'PADVAP'
tp346
F4
s(g332
S'ADVVVCCCP'
tp347
F1
s(g276
S'DDNNNP'
tp348
F6
s(g170
S'ADVDVP'
tp349
F9
s(S'NP'
S'NADVVVP'
tp350
F9
s(S'DP'
p351
S'DADVADVPPP'
tp352
F2
s(g27
S'PPPPDP'
tp353
F3
s(S'MP'
S'MADVADVVPP'
tp354
F1
s(S'DP'
S'ADVADVDNP'
tp355
F3
s(g83
S'VPP'
tp356
F278
s(S'CP'
S'ADVCCDP'
tp357
F1
s(S'PP'
S'PPPADVVVP'
tp358
F1
s(S'CP'
S'ACCDP'
tp359
F1
s(S'AP'
p360
S'AAAACP'
tp361
F1
s(S'NP'
S'AANPPP'
tp362
F1
s(S'NP'
p363
S'NNNCP'
tp364
F12
s(g50
S'PADVDP'
tp365
F12
s(S'CP'
S'CDADVAPP'
tp366
F1
s(S'AP'
S'ADVAADP'
tp367
F1
s(S'DP'
S'DANNP'
tp368
F1
s(S'MP'
S'MADVVAP'
tp369
F3
s(S'CP'
S'CDDPP'
tp370
F66
s(S'DP'
p371
S'DAAPP'
tp372
F16
s(g217
S'PVVP'
tp373
F57
s(S'CP'
p374
S'CADPPP'
tp375
F7
s(S'DP'
S'DADVPPP'
tp376
F10
s(S'DP'
S'ADVADDP'
tp377
F1
s(S'DP'
S'ADVADNP'
tp378
F1
s(S'VP'
S'ADVVCP'
tp379
F6
s(S'PP'
S'ADVPPAP'
tp380
F2
s(g121
S'VPPP'
tp381
F27
s(S'CP'
S'CDADVADVAPP'
tp382
F1
s(S'VP'
p383
S'VVPPP'
tp384
F5
s(S'NP'
S'NNNNNVVP'
tp385
F1
s(S'VP'
S'ADVVVCCP'
tp386
F1
s(g13
S'PPAP'
tp387
F15
s(S'DP'
S'DVVP'
tp388
F31
s(S'PP'
S'PADVAVP'
tp389
F1
s(S'MP'
S'ADVMVP'
tp390
F1
s(S'DP'
S'DDDADVPPP'
tp391
F1
s(g117
S'ANMP'
tp392
F6
s(S'AP'
p393
S'APPP'
tp394
F5
s(S'PP'
S'ADVPPP'
tp395
F2
s(S'NP'
S'NACCP'
tp396
F1
s(S'VP'
p397
S'VVVP'
tp398
F11
s(g170
S'DDPPPP'
tp399
F5
s(S'PP'
S'PADVADVMP'
tp400
F1
s(S'PP'
S'AAPNNP'
tp401
F1
s(S'NP'
S'ANCP'
tp402
F60
s(g24
S'DCP'
tp403
F30
s(S'VP'
S'VAAACP'
tp404
F1
s(S'NP'
S'AAANCP'
tp405
F1
s(S'DP'
S'DAAVVP'
tp406
F1
s(S'NP'
S'NNVVVVP'
tp407
F1
s(g276
S'DDDP'
tp408
F17
s(S'DP'
S'ADVDPPPPP'
tp409
F1
s(S'DP'
p410
S'DDADVPP'
tp411
F5
s(S'NP'
S'ANNVVP'
tp412
F1
s(S'NP'
S'ANVVP'
tp413
F11
s(S'PP'
S'PPPNNNP'
tp414
F1
s(S'VP'
S'VVDP'
tp415
F70
s(S'NP'
S'NPPP'
tp416
F27
s(S'DP'
p417
S'ADDDP'
tp418
F1
s(g24
S'AADVVP'
tp419
F1
s(g417
S'DAVP'
tp420
F22
s(S'VP'
S'AVVVP'
tp421
F1
s(S'VP'
S'VAAAANP'
tp422
F1
s(S'NP'
S'NNNMP'
tp423
F1
s(S'AP'
S'ACP'
tp424
F87
s(S'PP'
S'AAPAP'
tp425
F1
s(S'NP'
S'NDDDDP'
tp426
F1
s(S'PP'
S'PADVADVNNP'
tp427
F2
s(S'PP'
p428
S'PPNP'
tp429
F85
s(S'PP'
S'PPPAP'
tp430
F1
s(S'AP'
S'ADVACCP'
tp431
F3
s(S'NP'
S'NAADP'
tp432
F1
s(S'DP'
S'ADVDAPP'
tp433
F1
s(S'VP'
S'VVVNNNNNP'
tp434
F1
s(S'AP'
S'AAAADVCP'
tp435
F1
s(S'AP'
p436
S'ADP'
tp437
F342
s(S'PP'
p438
S'ADVPPDDP'
tp439
F1
s(S'DP'
p440
S'DADVADVADVVP'
tp441
F2
s(S'PP'
S'APMP'
tp442
F1
s(S'CP'
S'CADVDPP'
tp443
F23
s(S'PP'
S'APVVP'
tp444
F4
s(S'NP'
S'ADVANCCP'
tp445
F1
s(S'NP'
p446
S'AAANNCP'
tp447
F1
s(S'VP'
S'ADVADVADVADVADVVVNP'
tp448
F1
s(S'NP'
S'ADVADVNNVP'
tp449
F2
s(S'VP'
S'VAAANP'
tp450
F2
s(S'PP'
S'APPAP'
tp451
F1
s(S'NP'
S'NADVADVAP'
tp452
F1
s(S'VP'
p453
S'AVDP'
tp454
F38
s(S'NP'
S'ANNVP'
tp455
F3
s(S'PP'
p456
S'ADVAPDDP'
tp457
F1
s(g110
S'VVAP'
tp458
F20
s(S'NP'
S'NNAPP'
tp459
F3
s(S'PP'
S'PADVADVDP'
tp460
F3
s(S'NP'
S'NPP'
tp461
F430
s(S'PP'
S'PPPPNP'
tp462
F3
s(g81
S'NVP'
tp463
F549
s(S'PP'
p464
S'PAAVP'
tp465
F6
s(S'NP'
S'NAAPP'
tp466
F1
s(S'PP'
S'PPPPVP'
tp467
F1
s(S'DP'
S'DDDDNNP'
tp468
F1
s(g149
S'VDDP'
tp469
F60
s(S'DP'
p470
S'DAPPP'
tp471
F4
s(S'PP'
S'ADVADVADVADVPNP'
tp472
F1
s(S'AP'
S'AAADVDP'
tp473
F2
s(S'NP'
S'AANNVP'
tp474
F1
s(S'PP'
S'PPADVADP'
tp475
F1
s(g33
S'DADVAPP'
tp476
F1
s(S'NP'
S'ANADVADVAP'
tp477
F1
s(S'DP'
S'DDADVADVNNP'
tp478
F1
s(g30
S'PPPDDP'
tp479
F1
s(S'NP'
S'ANCCCP'
tp480
F2
s(g328
S'ANPP'
tp481
F74
s(S'PP'
p482
S'ADVPPDP'
tp483
F2
s(g428
S'PPPPP'
tp484
F7
s(g215
S'MVVPP'
tp485
F4
s(S'DP'
S'ADVDPP'
tp486
F35
s(S'VP'
S'VVAAPP'
tp487
F1
s(S'VP'
S'ADVADVVADVAP'
tp488
F1
s(S'NP'
S'NPPPP'
tp489
F5
s(S'DP'
S'ADDP'
tp490
F3
s(S'CP'
S'CAADPP'
tp491
F7
s(S'DP'
S'DADVADVVP'
tp492
F1
s(S'NP'
S'NAACP'
tp493
F3
s(S'PP'
S'PNNP'
tp494
F67
s(S'PP'
S'APNNP'
tp495
F4
s(S'DP'
p496
S'DAAANNP'
tp497
F1
s(S'DP'
S'DDAAP'
tp498
F1
s(S'DP'
S'ADVDADVADVPPPP'
tp499
F1
s(S'DP'
S'AAADPP'
tp500
F1
s(S'VP'
p501
S'AVAP'
tp502
F4
s(S'MP'
p503
S'MMVP'
tp504
F3
s(S'PP'
S'PADVDDP'
tp505
F2
s(S'PP'
S'PCCP'
tp506
F2
s(S'AP'
S'AADP'
tp507
F47
s(S'CP'
S'ACDP'
tp508
F33
s(S'VP'
S'ADVVDDDP'
tp509
F1
s(S'NP'
S'NNDP'
tp510
F17
s(g393
S'ADVANP'
tp511
F2
s(g104
S'PADVADVADVPPP'
tp512
F1
s(S'NP'
S'NNACP'
tp513
F3
s(S'CP'
S'CDADVPPP'
tp514
F9
s(S'VP'
p515
S'VAP'
tp516
F170
s(S'VP'
S'VVVVNP'
tp517
F4
s(S'MP'
S'MNVVP'
tp518
F1
s(S'DP'
S'DDDPP'
tp519
F15
s(S'CP'
S'ADVCDDP'
tp520
F3
s(S'PP'
S'ADVPMP'
tp521
F1
s(S'PP'
p522
S'PAAPP'
tp523
F2
s(S'AP'
S'AAVVP'
tp524
F3
s(S'MP'
S'MAVPP'
tp525
F1
s(S'DP'
p526
S'DDDPPP'
tp527
F2
s(S'VP'
S'ADVAVDP'
tp528
F1
s(S'DP'
p529
S'ADAP'
tp530
F1
s(S'PP'
S'APADVVP'
tp531
F1
s(S'DP'
S'DADVADVADVAPP'
tp532
F1
s(S'PP'
S'PPPPPAPP'
tp533
F1
s(S'PP'
S'PPADVADVADVNNP'
tp534
F1
s(S'AP'
S'AAACP'
tp535
F2
s(S'DP'
S'ADADVVP'
tp536
F1
s(S'AP'
S'AVVP'
tp537
F11
s(g73
S'PPPVP'
tp538
F1
s(S'DP'
S'AADADVADVVVP'
tp539
F1
s(S'AP'
S'AADDP'
tp540
F8
s(g13
S'ADVPDP'
tp541
F10
s(S'VP'
p542
S'VAANP'
tp543
F5
s(S'NP'
S'NADVADVCP'
tp544
F3
s(S'MP'
S'MADVADVADVVNP'
tp545
F1
s(S'MP'
S'MMVVVVP'
tp546
F1
s(S'NP'
S'NVVVVP'
tp547
F7
s(S'PP'
S'PAAAAP'
tp548
F1
s(g440
S'DADVADVDP'
tp549
F1
s(S'MP'
S'MPNP'
tp550
F1
s(S'VP'
S'VVAADP'
tp551
F2
s(S'MP'
p552
S'MADP'
tp553
F4
s(S'CP'
S'ADVACCDDP'
tp554
F1
s(S'NP'
S'NNNDDP'
tp555
F1
s(S'VP'
S'ADVADVADVVAP'
tp556
F1
s(S'CP'
p557
S'CCAADP'
tp558
F1
s(S'DP'
S'DDADVNP'
tp559
F1
s(g267
S'PANP'
tp560
F44
s(S'DP'
S'AADNP'
tp561
F3
s(S'NP'
S'NADVDDP'
tp562
F1
s(S'MP'
S'MVAAANP'
tp563
F1
s(S'PP'
S'AAPAAP'
tp564
F1
s(S'AP'
S'AAVP'
tp565
F8
s(S'NP'
p566
S'NAAP'
tp567
F10
s(S'NP'
S'NDDP'
tp568
F26
s(S'PP'
S'APPDDP'
tp569
F1
s(g108
S'VVADVDDP'
tp570
F1
s(S'AP'
S'ACCP'
tp571
F10
s(S'NP'
S'NNVVVP'
tp572
F2
s(S'VP'
S'VVVVAP'
tp573
F1
s(S'VP'
S'AVPPP'
tp574
F4
s(S'AP'
S'APPPP'
tp575
F1
s(S'NP'
p576
S'NDP'
tp577
F169
s(S'VP'
S'ADVVANP'
tp578
F1
s(S'NP'
S'AAANVP'
tp579
F2
s(S'MP'
S'MVAAP'
tp580
F2
s(g371
S'DDVP'
tp581
F39
s(S'VP'
S'VDDDDDP'
tp582
F1
s(S'DP'
p583
S'ADADVPPP'
tp584
F1
s(S'NP'
S'AANVP'
tp585
F9
s(S'DP'
S'DADVADVAPP'
tp586
F1
s(S'VP'
S'VNNNP'
tp587
F3
s(S'PP'
S'ADVPAP'
tp588
F7
s(S'NP'
S'NNNNVVP'
tp589
F1
s(S'PP'
S'PCP'
tp590
F19
s(g501
S'VADVADP'
tp591
F1
s(S'MP'
S'AMDDP'
tp592
F1
s(S'PP'
S'PAADP'
tp593
F3
s(S'NP'
S'ADVNNVP'
tp594
F3
s(S'NP'
S'NADVCCP'
tp595
F1
s(S'NP'
S'ADVANVVP'
tp596
F1
s(S'VP'
S'VPPPP'
tp597
F4
s(S'NP'
S'AANADVADVADVVVP'
tp598
F1
s(S'NP'
S'NNNDP'
tp599
F1
s(S'AP'
S'ADVACP'
tp600
F11
s(S'NP'
S'ADVADVNMP'
tp601
F3
s(S'VP'
S'VVVAP'
tp602
F2
s(g264
S'ADPPP'
tp603
F12
s(g199
S'MVCP'
tp604
F5
s(S'CP'
S'CCDDP'
tp605
F26
s(S'NP'
S'NNADVVP'
tp606
F2
s(g542
S'AAVCCP'
tp607
F1
s(S'CP'
S'CADVDPPPPP'
tp608
F1
s(g583
S'DDADP'
tp609
F1
s(S'DP'
S'DDDDDP'
tp610
F1
s(S'NP'
S'ADVANAP'
tp611
F1
s(S'DP'
S'AAADNP'
tp612
F1
s(S'VP'
S'VAMP'
tp613
F1
s(S'NP'
S'NNVVP'
tp614
F15
s(g383
S'VVCP'
tp615
F25
s(S'PP'
p616
S'PADVADVPP'
tp617
F2
s(S'NP'
S'AANCP'
tp618
F8
s(g241
S'VADVNP'
tp619
F5
s(g132
S'VVDDDP'
tp620
F3
s(S'PP'
S'APPP'
tp621
F15
s(g110
S'ADVVPP'
tp622
F11
s(S'CP'
S'CADVADVADVDDPP'
tp623
F1
s(S'NP'
S'NAAAAP'
tp624
F1
s(S'CP'
S'CDAPPP'
tp625
F1
s(S'VP'
S'VNNP'
tp626
F27
s(S'AP'
S'AADVDP'
tp627
F4
s(S'NP'
S'NNNADP'
tp628
F1
s(S'NP'
S'NADP'
tp629
F7
s(g410
S'DDNP'
tp630
F84
s(g311
S'NADVCP'
tp631
F13
s(g170
S'DDADVVVP'
tp632
F2
s(S'PP'
S'AAPPP'
tp633
F1
s(S'VP'
S'VPPPPP'
tp634
F1
s(S'NP'
S'ADVNCP'
tp635
F12
s(S'NP'
S'ADVANVP'
tp636
F1
s(S'DP'
S'AADNNP'
tp637
F1
s(S'CP'
S'ADVADVCCDDP'
tp638
F1
s(S'DP'
S'DDDDP'
tp639
F2
s(S'DP'
S'AADPP'
tp640
F10
s(g163
S'VVVAAP'
tp641
F1
s(S'NP'
S'ADVNAAAPP'
tp642
F1
s(S'NP'
S'NNDDP'
tp643
F1
s(S'NP'
S'NNNNPP'
tp644
F1
s(g252
S'ADVADVPPDP'
tp645
F2
s(S'MP'
S'MADVVPP'
tp646
F1
s(S'PP'
S'ADVADVPPPNP'
tp647
F1
s(S'VP'
S'ADVAVADVAP'
tp648
F1
s(S'CP'
S'CDPPPPP'
tp649
F1
s(g144
S'ANVVVP'
tp650
F2
s(S'NP'
S'NADVADVCCP'
tp651
F1
s(g503
S'MVVNP'
tp652
F5
s(S'VP'
S'AAVVDP'
tp653
F1
s(S'CP'
S'ACDDP'
tp654
F4
s(g71
S'ADVADVNNCP'
tp655
F1
s(S'AP'
S'AAPP'
tp656
F14
s(g206
S'VVCCP'
tp657
F4
s(S'DP'
S'DMMP'
tp658
F1
s(g79
S'DADVVVP'
tp659
F3
s(S'DP'
S'DAAAPP'
tp660
F1
s(S'PP'
p661
S'ADVPANP'
tp662
F1
s(S'NP'
S'NNPPP'
tp663
F4
s(S'VP'
S'VVVCCP'
tp664
F3
s(g69
S'NAPP'
tp665
F28
s(S'PP'
S'APPVP'
tp666
F3
s(S'DP'
S'DADVADVADVCCP'
tp667
F1
s(S'NP'
S'NADVDP'
tp668
F2
s(S'DP'
p669
S'DDNNNNNP'
tp670
F1
s(S'VP'
S'VVVCP'
tp671
F3
s(g456
S'PADVAPP'
tp672
F1
s(S'NP'
p673
S'ANCCP'
tp674
F21
s(S'NP'
p675
S'AANPP'
tp676
F9
s(g108
S'VDDDP'
tp677
F6
s(S'NP'
S'NNMP'
tp678
F3
s(S'DP'
S'DDDVP'
tp679
F3
s(S'PP'
S'PAAAP'
tp680
F7
s(S'PP'
S'ADVADVPNP'
tp681
F1
s(S'MP'
S'MDANP'
tp682
F1
s(S'DP'
S'ADVDDAP'
tp683
F1
s(S'CP'
S'CDDAPP'
tp684
F3
s(g576
S'ANAP'
tp685
F4
s(S'MP'
S'MVAP'
tp686
F7
s(g267
S'PVP'
tp687
F391
s(S'VP'
S'VADVPPP'
tp688
F3
s(S'DP'
S'DADVAVP'
tp689
F1
s(S'DP'
S'DDADVAVP'
tp690
F1
s(S'CP'
S'CCCDDDDP'
tp691
F1
s(S'AP'
S'AADVDDP'
tp692
F3
s(S'AP'
S'ADVAACP'
tp693
F1
s(S'DP'
S'DVVVP'
tp694
F7
s(g522
S'PPADVPP'
tp695
F1
s(S'PP'
S'ADVADVADVAPADVNNP'
tp696
F1
s(g482
S'PPDDP'
tp697
F7
s(S'VP'
S'AVCP'
tp698
F3
s(S'DP'
S'DDVVVP'
tp699
F1
s(S'NP'
S'NAVVP'
tp700
F1
s(g16
S'DPP'
tp701
F704
s(S'NP'
S'ADVNVP'
tp702
F9
s(g417
S'DDDVVP'
tp703
F1
s(g669
S'DDPP'
tp704
F125
s(S'DP'
S'DDADVPPP'
tp705
F1
s(g264
S'DANP'
tp706
F145
s(g566
S'NADVPP'
tp707
F5
s(S'NP'
S'NAAVP'
tp708
F2
s(g496
S'ADNNNP'
tp709
F1
s(S'NP'
S'ADVNNNP'
tp710
F1
s(g27
S'PDDDP'
tp711
F7
s(S'NP'
S'NNAPPP'
tp712
F1
s(S'VP'
S'VADVCP'
tp713
F1
s(S'NP'
S'NNNNAP'
tp714
F1
s(S'NP'
S'NNNNCP'
tp715
F3
s(S'MP'
S'MDNP'
tp716
F1
s(S'NP'
S'NNAACP'
tp717
F1
s(S'NP'
S'NNNVVP'
tp718
F2
s(g470
S'DDADVADVVVP'
tp719
F1
s(g66
S'PADVPPP'
tp720
F5
s(g675
S'NAANP'
tp721
F1
s(S'DP'
S'DCCP'
tp722
F2
s(S'NP'
S'ANNAAPP'
tp723
F1
s(g146
S'AADDDDP'
tp724
F1
s(S'DP'
S'ADDPPPP'
tp725
F1
s(S'PP'
S'AAPDP'
tp726
F7
s(S'MP'
S'MADVVDP'
tp727
F5
s(g661
S'PDDP'
tp728
F77
s(g552
S'MVDDP'
tp729
F3
s(g305
S'NVVVVVP'
tp730
F1
s(S'NP'
S'NNVP'
tp731
F77
s(g464
S'AAAPDDP'
tp732
F1
s(S'NP'
S'NNP'
tp733
F3
s(S'DP'
S'ADVADPP'
tp734
F6
s(S'DP'
S'DAANP'
tp735
F15
s(S'NP'
S'AANCCCP'
tp736
F1
s(g188
S'ADDP'
tp737
F27
s(S'PP'
S'PNNNNP'
tp738
F2
s(S'PP'
S'PPAPPP'
tp739
F1
s(S'VP'
p740
S'ADVVVAP'
tp741
F1
s(S'PP'
S'ADVPPNP'
tp742
F8
s(S'VP'
S'VADVADVADVVP'
tp743
F2
s(S'DP'
S'DDDDDNNP'
tp744
F1
s(S'CP'
S'CADVADVDPP'
tp745
F3
s(g526
S'DPPP'
tp746
F138
s(S'DP'
S'AADPPP'
tp747
F4
s(S'CP'
S'ADVADVADVCCDP'
tp748
F1
s(S'VP'
S'VANNP'
tp749
F1
s(g529
S'DDNNP'
tp750
F6
s(g566
S'NMMMP'
tp751
F1
s(g217
S'ADVPNP'
tp752
F12
s(g428
S'PPDP'
tp753
F56
s(S'MP'
S'MAVDP'
tp754
F3
s(S'DP'
S'DDDANNP'
tp755
F1
s(S'VP'
S'ADVADVADVVPP'
tp756
F1
s(S'DP'
S'DDADVANP'
tp757
F2
s(S'MP'
S'MVVAP'
tp758
F1
s(g464
S'PAANNP'
tp759
F1
s(g351
S'AADADVNP'
tp760
F1
s(g566
S'NNADVADP'
tp761
F1
s(g311
S'NAP'
tp762
F86
s(S'NP'
S'NNAAP'
tp763
F2
s(S'VP'
S'ADVAVNP'
tp764
F1
s(S'VP'
S'VVP'
tp765
F36
s(S'DP'
S'DDAPP'
tp766
F6
s(g616
S'ADVADVPVP'
tp767
F2
s(g360
S'AAADP'
tp768
F6
s(S'PP'
S'APNP'
tp769
F38
s(g47
S'DDVVP'
tp770
F8
s(S'AP'
S'AAADDP'
tp771
F1
s(g121
S'VVVNP'
tp772
F6
s(S'VP'
S'AVPPPP'
tp773
F1
s(S'NP'
S'NAMP'
tp774
F3
s(S'MP'
S'MVANP'
tp775
F1
s(S'CP'
S'CDPP'
tp776
F576
s(S'NP'
S'NNCCCP'
tp777
F1
s(S'AP'
S'ADDDP'
tp778
F1
s(S'NP'
S'NNADVADVVVP'
tp779
F1
s(S'MP'
S'MMMVP'
tp780
F1
s(S'CP'
S'ADVCDP'
tp781
F15
s(S'AP'
S'ADVAAP'
tp782
F1
s(S'VP'
S'ADVADVVNP'
tp783
F2
s(S'VP'
S'ADVADVVCP'
tp784
F1
s(S'VP'
S'VADVADVDP'
tp785
F3
s(g13
S'PPNNP'
tp786
F17
s(S'PP'
S'ADVPPADVVP'
tp787
F1
s(S'PP'
S'ADVAPPP'
tp788
F1
s(S'PP'
S'PPMP'
tp789
F1
s(S'CP'
S'CAADDPP'
tp790
F1
s(S'CP'
S'CCADDP'
tp791
F1
s(S'DP'
S'ADVADVDPP'
tp792
F5
s(S'VP'
S'VAADP'
tp793
F4
s(S'NP'
p794
S'NADVAP'
tp795
F5
s(S'VP'
S'AVDDP'
tp796
F2
s(S'DP'
S'DADVNP'
tp797
F7
s(S'DP'
S'DAP'
tp798
F65
s(S'MP'
S'MCADVDP'
tp799
F1
s(g374
S'CADPP'
tp800
F46
s(S'DP'
S'ADVADVDVVP'
tp801
F1
s(S'NP'
S'NADVAVP'
tp802
F1
s(S'VP'
S'ADVADVVVPP'
tp803
F2
s(S'VP'
S'AVPP'
tp804
F8
s(S'CP'
S'CAADPPP'
tp805
F2
s(S'DP'
S'DDPPPPP'
tp806
F2
s(S'CP'
S'CDDPPPPP'
tp807
F1
s(S'VP'
S'VVVVCP'
tp808
F2
s(S'CP'
S'CDPPPP'
tp809
F4
s(S'VP'
S'VADVADVCCP'
tp810
F1
s(S'VP'
S'AAVDP'
tp811
F3
s(S'VP'
S'AVVCP'
tp812
F1
s(S'PP'
S'PANNP'
tp813
F3
s(S'PP'
S'ADVADVADVPPNNP'
tp814
F1
s(S'AP'
S'AAAPP'
tp815
F1
s(S'DP'
S'ADPPPP'
tp816
F1
s(S'VP'
S'ADVVADVAP'
tp817
F1
s(S'DP'
S'DADVADVPP'
tp818
F3
s(S'DP'
S'DMP'
tp819
F6
s(S'PP'
S'PPPNP'
tp820
F10
s(g135
S'APADVPP'
tp821
F1
s(S'PP'
S'PADVADVNP'
tp822
F3
s(S'DP'
S'ADVADVADVDDPP'
tp823
F2
s(g79
S'ADPP'
tp824
F71
s(S'AP'
S'AAAAVP'
tp825
F1
s(S'NP'
S'NNADVVVP'
tp826
F5
s(S'VP'
S'VADVPP'
tp827
F1
s(S'VP'
S'VADVADVNNP'
tp828
F1
s(S'DP'
S'ADVDANP'
tp829
F3
s(S'CP'
S'CCADVDDP'
tp830
F3
s(S'PP'
S'ADVPVP'
tp831
F9
s(g526
S'DDDDPP'
tp832
F4
s(S'VP'
S'VVVVVADVADVANP'
tp833
F1
s(S'AP'
S'ADVADVAVP'
tp834
F1
s(S'PP'
S'PADVADVADVDDP'
tp835
F1
s(S'PP'
S'PADVADVADVNP'
tp836
F1
s(S'DP'
S'DDDNNP'
tp837
F1
s(S'DP'
S'ADVDADVVP'
tp838
F1
s(g155
S'VVNNNNP'
tp839
F1
s(S'DP'
S'DDDAVP'
tp840
F1
s(g794
S'ANNPP'
tp841
F2
s(S'MP'
S'MVADVAP'
tp842
F1
s(g363
S'NCP'
tp843
F450
s(S'CP'
S'CADVDPPP'
tp844
F3
s(g501
S'ADVVVPP'
tp845
F9
s(S'PP'
S'PPADVNNP'
tp846
F1
s(g117
S'ADVANDP'
tp847
F1
s(S'AP'
S'AAMP'
tp848
F1
s(S'PP'
S'ADVPDDP'
tp849
F1
s(g438
S'PPAPP'
tp850
F2
s(S'MP'
S'MVCCP'
tp851
F2
s(S'DP'
p852
S'DADVNNP'
tp853
F3
s(S'NP'
S'NNCCP'
tp854
F7
s(S'MP'
S'MNVP'
tp855
F7
s(S'NP'
S'AANAP'
tp856
F1
s(S'CP'
S'ADVADVCCDP'
tp857
F1
s(S'NP'
S'AANCCP'
tp858
F1
s(g397
S'VAPP'
tp859
F13
s(S'NP'
S'NPPPPP'
tp860
F1
s(S'MP'
S'MAVNP'
tp861
F1
s(S'CP'
S'CDPPPPPP'
tp862
F1
s(S'VP'
S'ADVVDP'
tp863
F27
s(S'NP'
S'ADVADVADVNNVP'
tp864
F1
s(S'DP'
S'DADVPP'
tp865
F25
s(g557
S'CCADP'
tp866
F10
s(S'NP'
S'ADVNNCP'
tp867
F4
s(g852
S'ADVDAP'
tp868
F2
s(g224
S'PPADDP'
tp869
F1
s(S'NP'
S'NNNPPP'
tp870
F2
s(S'AP'
S'ADVAPP'
tp871
F14
s(S'NP'
S'AAANDP'
tp872
F1
s(S'CP'
S'AACDP'
tp873
F6
s(g446
S'NNNCCP'
tp874
F1
s(g202
S'CCDDDP'
tp875
F3
s(S'DP'
S'ADVDPPP'
tp876
F3
s(g16
S'DVP'
tp877
F347
s(g740
S'AVNNP'
tp878
F2
s(S'NP'
S'ADVNPP'
tp879
F5
s(S'CP'
S'AAACDP'
tp880
F1
s(g436
S'AVP'
tp881
F46
s(g673
S'NADVVP'
tp882
F31
s(S'NP'
p883
S'NNADVADVVP'
tp884
F1
s(S'DP'
S'DDPPP'
tp885
F26
s(S'NP'
S'ADVNMP'
tp886
F7
s(g883
S'NNAP'
tp887
F7
s(S'PP'
S'PPANP'
tp888
F6
s(S'VP'
S'VVADVADVDP'
tp889
F1
s(S'CP'
S'CDADVPP'
tp890
F14
s(g515
S'VNP'
tp891
F344
s(g39
S'VANP'
tp892
F27
s(g453
S'VADVAP'
tp893
F19
s(S'PP'
S'PPADVNP'
tp894
F2
s(g300
S'DDDDVP'
tp895
F3
s(S'NP'
S'NADVPPP'
tp896
F1
s.