ccollections
defaultdict
p1
(c__builtin__
float
p2
tRp3
(S'AP'
p4
S'AAADVADVAP'
tp5
F1
s(S'MP'
S'MMDP'
tp6
F2
s(S'VP'
S'VVAAAP'
tp7
F1
s(S'DP'
S'ADDPP'
tp8
F1
s(S'DP'
p9
S'DDAP'
tp10
F2
s(S'VP'
p11
S'ADVVVNP'
tp12
F1
s(S'VP'
p13
S'VVVVP'
tp14
F1
s(S'DP'
p15
S'DAANNP'
tp16
F1
s(S'MP'
S'MMAVVP'
tp17
F1
s(S'AP'
S'AVVVP'
tp18
F1
s(S'PP'
p19
S'PAPP'
tp20
F10
s(S'PP'
p21
S'PADVNP'
tp22
F6
s(S'DP'
p23
S'DNP'
tp24
F163
s(S'NP'
p25
S'ADVNDP'
tp26
F1
s(S'CP'
p27
S'CDPPP'
tp28
F38
s(S'VP'
p29
S'VADP'
tp30
F7
s(S'CP'
S'CDAAPPP'
tp31
F1
s(S'DP'
p32
S'DAAP'
tp33
F5
s(S'PP'
p34
S'PPPPPP'
tp35
F1
s(S'PP'
p36
S'APPDP'
tp37
F1
s(S'DP'
S'ADNNP'
tp38
F2
s(S'PP'
S'APVP'
tp39
F8
s(S'MP'
p40
S'MVDP'
tp41
F7
s(S'PP'
S'PADVANP'
tp42
F2
s(S'PP'
p43
S'PPPP'
tp44
F20
s(S'AP'
p45
S'ADVAPPP'
tp46
F1
s(S'DP'
p47
S'DDDNP'
tp48
F3
s(S'VP'
S'VACP'
tp49
F2
s(S'AP'
p50
S'AAAVP'
tp51
F1
s(S'DP'
p52
S'DADVVP'
tp53
F6
s(S'MP'
S'MMCP'
tp54
F1
s(S'NP'
S'NADVVVP'
tp55
F1
s(S'VP'
p56
S'VCP'
tp57
F59
s(S'NP'
S'NMMP'
tp58
F2
s(S'NP'
S'NANP'
tp59
F1
s(S'VP'
S'ADVVAAP'
tp60
F1
s(S'DP'
S'DDDNNP'
tp61
F1
s(g19
S'PAP'
tp62
F56
s(S'PP'
S'PPANNP'
tp63
F1
s(S'VP'
p64
S'VADVADVAP'
tp65
F1
s(S'NP'
S'ANNCCP'
tp66
F1
s(S'PP'
p67
S'ADVPPVP'
tp68
F1
s(S'VP'
S'VADVNP'
tp69
F1
s(S'NP'
p70
S'NNNAP'
tp71
F1
s(S'PP'
p72
S'APVVP'
tp73
F3
s(S'CP'
p74
S'CADPPPP'
tp75
F1
s(S'PP'
p76
S'PNP'
tp77
F160
s(S'AP'
S'AADVADVDP'
tp78
F1
s(S'PP'
S'PAAADP'
tp79
F1
s(S'VP'
S'AVNNNP'
tp80
F1
s(S'PP'
p81
S'PPPPPPP'
tp82
F1
s(S'NP'
p83
S'NNNPP'
tp84
F1
s(g56
S'VCCP'
tp85
F12
s(S'VP'
S'ADVVVDDP'
tp86
F1
s(g40
S'MCDP'
tp87
F6
s(S'DP'
p88
S'DADVDDP'
tp89
F1
s(S'NP'
p90
S'NMP'
tp91
F47
s(S'PP'
p92
S'PPMMP'
tp93
F1
s(S'DP'
S'DDDDPP'
tp94
F1
s(S'VP'
S'AAVNP'
tp95
F3
s(g76
S'PDP'
tp96
F173
s(S'CP'
S'CDAAPP'
tp97
F3
s(S'VP'
p98
S'VNNNNP'
tp99
F1
s(S'CP'
S'CDADVADVPPP'
tp100
F2
s(S'VP'
S'AVAAP'
tp101
F2
s(g67
S'PADVPP'
tp102
F1
s(S'VP'
S'AAVPP'
tp103
F1
s(S'VP'
p104
S'VVADVNP'
tp105
F1
s(S'DP'
p106
S'DPPPP'
tp107
F11
s(S'DP'
S'DDANP'
tp108
F2
s(S'NP'
p109
S'NACP'
tp110
F13
s(S'AP'
p111
S'ADVAVP'
tp112
F2
s(g109
S'NCCP'
tp113
F20
s(S'DP'
S'DADVADVVVP'
tp114
F1
s(S'AP'
S'AAAADP'
tp115
F3
s(S'DP'
S'DDADVCP'
tp116
F1
s(S'NP'
p117
S'NNCP'
tp118
F32
s(g88
S'ADVDDPP'
tp119
F2
s(S'NP'
S'NNPPPP'
tp120
F1
s(S'DP'
p121
S'DDDDP'
tp122
F2
s(S'DP'
S'DDAPP'
tp123
F1
s(g64
S'AVNP'
tp124
F5
s(g104
S'VVADP'
tp125
F1
s(S'NP'
S'NNNNADVVVP'
tp126
F1
s(S'DP'
S'DADVADVMMP'
tp127
F1
s(S'PP'
p128
S'ADVAPDP'
tp129
F1
s(S'NP'
p130
S'AAANAP'
tp131
F1
s(S'VP'
p132
S'VADVVP'
tp133
F2
s(S'AP'
S'AAAAP'
tp134
F1
s(S'CP'
S'CCCDP'
tp135
F3
s(S'VP'
p136
S'ADVVAP'
tp137
F2
s(g19
S'APDP'
tp138
F25
s(S'MP'
p139
S'MMVP'
tp140
F2
s(S'AP'
S'AADVCP'
tp141
F1
s(S'AP'
S'AVVVVP'
tp142
F1
s(S'DP'
p143
S'DDANNP'
tp144
F1
s(S'MP'
S'MVADVNP'
tp145
F1
s(S'NP'
p146
S'AAANDDP'
tp147
F1
s(S'MP'
S'MADVVNP'
tp148
F1
s(g117
S'ADVANCP'
tp149
F3
s(g106
S'DNNP'
tp150
F38
s(S'CP'
p151
S'CADVDDPP'
tp152
F1
s(S'DP'
p153
S'DPPPPP'
tp154
F2
s(g151
S'CCADVDP'
tp155
F3
s(g136
S'VVNNNP'
tp156
F3
s(S'VP'
S'AAVDDP'
tp157
F1
s(S'NP'
p158
S'NNNVP'
tp159
F2
s(S'NP'
p160
S'ADVNANP'
tp161
F1
s(g128
S'PPNNNNP'
tp162
F1
s(g92
S'PADVVP'
tp163
F2
s(S'MP'
S'MVVDDP'
tp164
F1
s(S'PP'
p165
S'APAP'
tp166
F5
s(S'AP'
p167
S'APP'
tp168
F28
s(S'NP'
S'NADVMP'
tp169
F1
s(S'AP'
p170
S'AAP'
tp171
F4
s(S'VP'
p172
S'VVAPP'
tp173
F2
s(S'NP'
S'ADVANPP'
tp174
F1
s(S'MP'
S'MVVCP'
tp175
F2
s(S'VP'
S'VADVADVNP'
tp176
F1
s(S'MP'
S'MVVVNP'
tp177
F2
s(S'PP'
S'PAANP'
tp178
F3
s(S'DP'
S'DDADVADVVP'
tp179
F1
s(S'PP'
S'PPPDDDP'
tp180
F1
s(S'CP'
S'AACCDDP'
tp181
F1
s(S'PP'
S'PPVVP'
tp182
F1
s(S'MP'
S'MMMCP'
tp183
F1
s(S'MP'
S'MVNP'
tp184
F16
s(S'NP'
p185
S'NNANP'
tp186
F1
s(S'NP'
S'ADVADVNAACP'
tp187
F1
s(g72
S'PAVP'
tp188
F13
s(S'CP'
S'CDADVADVPP'
tp189
F2
s(S'VP'
S'AVADVVP'
tp190
F1
s(S'MP'
S'MDANP'
tp191
F2
s(S'VP'
p192
S'VVVPP'
tp193
F4
s(S'MP'
S'MADVVPP'
tp194
F2
s(S'DP'
p195
S'DADP'
tp196
F3
s(S'DP'
S'ADVDVVP'
tp197
F1
s(S'AP'
S'ADVADP'
tp198
F3
s(S'VP'
S'VVVVAAP'
tp199
F1
s(g76
S'APDDP'
tp200
F2
s(S'VP'
S'ADVADVVVNP'
tp201
F1
s(S'VP'
S'ADVADVVANP'
tp202
F1
s(g143
S'DAAAVP'
tp203
F1
s(S'PP'
p204
S'PPCP'
tp205
F2
s(g132
S'ADVVNP'
tp206
F6
s(S'VP'
p207
S'AVCCCCP'
tp208
F1
s(g11
S'VVNP'
tp209
F14
s(S'PP'
p210
S'ADVPPPP'
tp211
F1
s(S'PP'
p212
S'PPVP'
tp213
F20
s(g165
S'PPPADVNNP'
tp214
F1
s(S'VP'
S'VADVDP'
tp215
F3
s(S'MP'
p216
S'MVVVPP'
tp217
F1
s(S'VP'
S'VVADVAP'
tp218
F1
s(S'VP'
p219
S'VAAP'
tp220
F9
s(g109
S'ANDP'
tp221
F4
s(g90
S'NVVP'
tp222
F32
s(S'PP'
p223
S'AAPVP'
tp224
F1
s(S'VP'
p225
S'VMP'
tp226
F11
s(S'VP'
p227
S'VVNNP'
tp228
F3
s(S'CP'
S'CDAPP'
tp229
F14
s(S'VP'
S'VVAAP'
tp230
F3
s(S'DP'
p231
S'ADNP'
tp232
F14
s(S'PP'
p233
S'PADP'
tp234
F19
s(S'NP'
p235
S'ANDDP'
tp236
F2
s(S'DP'
S'ADVADVDVP'
tp237
F1
s(g56
S'VVVDDP'
tp238
F1
s(S'DP'
S'DAPP'
tp239
F29
s(S'VP'
S'ADVADVVPP'
tp240
F2
s(g153
S'DAAVP'
tp241
F3
s(S'VP'
p242
S'ADVADVVDP'
tp243
F2
s(S'VP'
p244
S'AVVNP'
tp245
F1
s(S'PP'
S'PPPDP'
tp246
F2
s(g15
S'DAAPPP'
tp247
F2
s(S'MP'
p248
S'MVVAP'
tp249
F2
s(S'DP'
S'DAAANP'
tp250
F1
s(g106
S'DADVANP'
tp251
F2
s(S'NP'
p252
S'ANADVVVP'
tp253
F1
s(S'DP'
p254
S'ADVDNP'
tp255
F1
s(S'VP'
p256
S'VVPP'
tp257
F19
s(S'MP'
S'MVPP'
tp258
F14
s(S'DP'
S'ADVP'
tp259
F1
s(S'CP'
p260
S'CDDPPP'
tp261
F8
s(S'MP'
S'ADVMVVP'
tp262
F1
s(S'NP'
p263
S'NNPP'
tp264
F15
s(S'NP'
p265
S'AAANDP'
tp266
F1
s(S'AP'
S'AACP'
tp267
F12
s(S'NP'
p268
S'ANVP'
tp269
F12
s(S'DP'
S'DNNNP'
tp270
F2
s(S'PP'
S'PMMP'
tp271
F1
s(S'PP'
p272
S'PVVVP'
tp273
F3
s(S'PP'
p274
S'PMP'
tp275
F11
s(S'NP'
S'NNMMP'
tp276
F1
s(S'CP'
p277
S'CCDP'
tp278
F42
s(S'NP'
S'ADVNNDP'
tp279
F1
s(S'MP'
S'AMVP'
tp280
F3
s(g143
S'AADDPP'
tp281
F1
s(S'NP'
p282
S'NVVVP'
tp283
F4
s(S'CP'
p284
S'CDDDPP'
tp285
F5
s(g274
S'PPADVVP'
tp286
F2
s(g11
S'VVVDP'
tp287
F5
s(S'PP'
p288
S'PDDDDP'
tp289
F1
s(g19
S'PNNNP'
tp290
F3
s(g160
S'AAAANVVP'
tp291
F1
s(S'AP'
S'AACCP'
tp292
F2
s(S'PP'
p293
S'AAPNP'
tp294
F1
s(S'PP'
p295
S'PADVVVP'
tp296
F1
s(g19
S'PPP'
tp297
F64
s(S'NP'
p298
S'NAVP'
tp299
F14
s(S'PP'
p300
S'PADVAP'
tp301
F2
s(g121
S'DDNNNP'
tp302
F2
s(g36
S'PADDP'
tp303
F1
s(g195
S'ADVDVP'
tp304
F1
s(g50
S'AMMMP'
tp305
F1
s(S'NP'
S'NAAAP'
tp306
F1
s(S'NP'
p307
S'NCCCP'
tp308
F2
s(S'DP'
S'DADVADVPPP'
tp309
F2
s(g233
S'PPPPDP'
tp310
F2
s(S'MP'
S'MADVADVVPP'
tp311
F1
s(S'CP'
p312
S'CADPP'
tp313
F19
s(S'VP'
p314
S'VPP'
tp315
F83
s(S'CP'
S'ADVCCDP'
tp316
F1
s(S'DP'
S'ADVDDNP'
tp317
F1
s(g109
S'NNNCP'
tp318
F6
s(S'PP'
S'PADVDP'
tp319
F2
s(S'CP'
S'CDADVAPP'
tp320
F2
s(S'DP'
S'DANNP'
tp321
F1
s(g27
S'CDDPP'
tp322
F34
s(S'DP'
S'DAAPP'
tp323
F3
s(S'PP'
p324
S'PVVP'
tp325
F13
s(S'CP'
p326
S'CADPPP'
tp327
F2
s(S'DP'
p328
S'DADVPPP'
tp329
F3
s(S'MP'
p330
S'MAVCP'
tp331
F1
s(g172
S'ADVVCP'
tp332
F3
s(S'VP'
S'VPPP'
tp333
F14
s(S'VP'
p334
S'AVCCP'
tp335
F1
s(g56
S'VVPPP'
tp336
F5
s(g210
S'PPAP'
tp337
F7
s(S'DP'
p338
S'DVVP'
tp339
F22
s(g52
S'DDDDAP'
tp340
F1
s(S'NP'
S'ANMP'
tp341
F5
s(S'AP'
S'APPP'
tp342
F2
s(g252
S'NNNNMP'
tp343
F1
s(S'VP'
S'AAAVVP'
tp344
F1
s(S'VP'
S'VVVP'
tp345
F3
s(S'CP'
S'CADVDPP'
tp346
F3
s(S'NP'
p347
S'ANCP'
tp348
F22
s(S'DP'
S'DCP'
tp349
F6
s(g23
S'DVVVP'
tp350
F3
s(g98
S'ADVVCCP'
tp351
F2
s(S'VP'
S'ADVVVVP'
tp352
F1
s(g23
S'DDDP'
tp353
F8
s(S'DP'
p354
S'DDADVPP'
tp355
F3
s(S'MP'
S'MAADP'
tp356
F1
s(g185
S'ANVVP'
tp357
F1
s(S'NP'
S'NVVVVP'
tp358
F1
s(S'NP'
S'NPPP'
tp359
F12
s(g43
S'PPAPP'
tp360
F1
s(g354
S'DAVP'
tp361
F12
s(S'VP'
S'VAAAANP'
tp362
F1
s(g263
S'NNNMP'
tp363
F2
s(S'PP'
p364
S'ADVPPP'
tp365
F1
s(S'AP'
S'ACP'
tp366
F37
s(S'PP'
p367
S'AAPAP'
tp368
F1
s(S'NP'
S'NDDDDP'
tp369
F1
s(g76
S'PPNP'
tp370
F34
s(S'DP'
S'AADVP'
tp371
F1
s(S'AP'
S'ADP'
tp372
F111
s(S'PP'
S'APMP'
tp373
F1
s(S'DP'
S'DDAVP'
tp374
F1
s(S'NP'
S'ANPPP'
tp375
F1
s(S'DP'
S'AAAADPP'
tp376
F1
s(g219
S'VAAANP'
tp377
F1
s(S'VP'
S'ADVADVVNNP'
tp378
F1
s(S'VP'
p379
S'AVDP'
tp380
F18
s(g70
S'ANNVP'
tp381
F2
s(g227
S'VVAP'
tp382
F12
s(S'NP'
S'NNAPP'
tp383
F2
s(S'AP'
S'AAAACCP'
tp384
F1
s(g244
S'AAVNNP'
tp385
F1
s(S'NP'
p386
S'NADVAPP'
tp387
F2
s(S'PP'
S'PPPPNP'
tp388
F2
s(g347
S'NVP'
tp389
F146
s(S'NP'
S'NAAPP'
tp390
F2
s(g81
S'PPPPVP'
tp391
F1
s(g64
S'VDDP'
tp392
F19
s(S'NP'
S'NNNNADVADVCCP'
tp393
F1
s(S'NP'
S'AANVVP'
tp394
F1
s(g254
S'DADVAPP'
tp395
F2
s(g109
S'ANPP'
tp396
F11
s(g43
S'PPPPP'
tp397
F3
s(g223
S'ADVADVPDP'
tp398
F1
s(S'MP'
S'MVVPP'
tp399
F2
s(g212
S'PPPNP'
tp400
F7
s(S'DP'
p401
S'DDDDDP'
tp402
F1
s(g265
S'ADVADVNPP'
tp403
F1
s(S'AP'
S'ADVADVAVP'
tp404
F1
s(S'DP'
S'ADDP'
tp405
F4
s(g23
S'DDP'
tp406
F49
s(S'CP'
S'CAADPP'
tp407
F5
s(S'DP'
S'DADVADVVP'
tp408
F1
s(g130
S'NAACP'
tp409
F2
s(S'PP'
S'PNNP'
tp410
F37
s(S'VP'
S'AVAP'
tp411
F1
s(S'NP'
S'NNAMP'
tp412
F2
s(S'PP'
S'PADVDDP'
tp413
F1
s(S'NP'
S'ADVNCP'
tp414
F1
s(S'AP'
S'AADP'
tp415
F21
s(S'NP'
S'NAPPP'
tp416
F2
s(g277
S'ACDP'
tp417
F15
s(g233
S'PAAP'
tp418
F13
s(S'CP'
S'CCCCDDP'
tp419
F1
s(S'NP'
S'NNACP'
tp420
F1
s(S'MP'
S'MDNNP'
tp421
F3
s(S'CP'
S'CDADVPPP'
tp422
F2
s(g379
S'VAP'
tp423
F76
s(S'PP'
S'PADVAMP'
tp424
F1
s(S'DP'
S'DDDPP'
tp425
F6
s(g34
S'PPPNNP'
tp426
F1
s(S'NP'
p427
S'AANNCP'
tp428
F1
s(g223
S'PAAPP'
tp429
F1
s(S'MP'
S'MVVVDP'
tp430
F1
s(S'NP'
S'NPPPP'
tp431
F1
s(S'DP'
S'DDDPPP'
tp432
F1
s(S'VP'
S'ADVAVDP'
tp433
F1
s(S'DP'
S'ADAP'
tp434
F1
s(S'DP'
S'DADVDP'
tp435
F1
s(S'NP'
p436
S'NNAVVP'
tp437
F1
s(S'AP'
S'AAACP'
tp438
F1
s(S'NP'
S'NAAP'
tp439
F7
s(g34
S'PPPVP'
tp440
F3
s(g111
S'AADDP'
tp441
F2
s(S'NP'
S'ANNVVP'
tp442
F1
s(S'VP'
S'VAANP'
tp443
F1
s(S'NP'
S'NADVADVCP'
tp444
F2
s(g256
S'VVDP'
tp445
F20
s(S'MP'
S'MPNP'
tp446
F1
s(S'MP'
S'MADP'
tp447
F3
s(S'AP'
S'AMMP'
tp448
F1
s(S'PP'
S'ADVAPNNNNP'
tp449
F1
s(g76
S'PANP'
tp450
F15
s(g364
S'PDDDP'
tp451
F4
s(S'NP'
p452
S'NADVDDP'
tp453
F1
s(S'MP'
S'MVVPPP'
tp454
F1
s(S'NP'
S'AANMP'
tp455
F2
s(g45
S'AAVP'
tp456
F6
s(S'AP'
p457
S'AVVP'
tp458
F2
s(g386
S'NDDP'
tp459
F8
s(S'CP'
S'ADVADVCDP'
tp460
F2
s(S'MP'
S'MAVDDP'
tp461
F1
s(S'DP'
S'DDDADVPP'
tp462
F1
s(S'VP'
S'AVPPP'
tp463
F1
s(S'AP'
S'APPPP'
tp464
F1
s(g298
S'NDP'
tp465
F70
s(S'MP'
S'ADVAMVVP'
tp466
F1
s(g330
S'MVAAP'
tp467
F1
s(g106
S'DDVP'
tp468
F21
s(S'MP'
S'MMADVVVP'
tp469
F1
s(g252
S'AANVP'
tp470
F3
s(S'DP'
S'ADDVP'
tp471
F1
s(S'VP'
S'VNNNP'
tp472
F3
s(S'PP'
S'ADVPAP'
tp473
F1
s(g92
S'PCP'
tp474
F4
s(S'NP'
S'NNPPP'
tp475
F3
s(g367
S'PAADP'
tp476
F1
s(g268
S'ADVNNVP'
tp477
F2
s(S'NP'
S'NADVCCP'
tp478
F1
s(g334
S'VPPPP'
tp479
F1
s(g216
S'MPAP'
tp480
F1
s(g282
S'NNNDP'
tp481
F3
s(S'AP'
p482
S'ADVACP'
tp483
F2
s(S'NP'
S'AANVVVP'
tp484
F1
s(g265
S'ADVADVNMP'
tp485
F1
s(g227
S'AVVDP'
tp486
F1
s(g195
S'ADPPP'
tp487
F4
s(S'MP'
S'MVCP'
tp488
F6
s(S'PP'
S'PPAAANP'
tp489
F1
s(g284
S'CCDDP'
tp490
F7
s(S'NP'
S'NNADVVP'
tp491
F1
s(S'NP'
p492
S'NNVVP'
tp493
F5
s(S'NP'
S'NNNNVP'
tp494
F1
s(S'VP'
S'VVCP'
tp495
F15
s(g223
S'PADVADVPP'
tp496
F2
s(S'NP'
p497
S'AANCP'
tp498
F1
s(S'VP'
S'VAADP'
tp499
F3
s(g324
S'APPP'
tp500
F10
s(S'VP'
S'ADVVPP'
tp501
F3
s(S'VP'
S'VVADVANP'
tp502
F1
s(S'VP'
S'VNNP'
tp503
F13
s(g457
S'AADVDP'
tp504
F1
s(g235
S'NADP'
tp505
F3
s(g32
S'DDNP'
tp506
F26
s(S'DP'
S'DDNNP'
tp507
F12
s(S'VP'
S'VPPPPP'
tp508
F2
s(g263
S'ADVANVP'
tp509
F1
s(g268
S'ADVADVNCP'
tp510
F1
s(S'DP'
S'AADPP'
tp511
F8
s(g13
S'VVVAAP'
tp512
F1
s(g146
S'NNNNPP'
tp513
F1
s(S'VP'
S'VVVVCP'
tp514
F1
s(S'DP'
p515
S'AAADVP'
tp516
F1
s(S'CP'
p517
S'AACADDP'
tp518
F1
s(g21
S'AAPDP'
tp519
F2
s(S'DP'
S'DADVADVAP'
tp520
F1
s(g25
S'NADVADVCCP'
tp521
F1
s(S'MP'
S'MVVNP'
tp522
F1
s(S'CP'
S'CDDADVPPP'
tp523
F1
s(S'NP'
S'AAANCP'
tp524
F1
s(g260
S'ACDDP'
tp525
F3
s(S'AP'
S'AAPP'
tp526
F8
s(g227
S'VVCCP'
tp527
F2
s(g326
S'ADVCAADP'
tp528
F1
s(S'DP'
S'DADVVVP'
tp529
F1
s(S'DP'
S'DADVADVNP'
tp530
F2
s(g347
S'NAPP'
tp531
F12
s(S'PP'
S'APPVP'
tp532
F1
s(g4
S'ADVADVADP'
tp533
F1
s(S'NP'
S'NADVDP'
tp534
F2
s(S'MP'
S'MVADVADVAP'
tp535
F1
s(S'VP'
S'VVVCP'
tp536
F2
s(g295
S'APDDDP'
tp537
F1
s(S'NP'
S'ANCCP'
tp538
F6
s(S'NP'
S'AANPP'
tp539
F3
s(S'VP'
S'VDDDP'
tp540
F1
s(S'NP'
S'NNMP'
tp541
F6
s(S'DP'
S'DDDVP'
tp542
F2
s(S'CP'
S'CADDPP'
tp543
F1
s(g293
S'ADVADVPNP'
tp544
F1
s(S'DP'
S'DADVAP'
tp545
F1
s(S'CP'
S'CDDAPP'
tp546
F1
s(S'VP'
S'VVVPPP'
tp547
F1
s(S'NP'
S'ANAP'
tp548
F4
s(S'MP'
p549
S'MVAP'
tp550
F8
s(g19
S'PVP'
tp551
F111
s(S'VP'
p552
S'VVAAAAP'
tp553
F1
s(S'NP'
S'ANNCP'
tp554
F1
s(g19
S'PPDDP'
tp555
F5
s(S'VP'
S'AVCP'
tp556
F1
s(S'DP'
S'DDVVVP'
tp557
F1
s(g32
S'DPP'
tp558
F208
s(g307
S'ADVNVP'
tp559
F4
s(g32
S'DDPP'
tp560
F54
s(S'DP'
S'DDADVPPP'
tp561
F1
s(g23
S'DANP'
tp562
F26
s(g130
S'ADVADVNAP'
tp563
F1
s(S'NP'
S'NADVPP'
tp564
F1
s(S'PP'
S'AAPPVP'
tp565
F2
s(g436
S'NAAVP'
tp566
F3
s(g328
S'AADNP'
tp567
F2
s(g386
S'NNNNCP'
tp568
F1
s(S'MP'
S'ADVADVMMVVP'
tp569
F1
s(g139
S'MDNP'
tp570
F3
s(S'DP'
S'ADDPPP'
tp571
F1
s(S'NP'
S'NNNVVP'
tp572
F2
s(S'NP'
S'NNP'
tp573
F1
s(g204
S'AAPNNP'
tp574
F1
s(g288
S'ADVADVPPP'
tp575
F1
s(S'AP'
p576
S'AADDDDP'
tp577
F1
s(S'CP'
S'CDPPPPP'
tp578
F2
s(S'MP'
S'MADVVDP'
tp579
F3
s(g19
S'PDDP'
tp580
F26
s(S'PP'
S'PCCP'
tp581
F1
s(S'PP'
S'ADVAPNP'
tp582
F1
s(S'NP'
S'NNVP'
tp583
F27
s(S'AP'
S'ADVADVACP'
tp584
F1
s(g497
S'NAANP'
tp585
F2
s(g192
S'VVDDP'
tp586
F1
s(S'DP'
S'DAANP'
tp587
F6
s(g167
S'ADDP'
tp588
F13
s(S'PP'
S'PNNNNP'
tp589
F3
s(S'VP'
p590
S'ADVVVAP'
tp591
F1
s(S'PP'
S'ADVPPNP'
tp592
F2
s(S'CP'
S'CADVADVDPP'
tp593
F3
s(S'CP'
S'ADVADVADVCDP'
tp594
F1
s(g32
S'DPPP'
tp595
F54
s(S'PP'
S'ADVADVPPNP'
tp596
F2
s(g576
S'AAAP'
tp597
F1
s(g300
S'ADVPNP'
tp598
F4
s(g19
S'PPDP'
tp599
F23
s(S'DP'
S'ADVDCP'
tp600
F1
s(S'NP'
S'ANADVADVVP'
tp601
F1
s(S'CP'
S'CCAADDP'
tp602
F1
s(S'NP'
S'NAP'
tp603
F33
s(g219
S'VVP'
tp604
F8
s(g367
S'PPAAP'
tp605
F1
s(g92
S'ADVADVPVP'
tp606
F1
s(S'AP'
S'AAADP'
tp607
F3
s(S'PP'
S'APNP'
tp608
F12
s(g23
S'DDVVP'
tp609
F1
s(g172
S'VVVNP'
tp610
F4
s(S'MP'
S'MDDNNP'
tp611
F1
s(S'NP'
S'NAMP'
tp612
F1
s(S'MP'
S'MVNNP'
tp613
F1
s(g27
S'CDPP'
tp614
F187
s(S'AP'
S'ADDDP'
tp615
F1
s(S'NP'
S'NNDP'
tp616
F17
s(g517
S'ADVCDP'
tp617
F1
s(S'VP'
S'ADVADVVNP'
tp618
F2
s(S'NP'
S'NADVADVADVCP'
tp619
F1
s(S'VP'
S'VAAVP'
tp620
F1
s(S'PP'
S'PPNNP'
tp621
F4
s(g367
S'ADVAPPP'
tp622
F1
s(g515
S'ADVADVDPP'
tp623
F3
s(g314
S'VDP'
tp624
F135
s(S'NP'
S'NADVAP'
tp625
F1
s(g225
S'AVDDP'
tp626
F1
s(g47
S'DADVNP'
tp627
F3
s(g338
S'DAP'
tp628
F21
s(S'MP'
S'MCADP'
tp629
F1
s(S'VP'
S'VAAAAP'
tp630
F2
s(S'NP'
S'NADVAVP'
tp631
F1
s(S'PP'
p632
S'PPAVP'
tp633
F1
s(g207
S'AVPP'
tp634
F10
s(g312
S'CDPPPP'
tp635
F6
s(g29
S'AAVDP'
tp636
F3
s(S'PP'
S'PANNP'
tp637
F1
s(g83
S'NNDDP'
tp638
F1
s(g195
S'ADPPPP'
tp639
F1
s(g401
S'DADVADVPP'
tp640
F2
s(g231
S'DMP'
tp641
F6
s(g88
S'ADVDPP'
tp642
F9
s(g347
S'NPP'
tp643
F133
s(g632
S'PPAANP'
tp644
F1
s(S'PP'
S'PADVADVNP'
tp645
F2
s(g106
S'ADPP'
tp646
F25
s(g288
S'PPAAVP'
tp647
F1
s(g242
S'VADVPP'
tp648
F1
s(g81
S'ADVPVP'
tp649
F3
s(S'NP'
S'NADVADVADVVVP'
tp650
F1
s(g590
S'ADVVANP'
tp651
F1
s(g482
S'ACCP'
tp652
F2
s(S'PP'
S'ADVPDP'
tp653
F1
s(S'PP'
S'PPDDDDP'
tp654
F1
s(S'MP'
S'MVADVAP'
tp655
F1
s(g347
S'NCP'
tp656
F151
s(g74
S'CADVDPPP'
tp657
F2
s(S'VP'
S'ADVVVPP'
tp658
F3
s(S'PP'
S'PPADVNNP'
tp659
F1
s(S'DP'
S'ADVVP'
tp660
F2
s(g50
S'AAMP'
tp661
F1
s(S'NP'
S'AANDP'
tp662
F2
s(S'MP'
S'MVCCP'
tp663
F1
s(S'DP'
S'DADVNNP'
tp664
F1
s(g492
S'NNCCP'
tp665
F4
s(g549
S'MNVP'
tp666
F5
s(S'CP'
S'ADVADVCCDP'
tp667
F2
s(S'VP'
S'VAPP'
tp668
F8
s(g248
S'MADVVANP'
tp669
F1
s(g552
S'ADVVDP'
tp670
F8
s(g9
S'DADVPP'
tp671
F4
s(S'AP'
S'AMP'
tp672
F8
s(S'DP'
S'ADVDAP'
tp673
F1
s(g427
S'AANMMP'
tp674
F1
s(g170
S'ADVAPP'
tp675
F3
s(S'CP'
S'AACDP'
tp676
F2
s(g195
S'ADVDPPP'
tp677
F2
s(g32
S'DVP'
tp678
F126
s(S'NP'
S'ADVNPP'
tp679
F1
s(S'VP'
S'ADVADVADVVVNP'
tp680
F1
s(S'NP'
S'NNCCCP'
tp681
F1
s(S'AP'
S'AVP'
tp682
F32
s(g386
S'NADVVP'
tp683
F4
s(g158
S'NNADVADVVP'
tp684
F1
s(S'CP'
S'CAAAADPP'
tp685
F1
s(S'DP'
S'DDPPP'
tp686
F12
s(g25
S'ADVNMP'
tp687
F1
s(g452
S'NNAP'
tp688
F7
s(S'MP'
S'MADVVCP'
tp689
F1
s(g272
S'PPANP'
tp690
F3
s(S'MP'
S'MCDDP'
tp691
F1
s(S'CP'
S'CDADVPP'
tp692
F4
s(g314
S'VNP'
tp693
F122
s(g29
S'VANP'
tp694
F9
s(g219
S'VADVAP'
tp695
F7
s(S'DP'
S'DDDDVP'
tp696
F1
s.