ccollections
defaultdict
p1
(c__builtin__
float
p2
tRp3
(S'MP'
S'MMDP'
tp4
F1
s(S'VP'
S'VVAAAP'
tp5
F1
s(S'NP'
S'AANDDP'
tp6
F1
s(S'DP'
S'ADDPP'
tp7
F3
s(S'DP'
S'DDAP'
tp8
F4
s(S'VP'
p9
S'ADVVVNP'
tp10
F2
s(S'VP'
S'VVVVP'
tp11
F1
s(S'DP'
S'DAANNP'
tp12
F1
s(S'NP'
S'NADDP'
tp13
F1
s(S'PP'
p14
S'PAPP'
tp15
F15
s(S'PP'
p16
S'PADVNP'
tp17
F10
s(S'DP'
p18
S'DNP'
tp19
F270
s(S'PP'
S'PPADVAVP'
tp20
F1
s(S'MP'
S'MVVAAP'
tp21
F1
s(S'NP'
S'ADVNDP'
tp22
F1
s(S'PP'
S'AAPDDP'
tp23
F1
s(S'CP'
p24
S'CDPPP'
tp25
F46
s(S'VP'
S'VADP'
tp26
F20
s(S'DP'
S'DAAP'
tp27
F4
s(S'PP'
p28
S'PPPPPP'
tp29
F1
s(S'AP'
S'AADVADVADVDP'
tp30
F1
s(S'DP'
p31
S'DAADP'
tp32
F2
s(S'DP'
S'ADNNP'
tp33
F1
s(S'AP'
p34
S'AAADVPPP'
tp35
F1
s(g14
S'PADVADVAAP'
tp36
F2
s(S'VP'
S'ADVVAAPP'
tp37
F1
s(S'VP'
S'ADVVNP'
tp38
F8
s(S'CP'
S'AACADVDP'
tp39
F1
s(S'MP'
S'MVDP'
tp40
F25
s(S'PP'
p41
S'PADVANP'
tp42
F1
s(S'PP'
S'PPPP'
tp43
F34
s(S'DP'
S'DDDNP'
tp44
F5
s(S'VP'
p45
S'VACP'
tp46
F8
s(S'AP'
S'AAAVP'
tp47
F1
s(S'PP'
S'PPPAAP'
tp48
F1
s(S'DP'
p49
S'DADVVP'
tp50
F10
s(S'AP'
S'AADVPP'
tp51
F1
s(S'NP'
S'NAAVVP'
tp52
F1
s(S'NP'
S'NADVVVP'
tp53
F6
s(S'CP'
S'CADVADVDDPP'
tp54
F1
s(S'VP'
p55
S'VCP'
tp56
F127
s(S'NP'
S'NMMP'
tp57
F8
s(S'VP'
S'ADVVAAP'
tp58
F1
s(S'VP'
S'ADVVCCP'
tp59
F2
s(S'PP'
p60
S'PAP'
tp61
F130
s(S'MP'
S'MMVVP'
tp62
F1
s(S'DP'
S'DDDADVPP'
tp63
F1
s(S'VP'
p64
S'VADVADVAP'
tp65
F2
s(S'PP'
S'ADVPPVP'
tp66
F1
s(S'VP'
S'VADVNP'
tp67
F2
s(S'AP'
S'ADVADVAVP'
tp68
F2
s(S'VP'
p69
S'VAAVP'
tp70
F1
s(S'PP'
p71
S'PNP'
tp72
F306
s(S'DP'
S'ADDP'
tp73
F5
s(S'DP'
p74
S'DDP'
tp75
F70
s(S'NP'
S'NNNPP'
tp76
F2
s(S'NP'
p77
S'NNDP'
tp78
F8
s(S'MP'
p79
S'MCDP'
tp80
F2
s(S'DP'
p81
S'DDAANP'
tp82
F3
s(S'NP'
S'NMP'
tp83
F63
s(g69
S'AAVNP'
tp84
F1
s(S'VP'
S'VMMP'
tp85
F1
s(S'PP'
p86
S'PDP'
tp87
F302
s(S'VP'
p88
S'VAMP'
tp89
F1
s(S'NP'
S'ADVNVVP'
tp90
F1
s(S'MP'
S'MNNVP'
tp91
F1
s(S'NP'
p92
S'NACCP'
tp93
F1
s(S'AP'
p94
S'ANP'
tp95
F1
s(g41
S'PADVPP'
tp96
F3
s(S'PP'
S'PNNP'
tp97
F52
s(S'PP'
S'PPADVAP'
tp98
F1
s(S'NP'
S'ADVANCP'
tp99
F2
s(S'PP'
S'ADVADVAPVP'
tp100
F1
s(S'DP'
p101
S'DPPPP'
tp102
F12
s(S'VP'
S'VADVACP'
tp103
F2
s(S'PP'
p104
S'PADVADP'
tp105
F1
s(S'NP'
p106
S'NACP'
tp107
F5
s(S'AP'
S'ADVAVP'
tp108
F2
s(S'NP'
S'NCCP'
tp109
F27
s(S'MP'
S'MVVADVNP'
tp110
F1
s(S'AP'
p111
S'AAAADP'
tp112
F1
s(S'PP'
S'APADVAAP'
tp113
F1
s(S'NP'
S'NNCP'
tp114
F48
s(S'NP'
S'AANPPP'
tp115
F1
s(S'NP'
p116
S'NADVADVVP'
tp117
F3
s(S'PP'
p118
S'PPAP'
tp119
F7
s(S'VP'
S'AVNP'
tp120
F7
s(S'VP'
S'VVADP'
tp121
F2
s(S'MP'
S'MVVCCCCP'
tp122
F1
s(S'DP'
p123
S'ADADVNP'
tp124
F1
s(S'PP'
S'ADVPADVNP'
tp125
F1
s(S'CP'
S'CCCDP'
tp126
F5
s(S'VP'
p127
S'ADVVAP'
tp128
F4
s(S'VP'
p129
S'VCCCP'
tp130
F2
s(S'PP'
p131
S'APDP'
tp132
F31
s(S'VP'
S'ADVVNNP'
tp133
F4
s(g34
S'AADVCP'
tp134
F1
s(S'VP'
S'VVANP'
tp135
F2
s(S'VP'
S'VVVVDP'
tp136
F1
s(S'VP'
p137
S'ADVVVP'
tp138
F2
s(S'PP'
p139
S'ADVADVADVPDP'
tp140
F1
s(S'DP'
S'DADVADVADVPP'
tp141
F1
s(S'NP'
S'ADVADVNNPP'
tp142
F1
s(S'AP'
S'AAPP'
tp143
F6
s(S'MP'
p144
S'MADVVNP'
tp145
F2
s(S'PP'
S'PAAP'
tp146
F23
s(S'NP'
S'NANP'
tp147
F2
s(g18
S'DNNP'
tp148
F55
s(S'VP'
p149
S'VVCCP'
tp150
F1
s(S'PP'
S'PPAADP'
tp151
F1
s(S'VP'
p152
S'VVACP'
tp153
F1
s(S'DP'
S'ADDNP'
tp154
F2
s(S'NP'
p155
S'NNNVP'
tp156
F2
s(S'MP'
S'MVANP'
tp157
F1
s(g118
S'PADVVP'
tp158
F6
s(S'DP'
S'DADVADVADVPPP'
tp159
F1
s(S'PP'
S'APAP'
tp160
F1
s(S'CP'
S'ADVADVCDP'
tp161
F2
s(S'VP'
S'VMMMMP'
tp162
F1
s(S'NP'
p163
S'NADVMP'
tp164
F2
s(S'AP'
S'AAP'
tp165
F20
s(S'VP'
S'VVAPP'
tp166
F1
s(S'NP'
p167
S'ADVANPP'
tp168
F2
s(S'DP'
S'DAAVP'
tp169
F2
s(S'CP'
S'CDDDDPP'
tp170
F2
s(S'PP'
p171
S'PAANP'
tp172
F5
s(g155
S'ANVP'
tp173
F23
s(S'DP'
S'ADVADVDADVVP'
tp174
F1
s(S'DP'
S'ADVDDPP'
tp175
F2
s(S'NP'
S'NNAAAP'
tp176
F1
s(S'MP'
p177
S'MVNP'
tp178
F18
s(S'NP'
S'ANAAP'
tp179
F1
s(S'CP'
S'CDDDPPP'
tp180
F2
s(S'PP'
p181
S'PAVP'
tp182
F14
s(S'MP'
S'ADVMVP'
tp183
F3
s(S'PP'
p184
S'ADVADVPPVP'
tp185
F2
s(S'VP'
p186
S'ADVVADVADVNNP'
tp187
F1
s(S'DP'
S'DDAPPP'
tp188
F1
s(S'VP'
S'VVVPP'
tp189
F2
s(S'NP'
p190
S'NNADP'
tp191
F2
s(S'MP'
p192
S'MADVVPP'
tp193
F3
s(S'DP'
S'DADP'
tp194
F6
s(S'AP'
S'ADVADP'
tp195
F1
s(S'AP'
S'APP'
tp196
F63
s(g81
S'ADVDDP'
tp197
F1
s(g139
S'APDDP'
tp198
F1
s(S'VP'
S'ADVADVVVNP'
tp199
F1
s(S'VP'
S'ADVADVVANP'
tp200
F1
s(S'PP'
S'PPNNNP'
tp201
F1
s(S'PP'
p202
S'PPCP'
tp203
F1
s(g190
S'AANADVVVP'
tp204
F1
s(S'PP'
p205
S'APVP'
tp206
F11
s(S'DP'
S'DAAAP'
tp207
F1
s(S'CP'
S'CADVADPPP'
tp208
F2
s(S'VP'
S'VVNP'
tp209
F31
s(S'PP'
S'PPVP'
tp210
F19
s(S'VP'
p211
S'VVCCCCP'
tp212
F1
s(S'VP'
p213
S'VADVDP'
tp214
F7
s(g9
S'VAAP'
tp215
F14
s(S'NP'
S'ANDP'
tp216
F15
s(S'NP'
S'NVVP'
tp217
F44
s(S'PP'
S'PPADP'
tp218
F3
s(S'VP'
p219
S'VMP'
tp220
F5
s(S'VP'
S'VVNNP'
tp221
F1
s(S'CP'
S'CDAPP'
tp222
F30
s(S'VP'
S'VVAAP'
tp223
F2
s(S'DP'
S'ADVADVP'
tp224
F1
s(S'DP'
S'ADVADVDDVP'
tp225
F1
s(g49
S'ADNP'
tp226
F16
s(S'VP'
S'AVVDP'
tp227
F1
s(S'MP'
S'ADVMAP'
tp228
F1
s(S'CP'
p229
S'ACCDP'
tp230
F1
s(S'PP'
p231
S'PADP'
tp232
F22
s(S'DP'
S'DDAAAPP'
tp233
F2
s(S'VP'
S'ADVVVCP'
tp234
F3
s(g94
S'AAAACP'
tp235
F1
s(S'DP'
p236
S'ADVADVDVP'
tp237
F2
s(S'DP'
S'DADVAP'
tp238
F5
s(g74
S'DAPP'
tp239
F45
s(S'VP'
S'AVVP'
tp240
F3
s(S'VP'
S'ADVADVVPP'
tp241
F3
s(S'AP'
S'AADVADVADVPP'
tp242
F1
s(S'VP'
S'ADVADVVDP'
tp243
F1
s(S'PP'
S'PPPDP'
tp244
F6
s(S'PP'
S'AAAPDP'
tp245
F1
s(g144
S'MVVAP'
tp246
F2
s(S'DP'
S'DAAANP'
tp247
F3
s(S'DP'
S'DADVANP'
tp248
F4
s(S'NP'
p249
S'ANADVVVP'
tp250
F1
s(S'VP'
S'VAAPP'
tp251
F2
s(S'DP'
S'ADVDNP'
tp252
F4
s(g211
S'VVPP'
tp253
F24
s(S'NP'
S'AAAANVP'
tp254
F1
s(S'MP'
S'MVPP'
tp255
F16
s(S'DP'
p256
S'ADVP'
tp257
F12
s(S'CP'
S'CDDPPP'
tp258
F5
s(S'MP'
S'ADVMVVP'
tp259
F1
s(S'DP'
S'DDADVADVADVNP'
tp260
F1
s(S'NP'
p261
S'NNPP'
tp262
F27
s(S'MP'
S'MVVDP'
tp263
F2
s(S'AP'
p264
S'AACP'
tp265
F10
s(S'PP'
S'PPVVP'
tp266
F5
s(S'VP'
S'VVADVCCP'
tp267
F1
s(S'DP'
S'ADVDDVP'
tp268
F2
s(S'PP'
S'PADVADVVP'
tp269
F2
s(S'VP'
S'ADVVCP'
tp270
F7
s(S'PP'
S'PVVVP'
tp271
F3
s(S'PP'
S'PMP'
tp272
F19
s(S'CP'
S'CCDP'
tp273
F37
s(S'MP'
S'AMVP'
tp274
F1
s(S'NP'
S'NADVADVADVAP'
tp275
F1
s(S'NP'
S'NVVVP'
tp276
F1
s(S'CP'
S'CDDDPP'
tp277
F2
s(S'CP'
p278
S'CDAAPP'
tp279
F5
s(g88
S'AVVAP'
tp280
F1
s(S'PP'
p281
S'PNNNP'
tp282
F3
s(S'CP'
S'CCCCDP'
tp283
F1
s(S'AP'
S'AACCP'
tp284
F2
s(g281
S'AAPNP'
tp285
F5
s(S'PP'
S'PPPCP'
tp286
F1
s(g86
S'PPP'
tp287
F163
s(g155
S'NNVVP'
tp288
F9
s(S'NP'
S'NAVP'
tp289
F11
s(S'PP'
S'PADVAP'
tp290
F3
s(S'DP'
S'DDNNNP'
tp291
F1
s(S'DP'
S'DADVAAAVP'
tp292
F1
s(g177
S'AMDP'
tp293
F1
s(S'PP'
S'PADDP'
tp294
F1
s(S'DP'
S'ADVDVP'
tp295
F4
s(S'PP'
S'AAPADVDDP'
tp296
F1
s(S'MP'
S'MCADVDP'
tp297
F1
s(S'AP'
S'AADVVP'
tp298
F1
s(S'VP'
S'ADVADVVVPP'
tp299
F1
s(S'AP'
S'AAADVCP'
tp300
F1
s(S'VP'
S'VPP'
tp301
F180
s(S'CP'
S'ADVCCDP'
tp302
F2
s(S'AP'
S'ADVADVADVACP'
tp303
F1
s(g123
S'ADVDDPPP'
tp304
F1
s(S'DP'
S'ADVDDNP'
tp305
F1
s(S'NP'
S'NNNCP'
tp306
F2
s(g181
S'PADVDP'
tp307
F7
s(S'CP'
S'CDADVAPP'
tp308
F1
s(S'DP'
p309
S'DANNP'
tp310
F2
s(S'MP'
S'MADVVAP'
tp311
F1
s(S'CP'
S'CDDPP'
tp312
F45
s(S'DP'
p313
S'DAAPP'
tp314
F7
s(S'PP'
S'PVVP'
tp315
F25
s(S'CP'
S'CADPPP'
tp316
F2
s(S'DP'
p317
S'DADVPPP'
tp318
F3
s(S'MP'
S'MAVCP'
tp319
F2
s(S'PP'
S'PMMP'
tp320
F3
s(S'PP'
S'ADVPPAP'
tp321
F1
s(S'VP'
S'VPPP'
tp322
F13
s(S'VP'
S'VVPPP'
tp323
F4
s(S'DP'
p324
S'DDAVP'
tp325
F2
s(S'MP'
S'MVPPP'
tp326
F1
s(S'DP'
S'DVVP'
tp327
F31
s(S'PP'
S'PADVAVP'
tp328
F1
s(S'NP'
p329
S'ANMP'
tp330
F3
s(S'AP'
S'APPP'
tp331
F6
s(S'PP'
S'ADVPPP'
tp332
F3
s(S'DP'
S'ADVADPPP'
tp333
F2
s(S'VP'
p334
S'VVVP'
tp335
F5
s(S'CP'
S'CADVDPP'
tp336
F21
s(S'NP'
p337
S'ANCP'
tp338
F45
s(S'DP'
p339
S'DCP'
tp340
F26
s(S'DP'
S'DVVVP'
tp341
F1
s(S'NP'
S'AAANCP'
tp342
F2
s(S'VP'
S'ADVVVVP'
tp343
F1
s(S'NP'
S'NNVVVVP'
tp344
F1
s(S'PP'
S'ADVADVADVPPNP'
tp345
F1
s(S'DP'
S'DDDP'
tp346
F12
s(S'DP'
p347
S'DDADVPP'
tp348
F3
s(S'NP'
S'ANNVVP'
tp349
F1
s(S'NP'
S'ANVVP'
tp350
F1
s(g163
S'NVVVVP'
tp351
F1
s(g249
S'ANPPP'
tp352
F1
s(S'NP'
S'NPPP'
tp353
F18
s(S'DP'
S'DAVP'
tp354
F14
s(S'VP'
S'ADVAVCP'
tp355
F1
s(g264
S'ACP'
tp356
F72
s(S'PP'
S'PADVADVNNP'
tp357
F1
s(S'PP'
S'PPNP'
tp358
F38
s(S'PP'
S'APPPP'
tp359
F3
s(S'NP'
S'NAADP'
tp360
F2
s(S'DP'
p361
S'AADVP'
tp362
F5
s(S'NP'
S'NNNNCCP'
tp363
F1
s(S'AP'
S'ADVAAVP'
tp364
F1
s(S'CP'
p365
S'CDDADVPP'
tp366
F2
s(S'AP'
S'ADP'
tp367
F236
s(S'NP'
S'ADVADVADVNVP'
tp368
F1
s(S'PP'
S'APMP'
tp369
F1
s(S'DP'
S'DDPPPP'
tp370
F1
s(S'PP'
S'APVVP'
tp371
F1
s(S'PP'
S'APPAP'
tp372
F1
s(S'VP'
S'VVPPPP'
tp373
F1
s(S'VP'
S'AAAVDP'
tp374
F1
s(S'VP'
S'AVDP'
tp375
F17
s(S'NP'
S'ANNVP'
tp376
F1
s(S'VP'
p377
S'VVAP'
tp378
F15
s(S'NP'
S'NAVVP'
tp379
F1
s(S'CP'
S'ADVACDP'
tp380
F2
s(S'PP'
S'PPADVVP'
tp381
F1
s(S'VP'
S'AAVCP'
tp382
F1
s(g155
S'NPP'
tp383
F210
s(S'DP'
S'ADVADVADVDDPP'
tp384
F1
s(S'NP'
p385
S'NVP'
tp386
F261
s(S'PP'
S'PPAMP'
tp387
F1
s(S'NP'
p388
S'NNDDDP'
tp389
F1
s(S'PP'
S'PAAVP'
tp390
F2
s(S'NP'
S'NAAPP'
tp391
F3
s(S'VP'
S'VDDP'
tp392
F38
s(S'DP'
S'DAAAAP'
tp393
F1
s(S'AP'
p394
S'AAADVDP'
tp395
F2
s(S'NP'
S'AANNVP'
tp396
F1
s(S'DP'
S'DADVAPP'
tp397
F1
s(S'NP'
S'NADVADVVVP'
tp398
F2
s(g261
S'ANPP'
tp399
F37
s(g118
S'PPPPP'
tp400
F5
s(g79
S'MPDP'
tp401
F1
s(S'NP'
S'NNNPPPP'
tp402
F1
s(S'PP'
S'ADVADVPADP'
tp403
F1
s(g79
S'MVVPP'
tp404
F2
s(S'DP'
p405
S'ADVDPP'
tp406
F31
s(S'NP'
p407
S'NPPPP'
tp408
F2
s(S'AP'
S'AADVADVDP'
tp409
F2
s(S'CP'
S'CDDDADVPP'
tp410
F1
s(S'CP'
S'CAADPP'
tp411
F4
s(g101
S'DADVADVVP'
tp412
F2
s(S'NP'
p413
S'NAACP'
tp414
F5
s(S'VP'
p415
S'VVADVNP'
tp416
F2
s(g77
S'ADVNADVADVAAP'
tp417
F1
s(S'CP'
S'CDADVADVADVPPP'
tp418
F1
s(g104
S'APNNP'
tp419
F1
s(S'MP'
p420
S'MMNP'
tp421
F1
s(S'DP'
S'AAADPP'
tp422
F1
s(g152
S'AVAP'
tp423
F4
s(S'MP'
S'MMVP'
tp424
F10
s(S'PP'
S'PMMMMP'
tp425
F1
s(S'NP'
S'ADVNCP'
tp426
F10
s(S'DP'
S'DDADVADVPP'
tp427
F1
s(g236
S'ADPP'
tp428
F59
s(S'CP'
p429
S'ACDP'
tp430
F23
s(S'VP'
S'VCCP'
tp431
F5
s(S'AP'
S'ADVANP'
tp432
F4
s(S'NP'
S'NNACP'
tp433
F3
s(S'VP'
S'ADVVVAAP'
tp434
F1
s(S'NP'
S'ANNVVVP'
tp435
F1
s(S'CP'
S'CDADVPPP'
tp436
F2
s(S'VP'
S'VAP'
tp437
F159
s(S'VP'
S'VVVVNP'
tp438
F1
s(S'DP'
p439
S'DDDPP'
tp440
F5
s(S'NP'
S'AANNCP'
tp441
F1
s(S'PP'
S'PAAPP'
tp442
F1
s(g186
S'AAVVAAP'
tp443
F1
s(S'NP'
S'NADVADVAPP'
tp444
F1
s(S'DP'
S'DDDPPP'
tp445
F3
s(g256
S'ADAP'
tp446
F1
s(S'DP'
S'DADVDP'
tp447
F1
s(S'MP'
S'MVVCCP'
tp448
F1
s(g405
S'DDDAP'
tp449
F1
s(S'AP'
S'AAACP'
tp450
F2
s(S'VP'
S'ADVVVDP'
tp451
F2
s(S'PP'
p452
S'PPPVP'
tp453
F1
s(S'VP'
p454
S'AAVAP'
tp455
F1
s(S'AP'
S'AADDP'
tp456
F4
s(S'VP'
S'VADVADVADVCP'
tp457
F1
s(S'VP'
S'VAANP'
tp458
F5
s(S'DP'
S'DADVAMP'
tp459
F1
s(S'NP'
S'NADVADVCP'
tp460
F1
s(S'CP'
S'CCAAADP'
tp461
F1
s(S'PP'
S'ADVPNNP'
tp462
F2
s(S'DP'
S'ADVADVADVDVP'
tp463
F1
s(S'VP'
S'VVDP'
tp464
F31
s(g184
S'PADVADVPPP'
tp465
F2
s(S'VP'
S'VVAADP'
tp466
F1
s(S'MP'
S'MADP'
tp467
F2
s(S'AP'
S'AMMP'
tp468
F1
s(S'CP'
S'CCAADP'
tp469
F1
s(g71
S'PANP'
tp470
F30
s(S'PP'
S'PDDDP'
tp471
F4
s(S'NP'
S'ANNMP'
tp472
F1
s(S'MP'
S'MVVPPP'
tp473
F1
s(S'MP'
S'ADVAMVP'
tp474
F1
s(S'NP'
S'ADVANADVCP'
tp475
F1
s(S'AP'
S'AAVP'
tp476
F5
s(S'NP'
S'NAAP'
tp477
F8
s(g261
S'NDDP'
tp478
F7
s(S'PP'
S'PADVMP'
tp479
F3
s(S'AP'
S'ACCP'
tp480
F4
s(S'VP'
S'VVVVAP'
tp481
F1
s(g337
S'NDP'
tp482
F101
s(S'NP'
S'AAANVP'
tp483
F2
s(S'MP'
S'MVAAP'
tp484
F1
s(g339
S'DDVP'
tp485
F22
s(S'NP'
S'AANVP'
tp486
F7
s(S'MP'
S'MMMMDP'
tp487
F1
s(S'VP'
S'AAVVPP'
tp488
F1
s(S'VP'
S'VNNNP'
tp489
F1
s(S'PP'
S'PPPAAAP'
tp490
F1
s(g415
S'VADVADVPP'
tp491
F2
s(S'PP'
S'ADVPAP'
tp492
F6
s(S'PP'
S'APADVDP'
tp493
F1
s(g184
S'PCP'
tp494
F5
s(S'NP'
S'NNPPP'
tp495
F1
s(g28
S'PAADDP'
tp496
F1
s(g116
S'NADVADVADVADVCP'
tp497
F1
s(S'PP'
S'PAADP'
tp498
F4
s(S'MP'
S'MDNP'
tp499
F3
s(S'VP'
S'VPPPP'
tp500
F2
s(S'PP'
S'PACP'
tp501
F1
s(S'DP'
S'ADVADVADVDPPPP'
tp502
F1
s(S'AP'
S'ADVACP'
tp503
F6
s(S'NP'
S'AANVVVP'
tp504
F1
s(S'NP'
S'ADVADVNMP'
tp505
F2
s(g309
S'DDADVVP'
tp506
F1
s(S'DP'
S'ADPPP'
tp507
F5
s(S'MP'
S'MVCP'
tp508
F14
s(g365
S'CCDDP'
tp509
F9
s(g106
S'NNADVVP'
tp510
F3
s(S'MP'
S'MVMP'
tp511
F1
s(S'NP'
S'ADVANAP'
tp512
F1
s(S'PP'
S'PPAAP'
tp513
F1
s(g149
S'VVCP'
tp514
F12
s(S'NP'
S'AANCP'
tp515
F10
s(S'VP'
S'VAADP'
tp516
F3
s(S'PP'
S'APPP'
tp517
F8
s(g129
S'ADVVPP'
tp518
F7
s(S'VP'
S'ADVVVPPP'
tp519
F1
s(S'CP'
S'CADVADVADVDDPP'
tp520
F1
s(S'CP'
S'CDAPPP'
tp521
F1
s(g415
S'VNNP'
tp522
F24
s(S'AP'
S'AADVDP'
tp523
F3
s(S'NP'
S'NADP'
tp524
F4
s(S'PP'
S'AAAPPP'
tp525
F1
s(g439
S'DDNP'
tp526
F22
s(S'NP'
S'NADVCP'
tp527
F9
s(g313
S'DDNNP'
tp528
F6
s(S'PP'
S'AAPPP'
tp529
F3
s(g361
S'AADPP'
tp530
F12
s(g219
S'VVVAAP'
tp531
F1
s(S'NP'
S'NNNNPP'
tp532
F1
s(S'AP'
S'AAAADVDDP'
tp533
F1
s(S'AP'
S'AADVADVVP'
tp534
F2
s(S'NP'
S'ANVVVP'
tp535
F1
s(g324
S'DADVADVAP'
tp536
F1
s(S'MP'
S'MVVNP'
tp537
F1
s(g429
S'CDDADVPPP'
tp538
F1
s(S'DP'
S'ADVDNNP'
tp539
F1
s(S'CP'
S'ACDDP'
tp540
F1
s(S'NP'
S'ADVADVNNCP'
tp541
F1
s(S'AP'
S'ADVAAADP'
tp542
F1
s(S'DP'
S'ADADVANP'
tp543
F1
s(S'MP'
S'MAAVVAAP'
tp544
F1
s(S'MP'
p545
S'MVADVADVPP'
tp546
F1
s(S'DP'
S'DADVVVP'
tp547
F4
s(S'DP'
S'DAAAPP'
tp548
F1
s(S'NP'
S'NAPP'
tp549
F12
s(S'NP'
S'NADVDP'
tp550
F1
s(S'DP'
S'DDNNNNNP'
tp551
F1
s(g127
S'VVVCP'
tp552
F2
s(S'NP'
S'ANCCP'
tp553
F2
s(S'NP'
S'AANPP'
tp554
F6
s(S'VP'
S'VDDDP'
tp555
F7
s(g77
S'NNMP'
tp556
F12
s(S'DP'
S'DDDVP'
tp557
F2
s(S'CP'
S'CADDPP'
tp558
F2
s(S'PP'
S'PAAAP'
tp559
F2
s(g281
S'ADVADVPNP'
tp560
F3
s(S'VP'
S'ADVAAAVDDP'
tp561
F1
s(S'CP'
S'CDDAPP'
tp562
F4
s(S'NP'
S'ANAP'
tp563
F3
s(S'MP'
S'MVAP'
tp564
F7
s(g16
S'PVP'
tp565
F220
s(S'AP'
S'ADVADVAPP'
tp566
F1
s(S'AP'
S'AADVDDP'
tp567
F1
s(S'NP'
S'ANNCP'
tp568
F1
s(S'VP'
S'VAVP'
tp569
F1
s(S'DP'
S'ADVADVADVDNP'
tp570
F1
s(S'PP'
S'PPDDP'
tp571
F3
s(S'VP'
S'AVCP'
tp572
F6
s(S'DP'
p573
S'DDVVVP'
tp574
F1
s(g229
S'CADVDDPPP'
tp575
F1
s(g18
S'DPP'
tp576
F392
s(S'DP'
S'ADVVP'
tp577
F1
s(g92
S'ADVNVP'
tp578
F5
s(g347
S'DDPP'
tp579
F72
s(g256
S'DDADVPPP'
tp580
F1
s(S'DP'
S'DADVADVANNP'
tp581
F1
s(S'DP'
S'DANP'
tp582
F74
s(S'AP'
S'ADVAMP'
tp583
F2
s(S'NP'
S'NADVPP'
tp584
F2
s(S'NP'
S'ADVADVANNDP'
tp585
F1
s(S'MP'
S'MAAAP'
tp586
F1
s(g413
S'NADVADP'
tp587
F1
s(S'DP'
S'DDANP'
tp588
F3
s(S'NP'
S'NAAVP'
tp589
F1
s(S'DP'
S'AADNP'
tp590
F3
s(g415
S'VADVCP'
tp591
F3
s(g86
S'PMMMP'
tp592
F1
s(S'NP'
S'NADVCCP'
tp593
F1
s(S'DP'
p594
S'ADDPPP'
tp595
F1
s(g77
S'NNNVVP'
tp596
F1
s(g167
S'NNP'
tp597
F3
s(S'DP'
S'DCCP'
tp598
F1
s(S'PP'
S'ADVADVPPP'
tp599
F1
s(S'PP'
S'ADVPAAAP'
tp600
F1
s(S'PP'
S'AAPDP'
tp601
F4
s(g64
S'VVVAP'
tp602
F1
s(g231
S'PDDP'
tp603
F38
s(S'MP'
S'MMMMAP'
tp604
F1
s(S'MP'
S'MVDDP'
tp605
F1
s(S'NP'
S'NNNADVVP'
tp606
F1
s(S'NP'
S'NNVP'
tp607
F35
s(S'CP'
S'AACDDDP'
tp608
F1
s(S'VP'
S'VVDDP'
tp609
F1
s(S'DP'
S'DAANP'
tp610
F17
s(S'AP'
S'ADDP'
tp611
F18
s(S'VP'
S'VVADVANP'
tp612
F1
s(S'CP'
S'CDDAAAPP'
tp613
F2
s(g205
S'PNNNNP'
tp614
F1
s(g202
S'ADVPPNP'
tp615
F3
s(S'MP'
S'MADVADVVDP'
tp616
F1
s(S'CP'
S'CADVADVDPP'
tp617
F1
s(S'CP'
S'ADVADVADVCDP'
tp618
F1
s(g18
S'DPPP'
tp619
F68
s(S'DP'
S'DAVVP'
tp620
F1
s(g31
S'AADPPP'
tp621
F1
s(S'VP'
S'VANNP'
tp622
F1
s(S'NP'
S'NNAVP'
tp623
F3
s(S'NP'
p624
S'NMMMP'
tp625
F1
s(S'PP'
S'PPPANP'
tp626
F1
s(g60
S'ADVPNP'
tp627
F7
s(g86
S'PPDP'
tp628
F41
s(S'CP'
S'CADDPPP'
tp629
F1
s(S'PP'
S'ADVADVADVPVP'
tp630
F1
s(S'NP'
S'AANMP'
tp631
F1
s(S'DP'
S'DADVADVCP'
tp632
F1
s(S'DP'
S'DDCP'
tp633
F1
s(g624
S'NAAAVVP'
tp634
F1
s(S'DP'
S'AADDNP'
tp635
F1
s(S'NP'
S'ANADVADVVP'
tp636
F1
s(S'PP'
S'PAANNP'
tp637
F1
s(S'PP'
S'PPADVDDP'
tp638
F1
s(S'AP'
S'ADVADVAADP'
tp639
F3
s(S'NP'
S'NAP'
tp640
F79
s(S'DP'
p641
S'AADDP'
tp642
F1
s(S'VP'
S'VAAAP'
tp643
F1
s(S'VP'
S'VADVANP'
tp644
F1
s(S'VP'
S'ADVAVNP'
tp645
F1
s(g55
S'VVP'
tp646
F27
s(g317
S'DDAPP'
tp647
F8
s(S'PP'
S'ADVADVPVP'
tp648
F1
s(S'AP'
S'AAADP'
tp649
F9
s(S'AP'
S'ACCCP'
tp650
F1
s(g281
S'APNP'
tp651
F26
s(S'VP'
S'VVVNNP'
tp652
F1
s(g573
S'DDVVP'
tp653
F3
s(g213
S'VVVNP'
tp654
F4
s(g452
S'PPADVADVADVDP'
tp655
F2
s(S'VP'
S'AVPPPP'
tp656
F1
s(S'NP'
S'NNAAAVP'
tp657
F1
s(g641
S'ADVADVDDPP'
tp658
F1
s(g192
S'MVNNP'
tp659
F1
s(g24
S'CDPP'
tp660
F346
s(S'AP'
S'ADDDP'
tp661
F1
s(S'MP'
S'MMMVP'
tp662
F2
s(g278
S'ADVCDP'
tp663
F15
s(S'AP'
S'ADVAAP'
tp664
F1
s(S'VP'
S'ADVADVVNP'
tp665
F4
s(S'VP'
S'ADVADVVCP'
tp666
F2
s(g184
S'PPNNP'
tp667
F5
s(S'PP'
S'ADVAPPP'
tp668
F2
s(S'AP'
S'ADVACCP'
tp669
F1
s(g131
S'PPMP'
tp670
F2
s(S'DP'
S'ADVADVDPP'
tp671
F1
s(g377
S'VDP'
tp672
F243
s(S'PP'
S'PPPADVNP'
tp673
F1
s(g407
S'NADVAP'
tp674
F3
s(S'VP'
S'AVDDP'
tp675
F1
s(S'DP'
S'DADVNP'
tp676
F4
s(g347
S'DAP'
tp677
F42
s(S'MP'
S'MCADP'
tp678
F1
s(S'CP'
S'CADPP'
tp679
F36
s(S'PP'
S'PPAVP'
tp680
F2
s(g452
S'PAAAANP'
tp681
F1
s(S'VP'
S'AVPP'
tp682
F10
s(g594
S'DDNNNNP'
tp683
F1
s(g454
S'VVADVDP'
tp684
F1
s(S'CP'
S'CDADVADVPP'
tp685
F3
s(S'CP'
S'CDPPPP'
tp686
F8
s(g137
S'VADVADVCCP'
tp687
F1
s(S'VP'
S'AAVDP'
tp688
F3
s(g171
S'PANNP'
tp689
F3
s(S'DP'
S'ADPPPP'
tp690
F1
s(S'DP'
p691
S'DAPPP'
tp692
F2
s(S'DP'
S'DADVADVPP'
tp693
F4
s(S'DP'
S'DMP'
tp694
F5
s(g181
S'PPPNP'
tp695
F6
s(S'NP'
S'NADVADVDP'
tp696
F1
s(S'CP'
S'ADVADVADVADVCDP'
tp697
F1
s(S'PP'
S'PADVADVNP'
tp698
F2
s(S'VP'
S'ADVADVVAP'
tp699
F1
s(g264
S'AADP'
tp700
F46
s(S'NP'
S'NNADVVVP'
tp701
F1
s(S'VP'
S'VADVPP'
tp702
F3
s(S'CP'
S'CCADVDDP'
tp703
F1
s(S'PP'
S'PVVVVP'
tp704
F1
s(g41
S'ADVPVP'
tp705
F6
s(g691
S'DDDDPP'
tp706
F2
s(S'NP'
S'NNVVVP'
tp707
F3
s(S'PP'
S'ADVPDP'
tp708
F6
s(S'NP'
S'ANNPP'
tp709
F1
s(g420
S'MVADVAP'
tp710
F1
s(g155
S'NCP'
tp711
F273
s(S'CP'
S'CADVDPPP'
tp712
F1
s(S'VP'
S'ADVVVPP'
tp713
F4
s(S'NP'
S'ADVANDP'
tp714
F2
s(g394
S'AAAP'
tp715
F3
s(S'CP'
S'CDDADVADVPP'
tp716
F1
s(S'AP'
S'AAMP'
tp717
F2
s(S'NP'
S'AANDP'
tp718
F2
s(S'MP'
S'MVCCP'
tp719
F1
s(g329
S'NNCCP'
tp720
F7
s(g545
S'MNVP'
tp721
F5
s(S'NP'
S'AANAP'
tp722
F2
s(S'CP'
S'ADVADVCCDP'
tp723
F1
s(g45
S'VAPP'
tp724
F4
s(g388
S'NCCCP'
tp725
F1
s(g219
S'ADVVDP'
tp726
F7
s(S'VP'
S'VADDP'
tp727
F1
s(S'DP'
S'DADVPP'
tp728
F19
s(S'AP'
S'AMP'
tp729
F6
s(S'CP'
S'CCADP'
tp730
F3
s(S'DP'
S'ADVDAP'
tp731
F1
s(g111
S'ADVAPP'
tp732
F8
s(S'DP'
S'DDADVAPP'
tp733
F1
s(S'CP'
S'CDDADVAPP'
tp734
F1
s(S'CP'
S'AACDP'
tp735
F3
s(S'MP'
S'MADVVNNP'
tp736
F1
s(S'DP'
S'ADVDPPP'
tp737
F1
s(S'DP'
S'DVP'
tp738
F258
s(S'NP'
S'ADVNPP'
tp739
F3
s(S'NP'
S'NNCCCP'
tp740
F1
s(S'PP'
S'PADVADVDDP'
tp741
F1
s(S'AP'
S'AVP'
tp742
F26
s(g385
S'NADVVP'
tp743
F13
s(S'NP'
S'NNADVADVVP'
tp744
F1
s(S'VP'
S'AAAVVDP'
tp745
F1
s(S'DP'
S'DDPPP'
tp746
F8
s(S'NP'
S'ADVNMP'
tp747
F1
s(S'NP'
S'NNAP'
tp748
F8
s(g152
S'VVVDP'
tp749
F1
s(S'PP'
S'PPANP'
tp750
F2
s(S'CP'
S'CDADVPP'
tp751
F9
s(S'VP'
S'VNP'
tp752
F180
s(g334
S'VANP'
tp753
F9
s(S'VP'
S'VADVAP'
tp754
F11
s(S'DP'
S'DDDANP'
tp755
F2
s(S'PP'
S'PPADVNP'
tp756
F1
s.