ccollections
defaultdict
p1
(c__builtin__
float
p2
tRp3
(S'DP'
p4
S'DDPP'
tp5
F20
s(S'PP'
p6
S'PPCP'
tp7
F2
s(S'AP'
S'AVVP'
tp8
F1
s(S'DP'
S'DANP'
tp9
F20
s(S'VP'
S'ADVVNP'
tp10
F2
s(g4
S'AADDNP'
tp11
F1
s(S'NP'
S'ANPP'
tp12
F7
s(S'PP'
p13
S'PPPPP'
tp14
F2
s(S'VP'
p15
S'VPPPPP'
tp16
F1
s(S'PP'
p17
S'ADVADVPPNP'
tp18
F1
s(S'VP'
p19
S'VVNP'
tp20
F6
s(g6
S'PPVP'
tp21
F8
s(S'VP'
S'ADVVVNP'
tp22
F2
s(S'NP'
p23
S'NPPPP'
tp24
F1
s(S'DP'
S'AADNP'
tp25
F1
s(S'VP'
S'VAAP'
tp26
F2
s(S'VP'
p27
S'VADVNP'
tp28
F1
s(g17
S'PAPP'
tp29
F2
s(S'CP'
S'CAADPP'
tp30
F2
s(S'NP'
p31
S'ANDP'
tp32
F1
s(S'NP'
p33
S'NVVP'
tp34
F4
s(S'DP'
p35
S'DNP'
tp36
F47
s(g33
S'NAACP'
tp37
F1
s(S'CP'
S'CCCCDP'
tp38
F1
s(S'PP'
p39
S'PNNP'
tp40
F8
s(S'AP'
S'ADVACP'
tp41
F1
s(S'NP'
p42
S'ADVNDP'
tp43
F1
s(S'CP'
p44
S'CDAPP'
tp45
F7
s(S'VP'
p46
S'VVAAP'
tp47
F1
s(S'CP'
S'CDPPP'
tp48
F9
s(S'DP'
S'ADPPP'
tp49
F2
s(S'DP'
p50
S'ADNP'
tp51
F6
s(S'MP'
S'MMVP'
tp52
F4
s(S'PP'
S'PADVDDP'
tp53
F2
s(S'PP'
p54
S'PADP'
tp55
F4
s(g27
S'VADVADVPPP'
tp56
F1
s(S'PP'
p57
S'AAPDP'
tp58
F1
s(S'AP'
S'AADP'
tp59
F5
s(S'PP'
p60
S'PPPPPP'
tp61
F1
s(g54
S'PDDP'
tp62
F9
s(S'CP'
p63
S'ACDP'
tp64
F6
s(S'NP'
S'NDDP'
tp65
F1
s(S'PP'
S'PAAP'
tp66
F1
s(S'DP'
p67
S'ADNNP'
tp68
F2
s(S'AP'
S'ADVANP'
tp69
F1
s(S'NP'
S'NNVP'
tp70
F4
s(g60
S'PPPPVP'
tp71
F1
s(g35
S'DAPP'
tp72
F14
s(S'VP'
p73
S'VAP'
tp74
F18
s(S'PP'
S'APVP'
tp75
F1
s(S'VP'
S'ADVADVVPP'
tp76
F1
s(S'MP'
S'MVDP'
tp77
F6
s(S'DP'
S'DDDPP'
tp78
F1
s(S'PP'
p79
S'PPPP'
tp80
F7
s(S'DP'
p81
S'DDDP'
tp82
F1
s(S'VP'
p83
S'VVDDP'
tp84
F1
s(S'DP'
S'DAVP'
tp85
F6
s(S'VP'
S'VACP'
tp86
F2
s(g54
S'PPPDP'
tp87
F3
s(S'AP'
S'ADDP'
tp88
F6
s(S'NP'
S'ADVNCP'
tp89
F1
s(S'NP'
p90
S'NNPPPPP'
tp91
F1
s(g81
S'DADVVP'
tp92
F2
s(g31
S'ANNCP'
tp93
F1
s(S'PP'
p94
S'ADVPPNP'
tp95
F1
s(S'DP'
p96
S'DANNP'
tp97
F1
s(g79
S'PADVADVADP'
tp98
F1
s(S'VP'
S'ADVADVVAAP'
tp99
F1
s(S'DP'
S'DPPP'
tp100
F14
s(S'DP'
p101
S'ADVDNP'
tp102
F1
s(S'VP'
p103
S'VVPP'
tp104
F5
s(S'NP'
p105
S'NMMP'
tp106
F3
s(S'PP'
S'PPADVVVP'
tp107
F1
s(g96
S'DPPPP'
tp108
F1
s(S'MP'
S'MVPP'
tp109
F2
s(S'DP'
p110
S'ADVP'
tp111
F2
s(g54
S'PAP'
tp112
F23
s(g19
S'AVDP'
tp113
F9
s(S'NP'
S'NNPP'
tp114
F2
s(S'PP'
S'APVVP'
tp115
F3
s(S'NP'
p116
S'ANVP'
tp117
F4
s(S'PP'
p118
S'PNP'
tp119
F37
s(g19
S'VVADVADVNP'
tp120
F1
s(S'VP'
S'AVVP'
tp121
F1
s(g79
S'PPDP'
tp122
F7
s(S'DP'
p123
S'DDP'
tp124
F13
s(g67
S'ADVDDVP'
tp125
F3
s(S'PP'
p126
S'PANP'
tp127
F2
s(S'VP'
S'ADVVDDP'
tp128
F1
s(S'PP'
S'PADVADVVP'
tp129
F1
s(S'NP'
S'NNDP'
tp130
F2
s(g13
S'PVVVP'
tp131
F2
s(g6
S'PAANNP'
tp132
F1
s(S'DP'
p133
S'ADVADVADNP'
tp134
F1
s(g42
S'NAAP'
tp135
F1
s(S'AP'
S'ACP'
tp136
F5
s(g63
S'CCDP'
tp137
F9
s(S'NP'
p138
S'NAP'
tp139
F16
s(S'NP'
S'NMP'
tp140
F8
s(S'CP'
S'CDDDPP'
tp141
F1
s(S'CP'
S'CDAAPP'
tp142
F1
s(g90
S'NDP'
tp143
F11
s(g19
S'VVVDP'
tp144
F4
s(S'PP'
p145
S'PNNNP'
tp146
F1
s(g4
S'DVP'
tp147
F40
s(S'VP'
S'VVP'
tp148
F6
s(g133
S'DDVP'
tp149
F9
s(S'PP'
S'PDP'
tp150
F52
s(g46
S'VAAPPP'
tp151
F1
s(S'PP'
p152
S'ADVADVPVP'
tp153
F1
s(S'AP'
p154
S'AACCP'
tp155
F1
s(g118
S'APNP'
tp156
F8
s(g154
S'AAADDP'
tp157
F1
s(g118
S'PPP'
tp158
F16
s(S'NP'
S'NAVP'
tp159
F2
s(S'PP'
S'ADVPAP'
tp160
F1
s(S'VP'
p161
S'AVPPPP'
tp162
F1
s(S'NP'
S'NAMP'
tp163
F1
s(S'NP'
S'AANVVP'
tp164
F1
s(S'VP'
S'AVPP'
tp165
F2
s(S'PP'
p166
S'PCP'
tp167
F2
s(g145
S'PAADDP'
tp168
F1
s(g63
S'CDPP'
tp169
F49
s(g60
S'PAADP'
tp170
F1
s(S'VP'
S'VMP'
tp171
F1
s(S'NP'
S'NAAAP'
tp172
F1
s(g118
S'PACP'
tp173
F1
s(g118
S'PPPPDP'
tp174
F2
s(S'MP'
S'MADVADVVPP'
tp175
F1
s(S'DP'
S'ADVADVDNP'
tp176
F1
s(S'VP'
p177
S'VPP'
tp178
F30
s(g90
S'NACP'
tp179
F8
s(S'CP'
S'ADVCCDP'
tp180
F1
s(g90
S'NCCP'
tp181
F6
s(S'CP'
S'ADVCDP'
tp182
F1
s(g138
S'NNNCP'
tp183
F1
s(S'PP'
S'PADVDP'
tp184
F2
s(g33
S'NNCP'
tp185
F10
s(S'PP'
S'PADVADVDP'
tp186
F1
s(S'VP'
p187
S'VCP'
tp188
F16
s(S'CP'
S'CDDPP'
tp189
F10
s(S'DP'
p190
S'DAAPP'
tp191
F1
s(g57
S'PVVP'
tp192
F8
s(S'CP'
S'CADPPP'
tp193
F2
s(S'AP'
S'AACP'
tp194
F1
s(g187
S'AVNP'
tp195
F1
s(S'VP'
S'ADVVCP'
tp196
F1
s(S'VP'
S'VPPP'
tp197
F2
s(g166
S'PPAAP'
tp198
F1
s(S'VP'
S'AVDDP'
tp199
F2
s(g101
S'DADVNP'
tp200
F1
s(S'VP'
S'VVCP'
tp201
F1
s(g35
S'DAP'
tp202
F7
s(S'CP'
S'CADPP'
tp203
F8
s(g152
S'PADVADVPP'
tp204
F1
s(S'PP'
S'PPAVP'
tp205
F1
s(S'VP'
S'VDP'
tp206
F52
s(g190
S'DVVP'
tp207
F9
s(S'NP'
S'AANVP'
tp208
F1
s(S'VP'
S'VVVP'
tp209
F1
s(S'NP'
S'NNDDP'
tp210
F1
s(g116
S'NADVCCP'
tp211
F1
s(S'NP'
S'ANMP'
tp212
F1
s(S'PP'
S'PPAP'
tp213
F3
s(g39
S'ADVPPP'
tp214
F1
s(g126
S'PMP'
tp215
F1
s(S'NP'
S'ADVADVNVP'
tp216
F1
s(g177
S'VNNP'
tp217
F3
s(S'DP'
S'DDPPPP'
tp218
F1
s(S'CP'
S'CCCDP'
tp219
F1
s(g35
S'DDNP'
tp220
F9
s(S'NP'
S'NADVCP'
tp221
F1
s(g105
S'ANCP'
tp222
F13
s(g54
S'APDP'
tp223
F9
s(g133
S'DMP'
tp224
F1
s(S'DP'
S'DCP'
tp225
F1
s(S'DP'
S'ADVDPP'
tp226
F1
s(g50
S'DVVVP'
tp227
F3
s(g73
S'VADP'
tp228
F6
s(S'DP'
p229
S'ADPP'
tp230
F8
s(g90
S'NVP'
tp231
F35
s(S'CP'
S'CDDPPP'
tp232
F2
s(g50
S'DDADVPP'
tp233
F1
s(g110
S'AADPP'
tp234
F2
s(S'NP'
S'ANVVP'
tp235
F1
s(g94
S'ADVPVP'
tp236
F1
s(g161
S'VVDP'
tp237
F8
s(S'PP'
S'ADVADVADVPDP'
tp238
F1
s(g138
S'NPPP'
tp239
F3
s(S'DP'
S'DADVADVADVPP'
tp240
F1
s(S'MP'
S'AMVVP'
tp241
F1
s(S'PP'
p242
S'ADVPDP'
tp243
F1
s(g33
S'ADVNNPP'
tp244
F1
s(S'DP'
S'DNNP'
tp245
F9
s(g90
S'NCP'
tp246
F41
s(S'CP'
S'CDDPPPP'
tp247
F1
s(g6
S'PPNP'
tp248
F3
s(S'DP'
S'ADVVP'
tp249
F1
s(g13
S'AAPPDDP'
tp250
F1
s(S'CP'
S'ACDDP'
tp251
F3
s(S'AP'
S'AAPP'
tp252
F3
s(S'VP'
S'VVCCP'
tp253
F1
s(g110
S'DMMP'
tp254
F1
s(S'NP'
p255
S'AANDP'
tp256
F1
s(g123
S'DADVNNP'
tp257
F2
s(S'PP'
S'PADVVP'
tp258
F1
s(S'MP'
S'MNVP'
tp259
F2
s(S'CP'
S'CDDADVPP'
tp260
F1
s(S'AP'
S'ADP'
tp261
F45
s(g23
S'NAPP'
tp262
F5
s(S'AP'
S'APP'
tp263
F6
s(S'CP'
S'CADVDPP'
tp264
F1
s(g15
S'VAVP'
tp265
F2
s(g123
S'DADVPP'
tp266
F3
s(g15
S'AVCP'
tp267
F1
s(S'NP'
S'NNMP'
tp268
F1
s(S'AP'
S'AAADVDDP'
tp269
F1
s(S'NP'
S'ADVNNCP'
tp270
F1
s(S'PP'
S'APADVVVP'
tp271
F1
s(S'PP'
S'PAANP'
tp272
F2
s(S'PP'
S'PPPAP'
tp273
F1
s(g44
S'AACDP'
tp274
F1
s(g13
S'PPVVP'
tp275
F1
s(g255
S'ANAP'
tp276
F1
s(S'VP'
S'VVAP'
tp277
F3
s(S'MP'
S'MVAP'
tp278
F1
s(g118
S'PVP'
tp279
F41
s(g103
S'VADVPPP'
tp280
F1
s(S'DP'
S'ADVDAANP'
tp281
F1
s(S'AP'
S'AVP'
tp282
F2
s(S'NP'
S'NADVVP'
tp283
F1
s(S'VP'
S'VCCCP'
tp284
F1
s(g145
S'PAVP'
tp285
F6
s(g229
S'DDPPP'
tp286
F3
s(S'NP'
S'NNAP'
tp287
F1
s(g90
S'NPP'
tp288
F40
s(S'VP'
S'VAPP'
tp289
F2
s(g73
S'VVVPP'
tp290
F2
s(S'PP'
S'PPVVVP'
tp291
F1
s(g83
S'VCCCCP'
tp292
F1
s(S'CP'
S'CDADVPP'
tp293
F2
s(g177
S'VNP'
tp294
F19
s(S'VP'
S'VANP'
tp295
F4
s(g177
S'VDDP'
tp296
F5
s(g145
S'PPDDP'
tp297
F1
s(S'VP'
S'VADVAP'
tp298
F1
s(S'PP'
S'APDDP'
tp299
F1
s(g35
S'DPP'
tp300
F61
s(S'NP'
S'AANNVP'
tp301
F1
s(g242
S'APPP'
tp302
F2
s.