ccollections
defaultdict
p1
(c__builtin__
float
p2
tRp3
(S'DP'
p4
S'DDPP'
tp5
F16
s(S'DP'
p6
S'DANP'
tp7
F10
s(S'NP'
p8
S'NADVPP'
tp9
F2
s(S'NP'
p10
S'ANPP'
tp11
F6
s(S'VP'
p12
S'VVNP'
tp13
F8
s(S'PP'
p14
S'PPPNNP'
tp15
F1
s(S'PP'
S'PPPNP'
tp16
F1
s(S'PP'
p17
S'PPVP'
tp18
F6
s(S'NP'
p19
S'NPPPP'
tp20
F1
s(S'DP'
p21
S'ADDP'
tp22
F1
s(S'PP'
S'PDDDP'
tp23
F1
s(S'VP'
S'VAAP'
tp24
F4
s(S'PP'
p25
S'PAPP'
tp26
F2
s(S'CP'
S'CAADPP'
tp27
F1
s(g14
S'PADVNP'
tp28
F3
s(S'NP'
p29
S'NVVP'
tp30
F11
s(S'DP'
p31
S'DNP'
tp32
F46
s(S'NP'
S'NAACP'
tp33
F1
s(S'VP'
p34
S'VMP'
tp35
F1
s(S'CP'
p36
S'CDAPP'
tp37
F7
s(S'MP'
S'ADVADVADVADVMVP'
tp38
F1
s(S'VP'
S'AVCP'
tp39
F1
s(S'CP'
p40
S'CDPPP'
tp41
F13
s(g31
S'ADNP'
tp42
F3
s(S'PP'
p43
S'ADVPPANP'
tp44
F1
s(S'VP'
p45
S'VADP'
tp46
F3
s(S'DP'
p47
S'DNNNNP'
tp48
F1
s(g25
S'PADP'
tp49
F5
s(S'NP'
p50
S'ADVNCP'
tp51
F2
s(S'PP'
p52
S'AAPDP'
tp53
F1
s(S'DP'
p54
S'ADVADPP'
tp55
F2
s(S'AP'
S'ADVAVP'
tp56
F1
s(S'AP'
p57
S'AAAADVADVCP'
tp58
F1
s(S'PP'
p59
S'PDDP'
tp60
F6
s(S'CP'
S'ACDP'
tp61
F8
s(S'VP'
p62
S'VCCP'
tp63
F2
s(S'DP'
S'ADNNP'
tp64
F2
s(S'AP'
S'ADVANP'
tp65
F1
s(S'NP'
S'NNVP'
tp66
F3
s(S'NP'
p67
S'ADVNNCP'
tp68
F1
s(g4
S'DAPP'
tp69
F9
s(S'VP'
S'VAP'
tp70
F16
s(S'PP'
p71
S'APVP'
tp72
F6
s(S'MP'
S'MVDP'
tp73
F6
s(S'PP'
p74
S'PPPP'
tp75
F4
s(g52
S'PAAPP'
tp76
F2
s(S'DP'
p77
S'DAANP'
tp78
F2
s(g8
S'NNNPPP'
tp79
F1
s(S'AP'
S'ADDP'
tp80
F2
s(g57
S'ADVADVADVAAPP'
tp81
F1
s(S'DP'
S'DDDPPP'
tp82
F1
s(S'PP'
p83
S'PADVNNP'
tp84
F1
s(S'VP'
S'VVANP'
tp85
F1
s(S'DP'
p86
S'DADVANP'
tp87
F1
s(S'NP'
S'NADVACP'
tp88
F1
s(g31
S'DPPP'
tp89
F21
s(S'DP'
S'ADVDNP'
tp90
F2
s(S'AP'
S'AADDP'
tp91
F2
s(S'PP'
S'PPNNP'
tp92
F2
s(S'CP'
S'ADVADVADVCCDP'
tp93
F1
s(S'VP'
p94
S'VADVADVADVPP'
tp95
F1
s(S'PP'
p96
S'ADVPDP'
tp97
F2
s(S'CP'
S'AACDDP'
tp98
F1
s(S'DP'
S'DADVAAP'
tp99
F1
s(g31
S'ADVP'
tp100
F2
s(g25
S'PAP'
tp101
F20
s(S'NP'
p102
S'NADVADVCP'
tp103
F1
s(S'VP'
p104
S'VADVADVAP'
tp105
F1
s(S'PP'
S'ADVPNP'
tp106
F2
s(S'PP'
p107
S'PPDP'
tp108
F2
s(S'VP'
p109
S'VVDP'
tp110
F13
s(S'VP'
S'VADVDP'
tp111
F2
s(S'NP'
S'NNNADVVP'
tp112
F1
s(S'MP'
S'MVVDP'
tp113
F2
s(S'CP'
S'CDDAPP'
tp114
F1
s(g52
S'PNP'
tp115
F44
s(S'NP'
S'ANDP'
tp116
F1
s(S'MP'
S'MVADVDP'
tp117
F1
s(S'DP'
p118
S'DNNNP'
tp119
F1
s(g77
S'DDP'
tp120
F8
s(S'MP'
S'MVVAP'
tp121
F1
s(g59
S'PANP'
tp122
F4
s(g52
S'PAAP'
tp123
F3
s(g59
S'PMP'
tp124
F5
s(S'AP'
S'AAVP'
tp125
F1
s(S'AP'
S'AVVP'
tp126
F3
s(S'CP'
S'CCDP'
tp127
F12
s(g36
S'ADVADVCDP'
tp128
F1
s(S'NP'
S'NAP'
tp129
F10
s(S'VP'
p130
S'VADVANP'
tp131
F2
s(S'VP'
S'VPPP'
tp132
F2
s(g50
S'NMP'
tp133
F7
s(S'NP'
S'NVVVP'
tp134
F1
s(S'AP'
S'APPPP'
tp135
F1
s(S'NP'
p136
S'NDP'
tp137
F10
s(S'VP'
S'VVVDP'
tp138
F2
s(S'PP'
S'PNNNP'
tp139
F1
s(g71
S'PVP'
tp140
F38
s(S'VP'
p141
S'VVP'
tp142
F5
s(g6
S'DDVP'
tp143
F4
s(g25
S'PDP'
tp144
F50
s(S'DP'
S'DDAPP'
tp145
F1
s(S'MP'
S'MVNP'
tp146
F2
s(S'AP'
S'AADP'
tp147
F5
s(S'NP'
p148
S'AANVP'
tp149
F1
s(S'AP'
S'AADVADVADVCCP'
tp150
F1
s(g52
S'PPP'
tp151
F22
s(S'AP'
S'ADVAACCP'
tp152
F1
s(S'NP'
S'NAVP'
tp153
F1
s(g74
S'ADVPAP'
tp154
F1
s(S'PP'
p155
S'PCP'
tp156
F2
s(g130
S'VVCP'
tp157
F1
s(S'PP'
S'PADVPP'
tp158
F1
s(S'CP'
S'CDPP'
tp159
F50
s(g136
S'ADVNNVP'
tp160
F1
s(g118
S'ADVDVP'
tp161
F1
s(S'NP'
S'NADVCCP'
tp162
F1
s(S'VP'
S'VVDDP'
tp163
F1
s(S'NP'
S'NNDP'
tp164
F2
s(S'VP'
S'VCP'
tp165
F16
s(S'CP'
S'CADPP'
tp166
F5
s(S'VP'
p167
S'VPP'
tp168
F28
s(g50
S'NACP'
tp169
F8
s(S'CP'
S'ADVCCDP'
tp170
F1
s(g10
S'NCCP'
tp171
F8
s(S'CP'
S'ADVCDP'
tp172
F2
s(g155
S'AAPVVP'
tp173
F1
s(g77
S'DDADVDP'
tp174
F1
s(g43
S'PADVDP'
tp175
F1
s(g102
S'NNCP'
tp176
F9
s(S'CP'
S'CDDDPPP'
tp177
F1
s(S'MP'
S'MVCP'
tp178
F1
s(g141
S'VVPP'
tp179
F4
s(S'MP'
S'MADVVAP'
tp180
F1
s(S'NP'
S'NNNCP'
tp181
F1
s(g36
S'CDDPP'
tp182
F13
s(S'PP'
S'PVVP'
tp183
F2
s(S'AP'
p184
S'AACP'
tp185
F4
s(g109
S'AVNP'
tp186
F1
s(S'NP'
S'NAAP'
tp187
F1
s(g12
S'VDP'
tp188
F44
s(S'VP'
S'AVCCP'
tp189
F1
s(S'NP'
S'NNVVP'
tp190
F2
s(S'VP'
S'AVDDP'
tp191
F1
s(S'CP'
p192
S'ADVADVCDDP'
tp193
F1
s(g45
S'VVPPP'
tp194
F1
s(S'DP'
S'DAP'
tp195
F3
s(g54
S'DADVADP'
tp196
F1
s(S'NP'
p197
S'AANCP'
tp198
F1
s(g109
S'VADVNP'
tp199
F1
s(S'DP'
S'DVVP'
tp200
F6
s(S'PP'
S'APNP'
tp201
F1
s(S'PP'
p202
S'PPDDDP'
tp203
F1
s(S'VP'
S'AVPP'
tp204
F2
s(g96
S'PPAP'
tp205
F2
s(S'NP'
S'ADVANVVP'
tp206
F1
s(g62
S'VVVP'
tp207
F2
s(S'VP'
S'VNNP'
tp208
F2
s(S'CP'
S'CADVDPP'
tp209
F3
s(S'AP'
S'AADVDP'
tp210
F1
s(S'DP'
S'DDDNP'
tp211
F1
s(g29
S'NADP'
tp212
F1
s(g104
S'ADVVAP'
tp213
F1
s(g4
S'DDNP'
tp214
F8
s(g107
S'APPP'
tp215
F2
s(g4
S'DDNNP'
tp216
F2
s(g29
S'ANCP'
tp217
F10
s(g25
S'APDP'
tp218
F6
s(S'PP'
S'PPVVP'
tp219
F1
s(g54
S'DCP'
tp220
F3
s(g77
S'ADVDPP'
tp221
F4
s(S'DP'
S'DVVVP'
tp222
F1
s(S'DP'
S'ADPP'
tp223
F9
s(g118
S'DDDP'
tp224
F2
s(S'CP'
S'CDDPPP'
tp225
F1
s(S'DP'
S'DDADVPP'
tp226
F2
s(g47
S'AADPP'
tp227
F1
s(S'VP'
S'VVVVDP'
tp228
F1
s(S'NP'
S'NADVCP'
tp229
F2
s(g4
S'DDDDPP'
tp230
F1
s(g83
S'ADVADVADVPDP'
tp231
F1
s(g29
S'NPPP'
tp232
F1
s(S'AP'
S'AAVVP'
tp233
F1
s(S'DP'
S'DAAP'
tp234
F2
s(g86
S'DAVP'
tp235
F3
s(S'NP'
S'ADVANCP'
tp236
F1
s(S'DP'
S'DNNP'
tp237
F5
s(g29
S'NCP'
tp238
F44
s(g40
S'CCADVDP'
tp239
F1
s(g167
S'AAVDDP'
tp240
F1
s(g25
S'PPNP'
tp241
F11
s(S'NP'
S'NNNVP'
tp242
F1
s(g21
S'ADVDNNP'
tp243
F1
s(S'CP'
S'ACDDP'
tp244
F1
s(g19
S'NADVADVADVADVMP'
tp245
F1
s(S'DP'
S'DADVNNP'
tp246
F1
s(S'DP'
S'DDDVP'
tp247
F1
s(S'NP'
S'NNCCP'
tp248
F2
s(S'MP'
S'MNVP'
tp249
F1
s(S'CP'
S'CDDADVPP'
tp250
F1
s(g19
S'NNPP'
tp251
F2
s(S'AP'
S'ADP'
tp252
F32
s(g202
S'APAP'
tp253
F1
s(g94
S'VAPP'
tp254
F2
s(S'AP'
S'APP'
tp255
F8
s(S'VP'
S'ADVVDP'
tp256
F1
s(S'AP'
S'AAP'
tp257
F1
s(S'CP'
S'CADVADPP'
tp258
F1
s(S'NP'
S'AANPP'
tp259
F1
s(S'AP'
p260
S'AMP'
tp261
F1
s(S'CP'
S'CCADP'
tp262
F1
s(S'NP'
S'ADVANPP'
tp263
F1
s(S'DP'
p264
S'DVVVVP'
tp265
F1
s(g36
S'CDDDDPP'
tp266
F1
s(g74
S'PAAAP'
tp267
F1
s(S'PP'
S'PAANP'
tp268
F1
s(S'DP'
S'DADVAP'
tp269
F1
s(S'VP'
S'AVDP'
tp270
F4
s(g148
S'ANVP'
tp271
F3
s(S'NP'
S'ANAP'
tp272
F1
s(g34
S'VVAP'
tp273
F2
s(S'AP'
S'ADVAPP'
tp274
F1
s(g31
S'DVP'
tp275
F34
s(S'VP'
S'VADVPPP'
tp276
F1
s(g260
S'ADVADVAPP'
tp277
F1
s(S'AP'
S'AVP'
tp278
F3
s(g192
S'ADVACDP'
tp279
F1
s(g17
S'PAVP'
tp280
F6
s(g264
S'DDPPP'
tp281
F2
s(g197
S'ADVNMP'
tp282
F1
s(g29
S'NPP'
tp283
F36
s(g67
S'NAPP'
tp284
F3
s(g102
S'NVP'
tp285
F40
s(g52
S'PPANP'
tp286
F1
s(g74
S'PPADVADVADVAAP'
tp287
F1
s(g31
S'DPP'
tp288
F56
s(g71
S'PAAVP'
tp289
F1
s(S'NP'
S'NNNNCP'
tp290
F1
s(g12
S'VNP'
tp291
F26
s(S'NP'
S'ADVNAP'
tp292
F1
s(S'VP'
S'VANP'
tp293
F1
s(g167
S'VDDP'
tp294
F5
s(S'VP'
S'VADVAP'
tp295
F2
s(S'PP'
S'PNNP'
tp296
F2
s(g184
S'ACP'
tp297
F5
s(S'PP'
S'PPNNNP'
tp298
F1
s(S'MP'
S'MVPP'
tp299
F1
s.