ccollections
defaultdict
p1
(c__builtin__
float
p2
tRp3
(S'VP'
S'VVAAAP'
tp4
F1
s(S'NP'
S'NAMP'
tp5
F6
s(S'PP'
S'ADVADVPPAP'
tp6
F1
s(S'DP'
S'DVVVVP'
tp7
F3
s(S'CP'
S'CAAADPP'
tp8
F1
s(S'PP'
S'PAAANP'
tp9
F3
s(S'DP'
p10
S'ADDPP'
tp11
F4
s(S'NP'
S'AAANNAP'
tp12
F1
s(S'DP'
S'DDAP'
tp13
F4
s(S'CP'
S'CADVADVDAPP'
tp14
F1
s(S'VP'
S'AAVCCP'
tp15
F1
s(S'PP'
p16
S'ADVADVADVPPVP'
tp17
F1
s(S'NP'
p18
S'ADVANADVVP'
tp19
F1
s(S'DP'
S'DAANNP'
tp20
F2
s(S'PP'
S'PAAANNP'
tp21
F1
s(S'AP'
S'AVVVP'
tp22
F2
s(S'PP'
S'PAPP'
tp23
F22
s(S'PP'
S'PADVNP'
tp24
F27
s(S'DP'
S'DNP'
tp25
F1155
s(S'PP'
S'PPADVAVP'
tp26
F2
s(S'NP'
S'ANCCCP'
tp27
F2
s(S'VP'
S'AAAVPP'
tp28
F1
s(S'PP'
S'AAPDDP'
tp29
F4
s(S'PP'
S'ADVAPPPPP'
tp30
F1
s(S'NP'
S'ADVNPPP'
tp31
F1
s(S'CP'
p32
S'CDPPP'
tp33
F145
s(S'NP'
S'AANNDP'
tp34
F1
s(S'PP'
S'ADVPPANP'
tp35
F2
s(S'VP'
p36
S'VADP'
tp37
F36
s(S'DP'
p38
S'DNNNNP'
tp39
F5
s(S'CP'
S'CDAAPPP'
tp40
F1
s(g38
S'DAAP'
tp41
F22
s(S'VP'
S'AAVPPP'
tp42
F1
s(S'PP'
p43
S'PPPPPP'
tp44
F3
s(S'VP'
p45
S'VAVP'
tp46
F3
s(S'PP'
S'APPDP'
tp47
F3
s(S'CP'
p48
S'CADVADVDPPP'
tp49
F1
s(S'CP'
p50
S'ADVCAADDP'
tp51
F1
s(S'DP'
S'DAADP'
tp52
F2
s(S'DP'
S'ADNNP'
tp53
F3
s(S'VP'
p54
S'AVADVDP'
tp55
F2
s(S'MP'
S'MDVP'
tp56
F1
s(S'VP'
S'ADVVVVDP'
tp57
F2
s(S'DP'
S'ADVADVDPPP'
tp58
F2
s(S'VP'
S'ADVVNP'
tp59
F67
s(S'MP'
S'MVDP'
tp60
F76
s(S'PP'
S'PADVANP'
tp61
F1
s(S'NP'
S'AANNPP'
tp62
F1
s(S'PP'
p63
S'PPPP'
tp64
F68
s(S'VP'
S'VVVVDDP'
tp65
F1
s(S'DP'
p66
S'DDDNP'
tp67
F10
s(S'MP'
S'MMADVVP'
tp68
F1
s(S'VP'
S'VACP'
tp69
F9
s(S'AP'
S'AAAVP'
tp70
F1
s(S'DP'
S'DADVVP'
tp71
F29
s(S'NP'
S'ADVNNMP'
tp72
F1
s(S'VP'
p73
S'ADVADVVDDP'
tp74
F1
s(S'VP'
S'VVADDP'
tp75
F1
s(S'PP'
S'PADVNNP'
tp76
F3
s(S'VP'
S'VVVVP'
tp77
F4
s(S'NP'
S'NADVACP'
tp78
F1
s(S'NP'
S'NDDDP'
tp79
F3
s(S'NP'
S'NADVVVP'
tp80
F30
s(S'CP'
S'CADVDAPP'
tp81
F1
s(S'VP'
p82
S'VCP'
tp83
F329
s(S'NP'
p84
S'NMMP'
tp85
F9
s(S'AP'
S'ADVAACP'
tp86
F1
s(S'VP'
S'ADVVAAP'
tp87
F3
s(S'NP'
S'AAAANPP'
tp88
F1
s(S'MP'
S'MVADVNP'
tp89
F2
s(S'PP'
S'ADVPADP'
tp90
F1
s(S'PP'
p91
S'PAP'
tp92
F328
s(S'DP'
S'DDDADVPP'
tp93
F1
s(S'VP'
S'VADVADVAP'
tp94
F1
s(S'NP'
S'ANNCCP'
tp95
F1
s(S'PP'
p96
S'ADVPPVP'
tp97
F3
s(S'VP'
S'VVADVADVADVDP'
tp98
F1
s(S'NP'
S'ANPPP'
tp99
F5
s(S'PP'
S'PPADVDP'
tp100
F5
s(S'MP'
S'AMVP'
tp101
F7
s(S'PP'
p102
S'PNP'
tp103
F1017
s(S'VP'
S'VVNNNNNP'
tp104
F1
s(S'VP'
S'VVADVNNP'
tp105
F2
s(S'VP'
S'ADVADVADVADVVCCP'
tp106
F1
s(S'DP'
p107
S'DDP'
tp108
F93
s(S'PP'
S'PPAAAPP'
tp109
F1
s(S'CP'
S'CDDDAAAPP'
tp110
F1
s(S'VP'
S'ADVVDDP'
tp111
F5
s(S'NP'
S'NNNPP'
tp112
F11
s(S'NP'
S'NNDP'
tp113
F29
s(S'VP'
S'ADVVVDDP'
tp114
F1
s(S'MP'
S'MCDP'
tp115
F7
s(S'CP'
S'ACADVADVADVDP'
tp116
F1
s(S'DP'
S'DDAANP'
tp117
F1
s(S'NP'
S'NNADVADVCP'
tp118
F1
s(S'MP'
S'MNAP'
tp119
F3
s(S'AP'
S'AANP'
tp120
F1
s(S'NP'
p121
S'NMP'
tp122
F292
s(S'NP'
S'ADVNCCP'
tp123
F1
s(S'VP'
S'AVADVPP'
tp124
F1
s(S'DP'
S'ADCP'
tp125
F2
s(S'VP'
S'VAAADP'
tp126
F1
s(S'VP'
p127
S'AAVNP'
tp128
F4
s(S'VP'
S'VMMP'
tp129
F1
s(g43
S'PDP'
tp130
F1087
s(S'CP'
S'CCADVADVDP'
tp131
F2
s(S'PP'
S'PPADVVP'
tp132
F10
s(S'VP'
S'VVVADVPP'
tp133
F1
s(S'NP'
p134
S'ADVNVVP'
tp135
F5
s(S'VP'
p136
S'VNNNNP'
tp137
F1
s(S'CP'
S'CDADVADVPPP'
tp138
F3
s(S'DP'
S'ADVADVDAPP'
tp139
F1
s(S'VP'
S'AVAAP'
tp140
F1
s(S'PP'
S'PPPADVVP'
tp141
F1
s(S'NP'
S'NACCP'
tp142
F1
s(S'AP'
S'ANP'
tp143
F5
s(S'PP'
S'ADVPAAP'
tp144
F1
s(S'NP'
S'NADVADVADVVP'
tp145
F7
s(S'PP'
p146
S'PADVPP'
tp147
F5
s(S'NP'
S'NNADVCP'
tp148
F4
s(S'VP'
S'VVADVNP'
tp149
F5
s(S'PP'
S'PPADVAP'
tp150
F1
s(S'NP'
p151
S'ADVANCP'
tp152
F2
s(S'NP'
S'ADVNACP'
tp153
F1
s(S'PP'
S'ADVADVAPPP'
tp154
F1
s(S'DP'
p155
S'DPPPP'
tp156
F17
s(S'DP'
S'DDANP'
tp157
F12
s(S'NP'
p158
S'NACP'
tp159
F35
s(S'AP'
S'ADVAVP'
tp160
F3
s(S'NP'
p161
S'NCCP'
tp162
F176
s(S'CP'
S'CDDDDPPP'
tp163
F1
s(S'DP'
S'DADVADVVVP'
tp164
F1
s(S'DP'
S'ADVADAAP'
tp165
F1
s(S'AP'
S'ADVAVVVP'
tp166
F1
s(S'NP'
S'NADVADVADVDP'
tp167
F1
s(g161
S'NNCP'
tp168
F163
s(S'DP'
S'ADVDDPP'
tp169
F16
s(S'NP'
S'NADVADVVP'
tp170
F14
s(S'DP'
p171
S'DDDDP'
tp172
F2
s(S'DP'
S'DDAPP'
tp173
F16
s(S'NP'
S'NNADVADVADVCP'
tp174
F1
s(S'MP'
S'MAAVCCP'
tp175
F1
s(S'VP'
S'AVNP'
tp176
F16
s(S'VP'
S'VVADP'
tp177
F1
s(S'NP'
S'ADVNDDP'
tp178
F1
s(S'DP'
S'DDAAANP'
tp179
F1
s(S'MP'
S'MADVVPPP'
tp180
F1
s(S'DP'
S'ADVADVADVADVDDAPP'
tp181
F1
s(S'VP'
S'ADVADVADVVVDP'
tp182
F1
s(S'MP'
S'MVVVADVAP'
tp183
F1
s(S'PP'
S'ADVPVVP'
tp184
F1
s(S'VP'
S'VVADVCP'
tp185
F1
s(S'PP'
p186
S'ADVAPDP'
tp187
F1
s(S'PP'
S'AAPNP'
tp188
F3
s(S'VP'
S'VADVVP'
tp189
F12
s(S'NP'
S'ADVADVADVNMP'
tp190
F1
s(S'MP'
S'MVVVDDP'
tp191
F1
s(S'MP'
S'MVAPP'
tp192
F2
s(S'CP'
S'CADVADVADVADVDDAPP'
tp193
F1
s(S'MP'
S'MVPPP'
tp194
F2
s(S'NP'
S'ANADVVP'
tp195
F8
s(S'PP'
p196
S'ADVAPVP'
tp197
F2
s(S'AP'
S'AAADVADVVP'
tp198
F1
s(S'NP'
S'NCCCCP'
tp199
F2
s(S'CP'
S'CCCDP'
tp200
F13
s(S'VP'
p201
S'AVNNP'
tp202
F5
s(S'PP'
S'ADVPPNNP'
tp203
F1
s(S'VP'
S'VCCCP'
tp204
F2
s(S'PP'
S'APDP'
tp205
F85
s(S'NP'
S'NNNNNPP'
tp206
F1
s(S'DP'
S'AADDCP'
tp207
F1
s(S'VP'
S'VVVVAAAAP'
tp208
F1
s(S'VP'
S'ADVVNNP'
tp209
F7
s(S'PP'
S'PADVADVADVPP'
tp210
F1
s(S'VP'
S'VADVADVVVP'
tp211
F1
s(S'NP'
S'ANNPP'
tp212
F4
s(S'NP'
S'NNADVADVADVADVVP'
tp213
F1
s(S'PP'
S'PPADVADVVVP'
tp214
F1
s(S'VP'
S'VVANP'
tp215
F4
s(S'PP'
S'ADVPNNP'
tp216
F2
s(S'VP'
S'ADVVVP'
tp217
F5
s(S'VP'
S'ADVADVVVDDP'
tp218
F1
s(S'PP'
S'ADVPVVVP'
tp219
F1
s(S'CP'
S'CADADVPPP'
tp220
F1
s(S'DP'
S'DADVADVADVPP'
tp221
F3
s(S'NP'
S'NNADVANP'
tp222
F1
s(S'MP'
S'MADVVNP'
tp223
F11
s(S'DP'
p224
S'ADVADNNP'
tp225
F1
s(S'MP'
S'MPNNP'
tp226
F1
s(S'NP'
S'NANP'
tp227
F6
s(S'DP'
p228
S'DNNP'
tp229
F183
s(S'CP'
S'CADVDDPP'
tp230
F11
s(S'DP'
S'DPPPPP'
tp231
F5
s(S'CP'
p232
S'CDDPPPP'
tp233
F1
s(S'CP'
S'CCADVDP'
tp234
F14
s(g45
S'VVNNNP'
tp235
F3
s(S'VP'
p236
S'AAVDDP'
tp237
F4
s(S'DP'
S'ADDNP'
tp238
F1
s(S'NP'
S'NNNVP'
tp239
F27
s(S'DP'
S'ADVADVDCP'
tp240
F1
s(S'PP'
p241
S'PPNNNNP'
tp242
F1
s(S'PP'
S'PADVVP'
tp243
F19
s(S'DP'
S'DACP'
tp244
F1
s(S'DP'
S'DDDADVPPP'
tp245
F1
s(S'DP'
S'DADVADVADVPPP'
tp246
F1
s(S'PP'
S'APADVVP'
tp247
F1
s(S'PP'
S'APAP'
tp248
F9
s(S'AP'
S'APP'
tp249
F151
s(g50
S'ADVCCADP'
tp250
F1
s(S'AP'
S'ACCCP'
tp251
F2
s(S'CP'
S'CDDDADVPPP'
tp252
F1
s(S'NP'
S'NADVMP'
tp253
F4
s(S'DP'
p254
S'DDDAANP'
tp255
F1
s(S'AP'
S'AAP'
tp256
F19
s(S'VP'
p257
S'VADVADVVP'
tp258
F2
s(S'NP'
S'ADVADVNDP'
tp259
F2
s(S'DP'
S'DAAAPP'
tp260
F3
s(S'NP'
S'ADVANPP'
tp261
F3
s(S'MP'
S'MVVCP'
tp262
F4
s(S'DP'
S'DAAVP'
tp263
F6
s(S'CP'
S'CDDDDPP'
tp264
F1
s(S'MP'
S'MVVVNP'
tp265
F5
s(S'PP'
S'PAANP'
tp266
F14
s(S'VP'
p267
S'AAVADVANP'
tp268
F1
s(S'PP'
S'PPVVP'
tp269
F8
s(S'MP'
S'MVNP'
tp270
F76
s(S'NP'
p271
S'ANAAP'
tp272
F2
s(S'AP'
S'ADVAADP'
tp273
F4
s(S'DP'
S'ADVADNP'
tp274
F2
s(S'PP'
S'ADVADVPPADVNP'
tp275
F1
s(S'PP'
p276
S'PAVP'
tp277
F46
s(S'CP'
S'CDADVADVPP'
tp278
F2
s(S'PP'
p279
S'ADVADVPPVP'
tp280
F2
s(S'VP'
S'ADVVMP'
tp281
F1
s(S'VP'
S'VVVPP'
tp282
F19
s(S'NP'
S'NNADP'
tp283
F3
s(S'PP'
S'PCCP'
tp284
F3
s(S'AP'
S'ADVACCP'
tp285
F4
s(S'DP'
S'DADP'
tp286
F8
s(S'MP'
S'MDADVADVADVANP'
tp287
F1
s(S'AP'
S'ADVADP'
tp288
F14
s(S'CP'
S'ADVADVCDP'
tp289
F4
s(S'DP'
S'ADVDDP'
tp290
F1
s(S'PP'
S'APDDP'
tp291
F17
s(S'MP'
S'MAANP'
tp292
F1
s(S'VP'
p293
S'ADVADVVVNP'
tp294
F4
s(S'DP'
S'DDVVVVP'
tp295
F1
s(S'PP'
S'PPNNNP'
tp296
F2
s(S'DP'
S'AADNNNNP'
tp297
F1
s(S'DP'
p298
S'DAAAVP'
tp299
F1
s(S'PP'
S'PPCP'
tp300
F2
s(g241
S'APVP'
tp301
F34
s(S'PP'
S'AAAPPPP'
tp302
F2
s(S'DP'
S'DAAAP'
tp303
F2
s(S'NP'
p304
S'AANNDDP'
tp305
F1
s(S'MP'
S'MNCP'
tp306
F2
s(S'VP'
S'VVNP'
tp307
F122
s(S'VP'
S'VVVCP'
tp308
F7
s(g63
S'PPVP'
tp309
F107
s(S'DP'
S'DDADVADVPP'
tp310
F1
s(S'MP'
S'MPCP'
tp311
F1
s(S'VP'
S'VADVDP'
tp312
F18
s(g16
S'PPADVADVADVNP'
tp313
F1
s(S'VP'
S'VVADVAP'
tp314
F2
s(S'VP'
S'VAAP'
tp315
F55
s(S'NP'
S'NNADVAVP'
tp316
F1
s(S'PP'
S'ADVADVADVADVPPNP'
tp317
F1
s(S'NP'
S'ANDP'
tp318
F33
s(S'NP'
S'NVVP'
tp319
F260
s(S'PP'
S'AAPVP'
tp320
F3
s(S'PP'
S'PPADP'
tp321
F2
s(S'VP'
S'VMP'
tp322
F13
s(S'NP'
S'ANNAP'
tp323
F1
s(S'VP'
S'VVNNP'
tp324
F18
s(g32
S'CDAPP'
tp325
F72
s(S'CP'
S'CDDAAPP'
tp326
F2
s(S'PP'
S'ADVPMP'
tp327
F1
s(S'AP'
S'AACCCP'
tp328
F1
s(S'VP'
S'ADVADVVVNNP'
tp329
F1
s(g66
S'ADNP'
tp330
F40
s(S'PP'
p331
S'AAPVVP'
tp332
F3
s(S'VP'
S'AVVDP'
tp333
F1
s(S'NP'
p334
S'ADVADVADVANVVP'
tp335
F1
s(S'DP'
S'ADVDDPPP'
tp336
F1
s(g63
S'PADP'
tp337
F33
s(g224
S'DDAAAPP'
tp338
F1
s(S'VP'
p339
S'ADVVVCP'
tp340
F4
s(S'NP'
S'NNNNDDP'
tp341
F1
s(S'AP'
S'AAAACP'
tp342
F2
s(S'NP'
S'ANDDP'
tp343
F7
s(S'AP'
S'AAADVADVDP'
tp344
F1
s(S'DP'
S'ADVADVDVP'
tp345
F1
s(S'DP'
S'DADVAP'
tp346
F4
s(S'PP'
S'PPVVVVP'
tp347
F1
s(S'DP'
S'DDDVP'
tp348
F7
s(S'DP'
p349
S'DAPP'
tp350
F121
s(S'VP'
S'AVVP'
tp351
F4
s(S'VP'
S'VVVVPP'
tp352
F2
s(S'VP'
S'ADVADVVPP'
tp353
F8
s(S'MP'
S'MADVADVVNP'
tp354
F1
s(S'VP'
S'VADVAAP'
tp355
F1
s(S'MP'
S'MACDDP'
tp356
F1
s(S'VP'
S'ADVADVADVVDP'
tp357
F5
s(S'CP'
S'CADPPPP'
tp358
F1
s(S'PP'
p359
S'AAAPVP'
tp360
F1
s(S'VP'
S'VVAANP'
tp361
F2
s(g257
S'ADVADVVDP'
tp362
F17
s(S'VP'
S'AVVNP'
tp363
F1
s(g102
S'PPPDP'
tp364
F2
s(S'DP'
S'DAAPPP'
tp365
F1
s(S'MP'
S'MVVVDP'
tp366
F3
s(S'PP'
S'AAAPDP'
tp367
F2
s(S'MP'
S'MVVAP'
tp368
F2
s(S'DP'
S'DAAANP'
tp369
F3
s(S'DP'
S'DADVANP'
tp370
F3
s(S'NP'
S'ANADVVVP'
tp371
F2
s(S'VP'
S'VAAPP'
tp372
F6
s(S'NP'
S'NADVADVAPP'
tp373
F1
s(S'DP'
p374
S'ADVDNP'
tp375
F14
s(S'VP'
p376
S'VVPP'
tp377
F120
s(S'DP'
p378
S'DDDADVNP'
tp379
F1
s(S'PP'
S'PAVVP'
tp380
F2
s(S'MP'
S'MVPP'
tp381
F45
s(g228
S'ADVP'
tp382
F22
s(g232
S'CDDPPP'
tp383
F16
s(S'VP'
S'VADVADVCP'
tp384
F2
s(S'NP'
p385
S'NNPP'
tp386
F85
s(S'MP'
p387
S'MDDDAP'
tp388
F1
s(g10
S'DDDDNP'
tp389
F4
s(S'MP'
S'MVVDP'
tp390
F7
s(S'DP'
S'DADVPPP'
tp391
F14
s(S'PP'
S'PPADVAAP'
tp392
F1
s(S'NP'
p393
S'ANVP'
tp394
F91
s(S'DP'
S'DADVADVADVADVPP'
tp395
F1
s(S'DP'
S'DNNNP'
tp396
F15
s(S'NP'
S'ADVADVNADVVVVP'
tp397
F2
s(S'DP'
S'ADVDDVP'
tp398
F3
s(g339
S'VADVADVPPP'
tp399
F1
s(S'PP'
S'PADVADVVP'
tp400
F4
s(S'VP'
S'VADVDDP'
tp401
F2
s(S'PP'
S'PMMP'
tp402
F4
s(S'PP'
S'PVVVP'
tp403
F11
s(S'PP'
p404
S'PMP'
tp405
F27
s(S'NP'
S'NNMMP'
tp406
F1
s(S'VP'
S'ADVVVANP'
tp407
F1
s(S'CP'
p408
S'CCDP'
tp409
F294
s(S'NP'
S'ANNDP'
tp410
F3
s(S'DP'
S'ADVADVADVDPP'
tp411
F5
s(S'VP'
p412
S'VADVANP'
tp413
F2
s(S'NP'
S'ADVADVADVNCP'
tp414
F1
s(S'CP'
S'ADVADVADVADVCDP'
tp415
F1
s(S'DP'
S'AADDPP'
tp416
F1
s(S'NP'
S'NVVVP'
tp417
F47
s(S'CP'
p418
S'CDDDPP'
tp419
F19
s(S'DP'
S'AADADVADVPPP'
tp420
F1
s(g418
S'CDAAPP'
tp421
F12
s(S'DP'
p422
S'DDDDAANNP'
tp423
F1
s(S'VP'
p424
S'VVVDP'
tp425
F28
s(S'PP'
S'PDDDDP'
tp426
F3
s(S'PP'
S'PNNNP'
tp427
F18
s(S'CP'
S'CDADVADVADVPP'
tp428
F2
s(S'CP'
S'CCCCDP'
tp429
F2
s(S'AP'
S'AACCP'
tp430
F5
s(S'VP'
S'VVMP'
tp431
F1
s(S'CP'
S'CADADVPP'
tp432
F1
s(S'PP'
p433
S'PADVVVP'
tp434
F8
s(S'PP'
p435
S'PPP'
tp436
F291
s(S'NP'
S'NNADVDP'
tp437
F1
s(S'NP'
S'NAVP'
tp438
F38
s(S'PP'
S'PADVAP'
tp439
F9
s(S'DP'
S'DDNNNP'
tp440
F3
s(S'VP'
S'AAVVP'
tp441
F1
s(S'DP'
p442
S'ADVDVP'
tp443
F20
s(S'PP'
S'PPADVADVNP'
tp444
F1
s(S'NP'
S'NAAAP'
tp445
F2
s(S'NP'
S'NCCCP'
tp446
F9
s(S'DP'
S'DADVADVPPP'
tp447
F4
s(S'AP'
S'AADVVP'
tp448
F3
s(S'PP'
p449
S'PPPPDP'
tp450
F2
s(S'MP'
S'MADVADVVPP'
tp451
F4
s(S'DP'
S'ADVADVDNP'
tp452
F3
s(S'VP'
p453
S'VPP'
tp454
F706
s(S'DP'
S'ADVDAAVP'
tp455
F1
s(S'CP'
S'ADVCCDP'
tp456
F5
s(S'VP'
S'ADVADVVVP'
tp457
F1
s(S'MP'
p458
S'ADVADVMVP'
tp459
F1
s(S'DP'
S'ADVDDNP'
tp460
F2
s(g385
S'NNNCP'
tp461
F17
s(S'PP'
p462
S'PADVDP'
tp463
F19
s(S'CP'
S'CDADVAPP'
tp464
F1
s(S'CP'
S'CCCAADP'
tp465
F1
s(S'VP'
S'AVADVADP'
tp466
F1
s(S'DP'
S'DANNP'
tp467
F8
s(S'MP'
S'MADVVAP'
tp468
F3
s(S'PP'
S'PADVAAP'
tp469
F2
s(S'CP'
S'CDDPP'
tp470
F119
s(S'DP'
p471
S'DAAPP'
tp472
F18
s(S'PP'
S'PVVP'
tp473
F89
s(S'CP'
S'CADPPP'
tp474
F6
s(S'AP'
S'AACP'
tp475
F36
s(S'MP'
S'MADVVAAP'
tp476
F1
s(S'CP'
S'CAADADVADVPPP'
tp477
F1
s(S'VP'
S'ADVVCP'
tp478
F18
s(g82
S'VPPP'
tp479
F58
s(S'VP'
p480
S'ADVADVVVCCP'
tp481
F1
s(S'VP'
S'AVCCP'
tp482
F1
s(S'PP'
S'APCCP'
tp483
F1
s(S'VP'
S'VVPPP'
tp484
F7
s(S'VP'
S'ADVADVADVVPPP'
tp485
F1
s(S'MP'
S'MADVADVVCCP'
tp486
F1
s(S'PP'
p487
S'PPAP'
tp488
F27
s(g171
S'DVVP'
tp489
F88
s(S'PP'
S'PADVAVP'
tp490
F1
s(S'VP'
S'AVVADVPP'
tp491
F1
s(g480
S'VVAPPP'
tp492
F1
s(S'VP'
S'VVVADVAP'
tp493
F1
s(S'NP'
S'NNNNDP'
tp494
F1
s(S'PP'
S'ADVADVADVPPPP'
tp495
F1
s(S'DP'
S'ADADVADVADVPPP'
tp496
F1
s(S'NP'
S'ANMP'
tp497
F11
s(S'AP'
S'APPP'
tp498
F12
s(S'PP'
S'ADVPPP'
tp499
F8
s(S'MP'
S'MADVAMP'
tp500
F1
s(S'NP'
S'ADVADVNVP'
tp501
F2
s(S'VP'
S'VVVP'
tp502
F24
s(S'NP'
S'ADVNNCCP'
tp503
F1
s(g107
S'DDPPPP'
tp504
F1
s(S'PP'
p505
S'PADVADVMP'
tp506
F2
s(S'VP'
S'ADVADVVCCP'
tp507
F1
s(S'PP'
S'AAPNNP'
tp508
F1
s(S'PP'
S'ADVAPPPP'
tp509
F1
s(S'VP'
S'VVVADVVP'
tp510
F1
s(S'NP'
S'ANCP'
tp511
F121
s(S'NP'
S'NNPPPPP'
tp512
F1
s(S'DP'
S'DCP'
tp513
F68
s(S'DP'
S'DVVVP'
tp514
F8
s(S'VP'
S'ADVVCCP'
tp515
F5
s(g267
S'VVAAVP'
tp516
F1
s(S'DP'
S'DADVADVADVNP'
tp517
F1
s(g121
S'NNVVVVP'
tp518
F1
s(S'DP'
S'DDDP'
tp519
F12
s(S'DP'
S'DDADVPP'
tp520
F9
s(S'DP'
S'DADVANNP'
tp521
F1
s(S'NP'
S'ANNVVP'
tp522
F1
s(S'NP'
S'ANVVP'
tp523
F20
s(g201
S'VVDP'
tp524
F143
s(S'NP'
p525
S'NPPP'
tp526
F55
s(S'PP'
p527
S'PPAPP'
tp528
F2
s(S'MP'
S'AMVVP'
tp529
F1
s(S'DP'
p530
S'DAVP'
tp531
F43
s(S'VP'
S'AVVVP'
tp532
F1
s(S'VP'
p533
S'ADVAVCP'
tp534
F3
s(S'AP'
S'ACP'
tp535
F177
s(S'NP'
S'NNADVAP'
tp536
F1
s(S'VP'
S'AAVADVADVDDP'
tp537
F1
s(g359
S'PAAAPP'
tp538
F1
s(S'DP'
S'ADVADPPP'
tp539
F3
s(S'PP'
p540
S'PPNP'
tp541
F132
s(S'PP'
S'PPPAP'
tp542
F1
s(S'MP'
S'MADVVPP'
tp543
F7
s(S'NP'
S'NAADP'
tp544
F1
s(S'DP'
S'ADVDAPP'
tp545
F1
s(S'PP'
S'APADVADVVP'
tp546
F1
s(S'DP'
S'AADVP'
tp547
F3
s(g134
S'NNNNCCP'
tp548
F3
s(S'CP'
S'CADAPPP'
tp549
F1
s(S'VP'
S'VVVVNNP'
tp550
F2
s(S'VP'
S'VAANNP'
tp551
F1
s(S'PP'
S'ADVADVADVADVPVP'
tp552
F1
s(S'CP'
S'CDDADVPP'
tp553
F6
s(S'CP'
S'CCCDDP'
tp554
F4
s(S'AP'
S'ADP'
tp555
F771
s(S'PP'
S'ADVPPDDP'
tp556
F1
s(g442
S'DADVADVADVVP'
tp557
F1
s(S'CP'
S'CADVDDPPP'
tp558
F1
s(S'CP'
S'CADVDPP'
tp559
F53
s(g276
S'ADVADVPPMP'
tp560
F1
s(S'DP'
S'ADDVVP'
tp561
F1
s(S'PP'
S'APVVP'
tp562
F7
s(S'NP'
S'NNNNNNPPPP'
tp563
F1
s(S'MP'
S'MADDP'
tp564
F1
s(S'PP'
S'PPPPNNP'
tp565
F1
s(S'VP'
S'VVPPPP'
tp566
F1
s(S'DP'
S'DDVVVP'
tp567
F1
s(S'DP'
S'ADVADVDDNP'
tp568
F1
s(g533
S'ADVADVVNNP'
tp569
F2
s(S'VP'
p570
S'AVDP'
tp571
F65
s(S'NP'
S'ANNVP'
tp572
F8
s(S'VP'
S'VVAP'
tp573
F53
s(S'NP'
S'NNAPP'
tp574
F1
s(S'CP'
p575
S'CDDDAPP'
tp576
F1
s(S'CP'
S'ADVACDP'
tp577
F1
s(g136
S'AAVCP'
tp578
F1
s(S'NP'
S'AANNVVP'
tp579
F2
s(S'DP'
S'AADDPPP'
tp580
F1
s(S'NP'
p581
S'NPP'
tp582
F848
s(S'VP'
S'ADVADVVAP'
tp583
F3
s(g161
S'NVP'
tp584
F1344
s(S'AP'
S'AADVADVADVADVDP'
tp585
F1
s(g91
S'PAAVP'
tp586
F8
s(S'NP'
S'NAAPP'
tp587
F2
s(g487
S'PPPPVP'
tp588
F5
s(S'MP'
p589
S'ADVMMVP'
tp590
F1
s(S'NP'
S'ADVNAP'
tp591
F1
s(g127
S'VDDP'
tp592
F93
s(S'DP'
S'DAPPP'
tp593
F2
s(S'NP'
p594
S'ADVNVP'
tp595
F18
s(S'DP'
S'DAAAAP'
tp596
F1
s(S'AP'
S'AAADVDP'
tp597
F1
s(S'PP'
p598
S'PAAPPP'
tp599
F1
s(S'NP'
S'AANVVP'
tp600
F7
s(S'DP'
S'DADVAPP'
tp601
F3
s(S'PP'
S'AAPNNNP'
tp602
F1
s(S'NP'
S'NADVADVVVP'
tp603
F7
s(S'NP'
S'ANPP'
tp604
F114
s(S'PP'
S'ADVPPDP'
tp605
F3
s(S'PP'
S'PPPPP'
tp606
F7
s(S'MP'
S'MPDP'
tp607
F3
s(S'MP'
S'MDVVP'
tp608
F1
s(S'MP'
S'MVVPP'
tp609
F3
s(S'DP'
S'ADVDPP'
tp610
F76
s(S'NP'
S'ANADVADVADVVP'
tp611
F1
s(S'VP'
S'VVAAPP'
tp612
F1
s(S'NP'
S'ADVADVNPP'
tp613
F1
s(S'MP'
S'MVVVVAAP'
tp614
F1
s(S'AP'
S'ADVADVAVP'
tp615
F2
s(S'DP'
S'ADDP'
tp616
F6
s(g449
S'PPPPPPP'
tp617
F1
s(S'CP'
S'CAADPP'
tp618
F12
s(S'DP'
S'DADVADVVP'
tp619
F6
s(S'NP'
S'NAACP'
tp620
F5
s(S'PP'
S'PNNP'
tp621
F163
s(S'NP'
S'AAANADVVVP'
tp622
F1
s(S'CP'
S'CDADVADVADVPPP'
tp623
F1
s(g96
S'APNNP'
tp624
F7
s(S'DP'
S'DAAANNP'
tp625
F1
s(S'DP'
S'DDAAP'
tp626
F1
s(S'MP'
S'MMNP'
tp627
F1
s(S'DP'
S'AAADPP'
tp628
F3
s(S'VP'
S'AVAP'
tp629
F9
s(g589
S'MMVP'
tp630
F14
s(S'PP'
S'PADVDDP'
tp631
F5
s(S'CP'
S'CADVADPPP'
tp632
F3
s(S'AP'
S'AAPPPP'
tp633
F1
s(S'NP'
S'ADVNCP'
tp634
F17
s(S'DP'
S'DDDAAAPP'
tp635
F1
s(S'AP'
S'AADP'
tp636
F110
s(S'NP'
S'ADVANNP'
tp637
F1
s(S'CP'
S'CCCADVDDP'
tp638
F1
s(g393
S'NAPPP'
tp639
F4
s(S'CP'
S'ACDP'
tp640
F54
s(S'NP'
S'ADVADVADVNPP'
tp641
F1
s(S'PP'
S'PAAP'
tp642
F37
s(S'VP'
p643
S'ADVADVVAAP'
tp644
F1
s(S'AP'
S'ADVANP'
tp645
F8
s(g16
S'PADVADVADVPPP'
tp646
F1
s(S'NP'
S'NNACP'
tp647
F7
s(S'CP'
S'CDADVPPP'
tp648
F8
s(S'VP'
S'VAP'
tp649
F482
s(S'VP'
S'VVVVNP'
tp650
F4
s(S'DP'
S'DDDAAAAP'
tp651
F1
s(g471
S'DDDPP'
tp652
F25
s(S'PP'
S'PPPNNP'
tp653
F1
s(S'NP'
S'ANADVCP'
tp654
F4
s(S'PP'
S'PPAADDP'
tp655
F1
s(S'VP'
S'VADVMP'
tp656
F1
s(g331
S'PAAPP'
tp657
F7
s(S'DP'
S'DDDAAP'
tp658
F1
s(S'DP'
S'ADVADPPPP'
tp659
F1
s(g96
S'AAPADVPPP'
tp660
F1
s(S'MP'
S'MNMP'
tp661
F2
s(S'MP'
S'MAVPP'
tp662
F2
s(S'NP'
S'NPPPP'
tp663
F2
s(S'DP'
S'DDDPPP'
tp664
F2
s(S'VP'
S'ADVAVDP'
tp665
F4
s(S'DP'
S'ADAP'
tp666
F1
s(S'DP'
S'DADVDP'
tp667
F2
s(S'NP'
S'NNAVVP'
tp668
F1
s(S'CP'
S'CCADVADP'
tp669
F1
s(S'DP'
S'DDDAP'
tp670
F1
s(S'AP'
S'AAACP'
tp671
F4
s(g201
S'ADVVVDP'
tp672
F17
s(S'MP'
S'MVVVVNP'
tp673
F1
s(g43
S'PPPVP'
tp674
F10
s(S'VP'
S'AAVAP'
tp675
F1
s(S'MP'
S'MVVAAADP'
tp676
F1
s(S'AP'
S'AADDP'
tp677
F20
s(S'MP'
S'MADVVANNP'
tp678
F1
s(S'MP'
S'MADVNVP'
tp679
F1
s(S'VP'
S'VAANP'
tp680
F10
s(S'NP'
S'ADVADVNNCP'
tp681
F1
s(S'NP'
S'NADVADVCP'
tp682
F1
s(S'CP'
S'CCAAADP'
tp683
F1
s(S'MP'
S'MADVADVADVVNP'
tp684
F1
s(S'VP'
S'ADVADVADVADVVDP'
tp685
F1
s(g594
S'NVVVVP'
tp686
F13
s(S'MP'
S'MPADVADVVP'
tp687
F1
s(S'MP'
S'MVVMP'
tp688
F1
s(S'MP'
p689
S'MVVVPP'
tp690
F3
s(S'PP'
S'PADVADVPPP'
tp691
F1
s(S'VP'
S'ADVVADVANP'
tp692
F1
s(S'VP'
S'VVAADP'
tp693
F1
s(S'MP'
S'MADP'
tp694
F6
s(S'VP'
S'ADVADVADVVAP'
tp695
F3
s(S'CP'
S'CCAADP'
tp696
F1
s(S'DP'
S'DDADVNP'
tp697
F4
s(g63
S'PANP'
tp698
F99
s(g374
S'AADNP'
tp699
F5
s(S'NP'
S'ANNMP'
tp700
F1
s(S'NP'
S'NADVDDP'
tp701
F1
s(S'DP'
S'ADVADVDAVP'
tp702
F1
s(S'NP'
S'AANMP'
tp703
F5
s(S'AP'
S'AAVP'
tp704
F13
s(S'NP'
p705
S'NAAP'
tp706
F19
s(S'NP'
S'NDDP'
tp707
F37
s(S'MP'
S'MADVADVVVPP'
tp708
F1
s(S'VP'
S'VVAAADP'
tp709
F1
s(S'VP'
S'VVADVDDP'
tp710
F1
s(S'MP'
S'MVADVDP'
tp711
F2
s(S'AP'
S'ACCP'
tp712
F29
s(S'DP'
S'ADAAP'
tp713
F1
s(S'VP'
S'VVVVAP'
tp714
F2
s(S'VP'
S'AVPPP'
tp715
F5
s(S'AP'
S'APPPP'
tp716
F1
s(g581
S'NDP'
tp717
F283
s(S'PP'
S'PADVADVADVNP'
tp718
F1
s(S'NP'
S'AAANVP'
tp719
F5
s(S'NP'
S'NNADVADVDP'
tp720
F1
s(S'NP'
S'NADVADVADVVVP'
tp721
F2
s(S'MP'
S'MVAAP'
tp722
F2
s(S'DP'
S'DDVP'
tp723
F108
s(g224
S'ADADVPPP'
tp724
F2
s(g598
S'AAPPVVVP'
tp725
F1
s(S'NP'
S'AANVP'
tp726
F18
s(g73
S'ADVVVNNP'
tp727
F2
s(S'DP'
S'DADVADVAPP'
tp728
F1
s(S'AP'
S'AAAACCCP'
tp729
F1
s(S'VP'
S'VNNNP'
tp730
F7
s(S'VP'
S'ADVADVADVVVCP'
tp731
F1
s(S'VP'
S'VADVADVPP'
tp732
F2
s(S'PP'
S'ADVPAP'
tp733
F10
s(S'CP'
S'ADVCADDP'
tp734
F1
s(g435
S'PCP'
tp735
F37
s(S'NP'
S'NNPPP'
tp736
F5
s(S'PP'
S'PPVVVP'
tp737
F1
s(g462
S'PAADP'
tp738
F10
s(S'NP'
S'ADVNNVP'
tp739
F2
s(S'NP'
S'NADVCCP'
tp740
F2
s(g271
S'ADVANVVP'
tp741
F1
s(g36
S'VPPPP'
tp742
F3
s(S'VP'
S'VVVVANP'
tp743
F1
s(S'VP'
S'VCCP'
tp744
F42
s(S'MP'
S'MVNNNP'
tp745
F1
s(S'NP'
p746
S'NNNDP'
tp747
F8
s(S'AP'
S'ADVACP'
tp748
F17
s(S'NP'
S'ADVADVNMP'
tp749
F3
s(S'DP'
S'DDADVVP'
tp750
F3
s(S'DP'
S'ADPPP'
tp751
F12
s(S'MP'
S'MVCP'
tp752
F7
s(g232
S'CCDDP'
tp753
F30
s(S'NP'
S'NNADVVP'
tp754
F15
s(S'VP'
S'VVADVADVAP'
tp755
F1
s(S'PP'
S'PPADVADVVP'
tp756
F1
s(S'VP'
S'ADVADVADVVPP'
tp757
F1
s(S'DP'
S'DDADP'
tp758
F1
s(S'NP'
S'ADVANAP'
tp759
F2
s(S'DP'
S'AAADNP'
tp760
F1
s(S'PP'
S'PPAAP'
tp761
F7
s(S'PP'
S'PPADVPPP'
tp762
F1
s(g158
S'NNNNVP'
tp763
F5
s(g236
S'VVCP'
tp764
F62
s(g304
S'NDDDDP'
tp765
F1
s(S'PP'
S'PADVADVPP'
tp766
F1
s(S'PP'
S'PAAAAP'
tp767
F1
s(S'NP'
p768
S'AANCP'
tp769
F19
s(S'VP'
p770
S'VAADP'
tp771
F4
s(S'VP'
S'VVDDDP'
tp772
F3
s(S'AP'
S'ADVAVVP'
tp773
F4
s(S'AP'
S'AADVADVADVADVVP'
tp774
F1
s(S'VP'
S'AVVPP'
tp775
F2
s(g121
S'NNDDP'
tp776
F4
s(S'DP'
S'DDDDPPP'
tp777
F1
s(S'VP'
S'ADVVPP'
tp778
F30
s(S'VP'
S'VVADVANP'
tp779
F2
s(S'DP'
S'DDDNNNNNNP'
tp780
F1
s(S'CP'
S'CDAPPP'
tp781
F2
s(S'VP'
S'VNNP'
tp782
F96
s(S'AP'
S'AADVDP'
tp783
F6
s(S'DP'
S'ADVDADVVP'
tp784
F1
s(S'NP'
S'NADP'
tp785
F15
s(g201
S'VADVNP'
tp786
F10
s(S'NP'
S'NADVCP'
tp787
F22
s(g530
S'DDNNP'
tp788
F21
s(S'DP'
S'ADDVP'
tp789
F3
s(S'PP'
S'AAPPP'
tp790
F7
s(S'VP'
S'VPPPPP'
tp791
F2
s(S'VP'
S'ADVAVPP'
tp792
F1
s(g705
S'ADVANVP'
tp793
F2
s(S'NP'
S'ADVANNPP'
tp794
F1
s(S'AP'
S'AADVADP'
tp795
F1
s(S'NP'
S'ADVADVNCP'
tp796
F2
s(S'NP'
p797
S'ADVNDP'
tp798
F1
s(g151
S'NNADVAAP'
tp799
F1
s(S'AP'
S'ADVADDP'
tp800
F1
s(S'PP'
S'AAPADVDDP'
tp801
F1
s(S'DP'
S'AADPP'
tp802
F15
s(S'NP'
S'AAAANVVP'
tp803
F1
s(S'PP'
S'APPNP'
tp804
F1
s(S'NP'
S'NNNNPP'
tp805
F1
s(S'NP'
S'NNAMP'
tp806
F2
s(S'VP'
S'VVVVCP'
tp807
F1
s(S'DP'
S'DAAAANP'
tp808
F1
s(S'DP'
S'AAADVP'
tp809
F1
s(S'NP'
S'NNADVMP'
tp810
F1
s(S'MP'
S'MAVAP'
tp811
F1
s(S'AP'
S'AADVADVVP'
tp812
F1
s(S'CP'
S'CDPPPPP'
tp813
F3
s(S'NP'
S'ANVVVP'
tp814
F4
s(S'DP'
S'DADVADVAP'
tp815
F1
s(S'MP'
S'MADVVDP'
tp816
F14
s(S'MP'
S'MVVNP'
tp817
F11
s(S'CP'
S'CDDADVPPP'
tp818
F2
s(S'DP'
S'ADVDNNP'
tp819
F2
s(S'CP'
S'ACDDP'
tp820
F8
s(S'CP'
S'ADVCCCDP'
tp821
F1
s(g768
S'AANDP'
tp822
F4
s(S'AP'
S'AAPP'
tp823
F11
s(g570
S'VVCCP'
tp824
F14
s(S'MP'
S'MADNP'
tp825
F1
s(S'CP'
S'CADADVADVADVPPP'
tp826
F1
s(g387
S'MVADVADVPP'
tp827
F1
s(g171
S'DADVVVP'
tp828
F5
s(g298
S'DADVADVNP'
tp829
F5
s(g48
S'ADVADVADVCCDDP'
tp830
F1
s(S'PP'
S'ADVPANP'
tp831
F2
s(S'VP'
S'VADVADP'
tp832
F2
s(S'NP'
S'AAANNCCP'
tp833
F1
s(S'AP'
S'ADVANNP'
tp834
F1
s(S'PP'
S'ADVADVPANP'
tp835
F1
s(S'VP'
S'VVVCCP'
tp836
F3
s(g121
S'NAPP'
tp837
F47
s(S'PP'
S'APPVP'
tp838
F1
s(S'AP'
S'ADVADVADP'
tp839
F1
s(S'NP'
S'NADVDP'
tp840
F5
s(S'DP'
S'DDNNNNNP'
tp841
F1
s(S'PP'
S'ADVPPPP'
tp842
F4
s(S'CP'
S'CCCDDDDDDP'
tp843
F1
s(g196
S'PADVAPP'
tp844
F3
s(S'NP'
S'ANCCP'
tp845
F27
s(S'NP'
S'AANPP'
tp846
F11
s(S'VP'
S'VDDDP'
tp847
F8
s(S'NP'
S'NNMP'
tp848
F30
s(S'MP'
S'MANVVP'
tp849
F1
s(S'VP'
S'AAVPP'
tp850
F3
s(S'VP'
S'VADVADVADVPPP'
tp851
F1
s(S'CP'
S'CADDPP'
tp852
F3
s(S'PP'
S'PAAAP'
tp853
F8
s(g527
S'ADVADVPNP'
tp854
F2
s(S'VP'
S'VVVDDP'
tp855
F3
s(S'DP'
S'ADVDDAP'
tp856
F1
s(S'CP'
S'CDDAPP'
tp857
F8
s(g18
S'ANAP'
tp858
F18
s(S'MP'
S'MVAP'
tp859
F36
s(g43
S'PVP'
tp860
F849
s(g45
S'VADVPPP'
tp861
F2
s(S'DP'
S'DADVAVP'
tp862
F2
s(S'AP'
S'ADVADVAPP'
tp863
F1
s(g376
S'VVVVDP'
tp864
F7
s(S'VP'
S'VVVAANP'
tp865
F1
s(S'VP'
S'VADVCCP'
tp866
F4
s(g63
S'APPNNP'
tp867
F2
s(S'PP'
S'APPPP'
tp868
F3
s(S'MP'
S'MADVADVVCP'
tp869
F2
s(S'VP'
S'VADVADVADVNNP'
tp870
F1
s(g746
S'ADVNAVP'
tp871
F2
s(S'NP'
S'ANNCP'
tp872
F2
s(S'PP'
S'PPADVPP'
tp873
F1
s(S'NP'
S'ADVNNAP'
tp874
F1
s(S'AP'
S'AAVVP'
tp875
F1
s(S'DP'
S'ADVADVADVDNP'
tp876
F1
s(S'PP'
S'PACP'
tp877
F1
s(S'PP'
S'PPDDP'
tp878
F13
s(S'VP'
S'AVCP'
tp879
F7
s(S'NP'
S'NADVADVAP'
tp880
F1
s(S'DP'
S'DCCCCP'
tp881
F1
s(g107
S'DPP'
tp882
F1540
s(g418
S'CADVADVDDPP'
tp883
F3
s(S'DP'
S'DDDVVP'
tp884
F1
s(S'AP'
S'ADVADVANP'
tp885
F1
s(S'DP'
S'DDPP'
tp886
F221
s(S'DP'
S'DDADVPPP'
tp887
F2
s(S'DP'
S'DDAVP'
tp888
F3
s(g228
S'DANP'
tp889
F236
s(S'AP'
S'ADVAMP'
tp890
F4
s(S'NP'
S'NADVPP'
tp891
F4
s(g54
S'AVDDDDP'
tp892
F1
s(S'PP'
S'ADVADVPPNP'
tp893
F1
s(S'PP'
S'ADVADVADVPPDP'
tp894
F1
s(S'NP'
S'NAAVP'
tp895
F6
s(g276
S'PDDDP'
tp896
F6
s(S'CP'
S'CADVADVADVDPP'
tp897
F3
s(S'AP'
S'AAAAPP'
tp898
F1
s(S'VP'
S'VADVCP'
tp899
F8
s(S'NP'
S'ANNDDP'
tp900
F2
s(S'PP'
S'PMMMP'
tp901
F1
s(S'NP'
S'NNNNCP'
tp902
F6
s(g458
S'MDNP'
tp903
F1
s(S'NP'
S'NNAACP'
tp904
F2
s(S'NP'
S'NNNVVP'
tp905
F3
s(S'VP'
S'VVAAP'
tp906
F6
s(S'NP'
S'ADVNMMP'
tp907
F1
s(S'NP'
S'NAANP'
tp908
F1
s(S'AP'
S'AAAADP'
tp909
F2
s(S'DP'
S'DCCP'
tp910
F8
s(S'CP'
S'CDDDPPP'
tp911
F1
s(S'PP'
S'AAPDP'
tp912
F12
s(S'VP'
p913
S'ADVADVADVVDDP'
tp914
F2
s(S'VP'
S'VVVAP'
tp915
F6
s(g404
S'PDDP'
tp916
F112
s(S'MP'
S'MVDDP'
tp917
F6
s(S'VP'
S'ADVVVNP'
tp918
F5
s(S'PP'
S'ADVAPNP'
tp919
F2
s(S'NP'
S'ADVADVANADVVP'
tp920
F1
s(S'NP'
S'NNNADVVP'
tp921
F1
s(g158
S'NNVP'
tp922
F186
s(S'MP'
S'MADVVDDP'
tp923
F1
s(g254
S'DADVADVADVANP'
tp924
F1
s(g43
S'APPPPP'
tp925
F1
s(S'PP'
S'AAPDDDP'
tp926
F1
s(S'NP'
S'NNP'
tp927
F4
s(S'VP'
S'VVDDP'
tp928
F11
s(S'DP'
S'DAANP'
tp929
F38
s(S'NP'
S'NADVAVP'
tp930
F4
s(S'PP'
S'AAAPAP'
tp931
F1
s(S'AP'
S'ADDP'
tp932
F85
s(S'VP'
S'ADVADVADVVNNP'
tp933
F2
s(g540
S'PNNNNP'
tp934
F2
s(S'VP'
S'ADVVVAP'
tp935
F4
s(g146
S'ADVPPNP'
tp936
F10
s(g913
S'VADVADVADVVP'
tp937
F1
s(S'CP'
p938
S'CADVADVDPP'
tp939
F13
s(S'CP'
S'ADVADVADVCDP'
tp940
F1
s(g349
S'DPPP'
tp941
F240
s(S'PP'
S'ADVPPANNP'
tp942
F1
s(S'DP'
S'DAVVP'
tp943
F3
s(S'MP'
S'MADVADVADVVDDP'
tp944
F1
s(S'DP'
S'AADPPP'
tp945
F2
s(S'VP'
S'VANNP'
tp946
F3
s(S'NP'
S'NNAVP'
tp947
F3
s(S'AP'
S'AVVP'
tp948
F20
s(g84
S'NNADVMMP'
tp949
F1
s(S'DP'
S'DDADVADVNP'
tp950
F2
s(S'DP'
S'DDDDDDPP'
tp951
F1
s(S'PP'
S'ADVPNP'
tp952
F27
s(g505
S'PPDP'
tp953
F109
s(S'PP'
S'AAAPNNP'
tp954
F1
s(S'VP'
S'ADVVANNP'
tp955
F2
s(S'DP'
S'ADVDDADVPP'
tp956
F1
s(S'PP'
S'ADVADVADVPVP'
tp957
F4
s(S'DP'
S'ADVDCP'
tp958
F2
s(S'MP'
S'ADVMVP'
tp959
F6
s(S'DP'
p960
S'ADVADVADVADVDPP'
tp961
F1
s(S'CP'
S'CAADADVPP'
tp962
F1
s(S'DP'
S'DDADVANP'
tp963
F1
s(S'AP'
S'AAPPP'
tp964
F1
s(S'DP'
S'DDCP'
tp965
F2
s(S'NP'
S'ANADVADVVP'
tp966
F1
s(S'NP'
S'NNNNNCP'
tp967
F1
s(S'PP'
S'PAANNP'
tp968
F2
s(S'PP'
S'PPADVDDP'
tp969
F1
s(S'AP'
S'AAAPP'
tp970
F3
s(S'DP'
S'ADVDADVNP'
tp971
F1
s(S'NP'
S'NAP'
tp972
F226
s(S'NP'
S'NNAAP'
tp973
F3
s(S'VP'
S'VAAAP'
tp974
F4
s(S'VP'
S'ADVAVNP'
tp975
F1
s(g293
S'VVP'
tp976
F105
s(g121
S'NNVVP'
tp977
F30
s(S'PP'
S'ADVADVPVP'
tp978
F4
s(S'AP'
S'AAADP'
tp979
F9
s(S'PP'
S'APNP'
tp980
F56
s(S'VP'
p981
S'VVVNNP'
tp982
F2
s(g422
S'DDDAPP'
tp983
F1
s(S'DP'
S'DDVVP'
tp984
F15
s(S'AP'
S'AAADDP'
tp985
F1
s(S'VP'
S'VVVNP'
tp986
F23
s(S'MP'
S'MNPP'
tp987
F1
s(S'NP'
p988
S'NNADVPP'
tp989
F1
s(S'MP'
S'MVANP'
tp990
F8
s(g471
S'ADVADVDDPP'
tp991
F3
s(S'MP'
S'MVNNP'
tp992
F4
s(g232
S'CDPP'
tp993
F1273
s(S'MP'
S'MADVADVVDDP'
tp994
F1
s(S'NP'
S'ANNNCP'
tp995
F1
s(S'MP'
S'MVVNNP'
tp996
F1
s(S'AP'
S'ADDDP'
tp997
F2
s(g334
S'AANADVADVCCP'
tp998
F1
s(S'NP'
S'NNADVADVVVP'
tp999
F1
s(S'DP'
S'ADVDVVP'
tp1000
F1
s(S'MP'
S'MMMVP'
tp1001
F1
s(g689
S'MVVAANP'
tp1002
F1
s(S'CP'
S'ADVCDP'
tp1003
F37
s(S'AP'
S'ADVAAP'
tp1004
F1
s(g643
S'ADVADVVNP'
tp1005
F7
s(S'PP'
S'ADVADVAPDDP'
tp1006
F1
s(S'NP'
S'NNNNPPP'
tp1007
F1
s(S'PP'
S'PADVADVDP'
tp1008
F3
s(S'CP'
S'ADVCDDP'
tp1009
F2
s(S'VP'
S'ADVADVVCP'
tp1010
F3
s(S'VP'
S'VADVADVDP'
tp1011
F2
s(g102
S'PPNNP'
tp1012
F16
s(S'NP'
S'NNADVADVVP'
tp1013
F1
s(S'PP'
S'PADVCP'
tp1014
F2
s(S'PP'
S'PPMP'
tp1015
F6
s(S'CP'
S'CCCCAADDP'
tp1016
F1
s(g155
S'ADVADVDPP'
tp1017
F15
s(g453
S'VDP'
tp1018
F1014
s(S'NP'
S'NADVAP'
tp1019
F7
s(S'VP'
S'AVDDP'
tp1020
F4
s(S'PP'
S'ADVADVPPNNP'
tp1021
F1
s(S'DP'
S'DADVNP'
tp1022
F12
s(g960
S'DADVADVADVADVDP'
tp1023
F1
s(S'DP'
S'DAP'
tp1024
F115
s(S'DP'
S'ADVADVADVADVDVP'
tp1025
F1
s(g32
S'CADPP'
tp1026
F98
s(S'CP'
S'CADVDDADVPP'
tp1027
F1
s(S'PP'
S'PPAVP'
tp1028
F3
s(g378
S'ADAPPP'
tp1029
F1
s(S'MP'
S'MVVNNNNNP'
tp1030
F1
s(S'MP'
S'MADVADVVDP'
tp1031
F2
s(g186
S'PPDDDP'
tp1032
F2
s(g36
S'AVPP'
tp1033
F24
s(S'DP'
S'DDNNNNP'
tp1034
F1
s(S'DP'
S'ADADVPP'
tp1035
F1
s(S'VP'
S'VVADVDP'
tp1036
F2
s(g575
S'AACDDP'
tp1037
F1
s(g938
S'CDPPPP'
tp1038
F8
s(S'VP'
S'VADVADVCCP'
tp1039
F1
s(g981
S'AAVDP'
tp1040
F6
s(S'DP'
S'AADNNP'
tp1041
F1
s(S'PP'
S'PANNP'
tp1042
F2
s(S'NP'
p1043
S'ADVANMP'
tp1044
F1
s(S'VP'
S'ADVAVADVCP'
tp1045
F1
s(S'PP'
S'APPP'
tp1046
F20
s(S'DP'
S'ADPPPP'
tp1047
F1
s(S'VP'
S'ADVVADVAP'
tp1048
F2
s(S'DP'
S'DADVADVPP'
tp1049
F6
s(S'DP'
S'DMP'
tp1050
F17
s(S'CP'
S'ACCDDP'
tp1051
F1
s(g279
S'PPPNP'
tp1052
F13
s(S'NP'
S'NADVAPP'
tp1053
F1
s(S'PP'
S'PPAANP'
tp1054
F1
s(S'NP'
S'AAANPP'
tp1055
F1
s(S'VP'
S'ADVADVADVVNP'
tp1056
F1
s(S'PP'
S'PADVADVNP'
tp1057
F5
s(S'PP'
S'PPPPNP'
tp1058
F3
s(g349
S'ADPP'
tp1059
F137
s(S'MP'
S'MNNNVP'
tp1060
F1
s(S'AP'
S'AAAAVP'
tp1061
F1
s(S'PP'
S'PPAAVP'
tp1062
F1
s(S'NP'
S'NNADVVVP'
tp1063
F3
s(S'NP'
S'NADVADVADVCCP'
tp1064
F1
s(g770
S'VADVPP'
tp1065
F6
s(S'DP'
S'DDAAPP'
tp1066
F3
s(S'PP'
S'PVVVVP'
tp1067
F2
s(S'PP'
S'ADVPVP'
tp1068
F22
s(S'DP'
S'DDDDPP'
tp1069
F1
s(S'MP'
S'MACDP'
tp1070
F1
s(S'NP'
S'NNVVVP'
tp1071
F6
s(g412
S'ADVVANP'
tp1072
F5
s(S'VP'
S'ADVADVVAANP'
tp1073
F1
s(S'PP'
S'ADVPDP'
tp1074
F11
s(S'VP'
S'VVNNNNP'
tp1075
F1
s(S'NP'
S'AANNADVAP'
tp1076
F1
s(S'PP'
S'PPPVVP'
tp1077
F3
s(S'MP'
S'MVADVAP'
tp1078
F1
s(g161
S'NCP'
tp1079
F923
s(S'VP'
S'ADVADVVVPP'
tp1080
F3
s(S'CP'
S'CADVDPPP'
tp1081
F8
s(S'VP'
S'ADVVVPP'
tp1082
F12
s(S'AP'
S'AAAP'
tp1083
F2
s(S'CP'
S'CDDADVADVPP'
tp1084
F1
s(S'NP'
S'ADVANDDP'
tp1085
F1
s(S'VP'
S'VADVADVADVADVCP'
tp1086
F1
s(S'PP'
S'ADVADVPVVVP'
tp1087
F1
s(S'DP'
S'ADVDADVCCCP'
tp1088
F1
s(S'DP'
S'AADADVPP'
tp1089
F2
s(S'PP'
S'ADVADVADVPAAP'
tp1090
F1
s(S'PP'
S'PPPADVDP'
tp1091
F1
s(S'MP'
S'MVCCP'
tp1092
F3
s(g378
S'DADVNNP'
tp1093
F2
s(g525
S'NNCCP'
tp1094
F20
s(S'MP'
S'MNVP'
tp1095
F16
s(S'PP'
S'APADVNP'
tp1096
F1
s(S'NP'
S'AANAP'
tp1097
F3
s(S'CP'
S'ADVADVCCDP'
tp1098
F2
s(S'NP'
S'AANCCP'
tp1099
F5
s(g433
S'PADVADVAP'
tp1100
F1
s(S'VP'
S'VAPP'
tp1101
F43
s(S'MP'
S'MADVVANP'
tp1102
F1
s(S'VP'
S'ADVVDP'
tp1103
F79
s(S'DP'
S'DDADVADVADVPP'
tp1104
F1
s(S'MP'
S'MAVDP'
tp1105
F1
s(g988
S'ADVADVADVNNVP'
tp1106
F1
s(S'DP'
S'DADVPP'
tp1107
F55
s(S'AP'
S'AMP'
tp1108
F5
s(S'CP'
S'CCADP'
tp1109
F15
s(g797
S'ADVNNCP'
tp1110
F2
s(S'DP'
S'ADVDAP'
tp1111
F3
s(S'PP'
S'PPADDP'
tp1112
F1
s(S'NP'
S'NNNPPP'
tp1113
F1
s(S'AP'
S'ADVAPP'
tp1114
F16
s(S'PP'
S'ADVADVPVVP'
tp1115
F1
s(S'NP'
S'NMMMP'
tp1116
F1
s(S'MP'
S'MMMPP'
tp1117
F1
s(S'MP'
S'ADVADVMNP'
tp1118
F1
s(S'CP'
S'AACDP'
tp1119
F7
s(g161
S'NNNCCP'
tp1120
F3
s(S'CP'
S'CCDDDP'
tp1121
F4
s(S'DP'
S'ADVDPPP'
tp1122
F10
s(g349
S'DVP'
tp1123
F736
s(S'VP'
S'ADVVAP'
tp1124
F18
s(S'NP'
S'ADVNPP'
tp1125
F4
s(S'NP'
S'NNCCCP'
tp1126
F2
s(S'AP'
S'AVP'
tp1127
F72
s(S'NP'
S'NADVVP'
tp1128
F81
s(g408
S'CDAAAPP'
tp1129
F3
s(g228
S'DDNP'
tp1130
F131
s(S'NP'
S'NNNMP'
tp1131
F3
s(S'VP'
S'ADVVPPP'
tp1132
F1
s(g107
S'DDPPP'
tp1133
F29
s(S'NP'
S'ADVNMP'
tp1134
F12
s(S'NP'
S'NNAP'
tp1135
F18
s(S'VP'
S'VADVADVNNP'
tp1136
F1
s(S'PP'
S'ADVADVADVPPAP'
tp1137
F1
s(S'MP'
S'MADVVCP'
tp1138
F1
s(S'PP'
S'PPANP'
tp1139
F9
s(S'CP'
S'CDADVPP'
tp1140
F32
s(S'VP'
S'VNP'
tp1141
F809
s(g424
S'VANP'
tp1142
F60
s(S'VP'
S'VADVAP'
tp1143
F34
s(S'PP'
S'PPADVNP'
tp1144
F3
s(S'CP'
S'CDDADVADVADVADVPPP'
tp1145
F1
s(S'VP'
S'ADVADVVVDP'
tp1146
F1
s(S'DP'
S'DDADVADVADVADVPPP'
tp1147
F1
s(g1043
S'NADVPPP'
tp1148
F2
s.