ccollections
defaultdict
p1
(c__builtin__
float
p2
tRp3
(S'NP'
S'AANDDP'
tp4
F1
s(S'VP'
S'ADVVADVDDP'
tp5
F1
s(S'CP'
S'CAAADPP'
tp6
F1
s(S'DP'
S'ADDPP'
tp7
F2
s(S'DP'
S'DDAP'
tp8
F1
s(S'VP'
S'ADVVVNP'
tp9
F3
s(S'PP'
p10
S'ADVADVADVPPVP'
tp11
F1
s(S'DP'
S'DAANNP'
tp12
F1
s(S'NP'
p13
S'NADDP'
tp14
F1
s(S'PP'
S'PAPP'
tp15
F11
s(S'PP'
p16
S'PADVNP'
tp17
F4
s(S'DP'
p18
S'DNP'
tp19
F205
s(S'NP'
S'ADVADVNNVVP'
tp20
F1
s(S'CP'
p21
S'CDPPP'
tp22
F33
s(S'VP'
p23
S'VADP'
tp24
F12
s(S'NP'
p25
S'ANADVADVADVVVP'
tp26
F1
s(S'CP'
S'CCADVADVADP'
tp27
F1
s(S'CP'
p28
S'CDAAPPP'
tp29
F1
s(S'DP'
S'DAAP'
tp30
F4
s(S'PP'
p31
S'PPPPPP'
tp32
F1
s(S'CP'
S'CAAAADDPP'
tp33
F1
s(S'VP'
p34
S'VAVP'
tp35
F1
s(S'PP'
p36
S'APPDP'
tp37
F3
s(S'DP'
p38
S'ADNNP'
tp39
F2
s(S'VP'
S'ADVVVVDP'
tp40
F1
s(S'VP'
S'ADVVNP'
tp41
F7
s(S'MP'
S'MVDP'
tp42
F6
s(S'PP'
S'PADVANP'
tp43
F1
s(S'PP'
p44
S'PPPP'
tp45
F20
s(S'AP'
S'ADVAPPP'
tp46
F1
s(S'VP'
S'VACP'
tp47
F1
s(S'DP'
S'DADVVP'
tp48
F5
s(S'VP'
p49
S'ADVVVANP'
tp50
F1
s(S'AP'
S'AADVPP'
tp51
F1
s(S'NP'
p52
S'AANADVADVVVP'
tp53
F1
s(S'NP'
S'NADVVVP'
tp54
F7
s(S'VP'
p55
S'VCP'
tp56
F55
s(S'MP'
S'MVVANP'
tp57
F1
s(S'NP'
p58
S'AAAANPP'
tp59
F1
s(g36
S'PAP'
tp60
F59
s(S'VP'
S'VADVADVAP'
tp61
F2
s(S'PP'
p62
S'ADVPPVP'
tp63
F1
s(S'NP'
S'ANPPP'
tp64
F2
s(S'NP'
p65
S'ANADVANP'
tp66
F1
s(S'CP'
S'CCDDDDP'
tp67
F2
s(S'CP'
S'CADPPPP'
tp68
F1
s(g36
S'PNP'
tp69
F192
s(S'VP'
S'AVNNNP'
tp70
F1
s(S'DP'
p71
S'DDP'
tp72
F38
s(S'MP'
S'MADVADVVAP'
tp73
F1
s(S'NP'
S'NNNPP'
tp74
F3
s(S'NP'
S'NNDP'
tp75
F5
s(S'CP'
S'ADVCADVADP'
tp76
F1
s(S'NP'
S'ANADVAP'
tp77
F2
s(S'VP'
S'ADVADVVVCP'
tp78
F1
s(S'NP'
p79
S'NMP'
tp80
F21
s(S'VP'
S'AAVNP'
tp81
F1
s(g36
S'PDP'
tp82
F210
s(S'CP'
S'CCADVADVDP'
tp83
F2
s(S'CP'
S'CDAAPP'
tp84
F3
s(S'DP'
S'ADVADVDDAAP'
tp85
F1
s(S'VP'
S'VNNNNP'
tp86
F2
s(S'NP'
p87
S'AAANVVP'
tp88
F1
s(S'CP'
S'CDADVADVPPP'
tp89
F1
s(S'VP'
S'VVVDP'
tp90
F1
s(S'NP'
S'ADVADVADVNADVVVVP'
tp91
F1
s(S'PP'
p92
S'PADVPP'
tp93
F2
s(S'NP'
p94
S'NNADVCP'
tp95
F2
s(S'PP'
S'PPADVAP'
tp96
F1
s(S'NP'
S'ANVVVVP'
tp97
F1
s(S'NP'
S'ADVNACP'
tp98
F2
s(g71
S'DPPPP'
tp99
F7
s(S'DP'
S'DDANP'
tp100
F2
s(S'PP'
p101
S'PADVADP'
tp102
F2
s(S'NP'
p103
S'NACP'
tp104
F18
s(S'AP'
S'ADVAVP'
tp105
F2
s(g103
S'NCCP'
tp106
F21
s(S'NP'
p107
S'NNCP'
tp108
F29
s(S'DP'
S'ADVDDPP'
tp109
F2
s(S'NP'
p110
S'NADVADVVP'
tp111
F2
s(S'DP'
S'DDDDP'
tp112
F1
s(S'DP'
p113
S'DDADVADVPPP'
tp114
F1
s(S'PP'
S'PNNNNNP'
tp115
F1
s(S'VP'
S'AVNP'
tp116
F5
s(g55
S'VVADP'
tp117
F2
s(S'VP'
S'VVNNNP'
tp118
F1
s(S'DP'
S'ADANNNP'
tp119
F1
s(S'VP'
p120
S'VADVVP'
tp121
F1
s(S'PP'
S'APADVADVADVDP'
tp122
F1
s(S'AP'
S'AAAAP'
tp123
F1
s(S'CP'
S'CCCDP'
tp124
F2
s(g120
S'ADVVAP'
tp125
F4
s(S'PP'
S'ADVPPNNP'
tp126
F1
s(S'PP'
p127
S'APDP'
tp128
F38
s(g87
S'AAANPPPPP'
tp129
F1
s(S'NP'
S'NAAPPP'
tp130
F1
s(S'VP'
S'ADVVNNP'
tp131
F1
s(S'AP'
S'AADVCP'
tp132
F1
s(S'VP'
S'VVANP'
tp133
F5
s(S'VP'
S'VVVVDP'
tp134
F1
s(S'CP'
p135
S'CADADVPPP'
tp136
F1
s(S'DP'
S'DADVADVADVPP'
tp137
F1
s(S'NP'
S'ADVADVNNPP'
tp138
F1
s(S'MP'
S'MADVVNP'
tp139
F2
s(S'PP'
p140
S'PAAP'
tp141
F10
s(S'NP'
S'ADVANCP'
tp142
F2
s(g38
S'DNNP'
tp143
F44
s(S'CP'
S'CADVDDPP'
tp144
F1
s(S'DP'
S'DPPPPP'
tp145
F2
s(S'CP'
S'CDDPPPP'
tp146
F1
s(S'VP'
S'ADVADVADVVVDP'
tp147
F1
s(S'DP'
S'ADDNP'
tp148
F1
s(S'NP'
S'NNNVP'
tp149
F2
s(S'PP'
p150
S'AAPPDP'
tp151
F1
s(S'PP'
p152
S'PADVVP'
tp153
F7
s(S'DP'
S'DADVADVADVPPP'
tp154
F1
s(S'PP'
S'PADVADVADVAP'
tp155
F1
s(S'PP'
p156
S'APAP'
tp157
F3
s(S'CP'
S'ADVADVCDP'
tp158
F1
s(S'AP'
S'AAP'
tp159
F3
s(S'CP'
S'CADVADPP'
tp160
F1
s(S'NP'
p161
S'ADVANPP'
tp162
F3
s(S'VP'
S'VVVVPP'
tp163
F3
s(S'VP'
S'VADVADVNP'
tp164
F1
s(S'MP'
S'MPVP'
tp165
F1
s(S'DP'
p166
S'ADADVDP'
tp167
F1
s(S'PP'
S'ADVADVADVPMP'
tp168
F1
s(S'PP'
S'PAANP'
tp169
F4
s(S'PP'
p170
S'PPADVADVNNP'
tp171
F1
s(S'PP'
p172
S'PPVVP'
tp173
F3
s(S'MP'
p174
S'MVNP'
tp175
F6
s(S'NP'
S'ANAAP'
tp176
F1
s(S'DP'
S'ADVADNP'
tp177
F1
s(g140
S'PAVP'
tp178
F10
s(S'PP'
p179
S'ADVADVPPVP'
tp180
F1
s(S'VP'
S'VVVPP'
tp181
F1
s(S'MP'
S'MADVVPP'
tp182
F1
s(S'DP'
S'DADP'
tp183
F4
s(S'AP'
S'ADVADP'
tp184
F5
s(S'AP'
S'APP'
tp185
F28
s(S'VP'
p186
S'ADVADVVVNP'
tp187
F1
s(S'AP'
p188
S'ADVAAVP'
tp189
F1
s(S'PP'
S'APVP'
tp190
F7
s(g186
S'VVNP'
tp191
F17
s(S'NP'
S'ANNP'
tp192
F1
s(S'PP'
S'PPPNNP'
tp193
F2
s(S'PP'
S'PPVP'
tp194
F19
s(S'VP'
S'VADVDP'
tp195
F2
s(S'VP'
S'VVADVAP'
tp196
F1
s(S'VP'
S'VAAP'
tp197
F6
s(S'NP'
S'ANDP'
tp198
F14
s(S'NP'
S'NVVP'
tp199
F38
s(S'PP'
p200
S'AAPVP'
tp201
F3
s(g36
S'PPADP'
tp202
F2
s(S'VP'
S'VMP'
tp203
F1
s(S'VP'
S'VVNNP'
tp204
F5
s(g21
S'CDAPP'
tp205
F22
s(S'DP'
S'ADVADVP'
tp206
F2
s(S'VP'
S'VVAPP'
tp207
F1
s(g71
S'ADNP'
tp208
F17
s(S'VP'
S'ADVVACP'
tp209
F1
s(S'PP'
p210
S'PADP'
tp211
F18
s(g49
S'ADVVVCP'
tp212
F1
s(S'NP'
S'ANDDP'
tp213
F1
s(S'DP'
S'DADVAP'
tp214
F1
s(S'DP'
p215
S'DAPP'
tp216
F39
s(S'VP'
p217
S'AVVP'
tp218
F2
s(S'VP'
S'ADVADVVPP'
tp219
F1
s(S'NP'
p220
S'NNNAVP'
tp221
F1
s(g217
S'ADVADVVDP'
tp222
F3
s(S'PP'
S'PPPDP'
tp223
F2
s(g18
S'DAAPPP'
tp224
F1
s(S'AP'
S'AAPPP'
tp225
F1
s(g58
S'NNNCCCP'
tp226
F1
s(S'DP'
S'DAAANP'
tp227
F1
s(S'DP'
p228
S'DADVANP'
tp229
F4
s(g65
S'ANADVVVP'
tp230
F1
s(S'DP'
p231
S'ADVDNP'
tp232
F3
s(S'VP'
S'VVPP'
tp233
F18
s(S'DP'
S'DDDAAANP'
tp234
F1
s(g174
S'MVPP'
tp235
F4
s(S'DP'
S'ADVP'
tp236
F6
s(S'CP'
p237
S'CDDPPP'
tp238
F5
s(g103
S'NNPP'
tp239
F17
s(g166
S'DADVPPP'
tp240
F1
s(S'NP'
p241
S'ANVP'
tp242
F18
s(g38
S'DNNNP'
tp243
F4
s(S'AP'
S'ANP'
tp244
F1
s(S'NP'
S'ANAP'
tp245
F3
s(S'VP'
S'ADVVCP'
tp246
F2
s(S'PP'
S'PMP'
tp247
F5
s(S'CP'
S'CCDP'
tp248
F36
s(S'VP'
S'VADVANP'
tp249
F3
s(S'VP'
S'VADVADVANP'
tp250
F1
s(S'NP'
S'NVVVP'
tp251
F2
s(S'CP'
S'CDDDPP'
tp252
F2
s(g101
S'PPADVVP'
tp253
F1
s(S'NP'
S'NAAADP'
tp254
F2
s(g152
S'PNNNP'
tp255
F3
s(S'NP'
p256
S'ANMMP'
tp257
F1
s(g150
S'AAPNP'
tp258
F1
s(g127
S'PPP'
tp259
F68
s(S'NP'
p260
S'NAVP'
tp261
F9
s(S'PP'
S'PADVAP'
tp262
F1
s(S'DP'
p263
S'DDNNNP'
tp264
F1
s(S'VP'
S'VVVVCCP'
tp265
F1
s(S'PP'
S'PADDP'
tp266
F1
s(S'DP'
S'ADVDVP'
tp267
F4
s(S'NP'
S'NAAAP'
tp268
F1
s(S'NP'
p269
S'NCCCP'
tp270
F3
s(S'NP'
p271
S'NNNNNADVVP'
tp272
F1
s(S'DP'
S'DADVADVPPP'
tp273
F1
s(S'AP'
S'AADVVP'
tp274
F1
s(g31
S'PPPPDP'
tp275
F1
s(g55
S'VPP'
tp276
F115
s(S'DP'
p277
S'ADVDDNP'
tp278
F2
s(S'NP'
S'NNNCP'
tp279
F2
s(S'PP'
S'PADVDP'
tp280
F3
s(S'DP'
S'DANNP'
tp281
F2
s(g237
S'CDDPP'
tp282
F29
s(S'DP'
S'DAAPP'
tp283
F6
s(g127
S'PVVP'
tp284
F15
s(S'CP'
p285
S'CADPPP'
tp286
F1
s(S'AP'
S'AACP'
tp287
F8
s(g127
S'PMMP'
tp288
F1
s(S'VP'
p289
S'VPPP'
tp290
F15
s(S'MP'
S'MMACP'
tp291
F1
s(S'VP'
S'VVPPP'
tp292
F3
s(g241
S'NANP'
tp293
F1
s(S'DP'
p294
S'DVVP'
tp295
F17
s(S'NP'
S'ANMP'
tp296
F2
s(S'PP'
S'PPAP'
tp297
F2
s(S'PP'
S'ADVPPP'
tp298
F5
s(S'NP'
S'ADVADVNVP'
tp299
F2
s(S'VP'
S'VVVP'
tp300
F4
s(S'CP'
S'CADVDPP'
tp301
F10
s(g107
S'ANCP'
tp302
F33
s(g18
S'DCP'
tp303
F5
s(S'DP'
S'DVVVP'
tp304
F1
s(S'DP'
S'DADVADVADVNP'
tp305
F1
s(S'NP'
S'NNVVVVP'
tp306
F1
s(S'DP'
p307
S'DDDP'
tp308
F6
s(S'DP'
S'DDADVPP'
tp309
F3
s(S'NP'
p310
S'ANVVP'
tp311
F1
s(g289
S'VVDP'
tp312
F19
s(g103
S'NPPP'
tp313
F20
s(S'NP'
p314
S'ADVANAAP'
tp315
F1
s(g215
S'DAVP'
tp316
F6
s(S'AP'
p317
S'ACP'
tp318
F31
s(S'PP'
S'ADVPNNNP'
tp319
F1
s(S'PP'
S'PPNP'
tp320
F30
s(S'PP'
S'APPPP'
tp321
F1
s(g103
S'NAADP'
tp322
F1
s(g179
S'APADVADVPPP'
tp323
F1
s(S'NP'
S'NNNNCCP'
tp324
F1
s(S'VP'
S'VAANNP'
tp325
F1
s(S'CP'
S'CDDADVPP'
tp326
F1
s(g317
S'ADP'
tp327
F99
s(S'CP'
p328
S'CCCDDDP'
tp329
F1
s(S'NP'
S'NAMMP'
tp330
F1
s(S'DP'
S'DDPPPP'
tp331
F1
s(S'NP'
p332
S'AAANNCP'
tp333
F2
s(S'VP'
S'VAAANP'
tp334
F1
s(S'DP'
S'DVVVVP'
tp335
F1
s(S'AP'
S'AAADP'
tp336
F4
s(S'VP'
S'VVAP'
tp337
F7
s(S'NP'
S'NNAPP'
tp338
F1
s(S'NP'
p339
S'NPP'
tp340
F175
s(S'VP'
S'ADVADVVAP'
tp341
F1
s(g339
S'NVP'
tp342
F199
s(S'CP'
S'ADVCCDDP'
tp343
F1
s(g44
S'PAAVP'
tp344
F2
s(g170
S'PPPPVP'
tp345
F1
s(S'VP'
S'VDDP'
tp346
F15
s(g310
S'AANNVP'
tp347
F1
s(S'DP'
S'DMP'
tp348
F4
s(S'DP'
S'DADVAPP'
tp349
F1
s(g307
S'DDPP'
tp350
F46
s(S'NP'
p351
S'ANPP'
tp352
F46
s(S'PP'
S'PPPPP'
tp353
F4
s(S'PP'
S'ADVADVPDP'
tp354
F1
s(S'DP'
S'ADVDPP'
tp355
F17
s(g18
S'ADDP'
tp356
F2
s(S'NP'
S'NADVAAP'
tp357
F1
s(S'PP'
S'PPPPPPP'
tp358
F1
s(S'CP'
S'CAADPP'
tp359
F1
s(S'DP'
p360
S'DADVADVVP'
tp361
F1
s(S'NP'
S'NAACP'
tp362
F1
s(S'PP'
S'PNNP'
tp363
F39
s(S'PP'
S'APNNP'
tp364
F4
s(g277
S'DAAANNP'
tp365
F1
s(S'MP'
S'MADVVAAANP'
tp366
F1
s(S'DP'
S'AAADPP'
tp367
F3
s(g34
S'AVAP'
tp368
F2
s(S'MP'
S'MMVP'
tp369
F2
s(S'PP'
S'PADVDDP'
tp370
F1
s(g107
S'ADVNCP'
tp371
F4
s(g71
S'ADPP'
tp372
F36
s(g339
S'NAPPP'
tp373
F1
s(S'CP'
S'ACDP'
tp374
F22
s(g23
S'VCCP'
tp375
F6
s(S'AP'
S'ADVANP'
tp376
F1
s(g10
S'PADVADVADVPPP'
tp377
F1
s(S'NP'
S'NNACP'
tp378
F2
s(S'CP'
S'CDADVPPP'
tp379
F1
s(S'VP'
S'VAP'
tp380
F68
s(S'VP'
S'VVVVNP'
tp381
F1
s(g277
S'DDDPP'
tp382
F5
s(g285
S'ADVCDDP'
tp383
F2
s(S'NP'
p384
S'AANNCP'
tp385
F2
s(g200
S'PAAPP'
tp386
F2
s(S'DP'
S'DDDPPP'
tp387
F1
s(S'VP'
S'ADVAVDP'
tp388
F1
s(S'DP'
S'DADVDP'
tp389
F1
s(S'VP'
S'ADVVVDP'
tp390
F3
s(S'PP'
S'PPPVP'
tp391
F4
s(S'AP'
S'AADDP'
tp392
F1
s(g360
S'DADVAAP'
tp393
F1
s(S'VP'
S'VAANP'
tp394
F2
s(S'NP'
S'NADVADVCP'
tp395
F1
s(g161
S'NVVVVP'
tp396
F2
s(S'CP'
S'CCCAAADP'
tp397
F1
s(S'AP'
S'AMMP'
tp398
F1
s(S'DP'
S'DDADVNP'
tp399
F1
s(S'PP'
S'PANP'
tp400
F27
s(S'DP'
S'AADNP'
tp401
F1
s(S'NP'
S'NADVDDP'
tp402
F1
s(S'NP'
S'AANMP'
tp403
F1
s(S'AP'
S'AAVP'
tp404
F1
s(S'AP'
S'AVVP'
tp405
F5
s(g339
S'NDDP'
tp406
F6
s(g135
S'CDDADVADVPPP'
tp407
F1
s(S'AP'
S'ACCP'
tp408
F3
s(S'AP'
S'APPPP'
tp409
F1
s(g339
S'NDP'
tp410
F60
s(S'NP'
p411
S'AAANVP'
tp412
F1
s(g314
S'NNADVADVDP'
tp413
F1
s(g231
S'DDVP'
tp414
F9
s(S'VP'
S'ADVVAAANP'
tp415
F1
s(g113
S'ADADVPPP'
tp416
F1
s(S'NP'
p417
S'AANVP'
tp418
F3
s(S'VP'
S'ADVVVNNP'
tp419
F1
s(S'VP'
S'VNNNP'
tp420
F2
s(S'VP'
S'VVAAANNP'
tp421
F1
s(g16
S'PCP'
tp422
F4
s(S'NP'
S'NNPPP'
tp423
F4
s(S'PP'
S'PAADP'
tp424
F1
s(g52
S'ADVNNVP'
tp425
F3
s(S'VP'
S'VPPPP'
tp426
F2
s(S'PP'
S'PPPVVP'
tp427
F1
s(g103
S'NNNDP'
tp428
F1
s(g188
S'ADVACP'
tp429
F6
s(S'DP'
S'ADPPP'
tp430
F4
s(S'MP'
S'MVCP'
tp431
F3
s(S'CP'
S'CCDDP'
tp432
F6
s(S'PP'
S'PPAAAANP'
tp433
F1
s(S'NP'
S'NAAP'
tp434
F4
s(S'MP'
S'MVMP'
tp435
F1
s(g271
S'NNNNPPPP'
tp436
F1
s(g260
S'NNVVP'
tp437
F10
s(S'NP'
S'NNNNVP'
tp438
F1
s(S'VP'
S'VVCP'
tp439
F13
s(S'PP'
p440
S'PADVADVPP'
tp441
F1
s(S'NP'
p442
S'AANCP'
tp443
F1
s(S'VP'
p444
S'VDP'
tp445
F158
s(g411
S'NNDDP'
tp446
F3
s(S'VP'
S'ADVVPP'
tp447
F5
s(S'VP'
S'VNNP'
tp448
F10
s(S'NP'
p449
S'AAANDDDP'
tp450
F1
s(S'AP'
S'AADVDP'
tp451
F2
s(g351
S'NADP'
tp452
F5
s(g18
S'DDNP'
tp453
F31
s(S'CP'
S'ACADVDP'
tp454
F1
s(g220
S'NADVCP'
tp455
F6
s(S'DP'
S'DDNNP'
tp456
F1
s(S'PP'
p457
S'AAPPP'
tp458
F1
s(S'NP'
S'ADVADVANPP'
tp459
F1
s(S'DP'
S'DDDPPPPPP'
tp460
F1
s(g38
S'AADPP'
tp461
F2
s(S'PP'
S'ADVADVPPDP'
tp462
F1
s(S'DP'
S'AAAADDPP'
tp463
F1
s(S'AP'
S'AADVADVVP'
tp464
F1
s(S'CP'
S'CDPPPPP'
tp465
F2
s(S'DP'
S'DADVADVAP'
tp466
F1
s(S'CP'
S'CDDADVPPP'
tp467
F1
s(S'CP'
S'CAAADDPP'
tp468
F1
s(S'PP'
S'ADVADVADVPPDP'
tp469
F1
s(S'PP'
S'PPPADVDP'
tp470
F1
s(S'AP'
S'AAPP'
tp471
F5
s(S'AP'
S'ADVADVACCP'
tp472
F1
s(S'VP'
S'VVCCP'
tp473
F2
s(S'DP'
S'DADVADVNP'
tp474
F1
s(g103
S'NAPP'
tp475
F23
s(S'NP'
S'NADVDP'
tp476
F4
s(S'VP'
S'VVVCP'
tp477
F1
s(S'VP'
S'VVAAAPP'
tp478
F1
s(S'NP'
S'ANCCP'
tp479
F5
s(g13
S'AANPP'
tp480
F3
s(S'CP'
S'CADDPP'
tp481
F1
s(S'MP'
S'MPANP'
tp482
F1
s(S'PP'
S'PAAAP'
tp483
F1
s(S'CP'
S'CDDAPP'
tp484
F1
s(S'NP'
S'ADVANVVP'
tp485
F1
s(S'MP'
S'MVAP'
tp486
F2
s(g36
S'PVP'
tp487
F115
s(S'VP'
S'VADVPPP'
tp488
F1
s(S'AP'
S'ADVADVAPP'
tp489
F3
s(S'PP'
S'PPADVVVP'
tp490
F1
s(S'VP'
S'VADVCCP'
tp491
F1
s(S'NP'
S'NNNNNVP'
tp492
F1
s(S'AP'
S'ADVAACP'
tp493
F1
s(S'NP'
S'ANNCP'
tp494
F3
s(g294
S'ADVADVADVDNP'
tp495
F1
s(g25
S'NNADVADVPPP'
tp496
F1
s(g18
S'DPP'
tp497
F235
s(g228
S'DDDVVP'
tp498
F1
s(S'NP'
S'NADVADVVVP'
tp499
F3
s(S'DP'
S'DDADVPPP'
tp500
F1
s(g71
S'DANP'
tp501
F68
s(S'NP'
S'NADVADP'
tp502
F1
s(g36
S'AAPPVP'
tp503
F1
s(S'DP'
S'ADVADVADPP'
tp504
F1
s(S'PP'
S'PDDDP'
tp505
F2
s(g332
S'NNAPPP'
tp506
F2
s(S'VP'
S'VADVCP'
tp507
F2
s(S'PP'
S'AAPANNP'
tp508
F1
s(S'MP'
S'MDNP'
tp509
F2
s(g62
S'PADVPPP'
tp510
F2
s(S'CP'
S'AACDDDP'
tp511
F1
s(S'AP'
S'ADVADVADVADDP'
tp512
F1
s(S'NP'
S'ANNAAPP'
tp513
F1
s(S'PP'
S'AAPDP'
tp514
F2
s(g217
S'VVDDP'
tp515
F2
s(g36
S'PDDP'
tp516
F28
s(S'MP'
S'MVDDP'
tp517
F1
s(g457
S'ADVAPNP'
tp518
F1
s(g65
S'ADVANADVVVP'
tp519
F1
s(g103
S'NNVP'
tp520
F36
s(S'PP'
S'AAAPDDP'
tp521
F1
s(S'VP'
S'AVDP'
tp522
F14
s(S'NP'
S'NNP'
tp523
F1
s(S'DP'
S'ADVADPP'
tp524
F2
s(S'DP'
S'DAANP'
tp525
F8
s(S'NP'
S'ANADVADVVVP'
tp526
F1
s(S'AP'
S'ADDP'
tp527
F4
s(g210
S'ADVPPNP'
tp528
F4
s(S'NP'
S'AAAAAAANNCCP'
tp529
F1
s(g71
S'DPPP'
tp530
F51
s(S'PP'
S'ADVADVPPNP'
tp531
F1
s(S'NP'
S'NNNADVVVP'
tp532
F1
s(S'PP'
S'ADVPNP'
tp533
F8
s(S'PP'
S'PPDP'
tp534
F35
s(S'MP'
S'MAVDP'
tp535
F1
s(S'CP'
S'CAADADVPP'
tp536
F1
s(S'DP'
S'DDCP'
tp537
F1
s(S'PP'
S'PAANNP'
tp538
F1
s(g94
S'NAP'
tp539
F22
s(S'VP'
p540
S'VVP'
tp541
F6
s(S'DP'
S'DDAPP'
tp542
F3
s(g440
S'ADVADVPVP'
tp543
F1
s(g156
S'APNP'
tp544
F20
s(S'DP'
S'DDVVP'
tp545
F1
s(S'VP'
S'VVVNP'
tp546
F1
s(S'MP'
S'MVNNP'
tp547
F2
s(g28
S'CDPP'
tp548
F195
s(S'NP'
S'ANNNCP'
tp549
F1
s(S'AP'
S'ADDDP'
tp550
F1
s(S'MP'
S'MVADVPP'
tp551
F1
s(S'DP'
S'ADVDVVP'
tp552
F1
s(S'CP'
S'ADVCDP'
tp553
F8
s(S'AP'
S'ADVAAP'
tp554
F1
s(S'VP'
S'ADVADVVNP'
tp555
F2
s(S'PP'
S'PPPNNNNNP'
tp556
F1
s(g263
S'AAADDPP'
tp557
F1
s(S'PP'
S'APADVADVNNP'
tp558
F1
s(g127
S'PPNNP'
tp559
F4
s(g172
S'ADVAPPP'
tp560
F1
s(S'NP'
S'NNNAACP'
tp561
F1
s(S'DP'
S'ADVADVDPP'
tp562
F3
s(S'NP'
p563
S'AANVVVVP'
tp564
F1
s(S'PP'
S'ADVADVPPNNP'
tp565
F1
s(S'DP'
S'DADVNP'
tp566
F3
s(g18
S'DAP'
tp567
F25
s(S'CP'
S'CADPP'
tp568
F26
s(S'NP'
S'NADVAVP'
tp569
F1
s(S'VP'
S'ADVADVVVPP'
tp570
F1
s(S'MP'
S'MADVADVVDP'
tp571
F1
s(S'VP'
S'AVPP'
tp572
F6
s(S'VP'
S'VVADVDP'
tp573
F1
s(S'PP'
S'PPADVADVDDP'
tp574
F1
s(S'CP'
S'CDPPPP'
tp575
F3
s(S'VP'
S'AAVDP'
tp576
F1
s(S'PP'
S'PANNP'
tp577
F5
s(g152
S'APPP'
tp578
F8
s(S'DP'
S'ADPPPP'
tp579
F1
s(g563
S'AANVVP'
tp580
F1
s(S'NP'
S'NNNNADVVP'
tp581
F1
s(S'PP'
S'PPPNP'
tp582
F2
s(g384
S'AAANPP'
tp583
F1
s(S'AP'
S'AADP'
tp584
F18
s(g540
S'VADVPP'
tp585
F6
s(S'PP'
p586
S'ADVPVP'
tp587
F3
s(S'DP'
S'DDDDPP'
tp588
F2
s(S'PP'
S'PPVVVP'
tp589
F1
s(S'VP'
S'ADVVANP'
tp590
F1
s(g92
S'ADVPDP'
tp591
F6
s(S'VP'
S'ADVVADP'
tp592
F1
s(S'NP'
S'ANNPP'
tp593
F5
s(g351
S'NCP'
tp594
F168
s(S'VP'
S'ADVVVPP'
tp595
F2
s(g586
S'PPADVNNP'
tp596
F2
s(S'NP'
S'ADVANDP'
tp597
F1
s(S'DP'
S'ADVVP'
tp598
F2
s(S'DP'
S'AAADADVNNP'
tp599
F1
s(g449
S'NNNNNNNAAANP'
tp600
F1
s(S'DP'
S'AADADVPP'
tp601
F1
s(S'NP'
S'AANDP'
tp602
F2
s(S'NP'
S'NNCCP'
tp603
F6
s(S'MP'
S'MNVP'
tp604
F1
s(g256
S'AANAP'
tp605
F1
s(g110
S'AANCCP'
tp606
F2
s(S'VP'
S'VAPP'
tp607
F8
s(S'VP'
S'ADVVDP'
tp608
F5
s(g228
S'DADVPP'
tp609
F11
s(S'DP'
S'ADVDAP'
tp610
F1
s(S'AP'
S'ADVAPP'
tp611
F11
s(S'DP'
S'DDADVAPP'
tp612
F1
s(S'CP'
S'CDDADVAPP'
tp613
F1
s(S'CP'
S'AACDP'
tp614
F1
s(g417
S'NNNCCP'
tp615
F2
s(g328
S'CCDDDP'
tp616
F1
s(g18
S'DVP'
tp617
F131
s(S'AP'
S'AADVADVPP'
tp618
F1
s(S'AP'
S'AVP'
tp619
F17
s(g269
S'NADVVP'
tp620
F5
s(g18
S'DDPPP'
tp621
F7
s(g79
S'ADVNMP'
tp622
F2
s(g442
S'NNAP'
tp623
F2
s(g174
S'MADVVCP'
tp624
F1
s(S'PP'
S'PPANP'
tp625
F1
s(S'CP'
S'CDADVPP'
tp626
F6
s(g444
S'VNP'
tp627
F96
s(S'VP'
S'VANP'
tp628
F8
s(S'VP'
S'VADVAP'
tp629
F18
s(S'VP'
S'ADVADVVVDP'
tp630
F1
s(S'NP'
S'NADVPPP'
tp631
F1
s.