ccollections
defaultdict
p1
(c__builtin__
float
p2
tRp3
(S'PP'
S'ADVADVPPAP'
tp4
F1
s(S'NP'
S'AANDDP'
tp5
F1
s(S'DP'
S'ADDPP'
tp6
F1
s(S'DP'
p7
S'DDAP'
tp8
F3
s(S'VP'
S'ADVVVNP'
tp9
F1
s(S'DP'
S'ADVDDVVP'
tp10
F1
s(S'PP'
p11
S'PAPP'
tp12
F10
s(S'PP'
S'PADVNP'
tp13
F9
s(S'DP'
p14
S'DNP'
tp15
F291
s(S'DP'
p16
S'AADDNP'
tp17
F1
s(S'NP'
S'ADVNDP'
tp18
F2
s(S'CP'
p19
S'CDPPP'
tp20
F52
s(S'VP'
p21
S'VADP'
tp22
F17
s(S'CP'
S'CDAAPPP'
tp23
F1
s(S'DP'
p24
S'DAAP'
tp25
F9
s(S'PP'
S'PPPPPP'
tp26
F1
s(S'VP'
p27
S'VAVP'
tp28
F1
s(S'PP'
S'APPDP'
tp29
F1
s(S'VP'
S'ADVADVADVVVPP'
tp30
F1
s(S'DP'
S'DAADP'
tp31
F1
s(S'DP'
S'ADNNP'
tp32
F6
s(S'VP'
S'AVADVDP'
tp33
F1
s(S'PP'
S'APVP'
tp34
F14
s(S'MP'
S'MVDP'
tp35
F16
s(S'PP'
S'PADVANP'
tp36
F4
s(S'PP'
p37
S'PPPP'
tp38
F33
s(S'DP'
S'DDDNP'
tp39
F2
s(S'VP'
p40
S'VACP'
tp41
F10
s(S'PP'
S'PPPAAP'
tp42
F2
s(S'PP'
p43
S'PVVVP'
tp44
F1
s(S'DP'
S'DADVVP'
tp45
F5
s(S'VP'
S'ADVVVANP'
tp46
F1
s(S'VP'
p47
S'ADVVADVAAVP'
tp48
F1
s(S'PP'
S'PADVNNP'
tp49
F1
s(S'AP'
S'AADVPP'
tp50
F1
s(S'NP'
S'NADVACP'
tp51
F1
s(S'NP'
S'NDDDP'
tp52
F1
s(S'NP'
S'NADVVVP'
tp53
F10
s(S'CP'
S'CADVDAPP'
tp54
F1
s(S'VP'
p55
S'VCP'
tp56
F120
s(S'NP'
p57
S'NMMP'
tp58
F3
s(S'VP'
S'ADVVAAP'
tp59
F2
s(S'VP'
S'VVVVDP'
tp60
F1
s(S'PP'
p61
S'PAP'
tp62
F148
s(S'VP'
S'VADVADVAP'
tp63
F7
s(S'NP'
S'ANNCCP'
tp64
F1
s(S'PP'
S'ADVPPVP'
tp65
F3
s(S'VP'
S'VADVNP'
tp66
F3
s(S'NP'
S'NNNAP'
tp67
F2
s(S'NP'
S'NPPPP'
tp68
F1
s(S'PP'
p69
S'PNP'
tp70
F272
s(S'DP'
p71
S'DDP'
tp72
F62
s(S'MP'
S'MADVADVVAP'
tp73
F1
s(S'VP'
S'ADVVDDP'
tp74
F2
s(S'VP'
p75
S'VCCP'
tp76
F16
s(S'MP'
S'MCDP'
tp77
F4
s(S'NP'
S'ADVADVANAP'
tp78
F1
s(S'CP'
S'AACCDP'
tp79
F1
s(g16
S'DDAANP'
tp80
F1
s(S'DP'
S'DADVDDP'
tp81
F1
s(S'VP'
S'ADVADVADVVVAP'
tp82
F1
s(S'AP'
S'ADVADVAVVP'
tp83
F1
s(S'NP'
p84
S'NMP'
tp85
F58
s(S'PP'
p86
S'PDP'
tp87
F280
s(S'CP'
S'CCADVADVDP'
tp88
F1
s(S'CP'
S'CDAAPP'
tp89
F1
s(S'NP'
S'ADVNVVP'
tp90
F1
s(S'DP'
S'DDADVADVPPP'
tp91
F2
s(g55
S'AVAAP'
tp92
F1
s(S'NP'
S'NACCP'
tp93
F2
s(S'PP'
p94
S'ADVPAAP'
tp95
F1
s(S'NP'
S'NADVADVADVVP'
tp96
F1
s(g43
S'PADVPP'
tp97
F1
s(S'MP'
S'MVADVADVADVADVADVVP'
tp98
F1
s(S'VP'
p99
S'VVADVNP'
tp100
F1
s(S'PP'
S'PPADVAP'
tp101
F2
s(S'DP'
p102
S'DPPPP'
tp103
F6
s(S'DP'
p104
S'DDANP'
tp105
F1
s(S'NP'
p106
S'NACP'
tp107
F18
s(S'AP'
S'ADVAVP'
tp108
F3
s(g84
S'NCCP'
tp109
F60
s(S'CP'
S'CDDDDPPP'
tp110
F1
s(S'VP'
S'VVCCCP'
tp111
F2
s(S'NP'
p112
S'NNCP'
tp113
F53
s(S'DP'
S'ADVDDPP'
tp114
F7
s(S'NP'
S'NADVADVVP'
tp115
F3
s(g24
S'DDDDP'
tp116
F3
s(S'DP'
p117
S'DDAPP'
tp118
F5
s(g40
S'AVNP'
tp119
F8
s(S'VP'
S'VVADP'
tp120
F1
s(S'NP'
S'ADVNDDP'
tp121
F1
s(S'NP'
S'NADVADVPP'
tp122
F1
s(S'PP'
S'ADVPVVP'
tp123
F1
s(S'PP'
S'ADVAPDP'
tp124
F1
s(S'VP'
S'AVDDDP'
tp125
F1
s(S'VP'
p126
S'VADVVP'
tp127
F4
s(S'MP'
S'MVPPP'
tp128
F1
s(S'VP'
S'ADVADVADVVVPPP'
tp129
F1
s(S'PP'
p130
S'ADVAPVP'
tp131
F1
s(S'AP'
S'AAAAP'
tp132
F1
s(S'CP'
S'CCCDP'
tp133
F3
s(S'VP'
S'ADVVAP'
tp134
F4
s(S'NP'
S'ADVANADVCP'
tp135
F1
s(g11
S'APDP'
tp136
F32
s(S'VP'
S'ADVVNNP'
tp137
F2
s(S'AP'
S'AADVCP'
tp138
F5
s(S'VP'
p139
S'VVANP'
tp140
F1
s(S'PP'
p141
S'ADVPNNP'
tp142
F1
s(S'VP'
S'ADVVVP'
tp143
F2
s(S'PP'
p144
S'ADVADVADVPDP'
tp145
F1
s(S'NP'
S'ADVADVNPPP'
tp146
F1
s(S'MP'
S'MADVVNP'
tp147
F1
s(S'NP'
S'ADVANCP'
tp148
F4
s(S'DP'
p149
S'DNNP'
tp150
F48
s(S'CP'
S'CADVDDPP'
tp151
F5
s(S'CP'
p152
S'CCADVDP'
tp153
F4
s(S'VP'
S'ADVADVADVVVDP'
tp154
F1
s(g139
S'VVACP'
tp155
F1
s(S'DP'
p156
S'DADVADVADVDP'
tp157
F1
s(S'NP'
p158
S'NNNNADVCP'
tp159
F1
s(S'VP'
S'VADVNNP'
tp160
F1
s(S'PP'
p161
S'AAPPDP'
tp162
F1
s(S'PP'
S'PADVVP'
tp163
F4
s(g94
S'PADVADVADVAP'
tp164
F1
s(S'PP'
S'APAP'
tp165
F8
s(S'AP'
S'APP'
tp166
F50
s(S'NP'
S'AANADVVVP'
tp167
F1
s(S'PP'
S'PPADP'
tp168
F2
s(S'MP'
S'ADVMAVP'
tp169
F1
s(S'CP'
S'CADVADPP'
tp170
F2
s(S'DP'
S'DAAAPP'
tp171
F1
s(g84
S'ADVADVNCCP'
tp172
F2
s(S'VP'
S'VVVVPP'
tp173
F1
s(S'DP'
S'DAAVP'
tp174
F3
s(S'CP'
S'CDDDDPP'
tp175
F1
s(S'PP'
S'PAANP'
tp176
F3
s(S'NP'
S'NADVADVPPP'
tp177
F1
s(S'PP'
S'PPVVP'
tp178
F4
s(S'MP'
S'MVNP'
tp179
F16
s(S'AP'
p180
S'ADVAADP'
tp181
F3
s(g69
S'PAVP'
tp182
F16
s(S'MP'
S'ADVMVP'
tp183
F2
s(g141
S'ADVAPNNP'
tp184
F2
s(S'PP'
p185
S'PPADVNNP'
tp186
F1
s(S'CP'
S'CADVADVADPP'
tp187
F1
s(S'MP'
S'MVVVAANP'
tp188
F1
s(S'PP'
S'PCCP'
tp189
F1
s(S'NP'
p190
S'NMMMMP'
tp191
F1
s(S'NP'
S'ADVADVANDP'
tp192
F1
s(S'AP'
S'ADVACCP'
tp193
F2
s(S'DP'
S'DADP'
tp194
F1
s(S'DP'
S'ADVDVVP'
tp195
F1
s(S'AP'
S'ADVADP'
tp196
F7
s(S'CP'
S'ADVADVCDP'
tp197
F1
s(S'DP'
S'ADVDDP'
tp198
F1
s(S'PP'
S'APDDP'
tp199
F3
s(S'VP'
S'ADVADVVVNP'
tp200
F1
s(S'DP'
p201
S'ADVDDDP'
tp202
F1
s(S'DP'
S'DAAAVP'
tp203
F1
s(S'VP'
p204
S'ADVVNP'
tp205
F5
s(S'PP'
S'AAAPPPP'
tp206
F1
s(S'MP'
S'MADVADVVPP'
tp207
F1
s(S'MP'
S'MNNCP'
tp208
F1
s(S'MP'
S'MNCP'
tp209
F1
s(S'VP'
S'ADVADVADVVCP'
tp210
F1
s(S'VP'
p211
S'VVNP'
tp212
F22
s(S'VP'
S'VADVADVAAP'
tp213
F1
s(S'CP'
S'ADVCCDP'
tp214
F3
s(g141
S'PPVP'
tp215
F24
s(S'VP'
p216
S'VADVDP'
tp217
F5
s(S'VP'
S'VVADVAP'
tp218
F2
s(S'VP'
S'VAAP'
tp219
F13
s(S'NP'
S'ANDP'
tp220
F4
s(g84
S'NVVP'
tp221
F35
s(S'PP'
S'AAPVP'
tp222
F1
s(S'AP'
p223
S'AAP'
tp224
F11
s(S'VP'
S'VMP'
tp225
F3
s(S'VP'
S'VVNNP'
tp226
F5
s(S'CP'
S'CDAPP'
tp227
F23
s(g216
S'VVAAP'
tp228
F3
s(S'MP'
S'MMPP'
tp229
F1
s(g71
S'ADNP'
tp230
F12
s(S'DP'
S'ADVDDPPP'
tp231
F2
s(g37
S'PADP'
tp232
F25
s(g158
S'NNAADP'
tp233
F1
s(S'VP'
S'ADVVVCP'
tp234
F2
s(S'DP'
S'ADVADVDVP'
tp235
F1
s(g104
S'DADVAP'
tp236
F3
s(S'DP'
S'ADVDAANP'
tp237
F1
s(S'PP'
S'PPVVVVP'
tp238
F1
s(S'DP'
p239
S'DAPP'
tp240
F51
s(S'VP'
p241
S'AVVP'
tp242
F1
s(S'VP'
S'ADVADVVPP'
tp243
F1
s(S'MP'
S'MADVADVVNP'
tp244
F3
s(S'VP'
S'VADVAAP'
tp245
F3
s(S'VP'
S'ADVADVVDP'
tp246
F2
s(S'PP'
S'PPPDP'
tp247
F4
s(S'DP'
S'DAAPPP'
tp248
F1
s(S'MP'
S'ADVMVVVP'
tp249
F1
s(S'MP'
S'MVVAP'
tp250
F1
s(S'DP'
S'DAAANP'
tp251
F1
s(S'DP'
S'DADVANP'
tp252
F2
s(S'NP'
S'ANADVVVP'
tp253
F1
s(S'VP'
p254
S'VAAPP'
tp255
F1
s(g117
S'ADVDNP'
tp256
F3
s(S'VP'
p257
S'VVVVADVADP'
tp258
F1
s(S'VP'
p259
S'VVPP'
tp260
F21
s(S'DP'
S'DDDADVNP'
tp261
F2
s(S'MP'
S'MVPP'
tp262
F28
s(S'DP'
S'ADVP'
tp263
F12
s(S'CP'
S'CDDPPP'
tp264
F5
s(g144
S'AAPMP'
tp265
F1
s(g106
S'NNPP'
tp266
F21
s(S'MP'
S'MVADVAAP'
tp267
F1
s(S'MP'
S'MVVDP'
tp268
F2
s(g180
S'AACP'
tp269
F14
s(S'NP'
S'ANVP'
tp270
F24
s(g254
S'VVADVCCP'
tp271
F1
s(S'DP'
S'DNNNP'
tp272
F4
s(S'AP'
p273
S'AADVAAP'
tp274
F1
s(S'DP'
S'ADVDDVP'
tp275
F3
s(S'PP'
p276
S'PADVADVVP'
tp277
F1
s(S'PP'
S'PMMP'
tp278
F1
s(S'NP'
S'NNADVDDP'
tp279
F1
s(g11
S'PMP'
tp280
F20
s(g161
S'PAAPPP'
tp281
F1
s(g19
S'CCDP'
tp282
F93
s(g156
S'ADVADVADVDPP'
tp283
F2
s(S'VP'
S'VADVANP'
tp284
F1
s(S'PP'
S'PPNNNP'
tp285
F2
s(S'VP'
S'VADVADVANP'
tp286
F2
s(S'NP'
p287
S'NVVVP'
tp288
F4
s(S'CP'
S'CDDDPP'
tp289
F3
s(S'CP'
S'CDADVADVPP'
tp290
F2
s(g241
S'VVVDP'
tp291
F2
s(g276
S'PDDDDP'
tp292
F1
s(g141
S'PNNNP'
tp293
F3
s(S'CP'
p294
S'CCCCDP'
tp295
F1
s(S'AP'
S'AACCP'
tp296
F3
s(S'PP'
S'AAPNP'
tp297
F2
s(S'PP'
S'PADVVVP'
tp298
F1
s(g61
S'PPP'
tp299
F132
s(S'NP'
S'NAVP'
tp300
F11
s(S'PP'
p301
S'PADVAP'
tp302
F2
s(S'CP'
S'CADVDPPPP'
tp303
F1
s(S'DP'
S'ADVDVP'
tp304
F7
s(S'PP'
S'PPADVADVNP'
tp305
F1
s(S'NP'
S'NAAAP'
tp306
F1
s(S'NP'
S'NCCCP'
tp307
F1
s(S'PP'
S'PPPPDP'
tp308
F1
s(S'VP'
S'ADVADVVVPP'
tp309
F1
s(S'DP'
S'ADVADVDNP'
tp310
F1
s(g55
S'VPP'
tp311
F151
s(S'DP'
S'ADVDPPPP'
tp312
F1
s(S'CP'
S'ACCDP'
tp313
F2
s(S'DP'
S'ADVDDNP'
tp314
F1
s(S'NP'
p315
S'AANPPP'
tp316
F1
s(g112
S'NNNCP'
tp317
F5
s(S'PP'
S'PADVDP'
tp318
F6
s(S'CP'
S'CDADVAPP'
tp319
F1
s(S'DP'
S'DANNP'
tp320
F2
s(S'MP'
S'MADVVAP'
tp321
F2
s(g19
S'CDDPP'
tp322
F49
s(S'DP'
p323
S'DAAPP'
tp324
F5
s(S'PP'
p325
S'PVVP'
tp326
F30
s(g19
S'CADPPP'
tp327
F4
s(S'DP'
p328
S'DADVPPP'
tp329
F6
s(S'VP'
S'ADVAVDDP'
tp330
F1
s(S'VP'
p331
S'ADVVCP'
tp332
F3
s(g21
S'VPPP'
tp333
F12
s(S'DP'
S'ADADVVVP'
tp334
F1
s(S'VP'
p335
S'VVPPP'
tp336
F3
s(g331
S'ADVVVCCP'
tp337
F2
s(g61
S'PPAP'
tp338
F19
s(g239
S'DVVP'
tp339
F23
s(S'PP'
p340
S'ADVADVPPVP'
tp341
F1
s(S'NP'
S'ANMP'
tp342
F6
s(g223
S'APPP'
tp343
F3
s(g185
S'ADVPPP'
tp344
F6
s(S'NP'
S'ADVADVNVP'
tp345
F2
s(S'VP'
S'VVVP'
tp346
F10
s(S'CP'
S'CADVDPP'
tp347
F11
s(S'DP'
S'DADVAAP'
tp348
F2
s(S'NP'
p349
S'ANCP'
tp350
F37
s(g24
S'DCP'
tp351
F14
s(S'DP'
S'DVVVP'
tp352
F2
s(S'NP'
S'NNVVVVP'
tp353
F2
s(S'NP'
S'NVVVVP'
tp354
F3
s(S'DP'
S'DDDP'
tp355
F18
s(g16
S'DDADVPP'
tp356
F3
s(S'MP'
S'MVVCCP'
tp357
F1
s(S'MP'
S'MAADP'
tp358
F1
s(S'NP'
S'ANVVP'
tp359
F2
s(g75
S'VVDP'
tp360
F31
s(S'NP'
S'NPPP'
tp361
F18
s(S'DP'
S'ADDDP'
tp362
F1
s(S'DP'
S'DAVP'
tp363
F21
s(S'VP'
S'AVVVP'
tp364
F1
s(S'AP'
p365
S'ACP'
tp366
F71
s(S'AP'
S'ADVAADVVP'
tp367
F1
s(g61
S'PPNP'
tp368
F53
s(S'MP'
S'MADVVPP'
tp369
F1
s(S'DP'
p370
S'ADVDAPP'
tp371
F1
s(S'DP'
S'AADVP'
tp372
F2
s(S'PP'
S'PPPADVAP'
tp373
F1
s(S'CP'
S'CDDADVPP'
tp374
F2
s(S'AP'
S'ADP'
tp375
F211
s(S'CP'
S'CADVDDPPP'
tp376
F1
s(S'DP'
S'DDAVP'
tp377
F1
s(S'PP'
S'ADVADVPPMP'
tp378
F1
s(S'VP'
S'AAVDP'
tp379
F3
s(S'NP'
S'ADVANCCP'
tp380
F2
s(S'NP'
S'AAANNCP'
tp381
F1
s(S'DP'
p382
S'DVVVVP'
tp383
F3
s(S'PP'
S'APPAP'
tp384
F1
s(S'VP'
S'AAAVDP'
tp385
F1
s(S'AP'
S'AAADP'
tp386
F6
s(g27
S'VVAP'
tp387
F9
s(S'NP'
p388
S'NNAPP'
tp389
F1
s(S'VP'
S'VADVADVADVPP'
tp390
F1
s(S'AP'
S'AAAADVDP'
tp391
F1
s(S'PP'
p392
S'PADVADVDP'
tp393
F2
s(S'PP'
S'PPADVVP'
tp394
F2
s(g130
S'PADVMP'
tp395
F3
s(S'NP'
p396
S'NPP'
tp397
F200
s(S'VP'
S'ADVADVVAP'
tp398
F2
s(g349
S'NVP'
tp399
F242
s(S'PP'
S'PAAVP'
tp400
F1
s(g161
S'AAPPNP'
tp401
F1
s(g259
S'VDDP'
tp402
F29
s(S'AP'
S'ADVADVADVADP'
tp403
F1
s(S'NP'
p404
S'ADVNVP'
tp405
F3
s(S'AP'
p406
S'AAADVDP'
tp407
F1
s(S'NP'
p408
S'AANVVP'
tp409
F1
s(S'DP'
S'DADVAPP'
tp410
F3
s(S'NP'
S'NADVADVVVP'
tp411
F3
s(g315
S'ANPP'
tp412
F31
s(S'PP'
p413
S'PPPPP'
tp414
F4
s(S'PP'
S'ADVADVPDP'
tp415
F1
s(S'PP'
S'PPPNP'
tp416
F1
s(S'NP'
S'ADVADVNPP'
tp417
F1
s(S'AP'
S'ADVADVAVP'
tp418
F2
s(S'DP'
S'ADDP'
tp419
F7
s(S'CP'
S'CDDDADVPP'
tp420
F1
s(S'CP'
S'CAADPP'
tp421
F4
s(S'AP'
S'AADVADVADVCCP'
tp422
F1
s(g370
S'DADVADVVP'
tp423
F2
s(S'NP'
S'NAACP'
tp424
F1
s(S'PP'
S'PNNP'
tp425
F58
s(S'PP'
S'APNNP'
tp426
F1
s(S'DP'
S'DDAAP'
tp427
F1
s(g55
S'AVAP'
tp428
F5
s(S'MP'
S'MMVP'
tp429
F2
s(g37
S'PADVDDP'
tp430
F4
s(S'NP'
S'ADVNCP'
tp431
F10
s(S'DP'
p432
S'ADPP'
tp433
F55
s(S'VP'
S'VAPPP'
tp434
F1
s(S'CP'
p435
S'ACDP'
tp436
F32
s(g61
S'PAAP'
tp437
F24
s(g349
S'NNACP'
tp438
F6
s(S'VP'
S'ADVVVAAP'
tp439
F1
s(S'CP'
S'CDADVPPP'
tp440
F3
s(g75
S'VAP'
tp441
F121
s(S'VP'
S'VVVVNP'
tp442
F4
s(g328
S'DDDPP'
tp443
F7
s(S'CP'
S'ADVCDDP'
tp444
F1
s(S'DP'
S'DDDPPPP'
tp445
F1
s(S'DP'
S'DDDPPP'
tp446
F1
s(S'VP'
S'ADVAVDP'
tp447
F2
s(g156
S'ADAP'
tp448
F1
s(S'NP'
p449
S'ADVADVANCCP'
tp450
F1
s(g21
S'ADVVVDP'
tp451
F2
s(S'PP'
S'PPPVP'
tp452
F2
s(S'AP'
S'AADDP'
tp453
F4
s(S'AP'
S'ACCCCP'
tp454
F1
s(S'VP'
S'VAANP'
tp455
F2
s(S'DP'
S'DDDDPP'
tp456
F2
s(S'PP'
S'PAAAAP'
tp457
F1
s(g340
S'PADVADVPPP'
tp458
F1
s(S'MP'
S'MADP'
tp459
F1
s(S'DP'
S'DDADVNP'
tp460
F1
s(S'PP'
p461
S'PANP'
tp462
F35
s(S'PP'
S'PDDDP'
tp463
F4
s(S'MP'
S'ADVAMVP'
tp464
F1
s(S'PP'
S'AAPAAP'
tp465
F1
s(S'NP'
S'AANMP'
tp466
F2
s(S'AP'
S'AAVP'
tp467
F5
s(g287
S'NAAP'
tp468
F8
s(S'NP'
S'NDDP'
tp469
F11
s(S'CP'
S'CDDADVADVPPP'
tp470
F1
s(S'AP'
S'ACCP'
tp471
F11
s(g24
S'DDDADVPP'
tp472
F2
s(S'VP'
S'AVPPP'
tp473
F2
s(S'AP'
S'APPPP'
tp474
F1
s(g349
S'NDP'
tp475
F79
s(S'NP'
S'AAANVP'
tp476
F1
s(S'MP'
S'MVAAP'
tp477
F1
s(S'DP'
p478
S'DDVP'
tp479
F31
s(S'MP'
S'MMADVVVP'
tp480
F1
s(S'NP'
S'AANVP'
tp481
F7
s(S'VP'
p482
S'ADVVVNNP'
tp483
F1
s(S'VP'
S'VNNNP'
tp484
F1
s(S'PP'
S'ADVPAP'
tp485
F5
s(S'PP'
S'APADVDP'
tp486
F1
s(S'PP'
p487
S'PCP'
tp488
F6
s(S'NP'
S'NNPPP'
tp489
F2
s(S'PP'
S'PAADDP'
tp490
F1
s(S'PP'
S'PAADP'
tp491
F3
s(S'VP'
S'VPPPP'
tp492
F1
s(g273
S'ADVACP'
tp493
F8
s(g287
S'ADVADVNMP'
tp494
F1
s(g7
S'DDADVVP'
tp495
F1
s(g432
S'ADPPP'
tp496
F8
s(S'MP'
p497
S'MVCP'
tp498
F8
s(g19
S'CCDDP'
tp499
F16
s(S'NP'
S'NNADVVP'
tp500
F1
s(g482
S'ADVADVADVVPP'
tp501
F1
s(S'PP'
S'AAPAP'
tp502
F1
s(S'NP'
S'NAACCP'
tp503
F1
s(S'NP'
S'NNVVP'
tp504
F6
s(g396
S'NNNNVP'
tp505
F1
s(S'VP'
p506
S'VVCP'
tp507
F17
s(S'VP'
S'VVMP'
tp508
F1
s(S'NP'
S'AANCP'
tp509
F2
s(S'VP'
S'VAADP'
tp510
F3
s(S'MP'
S'MADVVDP'
tp511
F2
s(S'AP'
S'ADVAVVP'
tp512
F2
s(g461
S'APPP'
tp513
F8
s(S'DP'
S'DDDDPPP'
tp514
F1
s(g27
S'ADVVPP'
tp515
F6
s(S'CP'
S'CDAPPP'
tp516
F1
s(S'VP'
S'VNNP'
tp517
F21
s(S'AP'
S'AADVDP'
tp518
F5
s(S'NP'
S'NADP'
tp519
F5
s(S'DP'
p520
S'DDNP'
tp521
F45
s(S'NP'
p522
S'NADVCP'
tp523
F5
s(S'DP'
p524
S'DDNNP'
tp525
F4
s(S'PP'
S'PADVADVVVP'
tp526
F1
s(S'NP'
S'ADVANVP'
tp527
F1
s(S'NP'
S'ADVADVNCP'
tp528
F1
s(S'AP'
S'ADVADDP'
tp529
F2
s(S'DP'
S'AADPP'
tp530
F6
s(S'PP'
p531
S'APPNP'
tp532
F1
s(S'NP'
S'ADVNNADVMP'
tp533
F1
s(S'VP'
S'VVVVCP'
tp534
F2
s(S'MP'
S'MAVAP'
tp535
F1
s(S'NP'
S'ANVVVP'
tp536
F1
s(S'DP'
S'DADVADVAP'
tp537
F1
s(S'NP'
S'NADVADVCCP'
tp538
F1
s(S'MP'
S'MVVNP'
tp539
F1
s(S'CP'
S'ACDDP'
tp540
F4
s(S'AP'
S'AAPP'
tp541
F4
s(g506
S'VVCCP'
tp542
F4
s(g71
S'DADVVVP'
tp543
F2
s(S'DP'
S'DADVADVNP'
tp544
F2
s(S'NP'
S'NAPP'
tp545
F11
s(S'AP'
S'ADVADVADP'
tp546
F1
s(S'NP'
S'NADVDP'
tp547
F2
s(S'PP'
S'ADVPPPP'
tp548
F1
s(S'PP'
S'APDDDP'
tp549
F1
s(S'DP'
S'DADVADVADVVP'
tp550
F1
s(g57
S'ANCCP'
tp551
F9
s(S'NP'
p552
S'AANPP'
tp553
F6
s(g112
S'NNCCP'
tp554
F8
s(S'NP'
S'NNMP'
tp555
F8
s(S'DP'
S'DDDVP'
tp556
F4
s(S'VP'
p557
S'AAVDDDP'
tp558
F1
s(g294
S'CADDPP'
tp559
F1
s(g531
S'PAAAP'
tp560
F2
s(S'PP'
S'ADVADVPNP'
tp561
F2
s(S'PP'
S'PPPAP'
tp562
F2
s(S'CP'
S'CDDAPP'
tp563
F3
s(S'NP'
S'ANAP'
tp564
F2
s(S'MP'
S'MVAP'
tp565
F11
s(g69
S'PVP'
tp566
F204
s(S'DP'
S'DADVAVP'
tp567
F2
s(S'AP'
S'ADVADVAPP'
tp568
F1
s(S'VP'
S'VVVAANP'
tp569
F1
s(S'VP'
S'VADVCCP'
tp570
F1
s(g406
S'AADVDDP'
tp571
F2
s(S'AP'
S'ADVAACP'
tp572
F1
s(S'NP'
S'ANNCP'
tp573
F2
s(S'PP'
S'PPADVPP'
tp574
F1
s(g552
S'ADVADVADVNVP'
tp575
F1
s(g497
S'MMMMVP'
tp576
F1
s(S'PP'
S'PPDDP'
tp577
F5
s(g257
S'AVCP'
tp578
F9
s(S'NP'
S'NADVADVAP'
tp579
F1
s(S'NP'
S'NAVVP'
tp580
F1
s(g14
S'DPP'
tp581
F352
s(S'CP'
S'CADVADVDDPP'
tp582
F1
s(g524
S'DDDVVP'
tp583
F1
s(g432
S'DDPP'
tp584
F91
s(g478
S'DANP'
tp585
F57
s(S'NP'
p586
S'NADVPP'
tp587
F6
s(S'VP'
S'VVVADVDP'
tp588
F1
s(S'DP'
S'AADPPPP'
tp589
F1
s(S'DP'
S'ADVADVADPP'
tp590
F1
s(S'PP'
S'APADVDDP'
tp591
F1
s(S'DP'
S'AADNP'
tp592
F2
s(S'CP'
S'CADVADVADVDPP'
tp593
F1
s(g75
S'VADVCP'
tp594
F4
s(S'PP'
S'APAAP'
tp595
F1
s(S'NP'
S'NADVCCP'
tp596
F1
s(S'MP'
p597
S'MAAVDP'
tp598
F1
s(S'AP'
S'ADVAADDP'
tp599
F1
s(S'DP'
S'DCCP'
tp600
F1
s(S'DP'
S'AADDP'
tp601
F2
s(S'PP'
p602
S'AAPDP'
tp603
F2
s(g382
S'ADVADPP'
tp604
F3
s(S'VP'
S'VVVAP'
tp605
F2
s(g325
S'PDDP'
tp606
F43
s(S'MP'
S'MVDDP'
tp607
F3
s(S'AP'
S'AAAADP'
tp608
F1
s(g61
S'ADVAPNP'
tp609
F2
s(g388
S'NNNADVPP'
tp610
F1
s(g396
S'NNVP'
tp611
F37
s(S'PP'
S'PADVADVADVDP'
tp612
F1
s(S'AP'
S'AADVADVCP'
tp613
F1
s(S'AP'
S'ADVADVACP'
tp614
F5
s(S'VP'
S'AVDP'
tp615
F23
s(S'NP'
S'NNP'
tp616
F3
s(S'VP'
S'VVDDP'
tp617
F9
s(g201
S'DAANP'
tp618
F9
s(S'AP'
S'ADDP'
tp619
F26
s(g86
S'PNNNNP'
tp620
F1
s(S'VP'
S'ADVVVAP'
tp621
F2
s(S'PP'
S'ADVPPNP'
tp622
F1
s(S'AP'
S'ADVAAADVCP'
tp623
F1
s(S'CP'
S'ADVADVADVCDP'
tp624
F1
s(g432
S'DPPP'
tp625
F89
s(S'PP'
S'PPADVAMP'
tp626
F1
s(S'DP'
S'AADPPP'
tp627
F1
s(S'CP'
S'ADVADVADVCCDP'
tp628
F1
s(S'PP'
p629
S'ADVADVPPNP'
tp630
F1
s(S'NP'
S'NNAVP'
tp631
F3
s(S'AP'
S'AVVP'
tp632
F7
s(S'PP'
S'PPPANP'
tp633
F1
s(g629
S'PADVADVADVADVVVP'
tp634
F1
s(S'PP'
S'ADVPNP'
tp635
F5
s(g37
S'PPDP'
tp636
F43
s(S'MP'
S'MAVDP'
tp637
F2
s(S'AP'
S'ADVADVAACP'
tp638
F1
s(S'DP'
S'DDADVANP'
tp639
F1
s(S'AP'
S'AAPPP'
tp640
F1
s(S'DP'
S'DDCP'
tp641
F2
s(S'AP'
p642
S'AAAPP'
tp643
F2
s(g84
S'NAP'
tp644
F59
s(S'NP'
S'NNAAP'
tp645
F1
s(S'VP'
S'VAAAP'
tp646
F1
s(S'VP'
S'ADVVVADVAP'
tp647
F1
s(g40
S'ADVAVNP'
tp648
F1
s(S'VP'
S'ADVADVADVADVVVPP'
tp649
F1
s(g75
S'VVP'
tp650
F35
s(g185
S'PPAAP'
tp651
F4
s(S'PP'
S'ADVADVPVP'
tp652
F1
s(g602
S'APNP'
tp653
F18
s(S'VP'
S'VVVNNP'
tp654
F1
s(g520
S'DDVVP'
tp655
F4
s(S'CP'
S'CADVADVDPP'
tp656
F3
s(S'VP'
S'VVVNP'
tp657
F2
s(S'MP'
S'MNPP'
tp658
F1
s(g130
S'PADVAPP'
tp659
F1
s(S'VP'
S'ADVADVADVVVCCP'
tp660
F1
s(S'DP'
S'ADVADVDDPP'
tp661
F2
s(g597
S'MVNNP'
tp662
F3
s(g435
S'CDPP'
tp663
F300
s(g642
S'ADDDP'
tp664
F4
s(S'CP'
S'ADVCADP'
tp665
F2
s(g449
S'NNDP'
tp666
F9
s(S'VP'
S'AVVPPP'
tp667
F1
s(g19
S'ADVCDP'
tp668
F12
s(S'VP'
S'ADVADVVNP'
tp669
F6
s(S'NP'
S'NADVADVADVCP'
tp670
F1
s(S'CP'
S'ADVACDP'
tp671
F1
s(S'VP'
S'ADVADVVCP'
tp672
F1
s(S'VP'
S'VADVADVDP'
tp673
F1
s(S'PP'
S'PPNNP'
tp674
F6
s(S'PP'
S'ADVAPPP'
tp675
F2
s(S'MP'
S'MADVADVNVP'
tp676
F1
s(S'PP'
S'PPMP'
tp677
F2
s(S'DP'
S'ADVADVDPP'
tp678
F5
s(g75
S'VDP'
tp679
F257
s(g112
S'NADVAP'
tp680
F2
s(g211
S'AVDDP'
tp681
F6
s(S'DP'
S'DADVNP'
tp682
F6
s(g14
S'DAP'
tp683
F42
s(g19
S'CADPP'
tp684
F34
s(g190
S'NADVAVP'
tp685
F2
s(S'PP'
S'PPAVP'
tp686
F2
s(S'DP'
S'ADVADVADVDNP'
tp687
F1
s(S'VP'
S'AVPP'
tp688
F2
s(S'CP'
S'ADVCADVDP'
tp689
F1
s(S'CP'
S'CDPPPP'
tp690
F6
s(g531
S'PPAADP'
tp691
F1
s(S'VP'
S'VADVADVADVNP'
tp692
F1
s(g413
S'PANNP'
tp693
F2
s(S'NP'
S'NNAP'
tp694
F5
s(S'NP'
S'NNDDP'
tp695
F1
s(S'DP'
S'ADPPPP'
tp696
F1
s(S'DP'
S'DAPPP'
tp697
F3
s(S'DP'
S'DADVADVPP'
tp698
F3
s(S'DP'
S'DMP'
tp699
F9
s(g520
S'ADVDPP'
tp700
F20
s(g84
S'NADVAPP'
tp701
F3
s(g61
S'PADVADVNP'
tp702
F4
s(g365
S'AADP'
tp703
F51
s(S'VP'
S'VADVPP'
tp704
F1
s(S'DP'
S'DDAAPP'
tp705
F1
s(S'DP'
S'ADVDANP'
tp706
F1
s(S'PP'
S'APNNNNP'
tp707
F1
s(g487
S'ADVPVP'
tp708
F7
s(S'NP'
S'NADVADVADVVVP'
tp709
F5
s(g204
S'ADVVANP'
tp710
F1
s(S'NP'
S'NADVADVADVADVVVP'
tp711
F1
s(g301
S'ADVPDP'
tp712
F6
s(g586
S'ANADVDP'
tp713
F1
s(g408
S'ANNPP'
tp714
F2
s(g349
S'NCP'
tp715
F247
s(S'CP'
S'CADVDPPP'
tp716
F1
s(S'VP'
S'ADVVVPP'
tp717
F4
s(S'NP'
S'ADVANDP'
tp718
F1
s(S'AP'
S'AAAP'
tp719
F1
s(g392
S'ADVPDDP'
tp720
F2
s(S'MP'
S'MVCCP'
tp721
F2
s(S'VP'
S'VDDDP'
tp722
F2
s(S'MP'
S'MNVP'
tp723
F1
s(S'CP'
S'ADVADVCCDP'
tp724
F1
s(S'PP'
S'PADVADVAP'
tp725
F2
s(S'VP'
S'VAPP'
tp726
F8
s(S'NP'
S'NPPPPP'
tp727
F1
s(g126
S'ADVVDP'
tp728
F8
s(g71
S'DADVPP'
tp729
F17
s(S'AP'
S'AMP'
tp730
F4
s(S'CP'
S'CCADP'
tp731
F7
s(S'NP'
S'ADVNNCP'
tp732
F2
s(S'DP'
S'ADVDAP'
tp733
F1
s(g552
S'NNNPPP'
tp734
F1
s(S'AP'
p735
S'ADVAPP'
tp736
F5
s(g71
S'DDADVAPP'
tp737
F1
s(S'PP'
S'ADVPPVVP'
tp738
F1
s(g323
S'ADVDAVP'
tp739
F1
s(S'AP'
S'ADVADVANP'
tp740
F1
s(S'CP'
S'AACDP'
tp741
F1
s(S'CP'
S'CCDDDP'
tp742
F2
s(g152
S'CCADVADVDDP'
tp743
F1
s(S'DP'
S'ADVDPPP'
tp744
F5
s(g149
S'DVP'
tp745
F227
s(g99
S'AVNNP'
tp746
F1
s(g404
S'ADVNPP'
tp747
F1
s(g735
S'AVP'
tp748
F23
s(S'NP'
S'NADVVP'
tp749
F10
s(S'PP'
S'PPADVADVANP'
tp750
F1
s(S'PP'
S'PPPADVADVVP'
tp751
F1
s(g102
S'DDPPP'
tp752
F13
s(g522
S'ADVNMP'
tp753
F3
s(g254
S'ADVADVVVP'
tp754
F1
s(S'PP'
S'PPANP'
tp755
F6
s(S'CP'
S'CDADVPP'
tp756
F9
s(g55
S'VNP'
tp757
F155
s(S'VP'
S'ADVADVADVADVVVDP'
tp758
F1
s(g55
S'VANP'
tp759
F11
s(g47
S'ADVAAVPPP'
tp760
F1
s(g335
S'VADVAP'
tp761
F17
s(g557
S'ADVADVVVDP'
tp762
F2
s.