ccollections
defaultdict
p1
(c__builtin__
float
p2
tRp3
(S'AP'
S'AADVPPP'
tp4
F1
s(S'DP'
S'ADDPP'
tp5
F1
s(S'NP'
p6
S'ADVNNMP'
tp7
F1
s(S'PP'
p8
S'PAPP'
tp9
F6
s(S'PP'
S'PADVNP'
tp10
F2
s(S'DP'
S'DNP'
tp11
F78
s(S'NP'
S'ADVNDP'
tp12
F1
s(S'VP'
S'ADVVNNP'
tp13
F1
s(S'CP'
S'CDPPP'
tp14
F14
s(S'VP'
p15
S'VADP'
tp16
F4
s(S'DP'
p17
S'DAAP'
tp18
F5
s(S'VP'
S'ADVVNP'
tp19
F3
s(S'MP'
S'MVDP'
tp20
F8
s(S'PP'
p21
S'PADVANP'
tp22
F1
s(S'PP'
p23
S'PPPP'
tp24
F12
s(S'DP'
S'DDDNP'
tp25
F1
s(S'VP'
S'VACP'
tp26
F1
s(S'AP'
S'AAAVP'
tp27
F1
s(S'DP'
p28
S'DADVVP'
tp29
F2
s(S'AP'
p30
S'AADVPP'
tp31
F2
s(S'NP'
S'NADVACP'
tp32
F1
s(S'NP'
p33
S'NADVVVP'
tp34
F5
s(S'VP'
p35
S'VCP'
tp36
F36
s(S'MP'
p37
S'MVVANP'
tp38
F1
s(S'PP'
p39
S'PPVVP'
tp40
F3
s(g35
S'ADVVAAP'
tp41
F1
s(S'PP'
p42
S'PAP'
tp43
F31
s(S'VP'
p44
S'VADVADVAP'
tp45
F1
s(S'PP'
p46
S'ADVPPVP'
tp47
F1
s(S'NP'
S'ANPPP'
tp48
F1
s(S'PP'
S'PNP'
tp49
F81
s(S'NP'
S'ADVADVADVNNCP'
tp50
F1
s(S'DP'
p51
S'DDP'
tp52
F7
s(S'VP'
p53
S'VCCP'
tp54
F5
s(S'VP'
p55
S'ADVVVDDP'
tp56
F1
s(S'NP'
S'NMP'
tp57
F20
s(g39
S'PDP'
tp58
F81
s(S'NP'
S'NADVADVADVVP'
tp59
F2
s(S'PP'
p60
S'PADVPP'
tp61
F1
s(S'NP'
p62
S'NNADVCP'
tp63
F1
s(S'DP'
p64
S'DPPPP'
tp65
F2
s(S'DP'
S'DDANP'
tp66
F1
s(S'PP'
p67
S'PADVADP'
tp68
F1
s(S'DP'
p69
S'ADVDDAPP'
tp70
F1
s(S'AP'
S'ADVAVP'
tp71
F1
s(S'NP'
p72
S'NCCP'
tp73
F7
s(S'NP'
p74
S'NNCP'
tp75
F12
s(g28
S'ADVDDPP'
tp76
F1
s(S'NP'
S'NADVADVVP'
tp77
F2
s(S'DP'
S'DDAPP'
tp78
F2
s(S'VP'
p79
S'AVNP'
tp80
F4
s(S'PP'
p81
S'ADVAPDP'
tp82
F1
s(S'VP'
S'VADVVP'
tp83
F3
s(S'VP'
S'ADVADVADVVNP'
tp84
F1
s(S'VP'
S'ADVVAP'
tp85
F2
s(S'PP'
S'ADVPPNNP'
tp86
F1
s(S'PP'
p87
S'APDP'
tp88
F10
s(S'VP'
S'VADVNNP'
tp89
F1
s(g69
S'ADVADDPP'
tp90
F1
s(S'VP'
p91
S'VVANP'
tp92
F2
s(S'VP'
S'VVVVDP'
tp93
F1
s(S'MP'
S'MADVVNP'
tp94
F3
s(g87
S'PAAP'
tp95
F8
s(S'NP'
S'ADVANCP'
tp96
F1
s(S'DP'
S'DNNP'
tp97
F11
s(S'CP'
p98
S'CCADVDP'
tp99
F1
s(S'PP'
S'PPAADP'
tp100
F1
s(S'VP'
p101
S'VDP'
tp102
F64
s(S'PP'
p103
S'ADVAPVVP'
tp104
F1
s(S'PP'
p105
S'PADVVP'
tp106
F1
s(S'DP'
S'DADVADVADVPPP'
tp107
F2
s(S'PP'
p108
S'APAP'
tp109
F4
s(S'AP'
S'APP'
tp110
F16
s(g30
S'AAP'
tp111
F3
s(S'VP'
p112
S'VVAPP'
tp113
F1
s(S'CP'
S'CDDDDPP'
tp114
F1
s(S'NP'
S'ANVP'
tp115
F6
s(S'PP'
S'PADVADVADVNNP'
tp116
F1
s(S'AP'
S'AADVCCP'
tp117
F1
s(S'CP'
p118
S'CDDDPPP'
tp119
F1
s(S'MP'
S'MADVVAAP'
tp120
F1
s(g105
S'PAVP'
tp121
F4
s(g98
S'ADVCDDDP'
tp122
F1
s(S'PP'
S'PPADVNNP'
tp123
F1
s(S'DP'
p124
S'DADP'
tp125
F1
s(g8
S'APVP'
tp126
F5
s(S'VP'
p127
S'VVNP'
tp128
F12
s(S'PP'
S'PPPNNP'
tp129
F1
s(g23
S'PPVP'
tp130
F8
s(S'VP'
S'VADVDP'
tp131
F1
s(g79
S'VAAP'
tp132
F4
s(S'NP'
p133
S'ANDP'
tp134
F2
s(g33
S'NVVP'
tp135
F17
s(S'VP'
S'VMP'
tp136
F2
s(S'NP'
S'AANNMP'
tp137
F1
s(S'CP'
p138
S'CDAPP'
tp139
F7
s(S'VP'
S'VVAAP'
tp140
F1
s(S'DP'
S'ADNP'
tp141
F2
s(S'PP'
S'PADP'
tp142
F4
s(S'DP'
S'ADVADVDVP'
tp143
F1
s(g112
S'VVVDDP'
tp144
F1
s(S'DP'
p145
S'DAPP'
tp146
F10
s(g37
S'MADVADVVNP'
tp147
F1
s(S'VP'
S'ADVADVADVVDP'
tp148
F1
s(S'VP'
S'ADVADVVDP'
tp149
F1
s(S'PP'
p150
S'PPPDP'
tp151
F1
s(S'DP'
S'DADVANP'
tp152
F2
s(g15
S'VAAPP'
tp153
F3
s(S'DP'
S'ADVDNP'
tp154
F2
s(g79
S'VVPP'
tp155
F8
s(S'PP'
p156
S'PAVVP'
tp157
F1
s(S'MP'
p158
S'MVPP'
tp159
F9
s(S'DP'
p160
S'ADVP'
tp161
F2
s(S'CP'
p162
S'CDDPPP'
tp163
F2
s(g74
S'NNPP'
tp164
F4
s(S'DP'
S'DADVPPP'
tp165
F2
s(S'MP'
S'MADVADVADVVDP'
tp166
F1
s(S'VP'
S'VADVDDP'
tp167
F1
s(S'PP'
p168
S'PMP'
tp169
F7
s(S'CP'
S'CCDP'
tp170
F15
s(S'VP'
p171
S'VADVANP'
tp172
F1
s(g6
S'ADVADVADVNCP'
tp173
F1
s(S'MP'
S'MVAP'
tp174
F2
s(S'NP'
p175
S'NVVVP'
tp176
F3
s(S'CP'
S'CDDDPP'
tp177
F4
s(S'CP'
S'CDAAPP'
tp178
F1
s(S'VP'
S'VVVDP'
tp179
F1
s(S'PP'
S'PNNNP'
tp180
F1
s(S'CP'
S'CCCCDP'
tp181
F2
s(S'NP'
S'ANMMP'
tp182
F1
s(S'MP'
p183
S'MVNP'
tp184
F3
s(S'PP'
p185
S'AAPNP'
tp186
F2
s(S'VP'
S'ADVVVDP'
tp187
F2
s(g42
S'PPP'
tp188
F41
s(S'NP'
S'NAVP'
tp189
F7
s(S'AP'
S'AADVVP'
tp190
F1
s(g28
S'DAAAP'
tp191
F2
s(g101
S'VPP'
tp192
F46
s(g138
S'ADVCCDP'
tp193
F3
s(S'DP'
S'DDDAAPP'
tp194
F1
s(g160
S'ADVDDNP'
tp195
F1
s(S'NP'
S'NNNCP'
tp196
F3
s(S'PP'
S'PADVDP'
tp197
F1
s(S'CP'
S'CDDPP'
tp198
F17
s(S'DP'
S'DAAPP'
tp199
F1
s(g168
S'PVVP'
tp200
F7
s(S'CP'
S'CADPPP'
tp201
F1
s(S'AP'
S'AACP'
tp202
F5
s(g101
S'VPPP'
tp203
F4
s(S'PP'
S'PPADVADVDP'
tp204
F1
s(g44
S'VVPPP'
tp205
F1
s(S'VP'
p206
S'ADVVVCCP'
tp207
F1
s(g87
S'PPAP'
tp208
F5
s(S'DP'
S'DVVP'
tp209
F6
s(S'NP'
S'ANMP'
tp210
F2
s(S'AP'
p211
S'APPP'
tp212
F3
s(S'PP'
S'ADVPPP'
tp213
F1
s(S'VP'
S'VVVP'
tp214
F3
s(g118
S'CADVDPP'
tp215
F8
s(g133
S'ANCP'
tp216
F16
s(S'DP'
p217
S'DCP'
tp218
F7
s(S'PP'
S'ADVADVADVPPNP'
tp219
F2
s(S'DP'
p220
S'DDDP'
tp221
F3
s(g51
S'DDADVPP'
tp222
F2
s(g175
S'ANVVP'
tp223
F1
s(S'NP'
p224
S'NVVVVP'
tp225
F2
s(S'NP'
S'NPPP'
tp226
F3
s(S'DP'
S'AADVVP'
tp227
F1
s(g55
S'ADVADVADVVANP'
tp228
F1
s(S'AP'
p229
S'ACP'
tp230
F25
s(S'PP'
S'PADVADVNNP'
tp231
F1
s(g150
S'PPNP'
tp232
F14
s(g79
S'ADVVADVDP'
tp233
F1
s(S'AP'
p234
S'ADP'
tp235
F47
s(S'DP'
S'DDAVP'
tp236
F1
s(S'NP'
p237
S'ADVANCCP'
tp238
F1
s(g91
S'AVDP'
tp239
F11
s(S'VP'
S'VVAP'
tp240
F3
s(S'PP'
S'AAPADVADVADVNP'
tp241
F1
s(S'CP'
S'ADVACDP'
tp242
F1
s(S'NP'
S'NPP'
tp243
F58
s(S'VP'
S'ADVADVVAP'
tp244
F1
s(S'NP'
p245
S'NVP'
tp246
F66
s(g150
S'PAAVP'
tp247
F1
s(g62
S'NAAPP'
tp248
F1
s(g79
S'VDDP'
tp249
F4
s(S'NP'
S'ADVNVP'
tp250
F2
s(S'NP'
S'ANPP'
tp251
F8
s(g150
S'PPPPP'
tp252
F2
s(g158
S'MVVPP'
tp253
F1
s(S'PP'
S'PPPNP'
tp254
F1
s(S'AP'
S'ADVADVAVP'
tp255
F1
s(S'CP'
S'CAADPP'
tp256
F3
s(S'DP'
S'DADVADVVP'
tp257
F1
s(S'PP'
S'PNNP'
tp258
F16
s(S'PP'
S'APNNP'
tp259
F1
s(S'VP'
S'AVAP'
tp260
F1
s(S'MP'
S'MMVP'
tp261
F1
s(S'PP'
S'PADVDDP'
tp262
F1
s(S'AP'
S'AAPPPP'
tp263
F1
s(S'NP'
S'ADVNCP'
tp264
F3
s(S'DP'
p265
S'ADPP'
tp266
F22
s(g162
S'ACDP'
tp267
F3
s(S'NP'
S'NNDP'
tp268
F3
s(S'CP'
S'CDADVPPP'
tp269
F2
s(g101
S'VAP'
tp270
F33
s(g217
S'DDDPP'
tp271
F4
s(S'CP'
S'ADVCDDP'
tp272
F1
s(g81
S'ADVPMP'
tp273
F1
s(g103
S'PAAPP'
tp274
F1
s(S'DP'
p275
S'DDDPPP'
tp276
F1
s(S'NP'
S'ADVADVANCCP'
tp277
F1
s(S'AP'
S'AAACP'
tp278
F1
s(g237
S'NAAP'
tp279
F2
s(S'AP'
S'AADDP'
tp280
F1
s(S'VP'
S'VAANP'
tp281
F2
s(g206
S'VVDP'
tp282
F12
s(S'PP'
S'AAPCP'
tp283
F1
s(g156
S'PANP'
tp284
F8
s(g183
S'ADVAMVP'
tp285
F1
s(S'NP'
S'AANMP'
tp286
F1
s(g30
S'AAVP'
tp287
F2
s(g211
S'AVVP'
tp288
F3
s(S'NP'
S'NDDP'
tp289
F4
s(g30
S'ACCP'
tp290
F4
s(S'DP'
p291
S'DDDADVPP'
tp292
F1
s(S'NP'
p293
S'NDP'
tp294
F22
s(S'DP'
S'DDVP'
tp295
F6
s(S'NP'
p296
S'AANVP'
tp297
F2
s(S'VP'
S'VNNNP'
tp298
F1
s(g79
S'VADVADVPP'
tp299
F1
s(g275
S'DAVP'
tp300
F7
s(S'PP'
S'PCP'
tp301
F2
s(S'NP'
p302
S'NNPPP'
tp303
F1
s(S'PP'
S'PAADP'
tp304
F2
s(S'AP'
S'ADVACP'
tp305
F5
s(S'VP'
p306
S'VVVAP'
tp307
F1
s(S'DP'
S'ADPPP'
tp308
F1
s(g183
S'MVCP'
tp309
F2
s(S'CP'
S'CCDDP'
tp310
F2
s(S'VP'
S'ADVADVADVVPP'
tp311
F1
s(S'NP'
S'ADVANAP'
tp312
F1
s(S'NP'
p313
S'NNVVP'
tp314
F1
s(g127
S'VVCP'
tp315
F8
s(g302
S'AANCP'
tp316
F3
s(S'VP'
S'VADVNP'
tp317
F1
s(S'VP'
S'AVVPP'
tp318
F1
s(g60
S'APPP'
tp319
F1
s(S'VP'
S'ADVVPP'
tp320
F2
s(S'VP'
S'VVADVANP'
tp321
F1
s(S'DP'
S'DDNP'
tp322
F6
s(g296
S'NADVCP'
tp323
F3
s(S'DP'
S'DDNNP'
tp324
F1
s(g185
S'AAPPP'
tp325
F1
s(S'PP'
S'PADVADVVVP'
tp326
F1
s(g74
S'ADVANVP'
tp327
F2
s(S'DP'
p328
S'AADPP'
tp329
F4
s(g44
S'VVVVCP'
tp330
F1
s(g168
S'ADVPAP'
tp331
F3
s(S'MP'
S'MVVNP'
tp332
F2
s(S'CP'
S'CDDADVPPP'
tp333
F1
s(S'NP'
S'ADVADVNNCP'
tp334
F1
s(g293
S'NADVADVADVADVVP'
tp335
F1
s(S'DP'
S'DADVVVP'
tp336
F1
s(g67
S'ADVPANP'
tp337
F1
s(S'NP'
S'NAPP'
tp338
F3
s(S'AP'
S'ADVADVADP'
tp339
F1
s(S'MP'
S'MVDDP'
tp340
F1
s(g313
S'AANPP'
tp341
F1
s(g224
S'NNMP'
tp342
F5
s(S'VP'
S'VVADVADVPP'
tp343
F1
s(S'CP'
S'CDDAPP'
tp344
F2
s(S'VP'
S'VADVADVANP'
tp345
F1
s(g42
S'PVP'
tp346
F66
s(S'AP'
S'AADVADVADVCP'
tp347
F1
s(S'AP'
S'ADVADVAPP'
tp348
F1
s(g145
S'DVVVP'
tp349
F1
s(S'VP'
S'VCCCCP'
tp350
F2
s(S'VP'
S'AVCP'
tp351
F1
s(g328
S'DPP'
tp352
F102
s(S'CP'
S'CADVADVDDPP'
tp353
F1
s(g220
S'DDPP'
tp354
F25
s(S'DP'
S'DDADVPPP'
tp355
F1
s(g51
S'DANP'
tp356
F19
s(g224
S'NADVPP'
tp357
F3
s(S'DP'
S'AADNP'
tp358
F1
s(g72
S'NACP'
tp359
F2
s(S'VP'
S'VADVCP'
tp360
F1
s(S'MP'
S'MADVADVADVVANP'
tp361
F1
s(S'NP'
S'NNNNCP'
tp362
F2
s(S'NP'
p363
S'NADVCCP'
tp364
F2
s(g46
S'PADVPPP'
tp365
F1
s(S'DP'
S'AADDP'
tp366
F1
s(g103
S'AAPDP'
tp367
F2
s(S'VP'
S'VVDDP'
tp368
F1
s(g23
S'PDDP'
tp369
F9
s(g103
S'PADVAPP'
tp370
F1
s(S'NP'
S'NNVP'
tp371
F8
s(S'PP'
S'PPPMP'
tp372
F1
s(S'DP'
S'ADVADPP'
tp373
F1
s(S'DP'
S'DAANP'
tp374
F5
s(S'AP'
S'ADDP'
tp375
F5
s(S'PP'
S'ADVPPNP'
tp376
F3
s(S'CP'
p377
S'CADVADVDPP'
tp378
F2
s(S'CP'
S'ADVADVADVCDP'
tp379
F1
s(g160
S'DPPP'
tp380
F19
s(S'NP'
S'NADVADVAAP'
tp381
F1
s(g23
S'ADVPNP'
tp382
F3
s(S'PP'
S'PPMP'
tp383
F1
s(S'MP'
S'MAVDP'
tp384
F1
s(S'DP'
S'DDPPPP'
tp385
F1
s(S'DP'
S'DDCP'
tp386
F1
s(S'VP'
S'VADVADDP'
tp387
F1
s(S'PP'
p388
S'PAANNP'
tp389
F1
s(S'AP'
S'ADVADVAADP'
tp390
F1
s(g245
S'NAP'
tp391
F8
s(S'VP'
S'VVP'
tp392
F8
s(S'DP'
S'DADVNP'
tp393
F3
s(g30
S'AAADP'
tp394
F1
s(g108
S'APNP'
tp395
F7
s(g145
S'DDVVP'
tp396
F2
s(S'VP'
p397
S'VVVNP'
tp398
F1
s(g17
S'ADVADVDDPP'
tp399
F1
s(g224
S'NADVAMP'
tp400
F1
s(S'CP'
S'CDPP'
tp401
F95
s(S'CP'
S'ADVCDP'
tp402
F3
s(S'VP'
S'ADVADVVNP'
tp403
F1
s(S'PP'
S'PPNNP'
tp404
F2
s(S'CP'
S'CDDDAAPP'
tp405
F1
s(g265
S'ADVADVDPP'
tp406
F2
s(g35
S'VAADP'
tp407
F1
s(S'VP'
S'AVDDP'
tp408
F1
s(g51
S'DAP'
tp409
F14
s(g377
S'CADPP'
tp410
F16
s(S'PP'
S'PPDDDP'
tp411
F1
s(g53
S'AVPP'
tp412
F3
s(S'DP'
S'DDNNNNP'
tp413
F1
s(S'CP'
S'CDPPPP'
tp414
F1
s(S'VP'
S'AAVDP'
tp415
F2
s(S'VP'
p416
S'ADVADVADVADVVPP'
tp417
F1
s(g306
S'ADVVADVAP'
tp418
F1
s(g363
S'AANVVP'
tp419
F2
s(g28
S'ADVDPP'
tp420
F9
s(S'NP'
S'NADVAPP'
tp421
F1
s(g21
S'PPAANP'
tp422
F1
s(g229
S'AADP'
tp423
F15
s(S'CP'
S'CCADVDDP'
tp424
F1
s(g60
S'ADVPVP'
tp425
F1
s(S'DP'
S'DDDDPP'
tp426
F1
s(g87
S'ADVPDP'
tp427
F6
s(g87
S'ADVADVPCP'
tp428
F1
s(S'MP'
S'MVADVAP'
tp429
F1
s(g245
S'NCP'
tp430
F74
s(S'VP'
S'ADVVVPP'
tp431
F3
s(S'AP'
S'AAAP'
tp432
F1
s(S'CP'
S'CDADVPP'
tp433
F4
s(S'PP'
S'PPDP'
tp434
F4
s(S'MP'
p435
S'MVCCP'
tp436
F1
s(S'DP'
S'DADVNNP'
tp437
F1
s(g237
S'NNCCP'
tp438
F1
s(S'MP'
S'MNVP'
tp439
F1
s(g388
S'PADVADVAP'
tp440
F1
s(g79
S'VAPP'
tp441
F5
s(g435
S'MAVNP'
tp442
F1
s(g79
S'ADVVDP'
tp443
F4
s(g275
S'DADVPP'
tp444
F7
s(S'AP'
S'AMP'
tp445
F1
s(S'CP'
S'CCADP'
tp446
F2
s(S'NP'
S'ADVNNCP'
tp447
F2
s(S'PP'
S'PPADDP'
tp448
F1
s(S'AP'
S'ADVAPP'
tp449
F3
s(g291
S'ADVDPPP'
tp450
F1
s(g328
S'DVP'
tp451
F62
s(g171
S'AVNNP'
tp452
F1
s(g234
S'AVP'
tp453
F10
s(S'NP'
S'NADVVP'
tp454
F3
s(g124
S'DDPPP'
tp455
F2
s(S'NP'
S'NNAP'
tp456
F1
s(S'PP'
S'PPANP'
tp457
F1
s(g64
S'DDADVVVP'
tp458
F1
s(g101
S'VNP'
tp459
F41
s(S'VP'
S'VANP'
tp460
F2
s(g416
S'VADVAP'
tp461
F8
s(g397
S'ADVADVVVDP'
tp462
F1
s.