ccollections
defaultdict
p1
(c__builtin__
float
p2
tRp3
(S'AP'
S'AADVPPP'
tp4
F1
s(S'DP'
S'DDMP'
tp5
F1
s(S'DP'
p6
S'ADDPP'
tp7
F3
s(S'DP'
p8
S'DDAP'
tp9
F5
s(S'VP'
p10
S'ADVVVNP'
tp11
F3
s(S'AP'
S'AADDDP'
tp12
F1
s(S'CP'
S'CCDDDDP'
tp13
F1
s(S'DP'
S'DAANNP'
tp14
F4
s(S'PP'
S'PAAANNP'
tp15
F1
s(S'DP'
S'DDDDADVPPP'
tp16
F1
s(S'PP'
p17
S'PAPP'
tp18
F15
s(S'PP'
p19
S'PADVNP'
tp20
F22
s(S'DP'
p21
S'DNP'
tp22
F372
s(S'VP'
S'VVADVCP'
tp23
F1
s(S'NP'
S'ADVNPPP'
tp24
F2
s(S'CP'
S'CDPPP'
tp25
F51
s(S'PP'
S'ADVPPANP'
tp26
F1
s(S'VP'
p27
S'VADP'
tp28
F15
s(S'DP'
S'DNNNNP'
tp29
F2
s(S'CP'
S'CDAAPPP'
tp30
F2
s(S'DP'
p31
S'DAAP'
tp32
F4
s(S'PP'
p33
S'PPAVP'
tp34
F2
s(S'PP'
p35
S'PPPPPP'
tp36
F5
s(S'VP'
S'VAVP'
tp37
F3
s(S'PP'
S'APPDP'
tp38
F2
s(S'CP'
S'CADVADVDPPP'
tp39
F1
s(S'VP'
S'ADVADVADVVVPP'
tp40
F1
s(S'DP'
p41
S'DAADP'
tp42
F1
s(S'VP'
S'AVADVDP'
tp43
F1
s(S'VP'
S'ADVVVVDP'
tp44
F1
s(S'PP'
p45
S'APVP'
tp46
F23
s(S'MP'
S'MVDP'
tp47
F29
s(S'PP'
S'PADVANP'
tp48
F3
s(S'PP'
p49
S'PPPP'
tp50
F51
s(S'DP'
S'DDDNP'
tp51
F2
s(S'PP'
S'PPAAP'
tp52
F1
s(S'VP'
p53
S'VACP'
tp54
F6
s(S'AP'
p55
S'AAAVP'
tp56
F2
s(S'PP'
S'PPPAAP'
tp57
F1
s(S'DP'
S'DADVVP'
tp58
F12
s(S'MP'
S'MMCP'
tp59
F1
s(S'PP'
p60
S'PADVNNP'
tp61
F2
s(S'AP'
S'AADVPP'
tp62
F2
s(S'NP'
S'NAAACP'
tp63
F1
s(S'NP'
S'NAAVVP'
tp64
F1
s(S'NP'
S'NDDDP'
tp65
F1
s(S'NP'
p66
S'NCCCP'
tp67
F1
s(S'CP'
p68
S'CADVDAPP'
tp69
F1
s(S'VP'
p70
S'VCP'
tp71
F131
s(g66
S'NMMP'
tp72
F2
s(S'DP'
p73
S'DDDNNP'
tp74
F1
s(S'NP'
p75
S'NNNPPPP'
tp76
F1
s(S'VP'
S'VVVVDP'
tp77
F3
s(S'PP'
p78
S'PAP'
tp79
F139
s(S'PP'
S'PPANNP'
tp80
F1
s(S'CP'
S'CDADVADVADVPP'
tp81
F4
s(S'NP'
p82
S'ANNCCP'
tp83
F2
s(S'PP'
p84
S'ADVPPVP'
tp85
F2
s(S'PP'
S'APVVP'
tp86
F1
s(S'PP'
p87
S'PPADVDP'
tp88
F1
s(S'VP'
p89
S'VADVANP'
tp90
F1
s(S'PP'
p91
S'PNP'
tp92
F383
s(S'DP'
S'DDP'
tp93
F42
s(S'PP'
S'ADVPPMP'
tp94
F1
s(S'NP'
S'NNNPP'
tp95
F6
s(S'NP'
p96
S'NNDP'
tp97
F12
s(S'MP'
S'MCDP'
tp98
F3
s(S'DP'
S'DDAANP'
tp99
F1
s(S'AP'
S'AVVVP'
tp100
F1
s(S'VP'
p101
S'ADVADVVVCP'
tp102
F1
s(S'NP'
p103
S'NMP'
tp104
F105
s(S'NP'
S'ADVNAPP'
tp105
F1
s(S'CP'
S'CADVDADVPP'
tp106
F2
s(S'CP'
S'CAADPP'
tp107
F2
s(g27
S'AAVNP'
tp108
F1
s(S'DP'
S'DDDAP'
tp109
F1
s(g91
S'PDP'
tp110
F338
s(S'CP'
S'CDAAPP'
tp111
F5
s(S'NP'
S'ADVNVVP'
tp112
F2
s(S'NP'
S'AAANVVP'
tp113
F1
s(S'VP'
p114
S'VVVDDP'
tp115
F1
s(S'DP'
S'DDADVADVPPP'
tp116
F1
s(S'DP'
p117
S'ADDDNP'
tp118
F1
s(S'DP'
p119
S'ADVDADVVVVP'
tp120
F1
s(S'AP'
S'ANP'
tp121
F5
s(S'PP'
S'ADVPAAP'
tp122
F2
s(S'NP'
S'NADVADVADVVP'
tp123
F1
s(S'PP'
p124
S'PADVPP'
tp125
F6
s(S'VP'
S'AAVPP'
tp126
F1
s(S'PP'
p127
S'ADVADVPPVVP'
tp128
F1
s(S'VP'
S'VVADVNP'
tp129
F3
s(S'PP'
S'PPADVAP'
tp130
F1
s(S'VP'
p131
S'VVDDP'
tp132
F3
s(S'AP'
S'ADVADVAMP'
tp133
F1
s(S'DP'
S'DPPPP'
tp134
F14
s(S'DP'
p135
S'DDANP'
tp136
F4
s(S'NP'
p137
S'NACP'
tp138
F14
s(S'AP'
S'ADVAVP'
tp139
F5
s(S'NP'
S'NCCP'
tp140
F44
s(S'NP'
S'ADVNDP'
tp141
F4
s(S'CP'
p142
S'CDDADVADVAPP'
tp143
F1
s(S'VP'
p144
S'VVCCCP'
tp145
F1
s(g103
S'NNCP'
tp146
F59
s(S'DP'
p147
S'ADVDDPP'
tp148
F5
s(S'NP'
S'NADVADVVP'
tp149
F9
s(S'DP'
S'DDDDP'
tp150
F2
s(S'VP'
p151
S'AVNP'
tp152
F10
s(S'VP'
p153
S'VVADP'
tp154
F2
s(S'CP'
S'CCADVADVADVDP'
tp155
F3
s(S'PP'
S'AAPPAP'
tp156
F1
s(S'NP'
S'NADVADVMMP'
tp157
F1
s(S'NP'
S'NADVADVPP'
tp158
F1
s(S'MP'
S'MVVVADVAP'
tp159
F1
s(S'MP'
S'MVADVADVDP'
tp160
F1
s(S'DP'
p161
S'DDADVADVAPP'
tp162
F1
s(S'PP'
p163
S'ADVAPDP'
tp164
F1
s(S'VP'
S'ADVVPPPP'
tp165
F1
s(S'CP'
S'CDDADVPPP'
tp166
F1
s(S'VP'
p167
S'VADVVP'
tp168
F5
s(S'NP'
S'ADVADVADVNMP'
tp169
F1
s(S'VP'
p170
S'ADVADVADVVNP'
tp171
F1
s(S'MP'
p172
S'MVAPP'
tp173
F2
s(S'MP'
S'MVPPP'
tp174
F1
s(S'NP'
p175
S'ANADVVP'
tp176
F1
s(S'PP'
S'ADVAPVP'
tp177
F1
s(S'CP'
p178
S'CCCDP'
tp179
F5
s(S'VP'
S'ADVVAP'
tp180
F12
s(S'PP'
S'ADVPPNNP'
tp181
F2
s(g153
S'VCCCP'
tp182
F1
s(S'PP'
p183
S'APDP'
tp184
F48
s(S'VP'
S'ADVVNNP'
tp185
F2
s(S'PP'
p186
S'PADVADVADVPP'
tp187
F1
s(S'NP'
S'ADVADVANADVVVP'
tp188
F1
s(S'AP'
S'AVVVVP'
tp189
F1
s(S'AP'
S'AADVACP'
tp190
F1
s(S'VP'
S'VVANP'
tp191
F4
s(S'MP'
S'MVADVNP'
tp192
F2
s(g33
S'ADVADVADVPDP'
tp193
F1
s(S'CP'
S'CADADVPPP'
tp194
F1
s(S'DP'
S'DADVADVADVPP'
tp195
F4
s(S'MP'
p196
S'MADVVNP'
tp197
F4
s(S'PP'
p198
S'PAAP'
tp199
F26
s(S'NP'
S'ADVANCP'
tp200
F3
s(g31
S'DNNP'
tp201
F68
s(S'DP'
S'DPPPPP'
tp202
F3
s(S'CP'
S'CDDPPPP'
tp203
F3
s(S'CP'
S'CCADVDP'
tp204
F2
s(S'VP'
S'VVNNNP'
tp205
F2
s(S'VP'
S'AAVDDP'
tp206
F1
s(S'NP'
S'NNNVP'
tp207
F5
s(S'VP'
S'VVADVADVADVPPP'
tp208
F1
s(S'VP'
S'VVANNP'
tp209
F2
s(S'PP'
p210
S'PADVVP'
tp211
F14
s(S'DP'
S'DADVADVADVPPP'
tp212
F4
s(S'VP'
S'ADVADVVPPP'
tp213
F1
s(S'PP'
p214
S'APAP'
tp215
F7
s(S'AP'
p216
S'APP'
tp217
F74
s(S'AP'
S'ACCCP'
tp218
F1
s(S'AP'
S'AAP'
tp219
F7
s(S'VP'
p220
S'VADVADVVP'
tp221
F2
s(g170
S'VVAPP'
tp222
F2
s(S'DP'
S'DAAAPP'
tp223
F1
s(S'AP'
S'AAADVDDP'
tp224
F1
s(S'NP'
S'ADVANPP'
tp225
F4
s(S'VP'
p226
S'VVVVPP'
tp227
F2
s(S'DP'
S'DAAVP'
tp228
F4
s(S'CP'
S'CDDDDPP'
tp229
F4
s(S'MP'
S'MPVP'
tp230
F1
s(S'MP'
S'MVVCP'
tp231
F2
s(S'PP'
p232
S'PAANP'
tp233
F11
s(g73
S'DDADVADVVP'
tp234
F1
s(g35
S'PPVVP'
tp235
F11
s(S'VP'
S'VVAVP'
tp236
F1
s(S'MP'
p237
S'MVNP'
tp238
F22
s(S'NP'
S'NNANP'
tp239
F1
s(S'CP'
S'CDDDPPP'
tp240
F1
s(S'DP'
p241
S'ADVADNP'
tp242
F2
s(g163
S'PAVP'
tp243
F20
s(S'MP'
S'ADVMVP'
tp244
F1
s(S'PP'
S'ADVADVPPVP'
tp245
F1
s(S'DP'
S'DDAPPP'
tp246
F1
s(S'PP'
p247
S'PPADVNNP'
tp248
F1
s(g75
S'NNADP'
tp249
F2
s(S'NP'
S'NNADVADVVVP'
tp250
F1
s(S'MP'
S'MADVVPP'
tp251
F6
s(g17
S'APADVADVVP'
tp252
F1
s(S'MP'
S'MADVVPPPP'
tp253
F1
s(S'AP'
S'ADVADP'
tp254
F6
s(S'CP'
S'ADVADVCDP'
tp255
F2
s(S'DP'
S'ADVDDP'
tp256
F1
s(g247
S'APDDP'
tp257
F2
s(S'VP'
p258
S'ADVADVVVNP'
tp259
F2
s(S'VP'
S'ADVADVVANP'
tp260
F1
s(S'NP'
S'ADVNAP'
tp261
F2
s(S'PP'
S'PPCP'
tp262
F1
s(S'VP'
p263
S'ADVVNP'
tp264
F31
s(S'DP'
S'DAAAP'
tp265
F1
s(S'MP'
S'MNCP'
tp266
F2
s(S'VP'
p267
S'VVNP'
tp268
F49
s(S'PP'
S'PPPNNP'
tp269
F2
s(S'NP'
S'AANADVCP'
tp270
F1
s(g49
S'PPVP'
tp271
F40
s(g101
S'VADVDP'
tp272
F7
s(S'MP'
S'MVVVPP'
tp273
F2
s(g172
S'MAPNP'
tp274
F2
s(S'VP'
p275
S'VAAP'
tp276
F17
s(S'VP'
S'VVVANNP'
tp277
F1
s(S'NP'
p278
S'ANDP'
tp279
F14
s(S'NP'
p280
S'NVVP'
tp281
F89
s(g19
S'AAPVP'
tp282
F2
s(S'PP'
S'PPADP'
tp283
F1
s(S'VP'
p284
S'VMP'
tp285
F9
s(S'NP'
S'AANNMP'
tp286
F1
s(S'VP'
S'VVNNP'
tp287
F10
s(S'CP'
S'CDAPP'
tp288
F37
s(g114
S'VVAAP'
tp289
F1
s(S'NP'
p290
S'ANADVCP'
tp291
F1
s(S'CP'
p292
S'CADVADPP'
tp293
F4
s(S'VP'
S'ADVADVVVNNP'
tp294
F2
s(S'DP'
p295
S'ADNP'
tp296
F24
s(g258
S'AVVDP'
tp297
F2
s(S'DP'
S'DAACP'
tp298
F1
s(S'PP'
S'PPADVMP'
tp299
F1
s(S'VP'
p300
S'ADVVACP'
tp301
F1
s(g247
S'PADP'
tp302
F25
s(S'VP'
S'ADVVVCP'
tp303
F3
s(S'NP'
S'ADVNADVVP'
tp304
F1
s(S'NP'
p305
S'ANDDP'
tp306
F2
s(S'DP'
S'ADVADVDVP'
tp307
F1
s(S'MP'
S'MDANP'
tp308
F1
s(S'PP'
S'ADVADVPMP'
tp309
F1
s(S'CP'
S'ADVADVACDP'
tp310
F1
s(S'DP'
p311
S'DAPP'
tp312
F54
s(S'VP'
S'AVVP'
tp313
F4
s(S'DP'
S'DDDADVVVP'
tp314
F1
s(S'VP'
S'ADVADVVPP'
tp315
F3
s(S'MP'
S'MADVADVVNP'
tp316
F1
s(S'PP'
S'ADVADVADVPPP'
tp317
F2
s(S'VP'
S'VADVAAP'
tp318
F1
s(S'VP'
S'ADVADVADVVDP'
tp319
F4
s(S'PP'
p320
S'AAAPVP'
tp321
F1
s(S'NP'
S'ADVNNPP'
tp322
F2
s(S'VP'
p323
S'ADVADVVDP'
tp324
F10
s(S'DP'
p325
S'DDDAAAPPP'
tp326
F1
s(S'PP'
S'PPPDP'
tp327
F3
s(S'MP'
S'MVADVAPP'
tp328
F1
s(g131
S'AVADVPP'
tp329
F1
s(S'MP'
S'MVVAP'
tp330
F2
s(S'VP'
S'VDDDDP'
tp331
F1
s(S'DP'
S'DAAANP'
tp332
F3
s(S'DP'
S'DADVANP'
tp333
F4
s(S'NP'
S'ANADVVVP'
tp334
F1
s(S'VP'
S'VAAPP'
tp335
F1
s(g147
S'ADVDNP'
tp336
F10
s(g167
S'VVPP'
tp337
F38
s(g284
S'VADVAPP'
tp338
F1
s(S'CP'
S'CCADDP'
tp339
F1
s(S'PP'
S'PAVVP'
tp340
F1
s(S'MP'
S'MVPP'
tp341
F25
s(S'AP'
S'AADVADVVP'
tp342
F2
s(S'CP'
S'CDDPPP'
tp343
F7
s(S'VP'
S'ADVADVADVVVANP'
tp344
F1
s(g96
S'NNPP'
tp345
F35
s(S'MP'
S'MVVDP'
tp346
F11
s(S'DP'
S'DADVPPP'
tp347
F7
s(g280
S'ANVP'
tp348
F39
s(S'DP'
S'DNNNP'
tp349
F11
s(S'DP'
S'ADVDADVPP'
tp350
F2
s(S'CP'
S'CDDDDADVPPP'
tp351
F1
s(S'VP'
S'ADVADVAVDDP'
tp352
F1
s(S'DP'
S'ADVDDVP'
tp353
F3
s(S'CP'
S'CDDAPPP'
tp354
F1
s(S'PP'
p355
S'PADVADVVP'
tp356
F1
s(S'VP'
S'VADVDDP'
tp357
F1
s(S'PP'
p358
S'PMMP'
tp359
F2
s(S'PP'
S'PVVVP'
tp360
F2
s(S'PP'
S'PMP'
tp361
F17
s(g103
S'NNMMP'
tp362
F2
s(g214
S'PADVADVADVVP'
tp363
F1
s(S'MP'
p364
S'MCCDP'
tp365
F1
s(S'CP'
S'CCDP'
tp366
F71
s(S'DP'
p367
S'ADVADVADVDPP'
tp368
F3
s(S'MP'
S'AMVP'
tp369
F7
s(S'PP'
S'PPPVVVVP'
tp370
F1
s(S'DP'
S'AADDPP'
tp371
F2
s(S'NP'
S'NVVVP'
tp372
F13
s(S'CP'
p373
S'CDDDPP'
tp374
F9
s(S'CP'
p375
S'CDADVADVPP'
tp376
F3
s(S'VP'
S'VVVDP'
tp377
F8
s(S'PP'
p378
S'PNNNP'
tp379
F14
s(g55
S'AACCP'
tp380
F1
s(S'VP'
S'VVMP'
tp381
F1
s(S'PP'
S'AAPADVDP'
tp382
F1
s(S'PP'
p383
S'PADVVVP'
tp384
F1
s(g78
S'PPP'
tp385
F156
s(S'NP'
S'NNADVDP'
tp386
F1
s(g305
S'NAVP'
tp387
F17
s(S'PP'
S'PADVAP'
tp388
F3
s(S'DP'
S'DDNNNP'
tp389
F1
s(S'MP'
S'AMDP'
tp390
F1
s(S'DP'
p391
S'ADVDVP'
tp392
F6
s(S'NP'
S'AANMMMP'
tp393
F1
s(S'NP'
S'NADVVVP'
tp394
F18
s(S'AP'
S'AADVVP'
tp395
F4
s(S'PP'
S'PPPPDP'
tp396
F1
s(S'MP'
S'MADVADVVPP'
tp397
F1
s(g263
S'VPP'
tp398
F211
s(S'CP'
S'ADVCCDP'
tp399
F4
s(S'CP'
S'ACCDP'
tp400
F1
s(S'DP'
S'ADVDDNP'
tp401
F1
s(S'PP'
S'ADVADVPADVNP'
tp402
F1
s(S'NP'
S'NNNCP'
tp403
F8
s(g378
S'PADVDP'
tp404
F10
s(S'AP'
S'ADVAADP'
tp405
F1
s(S'DP'
S'DANNP'
tp406
F2
s(S'MP'
S'MADVVAP'
tp407
F1
s(S'PP'
S'PADVAAP'
tp408
F2
s(g373
S'CDDPP'
tp409
F56
s(g117
S'DAAPP'
tp410
F8
s(g17
S'PVVP'
tp411
F29
s(S'CP'
S'CADPPP'
tp412
F4
s(S'AP'
p413
S'AACP'
tp414
F14
s(S'VP'
S'ADVAVDDP'
tp415
F1
s(g10
S'ADVVCP'
tp416
F10
s(S'PP'
S'ADVPPAP'
tp417
F1
s(g151
S'VPPP'
tp418
F24
s(g89
S'VVPPP'
tp419
F3
s(S'NP'
p420
S'ADVNAMP'
tp421
F1
s(S'PP'
S'PPAP'
tp422
F13
s(S'DP'
p423
S'DVVP'
tp424
F39
s(g87
S'PADVAVP'
tp425
F2
s(S'VP'
S'VVVADVAP'
tp426
F1
s(S'PP'
S'ADVADVADVPPPP'
tp427
F2
s(g178
S'ADVACDDP'
tp428
F1
s(S'NP'
S'ANMP'
tp429
F7
s(S'AP'
S'APPP'
tp430
F6
s(S'NP'
S'NNNNMP'
tp431
F1
s(S'DP'
p432
S'ADVADPPP'
tp433
F1
s(S'NP'
p434
S'ADVADVNVP'
tp435
F1
s(S'VP'
p436
S'VVVP'
tp437
F6
s(S'CP'
S'CADVDPP'
tp438
F15
s(S'PP'
p439
S'PPDDDP'
tp440
F1
s(S'DP'
S'ADVDNNNP'
tp441
F1
s(g278
S'ANCP'
tp442
F47
s(g6
S'DCP'
tp443
F22
s(g8
S'DVVVP'
tp444
F6
s(S'NP'
S'AAANCP'
tp445
F1
s(S'NP'
S'NNVVVVP'
tp446
F3
s(S'NP'
S'NVVVVP'
tp447
F4
s(g53
S'VVVPP'
tp448
F8
s(S'DP'
S'DDADVPP'
tp449
F1
s(S'MP'
S'MAADP'
tp450
F1
s(S'NP'
S'ANVVP'
tp451
F2
s(g70
S'VVDP'
tp452
F69
s(S'NP'
p453
S'NPPP'
tp454
F31
s(S'PP'
S'PPAPP'
tp455
F1
s(S'VP'
S'ADVVNNNP'
tp456
F1
s(S'MP'
S'AMVVP'
tp457
F1
s(S'DP'
S'DAVP'
tp458
F15
s(S'VP'
S'AVVVP'
tp459
F1
s(S'VP'
S'ADVADVADVADVVNP'
tp460
F1
s(S'VP'
S'VADVADVAP'
tp461
F3
s(g198
S'ADVPPP'
tp462
F6
s(S'AP'
S'ACP'
tp463
F110
s(g320
S'PAAAPP'
tp464
F1
s(g420
S'NDDDDP'
tp465
F1
s(g183
S'PPNP'
tp466
F44
s(S'MP'
S'MADVADVVPPP'
tp467
F1
s(g355
S'APPPP'
tp468
F2
s(S'NP'
S'NAADP'
tp469
F3
s(S'VP'
S'ADVVADVDP'
tp470
F1
s(S'DP'
S'DADP'
tp471
F5
s(S'DP'
S'AADVP'
tp472
F1
s(S'CP'
S'CADAPPP'
tp473
F1
s(S'CP'
S'CDDADVPP'
tp474
F1
s(S'MP'
S'MMMMVVP'
tp475
F1
s(S'AP'
S'ADP'
tp476
F239
s(g367
S'ADVADVADVDDVVP'
tp477
F1
s(S'DP'
S'DDPPPP'
tp478
F3
s(S'NP'
S'ANPPP'
tp479
F1
s(S'DP'
S'DMP'
tp480
F3
s(S'DP'
S'DVVVVP'
tp481
F2
s(S'DP'
S'DDVVVP'
tp482
F1
s(S'MP'
S'MPNP'
tp483
F3
s(g284
S'AVDP'
tp484
F32
s(S'NP'
p485
S'ANNVP'
tp486
F3
s(S'VP'
S'VVAP'
tp487
F23
s(S'NP'
p488
S'NNAPP'
tp489
F4
s(S'MP'
S'MNADVVP'
tp490
F1
s(S'NP'
S'NNADVADVADVVP'
tp491
F2
s(S'CP'
S'ADVACDP'
tp492
F1
s(g439
S'APPVVP'
tp493
F1
s(S'VP'
S'AAVCP'
tp494
F1
s(S'PP'
S'PADVMP'
tp495
F1
s(S'NP'
S'NNADVCCP'
tp496
F1
s(g103
S'NPP'
tp497
F298
s(g103
S'NVP'
tp498
F373
s(g60
S'PAAVP'
tp499
F2
s(S'NP'
p500
S'NAAPP'
tp501
F2
s(S'PP'
S'PPPPVP'
tp502
F1
s(S'VP'
S'VDDP'
tp503
F25
s(S'VP'
S'ADVVADVAP'
tp504
F1
s(S'DP'
S'DDDP'
tp505
F4
s(S'NP'
S'AANNVP'
tp506
F2
s(S'NP'
S'AANVVP'
tp507
F1
s(S'DP'
S'DADVAPP'
tp508
F1
s(g485
S'NADVADVVVP'
tp509
F7
s(g103
S'ANPP'
tp510
F53
s(S'PP'
S'ADVPPDP'
tp511
F4
s(g210
S'PPPPP'
tp512
F7
s(S'MP'
S'MPDP'
tp513
F3
s(g17
S'ADVADVPDP'
tp514
F1
s(S'MP'
S'MVVPP'
tp515
F2
s(S'AP'
S'AMMP'
tp516
F2
s(g8
S'ADVDPP'
tp517
F24
s(S'DP'
S'DDDDDP'
tp518
F1
s(S'AP'
S'ADVADVAVP'
tp519
F2
s(S'DP'
S'ADDP'
tp520
F3
s(g175
S'NADVAAP'
tp521
F1
s(S'MP'
S'ADVADVMMVP'
tp522
F1
s(g439
S'AAAPPNP'
tp523
F1
s(S'NP'
S'NADVPP'
tp524
F3
s(g161
S'DADVADVVP'
tp525
F3
s(S'NP'
S'NAACP'
tp526
F1
s(g91
S'PNNP'
tp527
F72
s(S'VP'
S'VADVACP'
tp528
F1
s(S'CP'
S'CDADVADVADVPPP'
tp529
F4
s(S'PP'
S'APNNP'
tp530
F3
s(g220
S'ADVADVVDDDDP'
tp531
F1
s(S'NP'
p532
S'NNNAPP'
tp533
F1
s(S'DP'
S'ADVDADVADVPPPP'
tp534
F1
s(S'AP'
S'ADVAVVVP'
tp535
F1
s(S'AP'
S'AANNP'
tp536
F1
s(S'VP'
S'AVAP'
tp537
F4
s(g196
S'MMVP'
tp538
F7
s(S'PP'
S'PADVDDP'
tp539
F1
s(g68
S'CADVADPPP'
tp540
F1
s(S'NP'
S'ADVNCP'
tp541
F6
s(g21
S'ADPP'
tp542
F49
s(S'NP'
p543
S'ADVANNP'
tp544
F1
s(S'AP'
S'AADVADVADVVP'
tp545
F1
s(S'VP'
S'VAPPP'
tp546
F1
s(g142
S'ACDP'
tp547
F26
s(g275
S'VCCP'
tp548
F7
s(S'AP'
S'ADVANP'
tp549
F4
s(S'NP'
S'NNACP'
tp550
F3
s(S'PP'
S'ADVADVADVPPNP'
tp551
F4
s(S'CP'
S'CDADVPPP'
tp552
F2
s(g263
S'VAP'
tp553
F173
s(S'VP'
S'VVVVNP'
tp554
F6
s(g311
S'DDDPP'
tp555
F12
s(S'NP'
S'AANNCP'
tp556
F2
s(g78
S'ADVPMP'
tp557
F3
s(S'VP'
S'VADVMP'
tp558
F1
s(S'PP'
S'PAAPP'
tp559
F1
s(S'AP'
S'ADVAAPP'
tp560
F2
s(S'AP'
S'AAVVP'
tp561
F1
s(S'MP'
S'MAVPP'
tp562
F1
s(S'NP'
S'NPPPP'
tp563
F2
s(g295
S'DDDPPP'
tp564
F1
s(S'VP'
S'ADVAVDP'
tp565
F3
s(g117
S'DADVDP'
tp566
F1
s(S'NP'
S'NNAVVP'
tp567
F1
s(S'NP'
p568
S'ADVANMMP'
tp569
F1
s(S'AP'
S'AAACP'
tp570
F2
s(S'VP'
S'ADVVVDP'
tp571
F6
s(S'PP'
S'PPPVP'
tp572
F5
s(S'AP'
S'AADDP'
tp573
F3
s(S'PP'
S'PPPADVADVNP'
tp574
F1
s(S'CP'
S'AACDDDDP'
tp575
F1
s(S'VP'
S'VAANP'
tp576
F3
s(S'NP'
p577
S'NADVADVCP'
tp578
F2
s(S'PP'
S'ADVPNNP'
tp579
F1
s(g6
S'DDDDPP'
tp580
F7
s(S'DP'
S'DADVADVDP'
tp581
F1
s(g127
S'PADVADVPPP'
tp582
F2
s(S'VP'
p583
S'VVAADP'
tp584
F1
s(S'MP'
S'MADP'
tp585
F6
s(g267
S'ADVADVADVVAP'
tp586
F2
s(S'DP'
S'DDADVNP'
tp587
F2
s(S'PP'
S'PANP'
tp588
F35
s(S'PP'
p589
S'PDDDP'
tp590
F5
s(S'NP'
S'ANNMP'
tp591
F1
s(S'NP'
S'NADVDDP'
tp592
F2
s(S'NP'
S'AANMP'
tp593
F1
s(S'AP'
S'AAVP'
tp594
F10
s(S'AP'
S'AVVP'
tp595
F20
s(g278
S'NDDP'
tp596
F14
s(S'MP'
S'MADVADVVVPP'
tp597
F1
s(S'CP'
S'CDDADVADVPPP'
tp598
F1
s(S'DP'
S'ADVADVDPPP'
tp599
F1
s(S'AP'
p600
S'ACCP'
tp601
F9
s(g358
S'PADVADVADVDDP'
tp602
F1
s(S'VP'
S'VVVVAP'
tp603
F2
s(g161
S'ADADVAAP'
tp604
F1
s(S'AP'
S'APPPP'
tp605
F1
s(g305
S'NDP'
tp606
F103
s(S'MP'
S'MAANPP'
tp607
F1
s(S'NP'
S'NNNNVVP'
tp608
F1
s(S'MP'
S'MVAAP'
tp609
F2
s(S'DP'
S'DDVP'
tp610
F32
s(S'DP'
S'ADADVPPP'
tp611
F1
s(S'PP'
S'ADVADVAPADVVP'
tp612
F1
s(S'NP'
S'AANVP'
tp613
F4
s(S'VP'
S'AAVVPP'
tp614
F1
s(S'VP'
S'VNNNP'
tp615
F5
s(S'VP'
S'ADVADVADVVVCP'
tp616
F1
s(S'VP'
S'ADVADVVADP'
tp617
F1
s(g226
S'VADVADVPP'
tp618
F1
s(S'MP'
S'MADVAVPP'
tp619
F1
s(S'MP'
S'MMVVVP'
tp620
F1
s(S'PP'
p621
S'ADVPPADVDP'
tp622
F1
s(S'PP'
S'PCP'
tp623
F10
s(S'NP'
p624
S'NNPPP'
tp625
F2
s(g84
S'PAADP'
tp626
F2
s(S'NP'
p627
S'ADVNNVP'
tp628
F1
s(S'MP'
S'MDNP'
tp629
F2
s(S'NP'
S'NNNMP'
tp630
F3
s(g364
S'MMNP'
tp631
F1
s(S'MP'
S'MPAP'
tp632
F1
s(S'NP'
S'NNNDP'
tp633
F3
s(g600
S'ADVACP'
tp634
F15
s(S'NP'
S'ADVADVNMP'
tp635
F4
s(g583
S'VVVAP'
tp636
F2
s(S'VP'
S'ADVADVAVDP'
tp637
F1
s(S'DP'
p638
S'ADPPP'
tp639
F7
s(S'MP'
S'MVCP'
tp640
F10
s(S'CP'
S'CCDDP'
tp641
F6
s(g543
S'NNADVVP'
tp642
F7
s(S'VP'
S'ADVADVADVVPP'
tp643
F1
s(S'NP'
S'NAAP'
tp644
F10
s(S'MP'
S'MADVADVADVVPP'
tp645
F1
s(S'NP'
S'NNVVP'
tp646
F15
s(S'PP'
S'PPADVPPP'
tp647
F1
s(S'VP'
p648
S'VVCP'
tp649
F28
s(g119
S'ADVDMP'
tp650
F1
s(S'NP'
S'AANCP'
tp651
F9
s(S'VP'
S'VADVNP'
tp652
F8
s(S'VP'
S'VVDDDP'
tp653
F1
s(S'AP'
S'AADVCP'
tp654
F3
s(S'VP'
S'AVVPP'
tp655
F1
s(g488
S'NNDDP'
tp656
F1
s(S'CP'
S'ADVADVADVADVCCDP'
tp657
F1
s(S'VP'
S'ADVVPP'
tp658
F21
s(S'CP'
S'CDAPPP'
tp659
F1
s(g144
S'VNNP'
tp660
F25
s(S'AP'
S'AADVDP'
tp661
F5
s(S'AP'
S'AAAMP'
tp662
F1
s(S'NP'
S'NADP'
tp663
F1
s(g638
S'DDNP'
tp664
F44
s(S'CP'
S'ACADVDP'
tp665
F1
s(S'NP'
S'NADVCP'
tp666
F4
s(g391
S'DDNNP'
tp667
F8
s(g589
S'AAPPP'
tp668
F4
s(S'VP'
S'ADVAVPP'
tp669
F1
s(S'NP'
S'ADVANVP'
tp670
F3
s(S'NP'
S'ADVADVANPP'
tp671
F1
s(g82
S'ADVADVNCP'
tp672
F2
s(g41
S'AADPP'
tp673
F6
s(g432
S'ADVDAPP'
tp674
F1
s(S'NP'
S'ADVNAACP'
tp675
F1
s(S'NP'
S'NNNNPP'
tp676
F1
s(S'NP'
S'NNAMP'
tp677
F2
s(S'DP'
S'DADVADVANP'
tp678
F2
s(S'PP'
S'ADVPAP'
tp679
F3
s(S'PP'
S'ADVADVPPPNP'
tp680
F1
s(S'PP'
S'PAANNP'
tp681
F1
s(S'AP'
S'AAMMP'
tp682
F1
s(S'CP'
S'CDPPPPP'
tp683
F3
s(S'VP'
S'ADVADVADVVDDP'
tp684
F1
s(S'MP'
S'MVVNP'
tp685
F4
s(S'PP'
S'PPPPVVP'
tp686
F1
s(g31
S'ADVDNNP'
tp687
F4
s(S'CP'
S'ACDDP'
tp688
F1
s(g413
S'AAPP'
tp689
F12
s(S'VP'
S'VVCCP'
tp690
F4
s(S'PP'
S'APPNP'
tp691
F1
s(g311
S'DADVADVNP'
tp692
F1
s(S'PP'
S'ADVPANP'
tp693
F1
s(S'VP'
S'VADVADP'
tp694
F2
s(g627
S'NAPP'
tp695
F20
s(S'PP'
S'APPVP'
tp696
F1
s(S'AP'
S'ADVADVADP'
tp697
F2
s(S'NP'
S'NADVDP'
tp698
F2
s(S'VP'
S'VVVCP'
tp699
F1
s(S'MP'
S'MADVADVVVDP'
tp700
F1
s(S'NP'
S'ANCCP'
tp701
F5
s(S'NP'
S'AANPP'
tp702
F6
s(S'VP'
S'VDDDP'
tp703
F1
s(g453
S'NNMP'
tp704
F16
s(S'DP'
S'DDDVP'
tp705
F2
s(g237
S'MVVANNP'
tp706
F1
s(S'MP'
S'MADVVADP'
tp707
F1
s(S'PP'
S'ADVADVPNNP'
tp708
F1
s(S'CP'
S'CADDPP'
tp709
F1
s(g53
S'VVADVADVPP'
tp710
F2
s(S'PP'
S'PAAAP'
tp711
F5
s(S'PP'
S'ADVADVPNP'
tp712
F1
s(S'DP'
S'DADVAP'
tp713
F6
s(S'CP'
S'CDDAPP'
tp714
F1
s(S'NP'
p715
S'AANAP'
tp716
F3
s(S'NP'
S'ANAP'
tp717
F7
s(S'MP'
S'MVAP'
tp718
F12
s(g49
S'PVP'
tp719
F271
s(S'VP'
p720
S'VADVPPP'
tp721
F3
s(S'DP'
S'DADVAVP'
tp722
F3
s(S'AP'
S'ADVADVAPP'
tp723
F2
s(S'VP'
S'VADVCCP'
tp724
F1
s(S'DP'
S'DADVADVVVP'
tp725
F1
s(S'AP'
S'ADVAACP'
tp726
F1
s(S'NP'
S'ADVNAVP'
tp727
F1
s(S'NP'
S'ANNCP'
tp728
F4
s(S'PP'
S'PPADVPP'
tp729
F1
s(S'NP'
S'ADVANNVP'
tp730
F1
s(g621
S'AAPPPP'
tp731
F1
s(S'PP'
S'PPDDP'
tp732
F4
s(S'VP'
p733
S'AVCP'
tp734
F5
s(S'NP'
S'NADVADVAP'
tp735
F1
s(S'NP'
S'NAVVP'
tp736
F1
s(S'DP'
S'ADVADVADVDDPPP'
tp737
F1
s(S'DP'
S'DPP'
tp738
F506
s(S'DP'
S'ADVVP'
tp739
F3
s(S'NP'
p740
S'ADVNVP'
tp741
F11
s(S'DP'
p742
S'DDPP'
tp743
F75
s(S'DP'
S'DDADVPPP'
tp744
F1
s(S'DP'
S'DDAVP'
tp745
F2
s(g21
S'DANP'
tp746
F95
s(S'PP'
S'PADVADVADVADVVP'
tp747
F1
s(S'NP'
S'NADVADVADVADVCCP'
tp748
F1
s(S'PP'
S'ADVADVPPNP'
tp749
F1
s(g45
S'AAPPVP'
tp750
F1
s(S'NP'
S'NAAVP'
tp751
F5
s(S'PP'
S'APADVDDP'
tp752
F1
s(S'DP'
S'AADNP'
tp753
F3
s(S'AP'
S'ADVAAACP'
tp754
F1
s(S'NP'
S'NNAPPP'
tp755
F1
s(S'VP'
p756
S'VADVCP'
tp757
F2
s(S'PP'
S'PPPVVP'
tp758
F1
s(S'NP'
S'NNNNAP'
tp759
F1
s(S'PP'
S'PMMMP'
tp760
F1
s(g577
S'NNNNCP'
tp761
F1
s(S'NP'
S'NADVCCP'
tp762
F2
s(S'DP'
S'DADVADVAVP'
tp763
F2
s(S'VP'
S'ADVAVAP'
tp764
F1
s(g624
S'NNNVVP'
tp765
F4
s(g84
S'PADVPPP'
tp766
F2
s(S'PP'
S'AAPNNP'
tp767
F1
s(S'DP'
S'DCCP'
tp768
F1
s(S'PP'
p769
S'ADVADVPPP'
tp770
F2
s(S'PP'
S'ADVPADVADVDDDP'
tp771
F1
s(g124
S'AAPDP'
tp772
F6
s(S'MP'
S'MADVVDP'
tp773
F5
s(g241
S'DDADVVP'
tp774
F1
s(g383
S'PDDP'
tp775
F39
s(S'MP'
S'MVDDP'
tp776
F2
s(g355
S'PCCP'
tp777
F1
s(S'PP'
S'ADVAPNP'
tp778
F3
s(S'NP'
S'NNNADVPP'
tp779
F1
s(S'NP'
S'NNNADVVP'
tp780
F2
s(g624
S'NNVP'
tp781
F73
s(S'AP'
S'ADVADVACP'
tp782
F1
s(g485
S'NNP'
tp783
F1
s(S'DP'
p784
S'ADVADPP'
tp785
F4
s(S'DP'
S'DAANP'
tp786
F8
s(S'PP'
S'AAAPAP'
tp787
F1
s(S'AP'
S'ADDP'
tp788
F33
s(S'PP'
S'PNNNNP'
tp789
F2
s(S'VP'
S'ADVVVAP'
tp790
F3
s(S'PP'
S'ADVPPNP'
tp791
F8
s(S'VP'
S'VADVADVADVVP'
tp792
F1
s(S'NP'
S'ADVADVANCP'
tp793
F2
s(S'CP'
S'CDDADVAPP'
tp794
F2
s(S'VP'
S'AAVNNP'
tp795
F1
s(S'DP'
S'DAAPPP'
tp796
F3
s(S'MP'
S'MDAP'
tp797
F1
s(S'CP'
S'CADVADVDPP'
tp798
F2
s(g423
S'DPPP'
tp799
F86
s(S'DP'
S'AADPPP'
tp800
F2
s(S'VP'
S'VANNP'
tp801
F3
s(g740
S'ADVADVNAAPP'
tp802
F1
s(S'NP'
S'NNAVP'
tp803
F1
s(S'PP'
S'PPPANP'
tp804
F1
s(g500
S'NNNADVVVP'
tp805
F1
s(S'PP'
S'ADVPNP'
tp806
F9
s(g378
S'PPDP'
tp807
F42
s(S'MP'
S'MAVDP'
tp808
F4
s(g186
S'ADVADVADVPVP'
tp809
F1
s(S'MP'
S'MVVADP'
tp810
F1
s(S'DP'
S'DDADVANP'
tp811
F1
s(S'NP'
S'AAANMP'
tp812
F1
s(S'NP'
S'ANADVADVVP'
tp813
F1
s(S'DP'
S'ADVDDNNP'
tp814
F1
s(S'AP'
S'AAAPP'
tp815
F3
s(g305
S'NAP'
tp816
F84
s(S'NP'
S'NNAAP'
tp817
F1
s(g733
S'VAAAP'
tp818
F5
s(g300
S'AAVADVNP'
tp819
F1
s(S'VP'
S'ADVAVNP'
tp820
F1
s(g648
S'VVP'
tp821
F45
s(S'MP'
S'ADVMNP'
tp822
F1
s(S'DP'
p823
S'DDAPP'
tp824
F5
s(S'AP'
S'AAADP'
tp825
F6
s(g232
S'APNP'
tp826
F23
s(S'DP'
S'DDVVP'
tp827
F3
s(S'AP'
S'AAADDP'
tp828
F2
s(g648
S'VVVNP'
tp829
F8
s(S'MP'
S'MNPP'
tp830
F1
s(g300
S'ADVADVADVVVCCP'
tp831
F1
s(S'NP'
S'NAMP'
tp832
F5
s(S'MP'
S'MVNNP'
tp833
F1
s(S'CP'
S'CDPP'
tp834
F444
s(S'NP'
S'NNCCCP'
tp835
F1
s(S'AP'
S'ADDDP'
tp836
F2
s(S'AP'
S'AADVADVADVPPP'
tp837
F1
s(S'CP'
S'ADVCADP'
tp838
F1
s(S'DP'
S'ADVDVVP'
tp839
F1
s(S'MP'
S'MMMVP'
tp840
F2
s(S'CP'
S'ADVCDP'
tp841
F11
s(S'AP'
S'ADVAAP'
tp842
F1
s(g53
S'ADVADVVNP'
tp843
F7
s(S'PP'
S'ADVPVVP'
tp844
F3
s(g720
S'VADVADVDP'
tp845
F2
s(g378
S'PPNNP'
tp846
F11
s(S'NP'
S'NNADVADVVP'
tp847
F1
s(S'AP'
S'ADVACCP'
tp848
F1
s(g589
S'APADDDP'
tp849
F1
s(S'CP'
S'CAADDPP'
tp850
F2
s(S'VP'
S'VADVADVNP'
tp851
F1
s(S'DP'
S'ADVADVDPP'
tp852
F4
s(g323
S'VDP'
tp853
F303
s(S'PP'
S'PPPADVNP'
tp854
F1
s(g715
S'NADVAP'
tp855
F6
s(g436
S'AVDDP'
tp856
F3
s(S'DP'
S'DADVNP'
tp857
F9
s(S'DP'
S'DDCCP'
tp858
F1
s(g742
S'DAP'
tp859
F61
s(S'MP'
S'MCADVDP'
tp860
F1
s(S'CP'
S'CADPP'
tp861
F33
s(S'NP'
S'NADVAVP'
tp862
F1
s(S'VP'
S'ADVADVVVPP'
tp863
F3
s(S'VP'
p864
S'VVAAVVP'
tp865
F1
s(g325
S'ADAPPP'
tp866
F1
s(S'MP'
S'MADVADVVDP'
tp867
F1
s(S'VP'
p868
S'ADVADVVCCP'
tp869
F1
s(g53
S'AVPP'
tp870
F11
s(S'CP'
S'CAADPPP'
tp871
F1
s(S'VP'
p872
S'VVADVDP'
tp873
F6
s(g375
S'CDPPPP'
tp874
F10
s(S'VP'
S'VADVADVCCP'
tp875
F1
s(S'VP'
S'AAVDP'
tp876
F7
s(S'NP'
S'AAANNVP'
tp877
F1
s(S'PP'
S'PANNP'
tp878
F2
s(S'VP'
S'VACCP'
tp879
F1
s(S'PP'
S'APPP'
tp880
F8
s(S'DP'
S'DAPPP'
tp881
F1
s(S'DP'
S'DADVADVPP'
tp882
F3
s(S'DP'
S'ADVP'
tp883
F7
s(g769
S'PPPNP'
tp884
F5
s(S'PP'
S'PPAANP'
tp885
F1
s(g124
S'PADVADVNP'
tp886
F5
s(S'AP'
S'AADP'
tp887
F37
s(S'PP'
S'PPAAVP'
tp888
F1
s(S'NP'
S'NNADVVVP'
tp889
F2
s(g872
S'VADVPP'
tp890
F2
s(g135
S'ADVDANP'
tp891
F2
s(S'CP'
S'CCADVDDP'
tp892
F4
s(S'PP'
S'PVVVVP'
tp893
F2
s(S'PP'
S'ADVPVP'
tp894
F9
s(g290
S'NADVADVADVVVP'
tp895
F4
s(g864
S'AAVVNP'
tp896
F1
s(g624
S'NNVVVP'
tp897
F3
s(S'PP'
S'PADVADVADVNP'
tp898
F1
s(S'VP'
S'ADVADVVAANP'
tp899
F1
s(g60
S'PAMP'
tp900
F1
s(S'PP'
S'ADVPDP'
tp901
F9
s(S'VP'
S'ADVVADP'
tp902
F1
s(g568
S'ANNPP'
tp903
F2
s(g280
S'NCP'
tp904
F304
s(g292
S'CADVDPPP'
tp905
F3
s(g756
S'ADVVVPP'
tp906
F10
s(S'NP'
S'ADVANDP'
tp907
F1
s(S'CP'
S'CCADVADVADVDDP'
tp908
F1
s(S'VP'
S'VAADP'
tp909
F2
s(S'NP'
S'ADVNMMMMP'
tp910
F1
s(S'DP'
S'DADVNNP'
tp911
F1
s(S'VP'
S'VADVADVANP'
tp912
F2
s(g453
S'NNCCP'
tp913
F9
s(S'MP'
S'MNVP'
tp914
F3
s(S'NP'
S'NNNADVDP'
tp915
F1
s(S'CP'
S'ADVADVCCDP'
tp916
F1
s(S'PP'
S'PADVADVAP'
tp917
F1
s(g868
S'VAPP'
tp918
F17
s(g137
S'NPPPPP'
tp919
F1
s(S'VP'
S'ADVVDP'
tp920
F18
s(g742
S'DADVPP'
tp921
F27
s(S'VP'
S'VVADVAP'
tp922
F4
s(S'AP'
S'AMP'
tp923
F8
s(S'CP'
S'CCADP'
tp924
F4
s(S'NP'
S'ADVNNCP'
tp925
F1
s(S'DP'
S'ADVDAP'
tp926
F2
s(S'PP'
S'ADVADVADVPNP'
tp927
F1
s(S'NP'
S'NNNPPP'
tp928
F1
s(S'AP'
S'ADVAPP'
tp929
F11
s(S'DP'
S'DDADVAPP'
tp930
F3
s(S'AP'
S'ADVAADVADVVP'
tp931
F1
s(g6
S'ADVDAVP'
tp932
F1
s(S'CP'
S'AACDP'
tp933
F2
s(S'NP'
S'NADVADVACP'
tp934
F1
s(g784
S'ADVDPPP'
tp935
F4
s(g8
S'DVP'
tp936
F255
s(S'VP'
S'AVNNP'
tp937
F1
s(g434
S'ADVNPP'
tp938
F5
s(S'DP'
S'DDDDADVNP'
tp939
F1
s(S'CP'
S'AAACDP'
tp940
F1
s(S'DP'
S'DDDAVVP'
tp941
F1
s(g216
S'AVP'
tp942
F40
s(g532
S'NADVVP'
tp943
F28
s(S'CP'
S'CDAAAPP'
tp944
F1
s(g6
S'DADDP'
tp945
F1
s(S'DP'
S'DADVANNP'
tp946
F1
s(g823
S'DDPPP'
tp947
F9
s(S'MP'
S'MADVADVADVVDP'
tp948
F1
s(S'NP'
S'ADVNMP'
tp949
F11
s(g305
S'NNAP'
tp950
F12
s(S'MP'
S'MADVVCP'
tp951
F1
s(g214
S'PPANP'
tp952
F7
s(S'CP'
S'CDADVPP'
tp953
F17
s(g70
S'VNP'
tp954
F252
s(g323
S'VANP'
tp955
F17
s(S'VP'
S'VADVAP'
tp956
F21
s(S'DP'
S'DDDANP'
tp957
F1
s(S'PP'
S'PPADVNP'
tp958
F2
s(S'DP'
S'DDDDVP'
tp959
F1
s(S'VP'
S'ADVADVVVDP'
tp960
F2
s(S'NP'
S'AANNAP'
tp961
F1
s(S'NP'
S'NADVPPP'
tp962
F4
s.