ccollections
defaultdict
p1
(c__builtin__
float
p2
tRp3
(S'VP'
p4
S'VVAAAP'
tp5
F1
s(S'PP'
p6
S'ADVADVPPAP'
tp7
F1
s(S'CP'
S'CAAADPP'
tp8
F1
s(S'DP'
S'DDMP'
tp9
F1
s(S'DP'
S'ADDPP'
tp10
F2
s(S'NP'
S'ADVNNMP'
tp11
F1
s(S'DP'
S'DDAP'
tp12
F4
s(S'VP'
p13
S'ADVVVNP'
tp14
F3
s(S'AP'
S'AADDDP'
tp15
F1
s(S'VP'
S'VVVVP'
tp16
F1
s(S'DP'
S'DAANNP'
tp17
F1
s(S'NP'
S'NADDP'
tp18
F1
s(S'AP'
S'AVVVP'
tp19
F1
s(S'PP'
S'PAPP'
tp20
F11
s(S'PP'
p21
S'PADVNP'
tp22
F12
s(S'DP'
p23
S'DNP'
tp24
F240
s(S'VP'
S'VVADVCP'
tp25
F1
s(S'CP'
S'CDPPP'
tp26
F48
s(S'PP'
p27
S'ADVPPANP'
tp28
F1
s(S'VP'
S'VADP'
tp29
F11
s(S'DP'
S'DAAP'
tp30
F7
s(S'VP'
p31
S'AAVPPP'
tp32
F1
s(S'PP'
p33
S'PPPPPP'
tp34
F3
s(S'VP'
S'VAVP'
tp35
F1
s(S'PP'
S'APPDP'
tp36
F4
s(S'CP'
p37
S'CADVADVDPPP'
tp38
F2
s(S'DP'
p39
S'ADNNP'
tp40
F1
s(S'PP'
p41
S'PADVADVAAP'
tp42
F3
s(S'VP'
p43
S'ADVVNP'
tp44
F7
s(S'MP'
p45
S'MVDP'
tp46
F13
s(S'PP'
S'PADVANP'
tp47
F2
s(S'NP'
p48
S'ADVNAVVP'
tp49
F1
s(S'PP'
p50
S'PPPP'
tp51
F29
s(S'AP'
S'ADVAPPP'
tp52
F1
s(S'DP'
p53
S'DDDNP'
tp54
F2
s(S'VP'
S'VACP'
tp55
F3
s(S'AP'
S'AAAVP'
tp56
F2
s(S'PP'
p57
S'PPAAP'
tp58
F2
s(S'DP'
p59
S'DADVVP'
tp60
F13
s(S'PP'
S'PADVNNP'
tp61
F1
s(S'NP'
S'NADVACP'
tp62
F1
s(S'AP'
p63
S'ADVADVADVAAPPPPP'
tp64
F1
s(S'NP'
p65
S'NDDDP'
tp66
F1
s(S'NP'
p67
S'NADVVVP'
tp68
F9
s(S'VP'
p69
S'VCP'
tp70
F118
s(S'NP'
S'NMMP'
tp71
F5
s(S'VP'
S'VVVPP'
tp72
F2
s(S'VP'
S'ADVVCCP'
tp73
F1
s(S'PP'
p74
S'ADVPADP'
tp75
F1
s(S'PP'
p76
S'PAP'
tp77
F123
s(S'MP'
S'MMVVP'
tp78
F2
s(S'DP'
S'DDADVADVPP'
tp79
F1
s(S'PP'
S'ADVPPVP'
tp80
F3
s(S'CP'
p81
S'ADVCDDDP'
tp82
F1
s(S'NP'
S'NNNAP'
tp83
F1
s(S'PP'
S'APVVP'
tp84
F1
s(S'NP'
S'NAAAVP'
tp85
F1
s(g76
S'PNP'
tp86
F237
s(S'NP'
S'ADVADVADVNNCP'
tp87
F2
s(S'PP'
S'PAAADP'
tp88
F1
s(S'DP'
p89
S'DDP'
tp90
F37
s(S'MP'
S'MADVADVVAP'
tp91
F2
s(S'VP'
S'ADVVDDP'
tp92
F1
s(S'NP'
S'NNNPP'
tp93
F5
s(g65
S'NNDP'
tp94
F14
s(S'MP'
S'ADVMAVP'
tp95
F1
s(S'NP'
p96
S'NMP'
tp97
F70
s(S'VP'
S'VVVADP'
tp98
F1
s(S'NP'
S'ADVNAPP'
tp99
F1
s(S'PP'
p100
S'PPADVADVAP'
tp101
F1
s(S'VP'
S'AAVNP'
tp102
F1
s(g31
S'VMMP'
tp103
F1
s(g76
S'PDP'
tp104
F230
s(S'DP'
S'DDPPPPP'
tp105
F2
s(S'CP'
S'CCADVADVDP'
tp106
F1
s(S'CP'
S'CDADVADVPP'
tp107
F1
s(S'MP'
S'MADVVNP'
tp108
F1
s(S'CP'
S'CDADVADVPPP'
tp109
F2
s(S'VP'
S'AAAVCP'
tp110
F1
s(S'PP'
p111
S'PADVPP'
tp112
F2
s(S'MP'
S'MVADVANP'
tp113
F1
s(S'PP'
p114
S'PPADVAP'
tp115
F1
s(S'AP'
S'ADVADVAMP'
tp116
F1
s(S'DP'
S'DPPPP'
tp117
F14
s(S'PP'
S'PADVADP'
tp118
F1
s(S'NP'
p119
S'NACP'
tp120
F15
s(S'AP'
S'ADVAVP'
tp121
F2
s(S'NP'
p122
S'NCCP'
tp123
F30
s(S'AP'
S'ADVADVAADDP'
tp124
F1
s(S'NP'
S'ADVNDP'
tp125
F3
s(S'NP'
p126
S'NNCP'
tp127
F40
s(g53
S'ADVDDPP'
tp128
F3
s(S'NP'
S'NADVADVVP'
tp129
F2
s(S'DP'
S'DPPPPP'
tp130
F2
s(S'NP'
p131
S'NNPPPP'
tp132
F1
s(S'DP'
S'DDDDP'
tp133
F1
s(S'VP'
S'AVNP'
tp134
F8
s(S'VP'
S'VVADP'
tp135
F1
s(S'AP'
S'AAADVVP'
tp136
F1
s(g74
S'ADVAPDP'
tp137
F2
s(S'VP'
p138
S'VADVVP'
tp139
F1
s(S'PP'
S'ADVADVPPANP'
tp140
F1
s(S'NP'
p141
S'ANADVVP'
tp142
F1
s(S'MP'
S'MVVDDDP'
tp143
F1
s(S'PP'
S'ADVPADVNP'
tp144
F1
s(S'MP'
p145
S'MADVADVVNNP'
tp146
F1
s(S'VP'
p147
S'ADVVAP'
tp148
F7
s(S'VP'
S'VCCCP'
tp149
F4
s(S'PP'
p150
S'PADVVVP'
tp151
F2
s(S'PP'
p152
S'APDP'
tp153
F35
s(S'AP'
S'AADVCP'
tp154
F2
s(S'AP'
S'AADVACP'
tp155
F1
s(S'VP'
S'VVANP'
tp156
F2
s(S'PP'
p157
S'ADVPNNP'
tp158
F1
s(S'VP'
p159
S'ADVVVP'
tp160
F2
s(S'DP'
S'DADVADVADVPP'
tp161
F1
s(S'NP'
S'NADVADVADVADVDP'
tp162
F1
s(S'MP'
S'MAVNP'
tp163
F1
s(S'NP'
S'ADVANCP'
tp164
F2
s(g59
S'DNNP'
tp165
F35
s(S'CP'
p166
S'CADVDDPP'
tp167
F3
s(S'DP'
S'ADVADVDDNP'
tp168
F1
s(S'CP'
p169
S'CCADVDP'
tp170
F4
s(S'DP'
p171
S'ADDNP'
tp172
F1
s(S'NP'
S'NNNVP'
tp173
F4
s(S'VP'
S'VADVNNP'
tp174
F2
s(S'PP'
p175
S'PADVVP'
tp176
F11
s(S'DP'
S'DACP'
tp177
F1
s(S'PP'
S'PADVADVADVAP'
tp178
F1
s(S'PP'
p179
S'APAP'
tp180
F7
s(S'AP'
S'APP'
tp181
F60
s(S'NP'
S'NADVMP'
tp182
F4
s(S'AP'
S'AAP'
tp183
F11
s(S'VP'
p184
S'VADVADVVP'
tp185
F2
s(S'CP'
p186
S'CADVADPP'
tp187
F4
s(S'NP'
S'ADVANPP'
tp188
F1
s(S'VP'
S'VVVVPP'
tp189
F4
s(S'VP'
p190
S'VADVADVNP'
tp191
F1
s(S'PP'
p192
S'PAANP'
tp193
F3
s(S'DP'
S'DDADVADVVP'
tp194
F3
s(S'NP'
p195
S'ANVP'
tp196
F29
s(S'DP'
S'DDDDADVPP'
tp197
F1
s(S'MP'
p198
S'MVNP'
tp199
F19
s(S'CP'
p200
S'CDDDPPP'
tp201
F3
s(S'PP'
p202
S'PAVP'
tp203
F20
s(S'MP'
S'ADVMVP'
tp204
F5
s(S'VP'
S'ADVVMP'
tp205
F1
s(S'DP'
S'DDAPPP'
tp206
F1
s(S'PP'
S'PPADVNNP'
tp207
F2
s(S'PP'
S'PPADVMMP'
tp208
F1
s(S'PP'
p209
S'APPPP'
tp210
F1
s(g59
S'DADP'
tp211
F5
s(S'AP'
S'AADVADVADVADVDDP'
tp212
F1
s(S'AP'
S'ADVADP'
tp213
F6
s(S'CP'
S'ADVADVCDP'
tp214
F3
s(g192
S'APDDP'
tp215
F2
s(S'VP'
S'ADVADVVVNP'
tp216
F1
s(S'NP'
S'ADVNAP'
tp217
F1
s(g175
S'APVP'
tp218
F13
s(S'NP'
S'ADVNADVMP'
tp219
F1
s(S'CP'
p220
S'CADVADPPP'
tp221
F2
s(g69
S'VVNP'
tp222
F37
s(S'PP'
S'PPPNNP'
tp223
F1
s(S'PP'
S'PPVP'
tp224
F35
s(S'MP'
S'MVVVVCP'
tp225
F1
s(S'VP'
S'VADVDP'
tp226
F9
s(S'VP'
S'VVADVAP'
tp227
F3
s(g43
S'VAAP'
tp228
F14
s(S'MP'
S'MMADVNNP'
tp229
F1
s(S'NP'
S'ANDP'
tp230
F15
s(S'NP'
S'NVVP'
tp231
F39
s(S'VP'
p232
S'VMP'
tp233
F9
s(S'NP'
S'AANNMP'
tp234
F1
s(S'VP'
p235
S'VVNNP'
tp236
F8
s(S'CP'
p237
S'CDAPP'
tp238
F26
s(S'VP'
S'VVAAP'
tp239
F3
s(S'NP'
S'ADVAAANPPP'
tp240
F1
s(S'DP'
S'ADNP'
tp241
F15
s(S'DP'
p242
S'ADVDDCP'
tp243
F1
s(g175
S'PADP'
tp244
F12
s(S'VP'
S'ADVVVCP'
tp245
F3
s(S'DP'
S'ADVDDNP'
tp246
F5
s(S'NP'
p247
S'ANDDP'
tp248
F3
s(S'DP'
p249
S'ADVADVADVP'
tp250
F1
s(g242
S'ADVADVDVP'
tp251
F1
s(S'DP'
S'DADVAP'
tp252
F4
s(S'PP'
S'ADVADVPMP'
tp253
F1
s(S'DP'
S'DDADVDP'
tp254
F1
s(S'CP'
S'ADVADVACDP'
tp255
F1
s(S'DP'
p256
S'DAPP'
tp257
F48
s(S'CP'
S'ADVADVADVCDDDDP'
tp258
F1
s(S'VP'
p259
S'AVVP'
tp260
F2
s(g145
S'MVVCP'
tp261
F2
s(S'VP'
S'ADVADVVPP'
tp262
F2
s(S'MP'
S'MDDNP'
tp263
F1
s(S'VP'
S'ADVADVVDP'
tp264
F3
s(S'VP'
p265
S'AVVNP'
tp266
F1
s(S'PP'
S'PPPDP'
tp267
F2
s(S'DP'
S'ADVADVADVDDDP'
tp268
F1
s(S'PP'
S'ADVPADVMP'
tp269
F1
s(S'DP'
p270
S'DAAANP'
tp271
F2
s(S'DP'
p272
S'DADVANP'
tp273
F1
s(S'VP'
S'VAAPP'
tp274
F1
s(S'DP'
S'ADVDNP'
tp275
F6
s(S'VP'
p276
S'VVPP'
tp277
F23
s(S'CP'
S'CCADDP'
tp278
F1
s(S'PP'
S'PAVVP'
tp279
F2
s(g145
S'MVPP'
tp280
F13
s(S'DP'
S'ADVP'
tp281
F9
s(S'CP'
p282
S'CDDPPP'
tp283
F5
s(S'PP'
S'PPPAP'
tp284
F1
s(S'DP'
p285
S'ADVADVADVADVDDVP'
tp286
F1
s(g53
S'DDADVADVADVDP'
tp287
F1
s(S'NP'
S'NNPP'
tp288
F14
s(S'PP'
S'ADVPDDDP'
tp289
F1
s(S'NP'
S'NADVADVADVACP'
tp290
F1
s(S'MP'
S'MVVDP'
tp291
F3
s(g53
S'DADVPPP'
tp292
F9
s(S'DP'
S'AADADVVVP'
tp293
F1
s(S'DP'
S'DNNNP'
tp294
F7
s(S'DP'
S'ADVDDVP'
tp295
F2
s(S'PP'
S'PADVADVVP'
tp296
F1
s(S'VP'
p297
S'VADVDDP'
tp298
F7
s(S'PP'
p299
S'PMMP'
tp300
F5
s(S'PP'
S'PVVVP'
tp301
F6
s(g175
S'PMP'
tp302
F14
s(S'CP'
S'CCDP'
tp303
F54
s(S'NP'
p304
S'ADVNNDP'
tp305
F1
s(g53
S'ADVADVADVDPP'
tp306
F1
s(S'VP'
S'VADVANP'
tp307
F4
s(S'NP'
S'ADVADVADVNCP'
tp308
F1
s(g45
S'MVAP'
tp309
F15
s(S'NP'
p310
S'NVVVP'
tp311
F6
s(S'CP'
p312
S'CDDDPP'
tp313
F8
s(g282
S'CDAAPP'
tp314
F1
s(S'VP'
S'VVVDP'
tp315
F7
s(g299
S'PNNNP'
tp316
F9
s(S'AP'
S'AAAAADVADVCP'
tp317
F1
s(S'VP'
p318
S'AVDDP'
tp319
F1
s(S'VP'
S'ADVVVDP'
tp320
F4
s(g50
S'PPP'
tp321
F111
s(g122
S'NNVVP'
tp322
F11
s(g65
S'NAVP'
tp323
F14
s(S'PP'
S'PADVAP'
tp324
F5
s(S'MP'
S'MADVVADVDP'
tp325
F1
s(S'DP'
S'DDDDVP'
tp326
F1
s(S'PP'
S'APVVVP'
tp327
F1
s(S'DP'
S'ADVDVP'
tp328
F6
s(S'NP'
S'NAAAP'
tp329
F2
s(S'NP'
S'NCCCP'
tp330
F5
s(S'DP'
S'DADVADVPPP'
tp331
F2
s(S'AP'
S'AADVVP'
tp332
F1
s(S'PP'
S'PPPPDP'
tp333
F1
s(S'MP'
S'MVVVVDP'
tp334
F2
s(S'CP'
S'CCCDDDDDP'
tp335
F1
s(S'DP'
p336
S'ADVADVDNP'
tp337
F1
s(g318
S'VAAAAP'
tp338
F1
s(S'VP'
p339
S'VPP'
tp340
F137
s(S'PP'
S'PPADVVVP'
tp341
F1
s(S'CP'
p342
S'ADVCCDP'
tp343
F2
s(S'VP'
S'ADVADVVVP'
tp344
F1
s(S'CP'
S'ACCDP'
tp345
F1
s(S'AP'
S'AAAACP'
tp346
F1
s(S'NP'
S'NNNCP'
tp347
F2
s(g152
S'PADVDP'
tp348
F4
s(S'AP'
S'ADVAADP'
tp349
F1
s(S'DP'
S'DANNP'
tp350
F1
s(S'PP'
p351
S'PADVAAP'
tp352
F2
s(g312
S'CDDPP'
tp353
F33
s(S'DP'
p354
S'DAAPP'
tp355
F3
s(g50
S'PVVP'
tp356
F24
s(S'CP'
S'CADPPP'
tp357
F3
s(S'AP'
p358
S'AACP'
tp359
F11
s(S'MP'
S'MAVCP'
tp360
F1
s(g159
S'ADVVCP'
tp361
F4
s(S'PP'
S'ADVPPAP'
tp362
F1
s(S'VP'
p363
S'VPPP'
tp364
F8
s(S'VP'
S'ADVADVVVCCP'
tp365
F1
s(S'VP'
S'AVCCP'
tp366
F1
s(S'VP'
S'VVPPP'
tp367
F3
s(S'MP'
S'MADVADVADVADVVPP'
tp368
F1
s(S'PP'
p369
S'PPAP'
tp370
F18
s(S'DP'
S'DVVP'
tp371
F19
s(S'VP'
S'VVVADVAP'
tp372
F2
s(S'NP'
S'ANMP'
tp373
F5
s(S'AP'
S'APPP'
tp374
F5
s(g50
S'ADVPPP'
tp375
F5
s(S'DP'
p376
S'ADVADPPP'
tp377
F2
s(S'NP'
S'ADVADVNVP'
tp378
F1
s(S'VP'
p379
S'VVVP'
tp380
F9
s(S'CP'
S'CADVDPP'
tp381
F13
s(S'MP'
S'MMADP'
tp382
F1
s(g65
S'ANCP'
tp383
F28
s(S'VP'
S'VADVADVACP'
tp384
F1
s(S'DP'
S'DCP'
tp385
F14
s(g48
S'ANNCP'
tp386
F1
s(S'NP'
p387
S'AAANCP'
tp388
F1
s(g190
S'ADVVVVP'
tp389
F2
s(S'NP'
S'NNVVVVP'
tp390
F2
s(S'AP'
S'AAAADVADVDP'
tp391
F1
s(S'DP'
S'DDDP'
tp392
F9
s(g249
S'DDADVPP'
tp393
F2
s(S'NP'
S'ANNVVP'
tp394
F1
s(S'NP'
S'ANVVP'
tp395
F2
s(S'VP'
S'VVDP'
tp396
F29
s(g119
S'NPPP'
tp397
F25
s(S'PP'
S'PPAPP'
tp398
F1
s(g138
S'ADVVNNNP'
tp399
F2
s(S'DP'
p400
S'DAVP'
tp401
F12
s(S'NP'
S'NNNMP'
tp402
F1
s(S'MP'
S'MCAADP'
tp403
F1
s(S'AP'
p404
S'ACP'
tp405
F63
s(S'NP'
S'NDDDDP'
tp406
F1
s(g50
S'PPNP'
tp407
F48
s(S'MP'
S'MADVVPP'
tp408
F3
s(g285
S'DDADVADVADVNNP'
tp409
F1
s(S'CP'
S'CDDPPPPP'
tp410
F1
s(S'DP'
S'AADVP'
tp411
F2
s(S'PP'
S'APADVVVP'
tp412
F1
s(g200
S'ADVADVADVACDP'
tp413
F1
s(S'CP'
S'CDDADVPP'
tp414
F2
s(g404
S'ADP'
tp415
F186
s(S'DP'
S'DDPPPP'
tp416
F1
s(S'VP'
S'VVADVADVADVDDP'
tp417
F1
s(S'NP'
S'ANPPP'
tp418
F3
s(S'VP'
p419
S'ADVADVADVADVADVVVNP'
tp420
F1
s(S'DP'
S'DVVVVP'
tp421
F1
s(S'VP'
p422
S'ADVADVVNNP'
tp423
F2
s(S'AP'
S'AAADP'
tp424
F7
s(S'NP'
p425
S'ANNVP'
tp426
F1
s(S'VP'
S'VVAP'
tp427
F17
s(S'NP'
S'NNAPP'
tp428
F1
s(S'NP'
S'ANNDP'
tp429
F1
s(S'NP'
p430
S'ADVNACCP'
tp431
F1
s(S'CP'
S'ADVACDP'
tp432
F3
s(S'PP'
p433
S'PPADVVP'
tp434
F1
s(g425
S'NNADVCCP'
tp435
F1
s(g65
S'NPP'
tp436
F186
s(S'VP'
S'ADVADVVAP'
tp437
F3
s(g96
S'NVP'
tp438
F218
s(g433
S'PPVVVP'
tp439
F1
s(S'PP'
S'PAAVP'
tp440
F2
s(S'NP'
S'NAAPP'
tp441
F3
s(S'PP'
S'PPPPVP'
tp442
F1
s(S'MP'
S'ADVMMVP'
tp443
F1
s(S'VP'
p444
S'VDDP'
tp445
F25
s(S'VP'
S'ADVVADVAP'
tp446
F1
s(S'AP'
S'ADVADVADVADP'
tp447
F1
s(S'PP'
S'ADVPPPP'
tp448
F1
s(S'NP'
S'NNNDDP'
tp449
F1
s(g387
S'NADVADVVVP'
tp450
F2
s(g65
S'ANPP'
tp451
F39
s(g41
S'ADVPPDP'
tp452
F3
s(S'PP'
p453
S'PPPPP'
tp454
F6
s(S'MP'
S'MPDP'
tp455
F3
s(S'PP'
p456
S'ADVADVPDP'
tp457
F2
s(S'MP'
S'MVVPP'
tp458
F2
s(g63
S'AMMP'
tp459
F1
s(g27
S'PPPNP'
tp460
F7
s(S'NP'
S'ADVADVNPP'
tp461
F1
s(S'NP'
S'NPPPP'
tp462
F2
s(S'NP'
p463
S'ADVNADP'
tp464
F1
s(S'AP'
p465
S'AAADVADVCCP'
tp466
F1
s(g169
S'CAADPP'
tp467
F2
s(S'DP'
S'DADVADVVP'
tp468
F1
s(S'NP'
p469
S'NAACP'
tp470
F2
s(S'PP'
p471
S'PNNP'
tp472
F40
s(S'VP'
S'VADVACP'
tp473
F1
s(S'AP'
S'AADVAPP'
tp474
F1
s(S'PP'
S'APNNP'
tp475
F1
s(g171
S'AAADPP'
tp476
F1
s(S'VP'
p477
S'AVAP'
tp478
F4
s(S'MP'
S'MMVP'
tp479
F5
s(S'PP'
S'PADVDDP'
tp480
F1
s(S'NP'
S'ADVNCP'
tp481
F6
s(g404
S'AADP'
tp482
F30
s(g387
S'NAPPP'
tp483
F1
s(g237
S'ACDP'
tp484
F16
s(g50
S'PAAP'
tp485
F24
s(S'AP'
S'ADVANP'
tp486
F1
s(S'NP'
S'NNACP'
tp487
F1
s(g166
S'CDADVPPP'
tp488
F4
s(g43
S'VAP'
tp489
F121
s(S'VP'
S'VVVVNP'
tp490
F1
s(g23
S'DDDPP'
tp491
F11
s(S'CP'
p492
S'ADVCDDP'
tp493
F2
s(S'NP'
S'AANNCP'
tp494
F1
s(S'PP'
S'ADVPMP'
tp495
F2
s(S'PP'
p496
S'PAAPP'
tp497
F3
s(S'VP'
S'ADVADVVVAP'
tp498
F1
s(S'DP'
p499
S'DDDPPP'
tp500
F4
s(S'DP'
S'ADAP'
tp501
F2
s(S'DP'
p502
S'DDDAP'
tp503
F2
s(S'PP'
S'PADVADVADP'
tp504
F1
s(S'AP'
S'AVVP'
tp505
F16
s(g33
S'PPPVP'
tp506
F3
s(S'VP'
S'AAVAP'
tp507
F2
s(g404
S'AADDP'
tp508
F5
s(g209
S'AAPAAAP'
tp509
F1
s(S'VP'
S'VAANP'
tp510
F1
s(S'NP'
S'NADVADVCP'
tp511
F1
s(S'MP'
S'MMVVVVP'
tp512
F1
s(S'NP'
S'NVVVVP'
tp513
F1
s(S'NP'
S'NNADVADVADVADVADVVVP'
tp514
F1
s(S'MP'
S'MVADVACP'
tp515
F1
s(g456
S'PAAAAP'
tp516
F1
s(S'MP'
S'MPNP'
tp517
F1
s(S'MP'
S'MADP'
tp518
F4
s(S'MP'
S'MAACP'
tp519
F1
s(S'AP'
p520
S'AAAAAP'
tp521
F1
s(S'AP'
S'ADVADVADDP'
tp522
F1
s(S'AP'
S'AAACCP'
tp523
F1
s(S'DP'
S'DDADVNP'
tp524
F4
s(g50
S'PANP'
tp525
F38
s(S'PP'
S'PDDDP'
tp526
F1
s(S'DP'
S'ADVADPP'
tp527
F5
s(S'CP'
S'CADVADVADVADVDPP'
tp528
F1
s(S'DP'
S'ADVDDVVP'
tp529
F1
s(S'AP'
S'AAVP'
tp530
F8
s(S'NP'
S'NAAP'
tp531
F3
s(g119
S'NDDP'
tp532
F13
s(S'DP'
p533
S'ADVADVDPPP'
tp534
F2
s(S'AP'
S'ACCP'
tp535
F8
s(g89
S'ADVADVADVADVDMP'
tp536
F1
s(S'AP'
p537
S'APPPP'
tp538
F1
s(g363
S'AVPPP'
tp539
F2
s(g65
S'NDP'
tp540
F91
s(g23
S'DDVP'
tp541
F29
s(S'NP'
S'AANVP'
tp542
F6
s(S'VP'
S'VADVADVPP'
tp543
F3
s(S'PP'
S'ADVPAP'
tp544
F4
s(S'PP'
S'APADVDP'
tp545
F1
s(g114
S'PCP'
tp546
F8
s(S'NP'
p547
S'NNPPP'
tp548
F3
s(S'PP'
S'PAADP'
tp549
F3
s(S'NP'
S'ADVNNVP'
tp550
F3
s(g276
S'VPPPP'
tp551
F3
s(g304
S'ANNPP'
tp552
F1
s(g147
S'VCCP'
tp553
F16
s(S'AP'
S'AADVAP'
tp554
F1
s(g358
S'ADVACP'
tp555
F7
s(S'NP'
S'AANVVVP'
tp556
F1
s(S'PP'
S'AAPNNP'
tp557
F1
s(S'VP'
S'AVVDP'
tp558
F4
s(S'DP'
S'ADPPP'
tp559
F4
s(S'MP'
S'MVCP'
tp560
F14
s(g166
S'CCDDP'
tp561
F10
s(S'DP'
S'DADVADVADVVVP'
tp562
F1
s(S'NP'
S'ADVANAP'
tp563
F1
s(g39
S'AAADNP'
tp564
F1
s(S'DP'
S'DADVNP'
tp565
F8
s(S'NP'
S'NAAMP'
tp566
F1
s(g422
S'VVCP'
tp567
F10
s(S'PP'
p568
S'PADVADVPP'
tp569
F1
s(S'NP'
p570
S'AANCP'
tp571
F5
s(S'VP'
S'VADVNP'
tp572
F3
s(g444
S'VVDDDP'
tp573
F1
s(S'MP'
S'MADVADVVPP'
tp574
F1
s(S'AP'
S'ADVAVVP'
tp575
F1
s(S'VP'
p576
S'AVVPP'
tp577
F1
s(g453
S'APPP'
tp578
F11
s(g533
S'DDADVADVCCP'
tp579
F1
s(S'VP'
S'ADVVPP'
tp580
F6
s(S'CP'
S'CDAPPP'
tp581
F1
s(S'NP'
S'ADVADVANVVP'
tp582
F1
s(S'AP'
p583
S'AADVDP'
tp584
F1
s(S'NP'
p585
S'NADP'
tp586
F9
s(g59
S'DDNP'
tp587
F34
s(S'CP'
S'ACADVDP'
tp588
F1
s(g547
S'NADVCP'
tp589
F4
s(g400
S'DDNNP'
tp590
F11
s(S'MP'
S'MADVVNNNP'
tp591
F1
s(S'PP'
S'PADVADVVVP'
tp592
F2
s(S'NP'
S'ADVANVP'
tp593
F2
s(g141
S'ADVNAAP'
tp594
F1
s(S'NP'
S'AANAAP'
tp595
F1
s(S'DP'
S'AADPP'
tp596
F2
s(S'VP'
S'ADVVADVDP'
tp597
F1
s(g477
S'VVVVCP'
tp598
F1
s(g537
S'AAAPPPPP'
tp599
F1
s(S'AP'
S'AADVADVVP'
tp600
F1
s(S'PP'
S'AAPDP'
tp601
F6
s(S'NP'
S'ANVVVP'
tp602
F1
s(S'DP'
S'DADVADVAP'
tp603
F1
s(g198
S'MVVNP'
tp604
F3
s(g220
S'CDDADVPPP'
tp605
F2
s(g256
S'ADVDNNP'
tp606
F1
s(S'CP'
S'ACDDP'
tp607
F3
s(g270
S'DDDDDPP'
tp608
F1
s(S'AP'
S'AAPP'
tp609
F13
s(g379
S'VVCCP'
tp610
F3
s(S'MP'
S'MVADVADVPP'
tp611
F1
s(S'DP'
S'DADVVVP'
tp612
F2
s(S'VP'
p613
S'VADVADP'
tp614
F1
s(S'VP'
S'VVVCCP'
tp615
F1
s(S'NP'
S'NAPP'
tp616
F15
s(S'AP'
S'ADVADVADP'
tp617
F1
s(S'AP'
S'ADVAAVP'
tp618
F1
s(S'VP'
S'VVVCP'
tp619
F3
s(g310
S'ANCCP'
tp620
F1
s(S'NP'
S'AANPP'
tp621
F2
s(S'NP'
S'NNCCP'
tp622
F3
s(S'NP'
S'NNMP'
tp623
F12
s(g502
S'DDDVP'
tp624
F4
s(S'MP'
S'MNVP'
tp625
F3
s(S'CP'
S'CADDPP'
tp626
F1
s(S'PP'
S'PAAAP'
tp627
F5
s(g6
S'ADVADVPNP'
tp628
F2
s(S'VP'
S'VVVDDP'
tp629
F1
s(S'NP'
S'ANAP'
tp630
F4
s(S'VP'
S'VADVADVANP'
tp631
F1
s(g235
S'VADVADVDDP'
tp632
F1
s(g76
S'PVP'
tp633
F170
s(g465
S'AADVADVADVCP'
tp634
F1
s(S'MP'
S'AAMVP'
tp635
F1
s(S'VP'
S'VVVVDP'
tp636
F2
s(S'VP'
S'VVVAANP'
tp637
F1
s(g232
S'VADVCCP'
tp638
F1
s(g520
S'AADVDDP'
tp639
F2
s(g537
S'ADVAACP'
tp640
F1
s(g463
S'ADVNAVP'
tp641
F1
s(S'DP'
S'DVVVP'
tp642
F5
s(S'NP'
S'ADVNNAP'
tp643
F2
s(S'DP'
S'ADVADVADVDNP'
tp644
F1
s(S'PP'
S'PACP'
tp645
F1
s(g209
S'PPDDP'
tp646
F7
s(g232
S'AVCP'
tp647
F10
s(S'DP'
S'DDVVVP'
tp648
F2
s(S'NP'
S'NAVVP'
tp649
F2
s(g568
S'ADVADVPDDP'
tp650
F1
s(g23
S'DPP'
tp651
F285
s(S'NP'
S'ADVNVP'
tp652
F8
s(g23
S'DDPP'
tp653
F64
s(g376
S'DDADVPPP'
tp654
F2
s(g336
S'DDAVP'
tp655
F1
s(g59
S'DANP'
tp656
F57
s(S'AP'
S'ADVAMP'
tp657
F1
s(g67
S'NADVPP'
tp658
F4
s(S'VP'
S'VVVADVDP'
tp659
F1
s(S'MP'
S'MMAP'
tp660
F1
s(g430
S'NAAVP'
tp661
F4
s(S'DP'
S'AADNP'
tp662
F3
s(S'VP'
p663
S'VADVCP'
tp664
F4
s(S'AP'
S'ADVADVACP'
tp665
F1
s(S'MP'
S'MDNP'
tp666
F6
s(g272
S'ADVDAAP'
tp667
F1
s(g496
S'AAPADVADVVVP'
tp668
F1
s(g53
S'DCCP'
tp669
F2
s(g150
S'ADVADVPPP'
tp670
F1
s(S'AP'
S'AADDDDP'
tp671
F1
s(S'CP'
S'CDPPPPP'
tp672
F1
s(S'MP'
S'MADVVDP'
tp673
F1
s(g111
S'PAPPP'
tp674
F1
s(g471
S'PDDP'
tp675
F37
s(g74
S'PADVAPP'
tp676
F1
s(g126
S'NNVP'
tp677
F33
s(S'PP'
S'APAAP'
tp678
F1
s(g43
S'AVDP'
tp679
F23
s(g43
S'VVDDP'
tp680
F7
s(S'DP'
S'DAANP'
tp681
F10
s(S'AP'
S'ADDP'
tp682
F28
s(g265
S'ADVVVAP'
tp683
F2
s(g369
S'ADVPPNP'
tp684
F3
s(S'NP'
S'ADVADVNAPP'
tp685
F1
s(S'CP'
S'CADVADVDPP'
tp686
F1
s(g186
S'ADVADVADVCDP'
tp687
F1
s(g59
S'DPPP'
tp688
F80
s(S'DP'
S'DADVADVADVNNP'
tp689
F1
s(S'DP'
S'DAVVP'
tp690
F1
s(S'DP'
S'AADPPP'
tp691
F2
s(g576
S'VANNP'
tp692
F2
s(S'MP'
S'MVPPP'
tp693
F2
s(g119
S'NNAVP'
tp694
F2
s(S'NP'
S'NMMMP'
tp695
F1
s(S'PP'
S'PPNNNP'
tp696
F1
s(S'PP'
S'ADVPNP'
tp697
F14
s(g50
S'PPDP'
tp698
F32
s(S'MP'
S'MVPPPP'
tp699
F1
s(S'MP'
S'MAVDP'
tp700
F3
s(S'MP'
p701
S'MVVAP'
tp702
F1
s(S'DP'
S'DDCP'
tp703
F1
s(S'PP'
S'PAANNP'
tp704
F1
s(S'AP'
S'ANNP'
tp705
F1
s(S'AP'
S'ADVADVAADP'
tp706
F2
s(S'MP'
S'MMAVP'
tp707
F1
s(g65
S'NAP'
tp708
F57
s(S'VP'
S'VAAAP'
tp709
F1
s(g259
S'VVP'
tp710
F41
s(S'DP'
S'DDAPP'
tp711
F2
s(g57
S'ADVADVPVP'
tp712
F1
s(S'MP'
S'MAPP'
tp713
F1
s(g157
S'APNP'
tp714
F24
s(g583
S'AADVADVPP'
tp715
F1
s(g499
S'DDVVP'
tp716
F11
s(S'AP'
S'AAADDP'
tp717
F1
s(g13
S'VVVNP'
tp718
F6
s(S'MP'
S'MNPP'
tp719
F1
s(S'NP'
S'NNADVPP'
tp720
F1
s(g701
S'MVANP'
tp721
F1
s(S'MP'
S'MVNNP'
tp722
F1
s(g312
S'CDPP'
tp723
F249
s(S'AP'
S'ADDDP'
tp724
F3
s(S'NP'
S'NNADVADVVVP'
tp725
F1
s(S'DP'
S'ADVDVVP'
tp726
F1
s(S'MP'
S'MMMVP'
tp727
F1
s(g419
S'ADVADVADVVVNNP'
tp728
F1
s(S'VP'
S'VADVAAANP'
tp729
F1
s(g81
S'ADVCDP'
tp730
F9
s(S'AP'
S'ADVAAP'
tp731
F2
s(g184
S'ADVADVVNP'
tp732
F3
s(g247
S'NADVADVADVCP'
tp733
F1
s(S'PP'
S'PADVADVDP'
tp734
F1
s(g232
S'ADVADVVCP'
tp735
F1
s(g31
S'VADVADVDP'
tp736
F1
s(g179
S'PPNNP'
tp737
F9
s(g351
S'ADVPAVP'
tp738
F1
s(S'AP'
S'ADVACCP'
tp739
F1
s(g6
S'PPMP'
tp740
F2
s(S'DP'
S'ADVADVDPP'
tp741
F4
s(g339
S'VDP'
tp742
F199
s(g469
S'NADVAP'
tp743
F2
s(S'AP'
S'ADVAAAP'
tp744
F1
s(g53
S'DAP'
tp745
F37
s(S'CP'
p746
S'CADPP'
tp747
F40
s(S'VP'
S'ADVADVVVPP'
tp748
F1
s(S'VP'
S'VVDDDDP'
tp749
F1
s(S'PP'
S'PPPADVPP'
tp750
F1
s(g297
S'AVPP'
tp751
F9
s(g342
S'CAADPPP'
tp752
F1
s(S'CP'
S'AACDDP'
tp753
F1
s(g492
S'CDPPPP'
tp754
F11
s(S'VP'
S'AAVDP'
tp755
F2
s(S'PP'
S'PANNP'
tp756
F2
s(S'VP'
S'ADVADVADVADVVPP'
tp757
F1
s(S'NP'
S'ADVANMP'
tp758
F1
s(S'MP'
S'MVANNP'
tp759
F1
s(S'DP'
S'DAPPP'
tp760
F1
s(S'DP'
S'DADVADVPP'
tp761
F2
s(S'DP'
S'DMP'
tp762
F6
s(S'DP'
S'ADVDPP'
tp763
F21
s(S'NP'
S'NADVADVDP'
tp764
F1
s(S'PP'
S'APADVPP'
tp765
F1
s(S'PP'
S'PADVADVNP'
tp766
F2
s(S'PP'
S'PPPPNP'
tp767
F3
s(g59
S'ADPP'
tp768
F53
s(g379
S'VADVPP'
tp769
F6
s(g50
S'ADVPVP'
tp770
F6
s(S'DP'
S'DDDDPP'
tp771
F2
s(S'NP'
S'NNVVVP'
tp772
F3
s(S'PP'
S'PADVADVADVNP'
tp773
F1
s(g21
S'ADVPDP'
tp774
F9
s(g568
S'PPPVVP'
tp775
F1
s(S'MP'
S'MVADVAP'
tp776
F1
s(g96
S'NCP'
tp777
F187
s(S'CP'
S'CADVDPPP'
tp778
F5
s(S'VP'
S'ADVVVPP'
tp779
F2
s(S'PP'
S'PPPAPP'
tp780
F1
s(S'NP'
S'ADVANDP'
tp781
F1
s(S'AP'
S'AAAP'
tp782
F3
s(S'CP'
S'CDDADVADVPP'
tp783
F1
s(S'VP'
S'VAADP'
tp784
F2
s(g4
S'VADVADVADVDP'
tp785
F1
s(S'PP'
S'ADVPDDP'
tp786
F2
s(S'NP'
S'AAANCCCP'
tp787
F1
s(S'PP'
S'PPPADVDP'
tp788
F1
s(S'DP'
S'DADVNNP'
tp789
F1
s(S'VP'
S'VDDDP'
tp790
F6
s(g444
S'VNNP'
tp791
F19
s(S'NP'
S'NNNADVADVCP'
tp792
F1
s(g37
S'ADVADVCCDP'
tp793
F2
s(S'NP'
S'AANCCP'
tp794
F1
s(S'PP'
S'PADVADVAP'
tp795
F2
s(g663
S'VAPP'
tp796
F11
s(S'VP'
S'VADVADVADVAAP'
tp797
F1
s(S'VP'
S'ADVVDP'
tp798
F19
s(g59
S'DADVPP'
tp799
F27
s(S'AP'
S'AMP'
tp800
F8
s(S'CP'
p801
S'CCADP'
tp802
F1
s(S'NP'
S'ADVANVVVP'
tp803
F1
s(S'DP'
S'ADVDAP'
tp804
F1
s(S'PP'
S'ADVADVADVPNP'
tp805
F1
s(g304
S'NNNPPP'
tp806
F1
s(S'AP'
S'ADVAPP'
tp807
F8
s(S'CP'
S'AACDP'
tp808
F1
s(g801
S'CCCDP'
tp809
F12
s(S'DP'
S'ADVDPPP'
tp810
F5
s(g59
S'DVP'
tp811
F195
s(g195
S'ADVNPP'
tp812
F4
s(g570
S'NNCCCP'
tp813
F2
s(S'AP'
S'AVP'
tp814
F39
s(S'MP'
S'MCDP'
tp815
F4
s(S'NP'
S'NADVVP'
tp816
F15
s(S'VP'
S'ADVVPPP'
tp817
F1
s(g354
S'DDPPP'
tp818
F11
s(S'NP'
S'ADVNMP'
tp819
F3
s(g585
S'NNAP'
tp820
F4
s(S'MP'
S'MADVVCP'
tp821
F1
s(g202
S'PPANP'
tp822
F3
s(S'MP'
S'MCDDP'
tp823
F1
s(S'PP'
S'PPCCP'
tp824
F1
s(g746
S'CDADVPP'
tp825
F15
s(g339
S'VNP'
tp826
F182
s(S'VP'
S'VANP'
tp827
F20
s(S'VP'
S'VADVAP'
tp828
F12
s(g100
S'PPADVNP'
tp829
F2
s(S'VP'
S'VVVAP'
tp830
F2
s(S'DP'
S'ADVADVADVADVDPP'
tp831
F1
s(g613
S'ADVADVVVDP'
tp832
F1
s(g131
S'NADVPPP'
tp833
F1
s.