ccollections
defaultdict
p1
(c__builtin__
float
p2
tRp3
(S'DP'
S'DDPP'
tp4
F14
s(S'DP'
S'DDAVP'
tp5
F1
s(S'DP'
S'DANP'
tp6
F17
s(S'VP'
p7
S'ADVVNP'
tp8
F1
s(S'NP'
S'NADVPP'
tp9
F1
s(S'NP'
S'ANPP'
tp10
F10
s(S'NP'
S'AANDDP'
tp11
F1
s(S'VP'
p12
S'VVNP'
tp13
F5
s(S'VP'
S'VVADP'
tp14
F1
s(S'DP'
S'DDAP'
tp15
F1
s(S'VP'
S'ADVVVNP'
tp16
F1
s(S'NP'
S'NAAVP'
tp17
F1
s(S'VP'
S'VADVDP'
tp18
F1
s(S'DP'
S'DDDPP'
tp19
F2
s(S'PP'
S'PDDDP'
tp20
F1
s(S'VP'
p21
S'VAAP'
tp22
F4
s(S'PP'
S'PAPP'
tp23
F3
s(S'NP'
S'ANDP'
tp24
F2
s(S'NP'
p25
S'NVVP'
tp26
F14
s(S'DP'
p27
S'DNP'
tp28
F53
s(S'VP'
S'ADVADVADVVADVAP'
tp29
F1
s(S'PP'
S'PNNP'
tp30
F13
s(S'VP'
S'VVVPP'
tp31
F2
s(S'AP'
S'ADVACP'
tp32
F2
s(S'NP'
S'ADVNDP'
tp33
F1
s(S'CP'
S'CDAPP'
tp34
F6
s(S'VP'
p35
S'VVAAP'
tp36
F1
s(S'VP'
p37
S'AVCP'
tp38
F2
s(S'CP'
p39
S'CDPPP'
tp40
F7
s(S'DP'
p41
S'ADNP'
tp42
F3
s(S'CP'
S'ADVACADVDDP'
tp43
F1
s(S'CP'
S'CDDDPPP'
tp44
F1
s(S'VP'
S'AVAP'
tp45
F1
s(S'VP'
p46
S'VADP'
tp47
F2
s(S'AP'
p48
S'AAVVP'
tp49
F1
s(S'PP'
p50
S'PADP'
tp51
F4
s(S'NP'
S'ADVNCP'
tp52
F3
s(S'PP'
S'AAPDP'
tp53
F2
s(S'AP'
S'AADVADP'
tp54
F1
s(S'VP'
S'VVVAP'
tp55
F1
s(S'CP'
p56
S'CCADP'
tp57
F3
s(S'CP'
p58
S'ACDP'
tp59
F4
s(S'PP'
S'PAAP'
tp60
F2
s(S'DP'
p61
S'ADPPP'
tp62
F3
s(S'NP'
p63
S'ADVANPP'
tp64
F1
s(g61
S'DAPP'
tp65
F8
s(S'VP'
p66
S'VAP'
tp67
F17
s(S'PP'
p68
S'APVP'
tp69
F4
s(S'MP'
S'MVDP'
tp70
F8
s(S'PP'
S'PADVANP'
tp71
F1
s(S'NP'
p72
S'AANNCP'
tp73
F1
s(S'PP'
p74
S'PPPP'
tp75
F3
s(S'VP'
p76
S'VVDDP'
tp77
F3
s(S'DP'
p78
S'DAANP'
tp79
F3
s(S'NP'
S'ANADVAP'
tp80
F1
s(S'AP'
S'AAAVP'
tp81
F1
s(S'AP'
S'ADDP'
tp82
F2
s(S'DP'
S'DDDPPP'
tp83
F1
s(g46
S'ADVAVDP'
tp84
F1
s(S'DP'
S'DDDADVVP'
tp85
F1
s(g7
S'VCCP'
tp86
F2
s(S'PP'
p87
S'PMP'
tp88
F5
s(S'PP'
S'APADVVP'
tp89
F1
s(S'DP'
S'DADVVP'
tp90
F2
s(g50
S'PPVP'
tp91
F3
s(S'DP'
p92
S'DDADVPP'
tp93
F1
s(S'DP'
S'DADVANP'
tp94
F1
s(g58
S'CADVADVDPP'
tp95
F1
s(S'VP'
S'VAAPP'
tp96
F2
s(S'DP'
S'DPPP'
tp97
F10
s(S'NP'
p98
S'NDDDP'
tp99
F1
s(S'DP'
S'AADVVVP'
tp100
F1
s(S'VP'
p101
S'VVPP'
tp102
F6
s(g72
S'AAAANVP'
tp103
F1
s(S'DP'
p104
S'ADVDDAPP'
tp105
F1
s(S'NP'
S'NNAVP'
tp106
F1
s(S'DP'
p107
S'DDNNP'
tp108
F3
s(S'MP'
S'MVPP'
tp109
F2
s(S'DP'
S'ADVP'
tp110
F4
s(S'DP'
p111
S'DDDNNP'
tp112
F1
s(S'PP'
S'PAP'
tp113
F21
s(S'PP'
p114
S'APADVPPP'
tp115
F1
s(S'PP'
S'ADVPNP'
tp116
F1
s(g114
S'PPDP'
tp117
F6
s(S'NP'
S'NNPP'
tp118
F5
s(S'MP'
S'MAVDP'
tp119
F1
s(S'VP'
S'AVNNP'
tp120
F1
s(S'PP'
p121
S'PPAAAANP'
tp122
F1
s(S'VP'
p123
S'VAAAP'
tp124
F1
s(S'VP'
p125
S'AAVNNP'
tp126
F1
s(g87
S'PNP'
tp127
F45
s(g98
S'NNNDDP'
tp128
F1
s(g111
S'DNNNP'
tp129
F1
s(g111
S'DDP'
tp130
F8
s(S'MP'
S'MAVAAP'
tp131
F1
s(g87
S'PANP'
tp132
F12
s(S'VP'
S'AVNP'
tp133
F1
s(S'AP'
S'ACCP'
tp134
F4
s(S'CP'
S'CADVADVADVDPP'
tp135
F1
s(S'DP'
S'DDAMP'
tp136
F1
s(g121
S'PAANNP'
tp137
F1
s(S'AP'
S'AAVP'
tp138
F3
s(S'AP'
S'AVVP'
tp139
F3
s(g63
S'NDDP'
tp140
F3
s(S'CP'
S'CCDP'
tp141
F17
s(S'NP'
S'ADVNNDP'
tp142
F1
s(S'DP'
S'ADVADVADVDPP'
tp143
F1
s(S'NP'
S'NAP'
tp144
F9
s(S'VP'
p145
S'VADVANP'
tp146
F1
s(g125
S'VPPP'
tp147
F1
s(g25
S'NMP'
tp148
F12
s(S'NP'
S'NVVVP'
tp149
F3
s(S'VP'
S'AVADVCP'
tp150
F1
s(S'CP'
S'CDDDPP'
tp151
F2
s(g25
S'NDP'
tp152
F13
s(g145
S'VVVDP'
tp153
F1
s(S'PP'
p154
S'PVP'
tp155
F26
s(S'VP'
p156
S'VVP'
tp157
F6
s(g111
S'DDVP'
tp158
F6
s(S'DP'
p159
S'ADVADVADVADPP'
tp160
F1
s(g104
S'DADVNP'
tp161
F3
s(S'AP'
S'AADP'
tp162
F5
s(S'PP'
S'APNP'
tp163
F4
s(S'CP'
p164
S'CADVADVADVADPP'
tp165
F1
s(S'NP'
S'ADVNPP'
tp166
F1
s(S'VP'
S'VADVAAP'
tp167
F1
s(g48
S'AAADDP'
tp168
F1
s(g154
S'PPP'
tp169
F12
s(g37
S'AVAAP'
tp170
F1
s(g25
S'NAVP'
tp171
F7
s(S'DP'
p172
S'DAVP'
tp173
F2
s(S'PP'
p174
S'PADVAP'
tp175
F2
s(g172
S'ADVADVVP'
tp176
F1
s(S'PP'
p177
S'ADVPAAP'
tp178
F1
s(S'NP'
p179
S'NADVADVADVVP'
tp180
F1
s(S'VP'
S'VVPPP'
tp181
F2
s(S'CP'
S'CDPP'
tp182
F38
s(S'PP'
S'PAADP'
tp183
F1
s(S'DP'
S'ADVDVP'
tp184
F1
s(S'MP'
S'MAAVPP'
tp185
F1
s(S'AP'
S'ADDDP'
tp186
F1
s(S'AP'
S'ADVAADP'
tp187
F1
s(S'NP'
S'ADVNAAVP'
tp188
F1
s(S'MP'
S'MAAVDP'
tp189
F1
s(S'VP'
S'VCP'
tp190
F10
s(S'VP'
S'VADVACP'
tp191
F1
s(g66
S'VPP'
tp192
F27
s(S'NP'
S'NACP'
tp193
F3
s(S'NP'
p194
S'NCCP'
tp195
F7
s(g56
S'ADVCDP'
tp196
F3
s(S'DP'
S'DDADVVP'
tp197
F1
s(S'NP'
p198
S'NNVP'
tp199
F8
s(S'PP'
p200
S'PADVDP'
tp201
F1
s(S'NP'
p202
S'NNCP'
tp203
F9
s(S'PP'
S'PDP'
tp204
F45
s(S'MP'
S'MVCP'
tp205
F1
s(S'AP'
p206
S'ACP'
tp207
F6
s(S'CP'
S'CCDDP'
tp208
F1
s(S'CP'
S'CDDPP'
tp209
F7
s(S'DP'
p210
S'DDAPP'
tp211
F1
s(g174
S'PVVP'
tp212
F6
s(S'CP'
S'CADPPP'
tp213
F1
s(g206
S'AACP'
tp214
F2
s(S'PP'
S'PPMP'
tp215
F2
s(S'MP'
S'MAVCP'
tp216
F1
s(S'PP'
S'PMMP'
tp217
F2
s(S'DP'
p218
S'ADVADVDPP'
tp219
F1
s(S'PP'
S'PPAP'
tp220
F2
s(S'NP'
S'NADVAP'
tp221
F1
s(g98
S'NNVVP'
tp222
F2
s(S'VP'
p223
S'AVDDP'
tp224
F1
s(g223
S'VVCP'
tp225
F4
s(g111
S'DAP'
tp226
F8
s(g58
S'CADPP'
tp227
F6
s(S'NP'
p228
S'ANDDP'
tp229
F1
s(S'NP'
p230
S'AANCP'
tp231
F1
s(g66
S'VDP'
tp232
F45
s(S'DP'
S'DVVP'
tp233
F9
s(S'MP'
S'MADVVDP'
tp234
F1
s(S'NP'
S'AANVP'
tp235
F1
s(S'VP'
S'AAVPP'
tp236
F2
s(S'NP'
p237
S'AAANNCP'
tp238
F1
s(S'AP'
S'APPP'
tp239
F2
s(S'AP'
S'AAAADDP'
tp240
F1
s(S'VP'
p241
S'VNNP'
tp242
F2
s(g39
S'CADVDPP'
tp243
F5
s(g76
S'AAVDP'
tp244
F2
s(S'DP'
S'DDDNP'
tp245
F1
s(g98
S'NADP'
tp246
F2
s(S'VP'
S'ADVVAP'
tp247
F4
s(g218
S'DDNP'
tp248
F12
s(g78
S'DDADVVVP'
tp249
F1
s(g72
S'ANCP'
tp250
F11
s(g74
S'APDP'
tp251
F7
s(g92
S'DCP'
tp252
F2
s(g107
S'ADVDPP'
tp253
F8
s(g179
S'ADVANVP'
tp254
F1
s(S'VP'
p255
S'ADVVCCP'
tp256
F1
s(S'MP'
S'MMVP'
tp257
F2
s(S'VP'
S'ADVADVVAP'
tp258
F1
s(g218
S'ADPP'
tp259
F10
s(g123
S'VVNNNP'
tp260
F1
s(g111
S'DDDP'
tp261
F4
s(g164
S'CDDPPP'
tp262
F3
s(g210
S'DDANP'
tp263
F2
s(S'VP'
S'VVANP'
tp264
F1
s(S'NP'
p265
S'ANVVP'
tp266
F3
s(S'PP'
S'ADVPVP'
tp267
F1
s(g21
S'VVDP'
tp268
F10
s(g202
S'NPPP'
tp269
F3
s(S'PP'
S'ADVPAP'
tp270
F1
s(S'PP'
p271
S'ADVPDP'
tp272
F1
s(S'NP'
p273
S'ADVANCP'
tp274
F1
s(S'DP'
S'DNNP'
tp275
F8
s(g25
S'NCP'
tp276
F39
s(S'AP'
S'AADDP'
tp277
F1
s(S'CP'
S'CCADVDP'
tp278
F1
s(S'VP'
S'ADVVVPP'
tp279
F1
s(S'VP'
S'VAAAAP'
tp280
F1
s(S'PP'
S'PPNP'
tp281
F5
s(S'CP'
S'CDADVPP'
tp282
F2
s(S'DP'
S'DADP'
tp283
F1
s(g35
S'VVCCP'
tp284
F2
s(g172
S'DADVNNP'
tp285
F2
s(S'DP'
S'DDDVP'
tp286
F1
s(g237
S'NNCCP'
tp287
F1
s(g68
S'PDDP'
tp288
F7
s(g255
S'VADVADP'
tp289
F1
s(S'AP'
S'ADP'
tp290
F32
s(S'PP'
S'APAP'
tp291
F2
s(g21
S'VAPP'
tp292
F6
s(S'AP'
S'APP'
tp293
F14
s(g50
S'PADVVP'
tp294
F2
s(g228
S'NADVDP'
tp295
F1
s(S'NP'
S'AANADVVVP'
tp296
F1
s(S'VP'
S'ADVVDP'
tp297
F6
s(g177
S'APDDDP'
tp298
F1
s(S'NP'
S'NNNADVCP'
tp299
F1
s(g218
S'DADVPP'
tp300
F4
s(S'NP'
S'ANCCP'
tp301
F4
s(S'NP'
S'AANPP'
tp302
F1
s(S'AP'
S'AMP'
tp303
F1
s(g198
S'NNMP'
tp304
F2
s(S'NP'
S'ADVNNCP'
tp305
F1
s(g273
S'NNADVCP'
tp306
F1
s(S'DP'
S'DAAVP'
tp307
F1
s(S'AP'
p308
S'ADVAPP'
tp309
F4
s(S'PP'
p310
S'PADVNP'
tp311
F2
s(g200
S'PAANP'
tp312
F2
s(S'NP'
S'NNDP'
tp313
F2
s(g101
S'AVDP'
tp314
F8
s(g194
S'ANVP'
tp315
F9
s(S'MP'
S'MVVDDP'
tp316
F1
s(S'CP'
S'CDDAPP'
tp317
F1
s(g98
S'ANAP'
tp318
F2
s(g12
S'VVAP'
tp319
F3
s(S'MP'
S'MVAP'
tp320
F3
s(g27
S'DVP'
tp321
F30
s(S'MP'
S'MVNP'
tp322
F1
s(S'MP'
S'AMVP'
tp323
F1
s(S'DP'
S'DADVAVP'
tp324
F1
s(g308
S'AVP'
tp325
F5
s(g265
S'NADVVP'
tp326
F3
s(g41
S'ADVADNP'
tp327
F1
s(S'PP'
S'PAVP'
tp328
F1
s(g159
S'DDPPP'
tp329
F3
s(S'VP'
S'AAVCP'
tp330
F1
s(g310
S'PPNNP'
tp331
F1
s(S'NP'
S'NPP'
tp332
F34
s(g230
S'NAPP'
tp333
F3
s(g194
S'NVP'
tp334
F44
s(S'PP'
S'PPANP'
tp335
F2
s(S'DP'
S'DAAANNP'
tp336
F1
s(S'PP'
S'PAAVP'
tp337
F1
s(g114
S'APPPP'
tp338
F1
s(S'VP'
S'VNP'
tp339
F19
s(g12
S'VANP'
tp340
F4
s(g156
S'VDDP'
tp341
F6
s(S'PP'
S'PPDDP'
tp342
F2
s(g241
S'VADVAP'
tp343
F2
s(g271
S'APDDP'
tp344
F1
s(S'PP'
S'PPADVNP'
tp345
F1
s(S'DP'
S'DPP'
tp346
F54
s.