ccollections
defaultdict
p1
(c__builtin__
float
p2
tRp3
(S'NP'
S'NNNVVVP'
tp4
F1
s(S'DP'
S'DDAP'
tp5
F6
s(S'AP'
S'AADDDP'
tp6
F1
s(S'CP'
S'CCDDDDP'
tp7
F1
s(S'VP'
p8
S'VVVVP'
tp9
F2
s(S'DP'
p10
S'DAANNP'
tp11
F1
s(S'AP'
S'AVVVP'
tp12
F1
s(S'PP'
S'ADVADVPAP'
tp13
F1
s(S'VP'
p14
S'AVADVPP'
tp15
F1
s(S'PP'
S'PADVNP'
tp16
F7
s(S'DP'
S'DNP'
tp17
F150
s(S'PP'
p18
S'AAPDDP'
tp19
F1
s(S'CP'
S'CDPPP'
tp20
F36
s(S'VP'
p21
S'VADP'
tp22
F18
s(S'DP'
S'DNNNNP'
tp23
F1
s(S'DP'
S'DAAP'
tp24
F4
s(S'VP'
p25
S'VAVP'
tp26
F1
s(S'VP'
S'ADVADVADVVVPP'
tp27
F1
s(S'DP'
p28
S'DAADP'
tp29
F1
s(S'DP'
S'ADNNP'
tp30
F2
s(S'VP'
S'AVADVDP'
tp31
F1
s(S'VP'
S'ADVVNP'
tp32
F4
s(S'MP'
S'MVDP'
tp33
F23
s(S'PP'
S'PADVANP'
tp34
F1
s(S'PP'
p35
S'PPPP'
tp36
F25
s(S'DP'
p37
S'DDDNP'
tp38
F3
s(S'VP'
p39
S'VACP'
tp40
F2
s(S'AP'
S'AAAVP'
tp41
F1
s(S'PP'
p42
S'PPAAP'
tp43
F3
s(S'DP'
S'DADVVP'
tp44
F8
s(S'VP'
S'VCCP'
tp45
F9
s(S'PP'
S'PADVNNP'
tp46
F1
s(S'AP'
p47
S'AADVPP'
tp48
F1
s(S'AP'
S'ADVADVAAAP'
tp49
F1
s(S'DP'
S'AADCCP'
tp50
F1
s(S'NP'
p51
S'NDDDP'
tp52
F1
s(S'NP'
S'NADVVVP'
tp53
F6
s(S'VP'
p54
S'VCP'
tp55
F73
s(S'NP'
S'NMMP'
tp56
F2
s(g28
S'ADVADVDDVVP'
tp57
F1
s(S'DP'
S'AADCCCP'
tp58
F1
s(S'DP'
p59
S'ADADVADVPPP'
tp60
F1
s(S'DP'
p61
S'DDDNNP'
tp62
F1
s(g18
S'PAP'
tp63
F79
s(S'PP'
p64
S'PPANNP'
tp65
F2
s(S'VP'
p66
S'VADVADVAP'
tp67
F2
s(S'VP'
S'VADVNP'
tp68
F3
s(S'NP'
p69
S'ANPPP'
tp70
F1
s(S'VP'
S'ADVVCCP'
tp71
F1
s(S'VP'
S'VADVANP'
tp72
F1
s(g18
S'PNP'
tp73
F165
s(S'AP'
p74
S'AADVADVDP'
tp75
F2
s(S'DP'
p76
S'DDP'
tp77
F35
s(S'VP'
S'ADVVDDP'
tp78
F2
s(S'NP'
S'NNNPP'
tp79
F6
s(S'NP'
p80
S'NNDP'
tp81
F6
s(S'VP'
p82
S'ADVVVDDP'
tp83
F1
s(S'CP'
p84
S'AACCDP'
tp85
F1
s(S'MP'
S'MNAP'
tp86
F1
s(S'NP'
p87
S'NMP'
tp88
F48
s(S'PP'
S'PAPP'
tp89
F4
s(S'DP'
p90
S'ADCP'
tp91
F1
s(S'VP'
p92
S'VAAADP'
tp93
F1
s(S'VP'
S'AAVNP'
tp94
F2
s(g18
S'PDP'
tp95
F149
s(S'CP'
S'CCADVADVDP'
tp96
F2
s(S'PP'
S'PPADVVP'
tp97
F3
s(S'VP'
p98
S'VVVADVPP'
tp99
F1
s(S'MP'
S'MADVVNP'
tp100
F1
s(S'VP'
p101
S'AVVAP'
tp102
F1
s(S'AP'
S'ANP'
tp103
F1
s(S'PP'
p104
S'PADVPP'
tp105
F3
s(S'VP'
p106
S'AAVPP'
tp107
F1
s(S'PP'
S'PPADVAP'
tp108
F1
s(S'DP'
p109
S'DPPPP'
tp110
F5
s(g21
S'VVP'
tp111
F33
s(S'AP'
S'ADVAVP'
tp112
F1
s(g51
S'NCCP'
tp113
F34
s(S'AP'
S'AAAADP'
tp114
F1
s(S'NP'
S'NNCP'
tp115
F34
s(S'NP'
p116
S'AANPPP'
tp117
F1
s(S'NP'
S'NNPPPP'
tp118
F1
s(S'NP'
S'NADVDDP'
tp119
F1
s(S'VP'
S'AVNP'
tp120
F7
s(S'VP'
p121
S'VVADP'
tp122
F2
s(S'NP'
S'NADVADVPP'
tp123
F1
s(S'AP'
S'ADVADVADDP'
tp124
F1
s(S'VP'
S'VADVVP'
tp125
F2
s(S'NP'
S'ADVADVADVNMP'
tp126
F1
s(S'PP'
p127
S'ADVPAPP'
tp128
F1
s(S'CP'
S'CCCDP'
tp129
F4
s(S'VP'
p130
S'ADVVAP'
tp131
F1
s(g66
S'VCCCP'
tp132
F1
s(S'PP'
p133
S'PADVVVP'
tp134
F1
s(g18
S'APDP'
tp135
F21
s(S'NP'
S'NAAPPP'
tp136
F1
s(S'VP'
S'ADVVNNP'
tp137
F1
s(S'PP'
p138
S'PADVADVADVPP'
tp139
F1
s(S'AP'
S'AADVCP'
tp140
F1
s(S'VP'
S'VVANP'
tp141
F2
s(S'VP'
S'VVVVDP'
tp142
F2
s(S'VP'
S'ADVVVP'
tp143
F1
s(S'PP'
S'PCCP'
tp144
F3
s(S'NP'
S'NANP'
tp145
F1
s(g37
S'DNNP'
tp146
F38
s(S'DP'
p147
S'DPPPPP'
tp148
F1
s(S'CP'
S'CCADVDP'
tp149
F3
s(S'VP'
p150
S'VVACP'
tp151
F3
s(g37
S'ADDNP'
tp152
F1
s(S'NP'
S'NNNVP'
tp153
F3
s(S'PP'
p154
S'PPAAPP'
tp155
F2
s(S'VP'
S'VADVNNP'
tp156
F1
s(S'PP'
S'PADVADVADVNP'
tp157
F1
s(S'PP'
S'PPNNNNP'
tp158
F1
s(S'MP'
S'MVVVADVPP'
tp159
F1
s(S'PP'
p160
S'PADVVP'
tp161
F2
s(S'DP'
p162
S'DACP'
tp163
F1
s(S'MP'
S'MVVDDP'
tp164
F1
s(S'PP'
p165
S'APAP'
tp166
F3
s(S'CP'
p167
S'ADVADVCDP'
tp168
F5
s(S'NP'
S'NADVMP'
tp169
F2
s(S'AP'
S'AAP'
tp170
F11
s(g54
S'VVAPP'
tp171
F2
s(S'NP'
p172
S'ADVADVNDP'
tp173
F1
s(g162
S'DADVADVNP'
tp174
F1
s(S'NP'
S'ADVANPP'
tp175
F1
s(S'MP'
S'MVVCP'
tp176
F2
s(S'DP'
p177
S'DAAVP'
tp178
F3
s(S'PP'
S'PAANP'
tp179
F4
s(S'PP'
p180
S'PPVVP'
tp181
F8
s(S'DP'
p182
S'ADVDDPP'
tp183
F3
s(S'MP'
S'MVNP'
tp184
F14
s(S'PP'
p185
S'ADVADVPANP'
tp186
F1
s(S'PP'
S'PAVP'
tp187
F7
s(S'MP'
S'ADVMVP'
tp188
F2
s(S'MP'
S'MDANP'
tp189
F1
s(S'VP'
S'VVVPP'
tp190
F5
s(S'NP'
p191
S'NNADP'
tp192
F1
s(S'MP'
S'MADVVPP'
tp193
F2
s(g177
S'DADP'
tp194
F3
s(S'AP'
S'ADVADP'
tp195
F2
s(S'AP'
p196
S'APP'
tp197
F32
s(g154
S'APDDP'
tp198
F2
s(S'PP'
S'PPNNNP'
tp199
F1
s(S'DP'
p200
S'DAAAVP'
tp201
F1
s(S'PP'
p202
S'PPCP'
tp203
F1
s(S'PP'
p204
S'APVP'
tp205
F7
s(S'VP'
p206
S'VVNP'
tp207
F28
s(S'VP'
p208
S'VADVADVAAP'
tp209
F1
s(g204
S'PPVP'
tp210
F30
s(S'VP'
S'VADVDP'
tp211
F2
s(S'DP'
S'ADVADVDDNNP'
tp212
F1
s(g21
S'VAAP'
tp213
F19
s(S'NP'
S'ANDP'
tp214
F4
s(S'NP'
S'NVVP'
tp215
F39
s(g154
S'AAPVP'
tp216
F2
s(S'PP'
S'PPADP'
tp217
F2
s(S'VP'
p218
S'VMP'
tp219
F3
s(S'NP'
p220
S'AANNMP'
tp221
F1
s(g25
S'VVNNP'
tp222
F5
s(S'CP'
p223
S'CDAPP'
tp224
F10
s(g208
S'VVAAP'
tp225
F1
s(g177
S'ADVADVDDVP'
tp226
F1
s(g177
S'ADNP'
tp227
F18
s(g104
S'PADP'
tp228
F15
s(S'VP'
S'ADVVVCP'
tp229
F3
s(S'AP'
S'AAAACP'
tp230
F1
s(g220
S'NNMP'
tp231
F8
s(S'DP'
p232
S'ADVADVADVP'
tp233
F1
s(S'DP'
p234
S'ADVADVDVP'
tp235
F2
s(S'VP'
S'VVVDDP'
tp236
F2
s(g61
S'DAPP'
tp237
F23
s(S'VP'
S'ADVADVVPP'
tp238
F1
s(S'VP'
S'VADVADVNP'
tp239
F1
s(S'PP'
p240
S'AAAPVP'
tp241
F1
s(g8
S'AVVNP'
tp242
F1
s(g64
S'PPPDP'
tp243
F2
s(S'PP'
p244
S'AAAPDP'
tp245
F1
s(S'MP'
S'MVVAP'
tp246
F1
s(S'PP'
p247
S'PPMMMP'
tp248
F1
s(S'VP'
S'VAAPP'
tp249
F1
s(g90
S'ADVDNP'
tp250
F5
s(S'VP'
S'VVPP'
tp251
F19
s(S'MP'
S'MNNNPPP'
tp252
F1
s(S'MP'
p253
S'MVPP'
tp254
F7
s(S'DP'
p255
S'ADVP'
tp256
F9
s(S'CP'
p257
S'CDDPPP'
tp258
F4
s(S'VP'
S'ADVADVADVVVANP'
tp259
F1
s(S'NP'
p260
S'NNPP'
tp261
F18
s(S'MP'
S'MVVDP'
tp262
F1
s(S'DP'
S'DADVPPP'
tp263
F1
s(g51
S'ANVP'
tp264
F12
s(S'DP'
S'AADADVVVP'
tp265
F1
s(S'VP'
S'AAAVDDP'
tp266
F1
s(S'VP'
S'VVADVCCP'
tp267
F1
s(S'DP'
S'DNNNP'
tp268
F4
s(S'DP'
S'ADVDDVP'
tp269
F1
s(g208
S'VADVDDP'
tp270
F2
s(S'PP'
S'PMP'
tp271
F5
s(S'NP'
p272
S'NNMMP'
tp273
F1
s(S'NP'
S'NNNADVADVADVADVVVP'
tp274
F1
s(S'CP'
S'CCDP'
tp275
F46
s(S'NP'
S'ANNDP'
tp276
F1
s(S'DP'
S'ADVADVADVDPP'
tp277
F1
s(S'MP'
S'AMVP'
tp278
F2
s(S'VP'
S'VPPP'
tp279
F13
s(S'PP'
S'ADVADVPPPP'
tp280
F1
s(S'NP'
p281
S'NVVVP'
tp282
F3
s(S'CP'
S'CDDDPP'
tp283
F6
s(S'CP'
S'CDADVADVPP'
tp284
F4
s(S'VP'
S'VVVDP'
tp285
F2
s(S'PP'
S'PNNNP'
tp286
F10
s(S'CP'
S'CCCCDP'
tp287
F1
s(S'MP'
S'MVDDDP'
tp288
F1
s(S'AP'
S'AACCP'
tp289
F1
s(S'VP'
S'ADVVVDP'
tp290
F2
s(g18
S'PPP'
tp291
F62
s(g51
S'NAVP'
tp292
F12
s(g204
S'PADDP'
tp293
F2
s(S'VP'
p294
S'AAVVP'
tp295
F1
s(S'DP'
S'ADVDVP'
tp296
F4
s(g172
S'NCCCP'
tp297
F2
s(S'AP'
S'AADVVP'
tp298
F1
s(g234
S'ADVADVDNP'
tp299
F1
s(g54
S'VPP'
tp300
F100
s(S'CP'
p301
S'ADVCCDP'
tp302
F1
s(g232
S'ADVDDPPP'
tp303
F1
s(S'DP'
S'ADVDDNP'
tp304
F1
s(S'NP'
S'NNNCP'
tp305
F10
s(S'PP'
p306
S'PADVDP'
tp307
F3
s(S'CP'
S'CDADVAPP'
tp308
F1
s(S'DP'
S'DANNP'
tp309
F2
s(S'CP'
S'CDDPP'
tp310
F48
s(g61
S'DAAPP'
tp311
F3
s(g18
S'PVVP'
tp312
F23
s(S'CP'
S'CADPPP'
tp313
F4
s(S'AP'
p314
S'AACP'
tp315
F7
s(S'VP'
S'ADVVCP'
tp316
F3
s(g244
S'PPAP'
tp317
F5
s(S'VP'
p318
S'AVCCP'
tp319
F1
s(g106
S'VVPPP'
tp320
F2
s(S'NP'
p321
S'ADVNAMP'
tp322
F1
s(g253
S'MVPPP'
tp323
F1
s(g147
S'DVVP'
tp324
F30
s(g42
S'PADVAVP'
tp325
F1
s(S'VP'
S'VVVADVAP'
tp326
F1
s(S'NP'
p327
S'NNNNDP'
tp328
F1
s(g51
S'ANMP'
tp329
F2
s(S'AP'
S'APPP'
tp330
F5
s(S'DP'
S'ADVVP'
tp331
F1
s(g121
S'ADVVAAP'
tp332
F1
s(S'VP'
S'VVVP'
tp333
F10
s(S'CP'
p334
S'CADVDPP'
tp335
F10
s(S'NP'
p336
S'ADVADVNNVP'
tp337
F2
s(S'NP'
S'ANCP'
tp338
F23
s(S'DP'
S'DCP'
tp339
F12
s(S'NP'
S'AAANCP'
tp340
F2
s(S'NP'
S'NNVVVVP'
tp341
F1
s(S'NP'
S'NVVVVP'
tp342
F2
s(S'DP'
p343
S'AADAP'
tp344
F1
s(S'AP'
p345
S'ADDDDP'
tp346
F1
s(g39
S'VVADVADVPPP'
tp347
F1
s(g232
S'DDADVPP'
tp348
F1
s(S'MP'
p349
S'MAADP'
tp350
F1
s(S'NP'
S'ANVVP'
tp351
F5
s(S'VP'
p352
S'VVDP'
tp353
F29
s(g51
S'NPPP'
tp354
F23
s(S'DP'
S'ADDDP'
tp355
F1
s(g200
S'AADVVP'
tp356
F1
s(g37
S'DAVP'
tp357
F10
s(S'DP'
S'DDADVADVPP'
tp358
F1
s(S'PP'
S'ADVPPP'
tp359
F1
s(S'AP'
p360
S'ACP'
tp361
F34
s(g240
S'PAAAPP'
tp362
F1
s(g18
S'PPNP'
tp363
F30
s(S'NP'
S'NNNNCCP'
tp364
F1
s(S'CP'
S'CDDADVPP'
tp365
F1
s(S'CP'
p366
S'CCCDDP'
tp367
F1
s(g360
S'ADP'
tp368
F144
s(g28
S'DDAAVP'
tp369
F1
s(g127
S'APVVP'
tp370
F1
s(g69
S'ADVANCCP'
tp371
F1
s(S'DP'
S'DVVVVP'
tp372
F2
s(S'PP'
S'PPPPNNP'
tp373
F1
s(S'AP'
S'AAADP'
tp374
F4
s(S'VP'
p375
S'VVAP'
tp376
F11
s(S'NP'
p377
S'NNAPP'
tp378
F1
s(S'PP'
p379
S'PADVADVDP'
tp380
F1
s(S'NP'
S'NPP'
tp381
F136
s(S'VP'
S'ADVADVVAP'
tp382
F1
s(g87
S'NVP'
tp383
F159
s(g133
S'PPVVVP'
tp384
F1
s(S'PP'
S'PAAVP'
tp385
F3
s(S'PP'
p386
S'AAPPNP'
tp387
F1
s(S'NP'
p388
S'NAAPP'
tp389
F1
s(g21
S'VDDP'
tp390
F26
s(S'NP'
S'AANADVADVDDP'
tp391
F1
s(S'DP'
S'DADVAPP'
tp392
F1
s(S'DP'
p393
S'DDDDVVP'
tp394
F1
s(S'NP'
S'NNAACCP'
tp395
F1
s(S'NP'
S'NADVADVVVP'
tp396
F2
s(S'NP'
p397
S'ANPP'
tp398
F21
s(S'PP'
S'ADVPPDP'
tp399
F2
s(g180
S'PPPPP'
tp400
F6
s(S'PP'
S'ADVADVPDP'
tp401
F1
s(S'MP'
S'MVVPP'
tp402
F1
s(g61
S'ADVDPP'
tp403
F13
s(g234
S'DDDDDP'
tp404
F1
s(S'NP'
p405
S'ADVADVNPP'
tp406
F1
s(g388
S'NPPPP'
tp407
F1
s(S'NP'
S'ANPPPPP'
tp408
F1
s(S'DP'
S'ADDP'
tp409
F3
s(S'NP'
p410
S'ADVNADP'
tp411
F1
s(g257
S'CDDDADVPP'
tp412
F1
s(g301
S'CAADPP'
tp413
F2
s(S'NP'
p414
S'NAACP'
tp415
F2
s(S'PP'
S'PNNP'
tp416
F37
s(S'PP'
p417
S'APNNP'
tp418
F1
s(S'DP'
S'DDDADVADVPPP'
tp419
F1
s(S'DP'
p420
S'DDAAP'
tp421
F1
s(g405
S'NADVACP'
tp422
F1
s(S'VP'
S'AVAP'
tp423
F5
s(S'MP'
S'MMVP'
tp424
F3
s(S'PP'
S'PADVDDP'
tp425
F1
s(S'NP'
S'ADVNCP'
tp426
F7
s(g61
S'ADPP'
tp427
F30
s(S'NP'
S'NAPPP'
tp428
F1
s(S'CP'
S'ACDP'
tp429
F15
s(g18
S'PAAP'
tp430
F17
s(S'NP'
S'NNACP'
tp431
F1
s(S'CP'
S'CDADVPPP'
tp432
F1
s(S'VP'
p433
S'VAP'
tp434
F85
s(S'VP'
S'VVVVNP'
tp435
F2
s(g255
S'DDDPP'
tp436
F7
s(S'CP'
S'ADVCDDP'
tp437
F2
s(S'NP'
S'ANADVCP'
tp438
F1
s(g366
S'CDAAPP'
tp439
F1
s(g343
S'DDDP'
tp440
F7
s(g109
S'DDDPPP'
tp441
F1
s(g21
S'ADVAVDP'
tp442
F1
s(g101
S'AVAVVP'
tp443
F1
s(g74
S'AAACP'
tp444
F1
s(S'PP'
S'APPDDDP'
tp445
F1
s(S'VP'
S'AAVAP'
tp446
F3
s(g47
S'AADDP'
tp447
F10
s(S'VP'
S'VAANP'
tp448
F2
s(S'NP'
S'NADVADVCP'
tp449
F5
s(g185
S'ADVPNNP'
tp450
F1
s(S'DP'
S'DDDDPP'
tp451
F1
s(S'PP'
S'PAAAAP'
tp452
F1
s(S'MP'
S'MVVVCP'
tp453
F1
s(S'MP'
S'MVVACP'
tp454
F1
s(S'DP'
p455
S'DDADVNP'
tp456
F1
s(g18
S'PANP'
tp457
F11
s(g180
S'PDDDP'
tp458
F1
s(g388
S'ANNMP'
tp459
F1
s(S'AP'
S'ACCP'
tp460
F3
s(S'CP'
S'CADVADVADVDPP'
tp461
F1
s(g74
S'AAVP'
tp462
F3
s(g196
S'AVVP'
tp463
F5
s(g414
S'NDDP'
tp464
F8
s(S'PP'
S'APPDDP'
tp465
F1
s(g182
S'DADVADVNNP'
tp466
F3
s(g393
S'DDDADVPP'
tp467
F1
s(g352
S'AVPPP'
tp468
F3
s(g80
S'NDP'
tp469
F64
s(g336
S'ANNADVADVVP'
tp470
F1
s(S'MP'
S'MVAAP'
tp471
F3
s(g109
S'DDVP'
tp472
F29
s(S'NP'
p473
S'AANVP'
tp474
F2
s(g375
S'ADVVVNNP'
tp475
F2
s(g393
S'ADDVP'
tp476
F1
s(g208
S'VNNNP'
tp477
F4
s(S'AP'
S'AADVADVADP'
tp478
F1
s(g386
S'PCP'
tp479
F5
s(S'NP'
S'NNPPP'
tp480
F4
s(g104
S'PAADP'
tp481
F2
s(S'NP'
S'ANNAP'
tp482
F2
s(g191
S'NNNDP'
tp483
F1
s(S'AP'
S'ADVACP'
tp484
F1
s(g202
S'AAPNNP'
tp485
F2
s(g255
S'ADPPP'
tp486
F6
s(g281
S'NNAAVP'
tp487
F2
s(g349
S'MVCP'
tp488
F5
s(S'CP'
S'CCDDP'
tp489
F15
s(S'NP'
S'NNADVVP'
tp490
F1
s(g130
S'AAVCCP'
tp491
F2
s(S'NP'
p492
S'NAAP'
tp493
F13
s(S'DP'
S'AAADNP'
tp494
F1
s(g37
S'DADVNP'
tp495
F5
s(g473
S'NAAMP'
tp496
F1
s(S'DP'
S'ADADVNNP'
tp497
F1
s(g206
S'VVCP'
tp498
F12
s(S'NP'
S'AANCP'
tp499
F3
s(S'VP'
S'VAADP'
tp500
F4
s(g92
S'VVDDDP'
tp501
F1
s(S'NP'
S'NNDDP'
tp502
F2
s(g294
S'ADVVPP'
tp503
F7
s(g66
S'ADVVVPPP'
tp504
F1
s(S'CP'
S'CDAPPP'
tp505
F1
s(S'VP'
S'VNNP'
tp506
F22
s(S'AP'
p507
S'AADVDP'
tp508
F3
s(S'NP'
p509
S'NADP'
tp510
F3
s(g61
S'DDNP'
tp511
F33
s(S'VP'
S'AAVADVADVADVADVDP'
tp512
F1
s(S'NP'
S'NADVCP'
tp513
F4
s(S'DP'
p514
S'DDNNP'
tp515
F5
s(g39
S'VVVVPPP'
tp516
F1
s(S'PP'
S'APCP'
tp517
F1
s(S'NP'
S'ADVADVNCP'
tp518
F1
s(g28
S'AADPP'
tp519
F3
s(S'PP'
S'ADVADVPPDP'
tp520
F2
s(S'AP'
S'AADVADVVP'
tp521
F1
s(S'MP'
S'MVVNP'
tp522
F3
s(S'CP'
S'ACDDP'
tp523
F3
s(S'NP'
S'ADVADVNNCP'
tp524
F2
s(S'AP'
S'AAPP'
tp525
F6
s(S'AP'
S'ADVADVACCP'
tp526
F1
s(g150
S'VVCCP'
tp527
F4
s(g393
S'DADVVVP'
tp528
F3
s(S'DP'
S'DAAAPP'
tp529
F1
s(g260
S'NAPP'
tp530
F11
s(g507
S'AAADVADVDDP'
tp531
F1
s(g74
S'ADVADVADP'
tp532
F1
s(S'DP'
S'DADVADVADVCCP'
tp533
F1
s(g321
S'NADVDP'
tp534
F1
s(g54
S'VVVCP'
tp535
F2
s(S'PP'
p536
S'APDDDP'
tp537
F1
s(S'NP'
S'ANCCP'
tp538
F1
s(g397
S'AANPP'
tp539
F2
s(S'VP'
p540
S'VDDDP'
tp541
F3
s(S'DP'
S'ADVADVADVADVDNP'
tp542
F1
s(g455
S'DDDVP'
tp543
F4
s(g318
S'VVADVADVPP'
tp544
F1
s(g204
S'PAAAP'
tp545
F2
s(S'PP'
S'ADVADVPNP'
tp546
F3
s(g247
S'PPPAP'
tp547
F2
s(g420
S'ADVDADP'
tp548
F1
s(g327
S'ANAP'
tp549
F1
s(S'MP'
S'MVAP'
tp550
F2
s(g18
S'PVP'
tp551
F128
s(S'VP'
p552
S'VADVPPP'
tp553
F2
s(S'MP'
S'AAMVP'
tp554
F1
s(S'CP'
S'CDDDADVADVPPP'
tp555
F1
s(S'DP'
S'DVVVP'
tp556
F4
s(g388
S'ADVNNAP'
tp557
F1
s(S'VP'
S'VCCCCP'
tp558
F1
s(S'PP'
S'PPDDP'
tp559
F4
s(g54
S'AVCP'
tp560
F2
s(g377
S'ADVNNPPP'
tp561
F1
s(g61
S'DPP'
tp562
F208
s(S'NP'
S'ADVNVP'
tp563
F6
s(S'DP'
S'DDPP'
tp564
F76
s(g61
S'DANP'
tp565
F42
s(S'NP'
S'NADVPP'
tp566
F2
s(g51
S'NAAVP'
tp567
F5
s(S'CP'
S'ADVCADVDDP'
tp568
F1
s(g177
S'AADNP'
tp569
F2
s(S'NP'
S'NACP'
tp570
F12
s(g375
S'VADVCP'
tp571
F3
s(g272
S'ANNDDP'
tp572
F1
s(S'NP'
S'NNNVVP'
tp573
F1
s(g343
S'DCCP'
tp574
F1
s(S'PP'
S'ADVADVPPP'
tp575
F1
s(S'AP'
S'AADDDDP'
tp576
F1
s(S'PP'
S'AAPDP'
tp577
F3
s(S'MP'
S'MADVVDP'
tp578
F1
s(g35
S'PDDP'
tp579
F31
s(S'AP'
S'ADVAVVVP'
tp580
F1
s(g51
S'NNVP'
tp581
F31
s(S'NP'
S'ADVNNCP'
tp582
F2
s(S'AP'
S'ADVADVACP'
tp583
F1
s(g433
S'AVDP'
tp584
F11
s(g116
S'NNP'
tp585
F1
s(g540
S'VVDDP'
tp586
F12
s(g76
S'DAANP'
tp587
F5
s(S'AP'
S'ADDP'
tp588
F16
s(g514
S'DDCCCP'
tp589
F1
s(S'PP'
S'PNNNNP'
tp590
F1
s(g82
S'ADVVVAP'
tp591
F1
s(g306
S'ADVPPNP'
tp592
F4
s(S'NP'
S'AAAANCCP'
tp593
F1
s(S'CP'
S'CADVADVDPP'
tp594
F3
s(S'DP'
S'DPPP'
tp595
F57
s(S'DP'
S'DAVVP'
tp596
F1
s(S'CP'
S'ADVADVADVCCDP'
tp597
F1
s(S'VP'
S'VANNP'
tp598
F1
s(S'AP'
S'AAAP'
tp599
F1
s(g509
S'NMMMP'
tp600
F1
s(g306
S'ADVPNP'
tp601
F2
s(g104
S'PPDP'
tp602
F30
s(g160
S'AAAPNNP'
tp603
F1
s(g138
S'ADVADVADVPVP'
tp604
F1
s(S'MP'
S'MVVADP'
tp605
F1
s(S'NP'
S'AAANMP'
tp606
F1
s(S'AP'
S'AAAPP'
tp607
F1
s(g51
S'NAP'
tp608
F56
s(S'NP'
S'NNAAP'
tp609
F1
s(g8
S'VAAAP'
tp610
F1
s(g375
S'AVADVCP'
tp611
F1
s(S'DP'
S'DAAANP'
tp612
F1
s(g247
S'ADVPADP'
tp613
F1
s(S'NP'
S'NNVVP'
tp614
F4
s(g18
S'APNP'
tp615
F16
s(S'DP'
S'DDVVP'
tp616
F8
s(g345
S'AAADDP'
tp617
F1
s(S'VP'
S'VVVNP'
tp618
F3
s(g414
S'NAMP'
tp619
F1
s(g200
S'ADVADVDDPP'
tp620
F1
s(g334
S'CDPP'
tp621
F182
s(S'MP'
S'MVVNNP'
tp622
F1
s(S'AP'
S'ADDDP'
tp623
F3
s(g28
S'ADVDVVP'
tp624
F1
s(S'MP'
S'MMMVP'
tp625
F2
s(g257
S'ADVCDP'
tp626
F5
s(S'VP'
S'ADVADVVNP'
tp627
F2
s(S'CP'
S'ADVACDP'
tp628
F1
s(S'PP'
S'PPNNP'
tp629
F5
s(S'CP'
S'CDAAAPP'
tp630
F1
s(S'DP'
S'ADVADVDPP'
tp631
F4
s(g54
S'VDP'
tp632
F147
s(S'NP'
S'AAANCCP'
tp633
F4
s(S'DP'
S'DAP'
tp634
F33
s(g334
S'CADPP'
tp635
F22
s(g234
S'ADVADVDVVP'
tp636
F1
s(S'PP'
S'PPAVP'
tp637
F4
s(g379
S'PPDDDP'
tp638
F1
s(g218
S'AVPP'
tp639
F3
s(S'DP'
S'DDNNNNP'
tp640
F1
s(S'VP'
S'VVADVDP'
tp641
F1
s(S'CP'
S'ADVCADVDP'
tp642
F1
s(S'VP'
S'VVVVCP'
tp643
F1
s(g167
S'CDPPPP'
tp644
F4
s(g54
S'AAVDP'
tp645
F4
s(S'DP'
S'AADNNP'
tp646
F1
s(g536
S'PANNP'
tp647
F1
s(g386
S'APPP'
tp648
F3
s(g10
S'DAPPP'
tp649
F1
s(S'DP'
S'DADVADVPP'
tp650
F4
s(g10
S'DMP'
tp651
F6
s(S'PP'
S'PPPNP'
tp652
F4
s(g133
S'APADVPP'
tp653
F1
s(S'PP'
S'PPAANP'
tp654
F1
s(S'DP'
S'DDADVADVAP'
tp655
F1
s(g417
S'PADVADVNP'
tp656
F1
s(S'PP'
S'PPPPNP'
tp657
F1
s(g360
S'AADP'
tp658
F34
s(S'NP'
S'NNADVVVP'
tp659
F2
s(g552
S'VADVPP'
tp660
F3
s(g59
S'DDAAPP'
tp661
F1
s(g223
S'CCADVDDP'
tp662
F1
s(g165
S'PVVVVP'
tp663
F1
s(g104
S'ADVPVP'
tp664
F8
s(S'NP'
S'NADVADVADVVVP'
tp665
F2
s(S'DP'
S'ADMP'
tp666
F1
s(S'AP'
S'ADVADVAVP'
tp667
F1
s(S'NP'
S'NNVVVP'
tp668
F2
s(S'VP'
S'ADVVANP'
tp669
F2
s(S'PP'
S'ADVPDP'
tp670
F3
s(S'NP'
S'NCP'
tp671
F134
s(S'CP'
S'CADVDPPP'
tp672
F1
s(S'VP'
S'ADVVVPP'
tp673
F4
s(S'PP'
S'ADVAPVP'
tp674
F1
s(g379
S'PPAAAP'
tp675
F1
s(S'NP'
S'AANDP'
tp676
F3
s(S'MP'
S'MVCCP'
tp677
F1
s(S'DP'
S'DADVNNP'
tp678
F1
s(S'NP'
S'NNCCP'
tp679
F8
s(S'MP'
S'MNVP'
tp680
F3
s(g410
S'AANCCP'
tp681
F1
s(g379
S'PADVADVAP'
tp682
F2
s(g540
S'VAPP'
tp683
F11
s(S'VP'
S'ADVVDP'
tp684
F7
s(g14
S'VADDP'
tp685
F1
s(g343
S'DADVPP'
tp686
F6
s(g334
S'CCADP'
tp687
F3
s(S'MP'
S'MADVVDDP'
tp688
F1
s(S'NP'
S'NNNPPP'
tp689
F1
s(S'AP'
S'ADVAPP'
tp690
F2
s(S'CP'
S'AACDP'
tp691
F2
s(S'NP'
S'NNNCCP'
tp692
F2
s(g84
S'CCADVADVDDP'
tp693
F1
s(S'DP'
S'ADVDPPP'
tp694
F2
s(g61
S'DVP'
tp695
F141
s(g414
S'ADVNPP'
tp696
F1
s(S'CP'
S'AAACDP'
tp697
F1
s(g104
S'PADVADVDDP'
tp698
F1
s(g314
S'AVP'
tp699
F15
s(S'NP'
S'NADVVP'
tp700
F8
s(g244
S'PPAAAPP'
tp701
F1
s(g92
S'ADVVPPP'
tp702
F1
s(S'DP'
S'DDPPP'
tp703
F11
s(S'NP'
S'ADVNMP'
tp704
F2
s(S'NP'
S'NNAP'
tp705
F6
s(S'VP'
S'VADVADVNNP'
tp706
F1
s(S'MP'
S'MADVVCP'
tp707
F1
s(S'PP'
S'PPANP'
tp708
F1
s(S'CP'
S'CDADVPP'
tp709
F3
s(g54
S'VNP'
tp710
F129
s(S'VP'
S'ADVADVADVADVVVDP'
tp711
F1
s(g540
S'VANP'
tp712
F8
s(S'VP'
S'VADVAP'
tp713
F4
s(S'NP'
S'NNNNVP'
tp714
F2
s(S'PP'
S'PPADVNP'
tp715
F2
s(g162
S'DDDDVP'
tp716
F1
s(g98
S'ADVADVVVDP'
tp717
F2
s(g492
S'NADVPPP'
tp718
F3
s.