ccollections
defaultdict
p1
(c__builtin__
float
p2
tRp3
(S'VP'
S'VVAAAP'
tp4
F1
s(S'NP'
S'AANDDP'
tp5
F1
s(S'DP'
S'DDMP'
tp6
F2
s(S'DP'
S'ADDPP'
tp7
F6
s(S'PP'
S'APADVNNP'
tp8
F1
s(S'DP'
S'DDAP'
tp9
F10
s(S'VP'
S'ADVVVNP'
tp10
F13
s(S'NP'
S'AANVVVVP'
tp11
F2
s(S'AP'
S'AADDDP'
tp12
F1
s(S'CP'
S'CCDDDDP'
tp13
F5
s(S'VP'
S'VVVVP'
tp14
F4
s(S'DP'
S'ADVDDVVP'
tp15
F1
s(S'NP'
S'NADDP'
tp16
F1
s(S'AP'
S'AVVVP'
tp17
F1
s(S'PP'
p18
S'ADVADVPAP'
tp19
F1
s(S'PP'
p20
S'PAPP'
tp21
F27
s(S'PP'
S'PADVNP'
tp22
F44
s(S'DP'
p23
S'DNP'
tp24
F1163
s(S'MP'
S'MVVAAP'
tp25
F1
s(S'NP'
S'ADVNDP'
tp26
F3
s(S'PP'
S'AAPDDP'
tp27
F2
s(S'VP'
S'ADVVNNP'
tp28
F2
s(S'CP'
S'CDPPP'
tp29
F193
s(S'PP'
S'APADDP'
tp30
F1
s(S'VP'
S'AVADVDDP'
tp31
F1
s(S'VP'
S'VADP'
tp32
F55
s(S'DP'
S'DNNNNP'
tp33
F2
s(S'CP'
S'CDAAPPP'
tp34
F2
s(S'DP'
S'DAAP'
tp35
F19
s(S'VP'
S'AAVPPP'
tp36
F1
s(S'PP'
p37
S'PPPPPP'
tp38
F7
s(S'MP'
S'MMADVAP'
tp39
F1
s(S'VP'
S'VADVADVADVAP'
tp40
F1
s(S'VP'
p41
S'VAVP'
tp42
F5
s(S'CP'
S'CADVADVDPPP'
tp43
F1
s(S'VP'
S'ADVADVADVVVPP'
tp44
F3
s(S'NP'
S'AAANVVVP'
tp45
F1
s(S'DP'
S'ADNNP'
tp46
F6
s(S'VP'
p47
S'VADVVVP'
tp48
F2
s(S'CP'
S'CCCADVADVDP'
tp49
F1
s(S'DP'
S'ADVADVDPPP'
tp50
F1
s(S'PP'
p51
S'APVP'
tp52
F35
s(S'MP'
p53
S'MVDP'
tp54
F83
s(S'PP'
S'PADVANP'
tp55
F6
s(S'NP'
S'AANNPP'
tp56
F1
s(S'PP'
S'PPPP'
tp57
F56
s(S'AP'
S'ADVAPPP'
tp58
F1
s(S'DP'
S'DDDNP'
tp59
F11
s(S'PP'
S'PAAANP'
tp60
F2
s(S'PP'
p61
S'ADVAPCP'
tp62
F1
s(S'VP'
p63
S'VACP'
tp64
F11
s(S'AP'
S'AAAVP'
tp65
F1
s(S'PP'
p66
S'PPAAP'
tp67
F9
s(S'NP'
S'NNADVDDP'
tp68
F1
s(S'VP'
S'ADVVPPP'
tp69
F1
s(S'MP'
S'ADVMVVP'
tp70
F1
s(S'DP'
S'DADVVP'
tp71
F20
s(S'VP'
S'ADVVVANP'
tp72
F4
s(S'DP'
S'DDDDDP'
tp73
F2
s(S'AP'
S'AADVPP'
tp74
F6
s(S'NP'
S'NNNADVADVVVP'
tp75
F1
s(S'NP'
S'NADVACP'
tp76
F1
s(S'NP'
S'NAAVVP'
tp77
F1
s(S'NP'
S'NDDDP'
tp78
F3
s(S'NP'
S'NADVVVP'
tp79
F43
s(S'CP'
S'CADVADVDDPP'
tp80
F3
s(S'VP'
p81
S'VCP'
tp82
F356
s(S'MP'
S'MVVANP'
tp83
F2
s(S'NP'
S'NMMP'
tp84
F11
s(S'DP'
S'ADVADVADVDDPP'
tp85
F1
s(S'VP'
S'ADVVAAP'
tp86
F2
s(S'DP'
p87
S'DDDNNP'
tp88
F2
s(S'PP'
S'ADVPADP'
tp89
F1
s(S'PP'
p90
S'PAP'
tp91
F387
s(S'PP'
S'PPANNP'
tp92
F1
s(S'MP'
S'MMVVP'
tp93
F3
s(S'VP'
p94
S'VADVADVAP'
tp95
F8
s(S'NP'
p96
S'ANNCCP'
tp97
F1
s(S'PP'
p98
S'ADVPPVP'
tp99
F14
s(S'NP'
S'NNNAP'
tp100
F2
s(S'PP'
S'APVVP'
tp101
F8
s(S'AP'
S'ADVADVAVVP'
tp102
F1
s(S'PP'
S'PPADVDP'
tp103
F1
s(S'PP'
p104
S'ADVADVADVPPVP'
tp105
F1
s(S'MP'
S'AMVP'
tp106
F4
s(g20
S'PNP'
tp107
F1042
s(S'DP'
p108
S'ADDP'
tp109
F6
s(S'PP'
S'PAAADP'
tp110
F2
s(S'NP'
S'NNNCCCCCP'
tp111
F1
s(S'DP'
p112
S'DDP'
tp113
F111
s(S'MP'
S'MADVADVVAP'
tp114
F2
s(S'VP'
S'ADVVDDP'
tp115
F2
s(S'NP'
S'NNNPP'
tp116
F16
s(S'PP'
S'PAAP'
tp117
F57
s(S'MP'
S'MCDP'
tp118
F8
s(S'NP'
p119
S'ANADVAP'
tp120
F1
s(S'DP'
S'DDAANP'
tp121
F2
s(S'NP'
S'ANNVVVVP'
tp122
F1
s(S'DP'
S'DADVDDP'
tp123
F1
s(S'MP'
S'MNAP'
tp124
F1
s(S'DP'
S'DAAAANP'
tp125
F1
s(S'VP'
S'ADVADVADVVVAP'
tp126
F2
s(S'VP'
S'VVADVVP'
tp127
F1
s(S'VP'
S'ADVADVVVCP'
tp128
F1
s(S'NP'
p129
S'NMP'
tp130
F309
s(S'PP'
S'APNNNNP'
tp131
F1
s(S'MP'
p132
S'MAVDDP'
tp133
F2
s(S'NP'
S'AAAAANVVP'
tp134
F1
s(S'PP'
S'PPPPPVVP'
tp135
F1
s(S'VP'
S'ADVVVDDDDP'
tp136
F1
s(S'VP'
S'AAVNP'
tp137
F2
s(S'VP'
p138
S'VMMP'
tp139
F2
s(g90
S'PDP'
tp140
F1144
s(S'NP'
S'AAANCCP'
tp141
F1
s(S'CP'
S'CCADVADVDP'
tp142
F1
s(S'CP'
S'CDADVADVPP'
tp143
F2
s(S'NP'
S'ADVNVVP'
tp144
F3
s(S'VP'
S'VNNNNP'
tp145
F1
s(S'VP'
S'VVAAPP'
tp146
F1
s(S'NP'
S'AAANVVP'
tp147
F1
s(S'NP'
S'AANADVAP'
tp148
F1
s(S'VP'
S'VADVADVADVADVAP'
tp149
F1
s(S'PP'
S'PPPAANP'
tp150
F1
s(S'NP'
S'NNADVADVADVVVP'
tp151
F2
s(S'VP'
S'VVVDP'
tp152
F36
s(S'AP'
S'ANP'
tp153
F3
s(S'NP'
S'NADVADVADVVP'
tp154
F7
s(g66
S'PADVPP'
tp155
F5
s(S'MP'
S'MVADVANP'
tp156
F1
s(S'VP'
S'AAVPP'
tp157
F5
s(S'PP'
S'ADVADVPPVVP'
tp158
F1
s(S'NP'
S'AAAANVVP'
tp159
F1
s(S'PP'
S'PPADVAP'
tp160
F1
s(S'NP'
S'AANNADVVP'
tp161
F1
s(S'NP'
S'ANVVVVP'
tp162
F1
s(S'AP'
S'ADVADVADVADVADP'
tp163
F1
s(S'PP'
S'AAPPPP'
tp164
F1
s(S'VP'
S'VADVAAP'
tp165
F3
s(S'DP'
p166
S'DPPPP'
tp167
F36
s(S'DP'
p168
S'DDANP'
tp169
F17
s(S'DP'
S'ADNNNP'
tp170
F1
s(S'NP'
S'NACP'
tp171
F35
s(S'AP'
S'ADVAVP'
tp172
F6
s(S'NP'
p173
S'NCCP'
tp174
F185
s(S'VP'
S'VVADVCP'
tp175
F1
s(S'VP'
p176
S'VADVADVADVDDP'
tp177
F1
s(S'AP'
p178
S'AAAADP'
tp179
F1
s(S'PP'
S'APADVAAP'
tp180
F1
s(S'VP'
S'VVVVVP'
tp181
F1
s(S'NP'
p182
S'NNCP'
tp183
F188
s(S'DP'
p184
S'ADVDDPP'
tp185
F14
s(S'NP'
S'NADVADVVP'
tp186
F10
s(S'DP'
S'DPPPPP'
tp187
F10
s(S'NP'
S'NNPPPP'
tp188
F3
s(S'DP'
p189
S'DDDDP'
tp190
F6
s(S'MP'
S'MVVADVADVAP'
tp191
F1
s(S'VP'
p192
S'AVNP'
tp193
F30
s(S'VP'
S'VVADP'
tp194
F9
s(S'PP'
S'AAAPMP'
tp195
F1
s(S'VP'
S'ADVADVVVADVPP'
tp196
F1
s(S'NP'
S'NADVADVPP'
tp197
F2
s(S'VP'
S'VVNNNP'
tp198
F9
s(S'PP'
S'ADVPVVP'
tp199
F1
s(S'VP'
S'ADVADVVVADVAP'
tp200
F1
s(S'NP'
S'NNADVADVAAP'
tp201
F1
s(S'PP'
S'ADVAPDP'
tp202
F3
s(S'VP'
S'AVDDDP'
tp203
F1
s(S'VP'
S'VADVVP'
tp204
F21
s(S'NP'
p205
S'ADVADVADVNMP'
tp206
F1
s(S'VP'
S'ADVADVADVVNP'
tp207
F3
s(S'MP'
p208
S'MVAPP'
tp209
F2
s(S'VP'
S'ADVADVVADVCCCP'
tp210
F1
s(S'NP'
S'ADVADVADVNNDP'
tp211
F2
s(S'VP'
S'ADVADVADVVVPPP'
tp212
F1
s(S'PP'
S'ADVAPVP'
tp213
F1
s(S'AP'
p214
S'AAAAP'
tp215
F3
s(S'DP'
S'DADVAP'
tp216
F9
s(S'NP'
S'ADVADVADVADVNCP'
tp217
F1
s(S'NP'
S'ANNPP'
tp218
F2
s(S'NP'
p219
S'NCCCCP'
tp220
F2
s(S'CP'
S'CCCDP'
tp221
F19
s(S'VP'
S'ADVVAP'
tp222
F19
s(g18
S'ADVPPNNP'
tp223
F3
s(S'VP'
S'VCCCP'
tp224
F5
s(S'PP'
p225
S'PADVVVP'
tp226
F4
s(g90
S'APDP'
tp227
F90
s(S'NP'
S'NACCP'
tp228
F1
s(S'VP'
S'VANNP'
tp229
F2
s(S'PP'
S'PADVADVADVPP'
tp230
F1
s(S'AP'
S'AADVCP'
tp231
F2
s(S'AP'
S'AVVVVP'
tp232
F1
s(S'NP'
S'AANMMP'
tp233
F1
s(S'DP'
S'AAADVVVVP'
tp234
F1
s(S'MP'
S'MVADVVP'
tp235
F1
s(S'PP'
S'PPADVADVVVP'
tp236
F1
s(S'VP'
S'VVANP'
tp237
F16
s(S'VP'
S'VVVVVADVAP'
tp238
F1
s(g138
S'VVVVDP'
tp239
F10
s(S'VP'
S'ADVVVP'
tp240
F6
s(S'PP'
S'PPPPPNP'
tp241
F1
s(S'CP'
S'CADADVPPP'
tp242
F1
s(S'AP'
S'AANP'
tp243
F1
s(S'NP'
S'ADVADVNNPP'
tp244
F1
s(S'VP'
S'ADVVVVNP'
tp245
F1
s(S'AP'
S'AAPP'
tp246
F21
s(S'MP'
S'MADVVNP'
tp247
F12
s(S'NP'
S'ANNADVADVADVVVP'
tp248
F1
s(S'NP'
S'NANP'
tp249
F3
s(S'DP'
S'DNNP'
tp250
F224
s(S'CP'
S'CADVDDPP'
tp251
F8
s(S'DP'
S'DADVADVPPP'
tp252
F4
s(S'CP'
p253
S'CDDPPPP'
tp254
F3
s(S'CP'
S'CCADVDP'
tp255
F10
s(S'VP'
S'ADVADVADVVVDP'
tp256
F4
s(S'VP'
S'VVACP'
tp257
F2
s(S'VP'
S'AAVDDP'
tp258
F2
s(S'DP'
S'DADVADVADVADVVP'
tp259
F1
s(S'DP'
p260
S'ADDNP'
tp261
F1
s(S'NP'
S'NNNVP'
tp262
F32
s(S'VP'
S'VADVNNP'
tp263
F4
s(S'PP'
p264
S'AAPPDP'
tp265
F2
s(S'DP'
S'DDADVADVADVVP'
tp266
F1
s(S'PP'
p267
S'PPNNNNP'
tp268
F5
s(S'PP'
S'PADVVP'
tp269
F20
s(S'DP'
p270
S'DACP'
tp271
F1
s(S'DP'
S'DADVADVADVPPP'
tp272
F3
s(S'MP'
S'MVVDDP'
tp273
F1
s(S'PP'
S'APDDDDP'
tp274
F1
s(S'PP'
S'APAP'
tp275
F7
s(S'VP'
S'ADVADVVDDP'
tp276
F2
s(S'CP'
S'ADVADVCDP'
tp277
F9
s(S'CP'
S'ADVCCADP'
tp278
F1
s(S'AP'
S'ACCCP'
tp279
F3
s(S'NP'
S'NADVMP'
tp280
F6
s(S'DP'
p281
S'DDDAANP'
tp282
F1
s(S'PP'
p283
S'PPADP'
tp284
F5
s(S'VP'
p285
S'VADVADVVP'
tp286
F3
s(S'VP'
S'VVAPP'
tp287
F4
s(S'VP'
S'AVVDDP'
tp288
F1
s(S'DP'
S'DAAAPP'
tp289
F2
s(S'AP'
S'AAADVDDP'
tp290
F1
s(S'NP'
S'ADVANPP'
tp291
F3
s(S'VP'
S'VVVVPP'
tp292
F9
s(S'DP'
S'DAAVP'
tp293
F6
s(S'CP'
S'CDDDDPP'
tp294
F3
s(g53
S'MVVVNP'
tp295
F5
s(S'PP'
S'PAANP'
tp296
F17
s(S'VP'
S'VADVADVCP'
tp297
F2
s(S'PP'
S'PPADVADVNNP'
tp298
F1
s(g173
S'ANVP'
tp299
F75
s(S'VP'
p300
S'VAACP'
tp301
F1
s(S'DP'
S'DAADP'
tp302
F1
s(S'VP'
S'VVAVP'
tp303
F2
s(S'MP'
S'MVNP'
tp304
F78
s(S'MP'
S'MNDP'
tp305
F1
s(S'NP'
S'NNANP'
tp306
F1
s(g108
S'ADVADVDDP'
tp307
F1
s(S'CP'
S'CDDDPPP'
tp308
F2
s(S'MP'
S'MADVVAAP'
tp309
F1
s(S'DP'
S'DADVADVVP'
tp310
F3
s(S'PP'
S'PAVP'
tp311
F66
s(S'MP'
S'ADVMVP'
tp312
F9
s(S'DP'
S'DDPPPPPP'
tp313
F1
s(S'AP'
S'AADVVVP'
tp314
F2
s(S'CP'
S'AACDDP'
tp315
F1
s(S'VP'
p316
S'VVVPP'
tp317
F27
s(S'NP'
S'NNADP'
tp318
F1
s(S'NP'
S'NNADVADVVVP'
tp319
F1
s(S'PP'
S'PADVNNP'
tp320
F3
s(S'PP'
S'APPPP'
tp321
F3
s(S'DP'
S'DADP'
tp322
F13
s(S'VP'
S'VVAANP'
tp323
F4
s(S'AP'
S'ADVADP'
tp324
F11
s(S'AP'
p325
S'APP'
tp326
F178
s(S'MP'
S'MADVADVADVADVVCP'
tp327
F1
s(g20
S'APDDP'
tp328
F29
s(S'VP'
S'ADVADVVVNP'
tp329
F6
s(S'PP'
S'PPPPDP'
tp330
F2
s(S'DP'
S'DDVVVVP'
tp331
F1
s(S'NP'
S'ADVNAP'
tp332
F4
s(S'PP'
S'APPP'
tp333
F17
s(S'MP'
S'MDVVP'
tp334
F1
s(S'NP'
p335
S'AANADVVVP'
tp336
F3
s(S'VP'
S'ADVVNP'
tp337
F30
s(S'DP'
S'DAAAP'
tp338
F3
s(S'DP'
S'DPPPPPP'
tp339
F2
s(S'MP'
S'MNNCP'
tp340
F1
s(S'CP'
S'CADVADPPP'
tp341
F2
s(S'VP'
S'ADVADVADVVCP'
tp342
F1
s(S'VP'
S'VVNP'
tp343
F158
s(S'PP'
p344
S'ADVPAVP'
tp345
F1
s(S'PP'
p346
S'PPPNNP'
tp347
F2
s(S'VP'
S'AAAAVDP'
tp348
F1
s(S'PP'
p349
S'PPVP'
tp350
F147
s(S'PP'
S'ADVPAADP'
tp351
F1
s(S'VP'
S'VADVDP'
tp352
F14
s(S'MP'
S'MVVVPP'
tp353
F6
s(S'VP'
S'VVADVAP'
tp354
F6
s(S'VP'
S'VAAP'
tp355
F64
s(S'CP'
S'ADVCDDP'
tp356
F1
s(S'NP'
S'ANDP'
tp357
F44
s(S'NP'
p358
S'NVVP'
tp359
F291
s(g264
S'AAPVP'
tp360
F10
s(S'AP'
p361
S'AAP'
tp362
F30
s(S'VP'
p363
S'VMP'
tp364
F12
s(S'AP'
S'ADVADVADVACP'
tp365
F1
s(S'VP'
p366
S'VVNNP'
tp367
F25
s(S'CP'
S'CDAPP'
tp368
F72
s(S'VP'
S'VVAAP'
tp369
F9
s(S'PP'
S'ADVPMP'
tp370
F3
s(S'DP'
p371
S'ADVADVP'
tp372
F1
s(S'DP'
S'ADVADVDDVP'
tp373
F1
s(S'VP'
S'VVAADDP'
tp374
F1
s(S'NP'
S'ADVADVNNCCP'
tp375
F1
s(S'DP'
S'ADNP'
tp376
F53
s(S'DP'
S'ADVADVADVDAP'
tp377
F1
s(S'PP'
S'PAPPP'
tp378
F1
s(S'DP'
p379
S'DDADVAP'
tp380
F2
s(S'CP'
S'ACCDP'
tp381
F1
s(S'PP'
S'PADP'
tp382
F47
s(S'NP'
S'NADVADVADVPPP'
tp383
F2
s(S'PP'
S'PMMP'
tp384
F4
s(S'DP'
S'DDDPPPP'
tp385
F1
s(S'NP'
S'NADVADVADVVVP'
tp386
F13
s(S'NP'
p387
S'ANDDP'
tp388
F6
s(g281
S'ADVADVDVP'
tp389
F4
s(S'VP'
S'VVVDDP'
tp390
F3
s(S'VP'
S'VVVVVDP'
tp391
F2
s(S'PP'
S'ADVADVPMP'
tp392
F1
s(S'DP'
S'DDADVDP'
tp393
F1
s(S'NP'
S'ADVANNVP'
tp394
F1
s(S'DP'
p395
S'DAPP'
tp396
F128
s(S'VP'
S'AVVP'
tp397
F2
s(S'MP'
S'MVVCP'
tp398
F1
s(S'VP'
S'ADVADVVPP'
tp399
F10
s(S'PP'
p400
S'PPADVADVAMP'
tp401
F1
s(S'MP'
S'MADVADVVNP'
tp402
F3
s(S'VP'
S'VADVADVNP'
tp403
F4
s(S'NP'
S'NNNAVP'
tp404
F1
s(S'VP'
S'ADVADVADVVDP'
tp405
F5
s(S'PP'
p406
S'AAAPVP'
tp407
F1
s(S'NP'
S'ADVNNPP'
tp408
F1
s(g285
S'ADVADVVDP'
tp409
F11
s(S'AP'
S'ADVAVVVVP'
tp410
F1
s(S'PP'
S'PPPDP'
tp411
F12
s(S'NP'
S'NNADVCCP'
tp412
F1
s(S'DP'
S'DAAPPP'
tp413
F3
s(S'AP'
S'AAVVP'
tp414
F1
s(S'MP'
S'MVVAP'
tp415
F6
s(S'VP'
S'VDDDDP'
tp416
F3
s(S'DP'
p417
S'DAAANP'
tp418
F9
s(g379
S'DADVANP'
tp419
F8
s(S'NP'
S'ANADVVVP'
tp420
F3
s(S'VP'
S'VAAPP'
tp421
F9
s(S'VP'
S'ADVADVVVAP'
tp422
F2
s(S'DP'
S'ADVDNP'
tp423
F10
s(S'VP'
S'VVPP'
tp424
F150
s(S'VP'
S'VADVAPP'
tp425
F1
s(S'CP'
S'CCADDP'
tp426
F1
s(S'NP'
S'ADVNNNPP'
tp427
F1
s(S'DP'
S'ADADVPP'
tp428
F1
s(S'PP'
S'PAVVP'
tp429
F2
s(S'MP'
S'MVPP'
tp430
F45
s(S'DP'
S'ADVP'
tp431
F31
s(S'MP'
S'MVADP'
tp432
F3
s(S'CP'
S'CDDPPP'
tp433
F21
s(S'PP'
S'PPAVVP'
tp434
F1
s(S'PP'
S'PPPAP'
tp435
F3
s(S'NP'
S'AANCCP'
tp436
F6
s(S'PP'
S'ADVPDDDP'
tp437
F1
s(S'CP'
S'CCCADVDP'
tp438
F2
s(S'DP'
S'DDDDNP'
tp439
F3
s(S'MP'
S'MVVDP'
tp440
F14
s(g361
S'AACP'
tp441
F34
s(S'PP'
p442
S'PPADVAAP'
tp443
F1
s(S'PP'
S'PPVVP'
tp444
F21
s(S'NP'
S'ADVNADVMP'
tp445
F1
s(S'VP'
S'VVADVCCP'
tp446
F1
s(S'VP'
p447
S'ADVVADVAANNP'
tp448
F1
s(S'DP'
S'DNNNP'
tp449
F36
s(S'DP'
S'ADVDADVPP'
tp450
F1
s(S'VP'
S'VVVVVNNNP'
tp451
F1
s(S'DP'
S'ADVDDVP'
tp452
F6
s(S'PP'
S'PADVADVVP'
tp453
F4
s(S'VP'
S'VADVDDP'
tp454
F4
s(S'VP'
S'ADVVCP'
tp455
F12
s(S'PP'
S'PVVVP'
tp456
F10
s(g346
S'PMP'
tp457
F28
s(S'NP'
S'NNMMP'
tp458
F1
s(S'MP'
S'ADVADVADVMCP'
tp459
F1
s(S'PP'
S'PADVADVADVVP'
tp460
F1
s(S'MP'
S'MCCDP'
tp461
F1
s(S'CP'
S'CCDP'
tp462
F286
s(S'NP'
p463
S'ANNDP'
tp464
F1
s(S'DP'
S'ADVADVADVDPP'
tp465
F3
s(g94
S'VADVANP'
tp466
F8
s(S'PP'
S'PPNNNP'
tp467
F4
s(S'CP'
S'ACCCDP'
tp468
F1
s(S'DP'
S'AADDPP'
tp469
F1
s(g335
S'NVVVP'
tp470
F63
s(S'CP'
S'CDDDPP'
tp471
F14
s(S'PP'
S'PPADVVP'
tp472
F1
s(S'NP'
p473
S'NAAADP'
tp474
F2
s(S'PP'
S'PDDDDP'
tp475
F3
s(S'PP'
S'PNNNP'
tp476
F27
s(S'MP'
S'MVVVAP'
tp477
F1
s(S'CP'
S'CCCCDP'
tp478
F3
s(S'NP'
p479
S'ANMMP'
tp480
F2
s(S'VP'
S'VAAPPP'
tp481
F1
s(S'PP'
S'PADVADVADVNNP'
tp482
F1
s(S'DP'
S'DAAAAANP'
tp483
F1
s(g325
S'AACCP'
tp484
F2
s(S'PP'
S'AAPNP'
tp485
F10
s(S'PP'
S'PPPAVVP'
tp486
F1
s(S'CP'
S'CADADVPP'
tp487
F1
s(S'VP'
S'ADVVVDP'
tp488
F25
s(g267
S'PPP'
tp489
F304
s(S'DP'
S'DADVADVADVPP'
tp490
F1
s(S'NP'
p491
S'NNADVDP'
tp492
F1
s(S'NP'
S'NAVP'
tp493
F37
s(S'PP'
S'ADVAPNNP'
tp494
F1
s(S'PP'
S'PADVAP'
tp495
F7
s(S'DP'
S'DDNNNP'
tp496
F2
s(S'VP'
S'VVADVNNP'
tp497
F2
s(S'PP'
S'PADDP'
tp498
F1
s(S'DP'
S'ADVADVDDPPP'
tp499
F2
s(S'DP'
S'ADVDVP'
tp500
F20
s(S'PP'
S'PPADVADVNP'
tp501
F1
s(S'NP'
S'NAAAP'
tp502
F2
s(S'NP'
p503
S'NCCCP'
tp504
F12
s(g87
S'ADVADVDNNP'
tp505
F2
s(S'CP'
S'CCADVADVADVDP'
tp506
F2
s(S'NP'
S'NNADVCP'
tp507
F4
s(S'MP'
S'MADVADVVPP'
tp508
F4
s(S'DP'
S'ADVADVDNP'
tp509
F3
s(S'AP'
S'AAADVCP'
tp510
F1
s(S'VP'
p511
S'VPP'
tp512
F680
s(S'MP'
S'AAMVP'
tp513
F1
s(S'CP'
p514
S'ADVCCDP'
tp515
F7
s(S'VP'
S'ADVADVVVP'
tp516
F1
s(S'DP'
S'ADVDDPPP'
tp517
F5
s(g108
S'ADVDDNP'
tp518
F6
s(S'NP'
p519
S'AANPPP'
tp520
F1
s(S'NP'
p521
S'NNNCP'
tp522
F31
s(S'PP'
S'PADVDP'
tp523
F12
s(S'CP'
S'CDADVAPP'
tp524
F7
s(S'AP'
S'ADVAADP'
tp525
F7
s(S'DP'
S'DANNP'
tp526
F7
s(S'MP'
S'MADVVAP'
tp527
F3
s(S'PP'
S'PADVAAP'
tp528
F3
s(S'CP'
S'CDDPP'
tp529
F184
s(S'NP'
p530
S'ADVNNADVDP'
tp531
F1
s(S'DP'
S'DAAPP'
tp532
F14
s(S'PP'
S'PVVP'
tp533
F109
s(S'CP'
S'CADPPP'
tp534
F13
s(S'DP'
S'DADVPPP'
tp535
F16
s(S'DP'
p536
S'DADVADVADVNNP'
tp537
F1
s(S'PP'
S'ADVPPAP'
tp538
F1
s(S'VP'
S'VPPP'
tp539
F72
s(S'VP'
S'AVCCP'
tp540
F1
s(S'NP'
S'NADVADVAVP'
tp541
F1
s(S'DP'
S'ADADVVVP'
tp542
F3
s(S'VP'
S'VVPPP'
tp543
F16
s(S'NP'
S'NNNNNVVP'
tp544
F1
s(g63
S'ADVVVCCP'
tp545
F4
s(S'PP'
S'PPAP'
tp546
F29
s(g166
S'DVVP'
tp547
F131
s(S'PP'
S'PADVAVP'
tp548
F1
s(S'PP'
S'PPADVADVADVVP'
tp549
F1
s(S'VP'
S'VVVADVAP'
tp550
F1
s(g119
S'NNNNDP'
tp551
F1
s(S'DP'
S'DDDADVPPP'
tp552
F3
s(S'PP'
S'ADVADVPPVP'
tp553
F1
s(S'NP'
S'ANMP'
tp554
F13
s(g178
S'APPP'
tp555
F12
s(S'PP'
S'ADVPPP'
tp556
F13
s(S'DP'
S'ADVADPPP'
tp557
F2
s(S'NP'
S'ADVADVNVP'
tp558
F9
s(g316
S'VVVP'
tp559
F18
s(g112
S'DDPPPP'
tp560
F9
s(S'NP'
S'ADVADVNNVP'
tp561
F2
s(S'VP'
S'VVADVPPP'
tp562
F1
s(S'PP'
S'APADVADVDDP'
tp563
F1
s(g473
S'ANCP'
tp564
F123
s(g112
S'DCP'
tp565
F62
s(S'NP'
S'ANNCP'
tp566
F7
s(S'VP'
S'ADVVCCP'
tp567
F2
s(S'VP'
S'ADVVVVP'
tp568
F2
s(S'NP'
S'NNVVVVP'
tp569
F4
s(S'PP'
S'ADVADVADVPPNP'
tp570
F4
s(S'DP'
S'DDDP'
tp571
F29
s(S'AP'
S'ADDDDP'
tp572
F1
s(g184
S'DDADVPP'
tp573
F7
s(S'MP'
S'MVVVVNP'
tp574
F1
s(S'MP'
S'MVVCCP'
tp575
F2
s(S'MP'
S'MAADP'
tp576
F1
s(S'NP'
S'ANVVP'
tp577
F31
s(S'VP'
S'VADVADVCCP'
tp578
F1
s(S'NP'
p579
S'NVVVVP'
tp580
F8
s(S'NP'
p581
S'NPPP'
tp582
F83
s(S'DP'
p583
S'ADDDP'
tp584
F3
s(g491
S'ADVNPPPP'
tp585
F1
s(S'VP'
S'VAAAADP'
tp586
F1
s(g132
S'AMVVP'
tp587
F1
s(S'DP'
S'DAVP'
tp588
F44
s(g536
S'DDADVADVPP'
tp589
F2
s(S'NP'
S'NNNNMP'
tp590
F2
s(S'AP'
S'ACP'
tp591
F155
s(g442
S'AAPAP'
tp592
F1
s(g406
S'PAAAPP'
tp593
F1
s(S'PP'
p594
S'PADVADVNNP'
tp595
F3
s(S'PP'
S'PPNP'
tp596
F161
s(S'MP'
S'MADVVPP'
tp597
F8
s(S'NP'
S'NAADP'
tp598
F1
s(S'DP'
S'ADVDAPP'
tp599
F3
s(S'CP'
S'CDDPPPPP'
tp600
F1
s(S'DP'
S'AADVP'
tp601
F3
s(S'PP'
S'PPPPDDP'
tp602
F2
s(S'VP'
S'VVVVNNP'
tp603
F1
s(S'VP'
S'VAANNP'
tp604
F1
s(S'PP'
S'ADVADVADVADVPVP'
tp605
F1
s(S'PP'
S'PPPNNNNP'
tp606
F1
s(S'CP'
p607
S'CDDADVPP'
tp608
F3
s(S'CP'
S'CCCDDP'
tp609
F3
s(S'AP'
S'ADP'
tp610
F924
s(S'CP'
S'CCCDDDP'
tp611
F1
s(S'DP'
S'DDADVVP'
tp612
F3
s(S'CP'
S'CADVDDPPP'
tp613
F3
s(S'CP'
p614
S'CADVDPP'
tp615
F36
s(S'NP'
S'ANPPP'
tp616
F4
s(S'VP'
S'VADVADVADVNP'
tp617
F1
s(g579
S'ADVANCCP'
tp618
F2
s(S'DP'
S'AAAADPP'
tp619
F1
s(S'MP'
S'MADVADVADVVNP'
tp620
F1
s(S'VP'
S'VVCCCP'
tp621
F1
s(S'MP'
S'MAAVDP'
tp622
F1
s(S'DP'
p623
S'DVVVVP'
tp624
F2
s(S'DP'
S'DADVADP'
tp625
F1
s(S'VP'
S'VVPPPP'
tp626
F1
s(S'DP'
S'ADVADVDDNP'
tp627
F1
s(g214
S'AAADP'
tp628
F15
s(S'NP'
S'ANNVP'
tp629
F3
s(S'NP'
S'ADVANNNP'
tp630
F1
s(g81
S'VVAP'
tp631
F75
s(S'NP'
S'NNAPP'
tp632
F2
s(S'VP'
S'AVADVPPP'
tp633
F1
s(S'PP'
S'ADVADVPDDP'
tp634
F1
s(g18
S'PADVADVDP'
tp635
F5
s(S'PP'
S'APPVVP'
tp636
F1
s(g61
S'PAAAANP'
tp637
F1
s(S'CP'
S'CADPPPP'
tp638
F1
s(S'AP'
p639
S'AAAAADDP'
tp640
F1
s(g182
S'NPP'
tp641
F862
s(S'NP'
S'NNNP'
tp642
F1
s(g182
S'NVP'
tp643
F1278
s(S'PP'
S'PPVVVP'
tp644
F2
s(S'PP'
p645
S'PAAVP'
tp646
F6
s(S'NP'
S'NAAPP'
tp647
F4
s(S'PP'
S'PPPPVP'
tp648
F2
s(S'DP'
S'DDDDNNP'
tp649
F1
s(g138
S'VDDP'
tp650
F102
s(S'DP'
S'DAPPP'
tp651
F3
s(g96
S'ADVNPPP'
tp652
F1
s(S'AP'
S'AAADVDP'
tp653
F2
s(S'NP'
S'AANVVP'
tp654
F6
s(S'DP'
S'DADVAPP'
tp655
F10
s(S'VP'
S'ADVADVVACP'
tp656
F1
s(S'PP'
S'PAAAVP'
tp657
F1
s(S'NP'
S'ANCCCP'
tp658
F1
s(g335
S'ANPP'
tp659
F150
s(S'PP'
p660
S'ADVPPDP'
tp661
F4
s(S'PP'
S'PPPPP'
tp662
F11
s(S'PP'
S'ADVADVPDP'
tp663
F2
s(S'PP'
S'PPCP'
tp664
F2
s(S'MP'
S'MVVPP'
tp665
F9
s(S'PP'
p666
S'PPPNP'
tp667
F28
s(g463
S'AAANVVVVP'
tp668
F1
s(S'PP'
S'PPVVVVP'
tp669
F2
s(S'NP'
S'NPPPP'
tp670
F6
s(S'AP'
S'AADVADVDP'
tp671
F3
s(S'CP'
p672
S'CAADPP'
tp673
F18
s(S'DP'
S'DDADVADVPPP'
tp674
F1
s(S'NP'
S'NAACP'
tp675
F5
s(g90
S'PNNP'
tp676
F192
s(S'VP'
S'VADVACP'
tp677
F1
s(S'CP'
S'CDADVADVADVPPP'
tp678
F2
s(g283
S'APNNP'
tp679
F7
s(S'DP'
S'DDDADVADVPPP'
tp680
F1
s(S'DP'
S'DDAAP'
tp681
F1
s(S'MP'
S'MMNP'
tp682
F1
s(S'DP'
S'DDADVNP'
tp683
F1
s(S'AP'
S'ADVAVVVP'
tp684
F2
s(S'VP'
S'AVAP'
tp685
F8
s(S'MP'
S'MMVP'
tp686
F15
s(S'PP'
S'PADVDDP'
tp687
F6
s(S'NP'
S'ADVNCP'
tp688
F10
s(S'DP'
p689
S'ADPP'
tp690
F126
s(S'VP'
S'VAPPP'
tp691
F1
s(S'CP'
S'ACDP'
tp692
F55
s(S'VP'
S'VCCP'
tp693
F43
s(S'NP'
S'ANADVADVVVP'
tp694
F1
s(S'MP'
S'MADVADVADVVAP'
tp695
F2
s(S'AP'
S'ADVANP'
tp696
F15
s(g104
S'PADVADVADVPPP'
tp697
F1
s(S'NP'
S'NNACP'
tp698
F7
s(S'VP'
S'ADVVVAAP'
tp699
F1
s(S'NP'
S'ANNVVVP'
tp700
F1
s(S'CP'
S'CDADVPPP'
tp701
F10
s(S'VP'
p702
S'VAP'
tp703
F494
s(S'VP'
S'AAVADVDP'
tp704
F1
s(g176
S'VVVVNP'
tp705
F4
s(S'MP'
S'MNVVP'
tp706
F2
s(S'DP'
S'DDDPP'
tp707
F30
s(S'VP'
S'VADVADVAAP'
tp708
F1
s(S'NP'
S'ANADVCP'
tp709
F2
s(S'CP'
S'CDAAPP'
tp710
F4
s(S'VP'
S'VADVMP'
tp711
F2
s(g264
S'PAAPP'
tp712
F7
s(S'VP'
S'VVPPPPP'
tp713
F1
s(S'AP'
S'ADVAAPP'
tp714
F1
s(S'MP'
S'MVVVDP'
tp715
F4
s(S'MP'
S'MAVPP'
tp716
F1
s(S'NP'
S'NNPPPPP'
tp717
F1
s(g168
S'DDDPPP'
tp718
F5
s(S'VP'
S'ADVAVDP'
tp719
F4
s(S'DP'
S'ADAP'
tp720
F5
s(g119
S'ADVANPPP'
tp721
F1
s(S'NP'
S'NNAVVP'
tp722
F1
s(S'DP'
S'ADVADVADVDNP'
tp723
F2
s(S'AP'
p724
S'AAACP'
tp725
F2
s(S'DP'
S'ADVDADVVVVP'
tp726
F1
s(g129
S'NAAP'
tp727
F33
s(g225
S'PPPVP'
tp728
F15
s(S'AP'
S'AADDP'
tp729
F25
s(g358
S'ADVNADVADP'
tp730
F1
s(S'VP'
S'AAAAVPP'
tp731
F1
s(S'PP'
S'ADVPADVNNNP'
tp732
F1
s(S'VP'
S'ADVADVAVADVPPP'
tp733
F1
s(S'VP'
S'VAANP'
tp734
F5
s(S'DP'
S'DADVAMP'
tp735
F1
s(g335
S'NADVADVCP'
tp736
F6
s(S'VP'
S'ADVADVVVVPP'
tp737
F1
s(S'PP'
S'ADVPNNP'
tp738
F2
s(S'VP'
S'ADVADVADVADVVDP'
tp739
F1
s(S'MP'
S'MMVVVVP'
tp740
F1
s(S'VP'
S'VVDP'
tp741
F215
s(S'AP'
p742
S'AADVADVAP'
tp743
F1
s(S'PP'
S'AAPPADVADVADVADVNP'
tp744
F1
s(S'VP'
S'VVAADP'
tp745
F1
s(S'MP'
S'MADP'
tp746
F10
s(S'PP'
S'PPPDDP'
tp747
F1
s(S'VP'
S'ADVADVADVVAP'
tp748
F2
s(S'NP'
p749
S'ADVNNADP'
tp750
F1
s(S'AP'
S'AAACCP'
tp751
F1
s(S'VP'
S'AAVAAP'
tp752
F1
s(g666
S'PANP'
tp753
F90
s(S'DP'
S'AADNP'
tp754
F7
s(S'DP'
S'DADVADVNNP'
tp755
F2
s(S'DP'
S'ADVADPP'
tp756
F3
s(S'MP'
S'ADVAMVP'
tp757
F2
s(S'NP'
S'AANMP'
tp758
F4
s(S'AP'
S'AAVP'
tp759
F14
s(S'AP'
S'AVVP'
tp760
F33
s(S'NP'
S'NDDP'
tp761
F38
s(S'NP'
S'ADVADVANPP'
tp762
F1
s(S'MP'
S'MVADVDP'
tp763
F1
s(S'AP'
S'ACCP'
tp764
F21
s(S'VP'
S'VVVVAP'
tp765
F3
s(S'VP'
S'AVPPP'
tp766
F4
s(S'PP'
S'ADVPAANP'
tp767
F1
s(S'NP'
S'NDP'
tp768
F343
s(S'PP'
p769
S'PADVADVADVNP'
tp770
F3
s(S'NP'
S'AAANVP'
tp771
F5
s(S'MP'
S'MVAAP'
tp772
F1
s(g689
S'DDVP'
tp773
F143
s(S'DP'
S'ADADVPPP'
tp774
F1
s(S'NP'
S'ANNNP'
tp775
F1
s(g581
S'AANVP'
tp776
F20
s(S'NP'
S'ADVNCCP'
tp777
F2
s(S'VP'
S'ADVVVNNP'
tp778
F1
s(S'DP'
p779
S'ADDVP'
tp780
F1
s(g192
S'VNNNP'
tp781
F14
s(S'VP'
S'ADVADVADVVVCP'
tp782
F1
s(S'PP'
S'ADVPAP'
tp783
F7
s(S'NP'
S'ADVNADVVVVP'
tp784
F1
s(S'MP'
S'MVPPP'
tp785
F7
s(g37
S'PPPPVVP'
tp786
F1
s(S'NP'
S'NNNNVVP'
tp787
F2
s(g98
S'PCP'
tp788
F28
s(g387
S'NNPPP'
tp789
F6
s(S'CP'
S'ACADVDDP'
tp790
F2
s(S'PP'
S'PAADP'
tp791
F6
s(S'NP'
S'ADVNNVP'
tp792
F8
s(S'DP'
S'DDDADVNNP'
tp793
F1
s(S'NP'
S'NADVCCP'
tp794
F5
s(S'NP'
S'ADVANVVP'
tp795
F1
s(g94
S'VPPPP'
tp796
F11
s(S'VP'
S'VVVVANP'
tp797
F1
s(S'MP'
S'MPAP'
tp798
F2
s(S'DP'
S'DAAANNP'
tp799
F1
s(S'NP'
S'NNNDP'
tp800
F3
s(S'PP'
S'PPPPNNNP'
tp801
F1
s(S'NP'
S'ADVNNDP'
tp802
F2
s(S'AP'
S'ADVACP'
tp803
F23
s(S'NP'
S'AANVVVP'
tp804
F1
s(S'NP'
S'ADVADVNMP'
tp805
F6
s(S'VP'
p806
S'AVVDP'
tp807
F4
s(S'NP'
S'NNVP'
tp808
F270
s(S'NP'
S'NNAAVP'
tp809
F2
s(S'MP'
S'MVCP'
tp810
F12
s(g614
S'CCDDP'
tp811
F47
s(S'NP'
S'NNNADVCP'
tp812
F1
s(S'NP'
p813
S'NNADVVP'
tp814
F4
s(S'VP'
S'VVADVADVAP'
tp815
F2
s(S'VP'
S'AAVCCP'
tp816
F1
s(S'VP'
S'ADVADVADVVPP'
tp817
F2
s(g260
S'DAAAAVP'
tp818
F1
s(g395
S'AAADNP'
tp819
F2
s(S'MP'
S'MVVADVAP'
tp820
F2
s(S'NP'
S'NNVVP'
tp821
F57
s(S'NP'
S'NAAMP'
tp822
F2
s(S'PP'
S'PPADVPPP'
tp823
F1
s(S'NP'
S'NNNNVP'
tp824
F2
s(g702
S'VVCP'
tp825
F59
s(S'VP'
S'VVMP'
tp826
F1
s(S'MP'
S'MVVVVPP'
tp827
F2
s(S'CP'
S'CAADADVPPP'
tp828
F1
s(S'NP'
S'AANCP'
tp829
F21
s(g366
S'VADVNP'
tp830
F24
s(S'VP'
S'VVDDDP'
tp831
F3
s(S'AP'
S'ADVAVVP'
tp832
F10
s(S'VP'
S'AVVPP'
tp833
F2
s(g173
S'NNDDP'
tp834
F7
s(g742
S'ADVADVAADP'
tp835
F1
s(S'VP'
S'ADVVPP'
tp836
F23
s(S'VP'
S'VVADVANP'
tp837
F1
s(S'CP'
S'CADVADVADVDDPP'
tp838
F1
s(S'AP'
S'AAAADDP'
tp839
F2
s(S'NP'
S'NADVADVADVCP'
tp840
F1
s(S'VP'
S'VNNP'
tp841
F131
s(S'NP'
S'AAANDDDP'
tp842
F1
s(S'PP'
S'APADVNP'
tp843
F1
s(S'VP'
S'ADVADVVVANP'
tp844
F3
s(S'NP'
S'NADP'
tp845
F13
s(S'DP'
S'DDNP'
tp846
F158
s(g173
S'NADVCP'
tp847
F12
s(S'DP'
S'DDNNP'
tp848
F25
s(g769
S'AAPPP'
tp849
F1
s(S'VP'
S'VVVVPPP'
tp850
F1
s(S'VP'
S'VPPPPP'
tp851
F1
s(S'NP'
S'ADVANVP'
tp852
F8
s(S'NP'
S'ADVNAAP'
tp853
F1
s(g639
S'AAAAAAAP'
tp854
F1
s(S'VP'
S'ADVVVVPP'
tp855
F2
s(S'MP'
S'MNVVVP'
tp856
F1
s(S'PP'
S'PPADVANNP'
tp857
F1
s(g205
S'ADVADVNCP'
tp858
F3
s(S'AP'
S'ADVADDP'
tp859
F1
s(g23
S'AADPP'
tp860
F21
s(S'VP'
S'VVVAAP'
tp861
F4
s(S'PP'
S'APPNP'
tp862
F2
s(S'NP'
S'NNNNPP'
tp863
F4
s(S'NP'
S'ADVNNADVMP'
tp864
F1
s(S'VP'
S'VVVVCP'
tp865
F4
s(g119
S'ADVADVNPP'
tp866
F3
s(S'MP'
S'MVVVADVANP'
tp867
F1
s(S'NP'
S'NNNVVVVP'
tp868
F2
s(S'DP'
S'AAADVP'
tp869
F2
s(S'NP'
S'NNADVMP'
tp870
F1
s(S'AP'
S'AADVADVVP'
tp871
F1
s(S'CP'
S'CDPPPPP'
tp872
F7
s(S'NP'
S'ANVVVP'
tp873
F3
s(S'DP'
S'DADVADVAP'
tp874
F1
s(S'MP'
S'MVVNP'
tp875
F17
s(g514
S'CDDADVPPP'
tp876
F1
s(S'CP'
S'CAAADDPP'
tp877
F1
s(S'VP'
S'AAVVDP'
tp878
F1
s(S'DP'
S'ADVDNNP'
tp879
F3
s(S'CP'
S'ACDDP'
tp880
F5
s(S'NP'
S'ADVADVNNCP'
tp881
F2
s(S'NP'
S'NNNNCCP'
tp882
F1
s(S'PP'
S'ADVPADVVVVP'
tp883
F2
s(S'CP'
S'CCCADP'
tp884
F3
s(S'AP'
S'ADVADVACCP'
tp885
F1
s(g316
S'VVCCP'
tp886
F20
s(S'DP'
S'DADVVVP'
tp887
F6
s(S'NP'
S'ADVADVNADVADVVVVP'
tp888
F1
s(S'PP'
S'PPPPPVP'
tp889
F1
s(S'DP'
S'DADVADVNP'
tp890
F4
s(S'PP'
S'ADVPANP'
tp891
F2
s(S'VP'
S'VADVADP'
tp892
F1
s(S'MP'
S'MAVADVDDP'
tp893
F1
s(S'VP'
S'ADVADVADVADVVCP'
tp894
F1
s(S'VP'
S'VVVCCP'
tp895
F2
s(g473
S'NAPP'
tp896
F52
s(S'PP'
S'APPVP'
tp897
F3
s(S'NP'
S'NADVDP'
tp898
F3
s(S'PP'
S'ADVPPPP'
tp899
F2
s(S'PP'
S'APDDDP'
tp900
F1
s(S'DP'
S'ADVDANNP'
tp901
F1
s(S'MP'
S'MVDDP'
tp902
F7
s(S'NP'
S'ANCCP'
tp903
F23
s(S'NP'
p904
S'AANPP'
tp905
F15
s(S'VP'
p906
S'VDDDP'
tp907
F8
s(g904
S'NNMP'
tp908
F42
s(S'DP'
S'DDDVP'
tp909
F7
s(g417
S'DDDADVVVP'
tp910
F1
s(S'DP'
S'DDADVVVP'
tp911
F1
s(S'PP'
S'ADVADVPNNP'
tp912
F1
s(S'CP'
S'CADDPP'
tp913
F4
s(S'VP'
S'VVADVADVPP'
tp914
F1
s(S'PP'
S'PAAAP'
tp915
F8
s(S'PP'
S'ADVADVPNP'
tp916
F1
s(S'NP'
S'AAAANCP'
tp917
F1
s(S'CP'
S'CADVADVDDPPP'
tp918
F2
s(S'CP'
S'CDDAPP'
tp919
F5
s(S'VP'
S'VVVPPP'
tp920
F1
s(g129
S'ANAP'
tp921
F22
s(S'DP'
S'AADADVPPP'
tp922
F1
s(S'MP'
S'MVAP'
tp923
F36
s(g90
S'PVP'
tp924
F809
s(S'VP'
S'VADVPPP'
tp925
F3
s(S'DP'
S'DADVAVP'
tp926
F2
s(g724
S'ADVADVAPP'
tp927
F6
s(S'MP'
S'MVVPPP'
tp928
F1
s(S'PP'
S'PPADVVVP'
tp929
F3
s(S'CP'
S'CDDDADVADVPPP'
tp930
F1
s(g447
S'VADVCCP'
tp931
F1
s(S'AP'
S'AADVDDP'
tp932
F2
s(S'DP'
S'DADVADVVVP'
tp933
F1
s(S'MP'
S'MADVADVVCP'
tp934
F1
s(S'PP'
S'PADVADVAP'
tp935
F1
s(S'NP'
S'ADVNAVP'
tp936
F1
s(S'AP'
S'AADVVP'
tp937
F2
s(S'NP'
S'NNNADVADVVP'
tp938
F1
s(S'MP'
S'MMMVVP'
tp939
F1
s(S'DP'
S'DVVVP'
tp940
F16
s(g344
S'PPADVPP'
tp941
F1
s(S'NP'
S'AAANNMP'
tp942
F1
s(S'NP'
S'ANACCCP'
tp943
F1
s(S'VP'
S'VCCCCP'
tp944
F1
s(S'NP'
S'ADVADVADVNVP'
tp945
F3
s(S'NP'
S'ADVADVANVP'
tp946
F1
s(S'MP'
S'AAMADVVVP'
tp947
F1
s(g666
S'PPDDP'
tp948
F15
s(S'VP'
S'AVCP'
tp949
F9
s(S'DP'
S'DDVVVP'
tp950
F3
s(S'NP'
S'NAVVP'
tp951
F1
s(g519
S'ADVANNCP'
tp952
F1
s(S'NP'
S'NAPPP'
tp953
F1
s(g23
S'DPP'
tp954
F1515
s(S'NP'
S'ADVNVP'
tp955
F33
s(S'DP'
S'DDDVVP'
tp956
F1
s(S'CP'
S'CDADVADVADVPP'
tp957
F1
s(g395
S'DDPP'
tp958
F308
s(S'DP'
S'DDADVPPP'
tp959
F5
s(S'DP'
S'DDAVP'
tp960
F3
s(g395
S'DANP'
tp961
F268
s(S'NP'
S'ADVADVNAP'
tp962
F1
s(S'NP'
S'NADVPP'
tp963
F7
s(S'CP'
S'ADVACDDP'
tp964
F1
s(S'DP'
S'ADVDDADVNP'
tp965
F1
s(g645
S'ADVADVADVPPDP'
tp966
F1
s(S'NP'
S'AANADVVP'
tp967
F2
s(g219
S'NAAVP'
tp968
F7
s(S'PP'
S'APADVDDP'
tp969
F1
s(g349
S'PDDDP'
tp970
F12
s(S'CP'
S'CADVADVADVDPP'
tp971
F1
s(S'VP'
S'VADVCP'
tp972
F2
s(S'AP'
S'ADVADVACP'
tp973
F2
s(S'NP'
S'NNNNDDP'
tp974
F1
s(S'NP'
S'NNNNCP'
tp975
F5
s(S'NP'
S'NADVADVADVMP'
tp976
F1
s(g208
S'MDNP'
tp977
F1
s(S'NP'
S'NNNVVP'
tp978
F16
s(S'NP'
S'NNVVVVVP'
tp979
F1
s(g98
S'PADVPPP'
tp980
F8
s(S'DP'
S'DCCP'
tp981
F7
s(S'PP'
S'ADVADVPPP'
tp982
F1
s(S'PP'
S'PPADVADVVP'
tp983
F1
s(S'PP'
S'PPPPNP'
tp984
F4
s(S'PP'
S'AAPDP'
tp985
F12
s(S'MP'
S'MADVVDP'
tp986
F12
s(S'DP'
S'DDADVNNP'
tp987
F2
s(g81
S'VVVAP'
tp988
F7
s(g267
S'PDDP'
tp989
F149
s(S'NP'
S'ADVADVANVVP'
tp990
F1
s(S'AP'
S'ADVACCCP'
tp991
F1
s(g61
S'PADVAPP'
tp992
F1
s(S'PP'
S'PCCP'
tp993
F8
s(S'NP'
p994
S'NVVVVVP'
tp995
F2
s(g503
S'ADVANADVVVP'
tp996
F1
s(S'NP'
p997
S'NNNADVVP'
tp998
F2
s(S'DP'
S'ADPPP'
tp999
F20
s(S'NP'
p1000
S'ADVADVNNDDP'
tp1001
F1
s(S'NP'
S'ADVNNCP'
tp1002
F8
s(S'PP'
S'PADVADVADVDP'
tp1003
F2
s(S'NP'
S'NADVADVVVP'
tp1004
F13
s(S'AP'
S'AADVADVCP'
tp1005
F1
s(S'MP'
S'MVVVNNP'
tp1006
F1
s(S'PP'
S'APAAP'
tp1007
F2
s(g41
S'AVDP'
tp1008
F80
s(S'PP'
S'ADVADVADVPNP'
tp1009
F1
s(S'NP'
S'NNP'
tp1010
F4
s(S'VP'
S'VVDDP'
tp1011
F24
s(g112
S'DAANP'
tp1012
F55
s(S'MP'
S'MADDP'
tp1013
F1
s(g530
S'NAAAAVP'
tp1014
F1
s(S'AP'
S'ADDP'
tp1015
F113
s(S'NP'
S'NNNVVVVVP'
tp1016
F1
s(S'PP'
S'PPPPNNP'
tp1017
F1
s(S'PP'
S'PNNNNP'
tp1018
F2
s(S'VP'
S'ADVVVAP'
tp1019
F7
s(g225
S'ADVPPNP'
tp1020
F16
s(S'NP'
S'ADVADVNVVP'
tp1021
F1
s(S'VP'
S'VVVCP'
tp1022
F8
s(S'CP'
S'CADVADVDPP'
tp1023
F6
s(S'CP'
S'ADVADVADVCDP'
tp1024
F1
s(S'DP'
S'DPPP'
tp1025
F295
s(S'NP'
S'ADVANADVADVVVP'
tp1026
F1
s(S'DP'
S'DAVVP'
tp1027
F1
s(S'DP'
S'AADPPP'
tp1028
F1
s(S'CP'
S'ADVADVADVCCDP'
tp1029
F2
s(S'PP'
S'ADVADVPPNP'
tp1030
F3
s(S'AP'
S'AAAP'
tp1031
F9
s(S'NP'
S'NNAVP'
tp1032
F2
s(S'PP'
S'ADVPPMP'
tp1033
F1
s(S'NP'
S'NNAAPP'
tp1034
F1
s(S'PP'
S'AAPVVP'
tp1035
F2
s(S'NP'
S'NMMMP'
tp1036
F4
s(S'PP'
S'PPPANP'
tp1037
F1
s(S'NP'
S'NNNADVVVP'
tp1038
F2
s(S'MP'
S'MVVAAPP'
tp1039
F1
s(S'DP'
S'DDADVADVNP'
tp1040
F1
s(S'PP'
S'ADVPNP'
tp1041
F22
s(S'PP'
S'PPDP'
tp1042
F111
s(S'PP'
S'AAAPNNP'
tp1043
F1
s(S'MP'
S'MAVDP'
tp1044
F4
s(S'VP'
S'VAAAAP'
tp1045
F2
s(S'PP'
S'ADVADVADVPVP'
tp1046
F2
s(S'DP'
S'ADVDCP'
tp1047
F2
s(S'CP'
S'ADVCCCDP'
tp1048
F1
s(S'AP'
S'ADVADVAACP'
tp1049
F2
s(S'VP'
S'ADVVVCP'
tp1050
F2
s(S'AP'
S'AAPPP'
tp1051
F1
s(S'NP'
S'AAANMP'
tp1052
F1
s(S'DP'
S'DDCP'
tp1053
F5
s(S'PP'
S'PAANNP'
tp1054
F1
s(S'PP'
S'PPADVDDP'
tp1055
F1
s(S'AP'
S'ANNP'
tp1056
F2
s(S'CP'
S'CCCCCDP'
tp1057
F1
s(S'NP'
S'NNADVADP'
tp1058
F1
s(g358
S'NAP'
tp1059
F279
s(S'NP'
S'NNAAP'
tp1060
F6
s(S'VP'
S'VAAAP'
tp1061
F5
s(g47
S'ADVVVADVAP'
tp1062
F1
s(S'VP'
S'ADVAVNP'
tp1063
F2
s(S'DP'
S'DDPPPPP'
tp1064
F1
s(S'VP'
S'VVP'
tp1065
F133
s(S'MP'
S'ADVMNP'
tp1066
F1
s(S'DP'
S'DDAPP'
tp1067
F11
s(S'PP'
S'PADVADVANP'
tp1068
F1
s(S'CP'
S'CCAAAADP'
tp1069
F1
s(g20
S'APNP'
tp1070
F42
s(S'VP'
S'VVVNNP'
tp1071
F5
s(S'DP'
S'DDDAPP'
tp1072
F1
s(S'DP'
S'DDVVP'
tp1073
F23
s(S'AP'
S'AAADDP'
tp1074
F4
s(S'VP'
S'VVVNP'
tp1075
F37
s(S'MP'
S'ADVADVAMVP'
tp1076
F1
s(S'NP'
S'NAMP'
tp1077
F5
s(S'VP'
S'VVVADVANP'
tp1078
F1
s(S'MP'
S'MAVVDP'
tp1079
F1
s(S'DP'
S'ADVADVDDPP'
tp1080
F3
s(S'MP'
S'MVNNP'
tp1081
F8
s(S'NP'
S'NADVAMP'
tp1082
F1
s(g672
S'CDPP'
tp1083
F1184
s(S'MP'
S'MADVADVVDDP'
tp1084
F1
s(g1000
S'NNADVPP'
tp1085
F1
s(S'MP'
S'MVVNNP'
tp1086
F2
s(S'AP'
S'ADDDP'
tp1087
F7
s(S'MP'
S'MVADVPP'
tp1088
F1
s(S'CP'
p1089
S'ADVCADP'
tp1090
F1
s(g581
S'NNDP'
tp1091
F37
s(S'MP'
S'MMMVP'
tp1092
F2
s(S'VP'
S'ADVADVADVVVNNP'
tp1093
F1
s(S'NP'
S'AANNVVVP'
tp1094
F1
s(S'VP'
S'AVVPPP'
tp1095
F1
s(S'MP'
S'MMMADVVVP'
tp1096
F1
s(S'CP'
S'ADVCDP'
tp1097
F23
s(S'AP'
S'ADVAAP'
tp1098
F5
s(S'VP'
S'ADVADVVNP'
tp1099
F3
s(S'DP'
S'AAADDPP'
tp1100
F1
s(S'NP'
S'NNNNPPP'
tp1101
F1
s(g253
S'ADVACDP'
tp1102
F1
s(S'VP'
S'ADVADVVCP'
tp1103
F1
s(g906
S'VADVADVDP'
tp1104
F2
s(g51
S'PPNNP'
tp1105
F35
s(S'CP'
S'CDAAAPP'
tp1106
F1
s(S'PP'
S'ADVAPPP'
tp1107
F3
s(S'AP'
S'ADVACCP'
tp1108
F7
s(S'PP'
S'PPMP'
tp1109
F3
s(g536
S'ADVADVDPP'
tp1110
F9
s(S'VP'
S'VDP'
tp1111
F1053
s(S'NP'
S'NADVAP'
tp1112
F7
s(S'PP'
S'ADVAPNP'
tp1113
F3
s(S'VP'
S'AVDDP'
tp1114
F16
s(S'PP'
S'ADVADVPPNNP'
tp1115
F1
s(g371
S'DADVNP'
tp1116
F12
s(S'DP'
S'DAP'
tp1117
F138
s(S'CP'
S'CADPP'
tp1118
F75
s(S'NP'
S'NADVAVP'
tp1119
F3
s(g594
S'PPAVP'
tp1120
F10
s(S'DP'
S'ADVDVVP'
tp1121
F1
s(S'VP'
S'VVDDDDP'
tp1122
F1
s(S'MP'
S'MADVADVVDP'
tp1123
F3
s(S'PP'
S'PPDDDP'
tp1124
F1
s(g300
S'AVPP'
tp1125
F22
s(S'CP'
S'CAADPPP'
tp1126
F1
s(S'DP'
S'DDNNNNP'
tp1127
F2
s(g997
S'ADVAANNAP'
tp1128
F1
s(S'VP'
S'VVADVDP'
tp1129
F2
s(S'MP'
S'MVADVADVNP'
tp1130
F1
s(S'CP'
S'CDPPPP'
tp1131
F24
s(g400
S'PPAADP'
tp1132
F1
s(S'MP'
S'MDAANP'
tp1133
F1
s(g806
S'AAVDP'
tp1134
F10
s(g270
S'AADNNP'
tp1135
F3
s(S'PP'
S'PANNP'
tp1136
F3
s(g479
S'ADVANMP'
tp1137
F2
s(S'NP'
S'ADVANADVVP'
tp1138
F1
s(S'AP'
S'AAAPP'
tp1139
F5
s(S'DP'
S'ADPPPP'
tp1140
F1
s(S'VP'
S'ADVVADVAP'
tp1141
F1
s(g779
S'DADVADVPP'
tp1142
F4
s(S'DP'
S'DMP'
tp1143
F22
s(S'DP'
S'ADVDPP'
tp1144
F57
s(S'NP'
S'NADVADVDP'
tp1145
F1
s(S'PP'
S'PPAANP'
tp1146
F1
s(S'NP'
S'AAANPP'
tp1147
F1
s(S'PP'
S'PADVADVNP'
tp1148
F14
s(S'VP'
S'ADVADVVAP'
tp1149
F6
s(S'AP'
S'AADP'
tp1150
F146
s(S'PP'
S'PPAAVP'
tp1151
F1
s(S'NP'
S'NNADVVVP'
tp1152
F8
s(S'NP'
S'NADVADVADVCCP'
tp1153
F2
s(g363
S'VADVPP'
tp1154
F6
s(g189
S'DDAAPP'
tp1155
F1
s(S'DP'
S'ADVDANP'
tp1156
F1
s(g607
S'CCADVDDP'
tp1157
F3
s(S'PP'
S'PVVVVP'
tp1158
F2
s(g66
S'ADVPVP'
tp1159
F18
s(S'DP'
S'DDDDPP'
tp1160
F10
s(S'DP'
S'ADMP'
tp1161
F1
s(S'AP'
S'ADVADVAVP'
tp1162
F2
s(S'NP'
S'ADVANCP'
tp1163
F3
s(S'NP'
S'NNVVVP'
tp1164
F13
s(g81
S'ADVVANP'
tp1165
F2
s(g283
S'ADVPDP'
tp1166
F16
s(S'VP'
S'VVNNNNP'
tp1167
F2
s(S'PP'
S'PPPVVP'
tp1168
F1
s(S'PP'
S'PPDDDDP'
tp1169
F1
s(S'NP'
S'ANADVVP'
tp1170
F1
s(S'MP'
S'MVADVAP'
tp1171
F2
s(g521
S'NCP'
tp1172
F853
s(S'VP'
S'ADVADVVVPP'
tp1173
F2
s(S'CP'
S'CADVDPPP'
tp1174
F4
s(g81
S'ADVVVPP'
tp1175
F20
s(S'PP'
S'PPADVNNP'
tp1176
F2
s(S'NP'
S'ADVANDP'
tp1177
F1
s(S'DP'
S'ADVVP'
tp1178
F5
s(g1089
S'CDDADVADVPP'
tp1179
F2
s(S'VP'
S'VAADP'
tp1180
F5
s(S'VP'
S'VADVADVADVDP'
tp1181
F1
s(S'PP'
S'ADVADVPVVVP'
tp1182
F1
s(g660
S'ADVPDDP'
tp1183
F1
s(S'DP'
S'AAAADNP'
tp1184
F1
s(S'PP'
S'PPAPP'
tp1185
F2
s(S'NP'
S'AANDP'
tp1186
F5
s(S'CP'
S'CDAPPP'
tp1187
F1
s(S'MP'
S'MVCCP'
tp1188
F1
s(S'DP'
S'DADVNNP'
tp1189
F8
s(S'NP'
S'NNCCP'
tp1190
F29
s(S'MP'
S'MNVP'
tp1191
F17
s(S'NP'
S'AANAP'
tp1192
F2
s(S'CP'
S'ADVADVCCDP'
tp1193
F1
s(S'NP'
S'NNPP'
tp1194
F118
s(S'PP'
S'ADVPAPP'
tp1195
F1
s(g511
S'VAPP'
tp1196
F29
s(S'MP'
S'MAVNP'
tp1197
F1
s(S'CP'
S'CDPPPPPP'
tp1198
F2
s(g138
S'ADVVDP'
tp1199
F53
s(S'DP'
S'DDADVADVADVPP'
tp1200
F2
s(S'AP'
S'AADVDP'
tp1201
F16
s(g583
S'DADVPP'
tp1202
F58
s(S'AP'
S'AMP'
tp1203
F6
s(S'CP'
S'CCADP'
tp1204
F11
s(g813
S'ADVANVVVP'
tp1205
F1
s(S'PP'
S'ADVADVADVPNNP'
tp1206
F1
s(g623
S'ADVADVADVDDNNP'
tp1207
F1
s(S'NP'
S'NNNPPP'
tp1208
F2
s(S'AP'
S'ADVAPP'
tp1209
F34
s(g37
S'ADVPPVVP'
tp1210
F2
s(S'CP'
S'AACDP'
tp1211
F5
s(g994
S'NNNCCP'
tp1212
F7
s(S'CP'
S'CCDDDP'
tp1213
F11
s(S'DP'
S'ADVDPPP'
tp1214
F5
s(S'DP'
S'DVP'
tp1215
F892
s(S'VP'
S'AVNNP'
tp1216
F3
s(S'NP'
S'ADVNPP'
tp1217
F6
s(S'VP'
S'ADVADVADVVVNP'
tp1218
F4
s(S'NP'
S'NNCCCP'
tp1219
F6
s(S'PP'
S'PADVADVDDP'
tp1220
F1
s(S'AP'
S'AVP'
tp1221
F94
s(g335
S'NADVVP'
tp1222
F37
s(S'NP'
S'NNADVADVVP'
tp1223
F2
s(S'NP'
S'NNNMP'
tp1224
F6
s(S'DP'
S'DADVANNP'
tp1225
F1
s(S'DP'
S'DDPPP'
tp1226
F39
s(S'NP'
S'NADVADVADVADVPP'
tp1227
F1
s(S'NP'
S'ADVNMP'
tp1228
F17
s(S'NP'
S'NNAP'
tp1229
F41
s(S'VP'
S'VADVADVNNP'
tp1230
F1
s(S'MP'
S'MADVVCP'
tp1231
F1
s(S'PP'
S'PPANP'
tp1232
F7
s(S'VP'
S'AAAVNP'
tp1233
F1
s(S'VP'
S'ADVVVADVDP'
tp1234
F1
s(S'CP'
S'CDADVPP'
tp1235
F36
s(S'VP'
S'VNP'
tp1236
F849
s(S'VP'
S'VANP'
tp1237
F52
s(g749
S'NNNNADVADVVVP'
tp1238
F1
s(S'VP'
S'VADVAP'
tp1239
F70
s(S'DP'
S'DDDANP'
tp1240
F1
s(S'PP'
S'PPADVNP'
tp1241
F3
s(S'DP'
S'DDDDVP'
tp1242
F3
s(S'VP'
S'ADVADVVVDP'
tp1243
F4
s(S'DP'
S'AADDVP'
tp1244
F1
s(S'NP'
S'NADVPPP'
tp1245
F2
s.