ccollections
defaultdict
p1
(c__builtin__
float
p2
tRp3
(S'DP'
S'DDPP'
tp4
F6
s(S'DP'
p5
S'DANP'
tp6
F6
s(S'VP'
p7
S'ADVVNP'
tp8
F1
s(S'NP'
S'ANPP'
tp9
F3
s(S'VP'
p10
S'VVNP'
tp11
F1
s(S'PP'
S'PPVP'
tp12
F1
s(S'VP'
p13
S'VADVDP'
tp14
F1
s(S'PP'
p15
S'PAPP'
tp16
F1
s(S'NP'
S'NVVP'
tp17
F3
s(S'DP'
p18
S'DNP'
tp19
F20
s(S'PP'
p20
S'PNNP'
tp21
F2
s(S'VP'
p22
S'VVNNP'
tp23
F1
s(S'NP'
p24
S'NNNAPP'
tp25
F1
s(S'CP'
p26
S'CDPPP'
tp27
F3
s(S'CP'
S'CADVADPP'
tp28
F1
s(g5
S'ADNP'
tp29
F2
s(S'NP'
p30
S'ADVADVNMP'
tp31
F1
s(g10
S'VADP'
tp32
F1
s(S'PP'
S'PADP'
tp33
F1
s(S'AP'
S'AADP'
tp34
F2
s(S'PP'
p35
S'PPPPPP'
tp36
F1
s(g35
S'PDDP'
tp37
F3
s(g26
S'ACDP'
tp38
F1
s(g7
S'AVADVDP'
tp39
F1
s(S'NP'
S'NNVP'
tp40
F2
s(S'DP'
S'DAPP'
tp41
F3
s(S'VP'
p42
S'VAP'
tp43
F12
s(g15
S'APVP'
tp44
F2
s(S'MP'
p45
S'MVDP'
tp46
F3
s(S'DP'
S'DDDPP'
tp47
F1
s(S'PP'
p48
S'PPPP'
tp49
F5
s(S'DP'
p50
S'ADVADPP'
tp51
F1
s(g5
S'DDDAAP'
tp52
F1
s(g45
S'MMADVVP'
tp53
F1
s(S'VP'
S'ADVADVVDP'
tp54
F1
s(S'PP'
S'PPPDP'
tp55
F1
s(S'MP'
p56
S'MAVPP'
tp57
F1
s(S'DP'
p58
S'DADVVP'
tp59
F1
s(S'VP'
p60
S'VDDDDP'
tp61
F1
s(S'CP'
p62
S'ADVADVADVCDP'
tp63
F1
s(g5
S'DPPP'
tp64
F5
s(g58
S'ADVDNP'
tp65
F1
s(S'NP'
S'NCCCP'
tp66
F1
s(g35
S'PPPVP'
tp67
F1
s(g10
S'VCP'
tp68
F9
s(g22
S'VADVADVADVCP'
tp69
F1
s(S'DP'
S'ADVP'
tp70
F1
s(g13
S'VVVVDP'
tp71
F2
s(g15
S'PAP'
tp72
F8
s(S'PP'
S'PPDP'
tp73
F1
s(S'DP'
S'DDDDPP'
tp74
F1
s(S'VP'
p75
S'VAAAP'
tp76
F1
s(S'PP'
S'PNP'
tp77
F16
s(g58
S'DNNNP'
tp78
F2
s(g18
S'DDP'
tp79
F6
s(g48
S'PANP'
tp80
F2
s(S'AP'
S'ACCP'
tp81
F2
s(S'PP'
p82
S'PMP'
tp83
F3
s(g26
S'CCDP'
tp84
F5
s(g56
S'AMVP'
tp85
F1
s(g24
S'NMP'
tp86
F3
s(S'NP'
S'NVVVP'
tp87
F2
s(S'VP'
S'VVVPPPP'
tp88
F1
s(S'NP'
p89
S'NDP'
tp90
F6
s(S'VP'
S'VVVDP'
tp91
F1
s(g18
S'DVP'
tp92
F16
s(S'CP'
S'CCCCDP'
tp93
F1
s(g82
S'PDP'
tp94
F22
s(S'AP'
S'AAADP'
tp95
F1
s(S'PP'
S'APNP'
tp96
F1
s(S'DP'
S'DDVVP'
tp97
F1
s(g48
S'PPP'
tp98
F9
s(g24
S'NAVP'
tp99
F1
s(S'PP'
p100
S'ADVPAP'
tp101
F1
s(S'MP'
S'MVNNP'
tp102
F1
s(g26
S'CDPP'
tp103
F21
s(S'NP'
p104
S'NDDDP'
tp105
F1
s(g58
S'ADVDVP'
tp106
F1
s(S'VP'
S'VMP'
tp107
F1
s(S'CP'
S'CDPPPP'
tp108
F1
s(S'DP'
S'DPPPP'
tp109
F1
s(S'VP'
p110
S'VPP'
tp111
F9
s(g75
S'VVP'
tp112
F1
s(g30
S'NCCP'
tp113
F2
s(g18
S'DADVADVVVP'
tp114
F1
s(S'MP'
S'ADVADVMVP'
tp115
F1
s(S'DP'
p116
S'ADPPP'
tp117
F2
s(S'NP'
S'NNCP'
tp118
F2
s(g30
S'NCP'
tp119
F14
s(S'CP'
p120
S'CCDDP'
tp121
F1
s(S'CP'
S'CDDPP'
tp122
F4
s(S'PP'
S'PVVP'
tp123
F3
s(S'CP'
S'CADPPP'
tp124
F1
s(S'AP'
S'AACP'
tp125
F1
s(S'VP'
S'AVNP'
tp126
F1
s(g82
S'PMMP'
tp127
F1
s(S'PP'
p128
S'PPAP'
tp129
F1
s(g22
S'VVCP'
tp130
F3
s(g5
S'DAP'
tp131
F8
s(S'CP'
S'CADPP'
tp132
F4
s(g42
S'VDP'
tp133
F20
s(S'DP'
S'DVVP'
tp134
F2
s(S'MP'
S'MADVADVVDP'
tp135
F1
s(S'VP'
S'AVPP'
tp136
F1
s(S'NP'
S'NADVADVMP'
tp137
F1
s(S'MP'
S'MVAPP'
tp138
F1
s(g128
S'ADVPPP'
tp139
F1
s(S'VP'
p140
S'VNNP'
tp141
F2
s(S'AP'
S'AADVDP'
tp142
F1
s(g24
S'NADP'
tp143
F3
s(S'CP'
S'CCCDP'
tp144
F1
s(g116
S'DDNP'
tp145
F2
s(S'NP'
p146
S'ANCP'
tp147
F3
s(g100
S'APDP'
tp148
F3
s(S'DP'
S'DCP'
tp149
F1
s(S'PP'
S'PPPNP'
tp150
F1
s(g100
S'PADVADVNP'
tp151
F1
s(g58
S'ADPP'
tp152
F5
s(S'NP'
S'NVVVVP'
tp153
F2
s(S'DP'
S'DDDP'
tp154
F1
s(g104
S'ANVVP'
tp155
F2
s(g20
S'ADVPVP'
tp156
F1
s(S'VP'
S'VVDP'
tp157
F2
s(S'NP'
S'NPPP'
tp158
F3
s(g116
S'DAVP'
tp159
F2
s(g146
S'NNNMP'
tp160
F1
s(g50
S'DNNP'
tp161
F2
s(S'AP'
p162
S'ACP'
tp163
F4
s(g15
S'PPNP'
tp164
F4
s(S'AP'
S'AAMP'
tp165
F1
s(g22
S'VVCCP'
tp166
F1
s(g146
S'NNCCP'
tp167
F1
s(g60
S'VVVP'
tp168
F2
s(S'NP'
S'NNPP'
tp169
F1
s(S'AP'
S'ADP'
tp170
F19
s(g110
S'VAPP'
tp171
F1
s(S'AP'
S'APP'
tp172
F3
s(g42
S'ADVVDP'
tp173
F1
s(S'DP'
S'DADVPP'
tp174
F3
s(g104
S'ANCCP'
tp175
F1
s(S'VP'
S'VVPP'
tp176
F1
s(g162
S'AMP'
tp177
F1
s(g140
S'AVDP'
tp178
F1
s(g146
S'ANVP'
tp179
F1
s(g62
S'CCDDDP'
tp180
F1
s(S'VP'
p181
S'VVAP'
tp182
F3
s(S'MP'
S'MVAP'
tp183
F2
s(S'DP'
S'ADVDPPP'
tp184
F1
s(g48
S'PVP'
tp185
F16
s(S'MP'
S'MVNP'
tp186
F1
s(g162
S'AVP'
tp187
F4
s(g22
S'VADVCCP'
tp188
F1
s(S'DP'
S'DDPPP'
tp189
F1
s(g89
S'NPP'
tp190
F19
s(S'NP'
S'NNNP'
tp191
F1
s(g89
S'NVP'
tp192
F18
s(g35
S'PPANP'
tp193
F2
s(g62
S'ADVCCDDP'
tp194
F1
s(g42
S'VCCCCP'
tp195
F1
s(g120
S'CDADVPP'
tp196
F1
s(g181
S'VNP'
tp197
F9
s(S'VP'
S'VDDP'
tp198
F1
s(g42
S'ADVADVVVDP'
tp199
F1
s(g18
S'DPP'
tp200
F25
s.