ccollections
defaultdict
p1
(c__builtin__
float
p2
tRp3
(VImposthume
S'NNP'
p4
tp5
F1
s(VLiberty
g4
tp6
F3
s(VClose
g4
tp7
F1
s(VOccurrence
S'NN'
p8
tp9
F1
s(Vfix
g8
tp10
F1
s(VMonth
g4
tp11
F2
s(VIndolence
g4
tp12
F1
s(Vusual
S'JJ'
p13
tp14
F1
s(Vextempore
g8
tp15
F1
s(VFor
S'IN'
p16
tp17
F7
s(VLustre
g4
tp18
F2
s(S'IN'
p19
g8
tp20
F166
s(VTutor
g4
tp21
F1
s(VPhlegm
g4
tp22
F1
s(VAy
g4
tp23
F1
s(Vmount
S'VB'
p24
tp25
F1
s(VDint
g4
tp26
F3
s(VProlongation
g8
tp27
F1
s(VLIFE
g4
tp28
F1
s(VTerror
g8
tp29
F1
s(VDanger
g8
tp30
F1
s(V135,000
S'CD'
p31
tp32
F1
s(S'DT'
p33
S'JJS'
p34
tp35
F84
s(VYour
S'PRP$'
p36
tp37
F8
s(VMirrors
S'NNS'
p38
tp39
F1
s(V_Euphrates_
g8
tp40
F3
s(VFelicity
g8
tp41
F1
s(Vgrasp
g8
tp42
F1
s(VQuestion
g8
tp43
F3
s(V_Egypt_
g4
tp44
F6
s(Vprone
g13
tp45
F1
s(VEnjoyment
g8
tp46
F1
s(Vagainst
S'IN'
p47
tp48
F16
s(VTo
S'TO'
p49
tp50
F10
s(Vmaterial
g13
tp51
F1
s(Vodd
g24
tp52
F1
s(Vtho
g8
tp53
F32
s(S'RB'
p54
S'VBZ'
p55
tp56
F20
s(Vblows
g38
tp57
F1
s(VSoon
g8
tp58
F1
s(Vhigher
S'JJR'
p59
tp60
F2
s(VExtent
g8
tp61
F1
s(V_Arabia
g13
tp62
F1
s(VPullet
g24
tp63
F1
s(Vfram
S'RB'
p64
tp65
F1
s(VCourt-Intrigues
g38
tp66
F1
s(VSwords-men
g4
tp67
F1
s(g34
S'NNPS'
p68
tp69
F1
s(Vcrowded
S'VBN'
p70
tp71
F1
s(VFabrick
g4
tp72
F1
s(Vsecur
S'VBP'
p73
tp74
F1
s(Vgives
S'VBZ'
p75
tp76
F2
s(Vhunting
S'VBG'
p77
tp78
F2
s(S'WDT'
p79
g64
tp80
F5
s(S'IN'
p81
g64
tp82
F74
s(Vfourscore
g59
tp83
F1
s(Vacted
S'VBD'
p84
tp85
F1
s(g8
S'DT'
p86
tp87
F15
s(Vpunctuation
g8
tp88
F1
s(S'RB'
p89
g24
tp90
F107
s(Vtold
g84
tp91
F14
s(Vadore
g24
tp92
F4
s(Vaccepted
g70
tp93
F1
s(g8
g79
tp94
F20
s(Vmore
g59
tp95
F36
s(VSong
g4
tp96
F1
s(Vbroken
g70
tp97
F1
s(Vfear
g73
tp98
F1
s(Vpenny
g8
tp99
F2
s(VFarewel
g4
tp100
F1
s(g4
S'WRB'
p101
tp102
F2
s(VMadder
g4
tp103
F1
s(VExtreams
g4
tp104
F1
s(Vrestless
g13
tp105
F1
s(S'WP'
p106
S'VBZ'
p107
tp108
F25
s(g77
g8
tp109
F15
s(VCell
g4
tp110
F1
s(Vjump
g8
tp111
F1
s(Vsolid
g13
tp112
F2
s(Vfrugal
g8
tp113
F1
s(Vconducted
g84
tp114
F3
s(Vclose
g24
tp115
F3
s(Vwhen
g101
tp116
F37
s(Vterribly
g64
tp117
F1
s(VPeople
g4
tp118
F3
s(VElection
g8
tp119
F1
s(Vdeclining
S'VBG'
p120
tp121
F1
s(g13
S'MD'
p122
tp123
F198
s(VMagistrates
g68
tp124
F1
s(Vamounted
g70
tp125
F1
s(V_Orcan_
g4
tp126
F3
s(Vadvise
g24
tp127
F2
s(VSpoke
g8
tp128
F1
s(S'CC'
p129
S'CC'
p130
tp131
F1
s(VMortals
g4
tp132
F1
s(Vpersecuted
g84
tp133
F1
s(V's
g55
tp134
F6
s(Vreasonably
g64
tp135
F1
s(g4
S'CC'
p136
tp137
F127
s(Vadjacent
g13
tp138
F3
s(Vborrow
g8
tp139
F2
s(Vafter
S'IN'
p140
tp141
F31
s(VMerit
g4
tp142
F11
s(VMoiety
g4
tp143
F2
s(VFoibles
g4
tp144
F1
s(Vexasperated
g13
tp145
F1
s(VAttendant
g4
tp146
F6
s(Vrepeating
g77
tp147
F1
s(Vbalance
g24
tp148
F1
s(VParting
g8
tp149
F1
s(Vchimerical
g13
tp150
F1
s(VVotes
g38
tp151
F1
s(Vdisencumber
g13
tp152
F1
s(Vreclin
g8
tp153
F2
s(Vsuffer
g73
tp154
F1
s(Vhearing
g8
tp155
F1
s(Vvisible
g13
tp156
F3
s(VRaptures
g4
tp157
F1
s(VMinds
g38
tp158
F1
s(VTransports
g4
tp159
F1
s(Voblig
g13
tp160
F8
s(VMeaning
g4
tp161
F2
s(Venter
g8
tp162
F1
s(Vceasing
g77
tp163
F1
s(VMantles
g38
tp164
F1
s(Vapplauded
g84
tp165
F1
s(VAcquittance
g4
tp166
F2
s(Veither
g86
tp167
F4
s(Vdiscourse
g24
tp168
F1
s(Vshameful
g13
tp169
F1
s(Vreturned
g84
tp170
F1
s(Vbreaks
g55
tp171
F1
s(Vperusal
g8
tp172
F1
s(Vprov
g55
tp173
F1
s(Vdistrest
g34
tp174
F1
s(Vgo
g73
tp175
F2
s(VO
g4
tp176
F16
s(Vimmutable
g13
tp177
F2
s(VBank
S'NNP'
p178
tp179
F4
s(Vmost
g34
tp180
F9
s(V_Zadig_
S'UH'
p181
tp182
F3
s(Vsink
g8
tp183
F1
s(VFop
g4
tp184
F1
s(Vformost
g8
tp185
F1
s(Vshorten
g24
tp186
F2
s(Vungratefully
g64
tp187
F1
s(g13
S'WP'
p188
tp189
F2
s(Vignorant
g13
tp190
F1
s(Vdeclar
g8
tp191
F1
s(Vreceiv
g13
tp192
F2
s(Vdeeply
g64
tp193
F2
s(Vnotwithstanding
g77
tp194
F10
s(Vc
g8
tp195
F1
s(VOpposition
g8
tp196
F1
s(VDagger
g4
tp197
F2
s(VGravity
g4
tp198
F1
s(V'
S"''"
p199
tp200
F42
s(Vacquit
g24
tp201
F1
s(Vluckily
g64
tp202
F1
s(VFore-foot
g13
tp203
F1
s(Vwishful
g13
tp204
F1
s(Vfill
g13
tp205
F1
s(Vmercenary
g13
tp206
F1
s(VHuntsman
g4
tp207
F6
s(VContent
g4
tp208
F1
s(Vescap
g73
tp209
F1
s(Vcovetous
g13
tp210
F1
s(VBumpers
g38
tp211
F1
s(VCommemoration
g8
tp212
F1
s(Vpast
g8
tp213
F1
s(S','
S'WP$'
p214
tp215
F8
s(VExperiment
g8
tp216
F1
s(Vwheel
g24
tp217
F1
s(VEnvious
g13
tp218
F1
s(g24
g31
tp219
F20
s(Vconceal
g8
tp220
F1
s(Vwitless
g8
tp221
F1
s(VArmour
g4
tp222
F10
s(Vsurrounded
g84
tp223
F1
s(VInstance
g8
tp224
F1
s(Vrich
g13
tp225
F10
s(Vhabitable
g13
tp226
F1
s(VCanope
g4
tp227
F1
s(Vrepent
g8
tp228
F1
s(VPoetry
g4
tp229
F2
s(Vget
g24
tp230
F6
s(VTouch-stone
g8
tp231
F1
s(VRavishers
g68
tp232
F1
s(VDiscernment
g4
tp233
F1
s(g122
S'VBG'
p234
tp235
F1
s(VPride
g4
tp236
F5
s(V_Setoc_
g70
tp237
F2
s(VEnquiries
g38
tp238
F1
s(Vpossible
S'JJ'
p239
tp240
F14
s(VFine
g4
tp241
F4
s(VSeraglio
g4
tp242
F1
s(VHand
g4
tp243
F20
s(VCustom
g8
tp244
F2
s(Vaffected
g13
tp245
F1
s(Vpray
g8
tp246
F12
s(VAdept
g4
tp247
F1
s(V_Chance_
g8
tp248
F1
s(Vstung
g84
tp249
F1
s(Vseek
g24
tp250
F2
s(VRestitution
g4
tp251
F2
s(Vfeel
g24
tp252
F1
s(VBeauteous
g13
tp253
F1
s(VHamlet
g4
tp254
F1
s(Vsoft
g13
tp255
F5
s(VDegrees
g38
tp256
F1
s(Vtouch
g24
tp257
F3
s(Vaim
g55
tp258
F1
s(V_SHERAA_
g4
tp259
F1
s(VVariations
g38
tp260
F1
s(VWomen
g38
tp261
F1
s(Vcondescend
g24
tp262
F1
s(S'TO'
p263
g79
tp264
F8
s(g122
g31
tp265
F7
s(Vrandom
g8
tp266
F2
s(VAttachment
g8
tp267
F1
s(Vfore-Feet
g8
tp268
F1
s(Vallow
g13
tp269
F2
s(VBounds
g4
tp270
F1
s(g36
S'RP'
p271
tp272
F1
s(Vtalk
g8
tp273
F1
s(g59
g70
tp274
F1
s(Vfarther
g13
tp275
F1
s(Vqualified
g84
tp276
F1
s(Vbaneful
g13
tp277
F2
s(Voverset
g73
tp278
F1
s(Vdeceased
g13
tp279
F7
s(VInferior
g4
tp280
F1
s(Vdesert
g24
tp281
F1
s(Vappearing
g77
tp282
F1
s(VDefence
g4
tp283
F1
s(Valive
g13
tp284
F4
s(g4
S'PDT'
p285
tp286
F3
s(Vpush
g73
tp287
F1
s(g79
g24
tp288
F2
s(g106
g64
tp289
F7
s(Vless
S'RBR'
p290
tp291
F4
s(Vwounded
g84
tp292
F1
s(VDistance
g8
tp293
F5
s(VClerk
g4
tp294
F2
s(V_Arabian_
g8
tp295
F5
s(VCompetitors
g68
tp296
F1
s(Vtowards
g19
tp297
F8
s(Vup-rising
g8
tp298
F1
s(Vhappy
g13
tp299
F21
s(Vconvey
g24
tp300
F1
s(Vrenders
g55
tp301
F1
s(Vconvenient
g8
tp302
F1
s(VBill
g8
tp303
F1
s(VTent
g8
tp304
F1
s(VTreason
g4
tp305
F1
s(g68
g64
tp306
F1
s(Vswoon
g24
tp307
F1
s(S':'
g34
tp308
F1
s(VFragment
g4
tp309
F1
s(Vglorious
g13
tp310
F2
s(Vnecessary
S'JJ'
p311
tp312
F5
s(VGrounds
g55
tp313
F2
s(VSense
g8
tp314
F4
s(S'EX'
p315
S'POS'
p316
tp317
F1
s(Vhundred
g13
tp318
F5
s(Venquiring
g77
tp319
F3
s(Vnarrowly
g64
tp320
F2
s(V_Arabia
g4
tp321
F1
s(Vfuture
g8
tp322
F8
s(Vblame
g24
tp323
F2
s(S'IN'
p324
S'.'
tp325
F21
s(VServants
g38
tp326
F1
s(VPack
g4
tp327
F1
s(Vasleep
g13
tp328
F1
s(Vtimes
g55
tp329
F1
s(VAttention
g4
tp330
F1
s(S'('
g13
tp331
F1
s(Vruffled
g70
tp332
F1
s(Vsolemn
g8
tp333
F1
s(Vtreated
g84
tp334
F2
s(g34
S'JJ'
p335
tp336
F11
s(Vbeloved
g13
tp337
F1
s(VAffliction
g4
tp338
F1
s(VGentlemen
g4
tp339
F5
s(VMob
g4
tp340
F1
s(VGardens
g4
tp341
F1
s(Vsolemniz
g70
tp342
F1
s(VLuminaries
g38
tp343
F1
s(Vrain
g24
tp344
F1
s(VStone-Witness
g13
tp345
F1
s(VCandidate
g8
tp346
F1
s(S'VBG'
p347
g33
tp348
F45
s(VDuty
g4
tp349
F1
s(Vgay
g13
tp350
F1
s(VRivals
g38
tp351
F1
s(S'PRP'
p352
g13
tp353
F29
s(VLanguage
g4
tp354
F3
s(Vdiffident
g13
tp355
F1
s(VThese
S'DT'
p356
tp357
F1
s(Vpointed
g84
tp358
F1
s(S'VBG'
p359
g31
tp360
F7
s(Vgrown
g70
tp361
F1
s(VApplication
g4
tp362
F2
s(V_Sadder_
g8
tp363
F1
s(Vyearn
g8
tp364
F1
s(VPopulace
g4
tp365
F3
s(Vrend
g24
tp366
F1
s(VServitude
g4
tp367
F1
s(VSatyr
g4
tp368
F1
s(VBoth
g86
tp369
F3
s(g130
g285
tp370
F3
s(VPartiality
g4
tp371
F1
s(VAstonishment
g4
tp372
F1
s(Vinterrupt
g24
tp373
F1
s(Vsucceeded
g70
tp374
F1
s(VPrince
g8
tp375
F2
s(Venlighten
g8
tp376
F1
s(Vinterrupted
g70
tp377
F3
s(VRich
g13
tp378
F1
s(Vfir
g55
tp379
F1
s(V_Itobad_
g8
tp380
F6
s(Vlest
g34
tp381
F2
s(Vpartaking
g8
tp382
F1
s(g24
S'WRB'
p383
tp384
F4
s(VApplication
g8
tp385
F1
s(VThe
S'DT'
p386
tp387
F156
s(VIvory
g4
tp388
F1
s(VSometimes
g64
tp389
F2
s(VSuccour
g4
tp390
F1
s(Vsudden
g13
tp391
F3
s(VBush
S'NNP'
p392
tp393
F1
s(Vprevented
g70
tp394
F1
s(g8
g31
tp395
F5
s(V_FINIS._
g13
tp396
F1
s(VPatience
g8
tp397
F2
s(VConqueror
g4
tp398
F1
s(Vimploring
g77
tp399
F3
s(Vservile
g13
tp400
F2
s(g59
S':'
tp401
F1
s(VNation
g8
tp402
F1
s(g84
g64
tp403
F253
s(VSoon
g64
tp404
F1
s(Vdisconsolate
g8
tp405
F2
s(VLink
g4
tp406
F1
s(VYesterday
S'NN'
p407
tp408
F3
s(g73
S'PRP$'
p409
tp410
F12
s(Vsecur
g130
tp411
F1
s(VAN
g86
tp412
F1
s(Vembellish
g13
tp413
F1
s(Vfata
g8
tp414
F1
s(Vaccording
S'VBG'
p415
tp416
F8
s(g34
g8
tp417
F44
s(Vchoak
g8
tp418
F1
s(g199
S'VBN'
p419
tp420
F2
s(VNobody
g8
tp421
F3
s(Vabsolutely
g64
tp422
F4
s(Vwhite
S'JJ'
p423
tp424
F9
s(VScene
g8
tp425
F1
s(Vout
g64
tp426
F2
s(Vappointed
g84
tp427
F2
s(Vdiscover
g70
tp428
F1
s(VLady
g13
tp429
F1
s(Vrestoring
g77
tp430
F1
s(VIgnominy
g4
tp431
F1
s(g4
g315
tp432
F1
s(VBread
g4
tp433
F1
s(VMake
g24
tp434
F1
s(V_Valet_
g8
tp435
F1
s(Vcomplain
g73
tp436
F1
s(Vfifteen
g13
tp437
F1
s(VThings
g38
tp438
F3
s(VAssembly
g4
tp439
F2
s(VMonitor
g4
tp440
F1
s(g79
g4
tp441
F14
s(Vnam
g64
tp442
F1
s(V_Chaldean_
g8
tp443
F2
s(Vsat
g70
tp444
F1
s(VTail
g4
tp445
F2
s(VTone
g4
tp446
F1
s(V_Arbogad's_
g13
tp447
F1
s(g70
g271
tp448
F19
s(Vsnapt
g84
tp449
F1
s(Vpublick
g13
tp450
F1
s(g55
g290
tp451
F4
s(Vdevours
g55
tp452
F1
s(VResidence
g8
tp453
F3
s(g64
g290
tp454
F10
s(VPocket-Book
g8
tp455
F1
s(VBorders
g4
tp456
F1
s(VCrown
g4
tp457
F4
s(VDelinquents
g4
tp458
F1
s(VGallant
g4
tp459
F3
s(Vroast
g8
tp460
F2
s(VConduct
g8
tp461
F5
s(VVexation
g8
tp462
F1
s(Vgive
g24
tp463
F20
s(Vperuse
g24
tp464
F1
s(V_Babylon_
g38
tp465
F1
s(VTrees
g4
tp466
F1
s(VCompromise
g4
tp467
F1
s(VShare
g8
tp468
F4
s(Vimpertinent
g13
tp469
F1
s(VSabre
g4
tp470
F2
s(VOur
S'PRP$'
p471
tp472
F1
s(Vvow
g24
tp473
F1
s(Vform
g24
tp474
F3
s(VFuneral-Pile
g13
tp475
F1
s(g34
S'CC'
p476
tp477
F2
s(V_Grecian_
g4
tp478
F2
s(g106
S'PRP$'
p479
tp480
F2
s(VOne
g31
tp481
F19
s(Vmuch
g13
tp482
F28
s(VMarket-place
g4
tp483
F1
s(VReputation
g4
tp484
F1
s(Vindulg
g55
tp485
F1
s(Vintimate
g8
tp486
F1
s(V_Barbarian_
g8
tp487
F3
s(Vlonger
g64
tp488
F3
s(g36
S'.'
tp489
F3
s(VReflections
g68
tp490
F1
s(Vpowerful
S'JJ'
p491
tp492
F3
s(Vnear
g24
tp493
F1
s(Vfollowing
g13
tp494
F4
s(VLap
g4
tp495
F1
s(g271
g38
tp496
F1
s(Vstrolling
g77
tp497
F1
s(Vreturns
g55
tp498
F1
s(Vfound
g8
tp499
F1
s(Vlay
g24
tp500
F3
s(VRequest
g8
tp501
F2
s(Vperceiv
g73
tp502
F2
s(VWindow
g4
tp503
F4
s(VLuck
g4
tp504
F1
s(Vmarried
g70
tp505
F4
s(g34
S'.'
tp506
F2
s(VHorse
g8
tp507
F3
s(Vdrew
g55
tp508
F1
s(Vrubb
g70
tp509
F1
s(VInches
g4
tp510
F2
s(Vindulge
g24
tp511
F1
s(VIf
S'IN'
p512
tp513
F6
s(Vlanguid
g13
tp514
F2
s(Vnot
g89
tp515
F105
s(Vdone
S'VBN'
p516
tp517
F15
s(Vbroken
g8
tp518
F2
s(Vpractis
g13
tp519
F1
s(Vdismounted
g84
tp520
F1
s(VMidnight
g4
tp521
F1
s(VHill
g4
tp522
F1
s(VDog
g4
tp523
F3
s(Vmagnificent
g13
tp524
F4
s(VStone
g4
tp525
F11
s(VOffer
g8
tp526
F1
s(VImportance
g4
tp527
F3
s(Vall
g24
tp528
F5
s(Vcome
g70
tp529
F2
s(VBY
g4
tp530
F1
s(VDispensations
g4
tp531
F1
s(g24
S'.'
tp532
F39
s(Vdeliver
g13
tp533
F1
s(g8
S'WRB'
p534
tp535
F3
s(Vexpressly
g64
tp536
F1
s(VGroan
g4
tp537
F1
s(V_Zadig_
S'FW'
p538
tp539
F1
s(Vout
g24
tp540
F1
s(g64
g285
tp541
F2
s(VWomen
g4
tp542
F1
s(VKnees
g4
tp543
F1
s(VEdge
g4
tp544
F1
s(VRetrospection
g8
tp545
F1
s(VIn
g19
tp546
F33
s(VParting
g4
tp547
F1
s(VManner
g8
tp548
F1
s(Vbeloved
g84
tp549
F1
s(VShe
S'PRP'
p550
tp551
F28
s(S','
g101
tp552
F42
s(Vpass
g24
tp553
F5
s(Vprocur
g8
tp554
F1
s(VReception
g8
tp555
F1
s(Vcaught
g70
tp556
F1
s(VGlances
g38
tp557
F1
s(Vcontinu
g13
tp558
F2
s(Vover-charg
g13
tp559
F1
s(Vseldom
g84
tp560
F1
s(VFolly
g4
tp561
F1
s(Vswore
g64
tp562
F1
s(VConsolation
g8
tp563
F2
s(Vaccoutred
g84
tp564
F1
s(VDialect
g4
tp565
F1
s(g31
S':'
tp566
F2
s(Vexamin
g55
tp567
F1
s(VRibbands
g4
tp568
F2
s(Vtaking
g77
tp569
F5
s(Vrepresented
g84
tp570
F1
s(VSave
g4
tp571
F1
s(Vlose
g73
tp572
F1
s(g199
g4
tp573
F2
s(Vdisappointed
g13
tp574
F1
s(Vfain
g24
tp575
F2
s(VCream-Cheeses
g4
tp576
F1
s(Vcontent
g13
tp577
F1
s(VQuestions
g4
tp578
F1
s(g73
g8
tp579
F9
s(S'MD'
p580
g81
tp581
F168
s(Vcontending
g77
tp582
F1
s(VExplications
g38
tp583
F1
s(S':'
g285
tp584
F6
s(g73
S','
tp585
F39
s(Vpick
g8
tp586
F1
s(Vdownright
g64
tp587
F1
s(g31
g263
tp588
F3
s(g136
g55
tp589
F13
s(Vbright
g13
tp590
F2
s(VEye_
g4
tp591
F1
s(Vboast
g8
tp592
F1
s(VMorning
g8
tp593
F3
s(V_Dear_
g199
tp594
F1
s(V_Arabia
g38
tp595
F1
s(Vgood
g13
tp596
F25
s(Vhyphen
g8
tp597
F1
s(VTaste
g4
tp598
F1
s(Vboast
g24
tp599
F5
s(Vsend
g24
tp600
F2
s(Vfaultring
g77
tp601
F1
s(Vpreferr
g8
tp602
F1
s(Vseriously
g64
tp603
F2
s(V_Arimazius_
g8
tp604
F2
s(Vopening
g8
tp605
F1
s(V_Cap-a-pee_
g24
tp606
F1
s(Vscarce
g8
tp607
F2
s(Vadhering
g77
tp608
F1
s(S'IN'
p609
g33
tp610
F1468
s(VShoes
g38
tp611
F3
s(Valas
g181
tp612
F2
s(g38
g24
tp613
F6
s(VProperties
g4
tp614
F1
s(V_East_
g8
tp615
F1
s(Vplease
g24
tp616
F1
s(S')'
g214
tp617
F1
s(Vlanguishing
g77
tp618
F1
s(VMagus
g4
tp619
F2
s(Vinnocent_
g8
tp620
F1
s(Vherself
S'PRP'
p621
tp622
F8
s(VFishery
g4
tp623
F1
s(VSpouse
g4
tp624
F8
s(Van
g86
tp625
F125
s(VHistorical
g13
tp626
F1
s(Vunknown
g13
tp627
F1
s(Vextremely
S'RB'
p628
tp629
F6
s(VInclinations
g38
tp630
F2
s(g324
g31
tp631
F69
s(VTOURNAMENTS
g4
tp632
F1
s(Vpoison
g24
tp633
F1
s(Vpresum
g55
tp634
F1
s(Vminutest
g34
tp635
F1
s(VAugust
S'NNP'
p636
tp637
F1
s(S','
g136
tp638
F642
s(g77
g476
tp639
F4
s(VLead
g4
tp640
F1
s(VConditions
g4
tp641
F1
s(Vimprobable
g13
tp642
F1
s(VDeserta_
g4
tp643
F1
s(Vruns
g55
tp644
F1
s(Vextended
g84
tp645
F1
s(VPalfrey
g8
tp646
F1
s(Vtheir
S'PRP$'
p647
tp648
F104
s(VInvitation
g4
tp649
F1
s(g73
g199
tp650
F4
s(Vconquer
g24
tp651
F2
s(Vselect
g13
tp652
F1
s(Vreason
S'NN'
p653
tp654
F1
s(VHighway
g4
tp655
F1
s(VFury
g8
tp656
F2
s(Vprove
g24
tp657
F9
s(g316
g64
tp658
F1
s(VChamberlain
g4
tp659
F4
s(Vbuilt
g70
tp660
F1
s(VTHE
g4
tp661
F1
s(VObserve
g4
tp662
F1
s(VMount
g4
tp663
F3
s(VRelations
g38
tp664
F1
s(Vbroad
S'JJ'
p665
tp666
F1
s(Vdoubtless
g8
tp667
F5
s(VDay-light
g13
tp668
F1
s(S'VBP'
p669
S'IN'
p670
tp671
F45
s(Vrising
g77
tp672
F3
s(VExpence
g8
tp673
F2
s(Vallow
g24
tp674
F2
s(Vdiffident
g8
tp675
F1
s(g122
S','
tp676
F35
s(Vworthy
g13
tp677
F2
s(Vhope
g24
tp678
F1
s(VBlaze
g8
tp679
F1
s(VChess
g4
tp680
F1
s(VStead
g8
tp681
F1
s(VDate
g4
tp682
F1
s(Vsoever
g8
tp683
F3
s(g70
g64
tp684
F29
s(VPersons
g38
tp685
F4
s(Vfrequent
g13
tp686
F1
s(Vpursuit
g8
tp687
F1
s(g315
g669
tp688
F4
s(VPrivy-Council
g4
tp689
F1
s(Vlost
g84
tp690
F1
s(S'JJ'
p691
S'.'
tp692
F53
s(VRising
g4
tp693
F1
s(Vmajestic
g24
tp694
F1
s(V_Orosmades_
g4
tp695
F1
s(VAccounts
g38
tp696
F2
s(Vinsisted
g13
tp697
F1
s(VFare
g4
tp698
F1
s(VCoquet
g4
tp699
F4
s(Vperceive
g24
tp700
F1
s(Vever
S'RB'
p701
tp702
F36
s(Vinhuman
g13
tp703
F3
s(VJEALOUSY
g4
tp704
F1
s(VExcellence
g8
tp705
F4
s(Voverwhelm
g8
tp706
F2
s(VRemissness
g4
tp707
F1
s(VInterruptions
g38
tp708
F1
s(Vesteem
g13
tp709
F1
s(VFlutter
g4
tp710
F1
s(VPurse
g8
tp711
F1
s(Vgot
g84
tp712
F10
s(Vunequal
g13
tp713
F1
s(Vintrepid
g8
tp714
F1
s(Vour
S'PRP$'
p715
tp716
F18
s(Vscruple
g24
tp717
F1
s(Vrequir
g8
tp718
F1
s(g24
S'PRP'
p719
tp720
F185
s(VExclamations
g38
tp721
F3
s(VRiver-side
g4
tp722
F3
s(VAdventure
g8
tp723
F2
s(VDebauchee
g4
tp724
F1
s(VAshes
g24
tp725
F1
s(VCot
g4
tp726
F1
s(V'd
g38
tp727
F14
s(g476
S'IN'
p728
tp729
F160
s(Vprevailing
g77
tp730
F1
s(S'CD'
p731
g68
tp732
F12
s(VFits
g38
tp733
F1
s(Vimminent
g13
tp734
F1
s(VProportion
g4
tp735
F1
s(VKing
g8
tp736
F1
s(Vcover
g8
tp737
F1
s(VVillains
g38
tp738
F1
s(VTittle
g4
tp739
F1
s(Vpurest
g34
tp740
F1
s(VDoubtless
g4
tp741
F1
s(Vrevere
g73
tp742
F1
s(g84
g70
tp743
F183
s(VBorders
g38
tp744
F1
s(g77
S':'
tp745
F5
s(Vrul
g13
tp746
F1
s(Vrenounce
g24
tp747
F1
s(VArticles
g4
tp748
F1
s(VTouch-stone
g31
tp749
F1
s(VTrees
g38
tp750
F2
s(Vassur
g55
tp751
F1
s(VFortune
g8
tp752
F1
s(Vsuddenly
g64
tp753
F1
s(VImprovement
g4
tp754
F1
s(VSeats
g38
tp755
F1
s(VGroans
g68
tp756
F1
s(VTribunals
g38
tp757
F1
s(Vfollow
g24
tp758
F2
s(Vtallied
g84
tp759
F1
s(Vwrinkled
g84
tp760
F1
s(VApplause
g4
tp761
F1
s(VPomp
g4
tp762
F2
s(S'PRP'
p763
g73
tp764
F314
s(Vcondemn
g8
tp765
F1
s(VBlow
g8
tp766
F1
s(Vdistributed
g70
tp767
F1
s(VCrime
g4
tp768
F1
s(VGrandee
g4
tp769
F3
s(Vsecur
g13
tp770
F3
s(VJudgment
g4
tp771
F1
s(VPreliminary
g4
tp772
F1
s(VThat
g86
tp773
F9
s(Vknow
g24
tp774
F11
s(Vassembled
g70
tp775
F1
s(Vcommodious
g13
tp776
F2
s(VLeft
g4
tp777
F3
s(Vsailing
g77
tp778
F1
s(VBlessings
g38
tp779
F2
s(VAdministration
g4
tp780
F1
s(Vimagine
g24
tp781
F3
s(VFlood
g4
tp782
F2
s(VBit
g4
tp783
F2
s(Vshe
S'PRP'
p784
tp785
F115
s(VWinds
g38
tp786
F1
s(VInches
g38
tp787
F1
s(VArtist
g8
tp788
F1
s(VSighs
g4
tp789
F1
s(Vshuns
g55
tp790
F1
s(Vappear
g13
tp791
F2
s(VRuffians
g68
tp792
F1
s(VLad
g4
tp793
F4
s(Vdull
g13
tp794
F1
s(Vtraverse
g24
tp795
F2
s(Vcapable
g13
tp796
F1
s(V.
S'.'
tp797
F1124
s(Vartful
g13
tp798
F4
s(Vlively
g64
tp799
F3
s(Vpronounc
g13
tp800
F1
s(VStep
g8
tp801
F3
s(g107
S'.'
tp802
F1
s(VQualities
g38
tp803
F4
s(VArms
g4
tp804
F4
s(Vcondescended
g70
tp805
F1
s(VMinute
g8
tp806
F1
s(g316
g13
tp807
F17
s(Vwhose
g214
tp808
F17
s(Vamazing
g13
tp809
F2
s(S','
g70
tp810
F15
s(V_Goddess_
g13
tp811
F1
s(Vrepos
g8
tp812
F2
s(Vaugment
g24
tp813
F1
s(Vliv
g73
tp814
F1
s(Vretir
g55
tp815
F1
s(V--
S':'
tp816
F11
s(VRespects
g4
tp817
F1
s(Vforbid
g55
tp818
F1
s(Vwhilst
g73
tp819
F2
s(Vsobbing
g77
tp820
F1
s(Vintended
g70
tp821
F7
s(Vregulate
g73
tp822
F1
s(VJoy
g4
tp823
F5
s(Vwhatever
g79
tp824
F5
s(Vabolish
g13
tp825
F1
s(Vreceive
g24
tp826
F1
s(VBason
g4
tp827
F2
s(VIncense
g8
tp828
F1
s(Vhearty
g13
tp829
F1
s(VOut-parts
g38
tp830
F1
s(VReproof
g4
tp831
F1
s(g24
g199
tp832
F2
s(VProjects
g68
tp833
F1
s(Vapplying
g77
tp834
F1
s(Vye
g8
tp835
F2
s(V_Astarte_
g130
tp836
F1
s(VVeracity
g4
tp837
F1
s(VTouch
g4
tp838
F1
s(Vdoubt
g73
tp839
F1
s(Vvalued
g70
tp840
F1
s(VVoice
g8
tp841
F1
s(Vbeggarly
g13
tp842
F1
s(Vovertaken
g24
tp843
F1
s(V'd
g316
tp844
F20
s(Vargue
g24
tp845
F1
s(Vkindled
g84
tp846
F1
s(Vto
g263
tp847
F909
s(Vthereupon
g8
tp848
F2
s(Vheard
g73
tp849
F1
s(Vconfer
g24
tp850
F1
s(g59
S','
tp851
F7
s(VFemale
g13
tp852
F1
s(VPleasure
g8
tp853
F6
s(Vdown
g24
tp854
F2
s(VBands
g4
tp855
F1
s(VLearned
g70
tp856
F1
s(VInclination
g4
tp857
F1
s(Vruin
g24
tp858
F1
s(Vcall
g13
tp859
F7
s(Vmarch
g73
tp860
F1
s(S':'
g315
tp861
F1
s(Vconfus
g13
tp862
F2
s(VQuestions
g38
tp863
F3
s(VFraternity
g4
tp864
F1
s(VSubject
g4
tp865
F2
s(Vcontinually
g64
tp866
F1
s(V''
g199
tp867
F3
s(Vfancied
g84
tp868
F1
s(Vunfortunate
g13
tp869
F4
s(Vconfin
g13
tp870
F2
s(Vbecause
g19
tp871
F10
s(Vharangu
g13
tp872
F1
s(VHour
g4
tp873
F12
s(Vlarge
S'JJ'
p874
tp875
F7
s(Vstarted
g84
tp876
F3
s(VCharge
g4
tp877
F1
s(S':'
g70
tp878
F1
s(VFoundations
g38
tp879
F1
s(Vdar
g55
tp880
F1
s(VAtonement
g8
tp881
F1
s(Vdifferent
S'JJ'
p882
tp883
F3
s(Vconjure
g24
tp884
F1
s(Vdrove
g64
tp885
F1
s(Vwanting
g77
tp886
F2
s(VDays
g68
tp887
F5
s(Vexpire
g24
tp888
F1
s(Vpermitted
g70
tp889
F4
s(Voverwhelm
g84
tp890
F1
s(VPosterity
g4
tp891
F1
s(VNor
g130
tp892
F1
s(Vsole
g13
tp893
F5
s(VFoes._
g4
tp894
F2
s(VRange
g8
tp895
F1
s(Vobey
g24
tp896
F1
s(VMen
g8
tp897
F2
s(VRoad
g8
tp898
F1
s(Vfinest
g34
tp899
F2
s(Vbusy
g13
tp900
F2
s(Vworship
g73
tp901
F1
s(Vforward
g8
tp902
F1
s(VTrade
S'NNP'
p903
tp904
F1
s(V'd
g70
tp905
F5
s(VMurmur
g4
tp906
F1
s(VRedress
g4
tp907
F2
s(Vstood
g8
tp908
F1
s(V_Almona_
g70
tp909
F1
s(Vconceiv
g70
tp910
F2
s(V_G_
g8
tp911
F1
s(VFool
g4
tp912
F1
s(VDeclaration
g8
tp913
F4
s(g59
g4
tp914
F12
s(Vbloody
g13
tp915
F1
s(Vconsisted
g84
tp916
F2
s(Vregarded
g84
tp917
F1
s(g107
g8
tp918
F9
s(VThou
g4
tp919
F6
s(Vsmattering
g8
tp920
F1
s(Vwho
g106
tp921
F116
s(VRepute
g4
tp922
F2
s(g271
g136
tp923
F1
s(Vescape
g24
tp924
F1
s(VWood's-Side
g4
tp925
F1
s(Vspent
g84
tp926
F5
s(VExercise
g4
tp927
F1
s(Vlock
g8
tp928
F2
s(Vundeserving
g13
tp929
F1
s(Vunderstand
g73
tp930
F1
s(VHouse
S'NNP'
p931
tp932
F18
s(VThis
S'DT'
p933
tp934
F22
s(Vmeeting
g77
tp935
F1
s(VSubmission
g8
tp936
F1
s(VApothecaries
g68
tp937
F1
s(Vdeep
g8
tp938
F1
s(VMore
g59
tp939
F1
s(Vwilt
g84
tp940
F1
s(V_SADI_
g4
tp941
F1
s(VHelmet
g4
tp942
F2
s(VChamberlains
g38
tp943
F1
s(VExploits
g38
tp944
F1
s(g728
g38
tp945
F44
s(V_The
g64
tp946
F1
s(Vstated
g13
tp947
F1
s(g122
g4
tp948
F14
s(VOx
g4
tp949
F6
s(Vsold
g84
tp950
F4
s(VMiser
g4
tp951
F3
s(Venormous
S'JJ'
p952
tp953
F1
s(Vbade
g73
tp954
F1
s(Vprescrib
g8
tp955
F1
s(Vhissing
g77
tp956
F1
s(VForeknowledge
g4
tp957
F1
s(Vsolitary
g13
tp958
F4
s(Vindeed.
g8
tp959
F1
s(g122
g199
tp960
F1
s(g4
g55
tp961
F47
s(Vwater
S'NN'
p962
tp963
F2
s(Vpreside
g73
tp964
F2
s(Vagain
S'RB'
p965
tp966
F16
s(VFisherman_
g4
tp967
F1
s(VPoison
g8
tp968
F1
s(Vrichest
g8
tp969
F1
s(Vdrank
g13
tp970
F1
s(VGlass-Bottles
g4
tp971
F1
s(VOccasion
g8
tp972
F7
s(Vcreated
g70
tp973
F5
s(Vmeagre
g8
tp974
F1
s(Vliving
g8
tp975
F1
s(VTour
g4
tp976
F1
s(Vbear
g24
tp977
F2
s(g79
S','
tp978
F10
s(VHis
S'PRP$'
p979
tp980
F18
s(Vpublish
g13
tp981
F1
s(Vsatisfied
g70
tp982
F1
s(Vhover
g64
tp983
F1
s(Vdesirous
g13
tp984
F1
s(Vordinary
g13
tp985
F2
s(V_LONDON_
g8
tp986
F1
s(VSpot
g4
tp987
F1
s(Vrosy-colour
g13
tp988
F1
s(Virretrievable
g13
tp989
F1
s(Vpassing
g8
tp990
F1
s(Vvenerable
g13
tp991
F8
s(Vpolite
g38
tp992
F1
s(VHusband
g4
tp993
F17
s(VTurns
g4
tp994
F1
s(VStockings
g4
tp995
F1
s(Vduely
g64
tp996
F3
s(V'd
g4
tp997
F20
s(VDecrees
g38
tp998
F1
s(Vexcellent
g13
tp999
F1
s(VThrash'd_
g4
tp1000
F1
s(Vaccompanied
g70
tp1001
F1
s(Vrelish
g24
tp1002
F1
s(g8
S'PRP'
p1003
tp1004
F47
s(Vover-officious
g13
tp1005
F1
s(Vsprightlier
g59
tp1006
F1
s(Vcut
g70
tp1007
F3
s(VVery
g64
tp1008
F1
s(V_Egyptians_
g73
tp1009
F2
s(Vbravely
g64
tp1010
F2
s(Vdeepest
g34
tp1011
F1
s(Vmust
S'MD'
p1012
tp1013
F31
s(VAmbition
g4
tp1014
F1
s(g1003
g136
tp1015
F11
s(Vplung
g55
tp1016
F1
s(Vchoicest
g13
tp1017
F1
s(VAssertion
g4
tp1018
F1
s(Vdiscover
g64
tp1019
F1
s(Vinstruct
g24
tp1020
F1
s(V_Ogul_
g8
tp1021
F5
s(VVicissitudes
g4
tp1022
F1
s(Varose
g64
tp1023
F2
s(VIngratitude
g4
tp1024
F1
s(Vbrisker
g8
tp1025
F1
s(Vdrown
g13
tp1026
F3
s(Vprobable
g13
tp1027
F5
s(Vtamely
g64
tp1028
F1
s(V_Memphis_
g4
tp1029
F1
s(VMarket
g8
tp1030
F1
s(VOath
g4
tp1031
F4
s(Vforthwith
g64
tp1032
F1
s(VNative
g13
tp1033
F1
s(Vspotless
g13
tp1034
F1
s(VDrops
g4
tp1035
F1
s(Vlikewise
g8
tp1036
F3
s(S':'
g13
tp1037
F9
s(Vdelighted
g70
tp1038
F1
s(Vbecame
S'VBD'
p1039
tp1040
F6
s(Vcontradicted
g84
tp1041
F1
s(Vcarry
g24
tp1042
F4
s(Vvaluable
g13
tp1043
F10
s(VLegacy
g4
tp1044
F3
s(Vpoetic
g13
tp1045
F1
s(VInstances
g38
tp1046
F1
s(Vaugust
g8
tp1047
F4
s(VBrains
g38
tp1048
F1
s(VBlessings
g4
tp1049
F1
s(Vaffected
g84
tp1050
F3
s(Vlanguishingly
g64
tp1051
F1
s(g136
g106
tp1052
F6
s(Vhad
g70
tp1053
F2
s(Vburnt
g13
tp1054
F3
s(S'('
g19
tp1055
F6
s(Vpreside
g24
tp1056
F1
s(VDomestic
g4
tp1057
F2
s(VOblivion
g4
tp1058
F1
s(S'('
g84
tp1059
F1
s(Vproclaim
g70
tp1060
F1
s(Vthink
g73
tp1061
F4
s(g24
g4
tp1062
F28
s(Vsigned
g70
tp1063
F1
s(Vcontinu
g8
tp1064
F2
s(Vinsomuch
g13
tp1065
F1
s(VErrors
g38
tp1066
F1
s(VAll
g86
tp1067
F6
s(VDistress
g4
tp1068
F4
s(Vadjusting
g77
tp1069
F1
s(VProvocation
g8
tp1070
F1
s(Vplease
g73
tp1071
F1
s(Vallowing
S'VBG'
p1072
tp1073
F1
s(Venvious
g13
tp1074
F4
s(Vsteer
g73
tp1075
F2
s(g4
g1003
tp1076
F76
s(V_and
g4
tp1077
F1
s(Vsign
g24
tp1078
F2
s(Vhold
g8
tp1079
F5
s(VCommodities
g38
tp1080
F2
s(VTraffick
g4
tp1081
F1
s(VVirtue
g4
tp1082
F10
s(Vmotionless
g8
tp1083
F2
s(V_Balzora_
g8
tp1084
F1
s(VPrinted
g70
tp1085
F1
s(VSir
S'NNP'
p1086
tp1087
F61
s(Vinfected
g70
tp1088
F1
s(Vacquir
g8
tp1089
F1
s(Vbetween
S'IN'
p1090
tp1091
F14
s(Vrenew
g84
tp1092
F1
s(VVictim
g4
tp1093
F2
s(Vtorn
g70
tp1094
F1
s(Vdeaf
g24
tp1095
F1
s(Vsmother
g59
tp1096
F1
s(S':'
S'CD'
p1097
tp1098
F6
s(VDegrees
g4
tp1099
F2
s(Vamongst
g8
tp1100
F1
s(Vparticularly
S'RB'
p1101
tp1102
F2
s(Vcried
g70
tp1103
F1
s(VWits
g38
tp1104
F1
s(VPiece
g4
tp1105
F4
s(VWorlds
g4
tp1106
F1
s(Vrichly
g8
tp1107
F1
s(Vsee
g24
tp1108
F10
s(VFestival
g4
tp1109
F3
s(V_Satrap_
g4
tp1110
F1
s(Vthan
S'IN'
p1111
tp1112
F82
s(Vdetermin
g84
tp1113
F1
s(V_Egypt_
g8
tp1114
F3
s(g383
g36
tp1115
F3
s(V_Oannes_
g4
tp1116
F2
s(Vabated
g13
tp1117
F1
s(Vexist
g24
tp1118
F1
s(Vwaiting
g77
tp1119
F3
s(g670
S'``'
p1120
tp1121
F1
s(Vrepeated
g84
tp1122
F3
s(VSopha
g4
tp1123
F1
s(Vunconnected
g13
tp1124
F1
s(Vvarios
g38
tp1125
F1
s(VExperience
g4
tp1126
F3
s(VComfort
g4
tp1127
F1
s(VWhite
S'NNP'
p1128
tp1129
F3
s(Vhope
g73
tp1130
F4
s(g19
g538
tp1131
F3
s(Vquiet
g13
tp1132
F3
s(VProtection
g4
tp1133
F2
s(Vprocur
g70
tp1134
F1
s(VInterrogatories
g38
tp1135
F1
s(Vmine
g8
tp1136
F2
s(VOfficers
g38
tp1137
F4
s(Vcomply
g8
tp1138
F1
s(Vleave
g8
tp1139
F2
s(S'VBN'
p1140
S'VB'
p1141
tp1142
F1
s(Vwarm
g13
tp1143
F4
s(VMarks
g38
tp1144
F2
s(VProvidence
g8
tp1145
F1
s(VTranquility
g4
tp1146
F2
s(Vperfectly
g64
tp1147
F19
s(Vgrand
S'JJ'
p1148
tp1149
F9
s(g79
S'MD'
p1150
tp1151
F15
s(Vcontesting
g77
tp1152
F1
s(VRight
g4
tp1153
F5
s(VWork
g8
tp1154
F2
s(VCordials
g4
tp1155
F1
s(Vrichest
g34
tp1156
F2
s(VChampion
g4
tp1157
F1
s(V_of_
g4
tp1158
F1
s(Vhighest
S'JJS'
p1159
tp1160
F2
s(V_The_
g8
tp1161
F2
s(Vwhence
g8
tp1162
F2
s(V_Siberia_
g4
tp1163
F1
s(g73
g70
tp1164
F58
s(Vendearing
g77
tp1165
F2
s(Vraise
g24
tp1166
F4
s(Vcome
g73
tp1167
F3
s(VSum
g4
tp1168
F6
s(VFoible
g13
tp1169
F1
s(Vresistless
g13
tp1170
F1
s(Vdare
g24
tp1171
F1
s(Vdurst
g55
tp1172
F2
s(VFlux
g4
tp1173
F1
s(VMetre
g4
tp1174
F1
s(Vindulgent
g13
tp1175
F2
s(Vimagin
g24
tp1176
F2
s(V_Horeb_
g4
tp1177
F3
s(Vat
g81
tp1178
F170
s(Vtasted
g70
tp1179
F1
s(Vdown
g19
tp1180
F1
s(Vpreserve
g8
tp1181
F1
s(VOrifice
g4
tp1182
F1
s(VGarment
g4
tp1183
F1
s(Venlightned
g84
tp1184
F1
s(Vten
g55
tp1185
F1
s(VHead-dress
g8
tp1186
F1
s(Vstrange
g13
tp1187
F1
s(VRacket
g8
tp1188
F1
s(Vlucky
g24
tp1189
F1
s(VRepast
g8
tp1190
F1
s(S'DT'
p1191
g54
tp1192
F58
s(VPerformance
g8
tp1193
F1
s(Vlonger
g59
tp1194
F1
s(Vdelineating
g77
tp1195
F1
s(Vrose
S'VBD'
p1196
tp1197
F1
s(VCandidates
g4
tp1198
F1
s(VSides
g4
tp1199
F2
s(Vinstantly
g64
tp1200
F6
s(V_Euphrates_
g4
tp1201
F2
s(Vdarling
g77
tp1202
F2
s(VRose-water
g4
tp1203
F1
s(VAxis
g4
tp1204
F1
s(VSubmit
g4
tp1205
F1
s(Vancient
g13
tp1206
F1
s(Vpretty
g13
tp1207
F3
s(VMinutes
g38
tp1208
F2
s(VInhabitant
g4
tp1209
F1
s(Vfirmly
g64
tp1210
F1
s(VSluggard
g8
tp1211
F1
s(Vbecome
g24
tp1212
F4
s(Vreported
g70
tp1213
F1
s(Vinvaluable
g13
tp1214
F1
s(Vgreen
g13
tp1215
F6
s(Vdirectly
S'RB'
p1216
tp1217
F6
s(VNations
g4
tp1218
F2
s(Vmerriest
g34
tp1219
F1
s(Vaway
g24
tp1220
F1
s(VDEDICATION
g4
tp1221
F1
s(g70
g122
tp1222
F54
s(Vreasonable
g13
tp1223
F1
s(Vfully
S'RB'
p1224
tp1225
F3
s(VPermission
g8
tp1226
F1
s(Vtorn
g13
tp1227
F1
s(Varriving
g77
tp1228
F1
s(g84
g13
tp1229
F155
s(VLodges
g38
tp1230
F1
s(g324
g4
tp1231
F636
s(Vconvey
g13
tp1232
F2
s(Vthousand
g8
tp1233
F6
s(VComprehension
g4
tp1234
F1
s(Vsoften
g70
tp1235
F1
s(VFly
g4
tp1236
F1
s(Verrand
g8
tp1237
F1
s(g263
g24
tp1238
F556
s(VAtchievements
g38
tp1239
F3
s(g316
g1003
tp1240
F6
s(VYouth
g8
tp1241
F6
s(VEating
g8
tp1242
F1
s(Vobserv
g122
tp1243
F1
s(VGoods
g38
tp1244
F1
s(Vany
S'DT'
p1245
tp1246
F52
s(Vslain
g70
tp1247
F1
s(Vcommercial
g13
tp1248
F1
s(VPreservation
g8
tp1249
F1
s(Vabout
g19
tp1250
F30
s(Vhorrid
g55
tp1251
F1
s(Vthereupon
g24
tp1252
F1
s(Vcircumstantiated
g70
tp1253
F1
s(V_Jew_
g8
tp1254
F6
s(VGallants
g4
tp1255
F1
s(VWormwood
g4
tp1256
F1
s(VWitnesses
g38
tp1257
F2
s(S':'
g38
tp1258
F3
s(VPuppies
g38
tp1259
F1
s(VCourt-Lady
g13
tp1260
F1
s(VTerms
S'NNS'
p1261
tp1262
F11
s(VHead
g4
tp1263
F18
s(V_The
g8
tp1264
F5
s(Vdevoted
g70
tp1265
F3
s(Vdisengag
g13
tp1266
F1
s(Vunexpectedly
g64
tp1267
F3
s(Vlaid
g8
tp1268
F1
s(Vcomfortless
g8
tp1269
F1
s(VSovereign
g4
tp1270
F6
s(VMansion
g4
tp1271
F2
s(Vpreferr
g70
tp1272
F1
s(VXVI
g8
tp1273
F2
s(Vdisplay
g84
tp1274
F1
s(Vgoing
S'VBG'
p1275
tp1276
F4
s(VField
g4
tp1277
F2
s(VNOSE
g4
tp1278
F1
s(VAlmanacks
g4
tp1279
F1
s(VStars
g4
tp1280
F13
s(Vplain
g64
tp1281
F2
s(VScarlet
g4
tp1282
F1
s(Vwaking
g77
tp1283
F1
s(Vobserve
g24
tp1284
F2
s(VRansom
g4
tp1285
F1
s(VAway
g64
tp1286
F1
s(VFootsteps
g4
tp1287
F2
s(Vfollow
g70
tp1288
F1
s(Vseem
g73
tp1289
F16
s(Vwalking
g77
tp1290
F4
s(VRespect
g4
tp1291
F3
s(Vfail
g24
tp1292
F1
s(Vreadiness
g8
tp1293
F1
s(Vwords
S'NNS'
p1294
tp1295
F1
s(Vill
g13
tp1296
F2
s(VReveries
g38
tp1297
F1
s(Vdischarges
g55
tp1298
F1
s(V_Hyrcanian_
g8
tp1299
F1
s(Vor
g476
tp1300
F75
s(Verecting
g77
tp1301
F1
s(VTempest
g4
tp1302
F1
s(Vstrangled
g84
tp1303
F2
s(VLeagues
g38
tp1304
F2
s(VRival
g4
tp1305
F6
s(V_Babylon_
g4
tp1306
F31
s(Vgovern
g13
tp1307
F1
s(Vlong
g13
tp1308
F16
s(Vboiling
g8
tp1309
F1
s(VTrain
g8
tp1310
F1
s(g84
g68
tp1311
F1
s(g84
S','
tp1312
F76
s(Vcommanded
g84
tp1313
F1
s(VPassage
g8
tp1314
F2
s(Vfinish
g8
tp1315
F1
s(VPains
g38
tp1316
F2
s(Vfix
g13
tp1317
F1
s(VPatient
g8
tp1318
F1
s(Vhers
g38
tp1319
F2
s(VCredit
g4
tp1320
F2
s(VAssembly
g64
tp1321
F1
s(VCarpets
g38
tp1322
F1
s(VSure
g13
tp1323
F1
s(VExpences
g38
tp1324
F1
s(VCanopy
g4
tp1325
F1
s(VFoundation
g4
tp1326
F1
s(g13
g79
tp1327
F3
s(VName
g4
tp1328
F7
s(VNecessaries
g4
tp1329
F1
s(Vheadlong
g64
tp1330
F1
s(VPlains
g4
tp1331
F1
s(Vgenerous
g13
tp1332
F6
s(Vneat
g8
tp1333
F1
s(Vshabby
g13
tp1334
F1
s(VImportance
g8
tp1335
F2
s(Vbestow
g24
tp1336
F1
s(V_Scheval_
g4
tp1337
F1
s(V_Venus_
g4
tp1338
F2
s(Vwithin
S'IN'
p1339
tp1340
F4
s(g4
S'JJ'
p1341
tp1342
F27
s(Ventreated
g84
tp1343
F1
s(V_Quo
g13
tp1344
F1
s(g271
g4
tp1345
F1
s(VNothingness
g4
tp1346
F1
s(Vabus
g70
tp1347
F1
s(Vsubstituted
g84
tp1348
F1
s(VYears
g38
tp1349
F9
s(VCube
g4
tp1350
F1
s(Vflock
g8
tp1351
F1
s(VSlaves
g4
tp1352
F3
s(V_Cambalu_
g4
tp1353
F1
s(Vparting
g8
tp1354
F1
s(Vbehind
g19
tp1355
F3
s(g24
g38
tp1356
F1
s(VX
g8
tp1357
F2
s(VThighs
g4
tp1358
F1
s(V_Astarte_
g8
tp1359
F17
s(Vpale
g8
tp1360
F1
s(VWit
g4
tp1361
F5
s(Vseen
S'VBN'
p1362
tp1363
F6
s(VBurden
g4
tp1364
F1
s(VBigots
g4
tp1365
F1
s(Vindulging
g77
tp1366
F1
s(VAnguish
g8
tp1367
F1
s(Vshudder
g8
tp1368
F1
s(g316
g670
tp1369
F3
s(VSons
g38
tp1370
F1
s(Vart
g8
tp1371
F4
s(Vpoint-blank
g8
tp1372
F1
s(VGoodness
g4
tp1373
F2
s(Vintroduc
g13
tp1374
F2
s(VCenturies
g68
tp1375
F1
s(Vorder
S'NN'
p1376
tp1377
F29
s(Vowes
g55
tp1378
F2
s(Vvarious
S'JJ'
p1379
tp1380
F3
s(Vmalignant
g13
tp1381
F3
s(g68
g19
tp1382
F16
s(VMark
g8
tp1383
F1
s(VOutcries
g68
tp1384
F1
s(VOrders
g68
tp1385
F1
s(VHorizon
g4
tp1386
F2
s(g122
g79
tp1387
F3
s(VJuncture
g8
tp1388
F2
s(Vphilosophical
g13
tp1389
F2
s(V,
S','
tp1390
F3251
s(S'JJ'
p1391
g70
tp1392
F10
s(Vpersonal
S'JJ'
p1393
tp1394
F4
s(Vknock
g8
tp1395
F1
s(VBleeding
g4
tp1396
F1
s(VKnees
g38
tp1397
F1
s(VFree-booter
g8
tp1398
F1
s(VOperation
g8
tp1399
F2
s(VCharacters
g4
tp1400
F1
s(Vboil
g8
tp1401
F3
s(VObject
g4
tp1402
F4
s(VCombat
g4
tp1403
F1
s(Vwrapping
g77
tp1404
F1
s(Vsupply
g24
tp1405
F1
s(Vfast
g64
tp1406
F5
s(VPearls
g8
tp1407
F1
s(Vload
g24
tp1408
F1
s(Vpontifical
g13
tp1409
F1
s(S'RB'
p1410
g263
tp1411
F47
s(VOstentation
g4
tp1412
F3
s(Vstrangle
g24
tp1413
F2
s(Vrise
g73
tp1414
F1
s(Vtripp
g8
tp1415
F1
s(Vwave
g24
tp1416
F1
s(Vuplift
g13
tp1417
F1
s(VAssertion
g8
tp1418
F1
s(VBy
S'IN'
p1419
tp1420
F3
s(S':'
g77
tp1421
F4
s(Voff
g24
tp1422
F2
s(VMeasure
g8
tp1423
F6
s(Vcalculating
g77
tp1424
F1
s(Vthen
S'RB'
p1425
tp1426
F37
s(VViolence
g4
tp1427
F2
s(Vsad
g13
tp1428
F1
s(Vuneasy
g13
tp1429
F3
s(Vread
g84
tp1430
F1
s(VTable
g24
tp1431
F1
s(Vpop
g24
tp1432
F1
s(VCure
g4
tp1433
F1
s(Vgrasp
g73
tp1434
F1
s(VHumourist
g4
tp1435
F1
s(VMarks
g4
tp1436
F2
s(VMilitary
g4
tp1437
F1
s(VPower
g4
tp1438
F3
s(Vglowing
g77
tp1439
F1
s(Vpleas
g55
tp1440
F1
s(Vrichly
g64
tp1441
F1
s(Vwhich
g79
tp1442
F117
s(Vdesired
g84
tp1443
F1
s(VOwner
g8
tp1444
F1
s(Vsnowy
g8
tp1445
F1
s(Vinclos
g70
tp1446
F1
s(Vprohibited
g84
tp1447
F2
s(Vdearest
g34
tp1448
F4
s(VDeputy
g4
tp1449
F1
s(V_Cosrou_
g4
tp1450
F2
s(VImpatience
g4
tp1451
F4
s(VProfession
g8
tp1452
F3
s(VStrangers
g38
tp1453
F3
s(g4
S'RB'
p1454
tp1455
F85
s(VVIII
g4
tp1456
F2
s(VFriend
g4
tp1457
F13
s(Vappropriated
g84
tp1458
F2
s(g130
g199
tp1459
F1
s(VGlobe
g4
tp1460
F1
s(VTho
g4
tp1461
F8
s(Vregard
g24
tp1462
F2
s(g4
g199
tp1463
F1
s(Vhis
g479
tp1464
F574
s(VCloth
g4
tp1465
F1
s(V_Apis_
g8
tp1466
F2
s(g285
g19
tp1467
F1
s(Vinsensibly
g64
tp1468
F1
s(S'DT'
p1469
g534
tp1470
F1
s(V_I_
g8
tp1471
F1
s(VPreference
g8
tp1472
F1
s(S'.'
g199
tp1473
F1
s(Vhandsomer
g59
tp1474
F3
s(VLimbs
g4
tp1475
F1
s(Vtesty
g13
tp1476
F1
s(g234
g70
tp1477
F20
s(V_Irax's_
g4
tp1478
F1
s(VPrice
g4
tp1479
F2
s(Vworst
g34
tp1480
F6
s(g136
g24
tp1481
F74
s(VAdvantage
g8
tp1482
F4
s(g670
g13
tp1483
F222
s(Vwhat
g106
tp1484
F49
s(Vprolong
g13
tp1485
F1
s(g4
g24
tp1486
F11
s(Vdisconsolate
g13
tp1487
F1
s(V_Jew_
g4
tp1488
F2
s(VFrailty
g4
tp1489
F1
s(VWell
g181
tp1490
F1
s(VPupils
g4
tp1491
F1
s(VSafety
g4
tp1492
F1
s(Vgreater
S'JJR'
p1493
tp1494
F12
s(Vsound
g84
tp1495
F1
s(VCircus
g4
tp1496
F3
s(VSpectators
g68
tp1497
F2
s(g8
g64
tp1498
F27
s(VHost
g4
tp1499
F5
s(Vmade
g84
tp1500
F37
s(Vseldom
g64
tp1501
F3
s(VLoss
g4
tp1502
F4
s(VTorment
g4
tp1503
F1
s(g670
g130
tp1504
F3
s(Vnever
S'RB'
p1505
tp1506
F45
s(V_Balzora_
g4
tp1507
F2
s(VArt
g4
tp1508
F7
s(VMoney
g8
tp1509
F3
s(VAntagonist
g8
tp1510
F2
s(VProof
g8
tp1511
F2
s(Vsecond
g8
tp1512
F1
s(Vremarkable
g13
tp1513
F2
s(Vconceal
g13
tp1514
F3
s(VHighness
g4
tp1515
F2
s(VPresence
g4
tp1516
F5
s(VConfusion
g4
tp1517
F5
s(Vdeaf
g13
tp1518
F2
s(g79
g315
tp1519
F3
s(Vdeplorable
g13
tp1520
F1
s(VWoman
g4
tp1521
F3
s(VComedies
g68
tp1522
F1
s(Vthe_
g8
tp1523
F1
s(VAccuser
g4
tp1524
F2
s(S'PRP'
p1525
S'PRP'
p1526
tp1527
F4
s(VWork
g4
tp1528
F1
s(V_Tchimavar_
g4
tp1529
F1
s(Vleft
g13
tp1530
F1
s(Vexpects
S'VBZ'
p1531
tp1532
F1
s(VContents
g38
tp1533
F3
s(g38
S'.'
tp1534
F64
s(Vreflected
g84
tp1535
F5
s(VHeart
g4
tp1536
F21
s(Vtill
g55
tp1537
F1
s(VAccoutrements
g38
tp1538
F2
s(S':'
S'PRP'
p1539
tp1540
F96
s(V_this
g4
tp1541
F1
s(VGoods
g4
tp1542
F1
s(VExpedition
g4
tp1543
F1
s(VRepulse
g4
tp1544
F1
s(Vconversible
g13
tp1545
F1
s(g38
g1120
tp1546
F1
s(S'CD'
p1547
g31
tp1548
F2
s(VArrows
g4
tp1549
F1
s(V_Zadig_
g38
tp1550
F7
s(VMetaphysics
g68
tp1551
F1
s(VGallants
g38
tp1552
F1
s(Vbled
g84
tp1553
F1
s(Vwondrous
g13
tp1554
F1
s(g84
g8
tp1555
F93
s(Vold
S'JJ'
p1556
tp1557
F16
s(VSteel
g4
tp1558
F1
s(S':'
g4
tp1559
F15
s(VStature
g8
tp1560
F2
s(VCountry-men
g38
tp1561
F1
s(Vsaluted
g84
tp1562
F1
s(VJudges
g4
tp1563
F7
s(VSteward
g4
tp1564
F3
s(g107
g86
tp1565
F60
s(Vwanted
g84
tp1566
F1
s(VBowl
g4
tp1567
F1
s(Vdeceas
g38
tp1568
F1
s(Vheavy
g13
tp1569
F1
s(Vurg
g13
tp1570
F1
s(VTo-morrow
g4
tp1571
F2
s(Vup
g271
tp1572
F29
s(VMagi
g4
tp1573
F5
s(Vserene
g13
tp1574
F1
s(Vthro
g8
tp1575
F8
s(VAlmanacks
g38
tp1576
F1
s(Vpuffs
g38
tp1577
F1
s(VPray
g8
tp1578
F1
s(VTart
g4
tp1579
F1
s(Vrun
g73
tp1580
F1
s(VSage
g4
tp1581
F1
s(Vrode
g73
tp1582
F1
s(VAEnigma
g4
tp1583
F2
s(VDiamond
g4
tp1584
F3
s(VPlot
g8
tp1585
F1
s(Voccurs
g55
tp1586
F1
s(Vclandestinely
g64
tp1587
F3
s(VVolumes
g4
tp1588
F1
s(Vdare
g8
tp1589
F1
s(VPile_
g4
tp1590
F1
s(Vpurchas
g55
tp1591
F1
s(Vignominious
g13
tp1592
F1
s(Vdiscern
g73
tp1593
F1
s(Vneither
g130
tp1594
F3
s(Vcure
g24
tp1595
F3
s(Vborn
g70
tp1596
F1
s(VVillains
g4
tp1597
F2
s(Vmurmur
g24
tp1598
F1
s(Vdisrespectful
g8
tp1599
F1
s(Vfill
g24
tp1600
F1
s(Vguilty
S'JJ'
p1601
tp1602
F6
s(g55
g38
tp1603
F1
s(VParty-Factions
g38
tp1604
F1
s(Vcoming
g77
tp1605
F1
s(Vadmired
g70
tp1606
F1
s(Velse
g64
tp1607
F2
s(VMinute
g4
tp1608
F2
s(VWrit
g8
tp1609
F1
s(VTyrant
g4
tp1610
F4
s(Vquite
g64
tp1611
F3
s(Vextravagant
g13
tp1612
F1
s(Vcast
g84
tp1613
F2
s(g122
g290
tp1614
F1
s(g13
g263
tp1615
F54
s(VGood
g4
tp1616
F2
s(Vutmost
g13
tp1617
F11
s(VReason
g4
tp1618
F10
s(Vhenceforward
g24
tp1619
F1
s(Vconvinc
g13
tp1620
F4
s(Vdin
g73
tp1621
F1
s(VGood
g13
tp1622
F3
s(Vfourth
S'JJ'
p1623
tp1624
F4
s(Vassist
g24
tp1625
F3
s(Vshewing
g77
tp1626
F2
s(Vinsisted
g70
tp1627
F1
s(VIdeas
g4
tp1628
F1
s(Vwounded
g13
tp1629
F1
s(g59
g647
tp1630
F2
s(VWheel
g8
tp1631
F1
s(S'RB'
p1632
g136
tp1633
F15
s(VFreedom
g8
tp1634
F1
s(Vbelow
g19
tp1635
F1
s(V_Missouf_
g4
tp1636
F3
s(g13
S':'
tp1637
F49
s(VHad
g84
tp1638
F3
s(VFit
g4
tp1639
F2
s(VFellows
g38
tp1640
F1
s(Vhitherto
g8
tp1641
F1
s(VWound
g4
tp1642
F2
s(Vsprang
g8
tp1643
F1
s(VPatriots
g38
tp1644
F1
s(VPoints
g38
tp1645
F1
s(Vconfesses
g55
tp1646
F1
s(Vshake
g24
tp1647
F1
s(Vprocur
g73
tp1648
F1
s(VEffect
g4
tp1649
F5
s(VIOHN
g4
tp1650
F1
s(VBroils
g4
tp1651
F1
s(VExperiment
g4
tp1652
F1
s(Vsunk
g8
tp1653
F1
s(V_Receive
g13
tp1654
F1
s(g24
g476
tp1655
F12
s(VSlaves
g38
tp1656
F4
s(Vflashy
g73
tp1657
F1
s(VConduct
g4
tp1658
F1
s(VGifts
g4
tp1659
F1
s(Vtender
g8
tp1660
F6
s(VAENIGMAS
g4
tp1661
F1
s(Vlaughing
g77
tp1662
F2
s(VHorse_
g4
tp1663
F1
s(VSingle
g4
tp1664
F1
s(Vinfallibly
g24
tp1665
F1
s(VQueen
g13
tp1666
F1
s(Vmemorable
g13
tp1667
F1
s(g1120
S'DT'
p1668
tp1669
F2
s(VSons
g4
tp1670
F1
s(Vmany
S'JJ'
p1671
tp1672
F7
s(VCustom
g4
tp1673
F10
s(Vformal
g13
tp1674
F1
s(V'd
g19
tp1675
F3
s(Vsuch
g13
tp1676
F52
s(VSize
g4
tp1677
F1
s(Vsit
g24
tp1678
F3
s(VDo
g24
tp1679
F4
s(Vover-wise
g13
tp1680
F1
s(Vlatter
g8
tp1681
F2
s(Vdeliver
g8
tp1682
F1
s(Vfull-blown
g13
tp1683
F1
s(Vsupping
g77
tp1684
F1
s(VDefence
g8
tp1685
F2
s(Vye
g13
tp1686
F1
s(Vlend
g24
tp1687
F1
s(Vself
g8
tp1688
F16
s(VZadig
g4
tp1689
F2
s(VBosom-Friend
g4
tp1690
F1
s(g47
g188
tp1691
F18
s(VBeneficence
g4
tp1692
F1
s(VAggravation
g8
tp1693
F1
s(VCharacters
g38
tp1694
F1
s(VInstant
g4
tp1695
F2
s(S','
g285
tp1696
F3
s(VBlasted
g70
tp1697
F1
s(Verect
g13
tp1698
F1
s(VCrupper
g4
tp1699
F1
s(VDishes
g4
tp1700
F1
s(Vsuffer
g70
tp1701
F2
s(Vbaleful
g13
tp1702
F1
s(VCorpse
g4
tp1703
F1
s(Veasily
S'RB'
p1704
tp1705
F1
s(Vjudge
g8
tp1706
F2
s(V_Magis_
g38
tp1707
F1
s(Vshew
g24
tp1708
F1
s(Vhonest
g8
tp1709
F2
s(Veverlasting
g77
tp1710
F1
s(Vpreserv
g13
tp1711
F2
s(Vthousand
g13
tp1712
F4
s(Vbetter
g59
tp1713
F14
s(g8
g669
tp1714
F5
s(Vindulg
g13
tp1715
F2
s(Vexpected
g84
tp1716
F2
s(Vpitiful
g13
tp1717
F1
s(VChina-Ware
g4
tp1718
F1
s(S':'
g84
tp1719
F4
s(VXVIII
g8
tp1720
F2
s(Vbemoan
g8
tp1721
F1
s(VRoom
g4
tp1722
F1
s(V_Genii_
g4
tp1723
F1
s(VSelf-love
g4
tp1724
F1
s(VAlmost
g64
tp1725
F1
s(Vexamples
g38
tp1726
F1
s(Vdisburs
g70
tp1727
F1
s(V'T
g8
tp1728
F15
s(Vobscure
g13
tp1729
F2
s(Voverset
g70
tp1730
F1
s(Vtacitly
g64
tp1731
F1
s(Vnext
g13
tp1732
F15
s(g73
g38
tp1733
F6
s(VActivity
g4
tp1734
F1
s(VCourtier
g4
tp1735
F1
s(Vmortal
g13
tp1736
F3
s(Vmighty
g84
tp1737
F1
s(V_Irax_
g8
tp1738
F1
s(VCourt
S'NNP'
p1739
tp1740
F32
s(Vpreserve
g24
tp1741
F1
s(Vfatal
g13
tp1742
F7
s(Vflutter
g290
tp1743
F1
s(VDeclaration
g4
tp1744
F3
s(g36
S','
tp1745
F6
s(Vforever
g64
tp1746
F3
s(VTell
g24
tp1747
F1
s(Vpitch
g24
tp1748
F1
s(Vforc
g84
tp1749
F1
s(VSpoil
g4
tp1750
F1
s(VVillage
g4
tp1751
F3
s(Vserve
g24
tp1752
F1
s(VMeeting
g4
tp1753
F1
s(VFlame
g4
tp1754
F1
s(Vconsider
g59
tp1755
F1
s(Vsuppose
g73
tp1756
F1
s(Vcomes
S'VBZ'
p1757
tp1758
F3
s(g19
g70
tp1759
F8
s(VApothecary
g13
tp1760
F1
s(VService
S'NNP'
p1761
tp1762
F9
s(VEunuch
g285
tp1763
F1
s(VNot
S'RB'
p1764
tp1765
F3
s(Vtempted
g70
tp1766
F2
s(g33
g59
tp1767
F28
s(Vdefend
g24
tp1768
F1
s(Vblue
g13
tp1769
F3
s(Vsome
S'DT'
p1770
tp1771
F67
s(VRemorse
g4
tp1772
F1
s(Vrelated
g84
tp1773
F1
s(Vfixt
g70
tp1774
F1
s(VDesign
g4
tp1775
F2
s(g538
g107
tp1776
F5
s(g59
g38
tp1777
F5
s(Vrais
g70
tp1778
F1
s(Vrefuse
g73
tp1779
F1
s(VPerplexity
g4
tp1780
F1
s(Vdead
g13
tp1781
F11
s(S')'
g24
tp1782
F1
s(Vdrop
g24
tp1783
F1
s(S'RB'
p1784
g73
tp1785
F27
s(VFather
g4
tp1786
F9
s(VAssurance
g8
tp1787
F1
s(Vanother
S'DT'
p1788
tp1789
F22
s(Vdying
g77
tp1790
F3
s(VRage
g8
tp1791
F1
s(Vconspicuous
g13
tp1792
F3
s(Vsovereign
g8
tp1793
F2
s(g24
S','
tp1794
F106
s(Vstrictest
g34
tp1795
F5
s(VReproaches
g4
tp1796
F1
s(Vfetch
g8
tp1797
F1
s(VAccordingly
g64
tp1798
F2
s(Vdart
g24
tp1799
F1
s(VOperation
g4
tp1800
F1
s(V_Zadig_
g73
tp1801
F2
s(g55
g409
tp1802
F9
s(VTaste
g8
tp1803
F3
s(V_Sheba_
g4
tp1804
F1
s(Vamuse
g24
tp1805
F1
s(Vkiss
g24
tp1806
F3
s(VDespair
g8
tp1807
F3
s(VArmour
g68
tp1808
F3
s(VBookseller
g4
tp1809
F1
s(VIntention
g4
tp1810
F1
s(Vdiscover
g84
tp1811
F1
s(g122
g38
tp1812
F3
s(Vterrified
g70
tp1813
F1
s(g107
g239
tp1814
F29
s(VPrayers
g68
tp1815
F1
s(VObjects
g38
tp1816
F1
s(Vperuses
g55
tp1817
F1
s(Vproduce
g24
tp1818
F1
s(VPhysician
g13
tp1819
F1
s(Vthunderstruck
g55
tp1820
F1
s(VPrecaution
g8
tp1821
F1
s(S','
g68
tp1822
F1
s(Vapart
g64
tp1823
F2
s(g77
S'IN'
p1824
tp1825
F60
s(VPassions
g68
tp1826
F1
s(Vdischarge
g24
tp1827
F1
s(VEscape
g8
tp1828
F3
s(VLodge
g4
tp1829
F4
s(Vdreadful
g13
tp1830
F2
s(VTemple
g4
tp1831
F3
s(Vof
g324
tp1832
F1158
s(Vspeechless
g8
tp1833
F1
s(Vendeavour
g13
tp1834
F1
s(Vduring
S'IN'
p1835
tp1836
F5
s(VColour
g4
tp1837
F3
s(Vstood
g84
tp1838
F9
s(V_
g4
tp1839
F2
s(Vmend
g24
tp1840
F1
s(Vrequested
g70
tp1841
F1
s(VDistrict
g4
tp1842
F1
s(Vengag
g13
tp1843
F1
s(VXI
g8
tp1844
F2
s(VVictuals
g38
tp1845
F1
s(VSovereign-Elect
g4
tp1846
F1
s(VVexation
g4
tp1847
F3
s(VDenial
g4
tp1848
F1
s(VRespect
g8
tp1849
F5
s(Vwhisk
g70
tp1850
F1
s(V_Astarte's_
g13
tp1851
F2
s(VPshaw
g8
tp1852
F1
s(VThousands
g55
tp1853
F1
s(Vmain
S'JJ'
p1854
tp1855
F1
s(Vflow'ry
g8
tp1856
F1
s(VKings
g4
tp1857
F8
s(VTraces
g38
tp1858
F1
s(VMoment
g8
tp1859
F3
s(Vgo
g24
tp1860
F6
s(Vmuch
g64
tp1861
F19
s(Vdy
g8
tp1862
F1
s(V'd
g621
tp1863
F8
s(Vtwisting
g77
tp1864
F1
s(Vfollow
g73
tp1865
F1
s(Vcur
g73
tp1866
F1
s(VBrother
g8
tp1867
F1
s(g8
S'VB'
p1868
tp1869
F2
s(Vworth
g24
tp1870
F1
s(Vdid
S'VBD'
p1871
tp1872
F27
s(Vsaid
S'VBD'
p1873
tp1874
F164
s(Vbeautiful
g13
tp1875
F3
s(Venable
g24
tp1876
F1
s(Vexclaim
g8
tp1877
F1
s(Vproper
g19
tp1878
F1
s(Vdetermin
g13
tp1879
F8
s(VToils
g4
tp1880
F1
s(Vunlucky
g13
tp1881
F2
s(VSolution
g4
tp1882
F2
s(Vyet
g130
tp1883
F2
s(S'CC'
p1884
g181
tp1885
F2
s(Vreserv
g70
tp1886
F1
s(Vnoisy
g13
tp1887
F2
s(Vunlike
S'IN'
p1888
tp1889
F1
s(VRetinue
g8
tp1890
F1
s(Vblackest
g34
tp1891
F1
s(Vvisit
g24
tp1892
F3
s(g1150
S'RBS'
p1893
tp1894
F1
s(Vcenter
g8
tp1895
F1
s(VHer
g36
tp1896
F8
s(Vuseful
g13
tp1897
F1
s(S':'
g64
tp1898
F28
s(Vtell
g73
tp1899
F1
s(Vprofound
g8
tp1900
F3
s(g621
g101
tp1901
F1
s(VSpies
g38
tp1902
F1
s(V'
g316
tp1903
F15
s(Vbent
g13
tp1904
F2
s(VFortune
g4
tp1905
F9
s(Vgain
g24
tp1906
F1
s(V*
g13
tp1907
F1
s(V't
g4
tp1908
F4
s(Vwicked
g13
tp1909
F2
s(Vif
g1824
tp1910
F42
s(V_Mouse-Month_
g8
tp1911
F1
s(g86
g70
tp1912
F8
s(Vbegg
g8
tp1913
F7
s(VHorses
g38
tp1914
F4
s(Vsubsisting
g77
tp1915
F2
s(VObservance
g8
tp1916
F2
s(Vimperiously
g64
tp1917
F1
s(Voriginally
g64
tp1918
F2
s(VGround
g4
tp1919
F5
s(Vlook
g8
tp1920
F4
s(VGuards
g68
tp1921
F1
s(VQuality
g4
tp1922
F2
s(Vdisdaining
g77
tp1923
F1
s(Vconvey
g73
tp1924
F1
s(VVeneration
g4
tp1925
F2
s(VExpiration
g4
tp1926
F2
s(Vunworthy
g13
tp1927
F2
s(Vdrown
g70
tp1928
F2
s(VGlobes
g4
tp1929
F2
s(VStudy
g4
tp1930
F2
s(Vswept
g84
tp1931
F1
s(g106
g4
tp1932
F10
s(Vobnubilated
g70
tp1933
F1
s(Vmunificent
g13
tp1934
F1
s(VArms
g38
tp1935
F2
s(g199
g13
tp1936
F6
s(S'('
g415
tp1937
F1
s(g36
g479
tp1938
F1
s(Vfar
S'RB'
p1939
tp1940
F16
s(VFatigue
g4
tp1941
F1
s(VTemper
g4
tp1942
F2
s(VMonarch
g8
tp1943
F1
s(VCharacter
g8
tp1944
F1
s(VCondition
g4
tp1945
F4
s(Vbefore
g19
tp1946
F51
s(VProceedings
g4
tp1947
F1
s(VSwords
g38
tp1948
F2
s(Vmaterial
g8
tp1949
F2
s(V_Epicure_
g8
tp1950
F1
s(VJuncture
g4
tp1951
F1
s(Vappeal
g73
tp1952
F1
s(VFees
g38
tp1953
F2
s(Vcall
g8
tp1954
F3
s(VProfusion
g4
tp1955
F2
s(VReception
g4
tp1956
F3
s(VFISHERMAN
g4
tp1957
F1
s(VAgonies
g68
tp1958
F1
s(Vuse
g8
tp1959
F4
s(Voblige
g19
tp1960
F1
s(Vconverse
g24
tp1961
F2
s(Vtreacherously
g64
tp1962
F1
s(VAbsurd
g4
tp1963
F1
s(Vpartial
g13
tp1964
F2
s(Vadded
g84
tp1965
F1
s(VDear
g4
tp1966
F2
s(g1788
g316
tp1967
F1
s(VEldest
g4
tp1968
F2
s(VWell
g64
tp1969
F2
s(VParcel
g4
tp1970
F3
s(Vrefin
g13
tp1971
F1
s(Vwaste
g8
tp1972
F1
s(Vdetermine
g24
tp1973
F1
s(g79
g669
tp1974
F18
s(Vquotha
g8
tp1975
F1
s(VHealth
S'NNP'
p1976
tp1977
F5
s(VPerformance
g4
tp1978
F2
s(VSerpent
g4
tp1979
F1
s(Vproclaim
g8
tp1980
F1
s(g24
g409
tp1981
F117
s(Vabandon
g13
tp1982
F2
s(Vstruggled
g70
tp1983
F1
s(VLife
g8
tp1984
F6
s(Vsick
g13
tp1985
F2
s(Vplung
g8
tp1986
F2
s(VLetter
g8
tp1987
F2
s(Vinnocently
g64
tp1988
F3
s(VReserve
S'NNP'
p1989
tp1990
F1
s(Vwak
g8
tp1991
F2
s(g84
S':'
tp1992
F17
s(VDye
g8
tp1993
F1
s(VCompass
g4
tp1994
F1
s(Vev'ry
g8
tp1995
F1
s(VRule
g4
tp1996
F1
s(Vwithdrew
g8
tp1997
F2
s(VFacility
g4
tp1998
F1
s(VSupposition
g4
tp1999
F1
s(VAssistance
g4
tp2000
F6
s(Vup
g24
tp2001
F2
s(VWretch
g8
tp2002
F1
s(VProbability
g4
tp2003
F1
s(Vadmitted
g70
tp2004
F3
s(VQuarters
g38
tp2005
F1
s(Vsower
g59
tp2006
F1
s(Vtwisted
g84
tp2007
F1
s(Vdeserves
g55
tp2008
F3
s(Vflow'ry
g13
tp2009
F1
s(Vattracted
g70
tp2010
F1
s(VCapacity
g4
tp2011
F2
s(Vconscious
g8
tp2012
F1
s(g669
g4
tp2013
F3
s(Vsensible
g13
tp2014
F7
s(Vwe
S'PRP'
p2015
tp2016
F29
s(g4
S'.'
tp2017
F580
s(VIV
g4
tp2018
F2
s(g290
g136
tp2019
F2
s(VYoung
g4
tp2020
F2
s(Vyoung
g335
tp2021
F37
s(Vawake
g64
tp2022
F1
s(Vred
g13
tp2023
F2
s(VWhen
S'WRB'
p2024
tp2025
F16
s(V_Ram_
g8
tp2026
F1
s(Valready
S'RB'
p2027
tp2028
F2
s(VAugmentation
g4
tp2029
F1
s(S'WP'
p2030
S'MD'
p2031
tp2032
F12
s(g38
g36
tp2033
F1
s(Vbarbarous
g13
tp2034
F3
s(VProofs
g4
tp2035
F1
s(VEating
g4
tp2036
F2
s(VBrachmans
g68
tp2037
F1
s(Vtherefore
g64
tp2038
F6
s(Vsomewhere
g64
tp2039
F1
s(VPleasures
g68
tp2040
F1
s(VConsequence
g8
tp2041
F1
s(VCream
g4
tp2042
F1
s(V_Devices_
g8
tp2043
F1
s(Vinterrupt
g73
tp2044
F1
s(VPledge
g4
tp2045
F2
s(Vsay
g24
tp2046
F11
s(VUneasiness
g4
tp2047
F1
s(VMummy
g4
tp2048
F1
s(Vjustify
g24
tp2049
F1
s(Vdwelt
g84
tp2050
F1
s(VHe
g1525
tp2051
F121
s(Vfacetious
g13
tp2052
F1
s(VPrize
g4
tp2053
F2
s(VMetals
g4
tp2054
F1
s(VSpit
g4
tp2055
F1
s(g38
g1003
tp2056
F8
s(Voblig
g8
tp2057
F1
s(VCompany
g4
tp2058
F5
s(VGloves
g55
tp2059
F1
s(VModerns
g4
tp2060
F1
s(VSire
g4
tp2061
F2
s(Vforward
g64
tp2062
F1
s(Vsaw
g84
tp2063
F12
s(Vtedious
g13
tp2064
F1
s(VReputation
g8
tp2065
F1
s(Vrenew
g24
tp2066
F1
s(Vgay
g8
tp2067
F3
s(VWand
g4
tp2068
F1
s(VPerson
g4
tp2069
F11
s(Vcircumvent
g24
tp2070
F1
s(Vproper
g8
tp2071
F3
s(Vpursu
g55
tp2072
F1
s(Vmention
g73
tp2073
F2
s(Vsucceeded
g84
tp2074
F1
s(Vbecoming
S'VBG'
p2075
tp2076
F3
s(VBurnt-Offerings
g38
tp2077
F1
s(Vdejected
g70
tp2078
F1
s(Vfix
g55
tp2079
F1
s(VWhereas
g19
tp2080
F1
s(VProof
g4
tp2081
F1
s(Vtremble
g73
tp2082
F1
s(Vdo
g24
tp2083
F7
s(g13
g316
tp2084
F6
s(Vamongst
g55
tp2085
F1
s(Vtho
g24
tp2086
F2
s(Vdoom
g8
tp2087
F1
s(Vroll
g24
tp2088
F2
s(V_Hyrcanians_
g4
tp2089
F1
s(Vcommon
S'JJ'
p2090
tp2091
F2
s(Ventred
g70
tp2092
F2
s(VDesarts
g4
tp2093
F1
s(g84
S')'
tp2094
F2
s(VResolution
g8
tp2095
F2
s(Vclosed
g70
tp2096
F2
s(VObjects
g4
tp2097
F1
s(VPortrait
g8
tp2098
F1
s(Vadding
g359
tp2099
F1
s(VServices
g68
tp2100
F1
s(VSaviour
g31
tp2101
F1
s(VRetinue
g4
tp2102
F3
s(Varm
g8
tp2103
F2
s(Vincontestable
g13
tp2104
F3
s(Vthine
g8
tp2105
F1
s(Vhop
g13
tp2106
F1
s(Vwish
g24
tp2107
F3
s(VFavourite
g13
tp2108
F1
s(VSex
g4
tp2109
F3
s(Vnaked
g13
tp2110
F2
s(VPurposes
g38
tp2111
F1
s(VMr.
S'NNP'
p2112
tp2113
F1
s(VEvening
g77
tp2114
F1
s(VView
g4
tp2115
F4
s(VHoney-Moon
g13
tp2116
F1
s(VCoral
g4
tp2117
F1
s(Vprevailed
g84
tp2118
F1
s(VBow
g4
tp2119
F1
s(Vhard
g13
tp2120
F7
s(Vmelt
g24
tp2121
F1
s(Vscarce
g13
tp2122
F2
s(g136
g31
tp2123
F19
s(VAdventures
g68
tp2124
F1
s(Vfamiliar
S'JJ'
p2125
tp2126
F1
s(Vrolling
g77
tp2127
F1
s(VSubstance
g8
tp2128
F1
s(g8
g335
tp2129
F12
s(g64
g106
tp2130
F1
s(VMemory
g8
tp2131
F3
s(Vfree
g24
tp2132
F1
s(Vagreeable
g13
tp2133
F4
s(Vdevouring
g77
tp2134
F1
s(VFeet
g4
tp2135
F13
s(Vgrateful
g13
tp2136
F1
s(V365
g31
tp2137
F1
s(g19
g324
tp2138
F85
s(g38
g136
tp2139
F17
s(VNotion
g8
tp2140
F2
s(VLabour
g4
tp2141
F1
s(Vspeak
g73
tp2142
F4
s(VKing
g77
tp2143
F1
s(V't
g315
tp2144
F3
s(Vpersuade
g24
tp2145
F1
s(VTears
g4
tp2146
F11
s(Vblessing
g77
tp2147
F1
s(Vshocking
g8
tp2148
F1
s(Valternately
g64
tp2149
F1
s(VStones
g38
tp2150
F3
s(Vdown
g271
tp2151
F14
s(VGod
g24
tp2152
F3
s(Vdrew
g84
tp2153
F10
s(VCuisses
g68
tp2154
F1
s(Vmounted
g84
tp2155
F1
s(VCup
g4
tp2156
F4
s(Vimpracticable
g13
tp2157
F1
s(Vrespect
g8
tp2158
F2
s(g59
g263
tp2159
F2
s(VAccident
g8
tp2160
F1
s(Vdurst
g13
tp2161
F1
s(Vsurrounding
g77
tp2162
F2
s(Vkept
g84
tp2163
F2
s(VEar-witness
g4
tp2164
F1
s(S','
g409
tp2165
F53
s(VToils
g38
tp2166
F1
s(Vlook
g70
tp2167
F3
s(g8
g315
tp2168
F2
s(VTrial
g4
tp2169
F2
s(Vformer
g691
tp2170
F7
s(V_Fame_
g8
tp2171
F1
s(Vshook
g70
tp2172
F1
s(V'd
g59
tp2173
F1
s(V't
g199
tp2174
F15
s(Vdaily
g24
tp2175
F1
s(V_Z_
g8
tp2176
F1
s(Vthro
g64
tp2177
F1
s(Vremonstrated
g84
tp2178
F1
s(g1003
g24
tp2179
F58
s(g106
g13
tp2180
F2
s(Vmistaken
g70
tp2181
F1
s(VDonation
g8
tp2182
F1
s(VHurry
g4
tp2183
F1
s(VWag-tail
g13
tp2184
F1
s(VDrums
g4
tp2185
F1
s(VBattle
g4
tp2186
F1
s(VCourse
g8
tp2187
F2
s(VFind
g4
tp2188
F1
s(VProvidence
g4
tp2189
F4
s(g199
g621
tp2190
F5
s(Vbelonging
g77
tp2191
F1
s(Vreduc
g13
tp2192
F1
s(g285
g479
tp2193
F7
s(V_Matter_
g24
tp2194
F1
s(VTyrant
g8
tp2195
F1
s(VMisfortunes
g68
tp2196
F2
s(Vtwenty
g8
tp2197
F1
s(Vrecover
g13
tp2198
F2
s(VAbilities
g68
tp2199
F1
s(Vunderstood
g24
tp2200
F1
s(VPurchasers
g68
tp2201
F1
s(VSecrets
g38
tp2202
F1
s(Vstruck
g70
tp2203
F2
s(Vconversant
g13
tp2204
F1
s(Vinestimable
g13
tp2205
F2
s(Vthoughtless
g13
tp2206
F1
s(VVisits
g38
tp2207
F1
s(Vpropos
g8
tp2208
F4
s(VLady
g24
tp2209
F3
s(Vgradually
g64
tp2210
F2
s(VMarket
g4
tp2211
F1
s(VThen
S'RB'
p2212
tp2213
F5
s(VSentence
g8
tp2214
F2
s(Vavenging
g77
tp2215
F1
s(g101
g33
tp2216
F21
s(VCaptive_
g4
tp2217
F1
s(Vten
g13
tp2218
F1
s(V't
g55
tp2219
F1
s(VCarrion
g8
tp2220
F1
s(VPart
g8
tp2221
F8
s(Vfit
g8
tp2222
F2
s(VCADI-LESQUIER
g4
tp2223
F1
s(VIndeed
S'RB'
p2224
tp2225
F1
s(Vrecal
g24
tp2226
F3
s(Vabovemention
g8
tp2227
F2
s(Vthank
g24
tp2228
F2
s(Vround
g8
tp2229
F3
s(VJudge_
g4
tp2230
F1
s(VWings
g4
tp2231
F1
s(VProceedings
g38
tp2232
F2
s(Vcarefully
g64
tp2233
F1
s(VAges
g38
tp2234
F1
s(Videntical
g13
tp2235
F1
s(g136
g68
tp2236
F5
s(VThroats
g4
tp2237
F1
s(g70
S':'
tp2238
F14
s(Vsway
g24
tp2239
F1
s(g263
S','
tp2240
F2
s(VLatium._
g4
tp2241
F1
s(VMotion
g8
tp2242
F1
s(V_Memphis_
g8
tp2243
F1
s(Vtis
g8
tp2244
F1
s(g75
g719
tp2245
F30
s(Vinstructing
g77
tp2246
F1
s(Vlast
S'JJ'
p2247
tp2248
F34
s(VWife_
g4
tp2249
F1
s(VWax-Lights
g38
tp2250
F1
s(Vfought
g84
tp2251
F2
s(Vpresented
g70
tp2252
F1
s(VEnemies
g38
tp2253
F1
s(Vprefer
g24
tp2254
F1
s(VTerm
g4
tp2255
F1
s(Vthence
g8
tp2256
F3
s(Vinduc
g8
tp2257
F1
s(Vdropp
g24
tp2258
F1
s(Vimagines
g55
tp2259
F1
s(VAnswer
g4
tp2260
F3
s(Vcomprehends
g55
tp2261
F2
s(VI
g763
tp2262
F357
s(g1140
g77
tp2263
F2
s(V_Itobad's_
g8
tp2264
F1
s(Vhue
g24
tp2265
F1
s(VLord_
g4
tp2266
F1
s(Vembarrass
g8
tp2267
F1
s(Vholy
g8
tp2268
F1
s(VBenefactor
g4
tp2269
F4
s(V_Tis
g73
tp2270
F1
s(Vfickle
g73
tp2271
F1
s(VInfirmities
g38
tp2272
F1
s(Vgreatest
g34
tp2273
F6
s(Vsubmit
g24
tp2274
F1
s(Vdistemper
g13
tp2275
F1
s(Vshewn
g70
tp2276
F2
s(Vact
g73
tp2277
F1
s(Vaccoutred
g70
tp2278
F2
s(Vsmitten
g59
tp2279
F1
s(Vpermit
g24
tp2280
F1
s(VHearing
g4
tp2281
F1
s(Vexamin
g73
tp2282
F1
s(VDefinitive
g13
tp2283
F1
s(VUpon
g19
tp2284
F14
s(Vfruitless
g64
tp2285
F1
s(VDispute
g8
tp2286
F1
s(Vhave
g24
tp2287
F49
s(VFuneral-pile
g13
tp2288
F2
s(VCompassion
g4
tp2289
F3
s(S','
g64
tp2290
F151
s(V_Chaldeans_
g8
tp2291
F1
s(g2024
g8
tp2292
F7
s(g70
g31
tp2293
F3
s(Vrash
g8
tp2294
F3
s(VNecessity
g4
tp2295
F1
s(Vstop
g24
tp2296
F1
s(Vboasted
g70
tp2297
F2
s(g64
S'CD'
p2298
tp2299
F8
s(Vagonizing
g8
tp2300
F2
s(Vcondemn
g13
tp2301
F2
s(VResult
g4
tp2302
F5
s(Vother
S'JJ'
p2303
tp2304
F60
s(Vc._
g8
tp2305
F2
s(Vcry
g8
tp2306
F4
s(VStrangers
g4
tp2307
F2
s(VSultanas
g4
tp2308
F3
s(VConfines
g4
tp2309
F1
s(Vfat
g13
tp2310
F1
s(Vdetaining
g77
tp2311
F1
s(g68
g68
tp2312
F1
s(Vunderstand
g24
tp2313
F2
s(VNature
g8
tp2314
F6
s(Vseated
g70
tp2315
F3
s(VSelf-Murderers
g38
tp2316
F1
s(VParasites
g38
tp2317
F1
s(Vthou
g8
tp2318
F9
s(VNet
g8
tp2319
F2
s(Vcompromize
g24
tp2320
F1
s(Vover-ruling
g13
tp2321
F1
s(VMethod
g4
tp2322
F1
s(Vshould
S'MD'
p2323
tp2324
F54
s(Vantient
g8
tp2325
F3
s(g8
g70
tp2326
F4
s(g263
S':'
tp2327
F1
s(VOunces
g38
tp2328
F8
s(VCommission
S'NNP'
p2329
tp2330
F2
s(VPother
g8
tp2331
F1
s(VSeal
g4
tp2332
F1
s(Vcultivates
g55
tp2333
F1
s(Vheroic
g13
tp2334
F1
s(Vregal
g13
tp2335
F1
s(VMortification
g4
tp2336
F1
s(VXV
g8
tp2337
F2
s(Vdoubtless
g13
tp2338
F1
s(Vswarm
g8
tp2339
F1
s(VTorch
g4
tp2340
F1
s(VFalshood
g4
tp2341
F1
s(VFavourite
g4
tp2342
F4
s(V_Greek_
g4
tp2343
F1
s(Vplaying
g77
tp2344
F1
s(Vshorter
g59
tp2345
F3
s(g1191
g1893
tp2346
F56
s(VVows
g4
tp2347
F2
s(VChild
g4
tp2348
F2
s(Vextended
g70
tp2349
F1
s(VEffects
g38
tp2350
F5
s(VExtremities
g38
tp2351
F1
s(Vtill
g24
tp2352
F5
s(VProprietor
g4
tp2353
F1
s(g271
S'IN'
p2354
tp2355
F27
s(VAssignation
g4
tp2356
F1
s(Vtestify
g24
tp2357
F1
s(VBreak
g4
tp2358
F5
s(Veither
g64
tp2359
F1
s(Vwherein
g8
tp2360
F3
s(Vpleuretic
g13
tp2361
F1
s(VExample
g4
tp2362
F1
s(Vmagnificent
g8
tp2363
F1
s(Vcomplain
g24
tp2364
F1
s(Vexclaim
g24
tp2365
F1
s(Vwherever
g106
tp2366
F1
s(Vappear
g24
tp2367
F4
s(Vdied
g70
tp2368
F1
s(VGates
g4
tp2369
F1
s(Vcompos
g8
tp2370
F1
s(VPile
g4
tp2371
F1
s(VJudgments
g4
tp2372
F1
s(VEvildoers
g38
tp2373
F1
s(Vwept
g84
tp2374
F1
s(V_Arabians_
g4
tp2375
F1
s(VOne
g8
tp2376
F1
s(VConfounded
g4
tp2377
F1
s(Vpunctual
g13
tp2378
F1
s(VSuppose
g4
tp2379
F1
s(VPrivilege
g4
tp2380
F1
s(Vslow
g13
tp2381
F3
s(VConflicts
g38
tp2382
F1
s(S'NNS'
p2383
g1601
tp2384
F3
s(Vcontented
g84
tp2385
F1
s(g77
g13
tp2386
F24
s(Vperceive
g73
tp2387
F1
s(Vhold
g24
tp2388
F4
s(Vharangu
g8
tp2389
F2
s(Vspeaking
g8
tp2390
F2
s(Vupon
g24
tp2391
F19
s(VOpium
g4
tp2392
F1
s(VPocket
g4
tp2393
F1
s(VIndignity
g8
tp2394
F1
s(Vuniversal
g13
tp2395
F5
s(Vdepos
g73
tp2396
F1
s(Vreceives
g55
tp2397
F2
s(V_Grand
g8
tp2398
F1
s(V_Zadig_
g4
tp2399
F57
s(Vfled
g70
tp2400
F3
s(VThicket
g4
tp2401
F2
s(Vamongst
g24
tp2402
F1
s(Vnew
S'JJ'
p2403
tp2404
F9
s(V_Zadig's_
g24
tp2405
F3
s(Vtake
g73
tp2406
F3
s(V*_Tien_
g8
tp2407
F1
s(Vright
g13
tp2408
F3
s(Vhopes
g38
tp2409
F2
s(VTenderness
g4
tp2410
F1
s(VSorrow
g4
tp2411
F2
s(Vgross
S'JJ'
p2412
tp2413
F2
s(Vdiscerning
g77
tp2414
F1
s(Vapply
g73
tp2415
F1
s(Vpupp
g13
tp2416
F1
s(VUnaccoutred
g70
tp2417
F1
s(VTournaments_
g4
tp2418
F1
s(VTears
g38
tp2419
F2
s(Vintimated
g70
tp2420
F1
s(S':'
g122
tp2421
F1
s(VYet
g130
tp2422
F2
s(VCousin
g4
tp2423
F1
s(Vdearly
g13
tp2424
F1
s(VCause
g4
tp2425
F13
s(g38
g316
tp2426
F1
s(Vyour
g409
tp2427
F95
s(Vsure
g8
tp2428
F1
s(V_SADI._
g19
tp2429
F1
s(V_Missouf_
g8
tp2430
F7
s(VEvil
g4
tp2431
F3
s(g2024
g731
tp2432
F1
s(Vcarried
g70
tp2433
F5
s(VBride
g4
tp2434
F3
s(Vhotter
g290
tp2435
F1
s(Vbehalf
g8
tp2436
F1
s(Vfew
S'JJ'
p2437
tp2438
F13
s(Vsuch
g24
tp2439
F2
s(VExpostulation
g8
tp2440
F1
s(Vhumane
g8
tp2441
F1
s(VAgreed
g4
tp2442
F1
s(Vassociated
g84
tp2443
F1
s(VEyes
g4
tp2444
F3
s(Vstept
g84
tp2445
F1
s(Vrecommend
g24
tp2446
F1
s(Vaggrandiz
g73
tp2447
F1
s(VGovernment
g4
tp2448
F3
s(Vpacify
g13
tp2449
F1
s(Vfalse
g24
tp2450
F1
s(VIndulgence
g4
tp2451
F2
s(g107
S'RB'
p2452
tp2453
F53
s(Vchanged
g70
tp2454
F1
s(V;
S':'
tp2455
F507
s(VFurrows
g4
tp2456
F1
s(V_Setoc_
g4
tp2457
F9
s(VPossession
g4
tp2458
F2
s(Vwell-beloved
g13
tp2459
F1
s(Vwhit
g84
tp2460
F1
s(V_Celtae_
g4
tp2461
F1
s(Vdivisible
g13
tp2462
F1
s(Vprov
g8
tp2463
F2
s(VWhich
g13
tp2464
F1
s(g24
g315
tp2465
F2
s(Vmake
g73
tp2466
F5
s(VIdeas
g38
tp2467
F1
s(VHoofs
g4
tp2468
F1
s(Vanimate
g73
tp2469
F1
s(V_The_
g13
tp2470
F9
s(Vantient
g13
tp2471
F4
s(Vset
g24
tp2472
F2
s(VStream
g4
tp2473
F1
s(VAdmirers
g38
tp2474
F1
s(VEsquires
g68
tp2475
F1
s(Vtot
g8
tp2476
F1
s(Vno
g64
tp2477
F3
s(Vwiser
g59
tp2478
F1
s(Vviolently
g64
tp2479
F1
s(VCharacter
g4
tp2480
F6
s(Vcubb
g64
tp2481
F1
s(Vpronounc
g8
tp2482
F1
s(Vassembled
g84
tp2483
F1
s(VBed
g4
tp2484
F10
s(VHonourable
g13
tp2485
F1
s(VMortal
g13
tp2486
F1
s(VIs
g55
tp2487
F7
s(VFumes
g4
tp2488
F1
s(VDivisions
g38
tp2489
F1
s(VHonour
g8
tp2490
F1
s(VBridge
g4
tp2491
F4
s(V_List_
g8
tp2492
F1
s(VGentlewoman
g4
tp2493
F1
s(Vdearer
g8
tp2494
F1
s(V_Azora_
g24
tp2495
F1
s(VWeight
g8
tp2496
F1
s(Vdescended
g84
tp2497
F2
s(g136
g290
tp2498
F5
s(VCaprice
g4
tp2499
F2
s(Vpoison
g8
tp2500
F1
s(Vexpiring
g8
tp2501
F1
s(Vaware
g8
tp2502
F1
s(Vextol
g24
tp2503
F1
s(VExamination
g8
tp2504
F1
s(Vfortify
g24
tp2505
F1
s(Vbreath
g19
tp2506
F1
s(VMadman
g4
tp2507
F1
s(Vwast
g84
tp2508
F1
s(VOracle
g4
tp2509
F3
s(Vbye
g8
tp2510
F1
s(Vdrown
g24
tp2511
F1
s(S','
g84
tp2512
F314
s(Vwilful
g13
tp2513
F2
s(Vmistrustful
g13
tp2514
F1
s(VFriendship
g4
tp2515
F1
s(VFace
g8
tp2516
F4
s(Vcourteously
g64
tp2517
F1
s(Vbring
g24
tp2518
F5
s(Vanswered
g70
tp2519
F1
s(V_Zadig's_
g64
tp2520
F1
s(Vlink
g13
tp2521
F1
s(VCapitals
g38
tp2522
F1
s(Vsue
g24
tp2523
F1
s(g73
S':'
tp2524
F7
s(VBooty
g4
tp2525
F4
s(Vlaid
g84
tp2526
F9
s(Vfeign
g8
tp2527
F1
s(Vcross
g24
tp2528
F1
s(Vwith
g2354
tp2529
F312
s(Vconceiv
g73
tp2530
F2
s(Vtalk
g55
tp2531
F1
s(Vhow
g383
tp2532
F25
s(Vdespicable
g13
tp2533
F1
s(VValue
g4
tp2534
F2
s(V_Magi_
g8
tp2535
F1
s(V_Syrians_
g4
tp2536
F1
s(Vplanted
g84
tp2537
F1
s(VCloset
g4
tp2538
F1
s(Vran
g84
tp2539
F12
s(Vfrequently
g64
tp2540
F3
s(VSo
g64
tp2541
F1
s(VParoquet
g4
tp2542
F1
s(Vperhaps
S'RB'
p2543
tp2544
F4
s(g73
g263
tp2545
F15
s(Vhundred
g70
tp2546
F1
s(VAudience
g8
tp2547
F1
s(VCountenance
g4
tp2548
F1
s(g79
g101
tp2549
F1
s(VMercy
g4
tp2550
F2
s(VRace-Horse
g13
tp2551
F1
s(g77
g271
tp2552
F11
s(VProfundity
g4
tp2553
F1
s(VFREE-BOOTER
g4
tp2554
F1
s(Vlike
g13
tp2555
F4
s(Vflat
g13
tp2556
F2
s(Vverily
g64
tp2557
F2
s(VFeint
g8
tp2558
F2
s(g4
g33
tp2559
F48
s(Vaveng
g70
tp2560
F1
s(Vwhirling
g77
tp2561
F1
s(Vstarv
g13
tp2562
F1
s(VPeople
g13
tp2563
F1
s(Vador
g55
tp2564
F1
s(Vstarted
g70
tp2565
F1
s(VOlives
g38
tp2566
F1
s(Vtied
g70
tp2567
F1
s(VRod
g4
tp2568
F1
s(Vresolv
g24
tp2569
F1
s(g73
g122
tp2570
F106
s(VSight
g4
tp2571
F13
s(VDrop
g8
tp2572
F1
s(VTales
g4
tp2573
F3
s(VSycophants
g68
tp2574
F1
s(Vreturn
g73
tp2575
F3
s(Vnothing
S'NN'
p2576
tp2577
F25
s(VDiscretion
g4
tp2578
F2
s(VReflux
g4
tp2579
F1
s(Vadds
S'VBZ'
p2580
tp2581
F1
s(VLoyalty
g4
tp2582
F1
s(Vwere
S'VBD'
p2583
tp2584
F164
s(VAEnigmas
g4
tp2585
F2
s(VFoot
g8
tp2586
F1
s(VParasites
g4
tp2587
F1
s(Vbest
g34
tp2588
F17
s(V_Tidor_
g8
tp2589
F1
s(VCondemnation
g4
tp2590
F2
s(S'PRP'
p2591
g479
tp2592
F5
s(Vfound
g84
tp2593
F13
s(g199
g107
tp2594
F17
s(Vpulling
g77
tp2595
F1
s(VWaters
g4
tp2596
F1
s(VFish
g8
tp2597
F2
s(Vblind
g8
tp2598
F2
s(VRivulet
g4
tp2599
F2
s(Vask
g24
tp2600
F8
s(VFoot
g4
tp2601
F7
s(VInclination
g8
tp2602
F2
s(g64
g728
tp2603
F162
s(Venjoy
g73
tp2604
F4
s(VInjustice
g4
tp2605
F2
s(Vsuppos
g8
tp2606
F1
s(Vfour
S'CD'
p2607
tp2608
F13
s(VVictory
g8
tp2609
F2
s(Vhe
g352
tp2610
F434
s(VMakers
g38
tp2611
F1
s(VOULOUG-BEG
g4
tp2612
F1
s(Vthird
g8
tp2613
F1
s(Vburst
g84
tp2614
F1
s(Vhumble
g13
tp2615
F2
s(V'T
g130
tp2616
F1
s(Vstand
g8
tp2617
F1
s(VAmusement
g4
tp2618
F2
s(g86
g290
tp2619
F8
s(VShifts
g4
tp2620
F1
s(g31
g324
tp2621
F59
s(VCountry-men
g4
tp2622
F1
s(VChampions
g38
tp2623
F3
s(VEleven
g4
tp2624
F1
s(Vmere
g13
tp2625
F3
s(Vbeg
g73
tp2626
F1
s(VGolden
g4
tp2627
F3
s(VWay
g4
tp2628
F16
s(Vlight-brown
g13
tp2629
F1
s(Vfix
g84
tp2630
F1
s(V_Teutath_
g4
tp2631
F1
s(VReluctance
g8
tp2632
F1
s(VDisguise
g4
tp2633
F2
s(VDeserts
g4
tp2634
F1
s(VTranslated
g70
tp2635
F1
s(Vmyself
g24
tp2636
F2
s(V_Tournaments_
g8
tp2637
F1
s(VDiscovery
g4
tp2638
F1
s(VAffair
g4
tp2639
F10
s(Vutter
g13
tp2640
F6
s(Vredoubled
g84
tp2641
F2
s(VRevolutions
g38
tp2642
F1
s(S','
g315
tp2643
F10
s(VBenefactor
g8
tp2644
F1
s(Vdaily
g13
tp2645
F3
s(Vemergent
g13
tp2646
F2
s(Vreturn
g8
tp2647
F3
s(Vmaking
g77
tp2648
F9
s(VDirection
g4
tp2649
F1
s(Vretain
g73
tp2650
F1
s(VFarthing
g4
tp2651
F1
s(Vpropos
g55
tp2652
F1
s(VCombatants
g68
tp2653
F3
s(V_Ganges_
g4
tp2654
F1
s(Vproclaim
g13
tp2655
F1
s(Vput
g84
tp2656
F9
s(Vlay
g13
tp2657
F1
s(VWe
S'PRP'
p2658
tp2659
F4
s(Vsetting
g77
tp2660
F1
s(VGenius
g4
tp2661
F3
s(Vhelp
g55
tp2662
F1
s(V_Indians_
g73
tp2663
F1
s(Vdespises
g55
tp2664
F1
s(Vconceive
g24
tp2665
F3
s(VWays
g68
tp2666
F2
s(VWhereabouts
g4
tp2667
F1
s(Vcould
S'MD'
p2668
tp2669
F52
s(Varriv
g73
tp2670
F1
s(g24
g33
tp2671
F220
s(VCourage
g4
tp2672
F5
s(Vacquitted
g84
tp2673
F1
s(V_Setoc_
g64
tp2674
F1
s(Vjealous-pated
g13
tp2675
F1
s(Vaccepting
g77
tp2676
F1
s(V_Tyrian_
g13
tp2677
F1
s(Vfallen
g70
tp2678
F1
s(Vsignal
g13
tp2679
F1
s(Vstole
g73
tp2680
F1
s(Vdeep
g13
tp2681
F9
s(Vfelt
g84
tp2682
F1
s(Vhiss
g13
tp2683
F1
s(VSet
g4
tp2684
F2
s(Vthou
g84
tp2685
F2
s(VGirdle
g4
tp2686
F1
s(VForeigners
g38
tp2687
F1
s(Vblush
g24
tp2688
F1
s(Vpremeditated
g13
tp2689
F1
s(Vnone
g8
tp2690
F6
s(V_Magus_
g4
tp2691
F2
s(VRestoration
g8
tp2692
F1
s(Vpaid
g70
tp2693
F5
s(Vinform
g24
tp2694
F7
s(VGrave
g4
tp2695
F1
s(V_Chaldean_
g13
tp2696
F1
s(VStock
g4
tp2697
F1
s(VKings
g38
tp2698
F2
s(g77
g383
tp2699
F4
s(VApple
g4
tp2700
F1
s(Vgave
S'VBD'
p2701
tp2702
F27
s(g13
S'RB'
p2703
tp2704
F23
s(Vsignaliz
g13
tp2705
F1
s(VRemonstrances
g38
tp2706
F1
s(Vrail
g8
tp2707
F1
s(VPray
g4
tp2708
F7
s(VHappiness
g4
tp2709
F1
s(VHISTORY
g4
tp2710
F1
s(Vregretted
g13
tp2711
F1
s(VEyes
g38
tp2712
F24
s(VSwear
g8
tp2713
F1
s(Vimaginary
g13
tp2714
F1
s(Vfrail
g8
tp2715
F1
s(VPriest
g4
tp2716
F2
s(VWishes
g38
tp2717
F1
s(Vingenuously
g64
tp2718
F2
s(Vrent
g24
tp2719
F1
s(Vinscrib
g55
tp2720
F1
s(Vthreatn
g24
tp2721
F1
s(V't
g538
tp2722
F5
s(VExpression
g4
tp2723
F1
s(Vbeg
g24
tp2724
F3
s(Vconstituted
g70
tp2725
F1
s(V_Asrael_
g4
tp2726
F1
s(g19
g1150
tp2727
F5
s(Vthro
g24
tp2728
F1
s(Vthroughout
S'IN'
p2729
tp2730
F2
s(VEmpireum
g4
tp2731
F1
s(Vodd
g13
tp2732
F3
s(VTower
g4
tp2733
F1
s(VRows
g4
tp2734
F1
s(VCourt-Customers
g38
tp2735
F1
s(VPlace
g4
tp2736
F7
s(VReally
g64
tp2737
F1
s(Vbound
g84
tp2738
F1
s(VMiscreants
g38
tp2739
F1
s(Vinteresting
g77
tp2740
F1
s(VOccurrences
g38
tp2741
F1
s(VExpectation
g4
tp2742
F1
s(Vturn
g24
tp2743
F7
s(VBodies
g38
tp2744
F1
s(VTermagant
g4
tp2745
F2
s(VSea
g4
tp2746
F6
s(VFear
g4
tp2747
F3
s(VTruths
g4
tp2748
F1
s(Vrush
g73
tp2749
F1
s(Vunited
g13
tp2750
F1
s(VShoulders
g4
tp2751
F1
s(VLadies
g68
tp2752
F3
s(VGods
g4
tp2753
F4
s(Vo
g73
tp2754
F1
s(VBlunder
g4
tp2755
F1
s(Vthere
g64
tp2756
F9
s(Vdoubt
g24
tp2757
F2
s(V'll
S'MD'
p2758
tp2759
F35
s(Vviolating
g77
tp2760
F1
s(VBASILISK
g4
tp2761
F1
s(Vaccordingly
g64
tp2762
F12
s(Vremotest
g34
tp2763
F2
s(Vdated
g13
tp2764
F1
s(VConsort
g8
tp2765
F1
s(g55
g107
tp2766
F1
s(VSphere
g4
tp2767
F2
s(Vstopp
g8
tp2768
F1
s(Vlearn
g24
tp2769
F1
s(VMail
g4
tp2770
F1
s(V_Cador_
g4
tp2771
F4
s(VMost
g34
tp2772
F2
s(Vflatter
g73
tp2773
F2
s(Vyours
g38
tp2774
F3
s(Vhospitable
g13
tp2775
F3
s(Vstir
g24
tp2776
F2
s(Vby
S'IN'
p2777
tp2778
F148
s(Vamusing
g8
tp2779
F1
s(VGlance
g8
tp2780
F1
s(Vplain
g8
tp2781
F1
s(VNow
S'RB'
p2782
tp2783
F8
s(Vdeliver
g24
tp2784
F5
s(Vcried
g84
tp2785
F12
s(VCommodity
g4
tp2786
F2
s(VReluctance
g4
tp2787
F1
s(VFree-booter
g4
tp2788
F3
s(Vsummon
g84
tp2789
F1
s(V_Grand
g4
tp2790
F3
s(Varguing
g77
tp2791
F1
s(Vboth
g24
tp2792
F1
s(VCamels
g4
tp2793
F3
s(Vdetermin
g55
tp2794
F2
s(Vknock
g13
tp2795
F1
s(g31
g79
tp2796
F4
s(Vdarted
g84
tp2797
F1
s(Vher
g621
tp2798
F36
s(Vpresume
g73
tp2799
F4
s(Vsign
g84
tp2800
F2
s(VFour
g31
tp2801
F2
s(VBitch
g8
tp2802
F1
s(Vherself
g8
tp2803
F2
s(Vinviolable
g13
tp2804
F1
s(Vidle
g13
tp2805
F3
s(V_Chaldeans_
g4
tp2806
F1
s(Vconfus
g8
tp2807
F1
s(VEntrance
g8
tp2808
F1
s(g4
g479
tp2809
F6
s(Vendeavour
g24
tp2810
F1
s(VProposition
g4
tp2811
F2
s(V_Egyptian_
g4
tp2812
F2
s(VKnights
g4
tp2813
F1
s(Vtorment
g24
tp2814
F2
s(Vhideous
g13
tp2815
F2
s(g4
g214
tp2816
F3
s(VProvisions
g38
tp2817
F1
s(Vunfortunately
g64
tp2818
F1
s(Vspeaking
g77
tp2819
F2
s(VMan
g4
tp2820
F41
s(g8
S'('
tp2821
F3
s(VMinc'd-pye
g4
tp2822
F1
s(VCompanion
g4
tp2823
F2
s(Vswift
g13
tp2824
F2
s(Vpublic
g13
tp2825
F2
s(VPurse
g4
tp2826
F1
s(VThose
S'DT'
p2827
tp2828
F3
s(g73
g1003
tp2829
F30
s(VReign
g4
tp2830
F2
s(Vwounded
g70
tp2831
F1
s(Vgaz
g55
tp2832
F1
s(VSovereigns
g4
tp2833
F1
s(VCeiling
g8
tp2834
F1
s(Vsmother
g24
tp2835
F1
s(g73
g73
tp2836
F1
s(VAscendency
g4
tp2837
F1
s(g122
g263
tp2838
F96
s(VMalignity
g4
tp2839
F1
s(Vfind
g24
tp2840
F12
s(Vthwart
g24
tp2841
F1
s(VTestimony
g8
tp2842
F1
s(VBooks
g4
tp2843
F1
s(Vrevive
g24
tp2844
F1
s(Vreveng
g13
tp2845
F1
s(Vform
g8
tp2846
F1
s(Vdissolv
g13
tp2847
F1
s(VFineness
g4
tp2848
F1
s(Vsnow-white
g13
tp2849
F1
s(VPurpose
g4
tp2850
F8
s(VPalm-trees
g4
tp2851
F1
s(VHundred
g4
tp2852
F7
s(Vconscious
g13
tp2853
F5
s(g315
g84
tp2854
F12
s(VXII
g8
tp2855
F2
s(Vassure
g24
tp2856
F1
s(VCroud
g4
tp2857
F2
s(Vwhom
g188
tp2858
F20
s(Vrevolted
g70
tp2859
F1
s(Vlong
g64
tp2860
F12
s(Vfell
S'VBD'
p2861
tp2862
F6
s(V_Desterham_
g8
tp2863
F1
s(Vrobust
g13
tp2864
F2
s(Vthus
S'RB'
p2865
tp2866
F22
s(Vlately
g64
tp2867
F3
s(g59
g8
tp2868
F20
s(g263
g68
tp2869
F3
s(Vis
g107
tp2870
F185
s(g55
g315
tp2871
F2
s(VBequest
g34
tp2872
F1
s(VWarrior
g4
tp2873
F1
s(Vsoon
S'RB'
p2874
tp2875
F33
s(Vliv
g13
tp2876
F1
s(V_Balzora_
g24
tp2877
F1
s(V_Ternate_
g8
tp2878
F1
s(VVisit
g4
tp2879
F6
s(Ventertain
g73
tp2880
F3
s(VMysteries
g68
tp2881
F1
s(g13
g59
tp2882
F5
s(V_Jesrad_
g8
tp2883
F3
s(Vactive
S'JJ'
p2884
tp2885
F4
s(VPost
g8
tp2886
F4
s(VBehold
g4
tp2887
F1
s(VAmphitheatre
g4
tp2888
F2
s(VParty
S'NNP'
p2889
tp2890
F5
s(g4
g347
tp2891
F6
s(Vresembled
g84
tp2892
F1
s(VEmpire
g4
tp2893
F3
s(Vwept
g8
tp2894
F1
s(VAssurance
g4
tp2895
F1
s(VBladder
g4
tp2896
F3
s(VVictor
g4
tp2897
F10
s(Vminute
g8
tp2898
F1
s(Vingenuous
g13
tp2899
F3
s(V_Almonza_
g8
tp2900
F1
s(VTrifles
g38
tp2901
F1
s(VOpinion
g8
tp2902
F3
s(Vwarmest
g34
tp2903
F1
s(Vexcepted
g84
tp2904
F1
s(Vdistemper
g8
tp2905
F1
s(VInsulter
g4
tp2906
F1
s(Vvigilant
g13
tp2907
F1
s(VTendimus
g4
tp2908
F1
s(Vinvoluntary
g13
tp2909
F1
s(Voff
g271
tp2910
F13
s(Vfair
g13
tp2911
F7
s(VFuneral
g4
tp2912
F2
s(Vstrongest
g34
tp2913
F1
s(Vinflam
g13
tp2914
F1
s(Vcutting
g77
tp2915
F2
s(Vstands
g55
tp2916
F2
s(VHardness
g4
tp2917
F1
s(g106
g73
tp2918
F22
s(S'WRB'
p2919
g73
tp2920
F2
s(VComrade
g4
tp2921
F6
s(Vsaying
g8
tp2922
F1
s(VTruth
g4
tp2923
F5
s(g383
g263
tp2924
F9
s(Vinfallible
g13
tp2925
F3
s(Vsolemn
g13
tp2926
F5
s(S'PRP'
p2927
g8
tp2928
F10
s(g188
g33
tp2929
F21
s(VLeather
g8
tp2930
F1
s(VSecret
g4
tp2931
F2
s(S'PRP'
p2932
g84
tp2933
F595
s(Vhappening
g77
tp2934
F1
s(VWorld
g8
tp2935
F1
s(VConfident
g4
tp2936
F1
s(VHad
g4
tp2937
F1
s(g621
g4
tp2938
F7
s(VRing
g77
tp2939
F1
s(Vhelp
g24
tp2940
F2
s(Vimaginable
g13
tp2941
F3
s(Vgeneral
g13
tp2942
F8
s(V_Moabdar_
g4
tp2943
F4
s(VWife
g8
tp2944
F3
s(Venrich
g13
tp2945
F2
s(Vrais
g13
tp2946
F1
s(Vtowards
g84
tp2947
F2
s(Vdivine
g13
tp2948
F2
s(Vhonest
g34
tp2949
F1
s(g84
g122
tp2950
F23
s(Vpaus
g84
tp2951
F1
s(Vbecome
g8
tp2952
F1
s(VMaids
g4
tp2953
F1
s(Vstrove
g8
tp2954
F1
s(VHeavens
g55
tp2955
F1
s(g122
S'.'
tp2956
F29
s(Vpast
g64
tp2957
F1
s(V_Chance_
g4
tp2958
F2
s(Vtogether
g64
tp2959
F14
s(Vindolent
g13
tp2960
F1
s(g79
g86
tp2961
F11
s(Vsha
g73
tp2962
F1
s(V_Babylonish_
g4
tp2963
F1
s(V'twere
g64
tp2964
F1
s(Vhunt
g24
tp2965
F1
s(VDecay
g4
tp2966
F1
s(VStorm
g4
tp2967
F1
s(VQueen
g8
tp2968
F2
s(Vhot-headed
g13
tp2969
F1
s(g8
g8
tp2970
F63
s(Vgiven
S'VBN'
p2971
tp2972
F1
s(VPrisoner
g4
tp2973
F4
s(Vprov
g84
tp2974
F1
s(VWishes
g4
tp2975
F1
s(Vproceeds
g38
tp2976
F2
s(Vunexpected
g13
tp2977
F11
s(VTipstaffs
g4
tp2978
F1
s(Vcomply
g24
tp2979
F3
s(Vcloser
g59
tp2980
F1
s(Vfetch
g24
tp2981
F3
s(Vretir
g70
tp2982
F1
s(VSweat
g8
tp2983
F1
s(Vsmall
S'JJ'
p2984
tp2985
F14
s(Vserving
g77
tp2986
F1
s(g315
g1191
tp2987
F2
s(VDoctor
g8
tp2988
F1
s(Vowing
g77
tp2989
F1
s(VEncomiums
g38
tp2990
F1
s(Vfrom
g609
tp2991
F95
s(Vhear
g73
tp2992
F1
s(Vintrude
g24
tp2993
F1
s(Vdesire
g24
tp2994
F1
s(VGrief
g4
tp2995
F2
s(VDebate
g4
tp2996
F3
s(Vsurest
g34
tp2997
F1
s(Vblue
g8
tp2998
F1
s(VCompanion
g8
tp2999
F3
s(VEngagement
g4
tp3000
F1
s(Vinstructive
g13
tp3001
F2
s(Vfill
g122
tp3002
F1
s(VAdvice
g4
tp3003
F1
s(g89
g715
tp3004
F6
s(Vimprinted
g70
tp3005
F1
s(VMutes
g4
tp3006
F1
s(g24
g316
tp3007
F2
s(Vlavish
g13
tp3008
F5
s(VConcord
g4
tp3009
F1
s(VBenefaction
g4
tp3010
F1
s(VMistress
g8
tp3011
F3
s(Vcame
S'VBD'
p3012
tp3013
F20
s(V_Ogul_
g24
tp3014
F1
s(Vtestified
g70
tp3015
F1
s(V_Lebanon_
g4
tp3016
F1
s(Vestablish
g1141
tp3017
F2
s(Vexhibited
g70
tp3018
F1
s(VThoughts
g4
tp3019
F1
s(Vnow
S'RB'
p3020
tp3021
F27
s(VWing
g8
tp3022
F1
s(V_Zadig's_
g315
tp3023
F1
s(VSpecific
g4
tp3024
F1
s(Vreclining
g77
tp3025
F1
s(VRIDDLES
g4
tp3026
F1
s(VFellow
g4
tp3027
F5
s(VJustice
g4
tp3028
F4
s(Vfantastic
g13
tp3029
F1
s(Vaccomplish
g24
tp3030
F2
s(VShoulders
g38
tp3031
F1
s(Vexalted
g13
tp3032
F2
s(VAdmittance
g8
tp3033
F2
s(VCelestial
g4
tp3034
F2
s(Vburst
g24
tp3035
F1
s(g534
g4
tp3036
F3
s(VWings
g38
tp3037
F1
s(VAges
g4
tp3038
F1
s(Vjudge
g24
tp3039
F1
s(V_Setoc_
g73
tp3040
F1
s(Vgorg
g70
tp3041
F1
s(S')'
g728
tp3042
F2
s(Vpretty
g64
tp3043
F2
s(Vseems
S'VBZ'
p3044
tp3045
F4
s(Vpress
g8
tp3046
F1
s(g316
g4
tp3047
F66
s(Vdisclose
S'VB'
p3048
tp3049
F1
s(Vcompleat
g13
tp3050
F1
s(VSpirit
g4
tp3051
F2
s(VPieces
g68
tp3052
F3
s(Voverwhelm
g73
tp3053
F1
s(Vtill
g19
tp3054
F1
s(Vover
g19
tp3055
F21
s(V_Syrian_
g13
tp3056
F1
s(Vinspir
g8
tp3057
F1
s(g64
g34
tp3058
F2
s(Vwhereon
g73
tp3059
F1
s(g2024
g670
tp3060
F1
s(g13
S'VBD'
p3061
tp3062
F19
s(VTravellers
g38
tp3063
F2
s(Vaim
g73
tp3064
F1
s(Vstartled
g84
tp3065
F1
s(VSun
S'NNP'
p3066
tp3067
F8
s(Vinfinite
g13
tp3068
F4
s(Vendeavours
g55
tp3069
F1
s(Vmisbecoming
g8
tp3070
F1
s(Vunperceiv
g13
tp3071
F1
s(Vyours
g8
tp3072
F1
s(Vexclusive
S'JJ'
p3073
tp3074
F1
s(g271
S','
tp3075
F18
s(Vshut
g70
tp3076
F1
s(g4
g290
tp3077
F10
s(g38
S','
tp3078
F178
s(g8
S'.'
tp3079
F237
s(VYoungest
g4
tp3080
F1
s(Vtransported
g13
tp3081
F1
s(g409
g13
tp3082
F210
s(V_Almona_
g4
tp3083
F3
s(Vborn
g38
tp3084
F1
s(Vc.
g8
tp3085
F1
s(Vcover
g13
tp3086
F2
s(VHorror
g4
tp3087
F2
s(Vread
g70
tp3088
F2
s(Vjustly-admir
g13
tp3089
F1
s(Vacknowledge
g73
tp3090
F1
s(g4
g68
tp3091
F6
s(VTorments
g38
tp3092
F1
s(Vhowever
S'RB'
p3093
tp3094
F31
s(Valleviated
g84
tp3095
F1
s(VReflections
g38
tp3096
F5
s(Vbestowed
g84
tp3097
F1
s(VCast
g4
tp3098
F1
s(VPotion
g8
tp3099
F1
s(Vhandsomest
g34
tp3100
F1
s(V_Egyptian_
g24
tp3101
F1
s(Vrailing
g77
tp3102
F1
s(Vprivately
S'RB'
p3103
tp3104
F1
s(Vaudible
g13
tp3105
F2
s(VDeath
g4
tp3106
F11
s(VState
g4
tp3107
F11
s(VSeries
g8
tp3108
F5
s(VThing
g77
tp3109
F2
s(Vtimely
g13
tp3110
F1
s(Vexerted
g84
tp3111
F1
s(Vtwinkles
g38
tp3112
F1
s(VFishing
g4
tp3113
F1
s(VEntertainment
g4
tp3114
F4
s(VHabitation
g4
tp3115
F1
s(Vfought
g8
tp3116
F1
s(Vexact
g13
tp3117
F2
s(Vpresent
g13
tp3118
F7
s(g1868
g13
tp3119
F72
s(VPrime-Minister
g8
tp3120
F1
s(VTradesmen
g38
tp3121
F1
s(VException
g8
tp3122
F1
s(Vthresh
g24
tp3123
F1
s(Vknowing
g77
tp3124
F2
s(VResemblance
g4
tp3125
F1
s(Vsuspected
g13
tp3126
F1
s(Vdisconsolate
g73
tp3127
F1
s(VSaffron
g4
tp3128
F1
s(VShower
g4
tp3129
F1
s(g8
g4
tp3130
F97
s(g59
S'.'
tp3131
F3
s(Vnor
S'CC'
p3132
tp3133
F11
s(Vthereof
g8
tp3134
F2
s(VSabres
g4
tp3135
F1
s(VMidst
g4
tp3136
F1
s(Vmade
g70
tp3137
F27
s(Vreign
g55
tp3138
F1
s(Vreply
g8
tp3139
F2
s(VFace
g4
tp3140
F2
s(V_Egyptian's_
g4
tp3141
F1
s(VNuisance
g4
tp3142
F1
s(VRighteous
g4
tp3143
F1
s(Vcontiguous
g13
tp3144
F1
s(VCity
S'NNP'
p3145
tp3146
F4
s(Vpointed
g70
tp3147
F1
s(VConjunction
g8
tp3148
F1
s(Vreturn
g13
tp3149
F2
s(VCourt-Marshals
g38
tp3150
F1
s(VCoquettish
g13
tp3151
F1
s(Vangelick
g13
tp3152
F1
s(VPedagogue
g4
tp3153
F1
s(Vcompleatly
g64
tp3154
F1
s(VBeing
g77
tp3155
F3
s(VNone
g8
tp3156
F1
s(VDifficulty
g8
tp3157
F1
s(VHigh
g4
tp3158
F2
s(VDistraction
g4
tp3159
F1
s(Vcommended
g84
tp3160
F1
s(V'd
g64
tp3161
F3
s(g4
g84
tp3162
F236
s(Vbuild
g24
tp3163
F1
s(V_Dervise_
g8
tp3164
F1
s(Vbare
g8
tp3165
F1
s(Vcaress
g13
tp3166
F1
s(g84
g38
tp3167
F10
s(VProtestations
g38
tp3168
F1
s(g84
g479
tp3169
F81
s(V_When
g8
tp3170
F1
s(Vbe
g1868
tp3171
F206
s(VOutrage
g8
tp3172
F1
s(V_Corner_
g8
tp3173
F1
s(g479
g731
tp3174
F10
s(g86
S','
tp3175
F27
s(VMad-man
g13
tp3176
F1
s(Vmurder
g24
tp3177
F1
s(VHeels
g38
tp3178
F2
s(V't
g122
tp3179
F2
s(Vbecome
g70
tp3180
F4
s(Vcruel
g8
tp3181
F2
s(Vtwice
g64
tp3182
F1
s(g136
g4
tp3183
F139
s(g263
g188
tp3184
F7
s(Vregard
g8
tp3185
F4
s(VNight
g4
tp3186
F22
s(Vforasmuch
g13
tp3187
F2
s(g79
g479
tp3188
F3
s(VLovers
g38
tp3189
F1
s(Vthreescore
g8
tp3190
F1
s(VShade
g4
tp3191
F1
s(Varriv
g13
tp3192
F3
s(VFate_
g4
tp3193
F1
s(V_Form_
g4
tp3194
F1
s(VVIRG
g4
tp3195
F1
s(Vsoftest
g8
tp3196
F1
s(Vawful
g13
tp3197
F1
s(g199
g84
tp3198
F4
s(V_Itimadoulet_
g8
tp3199
F1
s(V_Sudorific_
g8
tp3200
F1
s(Vtore
g84
tp3201
F1
s(Vseven
S'CD'
p3202
tp3203
F1
s(Vtriumph
g55
tp3204
F1
s(VTigers
g4
tp3205
F1
s(g79
g763
tp3206
F44
s(VGlory
g4
tp3207
F1
s(Vbreak
g24
tp3208
F2
s(VDarling
g4
tp3209
F4
s(Vplentiful
g13
tp3210
F1
s(V_Free-booters_
g13
tp3211
F1
s(Vadmit
g8
tp3212
F2
s(g107
g1884
tp3213
F9
s(VAnimals
g38
tp3214
F1
s(Vobstinately
g64
tp3215
F1
s(VVoices
g38
tp3216
F2
s(Vjoint-Slave
g8
tp3217
F1
s(Vwearied
g13
tp3218
F1
s(g479
g55
tp3219
F1
s(VHigh-way
g4
tp3220
F1
s(Vbeing
g234
tp3221
F47
s(VAdversary
g4
tp3222
F1
s(VContemplations
g38
tp3223
F1
s(VParrot
g4
tp3224
F3
s(Vfine
g13
tp3225
F3
s(VHost
g8
tp3226
F2
s(Vbeat
g84
tp3227
F2
s(Vlove
g24
tp3228
F1
s(g24
g271
tp3229
F25
s(Vsingular
g24
tp3230
F1
s(VHistory
g8
tp3231
F1
s(VCivil
g4
tp3232
F1
s(Vabsolute
g13
tp3233
F2
s(VOrion
g4
tp3234
F1
s(VMeal
g4
tp3235
F3
s(VCommendation
g8
tp3236
F2
s(Vyourself
g621
tp3237
F7
s(V_Term_
g4
tp3238
F1
s(Vsnapt
g70
tp3239
F1
s(VLaw
g8
tp3240
F1
s(VApprobation
g4
tp3241
F3
s(Vaddress
g84
tp3242
F1
s(VCheeks
g8
tp3243
F1
s(Vinterpret
g24
tp3244
F1
s(g2583
g77
tp3245
F25
s(Vreceiving
g77
tp3246
F1
s(VOfficer
g8
tp3247
F1
s(Vfrail
g73
tp3248
F1
s(Vadore
g19
tp3249
F1
s(VWar
g4
tp3250
F4
s(Vacknowledg
g13
tp3251
F3
s(VDomesticks
g4
tp3252
F2
s(Vinform
g8
tp3253
F3
s(VFlight
g8
tp3254
F1
s(g24
S'VBZ'
p3255
tp3256
F1
s(S'.'
g24
tp3257
F1
s(VQueries
g38
tp3258
F1
s(Vboil
g24
tp3259
F1
s(VInformer
g4
tp3260
F3
s(Vasks
g55
tp3261
F1
s(VFlame
g8
tp3262
F1
s(S','
g79
tp3263
F96
s(Vequal
g24
tp3264
F1
s(Vninety
g8
tp3265
F1
s(VNights
g4
tp3266
F1
s(Vprovided
g70
tp3267
F2
s(VEunuch
g13
tp3268
F1
s(VOffice
g4
tp3269
F1
s(Varose
g73
tp3270
F1
s(Vdiscover
g24
tp3271
F4
s(Vdespair
g8
tp3272
F1
s(VResentment
g4
tp3273
F8
s(Vtouches
g55
tp3274
F1
s(VHyphenated
g70
tp3275
F1
s(VParty_
g4
tp3276
F1
s(VGreatness
g4
tp3277
F1
s(Vdarted
g70
tp3278
F1
s(Valive
g8
tp3279
F1
s(V_Arabia_
g4
tp3280
F7
s(VExcursions
g38
tp3281
F2
s(VSouls
g4
tp3282
F1
s(VChieftains
g38
tp3283
F1
s(Vmarried
g84
tp3284
F2
s(Vmet
g8
tp3285
F1
s(Vconceiv
g8
tp3286
F1
s(Veither
g130
tp3287
F4
s(Vstopp
g84
tp3288
F1
s(VInfection
g4
tp3289
F1
s(g13
g13
tp3290
F72
s(Vcostly
S'JJ'
p3291
tp3292
F5
s(VParticulars
g4
tp3293
F1
s(Vtranslated
g70
tp3294
F1
s(VSolemnity
g4
tp3295
F1
s(Vdistill
g24
tp3296
F1
s(Vbut
g1884
tp3297
F221
s(VLoan
g4
tp3298
F1
s(Vinevitably
g64
tp3299
F1
s(VGazettes
g4
tp3300
F1
s(VAll
g285
tp3301
F9
s(VVerses
g38
tp3302
F2
s(VTransport
g4
tp3303
F4
s(Vlifting
g77
tp3304
F1
s(Vlook
g13
tp3305
F1
s(VLetter
g4
tp3306
F3
s(Veternal
g13
tp3307
F4
s(S','
g347
tp3308
F68
s(Vthirty
g8
tp3309
F2
s(VBusiness
g4
tp3310
F1
s(VDexterity
g4
tp3311
F3
s(Vshew
g73
tp3312
F1
s(g64
g59
tp3313
F20
s(VDischarge
g4
tp3314
F1
s(g13
g234
tp3315
F4
s(VAltar
g4
tp3316
F1
s(VDame
g4
tp3317
F2
s(Vrestless
g8
tp3318
F1
s(VSuspicion
g4
tp3319
F1
s(VAt
S'IN'
p3320
tp3321
F20
s(g1893
g4
tp3322
F1
s(VSay
g73
tp3323
F1
s(Vmost
g1893
tp3324
F69
s(Vinvite
g24
tp3325
F1
s(Vsooth
g55
tp3326
F1
s(VPrecedence
g8
tp3327
F1
s(VDoatard
g4
tp3328
F1
s(VPupil
g4
tp3329
F1
s(Vbroken
g13
tp3330
F3
s(Vshortly
g64
tp3331
F1
s(VNeighbour
g4
tp3332
F1
s(VSolidity
g4
tp3333
F1
s(S','
g31
tp3334
F9
s(Vflatter
g64
tp3335
F1
s(Vdischarg
g8
tp3336
F1
s(VOffal
g4
tp3337
F1
s(Vexpected
g70
tp3338
F1
s(VContemplation
g4
tp3339
F1
s(V_Apis_
g4
tp3340
F1
s(VAcclamations
g38
tp3341
F2
s(VRegent
g4
tp3342
F1
s(Voffer
g8
tp3343
F3
s(Vhappen
g24
tp3344
F6
s(Vruin
g13
tp3345
F1
s(VJealousy
g13
tp3346
F1
s(Vgrown
g13
tp3347
F1
s(V_Bramin_
g8
tp3348
F1
s(Vcondescended
g84
tp3349
F3
s(Vvoluntarily
g64
tp3350
F1
s(VInfluence
g8
tp3351
F3
s(VHeat
g4
tp3352
F2
s(VProperty
g4
tp3353
F1
s(S','
g4
tp3354
F133
s(Vfairly
S'RB'
p3355
tp3356
F1
s(VSpectator
g8
tp3357
F1
s(Vradiant
g13
tp3358
F1
s(VWit
g8
tp3359
F1
s(Valong
g19
tp3360
F2
s(VImpressions
g38
tp3361
F1
s(VCandles
g4
tp3362
F2
s(Vguided
g70
tp3363
F1
s(S','
g8
tp3364
F119
s(Vmarch
g24
tp3365
F1
s(VRose-coloured
g13
tp3366
F1
s(V_signifies
g38
tp3367
F1
s(VKnowledge
g4
tp3368
F3
s(VSearch
g4
tp3369
F2
s(Vwhole
g13
tp3370
F33
s(VGrandees
g38
tp3371
F1
s(VParents
g38
tp3372
F2
s(Vbreathless
g8
tp3373
F1
s(VVail
g8
tp3374
F1
s(Vpurcha
g13
tp3375
F1
s(g68
S'.'
tp3376
F9
s(VTalent
g8
tp3377
F2
s(Vambitious
g13
tp3378
F1
s(Vbrisk
g8
tp3379
F1
s(VSweets
g4
tp3380
F1
s(Vmingling
g77
tp3381
F1
s(VHousings
g4
tp3382
F2
s(Vstark-mad
g13
tp3383
F1
s(Vsaving
g77
tp3384
F2
s(Vwhither
g55
tp3385
F1
s(V20,000
g31
tp3386
F1
s(V_Cap-a-pee_
g13
tp3387
F1
s(VPhysician
g8
tp3388
F4
s(Vbefore
g24
tp3389
F2
s(VHope
g4
tp3390
F1
s(Vtrouble
S'NN'
p3391
tp3392
F1
s(Vexasperated
g70
tp3393
F1
s(g73
g1884
tp3394
F2
s(VAntagonists
g38
tp3395
F2
s(Vaway
g271
tp3396
F6
s(g8
g38
tp3397
F19
s(Vbigotted
g13
tp3398
F1
s(Vnice
g13
tp3399
F1
s(VFeatures
g38
tp3400
F1
s(VIt
g2932
tp3401
F13
s(Vdecypher
g24
tp3402
F1
s(Vflying
g77
tp3403
F1
s(Vvouchsafing
g77
tp3404
F1
s(V_Solomon_
g4
tp3405
F1
s(Vreceiv
g84
tp3406
F1
s(Vample
g13
tp3407
F1
s(V*_Arnon's_
g4
tp3408
F1
s(g136
g101
tp3409
F14
s(VMeans
g68
tp3410
F7
s(Vmixt
g8
tp3411
F1
s(Vlow
g13
tp3412
F1
s(Vgroundless
g13
tp3413
F1
s(Vangelic
g13
tp3414
F2
s(VFree-booter_
g4
tp3415
F1
s(VMonarchs
g4
tp3416
F1
s(V_Zadig_
g55
tp3417
F2
s(Vdesist
g24
tp3418
F1
s(Vsuccessful
S'JJ'
p3419
tp3420
F1
s(Vimaginable
g8
tp3421
F1
s(Vlittle
g13
tp3422
F37
s(g84
g4
tp3423
F32
s(Vside
g8
tp3424
F1
s(Vtowards
g24
tp3425
F2
s(Vless
g59
tp3426
F4
s(VCommandment
g4
tp3427
F1
s(g38
g106
tp3428
F1
s(Vclad
g8
tp3429
F1
s(Vexpatiated
g84
tp3430
F1
s(Vpromis
g8
tp3431
F2
s(VVolta
g4
tp3432
F1
s(Vmounted
g70
tp3433
F1
s(Vrectify
g24
tp3434
F1
s(Vobserv
g8
tp3435
F1
s(Vresolve
g24
tp3436
F1
s(Voffer
g73
tp3437
F1
s(VEvening
g8
tp3438
F1
s(Vquick
g13
tp3439
F1
s(VLists
g38
tp3440
F2
s(Vintelligently
g64
tp3441
F1
s(g316
S','
tp3442
F1
s(Venamell
g64
tp3443
F1
s(VControversy
g8
tp3444
F1
s(Vsober
g24
tp3445
F1
s(VInterrogatory
g4
tp3446
F1
s(Ventred
g84
tp3447
F3
s(g315
g107
tp3448
F20
s(Vhimself
S'PRP'
p3449
tp3450
F58
s(Vconfuted
g84
tp3451
F1
s(VMoreover
S'RB'
p3452
tp3453
F1
s(VRazor
g4
tp3454
F1
s(V_Basilisk_
g8
tp3455
F10
s(Vinexorable
g13
tp3456
F2
s(VRanks
g4
tp3457
F2
s(VNarrowness
g4
tp3458
F1
s(VPay-masters
g38
tp3459
F1
s(Vdrest
g24
tp3460
F1
s(VSeveral
g13
tp3461
F1
s(Vdeposited
g70
tp3462
F4
s(VSilver
g4
tp3463
F6
s(Vadvanc
g73
tp3464
F2
s(g55
g31
tp3465
F5
s(VEye
g4
tp3466
F17
s(VTalk
g8
tp3467
F1
s(VHelp
g4
tp3468
F1
s(Vgilded
g13
tp3469
F1
s(Vgot
g70
tp3470
F5
s(Vparried
g70
tp3471
F1
s(Vfamous
g13
tp3472
F3
s(Vsilk
g8
tp3473
F1
s(VWords
g4
tp3474
F7
s(Vwarded
g84
tp3475
F1
s(VProcess
g4
tp3476
F2
s(Vkind
S'NN'
p3477
tp3478
F5
s(VExpanse
g4
tp3479
F1
s(VEunuch
g4
tp3480
F8
s(g101
g13
tp3481
F9
s(Vsuffer
g24
tp3482
F3
s(g59
g13
tp3483
F7
s(VMonument
g4
tp3484
F1
s(VSpeech
g4
tp3485
F1
s(Vhandsome
g13
tp3486
F4
s(VPatients
g38
tp3487
F1
s(Vcapacious
g13
tp3488
F1
s(g84
g728
tp3489
F162
s(Varrived
g70
tp3490
F1
s(VBloom
g4
tp3491
F3
s(Vclosely
S'RB'
p3492
tp3493
F2
s(Vcondemn
g73
tp3494
F1
s(g84
g84
tp3495
F8
s(VMaster
g8
tp3496
F9
s(V'd
g122
tp3497
F708
s(V_Fair
g8
tp3498
F1
s(Vprivate
S'JJ'
p3499
tp3500
F7
s(VReader
g4
tp3501
F2
s(VOccasion
g4
tp3502
F2
s(g64
S':'
tp3503
F29
s(Vheadlong
g24
tp3504
F1
s(Vcopy
g13
tp3505
F1
s(VStorm
g8
tp3506
F1
s(VAddress
g8
tp3507
F2
s(Varbitrary
g24
tp3508
F1
s(VProfession
g4
tp3509
F1
s(g409
g8
tp3510
F310
s(V_Sheat_
g8
tp3511
F1
s(g77
g59
tp3512
F1
s(VAmphitheatrical
g13
tp3513
F1
s(VConstitution
g8
tp3514
F1
s(Vlive
g24
tp3515
F2
s(Vaddressing
g77
tp3516
F1
s(VFugitive
g4
tp3517
F1
s(g621
g55
tp3518
F116
s(VBull
g4
tp3519
F1
s(VFeet
g8
tp3520
F1
s(VInfidel
g4
tp3521
F2
s(Vgallop
g8
tp3522
F1
s(VLodgings
g38
tp3523
F1
s(g199
g36
tp3524
F3
s(g13
g101
tp3525
F1
s(Vroaring
g77
tp3526
F1
s(VPremises
g38
tp3527
F2
s(Vshriek
g84
tp3528
F1
s(VDictates
g55
tp3529
F1
s(Vcontradict
g8
tp3530
F1
s(VImpunity
g4
tp3531
F2
s(Vseeking
S'VBG'
p3532
tp3533
F1
s(Vreads
g38
tp3534
F1
s(Vsprawling
g77
tp3535
F3
s(Vstrictly
g64
tp3536
F2
s(VTitles
g68
tp3537
F1
s(VDefinitive
g4
tp3538
F1
s(V_Scythians_
g4
tp3539
F1
s(Vpleasing
g8
tp3540
F1
s(Vfriendly
g13
tp3541
F4
s(Vread
g73
tp3542
F1
s(Vthrow
g24
tp3543
F8
s(VPart
g4
tp3544
F10
s(Vshort
g64
tp3545
F1
s(VSeraglio
g8
tp3546
F1
s(Vself-Consciousness
g8
tp3547
F1
s(VGods
g38
tp3548
F2
s(VDog-star
g4
tp3549
F1
s(VItalic
g13
tp3550
F1
s(Vconcluded
g84
tp3551
F6
s(Vattach
g64
tp3552
F1
s(g54
g8
tp3553
F38
s(VVigour
g4
tp3554
F1
s(VQueens
g38
tp3555
F1
s(VPaper
g4
tp3556
F1
s(S','
g19
tp3557
F703
s(Vhither
g8
tp3558
F4
s(VWatch
g8
tp3559
F1
s(VCourse.
g4
tp3560
F1
s(g77
g1003
tp3561
F22
s(Vabase
g24
tp3562
F1
s(VSalutation
g8
tp3563
F1
s(V_Ogul's_
g13
tp3564
F1
s(Vpass
g55
tp3565
F1
s(V_Hermes_
g4
tp3566
F1
s(VHonours
g4
tp3567
F1
s(Vswept
g24
tp3568
F1
s(Vattended
g84
tp3569
F9
s(VLawyer
g4
tp3570
F1
s(Vterrestrial
g13
tp3571
F1
s(VMother
g4
tp3572
F4
s(Vreleas
g38
tp3573
F1
s(VJUDGMENTS
g4
tp3574
F1
s(VEsteem
g4
tp3575
F1
s(Vdeclar
g13
tp3576
F1
s(Vknow
g73
tp3577
F9
s(Vviolent
g13
tp3578
F2
s(g79
g55
tp3579
F23
s(Vrescued
g84
tp3580
F1
s(VSail
g4
tp3581
F1
s(g670
g621
tp3582
F466
s(VAstarte
g8
tp3583
F1
s(VSigh
g4
tp3584
F5
s(Vdescend
g8
tp3585
F1
s(Vaddress
g8
tp3586
F3
s(Vinjur
g8
tp3587
F2
s(Vcompos
g13
tp3588
F1
s(Vimagine
g73
tp3589
F1
s(VReturn
g8
tp3590
F1
s(Vpart
S'NN'
p3591
tp3592
F6
s(V_Desterham_
g4
tp3593
F1
s(VTheir
g36
tp3594
F8
s(Vborrow
g73
tp3595
F1
s(Vrefund
g24
tp3596
F1
s(g59
g122
tp3597
F1
s(g315
g1425
tp3598
F1
s(Vfrank
g13
tp3599
F1
s(Ventertain
g130
tp3600
F1
s(Vreturn
g24
tp3601
F2
s(VFemale
g4
tp3602
F5
s(Vkindled
g70
tp3603
F1
s(g290
g64
tp3604
F3
s(VBond-slave
g4
tp3605
F1
s(g64
g64
tp3606
F166
s(VVassal
g4
tp3607
F3
s(V_Egyptian_
g38
tp3608
F1
s(Vo
g13
tp3609
F1
s(Vof_
g8
tp3610
F1
s(VHair
g8
tp3611
F1
s(Vstranger
g8
tp3612
F1
s(Vsolve
g24
tp3613
F2
s(g621
S'('
tp3614
F1
s(V_Almona_
g8
tp3615
F4
s(Vbesides
g38
tp3616
F1
s(Vwiser
g8
tp3617
F1
s(Vthee
g64
tp3618
F2
s(Vexpressive
g8
tp3619
F1
s(Vamongst
g84
tp3620
F1
s(VBeds
g38
tp3621
F1
s(g24
g290
tp3622
F3
s(VPrime-Minister
g4
tp3623
F1
s(g136
g77
tp3624
F31
s(Vsedate
g24
tp3625
F1
s(Vunspotted
g13
tp3626
F1
s(Vbig
S'JJ'
p3627
tp3628
F3
s(Vheretical
g13
tp3629
F2
s(g122
g271
tp3630
F4
s(Vbloody
g8
tp3631
F1
s(VGrounds
g70
tp3632
F1
s(VTrifle
g4
tp3633
F2
s(Vconfess
g24
tp3634
F3
s(VMonarch
g4
tp3635
F9
s(VPalace
g4
tp3636
F4
s(Vclaim
g8
tp3637
F1
s(VVillage
g8
tp3638
F2
s(Vdevise
g24
tp3639
F1
s(VGrandees
g4
tp3640
F2
s(VRespite
g4
tp3641
F1
s(Vwhere
g534
tp3642
F30
s(VStable
g4
tp3643
F2
s(Vlove
g73
tp3644
F3
s(Vmention
g24
tp3645
F1
s(VKnight
g4
tp3646
F4
s(Vare
g669
tp3647
F97
s(Vshorter
g8
tp3648
F1
s(Vsecur
g70
tp3649
F2
s(Vunruly
g13
tp3650
F1
s(Vkick
g24
tp3651
F1
s(VMANUSCRIPT
g4
tp3652
F1
s(Vcompleat
g8
tp3653
F1
s(Vwalkest
g34
tp3654
F1
s(Vcatch
g24
tp3655
F4
s(Vmine
g73
tp3656
F1
s(Vaccompany
g24
tp3657
F1
s(Vplay
g8
tp3658
F2
s(Vabove
g19
tp3659
F4
s(VLi
g4
tp3660
F1
s(Vtook
S'VBD'
p3661
tp3662
F37
s(VSmart
g4
tp3663
F2
s(g106
g34
tp3664
F1
s(V_Moabdar_
g8
tp3665
F5
s(VWhere
g101
tp3666
F2
s(VHousewife
g4
tp3667
F1
s(VNothing
g8
tp3668
F4
s(VOunces
g68
tp3669
F4
s(Vtransported
g84
tp3670
F1
s(Vcontinued
g84
tp3671
F3
s(Vcouragious
g13
tp3672
F1
s(Vwarmer
g59
tp3673
F2
s(Vproceeded
g84
tp3674
F2
s(Vsolv
g84
tp3675
F1
s(Vearthly
g13
tp3676
F1
s(VCompanions
g38
tp3677
F2
s(Varm
g13
tp3678
F1
s(Vluscious
g13
tp3679
F1
s(VCountry
g8
tp3680
F5
s(VCuirass
g4
tp3681
F3
s(Vought
g122
tp3682
F9
s(Vbecause
g64
tp3683
F1
s(Vstrongly
g64
tp3684
F1
s(VPage
g4
tp3685
F1
s(Vfreely
g64
tp3686
F1
s(VUnderstanding
g4
tp3687
F1
s(g271
S':'
tp3688
F4
s(Vlearnt
g70
tp3689
F1
s(VSentence
g4
tp3690
F4
s(Vscandalous
g13
tp3691
F1
s(Vas
g19
tp3692
F283
s(S')'
S'MD'
p3693
tp3694
F1
s(Vswell
g8
tp3695
F1
s(VEstate
S'NNP'
p3696
tp3697
F5
s(Vgreat
S'JJ'
p3698
tp3699
F19
s(VDisappointment
g8
tp3700
F1
s(V_New
g13
tp3701
F1
s(VSuggestions
g38
tp3702
F1
s(VPatroness
g4
tp3703
F1
s(V_Cletofis_
g24
tp3704
F1
s(Veasy
g13
tp3705
F3
s(Vsold
g70
tp3706
F2
s(VTimes
g38
tp3707
F3
s(Vacquir
g13
tp3708
F1
s(VWickedness
g4
tp3709
F1
s(Vexecuted
g84
tp3710
F1
s(VExtent
g4
tp3711
F1
s(g13
g68
tp3712
F34
s(Vsecret
g13
tp3713
F7
s(VSurface
g4
tp3714
F2
s(Vtaught
g84
tp3715
F1
s(Vnumerous
g13
tp3716
F2
s(VLoss
g8
tp3717
F1
s(VSecurity
g8
tp3718
F1
s(Vengage
g24
tp3719
F2
s(Venter
g24
tp3720
F2
s(VDetraction
g4
tp3721
F1
s(V_Syria_
g4
tp3722
F3
s(Vbreaking
g77
tp3723
F1
s(VLogic
g4
tp3724
F1
s(Vsnatch
g24
tp3725
F2
s(Vcreated
g84
tp3726
F1
s(g1003
g77
tp3727
F4
s(VFind
g24
tp3728
F1
s(Vcall
g73
tp3729
F1
s(Vdiscovers
g55
tp3730
F1
s(Vdirect
g24
tp3731
F1
s(g550
g38
tp3732
F1
s(Vqualified
g70
tp3733
F1
s(VBasilisk_
g4
tp3734
F1
s(VMan
g8
tp3735
F32
s(Vfixt
g64
tp3736
F1
s(VDifficulties
g68
tp3737
F1
s(Vprinted
g70
tp3738
F1
s(Vlives
g55
tp3739
F1
s(VLooking-glass
g4
tp3740
F1
s(VBesides
g4
tp3741
F1
s(VDeed
g4
tp3742
F1
s(VTheatre
g4
tp3743
F1
s(Vempty
g13
tp3744
F1
s(VWind
g4
tp3745
F1
s(Vunexecuted
g13
tp3746
F1
s(VWords
g38
tp3747
F9
s(Vforget
g24
tp3748
F1
s(g409
g621
tp3749
F1
s(Vimagin
g55
tp3750
F5
s(Vstudy
g8
tp3751
F1
s(Vtracing
g77
tp3752
F1
s(VReflection
g4
tp3753
F3
s(g199
g33
tp3754
F11
s(Vissued
g70
tp3755
F1
s(VForce
g8
tp3756
F1
s(VSeat
g8
tp3757
F3
s(Vthro
g73
tp3758
F2
s(Vincens
g55
tp3759
F2
s(Vafforded
g84
tp3760
F2
s(V_Orosmades_
g8
tp3761
F2
s(Vpoor
S'JJ'
p3762
tp3763
F11
s(Veating
g8
tp3764
F1
s(V_Arabian_
g13
tp3765
F4
s(g534
g59
tp3766
F1
s(Vlies
g55
tp3767
F4
s(VNotions
g38
tp3768
F2
s(Vpromis
g70
tp3769
F2
s(Vglow
g8
tp3770
F2
s(S'.'
g8
tp3771
F1
s(VKnow
g4
tp3772
F2
s(Vremonstrated
g70
tp3773
F1
s(Vincens
g38
tp3774
F2
s(V_Zadig_
g122
tp3775
F1
s(Vundergone
g70
tp3776
F1
s(VResult
g8
tp3777
F1
s(VHeavens
g4
tp3778
F1
s(VDevice
g4
tp3779
F2
s(VAct
S'NNP'
p3780
tp3781
F1
s(VRegimen
g4
tp3782
F2
s(VVII
g4
tp3783
F2
s(V't
g130
tp3784
F7
s(Vinconsistently
g64
tp3785
F1
s(Vmerry
g8
tp3786
F2
s(Vev'n
g24
tp3787
F1
s(Vbrought
g70
tp3788
F10
s(VKing
g4
tp3789
F64
s(Vdirect
g13
tp3790
F3
s(Vconvinc
g24
tp3791
F1
s(Vdie
g24
tp3792
F9
s(Voutrageous
g13
tp3793
F6
s(Vadorn
g13
tp3794
F1
s(g24
g122
tp3795
F66
s(S'DT'
p3796
S':'
tp3797
F7
s(VIntrepidity
g4
tp3798
F1
s(VStranger
g8
tp3799
F2
s(VEvent
g4
tp3800
F1
s(g106
g19
tp3801
F6
s(Vanswer
g24
tp3802
F1
s(VWord
g4
tp3803
F20
s(Vdoubting
g77
tp3804
F2
s(Vbring
g73
tp3805
F1
s(Vhumbly
g64
tp3806
F1
s(Vthirteen
g24
tp3807
F1
s(Vcast
g24
tp3808
F1
s(VNobody
g4
tp3809
F1
s(Vpray
g130
tp3810
F1
s(Vdestroy
g24
tp3811
F2
s(VSlave
g4
tp3812
F10
s(Vhad
g84
tp3813
F194
s(Vperceiv
g84
tp3814
F1
s(VOut-cry
g8
tp3815
F1
s(Vsuccessively
g64
tp3816
F3
s(V_Egyptian_
g13
tp3817
F2
s(Vaside
g64
tp3818
F2
s(S'('
g70
tp3819
F1
s(g271
g1191
tp3820
F21
s(Vfirst
g13
tp3821
F43
s(VEntrance
g4
tp3822
F1
s(Vinsupportable
g13
tp3823
F1
s(Vamorous
g13
tp3824
F5
s(Vincessantly
g64
tp3825
F1
s(Vafterwards
g38
tp3826
F10
s(VUniverse
g8
tp3827
F3
s(Vmyself
g8
tp3828
F1
s(g316
g38
tp3829
F5
s(Vdiscreet
g13
tp3830
F1
s(VDeportment
g4
tp3831
F3
s(g324
g214
tp3832
F5
s(S')'
g107
tp3833
F1
s(Vassur
g13
tp3834
F1
s(VDomains
g38
tp3835
F1
s(Vblame-worthy
g13
tp3836
F1
s(Vfought
g70
tp3837
F1
s(VGrass
g4
tp3838
F2
s(VRevenge
g4
tp3839
F1
s(Vhappened
g84
tp3840
F1
s(VLove
g73
tp3841
F1
s(Vname
g8
tp3842
F2
s(VBillet
g8
tp3843
F1
s(VList
g8
tp3844
F2
s(Vdispossessing
g77
tp3845
F1
s(Voften
S'RB'
p3846
tp3847
F2
s(Vye
g621
tp3848
F1
s(VCitizen
g4
tp3849
F3
s(VFriends
g38
tp3850
F6
s(VLine
g4
tp3851
F1
s(Vwhoever
g106
tp3852
F2
s(VGuide
g4
tp3853
F1
s(VThing
g8
tp3854
F12
s(Vsentenc
g13
tp3855
F4
s(Vrunning
g77
tp3856
F2
s(VAltars
g4
tp3857
F1
s(VRevenge
g8
tp3858
F1
s(Vmelancholy
g13
tp3859
F1
s(Vknown
g70
tp3860
F4
s(VEmir
g4
tp3861
F1
s(VHeads
g4
tp3862
F1
s(g31
g106
tp3863
F2
s(Vtired
g70
tp3864
F1
s(VXIII
g8
tp3865
F2
s(g24
g34
tp3866
F3
s(Veach
S'DT'
p3867
tp3868
F16
s(Vhunted
g84
tp3869
F2
s(VStead
g4
tp3870
F1
s(g73
g315
tp3871
F1
s(VBook
g4
tp3872
F10
s(Vflew
g84
tp3873
F13
s(Vsort
g8
tp3874
F1
s(g79
g8
tp3875
F3
s(Vweak
S'JJ'
p3876
tp3877
F5
s(Vform
g73
tp3878
F1
s(g77
g38
tp3879
F13
s(VPassions
g4
tp3880
F1
s(VFacility
g8
tp3881
F1
s(VAdvantage
g4
tp3882
F2
s(VCountry
g4
tp3883
F6
s(Vpossessives
g38
tp3884
F1
s(g70
g621
tp3885
F20
s(VMDCCXLIX
g4
tp3886
F1
s(VRight
g13
tp3887
F1
s(VAmazement
g4
tp3888
F1
s(Vwore
g84
tp3889
F1
s(Vrepos
g73
tp3890
F1
s(VShame
g4
tp3891
F1
s(Vjoyful
g13
tp3892
F1
s(Vlisten
g24
tp3893
F1
s(Vhappier
g8
tp3894
F2
s(VEase
g4
tp3895
F3
s(VDisgrace
g8
tp3896
F1
s(Vdefend
g73
tp3897
F1
s(S')'
g33
tp3898
F1
s(VLiquor
g4
tp3899
F1
s(Vponder
g55
tp3900
F1
s(Vexpensive
g13
tp3901
F1
s(Vup
g8
tp3902
F1
s(VExecution
g4
tp3903
F3
s(Vmilitary
g13
tp3904
F1
s(VTurbet
g4
tp3905
F1
s(Vexpatiating
g77
tp3906
F1
s(VLover
g4
tp3907
F5
s(VRoad
g4
tp3908
F6
s(S'PRP$'
p3909
g34
tp3910
F7
s(Vvouchsafe
g24
tp3911
F1
s(Vago
g64
tp3912
F1
s(V_Zadig_
g64
tp3913
F11
s(Vaugust
g13
tp3914
F1
s(VResidue
g4
tp3915
F1
s(Vfenc
g13
tp3916
F1
s(Vplead
g73
tp3917
F1
s(VAttribute
g8
tp3918
F1
s(Vreplied
g70
tp3919
F1
s(g2927
g271
tp3920
F11
s(Vpity
g8
tp3921
F1
s(Vmore
g290
tp3922
F45
s(Vnatural
S'JJ'
p3923
tp3924
F3
s(VAppurtenances
g38
tp3925
F1
s(g59
g1111
tp3926
F25
s(g2024
g199
tp3927
F2
s(Vsubscrib
g70
tp3928
F1
s(Vcommunicated
g84
tp3929
F2
s(S','
g1868
tp3930
F39
s(VPrison
g4
tp3931
F2
s(VStory
g4
tp3932
F2
s(Vappear
g73
tp3933
F9
s(VLips
g4
tp3934
F5
s(Vproduc
g55
tp3935
F1
s(Vattir
g13
tp3936
F1
s(g64
g1003
tp3937
F42
s(VSubjects
g68
tp3938
F1
s(Vreceived
g84
tp3939
F1
s(g731
g73
tp3940
F1
s(Vover
g64
tp3941
F5
s(g13
g621
tp3942
F9
s(VDear_
g4
tp3943
F1
s(VLane
g4
tp3944
F2
s(Vwould
g1150
tp3945
F67
s(Vdirected
g84
tp3946
F2
s(Vremounted
g70
tp3947
F1
s(VFeathers
g38
tp3948
F1
s(V_Babylonish_
g13
tp3949
F3
s(Vacquits
g55
tp3950
F1
s(Vmerciful
g13
tp3951
F1
s(Vcommenc
g13
tp3952
F1
s(Vtalk
g24
tp3953
F3
s(VStranger
g4
tp3954
F7
s(Vopen
g13
tp3955
F10
s(VDisturbance
g4
tp3956
F1
s(Vvanquish
g13
tp3957
F1
s(Vmighty
g8
tp3958
F3
s(Vthird
g13
tp3959
F8
s(Vtenth
g8
tp3960
F1
s(S':'
g1191
tp3961
F58
s(VTimes
g4
tp3962
F10
s(Vbeneficent
g13
tp3963
F2
s(Vshed
g70
tp3964
F1
s(VAffection
g4
tp3965
F5
s(Vshocking
g77
tp3966
F4
s(VKingdom
g4
tp3967
F2
s(Vdispos
g70
tp3968
F1
s(Vprostrate
g24
tp3969
F2
s(Vdejected
g13
tp3970
F1
s(Vlose
g24
tp3971
F3
s(V's
g316
tp3972
F100
s(VPresent
g4
tp3973
F3
s(VSpices
g38
tp3974
F1
s(VDiet
g4
tp3975
F1
s(VBond-Street_
g4
tp3976
F1
s(VTenets
g38
tp3977
F1
s(VCONTENTS
g4
tp3978
F1
s(VMedicine
g4
tp3979
F2
s(Vconquer
g8
tp3980
F1
s(VAN
g13
tp3981
F1
s(Vfled
g84
tp3982
F1
s(Vpanting
g77
tp3983
F1
s(VWounds
g38
tp3984
F1
s(g1140
g33
tp3985
F46
s(Vsoaring
g77
tp3986
F1
s(Vflagrant
g13
tp3987
F2
s(VSnow
g4
tp3988
F1
s(VHead-Physician
g13
tp3989
F1
s(Voddest
g34
tp3990
F1
s(VMisfortune
g4
tp3991
F6
s(g670
g285
tp3992
F47
s(Vadvanc
g70
tp3993
F1
s(Vcome
g24
tp3994
F6
s(VAnimals
g4
tp3995
F1
s(Vpresent
g84
tp3996
F1
s(Vovercome
g70
tp3997
F1
s(VAgain
g4
tp3998
F1
s(Vhollow
g13
tp3999
F2
s(VTurn
g8
tp4000
F2
s(Va
g1191
tp4001
F700
s(VBeauty
g8
tp4002
F1
s(Vpay
g24
tp4003
F9
s(VCourse
g4
tp4004
F3
s(VHead-Steward
g4
tp4005
F1
s(VStar
g4
tp4006
F5
s(g31
S'.'
tp4007
F8
s(Vfir
g13
tp4008
F1
s(Vdrawn
g70
tp4009
F1
s(Veating
g77
tp4010
F2
s(Vdeeper
g59
tp4011
F2
s(VVice
g4
tp4012
F1
s(Vdeath
S'NN'
p4013
tp4014
F1
s(VChance
g4
tp4015
F1
s(VConcern
g4
tp4016
F9
s(VAs
g64
tp4017
F4
s(V24
S'CD'
p4018
tp4019
F1
s(Vconfess
g73
tp4020
F1
s(Vthem
g2927
tp4021
F92
s(Vcowardly
g13
tp4022
F1
s(VBosom-Friend
g13
tp4023
F1
s(Vpreparing
g77
tp4024
F2
s(VNose
g4
tp4025
F7
s(V_Persian_
g4
tp4026
F1
s(Vfull
g1341
tp4027
F8
s(Vrepugnant
g73
tp4028
F2
s(VEnchantress
g4
tp4029
F1
s(Vinsinuated
g70
tp4030
F1
s(V_Greeks_
g4
tp4031
F1
s(Vbeen
g1140
tp4032
F55
s(Vtell
g24
tp4033
F9
s(VUniverse
g4
tp4034
F4
s(Vobserv
g55
tp4035
F1
s(VInterest
g4
tp4036
F5
s(Vsign
g13
tp4037
F1
s(g122
g13
tp4038
F3
s(V_Indies_
g4
tp4039
F1
s(VSneer
g4
tp4040
F3
s(Vnamely
g64
tp4041
F1
s(Vwafted
g84
tp4042
F1
s(Vexpostulated
g84
tp4043
F1
s(Vimmense
g13
tp4044
F4
s(Vpleas
g38
tp4045
F1
s(Vreject
g73
tp4046
F1
s(Vtilted
g84
tp4047
F1
s(Valmost
g2703
tp4048
F10
s(VFifteen
g4
tp4049
F1
s(g79
g84
tp4050
F69
s(Vdue
g13
tp4051
F6
s(Vspoil
g24
tp4052
F1
s(V_Persia_
g4
tp4053
F1
s(Vcost
g84
tp4054
F1
s(VProvince
g8
tp4055
F1
s(Vfiercely
g64
tp4056
F1
s(VLight
g4
tp4057
F6
s(VSurprize
g4
tp4058
F3
s(Vhas
g3255
tp4059
F36
s(VHeav'n
g8
tp4060
F1
s(g1120
g13
tp4061
F1
s(VFires
g38
tp4062
F2
s(V_Hyrcania_
g8
tp4063
F1
s(Vpitch
g8
tp4064
F1
s(VConformity
g4
tp4065
F1
s(Vcommission
S'NN'
p4066
tp4067
F1
s(Vsufficient
g8
tp4068
F1
s(V_India_
g8
tp4069
F1
s(Vaudacious
g13
tp4070
F1
s(VGoddess
g4
tp4071
F1
s(Virksome
g13
tp4072
F1
s(Vimprison
g8
tp4073
F1
s(VArrow
g4
tp4074
F1
s(Vbenighted
g70
tp4075
F1
s(Vintestine
g8
tp4076
F1
s(g136
g34
tp4077
F1
s(Vupon
g8
tp4078
F2
s(Vimproves
g55
tp4079
F1
s(Vsurprising
g13
tp4080
F1
s(VPrisoners
g68
tp4081
F1
s(Vattentive
g13
tp4082
F3
s(Vabsurdly
g64
tp4083
F1
s(Vserv
g13
tp4084
F1
s(Vfavour
g24
tp4085
F2
s(VDirectly
g64
tp4086
F1
s(VProperty
g8
tp4087
F2
s(VTail
g8
tp4088
F1
s(g73
g89
tp4089
F57
s(Vfail
g73
tp4090
F2
s(g1245
g324
tp4091
F58
s(VWeakness
g4
tp4092
F1
s(VWant
g4
tp4093
F1
s(VVerses
g4
tp4094
F1
s(Vher
g36
tp4095
F175
s(VPushes
g4
tp4096
F1
s(Vcourteous
g13
tp4097
F4
s(g324
g409
tp4098
F556
s(VDear
g13
tp4099
F1
s(Vlamish
g13
tp4100
F1
s(Vinvited
g84
tp4101
F3
s(VAdvice
g8
tp4102
F1
s(Vinhabited
g70
tp4103
F1
s(Vliv
g84
tp4104
F2
s(g31
g8
tp4105
F28
s(Vblest
g34
tp4106
F3
s(VPer
g4
tp4107
F1
s(Vride
g24
tp4108
F1
s(Vcrouching
g77
tp4109
F1
s(g731
S','
tp4110
F22
s(Vanswered
g84
tp4111
F1
s(V_Zadig_
g621
tp4112
F2
s(Vtempt
g24
tp4113
F2
s(VDeputies
g38
tp4114
F1
s(g1003
g79
tp4115
F1
s(Vmention
g8
tp4116
F4
s(V_Grecian_
g8
tp4117
F3
s(VDebts
g4
tp4118
F1
s(VGlobe
g8
tp4119
F1
s(VAnti-medicinal
g13
tp4120
F1
s(S'VBZ'
p4121
g4
tp4122
F7
s(VTable
g8
tp4123
F5
s(Vweeping
g77
tp4124
F1
s(g36
g64
tp4125
F10
s(VJudges
g68
tp4126
F1
s(Vgrosly
g64
tp4127
F1
s(Vran
g70
tp4128
F1
s(VHopes
g38
tp4129
F1
s(Vimmortal
g13
tp4130
F2
s(VMind
g8
tp4131
F8
s(Vgrey
g8
tp4132
F1
s(VPalpitation
g4
tp4133
F1
s(g1868
g59
tp4134
F5
s(Vartfully
g64
tp4135
F2
s(VDead
g4
tp4136
F3
s(VLances
g38
tp4137
F2
s(VSULTANA
g4
tp4138
F1
s(VPassions
g38
tp4139
F3
s(VENVIOUS
g4
tp4140
F1
s(Vwait
g73
tp4141
F2
s(VSince
S'IN'
p4142
tp4143
F3
s(S','
g38
tp4144
F2
s(g70
g1884
tp4145
F1
s(g181
S','
tp4146
F5
s(VInterruption
g4
tp4147
F1
s(Vloyal
g13
tp4148
F3
s(g316
g647
tp4149
F9
s(VMajesty
g4
tp4150
F15
s(Vher
g24
tp4151
F3
s(VRed
g4
tp4152
F3
s(VObjects
g68
tp4153
F1
s(VAfflicted
g4
tp4154
F1
s(Verected
g84
tp4155
F2
s(Vcomplain
g8
tp4156
F1
s(VVictors
g38
tp4157
F1
s(Vtherefore
g19
tp4158
F1
s(Vburst
g8
tp4159
F1
s(V_Gangarides_
g4
tp4160
F1
s(Vapproaching
g77
tp4161
F1
s(g538
g70
tp4162
F1
s(V_Chaldeans_
g24
tp4163
F1
s(VBody
g8
tp4164
F2
s(V_ZADIG_
g8
tp4165
F2
s(g68
g8
tp4166
F3
s(VBride
g19
tp4167
F1
s(Vdeceas
g13
tp4168
F1
s(g324
g77
tp4169
F120
s(S':'
g8
tp4170
F20
s(Vinsensible
g13
tp4171
F1
s(VMinister
S'NNP'
p4172
tp4173
F4
s(Vrender
g24
tp4174
F5
s(Vthunder-struck
g13
tp4175
F3
s(Vappeas
g64
tp4176
F1
s(Vhereto
g8
tp4177
F1
s(VCottage
g4
tp4178
F2
s(Venliven
g64
tp4179
F1
s(Vcomforted
g84
tp4180
F1
s(VTree
g4
tp4181
F1
s(VManner
g4
tp4182
F19
s(VTrials
g4
tp4183
F1
s(Vsame
S'JJ'
p4184
tp4185
F24
s(Vcharg
g8
tp4186
F1
s(Vone-eyed
g13
tp4187
F1
s(g38
g324
tp4188
F195
s(Vnauseous
g13
tp4189
F1
s(Vmight
g3693
tp4190
F20
s(Vforgave
g73
tp4191
F1
s(g59
g68
tp4192
F1
s(VHORSE
g4
tp4193
F1
s(Vfall
g24
tp4194
F3
s(VWool
g4
tp4195
F1
s(VLikeness
g4
tp4196
F1
s(VIdea
g4
tp4197
F3
s(Vup
g64
tp4198
F7
s(Vsatyr
g8
tp4199
F1
s(g101
S','
tp4200
F11
s(VAccident
g4
tp4201
F1
s(Vdifficult
S'JJ'
p4202
tp4203
F3
s(Vinnate
g13
tp4204
F1
s(Vdexterously
g64
tp4205
F1
s(Vregarding
g77
tp4206
F1
s(g199
g8
tp4207
F1
s(Vtake
g24
tp4208
F13
s(V_Zadig_
g8
tp4209
F121
s(VAgony
g4
tp4210
F1
s(Vinhuman
g8
tp4211
F1
s(VConquest
g4
tp4212
F1
s(Varriv
g24
tp4213
F1
s(VEvidence
g4
tp4214
F3
s(g621
S')'
tp4215
F1
s(Vrequire
g24
tp4216
F2
s(VTrumpets
g4
tp4217
F1
s(Vonly
g13
tp4218
F6
s(VMagick
g4
tp4219
F1
s(Vforc
g13
tp4220
F2
s(VMorning
g4
tp4221
F6
s(Vtho
g315
tp4222
F1
s(VMaternal
g13
tp4223
F1
s(VInterest
g8
tp4224
F2
s(VDwarf
g4
tp4225
F6
s(Vpropos
g84
tp4226
F1
s(g316
S'.'
tp4227
F5
s(g2701
g271
tp4228
F22
s(Vput
g70
tp4229
F8
s(g68
g234
tp4230
F2
s(Vcreate
g24
tp4231
F1
s(VWounds
g4
tp4232
F2
s(VPrints
g38
tp4233
F2
s(VSurprise
g4
tp4234
F2
s(Vrid
g13
tp4235
F2
s(VThousand
g31
tp4236
F1
s(VThey
S'PRP'
p4237
tp4238
F20
s(VMoment
g4
tp4239
F19
s(Vupon
g19
tp4240
F76
s(Vrash
g13
tp4241
F1
s(Vsurpriz
g13
tp4242
F3
s(VInstrument
g8
tp4243
F1
s(VRENDEZVOUS
g4
tp4244
F1
s(Vsink
g24
tp4245
F1
s(VAffirmative
g4
tp4246
F1
s(VSentiments
g38
tp4247
F4
s(VPity
g4
tp4248
F4
s(VResearches
g4
tp4249
F1
s(g136
g8
tp4250
F61
s(VDisposition
g4
tp4251
F1
s(VSerpent.
g4
tp4252
F1
s(Vout
g271
tp4253
F34
s(VConverse
g4
tp4254
F1
s(g316
g86
tp4255
F2
s(Vburied
g70
tp4256
F1
s(VBack
g4
tp4257
F2
s(g84
g106
tp4258
F1
s(g68
g13
tp4259
F1
s(Vbegan
S'VBD'
p4260
tp4261
F10
s(g77
g263
tp4262
F22
s(Voff
g19
tp4263
F1
s(VCook
g4
tp4264
F1
s(Vfortunate
g13
tp4265
F2
s(Vlearnedly
g64
tp4266
F1
s(Vnotorious
g13
tp4267
F1
s(Von
g728
tp4268
F154
s(Vhear
g24
tp4269
F6
s(Vendow
g13
tp4270
F1
s(Veleven
g13
tp4271
F1
s(Vrestor
g8
tp4272
F1
s(VSkeleton
g4
tp4273
F2
s(VAddress
g4
tp4274
F3
s(VCease
g4
tp4275
F1
s(g2583
g59
tp4276
F4
s(g199
g47
tp4277
F6
s(VImprudence
g4
tp4278
F1
s(Vpersuaded
g70
tp4279
F3
s(Vblubbering
g77
tp4280
F1
s(VForgiveness
g4
tp4281
F1
s(VFrail
g4
tp4282
F1
s(S')'
g188
tp4283
F2
s(Vagreed
g84
tp4284
F3
s(VFoe
g4
tp4285
F1
s(Vunhors
g38
tp4286
F1
s(VBottom
g4
tp4287
F4
s(g13
g4
tp4288
F814
s(VPerson
g8
tp4289
F1
s(Vsuperb
g13
tp4290
F3
s(Vbosom
g8
tp4291
F1
s(Vunmeaning
g13
tp4292
F1
s(g38
g70
tp4293
F4
s(g534
g285
tp4294
F1
s(S':'
g73
tp4295
F1
s(Vdivisible
g24
tp4296
F1
s(Vplung
g70
tp4297
F1
s(VBed
g8
tp4298
F1
s(V_Chaldea_
g4
tp4299
F2
s(Vloose
g64
tp4300
F1
s(Vliberal
g13
tp4301
F3
s(Vconstituted
g84
tp4302
F1
s(VMother
g8
tp4303
F2
s(Vmonstrously
g64
tp4304
F1
s(Vinsisted
g84
tp4305
F3
s(Vfairest
g34
tp4306
F2
s(VDiscourse
g8
tp4307
F2
s(VDignity
g8
tp4308
F1
s(Vconverted
g70
tp4309
F1
s(VEnd
g8
tp4310
F5
s(Vseem
g24
tp4311
F1
s(VConscience
g8
tp4312
F2
s(VBench
g8
tp4313
F1
s(Vreply
g24
tp4314
F3
s(Vrun
g24
tp4315
F1
s(VFlight
g4
tp4316
F5
s(Vinferr
g73
tp4317
F1
s(g84
g31
tp4318
F14
s(VBanks
g38
tp4319
F6
s(Vinvincible
g13
tp4320
F1
s(Vhome
g70
tp4321
F1
s(Vwell-grounded
g13
tp4322
F1
s(VPanegyrick
g4
tp4323
F1
s(Ventitle
g24
tp4324
F1
s(V_Babylon_
g8
tp4325
F19
s(Valong
g64
tp4326
F5
s(Vbreathe
g8
tp4327
F1
s(Vbelieve
g24
tp4328
F1
s(g79
g19
tp4329
F2
s(g1884
g59
tp4330
F6
s(Vadmir
g13
tp4331
F1
s(Votherwise
g64
tp4332
F2
s(VJealousy
g4
tp4333
F2
s(VMerchant
g4
tp4334
F4
s(VViolins
g4
tp4335
F1
s(VAstonishment
g8
tp4336
F2
s(VFact
g4
tp4337
F3
s(Vlike
g19
tp4338
F21
s(VTraitor._
g4
tp4339
F1
s(Vcertain
S'JJ'
p4340
tp4341
F7
s(VBits
g38
tp4342
F1
s(Vrequest
g73
tp4343
F2
s(Vinferior
g64
tp4344
F1
s(Vcruel
g13
tp4345
F1
s(g386
g31
tp4346
F40
s(Vbad
S'JJ'
p4347
tp4348
F3
s(Vtear
g24
tp4349
F1
s(VMatter
g4
tp4350
F3
s(g290
g122
tp4351
F1
s(Vworth
g19
tp4352
F3
s(VSanction
g8
tp4353
F1
s(Vdance
g24
tp4354
F1
s(Vdiscrimina
g8
tp4355
F1
s(Vpresume
g24
tp4356
F2
s(VFowl
g4
tp4357
F4
s(Vwoful
g13
tp4358
F1
s(Vwill
g122
tp4359
F40
s(Vdispos
g73
tp4360
F1
s(Vvain
g13
tp4361
F1
s(Vupon
g64
tp4362
F1
s(Vapprehended
g84
tp4363
F1
s(VSide
g4
tp4364
F3
s(Vimpious
g13
tp4365
F3
s(Vpoetical
g13
tp4366
F1
s(VDoor
g4
tp4367
F8
s(V_Arbogad_
g4
tp4368
F4
s(Vexert
g24
tp4369
F2
s(g55
g383
tp4370
F1
s(VOpinion
g4
tp4371
F1
s(VMonths
g38
tp4372
F1
s(VAshes
g4
tp4373
F2
s(Vdetermin
g73
tp4374
F2
s(V_Babylonian_
g4
tp4375
F1
s(g2354
g383
tp4376
F1
s(g89
g13
tp4377
F287
s(VBuilding
g8
tp4378
F1
s(VImpression
g8
tp4379
F3
s(Vsettled
g70
tp4380
F1
s(VInvention
g4
tp4381
F1
s(VIntellectual
g4
tp4382
F1
s(g64
g1362
tp4383
F97
s(VAdoration
g4
tp4384
F5
s(Vkeeping
S'VBG'
p4385
tp4386
F1
s(Vindustrious
g13
tp4387
F1
s(VMartial
g13
tp4388
F1
s(V_I
g4
tp4389
F1
s(Vnarrow
g13
tp4390
F2
s(g84
g315
tp4391
F1
s(V_Cathayian_
g8
tp4392
F1
s(Vlove
g8
tp4393
F1
s(Vbroke
g70
tp4394
F2
s(V_Semira_
g4
tp4395
F3
s(VTablet
g4
tp4396
F4
s(Vconcern
S'NN'
p4397
tp4398
F4
s(VFriends
g68
tp4399
F3
s(VOuter-Court
g4
tp4400
F1
s(VLearning
g4
tp4401
F1
s(g621
g59
tp4402
F1
s(VCheck
g8
tp4403
F1
s(Vsharpest
g34
tp4404
F1
s(Venamoured
g13
tp4405
F1
s(Vreform
g8
tp4406
F1
s(VReversion
g4
tp4407
F1
s(VHelmets
g38
tp4408
F1
s(Vderiv
g13
tp4409
F1
s(VRiver
g4
tp4410
F9
s(g2591
g290
tp4411
F1
s(Vcontracting
g8
tp4412
F1
s(V23
g2298
tp4413
F1
s(Vwither
g8
tp4414
F1
s(Vreflect
g24
tp4415
F2
s(VPrinciples
g38
tp4416
F2
s(Vattend
g24
tp4417
F6
s(g136
g84
tp4418
F140
s(VBlind_
g4
tp4419
F1
s(Vintimate
g24
tp4420
F1
s(g1873
g181
tp4421
F4
s(VTumults
g4
tp4422
F1
s(Vfavourite
g13
tp4423
F4
s(Vscarce
g73
tp4424
F1
s(Vrespective
g13
tp4425
F1
s(Vreceiv
g8
tp4426
F2
s(Vreciprocally
g64
tp4427
F1
s(Vunguarded
g13
tp4428
F1
s(g13
g609
tp4429
F138
s(Voblige
g24
tp4430
F1
s(g315
g1012
tp4431
F2
s(VChoice
g4
tp4432
F1
s(Veverlasting
g8
tp4433
F1
s(g19
g2583
tp4434
F10
s(V_Riddles_
g64
tp4435
F1
s(VFund
g8
tp4436
F2
s(Vreserving
g77
tp4437
F1
s(g68
S')'
tp4438
F1
s(Vthink
g24
tp4439
F11
s(VTwenty
g4
tp4440
F1
s(VSubject
g8
tp4441
F2
s(Vbehind
g8
tp4442
F1
s(V_Ceilan_
g4
tp4443
F1
s(Vsent
g84
tp4444
F9
s(VBrace
g4
tp4445
F1
s(Vreconcil
g24
tp4446
F1
s(VDistinctions
g68
tp4447
F1
s(VVail
g4
tp4448
F3
s(g8
g324
tp4449
F472
s(VNo
g4
tp4450
F2
s(VInhabitants
g68
tp4451
F1
s(g70
g409
tp4452
F22
s(Vhung
g84
tp4453
F2
s(Vpondering
g77
tp4454
F1
s(Vpursu
g13
tp4455
F1
s(VMadam
g4
tp4456
F15
s(V80,000
g31
tp4457
F1
s(Vperfect
g13
tp4458
F17
s(VInspection
g4
tp4459
F1
s(Vpropose
g73
tp4460
F1
s(g214
g38
tp4461
F1
s(VImports
g38
tp4462
F1
s(VSex
g8
tp4463
F3
s(VBlood-shed
g4
tp4464
F1
s(Vdeclare
g24
tp4465
F1
s(Vlearned
g70
tp4466
F4
s(VBalcony
g4
tp4467
F1
s(g580
g409
tp4468
F54
s(Vblasphemous
g13
tp4469
F1
s(VTwo
S'CD'
p4470
tp4471
F4
s(Vtumbled
g70
tp4472
F1
s(Vbehold
g84
tp4473
F1
s(VApartment
g4
tp4474
F4
s(Vsee
g73
tp4475
F5
s(Vtouch
g13
tp4476
F1
s(V_Debauchee_
g8
tp4477
F1
s(V_Arabic_
g4
tp4478
F1
s(VForgiveness
g8
tp4479
F1
s(VSummons
g38
tp4480
F1
s(VMeasures
g55
tp4481
F1
s(Vskreen
g24
tp4482
F1
s(VVotaries
g38
tp4483
F1
s(VCantata
g4
tp4484
F2
s(g70
S')'
tp4485
F2
s(Vscurvy
g8
tp4486
F1
s(Vsomewhat
g64
tp4487
F9
s(VStrangers
g68
tp4488
F1
s(VAnimosities
g38
tp4489
F1
s(VAtoms
g4
tp4490
F1
s(Vdesign
g73
tp4491
F1
s(g670
S':'
tp4492
F8
s(VMoral
g13
tp4493
F1
s(VParts
g38
tp4494
F3
s(VORIGINAL
g4
tp4495
F1
s(VMurder
g8
tp4496
F1
s(Vportended
g84
tp4497
F1
s(g68
g2583
tp4498
F10
s(Vcommitted
g70
tp4499
F2
s(g263
g31
tp4500
F3
s(Vstrangely
g64
tp4501
F1
s(Vdistinct
g13
tp4502
F3
s(Vpeaceful
g24
tp4503
F2
s(VCastle
g4
tp4504
F10
s(S','
g263
tp4505
F96
s(g34
g64
tp4506
F4
s(VHow
g101
tp4507
F3
s(VMistress
g4
tp4508
F6
s(Vexamin
g13
tp4509
F1
s(Vindeed
g1454
tp4510
F18
s(VAbout
g19
tp4511
F1
s(VDraughts
g38
tp4512
F1
s(VSpeed
g8
tp4513
F1
s(VBeef
g4
tp4514
F3
s(Vsway
g64
tp4515
F1
s(VSubstance
g4
tp4516
F2
s(g8
g263
tp4517
F111
s(Vown
g13
tp4518
F20
s(g763
g1784
tp4519
F112
s(VDesert
g4
tp4520
F1
s(Vcondemn
g70
tp4521
F1
s(VCountries
g4
tp4522
F1
s(VDisaster
g4
tp4523
F1
s(Vback
g24
tp4524
F1
s(VEarth
g4
tp4525
F7
s(VComplaint
g4
tp4526
F2
s(VPopulace
g8
tp4527
F1
s(VDelicacy
g4
tp4528
F1
s(Vexception
g8
tp4529
F1
s(Vplung
g73
tp4530
F1
s(VBagnio
g4
tp4531
F1
s(g38
g263
tp4532
F30
s(Vsure
g13
tp4533
F4
s(g2583
g34
tp4534
F2
s(Vstole
g8
tp4535
F1
s(Vonce
g64
tp4536
F21
s(g8
S':'
tp4537
F130
s(VConsequence
g4
tp4538
F3
s(VDevotee
g4
tp4539
F3
s(V_Black-Book_
g8
tp4540
F1
s(Vmay
g580
tp4541
F23
s(VTetrastick
g4
tp4542
F1
s(VPlace
g8
tp4543
F15
s(S'JJ'
p4544
g38
tp4545
F186
s(Vlongest
g34
tp4546
F1
s(Vdwells
g55
tp4547
F1
s(Vhurried
g84
tp4548
F1
s(Va-piece
g8
tp4549
F1
s(VAfter
S'IN'
p4550
tp4551
F12
s(Vbuoy
g70
tp4552
F1
s(VPicture
g8
tp4553
F2
s(Vtime
S'NN'
p4554
tp4555
F1
s(Vwisest
g34
tp4556
F3
s(Vself-conceited
g84
tp4557
F1
s(Vrecollecting
g77
tp4558
F1
s(Vput
g73
tp4559
F1
s(VOfficer
g4
tp4560
F2
s(V_Libyan_
g13
tp4561
F1
s(Vutter
g64
tp4562
F1
s(g64
g315
tp4563
F2
s(Vhonest
g13
tp4564
F2
s(Vsupreme
g8
tp4565
F3
s(Vshall
S'MD'
p4566
tp4567
F27
s(VRose-Bud
g4
tp4568
F1
s(Veffect
S'NN'
p4569
tp4570
F1
s(g24
g68
tp4571
F1
s(V_Zadig's_
g4
tp4572
F12
s(g2591
g285
tp4573
F4
s(Vappriz
g13
tp4574
F1
s(Vbeside
g8
tp4575
F2
s(Vperus
g70
tp4576
F1
s(g1111
S','
tp4577
F39
s(S','
g290
tp4578
F1
s(Vspare
g24
tp4579
F1
s(Vremember
g73
tp4580
F1
s(g70
g8
tp4581
F12
s(VProspect
g4
tp4582
F2
s(VVirtues
g4
tp4583
F2
s(g86
g73
tp4584
F5
s(Vthunder-struck
g8
tp4585
F3
s(VLights
g38
tp4586
F1
s(VOffice
g8
tp4587
F1
s(Vroasted
g13
tp4588
F1
s(VTO
g4
tp4589
F35
s(Vhatching
g77
tp4590
F1
s(Vabout
g64
tp4591
F7
s(V_Jesrad_
g4
tp4592
F2
s(VIssue
g8
tp4593
F3
s(Vhighly
S'RB'
p4594
tp4595
F4
s(Vhot
g13
tp4596
F1
s(Vsweated
g13
tp4597
F1
s(VOULOUG
g4
tp4598
F3
s(V_Arabia_
g8
tp4599
F2
s(Vpompous
g13
tp4600
F1
s(VWhilst
g19
tp4601
F2
s(Vbeheaded
g70
tp4602
F1
s(Vvanish
g13
tp4603
F2
s(Vseverely
g64
tp4604
F2
s(VMatters
g38
tp4605
F1
s(Vlanguid
g8
tp4606
F1
s(VGenerality
g4
tp4607
F2
s(VGang
g4
tp4608
F4
s(Vstrict
g13
tp4609
F2
s(VUncle
g8
tp4610
F1
s(VLoad
g4
tp4611
F1
s(g84
S'.'
tp4612
F12
s(VEvents
g4
tp4613
F1
s(Vexactly
g64
tp4614
F2
s(Vliv
g8
tp4615
F2
s(VBox
g4
tp4616
F2
s(V_The_
g64
tp4617
F2
s(Vpleas
g64
tp4618
F2
s(VRank
g4
tp4619
F1
s(Vtraversing
g77
tp4620
F2
s(Vplay
g24
tp4621
F1
s(Vdeploring
g77
tp4622
F1
s(VYards
g38
tp4623
F1
s(g36
g263
tp4624
F2
s(Voverwhelm
g55
tp4625
F1
s(V_Fly_
g8
tp4626
F1
s(Vrush
g8
tp4627
F1
s(VVengeance
g8
tp4628
F1
s(VCombat
g8
tp4629
F1
s(g290
S':'
tp4630
F2
s(Vthought
g70
tp4631
F4
s(g13
g107
tp4632
F3
s(VV.
g4
tp4633
F2
s(VScruple
g4
tp4634
F2
s(Vloud
g13
tp4635
F3
s(Vembellish
g8
tp4636
F1
s(Vplundering
g8
tp4637
F1
s(Vtravelling
g77
tp4638
F1
s(Vstartled
g70
tp4639
F3
s(VCalculation
g8
tp4640
F1
s(S'DT'
p4641
S'.'
tp4642
F7
s(VRefreshment
g4
tp4643
F1
s(VMonths
g4
tp4644
F2
s(V_Cletofis_
g4
tp4645
F1
s(Vsituated
g70
tp4646
F1
s(Vten
g64
tp4647
F1
s(Vtherefore
g8
tp4648
F2
s(VMessage
g8
tp4649
F1
s(g36
S':'
tp4650
F6
s(Vthey
S'PRP'
p4651
tp4652
F91
s(VEloquence
g8
tp4653
F1
s(VGraces
g38
tp4654
F1
s(Vthree
g1097
tp4655
F15
s(Vdeposit
g24
tp4656
F1
s(VSort
g8
tp4657
F1
s(Vtowards
g38
tp4658
F5
s(VVariety
g4
tp4659
F2
s(Vadore
g73
tp4660
F1
s(Vpuissant
g8
tp4661
F1
s(Vrejected
g70
tp4662
F1
s(VFriends
g70
tp4663
F1
s(Vheard
g70
tp4664
F8
s(VReturn
g4
tp4665
F1
s(Vturbulent
g13
tp4666
F1
s(Vlaugh
g24
tp4667
F1
s(Vresided
g84
tp4668
F1
s(VEmeralds
g4
tp4669
F1
s(VFair
g4
tp4670
F6
s(Vsacrificed
g84
tp4671
F1
s(Vsublime
g13
tp4672
F1
s(g55
S':'
tp4673
F6
s(g77
g4
tp4674
F24
s(g24
g263
tp4675
F30
s(VAlas
g181
tp4676
F9
s(Vproduc
g13
tp4677
F1
s(Vinsulted
g84
tp4678
F1
s(VGhost
g4
tp4679
F1
s(VNecessity
g8
tp4680
F1
s(Villuminate
g24
tp4681
F1
s(g763
g1893
tp4682
F1
s(Vmerciless
g8
tp4683
F1
s(VObservation
g4
tp4684
F1
s(Vrest
g8
tp4685
F3
s(VArrival
g4
tp4686
F2
s(VAnimal
g4
tp4687
F6
s(VConversation
g8
tp4688
F5
s(Vassur
g64
tp4689
F1
s(Vprofoundest
g34
tp4690
F1
s(VHighwayman
g4
tp4691
F1
s(g4
g316
tp4692
F101
s(Vbreathing
g8
tp4693
F3
s(g24
S':'
tp4694
F4
s(VBowels
g4
tp4695
F1
s(VEmbraces
g38
tp4696
F1
s(Vrepair
g24
tp4697
F1
s(Vdepriv
g13
tp4698
F1
s(VEarth
g8
tp4699
F1
s(VValet
g4
tp4700
F6
s(VDuty
g8
tp4701
F1
s(VSultan
g4
tp4702
F1
s(Vus
g1526
tp4703
F14
s(g34
g4651
tp4704
F3
s(VDotage
g8
tp4705
F1
s(Vexpress
g13
tp4706
F6
s(VEmpire
g8
tp4707
F3
s(V_Algenib_
g4
tp4708
F1
s(VSense
g4
tp4709
F1
s(S'('
g3796
tp4710
F2
s(VYou
g1539
tp4711
F28
s(VMinutes
g68
tp4712
F1
s(Vhappily
g64
tp4713
F4
s(Vtrahunt
g8
tp4714
F1
s(VOrder
g4
tp4715
F3
s(Vpacking
g77
tp4716
F1
s(g73
g31
tp4717
F8
s(V_Zoroaster_
g64
tp4718
F1
s(Vpass
g8
tp4719
F5
s(Vfir
g24
tp4720
F1
s(VCompliance
g8
tp4721
F1
s(Vchief
g13
tp4722
F6
s(Vplay
g73
tp4723
F2
s(VSports
g68
tp4724
F1
s(VHardships
g4
tp4725
F1
s(VPatron
g4
tp4726
F2
s(Voblig
g621
tp4727
F2
s(VHearing
g8
tp4728
F1
s(VGame
g4
tp4729
F2
s(Vacceptable
g13
tp4730
F1
s(VApprehension
g4
tp4731
F1
s(Vbrook
g24
tp4732
F1
s(V_Wales_
g4
tp4733
F1
s(VEye-witness
g8
tp4734
F1
s(VCinnamon
g4
tp4735
F1
s(Vreach
g73
tp4736
F2
s(Vview
g24
tp4737
F2
s(VThere
S'EX'
p4738
tp4739
F8
s(VBrute
g4
tp4740
F3
s(VBirth
g4
tp4741
F3
s(Vpursu
g73
tp4742
F1
s(Vcommunicate
g24
tp4743
F1
s(VTrick
g4
tp4744
F1
s(VGrain
g4
tp4745
F1
s(VTroubles
g4
tp4746
F1
s(g4
g70
tp4747
F10
s(VTopick
g4
tp4748
F3
s(Vamongst
g19
tp4749
F4
s(Vpenetrate
g24
tp4750
F1
s(VOmnipotence
g8
tp4751
F1
s(Vwhereof
g8
tp4752
F2
s(VMagus_
g4
tp4753
F4
s(VTattle
g4
tp4754
F1
s(Vself
g13
tp4755
F1
s(Vcontend
g24
tp4756
F1
s(VKeeper
g4
tp4757
F1
s(VThither
g19
tp4758
F1
s(VSubjects
g38
tp4759
F3
s(g8
g122
tp4760
F186
s(VFavour
g8
tp4761
F3
s(V_Hottam_
g4
tp4762
F3
s(Vthoughtless
g8
tp4763
F1
s(Vbold
g13
tp4764
F2
s(V*
g8
tp4765
F1
s(VParts
g4
tp4766
F2
s(Vthemselves
S'PRP'
p4767
tp4768
F7
s(g130
g409
tp4769
F47
s(VPreparation
g4
tp4770
F1
s(VStage
g8
tp4771
F1
s(g263
g19
tp4772
F1
s(Vquitted
g84
tp4773
F1
s(VWarrant
g4
tp4774
F1
s(VPoint
g8
tp4775
F4
s(Vleave
g24
tp4776
F6
s(VPole
g4
tp4777
F1
s(Vplunge
g24
tp4778
F2
s(VLaver
g4
tp4779
F2
s(VTear
g4
tp4780
F1
s(Vvast
g13
tp4781
F2
s(VIncision-Knife
g4
tp4782
F1
s(VMoments
g38
tp4783
F2
s(VDestiny
g4
tp4784
F3
s(g130
S','
tp4785
F30
s(VQueen
g4
tp4786
F56
s(Vvirulent
g13
tp4787
F1
s(Vdangerous
g13
tp4788
F7
s(Vpasses
g38
tp4789
F1
s(g19
g55
tp4790
F6
s(V_Zoroaster_
g4
tp4791
F5
s(Vdisclos
g55
tp4792
F1
s(VArch
g4
tp4793
F1
s(VFlames
g4
tp4794
F2
s(Vapproach
g24
tp4795
F3
s(VCalling
g8
tp4796
F1
s(Vdo
g73
tp4797
F12
s(VNose_
g4
tp4798
F1
s(VHero
g4
tp4799
F5
s(VTreatise
g4
tp4800
F2
s(Vmakes
S'VBZ'
p4801
tp4802
F2
s(VBenefactress
g4
tp4803
F1
s(V_Azora_
g4
tp4804
F2
s(VDoctor
g4
tp4805
F1
s(VWheel
g4
tp4806
F1
s(Vsofter
g59
tp4807
F1
s(Vbeat
g70
tp4808
F1
s(VBeings
g38
tp4809
F3
s(g84
g285
tp4810
F5
s(VFoster-Mother
g4
tp4811
F1
s(g1140
g59
tp4812
F1
s(VFellow-Slave
g13
tp4813
F1
s(Vsang
g84
tp4814
F1
s(Vlet
g24
tp4815
F13
s(VGrace
g4
tp4816
F3
s(VPardon
g4
tp4817
F3
s(g263
g13
tp4818
F6
s(Vpraised
g70
tp4819
F2
s(VHearts
g38
tp4820
F1
s(V_
g8
tp4821
F1
s(Vslept
g84
tp4822
F2
s(VProject
g4
tp4823
F1
s(Vespy
g84
tp4824
F2
s(VFrontiers
g38
tp4825
F2
s(Vseparate
g13
tp4826
F1
s(Vjust
g54
tp4827
F27
s(Vstruggle
g24
tp4828
F1
s(VCream-Cheeses
g38
tp4829
F2
s(VCircumstance
g4
tp4830
F1
s(VMuch
g13
tp4831
F1
s(Vset
g84
tp4832
F5
s(VThus
g64
tp4833
F3
s(Vfond
g8
tp4834
F6
s(Vwhether
S'IN'
p4835
tp4836
F10
s(Vairy
g8
tp4837
F1
s(V_Imaues_
g4
tp4838
F1
s(Vinfect
g73
tp4839
F1
s(Vhalf
g13
tp4840
F1
s(Vinclin
g8
tp4841
F2
s(Vbesought
g84
tp4842
F1
s(Vattack
g64
tp4843
F1
s(Vinoffensive
g13
tp4844
F1
s(V*_Li_
g8
tp4845
F1
s(Vclaim
g24
tp4846
F1
s(V837
g31
tp4847
F1
s(Vneglect
g73
tp4848
F1
s(VMood
g8
tp4849
F1
s(g70
S'.'
tp4850
F20
s(V_Setoc_
g24
tp4851
F2
s(Vconceal
g73
tp4852
F1
s(Vsave
g24
tp4853
F3
s(VPresence
g8
tp4854
F3
s(S','
g1893
tp4855
F3
s(VGuards
g4
tp4856
F1
s(VTown
g4
tp4857
F1
s(VEyes
g24
tp4858
F1
s(V_Hottam_
g8
tp4859
F3
s(Vstruck
g73
tp4860
F1
s(Vfirst-born
g13
tp4861
F1
s(VSeasons
g38
tp4862
F1
s(Vlonely
g13
tp4863
F2
s(Vvain
g8
tp4864
F3
s(VTreaty
g4
tp4865
F1
s(g8
g68
tp4866
F7
s(Vthinly
g64
tp4867
F1
s(VNothing
g4
tp4868
F1
s(Vever-venerable
g13
tp4869
F1
s(Vaver
g24
tp4870
F1
s(Vforgive
g24
tp4871
F2
s(VOration
g4
tp4872
F1
s(Vtalking
S'VBG'
p4873
tp4874
F2
s(Vcrown
g24
tp4875
F1
s(Vunprepar
g13
tp4876
F1
s(g122
S':'
tp4877
F17
s(Vdemanded
g70
tp4878
F1
s(VDoctors
g38
tp4879
F1
s(VDistance
g4
tp4880
F2
s(VKitchin
g4
tp4881
F1
s(Vbecause
g24
tp4882
F1
s(Vimagin
g13
tp4883
F1
s(Vsacred
g13
tp4884
F3
s(VTown-Goal
g4
tp4885
F1
s(VWrapped
g70
tp4886
F1
s(VOpponents
g68
tp4887
F1
s(Vhandsomer
g8
tp4888
F1
s(Vdiscover
g8
tp4889
F1
s(VActions
g4
tp4890
F3
s(Voffer
g122
tp4891
F1
s(Vrelate
g24
tp4892
F1
s(Vserious
S'JJ'
p4893
tp4894
F1
s(Vtwo
g731
tp4895
F54
s(Vtwenty
g13
tp4896
F1
s(Vspread
g24
tp4897
F1
s(VActs
g4
tp4898
F1
s(VHERMIT
g4
tp4899
F1
s(g2383
g73
tp4900
F30
s(g4
g8
tp4901
F143
s(VRomances
g68
tp4902
F2
s(VWisdom
g4
tp4903
F8
s(Vimportant
S'JJ'
p4904
tp4905
F4
s(Vangry
g13
tp4906
F2
s(VRogue
g4
tp4907
F1
s(V_Satrap_
g8
tp4908
F4
s(Vswear
g73
tp4909
F1
s(Vpresented
g84
tp4910
F2
s(g122
S')'
tp4911
F1
s(g33
g8
tp4912
F451
s(VComparison
g4
tp4913
F2
s(Vmean
g8
tp4914
F2
s(Vvirtuous
g13
tp4915
F8
s(VBulk
g4
tp4916
F1
s(VGloves
g4
tp4917
F1
s(VRose-Water
g4
tp4918
F2
s(Vprov
g13
tp4919
F2
s(V_Arabians_
g24
tp4920
F1
s(g8
S','
tp4921
F444
s(Vtransport
g73
tp4922
F1
s(VHarm
g4
tp4923
F1
s(Vsaying
g77
tp4924
F2
s(Vworth
g13
tp4925
F4
s(Vinsist
g73
tp4926
F1
s(V_A_
g8
tp4927
F1
s(VHopes
g4
tp4928
F5
s(Vfree
g13
tp4929
F3
s(Varising
g77
tp4930
F1
s(Vblack
S'JJ'
p4931
tp4932
F3
s(g84
g33
tp4933
F293
s(VStress
g4
tp4934
F1
s(VParts
g24
tp4935
F1
s(Vserv
g8
tp4936
F1
s(g64
S','
tp4937
F205
s(VJealousy_
g4
tp4938
F1
s(Vproper
g13
tp4939
F8
s(VLove
g4
tp4940
F10
s(VCoward
g4
tp4941
F1
s(VTortoise
g4
tp4942
F1
s(V_The_
g4
tp4943
F2
s(g239
S','
tp4944
F233
s(VArm
g4
tp4945
F3
s(g4
S':'
tp4946
F237
s(VArmy
g4
tp4947
F2
s(VLords
g38
tp4948
F1
s(VWhereupon
g19
tp4949
F7
s(VSurely
g64
tp4950
F1
s(Vtakes
S'VBZ'
p4951
tp4952
F1
s(Vexpos
g13
tp4953
F2
s(VMischief
g4
tp4954
F1
s(VMad-man
g4
tp4955
F2
s(VSpecific
g13
tp4956
F1
s(VAn
g1668
tp4957
F8
s(Vconceived
g70
tp4958
F1
s(Vworthless
g8
tp4959
F3
s(Vno
g86
tp4960
F79
s(VEntertainment
g8
tp4961
F1
s(VPavement
g4
tp4962
F2
s(Vmet
g70
tp4963
F9
s(VDisgrace
g4
tp4964
F2
s(Vaccept
g24
tp4965
F2
s(g106
g84
tp4966
F62
s(VEquity
g4
tp4967
F3
s(V18th
g31
tp4968
F1
s(VCombination
g4
tp4969
F1
s(VTrouble
g4
tp4970
F2
s(V_Knout_
g8
tp4971
F1
s(Vthere
g315
tp4972
F37
s(V_To
g8
tp4973
F1
s(VEvery
g86
tp4974
F11
s(VOriental
g13
tp4975
F2
s(Veat
g73
tp4976
F1
s(V_Asia_
g4
tp4977
F2
s(VCrimes
g38
tp4978
F1
s(S','
g199
tp4979
F13
s(Vabroad
S'RB'
p4980
tp4981
F2
s(VDisappointments
g38
tp4982
F2
s(VDream
g4
tp4983
F1
s(VBesides
g19
tp4984
F2
s(Vtrickled
g84
tp4985
F1
s(VFee
g4
tp4986
F1
s(Vdate
S'NN'
p4987
tp4988
F1
s(Vhelpless
g13
tp4989
F1
s(VShelter
g4
tp4990
F2
s(VOrigin
g8
tp4991
F1
s(Vverdant
g13
tp4992
F3
s(VAid
g8
tp4993
F1
s(Vfalse
g13
tp4994
F4
s(Vsubstantial
S'JJ'
p4995
tp4996
F3
s(Vill
g24
tp4997
F1
s(Vvisibly
g64
tp4998
F1
s(g1770
g79
tp4999
F4
s(VInsects
g4
tp5000
F1
s(Vaffecting
g77
tp5001
F1
s(Vgive
g73
tp5002
F2
s(VDespair
g4
tp5003
F6
s(Vothers
S'NNS'
p5004
tp5005
F15
s(Vdemanded
g84
tp5006
F1
s(g2591
g34
tp5007
F4
s(S':'
g106
tp5008
F9
s(V'd
g8
tp5009
F30
s(VParties
g38
tp5010
F2
s(VAversions
g38
tp5011
F1
s(VThieves
g4
tp5012
F1
s(g73
g86
tp5013
F53
s(VCompany
g8
tp5014
F5
s(VFavourites
g4
tp5015
F1
s(VAbsence
g4
tp5016
F1
s(Vplunder
g73
tp5017
F1
s(VOperations
g38
tp5018
F1
s(Vreceiv
g24
tp5019
F1
s(VHours
g4
tp5020
F5
s(g136
g13
tp5021
F89
s(V't
g621
tp5022
F3
s(V``
g1120
tp5023
F3
s(VSabre
g8
tp5024
F1
s(VTake
g24
tp5025
F1
s(VTokens
g38
tp5026
F1
s(Vmartial
g13
tp5027
F1
s(Vinsulting
g13
tp5028
F1
s(g214
g13
tp5029
F1
s(VInfinity
g4
tp5030
F3
s(Vdomestic
S'JJ'
p5031
tp5032
F1
s(VIndulgence
g8
tp5033
F2
s(Vfair
g8
tp5034
F1
s(Vcontributed
g84
tp5035
F1
s(Vthee
g8
tp5036
F2
s(VMay
S'NNP'
p5037
tp5038
F4
s(VNotwithstanding
g77
tp5039
F2
s(Venclos
g13
tp5040
F1
s(VGold
g8
tp5041
F2
s(VFamily
g4
tp5042
F1
s(VSorrows
g38
tp5043
F1
s(Vnoted
g13
tp5044
F2
s(V_Arimazes_
g8
tp5045
F2
s(g68
g263
tp5046
F9
s(VCause
g8
tp5047
F10
s(VVessel
g4
tp5048
F1
s(Vbare
g13
tp5049
F1
s(Vrevolving
g77
tp5050
F1
s(VCord
g4
tp5051
F2
s(g3255
g24
tp5052
F1
s(Vdoubtless
g19
tp5053
F1
s(V_Itabod/Itobad_
g8
tp5054
F1
s(VNumbers
g38
tp5055
F1
s(Vthereupon
g13
tp5056
F1
s(VMusicians
g68
tp5057
F1
s(Vglew
g13
tp5058
F1
s(VSorcerer
g4
tp5059
F1
s(Vsurrounded
g70
tp5060
F2
s(VQuest
g4
tp5061
F2
s(Vflock
g73
tp5062
F1
s(VBoth
g4
tp5063
F1
s(Vyou
g1003
tp5064
F205
s(Vastonish
g13
tp5065
F6
s(Vdeck
g55
tp5066
F1
s(VFeats
g38
tp5067
F1
s(VCheese
g8
tp5068
F1
s(V_Oannes_
g8
tp5069
F2
s(V_D_
g8
tp5070
F1
s(V_Setoc_
g84
tp5071
F1
s(Vapproach
g55
tp5072
F2
s(g1893
g13
tp5073
F64
s(Vtip-top
g13
tp5074
F1
s(Vaffectionate
g13
tp5075
F4
s(VFrontiers
g4
tp5076
F1
s(g55
g77
tp5077
F2
s(VTribes
g4
tp5078
F1
s(Vdependent
g13
tp5079
F1
s(Vwhereas
g19
tp5080
F1
s(V_The
g13
tp5081
F16
s(Vthat
g19
tp5082
F288
s(VConstruction
g8
tp5083
F1
s(VConsideration
g4
tp5084
F2
s(S','
g55
tp5085
F49
s(VBlows
g38
tp5086
F1
s(g199
S','
tp5087
F2
s(g70
g315
tp5088
F1
s(Vwritten
S'VBN'
p5089
tp5090
F4
s(VYe
g38
tp5091
F1
s(Vpursue
g24
tp5092
F4
s(VSee
g24
tp5093
F3
s(Vlofty
g13
tp5094
F1
s(Vstupid
g24
tp5095
F1
s(Vpossibly
g64
tp5096
F12
s(Vliving
g24
tp5097
F1
s(V't
g31
tp5098
F5
s(Vsingle
S'JJ'
p5099
tp5100
F6
s(Vselfish
g13
tp5101
F1
s(Vcheck
g24
tp5102
F2
s(VMeans
g4
tp5103
F1
s(Vbeat
g8
tp5104
F1
s(VAccents
g38
tp5105
F1
s(Vdispatch
g13
tp5106
F1
s(VFisherman
g4
tp5107
F14
s(V_Zadig's_
g8
tp5108
F1
s(VHint
g4
tp5109
F2
s(Vdefil
g70
tp5110
F1
s(g2583
g1884
tp5111
F14
s(VBanks
g4
tp5112
F2
s(Vshow'r
g24
tp5113
F1
s(Vperfidious
g13
tp5114
F1
s(VAnxiety
g4
tp5115
F1
s(Vplunder
g55
tp5116
F1
s(VChief
g4
tp5117
F2
s(Vran
g8
tp5118
F1
s(g290
g4
tp5119
F3
s(VInclinations
g4
tp5120
F1
s(VHands
g38
tp5121
F3
s(V_Egyptians_
g4
tp5122
F1
s(V_Cathayan_
g8
tp5123
F1
s(VRow
g4
tp5124
F1
s(Vseparate
g73
tp5125
F1
s(Vdrown
g55
tp5126
F1
s(VPlunge
g8
tp5127
F1
s(VRigour
g4
tp5128
F1
s(VPontiff
g4
tp5129
F6
s(VTHE
g86
tp5130
F4
s(Vwithdrew
g84
tp5131
F4
s(V_Tyrants
g38
tp5132
F1
s(VViolins
g38
tp5133
F1
s(VTomb
g4
tp5134
F2
s(VTyranny
g4
tp5135
F1
s(VBurthen
g4
tp5136
F3
s(g4
g79
tp5137
F29
s(Vdry
g13
tp5138
F2
s(g86
g3693
tp5139
F3
s(Vgroan
g8
tp5140
F1
s(VReflection
g8
tp5141
F1
s(Veither
g24
tp5142
F1
s(g290
g38
tp5143
F1
s(VFreedoms
g4
tp5144
F1
s(Vn't
S'RB'
p5145
tp5146
F38
s(Vnever-failing
g13
tp5147
F2
s(g101
g64
tp5148
F6
s(VActions
g38
tp5149
F2
s(VRepast
g4
tp5150
F2
s(Vleft
g84
tp5151
F7
s(Vendowed
g70
tp5152
F2
s(Velegant
g13
tp5153
F2
s(Vthereby
g64
tp5154
F1
s(Vtrusty
g13
tp5155
F1
s(Vwrote
S'VBD'
p5156
tp5157
F7
s(VDust
g4
tp5158
F5
s(VGenerosity_
g4
tp5159
F1
s(VAccount
g4
tp5160
F4
s(Valtogether
g64
tp5161
F3
s(Vwhomsoever
g8
tp5162
F2
s(Vpossess
g13
tp5163
F2
s(Vrepair
g8
tp5164
F1
s(g271
g479
tp5165
F13
s(VConstancy
g4
tp5166
F2
s(Vwillingly
g64
tp5167
F1
s(Vthrew
g84
tp5168
F12
s(Vattended
g70
tp5169
F1
s(Vburn
g24
tp5170
F3
s(Vpuissant
g13
tp5171
F1
s(VCAPTIVE
g4
tp5172
F1
s(g31
g38
tp5173
F45
s(Vbefore
g64
tp5174
F6
s(Vtreated
g70
tp5175
F1
s(VServant
g8
tp5176
F1
s(Vdemand
g8
tp5177
F1
s(Vdispatch
g24
tp5178
F1
s(g4
g38
tp5179
F12
s(VConsequences
g38
tp5180
F1
s(VFrom
g19
tp5181
F6
s(VSaint
g8
tp5182
F1
s(VTongue
g8
tp5183
F1
s(VAshes
g38
tp5184
F1
s(VGuests
g38
tp5185
F2
s(Vsubordinate
g8
tp5186
F1
s(Vgallop
g24
tp5187
F1
s(Vallow
g73
tp5188
F1
s(VRewards
g4
tp5189
F1
s(Vplay
g70
tp5190
F1
s(Vafraid
g8
tp5191
F1
s(V_Scander_
g4
tp5192
F1
s(VStaff
g4
tp5193
F1
s(Vupwards
g38
tp5194
F1
s(g106
g347
tp5195
F2
s(V_Itobad's_
g13
tp5196
F1
s(Vdrest
g34
tp5197
F2
s(Vconsequently
g64
tp5198
F2
s(Vhundred
g84
tp5199
F2
s(VCaravans
g68
tp5200
F1
s(g101
g1003
tp5201
F38
s(Vpitched
g70
tp5202
F1
s(Vrapp
g8
tp5203
F1
s(V_Lists_
g4
tp5204
F1
s(VMusick-Master
g13
tp5205
F1
s(VVassals
g38
tp5206
F3
s(VMalady
g4
tp5207
F1
s(Vsomething
S'NN'
p5208
tp5209
F7
s(VFacts
g38
tp5210
F1
s(VTidings
g38
tp5211
F1
s(Vawkward
g13
tp5212
F1
s(Vsmile
g24
tp5213
F1
s(VBrother
g4
tp5214
F3
s(Vanswering
g77
tp5215
F1
s(V!
S'.'
tp5216
F82
s(Vdivine
g8
tp5217
F3
s(Vfurnish
g13
tp5218
F4
s(VPieces
g38
tp5219
F6
s(Vbanish
g13
tp5220
F1
s(VAdulations
g38
tp5221
F1
s(Vbenevolent
g8
tp5222
F1
s(VCarpet
g4
tp5223
F1
s(Vboldly
g64
tp5224
F1
s(Villiterate
g8
tp5225
F1
s(VComplaints
g38
tp5226
F2
s(g4
g271
tp5227
F3
s(Vwhoever
g8
tp5228
F1
s(Vdiscompose
g24
tp5229
F1
s(Vhave
g73
tp5230
F76
s(VAfternoon
g4
tp5231
F1
s(VGrievance
g8
tp5232
F1
s(Vgain-say
g24
tp5233
F1
s(Vhalf
g8
tp5234
F4
s(Vacts
g55
tp5235
F1
s(VHall
g8
tp5236
F1
s(g315
g19
tp5237
F2
s(Vmutual
S'JJ'
p5238
tp5239
F6
s(VRidges
g38
tp5240
F1
s(VFavours
g4
tp5241
F4
s(Vwhile
g19
tp5242
F5
s(VLadies
g4
tp5243
F1
s(g34
g86
tp5244
F1
s(Vviewing
g77
tp5245
F1
s(Vfound
g70
tp5246
F4
s(Vsense
g8
tp5247
F1
s(Vwaited
g84
tp5248
F5
s(Vuncommon
g13
tp5249
F4
s(Vprevent
g24
tp5250
F3
s(S'('
g79
tp5251
F1
s(Vrender
g8
tp5252
F2
s(VCrimes
g4
tp5253
F2
s(VReptiles
g4
tp5254
F1
s(Vtwinkling
g13
tp5255
F1
s(Vproperly
g64
tp5256
F2
s(Vview
g8
tp5257
F1
s(Vfind
g73
tp5258
F6
s(VCrayons
g4
tp5259
F1
s(S'('
g106
tp5260
F1
s(S'IN'
p5261
g79
tp5262
F27
s(Vlook
g24
tp5263
F6
s(VHistory
g4
tp5264
F1
s(VComfort
g8
tp5265
F1
s(V_French_
g4
tp5266
F1
s(VDelight
g4
tp5267
F2
s(VSaddles
g38
tp5268
F1
s(g479
g70
tp5269
F2
s(Vconvey
g8
tp5270
F1
s(Vsharp
g1391
tp5271
F2
s(g214
g4
tp5272
F10
s(V_Zadig_
g19
tp5273
F1
s(Vtransported
g70
tp5274
F2
s(Vungrateful
g13
tp5275
F3
s(Vforetold
g24
tp5276
F1
s(Vbeat
g73
tp5277
F1
s(S':'
g49
tp5278
F7
s(VEach
S'DT'
p5279
tp5280
F6
s(VSweet-heart
g4
tp5281
F1
s(Vthat
g79
tp5282
F98
s(Vsafe
g13
tp5283
F1
s(VNeither
g130
tp5284
F1
s(VElection
g4
tp5285
F2
s(Vmetamorphosed
g84
tp5286
F1
s(Vdesir
g55
tp5287
F1
s(V_Sage_
g8
tp5288
F1
s(Vbodily
g13
tp5289
F1
s(VCap
g4
tp5290
F2
s(VSake
g4
tp5291
F4
s(Vredoubled
g70
tp5292
F1
s(VTopicks
g38
tp5293
F1
s(Vrequesting
g77
tp5294
F1
s(Vper
g19
tp5295
F1
s(Vhappiest
g34
tp5296
F3
s(g86
g1003
tp5297
F8
s(g24
S')'
tp5298
F1
s(g316
g234
tp5299
F2
s(VFavourites
g38
tp5300
F2
s(Vhigh
g13
tp5301
F3
s(Vfirst
g64
tp5302
F14
s(g4
g188
tp5303
F8
s(VJust
g64
tp5304
F3
s(Vexecuted
g70
tp5305
F1
s(g77
S'.'
tp5306
F3
s(VShrub
g4
tp5307
F1
s(VProhibition
g4
tp5308
F1
s(Vboth
g86
tp5309
F31
s(VSandals
g38
tp5310
F1
s(VSkill
g4
tp5311
F3
s(g24
g1140
tp5312
F81
s(Vthou
g64
tp5313
F1
s(Vpronounced
g24
tp5314
F1
s(Vsilken
g8
tp5315
F1
s(Vpraise-worthy
g13
tp5316
F2
s(Vnecessitous
g13
tp5317
F1
s(VCure
g8
tp5318
F1
s(VUse
g4
tp5319
F3
s(Varose
g84
tp5320
F1
s(VQuality
g8
tp5321
F1
s(VRelease
g4
tp5322
F2
s(Vfairer
g8
tp5323
F1
s(Vdetestable
g13
tp5324
F1
s(VGriffins
g4
tp5325
F1
s(Vdoes
S'VBZ'
p5326
tp5327
F3
s(VGratitude
g4
tp5328
F4
s(VAdventures
g4
tp5329
F1
s(VAttendants
g38
tp5330
F5
s(Venough
g8
tp5331
F1
s(Vstrict
g8
tp5332
F1
s(Vperceiv
g55
tp5333
F7
s(Vimagin
g73
tp5334
F2
s(VGrandeur
g4
tp5335
F1
s(Vunhappily
g64
tp5336
F1
s(VIX
g4
tp5337
F2
s(VSobriety
g4
tp5338
F1
s(VSound
g4
tp5339
F2
s(VDebt
g4
tp5340
F2
s(Vrattling
g8
tp5341
F1
s(V_Setoc_
g181
tp5342
F1
s(Vcursing
g8
tp5343
F1
s(Vpetty
g13
tp5344
F5
s(VRace
g8
tp5345
F1
s(g122
g70
tp5346
F1
s(VEvidence
g8
tp5347
F1
s(VSuburbs
g4
tp5348
F1
s(V_Ogul_
g4
tp5349
F3
s(Voppress
g24
tp5350
F1
s(Vselling
g77
tp5351
F1
s(V_Derlbach_
g4
tp5352
F1
s(g290
g13
tp5353
F31
s(VDomestick
g4
tp5354
F1
s(VCoats
g38
tp5355
F1
s(VMonster
g8
tp5356
F1
s(Vbrilliant
g13
tp5357
F3
s(VHusbands
g38
tp5358
F1
s(Vindulg
g8
tp5359
F1
s(VFlint-Stones
g38
tp5360
F1
s(VEquilibrium
g4
tp5361
F1
s(Vanswer
g73
tp5362
F1
s(VCharmer
g4
tp5363
F1
s(VMaster
g4
tp5364
F16
s(Vcold
g13
tp5365
F1
s(Vbestow
g8
tp5366
F1
s(S':'
g24
tp5367
F7
s(Vseveral
S'JJ'
p5368
tp5369
F16
s(VPublic
g4
tp5370
F1
s(V_Babylonians_
g8
tp5371
F3
s(Vturn
g8
tp5372
F4
s(VGreen
g4
tp5373
F3
s(Vworthless
g13
tp5374
F2
s(VNumber
g4
tp5375
F5
s(VUsury
g4
tp5376
F1
s(V_Cador_
g8
tp5377
F16
s(g13
g1245
tp5378
F50
s(VVengeance
g4
tp5379
F1
s(VModesty
g4
tp5380
F2
s(g101
g316
tp5381
F1
s(VVirtues
g38
tp5382
F1
s(VScheme
g4
tp5383
F1
s(Vprofuse
g8
tp5384
F1
s(g263
g38
tp5385
F3
s(Vlooking
S'VBG'
p5386
tp5387
F2
s(Vchastiz
g70
tp5388
F1
s(V_Hyrcania_
g4
tp5389
F5
s(Vfrantick
g8
tp5390
F1
s(g38
g8
tp5391
F3
s(VAbstract
g4
tp5392
F1
s(VHands
g4
tp5393
F6
s(Vpristine
g8
tp5394
F1
s(VEducation
g8
tp5395
F3
s(g77
S','
tp5396
F19
s(Vairing
g77
tp5397
F1
s(VCuriosity
g4
tp5398
F5
s(Vsells
S'VBZ'
p5399
tp5400
F1
s(VAccommodation
g8
tp5401
F1
s(Vrecollected
g84
tp5402
F2
s(Vall_
g8
tp5403
F1
s(VSpiders
g4
tp5404
F1
s(VPleasures
g4
tp5405
F3
s(Vperceiv
g13
tp5406
F2
s(VCelebration
g4
tp5407
F1
s(VBrook
g4
tp5408
F1
s(Vpreposterous
g13
tp5409
F1
s(V_Celt_
g8
tp5410
F5
s(V_Moabdar_
g24
tp5411
F2
s(V't
g8
tp5412
F6
s(Vdistinguish
g13
tp5413
F3
s(VPatient
g4
tp5414
F3
s(S','
g181
tp5415
F2
s(VTraitors
g38
tp5416
F2
s(Vlively
g13
tp5417
F1
s(V_
g24
tp5418
F1
s(Vperceiving
g77
tp5419
F3
s(Vliving
g77
tp5420
F2
s(VHave
g73
tp5421
F1
s(Vsince
S'IN'
p5422
tp5423
F18
s(Voffers
g55
tp5424
F1
s(Vburies
g55
tp5425
F1
s(VAvocations
g4
tp5426
F1
s(VIndignation
g4
tp5427
F1
s(VMusick-Master
g4
tp5428
F2
s(VPermission
g4
tp5429
F1
s(VMoney
g4
tp5430
F8
s(Vaggravated
g84
tp5431
F1
s(V_Arbogad_
g8
tp5432
F4
s(VScepter
g4
tp5433
F1
s(g1003
g2354
tp5434
F153
s(VCharms
g4
tp5435
F3
s(g31
g4
tp5436
F47
s(g24
g19
tp5437
F140
s(VSilence
g4
tp5438
F2
s(g4
g4
tp5439
F203
s(Vmov
g13
tp5440
F1
s(Vcouragious
g73
tp5441
F1
s(Vrudely
g64
tp5442
F1
s(Vstudying
g77
tp5443
F1
s(VLanguages
g4
tp5444
F1
s(Vown
g24
tp5445
F2
s(VPremium
g4
tp5446
F1
s(VAttendant
g8
tp5447
F1
s(g31
g1788
tp5448
F2
s(Vdeclared
g84
tp5449
F1
s(VDogs
g38
tp5450
F1
s(Vremain
g24
tp5451
F1
s(Vcurious
g13
tp5452
F3
s(Vdoleful
g13
tp5453
F2
s(VTeats
g4
tp5454
F1
s(VBenevolence
g4
tp5455
F5
s(V_Zadig's_
g55
tp5456
F1
s(Vhaving
g347
tp5457
F17
s(V_Brama_
g4
tp5458
F1
s(Vrelieves
g38
tp5459
F1
s(VAirs
g4
tp5460
F1
s(Vinclosing
g77
tp5461
F1
s(Vreadily
g64
tp5462
F2
s(Vincens
g13
tp5463
F1
s(VPassion
g8
tp5464
F9
s(VDromedary
g4
tp5465
F2
s(g263
g1191
tp5466
F163
s(Vnegligent
g8
tp5467
F1
s(VCenter
S'NNP'
p5468
tp5469
F2
s(VMirth
g4
tp5470
F1
s(Vhobbled
g84
tp5471
F1
s(Vengaging
g13
tp5472
F1
s(Vgone
S'VBN'
p5473
tp5474
F3
s(VLeaves
g38
tp5475
F2
s(g59
g64
tp5476
F3
s(Vnearer
g8
tp5477
F1
s(V_Hyrcanian
g13
tp5478
F1
s(V_Orcan_
g70
tp5479
F1
s(VSoul
g4
tp5480
F8
s(V_Zadig_
g70
tp5481
F1
s(VChinese
g4
tp5482
F1
s(g36
g2354
tp5483
F6
s(VEvening
g4
tp5484
F3
s(VRage
g4
tp5485
F2
s(VPlenty
g4
tp5486
F1
s(Vlavish
g8
tp5487
F1
s(Vsignifies
g55
tp5488
F1
s(VPieces
g4
tp5489
F1
s(VDetail
g4
tp5490
F1
s(VTreasure
g8
tp5491
F1
s(VHue
g4
tp5492
F1
s(VPhilosophy
g4
tp5493
F6
s(VCommand
g4
tp5494
F1
s(VBrink
g4
tp5495
F2
s(Vyellow
g8
tp5496
F1
s(Vfoster
g13
tp5497
F1
s(Vbefore-mention
g8
tp5498
F1
s(VSlaves
g70
tp5499
F1
s(Vaddress
g13
tp5500
F1
s(VMoot-point
g13
tp5501
F1
s(Vbite
g24
tp5502
F2
s(VWhole
g4
tp5503
F6
s(VLadies
g38
tp5504
F4
s(Vroyal
g8
tp5505
F1
s(g38
g79
tp5506
F11
s(Vfainting
g77
tp5507
F1
s(Vburnt
g70
tp5508
F1
s(VReward
g4
tp5509
F3
s(Vengag
g64
tp5510
F1
s(VError
g8
tp5511
F2
s(Vwatch
g13
tp5512
F1
s(VJoint-Heirs
g38
tp5513
F1
s(VTitles
g4
tp5514
F1
s(VJewels
g4
tp5515
F1
s(V'd
g199
tp5516
F2
s(VBig
g13
tp5517
F1
s(VInfant
g4
tp5518
F1
s(Vnative
g13
tp5519
F2
s(Vinform
g13
tp5520
F4
s(g55
g122
tp5521
F65
s(Vplunder
g8
tp5522
F2
s(VBreath
g4
tp5523
F3
s(Vserv
g73
tp5524
F1
s(VDream
g8
tp5525
F1
s(Vanswers
g38
tp5526
F1
s(Vever-shining
g13
tp5527
F1
s(Vdisrobe
g24
tp5528
F1
s(VAdmirer
g4
tp5529
F1
s(VII
g4
tp5530
F2
s(g31
g107
tp5531
F3
s(Vspacious
g13
tp5532
F3
s(VApoplectic
g4
tp5533
F2
s(VSound
g8
tp5534
F1
s(VArmour
g24
tp5535
F1
s(VInstructions
g38
tp5536
F1
s(VThicket-side
g4
tp5537
F1
s(V_Colossus_-like
g13
tp5538
F1
s(VSerpents
g38
tp5539
F1
s(Vgreatly
g64
tp5540
F4
s(Vsuperficial
g13
tp5541
F1
s(S')'
S'.'
tp5542
F1
s(VPocket
g8
tp5543
F2
s(VPetraea_
g4
tp5544
F2
s(S':'
g79
tp5545
F7
s(g68
S','
tp5546
F22
s(Vwept
g73
tp5547
F1
s(Vexhorted
g84
tp5548
F1
s(Vresign
g13
tp5549
F2
s(VFelicity
g4
tp5550
F1
s(VDebtor
g8
tp5551
F1
s(VGold
g4
tp5552
F16
s(VScenes
g38
tp5553
F1
s(Vcondole
g13
tp5554
F1
s(VCompetitors
g38
tp5555
F2
s(Vgranted
g70
tp5556
F2
s(Vdy
g55
tp5557
F1
s(VInjuries
g38
tp5558
F1
s(VHead
g8
tp5559
F5
s(VRiddles
g4
tp5560
F1
s(VExpressions
g38
tp5561
F2
s(Vyet
g64
tp5562
F19
s(VContempt
g4
tp5563
F7
s(Vmingle
g24
tp5564
F1
s(VCoquet_
g4
tp5565
F1
s(Vfresh
g13
tp5566
F2
s(Vcool
g8
tp5567
F1
s(g2030
S','
tp5568
F8
s(g8
S')'
tp5569
F1
s(VChiefs
g4
tp5570
F1
s(Vpronounc
g73
tp5571
F2
s(g1003
g1140
tp5572
F13
s(Vthou
g13
tp5573
F4
s(Vresponsible
S'JJ'
p5574
tp5575
F1
s(Vcomplied
g70
tp5576
F1
s(Vbath
g8
tp5577
F1
s(Vprick
g13
tp5578
F1
s(Vadditional
S'JJ'
p5579
tp5580
F1
s(VArithmetick
g4
tp5581
F1
s(Vgazing
g77
tp5582
F1
s(VKind
g4
tp5583
F3
s(Vjudicial
g13
tp5584
F1
s(Vgain
g8
tp5585
F1
s(Vfruitless
g13
tp5586
F2
s(VDistemper
g4
tp5587
F1
s(VPromise
g4
tp5588
F1
s(Vunjust
g13
tp5589
F1
s(VAntiquity
g4
tp5590
F1
s(Vregret
g73
tp5591
F1
s(Vgenerously
g64
tp5592
F4
s(g669
g290
tp5593
F1
s(VVow
g4
tp5594
F1
s(VChorus
g4
tp5595
F2
s(VHorse
g4
tp5596
F5
s(VArguments
g38
tp5597
F1
s(VConsideration
g8
tp5598
F1
s(VFits
g4
tp5599
F2
s(VAction
g4
tp5600
F5
s(Vwip
g55
tp5601
F1
s(V_Azora_
g13
tp5602
F2
s(VPenetration
g4
tp5603
F2
s(VJustice
g8
tp5604
F2
s(VRose-bush
g4
tp5605
F2
s(VCheeks
g4
tp5606
F6
s(VCombatants
g38
tp5607
F3
s(VIntents
g38
tp5608
F1
s(Vparry
g24
tp5609
F1
s(Vobserv
g73
tp5610
F1
s(Venrich
g24
tp5611
F1
s(Voverwhelm
g13
tp5612
F3
s(VWalk
g8
tp5613
F2
s(VAncestors
g38
tp5614
F2
s(g38
S':'
tp5615
F41
s(Vpass
g70
tp5616
F1
s(Vprov
g70
tp5617
F3
s(VTerritories
g38
tp5618
F1
s(Vsobb
g8
tp5619
F1
s(VYounger
g59
tp5620
F1
s(Vtroublesome
g13
tp5621
F1
s(g181
S'.'
tp5622
F19
s(VMarriage-Contract
g13
tp5623
F1
s(VTurtles
g38
tp5624
F1
s(Vintended
g84
tp5625
F3
s(Vstand
g24
tp5626
F2
s(Vinferior
g13
tp5627
F4
s(V_Orcan_
g24
tp5628
F1
s(Vresounds
g55
tp5629
F1
s(Vburning
g77
tp5630
F1
s(Vseeming
g77
tp5631
F1
s(VAscendancy
g4
tp5632
F1
s(Vvery
g64
tp5633
F91
s(Vpursuant
g8
tp5634
F1
s(Vdawn
g24
tp5635
F1
s(g70
g73
tp5636
F2
s(VSpelling
g8
tp5637
F1
s(Vretreated
g84
tp5638
F1
s(Vwelcome
g13
tp5639
F1
s(VBlows
g4
tp5640
F1
s(Vshine
g8
tp5641
F1
s(V_Brama_
g8
tp5642
F3
s(Vinstead
S'RB'
p5643
tp5644
F3
s(g271
g1784
tp5645
F4
s(Vsuperior
g13
tp5646
F8
s(VBeauty
g4
tp5647
F6
s(Vhidden
g13
tp5648
F1
s(VFoot-ball
g4
tp5649
F1
s(VLeg
g4
tp5650
F2
s(Vconfin
g8
tp5651
F1
s(Vrefulgent
g8
tp5652
F1
s(VNotes
g4
tp5653
F1
s(Vshriek
g8
tp5654
F1
s(g136
g263
tp5655
F19
s(VEYE
g4
tp5656
F1
s(VDungeon
g4
tp5657
F1
s(VCelestial
g13
tp5658
F1
s(g136
g580
tp5659
F17
s(VPatience
g4
tp5660
F1
s(V_AEnigmas_
g38
tp5661
F1
s(Vout
g19
tp5662
F29
s(VDinner
g4
tp5663
F3
s(VJudge
S'NNP'
p5664
tp5665
F11
s(Vparted
g84
tp5666
F2
s(g59
g31
tp5667
F1
s(Vtreat
g24
tp5668
F2
s(VThing
g4
tp5669
F4
s(g4641
g476
tp5670
F3
s(VWhy
S'WRB'
p5671
tp5672
F8
s(VAffairs
g4
tp5673
F2
s(Vwish
g13
tp5674
F5
s(Vthirty
g13
tp5675
F1
s(VSepulchre
g4
tp5676
F1
s(VPromotion
g4
tp5677
F1
s(Vself
g621
tp5678
F1
s(VSycophants
g38
tp5679
F2
s(Vset
g8
tp5680
F1
s(Vready
g13
tp5681
F13
s(Vturn
g73
tp5682
F5
s(Vtry
g24
tp5683
F1
s(Vlaid
g73
tp5684
F1
s(VPerfections
g38
tp5685
F1
s(VScene
g4
tp5686
F2
s(Vdeform
g24
tp5687
F1
s(Vpropitious
g13
tp5688
F3
s(VCharms
g38
tp5689
F4
s(Vparticular
g13
tp5690
F7
s(VDanger
g4
tp5691
F3
s(Vsorely
g64
tp5692
F2
s(Vsurely
g64
tp5693
F2
s(VPreferment
g8
tp5694
F1
s(VTime
g4
tp5695
F61
s(Vhuman
g13
tp5696
F3
s(VConfidence
g4
tp5697
F1
s(Vwait
g24
tp5698
F5
s(V_Arabian_
g4
tp5699
F4
s(Vthrowing
g77
tp5700
F1
s(VRestitution
g8
tp5701
F1
s(VInnocence
g4
tp5702
F2
s(Vrapid
g13
tp5703
F1
s(VAmusements
g38
tp5704
F2
s(Vactually
S'RB'
p5705
tp5706
F4
s(Vcajol
g13
tp5707
F1
s(g324
g59
tp5708
F6
s(Vtransmitted
g70
tp5709
F1
s(Vador
g84
tp5710
F1
s(g979
g4
tp5711
F440
s(VBlood
g4
tp5712
F2
s(VUneasiness
g8
tp5713
F1
s(VMorality
g4
tp5714
F1
s(Vwide
S'JJ'
p5715
tp5716
F3
s(Vreflecting
S'VBG'
p5717
tp5718
F3
s(VEffect
g8
tp5719
F1
s(Vadvantageous
g13
tp5720
F1
s(VOh
g181
tp5721
F7
s(Venter
g13
tp5722
F1
s(V'd
g271
tp5723
F2
s(g1893
g64
tp5724
F4
s(Vpeculiar
g13
tp5725
F4
s(V_Coquet_
g8
tp5726
F1
s(Vintended
g13
tp5727
F1
s(Vsecond
g13
tp5728
F11
s(g316
S')'
tp5729
F1
s(g315
g24
tp5730
F2
s(VBand
g4
tp5731
F2
s(Vemploy
g13
tp5732
F2
s(VLions
g38
tp5733
F1
s(Vfavourable
g13
tp5734
F1
s(g122
g101
tp5735
F1
s(VCircumstances
g38
tp5736
F4
s(VAEnigmas_
g4
tp5737
F1
s(Vrefus
g73
tp5738
F1
s(VWhat
g2030
tp5739
F23
s(VClouds
g4
tp5740
F1
s(Vloving
g8
tp5741
F1
s(g55
g263
tp5742
F18
s(Veaten
g70
tp5743
F2
s(Vdisarm
g8
tp5744
F2
s(Vlessen
g73
tp5745
F1
s(VLand
g4
tp5746
F3
s(Vcertainly
S'RB'
p5747
tp5748
F1
s(VSand
g4
tp5749
F8
s(Vraising
g77
tp5750
F1
s(Vscorn
g73
tp5751
F1
s(Vtill
g8
tp5752
F4
s(Vunmercifully
g64
tp5753
F3
s(Vfighting
g77
tp5754
F1
s(Vdivided
g70
tp5755
F3
s(Vundertaking
g77
tp5756
F1
s(VHesitation
g4
tp5757
F1
s(g34
g38
tp5758
F18
s(VMatrimony
g4
tp5759
F2
s(g86
g479
tp5760
F27
s(g136
g33
tp5761
F165
s(VChallenge
g4
tp5762
F1
s(S','
g122
tp5763
F39
s(g136
g763
tp5764
F88
s(Vannually
S'RB'
p5765
tp5766
F1
s(Vadministred
g70
tp5767
F1
s(VDesterham
g4
tp5768
F2
s(Vquits
g55
tp5769
F1
s(V_Hyrcanian_
g4
tp5770
F1
s(Vfaithful
g13
tp5771
F1
s(VSale
g4
tp5772
F1
s(Vitself
S'PRP'
p5773
tp5774
F6
s(Vclos
g73
tp5775
F1
s(Vtame
g13
tp5776
F1
s(g290
g670
tp5777
F5
s(Vunaccountable
g13
tp5778
F1
s(VEsquires
g38
tp5779
F1
s(Vdismiss
g13
tp5780
F1
s(VAppearance
g4
tp5781
F1
s(VDo
g73
tp5782
F1
s(Vopposite
g64
tp5783
F1
s(Vsenseless
g13
tp5784
F1
s(Vcontemplated
g84
tp5785
F1
s(VTable
g4
tp5786
F6
s(VWarmth
g4
tp5787
F2
s(Vsquander
g70
tp5788
F1
s(Vdown
g64
tp5789
F11
s(g38
g580
tp5790
F18
s(VOeconomist
g8
tp5791
F1
s(Vaccompanied
g84
tp5792
F1
s(Vrefuses
g55
tp5793
F1
s(Vpast
g13
tp5794
F2
s(g5422
g315
tp5795
F12
s(VBack-Door
g13
tp5796
F1
s(S')'
g8
tp5797
F1
s(g271
g84
tp5798
F1
s(Vvalue
S'NN'
p5799
tp5800
F1
s(VBeard
g4
tp5801
F4
s(Vequal
g13
tp5802
F4
s(Vdischarg
g13
tp5803
F1
s(g621
g86
tp5804
F64
s(Vwalk
g24
tp5805
F1
s(VMessenger
g4
tp5806
F4
s(VAnother
S'DT'
p5807
tp5808
F1
s(VTurn
g4
tp5809
F1
s(Vdrove
g84
tp5810
F1
s(Vcalmly
g64
tp5811
F1
s(VExecutioner
g4
tp5812
F1
s(Vask
g73
tp5813
F2
s(Vspotless
g8
tp5814
F1
s(g4
g59
tp5815
F5
s(VSilk
g4
tp5816
F1
s(Vye
g38
tp5817
F1
s(VWidow
g4
tp5818
F19
s(S','
g13
tp5819
F70
s(VOak
g4
tp5820
F2
s(Vround
g19
tp5821
F2
s(V_Device_
g8
tp5822
F2
s(VAbyss
g4
tp5823
F3
s(Vadulating
g77
tp5824
F1
s(Vprocure
g24
tp5825
F3
s(VPeach
g4
tp5826
F1
s(VButtocks
g4
tp5827
F1
s(VHands
g55
tp5828
F1
s(VRestoration
g4
tp5829
F1
s(VSorrows
g4
tp5830
F5
s(VDay
g4
tp5831
F42
s(V_Thalestris_
g70
tp5832
F1
s(VDetail
g8
tp5833
F1
s(V_Itobad_
g64
tp5834
F1
s(VSaddle
g4
tp5835
F3
s(S','
S'('
tp5836
F4
s(Vsoftest
g34
tp5837
F1
s(VCheeses
g38
tp5838
F2
s(Vunfortunate
g8
tp5839
F1
s(VMan_
g4
tp5840
F3
s(Vsup
g24
tp5841
F1
s(Vthousand
g31
tp5842
F4
s(g107
g59
tp5843
F4
s(VConsolation
g4
tp5844
F2
s(Vconjectur
g73
tp5845
F1
s(VDemise
g4
tp5846
F1
s(Vtaken
g419
tp5847
F22
s(Vhere
g1784
tp5848
F13
s(Vexpiring
g77
tp5849
F2
s(Vlaughs
g55
tp5850
F1
s(Vfavour
g8
tp5851
F1
s(V_Venus_
g24
tp5852
F1
s(V_Fortune_
g64
tp5853
F1
s(Vrais
g73
tp5854
F2
s(Vfleetest
g34
tp5855
F1
s(Vblasted
g70
tp5856
F1
s(VAdmiration
g4
tp5857
F3
s(VMy
g36
tp5858
F6
s(Vreceive
g73
tp5859
F1
s(Vone
g31
tp5860
F102
s(VHusband
g8
tp5861
F1
s(Vdoubtless
g64
tp5862
F1
s(VPartner
g4
tp5863
F4
s(VOne
g4
tp5864
F2
s(Vtruly
g8
tp5865
F1
s(V_One
g4
tp5866
F1
s(Vbegg
g73
tp5867
F1
s(g8
g199
tp5868
F36
s(Vdestructive
g13
tp5869
F1
s(VMerchandize
g4
tp5870
F1
s(g64
g86
tp5871
F48
s(VQuestion
g4
tp5872
F3
s(Vrerum
g8
tp5873
F1
s(VFreedom
g4
tp5874
F3
s(Vwiser
g70
tp5875
F1
s(Voffered
g70
tp5876
F1
s(V_Itabod_
g8
tp5877
F2
s(VDescription
g4
tp5878
F3
s(Vceas
g8
tp5879
F1
s(VServant
g4
tp5880
F1
s(VDames
g4
tp5881
F1
s(VPriests
g38
tp5882
F1
s(V)
S')'
tp5883
F17
s(VWhereupon
g8
tp5884
F1
s(Vvoluptuous
g13
tp5885
F1
s(Vwild
g13
tp5886
F1
s(Vbeset
g70
tp5887
F1
s(Vintimated
g13
tp5888
F1
s(Vpurchas
g8
tp5889
F2
s(VHeight
g4
tp5890
F3
s(Vmean
g13
tp5891
F8
s(Vundaunted
g13
tp5892
F1
s(VExchange
S'NNP'
p5893
tp5894
F1
s(VPresents
g38
tp5895
F2
s(Vintent
g8
tp5896
F1
s(Vcompos
g70
tp5897
F1
s(Vunanimously
g64
tp5898
F4
s(Vconsistent
g8
tp5899
F1
s(Vreality
g8
tp5900
F1
s(g13
g136
tp5901
F44
s(VDistances
g38
tp5902
F1
s(VPhysick
g4
tp5903
F1
s(VNotes
g38
tp5904
F1
s(Vchastise
g24
tp5905
F1
s(V4
S'CD'
p5906
tp5907
F1
s(Vdeserv
g73
tp5908
F1
s(Vdistill
g8
tp5909
F1
s(g263
g979
tp5910
F79
s(Vsucceed
S'VB'
p5911
tp5912
F1
s(Vits
g36
tp5913
F11
s(Vdefended
g84
tp5914
F1
s(Vdemonstrated
g84
tp5915
F1
s(VSuch
g13
tp5916
F4
s(Vgenteely
g64
tp5917
F1
s(Vsoften
g24
tp5918
F1
s(V_AEnigmas_
g4
tp5919
F1
s(VTranscriber
g4
tp5920
F1
s(Vyou._
g8
tp5921
F1
s(Vstripp
g13
tp5922
F1
s(Vlikewise
g13
tp5923
F1
s(Vprofess
g8
tp5924
F2
s(Vtho
g13
tp5925
F1
s(g68
g38
tp5926
F3
s(g34
g670
tp5927
F13
s(g4
g1150
tp5928
F56
s(Vcredit
S'NN'
p5929
tp5930
F1
s(V_Egyptian_
g8
tp5931
F12
s(Vconsisting
g77
tp5932
F1
s(Vsincere
g13
tp5933
F3
s(Vblind
g24
tp5934
F1
s(VFriend
g8
tp5935
F11
s(Vrepeated
g13
tp5936
F1
s(Vread
g24
tp5937
F5
s(V_Zadig_
g24
tp5938
F23
s(Vdurst
g73
tp5939
F3
s(Vappriz
g73
tp5940
F1
s(Vlaid
g70
tp5941
F4
s(Vconfiscated
g70
tp5942
F1
s(VTrust
S'NNP'
p5943
tp5944
F1
s(Vexample
S'NN'
p5945
tp5946
F2
s(VJourney
g4
tp5947
F5
s(Vrecover
g8
tp5948
F1
s(Vdragg
g8
tp5949
F1
s(VBitch
g4
tp5950
F9
s(VCompliment
g4
tp5951
F4
s(VCarats
g68
tp5952
F1
s(VFUNERAL
g4
tp5953
F1
s(VRemainder
g4
tp5954
F1
s(VSciences
g38
tp5955
F1
s(g24
g285
tp5956
F2
s(Vswell
g73
tp5957
F1
s(Vuse
g24
tp5958
F3
s(VBeer
g4
tp5959
F1
s(V_Astarte_
g13
tp5960
F1
s(Vproceed
g73
tp5961
F1
s(Vwo
S'MD'
p5962
tp5963
F1
s(g81
g34
tp5964
F2
s(Vhasten
g24
tp5965
F1
s(Vaway
g64
tp5966
F18
s(VNext
g13
tp5967
F1
s(g409
g38
tp5968
F172
s(g19
g73
tp5969
F2
s(Vtrusty
g8
tp5970
F2
s(g386
g68
tp5971
F27
s(Vunder
S'IN'
p5972
tp5973
F18
s(VMiddle
g4
tp5974
F1
s(g1454
g2583
tp5975
F79
s(Vexpress
g8
tp5976
F2
s(Vdividing
g77
tp5977
F1
s(Vdiscoursed
g84
tp5978
F1
s(Vclarity
g8
tp5979
F1
s(VFestivals
g4
tp5980
F1
s(Vstuds
g8
tp5981
F1
s(Vbroke
g84
tp5982
F4
s(VTribute
g8
tp5983
F1
s(V'd
g130
tp5984
F5
s(VAnswers
g38
tp5985
F2
s(Vsorry
g13
tp5986
F2
s(g31
g84
tp5987
F8
s(Vmanaging
g77
tp5988
F1
s(g70
S','
tp5989
F52
s(g8
g285
tp5990
F3
s(VDegree
g4
tp5991
F9
s(Vpurling
g8
tp5992
F1
s(VFree-booting
g4
tp5993
F1
s(Vclose
g13
tp5994
F2
s(VPlants
g38
tp5995
F2
s(g136
g70
tp5996
F3
s(Vseeing
g77
tp5997
F3
s(VTribute
g4
tp5998
F1
s(Vlate
g13
tp5999
F4
s(Vappointed
g70
tp6000
F2
s(Vtrickl
g8
tp6001
F1
s(Vdistracted
g70
tp6002
F2
s(VResistance
g8
tp6003
F1
s(VBear
S'NNP'
p6004
tp6005
F1
s(Vhundred
g31
tp6006
F2
s(VMyriad
g4
tp6007
F1
s(Vblown
g70
tp6008
F2
s(Vvague
g13
tp6009
F1
s(g1884
g38
tp6010
F18
s(VNose
g8
tp6011
F1
s(V_Babylonian_
g8
tp6012
F1
s(S','
g106
tp6013
F114
s(Vso
g64
tp6014
F116
s(Vimpropitious
g13
tp6015
F4
s(VAuthor
g8
tp6016
F1
s(Vdearly
g8
tp6017
F1
s(VEye
g8
tp6018
F1
s(Vconducted
g70
tp6019
F2
s(Vrude
g8
tp6020
F1
s(Vchose
g84
tp6021
F1
s(Vcritical
S'JJ'
p6022
tp6023
F4
s(VVillain
g4
tp6024
F2
s(VIntegrity
g4
tp6025
F1
s(VPeacock
g4
tp6026
F1
s(Vcancell
g8
tp6027
F1
s(VBRINDLEY
g4
tp6028
F1
s(VWeight
g4
tp6029
F8
s(VJokes
g4
tp6030
F1
s(Vfourteen
g13
tp6031
F1
s(Vtrembling
g8
tp6032
F1
s(Vimpartial
g13
tp6033
F3
s(Vpresent
g73
tp6034
F1
s(Vspying
g77
tp6035
F1
s(Vdoing
S'VBG'
p6036
tp6037
F3
s(VHousehold
g4
tp6038
F1
s(Vembrac
g13
tp6039
F1
s(VNephew
g4
tp6040
F3
s(V_Egyptians_
g8
tp6041
F1
s(VHeart
g8
tp6042
F2
s(g77
g479
tp6043
F24
s(VMonument
g8
tp6044
F2
s(g70
g4
tp6045
F13
s(VGrass-plat
g4
tp6046
F1
s(VLaws
g4
tp6047
F5
s(VMisfortunes
g38
tp6048
F12
s(VAcuteness
g4
tp6049
F1
s(S'DT'
p6050
g106
tp6051
F5
s(Vcareless
g8
tp6052
F1
s(VDecease
g4
tp6053
F1
s(Vgraceful
g13
tp6054
F1
s(VPow'r
g8
tp6055
F1
s(VColdness
g4
tp6056
F1
s(Valleviate
g24
tp6057
F1
s(V_Arabians_
g8
tp6058
F1
s(VMerchants
g38
tp6059
F3
s(g34
S':'
tp6060
F1
s(g106
g263
tp6061
F1
s(Vo
g8
tp6062
F1
s(V_India_
g4
tp6063
F1
s(g64
g38
tp6064
F3
s(Vador
g13
tp6065
F2
s(VPain
g4
tp6066
F1
s(Vconclude
g24
tp6067
F3
s(Vwhereupon
g19
tp6068
F1
s(VConsort
g4
tp6069
F6
s(Vpopular
S'JJ'
p6070
tp6071
F1
s(g55
g271
tp6072
F2
s(Vprovided
g84
tp6073
F1
s(Vstrangled
g70
tp6074
F4
s(Vexpos
g70
tp6075
F1
s(Vinto
S'IN'
p6076
tp6077
F55
s(VChaos
g4
tp6078
F1
s(VVote
g4
tp6079
F2
s(V_Fate_
g8
tp6080
F2
s(VNever
g4
tp6081
F1
s(Vacknowledg
g64
tp6082
F1
s(VConjugal-Affection
g4
tp6083
F1
s(Vdelineated
g70
tp6084
F1
s(g8
g316
tp6085
F20
s(Vimpossible
g13
tp6086
F1
s(Vpleas
g13
tp6087
F4
s(g101
g84
tp6088
F3
s(VWorld
g4
tp6089
F27
s(Vcredited
g70
tp6090
F1
s(Vpunish
g13
tp6091
F1
s(VHellebore
g4
tp6092
F1
s(VSpirits
g4
tp6093
F1
s(VGreat
g4
tp6094
F5
s(Vcasting
g77
tp6095
F1
s(Vreading
g77
tp6096
F1
s(VModeration
g4
tp6097
F1
s(Vremove
g24
tp6098
F1
s(Vordered
g84
tp6099
F1
s(Vperplext
g13
tp6100
F1
s(Vowe
g73
tp6101
F1
s(VSensations
g4
tp6102
F1
s(VStuds
g4
tp6103
F2
s(Vtrembling
g77
tp6104
F2
s(VRetreat
g8
tp6105
F1
s(VMile
g4
tp6106
F1
s(g122
g107
tp6107
F3
s(VDeliverer
g4
tp6108
F1
s(g621
S':'
tp6109
F48
s(VRoses
g4
tp6110
F3
s(VAdventures
g38
tp6111
F2
s(g24
g24
tp6112
F12
s(g122
g285
tp6113
F1
s(VYear
g4
tp6114
F2
s(Vfight
g24
tp6115
F1
s(Vdauntless
g8
tp6116
F1
s(VSolutions
g38
tp6117
F1
s(Vtruly
g64
tp6118
F1
s(Vsuccessfully
g64
tp6119
F1
s(VWhilst
g4
tp6120
F1
s(VDromedaries
g38
tp6121
F1
s(V_Lists_
g8
tp6122
F2
s(VDivine
g4
tp6123
F2
s(Vinstill
g13
tp6124
F1
s(g4
S')'
tp6125
F7
s(Vconfirm
g8
tp6126
F1
s(Vprompted
g84
tp6127
F2
s(Vkiss
g55
tp6128
F1
s(Vround
g24
tp6129
F5
s(VMAN
g4
tp6130
F1
s(V_Orasmades_
g4
tp6131
F1
s(VLady
g4
tp6132
F26
s(VChambers
g4
tp6133
F1
s(VSounds
g68
tp6134
F1
s(VProject
g8
tp6135
F1
s(g2383
g77
tp6136
F6
s(Vensue
g24
tp6137
F1
s(VVelocity
g4
tp6138
F1
s(VMen
g4
tp6139
F11
s(VSunset
g4
tp6140
F1
s(VBeing._
g4
tp6141
F1
s(VNarration.
g4
tp6142
F1
s(VPriests
g68
tp6143
F1
s(Vsparkling
g13
tp6144
F1
s(Vnear
g19
tp6145
F5
s(Vunjustly
g64
tp6146
F1
s(g36
g1893
tp6147
F6
s(Vheartily
g64
tp6148
F1
s(Vsurpris
g13
tp6149
F1
s(Vmyself
g621
tp6150
F9
s(VEye-Witness
g13
tp6151
F1
s(VHowever
S'RB'
p6152
tp6153
F6
s(VConcert
g4
tp6154
F2
s(Vkill
g8
tp6155
F1
s(VRules
g38
tp6156
F1
s(VLaw
g4
tp6157
F6
s(VQuarrel
g4
tp6158
F1
s(VA
g86
tp6159
F15
s(Villiterate
g13
tp6160
F1
s(Vfond
g13
tp6161
F1
s(Vreturning
g77
tp6162
F4
s(VCrust
g4
tp6163
F1
s(Vspiteful
g13
tp6164
F1
s(VSacrifice
g4
tp6165
F2
s(VSummit
g4
tp6166
F1
s(Vshortest
g34
tp6167
F1
s(VTien
g4
tp6168
F1
s(g59
g4651
tp6169
F1
s(Vspent
g70
tp6170
F1
s(g1003
g580
tp6171
F209
s(g2591
g106
tp6172
F7
s(VWhereas
g106
tp6173
F1
s(VVillain
g73
tp6174
F1
s(g77
g64
tp6175
F27
s(Virrational
g13
tp6176
F1
s(Villustrious
g13
tp6177
F10
s(Venhanc
g13
tp6178
F1
s(Vfalls
g55
tp6179
F1
s(Vlearned
g13
tp6180
F3
s(VPleasures
g38
tp6181
F3
s(Vev'ry
g13
tp6182
F2
s(VFire
g4
tp6183
F5
s(Vcalling
S'VBG'
p6184
tp6185
F1
s(Velaborate
g13
tp6186
F1
s(VHarangue
g8
tp6187
F1
s(Vnoble
g13
tp6188
F1
s(V_Arimazes_
g24
tp6189
F1
s(Vherself
g24
tp6190
F5
s(S':'
g534
tp6191
F13
s(Vmoreover
g24
tp6192
F2
s(VRays
g68
tp6193
F1
s(VGulf
S'NNP'
p6194
tp6195
F1
s(Vmonstrous
g13
tp6196
F1
s(Vendeavour
g55
tp6197
F2
s(Vcharm
g8
tp6198
F1
s(V_Astarte_
g4
tp6199
F11
s(VNoon
g4
tp6200
F1
s(Vindebted
g13
tp6201
F2
s(VBehaviour
g4
tp6202
F1
s(Vpeevish
g13
tp6203
F1
s(Vkill
g24
tp6204
F3
s(Vkeep
g73
tp6205
F1
s(VBe
g24
tp6206
F1
s(Vchatting
g77
tp6207
F1
s(VWorship
g4
tp6208
F1
s(Vwhilst
g84
tp6209
F3
s(g31
g352
tp6210
F1
s(VTongue
g24
tp6211
F1
s(g1379
g669
tp6212
F1
s(VParties
g68
tp6213
F1
s(Vimperious
g13
tp6214
F2
s(VWine
g4
tp6215
F1
s(Vgently
g64
tp6216
F1
s(g70
g609
tp6217
F169
s(VDecree
g4
tp6218
F1
s(Vvery
g13
tp6219
F1
s(VDesart
g4
tp6220
F1
s(Vdraw
g24
tp6221
F1
s(VDisgust
g4
tp6222
F2
s(Vregister
g8
tp6223
F1
s(g1150
g24
tp6224
F372
s(g86
g33
tp6225
F6
s(S')'
g136
tp6226
F2
s(VPoint
g4
tp6227
F4
s(Vtwelve
g13
tp6228
F2
s(Vamend
g24
tp6229
F1
s(Vmeritorious
g13
tp6230
F2
s(g64
g77
tp6231
F26
s(Vbeyond
S'IN'
p6232
tp6233
F3
s(Vjustly
g64
tp6234
F3
s(Vheard
g84
tp6235
F2
s(VPowers
g38
tp6236
F1
s(Vhold
g73
tp6237
F1
s(Vpaying
S'VBG'
p6238
tp6239
F1
s(V_my
g24
tp6240
F1
s(S':'
g19
tp6241
F67
s(Vtwisted
g70
tp6242
F1
s(VLucubrations
g68
tp6243
F1
s(VEndeavours
g68
tp6244
F1
s(Vsubject
g13
tp6245
F2
s(Vswill
g24
tp6246
F1
s(Vtenderest
g34
tp6247
F1
s(Vmodest
S'JJ'
p6248
tp6249
F3
s(VNecks
g38
tp6250
F1
s(Vone
g8
tp6251
F3
s(g84
g263
tp6252
F81
s(g8
g34
tp6253
F2
s(VHave
g4
tp6254
F1
s(VAnd
S'CC'
p6255
tp6256
F34
s(g59
g24
tp6257
F1
s(Vresumed
g84
tp6258
F1
s(Vshort
g13
tp6259
F30
s(Vknows
g55
tp6260
F1
s(Valighted
g84
tp6261
F1
s(V_Iran_
g8
tp6262
F1
s(Vwell-bred
g13
tp6263
F1
s(Vone-ey
g13
tp6264
F1
s(VSage
g8
tp6265
F1
s(VNative
g4
tp6266
F4
s(VRefusal
g8
tp6267
F1
s(g1140
g13
tp6268
F25
s(Vsoar
g55
tp6269
F1
s(Vshone
g8
tp6270
F1
s(Vall
g86
tp6271
F105
s(VGriffin
g4
tp6272
F1
s(g271
S'.'
tp6273
F4
s(VEntertainment_
g4
tp6274
F1
s(Vsell
g24
tp6275
F1
s(VPursuit
g4
tp6276
F3
s(VVI
g4
tp6277
F2
s(Vexpect
g73
tp6278
F2
s(Vthanking
g77
tp6279
F1
s(Vbeat
g24
tp6280
F3
s(VValour
g4
tp6281
F2
s(Vdrove
g24
tp6282
F1
s(Vgenerally
S'RB'
p6283
tp6284
F2
s(Vtormenting
g77
tp6285
F2
s(Vview
g73
tp6286
F1
s(Vgrant
g8
tp6287
F2
s(VNay
g8
tp6288
F1
s(Vbackwards
g38
tp6289
F2
s(VApartment
g8
tp6290
F7
s(S')'
g13
tp6291
F1
s(Vpure
g8
tp6292
F1
s(VReality
g4
tp6293
F1
s(VIngredients
g38
tp6294
F1
s(g73
g24
tp6295
F2
s(Vimmortal
g8
tp6296
F1
s(V_envious
g13
tp6297
F1
s(VDiscourse
g4
tp6298
F6
s(Vdear
g13
tp6299
F7
s(Vwell
g64
tp6300
F26
s(Vthou
g55
tp6301
F1
s(V30,000
g31
tp6302
F1
s(g13
g8
tp6303
F389
s(VSuspicions
g68
tp6304
F1
s(VMusick
g4
tp6305
F1
s(VOn
S'IN'
p6306
tp6307
F4
s(Vdeprive
g24
tp6308
F1
s(Vmusty
g8
tp6309
F1
s(Vcordially
g64
tp6310
F2
s(Vmake
g24
tp6311
F23
s(g316
g8
tp6312
F15
s(Vsevere
g13
tp6313
F3
s(Vsat
g84
tp6314
F9
s(VAssembly-Room
g4
tp6315
F1
s(VObject
g8
tp6316
F1
s(Vsufficient
g13
tp6317
F1
s(VLady
g8
tp6318
F8
s(S')'
S','
tp6319
F1
s(Verected
g70
tp6320
F1
s(VHaste
g4
tp6321
F2
s(S':'
S':'
tp6322
F140
s(VBeast
g4
tp6323
F2
s(g84
g290
tp6324
F9
s(VCaution
g8
tp6325
F1
s(Vdepend
g24
tp6326
F1
s(Vwell-dispos
g13
tp6327
F1
s(Vloaded
g84
tp6328
F2
s(Vabove-mention
g8
tp6329
F1
s(VHonour
g4
tp6330
F20
s(VFront
g4
tp6331
F1
s(Vfix
g24
tp6332
F1
s(VStone
g8
tp6333
F2
s(Vupper
g13
tp6334
F1
s(VCooks
g4
tp6335
F2
s(Venvenom
g8
tp6336
F1
s(Vfive
g1547
tp6337
F10
s(VUsurper
g4
tp6338
F1
s(Vinclin
g13
tp6339
F1
s(VOther
S'JJ'
p6340
tp6341
F1
s(Vrest
g24
tp6342
F2
s(Vthinking
g77
tp6343
F2
s(VVogue
g8
tp6344
F1
s(Vgouty
g8
tp6345
F1
s(VName
g8
tp6346
F11
s(VBlush
g8
tp6347
F2
s(Vmerciless
g13
tp6348
F1
s(Vthither
g8
tp6349
F1
s(VFurniture
g8
tp6350
F2
s(Vduly
g64
tp6351
F1
s(VEight
g4
tp6352
F1
s(Vgaily
g64
tp6353
F1
s(Vdoubtless
g24
tp6354
F1
s(V'd
g181
tp6355
F1
s(Vwise
g8
tp6356
F3
s(VBarbarians
g38
tp6357
F1
s(VPassage
g4
tp6358
F1
s(Vrun
g70
tp6359
F2
s(VCage
g8
tp6360
F1
s(Vincorrigible
g13
tp6361
F1
s(Vintent
g13
tp6362
F1
s(Vamong
S'IN'
p6363
tp6364
F1
s(Vspoke
g84
tp6365
F2
s(VWays
g4
tp6366
F3
s(Vevident
g13
tp6367
F1
s(Vappears
S'VBZ'
p6368
tp6369
F2
s(Vstrong
S'JJ'
p6370
tp6371
F6
s(Vinclin
g55
tp6372
F1
s(VLibrary
g4
tp6373
F1
s(VWater
g4
tp6374
F4
s(Vall
g285
tp6375
F57
s(VNever
g64
tp6376
F2
s(Vthirty
g24
tp6377
F2
s(VXVII
g8
tp6378
F2
s(VBeauties
g68
tp6379
F1
s(VPrayers
g38
tp6380
F3
s(Vblind
g13
tp6381
F1
s(Vrobb
g38
tp6382
F1
s(Vca
S'MD'
p6383
tp6384
F4
s(Vset
g70
tp6385
F5
s(VDebt
g8
tp6386
F1
s(Vsays
g4121
tp6387
F2
s(Vtho
g130
tp6388
F1
s(Vobedient
g13
tp6389
F1
s(VNuptials
g38
tp6390
F1
s(Vdefray
g24
tp6391
F2
s(Vsooner
g8
tp6392
F15
s(Vconsiderable
g13
tp6393
F9
s(Vcool
g13
tp6394
F2
s(VDivorce
g4
tp6395
F1
s(VBoy
g4
tp6396
F3
s(g731
g5031
tp6397
F18
s(Vheard
g8
tp6398
F2
s(VMandate
g4
tp6399
F1
s(V_Arabic_
g13
tp6400
F1
s(VNotice
g4
tp6401
F7
s(Vbrought
g84
tp6402
F5
s(Vcommodiously
g64
tp6403
F1
s(VAdoration
g8
tp6404
F3
s(VCurrent
g4
tp6405
F2
s(Vimpose
g24
tp6406
F1
s(Vearnestly
g64
tp6407
F1
s(VInconstant
g4
tp6408
F1
s(VOrnament
g4
tp6409
F1
s(VPorter
g4
tp6410
F1
s(VPalace-Gate
g4
tp6411
F1
s(Vcelebrated
g13
tp6412
F3
s(VRain
g4
tp6413
F1
s(g290
S','
tp6414
F2
s(Vresign
g24
tp6415
F1
s(Vhonour
g24
tp6416
F3
s(Vquiv'ring
g77
tp6417
F1
s(VPayment
g4
tp6418
F1
s(Vhopeful
g13
tp6419
F2
s(Vpersuading
g77
tp6420
F1
s(Vheal
g13
tp6421
F1
s(V_Semira_
g8
tp6422
F6
s(VSuccess
g4
tp6423
F8
s(g199
g1216
tp6424
F9
s(VPrey
g38
tp6425
F1
s(Vwent
S'VBD'
p6426
tp6427
F19
s(VDisproportion
g4
tp6428
F1
s(VAssistance
g8
tp6429
F2
s(Vfir
g8
tp6430
F1
s(VGentleman
g4
tp6431
F6
s(Vsituate
g73
tp6432
F1
s(VCheeses
g4
tp6433
F1
s(VCollector
g4
tp6434
F1
s(VGarden
g4
tp6435
F4
s(Vaffectionately
g64
tp6436
F1
s(Vcall
g24
tp6437
F1
s(g38
g64
tp6438
F21
s(VExecution
g8
tp6439
F2
s(g136
g73
tp6440
F17
s(Vmurder
g8
tp6441
F3
s(VDays
g4
tp6442
F2
s(VCouncil
g4
tp6443
F1
s(Vsought
g84
tp6444
F2
s(Vworse
g59
tp6445
F1
s(VGlance
g4
tp6446
F2
s(VOpportunity
g4
tp6447
F1
s(VMeasures
g38
tp6448
F1
s(Vincessant
g13
tp6449
F1
s(VPet
g4
tp6450
F1
s(Vways
g2383
tp6451
F10
s(Vceas
g73
tp6452
F1
s(VBenefactions
g38
tp6453
F1
s(Vfor
g5261
tp6454
F252
s(VBracelets
g38
tp6455
F2
s(V_Zadig_
g271
tp6456
F1
s(g136
g1425
tp6457
F108
s(VCandidate
g4
tp6458
F3
s(Vdepretiated
g70
tp6459
F1
s(Vlaid
g13
tp6460
F1
s(VBlow
g4
tp6461
F2
s(Vdivine
g24
tp6462
F1
s(VLaugh
g4
tp6463
F1
s(Vconfounded
g84
tp6464
F2
s(g1097
g59
tp6465
F1
s(VHusbands
g4
tp6466
F1
s(Vadvis
g64
tp6467
F1
s(VConversation
g4
tp6468
F3
s(VWretch
g4
tp6469
F3
s(Vpartake
g24
tp6470
F1
s(Vthankful
g8
tp6471
F1
s(Vhunted
g70
tp6472
F2
s(VDOG
g4
tp6473
F1
s(Vinnocent
g13
tp6474
F9
s(g84
g24
tp6475
F3
s(VRevolution
g8
tp6476
F1
s(VPasses
g4
tp6477
F1
s(VDemonstration
g4
tp6478
F1
s(Vincapable
g24
tp6479
F1
s(VHesitation
g8
tp6480
F2
s(Vsequamur
g8
tp6481
F1
s(Vacted
g70
tp6482
F1
s(VDid
g4
tp6483
F1
s(Vinfamous
g13
tp6484
F1
s(VMind
g4
tp6485
F8
s(Vpoint
g24
tp6486
F1
s(VMoiety
g8
tp6487
F1
s(Vpropose
g24
tp6488
F3
s(Vturning
g77
tp6489
F3
s(Voccasion
g8
tp6490
F1
s(g8
g106
tp6491
F1
s(g4
g324
tp6492
F891
s(g2576
g59
tp6493
F3
s(Vlovely
g13
tp6494
F3
s(VNo-body
g8
tp6495
F1
s(g68
g352
tp6496
F1
s(VAgonies
g4
tp6497
F1
s(VAbundance
g4
tp6498
F3
s(VConclusions
g38
tp6499
F1
s(VGenerosity
g4
tp6500
F4
s(VAffairs
g68
tp6501
F1
s(Vperemptory
g8
tp6502
F1
s(g68
g73
tp6503
F2
s(Vspeak
g24
tp6504
F10
s(VLegs
g4
tp6505
F2
s(Vswore
g84
tp6506
F1
s(Vmet
g84
tp6507
F6
s(g34
g1989
tp6508
F9
s(Vlost
g70
tp6509
F5
s(Vminute
g13
tp6510
F1
s(VStratagem
g4
tp6511
F1
s(VSlaves
g68
tp6512
F2
s(Vprove
g8
tp6513
F1
s(VResolutions
g4
tp6514
F1
s(Vten
g70
tp6515
F1
s(VRose
g4
tp6516
F1
s(Vroasted
g70
tp6517
F1
s(Vpry
g55
tp6518
F1
s(Veverlasting
g13
tp6519
F1
s(Vdispose
g24
tp6520
F1
s(Vquite
g13
tp6521
F2
s(VCorner
g4
tp6522
F1
s(g271
g263
tp6523
F3
s(Vreplied
g84
tp6524
F14
s(Vcustomary
g13
tp6525
F1
s(Vplainly
g64
tp6526
F2
s(Vheavy-headed
g13
tp6527
F1
s(VFavour
g4
tp6528
F11
s(Vassum
g8
tp6529
F1
s(Vmarry
g24
tp6530
F5
s(VBed-chamber
g4
tp6531
F2
s(VDictates
g4
tp6532
F1
s(VWho
g106
tp6533
F4
s(Vaccus
g13
tp6534
F2
s(Vexcessively
g64
tp6535
F2
s(VMisletoe
g4
tp6536
F4
s(Vdistant
g13
tp6537
F2
s(Vperemptorily
g64
tp6538
F2
s(VToken
g4
tp6539
F5
s(VRace
g4
tp6540
F1
s(Vdrove
g13
tp6541
F1
s(g316
g34
tp6542
F1
s(Vlay
g84
tp6543
F7
s(VWife
g4
tp6544
F14
s(Vwholly
g64
tp6545
F5
s(VReverie
g4
tp6546
F1
s(VMajesty
g13
tp6547
F1
s(Vremounted
g84
tp6548
F2
s(g1140
g290
tp6549
F1
s(Vobvious
g13
tp6550
F2
s(Vvile
g13
tp6551
F1
s(V_Earth_
g8
tp6552
F1
s(Vgain
g84
tp6553
F1
s(VConfession
g8
tp6554
F1
s(g1003
g31
tp6555
F2
s(Vfainted
g84
tp6556
F2
s(Vcorrect
g13
tp6557
F1
s(VCouriers
g68
tp6558
F2
s(Vassur
g73
tp6559
F2
s(Vdeserving
g8
tp6560
F1
s(Vme
g719
tp6561
F105
s(V_Azora_
g8
tp6562
F8
s(g84
g1003
tp6563
F230
s(VReply
g4
tp6564
F1
s(Vencreas
g38
tp6565
F1
s(Vinjur
g13
tp6566
F1
s(g324
g290
tp6567
F1
s(Vable
S'JJ'
p6568
tp6569
F8
s(VCounsellor
g4
tp6570
F1
s(VPrince
g4
tp6571
F12
s(Vcharm
g13
tp6572
F1
s(VPity
g8
tp6573
F1
s(VCase
g4
tp6574
F10
s(Vforthwith
g38
tp6575
F1
s(V_Setoc_
g8
tp6576
F14
s(Vwhereof
g79
tp6577
F1
s(Vlent
g73
tp6578
F1
s(VSedateness
g8
tp6579
F1
s(VHow
g4
tp6580
F1
s(VTumult
g4
tp6581
F2
s(g933
g84
tp6582
F16
s(S':'
g36
tp6583
F19
s(Vrepos
g13
tp6584
F1
s(Vtir
g13
tp6585
F1
s(Vmoral
g13
tp6586
F1
s(VArmour
g8
tp6587
F2
s(S','
g538
tp6588
F2
s(Vsix
S'CD'
p6589
tp6590
F6
s(Vdisplay
g73
tp6591
F1
s(VSister
g4
tp6592
F4
s(Vmean
g73
tp6593
F1
s(VAngel
g4
tp6594
F5
s(Vpropos
g13
tp6595
F2
s(Vwhitest
g34
tp6596
F1
s(VRequest
g4
tp6597
F1
s(g34
g263
tp6598
F1
s(Vfirm
g13
tp6599
F1
s(Vaware
g13
tp6600
F1
s(VMeadow
g4
tp6601
F5
s(Vdisoblig
g70
tp6602
F1
s(Vkeep
g24
tp6603
F2
s(Vsearching
g77
tp6604
F2
s(VOF
g19
tp6605
F1
s(VForce
g4
tp6606
F6
s(VCourt-Coquet
g4
tp6607
F1
s(Vthe
g33
tp6608
F1692
s(g73
g271
tp6609
F1
s(Vsmoother
g64
tp6610
F1
s(VCombatant
g4
tp6611
F2
s(VFlights
g38
tp6612
F1
s(Vinternal
g4544
tp6613
F4
s(Vofficious
g13
tp6614
F1
s(Vmortgage
S'NN'
p6615
tp6616
F1
s(Vblushing
g8
tp6617
F1
s(VTragedies
g38
tp6618
F1
s(V_Cador_
g130
tp6619
F1
s(VLuxury
g4
tp6620
F1
s(VSenses
g38
tp6621
F2
s(Vmurder
g13
tp6622
F1
s(Vo'er
g84
tp6623
F1
s(Vdamnable
g13
tp6624
F1
s(VPortion
g8
tp6625
F2
s(S','
g73
tp6626
F36
s(VOpportunity
g8
tp6627
F2
s(g1261
g4
tp6628
F7
s(Vliv
g55
tp6629
F4
s(Vheld
g84
tp6630
F1
s(VEntertainment._
g4
tp6631
F1
s(Vintricate
g13
tp6632
F3
s(Vimagine
g8
tp6633
F2
s(S','
g1003
tp6634
F278
s(Vgiving
S'VBG'
p6635
tp6636
F4
s(Vcan
g2031
tp6637
F26
s(S','
g86
tp6638
F131
s(Vbountiful
g13
tp6639
F2
s(Vmov
g38
tp6640
F1
s(Vand_
g8
tp6641
F1
s(VTitle
g4
tp6642
F1
s(VRepartees
g4
tp6643
F1
s(g68
S':'
tp6644
F15
s(Vunderwent
g84
tp6645
F1
s(Vstruggled
g84
tp6646
F1
s(g2030
g8
tp6647
F5
s(VWicked
g4
tp6648
F1
s(Vretrahuntque
g8
tp6649
F1
s(Vhonourable
g13
tp6650
F1
s(Vsordid
g13
tp6651
F2
s(VInsult
g4
tp6652
F1
s(VCare
g4
tp6653
F2
s(V_the
g4
tp6654
F1
s(VTreasurer
g4
tp6655
F1
s(VSpectators
g38
tp6656
F2
s(VInstruction
g4
tp6657
F3
s(g13
g31
tp6658
F16
s(Vsay
g73
tp6659
F10
s(Vsprightly
g64
tp6660
F2
s(Vsomewhat
g24
tp6661
F1
s(VAntipathy
g4
tp6662
F1
s(VDrinking
g4
tp6663
F1
s(VMerchant
g8
tp6664
F4
s(VSpaniel-Bitch
g13
tp6665
F1
s(VProperties
g68
tp6666
F1
s(VSword
g4
tp6667
F9
s(Vimplacable
g13
tp6668
F2
s(VMotives
g38
tp6669
F1
s(VHaving
g77
tp6670
F3
s(Vburn
g73
tp6671
F1
s(VMake
g4
tp6672
F1
s(VCouriers
g38
tp6673
F1
s(Vpleas
g73
tp6674
F1
s(VChain
g4
tp6675
F3
s(VMoon
S'NNP'
p6676
tp6677
F2
s(Vleft
g70
tp6678
F8
s(Vcower
g55
tp6679
F1
s(VWere
g101
tp6680
F1
s(VBows
g4
tp6681
F1
s(Vlikewise
g64
tp6682
F4
s(VRebuffs
g38
tp6683
F1
s(g669
g77
tp6684
F6
s(VRecourse
g59
tp6685
F1
s(Vyonder
g24
tp6686
F1
s(Vmeet
g24
tp6687
F5
s(VAversion
g8
tp6688
F4
s(Vstarry
g8
tp6689
F1
s(V_Arimazes_
g13
tp6690
F1
s(Vbeauteous
g13
tp6691
F4
s(Vwatchful
g13
tp6692
F1
s(VLot
g4
tp6693
F2
s(VWith
S'IN'
p6694
tp6695
F4
s(Vendeavour
g8
tp6696
F1
s(VSome
S'DT'
p6697
tp6698
F2
s(Vliv
g70
tp6699
F1
s(VEar
g8
tp6700
F2
s(Vequipp
g70
tp6701
F1
s(VNay
g4
tp6702
F1
s(Vbehav
g8
tp6703
F1
s(Vcontinual
g13
tp6704
F1
s(V'd
g84
tp6705
F23
s(Vhim
g2591
tp6706
F238
s(VDraught
g4
tp6707
F2
s(VAconite
g4
tp6708
F1
s(Vadvanc
g64
tp6709
F1
s(VTone
g8
tp6710
F3
s(g31
g34
tp6711
F1
s(VHumanity
g4
tp6712
F1
s(g4641
g263
tp6713
F1
s(Vwithout
S'IN'
p6714
tp6715
F37
s(VTime
g8
tp6716
F8
s(VAge
g4
tp6717
F4
s(VSnow
g8
tp6718
F1
s(VCaptive
g8
tp6719
F1
s(Vcareless
g13
tp6720
F1
s(V_Indian_
g4
tp6721
F1
s(Vmoreover
g64
tp6722
F4
s(VMourners
g38
tp6723
F1
s(VPresent
g13
tp6724
F1
s(g77
g106
tp6725
F4
s(Vrestor
g13
tp6726
F1
s(Vpitied
g84
tp6727
F1
s(VLet
g24
tp6728
F1
s(VPrinciple
g8
tp6729
F1
s(Veat
g24
tp6730
F1
s(Vhaughty
g13
tp6731
F2
s(Vrepair
g55
tp6732
F1
s(g263
g4013
tp6733
F8
s(VWithout
g19
tp6734
F1
s(VSkirmish
g8
tp6735
F1
s(Ventirely
g64
tp6736
F8
s(VTruth
g8
tp6737
F1
s(VOrders
g38
tp6738
F9
s(VThought
g4
tp6739
F3
s(Vamongst
g73
tp6740
F2
s(VAppointments
g38
tp6741
F1
s(VPlants
g4
tp6742
F1
s(VSo
g130
tp6743
F1
s(Voccurr
g55
tp6744
F1
s(g1003
S','
tp6745
F240
s(Vrallied
g13
tp6746
F1
s(VBreast
g4
tp6747
F2
s(VWhatever
g79
tp6748
F2
s(Vthese
g3796
tp6749
F19
s(Vbrow-beat
g8
tp6750
F1
s(V_Fort_
g8
tp6751
F1
s(VOR
g130
tp6752
F1
s(VBridle
g4
tp6753
F1
s(Vimmensely
g64
tp6754
F2
s(Valways
g2452
tp6755
F13
s(Vhard
g64
tp6756
F1
s(Vvalu
g13
tp6757
F1
s(VHeaven
g4
tp6758
F9
s(S'('
g4
tp6759
F1
s(VWidows
g4
tp6760
F3
s(V_Scythia_
g8
tp6761
F1
s(VNecklaces
g4
tp6762
F1
s(g34
S','
tp6763
F4
s(Vpuff
g8
tp6764
F1
s(VCoffin
g8
tp6765
F1
s(Vreal
S'JJ'
p6766
tp6767
F7
s(V_Light_
g8
tp6768
F1
s(VClemency
g24
tp6769
F1
s(VSupper
g4
tp6770
F6
s(Venamour
g13
tp6771
F1
s(g68
g79
tp6772
F2
s(VAddition
g4
tp6773
F1
s(Vscatter
g13
tp6774
F1
s(Vmy
g3909
tp6775
F185
s(VSoldier
g4
tp6776
F5
s(VMaster-pieces
g38
tp6777
F1
s(Vchang
g8
tp6778
F1
s(g4
g6589
tp6779
F10
s(Vunhappy
g13
tp6780
F9
s(VHermit_
g4
tp6781
F1
s(Vplump
g8
tp6782
F1
s(Vslowly
g64
tp6783
F1
s(VCourage
g8
tp6784
F3
s(VPower
g8
tp6785
F6
s(VGod
g4
tp6786
F10
s(Vscanty
g84
tp6787
F1
s(VObjection
g8
tp6788
F1
s(VTranslation
g8
tp6789
F1
s(Vcome
g8
tp6790
F1
s(g479
g84
tp6791
F1
s(Vhigh
g8
tp6792
F3
s(Vbelonging
g8
tp6793
F1
s(g70
g38
tp6794
F9
s(Vexecrable
g13
tp6795
F2
s(VMisfortunes
g4
tp6796
F5
s(VRemedy
g4
tp6797
F1
s(VYear
g8
tp6798
F3
s(Vobliging
g77
tp6799
F1
s(VAmphitheatres
g4
tp6800
F1
s(VTransports
g38
tp6801
F1
s(VRecords
g4
tp6802
F1
s(g68
g136
tp6803
F6
s(Vfirm
g8
tp6804
F1
s(VDifference
g4
tp6805
F1
s(Vperform
g24
tp6806
F2
s(Vdenote
g24
tp6807
F1
s(g68
g4
tp6808
F1
s(VNeck
g8
tp6809
F2
s(Vin
g670
tp6810
F526
s(Vcut
g84
tp6811
F1
s(VDaughter
g4
tp6812
F1
s(VMaxim
g4
tp6813
F2
s(Vextreamly
g64
tp6814
F1
s(VConstellation
g4
tp6815
F1
s(g4
S'('
tp6816
F8
s(Vdeserve
g24
tp6817
F1
s(Vfarther
g8
tp6818
F1
s(Vunderstood
g13
tp6819
F1
s(Vrush
g24
tp6820
F1
s(Vwriting
g77
tp6821
F1
s(Vimmediately
S'RB'
p6822
tp6823
F5
s(V_The
g4
tp6824
F1
s(g55
g670
tp6825
F33
s(Vkept
g70
tp6826
F2
s(VPrivy-Council
g8
tp6827
F1
s(Verroneous
g13
tp6828
F1
s(g86
g13
tp6829
F822
s(VJust
g4
tp6830
F2
s(Vhappier
g59
tp6831
F2
s(VDefendant
g4
tp6832
F2
s(Vnay
g64
tp6833
F1
s(Vwrought
g70
tp6834
F1
s(g669
S'('
tp6835
F1
s(Vwash
g73
tp6836
F1
s(Vteach
g24
tp6837
F1
s(Vcrazy
g13
tp6838
F1
s(Vendow
g70
tp6839
F1
s(Vours
g38
tp6840
F2
s(g24
g2583
tp6841
F4
s(VPleasure
g4
tp6842
F3
s(V_Time_
g70
tp6843
F1
s(Vdirecting
g77
tp6844
F1
s(VForm
g8
tp6845
F1
s(VMortals
g38
tp6846
F1
s(VCrime
g8
tp6847
F2
s(VPraises
g38
tp6848
F3
s(g4641
g77
tp6849
F16
s(Vstruck
g84
tp6850
F3
s(VRuins
g4
tp6851
F1
s(g621
S'.'
tp6852
F86
s(g136
g79
tp6853
F5
s(Vrefresh
g24
tp6854
F1
s(VAffection
g8
tp6855
F4
s(Vsilver
g8
tp6856
F1
s(VDoubt
g4
tp6857
F1
s(V_Hegira_
g4
tp6858
F1
s(VThrone
g8
tp6859
F1
s(Vinactive
g13
tp6860
F1
s(Vworthy
g8
tp6861
F1
s(VDelivery
g4
tp6862
F1
s(VHurricane
S'NNP'
p6863
tp6864
F1
s(g1868
g64
tp6865
F55
s(g73
g59
tp6866
F3
s(Vmiserable
g13
tp6867
F1
s(Vcontent
g8
tp6868
F1
s(Vcarry
g73
tp6869
F2
s(Vengaging
g77
tp6870
F1
s(Vagreed
g70
tp6871
F3
s(VNotion
g4
tp6872
F1
s(g64
g199
tp6873
F1
s(g122
g2583
tp6874
F3
s(Vlistning
g77
tp6875
F1
s(g38
g534
tp6876
F2
s(Vafresh
g64
tp6877
F1
s(g3255
g1140
tp6878
F32
s(Vequally
g64
tp6879
F1
s(VTurtle
g4
tp6880
F1
s(VMorning
g77
tp6881
F1
s(g1261
g84
tp6882
F45
s(Vtowards
g73
tp6883
F1
s(VSide
g8
tp6884
F2
s(VIII
g4
tp6885
F2
s(VHarpies
g38
tp6886
F1
s(V_Indian_
g8
tp6887
F5
s(Vdeplor
g8
tp6888
F2
s(Vanswer
g55
tp6889
F1
s(Vgraz
g70
tp6890
F2
s(V_Coreb_
g73
tp6891
F1
s(Ventring
g77
tp6892
F1
s(VDeities
g38
tp6893
F1
s(Vsound
g13
tp6894
F1
s(g31
g316
tp6895
F2
s(Vunanimous
g13
tp6896
F2
s(VVerdict
g4
tp6897
F1
s(Vopening
g77
tp6898
F1
s(VLines
g68
tp6899
F3
s(Vpreceded
g70
tp6900
F1
s(Vbegg
g55
tp6901
F1
s(Vprofound
g13
tp6902
F1
s(Vthrown
g64
tp6903
F1
s(Vdestin
g13
tp6904
F1
s(Vthose
g6050
tp6905
F29
s(V_Media_
g4
tp6906
F1
s(Vlittle
g64
tp6907
F2
s(g2030
S'.'
tp6908
F3
s(V_Babylon_
g24
tp6909
F6
s(Vweighty
g8
tp6910
F1
s(Vutmost
g8
tp6911
F3
s(Vdetermin
g70
tp6912
F1
s(Vcatch
g8
tp6913
F1
s(Vaddress
g64
tp6914
F1
s(Vbusy
g73
tp6915
F1
s(Vurging
g77
tp6916
F1
s(Vrepeated
g70
tp6917
F5
s(Vproclaim
g24
tp6918
F1
s(VLife
g4
tp6919
F28
s(g4
g263
tp6920
F116
s(V_Irax_
g4
tp6921
F2
s(V_Free-booter_
g8
tp6922
F2
s(Vcatch
g13
tp6923
F1
s(VMistake
g4
tp6924
F3
s(V?
S'.'
tp6925
F61
s(S'('
g31
tp6926
F2
s(VAir
S'NNP'
p6927
tp6928
F11
s(VAlmighty
g4
tp6929
F1
s(g290
g8
tp6930
F2
s(g271
g13
tp6931
F1
s(VLance
g4
tp6932
F1
s(Vhomely
g64
tp6933
F1
s(VHave
g24
tp6934
F1
s(Vpolite
g24
tp6935
F1
s(g136
g315
tp6936
F4
s(V_Zadig_
g13
tp6937
F19
s(V_Sheat_
g4
tp6938
F1
s(Vtoo
S'RB'
p6939
tp6940
F26
s(Vlame
g8
tp6941
F1
s(Vsometimes
g64
tp6942
F5
s(Vdark
g13
tp6943
F1
s(VPeal
g4
tp6944
F1
s(VConjuncture
g8
tp6945
F3
s(Vdealt
g84
tp6946
F1
s(Vswell
g24
tp6947
F2
s(V_Persian_
g13
tp6948
F1
s(g316
g1893
tp6949
F1
s(VHome
g4
tp6950
F2
s(VPILE
g4
tp6951
F1
s(VWebbs
g4
tp6952
F1
s(VLines
g38
tp6953
F1
s(g731
g1893
tp6954
F1
s(VPersonage
g8
tp6955
F1
s(g73
g84
tp6956
F1
s(VConcubines
g38
tp6957
F1
s(VContest
g4
tp6958
F1
s(V_Astarte_
g38
tp6959
F1
s(VAttempt
g4
tp6960
F1
s(VStage
g4
tp6961
F1
s(Vstill
g1632
tp6962
F17
s(Vfifth
g8
tp6963
F1
s(Vgratify
g24
tp6964
F2
s(Vsuch
g285
tp6965
F22
s(VVoyages
g38
tp6966
F1
s(VBlessing
g4
tp6967
F1
s(Vcommence
g24
tp6968
F1
s(VElder
g4
tp6969
F1
s(Vbetter
g290
tp6970
F3
s(V_Zadig's_
g13
tp6971
F8
s(VLord
g4
tp6972
F5
s(VYounger
g4
tp6973
F1
s(Vtyrannical
g13
tp6974
F1
s(VChannel
g4
tp6975
F1
s(Vpromise
g24
tp6976
F1
s(VWonder
g4
tp6977
F1
s(VYe
g4
tp6978
F1
s(VOfficers
g68
tp6979
F2
s(VSon
g4
tp6980
F5
s(VTongue
g4
tp6981
F2
s(Vlasted
g84
tp6982
F2
s(Vmodestly
g64
tp6983
F1
s(g64
g4
tp6984
F29
s(VBe
g4
tp6985
F2
s(Vsurprisingly
g64
tp6986
F1
s(Vtherein
g64
tp6987
F1
s(g84
g383
tp6988
F4
s(VMankind
g4
tp6989
F11
s(V_Astarte_
g24
tp6990
F4
s(Venough
g64
tp6991
F6
s(g8
g84
tp6992
F156
s(Vwak
g73
tp6993
F1
s(VBower
g4
tp6994
F1
s(Vintrinsic
g13
tp6995
F2
s(VIndentures
g68
tp6996
F1
s(Vsees
g55
tp6997
F1
s(Vease
g24
tp6998
F1
s(Vreceiv
g55
tp6999
F1
s(VCavalier
g4
tp7000
F2
s(Vwrite
g24
tp7001
F3
s(VThoughts
g38
tp7002
F6
s(VFingers
g38
tp7003
F2
s(Vrepair
g84
tp7004
F1
s(V_Arimazes_
g4
tp7005
F4
s(V_Epochas_
g8
tp7006
F1
s(VNature
g4
tp7007
F14
s(Vextorted
g70
tp7008
F1
s(VTitle
g8
tp7009
F1
s(VVotary
g4
tp7010
F1
s(VEntertainments
g38
tp7011
F3
s(Vconstant
g13
tp7012
F2
s(Vdeem
g13
tp7013
F1
s(Vway
S'NN'
p7014
tp7015
F1
s(Vfly
g24
tp7016
F2
s(V4000
g31
tp7017
F1
s(VArrival
g8
tp7018
F1
s(VVigour
g8
tp7019
F1
s(VPromise
g8
tp7020
F1
s(g68
g33
tp7021
F1
s(Vdied
g84
tp7022
F6
s(g8
g136
tp7023
F44
s(VFate
g8
tp7024
F1
s(Vindebted
g70
tp7025
F4
s(VThresh
g4
tp7026
F1
s(VRelief
g8
tp7027
F1
s(Vsoften
g84
tp7028
F1
s(Vventure
S'NN'
p7029
tp7030
F2
s(g315
g352
tp7031
F4
s(VApplications
g38
tp7032
F1
s(g214
g8
tp7033
F5
s(Vholding
g77
tp7034
F3
s(VMilitary
g13
tp7035
F1
s(VWIFE
g4
tp7036
F1
s(VEars
g38
tp7037
F2
s(g19
g263
tp7038
F41
s(Valike
g64
tp7039
F3
s(V_Atom_
g8
tp7040
F2
s(VLeave
g24
tp7041
F1
s(Vproud
g13
tp7042
F1
s(VCHAP
g4
tp7043
F36
s(VChattels
g4
tp7044
F1
s(Vlonger
g8
tp7045
F1
s(Vsenses
g38
tp7046
F1
s(Vwinding
g77
tp7047
F1
s(VWhim
g8
tp7048
F1
s(VGroom
g4
tp7049
F1
s(Vexpress
g24
tp7050
F4
s(Vsent
g70
tp7051
F2
s(Vrequired
g84
tp7052
F1
s(S','
g59
tp7053
F1
s(Vvowing
g77
tp7054
F1
s(g64
S'.'
tp7055
F41
s(g86
g4
tp7056
F1563
s(VClay
g4
tp7057
F1
s(V_Itobad_
g4
tp7058
F2
s(VDisappointment
g4
tp7059
F2
s(VThings
g4
tp7060
F1
s(g479
g77
tp7061
F9
s(V_that
g106
tp7062
F1
s(VSituation
g8
tp7063
F3
s(VStrength
g4
tp7064
F3
s(Vnimble
g13
tp7065
F1
s(Vfresh
g24
tp7066
F1
s(Vreconducted
g70
tp7067
F1
s(Vhast
g84
tp7068
F1
s(Vless
g34
tp7069
F1
s(VMutes
g38
tp7070
F1
s(Vdumb
g13
tp7071
F4
s(Vcarried
g84
tp7072
F5
s(Vhome
g8
tp7073
F3
s(VMantle
g4
tp7074
F4
s(Vadvertiz
g13
tp7075
F1
s(VTribe
g4
tp7076
F3
s(Vimperceptibly
g64
tp7077
F1
s(VConfident
g13
tp7078
F2
s(Vforbear
g24
tp7079
F1
s(g2031
g1003
tp7080
F96
s(VWill
g4
tp7081
F5
s(Veven
g64
tp7082
F7
s(V_Cador_
g13
tp7083
F1
s(Vpropping
g77
tp7084
F1
s(Vand
g136
tp7085
F874
s(Vpunctually
g64
tp7086
F1
s(Vdepriv
g8
tp7087
F1
s(Vresolv
g55
tp7088
F1
s(g1868
g77
tp7089
F4
s(S':'
g199
tp7090
F1
s(Vmix
g8
tp7091
F2
s(Vfondest
g34
tp7092
F1
s(V_VOLTAIRE_
g4
tp7093
F1
s(Vconcealing
g77
tp7094
F1
s(VChariots
g4
tp7095
F1
s(Venlist
g24
tp7096
F1
s(Vpure
g13
tp7097
F3
s(VPain
g8
tp7098
F2
s(Vprecious
g13
tp7099
F3
s(Vsurvey
S'NN'
p7100
tp7101
F1
s(Vjudicious
g13
tp7102
F1
s(Vdrank
g84
tp7103
F2
s(Vresolutely
g64
tp7104
F1
s(V'T
g199
tp7105
F6
s(Vlet
g8
tp7106
F1
s(Vconstrued
g84
tp7107
F1
s(VPores
g38
tp7108
F1
s(Vstay
g24
tp7109
F1
s(V_Book
g8
tp7110
F1
s(V(
S'('
tp7111
F17
s(Vacknowledge
g24
tp7112
F2
s(VDisposal
g4
tp7113
F1
s(g2591
g263
tp7114
F56
s(V_Philip_
g4
tp7115
F1
s(Vhurried
g70
tp7116
F1
s(Vsensual
g13
tp7117
F1
s(g101
g2031
tp7118
F6
s(g36
g33
tp7119
F5
s(Vback
g64
tp7120
F3
s(Vthing
S'NN'
p7121
tp7122
F1
s(g324
g68
tp7123
F4
s(V_Memphis_
g24
tp7124
F3
s(g64
g122
tp7125
F19
s(VAs
g19
tp7126
F22
s(Vcover
g24
tp7127
F1
s(Vdisgusted
g70
tp7128
F2
s(VFlints
g38
tp7129
F1
s(Vact
g24
tp7130
F4
s(S':'
g130
tp7131
F268
s(V&
g130
tp7132
F4
s(Vsolemniz
g13
tp7133
F1
s(VCreature
g8
tp7134
F6
s(g24
g8
tp7135
F17
s(VHeav'n
g4
tp7136
F6
s(Vlower
g59
tp7137
F1
s(VCharm
g8
tp7138
F1
s(Vover-persuaded
g13
tp7139
F1
s(g1140
g70
tp7140
F8
s(VLeave
g4
tp7141
F2
s(VWould
g122
tp7142
F3
s(Vvisiting
g77
tp7143
F1
s(Vsupreme
g13
tp7144
F2
s(Vgratified
g70
tp7145
F1
s(Vprevented
g84
tp7146
F3
s(Vcourts
g38
tp7147
F1
s(Vtalk
g73
tp7148
F3
s(g86
g107
tp7149
F6
s(Vyellow
g13
tp7150
F1
s(Vones
S'NNS'
p7151
tp7152
F2
s(Vcapricious
g13
tp7153
F2
s(VJudgement
g4
tp7154
F1
s(V_Happy
g13
tp7155
F1
s(g290
S'.'
tp7156
F3
s(VFate
g4
tp7157
F9
s(VSpark
g4
tp7158
F1
s(Vabrogate
g24
tp7159
F1
s(Vlisted
g70
tp7160
F1
s(VNews
g4
tp7161
F4
s(V_Orasmades_
g8
tp7162
F1
s(VWhiteness
g4
tp7163
F1
s(V'd
g24
tp7164
F3
s(VHabit
g4
tp7165
F2
s(Vrecover
g24
tp7166
F7
s(VSearch
g8
tp7167
F1
s(Vconceal
g24
tp7168
F3
s(V_Cador's_
g4
tp7169
F2
s(Vwherein
g130
tp7170
F1
s(VAbolition
g4
tp7171
F1
s(Vput
g24
tp7172
F3
s(VAtom
g4
tp7173
F3
s(VDiscourses
g38
tp7174
F1
s(VSeat
g4
tp7175
F1
s(Vspecial
g13
tp7176
F2
s(Vburnt-Widows
g38
tp7177
F1
s(VPlumes
g24
tp7178
F1
s(VVeneration
g8
tp7179
F1
s(Vjealous
g13
tp7180
F5
s(V_Diamond_
g8
tp7181
F1
s(Vrational
g13
tp7182
F1
s(VPrudence
g8
tp7183
F1
s(g73
S'.'
tp7184
F14
s(VDays
g38
tp7185
F10
s(Vmurdering
g77
tp7186
F2
s(V_Circus_
g8
tp7187
F3
s(Vadvance
g24
tp7188
F2
s(VDress
g4
tp7189
F1
s(Vwhereon
g8
tp7190
F1
s(VMerit
g8
tp7191
F1
s(Vfinds
g55
tp7192
F1
s(Vconjure
g8
tp7193
F1
s(Vpunish
g24
tp7194
F1
s(Vtherefore
g24
tp7195
F2
s(Vgrew
g3061
tp7196
F7
s(Vthought
g84
tp7197
F12
s(VOrder
g8
tp7198
F3
s(g77
g84
tp7199
F1
s(VShoes
g4
tp7200
F1
s(g4
g538
tp7201
F1
s(VShock
g4
tp7202
F1
s(Vill-natur
g13
tp7203
F1
s(Vprostrate
g8
tp7204
F4
s(Vcomprehensive
g13
tp7205
F1
s(Vspecific
g13
tp7206
F3
s(g1150
g7029
tp7207
F4
s(Vclose
g64
tp7208
F1
s(VVirtuous
g4
tp7209
F1
s(VRegard
g4
tp7210
F11
s(Vlonger
g290
tp7211
F1
s(VBeing
g4
tp7212
F11
s(Vdress
g8
tp7213
F2
s(Vlaugh
g8
tp7214
F1
s(g38
g1191
tp7215
F3
s(Vit
g621
tp7216
F128
s(V_Teutath_
g8
tp7217
F1
s(VBenevolence
g8
tp7218
F1
s(Vcare
g24
tp7219
F1
s(Venjoy
g55
tp7220
F1
s(VTroop
g8
tp7221
F1
s(Vdistinguish
g24
tp7222
F3
s(g8
g77
tp7223
F9
s(Vabsolute
g8
tp7224
F1
s(VPassion
g4
tp7225
F2
s(VAstrology
g4
tp7226
F2
s(Vscurvy
g13
tp7227
F1
s(VSaraband
g4
tp7228
F1
s(Veight
S'CD'
p7229
tp7230
F2
s(VDue
g13
tp7231
F1
s(VGrounds
g38
tp7232
F1
s(Vconversing
g77
tp7233
F1
s(VRisque
g4
tp7234
F1
s(V'd
g31
tp7235
F24
s(VPasses
g38
tp7236
F1
s(Vswell
g64
tp7237
F1
s(VStatue
g4
tp7238
F4
s(Vclos
g8
tp7239
F1
s(Vthrough
g19
tp7240
F3
s(Vanonymous
g13
tp7241
F1
s(g4
g73
tp7242
F28
s(Vmurder
g70
tp7243
F1
s(Vbury
g24
tp7244
F1
s(VHeel
g4
tp7245
F1
s(Vinsipid
g13
tp7246
F2
s(g965
g79
tp7247
F1
s(Vexcept
g19
tp7248
F4
s(VWelfare
g4
tp7249
F2
s(VGratuity
g4
tp7250
F1
s(S')'
g763
tp7251
F1
s(Vevery
g1469
tp7252
F42
s(VOffence
g4
tp7253
F1
s(VNatural
g4
tp7254
F1
s(Vresort
g24
tp7255
F1
s(g2668
g64
tp7256
F94
s(VNo
g86
tp7257
F23
s(Vsurprizing
g13
tp7258
F1
s(VCourtesy
g4
tp7259
F1
s(Vfast
g13
tp7260
F1
s(VAppetites
g68
tp7261
F1
s(Vheroic
g8
tp7262
F1
s(VFish
g4
tp7263
F4
s(Vexceedingly
g64
tp7264
F1
s(Vreflected
g70
tp7265
F1
s(VConquests
g38
tp7266
F2
s(VAcknowledgments
g38
tp7267
F1
s(g31
g1884
tp7268
F4
s(VEars
g4
tp7269
F1
s(Vcut
g24
tp7270
F3
s(Venlivening
g77
tp7271
F1
s(Vthat
g86
tp7272
F87
s(VDrink
g4
tp7273
F1
s(VAunt
g4
tp7274
F3
s(VFury
g4
tp7275
F1
s(VRoyal
g4
tp7276
F11
s(Vawkward
g19
tp7277
F1
s(VPeople
g38
tp7278
F3
s(VAmbition
g8
tp7279
F1
s(Vyou._
g64
tp7280
F1
s(VPeace
g4
tp7281
F3
s(VCompetition
g8
tp7282
F3
s(V_Orosmades_
g38
tp7283
F1
s(Vshooting
g77
tp7284
F1
s(VInvectives
g38
tp7285
F3
s(V_Astarte
g8
tp7286
F1
s(g70
g263
tp7287
F41
s(Vcall
g70
tp7288
F1
s(S','
g34
tp7289
F4
s(g122
g4641
tp7290
F86
s(Vrather
g1410
tp7291
F4
s(g33
g38
tp7292
F101
s(VConcrete
g4
tp7293
F1
s(Voff
g64
tp7294
F1
s(VFlow
g4
tp7295
F2
s(g647
g68
tp7296
F2
s(Vart
g64
tp7297
F2
s(VXIV
g8
tp7298
F2
s(V_Arnon_
g24
tp7299
F1
s(Vfelt
g70
tp7300
F2
s(g34
g3909
tp7301
F2
s(VBed-fellow
g4
tp7302
F1
s(VIntention
g8
tp7303
F1
s(Voriginal
g13
tp7304
F1
s(Velected
g70
tp7305
F1
s(VPraise
g4
tp7306
F4
s(VGrace
g8
tp7307
F1
s(VPalfrey
g4
tp7308
F7
s(Vcare
g8
tp7309
F7
s(VPrize
g8
tp7310
F1
s(VInterview
g8
tp7311
F1
s(Vpaid
g84
tp7312
F8
s(Vassuring
g77
tp7313
F1
s(Vsaucy
g8
tp7314
F1
s(g4397
g3909
tp7315
F2
s(Valone
g64
tp7316
F10
s(VRecourse
g4
tp7317
F2
s(VMinds
g4
tp7318
F1
s(VParties
g4
tp7319
F2
s(V_Moabdar_
g64
tp7320
F1
s(VResidence
g4
tp7321
F1
s(Vmutually
g64
tp7322
F1
s(VMarch
S'NNP'
p7323
tp7324
F2
s(Vapprehensive
g13
tp7325
F1
s(Vventur
g55
tp7326
F1
s(Vexplain
g24
tp7327
F2
s(Vrestore
g24
tp7328
F4
s(VEnjoyment
g4
tp7329
F2
s(VNames
g68
tp7330
F1
s(VApprehensions
g4
tp7331
F1
s(Vover-power
g13
tp7332
F1
s(V_Zend_
g4
tp7333
F2
s(g285
g1191
tp7334
F81
s(Vthy
g13
tp7335
F6
s(g77
g285
tp7336
F2
s(g13
g36
tp7337
F6
s(VFancy
g4
tp7338
F1
s(Vextended
g13
tp7339
F2
s(VForm
g4
tp7340
F1
s(Vask
g55
tp7341
F2
s(Ventitled
g70
tp7342
F1
s(Vcast
g70
tp7343
F2
s(Vconsider
g24
tp7344
F2
s(VEquipage
g8
tp7345
F1
s(VThousands
g38
tp7346
F1
s(VShew
g4
tp7347
F1
s(Vwhile
g8
tp7348
F3
s(Vamiable
g13
tp7349
F7
s(Vnay
g130
tp7350
F1
s(VCreature
g4
tp7351
F3
s(Vinexpressible
g13
tp7352
F1
s(VCreatures
g38
tp7353
F3
s(VDown
g4
tp7354
F1
s(VAction
g8
tp7355
F2
s(Vsubmissive
g13
tp7356
F1
s(VMultitude
g4
tp7357
F2
s(V_Orcan's_
g4
tp7358
F1
s(Vwretched
g38
tp7359
F1
s(Vpreferr
g13
tp7360
F2
s(VProsecution
g4
tp7361
F1
s(g73
g4544
tp7362
F35
s(Vfetch
g84
tp7363
F1
s(VPerfumes
g68
tp7364
F1
s(Vlikewise
g24
tp7365
F2
s(Vprincipal
g13
tp7366
F2
s(Vwilling
S'JJ'
p7367
tp7368
F2
s(Vsake
g8
tp7369
F2
s(V_Hermes_
g8
tp7370
F3
s(Vpublick
g8
tp7371
F2
s(VEternity
g4
tp7372
F1
s(Vremarkably
g64
tp7373
F2
s(g188
g763
tp7374
F28
s(Vimperceptible
g13
tp7375
F1
s(Vdesirable
g13
tp7376
F1
s(Vasleep
g64
tp7377
F2
s(VHair
g4
tp7378
F2
s(Vdistinctly
g64
tp7379
F1
s(VResentment
g8
tp7380
F3
s(Vinvidious
g13
tp7381
F1
s(Vwas
g84
tp7382
F508
s(Vthither
g64
tp7383
F1
s(Vafraid
g13
tp7384
F4
s(Vblown
g8
tp7385
F1
s(VAppearance
g8
tp7386
F4
s(VRendezvous_
g4
tp7387
F1
s(Vgrounded
g70
tp7388
F2
s(Vconven
g64
tp7389
F1
s(Vwhy
g2919
tp7390
F3
s(VSpring
g8
tp7391
F1
s(VTemperance
g4
tp7392
F1
s(Vcooly
g13
tp7393
F1
s(VBosom
g4
tp7394
F3
s(V_Coreb_
g4
tp7395
F1
s(Vproportion
g8
tp7396
F1
s(g263
g719
tp7397
F45
s(VFire
g8
tp7398
F3
s(VVanity
g4
tp7399
F1
s(VMouth
g4
tp7400
F5
s(g55
S','
tp7401
F19
s(Vrationally
g64
tp7402
F1
s(VUnderstanding
g77
tp7403
F2
s(VRest
g4
tp7404
F2
s(VBut
g129
tp7405
F36
s(g31
g64
tp7406
F1
s(Vgolden
S'JJ'
p7407
tp7408
F2
s(Vbeloved
g70
tp7409
F1
s(Vam
S'VBP'
p7410
tp7411
F33
s(Vleast
g34
tp7412
F20
s(Vmaintain
g24
tp7413
F1
s(Vremote
g13
tp7414
F1
s(V_Cathay_
g4
tp7415
F1
s(VPhilosopher
g4
tp7416
F4
s(Vsunk
g84
tp7417
F1
s(VCottage
g8
tp7418
F2
s(Vcasus
g8
tp7419
F1
s(g122
g136
tp7420
F7
s(VMeaning
g8
tp7421
F1
s(VConcourse
g4
tp7422
F1
s(Vvenemous
g13
tp7423
F1
s(Vdeeper
g13
tp7424
F1
s(Vflung
g8
tp7425
F1
s(Vknew
g84
tp7426
F12
s(Vbefal
g24
tp7427
F1
s(VMark
g4
tp7428
F1
s(VCourier
g4
tp7429
F4
s(VPlace._
g4
tp7430
F1
s(VEunuchs
g4
tp7431
F1
s(Vwant
g8
tp7432
F1
s(Vthinking
g8
tp7433
F1
s(Vpermitting
g77
tp7434
F1
s(Vthis
g4641
tp7435
F106
s(Vseemingly
g64
tp7436
F1
s(VThousand
g4
tp7437
F3
s(Vhenceforth
g8
tp7438
F1
s(Vsoften
g13
tp7439
F1
s(VSin
g4
tp7440
F2
s(g8
g107
tp7441
F36
s(Vas
g64
tp7442
F46
s(Vdetermin
g8
tp7443
F2
s(VSpectators
g4
tp7444
F1
s(Vlatter
g13
tp7445
F1
s(VBeasts
g38
tp7446
F1
s(VMortal
g4
tp7447
F4
s(VCompliments
g38
tp7448
F4
s(VChampions
g4
tp7449
F2
s(Vcommencing
g77
tp7450
F2
s(g1868
g106
tp7451
F10
s(VShrubs
g4
tp7452
F1
s(Vdeserv
g55
tp7453
F1
s(Vunveil
g13
tp7454
F1
s(VRiddles
g68
tp7455
F1
s(g13
g181
tp7456
F1
s(VBracelets
g68
tp7457
F1
s(Vreduc
g8
tp7458
F1
s(Ventrusted
g70
tp7459
F1
s(VLance
g8
tp7460
F3
s(g59
g136
tp7461
F3
s(VCouriers
g4
tp7462
F1
s(Vfatigu
g70
tp7463
F1
s(Vonly
g64
tp7464
F38
s(S')'
g3012
tp7465
F1
s(Vtrue
S'JJ'
p7466
tp7467
F11
s(Ventertain
g24
tp7468
F3
s(g4
S','
tp7469
F1388
s(Vdescrib
g13
tp7470
F1
s(VDecorations
g38
tp7471
F1
s(VKinds
g4
tp7472
F1
s(Vforgotten
g70
tp7473
F1
s(VHermit
g4
tp7474
F22
s(VAccount
g8
tp7475
F1
s(Vrais
g8
tp7476
F1
s(VBonnet
g4
tp7477
F2
s(V_Indies_
g8
tp7478
F3
s(VMisdemeanor
g4
tp7479
F1
s(VSlur
g4
tp7480
F1
s(VObligations
g38
tp7481
F2
s(Vtravelled
g70
tp7482
F1
s(VServants
g4
tp7483
F1
s.