ccollections
defaultdict
p1
(c__builtin__
float
p2
tRp3
(S'VBP'
p4
S'NNP'
p5
tp6
F1
s(Vlaughed
S'VBN'
p7
tp8
F1
s(Vhath
S'NN'
p9
tp10
F1
s(Veyes
S'NNS'
p11
tp12
F1
s(S'MD'
p13
S'PRP'
p14
tp15
F3
s(Vwe
g14
tp16
F2
s(VBY
g5
tp17
F1
s(g5
S'.'
tp18
F1
s(VTHE
g5
tp19
F1
s(Valso
S'RB'
p20
tp21
F2
s(VA
g5
tp22
F1
s(S'IN'
p23
S'PRP'
p24
tp25
F3
s(S'IN'
p26
S'NN'
p27
tp28
F1
s(Vshadow
g9
tp29
F1
s(VBOOK
g5
tp30
F1
s(V?
S'.'
tp31
F1
s(VWilliam
S'NNP'
p32
tp33
F1
s(Vshall
g13
tp34
F2
s(S'PRP$'
p35
g5
tp36
F1
s(S'CC'
p37
S'JJ'
p38
tp39
F1
s(Vin
S'IN'
p40
tp41
F3
s(g20
g4
tp42
F1
s(Vsuperscripted
g7
tp43
F1
s(g9
S'IN'
p44
tp45
F5
s(Vfacsimile
g9
tp46
F1
s(S'RB'
p47
S'MD'
p48
tp49
F1
s(Vlike
g23
tp50
F1
s(Vtouched
S'VBD'
p51
tp52
F1
s(Vare
S'VBP'
p53
tp54
F1
s(VCOMPANY
g5
tp55
F1
s(VMan
g9
tp56
F1
s(VO
g5
tp57
F1
s(Va
S'DT'
p58
tp59
F4
s(Vmore
S'JJR'
p60
tp61
F1
s(S'RB'
p62
S'.'
tp63
F1
s(V*
S'JJ'
p64
tp65
F1
s(S'DT'
p66
g5
tp67
F4
s(g5
S'POS'
p68
tp69
F1
s(VINVENTED
g5
tp70
F1
s(Vgenerously
g47
tp71
F1
s(Vtrust
S'VB'
p72
tp73
F1
s(Vof
g26
tp74
F5
s(V&
g37
tp75
F7
s(S'CD'
p76
S'.'
tp77
F1
s(S'VBZ'
p78
g26
tp79
F1
s(Vthat
S'WDT'
p80
tp81
F1
s(VNote
g9
tp82
F1
s(Vtrouble
g27
tp83
F1
s(S'DT'
p84
g64
tp85
F1
s(g14
g72
tp86
F3
s(Vhim
S'PRP'
p87
tp88
F2
s(Vis
g78
tp89
F5
s(g37
g78
tp90
F1
s(g7
g9
tp91
F1
s(VYORK
g5
tp92
F1
s(g5
g23
tp93
F3
s(VD.
S'NNP'
p94
tp95
F1
s(S'RP'
p96
S'PRP$'
p97
tp98
F2
s(Vwas
g51
tp99
F1
s(VAPPLETON
g5
tp100
F1
s(VShall
g72
tp101
F1
s(VENGRAVED
g5
tp102
F1
s(S'VBZ'
p103
g96
tp104
F1
s(VJust
g5
tp105
F1
s(Vat
S'IN'
p106
tp107
F1
s(VOF
g23
tp108
F1
s(g60
g9
tp109
F1
s(g5
g80
tp110
F1
s(Vfrom
g44
tp111
F2
s(S')'
g5
tp112
F1
s(g37
g9
tp113
F2
s(V1903
g76
tp114
F1
s(VThis
S'DT'
p115
tp116
F1
s(Vcometh
g103
tp117
F1
s(Vmy
S'PRP$'
p118
tp119
F1
s(V^
g9
tp120
F1
s(Vme
g24
tp121
F3
s(VInternet
g5
tp122
F1
s(Vfull
g38
tp123
F1
s(Vthe
g84
tp124
F4
s(VTranscriber
g5
tp125
F1
s(g7
g96
tp126
F1
s(VI
S'PRP'
p127
tp128
F1
s(Vwill
g48
tp129
F1
s(VCharacters
g11
tp130
F1
s(Vup
g96
tp131
F3
s(Vhe
S'PRP'
p132
tp133
F3
s(g97
g11
tp134
F3
s(g44
g11
tp135
F1
s(g53
g7
tp136
F1
s(Voff
g23
tp137
F1
s(g47
g51
tp138
F1
s(Vborn
g7
tp139
F1
s(Vyear
S'NN'
p140
tp141
F1
s(Vupon
g23
tp142
F1
s(Vslay
g72
tp143
F1
s(g72
g58
tp144
F1
s(Vas
g23
tp145
F1
s(g68
g9
tp146
F1
s(g24
S'.'
tp147
F1
s(VEvil
g5
tp148
F1
s(Vreceive
g72
tp149
F1
s(g4
g9
tp150
F1
s(g72
g5
tp151
F2
s(g7
S'.'
tp152
F1
s(V.
S'.'
tp153
F5
s(VHave
g4
tp154
F1
s(Vwept
g9
tp155
F1
s(Vreceive
g4
tp156
F1
s(g9
S'VB'
p157
tp158
F1
s(Vfew
S'JJ'
p159
tp160
F1
s(VAnd
S'CC'
p161
tp162
F1
s(g9
g53
tp163
F1
s(Vavailable
S'JJ'
p164
tp165
F1
s(VWoman
g5
tp166
F1
s(g80
g78
tp167
F1
s(g72
g24
tp168
F1
s(Vhis
g35
tp169
F1
s(VEDITION
g5
tp170
F1
s(Voriginal
g64
tp171
F1
s(Vby
S'IN'
p172
tp173
F2
s(g96
g23
tp174
F1
s(S'WRB'
p175
S'PRP'
p176
tp177
F1
s(g5
S'PRP'
p178
tp179
F1
s(g103
g20
tp180
F1
s(VThough
g23
tp181
F1
s(Vfleeth
g103
tp182
F1
s(Vknew
g51
tp183
F1
s(VIssue
g5
tp184
F1
s(g7
g44
tp185
F4
s(V:
S':'
tp186
F1
s(g7
S'TO'
p187
tp188
F1
s(VBlake
g5
tp189
F1
s(V*
g5
tp190
F4
s(g24
g23
tp191
F1
s(g76
g5
tp192
F1
s(g5
g115
tp193
F1
s(g72
g40
tp194
F1
s(Vdays
S'NNS'
p195
tp196
F1
s(g5
g7
tp197
F1
s(Vfile
g9
tp198
F1
s(g96
g132
tp199
F1
s(g64
g5
tp200
F2
s(g5
g5
tp201
F24
s(g62
g176
tp202
F1
s(g9
g51
tp203
F2
s(S'VBG'
p204
g9
tp205
F1
s(g37
g13
tp206
F1
s(g26
g159
tp207
F1
s(g11
g47
tp208
F1
s(g37
g5
tp209
F1
s(VEdition
g5
tp210
F1
s(Vwhen
g175
tp211
F1
s(g172
g66
tp212
F8
s(g20
g23
tp213
F1
s(g51
g164
tp214
F1
s(VUpright
g5
tp215
F1
s(Vlifted
g51
tp216
F2
s(Vcontinueth
g9
tp217
F1
s(g5
S')'
tp218
F1
s(g23
g5
tp219
F4
s(VNOTE
g5
tp220
F1
s(VNEW
g5
tp221
F2
s(g14
g62
tp222
F3
s(g51
g7
tp223
F1
s(g157
g60
tp224
F1
s(Vfollowing
g204
tp225
F1
s(g78
g7
tp226
F4
s(V)
S')'
tp227
F1
s(Vreduced
g7
tp228
F1
s(VAND
g5
tp229
F1
s(g9
g62
tp230
F1
s(VJOB
g5
tp231
F1
s(Vmade
g51
tp232
F1
s(Vproduced
g7
tp233
F1
s(g187
g72
tp234
F1
s(g5
g37
tp235
F3
s(VThe
g66
tp236
F2
s(g11
g23
tp237
F2
s(Vfriends
g11
tp238
F1
s(g23
g37
tp239
F1
s(Vyet
g47
tp240
F1
s(VGood
g5
tp241
F1
s(Vhand
S'NN'
p242
tp243
F2
s(Vthan
S'IN'
p244
tp245
F1
s(Vto
g187
tp246
F1
s(g37
g51
tp247
F1
s(VOF
g5
tp248
F1
s(g51
g96
tp249
F2
s(V1826
g76
tp250
F1
s(g176
g51
tp251
F2
s(g140
g76
tp252
F1
s(Vthey
g176
tp253
F2
s(Vbe
g157
tp254
F1
s(g11
g204
tp255
F1
s(Vpity
g9
tp256
F1
s(Vdown
g96
tp257
F1
s(VArchive
g5
tp258
F1
s(g178
g118
tp259
F1
s(g5
g76
tp260
F1
s(Vfor
S'IN'
p261
tp262
F1
s(Vscorn
g72
tp263
F1
s(VPure
g9
tp264
F1
s(g9
S':'
tp265
F1
s(Vnot
g62
tp266
F3
s(g40
g7
tp267
F1
s(VMan
g5
tp268
F2
s(Vye
g178
tp269
F1
s(g5
g9
tp270
F1
s(g164
g172
tp271
F2
s(g9
g37
tp272
F2
s(Vafar
g23
tp273
F1
s(VMaker
g5
tp274
F1
s(Vreproduced
g7
tp275
F1
s(V's
g68
tp276
F1
s(Vvoices
g11
tp277
F1
s(g27
g132
tp278
F1
s(g5
g78
tp279
F3
s(g159
g195
tp280
F1
s(Vpublished
g7
tp281
F1
s(Vtheir
g97
tp282
F2
s(g51
g87
tp283
F2
s(g87
g66
tp284
F1
s(VWILLIAM
g5
tp285
F1
s(Vcut
g7
tp286
F1
s(g9
S'.'
tp287
F1
s(Vimages
g11
tp288
F1
s(g23
g23
tp289
F1
s(g244
g35
tp290
F1
s(g11
g37
tp291
F2
s(VBLAKE
g5
tp292
F1
s(g62
g20
tp293
F1
s(g132
g103
tp294
F2
s(Vflower
g9
tp295
F1
s(VGod
g5
tp296
F2
s(g84
g140
tp297
F6
s(S':'
g11
tp298
F1
s(VILLUSTRATIONS
g5
tp299
F1
s(g161
g175
tp300
F1
s.