ccollections
defaultdict
p1
(c__builtin__
float
p2
tRp3
(S'VBP'
p4
S'NNP'
p5
tp6
F1
s(Vbrain
S'NN'
p7
tp8
F2
s(Vexclaimed
S'VBD'
p9
tp10
F1
s(Vwe
S'PRP'
p11
tp12
F26
s(g5
S'.'
tp13
F31
s(Vsort
S'NN'
p14
tp15
F1
s(VFor
S'IN'
p16
tp17
F2
s(S'WDT'
p18
S'NN'
p19
tp20
F1
s(Vdance
g14
tp21
F1
s(Vensued
S'VBN'
p22
tp23
F1
s(S'IN'
p24
S'NN'
p25
tp26
F29
s(Vlength
S'PDT'
p27
tp28
F1
s(Vtriumphs
g14
tp29
F1
s(S'PRP$'
p30
g5
tp31
F8
s(Vred
S'JJ'
p32
tp33
F1
s(VBlood
g5
tp34
F2
s(VPa.
g5
tp35
F1
s(Vhorizontal
g14
tp36
F1
s(g22
S'PRP'
p37
tp38
F6
s(Valready
S'RB'
p39
tp40
F1
s(Vsignal
g14
tp41
F3
s(S'NNS'
p42
g30
tp43
F1
s(VAnxiously
S'RB'
p44
tp45
F1
s(Vagainst
S'IN'
p46
tp47
F1
s(Vsupport
S'VB'
p48
tp49
F1
s(Vseemed
g9
tp50
F1
s(Vplead
g48
tp51
F1
s(Vcase
S'NN'
p52
tp53
F4
s(VCan
g5
tp54
F1
s(Vcalled
g22
tp55
F2
s(Vrefusing
S'VBG'
p56
tp57
F1
s(Vsecond
g32
tp58
F1
s(Vhandle
g14
tp59
F1
s(V_us_
g32
tp60
F1
s(Vexpensive
g32
tp61
F1
s(VHe
S'PRP'
p62
tp63
F5
s(Vmilitary
g32
tp64
F1
s(Vqueen
g14
tp65
F1
s(VWhat
S'WP'
p66
tp67
F5
s(g30
S'JJS'
p68
tp69
F1
s(S'CD'
p70
g22
tp71
F1
s(S'VBZ'
p72
S'TO'
p73
tp74
F1
s(Vcloset
g14
tp75
F1
s(Vage
S'NN'
p76
tp77
F1
s(Vforms
S'NNS'
p78
tp79
F2
s(Vforward
g44
tp80
F1
s(Vsaw
g9
tp81
F1
s(Vtill
g14
tp82
F1
s(Vthoughts
g78
tp83
F1
s(Vdivided
g22
tp84
F1
s(Vplayed
g22
tp85
F1
s(g48
S'WRB'
p86
tp87
F1
s(Vmoment
S'NN'
p88
tp89
F2
s(Vnatural
S'JJ'
p90
tp91
F1
s(g14
S'DT'
p92
tp93
F8
s(S'JJR'
p94
S'IN'
p95
tp96
F1
s(Vtold
g9
tp97
F4
s(S'NN'
p98
g18
tp99
F2
s(Vmore
g94
tp100
F2
s(S'CC'
p101
g92
tp102
F13
s(Vso
g44
tp103
F14
s(Vdo
g48
tp104
F5
s(S','
S'MD'
p105
tp106
F1
s(S','
g48
tp107
F4
s(S'CC'
p108
S'PRP'
p109
tp110
F26
s(Vpassage
g14
tp111
F1
s(Vquickest
g68
tp112
F1
s(Vmake
g48
tp113
F2
s(g44
g109
tp114
F8
s(S'WP'
p115
S'VBZ'
p116
tp117
F5
s(Vshoes
g78
tp118
F1
s(g56
g14
tp119
F4
s(Vknocked
g9
tp120
F1
s(Vnuptials
g78
tp121
F1
s(Vearth
g14
tp122
F2
s(Vconducted
g9
tp123
F1
s(Vceremonies
g78
tp124
F1
s(S"''"
p125
S':'
tp126
F1
s(Vwhen
S'WRB'
p127
tp128
F7
s(Vgloomy
g32
tp129
F1
s(Vreceived
g9
tp130
F1
s(S'CD'
p131
g4
tp132
F1
s(Vbedroom
g14
tp133
F1
s(Vscrapes
g78
tp134
F1
s(g9
S')'
tp135
F1
s(g32
S'PRP'
p136
tp137
F3
s(Vpursued
g9
tp138
F1
s(Vpractised
g32
tp139
F1
s(Vdesperate
g32
tp140
F2
s(Vpair
g14
tp141
F1
s(Vwould
S'MD'
p142
tp143
F20
s(VDo
g4
tp144
F1
s(Vwitness
g14
tp145
F2
s(g5
S'CC'
p146
tp147
F11
s(Vthine
g14
tp148
F2
s(Vopen
g32
tp149
F1
s(Vpiece
g14
tp150
F3
s(Vafter
S'IN'
p151
tp152
F5
s(g78
S'MD'
p153
tp154
F6
s(Vtouched
g9
tp155
F1
s(Veducational
g32
tp156
F1
s(g101
g70
tp157
F5
s(Vdescribe
g48
tp158
F1
s(V's
S'POS'
p159
tp160
F23
s(Vvisible
g32
tp161
F1
s(S'NN'
p162
g32
tp163
F2
s(g37
S'DT'
p164
tp165
F7
s(Vown
g32
tp166
F3
s(S'IN'
p167
S'IN'
p168
tp169
F12
s(g78
g101
tp170
F5
s(VPretending
g56
tp171
F1
s(Vincredible
g32
tp172
F1
s(Vplaces
g78
tp173
F1
s(g22
g92
tp174
F11
s(Vfairy
g14
tp175
F2
s(S','
S'JJ'
p176
tp177
F2
s(Vdown
S'RP'
p178
tp179
F2
s(S'IN'
p180
g27
tp181
F2
s(g125
g101
tp182
F4
s(Vcome
g48
tp183
F3
s(Vround
g167
tp184
F1
s(Vevent
S'NN'
p185
tp186
F1
s(Va
S'DT'
p187
tp188
F60
s(Vbook
g25
tp189
F1
s(Vpay
g48
tp190
F2
s(V'Ere
g159
tp191
F1
s(Vtable
g14
tp192
F1
s(Vmost
g68
tp193
F1
s(S'CD'
p194
S'.'
tp195
F6
s(S','
g30
tp196
F2
s(Vdrawn
g22
tp197
F1
s(VTrial
g5
tp198
F1
s(Vmean
g4
tp199
F1
s(Vpretend
g4
tp200
F1
s(Vhour
S'NN'
p201
tp202
F1
s(Vthem
S'PRP'
p203
tp204
F6
s(g178
g14
tp205
F2
s(Vfather
g14
tp206
F1
s(Vbeen
S'VBN'
p207
tp208
F11
s(Vhere
S'RB'
p209
tp210
F1
s(Vfelt
g9
tp211
F2
s(Vportrait
g14
tp212
F1
s(Vtreat
g4
tp213
F1
s(Vdangers
g78
tp214
F1
s(VMy
S'PRP$'
p215
tp216
F5
s(Vone
S'CD'
p217
tp218
F8
s(Vrestored
g22
tp219
F1
s(Vbadly
g44
tp220
F1
s(VLikewise
g48
tp221
F1
s(Vconfiding
g56
tp222
F1
s(g18
g9
tp223
F3
s(Vget
g48
tp224
F1
s(Vkitchen
g14
tp225
F1
s(VThen
S'RB'
p226
tp227
F3
s(Vtoast
g14
tp228
F1
s(S'RB'
p229
g92
tp230
F6
s(Vperilous
g32
tp231
F1
s(S'WRB'
p232
g92
tp233
F4
s(Vwillow
g14
tp234
F2
s(Vhas
S'VBZ'
p235
tp236
F2
s(Vdemanded
g9
tp237
F1
s(S'``'
p238
g32
tp239
F3
s(VEdwin
g5
tp240
F1
s(g86
S'NNS'
p241
tp242
F1
s(g32
S'JJ'
p243
tp244
F5
s(Vrapined
g22
tp245
F1
s(V)
S')'
tp246
F12
s(Vwise
g32
tp247
F1
s(g167
S'RB'
p248
tp249
F2
s(Vrapturous
g32
tp250
F1
s(g101
g68
tp251
F1
s(Vheated
g32
tp252
F1
s(Vattack
g14
tp253
F2
s(Vneat
g32
tp254
F1
s(Vthings
g241
tp255
F3
s(g32
g101
tp256
F4
s(g4
S'RB'
p257
tp258
F12
s(g72
g37
tp259
F6
s(Vobeyed
g22
tp260
F1
s(Vpointing
g56
tp261
F1
s(VShaking
g56
tp262
F1
s(VRomance
g5
tp263
F2
s(V1874
g217
tp264
F1
s(g73
g215
tp265
F4
s(Vdissatisfied
g22
tp266
F1
s(Vchildren
S'NNS'
p267
tp268
F3
s(g168
g30
tp269
F42
s(VGuilty
g5
tp270
F4
s(VAnswer
g5
tp271
F2
s(Vpresent
g14
tp272
F1
s(Veyes
g78
tp273
F2
s(Vinvited
g9
tp274
F1
s(g4
g178
tp275
F1
s(g207
S'VBG'
p276
tp277
F1
s(Vanybody
g14
tp278
F1
s(g217
g14
tp279
F1
s(Veducate
g48
tp280
F1
s(Vhoop-stick
g14
tp281
F1
s(g5
g142
tp282
F3
s(g217
S','
tp283
F2
s(Vanswered
g9
tp284
F2
s(Vturned
g22
tp285
F1
s(Vdiscovering
g56
tp286
F1
s(Vyesterday
S'NN'
p287
tp288
F3
s(Vgreatest
g68
tp289
F1
s(VMiss
g5
tp290
F5
s(Vmuzzled
g22
tp291
F1
s(Vtowards
g167
tp292
F1
s(Vhave
g48
tp293
F12
s(S'('
g108
tp294
F2
s(g44
S'RB'
p295
tp296
F12
s(VMain
g14
tp297
F1
s(Vweeping
g56
tp298
F1
s(g215
g44
tp299
F3
s(S','
g44
tp300
F8
s(Vwine
g14
tp301
F1
s(g127
g14
tp302
F3
s(g238
S'CC'
p303
tp304
F5
s(Vpoint
g14
tp305
F3
s(g22
g194
tp306
F2
s(VFeeling
g56
tp307
F1
s(g167
S'.'
tp308
F2
s(VOr
g146
tp309
F2
s(S'('
g32
tp310
F1
s(Vother
S'JJ'
p311
tp312
F5
s(S'IN'
p313
g68
tp314
F1
s(Vaway
g44
tp315
F1
s(VNext
g32
tp316
F1
s(S'PRP$'
p317
g78
tp318
F18
s(Vright
g44
tp319
F1
s(Vunder
S'IN'
p320
tp321
F4
s(Vgetting
S'VBG'
p322
tp323
F1
s(g44
g9
tp324
F12
s(Vhaving
S'VBG'
p325
tp326
F2
s(Vroad
S'NN'
p327
tp328
F1
s(Vworth
g9
tp329
F1
s(Vunderstand
g48
tp330
F1
s(VEmperor
g5
tp331
F2
s(VNymphs
g5
tp332
F1
s(g56
g92
tp333
F10
s(Vhissed
g9
tp334
F1
s(Vthought
g9
tp335
F2
s(Vpretending
g14
tp336
F1
s(Vplainest
g14
tp337
F1
s(Vavailable
S'JJ'
p338
tp339
F1
s(Vstory
S'NN'
p340
tp341
F1
s(g37
g32
tp342
F5
s(Vshould
S'MD'
p343
tp344
F8
s(g70
S'VBD'
p345
tp346
F3
s(Vinnocence
g14
tp347
F1
s(Vobserved
g9
tp348
F1
s(g22
S','
tp349
F6
s(g56
g131
tp350
F1
s(g168
S'VBG'
p351
tp352
F20
s(g101
g22
tp353
F2
s(Vseeing
g56
tp354
F1
s(Vlate
g32
tp355
F2
s(Vappointed
g22
tp356
F2
s(Vtittering
g56
tp357
F1
s(Vhundred
g217
tp358
F1
s(VFrance
S'NNP'
p359
tp360
F2
s(g108
g78
tp361
F1
s(Vlying
g56
tp362
F1
s(Vsame
S'JJ'
p363
tp364
F3
s(S'DT'
p365
S'RBS'
p366
tp367
F3
s(S','
g115
tp368
F3
s(Vdoor
g14
tp369
F2
s(VThe
S'DT'
p370
tp371
F28
s(S'NNS'
p372
g168
tp373
F14
s(Vtill
g48
tp374
F1
s(g178
S'IN'
p375
tp376
F7
s(Vmight
g153
tp377
F6
s(Veye
S'NN'
p378
tp379
F1
s(Vsyllable
g32
tp380
F2
s(Vfall
g48
tp381
F4
s(Vmore
S'RBR'
p382
tp383
F2
s(g9
g44
tp384
F20
s(Vup
g44
tp385
F2
s(g159
S'.'
tp386
F1
s(Vsuggested
g22
tp387
F1
s(g4
g30
tp388
F1
s(Vfootnote
g14
tp389
F1
s(g125
S'NN'
p390
tp391
F1
s(Vperformed
g9
tp392
F1
s(VAmerica
S'NNP'
p393
tp394
F1
s(g68
g14
tp395
F4
s(Vlast
S'JJ'
p396
tp397
F1
s(Vdoing
S'VBG'
p398
tp399
F1
s(Vwoman
S'NN'
p400
tp401
F1
s(g257
g48
tp402
F25
s(g56
g32
tp403
F1
s(Vpeople
S'NNS'
p404
tp405
F10
s(Vhold
g48
tp406
F2
s(Vfairies
g78
tp407
F3
s(Vspeaking
g14
tp408
F1
s(Vsaved
g22
tp409
F1
s(g5
S'EX'
p410
tp411
F1
s(Vnote
g14
tp412
F2
s(Vpublicly
S'RB'
p413
tp414
F1
s(g9
g178
tp415
F3
s(Vdisguised
g22
tp416
F1
s(Vrims
g78
tp417
F1
s(S'VBG'
p418
g317
tp419
F5
s(Vnew
S'JJ'
p420
tp421
F2
s(Vjumped
g9
tp422
F1
s(Vvow
g14
tp423
F1
s(g18
g5
tp424
F1
s(VOf
S'IN'
p425
tp426
F3
s(Vgarden-engine
g14
tp427
F1
s(g267
g159
tp428
F1
s(Vupon
g167
tp429
F4
s(Vsulkily
g44
tp430
F1
s(Vpencilled
g22
tp431
F1
s(Vkissing
g56
tp432
F1
s(Vpurports
g72
tp433
F1
s(Vjoined
g9
tp434
F1
s(Vinto
S'IN'
p435
tp436
F9
s(g101
S'NN'
p437
tp438
F11
s(Vchild
g14
tp439
F2
s(VDancing-School
g5
tp440
F1
s(Vout
g178
tp441
F15
s(Vrapine
g14
tp442
F1
s(g159
g370
tp443
F1
s(Vgiddy
g14
tp444
F1
s(g14
g159
tp445
F5
s(g127
S'VBD'
p446
tp447
F1
s(S':'
g142
tp448
F1
s(Voff
g167
tp449
F1
s(Vright-hand
g14
tp450
F1
s(Vyour
S'PRP$'
p451
tp452
F6
s(Vgive
g48
tp453
F2
s(Vfortunate
g32
tp454
F1
s(Von
g375
tp455
F19
s(Vremained
g22
tp456
F1
s(Vfireworks
g78
tp457
F1
s(VBride
g5
tp458
F23
s(VAnd
g303
tp459
F8
s(Vtriumphant
g32
tp460
F1
s(Vchalk
g14
tp461
F1
s(Vordered
g9
tp462
F1
s(Vup
g167
tp463
F2
s(g125
g24
tp464
F1
s(VOur
S'PRP$'
p465
tp466
F2
s(VTyrants
g78
tp467
F1
s(Vpersuaded
g22
tp468
F1
s(Vours
g37
tp469
F1
s(S'VBZ'
p470
g229
tp471
F1
s(Vchanged
g22
tp472
F4
s(V;
S':'
tp473
F10
s(Vend
g14
tp474
F4
s(g37
S':'
tp475
F2
s(Vagreed
g9
tp476
F1
s(Vpretend
g48
tp477
F2
s(Vfollowed
g22
tp478
F1
s(Velectrotyped
g9
tp479
F1
s(Vmuch
g32
tp480
F3
s(g32
g5
tp481
F13
s(Vglass
g14
tp482
F1
s(VPresident
S'NNP'
p483
tp484
F7
s(VRound
g5
tp485
F2
s(g78
g22
tp486
F4
s(g5
S')'
tp487
F2
s(Vrheumatic
g32
tp488
F1
s(g48
g410
tp489
F1
s(Vmake
g4
tp490
F2
s(Vround
g48
tp491
F1
s(Vfollowing
g32
tp492
F1
s(Vputting
g418
tp493
F1
s(Vproduced
g22
tp494
F1
s(VBob
g5
tp495
F2
s(Vno
g44
tp496
F3
s(Vfurther
g44
tp497
F1
s(Vmarried
g22
tp498
F1
s(g68
S'.'
tp499
F1
s(Vashamed
g22
tp500
F1
s(Vgrowled
g9
tp501
F1
s(VIf
S'IN'
p502
tp503
F3
s(VLightly
g44
tp504
F1
s(Vnot
g229
tp505
F12
s(Vincome
S'NN'
p506
tp507
F1
s(Vdone
S'VBN'
p508
tp509
F1
s(Vbuy
g48
tp510
F1
s(VAgain
g44
tp511
F1
s(VEnd
g14
tp512
F1
s(Vborders
g78
tp513
F1
s(VIs
g72
tp514
F5
s(VBravery
g5
tp515
F1
s(Vagonies
g78
tp516
F1
s(Vnobody
g14
tp517
F1
s(Vmyself
g37
tp518
F5
s(Vgreat-uncle
g14
tp519
F1
s(g238
g465
tp520
F1
s(Vcome
g22
tp521
F1
s(Vmoney
S'NN'
p522
tp523
F1
s(g22
g178
tp524
F4
s(VYes
S'UH'
p525
tp526
F1
s(Vhung
g14
tp527
F1
s(Venemy
g14
tp528
F2
s(g48
S'.'
tp529
F10
s(Vbelieve
g48
tp530
F4
s(g14
S'WRB'
p531
tp532
F1
s(Vover
g44
tp533
F1
s(VA
g164
tp534
F3
s(Vmisunderstood
g22
tp535
F1
s(Vlike
g167
tp536
F1
s(VBeast
g14
tp537
F1
s(Vknow
g48
tp538
F1
s(S','
g9
tp539
F11
s(g164
g70
tp540
F6
s(Vbad
S'JJ'
p541
tp542
F3
s(Vclaimed
g9
tp543
F1
s(S'PRP'
p544
S'MD'
p545
tp546
F42
s(S','
g127
tp547
F3
s(g203
g115
tp548
F1
s(g351
S'RB'
p549
tp550
F3
s(Vprisoner
g14
tp551
F1
s(g410
S'NN'
p552
tp553
F1
s(VEither
g164
tp554
F1
s(g4
S':'
tp555
F1
s(Vbothering
g56
tp556
F1
s(Vkicking
g56
tp557
F1
s(VL1,000
g5
tp558
F1
s(g217
S':'
tp559
F1
s(Vpocket-money
g14
tp560
F1
s(Vtaking
g56
tp561
F3
s(Vwith
S'IN'
p562
tp563
F25
s(Vwill
S'MD'
p564
tp565
F9
s(S':'
g86
tp566
F1
s(Vvexation
g14
tp567
F1
s(Vhow
g86
tp568
F5
s(Vwhispered
g9
tp569
F1
s(Vcalled
g9
tp570
F1
s(Vescape
g14
tp571
F1
s(Vlife
S'NN'
p572
tp573
F1
s(Vninety
g14
tp574
F4
s(g545
S'IN'
p575
tp576
F1
s(Vperhaps
S'RB'
p577
tp578
F1
s(Vquitted
g22
tp579
F2
s(Vfalling
S'VBG'
p580
tp581
F1
s(g4
S','
tp582
F2
s(VGutenberg
g5
tp583
F1
s(g44
g101
tp584
F1
s(g167
g127
tp585
F1
s(g248
g32
tp586
F18
s(g56
g178
tp587
F5
s(Vmention
g48
tp588
F1
s(g22
S'IN'
p589
tp590
F37
s(g229
g22
tp591
F12
s(Vbetter
g382
tp592
F1
s(g5
S'DT'
p593
tp594
F2
s(Vsend
g48
tp595
F1
s(g545
g48
tp596
F42
s(Vlove
g14
tp597
F2
s(Vknowledge
g14
tp598
F1
s(VCan
g564
tp599
F1
s(Vcorner
g14
tp600
F1
s(S'IN'
p601
g370
tp602
F131
s(Vconsidering
g276
tp603
F1
s(Vbone
g14
tp604
F1
s(Vside
g14
tp605
F1
s(Vdown
g44
tp606
F1
s(Vnothing
S'NN'
p607
tp608
F2
s(g44
g56
tp609
F5
s(Vquoted
g22
tp610
F1
s(Vwere
S'VBD'
p611
tp612
F11
s(Vlooked
g9
tp613
F1
s(Vdrink
g48
tp614
F1
s(g101
g9
tp615
F21
s(Van
g164
tp616
F10
s(S':'
g24
tp617
F3
s(g30
g14
tp618
F58
s(Vmatter
g14
tp619
F2
s(Vsmile
g14
tp620
F1
s(g168
g70
tp621
F6
s(g125
g235
tp622
F1
s(Vbit
g14
tp623
F1
s(Vhonour
g14
tp624
F2
s(Vpretend
g14
tp625
F1
s(g338
g601
tp626
F9
s(Vnearly
S'RB'
p627
tp628
F1
s(S'EX'
p629
g153
tp630
F1
s(Vone
g14
tp631
F2
s(S'VBD'
p632
g73
tp633
F14
s(g151
g632
tp634
F1
s(g44
g24
tp635
F10
s(Vword
S'NN'
p636
tp637
F4
s(Vmutinied
g22
tp638
F1
s(Vconquer
g48
tp639
F1
s(Vresumed
g9
tp640
F1
s(Vreason
S'NN'
p641
tp642
F1
s(Vthink
g48
tp643
F3
s(Vcare
g48
tp644
F1
s(Ventered
g22
tp645
F1
s(Vhe
g136
tp646
F22
s(Vtext
g14
tp647
F1
s(Vprove
g48
tp648
F2
s(Vcombining
g56
tp649
F1
s(Vumbrella
g14
tp650
F1
s(VP.M.
g5
tp651
F1
s(Vwaiting
g56
tp652
F1
s(g164
g382
tp653
F1
s(Vall
g164
tp654
F9
s(Vconversation
g14
tp655
F1
s(g217
g24
tp656
F3
s(g178
S'.'
tp657
F4
s(Vwanting
g14
tp658
F1
s(g167
g410
tp659
F1
s(S'NN'
p660
g24
tp661
F92
s(VNo
g5
tp662
F1
s(Vordeal
g14
tp663
F1
s(g22
g215
tp664
F3
s(Vsuggest
g48
tp665
F1
s(g5
g125
tp666
F6
s(Vmagazine
g660
tp667
F1
s(Vridiculous
g32
tp668
F3
s(Vcontrived
g9
tp669
F1
s(Vwall
g14
tp670
F1
s(Vtread
g48
tp671
F1
s(Vbanner
g14
tp672
F1
s(Vhoarse
g14
tp673
F1
s(Vpursuit
g14
tp674
F1
s(Vblooming
g14
tp675
F1
s(S','
g410
tp676
F1
s(g142
g30
tp677
F2
s(Vlost
g9
tp678
F1
s(Vimplacable
g32
tp679
F1
s(Vanimal
g14
tp680
F1
s(VCow
g5
tp681
F2
s(Vwindow
g14
tp682
F1
s(Vsee
g4
tp683
F1
s(Vwell
g44
tp684
F1
s(Vknife
g14
tp685
F1
s(VEven
g44
tp686
F1
s(VMessrs
g5
tp687
F1
s(Vput
g9
tp688
F2
s(g229
g5
tp689
F5
s(VWe
S'PRP'
p690
tp691
F12
s(Vflew
g9
tp692
F1
s(g78
g18
tp693
F1
s(g32
g14
tp694
F60
s(VOn
S'IN'
p695
tp696
F3
s(Vever
S'RB'
p697
tp698
F6
s(Vdentist-despot
g14
tp699
F1
s(g203
g178
tp700
F9
s(Vcould
S'MD'
p701
tp702
F7
s(g48
g365
tp703
F22
s(Vfield
S'NN'
p704
tp705
F2
s(Vsat
g9
tp706
F3
s(Vdelicious
g32
tp707
F1
s(VHall
g5
tp708
F1
s(Vgot
g9
tp709
F2
s(Vour
g317
tp710
F14
s(S'NNPS'
p711
S'VBD'
p712
tp713
F1
s(S')'
S','
tp714
F3
s(VGrimmer
g5
tp715
F4
s(g48
g37
tp716
F20
s(Vexecutioners
g78
tp717
F1
s(Vuninterrupted
g22
tp718
F1
s(Veighty
g32
tp719
F1
s(VHow
g127
tp720
F6
s(g9
g531
tp721
F2
s(Vcrutch-stick
g14
tp722
F1
s(V:
S':'
tp723
F2
s(g9
g382
tp724
F1
s(Vwaistcoat-pocket
g14
tp725
F1
s(Vterrific
g32
tp726
F1
s(Vattributed
g9
tp727
F1
s(V_He_
g14
tp728
F1
s(S'NN'
p729
g73
tp730
F13
s(g73
g5
tp731
F2
s(g11
S'RB'
p732
tp733
F13
s(g9
g22
tp734
F35
s(Vnight
g19
tp735
F1
s(Vhouse
S'NN'
p736
tp737
F2
s(Vgave
S'VBD'
p738
tp739
F4
s(g32
g44
tp740
F2
s(Vmine
g14
tp741
F1
s(S'NNS'
p742
g73
tp743
F1
s(S'PRP'
p744
S')'
tp745
F1
s(VHolidays
g78
tp746
F1
s(g14
S':'
tp747
F6
s(VThey
S'PRP'
p748
tp749
F1
s(Vcreatures
g78
tp750
F1
s(g56
g73
tp751
F7
s(Vwine-glass
g14
tp752
F1
s(g56
g37
tp753
F6
s(g311
g78
tp754
F20
s(g109
g4
tp755
F24
s(Vwhat
g115
tp756
F7
s(Vdancing-school
g14
tp757
F1
s(Vreproved
g22
tp758
F2
s(Vtime
S'NN'
p759
tp760
F1
s(Vapproach
g14
tp761
F1
s(Vexplosion
g14
tp762
F1
s(Vamong
S'IN'
p763
tp764
F3
s(Vcertain
S'JJ'
p765
tp766
F1
s(VIn
g167
tp767
F3
s(Vstrong
S'JJ'
p768
tp769
F2
s(Vfaces
S'VBZ'
p770
tp771
F1
s(Vcloak-room
g14
tp772
F1
s(Vshall
g105
tp773
F1
s(Vall
g27
tp774
F1
s(Veffect
S'NN'
p775
tp776
F1
s(Vpulled
g9
tp777
F1
s(Vcherries
g78
tp778
F3
s(Vshe
S'PRP'
p779
tp780
F6
s(g531
g73
tp781
F1
s(g151
S','
tp782
F4
s(Vorders
g742
tp783
F2
s(Vaverted
g22
tp784
F1
s(Vminutes
S'NNS'
p785
tp786
F1
s(S'JJ'
p787
S'.'
tp788
F18
s(Vto-night
g14
tp789
F2
s(g22
S'NN'
p790
tp791
F3
s(Vpitching
g56
tp792
F1
s(Vpoutingly
g44
tp793
F1
s(S':'
g238
tp794
F1
s(V.
S'.'
tp795
F179
s(Vback
g32
tp796
F1
s(g70
g311
tp797
F1
s(g22
g238
tp798
F3
s(S'CC'
p799
g167
tp800
F7
s(Vbust
g14
tp801
F1
s(Vimmured
g22
tp802
F1
s(g72
S'.'
tp803
F1
s(g159
g32
tp804
F1
s(S','
g22
tp805
F3
s(Vthere
g44
tp806
F1
s(VDrood
g5
tp807
F1
s(Vmotives
g78
tp808
F1
s(V--
S':'
tp809
F16
s(Vlane
g14
tp810
F3
s(Vfriendliest
g68
tp811
F1
s(Vtried
g22
tp812
F3
s(Vsilence
g14
tp813
F1
s(g238
g629
tp814
F1
s(Vsimilar
S'JJ'
p815
tp816
F1
s(Vbox
g14
tp817
F1
s(Vday
g790
tp818
F5
s(Vreturned
g9
tp819
F3
s(g9
S'.'
tp820
F8
s(Vcousin
g14
tp821
F1
s(Vexactly
g44
tp822
F1
s(Vby
g601
tp823
F15
s(Vwent
g345
tp824
F4
s(Vback
g178
tp825
F1
s(Vconvenient
g32
tp826
F1
s(VTinkling
g56
tp827
F2
s(Vdishonoured
g22
tp828
F1
s(Vworry
g4
tp829
F1
s(Vto
g73
tp830
F71
s(VBride
g14
tp831
F2
s(g14
S','
tp832
F81
s(V,
S','
tp833
F249
s(g78
g44
tp834
F2
s(Vexchanged
g9
tp835
F2
s(S'CC'
p836
g4
tp837
F1
s(Vmakes
S'VBZ'
p838
tp839
F1
s(g32
g770
tp840
F1
s(Vmelancholy
g14
tp841
F1
s(Vloud
g32
tp842
F1
s(Vflag
g14
tp843
F2
s(Vdisgracefully
g44
tp844
F1
s(V''
g125
tp845
F82
s(Vbecause
g167
tp846
F2
s(Vlarge
S'JJ'
p847
tp848
F1
s(g5
g215
tp849
F2
s(Vthey
S'PRP'
p850
tp851
F11
s(VTinkling
g5
tp852
F6
s(g238
g44
tp853
F4
s(Vfor
g575
tp854
F15
s(VDie
g5
tp855
F1
s(Venthroned
g22
tp856
F1
s(Vfists
g78
tp857
F1
s(g14
S'('
tp858
F5
s(g101
S'RB'
p859
tp860
F11
s(g4
g779
tp861
F8
s(Vgallant
g32
tp862
F1
s(Vsewn
g22
tp863
F1
s(g238
g27
tp864
F2
s(Vdragged
g22
tp865
F1
s(g56
g5
tp866
F3
s(g48
g73
tp867
F3
s(Vninety
g22
tp868
F1
s(g564
g73
tp869
F2
s(Vmild
g32
tp870
F1
s(Vform
g14
tp871
F1
s(Vgentleman
g14
tp872
F1
s(VAnyhow
g5
tp873
F1
s(Vensued
g9
tp874
F1
s(g629
g9
tp875
F3
s(Vcannon
g14
tp876
F2
s(Vbeginning
g56
tp877
F1
s(g4
g86
tp878
F1
s(Vwho
g115
tp879
F8
s(g5
g159
tp880
F17
s(S','
g73
tp881
F2
s(Vsatisfaction
g14
tp882
F1
s(Vunited
g22
tp883
F1
s(Vturning
g56
tp884
F1
s(S','
S':'
tp885
F1
s(VFrom
g167
tp886
F1
s(S'NNP'
p887
g24
tp888
F24
s(Vus
S'PRP'
p889
tp890
F17
s(Vlovely
g32
tp891
F2
s(g68
S'PRP'
p892
tp893
F1
s(Vjacket
g14
tp894
F1
s(Vhis
S'PRP$'
p895
tp896
F29
s(Vdisturbed
g9
tp897
F1
s(Vreversed
g22
tp898
F1
s(Vsoul
g14
tp899
F1
s(Voff
g44
tp900
F1
s(Vunderstand
g4
tp901
F1
s(Vdeclaration
g14
tp902
F1
s(VThis
g593
tp903
F5
s(Vclear
g48
tp904
F1
s(S'('
g187
tp905
F2
s(VYou
g544
tp906
F5
s(Vasked
g9
tp907
F4
s(Vbag
g14
tp908
F1
s(VUnder
S'IN'
p909
tp910
F2
s(g238
g48
tp911
F3
s(g217
g217
tp912
F1
s(V'em
g37
tp913
F2
s(Vmet
g9
tp914
F1
s(g589
g78
tp915
F12
s(g4
g70
tp916
F1
s(Vlost
g22
tp917
F1
s(Vactive
S'JJ'
p918
tp919
F1
s(Velse
g44
tp920
F2
s(Vduty
g14
tp921
F2
s(g5
g351
tp922
F1
s(Vinvitation
g14
tp923
F1
s(Vbrook
g48
tp924
F1
s(Vsuppose
g48
tp925
F1
s(VConfusion
g5
tp926
F1
s(Vplayed
g9
tp927
F1
s(Vreplied
g9
tp928
F2
s(Vendeavours
g78
tp929
F1
s(VThere
g629
tp930
F5
s(Vdropped
g22
tp931
F1
s(Vwait
g14
tp932
F1
s(Vagain
g549
tp933
F1
s(Vdescried
g22
tp934
F1
s(VWho
g115
tp935
F1
s(Vtucked
g9
tp936
F1
s(g88
g30
tp937
F1
s(Vfair
g32
tp938
F2
s(g66
g32
tp939
F1
s(Vbuttoned
g22
tp940
F1
s(Vgone
S'VBN'
p941
tp942
F1
s(Vstupids
g78
tp943
F1
s(Vmanner
g14
tp944
F3
s(Vevidence
S'NN'
p945
tp946
F1
s(g66
g4
tp947
F3
s(g14
g142
tp948
F4
s(Vcourageous
g32
tp949
F1
s(Vshowed
g9
tp950
F2
s(g101
g30
tp951
F8
s(Vsolemn
g32
tp952
F1
s(Vparasol
g14
tp953
F1
s(VEngland
g887
tp954
F1
s(S'PRP'
p955
g9
tp956
F89
s(g94
S','
tp957
F1
s(Vmoody
g14
tp958
F1
s(g203
g86
tp959
F2
s(VRedforth
g14
tp960
F2
s(VHusband
g5
tp961
F1
s(VLieutenant-Colonel
g5
tp962
F1
s(Vhelp
g48
tp963
F2
s(Vgeneral
g32
tp964
F1
s(g11
g70
tp965
F1
s(Vpond
g14
tp966
F2
s(Vpieces
g78
tp967
F1
s(Vaccompanied
g22
tp968
F1
s(g14
g892
tp969
F7
s(Vremains
g72
tp970
F1
s(S'VBD'
p971
g136
tp972
F23
s(Vmust
g545
tp973
F9
s(Vhelps
g72
tp974
F1
s(g238
g56
tp975
F1
s(VHeavens
g72
tp976
F1
s(g37
g101
tp977
F1
s(Vdo
g4
tp978
F5
s(Vcopy
g48
tp979
F1
s(g37
g37
tp980
F3
s(Vcherry-wine
g14
tp981
F1
s(Vburst
g4
tp982
F1
s(Vmonarch
g14
tp983
F1
s(g164
g9
tp984
F3
s(Vsupported
g22
tp985
F1
s(g25
g14
tp986
F16
s(Vconsented
g9
tp987
F1
s(Vobedience
g14
tp988
F1
s(Vgiven
S'VBN'
p989
tp990
F1
s(Vguards
g78
tp991
F2
s(Vwillow-tree
g32
tp992
F2
s(Vbonnet
g14
tp993
F2
s(Vsang
g9
tp994
F1
s(Vlet
g48
tp995
F2
s(g892
g48
tp996
F6
s(Vexpressions
g78
tp997
F1
s(Vperiod
S'NN'
p998
tp999
F1
s(Vwriter
g14
tp1000
F2
s(VProject
g5
tp1001
F1
s(Vcatching
g56
tp1002
F1
s(Vpretending
g56
tp1003
F2
s(Vfrom
g589
tp1004
F8
s(Vpretty
g14
tp1005
F1
s(Vanguish
g14
tp1006
F1
s(Vthe
g92
tp1007
F198
s(Vbrow
g14
tp1008
F1
s(VI
g892
tp1009
F52
s(S'RB'
p1010
g30
tp1011
F1
s(g101
g115
tp1012
F1
s(Vwo
S'MD'
p1013
tp1014
F3
s(VBrides
g78
tp1015
F2
s(g711
S'('
tp1016
F1
s(VRedforth
g5
tp1017
F6
s(Vhobble
g32
tp1018
F1
s(Vcame
g632
tp1019
F4
s(Vthink
g4
tp1020
F1
s(g48
g5
tp1021
F1
s(Vterminated
g22
tp1022
F1
s(g22
S'.'
tp1023
F12
s(Vshared
g9
tp1024
F1
s(Vowed
g9
tp1025
F1
s(Vdefeat
g14
tp1026
F1
s(Vestablishment
g14
tp1027
F1
s(Vnow
g732
tp1028
F4
s(VAll
g164
tp1029
F1
s(g78
g5
tp1030
F1
s(Vpeerless
g32
tp1031
F1
s(g5
g779
tp1032
F4
s(S','
g109
tp1033
F19
s(Vhumanity
g14
tp1034
F1
s(VDrowvey
g5
tp1035
F6
s(Vdrank
g4
tp1036
F1
s(S','
g92
tp1037
F15
s(Vhold
g14
tp1038
F1
s(Vtask
g14
tp1039
F1
s(Vchristening
g56
tp1040
F1
s(Vbetween
S'IN'
p1041
tp1042
F3
s(Vtelling
g56
tp1043
F1
s(g115
g14
tp1044
F1
s(VPirate-Colonel
g5
tp1045
F6
s(S')'
g589
tp1046
F2
s(Vpretty
g44
tp1047
F2
s(g238
g5
tp1048
F9
s(S':'
g70
tp1049
F1
s(Vdetested
g32
tp1050
F1
s(Vplan
g14
tp1051
F1
s(g159
g5
tp1052
F4
s(Vsee
g48
tp1053
F1
s(g32
g217
tp1054
F3
s(Vgrass
g14
tp1055
F2
s(Vwives
g78
tp1056
F1
s(Vthan
g95
tp1057
F3
s(Vsay
g4
tp1058
F1
s(Vtill
g167
tp1059
F2
s(Vover
g167
tp1060
F2
s(Vfall
g14
tp1061
F1
s(Vbewilderment
g14
tp1062
F1
s(Vtwo
g131
tp1063
F6
s(Vdreaded
g32
tp1064
F1
s(g24
g238
tp1065
F3
s(g127
g167
tp1066
F2
s(g78
g4
tp1067
F8
s(VArchive/American
g5
tp1068
F1
s(g5
g14
tp1069
F1
s(Vrecognised
g9
tp1070
F1
s(Vadmitted
g9
tp1071
F1
s(g159
g660
tp1072
F12
s(Vsoleing
g14
tp1073
F1
s(g178
S','
tp1074
F4
s(g78
S','
tp1075
F17
s(g187
g14
tp1076
F150
s(g14
S'.'
tp1077
F89
s(Vturning
g14
tp1078
F1
s(Vwaist
g14
tp1079
F1
s(g215
g32
tp1080
F16
s(g73
g44
tp1081
F1
s(Vmeet
g48
tp1082
F1
s(Vadvancing
g56
tp1083
F1
s(Vpretty
g32
tp1084
F1
s(Vconsidered
g9
tp1085
F1
s(Vsubstitute
g14
tp1086
F1
s(Vled
g9
tp1087
F1
s(VSome
S'DT'
p1088
tp1089
F1
s(Vturned
g9
tp1090
F2
s(Vacknowledge
g4
tp1091
F2
s(g4
g207
tp1092
F7
s(S'NNP'
p1093
g711
tp1094
F2
s(Vchewing
g56
tp1095
F1
s(VShe
S'PRP'
p1096
tp1097
F2
s(Vhowever
S'RB'
p1098
tp1099
F2
s(Vblack
g243
tp1100
F2
s(g9
g187
tp1101
F52
s(Vhim
g744
tp1102
F8
s(Vis
g470
tp1103
F12
s(Vscene
g14
tp1104
F1
s(Vbranded
g32
tp1105
F1
s(Vwound
g48
tp1106
F1
s(Vjunction
g14
tp1107
F1
s(g44
S','
tp1108
F19
s(Vwaving
g56
tp1109
F1
s(Vnames
g44
tp1110
F1
s(Vat
g180
tp1111
F19
s(VFinding
g56
tp1112
F1
s(VDeath
g5
tp1113
F1
s(g37
g14
tp1114
F3
s(Vwithout
S'IN'
p1115
tp1116
F3
s(VCoward
g5
tp1117
F4
s(Vme
S'PRP'
p1118
tp1119
F21
s(g32
S','
tp1120
F12
s(VSeeing
g56
tp1121
F1
s(g37
S','
tp1122
F18
s(g238
g425
tp1123
F8
s(g5
S':'
tp1124
F2
s(Vslanderer
g14
tp1125
F1
s(Vbraced
g9
tp1126
F1
s(Vcorner-lamp-post
g14
tp1127
F2
s(VLet
g48
tp1128
F2
s(g593
g1098
tp1129
F3
s(Vpresent
g32
tp1130
F1
s(g48
g32
tp1131
F1
s(Vhip
g14
tp1132
F1
s(Vrose
g712
tp1133
F2
s(g73
S'NN'
p1134
tp1135
F4
s(Vprocession
g14
tp1136
F1
s(Vasked
g22
tp1137
F2
s(g629
S','
tp1138
F1
s(Vno
g164
tp1139
F8
s(Vbeauteous
g32
tp1140
F1
s(g366
S','
tp1141
F1
s(VWith
S'IN'
p1142
tp1143
F1
s(Vmournful
g32
tp1144
F1
s(Vmournfully
g44
tp1145
F1
s(g115
g9
tp1146
F5
s(V'ere
g410
tp1147
F1
s(Vgreen
g32
tp1148
F1
s(Vmade
g22
tp1149
F1
s(g14
g5
tp1150
F4
s(Vear
g14
tp1151
F1
s(Vthere
g410
tp1152
F3
s(Varmed
g22
tp1153
F1
s(Vthese
S'DT'
p1154
tp1155
F2
s(Vwrite
g9
tp1156
F1
s(Vaccount
g14
tp1157
F1
s(Vnose
g32
tp1158
F1
s(Vmisconduct
g14
tp1159
F1
s(g146
g5
tp1160
F7
s(Vannounce
g48
tp1161
F1
s(g9
g338
tp1162
F5
s(VNone
g14
tp1163
F1
s(g238
g4
tp1164
F3
s(g24
g393
tp1165
F21
s(VCut
g5
tp1166
F1
s(Vrepublished
g22
tp1167
F1
s(Veventful
g32
tp1168
F1
s(Vreal
g787
tp1169
F2
s(g5
g9
tp1170
F35
s(Vgift
g14
tp1171
F2
s(g238
g1096
tp1172
F20
s(g73
S'VB'
p1173
tp1174
F44
s(Vmy
g30
tp1175
F41
s(VOF
g5
tp1176
F1
s(g9
g78
tp1177
F4
s(g9
g30
tp1178
F17
s(Vbe
g1173
tp1179
F25
s(S'('
g136
tp1180
F3
s(Vcocoa-nut
g14
tp1181
F1
s(Vstories
g78
tp1182
F2
s(g164
S','
tp1183
F4
s(Vany
S'DT'
p1184
tp1185
F2
s(Vcomfortable
g32
tp1186
F1
s(Vrolled
g22
tp1187
F1
s(Vslowly
g44
tp1188
F1
s(Valways
S'RB'
p1189
tp1190
F2
s(Vsong
g14
tp1191
F1
s(Vpartner
S'NN'
p1192
tp1193
F1
s(Vbed
g14
tp1194
F1
s(Vpersisted
g9
tp1195
F1
s(Vtwice
g44
tp1196
F1
s(S','
g125
tp1197
F29
s(S':'
g115
tp1198
F1
s(Vsuggested
g9
tp1199
F1
s(g238
g127
tp1200
F4
s(VRainbird
g5
tp1201
F1
s(S'VBN'
p1202
g742
tp1203
F2
s(VYear
g14
tp1204
F2
s(Vcaptivity
g14
tp1205
F1
s(Vreclined
g22
tp1206
F1
s(S'VBP'
p1207
g92
tp1208
F3
s(VTinkling
g14
tp1209
F1
s(Vfirm
g14
tp1210
F1
s(VWO
g4
tp1211
F1
s(Vdear
g48
tp1212
F1
s(g125
g9
tp1213
F27
s(Vsoldier
g14
tp1214
F2
s(g101
g311
tp1215
F3
s(Vgoing
S'VBG'
p1216
tp1217
F4
s(Vin
g24
tp1218
F48
s(Vreprint
g14
tp1219
F1
s(VTRIAL
g5
tp1220
F1
s(Vhomes
S'NNS'
p1221
tp1222
F1
s(V``
g238
tp1223
F80
s(Vaunt
g14
tp1224
F2
s(Vround
g14
tp1225
F2
s(Vringing
g56
tp1226
F1
s(g5
S'('
tp1227
F2
s(g18
g11
tp1228
F1
s(Vechoed
g9
tp1229
F1
s(Vevening
g14
tp1230
F1
s(Vrush
g48
tp1231
F1
s(VBesides
g167
tp1232
F1
s(Vimmediately
S'RB'
p1233
tp1234
F2
s(g116
g151
tp1235
F6
s(Vover
g178
tp1236
F1
s(g92
g32
tp1237
F74
s(Vwalking
g56
tp1238
F1
s(Vbeing
g351
tp1239
F6
s(Vmine
g48
tp1240
F1
s(Vlawless
g14
tp1241
F2
s(Vlove
g48
tp1242
F2
s(g48
g178
tp1243
F6
s(g48
g9
tp1244
F1
s(Vsaid
g971
tp1245
F29
s(VInternet
g5
tp1246
F1
s(VLuna
g5
tp1247
F1
s(g56
S'.'
tp1248
F4
s(g9
S','
tp1249
F14
s(g92
g56
tp1250
F2
s(Veach
S'DT'
p1251
tp1252
F1
s(Vhair
g14
tp1253
F2
s(g238
g14
tp1254
F5
s(Videntified
g22
tp1255
F1
s(Vhers
g78
tp1256
F1
s(Vglassful
g32
tp1257
F1
s(Vback
g14
tp1258
F2
s(VAgain
g14
tp1259
F1
s(VColonel
g5
tp1260
F40
s(Vsilver
g14
tp1261
F1
s(Vyou
g109
tp1262
F17
s(Vfull-length
g32
tp1263
F1
s(Vleaves
g78
tp1264
F1
s(Vjudges
g42
tp1265
F1
s(g1173
g413
tp1266
F4
s(Vbegin
g48
tp1267
F1
s(Vshabby
g32
tp1268
F1
s(g178
g48
tp1269
F1
s(Vthat
g167
tp1270
F27
s(g178
S')'
tp1271
F1
s(Vowed
g22
tp1272
F1
s(g5
g32
tp1273
F1
s(VEditor
g5
tp1274
F1
s(Vbell
g14
tp1275
F1
s(Vheld
g22
tp1276
F1
s(S','
g18
tp1277
F2
s(g92
g68
tp1278
F2
s(Vwritten
g1202
tp1279
F3
s(VStates
g711
tp1280
F2
s(g235
g207
tp1281
F2
s(Vequally
g44
tp1282
F1
s(g78
g9
tp1283
F7
s(Vparting
g14
tp1284
F1
s(Vbehind
g167
tp1285
F4
s(Vsingle
S'JJ'
p1286
tp1287
F1
s(g48
g241
tp1288
F2
s(Vhand
g1134
tp1289
F7
s(Vclaiming
g56
tp1290
F1
s(V's
g72
tp1291
F4
s(Vtraced
g22
tp1292
F1
s(VWas
g5
tp1293
F3
s(Vscorn
g32
tp1294
F1
s(g712
g101
tp1295
F1
s(Vthough
g167
tp1296
F2
s(g22
g44
tp1297
F9
s(Vthose
S'DT'
p1298
tp1299
F1
s(g66
S'.'
tp1300
F1
s(Vglances
g78
tp1301
F2
s(VPlease
g48
tp1302
F1
s(Vmalignant
g32
tp1303
F1
s(Vinformed
g9
tp1304
F1
s(g86
g115
tp1305
F1
s(Vbut
g108
tp1306
F17
s(g238
g78
tp1307
F1
s(g32
g22
tp1308
F2
s(VTHE
g164
tp1309
F1
s(VLife
g5
tp1310
F1
s(VAll
g27
tp1311
F2
s(g5
g73
tp1312
F4
s(Vlawless
g32
tp1313
F1
s(V?
S'.'
tp1314
F38
s(g48
S':'
tp1315
F3
s(S','
g56
tp1316
F6
s(Vn't
g257
tp1317
F19
s(g22
g9
tp1318
F1
s(Vsoothing
g56
tp1319
F1
s(Vbeams
g14
tp1320
F1
s(g531
g44
tp1321
F3
s(Vleft
g9
tp1322
F1
s(g229
g73
tp1323
F1
s(VVain
g14
tp1324
F1
s(Vclenched
g9
tp1325
F1
s(Vobstinate
g32
tp1326
F1
s(Vtoo
g248
tp1327
F2
s(VSpanish
g32
tp1328
F1
s(VAt
g313
tp1329
F3
s(g78
S'('
tp1330
F2
s(Vprompting
g56
tp1331
F1
s(VBy
S'IN'
p1332
tp1333
F1
s(V_is_
g9
tp1334
F1
s(Vmost
g366
tp1335
F3
s(VEducate
g48
tp1336
F1
s(Vpleaded
g9
tp1337
F1
s(g178
g30
tp1338
F2
s(Vmoonlight
g14
tp1339
F1
s(Vthen
S'RB'
p1340
tp1341
F7
s(Vthrew
g9
tp1342
F1
s(g70
g78
tp1343
F6
s(Vdifficulty
g14
tp1344
F1
s(g5
g78
tp1345
F1
s(Vboots
g78
tp1346
F1
s(Vhinting
g56
tp1347
F1
s(S'DT'
p1348
g168
tp1349
F2
s(g217
S')'
tp1350
F1
s(Vstill
g1010
tp1351
F3
s(g343
g238
tp1352
F1
s(Vwhich
g18
tp1353
F3
s(Vgreat-uncle
g32
tp1354
F1
s(g14
g94
tp1355
F1
s(VHah
g14
tp1356
F3
s(Vproceedings
g78
tp1357
F2
s(VChopper
g5
tp1358
F2
s(Vabout
g167
tp1359
F5
s(Vhead
g14
tp1360
F4
s(Vfront
g14
tp1361
F1
s(g5
g1010
tp1362
F5
s(S','
g108
tp1363
F66
s(S'.'
S')'
tp1364
F2
s(S','
g5
tp1365
F11
s(g159
g44
tp1366
F1
s(Vheeling
g14
tp1367
F1
s(Vlanguage
S'NN'
p1368
tp1369
F1
s(Vstick
g48
tp1370
F1
s(V_his_
g5
tp1371
F1
s(g127
g37
tp1372
F4
s(S'.'
g125
tp1373
F46
s(VBe
g5
tp1374
F1
s(Vcourt
S'NN'
p1375
tp1376
F7
s(Vmuttered
g9
tp1377
F1
s(g325
g22
tp1378
F2
s(Vdie
g48
tp1379
F1
s(Vmarriage
g14
tp1380
F1
s(Vsomething
g162
tp1381
F3
s(g14
g9
tp1382
F20
s(g101
g48
tp1383
F5
s(g562
g815
tp1384
F8
s(Vaged
g22
tp1385
F1
s(S','
g14
tp1386
F6
s(g5
g48
tp1387
F1
s(S')'
g73
tp1388
F1
s(Vtrousers-pocket
g14
tp1389
F1
s(Vrefusal
g14
tp1390
F1
s(g73
S'.'
tp1391
F1
s(V!
S'.'
tp1392
F14
s(Vopinion
g437
tp1393
F2
s(Vwrite
g48
tp1394
F1
s(Vguilty
S'JJ'
p1395
tp1396
F1
s(Vstooped
g9
tp1397
F1
s(g14
g859
tp1398
F8
s(Vmade
g9
tp1399
F5
s(V'Ere
g167
tp1400
F1
s(Vobject
g48
tp1401
F1
s(Vcrying
g14
tp1402
F1
s(g167
g101
tp1403
F1
s(Vnever
S'RB'
p1404
tp1405
F1
s(Vhave
g4
tp1406
F7
s(Vconstant
g32
tp1407
F2
s(Vway
g729
tp1408
F6
s(Veditor
S'NN'
p1409
tp1410
F1
s(Veditions
g78
tp1411
F1
s(g1013
g257
tp1412
F15
s(Vapproached
g9
tp1413
F1
s(Vface
g14
tp1414
F1
s(Vplace
g14
tp1415
F1
s(g238
g72
tp1416
F3
s(Vwhile
g167
tp1417
F1
s(Vsoon
S'RB'
p1418
tp1419
F2
s(g14
g101
tp1420
F15
s(g14
g78
tp1421
F3
s(VLet
g5
tp1422
F1
s(Vfound
g22
tp1423
F6
s(VTINKLING
g5
tp1424
F1
s(g5
g470
tp1425
F2
s(VChapman
g5
tp1426
F1
s(VIt
g955
tp1427
F14
s(Vbusiness
S'NN'
p1428
tp1429
F1
s(V2
S'CD'
p1430
tp1431
F1
s(Vescaped
g22
tp1432
F1
s(g303
g127
tp1433
F1
s(Vappeared
g9
tp1434
F4
s(g167
g73
tp1435
F4
s(Vhated
g32
tp1436
F1
s(Vshade
g14
tp1437
F1
s(S'('
g115
tp1438
F1
s(g168
g18
tp1439
F1
s(Vdeserted
g32
tp1440
F1
s(Vrolled
g9
tp1441
F1
s(Vjust
S'RB'
p1442
tp1443
F1
s(Vinflammation
g14
tp1444
F1
s(Vsupper
g14
tp1445
F1
s(Vlook
g48
tp1446
F1
s(Vstoney
g14
tp1447
F2
s(Vqueen
g32
tp1448
F1
s(g78
S'.'
tp1449
F15
s(Vlittle
g32
tp1450
F5
s(g9
g5
tp1451
F9
s(VEditor
g14
tp1452
F1
s(Vforgot
g32
tp1453
F1
s(Vsent
g22
tp1454
F1
s(Vcommand
g14
tp1455
F1
s(S','
g562
tp1456
F33
s(Vking
g32
tp1457
F1
s(S':'
g109
tp1458
F3
s(g404
g115
tp1459
F2
s(g257
S'.'
tp1460
F10
s(g370
g5
tp1461
F85
s(VEach
g1348
tp1462
F1
s(Vparting
g56
tp1463
F1
s(VWednesday
S'NNP'
p1464
tp1465
F1
s(Vthat
g18
tp1466
F4
s(Vwhisper
g14
tp1467
F1
s(g215
g56
tp1468
F1
s(g159
S','
tp1469
F1
s(Vdirectly
S'RB'
p1470
tp1471
F2
s(S'VBD'
p1472
g14
tp1473
F8
s(VChristmas
g5
tp1474
F1
s(g159
g73
tp1475
F1
s(Vmentioned
g22
tp1476
F2
s(Vold
S'JJ'
p1477
tp1478
F2
s(Vcane
g14
tp1479
F1
s(g629
g470
tp1480
F1
s(Vimages
g78
tp1481
F1
s(g159
g351
tp1482
F1
s(Vhimself
S'PRP'
p1483
tp1484
F4
s(g470
g92
tp1485
F8
s(Vwanted
g9
tp1486
F2
s(Vfirst
g44
tp1487
F2
s(g5
g115
tp1488
F2
s(Vfar
g295
tp1489
F2
s(VMa
g5
tp1490
F1
s(VDickens
g5
tp1491
F2
s(Vproposed
g22
tp1492
F1
s(Vor
g799
tp1493
F15
s(Vup
g178
tp1494
F10
s(Vcarried
g9
tp1495
F1
s(Vhome
g14
tp1496
F1
s(Vmouth
g14
tp1497
F1
s(Vrise
g14
tp1498
F1
s(Vboth
g164
tp1499
F1
s(g127
g56
tp1500
F1
s(Videa
S'NN'
p1501
tp1502
F2
s(g1173
g1202
tp1503
F25
s(Vvalour
g14
tp1504
F1
s(g564
g892
tp1505
F2
s(g1154
g153
tp1506
F1
s(Vgot
g22
tp1507
F2
s(Vunlooked-for
g32
tp1508
F1
s(Vand
g101
tp1509
F90
s(Vturning-point
g14
tp1510
F1
s(Vperson
S'NN'
p1511
tp1512
F1
s(g1173
g56
tp1513
F1
s(S':'
g125
tp1514
F1
s(Vspectacles
g78
tp1515
F2
s(VHoliday
g32
tp1516
F2
s(Vourselves
g78
tp1517
F1
s(g32
g73
tp1518
F1
s(Vawaited
g9
tp1519
F1
s(Vloaded
g22
tp1520
F1
s(Vshades
g78
tp1521
F1
s(g9
g24
tp1522
F31
s(Vpaper-knife
g14
tp1523
F1
s(Vjobbing-tailor
g14
tp1524
F1
s(Vsentence
g14
tp1525
F1
s(g9
g971
tp1526
F2
s(Vher
g37
tp1527
F2
s(Vbride
g14
tp1528
F3
s(g44
S':'
tp1529
F1
s(Vhalf
g27
tp1530
F1
s(Vceremony
g14
tp1531
F1
s(Vfree
g32
tp1532
F2
s(Vfilled
g22
tp1533
F1
s(g382
g32
tp1534
F2
s(g1395
S':'
tp1535
F3
s(Vdrank
g9
tp1536
F1
s(Varms
g78
tp1537
F2
s(Vinclined
g32
tp1538
F1
s(Vfoe
g14
tp1539
F3
s(Vfamily
S'NN'
p1540
tp1541
F1
s(V(
S'('
tp1542
F11
s(Vfight
g9
tp1543
F1
s(g37
g73
tp1544
F6
s(g1184
g94
tp1545
F1
s(Vseveral
S'JJ'
p1546
tp1547
F1
s(g955
g470
tp1548
F10
s(VCut
g48
tp1549
F1
s(Vbesides
g167
tp1550
F1
s(g48
g799
tp1551
F2
s(g178
g127
tp1552
F1
s(g86
g142
tp1553
F1
s(g215
g164
tp1554
F2
s(Vback
g44
tp1555
F3
s(Vlooking-glass
g14
tp1556
F1
s(g1404
g343
tp1557
F1
s(Vstrictly
g44
tp1558
F1
s(Vseize
g48
tp1559
F1
s(VAs
g167
tp1560
F2
s(g78
g178
tp1561
F1
s(VRobin
g5
tp1562
F1
s(Vact
g48
tp1563
F1
s(Vabruptly
g44
tp1564
F1
s(Vthrow
g48
tp1565
F1
s(Vgenerously
g44
tp1566
F1
s(V&
g146
tp1567
F1
s(g238
g164
tp1568
F5
s(g48
g14
tp1569
F3
s(g44
g382
tp1570
F2
s(Vlooking
S'VBG'
p1571
tp1572
F1
s(Vshabby
g14
tp1573
F1
s(Vabandoned
g22
tp1574
F1
s(V_I_
g14
tp1575
F1
s(Vinquiry
g14
tp1576
F1
s(Vring
g14
tp1577
F1
s(Vbelow
g167
tp1578
F1
s(VThrough
g167
tp1579
F1
s(g207
g22
tp1580
F5
s(g580
S','
tp1581
F2
s(g44
g14
tp1582
F4
s(g593
g470
tp1583
F1
s(Vteeth
g78
tp1584
F1
s(g95
g115
tp1585
F1
s(VWhen
g232
tp1586
F2
s(Vtoy-shop
g14
tp1587
F1
s(g115
g1013
tp1588
F1
s(Vtiny
g32
tp1589
F1
s(VLibraries
g5
tp1590
F1
s(g44
g178
tp1591
F1
s(Vere
g44
tp1592
F1
s(Vblooming
g56
tp1593
F1
s(VWILL
g5
tp1594
F1
s(VAshford
g5
tp1595
F2
s(Vlavender
g14
tp1596
F2
s(Vservants
g78
tp1597
F1
s(Vknow
g4
tp1598
F3
s(Voff
g178
tp1599
F1
s(g18
g470
tp1600
F1
s(Vexpected
g9
tp1601
F1
s(Vanything
g552
tp1602
F2
s(S':'
g9
tp1603
F1
s(g167
g37
tp1604
F56
s(VMe
g5
tp1605
F1
s(Vpalings
g78
tp1606
F1
s(Vsketch
g14
tp1607
F1
s(Vfought
g4
tp1608
F1
s(Vpart
g390
tp1609
F2
s(g37
g167
tp1610
F14
s(Vtied
g9
tp1611
F1
s(g1430
g5
tp1612
F1
s(g48
g435
tp1613
F10
s(g4
S'.'
tp1614
F1
s(g5
g5
tp1615
F26
s(VAdmiral
g5
tp1616
F6
s(g410
g44
tp1617
F1
s(g410
g167
tp1618
F1
s(Vrecreant
g14
tp1619
F1
s(Veverything
S'NN'
p1620
tp1621
F1
s(VAlice
g5
tp1622
F15
s(Vnext
g32
tp1623
F3
s(S'VBP'
p1624
g267
tp1625
F1
s(Vremain
g48
tp1626
F1
s(VCourt
S'NNP'
p1627
tp1628
F2
s(Vengagement
g14
tp1629
F4
s(VQuite
g44
tp1630
F1
s(Vstomach
g14
tp1631
F1
s(Vvoice
g14
tp1632
F2
s(Vboy
g14
tp1633
F1
s(g14
g22
tp1634
F6
s(g73
g92
tp1635
F11
s(VCall
g564
tp1636
F1
s(Vlonger
g382
tp1637
F2
s(g1173
g382
tp1638
F1
s(Vsuppose
g4
tp1639
F1
s(V1868
g217
tp1640
F1
s(Vcomes
g116
tp1641
F3
s(g562
g1202
tp1642
F4
s(Vit
g37
tp1643
F33
s(g101
g56
tp1644
F9
s(Vpenalty
g14
tp1645
F2
s(Vfour
g70
tp1646
F9
s(Vwhiten
g48
tp1647
F1
s(Vundertook
g48
tp1648
F1
s(Vensign
g14
tp1649
F2
s(Vnearer
g14
tp1650
F1
s(VNot
S'RB'
p1651
tp1652
F2
s(Vpublished
g22
tp1653
F2
s(S':'
g48
tp1654
F1
s(g14
g56
tp1655
F4
s(VN'T
g5
tp1656
F1
s(VWaving
g56
tp1657
F1
s(Vsome
S'DT'
p1658
tp1659
F5
s(g14
g470
tp1660
F5
s(g215
g24
tp1661
F1
s(Veight
g194
tp1662
F1
s(Vpuppy
g32
tp1663
F1
s(g22
g1395
tp1664
F1
s(Voutlawed
g32
tp1665
F1
s(Vnext
g167
tp1666
F1
s(Vwhere
g531
tp1667
F2
s(VSo
g44
tp1668
F3
s(g732
g4
tp1669
F1
s(Vitself
S'PRP'
p1670
tp1671
F1
s(Vare
g1624
tp1672
F5
s(Vanother
S'DT'
p1673
tp1674
F2
s(g125
g238
tp1675
F1
s(g48
S','
tp1676
F12
s(Vabove
g167
tp1677
F2
s(VNo
g164
tp1678
F2
s(Vposition
S'NN'
p1679
tp1680
F2
s(Vtook
g1472
tp1681
F5
s(g72
g30
tp1682
F3
s(Veffected
g22
tp1683
F1
s(g131
g101
tp1684
F1
s(Vcut
g48
tp1685
F2
s(Vthat
g164
tp1686
F11
s(Vsky
g14
tp1687
F1
s(Vtold
g22
tp1688
F1
s(Vapply
g48
tp1689
F1
s(g72
g787
tp1690
F1
s(Vought
g564
tp1691
F3
s(Vyourself
g37
tp1692
F1
s(Vdisgrace
g14
tp1693
F1
s(Vcuffs
g78
tp1694
F1
s(V_We_
g14
tp1695
F1
s(g207
g73
tp1696
F6
s(Vas
g167
tp1697
F12
s(g343
g164
tp1698
F1
s(VCharles
S'NNP'
p1699
tp1700
F1
s(g187
g267
tp1701
F19
s(Vcomplained
g9
tp1702
F2
s(g56
g562
tp1703
F12
s(g22
g27
tp1704
F1
s(Vcow
g14
tp1705
F1
s(Vof
g168
tp1706
F72
s(Vmean
g48
tp1707
F1
s(Vduring
S'IN'
p1708
tp1709
F1
s(Vstood
g9
tp1710
F1
s(Vstring
g14
tp1711
F1
s(g178
g73
tp1712
F2
s(g525
S','
tp1713
F1
s(Vunless
S'IN'
p1714
tp1715
F2
s(Vher
g215
tp1716
F11
s(g22
g18
tp1717
F1
s(Vpulling
g56
tp1718
F1
s(Vperceived
g9
tp1719
F1
s(Vignoble
g32
tp1720
F1
s(Vtone
g14
tp1721
F1
s(Vcoward
g14
tp1722
F1
s(Vmuffled
g22
tp1723
F1
s(g78
g131
tp1724
F1
s(g37
S'.'
tp1725
F16
s(Vended
g22
tp1726
F1
s(Vsecond-hand
g14
tp1727
F1
s(Vtimes
g78
tp1728
F3
s(g892
g398
tp1729
F1
s(Vundignified
g32
tp1730
F1
s(Vcircumstances
g372
tp1731
F1
s(Veducate
g14
tp1732
F1
s(Vupside
g44
tp1733
F1
s(Vlot
g14
tp1734
F1
s(Vyet
g44
tp1735
F3
s(VUnited
g1093
tp1736
F2
s(g27
g92
tp1737
F5
s(Vcomposing
g56
tp1738
F1
s(Vreply
g48
tp1739
F1
s(Vgo
g48
tp1740
F4
s(Vright
g14
tp1741
F1
s(g382
g48
tp1742
F3
s(g9
g1216
tp1743
F4
s(g14
S')'
tp1744
F4
s(Vwarriors
g78
tp1745
F2
s(Ventitled
g22
tp1746
F1
s(Vdid
g446
tp1747
F3
s(g564
S','
tp1748
F2
s(VNay
g5
tp1749
F1
s(Vconsider
g48
tp1750
F1
s(Vgrown-up
g32
tp1751
F8
s(Vremonstrating
g56
tp1752
F1
s(Vattacked
g9
tp1753
F1
s(Varrived
g9
tp1754
F1
s(Vchristened
g22
tp1755
F1
s(Vfriend
g14
tp1756
F2
s(Vspectacle
g14
tp1757
F1
s(Vshaking
g56
tp1758
F1
s(Vpaper
g98
tp1759
F5
s(VCourt-Martial
g32
tp1760
F1
s(Vforth
g14
tp1761
F1
s(Vpoor
g176
tp1762
F1
s(S':'
g101
tp1763
F6
s(Valso
g859
tp1764
F5
s(g1624
g32
tp1765
F1
s(S':'
g229
tp1766
F4
s(VWilliam
S'NNP'
p1767
tp1768
F5
s(Vplease
g14
tp1769
F2
s(Vwithdraw
g48
tp1770
F1
s(Vhardly
g44
tp1771
F1
s(Vdissolved
g9
tp1772
F1
s(Vwicked
g32
tp1773
F2
s(g115
g136
tp1774
F3
s(Vif
S'IN'
p1775
tp1776
F4
s(Vtumultuously
g44
tp1777
F1
s(VNettie
g5
tp1778
F7
s(Vmind
g48
tp1779
F1
s(g78
S':'
tp1780
F3
s(Vmerry
g14
tp1781
F2
s(Vwas
g9
tp1782
F43
s(Voriginally
g44
tp1783
F1
s(Vbrought
g22
tp1784
F3
s(Vlook
g14
tp1785
F1
s(Vsufferings
g78
tp1786
F1
s(VAny
g164
tp1787
F2
s(Vprodigies
g78
tp1788
F1
s(S','
g238
tp1789
F21
s(Vdejection
g14
tp1790
F1
s(Vtried
g9
tp1791
F1
s(Vcourt-martial
g32
tp1792
F1
s(g115
g167
tp1793
F1
s(g366
g32
tp1794
F2
s(g73
g1118
tp1795
F4
s(Vpartnership
S'NN'
p1796
tp1797
F1
s(S'('
g325
tp1798
F1
s(Vvery
g44
tp1799
F2
s(Vglad
g32
tp1800
F1
s(g72
S','
tp1801
F4
s(Vbaby-brother
g14
tp1802
F1
s(Vbefore
g167
tp1803
F3
s(VBut
g836
tp1804
F5
s(Vears
g78
tp1805
F2
s(Vate
g48
tp1806
F1
s(Vfemale
g32
tp1807
F2
s(Vhad
g9
tp1808
F29
s(Vam
g1207
tp1809
F3
s(Vleast
g68
tp1810
F1
s(Vbark
g14
tp1811
F1
s(Vacknowledge
g48
tp1812
F1
s(g178
g1010
tp1813
F1
s(S'('
g22
tp1814
F1
s(Vuse
g14
tp1815
F1
s(Vtremendous
g32
tp1816
F1
s(VPirate
g5
tp1817
F3
s(g178
g187
tp1818
F5
s(Vfirst
g32
tp1819
F4
s(Vspared
g22
tp1820
F1
s(Vknew
g9
tp1821
F2
s(Vanswer
g48
tp1822
F1
s(VWilkingwater
g5
tp1823
F1
s(g101
g73
tp1824
F1
s(Vafterwards
g78
tp1825
F2
s(Vthis
g365
tp1826
F6
s(VTwo
S'CD'
p1827
tp1828
F1
s(g146
g142
tp1829
F4
s(Vbeginning-part
g14
tp1830
F3
s(g159
g78
tp1831
F1
s(Vout
g167
tp1832
F4
s(Vhusband
g14
tp1833
F1
s(Vpinafores
g78
tp1834
F1
s(Vretorted
g9
tp1835
F2
s(g48
g115
tp1836
F2
s(g365
g101
tp1837
F1
s(g48
g317
tp1838
F7
s(Vpurpose
g14
tp1839
F1
s(Vembraced
g9
tp1840
F3
s(Vstones
g78
tp1841
F1
s(VDungeons
g5
tp1842
F1
s(g9
S':'
tp1843
F2
s(Vonly
g44
tp1844
F3
s(g164
S':'
tp1845
F2
s(S')'
g9
tp1846
F4
s(Vrejoicing
g14
tp1847
F1
s(Vtrue
S'JJ'
p1848
tp1849
F2
s(g164
g1173
tp1850
F1
s(g1464
S','
tp1851
F38
s(S':'
g14
tp1852
F4
s(Vas
g44
tp1853
F1
s(VWILLIAM
g5
tp1854
F1
s(Vdeadliest
g68
tp1855
F1
s(Vasks
g72
tp1856
F1
s(g238
g66
tp1857
F2
s(g48
g68
tp1858
F1
s(Vwait
g48
tp1859
F4
s(VBang
g5
tp1860
F1
s.