ccollections
defaultdict
p1
(c__builtin__
float
p2
tRp3
(VYes
S'UH'
p4
tp5
F1
s(Vcourse
S'NN'
p6
tp7
F2
s(VWould
S'MD'
p8
tp9
F1
s(Vwe
S'PRP'
p10
tp11
F2
s(Vproud
S'JJ'
p12
tp13
F1
s(Vdo
S'VBP'
p14
tp15
F14
s(Vasylums
S'NNS'
p16
tp17
F1
s(Vtwenty-nine
S'NN'
p18
tp19
F1
s(Vjust
S'RB'
p20
tp21
F5
s(Vbelieve
S'VB'
p22
tp23
F1
s(VYoung
S'NNP'
p24
tp25
F1
s(VGee
g24
tp26
F1
s(Vlovely
S'RB'
p27
tp28
F1
s(Vtogether
g27
tp29
F1
s(Vyoung
S'JJ'
p30
tp31
F1
s(Vman
S'NN'
p32
tp33
F8
s(VA
S'DT'
p34
tp35
F9
s(VTermination
g24
tp36
F4
s(Vmoved
S'VBN'
p37
tp38
F2
s(Vforty
S'CD'
p39
tp40
F1
s(Vsnipper
g18
tp41
F1
s(VHappy
g12
tp42
F1
s(Vpaved
g37
tp43
F1
s(Vsimplicity
g18
tp44
F1
s(Vplanted
g12
tp45
F1
s(Vlike
S'IN'
p46
tp47
F11
s(Vcontrol
g18
tp48
F3
s(VR
g24
tp49
F3
s(Vthirty-five
g12
tp50
F1
s(Vput
g22
tp51
F1
s(Vroomy
g18
tp52
F1
s(VIn
g46
tp53
F2
s(Vinsane
g18
tp54
F1
s(Vpruner
g18
tp55
F1
s(Vwarm
g12
tp56
F1
s(Vrecruited
g37
tp57
F1
s(Vknobs
g18
tp58
F1
s(VTo
S'TO'
p59
tp60
F1
s(Vthat
S'WDT'
p61
tp62
F9
s(Vever
S'RB'
p63
tp64
F1
s(Vpainting
S'VBG'
p65
tp66
F1
s(VShe
S'PRP'
p67
tp68
F4
s(Vsolved
S'VBD'
p69
tp70
F1
s(Vmean
g14
tp71
F1
s(Vfloor
S'NN'
p72
tp73
F1
s(Vfigure
g18
tp74
F2
s(Vturnstile
g18
tp75
F1
s(Vtanned
g12
tp76
F1
s(Vair
g18
tp77
F2
s(Vobscenity
g18
tp78
F1
s(Vcalled
g37
tp79
F4
s(Vhundred
g39
tp80
F3
s(Vprisons
g16
tp81
F1
s(Vsmall
S'JJ'
p82
tp83
F1
s(Vbleakly
g18
tp84
F1
s(Vmock
g18
tp85
F1
s(VThink
g18
tp86
F1
s(Vthought
g18
tp87
F1
s(Vtowered
g69
tp88
F1
s(Vmiddle
g18
tp89
F1
s(Vkeep
g22
tp90
F1
s(VJapan
S'NNP'
p91
tp92
F1
s(VSkip
g22
tp93
F1
s(Vstalks
g16
tp94
F1
s(Vofficial
g12
tp95
F1
s(Vfrom
S'IN'
p96
tp97
F6
s(Vold
S'JJ'
p98
tp99
F10
s(Vbecame
S'VBD'
p100
tp101
F2
s(Vdrupelets
g16
tp102
F1
s(VHe
S'PRP'
p103
tp104
F24
s(Vsaluted
g69
tp105
F1
s(VK.
g24
tp106
F2
s(VAutomat
g24
tp107
F1
s(Vtaking
g65
tp108
F1
s(Vgently
g27
tp109
F1
s(Vthe
S'DT'
p110
tp111
F112
s(Vhunched
g37
tp112
F1
s(Vpondered
g69
tp113
F1
s(Vwith
S'IN'
p114
tp115
F13
s(VI
S'PRP'
p116
tp117
F35
s(Vadmire
g22
tp118
F2
s(Vpictures
g16
tp119
F1
s(Vhimself
S'PRP'
p120
tp121
F4
s(VWhat
S'WP'
p122
tp123
F8
s(Vgenerations
g16
tp124
F1
s(Vbeings
g16
tp125
F1
s(Vnurses
g16
tp126
F1
s(Vleave
g14
tp127
F1
s(Vdead
g12
tp128
F2
s(V'm
S'VBP'
p129
tp130
F6
s(Vhow
S'WRB'
p131
tp132
F1
s(Vago
g27
tp133
F1
s(Vforever
g18
tp134
F1
s(Vor
S'CC'
p135
tp136
F6
s(Vdelight
g18
tp137
F1
s(Vwo
S'MD'
p138
tp139
F1
s(Vup
S'RP'
p140
tp141
F6
s(Vcarried
g69
tp142
F1
s(Vsurvivors
g16
tp143
F1
s(Vmumbled
g69
tp144
F1
s(Vfaceless
g12
tp145
F2
s(Vgives
S'VBZ'
p146
tp147
F1
s(Vthanks
g16
tp148
F5
s(Vraising
g65
tp149
F1
s(Vsaw
g69
tp150
F2
s(Vcame
S'VBD'
p151
tp152
F3
s(VDr.
S'NNP'
p153
tp154
F17
s(VMr.
S'NNP'
p155
tp156
F3
s(Vorderly
g12
tp157
F10
s(Vthink
g14
tp158
F4
s(Vtriplets
g16
tp159
F4
s(Vmustaches
g16
tp160
F1
s(Vmade
g69
tp161
F3
s(Videa
S'NN'
p162
tp163
F2
s(Vseedlings
g16
tp164
F1
s(Vsouls
g16
tp165
F1
s(Vmore
S'RBR'
p166
tp167
F2
s(Vrevealed
g37
tp168
F1
s(Vcity
S'NN'
p169
tp170
F1
s(Vcenturies
g16
tp171
F2
s(Vgirl
g18
tp172
F1
s(Vnow
S'RB'
p173
tp174
F2
s(VAll
g34
tp175
F5
s(Vbright
g12
tp176
F1
s(Vtrash-burners
g16
tp177
F1
s(VEdward
S'NNP'
p178
tp179
F2
s(Vgoing
S'VBG'
p180
tp181
F5
s(Vsixty
g22
tp182
F1
s(Vtop
g18
tp183
F1
s(Vnaught
g12
tp184
F1
s(Vplease
g14
tp185
F1
s(Vgot
g37
tp186
F1
s(Vlovin
g18
tp187
F1
s(Vmore
S'JJR'
p188
tp189
F7
s(Vkids
g16
tp190
F1
s(Vimagine
g22
tp191
F1
s(Vpronounced
g69
tp192
F1
s(Vuncover
g22
tp193
F1
s(Vsprayed
g69
tp194
F1
s(Vand
S'CC'
p195
tp196
F38
s(Vlike
g22
tp197
F4
s(Vplants
S'NNS'
p198
tp199
F1
s(Vdo
g22
tp200
F5
s(Vsitting
g65
tp201
F1
s(Vgood
g12
tp202
F4
s(Vcan
S'MD'
p203
tp204
F1
s(Vstrikes
S'VBZ'
p205
tp206
F1
s(Vheard
g69
tp207
F2
s(VBut
S'CC'
p208
tp209
F2
s(Vdecide
g14
tp210
F2
s(Vnewborn
g12
tp211
F1
s(Vnamed
g37
tp212
F1
s(Vlittle
g12
tp213
F3
s(Vfill
g22
tp214
F1
s(VYour
S'PRP$'
p215
tp216
F1
s(Vlegal
S'JJ'
p217
tp218
F1
s(Vkind
S'NN'
p219
tp220
F1
s(Vhoarsely
g27
tp221
F1
s(Vcopyright
g18
tp222
F1
s(Vdoctors
g16
tp223
F1
s(Vanswers
g16
tp224
F1
s(Vcorner
g18
tp225
F1
s(Vcarefully
g27
tp226
F1
s(Vwhen
S'WRB'
p227
tp228
F4
s(Vgloomy
g12
tp229
F1
s(Vdropcloth
g18
tp230
F1
s(VCannery
g24
tp231
F1
s(VMother
g24
tp232
F1
s(Vmuralist
g18
tp233
F1
s(Vsatiric
g12
tp234
F1
s(Vdried
g12
tp235
F1
s(Vnothing
S'NN'
p236
tp237
F1
s(Vwould
S'MD'
p238
tp239
F12
s(Vprove
g14
tp240
F1
s(Vget
g14
tp241
F1
s(Vhandsome
g12
tp242
F1
s(VDo
g14
tp243
F1
s(Vsay
g14
tp244
F2
s(Vwere
S'VBD'
p245
tp246
F12
s(Vlooked
g69
tp247
F2
s(Veven
g27
tp248
F3
s(Vstripling
g18
tp249
F1
s(Vright
g18
tp250
F3
s(VGood
g12
tp251
F2
s(Vsee
g22
tp252
F3
s(Vmight
S'MD'
p253
tp254
F1
s(Vchoice
S'NN'
p255
tp256
F1
s(Vinsisted
g37
tp257
F1
s(Vafter
S'IN'
p258
tp259
F2
s(Vstrode
g18
tp260
F1
s(Vthan
S'IN'
p261
tp262
F4
s(Vheaven
g16
tp263
F1
s(Vcoarse
g18
tp264
F1
s(Vfall
g18
tp265
F1
s(Vaverage
g12
tp266
F1
s(VKiss
g24
tp267
F1
s(Van
g34
tp268
F9
s(Vshot
g18
tp269
F1
s(Vdrupelet
g18
tp270
F2
s(Vpocket
g18
tp271
F1
s(V'd
g8
tp272
F1
s(Vmatter
g18
tp273
F1
s(Vbetter
g27
tp274
F1
s(VRoom
g18
tp275
F1
s(Vcountry
S'NN'
p276
tp277
F1
s(Vtwo
S'CD'
p278
tp279
F4
s(Vsmile
g18
tp280
F2
s(Vwaiting
g65
tp281
F5
s(Vhonored
g37
tp282
F2
s(VChicago
S'NNP'
p283
tp284
F3
s(Vadmire
g14
tp285
F1
s(Vposing
g65
tp286
F1
s(Vaccidents
g16
tp287
F1
s(Vfilled
g37
tp288
F1
s(Vbelow
g46
tp289
F1
s(Vwrong
g12
tp290
F2
s(Vsingles
g16
tp291
F1
s(Vtoday
S'NN'
p292
tp293
F1
s(V's
S'POS'
p294
tp295
F6
s(Vone
g18
tp296
F3
s(Venough
g12
tp297
F1
s(Vpoverty
g18
tp298
F1
s(Vimportant
S'JJ'
p299
tp300
F1
s(Vsilent
g12
tp301
F1
s(Vpractically
g27
tp302
F1
s(Vhospital
g12
tp303
F1
s(Vblindingly
g27
tp304
F1
s(Vfact
S'NN'
p305
tp306
F1
s(VWehling
g24
tp307
F17
s(Vlive
g22
tp308
F6
s(V'The
g39
tp309
F1
s(VBlendor
g24
tp310
F1
s(Vapple
S'NN'
p311
tp312
F1
s(Vbaby
g18
tp313
F1
s(Vtitle
g18
tp314
F2
s(VExtensive
g12
tp315
F1
s(Vthink
g22
tp316
F2
s(Vlimb
g18
tp317
F1
s(Vthat
g27
tp318
F1
s(Vhe
S'PRP'
p319
tp320
F42
s(Vtrench
g18
tp321
F1
s(Vask
g14
tp322
F1
s(Vkilled
g69
tp323
F1
s(VEND
g18
tp324
F1
s(Vtwenty
g12
tp325
F1
s(Vanother
S'DT'
p326
tp327
F2
s(Vhumble
g12
tp328
F1
s(Vsurvive
g22
tp329
F1
s(Venough
g18
tp330
F1
s(Vwhite-haired
g12
tp331
F1
s(Vmess
g18
tp332
F1
s(Vperfectly
g27
tp333
F2
s(Vall
g34
tp334
F12
s(Vback
g27
tp335
F2
s(Vthing
S'NN'
p336
tp337
F1
s(Vexclaiming
g65
tp338
F1
s(Vdown
g140
tp339
F2
s(VForgive
g39
tp340
F1
s(VWeep-no-more
g24
tp341
F1
s(Vmere
g12
tp342
F1
s(Vcome
g22
tp343
F2
s(Vpicture
g18
tp344
F6
s(Vspread
g12
tp345
F1
s(Vstretch
g18
tp346
F1
s(Vchuckle
g18
tp347
F1
s(VAs
g46
tp348
F1
s(Vsawing
g65
tp349
F1
s(Vdisposing
g18
tp350
F1
s(Vmournful
g12
tp351
F1
s(Va
S'DT'
p352
tp353
F62
s(Vturned
g69
tp354
F1
s(Vgravy
g18
tp355
F1
s(Vsir
g18
tp356
F1
s(VNope
g18
tp357
F1
s(Vspeaking
g65
tp358
F1
s(Vcolor
g18
tp359
F1
s(Vkisses
g16
tp360
F1
s(VVONNEGUT
g24
tp361
F1
s(Vcome
g14
tp362
F1
s(VMr
g24
tp363
F2
s(Vperfect
g12
tp364
F1
s(Vwant
g22
tp365
F3
s(Vdeal
g18
tp366
F1
s(Vfell
S'VBD'
p367
tp368
F2
s(Vupsets
g205
tp369
F1
s(VDay
g24
tp370
F1
s(Vmany
S'JJ'
p371
tp372
F2
s(Vhim
S'PRP'
p373
tp374
F6
s(Vis
S'VBZ'
p375
tp376
F16
s(Vnumber
S'NN'
p377
tp378
F6
s(Vformal
g12
tp379
F1
s(Vparents
g16
tp380
F2
s(Vcap
g18
tp381
F1
s(Vpopulation
g22
tp382
F1
s(VJR.
g24
tp383
F1
s(Vcolorless
g27
tp384
F1
s(Vimplications
g16
tp385
F1
s(Vsoil
g18
tp386
F1
s(V0
g39
tp387
F3
s(VDo
g22
tp388
F1
s(Vshot
g69
tp389
F2
s(Vmemorial
g18
tp390
F1
s(Vsomebody
g18
tp391
F1
s(Vmaking
g65
tp392
F1
s(Vbeautiful
g12
tp393
F1
s(Vroom
S'NN'
p394
tp395
F6
s(Vthem
S'PRP'
p396
tp397
F4
s(Vat
S'IN'
p398
tp399
F9
s(Vdown
g46
tp400
F1
s(Vgas-chamber
g12
tp401
F1
s(VDeath
g24
tp402
F1
s(Vdays
S'NNS'
p403
tp404
F2
s(Vperched
g37
tp405
F1
s(Vredecorated
g37
tp406
F2
s(Vwithout
S'IN'
p407
tp408
F1
s(Vlaughed
g37
tp409
F1
s(Vlight
g18
tp410
F1
s(V'
S"''"
p411
tp412
F4
s(Vpacked
g37
tp413
F1
s(Vfoul
g12
tp414
F1
s(VEven
g27
tp415
F1
s(Vme
S'PRP'
p416
tp417
F10
s(Vsurely
g27
tp418
F1
s(Vdemure
g18
tp419
F1
s(VWe
S'PRP'
p420
tp421
F3
s(Vshyly
g18
tp422
F1
s(Vsetting
g65
tp423
F1
s(Vfather
g18
tp424
F2
s(Vbeen
S'VBN'
p425
tp426
F5
s(VPresent
g12
tp427
F1
s(VWhen
S'WRB'
p428
tp429
F1
s(Vtell
g22
tp430
F1
s(VMessy
g24
tp431
F1
s(Vsmiled
g69
tp432
F1
s(Vline
S'NN'
p433
tp434
F1
s(VEasy
g24
tp435
F1
s(Vhere
S'RB'
p436
tp437
F6
s(Vrefuse
g18
tp438
F1
s(Vused
g37
tp439
F1
s(Vtribulations
g16
tp440
F1
s(Vknew
g69
tp441
F1
s(VLet
g22
tp442
F2
s(Vportrait
g18
tp443
F4
s(Vgestured
g69
tp444
F2
s(Vrevolver
g18
tp445
F1
s(Veat
g22
tp446
F1
s(Vscanning
g65
tp447
F1
s(Vcould
S'MD'
p448
tp449
F8
s(Vlet
g22
tp450
F1
s(Vnose
g18
tp451
F1
s(Vinvisible
g12
tp452
F2
s(Vseal
g18
tp453
F1
s(Vtwenty
g18
tp454
F1
s(Vmake
g22
tp455
F2
s(Vraised
g69
tp456
F1
s(Vsevere
g12
tp457
F1
s(Vsat
g69
tp458
F2
s(VThank
g18
tp459
F1
s(Vphoned
g69
tp460
F1
s(VMiss
g12
tp461
F1
s(Vgot
g69
tp462
F1
s(Vrich
g12
tp463
F1
s(Vsince
S'IN'
p464
tp465
F1
s(Vtautly
g27
tp466
F1
s(Vdamn
g18
tp467
F1
s(Vdemoralized
g12
tp468
F1
s(Vbirth
g18
tp469
F1
s(Vloam
g18
tp470
F1
s(Vone
g39
tp471
F9
s(Vknow
g14
tp472
F2
s(Vsir
g22
tp473
F1
s(Vpuzzle
g18
tp474
F1
s(Vno
g34
tp475
F10
s(Vanything
S'NN'
p476
tp477
F2
s(Vhospital
g18
tp478
F2
s(Vnor
S'CC'
p479
tp480
F1
s(Vpaint
g22
tp481
F1
s(Vdrawn
g37
tp482
F1
s(Vfather-to-be
g18
tp483
F1
s(Vspelling
g65
tp484
F1
s(Vcorridor
g18
tp485
F1
s(Vbecome
g22
tp486
F1
s(Vwar
S'NN'
p487
tp488
F1
s(Vtold
g69
tp489
F1
s(Vget
g22
tp490
F2
s(VHooray
g18
tp491
F1
s(V:
S':'
tp492
F5
s(Vreflectively
g27
tp493
F1
s(Vcares
g205
tp494
F1
s(Vappropriate
g18
tp495
F1
s(VCatbox
g24
tp496
F4
s(Vdepend
g22
tp497
F1
s(Vsymbolize
g22
tp498
F1
s(Vpossible
S'JJ'
p499
tp500
F3
s(VEvery
g34
tp501
F1
s(Vthere
S'EX'
p502
tp503
F1
s(Vhell
g18
tp504
F1
s(Vyears
S'NNS'
p505
tp506
F4
s(Vconquered
g37
tp507
F1
s(Vwretched
g12
tp508
F1
s(Vstarvation
g18
tp509
F1
s(VSheepdip
g24
tp510
F2
s(VMy
g215
tp511
F1
s(Vearlier
g188
tp512
F1
s(Vnext
g12
tp513
F3
s(V're
S'VBP'
p514
tp515
F7
s(VSuicide
g24
tp516
F1
s(Vscientists
S'NNS'
p517
tp518
F1
s(Vspace
S'NN'
p519
tp520
F1
s(Vtoodle-oo
g18
tp521
F1
s(VWell
g27
tp522
F2
s(Vgrandfather
g18
tp523
F2
s(V;
S':'
tp524
F2
s(Vadventure
g18
tp525
F1
s(V've
S'VBP'
p526
tp527
F2
s(VWaring
g24
tp528
F1
s(Vchair
g18
tp529
F1
s(Vthought
g69
tp530
F4
s(Vreal
S'JJ'
p531
tp532
F1
s(VDr
g24
tp533
F1
s(Vsinging
g65
tp534
F1
s(Vgave
S'VBD'
p535
tp536
F4
s(VEarth
g24
tp537
F1
s(Vformidable
g12
tp538
F1
s(Vworld
S'NN'
p539
tp540
F3
s(Vvoice
g18
tp541
F1
s(Vmy
S'PRP$'
p542
tp543
F8
s(Vforever
g27
tp544
F1
s(Vtrying
S'VBG'
p545
tp546
F1
s(Vshrugged
g18
tp547
F1
s(Vladder
g18
tp548
F1
s(Vgrapes
g16
tp549
F1
s(Vsound
g22
tp550
F1
s(VGo
g24
tp551
F1
s(VDivision
g24
tp552
F1
s(Vbe
S'VB'
p553
tp554
F18
s(Vjackrabbits
g16
tp555
F1
s(Vworshiping
g65
tp556
F1
s(Vcare-free
g12
tp557
F1
s(Vneat
g12
tp558
F1
s(Vrooms
S'NNS'
p559
tp560
F1
s(Vthings
S'NNS'
p561
tp562
F1
s(Vmural
g18
tp563
F2
s(Vonce
g27
tp564
F1
s(VBenjamin
g24
tp565
F1
s(VLot
g18
tp566
F1
s(Vany
S'DT'
p567
tp568
F5
s(Vit
S'PRP'
p569
tp570
F21
s(VThey
S'PRP'
p571
tp572
F3
s(VLooks
g205
tp573
F2
s(Vsad
g12
tp574
F1
s(VChief
g12
tp575
F1
s(Vfanciful
g12
tp576
F1
s(Vdisorderly
g12
tp577
F1
s(Vdelivery
S'NN'
p578
tp579
F1
s(Vdoor
g18
tp580
F1
s(Vsong
g18
tp581
F1
s(VService
S'NNP'
p582
tp583
F1
s(Vwhose
S'WP$'
p584
tp585
F3
s(Vportraits
g16
tp586
F1
s(Vabout
g46
tp587
F10
s(VHolland
g24
tp588
F1
s(Vmaternal
g12
tp589
F1
s(VJr.
S'NNP'
p590
tp591
F2
s(VNot
S'RB'
p592
tp593
F1
s(Vashtrays
g16
tp594
F1
s(VOne
g39
tp595
F1
s(Vmustache
g18
tp596
F1
s(Vhoney
g18
tp597
F1
s(Vchildren
S'NNS'
p598
tp599
F2
s(Vthat
g34
tp600
F4
s(Vvirtually
S'RB'
p601
tp602
F1
s(Vsome
S'DT'
p603
tp604
F3
s(Vplenty
g12
tp605
F1
s(Vtree
g18
tp606
F1
s(V2000
g39
tp607
F1
s(Vface
g18
tp608
F1
s(Vfit
g22
tp609
F2
s(VNobody
g18
tp610
F4
s(Vmunicipal
g12
tp611
F2
s(Vliving
g18
tp612
F1
s(Vtime
S'NN'
p613
tp614
F2
s(Vnames
g16
tp615
F1
s(Vpainter
g18
tp616
F15
s(VJudgment
g24
tp617
F1
s(Vpulpy
g12
tp618
F1
s(VThat
g34
tp619
F6
s(Vgrains
g16
tp620
F1
s(Vknow
g22
tp621
F3
s(Vgas
S'NN'
p622
tp623
F3
s(Vtended
g37
tp624
F1
s(Vred-eyed
g12
tp625
F1
s(Vhuman
g12
tp626
F2
s(Vswell
g27
tp627
F1
s(Vraked
g12
tp628
F1
s(Vreceipt
g18
tp629
F1
s(Vfaces
S'VBZ'
p630
tp631
F2
s(Vwill
g8
tp632
F1
s(Vthrough
g46
tp633
F1
s(Vwhere
S'WRB'
p634
tp635
F3
s(VSo
g27
tp636
F1
s(Vall
S'PDT'
p637
tp638
F3
s(Vin
S'IN'
p639
tp640
F36
s(VNever
g27
tp641
F1
s(V``
S'``'
p642
tp643
F138
s(Vseven
S'CD'
p644
tp645
F1
s(Vcut
g69
tp646
F1
s(Vpulled
g69
tp647
F1
s(Vwent
S'VBD'
p648
tp649
F1
s(Vare
S'VBP'
p650
tp651
F5
s(VBack
g27
tp652
F1
s(VMiss
g24
tp653
F1
s(Vclean
g22
tp654
F1
s(Vshe
S'PRP'
p655
tp656
F23
s(Vservice
g18
tp657
F1
s(Vpublication
g18
tp658
F1
s(VJust
g27
tp659
F1
s(Vpistol
g18
tp660
F1
s(Vstaff
S'NN'
p661
tp662
F1
s(Vpick
g22
tp663
F2
s(Vtheir
S'PRP$'
p664
tp665
F3
s(Vgrim
g12
tp666
F1
s(Vhappy
g12
tp667
F5
s(Vsomeone
S'NN'
p668
tp669
F1
s(Vafternoon
S'NN'
p670
tp671
F1
s(Vblushed
g69
tp672
F1
s(VHospital
g24
tp673
F1
s(Vdaub
g18
tp674
F1
s(VDe-louser
g24
tp675
F1
s(Vhave
g22
tp676
F8
s(Vcure
g18
tp677
F1
s(Vbaby
g16
tp678
F1
s(VBureau
g24
tp679
F4
s(Vyear
S'NN'
p680
tp681
F1
s(Vtook
S'VBD'
p682
tp683
F2
s(Vrumpled
g12
tp684
F1
s(Vvolunteer
g22
tp685
F1
s(Vfind
g22
tp686
F1
s(Vdiseases
g16
tp687
F1
s(V.
S'.'
tp688
F215
s(Vbeing
S'VBG'
p689
tp690
F2
s(V*
g69
tp691
F2
s(Vappointment
g18
tp692
F1
s(Vsea-weed
g22
tp693
F1
s(VHitz
g24
tp694
F21
s(Vfar
S'RB'
p695
tp696
F1
s(Vdialed
g69
tp697
F1
s(Vfine
g12
tp698
F2
s(VFederal
g24
tp699
F4
s(Vwhichever
g61
tp700
F1
s(Vslums
g16
tp701
F1
s(Vsmock
g18
tp702
F1
s(Vabout
g27
tp703
F1
s(Vuse
g22
tp704
F1
s(Vfeet
S'NNS'
p705
tp706
F1
s(Vlack
g18
tp707
F1
s(Vpopulation
g18
tp708
F5
s(Vchamber
g18
tp709
F1
s(VOr
S'CC'
p710
tp711
F1
s(Vwife
S'NN'
p712
tp713
F2
s(Vreproduce
g22
tp714
F1
s(Vthere
g27
tp715
F1
s(VEverything
g24
tp716
F1
s(Vluminously
g27
tp717
F1
s(Vhad
g37
tp718
F1
s(Vca
S'MD'
p719
tp720
F1
s(Vimpression
g18
tp721
F1
s(V--
S':'
tp722
F17
s(Vaway
g27
tp723
F1
s(V'll
S'MD'
p724
tp725
F3
s(VSawing
g65
tp726
F1
s(Vbreath
g18
tp727
F2
s(Vage
S'NN'
p728
tp729
F3
s(VWehling
g18
tp730
F1
s(Vunder
S'IN'
p731
tp732
F1
s(VAging
g65
tp733
F1
s(Vsickly
g12
tp734
F1
s(Vhostesses
g16
tp735
F1
s(Veither
g34
tp736
F1
s(Vvolunteered
g37
tp737
F1
s(Vfive
S'CD'
p738
tp739
F1
s(Vas
g46
tp740
F7
s(Vlooks
g205
tp741
F2
s(Vdepicted
g37
tp742
F1
s(VGot
g24
tp743
F1
s(Vrather
S'RB'
p744
tp745
F1
s(Vfacial
g12
tp746
F1
s(Vlist
g18
tp747
F2
s(Vlook
g14
tp748
F1
s(Vgreat
S'JJ'
p749
tp750
F1
s(Vstepladder
g18
tp751
F2
s(VGuess
g22
tp752
F1
s(Vunmistakable
g12
tp753
F1
s(Vday
S'NN'
p754
tp755
F1
s(Vplanet
g18
tp756
F5
s(Vyou
S'PRP'
p757
tp758
F38
s(Vbig
S'JJ'
p759
tp760
F1
s(Veighty
g205
tp761
F1
s(Vsurface
g18
tp762
F1
s(Vshould
S'MD'
p763
tp764
F2
s(Vscrape
g22
tp765
F1
s(Vby
S'IN'
p766
tp767
F1
s(Vresponsible
S'JJ'
p768
tp769
F1
s(Vimportance
g18
tp770
F1
s(Vsobriquets
g16
tp771
F1
s(Vleaves
g16
tp772
F1
s(VNow
S'RB'
p773
tp774
F1
s(Vdeliver
g22
tp775
F1
s(V'the
g569
tp776
F1
s(Vheartily
g27
tp777
F1
s(Vstabilized
g37
tp778
F1
s(Vgarden
g18
tp779
F3
s(VWehling
g65
tp780
F5
s(Vexpressed
g37
tp781
F1
s(Vfeminine
g22
tp782
F1
s(VTriplets
g16
tp783
F3
s(Vcrime
S'NN'
p784
tp785
F1
s(Vher
g215
tp786
F4
s(Veagle
g18
tp787
F1
s(Vwonderful
g12
tp788
F1
s(Vspattered
g12
tp789
F1
s(Vthat
g46
tp790
F15
s(Vcripples
g16
tp791
F1
s(Vstudied
g69
tp792
F1
s(VGarden
g24
tp793
F2
s(Vhair
g18
tp794
F1
s(Vcall
g22
tp795
F3
s(Vreferring
g65
tp796
F1
s(Vmeant
g69
tp797
F1
s(Vwithin
S'IN'
p798
tp799
F1
s(Vputs
g205
tp800
F1
s(Vlife
S'NN'
p801
tp802
F4
s(Vnever
S'RB'
p803
tp804
F3
s(Vstanding
g65
tp805
F1
s(Vstepped
g69
tp806
F1
s(Vmakes
S'VBZ'
p807
tp808
F1
s(Vshoes
g16
tp809
F2
s(Vnourishment
g18
tp810
F1
s(VEasy-go
g24
tp811
F1
s(Vover
g46
tp812
F2
s(Vaccomplishments
g16
tp813
F1
s(VSee
g22
tp814
F1
s(Vfertilizer
g18
tp815
F1
s(VStates
S'NNPS'
p816
tp817
F1
s(VOffice
g24
tp818
F1
s(Vplease
g22
tp819
F1
s(Vquietly
g27
tp820
F1
s(Vforty-million
g18
tp821
F1
s(Vfaded
g69
tp822
F1
s(Vsure
g14
tp823
F1
s(Vwomen
S'NNS'
p824
tp825
F3
s(V''
g411
tp826
F140
s(Vso
g27
tp827
F7
s(VThe
S'DT'
p828
tp829
F23
s(Vpurple
g12
tp830
F2
s(V'Ethical
g12
tp831
F1
s(Vlot
g18
tp832
F2
s(Vled
g69
tp833
F1
s(Vwant
g14
tp834
F2
s(VUnited
S'NNP'
p835
tp836
F1
s(Vhand
S'NN'
p837
tp838
F2
s(V's
g205
tp839
F15
s(Vgo
g22
tp840
F4
s(Vmuch
g27
tp841
F1
s(Vjoke
g18
tp842
F1
s(Vthey
S'PRP'
p843
tp844
F7
s(Vforty
g12
tp845
F1
s(Vheels
g16
tp846
F1
s(VZeus
g24
tp847
F1
s(Vthree
S'CD'
p848
tp849
F5
s(Vblackberry
g18
tp850
F2
s(Vdo-it-yourselfer
g18
tp851
F1
s(Vintending
g65
tp852
F1
s(Vhands
g16
tp853
F2
s(Ventitled
g37
tp854
F1
s(Vfor
S'IN'
p855
tp856
F14
s(Vdid
S'VBD'
p857
tp858
F7
s(VKiss-me-quick
g24
tp859
F1
s(Vsaid
S'VBD'
p860
tp861
F81
s(VPierre
g24
tp862
F1
s(Vjoy
g18
tp863
F1
s(Vmoved
g69
tp864
F1
s(Vchambers
g16
tp865
F2
s(Vmaster
g18
tp866
F1
s(Vup
g27
tp867
F1
s(Vvisibly
g27
tp868
F1
s(Vthose
S'DT'
p869
tp870
F1
s(Vart
g18
tp871
F3
s(Vclean
g12
tp872
F1
s(VStudios
g24
tp873
F1
s(Vcarrying
g65
tp874
F1
s(Vclose
g12
tp875
F1
s(Veither
g710
tp876
F1
s(VLying-in
g24
tp877
F1
s(Vboomed
g69
tp878
F1
s(Vguessed
g37
tp879
F1
s(VGosh
g24
tp880
F1
s(Vsympathetically
g27
tp881
F1
s(Vworking
g65
tp882
F1
s(VLucky
g24
tp883
F1
s(Vthumbed
g69
tp884
F1
s(Vout
g140
tp885
F2
s(Vtake
g22
tp886
F1
s(Vaging
g65
tp887
F1
s(VKURT
g24
tp888
F1
s(Vlast
S'JJ'
p889
tp890
F2
s(VNothing
g18
tp891
F2
s(Vmother
g18
tp892
F1
s(Vbut
S'CC'
p893
tp894
F2
s(VMen
g18
tp895
F2
s(Vdoing
S'VBG'
p896
tp897
F1
s(Vinstitution
g18
tp898
F1
s(V,
S','
tp899
F225
s(VLife
g24
tp900
F2
s(Vabsolutely
g27
tp901
F1
s(Vwhite
S'JJ'
p902
tp903
F2
s(VAll
g637
tp904
F1
s(Vimmortalized
g37
tp905
F1
s(Vdown
g27
tp906
F2
s(Varound
g27
tp907
F1
s(Vreally
S'RB'
p908
tp909
F3
s(VHer
g215
tp910
F1
s(VWorry
g24
tp911
F1
s(VAh
g24
tp912
F1
s(Vpeople
S'NNS'
p913
tp914
F13
s(Vmural
g12
tp915
F4
s(Vonly
g12
tp916
F1
s(V?
S'.'
tp917
F34
s(Vdunk
g14
tp918
F1
s(Vn't
S'RB'
p919
tp920
F28
s(Vwars
g16
tp921
F1
s(Vfigures
g16
tp922
F2
s(Vwaitingroom
g18
tp923
F1
s(Vbooth
g18
tp924
F1
s(Vkeen
g12
tp925
F1
s(Vspike
g18
tp926
F1
s(Vsame
S'JJ'
p927
tp928
F4
s(Vsorry
g12
tp929
F1
s(Vleft
g69
tp930
F2
s(Vstockings
g16
tp931
F1
s(Vweeds
g16
tp932
F1
s(Vconsideration
g18
tp933
F1
s(VGrandpa
g24
tp934
F2
s(VLeora
g24
tp935
F7
s(V*
g12
tp936
F5
s(Vwho
S'WP'
p937
tp938
F6
s(Vif
S'IN'
p939
tp940
F5
s(Vwoman
S'NN'
p941
tp942
F3
s(Vomnipotent
g12
tp943
F1
s(Vduck
g18
tp944
F1
s(Vof
S'IN'
p945
tp946
F60
s(Vlong
g27
tp947
F1
s(Vfruitful
g12
tp948
F1
s(Vplant
S'NN'
p949
tp950
F1
s(Vbetter
g188
tp951
F1
s(Vright
g12
tp952
F3
s(Vtoo
S'RB'
p953
tp954
F2
s(Vlooking
S'VBG'
p955
tp956
F1
s(Vhonor
g18
tp957
F1
s(VOf
S'IN'
p958
tp959
F2
s(Vnerve
g18
tp960
F1
s(Vus
S'PRP'
p961
tp962
F2
s(Vmedallion
g18
tp963
F1
s(Vcontinued
g37
tp964
F1
s(Vpopular
S'JJ'
p965
tp966
F1
s(Vwas
g69
tp967
F41
s(Vsulkily
g27
tp968
F1
s(Vgrimmer
g18
tp969
F1
s(Vhis
S'PRP$'
p970
tp971
F21
s(Vorderly
g27
tp972
F1
s(Vthen
S'RB'
p973
tp974
F9
s(Vhostess
g18
tp975
F3
s(Vdie
g22
tp976
F3
s(Vscorn
g18
tp977
F1
s(Vpose
g22
tp978
F1
s(Vbranch
g18
tp979
F1
s(Vsweet
g12
tp980
F1
s(Vcomfortable
g12
tp981
F1
s(Vrighty
g18
tp982
F1
s(Vlike
g12
tp983
F1
s(Vbefore
g27
tp984
F1
s(Vfrowzy
g18
tp985
F1
s(Vinto
S'IN'
p986
tp987
F2
s(Vchild
g18
tp988
F3
s(VThis
S'DT'
p989
tp990
F3
s(Vslowly
g27
tp991
F1
s(VU.S.
S'NNP'
p992
tp993
F1
s(Vscene
g18
tp994
F1
s(VYou
S'PRP'
p995
tp996
F11
s(VOh
g4
tp997
F1
s(Vbag
g18
tp998
F2
s(Vfifty-six
g12
tp999
F1
s(Vbusiness
S'NN'
p1000
tp1001
F2
s(Vmedieval
g18
tp1002
F1
s(VMust
g27
tp1003
F1
s(Vlate
g12
tp1004
F1
s(Vresearch
S'NN'
p1005
tp1006
F1
s(VDuncan
g24
tp1007
F12
s(Vdemanding
g65
tp1008
F2
s(Vpurple
g18
tp1009
F4
s(Vmusette
g18
tp1010
F1
s(Vstill
S'RB'
p1011
tp1012
F4
s(Vwhich
g61
tp1013
F1
s(Vshook
g69
tp1014
F1
s(Vbillion
S'CD'
p1015
tp1016
F4
s(Vvery
g27
tp1017
F6
s(Vcurdled
g69
tp1018
F1
s(Vdropcloths
g16
tp1019
F2
s(Vlaw
S'NN'
p1020
tp1021
F2
s(VB
g24
tp1022
F6
s(Vyour
S'PRP$'
p1023
tp1024
F7
s(Vbefore
g46
tp1025
F2
s(Vsure
g18
tp1026
F1
s(VWithout
g46
tp1027
F2
s(Vborn
g37
tp1028
F5
s(VHappy
g24
tp1029
F4
s(Vgive
g22
tp1030
F1
s(Vtravel
g22
tp1031
F1
s(Vrelative
g18
tp1032
F1
s(Vconcern
S'NN'
p1033
tp1034
F1
s(Vhead
g18
tp1035
F5
s(Vemptily
g27
tp1036
F1
s(Von
S'IN'
p1037
tp1038
F21
s(Vsuch
g12
tp1039
F1
s(Vhad
g69
tp1040
F11
s(Vbounded
g69
tp1041
F1
s(Vam
S'VBP'
p1042
tp1043
F1
s(Vpointed
g69
tp1044
F1
s(Vfew
S'JJ'
p1045
tp1046
F1
s(Vwell-remembered
g12
tp1047
F1
s(VHooligan
g24
tp1048
F3
s(VAnd
S'CC'
p1049
tp1050
F10
s(Vclapped
g69
tp1051
F1
s(Vsupposed
g37
tp1052
F3
s(Vpeace
g18
tp1053
F1
s(Vtrick
g18
tp1054
F1
s(Vsheave-carrier
g18
tp1055
F1
s(Vcorrected
g69
tp1056
F1
s(Vstick
g22
tp1057
F1
s(Vcamouflage
g18
tp1058
F1
s(Vlaid
g69
tp1059
F1
s(Vhundred
g69
tp1060
F1
s(Vfirst
g12
tp1061
F2
s(VX-rays
g16
tp1062
F1
s(VThere
S'EX'
p1063
tp1064
F4
s(Vimagination
g18
tp1065
F1
s(Vproblem
S'NN'
p1066
tp1067
F1
s(Vsounds
g205
tp1068
F1
s(Vwater
S'NN'
p1069
tp1070
F2
s(Vagain
S'RB'
p1071
tp1072
F3
s(V*
g24
tp1073
F18
s(Voff
g140
tp1074
F2
s(Vunless
S'IN'
p1075
tp1076
F2
s(VObstetrician
g18
tp1077
F1
s(Vstare
g22
tp1078
F1
s(VWho
g937
tp1079
F2
s(Vsight
g69
tp1080
F1
s(Vmuch
g12
tp1081
F1
s(Vsomething
S'NN'
p1082
tp1083
F4
s(Vcurious
g12
tp1084
F1
s(Vthis
S'DT'
p1085
tp1086
F13
s(Vseemingly
g27
tp1087
F1
s(VTwo
S'CD'
p1088
tp1089
F1
s(Vphone
S'NN'
p1090
tp1091
F1
s(VFrame
g18
tp1092
F1
s(Vdecided
g69
tp1093
F1
s(Vaged
g37
tp1094
F1
s(Vwhat
g937
tp1095
F8
s(Vevidence
S'NN'
p1096
tp1097
F1
s(Vsardonic
g12
tp1098
F1
s(VLast
S'JJ'
p1099
tp1100
F1
s(VGood-by
g24
tp1101
F1
s(VHow
g227
tp1102
F2
s(VHere
S'RB'
p1103
tp1104
F1
s(Vtoward
S'IN'
p1105
tp1106
F1
s(VHis
S'PRP$'
p1107
tp1108
F1
s(V!
S'.'
tp1109
F13
s(Vbody
g18
tp1110
F4
s(Vbarring
g65
tp1111
F1
s(Veh
S'FW'
p1112
tp1113
F3
s(Vdisposal
g18
tp1114
F1
s(Vto
S'TO'
p1115
tp1116
F64
s(Vmorning
S'NN'
p1117
tp1118
F1
s(Vuniforms
g16
tp1119
F1
s(Vappointments
g16
tp1120
F1
s(Vfuture
g12
tp1121
F1
s(VIf
S'IN'
p1122
tp1123
F3
s(VWhy
S'WRB'
p1124
tp1125
F3
s(Vmultiply
g22
tp1126
F1
s(Vrecommend
g14
tp1127
F1
s(Vname
g18
tp1128
F4
s(Vblank
g12
tp1129
F1
s(V...
S':'
tp1130
F2
s(Vtrash-burner
g18
tp1131
F1
s(Vspot
g18
tp1132
F2
s(Vmale
g18
tp1133
F1
s(Vconversation
g18
tp1134
F1
s(Vhave
g14
tp1135
F5
s(Vbugs
g16
tp1136
F1
s(Vway
S'NN'
p1137
tp1138
F2
s(Vtall
g12
tp1139
F1
s(Vshoot
g22
tp1140
F1
s(Vpaintbrush
g18
tp1141
F1
s(Vindicated
g69
tp1142
F1
s(Vincluded
g69
tp1143
F1
s(Vcoat
g18
tp1144
F1
s(Vyours
g16
tp1145
F1
s(Vcancellation
g18
tp1146
F1
s(Vfinished
g69
tp1147
F1
s(Vzero
g18
tp1148
F1
s(Vblanks
g16
tp1149
F1
s(Vplace
g18
tp1150
F1
s(Vnot
S'RB'
p1151
tp1152
F5
s(Vdrinking
g18
tp1153
F1
s(Vvolunteers
g16
tp1154
F3
s(Vtouched
g37
tp1155
F1
s(Vwhile
g46
tp1156
F2
s(Vsoon
S'RB'
p1157
tp1158
F1
s(Vonly
g27
tp1159
F2
s(Vwall
g18
tp1160
F2
s(Voverseas
g12
tp1161
F1
s(Vrunning
g65
tp1162
F1
s(VIs
g205
tp1163
F2
s(VBirdland
g24
tp1164
F1
s(Vfound
g37
tp1165
F1
s(Vnice
g12
tp1166
F1
s(Vasked
g69
tp1167
F1
s(Vher
g569
tp1168
F3
s(Vones
S'NNS'
p1169
tp1170
F1
s(Vwaited
g69
tp1171
F2
s(VIt
S'PRP'
p1172
tp1173
F9
s(Vnobody
g18
tp1174
F1
s(Vhonest
S'JJS'
p1175
tp1176
F1
s(Vas
g27
tp1177
F2
s(Vrenewed
g37
tp1178
F1
s(Vwish
g12
tp1179
F2
s(Vdeath
S'NN'
p1180
tp1181
F1
s(Vtelephone
S'NN'
p1182
tp1183
F5
s(V2
S'CD'
p1184
tp1185
F6
s(Vsprouted
g69
tp1186
F1
s(Vdoes
S'VBZ'
p1187
tp1188
F2
s(Vwalls
g16
tp1189
F1
s(VChairs
g16
tp1190
F1
s(Vshots
g16
tp1191
F1
s(Vdeepest
g1175
tp1192
F1
s(Vprobably
S'RB'
p1193
tp1194
F1
s(Vable
S'JJ'
p1195
tp1196
F1
s(Vplague
g18
tp1197
F1
s.