ccollections
defaultdict
p1
(c__builtin__
float
p2
tRp3
Vvnthankefulnesse!
p4
F1
sVdearely
p5
F1
sVyellow
p6
F1
sVspiders
p7
F1
sVhanging
p8
F1
sVemptie
p9
F3
sVeuery
p10
F12
sVwhither?
p11
F1
sVlord
p12
F15
sVwood,
p13
F1
sVfingers,
p14
F1
sVbringing
p15
F1
sVaccidents:
p16
F1
sVweele
p17
F8
sVdeuise
p18
F2
sVeuer,
p19
F2
sVspoken,
p20
F1
sVher,
p21
F13
sVadoe,
p22
F1
sVserue:
p23
F1
sVsailes
p24
F1
sVpulse
p25
F1
sVher:
p26
F5
sVsecond
p27
F5
sVidolatry,
p28
F1
sVher?
p29
F1
sVvaliant
p30
F1
sVskaring
p31
F1
sVclimbe,
p32
F1
sVnature!
p33
F1
sVnature,
p34
F2
sVfingers
p35
F3
sVsighes,
p36
F5
sVstrew:
p37
F1
sVserues
p38
F1
sVhere
p39
F55
sVhers
p40
F2
sVcordiall,
p41
F1
sVsubstance
p42
F2
sVfinger,
p43
F1
sVforbeare,
p44
F1
sVnatures
p45
F2
sVbring:
p46
F1
sVgolden
p47
F4
sVpardon,
p48
F1
sVsmelt,
p49
F1
sVmire.
p50
F1
sVbrought
p51
F1
sVcircumstance:
p52
F1
sVspoke
p53
F4
sVsweete,
p54
F2
sVsweete.
p55
F1
sVholy-dam,
p56
F1
sVgrieue
p57
F1
sVtherefore
p58
F18
sVstrike
p59
F4
sVcare
p60
F8
sVleape,
p61
F1
sVdry,
p62
F1
sVholy
p63
F22
sVbrings
p64
F1
sVhurt
p65
F4
sVreckie
p66
F1
sVtying
p67
F1
sVhole
p68
F1
sVhold
p69
F15
sVmouse-hunt
p70
F1
sVsweeten
p71
F1
sVblade
p72
F1
sVbayting
p73
F1
sVlockes
p74
F2
sVsweeter
p75
F1
sVmisfortunes
p76
F1
sVdeformities:
p77
F1
sVwant
p78
F2
sVyouth:
p79
F2
sVgroanes
p80
F1
sVhow
p81
F53
sVhot
p82
F3
sVnur'st
p83
F1
sVhop
p84
F1
sVdared
p85
F1
sVbeauty
p86
F7
sVpeece
p87
F1
sVfingers:
p88
F1
sVlaught,
p89
F1
sVwrong
p90
F2
sVkeepe
p91
F15
sVscourge
p92
F1
sVho,
p93
F1
sVenuious,
p94
F1
sVkeeps
p95
F1
sVho?
p96
F5
sVenuious?
p97
F1
sVwind
p98
F1
sVbeguil'd,
p99
F2
sVpuling
p100
F1
sVsubiect
p101
F1
sVthrone:
p102
F1
sVbutcher
p103
F1
sVimagin'd
p104
F1
sVdreames
p105
F4
sVfit
p106
F2
sVdied,
p107
F1
sVready?
p108
F1
sVfie
p109
F2
sVhee,
p110
F1
sVreckning
p111
F1
sVwelcome,
p112
F2
sVdreame,
p113
F2
sVschoole
p114
F1
sVwhore.
p115
F1
sVinterrupt
p116
F1
sVshap'd
p117
F1
sVioints
p118
F1
sVintended,
p119
F1
sVwoes
p120
F3
sV(so
p121
F1
sVassure,
p122
F1
sVfortnight
p123
F1
sVwhip
p124
F2
sVborne
p125
F4
sVspeed,
p126
F1
sVmisfortune
p127
F1
sVpotion,
p128
F1
sVeare,
p129
F1
sVre
p130
F2
sVeare:
p131
F2
sVendur'd.
p132
F1
sVtybalt
p133
F22
sVwoe:
p134
F1
sVwoe,
p135
F3
sVknit
p136
F1
sVt'would
p137
F1
sVselfe
p138
F20
sVeares
p139
F4
sVspeedy
p140
F1
sVr.
p141
F1
sVpotions
p142
F1
sVriband,
p143
F1
sVthinke,)
p144
F1
sVcul'd
p145
F1
sVwast
p146
F7
sVlowring
p147
F1
sVwash
p148
F2
sVforce
p149
F1
sVforsooth
p150
F1
sVmarry:
p151
F1
sVmaster
p152
F3
sVlegs
p153
F2
sVbitter
p154
F2
sVmongers,
p155
F1
sVwas:
p156
F1
sVwas,
p157
F2
sVleg,
p158
F1
sVold:
p159
F1
sVtree
p160
F2
sVreuiue,
p161
F1
sVendure
p162
F2
sVfeeling
p163
F2
sVold,
p164
F1
sVwell?
p165
F1
sVwell:
p166
F2
sVheads,
p167
F2
sVwell,
p168
F15
sVwell.
p169
F2
sVslaunder
p170
F1
sVcapulet:
p171
F1
sVdozen
p172
F1
sVaboard:
p173
F1
sVyet,
p174
F3
sVmickle
p175
F1
sVcapulet?
p176
F1
sVlong:
p177
F2
sVfast?
p178
F1
sVshall
p179
F104
sVvictorie
p180
F1
sVfees,
p181
F1
sVwench,
p182
F4
sVmouth
p183
F2
sVfast.
p184
F1
sVrunne,
p185
F1
sVlong,
p186
F2
sVvnbound
p187
F1
sVshalt
p188
F11
sVdrunke
p189
F2
sVvnbrused
p190
F1
sVfooles,
p191
F1
sVcame
p192
F12
sVsaying
p193
F1
sVsocietie.
p194
F1
sVdeedes
p195
F1
sVprie
p196
F1
sVbeloued
p197
F1
sVcholler,
p198
F1
sVcannot,
p199
F1
sVcannot.
p200
F1
sVmorrow?
p201
F1
sVbecame
p202
F1
sVlightnesse,
p203
F1
sVcupid
p204
F2
sVmens
p205
F7
sVrich
p206
F9
sVmend
p207
F1
sVtitans
p208
F2
sVmaids?
p209
F1
sVlies:
p210
F1
sVpri.
p211
F2
sVfailes,
p212
F1
sVmeeting,
p213
F1
sVlies,
p214
F4
sVgold:
p215
F1
sVvrging
p216
F1
sVmen:
p217
F2
sVthem?
p218
F1
sVromeos,
p219
F1
sVmen,
p220
F6
sVmen.
p221
F2
sVsaue
p222
F4
sVthem.
p223
F1
sVthem,
p224
F9
sVpost-horses,
p225
F1
sVsubtilly
p226
F1
sVfaie
p227
F1
sVgoodnight
p228
F2
sVleauing
p229
F1
sVbest
p230
F11
sVbaptiz'd,
p231
F1
sVaske?
p232
F1
sVsuspition,
p233
F1
sVestate,
p234
F1
sVbeggery
p235
F1
sVlamas
p236
F1
sVnature
p237
F1
sVbeggers
p238
F2
sVresigne,
p239
F1
sVdefiance
p240
F1
sVdebt
p241
F1
sVreclaim'd.
p242
F1
sVcountry
p243
F1
sVstirre
p244
F1
sVring,
p245
F1
sVstealth.
p246
F1
sVnay,
p247
F8
sVdoubt,
p248
F1
sVcozin
p249
F3
sVworke,
p250
F2
sVeaster?
p251
F1
sVseruant.
p252
F1
sVstartles
p253
F1
sVfro
p254
F1
sVmuch
p255
F30
sVlife
p256
F14
sVspit
p257
F1
sVreuenge,
p258
F1
sVflaske,
p259
F1
sVculling
p260
F1
sVspie
p261
F2
sVdescry.
p262
F1
sVdoth
p263
F46
sVvoyces
p264
F1
sVmanes
p265
F1
sVprostrate
p266
F1
sVseruants
p267
F1
sVbin
p268
F8
sVconsent,
p269
F3
sVplants,
p270
F1
sVsaid,
p271
F5
sVquiuering
p272
F1
sVthings
p273
F7
sVhony
p274
F1
sVstiffe
p275
F1
sVtops
p276
F1
sVconsents
p277
F1
sVeye-sight
p278
F2
sVsupper
p279
F3
sVthee?
p280
F3
sVthing?
p281
F1
sVintrusion
p282
F1
sVseene:
p283
F1
sValas,
p284
F2
sVthing.
p285
F1
sVthing,
p286
F2
sVdeafe
p287
F2
sVseene,
p288
F2
sVliuery
p289
F1
sVtherewithall
p290
F1
sVsleepe
p291
F8
sVenters
p292
F1
sVswear'st,
p293
F1
sVease
p294
F2
sVhad
p295
F17
sVhay
p296
F1
sVprison
p297
F1
sVhap
p298
F2
sVeast
p299
F1
sVcourtcubbord,
p300
F1
sVfortie
p301
F1
sVsycamour,
p302
F1
sVchuse
p303
F3
sVbirth
p304
F1
sVdesire
p305
F2
sVha,
p306
F2
sVha:
p307
F1
sVha?
p308
F1
sVenter,
p309
F1
sVenter.
p310
F15
sVpensill,
p311
F1
sVright
p312
F4
sVold
p313
F36
sVpeople
p314
F1
sVconfesse,
p315
F1
sVenemies
p316
F1
sVperchance
p317
F1
sVfor
p318
F217
sVproroged
p319
F1
sVfoe
p320
F2
sVexposition
p321
F1
sVserpents
p322
F1
sVsower
p323
F2
sVwofull,
p324
F2
sVenemie,
p325
F1
sVtooke:
p326
F1
sVcrow,
p327
F2
sVlefte
p328
F1
sVenemie?
p329
F1
sVseruingmen.
p330
F1
sVfalls
p331
F1
sVcatcht
p332
F1
sVcitizens
p333
F3
sVo
F134
sVmeddle
p334
F1
sVright?
p335
F1
sVnought
p336
F1
sVfaries
p337
F1
sVkisse
p338
F10
sVtwentie
p339
F1
sVsencelesse
p340
F1
sVdespised
p341
F1
sVlay,
p342
F1
sVblow.
p343
F1
sVarray,
p344
F1
sVneighbor-stained
p345
F1
sVhappy
p346
F8
sViourney,
p347
F1
sVfrighted,
p348
F1
sVoffer
p349
F2
sVso,
p350
F11
sVso.
p351
F2
sVso:
p352
F2
sVbarke
p353
F1
sVso?
p354
F8
sVhall,
p355
F2
sVdeceiu'd,
p356
F2
sVsinglenesse
p357
F1
sVignorance,
p358
F1
sVwait,
p359
F1
sVdisgrace
p360
F1
sVmoderne
p361
F1
sVvntalkt
p362
F1
sVeloquence:
p363
F1
sVwarme
p364
F3
sVl[ord].
p365
F1
sVmistris
p366
F1
sVminds,
p367
F1
sVspade.
p368
F1
sVsmell
p369
F1
sVintend
p370
F1
sVpalme
p371
F1
sVvaliant,
p372
F1
sVvariable
p373
F1
sVtane,
p374
F1
sVneeces:
p375
F1
sVtime
p376
F20
sVpush
p377
F1
sVstay,
p378
F4
sVthou'se
p379
F1
sVstay.
p380
F2
sVconsort'st
p381
F1
sVbut-shaft,
p382
F1
sVstay?
p383
F1
sVstay;
p384
F1
sVpoore
p385
F15
sVpathway,
p386
F1
sVhowlings
p387
F1
sVdatelesse
p388
F1
sVhasell
p389
F1
sVchild?
p390
F1
sVfarre
p391
F2
sVchild,
p392
F9
sVminute
p393
F3
sVmou'd
p394
F3
sVtoade,
p395
F1
sVteat
p396
F1
sVaugmenting
p397
F1
sVcooke
p398
F2
sVmoueth
p399
F1
sVburneth
p400
F1
sVbe
p401
F201
sVyard,
p402
F1
sVvenge
p403
F1
sVcam'st
p404
F2
sVtrow
p405
F1
sVtartars
p406
F1
sVvpon
p407
F42
sVbehoouefull
p408
F1
sValone
p409
F4
sValong
p410
F1
sVvtter
p411
F1
sVaxe,
p412
F1
sVbeauties,
p413
F1
sVharke
p414
F4
sVbloody
p415
F4
sVpurblind
p416
F1
sVbeauties:
p417
F1
sVdearely,
p418
F1
sVangry
p419
F1
sVwooe
p420
F1
sVopposed
p421
F1
sVscope
p422
F1
sVvertuous:
p423
F1
sVmoodie
p424
F1
sVwicked
p425
F1
sVboyes,
p426
F1
sVblood?
p427
F1
sVcats,
p428
F1
sVcats.
p429
F1
sVpratest
p430
F1
sVblood.
p431
F1
sVblood,
p432
F2
sVfollowing
p433
F1
sVadmired
p434
F1
sVstole
p435
F1
sVspeakes:
p436
F1
sVwinter
p437
F1
sVcanopie
p438
F1
sVspeakes.
p439
F1
sVspeakes,
p440
F1
sVdoome
p441
F2
sVeffeminate,
p442
F1
sVendite
p443
F1
sVredresse.
p444
F1
sVdate
p445
F3
sVsuch
p446
F44
sVassunder:
p447
F1
sVhide:
p448
F1
sVspeakest
p449
F1
sVrude,
p450
F1
sVso
p451
F123
sVtruce
p452
F1
sVearly?
p453
F1
sVlawrence,
p454
F1
sVlawrence.
p455
F2
sVobscur'd
p456
F1
sVconceal'd
p457
F2
sVearly,
p458
F1
sVyeare
p459
F2
sVlawrence?
p460
F1
sVwindes,
p461
F1
sVvertues
p462
F1
sVdead?
p463
F1
sVthumb
p464
F2
sVdid,
p465
F2
sVdead.
p466
F2
sVdead,
p467
F18
sVtroubled
p468
F1
sVinto
p469
F9
sVyouth,
p470
F2
sVwormesmeat
p471
F1
sVthine,
p472
F2
sVfiue
p473
F5
sVsorted
p474
F1
sVreckoning
p475
F1
sVmilke,
p476
F1
sVdido
p477
F1
sVambling.
p478
F1
sVquarter
p479
F1
sVbrags
p480
F2
sVhora.
p481
F1
sVbriefly,
p482
F1
sVreuolt,
p483
F1
sVbumpe
p484
F1
sVsiege
p485
F2
sVscarres
p486
F1
sVquite
p487
F3
sVswong
p488
F1
sVcurtesie
p489
F2
sVreuolts
p490
F1
sVmercy,
p491
F3
sVproperer
p492
F1
sVone
p493
F52
sVfoole,
p494
F3
sVspokes
p495
F1
sVspanish
p496
F1
sVopen
p497
F4
sVcheekes,
p498
F4
sVcity
p499
F1
sVbite
p500
F8
sVstifled
p501
F1
sVon,
p502
F3
sVspoke,
p503
F1
sVmuch,
p504
F4
sVfooles
p505
F2
sVafford:
p506
F1
sVmuch:
p507
F2
sVfamine
p508
F1
sVdamned
p509
F3
sVpage.
p510
F3
sVraines
p511
F1
sVtasted
p512
F1
sVargument
p513
F1
sVsad
p514
F3
sVauroras
p515
F1
sVpage?
p516
F1
sVsay
p517
F39
sVburied
p518
F3
sVafternoone
p519
F1
sVsaw
p520
F10
sVlaw,
p521
F2
sVlaw.
p522
F4
sVsport
p523
F2
sVbad?
p524
F2
sVaside
p525
F1
sVnote
p526
F3
sVgoodman
p527
F1
sVtremble,
p528
F1
sVlaw:
p529
F1
sVwanting
p530
F2
sVtouch,
p531
F1
sVvrg'd
p532
F2
sVknew
p533
F3
sVnice;
p534
F1
sVgentleman-like
p535
F1
sVnot?
p536
F1
sVsale
p537
F1
sVsomething,
p538
F1
sVnot,
p539
F21
sVnot.
p540
F4
sVsalt
p541
F2
sVlogicke?
p542
F1
sVwalking
p543
F1
sVcleares,
p544
F1
sVhoope,
p545
F1
sVmerit
p546
F2
sVlife-wearie-taker
p547
F1
sVbright
p548
F3
sVscarce
p549
F1
sVkinsman.
p550
F2
sVweapons
p551
F1
sVslow
p552
F1
sVteare
p553
F5
sVemperour.
p554
F1
sVknaue
p555
F2
sVpresse
p556
F2
sVoutrage
p557
F1
sVquickely
p558
F1
sVkinsmans
p559
F1
sVgreeuances:
p560
F1
sVassistant
p561
F1
sVwindowes
p562
F1
sVrepli'st:
p563
F1
sVimportun'd
p564
F1
sVblind,
p565
F3
sVingrossing
p566
F1
sVborrow
p567
F1
sVcarrion
p568
F1
sVwhere
p569
F46
sVbraggart,
p570
F1
sVselfe-wild
p571
F1
sVvnsubstantiall
p572
F1
sVmoone
p573
F1
sVcompounds
p574
F1
sVdecke
p575
F1
sVman:
p576
F3
sVteene
p577
F1
sVwrought
p578
F2
sVaffecting
p579
F1
sVpresage
p580
F1
sVman.
p581
F20
sVrage,
p582
F2
sVmeates,
p583
F1
sVpunto
p584
F1
sVspare
p585
F1
sVmans
p586
F4
sVmany
p587
F14
sVwest,
p588
F1
sVforme,
p589
F1
sVpoultis
p590
F1
sVauncient
p591
F5
sVthen:
p592
F2
sVremoue
p593
F3
sVstretch
p594
F1
sVbreath
p595
F6
sVioyes
p596
F2
sVthousand
p597
F7
sVswords,
p598
F2
sVcomming
p599
F3
sVscath
p600
F1
sVlye
p601
F3
sVplagues,
p602
F1
sVwritten.
p603
F1
sVwritten,
p604
F2
sVbirth?
p605
F1
sVgooden?
p606
F1
sVmarchpane,
p607
F1
sVbrow
p608
F1
sVpinke
p609
F1
sVbirth,
p610
F2
sVlimping
p611
F1
sVlost:
p612
F1
sVmaiden-heads,
p613
F1
sVbi'th'
p614
F1
sVshuts
p615
F1
sVdiscouer
p616
F1
sVnuptiall
p617
F1
sVsayle,
p618
F1
sVstreetes.
p619
F1
sVtransgression.
p620
F1
sVshut.
p621
F1
sVsummer
p622
F2
sVyouthfull
p623
F2
sVbeing
p624
F26
sVdiuell
p625
F1
sVhapplie
p626
F1
sV(i
p627
F2
sVdisperse
p628
F1
sVwreake
p629
F1
sViule
p630
F1
sVlengthens
p631
F1
sVghostly
p632
F4
sVstrange,
p633
F2
sVneuer
p634
F19
sVhatefull
p635
F4
sVworld
p636
F9
sVdare
p637
F3
sVdeath-darting
p638
F1
sVstranger
p639
F1
sVtombes
p640
F1
sVliu'd
p641
F1
sVshrine,
p642
F1
sViul.
p643
F97
sVseuerall
p644
F1
sVthinke
p645
F19
sVcrown'd
p646
F1
sVthinks
p647
F1
sVexit
p648
F8
sVdisturb'd
p649
F1
sVpower
p650
F3
sVsprung
p651
F1
sVleeue
p652
F1
sVworld-wearied
p653
F1
sVretaine
p654
F1
sVact
p655
F1
sVsuch,
p656
F1
sVburning
p657
F2
sVanothers
p658
F3
sVlent
p659
F3
sVencampe
p660
F1
sVforehead,
p661
F1
sVwit:
p662
F2
sVparties
p663
F1
sVwit,
p664
F5
sVwit.
p665
F1
sVvnto
p666
F8
sVlye,
p667
F1
sVher
p668
F138
sVfiend!
p669
F1
sVabuse.
p670
F1
sVhee
p671
F1
sVdarke:
p672
F1
sVlyes
p673
F1
sVplucke
p674
F1
sVwits
p675
F3
sVchildes
p676
F1
sVbeginners
p677
F1
sVplucks
p678
F1
sVhath,
p679
F2
sVanother,
p680
F2
sVwith
p681
F244
sVrage
p682
F1
sVhe?
p683
F2
sVwithall
p684
F1
sVsisters:
p685
F1
sVimpute
p686
F1
sVhe,
p687
F4
sVhaughtie
p688
F1
sVrust
p689
F1
sVwalke
p690
F4
sVfright
p691
F1
sVah
p692
F13
sVam
p693
F57
sVqualities:
p694
F1
sVan
p695
F63
sVas
p696
F149
sVat
p697
F64
sVminum,
p698
F1
sVtremble
p699
F1
sVdye,
p700
F1
sVeuerlasting
p701
F2
sVoh,
p702
F1
sVaccent:
p703
F1
sVpartizans,
p704
F1
sVwounds
p705
F1
sVbrotherhood
p706
F1
sVexild:
p707
F1
sVreuiu'd
p708
F2
sVneece
p709
F2
sVsayes,
p710
F1
sVtricke
p711
F1
sVcouer'd
p712
F1
sVfrier?
p713
F2
sVreturne,
p714
F1
sVreturne.
p715
F2
sVfrier.
p716
F1
sVfrier,
p717
F9
sVshunn'd,
p718
F1
sVhunting
p719
F1
sVvnderneath
p720
F2
sVto
p721
F546
sVsmile
p722
F2
sVcause,
p723
F1
sVfriers
p724
F2
sVcause?
p725
F1
sVcause:
p726
F1
sVamerce
p727
F1
sVlarge
p728
F1
sVthese
p729
F42
sVsmall
p730
F2
sVconceiue?
p731
F1
sVvse,
p732
F3
sVvnhallowed
p733
F1
sVpast
p734
F8
sVhonourable
p735
F4
sVtardie
p736
F1
sVclock
p737
F1
sVaduanced
p738
F1
sVnurse
p739
F21
sVfull
p740
F11
sVhoure
p741
F15
sVpittifull
p742
F1
sVieasts
p743
F1
sVhast
p744
F30
sValderman,
p745
F1
sVlustie
p746
F1
sVquicke,
p747
F1
sVquicke.
p748
F2
sVaqua-vitae?
p749
F1
sVcountie
p750
F14
sVnurs.
p751
F1
sVspake,
p752
F1
sVcherish.
p753
F1
sVaction
p754
F1
sVfollowed
p755
F1
sVvalentio,
p756
F1
sViustly
p757
F1
sVsubstance,
p758
F1
sVneere,
p759
F2
sVwatch?
p760
F1
sVknocke:
p761
F1
sVflowers,
p762
F1
sVflowers.
p763
F1
sVwatch.
p764
F4
sVgorgeous
p765
F1
sVherselfe.
p766
F1
sVmore
p767
F53
sVmarriage?
p768
F1
sVmarriage:
p769
F1
sVcompany
p770
F2
sVmarriage,
p771
F5
sVcunning
p772
F1
sVlookest
p773
F1
sVvnruly
p774
F1
sVwatcht
p775
F1
sVtwinckle
p776
F1
sVphisicke
p777
F1
sVprompt
p778
F1
sV(with
p779
F2
sVgallop
p780
F1
sVmeanes
p781
F6
sVhuge
p782
F1
sVhugh
p783
F1
sVdauncing
p784
F1
sVcreature
p785
F2
sVplant
p786
F1
sVstate,
p787
F2
sVbreth
p788
F1
sVmeane,
p789
F1
sVstate:
p790
F1
sVbalthazer?
p791
F1
sVchristall
p792
F1
sVspight,
p793
F1
sVspight.
p794
F1
sVtyrant:
p795
F1
sVtyrant,
p796
F1
sVcaue?
p797
F1
sValla
p798
F1
sVwronged,
p799
F1
sVcourse.
p800
F1
sVcourse,
p801
F2
sVtruth,
p802
F3
sVlicke
p803
F3
sVit.
p804
F3
sVrapier
p805
F2
sVit,
p806
F15
sVit?
p807
F2
sVrosaline
p808
F3
sVit:
p809
F7
sVit;
p810
F1
sVcommest
p811
F1
sVresort:
p812
F1
sVheire,
p813
F3
sVgreat,
p814
F1
sVcoarse:
p815
F2
sVhereafter
p816
F2
sVpensiue
p817
F1
sVall.
p818
F3
sVall,
p819
F3
sVcoarse,
p820
F4
sVall?
p821
F2
sVfound
p822
F3
sVall:
p823
F3
sVharlotry
p824
F1
sVparts,
p825
F1
sVbegger
p826
F1
sVoperation
p827
F1
sVnew-made
p828
F1
sVblacke
p829
F8
sVlookes,
p830
F1
sVnest
p831
F2
sVdispised
p832
F1
sVfiddlesticke,
p833
F1
sVrash,
p834
F1
sVworne
p835
F3
sVwean'd
p836
F1
sVagaine?
p837
F2
sVacquaint
p838
F1
sVagaine:
p839
F2
sVagaine;
p840
F1
sVmisse,
p841
F1
sVagaine,
p842
F8
sVagaine.
p843
F2
sVpaire
p844
F1
sVnumber
p845
F1
sVremember,
p846
F1
sVheads
p847
F3
sVthreatned
p848
F2
sVsaint
p849
F3
sVleaues
p850
F1
sVgaze.
p851
F1
sVwilde:
p852
F1
sVfirst:
p853
F1
sVdwell
p854
F3
sVgrace
p855
F4
sVakes,
p856
F1
sVhot?
p857
F1
sVsure,
p858
F1
sVhead;
p859
F1
sVtops,
p860
F1
sVmarriage
p861
F4
sVhot.
p862
F1
sVhot,
p863
F2
sVfights
p864
F2
sVbackeward
p865
F1
sVsacrific'd,
p866
F1
sVmortalls
p867
F2
sVsell
p868
F3
sVgloue
p869
F1
sVwish,
p870
F1
sVsharpe
p871
F2
sVtarrie
p872
F1
sVdamnation,
p873
F1
sVbrace
p874
F1
sVfellowes
p875
F1
sVplay
p876
F6
sVsiluer
p877
F10
sVfight,
p878
F1
sVwedded
p879
F2
sVfight.
p880
F3
sVshadie
p881
F1
sVarithmeticke,
p882
F1
sVsmocke
p883
F1
sVfunerall:
p884
F1
sVgold
p885
F2
sVmercu.
p886
F1
sVyfaith.
p887
F1
sVpleasure:
p888
F1
sVdoue-feather'd
p889
F1
sVstreames
p890
F1
sVtragedie
p891
F2
sVbalefull
p892
F1
sVheartlesse
p893
F1
sVordained
p894
F1
sVcounterfait
p895
F1
sVsunne
p896
F2
sVremedy
p897
F1
sVclosely
p898
F1
sVfleckled
p899
F1
sVbody,
p900
F2
sVenemy
p901
F1
sVheretiques
p902
F1
sVcry
p903
F2
sVwrite,
p904
F1
sVcease
p905
F2
sVtowards:
p906
F1
sVciuill
p907
F3
sVset
p908
F7
sViniur'd
p909
F1
sVheauen
p910
F22
sVsee
p911
F33
sVsea
p912
F2
sVpetruchio
p913
F1
sVknees
p914
F2
sVspirits
p915
F1
sVidle
p916
F1
sVtemp'ring
p917
F1
sVpreseruing
p918
F1
sVpreuailes
p919
F1
sVinfaith
p920
F1
sVgoodfellowes:
p921
F1
sVambiguities,
p922
F1
sVdeath
p923
F34
sVvnder
p924
F6
sVlast
p925
F5
sVthou
p926
F270
sVmistris?
p927
F1
sVweary,
p928
F1
sVlash
p929
F1
sVmistris,
p930
F1
sVspirit,
p931
F1
sVwhole
p932
F3
sVbell
p933
F2
sVacted
p934
F1
sVnam'd,
p935
F1
sVhollow
p936
F3
sVbones?
p937
F1
sVchurch
p938
F4
sVsees
p939
F1
sVremoued,
p940
F1
sVcheekes
p941
F2
sVsquirrel
p942
F1
sVfire
p943
F6
sVsounding:
p944
F1
sVtowne
p945
F2
sVenpearced
p946
F1
sVdrawne
p947
F1
sVpresses
p948
F2
sVcheeke,
p949
F1
sVstraight
p950
F4
sVforgetting
p951
F1
sVentents,
p952
F1
sVawaking)
p953
F1
sVvow
p954
F2
sVseru'd
p955
F2
sVchoking
p956
F1
sVverona,
p957
F4
sVmartir'd,
p958
F1
sVwall
p959
F3
sVleape
p960
F1
sVprophane
p961
F1
sVleapt
p962
F1
sVloue-deuouring
p963
F1
sVdriuing
p964
F1
sVnickname
p965
F1
sVmaid:
p966
F1
sVloathsome
p967
F3
sVyet.
p968
F1
sVperson
p969
F2
sVsadnesse
p970
F2
sVmaid,
p971
F4
sVveronas
p972
F1
sVdoctrine,
p973
F1
sVmaiest
p974
F3
sVwedded.
p975
F1
sVshowes;
p976
F1
sVtattred
p977
F1
sVspinners
p978
F1
sVveiw,
p979
F1
sVgrandsire,
p980
F1
sVsignall
p981
F1
sVdanke
p982
F1
sVburie
p983
F1
sVconueniently
p984
F1
sVcapulet
p985
F8
sVthee.
p986
F6
sVthee,
p987
F20
sVgreefe
p988
F1
sVcouple
p989
F1
sVexhales,
p990
F1
sVmischance
p991
F1
sValreadie
p992
F1
sVthee:
p993
F6
sVbeautie
p994
F2
sVcarriage:
p995
F1
sVcontinue
p996
F1
sVsubmission:
p997
F1
sVscape
p998
F2
sVblisse
p999
F2
sVtell.
p1000
F1
sVcanst
p1001
F3
sVnoates
p1002
F1
sVnecessaries
p1003
F1
sVsight
p1004
F5
sVcurious
p1005
F1
sVpale
p1006
F9
sVpredicament,
p1007
F1
sVonely
p1008
F9
sVgrashoppers,
p1009
F1
sVreligion
p1010
F1
sVmight,
p1011
F1
sVmoone,
p1012
F3
sVgreene,
p1013
F2
sVsigh,
p1014
F1
sVsamp.
p1015
F11
sVby
p1016
F106
sVrapiers
p1017
F1
sVheere:
p1018
F1
sVfoule
p1019
F4
sVletter
p1020
F8
sVfleckel'd
p1021
F1
sVwofull
p1022
F6
sVchide
p1023
F5
sVby?
p1024
F1
sVlegs:
p1025
F1
sVdaunce.
p1026
F1
sVopen,
p1027
F2
sVball,
p1028
F1
sVhood,
p1029
F2
sVside,
p1030
F1
sVreconcile
p1031
F1
sVraging
p1032
F1
sVlikewise
p1033
F2
sVhaunt
p1034
F1
sVpreuent.
p1035
F1
sVpreast
p1036
F1
sVside:
p1037
F2
sVchat
p1038
F1
sVslaunder,
p1039
F1
sVdissemblers,
p1040
F1
sVhell:
p1041
F1
sVscrape
p1042
F1
sVwalke?
p1043
F1
sVministred
p1044
F1
sVhell,
p1045
F3
sVvncle,
p1046
F1
sVlucio
p1047
F1
sVago
p1048
F1
sVphaeton
p1049
F1
sVage
p1050
F3
sV3.mu.
p1051
F1
sVarriues
p1052
F1
sVfresh
p1053
F2
sVvrg'd:
p1054
F1
sVmenace
p1055
F1
sVblest,
p1056
F2
sVfoorth
p1057
F1
sVincorporate
p1058
F1
sVcrymson
p1059
F1
sVscratch
p1060
F1
sVgriefes,
p1061
F2
sVgladly
p1062
F2
sVconiure
p1063
F4
sVyoung
p1064
F19
sVsend
p1065
F13
sVdislike
p1066
F1
sVsent
p1067
F2
sVtorture
p1068
F2
sVmarry
p1069
F6
sVwalles,
p1070
F1
sVods
p1071
F1
sVtyb.
p1072
F3
sVrul'd
p1073
F3
sVthat,
p1074
F8
sVthat.
p1075
F1
sVcarrion,
p1076
F1
sVhenceforth
p1077
F1
sVthat?
p1078
F4
sVthat:
p1079
F1
sVall-cheering
p1080
F1
sVbird
p1081
F1
sVcitie
p1082
F1
sVspake
p1083
F1
sVcontagion,
p1084
F1
sVlet
p1085
F44
sVgreat
p1086
F8
sVciti.
p1087
F2
sVmakes
p1088
F12
sVgrowes
p1089
F2
sVmanies
p1090
F1
sVcounsell
p1091
F2
sVseedes,
p1092
F1
sVmaids,
p1093
F2
sVblister'd
p1094
F1
sVconfidence
p1095
F1
sVsea-sicke
p1096
F1
sVnext
p1097
F5
sVfrownes,
p1098
F1
sVdoubt
p1099
F3
sVforefathers
p1100
F1
sVbabe
p1101
F1
sVsir.
p1102
F2
sVsir,
p1103
F28
sVsir:
p1104
F3
sVsir;
p1105
F1
sVsir?
p1106
F6
sVdiuideth
p1107
F1
sVthis
p1108
F197
sVchallenge
p1109
F2
sVcheere,
p1110
F1
sVfiue.
p1111
F1
sVthin
p1112
F1
sVflies:
p1113
F1
sVbene
p1114
F1
sVneare
p1115
F1
sVweaker
p1116
F1
sVbent
p1117
F1
sVnone?
p1118
F1
sVnone;
p1119
F1
sVhigh
p1120
F8
sV(strange
p1121
F1
sVslip
p1122
F1
sVnone.
p1123
F1
sVnone,
p1124
F3
sVtrumpet
p1125
F1
sVprocures
p1126
F1
sVhumerous
p1127
F1
sVdelay
p1128
F1
sVcourtiers
p1129
F2
sVayrie
p1130
F2
sVsingular
p1131
F1
sVstop
p1132
F6
sVpurpose.
p1133
F1
sVpigs
p1134
F1
sVfits
p1135
F1
sVties
p1136
F1
sVben.
p1137
F63
sVvnaccustom'd
p1138
F3
sVpale,
p1139
F1
sVwrit
p1140
F4
sVpale:
p1141
F1
sVhoares
p1142
F1
sVplats
p1143
F1
sVkeies,
p1144
F1
sVpothecarie,
p1145
F1
sVvpturned
p1146
F1
sVomnes
p1147
F1
sVdispose
p1148
F1
sVtheame
p1149
F1
sVwithall:
p1150
F1
sVhoare,
p1151
F1
sVcage
p1152
F1
sVtransparent
p1153
F1
sVwithall,
p1154
F2
sVwhither
p1155
F1
sVtruth
p1156
F2
sVvntimely
p1157
F5
sVbooke
p1158
F5
sVdoing
p1159
F2
sVthem;
p1160
F1
sVtother
p1161
F1
sVbooks
p1162
F1
sVseuerity,
p1163
F1
sVgreene
p1164
F3
sVfrowne
p1165
F1
sVbone,
p1166
F2
sVshut
p1167
F3
sVpeeces.
p1168
F1
sVgraze
p1169
F1
sVtempt
p1170
F1
sVthrust
p1171
F3
sVmet,
p1172
F2
sVoportunitie,
p1173
F1
sVhasten
p1174
F1
sVthings,
p1175
F1
sVcould
p1176
F16
sVspild
p1177
F1
sVsatisfied,
p1178
F1
sVheareth
p1179
F1
sVstraining
p1180
F1
sVaffliction
p1181
F1
sVbeguild,
p1182
F1
sVdares,
p1183
F1
sVtwo,
p1184
F3
sVtorture,
p1185
F2
sVtwo:
p1186
F1
sV(exquisit)
p1187
F1
sVowne.
p1188
F3
sVowne,
p1189
F2
sVstarke,
p1190
F1
sVpentycost
p1191
F1
sVinuite
p1192
F1
sVfeast,
p1193
F3
sVowne?
p1194
F1
sVproud,
p1195
F1
sVslaine
p1196
F7
sVgau'st
p1197
F1
sVproud?
p1198
F1
sVdiuers
p1199
F1
sVgentle
p1200
F13
sVdaies
p1201
F6
sVbaggage,
p1202
F2
sVboundlesse
p1203
F1
sVaprill
p1204
F1
sVcozen
p1205
F1
sVgone?
p1206
F2
sVdinner,
p1207
F1
sVvndone.
p1208
F1
sVwendsday
p1209
F2
sVvttered,
p1210
F1
sVhatred,
p1211
F1
sVbred
p1212
F1
sVface
p1213
F10
sVsoule,
p1214
F7
sVearely
p1215
F2
sVwounded
p1216
F1
sVcoze,
p1217
F2
sVheed,
p1218
F2
sV'ist
p1219
F2
sVforsworne
p1220
F2
sVnaturall
p1221
F1
sVreturn'd
p1222
F1
sVbring
p1223
F10
sVbrine
p1224
F1
sVmean,
p1225
F1
sVrough
p1226
F4
sVswits
p1227
F2
sVshould
p1228
F48
sVvnwasht
p1229
F1
sVhope
p1230
F2
sVmeant
p1231
F2
sVfamiliar
p1232
F1
sVmeane
p1233
F8
sVwring
p1234
F1
sVliuely
p1235
F1
sVstuft
p1236
F1
sVnets.
p1237
F1
sVheauinesse,
p1238
F1
sVbutton,
p1239
F1
sVonce,
p1240
F4
sVonce.
p1241
F1
sVend,
p1242
F2
sVend.
p1243
F2
sVbehalfe,
p1244
F1
sVtauerne,
p1245
F1
sVyoule
p1246
F4
sVrais'd
p1247
F1
sVperforce,
p1248
F1
sVweedes,
p1249
F1
sVtaken,
p1250
F1
sVstreame
p1251
F1
sVbrall:
p1252
F1
sVyeelding
p1253
F1
sVvnhappie,
p1254
F1
sVsteru'd
p1255
F1
sVwhispering
p1256
F1
sVmoued
p1257
F1
sVtoyle,
p1258
F1
sVbeleeue
p1259
F3
sVmoues
p1260
F1
sVbigger:
p1261
F1
sVfeather
p1262
F1
sVdescent,
p1263
F1
sVcrow'd,
p1264
F1
sVcherishing:
p1265
F1
sVneighbour
p1266
F1
sVoccupie
p1267
F1
sVwast?
p1268
F1
sVloathed
p1269
F2
sVmoue.
p1270
F1
sVmoue,
p1271
F2
sVwast,
p1272
F1
sVlustier
p1273
F1
sVripe
p1274
F1
sVreuell
p1275
F1
sVsad,
p1276
F1
sVimmoderately
p1277
F1
sVvs
p1278
F22
sVsits
p1279
F2
sVsad?
p1280
F1
sVvalour
p1281
F2
sVof,
p1282
F1
sVdigging
p1283
F1
sVmusitians
p1284
F1
sVsit,
p1285
F3
sVdeceast,
p1286
F1
sVaym'd
p1287
F1
sVlights,
p1288
F2
sVsit;
p1289
F1
sVdust
p1290
F1
sVstucatho
p1291
F1
sVoff
p1292
F6
sVtrudge
p1293
F1
sVwaking,
p1294
F2
sVoft
p1295
F4
sVpie,
p1296
F1
sVroome
p1297
F1
sVclocke
p1298
F1
sVflesh
p1299
F2
sVknaue,
p1300
F1
sVenemy:
p1301
F1
sVneedie
p1302
F2
sVknaue:
p1303
F1
sVafflicted
p1304
F1
sVwed
p1305
F1
sVwithall.
p1306
F1
sVcombine
p1307
F1
sVpractise
p1308
F1
sVrights,
p1309
F1
sVinundation
p1310
F1
sVnewes:
p1311
F2
sVfairies
p1312
F1
sVnewes?
p1313
F4
sVblubbring,
p1314
F1
sVdeede,
p1315
F1
sVhaue
p1316
F120
sVnewes,
p1317
F3
sVearthen
p1318
F1
sVleuell
p1319
F1
sVwe,
p1320
F1
sVkil'd,
p1321
F2
sVcountie,
p1322
F2
sVinconstant
p1323
F3
sVresidence,
p1324
F1
sVportly
p1325
F1
sVsuspition
p1326
F1
sVvse
p1327
F11
sVwinking
p1328
F1
sVhie,
p1329
F1
sVextreame
p1330
F1
sVpassion
p1331
F1
sVslaine:
p1332
F1
sVvs?
p1333
F3
sVnuts,
p1334
F1
sVvs,
p1335
F4
sVcoldly
p1336
F1
sVvs.
p1337
F1
sVswift,
p1338
F1
sVvntangled,
p1339
F1
sVfarewell:
p1340
F2
sVtraces
p1341
F1
sVdoe,
p1342
F2
sVfarewell,
p1343
F7
sVfarewell.
p1344
F3
sVsayling
p1345
F1
sValliance
p1346
F1
sVletters
p1347
F6
sVskaines
p1348
F1
sVmiscarried
p1349
F1
sVmasterlesse,
p1350
F1
sVplace?
p1351
F2
sVpeters
p1352
F3
sVplace,
p1353
F4
sVerrand:
p1354
F1
sVletter?
p1355
F1
sVhastie
p1356
F1
sVmer.
p1357
F59
sVletter.
p1358
F1
sVletter,
p1359
F4
sVthey,
p1360
F2
sVcount
p1361
F4
sVpeter?
p1362
F3
sVtossed
p1363
F1
sVnaturall,
p1364
F1
sVsmooth
p1365
F2
sVtriumphant
p1366
F1
sVpeter,
p1367
F1
sVpeter.
p1368
F6
sVmonument
p1369
F4
sVbaskets.
p1370
F1
sVchurch,
p1371
F3
sVbearing
p1372
F1
sVtide?
p1373
F1
sVdenote
p1374
F1
sVbloud
p1375
F4
sVmaidenhoods,
p1376
F1
sVdidst
p1377
F2
sVdeadly
p1378
F2
sVgouern'd
p1379
F1
sVlately
p1380
F1
sVbehold
p1381
F6
sVdisguis'd
p1382
F1
sVnurse:
p1383
F2
sVsemblance
p1384
F1
sVnurse?
p1385
F3
sVmonday
p1386
F1
sVin;
p1387
F1
sVoppression
p1388
F2
sVin,
p1389
F8
sVin.
p1390
F1
sVphantacies,
p1391
F1
sVwrenching
p1392
F1
sVnurse.
p1393
F20
sVnurse,
p1394
F18
sVcompare,
p1395
F1
sVcompare:
p1396
F1
sVchild
p1397
F4
sVblisters
p1398
F1
sVmansion
p1399
F2
sVlace
p1400
F1
sVdraue
p1401
F1
sVsimplenesse
p1402
F1
sVtickle
p1403
F1
sVbanisht
p1404
F3
sVknowne,
p1405
F1
sVamorous
p1406
F1
sVdisobedient
p1407
F2
sVmoodie,
p1408
F1
sVfalles.
p1409
F1
sVquarrelling?
p1410
F1
sVknowest
p1411
F3
sVpinck
p1412
F1
sVfa.
p1413
F11
sVspech
p1414
F1
sVseale
p1415
F2
sVmistresse
p1416
F6
sVnatiue
p1417
F2
sVwaies
p1418
F1
sVlesse
p1419
F5
sVvtruuio,
p1420
F1
sVgooden
p1421
F1
sVmurther
p1422
F3
sVliniament,
p1423
F1
sVtold
p1424
F2
sVdignified.
p1425
F1
sVfathers,
p1426
F1
sVkindred
p1427
F1
sVfathers?
p1428
F1
sVbacks,
p1429
F1
sVsinke
p1430
F2
sVeskales,
p1431
F1
sVdaughter
p1432
F9
sVagat-stone,
p1433
F1
sVclocke:
p1434
F1
sVcommisseration,
p1435
F1
sVgentleman,
p1436
F5
sVliege,
p1437
F1
sVgodigoden,
p1438
F1
sVscuruie
p1439
F1
sValacke
p1440
F5
sVgentleman?
p1441
F1
sVgentleman:
p1442
F4
sVpylot,
p1443
F1
sVaethiops
p1444
F1
sVword
p1445
F15
sVere
p1446
F25
sVpunish'd
p1447
F1
sVnoyse
p1448
F3
sVla.
p1449
F9
sVserpent
p1450
F1
sVcurtesie,
p1451
F1
sVdispleas'd
p1452
F1
sVdavid
p1453
F1
sVpricking,
p1454
F1
sVhast:
p1455
F1
sVhast?
p1456
F3
sVreioyce
p1457
F2
sVscoena
p1458
F1
sVgapes
p1459
F1
sVaccustom'd
p1460
F1
sVif
p1461
F82
sVhast,
p1462
F8
sVladder
p1463
F1
sVafter
p1464
F3
sVlay
p1465
F9
sVweapons:
p1466
F1
sVcustome
p1467
F1
sVlaw
p1468
F9
sVlap
p1469
F1
sVhasts
p1470
F1
sVpassado
p1471
F1
sVfan
p1472
F1
sVwouldst
p1473
F1
sVtipto
p1474
F1
sVoffice
p1475
F2
sVconsent
p1476
F2
sVstrain'd
p1477
F1
sVsatisfied
p1478
F3
sVbrawling
p1479
F1
sVwondring
p1480
F1
sVthen
p1481
F121
sVthem
p1482
F30
sVthee
p1483
F103
sVyoung,
p1484
F2
sVthey
p1485
F53
sVvanisht
p1486
F1
sVore-perch
p1487
F1
sVdrudge,
p1488
F1
sVoffi.
p1489
F1
sVmangled
p1490
F2
sVshort,
p1491
F1
sVslew
p1492
F5
sVwhining
p1493
F1
sVforty
p1494
F1
sVstrangers
p1495
F1
sVmedicine
p1496
F1
sVbeloued,
p1497
F1
sVforth
p1498
F8
sVeast:
p1499
F1
sVancient
p1500
F3
sVayre
p1501
F2
sVdrie-beate
p1502
F1
sVfellow?
p1503
F1
sVfellow,
p1504
F3
sVcoach-makers:
p1505
F1
sV(as
p1506
F1
sVintercession
p1507
F1
sVi.
p1508
F3
sVanother
p1509
F7
sVpower,
p1510
F1
sVpower:
p1511
F1
sVmerc.
p1512
F1
sVdimne
p1513
F1
sVdogs
p1514
F1
sVpinion'd
p1515
F1
sVioynts?
p1516
F1
sVmercy
p1517
F2
sVdog,
p1518
F2
sVmedler
p1519
F1
sViron
p1520
F1
sVtackled
p1521
F1
sVbad'st
p1522
F1
sVmaide,
p1523
F1
sVmanner
p1524
F1
sVcircle,
p1525
F1
sVstrength
p1526
F5
sVfeast:
p1527
F1
sVyeeres
p1528
F1
sVbenuolio.
p1529
F3
sVbenuolio,
p1530
F9
sViudgement
p1531
F3
sVaccesse
p1532
F1
sVcontent,
p1533
F1
sVmaiden
p1534
F3
sVenioyn'd
p1535
F1
sVcircled
p1536
F1
sVmaides
p1537
F3
sVinter'd,
p1538
F1
sVdisturbe
p1539
F2
sVgray-coated
p1540
F1
sVgiuing?
p1541
F1
sVvessels,
p1542
F1
sVcarie
p1543
F1
sVyea
p1544
F4
sVhither?
p1545
F1
sVvndertake
p1546
F1
sVpursuing
p1547
F1
sVrun,
p1548
F1
sVdo
p1549
F67
sVleisure
p1550
F1
sVfrowning
p1551
F2
sVinuironed
p1552
F1
sVvowell
p1553
F1
sVcheckring
p1554
F2
sVruns
p1555
F1
sVgyrle,
p1556
F2
sVgaue
p1557
F4
sVquiuers,
p1558
F1
sVdies,
p1559
F1
sVcinthias
p1560
F1
sVmiserable
p1561
F1
sVfoe:
p1562
F1
sVaway
p1563
F13
sVgentleman
p1564
F4
sVbehold.
p1565
F1
sVsoles,
p1566
F1
sVtainted
p1567
F1
sVfoe.
p1568
F1
sVfoe,
p1569
F1
sVloue-performing
p1570
F1
sVwe
p1571
F62
sVwo
p1572
F2
sVdepend,
p1573
F1
sVstaire,
p1574
F1
sVterme
p1575
F1
sVkitchen
p1576
F1
sVfoes
p1577
F1
sVile
p1578
F72
sVill
p1579
F11
sVseal'd
p1580
F1
sVdraw,
p1581
F1
sVere,
p1582
F1
sVgentlewoman,
p1583
F2
sVstainlesse
p1584
F1
sVenterchanging
p1585
F1
sVspeak
p1586
F1
sVcondemned
p1587
F1
sVknowne
p1588
F3
sVplantan
p1589
F1
sVsorrowes
p1590
F2
sVthrice
p1591
F1
sVwide,
p1592
F1
sVhaue:
p1593
F1
sVsignior
p1594
F1
sVstolne
p1595
F2
sVsampson
p1596
F1
sVvoice
p1597
F1
sVfaith,
p1598
F2
sVdiscourses
p1599
F1
sVraigne;
p1600
F1
sVlibertie.
p1601
F1
sVfaith?
p1602
F1
sVexile
p1603
F5
sVraigne,
p1604
F1
sVstint
p1605
F1
sVinfold
p1606
F1
sVvnfold
p1607
F1
sVdescend
p1608
F2
sVth'
p1609
F3
sVmonarch
p1610
F1
sValiue,
p1611
F1
sVthursday?
p1612
F1
sVhang
p1613
F4
sVhand
p1614
F11
sViour,
p1615
F1
sVthursday,
p1616
F3
sVstrait:
p1617
F1
sVcon.
p1618
F2
sVkept
p1619
F1
sVthy
p1620
F178
sVplate:
p1621
F1
sVseest,
p1622
F1
sVhumbly
p1623
F1
sVdrie
p1624
F3
sVthe
p1625
F659
sVsweare
p1626
F6
sVthanke
p1627
F6
sVprogresse,
p1628
F1
sVclowne.
p1629
F1
sVassoone
p1630
F3
sVgreg.
p1631
F10
sVcap.
p1632
F36
sVthanks
p1633
F1
sVpoyson
p1634
F10
sVadding
p1635
F1
sVhayre,
p1636
F1
sVspread
p1637
F1
sVrighteous
p1638
F1
sVboxes
p1639
F1
sVgod.
p1640
F1
sVmocker
p1641
F1
sVgod,
p1642
F3
sVopression
p1643
F1
sVgod!
p1644
F3
sVnight
p1645
F31
sVantique
p1646
F2
sVsends
p1647
F1
sVconstables
p1648
F1
sVhuswife
p1649
F1
sVsixe
p1650
F1
sVbore
p1651
F2
sVpurple
p1652
F1
sVdoomesday,
p1653
F1
sVmonth,
p1654
F1
sVdoomesday:
p1655
F1
sVdayes
p1656
F3
sVweb,
p1657
F1
sVgraue?
p1658
F1
sVgraue:
p1659
F2
sVgraue;
p1660
F1
sVtheirs
p1661
F1
sVgraue,
p1662
F7
sVgraue.
p1663
F2
sVhearbes,
p1664
F1
sVmutinie
p1665
F1
sVsparing
p1666
F1
sVbound
p1667
F5
sVcries,
p1668
F1
sVstumble
p1669
F1
sVmantua,
p1670
F7
sVmantua.
p1671
F2
sVway
p1672
F6
sVgyues,
p1673
F1
sVwas
p1674
F46
sVsame?
p1675
F1
sVsnowy
p1676
F1
sVmurders,
p1677
F1
sVsame.
p1678
F1
sVsame,
p1679
F1
sVdyrges
p1680
F1
sVtrue
p1681
F21
sVmarrie
p1682
F13
sVwaies,
p1683
F1
sVwaile,
p1684
F1
sVcosen
p1685
F1
sVseigneur
p1686
F3
sVscore,
p1687
F1
sVpromised
p1688
F1
sVprayer
p1689
F2
sVbrother,
p1690
F1
sVsong,
p1691
F1
sVpoys'd
p1692
F1
sVbed.
p1693
F1
sVbed,
p1694
F12
sVholding
p1695
F1
sVbed;
p1696
F1
sVlesned
p1697
F1
sVbrothers
p1698
F2
sVwelcome
p1699
F6
sVlet's
p1700
F4
sVours,
p1701
F2
sVcornes:
p1702
F1
sVtogether
p1703
F1
sVcornes,
p1704
F1
sVdeuotion
p1705
F1
sVvnseene,
p1706
F1
sVieast
p1707
F1
sVfore-finger
p1708
F1
sVbold,
p1709
F1
sVbrow.
p1710
F1
sVbrow,
p1711
F2
sVgiddie,
p1712
F1
sVdance
p1713
F1
sVterror
p1714
F2
sVhellen
p1715
F1
sVrosemarie
p1716
F2
sVlims,
p1717
F1
sVtrouble
p1718
F2
sVconsorted
p1719
F1
sVpoyson,
p1720
F4
sVmatcht,
p1721
F2
sVchid'st
p1722
F1
sVturne
p1723
F12
sVcost
p1724
F1
sVtempest
p1725
F1
sVcurse
p1726
F1
sVsafety,
p1727
F1
sVappeare
p1728
F3
sVthinke,
p1729
F1
sVroaring
p1730
F2
sVchange
p1731
F4
sVsending
p1732
F1
sVmerriment
p1733
F1
sVyoke
p1734
F1
sVpuffes
p1735
F1
sVsowre
p1736
F2
sViocond
p1737
F1
sVvaulte,
p1738
F1
sVtower,
p1739
F1
sVstrooke
p1740
F1
sVmouse,
p1741
F3
sVhoure,
p1742
F4
sValacke,
p1743
F6
sVripening
p1744
F1
sVangels
p1745
F1
sVsoft,
p1746
F3
sVentrance
p1747
F1
sVmarke,
p1748
F3
sVretire,
p1749
F1
sVgentlemen,
p1750
F7
sVslay,
p1751
F1
sVbowles
p1752
F1
sVcat
p1753
F2
sVpurge
p1754
F1
sVcan
p1755
F37
sVcal
p1756
F2
sVhoures
p1757
F4
sVneere
p1758
F3
sVheart
p1759
F13
sVverona's
p1760
F1
sVheare
p1761
F21
sVheard
p1762
F2
sVfortunes
p1763
F3
sVserue
p1764
F5
sVwenches
p1765
F1
sVbleeding,
p1766
F1
sVbleeding.
p1767
F1
sVfreezes
p1768
F1
sVwrite
p1769
F1
sVseemes
p1770
F1
sVnose,
p1771
F1
sVornaments,
p1772
F2
sVwrong'st
p1773
F1
sVfortune,
p1774
F3
sVfortune:
p1775
F2
sVremember
p1776
F5
sVsolemne
p1777
F1
sVcandles
p1778
F1
sVmemory,
p1779
F1
sVwrit,
p1780
F3
sVno,
p1781
F6
sVno.
p1782
F1
sVindeed
p1783
F5
sVforfeit
p1784
F2
sVchopt
p1785
F1
sVended
p1786
F2
sVgoodmorrow
p1787
F1
sVno:
p1788
F3
sVcold
p1789
F6
sVstill
p1790
F13
sVbirds
p1791
F2
sVfestring
p1792
F1
sVforme
p1793
F3
sVacknowledge
p1794
F1
sVlikenesse
p1795
F3
sVwindow
p1796
F3
sVaccording
p1797
F1
sVbird,
p1798
F1
sVseal'd:
p1799
F1
sVtalk'st
p1800
F1
sVbucklers,
p1801
F1
sVnot
p1802
F232
sVcourtship
p1803
F1
sVnow
p1804
F65
sVnor
p1805
F18
sVstreaks
p1806
F1
sVtibalts:
p1807
F1
sVform,
p1808
F1
sVslaughtred?
p1809
F1
sVeleuen
p1810
F2
sVgoose
p1811
F3
sVskuruy
p1812
F1
sVcoales
p1813
F1
sVprolixitie,
p1814
F1
sVlooking
p1815
F1
sVgoodnight.
p1816
F3
sVgoodnight,
p1817
F6
sVfire,
p1818
F2
sVstage,
p1819
F1
sVfire:
p1820
F2
sVgroning
p1821
F1
sVshow,
p1822
F1
sVscarre
p1823
F1
sVhonest
p1824
F6
sVseest
p1825
F1
sVshow:
p1826
F1
sVoutcry
p1827
F1
sVwaxe
p1828
F1
sViron,
p1829
F1
sVblind
p1830
F2
sVflower,
p1831
F2
sVmadam
p1832
F10
sVrind
p1833
F1
sVring
p1834
F3
sVhearbs,
p1835
F1
sVifaith,
p1836
F1
sVsainct-seducing
p1837
F1
sVdeliuer
p1838
F1
sVifaith:
p1839
F1
sVwauerer,
p1840
F1
sVsheel
p1841
F1
sVfriend
p1842
F7
sVa
F471
sVwed,
p1843
F2
sVthat
p1844
F329
sVpots,
p1845
F1
sVshort
p1846
F6
sVlarke
p1847
F5
sVflowers
p1848
F2
sVbraine
p1849
F1
sVfruite
p1850
F1
sVwomanish
p1851
F1
sVwilt,
p1852
F1
sVtherfore
p1853
F3
sVallegater
p1854
F1
sVanatomie
p1855
F1
sVbare-foote
p1856
F1
sVslay
p1857
F4
sVheeles:
p1858
F1
sV(and
p1859
F1
sVpinne
p1860
F1
sVanger
p1861
F4
sVbegin
p1862
F4
sVprice
p1863
F1
sVremaine,
p1864
F1
sVsteads
p1865
F1
sVcrochets,
p1866
F1
sVtreason,
p1867
F1
sVas't
p1868
F1
sVabraham
p1869
F1
sVhonour,
p1870
F1
sVwhile.
p1871
F1
sVwhile,
p1872
F2
sVpride,
p1873
F1
sVwhile?
p1874
F1
sVground
p1875
F6
sVobsequies
p1876
F1
sVtitle
p1877
F1
sVsaints
p1878
F3
sVmoneth
p1879
F1
sVwoes,
p1880
F4
sVstaid
p1881
F2
sVstaines
p1882
F1
sVydles
p1883
F1
sV'tis
p1884
F41
sVdrown'd
p1885
F1
sVtruly
p1886
F1
sVwhiles
p1887
F1
sVcannot
p1888
F19
sVvnrest
p1889
F1
sVrenown'd
p1890
F1
sVnext,
p1891
F2
sVsaint,
p1892
F3
sVfriends,
p1893
F4
sVseene
p1894
F3
sVhusband
p1895
F8
sVmiserie
p1896
F2
sVhurt.
p1897
F1
sVlou'd
p1898
F4
sVdeuotion,
p1899
F1
sVshrikes
p1900
F1
sVhurt?
p1901
F1
sVcome,
p1902
F18
sVcome.
p1903
F2
sVcome)
p1904
F1
sVgleeke.
p1905
F1
sVwearing,
p1906
F1
sVcome?
p1907
F1
sVladie
p1908
F1
sVimport
p1909
F1
sVabuses.
p1910
F1
sVholpe
p1911
F1
sVnotice
p1912
F1
sVtaken:
p1913
F1
sVhoe,
p1914
F1
sVprettiest
p1915
F2
sVpluck
p1916
F1
sVblame
p1917
F1
sVdiuinest
p1918
F1
sVdreadfull
p1919
F1
sVfought,
p1920
F1
sVvnmade
p1921
F1
sVcomes
p1922
F23
sVpestilent
p1923
F1
sVconuey
p1924
F1
sVdispatch
p1925
F1
sVwound,
p1926
F3
sVlearning
p1927
F1
sVheere's
p1928
F6
sVseason
p1929
F1
sVcontrarie
p1930
F1
sVpilgrime,
p1931
F1
sVcupids
p1932
F2
sVsisterhood
p1933
F1
sVreueren'd
p1934
F1
sVattach.
p1935
F1
sVhomely
p1936
F1
sVmishapen
p1937
F2
sVsuspected
p1938
F1
sVmishaped
p1939
F1
sVfoure
p1940
F2
sVmens,
p1941
F1
sVdiscords,
p1942
F1
sVmerrie
p1943
F3
sVcupid,
p1944
F1
sVwinkt
p1945
F1
sVwomanish,
p1946
F1
sVeie
p1947
F1
sVcare,
p1948
F1
sVdanger:
p1949
F1
sVspleene
p1950
F1
sVfinis.
p1951
F1
sVheele
p1952
F4
sVthrills
p1953
F1
sVdyre
p1954
F1
sVcomplaine,
p1955
F1
sVgentlemen
p1956
F3
sVcharge,
p1957
F1
sVnoble
p1958
F9
sVsold,
p1959
F1
sVnobly
p1960
F1
sVeares:
p1961
F1
sVeares?
p1962
F2
sVbondage
p1963
F1
sVprouided
p1964
F1
sVfollower,
p1965
F1
sVeares,
p1966
F3
sVdeuout
p1967
F1
sVatomies,
p1968
F1
sVvnkind
p1969
F1
sVam,
p1970
F1
sVheapt
p1971
F1
sVarmour
p1972
F1
sVlad.
p1973
F7
sVam:
p1974
F1
sVgreetings
p1975
F1
sVtouch
p1976
F1
sVspeed
p1977
F2
sVbreath'd
p1978
F2
sVthinking
p1979
F1
sVhoarse,
p1980
F2
sVeither,
p1981
F2
sVconduct,
p1982
F1
sVfrown
p1983
F1
sVcertaine
p1984
F1
sVread
p1985
F4
sVearly
p1986
F12
sVdainty,
p1987
F1
sVhonestie
p1988
F1
sVlady
p1989
F24
sVs[aint].
p1990
F1
sVfortune
p1991
F2
sVcomplement,
p1992
F1
sVyonger
p1993
F1
sVafear'd
p1994
F1
sVpeace,
p1995
F7
sVpeace.
p1996
F1
sVsauage
p1997
F1
sVpeace?
p1998
F2
sVversall
p1999
F1
sVcrying,
p2000
F2
sVknees,
p2001
F1
sVteares
p2002
F10
sVfrancis
p2003
F1
sVthrow
p2004
F1
sVwithout,
p2005
F1
sVpassion,
p2006
F2
sVsmelling
p2007
F1
sVyour
p2008
F109
sVfast
p2009
F1
sVprepare
p2010
F5
sVloe
p2011
F2
sVeuen
p2012
F12
sVlow
p2013
F1
sVeuer
p2014
F10
sVcaitiffe
p2015
F1
sVyou.
p2016
F2
sVyou,
p2017
F25
sVnur.
p2018
F77
sVvmpeere,
p2019
F1
sVyou?
p2020
F5
sVyou;
p2021
F1
sVyou:
p2022
F10
sVprotest,
p2023
F1
sVhire
p2024
F2
sVburning,
p2025
F1
sVare.
p2026
F1
sVbloody,
p2027
F1
sVare:
p2028
F1
sVintents
p2029
F2
sVnere
p2030
F9
sVyon
p2031
F1
sVfoole
p2032
F3
sVthither
p2033
F3
sVyou
p2034
F246
sVmisaduenture
p2035
F2
sVperill
p2036
F1
sVtorches
p2037
F2
sVcould'st,
p2038
F1
sVhyre
p2039
F1
sVbanishment
p2040
F3
sVgraues?
p2041
F1
sVdugge,
p2042
F2
sVgraues,
p2043
F1
sVwretchednesse,
p2044
F1
sVvery
p2045
F23
sVappothecary:
p2046
F1
sVrobes
p2047
F2
sVshortly,
p2048
F1
sVminded
p2049
F1
sVcease.
p2050
F1
sVbegot
p2051
F1
sVromeo's
p2052
F8
sVlazie
p2053
F1
sVheauie
p2054
F5
sVway-ward
p2055
F1
sVliuest,
p2056
F1
sVstarue,
p2057
F1
sVstreets
p2058
F1
sVanswer,
p2059
F1
sVstreete
p2060
F1
sVhim?
p2061
F2
sVhim:
p2062
F4
sVsubstantiall
p2063
F1
sVlearnes
p2064
F1
sVdrawer,
p2065
F1
sVhim.
p2066
F4
sVhim,
p2067
F21
sVlosse,
p2068
F2
sVprincox,
p2069
F1
sVabound'st
p2070
F1
sVloose
p2071
F1
sVstreet,
p2072
F1
sVanswere
p2073
F9
sVstrong
p2074
F3
sVthursday
p2075
F10
sV'twas
p2076
F3
sVgreeuance,
p2077
F1
sViewel
p2078
F1
sVduns
p2079
F1
sVgoship
p2080
F1
sValmost
p2081
F3
sVabra.
p2082
F5
sVeternall
p2083
F1
sVexcuse
p2084
F3
sVbroke
p2085
F1
sVhurry
p2086
F1
sVtraine.
p2087
F1
sVvp
p2088
F42
sVtake:
p2089
F1
sVdeliuered
p2090
F1
sVnine
p2091
F4
sVhorses,
p2092
F1
sVnapkins.
p2093
F1
sVvisage
p2094
F1
sVmourners,
p2095
F1
sVfury,
p2096
F1
sVtriumph,
p2097
F1
sVmiserable.
p2098
F1
sVtriumph:
p2099
F1
sVlacks
p2100
F1
sVbread,
p2101
F1
sVdagger,
p2102
F1
sVdagger.
p2103
F2
sVcalme
p2104
F2
sVstayes
p2105
F1
sVchild;
p2106
F1
sVtried
p2107
F1
sVrude
p2108
F4
sVfa
p2109
F2
sVboysterous,
p2110
F1
sVeyelesse
p2111
F1
sVremnants
p2112
F1
sVheld
p2113
F2
sVhell
p2114
F1
sVloues:
p2115
F1
sVdeuise:
p2116
F1
sVdwells,
p2117
F1
sVbehests,
p2118
F1
sVfood
p2119
F1
sVye
p2120
F7
sVfoot
p2121
F3
sVgrandsier
p2122
F1
sV(who's
p2123
F1
sVfine,
p2124
F2
sVfaire
p2125
F32
sVminstrell
p2126
F1
sVhero,
p2127
F1
sVminstrels
p2128
F1
sVlouest
p2129
F1
sVdun,
p2130
F1
sVslop:
p2131
F1
sVhouse,
p2132
F5
sVhouse:
p2133
F1
sVbethinke
p2134
F2
sVcrosse
p2135
F2
sVhouse?
p2136
F1
sVformes,
p2137
F1
sVsince
p2138
F11
sVthe[m]
p2139
F1
sVdin'd
p2140
F1
sVdeare
p2141
F22
sVissue
p2142
F1
sVappertaining
p2143
F1
sVabroach?
p2144
F1
sVcounseller,
p2145
F1
sVreason
p2146
F4
sVput
p2147
F17
sVknow'st
p2148
F1
sVmerrily.
p2149
F1
sVtrust,
p2150
F1
sVm.2.
p2151
F1
sVdepriu'd
p2152
F1
sVcankred
p2153
F2
sVblush
p2154
F2
sVaking
p2155
F1
sVquarell
p2156
F1
sVelder
p2157
F1
sVst.
p2158
F1
sVgre.
p2159
F3
sVhundred
p2160
F3
sVpier'st
p2161
F1
sVmusicke
p2162
F9
sVbower
p2163
F1
sVremembred
p2164
F1
sVkindly
p2165
F1
sVyong.
p2166
F1
sVbride
p2167
F3
sVtoward
p2168
F2
sVyong:
p2169
F1
sVwat.
p2170
F2
sVbells,
p2171
F1
sVseem'st,
p2172
F1
sVcheerefull
p2173
F1
sVhappie
p2174
F1
sVbeleeue,
p2175
F2
sVlie
p2176
F13
sVcozins
p2177
F3
sVwormes
p2178
F1
sVlabour
p2179
F1
sVpresently.
p2180
F1
sVtowards
p2181
F4
sVquoth
p2182
F4
sVyee,
p2183
F1
sVquote
p2184
F1
sVeates
p2185
F1
sVproues
p2186
F1
sVcozin;
p2187
F1
sVcozin:
p2188
F1
sVcozin?
p2189
F2
sVworme,
p2190
F2
sVdisplant
p2191
F1
sVcozin,
p2192
F4
sVtree,
p2193
F2
sVdismall
p2194
F2
sVbrowes,
p2195
F2
sVpretty
p2196
F4
sVtoo't
p2197
F1
sVlampe,
p2198
F1
sVfeele
p2199
F5
sVretorts
p2200
F1
sVsadnesse,
p2201
F1
sVtrees
p2202
F2
sVfield-bed
p2203
F1
sVsacrifices
p2204
F1
sVbleedes!
p2205
F1
sVforgiue
p2206
F2
sVpoore,
p2207
F3
sVclose
p2208
F5
sVgriefe,
p2209
F7
sVwot
p2210
F1
sVsecret.
p2211
F1
sVgriefe?
p2212
F1
sVhonour
p2213
F3
sVwoe
p2214
F5
sVliuia,
p2215
F1
sVbetossed
p2216
F1
sVboth
p2217
F14
sVwo,
p2218
F3
sVanon
p2219
F5
sVvault
p2220
F3
sVgriefes
p2221
F2
sVcounty:
p2222
F1
sVtongues
p2223
F2
sVcuts
p2224
F1
sVsteele
p2225
F2
sVdirefull
p2226
F1
sVwatchman.
p2227
F1
sVmist-like
p2228
F1
sVsearch,
p2229
F2
sVdiscouery,
p2230
F1
sVcoarse
p2231
F1
sVdespis'd,
p2232
F1
sVdelights
p2233
F2
sVpartly
p2234
F1
sVhere:
p2235
F1
sVlike,
p2236
F2
sVvnstuft
p2237
F1
sVpacke
p2238
F1
sVinough.
p2239
F1
sVinough,
p2240
F2
sVdelight,
p2241
F1
sVlook
p2242
F1
sVmumbling
p2243
F1
sVwoluish-rauening
p2244
F1
sVwhile
p2245
F5
sVought
p2246
F2
sVdelight:
p2247
F1
sVpouerty,
p2248
F2
sVbrings,
p2249
F1
sVready
p2250
F3
sVfairer
p2251
F2
sVgrant
p2252
F1
sVbelong
p2253
F1
sVmadly
p2254
F1
sVshal
p2255
F2
sVfaire.
p2256
F2
sVfaire,
p2257
F7
sVhoa,
p2258
F1
sVforsworne,
p2259
F2
sVseruing
p2260
F4
sVread.
p2261
F1
sVfaire?
p2262
F1
sVfaire:
p2263
F1
sVinough
p2264
F5
sVread?
p2265
F1
sVpricke
p2266
F2
sVolder
p2267
F1
sVcleare
p2268
F1
sVprickt
p2269
F1
sVpricks
p2270
F1
sVouerwhelming
p2271
F1
sVweakest
p2272
F1
sVbeares
p2273
F2
sVstuft,
p2274
F1
sVcocke
p2275
F2
sVwise,
p2276
F3
sViohn
p2277
F2
sVwise:
p2278
F1
sVlonger.
p2279
F1
sVmarch
p2280
F1
sVgame
p2281
F1
sVbeare,
p2282
F1
sVwings
p2283
F3
sVdistance,
p2284
F1
sVdaylight,
p2285
F1
sVnell,
p2286
F1
sVtwaine,
p2287
F1
sVlast,
p2288
F1
sVfathers
p2289
F2
sVlast.
p2290
F1
sVsome
p2291
F55
sVwisedome?
p2292
F1
sVwombe
p2293
F3
sVlips
p2294
F7
sVtwaine:
p2295
F1
sVwensday
p2296
F1
sVwisedome,
p2297
F2
sVlast:
p2298
F1
sVfettle
p2299
F1
sVlath,
p2300
F1
sVrun
p2301
F9
sVfather?
p2302
F2
sVlip,
p2303
F1
sVstep
p2304
F1
sVfather,
p2305
F8
sVfather.
p2306
F2
sVabroad
p2307
F1
sVfaith
p2308
F9
sVforget,
p2309
F3
sVsoft
p2310
F2
sVdismembred
p2311
F1
sVsake
p2312
F3
sVon't,
p2313
F2
sVvertuous,
p2314
F1
sVseeing
p2315
F2
sVwithin
p2316
F8
sVcountie.
p2317
F1
sVfish:
p2318
F1
sVbanishment?
p2319
F1
sVbanishment.
p2320
F2
sVfrost
p2321
F1
sVreed
p2322
F1
sVnewes
p2323
F6
sVdull
p2324
F2
sVstumbling
p2325
F1
sVvnlookt
p2326
F1
sVvanitie
p2327
F1
sVnoone
p2328
F1
sVdoest
p2329
F4
sVfound'st
p2330
F1
sVsullen
p2331
F2
sVexcellent:
p2332
F1
sVtith
p2333
F1
sVfeare
p2334
F10
sVnay
p2335
F12
sVsmiles
p2336
F3
sVdraw
p2337
F11
sVdrag
p2338
F1
sVsudden,
p2339
F1
sVbodies:
p2340
F1
sVdram
p2341
F1
sVheate
p2342
F1
sVshe'l
p2343
F1
sVdepth
p2344
F1
sVstirrage
p2345
F1
sVenquire,
p2346
F1
sVberime
p2347
F1
sVhimselfe?
p2348
F1
sVwasht
p2349
F2
sVhorson,
p2350
F1
sVdeule
p2351
F1
sVgo
p2352
F55
sVlarke,
p2353
F1
sVhimselfe,
p2354
F2
sVcomfort,
p2355
F1
sVattires
p2356
F1
sVmargent
p2357
F1
sVfray?
p2358
F2
sVexit.
p2359
F1
sVfriendly
p2360
F1
sVfond
p2361
F1
sVmore:
p2362
F2
sVmore,
p2363
F10
sVwidowed.
p2364
F1
sVhigh-way
p2365
F1
sVteeth,
p2366
F1
sVenforce
p2367
F1
sVliers.
p2368
F1
sVmischiefe
p2369
F1
sVwaking
p2370
F1
sVioynt
p2371
F1
sVcell
p2372
F6
sVrotten
p2373
F1
sVgrubs,
p2374
F1
sVcomming.
p2375
F1
sVmelancholy
p2376
F1
sVdecree?
p2377
F1
sVhad'st
p2378
F5
sVplay:
p2379
F1
sVpainter
p2380
F1
sVmorsell
p2381
F1
sVplay,
p2382
F1
sVpenury,
p2383
F1
sVloue,
p2384
F37
sVmanage
p2385
F1
sVclout
p2386
F1
sVloue?
p2387
F6
sVwit
p2388
F5
sVloue:
p2389
F6
sVloue;
p2390
F1
sVdrop,
p2391
F1
sVcheeke
p2392
F5
sVcounties
p2393
F1
sVcram
p2394
F1
sVremaine
p2395
F1
sVwi.
p2396
F2
sVfennell
p2397
F1
sVlouer
p2398
F1
sVloues
p2399
F14
sVbecomed
p2400
F1
sVstartes
p2401
F1
sVdrawes
p2402
F1
sVwakes,
p2403
F1
sVconsort
p2404
F2
sVwearie
p2405
F1
sVbeautifull
p2406
F1
sVwakes;
p2407
F1
sVmeet
p2408
F1
sVdrops
p2409
F1
sVsought
p2410
F3
sVshrift
p2411
F3
sVparentage,
p2412
F1
sVnurst,
p2413
F1
sVfloud,
p2414
F1
sVpray,
p2415
F1
sVearth-treading
p2416
F1
sVfickle,
p2417
F2
sVbatcheler,
p2418
F1
sVcanker
p2419
F1
sVhand,
p2420
F9
sVhand.
p2421
F2
sVrebellious
p2422
F1
sVvntaught,
p2423
F1
sVsweet:
p2424
F1
sVhand?
p2425
F1
sVhand:
p2426
F2
sVfourteene,
p2427
F1
sVfourteene.
p2428
F2
sVthence
p2429
F1
sVhelena.
p2430
F1
sVbanquet
p2431
F1
sVsirrah
p2432
F1
sVshewes
p2433
F6
sVmaster,
p2434
F1
sVpure
p2435
F3
sVsweete
p2436
F8
sVdualist:
p2437
F1
sViuliet
p2438
F21
sVpriuate
p2439
F2
sVstout
p2440
F2
sVhands
p2441
F7
sVdualist,
p2442
F1
sVmasters
p2443
F1
sVdar'st,
p2444
F1
sVmasse?
p2445
F1
sVcrossing
p2446
F1
sVdiscords
p2447
F1
sVsirra,
p2448
F1
sVbeshrew
p2449
F3
sVgrone,
p2450
F1
sVorysons,
p2451
F1
sVmeasure
p2452
F5
sVwine.
p2453
F1
sVgallant
p2454
F2
sVtime:
p2455
F1
sVvnsatisfied?
p2456
F1
sVtime,
p2457
F13
sVlord:
p2458
F1
sVtime.
p2459
F2
sVwondrous
p2460
F1
sVcause
p2461
F2
sVtestifie
p2462
F1
sVill:
p2463
F2
sVill.
p2464
F1
sVill,
p2465
F2
sVprosperous:
p2466
F1
sVgrones
p2467
F1
sVtimes
p2468
F7
sVwee'l
p2469
F2
sVvnworthy
p2470
F2
sVyong
p2471
F1
sVyond
p2472
F5
sVdrinkes
p2473
F1
sVplace:
p2474
F1
sVlight:
p2475
F1
sVpackt,
p2476
F1
sVbe,
p2477
F3
sVgyrle
p2478
F2
sVneedfull
p2479
F1
sVbe:
p2480
F4
sVfishes,
p2481
F1
sVbe?
p2482
F3
sVioyfull
p2483
F5
sVbridall
p2484
F3
sVfairest
p2485
F1
sVvttering,
p2486
F1
sVdrinke:
p2487
F1
sVshowne,
p2488
F2
sVquarrell?
p2489
F1
sVglorie,
p2490
F1
sVfell,
p2491
F1
sVbeg
p2492
F3
sVbed
p2493
F11
sVmerrie,
p2494
F1
sVladyship?
p2495
F1
sVconuoy
p2496
F1
sVmerrie?
p2497
F1
sVthwarted
p2498
F1
sVlightly
p2499
F1
sVvillaine
p2500
F13
sVtorment
p2501
F1
sVneed
p2502
F7
sVsings
p2503
F2
sVpursued
p2504
F2
sVable
p2505
F2
sVissuing
p2506
F1
sVproceeding:
p2507
F1
sVvisor
p2508
F1
sVhauing,
p2509
F1
sVvengeance
p2510
F2
sVblade,
p2511
F1
sVtyberio
p2512
F1
sVsing,
p2513
F1
sVextreames
p2514
F1
sVsunne,
p2515
F2
sVpasse
p2516
F2
sVsteedes,
p2517
F1
sVslow,
p2518
F2
sVslow.
p2519
F1
sVfaithfull
p2520
F3
sVtune,
p2521
F1
sVhindes?
p2522
F1
sVdreamers
p2523
F1
sVsunnes
p2524
F1
sVsecret,
p2525
F1
sVdetestable
p2526
F2
sVprinces
p2527
F6
sVgray
p2528
F4
sVhad,
p2529
F1
sVcourse
p2530
F1
sVhouses.
p2531
F3
sVhouses,
p2532
F1
sVhad:
p2533
F1
sVprais'd
p2534
F1
sVhad?
p2535
F1
sVwish
p2536
F5
sVbils,
p2537
F1
sVmannage
p2538
F1
sVpilgrim,
p2539
F1
sVburying
p2540
F1
sVpitch
p2541
F1
sVpowder
p2542
F2
sVdesperate
p2543
F8
sVbenuolio
p2544
F2
sVmind?
p2545
F1
sVsets,
p2546
F1
sVstudy:
p2547
F1
sVstate
p2548
F2
sVhorrible
p2549
F1
sVlimit,
p2550
F1
sVneither
p2551
F2
sVdead:
p2552
F5
sVmerry
p2553
F1
sVprecious
p2554
F4
sVpeare,
p2555
F1
sVsolace
p2556
F1
sVlimits
p2557
F1
sVstraine
p2558
F1
sVfee-simple?
p2559
F1
sVtibalt
p2560
F3
sVfeares,
p2561
F1
sVsoly
p2562
F1
sVkings
p2563
F1
sVsense,
p2564
F1
sVdowdie,
p2565
F1
sVgroue
p2566
F1
sVmammet,
p2567
F1
sVbattlements
p2568
F1
sVrowse
p2569
F3
sVagaine
p2570
F12
sVowne
p2571
F11
sVdeu'le
p2572
F1
sVwill:
p2573
F4
sVwill?
p2574
F2
sVcoward.
p2575
F1
sVcomplements:
p2576
F1
sVlearn'd
p2577
F1
sVwill,
p2578
F7
sVwill.
p2579
F1
sVdid:
p2580
F1
sVelklocks
p2581
F1
sVdiscolour'd
p2582
F1
sVclaps
p2583
F1
sVfaithfully:
p2584
F1
sVwent'st
p2585
F1
sVtrooping
p2586
F1
sVanguish:
p2587
F1
sVstab'd
p2588
F1
sVbegan
p2589
F1
sVioynt,
p2590
F1
sVparts
p2591
F1
sVspeakes
p2592
F2
sVwest-ward
p2593
F1
sVpeer'd
p2594
F1
sVsuppos'd
p2595
F2
sVodde,
p2596
F1
sVsteale
p2597
F2
sVeffect
p2598
F2
sVnightly
p2599
F4
sVfond:
p2600
F1
sVlamb:
p2601
F1
sVsooner
p2602
F1
sVpossest,
p2603
F1
sVfierce
p2604
F1
sVspred
p2605
F1
sViaunting
p2606
F1
sVspeake.
p2607
F1
sVspeake,
p2608
F2
sVwell
p2609
F38
sVioynts
p2610
F1
sVspeake?
p2611
F1
sVpricksong,
p2612
F1
sVfat.
p2613
F1
sVdiuision;
p2614
F1
sVcondemned,
p2615
F1
sVdiuine,
p2616
F1
sVskill
p2617
F1
sVcharnell
p2618
F1
sVwooe:
p2619
F2
sVdost
p2620
F12
sVcloudes
p2621
F3
sVwarrant
p2622
F9
sVtimelesse
p2623
F1
sVbottome
p2624
F2
sVmanners
p2625
F1
sVwooes
p2626
F1
sVspell:
p2627
F1
sVimmediately
p2628
F1
sVlost
p2629
F2
sVpage
p2630
F1
sVlends
p2631
F3
sVshed
p2632
F2
sVshee
p2633
F6
sVartificiall
p2634
F1
sVproofe
p2635
F3
sVshew
p2636
F7
sVcophetua
p2637
F1
sVsway:
p2638
F1
sVhome
p2639
F4
sVliking
p2640
F1
sVpeter
p2641
F4
sVdrizzle
p2642
F1
sVthroats,
p2643
F1
sVbefore,
p2644
F2
sVrode?
p2645
F1
sVmadam.
p2646
F2
sVin:
p2647
F1
sVmadam,
p2648
F11
sVbroad
p2649
F2
sVmadam?
p2650
F1
sVshe.
p2651
F1
sVshe,
p2652
F4
sViniuries
p2653
F1
sVshe?
p2654
F2
sVshe:
p2655
F1
sVchance
p2656
F2
sVthankings,
p2657
F1
sVtongue
p2658
F6
sVstakes
p2659
F1
sVtimes?
p2660
F1
sVportendous
p2661
F1
sVtimes.
p2662
F1
sVgratious
p2663
F1
sVweeps
p2664
F1
sVbroad,
p2665
F1
sVcell,
p2666
F5
sVcell.
p2667
F1
sVswetest
p2668
F1
sVturning:
p2669
F1
sVstorie:
p2670
F1
sVtread,
p2671
F1
sVprima.
p2672
F1
sVho
p2673
F5
sVcourts
p2674
F1
sVdischarg'd
p2675
F1
sVha
p2676
F1
sVhe
p2677
F112
sVcoying
p2678
F1
sVeyes?
p2679
F1
sVeyes:
p2680
F1
sVempty
p2681
F1
sVeyes.
p2682
F4
sVpiece
p2683
F1
sVfriend.
p2684
F1
sVfriend,
p2685
F4
sVbeate
p2686
F2
sVdewe,
p2687
F1
sVpenny
p2688
F1
sVkisses
p2689
F3
sVlenitie,
p2690
F1
sVbeats
p2691
F1
sVfriend:
p2692
F1
sVredeeme
p2693
F1
sVentreat
p2694
F1
sVmeteor
p2695
F1
sVstay
p2696
F19
sVkisse.
p2697
F1
sVelse
p2698
F11
sVfriends
p2699
F1
sVpestilence
p2700
F1
sVanthonie
p2701
F1
sVpardon
p2702
F8
sVdemand
p2703
F1
sVprotest
p2704
F2
sVbetter?
p2705
F1
sVshowring
p2706
F1
sVbetter:
p2707
F1
sVwhose
p2708
F14
sVgrace,
p2709
F1
sVcompanie:
p2710
F1
sVswan
p2711
F1
sVsweetest
p2712
F2
sVcompanie,
p2713
F1
sVpardon:
p2714
F1
sVe'ne
p2715
F1
sVpowder;
p2716
F1
sViacke,
p2717
F1
sVweale
p2718
F1
sVorbe,
p2719
F1
sVwild-goose
p2720
F2
sVme,
p2721
F49
sVme.
p2722
F8
sVcapulet,
p2723
F9
sVcapulet.
p2724
F3
sVheauinesse
p2725
F1
sVlikely
p2726
F1
sVwindes
p2727
F1
sVme?
p2728
F7
sVme:
p2729
F7
sVrest:
p2730
F1
sVrest?
p2731
F1
sVgold,
p2732
F2
sVlights
p2733
F1
sVsunder
p2734
F1
sVrest,
p2735
F4
sVnew
p2736
F13
sVtips
p2737
F1
sVmee
p2738
F3
sVmen
p2739
F11
sVdrew
p2740
F2
sVmet
p2741
F2
sVcapulets
p2742
F5
sVtearme
p2743
F1
sVdry
p2744
F1
sVconiured
p2745
F1
sVrests
p2746
F1
sVlight.
p2747
F1
sVlight,
p2748
F7
sVknow'st,
p2749
F1
sVwiddow
p2750
F1
sVlight;
p2751
F1
sVcounty
p2752
F1
sVguests
p2753
F3
sVcounts
p2754
F1
sVcals
p2755
F2
sVcall
p2756
F21
sVright,
p2757
F1
sVright.
p2758
F1
sVarme
p2759
F3
sVtell
p2760
F42
sVdestil'd
p2761
F1
sVchurchyard
p2762
F3
sVguest,
p2763
F2
sVviall,
p2764
F1
sValoft.
p2765
F1
sValoft,
p2766
F1
sVward
p2767
F1
sVware
p2768
F2
sVlow'd?
p2769
F1
sVtroth
p2770
F1
sVgrindstone,
p2771
F1
sVsole-singular
p2772
F1
sVhoney
p2773
F2
sVbrest
p2774
F2
sVaduersities
p2775
F1
sVsweares
p2776
F1
sVconfessor,
p2777
F1
sVlaugh?
p2778
F1
sVlaide
p2779
F1
sVfood,
p2780
F1
sVlaugh,
p2781
F1
sVdare.
p2782
F1
sVpurchase
p2783
F1
sVremembring
p2784
F1
sVthird
p2785
F1
sVprudence,
p2786
F1
sVstain'd
p2787
F2
sVfault,
p2788
F1
sVstill,
p2789
F2
sVaduersarie,
p2790
F1
sVcold,
p2791
F1
sVensigne
p2792
F1
sVsweare,
p2793
F2
sVtoade
p2794
F1
sVteares.
p2795
F1
sVexcus'd
p2796
F1
sVbefore
p2797
F18
sVmount.
p2798
F1
sVthen,
p2799
F5
sVmandrakes
p2800
F1
sV,
F1
sVbetter
p2801
F10
sVthen?
p2802
F3
sVenemie
p2803
F2
sVcut'st
p2804
F1
sVwonne,
p2805
F1
sVwithin,
p2806
F2
sVwithin.
p2807
F1
sVrunne
p2808
F3
sVwithin:
p2809
F2
sVdowne
p2810
F11
sVleanes
p2811
F1
sVmeat
p2812
F1
sVshriu'd
p2813
F1
sVwent
p2814
F1
sVside
p2815
F3
sVnunnes:
p2816
F1
sVskins
p2817
F1
sVdoue
p2818
F1
sVforgot
p2819
F2
sVlawyers
p2820
F1
sVis:
p2821
F3
sVshee's
p2822
F12
sVpoprin
p2823
F1
sVcraues
p2824
F3
sVcontent
p2825
F1
sVis.
p2826
F1
sVreades
p2827
F1
sVis,
p2828
F8
sVlurke
p2829
F1
sVis!
p2830
F1
sVprepar'd,
p2831
F1
sVturning
p2832
F1
sVaqua-vit
p2833
F1
sVvncle
p2834
F3
sVabate
p2835
F1
sVsculls:
p2836
F1
sVdoffe
p2837
F1
sVstarts
p2838
F1
sVmessages
p2839
F1
sVist
p2840
F3
sVbegan:
p2841
F1
sVcraue,
p2842
F1
sVtale,
p2843
F2
sVtale.
p2844
F1
sVloue
p2845
F83
sVsaies
p2846
F5
sVcomforted
p2847
F1
sVliues,
p2848
F2
sVhood
p2849
F2
sVknight,
p2850
F1
sVtwisted
p2851
F1
sVcruell,
p2852
F1
sVladi-bird,
p2853
F1
sVknight?
p2854
F1
sVapproach,
p2855
F3
sVentents
p2856
F1
sVexecution,
p2857
F1
sVnaught,
p2858
F1
sVbegins
p2859
F1
sVvnpleasing
p2860
F1
sVbody.
p2861
F1
sVsoonest
p2862
F1
sVenuious
p2863
F4
sVmatter
p2864
F3
sVbody?
p2865
F1
sVsadnes
p2866
F1
sVquench
p2867
F2
sVmind
p2868
F5
sVmine
p2869
F20
sVsounding
p2870
F1
sVothers.
p2871
F1
sVsound,
p2872
F3
sVconsume.
p2873
F1
sVdo.
p2874
F2
sVdo,
p2875
F4
sVrosalines
p2876
F1
sVpoint,
p2877
F1
sVsleepes
p2878
F2
sVpoint:
p2879
F2
sVdayes,
p2880
F2
sVvnhappie
p2881
F1
sVsee?
p2882
F1
sVsee:
p2883
F1
sVmuch.
p2884
F1
sVsee,
p2885
F1
sVrosaline?
p2886
F2
sVsleepe,
p2887
F4
sVsleepe.
p2888
F1
sVdog
p2889
F2
sVdoe
p2890
F12
sVrosaline,
p2891
F3
sVrosaline.
p2892
F1
sVsleepe?
p2893
F1
sVslaue
p2894
F2
sVebbe
p2895
F1
sVstepping
p2896
F1
sVconsort?
p2897
F1
sVvncharm'd.
p2898
F1
sVseruingmen
p2899
F1
sVbriefe:
p2900
F1
sVtheeuish
p2901
F1
sVstreakes
p2902
F2
sVfield,
p2903
F1
sVlimbs:
p2904
F1
sVhoare
p2905
F3
sVbriefe,
p2906
F2
sVbriefe.
p2907
F1
sVwearing
p2908
F1
sVgrowne
p2909
F2
sVmaisters
p2910
F1
sVattempt:
p2911
F1
sViawes
p2912
F1
sVeare
p2913
F3
sVthrusts
p2914
F1
sVbad
p2915
F2
sVdebt.
p2916
F1
sVprety
p2917
F1
sVlook'st
p2918
F1
sVvow,
p2919
F1
sVjuliet
p2920
F1
sVwits,
p2921
F1
sVsaid
p2922
F9
sVthere's
p2923
F7
sVwits:
p2924
F1
sVpublike
p2925
F1
sVchoise,
p2926
F1
sVyesternight
p2927
F1
sVweary
p2928
F1
sVweare
p2929
F4
sVvnlesse
p2930
F6
sVcousin
p2931
F1
sVendes,
p2932
F1
sVpet.
p2933
F13
sVagainst
p2934
F10
sVsimples,
p2935
F1
sValoofe,
p2936
F2
sVburthen
p2937
F3
sVhad'st,
p2938
F1
sVdeepe,
p2939
F2
sVnow,
p2940
F9
sVaskt
p2941
F3
sVnow.
p2942
F4
sVputs
p2943
F1
sVthred
p2944
F1
sVthree
p2945
F9
sVwisemen
p2946
F1
sVaske
p2947
F4
sVcommission
p2948
F1
sVnow?
p2949
F4
sVinterest
p2950
F1
sVmisgiues,
p2951
F1
sVspring,
p2952
F2
sVspent.
p2953
F1
sVtane
p2954
F1
sVwagoner
p2955
F1
sVmurders
p2956
F1
sVmangle
p2957
F1
sVforraine
p2958
F1
sVis
p2959
F327
sVit
p2960
F202
sVthei'le
p2961
F1
sVshame
p2962
F7
sVin
p2963
F305
sVmeet,
p2964
F1
sVvpfill
p2965
F1
sVturnes
p2966
F2
sVmake
p2967
F39
sVrom.
p2968
F149
sVi:
p2969
F4
sVexperien'st
p2970
F1
sVi?
p2971
F2
sVcan,
p2972
F2
sVdelight
p2973
F1
sVi,
p2974
F19
sVmeete
p2975
F4
sVparadise,
p2976
F1
sVthoughts
p2977
F1
sVgrow,
p2978
F1
sVgenerall
p2979
F2
sVparis,
p2980
F10
sVinherit
p2981
F1
sVparis.
p2982
F6
sVparis:
p2983
F2
sVyours
p2984
F2
sVleft
p2985
F3
sVhaires,
p2986
F1
sVgregory:
p2987
F1
sVsentence
p2988
F2
sVagoe
p2989
F1
sVgregory,
p2990
F2
sVyes
p2991
F1
sVyet
p2992
F42
sVmasse
p2993
F1
sVtake
p2994
F38
sVye,
p2995
F2
sVcouer
p2996
F1
sVdreame
p2997
F7
sVsoale
p2998
F1
sVope
p2999
F1
sVdreamt
p3000
F2
sVprating
p3001
F1
sVwatry
p3002
F1
sVwind-swift
p3003
F1
sVmeats
p3004
F1
sVkeepe,
p3005
F1
sVdead
p3006
F22
sVreuerence
p3007
F1
sVmeaning,
p3008
F1
sVdeaw
p3009
F1
sVvalentine:
p3010
F1
sVheare?
p3011
F1
sVgodden
p3012
F1
sVioynstooles,
p3013
F1
sVopposite
p3014
F1
sVthinkest
p3015
F2
sVbold
p3016
F3
sVsoftned
p3017
F1
sVtold,
p3018
F1
sVkeepes
p3019
F3
sVbury
p3020
F1
sVflourishes
p3021
F1
sVwhats
p3022
F1
sVfor,
p3023
F5
sVcloudie
p3024
F1
sVdown
p3025
F1
sVlies
p3026
F14
sVspurs,
p3027
F2
sVbound?
p3028
F1
sVmorne:
p3029
F1
sVbound:
p3030
F1
sVseuerest
p3031
F1
sVsepulcher.
p3032
F1
sVbound,
p3033
F1
sVmorne,
p3034
F1
sVcryed
p3035
F1
sVcurteous
p3036
F2
sVsepulcher?
p3037
F1
sVpennes
p3038
F1
sVwhat?
p3039
F5
sVlie,
p3040
F3
sVwhat,
p3041
F5
sVmusickes
p3042
F1
sVscattered,
p3043
F1
sVbounds
p3044
F1
sVconuert
p3045
F1
sVmountague
p3046
F5
sVtemper
p3047
F2
sVstirreth
p3048
F1
sVshin
p3049
F1
sVdie?
p3050
F1
sVfel.
p3051
F2
sVsticke
p3052
F1
sVdie.
p3053
F5
sVdie,
p3054
F6
sVbodes,
p3055
F1
sVaddle
p3056
F1
sVperiurie,
p3057
F1
sVmattocke,
p3058
F1
sVclubs.
p3059
F1
sVclubs,
p3060
F1
sVperiuries
p3061
F1
sVdies
p3062
F2
sVfelt
p3063
F2
sVgowne,
p3064
F1
sVblushing
p3065
F1
sVshrift.
p3066
F1
sVpackthred,
p3067
F1
sVbusie
p3068
F1
sVbow'd
p3069
F1
sVfaine,
p3070
F2
sVperuse
p3071
F1
sVlaura
p3072
F1
sVsoule
p3073
F6
sVreceit
p3074
F1
sVmarke
p3075
F4
sVfather
p3076
F15
sVtorne
p3077
F1
sVstiffe:
p3078
F1
sVforth,
p3079
F4
sV(by
p3080
F1
sVanon,
p3081
F1
sVanon:
p3082
F2
sVdim
p3083
F1
sVbanished
p3084
F4
sVdid
p3085
F38
sVdie
p3086
F11
sVkeepers
p3087
F1
sVspeciall
p3088
F1
sVvnstained
p3089
F1
sVgentlewoman
p3090
F2
sVround
p3091
F1
sVdealing
p3092
F1
sVappetite.
p3093
F1
sVwherefore
p3094
F4
sVkinsman,
p3095
F3
sVelse?
p3096
F2
sVmedlers
p3097
F1
sVsteales
p3098
F1
sVhee's
p3099
F9
sVadde
p3100
F1
sVdrunkard
p3101
F2
sVquarrel'd
p3102
F1
sVtalke,
p3103
F2
sVfrench
p3104
F2
sVdeceit
p3105
F1
sVthither.
p3106
F1
sVboy
p3107
F5
sVhere?
p3108
F2
sVbaud,
p3109
F2
sVbaud.
p3110
F1
sVshift
p3111
F2
sVbow
p3112
F2
sVspheres
p3113
F1
sVbon
p3114
F1
sVhere,
p3115
F11
sVhither
p3116
F7
sVkinsmen:
p3117
F1
sVmothers.
p3118
F1
sVowes,
p3119
F1
sVwealth
p3120
F2
sVdeliciousnesse,
p3121
F1
sVaye
p3122
F1
sVgoing
p3123
F4
sVcockrels
p3124
F1
sVrote,
p3125
F1
sVtributarie
p3126
F1
sVblowes,
p3127
F1
sVforsweare
p3128
F1
sVquickly,
p3129
F1
sVmaking
p3130
F3
sVyouthfull,
p3131
F1
sVaduance
p3132
F1
sVlowre
p3133
F1
sVlodges,
p3134
F1
sVtill
p3135
F22
sVsword
p3136
F5
sVwould'st
p3137
F3
sVagen:
p3138
F1
sVstaying
p3139
F1
sVmar
p3140
F2
sVpinde.
p3141
F1
sVmay
p3142
F48
sVsweet-goose?
p3143
F1
sVlord?
p3144
F2
sVmab
p3145
F3
sVmad
p3146
F6
sVlord.
p3147
F1
sVgrow
p3148
F2
sVlord,
p3149
F11
sVman
p3150
F38
sVlogs.
p3151
F1
sVlogs,
p3152
F2
sVthorne
p3153
F1
sVtale
p3154
F4
sVtall
p3155
F1
sVargues
p3156
F1
sVsoone,
p3157
F1
sVshake
p3158
F2
sVview,
p3159
F1
sVynch
p3160
F1
sVmaid
p3161
F4
sVarrow,
p3162
F1
sVwisely,
p3163
F1
sVdoores,
p3164
F1
sVsampson.
p3165
F1
sVbedecke
p3166
F1
sVcruell
p3167
F2
sVtouching
p3168
F1
sVpossest
p3169
F1
sVquatha:
p3170
F1
sVhung,
p3171
F1
sVbraine,
p3172
F1
sVbraine.
p3173
F1
sVscorne
p3174
F3
sVforbid,
p3175
F1
sVprouerb'd
p3176
F1
sVtherefore,
p3177
F2
sViohn.
p3178
F6
sViohn,
p3179
F1
sVyes,
p3180
F1
sVfeathers,
p3181
F1
sVwoes.
p3182
F1
sVsmatter
p3183
F1
sVmonster
p3184
F1
sVshew.
p3185
F1
sVrosemary,
p3186
F1
sVore
p3187
F10
sVlanguage
p3188
F1
sVthing
p3189
F15
sVthine
p3190
F9
sVfirst
p3191
F8
sVbridegroome
p3192
F3
sVcrie
p3193
F2
sVeye:
p3194
F1
sVbut,
p3195
F1
sVcal'd,
p3196
F2
sVcarry
p3197
F1
sVeye,
p3198
F10
sVlittle
p3199
F10
sVplaine
p3200
F1
sVimmortall
p3201
F3
sVfiery
p3202
F2
sVeyes
p3203
F9
sVmurther:
p3204
F1
sVsound.
p3205
F3
sVrat-catcher,
p3206
F1
sVmurther,
p3207
F1
sVsound?
p3208
F2
sVflurt-gils,
p3209
F1
sVhere's
p3210
F5
sVwert
p3211
F3
sVrespectiue
p3212
F1
sVsonne
p3213
F10
sVasking.
p3214
F1
sVwere
p3215
F34
sVchurle,
p3216
F1
sV1.
p3217
F4
sVplacentio,
p3218
F1
sVdash
p3219
F1
sVspent,
p3220
F1
sVsheet?
p3221
F1
sVbriefe
p3222
F1
sVmontague,
p3223
F1
sVfairely
p3224
F2
sVwretch
p3225
F2
sVmontague?
p3226
F1
sVvoice:
p3227
F1
sVverona
p3228
F5
sVqueene
p3229
F1
sVvoice,
p3230
F2
sVhaselnut,
p3231
F1
sVvext:
p3232
F1
sVlouely
p3233
F2
sValone:
p3234
F2
sVorder
p3235
F1
sVvext,
p3236
F2
sValone,
p3237
F9
sValone.
p3238
F2
sVshop
p3239
F2
sVtuners
p3240
F1
sVshot
p3241
F2
sVbitter,
p3242
F1
sVshow
p3243
F1
sVman?
p3244
F3
sVtreasure
p3245
F1
sVbehind
p3246
F2
sVstorme
p3247
F2
sVfled.
p3248
F1
sVget
p3249
F13
sVcolliars
p3250
F1
sVsmels,
p3251
F1
sVbeseech
p3252
F7
sVman,
p3253
F20
sVmorning
p3254
F5
sVcrow-keeper.
p3255
F1
sVmiles
p3256
F1
sVtallow
p3257
F1
sVmercutio.
p3258
F3
sVstreets,
p3259
F2
sVsinger.
p3260
F1
sVsalutation
p3261
F1
sVwonder
p3262
F2
sVmercutio:
p3263
F1
sVmercutio?
p3264
F1
sVpump
p3265
F1
sVmercutio,
p3266
F8
sVcounterfaits
p3267
F1
sVchorus.
p3268
F1
sVtut
p3269
F2
sVkilling
p3270
F1
sVhonest,
p3271
F1
sVfellowship,
p3272
F1
sVsea,
p3273
F5
sVpetruchio,
p3274
F1
sVpaines
p3275
F1
sVmercutios
p3276
F2
sVdedicate
p3277
F1
sVamong
p3278
F6
sVstretches
p3279
F1
sVmaintaines
p3280
F1
sVgrone
p3281
F1
sVphilosophie,
p3282
F1
sVphilosophie:
p3283
F1
sVmary
p3284
F1
sVoffered
p3285
F1
sVdates
p3286
F1
sVwake
p3287
F3
sVthose
p3288
F16
sVsound
p3289
F5
sVgriping
p3290
F1
sVemployment,
p3291
F1
sVsoare
p3292
F2
sVconfusions:
p3293
F1
sVart:
p3294
F1
sVart)
p3295
F1
sVconcludes,
p3296
F1
sVart,
p3297
F4
sVconfusions,
p3298
F1
sVdishonourable,
p3299
F1
sVdoues
p3300
F1
sVyoung?
p3301
F1
sVstrait
p3302
F2
sVsleeping
p3303
F1
sVsudden
p3304
F6
sVrime,
p3305
F1
sVwisely
p3306
F4
sVscorne,
p3307
F1
sVbeene
p3308
F11
sVscorne.
p3309
F1
sVdifferent
p3310
F1
sVopposition:
p3311
F1
sVpath-wayes
p3312
F1
sVsame
p3313
F12
sVheire
p3314
F1
sVhoushould
p3315
F1
sVbroyles,
p3316
F1
sVearlinesse
p3317
F1
sVsam.
p3318
F8
sVpotpan
p3319
F1
sVioynture,
p3320
F1
sVthankfull
p3321
F2
sVpa.
p3322
F6
sVfume
p3323
F1
sVmannerly
p3324
F1
sVmo.
p3325
F15
sVdepart.
p3326
F1
sVthigh,
p3327
F1
sVgossip,
p3328
F1
sVwife,
p3329
F5
sVwife.
p3330
F11
sVcalls,
p3331
F1
sVsight:
p3332
F1
sVfound:
p3333
F1
sVfound?
p3334
F1
sVobsequies,
p3335
F1
sVsight,
p3336
F2
sVasleepe
p3337
F1
sVwife:
p3338
F5
sVfound.
p3339
F1
sVfound,
p3340
F1
sVgossips
p3341
F1
sVlightning
p3342
F2
sVchamber
p3343
F3
sVeither
p3344
F7
sVbewitched
p3345
F1
sVthriue
p3346
F1
sVtooke
p3347
F5
sVangell,
p3348
F1
sVdrum.
p3349
F1
sVpronounce
p3350
F2
sVbroke,
p3351
F1
sVdispaire:
p3352
F1
sVtormented:
p3353
F1
sVdogge
p3354
F1
sVaffray,
p3355
F1
sVleaue
p3356
F13
sVknife
p3357
F2
sVmeasuring
p3358
F1
sVconsidering
p3359
F1
sVhoures,
p3360
F3
sVfall'st
p3361
F1
sVbroken
p3362
F1
sVmoderately,
p3363
F1
sVdrums
p3364
F1
sVstrangled
p3365
F1
sVspeak'st
p3366
F1
sVout:
p3367
F1
sVviolence
p3368
F1
sVout,
p3369
F8
sVout.
p3370
F1
sVdagger
p3371
F2
sVwhiter
p3372
F1
sVblessed
p3373
F4
sVmorning?
p3374
F1
sVsoules,
p3375
F2
sVstrike,
p3376
F1
sVbepaint
p3377
F1
sVlodging,
p3378
F2
sVmorning,
p3379
F1
sVmornings
p3380
F4
sVwounded:
p3381
F1
sVclothes,
p3382
F1
sVvertuous
p3383
F1
sVstrife,
p3384
F2
sVlaine
p3385
F3
sVgore
p3386
F1
sVaspir'd
p3387
F1
sVwild,
p3388
F1
sVtearmes,
p3389
F1
sVdowne,
p3390
F3
sVmonday,
p3391
F1
sVfate,
p3392
F1
sVkinsman
p3393
F5
sVaffection
p3394
F2
sVfellow
p3395
F1
sVexamine
p3396
F2
sVmar'd
p3397
F1
sVfellon
p3398
F1
sVgron'd
p3399
F1
sVtedious
p3400
F2
sVrepent
p3401
F2
sVfield
p3402
F1
sVsick,
p3403
F1
sVselfe.
p3404
F3
sVsounded
p3405
F1
sVlouing
p3406
F8
sVsicke
p3407
F6
sVbreaches,
p3408
F1
sVresolution
p3409
F1
sVtemper'd.
p3410
F1
sVchincks
p3411
F1
sVforget
p3412
F6
sVvile
p3413
F7
sViu.
p3414
F4
sVforbidden
p3415
F1
sVtalke
p3416
F11
sVbosome
p3417
F5
sVchildren
p3418
F2
sVtalkt
p3419
F2
sVtortoyrs
p3420
F1
sVprefixed
p3421
F1
sVmother?
p3422
F4
sVday,
p3423
F18
sVgrub,
p3424
F1
sV'twill
p3425
F1
sVmother,
p3426
F5
sVmother.
p3427
F5
sVnorth:
p3428
F1
sVbosom:
p3429
F1
sVaduan'st
p3430
F1
sVsitting
p3431
F2
sVfals
p3432
F1
sVvndone
p3433
F1
sVfalt
p3434
F1
sVsun.
p3435
F2
sVfall
p3436
F12
sVfoure,
p3437
F1
sVwashing
p3438
F1
sVmothers
p3439
F1
sVsought,
p3440
F1
sVveines
p3441
F1
sValong.
p3442
F1
sValong,
p3443
F2
sVmistaking
p3444
F1
sVnine,
p3445
F1
sVvillaine,
p3446
F3
sVlightning?
p3447
F1
sVvncomfortable
p3448
F1
sVquiet.
p3449
F2
sVquiet,
p3450
F1
sVlightning,
p3451
F1
sVlammas
p3452
F2
sVfurther
p3453
F4
sVcreatures
p3454
F1
sVgrauitie
p3455
F1
sVsweetly
p3456
F1
sViuliets
p3457
F4
sVseaze
p3458
F1
sVdoting
p3459
F1
sVvnluckie
p3460
F2
sVknife,
p3461
F2
sVbeshrow
p3462
F1
sViuliet?
p3463
F5
sVsearch
p3464
F2
sViuliet:
p3465
F1
sVenmity
p3466
F2
sVbanished.
p3467
F1
sVbanished,
p3468
F9
sViuliet.
p3469
F10
sViuliet,
p3470
F17
sVbanished:
p3471
F2
sVbanished?
p3472
F3
sVmooued
p3473
F1
sVdistraught,
p3474
F1
sVbright:
p3475
F1
sVcapels
p3476
F2
sVarmes
p3477
F1
sVmerry.
p3478
F1
sVbright,
p3479
F1
sVknaues,
p3480
F1
sVbeames,
p3481
F2
sVlady,
p3482
F15
sVlady.
p3483
F6
sVeye
p3484
F7
sVtwo
p3485
F14
sVlady?
p3486
F4
sVputtest
p3487
F1
sVlady:
p3488
F1
sVleisure,
p3489
F1
sVgentlewomen
p3490
F1
sVbarke:
p3491
F1
sVhookes:
p3492
F1
sVarme,
p3493
F3
sVbarke,
p3494
F1
sVlisping
p3495
F1
sVnone
p3496
F9
sVabroad?
p3497
F1
sVnothing?
p3498
F1
sVsuckt
p3499
F2
sVabroad:
p3500
F1
sVdew
p3501
F2
sVnothing,
p3502
F3
sVabroad,
p3503
F1
sVcompare
p3504
F1
sVblacke,
p3505
F2
sVshare
p3506
F2
sVnumbers
p3507
F1
sVcontrarie?
p3508
F1
sVsharp
p3509
F1
sVneeds
p3510
F4
sVneedy
p3511
F1
sVacts
p3512
F1
sVabhors
p3513
F1
sVshankes
p3514
F1
sVblubbring
p3515
F1
sVstir
p3516
F1
sVprouds,
p3517
F1
sVnumber,
p3518
F1
sVcharme
p3519
F1
sVblood
p3520
F9
sVpreuent
p3521
F1
sVharsh
p3522
F1
sVorchard
p3523
F2
sVthou)
p3524
F1
sVcounsell,
p3525
F2
sVthou,
p3526
F5
sVcounsell.
p3527
F1
sVdragon
p3528
F1
sVslaughtred
p3529
F1
sVact,
p3530
F1
sVpay
p3531
F3
sVpleasure
p3532
F4
sVcounsell:
p3533
F1
sVperuerse,
p3534
F1
sVneed,
p3535
F1
sVthou?
p3536
F1
sVcounsell?
p3537
F1
sVinfant
p3538
F1
sVwinged
p3539
F1
sVwall,
p3540
F3
sVwall.
p3541
F1
sVseuering
p3542
F1
sVthrough
p3543
F8
sVsuffer
p3544
F1
sVstaine
p3545
F1
sVgouernment,
p3546
F1
sVbosom
p3547
F1
sVlate
p3548
F4
sVtoo.
p3549
F1
sVtrecherous
p3550
F1
sVmightest
p3551
F2
sV2.
p3552
F3
sVexile,
p3553
F1
sVpeeuish
p3554
F1
sVgood
p3555
F66
sVseeking
p3556
F1
sVmasters,
p3557
F1
sVwalls
p3558
F1
sVpen:
p3559
F1
sVsaluteth
p3560
F1
sVarmes,
p3561
F2
sVbacke:
p3562
F3
sVhouse
p3563
F16
sVhare
p3564
F5
sVhard
p3565
F2
sVlanthorne;
p3566
F1
sVbacke,
p3567
F5
sVbacke.
p3568
F2
sVsuspecting
p3569
F1
sVgeare,
p3570
F1
sVlanthorne,
p3571
F1
sVgeare.
p3572
F1
sVhart
p3573
F1
sVflower
p3574
F8
sVpilot,
p3575
F1
sVrogue,
p3576
F1
sVchildish
p3577
F1
sVacting
p3578
F1
sVflowed
p3579
F1
sVhenceforward
p3580
F2
sVrunst
p3581
F1
sVlawrence
p3582
F5
sVpleasant
p3583
F1
sVdisposition
p3584
F2
sVprin.
p3585
F13
sVomit
p3586
F1
sVwither
p3587
F1
sVfearefully
p3588
F1
sVstir,
p3589
F3
sVpar.
p3590
F15
sVdone
p3591
F5
sVstir:
p3592
F1
sVpaine
p3593
F3
sVtwenty
p3594
F9
sVleast
p3595
F4
sVthence,
p3596
F1
sVquarrels,
p3597
F1
sVconduit
p3598
F1
sVcup,
p3599
F1
sVembrace:
p3600
F1
sVexcels
p3601
F2
sVstrooken
p3602
F1
sVblades:
p3603
F1
sVneedly
p3604
F1
sVprodigious
p3605
F1
sVstirs
p3606
F1
sVweep'st
p3607
F1
sVyouth
p3608
F2
sVcontrary
p3609
F1
sVsupposed
p3610
F1
sVmercutio's
p3611
F2
sVwrites,
p3612
F1
sVcot-queane,
p3613
F1
sVaged
p3614
F1
sVdancing
p3615
F1
sVcouch
p3616
F1
sVhappily
p3617
F2
sVlifts
p3618
F1
sVage?
p3619
F1
sVorder,
p3620
F1
sVrusht
p3621
F1
sVage:
p3622
F1
sVtrudge,
p3623
F1
sVdistemprature;
p3624
F1
sVmaister
p3625
F6
sVmost
p3626
F15
sVmoonshines
p3627
F1
sVegge
p3628
F2
sVinuited
p3629
F1
sVfeasting
p3630
F2
sVteeme
p3631
F1
sVpath,
p3632
F1
sVintreated
p3633
F1
sVwailing
p3634
F1
sVfine
p3635
F2
sVfind
p3636
F20
sVheauy,
p3637
F1
sVyfaith
p3638
F1
sVbanish'd
p3639
F1
sVchang'd
p3640
F1
sVmoney
p3641
F1
sVfore-run
p3642
F1
sVexeunt.
p3643
F19
sVblush,
p3644
F1
sVcourage
p3645
F1
sVrest
p3646
F9
sVsilk
p3647
F1
sVblason
p3648
F1
sVmates,
p3649
F1
sVcommon
p3650
F2
sVmarue'lous
p3651
F1
sVdoublet
p3652
F1
sVtroth,
p3653
F1
sVaffoord
p3654
F2
sVfeares
p3655
F1
sVmanly
p3656
F1
sVtender
p3657
F6
sVmountague:
p3658
F1
sVioy.
p3659
F1
sVmountague?
p3660
F1
sVvisiting
p3661
F1
sVplease
p3662
F2
sVburnes
p3663
F1
sVioy:
p3664
F1
sVfans
p3665
F1
sVsmallest
p3666
F1
sVioy?
p3667
F1
sVmountague,
p3668
F12
sVmonethly
p3669
F1
sVmountague.
p3670
F3
sViesu
p3671
F3
sVfeare,
p3672
F3
sVwills
p3673
F1
sVgoarie
p3674
F1
sVcatling?
p3675
F1
sVmountagues
p3676
F3
sVthisbie
p3677
F1
sVcakes
p3678
F1
sVtrencher?
p3679
F2
sVharlots:
p3680
F1
sVstorie
p3681
F1
sVpoint
p3682
F2
sVsimple
p3683
F2
sVmodestie
p3684
F2
sVthroughout
p3685
F1
sVslip,
p3686
F1
sVdiscourses,
p3687
F1
sVheauenly
p3688
F1
sVraise
p3689
F4
sVmartiall
p3690
F1
sVsecret
p3691
F2
sVdropping
p3692
F1
sVlanguish:
p3693
F1
sVamaz'd,
p3694
F1
sVgnat,
p3695
F1
sVtorch-bearers.
p3696
F1
sVtombe,
p3697
F7
sVbestrides
p3698
F1
sVdance.
p3699
F1
sVcords.
p3700
F1
sVfalkners
p3701
F1
sVdance?
p3702
F2
sVrigour
p3703
F1
sVslaughter'd
p3704
F3
sVvaulty
p3705
F1
sVrancor
p3706
F1
sVrocks,
p3707
F1
sVhusband:
p3708
F2
sVhusband?
p3709
F1
sVminstrels?
p3710
F1
sVpaines:
p3711
F1
sVhow?
p3712
F1
sVremedie
p3713
F1
sVwherein
p3714
F1
sVsome,
p3715
F1
sVfurie
p3716
F1
sVfoorth,
p3717
F1
sVhow,
p3718
F4
sVdispaire
p3719
F2
sVvault?
p3720
F1
sVpurpose
p3721
F2
sVvault,
p3722
F4
sVvnseemely
p3723
F1
sVcalls?
p3724
F2
sVchappels
p3725
F1
sVspent
p3726
F1
sVmorrow
p3727
F12
sVwife?
p3728
F1
sVwithdraw
p3729
F2
sVknowes
p3730
F3
sVy
F1
sVtast
p3731
F1
sVloue.
p3732
F2
sVsawcy
p3733
F1
sVshape
p3734
F2
sVmatter:
p3735
F2
sVsawce
p3736
F1
sVmatter?
p3737
F1
sVletting
p3738
F1
sVcut
p3739
F4
sVreceiue
p3740
F1
sVcup
p3741
F2
sVouerthrowne:
p3742
F1
sVsilken
p3743
F1
sVwil
p3744
F4
sVteachie,
p3745
F1
sVbig
p3746
F1
sVbid
p3747
F22
sVtruely
p3748
F2
sVbit
p3749
F1
sVhate,
p3750
F7
sVfollows
p3751
F1
sVmurtherer,
p3752
F2
sVfoolish
p3753
F2
sVsworne,
p3754
F1
sVoften
p3755
F2
sVback
p3756
F2
sVimpeach
p3757
F1
sVacquaintance
p3758
F1
sVgood:
p3759
F1
sVnourisht
p3760
F1
sVgallops
p3761
F2
sVgood,
p3762
F1
sVdram,
p3763
F1
sVnose
p3764
F1
sVpresence,
p3765
F1
sVornament,
p3766
F1
sVdoting,
p3767
F1
sVornament:
p3768
F1
sVconstrains
p3769
F1
sVhope,
p3770
F2
sVrushes,
p3771
F1
sVcontent:
p3772
F1
sVboy.
p3773
F3
sVrun-agate
p3774
F1
sVboy,
p3775
F6
sVey'd
p3776
F2
sVcittie
p3777
F1
sVcould'st
p3778
F1
sVwadled
p3779
F1
sVdarknesse
p3780
F1
sVwhereto
p3781
F1
sVforward
p3782
F1
sVassembly,
p3783
F1
sVgirle?
p3784
F1
sVascend
p3785
F1
sVdeflowred
p3786
F1
sVgirle,
p3787
F1
sVhopes
p3788
F1
sVioyner
p3789
F1
sVcarefull
p3790
F1
sVpunished.
p3791
F1
sVvast-shore-washet
p3792
F1
sVroe,
p3793
F1
sVnecke
p3794
F1
sVscarlet
p3795
F2
sVsingle
p3796
F2
sVtybalts
p3797
F7
sVkil'd
p3798
F4
sVly'st
p3799
F1
sVhonourable,
p3800
F1
sVdoue-house,
p3801
F1
sVtybalt,
p3802
F14
sVtybalt.
p3803
F2
sVtybalt)
p3804
F1
sVlend
p3805
F1
sVtybalt?
p3806
F2
sVlucentio,
p3807
F1
sVslew'st
p3808
F1
sVtybalt:
p3809
F1
sVly,
p3810
F1
sVfisher
p3811
F1
sVfier'd
p3812
F1
sVcookes
p3813
F1
sVexcuse.
p3814
F1
sVexcuse?
p3815
F1
sVhappy.
p3816
F2
sVhighmost
p3817
F1
sVstrew
p3818
F3
sVhelpe
p3819
F11
sVfranciscan
p3820
F1
sVblaze
p3821
F1
sVpresently
p3822
F2
sVmoue
p3823
F6
sVputting
p3824
F1
sVpittie
p3825
F2
sVsurgeon
p3826
F1
sViaunt
p3827
F1
sVshrunke
p3828
F1
sVdrest,
p3829
F1
sVkinsmen
p3830
F3
sVwooed,
p3831
F1
sVhelp?
p3832
F1
sVieast,
p3833
F2
sVsin:
p3834
F1
sVcrow
p3835
F1
sVsin.
p3836
F2
sVsin,
p3837
F1
sVbeast.
p3838
F1
sVother:
p3839
F1
sVgoose?
p3840
F1
sVpipes
p3841
F1
sVpleading
p3842
F1
sVbody
p3843
F4
sVexchange
p3844
F3
sVbescreen'd
p3845
F1
sVnimble
p3846
F2
sVothers
p3847
F2
sVsing
p3848
F1
sVhither.
p3849
F3
sVsham'st
p3850
F2
sVconceit
p3851
F2
sV3.
p3852
F1
sVgoose,
p3853
F1
sVhoures?
p3854
F1
sVnames
p3855
F8
sVmawe,
p3856
F1
sVheere?
p3857
F3
sVhither:
p3858
F1
sVheere,
p3859
F1
sVcoullers
p3860
F1
sVname.
p3861
F2
sVname,
p3862
F7
sVneed'st
p3863
F1
sVcal'd
p3864
F1
sVbasket.
p3865
F1
sVname:
p3866
F2
sVaccount
p3867
F1
sVcrickets
p3868
F1
sVbeetle-browes
p3869
F1
sVfetch
p3870
F6
sVgodgigoden,
p3871
F1
sVhigh,
p3872
F1
sVbones
p3873
F2
sVrauen,
p3874
F1
sVyours?
p3875
F1
sVcontempt
p3876
F1
sV2.m.
p3877
F2
sVaduise,
p3878
F1
sVleaues,
p3879
F1
sVrauens
p3880
F1
sVsir
p3881
F16
sVproportion,
p3882
F1
sVfray
p3883
F2
sVtrifling
p3884
F1
sVgone.
p3885
F1
sVgone,
p3886
F19
sVnoise?
p3887
F1
sVprimus.
p3888
F1
sVgone:
p3889
F2
sVsententious
p3890
F1
sVhold,
p3891
F2
sVdinner.
p3892
F1
sVweeping,
p3893
F1
sVfurious
p3894
F1
sVdispraise
p3895
F1
sVfurnish
p3896
F1
sVspighted,
p3897
F1
sVstinted,
p3898
F1
sVflattering
p3899
F2
sVstinted:
p3900
F1
sVwhereon
p3901
F1
sVeue
p3902
F2
sVlo
p3903
F1
sVwinning
p3904
F1
sVlye:
p3905
F1
sVrough,
p3906
F1
sVgreater
p3907
F1
sVbanckrout
p3908
F1
sVfetch?
p3909
F1
sVcutting
p3910
F1
sVvnman'd
p3911
F1
sVday
p3912
F24
sVsaist
p3913
F3
sVleast,
p3914
F1
sVwilde
p3915
F1
sVwarnes
p3916
F1
sVvnnaturall
p3917
F1
sVsol'd
p3918
F1
sVmost,
p3919
F1
sVwary,
p3920
F1
sVcure,
p3921
F1
sVmessenger
p3922
F2
sVmistresses,
p3923
F1
sVchang'd?
p3924
F1
sVcures
p3925
F1
sVsouth
p3926
F1
sVfranke
p3927
F1
sVhurdle
p3928
F1
sVvillaine:
p3929
F1
sVhist:
p3930
F1
sVsadly
p3931
F1
sVrayl'st
p3932
F1
sVlamentable
p3933
F5
sVscant
p3934
F1
sVperforce
p3935
F1
sVvnsauory
p3936
F1
sVvanity,
p3937
F1
sVchase,
p3938
F1
sVslack
p3939
F1
sVpardon-mee's,
p3940
F1
sVinrich
p3941
F1
sVstaies
p3942
F2
sVsweet,
p3943
F3
sVflowres
p3944
F1
sVbusinesse
p3945
F3
sVcomfortable
p3946
F1
sViames
p3947
F1
sVwaken
p3948
F1
sVclaspes,
p3949
F1
sVpatience,
p3950
F2
sVpatience:
p3951
F2
sVdecreed,
p3952
F1
sVdesperate)
p3953
F1
sVbeere,
p3954
F1
sVskillesse
p3955
F1
sVprocure
p3956
F1
sVwhere's
p3957
F7
sValone;
p3958
F1
sVpropagate
p3959
F1
sVprisoner
p3960
F1
sVwake,
p3961
F2
sVinexorable
p3962
F1
sVrequest
p3963
F1
sVwaggoner,
p3964
F1
sVmodestie:
p3965
F1
sVoccasion
p3966
F3
sVtext
p3967
F1
sVtraitor
p3968
F1
sVbeauties
p3969
F3
sVvprous'd
p3970
F1
sVake,
p3971
F1
sVlolling
p3972
F1
sVexcesse,
p3973
F1
sVsociable,
p3974
F1
sVbestride
p3975
F1
sVbeat
p3976
F3
sVperfection
p3977
F1
sVtush,
p3978
F2
sVphilome,
p3979
F1
sVcalling
p3980
F1
sVstraight.
p3981
F1
sVsluttish
p3982
F1
sVstraight,
p3983
F2
sVfarthest
p3984
F2
sVbraines.
p3985
F1
sVgrosse
p3986
F1
sVbraines:
p3987
F1
sVcanons
p3988
F1
sVtorch-bearer,
p3989
F1
sVapparrel'd
p3990
F1
sVthanks?
p3991
F1
sVsorrow
p3992
F7
sVshell,
p3993
F1
sVaside,
p3994
F2
sVgossamours,
p3995
F1
sVfurie.
p3996
F1
sVinstant
p3997
F1
sVtaking
p3998
F2
sVpassing
p3999
F2
sVtydings
p4000
F2
sVglorious
p4001
F1
sVsluggabed,
p4002
F1
sVdenie
p4003
F4
sVgone
p4004
F10
sVdone:
p4005
F2
sVcommend
p4006
F5
sVsolemnitie
p4007
F1
sVlaugh
p4008
F1
sVdone,
p4009
F3
sVarise,
p4010
F1
sVtygers,
p4011
F1
sVyeares
p4012
F5
sVsolemnitie?
p4013
F2
sVhome?
p4014
F1
sVgaze
p4015
F2
sVattends
p4016
F1
sVgorg'd
p4017
F1
sVhome,
p4018
F1
sVapace.
p4019
F1
sVapace,
p4020
F1
sVhear'st
p4021
F1
sVcounteruaile
p4022
F1
sVplaid
p4023
F1
sVgiuing
p4024
F1
sVforsaken?
p4025
F1
sVdefie
p4026
F1
sVyeare,
p4027
F1
sVthereof,
p4028
F1
sVshame:
p4029
F1
sVreadie
p4030
F1
sVcan'st
p4031
F4
sVhelpes
p4032
F2
sVfishified?
p4033
F1
sV(grant
p4034
F1
sVay
p4035
F4
sVrestoratiue.
p4036
F1
sVshame,
p4037
F4
sVproue,
p4038
F2
sVset,
p4039
F4
sVsculles?
p4040
F1
sVgarish
p4041
F1
sVioy
p4042
F7
sVcloset,
p4043
F1
sVoffence,
p4044
F1
sVarm'd
p4045
F1
sVhearest
p4046
F2
sVhelpe,
p4047
F5
sVhelpe.
p4048
F1
sVbreaks?
p4049
F1
sVbehauiour
p4050
F1
sVcenter
p4051
F1
sVweapon
p4052
F2
sVthought
p4053
F8
sVodly
p4054
F1
sVioue
p4055
F1
sVaduan'st,
p4056
F1
sVvaine,
p4057
F1
sVall-seeing
p4058
F1
sVlosse
p4059
F2
sVknockes,
p4060
F1
sVknockes.
p4061
F1
sVwisedome
p4062
F1
sVslaue,
p4063
F1
sVvalours
p4064
F1
sVmatch
p4065
F1
sVstony
p4066
F2
sVbeautious
p4067
F2
sVdryed
p4068
F1
sVworlds
p4069
F2
sVthrowne
p4070
F1
sVstore,
p4071
F1
sVduckets,
p4072
F1
sVlike
p4073
F38
sVworke
p4074
F2
sVgodsheild:
p4075
F1
sVworme-wood
p4076
F2
sVworth,
p4077
F1
sVsimple.
p4078
F1
sVtuch,
p4079
F1
sValike,
p4080
F1
sVmaskes
p4081
F1
sVchaine
p4082
F1
sVflesh,
p4083
F2
sVflesh.
p4084
F1
sVhartsicke
p4085
F1
sVflesh:
p4086
F1
sVflesh?
p4087
F1
sVthinly
p4088
F1
sVnoise
p4089
F2
sVexpire
p4090
F1
sValthough
p4091
F1
sVworthy
p4092
F1
sVabout
p4093
F9
sVdistilling
p4094
F1
sVmaske?
p4095
F1
sVaboue
p4096
F7
sVblesse
p4097
F2
sVmaske,
p4098
F1
sVblowes
p4099
F2
sValoud,
p4100
F2
sVminute,
p4101
F1
sVquarrell,
p4102
F1
sVrushes
p4103
F1
sVdarkenesse
p4104
F1
sVprince.
p4105
F3
sVprince,
p4106
F6
sVvnwieldie,
p4107
F1
sVbuy
p4108
F3
sVbut
p4109
F172
sVplague
p4110
F3
sVmatch,
p4111
F3
sVbud
p4112
F2
sVstratagems
p4113
F1
sVfree-towne,
p4114
F1
sVbride?
p4115
F1
sVdangerous
p4116
F1
sVbride.
p4117
F1
sVflie
p4118
F1
sVdeaths
p4119
F3
sVfro[m]
p4120
F2
sVhils.
p4121
F1
sVdreampt
p4122
F2
sVspight
p4123
F2
sVeasterne
p4124
F2
sVaccident;
p4125
F1
sVindeed,
p4126
F3
sVdeath?
p4127
F5
sVdeath:
p4128
F5
sVindeed?
p4129
F1
sVdeath,
p4130
F22
sVdeath.
p4131
F3
sVpratest,
p4132
F1
sVbakes
p4133
F1
sVeuermore
p4134
F2
sVmorne
p4135
F2
sVdiscreet,
p4136
F1
sVsayle
p4137
F1
sVtrembles,
p4138
F1
sVcapu.
p4139
F6
sVdaughter's
p4140
F1
sVhath
p4141
F62
sVhate
p4142
F4
sVyonder
p4143
F5
sVhunts-vp
p4144
F1
sVparis
p4145
F15
sVsallow
p4146
F1
sVintreat
p4147
F1
sVpride
p4148
F1
sVmerchant
p4149
F1
sVlure
p4150
F1
sVteares?
p4151
F2
sVrise
p4152
F1
sVeast,
p4153
F2
sVliuing
p4154
F3
sVtears:
p4155
F1
sVteares,
p4156
F6
sVtib.
p4157
F14
sVencounter
p4158
F3
sVseperated:
p4159
F1
sVhealthsome
p4160
F1
sVpari.
p4161
F1
sVvenus
p4162
F2
sVsounds,
p4163
F1
sVparted
p4164
F1
sVexcuses,
p4165
F1
sVdirect
p4166
F1
sVcreated:
p4167
F1
sVprosperous,
p4168
F1
sVparamour?
p4169
F1
sVshining
p4170
F1
sVhide
p4171
F7
sVviolently,
p4172
F1
sVseeke
p4173
F3
sVbeaten
p4174
F1
sVliberty
p4175
F2
sVblackebrow'd
p4176
F1
sVworser
p4177
F2
sVchange:
p4178
F1
sVbeates
p4179
F2
sVconduct
p4180
F2
sVfriendship:
p4181
F1
sVattending
p4182
F1
sVdeere
p4183
F1
sVchanges
p4184
F1
sVcompany,
p4185
F1
sVprouision,
p4186
F1
sVbreath,
p4187
F6
sVvp?
p4188
F1
sVvp:
p4189
F2
sVpatience
p4190
F1
sVcompany:
p4191
F1
sVvp,
p4192
F11
sVbreath?
p4193
F2
sVgraue
p4194
F6
sVbreath:
p4195
F1
sVwould
p4196
F53
sVm.
p4197
F1
sVnoting
p4198
F1
sVsin-absoluer,
p4199
F1
sVmeat,
p4200
F1
sVoff:
p4201
F1
sVsorrow,
p4202
F1
sVcoffing
p4203
F1
sVvaliditie,
p4204
F1
sVbreaths
p4205
F1
sVexcellent
p4206
F1
sVtoo't,
p4207
F2
sVoff,
p4208
F2
sVmust
p4209
F40
sVme
p4210
F193
sVmo
p4211
F1
sVentertained
p4212
F1
sVtender,
p4213
F1
sVmy
p4214
F374
sVend
p4215
F3
sVenquire
p4216
F1
sVgate
p4217
F1
sVloose,
p4218
F1
sVloose.
p4219
F1
sVboth,
p4220
F5
sVpossesse,
p4221
F1
sVboth:
p4222
F2
sVvow'd
p4223
F1
sVsmoake
p4224
F1
sVenter
p4225
F75
sVvtters
p4226
F1
sVbeggerly
p4227
F1
sVexpects
p4228
F1
sVtayler
p4229
F1
sVlent.
p4230
F1
sVwriting
p4231
F1
sVtilts
p4232
F1
sVfade
p4233
F1
sVwhipt
p4234
F1
sVfee-simple
p4235
F1
sVborne,
p4236
F1
sVdan'st
p4237
F1
sVeach
p4238
F2
sVlasting
p4239
F1
sVamaz'd
p4240
F1
sVmattocke
p4241
F1
sVweeke,
p4242
F2
sVdians
p4243
F1
sVsute:
p4244
F2
sVday?
p4245
F2
sVgon
p4246
F1
sVday:
p4247
F2
sVsute?
p4248
F1
sVselfe,
p4249
F9
sVgoe
p4250
F15
sVgod
p4251
F20
sVday.
p4252
F2
sVselfe:
p4253
F3
sVlaid
p4254
F4
sVselfe?
p4255
F3
sVgot
p4256
F3
sVnewly
p4257
F2
sVday!
p4258
F1
sVprorogue
p4259
F1
sVghost,
p4260
F1
sVassociate
p4261
F1
sVenioy'd,
p4262
F1
sVdefence.
p4263
F1
sVadiacent
p4264
F1
sVfree
p4265
F1
sVsteept
p4266
F1
sVgo,
p4267
F2
sVsimpathy:
p4268
F1
sVanselme
p4269
F1
sVgo?
p4270
F1
sVgo:
p4271
F1
sVsuted
p4272
F1
sValready
p4273
F3
sVwaid,
p4274
F1
sVtoo,
p4275
F11
sVrank
p4276
F1
sVhearing
p4277
F2
sVsober
p4278
F1
sVtoo?
p4279
F3
sVtoo:
p4280
F2
sVtoy
p4281
F1
sVtop
p4282
F1
sVioyn'd
p4283
F1
sVtoo
p4284
F43
sVmercifull,
p4285
F2
sVmistie
p4286
F1
sVmurder
p4287
F2
sVsharpes.
p4288
F1
sVmercutius
p4289
F1
sVcurtaine
p4290
F1
sVgriefe
p4291
F2
sVbeare
p4292
F11
sVto,
p4293
F2
sVleafe
p4294
F1
sVvnaduis'd,
p4295
F1
sVfashion
p4296
F1
sVran
p4297
F4
sVrooteth
p4298
F1
sVspade
p4299
F1
sVstay'd
p4300
F1
sVsnow
p4301
F1
sVmaidenhead,
p4302
F1
sVcleft
p4303
F1
sVpromotion,
p4304
F1
sVthough
p4305
F11
sVwantons
p4306
F2
sVphilosophie
p4307
F1
sVparting
p4308
F1
sVride,
p4309
F1
sVbrest:
p4310
F1
sVflow
p4311
F1
sVreputation
p4312
F1
sVspits,
p4313
F1
sVbrest,
p4314
F1
sVswifter
p4315
F1
sVabouts
p4316
F1
sVchariot
p4317
F1
sVbait
p4318
F1
sVknock,
p4319
F1
sVlabell
p4320
F1
sVearth
p4321
F9
sVshot,
p4322
F1
sVtowne,
p4323
F2
sVdesparate
p4324
F1
sVgods
p4325
F3
sVborrowed
p4326
F2
sVmixture
p4327
F1
sVabout:
p4328
F1
sVvnknowne,
p4329
F1
sVwatch
p4330
F8
sVknocke
p4331
F2
sVrepose
p4332
F1
sVwedding
p4333
F4
sVreport
p4334
F1
sVknocks
p4335
F1
sVabout.
p4336
F1
sVabout,
p4337
F3
sVcloudes,
p4338
F5
sVdelay,
p4339
F2
sVsayes
p4340
F4
sVgirles,
p4341
F1
sVliquor
p4342
F1
sVbee
p4343
F1
sVface,
p4344
F6
sVface.
p4345
F1
sVwiues
p4346
F1
sVcourteous,
p4347
F1
sVface?
p4348
F3
sVface:
p4349
F2
sVmartino,
p4350
F1
sVhonestly,
p4351
F1
sVbargaine
p4352
F1
sVfault
p4353
F2
sVdenide
p4354
F1
sVsoueraigne,
p4355
F1
sVmu.
p4356
F10
sVlame,
p4357
F1
sVasham'd
p4358
F1
sVhilding
p4359
F1
sVtrust
p4360
F4
sVweeps,
p4361
F1
sVhauing
p4362
F7
sVfearefull
p4363
F5
sVropes
p4364
F1
sVlesse,
p4365
F2
sVquickly
p4366
F3
sVwere,
p4367
F3
sVdrugs
p4368
F3
sVchurch?
p4369
F1
sVday-light
p4370
F3
sVchurch:
p4371
F2
sVcatch
p4372
F1
sVglides
p4373
F1
sVcursies
p4374
F1
sVtumblest
p4375
F1
sVbandying
p4376
F1
sVworne,
p4377
F1
sVdeepe
p4378
F4
sVquinces
p4379
F1
sVasleepe:
p4380
F1
sVasleepe,
p4381
F1
sVcontaining
p4382
F1
sVheart.
p4383
F1
sVheart,
p4384
F9
sVhated,
p4385
F1
sVheart:
p4386
F2
sVheart?
p4387
F1
sVlusty
p4388
F1
sVdigressing
p4389
F1
sVmade:
p4390
F1
sVdashing
p4391
F1
sVmade,
p4392
F2
sVshadowes
p4393
F2
sVdoth,
p4394
F1
sVmother
p4395
F6
sVhearts
p4396
F9
sVinuocation
p4397
F1
sVthumbe
p4398
F3
sVdeparted
p4399
F1
sVcoap'st
p4400
F1
sVshrow'd?
p4401
F1
sVdepart
p4402
F3
sVshrow'd,
p4403
F1
sVell
p4404
F1
sVdearer
p4405
F1
sVburnt
p4406
F2
sVbandy
p4407
F1
sVburne
p4408
F3
sViule.
p4409
F1
sVafore
p4410
F3
sVbreake
p4411
F4
sViule?
p4412
F2
sVreuerse
p4413
F1
sVcontradict
p4414
F1
sVdeare:
p4415
F1
sVvestal
p4416
F1
sVfoote
p4417
F3
sVsplendor
p4418
F1
sVdeare,
p4419
F1
sVosier
p4420
F1
sVliue:
p4421
F1
sVliue,
p4422
F8
sVwincke,
p4423
F1
sVcoile,
p4424
F1
sVclub)
p4425
F1
sVeuening
p4426
F1
sVfoode,
p4427
F1
sVliuer
p4428
F1
sVliues
p4429
F10
sVdinner
p4430
F1
sVdistressed,
p4431
F1
sVpresence
p4432
F1
sVitalie:
p4433
F1
sVappothecarie!
p4434
F1
sVayery
p4435
F1
sVmurdered,
p4436
F1
sVappothecarie,
p4437
F1
sVknocke.
p4438
F2
sVappothecarie.
p4439
F1
sVwhy
p4440
F39
sVseekes
p4441
F1
sVfought
p4442
F3
sVcouert
p4443
F1
sVappothecarie?
p4444
F1
sVhead
p4445
F8
sVhands:
p4446
F1
sVfalne
p4447
F1
sVhands,
p4448
F3
sVhands.
p4449
F1
sVsmilest
p4450
F1
sVpurg'd,
p4451
F1
sVsups
p4452
F1
sVbids
p4453
F1
sVseeke,
p4454
F1
sVcouer.
p4455
F1
sVtwixt
p4456
F2
sVtrim
p4457
F1
sVseemes)
p4458
F1
sVhams
p4459
F1
sVtrie
p4460
F2
sVsupper?
p4461
F1
sVscratch,
p4462
F2
sVgallant,
p4463
F1
sVsometime
p4464
F3
sVdarke
p4465
F6
sVwillingly
p4466
F1
sVno
p4467
F91
sVwhen
p4468
F53
sVwher
p4469
F2
sVsoundly
p4470
F2
sVroome,
p4471
F1
sVbrisk
p4472
F1
sVtoad
p4473
F1
sVtreads,
p4474
F1
sVyounger
p4475
F1
sVlonger
p4476
F4
sVcandle-holder
p4477
F1
sVpaper,
p4478
F1
sVdine?
p4479
F1
sVserious
p4480
F1
sVbackward
p4481
F2
sVsacke
p4482
F1
sVleade
p4483
F1
sVrun-awayes
p4484
F1
sVmixt,
p4485
F1
sVsignifie
p4486
F1
sVbehauiour,
p4487
F1
sVextremities
p4488
F1
sVhildings
p4489
F1
sVcharge
p4490
F2
sVchurchyard,
p4491
F1
sVfarre,
p4492
F1
sVangelicall:
p4493
F1
sVro.
p4494
F9
sVflowr'd
p4495
F1
sVaduenture
p4496
F2
sVlead.
p4497
F1
sVlead,
p4498
F1
sVextremitie:
p4499
F1
sVsubiects,
p4500
F1
sVmarried,
p4501
F4
sVclouds
p4502
F1
sVbest,
p4503
F1
sVbrother
p4504
F4
sVinauspicious
p4505
F1
sVmarried?
p4506
F1
sVmarried:
p4507
F1
sVposte
p4508
F2
sVwaggon
p4509
F1
sVdrier
p4510
F1
sVdrinke
p4511
F4
sVmonument,
p4512
F1
sVroperie?
p4513
F1
sVmonument.
p4514
F1
sVstands
p4515
F4
sVgoes
p4516
F3
sVreply
p4517
F1
sVhealth,
p4518
F2
sVsay?
p4519
F2
sVsay:
p4520
F2
sVwater
p4521
F2
sVafternoone,
p4522
F2
sVwayes
p4523
F1
sVsay,
p4524
F9
sVhaire
p4525
F3
sVangelica,
p4526
F1
sVhealths
p4527
F1
sVthirty
p4528
F2
sVgoe,
p4529
F1
sVguilty
p4530
F1
sVstand.
p4531
F1
sVstand,
p4532
F2
sVwher's
p4533
F1
sVcase,
p4534
F1
sVhumour
p4535
F1
sVcase.
p4536
F1
sVambuscados,
p4537
F1
sVcase:
p4538
F1
sVswallowed
p4539
F1
sVwings,
p4540
F1
sVhidious
p4541
F1
sVshooes
p4542
F2
sVdisparagement:
p4543
F1
sVwings:
p4544
F1
sVvnluckily,
p4545
F1
sVconfoundes
p4546
F1
sVbeere
p4547
F1
sVmuffle
p4548
F1
sVmistaine,
p4549
F1
sVthree.
p4550
F1
sVfigure
p4551
F1
sVstroke
p4552
F1
sVplease:
p4553
F1
sVstarres.
p4554
F1
sVstarres,
p4555
F4
sVeight.
p4556
F1
sVgentler
p4557
F1
sVspeake
p4558
F22
sVstones,
p4559
F2
sVspeaks
p4560
F1
sVwelseeming
p4561
F1
sVhard-harted
p4562
F1
sVmeete:
p4563
F1
sVmeete,
p4564
F1
sVfruite,
p4565
F1
sVbeg,
p4566
F1
sVspeak,
p4567
F1
sVdifferent.
p4568
F1
sVliquid
p4569
F1
sVfadome
p4570
F1
sVladyes
p4571
F1
sVvnworthiest
p4572
F1
sVenemies?
p4573
F1
sVcomfort
p4574
F8
sVsonnes
p4575
F1
sVsirrah,
p4576
F4
sVslaine,
p4577
F8
sVslaine?
p4578
F1
sVworship
p4579
F2
sVhe's
p4580
F1
sVabhorred
p4581
F1
sVsorrie
p4582
F1
sVneede
p4583
F1
sVsoone
p4584
F10
sVreflexe
p4585
F1
sVsonne:
p4586
F1
sVsonne,
p4587
F4
sVname
p4588
F9
sVvnattainted
p4589
F1
sVtorch
p4590
F4
sVflye.
p4591
F1
sVcall's
p4592
F1
sVtutor'd
p4593
F1
sVfarewell
p4594
F8
sVtrunke
p4595
F1
sVbegun
p4596
F1
sVdiuining
p4597
F1
sVthus?
p4598
F1
sVtrustie
p4599
F1
sVshe
p4600
F97
sVgipsie,
p4601
F1
sVeagle
p4602
F1
sVvnfirme
p4603
F1
sVeccho
p4604
F1
sVmotion
p4605
F2
sVplace
p4606
F4
sVneare,
p4607
F1
sVchildhood
p4608
F1
sVgreatest,
p4609
F1
sVaccur'st,
p4610
F1
sVarray
p4611
F1
sVreturne
p4612
F2
sVprayers
p4613
F3
sVberlady
p4614
F1
sVwindowes,
p4615
F1
sVchastity
p4616
F1
sVbounty
p4617
F1
sVser.
p4618
F15
sVwhite
p4619
F3
sVbraue
p4620
F2
sVmorrow,
p4621
F5
sVmorrow.
p4622
F1
sVrefuse
p4623
F1
sValas
p4624
F6
sVkindreds
p4625
F3
sVmorrow:
p4626
F1
sVwide
p4627
F2
sVwhit:
p4628
F1
sVearth:
p4629
F3
sVearth?
p4630
F2
sVr
F1
sVearth,
p4631
F6
sVand
p4632
F691
sVsearchers
p4633
F1
sVfall,
p4634
F2
sVfri.
p4635
F51
sVany
p4636
F21
sVbowe-boyes
p4637
F1
sVlate,
p4638
F7
sVdish-clout
p4639
F1
sVsure
p4640
F4
sVsell.
p4641
F1
sVorecouered
p4642
F1
sVstickest
p4643
F1
sVinke
p4644
F1
sVstrength,
p4645
F1
sVproue
p4646
F4
sVproud
p4647
F3
sVhungry
p4648
F1
sVplaying
p4649
F1
sVliue
p4650
F11
sVthat's
p4651
F9
sVsunset
p4652
F1
sVsped:
p4653
F1
sVnarrow,
p4654
F1
sVdistempered
p4655
F1
sVmadnesse,
p4656
F1
sVdeaw,
p4657
F1
sVmind,
p4658
F1
sVwritten
p4659
F2
sVplaies:
p4660
F1
sVfickle
p4661
F1
sVplaies,
p4662
F1
sVcrutch:
p4663
F1
sVcrutch,
p4664
F1
sVdym
p4665
F1
sVtailor
p4666
F1
sVphantasie,
p4667
F1
sVmistresse,
p4668
F1
sVmewed
p4669
F1
sVnaked
p4670
F1
sVbought
p4671
F1
sVvoyce
p4672
F1
sVouer
p4673
F5
sVcitie:
p4674
F1
sVmantuas
p4675
F1
sVsawcie
p4676
F1
sVwall:
p4677
F1
sVdriueth
p4678
F1
sVhist
p4679
F2
sVbeseeming
p4680
F3
sVtoole,
p4681
F1
sVapologie?
p4682
F1
sVproportion'd
p4683
F1
sVcome
p4684
F76
sVway?
p4685
F1
sVwanders
p4686
F1
sVlambe:
p4687
F1
sVregion
p4688
F1
sVquiet
p4689
F1
sVcontract
p4690
F1
sVlambe,
p4691
F2
sVshelues,
p4692
F1
sVway,
p4693
F1
sVtwelue
p4694
F1
sVwheeles.
p4695
F1
sVburiall
p4696
F2
sVpox
p4697
F1
sVguiltie
p4698
F1
sVsatisfaction
p4699
F1
sVwheeles:
p4700
F1
sVamen,
p4701
F2
sVreuerso,
p4702
F1
sVpilgrims
p4703
F2
sVmoun.
p4704
F8
sVdriueling
p4705
F1
sVamen:
p4706
F1
sVcords
p4707
F3
sVdirection
p4708
F1
sVinfinite:
p4709
F1
sVblessing
p4710
F2
sVburied.
p4711
F1
sVspirit
p4712
F3
sVcase
p4713
F6
sVconfession,
p4714
F2
sVcord,
p4715
F1
sVscales,
p4716
F1
sVtrespasse
p4717
F1
sVlife;
p4718
F1
sVlife:
p4719
F3
sVcast
p4720
F3
sVcordes,
p4721
F1
sVlife.
p4722
F1
sVlife,
p4723
F2
sVvainely
p4724
F1
sVwee,
p4725
F1
sVhering.
p4726
F1
sVsence
p4727
F1
sVsides:
p4728
F1
sVbetroth'd,
p4729
F1
sVguests:
p4730
F1
sVtyrannous
p4731
F1
sVvowes
p4732
F1
sVlookes.
p4733
F1
sVlookes)
p4734
F1
sVmuffled
p4735
F1
sVpersons
p4736
F2
sVlamentation
p4737
F1
sVstatue
p4738
F1
sVlookes:
p4739
F1
sVaffords
p4740
F1
sVbow,
p4741
F1
sVwithout
p4742
F12
sVbodies
p4743
F2
sVrung,
p4744
F1
sVyron
p4745
F2
sVkils
p4746
F1
sVviolent
p4747
F2
sVkill
p4748
F9
sVkill.
p4749
F1
sVkild
p4750
F1
sVperilous
p4751
F1
sVblow
p4752
F1
sVcounsaile
p4753
F1
sVbones:
p4754
F1
sVbenefice.
p4755
F1
sVpurgatorie,
p4756
F1
sVlets
p4757
F3
sVseeme
p4758
F1
sVbones,
p4759
F3
sVbones.
p4760
F1
sVguide,
p4761
F1
sVfauour
p4762
F2
sVconfines
p4763
F1
sVroode
p4764
F1
sVmans,
p4765
F1
sVvniuersall
p4766
F1
sVhappinesse
p4767
F2
sVwoman,
p4768
F1
sVcalme,
p4769
F1
sVo,
p4770
F1
sVobey.
p4771
F1
sVstopt
p4772
F1
sVo!
p4773
F1
sVporter
p4774
F1
sVsurcease:
p4775
F1
sVslaundred
p4776
F1
sVvaine
p4777
F2
sVclos'd
p4778
F3
sVslow'd.
p4779
F1
sVon
p4780
F74
sVoh
p4781
F15
sVof
p4782
F381
sVbetweene
p4783
F3
sVwhence
p4784
F2
sVstand
p4785
F20
sVor
p4786
F74
sVflies,
p4787
F1
sVladies
p4788
F11
sVinstruments
p4789
F2
sVcursed
p4790
F2
sVdetermine
p4791
F2
sVyeares,
p4792
F6
sVbuds
p4793
F1
sVchoice,
p4794
F1
sVearle:
p4795
F1
sVfeele,
p4796
F2
sVvncouer'd
p4797
F1
sVthere
p4798
F45
sVsatisfied:
p4799
F1
sVfish
p4800
F1
sVaccount!
p4801
F1
sVbladders,
p4802
F1
sViuli.
p4803
F12
sVweeds,
p4804
F1
sVpallace
p4805
F2
sVfaster
p4806
F1
sVdesir'st
p4807
F1
sVherauld
p4808
F2
sVcapulets,
p4809
F2
sVcalamitie,
p4810
F1
sVmortall
p4811
F3
sVtaste
p4812
F1
sVweladay,
p4813
F2
sVwords.
p4814
F1
sVwords,
p4815
F2
sVhearts,
p4816
F2
sVchearly
p4817
F1
sVbegins,
p4818
F1
sVstumbled
p4819
F1
sVbooke.
p4820
F1
sVlamentation.
p4821
F1
sVswords
p4822
F2
sVroses
p4823
F2
sVbooke:
p4824
F1
sVtast.
p4825
F1
sVsoiourne
p4826
F1
sVstocke
p4827
F1
sVridling
p4828
F2
sVsword?
p4829
F1
sVdiscerne,
p4830
F1
sVcalls
p4831
F3
sVwife
p4832
F10
sVparsons
p4833
F1
sVrose,
p4834
F1
sVsword,
p4835
F1
sVanger'd,
p4836
F1
sVodde
p4837
F1
sVall
p4838
F84
sVpitteous
p4839
F1
sVson,
p4840
F2
sVflowring
p4841
F1
sV'gainst
p4842
F1
sVfollow
p4843
F7
sVwakened
p4844
F1
sVmatron
p4845
F1
sVwanton
p4846
F2
sVrebicke?
p4847
F1
sVsparkling
p4848
F1
sVheauens
p4849
F3
sVweake
p4850
F4
sVdrowsie
p4851
F1
sVbloudy
p4852
F1
sVgreeting:
p4853
F2
sVsetled
p4854
F1
sVbelonging
p4855
F1
sVwoman
p4856
F2
sVworse
p4857
F3
sVfar
p4858
F2
sVmustie
p4859
F1
sVprophaners
p4860
F1
sVworst
p4861
F1
sVlist
p4862
F1
sVbable
p4863
F1
sVwombe:
p4864
F1
sVdexterity
p4865
F1
sVtel
p4866
F1
sVten
p4867
F2
sVrate
p4868
F2
sVrauenous
p4869
F1
sVcompasse
p4870
F1
sVwhat
p4871
F157
sVallow:
p4872
F1
sVsun
p4873
F8
sVsum
p4874
F1
sVcircumstance
p4875
F1
sVcrush
p4876
F1
sVcrowes,
p4877
F1
sVheadstrong,
p4878
F1
sVtoes
p4879
F1
sVchristian
p4880
F1
sV2.wife.
p4881
F1
sVquarreling:
p4882
F1
sVrat,
p4883
F1
sVgun,
p4884
F1
sV'twere
p4885
F1
sVhaue,
p4886
F5
sVwaxe,
p4887
F1
sVknow.
p4888
F1
sVknow,
p4889
F2
sVenamor'd
p4890
F1
sVschool-boyes
p4891
F1
sVfaint
p4892
F1
sVwield
p4893
F1
sVfaine
p4894
F3
sVhorses
p4895
F1
sVwretched
p4896
F3
sVactus
p4897
F1
sVflag
p4898
F1
sVwaxes
p4899
F1
sVglad
p4900
F2
sVadue.
p4901
F1
sVadue,
p4902
F2
sVpepper'd
p4903
F1
sVarbitrating
p4904
F1
sVadue:
p4905
F1
sVhusband,
p4906
F3
sVchurchyard.
p4907
F1
sVfalshood,
p4908
F1
sVarise
p4909
F2
sVrather
p4910
F4
sVspeeding
p4911
F1
sVassailing
p4912
F1
sVfoote,
p4913
F3
sVbawdy
p4914
F1
sVhers,
p4915
F2
sVpalmers
p4916
F2
sVdemeanes,
p4917
F2
sVhandsome,
p4918
F1
sVbosomes
p4919
F1
sVchiefly
p4920
F1
sVcaue
p4921
F1
sVsusan
p4922
F3
sVveines:
p4923
F1
sVfooted
p4924
F1
sVveines,
p4925
F2
sVearth-quake
p4926
F1
sVwould,
p4927
F2
sVquarrell
p4928
F7
sVtibalts
p4929
F3
sVposteritie.
p4930
F1
sViacks:
p4931
F1
sVpray
p4932
F17
sVdiscords:
p4933
F1
sVabbey
p4934
F1
sVstrange
p4935
F3
sVnephew,
p4936
F1
sVmight
p4937
F5
sValready:
p4938
F1
sVgreefe,
p4939
F1
sVtibalt?
p4940
F1
sVsucking
p4941
F1
sVlittle,
p4942
F2
sVquarrel,
p4943
F1
sVtibalt,
p4944
F4
sVtibalt.
p4945
F1
sVoutrage,
p4946
F1
sVbigger
p4947
F1
sVfearfull
p4948
F1
sVday;
p4949
F1
sVmarchandise
p4950
F1
sVfleere
p4951
F1
sVstrook
p4952
F1
sVhill
p4953
F1
sVparadise
p4954
F1
sVtassell
p4955
F1
sVby'th'
p4956
F1
sVmadman,
p4957
F1
sVteach
p4958
F3
sVpomgranet
p4959
F1
sVconsequence
p4960
F1
sVseeming
p4961
F3
sVfeet
p4962
F1
sVthoughts.
p4963
F1
sVthoughts,
p4964
F1
sVkin,
p4965
F1
sVhangs
p4966
F2
sVpoints,
p4967
F1
sVvnto.
p4968
F1
sVstore
p4969
F1
sVcozen,
p4970
F1
sVcozen.
p4971
F1
sVcozen?
p4972
F1
sVimmediately.
p4973
F1
sVking
p4974
F2
sVkind
p4975
F5
sVdouble
p4976
F1
sVhang,
p4977
F1
sVthinkes
p4978
F2
sVstale
p4979
F1
sVshrike
p4980
F1
sVpasse,
p4981
F1
sVmercutio
p4982
F6
sVvertue
p4983
F1
sVvisor,
p4984
F2
sVpart,
p4985
F5
sVmeasure,
p4986
F2
sVwarning,
p4987
F1
sVnights
p4988
F6
sVfinding
p4989
F1
sVpuffing
p4990
F1
sVimport;
p4991
F1
sVadded
p4992
F1
sVskarfe,
p4993
F1
sVreach
p4994
F1
sVcitizens.
p4995
F1
sVnothing
p4996
F10
sVtongue,
p4997
F4
sVnight:
p4998
F10
sVnight?
p4999
F2
sVpart
p5000
F17
sVnight,
p5001
F27
sVnight.
p5002
F3
sVbeard,
p5003
F1
sVarm'd:
p5004
F1
sVdyall
p5005
F1
sVdiuorced,
p5006
F1
sVpenalty
p5007
F1
sVdiscouered
p5008
F1
sVnecke,
p5009
F1
sVtruckle
p5010
F1
sVlouers
p5011
F6
sVhis
p5012
F137
sVhit
p5013
F7
sVlament,
p5014
F1
sVfountaines
p5015
F1
sVstone?
p5016
F1
sVwhistle
p5017
F2
sVhid
p5018
F4
sVhie
p5019
F6
sVwarmth,
p5020
F1
sVhim
p5021
F65
sVpeniworths
p5022
F1
sVlouer,
p5023
F3
sVvneuen
p5024
F1
sVart
p5025
F48
sVdump
p5026
F1
sVbare
p5027
F3
sVare
p5028
F65
sVlearnt
p5029
F1
sVvile,
p5030
F1
sVliuing,
p5031
F2
sVfind:
p5032
F1
sVlearne
p5033
F4
sVsheath,
p5034
F1
sVvillanous
p5035
F1
sVafter,
p5036
F1
sVchamber,
p5037
F3
sVsold
p5038
F1
sVsole
p5039
F2
sVchamber:
p5040
F1
sVchearely
p5041
F1
sVmidwife,
p5042
F1
sVhead,
p5043
F6
sVfalse,
p5044
F1
sVfinde
p5045
F3
sVpriuy:
p5046
F1
sVo'th
p5047
F1
sVabsolu'd
p5048
F1
sVcouragious
p5049
F1
sVfinds
p5050
F1
sVfalse:
p5051
F1
sVflies
p5052
F1
sVreasons
p5053
F1
sVsweet
p5054
F21
sVsences
p5055
F1
sVflint,
p5056
F1
sVthere,
p5057
F7
sVthere.
p5058
F1
sVthere)
p5059
F1
sVconfesse
p5060
F2
sVdug
p5061
F1
sVwhom
p5062
F4
sVthere?
p5063
F4
sVthere:
p5064
F1
sVhumours,
p5065
F1
sVflie:
p5066
F1
sVsence,
p5067
F1
sVsoftest
p5068
F1
sVgoodly
p5069
F1
sVreason,
p5070
F1
sVflie,
p5071
F1
sVfrozen
p5072
F1
sVlips,
p5073
F9
sVlips?
p5074
F1
sVwhere,
p5075
F1
sVprofest:
p5076
F1
sVstand:
p5077
F3
sVwhere:
p5078
F1
sVleane
p5079
F1
sVrid
p5080
F1
sVaway.
p5081
F2
sVvsest
p5082
F1
sVcholer
p5083
F1
sVshirt
p5084
F1
sVdare,
p5085
F1
sVhag,
p5086
F1
sVaway?
p5087
F1
sVmurdred
p5088
F2
sVsteele,
p5089
F1
sVsteele.
p5090
F1
sVmanners,
p5091
F1
sVvioll
p5092
F1
sVlowe,
p5093
F1
sVdaughters
p5094
F2
sVperiur'd,
p5095
F1
sVlodge?
p5096
F1
sVnightingale:
p5097
F1
sVdaughter,
p5098
F2
sVitch,
p5099
F1
sVesteeme,
p5100
F1
sVdaughter?
p5101
F1
sV(some
p5102
F1
sVnightingale,
p5103
F1
sVdaughter:
p5104
F2
sVdares
p5105
F3
sVawhile,
p5106
F3
sVmood,
p5107
F1
sVpardoning
p5108
F1
sVdrawne,
p5109
F1
sVawake,
p5110
F2
sVprince
p5111
F9
sVmeanest
p5112
F1
sVtables
p5113
F1
sVmaria,
p5114
F1
sVshaft,
p5115
F1
sVdrift,
p5116
F2
sVwilfull
p5117
F1
sVshape,
p5118
F3
sVpreuented?
p5119
F1
sVfindes
p5120
F1
sVmeanes,
p5121
F2
sVquestion,
p5122
F1
sVmeanes?
p5123
F1
sVpate.
p5124
F1
sVdaies:
p5125
F1
sVdaies.
p5126
F1
sVmisapplied,
p5127
F1
sVnipple
p5128
F1
sVlenten
p5129
F1
sVtable,
p5130
F1
sVmountagues.
p5131
F2
sVmountagues,
p5132
F2
sVbedawb'd
p5133
F1
sVpalme,
p5134
F1
sVvnplagu'd
p5135
F1
sVwherefore?
p5136
F1
sVpassado,
p5137
F1
sVbeautifie
p5138
F1
sVcurphew
p5139
F1
sVbitter-sweeting,
p5140
F1
sVturn'd
p5141
F2
sVrere-ward
p5142
F1
sVfourteene
p5143
F3
sVage.
p5144
F1
sVratling
p5145
F1
sVforbeare
p5146
F1
sVpurg'd
p5147
F1
sVglooming
p5148
F1
sVpiteous
p5149
F2
sVlightens,
p5150
F1
sVi
F567
sVquestion
p5151
F1
sVdishonour'd,
p5152
F1
sVlong
p5153
F13
sVchaunces
p5154
F1
sVamended.
p5155
F1
sViealous
p5156
F4
sViacke
p5157
F1
sVmantle,
p5158
F1
sVcalles
p5159
F1
sVfrier
p5160
F21
sVz
F1
sVmisheathed
p5161
F1
sVauncestors
p5162
F1
sVfestiuall,
p5163
F2
sVbreast,
p5164
F2
sVpeace
p5165
F9
sVdepart,
p5166
F1
sVmones;
p5167
F1
sVhappie.
p5168
F1
sVbacke
p5169
F16
sVnice
p5170
F1
sVexpresly
p5171
F1
sVpastrie.
p5172
F1
sVmeaning
p5173
F2
sVvice
p5174
F2
sVimpatient
p5175
F1
sVgr.
p5176
F2
sVonce
p5177
F5
sVsometimes,
p5178
F1
sVtut,
p5179
F2
sVstumblest
p5180
F1
sVcursie
p5181
F1
sVsimon
p5182
F1
sVmistearm'd,
p5183
F1
sVallied,
p5184
F1
sVnote,
p5185
F1
sVfolkes,
p5186
F1
sVpernitious
p5187
F1
sVwind,
p5188
F1
sVwind:
p5189
F1
sValie,
p5190
F1
sVhang'd
p5191
F1
sVdeale
p5192
F2
sVvsurer
p5193
F1
sVnoted
p5194
F1
sVcoz,
p5195
F1
sVtoile
p5196
F1
sVwarme.
p5197
F1
sVworshipt
p5198
F1
sV(too
p5199
F1
sViest
p5200
F2
sVyoungest
p5201
F1
sVbench.
p5202
F1
sVendart
p5203
F1
sVcoze
p5204
F1
sVshouldst
p5205
F1
sVcleopatra
p5206
F1
sVsmoake,
p5207
F1
sVspices
p5208
F1
sVconfessor
p5209
F1
sVforbid
p5210
F1
sVconfession
p5211
F1
sVapt
p5212
F3
sVape
p5213
F1
sVgadding?
p5214
F1
sVfrom
p5215
F82
sV&
F26
sVweeping
p5216
F3
sVbitterly
p5217
F1
sViust
p5218
F2
sVsort
p5219
F1
sVmusitions,
p5220
F3
sVtwelue,
p5221
F1
sVbakte
p5222
F1
sVfiend
p5223
F2
sVinfection
p5224
F2
sVsore
p5225
F1
sVhard?
p5226
F1
sVchast?
p5227
F1
sVbitterly.
p5228
F1
sVwomen
p5229
F4
sVsceane,
p5230
F1
sVpetrarch
p5231
F1
sVresolue,
p5232
F1
sVbefits
p5233
F1
sVcombin'd,
p5234
F1
sVpotpan,
p5235
F1
sVsomething
p5236
F2
sVcounterfeit
p5237
F1
sVsummers
p5238
F2
sVselues,
p5239
F1
sVsit
p5240
F3
sVmine,
p5241
F4
sVtickling
p5242
F1
sVheauy
p5243
F4
sVsin
p5244
F9
sVbridegroome,
p5245
F1
sVivliet
p5246
F1
sVattend
p5247
F2
sVmaskt
p5248
F1
sVmaske
p5249
F1
sVhalfe
p5250
F5
sVdespight,
p5251
F1
sVabus'd
p5252
F1
sVfatall
p5253
F3
sVmountaines
p5254
F1
sVlight
p5255
F20
sVeies
p5256
F1
sVbudge
p5257
F1
sVamorous?
p5258
F1
sVgall,
p5259
F1
sVgall.
p5260
F1
sVlooke
p5261
F23
sVmou'd.
p5262
F1
sVmou'd,
p5263
F1
sViustice,
p5264
F1
sVmeager
p5265
F1
sVlookt
p5266
F2
sVdearest
p5267
F2
sVease,
p5268
F2
sVworld:
p5269
F1
sVease;
p5270
F1
sVworld.
p5271
F3
sVworld,
p5272
F3
sVbeautie:
p5273
F1
sVbeautie,
p5274
F1
sVaffections
p5275
F3
sVfled
p5276
F1
sVsinners
p5277
F1
sVtrow,
p5278
F1
sVreceptacle,
p5279
F1
sVpowerfull
p5280
F1
sVfeast
p5281
F2
sVcheuerell,
p5282
F1
sVsouldiers
p5283
F2
sVby,
p5284
F5
sVwretch,
p5285
F1
sVpardon'd,
p5286
F1
sVour
p5287
F58
sVphoebus
p5288
F1
sVout
p5289
F42
sVperforme
p5290
F1
sVrespects
p5291
F1
sVloggerhead;
p5292
F1
sVchaos
p5293
F1
sVphrase,
p5294
F1
sVbenedecite.
p5295
F1
sVpredominant,
p5296
F1
sVfaile,
p5297
F2
sVwalls,
p5298
F1
sVvestall
p5299
F1
sVhence
p5300
F17
sVrespect,
p5301
F2
sVdoome,
p5302
F2
sVplainly
p5303
F1
sVprouant,
p5304
F1
sVdoome?
p5305
F2
sVprison,
p5306
F1
sVlazie-finger
p5307
F1
sVpatient,
p5308
F2
sVtheir
p5309
F41
sVfaint:
p5310
F1
sVhumour:
p5311
F1
sVsicknesse
p5312
F1
sVclimde
p5313
F1
sVlearned)
p5314
F1
sVmad?
p5315
F2
sVnoses
p5316
F1
sVinfectious
p5317
F1
sVweepe
p5318
F7
sVfaints
p5319
F1
sVweepe.
p5320
F1
sVweepe,
p5321
F1
sVvnreasonable
p5322
F1
sVbigge
p5323
F1
sVpitifull
p5324
F1
sVcomes.
p5325
F1
sVcomes,
p5326
F3
sVafraid
p5327
F1
sVlooke:
p5328
F1
sVfrancis,
p5329
F1
sVfie,
p5330
F4
sVwhich
p5331
F62
sVden,
p5332
F1
sVlooke,
p5333
F6
sVpupill
p5334
F1
sVwho
p5335
F33
sVcracking
p5336
F1
sVmantua
p5337
F3
sVweepes
p5338
F2
sVdeny
p5339
F1
sVlookes
p5340
F3
sVioy,
p5341
F4
sVthroane
p5342
F1
sViest.
p5343
F1
sVword,
p5344
F9
sVconquer'd:
p5345
F1
sVtidings
p5346
F1
sVone,
p5347
F7
sVone.
p5348
F1
sVbetake
p5349
F1
sVword?
p5350
F1
sVagrees
p5351
F1
sVword:
p5352
F2
sVtrue,
p5353
F6
sVtrue)
p5354
F1
sVmany,
p5355
F1
sVmistemper'd
p5356
F1
sVtrue:
p5357
F2
sV3.wat.
p5358
F1
sVagree,
p5359
F1
sVhence:
p5360
F1
sVchance?
p5361
F1
sVwatching
p5362
F2
sVheere
p5363
F8
sVones
p5364
F1
sVwords
p5365
F6
sVmarried
p5366
F12
sVreuels,
p5367
F1
sVashes,
p5368
F2
sVnightingale
p5369
F1
sVview
p5370
F1
sVcarelesly,
p5371
F1
sVground,
p5372
F4
sVgiues
p5373
F5
sVsound-post?
p5374
F1
sVhence,
p5375
F9
sVdid'st
p5376
F4
sVfear'st
p5377
F1
sVamen
p5378
F1
sVaway,
p5379
F5
sVdaughters:
p5380
F1
sVswift
p5381
F2
sVeyes,
p5382
F12
sVbrightnesse
p5383
F1
sVgiue:
p5384
F1
sVprouoke
p5385
F1
sVhymnes,
p5386
F1
sVthis?
p5387
F10
sVgiue.
p5388
F1
sVclose,
p5389
F2
sVheauen,
p5390
F6
sVtorments
p5391
F1
sVsworne
p5392
F2
sVheauen!
p5393
F1
sVcockatrice,
p5394
F1
sVremedie,
p5395
F1
sVmaskers,
p5396
F1
sVtutor
p5397
F1
sVmaskers.
p5398
F1
sVdouehouse
p5399
F1
sVrich.
p5400
F1
sVremedies
p5401
F1
sVmusitions
p5402
F2
sVpainted
p5403
F1
sVrepetition
p5404
F1
sVpresent
p5405
F3
sVwithdraw,
p5406
F1
sVthumbe,
p5407
F1
sVwilt
p5408
F29
sVstarueth
p5409
F1
sVwill
p5410
F129
sVwild
p5411
F1
sVringing
p5412
F1
sVapprehend
p5413
F3
sVthus
p5414
F9
sVrome.
p5415
F1
sVreeles,
p5416
F2
sVperhaps
p5417
F1
sVpantery,
p5418
F1
sVromeo
p5419
F74
sVbeast
p5420
F2
sVchambermaides:
p5421
F1
sVcollar
p5422
F1
sVfighting
p5423
F1
sVpilgrimage.
p5424
F1
sVpilcher
p5425
F1
sVdoore,
p5426
F2
sVroar'd
p5427
F1
sVaffright
p5428
F1
sVcries
p5429
F2
sVdoore?
p5430
F1
sVcloake
p5431
F1
sVheard'st
p5432
F1
sVcounsellor,
p5433
F1
sVprice,
p5434
F1
sVother
p5435
F17
sVsomtime
p5436
F1
sVshoo-maker
p5437
F1
sVcame,
p5438
F1
sVwho's
p5439
F1
sVknow
p5440
F32
sVknot
p5441
F1
sVdoores
p5442
F1
sVstarres
p5443
F2
sVpeircing
p5444
F1
sVneed.
p5445
F1
sVbecause
p5446
F10
sVthankes,
p5447
F1
sVayre,
p5448
F4
sVneglecting
p5449
F1
sVhimselfe
p5450
F7
sVsupple
p5451
F1
sVlead
p5452
F3
sVcheare,
p5453
F1
sVsake,
p5454
F1
sVdreames:
p5455
F1
sVherselfe
p5456
F2
sVobey
p5457
F1
sVdispleasure:
p5458
F1
sVvow:
p5459
F1
sVmurdered
p5460
F1
sVhopefull
p5461
F1
sVmine;
p5462
F1
sVchurch-yard
p5463
F1
sVaway:
p5464
F2
sVmine.
p5465
F1
sVcarries
p5466
F1
sVcheares
p5467
F1
sVfeine,
p5468
F1
sVtorch,
p5469
F1
sVowe
p5470
F1
sVtorch?
p5471
F1
sVpromise
p5472
F1
sVcur'st
p5473
F1
sVmad.
p5474
F1
sVmad,
p5475
F3
sVmarie,
p5476
F1
sVbrawles
p5477
F1
sVcaptaine
p5478
F1
sVmad:
p5479
F1
sVpittious
p5480
F1
sVpartisons,
p5481
F1
sVvolume
p5482
F2
sVdownright.
p5483
F1
sVwarrant,
p5484
F2
sVvnfurnisht
p5485
F1
sVmade
p5486
F20
sVbrawle,
p5487
F1
sVthis,
p5488
F6
sVthis.
p5489
F1
sVapp.
p5490
F4
sVthis:
p5491
F3
sVstirring
p5492
F1
sVpump,
p5493
F1
sVkind,
p5494
F1
sVcurtaines
p5495
F1
sVromeos
p5496
F4
sViuiced
p5497
F1
sVconspires
p5498
F1
sVwhat's
p5499
F6
sVfellowes,
p5500
F1
sVliuery.
p5501
F1
sVgiue
p5502
F45
sVbeasts,
p5503
F1
sVspeak'st,
p5504
F1
sVromeo:
p5505
F2
sVromeo?
p5506
F8
sVshall,
p5507
F1
sVrankt
p5508
F1
sVromeo,
p5509
F37
sVromeo.
p5510
F17
sVshall:
p5511
F1
s.