ccollections
defaultdict
p1
(c__builtin__
float
p2
tRp3
Vlimited
p4
F3
sVall
p5
F10
sVbetter.
p6
F1
sVdollar
p7
F1
sVrules,
p8
F1
sVfoul
p9
F1
sVmonth
p10
F2
sVhath
p11
F1
sVlegal
p12
F4
sV(if
p13
F2
sVgo
p14
F1
sVdisk
p15
F1
sVcontributions
p16
F1
sVtime,
p17
F2
sVnote:
p18
F1
sVwilliam
p19
F2
sVcalculate
p20
F1
sVexpenses,
p21
F1
sVsurplice
p22
F1
sVsend
p23
F2
sVlawyers.
p24
F1
sVto
p25
F58
sVprogram
p26
F2
sVthose
p27
F3
sVunder
p28
F3
sVbreach
p29
F1
sVfailed]
p30
F1
sVsound
p31
F1
sVdefunctive
p32
F1
sVever!
p33
F1
sVliability
p34
F2
sVevery
p35
F2
sV***
p36
F1
sVanonymous
p37
F1
sVcause:
p38
F1
sVprofits,
p39
F1
sVexact
p40
F1
sVcollections,
p41
F1
sVeagle,
p42
F1
sVdid
p43
F1
sVgender
p44
F1
sVfever's
p45
F1
sVlist
p46
F2
sVapplicable
p47
F1
sVtry
p48
F1
sV1999
p49
F1
sVsession
p50
F1
sVtak'st,
p51
F1
sVtogether;
p52
F1
sVteam
p53
F1
sVsmall
p54
F2
sVindemnity
p55
F1
sVtrillion]
p56
F1
sVdir
p57
F1
sVmget
p58
F1
sVsoftware,
p59
F2
sVwork
p60
F1
sVten
p61
F1
sVteam,
p62
F1
sVsigh
p63
F1
sVselected,
p64
F1
sVdiscover
p65
F1
sVpast
p66
F1
sVsecond
p67
F1
sVtitles
p68
F1
sVdisplays
p69
F1
sVdownload
p70
F1
sVtreble-dated
p71
F1
sV***start**the
p72
F1
sVestimated
p73
F1
sVbinary,
p74
F1
sVeven
p75
F4
sVsue
p76
F1
sVprairienet.org,
p77
F1
sVdomain"
p78
F1
sVobsequy
p79
F1
sVaccess
p80
F1
sVversion
p81
F1
sVabove
p82
F1
sVrest,
p83
F1
sVnew
p84
F1
sVnet
p85
F1
sVapply
p86
F2
sVpublic
p87
F5
sVremain.
p88
F1
sV[to
p89
F4
sVwhose
p90
F1
sVtitle,
p91
F1
sVhere
p92
F2
sV10%
p93
F1
sVhours
p94
F1
sVestimate,
p95
F1
sVlet
p96
F3
sVpossibility
p97
F1
sVdoth
p98
F2
sVbox
p99
F1
sVsending
p100
F2
sVless.
p101
F1
sVwritten,
p102
F1
sVhere?
p103
F1
sVdivision
p104
F2
sVetext)
p105
F1
sVreceive
p106
F4
sVinvolved
p107
F1
sVcompliance
p108
F1
sVreason
p109
F1
sVleaving
p110
F2
sVdisclaims
p111
F2
sVresulting
p112
F1
sVhere.
p113
F1
sVusually
p114
F1
sVincomplete,
p115
F1
sV432
p116
F1
sVhonor
p117
F1
sV'twas
p118
F1
sVchaste
p119
F1
sVlove
p120
F5
sVebcdic
p121
F2
sVmanage
p122
F1
sVprefer
p123
F1
sVarchive.org,
p124
F1
sVreplace
p125
F1
sVpopulation,
p126
F1
sVbooks]
p127
F1
sVtotal
p128
F2
sVreadily
p129
F1
sVascii,
p130
F1
sVuse
p131
F4
sVfee
p132
F2
sVfrom
p133
F10
sVtakes
p134
F1
sVwould
p135
F1
sVfiles.
p136
F1
sVgive
p137
F5
sVvisit
p138
F1
sVtwo
p139
F3
sVnext
p140
F1
sVfew
p141
F1
sVtm
p142
F1
sVmusic
p143
F1
sVright.
p144
F1
sVpassword:
p145
F1
sVmore
p146
F5
sVsort
p147
F1
sVmellon
p148
F1
sVclearly
p149
F1
sVthus
p150
F1
sV2000+
p151
F1
sVlimitation
p152
F1
sVit
p153
F20
sVprint!
p154
F1
sV"small
p155
F6
sVfiles]
p156
F2
sVparticular
p157
F2
sV90
p158
F1
sVhold
p159
F1
sVmust
p160
F2
sVnone
p161
F1
sVword
p162
F2
sVhour
p163
F2
sVthis
p164
F38
sVdisplayed,
p165
F1
sVus,
p166
F2
sVliability,
p167
F2
sVidentify,
p168
F1
sVitself
p169
F1
sVcan
p170
F6
sVprovide,
p171
F1
sVfollowing
p172
F2
sVuniversity).
p173
F1
sVexample
p174
F1
sVlicenses,
p175
F1
sVproprietary
p176
F2
sVetexts*ver.04.29.93*end*
p177
F1
sVgrace
p178
F1
sVmirrors
p179
F1
sVdecember
p180
F1
sVmak'st
p181
F1
sVtax
p182
F2
sVnone:
p183
F1
sVaccept
p184
F1
sVdays
p185
F3
sVstates
p186
F3
sVhis
p187
F3
sVsomething
p188
F2
sVwant
p189
F2
sVarise
p190
F1
sVconcordant
p191
F1
sVyear's
p192
F1
sVtrumpet
p193
F1
sV/
F1
sVinformation
p194
F3
sVunited
p195
F3
sVend
p196
F2
sVgoal
p197
F2
sV"defects".
p198
F1
sVpages)
p199
F1
sVrather
p200
F1
sVsimplicity,
p201
F1
sVmeans
p202
F1
sVphoenix'
p203
F2
sVdamage
p204
F1
sV1
F1
sVhow
p205
F3
sVdamages,
p206
F3
sVs.
p207
F2
sV'tis
p208
F1
sVallowable
p209
F1
sVbetween
p210
F1
sVintended
p211
F2
sVbeauty
p212
F2
sVmay
p213
F16
sVnear.
p214
F1
sVdamaged
p215
F1
sVgutenberg,
p216
F1
sVpurpose.
p217
F1
sVmac
p218
F1
sVproduce
p219
F2
sVbrag,
p220
F1
sVdate
p221
F4
sVsuch
p222
F4
sVefforts
p223
F1
sVcommence:
p224
F1
sVa
F35
sV(as
p225
F1
sVdefective
p226
F1
sVcall'd.
p227
F1
sVprint!"
p228
F6
sVfault.
p229
F1
sVinfringement,
p230
F1
sVprovide
p231
F1
sVso
p232
F10
sVallow
p233
F1
sVexclusions
p234
F1
sVrefund
p235
F3
sVpre-currer
p236
F1
sVdon't
p237
F3
sVof.
p238
F1
sVover
p239
F1
sVmidnight
p240
F1
sVconfounded,
p241
F1
sVbelow,
p242
F2
sVpaper
p243
F1
sVthrough
p244
F2
sVtyrant
p245
F1
sVyou!)
p246
F1
sVstill
p247
F1
sVits
p248
F3
sV(_)
p249
F1
sVdead;
p250
F1
sVdamages.
p251
F1
sVderive
p252
F2
sVexclusion
p253
F1
sVtill
p254
F1
sVfix
p255
F1
sVbetter
p256
F2
sVarchive.org
p257
F1
sV*want*
p258
F1
sVchoose
p259
F2
sVlisting
p260
F2
sVconsequential
p261
F1
sVmail
p262
F2
sVcinders
p263
F1
sVmight
p264
F1
sValter
p265
F1
sVedited,
p266
F1
sV[tried
p267
F1
sVit.
p268
F1
sVthen
p269
F2
sVit,
p270
F3
sVgood
p271
F1
sVreaders,
p272
F1
sVreaders.
p273
F1
sVyear.
p274
F1
sVanalyzed,
p275
F1
sVthey
p276
F3
sVnot
p277
F12
sVnow
p278
F2
sVday
p279
F2
sVnor
p280
F2
sVreturn.
p281
F1
sVstated
p282
F1
sVname
p283
F1
sVuniversity
p284
F1
sVform,
p285
F1
sVherald
p286
F1
sVsomeone
p287
F1
sVtruth
p288
F2
sVeach
p289
F3
sVlay,
p290
F1
sVasunder;
p291
F1
sVturtle
p292
F5
sVdomain
p293
F5
sVtranscribe
p294
F1
sVor:
p295
F1
sV(the
p296
F1
sVmichael
p297
F3
sVrevised
p298
F1
sVtherefore,
p299
F1
sVbooks
p300
F2
sVpunitive
p301
F1
sVyear
p302
F1
sVour
p303
F12
sVhart
p304
F2
sVspecial
p305
F1
sVftp
p306
F4
sVthem
p307
F2
sVfunding
p308
F1
sVspace
p309
F1
sVgutenberg-tm"
p310
F1
sVsince
p311
F1
sVprojected
p312
F1
sVlooking
p313
F1
sVmethod
p314
F1
sVpriest
p315
F1
sV7
F1
sVreader
p316
F1
sVgot
p317
F2
sVreceiving
p318
F2
sVforth
p319
F1
sVgutindex.all
p320
F1
sV*either*:
p321
F1
sVmillion
p322
F4
sVfree
p323
F2
sVchastity.
p324
F1
sV"right
p325
F1
sVwhereupon
p326
F1
sVmembers
p327
F1
sVgutenberg"
p328
F1
sVexpends
p329
F1
sVbyte
p330
F1
sVcompressed,
p331
F1
sVadvance
p332
F1
sVgo.
p333
F1
sVthings,
p334
F4
sVcould
p335
F1
sVwrong
p336
F2
sVkeep
p337
F2
sVproofread,
p338
F1
sVbird
p339
F1
sVsuggestion,
p340
F1
sVincluding
p341
F5
sV[3]
p342
F2
sVetexts**start***
p343
F1
sVdisclaimer
p344
F1
sVthink
p345
F1
sVfirst
p346
F2
sVmajor
p347
F1
sValready
p348
F1
sVforwards
p349
F1
sVscanning
p350
F1
sVauthor,
p351
F1
sVnumber
p352
F2
sVone
p353
F10
sVyour@login
p354
F1
sVdefects
p355
F1
sVdirectly
p356
F2
sVprocessors);
p357
F1
sVassortment
p358
F1
sVtragic
p359
F1
sVsize
p360
F1
sVbe:
p361
F1
sVgiven
p362
F1
sVbe.
p363
F1
sVbe,
p364
F1
sVtheir
p365
F2
sVtwenty
p366
F1
sVtrillion
p367
F1
sVslain.
p368
F1
sVleast
p369
F1
sVgrow
p370
F1
sVscene.
p371
F1
sVindicate
p372
F2
sVrates
p373
F1
sVlisted
p374
F1
sVstatement
p375
F2
sVtyping
p376
F1
sVlegally
p377
F1
sVhundred
p378
F2
sVfinal
p379
F1
sVlove;
p380
F1
sVdeath-defying
p381
F1
sVon.
p382
F1
sVmostly
p383
F1
sVthat
p384
F16
sVdefect.
p385
F1
sVfrom.
p386
F2
sVuniversity"
p387
F1
sVlists
p388
F1
sVpart
p389
F1
sV(three
p390
F1
sVincluded.
p391
F1
sVcopy
p392
F5
sV$2
p393
F1
sVthan
p394
F3
sVto:
p395
F1
sVinfirmity,
p396
F1
sVto?
p397
F1
sVmachines,
p398
F1
sVdouble
p399
F1
sVyet
p400
F2
sV[*]
p401
F3
sVproject
p402
F23
sVshakespeare
p403
F3
sVcost
p404
F1
sVto.
p405
F1
sVassociation/carnegie-mellon
p406
F1
sVwere
p407
F3
sVproofread
p408
F1
sVbrowser
p409
F2
sVand
p410
F45
sVsame;
p411
F1
sV"as-is".
p412
F1
sVpage)
p413
F1
sVfowl
p414
F1
sVwell
p415
F1
sVdirectors,
p416
F1
sV2001,
p417
F1
sVdefect
p418
F1
sV2001.
p419
F1
sV(and
p420
F2
sVmedium
p421
F4
sVburied
p422
F1
sVhave
p423
F5
sVqueen;
p424
F1
sVneed
p425
F1
sVseen
p426
F1
sV.set
p427
F1
sVthemselves
p428
F1
sVsaw
p429
F2
sVetext
p430
F22
sVcontents
p431
F1
sVdata,
p432
F1
sVlaw.
p433
F1
sVon,
p434
F1
sVdo,
p435
F1
sVcheck
p436
F1
sVtranscription
p437
F1
sVself
p438
F1
sVmourners
p439
F1
sVwish,
p440
F1
sVnote
p441
F1
sValso
p442
F3
sVwithout
p443
F2
sVtake
p444
F1
sVwhich
p445
F2
sVrefund"
p446
F1
sVeither-neither,
p447
F1
sV=
F2
sVunderstand,
p448
F1
sV200
p449
F1
sVsure
p450
F1
sVunless
p451
F2
sVwho
p452
F1
sVreach
p453
F3
sVwhat
p454
F2
sVpaid
p455
F3
sVfees,
p456
F2
sVmost
p457
F3
sV20%
p458
F1
sVinstance,
p459
F1
sVpreliminary
p460
F1
sV(~),
p461
F1
sVhart's
p462
F1
sVhttp://promo.net/pg.
p463
F1
sVwhy
p464
F1
sVshalt
p465
F1
sVsalary
p466
F2
sVconstancy
p467
F1
sVshe;
p468
F1
sVscrambles
p469
F1
sVprofessor
p470
F1
sVlater
p471
F1
sVrequest
p472
F2
sVnote,
p473
F1
sVinterdict
p474
F1
sVnot!
p475
F1
sVanthem
p476
F1
sVnot,
p477
F1
sVshrieking
p478
F1
sVemail.
p479
F1
sVone!
p480
F1
sVtext
p481
F2
sVuniversity".
p482
F1
sVremote,
p483
F1
sVfifty
p484
F1
sVtree,
p485
F1
sVindirect,
p486
F1
sVcontract,
p487
F1
sVone;
p488
F1
sVnominally
p489
F1
sVtrying
p490
F1
sVurn
p491
F1
sVcried
p492
F1
sVcopyright
p493
F7
sVhart@pobox.com,
p494
F1
sV(*)
p495
F1
sVdistributed
p496
F1
sVshould
p497
F3
sV(such
p498
F1
sVonly
p499
F5
sVarabian
p500
F1
sVseemeth
p501
F1
sVvolunteers.
p502
F1
sVessence
p503
F1
sVvarious
p504
F1
sVocr
p505
F1
sVhypertext
p506
F2
sVdo
p507
F7
sVdistribute
p508
F5
sVbeauty,
p509
F1
sVget
p510
F9
sVdependent
p511
F1
sVreadable,
p512
F1
sVexpress
p513
F1
sVcannot
p514
F2
sVbreast
p515
F1
sVdespite
p516
F1
sV*before!*
p517
F1
sVresend
p518
F1
sV(one
p519
F1
sVgutenberg-tm
p520
F4
sVother's
p521
F1
sVmarried
p522
F1
sVetexts
p523
F7
sV100,000,000
p524
F1
sVelectronically,
p525
F2
sVgutenberg.
p526
F1
sVgutenberg-
p527
F1
sVcontain
p528
F2
sVrelease
p529
F4
sVx
F1
sVview
p530
F1
sVlogin:
p531
F1
sVset
p532
F1
sVnotice
p533
F2
sVedition
p534
F1
sVsee
p535
F3
sVcomputer
p536
F3
sVare
p537
F10
sV31,
p538
F1
sVcorrupt
p539
F1
sVsporadic
p540
F1
sVvirus,
p541
F1
sVend,
p542
F1
sVnewsletters,
p543
F1
sVlack
p544
F1
sVmatters,
p545
F1
sVrequest.
p546
F1
sVaway
p547
F2
sVcurrently
p548
F1
sVplease
p549
F4
sVsites
p550
F1
sVfeather'd
p551
F1
sVgutindex.??
p552
F1
sVyears,
p553
F1
sVsable
p554
F1
sV[2]
p555
F3
sVlinks;
p556
F1
sVneither
p557
F2
sVreading
p558
F1
sVdistance,
p559
F1
sVemail
p560
F2
sVavailable
p561
F1
sVwe
p562
F13
sVmedium,
p563
F2
sVmodify
p564
F1
sVsole
p565
F1
sVlov'd,
p566
F1
sVcessing
p567
F1
sVgratefully
p568
F1
sValteration,
p569
F1
sVextent
p570
F1
sVprayer.
p571
F1
sVcome
p572
F1
sVreceived
p573
F4
sV[xxxxx10x.xxx]
p574
F1
sVlast
p575
F2
sVchampaign,
p576
F1
sVthou
p577
F3
sVannual
p578
F1
sVthrenos.
p579
F1
sV3,333
p580
F1
sVcarnegie-
p581
F1
sVimplied,
p582
F1
sVnest;
p583
F1
sVhowever,
p584
F1
sVexpense
p585
F1
sVotherwise
p586
F1
sVcomment
p587
F1
sVamong
p588
F4
sVerrors,
p589
F1
sV(cmu
p590
F1
sVpoint
p591
F1
sVsimple
p592
F1
sVhad
p593
F1
sV~5%
p594
F1
sVmoney,
p595
F1
sVcd
p596
F2
sV60
p597
F1
sVsubscribe
p598
F1
sVagents
p599
F1
sVhttp://promo.net/pg).
p600
F1
sVhence.
p601
F1
sVsave
p602
F1
sVdescribed
p603
F1
sVharmless
p604
F1
sVaddition
p605
F1
sVcreate
p606
F1
sVtrademark
p607
F1
sVcopies
p608
F3
sV.
F5
sVbreath
p609
F1
sVediting.
p610
F1
sVtruth,
p611
F1
sVpg
p612
F2
sVlicense
p613
F1
sVfiend,
p614
F1
sVremedies
p615
F1
sVposterity:--
p616
F1
sV'twixt
p617
F1
sVthousand
p618
F1
sVetext,
p619
F6
sVking:
p620
F1
sVfair;
p621
F1
sVreason,
p622
F2
sVsad
p623
F1
sVpresent
p624
F1
sVenclos'd
p625
F1
sVpaying
p626
F1
sV61825
p627
F1
sVlook
p628
F1
sVco-supreme
p629
F1
sVthese
p630
F6
sVplain
p631
F2
sVdisclaimers
p632
F2
sVsingle
p633
F1
sVvalue
p634
F1
sVwill
p635
F5
sVowns
p636
F1
sVdeductible
p637
F1
sVp.
p638
F1
sV'mongst
p639
F1
sVbin
p640
F1
sV30
p641
F1
sVis
p642
F21
sVperson.
p643
F1
sVsite
p644
F1
sVharbinger,
p645
F1
sV**information
p646
F1
sVil
p647
F1
sVin
p648
F23
sVreturn
p649
F2
sVproperty
p650
F2
sVascii
p651
F1
sVfails.
p652
F1
sVif
p653
F21
sVhart@pobox.com
p654
F1
sVconsiderable
p655
F1
sVauthor
p656
F2
sVpay
p657
F1
sVpunctuation
p658
F1
sVcost,
p659
F1
sVany
p660
F14
sVsunsite.unc.edu
p661
F1
sVparts
p662
F1
sVdamages
p663
F1
sVparty
p664
F1
sVthrene
p665
F1
sVweek
p666
F1
sV"public
p667
F1
sVused
p668
F2
sVdove,
p669
F1
sVcan,
p670
F1
sVconversion
p671
F1
sVexpense,
p672
F2
sVcharacters
p673
F3
sV******
p674
F1
sVopportunity
p675
F1
sVcontribution
p676
F1
sVthy
p677
F1
sVi
F1
sVbounces
p678
F2
sVperson
p679
F4
sVhart@prairienet.org
p680
F1
sVdoes
p681
F1
sVflame
p682
F1
sVhearts
p683
F1
sVthe
p684
F87
sVconsequential,
p685
F1
sVlest
p686
F1
sVproject,
p687
F1
sVwing,
p688
F1
sVflaming
p689
F1
sVnegligence
p690
F1
sVjust
p691
F1
sVtrue
p692
F2
sVmoney
p693
F4
sVofficers,
p694
F1
sVexecutive
p695
F1
sVelectronically.
p696
F1
sVefforts,
p697
F1
sVtilde
p698
F1
sVunderline
p699
F1
sVcase,
p700
F1
sVweb
p701
F2
sVwonder.
p702
F1
sVdeath
p703
F1
sVwork,
p704
F2
sVwork.
p705
F1
sVtaxes.
p706
F1
sVexplanatory
p707
F1
sVfled
p708
F1
sVbook
p709
F1
sVdisk,
p710
F1
sVassociation
p711
F2
sVhas
p712
F3
sVmodification,
p713
F1
sVreal
p714
F1
sVsight:
p715
F1
sVprovisions
p716
F1
sValternatively
p717
F2
sVread
p718
F2
sVknow:
p719
F1
sVrights.
p720
F1
sVgutenberg/cmu":
p721
F1
sVrarity.
p722
F1
sVroyalty
p723
F2
sVsession:
p724
F1
sVusing
p725
F2
sVwings
p726
F1
sVroyalties
p727
F1
sVdates,
p728
F1
sV[10,000
p729
F1
sVlike
p730
F1
sVsizes
p731
F1
sVstates,
p732
F1
sV*end*the
p733
F1
sVincidental
p734
F1
sVchorus
p735
F1
sVaudience
p736
F1
sVseem,
p737
F1
sVdonations
p738
F2
sVeither
p739
F3
sVequipment.
p740
F1
sVany)
p741
F2
sVaugur
p742
F1
sVworks
p743
F2
sV[1]
p744
F3
sVreplacement
p745
F3
sVgifts;
p746
F1
sVright
p747
F1
sVoften
p748
F1
sVtells
p749
F1
sVsome
p750
F2
sVmark-up,
p751
F1
sVdead
p752
F1
sVcalculated
p753
F1
sVconvey
p754
F1
sVmirror
p755
F1
sVmultiple
p756
F1
sVfunding;
p757
F1
sVo.
p758
F1
sVtrademark.
p759
F1
sVfor
p760
F21
sV2782
p761
F1
sVobey.
p762
F1
sVper
p763
F3
sVconservative
p764
F1
sVmachine
p765
F1
sVmonth,
p766
F1
sV"project
p767
F5
sVmonth.
p768
F2
sV(or
p769
F3
sVwarranties
p770
F3
sVbe
p771
F12
sVinaccurate
p772
F1
sVrequiem
p773
F1
sVequivalent
p774
F3
sVfitness
p775
F1
sVproduction,
p776
F1
sVcrow,
p777
F1
sVloudest
p778
F1
sVcarnegie-mellon
p779
F3
sVworks.
p780
F1
sValthough
p781
F1
sVetext90
p782
F1
sVetexts,
p783
F4
sVprepared
p784
F2
sVby
p785
F22
sVform).
p786
F1
sVon
p787
F8
sVabout
p788
F6
sVcentral
p789
F1
sV.try
p790
F1
sV<hart@pobox.com>
p791
F1
sV"project").
p792
F1
sVappall'd,
p793
F1
sVof
p794
F59
sVdollars
p795
F2
sVaccepts
p796
F1
sVgutenberg
p797
F13
sVcosts
p798
F1
sVmine.
p799
F1
sVpro-
p800
F1
sVgutindex.99]
p801
F1
sVpermission
p802
F1
sVproject's
p803
F2
sVor
p804
F42
sVwarranty
p805
F1
sVrepair
p806
F1
sVletters
p807
F1
sVuniversity,
p808
F1
sVreadable
p809
F1
sVinto
p810
F1
sVwithin
p811
F4
sVintellectual
p812
F1
sVetext99
p813
F1
sVswan,
p814
F1
sVremove,
p815
F1
sVreferences
p816
F1
sVe.g.,
p817
F1
sVyour
p818
F8
sVyou.
p819
F1
sVgiv'st
p820
F1
sVdue.
p821
F1
sVtwain
p822
F2
sVprint!**for
p823
F1
sVadditional
p824
F2
sVprepare
p825
F1
sVmidnight,
p826
F1
sVwarranty;
p827
F1
sVthere
p828
F2
sVshakespeare's
p829
F1
sVlong
p830
F1
sVstrict
p831
F1
sVstars
p832
F1
sVeditions
p833
F1
sVdistincts,
p834
F1
sVwas
p835
F8
sVfiles
p836
F2
sVbooks,
p837
F1
sVzip
p838
F1
sVcomplete
p839
F2
sVform
p840
F4
sVlie.
p841
F1
sVso,
p842
F1
sVbut
p843
F10
sVso.
p844
F1
sVpayable
p845
F1
sVwhite,
p846
F1
sVstatement.
p847
F3
sVyou,
p848
F1
sVediting
p849
F1
sVwith
p850
F7
sVbug
p851
F1
sVposted
p852
F1
sVmade
p853
F3
sVedition.
p854
F1
sVusers.
p855
F1
sVwish
p856
F2
sVusers,
p857
F1
sVofficial
p858
F2
sVup
p859
F1
sVus
p860
F2
sVtell
p861
F1
sVconverted
p862
F1
sV*not*
p863
F1
sVdistribution
p864
F2
sVetc.
p865
F1
sVagree
p866
F2
sVdelete
p867
F1
sVprepare)
p868
F1
sVentered,
p869
F1
sVnature's
p870
F1
sVone-third
p871
F1
sVan
p872
F3
sVperiodic)
p873
F1
sVas
p874
F8
sVat
p875
F10
sVfile
p876
F2
sVkind,
p877
F1
sVcontinents;
p878
F1
sVphysical
p879
F2
sVmutual
p880
F1
sVcodes
p881
F1
sVpub/docs/books/gutenberg
p882
F1
sVno
p883
F8
sVwhen
p884
F2
sVadvisor**
p885
F1
sVthou,
p886
F2
sVother
p887
F17
sVdisk),
p888
F1
sVyou
p889
F50
sVdirector:
p890
F1
sVwhat's
p891
F1
sVeternity
p892
F1
sVcompounded.
p893
F1
sVindemnify
p894
F1
sVshine,
p895
F1
sVphoenix
p896
F4
sVprovided
p897
F1
sVstrict.
p898
F1
sVtime
p899
F3
sVasterisk
p900
F1
sVthirty-six
p901
F1
sVincludes
p902
F1
sVsites.
p903
F1
sVcomputerized
p904
F1
sVsites,
p905
F1
sVmerchantability
p906
F1
sVbirds
p907
F1
sVturtle's
p908
F1
sVtroop
p909
F1
sVbillion
p910
F1
sVclick,
p911
F1
sVannouncement.
p912
F1
sVrequires
p913
F1
sVrequired
p914
F1
sV(mirror
p915
F1
sVoriginal
p916
F1
sVloyal
p917
F1
sVimplied
p918
F1
sVcopy.
p919
F1
sVsearched
p920
F1
sVroyalties.
p921
F1
sVindirectly
p922
F1
sVprofits
p923
F1
s.