ccollections
defaultdict
p1
(c__builtin__
float
p2
tRp3
Vyellow
p4
F1
sVfour
p5
F7
sVfriend's
p6
F1
sVhanging
p7
F2
sVlord
p8
F83
sVinnocence,
p9
F1
sVadvice.
p10
F1
sVfoul
p11
F4
sVstabbed
p12
F1
sVprize
p13
F1
sVwednesday
p14
F2
sVstars.
p15
F1
sVafter-times.
p16
F1
sVadmitted;
p17
F1
sVher.
p18
F6
sVher,
p19
F5
sVher;
p20
F1
sVher:
p21
F3
sVsecond
p22
F11
sVher?
p23
F1
sVadmitted.
p24
F1
sVvaliant
p25
F3
sVscraped
p26
F1
sVnature,
p27
F1
sVrebel's
p28
F1
sVreport.
p29
F1
sVincreasing
p30
F1
sVnature:
p31
F1
sVnature;
p32
F1
sVgrace.
p33
F2
sVgrace,
p34
F8
sVhere
p35
F54
sVpickbone,
p36
F1
sVglass,
p37
F1
sVtravers.]
p38
F1
sVsubstance
p39
F2
sVreports
p40
F1
sVexclamation?
p41
F1
sVnatures
p42
F1
sVmilitary
p43
F2
sV[exit
p44
F15
sVgolden
p45
F4
sVdivide
p46
F1
sVbardolph.
p47
F56
sVbardolph!
p48
F4
sVbrought
p49
F7
sVbardolph;
p50
F3
sVbardolph:
p51
F4
sVbardolph?
p52
F4
sVstern
p53
F1
sVup!
p54
F1
sVnightwork
p55
F3
sVsporting-place.
p56
F1
sVcourt-gate,
p57
F1
sVspoke
p58
F6
sVbusiness,
p59
F1
sVfifth?
p60
F1
sVfame!
p61
F1
sVmusic
p62
F3
sVtherefore
p63
F12
sVstrike
p64
F2
sVfifth,
p65
F1
sVuntil
p66
F1
sVbarren,
p67
F2
sVdry,
p68
F1
sVfemales
p69
F1
sVholy
p70
F5
sVsuccessful
p71
F1
sVbrings
p72
F1
sVgallows'
p73
F1
sVhurt
p74
F3
sVglass
p75
F1
sVinwards
p76
F1
sVhold
p77
F12
sVslenderer.
p78
F1
sVsupply,
p79
F1
sVsway
p80
F1
sVtell-tale
p81
F1
sVlaughter,
p82
F1
sVapoplexy
p83
F2
sVhousehold
p84
F1
sVpeep'd
p85
F1
sVwant
p86
F2
sVby'r
p87
F1
sVabsolute
p88
F1
sVyouth:
p89
F1
sVhoc
p90
F1
sVconsiderance,
p91
F1
sVkeep,
p92
F1
sVhow
p93
F61
sVhot
p94
F5
sVquoif!
p95
F1
sVyouth,
p96
F7
sVyouth!
p97
F1
sVsomebody.
p98
F1
sVhalloing
p99
F1
sVwrong
p100
F2
sVbeefs.
p101
F1
sVcharm'd
p102
F1
sVhold'st
p103
F1
sVho!
p104
F2
sVrevolt
p105
F1
sVretired,
p106
F1
sVkeeps
p107
F2
sVho?
p108
F1
sVliquors!
p109
F1
sVwind
p110
F6
sVwine
p111
F1
sVbetters
p112
F1
sVchapt,
p113
F1
sVasia,
p114
F1
sVaffect
p115
F1
sVwrought
p116
F2
sVdied.
p117
F2
sVfit
p118
F1
sVmayst
p119
F1
sVworms.
p120
F1
sVfig
p121
F1
sVskogan's
p122
F1
sVwales
p123
F1
sVwelcome,
p124
F4
sVwelcome.
p125
F2
sVfrosts
p126
F1
sVeffects
p127
F1
sVwelcome:
p128
F1
sVsilver
p129
F1
sVrumour
p130
F4
sVnoble:
p131
F1
sV"happy
p132
F1
sVwindmill
p133
F1
sVended,
p134
F1
sVmallet.
p135
F1
sVfortnight
p136
F1
sVborne
p137
F4
sVspeed,
p138
F2
sVspeed.
p139
F1
sVcoronation-day,
p140
F1
sVkickshaws,
p141
F1
sVkeys
p142
F1
sVth'art
p143
F1
sVspeed:
p144
F1
sVsmithfield
p145
F1
sVborn;
p146
F1
sV"hem
p147
F1
sVclarence
p148
F1
sVassured
p149
F3
sVirrecoverable;
p150
F1
sVjustice-like
p151
F1
sVturk's
p152
F1
sVfaculties
p153
F1
sVsnake,
p154
F1
sVknit
p155
F1
sVheavy!
p156
F1
sVprince.]
p157
F1
sVspeedy
p158
F1
sVwast
p159
F2
sVwash
p160
F1
sVinstruct
p161
F1
sVfustian
p162
F1
sVforce
p163
F4
sVparcel-gilt
p164
F1
sVservice
p165
F4
sVmarry,
p166
F17
sVsure:
p167
F2
sVeasy?
p168
F1
sVnation,
p169
F1
sVmaster
p170
F66
sVlegs
p171
F3
sVbitter
p172
F3
sVsure.
p173
F1
sVlisten
p174
F1
sVchannel!
p175
F1
sVwas:
p176
F1
sVelm,
p177
F1
sVcushions
p178
F1
sVhonour'd,
p179
F1
sVchannel.
p180
F2
sVwisdom
p181
F2
sVunguided
p182
F1
sVyet:
p183
F2
sVcoursers
p184
F1
sVeasy-yielding
p185
F1
sVperturbation!
p186
F1
sVperil
p187
F3
sVleg,
p188
F1
sVold;
p189
F3
sVcrave
p190
F1
sVidly
p191
F1
sVlechery:
p192
F1
sVidle
p193
F1
sVendure
p194
F3
sVleg?
p195
F1
sVold,
p196
F7
sVold.
p197
F1
sVwell?
p198
F2
sVwell;
p199
F3
sVwell:
p200
F8
sVheads,
p201
F1
sVheads.
p202
F1
sVwell,
p203
F35
sV[laying
p204
F1
sVwell.
p205
F7
sVheads:
p206
F1
sVaffairs
p207
F3
sVchin.
p208
F1
sVencounter'd
p209
F1
sVdrunk:
p210
F1
sVbrawn,
p211
F1
sVaggravate
p212
F1
sVmorrow.
p213
F1
sVshall
p214
F114
sVdoit
p215
F1
sVmouth
p216
F1
sVaddict
p217
F1
sVletter
p218
F3
sVlong,
p219
F1
sVshalt
p220
F4
sVdoor!
p221
F1
sVrowel-head,
p222
F1
sVdoor,
p223
F1
sVwo't,
p224
F2
sVdoor?
p225
F1
sVcame
p226
F13
sVdoor:
p227
F1
sVsaying
p228
F1
sVserving-man
p229
F1
sVdeparting
p230
F1
sVliest
p231
F2
sVturnbull
p232
F1
sVfather's?
p233
F1
sVcaper
p234
F1
sVbusy
p235
F2
sVgreen;
p236
F1
sVtheme
p237
F1
sVgreen!
p238
F1
sVrich
p239
F2
sVmend
p240
F2
sVgreen,
p241
F1
sVpardons.
p242
F1
sVplate
p243
F1
sVmeeting;
p244
F1
sVmanhoods--to
p245
F1
sVforemost
p246
F1
sVlies,
p247
F3
sVgold:
p248
F1
sVrelish
p249
F1
sVshrewsbury:
p250
F1
sVmen?
p251
F1
sVmen;
p252
F2
sVthem;
p253
F2
sVthem:
p254
F2
sVpatch
p255
F1
sVmen,
p256
F6
sVmen.
p257
F3
sVcousin.
p258
F4
sVthem!
p259
F1
sVthem.
p260
F6
sVthem,
p261
F8
sVmen!
p262
F1
sVblew
p263
F1
sVfair
p264
F9
sVshort-winded.
p265
F1
sVmatter;
p266
F1
sVfail
p267
F1
sVfain
p268
F3
sVbest
p269
F3
sVestate,
p270
F1
sVscore
p271
F3
sVscorn
p272
F3
sVpreserve
p273
F2
sVnever
p274
F25
sVnature
p275
F5
sVtravers.
p276
F2
sVtravers,
p277
F2
sVinheritor.
p278
F1
sVdebt
p279
F1
sVpity
p280
F1
sVcountry
p281
F2
sVfifth
p282
F2
sVunarm'd,
p283
F1
sVnay,
p284
F8
sVvail
p285
F1
sVvain
p286
F2
sVmoney,
p287
F2
sVbeachy
p288
F1
sVpregnancy
p289
F1
sVmoney;
p290
F1
sVthomas,
p291
F2
sVwomen?
p292
F1
sVthomas;
p293
F1
sVmuch
p294
F22
sVthomas?
p295
F1
sV"obsque
p296
F1
sVgladly
p297
F1
sVvictuallers
p298
F1
sVsnare;
p299
F1
sVfollow'd
p300
F2
sVwags
p301
F1
sVspit
p302
F1
sVdavy
p303
F1
sVworcester
p304
F1
sVlift
p305
F1
sVchild
p306
F2
sVtoil'd
p307
F1
sVrightly,
p308
F1
sVemploy
p309
F1
sVwonted
p310
F1
sVprostrate
p311
F1
sVsaid:
p312
F1
sVsaid;
p313
F2
sVsouth;
p314
F1
sVconsent,
p315
F1
sVtop,
p316
F1
sVcheck'd
p317
F1
sVsaid,
p318
F9
sVtitle-leaf,
p319
F1
sVthings
p320
F8
sVpieces.
p321
F1
sVrebellion
p322
F7
sVdeaf.
p323
F2
sVsupped
p324
F1
sVsupper
p325
F1
sVthing:
p326
F1
sValas!
p327
F1
sVtyranny,
p328
F1
sVfeeble?
p329
F1
sValas,
p330
F4
sVwhich,
p331
F7
sVthing.
p332
F2
sVthing,
p333
F3
sVfeeble!
p334
F2
sVfeeble.
p335
F9
sVfeeble,
p336
F4
sVcorporate
p337
F1
sVopinions
p338
F1
sVboar-pig,
p339
F1
sVworm-eaten
p340
F1
sVbrandish
p341
F1
sVpistol.]
p342
F1
sVbardolph,
p343
F18
sVhad
p344
F53
sVtrimm'd
p345
F1
sVewes
p346
F2
sVsterile
p347
F1
sVeasy
p348
F2
sVprison
p349
F1
sVsuspire,
p350
F1
sVmarring.
p351
F1
sVsovereign,
p352
F1
sVpossible
p353
F1
sVcontinuantly
p354
F1
sVsleep,
p355
F5
sVshadow
p356
F3
sVsleep.
p357
F1
sVopinion,
p358
F2
sVdesire
p359
F7
sVha,
p360
F7
sVha!
p361
F5
sVha'
p362
F2
sVmisled
p363
F2
sVworse,
p364
F2
sVsuborn'd
p365
F1
sVright
p366
F5
sVold
p367
F31
sVcrowd
p368
F1
sVpeople
p369
F1
sVyork?
p370
F1
sVshake;
p371
F1
sVcrown
p372
F4
sVyork.
p373
F3
sVmultiple
p374
F1
sVyork,
p375
F4
sVsubstitute,
p376
F1
sVenemies
p377
F1
sVfor
p378
F197
sVbottom
p379
F2
sVwitty
p380
F1
sVexposition
p381
F1
sVsubstitutes
p382
F1
sVsubstituted
p383
F1
sVyoke
p384
F2
sVpinches
p385
F1
sVlosing
p386
F1
sVo
F33
sVsovereignty.
p387
F1
sVdespair
p388
F1
sVnought
p389
F1
sVbullcalf
p390
F2
sVson
p391
F18
sVdrums,
p392
F1
sVsow
p393
F2
sVtomorrow."
p394
F1
sVtame
p395
F1
sVabsolutely
p396
F1
sVminute's
p397
F1
sVgreatness
p398
F5
sVjane
p399
F1
sVhappy
p400
F5
sVso!
p401
F1
sVinsurrection
p402
F2
sVoffer
p403
F4
sVkiss:
p404
F1
sVmarshal,
p405
F2
sVpresenter.
p406
F1
sVso,
p407
F19
sVso.
p408
F9
sVshoot:
p409
F1
sVperfumed
p410
F1
sVcanopies
p411
F1
sVso;
p412
F5
sVso:
p413
F6
sVso?
p414
F4
sVgroom.
p415
F3
sVduer
p416
F1
sVmodel;
p417
F1
sVjuvenal,
p418
F1
sVdisgrace
p419
F2
sVfool-born
p420
F1
sVmodel,
p421
F1
sVleer
p422
F1
sVcrowns
p423
F2
sVflood
p424
F2
sVwarms
p425
F1
sVachitophel!
p426
F1
sVmirth;
p427
F1
sVtamely
p428
F1
sVsmell
p429
F1
sVvaliant;
p430
F2
sV't
p431
F10
sV's
p432
F41
sVintent
p433
F1
sVvaliant.
p434
F1
sV'a
p435
F8
sVservants.
p436
F1
sVcrown?
p437
F2
sVhighness
p438
F5
sVcrown;
p439
F1
sVcrown:
p440
F1
sVcrown,
p441
F2
sVcrown.
p442
F1
sVtime
p443
F22
sVpush
p444
F1
sV'larum-bell?
p445
F1
sVdoted
p446
F1
sVchair
p447
F1
sVjust,
p448
F1
sVprovided.
p449
F1
sVtemperality:
p450
F1
sVcook:
p451
F1
sVnut-hook,
p452
F2
sVcook,
p453
F1
sVcook.
p454
F1
sVwhile,
p455
F2
sVminute
p456
F1
sVarm;
p457
F1
sVpoor,
p458
F2
sVtear
p459
F2
sVleave
p460
F12
sVpursue
p461
F1
sVscaly
p462
F1
sVprevent
p463
F1
sVsigh
p464
F1
sV&c.]
p465
F2
sVsign
p466
F1
sVshirts
p467
F1
sVmajesty:
p468
F1
sVdust;
p469
F1
sVmelt
p470
F2
sVcurrent
p471
F1
sVenrooted
p472
F1
sVsaw,
p473
F1
sVfalling
p474
F1
sVbadge
p475
F1
sV[to
p476
F8
sVhonour
p477
F6
sVquicksilver.
p478
F1
sVplucking
p479
F1
sVyards
p480
F1
sVaddress
p481
F1
sValong
p482
F3
sVconjectures,
p483
F1
sVstudied
p484
F1
sVseen;
p485
F1
sVstudies
p486
F1
sVlove
p487
F14
sVbloody
p488
F8
sVworking
p489
F1
sVfourth?
p490
F1
sVopposed
p491
F1
sVfourth.
p492
F2
sVloving
p493
F2
sVblood;
p494
F1
sVodious
p495
F1
sVignorant
p496
F1
sVvirtue
p497
F2
sVsoldier-like
p498
F1
sVdreaded.
p499
F1
sVblood.
p500
F2
sVblood,
p501
F11
sVadmired
p502
F1
sVfalseness;
p503
F1
sVwinter
p504
F2
sVgarland,
p505
F1
sVland-service,
p506
F1
sVvainly
p507
F1
sV'tis
p508
F25
sVofficer.]
p509
F1
sVundertook
p510
F1
sV"there's
p511
F1
sVecho,
p512
F1
sVhide,
p513
F1
sVsuch
p514
F41
sVdove
p515
F2
sVloath
p516
F2
sVfoolish-compounded
p517
F1
sVsi
p518
F1
sVso
p519
F123
sVrude;
p520
F1
sVunwilling,
p521
F1
sVlancaster;
p522
F1
sVbelow,
p523
F1
sVcourse
p524
F8
sVhorsed,
p525
F2
sVgoods.
p526
F1
sVlancaster,
p527
F5
sVlancaster.
p528
F30
sVlimbs
p529
F2
sVdead?
p530
F3
sVdid,
p531
F1
sVdid.
p532
F1
sVkeepest
p533
F1
sVsuspicion
p534
F1
sVdead.
p535
F6
sVdead,
p536
F6
sVdead!
p537
F5
sVtroubled
p538
F1
sVthine!
p539
F1
sVyear;
p540
F1
sVthine.
p541
F2
sVbashful
p542
F1
sVyear,
p543
F1
sVover-rode
p544
F1
sVpassions,
p545
F1
sVthine:
p546
F1
sVpoins,
p547
F4
sVpoins.
p548
F29
sVreport'st
p549
F1
sVpoins;
p550
F1
sVpoins?
p551
F1
sVveins
p552
F1
sVquarter
p553
F1
sVlimb,
p554
F1
sVlive?
p555
F1
sVcurb,
p556
F1
sVgiddy
p557
F3
sVtwo-fold
p558
F1
sVabide
p559
F3
sVdead."
p560
F1
sVprovokest
p561
F1
sVinwardly
p562
F1
sVdisguised
p563
F1
sVmodest
p564
F1
sVmisuses
p565
F1
sVneglect
p566
F1
sVpleaseth
p567
F2
sVmercy.
p568
F1
sVmercy,
p569
F1
sVspoken
p570
F2
sVone
p571
F34
sVhabitation
p572
F1
sVopen
p573
F4
sVwrath
p574
F2
sVbite
p575
F1
sVpaper-faced
p576
F1
sVbrevity
p577
F1
sVthyself,
p578
F1
sVstuffed
p579
F1
sVthyself.
p580
F1
sVlingering
p581
F1
sVvapours
p582
F1
sVmuch!
p583
F1
sVon.
p584
F4
sVon,
p585
F12
sVblows,
p586
F1
sVmuch,
p587
F2
sVmuch.
p588
F2
sVon:
p589
F1
sVon;
p590
F3
sVon?
p591
F1
sVvapour,
p592
F1
sVjudgement.
p593
F1
sVauthority.
p594
F2
sVopens
p595
F1
sVjudgement;
p596
F1
sVdamned
p597
F5
sVpage.
p598
F18
sVpage,
p599
F3
sVburier
p600
F1
sVturned
p601
F3
sVargument
p602
F1
sVsad
p603
F2
sVsay
p604
F33
sVsaw
p605
F6
sVsat
p606
F1
sVlaw,
p607
F1
sVaside
p608
F1
sVnote
p609
F3
sVgoodman
p610
F3
sVmaintain
p611
F2
sVtake
p612
F32
sVlaw;
p613
F2
sVconcern
p614
F1
sVsober-blooded
p615
F1
sVknew
p616
F10
sVtaste.
p617
F1
sVafternoon,
p618
F1
sVswinged,
p619
F1
sVfault;
p620
F1
sVnot?
p621
F1
sVdrive
p622
F2
sVnot;
p623
F3
sVnot:
p624
F3
sVsomething,
p625
F1
sVfever-weaken'd
p626
F1
sVnot.
p627
F7
sVlaws
p628
F3
sVmerit
p629
F1
sVarbour,
p630
F1
sVimagined
p631
F1
sVline
p632
F1
sVremember'd,
p633
F1
sVcloak
p634
F2
sVredress'd;
p635
F1
sVtears
p636
F4
sVgoing
p637
F3
sVredress'd,
p638
F1
sVguarded
p639
F1
sVbetween
p640
F8
sVborrow
p641
F2
sVrob,
p642
F1
sVwhere
p643
F27
sVgout
p644
F2
sVfortune's
p645
F1
sVsmooth,
p646
F1
sVheifers
p647
F1
sVsurgery
p648
F1
sVjob,
p649
F1
sVmutton
p650
F1
sVman:
p651
F2
sVman;
p652
F1
sVman?
p653
F2
sVman!
p654
F1
sVnaked,
p655
F1
sVman,
p656
F12
sVman.
p657
F8
sVrage.
p658
F1
sVforeruns
p659
F1
sVspare
p660
F3
sVforth;"
p661
F1
sVbetted
p662
F1
sVenjoy.
p663
F1
sVmany
p664
F20
sVwest,
p665
F2
sVatropos,
p666
F1
sVbelie
p667
F1
sVboar
p668
F1
sVvirtuous:
p669
F1
sVwest
p670
F1
sVbreath
p671
F2
sVpractised
p672
F1
sVwater-work,
p673
F1
sVvirtuous,
p674
F1
sVamity.
p675
F2
sVpage],
p676
F1
sVthousand
p677
F11
sVobserve
p678
F2
sVnobles
p679
F2
sVabject
p680
F1
sVformer
p681
F3
sVprofane
p682
F1
sVshallow's
p683
F3
sVsituation
p684
F1
sVforestall'd
p685
F2
sVside;
p686
F1
sVbrow
p687
F2
sVengaged
p688
F1
sVwales?
p689
F1
sVcheer,
p690
F1
sVover-careful
p691
F1
sVwales!
p692
F1
sVapparel,
p693
F1
sVwales.
p694
F1
sVfame
p695
F2
sVwales,
p696
F3
sVedge?
p697
F1
sVtrain,
p698
F1
sVcost.
p699
F1
sVflock,
p700
F1
sVsterling
p701
F1
sVnevil,
p702
F1
sVsickness
p703
F1
sViv,
p704
F2
sViv.
p705
F4
sVbirths
p706
F1
sVbarber
p707
F1
sVprofane;
p708
F1
sVcollected,
p709
F1
sVtrains
p710
F1
sVsum?
p711
F1
sVsummer
p712
F1
sVbeing
p713
F17
sVofficers,
p714
F5
sVimpediments
p715
F1
sVrest
p716
F7
sVweekly
p717
F1
sVswaggering
p718
F3
sVrepentance.
p719
F1
sVgrievances:
p720
F2
sVjoyful
p721
F2
sVarthur's
p722
F1
sVhips;
p723
F1
sVenamour'd
p724
F1
sVknights."
p725
F1
sVworld
p726
F7
sVsnare
p727
F1
sVdare
p728
F4
sVmeat
p729
F1
sVreform
p730
F1
sVventured,
p731
F1
sVholland:
p732
F1
sVdivine
p733
F2
sVcountenanced
p734
F1
sVdimensions
p735
F1
sVlend
p736
F3
sVrevenged
p737
F1
sVthink.
p738
F2
sVthink,
p739
F3
sVpower
p740
F12
sVsprung
p741
F1
sVthink?
p742
F1
sVprecious,
p743
F1
sVyielded;
p744
F1
sVrevenge:
p745
F1
sVact
p746
F6
sVluck
p747
F1
sVcakes.
p748
F1
sVstony
p749
F1
sVfruiterer,
p750
F1
sVchivalry
p751
F1
sVcurling
p752
F1
sVburning
p753
F1
sVimage
p754
F3
sVwit:
p755
F1
sVwit!
p756
F1
sVtidings;
p757
F1
sVwit.
p758
F2
sVmourn.
p759
F1
sVsurvive,
p760
F1
sVass,
p761
F1
sVabuse!
p762
F1
sVher
p763
F21
sVabuse,
p764
F5
sVabuse.
p765
F1
sVwithal.
p766
F2
sVtisick,
p767
F1
sVabuse;
p768
F1
sVanother;
p769
F1
sVanother:
p770
F1
sVcomplete
p771
F1
sVwits
p772
F1
sVdangers
p773
F1
sVplucks
p774
F1
sVhath,
p775
F1
sVhath!
p776
F1
sVwith
p777
F273
sVhandsome
p778
F1
sVswoln
p779
F1
sVrage
p780
F2
sVhe?
p781
F4
sVmusic.]
p782
F1
sVhe;
p783
F1
sVdirty
p784
F1
sVhe,
p785
F9
sVsisters,
p786
F1
sVagree
p787
F1
sVrust
p788
F1
sVmalmsey-nose
p789
F1
sVgone
p790
F7
sVfright
p791
F1
sVgeneral's
p792
F1
sVcertain
p793
F7
sVaccents
p794
F1
sVam
p795
F62
sVan
p796
F76
sVas
p797
F174
sVat
p798
F77
sVpeople;
p799
F1
sVqualities,
p800
F1
sVe'en
p801
F1
sVsayest
p802
F2
sVpuppy
p803
F1
sVfrights.
p804
F1
sVtripe-visaged
p805
F1
sVa'
p806
F31
sVis:
p807
F2
sVcandle-mine,
p808
F1
sVnorfolk.
p809
F1
sVgifts
p810
F1
sVsubjects,
p811
F1
sVhomely
p812
F1
sVtricks
p813
F1
sVmask
p814
F1
sVmast
p815
F1
sVshakest
p816
F1
sVoriginal
p817
F1
sVto't.
p818
F1
sVpeach-coloured
p819
F1
sVweariness
p820
F1
sVswallow,
p821
F1
sVhunting
p822
F1
sVparliament:
p823
F1
sVparliament;
p824
F1
sVto
p825
F557
sVduty;
p826
F1
sV"sir
p827
F1
sVgloucester!
p828
F1
sVpence.
p829
F1
sVgloucester,
p830
F5
sVsmile
p831
F1
sVgloucester.
p832
F11
sVparliament,
p833
F1
sVcause,
p834
F2
sVreturned
p835
F1
sVcause;
p836
F1
sVabundance,
p837
F1
sVstrand
p838
F1
sVmarvellous
p839
F2
sVconfederates
p840
F1
sVlaud
p841
F1
sVlarge
p842
F1
sVdanger,
p843
F1
sVharry
p844
F23
sVsmall
p845
F2
sVbroken?
p846
F1
sVreckonings:
p847
F1
sVhas,
p848
F1
sVhusbanded
p849
F1
sVpast
p850
F4
sVcommodity.
p851
F1
sVhonourable
p852
F2
sVlying!
p853
F1
sVhang'st
p854
F1
sVcanvass
p855
F1
sVhour?
p856
F1
sVpack'd
p857
F1
sVrichard
p858
F4
sVclock
p859
F1
sVfull
p860
F12
sVhours
p861
F4
sVhast
p862
F11
sVbuzzing
p863
F1
sVappertinent
p864
F1
sVgout!
p865
F1
sVmouldy
p866
F6
sVaction
p867
F4
sVraze
p868
F1
sVyourself!
p869
F1
sVday's
p870
F2
sVdepart
p871
F1
sVfoundation,
p872
F1
sVhook-nosed
p873
F1
sVsubstance!
p874
F1
sVsubstance,
p875
F1
sVsoundly
p876
F1
sVunder:
p877
F1
sVwavering
p878
F1
sVgorgeous
p879
F1
sVballad
p880
F1
sVmore
p881
F50
sVagamemnon,
p882
F1
sVdoor
p883
F4
sVtester
p884
F1
sVcompany
p885
F2
sVhead."
p886
F1
sVkeeping
p887
F2
sVwestmoreland
p888
F1
sVlearn
p889
F1
sVupbraided
p890
F1
sVhotspur
p891
F2
sVmale
p892
F1
sVprompt
p893
F1
sVoutright;
p894
F1
sVdress
p895
F3
sVtapestry
p896
F1
sVhuge
p897
F1
sVenlarge
p898
F1
sVnever,
p899
F3
sVstate!
p900
F1
sVintended
p901
F1
sVstate.
p902
F1
sVstate,
p903
F2
sVbrethren:
p904
F1
sVnever;
p905
F1
sVstate:
p906
F1
sVgaultree
p907
F2
sVdeafening
p908
F1
sVtrade
p909
F2
sVthrew;
p910
F1
sVsaucy
p911
F1
sVbetween;
p912
F1
sVtruth:
p913
F1
sVdeeds
p914
F1
sVretinue,
p915
F1
sVtruth.
p916
F4
sVtruth,
p917
F6
sVit.
p918
F19
sVit,
p919
F18
sVpropose
p920
F1
sVscot,
p921
F1
sVit!
p922
F3
sVgovern'd
p923
F1
sVit?
p924
F4
sVit:
p925
F8
sVit;
p926
F4
sVmisuse
p927
F1
sVgreat.
p928
F2
sVjordan.
p929
F1
sVstewed
p930
F1
sValways
p931
F2
sVall,
p932
F7
sVloosely
p933
F2
sVcourses
p934
F1
sVall?
p935
F2
sVfound
p936
F5
sVall;
p937
F3
sVrise,
p938
F1
sVsirrah!
p939
F1
sVhen,
p940
F1
sVlanthorn
p941
F1
sVoperation
p942
F1
sVquick,
p943
F1
sVdemure
p944
F1
sVimagine
p945
F1
sVbartholomew
p946
F1
sVacquaint
p947
F1
sVpaul's,
p948
F1
sVweaken'd
p949
F1
sVwoman's
p950
F5
sVthereafter
p951
F1
sVhinckley
p952
F1
sVnumber
p953
F3
sVfeeder
p954
F1
sVthis?"
p955
F1
sVguess
p956
F1
sVserving-man:
p957
F1
sVheads
p958
F2
sVother,
p959
F4
sVremember;
p960
F1
sVsaint
p961
F2
sVjustly
p962
F2
sVfirst,
p963
F1
sVimmediate
p964
F2
sVfirst;
p965
F1
sVfirst?
p966
F1
sVforward.
p967
F1
sVgrace
p968
F14
sVsure,
p969
F1
sVarrant
p970
F4
sVhot;
p971
F1
sVhead:
p972
F2
sVtouch'd,
p973
F1
sVhead.
p974
F2
sVhead,
p975
F3
sVsingle?
p976
F1
sVlivers
p977
F1
sVjaphet.
p978
F1
sVpresents
p979
F1
sVfashion,
p980
F1
sVcommotion
p981
F1
sVwish:
p982
F2
sVfashion;
p983
F1
sVplay
p984
F3
sVfight;
p985
F1
sVswiftly
p986
F1
sVcares.
p987
F1
sVhoney,
p988
F1
sVcares:
p989
F1
sVreward
p990
F1
sVunequal
p991
F1
sVseize
p992
F1
sVsilver,
p993
F1
sVcharged
p994
F1
sVwas,
p995
F3
sVdiseases,
p996
F2
sVgold
p997
F5
sVblushing?
p998
F1
sVoverwhelmed
p999
F1
sVearl,
p1000
F2
sVstandeth
p1001
F1
sVearl.
p1002
F1
sVsect;
p1003
F1
sVpleasure,
p1004
F1
sVwell-practised
p1005
F1
sVintervallums.
p1006
F1
sVremedy
p1007
F1
sValive?
p1008
F1
sVenemy
p1009
F3
sVriver
p1010
F1
sVcoward
p1011
F1
sVbardolph.].
p1012
F1
sVset
p1013
F17
sVoverwhelm
p1014
F1
sVjade
p1015
F1
sVsee
p1016
F44
sVstronger;
p1017
F1
sVproject
p1018
F2
sVspirits
p1019
F7
sVpearls,
p1020
F1
sVrood!
p1021
F1
sVjewels.
p1022
F1
sVsoftly,
p1023
F1
sVkneel
p1024
F2
sVgriefs,
p1025
F2
sVbulk,
p1026
F1
sV"accommodo:"
p1027
F1
sVgriefs;
p1028
F1
sVpagan
p1029
F1
sVwolves,
p1030
F1
sVweary;
p1031
F1
sVlast
p1032
F7
sVnimble
p1033
F1
sVthou
p1034
F152
sVemnity
p1035
F1
sVweary.
p1036
F1
sVspirit.
p1037
F2
sVlet
p1038
F81
sVspirit,
p1039
F1
sVapprove
p1040
F2
sVknee,
p1041
F1
sVsilence!
p1042
F1
sVmajesty
p1043
F6
sVdrunk
p1044
F2
sVquickly,"
p1045
F2
sVsilence.
p1046
F24
sVsilence,
p1047
F8
sVtown:
p1048
F2
sVstill-discordant
p1049
F1
sVsilence:
p1050
F2
sVsilence?
p1051
F1
sVbelt
p1052
F1
sVbones!
p1053
F1
sVdevil
p1054
F2
sVloves,
p1055
F1
sVfirm
p1056
F2
sVfire
p1057
F7
sVinfect
p1058
F1
sVwhat's
p1059
F5
sVtowns
p1060
F1
sVhostess
p1061
F4
sVheadland
p1062
F1
sVstraight
p1063
F2
sV'scape.
p1064
F1
sVconceit
p1065
F1
sVkissing
p1066
F1
sVrobin
p1067
F2
sVclarence.
p1068
F16
sVguide.
p1069
F1
sVclarence,
p1070
F4
sVpound
p1071
F3
sVeyelids
p1072
F1
sVlevel,
p1073
F1
sVclouds,
p1074
F1
sVclarence!
p1075
F1
sVclarence?
p1076
F1
sVcuttle
p1077
F1
sVgluttony,
p1078
F1
sVafoot,
p1079
F1
sVshorten
p1080
F1
sVdozen
p1081
F6
sVgrooms,
p1082
F2
sVviewing
p1083
F1
sVnecessity
p1084
F1
sVwas;
p1085
F1
sVyet?
p1086
F2
sVmanned,
p1087
F1
sVcommoners
p1088
F1
sVloathsome
p1089
F1
sVyet.
p1090
F1
sVperson
p1091
F3
sVyet,
p1092
F6
sVlubber's-head
p1093
F1
sVaddress'd,
p1094
F1
sVbackbitten,
p1095
F1
sVunto
p1096
F16
sVyield,
p1097
F1
sVswinged
p1098
F1
sVoldcastle
p1099
F1
sVthee.
p1100
F8
sVthee,
p1101
F25
sVjoints,
p1102
F1
sVdemands
p1103
F1
sVcouple
p1104
F1
sVthee!
p1105
F1
sVthee?
p1106
F1
sVsuffering
p1107
F1
sVthee:
p1108
F2
sVconversing
p1109
F1
sVformal
p1110
F1
sVbruited
p1111
F1
sVcontinue
p1112
F1
sVyields
p1113
F1
sVcanst
p1114
F5
sVcommendable.
p1115
F1
sVspring
p1116
F2
sVgettest
p1117
F1
sVpalm
p1118
F1
sVsight
p1119
F4
sVwoe-begone,
p1120
F1
sVdeserve.
p1121
F1
sVmen.]
p1122
F1
sVrapier,
p1123
F1
sVbe
p1124
F183
sVmight!
p1125
F1
sVsee:
p1126
F2
sVmight;
p1127
F1
sVby
p1128
F111
sVanything
p1129
F2
sVsorrows
p1130
F1
sVpewterer's
p1131
F1
sVreverence
p1132
F2
sVtall;
p1133
F1
sVinto
p1134
F26
sVjack:
p1135
F1
sVbeadles,
p1136
F2
sVjack,
p1137
F3
sVgunpowder.
p1138
F1
sVchide
p1139
F2
sVsuit
p1140
F3
sVblows!
p1141
F1
sV[knocking
p1142
F3
sVimpudent
p1143
F2
sVlegs?
p1144
F1
sVbelike
p1145
F1
sVinfinitive
p1146
F1
sVlink
p1147
F1
sVstillest
p1148
F1
sVcoldest
p1149
F1
sVstrange-achieved
p1150
F1
sVfortunes!
p1151
F1
sVfortunes,
p1152
F1
sVup
p1153
F29
sVus
p1154
F28
sVsneak.
p1155
F1
sVopen;
p1156
F1
sVside,
p1157
F3
sVlost,
p1158
F2
sVsettled,
p1159
F1
sVhive,
p1160
F1
sVelement,
p1161
F1
sVliving,
p1162
F1
sVmartlemas,
p1163
F1
sVhark,
p1164
F1
sVtremblest;
p1165
F1
sVrescue!
p1166
F2
sVtearsheet.
p1167
F2
sVtearsheet!
p1168
F1
sVstockfish,
p1169
F1
sV'tween
p1170
F1
sVpotion
p1171
F1
sVsides
p1172
F1
sVago
p1173
F1
sVland
p1174
F2
sVage
p1175
F4
sVholes
p1176
F2
sVedward,
p1177
F1
sVdoor;
p1178
F1
sVhaving
p1179
F5
sValmost,
p1180
F1
sVpartial
p1181
F1
sVashamed
p1182
F2
sVreceive,"
p1183
F1
sVcoventry:
p1184
F1
sVdainty
p1185
F1
sVamiss
p1186
F1
sVgossip
p1187
F1
sVturkish
p1188
F1
sVshow'd
p1189
F1
sVyoung
p1190
F20
sVsend
p1191
F8
sVsir?
p1192
F7
sVsent
p1193
F15
sVpanting
p1194
F1
sVwild-geese.
p1195
F1
sVaccount
p1196
F1
sVwipe
p1197
F2
sVscarlet,
p1198
F1
sVmarry
p1199
F4
sVfewer
p1200
F1
sVhinges,
p1201
F1
sVtry
p1202
F5
sVbloody-faced
p1203
F1
sVpledge
p1204
F2
sVcarrion.
p1205
F1
sVodd
p1206
F1
sVvictor
p1207
F1
sVthat,
p1208
F12
sVthat.
p1209
F6
sVhenceforth
p1210
F1
sVthat?
p1211
F4
sVthat:
p1212
F1
sVbird
p1213
F1
sVear,
p1214
F1
sVled
p1215
F4
sVpraise
p1216
F1
sVrascally
p1217
F3
sVspake
p1218
F2
sVpoverty
p1219
F2
sVanswered;
p1220
F1
sVinvented
p1221
F1
sVfifteen
p1222
F1
sVconjunction!
p1223
F1
sVgreat
p1224
F21
sVreceive
p1225
F1
sVcaliver
p1226
F1
sVsurvey
p1227
F2
sVsweat,
p1228
F2
sVmakes
p1229
F4
sVwithdrew,
p1230
F1
sVwhoe'er
p1231
F1
sVask'd
p1232
F1
sVdealing;
p1233
F1
sVincertain
p1234
F1
sVarchbishop
p1235
F5
sVnext
p1236
F1
sVindited
p1237
F1
sVeleven
p1238
F1
sVdoubt
p1239
F3
sVlaboured
p1240
F1
sVsir!
p1241
F1
sVcounsel,
p1242
F1
sVsir.
p1243
F23
sVsir,
p1244
F40
sVbodily
p1245
F1
sVfoolishly
p1246
F1
sVsir:
p1247
F3
sVsir;
p1248
F13
sVbest-temper'd
p1249
F1
sVcounsel:
p1250
F1
sVthis
p1251
F154
sVpour
p1252
F1
sVminister,
p1253
F1
sVthin
p1254
F5
sVbeavers
p1255
F1
sV[drawing,
p1256
F1
sV[singing.]
p1257
F6
sVweaker
p1258
F1
sVbent
p1259
F1
sVpawn
p1260
F3
sVfit,
p1261
F1
sVrode
p1262
F3
sVnone:
p1263
F2
sVhigh
p1264
F7
sVbones
p1265
F1
sVnone.
p1266
F2
sVrods
p1267
F1
sVnone,
p1268
F3
sVtrumpet
p1269
F2
sVsee'st
p1270
F1
sVcaesars,
p1271
F1
sVstings
p1272
F1
sVknight-errant,
p1273
F1
sVking's
p1274
F6
sVconceited,
p1275
F1
sVutis:
p1276
F1
sVmightst
p1277
F2
sVsingular
p1278
F1
sVpurpose.
p1279
F1
sVseldom
p1280
F1
sVfits
p1281
F1
sVpale,
p1282
F1
sVhuswifes
p1283
F1
sVacquitted
p1284
F1
sVwrit
p1285
F2
sVallow
p1286
F4
sVpractis'd
p1287
F1
sVphysician;
p1288
F1
sVmove
p1289
F1
sVarchbishop.
p1290
F26
sVarchbishop,
p1291
F5
sVarchbishop;
p1292
F1
sVphysician.
p1293
F1
sVphysician,
p1294
F1
sVperfect
p1295
F2
sVsaturn
p1296
F1
sVdegrees
p1297
F1
sVprosper
p1298
F1
sVhostess.
p1299
F52
sVhostess,
p1300
F2
sVhostess;
p1301
F2
sVhostess?
p1302
F1
sVsoldiers,
p1303
F1
sVdegree,
p1304
F2
sVwhither
p1305
F1
sVpulsidge
p1306
F1
sV[the
p1307
F2
sVtruth
p1308
F5
sV"brother,
p1309
F1
sVdoing
p1310
F1
sVsociety
p1311
F1
sVbooks
p1312
F2
sVmete
p1313
F1
sVtolling
p1314
F2
sVwitness
p1315
F1
sVscattr'd
p1316
F1
sVvenom
p1317
F1
sVfavours
p1318
F1
sVdecay!
p1319
F1
sVshut
p1320
F3
sVcousin,
p1321
F6
sVbook,
p1322
F2
sVdecay.
p1323
F1
sVsurmises,
p1324
F1
sVliege!
p1325
F1
sVliege,
p1326
F5
sVsuitor.
p1327
F1
sVliege.
p1328
F1
sVagainst.
p1329
F1
sVdiscolours
p1330
F1
sVfantasy.
p1331
F1
sVthings,
p1332
F1
sVfavour,
p1333
F1
sVscars
p1334
F1
sVlength
p1335
F1
sVbloodshed,
p1336
F1
sVblown
p1337
F1
sVhave;
p1338
F1
sVhave:
p1339
F1
sVshort?
p1340
F1
sVhave?
p1341
F2
sVscene
p1342
F21
sVtakest
p1343
F1
sVblows
p1344
F1
sVhave.
p1345
F2
sVhave,
p1346
F5
sVtwo.
p1347
F1
sVbrimful
p1348
F1
sVslain,
p1349
F1
sVimitate
p1350
F1
sVforetelling
p1351
F1
sVmalady
p1352
F1
sVenforcement
p1353
F1
sVstomach
p1354
F2
sVdarest
p1355
F1
sVarticles;
p1356
F1
sVscurvy
p1357
F2
sVappear'd,
p1358
F1
sVjesu,
p1359
F5
sVdinner?
p1360
F1
sVarticles.
p1361
F1
sVsteel
p1362
F1
sVbeseek
p1363
F1
sVgone,
p1364
F3
sVlying
p1365
F2
sVmelody?
p1366
F1
sVbravely,
p1367
F1
sVextraordinarily
p1368
F1
sVme,--
p1369
F1
sVtortures
p1370
F1
sVagate
p1371
F1
sVbravely;
p1372
F1
sVsteep
p1373
F2
sVtorrent
p1374
F1
sVaccusing
p1375
F1
sVfalse
p1376
F4
sVyou.
p1377
F33
sVgently
p1378
F1
sVgentle
p1379
F10
sVnoise;
p1380
F1
sVlinen
p1381
F2
sVvillain's
p1382
F1
sVpossibility;
p1383
F1
sVcompetence
p1384
F1
sVnoise!
p1385
F2
sVwicked,
p1386
F1
sVweeds;
p1387
F1
sVfurious
p1388
F2
sVcourtesy
p1389
F2
sVwicked?
p1390
F4
sVassistances;
p1391
F1
sVvultures
p1392
F1
sVhypocrite
p1393
F1
sVinfamy.
p1394
F1
sVbred
p1395
F1
sVstronger
p1396
F1
sVface
p1397
F10
sVyou'll
p1398
F4
sVdrawer.]--[singing]
p1399
F1
sVmechanical
p1400
F1
sVsaltness
p1401
F1
sVsmooth-pates
p1402
F1
sVentertain
p1403
F1
sVluck?
p1404
F1
sVreturn'd
p1405
F1
sVbring
p1406
F10
sVstill-stand,
p1407
F1
sVrough
p1408
F4
sVpause
p1409
F1
sVshould
p1410
F45
sVthere's
p1411
F6
sVnorthumberland?
p1412
F1
sVhope
p1413
F8
sVmeant
p1414
F1
sVhandle
p1415
F1
sVmeans
p1416
F7
sVinflammation.
p1417
F1
sVfamiliar
p1418
F3
sVunyoked,
p1419
F1
sVkatharine
p1420
F1
sVcommotion's
p1421
F1
sVstuff
p1422
F4
sVtap,
p1423
F1
sVgentlewomen,
p1424
F1
sVrestraint,
p1425
F1
sVframe
p1426
F1
sVend:
p1427
F1
sVonce;
p1428
F2
sVonce,
p1429
F2
sVend,
p1430
F2
sVend.
p1431
F5
sVdungeon
p1432
F1
sVpistol
p1433
F7
sVends
p1434
F1
sVgreen-sickness;
p1435
F1
sVpackhorses
p1436
F1
sVapter
p1437
F1
sVpuff
p1438
F2
sVneptune's
p1439
F1
sVcrown'd:
p1440
F1
sVbelly?
p1441
F1
sVbelly.
p1442
F2
sVfeather
p1443
F1
sVwaste
p1444
F3
sVcoherence
p1445
F1
sVneighbour
p1446
F2
sVhateful
p1447
F1
sVchronicles,
p1448
F1
sVbanish
p1449
F2
sVwearied
p1450
F2
sVlecherous
p1451
F1
sVwords.
p1452
F2
sVwindsor.
p1453
F1
sVwindsor,
p1454
F1
sVwast,
p1455
F1
sVstuffing
p1456
F1
sVripe
p1457
F1
sVsad,
p1458
F3
sVsits
p1459
F2
sVgreater
p1460
F2
sVseeming.
p1461
F1
sVof!
p1462
F1
sVvalour
p1463
F2
sVof?
p1464
F2
sVbalm
p1465
F1
sVball
p1466
F1
sVsit.
p1467
F2
sVbald
p1468
F1
sVupon
p1469
F63
sVv.
p1470
F4
sVsit;
p1471
F1
sVnation;
p1472
F1
sVsit?
p1473
F1
sVdust
p1474
F1
sVbring'st
p1475
F1
sVforgotten?
p1476
F1
sVdoors?
p1477
F1
sVoff
p1478
F13
sVsuggestion--
p1479
F1
sVdoors.
p1480
F1
sVdoors,
p1481
F2
sVcommand
p1482
F2
sVoft
p1483
F1
sVlest
p1484
F2
sVpie,
p1485
F1
sVnewest
p1486
F1
sVkiss
p1487
F7
sVenemy,
p1488
F1
sVflesh
p1489
F6
sVgoing,
p1490
F1
sVswords
p1491
F3
sVincrease,
p1492
F1
sVenemy;
p1493
F2
sVcall;
p1494
F1
sVinnocent.
p1495
F1
sVgoing;
p1496
F1
sVgower.]
p1497
F1
sVwen
p1498
F1
sVarrest
p1499
F3
sVcrack
p1500
F2
sVleman
p1501
F1
sVroom.
p1502
F2
sVroom,
p1503
F1
sVfire-brand;
p1504
F1
sVfive
p1505
F7
sVfools
p1506
F2
sVengland!
p1507
F1
sVactions;
p1508
F1
sVwe,
p1509
F2
sVmisdoubts
p1510
F1
sVbecome
p1511
F9
sVmure
p1512
F1
sVimmortal
p1513
F1
sVwhistle,
p1514
F1
sVaccommodated;
p1515
F3
sVorchard,
p1516
F1
sVaccommodated!
p1517
F2
sVpassion
p1518
F1
sVforgiven
p1519
F1
sVblowing
p1520
F1
sVwither'd
p1521
F1
sVblubbered.]
p1522
F1
sVimaginary
p1523
F1
sVeasily.
p1524
F1
sVcounties
p1525
F1
sVstage
p1526
F1
sVhens,
p1527
F1
sVsister
p1528
F1
sVfalstaff
p1529
F10
sVforgive;
p1530
F1
sVfarewell,
p1531
F4
sVseeds
p1532
F1
sVletters
p1533
F4
sVmiscarried
p1534
F1
sVdeliver!
p1535
F1
sVnow!
p1536
F6
sVmere
p1537
F2
sVplace;
p1538
F1
sVcorpse,
p1539
F1
sVout.]
p1540
F1
sVdetermin'd
p1541
F1
sVnaturally
p1542
F1
sVroad.
p1543
F1
sVthey:
p1544
F1
sVletter:
p1545
F1
sVerrand.
p1546
F1
sVgrate
p1547
F1
sVvaluation
p1548
F1
sVthey,
p1549
F1
sVsmooth
p1550
F1
sVwhoreson
p1551
F12
sVrecruits.
p1552
F1
sVbearing
p1553
F2
sVrecruits,
p1554
F1
sVarms;
p1555
F1
sVlife
p1556
F18
sVarms.
p1557
F1
sVinn
p1558
F1
sVink
p1559
F1
sVindifferency,
p1560
F1
sVdidst
p1561
F9
sVwrites.
p1562
F1
sVlately
p1563
F2
sVbehold
p1564
F1
sVrepeat
p1565
F1
sVagain.
p1566
F5
sVin:
p1567
F1
sVin,
p1568
F3
sVagain;
p1569
F1
sVchance
p1570
F3
sVwrenching
p1571
F1
sVovercame."
p1572
F1
sVnurse,
p1573
F1
sVpacify
p1574
F1
sVtaverns,
p1575
F1
sVghost
p1576
F1
sVrule
p1577
F1
sVforest.
p1578
F3
sVforest,
p1579
F2
sVpension
p1580
F1
sVswell'd
p1581
F1
sVmansion
p1582
F1
sVoldest
p1583
F1
sVparty.
p1584
F1
sVdoth
p1585
F52
sVspeeded
p1586
F1
sVtickle
p1587
F1
sVworth
p1588
F6
sVbunches
p1589
F1
sVtarry
p1590
F1
sVman,----
p1591
F1
sVknowest
p1592
F1
sVwe'll
p1593
F3
sVbullcalf.
p1594
F7
sVpinch
p1595
F1
sVbullcalf,
p1596
F4
sVpercy's
p1597
F4
sVlethargy,
p1598
F1
sVhorn
p1599
F1
sVothers'
p1600
F1
sVfollow
p1601
F9
sVothers.
p1602
F1
sVparticular.
p1603
F2
sVtold
p1604
F6
sVhogshead?
p1605
F1
sVgirdles;
p1606
F1
sVbacks,
p1607
F1
sVgreedy
p1608
F1
sVtwopences
p1609
F1
sVless.
p1610
F1
sVdaughter
p1611
F1
sVsmoky
p1612
F1
sVcounter:
p1613
F1
sVlistening,
p1614
F1
sVdoleful
p1615
F1
sVrouts,
p1616
F1
sVgentleman,
p1617
F3
sVgentleman.
p1618
F2
sVthrust
p1619
F7
sVgentleman;
p1620
F1
sVgentleman:
p1621
F1
sVplot
p1622
F1
sVworld's
p1623
F1
sVdrinking:
p1624
F1
sVreign
p1625
F2
sValack,
p1626
F2
sVcontinual
p1627
F3
sVroyally
p1628
F1
sVword
p1629
F17
sVwore
p1630
F1
sVdivorced
p1631
F1
sVwork
p1632
F2
sVworn
p1633
F2
sVere
p1634
F13
sVimbrue?
p1635
F1
sVcould
p1636
F17
sVoverspread
p1637
F1
sVquiver
p1638
F1
sVjest
p1639
F1
sVbona-robas
p1640
F1
sVin
p1641
F316
sVkeeper's
p1642
F1
sVla!
p1643
F2
sVfronting
p1644
F1
sVvassal
p1645
F1
sVfoulest
p1646
F1
sVhast,
p1647
F1
sVweapons,
p1648
F1
sVweapons.
p1649
F1
sVladder
p1650
F1
sVafter
p1651
F13
sVlay
p1652
F9
sVlaw
p1653
F3
sVhasty
p1654
F2
sVgreet
p1655
F1
sVgreen
p1656
F1
sVcall'd?
p1657
F1
sVwouldst
p1658
F4
sVsweetheart,
p1659
F2
sVswaggering,
p1660
F1
sVoffice
p1661
F2
sVconsent
p1662
F1
sVsatisfied
p1663
F1
sVears:
p1664
F1
sVears;
p1665
F2
sVwrathful
p1666
F1
sVhereford
p1667
F1
sVears.
p1668
F1
sVfeed,
p1669
F1
sVbrawling
p1670
F1
sVlords?
p1671
F2
sVthen
p1672
F49
sVthem
p1673
F38
sVyoung;
p1674
F1
sVboots.
p1675
F1
sVthee
p1676
F47
sVbreak
p1677
F7
sVband
p1678
F1
sVyoung,
p1679
F1
sVthey
p1680
F60
sVjerkins
p1681
F2
sVancient:
p1682
F1
sVbread
p1683
F1
sVrocky
p1684
F1
sVgallows
p1685
F1
sVascends
p1686
F2
sVdivided;
p1687
F1
sVobservance
p1688
F1
sVswagger:
p1689
F1
sVfairly
p1690
F1
sVmeeting.]
p1691
F2
sVbearded
p1692
F1
sVswagger,
p1693
F1
sVleather-coats
p1694
F1
sVflock
p1695
F2
sVsmith's
p1696
F1
sVstiff-borne
p1697
F1
sVfellows
p1698
F1
sVmedicine
p1699
F1
sVforth
p1700
F6
sVbolingbroke,
p1701
F3
sVbolingbroke.
p1702
F1
sVforcible
p1703
F1
sVstriking,
p1704
F1
sVlawless
p1705
F1
sVadmits
p1706
F1
sVbolingbroke;
p1707
F1
sVfellow:
p1708
F2
sVfellow;
p1709
F1
sVfellow,
p1710
F4
sVvessel,
p1711
F1
sVfellow.
p1712
F2
sVvessel.
p1713
F1
sV"no
p1714
F1
sVfellow!
p1715
F1
sVhe'ld
p1716
F1
sVvulgar
p1717
F1
sVanother
p1718
F8
sVthick
p1719
F3
sVrated
p1720
F1
sVscene:
p1721
F1
sVhearse
p1722
F1
sVimmodest
p1723
F1
sVi'
p1724
F15
sVjohn
p1725
F36
sVthing;
p1726
F2
sVoverscutch'd
p1727
F1
sVwasted
p1728
F3
sVdog.
p1729
F1
sVgreater,
p1730
F1
sVtavern
p1731
F2
sVrate,
p1732
F1
sVair.
p1733
F1
sVbinds
p1734
F1
sVcorruption:"
p1735
F1
sVdog;
p1736
F1
sViron
p1737
F1
sVair;
p1738
F1
sVpowers
p1739
F5
sVmanned
p1740
F1
sVmanner
p1741
F3
sVetext
p1742
F1
sVyourselves,
p1743
F1
sVstrength
p1744
F4
sVovertook
p1745
F1
sVforces
p1746
F2
sVswims
p1747
F1
sVstay'd.
p1748
F2
sVattach'd
p1749
F1
sVgrave
p1750
F2
sVdarkness
p1751
F1
sVfitter
p1752
F2
sVknows,
p1753
F4
sVsubject,
p1754
F1
sVcerberus;
p1755
F1
sVsubject.
p1756
F1
sVinvestments
p1757
F1
sVdeeply
p1758
F2
sVshrewsbury
p1759
F3
sVjove!
p1760
F1
sVfreely:
p1761
F1
sVhither.
p1762
F3
sVhither,
p1763
F4
sVrun;
p1764
F1
sVsentence
p1765
F1
sVaffections;
p1766
F1
sVthem.]
p1767
F4
sVhither:
p1768
F2
sVhither?
p1769
F1
sVcorrectioner,
p1770
F1
sVrun,
p1771
F3
sVdo
p1772
F106
sVleisure
p1773
F1
sVshirts,
p1774
F1
sVreligion:
p1775
F1
sVcongealed
p1776
F1
sV[enter,
p1777
F2
sVwrested
p1778
F1
sVsteal
p1779
F1
sVinns
p1780
F2
sVstreet;
p1781
F1
sVdraws
p1782
F1
sVrequest.
p1783
F1
sVaway
p1784
F13
sVgentleman
p1785
F3
sVdivination
p1786
F1
sVjewel,--the
p1787
F1
sVdrawn
p1788
F2
sVreceive:
p1789
F1
sVwe
p1790
F106
sVloose
p1791
F1
sVterms
p1792
F1
sVlap.
p1793
F1
sVseem'd
p1794
F3
sVunfold
p1795
F2
sVinn.
p1796
F2
sVinn,
p1797
F1
sVreceived
p1798
F2
sVill
p1799
F13
sVseal'd
p1800
F1
sVdraw.
p1801
F1
sVdraw,
p1802
F1
sVgentlewoman,
p1803
F1
sVgentlewoman!
p1804
F1
sVwider
p1805
F1
sVspeak
p1806
F32
sVpetty
p1807
F1
sVpeascod-time;
p1808
F1
sVthrice
p1809
F3
sVbeastly
p1810
F1
sVpounds.
p1811
F2
sVflap-dragons,
p1812
F1
sVgracious
p1813
F3
sVquaff'd
p1814
F1
sVhas
p1815
F7
sVsampson
p1816
F1
sVair
p1817
F1
sVaim
p1818
F3
sVout-rode
p1819
F1
sVvoice
p1820
F5
sVmistake
p1821
F1
sVfaith.
p1822
F1
sVfaith,
p1823
F17
sVfaith!
p1824
F1
sVfaith:
p1825
F1
sVfaith;
p1826
F3
sVblame,
p1827
F1
sVcamp,
p1828
F1
sVperform
p1829
F1
sVdescend
p1830
F1
sVth'
p1831
F1
sVindictment
p1832
F2
sVwheel
p1833
F1
sVthursday:
p1834
F1
sVswell
p1835
F1
sVhang
p1836
F6
sVrain
p1837
F2
sVhand
p1838
F8
sVdeceased;
p1839
F1
sVfaiths
p1840
F1
sVbeetle.
p1841
F1
sVkept
p1842
F4
sVwhereby
p1843
F3
sVplate,
p1844
F1
sVavoid,
p1845
F1
sVhumble
p1846
F4
sVragged
p1847
F4
sVhumbly
p1848
F1
sVthe
p1849
F1000
sVmingle
p1850
F1
sVmay.
p1851
F1
sVrepose
p1852
F1
sVcap,
p1853
F1
sVthanks
p1854
F1
sVswears
p1855
F2
sVmay:
p1856
F1
sVgood-nights.
p1857
F1
sVbelongs
p1858
F1
sVtransformed
p1859
F1
sVfares
p1860
F1
sVgod?
p1861
F1
sVswear,
p1862
F1
sVsurveyors,
p1863
F1
sVgod,
p1864
F10
sVgod!
p1865
F2
sVretreat
p1866
F1
sVnight
p1867
F1
sVhill.
p1868
F1
sVsends
p1869
F1
sVborn
p1870
F3
sVconstables
p1871
F1
sVcounsel-keeper.
p1872
F1
sVoffences.
p1873
F1
sVasking
p1874
F1
sVdenied
p1875
F2
sVhoney-seed,
p1876
F1
sVdrink
p1877
F10
sVmine;
p1878
F2
sVpeer
p1879
F2
sVpeep
p1880
F1
sVrampallian!
p1881
F1
sVchaff
p1882
F1
sVdines
p1883
F1
sVtheirs
p1884
F1
sVmonths
p1885
F1
sVcherish
p1886
F1
sVtreble
p1887
F2
sVmowbray.
p1888
F20
sVmowbray,
p1889
F9
sVbawdy-house?
p1890
F1
sVbound
p1891
F2
sVrendering
p1892
F1
sVmowbray:
p1893
F1
sVlewd
p1894
F1
sVstrangely
p1895
F1
sVwag
p1896
F1
sVsovereign
p1897
F1
sVfight
p1898
F3
sVwhy,
p1899
F13
sVway
p1900
F9
sVeditions
p1901
F1
sVdurance
p1902
F1
sVwas
p1903
F67
sVwar
p1904
F3
sVprisoner;
p1905
F1
sVhim.]
p1906
F1
sVconsideration:
p1907
F1
sVpriam
p1908
F1
sVbarson.
p1909
F1
sVcriest
p1910
F1
sVtaken
p1911
F2
sVsame.
p1912
F2
sVpay,
p1913
F1
sVsurecard,
p1914
F1
sVtrue
p1915
F16
sVdeliberate,
p1916
F1
sVanew
p1917
F1
sVwitness'd
p1918
F1
sVthis,--you
p1919
F1
sVdigression
p1920
F1
sVbrother?
p1921
F4
sVscore.
p1922
F1
sVtenour
p1923
F2
sVpromised
p1924
F2
sVbrother,
p1925
F3
sVscore;
p1926
F1
sVsong,
p1927
F1
sVbed.
p1928
F4
sVjesus,
p1929
F1
sV"when
p1930
F1
sVbed;
p1931
F1
sVbed:
p1932
F1
sVbrothers
p1933
F2
sVo'clock
p1934
F1
sVours;
p1935
F1
sVwelcome
p1936
F6
sVfirst-born
p1937
F1
sVmightily
p1938
F1
sVwounded
p1939
F1
sVvictory;
p1940
F1
sVbestowed
p1941
F1
sVtogether
p1942
F3
sVvictory.
p1943
F1
sVebon
p1944
F1
sVnight-flies
p1945
F1
sVbrow,
p1946
F2
sVdance
p1947
F1
sVinjuries.
p1948
F3
sVbattle
p1949
F2
sVgainsaid:
p1950
F1
sVdeath's-head;
p1951
F1
sVbarnes,
p1952
F1
sVperceive,
p1953
F1
sVhereof
p1954
F1
sVterror
p1955
F1
sVdivision
p1956
F1
sVsuperfluity,
p1957
F1
sVtrouble
p1958
F1
sVbrows
p1959
F1
sVfeeble
p1960
F1
sVperceived
p1961
F1
sVturns
p1962
F1
sVoffender
p1963
F1
sVqueasiness,
p1964
F1
sVbrave
p1965
F2
sVpenknife.
p1966
F1
sVcost
p1967
F3
sVtempest
p1968
F2
sVappear
p1969
F3
sVheaviness
p1970
F1
sVassistance
p1971
F1
sVappeal
p1972
F1
sVsafety,
p1973
F1
sVsafety.
p1974
F1
sVsatisfy
p1975
F1
sVunsure
p1976
F1
sVvaward
p1977
F1
sVwhiteness
p1978
F1
sVdombledon
p1979
F1
sVappears
p1980
F3
sVchange
p1981
F2
sVwolf.
p1982
F1
sVpillow
p1983
F1
sVfoul-mouthed'st
p1984
F1
sVindustry;
p1985
F1
sVquenching
p1986
F1
sVmouse.
p1987
F1
sVprove
p1988
F4
sVlive
p1989
F7
sVenforced,
p1990
F1
sVgentlemen!
p1991
F1
sVgentlemen.
p1992
F2
sVgentlemen:
p1993
F1
sVangel.
p1994
F1
sVcap
p1995
F2
sVpurge
p1996
F2
sVcan
p1997
F26
sVbreeds
p1998
F1
sVheart
p1999
F10
sVouches:"
p2000
F1
sVheard
p2001
F12
sVfortunes
p2002
F1
sVchin
p2003
F2
sVconquest,
p2004
F1
sVrobbery?
p2005
F1
sVwrite
p2006
F1
sVconquest;
p2007
F1
sVcandle,
p2008
F2
sVnose,
p2009
F1
sVsurrey.
p2010
F1
sVfortune!
p2011
F1
sVarmies
p2012
F2
sVhear?
p2013
F1
sVbawl
p2014
F1
sVlucky
p2015
F1
sVhear,
p2016
F4
sVlifting
p2017
F1
sVremember
p2018
F7
sVtrumpets
p2019
F2
sVgavest
p2020
F1
sVgreeks?
p2021
F1
sVoffend
p2022
F2
sVno,
p2023
F20
sVtroops,
p2024
F1
sViii.
p2025
F5
sVindeed
p2026
F11
sVhal;
p2027
F1
sVbullets:
p2028
F1
sVno!
p2029
F1
sVhal!
p2030
F1
sVbrain
p2031
F2
sVtroops;
p2032
F1
sVno;
p2033
F3
sVcold
p2034
F7
sVstill
p2035
F7
sVhal,
p2036
F1
sVhal.
p2037
F1
sVacknowledge
p2038
F1
sVforms
p2039
F2
sVwon,
p2040
F2
sVfeats
p2041
F1
sVbird,
p2042
F1
sVobedience,
p2043
F1
sVprunes
p2044
F1
sVhalf
p2045
F7
sVnot
p2046
F210
sVnow
p2047
F58
sVhall
p2048
F1
sVnor
p2049
F10
sVhereafter.
p2050
F1
sVfor;
p2051
F1
sVservant
p2052
F4
sVpangs:
p2053
F1
sVdrop
p2054
F1
sVchanced.
p2055
F1
sVtapestries.
p2056
F1
sVform:
p2057
F1
sVanother's
p2058
F1
sVyear
p2059
F5
sVhurries
p2060
F1
sVkingdom:
p2061
F1
sVpalace.
p2062
F3
sVgray's
p2063
F1
sVconfines,
p2064
F1
sVkingdom,
p2065
F2
sVfubbed
p2066
F3
sVopener
p2067
F1
sVwax,
p2068
F2
sVfalstaff.]
p2069
F3
sVshows
p2070
F2
sVyea,
p2071
F24
sVfire,
p2072
F1
sVquart
p2073
F1
sVdirections.
p2074
F1
sVrebel
p2075
F2
sVfire:
p2076
F1
sVyea;
p2077
F1
sVcare
p2078
F10
sVbuildeth
p2079
F1
sVability,
p2080
F1
sViron;
p2081
F1
sVhonest
p2082
F14
sVsemblable
p2083
F1
sVdeliver'd
p2084
F1
sVbrain:
p2085
F1
sVbrain;
p2086
F1
sVlovers,
p2087
F1
sVstriking
p2088
F1
sVyourself
p2089
F5
sVconsecrate
p2090
F1
sVended.
p2091
F1
sVdirectly
p2092
F1
sVring
p2093
F2
sVderives
p2094
F2
sVchecked
p2095
F1
sVfruit,
p2096
F1
sVcaught
p2097
F1
sVbreed
p2098
F1
sVtragic
p2099
F1
sVgravy.
p2100
F1
sVfriend
p2101
F4
sVgravy,
p2102
F2
sVthat
p2103
F277
sVbrains
p2104
F2
sVbees,
p2105
F1
sVwithin.]
p2106
F4
sVthan
p2107
F57
sVshrewsbury?
p2108
F2
sVshrewsbury;
p2109
F1
sVto-morrow!
p2110
F1
sVto-morrow.
p2111
F1
sVshrewsbury.
p2112
F3
sVshrewsbury,
p2113
F1
sVtruly,
p2114
F1
sVwilt;
p2115
F1
sVhousehold?
p2116
F1
sVtroublesome
p2117
F2
sVangel
p2118
F2
sVcorrection
p2119
F2
sVwild-mare
p2120
F1
sVperfumes
p2121
F1
sVanger
p2122
F1
sVrecover
p2123
F1
sVwindsor
p2124
F1
sVslave!
p2125
F2
sVslave,
p2126
F1
sVwassail
p2127
F1
sVbishop,
p2128
F1
sVcheeks,
p2129
F1
sVbegin
p2130
F3
sVprick
p2131
F8
sVrather,
p2132
F3
sVlie.
p2133
F1
sVbeing,
p2134
F1
sVtreason:
p2135
F1
sVcannibals,
p2136
F1
sVharry,
p2137
F4
sVhelicons?
p2138
F1
sVthousands;
p2139
F1
sVtooth
p2140
F1
sVdispersed
p2141
F1
sVhonour.
p2142
F1
sVhonour,
p2143
F7
sVpride;
p2144
F1
sVgerman
p2145
F1
sVfifty
p2146
F1
sVgentlewomen
p2147
F1
sVhonour;
p2148
F1
sVlie;
p2149
F1
sVwhile?
p2150
F1
sVrespects,
p2151
F1
sVground
p2152
F7
sVloser.
p2153
F1
sVstained
p2154
F1
sVproportion
p2155
F1
sVseen?
p2156
F1
sVonly
p2157
F8
sVseen!
p2158
F2
sVseen,
p2159
F1
sVendear'd
p2160
F1
sVextraordinarily:
p2161
F1
sVtruly
p2162
F1
sVwhiles
p2163
F3
sVcanker'd
p2164
F1
sVcannot
p2165
F28
sVhonours
p2166
F3
sVfriends;
p2167
F3
sVnext.
p2168
F1
sVfriends,
p2169
F5
sVfriends.
p2170
F1
sVtearsheet
p2171
F4
sVnext?
p2172
F1
sVburst
p2173
F1
sVasleep
p2174
F1
sVtravel-tainted
p2175
F1
sVreputed
p2176
F1
sVunfix
p2177
F1
sVcome,
p2178
F49
sVcome.
p2179
F5
sVcome!
p2180
F1
sVwalk'd
p2181
F3
sVcomplexion
p2182
F1
sVcome;
p2183
F1
sVcome:
p2184
F3
sVoccasion;
p2185
F1
sVpluck
p2186
F4
sVvarlets!
p2187
F1
sVarticle
p2188
F1
sVcolour.
p2189
F1
sVcolour,
p2190
F2
sVpray
p2191
F22
sVhaunch
p2192
F1
sVfought,
p2193
F1
sVcomes
p2194
F33
sVwound?
p2195
F1
sVmadness
p2196
F1
sVwound:
p2197
F1
sVdispatch
p2198
F1
sVwound,
p2199
F1
sVexploit
p2200
F1
sVlearning
p2201
F2
sVforehand
p2202
F1
sVcares
p2203
F2
sVpresurmise,
p2204
F1
sVtoss
p2205
F1
sVfish-meals,
p2206
F1
sVwounds
p2207
F3
sVif,
p2208
F1
sVmoreover,
p2209
F1
sVmidwives
p2210
F1
sVbaying
p2211
F1
sVthese
p2212
F43
sVfull,
p2213
F1
sVcare?
p2214
F1
sVcare;
p2215
F1
sVtrick
p2216
F1
sVcare!
p2217
F1
sVcare,
p2218
F2
sVcare.
p2219
F1
sV"semper
p2220
F1
sVhastings,
p2221
F7
sVduties.
p2222
F1
sVhastings.
p2223
F18
sVbegging!
p2224
F1
sVsoil
p2225
F2
sVhastings;
p2226
F1
sVheels
p2227
F3
sVnorthward
p2228
F1
sVmoody,
p2229
F1
sVgentlemen
p2230
F3
sVfiguring
p2231
F1
sVfollowers
p2232
F1
sVangered
p2233
F1
sVcharge,
p2234
F2
sVnoble
p2235
F23
sVmultitude,
p2236
F1
sVnought,
p2237
F1
sVfruit
p2238
F1
sVnobly
p2239
F1
sVeastcheap.
p2240
F3
sVeastcheap,
p2241
F1
sVshillings?
p2242
F1
sVcolevile.]
p2243
F1
sVsir."
p2244
F1
sVheaps
p2245
F1
sVam,
p2246
F4
sVam.
p2247
F1
sVcommotion,
p2248
F1
sVarmour
p2249
F2
sVcertain.
p2250
F3
sVcertain,
p2251
F2
sVlook'd
p2252
F1
sVearl?
p2253
F1
sVtouch
p2254
F1
sVcertain;
p2255
F1
sVchance,
p2256
F1
sVspeed
p2257
F2
sVdeath
p2258
F10
sVthinking
p2259
F2
sVjester!
p2260
F1
sVbreeding.
p2261
F1
sVpacket,
p2262
F1
sVpound,
p2263
F1
sVstruck
p2264
F4
sVmartyr,
p2265
F1
sVshout!
p2266
F1
sVfrown
p2267
F1
sVfine,
p2268
F2
sVread
p2269
F3
sVearly
p2270
F2
sVdancer,
p2271
F1
sVlads
p2272
F1
sVusing
p2273
F1
sVearls
p2274
F1
sVexecution
p2275
F2
sVlady
p2276
F11
sVruled
p2277
F1
sVfortuna
p2278
F1
sVmartyrs
p2279
F1
sVfortune
p2280
F4
sVgreeting
p2281
F1
sVmiracle
p2282
F1
sVtwelve
p2283
F1
sVpeace,
p2284
F10
sVpeace.
p2285
F3
sVtoasts;
p2286
F1
sVpeace!
p2287
F2
sVbacksword
p2288
F1
sVpeace:
p2289
F4
sVpeace;
p2290
F2
sVfollowedst
p2291
F1
sVslops?
p2292
F1
sVassembly
p2293
F1
sVbusiness
p2294
F1
sVinnocency
p2295
F1
sVstrained
p2296
F1
sVurpose,
p2297
F1
sVuneasy
p2298
F2
sVbleedeth
p2299
F1
sVassemble
p2300
F1
sVfrancis
p2301
F2
sVthrow
p2302
F4
sVwidow;
p2303
F1
sVwolf
p2304
F1
sVdame's
p2305
F1
sVpassion,
p2306
F1
sVstrokes,
p2307
F1
sVfoining
p2308
F1
sVyour
p2309
F242
sVlow
p2310
F5
sVthick,
p2311
F1
sVousel,
p2312
F1
sVimmaculate
p2313
F1
sVbigness,
p2314
F1
sVyou,
p2315
F66
sVyou!
p2316
F5
sVyou?
p2317
F3
sVyou;
p2318
F5
sVyou:
p2319
F5
sVunsheathed,
p2320
F1
sVbelly,
p2321
F1
sVshrove-tide.
p2322
F1
sVlo!
p2323
F1
sVare!
p2324
F1
sVare.
p2325
F1
sVare,
p2326
F2
sVbucket
p2327
F1
sVlo,
p2328
F3
sVsadness
p2329
F1
sVare?
p2330
F2
sVintents
p2331
F1
sVmoves
p2332
F1
sVunwelcome
p2333
F1
sVthither
p2334
F1
sVfifty-five
p2335
F1
sVyou
p2336
F380
sVpoor
p2337
F18
sVmove.
p2338
F1
sVperils
p2339
F1
sVremembrance;
p2340
F1
sVremembrance,
p2341
F1
sVintent,
p2342
F2
sVaconitum
p2343
F1
sVtreason's
p2344
F1
sVfool,
p2345
F1
sVfool.
p2346
F1
sVfool!
p2347
F1
sVforswear
p2348
F3
sVrender'd:
p2349
F1
sVthoughtful
p2350
F1
sVsoldiership
p2351
F2
sVdouglas
p2352
F1
sVconger
p2353
F1
sVdreadful
p2354
F1
sVhautboy
p2355
F1
sVunseason'd
p2356
F1
sVvery
p2357
F45
sVshortly.
p2358
F1
sVrogue
p2359
F4
sVdecide
p2360
F1
sVheaven
p2361
F7
sVi'll
p2362
F40
sVanswer,
p2363
F1
sVanswer.
p2364
F3
sVconscience
p2365
F1
sVhim?
p2366
F4
sVhim:
p2367
F8
sVhim;
p2368
F8
sVdrawer.
p2369
F9
sVhim.
p2370
F18
sVhim,
p2371
F26
sVlearned
p2372
F1
sVhim!
p2373
F4
sVlouder;
p2374
F1
sVquoit
p2375
F1
sVlack
p2376
F5
sVstreet,
p2377
F1
sVstreet.
p2378
F4
sVstrong
p2379
F2
sVcertificate.
p2380
F1
sVpsalmist
p2381
F1
sVreason
p2382
F5
sVsoldier
p2383
F3
sVsweatest!
p2384
F1
sV'twas
p2385
F3
sVput
p2386
F18
sVcommence,
p2387
F1
sVstory,
p2388
F1
sVflaws
p2389
F1
sVtakes
p2390
F2
sVhandling.
p2391
F1
sVcontains
p2392
F2
sVpawn;
p2393
F1
sVcommences
p2394
F1
sVexcuse
p2395
F4
sVcommenced
p2396
F1
sVbroke
p2397
F5
sVmounted
p2398
F1
sVhermits'
p2399
F1
sVhorses;
p2400
F1
sVnine
p2401
F2
sVsister?
p2402
F1
sVtake,
p2403
F1
sVhorses.
p2404
F1
sVhistory
p2405
F2
sVshoeing
p2406
F1
sVvisage
p2407
F1
sVforth,
p2408
F2
sVpistol's
p2409
F1
sVphrase
p2410
F1
sVsad;
p2411
F1
sVinsinew'd
p2412
F1
sVheart's
p2413
F2
sVpeto.]
p2414
F1
sVgrievous,
p2415
F1
sVrude
p2416
F3
sV[reads]
p2417
F1
sVsneap
p2418
F1
sVtwenty-nine
p2419
F1
sVa
F506
sVblush
p2420
F1
sVharry:
p2421
F2
sVcalm;
p2422
F1
sVdaggers
p2423
F1
sVdread
p2424
F1
sVbanks
p2425
F1
sVcalm,
p2426
F1
sVincision?
p2427
F1
sVharry.
p2428
F3
sVhelp
p2429
F3
sVseek'st
p2430
F1
sVforth:
p2431
F1
sVsoon
p2432
F4
sVheld
p2433
F1
sVta'en
p2434
F4
sVcommitted
p2435
F1
sVhell
p2436
F1
sVoccasion:
p2437
F1
sVoversights.
p2438
F1
sVcraft's
p2439
F1
sVfair.
p2440
F1
sVabsence
p2441
F1
sVchild.
p2442
F1
sVfair;
p2443
F1
sVfair?
p2444
F2
sVfull.
p2445
F1
sVfool
p2446
F3
sVhanged:
p2447
F1
sVfollowers;
p2448
F1
sVye
p2449
F4
sVhanged.
p2450
F1
sVhanged,
p2451
F1
sVfollowers.
p2452
F2
sVvomit
p2453
F1
sVfoot
p2454
F2
sVgate.]
p2455
F1
sVthree-man
p2456
F1
sVatomy,
p2457
F1
sVinfer
p2458
F1
sVbless
p2459
F5
sVtwice.
p2460
F1
sVfamiliars,
p2461
F1
sVheavy
p2462
F9
sVhouse.
p2463
F2
sVhouse,
p2464
F5
sVhaled
p2465
F1
sVenemy's
p2466
F1
sVhouse;
p2467
F1
sVbeyond
p2468
F3
sVevent
p2469
F1
sVas,
p2470
F2
sVrobert
p2471
F7
sVsince
p2472
F14
sVpublish
p2473
F1
sVmisorder'd
p2474
F1
sVsafety
p2475
F4
sVissue
p2476
F1
sVass
p2477
F1
sVdevil's
p2478
F1
sVbasket-hilt
p2479
F1
sVsuperfluous;
p2480
F1
sVbase
p2481
F6
sVask
p2482
F1
sVmerrily.
p2483
F1
sVmerrily,
p2484
F1
sVterrible
p2485
F1
sVsweets,
p2486
F1
sVtrust,
p2487
F1
sVcheering
p2488
F1
sVbeggars
p2489
F2
sVtrembling,
p2490
F1
sVundergo
p2491
F1
sVdear,
p2492
F1
sVknocking
p2493
F2
sVelder
p2494
F1
sVhorse
p2495
F4
sVperturbation
p2496
F1
sVthoughts:
p2497
F1
sVblossom
p2498
F1
sVobedience
p2499
F1
sVfoutre
p2500
F2
sVan't
p2501
F4
sVwonderful
p2502
F1
sVhundred
p2503
F4
sVwart.
p2504
F3
sVwart,
p2505
F3
sVwart!
p2506
F1
sVwart?
p2507
F1
sVwart;
p2508
F2
sVpercy,
p2509
F1
sVcowards;
p2510
F1
sVpercy.
p2511
F3
sVredress;
p2512
F1
sVgrew
p2513
F1
sVkindly
p2514
F1
sVlament
p2515
F1
sVgrey
p2516
F1
sVtoward
p2517
F3
sVcanst.
p2518
F2
sVwithered
p2519
F2
sVtoward!
p2520
F1
sVsubstantial
p2521
F1
sVlie
p2522
F8
sVperformance?
p2523
F1
sVofficers
p2524
F2
sVlabour
p2525
F1
sVphysic;
p2526
F1
sVtowards
p2527
F1
sVdiet,
p2528
F1
sVpresently:
p2529
F1
sVpresently;
p2530
F1
sVyorkshire.
p2531
F1
sVhiren
p2532
F2
sVgracious,
p2533
F1
sVmajesty.
p2534
F3
sVclear
p2535
F1
sVclean
p2536
F2
sVlordship
p2537
F9
sVplenteously:
p2538
F1
sVsurrey
p2539
F1
sVpotable;
p2540
F1
sVfeel,
p2541
F1
sVforgetive,
p2542
F1
sVenemy.
p2543
F1
sVheavens
p2544
F1
sVmessenger.]
p2545
F1
sVplough-irons.
p2546
F1
sVjustice
p2547
F7
sVless
p2548
F6
sVpretty
p2549
F3
sVprophecy?
p2550
F1
sVheaven,
p2551
F5
sVheaven.
p2552
F1
sValbeit
p2553
F1
sVmisleaders,
p2554
F1
sVfamous
p2555
F2
sVheaven;
p2556
F1
sVbedew
p2557
F1
sVheaven?
p2558
F1
sVpotions,
p2559
F1
sVharry's
p2560
F2
sVgad's-hill:
p2561
F2
sVflight,
p2562
F1
sVsurfeiting
p2563
F1
sVclose
p2564
F2
sVcomfort
p2565
F3
sVyears;
p2566
F1
sVrevolution
p2567
F1
sVfamiliarity
p2568
F1
sVwon
p2569
F2
sVyears,
p2570
F2
sVwoe
p2571
F1
sVdurst
p2572
F1
sVpins'
p2573
F1
sVconditions
p2574
F3
sVursula,
p2575
F1
sVvarlet,
p2576
F3
sVvarlet.
p2577
F1
sVteacheth,
p2578
F1
sVfrench
p2579
F2
sVsorted:
p2580
F1
sVboth
p2581
F17
sVcondition,
p2582
F1
sVcounty,
p2583
F1
sVgaunt
p2584
F3
sVanon
p2585
F1
sVmaidenly
p2586
F1
sVforgotten
p2587
F1
sVvault
p2588
F1
sVusest
p2589
F1
sVliked
p2590
F1
sVlive!
p2591
F1
sVbourdeaux
p2592
F1
sVlive,
p2593
F2
sVmanners
p2594
F1
sVvessel
p2595
F2
sVsinging-man
p2596
F1
sVdamn
p2597
F1
sV[enter
p2598
F47
sVempty
p2599
F2
sVdame
p2600
F1
sVfuries'
p2601
F1
sVhere;
p2602
F1
sVlived
p2603
F1
sVsteel,
p2604
F2
sVboy
p2605
F6
sVwet
p2606
F2
sVuses;
p2607
F1
sVelse
p2608
F4
sVlives
p2609
F7
sVliver
p2610
F1
sVdelight,
p2611
F1
sVutmost
p2612
F1
sVlook
p2613
F21
sVexcursions.
p2614
F1
sVtwenty
p2615
F7
sVwhile
p2616
F1
sVaccursed!
p2617
F1
sVidleness!
p2618
F1
sVcostly
p2619
F1
sVuse!
p2620
F1
sVuse.
p2621
F1
sVdim.
p2622
F1
sVherein
p2623
F1
sVconfound
p2624
F1
sVmalt-worms.
p2625
F1
sVready
p2626
F4
sVcheese-paring:
p2627
F1
sVuse:
p2628
F1
sVgrant
p2629
F6
sVbelong
p2630
F1
sVordinary.
p2631
F1
sVrags,
p2632
F1
sVleavest
p2633
F1
sVincensed,
p2634
F1
sVused
p2635
F1
sVphysic.
p2636
F1
sVread,
p2637
F1
sVspiritless,
p2638
F1
sVuses
p2639
F1
sVbearer
p2640
F1
sVdefensible:
p2641
F1
sVmorsel
p2642
F1
sVlimbs,
p2643
F1
sVwounding
p2644
F1
sVest:"
p2645
F1
sVetceteras
p2646
F1
sVpond.
p2647
F1
sVmarch
p2648
F2
sVcapacities
p2649
F1
sVtiring
p2650
F1
sVruff
p2651
F2
sVbeggary,
p2652
F1
sVwings
p2653
F2
sVpetticoat?
p2654
F1
sVwithal
p2655
F1
sVmanifest
p2656
F1
sVthroat,
p2657
F2
sVkings.
p2658
F1
sVworship's
p2659
F1
sVnell.
p2660
F1
sVlast,
p2661
F1
sVfathers
p2662
F2
sVsome
p2663
F34
sVlake,
p2664
F1
sVperkes
p2665
F1
sVbesides,
p2666
F1
sVengland.
p2667
F3
sVdelivered
p2668
F3
sVa-day,
p2669
F1
sVamongst
p2670
F1
sVexceeding
p2671
F5
sVover-cool
p2672
F1
sVsweating
p2673
F1
sVfather;
p2674
F2
sVrun
p2675
F2
sVfather?
p2676
F1
sVstep
p2677
F1
sVfather,
p2678
F12
sVfather.
p2679
F1
sVfather!
p2680
F3
sVache
p2681
F1
sVabroad
p2682
F2
sVsaddle;
p2683
F1
sVwarwick.]
p2684
F3
sVon't,
p2685
F1
sVchaps,
p2686
F1
sVblock
p2687
F1
sVseeing
p2688
F1
sVeaten
p2689
F3
sVwithin
p2690
F9
sVnothing
p2691
F14
sVdamned,
p2692
F1
sVhimself
p2693
F8
sVbarren;
p2694
F1
sVthief
p2695
F1
sVroll?
p2696
F3
sVrenown,
p2697
F1
sVauthority
p2698
F1
sVdull
p2699
F5
sVhair
p2700
F4
sVstumbling
p2701
F1
sVcurb'd
p2702
F1
sVmonarch's
p2703
F1
sVwicked
p2704
F1
sVfrance:
p2705
F2
sVproper
p2706
F5
sVcarmen
p2707
F1
sVsurmise
p2708
F1
sVthemselves:
p2709
F2
sVsullen
p2710
F1
sVnight!
p2711
F1
sVheat.
p2712
F1
sVfears
p2713
F3
sVfalstaffs
p2714
F1
sVthemselves.
p2715
F2
sVthemselves,
p2716
F1
sVexcellent,
p2717
F1
sVdraw
p2718
F8
sVprincely
p2719
F4
sVdoes,
p2720
F1
sVwilliam
p2721
F7
sVsudden,
p2722
F1
sVkirtle
p2723
F1
sVdram
p2724
F1
sVfalstaff!
p2725
F1
sVfear;
p2726
F1
sVfear:
p2727
F2
sVfalstaff.
p2728
F188
sVfalstaff,
p2729
F14
sVresistance.
p2730
F1
sVfear.
p2731
F1
sVfear,
p2732
F1
sVsecurity!
p2733
F1
sVfalstaff:
p2734
F2
sVfalstaff?
p2735
F1
sVmediation,
p2736
F1
sVgooseberry.
p2737
F1
sVcheerful
p2738
F1
sVsixpence
p2739
F2
sVgo
p2740
F36
sVsamingo.
p2741
F1
sVrebuke,
p2742
F1
sVcomfort,
p2743
F1
sVcatastrophe.
p2744
F1
sVdoes
p2745
F2
sVfriendly
p2746
F1
sVvirtuous
p2747
F3
sVpeesel,
p2748
F1
sVmore:
p2749
F1
sVmore;
p2750
F2
sVtelling
p2751
F2
sVmore.
p2752
F3
sVvalorous
p2753
F2
sVbarbary
p2754
F1
sVbardolph
p2755
F7
sVsuit.
p2756
F1
sVtirrits
p2757
F1
sVteeth,
p2758
F1
sVenforce
p2759
F2
sVcomforts
p2760
F1
sVthence,
p2761
F1
sVboots
p2762
F1
sVdecrees
p2763
F1
sVidly!
p2764
F1
sVwestmoreland.]
p2765
F8
sVmischiefs
p2766
F1
sVplays
p2767
F2
sVrotten
p2768
F3
sVboot,
p2769
F3
sVmedicine:
p2770
F1
sValthaea's
p2771
F1
sVremembered,
p2772
F1
sVconvert
p2773
F1
sVplay.
p2774
F1
sVplay,
p2775
F2
sVnearest
p2776
F2
sVwin
p2777
F1
sVmanage
p2778
F2
sVclout
p2779
F1
sVwit
p2780
F5
sVfennel,
p2781
F1
sVbecome!
p2782
F1
sVsinging
p2783
F1
sVcloud
p2784
F1
sVfollowing.]
p2785
F1
sVservant.
p2786
F7
sVhydra
p2787
F1
sVdrop:
p2788
F2
sVpoins.]
p2789
F1
sVbecomes
p2790
F3
sVstafford
p2791
F1
sVcrosses
p2792
F1
sVride
p2793
F4
sVforc'd
p2794
F1
sVcheek?
p2795
F1
sVcheek;
p2796
F1
sVmeet
p2797
F10
sVdrops
p2798
F2
sVfar.
p2799
F1
sVsought
p2800
F1
sVchops:
p2801
F1
sVpray,
p2802
F2
sVpray.
p2803
F1
sVfarewell.
p2804
F2
sV"some
p2805
F1
sVspeech,
p2806
F3
sVpray?
p2807
F1
sVspeech.
p2808
F2
sVfare
p2809
F7
sVbillows
p2810
F1
sVsaith,
p2811
F1
sVcourage;
p2812
F1
sVratsbane
p2813
F1
sVintents,
p2814
F1
sVfattest
p2815
F1
sVhand,
p2816
F10
sVhand.
p2817
F2
sVspero
p2818
F1
sVsound.]
p2819
F1
sVhand?
p2820
F1
sVhand:
p2821
F6
sVhand;
p2822
F1
sVbrood
p2823
F1
sVmaster;
p2824
F1
sVmaster:
p2825
F1
sVmaster?
p2826
F1
sVjealousies,
p2827
F1
sVdiscord:
p2828
F1
sVmaster,
p2829
F3
sVmaster.
p2830
F2
sVgloucestershire:
p2831
F1
sVpure
p2832
F2
sVbravely,--
p2833
F1
sVbless'd
p2834
F1
sVrememb'red
p2835
F1
sVgloucestershire.
p2836
F3
sVhands
p2837
F3
sVoffence:
p2838
F1
sVoffence;
p2839
F1
sVmarshal's
p2840
F1
sVproface!
p2841
F1
sVbeshrew
p2842
F2
sVcommonwealth
p2843
F1
sVprinces,
p2844
F3
sVmare.
p2845
F1
sVmare,
p2846
F1
sVglobe
p2847
F1
sValteration
p2848
F1
sVtrumpet-clangor
p2849
F1
sVprinces;
p2850
F1
sVwinter's
p2851
F1
sVmeasure
p2852
F3
sVwine,
p2853
F4
sVwine.
p2854
F1
sVgallant
p2855
F1
sVtime:
p2856
F1
sVtime;
p2857
F2
sVconfess
p2858
F1
sVtime,
p2859
F4
sVwondrous
p2860
F1
sVcause
p2861
F8
sVpursuit?
p2862
F1
sVundo
p2863
F1
sVill.
p2864
F3
sVill,
p2865
F2
sVwherein,
p2866
F1
sVlevy;
p2867
F1
sVkeep
p2868
F12
sVlord!
p2869
F4
sVlances
p2870
F1
sVclamour
p2871
F1
sVprecisely
p2872
F1
sVquality
p2873
F1
sVspur,
p2874
F1
sVbe,
p2875
F4
sVbears
p2876
F2
sVfilthy
p2877
F2
sVbe!
p2878
F1
sVbe:
p2879
F2
sVattach
p2880
F1
sVbe?
p2881
F2
sVfairest
p2882
F1
sVbeard
p2883
F2
sVsmiled?
p2884
F1
sVpunish
p2885
F1
sVplace,
p2886
F8
sVpurposes
p2887
F3
sVbear;
p2888
F2
sVbear:
p2889
F1
sVspurn
p2890
F1
sVgirdle
p2891
F1
sVchurlish
p2892
F1
sVbeg
p2893
F3
sVbed
p2894
F1
sVbee
p2895
F1
sVburnt;
p2896
F1
sVbear,
p2897
F1
sVenforced
p2898
F1
sVvillains
p2899
F1
sVexpire,
p2900
F1
sVneed
p2901
F7
sVneither:
p2902
F1
sVsings
p2903
F1
sVbastard
p2904
F1
sVkeech,
p2905
F1
sVfashion'd
p2906
F1
sVbattles
p2907
F1
sVinstance
p2908
F1
sVunseconded
p2909
F1
sVvisor
p2910
F2
sVscalds
p2911
F1
sVdisgorge
p2912
F1
sVrigol
p2913
F1
sVdining-chambers.
p2914
F1
sVvillain!
p2915
F2
sVtall
p2916
F2
sVvillain.
p2917
F1
sVawe
p2918
F1
sVvillain,
p2919
F1
sVsing,
p2920
F1
sVmarvel,
p2921
F1
sVwilful
p2922
F1
sVhalting
p2923
F1
sVsoldiers
p2924
F2
sVsheriff
p2925
F1
sVearned
p2926
F1
sVdiscoverers
p2927
F1
sVbrighten
p2928
F1
sVrash
p2929
F1
sVhector
p2930
F1
sVinfernal
p2931
F1
sVsoldier.
p2932
F1
sVdrawers,
p2933
F1
sVjoint
p2934
F3
sVyears
p2935
F5
sVbase!
p2936
F2
sVimperious
p2937
F2
sVbase,
p2938
F1
sVhad:
p2939
F1
sVshe
p2940
F24
sVdangerous
p2941
F3
sVtunes
p2942
F1
sVwidow
p2943
F2
sVprayers
p2944
F2
sVbucket.
p2945
F1
sVhumane
p2946
F1
sVmind;
p2947
F1
sVmind:
p2948
F1
sVjoys
p2949
F1
sVinterpretation:
p2950
F1
sVmind,
p2951
F1
sVstate
p2952
F5
sVmind.
p2953
F2
sVneither
p2954
F4
sVbestow'd
p2955
F1
sVhit.
p2956
F1
sVken
p2957
F1
sVwelkin
p2958
F1
sVpowers,
p2959
F1
sVradish,
p2960
F1
sVpowers;
p2961
F1
sVpowers:
p2962
F1
sVpart-created
p2963
F1
sVmerry
p2964
F10
sVled?"
p2965
F1
sVprecious
p2966
F1
sVdays.
p2967
F1
sVminds
p2968
F2
sVadmit
p2969
F2
sVjoy,
p2970
F3
sVtogether?
p2971
F1
sVspread,
p2972
F2
sVtuesday
p2973
F1
sVshoulder?
p2974
F1
sVoverturn'd!
p2975
F1
sVtogether.
p2976
F1
sVtogether,
p2977
F4
sVsense,
p2978
F2
sVshoulder.
p2979
F1
sVquit
p2980
F2
sVtread
p2981
F1
sVwills
p2982
F1
sVcribs,
p2983
F1
sV[shouts
p2984
F1
sVown?
p2985
F1
sVripe?
p2986
F1
sVdrudgery:
p2987
F1
sVsenses
p2988
F1
sVking.
p2989
F45
sVking,
p2990
F13
sVking!
p2991
F1
sVking;
p2992
F2
sVking?
p2993
F4
sVfifth's
p2994
F1
sVwill;
p2995
F2
sVarms,
p2996
F3
sVlearn'd
p2997
F1
sVwill,
p2998
F7
sVencircled
p2999
F1
sVwill.
p3000
F1
sVwill!
p3001
F1
sVparts
p3002
F1
sVspeaker
p3003
F2
sVkingly
p3004
F1
sVnotwithstanding,
p3005
F1
sVtoys?
p3006
F1
sVrightfully
p3007
F1
sVeffect
p3008
F4
sVto-night
p3009
F2
sVprophesied
p3010
F1
sVscarcely
p3011
F1
sVi
F583
sVpart,
p3012
F6
sVpart.
p3013
F1
sVpart:
p3014
F1
sVpenny,
p3015
F1
sVbottom.
p3016
F1
sVfat,
p3017
F1
sVknaves,
p3018
F1
sVtenderness,
p3019
F1
sVpenny;
p3020
F1
sVskill
p3021
F1
sVdost
p3022
F11
sVcounties,
p3023
F1
sVpayment,
p3024
F1
sVreasons
p3025
F1
sVcounsellors,
p3026
F2
sVwarrant
p3027
F8
sVkinswoman
p3028
F1
sVassyrian
p3029
F1
sVample
p3030
F1
sVburden
p3031
F1
sVloss
p3032
F2
sVnecessary
p3033
F1
sVlost
p3034
F3
sVkill'd
p3035
F1
sVdouglas:"
p3036
F1
sVaptest
p3037
F1
sVsmooth's
p3038
F1
sVlose
p3039
F1
sVpage
p3040
F2
sVnorfolk's
p3041
F1
sVuprear'd
p3042
F1
sVredress
p3043
F2
sVdeliverance
p3044
F1
sVhome
p3045
F4
sVliking
p3046
F1
sVpeter
p3047
F1
sVbefore,
p3048
F3
sVbefore.
p3049
F1
sVagain,
p3050
F4
sVcradle
p3051
F1
sVsits,
p3052
F1
sVmadam?
p3053
F1
sVbefore;
p3054
F1
sVindeed!
p3055
F1
sVboar's-head
p3056
F1
sVbear-herd;
p3057
F1
sVproof;
p3058
F1
sVinstinct
p3059
F1
sVchoked
p3060
F1
sVtempering
p3061
F1
sVagain:
p3062
F2
sV"where
p3063
F1
sVin.
p3064
F2
sVtongue
p3065
F10
sVpersuaded
p3066
F1
sVtimes?
p3067
F1
sVcourt,
p3068
F5
sVcourt.
p3069
F1
sVtimes,
p3070
F2
sVfoeman
p3071
F1
sVcourt?
p3072
F1
sVcourt;
p3073
F1
sVcourt:
p3074
F1
sVrejoice
p3075
F1
sVgormandizing;
p3076
F1
sVweeps
p3077
F1
sVimperial
p3078
F1
sVwages,
p3079
F1
sVpigeons,
p3080
F1
sVpistol;
p3081
F4
sVpistol?
p3082
F1
sVpigeons?
p3083
F1
sVpistol!
p3084
F2
sVgain
p3085
F4
sVear
p3086
F4
sVpistol,
p3087
F7
sVeat
p3088
F7
sVpistol.
p3089
F34
sVhe
p3090
F174
sVnotice.
p3091
F1
sVweep?
p3092
F1
sVleathern
p3093
F1
sVgrieve
p3094
F1
sVgird
p3095
F1
sV"occupy;"
p3096
F1
sVcarriage
p3097
F1
sVpippin
p3098
F1
sVpiece
p3099
F1
sVfriend.
p3100
F1
sVfriend,
p3101
F3
sVtruer-hearted
p3102
F1
sVdevise
p3103
F2
sVpenny
p3104
F1
sVbeats
p3105
F1
sVfriend;
p3106
F1
sVfriend:
p3107
F2
sVfencing
p3108
F1
sVsea-boy
p3109
F1
sVoffensive
p3110
F1
sVwestminster
p3111
F1
sVdolphin-chamber,
p3112
F1
sVyours.
p3113
F1
sVyours,
p3114
F3
sVpike,
p3115
F1
sVstay
p3116
F8
sVfoin
p3117
F1
sVmethinks
p3118
F1
sVstab
p3119
F1
sVyours;
p3120
F2
sVsurfeited:
p3121
F1
sVfriends
p3122
F5
sVlambkin
p3123
F1
sVbeastly:
p3124
F1
sV"the
p3125
F3
sVale-wife's
p3126
F1
sVpardon
p3127
F2
sVbetter,
p3128
F1
sVbetter.
p3129
F1
sVcaptain
p3130
F2
sVbetter:
p3131
F1
sVup.
p3132
F5
sVwhose
p3133
F19
sVup,
p3134
F9
sVcaptain,--
p3135
F1
sVpardon,
p3136
F1
sVsweetest
p3137
F2
sVgrace!
p3138
F2
sVcommon.
p3139
F1
sVgrace?
p3140
F2
sVswoon?
p3141
F1
sVgrace:
p3142
F2
sVgrace;
p3143
F2
sVsorry
p3144
F1
sVpardon;
p3145
F1
sVaffairs;
p3146
F1
sVrescue
p3147
F1
sVotherwise.
p3148
F1
sVhadst
p3149
F2
sVstraw.
p3150
F1
sVsmack
p3151
F1
sVotherwise;
p3152
F1
sVaffairs.
p3153
F1
sVaffairs,
p3154
F1
sVgovern
p3155
F1
sVo'er-read
p3156
F1
sVaffairs!
p3157
F1
sVcourageous
p3158
F1
sVgraced
p3159
F1
sVcommons
p3160
F1
sVattendants;
p3161
F1
sVme!
p3162
F4
sVme,
p3163
F35
sVme.
p3164
F24
sVlikely
p3165
F4
sVme?
p3166
F7
sVme;
p3167
F14
sVme:
p3168
F11
sVeven
p3169
F15
sVne'er
p3170
F5
sVgold.
p3171
F1
sVassembled
p3172
F1
sVrest.
p3173
F1
sVusurpation.
p3174
F1
sVgold;
p3175
F1
sVnew
p3176
F8
sVever
p3177
F12
sVcourses,
p3178
F1
sVmen
p3179
F22
sVdrew
p3180
F2
sVmet
p3181
F3
sV[shouts,
p3182
F1
sVactive
p3183
F1
sVdry
p3184
F2
sVapprehended,
p3185
F1
sVsnare?
p3186
F1
sVlight,
p3187
F3
sVprison;
p3188
F1
sVbuckles
p3189
F1
sVcredit
p3190
F1
sVsnare.
p3191
F3
sVsnare,
p3192
F4
sVlight;
p3193
F1
sVwar?
p3194
F1
sVwar;
p3195
F1
sVremember'd
p3196
F1
sVwar,
p3197
F5
sVguests
p3198
F1
sVarmy
p3199
F6
sVstories;
p3200
F1
sVarms
p3201
F2
sVcall
p3202
F17
sVhastings.]
p3203
F2
sVright,
p3204
F3
sVright.
p3205
F2
sVtell
p3206
F26
sVlungs
p3207
F2
sVwart
p3208
F1
sVprivy-kitchen,
p3209
F1
sVwars
p3210
F3
sVis't
p3211
F2
sVweighing:
p3212
F1
sVroom
p3213
F1
sVmajesty,
p3214
F4
sVmajesty!
p3215
F4
sVleak,
p3216
F1
sVmajesty;
p3217
F1
sVhoney-suckle
p3218
F1
sVarm,
p3219
F1
sVmajesty?
p3220
F1
sVspaniard.
p3221
F1
sVroot
p3222
F1
sVexercises;
p3223
F1
sVgive
p3224
F44
sVperils,
p3225
F1
sVfairer
p3226
F1
sVanswer
p3227
F4
sVconstrue
p3228
F1
sVlaugh;
p3229
F1
sVcrowding
p3230
F1
sVsea-coal
p3231
F1
sVfood;
p3232
F1
sVcold?
p3233
F1
sVstill?
p3234
F1
sVcold;
p3235
F1
sVimpatient
p3236
F2
sVthird
p3237
F2
sVstill,
p3238
F1
sVcold.
p3239
F1
sVstill.
p3240
F1
sVcold,
p3241
F1
sVwell-labouring
p3242
F1
sVeast,
p3243
F1
sVtilt-yard;
p3244
F1
sVhat,
p3245
F1
sVdown:
p3246
F2
sVfortify
p3247
F1
sVdown,
p3248
F12
sVdown.
p3249
F1
sVdown!
p3250
F1
sVdivisions,
p3251
F1
sVbefore
p3252
F28
sVpersonae
p3253
F1
sVthen.
p3254
F1
sVmount.
p3255
F2
sVthen,
p3256
F21
sVpersonal
p3257
F1
sVbetter
p3258
F29
sVthen;
p3259
F1
sV[within.]
p3260
F3
sVthen?
p3261
F1
sVovercome
p3262
F1
sVdowny
p3263
F1
sVdestiny,
p3264
F1
sVmadly
p3265
F1
sVwithin,
p3266
F1
sVsurfeit-swell'd,
p3267
F1
sVcostermonger
p3268
F1
sVweek,
p3269
F1
sVdenied?
p3270
F1
sVarrested
p3271
F1
sVmandrake:
p3272
F1
sVroast
p3273
F1
sVcourt"--empty
p3274
F1
sVmandrake,
p3275
F1
sVwent
p3276
F1
sVside
p3277
F1
sVmean
p3278
F4
sVnave
p3279
F1
sVweightless
p3280
F1
sVtaught
p3281
F2
sVforgot
p3282
F2
sVnavy
p3283
F1
sVaids
p3284
F1
sVseats,
p3285
F1
sVis;
p3286
F2
sVsatin,
p3287
F1
sVundeserver
p3288
F1
sVis?
p3289
F1
sVis.
p3290
F1
sVis,
p3291
F14
sVstirrer,
p3292
F1
sVoblivion,
p3293
F1
sVturning
p3294
F3
sVrevenge
p3295
F2
sVgalen:
p3296
F1
sVbestow
p3297
F1
sVmistress
p3298
F13
sVlineal
p3299
F1
sVrebels,
p3300
F2
sVknocks?
p3301
F1
sVrebels'
p3302
F1
sVloud
p3303
F5
sVconjecture,
p3304
F1
sVtallow:
p3305
F1
sVenraged
p3306
F3
sVprescriptions,
p3307
F1
sVhoop
p3308
F1
sVhook
p3309
F3
sVbottle-ale
p3310
F1
sVknight,
p3311
F6
sVknight!
p3312
F1
sVknight:
p3313
F1
sVknight?
p3314
F1
sVconstrain'd,
p3315
F1
sVshoulders!
p3316
F1
sVtokens
p3317
F1
sVexecution.
p3318
F2
sVhelen
p3319
F1
sVothers;
p3320
F1
sVdistance
p3321
F1
sVbody,
p3322
F1
sVbody.
p3323
F1
sVbitterness
p3324
F1
sVimputation
p3325
F1
sVmatter
p3326
F3
sVloiter
p3327
F1
sVcheek
p3328
F1
sV"let
p3329
F1
sVmind
p3330
F4
sVmine
p3331
F24
sVbreaking.
p3332
F1
sVseed
p3333
F1
sVseen
p3334
F4
sVseem
p3335
F5
sVseek
p3336
F2
sVtells
p3337
F2
sVunfasten
p3338
F1
sVwarwick;
p3339
F2
sVdo,
p3340
F10
sVwarwick?
p3341
F1
sVdesist
p3342
F1
sVbreathe.
p3343
F1
sVwarwick,
p3344
F5
sVwarwick.
p3345
F27
sVwarwick!
p3346
F2
sVpoint:
p3347
F1
sVtell.
p3348
F2
sVsee;
p3349
F1
sVexpedition!
p3350
F1
sVsee.
p3351
F2
sVsee,
p3352
F7
sVhood,
p3353
F1
sVstrong:
p3354
F1
sVobserved,
p3355
F1
sVobserved.
p3356
F1
sVdunghill
p3357
F1
sVpoints
p3358
F2
sVprinciple
p3359
F1
sVbreathed
p3360
F1
sVobserved:
p3361
F1
sVstrong,
p3362
F2
sVstrong.
p3363
F1
sVtailor:
p3364
F1
sVhunger
p3365
F1
sVpins:
p3366
F1
sVending
p3367
F2
sVpins!
p3368
F1
sVattempts
p3369
F1
sVtailor,
p3370
F3
sVlearn'd;
p3371
F1
sVtailor!
p3372
F1
sVfield:
p3373
F1
sVacquit
p3374
F1
sVfield?
p3375
F2
sVtraverse;
p3376
F1
sVbook-oath:
p3377
F1
sVthrust.
p3378
F1
sVfield.
p3379
F2
sVhoard
p3380
F1
sVleave,
p3381
F4
sVwearing
p3382
F2
sV[she
p3383
F1
sVstop
p3384
F6
sVperceive
p3385
F3
sVpallets
p3386
F1
sVattempt:
p3387
F1
sVearl
p3388
F10
sVearn
p3389
F1
sVbar
p3390
F1
sVcloy'd
p3391
F1
sVfolk,
p3392
F1
sVfields
p3393
F1
sVbad
p3394
F3
sVtroop
p3395
F1
sVdebt.
p3396
F1
sVdefiance.
p3397
F1
sVears
p3398
F2
sVjohns,
p3399
F1
sVbrothers,
p3400
F3
sVwestmoreland.
p3401
F28
sVpistol-proof,
p3402
F1
sVwestmoreland,
p3403
F7
sVbrothers:
p3404
F1
sVdumbe,
p3405
F1
sVwestmoreland?
p3406
F1
sVwestmoreland;
p3407
F3
sVsubject
p3408
F4
sVlancaster
p3409
F3
sVsaid
p3410
F12
sVstairs,
p3411
F1
sVstairs.
p3412
F2
sVstairs!
p3413
F1
sVsail
p3414
F1
sVstairs:
p3415
F1
sVsorts
p3416
F1
sVwears
p3417
F3
sVstaves
p3418
F2
sVweary
p3419
F4
sVcousin
p3420
F13
sVpicking
p3421
F1
sVsort!
p3422
F1
sVagainst
p3423
F19
sVapoplexy.
p3424
F1
sVsort;
p3425
F1
sVflow'd,
p3426
F1
sVqueen.
p3427
F1
sVincessant
p3428
F1
sVcaesar's
p3429
F1
sVboys,
p3430
F2
sVnow,
p3431
F22
sVnow.
p3432
F3
sVmurder,
p3433
F3
sVputs
p3434
F1
sVmurder!
p3435
F1
sVthree
p3436
F6
sVtiny
p3437
F2
sVparticulars
p3438
F1
sVpuissance
p3439
F2
sVcommission
p3440
F1
sVnow?
p3441
F3
sVvillany
p3442
F1
sVnow:
p3443
F4
sVentered
p3444
F3
sVthrew
p3445
F2
sVcoming?
p3446
F1
sVsunshine
p3447
F1
sVworkings.
p3448
F1
sVspent.
p3449
F1
sVugly
p3450
F1
sVnear
p3451
F9
sVsuppose
p3452
F1
sVbalance
p3453
F2
sVstudy
p3454
F1
sVover.
p3455
F1
sVseven
p3456
F2
sVover,
p3457
F1
sVmeet;
p3458
F1
sVis
p3459
F263
sVit
p3460
F188
sVshame
p3461
F5
sVthought?
p3462
F1
sVthought;
p3463
F1
sVthought:
p3464
F1
sVif
p3465
F85
sVlords.
p3466
F1
sVlords,
p3467
F4
sVparish
p3468
F1
sVmake
p3469
F48
sVlords:
p3470
F2
sVlords;
p3471
F1
sVbelly
p3472
F3
sVgrows
p3473
F2
sVbells
p3474
F1
sVi;
p3475
F2
sVi:
p3476
F1
sVi?
p3477
F2
sVwarder
p3478
F1
sVi,
p3479
F10
sVi.
p3480
F8
sVbrooches,
p3481
F1
sVhe'll
p3482
F5
sVthoughts
p3483
F3
sVbell,
p3484
F2
sVgrow,
p3485
F1
sVinherit
p3486
F2
sVbottle,
p3487
F1
sVyours
p3488
F3
sVleft
p3489
F8
sVdream,
p3490
F2
sVdream.
p3491
F2
sVjust
p3492
F7
sVneighing
p3493
F1
sVyea
p3494
F2
sVyet
p3495
F28
sVleaders,
p3496
F1
sVroyal
p3497
F11
sVjustices
p3498
F1
sVsave
p3499
F7
sVflesh'd
p3500
F1
sVago.
p3501
F1
sVye,
p3502
F2
sVdiscreet
p3503
F1
sVrebellion,
p3504
F2
sVdreamt
p3505
F1
sVvanity
p3506
F1
sVshoulder
p3507
F1
sVdignity
p3508
F2
sVpatience
p3509
F2
sVjustice,
p3510
F2
sVjustice.
p3511
F57
sVjoined-stools,
p3512
F1
sVtah,"
p3513
F1
sVsatisfaction,
p3514
F1
sVcowardice
p3515
F1
sVdead
p3516
F8
sVrevel
p3517
F1
sVdear
p3518
F4
sVhelter-skelter
p3519
F1
sVbold,
p3520
F2
sVinvested,
p3521
F1
sVshakespeare
p3522
F2
sVthinkest
p3523
F1
sVmerchant's
p3524
F1
sVbold
p3525
F6
sVoffenders,
p3526
F1
sVconceal
p3527
F1
sVhaply
p3528
F1
sVcommit
p3529
F5
sVmarshal
p3530
F1
sVflow'd
p3531
F1
sVlief
p3532
F2
sVfor.
p3533
F1
sVlied
p3534
F1
sVfor,
p3535
F4
sVfor"
p3536
F1
sVlow,
p3537
F1
sVgarment,
p3538
F1
sVdown
p3539
F23
sVlies
p3540
F4
sVworst.
p3541
F1
sVlow;
p3542
F1
sVplot,
p3543
F1
sVmidnight,
p3544
F1
sVbuild,
p3545
F1
sVstopp'd
p3546
F1
sVform
p3547
F5
sVwhat?
p3548
F1
sVwhat;
p3549
F1
sVlie,
p3550
F1
sVwart's
p3551
F1
sVwhat!
p3552
F9
sVwhat.
p3553
F1
sVwhat,
p3554
F8
sVjustices.]
p3555
F3
sVtemper
p3556
F2
sVextremes:
p3557
F1
sVcovert
p3558
F1
sVlingers
p3559
F2
sVdie.
p3560
F5
sVdie,
p3561
F2
sVawhile
p3562
F1
sVdie!
p3563
F1
sVgenerally
p3564
F1
sVtardy
p3565
F1
sVgarland
p3566
F1
sVdies
p3567
F2
sVextremest
p3568
F1
sVdiet
p3569
F1
sVcover,
p3570
F1
sVfell
p3571
F3
sVoff?
p3572
F1
sVnot,
p3573
F9
sVdied
p3574
F1
sVoff!
p3575
F1
sVshallowly
p3576
F1
sVcowardice;
p3577
F1
sVdaily
p3578
F1
sVfirmness,
p3579
F1
sValmanac
p3580
F1
sVteeth
p3581
F1
sVmountains.
p3582
F1
sVparcels
p3583
F1
sVrestored
p3584
F3
sVgovernment.
p3585
F1
sVbow'd
p3586
F1
sVperuse
p3587
F1
sVeldest
p3588
F1
sVinvent
p3589
F2
sVmile
p3590
F3
sVfancies
p3591
F1
sVfather
p3592
F17
sVtravel,
p3593
F1
sVerection;
p3594
F1
sVme
p3595
F166
sVsoul;
p3596
F2
sVanon.
p3597
F2
sVanon,
p3598
F2
sVforth?
p3599
F1
sVadvised
p3600
F2
sVanon;
p3601
F2
sVdid
p3602
F45
sVdie
p3603
F7
sVdig
p3604
F1
sVharcourt.
p3605
F2
sVpraise,
p3606
F1
sVgentlewoman
p3607
F1
sVround
p3608
F2
sVundoes
p3609
F1
sVelse,
p3610
F3
sVsawed
p3611
F1
sVwherefore
p3612
F7
sVstamford
p3613
F1
sVeating
p3614
F1
sVcoldspur?
p3615
F1
sVthinks:
p3616
F1
sVtewksbury
p3617
F1
sVintelligencer
p3618
F1
sVbarony:
p3619
F1
sVcovetousness
p3620
F1
sVturn'd
p3621
F4
sVengrossments
p3622
F1
sVbosoms,
p3623
F1
sVloathly
p3624
F1
sVconsigning
p3625
F1
sVwait
p3626
F4
sVbox
p3627
F1
sVhere:
p3628
F4
sVhere?
p3629
F6
sVshift
p3630
F2
sVbruises
p3631
F1
sVhere.
p3632
F9
sVhere,
p3633
F20
sVserved;
p3634
F1
sVhither
p3635
F3
sVrheumatic
p3636
F1
sVwomb,
p3637
F2
sVattended;
p3638
F1
sVhonester
p3639
F1
sVvisit
p3640
F2
sVways,
p3641
F1
sVswagger
p3642
F1
sVmarks,
p3643
F1
sVways?
p3644
F1
sVoutweighs
p3645
F1
sVquickly?
p3646
F1
sVrecreant
p3647
F1
sVolive
p3648
F1
sVquickly,
p3649
F1
sVquickly.
p3650
F1
sVfly
p3651
F3
sVay,
p3652
F1
sVay!
p3653
F1
sV"john
p3654
F1
sVgrowing
p3655
F1
sVmaking
p3656
F2
sVlords
p3657
F3
sVmock,
p3658
F1
sVtill
p3659
F18
sVhush'd
p3660
F1
sVsword
p3661
F9
sVsworn
p3662
F3
sV't?
p3663
F1
sVstaying
p3664
F1
sVmay
p3665
F45
sVlord;
p3666
F9
sVlord?
p3667
F4
sVdukedom.
p3668
F1
sVmad
p3669
F4
sVtroublesome.
p3670
F1
sVunfirm
p3671
F1
sVlord.
p3672
F12
sVgrow
p3673
F7
sVlord,
p3674
F52
sVman
p3675
F35
sVwaist
p3676
F1
sVengross'd
p3677
F1
sVborrowing
p3678
F1
sVbending.
p3679
F1
sVsilence
p3680
F2
sVbastardly
p3681
F1
sVtalk
p3682
F4
sVfronts
p3683
F1
sVmarking,
p3684
F1
sVargues
p3685
F1
sVshake
p3686
F1
sVthank
p3687
F7
sVking."
p3688
F1
sVyorkshire
p3689
F1
sVarrow,
p3690
F1
sVgood-limbed
p3691
F1
sVmain
p3692
F1
sVsooner
p3693
F1
sVkilled
p3694
F2
sVarrows
p3695
F1
sVpeasant
p3696
F2
sVcareless
p3697
F1
sVrock
p3698
F2
sVhoney-seed
p3699
F1
sVforbid,
p3700
F1
sVwinnow'd
p3701
F1
sVtherefore.
p3702
F1
sVgot;
p3703
F1
sVor,
p3704
F3
sVherself:
p3705
F1
sVheaviness.
p3706
F1
sVliving
p3707
F3
sVyes,
p3708
F3
sVmouths
p3709
F1
sVassurance
p3710
F1
sVmonster
p3711
F1
sVcured,
p3712
F1
sVprofited?
p3713
F1
sVromans
p3714
F1
sVassemblance
p3715
F1
sVspied
p3716
F1
sVadvance
p3717
F1
sVlanguage
p3718
F1
sVthing
p3719
F14
sVthine
p3720
F9
sVsufferance
p3721
F1
sVthink
p3722
F24
sVfirst
p3723
F22
sVdwelling
p3724
F1
sVquestion
p3725
F5
sVeye;
p3726
F1
sVuntwine
p3727
F1
sV[re-enter
p3728
F15
sVeye?
p3729
F1
sVbut,
p3730
F14
sVcarry
p3731
F2
sVsounds
p3732
F1
sVdischarged
p3733
F2
sVlittle
p3734
F16
sVbona-roba.
p3735
F1
sVfiery
p3736
F2
sVspeaking
p3737
F1
sVeyes
p3738
F6
sVwhipping-cheer
p3739
F1
sVhere's
p3740
F3
sVroad-way
p3741
F1
sVwert
p3742
F5
sVventure
p3743
F4
sVwere
p3744
F36
sVcommends
p3745
F1
sV1.
p3746
F2
sVgathering
p3747
F1
sVmountains
p3748
F1
sVhearer
p3749
F1
sVdancer.
p3750
F1
sVdash
p3751
F1
sVspent!
p3752
F2
sVmerriment,
p3753
F1
sVo'er-posting
p3754
F1
sVpain
p3755
F2
sVporter.]
p3756
F1
sVscotland,
p3757
F1
sVdecreasing
p3758
F1
sVpaid
p3759
F1
sVvoice,
p3760
F2
sVpair
p3761
F2
sVscotland:
p3762
F2
sVbroadsides?
p3763
F1
sVbaboon!
p3764
F1
sValone;
p3765
F1
sValone:
p3766
F2
sVorder
p3767
F3
sVstockings
p3768
F1
sValone,
p3769
F1
sValone.
p3770
F1
sVprecise
p3771
F1
sVshot
p3772
F1
sVshow
p3773
F11
sVlucifer's
p3774
F1
sVjohn!
p3775
F5
sVstormy
p3776
F1
sVmile,
p3777
F1
sVbehind
p3778
F2
sVmile.
p3779
F1
sVdisplaced:
p3780
F1
sVblack
p3781
F3
sVincredulous
p3782
F1
sVbringer
p3783
F1
sVget
p3784
F12
sVhereford,
p3785
F1
sVconjunction
p3786
F1
sVbeseech
p3787
F13
sVyield
p3788
F3
sVsummary
p3789
F1
sVhonesty
p3790
F1
sVseas
p3791
F1
sVseat
p3792
F1
sVinfected,
p3793
F1
sVseal
p3794
F4
sVfaith?
p3795
F1
sV[exit.]
p3796
F7
sVfather's
p3797
F6
sVenough
p3798
F5
sVhonest;
p3799
F1
sVdoing,
p3800
F1
sVhonest,
p3801
F2
sVcountenance
p3802
F5
sVsea,
p3803
F2
sVgauntlet
p3804
F1
sVaccording
p3805
F1
sVgratis;
p3806
F1
sVamong
p3807
F7
sVstretches
p3808
F1
sVcrosses.
p3809
F1
sVslain
p3810
F2
sVsea!
p3811
F1
sVsensible
p3812
F1
sVarts
p3813
F1
sVcapable
p3814
F1
sVmark
p3815
F4
sVnew-healed
p3816
F1
sVdramatis
p3817
F1
sVgrant,
p3818
F1
sVwake
p3819
F2
sVthose
p3820
F14
sVsound
p3821
F7
sVbullocks
p3822
F1
sVslumber
p3823
F2
sVfeeder,
p3824
F1
sVemployment?
p3825
F1
sVcock
p3826
F1
sVyoung?
p3827
F1
sVsubdued,
p3828
F1
sVsincere
p3829
F1
sVsleeping
p3830
F3
sVdishonourable?
p3831
F1
sVstrain
p3832
F1
sVsudden
p3833
F2
sVpage.]
p3834
F10
sVwisely
p3835
F1
sVgower.
p3836
F6
sVgower,
p3837
F3
sVharsh
p3838
F1
sVdoctor
p3839
F1
sVpay
p3840
F6
sVsame
p3841
F11
sVgower?
p3842
F1
sVspeech
p3843
F3
sVancient.
p3844
F2
sVcompanion
p3845
F1
sVrunning
p3846
F2
sVbeen,
p3847
F1
sVconcurring,
p3848
F1
sVslanders
p3849
F1
sVlargely
p3850
F1
sVroughly
p3851
F1
sVking's?
p3852
F2
sVargument:
p3853
F1
sVgreyhound:
p3854
F1
sVgates
p3855
F1
sVnights,
p3856
F1
sVmoney
p3857
F4
sVsights
p3858
F1
sVasleep!
p3859
F1
sVasleep,
p3860
F2
sVsackcloth,
p3861
F1
sVneif:
p3862
F1
sVserve;
p3863
F1
sVpomfret
p3864
F1
sVboots:
p3865
F1
sVtook.
p3866
F1
sVserve,
p3867
F1
sVheavier
p3868
F1
sVwife,
p3869
F3
sVwife.
p3870
F2
sVrest.]
p3871
F2
sVbeadle.
p3872
F4
sVexpectation:
p3873
F2
sVaiming
p3874
F1
sVgate,
p3875
F1
sVacquainted
p3876
F3
sVserves
p3877
F2
sVchamber
p3878
F1
sVthighs
p3879
F1
sVserved
p3880
F2
sVdoll
p3881
F7
sVdrum,
p3882
F1
sVimprisonment
p3883
F1
sVdole
p3884
F1
sVlondon.
p3885
F9
sVgross
p3886
F2
sVbumper.]
p3887
F1
sVhalf-faced
p3888
F1
sVunluckily
p3889
F1
sVknife
p3890
F2
sVimage,
p3891
F1
sVbroken
p3892
F1
sVtutor'd,
p3893
F1
sVreports.
p3894
F1
sVroar
p3895
F2
sVout:
p3896
F1
sVout;
p3897
F2
sVdebuty,
p3898
F1
sVunderstanding;
p3899
F1
sVknave
p3900
F5
sVlancaster.]
p3901
F1
sVout,
p3902
F3
sVout.
p3903
F4
sVfertile
p3904
F1
sVpersistency:
p3905
F1
sVup."
p3906
F1
sVjerusalem
p3907
F2
sVdescension!
p3908
F1
sVdistracted
p3909
F1
sVsquele,
p3910
F1
sVamurath
p3911
F2
sVwild;
p3912
F1
sVinfinitely.
p3913
F1
sVland,
p3914
F5
sVland.
p3915
F1
sVsanctified.
p3916
F1
sVcurses.
p3917
F1
sVlion,
p3918
F1
sVfate,
p3919
F1
sVaffection
p3920
F2
sVdeep
p3921
F4
sVgeneral
p3922
F3
sVimagination
p3923
F1
sVrascals,
p3924
F1
sVfile
p3925
F1
sVdeed
p3926
F2
sVfill
p3927
F3
sVagain
p3928
F7
sVknave;
p3929
F1
sVsick:
p3930
F4
sVsick?
p3931
F1
sVdecrees;
p3932
F1
sVfield
p3933
F3
sVknave,
p3934
F4
sVcontento."
p3935
F1
sVsick.
p3936
F1
sVknave!
p3937
F1
sVsick,
p3938
F3
sVshelter
p3939
F1
sVpuissance,
p3940
F1
sVundergo,
p3941
F1
sVperadventure
p3942
F1
sVitself,
p3943
F2
sVitself.
p3944
F1
sVaccompanied?
p3945
F2
sVsounded
p3946
F1
sVstarting
p3947
F1
sVvinegar;
p3948
F1
sVneedful
p3949
F1
sVforget
p3950
F3
sVvile
p3951
F6
sVpuff!
p3952
F1
sVforged
p3953
F1
sVtalks
p3954
F1
sV"lusty
p3955
F1
sVsung
p3956
F1
sVnorth,
p3957
F1
sVlaid
p3958
F4
sV'twill
p3959
F1
sVmother,
p3960
F1
sVhideous
p3961
F1
sVnorth:
p3962
F1
sVtalk.
p3963
F1
sVsitting
p3964
F1
sVrascal,
p3965
F2
sVfall
p3966
F8
sVrascal!
p3967
F5
sVdifference
p3968
F1
sVknighthood
p3969
F3
sVwashing
p3970
F2
sVpercy.]
p3971
F1
sValong,
p3972
F1
sVmettle.
p3973
F1
sVquiet;
p3974
F2
sVabridge
p3975
F1
sVquiet.
p3976
F2
sVquiet,
p3977
F1
sVfurther
p3978
F2
sVship-boy's
p3979
F1
sVstood
p3980
F1
sVstoop
p3981
F2
sVshallow,--
p3982
F1
sVdoting
p3983
F1
sVcreature,
p3984
F1
sVaffection,--
p3985
F1
sVknife:
p3986
F1
sVfavourable
p3987
F1
sVbeacon
p3988
F1
sVown.
p3989
F1
sVwatch-case
p3990
F1
sVchipped
p3991
F1
sVstretching
p3992
F1
sVanointed
p3993
F1
sVfeign,
p3994
F1
sVgoblet,
p3995
F1
sVmerry;
p3996
F1
sVafrica
p3997
F1
sVmerry.
p3998
F3
sVmerry,
p3999
F6
sVemptier
p4000
F1
sVestablish
p4001
F1
sVlady,
p4002
F1
sVeye
p4003
F2
sVwiped
p4004
F1
sVmorton;
p4005
F1
sVtwo
p4006
F25
sVguard:
p4007
F1
sVmorton,
p4008
F2
sVhalt;
p4009
F1
sVmorton.
p4010
F6
sVroar'd
p4011
F1
sV"northumberland,
p4012
F1
sVbrisk
p4013
F1
sVstolen
p4014
F2
sVbung,
p4015
F1
sVparticular
p4016
F2
sVgravity.
p4017
F1
sVlisping
p4018
F1
sVtown
p4019
F3
sVnone
p4020
F6
sVhour
p4021
F6
sVnothing?
p4022
F1
sVabroad:
p4023
F1
sVnothing:
p4024
F1
sVguards
p4025
F1
sVbirth,
p4026
F2
sVden
p4027
F1
sVabroad!
p4028
F1
sVnothing,
p4029
F2
sVcompare
p4030
F1
sVbravely
p4031
F1
sVprick'd
p4032
F2
sVnumbers
p4033
F2
sVchastisement:
p4034
F1
sVfillip
p4035
F1
sVneeds
p4036
F4
sVacts
p4037
F2
sVeat,
p4038
F1
sVadvice
p4039
F1
sVblood
p4040
F9
sVcoming
p4041
F4
sVnumber;
p4042
F1
sVthou!
p4043
F1
sVact;
p4044
F1
sVpie-corner--saving
p4045
F1
sVeats
p4046
F1
sVpleasure
p4047
F1
sVthou:
p4048
F1
sVthou?
p4049
F5
sVneed.
p4050
F1
sVinfant
p4051
F1
sVbaffled?
p4052
F1
sVmore,
p4053
F5
sVthrough
p4054
F10
sVheirs
p4055
F2
sVsuffer
p4056
F1
sVpens
p4057
F1
sVbosom
p4058
F3
sVfamished
p4059
F1
sVlate
p4060
F3
sV2,
p4061
F1
sVcharity:
p4062
F1
sVgood
p4063
F138
sVthinking,
p4064
F1
sVmasters,
p4065
F1
sVcompound
p4066
F2
sVoxford
p4067
F1
sVcivil;
p4068
F1
sValban's
p4069
F1
sVdoll,
p4070
F3
sVdoll.
p4071
F36
sVpox!
p4072
F1
sVdoll!
p4073
F2
sVashes
p4074
F1
sVdoll?
p4075
F1
sValso.
p4076
F1
sVdoll:
p4077
F2
sVavoirdupois.
p4078
F1
sValso!
p4079
F1
sVports
p4080
F1
sVunpicked.
p4081
F1
sVbull?
p4082
F1
sVhark
p4083
F1
sVdeeds;
p4084
F1
sVdeeds:
p4085
F1
sVhouse
p4086
F2
sVfish
p4087
F1
sVhard
p4088
F3
sVbull.
p4089
F1
sVdrawer.]
p4090
F2
sVfist
p4091
F1
sVorient
p4092
F1
sVhal:
p4093
F1
sVflower
p4094
F1
sVrogue!
p4095
F5
sVrogue,
p4096
F4
sVcrowing
p4097
F1
sV"go
p4098
F1
sVacting
p4099
F1
sVtah,
p4100
F1
sVthey'll
p4101
F1
sVstrengthened.
p4102
F1
sVsucceeds,
p4103
F1
sVpleasant
p4104
F1
sVpower,
p4105
F1
sVmembers
p4106
F1
sVbeginning
p4107
F1
sVomit
p4108
F1
sVboys!"
p4109
F1
sVinstances
p4110
F1
sVgiddy:
p4111
F1
sVdone
p4112
F15
sVquarrels;
p4113
F1
sVbloodied
p4114
F1
sVellen?
p4115
F1
sVleast
p4116
F2
sVpains
p4117
F1
sVcup,
p4118
F1
sVyeoman?
p4119
F2
sVinstance,
p4120
F1
sVpart
p4121
F13
sVvisor:
p4122
F1
sVrender'd
p4123
F1
sVbelieve
p4124
F5
sVembrace,
p4125
F1
sVstirs
p4126
F1
sVyouth
p4127
F3
sVcontrary
p4128
F1
sVsupposed
p4129
F3
sVinhabitants!
p4130
F1
sVservice;
p4131
F1
sVmurder
p4132
F1
sVbuilt
p4133
F1
sVdepending
p4134
F1
sVbolingbroke
p4135
F2
sVcouch
p4136
F1
sVbuild
p4137
F3
sVage?
p4138
F1
sVgentlewoman,--
p4139
F1
sVidle,
p4140
F1
sVmost
p4141
F39
sVconfirmities.
p4142
F1
sVnecessities,
p4143
F1
sVking's:
p4144
F1
sVwhetted
p4145
F1
sVnecessities?
p4146
F1
sVnecessities:
p4147
F1
sVweigh
p4148
F4
sVthomas
p4149
F5
sVrebels
p4150
F3
sVcholer.
p4151
F1
sVblanket.
p4152
F1
sVdouglas;
p4153
F1
sVdouglas'
p4154
F1
sVfine
p4155
F2
sVfind
p4156
F10
sVdouglas,
p4157
F1
sVchimes
p4158
F1
sVgiant
p4159
F1
sVdouble,
p4160
F1
sVbanish'd
p4161
F1
sVcough,
p4162
F1
sVofficers.
p4163
F1
sVdouble?
p4164
F1
sValt'red
p4165
F1
sVfiend
p4166
F2
sVnobles:
p4167
F1
sVcapital
p4168
F1
sVdog,
p4169
F1
sVcourage
p4170
F1
sVbreast
p4171
F1
sVcommission,
p4172
F1
sVsilk
p4173
F2
sVresolve
p4174
F1
sVcontagious
p4175
F1
sVname:"
p4176
F1
sVcommon
p4177
F5
sVdoublet
p4178
F1
sVwived.
p4179
F1
sVtroth,
p4180
F10
sVtroth.
p4181
F1
sVrumour's
p4182
F1
sVlion
p4183
F1
sVrumour'd
p4184
F1
sVtroth;
p4185
F1
sVtender
p4186
F1
sVcaliver.
p4187
F1
sVdispatch:
p4188
F1
sVface-royal:
p4189
F1
sVplease
p4190
F17
sVface-royal,
p4191
F1
sVsmallest
p4192
F1
sVdispatch.
p4193
F1
sVdispatch,
p4194
F1
sVaprons;
p4195
F1
sVcinders
p4196
F1
sVgraves,
p4197
F1
sVdevil;
p4198
F1
sVaprons,
p4199
F1
sVdevil,
p4200
F1
sVlightness
p4201
F2
sVdespise
p4202
F1
sVsons,
p4203
F2
sVforeign
p4204
F1
sVpoins
p4205
F3
sVprice.
p4206
F1
sVpoint
p4207
F2
sVrealm.
p4208
F1
sVcaptains,
p4209
F1
sVsimply
p4210
F1
sVpurposed!
p4211
F1
sVdispleasure;
p4212
F1
sVcreate
p4213
F1
sVbesonian?
p4214
F1
sVmeeting
p4215
F1
sVfurnish'd
p4216
F1
sVdance,
p4217
F1
sVtrojan
p4218
F1
sVcandles'
p4219
F1
sVsolid
p4220
F1
sVtransformation!
p4221
F1
sVtalk'd
p4222
F1
sVfurther,
p4223
F1
sVjerusalem;
p4224
F1
sVhusband.
p4225
F2
sVjerusalem,
p4226
F1
sVitself
p4227
F6
sVtruncheon
p4228
F1
sVpeto.
p4229
F2
sVcounterfeited
p4230
F1
sVpeto,
p4231
F2
sVwherein
p4232
F3
sVsome,
p4233
F2
sVprayers;
p4234
F1
sVwhore.
p4235
F1
sVproved
p4236
F1
sVhow,
p4237
F2
sVpriam's
p4238
F1
sVapple-johns?
p4239
F1
sVpurpose
p4240
F3
sVinn,--i
p4241
F1
sVtravers
p4242
F2
sVwhores
p4243
F1
sVmorrow
p4244
F1
sVenglish,
p4245
F1
sVwithdraw
p4246
F1
sVhastings
p4247
F1
sVsorry,
p4248
F1
sVshape
p4249
F1
sVopenly
p4250
F2
sVlives,
p4251
F4
sVby-paths
p4252
F1
sVmatter?
p4253
F6
sVcut
p4254
F3
sVcup
p4255
F4
sVdanger
p4256
F2
sVsubjects
p4257
F2
sVmoe
p4258
F1
sVfollow,
p4259
F1
sVsnap
p4260
F1
sVgroats
p4261
F1
sVsilken
p4262
F1
sVshoved
p4263
F1
sVbig
p4264
F3
sVbid
p4265
F8
sVjudgement
p4266
F2
sVmatters
p4267
F1
sVredeem
p4268
F1
sVtyranny.
p4269
F1
sVdestruction.
p4270
F1
sVknock
p4271
F1
sVrides
p4272
F1
sVglove
p4273
F1
sVnags?
p4274
F1
sVfoolish
p4275
F6
sVstand'st
p4276
F1
sVoften
p4277
F1
sVhumorous
p4278
F1
sVback
p4279
F8
sVmartial
p4280
F1
sVvirtue,
p4281
F1
sVexamples
p4282
F1
sVourselves
p4283
F3
sVprentice?
p4284
F1
sVacquaintance
p4285
F2
sVgood:
p4286
F1
sVgood;
p4287
F2
sVjust.
p4288
F2
sVcast
p4289
F4
sVgood!
p4290
F1
sVgood,
p4291
F4
sVillumineth
p4292
F1
sVgood.
p4293
F4
sVeither
p4294
F5
sVpatient
p4295
F1
sVfed
p4296
F1
sVpronounce,
p4297
F1
sVpiled
p4298
F1
sVcrown's
p4299
F1
sVboy!
p4300
F2
sVhope.
p4301
F1
sVhope,
p4302
F3
sVrushes,
p4303
F1
sVrushes.
p4304
F1
sVboy.
p4305
F2
sVcolour
p4306
F1
sVboy,
p4307
F5
sVremembrance
p4308
F1
sVboy;
p4309
F1
sVboy?
p4310
F1
sVdoubt,
p4311
F1
sVcalipolis.
p4312
F1
sVforward
p4313
F2
sVobduracy
p4314
F1
sVtranslate
p4315
F1
sVboy.]
p4316
F1
sVassembly.
p4317
F1
sVframe!
p4318
F1
sVglendower;
p4319
F1
sVboys
p4320
F2
sVlondon?
p4321
F1
sVhopes
p4322
F2
sVprince's
p4323
F1
sVhopes:
p4324
F1
sVhopes,
p4325
F1
sVfamine;
p4326
F1
sVconstant
p4327
F1
sVcurs
p4328
F1
sVexpedition
p4329
F2
sVflow
p4330
F1
sVdragging
p4331
F1
sVbrethren
p4332
F1
sVhonourable?
p4333
F1
sVexcuses
p4334
F1
sVconfine
p4335
F1
sVmonmouth
p4336
F1
sVfavourite
p4337
F1
sVneck,
p4338
F1
sVprepared
p4339
F1
sVutterly
p4340
F1
sVlent
p4341
F1
sVremember--
p4342
F1
sVdesert
p4343
F1
sVlikeliest
p4344
F1
sVhappy,
p4345
F2
sVhelps
p4346
F1
sVputting
p4347
F2
sVclement
p4348
F1
sVentire
p4349
F1
sVswinge-bucklers
p4350
F1
sVhelp.
p4351
F1
sVknight
p4352
F4
sVgrave:
p4353
F1
sVstature,
p4354
F1
sVgrave.
p4355
F1
sVgrave,
p4356
F1
sVobject!
p4357
F1
sVbleeding
p4358
F1
sVremission.
p4359
F1
sVsin,
p4360
F1
sVbeast,
p4361
F1
sVother;
p4362
F1
sVslighted,
p4363
F1
sVgiving
p4364
F1
sVhonours?
p4365
F1
sVaccess
p4366
F1
sVpleading
p4367
F1
sVhonours.
p4368
F1
sVbody
p4369
F11
sVwrong'd
p4370
F1
sVengraffed
p4371
F1
sVsins
p4372
F1
sVentered.
p4373
F1
sVmaintain'd,
p4374
F1
sVothers
p4375
F4
sVcoped
p4376
F1
sVus:
p4377
F2
sVadvancements;
p4378
F1
sVoffer'd
p4379
F1
sVmutton,
p4380
F1
sVburst,--well,
p4381
F1
sVjest:
p4382
F1
sVprivate
p4383
F2
sVmethought
p4384
F2
sVnames
p4385
F3
sVlimb
p4386
F1
sVii.
p4387
F6
sVmonmouth:
p4388
F1
sVmonmouth;
p4389
F1
sVpossess'd
p4390
F1
sVkin
p4391
F3
sVthemselves
p4392
F4
sVdistemper'd;
p4393
F1
sVname!
p4394
F1
sVname.
p4395
F1
sVname,
p4396
F5
sVmagnanimous
p4397
F1
sVdebtors
p4398
F1
sVtearing
p4399
F1
sVname:
p4400
F1
sVname;
p4401
F1
sVthou'rt
p4402
F1
sVnorthumberland
p4403
F4
sVindignities
p4404
F1
sVfetch
p4405
F3
sVwater;
p4406
F1
sVhigh:
p4407
F1
sVwater?
p4408
F1
sVparley.
p4409
F1
sVlordship;
p4410
F1
sVlordship,
p4411
F2
sVworldlings
p4412
F1
sVlordship.
p4413
F1
sVsherris.
p4414
F1
sVsherris,
p4415
F1
sVnative
p4416
F1
sVdaring
p4417
F1
sVholds
p4418
F2
sVline,
p4419
F1
sVforest
p4420
F1
sVroam
p4421
F1
sVsnatch'd
p4422
F1
sVdinner;
p4423
F1
sVdinner:
p4424
F2
sVfolly.
p4425
F1
sVgone.
p4426
F4
sVspilt."
p4427
F1
sVwhereupon;
p4428
F1
sVbind
p4429
F2
sVregion,
p4430
F1
sVgone;
p4431
F1
sVchief
p4432
F58
sVhold,
p4433
F2
sVdinner.
p4434
F2
sVhold.
p4435
F2
sVnoise,
p4436
F1
sVlined
p4437
F1
sVdispraise
p4438
F1
sVfurnish
p4439
F1
sVtidings,
p4440
F1
sVyielder
p4441
F1
sVflattering
p4442
F2
sVdagger
p4443
F1
sVthyself
p4444
F4
sVhappiest
p4445
F1
sVrecordation
p4446
F1
sVrevived
p4447
F1
sVwhereon
p4448
F2
sVunstained
p4449
F1
sVwhereof
p4450
F1
sVcanaries;
p4451
F1
sVrevives
p4452
F1
sVwoman-queller.
p4453
F1
sVblessed
p4454
F3
sVday
p4455
F8
sVfigures,
p4456
F1
sVthrone;"
p4457
F1
sVmost;
p4458
F1
sVparties
p4459
F1
sVincensed
p4460
F1
sVconfirmation;
p4461
F1
sVcontinent,
p4462
F1
sVlungs,
p4463
F1
sVpurchased,
p4464
F1
sVfondly
p4465
F1
sVred
p4466
F3
sVthereupon
p4467
F1
sVwhereon,
p4468
F1
sVgod-daughter
p4469
F1
sVknave's
p4470
F1
sVfourteen
p4471
F2
sVupbraid
p4472
F1
sVwhore's
p4473
F1
sVbleed
p4474
F1
sVrearward
p4475
F1
sVretail
p4476
F1
sVsouth
p4477
F1
sVsack
p4478
F4
sVhotter!
p4479
F1
sVancient
p4480
F4
sVsadly
p4481
F1
sVlove,
p4482
F5
sVlove.
p4483
F2
sVnobody
p4484
F2
sVperforce
p4485
F5
sVtribute.
p4486
F1
sVfrank?
p4487
F1
sVrenewed:
p4488
F1
sVtingling.
p4489
F1
sVloved
p4490
F2
sVupon?
p4491
F1
sVo'er
p4492
F5
sVvanity!
p4493
F1
sVupon,
p4494
F2
sVloves
p4495
F2
sVlight
p4496
F7
sVcoronation
p4497
F1
sVgambol
p4498
F1
sVtidy
p4499
F1
sVtide
p4500
F2
sVhave
p4501
F180
sVaccites
p4502
F1
sVpatience.
p4503
F1
sVmix
p4504
F1
sVland:
p4505
F1
sVaccite,
p4506
F1
sVbrevity:"
p4507
F1
sVunless
p4508
F5
sVprocure
p4509
F1
sVtime's
p4510
F3
sVwhere's
p4511
F6
sVcoronation:
p4512
F1
sVeight
p4513
F2
sVprisoner
p4514
F1
sVbusiness?
p4515
F1
sVdisease
p4516
F4
sVmustard;
p4517
F1
sVoccasion
p4518
F3
sVoutlive
p4519
F1
sVrichard,
p4520
F3
sVrascally,
p4521
F1
sVtext
p4522
F1
sVreputation,
p4523
F1
sVsoldiers?
p4524
F2
sVrichard;
p4525
F1
sVtraitor
p4526
F1
sVrebuke
p4527
F2
sVcaught,
p4528
F1
sVgasping
p4529
F1
sVstaff
p4530
F1
sVwo't
p4531
F2
sVknowledge
p4532
F1
sVnorthumberland;
p4533
F1
sVmouldy!
p4534
F1
sVbeat
p4535
F5
sVmouldy,
p4536
F5
sVmouldy.
p4537
F5
sVbear
p4538
F20
sVperfection
p4539
F1
sVhalf-kirtles.
p4540
F1
sVmouldy?
p4541
F2
sVsword:
p4542
F1
sVmouldy;
p4543
F1
sVchester;
p4544
F1
sVstraight.
p4545
F1
sVshallow.]
p4546
F1
sVrecovers.
p4547
F1
sVhemp-seed!
p4548
F1
sVracket
p4549
F1
sVdesires,
p4550
F2
sVmaster's
p4551
F1
sVpattern
p4552
F1
sVralph
p4553
F1
sVhenry.]
p4554
F2
sVprogress
p4555
F1
sVshallow,
p4556
F15
sVshallow.
p4557
F91
sVaside:
p4558
F1
sVaside;
p4559
F1
sVsorrow
p4560
F3
sVdeliver
p4561
F4
sVshallow!
p4562
F1
sVshallow"
p4563
F1
sVaside.
p4564
F2
sVaside,
p4565
F1
sVshallow?
p4566
F1
sVshallow:
p4567
F2
sVshallow;
p4568
F2
sVpurse?
p4569
F1
sVinstant
p4570
F1
sVpurse:
p4571
F1
sVfreely
p4572
F1
sVtaking
p4573
F3
sVequal
p4574
F3
sVcheater:
p4575
F1
sVassure
p4576
F2
sVpurse.
p4577
F1
sVbeds,
p4578
F1
sVcheater,
p4579
F3
sVpassing
p4580
F1
sVotherwise
p4581
F1
sVvent
p4582
F1
sVsilkman:
p4583
F1
sVe'er
p4584
F1
sVcommend
p4585
F4
sVlaugh
p4586
F2
sVdone,
p4587
F1
sVdone.
p4588
F1
sVover-greedy
p4589
F1
sVhome;
p4590
F1
sVmuddy
p4591
F2
sVgreeting."
p4592
F1
sVhome?
p4593
F1
sVwarwick
p4594
F3
sVcurtain
p4595
F1
sVhome,
p4596
F2
sVfoes
p4597
F1
sVglasses,
p4598
F2
sVfellow
p4599
F8
sVplain
p4600
F2
sVappearance
p4601
F2
sVthereof.
p4602
F1
sVcarved
p4603
F1
sValmost
p4604
F4
sVthewes,
p4605
F1
sVscholar:
p4606
F1
sVgloucestershire;
p4607
F1
sVwatchful
p4608
F1
sVadministration
p4609
F1
sVsomewhat.
p4610
F1
sVpawn'd
p4611
F1
sVblood-hound.
p4612
F1
sVsisters
p4613
F1
sVfork'd
p4614
F1
sVforgetfulness?
p4615
F1
sVfox.
p4616
F1
sVweapon
p4617
F2
sVthought
p4618
F11
sVson,--
p4619
F1
sVsets
p4620
F2
sVlatest
p4621
F1
sVjustices:
p4622
F2
sVnihil
p4623
F1
sVrepent
p4624
F1
sVderived?
p4625
F1
sVjustices.
p4626
F1
sVchief-justice;
p4627
F1
sVwork,
p4628
F1
sVbragging
p4629
F2
sVshoes,
p4630
F1
sVcolevile.
p4631
F6
sVcolevile,
p4632
F1
sVfled
p4633
F3
sVadd
p4634
F1
sVchief-justice.
p4635
F1
sVchief-justice,
p4636
F3
sVchief-justice!
p4637
F2
sVcolevile?
p4638
F1
sVresolved
p4639
F1
sVloss,
p4640
F1
sVbuds;
p4641
F1
sVloss?
p4642
F1
sVlike
p4643
F67
sVsuccess
p4644
F1
sVvalour,
p4645
F1
sVvalour.
p4646
F1
sVfangless
p4647
F1
sVheed
p4648
F3
sVworks
p4649
F1
sVsoft
p4650
F2
sVfear'd;
p4651
F1
sValive
p4652
F1
sVfear'd.
p4653
F1
sVneighbours;
p4654
F1
sVstoop'd
p4655
F1
sVprawns,
p4656
F1
sVsubjects?
p4657
F1
sVsorrier;
p4658
F1
sVchains
p4659
F1
sVnoise
p4660
F2
sVcomplices
p4661
F1
sVslight
p4662
F4
sVlieutenant
p4663
F1
sVworthy
p4664
F1
sVabout
p4665
F15
sVtomb
p4666
F1
sVprinces.
p4667
F1
sVragged'st
p4668
F1
sVdavy.]
p4669
F5
sVguard
p4670
F5
sVfemale
p4671
F1
sVdemeanour
p4672
F1
sVchief-justice.]
p4673
F1
sVstratagem:
p4674
F1
sVbuckle
p4675
F1
sVprince;
p4676
F2
sVprince!
p4677
F1
sVprince.
p4678
F55
sVprince,
p4679
F4
sVstratagem.
p4680
F1
sVbuy
p4681
F3
sVscum:
p4682
F1
sVtilled
p4683
F1
sVbut
p4684
F159
sVwise
p4685
F5
sVprinces
p4686
F3
sVphilosopher's
p4687
F1
sVwish
p4688
F4
sVsuffer'd:
p4689
F1
sVglendower
p4690
F1
sVwhisper
p4691
F1
sVcontinents,
p4692
F1
sVchristian;
p4693
F1
sVproceeds
p4694
F1
sVdrawers.]
p4695
F2
sVstrewing
p4696
F1
sVindeed.
p4697
F2
sVindeed,
p4698
F8
sVperiod.
p4699
F1
sVdeath?
p4700
F1
sVoverthrown:
p4701
F1
sVdeath:
p4702
F4
sVdeath;
p4703
F1
sVindeed;
p4704
F3
sVdeath,
p4705
F5
sVdeath.
p4706
F2
sVrabbit,
p4707
F1
sVnews;
p4708
F1
sVentertainment
p4709
F1
sVnews?
p4710
F4
sVentreat
p4711
F2
sVnews.
p4712
F6
sVnews,
p4713
F4
sVmonkey,
p4714
F1
sVunited,
p4715
F1
sVhath
p4716
F65
sVsleep
p4717
F6
sVever:
p4718
F1
sVappetite
p4719
F1
sVhate
p4720
F2
sVyonder
p4721
F1
sVconsider
p4722
F2
sVmuzzle
p4723
F1
sVpoorest
p4724
F2
sVunder
p4725
F12
sVpride
p4726
F1
sVnorthumberland.]
p4727
F1
sVtears,
p4728
F2
sVevery
p4729
F20
sVjack
p4730
F2
sVencounter
p4731
F1
sVschool
p4732
F2
sVdale,
p4733
F1
sVdale.
p4734
F2
sVshakespeare's
p4735
F1
sVstews,
p4736
F1
sVrushes.]
p4737
F1
sVdale:
p4738
F1
sVcaraways,
p4739
F1
sVvenus
p4740
F1
sVsounds.
p4741
F1
sVenjoy
p4742
F2
sVcontention,
p4743
F1
sVfeathers
p4744
F1
sVnail
p4745
F1
sVdavy,--
p4746
F1
sVterms,
p4747
F2
sVbeaten
p4748
F1
sVpoison
p4749
F1
sVchildren
p4750
F1
sVabides
p4751
F1
sVventure.
p4752
F2
sVconduct
p4753
F2
sVsupplies
p4754
F2
sVbread-chipper
p4755
F1
sVgeneral,
p4756
F2
sVgeneral.
p4757
F2
sVprate
p4758
F1
sVephesians,
p4759
F1
sVfaults,
p4760
F1
sVleader.
p4761
F1
sVthrough,
p4762
F2
sVthrough.
p4763
F1
sVtells.
p4764
F1
sVproperty
p4765
F1
sVhideously
p4766
F1
sVleaves
p4767
F2
sVcrook'd
p4768
F1
sVchanges
p4769
F3
sVventured
p4770
F1
sVcompany.
p4771
F3
sVcompany,
p4772
F1
sVbreath,
p4773
F1
sVbreath.
p4774
F1
sVcompany?
p4775
F1
sVgreatness!
p4776
F1
sVreply.
p4777
F1
sVgreatness.
p4778
F1
sVwould
p4779
F72
sVoverlive
p4780
F1
sVgood-year!
p4781
F2
sVused.
p4782
F1
sVbreathe
p4783
F1
sVsignories,
p4784
F1
sVoff;
p4785
F1
sVthis!"
p4786
F1
sVsorrow.
p4787
F1
sVmuse
p4788
F1
sVsorrow,
p4789
F1
sVgrief
p4790
F4
sVfear'd
p4791
F1
sVexcellent
p4792
F8
sVoff,
p4793
F6
sVmust
p4794
F42
sVabundance
p4795
F1
sVjoin
p4796
F2
sVwit's
p4797
F1
sVhenry
p4798
F8
sVmy
p4799
F409
sVquarrel
p4800
F5
sVcontented,
p4801
F1
sVpreserving
p4802
F1
sVimmortally
p4803
F1
sVtimes
p4804
F13
sVquoits
p4805
F1
sVend
p4806
F7
sVgate
p4807
F1
sVcolours,
p4808
F1
sVboth.
p4809
F1
sVboth,
p4810
F1
sVmess
p4811
F1
sVcoffers
p4812
F1
sVboth:
p4813
F1
sVforty,
p4814
F1
sVcolours:
p4815
F1
sVhumphrey
p4816
F2
sVmonmouth's
p4817
F2
sVmare's
p4818
F1
sVenviron
p4819
F1
sVenter
p4820
F1
sVroused
p4821
F1
sVlent?
p4822
F1
sVsprout
p4823
F1
sVover
p4824
F2
sVrascal.
p4825
F1
sVsickly
p4826
F1
sVlondon
p4827
F2
sVdisease,
p4828
F2
sVclapped
p4829
F1
sVvice's
p4830
F1
sVheart:
p4831
F3
sVshadow;
p4832
F1
sVshadow:
p4833
F1
sVpantler
p4834
F1
sVshadow?
p4835
F1
sVimp
p4836
F1
sVshadow!
p4837
F1
sVcondition
p4838
F4
sVglutton!
p4839
F1
sVshadow.
p4840
F3
sVshadow,
p4841
F4
sVdiseases
p4842
F4
sVripens
p4843
F1
sVfinish
p4844
F1
sVdiseased
p4845
F1
sVwear'st
p4846
F1
sVshadows
p4847
F2
sVgluttony
p4848
F1
sVborne,
p4849
F2
sVexpectation,
p4850
F2
sVborne;
p4851
F1
sVeach
p4852
F3
sVhanged
p4853
F1
sVscope,
p4854
F1
sVday;
p4855
F2
sVdriving
p4856
F1
sVgod
p4857
F45
sVsighing
p4858
F1
sVday.
p4859
F3
sVday,
p4860
F6
sVheavenly
p4861
F1
sVnewly
p4862
F2
sVday!
p4863
F3
sVcalmest
p4864
F1
sVenough;
p4865
F2
sVdefence,
p4866
F1
sVfree
p4867
F1
sVwhereupon
p4868
F2
sVpottle-pot's
p4869
F1
sVgo,
p4870
F9
sVgo.
p4871
F6
sVdays
p4872
F6
sV'gan
p4873
F1
sVgo:
p4874
F2
sVfever,
p4875
F1
sVbardolph.]
p4876
F12
sVgloucester
p4877
F1
sVself;
p4878
F1
sValready
p4879
F3
sVtoo.
p4880
F8
sVtoo,
p4881
F3
sVrank
p4882
F3
sVhearing
p4883
F3
sVgrief,
p4884
F5
sVsober
p4885
F1
sVtoo;
p4886
F1
sVblunts
p4887
F1
sVgalled
p4888
F1
sVtop
p4889
F1
sVtoo
p4890
F25
sVblunt,
p4891
F2
sVblunt.
p4892
F1
sVgriefs
p4893
F3
sVenough,
p4894
F3
sVserve
p4895
F5
sVtook
p4896
F4
sVchief-justice
p4897
F3
sVto:
p4898
F2
sVto;
p4899
F6
sVgown.
p4900
F1
sVthy
p4901
F82
sVmother's
p4902
F2
sVheight,
p4903
F1
sVgown;
p4904
F1
sVflame
p4905
F1
sVfashion
p4906
F1
sVthat?"
p4907
F1
sVran
p4908
F2
sVstay'd
p4909
F1
sVquoth-a,
p4910
F1
sVmaidenhead?
p4911
F1
sVmusicians,
p4912
F1
sVhatch
p4913
F1
sVancestors.
p4914
F1
sVwestminster;
p4915
F1
sVthough
p4916
F12
sVwits?
p4917
F1
sVwestminster.
p4918
F3
sVsmithfield:
p4919
F1
sVumfrevile
p4920
F1
sVleaf:
p4921
F1
sVride,
p4922
F1
sVoath
p4923
F1
sVmetal
p4924
F1
sVletters,
p4925
F2
sVenterprise
p4926
F1
sVsilencing
p4927
F1
sVletters?
p4928
F1
sVswifter
p4929
F2
sVwild
p4930
F3
sVbait
p4931
F1
sVblemish,
p4932
F1
sVsage
p4933
F1
sVearth
p4934
F1
sVsurety
p4935
F1
sVspite
p4936
F1
sVshot.
p4937
F1
sVlodge
p4938
F1
sVborrowed
p4939
F1
sVdignify
p4940
F1
sVmile-end
p4941
F1
sVsneak's
p4942
F1
sVwatch
p4943
F3
sVknocks
p4944
F1
sVabout,
p4945
F2
sVsurrey.]
p4946
F1
sVcheating,
p4947
F1
sVcountries
p4948
F1
sVpublic
p4949
F1
sVtwice
p4950
F2
sVruins
p4951
F1
sVgalls:
p4952
F1
sVcorrupt
p4953
F1
sVhypocrite.
p4954
F1
sVface,
p4955
F2
sVbestride
p4956
F1
sVfinger
p4957
F2
sVsherris
p4958
F2
sVapproach
p4959
F2
sVranged:
p4960
F1
sVface;
p4961
F1
sVweak
p4962
F6
sVdevour
p4963
F1
sVwear
p4964
F2
sVnews
p4965
F13
sVincurable.
p4966
F1
sVblasted
p4967
F1
sVfault
p4968
F1
sVsheriff's
p4969
F1
sVhenry,
p4970
F1
sVjove's
p4971
F1
sVfoot:
p4972
F1
sVpoverty;
p4973
F1
sV"and
p4974
F1
sVsnores
p4975
F1
sVtrust
p4976
F1
sVnative,
p4977
F1
sV"you
p4978
F2
sVbeen
p4979
F25
sVquickly
p4980
F4
sVwere,
p4981
F4
sVconfident
p4982
F2
sVdeep,
p4983
F2
sVposts:
p4984
F1
sVforspent
p4985
F1
sVgraffing,
p4986
F1
sVcatch
p4987
F2
sVchurch.
p4988
F2
sVbee,
p4989
F1
sVugliest
p4990
F1
sVstopping
p4991
F1
sVnever-daunted
p4992
F1
sVworking.
p4993
F1
sV"o
p4994
F1
sV"i
p4995
F5
sVexterior
p4996
F1
sVyourself,
p4997
F3
sVheart.
p4998
F4
sVheart,
p4999
F5
sVheart!
p5000
F4
sVhated.
p5001
F1
sVforlorn,
p5002
F1
sVforehead
p5003
F1
sVinventory
p5004
F1
sVesquire
p5005
F1
sVseveral
p5006
F3
sVthumb,
p5007
F1
sVlusty
p5008
F2
sVwelsh
p5009
F1
sVnightgown,
p5010
F1
sVcharacters
p5011
F1
sVworkings
p5012
F1
sVconger,
p5013
F1
sVmade,
p5014
F1
sVtapster,
p5015
F1
sVshortly
p5016
F1
sVdoth?
p5017
F1
sVocean
p5018
F1
sVhearty
p5019
F1
sVdoth,
p5020
F3
sVgreatest
p5021
F2
sVdoth.
p5022
F1
sV[alarum.
p5023
F1
sVhearts
p5024
F1
sVproposed
p5025
F1
sVable
p5026
F5
sVredresses.
p5027
F1
sVbreak,
p5028
F1
sVoffice!
p5029
F1
sVdearer
p5030
F1
sVoffice,
p5031
F2
sVfall'n
p5032
F1
sVfie,
p5033
F3
sVfoot,
p5034
F2
sVgave
p5035
F9
sVdignities.
p5036
F1
sVbreaks
p5037
F1
sVspeaks?
p5038
F1
sVafore
p5039
F1
sVjudge
p5040
F1
sVburns
p5041
F3
sVburnt
p5042
F1
sVscruple
p5043
F1
sVadvanced
p5044
F1
sVmelting
p5045
F1
sVappearing
p5046
F2
sVzeal
p5047
F3
sVopinions;
p5048
F1
sVhunt
p5049
F1
sVoffices
p5050
F1
sVhung
p5051
F1
sVcruelty,
p5052
F1
sVson's.
p5053
F1
sVgait,
p5054
F1
sVstill-born,
p5055
F1
sVproudly
p5056
F1
sVclawed
p5057
F1
sVindirect
p5058
F1
sVanthems.
p5059
F1
sVgait;
p5060
F1
sVnobleman
p5061
F1
sVpottle-pot.
p5062
F1
sVproceeding
p5063
F2
sVantiquity?
p5064
F1
sVarmed
p5065
F3
sVcompanions
p5066
F1
sVquantities,
p5067
F1
sVprick'd?
p5068
F1
sV'fore
p5069
F3
sVeverything
p5070
F3
sVbrawl
p5071
F1
sVcorn
p5072
F1
sVedge,
p5073
F1
sVquite:
p5074
F1
sVcomplaints,
p5075
F1
sVawaked,
p5076
F1
sVdinner
p5077
F1
sVcompanion.
p5078
F1
sVcompanion!
p5079
F1
sVo'erset,
p5080
F1
sVcurry
p5081
F1
sVduke
p5082
F6
sVbate
p5083
F2
sVfroze
p5084
F1
sVpresence
p5085
F1
sVcivil
p5086
F4
sVlavishly
p5087
F1
sVhidest
p5088
F1
sVstuck
p5089
F1
sVfought
p5090
F2
sVtearsheet.]
p5091
F2
sVharcourt.]
p5092
F1
sVhead
p5093
F14
sVsteers
p5094
F1
sVvisitation
p5095
F1
sVhands;
p5096
F1
sVidem,"
p5097
F1
sVah,
p5098
F7
sVpricked
p5099
F2
sVheat
p5100
F4
sVhear
p5101
F18
sVcounsel
p5102
F3
sVdeafness.
p5103
F1
sVmuster
p5104
F1
sVsups
p5105
F1
sVbids
p5106
F1
sVcoats.
p5107
F1
sVliggens,
p5108
F1
sVworshipful
p5109
F2
sVsinful
p5110
F1
sVsupper?
p5111
F2
sVsupper:
p5112
F1
sVshines
p5113
F1
sVcheck
p5114
F1
sVsack:
p5115
F2
sVno
p5116
F85
sVwhen
p5117
F56
sVsetting
p5118
F1
sVsack.
p5119
F3
sVsack,
p5120
F2
sVpicture
p5121
F1
sVshine,
p5122
F1
sVshine.
p5123
F1
sVadvancement.
p5124
F1
sVdullest
p5125
F1
sVdischarge
p5126
F5
sVriots:
p5127
F1
sVto-day
p5128
F1
sVsortance
p5129
F1
sVscots,
p5130
F1
sVwithhold
p5131
F1
sVriots,
p5132
F1
sVincreases,
p5133
F1
sVpartition.
p5134
F1
sVfalse-derived
p5135
F1
sVdeserving.
p5136
F1
sVdiscern
p5137
F1
sVwars?
p5138
F1
sVwars:
p5139
F1
sVwars;
p5140
F1
sVcharge
p5141
F7
sVpost,
p5142
F1
sVwars!
p5143
F1
sVlead!
p5144
F1
sVtidings
p5145
F2
sVadvantage
p5146
F1
sVone,
p5147
F3
sVblue-bottle
p5148
F1
sVcook
p5149
F1
sVlead:
p5150
F1
sVclouds
p5151
F2
sVbest.
p5152
F1
sVlevel
p5153
F3
sVposts
p5154
F3
sVbrother
p5155
F8
sVbest;
p5156
F2
sVbest:
p5157
F1
sVparticipation
p5158
F1
sVquick
p5159
F1
sVbasingstoke,
p5160
F1
sVstands.
p5161
F1
sVdries
p5162
F1
sVsays
p5163
F12
sVsquire,
p5164
F1
sVinland
p5165
F1
sVdried
p5166
F1
sVdrinks
p5167
F2
sVstands
p5168
F2
sVhealth;
p5169
F2
sVpleased
p5170
F2
sVhumphrey,
p5171
F1
sVgoes
p5172
F3
sVguilt,
p5173
F1
sVstomach;
p5174
F1
sVhealth,
p5175
F3
sVlack-linen
p5176
F1
sVhealth.
p5177
F1
sVdrink,
p5178
F1
sVafterwards,
p5179
F1
sVsay;
p5180
F2
sVsay:
p5181
F1
sVwater
p5182
F1
sVgeneration.
p5183
F1
sVsay!
p5184
F2
sVsay,
p5185
F8
sVswaggerers:
p5186
F1
sVbearer,
p5187
F1
sVthirty
p5188
F3
sVhealthy
p5189
F1
sV[snatching
p5190
F1
sVswaggerers.
p5191
F2
sVstand.
p5192
F1
sVstand,
p5193
F2
sVcase,
p5194
F1
sVhumour
p5195
F3
sVmyself,
p5196
F1
sVbeer.
p5197
F1
sVreverently,
p5198
F1
sVmurder'd
p5199
F1
sVbeer?
p5200
F1
sVconjoins
p5201
F1
sVwrongs
p5202
F2
sVwarkworth.
p5203
F2
sVmemory
p5204
F4
sVriot
p5205
F2
sVthree!
p5206
F1
sVand,
p5207
F31
sVwrong.
p5208
F5
sVwrong,
p5209
F1
sVwrong:
p5210
F2
sVmeans;
p5211
F1
sVlaughter
p5212
F1
sVfigure
p5213
F2
sVunarmed
p5214
F1
sVstroke
p5215
F1
sVdrawers.
p5216
F1
sVstones;
p5217
F1
sValway
p5218
F1
sVvital
p5219
F1
sVspeaks
p5220
F2
sVmeat,
p5221
F2
sVwinds,
p5222
F1
sVtennis-court-keeper
p5223
F1
sVimpartial
p5224
F2
sVdogs!
p5225
F2
sVowed
p5226
F1
sVspeak,
p5227
F3
sVspeak.
p5228
F2
sVenemies.
p5229
F2
sVspeak:
p5230
F1
sVspeak;
p5231
F1
sVpaid.
p5232
F1
sVspeak?
p5233
F1
sVporter.
p5234
F2
sVporter,
p5235
F1
sVsirrah,
p5236
F5
sVconsiderations
p5237
F1
sVhence;
p5238
F1
sVhence:
p5239
F1
sVhence?
p5240
F1
sVhence!
p5241
F2
sVpolicy,
p5242
F1
sVemptiness.
p5243
F1
sVweather,
p5244
F1
sVhence,
p5245
F6
sVhence.
p5246
F1
sVapes
p5247
F1
sVsouls;
p5248
F1
sVhe's
p5249
F3
sVheels:
p5250
F1
sVsouls.
p5251
F1
sVsouls,
p5252
F1
sVgrace's
p5253
F2
sVheels.
p5254
F1
sVanatomize
p5255
F1
sVmotion,
p5256
F1
sVmotion.
p5257
F1
sVgoodwife
p5258
F1
sVfang.
p5259
F7
sVfang,
p5260
F2
sVunderneath
p5261
F1
sVname
p5262
F13
sVoffer,
p5263
F1
sVsoon.
p5264
F1
sVoutbids
p5265
F1
sVape,
p5266
F1
sVape.
p5267
F1
sVcommonwealth,
p5268
F2
sVcall'd
p5269
F3
sVthus;
p5270
F3
sVthus:
p5271
F4
sValecto's
p5272
F1
sVthus,
p5273
F5
sVthus.
p5274
F1
sVtrunk:
p5275
F1
sVhulk
p5276
F2
sVeurope."
p5277
F1
sVmotion
p5278
F1
sVturn
p5279
F6
sVplace
p5280
F6
sVman-queller,
p5281
F1
sVborrower's
p5282
F1
sVretainers
p5283
F1
sVmorrows
p5284
F1
sVtemper,
p5285
F1
sVgeorge
p5286
F1
sVeel-skin;
p5287
F1
sVapprehensive,
p5288
F1
sVgiven
p5289
F1
sVwhite
p5290
F8
sVgives
p5291
F4
sVmorrow,
p5292
F5
sVmen's
p5293
F2
sValas
p5294
F1
sVscroop,
p5295
F2
sVkindreds
p5296
F1
sVcopy
p5297
F1
sVmorrow;
p5298
F1
sVpluto's
p5299
F1
sVwide
p5300
F2
sVearth:
p5301
F1
sVthou'lt
p5302
F2
sV"bounce"
p5303
F1
sVreturn,
p5304
F1
sVearth!
p5305
F1
sVby--
p5306
F1
sVreturn;
p5307
F1
sVreturn:
p5308
F1
sVearth.
p5309
F1
sVearth,
p5310
F2
sVand
p5311
F865
sVround,
p5312
F1
sVthou,
p5313
F6
sVany
p5314
F31
sVfoundered
p5315
F1
sVdismiss'd,
p5316
F1
sVlate;
p5317
F1
sVbed-hangings
p5318
F1
sVleap'd
p5319
F2
sVlate,
p5320
F1
sVstrengths
p5321
F2
sVblunt
p5322
F4
sVmate!
p5323
F1
sVsure
p5324
F5
sVaspen
p5325
F1
sVfalls
p5326
F2
sVproud
p5327
F1
sVstrength;
p5328
F1
sVglutton
p5329
F1
sVthat's
p5330
F2
sVhath.
p5331
F1
sVsteel'd;
p5332
F1
sVcheap
p5333
F1
sVmale:
p5334
F1
sVpercy
p5335
F3
sVtroy
p5336
F1
sVwritten
p5337
F2
sVlighten
p5338
F1
sVexpectation
p5339
F1
sVtailor
p5340
F1
sVo'clock,
p5341
F1
sVcrutch!
p5342
F1
sVhurly,
p5343
F1
sVnaked
p5344
F3
sVpains.
p5345
F1
sVpaper
p5346
F2
sVevils:
p5347
F1
sV"how
p5348
F1
sVbeholding
p5349
F1
sVcolevile
p5350
F7
sVrumour,
p5351
F3
sVrumour.
p5352
F1
sVways
p5353
F1
sVexion
p5354
F1
sVweapons
p5355
F1
sVsaid.
p5356
F1
sVfly-bitten
p5357
F1
sVhotspur's
p5358
F6
sVcomb
p5359
F1
sVcome
p5360
F57
sVshapes;
p5361
F1
sVway;
p5362
F1
sVway:
p5363
F1
sVhis,
p5364
F1
sVquiet
p5365
F2
sVsauciness:
p5366
F1
sVway.
p5367
F2
sVway,
p5368
F1
sVhis:
p5369
F2
sVduty
p5370
F1
sVafterwards
p5371
F1
sVpox
p5372
F2
sVquean
p5373
F1
sVgroin?
p5374
F1
sVunquiet
p5375
F1
sVpoll
p5376
F1
sVhunt,
p5377
F1
sVhardly
p5378
F3
sVvilely
p5379
F2
sVdream'd
p5380
F1
sVblessing
p5381
F2
sVostentation
p5382
F1
sVminister
p5383
F1
sVcareful
p5384
F1
sVspirit
p5385
F10
sVcase
p5386
F5
sVshaft
p5387
F1
sVmyself
p5388
F3
sVamend
p5389
F1
sVtormenta,
p5390
F1
sVavaunt!
p5391
F1
sVfledged.
p5392
F1
sVslippery
p5393
F1
sVlife.
p5394
F2
sVlife,
p5395
F6
sVperson.
p5396
F1
sVperson,
p5397
F2
sVdisadvantage;
p5398
F1
sVperson;
p5399
F1
sVsupper.
p5400
F1
sVbred.
p5401
F1
sVauthor
p5402
F1
sVmode;
p5403
F1
sVtrip
p5404
F1
sVmusters
p5405
F2
sVapple-john.
p5406
F1
sVweed
p5407
F1
sVpetticoat
p5408
F1
sV"rah,
p5409
F1
sVarchbishop's
p5410
F1
sVmanured,
p5411
F1
sVweep
p5412
F2
sVevent.
p5413
F1
sVvantage
p5414
F3
sVapple-johns
p5415
F1
sVdelectable
p5416
F1
sVwithout
p5417
F8
sVshift:
p5418
F1
sVmodel
p5419
F2
sVbow;
p5420
F1
sVbodies
p5421
F1
sVoverween
p5422
F1
sVschedule,
p5423
F1
sVdace
p5424
F1
sVlavish
p5425
F1
sVkill
p5426
F1
sVsatin
p5427
F1
sVblow
p5428
F1
sVhappiness.
p5429
F1
sVhappiness,
p5430
F1
sVseems
p5431
F1
sVclay,
p5432
F1
sVquality,
p5433
F1
sVquality.
p5434
F2
sVgreat,
p5435
F1
sVkingdom
p5436
F2
sVaction?
p5437
F1
sVaction;
p5438
F1
sVaction:
p5439
F2
sVhowl'st
p5440
F1
sVaction,
p5441
F2
sVaction.
p5442
F2
sVdull,
p5443
F1
sVcankers!
p5444
F1
sV"thine,
p5445
F1
sVall.
p5446
F5
sVwoman,
p5447
F3
sVwoman.
p5448
F1
sVvain.
p5449
F1
sVshillings
p5450
F1
sVghastly,
p5451
F1
sVmiscarry,
p5452
F2
sVrespect
p5453
F2
sVpotations
p5454
F1
sVmiscarry!
p5455
F1
sVprovided
p5456
F2
sVo,
p5457
F20
sVswaggerer,
p5458
F1
sVo'
p5459
F11
sVwantest
p5460
F1
sVmoon
p5461
F1
sVporter
p5462
F1
sVsevered
p5463
F1
sVshilling:
p5464
F1
sVboisterous
p5465
F2
sVcut-purse
p5466
F1
sVpurse
p5467
F1
sVon
p5468
F65
sVof
p5469
F604
sVwhence
p5470
F1
sVstand
p5471
F20
sVswaggerers
p5472
F2
sVor
p5473
F49
sVinstruments
p5474
F1
sVwheeson
p5475
F1
sVrising
p5476
F1
sVdetermine
p5477
F1
sVengland
p5478
F6
sVlull'd
p5479
F1
sVtutor
p5480
F1
sVthere
p5481
F54
sVdisposed
p5482
F1
sVnorthumberland!
p5483
F1
sVmischief
p5484
F2
sVregard
p5485
F1
sVnorthumberland,
p5486
F7
sVnorthumberland.
p5487
F23
sV"what's
p5488
F1
sVrouse
p5489
F2
sVlonger
p5490
F3
sVarmies.
p5491
F1
sVwash'd
p5492
F2
sVperforce,
p5493
F1
sVstrongly
p5494
F1
sVruffian
p5495
F2
sVfrighted
p5496
F1
sVwords;
p5497
F1
sVwords:
p5498
F1
sVtaste
p5499
F3
sVpillow?
p5500
F1
sVbullcalf:
p5501
F1
sVwords,
p5502
F1
sVbullet?
p5503
F1
sVpillow,
p5504
F1
sVbishop
p5505
F3
sVcall?
p5506
F1
sVcompel
p5507
F1
sVlovedst
p5508
F1
sVbuckler.]
p5509
F1
sVshort-legg'd
p5510
F1
sVcall,
p5511
F1
sVbriefly
p5512
F1
sVwinking
p5513
F1
sVorchard.
p5514
F1
sVseparate
p5515
F1
sVliege's
p5516
F1
sVorchard:
p5517
F1
sVgutenberg
p5518
F1
sVcastle.
p5519
F2
sVbooked
p5520
F1
sVapplause
p5521
F1
sVcalls
p5522
F1
sVwife
p5523
F5
sVinvest
p5524
F2
sVodds
p5525
F1
sVdog
p5526
F1
sVrose,
p5527
F1
sVsword,
p5528
F1
sVtreason
p5529
F1
sVapparel
p5530
F2
sVson!
p5531
F1
sVall
p5532
F86
sVhem!
p5533
F1
sVson,
p5534
F7
sVmarch'd
p5535
F1
sV'gainst
p5536
F3
sVdish
p5537
F4
sVscullion!
p5538
F1
sVson:
p5539
F2
sVson;
p5540
F2
sV[exeunt
p5541
F16
sVwanton
p5542
F3
sVfew,
p5543
F2
sVsparkling
p5544
F1
sVkeep'st
p5545
F1
sVviz.
p5546
F1
sVwoman
p5547
F2
sVworse
p5548
F6
sVfar
p5549
F4
sVfat
p5550
F5
sVsons
p5551
F2
sVworst
p5552
F4
sVawful
p5553
F2
sVfearful
p5554
F3
sVundone
p5555
F2
sVfamiliarly
p5556
F1
sVten
p5557
F7
sVrate
p5558
F2
sVtoe.
p5559
F1
sVwhat
p5560
F94
sVsun
p5561
F1
sVsum
p5562
F2
sVrascal
p5563
F1
sVcrush
p5564
F1
sVsup
p5565
F2
sV[coming
p5566
F1
sVwomb
p5567
F2
sVchristian
p5568
F1
sVwhen,
p5569
F2
sVo'er;
p5570
F1
sVobserving
p5571
F1
sV'twere
p5572
F4
sVpresented,
p5573
F1
sVmust,
p5574
F1
sVexcused.
p5575
F3
sVknow:
p5576
F1
sVexcused;
p5577
F1
sVappliances
p5578
F1
sVknow,
p5579
F4
sVhorse.
p5580
F3
sVhorse,
p5581
F1
sVfaint
p5582
F1
sVdevotion,--
p5583
F1
sVknows
p5584
F3
sVfeeding,
p5585
F1
sVthus
p5586
F11
sVcommandment.
p5587
F2
sVstick
p5588
F3
sVknown
p5589
F5
sVglad
p5590
F5
sVattain'd,
p5591
F1
sVquittance,
p5592
F1
sVjoints
p5593
F1
sVheavier!
p5594
F1
sVcompell'd.
p5595
F1
sVcourt
p5596
F6
sVgibbets
p5597
F1
sVrather
p5598
F2
sVdiseased,
p5599
F1
sVfails,
p5600
F1
sVheadstrong
p5601
F1
sVjustice."
p5602
F1
sValthaea
p5603
F1
sVjoint.
p5604
F1
sVhilding
p5605
F1
sVshort
p5606
F2
sVmusic,
p5607
F1
sVmusic.
p5608
F1
sVwould.
p5609
F1
sVwould,
p5610
F2
sV'tis,
p5611
F1
sVprophesy,
p5612
F1
sVpusillanimity
p5613
F1
sValready,
p5614
F1
sVinward
p5615
F2
sValready.
p5616
F1
sVstrange
p5617
F3
sVmight
p5618
F21
sValready:
p5619
F1
sVbiggen
p5620
F1
sVreturn
p5621
F1
sVlittle,
p5622
F1
sV"i'
p5623
F1
sVlittle;
p5624
F1
sVrepents;
p5625
F1
sVbusses.
p5626
F1
sVparty
p5627
F3
sVhammer,
p5628
F1
sVbest,
p5629
F1
sVaccommodated
p5630
F1
sVlikelihoods
p5631
F1
sVweight
p5632
F2
sVnature's
p5633
F2
sVpamper'd
p5634
F1
sVreverend
p5635
F3
sVdispraised
p5636
F1
sVhealth
p5637
F6
sVhearken
p5638
F1
sVboldness
p5639
F1
sVremember,
p5640
F1
sVsperato
p5641
F1
sVteach
p5642
F1
sVyear's
p5643
F1
sVlinen.
p5644
F1
sVdivorce
p5645
F1
sVawakes?
p5646
F1
sVfallen
p5647
F1
sVfeed
p5648
F2
sVseeming
p5649
F2
sVfeel
p5650
F2
sVwell-known
p5651
F1
sVdint
p5652
F1
sVwench
p5653
F2
sVcenser,
p5654
F1
sVcorporal
p5655
F2
sVstory
p5656
F1
sVthoughts,
p5657
F4
sVaudience;
p5658
F1
sVhangs
p5659
F1
sVaim,
p5660
F1
sVstaffordshire,
p5661
F1
sVsware
p5662
F1
sVstore
p5663
F1
sVpolish'd
p5664
F1
sVweigh'd
p5665
F1
sVking
p5666
F43
sVkind
p5667
F8
sVplainly.
p5668
F1
sVdouble
p5669
F4
sVa-weeping,
p5670
F1
sVstale
p5671
F1
sV[reads.]
p5672
F2
sVtongues
p5673
F3
sVseason,
p5674
F1
sVwell
p5675
F35
sVshrewd
p5676
F1
sVgall
p5677
F1
sVwindow:
p5678
F1
sVnights
p5679
F1
sVmoist
p5680
F2
sVmorton.]
p5681
F1
sVadded
p5682
F1
sVpantler;
p5683
F1
sVgild
p5684
F1
sV"for,"
p5685
F1
sVgilt
p5686
F1
sVseasons
p5687
F1
sVmeasured
p5688
F1
sVachievement
p5689
F1
sVtongue,
p5690
F4
sVsecurity;
p5691
F1
sVwell-appointed
p5692
F2
sVnight:
p5693
F1
sVnight;
p5694
F1
sVlumbert
p5695
F1
sVnight?
p5696
F1
sVsecurity.
p5697
F4
sVnight,
p5698
F5
sVnight.
p5699
F6
sVstones
p5700
F1
sVbending
p5701
F1
sVfond
p5702
F1
sVto-day.
p5703
F1
sVbeard?
p5704
F1
sVto-day;
p5705
F1
sVgilded
p5706
F1
sVstab.
p5707
F1
sVmistook,
p5708
F1
sVoutbreathed,
p5709
F1
sVsteward--get
p5710
F1
sVadvantages.
p5711
F1
sVintreasured.
p5712
F1
sVhis
p5713
F207
sVhowl.
p5714
F1
sVmayest;
p5715
F1
sVsauciness
p5716
F1
sVhie
p5717
F1
sVreply
p5718
F1
sVgeorge's
p5719
F1
sVbeards
p5720
F1
sVhim
p5721
F97
sVstone,
p5722
F1
sVgrievances
p5723
F1
sVtongues.]
p5724
F1
sVned.
p5725
F1
sVart
p5726
F28
sVwenches:
p5727
F2
sVwenches,
p5728
F1
sVbare
p5729
F3
sVare
p5730
F99
sVchambers
p5731
F2
sVarm
p5732
F3
sVcompell'd
p5733
F2
sVhollow,
p5734
F1
sVfind,
p5735
F1
sVmuster-book.
p5736
F1
sVdrooping
p5737
F1
sVhairs
p5738
F1
sVlamenting
p5739
F1
sVchamber.
p5740
F2
sVchamber,
p5741
F1
sVsold
p5742
F1
sVattention
p5743
F1
sVchamber:
p5744
F1
sVchamber;
p5745
F1
sVafter:
p5746
F1
sVdays!
p5747
F2
sVlicense
p5748
F1
sVdost,
p5749
F1
sVfalse,
p5750
F1
sVforward.]
p5751
F1
sVbecame
p5752
F1
sVflies
p5753
F1
sVdrink:
p5754
F1
sVnote-book,
p5755
F1
sVsweet
p5756
F19
sVopposite.
p5757
F1
sVwrongs.
p5758
F1
sVflint;
p5759
F1
sVopposite;
p5760
F1
sVthere,
p5761
F6
sVthere.
p5762
F2
sVbachelor.
p5763
F1
sVdub
p5764
F1
sVdue
p5765
F3
sVsurely,
p5766
F1
sVwhom
p5767
F5
sVthere?
p5768
F2
sVwatchword
p5769
F1
sVpg
p5770
F1
sVthere;
p5771
F1
sVhumours,
p5772
F2
sVup-swarm'd
p5773
F1
sVreason?
p5774
F1
sVliveries,
p5775
F1
sVtilly-fally,
p5776
F1
sVgoodly
p5777
F5
sVdemand
p5778
F1
sVsweating,
p5779
F1
sVconfess,
p5780
F2
sVwho,
p5781
F4
sVjuggler,
p5782
F1
sVwhere,
p5783
F2
sVwhere.
p5784
F1
sVrid
p5785
F1
sVrib
p5786
F1
sVpeopled
p5787
F1
sVaway.
p5788
F3
sVaway,
p5789
F9
sVforetells
p5790
F1
sVaway!
p5791
F4
sVaway?
p5792
F1
sVmanners,
p5793
F2
sVhigher
p5794
F2
sV"receive
p5795
F1
sVlean,
p5796
F2
sVflown
p5797
F1
sVcrafty-sick:
p5798
F1
sVdaughter,
p5799
F2
sVpeople,
p5800
F1
sVtroy,
p5801
F1
sVcountenanced.
p5802
F1
sVcheer
p5803
F1
sVedge
p5804
F1
sVstarved
p5805
F2
sVdares
p5806
F1
sVshow,--there
p5807
F1
sVcontenta.
p5808
F1
sVendeavour
p5809
F1
sVplaces,
p5810
F1
sVcomplain;
p5811
F1
sVerebus
p5812
F1
sVprince
p5813
F48
sVtables
p5814
F1
sVcase.
p5815
F1
sVbutcher's
p5816
F1
sVshape,
p5817
F2
sVoffices,
p5818
F3
sVoffices.
p5819
F1
sVquestion.
p5820
F2
sVscab:
p5821
F1
sVlord,--
p5822
F1
sVdavy;
p5823
F4
sVdavy:
p5824
F2
sVconfront
p5825
F1
sVshapes
p5826
F1
sVtormente,
p5827
F1
sVarthur
p5828
F1
sVdavy.
p5829
F19
sVdavy,
p5830
F9
sVpuffed
p5831
F1
sVdavy!
p5832
F2
sVtable,
p5833
F1
sVcertainties
p5834
F1
sV[singing]
p5835
F1
sVlitter
p5836
F1
sVtends
p5837
F1
sVcome,"
p5838
F1
sVjumps
p5839
F1
sVvice,--
p5840
F1
sVuncounted
p5841
F1
sVmingled
p5842
F1
sVgreets
p5843
F1
sVbleeds
p5844
F1
sVyouthful
p5845
F3
sVbare-headed,
p5846
F1
sVpast;
p5847
F1
sVpage].
p5848
F2
sVliver,
p5849
F1
sVworthies:
p5850
F1
sVtumult!
p5851
F1
sVlone
p5852
F1
sVlong
p5853
F10
sVclement's
p5854
F4
sVjohn:
p5855
F4
sVjohn;
p5856
F3
sVjohn?
p5857
F6
sVfleet:
p5858
F1
sVcompanions."
p5859
F1
sVwelsh,
p5860
F1
sVjohn,
p5861
F29
sVjohn.
p5862
F7
sVupright
p5863
F2
sVsheets.
p5864
F1
sVconsist
p5865
F1
sVcarat,
p5866
F1
sVabbey.
p5867
F1
sVwoncot
p5868
F1
sVcophetua
p5869
F1
sVperfectness
p5870
F1
sVetc.
p5871
F1
sVcalled
p5872
F6
sVwarning
p5873
F1
sVknowledge.
p5874
F1
sVproofs
p5875
F1
sVevils
p5876
F1
sVpeace
p5877
F21
sVsuffer,
p5878
F1
sVmock
p5879
F4
sVnice
p5880
F3
sVeye-drops.
p5881
F1
sVinflame
p5882
F1
sVmeaning
p5883
F1
sVin--
p5884
F1
sVback?
p5885
F1
sVdisdain'd;
p5886
F1
sVabroach
p5887
F1
sVsoul,
p5888
F3
sVvice
p5889
F1
sVwildness
p5890
F2
sVback.
p5891
F2
sVback,
p5892
F1
sVscroll
p5893
F1
sVonce
p5894
F10
sVthrew'st
p5895
F1
sVrules,
p5896
F1
sVmisbecame
p5897
F1
sVfustilarian!
p5898
F1
sVsimon
p5899
F1
sVlattice,
p5900
F1
sVbreach
p5901
F1
sVlower,
p5902
F1
sVt'other
p5903
F1
sVdrinking
p5904
F1
sVrenown'd,
p5905
F1
sVlanguage,
p5906
F1
sVshove-groat
p5907
F1
sVsmaller
p5908
F1
sVcoz;
p5909
F1
sVmalice
p5910
F1
sVdesire;
p5911
F1
sVconcludes
p5912
F1
sVabominable
p5913
F1
sVman's
p5914
F9
sVlarge.
p5915
F1
sVgiant,
p5916
F1
sVbench,
p5917
F1
sVprofaned,
p5918
F1
sVbench.
p5919
F1
sVslender,
p5920
F1
sVones!
p5921
F1
sV[exeunt.]
p5922
F17
sVworship!
p5923
F1
sVworship.
p5924
F2
sVworship,
p5925
F2
sVones.
p5926
F1
sV"neighbour
p5927
F1
sVscales
p5928
F1
sVparrot.
p5929
F1
sVconfession
p5930
F1
sVoffends
p5931
F1
sVa-work;
p5932
F1
sVlodging
p5933
F1
sVlong-a.
p5934
F1
sVuse
p5935
F10
sVfrom
p5936
F81
sVstream
p5937
F2
sVconsumption
p5938
F1
sV&
F2
sVwilliam's
p5939
F1
sVrascal's
p5940
F2
sVfew
p5941
F1
sVweeping
p5942
F1
sVpossession
p5943
F1
sVhard,
p5944
F1
sVinclined
p5945
F1
sVheir
p5946
F3
sVsumm'd
p5947
F1
sVsore
p5948
F1
sVmessenger.
p5949
F1
sVwomen
p5950
F2
sVunpay
p5951
F1
sVus.
p5952
F2
sVus,
p5953
F5
sVill-beseeming
p5954
F1
sVus?
p5955
F1
sVus;
p5956
F1
sVbefits
p5957
F1
sVtap
p5958
F1
sVearnestness
p5959
F1
sVbefallen,
p5960
F1
sVhalf,
p5961
F1
sVvillain
p5962
F1
sVsomething
p5963
F3
sVfashions,
p5964
F1
sVsir
p5965
F71
sVgalls
p5966
F1
sVunited
p5967
F1
sVsit
p5968
F10
sVsix
p5969
F2
sVmine,
p5970
F4
sVinstead
p5971
F1
sVsuccessively.
p5972
F1
sVsin
p5973
F2
sVattend
p5974
F1
sVta?
p5975
F1
sVhazard
p5976
F1
sVdiscomfort
p5977
F1
sVabuse
p5978
F1
sVbrewer's
p5979
F1
sVmercies:
p5980
F1
sVpost-horse,
p5981
F1
sVdrollery,
p5982
F1
sVsummer;
p5983
F1
sVshrews,
p5984
F1
sVmaking;
p5985
F1
sVlooks
p5986
F3
sVtyrant
p5987
F1
sVtables,
p5988
F1
sVease.
p5989
F1
sVworld:
p5990
F2
sVworld;
p5991
F1
sVdorothy;
p5992
F1
sVrestrain
p5993
F1
sVchoose
p5994
F5
sVdorothy.
p5995
F1
sVworld.
p5996
F2
sVworld,
p5997
F3
sVcontention
p5998
F1
sVlook,
p5999
F9
sVsirs.
p6000
F1
sVaffections
p6001
F2
sVgaping
p6002
F1
sVhusbandry
p6003
F1
sVby;
p6004
F1
sVnight's
p6005
F1
sVfeast
p6006
F2
sVby.
p6007
F1
sVwretch,
p6008
F1
sVservant.]
p6009
F2
sVcomposition.
p6010
F1
sVmaintain.
p6011
F1
sVour
p6012
F106
sVout
p6013
F31
sVphrase;
p6014
F1
sVassured,
p6015
F3
sVobstructions
p6016
F1
sVphrase.
p6017
F1
sVinduction
p6018
F1
sVdispleasing
p6019
F1
sVyork
p6020
F1
sVfortune.
p6021
F1
sVsuffice,
p6022
F2
sVphrases
p6023
F1
sVfollows,
p6024
F1
sVwalls,
p6025
F1
sVhence
p6026
F2
sVcain
p6027
F1
sVrespect.
p6028
F1
sVprecepts
p6029
F1
sVplainly
p6030
F1
sVsickness.
p6031
F1
sVdouble-charge
p6032
F1
sVfilial
p6033
F1
sVfaint,
p6034
F1
sVpatient,
p6035
F1
sVtheir
p6036
F54
sVbehind,
p6037
F1
sVpatient:
p6038
F1
sVgod's
p6039
F9
sVhearing.
p6040
F1
sVcavaleros
p6041
F1
sVshallow
p6042
F6
sVlethe,
p6043
F1
sVjoys.
p6044
F1
sVman-at-arms
p6045
F1
sVhumours
p6046
F1
sVtherefore,
p6047
F5
sVretreat;
p6048
F1
sVabated,
p6049
F1
sVcomes;
p6050
F1
sVcomes.
p6051
F1
sVmadmen,
p6052
F1
sVrout
p6053
F1
sVadmittance
p6054
F1
sVfrancis.
p6055
F2
sVcotswold
p6056
F1
sVensue,
p6057
F1
sVwhich
p6058
F73
sVfie!
p6059
F2
sVdivers
p6060
F1
sVstray:
p6061
F1
sVwho
p6062
F25
sVo'ershine
p6063
F1
sVwhy
p6064
F14
sVprophecies
p6065
F1
sVdeny
p6066
F4
sVfang
p6067
F3
sVeurope:
p6068
F1
sVpipe
p6069
F1
sVsword.]
p6070
F2
sVchances
p6071
F2
sVword,
p6072
F5
sVpleases
p6073
F1
sVword.
p6074
F4
sVunfather'd
p6075
F1
sVone.
p6076
F1
sVutter
p6077
F2
sVfear
p6078
F14
sVone;
p6079
F1
sVdebate
p6080
F1
sVspurring
p6081
F1
sVword:
p6082
F2
sVtrue,
p6083
F4
sVtrue.
p6084
F3
sVmany,
p6085
F1
sVtrue:
p6086
F1
sVyea-forsooth
p6087
F1
sVthousands
p6088
F1
sVcrowned,
p6089
F1
sVsanctities
p6090
F1
sVwill't
p6091
F1
sVmade
p6092
F15
sVsirrah.
p6093
F1
sVwords
p6094
F4
sVplease.
p6095
F1
sVepilogue.
p6096
F2
sVspur
p6097
F2
sVthousand.
p6098
F2
sVmarried
p6099
F1
sVthousand?
p6100
F1
sVto-night.
p6101
F2
sVstrengthless
p6102
F1
sVebb
p6103
F3
sVdagonet
p6104
F1
sVfantastically
p6105
F1
sVcoleville.
p6106
F1
sVscoured
p6107
F1
sVground,
p6108
F1
sVcrudy
p6109
F1
sVmonstrous
p6110
F2
sVworship
p6111
F4
sVgenius
p6112
F1
sVattended.]
p6113
F1
sVbullets.
p6114
F1
sVcommand,
p6115
F1
sVbought
p6116
F1
sVswift
p6117
F1
sVeyes,
p6118
F3
sVclose;
p6119
F1
sVknight,"--every
p6120
F1
sVsafely
p6121
F1
sVwalk
p6122
F1
sVinvincible:
p6123
F1
sVnumbers,
p6124
F2
sVworldly
p6125
F1
sVforbear
p6126
F1
sVtable
p6127
F1
sVesquire:
p6128
F1
sVchoice;
p6129
F2
sVsick'd
p6130
F1
sVrich.
p6131
F1
sVrich,
p6132
F1
sVpainted
p6133
F1
sVsufficient
p6134
F1
sVatonement
p6135
F1
sVjades
p6136
F1
sVpresent
p6137
F12
sVsanctify
p6138
F1
sVwilt
p6139
F16
sVwill
p6140
F142
sVlived,
p6141
F1
sVbackbite.
p6142
F1
sVconceive.
p6143
F1
sVringing
p6144
F1
sVelbow;
p6145
F1
sVrome,
p6146
F1
sVgreat-grandsire,
p6147
F1
sVelbow.
p6148
F1
sVscruple,
p6149
F1
sVthese,
p6150
F1
sVattendance.]
p6151
F1
sVduteous
p6152
F1
sVconversations
p6153
F1
sVinch
p6154
F2
sVmaster's.
p6155
F1
sVthrongs
p6156
F1
sVwhale
p6157
F1
sVothers.]
p6158
F5
sVaudience:
p6159
F1
sVwarming
p6160
F1
sVwhole
p6161
F5
sVfighting
p6162
F1
sVenglish
p6163
F4
sVned?
p6164
F1
sVcreditors,
p6165
F1
sVlooked
p6166
F1
sVcried
p6167
F1
sVonly,
p6168
F1
sVcries
p6169
F1
sVned,
p6170
F4
sVsherris-sack
p6171
F1
sVhappiness
p6172
F3
sVbedfellow?
p6173
F2
sVcourtesy,
p6174
F1
sVsky
p6175
F1
sVlose.
p6176
F1
sVother
p6177
F22
sVcourtesy;
p6178
F1
sVsick
p6179
F7
sVcame,
p6180
F1
sVwho's
p6181
F1
sVcloak.
p6182
F1
sVreasonable.
p6183
F1
sVknow
p6184
F30
sVpresume
p6185
F1
sVhollow
p6186
F2
sV"your
p6187
F2
sVfrench,
p6188
F2
sVperpetual
p6189
F1
sVgalloway
p6190
F1
sVroundly
p6191
F1
sVtraitors
p6192
F1
sVbecause
p6193
F4
sVdamn'd
p6194
F1
sVsearching
p6195
F1
sVgrowth
p6196
F1
sVpast,
p6197
F1
sVpast.
p6198
F1
sVemployment
p6199
F1
sVlead
p6200
F5
sVwheat,
p6201
F1
sVlean
p6202
F1
sVsake,
p6203
F5
sVwheat?
p6204
F1
sVcool'd.
p6205
F1
sVleader
p6206
F2
sVtardily
p6207
F1
sVobey
p6208
F1
sVswaggerer
p6209
F1
sVmurdered
p6210
F1
sVconfined,
p6211
F1
sVconfined!
p6212
F1
sVyours!
p6213
F1
sVtraitor,
p6214
F1
sVpike
p6215
F1
sVthrong
p6216
F1
sVoffer;
p6217
F1
sVcarried
p6218
F1
sVsaddle
p6219
F1
sVhimself,
p6220
F1
sVsurge
p6221
F1
sVacts:
p6222
F1
sVswear
p6223
F4
sVsweat
p6224
F2
sVhimself:
p6225
F1
sVhimself;
p6226
F1
sVown
p6227
F21
sVwilderness
p6228
F1
sVowe
p6229
F5
sVpromise
p6230
F3
sVgape
p6231
F1
sVfloods,
p6232
F1
sVcaptains
p6233
F3
sVbreeding
p6234
F1
sVfaitors!
p6235
F1
sVbrawl,
p6236
F1
sVperform'd
p6237
F1
sVcaptain?
p6238
F1
sVwhether
p6239
F7
sVthis,
p6240
F4
sVthis.
p6241
F2
sVcaptain,
p6242
F7
sVcaptain.
p6243
F2
sVthis;
p6244
F4
sVcaptain!
p6245
F4
sVthis?
p6246
F1
sVmass,
p6247
F7
sV"si
p6248
F1
sVinset
p6249
F1
sVtrigon,
p6250
F1
sVbook
p6251
F3
sVbranch
p6252
F1
sVvolume:
p6253
F1
sVnew-dated
p6254
F1
sVfrustrate
p6255
F1
sVprodigal,
p6256
F1
sVshall,
p6257
F1
sVshall.
p6258
F1
sVroar.
p6259
F1
s.