ccollections
defaultdict
p1
(c__builtin__
float
p2
tRp3
Vshouted,
p4
F1
sVborder."
p5
F1
sVfoul
p6
F4
sVfour
p7
F3
sVwoods
p8
F9
sVpreface
p9
F1
sVvassals
p10
F1
sVmarching
p11
F2
sVattracted
p12
F1
sVslackened
p13
F1
sVviii.,
p14
F1
sVlore
p15
F1
sVlord
p16
F33
sVparsonage,
p17
F1
sVanointed."
p18
F1
sVwood,
p19
F6
sVyellow
p20
F5
sVbringing
p21
F2
sVmeadow,
p22
F2
sVuttering
p23
F1
sVprize
p24
F2
sVabbotsford,
p25
F1
sVhague
p26
F1
sVbook--with
p27
F1
sVneale,
p28
F1
sVspoken,
p29
F1
sVspoken.
p30
F1
sVher.
p31
F10
sVnigh
p32
F2
sVher,
p33
F17
sVhanging
p34
F4
sVffor
p35
F2
sVcontinued--
p36
F1
sVrampart
p37
F1
sVsecond
p38
F5
sV&c
p39
F1
sVvaliant
p40
F1
sV1617-18.
p41
F1
sVsailed
p42
F4
sVsterile
p43
F1
sVreport?
p44
F1
sVlichfield;
p45
F1
sVruthless
p46
F2
sVthunder
p47
F1
sVfingers
p48
F4
sVshouted:
p49
F1
sVharewood,
p50
F1
sVincreasing
p51
F1
sVastonishment,
p52
F1
sVhero
p53
F5
sVhe--
p54
F1
sV"sixteen
p55
F1
sVhere
p56
F19
sVreported
p57
F3
sVglass,
p58
F2
sVshriek
p59
F2
sV(1644),
p60
F1
sVshock.
p61
F2
sVjoel,
p62
F1
sVelaborate
p63
F1
sV"why
p64
F6
sVhitherto,
p65
F1
sVsooner.
p66
F1
sVxiv.
p67
F2
sVmilitary
p68
F8
sV"who
p69
F7
sVcircumstance,
p70
F2
sVgolden
p71
F5
sVchurch.]
p72
F3
sVsecluded
p73
F3
sVlees,
p74
F1
sVgloaming
p75
F1
sVsummons
p76
F2
sVbrought
p77
F18
sVthrone,--now,
p78
F1
sVstern
p79
F3
sVvinehall
p80
F1
sVopponents
p81
F1
sVfame.
p82
F2
sVfame,
p83
F2
sVhyde).
p84
F1
sVspoke
p85
F7
sVcross-hilted
p86
F1
sVescarpment
p87
F1
sVmusic
p88
F4
sVtherefore
p89
F2
sVviolently
p90
F1
sVstrike
p91
F3
sVheralded
p92
F2
sVsermons
p93
F1
sVuntil
p94
F32
sVgallows.
p95
F2
sVholy
p96
F9
sVgallows,
p97
F5
sVsuccessful
p98
F3
sVbrings
p99
F1
sVhusband.
p100
F2
sVgallows;
p101
F1
sVglass
p102
F2
sVmidst
p103
F3
sVhold
p104
F11
sVcircumstances
p105
F3
sVii.,
p106
F2
sVlocked
p107
F2
sVpursue
p108
F1
sVblade
p109
F5
sVplunged
p110
F3
sVjune,
p111
F1
sVitself
p112
F4
sVleaped
p113
F4
sVlaughter,
p114
F2
sVlaughter.
p115
F1
sVmatilda
p116
F5
sVrocks.
p117
F1
sVhousehold
p118
F2
sVartillery
p119
F1
sVhope,
p120
F1
sVthat."
p121
F2
sVexpressed,
p122
F1
sVwant
p123
F7
sVrobinson,
p124
F1
sVaround.
p125
F1
sVhog
p126
F1
sVaround,
p127
F1
sVhon
p128
F1
sVtravel
p129
F3
sVdrying
p130
F1
sVfeature
p131
F2
sVhow
p132
F20
sVhot
p133
F6
sVwin.
p134
F1
sVyouth,
p135
F2
sVyouth.
p136
F1
sVpalaces
p137
F1
sVprayer--strange
p138
F1
sVbeauty
p139
F3
sVsorcery--laws
p140
F1
sVgrandchild,
p141
F1
sVdestined
p142
F2
sVstaley.
p143
F2
sVstaley,
p144
F5
sVho.
p145
F1
sVendeavoured
p146
F2
sVyouths
p147
F2
sVheadquarters
p148
F1
sVkeeps
p149
F1
sVwing
p150
F1
sVwind
p151
F7
sVstuarts.
p152
F2
sVwelcomed
p153
F3
sVdreamed
p154
F2
sVbeings,
p155
F1
sV"lewin
p156
F1
sVfidelity
p157
F1
sVwrought
p158
F2
sVsprang,
p159
F1
sVadmirably
p160
F1
sVdied.
p161
F4
sVfit
p162
F4
sVdied,
p163
F2
sVlyeth
p164
F1
sV"drop
p165
F1
sVdistinguishing
p166
F1
sVnobler
p167
F1
sVnobles
p168
F3
sVhidden
p169
F4
sVadmirable
p170
F1
sVeasier
p171
F1
sVthey?"
p172
F1
sVgrievous
p173
F2
sVlambert
p174
F1
sVnesta,
p175
F2
sVportrait.--(a
p176
F1
sVtownship
p177
F11
sVsilver
p178
F2
sVrumour
p179
F2
sVrepresents
p180
F1
sVblushes
p181
F1
sV'ish,
p182
F3
sVarrow
p183
F3
sVloins,
p184
F1
sVblushed
p185
F1
sVburial
p186
F3
sVbrain,
p187
F2
sVgarment
p188
F1
sVenemy--which
p189
F1
sVcathedral
p190
F1
sVabbot,
p191
F1
sVpresent,
p192
F2
sVblinded
p193
F2
sVborne
p194
F2
sVtoleration
p195
F1
sVspeed.
p196
F1
sVsalutis--1668;
p197
F1
sVrecognising
p198
F2
sVmusician,
p199
F1
sVraiding.
p200
F1
sVro
p201
F21
sVoutburst
p202
F1
sVsexton
p203
F3
sVfoundation
p204
F1
sVmd.
p205
F1
sVabbots
p206
F2
sVassured
p207
F1
sVthreatened
p208
F2
sVfugitive
p209
F2
sVborn.
p210
F1
sVpersons.
p211
F1
sVoccasionally,
p212
F1
sVuniversally
p213
F1
sVsilent
p214
F3
sVenormous
p215
F1
sVperhaps,
p216
F2
sVgreen."
p217
F1
sVatt
p218
F8
sVbated
p219
F1
sVsong:--
p220
F1
sVr.
p221
F1
sVwhirlwind
p222
F1
sVterrible--who
p223
F1
sVwaists
p224
F1
sVhinds.
p225
F1
sVmeadows,
p226
F2
sVenemies."
p227
F1
sV"laying
p228
F1
sVmelandryon,
p229
F1
sVreward.
p230
F1
sVspecially
p231
F6
sVservice
p232
F9
sVbodyguard,
p233
F1
sVforthwith.
p234
F2
sVsobs,
p235
F1
sVneeded
p236
F2
sVcheshire--or
p237
F1
sVmaster
p238
F18
sVradcliffe,
p239
F1
sVlegs
p240
F1
sVsure,
p241
F1
sVhay,
p242
F1
sVlisten
p243
F3
sVmiller,
p244
F1
sVrelative
p245
F2
sVsaucers.
p246
F1
sVwisdom
p247
F1
sVfalling,
p248
F1
sVwas,
p249
F19
sVcoursers
p250
F1
sVoldfield.
p251
F2
sVperil
p252
F3
sVshowed
p253
F8
sVcoward
p254
F1
sVcrave
p255
F1
sVxi.
p256
F2
sVproperty.
p257
F1
sVproject
p258
F1
sVidle
p259
F1
sVexclaimed
p260
F1
sVfeeling
p261
F2
sVold,
p262
F2
sVacquisition
p263
F1
sVold.
p264
F2
sVlife--the
p265
F1
sVgate--great
p266
F1
sVwell,
p267
F6
sVhacking,
p268
F1
sVdefenceless,
p269
F1
sVdefenceless.
p270
F1
sVpomp
p271
F1
sVaffairs
p272
F3
sVtown."
p273
F2
sVgreenwood,
p274
F1
sVgovernors,
p275
F1
sVaffirmative,
p276
F1
sVdwelling."
p277
F1
sVgreenwood:
p278
F1
sVcausing
p279
F1
sVdoors
p280
F3
sVclough.
p281
F5
sVyonder!"
p282
F1
sVun-christian
p283
F1
sVimprudent
p284
F1
sVlong;
p285
F1
sVcorn.
p286
F1
sVltd.
p287
F1
sVshall
p288
F57
sVmersey,
p289
F1
sVmersey.
p290
F1
sVobject
p291
F2
sVmusic,
p292
F1
sV"black
p293
F3
sVvictoria
p294
F1
sVwench.
p295
F1
sVlong.
p296
F1
sVreverence
p297
F1
sVlong,
p298
F2
sVwench"
p299
F1
sVredressing
p300
F2
sVshalt
p301
F10
sVhaunted.
p302
F1
sVgrip,
p303
F1
sVdoor,
p304
F4
sVcamp
p305
F5
sVretreated.
p306
F1
sVrattled,
p307
F1
sVdesirous
p308
F3
sVyouth,--now
p309
F1
sVfugitives
p310
F3
sVnineteenth
p311
F6
sVderbyshire
p312
F3
sVcame
p313
F73
sV12d.
p314
F1
sVsaying
p315
F6
sVtitle),
p316
F1
sVdeparting
p317
F1
sVnodded
p318
F2
sVblazed
p319
F1
sVbonnie
p320
F2
sVterror,
p321
F1
sVrise,
p322
F1
sVterror.
p323
F4
sVunearthed.
p324
F1
sVtempted
p325
F1
sVhounded
p326
F1
sV1547
p327
F1
sVbusy
p328
F5
sVmaids.
p329
F1
sVprize--the
p330
F1
sVmaids,
p331
F2
sVappreciated
p332
F1
sVtheme
p333
F1
sVtouched
p334
F4
sVrich
p335
F7
sVdownwards,
p336
F1
sVfoolishly
p337
F1
sVgreen,
p338
F10
sVgreen.
p339
F1
sVplate
p340
F1
sVaccompts
p341
F1
sVslackened,
p342
F1
sVlady,"
p343
F2
sVrest,
p344
F2
sVwane.
p345
F1
sVforemost
p346
F1
sValtogether
p347
F7
sV"nay,
p348
F1
sVrandal
p349
F1
sVmen?
p350
F1
sVpposicon
p351
F1
sVthem?
p352
F1
sVblanched
p353
F3
sVwife--the
p354
F1
sVthem;
p355
F2
sVproduced.
p356
F1
sVmen,
p357
F15
sVmen.
p358
F14
sVmen)
p359
F1
sVwarder,"
p360
F1
sVthem.
p361
F9
sVthem,
p362
F14
sVmaidens,
p363
F2
sVmaidens.
p364
F1
sVblew
p365
F1
sVfork,"
p366
F1
sVfair
p367
F29
sVcollonell
p368
F3
sVunexpectedly
p369
F1
sVbreezes."
p370
F1
sVmatter;
p371
F1
sVfail
p372
F1
sVtestamentary
p373
F1
sVloose?"
p374
F1
sVcaledon,
p375
F3
sVbest
p376
F18
sVscreams
p377
F1
sVambitions
p378
F1
sVquest,
p379
F2
sV"touched"
p380
F1
sVrings
p381
F2
sVadventure.
p382
F2
sVscore
p383
F4
sVscorn
p384
F1
sVparysshen
p385
F1
sVpreserve
p386
F3
sVnever
p387
F40
sVnature
p388
F8
sVrolled
p389
F2
sVindeed."
p390
F1
sVunseemly
p391
F1
sVextent
p392
F2
sVcenturio
p393
F1
sVwth
p394
F1
sVdebt
p395
F1
sV"stop
p396
F2
sVpity
p397
F4
sVeasily,"
p398
F1
sVhiding.
p399
F1
sVdescribed.
p400
F1
sVrefinement
p401
F1
sVcountry
p402
F26
sVdemanded
p403
F1
sVring,
p404
F3
sVestates
p405
F1
sVderby.
p406
F2
sVxv.
p407
F2
sVadapted
p408
F3
sVasked
p409
F21
sVfearlessly
p410
F1
sVsalarie
p411
F1
sVrequire?"
p412
F1
sVmossey
p413
F1
sVdoubt,
p414
F1
sVdoubt.
p415
F2
sVsev'all
p416
F2
sVmoney,
p417
F1
sVglossop
p418
F3
sV250
p419
F1
sVhamnet.
p420
F1
sVthomas.
p421
F1
sVthomas,
p422
F1
sVunion
p423
F3
sVremained
p424
F4
sVquarrelling
p425
F1
sVvii,
p426
F1
sVvii.
p427
F2
sVstartled
p428
F7
sVall--for
p429
F1
sVsuperhuman
p430
F1
sV"one
p431
F3
sVlife
p432
F17
sVhamnett
p433
F1
sVtremour.
p434
F1
sVsubstance
p435
F2
sVchild
p436
F11
sVcrucible,
p437
F1
sVscotchmen
p438
F3
sVoldham.
p439
F3
sVangry.
p440
F1
sVoldham,
p441
F1
sVescape--why
p442
F1
sVtried,
p443
F2
sVtaper
p444
F1
sVemploy
p445
F1
sVappeals
p446
F1
sVprostrate
p447
F1
sVremembering
p448
F1
sV"hast
p449
F2
sVtrees.
p450
F2
sVsaid:
p451
F6
sVtrees,
p452
F2
sVconsent,
p453
F2
sVobeying
p454
F1
sVpebbles,
p455
F1
sVthee,
p456
F13
sVsouth.
p457
F1
sVsouth,
p458
F2
sVsaid,
p459
F10
sVsaid.
p460
F3
sVpieces,
p461
F2
sV"oh,
p462
F4
sVthings
p463
F13
sVjuly,
p464
F1
sVprocession,--calculated
p465
F1
sVdamages
p466
F2
sVhairsbreadth,
p467
F1
sVpassed.
p468
F1
sVpassed,
p469
F8
sVwoolley
p470
F1
sVcried:
p471
F1
sVcrusader.
p472
F1
sVfairly
p473
F3
sVboiled
p474
F1
sVpermit
p475
F3
sVtops
p476
F1
sVtithes,
p477
F1
sVmarched
p478
F9
sVsaide
p479
F1
sVownership
p480
F1
sVsupper
p481
F1
sVi'm
p482
F2
sVhon.
p483
F1
sVprice."
p484
F1
sVacquiescence.
p485
F1
sVechoed
p486
F1
sVbonny
p487
F3
sVreplied,
p488
F1
sVwhich,
p489
F9
sVechoes
p490
F1
sVmcccclxxxvijth,
p491
F1
sVastir,
p492
F2
sVrally,
p493
F1
sVastir.
p494
F1
sV(1702).
p495
F1
sVopinions
p496
F2
sVboyhood
p497
F1
sVdisguise
p498
F1
sVsovereigns
p499
F1
sVrushing
p500
F2
sVsucceeding
p501
F1
sVprevious
p502
F1
sVpistols,
p503
F3
sVold-fashioned
p504
F4
sVhad
p505
F291
sVhag
p506
F4
sVinnocent
p507
F3
sVhas
p508
F51
sVharrop,
p509
F1
sVhills--traditions
p510
F1
sVcadster,
p511
F1
sVelders
p512
F1
sVpossible
p513
F3
sVpossibly
p514
F3
sVsleep,
p515
F2
sVshadow
p516
F1
sVsleep.
p517
F1
sVlass,
p518
F2
sVdesire
p519
F6
sVwar.
p520
F5
sVburyed
p521
F1
sValice
p522
F1
sVremind
p523
F1
sVgrand--which
p524
F1
sVsteps
p525
F3
sVenter,
p526
F1
sVbattlefield
p527
F1
sVmargaret
p528
F2
sVright
p529
F16
sVold
p530
F111
sVcrowd
p531
F3
sVpeople
p532
F29
sVthus:--"traditions
p533
F1
sVcrown
p534
F2
sVterrace,
p535
F1
sVfemale.
p536
F2
sVleft,
p537
F4
sVstealthily
p538
F1
sVyork,
p539
F1
sVenemies
p540
F2
sVgasps
p541
F1
sVperchance
p542
F1
sVfor
p543
F374
sVfoe
p544
F6
sVcitizen,
p545
F2
sVsummoned
p546
F2
sVpondered
p547
F1
sVloosened,
p548
F1
sVstoke,
p549
F2
sVpalatable
p550
F1
sVbequests,
p551
F1
sVboggart."
p552
F1
sVcheadle
p553
F2
sVyoke
p554
F2
sVlosing
p555
F3
sVmemorable
p556
F1
sVcitizens
p557
F2
sVo
F2
sVtwain,
p558
F1
sVhomesteads
p559
F2
sVslightly
p560
F1
sVghosts.
p561
F1
sVghosts,
p562
F2
sVraised
p563
F12
sVsob
p564
F2
sVsoe
p565
F2
sVeagerly;
p566
F1
sVmarshall
p567
F1
sVnought
p568
F2
sVson
p569
F22
sVrespectable
p570
F1
sVraises
p571
F1
sVsow
p572
F1
sVexcuse--could----"
p573
F1
sVeasy
p574
F5
sVeagerly.
p575
F1
sVjourneying
p576
F1
sVdue,
p577
F1
sVfields.
p578
F2
sVfields,
p579
F4
sVwaits
p580
F1
sVlay.
p581
F1
sVinvasion--bands
p582
F1
sVconstantly
p583
F2
sVtame
p584
F3
sVfields;
p585
F1
sVminute's
p586
F1
sVarray,
p587
F1
sVresulted
p588
F1
sVhalls
p589
F2
sVhappy
p590
F5
sVinsurrection
p591
F1
sV"is't
p592
F1
sVoffer
p593
F5
sVfascination
p594
F1
sV"show
p595
F1
sVso,
p596
F11
sVso.
p597
F2
sVshrilly
p598
F1
sVthickness,
p599
F1
sVkiss.
p600
F1
sVso?
p601
F1
sVhall.
p602
F4
sVhall,
p603
F14
sVeyres
p604
F1
sVinside
p605
F4
sVstories,
p606
F2
sVdiscarding
p607
F1
sVopen-air
p608
F1
sVsolicitor,
p609
F2
sVhall;
p610
F1
sVor,
p611
F2
sVwait.
p612
F2
sVtime,"
p613
F1
sVcouplet:--
p614
F1
sVproud
p615
F9
sVproved
p616
F5
sVwoley.
p617
F1
sVwoley,
p618
F1
sVundergrowth.
p619
F1
sVwarhill,
p620
F1
sVwent.
p621
F1
sVlore,
p622
F1
sVlore.
p623
F1
sVprotested
p624
F2
sVbanner,
p625
F2
sVdotted
p626
F1
sVfloor
p627
F1
sV&c]
p628
F1
sVcrowns
p629
F1
sVuttered
p630
F5
sVvanished.
p631
F2
sVvanished,
p632
F2
sVambitious
p633
F1
sVwithstand.
p634
F1
sVdirk,
p635
F1
sVhurled
p636
F2
sVdeathbed
p637
F1
sVintent
p638
F2
sV'a
p639
F1
sVrolling
p640
F1
sVservants,
p641
F1
sValive--gives
p642
F1
sVcrown,
p643
F2
sVcrown.
p644
F2
sVtime
p645
F53
sVgoaded
p646
F1
sVbanners
p647
F1
sVghost-noises
p648
F1
sVchivalry,
p649
F1
sVchair
p650
F2
sVquartered
p651
F2
sVbattle,
p652
F8
sVcoincidence,
p653
F1
sVraysinge
p654
F1
sV"fought
p655
F1
sVrecipient
p656
F1
sVlost).
p657
F1
sVchoice
p658
F2
sVgloomy
p659
F2
sVstays
p660
F1
sVchild,
p661
F6
sVchild.
p662
F2
sVdirge
p663
F1
sVwondrously
p664
F1
sVpoor,
p665
F1
sVpoor.
p666
F1
sVmoors,
p667
F1
sVgood,
p668
F2
sVrights
p669
F1
sVleave
p670
F10
sVsettle
p671
F3
sVcooke
p672
F1
sVinscribed
p673
F6
sVcompressed,
p674
F1
sVinclination
p675
F1
sVprevent
p676
F2
sVrents
p677
F1
sVmoaned.
p678
F1
sVsister.
p679
F1
sVyard,
p680
F3
sVrobber-bands
p681
F1
sVaspland,
p682
F1
sVcrescent
p683
F1
sVredress.
p684
F1
sVrude,"
p685
F1
sVxxth
p686
F1
sVaxes
p687
F3
sVsuggestive
p688
F1
sVmelt
p689
F1
sVpresence,
p690
F1
sVfreaks
p691
F1
sVsaw.
p692
F1
sVparted--the
p693
F1
sVfalling
p694
F4
sVcrashing
p695
F1
sVdust.
p696
F2
sVhonour
p697
F11
sVfuneral
p698
F1
sVagreement
p699
F1
sVknowest,
p700
F1
sVtrail.
p701
F2
sVyards
p702
F2
sVaddress
p703
F1
sValone
p704
F7
sValong
p705
F15
sVrocks"--the
p706
F1
sValdermen,
p707
F1
sVendow
p708
F1
sVsecond's
p709
F1
sVwherever
p710
F1
sVcommonly
p711
F1
sVcrumbled
p712
F1
sVcountryside,
p713
F1
sVill-fated
p714
F1
sVcatch.
p715
F1
sVfulsome
p716
F1
sVrider.
p717
F1
sVrider,
p718
F1
sVtasks
p719
F2
sVlove
p720
F26
sVinch--the
p721
F1
sVprefer
p722
F1
sVbeggary.
p723
F1
sVbloody
p724
F4
sVrelations.
p725
F1
sVbe."
p726
F1
sVmarble,
p727
F1
sVrelating
p728
F1
sVslept.
p729
F1
sVit,"
p730
F1
sVworking
p731
F2
sVperished
p732
F1
sVoldham
p733
F2
sVangry
p734
F3
sVtrainer's
p735
F1
sVdruids
p736
F2
sVvigour
p737
F1
sVopposed
p738
F2
sVwondering
p739
F2
sVbasin-like
p740
F1
sVwicked
p741
F6
sVscratched
p742
F2
sVlocked--have
p743
F1
sVseries.
p744
F1
sVafford
p745
F1
sVapparent
p746
F2
sVblood;
p747
F1
sVrefrain
p748
F3
sVsweetheart.
p749
F1
sVignorant
p750
F1
sVvirtue
p751
F1
sVblood.
p752
F2
sVblood,
p753
F1
sVtask,
p754
F4
sVriders
p755
F1
sVbehalf
p756
F2
sVmodernised
p757
F1
sVanything
p758
F6
sVseen.
p759
F1
sVoriginally
p760
F1
sVpretend
p761
F1
sVimagination.
p762
F3
sVprivy
p763
F2
sVimagination,
p764
F1
sVnether
p765
F2
sVstated,
p766
F1
sVdruid,
p767
F2
sVdispossess
p768
F1
sVstature
p769
F2
sVfollowing
p770
F25
sVdetached
p771
F1
sVarm."
p772
F1
sVanxiously,
p773
F1
sVheard;
p774
F1
sVanxiously.
p775
F1
sVparishes
p776
F2
sV"old
p777
F2
sVawesome
p778
F2
sVheard,
p779
F5
sVlion's
p780
F1
sVscrofula,
p781
F1
sVstole
p782
F4
sVregardest
p783
F1
sVwinter
p784
F3
sVdivided
p785
F2
sVinglewood,
p786
F1
sVchanted,
p787
F1
sVcannon
p788
F1
sVfighting-men
p789
F1
sVlisten,
p790
F1
sVwell-armed
p791
F2
sVlisten.
p792
F2
sVofficer."
p793
F1
sVmerlewood,
p794
F1
sVhide,
p795
F1
sVspot
p796
F15
sVesk,
p797
F1
sVdate
p798
F7
sVsuch
p799
F48
sVfilthy
p800
F1
sVcrutch,
p801
F1
sVnamptwicke,
p802
F1
sVnatural
p803
F2
sVconscious
p804
F1
sVsr
p805
F2
sVspeakest
p806
F2
sVst
p807
F1
sVso
p808
F130
sVdoom.
p809
F1
sVswollen
p810
F1
sVpulled
p811
F5
sVnoteworthy
p812
F1
sVrecord,
p813
F1
sVyears
p814
F15
sVcourse
p815
F9
sVyeare
p816
F3
sVlancaster,
p817
F3
sVboars,
p818
F1
sVtore
p819
F1
sVlimbs
p820
F2
sVhaughty
p821
F6
sVdid,
p822
F1
sVdid.
p823
F1
sVattraction
p824
F1
sVhubbub
p825
F1
sVdead.
p826
F6
sVescutcheon
p827
F1
sVtroubled
p828
F4
sVdecades
p829
F2
sVpetition
p830
F1
sVmused
p831
F1
sVconveying
p832
F1
sVmossland
p833
F2
sVthereby
p834
F2
sVexecutors
p835
F2
sVthine,
p836
F3
sVthine.
p837
F2
sVnation
p838
F2
sVyear,
p839
F2
sVanswer
p840
F4
sVyear.
p841
F1
sVcompelled
p842
F3
sVwife--and
p843
F1
sVhastily,"
p844
F1
sVmaintaining
p845
F2
sVunfruitful
p846
F1
sVsalmons,
p847
F1
sVbeldame
p848
F1
sVofficious-looking
p849
F1
sVreleased,
p850
F1
sVtrouble.
p851
F1
sVexplored,
p852
F1
sVnurse's
p853
F1
sVquarter
p854
F2
sVrepaired
p855
F1
sVlimb,
p856
F1
sVswindells,
p857
F1
sVbursting
p858
F1
sVhalted.
p859
F1
sVreceipt
p860
F1
sVoverhead,
p861
F2
sVowing
p862
F3
sVminx,"
p863
F1
sVsmall,
p864
F4
sVneighbourhood
p865
F5
sVlaugh:
p866
F1
sVdisguise,
p867
F2
sVcontained
p868
F4
sVonrush
p869
F1
sVinternet
p870
F1
sVbe-nighted
p871
F1
sVsiege
p872
F2
sVlancashire."
p873
F1
sVearwaker,
p874
F1
sVquite
p875
F17
sVbills,
p876
F2
sVinwardly
p877
F1
sVnovember,
p878
F1
sVbesides
p879
F2
sVredfern)
p880
F1
sVevermore,
p881
F1
sVtraining
p882
F1
sVdisguised
p883
F1
sVwanderers
p884
F1
sVmassive
p885
F5
sV"pass
p886
F1
sVlearning,
p887
F1
sVclear,"
p888
F1
sV"castle"
p889
F1
sVshaw,
p890
F4
sVone
p891
F136
sVopen
p892
F8
sVlanguish
p893
F1
sVcoins,
p894
F2
sVcity
p895
F4
sVwrath
p896
F1
sVoccupy
p897
F1
sVbite
p898
F1
sVburst
p899
F8
sVgod-fearing,
p900
F1
sV2
F2
sVthyself.
p901
F2
sVtrim."
p902
F1
sVon.
p903
F5
sVfallen,
p904
F3
sVon,
p905
F10
sVmuch)
p906
F1
sVblows,
p907
F3
sVmuch,
p908
F1
sVmen-at-arms
p909
F4
sVspoken
p910
F6
sVsnatch
p911
F1
sVherds
p912
F1
sVhulme's
p913
F1
sVgoose-wing
p914
F1
sVwaylaid
p915
F1
sVwilliam,
p916
F2
sVstructure,
p917
F1
sVpomfret,
p918
F1
sVrival
p919
F3
sVho!
p920
F2
sV"know
p921
F1
sVauthority.
p922
F1
sVsiding
p923
F1
sVfuture
p924
F2
sVwandering
p925
F2
sVdamned
p926
F2
sVprospect
p927
F2
sVremark.
p928
F1
sVturned
p929
F22
sVargument
p930
F1
sVsad
p931
F4
sVsay
p932
F16
sVrained
p933
F1
sVburied
p934
F13
sVcountenance--looked
p935
F1
sVborough
p936
F1
sVsaw
p937
F22
sVsat
p938
F11
sVlaw,
p939
F3
sVbull."
p940
F1
sVfashionable
p941
F1
sVwarriors
p942
F14
sVtouch;
p943
F1
sVaside
p944
F3
sVnote
p945
F2
sVgraciously
p946
F1
sVgoodman
p947
F1
sVtouch"
p948
F1
sVtranscribed
p949
F1
sVtake
p950
F14
sVtouch.
p951
F2
sV(w.
p952
F2
sVprinter
p953
F2
sVopposite
p954
F3
sVcandidly
p955
F1
sVknew
p956
F17
sVsky."
p957
F1
sVlocation.
p958
F1
sVfollowing--"i
p959
F1
sVafternoon,
p960
F1
sVprinted
p961
F1
sVsockets,
p962
F1
sVanything,
p963
F1
sVdrive
p964
F2
sVburied."
p965
F1
sVheroes;
p966
F1
sVbade
p967
F3
sVwarrior,
p968
F3
sVaxe
p969
F8
sVnot,
p970
F4
sVnot.
p971
F1
sVsalt
p972
F1
sVtrembled
p973
F4
sVlaws
p974
F3
sVmossland.
p975
F1
sVmossland,
p976
F2
sVmighty;
p977
F1
sVmossland?
p978
F1
sVbright
p979
F8
sVplatt,
p980
F1
sVscarce
p981
F1
sVhostilities.
p982
F1
sVimagined
p983
F1
sVroby
p984
F1
sVtransact
p985
F2
sVcloak
p986
F1
sV1668,
p987
F1
sVtears
p988
F5
sVgoing
p989
F6
sVequipped
p990
F1
sVoutrage
p991
F1
sVswine,
p992
F1
sVnothing;
p993
F1
sVtethered,
p994
F1
sVclank
p995
F1
sVfader
p996
F1
sVswung?"
p997
F1
sVnooks
p998
F1
sVf.s.a.,
p999
F3
sV(invisible
p1000
F1
sVawaiting
p1001
F2
sVprime
p1002
F1
sVkeenly
p1003
F1
sVwehr-wolf.
p1004
F1
sVwehr-wolf,
p1005
F4
sVcarrion
p1006
F1
sVpalfrey,
p1007
F1
sVtingetvisie
p1008
F1
sVmarred
p1009
F1
sVwhere
p1010
F42
sVvision
p1011
F2
sVpress.
p1012
F1
sVtownshippe.
p1013
F1
sVsleepers
p1014
F1
sV"why,
p1015
F4
sVthrone,
p1016
F1
sVjob.
p1017
F1
sVsoutherners.
p1018
F1
sVrewarded
p1019
F1
sVbugles
p1020
F1
sVrequirest
p1021
F1
sVfurniture,
p1022
F1
sVdisposition
p1023
F1
sVman;
p1024
F1
sVrepresentatives
p1025
F2
sVman?
p1026
F1
sVfierceness
p1027
F1
sVsighting
p1028
F1
sVsable
p1029
F1
sVfearless
p1030
F1
sVman,
p1031
F28
sVman.
p1032
F10
sVrage,
p1033
F1
sVreigne
p1034
F1
sVapparition
p1035
F1
sVgratefully
p1036
F1
sVspare
p1037
F1
sVhide."
p1038
F1
sVascribes
p1039
F1
sVconversed
p1040
F1
sVwriter:--"all
p1041
F1
sVmany
p1042
F48
sVmoon.
p1043
F2
sVwest.
p1044
F1
sVthickly
p1045
F1
sVwest,
p1046
F1
sVrepresentative.
p1047
F1
sVsite,
p1048
F1
sVloudly
p1049
F2
sVjoseph,
p1050
F3
sVavail.
p1051
F1
sV"for
p1052
F9
sV"yet--i
p1053
F1
sVcan't
p1054
F1
sVmeal.
p1055
F1
sVwarriors.
p1056
F1
sV1575-6,
p1057
F1
sVwarriors,
p1058
F4
sVold-world
p1059
F1
sVthat.'"
p1060
F1
sVarticle
p1061
F1
sVboar
p1062
F1
sVlane.
p1063
F2
sVlane,
p1064
F8
sVwant.
p1065
F1
sVwant,
p1066
F1
sVstretch
p1067
F3
sVwest
p1068
F1
sVlocally
p1069
F1
sVbreath
p1070
F2
sValmighty
p1071
F1
sVpractised
p1072
F2
sVcombined
p1073
F1
sVwants
p1074
F1
sVpanic,
p1075
F1
sVenable
p1076
F2
sVlanes
p1077
F5
sVpearse,
p1078
F1
sVthousand
p1079
F1
sVformed
p1080
F3
sVlost.
p1081
F3
sVclosed.
p1082
F1
sVeventually
p1083
F1
sVformer
p1084
F7
sVprofane
p1085
F2
sVhenry's
p1086
F1
sVtribal
p1087
F1
sVpretence
p1088
F1
sVadmired
p1089
F1
sVfouldrey--now
p1090
F1
sVdints
p1091
F1
sVsituation
p1092
F1
sVwritten,
p1093
F1
sVchair."
p1094
F2
sVbequeathe
p1095
F1
sVnecks
p1096
F1
sVcroaked
p1097
F1
sVbrow
p1098
F1
sVhags,
p1099
F1
sVedge.
p1100
F1
sVhyde:
p1101
F2
sVbirth.
p1102
F1
sVhyde,
p1103
F11
sVhyde.
p1104
F7
sVwales.
p1105
F1
sVfame
p1106
F5
sVwales,
p1107
F1
sVhidden,
p1108
F1
sVstory--runs
p1109
F1
sVcombination
p1110
F1
sVtrain,
p1111
F1
sVparliament
p1112
F2
sVcost,
p1113
F1
sVcost.
p1114
F1
sVit."
p1115
F4
sVwar-like
p1116
F1
sValfred,
p1117
F1
sVhim----"
p1118
F1
sVmcmvi.]
p1119
F1
sVpayment."
p1120
F1
sVhydes
p1121
F4
sVsickness
p1122
F3
sViv.
p1123
F3
sVarden
p1124
F2
sVflocks
p1125
F1
sVagree,"
p1126
F1
sVmadness,
p1127
F1
sV"dear
p1128
F1
sVringrose,
p1129
F1
sVgorse
p1130
F1
sVtrains
p1131
F2
sV"dead
p1132
F1
sVpersistently
p1133
F1
sVyestereen,
p1134
F1
sVsummer
p1135
F2
sVwhitfield
p1136
F1
sVbeing
p1137
F36
sVbraver.
p1138
F1
sVofficers,
p1139
F1
sVtrotted
p1140
F1
sVrest
p1141
F22
sV"laid."
p1142
F1
sVspoil--the
p1143
F1
sVweekly
p1144
F1
sVwithin;
p1145
F1
sVloudly?
p1146
F1
sVretinue
p1147
F1
sVmottram--with
p1148
F1
sVhereabouts
p1149
F1
sVloudly,
p1150
F1
sVghostly
p1151
F2
sVprominently
p1152
F2
sVtreating
p1153
F1
sVjoyful
p1154
F4
sVskies
p1155
F2
sVrobin.
p1156
F1
sV(8
p1157
F1
sVhe.--but
p1158
F1
sVaround
p1159
F3
sV(2
p1160
F4
sVprocess,
p1161
F1
sVarthur's
p1162
F2
sV(4
p1163
F3
sV(5
p1164
F1
sVdark
p1165
F4
sVscraps
p1166
F1
sVhell-cat.
p1167
F1
sVworld
p1168
F6
sVsume
p1169
F1
sVxix.
p1170
F2
sVvague
p1171
F1
sVdare
p1172
F1
sVclad
p1173
F2
sVpaused.
p1174
F1
sVsuperiority
p1175
F2
sVwend
p1176
F1
sVpunishment.
p1177
F1
sVpunishment,
p1178
F1
sVfavour;
p1179
F1
sVthinke
p1180
F1
sVjackson,
p1181
F1
sVlikely,
p1182
F1
sVdivine
p1183
F7
sVcopse,
p1184
F1
sVthere'll
p1185
F1
sVpendragon.
p1186
F1
sVmemories
p1187
F1
sVpendragon,
p1188
F1
sVfright,
p1189
F2
sVaforesaid,
p1190
F2
sVneck.
p1191
F1
sVtyrant--so
p1192
F1
sVsuche
p1193
F1
sVviii.
p1194
F2
sVrestoring
p1195
F1
sVrefer
p1196
F2
sVthink.
p1197
F1
sVhad'st
p1198
F1
sVpassages,
p1199
F1
sVpower
p1200
F14
sVretains
p1201
F1
sVsprung
p1202
F1
sVmoment,"
p1203
F1
sVpunishments
p1204
F1
sVinstantly!"
p1205
F1
sVstone
p1206
F30
sVdamnable
p1207
F1
sVcountenance.
p1208
F1
sVindustry
p1209
F1
sVcountenance,
p1210
F3
sVmeal
p1211
F2
sVapron
p1212
F1
sVhighfield,
p1213
F1
sVact
p1214
F2
sVmisdeeds."
p1215
F1
sVlegion--the
p1216
F1
sVmean
p1217
F2
sVsuch.
p1218
F1
sVwidowed
p1219
F1
sVburning
p1220
F1
sVimage
p1221
F3
sVtidings?
p1222
F1
sVlonging.
p1223
F1
sVparties
p1224
F3
sVexpeditions."
p1225
F1
sVvaluable
p1226
F1
sVright,"
p1227
F1
sVhamnet
p1228
F9
sVhew
p1229
F1
sVappeared,
p1230
F4
sVher
p1231
F252
sVrhyme,
p1232
F1
sVneighbouring
p1233
F3
sVmeals
p1234
F1
sVdead,"
p1235
F1
sVoccasioned,
p1236
F1
sVseries
p1237
F5
sVslopes
p1238
F1
sVseasons.
p1239
F2
sVseasons,
p1240
F1
sVdeparted,
p1241
F1
sVgift,
p1242
F1
sVcomplete
p1243
F2
sVfarewell."
p1244
F3
sVchild's
p1245
F1
sVdestinies
p1246
F1
sVbrain
p1247
F3
sVanother.
p1248
F2
sVsurvived
p1249
F1
sVanother,
p1250
F4
sVross,
p1251
F1
sVwith
p1252
F396
sVbuying
p1253
F1
sVhandsome
p1254
F15
sVmiss,
p1255
F1
sVrush
p1256
F5
sVrequests;
p1257
F1
sVslope.
p1258
F3
sVcouching
p1259
F1
sVhe;
p1260
F6
sVfruitfulness
p1261
F1
sVrequests,
p1262
F2
sVrear?"
p1263
F1
sVhe,
p1264
F35
sVsisters,
p1265
F1
sVhe.
p1266
F10
sVagree
p1267
F2
sVmisery
p1268
F1
sVgone
p1269
F8
sVpity,
p1270
F1
sVfright
p1271
F1
sV"made
p1272
F1
sVcertain
p1273
F36
sVforgot
p1274
F1
sVam
p1275
F38
sVgift.
p1276
F1
sVan
p1277
F123
sVanne.
p1278
F1
sVas
p1279
F403
sVat
p1280
F314
sVwalks
p1281
F1
sVwatched
p1282
F4
sVhurst,
p1283
F1
sVamused
p1284
F1
sVtremble
p1285
F2
sVe'en
p1286
F3
sVpoison,
p1287
F1
sVsayest
p1288
F1
sVshakes,
p1289
F1
sVmortals,
p1290
F5
sVtight
p1291
F1
sVsometymes
p1292
F2
sVoh,
p1293
F1
sVwalk.
p1294
F1
sVaccosted
p1295
F1
sVcelebrity.
p1296
F1
sVa.
p1297
F1
sVwaving
p1298
F4
sVsubjects,
p1299
F1
sVfresh
p1300
F6
sVunanimous
p1301
F1
sVunwelcome.
p1302
F1
sVthorn
p1303
F1
sVdyed
p1304
F1
sVmanchester,
p1305
F1
sVimpossibility
p1306
F1
sVmass
p1307
F4
sVsawing
p1308
F2
sVfinally,
p1309
F1
sVcoldstream
p1310
F1
sVoriginal
p1311
F3
sVcurate
p1312
F5
sVconsider
p1313
F2
sVcaused
p1314
F12
sVweariness
p1315
F1
sV(if
p1316
F1
sVfairness
p1317
F1
sVcauses
p1318
F1
sVhunting
p1319
F5
sVparliament;
p1320
F1
sVsquirrels
p1321
F1
sVto
p1322
F1286
sVtail
p1323
F8
sVhorse."
p1324
F1
sVgloucester,
p1325
F1
sVsmile
p1326
F3
sVparliament,
p1327
F2
sVparliament.
p1328
F2
sVoath,
p1329
F2
sVcause.
p1330
F2
sVreturned
p1331
F9
sVis,
p1332
F7
sVfloated
p1333
F2
sVcause?
p1334
F1
sVsheriffs,
p1335
F1
sVpuritanism,
p1336
F2
sV24th
p1337
F1
sVghost-hound
p1338
F2
sVcondition
p1339
F2
sV17th
p1340
F3
sVmarvellous
p1341
F1
sVlaying
p1342
F2
sVjoined
p1343
F4
sVbroken,
p1344
F1
sVlarge
p1345
F8
sVsang
p1346
F12
sVsand
p1347
F2
sVsoldier's
p1348
F3
sVharry
p1349
F1
sVsmall
p1350
F6
sVquicker
p1351
F1
sVsyng
p1352
F1
sVrascals,"
p1353
F1
sVhour,
p1354
F1
sVpast
p1355
F6
sVpass
p1356
F8
sV1593-4,
p1357
F1
sVsituated
p1358
F5
sVmeetings.
p1359
F1
sVmayoralty
p1360
F1
sVrichard
p1361
F6
sVcast
p1362
F14
sVpoisonous
p1363
F1
sVprevailed
p1364
F1
sVshaw,"
p1365
F1
sVa'nights
p1366
F1
sVnurse
p1367
F1
sValive?"
p1368
F1
sVcrest,
p1369
F1
sV(john
p1370
F3
sVfull
p1371
F25
sVtrain--a
p1372
F1
sVhours
p1373
F3
sVconcluding
p1374
F3
sVlegend
p1375
F20
sVbranches.
p1376
F1
sVbrutal
p1377
F1
sVcountie
p1378
F1
sV"cure
p1379
F1
sVspake.
p1380
F2
sVpick
p1381
F2
sVaction
p1382
F1
sVmurdering
p1383
F1
sV(it
p1384
F1
sVday's
p1385
F1
sVfollowed
p1386
F8
sVstrolling
p1387
F1
sVregiment
p1388
F1
sVbeheld
p1389
F15
sVmistress
p1390
F2
sVselect
p1391
F1
sVattendance
p1392
F1
sVwithered;
p1393
F1
sVflowers.
p1394
F1
sVtones,
p1395
F1
sVmorn
p1396
F1
sVcharles--a
p1397
F1
sVmoorlands,
p1398
F1
sVmore
p1399
F53
sVdoor
p1400
F6
sVcompany
p1401
F14
sVvi.
p1402
F3
sVmarriage,
p1403
F1
sVwomen--seeking
p1404
F1
sVpursuers
p1405
F3
sVdoon
p1406
F2
sVfoundations
p1407
F1
sVdoom
p1408
F2
sVkenyon
p1409
F1
sVcunning
p1410
F3
sVkeeping
p1411
F3
sVvicissitudes
p1412
F1
sVthickest
p1413
F1
sVarchive)
p1414
F1
sVchief's
p1415
F1
sVlearn
p1416
F2
sVknocked
p1417
F2
sVupbraided
p1418
F1
sVmale
p1419
F4
sVscramble
p1420
F1
sVexperiences.
p1421
F1
sVbeautiful
p1422
F8
sVbogs
p1423
F2
sVprompt
p1424
F1
sVstated
p1425
F6
sVhoward,
p1426
F1
sVaccept
p1427
F1
sVstates
p1428
F2
sVwalked.
p1429
F1
sV(george
p1430
F1
sVsense
p1431
F2
sVdress
p1432
F1
sVhuge
p1433
F3
sVrespective
p1434
F1
sVbareheaded
p1435
F1
sVinstruments,
p1436
F1
sVogden,
p1437
F2
sVbestowed.
p1438
F1
sVhugh
p1439
F2
sVbewailing
p1440
F1
sVdismissed
p1441
F1
sVfiercely,
p1442
F2
sVearnings
p1443
F1
sVfiercely.
p1444
F2
sVcreature
p1445
F1
sVwaved
p1446
F2
sVbones--a
p1447
F1
sVcontinues
p1448
F1
sVdeparture,
p1449
F1
sV"never
p1450
F1
sVit--"a
p1451
F1
sVsignature
p1452
F1
sVaired,"
p1453
F1
sVstate,
p1454
F2
sVdislike.
p1455
F1
sVfaces,"
p1456
F1
sVpleaded
p1457
F1
sVbog,
p1458
F1
sVflutter
p1459
F1
sVantagonist)
p1460
F1
sVbrown,
p1461
F1
sVtales,
p1462
F2
sVgodley.
p1463
F1
sVequal.
p1464
F1
sVregister
p1465
F2
sVshafts)
p1466
F1
sVshafts.
p1467
F2
sVshafts,
p1468
F1
sVwhyte
p1469
F1
sVreplied
p1470
F6
sVarmy.
p1471
F1
sVpassages
p1472
F2
sVfern-covered
p1473
F1
sVenraged
p1474
F1
sVtrade
p1475
F2
sV"'tis
p1476
F10
sVscots
p1477
F5
sVpang
p1478
F1
sVpane
p1479
F3
sVsigns
p1480
F6
sVtyrant.
p1481
F2
sVlooks,
p1482
F1
sVtyrant,
p1483
F1
sVits
p1484
F53
sVsnob.
p1485
F1
sVimaginings
p1486
F2
sVrapidly
p1487
F7
sVtermed
p1488
F1
sVdeeds
p1489
F5
sVcourse,
p1490
F5
sVwipe
p1491
F2
sVtruth,
p1492
F3
sVnanny,'
p1493
F1
sVisaac
p1494
F1
sVapples,
p1495
F2
sVtravelling
p1496
F1
sVdisfigured
p1497
F1
sVit.
p1498
F20
sVit,
p1499
F18
sVskipped
p1500
F2
sVtyrants
p1501
F1
sVentire
p1502
F1
sVmotley
p1503
F1
sVscot,
p1504
F1
sVscot.
p1505
F1
sVit;
p1506
F2
sVmagic
p1507
F8
sVgreat.
p1508
F1
sVgreat,
p1509
F1
sVlikeness
p1510
F1
sVall.
p1511
F3
sVall,
p1512
F5
sVdarbishire,
p1513
F1
sVevents
p1514
F7
sVhound,
p1515
F5
sVhound.
p1516
F4
sVobey--when
p1517
F1
sVavenged,
p1518
F1
sVfound
p1519
F38
sVstory).
p1520
F1
sVweek
p1521
F3
sVmurrain
p1522
F1
sVengland
p1523
F10
sVupstairs
p1524
F1
sVparts,
p1525
F1
sVresolute
p1526
F1
sVreduce
p1527
F1
sVdisley,
p1528
F1
sVfarmers,
p1529
F1
sVjesting.
p1530
F1
sVreally
p1531
F4
sVmissed
p1532
F2
sVkensington
p1533
F1
sVministerial
p1534
F1
sVowner,
p1535
F1
sVhighway
p1536
F1
sVowner.
p1537
F1
sVclose-cropped
p1538
F1
sVbelief
p1539
F4
sVluckless
p1540
F2
sVmurmur
p1541
F1
sVimagine
p1542
F2
sVbend,
p1543
F1
sVattention.
p1544
F2
sVreared
p1545
F3
sVbetrothed
p1546
F1
sVdevoid
p1547
F1
sVwoman's
p1548
F3
sVguests,
p1549
F1
sVblack;
p1550
F1
sVcastle
p1551
F17
sVquick-step
p1552
F1
sVmajor
p1553
F2
sVgazed
p1554
F6
sV3rd.
p1555
F1
sVthereafter
p1556
F1
sVnumber
p1557
F4
sVpreservation
p1558
F1
sVmurmured
p1559
F1
sVevil,
p1560
F2
sVcrusade.
p1561
F2
sVexecutioners
p1562
F3
sVdiffer
p1563
F1
sV21st,
p1564
F1
sVheads
p1565
F2
sVtraitor-knight
p1566
F1
sVthreatening
p1567
F1
sVera;
p1568
F1
sVbleeding
p1569
F1
sVsuddenly;
p1570
F1
sVsaint
p1571
F3
sVgallows?"
p1572
F1
sVpaul's
p1573
F1
sVsympathies
p1574
F1
sVfirst,
p1575
F4
sVfirst.
p1576
F1
sVgorge."
p1577
F1
sVinterviewed
p1578
F3
sVimmediate
p1579
F1
sVforward,
p1580
F1
sVforward.
p1581
F1
sVgrace
p1582
F5
sVbart.--he
p1583
F1
sVlips."
p1584
F1
sVinfirmity.
p1585
F1
sVbitter
p1586
F3
sVannihilation
p1587
F1
sVdetermined
p1588
F10
sVmarriage
p1589
F3
sVcradle.
p1590
F1
sVhead.
p1591
F5
sV6s.
p1592
F2
sVhead,
p1593
F10
sVgodley--namely,
p1594
F1
sV"'twere
p1595
F1
sVfelon's
p1596
F1
sVknight,"
p1597
F1
sVmagical
p1598
F2
sVmayhap
p1599
F2
sVsupposed,
p1600
F1
sVcaress
p1601
F1
sVi--his
p1602
F1
sVfashion,
p1603
F2
sVfashion.
p1604
F3
sVsherwood
p1605
F1
sValso
p1606
F29
sVdamnation,
p1607
F1
sVunderstand,
p1608
F1
sVunderstand.
p1609
F2
sVplay
p1610
F3
sVwehr-wolf's
p1611
F1
sVswiftly
p1612
F2
sVnasal
p1613
F1
sVdukinfield's
p1614
F1
sVtryst
p1615
F2
sVwakes."
p1616
F1
sVfight,
p1617
F6
sVplan
p1618
F2
sVfight.
p1619
F2
sVeatinge
p1620
F1
sVmoss,
p1621
F1
sVseize
p1622
F4
sVcrossing
p1623
F1
sVsometimes
p1624
F5
sVcover
p1625
F2
sVparting,
p1626
F1
sVbond.
p1627
F1
sVexpiated,
p1628
F1
sVthank
p1629
F1
sVattacking
p1630
F1
sVgold
p1631
F1
sVmagician;
p1632
F1
sValone."
p1633
F1
sVdefended
p1634
F1
sVfatal,
p1635
F1
sVbritons."
p1636
F1
sVmagician,
p1637
F1
sVoccupation
p1638
F3
sVstandeth
p1639
F1
sVfloor;
p1640
F1
sVshouldst
p1641
F1
sVwrites
p1642
F1
sVwriter
p1643
F2
sVwagstaffe,
p1644
F2
sVmeddlesomeness
p1645
F1
sVfailed
p1646
F5
sVroyalist
p1647
F4
sVpositively
p1648
F1
sVcolumns
p1649
F1
sVgiants
p1650
F1
sVbegins
p1651
F1
sVmagicians
p1652
F1
sVdependent
p1653
F1
sVbeams
p1654
F1
sValive,
p1655
F1
sVimpregnable
p1656
F1
sVinformants
p1657
F2
sVaccommodation.
p1658
F1
sVremedy
p1659
F1
sVmentioned,
p1660
F1
sVclosely
p1661
F2
sV"roe
p1662
F1
sVbanner
p1663
F4
sVenemy
p1664
F4
sVdevoured
p1665
F2
sVprogressive
p1666
F1
sVtumult
p1667
F1
sVtemper,
p1668
F2
sVcry
p1669
F10
sVsojourn
p1670
F1
sV"king's
p1671
F2
sVrhubarb?"
p1672
F1
sVparson's
p1673
F3
sVriver
p1674
F8
sVoutlaw
p1675
F1
sVsecondly,
p1676
F1
sVset
p1677
F43
sVpotent
p1678
F2
sVtouch
p1679
F8
sVsee
p1680
F38
sVoutward
p1681
F1
sVknees
p1682
F5
sVspirits
p1683
F5
sVpearls,
p1684
F1
sVgirl.
p1685
F2
sVhealthy,
p1686
F1
sVstyle.
p1687
F1
sVgirl,
p1688
F5
sVprecipice--carrying
p1689
F1
sV15th
p1690
F1
sVknowing
p1691
F3
sVmorland
p1692
F4
sVhere?"
p1693
F1
sVto-day?"
p1694
F1
sVnimbly
p1695
F1
sVincident
p1696
F2
sVpolitics,
p1697
F1
sVwielded
p1698
F1
sVdelivering
p1699
F1
sVwolves,
p1700
F1
sVlass
p1701
F3
sVlast
p1702
F27
sVthou
p1703
F104
sVtranspiring,
p1704
F1
sVconnection
p1705
F7
sVreturned.
p1706
F1
sVspirit.
p1707
F1
sVspirit,
p1708
F7
sVseizure,
p1709
F1
sVwhole
p1710
F7
sVtown,
p1711
F8
sVmajesty
p1712
F4
sVtown.
p1713
F6
sVtown!
p1714
F1
sVfavouring
p1715
F1
sVloan
p1716
F1
sV44,
p1717
F1
sVrace.
p1718
F1
sVtown;
p1719
F1
sVadjoining
p1720
F3
sVchurch
p1721
F25
sVfairies,
p1722
F2
sVdevil
p1723
F12
sVcried--
p1724
F1
sVeither,
p1725
F1
sVranks.
p1726
F1
sVloves.
p1727
F2
sVproprietor
p1728
F1
sVfirm
p1729
F2
sVresting
p1730
F3
sVsweetheart
p1731
F1
sVmodern
p1732
F4
sVraced
p1733
F1
sVfire
p1734
F3
sVupstart
p1735
F1
sVeyes."
p1736
F1
sVunsoldierlike,
p1737
F1
sVrepresentative
p1738
F1
sVit,--that
p1739
F1
sVsounding.
p1740
F1
sVjoyously.
p1741
F1
sV"do
p1742
F2
sVflew.
p1743
F1
sVleaning
p1744
F2
sVrobin
p1745
F33
sVastray
p1746
F1
sVbrawny
p1747
F2
sVclarence.
p1748
F1
sVowed
p1749
F1
sVcouches,
p1750
F1
sVstains.
p1751
F1
sVfair--the
p1752
F1
sVhoping
p1753
F5
sVwaist,
p1754
F1
sV"wise
p1755
F1
sVlevel,
p1756
F1
sVsighed,
p1757
F1
sVsighed.
p1758
F1
sVflanders.
p1759
F1
sV1487,
p1760
F1
sV"look
p1761
F2
sVgluttony,
p1762
F1
sVchase
p1763
F1
sVraiders
p1764
F4
sVchoking
p1765
F2
sVmaids
p1766
F8
sVlancashire
p1767
F6
sVelevated
p1768
F1
sVread
p1769
F6
sVbilleting
p1770
F1
sVforsooth.
p1771
F1
sVservitors
p1772
F1
sVforsooth,
p1773
F1
sVmoneth's
p1774
F1
sVdefeat
p1775
F1
sValert
p1776
F1
sVpersons;--to
p1777
F1
sVlevels
p1778
F1
sVcaswallon
p1779
F2
sVnecessity
p1780
F6
sVmotives;
p1781
F1
sVyet;
p1782
F1
sVhy.,
p1783
F1
sVperson
p1784
F3
sVyet,
p1785
F1
sVmaid.
p1786
F5
sVstirrups,
p1787
F2
sVmaid,
p1788
F10
sVtowns,
p1789
F1
sVyeoman
p1790
F7
sVproject,
p1791
F1
sVwayward,
p1792
F1
sVdemand,
p1793
F1
sVunto
p1794
F3
sVfeared.
p1795
F1
sVhomewards,
p1796
F3
sVswilling
p1797
F1
sVreap
p1798
F1
sVadmission
p1799
F1
sVindividual,
p1800
F1
sVpillars
p1801
F2
sVwedding."
p1802
F1
sVparents
p1803
F2
sVreverted
p1804
F1
sVsurprised
p1805
F1
sVthee.
p1806
F6
sVclutches
p1807
F1
sVvictims
p1808
F2
sVcouple
p1809
F1
sVarrest.
p1810
F1
sVarrest,
p1811
F1
sVwives
p1812
F3
sVsuffering
p1813
F5
sVquest
p1814
F3
sVclutched
p1815
F1
sVabduct
p1816
F1
sVformal
p1817
F1
sVmalefactors.
p1818
F1
sVmalefactors,
p1819
F1
sVsquandered
p1820
F1
sVdone,"
p1821
F1
sV"legend
p1822
F1
sVcontinue
p1823
F1
sVsurprise.
p1824
F3
sVsurprise,
p1825
F3
sVtribes
p1826
F1
sVreader.
p1827
F1
sV"well,"
p1828
F1
sVcanst
p1829
F4
sVdeparture.
p1830
F2
sVroots,
p1831
F1
sVb.
p1832
F1
sVsmith,
p1833
F1
sVobscure,
p1834
F1
sVmighty
p1835
F14
sVsight
p1836
F14
sVcurious
p1837
F8
sVpale
p1838
F4
sVtwinkle
p1839
F1
sV20th,
p1840
F1
sVbenefit
p1841
F1
sVcompletely,
p1842
F1
sVworst."
p1843
F1
sVwar-song
p1844
F1
sVson's
p1845
F1
sVbe
p1846
F197
sVmight.
p1847
F3
sVrequiem
p1848
F1
sVperformed
p1849
F1
sVnicholson,
p1850
F1
sVit!--i
p1851
F1
sVfeelings
p1852
F1
sVsalford,
p1853
F1
sV"coombs
p1854
F1
sVconcealed
p1855
F2
sVmourning?"
p1856
F1
sVbeholders
p1857
F1
sVmethod,
p1858
F1
sVby
p1859
F286
sVdeserved
p1860
F1
sVblackburn
p1861
F1
sV"take
p1862
F1
sVbears,
p1863
F1
sVvoices,
p1864
F1
sVdeserves
p1865
F1
sVambush
p1866
F3
sVstuart
p1867
F2
sVwrinkled
p1868
F1
sVanterior
p1869
F1
sVrepair
p1870
F1
sVletter
p1871
F1
sVsnatches
p1872
F1
sVinto
p1873
F78
sVconceded
p1874
F1
sVdame
p1875
F16
sVmiddleton
p1876
F2
sVparliamentarians,
p1877
F1
sVparliamentarians.
p1878
F1
sVfforces
p1879
F1
sVblooming.
p1880
F1
sV1805-1851--was
p1881
F1
sVutensils)
p1882
F1
sVbargaining
p1883
F1
sVsubmit
p1884
F2
sVcustom
p1885
F1
sVshillings
p1886
F1
sVblows.
p1887
F1
sVsuit
p1888
F1
sVprowling
p1889
F2
sVniece,
p1890
F1
sVdoze.
p1891
F1
sVopens
p1892
F1
sVbaying,
p1893
F1
sVimpudent
p1894
F1
sVbelike
p1895
F2
sV"opposite,
p1896
F1
sVkeeping,
p1897
F1
sVpastor
p1898
F1
sVvowing
p1899
F3
sVlegs,
p1900
F1
sVflaunted
p1901
F1
sVline
p1902
F5
sVconsiderable
p1903
F6
sVposted
p1904
F1
sVcharmed
p1905
F2
sVimmured
p1906
F1
sVopen.
p1907
F1
sVbeauty--well,
p1908
F1
sVup
p1909
F49
sVus
p1910
F10
sVrewarded,
p1911
F1
sVenthusiasm.
p1912
F1
sVside.
p1913
F4
sVside,
p1914
F9
sVdoor.
p1915
F3
sVliving;
p1916
F1
sVflocked
p1917
F3
sVinfluence
p1918
F5
sVhaunt
p1919
F4
sVlost,
p1920
F1
sVdiverse
p1921
F1
sVchanges,
p1922
F1
sVchat
p1923
F1
sVwell,"
p1924
F3
sVgraceful
p1925
F1
sVdeclaimed
p1926
F1
sVliving,
p1927
F1
sVphantom
p1928
F4
sVpanes,
p1929
F1
sVlaird,
p1930
F1
sVsaddleworth,
p1931
F1
sVretrace
p1932
F1
sVcrompton
p1933
F1
sVscrape
p1934
F1
sV"there,
p1935
F1
sVwitch,"
p1936
F1
sVhell.
p1937
F1
sVbillet
p1938
F1
sVdepredations
p1939
F2
sVprovided
p1940
F1
sVbeginninge
p1941
F1
sVsides
p1942
F1
sVago
p1943
F2
sV"friend,"
p1944
F1
sVlane
p1945
F8
sVland
p1946
F19
sVfighter
p1947
F1
sVearth.
p1948
F2
sVrescued
p1949
F1
sValone--alone
p1950
F1
sVwalked
p1951
F6
sVobey.
p1952
F1
sVsummit
p1953
F5
sVedward,
p1954
F3
sVon!"
p1955
F1
sVwildly,
p1956
F1
sV'))45
p1957
F1
sVhaving
p1958
F24
sVmanchester.
p1959
F7
sVsafety."
p1960
F1
sVdawning
p1961
F1
sVeffigy
p1962
F3
sVresults
p1963
F1
sVill-luck
p1964
F1
sVexisting
p1965
F1
sV(55
p1966
F1
sVrenown
p1967
F1
sVgossip
p1968
F3
sVhouseholders
p1969
F2
sVseemed
p1970
F31
sVafterwards."
p1971
F1
sVdevout
p1972
F2
sVinformants.
p1973
F1
sVyoung
p1974
F36
sVsend
p1975
F5
sVmatthewe,
p1976
F1
sVsent
p1977
F14
sVsexton's
p1978
F1
sVstreet
p1979
F1
sVgarden
p1980
F5
sVtorture
p1981
F1
sVpeace;
p1982
F1
sVpendragon."
p1983
F1
sVchancell
p1984
F1
sVpetitions
p1985
F1
sVending
p1986
F1
sVcontinued
p1987
F9
sVdescrete
p1988
F1
sV8d.;
p1989
F1
sVcrying,
p1990
F1
sVglee,
p1991
F2
sVseptember,
p1992
F1
sVscarlet,
p1993
F2
sVmarry
p1994
F2
sVanxious
p1995
F4
sVrace
p1996
F3
sV8d."
p1997
F1
sVpledge
p1998
F2
sVlicensed
p1999
F1
sVhyde
p2000
F15
sVthat,
p2001
F9
sVmake.
p2002
F1
sVthat.
p2003
F1
sVbusiness
p2004
F3
sVwonderful,"
p2005
F1
sVhenceforth
p2006
F1
sVpaying
p2007
F2
sV1409
p2008
F1
sVthat;
p2009
F1
sVbird
p2010
F1
sVcitie
p2011
F1
sVscenery
p2012
F1
sVadvantageously
p2013
F1
sVled
p2014
F25
sVdeduces
p2015
F1
sVgathered
p2016
F10
sVanswered.
p2017
F1
sVgueldinge
p2018
F1
sVlet
p2019
F13
sVanswered:
p2020
F4
sVconsideration
p2021
F1
sVcumberland
p2022
F1
sVgreat
p2023
F113
sVengage
p2024
F3
sVfirm,
p2025
F2
sVforester's
p2026
F1
sVreceive
p2027
F4
sVunwittingly
p2028
F1
sVsurvey
p2029
F1
sVbattle."
p2030
F2
sVderby
p2031
F2
sVopinion
p2032
F2
sVmakes
p2033
F2
sVmaker
p2034
F1
sVerlesdene,
p2035
F1
sVboggarts.
p2036
F1
sVpractising
p2037
F1
sVunrest,
p2038
F1
sVmoorlands
p2039
F2
sVluckily,
p2040
F1
sVbehoved
p2041
F1
sVstanding
p2042
F12
sVdreams.
p2043
F1
sVconfidence
p2044
F1
sVcheered
p2045
F1
sVsexton,
p2046
F2
sVnext
p2047
F12
sVdoubt
p2048
F11
sVturned,
p2049
F1
sVturned.
p2050
F1
sVanimal,
p2051
F1
sVbuilding;
p2052
F1
sVball.
p2053
F1
sVgreen"
p2054
F1
sVoccurred
p2055
F3
sVtempest,"
p2056
F1
sVoutcome,
p2057
F1
sVfolks
p2058
F1
sVcarrying
p2059
F2
sVlabelled
p2060
F1
sVmaids;
p2061
F1
sVgladly
p2062
F2
sVwitch-woman's
p2063
F1
sVfarmyard
p2064
F4
sVcharity
p2065
F3
sVanimals
p2066
F1
sVeffectively
p2067
F1
sVthis
p2068
F157
sVclients
p2069
F1
sVthin
p2070
F2
sVscatter
p2071
F3
sVhigh,
p2072
F1
sVeminence;
p2073
F1
sVbent
p2074
F12
sVunscaleable
p2075
F1
sVrode
p2076
F20
sVpurposes
p2077
F1
sVpieces
p2078
F4
sVhigh
p2079
F17
sVbend
p2080
F2
sVslip
p2081
F1
sVblock,
p2082
F1
sVclass.
p2083
F2
sVclass,
p2084
F1
sVvolunteer,
p2085
F1
sVstop,
p2086
F1
sVborder-side"
p2087
F1
sVking's
p2088
F16
sVvictims.
p2089
F1
sVanimal
p2090
F2
sVbuilding.
p2091
F1
sVestablishment
p2092
F1
sVgreatly
p2093
F11
sVborder-side.
p2094
F1
sVblocks
p2095
F1
sVhalter
p2096
F1
sVnear.
p2097
F3
sVawait
p2098
F1
sVfire-irons
p2099
F1
sVhalted
p2100
F1
sVpurpose,
p2101
F1
sVpreferring
p2102
F1
sV"that,
p2103
F1
sV22nd
p2104
F2
sV"be
p2105
F4
sVrhubarb
p2106
F2
sVknight-errants
p2107
F1
sV"by
p2108
F4
sVservice?"
p2109
F1
sVwitnessed,
p2110
F1
sVmove
p2111
F2
sVladies
p2112
F4
sVproduced
p2113
F1
sVarwary,
p2114
F1
sVconfiscated,
p2115
F1
sVwife's
p2116
F2
sVperfect
p2117
F3
sVhatchet,
p2118
F1
sVchosen
p2119
F1
sVlast-named
p2120
F2
sVsurgeons
p2121
F1
sVshudder
p2122
F1
sVthieves
p2123
F1
sVsevere.
p2124
F1
sVprosper
p2125
F2
sVnames:
p2126
F1
sVundoing.
p2127
F1
sVfoolish,
p2128
F1
sVbothering
p2129
F1
sVkiss
p2130
F6
sVfolk-lore
p2131
F1
sVmoved,
p2132
F1
sVorphaned
p2133
F1
sVexertions,
p2134
F1
sVgaily,
p2135
F1
sVdegree,
p2136
F1
sVwhither
p2137
F2
sVsufficiently
p2138
F1
sVsnout,
p2139
F1
sVtruth
p2140
F5
sVspoils.
p2141
F1
sVaccounts
p2142
F4
sVbeneath
p2143
F16
sVdegree;
p2144
F1
sVstrode
p2145
F1
sV(may,
p2146
F2
sVdoing
p2147
F1
sVverily
p2148
F1
sVupholders
p2149
F1
sVsociety
p2150
F2
sVbooks
p2151
F1
sVus."
p2152
F2
sV1644.
p2153
F1
sVwoley--which
p2154
F1
sVwitness
p2155
F5
sVchill,
p2156
F1
sV1644,
p2157
F1
sVghost."
p2158
F1
sVtigers,"
p2159
F1
sVfrowns
p2160
F1
sVsever
p2161
F1
sVwoodland,
p2162
F2
sVbritons
p2163
F9
sVcromwell
p2164
F3
sVmonarchs.
p2165
F1
sVshut
p2166
F3
sVnear,
p2167
F4
sVperish
p2168
F3
sVmet;
p2169
F1
sVwm.,
p2170
F1
sVbook,
p2171
F3
sVbook.
p2172
F1
sVinhaling
p2173
F1
sVsurely
p2174
F10
sVthrust
p2175
F5
sVsuitor,
p2176
F1
sVmet.
p2177
F1
sVmishap,
p2178
F1
sVhorsemen,
p2179
F2
sVwarrior."
p2180
F1
sVpiece,
p2181
F1
sVhasten
p2182
F1
sVhay.
p2183
F1
sVcould
p2184
F59
sVlancelot
p2185
F1
sVthings;
p2186
F1
sVlength
p2187
F12
sVbess;
p2188
F1
sVlesson,
p2189
F1
sVliking.
p2190
F1
sVdone."
p2191
F2
sVstaggered
p2192
F1
sVbloodshed,
p2193
F1
sVspeaking,
p2194
F1
sVscene
p2195
F6
sVfat-bellied
p2196
F2
sVjesus
p2197
F1
sVshort,
p2198
F1
sVwoodhead
p2199
F1
sVblows
p2200
F3
sVscent
p2201
F1
sV"druid,
p2202
F1
sVhave,
p2203
F1
sVtwo,
p2204
F3
sVcandles--witch-lights--and
p2205
F1
sVfascinating
p2206
F1
sV'don't;
p2207
F1
sVcandlemas
p2208
F2
sVtraveller
p2209
F8
sVslain.
p2210
F1
sVptie
p2211
F1
sVrobert,
p2212
F2
sVtravelled
p2213
F4
sVbehaved
p2214
F1
sVstomach
p2215
F1
sVdarest
p2216
F1
sVblow.
p2217
F1
sV1599
p2218
F1
sVoccurrence,
p2219
F1
sVlater,
p2220
F1
sVvalley
p2221
F10
sVthorncliffe,
p2222
F1
sVsteed
p2223
F7
sVonslaught.
p2224
F1
sVbravely.
p2225
F1
sVchattels
p2226
F1
sVsteep
p2227
F1
sVsteer
p2228
F1
sVresult
p2229
F5
sVbeggar
p2230
F2
sVhad--and
p2231
F2
sVtraitor,"
p2232
F1
sVbess
p2233
F8
sVclearly
p2234
F3
sVmountainous
p2235
F1
sVsoules
p2236
F1
sVdemolished
p2237
F1
sVbabes
p2238
F1
sVardernes
p2239
F1
sVchurchman,
p2240
F1
sVweeping.
p2241
F1
sVworldwide
p2242
F1
sVtroubles.
p2243
F1
sVallow
p2244
F3
sVmanor
p2245
F1
sVrhine.
p2246
F1
sVrhine,
p2247
F2
sVconversation,
p2248
F1
sV"seize
p2249
F1
sVfurious
p2250
F1
sVtime--it
p2251
F1
sVradiant,
p2252
F1
sVfervent
p2253
F1
sVawe,
p2254
F1
sVpossessions,
p2255
F1
sVsweeping
p2256
F2
sVbleaker
p2257
F1
sVfolkhard,
p2258
F1
sVshaven
p2259
F1
sV"to-morrow."
p2260
F1
sVface
p2261
F21
sVsoule,
p2262
F1
sVabbot's
p2263
F6
sVyou'll
p2264
F1
sVmill,
p2265
F1
sVapril,
p2266
F3
sVbrew
p2267
F1
sVwounded
p2268
F8
sVdocument,
p2269
F1
sVfact
p2270
F5
sVatmosphere
p2271
F1
sVestate,
p2272
F1
sVstood,
p2273
F1
sVstood.
p2274
F2
sVsieges
p2275
F1
sVbring
p2276
F14
sVmanchester
p2277
F4
sVashton-under-lyne,
p2278
F2
sVashton-under-lyne.
p2279
F4
sVluck,
p2280
F1
sVrough
p2281
F3
sVgibbetted,"
p2282
F1
sVprincipal
p2283
F1
sVhonble.
p2284
F1
sVburnished
p2285
F1
sVgranted,"
p2286
F1
sVshould
p2287
F47
sVplanted
p2288
F1
sVriding
p2289
F7
sVhope
p2290
F3
sVhandle
p2291
F1
sVlistened
p2292
F3
sVmeans
p2293
F15
sVfamiliar
p2294
F1
sVpeak,--whose
p2295
F1
sVmuttering
p2296
F2
sV1905-6;
p2297
F1
sVassume.
p2298
F1
sVcome--the
p2299
F1
sVprayers
p2300
F2
sVboggart
p2301
F10
sVsaracen
p2302
F1
sVprinter,
p2303
F1
sVgully,
p2304
F1
sVmortals
p2305
F4
sVsummon
p2306
F4
sVmayor;
p2307
F1
sVstrengthened
p2308
F1
sVhistorian,
p2309
F2
sVframe
p2310
F7
sVharness,
p2311
F1
sVonce,
p2312
F3
sVonce.
p2313
F2
sVend,
p2314
F3
sVend.
p2315
F4
sVstream"
p2316
F1
sVfigure.
p2317
F2
sVfigure,
p2318
F2
sVpistol
p2319
F1
sVtime--has
p2320
F1
sVrest;
p2321
F1
sVmosley-street,
p2322
F1
sVclasses,
p2323
F1
sVende
p2324
F1
sVhistorians
p2325
F3
sVrobin's
p2326
F2
sVbe'st
p2327
F1
sV"lyen
p2328
F1
sVtaken,
p2329
F2
sVstaring
p2330
F2
sV1644
p2331
F1
sVfigured
p2332
F1
sVlandowners
p2333
F2
sV1643
p2334
F1
sV1642
p2335
F2
sVshone,
p2336
F1
sVcommanding,
p2337
F2
sVcommanding.
p2338
F1
sVundone,"
p2339
F1
sVbutts,
p2340
F1
sVvolley
p2341
F1
sVbutts"
p2342
F1
sVstrongly
p2343
F1
sVraven,
p2344
F1
sVbowles,
p2345
F1
sVroughed
p2346
F1
sVmid-rib
p2347
F1
sVacres
p2348
F3
sVaccursed
p2349
F1
sVmeantime
p2350
F1
sVstock.
p2351
F1
sVsustayned
p2352
F2
sVdazzling
p2353
F2
sVpoured
p2354
F4
sVcompensating
p2355
F1
sVwaste
p2356
F3
sVdescent,
p2357
F1
sVc.
p2358
F2
sVc,
p2359
F1
sVneighbour
p2360
F1
sVravens
p2361
F2
sVknighthood,
p2362
F3
sVtoothless
p2363
F1
sV"revenge."
p2364
F1
sV"the
p2365
F50
sV"bless
p2366
F1
sVripe
p2367
F1
sVnewark,
p2368
F1
sVsite
p2369
F10
sVhealed,"
p2370
F1
sVlust
p2371
F1
sVlongdendale--although
p2372
F1
sVhollinworth,
p2373
F4
sVsenseless;
p2374
F1
sVcohort
p2375
F1
sVgallow's
p2376
F10
sV"methinks
p2377
F2
sVof.
p2378
F1
sVof,
p2379
F1
sVwalton,
p2380
F1
sVdents
p2381
F1
sVupon
p2382
F164
sVv.
p2383
F2
sVhangman
p2384
F1
sVill-fate
p2385
F1
sVdust
p2386
F1
sVbritain.
p2387
F5
sVmarple.
p2388
F1
sVbritain,
p2389
F3
sVpleasantly
p2390
F1
sVoff
p2391
F21
sVsteward's
p2392
F2
sVdoors.
p2393
F1
sVdoubtful.
p2394
F1
sVdoors,
p2395
F5
sVcommand
p2396
F3
sVoft
p2397
F1
sV1597.
p2398
F1
sV"looking
p2399
F1
sVdrawing
p2400
F4
sVlest
p2401
F2
sVnay,
p2402
F1
sVreturned,
p2403
F2
sVenemy.
p2404
F3
sVsoldiers,
p2405
F3
sVenemy,
p2406
F1
sVless
p2407
F5
sVmoments
p2408
F1
sVincrease.
p2409
F1
sVrooms
p2410
F5
sVhauled
p2411
F1
sV1660,
p2412
F1
sV1660.
p2413
F1
sVcommemoration
p2414
F1
sVchair;
p2415
F1
sVwed
p2416
F3
sVcheapest)
p2417
F1
sVsounded;
p2418
F1
sVarrest
p2419
F1
sVchair,
p2420
F1
sVmannered
p2421
F1
sVchair"
p2422
F1
sVvillagers
p2423
F2
sVvain
p2424
F1
sVcentury,
p2425
F2
sVincreased
p2426
F2
sVlurked--went
p2427
F1
sVchancellor
p2428
F1
sVroom,
p2429
F8
sVfairies
p2430
F2
sVavilion,
p2431
F1
sVwhispers
p2432
F1
sVfive
p2433
F4
sVpenketh
p2434
F1
sVmoment,
p2435
F8
sVroom;
p2436
F1
sVdescendant
p2437
F1
sV(of
p2438
F1
sVdismayed
p2439
F1
sVengland,
p2440
F5
sVengland.
p2441
F1
sValtogether.
p2442
F1
sVbecome
p2443
F12
sVscene--was
p2444
F1
sVactions.
p2445
F1
sVactions,
p2446
F1
sVhigham,
p2447
F4
sVtinder-box--the
p2448
F1
sVthief
p2449
F1
sVsay--translated
p2450
F1
sVdaylight
p2451
F1
sVblazing
p2452
F2
sVreveal'd
p2453
F1
sV"what
p2454
F16
sVwhistle,
p2455
F1
sVliterally
p2456
F1
sVl4
p2457
F1
sVshone
p2458
F3
sVdoes
p2459
F13
sVfool!
p2460
F1
sVpeat.
p2461
F1
sVvoluptuous
p2462
F1
sVlongdendale
p2463
F67
sVclarendon
p2464
F1
sVmystery.
p2465
F1
sVcentury.
p2466
F4
sVaccompanied
p2467
F5
sVcounties
p2468
F3
sVhiding
p2469
F1
sVgained
p2470
F4
sVdecember,
p2471
F1
sVgazing
p2472
F1
sVk.c.b.,
p2473
F1
sVfarewell.
p2474
F2
sVrife,
p2475
F1
sVmoss-troopers
p2476
F1
sVescape."
p2477
F1
sVxxiiij
p2478
F3
sVletters
p2479
F1
sVcatherine
p2480
F1
sVgetting
p2481
F1
sVscreamed
p2482
F6
sVtiny
p2483
F1
sVold."
p2484
F1
sVcultivated
p2485
F1
sVroads
p2486
F2
sVunabated
p2487
F2
sVa.d.,
p2488
F1
sVmere
p2489
F1
sVwhewall,
p2490
F1
sVglistened
p2491
F1
sVlovels
p2492
F2
sVcorpse.
p2493
F1
sVspots
p2494
F1
sVcorpse,
p2495
F1
sVgarb.
p2496
F1
sVplace,
p2497
F7
sVcocks,
p2498
F2
sVbramhall,
p2499
F1
sVbramhall.
p2500
F1
sVxxiii.
p2501
F2
sVroad,
p2502
F14
sVdelivery
p2503
F1
sVletter,
p2504
F1
sVentered
p2505
F11
sVthey,
p2506
F1
sVtossed
p2507
F1
sVplaces
p2508
F3
sVdeficiency
p2509
F1
sVsmooth
p2510
F1
sVtriumphant
p2511
F1
sVaetatis--42."
p2512
F1
sVspot,
p2513
F3
sVspot.
p2514
F2
sVdeliverance.
p2515
F1
sVwar-gear,
p2516
F2
sVbearing
p2517
F4
sVirish
p2518
F2
sVexequyes
p2519
F1
sVarms.
p2520
F2
sVsmith's,
p2521
F1
sVarms,
p2522
F6
sVqueen's
p2523
F2
sVplundered
p2524
F2
sVgarden.
p2525
F2
sVplanting
p2526
F1
sVrenowned
p2527
F5
sVcompared
p2528
F1
sVchildren),
p2529
F1
sVspit
p2530
F1
sVunenclosed
p2531
F1
sVboggart.
p2532
F3
sVdeadly
p2533
F1
sVboggart,
p2534
F2
sVforests
p2535
F5
sVwander
p2536
F3
sVreach,
p2537
F1
sVdetails
p2538
F6
sVhers,
p2539
F1
sVbehold
p2540
F1
sVgallantly
p2541
F2
sVpredominant
p2542
F1
sVreckless
p2543
F2
sVwalter.
p2544
F2
sVrepeat
p2545
F2
sVagain.
p2546
F7
sVagain,
p2547
F5
sVarray--melandra
p2548
F1
sVrex
p2549
F1
sV"divine
p2550
F1
sVagain;
p2551
F1
sVchance
p2552
F13
sVwalter:
p2553
F1
sVundecided.
p2554
F1
sVveil
p2555
F1
sVrequirest,
p2556
F1
sVghost
p2557
F15
sVsearcher
p2558
F1
sVslumber.
p2559
F1
sVlasted
p2560
F2
sVrule
p2561
F4
sVforest.
p2562
F3
sVforest,
p2563
F6
sVlift
p2564
F2
sVboggarts
p2565
F4
sVrural
p2566
F2
sV1368
p2567
F1
sVparty;
p2568
F1
sVand--what
p2569
F1
sVsussex.
p2570
F1
sVfemales,
p2571
F1
sVfollows:--
p2572
F1
sVoldest
p2573
F2
sVsaved
p2574
F2
sVparty,
p2575
F3
sVebbed
p2576
F2
sVa-laughing.
p2577
F1
sVpointing
p2578
F1
sVa-ringing,
p2579
F1
sVedward
p2580
F8
sVsped
p2581
F4
sV1138,
p2582
F1
sVworth
p2583
F6
sVkissed.
p2584
F1
sVanent
p2585
F2
sVwomen's
p2586
F1
sVmaner
p2587
F1
sVchapel
p2588
F11
sVfound,
p2589
F1
sVcarrs.'
p2590
F1
sVunrest
p2591
F1
sV"does
p2592
F1
sVneighbour,
p2593
F2
sVending.
p2594
F1
sVtriumph
p2595
F2
sVallowed;
p2596
F1
sVpreached
p2597
F2
sVblasphemy
p2598
F1
sVoccasioned
p2599
F1
sVhorn
p2600
F2
sVpreacher
p2601
F1
sVothers,
p2602
F2
sVitem:
p2603
F1
sVestablished
p2604
F3
sVwaies
p2605
F1
sVimprimis:
p2606
F1
sVconsequent
p2607
F1
sVabove
p2608
F35
sVconsisting
p2609
F2
sVtold
p2610
F24
sVkenworthy,
p2611
F1
sVmistress;
p2612
F1
sVhanmore;
p2613
F1
sVkindred
p2614
F2
sVmistress.
p2615
F1
sVmistress,
p2616
F1
sVgreedy
p2617
F1
sVobtained
p2618
F1
sVwatchers
p2619
F1
sVdaughter
p2620
F15
sVchurche,
p2621
F1
sVitems
p2622
F1
sVstudy
p2623
F1
sVadopt
p2624
F2
sVconsequently,
p2625
F1
sVfool's
p2626
F1
sVsmoke
p2627
F3
sVdistasteful;
p2628
F1
sVlonesome
p2629
F1
sVignominious
p2630
F1
sVsecure
p2631
F6
sVover.
p2632
F3
sVgentleman,
p2633
F2
sVhighly
p2634
F1
sVover,
p2635
F1
sVthursday
p2636
F1
sVsupport
p2637
F2
sVglance
p2638
F1
sVtotal
p2639
F1
sVclough
p2640
F4
sVhorsemen.
p2641
F1
sVcoins
p2642
F1
sVgrove,
p2643
F1
sVinsult
p2644
F1
sVcrowther,
p2645
F1
sVpermit,
p2646
F1
sVbundled
p2647
F1
sVsaid;
p2648
F1
sV"military
p2649
F1
sVhyde--a
p2650
F1
sVascribe
p2651
F1
sVreign
p2652
F3
sVpierced
p2653
F3
sVcured
p2654
F1
sVfamily.]
p2655
F1
sVword
p2656
F9
sVwore
p2657
F4
sVsociety,
p2658
F2
sVbooks,
p2659
F1
sV"edas,
p2660
F2
sVwork
p2661
F12
sVere
p2662
F15
sVgroves
p2663
F1
sVbundle,
p2664
F1
sVfaster,
p2665
F1
sVblooming
p2666
F1
sVelbow
p2667
F5
sVpursuits,
p2668
F1
sVindicated
p2669
F1
sVmid-day
p2670
F1
sVflung
p2671
F4
sVheartless
p2672
F2
sVwoman
p2673
F20
sVcity?"
p2674
F1
sV"steady,
p2675
F1
sVmarche,
p2676
F1
sVbare,
p2677
F1
sVravishers.
p2678
F1
sVsweethearts
p2679
F1
sVinhabitants
p2680
F10
sVagony
p2681
F1
sVfar
p2682
F18
sVlove--and
p2683
F1
sVtrusted
p2684
F1
sVablaze,
p2685
F1
sVinterview
p2686
F1
sVordinary
p2687
F7
sVweapons,
p2688
F2
sVlad
p2689
F10
sVafter
p2690
F68
sVover-particular
p2691
F1
sVlay
p2692
F20
sVlaw
p2693
F2
sVarch
p2694
F1
sVprivations,
p2695
F1
sVmanchets
p2696
F1
sVgreet
p2697
F4
sVscare
p2698
F3
sVgreek
p2699
F1
sVgreen
p2700
F7
sVgladly,
p2701
F1
sVbelle
p2702
F1
sVorder
p2703
F8
sVevildoers,
p2704
F1
sVjerkin,
p2705
F1
sVcloth-yard
p2706
F1
sVinfested
p2707
F1
sVoffice
p2708
F4
sVconsent
p2709
F2
sVhopeless.
p2710
F1
sVears.
p2711
F1
sVmayor
p2712
F9
sVtirade,
p2713
F1
sV"form
p2714
F1
sVbehalf,
p2715
F2
sVhamnett,
p2716
F2
sVrock,
p2717
F1
sVgranny,"
p2718
F1
sVdiscomfited
p2719
F1
sVthen
p2720
F110
sVthem
p2721
F68
sVthee
p2722
F41
sVsafe
p2723
F3
sVgorge,"
p2724
F1
sVbreak
p2725
F4
sVband
p2726
F15
sVyoung,
p2727
F1
sVrepulsive
p2728
F1
sVowned
p2729
F2
sVsummers,
p2730
F2
sVbank
p2731
F1
sVbread
p2732
F1
sV37,
p2733
F1
sVgallows
p2734
F1
sVbrough
p2735
F1
sVreasonably
p2736
F1
sVslavery
p2737
F1
sVrocks
p2738
F4
sVgoodness,
p2739
F1
sVlifted
p2740
F2
sVschemes
p2741
F2
sVcrimes
p2742
F1
sVmangled
p2743
F1
sVowner
p2744
F1
sV(24)
p2745
F1
sVslew
p2746
F5
sVrefuge,
p2747
F1
sVforts
p2748
F1
sVhooked
p2749
F1
sValarmed,
p2750
F1
sVfellowship
p2751
F1
sVdaniel
p2752
F1
sVthere--beaten
p2753
F1
sVunkempt
p2754
F1
sVforth
p2755
F16
sVwm.
p2756
F1
sVimpudence
p2757
F1
sVforcible
p2758
F1
sVbarrier
p2759
F1
sVexequies
p2760
F1
sVstriking.
p2761
F1
sVraged,
p2762
F1
sVstandard
p2763
F2
sVdashing
p2764
F3
sVcrime.
p2765
F1
sVcouncil,
p2766
F2
sVceremonies,
p2767
F1
sVrevels."
p2768
F1
sVrecovering
p2769
F1
sVcreated
p2770
F2
sVrenew
p2771
F1
sVoppose
p2772
F2
sVfort,
p2773
F1
sV(as
p2774
F2
sVcromwell,
p2775
F1
sVi,
p2776
F5
sVvulgar
p2777
F1
sVwarder.
p2778
F1
sVrender
p2779
F5
sVchased
p2780
F1
sVsupposing
p2781
F1
sVdiscernment.
p2782
F1
sVstaley!"
p2783
F1
sVanother
p2784
F21
sVstone-built,
p2785
F1
sVfainter,
p2786
F1
sVthick
p2787
F11
sVlistener.
p2788
F1
sVillustrate
p2789
F1
sVpower.
p2790
F2
sVpower,
p2791
F2
sVhamnettum
p2792
F1
sVcopies.)
p2793
F1
sVmounted,
p2794
F1
sVscene,
p2795
F2
sVstuart,
p2796
F1
sVstuart.
p2797
F1
sVjohn
p2798
F27
sVpaltry
p2799
F1
sVhappily
p2800
F1
sValbert
p2801
F1
sVrejected
p2802
F1
sVwastes
p2803
F2
sVforthwith,
p2804
F1
sVwasted
p2805
F1
sVdog.
p2806
F1
sVmercy
p2807
F8
sVdog,
p2808
F1
sVtarget
p2809
F4
sVstuarts
p2810
F1
sVtavern
p2811
F1
sV"annals
p2812
F2
sVair,
p2813
F4
sVscenes
p2814
F3
sVseated
p2815
F10
sV"farmer,"
p2816
F1
sViron
p2817
F3
sVpowers
p2818
F9
sVsconce
p2819
F1
sVmanner
p2820
F6
sVvigorous
p2821
F1
sVyourselves.
p2822
F1
sVyourselves,
p2823
F1
sVforced
p2824
F5
sVstrength
p2825
F4
sVcharges,
p2826
F1
sVlatter
p2827
F14
sVdrayton.
p2828
F1
sVnewcomer,
p2829
F1
sVwell-dressed,
p2830
F1
sVreplied.
p2831
F1
sVforces
p2832
F10
sVdownstairs
p2833
F1
sVexplanation
p2834
F1
sVcircles
p2835
F1
sVmadam,"
p2836
F1
sVmaiden
p2837
F19
sVcirclet
p2838
F1
sVwoman,--but
p2839
F1
sVexercised
p2840
F2
sVextending
p2841
F1
sVhollingworth"
p2842
F1
sVhollingworth,
p2843
F5
sVhollingworth.
p2844
F5
sVdarkness
p2845
F7
sVreal.
p2846
F1
sVforce,
p2847
F3
sVcalculated
p2848
F1
sVforce.
p2849
F2
sVsubject,
p2850
F1
sVnewcomers
p2851
F1
sVindeed--a
p2852
F1
sVaccounted
p2853
F3
sVspace--their
p2854
F1
sVd.,
p2855
F4
sVdames
p2856
F1
sVcharlesworth
p2857
F6
sVeminent
p2858
F1
sVknightly
p2859
F5
sV(stockport)
p2860
F1
sVlewin
p2861
F8
sVpreface.
p2862
F1
sVwrung
p2863
F2
sVnephew
p2864
F1
sVenjoyed
p2865
F3
sVexplanation.
p2866
F1
sVexplanation,
p2867
F2
sV"1617-18,
p2868
F1
sVhither,
p2869
F1
sVversed
p2870
F1
sVlayman
p2871
F1
sVdeepest
p2872
F1
sVloyalist--robin
p2873
F1
sVwizened
p2874
F1
sVdismayed,
p2875
F2
sVrun,
p2876
F3
sVrun.
p2877
F1
sVdo
p2878
F38
sVde
p2879
F18
sVpreferred
p2880
F1
sVthem."
p2881
F3
sVhaunted
p2882
F15
sVdame,
p2883
F7
sVdame.
p2884
F2
sVstephen.
p2885
F1
sVheadlong
p2886
F1
sVkin
p2887
F1
sVruns
p2888
F3
sVsky,
p2889
F3
sVcovering
p2890
F1
sVstead
p2891
F1
sVlovel
p2892
F9
sVimplication
p2893
F1
sVsquadron
p2894
F1
sVbairns
p2895
F1
sVsuccumb.
p2896
F1
sVw.
p2897
F7
sVobserved
p2898
F3
sVflashed
p2899
F1
sVdamnation
p2900
F2
sVcattle
p2901
F7
sVlass,"
p2902
F2
sVclericum."
p2903
F1
sVinstance
p2904
F1
sVhound--a
p2905
F1
sVbecause,
p2906
F1
sVfoe;
p2907
F1
sVaway
p2908
F32
sVafloat
p2909
F1
sVgentleman
p2910
F4
sVyet
p2911
F20
sVchiding
p2912
F1
sVupon.
p2913
F1
sVsee'st?"
p2914
F1
sVdrawn
p2915
F2
sVbehold,
p2916
F1
sVfoe.
p2917
F11
sVshields
p2918
F2
sVfoe,
p2919
F6
sVwe
p2920
F59
sVexcitement.
p2921
F1
sVterms
p2922
F1
sVrutland
p2923
F1
sVtorrent.
p2924
F1
sVimpunity.
p2925
F1
sVplundered,
p2926
F1
sVsun."
p2927
F1
sVfriends--and
p2928
F1
sVinn,
p2929
F1
sVdistant,
p2930
F1
sVkitchen
p2931
F1
sVreceived
p2932
F14
sVcoy
p2933
F1
sVill
p2934
F3
sVgasped
p2935
F1
sVcoo
p2936
F1
sVkilts,
p2937
F1
sVtone
p2938
F2
sVspear
p2939
F4
sVroyal
p2940
F19
sVarmour,
p2941
F1
sVtons
p2942
F1
sVwider
p2943
F1
sVspeak
p2944
F8
sVgratitude
p2945
F3
sVpetty
p2946
F1
sVcondemned
p2947
F1
sVway."
p2948
F1
sVwarmth
p2949
F1
sVtuck,
p2950
F3
sVfamilies
p2951
F3
sVbeloved
p2952
F4
sVconcerning
p2953
F9
sVhot-headed
p2954
F2
sVthem--a
p2955
F1
sVcarlecotes,
p2956
F1
sVgracious
p2957
F2
sVapplied
p2958
F1
sVeast
p2959
F4
sVpublicly
p2960
F1
sVgentle
p2961
F3
sVknown;
p2962
F1
sVtone,
p2963
F1
sVair
p2964
F8
sVwarbled
p2965
F1
sVaid
p2966
F4
sVvoice
p2967
F11
sVknown,
p2968
F2
sVknown.
p2969
F3
sVclaudius,
p2970
F1
sVago,
p2971
F2
sVsting
p2972
F1
sVgirls,
p2973
F1
sVashton,
p2974
F8
sVye,
p2975
F2
sVanswer--
p2976
F1
sVwooing
p2977
F1
sVdescent
p2978
F1
sVemotion,
p2979
F1
sVperform
p2980
F1
sVmonarch
p2981
F2
sVraid
p2982
F2
sVspringing
p2983
F1
sVhang
p2984
F1
sVrain
p2985
F1
sVhand
p2986
F20
sVdocuments
p2987
F2
sVknights,
p2988
F3
sVuntried,
p2989
F1
sVpresented;
p2990
F1
sVkept
p2991
F13
sVwhereby
p2992
F2
sVthy
p2993
F84
sVwisps
p2994
F1
sVhumble
p2995
F3
sVhealed.
p2996
F2
sVself-glory,
p2997
F1
sVthe
p2998
F4509
sVcure
p2999
F5
sVmusical
p3000
F1
sVtraditions
p3001
F9
sVmay,
p3002
F7
sVnewton
p3003
F1
sVcap,
p3004
F2
sVquotes
p3005
F2
sVthanks
p3006
F4
sVvictim
p3007
F1
sVfearful
p3008
F1
sVdenton
p3009
F2
sVhills
p3010
F5
sVmusket
p3011
F1
sVfared
p3012
F1
sVhorse;
p3013
F1
sVshout
p3014
F7
sVspread
p3015
F4
sVrighteous
p3016
F1
sVnoble--lord
p3017
F1
sVsolitude
p3018
F1
sVpreestes,
p3019
F1
sVindicated,
p3020
F2
sVrequired.
p3021
F1
sVcaps
p3022
F2
sVgod.
p3023
F3
sVbarge
p3024
F1
sVtradition.
p3025
F3
sVtradition,
p3026
F3
sVretreat
p3027
F2
sVpoaching,
p3028
F1
sVramparts
p3029
F1
sVfare.
p3030
F1
sVcountry.
p3031
F8
sVcountry,
p3032
F5
sVnight
p3033
F30
sVhill.
p3034
F4
sVhill,
p3035
F5
sVoccupants
p3036
F3
sVprayed,
p3037
F1
sVantique
p3038
F1
sVbricks,
p3039
F2
sVsends
p3040
F1
sVhill-tribes
p3041
F1
sVlancashire--and
p3042
F1
sVold;
p3043
F1
sValtars
p3044
F1
sVconstables
p3045
F1
sVbore
p3046
F5
sVoffences.
p3047
F1
sVhorse.
p3048
F1
sV(ed.
p3049
F1
sVbeating
p3050
F3
sVdrink
p3051
F3
sV"wouldst
p3052
F1
sVpeel
p3053
F1
sValtar.
p3054
F1
sVpost
p3055
F2
sVtendencies,
p3056
F1
sVtrophy
p3057
F1
sVwarfare--the
p3058
F1
sVrallying
p3059
F3
sV_____
p3060
F1
sVmonths
p3061
F2
sVgentler
p3062
F1
sVpleaded,
p3063
F1
sVtreasurer,
p3064
F1
sVmonthe
p3065
F1
sVpays
p3066
F1
sVbound
p3067
F7
sVcry,
p3068
F5
sVrendering
p3069
F1
sVcourted,
p3070
F1
sVcries.
p3071
F1
sVexciting.
p3072
F1
sVmottram-in-longdendale.
p3073
F5
sVfamiliar.
p3074
F1
sVshores,
p3075
F1
sVunchanging
p3076
F1
sVjaxon
p3077
F1
sVsovereign
p3078
F1
sVfight
p3079
F15
sVaccordingly
p3080
F5
sVquiet
p3081
F4
sVway
p3082
F38
sVlordship's
p3083
F1
sVbrave,
p3084
F1
sVbrave.
p3085
F1
sVhim."
p3086
F2
sVwas
p3087
F676
sVwar
p3088
F27
sVetherow
p3089
F4
sVbecoming
p3090
F1
sVconverse
p3091
F4
sVbalance,
p3092
F1
sVmysterious
p3093
F4
sVpay.
p3094
F2
sVprisoner,
p3095
F3
sVlongdendale."]
p3096
F2
sVsame,
p3097
F1
sV"farewell,
p3098
F1
sVtrue
p3099
F14
sVabsent
p3100
F1
sVdowry
p3101
F2
sVaccord.
p3102
F1
sVcurious;
p3103
F1
sVancestral
p3104
F1
sValman--a
p3105
F2
sVattain
p3106
F1
sVprayed
p3107
F2
sVpromises
p3108
F1
sVbred
p3109
F1
sVevidence
p3110
F2
sVsatan,"
p3111
F2
sVguessed
p3112
F1
sVpromised
p3113
F5
sVfootsore,
p3114
F1
sVprayer
p3115
F7
sVbrother,
p3116
F1
sVenlist
p3117
F1
sVsong,
p3118
F2
sVdimly
p3119
F1
sVdying
p3120
F4
sVmill.
p3121
F1
sVarthog
p3122
F1
sVdisloyal
p3123
F1
sVdenouncing
p3124
F1
sVreality
p3125
F1
sVinterested
p3126
F2
sVpace.
p3127
F1
sVholding
p3128
F5
sV"when
p3129
F1
sVunwilling
p3130
F1
sVspellbound,
p3131
F1
sVshrink
p3132
F1
sVfair-sized
p3133
F1
sVraided
p3134
F2
sV"insolent,"
p3135
F1
sVbrothers
p3136
F1
sVhyde--as
p3137
F1
sVwelcome
p3138
F2
sVmoor,
p3139
F6
sVours?
p3140
F1
sVmoor.
p3141
F5
sVmightily
p3142
F1
sVlatin,
p3143
F1
sVxii.
p3144
F2
sVpromise,
p3145
F2
sVmoor?
p3146
F1
sVmiddlewich;
p3147
F3
sVbestowed
p3148
F5
sVii....
p3149
F1
sVtogether
p3150
F12
sVvictory.
p3151
F3
sVloyal
p3152
F8
sVdocument.
p3153
F2
sVnecessitated
p3154
F1
sVfore-finger
p3155
F1
sVsongs
p3156
F5
sVbrow,
p3157
F1
sV0
F12
sVoswestry.
p3158
F1
sVdance
p3159
F1
sVunmixed
p3160
F1
sVbattle
p3161
F33
sVdevoted
p3162
F2
sVcertainly
p3163
F7
sVmounted
p3164
F2
sVagony.
p3165
F1
sVcompensate
p3166
F1
sVkillinge
p3167
F1
sVterror
p3168
F3
sVdonned
p3169
F2
sVfeebly
p3170
F1
sVexcalibur
p3171
F3
sValdermen
p3172
F1
sVtrouble
p3173
F4
sVblast
p3174
F1
sVfeeble
p3175
F1
sVwatts,
p3176
F1
sVpresented
p3177
F4
sV12th
p3178
F1
sVoffender
p3179
F1
sVascertaining
p3180
F2
sVbirkenhead
p3181
F1
sVdiscrete
p3182
F1
sVaccosted;
p3183
F1
sV"i'll
p3184
F2
sVappear.
p3185
F1
sVtrouble."
p3186
F1
sVbrave
p3187
F22
sVdead?"
p3188
F1
sVbeneath.
p3189
F1
sVcost
p3190
F4
sVtempest
p3191
F1
sVcurse
p3192
F4
sVappear
p3193
F4
sVassistance
p3194
F4
sVforegoing
p3195
F5
sVhavoc
p3196
F1
sVatone
p3197
F1
sVillustrations
p3198
F1
sVannals,
p3199
F1
sVoaks
p3200
F1
sValertness
p3201
F1
sVsafety.
p3202
F3
sVsatisfy
p3203
F1
sVwill?"
p3204
F1
sVregions.
p3205
F1
sVroundhead
p3206
F16
sVconjuror
p3207
F1
sVstopford"
p3208
F1
sVsetting--flooding
p3209
F1
sVbosworth
p3210
F3
sVappointed,
p3211
F1
sVroaring
p3212
F1
sVappears
p3213
F4
sVchange
p3214
F2
sVknowledge
p3215
F4
sVsending
p3216
F1
sVmerriment
p3217
F1
sVoak,
p3218
F2
sVcaledon
p3219
F3
sVtrial
p3220
F1
sVoak;
p3221
F1
sVyorke
p3222
F1
sVpictorial
p3223
F1
sVusually
p3224
F1
sVcountry's
p3225
F1
sVhomecoming
p3226
F4
sVplotted
p3227
F1
sVtime"--a
p3228
F1
sVretired
p3229
F2
sVwork."
p3230
F1
sVmarked
p3231
F1
sVsufferers
p3232
F2
sVmarkes
p3233
F1
sVfarms,
p3234
F1
sVmarket
p3235
F6
sVjams
p3236
F1
sVbreed.
p3237
F2
sVprove
p3238
F1
sVyou."
p3239
F1
sVlive
p3240
F10
sVharleian
p3241
F1
sVintently
p3242
F1
sVtowers
p3243
F2
sVsufferer,
p3244
F1
sVwrath,
p3245
F1
sVgentlemen,
p3246
F1
sVtriumph.
p3247
F1
sVwondering.
p3248
F1
sVslay.
p3249
F1
sVbemoaning
p3250
F1
sVdecked
p3251
F1
sVfortified
p3252
F1
sVcat
p3253
F1
sVvisits.
p3254
F1
sVincidents
p3255
F8
sVcan
p3256
F22
sVspeedy,
p3257
F1
sVstanley,
p3258
F1
sVheart
p3259
F19
sVdedicated
p3260
F2
sVgrievously
p3261
F1
sVpainted.
p3262
F1
sVpaused
p3263
F1
sVbird's
p3264
F1
sVfortunes
p3265
F4
sVchin
p3266
F1
sVpurity
p3267
F1
sVclothing
p3268
F1
sVj.,
p3269
F5
sVquartering
p3270
F1
sVevil-looking
p3271
F1
sVdiscussion
p3272
F1
sVromans."
p3273
F1
sVwrite
p3274
F1
sVstavelegh
p3275
F2
sVtha'
p3276
F1
sVrobbery,
p3277
F1
sVmonks'
p3278
F1
sVarmies
p3279
F3
sVwoman.
p3280
F2
sVstaircase
p3281
F1
sVsacrifice
p3282
F3
sVsustained.
p3283
F1
sVminstrel's
p3284
F2
sVwatson,
p3285
F1
sVpause,
p3286
F1
sVhear,
p3287
F2
sVheroes
p3288
F9
sVflourish
p3289
F2
sVgoal
p3290
F1
sVremember
p3291
F7
sVwanderings
p3292
F2
sVwhenever
p3293
F1
sVsame--the
p3294
F1
sV"man"
p3295
F1
sVdishonoured
p3296
F1
sVcrept
p3297
F2
sVdorset,
p3298
F1
sVwealth.
p3299
F2
sVtroops,
p3300
F4
sVserving
p3301
F3
sVindeed
p3302
F6
sVtoward
p3303
F1
sVconsulting
p3304
F2
sVended
p3305
F4
sVspurning
p3306
F1
sVcolonel,
p3307
F1
sVstatements
p3308
F2
sVcold
p3309
F4
sVstill
p3310
F37
sVbirds
p3311
F4
sVunlucky
p3312
F1
sVtending
p3313
F1
sVall-giver,"
p3314
F1
sVacknowledge
p3315
F1
sVfor,
p3316
F5
sV"come,
p3317
F2
sVvicinity
p3318
F2
sVshaping
p3319
F1
sVforms
p3320
F6
sVwindow
p3321
F3
sVold--lovely,
p3322
F1
sVsaxon
p3323
F4
sVwon,
p3324
F1
sVshowered
p3325
F1
sVwon.
p3326
F2
sVhiding-place,
p3327
F1
sVvice.
p3328
F1
sVspirits.
p3329
F1
sVspirits,
p3330
F2
sVhalt
p3331
F1
sVfling
p3332
F1
sVnod
p3333
F1
sVneighbourhood;
p3334
F2
sVedmond
p3335
F1
sVscaling
p3336
F1
sVhalf
p3337
F13
sVnot
p3338
F178
sVneighbourhood.
p3339
F5
sVnow
p3340
F74
sVhall
p3341
F16
sVnor
p3342
F8
sVwont
p3343
F1
sVchuckled
p3344
F2
sVcartwright,
p3345
F1
sVjames
p3346
F2
sVdrop
p3347
F1
sVform.
p3348
F2
sVform,
p3349
F2
sVconqueror.
p3350
F1
sV"ah,"
p3351
F2
sVflourish'd,
p3352
F1
sVentirely
p3353
F2
sVglades,
p3354
F1
sVdomain
p3355
F1
sVfired
p3356
F1
sVadvantage.
p3357
F1
sVhurried
p3358
F5
sV1482
p3359
F1
sVfires
p3360
F1
sVmatie.
p3361
F3
sVthou?"
p3362
F3
sVyear
p3363
F15
sVet
p3364
F1
sVhappen
p3365
F1
sVev
p3366
F1
sVcow.
p3367
F2
sVshown
p3368
F2
sVaccomplish
p3369
F3
sVopened
p3370
F2
sVspace
p3371
F4
sVfrightened
p3372
F2
sVpalace,
p3373
F1
sVthirst
p3374
F1
sVhastily
p3375
F1
sVlooking
p3376
F11
sVkingdom,
p3377
F1
sVkingdom.
p3378
F1
sVmurderers
p3379
F1
sVmeet,
p3380
F1
sVe.
p3381
F2
sVbaronetcy
p3382
F1
sVcarr
p3383
F4
sVyea,
p3384
F1
sVunfair,
p3385
F1
sVfire,
p3386
F3
sVfire.
p3387
F2
sVrebel
p3388
F4
sVapparitions;
p3389
F1
sVfire;
p3390
F1
sVfire?
p3391
F1
sVcare
p3392
F4
sVability,
p3393
F1
sVlo!--before
p3394
F1
sVbritish
p3395
F12
sVhonest
p3396
F13
sVprophesied,
p3397
F1
sVseest
p3398
F2
sVtangled
p3399
F1
sVdeath--walked
p3400
F1
sVmidnight,
p3401
F1
sVprofess
p3402
F1
sVserfs
p3403
F1
sViron,
p3404
F1
sVblind
p3405
F2
sVinitial
p3406
F1
sVlovers,
p3407
F2
sVstriking
p3408
F2
sVomitted
p3409
F1
sVquantity
p3410
F1
sVyourself
p3411
F2
sVended.
p3412
F1
sVended,
p3413
F3
sVimpossible
p3414
F7
sVmessage
p3415
F5
sVdrove
p3416
F5
sVsize
p3417
F2
sVsheep
p3418
F5
sVbroadrick,
p3419
F1
sVsheet
p3420
F1
sVcornavii
p3421
F1
sVcaught
p3422
F3
sVbreed
p3423
F1
sVfriend
p3424
F1
sVlarder
p3425
F1
sVx.
p3426
F2
sVmostly
p3427
F1
sVthat
p3428
F501
sVbrains
p3429
F1
sVgreatness
p3430
F1
sVviolence,
p3431
F1
sVviolence.
p3432
F1
sVoccurrence.
p3433
F1
sVjane
p3434
F1
sVprince."
p3435
F1
sVoccupation.
p3436
F1
sVpeck
p3437
F2
sVthan
p3438
F51
sVabandoned,
p3439
F1
sVaccordance
p3440
F1
sVhousehold.
p3441
F2
sVtherein,
p3442
F2
sVfighting-men,
p3443
F1
sVdawn,
p3444
F2
sVchamber--or
p3445
F1
sVbarrows
p3446
F1
sVrespectability
p3447
F1
sVangel
p3448
F1
sVslay
p3449
F3
sVdeparting,
p3450
F1
sV(and
p3451
F1
sV13th
p3452
F1
sVwingfield,
p3453
F4
sVanger
p3454
F5
sVisle
p3455
F2
sVsupplication,
p3456
F1
sVarmed,
p3457
F1
sVform
p3458
F22
sVconcerned--the
p3459
F1
sVsnout
p3460
F1
sVreason--the
p3461
F1
sVmr.
p3462
F7
sVwch
p3463
F2
sV(e.
p3464
F1
sVswelled
p3465
F1
sVworcester;
p3466
F2
sVgums,
p3467
F1
sVbegin
p3468
F1
sVprice
p3469
F5
sVchurl,"
p3470
F1
sVbanks
p3471
F3
sVsightseers
p3472
F1
sVineld's
p3473
F1
sVimpossible)
p3474
F1
sVimpossible.
p3475
F3
sVglisten'd
p3476
F1
sVunconquerable
p3477
F1
sV"another
p3478
F1
sVslaves
p3479
F1
sVstream.
p3480
F1
sVyard
p3481
F3
sVstream,
p3482
F2
sV"never,"
p3483
F1
sVgerman
p3484
F1
sVwhile.
p3485
F1
sVdiscovered
p3486
F1
sVhonour;
p3487
F1
sVpride.
p3488
F1
sVground
p3489
F6
sVgirdle,
p3490
F1
sVtitle
p3491
F3
sVproclamation
p3492
F1
sVsaints
p3493
F3
sVonly
p3494
F42
sVfriend."
p3495
F1
sVstain
p3496
F1
sVshrill
p3497
F3
sV"green,"
p3498
F1
sV"war
p3499
F1
sV"was
p3500
F1
sVquietness.
p3501
F1
sV'tis
p3502
F15
sVtruly
p3503
F4
sVcannot
p3504
F5
sVhonours
p3505
F1
sVseldom
p3506
F1
sVsorrowfully
p3507
F1
sVsaint.
p3508
F1
sVfriends,
p3509
F2
sVhusband
p3510
F14
sVgleamed
p3511
F3
sVwitch?"
p3512
F1
sVmaster."
p3513
F2
sVmoan,
p3514
F1
sV"come
p3515
F2
sVhurt,
p3516
F1
sVimposter
p3517
F1
sVprotestations
p3518
F1
sVscotland;"
p3519
F1
sVfamine
p3520
F1
sVvixen,"
p3521
F2
sVsuccessive
p3522
F1
sVstaunch
p3523
F2
sVbony.
p3524
F1
sVsport
p3525
F1
sVreputed
p3526
F1
sVconcern
p3527
F2
sVcome,
p3528
F3
sVcome.
p3529
F5
sVbrookside,
p3530
F1
sVvalleys,
p3531
F1
sVfeuds
p3532
F1
sVcolours
p3533
F1
sV3
F3
sVwearing.
p3534
F1
sVheroes'
p3535
F1
sVbetween
p3536
F30
sVpest
p3537
F1
sVwhipped
p3538
F1
sVvalleys;
p3539
F1
sVnotice
p3540
F1
sVgrumble
p3541
F1
sVrisky,
p3542
F1
sVdeliver
p3543
F1
sVrun,"
p3544
F1
sVpluck
p3545
F2
sVblame
p3546
F1
sVspitfire
p3547
F1
sVhurts
p3548
F1
sVmoans
p3549
F1
sVwhatever,
p3550
F1
sVstrides
p3551
F1
sVcolour.
p3552
F1
sVcolour,
p3553
F2
sVresided
p3554
F6
sVgospel
p3555
F1
sVfought.
p3556
F2
sVband--a
p3557
F1
sVcomes
p3558
F6
sVwound;
p3559
F1
sVdispatch
p3560
F1
sVlearning
p3561
F1
sVmoreover
p3562
F2
sVactually
p3563
F3
sVdifficulty--some
p3564
F1
sVperish."
p3565
F1
sVmuttered
p3566
F1
sVcared
p3567
F1
sVfoemen's
p3568
F1
sVscot
p3569
F2
sVpunished
p3570
F1
sVrotting
p3571
F1
sVrebuilt
p3572
F1
sVdenby
p3573
F1
sVhomely
p3574
F1
sVmoreover,
p3575
F9
sVsuspected
p3576
F1
sVmasonry
p3577
F1
sVmainteyned
p3578
F1
sVprehistoric
p3579
F2
sVfreebooters
p3580
F1
sVthese
p3581
F46
sVmerrie
p3582
F3
sVtrick
p3583
F1
sVsponge-like
p3584
F1
sVcare,
p3585
F1
sVpalpable.
p3586
F1
sVsepulchral
p3587
F1
sVdanger;
p3588
F1
sVsoil
p3589
F2
sVduties;
p3590
F1
sVtyme:
p3591
F1
sVheels
p3592
F4
sVcommanded
p3593
F2
sVroad.]
p3594
F1
sVmultitudes
p3595
F1
sVaugustus,
p3596
F1
sVdrinking-cup,
p3597
F1
sVdoorway
p3598
F3
sVcompounds.
p3599
F1
sVgentlemen
p3600
F4
sVyou,"
p3601
F2
sVfollowers
p3602
F1
sVcharge.
p3603
F2
sVcharge,
p3604
F1
sVfigures
p3605
F3
sVdocument
p3606
F1
sVswore.
p3607
F1
sVantics,
p3608
F1
sVnoble
p3609
F9
sV"toward
p3610
F1
sVnought,
p3611
F1
sVfoam
p3612
F1
sVus?".
p3613
F1
sVsimnel,
p3614
F1
sVarms."
p3615
F1
sVtradition
p3616
F6
sVtymes
p3617
F2
sVdeukenfield
p3618
F1
sVroad."
p3619
F1
sVmersey
p3620
F2
sVcharges
p3621
F1
sVcharger
p3622
F3
sVsevere
p3623
F2
sV"remember
p3624
F1
sVpeasant."
p3625
F1
sVcharged
p3626
F8
sVlad,
p3627
F3
sVarmour
p3628
F1
sVcertain,
p3629
F1
sVshouts
p3630
F1
sVsalutation,
p3631
F1
sVgrowled
p3632
F1
sVdoors--even
p3633
F1
sVslanting
p3634
F1
sVspeed
p3635
F2
sVwitnesses;
p3636
F1
sVdeath
p3637
F38
sVgeraldine,"
p3638
F1
sVthinking
p3639
F4
sVconclude
p3640
F1
sVsenseless
p3641
F2
sV"whom,
p3642
F1
sVeither.
p3643
F1
sVvolubility
p3644
F1
sVwisdom.
p3645
F1
sVconduct.
p3646
F1
sVstruck
p3647
F10
sVxvii.
p3648
F2
sVreal
p3649
F3
sVrules
p3650
F3
sVruler
p3651
F1
sVspecimen
p3652
F1
sVwright,
p3653
F1
sVshout,
p3654
F1
sVearly
p3655
F8
sVearnest
p3656
F2
sVlads
p3657
F6
sVimplies,
p3658
F1
sVusing
p3659
F3
sVexecution
p3660
F2
sVlady
p3661
F36
sVruled
p3662
F1
sVman--lewin
p3663
F1
sVfortune
p3664
F3
sVsmell
p3665
F1
sVverdure,
p3666
F1
sVgreeting
p3667
F1
sVdulled
p3668
F1
sVoblivion
p3669
F1
sVfully
p3670
F3
sVopened.
p3671
F1
sVtwelve
p3672
F1
sVopened,
p3673
F2
sVlimits.
p3674
F1
sVrewarded.
p3675
F1
sVfidelity,
p3676
F1
sV"braw"
p3677
F1
sVdruidical.
p3678
F1
sVchurchgates
p3679
F1
sVlovel's
p3680
F3
sVpeace.
p3681
F3
sVsquire
p3682
F5
sVrecorded
p3683
F5
sVpeace?
p3684
F1
sVinscription--"cohortis
p3685
F1
sVstopped
p3686
F1
sVrecorder
p3687
F1
sVsydney,
p3688
F1
sVknees.
p3689
F1
sVknees,
p3690
F4
sVhibbert,
p3691
F1
sVrush,
p3692
F2
sVmoorhouse,
p3693
F1
sVtuition
p3694
F1
sVhack,
p3695
F1
sVhornet's
p3696
F1
sVinnocence
p3697
F1
sVapartment,
p3698
F2
sVfrancis
p3699
F1
sVhandsomest
p3700
F2
sVthrow
p3701
F4
sVcentral
p3702
F2
sVfork,
p3703
F1
sVpleased,
p3704
F1
sVsins--to
p3705
F1
sVh.,
p3706
F4
sVboldly
p3707
F1
sVjourney
p3708
F5
sVwolf
p3709
F2
sVparson
p3710
F10
sVdame's
p3711
F3
sVwithout,
p3712
F1
sVinvested
p3713
F1
sVwithout.
p3714
F1
sVwoll
p3715
F3
sVcharles,
p3716
F5
sVcharles.
p3717
F1
sVfounded?"
p3718
F1
sVbattles;
p3719
F1
sVheated
p3720
F1
sVyour
p3721
F36
sVbattles,
p3722
F1
sVfast
p3723
F2
sVsolemnly.
p3724
F1
sVprepare
p3725
F3
sVassumed
p3726
F1
sV"bold
p3727
F1
sVstart
p3728
F3
sVdrank
p3729
F5
sVlow
p3730
F4
sVlot
p3731
F3
sVbess,
p3732
F2
sVyou.
p3733
F1
sVyou,
p3734
F8
sVhanover;
p3735
F1
sV"zedrotalia,"
p3736
F1
sVcuriously
p3737
F2
sVyou;
p3738
F1
sVcottage
p3739
F3
sVprotest.
p3740
F1
sVtrying
p3741
F1
sVrelics,"
p3742
F1
sVlo!
p3743
F5
sVare.
p3744
F1
sVare,
p3745
F1
sVcat,
p3746
F2
sVtones
p3747
F1
sVbuilders
p3748
F1
sVdescribe
p3749
F2
sVmoved
p3750
F10
sVworthy,
p3751
F1
sVperil,
p3752
F1
sVmidnight--and
p3753
F1
sVperil.
p3754
F2
sVnere
p3755
F1
sVmaid's
p3756
F1
sVdinting
p3757
F2
sVyon
p3758
F1
sVunwelcome
p3759
F1
sVcemented
p3760
F1
sVcompleteness
p3761
F1
sVenglishman
p3762
F1
sVthither
p3763
F1
sVstilled
p3764
F1
sVlooked,
p3765
F1
sVyou
p3766
F42
sVforcing
p3767
F1
sVeverywhere,
p3768
F1
sVblood."
p3769
F1
sVpoor
p3770
F29
sVmove,
p3771
F1
sVperils
p3772
F2
sVsacrifices,
p3773
F2
sVrepast,
p3774
F1
sVwhistling
p3775
F2
sVpeal
p3776
F2
sVpeak
p3777
F1
sVtorches
p3778
F2
sVpool
p3779
F2
sVbuilding
p3780
F7
sVridden
p3781
F5
sVdabble
p3782
F1
sVfool,
p3783
F1
sVevening,
p3784
F2
sVmoonlight
p3785
F2
sVprying
p3786
F1
sVlibrary,
p3787
F2
sVsurrounded
p3788
F2
sVbasingwerke,
p3789
F4
sVskeleton
p3790
F2
sVbasingwerke.
p3791
F1
sVknave--you
p3792
F1
sVmonth
p3793
F5
sVceased
p3794
F3
sVdared,
p3795
F1
sVmanaged
p3796
F1
sVwar."
p3797
F1
sVmoist:
p3798
F1
sVdreadful
p3799
F4
sVmeant,
p3800
F1
sVgunpowder
p3801
F1
sVpledged
p3802
F2
sVdistasteful?
p3803
F1
sVspearhead
p3804
F1
sVthen?"
p3805
F1
sVversions;
p3806
F1
sVelizabeth,
p3807
F3
sV"ho
p3808
F1
sVvery
p3809
F31
sV"he
p3810
F2
sVpossessed.
p3811
F1
sVcease;
p3812
F1
sVeldest
p3813
F3
sVelizabeth;
p3814
F1
sVdecide
p3815
F2
sVcease,
p3816
F1
sVheaven
p3817
F7
sVerect.
p3818
F1
sV1617,
p3819
F1
sVthine?"
p3820
F1
sVchurches.
p3821
F1
sVsubscribers.
p3822
F1
sVtear
p3823
F2
sVsmith
p3824
F1
sVi'll
p3825
F3
sVfence
p3826
F1
sVanswer:
p3827
F2
sVtrack,
p3828
F1
sVanswer,
p3829
F2
sVanswer.
p3830
F1
sVlitter,
p3831
F1
sVhim?
p3832
F1
sVhim:
p3833
F1
sVhim;
p3834
F3
sVwitnessed
p3835
F4
sVhim.
p3836
F22
sVhim,
p3837
F40
sVmorrow's
p3838
F1
sVlearned
p3839
F6
sVcreep,
p3840
F1
sVelsewhere,
p3841
F1
sVcarolus,
p3842
F1
sVeldest,
p3843
F1
sVloose
p3844
F2
sVpreeste
p3845
F1
sVstreet,
p3846
F9
sValderley
p3847
F1
sVstrong
p3848
F17
sVbaron's
p3849
F1
sVinspired
p3850
F2
sVcross,
p3851
F3
sVmaybe,
p3852
F2
sVsoldier
p3853
F7
sVamount
p3854
F1
sValtrincham.
p3855
F2
sV'twas
p3856
F1
sVfamily
p3857
F9
sVstory:
p3858
F1
sVhyde";
p3859
F1
sVput
p3860
F23
sV"hanged
p3861
F1
sVtrained
p3862
F1
sVstory,
p3863
F11
sVtakes
p3864
F2
sVanswered
p3865
F15
sVrascals
p3866
F1
sVsoldiery,
p3867
F1
sVbreeze.
p3868
F1
sVtaken
p3869
F8
sVcrookbacked
p3870
F1
sVrome."
p3871
F2
sVsons?"
p3872
F1
sVhog.
p3873
F1
sVcommenced
p3874
F7
sVbroke
p3875
F10
sVuprooted
p3876
F1
sVhurry
p3877
F1
sValderman
p3878
F3
sVhelped
p3879
F5
sVus--king
p3880
F1
sVhorses'
p3881
F1
sVnine
p3882
F1
sVhorses,
p3883
F2
sVvow."
p3884
F1
sVhistory
p3885
F7
sVoh!--they
p3886
F1
sVspalding
p3887
F2
sVfury,
p3888
F1
sVtriumph,
p3889
F3
sVpushed
p3890
F1
sVcows
p3891
F1
sVabney
p3892
F1
sVf.
p3893
F4
sVfirmly
p3894
F8
sVoratory
p3895
F1
sVbank.
p3896
F2
sVbread.
p3897
F1
sVbank,
p3898
F4
sVthese:--
p3899
F1
sVstayed
p3900
F2
sVhampered
p3901
F1
sVstarvation.
p3902
F1
sVto,"
p3903
F1
sVwave
p3904
F2
sVburyed,
p3905
F1
sVchepe,
p3906
F1
sVtried
p3907
F5
sVrude
p3908
F2
sVberth.
p3909
F1
sVderived
p3910
F1
sVwooley,
p3911
F1
sVbitterness,
p3912
F1
sVexorcising
p3913
F1
sVinvasion
p3914
F2
sVmurderous
p3915
F1
sVa
F1001
sVfishmonger,
p3916
F1
sVwoods,
p3917
F1
sVwoods.
p3918
F2
sVspectre
p3919
F11
sVdread
p3920
F4
sVboldly,
p3921
F2
sVcalm.
p3922
F1
sVt.,
p3923
F2
sVdream
p3924
F3
sVlandmarks
p3925
F1
sVhelp
p3926
F8
sVpost,"
p3927
F1
sVyork.
p3928
F3
sVsoon
p3929
F20
sVheld
p3930
F12
sVta'en
p3931
F1
sVsobbed.
p3932
F1
sVcommitted
p3933
F1
sVhelm
p3934
F1
sVhell
p3935
F1
sVthem--if
p3936
F1
sVprobability
p3937
F3
sVexact
p3938
F1
sVlabours
p3939
F1
sVfair.
p3940
F5
sVfair,
p3941
F5
sVpate,"
p3942
F1
sVabsence
p3943
F1
sVdisclosed
p3944
F1
sVoccasion,
p3945
F1
sVboggart"
p3946
F1
sVfull.
p3947
F1
sVfool
p3948
F1
sVevening
p3949
F6
sVgroping
p3950
F1
sVfood
p3951
F3
sVtheory--the
p3952
F1
sVye
p3953
F31
sVslave."
p3954
F1
sVfollowers,
p3955
F1
sVmoaning
p3956
F1
sVowners--being
p3957
F1
sVfoot
p3958
F6
sVshoeless.
p3959
F1
sVfeet
p3960
F7
sVroad,"
p3961
F1
sVerection
p3962
F2
sVsympathy
p3963
F2
sVavert.
p3964
F1
sVoccasions
p3965
F2
sVunmerciful
p3966
F1
sVbless
p3967
F1
sVmark,
p3968
F1
sVdisdaining
p3969
F1
sVlabour,
p3970
F1
sVtwice,
p3971
F1
sVmanure,
p3972
F1
sVsir,"
p3973
F2
sVfairy
p3974
F1
sVreferred
p3975
F6
sVheavy
p3976
F5
sVfrowned,
p3977
F1
sVjaws
p3978
F1
sVblank
p3979
F1
sVhouse.
p3980
F5
sVhouse,
p3981
F14
sVsherwood.
p3982
F1
sVmarple
p3983
F2
sVhadfield.
p3984
F2
sVhouse;
p3985
F1
sVbeyond
p3986
F17
sVevent
p3987
F1
sVas,
p3988
F2
sVrobert
p3989
F2
sVsince
p3990
F8
sVtestify
p3991
F1
sVhalf-way
p3992
F1
sVsafety
p3993
F2
sV"mark
p3994
F1
sVdevil's
p3995
F10
sVinert
p3996
F1
sVprotruding
p3997
F1
sVdirt
p3998
F1
sVhouses
p3999
F2
sVreason
p4000
F3
sVbase
p4001
F4
sV26th,
p4002
F1
sVask
p4003
F6
sVhale,
p4004
F2
sVearliest
p4005
F4
sVheroic
p4006
F2
sVmerrily.
p4007
F1
sVmerrily,
p4008
F2
sVfactions,
p4009
F1
sVterrible
p4010
F15
sV"'twas
p4011
F1
sVcheering
p4012
F1
sVill-will.
p4013
F1
sVdaisy
p4014
F1
sVblush
p4015
F1
sVbeggary
p4016
F2
sVloved.
p4017
F1
sVloved,
p4018
F1
sVauthor.
p4019
F1
sVknocking
p4020
F1
sVreflected
p4021
F1
sVantiquity
p4022
F1
sVunexpected
p4023
F1
sVminutes,
p4024
F1
sVveiled
p4025
F1
sVmist
p4026
F6
sVmiss
p4027
F3
sVmullioned
p4028
F1
sVmother--then
p4029
F1
sVoccurrence
p4030
F1
sVhorse
p4031
F25
sVst.
p4032
F5
sVdug
p4033
F1
sVstation
p4034
F2
sVman."
p4035
F1
sVdreaming,
p4036
F1
sVdreaming.
p4037
F1
sVhundred
p4038
F6
sVbowed
p4039
F1
sVvision,
p4040
F1
sVpoints.
p4041
F1
sVsign
p4042
F2
sVserious,
p4043
F1
sVgrew
p4044
F12
sVkindly
p4045
F2
sVgrey
p4046
F8
sVbride
p4047
F4
sVautumn
p4048
F3
sVvilliers
p4049
F1
sVstore
p4050
F4
sVbattering
p4051
F1
sVgarrison
p4052
F1
sVrecreations
p4053
F1
sVwithered
p4054
F4
sVcomrades
p4055
F1
sVsentences
p4056
F1
sVone,"
p4057
F1
sVtoward,
p4058
F2
sVgathering
p4059
F2
sVlie
p4060
F2
sVharlot,
p4061
F1
sVmeditations,
p4062
F1
sVscotland
p4063
F3
sVofficers
p4064
F2
sVoldfield?"
p4065
F1
sVlabour
p4066
F2
sVfruitless,
p4067
F2
sVtowards
p4068
F26
sVquoth
p4069
F13
sVcomrade.
p4070
F2
sVsentence.
p4071
F1
sVcomrade,
p4072
F1
sVplunder
p4073
F3
sVmace
p4074
F1
sVyorkshire,
p4075
F2
sVeaten
p4076
F1
sVadded,
p4077
F1
sVofficer;
p4078
F1
sVchronicle
p4079
F1
sVsturdy
p4080
F5
sVclear
p4081
F5
sVarchers
p4082
F7
sVsnapping
p4083
F1
sVclean
p4084
F5
sVlordship
p4085
F2
sVf.,
p4086
F2
sVcows,
p4087
F1
sVgiggles
p4088
F1
sVwehr
p4089
F1
sVbritain,"
p4090
F1
sVregisters
p4091
F1
sVgranny,
p4092
F1
sVpocketed
p4093
F1
sVheavens
p4094
F1
sVimmortalized
p4095
F1
sVnorthern
p4096
F6
sVjustice
p4097
F7
sVdin;
p4098
F1
sVflesh
p4099
F6
sVmarsden,
p4100
F1
sVsacrifice.
p4101
F3
sVdarted
p4102
F2
sVflights
p4103
F1
sVsurveyed
p4104
F1
sVpretty
p4105
F7
sVetc.,
p4106
F2
sVheaven,
p4107
F2
sVheaven.
p4108
F1
sVmeanwhile
p4109
F5
sVtrees
p4110
F8
sVfamous
p4111
F1
sVthrove
p4112
F1
sVduring
p4113
F12
sVimitating
p4114
F1
sV"court"
p4115
F1
sValexander
p4116
F1
sVbirds.
p4117
F1
sVbirds,
p4118
F1
sVexhibiting
p4119
F1
sVflight,
p4120
F1
sVflight.
p4121
F1
sVsacrifices
p4122
F1
sVhobbled
p4123
F1
sVpoisoned
p4124
F1
sVinterfered,
p4125
F2
sVmaurice
p4126
F1
sVthrowing
p4127
F3
sVwailing,"
p4128
F1
sVformerly.
p4129
F1
sVwhisper:
p4130
F1
sVinvisible,
p4131
F1
sVprotecting
p4132
F1
sVclose
p4133
F8
sV"haunted
p4134
F1
sVprobable
p4135
F1
sVhorrid
p4136
F1
sVunmolested.
p4137
F1
sVmossland--yea,
p4138
F1
sVpictures
p4139
F2
sVcurate,
p4140
F3
sVbuoyant,
p4141
F1
sVwon
p4142
F9
sVyears,
p4143
F1
sVyears.
p4144
F1
sVwoe
p4145
F2
sVprobably
p4146
F6
sVtest.
p4147
F1
sVconditions
p4148
F1
sVinterview,
p4149
F1
sVupstairs,
p4150
F1
sVoak,"
p4151
F2
sVhuntsmen
p4152
F1
sVintending
p4153
F1
sVdescription.
p4154
F2
sVtimidly
p4155
F1
sVxxii.
p4156
F2
sVchase.
p4157
F2
sVlifetime,
p4158
F2
sVdistinguish
p4159
F2
sVwork,
p4160
F4
sVbetton
p4161
F1
sVprincess."
p4162
F1
sVboth
p4163
F11
sVavenged,"
p4164
F1
sVsecrets
p4165
F1
sVcounty,
p4166
F3
sVwouldn't
p4167
F1
sVcounty.
p4168
F1
sVcurates
p4169
F4
sVforgotten
p4170
F3
sVpalmer's
p4171
F3
sVusest
p4172
F1
sVliked
p4173
F1
sV"edas
p4174
F1
sVtrail,
p4175
F1
sVheaded
p4176
F1
sVpuritan
p4177
F6
sVlive.
p4178
F4
sVlive,
p4179
F2
sVmyrmidons.
p4180
F1
sVwhatever
p4181
F2
sVmumble
p4182
F1
sVdescribed
p4183
F1
sVdamp
p4184
F3
sVroundheads,
p4185
F3
sVforded
p4186
F1
sVcoarse
p4187
F2
sVlast--big
p4188
F1
sVwelfare.
p4189
F1
sVterritory
p4190
F2
sVempty
p4191
F1
sVwalter
p4192
F4
sVbelike,
p4193
F1
sVlived
p4194
F11
sVlancashire,
p4195
F6
sVsteel.
p4196
F1
sVlike,
p4197
F1
sVelse
p4198
F8
sVhollinwood,
p4199
F1
sVlives
p4200
F4
sVi,"
p4201
F1
sVopportunity,
p4202
F1
sVopportunity.
p4203
F1
sVabout,"
p4204
F1
sVrope
p4205
F3
sVpace
p4206
F4
sVwhile
p4207
F20
sVendanger
p4208
F2
sVfleet
p4209
F1
sVtranscripts
p4210
F1
sVguide
p4211
F1
sValike
p4212
F2
sVunderground
p4213
F2
sVuse,
p4214
F2
sVis't
p4215
F1
sVreads
p4216
F1
sVedward's
p4217
F1
sVgodley,"
p4218
F1
sVloosened
p4219
F1
sVready
p4220
F9
sVclear.
p4221
F1
sVgrant
p4222
F3
sVchronicle,
p4223
F1
sVshaa
p4224
F13
sVrags,
p4225
F1
sVgrand
p4226
F6
sVconflict
p4227
F4
sVclearness
p4228
F1
sVused
p4229
F8
sVfulfilment
p4230
F1
sVdare-devil
p4231
F1
sVread.
p4232
F1
sVhistorical
p4233
F3
sVhaunting
p4234
F1
sVelapsed
p4235
F1
sVchanged,
p4236
F1
sVchronicled
p4237
F1
sVolder
p4238
F4
sVdelinqt.,
p4239
F1
sVchronicles
p4240
F2
sVforms.
p4241
F1
sVviz.,
p4242
F1
sV"out
p4243
F3
sVolden
p4244
F7
sV"our
p4245
F1
sVmay?"
p4246
F1
sVg.,
p4247
F2
sVambassador
p4248
F1
sVinsolent.
p4249
F1
sVexploits
p4250
F2
sVbroomsticks.
p4251
F1
sVquarters
p4252
F1
sVhanged--murdered
p4253
F1
sVmarye;
p4254
F1
sVlimbs,
p4255
F1
sVlit
p4256
F1
sVroscoe,
p4257
F1
sVpetticoats
p4258
F1
sVcemetery
p4259
F1
sVremaining
p4260
F1
sVitm:
p4261
F9
sV...
p4262
F2
sVlonger,
p4263
F2
sVviolently.
p4264
F1
sVmarch
p4265
F9
sVlasses
p4266
F1
sVlacking
p4267
F2
sVquarter;
p4268
F1
sVshowing
p4269
F1
sVfollies
p4270
F1
sVgame
p4271
F2
sVsettlement.
p4272
F1
sVdearly
p4273
F2
sVdamage
p4274
F3
sVexploit,
p4275
F1
sVdistance.
p4276
F5
sVwings
p4277
F1
sVdistance,
p4278
F3
sVsubmission
p4279
F1
sVsignal
p4280
F2
sVdaylight,
p4281
F1
sVkings?
p4282
F1
sVstrife
p4283
F3
sVthroat,
p4284
F2
sVeen
p4285
F5
sVkings'
p4286
F1
sVpopular
p4287
F5
sVspirited
p4288
F1
sVkings.
p4289
F1
sVkings,
p4290
F1
sVsketch
p4291
F1
sVlipe
p4292
F1
sVlast,
p4293
F1
sVfathers
p4294
F5
sVlast.
p4295
F2
sVsome
p4296
F122
sVlake,
p4297
F1
sVhorns,
p4298
F1
sVpeculiar,
p4299
F1
sVuncertain--that
p4300
F1
sVdelivered
p4301
F2
sV[illustration:
p4302
F23
sVdescribing
p4303
F1
sVprovidence
p4304
F3
sVdeliverer
p4305
F1
sVair--and
p4306
F1
sVrun
p4307
F3
sVsaddle,
p4308
F2
sVsaddle.
p4309
F1
sVrue
p4310
F2
sVworks,
p4311
F1
sVstep
p4312
F1
sVfather,
p4313
F6
sVfather.
p4314
F2
sVplots
p4315
F1
sVabroad
p4316
F1
sVtroops
p4317
F8
sVfaith
p4318
F3
sVuppon
p4319
F1
sVbroadbottom.
p4320
F4
sV"more
p4321
F1
sVcorners.
p4322
F1
sVexperiences
p4323
F3
sVsilence
p4324
F4
sVseeing
p4325
F5
sVfish,
p4326
F1
sVwithin
p4327
F9
sVways,
p4328
F1
sVcattle,
p4329
F1
sVhamnett's
p4330
F1
sVbetters,
p4331
F1
sVbrought,
p4332
F1
sVworshipper
p4333
F1
sVand--ha!"
p4334
F1
sVplacing
p4335
F3
sVgood-bye."
p4336
F1
sVmarrying
p4337
F1
sVmightily.
p4338
F1
sVworshipped
p4339
F1
sVrovers,
p4340
F1
sVmeddling
p4341
F1
sVconfessing
p4342
F1
sVhimself
p4343
F37
sVduly
p4344
F1
sVdips
p4345
F1
sVanywhere
p4346
F1
sVproperly
p4347
F1
sVrenown,
p4348
F2
sVhail
p4349
F1
sVwarlike
p4350
F2
sVculloden,
p4351
F2
sVreigned.
p4352
F1
sVmiracle,
p4353
F1
sVaccustomed
p4354
F4
sVloving
p4355
F1
sVsimilar
p4356
F5
sVvassalage
p4357
F1
sVwoodhead."
p4358
F1
sVderbyshire,
p4359
F1
sVordered
p4360
F4
sVmonumental
p4361
F1
sVdistracted.
p4362
F1
sVconditions.
p4363
F1
sVinterment
p4364
F1
sVchafed
p4365
F2
sVvisit,
p4366
F1
sVdoest
p4367
F2
sVrupert
p4368
F6
sV1890
p4369
F2
sVhissing
p4370
F1
sVsmile,
p4371
F2
sVagincourt,
p4372
F1
sVdashed
p4373
F3
sVfears
p4374
F1
sVcontenting
p4375
F1
sVthemselves,
p4376
F2
sVevill)
p4377
F1
sVwished
p4378
F2
sVdraw
p4379
F3
sVcrouching
p4380
F1
sVvisits
p4381
F4
sVwilliam
p4382
F8
sVrested
p4383
F1
sVsmiled
p4384
F1
sVheroine
p4385
F1
sVoutcry,
p4386
F1
sVthundered
p4387
F2
sVevans,
p4388
F1
sVlustily,
p4389
F1
sVapron,
p4390
F3
sVrequired
p4391
F1
sVhunting-knife
p4392
F1
sVheath
p4393
F1
sVfear.
p4394
F4
sVresistance,
p4395
F2
sVfear,
p4396
F5
sVstephen's
p4397
F2
sVlying
p4398
F4
sVconsents
p4399
F1
sVsounded
p4400
F2
sVansley
p4401
F1
sVstores,
p4402
F1
sVfarms
p4403
F4
sVgo
p4404
F7
sVcomfort,
p4405
F1
sVbaron
p4406
F21
sVeasiest
p4407
F1
sVsainte
p4408
F1
sVposition,
p4409
F2
sVgrimly
p4410
F1
sV1575)
p4411
F1
sVfarm"
p4412
F2
sV"art
p4413
F2
sVflinging
p4414
F1
sV1575,
p4415
F1
sVsummoning
p4416
F1
sVprudence
p4417
F1
sVfarm,
p4418
F15
sVfarm.
p4419
F8
sVmenagerie;
p4420
F1
sVscrewed
p4421
F1
sVhove
p4422
F1
sV"are
p4423
F2
sVtrough
p4424
F1
sVtelling
p4425
F2
sVg.
p4426
F1
sVdiscouragement
p4427
F1
sVbravest
p4428
F1
sVstiff
p4429
F2
sVpositions
p4430
F1
sVattire,
p4431
F1
sVteeth,
p4432
F1
sVpanes
p4433
F1
sVwisely."
p4434
F1
sVcharlie.
p4435
F1
sVpicked
p4436
F2
sVardent
p4437
F1
sVdeputation
p4438
F1
sVpatent,
p4439
F1
sVpoled
p4440
F1
sVfalse,"
p4441
F1
sVcolonel
p4442
F13
sVcell
p4443
F1
sVindependence,
p4444
F1
sVbare-legged
p4445
F1
sVnicholas
p4446
F1
sVlost."
p4447
F1
sVarden,
p4448
F1
sVmischief,
p4449
F1
sVmelancholy
p4450
F1
sVdenunciations
p4451
F1
sVboot;
p4452
F1
sVdecree,
p4453
F1
sVseemed,
p4454
F1
sVboot,
p4455
F2
sVbraehead,
p4456
F1
sVmystery."
p4457
F2
sVpass."
p4458
F1
sVconvert
p4459
F1
sVchant
p4460
F3
sVhaunts
p4461
F3
sVlaurels,
p4462
F1
sVstamford,
p4463
F1
sVrepel
p4464
F1
sVvale.
p4465
F1
sVplay.
p4466
F2
sVplay,
p4467
F1
sVcommendable
p4468
F1
sVhomes.
p4469
F1
sVhomes,
p4470
F1
sVlords
p4471
F4
sVwin
p4472
F8
sVworthy
p4473
F6
sVclout
p4474
F1
sVaddressed
p4475
F3
sVwit
p4476
F1
sVinfest
p4477
F1
sVsinging
p4478
F2
sVcloud
p4479
F1
sV"lords
p4480
F1
sVremains
p4481
F4
sVlove."
p4482
F2
sVceremony,
p4483
F1
sVreflects
p4484
F1
sVcheeks
p4485
F1
sVcomer.
p4486
F1
sVbecomes
p4487
F2
sVcouch,
p4488
F1
sV"to
p4489
F6
sVappointed
p4490
F2
sVcrosses
p4491
F1
sVarched
p4492
F1
sVlayed....
p4493
F1
sVride
p4494
F9
sVcrusade?"
p4495
F1
sVshrieked
p4496
F2
sVcrossed
p4497
F1
sVservants
p4498
F3
sVremain,
p4499
F1
sVmeet
p4500
F15
sVpoint
p4501
F1
sVhides
p4502
F1
sVfar,
p4503
F1
sVwhalley
p4504
F2
sVchief.
p4505
F4
sVchief,
p4506
F4
sVescaped
p4507
F2
sVpulling
p4508
F1
sVsought
p4509
F10
sVwonderful
p4510
F3
sVskirt
p4511
F1
sVconquer,
p4512
F1
sVcots
p4513
F1
sVpicturesque
p4514
F5
sVkindness,
p4515
F2
sVrents,
p4516
F1
sVmorland,
p4517
F2
sVmajesty."
p4518
F1
sVpray,
p4519
F2
sV"some
p4520
F1
sVmorland?
p4521
F1
sVspeech,
p4522
F2
sVyerely
p4523
F1
sVcircular
p4524
F1
sVm.p.,
p4525
F1
sVfarm
p4526
F20
sVescape?
p4527
F1
sVtranspire.
p4528
F1
sVchiefs
p4529
F3
sVordsall
p4530
F1
sVbelongings
p4531
F1
sVescape.
p4532
F1
sVmother."
p4533
F1
sVmaids--none
p4534
F1
sVstone"
p4535
F3
sVlordly
p4536
F1
sVhaft,
p4537
F1
sVcomrades,
p4538
F1
sVprays
p4539
F1
sVdespair,
p4540
F2
sV5,000
p4541
F1
sVdespair.
p4542
F1
sVthere--the
p4543
F1
sVpublique
p4544
F2
sVhand,
p4545
F6
sVhand.
p4546
F3
sVsweet,
p4547
F1
sVmentioned
p4548
F9
sVthrice,
p4549
F1
sVhand;
p4550
F1
sVdukinfield
p4551
F13
sVbrood
p4552
F1
sVouter
p4553
F1
sVthence
p4554
F1
sVlanes,
p4555
F2
sVmasses
p4556
F2
sVbrook
p4557
F2
sVhim
p4558
F114
sVdisputants,
p4559
F1
sVpensioners
p4560
F1
sVauter,
p4561
F2
sVmaster,
p4562
F1
sVtrees;
p4563
F1
sVpure
p4564
F1
sVhills.
p4565
F2
sVhills,
p4566
F6
sVwould'st
p4567
F4
sVgreenewiche
p4568
F1
sVbulk
p4569
F1
sVstout
p4570
F7
sVhands
p4571
F6
sVfront
p4572
F9
sVnorbury
p4573
F1
sVmasters
p4574
F1
sVgrumbling
p4575
F1
sVmastery
p4576
F1
sVhangs,
p4577
F1
sV"did
p4578
F1
sV"revenge,"
p4579
F1
sVmagnitude
p4580
F1
sVuntilled,
p4581
F1
sVshaking
p4582
F2
sVlegions
p4583
F5
sVprevailing
p4584
F1
sV(the
p4585
F1
sVmare,
p4586
F3
sVaggravates
p4587
F1
sVone,--and
p4588
F1
sVmeasure
p4589
F1
sVwine,
p4590
F1
sVspecial
p4591
F3
sVgallant
p4592
F3
sVlance,
p4593
F5
sVfrisianorum
p4594
F1
sVtime;
p4595
F1
sVconfess
p4596
F2
sVtime,
p4597
F15
sVtime.
p4598
F7
sVcountry?"
p4599
F1
sVwondrous
p4600
F2
sVmottram's
p4601
F2
sVlands,
p4602
F1
sVlands.
p4603
F2
sVcause
p4604
F19
sVfly,
p4605
F2
sVfly.
p4606
F1
sVroundhead,
p4607
F2
sVyounger,
p4608
F2
sVbleaching
p4609
F1
sVpursuit.
p4610
F2
sVattending
p4611
F1
sVcompletely
p4612
F1
sVill,
p4613
F1
sVroundhead.
p4614
F2
sVhuntings
p4615
F1
sVprincess
p4616
F8
sVlegends
p4617
F11
sV"cheshire
p4618
F3
sVdunford
p4619
F2
sVroute
p4620
F1
sVtimes
p4621
F15
sVuthyr
p4622
F1
sVdruidical
p4623
F1
sVaustin
p4624
F1
sVmankind
p4625
F1
sVfaces,
p4626
F2
sVpowerful
p4627
F5
sVatherstone,
p4628
F1
sVsundown.
p4629
F1
sVgallery."]
p4630
F1
sVlist.
p4631
F1
sVlighter,
p4632
F1
sVcity.
p4633
F2
sVquality
p4634
F1
sVhorseman
p4635
F4
sVbe.
p4636
F1
sVbe,
p4637
F2
sVbears
p4638
F2
sVthey
p4639
F224
sVrelations
p4640
F2
sVattack
p4641
F7
sVlord,
p4642
F3
sVwrapped
p4643
F1
sVperfectly
p4644
F2
sVfinal
p4645
F1
sV"robin
p4646
F6
sVpunish
p4647
F1
sVexactly
p4648
F2
sVsmiled;
p4649
F1
sVclanging
p4650
F1
sVjauntily
p4651
F1
sVtroubling
p4652
F2
sVmakest
p4653
F1
sVsucceed.
p4654
F1
sVherself
p4655
F15
sVludworth,
p4656
F1
sVplace.
p4657
F2
sVfell,
p4658
F2
sVbeg
p4659
F1
sVbed
p4660
F3
sVclaim
p4661
F3
sVrelation,
p4662
F1
sVbear.
p4663
F1
sVcuriosity.
p4664
F2
sVproviding
p4665
F4
sVdistinguished
p4666
F4
sVspurs
p4667
F1
sVdrunk
p4668
F1
sVbradshawes
p4669
F1
sVhorrors
p4670
F1
sVneed
p4671
F8
sVborder
p4672
F1
sVitt
p4673
F1
sVpursued
p4674
F1
sVable
p4675
F8
sVproceeding,
p4676
F1
sVbattles
p4677
F5
sVbourne
p4678
F2
sVrelatives
p4679
F1
sVwitches,
p4680
F1
sVconsequence,
p4681
F1
sVwitches'
p4682
F2
sVhorse's
p4683
F1
sVcommoners,
p4684
F1
sVmoments,
p4685
F1
sVvengeance
p4686
F3
sVconnected
p4687
F7
sVpreparations
p4688
F2
sVhorror;
p4689
F1
sVnuisance
p4690
F1
sVbradshawe,
p4691
F1
sVroundheads--colonel
p4692
F1
sVgallery
p4693
F1
sVa-wooing,
p4694
F1
sVberth,
p4695
F1
sVblade,
p4696
F1
sVupset
p4697
F1
sVenville
p4698
F1
sVpenitent
p4699
F1
sVbattle.
p4700
F6
sV56,
p4701
F1
sVupright.
p4702
F1
sVsing,
p4703
F1
sVimpression
p4704
F2
sVqualms
p4705
F1
sVviolation
p4706
F1
sVslow;
p4707
F1
sVsoldiers
p4708
F20
sVchapman,
p4709
F2
sVarrived,
p4710
F2
sVlowlands
p4711
F1
sVadvanced;
p4712
F1
sVsheriff
p4713
F1
sVwinner
p4714
F1
sVcredited
p4715
F1
sVpouches
p4716
F1
sVthey.
p4717
F1
sVthongs
p4718
F1
sVnanny'--the
p4719
F1
sVinherited
p4720
F1
sVinfernal
p4721
F1
sVachieve
p4722
F2
sVgratify
p4723
F1
sVsoldier.
p4724
F4
sVsoldier,
p4725
F4
sVindentations
p4726
F1
sVpass,
p4727
F2
sVabundance
p4728
F1
sVpass.
p4729
F1
sVadore,
p4730
F1
sV22nd,
p4731
F1
sVascended
p4732
F1
sVgray
p4733
F4
sVsympathetic.
p4734
F1
sVhad,
p4735
F1
sVlegend.]
p4736
F1
sVshy
p4737
F1
sVbase,
p4738
F1
sVbase.
p4739
F1
sVtuned
p4740
F1
sVshe
p4741
F148
sVcontain
p4742
F1
sVhound."
p4743
F1
sVyears'
p4744
F1
sVwidow
p4745
F6
sVafter,
p4746
F1
sV"open
p4747
F1
sVunpretentious."
p4748
F1
sVbrave."
p4749
F1
sVshaas
p4750
F3
sVdesperate
p4751
F1
sVspirit."
p4752
F1
sVrecently
p4753
F3
sVfate--smiled
p4754
F1
sVfriendship--i
p4755
F1
sVrhubarb.
p4756
F1
sVthine--king's
p4757
F1
sVplaced
p4758
F10
sVsouthward
p4759
F1
sVmiddle,
p4760
F1
sVwon."
p4761
F1
sVmind,
p4762
F2
sVstate
p4763
F14
sVhollingworth
p4764
F5
sVsupernatural
p4765
F1
sVhorrible
p4766
F7
sVstrain;
p4767
F1
sVneither
p4768
F3
sVgenerations,
p4769
F1
sVasked.
p4770
F1
sVasked,
p4771
F1
sVpowers,
p4772
F2
sVsorely
p4773
F4
sVpowers.
p4774
F2
sVimportance
p4775
F3
sVhurrying
p4776
F1
sVshaa,
p4777
F9
sVshaa.
p4778
F3
sVinterfere
p4779
F2
sVbemoan
p4780
F1
sVasked:
p4781
F1
sVmerry
p4782
F10
sVprayer,
p4783
F2
sVprayer.
p4784
F1
sVengagement--for
p4785
F1
sVweeks
p4786
F3
sVmatter?"
p4787
F1
sVcareer
p4788
F2
sVsurmise.
p4789
F1
sVsee."
p4790
F1
sVstrains
p4791
F2
sVadmit
p4792
F2
sVmanifestations
p4793
F3
sVjoy.
p4794
F2
sVjoy,
p4795
F1
sVsteeds,
p4796
F3
sVbits,
p4797
F1
sVrecruits,
p4798
F1
sVshoulder?
p4799
F1
sVkinge
p4800
F2
sVpotts,
p4801
F1
sVinvisible
p4802
F4
sVtogether.
p4803
F2
sVexploits;
p4804
F1
sVtogether,
p4805
F6
sVkings
p4806
F2
sVsense,
p4807
F1
sVshoulder,
p4808
F6
sVshoulder.
p4809
F1
sVplunder.
p4810
F2
sVplunder,
p4811
F1
sVscenery,
p4812
F1
sVown,
p4813
F4
sVown.
p4814
F3
sVoutlaws
p4815
F1
sVslowly
p4816
F8
sVpoet
p4817
F1
sVday."
p4818
F2
sVarmies.
p4819
F1
sVchriste,
p4820
F1
sVbaggage,"
p4821
F1
sVshoulders
p4822
F1
sVsenses
p4823
F4
sVking.
p4824
F10
sVking,
p4825
F18
sVleague
p4826
F3
sVdead,
p4827
F4
sVking;
p4828
F2
sV"ah!"
p4829
F1
sVquotation
p4830
F1
sVtrooper,
p4831
F1
sVchair."]
p4832
F1
sVwords--and
p4833
F1
sVwigan,
p4834
F1
sVsterility
p4835
F1
sVoutlaw.
p4836
F1
sVoutlaw,
p4837
F2
sVharden
p4838
F1
sVhearers
p4839
F1
sVwill,
p4840
F4
sVwill.
p4841
F1
sVinstantly
p4842
F7
sVtrim-set
p4843
F1
sVblythe,
p4844
F1
sVheather,
p4845
F1
sVheather.
p4846
F1
sVappearance,
p4847
F4
sVswinging
p4848
F4
sVappearance.
p4849
F1
sVplaid,
p4850
F1
sVcometh
p4851
F1
sVmaid--nesta
p4852
F1
sVenemy--and
p4853
F1
sVbegan
p4854
F11
sVanon
p4855
F2
sVparts
p4856
F6
sVawakening,
p4857
F1
sVtumulii
p4858
F1
sVparty
p4859
F10
sVsince,
p4860
F1
sVbradwell
p4861
F1
sVguards,
p4862
F1
sVhuntsman
p4863
F1
sVguards.
p4864
F1
sVeffect
p4865
F5
sVto-night
p4866
F1
sVincantations,
p4867
F2
sVprophesied
p4868
F1
sVfierce
p4869
F8
sVfrequently
p4870
F4
sVbritons.
p4871
F3
sVpoultry
p4872
F1
sVscarcely
p4873
F8
sVtransaction
p4874
F1
sVdefilement
p4875
F1
sVintercede
p4876
F1
sVrecords
p4877
F1
sVi
F309
sVobstacles
p4878
F1
sVpart,
p4879
F4
sVpart.
p4880
F2
sV'my
p4881
F1
sVcommon--shooting
p4882
F1
sVthronged
p4883
F1
sVtumuli,
p4884
F1
sVdevise,
p4885
F1
sVdaie
p4886
F2
sVdistant
p4887
F11
sVknaves,
p4888
F1
sVskill
p4889
F3
sVlately
p4890
F1
sVparchment
p4891
F1
sVdost
p4892
F8
sVdistress
p4893
F2
sVushered
p4894
F1
sVcounties.
p4895
F1
sVpayment.
p4896
F1
sVsize;
p4897
F1
sVsomerset.
p4898
F1
sVlured
p4899
F2
sVdefeated,
p4900
F1
sVdoorway,
p4901
F1
sVwarrant
p4902
F1
sV"here
p4903
F1
sVmercy!"
p4904
F1
sVwooed
p4905
F2
sVample
p4906
F1
sValman,
p4907
F2
sV26,
p4908
F1
sVcatiffs.
p4909
F1
sVshouted
p4910
F1
sVunseen
p4911
F1
sVimmediately
p4912
F5
sVprominent
p4913
F3
sVloss
p4914
F5
sVlincoln
p4915
F2
sVnecessary
p4916
F6
sVlost
p4917
F6
sVring
p4918
F4
sVpaltry.
p4919
F1
sVhorsley
p4920
F1
sVlose
p4921
F2
sVpage
p4922
F1
sVbrigantines--a
p4923
F1
sVhero's
p4924
F1
sVart,--for
p4925
F1
sVshed
p4926
F2
sVchains,
p4927
F1
sVchains.
p4928
F2
sVbelonged
p4929
F2
sVlibrary
p4930
F7
sVcleverness,
p4931
F1
sVhome
p4932
F12
sVgutenberg's
p4933
F1
sVtwitted
p4934
F1
sVbefore,
p4935
F3
sVbefore.
p4936
F2
sVheaven's
p4937
F1
sVclean;
p4938
F1
sVcavalcade
p4939
F2
sVtogether--an
p4940
F1
sVbroad
p4941
F2
sVvisitations
p4942
F1
sVrode,
p4943
F2
sVrewarding
p4944
F1
sVcradle
p4945
F1
sVetherow;
p4946
F1
sV..."death
p4947
F1
sVreaching
p4948
F3
sVshe.
p4949
F4
sVsplinters.
p4950
F1
sVbundle
p4951
F3
sV'))45.
p4952
F1
sVshe;
p4953
F2
sVrefuge
p4954
F3
sVdiscovered,
p4955
F1
sVin.
p4956
F1
sVpercival,
p4957
F1
sVdominion
p4958
F1
sVnight--the
p4959
F1
sVtongue
p4960
F1
sVtelling.
p4961
F1
sVprimae
p4962
F1
sVreptile
p4963
F1
sVcelebrations
p4964
F1
sVpreviously
p4965
F1
sVcourt.
p4966
F1
sVdue
p4967
F7
sVh.
p4968
F3
sVpetitions,
p4969
F1
sVtimes.
p4970
F2
sVfighting,
p4971
F2
sVstrategy
p4972
F1
sVdoubtless
p4973
F3
sVindependence";
p4974
F1
sVbroad,
p4975
F1
sVnoticed
p4976
F2
sVcell,
p4977
F1
sVellison,
p4978
F1
sVnorth
p4979
F6
sVabnormal
p4980
F1
sVtread,
p4981
F2
sVsacrifice--the
p4982
F2
sVevacuate
p4983
F1
sVhu
p4984
F2
sVtownship,
p4985
F1
sVhighest
p4986
F2
sVeat
p4987
F4
sVhe
p4988
F568
sVregion--in
p4989
F1
sVeyes;
p4990
F1
sVbrigantines
p4991
F2
sVsigned
p4992
F1
sVprotector,
p4993
F1
sVcruel
p4994
F6
sVoverhead.
p4995
F1
sVstories
p4996
F14
sVweep.
p4997
F1
sVneglected,
p4998
F1
sVeyes.
p4999
F4
sVeyes,
p5000
F9
sVdisplay
p5001
F1
sVhandloom
p5002
F1
sVfriend.
p5003
F1
sVfriend,
p5004
F6
sVrebel--you
p5005
F1
sVdevise
p5006
F1
sVpenny
p5007
F1
sVkisses
p5008
F1
sVtwist
p5009
F1
sVpeerage,
p5010
F1
sVpikes
p5011
F4
sVkissed
p5012
F8
sVauthority
p5013
F1
sVsuccess.
p5014
F1
sVcavalry
p5015
F1
sVfunctions
p5016
F1
sVcontest
p5017
F2
sVlancashire.
p5018
F1
sVonwards
p5019
F1
sVfodder
p5020
F1
sVstar
p5021
F1
sVnearer
p5022
F4
sVfaustus
p5023
F1
sVstay
p5024
F8
sVstag
p5025
F1
sVfriends
p5026
F2
sVmottram
p5027
F60
sVappoint
p5028
F1
sVmanner.
p5029
F1
sVcity."
p5030
F1
sVmiddleton,
p5031
F1
sVmiddleton.
p5032
F1
sVportion
p5033
F13
sVstudents
p5034
F5
sVkatherine
p5035
F1
sVbritain--and,
p5036
F1
sVto-day,"
p5037
F1
sVovercome.
p5038
F1
sVpowders
p5039
F1
sVcavalier;
p5040
F1
sVnottingham
p5041
F1
sVrobbers,
p5042
F1
sVrobbers.
p5043
F1
sVconsists
p5044
F1
sVhorse!"
p5045
F1
sVcaptain
p5046
F9
sVnow?"
p5047
F1
sV(which
p5048
F1
sVup.
p5049
F5
sVwhose
p5050
F37
sVup,
p5051
F6
sVlongings,
p5052
F1
sVseriously
p5053
F2
sVtongue:--
p5054
F1
sVoxford.
p5055
F1
sVskill.
p5056
F1
sVskill,
p5057
F3
sValman's
p5058
F3
sVsorry
p5059
F1
sVsway
p5060
F1
sVscratched,
p5061
F1
sV"better
p5062
F1
sVrescue
p5063
F2
sVaback,
p5064
F1
sVcavaliers
p5065
F7
sVhadst
p5066
F2
sVglorious;
p5067
F1
sVrocking-chair
p5068
F1
sVaffairs.
p5069
F1
sVaffairs,
p5070
F1
sVutmost
p5071
F1
sVvast
p5072
F2
sVlook
p5073
F16
sVtottered,
p5074
F1
sVhath
p5075
F4
sVclothed
p5076
F1
sVcompanies
p5077
F1
sVcombat--yet
p5078
F1
sVwending
p5079
F2
sVlips.
p5080
F2
sVenhance
p5081
F1
sVfront,
p5082
F1
sVfront.
p5083
F2
sVfavoured
p5084
F1
sVfarmhouse
p5085
F1
sVforce
p5086
F12
sVme,
p5087
F13
sVme.
p5088
F9
sVlikely
p5089
F7
sVdescribe.
p5090
F1
sVfavourer
p5091
F1
sVscream.
p5092
F1
sVscream,
p5093
F1
sVme;
p5094
F2
sVeven
p5095
F54
sVnawadaha,
p5096
F1
sVgold,
p5097
F2
sVlights
p5098
F1
sVnow?'
p5099
F1
sV(r.
p5100
F1
sVrest.
p5101
F7
sVdr.
p5102
F4
sVnew
p5103
F12
sVever
p5104
F29
sV(apparently
p5105
F1
sVrelates
p5106
F1
sVpuritan,
p5107
F1
sVmen
p5108
F83
sVdrew
p5109
F16
sVmet
p5110
F18
sVkinsfolk
p5111
F3
sVeliciting
p5112
F1
sVguardian--a
p5113
F1
sVdry
p5114
F1
sVcried.
p5115
F5
sVeve,
p5116
F2
sVcried,
p5117
F4
sVtip,
p5118
F1
sVbuckled
p5119
F1
sVrests
p5120
F1
sVbeauty;
p5121
F1
sVpiercing
p5122
F1
sVcredit
p5123
F2
sVcried;
p5124
F1
sVbeloved.
p5125
F1
sVsuperstitious
p5126
F1
sVbeloved,
p5127
F1
sVand--king
p5128
F1
sVspouse,
p5129
F1
sVreckoned
p5130
F1
sVplea
p5131
F1
sVsenlac.
p5132
F1
sVcounty
p5133
F11
sVlegend--the
p5134
F1
sVwar,
p5135
F7
sVguests
p5136
F4
sVbow"--(as,
p5137
F1
sVoverhear
p5138
F1
sVscarred
p5139
F1
sVarmy
p5140
F20
sVremainder
p5141
F1
sVvictorious"--and
p5142
F1
sVarms
p5143
F15
sVstories?
p5144
F1
sVthomas's,
p5145
F1
sVcall
p5146
F7
sVcalm
p5147
F2
sVright"
p5148
F1
sVright,
p5149
F2
sVsurvive
p5150
F1
sVright.
p5151
F2
sVtell
p5152
F24
sVshepherd,
p5153
F1
sVstories.
p5154
F1
sVsupporters
p5155
F2
sVmaid."
p5156
F1
sVwars
p5157
F2
sValoft.
p5158
F2
sValoft,
p5159
F1
sVfirth,
p5160
F1
sVinhabited
p5161
F1
sVbefeathered
p5162
F1
sVroom
p5163
F8
sVmajesty,
p5164
F3
sVkissed,
p5165
F2
sVministry
p5166
F1
sVroof
p5167
F1
sVarm.
p5168
F2
sVarm,
p5169
F1
sVfoliage
p5170
F1
sVguise
p5171
F1
sVakin
p5172
F1
sVstate--why,
p5173
F1
sVgive
p5174
F22
sVlaid,
p5175
F1
sVwise."
p5176
F1
sVhoney
p5177
F1
sVadvancing
p5178
F4
sVrisk
p5179
F5
sVjoane
p5180
F1
sV"no
p5181
F1
sVremonstrated
p5182
F1
sVrecompense
p5183
F1
sVcommencing
p5184
F1
sVrise
p5185
F3
sVvaluables,
p5186
F2
sVbelievers
p5187
F1
sVfood,
p5188
F1
sVfood.
p5189
F1
sVlaugh,
p5190
F1
sVcuriosity
p5191
F3
sVbreerton
p5192
F2
sVpresident
p5193
F1
sVfood;
p5194
F1
sVlondon."
p5195
F1
sVattempt
p5196
F2
sVovertaken
p5197
F1
sVstill;
p5198
F1
sVlongingly
p5199
F1
sVclear,
p5200
F1
sVassuredly
p5201
F1
sVstill,
p5202
F3
sVcold.
p5203
F2
sVstill.
p5204
F1
sVcold,
p5205
F1
sVfrequent
p5206
F2
sVtryst.
p5207
F1
sVhorse--about
p5208
F1
sVeast,
p5209
F1
sVretinue,
p5210
F1
sVturner,
p5211
F1
sVwindows.
p5212
F1
sVdeck
p5213
F1
sVstaley."
p5214
F1
sVpetitioners
p5215
F1
sVdown,
p5216
F4
sVeavesdropping
p5217
F1
sVdown.
p5218
F1
sVdead--having
p5219
F1
sVbefore
p5220
F69
sVmercy,
p5221
F3
sVthen,
p5222
F37
sVmount,
p5223
F1
sVpersonal
p5224
F3
sVromans,
p5225
F3
sVedge
p5226
F1
sVbetter
p5227
F10
sValman
p5228
F16
sVcalling--that
p5229
F1
sV(edward
p5230
F1
sVovercome
p5231
F2
sVknowest
p5232
F1
sVplight,"
p5233
F1
sVmystic,
p5234
F1
sVwithin,
p5235
F1
sVhoofs,
p5236
F1
sVsecured.
p5237
F1
sVgrammar
p5238
F1
sVmeat
p5239
F2
sVhordes.
p5240
F1
sVvictories
p5241
F1
sVleaned
p5242
F3
sVdoctor's
p5243
F6
sVwent
p5244
F28
sVside
p5245
F20
sVcollier,
p5246
F3
sVluck
p5247
F3
sVcalmly
p5248
F1
sVfleet-footed
p5249
F1
sVprayers--that
p5250
F1
sVtaught
p5251
F1
sVcairns.
p5252
F1
sVstealing
p5253
F2
sVassault.
p5254
F2
sVdawn
p5255
F4
sVassault,
p5256
F1
sVextract
p5257
F1
sVtales
p5258
F8
sVmessage,
p5259
F3
sVstart.
p5260
F1
sVyeomen,
p5261
F1
sVstart,
p5262
F3
sVreader
p5263
F6
sVwaiting."
p5264
F1
sVsurprise
p5265
F7
sVwestfield,
p5266
F1
sVturning
p5267
F9
sVrelics
p5268
F2
sVaid,
p5269
F1
sVresume
p5270
F1
sV24,
p5271
F1
sVineld"
p5272
F1
sVprinciple.
p5273
F1
sVbestow
p5274
F3
sVstruggle
p5275
F7
sVvicarage,
p5276
F3
sVentrap
p5277
F2
sVrebels.
p5278
F2
sVdiv'se
p5279
F2
sVsteward
p5280
F15
sVbegan:
p5281
F1
sVtruly,"
p5282
F2
sVtale,
p5283
F3
sVtale.
p5284
F3
sVsatan,
p5285
F2
sVloud
p5286
F9
sVmerchant,
p5287
F1
sVmoorfield,
p5288
F2
sVslept
p5289
F1
sVthereon
p5290
F2
sVthereof
p5291
F2
sVvillage,
p5292
F1
sV"since
p5293
F1
sVimmensely
p5294
F2
sVinvalid.
p5295
F1
sVhood
p5296
F12
sVi--i
p5297
F1
sVdwelt
p5298
F5
sVknight.
p5299
F3
sVdain,
p5300
F1
sVknight,
p5301
F11
sVf.r.c.o.,
p5302
F1
sVhistorian
p5303
F1
sVtwisted
p5304
F1
sVlodge,
p5305
F2
sVerected?
p5306
F1
sVpurpose.
p5307
F2
sVwitnessing
p5308
F1
sVdwell
p5309
F3
sVsolemnly
p5310
F3
sVdenton,
p5311
F1
sVfloor,
p5312
F1
sVfloor.
p5313
F2
sVexecution,
p5314
F1
sVsomewhat
p5315
F6
sV"rest
p5316
F1
sVseas.
p5317
F1
sVpeculiar
p5318
F3
sVlads,
p5319
F1
sVbidden
p5320
F2
sVdistance
p5321
F8
sVexposure.
p5322
F1
sVcreatures,
p5323
F1
sVbody,
p5324
F3
sVcholmondeley;
p5325
F2
sVenabled
p5326
F2
sVbitterness
p5327
F1
sVwielder
p5328
F1
sVmatter
p5329
F20
sVfabulous
p5330
F1
sVspeaking
p5331
F2
sVbottom's
p5332
F2
sVknights
p5333
F9
sVturrets
p5334
F1
sVspears,
p5335
F1
sVpalace
p5336
F1
sVspears.
p5337
F2
sVfairies"
p5338
F1
sVmind
p5339
F7
sVmine
p5340
F3
sVseen
p5341
F39
sVseem
p5342
F4
sVsounding
p5343
F1
sVseek
p5344
F12
sVtells
p5345
F3
sVexpeditions
p5346
F1
sVjealously
p5347
F1
sVdo.
p5348
F5
sVasserts
p5349
F1
sVmoss-troopers,
p5350
F1
sVgamesley,
p5351
F1
sVchest
p5352
F2
sVhags
p5353
F1
sVrepented,
p5354
F1
sVthieves,
p5355
F1
sV(formerly
p5356
F1
sVtell,
p5357
F1
sVboggart,"
p5358
F2
sVbeast's,
p5359
F1
sVsee.
p5360
F3
sVsee,
p5361
F2
sVgeorge,"
p5362
F1
sVhood.
p5363
F1
sVhood,
p5364
F3
sVstating
p5365
F1
sVhood;
p5366
F1
sVpoints
p5367
F1
sVprinciple
p5368
F1
sVbreathed
p5369
F1
sVpeople;
p5370
F1
sVstrong,
p5371
F3
sVterms.
p5372
F1
sVdischarge,
p5373
F1
sVlongdendale,--nay,
p5374
F1
sVretire
p5375
F2
sVman,"
p5376
F4
sVattempts
p5377
F1
sVto."
p5378
F1
sVdiscourteous
p5379
F1
sVstepping
p5380
F1
sVweak,
p5381
F1
sVacquit
p5382
F1
sVfield?
p5383
F1
sVviolently;
p5384
F2
sVexplain
p5385
F4
sVfield.
p5386
F2
sVfield,
p5387
F6
sVthus--"in
p5388
F1
sVcenturion
p5389
F1
sVchamberlain
p5390
F1
sVscrubbing
p5391
F1
sVliege,"
p5392
F1
sVwearing
p5393
F2
sVthird.
p5394
F1
sVtiles
p5395
F1
sVrejoicing
p5396
F1
sVstop
p5397
F4
sVconvulsed
p5398
F1
sVcoast
p5399
F1
sVearl
p5400
F4
sVchronological
p5401
F1
sVbar
p5402
F1
sVfolk,
p5403
F2
sVfields
p5404
F9
sVbay
p5405
F1
sVbad
p5406
F9
sVsoftly
p5407
F2
sVseeks
p5408
F1
sVears
p5409
F6
sVattest
p5410
F1
sVfolly
p5411
F3
sVreference
p5412
F2
sVprophesy
p5413
F2
sVyew-bow
p5414
F1
sVlaughing,
p5415
F1
sVdecided
p5416
F6
sVfarmer,"
p5417
F1
sVvow,
p5418
F3
sVsubject
p5419
F2
sVwits.
p5420
F1
sVsaid
p5421
F145
sVstairs,
p5422
F1
sVnarrated
p5423
F2
sVdeath-shriek
p5424
F1
sVsail
p5425
F4
sVlady-love's
p5426
F1
sVprince
p5427
F32
sVbradshawe
p5428
F1
sVassociation,
p5429
F1
sVwarrior
p5430
F3
sVbeen--yet
p5431
F1
sVhouses.
p5432
F1
sVvows
p5433
F1
sVweary
p5434
F3
sVgentry
p5435
F4
sVpicking
p5436
F6
sVpraise."]
p5437
F1
sVstockport
p5438
F10
sVsuggested
p5439
F2
sVhorsemen
p5440
F2
sVman--madman,
p5441
F1
sVestimable
p5442
F2
sV1601,
p5443
F1
sVagainst
p5444
F20
sV"lancelot's
p5445
F1
sVprotection
p5446
F1
sVsheepe,
p5447
F1
sVconfronted
p5448
F2
sVappeared
p5449
F13
sVman--and
p5450
F1
sVrapidly,
p5451
F1
sVheight
p5452
F2
sVyet--they
p5453
F1
sVforay
p5454
F1
sVloaded
p5455
F1
sVspeedily
p5456
F2
sVtasted
p5457
F1
sVnow,
p5458
F16
sVnow.
p5459
F3
sVtint
p5460
F1
sVproceeded
p5461
F8
sVthree
p5462
F7
sVerect
p5463
F1
sVparticulars
p5464
F2
sVmouselow
p5465
F13
sVcheetham,
p5466
F1
sVrecognised
p5467
F9
sVinterest
p5468
F2
sVbasin
p5469
F1
sVlovely
p5470
F3
sVthrew
p5471
F2
sVspring.
p5472
F1
sVdeeper
p5473
F1
sVefficacy
p5474
F1
sVtrue,"
p5475
F1
sVquantities
p5476
F1
sVhollowed
p5477
F1
sVsly
p5478
F1
sVaffirm
p5479
F1
sVable-bodied
p5480
F1
sVraiders,"
p5481
F2
sVlovel.
p5482
F1
sVlovel,
p5483
F6
sVparticular,
p5484
F1
sVnear
p5485
F39
sVfrisians
p5486
F1
sVpapers,
p5487
F1
sVworse,
p5488
F2
sVchilling
p5489
F1
sVthought,
p5490
F1
sVthought.
p5491
F1
sVis
p5492
F279
sVit
p5493
F378
sVdefeated
p5494
F2
sVmarshes.
p5495
F1
sVin
p5496
F903
sVjames."
p5497
F1
sVdisappear
p5498
F1
sVif
p5499
F68
sVgrown
p5500
F1
sVwaging
p5501
F1
sVclaim,
p5502
F1
sVparish
p5503
F11
sVmake
p5504
F30
sVspoyled
p5505
F1
sVmilking-cans
p5506
F1
sVunsuccessfully.
p5507
F1
sVbilleted
p5508
F1
sVunfortunate
p5509
F2
sVgrows
p5510
F2
sVbells
p5511
F1
sVwarder
p5512
F3
sVjack,
p5513
F1
sVsoil.
p5514
F1
sVsoil,
p5515
F1
sVblandly
p5516
F1
sVhowarth,
p5517
F1
sVi.
p5518
F2
sV40tye
p5519
F1
sVopportunity
p5520
F1
sVthoughts
p5521
F1
sVgrow.
p5522
F1
sVemissary
p5523
F2
sVsettled
p5524
F3
sVbaronet
p5525
F2
sVdirectly
p5526
F2
sVrome
p5527
F1
sVqualities
p5528
F1
sVclaims
p5529
F1
sVleft
p5530
F39
sVdream.
p5531
F2
sVjust
p5532
F18
sVsentence
p5533
F2
sVagoe
p5534
F1
sVsporting
p5535
F1
sVlisten!--dost
p5536
F1
sVatli?
p5537
F1
sVbookbinder,
p5538
F1
sVassigned
p5539
F1
sVhuman
p5540
F12
sVfeet.
p5541
F2
sVbaron--who
p5542
F1
sVatli.
p5543
F1
sVyew
p5544
F2
sVatli,
p5545
F7
sVregarded
p5546
F1
sVwife,"
p5547
F1
sVcharacter
p5548
F2
sVgreensward
p5549
F2
sV527,
p5550
F1
sVrampart,
p5551
F1
sVsave
p5552
F10
sVgeraldine"
p5553
F1
sVfact.
p5554
F1
sVfact,
p5555
F5
sVm.a.,
p5556
F2
sVgeraldine.
p5557
F1
sVforester
p5558
F10
sVgeraldine,
p5559
F4
sV20tie
p5560
F1
sVdiscreet
p5561
F1
sVrebellion,
p5562
F1
sVrebellion.
p5563
F1
sVdreamt
p5564
F1
sVgiver,
p5565
F1
sVetc....
p5566
F1
sVdreams
p5567
F1
sVshoulder
p5568
F4
sVdignity
p5569
F2
sVmarauders,"
p5570
F1
sVpunished."
p5571
F1
sVsatisfaction.
p5572
F1
sVdean
p5573
F1
sVchisworth
p5574
F1
sVdead
p5575
F35
sVdear
p5576
F3
sVtranslates
p5577
F1
sVisland.
p5578
F1
sVtrace
p5579
F2
sVisland,
p5580
F1
sVthroat.
p5581
F1
sVshakespeare
p5582
F1
sVthinkest
p5583
F2
sVbold
p5584
F13
sVburn
p5585
F1
sVready."
p5586
F1
sVtold;
p5587
F1
sVtold.
p5588
F1
sVwept
p5589
F2
sVflourished
p5590
F1
sVfrightened.
p5591
F1
sVassault
p5592
F2
sVblithe
p5593
F1
sVsprites
p5594
F1
sVkynge
p5595
F1
sVnerve
p5596
F1
sVformerly
p5597
F5
sVbasingwerke
p5598
F6
sVlow.
p5599
F2
sVgrange,
p5600
F1
sVlow,
p5601
F3
sV"trouble!"
p5602
F1
sVdown
p5603
F35
sVlies
p5604
F4
sVlieu
p5605
F1
sVhalidome,
p5606
F1
sVgoose,"
p5607
F1
sVmottram-in-longdendale
p5608
F1
sVperish.
p5609
F1
sVannoyance
p5610
F1
sVperish,
p5611
F1
sVamazingly
p5612
F1
sVflying
p5613
F2
sVjob."
p5614
F1
sVbound,
p5615
F1
sVvictorious
p5616
F1
sVeditor
p5617
F1
sVking--again
p5618
F1
sVstarve
p5619
F1
sVundergrowth
p5620
F1
sVoffering
p5621
F1
sVgleam
p5622
F1
sVfore
p5623
F1
sVfailure
p5624
F2
sVprettily
p5625
F2
sVwhat,
p5626
F1
sVfort
p5627
F3
sV"well
p5628
F1
sVfaction,
p5629
F3
sVwidow."
p5630
F1
sVscattered,
p5631
F2
sVattached
p5632
F4
sVlips
p5633
F10
sVstages
p5634
F1
sVtemper
p5635
F2
sVhurriedly
p5636
F1
sVfool,"
p5637
F1
sVcreaked.
p5638
F1
sVdie.
p5639
F6
sVdie,
p5640
F1
sVawhile
p5641
F1
sVunholy
p5642
F3
sVhamnet,"
p5643
F1
sVgenerally
p5644
F5
sVsteed,
p5645
F3
sVhanded
p5646
F2
sVholly
p5647
F2
sVhusbandman.
p5648
F1
sVwidow,
p5649
F2
sVsavage
p5650
F4
sVconing
p5651
F1
sVfelt
p5652
F4
sVcentury--several
p5653
F1
sVstrangers
p5654
F1
sVesteem,
p5655
F1
sVfell
p5656
F35
sVmass,
p5657
F1
sVauthorities
p5658
F2
sVseer's
p5659
F1
sVstick,
p5660
F1
sVaware
p5661
F3
sVdied
p5662
F18
sVgrief
p5663
F2
sVcareering
p5664
F1
sVhappening
p5665
F1
sVdaily
p5666
F1
sVspeaker,
p5667
F2
sVhyde,"
p5668
F1
sVteeth
p5669
F3
sVrestored
p5670
F1
sVcustomary
p5671
F1
sVjingling
p5672
F2
sVsouls
p5673
F1
sVthemes
p5674
F1
sVmile
p5675
F1
sVskin
p5676
F4
sVcontinued,
p5677
F1
sVsoule
p5678
F2
sVmilk
p5679
F1
sVsimnel
p5680
F1
sVpraises
p5681
F1
sVlids.
p5682
F1
sVelizabeth
p5683
F1
sVfather
p5684
F11
sVtravel,
p5685
F1
sVproposal.
p5686
F1
sVfinally
p5687
F9
sVmarks
p5688
F2
sVsuffered
p5689
F2
sVoff.
p5690
F4
sVshoot
p5691
F2
sVforth.
p5692
F2
sVstring
p5693
F1
sVatoned
p5694
F1
sVanon,
p5695
F1
sVsoul.
p5696
F2
sVcurate's
p5697
F1
sVpious
p5698
F1
sVtestimony.
p5699
F1
sV29th,
p5700
F1
sVdim
p5701
F1
sVbanished
p5702
F1
sVdid
p5703
F38
sVdie
p5704
F2
sVmagnet
p5705
F1
sVevil,"
p5706
F1
sVpraise"
p5707
F1
sVpraise.
p5708
F1
sVdip
p5709
F2
sVround
p5710
F13
sVthames.
p5711
F1
sVtalked
p5712
F2
sVfearing
p5713
F2
sVdealing
p5714
F1
sVwherefore
p5715
F1
sVstamford
p5716
F2
sVadvocacy
p5717
F1
sVshook,
p5718
F1
sVfavour
p5719
F5
sViii.,
p5720
F1
sVannals
p5721
F1
sVsuspect
p5722
F1
sVfilled
p5723
F4
sVdwarf
p5724
F1
sVguardian
p5725
F1
sVfrench
p5726
F2
sV"would
p5727
F2
sVaurelius
p5728
F1
sVwearily
p5729
F1
sVfarmyard,
p5730
F1
sVasthma.
p5731
F1
sVearthquake
p5732
F2
sVwait
p5733
F6
sVbox
p5734
F2
sVboy
p5735
F1
sVaccursed.
p5736
F1
sVaccursed,
p5737
F1
sVhouse-breaking
p5738
F1
sVshift
p5739
F1
sVpemberton,
p5740
F1
sVbow
p5741
F3
sVthrashed
p5742
F1
sVhere.
p5743
F4
sVsuggestion
p5744
F1
sVhere,
p5745
F3
sVquarrel
p5746
F2
sVbog
p5747
F3
sVhither
p5748
F3
sVinsolent
p5749
F1
sVbroomsticks
p5750
F1
sVmerely
p5751
F3
sVvii.,
p5752
F1
sVdevout.
p5753
F1
sVwithal
p5754
F4
sVguilty,
p5755
F1
sVverge
p5756
F2
sVeverybody
p5757
F1
sVwealth
p5758
F6
sVsake
p5759
F2
sVjoyous
p5760
F1
sVvisit
p5761
F8
sVquiver,
p5762
F1
sVtroope
p5763
F3
sVdecease,
p5764
F1
sVbearing.
p5765
F1
sVrepast
p5766
F1
sVbeholder
p5767
F1
sVencamped
p5768
F3
sVfled."
p5769
F2
sV----
p5770
F3
sVbeholden
p5771
F1
sVeffort
p5772
F3
sVquickly.
p5773
F1
sVbristling
p5774
F1
sVfly
p5775
F3
sVavoiding
p5776
F1
sVsoul
p5777
F6
sVinside,
p5778
F1
sVquivers
p5779
F1
sVgrowing
p5780
F3
sVmaking
p5781
F5
sVdamnation,"
p5782
F1
sVnearest
p5783
F2
sVjournal,
p5784
F1
sVexecutioners,
p5785
F1
sVconfused
p5786
F1
sVsample
p5787
F2
sVroundheads
p5788
F7
sVcouncil
p5789
F2
sVstroke,
p5790
F1
sVpine
p5791
F1
sVdregs,
p5792
F1
sVstrikingly
p5793
F1
sVtill
p5794
F5
sVsword
p5795
F13
sVswore
p5796
F6
sVcommittee).
p5797
F1
sVpersuasion
p5798
F1
sVsworn
p5799
F1
sVamiss,
p5800
F1
sVamiss.
p5801
F1
sVthine."
p5802
F1
sVstaying
p5803
F1
sVswayed
p5804
F1
sVmay
p5805
F37
sVlord;
p5806
F2
sVpall:
p5807
F1
sVdoffed
p5808
F2
sVmad
p5809
F5
sVtrue."
p5810
F2
sVblistered,
p5811
F1
sVlord.
p5812
F1
sVgrow
p5813
F1
sVcomplied.
p5814
F2
sVman
p5815
F69
sVfellows--for
p5816
F1
sVneck
p5817
F4
sVmynde
p5818
F1
sV6th
p5819
F1
sVpurify
p5820
F1
sVtale
p5821
F11
sVprovide
p5822
F4
sVfalls.
p5823
F1
sVbasket
p5824
F1
sVtall
p5825
F2
sVtalk
p5826
F9
sVrattle,
p5827
F1
sVstrongholds.
p5828
F1
sVpointed
p5829
F3
sVseizing
p5830
F2
sVswans.
p5831
F1
sVshake
p5832
F2
sVview,
p5833
F2
sVview.
p5834
F1
sVjock
p5835
F4
sVson--an
p5836
F1
sVinquiries,
p5837
F1
sVgroup
p5838
F5
sVwhite-robed
p5839
F1
sVking."
p5840
F3
sVinteresting
p5841
F6
sVyorkshire
p5842
F2
sVmaid
p5843
F24
sViiij
p5844
F1
sVscarlette,
p5845
F1
sVmain
p5846
F2
sVbattlefield.
p5847
F1
sVled,
p5848
F1
sVbattlefield,
p5849
F2
sVtruest
p5850
F1
sVtucked
p5851
F1
sVviews
p5852
F3
sVcut,
p5853
F1
sVcuriosity,
p5854
F2
sVmanhood's
p5855
F1
sVsooner
p5856
F4
sVbegun.
p5857
F4
sVtouching
p5858
F1
sVamos,
p5859
F1
sVpossess
p5860
F2
sVetherow.
p5861
F1
sVetherow,
p5862
F3
sVarrows
p5863
F3
sVjoane,
p5864
F1
sVpeasant
p5865
F2
sVlord,"
p5866
F2
sVrock
p5867
F11
sVmethyglin,
p5868
F1
sVfragmentary.
p5869
F1
sVgirt
p5870
F1
sVhistory--as
p5871
F1
sVlatin
p5872
F1
sVmen--she
p5873
F1
sVscheme
p5874
F2
sVtreacherous
p5875
F5
sVtherefore,
p5876
F4
sVbefell
p5877
F2
sVgirl
p5878
F10
sVsnow-white
p5879
F1
sVliving
p5880
F7
sVgarb--thus
p5881
F1
sVfootsteps
p5882
F1
sV3rd
p5883
F1
sVinterference
p5884
F2
sVxiii.
p5885
F2
sVpriest
p5886
F1
sVgamesley.
p5887
F1
sVemerged
p5888
F3
sV"you'll
p5889
F1
sVthin,
p5890
F1
sVhenry--and
p5891
F1
sVassurance
p5892
F1
sVearlier
p5893
F2
sVbrooks
p5894
F1
sVromans
p5895
F18
sVrows
p5896
F1
sVsunlight.
p5897
F1
sVsunlight,
p5898
F2
sVbrew,
p5899
F1
sVsons,"
p5900
F1
sVlanguage
p5901
F4
sVgoest
p5902
F1
sVcontented
p5903
F1
sVflowed.
p5904
F2
sVthing
p5905
F14
sVthine
p5906
F4
sVfight--not
p5907
F1
sVsufferance
p5908
F1
sVfarm,"
p5909
F2
sVthink
p5910
F11
sVwaited
p5911
F2
sVfirst
p5912
F41
sVdwelling
p5913
F5
sVbut,
p5914
F5
sV"goodman
p5915
F1
sVlong
p5916
F42
sVsuspended
p5917
F1
sVcarry
p5918
F12
sVdischarged
p5919
F2
sVhonesty
p5920
F2
sVlittle
p5921
F36
sVman--the
p5922
F1
sVheaved,
p5923
F1
sVunduly
p5924
F1
sVineld,
p5925
F3
sVanyone
p5926
F3
sVantiquary,
p5927
F1
sVbloodshed
p5928
F1
sVeyes
p5929
F19
sVsound.
p5930
F3
sVcarr,
p5931
F1
sV"there
p5932
F3
sVdismounted,
p5933
F2
sVdungeon.
p5934
F1
sVeyed
p5935
F1
sVdungeon,
p5936
F3
sVrather,"
p5937
F1
sVinterred
p5938
F2
sV10
p5939
F3
sV13
p5940
F1
sVthereon,
p5941
F1
sV18
p5942
F1
sVf.r.c.s.,
p5943
F1
sVplain,
p5944
F1
sVknives
p5945
F1
sVventure
p5946
F3
sVwere
p5947
F232
sVgigantic
p5948
F1
sVqueen,
p5949
F1
sVqueen.
p5950
F3
sVcomplaint.
p5951
F2
sVvoices
p5952
F3
sVdash
p5953
F2
sVspent,
p5954
F1
sV"fare
p5955
F1
sVoccupied
p5956
F4
sVfop,
p5957
F1
sVhitherto
p5958
F3
sVspeakers
p5959
F2
sVunheeding
p5960
F1
sVqueen."
p5961
F2
sVday--but
p5962
F1
sVpurest
p5963
F1
sVendangered
p5964
F1
sVwretch
p5965
F1
sVwonder
p5966
F3
sV200
p5967
F3
sVpain
p5968
F5
sVnorman
p5969
F3
sVvoice:
p5970
F2
sVtrack
p5971
F4
sViii.
p5972
F5
sVpaid
p5973
F4
sVvoice,
p5974
F5
sVroused
p5975
F1
sVvoice.
p5976
F3
sVtract
p5977
F2
sVunobserved,
p5978
F1
sVconspicuous
p5979
F1
sVqueens,
p5980
F1
sVretained,
p5981
F1
sVespecially
p5982
F7
sVsurprising
p5983
F1
sVgoodier,
p5984
F1
sVwouldst
p5985
F1
sVbattle-chant
p5986
F1
sVscowl
p5987
F1
sVsweetheart,
p5988
F1
sValone,
p5989
F4
sValone.
p5990
F3
sVprecise
p5991
F1
sVbearded,
p5992
F1
sVshot
p5993
F5
sVwoodhead,
p5994
F1
sVshow
p5995
F3
sVcontemporary
p5996
F1
sVcorner
p5997
F3
sVwhereabouts
p5998
F1
sV"distance
p5999
F1
sVchronicle:--"when
p6000
F1
sVtreasure
p6001
F1
sVenough
p6002
F14
sVcow,"
p6003
F2
sVrebel,"
p6004
F2
sVblack
p6005
F10
sVconsciousness,
p6006
F1
sVfiendish
p6007
F2
sVplump
p6008
F1
sVget
p6009
F23
sVfared.
p6010
F1
sVgrave
p6011
F3
sVnearly
p6012
F4
sVgee
p6013
F4
sVgibbet
p6014
F8
sVmorning
p6015
F10
sVbridle
p6016
F1
sVwell-dressed
p6017
F1
sVsilently
p6018
F3
sVlongdendale,"
p6019
F1
sVdeclared
p6020
F1
sVsinger.
p6021
F1
sVseas
p6022
F1
sVpendragon
p6023
F3
sVseat
p6024
F7
sVprime,--was
p6025
F1
sVj.
p6026
F3
sV1483,
p6027
F2
sVlady-love,
p6028
F1
sVlady-love.
p6029
F2
sV"part
p6030
F1
sVguardian.
p6031
F1
sVguardian,
p6032
F1
sVmissus,
p6033
F1
sVfather's
p6034
F7
sVbehind
p6035
F15
sVhinchcliffe,
p6036
F1
sVparry,
p6037
F1
sVreading
p6038
F2
sVmoaned
p6039
F3
sVacross
p6040
F14
sVdate.
p6041
F1
sVwhispered
p6042
F5
sVlassies,
p6043
F1
sVparent
p6044
F1
sVlegitimacy
p6045
F1
sVdeclare,
p6046
F1
sVkilling
p6047
F3
sVhonest,
p6048
F1
sV"lewin--sweetheart,"
p6049
F1
sV"excalibur"
p6050
F1
sVlegionaires."
p6051
F1
sVbritish.
p6052
F1
sVnecessity,
p6053
F1
sV"because
p6054
F1
sVnawadaha
p6055
F1
sVdiamond,
p6056
F1
sVaccording
p6057
F4
sVchatter,
p6058
F1
sVredgate
p6059
F1
sVdwellers
p6060
F1
sVholders
p6061
F1
sVamong
p6062
F22
sValdermene,
p6063
F1
sVsea,
p6064
F1
sVslain
p6065
F14
sVelders--his
p6066
F1
sVstretched
p6067
F2
sVpyler
p6068
F1
sVmerlin,
p6069
F1
sVnose
p6070
F3
sVconsidering
p6071
F1
sVdestroyed
p6072
F1
sVunusual
p6073
F2
sVmark
p6074
F4
sVacre
p6075
F1
sVfound.
p6076
F1
sVeducated
p6077
F1
sVgraveyard
p6078
F1
sVlustily
p6079
F1
sVoffered
p6080
F3
sVunturned
p6081
F1
sVgrant,
p6082
F1
sVoccurred--simply
p6083
F1
sVgripped
p6084
F2
sVdramatic
p6085
F1
sVvitalis
p6086
F1
sVmottram--his
p6087
F1
sVdeclaration
p6088
F1
sVthose
p6089
F36
sVsound
p6090
F5
sVpredicament
p6091
F1
sVborder,
p6092
F4
sVborder.
p6093
F1
sVslumber
p6094
F1
sVtuck
p6095
F4
sVbreast,
p6096
F1
sVborder;
p6097
F1
sVdivined
p6098
F1
sVresidence
p6099
F1
sVawakened
p6100
F3
sVbarr,
p6101
F1
sVprice,
p6102
F3
sVhound"--i
p6103
F1
sVnet.
p6104
F1
sVendowed
p6105
F2
sVsleeping
p6106
F1
sVmiddle
p6107
F2
sVarrows,
p6108
F2
sVdangerously
p6109
F2
sVarrows.
p6110
F1
sVsee,--things
p6111
F1
sVbeene
p6112
F1
sVcreaks
p6113
F1
sVdifferent
p6114
F4
sV(who
p6115
F2
sVharsh
p6116
F1
sVdoctor
p6117
F18
sVpay
p6118
F4
sVwoodland
p6119
F4
sVsame
p6120
F25
sVwarrington.
p6121
F2
sVthinning
p6122
F1
sVtriumphantly
p6123
F1
sVtenant's
p6124
F1
sVburford
p6125
F1
sVstepped
p6126
F4
sVwidow--dame
p6127
F1
sVpan
p6128
F1
sVextended
p6129
F1
sVhistory,
p6130
F3
sVassist
p6131
F1
sVcompanion
p6132
F2
sVrunning
p6133
F6
sVyoung.
p6134
F1
sVshivered,
p6135
F1
sV1900.
p6136
F1
sVtree."
p6137
F1
sVintermittent
p6138
F1
sVroughly
p6139
F2
sVobjection
p6140
F3
sVabsence,
p6141
F1
sVgates
p6142
F2
sVsuitor
p6143
F1
sVstoutest
p6144
F2
sVwide-brimmed
p6145
F1
sVsights
p6146
F1
sVreputable
p6147
F1
sVaspect
p6148
F1
sVshaa--an
p6149
F1
sV(h.
p6150
F1
sVsequestred
p6151
F1
sVsprang
p6152
F13
sVrobber,
p6153
F1
sVcomradeship
p6154
F1
sVsummer's
p6155
F1
sVpile
p6156
F2
sVdunham
p6157
F1
sVlashed
p6158
F1
sVhouse.'
p6159
F1
sVwife,
p6160
F13
sVwife.
p6161
F2
sVdied."
p6162
F1
sVexecutors,
p6163
F2
sVwife"
p6164
F2
sVthine,"
p6165
F1
sVrods--would
p6166
F1
sVsight.
p6167
F4
sVall?"
p6168
F1
sV(he
p6169
F1
sVgate.
p6170
F3
sVgrim
p6171
F8
sVgate,
p6172
F9
sVacquainted
p6173
F2
sVwar?"
p6174
F1
sVswaying
p6175
F1
sVmaintained
p6176
F4
sVserves
p6177
F1
sVchamber
p6178
F2
sVaudience
p6179
F4
sVmiraculous
p6180
F1
sVeither
p6181
F6
sVbewitched
p6182
F1
sVserved
p6183
F5
sVrobbers
p6184
F1
sVfulfil
p6185
F1
sVrefer,
p6186
F1
sVwitchcraft
p6187
F1
sVfolly."
p6188
F2
sVingle
p6189
F1
sVwigan
p6190
F1
sV277,
p6191
F1
sVsecond,
p6192
F1
sVimages
p6193
F2
sVjoan
p6194
F1
sVlondon,
p6195
F11
sVlondon.
p6196
F2
sVgross
p6197
F1
sVtheirs,
p6198
F2
sVking,"
p6199
F1
sVstation;
p6200
F1
sVdeath."
p6201
F1
sVcritical
p6202
F1
sVtheirs?
p6203
F1
sVstation,
p6204
F1
sVstation.
p6205
F4
sVknife
p6206
F1
sVoldfield
p6207
F4
sVimage.
p6208
F1
sVmare
p6209
F3
sVcoombs.
p6210
F2
sVeach
p6211
F16
sVnotable
p6212
F3
sVnotably
p6213
F1
sVbroken
p6214
F4
sVsteading.
p6215
F1
sVshadows.
p6216
F1
sVrefers
p6217
F4
sVstations
p6218
F1
sVroar
p6219
F1
sVisland
p6220
F1
sVviolence
p6221
F1
sVdevil;
p6222
F1
sVeighteenth
p6223
F1
sVmounting
p6224
F2
sVmixed
p6225
F1
sVvictors
p6226
F1
sVout,
p6227
F7
sVroad
p6228
F13
sVquietly
p6229
F4
sVlands
p6230
F11
sVmorning;
p6231
F1
sVroad-side."
p6232
F1
sVimportance,"
p6233
F1
sVmills.
p6234
F1
sVmorning.
p6235
F2
sV1580,
p6236
F1
sVfated
p6237
F1
sVchiefs,
p6238
F2
sVdistracted
p6239
F3
sVfates
p6240
F1
sVwhistling,
p6241
F1
sVdukinfields
p6242
F1
sVburied--."
p6243
F1
sVmay,"
p6244
F1
sVagricola
p6245
F4
sVstrife;
p6246
F1
sVgory
p6247
F1
sVreference,
p6248
F1
sVhalloa,
p6249
F1
sVgods,
p6250
F1
sVstrife,
p6251
F1
sVwhite.
p6252
F2
sVwhite,
p6253
F4
sVland,
p6254
F1
sVwounded,
p6255
F1
sVarranged
p6256
F1
sVagain,"
p6257
F1
sVdukinfield,
p6258
F5
sVlion,
p6259
F1
sVscotch,"
p6260
F1
sVfate.
p6261
F2
sVfate,
p6262
F2
sVconqueror
p6263
F2
sVfate?
p6264
F1
sVpowerless
p6265
F2
sVaxes,
p6266
F4
sVdeer
p6267
F4
sVdeep
p6268
F6
sVfellow
p6269
F5
sVbrand;
p6270
F1
sVimagination
p6271
F2
sVdeem
p6272
F1
sVfile
p6273
F1
sVprincess.
p6274
F1
sVlifetime
p6275
F1
sVdeed
p6276
F2
sVhound
p6277
F7
sVfill
p6278
F2
sVagain
p6279
F25
sVfield
p6280
F6
sVknave,
p6281
F2
sVcloughs
p6282
F1
sVsick,
p6283
F1
sVfruitless
p6284
F1
sVdepress
p6285
F1
sVshelter
p6286
F6
sVnarrative
p6287
F1
sVmouselow.
p6288
F6
sVtiles,
p6289
F1
sVmouselow,
p6290
F4
sVimportant
p6291
F1
sVitself,
p6292
F2
sVorat
p6293
F1
sVtraveller."
p6294
F1
sVknaves
p6295
F1
sV"mercy,
p6296
F1
sVsuffering.
p6297
F1
sVsuffering,
p6298
F2
sVdog,"
p6299
F1
sVreined
p6300
F1
sVsilent.
p6301
F2
sVrepresent
p6302
F1
sVsilent,
p6303
F1
sVforget
p6304
F2
sVvile
p6305
F1
sVforbidden
p6306
F1
sVdeath--shooting
p6307
F1
sVfounded
p6308
F4
sVsunk
p6309
F1
sVforged
p6310
F1
sVinvariably
p6311
F3
sVbower,
p6312
F1
sVchildren
p6313
F12
sVhabitation,
p6314
F1
sVnorth,
p6315
F2
sVlaid
p6316
F8
sVterritory,
p6317
F1
sV'twill
p6318
F1
sVfoul."
p6319
F1
sVcaptivity
p6320
F1
sVmother,
p6321
F5
sVfootsteps,
p6322
F1
sVmother.
p6323
F1
sVhideous
p6324
F1
sVduckenfield,
p6325
F1
sVsun;
p6326
F1
sVstory--accompanied
p6327
F1
sVreturning
p6328
F5
sVresistance
p6329
F1
sVsun,
p6330
F2
sVfall
p6331
F10
sVsubterranean
p6332
F1
sVd----
p6333
F1
sVvouchsafe
p6334
F1
sVknighthood
p6335
F2
sVsheffield.
p6336
F2
sVdrugged
p6337
F1
sVsought.
p6338
F1
sValbert,
p6339
F1
sVteens--and
p6340
F1
sVrange,
p6341
F2
sVbible,
p6342
F1
sVquiet,
p6343
F1
sVlightning,
p6344
F1
sVwitch,
p6345
F5
sVourselves,
p6346
F2
sVwitch.
p6347
F6
sV1906),
p6348
F1
sVcreatures
p6349
F1
sVburyed,'
p6350
F1
sVmilk,
p6351
F1
sVstood
p6352
F34
sVstraighter
p6353
F1
sVill-tempered;
p6354
F1
sVeverlasting
p6355
F1
sVpublic
p6356
F10
sVmovement
p6357
F1
sVcompact
p6358
F3
sVbasely
p6359
F1
sVranged
p6360
F1
sVtitle,
p6361
F2
sVvale
p6362
F4
sVdabbled
p6363
F1
sVdisastrous
p6364
F1
sVenglish--"and,
p6365
F1
sVroadside.
p6366
F1
sVknife,
p6367
F1
sVfray.
p6368
F1
sVsearch
p6369
F2
sVaforesaid
p6370
F1
sVenmity
p6371
F1
sVmargin
p6372
F1
sVpublished
p6373
F1
sVmentions
p6374
F1
sVchieftain
p6375
F2
sVnarrow
p6376
F1
sVsplashes
p6377
F1
sVpsalm-singing
p6378
F1
sVlongdendale."
p6379
F1
sVarmed
p6380
F5
sVdeeming
p6381
F1
sVmarauders
p6382
F1
sVwail,
p6383
F1
sVyeomen
p6384
F3
sV'))reet
p6385
F1
sVeye
p6386
F4
sV"have
p6387
F2
sVsuperstition,
p6388
F1
sVvictualls
p6389
F1
sVghost-hound,
p6390
F1
sVtwo
p6391
F35
sVguard,
p6392
F1
sVlady?
p6393
F1
sVcultivation
p6394
F1
sVmisery,
p6395
F1
sVsupped,
p6396
F1
sVahead,
p6397
F2
sVindividuals,
p6398
F1
sVstaggering
p6399
F1
sVstable
p6400
F1
sVnantwich;
p6401
F2
sVgoose-tipped
p6402
F1
sVlanded
p6403
F3
sVratcliffe
p6404
F1
sV(stalybridge)--thomas
p6405
F1
sVparticular
p6406
F2
sV4th,
p6407
F1
sVtown
p6408
F12
sVnone
p6409
F10
sVhour
p6410
F10
sVsquire,
p6411
F3
sVsquire.
p6412
F4
sVguards
p6413
F3
sVremain
p6414
F8
sVabroad,
p6415
F2
sVtroubled,
p6416
F2
sVillustrations.
p6417
F1
sVtintwistle,
p6418
F1
sVbravely
p6419
F3
sVapproved
p6420
F2
sVshare
p6421
F2
sVbreathing
p6422
F1
sVnumbers
p6423
F2
sVpurchased
p6424
F1
sVsharp
p6425
F5
sVrobinson
p6426
F2
sV1575.
p6427
F1
sVneeds
p6428
F1
sVdrained
p6429
F1
sVindeed,"
p6430
F1
sVcomfort
p6431
F4
sVredoubtable
p6432
F1
sVlawrance,
p6433
F1
sVsacred
p6434
F8
sVsteps,
p6435
F1
sVstir
p6436
F1
sVwitch-woman.
p6437
F1
sVcharms
p6438
F2
sVclothes
p6439
F2
sVgraphic
p6440
F1
sVadvice
p6441
F3
sVinterpose
p6442
F1
sVplunderinge
p6443
F1
sVblood
p6444
F14
sVcoming
p6445
F10
sVpaynim.
p6446
F1
sVbleak
p6447
F3
sVsire,
p6448
F1
sVusurper
p6449
F1
sVorchard
p6450
F2
sVdozing,
p6451
F1
sVhesitated;
p6452
F1
sVthou,
p6453
F4
sVcoal
p6454
F2
sVmatilda--for
p6455
F1
sVskilful
p6456
F2
sVact.
p6457
F1
sVusurped
p6458
F1
sVturnpike
p6459
F1
sVpleasure
p6460
F1
sVhesitated,
p6461
F1
sVneed,
p6462
F1
sVinfant
p6463
F3
sVplayed
p6464
F5
sVhighwaymen,
p6465
F1
sVwinged
p6466
F1
sVsayd,
p6467
F1
sVwall,
p6468
F1
sVwrist,
p6469
F1
sVmore,
p6470
F2
sValready
p6471
F10
sVthrough
p6472
F48
sVpredisposed
p6473
F1
sVrydyng
p6474
F1
sVsuffer
p6475
F3
sVmore.
p6476
F1
sVenglishman.
p6477
F1
sV20
p6478
F1
sVintercession
p6479
F1
sVaccompanyed
p6480
F1
sVl70
p6481
F1
sVcharity,
p6482
F1
sVbosom
p6483
F1
sVlate
p6484
F12
sVedmund
p6485
F15
sVbereft
p6486
F1
sVgood
p6487
F78
sVseeking
p6488
F2
sVgardens,
p6489
F2
sVbegotten.
p6490
F1
sVmatilda,
p6491
F4
sVnoticing
p6492
F1
sVmatilda.
p6493
F1
sVobeyed
p6494
F2
sVwalls
p6495
F4
sVrank
p6496
F2
sVoxford
p6497
F1
sVlewin,
p6498
F5
sVcrooning
p6499
F1
sVmystery
p6500
F2
sVeasily
p6501
F2
sVnorthwards.
p6502
F1
sVtoken
p6503
F2
sVhabits
p6504
F1
sVsubjugation
p6505
F1
sVeager
p6506
F3
sValso,
p6507
F5
sVboisterous
p6508
F1
sVpossession,
p6509
F2
sVrepeating
p6510
F1
sVpest.
p6511
F1
sV1906,
p6512
F2
sV1906.
p6513
F3
sVharm
p6514
F3
sVeveryone
p6515
F1
sVmental
p6516
F1
sVhouse
p6517
F28
sVenergy
p6518
F1
sVhard
p6519
F6
sVidea
p6520
F3
sVdeeds,
p6521
F1
sVdeeds.
p6522
F2
sV(j.
p6523
F1
sVsteward,
p6524
F5
sVsteward.
p6525
F1
sVmustered
p6526
F1
sVlovers
p6527
F6
sVtrooper
p6528
F2
sVstream."]
p6529
F1
sVprojected
p6530
F1
sVacting
p6531
F1
sVviolette,
p6532
F1
sVtimothy
p6533
F2
sVpleasant
p6534
F3
sVextraordinary
p6535
F1
sVmembers
p6536
F4
sVbacked
p6537
F2
sV"she
p6538
F2
sVprophet
p6539
F1
sVwe."
p6540
F1
sVdiversion
p6541
F2
sVquietly:
p6542
F1
sVaudacity
p6543
F1
sVwither
p6544
F1
sVtroope,
p6545
F1
sVthere!
p6546
F2
sVrogues
p6547
F1
sVlover,
p6548
F7
sVlover.
p6549
F1
sVstir,
p6550
F1
sVembraces
p6551
F1
sVremarkable,
p6552
F1
sVdoctor,
p6553
F3
sVdoctor.
p6554
F3
sVwaged
p6555
F1
sValmansdeath,
p6556
F1
sVjuncture
p6557
F1
sVinstances
p6558
F1
sVsmaller
p6559
F1
sVdone
p6560
F12
sVtrembling.
p6561
F1
sVcups
p6562
F2
sVcopies).
p6563
F10
sVscene.
p6564
F2
sVsenses,
p6565
F1
sVlongdendale"
p6566
F1
sVlongdendale,
p6567
F32
sVpersons--residents
p6568
F1
sVlongdendale.
p6569
F26
sVleast
p6570
F13
sVthickets
p6571
F1
sVpains
p6572
F1
sVandrew.]
p6573
F1
sVcompliment.
p6574
F1
sVsuppose,
p6575
F1
sVdeath,--if
p6576
F1
sVblades,
p6577
F2
sVblades.
p6578
F2
sVwildly
p6579
F2
sVinstance,
p6580
F1
sVsensation
p6581
F1
sVdraped
p6582
F2
sVkey-hole,
p6583
F1
sVpart
p6584
F30
sVdoctors
p6585
F1
sVyeoman.
p6586
F1
sVprodigious
p6587
F1
sVyeoman,
p6588
F4
sVbelieve
p6589
F4
sVlady--no
p6590
F1
sVeastwards
p6591
F1
sVfarming
p6592
F1
sVfold
p6593
F1
sVlargely
p6594
F1
sVthicket,
p6595
F1
sVcontrary
p6596
F1
sVsupposed
p6597
F9
sVtreated
p6598
F3
sV"several
p6599
F1
sVservice.
p6600
F4
sVservice,
p6601
F1
sVinhabitants,
p6602
F1
sVages
p6603
F1
sVnotwithstanding
p6604
F1
sVharnesey,
p6605
F1
sVaged
p6606
F1
sVfading
p6607
F1
sVdeath-warning
p6608
F1
sVmountain
p6609
F3
sVgreaves,
p6610
F1
sVbuilt
p6611
F12
sVdancing
p6612
F1
sVrhubarb,
p6613
F1
sVk.
p6614
F1
sVcouch
p6615
F1
sVmajority
p6616
F2
sVcaesar
p6617
F1
sVbuild
p6618
F1
sVran,
p6619
F1
sVrafters
p6620
F1
sVfacts,
p6621
F1
sVcollected,
p6622
F1
sVorder.
p6623
F1
sVbodell
p6624
F1
sVtraditions,
p6625
F2
sVidle,
p6626
F1
sVcurse--every
p6627
F1
sVdepths
p6628
F1
sVage.
p6629
F2
sV"tell
p6630
F2
sVservices
p6631
F3
sVtraditions?
p6632
F1
sVextremely
p6633
F1
sVagain."
p6634
F2
sVfeasting
p6635
F2
sVpetery's,
p6636
F1
sVchester
p6637
F1
sVpath.
p6638
F2
sVpath,
p6639
F5
sVjoining
p6640
F2
sVthomas
p6641
F9
sVparticularly
p6642
F3
sVrebels
p6643
F3
sVfollowed,
p6644
F1
sVwailing
p6645
F1
sVscattered
p6646
F4
sVmelandra.
p6647
F2
sVmelandra,
p6648
F1
sVhillside
p6649
F1
sVfollowed.
p6650
F2
sVco-operative
p6651
F3
sVcarefully
p6652
F1
sVfine
p6653
F9
sVfind
p6654
F13
sVgiant
p6655
F2
sVruin
p6656
F3
sVdistributed
p6657
F1
sVunhappy
p6658
F2
sVmassing
p6659
F1
sVfree.
p6660
F3
sVmoney
p6661
F6
sV8
F6
sVgeorge.
p6662
F1
sVprowess
p6663
F1
sVtim.
p6664
F1
sVspace,
p6665
F1
sVcourage
p6666
F2
sVbreast
p6667
F1
sVlevite
p6668
F1
sV"tut-tut,"
p6669
F1
sVspikes
p6670
F1
sVarchangel,
p6671
F1
sVtempest,
p6672
F1
sVfreedom,
p6673
F1
sVcommon
p6674
F8
sVwitches
p6675
F6
sVland?"
p6676
F2
sVtroth.
p6677
F1
sVsheep,
p6678
F1
sVsheep.
p6679
F1
sVtended
p6680
F1
sVfellow,"
p6681
F1
sVmarston
p6682
F2
sVlion
p6683
F1
sVmanly
p6684
F1
sVunmistakable
p6685
F1
sVsurrendered
p6686
F1
sVtender
p6687
F2
sVfeared
p6688
F2
sVenveloped
p6689
F2
sVdegree
p6690
F3
sVhungry.
p6691
F1
sV"bonnie
p6692
F1
sVplease
p6693
F3
sVlomax,
p6694
F1
sVmackenzie,
p6695
F1
sVto.
p6696
F1
sVburned
p6697
F2
sVsuccessfully.
p6698
F1
sVchivalrously
p6699
F1
sVgraves,
p6700
F2
sVchants,
p6701
F1
sVgraves.
p6702
F1
sV"not
p6703
F1
sVcage."
p6704
F1
sVdevil,
p6705
F6
sVdevil.
p6706
F6
sVwills
p6707
F1
sVlightness
p6708
F1
sValters
p6709
F1
sVfloats
p6710
F2
sVfolding
p6711
F1
sVjourneyed
p6712
F1
sVsons,
p6713
F4
sVforeign
p6714
F1
sVgratified,"
p6715
F1
sVstarting.
p6716
F1
sVconceited
p6717
F1
sVdanced
p6718
F2
sVsupply
p6719
F1
sVsimple
p6720
F2
sVrealm,
p6721
F1
sVaid.
p6722
F1
sVasserted
p6723
F5
sVthroughout
p6724
F9
sVpatiently
p6725
F1
sV'it's
p6726
F1
sVweaving
p6727
F1
sVraise
p6728
F1
sVsmote
p6729
F1
sVstray'd
p6730
F1
sVbart.,
p6731
F2
sVsecret
p6732
F5
sVglossop,
p6733
F3
sVglossop.
p6734
F9
sVmeeting
p6735
F3
sVparishes,
p6736
F2
sVgay
p6737
F7
sVinstant,
p6738
F2
sVgap
p6739
F1
sVunderstand
p6740
F3
sVgag
p6741
F1
sVdie?"
p6742
F1
sV"raided"
p6743
F1
sVreverentleye
p6744
F1
sVdestitution.
p6745
F1
sVmartial,
p6746
F1
sVtalking
p6747
F1
sVsolid
p6748
F3
sVbill
p6749
F2
sVtolerate
p6750
F1
sVcrutch
p6751
F1
sVdistressed
p6752
F2
sVsouldrs
p6753
F1
sVfurther.
p6754
F1
sVhelm,
p6755
F1
sVfurther,
p6756
F2
sVindulging
p6757
F1
sVgrip
p6758
F4
sVcentury
p6759
F3
sVmystic
p6760
F3
sVrobin,
p6761
F3
sVhusband,
p6762
F4
sVpaganism,
p6763
F1
sVrocks,
p6764
F2
sVstubbornly
p6765
F1
sVhusband;
p6766
F1
sVwould-be
p6767
F1
sV"clothed
p6768
F1
sVwherein
p6769
F2
sVperishes
p6770
F1
sVelbow,"
p6771
F1
sVcontents
p6772
F1
sV"lays
p6773
F1
sVminstrels'
p6774
F2
sVunwary
p6775
F2
sVbelfry
p6776
F1
sVvictorious,
p6777
F1
sVyesterday
p6778
F1
sVmoment
p6779
F18
sVpurpose
p6780
F13
sVreturns.
p6781
F1
sVtimid
p6782
F4
sVvault,
p6783
F1
sVsurrender,
p6784
F1
sVtask
p6785
F6
sVcraved
p6786
F1
sVspent
p6787
F4
sVmorrow
p6788
F4
sVsight,
p6789
F2
sVenglish,
p6790
F1
sVuthyr,
p6791
F1
sVtoil
p6792
F2
sVentry
p6793
F2
sVspend
p6794
F2
sVstem
p6795
F1
sVmoving
p6796
F2
sVportinscale,
p6797
F1
sVmatter.
p6798
F3
sVshape
p6799
F7
sVopenly
p6800
F1
sVstatesman,
p6801
F1
sVforesee
p6802
F1
sVmatter?
p6803
F1
sVimpetus
p6804
F1
sVcut
p6805
F4
sVfrieze,
p6806
F1
sVcup
p6807
F2
sVhated
p6808
F1
sVdanger
p6809
F4
sVjeered
p6810
F1
sVshouting
p6811
F1
sVfollow.
p6812
F2
sVbravery
p6813
F2
sVfollow,
p6814
F1
sVsnap
p6815
F1
sVsilken
p6816
F1
sVgreatly."
p6817
F1
sVbig
p6818
F5
sVbid
p6819
F2
sVadventures.
p6820
F1
sVmatters
p6821
F1
sVadventures,
p6822
F2
sVbit
p6823
F8
sVaccomplished,
p6824
F1
sVmassing,
p6825
F1
sVvapour
p6826
F1
sVknock
p6827
F2
sVmeans--if
p6828
F1
sVout-building
p6829
F1
sVoften;
p6830
F1
sVborrows
p6831
F1
sVdiversion,
p6832
F1
sVrods."
p6833
F2
sVfoolish
p6834
F2
sVcaptaincy
p6835
F1
sVrememberest
p6836
F1
sVoften
p6837
F12
sVabsolutely
p6838
F2
sVobliged
p6839
F1
sVback
p6840
F19
sVvirtue.
p6841
F1
sVmartial
p6842
F4
sVstrongest
p6843
F1
sVlibrarian).
p6844
F3
sVredeemer;
p6845
F1
sVgarden."
p6846
F1
sVpronounced
p6847
F2
sV"though
p6848
F1
sV'old
p6849
F1
sVjust.
p6850
F1
sVjust,
p6851
F1
sVpen
p6852
F2
sVaflame
p6853
F1
sVinvade
p6854
F1
sVresolutely
p6855
F1
sVlaughing
p6856
F2
sVpatient
p6857
F3
sVrobbery
p6858
F1
sVremembered
p6859
F1
sVpresence.
p6860
F2
sVvalley;
p6861
F2
sVvirtues
p6862
F1
sVchanting
p6863
F2
sVflanks
p6864
F2
sVvalley,
p6865
F3
sVvalley.
p6866
F3
sV"now,
p6867
F2
sVgoods
p6868
F2
sVregisters,
p6869
F1
sVgoody
p6870
F2
sVmrs.
p6871
F2
sVwhom,
p6872
F2
sVcontact,
p6873
F1
sVnaturedly
p6874
F1
sVtenants
p6875
F2
sVhope.
p6876
F1
sVharassed
p6877
F2
sVrushes,
p6878
F1
sVboy,
p6879
F1
sVframed
p6880
F1
sVspokeswoman,
p6881
F1
sVframes
p6882
F1
sVministrations
p6883
F1
sVbradshawes,
p6884
F1
sVworry,
p6885
F1
sVwarres,
p6886
F1
sVdr.,
p6887
F1
sVlife,"
p6888
F1
sVforward
p6889
F1
sVchapel,"
p6890
F1
sVopponent
p6891
F1
sVframe.
p6892
F1
sVmatley
p6893
F1
sVhoped
p6894
F3
sVgresham....
p6895
F1
sVlordship."
p6896
F1
sVlibrarian)
p6897
F2
sVlibrarian.
p6898
F1
sVhopes
p6899
F2
sVprince's
p6900
F1
sVvivat
p6901
F1
sVdarkness.
p6902
F2
sVdarkness,
p6903
F4
sV"villain
p6904
F1
sVlover's
p6905
F3
sVbore,
p6906
F1
sVaversion
p6907
F1
sVsort
p6908
F2
sVlife-like
p6909
F1
sVexpedition
p6910
F2
sVstripped
p6911
F3
sVhood's
p6912
F7
sVdeprive
p6913
F1
sVsingle
p6914
F5
sVmightier
p6915
F1
sVsubject.
p6916
F1
sVdispensation
p6917
F1
sVappearances
p6918
F2
sVward,
p6919
F1
sVellen
p6920
F3
sVagreeable,
p6921
F1
sVinscribed.
p6922
F1
sVcooke,
p6923
F3
sVorders,
p6924
F1
sVcooke.
p6925
F1
sVshawson,
p6926
F1
sVrace."
p6927
F1
sVlend
p6928
F1
sVfavourite
p6929
F5
sVneck,
p6930
F2
sVdruid
p6931
F6
sVprepared
p6932
F4
sVcup-bearer
p6933
F1
sVutterly
p6934
F1
sVlent
p6935
F1
sVrallied
p6936
F1
sVstatesman
p6937
F1
sVlikeliest
p6938
F1
sVoverlooking
p6939
F1
sVdull-witted
p6940
F1
sVadmiring
p6941
F1
sVdiscards
p6942
F1
sVwilderness,
p6943
F1
sVhappy.
p6944
F1
sVrestraining
p6945
F1
sVextensively
p6946
F1
sVbitterly.
p6947
F1
sVhead"--that
p6948
F1
sVliterary
p6949
F1
sVmasculine
p6950
F1
sVgraven
p6951
F1
sVpleasing
p6952
F1
sVqueen
p6953
F3
sVroman."
p6954
F1
sVpresently
p6955
F9
sVgray,
p6956
F1
sVrhyme
p6957
F2
sVputting
p6958
F3
sV"long
p6959
F2
sVreason."
p6960
F1
sVarrange
p6961
F1
sVseverely
p6962
F1
sVbusied
p6963
F1
sVsuccessful.
p6964
F3
sVknight
p6965
F28
sVhelp,
p6966
F1
sVshock
p6967
F2
sVgrave;
p6968
F1
sVkinsmen
p6969
F1
sVgrave.
p6970
F5
sVgrave,
p6971
F1
sVhelp;
p6972
F1
sVmethinks
p6973
F4
sVother,
p6974
F7
sVother.
p6975
F3
sVscheming.
p6976
F1
sVnesta
p6977
F8
sVsin.
p6978
F1
sVbeast.
p6979
F2
sVlaws,
p6980
F2
sVappend
p6981
F1
sVsaved,
p6982
F1
sVwar;
p6983
F1
sVgiving
p6984
F3
sVstart."
p6985
F1
sVcomes."
p6986
F1
sVexercise
p6987
F1
sVbody
p6988
F15
sVagricola,
p6989
F1
sVmisdeeds
p6990
F1
sVheart,"
p6991
F1
sVbeasts
p6992
F2
sVsins
p6993
F3
sVbaring
p6994
F1
sVriver,
p6995
F2
sVnimble
p6996
F1
sVagricola?
p6997
F1
sVobjects
p6998
F2
sVhealing
p6999
F2
sVlibrarian--4
p7000
F1
sVothers
p7001
F10
sVsing
p7002
F2
sVimplicit
p7003
F1
sVextreme
p7004
F2
sVtrepidation
p7005
F1
sVsteading,
p7006
F2
sVyouths,
p7007
F2
sVpipe,
p7008
F1
sVelsewhere."
p7009
F1
sVprincipally
p7010
F1
sVadded.
p7011
F1
sVvigil,
p7012
F1
sVcomposed
p7013
F1
sVnamed
p7014
F4
sVdelights.
p7015
F1
sVtruism
p7016
F1
sVspeeches
p7017
F2
sVsight--hidden
p7018
F1
sVprivate
p7019
F3
sVnames
p7020
F4
sVoval
p7021
F1
sVii.
p7022
F3
sVmelandra's
p7023
F1
sVstrangled
p7024
F2
sVdingle,
p7025
F1
sVtor."
p7026
F1
sVsleepest
p7027
F1
sVswain,
p7028
F1
sVbutler
p7029
F1
sVthemselves
p7030
F18
sVfar.
p7031
F1
sVname.
p7032
F2
sVname,
p7033
F2
sVfreedom
p7034
F2
sVthatch
p7035
F1
sVtrain
p7036
F1
sVashamed
p7037
F1
sVprocuring
p7038
F1
sVtearing
p7039
F1
sVhints
p7040
F1
sVperchance,
p7041
F1
sVaccount
p7042
F14
sVprocession,
p7043
F1
sVobvious
p7044
F2
sVindignities
p7045
F1
sVpromptitude
p7046
F1
sVclosing
p7047
F2
sVdingles
p7048
F1
sVfetch
p7049
F1
sVhigh;
p7050
F1
sVfringe
p7051
F1
sVproportions
p7052
F1
sVgenuine,
p7053
F1
sVchief;
p7054
F1
sVwater,
p7055
F1
sVwater.
p7056
F2
sVbones
p7057
F3
sVevil-minded
p7058
F1
sVbuilding,
p7059
F3
sVsickness?"
p7060
F1
sVnative
p7061
F4
sVpractical
p7062
F1
sVlowly-born
p7063
F1
sVdaring
p7064
F4
sVnoises
p7065
F3
sVholds
p7066
F1
sVconfiscated.
p7067
F1
sVvalhalla
p7068
F1
sVregions
p7069
F1
sVline.
p7070
F3
sVlamp
p7071
F1
sVforest
p7072
F20
sVsealed.
p7073
F1
sVconquer.
p7074
F1
sVstock
p7075
F1
sVbuildings
p7076
F2
sVbone.
p7077
F1
sVbone,
p7078
F1
sVvictories,
p7079
F1
sVwaters
p7080
F1
sVroam
p7081
F1
sVpmitt)
p7082
F1
sVbluff
p7083
F1
sVfray
p7084
F2
sVshrilly,
p7085
F1
sVshrilly.
p7086
F1
sVgone.
p7087
F1
sVgone,
p7088
F3
sVrev.
p7089
F6
sV"its
p7090
F1
sVtrembling
p7091
F4
sVwhereupon,
p7092
F2
sVchief
p7093
F22
sVout.
p7094
F1
sVweeping,
p7095
F3
sVnoise,
p7096
F1
sVbarlow,
p7097
F1
sVwanted,
p7098
F2
sVwanted.
p7099
F1
sVconsideration.
p7100
F1
sVdespite
p7101
F1
sVharness;
p7102
F1
sVbreaths.
p7103
F1
sVhorns
p7104
F1
sVmeted
p7105
F2
sVlife;
p7106
F2
sValtar--that
p7107
F1
sVempty,
p7108
F1
sVwhereon
p7109
F4
sVcudgel
p7110
F1
sVvalerius
p7111
F3
sVwinning
p7112
F3
sVage
p7113
F3
sVwilling
p7114
F3
sVbridged
p7115
F1
sVrough,
p7116
F1
sVcriminal
p7117
F2
sVstopped,
p7118
F3
sVgreater
p7119
F8
sVbolder
p7120
F1
sVdescendants
p7121
F1
sVhorn,
p7122
F1
sVhound?"
p7123
F1
sVmention
p7124
F5
sV234,
p7125
F1
sVkindness
p7126
F3
sVforgotten,
p7127
F1
sVday
p7128
F57
sVforgotten.
p7129
F1
sVmossland?"
p7130
F1
sVfebruary
p7131
F1
sVthrill
p7132
F1
sVsky.
p7133
F2
sVspared.
p7134
F1
sVspared,
p7135
F1
sVslipping
p7136
F1
sVfather!"
p7137
F1
sVbridge.
p7138
F2
sVbridge,
p7139
F2
sVoliver,
p7140
F1
sVpair."
p7141
F1
sVnevertheless,
p7142
F1
sVpantry
p7143
F1
sVincensed
p7144
F1
sVhaunted--have
p7145
F1
sVfouldrey
p7146
F1
sVenglishmen.
p7147
F1
sVcure.
p7148
F1
sVplunder."
p7149
F2
sVmate
p7150
F3
sVmessenger
p7151
F1
sVred
p7152
F3
sVapproached
p7153
F2
sVrods,"
p7154
F1
sVupbraid
p7155
F1
sVsquires,
p7156
F1
sVbackwards
p7157
F1
sVparish.
p7158
F2
sVbowman
p7159
F1
sVuncanny,
p7160
F1
sVcures
p7161
F1
sVhedge.
p7162
F2
sVmortal
p7163
F5
sVsouth
p7164
F3
sVcomplete.
p7165
F1
sV"thick
p7166
F1
sVfoam.
p7167
F1
sVlately;
p7168
F1
sVthird
p7169
F2
sVbetter."
p7170
F1
sVstrategic
p7171
F1
sVcourage,
p7172
F1
sVcomplete;
p7173
F1
sVreached
p7174
F12
sVunderworld.
p7175
F1
sVreliable
p7176
F2
sVancient
p7177
F17
sVsadly
p7178
F1
sVclaymores--for
p7179
F1
sVlove,
p7180
F4
sVlove.
p7181
F1
sVpots
p7182
F1
sVbull's
p7183
F1
sVlabourer,
p7184
F1
sVmaidens
p7185
F4
sVhighlander,
p7186
F1
sVtraveller,
p7187
F2
sVjock,
p7188
F3
sVcharger,
p7189
F1
sVjohnes
p7190
F1
sVcompleted
p7191
F2
sVdreary
p7192
F1
sVperforce
p7193
F1
sVmortal,"
p7194
F1
sVloved
p7195
F12
sVupon;
p7196
F1
sVmaiden.
p7197
F2
sVhighlanders
p7198
F4
sVmaiden,
p7199
F8
sVfilling
p7200
F1
sVpromise."
p7201
F1
sVheavens,
p7202
F1
sVupon,
p7203
F1
sVhalcyon
p7204
F1
sVhospitality,
p7205
F1
sVlover
p7206
F8
sVvisited
p7207
F4
sVxviii.
p7208
F2
sVlabouring
p7209
F1
sVcommit--to
p7210
F1
sVtide
p7211
F2
sVgentry,
p7212
F1
sVcomfortably
p7213
F1
sVunlikely
p7214
F1
sVhave
p7215
F196
sVthroat
p7216
F1
sVsecreted
p7217
F1
sVpatience.
p7218
F1
sVexpected,
p7219
F1
sVdesperate,
p7220
F1
sVunless
p7221
F5
sVterrible.
p7222
F4
sVduchy
p7223
F1
sVterrible,
p7224
F4
sVwindow-pane
p7225
F2
sVbusiness.
p7226
F3
sVbusiness,
p7227
F4
sVclothes.
p7228
F1
sVforepaws,
p7229
F1
sVpreliminary
p7230
F1
sVprisoner
p7231
F4
sVcytezen
p7232
F1
sVpayment
p7233
F1
sVsouldrs,
p7234
F1
sVgate"--mentioned
p7235
F1
sVthee."
p7236
F3
sVgather
p7237
F2
sVfrederick
p7238
F2
sVdisease
p7239
F3
sVperformed,
p7240
F1
sVoccasion
p7241
F5
sVwear.
p7242
F1
sV"or
p7243
F2
sVsaying,
p7244
F4
sVa-flame.
p7245
F1
sVnags
p7246
F1
sVrichard,
p7247
F2
sVwonderful.
p7248
F1
sVcharles
p7249
F10
sVrichard;
p7250
F1
sVtraitor
p7251
F1
sVsupporter
p7252
F2
sVstaff
p7253
F2
sVinspiring
p7254
F1
sVsensational.
p7255
F1
sVtawasentha,
p7256
F1
sVsparks
p7257
F1
sVlyen
p7258
F1
sVstopford,
p7259
F1
sVbernard
p7260
F2
sVunable
p7261
F5
sVsatan
p7262
F9
sVland.
p7263
F2
sVhell-song
p7264
F1
sVcressy
p7265
F1
sVbeat
p7266
F4
sVbear
p7267
F5
sVbeam
p7268
F1
sVdukinfield.
p7269
F3
sVromantic
p7270
F2
sVchester;
p7271
F2
sVwhilst
p7272
F5
sVencounters
p7273
F1
sVkilts
p7274
F1
sVcalling
p7275
F1
sVcontrol,
p7276
F1
sVchester,
p7277
F3
sVchester)
p7278
F1
sVdeserved;
p7279
F1
sVfixed
p7280
F1
sVtyrant
p7281
F2
sVnational
p7282
F2
sVaccord
p7283
F1
sVhim,--not
p7284
F1
sVastley-cheetham
p7285
F1
sVmonarch.
p7286
F1
sVawaits
p7287
F1
sVwalking
p7288
F6
sVdesires,
p7289
F1
sVmaster's
p7290
F2
sVpattern
p7291
F1
sVralph
p7292
F6
sVdreaming--a
p7293
F1
sVeerily."
p7294
F1
sVprogress
p7295
F1
sVboundary
p7296
F1
sVknowledge"--a
p7297
F1
sVsmilingly
p7298
F1
sVgrounds,
p7299
F1
sVsorrow
p7300
F1
sVmonarchy
p7301
F1
sVantics
p7302
F1
sVaside.
p7303
F1
sVattentions,
p7304
F1
sVaside,
p7305
F1
sVlegion.
p7306
F1
sVjeweller
p7307
F1
sV"come,"
p7308
F1
sVhunters,
p7309
F1
sVinstant
p7310
F5
sVchrist,"
p7311
F1
sVwoden,"
p7312
F1
sVfreely
p7313
F1
sVtaking
p7314
F4
sVpool,
p7315
F1
sVequal
p7316
F2
sVattributed
p7317
F1
sVfulfilled
p7318
F2
sVassure
p7319
F2
sVbeds,
p7320
F2
sVwringing
p7321
F1
sVswim
p7322
F1
sVpassing
p7323
F4
sVhighland
p7324
F7
sVglorious
p7325
F10
sVotherwise
p7326
F2
sVpedlar
p7327
F1
sVcunning,
p7328
F1
sVcontest--some
p7329
F1
sVgoest,
p7330
F1
sVnot,"
p7331
F1
sVlaugh
p7332
F6
sVdone,
p7333
F4
sVdone.
p7334
F1
sVarise,
p7335
F1
sV14th,
p7336
F1
sVarise.
p7337
F2
sVaugust,
p7338
F1
sVtremendous
p7339
F1
sVit's
p7340
F1
sVlady's
p7341
F2
sVhome.
p7342
F3
sVhome,
p7343
F3
sVapace.
p7344
F1
sVparliament--had
p7345
F1
sVqualities;
p7346
F1
sVlooked.
p7347
F1
sVplains,
p7348
F1
sVassert
p7349
F3
sVbroken,"
p7350
F1
sVfinished
p7351
F1
sVtenderly
p7352
F1
sVarose.
p7353
F2
sVstatue.
p7354
F1
sVarose,
p7355
F3
sVgeneral
p7356
F1
sVborder-side
p7357
F1
sVmourning
p7358
F1
sVhomes
p7359
F1
sVplain
p7360
F1
sVappearance
p7361
F7
sVvalue
p7362
F3
sVgladness.
p7363
F1
sVancestry,
p7364
F3
sVancestry.
p7365
F1
sVbretlands
p7366
F1
sVthereof,
p7367
F1
sVstreams
p7368
F1
sValmost
p7369
F17
sVstarted,
p7370
F2
sVstarted.
p7371
F1
sVrespected
p7372
F2
sVtampered
p7373
F1
sVclaimed
p7374
F4
sVunhesitatingly
p7375
F1
sVtumbled
p7376
F4
sVbashfulness;
p7377
F1
sVbegone.
p7378
F1
sVset,
p7379
F4
sVset.
p7380
F2
sVsobbed,
p7381
F1
sVdefiant
p7382
F2
sVtravellers,
p7383
F1
sVprivily,
p7384
F1
sVtwelfth
p7385
F1
sVset;
p7386
F1
sVinjured
p7387
F1
sVpractice
p7388
F1
sVword--"hold."
p7389
F1
sVbands,
p7390
F1
sVunpublished
p7391
F1
sVwriter's
p7392
F1
sVtighter
p7393
F1
sVnumbered
p7394
F1
sVweapon
p7395
F1
sVovershadowed
p7396
F1
sVthought
p7397
F11
sVexceedingly
p7398
F1
sVposition
p7399
F10
sVmuscle
p7400
F1
sVusual
p7401
F1
sVcompanions.
p7402
F1
sVolder,
p7403
F1
sVolder.
p7404
F1
sVseats
p7405
F1
sVtough
p7406
F1
sVknaves."
p7407
F1
sVthrown.
p7408
F1
sVliberty,
p7409
F1
sVrepublican
p7410
F3
sVgallery"
p7411
F1
sVwork.
p7412
F1
sVonward
p7413
F1
sVlake
p7414
F1
sVgeraldine
p7415
F2
sVadd
p7416
F4
sVcitizen
p7417
F2
sVado
p7418
F1
sVmatch
p7419
F1
sVknockest
p7420
F1
sVseat,
p7421
F1
sVlincoln.
p7422
F1
sVlincoln,
p7423
F1
sVhills."
p7424
F2
sV(including
p7425
F1
sVconfusion.
p7426
F3
sVlike
p7427
F60
sVsuccess
p7428
F2
sV"and
p7429
F28
sVproposition,
p7430
F1
sVcrawled
p7431
F1
sVheed
p7432
F2
sVsoft
p7433
F1
sVrave,
p7434
F1
sVimprints
p7435
F1
sVworth,
p7436
F1
sVindefinite)--
p7437
F1
sValive
p7438
F4
sVneighbours,
p7439
F1
sVhair
p7440
F4
sVconvey
p7441
F2
sVrecommendation
p7442
F1
sVproper
p7443
F6
sVpane.
p7444
F1
sVtruss
p7445
F1
sVcorpse
p7446
F1
sVflesh.
p7447
F1
sVcoombs
p7448
F8
sVmore,"
p7449
F1
sVboard.
p7450
F1
sVburned,
p7451
F1
sVchains
p7452
F3
sVregain
p7453
F1
sVfavourers
p7454
F1
sVprose
p7455
F1
sVnoise
p7456
F6
sVrecognised,
p7457
F1
sVc.c.,
p7458
F2
sV'))fore
p7459
F1
sVxxd."
p7460
F1
sVhost
p7461
F5
sValthough
p7462
F9
sVhospitable
p7463
F1
sVsnapped
p7464
F1
sVhurts,
p7465
F1
sVperiodically
p7466
F1
sVhurts.
p7467
F1
sVretribution
p7468
F1
sVgifts
p7469
F1
sVabout
p7470
F79
sVactual
p7471
F1
sVbanqueting
p7472
F2
sVwithdrew
p7473
F1
sV"you
p7474
F5
sVglade
p7475
F1
sVtomb
p7476
F1
sVintroduced
p7477
F1
sVhappen,
p7478
F2
sVrendered
p7479
F2
sVdrained,
p7480
F1
sVopportunities.
p7481
F1
sValoud:
p7482
F2
sVfugitives--particularly
p7483
F1
sVdie,"
p7484
F1
sVguard
p7485
F3
sVdavid,
p7486
F1
sVfemale
p7487
F3
sVgleaned
p7488
F1
sValoud,
p7489
F1
sVculloden
p7490
F1
sVknuckles
p7491
F1
sVridge
p7492
F1
sVmazy
p7493
F1
sVrushed
p7494
F6
sVown."
p7495
F1
sVreigned
p7496
F2
sVinasmuch
p7497
F4
sVsaviour's
p7498
F1
sVmist,
p7499
F1
sVglimmer
p7500
F1
sVprince,
p7501
F4
sVbuy
p7502
F1
sVenchantment
p7503
F1
sVchildren?
p7504
F1
sVbrand
p7505
F1
sVchildren:
p7506
F1
sVbut
p7507
F216
sVrepeated
p7508
F1
sVwealthier
p7509
F3
sVchildren.
p7510
F2
sVchildren,
p7511
F11
sVnight-fall.
p7512
F1
sVwise
p7513
F3
sVprinces
p7514
F1
sVglory
p7515
F3
sVwish
p7516
F9
sVmists
p7517
F2
sVsuperstition--a
p7518
F1
sVstockport.
p7519
F1
sVbride.
p7520
F3
sVlegend.
p7521
F4
sVlegend,
p7522
F4
sVminutes
p7523
F1
sVsentries,
p7524
F1
sVbennett,
p7525
F1
sVchristian,
p7526
F2
sVsupreme
p7527
F1
sVbits.
p7528
F1
sVdeaths
p7529
F1
sVspectre;
p7530
F1
sVdisinterestedness
p7531
F1
sVwide.
p7532
F1
sVmysteriously
p7533
F2
sVspectre,
p7534
F2
sVanything,"
p7535
F1
sVspectre.
p7536
F1
sVaccident,
p7537
F2
sVdressed
p7538
F5
sVoak
p7539
F4
sVdetail
p7540
F3
sV4,
p7541
F2
sV"private";
p7542
F1
sVbeast's
p7543
F2
sVpounds.
p7544
F1
sVproceed,
p7545
F1
sVindeed.
p7546
F1
sVchroniclers
p7547
F1
sVindeed,
p7548
F12
sVperiod.
p7549
F3
sVperiod,
p7550
F1
sVdeath:
p7551
F1
sVshrank
p7552
F1
sVdeath,
p7553
F7
sVdeath.
p7554
F8
sVoverthrown,
p7555
F1
sV"mighty
p7556
F1
sVstirred
p7557
F1
sVsleuthhound
p7558
F1
sVsheep."
p7559
F1
sVstalybridge,
p7560
F1
sVyell
p7561
F1
sV8th
p7562
F1
sVever.
p7563
F2
sVfeat,"
p7564
F1
sVcomparatively
p7565
F2
sVdaughter's
p7566
F1
sVchurch,
p7567
F4
sVsleep
p7568
F5
sVelements,
p7569
F1
sVchatter,"
p7570
F1
sVassembled
p7571
F1
sV"at
p7572
F1
sV"as
p7573
F1
sVcaptive--where,
p7574
F1
sV(for
p7575
F3
sVconsuminge
p7576
F1
sVunder
p7577
F14
sVpride
p7578
F3
sVbuttresses,
p7579
F1
sVmossley
p7580
F1
sVcaldwell,
p7581
F1
sVnow,"
p7582
F1
sVtears.
p7583
F1
sVparticulars.
p7584
F1
sVphial
p7585
F1
sVevery
p7586
F27
sVhat,
p7587
F3
sVhorseman,
p7588
F1
sV"fear
p7589
F1
sVbelieved
p7590
F6
sVschool
p7591
F3
sVmss.
p7592
F2
sVthee,"
p7593
F4
sVenjoy
p7594
F1
sVveritable
p7595
F1
sVcreated,
p7596
F1
sVleaders
p7597
F1
sVcreated.
p7598
F1
sVshoulders,
p7599
F4
sVrazed
p7600
F1
sVbetokening
p7601
F1
sVdirect
p7602
F3
sVpersuade
p7603
F1
sVcreated?
p7604
F1
sVshining
p7605
F2
sVblue
p7606
F1
sVsturdy-looking
p7607
F1
sVhide
p7608
F2
sVchrist
p7609
F2
sVdeer;
p7610
F1
sVsolemn
p7611
F1
sVbeaten
p7612
F5
sVsupplied
p7613
F3
sVdeer,
p7614
F5
sVcentury;
p7615
F1
sVmischievous
p7616
F1
sVoaths
p7617
F1
sVaged.
p7618
F1
sVconduct
p7619
F5
sVgeneral,
p7620
F1
sVprimroses
p7621
F1
sVgeneral.
p7622
F1
sVfriendship,
p7623
F1
sVshattered
p7624
F1
sVstone."]
p7625
F1
sVstared
p7626
F1
sVkeepsakes
p7627
F1
sVlord--and
p7628
F1
sVvincat
p7629
F1
sVpate
p7630
F1
sVrepresented
p7631
F1
sVpath
p7632
F4
sVleader,
p7633
F2
sVthrough.
p7634
F1
sVproperty
p7635
F6
sVauction
p7636
F1
sVleaves
p7637
F5
sVchanged
p7638
F1
sVred,
p7639
F1
sVxvi.
p7640
F2
sVcommenced.
p7641
F1
sVpuritans,
p7642
F1
sVchanges
p7643
F1
sVpunishment
p7644
F5
sVventured
p7645
F3
sVswearing
p7646
F1
sVcompany,
p7647
F3
sVstray
p7648
F1
sVgrumbled
p7649
F1
sVerected
p7650
F3
sVpatience
p7651
F2
sVreply.
p7652
F1
sVtravel-stained.
p7653
F1
sVwould
p7654
F101
sVm.
p7655
F1
sVyoungsters,
p7656
F1
sVraids
p7657
F1
sVstory."
p7658
F1
sVtradesman
p7659
F1
sVused.
p7660
F1
sVpreserved
p7661
F1
sVwears
p7662
F2
sVtreachery--he
p7663
F1
sVcompanye
p7664
F1
sVmilk-white
p7665
F2
sVfeeling,
p7666
F1
sVovertake
p7667
F1
sVbreaths
p7668
F1
sVexcellent
p7669
F2
sVrobbing
p7670
F1
sVdazzled
p7671
F1
sVcasualties
p7672
F1
sVoff,
p7673
F6
sVmust
p7674
F30
sVme
p7675
F49
sVjoin
p7676
F8
sVentertained
p7677
F1
sVhenry
p7678
F10
sVchurchman,"
p7679
F1
sVmy
p7680
F160
sVfortress
p7681
F2
sVshook
p7682
F9
sVinscription
p7683
F2
sVtugged
p7684
F2
sVestate
p7685
F2
sVprolong,
p7686
F1
sVbothe
p7687
F1
sVfamilies--in
p7688
F1
sVmouth,
p7689
F1
sVkeep
p7690
F11
sVattract
p7691
F2
sVoverpowered
p7692
F1
sVend
p7693
F18
sVkeen
p7694
F5
sVsitting
p7695
F2
sVwriters
p7696
F1
sVgate
p7697
F4
sVcharging
p7698
F3
sVbadly
p7699
F1
sVawestruck
p7700
F1
sVdescription
p7701
F1
sVboth,
p7702
F1
sVevil?"
p7703
F1
sVmess
p7704
F1
sVlump
p7705
F1
sVfollows:
p7706
F3
sVburly
p7707
F1
sVstronghold
p7708
F2
sVsplendid
p7709
F1
sVamid
p7710
F3
sVwriter.
p7711
F1
sVbeasts,"
p7712
F1
sVstalybrldge.
p7713
F1
sValoud
p7714
F6
sVwound
p7715
F1
sVover
p7716
F48
sVlondon
p7717
F11
sVclapped
p7718
F1
sVbeside
p7719
F1
sVentrances
p7720
F1
sVcomplain?"
p7721
F1
sVknocking,
p7722
F2
sVwriting
p7723
F6
sVwilkinson,
p7724
F1
sVimp
p7725
F1
sVson,"
p7726
F1
sVmounds,
p7727
F1
sVdiseases
p7728
F1
sVelated
p7729
F1
sVprevented
p7730
F1
sVfenlands,
p7731
F1
sVripens
p7732
F1
sVhistory.
p7733
F1
sVwoman."
p7734
F1
sV"maybe.
p7735
F1
sVextent,
p7736
F2
sVfriar,
p7737
F2
sVmottram;
p7738
F1
sVdodds,
p7739
F1
sVwhip.
p7740
F1
sVdiamond-shaped
p7741
F1
sVwhip,
p7742
F1
sVherald
p7743
F1
sVexpectation,
p7744
F1
sVvictory
p7745
F2
sVauthor's
p7746
F14
sVentrance,
p7747
F1
sVglance.
p7748
F1
sVsuperiors,
p7749
F1
sVglance,
p7750
F1
sVprophet.
p7751
F1
sVwinsome
p7752
F1
sVro--"the
p7753
F1
sVhanged
p7754
F2
sVghosts
p7755
F9
sVt.
p7756
F3
sVovercame
p7757
F1
sVdriving
p7758
F4
sVgod
p7759
F17
sVsighing
p7760
F1
sVday.
p7761
F10
sVday,
p7762
F22
sVish.'"
p7763
F3
sVheavenly
p7764
F1
sVgot
p7765
F7
sValong.
p7766
F1
sVghost,
p7767
F2
sVghost.
p7768
F2
sVsurviving.
p7769
F1
sVeternal
p7770
F3
sVfree
p7771
F21
sVfred
p7772
F2
sVcarcase
p7773
F2
sVwent,
p7774
F1
sVwhereupon
p7775
F5
sVevil
p7776
F23
sVhealing"
p7777
F1
sVsward,
p7778
F1
sVsward.
p7779
F1
sVgo,
p7780
F1
sVbonnet,
p7781
F1
sVdays
p7782
F24
sV"this
p7783
F1
sVspitfire--but
p7784
F1
sVgo?
p7785
F1
sVhopeless
p7786
F1
sVberry,
p7787
F1
sVwhich--until
p7788
F1
sVgloucester
p7789
F1
sVfaction
p7790
F2
sVrang
p7791
F4
sVindustrial
p7792
F3
sVunbroken,
p7793
F1
sVtoo,
p7794
F6
sVlast."
p7795
F1
sVhearing
p7796
F8
sVadopted
p7797
F2
sVawoke
p7798
F4
sVgrief.
p7799
F3
sVbandaged
p7800
F1
sVfarm-hands
p7801
F2
sVtraitorous
p7802
F1
sVcurtain,
p7803
F1
sVgender,
p7804
F1
sVtop
p7805
F4
sVheights
p7806
F1
sVm.d.,
p7807
F1
sVtoo
p7808
F24
sVtom
p7809
F1
sVgowns
p7810
F1
sVunbroken
p7811
F1
sVconsented
p7812
F2
sVblunt,
p7813
F1
sVmurder
p7814
F1
sVindiscreet
p7815
F1
sVmagic,
p7816
F4
sVnarrative:
p7817
F1
sVran.
p7818
F1
sVserve
p7819
F3
sVtook
p7820
F36
sVphillips,
p7821
F1
sVwestern
p7822
F1
sVnarrative.
p7823
F2
sV"make
p7824
F1
sVclassed
p7825
F1
sVgown,
p7826
F1
sVcombat.
p7827
F1
sVcombat,
p7828
F2
sVdoor."
p7829
F1
sVfairest
p7830
F5
sVheight,
p7831
F1
sVflame
p7832
F1
sVto,
p7833
F2
sVmoon-beams
p7834
F1
sVcountess
p7835
F1
sVbridge
p7836
F1
sVfashion
p7837
F3
sVbards
p7838
F5
sVthat?"
p7839
F1
sVran
p7840
F11
sVsamite,
p7841
F1
sVseth,
p7842
F1
sVrat
p7843
F1
sVro's
p7844
F2
sVfurther
p7845
F10
sVmeadowe,
p7846
F1
sVvictory,
p7847
F1
sVbrother,--dr.
p7848
F1
sVcottages
p7849
F1
sV"cease
p7850
F1
sVunawares,
p7851
F1
sVthorough
p7852
F1
sVromantic:
p7853
F1
sVlaughed
p7854
F11
sV1906).
p7855
F1
sVrides
p7856
F1
sVharped
p7857
F1
sVgirl's
p7858
F1
sVthough
p7859
F60
sVdeserted,
p7860
F1
sVbridges,
p7861
F1
sVcommanding
p7862
F3
sVbard.
p7863
F1
sVbard,
p7864
F1
sVdisarmed
p7865
F1
sVparting
p7866
F1
sVanthony,
p7867
F4
sVher."
p7868
F1
sVflow
p7869
F1
sVboggart--wandering
p7870
F1
sVcottage,
p7871
F1
sVfabric.
p7872
F1
sVproceeded,
p7873
F1
sVqueer
p7874
F2
sVearth
p7875
F7
sVdeparted
p7876
F1
sVruin,
p7877
F1
sVorlando,
p7878
F1
sVspite
p7879
F2
sVpeasants
p7880
F1
sVshot,
p7881
F2
sVgods
p7882
F10
sVview."
p7883
F1
sVmine."
p7884
F2
sVanger,
p7885
F2
sVwell-favoured
p7886
F1
sVmixture
p7887
F1
sVv.,
p7888
F1
sVwatch
p7889
F2
sVill-humour.
p7890
F1
sVbaffle
p7891
F1
sVwedding
p7892
F4
sVreport
p7893
F2
sVknocks
p7894
F1
sVabout.
p7895
F1
sVcompanies;
p7896
F1
sVabout,
p7897
F3
sVgentry--that
p7898
F1
sVanxiously
p7899
F1
sVtwice
p7900
F1
sVsituation.
p7901
F1
sVdelay,
p7902
F1
sVpeasant,
p7903
F1
sVmayoralte
p7904
F1
sVruins
p7905
F1
sVsunset,
p7906
F3
sVsunset.
p7907
F1
sVsearching
p7908
F1
sVband,
p7909
F1
sVswept
p7910
F5
sVhabit
p7911
F1
sVhighlander
p7912
F2
sVresist
p7913
F2
sVdaft,
p7914
F1
sVfell.
p7915
F3
sVbargain.
p7916
F1
sVgentry.
p7917
F1
sVface,
p7918
F6
sVface.
p7919
F4
sVgrandmother
p7920
F1
sVfinger
p7921
F2
sV"on
p7922
F2
sVmun
p7923
F1
sVapproach
p7924
F5
sVmaid,"
p7925
F1
sV"of
p7926
F2
sVwingfields,
p7927
F1
sVridyard,
p7928
F1
sVhowever
p7929
F1
sVnailsworth,
p7930
F1
sVgoose-shafts
p7931
F1
sVnow."
p7932
F2
sVcavalier,
p7933
F1
sVnews
p7934
F9
sVkingdom."
p7935
F2
sVfaced
p7936
F1
sVprotect
p7937
F4
sVfell;
p7938
F1
sVfault
p7939
F2
sVdiscover,
p7940
F1
sVbeaumont,
p7941
F1
sVparticipating
p7942
F1
sVgrand-father
p7943
F1
sVgames
p7944
F1
sVfaces
p7945
F3
sVish,
p7946
F3
sVexpense
p7947
F2
sVhenry,
p7948
F7
sVsuggest
p7949
F1
sVgramer."
p7950
F1
sVnigh.
p7951
F1
sVanthony
p7952
F2
sVhast
p7953
F14
sVimpaired,
p7954
F1
sVtrust
p7955
F6
sVstroke."
p7956
F1
sVxx.
p7957
F2
sVnative,
p7958
F1
sVwere;
p7959
F1
sVsquire,"
p7960
F1
sVbeen
p7961
F135
sVquickly
p7962
F2
sVbelongs
p7963
F1
sVdeep,
p7964
F2
sVexpected
p7965
F1
sVcaptives
p7966
F1
sV(tintwistle),
p7967
F1
sVstockport,
p7968
F10
sVchief."
p7969
F1
sVdiligence,
p7970
F1
sVchipped
p7971
F1
sVuncommon
p7972
F1
sVcraft
p7973
F1
sVmajesty's
p7974
F1
sVcatch
p7975
F6
sVchurch.
p7976
F3
sVannihilated,
p7977
F1
sVstanding,
p7978
F1
sVreddening
p7979
F1
sVrobertsbridge,
p7980
F1
sVopenings
p7981
F1
sVcaptive.
p7982
F1
sVcharms.
p7983
F1
sVconsumption,
p7984
F1
sVrequyred
p7985
F1
sVstrangest
p7986
F1
sVrope,
p7987
F1
sVuncanny
p7988
F2
sVcracked
p7989
F2
sVgained."
p7990
F1
sVvi.)
p7991
F1
sVwch.
p7992
F1
sV"a
p7993
F14
sVcharacter,
p7994
F3
sV"o
p7995
F1
sV"i
p7996
F34
sVexpenses
p7997
F1
sVexperience
p7998
F2
sVjourney."
p7999
F1
sVpeak,
p8000
F2
sVl82
p8001
F1
sVbrenne
p8002
F1
sVcontaining
p8003
F1
sVheart.
p8004
F3
sValarm.
p8005
F1
sVheart,
p8006
F7
sValarm,
p8007
F1
sVunderwood,
p8008
F1
sVmottram,
p8009
F20
sVmottram.
p8010
F6
sVlevelled
p8011
F1
sVastley
p8012
F1
sVseveral
p8013
F22
sVwelsh
p8014
F1
sVsocial
p8015
F2
sVexpense.
p8016
F1
sVportal
p8017
F1
sVcharacters
p8018
F2
sVterribly
p8019
F2
sVmade,
p8020
F3
sVshortly
p8021
F3
sVmother's
p8022
F1
sVpossessed
p8023
F3
sVpower."
p8024
F1
sVjesu's
p8025
F1
sVsavings
p8026
F1
sVgreatest
p8027
F5
sVmother
p8028
F10
sVhearts
p8029
F6
sVpossesses
p8030
F2
sVgarden,
p8031
F2
sVband;
p8032
F1
sVafraid,
p8033
F1
sVgod,
p8034
F6
sVmortals.
p8035
F1
sVadvance.
p8036
F2
sVbreak,
p8037
F1
sVadvance,
p8038
F2
sVfashionable,
p8039
F1
sVgreenwich
p8040
F1
sVdearer
p8041
F1
sVoffice,
p8042
F1
sVsparest
p8043
F1
sVpiteously,
p8044
F1
sVwirksworth.
p8045
F1
sVmansion,
p8046
F2
sVfoot,
p8047
F5
sVfarmsteads
p8048
F1
sVgave
p8049
F21
sVfeatures,
p8050
F1
sVcasting
p8051
F3
sVfarmstead,
p8052
F2
sVbands
p8053
F6
sVw.,
p8054
F5
sVjudge
p8055
F4
sVbefit
p8056
F1
sVadvanced
p8057
F7
sVmelting
p8058
F1
sVyeomen--confiscating
p8059
F1
sVappearing
p8060
F1
sVgift
p8061
F5
sVhunt
p8062
F3
sV50
p8063
F1
sVclegg,
p8064
F1
sV5,
p8065
F1
sVfoote
p8066
F1
sVparson,"
p8067
F1
sVhung
p8068
F10
sVhomeward,
p8069
F1
sVrustling
p8070
F1
sVfriar,--all
p8071
F1
sVproudly
p8072
F1
sV"i've
p8073
F2
sVharder,
p8074
F1
sVdispleasure
p8075
F1
sVescape
p8076
F4
sVintellect
p8077
F1
sVnobleman
p8078
F1
sVembodied
p8079
F1
sVproceeding
p8080
F1
sVeffort,
p8081
F2
sVeffort.
p8082
F2
sVcompanions
p8083
F1
sVeverything
p8084
F1
sVicy
p8085
F1
sVattack,
p8086
F1
sVreadily
p8087
F4
sVofficer
p8088
F2
sVfiends,
p8089
F1
sVcontest.
p8090
F2
sVlady,
p8091
F10
sVrevenge?"
p8092
F2
sVanointed,"
p8093
F1
sVencumbrance.
p8094
F1
sVengaged
p8095
F1
sVpermitted
p8096
F2
sVhomewards
p8097
F1
sVcornavii,
p8098
F1
sVman?"
p8099
F2
sVchoke
p8100
F2
sVsurround
p8101
F1
sVtotal.
p8102
F1
sVcompanion,
p8103
F3
sVstone,--a
p8104
F1
sVcompanion.
p8105
F2
sVefforts
p8106
F2
sVduke
p8107
F3
sVpresence
p8108
F7
sVcivil
p8109
F9
sVobtaining
p8110
F1
sVcauldron
p8111
F2
sVfinely
p8112
F2
sVgrave."
p8113
F1
sVawe
p8114
F1
sVexisted
p8115
F1
sVvitalis."
p8116
F2
sVoccurred.
p8117
F1
sVattainments
p8118
F1
sVoccurred,
p8119
F1
sVmurdered,
p8120
F1
sVdinting.
p8121
F1
sVsunlight
p8122
F1
sVclass
p8123
F3
sVvirgin
p8124
F1
sVfought
p8125
F27
sVclasp
p8126
F1
sVportion.
p8127
F1
sVround.
p8128
F1
sV"banish
p8129
F1
sVhead
p8130
F27
sVattempted
p8131
F1
sVdifferences
p8132
F1
sVfashion."
p8133
F1
sVah,
p8134
F1
sVroots--the
p8135
F1
sVpricked
p8136
F1
sVhear
p8137
F6
sVcountry-side
p8138
F1
sVobjects,
p8139
F1
sVremoved
p8140
F1
sVhands,
p8141
F2
sVhands.
p8142
F2
sVcounsel
p8143
F3
sVportions
p8144
F3
sVborn
p8145
F5
sVmuster
p8146
F2
sVto-morrow
p8147
F1
sVbargain
p8148
F1
sV"thou
p8149
F23
sVmustering
p8150
F2
sVwar-hill,
p8151
F1
sVeffigy,
p8152
F2
sV1635.
p8153
F1
sVhaunted;
p8154
F1
sV"haunted"
p8155
F1
sVshire."
p8156
F1
sVdiamond
p8157
F2
sVannoying
p8158
F1
sVsimply,
p8159
F1
sVinterest:--"if
p8160
F1
sVwillingly
p8161
F1
sVfaithful
p8162
F2
sVappearance--the
p8163
F1
sVno
p8164
F112
sVwylde,
p8165
F1
sVwhen
p8166
F150
sVwhereat
p8167
F2
sVtim
p8168
F1
sVsetting
p8169
F4
sVallwood,
p8170
F1
sVsoundly
p8171
F1
sVroome,
p8172
F1
sVtie
p8173
F2
sVvanished
p8174
F2
sVpicture
p8175
F2
sVmary,
p8176
F1
sVpreceding
p8177
F1
sVbenefice
p8178
F1
sVgallants
p8179
F1
sVperversity
p8180
F1
sVsuspicion,
p8181
F1
sVdwelling--which
p8182
F1
sVdark.
p8183
F2
sVdischarge
p8184
F1
sVflushed
p8185
F1
sVvanquished;
p8186
F1
sVrhine
p8187
F1
sVmonk's
p8188
F2
sVyounger
p8189
F3
sV"great
p8190
F1
sVto-day
p8191
F2
sVlonger
p8192
F2
sVbullet
p8193
F1
sVcontrary,
p8194
F1
sVscots,
p8195
F1
sVscots.
p8196
F1
sVvigorously
p8197
F1
sVmargaret.
p8198
F1
sVjealousies
p8199
F1
sVlonged
p8200
F1
sVserious
p8201
F4
sVintimacy
p8202
F1
sVludworth
p8203
F3
sVspectres,
p8204
F1
sVremarkable
p8205
F3
sVhay-fork
p8206
F3
sVrob
p8207
F2
sVvarying
p8208
F1
sVendowed,
p8209
F1
sVleads
p8210
F1
sVsword-play,
p8211
F1
sVjessie,
p8212
F1
sVessentials
p8213
F1
sVoverlook--could
p8214
F1
sVhopwood,
p8215
F1
sVpassage
p8216
F7
sVwars.
p8217
F1
sVcharge
p8218
F9
sVasking
p8219
F1
sVsinging,
p8220
F1
sVcloud.
p8221
F1
sVhour,"
p8222
F1
sVfetters,
p8223
F1
sVpost"
p8224
F2
sVword.
p8225
F1
sVro,
p8226
F6
sVwilled,
p8227
F1
sVcongregation
p8228
F1
sVtell?"
p8229
F1
sVcool
p8230
F2
sVmarried,
p8231
F1
sVdenounced
p8232
F1
sVclouds
p8233
F1
sVlevel
p8234
F5
sVhighness,"
p8235
F1
sVpeeps
p8236
F1
sVbrother
p8237
F3
sVher,"
p8238
F1
sVcouched
p8239
F1
sVforthcoming."
p8240
F1
sVedas
p8241
F10
sVheather."
p8242
F1
sV"fat-bellied
p8243
F1
sVstands.
p8244
F1
sVsays
p8245
F5
sVghastly
p8246
F1
sV"thieves
p8247
F1
sVdried
p8248
F1
sVhair.
p8249
F1
sVbeseeching
p8250
F1
sVstands
p8251
F8
sVvijth,
p8252
F1
sVextinct.
p8253
F1
sVgoes
p8254
F7
sVtasks,
p8255
F1
sVworthily
p8256
F1
sVtheise
p8257
F1
sVbearers
p8258
F1
sVdrink,
p8259
F3
sVloveable
p8260
F1
sVwitchcraft.
p8261
F1
sVsubmitted
p8262
F1
sVgeneration,
p8263
F1
sVslaying
p8264
F2
sVsay;
p8265
F1
sVwater
p8266
F1
sVevident
p8267
F2
sVaffections,
p8268
F1
sVsuccour
p8269
F2
sVwitch
p8270
F15
sVtwentieth
p8271
F1
sVgroups
p8272
F2
sVsay.
p8273
F2
sVdisappeared
p8274
F6
sVfriends--well-known
p8275
F1
sVmiracle!"
p8276
F1
sVlikewise,
p8277
F1
sVhealthy
p8278
F3
sVblotch
p8279
F1
sVexperiences,
p8280
F1
sVdescended
p8281
F1
sVassenting.
p8282
F1
sVstand.
p8283
F1
sVhospitality
p8284
F1
sVriders,
p8285
F1
sVbeautiful,
p8286
F1
sVemerge
p8287
F1
sVa.l.c.m.,
p8288
F1
sVbrooks--the
p8289
F1
sVmyself.
p8290
F2
sVhumour
p8291
F2
sVmyself,
p8292
F1
sVinducing
p8293
F1
sVhands."
p8294
F1
sVhorses
p8295
F2
sV"war,"
p8296
F1
sVswallowed
p8297
F1
sV"nesta,
p8298
F1
sVartillery.
p8299
F1
sVvivid
p8300
F1
sVdistrict.
p8301
F1
sVdistrict,
p8302
F1
sVwrongs
p8303
F1
sVstroud.
p8304
F1
sViv.--and
p8305
F1
sVprey
p8306
F3
sVmemory
p8307
F2
sVonslaught
p8308
F1
sVlongden,"
p8309
F1
sValtar
p8310
F4
sVdismal
p8311
F1
sV1610.
p8312
F2
sVsouthwards
p8313
F1
sV1610,
p8314
F1
sVconscience,"
p8315
F1
sVcases
p8316
F2
sVchapel,
p8317
F4
sVand,
p8318
F60
sVchapel.
p8319
F2
sVjulius
p8320
F3
sVmeans,
p8321
F1
sVwrong.
p8322
F2
sVwrong,
p8323
F2
sVsport,
p8324
F1
sVsport.
p8325
F1
sVlaughter
p8326
F3
sVhours,
p8327
F1
sVstreak
p8328
F1
sVstream
p8329
F3
sVdownfall
p8330
F1
sVstroke
p8331
F2
sVended."
p8332
F1
sVdropped
p8333
F8
sVquacks
p8334
F1
sVnews?"
p8335
F1
sVparliamentary
p8336
F6
sVsecured
p8337
F1
sV1
F1
sVb.c.)
p8338
F1
sVcomment.
p8339
F1
sVfourth
p8340
F1
sVstones,
p8341
F2
sVhusbandry
p8342
F1
sVpaide
p8343
F1
sVdogs.
p8344
F1
sVlovliest
p8345
F1
sVsidebottom,
p8346
F3
sVinformation
p8347
F1
sVfishmonger
p8348
F2
sVrites
p8349
F2
sVplentiful,
p8350
F1
sVgibbetting
p8351
F1
sVcuring
p8352
F1
sV"ah,
p8353
F2
sVspeak,
p8354
F1
sVspeak.
p8355
F2
sVsoldier;
p8356
F1
sV"would'st
p8357
F1
sVenemies,
p8358
F1
sVenemies.
p8359
F1
sVpit-a-pat,
p8360
F2
sVwounds.
p8361
F1
sVwounds,
p8362
F1
sVcorpses,
p8363
F1
sVmagistrate
p8364
F1
sVmainly
p8365
F1
sVechoes,
p8366
F1
sVworship
p8367
F1
sVeat.
p8368
F1
sVsouls;
p8369
F1
sVcivic
p8370
F3
sVoffers
p8371
F1
sVfarmer
p8372
F21
sVfoul-visaged
p8373
F1
sVheels,
p8374
F2
sVhappened
p8375
F5
sVlonely
p8376
F3
sVsongs,
p8377
F1
sVcling
p8378
F1
sVcaptain--well,
p8379
F1
sVmotion.
p8380
F1
sViijth
p8381
F1
sVme--its
p8382
F1
sVmotion;
p8383
F1
sVhundred."
p8384
F1
sVterm
p8385
F1
sVname
p8386
F29
sVcorners
p8387
F1
sVsoon,
p8388
F1
sVgust
p8389
F1
sVeache
p8390
F1
sVmustn't
p8391
F1
sVpillaged
p8392
F1
sVdreamer,
p8393
F1
sVtorch
p8394
F1
sVprize."
p8395
F1
sVwench,"
p8396
F1
sVexclamation
p8397
F1
sVultimately
p8398
F1
sVintercourse
p8399
F1
sVfactors
p8400
F1
sVwhispered:
p8401
F1
sVthus,
p8402
F2
sVshaa's
p8403
F1
sVhacked
p8404
F2
sVsober,
p8405
F1
sV--the
p8406
F1
sVattended
p8407
F4
sVsatanic
p8408
F1
sVvisitant.
p8409
F1
sV"must
p8410
F1
sVcloven
p8411
F1
sVimportance,
p8412
F1
sVimportance.
p8413
F2
sVmind.
p8414
F1
sVwidow's
p8415
F2
sVmersey--one
p8416
F1
sVturn
p8417
F10
sVplace
p8418
F28
sVretreating
p8419
F1
sVken;
p8420
F1
sVpray?"
p8421
F1
sVbe?"
p8422
F1
sVwaver
p8423
F1
sVequals,
p8424
F1
sVgair,
p8425
F1
sVpersonage
p8426
F2
sVmerrily
p8427
F1
sVretainers
p8428
F3
sVbradshaw
p8429
F1
sVarray
p8430
F6
sVgeorge
p8431
F2
sVclanking
p8432
F2
sVgiven
p8433
F10
sVreturne
p8434
F1
sVdistrict
p8435
F2
sVburying
p8436
F4
sVwhy,
p8437
F3
sVcooling
p8438
F1
sVwhite
p8439
F7
sVgives
p8440
F1
sVholden
p8441
F1
sVbriton
p8442
F1
sVgodley
p8443
F15
sVmorrow,
p8444
F2
sVclough,
p8445
F2
sVhut
p8446
F5
sV"then,"
p8447
F1
sVsutton,
p8448
F1
sVmyself--another
p8449
F1
sVwide
p8450
F5
sVunfortunately
p8451
F2
sV(c.
p8452
F1
sVrequire
p8453
F2
sVreturn,
p8454
F1
sVreturn.
p8455
F1
sVcoat
p8456
F1
sVoutcome
p8457
F2
sVoath
p8458
F3
sVstalybridge.
p8459
F5
sVand
p8460
F1847
sVsearchers
p8461
F1
sVgodley,
p8462
F2
sVfortunately,
p8463
F1
sVann
p8464
F2
sVround,
p8465
F2
sVvisitor,
p8466
F1
sVfall,
p8467
F2
sVfall.
p8468
F3
sVrichly-caparisoned
p8469
F1
sVpastime
p8470
F1
sVpursuing
p8471
F1
sVpry
p8472
F1
sVany
p8473
F30
sVstern.
p8474
F1
sVmolestation.
p8475
F2
sVfarmer's
p8476
F14
sVchuckling
p8477
F1
sVhob,
p8478
F1
sVwandered
p8479
F1
sVuseless,
p8480
F2
sVpre-historic
p8481
F1
sVlate,
p8482
F1
sVinky
p8483
F1
sVsure
p8484
F5
sVfarm--some
p8485
F1
sVfalls
p8486
F2
sVboiling
p8487
F2
sVcleared
p8488
F1
sVstrength,
p8489
F2
sVstrength.
p8490
F4
sVconsidered
p8491
F6
sVlater
p8492
F6
sVhungry
p8493
F3
sVplaying
p8494
F1
sVshrieking
p8495
F2
sVfulfilled.
p8496
F1
sVarmy,
p8497
F4
sVurge
p8498
F1
sVheap
p8499
F1
sVfighting's
p8500
F1
sVclerk,
p8501
F1
sVpercy
p8502
F1
sVunfortunately,
p8503
F2
sVgagged;
p8504
F1
sVtrow
p8505
F1
sVsaid)
p8506
F1
sVcorpses
p8507
F1
sVv.d.,
p8508
F2
sVralph;
p8509
F1
sV"ho,
p8510
F2
sVfinchwood,
p8511
F1
sV"ho!
p8512
F2
sVwritten
p8513
F2
sVcrime
p8514
F4
sVstains
p8515
F1
sVwood
p8516
F3
sVflood,
p8517
F1
sVdeign
p8518
F1
sVdreaded
p8519
F2
sVsidebotham,
p8520
F2
sVhighlanders,
p8521
F1
sVthem--foot
p8522
F1
sVbegging
p8523
F2
sVclerke
p8524
F1
sVhenchman's
p8525
F1
sVcrutch.
p8526
F2
sVcaught."
p8527
F1
sVhedge
p8528
F1
sVhomestead
p8529
F2
sVskewered
p8530
F1
sVducking
p8531
F2
sVjoked
p8532
F1
sVralph,
p8533
F1
sVobliterate
p8534
F1
sVnaked
p8535
F1
sVpaper
p8536
F2
sVscott
p8537
F1
sV"how
p8538
F3
sVsteady,
p8539
F1
sVcitie,
p8540
F1
sVbeaten,
p8541
F1
sVworld,"
p8542
F1
sVsteward--a
p8543
F1
sVprofessed
p8544
F1
sVneeds,
p8545
F1
sVall."
p8546
F1
sV"lord's
p8547
F1
sVfarmers
p8548
F1
sVways
p8549
F4
sVsubsequent
p8550
F1
sVdefinite
p8551
F1
sVweapons
p8552
F4
sVoutside
p8553
F3
sVpriest,
p8554
F1
sVpriest.
p8555
F1
sVtaunton,
p8556
F1
sVtroopers,
p8557
F1
sVbuckets
p8558
F1
sVarrival
p8559
F3
sVshivered
p8560
F1
sVrumours
p8561
F2
sV25
p8562
F1
sVarts;
p8563
F1
sVcome
p8564
F27
sVway;
p8565
F2
sVpit-a-pat
p8566
F1
sVwanders
p8567
F1
sVhis,
p8568
F1
sVregion
p8569
F2
sVpriests
p8570
F1
sVweapon.
p8571
F1
sVweapon,
p8572
F1
sVmurderer's
p8573
F1
sVway.
p8574
F3
sVway,
p8575
F3
sVfarmer,
p8576
F3
sVfarmer.
p8577
F1
sVduty
p8578
F3
sV6
F6
sV"get
p8579
F2
sVafterwards
p8580
F12
sVworshipful
p8581
F1
sVcourse.
p8582
F2
sVpot
p8583
F1
sVperiod
p8584
F5
sVsatisfaction
p8585
F2
sVevenings,
p8586
F1
sVmeasures.
p8587
F1
sVarts.
p8588
F1
sVfirmly,
p8589
F1
sVamen.
p8590
F2
sVa.d.
p8591
F1
sVswift
p8592
F2
sVfierce,
p8593
F2
sVrhyme.
p8594
F1
sVdeposited
p8595
F2
sVfiend,
p8596
F1
sVcastle--something
p8597
F1
sVskeleton.
p8598
F1
sVdirection
p8599
F12
sVrobbed
p8600
F1
sVblessing
p8601
F2
sVandrew
p8602
F4
sVmocking
p8603
F2
sVminister
p8604
F2
sVcastle--a
p8605
F1
sVhills--into
p8606
F1
sVspirit
p8607
F7
sVrobber
p8608
F3
sVcase
p8609
F7
sVmyself
p8610
F1
sVdni,
p8611
F1
sVdisappeared,
p8612
F1
sVstephen."
p8613
F1
sVdisappeared.
p8614
F4
sVtroth,"
p8615
F1
sVmayhap,
p8616
F1
sVmoors
p8617
F2
sVlife.
p8618
F6
sVshrieks
p8619
F3
sVlife,
p8620
F7
sVgreen--once
p8621
F1
sVlookest
p8622
F1
sVsomeone
p8623
F2
sVminds
p8624
F1
sVhereafter."
p8625
F1
sVbooth,
p8626
F3
sVsides.
p8627
F1
sVconfessor,
p8628
F1
sVauthor
p8629
F3
sVgranted
p8630
F4
sVhappen?"
p8631
F1
sVreminded
p8632
F2
sVgrasp,
p8633
F2
sVdevil."
p8634
F1
sVbows
p8635
F2
sVstealing,
p8636
F1
sVreminder
p8637
F1
sVwealthy;
p8638
F1
sVprincess--the
p8639
F1
sVquarter-staff
p8640
F1
sVinculcated
p8641
F1
sVbooths
p8642
F1
sVfortress,
p8643
F1
sVtyrannous
p8644
F1
sVnest
p8645
F2
sVrefusal
p8646
F1
sVdrives
p8647
F1
sVdriven
p8648
F8
sVpersons
p8649
F13
sVexcavated
p8650
F1
sVarose
p8651
F1
sVevents.
p8652
F1
sVchanging
p8653
F1
sVweep
p8654
F3
sV"floating
p8655
F1
sVvowed
p8656
F1
sVlonging
p8657
F2
sVmoder
p8658
F1
sVmodes
p8659
F1
sVnicholas,
p8660
F2
sVeerie
p8661
F1
sVbow,
p8662
F2
sVrecital
p8663
F1
sVbow.
p8664
F2
sVthee--and
p8665
F1
sVwithout
p8666
F26
sVglades
p8667
F2
sVireland.
p8668
F1
sVbreasts.
p8669
F1
sVtruth,"
p8670
F1
sVreward
p8671
F2
sVbodies
p8672
F5
sVdesolate
p8673
F3
sVlistest,"
p8674
F1
sVactions
p8675
F1
sVbenetson,
p8676
F2
sVcease
p8677
F2
sVlaid-out
p8678
F1
sVperilous
p8679
F1
sVcaptured
p8680
F2
sVblow
p8681
F8
sVhappiness,
p8682
F1
sVpossible.
p8683
F1
sVrose
p8684
F8
sVseems
p8685
F2
sVreccomend
p8686
F1
sVintelligence,
p8687
F2
sVrosy
p8688
F2
sVengulfed
p8689
F1
sVkingdom
p8690
F1
sVwomanhood,
p8691
F1
sVaction,
p8692
F1
sVaction.
p8693
F1
sVcapture.
p8694
F1
sVprey,
p8695
F1
sVaccepted
p8696
F2
sVbeeley,
p8697
F1
sVill-timed
p8698
F1
sVwoman;
p8699
F3
sValways
p8700
F7
sVwoman,
p8701
F8
sVfriar
p8702
F6
sVtower
p8703
F2
sVtriscombe
p8704
F1
sVreduced
p8705
F2
sVvain.
p8706
F1
sVshunned
p8707
F1
sVvain,
p8708
F1
sVhe--"the
p8709
F1
sVveracity
p8710
F1
sVroyalists
p8711
F2
sVsnatched
p8712
F2
sVrespect
p8713
F1
sVoftener
p8714
F1
sVfugitives,"
p8715
F1
sVo,
p8716
F1
sVo'
p8717
F1
sVoxen.
p8718
F1
sVdefenceless
p8719
F1
sVmoon
p8720
F1
sVwhewell,
p8721
F1
sValso.
p8722
F2
sVmiles.
p8723
F1
sVslaughter
p8724
F1
sVpolite
p8725
F1
sVhugh,
p8726
F1
sVjeweller,
p8727
F1
sVroyalist,
p8728
F1
sVkilted
p8729
F1
sVterrified
p8730
F6
sV'the
p8731
F2
sVon
p8732
F270
sVsubdued
p8733
F2
sVarchers)
p8734
F1
sVzealous
p8735
F1
sVof
p8736
F2170
sVbent,
p8737
F1
sVambrosius,
p8738
F1
sVaddition
p8739
F1
sVwhence
p8740
F3
sVstand
p8741
F7
sVfree,
p8742
F1
sVdoze
p8743
F1
sVraiment,
p8744
F1
sVor
p8745
F87
sVtribe
p8746
F1
sVvicar
p8747
F5
sVinstruments
p8748
F1
sVgarb
p8749
F4
sVaugustus
p8750
F1
sVrising
p8751
F5
sVpeveril--peveril
p8752
F1
sVbegged
p8753
F2
sVfeudal
p8754
F5
sVwhaley
p8755
F1
sVmen-at-arms--and
p8756
F1
sVshires
p8757
F1
sVwoman--my
p8758
F1
sVsatisfied.
p8759
F1
sV"now,"
p8760
F1
sVthere
p8761
F153
sVdisposed
p8762
F2
sVsummit,
p8763
F1
sVsummit.
p8764
F2
sVmortal,
p8765
F1
sVpromise.
p8766
F1
sVfish
p8767
F1
sVreeled,
p8768
F1
sVsteward;
p8769
F2
sVforebore
p8770
F1
sVaccount.
p8771
F2
sVbaronial
p8772
F1
sVregard
p8773
F3
sVamongst
p8774
F1
sVmonks
p8775
F3
sVit?"
p8776
F1
sVpottery,
p8777
F1
sVaccount;
p8778
F1
sVfaster
p8779
F1
sVnourishment,
p8780
F1
sVsteward!
p8781
F1
sVtroopers
p8782
F3
sVesq.,
p8783
F80
sVsummits
p8784
F1
sVinstances,
p8785
F1
sVesq.)
p8786
F4
sVpaper,
p8787
F1
sV"it's
p8788
F1
sVgrasp
p8789
F3
sVcreeping
p8790
F1
sVcastles
p8791
F3
sVrusset
p8792
F1
sVdoings
p8793
F3
sVwords.
p8794
F2
sVbritain
p8795
F7
sVwords,
p8796
F1
sVbeds
p8797
F3
sVheather
p8798
F3
sVrubbed
p8799
F2
sVdream,--but
p8800
F1
sVswords
p8801
F2
sVerecting
p8802
F1
sVcastle]
p8803
F1
sVwoodley.
p8804
F1
sVparson.
p8805
F1
sVcoppock,
p8806
F1
sVparson,
p8807
F1
sVnoblemen
p8808
F1
sVbull"
p8809
F1
sVheathen
p8810
F2
sVstalwart
p8811
F4
sVjaded
p8812
F1
sVcastle?
p8813
F1
sVincludes
p8814
F2
sVbounded
p8815
F2
sVrecognise
p8816
F4
sVincluded
p8817
F2
sVspouse
p8818
F1
sVcastle.
p8819
F4
sVcastle,
p8820
F11
sVmeadow
p8821
F1
sVmentioned--who
p8822
F1
sVcalls
p8823
F1
sVwife
p8824
F17
sVodds
p8825
F1
sVrose.
p8826
F1
sVrose,
p8827
F1
sVsword.
p8828
F3
sVsword,
p8829
F5
sVbrawlingly
p8830
F1
sVtransports
p8831
F1
sVgo."
p8832
F1
sVall
p8833
F149
sVmattered
p8834
F1
sVpte
p8835
F1
sVlack
p8836
F3
sVson,
p8837
F13
sVswerving
p8838
F1
sVson.
p8839
F4
sVsimpson,
p8840
F1
sVbarons
p8841
F1
sVmess--and
p8842
F1
sVfollow
p8843
F1
sVbrooklands.
p8844
F1
sVgartside,
p8845
F1
sVroyalists,
p8846
F1
sVexcitement
p8847
F4
sVglimpse
p8848
F3
sVmiller's
p8849
F1
sVnarrators
p8850
F1
sVforesters
p8851
F4
sVmusquetyer
p8852
F1
sVfaulkner,
p8853
F1
sVlongdendale":--view
p8854
F1
sVhill-side
p8855
F1
sVcrest
p8856
F1
sVbelonging
p8857
F2
sVover-hasty,
p8858
F1
sVworse
p8859
F3
sVsong
p8860
F9
sVbaron.
p8861
F3
sVthere."
p8862
F3
sVbaron,
p8863
F3
sVcavaliers,
p8864
F3
sVfat
p8865
F5
sVsons
p8866
F4
sVworst
p8867
F1
sVawful
p8868
F2
sVquestioned,
p8869
F1
sVenter
p8870
F1
sVpertinently
p8871
F1
sVforester;
p8872
F1
sVflodden
p8873
F1
sVlist
p8874
F3
sVprolonged
p8875
F3
sVoccurs
p8876
F1
sVrods.
p8877
F1
sVbreast-plates,
p8878
F1
sVforester.
p8879
F2
sVforester,
p8880
F2
sVsay,"
p8881
F1
sVattentions
p8882
F1
sVrods"
p8883
F1
sVandrew"
p8884
F1
sVten
p8885
F1
sVandrew.
p8886
F1
sVgowns;
p8887
F1
sVandrew,
p8888
F4
sVreins
p8889
F1
sVshould,
p8890
F1
sVdesign
p8891
F1
sVcoward,
p8892
F1
sVnecessary,
p8893
F1
sVwhat
p8894
F57
sVhesitation
p8895
F1
sVcalmly,
p8896
F1
sVsun
p8897
F5
sVsum
p8898
F4
sVrascal
p8899
F1
sVbrief
p8900
F4
sVwainwright,
p8901
F1
sVversion
p8902
F2
sVracing
p8903
F1
sVmultitude
p8904
F1
sVchristian
p8905
F8
sVbig-limbed
p8906
F1
sV"trouble
p8907
F1
sVill-defined;
p8908
F1
sVwhen,
p8909
F5
sVroby;
p8910
F1
sVshoulde
p8911
F1
sVrat,
p8912
F1
sVshould--face
p8913
F1
sVevil-disposed
p8914
F1
sVdisagreeable,
p8915
F1
sVdifficulty
p8916
F2
sVmottram--a
p8917
F1
sVoutposts
p8918
F1
sVjohn's
p8919
F1
sVoaths--fine
p8920
F1
sVlord's
p8921
F2
sVsuddenly
p8922
F20
sV1704,
p8923
F1
sVworld."
p8924
F1
sVknow,
p8925
F1
sVwell-nigh
p8926
F2
sVhorse,
p8927
F6
sVvague,
p8928
F1
sVproceed
p8929
F1
sVall,"
p8930
F1
sVwars,
p8931
F1
sVpost,
p8932
F1
sVwidespread,
p8933
F1
sVbranded
p8934
F1
sVaffluence
p8935
F1
sVterrors.
p8936
F1
sVminor
p8937
F1
sVwaxen
p8938
F1
sVflat
p8939
F1
sVwretched
p8940
F1
sVknows
p8941
F5
sVthus
p8942
F26
sVflit
p8943
F1
sVflag
p8944
F2
sVrome.
p8945
F1
sVknown
p8946
F32
sVmellow
p8947
F1
sVfainted.
p8948
F1
sVglad
p8949
F8
sVmacclesfield.
p8950
F4
sVcloud,
p8951
F1
sVlongdendale--a
p8952
F1
sVjogged
p8953
F1
sVmelandra
p8954
F23
sVdivision
p8955
F1
sVlondon's
p8956
F1
sVmonarchs
p8957
F1
sVpalmer,
p8958
F4
sVpalmer.
p8959
F6
sVfarm-hand
p8960
F1
sVwerneth
p8961
F7
sVcultivate
p8962
F1
sVswung
p8963
F2
sVshapely,
p8964
F1
sVfebruary,
p8965
F1
sVcourt
p8966
F7
sVadvantage
p8967
F1
sVrather
p8968
F7
sVglory,"
p8969
F1
sVbreaking
p8970
F4
sVoccasionally
p8971
F3
sVgullies
p8972
F1
sVelbow.
p8973
F1
sVexplains
p8974
F1
sVestates,
p8975
F1
sVmould
p8976
F1
sVjustice."
p8977
F1
sVemulate
p8978
F1
sV"ah--thou
p8979
F1
sVprotect,
p8980
F1
sVnot?
p8981
F1
sVunwillingly,
p8982
F1
sVjoint.
p8983
F1
sVadventure
p8984
F3
sVtormentors;
p8985
F1
sVhandsome.
p8986
F1
sVshort
p8987
F10
sVchiefly
p8988
F1
sVinfluence,
p8989
F1
sVside."
p8990
F2
sVdeparture
p8991
F2
sVquarters,
p8992
F1
sVroundheads--if
p8993
F1
sVgibbet.
p8994
F1
sVshorn
p8995
F1
sVgibbet,
p8996
F4
sVcruelties
p8997
F3
sVhalf-dozen
p8998
F1
sV"in
p8999
F5
sVgodley",
p9000
F1
sVwould,
p9001
F5
sVindebted
p9002
F2
sV"if
p9003
F11
sVflowers
p9004
F2
sVsamuel,
p9005
F2
sVmission
p9006
F1
sVcross
p9007
F10
sVreddich,
p9008
F1
sV"it
p9009
F11
sVstride
p9010
F1
sVs.w.
p9011
F1
sV"is
p9012
F5
sVstyle
p9013
F1
sVclashed
p9014
F1
sVpray
p9015
F3
sVquoted.
p9016
F1
sVabbey
p9017
F1
sVharmless
p9018
F2
sVgoodman,"
p9019
F1
sVstrange
p9020
F26
sVstephen
p9021
F6
sVmight
p9022
F38
sValter
p9023
F1
sVarthur;
p9024
F1
sVreturn
p9025
F6
sVgenerously
p9026
F1
sVloudly?"
p9027
F1
sVspawn,"
p9028
F1
sVwitnesses,
p9029
F1
sVpaunch.
p9030
F1
sVwitnesses.
p9031
F1
sVblight
p9032
F1
sVserving-maid,
p9033
F1
sVsuffice
p9034
F3
sVhunted
p9035
F1
sVpreparations,
p9036
F1
sVbest,
p9037
F4
sVjames,
p9038
F6
sVdifficult
p9039
F4
sVfriendship
p9040
F5
sVcharacterized
p9041
F1
sVweight
p9042
F2
sVneedless
p9043
F3
sVmrs.,
p9044
F6
sVsolemnly:
p9045
F1
sVundertake
p9046
F1
sVbusiness?"
p9047
F1
sV"yet
p9048
F2
sVorganised
p9049
F1
sVcroaking
p9050
F1
sVthrow,
p9051
F1
sVmysteriously.
p9052
F1
sVdisbelieved
p9053
F1
sVe.,
p9054
F2
sVhilt
p9055
F1
sVreverend
p9056
F1
sVmysteriously;
p9057
F1
sVhealth
p9058
F1
sVhill
p9059
F14
sVinduced
p9060
F1
sVhollins
p9061
F1
sVarthur.
p9062
F1
sVtimes,"--days
p9063
F1
sVparishioners
p9064
F1
sVarthur,
p9065
F3
sVforgive
p9066
F1
sVsuddenly,
p9067
F1
sVthrown
p9068
F2
sVthread
p9069
F1
sVedwin,
p9070
F1
sVjohn--the
p9071
F1
sVdemon-possessed
p9072
F1
sVtwenty
p9073
F1
sVconsequence
p9074
F2
sVflood--
p9075
F1
sVfallen
p9076
F4
sVharpers
p9077
F1
sVrecorded--namely,
p9078
F1
sVdine
p9079
F1
sVfamily,
p9080
F2
sVstudent
p9081
F1
sVrelate
p9082
F2
sVdiscouraged
p9083
F1
sVfancy
p9084
F1
sVwell-known
p9085
F2
sVheathery
p9086
F1
sVrevolution
p9087
F1
sVbritons,
p9088
F5
sVnorth-east
p9089
F2
sVbed."
p9090
F1
sVstory
p9091
F27
sVmagician
p9092
F6
sVgates.
p9093
F1
sVgates,
p9094
F1
sVrisk.
p9095
F1
sVleading
p9096
F6
sVinterviews
p9097
F1
sVshooting
p9098
F4
sVbrisker
p9099
F1
sVhangs
p9100
F2
sVbroadbottom,
p9101
F1
sVdoomsday
p9102
F1
sVhomesteads,
p9103
F1
sVpassed
p9104
F24
sVsward
p9105
F1
sVproperty,
p9106
F1
sVrecovered
p9107
F8
sVpig's
p9108
F2
sVattendants
p9109
F1
sV"history
p9110
F1
sVlaird."
p9111
F1
sVstatement
p9112
F2
sVrelieved
p9113
F2
sVfrom,
p9114
F1
sVluckily
p9115
F2
sVtreasures
p9116
F1
sVimmediately,
p9117
F1
sVconvinced
p9118
F1
sVking
p9119
F66
sVkind
p9120
F2
sVbetrothed,
p9121
F1
sVviews,
p9122
F1
sVderbyshire--through
p9123
F1
sVrail.
p9124
F1
sVdoubly
p9125
F2
sVinsulted
p9126
F1
sVinterview.
p9127
F1
sVamass
p9128
F1
sVstrengthen
p9129
F2
sVwell
p9130
F42
sVmean?"
p9131
F2
sVsearch;
p9132
F1
sVsaracens
p9133
F1
sVoaken
p9134
F1
sVmeasure,
p9135
F1
sVfighting
p9136
F10
sVcarlecotes
p9137
F1
sVwarning.
p9138
F2
sVsalutary
p9139
F1
sVgoldsmith
p9140
F1
sVhopelessly
p9141
F1
sVnights
p9142
F2
sVamends
p9143
F2
sVcropped
p9144
F1
sVgeraldine."]
p9145
F1
sVwindow.
p9146
F1
sVwindow,
p9147
F1
sVfinding
p9148
F2
sVfarmhouse.
p9149
F1
sVfavoured,
p9150
F1
sVme."
p9151
F2
sVfavoured.
p9152
F1
sVadded
p9153
F8
sV297,
p9154
F1
sVreckon
p9155
F1
sVgaze,
p9156
F1
sVreach
p9157
F3
sVwarder,
p9158
F3
sVimport.
p9159
F1
sV"for,"
p9160
F1
sVnothing
p9161
F23
sVseasons
p9162
F3
sVcattle.
p9163
F1
sVtongue.
p9164
F2
sV79
p9165
F1
sVtongue,
p9166
F2
sVwindows
p9167
F3
sVpans
p9168
F1
sVnotch
p9169
F2
sVnight,
p9170
F11
sVnight.
p9171
F8
sVstones
p9172
F5
sVrevels.
p9173
F1
sVrestore
p9174
F1
sVfairest,
p9175
F1
sVfond
p9176
F1
sVto-day,
p9177
F3
sVgain.
p9178
F1
sVmelody
p9179
F1
sVstronghold.
p9180
F1
sVcasements,
p9181
F1
sVrepulse;
p9182
F1
sVstifle
p9183
F1
sVsecuring
p9184
F4
sVgods?"
p9185
F1
sVcompliments.
p9186
F1
sVstarving
p9187
F2
sVbetray
p9188
F1
sVshepherd
p9189
F2
sVhis
p9190
F673
sVhit
p9191
F2
sV"uncover,
p9192
F1
sVstrongholds
p9193
F1
sVrt.
p9194
F2
sVjourney;
p9195
F1
sVwhistle
p9196
F1
sVhid
p9197
F2
sVjourney,
p9198
F7
sVjourney.
p9199
F2
sVleech,
p9200
F1
sVstone.
p9201
F2
sVstone,
p9202
F7
sVgrievances
p9203
F1
sVoffer--that
p9204
F1
sVafraid."
p9205
F1
sVbroken--he
p9206
F1
sVinvestigate
p9207
F1
sVactivity
p9208
F1
sVdesert,
p9209
F1
sVrepulsed
p9210
F1
sVart
p9211
F31
sVcity,
p9212
F2
sVstatements,
p9213
F1
sVdate,
p9214
F1
sVbare
p9215
F3
sVare
p9216
F107
sVheaped
p9217
F1
sVhorribly--more
p9218
F1
sVarm
p9219
F8
sVslopes,
p9220
F2
sVyouth
p9221
F8
sVwitch-wife
p9222
F1
sVsurmounted
p9223
F1
sVlibraries
p9224
F1
sVvarious
p9225
F3
sVhartley,
p9226
F1
sVsheath,
p9227
F1
sVcradle,
p9228
F1
sVoutwitted
p9229
F1
sVother's
p9230
F3
sVnumerous
p9231
F2
sVafterwards,
p9232
F2
sVlamenting
p9233
F1
sV"that
p9234
F6
sVromance,
p9235
F1
sVromance.
p9236
F2
sVchamber.
p9237
F1
sVchamber,
p9238
F5
sVattention
p9239
F5
sVconfiscated
p9240
F1
sVdays,
p9241
F5
sVheape,
p9242
F2
sVopposition
p9243
F1
sVcountry-folk--some
p9244
F1
sVrupert's
p9245
F2
sVfalse,
p9246
F1
sVunion,
p9247
F1
sVroman
p9248
F30
sVbecame
p9249
F19
sVthreat.
p9250
F1
sVhowever,
p9251
F27
sVbond
p9252
F1
sVknew,
p9253
F2
sVclashing
p9254
F2
sVcompanion--the
p9255
F1
sVreasons
p9256
F2
sVsweet
p9257
F11
sVwhelp
p9258
F1
sVsweep
p9259
F3
sVvillage
p9260
F4
sVflint,
p9261
F1
sV1633,
p9262
F1
sVthere,
p9263
F11
sVstartling
p9264
F1
sVthere.
p9265
F7
sVsay,
p9266
F5
sVmarch,
p9267
F2
sVmarch.
p9268
F3
sVcharlesworth,
p9269
F1
sVbachelor)
p9270
F1
sVcharlesworth.
p9271
F2
sVwhom
p9272
F25
sVfleet-footed,
p9273
F1
sVthem,"
p9274
F1
sVflight
p9275
F1
sVother."
p9276
F1
sVlegend--
p9277
F1
sVgoodly
p9278
F3
sVreason.
p9279
F1
sVdemand
p9280
F3
sVcross,"
p9281
F1
sVrocking
p9282
F3
sVdrab,"
p9283
F1
sVstolen
p9284
F3
sVnoticeable
p9285
F1
sVworkmen
p9286
F2
sVbeauty.
p9287
F1
sVlips,
p9288
F1
sVwho,
p9289
F13
sVsnubbed
p9290
F1
sVgood-morrow."
p9291
F1
sV"anno
p9292
F1
sVp.
p9293
F1
sVscores."
p9294
F1
sVwhere,
p9295
F1
sVpoor."
p9296
F1
sVdemon
p9297
F1
sVrid
p9298
F4
sVstye
p9299
F1
sVanguish
p9300
F1
sVcame.
p9301
F1
sVaway.
p9302
F6
sVaway,
p9303
F6
sVfarmstead
p9304
F1
sVfate
p9305
F3
sVwindows,
p9306
F1
sVforetells
p9307
F1
sVhag,
p9308
F2
sVhag.
p9309
F2
sVwelcome,"
p9310
F1
sVwidely
p9311
F2
sVb.,
p9312
F4
sVesteemed
p9313
F2
sVfree."
p9314
F1
sVhag;
p9315
F1
sVspears
p9316
F3
sVdaughters
p9317
F3
sVpaths
p9318
F1
sVaccordingly,
p9319
F3
sVmankind.
p9320
F1
sVmankind,
p9321
F1
sVarrived
p9322
F5
sVchurche
p9323
F1
sVrobust
p9324
F1
sVuneasily
p9325
F1
sValman.
p9326
F2
sVweird
p9327
F1
sVdaughter,
p9328
F5
sVlower
p9329
F3
sVdaughter.
p9330
F3
sVpeople,
p9331
F5
sVpeople.
p9332
F1
sVdared
p9333
F2
sVcheer
p9334
F1
sVhistoric
p9335
F1
sVlength.
p9336
F2
sVdaughter;
p9337
F1
sVlength,
p9338
F5
sVhomeward
p9339
F1
sVawhile.
p9340
F1
sVawhile,
p9341
F3
sVabilities
p9342
F2
sVendeavour
p9343
F1
sVplaces,
p9344
F1
sVintervals
p9345
F1
sVquestions
p9346
F1
sVcrimson,
p9347
F1
sVsilvery
p9348
F1
sVcontinent
p9349
F1
sVcase,
p9350
F2
sVold-time
p9351
F1
sVwehr-wolf
p9352
F4
sVshape.
p9353
F2
sVshape,
p9354
F3
sV"valiant
p9355
F1
sVviolations
p9356
F1
sVoffices,
p9357
F1
sVrejoinder,
p9358
F1
sVmaie,
p9359
F1
sVtownsfolk
p9360
F1
sVcustomers
p9361
F1
sVbe--the
p9362
F1
sVmcmvi.
p9363
F1
sVshe--then
p9364
F1
sVnight-time.
p9365
F1
sVhangman,
p9366
F2
sVpate.
p9367
F1
sVmyself;
p9368
F1
sVshaped
p9369
F2
sVtame,
p9370
F2
sVbodkin
p9371
F1
sVtame.
p9372
F1
sVcommanders
p9373
F1
sVarthur
p9374
F14
sVtable.
p9375
F4
sVtable,
p9376
F2
sVunderstood
p9377
F2
sV"we
p9378
F6
sV5
F5
sV"my
p9379
F7
sVwomen,
p9380
F4
sVanno
p9381
F2
sVrespectability,
p9382
F1
sVfragments
p9383
F2
sVprod
p9384
F1
sVloud.
p9385
F1
sVsecretary,
p9386
F1
sVpalmer
p9387
F3
sVwarwickshire
p9388
F1
sVplotters,
p9389
F1
sVconsolation
p9390
F1
sV"revenge
p9391
F1
sVmingled
p9392
F1
sVmost
p9393
F50
sVjanuary,
p9394
F2
sVlifeless
p9395
F3
sVsimmer,
p9396
F1
sVhatred
p9397
F2
sVlends
p9398
F1
sVyouthful
p9399
F1
sVjuliana,
p9400
F1
sVtherein
p9401
F4
sVwayside.
p9402
F1
sVcompt
p9403
F1
sVill-news
p9404
F1
sVnoises,
p9405
F2
sVconquest
p9406
F1
sVheedless
p9407
F1
sVpiteous
p9408
F1
sVmantled
p9409
F1
sVimpressed
p9410
F1
sVlandscape,
p9411
F2
sVtumult,
p9412
F1
sVtumble
p9413
F1
sVquestion
p9414
F1
sVcolumn
p9415
F3
sVsignifies
p9416
F1
sV"ride
p9417
F1
sVonce,"
p9418
F1
sVlaughed,
p9419
F2
sVlaughed.
p9420
F1
sVupheld
p9421
F2
sVgibbeting
p9422
F1
sVmountains
p9423
F3
sVintently.
p9424
F1
sVbirthmark
p9425
F2
sVjohn,
p9426
F11
sVjohn.
p9427
F1
sVfiled
p9428
F1
sVupright
p9429
F4
sVraising
p9430
F3
sVfled.
p9431
F1
sVfled,
p9432
F3
sVix.
p9433
F2
sVconsist
p9434
F2
sVabbey.
p9435
F1
sVit--what
p9436
F2
sVbarring
p9437
F1
sVsonn,
p9438
F1
sVetc.
p9439
F2
sVcalled
p9440
F24
sVbell
p9441
F2
sVassociated
p9442
F2
sVineld
p9443
F9
sVfoam-flecked
p9444
F1
sVbreast.
p9445
F1
sVpreserved,
p9446
F1
sVwarning
p9447
F1
sVfaithless
p9448
F1
sVre-told
p9449
F1
sVrally
p9450
F1
sVhome--an
p9451
F1
sVdanger,
p9452
F2
sVrainy
p9453
F1
sVpeace
p9454
F2
sVbacks
p9455
F2
sVdepart.
p9456
F2
sVparalytic
p9457
F1
sVwell-proportioned
p9458
F1
sVunjustifiable
p9459
F1
sVrochdale
p9460
F1
sVvalley.--(longfellow).
p9461
F1
sVdale
p9462
F1
sVhedge,
p9463
F1
sVbed,
p9464
F1
sVcharged,
p9465
F2
sVbreasts
p9466
F2
sVcoombs,
p9467
F2
sVmeaning
p9468
F2
sVvigil
p9469
F1
sVunborn.
p9470
F1
sVviscount
p9471
F1
sVevil:
p9472
F1
sVdisinherited
p9473
F1
sV(1643),
p9474
F1
sVback.
p9475
F1
sVback,
p9476
F3
sVevil.
p9477
F1
sVrain,
p9478
F1
sVashton
p9479
F1
sVonce
p9480
F25
sVadlington;
p9481
F1
sVsaracens."
p9482
F1
sVshaven.
p9483
F1
sVfurze
p9484
F1
sVadlington,
p9485
F1
sVspring
p9486
F1
sVleal
p9487
F1
sVwinds
p9488
F1
sVbookseller,
p9489
F1
sVpeering
p9490
F1
sVfortresses
p9491
F1
sVparisshe
p9492
F1
sVnote.
p9493
F13
sVme,"
p9494
F6
sVfences
p9495
F1
sVheaven-sent
p9496
F1
sVabode
p9497
F1
sVstaley
p9498
F18
sVissue.
p9499
F1
sVseized
p9500
F5
sVwind.
p9501
F4
sVwind,
p9502
F3
sV"little
p9503
F1
sVwishes
p9504
F2
sVfarm;
p9505
F1
sVrulest
p9506
F1
sVissue;
p9507
F1
sVspalding,
p9508
F4
sVxxi.
p9509
F2
sVfence,
p9510
F1
sVquietly.
p9511
F1
sVrydrs
p9512
F1
sVagency.
p9513
F1
sVdeals
p9514
F2
sV106,
p9515
F1
sVdealt
p9516
F1
sVnoted
p9517
F4
sVroad--did
p9518
F1
sVn.,
p9519
F1
sVgripping
p9520
F1
sVcurtly
p9521
F2
sVknowledge--that
p9522
F1
sVboggart--in
p9523
F1
sVprocession
p9524
F3
sVperched
p9525
F2
sVenamoured
p9526
F1
sVveins,
p9527
F1
sVfolk
p9528
F10
sVleatherbarrow,
p9529
F2
sVman's
p9530
F11
sVwitch's
p9531
F2
sVwaiting
p9532
F5
sVsang.
p9533
F1
sVworships
p9534
F1
sVattire
p9535
F1
sVcroaking?
p9536
F1
sVshe,
p9537
F2
sVmayre,
p9538
F1
sVoff--torn
p9539
F1
sVgaily
p9540
F3
sVdesires
p9541
F3
sVdesired
p9542
F4
sVfold,
p9543
F1
sVsettling
p9544
F2
sVwind."
p9545
F1
sVsurvivor
p9546
F1
sVworship.
p9547
F1
sVlarger
p9548
F1
sVones,
p9549
F1
sVleaving
p9550
F2
sVevading
p9551
F1
sVwill."
p9552
F1
sVweaponless--at
p9553
F1
sVcarried,
p9554
F2
sVmessengers
p9555
F2
sVimprobable
p9556
F1
sVshades,
p9557
F2
sVrede
p9558
F1
sVgalloped
p9559
F3
sVinscription:--
p9560
F1
sVuse
p9561
F6
sVfee
p9562
F1
sVfrom
p9563
F223
sVfigure
p9564
F14
sVpinched,
p9565
F1
sV"jock
p9566
F1
sVshe:
p9567
F1
sVfew
p9568
F20
sVhall.]
p9569
F1
sVweeping
p9570
F6
sVbitterly
p9571
F2
sVeagles
p9572
F2
sVpossession
p9573
F12
sVclever
p9574
F2
sVcarved;
p9575
F1
sVporch
p9576
F1
sVinclined
p9577
F6
sVfiend
p9578
F1
sVimpress
p9579
F1
sVsore
p9580
F3
sVeagles,
p9581
F1
sVrecount
p9582
F2
sVscale,
p9583
F1
sVstool."
p9584
F2
sVstartling.
p9585
F1
sV1653,
p9586
F1
sVwomen
p9587
F10
sVeagle.
p9588
F1
sVfro,
p9589
F1
sVheard
p9590
F22
sVus.
p9591
F2
sVus,
p9592
F2
sVice.
p9593
F1
sVice,
p9594
F1
sVeagle;
p9595
F1
sVwildest
p9596
F4
sV"where
p9597
F3
sVproof
p9598
F1
sVmovings
p9599
F1
sVpatron
p9600
F1
sVearnestness
p9601
F1
sVtim,"
p9602
F1
sVforays
p9603
F1
sVmaiden's
p9604
F2
sVmay'st
p9605
F1
sVsomething
p9606
F7
sVtan
p9607
F1
sV"laid
p9608
F1
sVsir
p9609
F79
sVunited
p9610
F1
sVbeggar,
p9611
F1
sVsit
p9612
F2
sVvilla,
p9613
F2
sVsix
p9614
F1
sVscotch
p9615
F3
sVfortunate
p9616
F1
sVsic
p9617
F1
sVinstead
p9618
F1
sVstruggled
p9619
F1
sVattemptest
p9620
F1
sVpanic
p9621
F1
sVsin
p9622
F4
sVherself,
p9623
F2
sVattend
p9624
F1
sVstars
p9625
F2
sVremedy.
p9626
F1
sVhalfe
p9627
F1
sV"such
p9628
F1
sVmoving,
p9629
F1
sV1880
p9630
F1
sVtaylor,
p9631
F2
sVlight
p9632
F21
sVstruggle.
p9633
F1
sVstruggle,
p9634
F1
sVwolf-skin
p9635
F1
sVhonestly
p9636
F1
sVsummer,
p9637
F1
sVweeks.
p9638
F1
sVcheshire--have
p9639
F1
sVcheshire;
p9640
F1
sVpriory,
p9641
F1
sVwitch."
p9642
F1
sVcoolly
p9643
F2
sVwalked;
p9644
F1
sVdamsel
p9645
F1
sVbugle
p9646
F1
sVstrove
p9647
F2
sVcheshire,
p9648
F7
sVlooks
p9649
F3
sVcheshire.
p9650
F7
sVchaff,
p9651
F1
sVoverawed
p9652
F1
sVmouselow's
p9653
F1
sVglen
p9654
F1
sVsuperior
p9655
F5
sVfrightening
p9656
F1
sVhaunches,
p9657
F1
sVpermanent
p9658
F2
sVrestrain
p9659
F1
sVowd
p9660
F1
sVcovered
p9661
F3
sVwriters.
p9662
F1
sVbye
p9663
F2
sVworld.
p9664
F4
sVprose,
p9665
F1
sVworld,
p9666
F3
sVhappened.
p9667
F3
sV"many
p9668
F1
sVmaterial
p9669
F1
sVcommended
p9670
F1
sVflew
p9671
F1
sVdiscomfiture
p9672
F1
sVcross.]
p9673
F1
sVsake."
p9674
F1
sVcastle.]
p9675
F2
sVaffections
p9676
F1
sVfled
p9677
F2
sVsuccessor
p9678
F1
sVmollified
p9679
F1
sVcrowd.
p9680
F1
sVcrowd,
p9681
F1
sVmovements,
p9682
F1
sVby;
p9683
F2
sVmovements.
p9684
F1
sVfeast
p9685
F3
sVneedy.
p9686
F1
sVby.
p9687
F5
sVby,
p9688
F1
sVship,
p9689
F1
sVfredk.
p9690
F1
sVtimes,
p9691
F1
sVunlearned.
p9692
F1
sVbills
p9693
F2
sVconflict.
p9694
F1
sVconflict,
p9695
F1
sV"hallo!"
p9696
F1
sVlevy
p9697
F1
sVrelated
p9698
F11
sVremove
p9699
F3
sVour
p9700
F25
sV80
p9701
F1
sVindulged
p9702
F1
sVout
p9703
F64
sVrespects
p9704
F1
sVtimber.
p9705
F1
sVsentiment
p9706
F3
sVassured,
p9707
F1
sVsydebotham,
p9708
F1
sVpursued,
p9709
F1
sVhattersley,
p9710
F2
sVsteel
p9711
F1
sV1899-1905,
p9712
F1
sVyork
p9713
F1
sVconflicts
p9714
F1
sVpeasantry
p9715
F1
sVtenant
p9716
F1
sVprisoner--condemned
p9717
F1
sVthankoffering
p9718
F1
sVturrets."
p9719
F1
sVafford."
p9720
F1
sVselby;
p9721
F1
sVgrit,
p9722
F1
sVwalls.
p9723
F1
sVconversation
p9724
F1
sVdisgusted,
p9725
F1
sVgeo.
p9726
F1
sVhence
p9727
F3
sVgentlemanly
p9728
F1
sVhaggling,
p9729
F1
sVgoldsmith's
p9730
F1
sVundid
p9731
F1
sVslide.
p9732
F1
sVecho
p9733
F1
sVquaint,
p9734
F1
sVcalled,
p9735
F2
sVimperial
p9736
F1
sVstraight
p9737
F4
sVineld.]
p9738
F1
sVdunstan,
p9739
F1
sVpublication
p9740
F1
sVunknown
p9741
F2
sVpatient,
p9742
F2
sVtheir
p9743
F216
sVenough.
p9744
F3
sVenough,
p9745
F7
sVgod's
p9746
F1
sVhereabouts.
p9747
F1
sVdoomed
p9748
F1
sVshaw.
p9749
F2
sVbaptized
p9750
F1
sVcome."
p9751
F2
sVcrown."
p9752
F1
sV"god
p9753
F2
sVsucceeded
p9754
F8
sVbutterworth,
p9755
F1
sVriches
p9756
F1
sVretreat.
p9757
F1
sVro.
p9758
F1
sV"may
p9759
F4
sVsword."
p9760
F1
sVbeldame,
p9761
F1
sVfowl
p9762
F1
sVbrightened,
p9763
F1
sV"that,"
p9764
F1
sVwestward
p9765
F1
sV"well,
p9766
F4
sVlinked
p9767
F2
sVscotchman
p9768
F1
sVafraid
p9769
F5
sVpupils
p9770
F5
sVmadmen,
p9771
F1
sVagency
p9772
F2
sVfrancis,
p9773
F1
sVwoe-begone
p9774
F1
sVreaper
p9775
F1
sVwhich
p9776
F220
sVdivers
p9777
F1
sVbeggars.
p9778
F1
sVcomest
p9779
F1
sVcombat
p9780
F1
sVcentre
p9781
F1
sVlamed
p9782
F1
sVwho
p9783
F164
sVretains.
p9784
F1
sVsickened,
p9785
F1
sVribbons,
p9786
F1
sVcracking
p9787
F1
sVgait
p9788
F1
sVwhy
p9789
F15
sVhusband's
p9790
F3
sVspawn,
p9791
F1
sVsaddest
p9792
F1
sVlooked
p9793
F24
sVtapers
p9794
F1
sVyeoman's
p9795
F2
sVensued
p9796
F1
sVair.
p9797
F1
sVkitchen,
p9798
F2
sVagreed
p9799
F3
sVtidings
p9800
F3
sVone,
p9801
F5
sVwealth,
p9802
F2
sVone.
p9803
F2
sVchancel
p9804
F3
sVfear
p9805
F5
sVone;
p9806
F1
sVfeat
p9807
F2
sVpleased
p9808
F1
sVchanced
p9809
F4
sVtrue,
p9810
F2
sVtrue.
p9811
F5
sVsparrow,
p9812
F1
sVmuch
p9813
F33
sVedas,
p9814
F9
sVincantations
p9815
F2
sVedas.
p9816
F1
sV"stirring
p9817
F1
sVneared
p9818
F2
sVdeath--a
p9819
F1
sVequally
p9820
F3
sVlocal
p9821
F11
sVmonuments
p9822
F1
sVmidnight
p9823
F4
sVburglars
p9824
F1
sVones
p9825
F1
sVwords
p9826
F16
sVchance,
p9827
F1
sVcoughing.
p9828
F1
sVcontents.
p9829
F2
sVcontents,
p9830
F1
sVramsbottom,
p9831
F1
sVdruids,
p9832
F3
sVmarried
p9833
F8
sV"sons
p9834
F1
sVincantation,
p9835
F1
sVlisted,
p9836
F1
sVmychel,
p9837
F1
sVashes,
p9838
F1
sVfidler,
p9839
F1
sVgenerations
p9840
F3
sVview
p9841
F5
sVavailable
p9842
F1
sVsorcery,
p9843
F1
sVa.,
p9844
F2
sV"poor
p9845
F1
sVhut,
p9846
F1
sVcairns
p9847
F3
sV1645.
p9848
F1
sVchurchman
p9849
F2
sV"excalibur,"
p9850
F1
sVpublisher,
p9851
F1
sVground,
p9852
F5
sVcaptain,
p9853
F1
sVground.
p9854
F7
sV"death
p9855
F1
sVbradbury,
p9856
F1
sVbelow
p9857
F1
sVdid'st
p9858
F1
sV(through
p9859
F1
sVclosed
p9860
F3
sV"nothing
p9861
F2
sVdaughters,
p9862
F2
sVability
p9863
F1
sVopening
p9864
F3
sVjoy
p9865
F3
sVrecorded.
p9866
F1
sVbride?"
p9867
F1
sVspoil
p9868
F1
sVmottramites
p9869
F1
sVheathen,
p9870
F1
sVarts,
p9871
F1
sVfather,"
p9872
F2
sVmisery."
p9873
F1
sVcommands
p9874
F1
sVpiece
p9875
F4
sVbough.
p9876
F1
sVwas--providing
p9877
F1
sVapril
p9878
F1
sVbegan.
p9879
F1
sVsafely
p9880
F4
sVwilds.
p9881
F1
sVclose,
p9882
F1
sVgrounds
p9883
F1
sV"now
p9884
F6
sVwall
p9885
F1
sVcurls
p9886
F1
sVthat,"
p9887
F2
sVliving,--have
p9888
F1
sValice,
p9889
F2
sVhats,
p9890
F1
sVtable
p9891
F3
sVwon;
p9892
F1
sVoldfield,
p9893
F7
sVdecent
p9894
F1
sVchoice,
p9895
F1
sV"just
p9896
F1
sV"i'm
p9897
F1
sVedas--the
p9898
F1
sVchild?"
p9899
F1
sVrich,
p9900
F1
sVsufficient
p9901
F3
sVthrusting
p9902
F1
sVliquids,
p9903
F1
sVlongdendale;"
p9904
F1
sVimproved
p9905
F1
sVpresent
p9906
F22
sVwilt
p9907
F8
sVagreement,
p9908
F1
sVwished,
p9909
F1
sVirate
p9910
F1
sVwill
p9911
F124
sVinfluential
p9912
F1
sVis?"
p9913
F1
sVhanson,
p9914
F1
sVwild
p9915
F34
sVsword--a
p9916
F1
sVheels.
p9917
F3
sVloyalists,
p9918
F1
sVthrong,
p9919
F2
sVrome,
p9920
F1
sVbird,
p9921
F1
sVencouragement
p9922
F2
sVpretender,
p9923
F2
sVthud
p9924
F2
sVelbow,
p9925
F1
sVterrorised
p9926
F1
sVeducation
p9927
F1
sVwasted;
p9928
F1
sVperhaps
p9929
F5
sVthese,
p9930
F1
sVunite
p9931
F1
sVmember
p9932
F3
sVmerciful
p9933
F1
sVlargest
p9934
F1
sVinch
p9935
F2
sVgets
p9936
F1
sVprivileged
p9937
F1
sVgrandeur
p9938
F1
sVhammering
p9939
F1
sV"they
p9940
F12
sV16s.,
p9941
F1
sVoctagon
p9942
F1
sVbeast
p9943
F6
sV"then
p9944
F5
sVking--prince
p9945
F1
sVcheshire
p9946
F11
sVget,
p9947
F1
sVtyme
p9948
F2
sVthankful
p9949
F1
sVironsides
p9950
F1
sVenglish
p9951
F20
sVrealised
p9952
F1
sVbending
p9953
F1
sVvolume.
p9954
F2
sVstate."
p9955
F1
sVcried
p9956
F26
sVheavily
p9957
F5
sVtickencote,
p9958
F1
sVwealthy
p9959
F2
sVcries
p9960
F5
sVrocked
p9961
F1
sVrooms,
p9962
F1
sVlady--still
p9963
F1
sVrocking-chair,
p9964
F1
sVhappiness
p9965
F3
sVrocking-chair.
p9966
F1
sVnoise.
p9967
F1
sVwonder.
p9968
F1
sVneighbourhood,
p9969
F4
sVfamed,
p9970
F1
sVhost,
p9971
F1
sVsky
p9972
F3
sVdiscuss
p9973
F1
sVother
p9974
F61
sVgalloping
p9975
F4
sVbuxton
p9976
F1
sVusage
p9977
F1
sV"malediction,"
p9978
F1
sVgeorge,
p9979
F3
sVacted
p9980
F1
sV"guid
p9981
F1
sVpillars,
p9982
F1
sVsick
p9983
F2
sVcame,
p9984
F6
sVsingle-handed
p9985
F1
sVknow
p9986
F16
sVsides."
p9987
F1
sV"but
p9988
F11
sVmen--part
p9989
F1
sVrogues."
p9990
F1
sVperpetual
p9991
F1
sVtestimony
p9992
F1
sVfeigned
p9993
F1
sVhosts
p9994
F3
sVjanuary
p9995
F1
sVleesdene,
p9996
F1
sVagents
p9997
F1
sVstaffordshire,
p9998
F1
sVbecause
p9999
F11
sVineld--the
p10000
F1
sVvue,
p10001
F1
sVscared
p10002
F1
sVscottish
p10003
F10
sVwill--to
p10004
F1
sVforefathers."
p10005
F1
sVmelee
p10006
F1
sVpast,
p10007
F3
sVpast.
p10008
F1
sVempire
p10009
F2
sVpoet,
p10010
F1
sVravaged
p10011
F1
sVlead
p10012
F4
sVsake,
p10013
F1
sVphilosopher
p10014
F1
sVleap
p10015
F2
sVdeecmber
p10016
F1
sVleader
p10017
F8
sVmisadventure.
p10018
F1
sVdangling
p10019
F6
sVghost-hound.'
p10020
F1
sVconveyed
p10021
F1
sVtraitor,
p10022
F1
sVthrone
p10023
F2
sVmine?
p10024
F1
sVthrong
p10025
F1
sVcarried
p10026
F15
sVpicton,
p10027
F1
sVsaddle
p10028
F4
sVhimself,
p10029
F4
sVhimself.
p10030
F7
sVlea.
p10031
F1
sV"bess
p10032
F1
sVswear
p10033
F4
sVsweat
p10034
F1
sVherself.
p10035
F1
sVemperor
p10036
F1
sVhimself;
p10037
F1
sVoutset
p10038
F1
sVown
p10039
F36
sVwilderness
p10040
F1
sVowe
p10041
F1
sVcatesby,
p10042
F1
sVranks,
p10043
F1
sVweather
p10044
F2
sVpromise
p10045
F2
sVprompted
p10046
F1
sVtown,"
p10047
F2
sVexciting
p10048
F1
sVmad.
p10049
F1
sVmad,
p10050
F1
sV*
F70
sVfaithfully
p10051
F1
sVminster
p10052
F2
sVintention
p10053
F4
sVcaptaine
p10054
F2
sVupwards
p10055
F1
sVi've
p10056
F2
sVvolume
p10057
F3
sVmade
p10058
F52
sVparker,
p10059
F1
sVdesolation.
p10060
F1
sV1637,
p10061
F1
sVinstructive
p10062
F1
sVwhether
p10063
F8
sVprotesting
p10064
F1
sV"thy
p10065
F3
sVthis,
p10066
F3
sVthis.
p10067
F1
sVmen-at-arms.
p10068
F1
sVrecord
p10069
F6
sVmen-at-arms,
p10070
F1
sV1745
p10071
F1
sVco-heir
p10072
F1
sVquarteringe
p10073
F4
sVchorton,
p10074
F1
sVlegions.
p10075
F1
sVlegions,
p10076
F1
sV"so
p10077
F3
sVm.,
p10078
F1
sVabbot
p10079
F8
sVlegions?
p10080
F1
sVnaming
p10081
F1
sVelders.
p10082
F1
sVmagician's
p10083
F1
sV1644."
p10084
F1
sVvolume,
p10085
F1
sVromiley.
p10086
F1
sVmyself."
p10087
F1
sVlo--the
p10088
F1
sVbook
p10089
F7
sVfrisians,
p10090
F1
sVrank.
p10091
F1
sVbranch
p10092
F2
sVrank,
p10093
F1
sVconclusion
p10094
F4
sVlance
p10095
F3
sVjune
p10096
F1
sVbrigantine
p10097
F1
sVcruelty
p10098
F2
sVhalidome,"
p10099
F1
sVcould.
p10100
F1
sVbowdon.
p10101
F1
sVbowdon,
p10102
F1
sVj.p.,
p10103
F15
sVranks
p10104
F7
sVcould,
p10105
F1
sVvolumes
p10106
F1
sVforager.
p10107
F1
sVinside."
p10108
F1
sVgoldsmith,
p10109
F1
s.