ccollections
defaultdict
p1
(c__builtin__
float
p2
tRp3
Vbaked,
p4
F1
sVall
p5
F8
sVsquire
p6
F1
sVconsider
p7
F1
sVconsciences
p8
F1
sVwhoever
p9
F1
sVbetter,
p10
F1
sVexpence
p11
F2
sVsouls
p12
F1
sVlivelihood
p13
F1
sVfour
p14
F4
sVhath
p15
F4
sVisland
p16
F1
sVper
p17
F4
sVwas,
p18
F1
sVskin
p19
F1
sVidleness,
p20
F1
sVsixthly,
p21
F1
sVencrease
p22
F1
sVchildren
p23
F9
sV(in
p24
F1
sVtowardly
p25
F1
sVwhose
p26
F4
sVup,
p27
F1
sVpreserver
p28
F1
sVcalculate
p29
F2
sVyoung
p30
F5
sVto
p31
F107
sVcharge
p32
F4
sVproposal,
p33
F2
sVpresent
p34
F3
sVurged,
p35
F1
sVunder
p36
F4
sVlord
p37
F1
sVdislike
p38
F1
sVwomen
p39
F2
sVor,
p40
F1
sVcook,
p41
F1
sVnecessary
p42
F1
sVshambles
p43
F1
sVpaying
p44
F1
sVunderstands
p45
F1
sVadvantage
p46
F2
sVwithout
p47
F4
sVvery
p48
F10
sVdesired
p49
F1
sVconscience
p50
F1
sVprudence
p51
F1
sVupwards,
p52
F1
sVfat
p53
F3
sVevery
p54
F3
sVaffairs,
p55
F1
sVearlier;
p56
F1
sVinstruments
p57
F1
sVchild,
p58
F2
sVchild.
p59
F1
sVcommon
p60
F3
sVpoor,
p61
F1
sVimmediately
p62
F1
sVmothers
p63
F2
sVdie
p64
F1
sVexpedients:
p65
F1
sVlist
p66
F1
sVaccidentally
p67
F1
sVnourishing
p68
F1
sVleave
p69
F3
sVtenderness
p70
F1
sVcarcass;
p71
F1
sVbordering
p72
F1
sVdeplorable
p73
F1
sVround
p74
F1
sVlandlords
p75
F1
sVprevent
p76
F1
sVprojectors,
p77
F1
sVwork
p78
F3
sVten
p79
F2
sVexchange;
p80
F1
sVme,
p81
F1
sVsentiments;
p82
F1
sVweddings
p83
F1
sVsex,
p84
F1
sVthink,
p85
F2
sVboots
p86
F1
sVseized,
p87
F1
sVpast
p88
F1
sVanswer,
p89
F1
sVunite
p90
F1
sVdesign
p91
F2
sVpractice.
p92
F1
sVothers,
p93
F1
sVdelivered
p94
F1
sVhelpless
p95
F1
sVsolid
p96
F1
sVcreatures
p97
F1
sVeven
p98
F3
sVwill
p99
F36
sVmilk,
p100
F1
sVsettlement
p101
F1
sVrelieving
p102
F1
sVappear
p103
F1
sVgiving
p104
F1
sVcarcass
p105
F2
sVeminent
p106
F1
sVpoison
p107
F1
sVpleased
p108
F1
sVhim.
p109
F1
sVdeer,
p110
F1
sVgaming
p111
F1
sVaged,
p112
F1
sVabove
p113
F4
sVdr.
p114
F1
sVobvious
p115
F1
sVmaintainance
p116
F1
sVprincipal
p117
F3
sVever
p118
F4
sVmethod
p119
F1
sVinducement
p120
F1
sVtold
p121
F2
sVbody
p122
F1
sVcollateral
p123
F1
sVmelancholy
p124
F1
sVfathers,
p125
F1
sVdegree
p126
F1
sVabsentees
p127
F1
sVnever
p128
F2
sVcertainly
p129
F2
sVfrench
p130
F1
sVnation's
p131
F1
sVbacks.
p132
F1
sVrefinement
p133
F2
sVbacks,
p134
F1
sVfarrow;
p135
F1
sVlet
p136
F3
sVothers
p137
F1
sVabroad
p138
F1
sVrent,
p139
F1
sVknife,
p140
F1
sVthrough,
p141
F1
sVlandlord,
p142
F1
sVboy
p143
F1
sVgreat
p144
F10
sVmale
p145
F1
sVdisagreeable,
p146
F1
sVthirty
p147
F1
sVmerchants,
p148
F1
sVhealthy
p149
F1
sVmy
p150
F21
sVplentifully
p151
F1
sVdublin
p152
F1
sVsoever
p153
F1
sVknown,
p154
F1
sVfond
p155
F1
sVadding
p156
F1
sVglympse
p157
F1
sVsincerity
p158
F1
sVsavages,
p159
F1
sVpick
p160
F1
sVusually
p161
F1
sVadvantages
p162
F2
sVmurdering
p163
F2
sVearnestly
p164
F1
sVfatten
p165
F1
sVfell
p166
F1
sVdistresses
p167
F1
sVreckoned
p168
F2
sVselves,
p169
F1
sVmothers,
p170
F1
sVbesides
p171
F3
sVfamily
p172
F2
sVobjection.
p173
F1
sVcalf,
p174
F1
sVapt
p175
F1
sVhighly
p176
F1
sVcounty
p177
F1
sVrelations.
p178
F1
sVparties,
p179
F1
sVdublin,
p180
F1
sVexpence.
p181
F1
sVdeny,
p182
F1
sVbent
p183
F1
sVbreed,
p184
F1
sVsalmanaazor,
p185
F1
sVwanted
p186
F1
sVfrom
p187
F13
sVwould
p188
F17
sVvalue.
p189
F1
sVsingle
p190
F2
sVtears
p191
F1
sVlessening
p192
F1
sValmost
p193
F1
sVdoubt
p194
F1
sVtherefore
p195
F9
sVrecommend
p196
F1
sVtaken
p197
F1
sVlength
p198
F1
sVthemselves
p199
F3
sVjonathan
p200
F1
sVmarkets
p201
F1
sVlessened
p202
F1
sVmore
p203
F6
sVsort
p204
F1
sVintroducing
p205
F1
sVbreeders
p206
F2
sVfeeding,
p207
F1
sVcontrive
p208
F1
sVmeat,
p209
F1
sVdressing
p210
F2
sVeffectual.
p211
F1
sVgentlemen,
p212
F1
sVgentlemen.
p213
F1
sVcontrary,
p214
F1
sVthree,
p215
F1
sVcautious
p216
F1
sVexcellent
p217
F2
sVcontinual
p218
F1
sVappointed
p219
F1
sVglad
p220
F1
sVcharity
p221
F1
sVme
p222
F4
sVmarket.
p223
F1
sVaccount
p224
F1
sVwere
p225
F3
sVthis
p226
F25
sVus.
p227
F1
sVus,
p228
F1
sVpigs,
p229
F1
sVpigs.
p230
F1
sVnothing:
p231
F1
sVremain
p232
F2
sVevils
p233
F1
sVnine
p234
F2
sVcan
p235
F9
sVlearn
p236
F2
sVmaking
p237
F3
sVarrive
p238
F1
sVdropt
p239
F1
sVsomething
p240
F3
sVconsistence,
p241
F1
sVnearest
p242
F1
sVreserved
p243
F1
sVnursing
p244
F1
sVfigure
p245
F2
sVgive
p246
F1
sVjoints
p247
F1
sVschool-boys,
p248
F1
sVproposed.
p249
F1
sVperfection;
p250
F1
sVhalf,
p251
F1
sVready
p252
F2
sVtenants,
p253
F1
sVwant
p254
F5
sVtenants.
p255
F1
sVfour-fifths
p256
F1
sVcultivate
p257
F1
sVtimes
p258
F2
sVcottagers,
p259
F1
sVdiseased,
p260
F1
sVadvancing
p261
F1
sVnative
p262
F3
sVmanner
p263
F1
sVcourt
p264
F1
sVever.
p265
F1
sVconversation
p266
F1
sVprovide
p267
F2
sVrotting,
p268
F1
sVtravel
p269
F1
sVsix
p270
F2
sVoff
p271
F1
sVpine
p272
F1
sVover-run,
p273
F1
sVreal,
p274
F1
sVhow
p275
F4
sVhot
p276
F1
sVcomputation.
p277
F1
sVfourth
p278
F2
sVreject
p279
F1
sVanswer
p280
F1
sVinstead
p281
F3
sVenumerated.
p282
F1
sVwinter.
p283
F1
sVstock
p284
F1
sVsalt,
p285
F2
sVmouths
p286
F1
sVmay
p287
F10
sVafter
p288
F3
sVeighty
p289
F1
sVfood,
p290
F1
sVstate,
p291
F1
sVmodest
p292
F1
sVlabourers,
p293
F3
sVdebt
p294
F1
sVsuch
p295
F3
sVsuck
p296
F1
sVplay-house
p297
F1
sVcuring
p298
F1
sVgrow
p299
F2
sVnutriments
p300
F1
sVa
F86
sVattempt
p301
F3
sVheart,
p302
F1
sVcommodity
p303
F1
sVcrowded
p304
F1
sVtenants
p305
F1
sVauthor
p306
F1
sVenemies,
p307
F1
sVdear,
p308
F1
sVrather
p309
F2
sVmaintain
p310
F1
sVso
p311
F14
sVskilful
p312
F1
sVallow
p313
F1
sVpractice)
p314
F1
sVtitle
p315
F1
sVgibbet,
p316
F1
sVorder
p317
F1
sVtalk
p318
F2
sVwould,
p319
F1
sVanonymous
p320
F1
sVfattest
p321
F1
sVproduces
p322
F1
sVindeed
p323
F3
sVmove
p324
F1
sVencouraged
p325
F1
sVsoon
p326
F2
sVyears
p327
F7
sVproduced
p328
F1
sVcourse
p329
F1
sVthrough
p330
F2
sVsame
p331
F1
sVgoods,
p332
F1
sVmanufacture:
p333
F1
sVcold
p334
F1
sVits
p335
F1
sVphysician,
p336
F1
sVbefore
p337
F3
sVhonesty,
p338
F1
sVtopinamboo:
p339
F1
sVthirdly,
p340
F1
sVfit
p341
F1
sVtill
p342
F2
sVchosen
p343
F1
sVexact
p344
F1
sVsale
p345
F2
sV28
p346
F1
sVwhereof
p347
F1
sVfair,
p348
F1
sVlate
p349
F1
sVabsence
p350
F1
sVthieves
p351
F1
sVvast
p352
F1
sVtaken:
p353
F1
sVannual
p354
F1
sVfreely
p355
F1
sVadmirable
p356
F1
sVbarbadoes.
p357
F1
sVhappened
p358
F1
sVit.
p359
F2
sVthen
p360
F1
sVthem
p361
F14
sVgood
p362
F8
sVgrievous
p363
F1
sVgreater
p364
F2
sVthereby
p365
F3
sVdyet,
p366
F1
sVfood
p367
F5
sVpropose
p368
F3
sVpractice
p369
F1
sVcover
p370
F1
sVnation
p371
F2
sVyear,
p372
F3
sVyear.
p373
F2
sVthey
p374
F28
sVhalf
p375
F1
sVnot
p376
F16
sVextent,
p377
F1
sVday
p378
F2
sVnor
p379
F7
sVfilth,
p380
F1
sVfrequented
p381
F1
sVname
p382
F1
sVexecutioner
p383
F1
sValways
p384
F3
sVmandarins
p385
F1
sVdegree,
p386
F1
sVoffer,
p387
F1
sVtrouble,
p388
F1
sVlabour,
p389
F1
sVreasonable
p390
F1
sVputting
p391
F1
sVfound
p392
F2
sVentirely
p393
F1
sVquarter
p394
F1
sVmean
p395
F1
sVintended.
p396
F1
sVschemes
p397
F1
sVstroling
p398
F1
sVdelicious
p399
F1
sVfarmers)
p400
F1
sVparts,
p401
F1
sVhouse
p402
F1
sVfish
p403
F1
sVadvantage,
p404
F1
sVpenalties.
p405
F1
sVintailing
p406
F1
sVscraps,
p407
F1
sVtherefore,
p408
F1
sVyield
p409
F1
sVmost,
p410
F1
sVyear
p411
F4
sVour
p412
F22
sVgirl
p413
F2
sVthing
p414
F1
sVas,
p415
F1
sVmen,
p416
F1
sVsustenance,
p417
F1
sVself,
p418
F1
sVomit,
p419
F1
sVcarcasses;
p420
F1
sVentertainment
p421
F1
sVprofit
p422
F2
sVconfess
p423
F2
sV'twas
p424
F1
sVfemales,
p425
F1
sVfemales.
p426
F1
sVtime,
p427
F1
sVkingdom,
p428
F7
sVday,
p429
F1
sVkingdom.
p430
F1
sVkingdom)
p431
F1
sVthrifty
p432
F1
sVfricasie,
p433
F1
sVis,
p434
F4
sVdespairing
p435
F1
sVshe
p436
F1
sVconfessed,
p437
F1
sVcomputed,
p438
F1
sVinhabitants
p439
F1
sVassured
p440
F4
sVcircumstance
p441
F1
sVmillion
p442
F3
sVdiffer
p443
F1
sVfortune,
p444
F1
sVfourteen
p445
F1
sVwho,
p446
F3
sVreason
p447
F1
sVpower,
p448
F1
sVborn.
p449
F1
sVemulation
p450
F1
sVmembers
p451
F1
sVput
p452
F4
sVmares
p453
F1
sVragoust.
p454
F1
sVscheme,
p455
F2
sVseventy
p456
F1
sVscheme.
p457
F1
sVreceipts
p458
F1
sVimportance.
p459
F1
sVsincere
p460
F1
sVparish,
p461
F1
sVlean,
p462
F1
sVrewards,
p463
F1
sVwives,
p464
F1
sVcould
p465
F5
sVask
p466
F1
sVpurpose,
p467
F1
sVhonest
p468
F2
sVturn
p469
F2
sVamerican
p470
F2
sVbeggars
p471
F3
sVdue
p472
F1
sVexpedient
p473
F1
sV(as
p474
F2
sVthink
p475
F4
sVfrequent
p476
F4
sVfirst
p477
F2
sVimportuning
p478
F1
sVdine
p479
F1
sValready
p480
F6
sVrender
p481
F1
sVauthor,
p482
F1
sVcrowns.
p483
F1
sVinvited
p484
F1
sVnumber
p485
F11
sVone
p486
F15
sVinstances
p487
F1
sVlong
p488
F2
sVanother
p489
F3
sVimpossible
p490
F1
sVidle,
p491
F1
sVimperial
p492
F1
sVquality
p493
F1
sVcomputed
p494
F2
sVcity
p495
F2
sVlittle
p496
F7
sVlaw
p497
F1
sVfair
p498
F1
sVthoughts,
p499
F2
sVtwenty
p500
F5
sVbreed
p501
F1
sVgirls
p502
F1
sVleast
p503
F7
sVplentiful
p504
F1
sVtheir
p505
F37
sVnation.
p506
F1
sVtoo
p507
F5
sVpoints.
p508
F1
sVhundred
p509
F8
sVopinion,
p510
F1
sVcontradiction
p511
F1
sVcirculate
p512
F1
sVjustly
p513
F1
sVincluded;
p514
F1
sVfirst,
p515
F2
sVthat
p516
F38
sVhappily
p517
F1
sVseason
p518
F1
sVexactly
p519
F1
sVserve
p520
F2
sVbreeders.
p521
F1
sVinstance,
p522
F1
sVbreeders,
p523
F1
sVcabbin-doors
p524
F1
sVpart
p525
F2
sVhoushold
p526
F1
sVbarrel'd
p527
F1
sVsomewhat
p528
F2
sVauthors
p529
F1
sVbreeders;
p530
F1
sVprodigious
p531
F1
sVbelieve
p532
F1
sVmaintaining
p533
F1
sVthan
p534
F6
sVannum,
p535
F3
sVvanity,
p536
F1
sVmercy
p537
F1
sVkind
p538
F2
sV12
p539
F1
sVlike,
p540
F1
sVthings
p541
F1
sVlivelihood,
p542
F1
sVtwelve;
p543
F1
sVold;
p544
F1
sVbeg
p545
F1
sVnations
p546
F1
sVpeople,
p547
F1
sVindividual
p548
F1
sVdeserving
p549
F1
sVfruits
p550
F1
sVmaimed;
p551
F1
sVencreaseth
p552
F1
sVeasy,
p553
F1
sVearth.
p554
F1
sVold,
p555
F6
sVand
p556
F115
sVcontinuance
p557
F1
sVenforced
p558
F1
sVincumbrance.
p559
F1
sVavoided
p560
F1
sVexercise,
p561
F1
sVwell
p562
F8
sVexperience,
p563
F1
sVturned
p564
F1
sVreader
p565
F1
sVservice:
p566
F1
sVbuy
p567
F1
sVmeasure,
p568
F1
sVadvising
p569
F1
sVhave
p570
F29
sVseem
p571
F1
sVtithes
p572
F1
sVencreased
p573
F1
sVany
p574
F7
sVhitherto
p575
F1
sVforced
p576
F1
sVbastard
p577
F1
sVstrength
p578
F1
sVhandicraft
p579
F1
sVpopish
p580
F1
sVdishes
p581
F2
sVbacon,
p582
F1
sVindustry,
p583
F1
sVconvenient
p584
F1
sVbeggars:
p585
F1
sVable
p586
F4
sVlandlord's
p587
F1
sVperpetual
p588
F1
sVagriculture;
p589
F1
sVbabes,
p590
F2
sVtake
p591
F3
sVwhich
p592
F18
sVexpected.
p593
F1
sVwanting
p594
F1
sVplease.
p595
F1
sVnation,
p596
F1
sVthat,
p597
F1
sVtowards
p598
F2
sVreared,
p599
F1
sVshall
p600
F6
sVreckon
p601
F1
sVireland,
p602
F2
sVimprobable
p603
F1
sVwhat
p604
F2
sVtaste.
p605
F1
sVemperor,
p606
F1
sVmost
p607
F7
sVage,
p608
F3
sVeight
p609
F2
sVfore
p610
F1
sVpleasure
p611
F1
sVcattle,
p612
F1
sVbeef:
p613
F1
sVpounds.
p614
F1
sVnutritive
p615
F1
sVgrave
p616
F1
sVvisionary
p617
F1
sVdemand
p618
F1
sVespecially
p619
F1
sVfeast,
p620
F1
sVprolifick
p621
F1
sVsubject,
p622
F1
sVdisease
p623
F1
sVsubject.
p624
F1
sVlooked
p625
F1
sVartificially
p626
F1
sVman
p627
F2
sVweigh
p628
F1
sVthousands.
p629
F1
sValone,
p630
F1
sVcame
p631
F1
sVlaws
p632
F1
sVsuccess,
p633
F1
sVparticularly
p634
F1
sVgrown,
p635
F1
sVproject,
p636
F1
sVcheat
p637
F1
sVagreed
p638
F1
sVsupported
p639
F1
sVcheap
p640
F1
sVfifty
p641
F2
sVpride,
p642
F1
sVbring
p643
F2
sVcloaths,
p644
F1
sVinfants,
p645
F2
sVfear
p646
F1
sVfine
p647
F2
sVfind
p648
F2
sVoccupation
p649
F1
sVtrue,
p650
F1
sVpromote
p651
F2
sVknowledge
p652
F1
sVadvanced
p653
F1
sVhumbly
p654
F2
sVgrievance;
p655
F1
sVless
p656
F1
sVhopeful
p657
F1
sVmany,
p658
F2
sVshould
p659
F2
sValms.
p660
F1
sVboiled;
p661
F1
sVblack
p662
F1
sVbuying
p663
F1
sVscrupulous
p664
F1
sVdigressed,
p665
F1
sVtrade,
p666
F2
sVhope
p667
F1
sVplump
p668
F2
sVdo
p669
F2
sVdistress,
p670
F1
sVhis
p671
F10
sVusual,
p672
F1
sVmiseries,
p673
F1
sVget
p674
F2
sVbeat
p675
F1
sValive,
p676
F2
sVbear
p677
F1
sVraiment
p678
F2
sVfamous
p679
F1
sVremedy
p680
F1
sVcannot
p681
F6
sVrest
p682
F2
sValtogether
p683
F1
sVduring
p684
F2
sVmatter,
p685
F2
sVstand,
p686
F1
sVhired
p687
F1
sVprime
p688
F2
sVlent,
p689
F1
sVdevoured
p690
F1
sVthousand,
p691
F1
sVscene
p692
F1
sVexportation
p693
F1
sVcountries
p694
F1
sVseldom
p695
F2
sVgenerally
p696
F1
sVhouses,
p697
F1
sVprotestants,
p698
F1
sVgloves
p699
F1
sVfriends,
p700
F1
sVthough
p701
F1
sVliable
p702
F2
sVfortunately
p703
F1
sVthem,
p704
F1
sVwhere
p705
F2
sVmaidens,
p706
F1
sVsecondly,
p707
F2
sVbrevity.
p708
F1
sVstreets,
p709
F1
sVstreets.
p710
F1
sVset
p711
F1
sVart
p712
F1
sVsheep,
p713
F1
sVcity,
p714
F1
sVbrought
p715
F1
sVprescribe,
p716
F1
sVcomparable
p717
F1
sVthis,
p718
F1
sVparsimony,
p719
F1
sVweather,
p720
F1
sVsee
p721
F2
sVfoal,
p722
F1
sVare
p723
F22
sVlives,
p724
F1
sVtender
p725
F1
sVstewed,
p726
F1
sVhumane
p727
F1
sVskill
p728
F1
sVprofessed
p729
F1
sVconcern
p730
F1
sVdanger
p731
F1
sVreasonably
p732
F1
sVcome.
p733
F1
sVfurniture,
p734
F1
sVvoluntary
p735
F1
sVhorrid
p736
F1
sVpenny;
p737
F1
sVaway
p738
F1
sVgentleman
p739
F2
sVluxury:
p740
F1
sVrejecting
p741
F1
sVcurate.
p742
F1
sVstate
p743
F1
sVquickest
p744
F1
sVyears,
p745
F1
sVteaching
p746
F1
sVuse
p747
F1
sVcottagers
p748
F1
sVprobably
p749
F1
sVneither
p750
F5
sVinnocent,
p751
F1
sVknowing
p752
F1
sVwe
p753
F9
sVmen
p754
F1
sVtables
p755
F1
sVsold
p756
F4
sVlover
p757
F1
sVdeliver
p758
F1
sVhowever
p759
F1
sVcrucified
p760
F1
sVrudiments
p761
F1
sVfactions,
p762
F1
sVsow
p763
F1
sVfifthly,
p764
F1
sVmerry
p765
F1
sVafter;
p766
F1
sVobserve,
p767
F1
sVuseless
p768
F1
sVpoorer
p769
F1
sVswift
p770
F1
sVtaken,
p771
F1
sVinevitable
p772
F1
sVpity
p773
F1
sVboth
p774
F1
sVaccident
p775
F1
sVlast
p776
F1
sVsacrificing
p777
F1
sVshop-keepers,
p778
F1
sV1729
p779
F1
sVmany
p780
F7
sVprocure
p781
F1
sVthence
p782
F1
sVparts
p783
F1
sVagainst
p784
F3
sVforeign
p785
F2
sVpropagation
p786
F1
sVroman
p787
F1
sVsexes
p788
F1
sVswine,
p789
F1
sVthose,
p790
F1
sVwhole
p791
F4
sVease
p792
F1
sVotherwise
p793
F1
sVyearly
p794
F2
sVamong
p795
F6
sVinclemencies
p796
F1
sVtough
p797
F1
sVtown,
p798
F2
sVprice,
p799
F1
sVdoubt,
p800
F1
sVwholly
p801
F1
sVyoungest
p802
F1
sVprospect
p803
F1
sVwalk
p804
F1
sVcloaths
p805
F1
sVfour,
p806
F1
sVlearning
p807
F1
sVmiscarriage.
p808
F1
sVconstant
p809
F2
sVthroughout
p810
F2
sVoffered
p811
F1
sVswine's
p812
F1
sVexpensive
p813
F1
sV'till
p814
F1
sVdestroyed
p815
F1
sVcloathing
p816
F1
sVall,
p817
F1
sVown,
p818
F2
sVcome
p819
F1
sVrepine
p820
F1
sVinformed
p821
F1
sVthree
p822
F3
sVbeen
p823
F7
sVwhom
p824
F1
sVmuch
p825
F5
sVseasoned
p826
F1
sVinterest
p827
F1
sVcertain
p828
F1
sVproposal
p829
F3
sVoverture,
p830
F1
sVquality,
p831
F1
sVbutchers
p832
F1
sVmisfortunes,
p833
F1
sVlife
p834
F1
sVpartly
p835
F1
sVinnocent
p836
F1
sVcondition.
p837
F1
sVpounds,
p838
F2
sVthousand
p839
F13
sVchair,
p840
F1
sVvermin,
p841
F1
sVnew
p842
F1
sVdangerous
p843
F1
sVmoment
p844
F1
sVmanner,
p845
F1
sVroasting
p846
F1
sVmajesty's
p847
F1
sVchild
p848
F6
sVwholesome
p849
F1
sVspirit
p850
F2
sVthose
p851
F6
sVvolunteer
p852
F1
sVsound
p853
F1
sVwearied
p854
F1
sVconfess,
p855
F1
sVhearty
p856
F1
sVepiscopal
p857
F1
sVthese
p858
F7
sVmight
p859
F4
sVcavan,
p860
F1
sVlessen
p861
F1
sVas
p862
F36
sVvalue
p863
F3
sVemploy
p864
F3
sVworse.
p865
F1
sVtemperance:
p866
F1
sVneat
p867
F1
sVdam,
p868
F1
sVcountry
p869
F3
sVsituation
p870
F1
sVparents,
p871
F2
sVart.
p872
F1
sVmales,
p873
F1
sVlove
p874
F1
sVdying,
p875
F1
sVhoping
p876
F1
sVapprehend
p877
F1
sVviolently
p878
F1
sVis
p879
F17
sVthus
p880
F2
sVit
p881
F22
sVperson,
p882
F1
sVsustenance
p883
F1
sVweighed
p884
F1
sVbegging;
p885
F1
sVpretender,
p886
F1
sVshame,
p887
F1
sVin
p888
F69
sVheels
p889
F1
sVreturn
p890
F1
sVrid
p891
F1
sVsaid,
p892
F3
sVif
p893
F5
sVgone
p894
F1
sVperhaps
p895
F2
sVsince
p896
F1
sVpregnancy,
p897
F1
sVgrant
p898
F1
sVperform
p899
F1
sVpay
p900
F3
sVmake
p901
F8
sVcustom
p902
F1
sVpractice,
p903
F1
sVadmit
p904
F1
sVwho
p905
F21
sVwherein
p906
F1
sVgentlemen
p907
F2
sVpapists
p908
F1
sVcharge.
p909
F1
sVrags,
p910
F1
sVdeference
p911
F1
sVseveral
p912
F2
sVvintners
p913
F1
sVsterling
p914
F1
sVsell
p915
F2
sVboiled
p916
F1
sVfarmers,
p917
F1
sVmaturely
p918
F2
sVprofit,
p919
F1
sVconceived
p920
F1
sVupon
p921
F13
sVeffect
p922
F1
sVcensure
p923
F1
sVcouple,
p924
F1
sVproficiency
p925
F1
sVpersons
p926
F3
sVguests,
p927
F1
sVexpensiveness
p928
F1
sVpurpose
p929
F1
sVstatue
p930
F1
sVsupposing
p931
F1
sVfrequently
p932
F1
sVdainty;
p933
F1
sVeating;
p934
F1
sVthoughts
p935
F2
sVdestruction
p936
F1
sValas!
p937
F1
sVexpedients,
p938
F1
sVspain,
p939
F1
sVget,
p940
F1
sVshillings,
p941
F1
sVrepeat,
p942
F1
sVcommon-wealth,
p943
F1
sVi
F54
sVjews,
p944
F1
sVhumble
p945
F1
sVpart,
p946
F1
sVexportation,
p947
F1
sV(although
p948
F2
sVperson
p949
F1
sVwhich,
p950
F5
sVmother
p951
F3
sVthe
p952
F169
sVabortions,
p953
F1
sVlandlords,
p954
F2
sVgrossly
p955
F1
sVjustify
p956
F1
sVsummer
p957
F1
sVfineries
p958
F1
sVmortals,
p959
F1
sVlads
p960
F1
sVjust
p961
F3
sVflesh
p962
F3
sVbeing
p963
F16
sVmay,
p964
F1
sVdiscoursing
p965
F1
sVmistaken
p966
F1
sVflea
p967
F1
sV(i
p968
F1
sVroasted,
p969
F1
sVroasted
p970
F1
sVuseful
p971
F1
sVhouses
p972
F1
sVlately
p973
F1
sVyet
p974
F1
sVhappiness
p975
F1
sVobjection,
p976
F1
sVbut,
p977
F1
sVtolerably
p978
F1
sVnow
p979
F6
sVwork,
p980
F3
sVladies,
p981
F1
sVregarded
p982
F1
sVlaplanders,
p983
F1
sVhelp
p984
F1
sVexcept
p985
F2
sVknew
p986
F1
sVimprovement
p987
F1
sVstudious
p988
F1
sVvenison
p989
F1
sVparents
p990
F6
sVglutted
p991
F1
sVeasy
p992
F1
sVhind
p993
F1
sVpapists,
p994
F1
sVinfant's
p995
F1
sVanimosities
p996
F1
sVremaining
p997
F2
sVkick
p998
F1
sVbuild
p999
F1
sVkingdom
p1000
F6
sVago,
p1001
F1
sVfourthly,
p1002
F1
sVgroat
p1003
F1
sVcouple
p1004
F1
sVproviding
p1005
F1
sVchild-bearing.
p1006
F1
sVwives
p1007
F2
sVpossibly
p1008
F1
sVsubmission,
p1009
F1
sVfive
p1010
F1
sVdealing,
p1011
F1
sVburden
p1012
F1
sVmales;
p1013
F1
sVconfined
p1014
F1
sVusing
p1015
F1
sVentertainment.
p1016
F1
sVdesire
p1017
F3
sVloss
p1018
F1
sVgranted,
p1019
F1
sVfortune
p1020
F1
sVlike
p1021
F3
sVpounds
p1022
F3
sVpublick.
p1023
F1
sVpublick,
p1024
F3
sVcountry)
p1025
F1
sVcountry,
p1026
F9
sVengland.
p1027
F1
sVannually
p1028
F2
sVtrue
p1029
F1
sVthemselves:
p1030
F1
sVeither
p1031
F3
sVpopular
p1032
F1
sVbecome
p1033
F2
sVcruelty,
p1034
F1
sVtable.
p1035
F1
sVassemblies
p1036
F1
sVtwelve
p1037
F1
sVbeneficial
p1038
F1
sVbecause
p1039
F3
sVold
p1040
F1
sVmethods
p1041
F1
sVpeople
p1042
F3
sVshillings
p1043
F6
sVit,
p1044
F2
sVcrown
p1045
F1
sVmotive
p1046
F1
sVborn
p1047
F3
sVstrongest
p1048
F1
sVmiscarry,
p1049
F1
sVbesides,
p1050
F1
sVdear
p1051
F1
sVpain
p1052
F1
sVsterling,
p1053
F1
sVstir
p1054
F1
sVlondon,
p1055
F2
sVprovided
p1056
F2
sVacquaintance
p1057
F2
sVwomen,
p1058
F1
sVfor
p1059
F44
sVthousand.
p1060
F1
sVavoid
p1061
F1
sVinhuman
p1062
F1
sVflesh,
p1063
F2
sVexceeding
p1064
F1
sVbest
p1065
F2
sVsupply'd
p1066
F1
sVwomen:
p1067
F1
sVmonth,
p1068
F1
sVcompute
p1069
F1
sVwife
p1070
F1
sVlastly,
p1071
F1
sVquitting
p1072
F1
sVbe
p1073
F51
sVpepper
p1074
F1
sVobject
p1075
F1
sVbold
p1076
F1
sVtaxing
p1077
F1
sVcorn
p1078
F1
sVprobationers:
p1079
F1
sVvirtues
p1080
F1
sVformosa,
p1081
F1
sVsix,
p1082
F1
sVvain,
p1083
F1
sVsaleable
p1084
F1
sValthough
p1085
F3
sVworthy
p1086
F1
sVrent
p1087
F1
sVmedium,
p1088
F1
sV(where
p1089
F1
sVpound:
p1090
F1
sVsubtract
p1091
F2
sVby
p1092
F35
sVworld.
p1093
F1
sVon
p1094
F7
sVabout
p1095
F5
sVgoods
p1096
F1
sVdines
p1097
F1
sVeat
p1098
F1
sVof
p1099
F137
sVpleased,
p1100
F1
sVmonths
p1101
F1
sVaddition
p1102
F1
sVmust
p1103
F1
sVgreatly
p1104
F1
sVmarch,
p1105
F1
sVincur
p1106
F1
sVcheaper)
p1107
F1
sVintroduced
p1108
F1
sVconsequently
p1109
F2
sVor
p1110
F33
sVcarcasses
p1111
F1
sVequally
p1112
F2
sVown
p1113
F8
sVplump,
p1114
F1
sVfollowed
p1115
F1
sVhope,
p1116
F1
sVunknown.
p1117
F1
sVinto
p1118
F4
sVwithin
p1119
F1
sVmarried
p1120
F1
sVchristenings,
p1121
F1
sVunjustly)
p1122
F1
sVtwo
p1123
F8
sVfor;
p1124
F1
sVdeath,
p1125
F1
sVmanufacture.
p1126
F1
sVfor?
p1127
F1
sVfemale
p1128
F1
sVlawful
p1129
F1
sVroads
p1130
F1
sVcattle
p1131
F1
sVvaluable
p1132
F1
sVoften
p1133
F1
sVnursed,
p1134
F2
sVprudent
p1135
F1
sVadditional
p1136
F1
sVher
p1137
F2
sVendeavouring
p1138
F1
sVsupport
p1139
F1
sVthere
p1140
F8
sVquestion
p1141
F1
sVdisposed
p1142
F1
sVfast
p1143
F1
sVfight
p1144
F1
sVintention
p1145
F1
sVcows
p1146
F1
sVway
p1147
F1
sVwanting;
p1148
F1
sVbodies
p1149
F1
sVwas
p1150
F6
sVmaterials
p1151
F1
sVstarve
p1152
F1
sVhead
p1153
F1
sVonly
p1154
F6
sVoffering
p1155
F3
sVoffer
p1156
F3
sVsome
p1157
F8
sVland:
p1158
F1
sVannum
p1159
F1
sVbut
p1160
F8
sVprofession,
p1161
F1
sVproperly
p1162
F1
sVgain
p1163
F1
sVsolar
p1164
F2
sVchildren.
p1165
F1
sVcatholick
p1166
F1
sVchildren,
p1167
F9
sVhighest
p1168
F1
sVwith
p1169
F12
sVconsiderable
p1170
F1
sVconsideration,
p1171
F1
sVhe
p1172
F6
sVnourishment,
p1173
F1
sVmade
p1174
F3
sVwise
p1175
F2
sVfull
p1176
F1
sVwhether
p1177
F2
sVfamine,
p1178
F1
sVfortunes,
p1179
F1
sVup
p1180
F3
sVus
p1181
F2
sVrich.
p1182
F1
sVrags
p1183
F2
sVgrowth
p1184
F2
sVcustomers
p1185
F1
sVfifteen,
p1186
F1
sVnourishment:
p1187
F1
sVacting
p1188
F1
sVinfants
p1189
F3
sVmayor's
p1190
F1
sVpiece
p1191
F1
sVeffect;
p1192
F1
sVdish,
p1193
F2
sVcare
p1194
F1
sVpassenger
p1195
F1
sVfriend,
p1196
F4
sVmoney
p1197
F3
sVtaste
p1198
F2
sVlikewise
p1199
F2
sVcheap,
p1200
F1
sVcontribute
p1201
F1
sVam
p1202
F3
sVstock,
p1203
F1
sVan
p1204
F12
sVbreast.
p1205
F1
sVproper
p1206
F1
sVarms,
p1207
F1
sVat
p1208
F28
sVhome
p1209
F2
sVfamilies
p1210
F1
sVdressed,
p1211
F1
sVagain
p1212
F1
sVrenowned
p1213
F1
sVprotested
p1214
F1
sVraised
p1215
F1
sVmeetings,
p1216
F1
sVrequire)
p1217
F1
sVno
p1218
F12
sVobjection
p1219
F1
sVdeserve
p1220
F1
sVwhereas
p1221
F1
sVcommodity,
p1222
F1
sVwhen
p1223
F7
sVpublick
p1224
F3
sVpreventing
p1225
F1
sVpoliticians
p1226
F1
sVother
p1227
F8
sVsubsistence
p1228
F1
sVdisobliging
p1229
F1
sVout
p1230
F2
sVsufficient
p1231
F1
sVparticular
p1232
F1
sVpoor
p1233
F5
sVpatriot,
p1234
F1
sVsavage
p1235
F1
sVoblige
p1236
F1
sVoppression
p1237
F1
sVstealing
p1238
F1
sVtables;
p1239
F1
sVbeggar's
p1240
F1
sVstay
p1241
F2
sVprofess,
p1242
F1
sVsure
p1243
F1
sVesteem,
p1244
F1
sVimportant
p1245
F1
sVutterly
p1246
F3
sVpretender
p1247
F1
sVmagnificence
p1248
F1
sVtaverns,
p1249
F1
sVunless
p1250
F1
sVvein
p1251
F1
sVbulk
p1252
F1
sVlonger
p1253
F1
sVmarriage,
p1254
F2
sVage
p1255
F1
sVobserved,
p1256
F1
sVshall,
p1257
F1
sVwhereby
p1258
F1
sVnew,
p1259
F1
sVproposed
p1260
F1
sVimpossibility
p1261
F1
sVpersonal
p1262
F1
sVdesponding
p1263
F1
sVtime
p1264
F4
sVfar
p1265
F1
sVgoodness,
p1266
F1
sVresolution
p1267
F1
sVhaving
p1268
F5
sVminister
p1269
F1
s.