ccollections
defaultdict
p1
(c__builtin__
float
p2
tRp3
Vsees.
p4
F1
sVworms."
p5
F1
sVgrimaces,
p6
F1
sVfoul
p7
F1
sVfour
p8
F7
sVconsidered.
p9
F1
sVlaments.
p10
F1
sVpreface
p11
F2
sVuntold.
p12
F1
sVvossius
p13
F1
sVlooking
p14
F4
sVit--there
p15
F1
sVviii.,
p16
F1
sVmutinies
p17
F1
sVinheritance?
p18
F1
sVlord
p19
F6
sVpre-dominant
p20
F1
sVplaced
p21
F5
sVsinking
p22
F1
sVspider.
p23
F1
sVspider,
p24
F5
sVwood,
p25
F4
sVadvice.
p26
F1
sVadvice,
p27
F3
sVimpotent.
p28
F1
sVfingers.
p29
F1
sVbringing
p30
F2
sVrancour
p31
F1
sVdisturb
p32
F3
sVscholar
p33
F2
sVinward,
p34
F1
sVseven;
p35
F1
sVfeigned:
p36
F1
sVaccidents,
p37
F1
sVstars.
p38
F1
sVstars,
p39
F4
sVcassock
p40
F1
sVstars'
p41
F1
sVseven,
p42
F3
sVadmitted:
p43
F1
sVshelves,
p44
F1
sVshelves.
p45
F1
sVher,
p46
F11
sVhanging
p47
F1
sVbacon
p48
F2
sVher:
p49
F1
sVrusty
p50
F2
sVvaliant
p51
F6
sVadmitted,
p52
F1
sVdoves,
p53
F2
sVloathing
p54
F1
sVunderstood;
p55
F1
sVerrors
p56
F4
sVnature,
p57
F10
sVnature.
p58
F1
sV(which
p59
F2
sVreport,
p60
F1
sVreport.
p61
F1
sVunderstood,
p62
F4
sVdesigning
p63
F1
sVadmiral
p64
F2
sVnature:
p65
F1
sVnature;
p66
F3
sVglass;
p67
F2
sVwotton's
p68
F1
sVhero
p69
F3
sVglass?
p70
F1
sVreasons,
p71
F3
sVup,
p72
F3
sVhere
p73
F25
sVatoms
p74
F1
sVsoot,
p75
F1
sVsuppliant,
p76
F1
sVtitles,
p77
F1
sVmeteors;
p78
F1
sVsaints,"
p79
F1
sVsubstance
p80
F3
sVcontribute.
p81
F1
sVunwillingness
p82
F1
sVpretensions
p83
F3
sVclimbed
p84
F2
sV"why
p85
F1
sVreports
p86
F2
sVcontroversy
p87
F2
sVpieces,
p88
F1
sV"oh,
p89
F1
sVpieces.
p90
F1
sVtransfixed
p91
F1
sVmilitary
p92
F1
sV"who
p93
F1
sVerror.
p94
F1
sVcircumstance,
p95
F1
sVgolden
p96
F1
sVdivide
p97
F1
sVexplained
p98
F1
sVcivilities
p99
F1
sVbrought
p100
F12
sVbring,
p101
F1
sVforbore
p102
F1
sVobligation
p103
F1
sVwell-inclined
p104
F1
sVfame.
p105
F1
sVcommon.
p106
F1
sVfame,
p107
F3
sVrevenue,
p108
F2
sVspoke
p109
F10
sVrevenue.
p110
F1
sVreverenced
p111
F1
sVmusic
p112
F1
sVtherefore
p113
F24
sVfootman.
p114
F1
sVmystic
p115
F1
sVstrike
p116
F1
sVsermons
p117
F1
sVuntil
p118
F4
sVhigher,
p119
F1
sVdry,
p120
F1
sVwoodcocks,
p121
F1
sVholy
p122
F1
sVrelax
p123
F1
sVbrings
p124
F2
sVperson."
p125
F1
sVwhirling
p126
F1
sVhurt
p127
F1
sVglass
p128
F2
sVtying
p129
F1
sVtobit
p130
F2
sVmidst
p131
F2
sVhold
p132
F6
sVcircumstances
p133
F6
sVbrows,
p134
F1
sVanimals,
p135
F3
sVpursue
p136
F3
sVsupply.
p137
F1
sVaccomplishment
p138
F3
sVkettle,
p139
F1
sVchoice.
p140
F1
sVreverence.
p141
F1
sVrevenues
p142
F1
sVexample
p143
F4
sVconstant,
p144
F2
sV1782,
p145
F1
sVhousehold
p146
F4
sVperfection;
p147
F1
sVexpressed,
p148
F1
sVcaution
p149
F5
sVreviewing
p150
F1
sVwant
p151
F17
sV"sprout,"
p152
F1
sVtwine,
p153
F1
sVyouth;
p154
F1
sVcomplaining
p155
F2
sVtravel
p156
F1
sVfeature
p157
F2
sVnymph,
p158
F3
sVmachine
p159
F1
sVhow
p160
F66
sVhot
p161
F2
sVhappened--that
p162
F1
sVyouth,
p163
F1
sVwin,
p164
F1
sVbeauty
p165
F6
sVchameleon,
p166
F1
sVapocrypha
p167
F1
sVmodest
p168
F2
sVdestined
p169
F2
sVgrew,
p170
F4
sVgrew.
p171
F1
sVendeavoured
p172
F1
sVrevolt
p173
F2
sVbellarmine;
p174
F1
sVnymphs
p175
F6
sVotherwise;
p176
F1
sVkeeps
p177
F5
sVaping
p178
F1
sVpoliter
p179
F1
sVnonsensical
p180
F1
sVwing
p181
F2
sVwind
p182
F3
sVdisengaging
p183
F1
sVprebendary
p184
F1
sVschool,
p185
F2
sVdreamed
p186
F1
sVeffect,
p187
F1
sVaspersion,
p188
F1
sVwhizzing
p189
F1
sVadvice;
p190
F1
sVjudgment-seat
p191
F1
sVthrone,
p192
F4
sVplayhouse
p193
F1
sVadmirably
p194
F1
sVproud,
p195
F1
sVingredients,
p196
F2
sVdied.
p197
F1
sVfit
p198
F10
sVdied,
p199
F2
sVunforeseen
p200
F1
sVimitators,
p201
F1
sVworms,
p202
F1
sVdistinguishing
p203
F1
sVnobler
p204
F2
sVhidden
p205
F1
sVadmirable
p206
F2
sVeasier
p207
F2
sVrepresent,
p208
F1
sVgrievous
p209
F2
sVeffects
p210
F5
sVinterrupt
p211
F3
sVbeaux
p212
F1
sVsixteen
p213
F1
sVsilver
p214
F1
sVglutted
p215
F1
sVprize
p216
F1
sVdissolution,
p217
F1
sVfancies,
p218
F1
sV_.
p219
F1
sVintended,
p220
F1
sVbrain,
p221
F3
sVwhig
p222
F3
sVspider
p223
F5
sValmanack-makers_.
p224
F1
sVfarnham,
p225
F1
sVbetwixt,
p226
F1
sVfortnight
p227
F1
sVallay
p228
F1
sVborne
p229
F3
sVmisfortune
p230
F1
sVitch
p231
F1
sVat,
p232
F1
sVexcepting
p233
F1
sVadapt
p234
F2
sVseduce;
p235
F1
sVat;
p236
F2
sVborn:
p237
F1
sVassured
p238
F3
sVwritten
p239
F5
sVthreatened
p240
F1
sVsurveys
p241
F1
sVfaculties
p242
F1
sVwebs,
p243
F1
sVbasest
p244
F1
sVperhaps,
p245
F1
sVstella's
p246
F15
sV_here
p247
F1
sVpurpose
p248
F1
sV17,
p249
F1
sVstairs;
p250
F1
sVwasp
p251
F1
sVhooks,
p252
F1
sVspinning
p253
F1
sVinfused
p254
F1
sVreward,
p255
F1
sVmarry.
p256
F1
sVservice
p257
F4
sVcircumspection,
p258
F2
sVfifty
p259
F4
sVengagement
p260
F3
sVnation,
p261
F4
sVnation.
p262
F2
sVmaster
p263
F6
sVblossoms
p264
F1
sVlustre
p265
F1
sVdisdain'd
p266
F1
sVlegs
p267
F2
sVsure,
p268
F2
sVranging
p269
F1
sVhay,
p270
F1
sVlisten
p271
F2
sVmaid:
p272
F1
sVwas;
p273
F1
sVmorals,
p274
F1
sVwisdom
p275
F14
sVwas,
p276
F8
sVwas.
p277
F1
sV_the
p278
F1
sVsurer
p279
F1
sVperil
p280
F1
sVshowed
p281
F4
sVcoward
p282
F1
sVtree
p283
F3
sVsecond
p284
F6
sVidly
p285
F1
sVproject
p286
F8
sVidle
p287
F3
sVendure
p288
F3
sVfeeling
p289
F1
sVold,
p290
F9
sVlivelihood;
p291
F1
sVgroaning
p292
F1
sVmamalukes,
p293
F1
sVlongs
p294
F1
sV19th,
p295
F1
sVcontroversy,
p296
F3
sVcontroversy.
p297
F1
sVwell,
p298
F3
sVwell.
p299
F1
sVguessed,
p300
F1
sV(said
p301
F1
sVdozen
p302
F2
sVaffairs
p303
F13
sVwholesome
p304
F1
sVbrains),
p305
F1
sVuncouth
p306
F1
sVstroked,
p307
F1
sVdrunk.
p308
F1
sVhelmet,
p309
F1
sVdoors
p310
F3
sVfast;
p311
F1
sVfast:
p312
F1
sVcorn,
p313
F1
sVwithdraw
p314
F1
sVshall
p315
F51
sVobject
p316
F1
sVscumming;
p317
F1
sVbelieves,
p318
F2
sVwench,
p319
F1
sVmouth
p320
F1
sVletter
p321
F1
sVlong,
p322
F5
sVshalt
p323
F5
sVfears;
p324
F1
sVepisode
p325
F1
sVdoor,
p326
F1
sVcamp
p327
F1
sVnettle
p328
F1
sVscream
p329
F1
sVcame
p330
F27
sVsaying
p331
F1
sVgives,
p332
F1
sVinsects
p333
F1
sVoaths
p334
F1
sVrise,
p335
F1
sVlessons
p336
F4
sVfortitude;
p337
F1
sVbusy
p338
F5
sVvexations
p339
F1
sVceased.
p340
F1
sVmaids,
p341
F1
sVrepose.
p342
F1
sVtheme
p343
F1
sVtouched
p344
F2
sVrich
p345
F4
sVmend
p346
F4
sVhaste,
p347
F2
sVgreen.
p348
F1
sVlies;
p349
F1
sVspheres,
p350
F1
sVplato
p351
F4
sVforemost
p352
F1
sVlies.
p353
F2
sVlives;
p354
F1
sVlies,
p355
F4
sValtogether
p356
F6
sVnimblest
p357
F1
sVvanessa's
p358
F9
sVmen;
p359
F1
sVthem?
p360
F1
sVthem;
p361
F10
sVproduced,
p362
F2
sVpatch
p363
F1
sVmen,
p364
F11
sVmen.
p365
F5
sVthem.
p366
F11
sVthem,
p367
F16
sVself-love.
p368
F1
sVmien,
p369
F1
sVblew
p370
F1
sVfair
p371
F10
sVsapless
p372
F1
sVsun-dial
p373
F1
sVfail
p374
F4
sVfain
p375
F4
sVbest
p376
F10
sVestate,
p377
F1
sVlodgings,
p378
F1
sVscore
p379
F2
sVscorn
p380
F6
sVwitty,
p381
F1
sVpreserve
p382
F7
sVclaws
p383
F2
sVmen
p384
F64
sVnature
p385
F19
sVlogger-heads,
p386
F1
sVframe.
p387
F1
sVpossess."
p388
F1
sV_et
p389
F1
sVpity
p390
F3
sVdescribed,
p391
F1
sVaccident
p392
F6
sVsacrificing
p393
F1
sVdisdain
p394
F1
sVearth.
p395
F2
sVconclusions
p396
F2
sVcorrector
p397
F1
sVphyllis,
p398
F1
sVscandalised
p399
F1
sVambition,
p400
F1
sVadventured
p401
F1
sVstealth,
p402
F1
sVasked
p403
F4
sVeradicate
p404
F1
sVnay,
p405
F2
sVlibyan
p406
F1
sVspeculative,
p407
F1
sVputtenham,
p408
F1
sVdoubt,
p409
F1
sVvain
p410
F9
sVmoney,
p411
F1
sVblending
p412
F1
sVharangue,
p413
F1
sVcommands,
p414
F1
sVthomas.
p415
F1
sVadvances,
p416
F1
sVthomas,
p417
F1
sV.
F57
sVmuch
p418
F69
sVlife
p419
F21
sVspit
p420
F1
sVchild
p421
F5
sVkilroot,
p422
F1
sVworked
p423
F1
sVdoth
p424
F3
sVerst
p425
F1
sVcommerce
p426
F1
sVoldham,
p427
F1
sVangry,
p428
F2
sVeaster
p429
F1
sVtried,
p430
F2
sVemploy
p431
F2
sVglass-house
p432
F1
sV"dr.
p433
F1
sVink,
p434
F1
sVtried;
p435
F1
sVscum
p436
F1
sVplayed
p437
F2
sVsaid;
p438
F2
sVenrolled:
p439
F1
sVtop,
p440
F2
sVsouth,
p441
F1
sVsaid,
p442
F12
sVbounteous
p443
F1
sVtrusted
p444
F1
sVdevoured,
p445
F1
sVthirty-eight;
p446
F1
sVthings
p447
F33
sVdeaf,
p448
F1
sVmaxim,
p449
F1
sVjuly,
p450
F1
sVsplit
p451
F4
sVpassed,
p452
F2
sVbid
p453
F1
sVfairly
p454
F6
sVthereof
p455
F1
sVpermit
p456
F1
sVtops
p457
F1
sVdexterous
p458
F2
sVmarched
p459
F2
sVi'm
p460
F6
sValas!
p461
F2
sVhonour_;
p462
F1
sVdiet,
p463
F1
sV_curis
p464
F1
sVhon.
p465
F2
sVmaxims
p466
F3
sVreplied,
p467
F2
sVwhich,
p468
F37
sVthing,
p469
F2
sVchurch,"
p470
F1
sVlucan
p471
F4
sVill-judging
p472
F1
sVfittest
p473
F2
sVopinions
p474
F4
sVrational,
p475
F2
sVpoet's
p476
F1
sVforsaken
p477
F1
sVmaketh
p478
F1
sVprecedency,
p479
F1
sVplight
p480
F1
sVsucceeding
p481
F1
sVlate)
p482
F1
sVenters
p483
F2
sVease
p484
F2
sVhad
p485
F133
sVadvancement
p486
F2
sVbeloved
p487
F3
sVhas
p488
F25
sVtemple's_,
p489
F1
sVgrey;
p490
F1
sVhate,
p491
F1
sVopinion;
p492
F1
sVsleep?
p493
F1
sVdisagreement
p494
F1
sVpossible
p495
F1
sVfirmer
p496
F1
sVpossibly
p497
F3
sVgrey,
p498
F1
sVbirth
p499
F3
sVsleep.
p500
F2
sVopinion.
p501
F1
sVtolerable
p502
F1
sVopinion,
p503
F3
sVdesire
p504
F6
sVswelled
p505
F2
sVfurbished
p506
F1
sVbaucis,
p507
F1
sVremind
p508
F1
sVspoiled.
p509
F1
sVworse,
p510
F1
sVattorney
p511
F1
sVright
p512
F11
sVold
p513
F38
sVcrowd
p514
F5
sVpeople
p515
F18
sVleft?
p516
F1
sVcrown
p517
F2
sVprevaileth,
p518
F1
sVleft,
p519
F2
sVleft.
p520
F1
sVcreep
p521
F1
sVenemies
p522
F3
sVfor
p523
F347
sVbottom
p524
F3
sVvotaries
p525
F1
sVwitty
p526
F2
sVfoe
p527
F4
sVcitizen,
p528
F1
sVshrivelled
p529
F1
sVshakes
p530
F1
sVbrutorum_.
p531
F1
sVyoke
p532
F1
sVdauphin,
p533
F1
sVarid,
p534
F1
sVlosing
p535
F3
sVmemorable
p536
F1
sVvenom,
p537
F1
sVimpendent
p538
F1
sVgrievously
p539
F2
sVo
F16
sVtwain,
p540
F1
sVtwain.
p541
F1
sVmeddle
p542
F1
sVimperfect,
p543
F1
sVconsulting
p544
F2
sVuniversity,
p545
F2
sVfulfilled,
p546
F1
sVson
p547
F7
sVthankful
p548
F1
sVmagazines
p549
F1
sVfurnishing
p550
F2
sVsow
p551
F1
sVtalent;
p552
F1
sVreducing
p553
F2
sVeast
p554
F1
sVdue,
p555
F1
sVdespised
p556
F1
sVfabric
p557
F1
sVsupport
p558
F6
sVconstantly
p559
F1
sVnova
p560
F1
sVtame
p561
F2
sVdeclares,
p562
F1
sVmartis_,
p563
F1
sVgreatness
p564
F1
sVfletas,
p565
F1
sVhappy
p566
F5
sVcirculate
p567
F1
sVinsurrection
p568
F1
sVwaistcoat
p569
F1
sVoffer
p570
F9
sVhurt."
p571
F1
sVoft,
p572
F1
sVso,
p573
F4
sVso.
p574
F2
sVright,
p575
F3
sVbrute,
p576
F1
sVdefendant;
p577
F1
sVanabaptists,
p578
F1
sVraise;
p579
F1
sVso?
p580
F1
sVhall.
p581
F1
sVnov.
p582
F1
sVduel
p583
F1
sVhumbled
p584
F1
sVignorance.
p585
F1
sVdespise.
p586
F1
sVinside
p587
F1
sVdespise,
p588
F1
sVstrongest
p589
F1
sVconsidered
p590
F5
sVjan.
p591
F1
sVtorturing
p592
F1
sVdespise?
p593
F1
sVlater
p594
F1
sVproved
p595
F3
sVencounters.
p596
F1
sVpriestess,
p597
F1
sVmeagre
p598
F1
sVmoderns
p599
F13
sVtreatise,
p600
F1
sVminds,
p601
F1
sVactor
p602
F1
sVrepublic
p603
F1
sVguineas
p604
F1
sVsmell
p605
F1
sVexpose
p606
F1
sVdavila,
p607
F1
sV't
p608
F1
sVintend
p609
F2
sVslaves
p610
F1
sVhawked
p611
F1
sVmodern,
p612
F1
sVtrouble
p613
F1
sVpersecution
p614
F1
sVregent's
p615
F1
sVservants.
p616
F1
sVfastened
p617
F2
sVcrown:
p618
F1
sVcommended.
p619
F1
sVambrosia,
p620
F1
sVcrown,
p621
F1
sVtime
p622
F48
sVorrery,
p623
F1
sVburdeneth
p624
F1
sVgown
p625
F2
sVwhoever
p626
F10
sVbickerstaff
p627
F3
sVchair
p628
F2
sVjust,
p629
F2
sVschoolboys
p630
F1
sVload,
p631
F1
sVcopperas,
p632
F1
sVbehave
p633
F2
sVadmired;
p634
F1
sVcopperas;
p635
F1
sVglad,"
p636
F1
sVchild;
p637
F1
sVolympus
p638
F1
sVchoice
p639
F4
sVwhile,
p640
F3
sVchild,
p641
F1
sVchild.
p642
F2
sV1701
p643
F1
sVtoland,
p644
F2
sVpoor,
p645
F2
sVunhallowed
p646
F1
sVpatshaws,
p647
F1
sVphrases,
p648
F2
sVassigned.
p649
F1
sVleave
p650
F14
sVsettle
p651
F2
sVberkeley,
p652
F1
sVskewer
p653
F1
sVanswers,
p654
F2
sVfamed
p655
F2
sVprevent
p656
F4
sVspiritual
p657
F2
sVthinkers
p658
F1
sVbe
p659
F314
sVprediction
p660
F5
sVadorns
p661
F1
sV_july_.
p662
F1
sVcleanliness
p663
F1
sVdust;
p664
F1
sVcelebrated
p665
F2
sVcurrent
p666
F3
sVsaw,
p667
F1
sVall-powerful
p668
F1
sVsaw.
p669
F1
sVfalling
p670
F4
sVdust,
p671
F2
sVdust.
p672
F1
sVadorn,
p673
F1
sVastrologers,
p674
F3
sVclimbs
p675
F1
sVblunted
p676
F2
sVunderstanding
p677
F4
sVshortened
p678
F1
sVherself:--
p679
F1
sVprovidence,
p680
F1
sVapartments;
p681
F1
sValone
p682
F10
sValong
p683
F3
sVpassengers
p684
F1
sVacquisitions,
p685
F1
sVlurks.
p686
F1
sVstudied
p687
F1
sVwherever
p688
F3
sVcommonly
p689
F4
sVdegrees,
p690
F1
sVspinnet,
p691
F1
sVstudies
p692
F4
sVlove
p693
F22
sVrelations:
p694
F1
sVmelodious
p695
F1
sVvanities
p696
F1
sVdivines,
p697
F1
sVprefer
p698
F1
sVbloody
p699
F3
sVlogically
p700
F1
sVcrime
p701
F1
sVsuperiority,
p702
F1
sVfawn,
p703
F1
sVpositive
p704
F1
sVvalue,
p705
F1
sVpredictions
p706
F6
sVbelieve,
p707
F2
sVimaginations
p708
F1
sVvigour
p709
F3
sVwood
p710
F2
sVopposed
p711
F2
sVloving
p712
F2
sVscratched
p713
F1
sVaugmented.
p714
F1
sVsubsistence
p715
F1
sVblood;
p716
F1
sVodious
p717
F2
sVappendix
p718
F2
sVignorant
p719
F7
sVvirtue
p720
F10
sVblood.
p721
F1
sVblood,
p722
F2
sVboyle,
p723
F6
sVeasiest
p724
F1
sVbehalf
p725
F5
sVvalued
p726
F1
sVoriginally
p727
F1
sVpretend
p728
F11
sVimagination.
p729
F2
sVinflamed
p730
F1
sVprediction.
p731
F1
sVsome,
p732
F1
sVprediction,
p733
F2
sVslowness
p734
F1
sVfollowing
p735
F4
sVoppose,
p736
F1
sVadmired
p737
F2
sVremitted
p738
F1
sVsordid,
p739
F1
sVvirgins
p740
F1
sVapplication,
p741
F1
sVentertains,
p742
F1
sVlocks
p743
F1
sVallowed
p744
F5
sVstole
p745
F1
sVoffensa
p746
F1
sVwinter
p747
F2
sVunderneath,
p748
F1
sVdivided
p749
F1
sVvainly
p750
F2
sVprisoner."
p751
F1
sVabsolute
p752
F2
sVdivides
p753
F1
sVlisten,
p754
F1
sVstrictness
p755
F1
sVecho,
p756
F1
sVhide,
p757
F2
sVspot
p758
F1
sVdate
p759
F1
sVsuch
p760
F63
sVenvy,
p761
F3
sVdisagreeable
p762
F1
sVstress
p763
F1
sVnatural
p764
F9
sVnorthward,
p765
F1
sVgrazing,
p766
F1
sVyielding
p767
F1
sVkeep,
p768
F1
sVsubdivisions
p769
F1
sVso
p770
F187
sVswollen
p771
F1
sVwolves
p772
F1
sVpulled
p773
F1
sVdrunken
p774
F1
sVaugury
p775
F1
sVbelow.
p776
F4
sVyears
p777
F19
sVprofessors
p778
F1
sVcourse
p779
F8
sVearly,
p780
F1
sVbelow;
p781
F3
sVmiry,
p782
F1
sVpindar,
p783
F2
sVtendency
p784
F1
sVsolitary
p785
F1
sVhonesty,
p786
F1
sVyear_
p787
F1
sVdead?
p788
F1
sVrites,
p789
F1
sVmuses
p790
F1
sVdid,
p791
F1
sVtorn
p792
F1
sVtroubles
p793
F1
sVroast,
p794
F1
sVsuspicion
p795
F1
sVbrocades,
p796
F1
sVdead,
p797
F1
sVtroubled
p798
F1
sVpetition
p799
F2
sVclerkship,
p800
F1
sVequipage
p801
F1
sVthereby
p802
F1
sVyear;
p803
F2
sVexperiment.
p804
F1
sVnation
p805
F6
sVyear,
p806
F2
sVrecords
p807
F1
sVyear.
p808
F8
sVreaders?
p809
F1
sVarriving
p810
F1
sVpassions,
p811
F1
sVmatched
p812
F1
sVmuse;
p813
F1
sVbrink,
p814
F1
sVsteers.
p815
F1
sVtongues,
p816
F2
sVhastened
p817
F1
sVcarcases
p818
F1
sVquarter
p819
F2
sVnext.
p820
F1
sVgreen-sickness
p821
F1
sVadored,
p822
F1
sVships,
p823
F1
sVowing
p824
F1
sVentering
p825
F3
sVamaranth;
p826
F1
sVpatience,"
p827
F1
sVgiddy
p828
F1
sVassessors
p829
F1
sVdisguise.
p830
F1
sV_amen_.
p831
F2
sVthistles;
p832
F1
sVexploding
p833
F2
sVgilt,
p834
F2
sVstagnate,
p835
F1
sVmillion
p836
F1
sVseventh
p837
F1
sVpossibility
p838
F1
sVquite
p839
F5
sVbills,
p840
F2
sVnovember.
p841
F1
sVhimself!
p842
F1
sVbesides
p843
F4
sVyou?"
p844
F2
sVremainder
p845
F2
sV"battle
p846
F1
sVdisguised
p847
F1
sVwrong
p848
F3
sVflanders
p849
F1
sVpuns
p850
F1
sVneglect
p851
F2
sVpuny
p852
F1
sVlearning,
p853
F7
sVgenerosity;
p854
F1
sVmercy.
p855
F1
sVmercy,
p856
F2
sVspoken
p857
F2
sVone
p858
F79
sVmercy;
p859
F1
sVanti-
p860
F1
sVopen
p861
F4
sVcatch-phrase,
p862
F1
sVcoat,
p863
F1
sVteacher
p864
F1
sVstifled
p865
F1
sVthyself,
p866
F1
sVstuffed
p867
F2
sVstumps,
p868
F1
sVstructures
p869
F1
sV"let
p870
F1
sVon.
p871
F4
sVpoisons,
p872
F1
sVon,
p873
F4
sVspoke,
p874
F3
sVinhuman;
p875
F1
sVmeddling
p876
F1
sVtapster
p877
F1
sVridiculous
p878
F5
sVantic
p879
F1
sVmuch;
p880
F2
sVspoke;
p881
F2
sVwilliam,
p882
F1
sVwidened,
p883
F1
sVdepressed
p884
F1
sVfolly
p885
F6
sVcoals,
p886
F1
sVcoats
p887
F1
sVfuture
p888
F4
sVpoetical.
p889
F1
sVcavalier
p890
F1
sVwandering
p891
F3
sVprospect
p892
F3
sVsam
p893
F1
sV(we
p894
F1
sVturned
p895
F16
sVargument
p896
F8
sVsad
p897
F3
sVsoliloquy:
p898
F1
sVsay
p899
F12
sVburied
p900
F1
sVsaw
p901
F9
sVsat
p902
F4
sVlaw,
p903
F4
sVlaw.
p904
F1
sVfashionable
p905
F2
sVaside
p906
F3
sVinstructed
p907
F1
sVnote
p908
F2
sVgoodman
p909
F1
sVcold,
p910
F1
sVtake
p911
F38
sVdestroy
p912
F7
sVbad,
p913
F2
sVtutor;
p914
F1
sVsyllable
p915
F2
sVdiscerning
p916
F1
sVknew
p917
F9
sVtaste,
p918
F1
sVtaste.
p919
F3
sVafternoon,
p920
F2
sVprinted
p921
F3
sVnice,
p922
F3
sVtaste;
p923
F2
sVinserted
p924
F1
sVprodigies
p925
F2
sVengland_,
p926
F1
sVanything,
p927
F1
sVconstable
p928
F1
sVdrive
p929
F1
sVmass;
p930
F1
sVways
p931
F3
sVarchy
p932
F1
sVaxe
p933
F1
sVnot,
p934
F3
sVnot.
p935
F1
sVaffirmed
p936
F3
sVlaws
p937
F4
sVwalking
p938
F1
sVclan,
p939
F1
sVimagines
p940
F1
sVmince
p941
F1
sVmerit
p942
F7
sVbright
p943
F4
sVinconsistent
p944
F2
sVscarce
p945
F6
sVimagined
p946
F1
sVslow
p947
F5
sVgoing
p948
F1
sVwooden
p949
F1
sVrobe
p950
F1
sVposted
p951
F1
sVaries.
p952
F1
sVdispute
p953
F8
sVguarded
p954
F2
sVinfallibly
p955
F5
sVvary
p956
F1
sVcondemning
p957
F1
sVcowley's
p958
F1
sVphalaris's
p959
F1
sVbeau,
p960
F1
sVimagine.
p961
F1
sVmurmur,
p962
F1
sVequipages
p963
F1
sVblind,
p964
F1
sVepistles
p965
F3
sVcelebrate
p966
F2
sVborrow
p967
F3
sV1708.
p968
F2
sVrecurred
p969
F1
sVblind;
p970
F1
sVpriest
p971
F2
sV1697,
p972
F2
sVliable
p973
F2
sVneat,
p974
F1
sVdisparage
p975
F2
sVwhere
p976
F56
sVpress,
p977
F1
sVgout
p978
F1
sVfortunes,
p979
F1
sVreign.
p980
F1
sVashamed,
p981
F1
sVjob;
p982
F1
sV"miscreant
p983
F1
sV"why,
p984
F1
sVbeau;
p985
F1
sVeuclid
p986
F1
sVjob,
p987
F1
sVreign;
p988
F1
sVknees,
p989
F1
sVsable
p990
F1
sVaffecting
p991
F1
sVenjoys
p992
F1
sVman,
p993
F7
sVman.
p994
F1
sVrage,
p995
F4
sVrage.
p996
F1
sVgrovelling,
p997
F1
sVenquire
p998
F1
sVspare
p999
F3
sVbaucis
p1000
F5
sVgraceful,
p1001
F2
sVconversed
p1002
F1
sVenjoy,
p1003
F1
sVmoon,
p1004
F1
sVmany
p1005
F44
sVdeduction
p1006
F2
sVincurious,
p1007
F1
sVpound.
p1008
F2
sVexpression
p1009
F2
sVfix
p1010
F3
sVmoon;
p1011
F1
sVyearly
p1012
F2
sVinclining
p1013
F1
sVwant;
p1014
F1
sVallies,
p1015
F4
sVreading,
p1016
F1
sVconstant
p1017
F4
sVallies;
p1018
F1
sVwant.
p1019
F1
sVwant,
p1020
F2
sVdress,
p1021
F1
sVendure;
p1022
F1
sVstretch
p1023
F1
sVagility,
p1024
F1
sVbreath
p1025
F2
sVraging
p1026
F2
sVdress?
p1027
F1
sVstarched,
p1028
F1
sVpractised
p1029
F1
sVdress;
p1030
F3
sVacting,
p1031
F1
sVwants
p1032
F4
sVswords;
p1033
F1
sVthousand
p1034
F17
sVformed
p1035
F3
sVobserve
p1036
F9
sVformer
p1037
F7
sVprofane
p1038
F2
sVlanguor;
p1039
F1
sVpretence
p1040
F2
sVconsulted
p1041
F1
sVovercome
p1042
F1
sVsqueezed
p1043
F4
sVsituation
p1044
F1
sVwearer,
p1045
F1
sVweapon)
p1046
F1
sVmeal;
p1047
F1
sVpenthouse
p1048
F1
sVbirth;
p1049
F1
sVtransgressions
p1050
F1
sVengaged
p1051
F4
sVweapon.
p1052
F1
sVregularity
p1053
F1
sVfame
p1054
F4
sVpuppet-show;
p1055
F1
sVflock;
p1056
F1
sVverified
p1057
F1
sVhusbandry;
p1058
F1
sVtrain,
p1059
F2
sVinns,
p1060
F2
sVperpetually
p1061
F4
sVgelding
p1062
F1
sVflock.
p1063
F1
sVflock,
p1064
F1
sVcost;
p1065
F1
sVcost?
p1066
F1
sVyounger.
p1067
F1
sVcomplains,
p1068
F1
sVwires
p1069
F1
sValight.
p1070
F1
sVmaturely
p1071
F1
sVengage.
p1072
F2
sVsickness
p1073
F1
sVmoney-league.
p1074
F1
sVdefy
p1075
F2
sVobtruding
p1076
F1
sVengage;
p1077
F1
sVauthors,
p1078
F2
sVauthors.
p1079
F1
sVspun,
p1080
F1
sVexorbitant,
p1081
F1
sVcosts
p1082
F1
sVshut,
p1083
F1
sVduty
p1084
F1
sVbeing
p1085
F34
sV30th
p1086
F1
sVslime
p1087
F1
sVrest
p1088
F12
sVpedantry.
p1089
F1
sVpedantry,
p1090
F3
sV(a
p1091
F1
sVpent,
p1092
F1
sVjust,"
p1093
F1
sVpresumption
p1094
F1
sVpunishments,
p1095
F1
sVrepentance,
p1096
F1
sVgrievances,
p1097
F1
sVnext--what
p1098
F1
sVinstrument
p1099
F1
sVrepentance:
p1100
F1
sVstrange,
p1101
F1
sVpersonal,
p1102
F1
sVunerring
p1103
F2
sV6,
p1104
F1
sVdart
p1105
F2
sVdark
p1106
F1
sVpreference
p1107
F1
sVinferiors
p1108
F1
sVworld
p1109
F27
sVdare
p1110
F5
sVweek,
p1111
F2
sVteach;
p1112
F2
sVplautus.
p1113
F1
sVshrine;
p1114
F1
sVstranger
p1115
F1
sV_but
p1116
F1
sVclad
p1117
F2
sVteach.
p1118
F1
sVteach,
p1119
F1
sVloudest,
p1120
F1
sVkennel
p1121
F1
sVclap
p1122
F1
sVassertions
p1123
F1
sVholland.
p1124
F1
sVpunishment,
p1125
F1
sVasgil
p1126
F1
sVcellar
p1127
F1
sVlaughed
p1128
F4
sVdivine
p1129
F1
sVthinks
p1130
F6
sVdroll;
p1131
F1
sVsins;
p1132
F1
sVmemories
p1133
F1
sVnoon
p1134
F2
sVlend
p1135
F2
sVaforesaid,
p1136
F2
sVoblige
p1137
F1
sVrevenged
p1138
F1
sVcountenances
p1139
F1
sV23rd
p1140
F1
sVlastly,
p1141
F2
sVrestoring
p1142
F1
sVthink,
p1143
F1
sVpower
p1144
F9
sVthink:
p1145
F1
sVpowel
p1146
F1
sVtrinity,
p1147
F1
sVconsumptive
p1148
F1
sVswarms
p1149
F1
sVcountenance,
p1150
F2
sVunseasonable
p1151
F1
sVapplications,
p1152
F1
sVact
p1153
F11
sVrevenge.
p1154
F1
sVlofty
p1155
F1
sVscandal,
p1156
F1
sVinspired.
p1157
F1
sVburning
p1158
F1
sVimage
p1159
F1
sVgresham
p1160
F1
sVwit;
p1161
F6
sVfasting,
p1162
F1
sVparties
p1163
F12
sVwit,
p1164
F25
sVdirt,
p1165
F1
sVass,
p1166
F2
sVdirt.
p1167
F1
sVappeared,
p1168
F2
sVher
p1169
F271
sVendeavouring
p1170
F5
sVtrussed
p1171
F1
sVessoign,
p1172
F1
sVcoifs
p1173
F1
sVass;
p1174
F1
sVhen
p1175
F1
sVbubble
p1176
F1
sVobvious,
p1177
F1
sVseasons,
p1178
F1
sVcomplete
p1179
F1
sVhandwriting_.
p1180
F1
sVplucks
p1181
F1
sVanother.
p1182
F2
sVhath,
p1183
F2
sVgalley-slaves,
p1184
F1
sVross,
p1185
F1
sVwith
p1186
F347
sVhandsome
p1187
F2
sVmasquerade,
p1188
F1
sVrage
p1189
F2
sVhe:
p1190
F1
sVhe;
p1191
F1
sVnearest
p1192
F2
sVrags
p1193
F1
sVrequests,
p1194
F1
sVimpute
p1195
F3
sVdirty
p1196
F2
sVabuses
p1197
F1
sVhe,
p1198
F11
sVagree
p1199
F2
sVe'er
p1200
F1
sVpity,
p1201
F1
sVexhausted
p1202
F1
sVcertain
p1203
F18
sVforgot
p1204
F1
sVam
p1205
F25
sVan
p1206
F136
sVas
p1207
F283
sVat
p1208
F230
sVstudies.
p1209
F1
sV_nonnulla_.
p1210
F1
sVwatched
p1211
F1
sVqualities,
p1212
F1
sVlegislature,
p1213
F1
sVlong-thinking
p1214
F1
sV_deus
p1215
F1
sVunparalleled
p1216
F1
sVoh,
p1217
F2
sVconjectures
p1218
F2
sVoh!
p1219
F1
sVgifts
p1220
F3
sVsubjects,
p1221
F1
sVaccounts
p1222
F5
sVrestorers
p1223
F1
sVinfirmity
p1224
F1
sVwalk;
p1225
F1
sVapproves,
p1226
F1
sVtricks
p1227
F1
sVprejudices,
p1228
F4
sVmask
p1229
F1
sVhenley's
p1230
F1
sVmimic
p1231
F1
sVmass
p1232
F2
sVoriginal
p1233
F2
sVuneasiness.
p1234
F1
sV(it
p1235
F1
sVconsider
p1236
F8
sVcaused
p1237
F2
sVbeware
p1238
F3
sVimportune
p1239
F1
sV(if
p1240
F3
sVreasoning
p1241
F4
sVcauses
p1242
F3
sVduty,
p1243
F1
sVparliament;
p1244
F1
sVchampions
p1245
F1
sVto
p1246
F1251
sV"sit
p1247
F1
sVpence,
p1248
F1
sVdressing
p1249
F1
sVparliament,
p1250
F4
sVcause,
p1251
F2
sVcause.
p1252
F2
sVreturned
p1253
F5
sVis,
p1254
F10
sVswallows
p1255
F1
sVcandid
p1256
F1
sVinterpreting
p1257
F1
sVcause;
p1258
F2
sVconscience,
p1259
F2
sVcondition
p1260
F2
sVsans
p1261
F1
sVingratitude
p1262
F1
sVlaying
p1263
F2
sVjoined
p1264
F3
sVlarge
p1265
F18
sVpedant
p1266
F1
sVrenown
p1267
F1
sVsmall
p1268
F14
sVnor,
p1269
F1
sVpenalties
p1270
F1
sVhour.
p1271
F1
sVhour,
p1272
F3
sVpast
p1273
F4
sVdisplays
p1274
F1
sVpass
p1275
F10
sVlying,
p1276
F1
sVtrimmers,
p1277
F1
sVdwell,
p1278
F1
sVmeetings,
p1279
F1
sVclock
p1280
F1
sVschemes,
p1281
F1
sVswain),
p1282
F1
sVprevailed
p1283
F1
sVmould;
p1284
F1
sVwhirled
p1285
F1
sVavenues
p1286
F1
sVmethod
p1287
F4
sVfull
p1288
F21
sVescaping
p1289
F1
sV1695,
p1290
F1
sVhours
p1291
F5
sVcare,
p1292
F1
sVhast
p1293
F3
sVlegend
p1294
F1
sVbowmen;
p1295
F1
sVhunts
p1296
F1
sVmorose,
p1297
F1
sVavenue,
p1298
F1
sVgout,
p1299
F1
sVyourself;
p1300
F1
sVyoung,
p1301
F2
sVexperience
p1302
F4
sVnail,
p1303
F1
sVpick
p1304
F1
sVaction
p1305
F3
sVsweetness
p1306
F2
sVgrazier's
p1307
F1
sVday's
p1308
F1
sVfollowed
p1309
F1
sVobjection,
p1310
F1
sVvie
p1311
F1
sVguess?
p1312
F1
sVmarriages
p1313
F1
sVexcellently
p1314
F1
sVspoil.
p1315
F1
sVparties,
p1316
F1
sVbeheld
p1317
F1
sVselect
p1318
F1
sVguess,
p1319
F1
sVself-love
p1320
F3
sVstander
p1321
F1
sVlots,
p1322
F1
sVflowers,
p1323
F1
sVwatch,
p1324
F1
sVmorn
p1325
F1
sVmore
p1326
F66
sVdoor
p1327
F2
sVelement.
p1328
F1
sVperson.
p1329
F1
sVcompany
p1330
F12
sVspoils
p1331
F4
sVmarriage,
p1332
F2
sVjealousies
p1333
F1
sVmarriage.
p1334
F1
sVrudeness
p1335
F1
sVobjections
p1336
F6
sVcunning
p1337
F1
sVfleece
p1338
F1
sVpleasing
p1339
F4
sVstretch,
p1340
F1
sVthickest
p1341
F1
sVlearn
p1342
F2
sVsupercilious
p1343
F1
sVforesaw;
p1344
F1
sVdisgrace,
p1345
F2
sVmemoirs
p1346
F1
sVhands_;
p1347
F1
sVneglected
p1348
F3
sVaccept
p1349
F5
sVbooth.
p1350
F1
sVasgil,
p1351
F1
sVdisgrace;
p1352
F1
sVsense
p1353
F8
sVtricks,
p1354
F1
sVdress
p1355
F3
sVcondemn
p1356
F1
sVhuge
p1357
F1
sVdazzle
p1358
F1
sVpeevish,
p1359
F1
sVenlarge
p1360
F1
sVcling
p1361
F1
sVcreature
p1362
F2
sVsalt,
p1363
F1
sVintended
p1364
F3
sVthread-bare,
p1365
F1
sVpleader
p1366
F3
sVmeals,
p1367
F1
sVstate,
p1368
F7
sVrevolutions
p1369
F1
sVconveniences
p1370
F1
sVstate;
p1371
F2
sVplay-house
p1372
F1
sVflutter
p1373
F1
sVrefuse
p1374
F1
sVresemble
p1375
F1
sVregister
p1376
F1
sVpure;
p1377
F1
sVfundamental
p1378
F1
sVcases,
p1379
F1
sVreplied
p1380
F5
sVb.a.
p1381
F1
sVarmy.
p1382
F2
sVpassages
p1383
F2
sVlooks:
p1384
F2
sVtrade
p1385
F3
sVhead-strong,
p1386
F1
sVpaper
p1387
F5
sVpane
p1388
F1
sVsigns
p1389
F1
sVlooks,
p1390
F2
sVstriplings
p1391
F1
sVbroomstick."
p1392
F1
sVastrology
p1393
F3
sVtruth?
p1394
F1
sVfustian
p1395
F1
sVdeeds
p1396
F1
sVyou,"
p1397
F2
sVcourse,
p1398
F2
sVsophisters
p1399
F1
sVtruth.
p1400
F1
sVtruth,
p1401
F6
sVisaac
p1402
F1
sVtravelling
p1403
F1
sVrepartee,
p1404
F1
sVcalones,
p1405
F1
sVit.
p1406
F13
sVroot,
p1407
F1
sVit,
p1408
F17
sVgreat;
p1409
F1
sVpropose
p1410
F4
sVstepped,
p1411
F1
sVit:
p1412
F1
sVobliged,
p1413
F1
sVrepresentatives,
p1414
F1
sVpassage,
p1415
F1
sVgreat,
p1416
F1
sVhereafter
p1417
F1
sVlace.
p1418
F1
sVall.
p1419
F5
sVlace,
p1420
F3
sVall,
p1421
F4
sVinstruct
p1422
F1
sVall)
p1423
F1
sVisle
p1424
F1
sVeloquence
p1425
F2
sVcourses
p1426
F1
sVcoarse,
p1427
F1
sVfound
p1428
F26
sVdespond;
p1429
F1
sVall:
p1430
F1
sV(but
p1431
F2
sVbegged
p1432
F3
sVrise.
p1433
F1
sVunqualifies
p1434
F1
sVdenham,
p1435
F1
sVprox'
p1436
F1
sVreduce
p1437
F2
sVdemur,
p1438
F1
sVquick,
p1439
F1
sVjesting,
p1440
F1
sVparts;
p1441
F1
sVinquired
p1442
F1
sVmissed
p1443
F4
sVsparingly
p1444
F1
sVpair;
p1445
F1
sVbrutes.
p1446
F1
sVaffliction.
p1447
F1
sVdarling
p1448
F3
sVimpudence
p1449
F1
sVdevil's
p1450
F1
sVnoailles,
p1451
F1
sV_hic
p1452
F2
sVblue.
p1453
F1
sVparched
p1454
F1
sVgrandmother,
p1455
F1
sVtrenches,
p1456
F1
sVreproach
p1457
F2
sVbartholomew
p1458
F1
sVattention,
p1459
F1
sVdefinition
p1460
F2
sVowners
p1461
F1
sVretained
p1462
F2
sVwoman's
p1463
F1
sVfowls
p1464
F1
sVretainer
p1465
F1
sVexpedient
p1466
F3
sVcastle
p1467
F2
sVarose
p1468
F1
sVdictionaries,
p1469
F1
sVrooted
p1470
F2
sVslipped
p1471
F1
sVnumber
p1472
F9
sVpreservation
p1473
F1
sVpaltry
p1474
F2
sVcontended
p1475
F1
sVlettres.
p1476
F1
sVpeaceable
p1477
F1
sVheads
p1478
F5
sVthreatening
p1479
F1
sVbrutes;
p1480
F1
sVcalculations
p1481
F2
sVpeaceably
p1482
F2
sVevent.
p1483
F1
sVfirst,
p1484
F9
sVfirst.
p1485
F1
sVimmediate
p1486
F3
sVconsult
p1487
F2
sVgrace
p1488
F3
sVmodes
p1489
F1
sVplay-houses,
p1490
F1
sVdetermines
p1491
F1
sVessay,
p1492
F1
sVcalculation.
p1493
F1
sVhead;
p1494
F5
sVhead:
p1495
F1
sVeasy.
p1496
F1
sVdetermined
p1497
F1
sVmarriage
p1498
F1
sVhead.
p1499
F2
sVhead,
p1500
F15
sVremembers
p1501
F1
sVproceedeth
p1502
F1
sVdart,
p1503
F1
sVfights
p1504
F1
sVdefect
p1505
F2
sVwaft
p1506
F1
sVmend,
p1507
F1
sVdart;
p1508
F1
sVsa
p1509
F1
sVshoes.
p1510
F1
sVfashion,
p1511
F1
sVwish,
p1512
F1
sVkirleus
p1513
F1
sValso
p1514
F5
sVhour's
p1515
F1
sVdimish
p1516
F1
sVconspiracies,
p1517
F1
sVbrace
p1518
F1
sVplots,
p1519
F1
sVunderstand.
p1520
F3
sVrapine,
p1521
F1
sVprologues,
p1522
F1
sVhoney,
p1523
F1
sVdarts
p1524
F3
sVbreasts,
p1525
F1
sVage),
p1526
F1
sV"spare
p1527
F1
sVunderstands
p1528
F1
sVreward
p1529
F1
sVunequal
p1530
F1
sVseize
p1531
F2
sVsometimes
p1532
F8
sVends;
p1533
F2
sVbodies
p1534
F3
sV1686
p1535
F1
sV1689
p1536
F1
sVends.
p1537
F1
sVbarrel
p1538
F1
sVjustify
p1539
F1
sVamusements
p1540
F1
sVdragged
p1541
F2
sVdiseases.
p1542
F2
sVdespise
p1543
F4
sVgold
p1544
F3
sV(in
p1545
F1
sVaghast
p1546
F1
sVdefended
p1547
F1
sVmedley,
p1548
F1
sVphilemon
p1549
F3
sVgiant.
p1550
F1
sVpleasure;
p1551
F1
sVcovent-garden!
p1552
F1
sVrejoinders,
p1553
F1
sVwriter
p1554
F3
sVfailed
p1555
F3
sVpleasure,
p1556
F7
sVonwards,
p1557
F1
sVindifference
p1558
F1
sVlombard
p1559
F1
sVgospel;
p1560
F1
sValive.
p1561
F2
sValive,
p1562
F2
sVresent
p1563
F1
sVaccommodation.
p1564
F1
sVupside-down,
p1565
F1
sVremedy
p1566
F1
sVmentioned,
p1567
F4
sVclosely
p1568
F2
sVcompass
p1569
F1
sValive;
p1570
F1
sVcruelly
p1571
F1
sVenemy
p1572
F5
sVadapts
p1573
F1
sVtumult
p1574
F1
sVproclaim
p1575
F1
sVbelles
p1576
F1
sVwrite,
p1577
F3
sVwrite.
p1578
F1
sVobscure
p1579
F1
sVtoulon,
p1580
F1
sVapproaching
p1581
F3
sVpluto's
p1582
F1
sVset
p1583
F16
sVsex
p1584
F6
sVsee
p1585
F33
sVsea
p1586
F3
sVconjuncture
p1587
F1
sVoutward
p1588
F3
sVknees
p1589
F2
sVspirits
p1590
F3
sVgirl.
p1591
F1
sVurchin
p1592
F1
sVtho'
p1593
F1
sVmonsters
p1594
F1
sV15th
p1595
F3
sVeurope
p1596
F1
sVpremises
p1597
F1
sVgiddiness
p1598
F1
sVrenewed
p1599
F1
sVpolitics.
p1600
F1
sVpolitics,
p1601
F5
sVferment,
p1602
F1
sVmastiffs
p1603
F1
sVmute,
p1604
F1
sVlast
p1605
F28
sVthou
p1606
F19
sVoffending
p1607
F1
sVmomus,
p1608
F4
sVimplumis_;
p1609
F1
sVlash
p1610
F1
sVlet
p1611
F36
sVspirit,
p1612
F3
sVold.
p1613
F2
sVwhole
p1614
F19
sVtown,
p1615
F3
sVmajesty
p1616
F2
sVacted
p1617
F1
sVrace,
p1618
F1
sVrace.
p1619
F2
sVhollow
p1620
F1
sVtown:
p1621
F1
sVfrosty
p1622
F1
sVchurch
p1623
F12
sVheretofore;
p1624
F1
sVrace;
p1625
F1
sVsleeve;
p1626
F1
sVbelt
p1627
F1
sVwisdom,
p1628
F2
sVpublishing
p1629
F1
sVsatire
p1630
F3
sVverse
p1631
F3
sVflounces
p1632
F1
sVsuburbs
p1633
F1
sVflounced
p1634
F1
sVdispute."
p1635
F1
sVabolished,
p1636
F3
sVfirm
p1637
F2
sVchampion
p1638
F2
sVfire
p1639
F3
sVbreaking,
p1640
F1
sVupstart
p1641
F1
sVeyes."
p1642
F1
sVfund
p1643
F1
sVrevile
p1644
F1
sVawake
p1645
F1
sVpindar,"
p1646
F1
sVwheeled
p1647
F2
sVcloe,
p1648
F1
sVremains,
p1649
F1
sVstraight
p1650
F3
sVmouths,
p1651
F1
sVadmire
p1652
F1
sVdisputes,
p1653
F1
sVpressed
p1654
F1
sVerror
p1655
F1
sVmonsters,
p1656
F1
sVrobin
p1657
F2
sVowed
p1658
F1
sVhoping
p1659
F2
sVsighed,
p1660
F1
sVvow
p1661
F2
sVflanders,
p1662
F1
sVstains;
p1663
F1
sVstunted:
p1664
F1
sVdisplease;
p1665
F1
sVrenounced
p1666
F1
sVacquired,
p1667
F1
sVtheatre,
p1668
F1
sVgoodwill,
p1669
F1
sVrusty,
p1670
F1
sVrules
p1671
F3
sV_bipes
p1672
F1
sVrelater.
p1673
F1
sVforgiveness
p1674
F1
sVmortifying
p1675
F1
sVsnail
p1676
F1
sVmoll,
p1677
F1
sVfolks;
p1678
F1
sVpopularity:
p1679
F1
sVfraternity,
p1680
F1
sVleaps
p1681
F1
sVnecessity
p1682
F5
sVfolks,
p1683
F1
sVfoment,
p1684
F1
sVmaid;
p1685
F1
sVyet;
p1686
F1
sVrenounce,
p1687
F1
sVmakes
p1688
F11
sVperson
p1689
F18
sVyet,
p1690
F9
sVaction.
p1691
F1
sVmaid.
p1692
F2
sVmaid,
p1693
F2
sVcomprise
p1694
F1
sVproject,
p1695
F1
sVgraces:
p1696
F1
sVhobbes
p1697
F1
sVproject:
p1698
F1
sVunto
p1699
F1
sVoverthrew,
p1700
F1
sVtribe.
p1701
F1
sVtribe,
p1702
F2
sVreaders
p1703
F1
sVrelief
p1704
F1
sVadvertisements
p1705
F1
sVdispensest
p1706
F1
sVeager
p1707
F1
sVparents
p1708
F1
sVsurprised
p1709
F2
sVdo?
p1710
F1
sVthee,
p1711
F4
sVemergency
p1712
F1
sVcouple
p1713
F1
sVquest
p1714
F1
sVwoes).
p1715
F1
sVseverity,
p1716
F1
sVsubmission,
p1717
F1
sVimposed
p1718
F1
sVsubmission)
p1719
F1
sVsquandered
p1720
F1
sVparent,
p1721
F2
sVcontinue
p1722
F6
sVsurprise.
p1723
F1
sVsurprise,
p1724
F1
sVreader,
p1725
F1
sVhue;
p1726
F1
sVreader.
p1727
F2
sVdisorder
p1728
F1
sVspins
p1729
F1
sVnames
p1730
F1
sVlong;
p1731
F1
sVmethods
p1732
F3
sVsenate
p1733
F2
sVspring
p1734
F2
sVnecessaries
p1735
F1
sVjanus,
p1736
F1
sVmighty
p1737
F12
sVsight
p1738
F2
sVcurious
p1739
F2
sVpale
p1740
F1
sVbesom,
p1741
F1
sVhints,
p1742
F1
sVheavy-armed
p1743
F3
sVreligion
p1744
F16
sVrefined,
p1745
F2
sVtemple
p1746
F9
sVinclination
p1747
F4
sVmight,
p1748
F3
sVjudgments,
p1749
F2
sVconsiderations,
p1750
F1
sVmight;
p1751
F2
sVrelating
p1752
F3
sVby
p1753
F301
sVnotions,
p1754
F1
sVridet_
p1755
F1
sVconvulsion,
p1756
F1
sVanything
p1757
F4
sVovid,
p1758
F1
sVwrinkles
p1759
F2
sVlucina's
p1760
F1
sVprosecute,
p1761
F1
sVrepair
p1762
F2
sVnaturally,
p1763
F1
sVreverence
p1764
F2
sVinto
p1765
F66
sVfast,
p1766
F3
sVflounces,
p1767
F1
sVgunpowder,
p1768
F2
sVjack,
p1769
F1
sVtall,
p1770
F1
sVspringeth
p1771
F1
sVharnessed
p1772
F2
sVspending
p1773
F1
sVcustom
p1774
F5
sVatheists
p1775
F1
sVrecoiled,
p1776
F1
sVdoubt
p1777
F4
sVsuit
p1778
F3
sVjacks
p1779
F1
sVinches
p1780
F1
sVauthors,--he
p1781
F1
sVgraciously
p1782
F2
sVratiocinations
p1783
F1
sVlink
p1784
F1
sVsupplied,
p1785
F1
sVcultivating
p1786
F1
sVvicarage
p1787
F1
sVconsiderable
p1788
F1
sVdeceits,
p1789
F1
sVopen,
p1790
F1
sVtwenty-one,
p1791
F1
sVchid,
p1792
F1
sVblasphemy.
p1793
F1
sVup
p1794
F55
sVus
p1795
F27
sVopen?
p1796
F1
sVstrive;
p1797
F1
sVcriticism,
p1798
F1
sVcriticism.
p1799
F1
sVside.
p1800
F1
sVsettled;
p1801
F1
sVspinning,
p1802
F1
sVreconcile
p1803
F1
sVbox,
p1804
F1
sVdefined
p1805
F1
sVlikewise
p1806
F6
sVfans,
p1807
F3
sVinfluence
p1808
F8
sVlost.
p1809
F3
sVlost,
p1810
F4
sVside;
p1811
F2
sVbeginning,
p1812
F1
sVliving,
p1813
F1
sVvaluable;
p1814
F1
sVparadox
p1815
F1
sVprosperity;
p1816
F1
sVname.
p1817
F2
sVhole,
p1818
F1
sVscraps
p1819
F2
sVhell,
p1820
F2
sVdefine,
p1821
F1
sVpreside.
p1822
F1
sVpreside,
p1823
F1
sVhives
p1824
F1
sVprosecution
p1825
F1
sVregina
p1826
F1
sVpreside;
p1827
F1
sVsides
p1828
F4
sVago
p1829
F3
sVland
p1830
F2
sVage
p1831
F19
sVresolution;
p1832
F1
sVaga
p1833
F1
sVsummit
p1834
F1
sVenrolled
p1835
F1
sVoracle
p1836
F1
sVfresh
p1837
F3
sVhaving
p1838
F32
sVessay
p1839
F3
sVpartial
p1840
F2
sVweighty,
p1841
F1
sVcongreve
p1842
F1
sVcontinue.
p1843
F1
sVchocolate-house?
p1844
F1
sVseemed
p1845
F4
sVtrampling
p1846
F1
sVdevout
p1847
F2
sVdescription
p1848
F1
sVyoung
p1849
F22
sVsend
p1850
F3
sV(not
p1851
F1
sVpartridge's
p1852
F1
sVsent
p1853
F8
sVgodwin,
p1854
F1
sVtorture
p1855
F1
sVpanting
p1856
F1
sVcontinues
p1857
F1
sVlanguished
p1858
F1
sVmixing
p1859
F1
sVkindliness,
p1860
F1
sVcontinued
p1861
F4
sVlights,
p1862
F1
sVmagic
p1863
F1
sVmarry
p1864
F1
sVgrown;
p1865
F2
sVfewer
p1866
F4
sVsleeping,
p1867
F1
sV(_to
p1868
F1
sVrace
p1869
F3
sVrack
p1870
F1
sVdisordered
p1871
F1
sVfaculty
p1872
F1
sVchina.
p1873
F1
sVodd
p1874
F2
sVthat,
p1875
F16
sVmake.
p1876
F1
sVthat)
p1877
F1
sVexpressed
p1878
F1
sVhenceforth
p1879
F1
sVundone,
p1880
F1
sVundone.
p1881
F1
sVstanders
p1882
F1
sVled
p1883
F7
sVleg
p1884
F2
sVgathered
p1885
F3
sVpunch
p1886
F2
sVdelivering
p1887
F1
sVpoverty
p1888
F2
sVremarks,
p1889
F1
sVanswered;
p1890
F1
sVinvented
p1891
F1
sVoctavo
p1892
F1
sVdeduced
p1893
F1
sVgreat
p1894
F88
sVengage
p1895
F2
sVreceive
p1896
F2
sVopinion
p1897
F10
sVherodotus
p1898
F1
sVmaker
p1899
F1
sVwithdrew,
p1900
F2
sVsire
p1901
F2
sVwhoe'er
p1902
F1
sVcounsels
p1903
F1
sVcupid
p1904
F3
sVmortify
p1905
F1
sVtools
p1906
F1
sVgiven.
p1907
F1
sVgiven,
p1908
F1
sVstanding
p1909
F2
sVclient:
p1910
F1
sVunseen,
p1911
F4
sVweakness,
p1912
F3
sVarchbishop
p1913
F1
sVministers
p1914
F3
sVunknown,
p1915
F2
sVnext
p1916
F13
sVkingdoms
p1917
F1
sVeleven
p1918
F2
sVinsist,
p1919
F1
sVturned,
p1920
F3
sVanimal.
p1921
F1
sVanimal,
p1922
F2
sVfree;
p1923
F1
sVinfamy
p1924
F1
sVsevere:
p1925
F1
sVsir,
p1926
F1
sVbodily
p1927
F1
sVheartily
p1928
F1
sVcarrying
p1929
F1
sVgreen,
p1930
F1
sVbaby
p1931
F1
sVgladly
p1932
F2
sVbefore_.
p1933
F1
sVindiscreet:
p1934
F1
sVhigh
p1935
F11
sVthis
p1936
F190
sVgallantry?
p1937
F1
sVminister,
p1938
F1
sVchocolate,
p1939
F1
sVthin
p1940
F1
sVmusic;
p1941
F1
sVweaker
p1942
F1
sVbent
p1943
F4
sVfit,
p1944
F5
sVrode
p1945
F1
sVpieces
p1946
F3
sVfit;
p1947
F2
sVbend
p1948
F1
sVslip
p1949
F1
sVnone,
p1950
F1
sVclogs
p1951
F1
sV_this
p1952
F1
sVdestroying
p1953
F1
sVking's
p1954
F6
sVprocured
p1955
F1
sVsprig
p1956
F2
sVanimal
p1957
F1
sVparson
p1958
F2
sVsingular
p1959
F2
sVnear,
p1960
F1
sVlines,
p1961
F1
sVlines.
p1962
F1
sVpreferring
p1963
F1
sVfits
p1964
F1
sV1699.
p1965
F1
sVpiquet;
p1966
F1
sVperfumers'
p1967
F1
sVperused
p1968
F1
sVacquitted
p1969
F1
sVwrit
p1970
F1
sVallow
p1971
F5
sVpopery.
p1972
F2
sVdemand
p1973
F1
sVmove
p1974
F2
sVvicar
p1975
F1
sVproduced
p1976
F5
sVswain
p1977
F1
sV28_,
p1978
F1
sVdesign,
p1979
F2
sVperfect
p1980
F3
sVlent."
p1981
F1
sVmaterials?
p1982
F1
sVchosen
p1983
F1
sVstrewed
p1984
F1
sVdissenters,
p1985
F2
sVmeantime
p1986
F2
sVphysicians
p1987
F2
sVdesigns
p1988
F1
sVprecepts.
p1989
F1
sVproduce,
p1990
F1
sVdirect;
p1991
F1
sVwallowing
p1992
F1
sVdegree,
p1993
F3
sVsufficiently
p1994
F3
sVdido's
p1995
F1
sVtruth
p1996
F5
sVspoils.
p1997
F1
sVaccompanied
p1998
F1
sVbeneath
p1999
F1
sVfootmen
p2000
F1
sVdoing
p2001
F2
sVbooks
p2002
F20
sVwitness
p2003
F2
sVrepeat,
p2004
F1
sVrepeat.
p2005
F1
sVsoul--
p2006
F1
sVfemales.
p2007
F1
sVvenom
p2008
F1
sVscar,
p2009
F1
sVfavours
p2010
F1
sV(that
p2011
F2
sVshut
p2012
F3
sVperish
p2013
F1
sVboughs;
p2014
F1
sVbook,
p2015
F3
sVbook.
p2016
F1
sVsurely
p2017
F3
sVthrust
p2018
F1
sVmet,
p2019
F3
sVproduced:
p2020
F1
sVhonour's
p2021
F1
sVthings,
p2022
F5
sVfavour,
p2023
F1
sVparty."
p2024
F1
sVzembla;
p2025
F1
sVthings;
p2026
F3
sVlength
p2027
F10
sVpudding
p2028
F1
sVremoving
p2029
F1
sVrepeats
p2030
F1
sVfrown;
p2031
F1
sVnamed,
p2032
F1
sVplatonic
p2033
F2
sVmanuscript
p2034
F1
sVspeaking,
p2035
F2
sVparliaments?
p2036
F1
sVscene
p2037
F2
sVowned
p2038
F4
sVjesus
p2039
F1
sVtakest
p2040
F1
sVshort,
p2041
F6
sVblows
p2042
F1
sVcato
p2043
F1
sVhave,
p2044
F2
sVtwo.
p2045
F1
sVtwo,
p2046
F1
sVcoaches.
p2047
F1
sVtorture,
p2048
F1
sVsystem
p2049
F7
sVtravelled
p2050
F1
sVtrifling
p2051
F1
sVforetelling
p2052
F2
sVfollowing_,
p2053
F1
sVedifices.
p2054
F1
sVdepressing
p2055
F1
sVblow;
p2056
F1
sVbriefs?
p2057
F1
sVsteel
p2058
F1
sVrolls,
p2059
F2
sVargo_
p2060
F1
sVhiatus_
p2061
F2
sVstander-by
p2062
F1
sVsteed
p2063
F1
sV(1732).
p2064
F1
sVproud:
p2065
F1
sVdissensions
p2066
F1
sVrepented
p2067
F1
sVdevotion
p2068
F2
sVingenious
p2069
F1
sVaccusing
p2070
F1
sVfalse
p2071
F8
sVbeggar
p2072
F1
sVgently
p2073
F1
sVgentle
p2074
F4
sVbeeves,
p2075
F1
sVtrembling
p2076
F2
sVclearly
p2077
F3
sVsh---r
p2078
F1
sV('twas
p2079
F1
sVtriumphal
p2080
F1
sVpoison;
p2081
F2
sV"by
p2082
F3
sVdevotion,
p2083
F1
sVnoise,
p2084
F2
sVpoison,
p2085
F2
sVtired
p2086
F2
sVhypocrite
p2087
F1
sVawe,
p2088
F1
sVbred
p2089
F2
sVstronger
p2090
F1
sVface
p2091
F10
sVpossessions;
p2092
F1
sVyou'll
p2093
F2
sVapril,
p2094
F3
sVlatin,
p2095
F1
sVwounded
p2096
F2
sVlatin.
p2097
F1
sVleasehold
p2098
F1
sVfact
p2099
F3
sVinquiry.
p2100
F1
sVchristianity,
p2101
F10
sVstood,
p2102
F1
sVbring
p2103
F4
sVmean,
p2104
F1
sVchristianity?
p2105
F1
sVprincipal
p2106
F1
sVplanter
p2107
F1
sVfew:
p2108
F1
sVscurrilous
p2109
F1
sVshould
p2110
F62
sVjam
p2111
F1
sVseemeth
p2112
F3
sVafflictest
p2113
F1
sVhope
p2114
F12
sVmeant
p2115
F3
sVdesign:
p2116
F1
sVhandle
p2117
F1
sVlistened
p2118
F2
sVmeans
p2119
F5
sVfamiliar
p2120
F1
sVnatural,
p2121
F1
sVexactness,
p2122
F1
sVpoetasters
p2123
F1
sVnets,
p2124
F1
sVcontemptible
p2125
F1
sVprinter,
p2126
F1
sVtaxes
p2127
F1
sVproceedings,
p2128
F1
sVare.
p2129
F1
sVstuff
p2130
F1
sVintervening
p2131
F1
sVtory,
p2132
F3
sVhistorian,
p2133
F1
sVend;
p2134
F1
sVend?
p2135
F1
sVonce;
p2136
F1
sVedition
p2137
F2
sVonce,
p2138
F1
sVend,
p2139
F4
sVend.
p2140
F1
sVdeclined;
p2141
F1
sVstream.
p2142
F1
sVstream,
p2143
F1
sVinjustice
p2144
F1
sVimpertinence,
p2145
F2
sVundertaken,
p2146
F1
sVends
p2147
F6
sVtalismen
p2148
F1
sVtaken;
p2149
F1
sVrepealed,
p2150
F1
sVconstraint.
p2151
F1
sVbarbarously
p2152
F1
sVhistorians
p2153
F1
sVbeaux;
p2154
F1
sVobservable
p2155
F2
sVdiseases,
p2156
F1
sVtitle-page,
p2157
F1
sVtrifles,
p2158
F1
sVinvited
p2159
F1
sVshone,
p2160
F1
sVchampaign;
p2161
F1
sVapollo.
p2162
F1
sVbeaux,
p2163
F1
sVschools,
p2164
F1
sVout-of-fashion
p2165
F1
sVraven,
p2166
F1
sVconclude
p2167
F2
sVimperfection
p2168
F1
sVdistil
p2169
F1
sVjavelin
p2170
F4
sVdecide.
p2171
F1
sVwords;
p2172
F1
sVmourning
p2173
F1
sVstoic's
p2174
F1
sVwhate'er
p2175
F2
sVcassell
p2176
F1
sVphilosophers,
p2177
F1
sVenlivens
p2178
F1
sVtrinity
p2179
F2
sVring?
p2180
F1
sVjudges,
p2181
F1
sVrenowned;
p2182
F1
sVneighbour
p2183
F3
sVpedantry
p2184
F3
sVpaxodoxical
p2185
F1
sVexcellencies,
p2186
F1
sVunbelievers,
p2187
F1
sVcountry
p2188
F7
sVconcerted
p2189
F1
sVripe
p2190
F1
sVsenseless,
p2191
F1
sVlust
p2192
F1
sVbegins,
p2193
F1
sVsits
p2194
F1
sVgreater
p2195
F8
sVransom
p2196
F2
sV1713_.
p2197
F1
sVdislikes,
p2198
F1
sVvalour
p2199
F1
sVof.
p2200
F2
sVof,
p2201
F2
sVdoor.
p2202
F1
sVromance
p2203
F1
sVbuffoon
p2204
F2
sVentail
p2205
F1
sVof;
p2206
F1
sVof?
p2207
F1
sVherrick,
p2208
F2
sVdisputant,
p2209
F1
sVoblivion.
p2210
F1
sVdrink
p2211
F4
sVbritain;
p2212
F1
sVpatron's
p2213
F1
sVdust
p2214
F3
sVargue
p2215
F3
sVoff
p2216
F13
sVfully
p2217
F2
sVdoors.
p2218
F2
sVdoors,
p2219
F1
sVwicklow,
p2220
F1
sVoft
p2221
F6
sVprospering
p2222
F1
sVdrawing
p2223
F1
sVlest
p2224
F2
sVenemy.
p2225
F1
sVenemy,
p2226
F2
sVflesh
p2227
F2
sVmoments
p2228
F1
sVglut
p2229
F1
sVincrease,
p2230
F1
sVtitan's
p2231
F1
sVparsons,
p2232
F1
sVscold),
p2233
F1
sVgentlest
p2234
F2
sVbroomstick
p2235
F1
sVparson.
p2236
F1
sVgenerous
p2237
F3
sVarisen,
p2238
F1
sVclergyman
p2239
F2
sVspider's
p2240
F1
sVvolumes,
p2241
F1
sVincreased
p2242
F3
sVgovernment
p2243
F1
sVroom.
p2244
F1
sVclock,
p2245
F1
sVfive
p2246
F6
sVmoment.
p2247
F2
sVwoeful
p2248
F2
sVtrash
p2249
F1
sVcontempt,
p2250
F1
sVredound
p2251
F1
sVengland,
p2252
F2
sVgrazier,
p2253
F1
sVengland.
p2254
F1
sVcontempt;
p2255
F1
sVbecome
p2256
F6
sVjonathan,
p2257
F1
sVactions.
p2258
F2
sVinexperienced
p2259
F1
sVactions,
p2260
F5
sVseeks
p2261
F1
sVhospital.
p2262
F1
sVsinews
p2263
F1
sVimmortal
p2264
F2
sVchoosing
p2265
F1
sVborn."
p2266
F1
sVshan't
p2267
F1
sVearth--shall
p2268
F1
sVpolitic,
p2269
F1
sVavoid
p2270
F5
sVcultivated,
p2271
F1
sVdoes
p2272
F10
sVpassion
p2273
F6
sVforgiven
p2274
F2
sVsacramental
p2275
F1
sVpressure
p2276
F1
sVrecompensed
p2277
F1
sVposterity
p2278
F1
sVimaginary
p2279
F2
sVsight),
p2280
F1
sVstage
p2281
F1
sVswift,
p2282
F6
sVswift.
p2283
F2
sVphilomaths,
p2284
F1
sVshoes
p2285
F1
sVforetold
p2286
F6
sVseeds
p2287
F3
sVher_,
p2288
F1
sV{1}
p2289
F2
sValliance
p2290
F2
sVletters
p2291
F1
sVsingular,
p2292
F1
sVamen."
p2293
F1
sVranged.
p2294
F1
sVmere
p2295
F10
sVeusden's
p2296
F1
sVplace;
p2297
F5
sVplace:
p2298
F1
sVvial,
p2299
F2
sVplace,
p2300
F6
sVplace.
p2301
F2
sVnaturally
p2302
F3
sVroad,
p2303
F1
sVand,"
p2304
F1
sVletter;
p2305
F1
sVasses,
p2306
F1
sVmeanings;
p2307
F1
sVproveth
p2308
F1
sVapollo
p2309
F6
sVill-manners,
p2310
F1
sVill-manners.
p2311
F1
sVthey,
p2312
F2
sVcompute
p2313
F1
sVharvey,
p2314
F1
sVplaces
p2315
F2
sVchained
p2316
F1
sVencouragement.
p2317
F1
sVportocarero
p2318
F1
sVconvince
p2319
F2
sVmonument
p2320
F1
sVwotton
p2321
F5
sVrest,
p2322
F7
sVrecruits.
p2323
F1
sVbearing
p2324
F1
sVirish
p2325
F5
sVarms;
p2326
F1
sVcontribute
p2327
F1
sVfellow's
p2328
F1
sVarms.
p2329
F1
sVarms,
p2330
F4
sVhearers
p2331
F2
sVerring
p2332
F1
sVaristotle
p2333
F2
sVink
p2334
F2
sVsince,
p2335
F1
sVgarden,
p2336
F1
sVvariety
p2337
F1
sV_out_,
p2338
F1
sVlately
p2339
F3
sV(to
p2340
F3
sVbehold
p2341
F9
sVpredominant
p2342
F1
sVin?
p2343
F1
sVagain,
p2344
F7
sVin,
p2345
F3
sVin.
p2346
F1
sVseraphic
p2347
F1
sVvein
p2348
F2
sVtofts,
p2349
F1
sVcoquette
p2350
F1
sVforest.
p2351
F1
sVwhy?--virtue's
p2352
F1
sVforest,
p2353
F1
sVtrial,
p2354
F1
sVunreasonableness
p2355
F1
sVunspeakable
p2356
F1
sVsmokes;
p2357
F1
sVseated
p2358
F2
sVdoubts
p2359
F1
sVfills,
p2360
F1
sVcontroversial
p2361
F1
sVmansion
p2362
F1
sVparty,
p2363
F3
sV_grande-monde_,
p2364
F1
sVeffectually
p2365
F3
sVneighbours
p2366
F1
sVserpents,
p2367
F1
sVregal
p2368
F3
sVraillery
p2369
F5
sVworth
p2370
F3
sVroad
p2371
F1
sVdistort
p2372
F1
sVwomen's
p2373
F1
sVshoot
p2374
F2
sVdeduction's
p2375
F1
sVwe'll
p2376
F1
sVfurrowed
p2377
F1
sVsyntax;
p2378
F1
sVquaking
p2379
F1
sVabolishing
p2380
F11
sVvote.
p2381
F2
sVdwindled
p2382
F1
sVsmiles,
p2383
F1
sV29th
p2384
F3
sVblasphemy
p2385
F3
sVworldly-wise,
p2386
F1
sVoccasioned
p2387
F2
sVpreacher
p2388
F2
sVothers'
p2389
F2
sVallowed,
p2390
F2
sVriches,
p2391
F2
sVothers,
p2392
F10
sVothers.
p2393
F2
sVmeekly
p2394
F1
sVlanguid,
p2395
F1
sVdeliberate
p2396
F1
sVregulated,
p2397
F1
sVabove
p2398
F16
sVchurches
p2399
F2
sVbrent,
p2400
F1
sVconsisting
p2401
F1
sVpolydore
p2402
F1
sVtold
p2403
F8
sVfathers.
p2404
F1
sVmachine.
p2405
F1
sVnotions
p2406
F9
sVusurps
p2407
F1
sVequals
p2408
F1
sVpursuit
p2409
F5
sVmiscarriage
p2410
F1
sVobtained
p2411
F1
sVdaughter
p2412
F3
sVstudy
p2413
F4
sVfeels,
p2414
F1
sVdeaths_.
p2415
F1
sVglittering
p2416
F4
sVcloistered
p2417
F1
sVover-
p2418
F1
sVhighly
p2419
F2
sVsoever
p2420
F2
sVthought.
p2421
F1
sVpinners
p2422
F1
sVartists.
p2423
F1
sVglance
p2424
F1
sV_written
p2425
F4
sVincurred,
p2426
F1
sVworld's
p2427
F1
sVinsult
p2428
F1
sV1708_.
p2429
F1
sVpierced
p2430
F4
sVdrinking,
p2431
F1
sVconsent,
p2432
F1
sVcontinual
p2433
F2
sVallies
p2434
F1
sVcheat;
p2435
F1
sVoverrun
p2436
F2
sVword
p2437
F14
sVsociety,
p2438
F1
sVbooks,
p2439
F7
sVwork
p2440
F4
sVworn
p2441
F3
sVchoose.
p2442
F1
sVere
p2443
F3
sVchoose,
p2444
F1
sVeighteen
p2445
F1
sVexact;
p2446
F1
sVcould
p2447
F72
sVbooks;
p2448
F1
sVpollute
p2449
F1
sVflung
p2450
F3
sVkeeper's
p2451
F1
sVperverteth
p2452
F1
sVcustom,
p2453
F3
sVboughs,
p2454
F1
sVwoman
p2455
F2
sVindifferent
p2456
F2
sVfarce
p2457
F3
sVprovide
p2458
F2
sVmeet.
p2459
F1
sVsaid.
p2460
F2
sVresignation
p2461
F1
sVhast,
p2462
F1
sVtaverns
p2463
F1
sVdiscoveries.
p2464
F1
sValtitude.
p2465
F1
sVafter
p2466
F40
sVwaits,
p2467
F1
sVlay
p2468
F8
sVgreediness
p2469
F1
sVarch
p2470
F1
sVtavern,
p2471
F1
sVnamed.
p2472
F1
sVgreek
p2473
F1
sVhaste
p2474
F2
sVextirpating
p2475
F1
sVorder
p2476
F10
sVcomeliness;
p2477
F1
sVmodesty
p2478
F2
sVoffice
p2479
F1
sVeverybody's
p2480
F3
sVsatisfied
p2481
F1
sVears:
p2482
F1
sVancients
p2483
F8
sVears,
p2484
F1
sVsomewhere
p2485
F1
sVhomrigh,
p2486
F1
sVrock,
p2487
F2
sVproduction
p2488
F1
sVsecurely
p2489
F1
sVvanish.
p2490
F1
sVthen
p2491
F68
sVthem
p2492
F80
sVaffected
p2493
F4
sVyoung;
p2494
F1
sVancient,
p2495
F3
sVthee
p2496
F9
sVsafe
p2497
F1
sVsprout!"
p2498
F1
sVbreak
p2499
F8
sVband
p2500
F1
sVbang
p2501
F1
sVshameful
p2502
F3
sVthey
p2503
F199
sVshort;
p2504
F1
sVexhaled
p2505
F1
sVancient;
p2506
F1
sVvent.
p2507
F1
sVreasonably
p2508
F2
sVslavery
p2509
F1
sVgrows
p2510
F3
sVreasonable
p2511
F4
sVfeeds
p2512
F2
sVschemes
p2513
F5
sVlogs
p2514
F1
sVtrain
p2515
F1
sVcrimes
p2516
F2
sVdispute,
p2517
F4
sVdispute.
p2518
F1
sVadmit,
p2519
F1
sVowner
p2520
F3
sVadmit;
p2521
F1
sV1666.
p2522
F1
sVslew
p2523
F5
sVdragoons;
p2524
F1
sVforty
p2525
F1
sVfellows
p2526
F1
sVstrangers
p2527
F1
sVdragoons,
p2528
F2
sVforth
p2529
F1
sVdesolate,
p2530
F1
sVqualifications
p2531
F1
sVscheme;
p2532
F1
sVceremonies;
p2533
F1
sVstandard
p2534
F1
sVappointments
p2535
F1
sVdashing
p2536
F1
sVpeople's
p2537
F2
sVceremonies,
p2538
F1
sVscheme,
p2539
F3
sVabdicates
p2540
F1
sVcaprice
p2541
F1
sV"no
p2542
F1
sV(as
p2543
F1
sVcromwell,
p2544
F1
sVknives,
p2545
F1
sVlove.
p2546
F3
sVrender
p2547
F2
sVanother
p2548
F13
sVthick
p2549
F2
sVincitement,
p2550
F1
sVpower.
p2551
F3
sVpower,
p2552
F3
sVplentiful
p2553
F2
sVscene,
p2554
F3
sVobservations
p2555
F2
sVincitements
p2556
F1
sVemblem
p2557
F1
sVhappily
p2558
F2
sVrejected
p2559
F2
sVdog.
p2560
F1
sVmercy
p2561
F1
sVdog,
p2562
F2
sVrate.
p2563
F1
sVrate,
p2564
F1
sVair,
p2565
F6
sVair.
p2566
F1
sVguilt
p2567
F2
sVpainful
p2568
F1
sViron
p2569
F3
sVsurpasses.
p2570
F1
sV{3}
p2571
F2
sVair;
p2572
F2
sVrate;
p2573
F1
sVexercise,
p2574
F2
sVleicester,
p2575
F4
sVmoderns;
p2576
F1
sVsufferings.
p2577
F1
sVmanner
p2578
F7
sVmoderns,
p2579
F10
sVmoderns.
p2580
F4
sVforced
p2581
F5
sVstrength
p2582
F11
sVgenuine
p2583
F3
sVdeities,
p2584
F1
sVladen
p2585
F2
sVconvenient
p2586
F3
sVlatter
p2587
F3
sVdespatch;
p2588
F1
sVsubjects
p2589
F5
sVquieted
p2590
F1
sVforces
p2591
F1
sVcontent,
p2592
F2
sVweeding
p2593
F1
sVlong-eared
p2594
F1
sVbottle,
p2595
F1
sVforce,
p2596
F7
sVcalculated
p2597
F2
sVsubject,
p2598
F3
sVvalueth
p2599
F1
sVsun
p2600
F3
sVsubject;
p2601
F3
sVfitted
p2602
F2
sVsubject?
p2603
F1
sVextreme,
p2604
F1
sVaversion:
p2605
F1
sVbrief
p2606
F2
sVreligions
p2607
F1
sVrailing,
p2608
F1
sVjove,
p2609
F1
sVnephew
p2610
F1
sVfaltered
p2611
F1
sVversed
p2612
F1
sVlayman
p2613
F1
sVhim,
p2614
F19
sVindustriously
p2615
F1
sVallow,
p2616
F1
sVdeity.
p2617
F1
sVroses,
p2618
F1
sVpursuing
p2619
F3
sVpersuaded,
p2620
F1
sVgodwin's.
p2621
F1
sVrun.
p2622
F1
sVdo
p2623
F39
sVprefaces
p2624
F1
sVreligion.
p2625
F2
sVpreferred
p2626
F2
sVhaunted
p2627
F1
sVdame,
p2628
F2
sVnasty
p2629
F2
sV'twould
p2630
F1
sVruns
p2631
F4
sVlibels
p2632
F1
sVupon:
p2633
F1
sVcontinueth
p2634
F1
sVirregularities
p2635
F1
sVsky:
p2636
F1
sVrung
p2637
F1
sVsquadron
p2638
F2
sVsteal
p2639
F1
sVerroneous
p2640
F1
sVinns
p2641
F1
sVscours
p2642
F1
sVw.
p2643
F1
sVrivulet
p2644
F1
sVcompass:
p2645
F1
sVoffended,
p2646
F1
sVobserved
p2647
F8
sVterm.
p2648
F1
sVdiffidence
p2649
F1
sVdraws
p2650
F2
sVrequest,
p2651
F1
sVbecause,
p2652
F2
sVfoe;
p2653
F1
sVaway
p2654
F6
sVgentleman
p2655
F1
sVunable
p2656
F1
sVtainted
p2657
F2
sVtoland
p2658
F1
sVdrawn
p2659
F3
sVshields
p2660
F1
sVfoe,
p2661
F3
sVwe
p2662
F118
sVterms
p2663
F4
sVsleepers,
p2664
F1
sVfactions,
p2665
F1
sVspectacles
p2666
F1
sVdignities,
p2667
F1
sVtravellers
p2668
F1
sVobserve,
p2669
F3
sVinn.
p2670
F1
sVscribbling
p2671
F1
sVreceived
p2672
F4
sVshield,
p2673
F3
sVexcrement
p2674
F1
sVrenders
p2675
F1
sVill
p2676
F10
sVbrag
p2677
F1
sVcog
p2678
F1
sVstake.
p2679
F1
sVspain,
p2680
F1
sVnegotiation
p2681
F1
sVtone
p2682
F1
sVspear
p2683
F2
sVarmour,
p2684
F4
sVarmour:
p2685
F1
sVspeak
p2686
F9
sVunhappily
p2687
F1
sVentertain,
p2688
F1
sVcondemned
p2689
F4
sVcoffee-house,
p2690
F1
sVbeckoned,
p2691
F1
sVcry,--what
p2692
F1
sVthrice
p2693
F12
sVeasy
p2694
F5
sVattacked
p2695
F1
sVconjurers
p2696
F1
sVbestow,
p2697
F1
sVgracious
p2698
F2
sVapplied
p2699
F1
sVphysician
p2700
F1
sVinclinations;
p2701
F1
sVthenceforth
p2702
F1
sVcomprehension,
p2703
F1
sVair
p2704
F5
sVaim
p2705
F1
sVcoffee-houses
p2706
F1
sVdifficulty,
p2707
F1
sVentertains
p2708
F1
sVaid
p2709
F5
sVproperty
p2710
F2
sVknown,
p2711
F3
sVmistake
p2712
F5
sVdobson
p2713
F1
sVfaith,
p2714
F3
sVdeities
p2715
F1
sVdictate
p2716
F1
sVtelemachus
p2717
F1
sVconfirmed
p2718
F3
sVperform
p2719
F2
sVhalf-overturned
p2720
F1
sVconclusions;
p2721
F1
sVdescend
p2722
F1
sVth'
p2723
F1
sVdiscourse;
p2724
F1
sVsincere,
p2725
F1
sVdress:
p2726
F1
sVhang
p2727
F1
sVendued
p2728
F1
sVevil
p2729
F6
sVhand
p2730
F11
sVsincere;
p2731
F1
sVdiscourse,
p2732
F6
sVsharpers
p2733
F1
sVgreedily
p2734
F1
sVcentred
p2735
F1
sVconviction.
p2736
F1
sVkept
p2737
F8
sVwhereby
p2738
F2
sVthy
p2739
F40
sVthirty-four
p2740
F1
sVhumble
p2741
F3
sVago?
p2742
F1
sVragged
p2743
F2
sVhumbly
p2744
F6
sVimpertinent
p2745
F1
sVthe
p2746
F2125
sVinsupportable.
p2747
F1
sVshe'll
p2748
F1
sVmay,
p2749
F3
sVquotes
p2750
F1
sVfarther
p2751
F4
sVswears
p2752
F1
sVhoist,
p2753
F1
sVadding
p2754
F1
sV27th
p2755
F1
sVsuddenly
p2756
F4
sVspread
p2757
F2
sVtransformed
p2758
F1
sVdeponents
p2759
F1
sVgod;
p2760
F1
sVgod?
p2761
F1
sVwasp,
p2762
F1
sVspoiled;
p2763
F1
sVgod.
p2764
F2
sVgod,
p2765
F3
sVpartridge
p2766
F4
sVrequired:
p2767
F1
sVdisadvantage
p2768
F4
sVfare.
p2769
F1
sVempson
p2770
F1
sVboar;
p2771
F1
sVcountry,
p2772
F5
sVclergyman_.
p2773
F1
sVnight
p2774
F6
sVcountry;
p2775
F1
sVcombatants.
p2776
F1
sVchide;
p2777
F1
sVantique
p2778
F1
sVenter;
p2779
F1
sVprovocation.
p2780
F1
sVflatter
p2781
F1
sVold;
p2782
F1
sVborn
p2783
F4
sVproductions
p2784
F1
sVdues;
p2785
F1
sVbore
p2786
F4
sVdevotion.
p2787
F1
sVspoiled)
p2788
F1
sVunavoidable
p2789
F1
sVgentle,
p2790
F1
sVaccept,
p2791
F1
sVmonth,
p2792
F5
sVmonth.
p2793
F1
sVdenied
p2794
F2
sV"vanessa
p2795
F1
sVblockhead,
p2796
F1
sVsix.
p2797
F1
sVpartridge,
p2798
F4
sVgraduated
p2799
F1
sVnotion.
p2800
F1
sVthereby.
p2801
F1
sVchaff
p2802
F1
sVtheirs
p2803
F1
sVnewspapers
p2804
F2
sVmonths
p2805
F4
sVanima
p2806
F1
sVdigestion
p2807
F1
sVpays
p2808
F1
sVbound
p2809
F1
sVbalanced
p2810
F1
sVdisdain,
p2811
F2
sVlewd
p2812
F2
sVstumble
p2813
F1
sVconfessed,
p2814
F3
sVamidst
p2815
F1
sVdisdain.
p2816
F1
sVmantua;
p2817
F1
sVwag
p2818
F1
sVbusiness?
p2819
F1
sVsuffice
p2820
F1
sVsovereign
p2821
F2
sVfight
p2822
F3
sVwhy,
p2823
F1
sVway
p2824
F13
sVlordship's
p2825
F1
sVpretended,
p2826
F1
sVwas
p2827
F241
sVwilkins.
p2828
F1
sVlowest
p2829
F1
sVsnowy
p2830
F2
sVsomething
p2831
F8
sVconverse
p2832
F3
sVhouse-keeper.
p2833
F1
sVpay.
p2834
F1
sVpay,
p2835
F2
sVleads.
p2836
F1
sVtrue
p2837
F15
sVdespreaux.
p2838
F1
sVimpatience,
p2839
F2
sVvirgil--
p2840
F1
sVjuice:
p2841
F1
sVprayed
p2842
F2
sVpromises
p2843
F1
sVinclusive
p2844
F1
sVscore,
p2845
F2
sVconcern,
p2846
F1
sVbrother:
p2847
F1
sVguessed
p2848
F1
sVsubsist
p2849
F3
sVpromised
p2850
F1
sVjuice,
p2851
F1
sVprayer
p2852
F3
sVbrother,
p2853
F1
sVbooks,"
p2854
F1
sVsong,
p2855
F1
sVtibullus's
p2856
F1
sVuncorrupt
p2857
F1
sVfriend,"
p2858
F1
sVvaluing
p2859
F1
sVbed.
p2860
F1
sVbed,
p2861
F1
sVpace,
p2862
F1
sVtolerable.
p2863
F2
sVfrolic
p2864
F1
sVnoailles
p2865
F1
sVexpress,
p2866
F1
sVhizzing,
p2867
F1
sVbrothers
p2868
F1
sVo'clock
p2869
F1
sVours;
p2870
F1
sVpolite
p2871
F4
sVobjections,
p2872
F1
sVours.
p2873
F1
sVcheated
p2874
F1
sVbestowed
p2875
F3
sVpainting
p2876
F1
sVmuses,
p2877
F1
sVtogether
p2878
F11
sVvictory.
p2879
F1
sVvictory,
p2880
F1
sVreception
p2881
F2
sVread."
p2882
F1
sVphlegm.
p2883
F1
sVtow'rds
p2884
F1
sVdance
p2885
F1
sVdisturbance
p2886
F1
sVgrateful
p2887
F1
sVbattle
p2888
F6
sVmine.
p2889
F3
sVsoothed
p2890
F1
sVcertainly
p2891
F4
sVhovers
p2892
F1
sVturn.
p2893
F2
sVparnassus
p2894
F1
sVturn,
p2895
F3
sVterror
p2896
F1
sVanjou;
p2897
F1
sVobjected,
p2898
F1
sVavarice;
p2899
F1
sVemergencies
p2900
F1
sVaesop
p2901
F4
sVparticles;
p2902
F1
sVfeeble
p2903
F2
sVperceived
p2904
F2
sValtering
p2905
F1
sVturns
p2906
F5
sVbarbarity.
p2907
F1
sVsteeple
p2908
F3
sV"i'll
p2909
F1
sVappear,
p2910
F5
sVbrave
p2911
F2
sVtwenty-two,
p2912
F2
sVhoop!
p2913
F1
sVexcess;
p2914
F1
sVspiders,
p2915
F1
sVcost
p2916
F2
sVscarcity
p2917
F2
sVspiders'
p2918
F2
sVcurse
p2919
F2
sVappear
p2920
F7
sVassistance
p2921
F2
sVflame;
p2922
F2
sVflame:
p2923
F1
sVshared
p2924
F1
sVappeal
p2925
F2
sVexchanges,
p2926
F2
sVsatisfy
p2927
F1
sVcollateral
p2928
F1
sVwidow
p2929
F1
sVtemple:
p2930
F1
sVinspiring
p2931
F3
sVdeserts;
p2932
F1
sVhecatomb,
p2933
F1
sVtemple,
p2934
F5
sVroaring
p2935
F1
sVappears
p2936
F8
sVchange
p2937
F9
sVoak,
p2938
F1
sVflames
p2939
F1
sVgeese,
p2940
F1
sVcurs,
p2941
F1
sVshare,
p2942
F1
sVshare.
p2943
F1
sVoak?
p2944
F1
sVusually
p2945
F10
sVancient
p2946
F23
sVcountry's
p2947
F1
sVindustry,
p2948
F1
sVretired
p2949
F1
sVsincerely
p2950
F2
sVrarely
p2951
F2
sVinfidelity
p2952
F1
sVbreed,
p2953
F1
sVdissemble;
p2954
F1
sVprove
p2955
F12
sVyou."
p2956
F1
sVresigns
p2957
F1
sVlivy
p2958
F1
sVlive
p2959
F12
sVplanted
p2960
F1
sVwonderfully
p2961
F1
sVangels
p2962
F1
sVsoft,
p2963
F3
sVentrance
p2964
F1
sVmissionaries
p2965
F1
sVclub
p2966
F1
sVrepentance
p2967
F1
sVitalian,
p2968
F1
sVgentlemen,
p2969
F4
sVheart-burning,
p2970
F1
sVdefeats
p2971
F1
sVfortified
p2972
F1
sVfor't,
p2973
F1
sVcat
p2974
F1
sVrepealed.
p2975
F1
sVgathers
p2976
F3
sVincidents
p2977
F1
sVcan
p2978
F64
sVsurname;
p2979
F1
sVravens.
p2980
F1
sVimitation
p2981
F1
sVspy
p2982
F1
sVhears
p2983
F1
sVkept,
p2984
F2
sVhabitations.
p2985
F1
sVpaused
p2986
F1
sVheard
p2987
F12
sVgalen
p2988
F1
sVrefine
p2989
F1
sVlocks,
p2990
F1
sVphrase
p2991
F3
sVspreads
p2992
F1
sVtrophies
p2993
F3
sVwrite
p2994
F6
sVvamped
p2995
F1
sVfuture,
p2996
F2
sVsurrey,
p2997
F1
sVnose,
p2998
F1
sVsurrey.
p2999
F1
sVarmies
p3000
F3
sVsacrifice
p3001
F1
sVaverted
p3002
F1
sVevander.
p3003
F1
sVbawl
p3004
F1
sVevander,
p3005
F1
sVproduce
p3006
F6
sVpause,
p3007
F1
sVheroes
p3008
F6
sVhear.
p3009
F1
sV_homo
p3010
F1
sVlifting
p3011
F2
sVremember
p3012
F6
sV1718.
p3013
F1
sVwhenever
p3014
F4
sVgodmother,
p3015
F1
sVoffend
p3016
F1
sVwrit,
p3017
F3
sVno.
p3018
F1
sVindeed
p3019
F4
sVforfeit
p3020
F1
sVdisplayed
p3021
F1
sVraised
p3022
F1
sVplayful
p3023
F1
sVbrain
p3024
F1
sVwealth:
p3025
F1
sVstayed
p3026
F3
sVno;
p3027
F1
sVcold
p3028
F1
sVstill
p3029
F34
sVfor.
p3030
F1
sVtrifle
p3031
F1
sVtending
p3032
F1
sVm.a.
p3033
F2
sVburst.
p3034
F1
sVforms
p3035
F8
sVlow.
p3036
F1
sVwindow
p3037
F1
sVspacious
p3038
F2
sVwon,
p3039
F1
sVintrigue,
p3040
F1
sVfeats
p3041
F1
sVspirits,
p3042
F1
sVfling
p3043
F1
sVaffirm,
p3044
F1
sVextinguished
p3045
F1
sVintroduce
p3046
F1
sVbrutes
p3047
F2
sVdingley_,
p3048
F1
sVtails
p3049
F1
sVhalf
p3050
F25
sVnot
p3051
F221
sVneighbourhood.
p3052
F1
sVnow
p3053
F70
sVnor
p3054
F54
sVreceives,
p3055
F1
sVwont
p3056
F2
sVeducation,
p3057
F3
sVtindal
p3058
F1
sVservant
p3059
F3
sVdrop
p3060
F1
sVestates,
p3061
F1
sVbirthday,
p3062
F4
sVbirthday.
p3063
F1
sVform;
p3064
F1
sVentirely
p3065
F6
sVraises
p3066
F1
sVintimates,
p3067
F1
sVfired
p3068
F1
sVstooping
p3069
F1
sVdirecting
p3070
F1
sVcar,
p3071
F1
sVyear
p3072
F16
sVet
p3073
F1
sVhappen
p3074
F16
sVavoided
p3075
F1
sVpills
p3076
F1
sVamusement
p3077
F2
sVshown
p3078
F1
sVworst.
p3079
F2
sVfoes,
p3080
F1
sVkingdom;
p3081
F1
sVcould,
p3082
F2
sVsees,
p3083
F1
sVpalace,
p3084
F1
sVthirst
p3085
F1
sVhastily
p3086
F2
sVincrease
p3087
F2
sVkingdom,
p3088
F6
sVkingdom.
p3089
F2
sVcould?
p3090
F1
sVrational
p3091
F2
sVfancy.
p3092
F1
sVreceiving
p3093
F1
sVnomenclators,
p3094
F1
sVshows
p3095
F3
sVinevitably
p3096
F1
sVfire,
p3097
F3
sVfire.
p3098
F2
sVadvantages
p3099
F6
sVcombatant
p3100
F1
sVfire;
p3101
F1
sVominous
p3102
F1
sVcare
p3103
F11
sVshow,
p3104
F1
sVtriumphs
p3105
F1
sVshow.
p3106
F1
sVspectators,
p3107
F1
sVcontemplation
p3108
F1
sVunsung
p3109
F1
sVbritish
p3110
F1
sVhonest
p3111
F5
sVperfection.
p3112
F1
sVprofess
p3113
F1
sViron.
p3114
F1
sViron,
p3115
F1
sVblind
p3116
F3
sVlovers'
p3117
F1
sVconsecrate
p3118
F1
sVbrain.
p3119
F2
sVended,
p3120
F1
sVimpossible
p3121
F3
sVmessage
p3122
F2
sV'em
p3123
F3
sVsize
p3124
F4
sVsheet
p3125
F1
sVsilent
p3126
F6
sVcaught
p3127
F2
sVbreed
p3128
F1
sVsystems,
p3129
F1
sVbrother-god
p3130
F1
sVignorant,
p3131
F1
sVtragic
p3132
F1
sVdunces
p3133
F1
sVframe
p3134
F1
sVfriend
p3135
F8
sVdue;
p3136
F1
sVpomp
p3137
F1
sVthat
p3138
F400
sVviolence,
p3139
F1
sVprometheus
p3140
F1
sVquae
p3141
F1
sVpoliteness,
p3142
F1
sVflowers
p3143
F1
sVamiable
p3144
F1
sVthan
p3145
F65
sVto-morrow,
p3146
F1
sVrevenues,
p3147
F1
sVrecruit
p3148
F1
sVhousehold,
p3149
F1
sVfruits
p3150
F1
sVextinguish
p3151
F2
sVsublime
p3152
F2
sVtroublesome
p3153
F1
sVangel
p3154
F3
sVremained
p3155
F2
sVfreedom,
p3156
F1
sV(and
p3157
F3
sVelysian,
p3158
F1
sVartful
p3159
F1
sVdistorted
p3160
F1
sVanger
p3161
F3
sVdevoured.
p3162
F2
sVrecover
p3163
F1
sVpothooks
p3164
F1
sVarmed,
p3165
F1
sVoffering
p3166
F1
sVstead;
p3167
F1
sVmr.
p3168
F10
sVforming
p3169
F1
sVstead,
p3170
F1
sVstead.
p3171
F1
sVsupporting
p3172
F1
sVbegin
p3173
F6
sVrather,
p3174
F1
sVimpossible;
p3175
F1
sVevaporate
p3176
F1
sVbeing,
p3177
F2
sVentertained,
p3178
F1
sVbrutus
p3179
F1
sVdesires,
p3180
F2
sVtalents
p3181
F5
sVhurled
p3182
F1
sVdancing-master's
p3183
F1
sVmanuscript,
p3184
F1
sVhonour,
p3185
F4
sVpride;
p3186
F2
sVremote,
p3187
F1
sVfortification.
p3188
F1
sVpride,
p3189
F10
sVhonour;
p3190
F2
sVpride.
p3191
F2
sVinn
p3192
F1
sVground
p3193
F2
sVenriches
p3194
F1
sVesther,
p3195
F1
sVtitle
p3196
F1
sVseen;
p3197
F1
sVsaints
p3198
F4
sVembittered
p3199
F1
sVstaid
p3200
F1
sVonly
p3201
F37
sVinventions
p3202
F2
sVshrill
p3203
F1
sVseen,
p3204
F1
sVfoundations;
p3205
F1
sV'tis
p3206
F14
sVtruly
p3207
F2
sVcannot
p3208
F29
sVenglish),
p3209
F1
sVhonours
p3210
F3
sVstroll
p3211
F2
sVfriends;
p3212
F4
sVfriends:
p3213
F1
sVnext,
p3214
F3
sV_brutum
p3215
F1
sVseldom
p3216
F8
sVeffectual
p3217
F1
sVrhymes,
p3218
F1
sVfriends,
p3219
F4
sVfriends.
p3220
F3
sVignorance,
p3221
F2
sVraptures,
p3222
F1
sVconcert
p3223
F1
sVburst
p3224
F2
sVunmarried
p3225
F1
sVdismissed.
p3226
F1
sVunfit
p3227
F2
sVconcern
p3228
F3
sVcome,
p3229
F2
sVcome.
p3230
F1
sVheroes;
p3231
F1
sVcolours
p3232
F1
sVcomplexion
p3233
F1
sVtutor,
p3234
F1
sVbetween
p3235
F17
sVabuses,
p3236
F1
sVimport
p3237
F2
sVwhipped
p3238
F1
sVnotice
p3239
F3
sVhobbes;
p3240
F1
sVwaring,
p3241
F2
sVblame
p3242
F1
sVwait,
p3243
F2
sVplutarch's
p3244
F1
sVarticle
p3245
F1
sVtutors
p3246
F1
sValready,
p3247
F1
sVfought,
p3248
F1
sVinward
p3249
F1
sVcomes
p3250
F6
sVjavelins,
p3251
F1
sVimpediments
p3252
F1
sVforeboding
p3253
F1
sVlearning
p3254
F7
sVmerriest
p3255
F1
sVcares
p3256
F2
sVinformed
p3257
F3
sVesteemed,
p3258
F1
sVmanners."
p3259
F1
sVsystems
p3260
F1
sVmonsieur
p3261
F1
sVsunday,
p3262
F2
sVhomely
p3263
F1
sVobservers
p3264
F1
sVif,
p3265
F2
sVbeauty's
p3266
F3
sVsuspected
p3267
F1
sVthese
p3268
F32
sVdanger.
p3269
F1
sVcupid,
p3270
F2
sVcare;
p3271
F1
sVtrick
p3272
F1
sVdregs
p3273
F1
sVde-_
p3274
F1
sVcare.
p3275
F2
sVdanger?
p3276
F1
sVcupid;
p3277
F1
sVperson's
p3278
F1
sVconsults
p3279
F1
sVsiege,
p3280
F1
sVcommander
p3281
F2
sVheels
p3282
F1
sVcommanded
p3283
F5
sVmultitudes
p3284
F1
sVship
p3285
F1
sVgenerously
p3286
F1
sVlimited:
p3287
F1
sVdisconcerted,
p3288
F1
sVinquire
p3289
F1
sVgentlemen
p3290
F7
sVpoetic
p3291
F4
sVfollowers
p3292
F1
sVcharge.
p3293
F1
sVdunces.
p3294
F1
sVadjusted,
p3295
F1
sVswore,
p3296
F1
sVnoble
p3297
F7
sVmultitude,
p3298
F2
sVspleen,
p3299
F3
sVspleen.
p3300
F1
sVblackmore
p3301
F1
sVdispositions,
p3302
F1
sVheel;
p3303
F1
sVfruit
p3304
F1
sVdespatched
p3305
F1
sVswallow
p3306
F1
sVpoetry,
p3307
F1
sVcreech:
p3308
F1
sVsevere
p3309
F3
sVbreeze
p3310
F1
sVbetrayed,
p3311
F1
sV_flendus
p3312
F1
sVarmour
p3313
F6
sVvaluable
p3314
F2
sVrepetition,
p3315
F1
sVrule,
p3316
F2
sVtouch
p3317
F3
sVpollutions
p3318
F1
sVspeed
p3319
F2
sVporcupines.
p3320
F1
sVdeath
p3321
F15
sVthinking
p3322
F2
sVsenseless
p3323
F2
sVimprovement
p3324
F1
sVeither.
p3325
F1
sVallude
p3326
F1
sVeither,
p3327
F1
sVbreeding,
p3328
F2
sVconduct,
p3329
F1
sVlatter;
p3330
F1
sVstruck
p3331
F4
sVreal
p3332
F4
sVread
p3333
F11
sVoffence
p3334
F1
sVspecimen
p3335
F2
sVdeists,
p3336
F1
sVearly
p3337
F2
sVearnest
p3338
F1
sVmisplaced;
p3339
F1
sVusing
p3340
F1
sVexecution
p3341
F1
sVlady
p3342
F6
sVlearnedly
p3343
F1
sVfortune
p3344
F10
sVheightened
p3345
F1
sVtrumpery
p3346
F1
sVpounds
p3347
F1
sVengross
p3348
F1
sVwiles;
p3349
F1
sVbenefit
p3350
F2
sVhero,
p3351
F1
sVtwelve
p3352
F1
sVservile
p3353
F1
sVcredit,
p3354
F2
sVexposes
p3355
F1
sVquakers,
p3356
F1
sVogleby,
p3357
F1
sVduration
p3358
F2
sVcredit;
p3359
F1
sVpeace,
p3360
F2
sVpassions
p3361
F3
sVperverse
p3362
F3
sVrecorded
p3363
F1
sVdies
p3364
F1
sVlabour,
p3365
F2
sVassembly
p3366
F2
sVslops:
p3367
F1
sVbusiness
p3368
F6
sVsixth
p3369
F1
sVseine
p3370
F1
sVflinched
p3371
F1
sVuneasy
p3372
F1
sVincline
p3373
F1
sVinnocence
p3374
F1
sVassemble
p3375
F1
sVthrow
p3376
F2
sVfondness
p3377
F2
sVcomparison
p3378
F2
sVreason-boasting
p3379
F1
sVfabling
p3380
F1
sVpassion:
p3381
F1
sVappellation.
p3382
F1
sVboldly
p3383
F1
sVjourney
p3384
F1
sVwolf
p3385
F1
sVdissolves;
p3386
F1
sVconceals
p3387
F1
sVtestimony
p3388
F1
sVwithout.
p3389
F1
sVtheft,
p3390
F1
sVpleased;
p3391
F1
sVwhole,
p3392
F3
sVstrangury.
p3393
F1
sVphilosopher,
p3394
F1
sVverily
p3395
F1
sVsottish
p3396
F2
sVyour
p3397
F70
sVrestless
p3398
F1
sVmodern;
p3399
F1
sVposterity?
p3400
F1
sVprepare
p3401
F1
sVassumed
p3402
F1
sVreasoners,
p3403
F1
sVcemeteries,
p3404
F1
sVstart
p3405
F1
sVpoured
p3406
F2
sVlow
p3407
F5
sVstars
p3408
F5
sVpoliteness
p3409
F3
sVcomposures
p3410
F1
sVbess.
p3411
F1
sVassumes
p3412
F1
sVyou.
p3413
F1
sVyou,
p3414
F9
sVprotest;
p3415
F1
sVphilosophers
p3416
F2
sVyou;
p3417
F2
sVcottage
p3418
F2
sVhire
p3419
F1
sVdeclined,
p3420
F1
sVdefault
p3421
F1
sVstar,
p3422
F1
sVare,
p3423
F4
sVlo,
p3424
F1
sVromances;
p3425
F1
sVhome,
p3426
F4
sVcat;
p3427
F1
sVapollo,
p3428
F2
sVstar;
p3429
F1
sVposterity,
p3430
F1
sVaraby
p3431
F1
sVdescribe
p3432
F2
sVmoved
p3433
F1
sV"why,"
p3434
F1
sVarises
p3435
F1
sVmoves
p3436
F3
sVthither
p3437
F2
sVdogmatical
p3438
F1
sVevenings
p3439
F1
sVyou
p3440
F93
sVpoor
p3441
F11
sVspells,
p3442
F1
sVmove.
p3443
F1
sVsuited
p3444
F1
sVintent,
p3445
F1
sVbuilding
p3446
F1
sVfool.
p3447
F2
sVevening,
p3448
F1
sVevening.
p3449
F1
sVsheep's
p3450
F1
sVfool;
p3451
F1
sVdoubted
p3452
F1
sVbounty,
p3453
F1
sVlibrary.
p3454
F2
sVlibrary,
p3455
F10
sVlopped
p3456
F1
sVmonth
p3457
F19
sVimbibed;
p3458
F1
sVamong,
p3459
F1
sVmeant.
p3460
F1
sVcringes,
p3461
F1
sVsolicit
p3462
F1
sVsafety
p3463
F1
sVvery
p3464
F62
sVdivinum_
p3465
F1
sVhorror
p3466
F1
sVtuscany,
p3467
F1
sVrogue
p3468
F1
sVdecide
p3469
F1
sVbegot
p3470
F1
sVheaven
p3471
F4
sVlouis
p3472
F1
sVnonsense,
p3473
F1
sVexpedients;
p3474
F1
sVpunish
p3475
F2
sVprohibitions
p3476
F1
sVclergy,
p3477
F1
sVexpedients,
p3478
F1
sVi'll
p3479
F7
sVunheard
p3480
F1
sVetesian
p3481
F1
sVunconfined,
p3482
F1
sVanswer,
p3483
F5
sV"rogue,
p3484
F1
sVfleer,
p3485
F1
sVi."
p3486
F1
sVconscience
p3487
F1
sVdissertation
p3488
F1
sVhim:
p3489
F1
sVhim;
p3490
F1
sVecclesiastical
p3491
F1
sVparishes,
p3492
F1
sVinterpose,
p3493
F2
sVpope,
p3494
F1
sVhim.
p3495
F10
sVaffections;
p3496
F1
sVlearned
p3497
F14
sVwomankind
p3498
F1
sVpredictions:
p3499
F1
sVpredictions;
p3500
F2
sVanswers
p3501
F5
sVfixed,
p3502
F1
sVpredictions,
p3503
F3
sVbribes
p3504
F1
sVlouder,
p3505
F2
sVstreet.
p3506
F1
sVtrunk
p3507
F1
sVstrong
p3508
F8
sVdilapidations
p3509
F1
sVconviction
p3510
F1
sVhouses
p3511
F1
sVinspired
p3512
F3
sVthereof.
p3513
F2
sVamount
p3514
F1
sVobtrude
p3515
F1
sVadieu.
p3516
F1
sV(what
p3517
F1
sV'twas
p3518
F6
sVfamily
p3519
F2
sVcourtier
p3520
F1
sVask
p3521
F4
sVprinting,
p3522
F1
sVaimed
p3523
F2
sVpasses,
p3524
F1
sVstory,
p3525
F2
sVnauseous
p3526
F2
sVtakes
p3527
F3
sVgrieved,
p3528
F1
sVcontains
p3529
F1
sVtaken
p3530
F10
sVinjury
p3531
F4
sVejected
p3532
F1
sVexcuse
p3533
F3
sVcommenced
p3534
F1
sVbroke
p3535
F9
sVmounted
p3536
F5
sVproducing
p3537
F1
sVpews:
p3538
F1
sVfree-born
p3539
F1
sVhelped
p3540
F2
sVhermits,
p3541
F1
sVtake;
p3542
F1
sVhorses;
p3543
F1
sVoffended
p3544
F1
sVhorses'
p3545
F1
sVnine
p3546
F3
sVhistory
p3547
F1
sVmiserable;
p3548
F1
sVsoils,
p3549
F1
sVforth,
p3550
F1
sVfury,
p3551
F1
sVtriumph,
p3552
F1
sVleather
p3553
F2
sVspecies
p3554
F1
sVstring
p3555
F1
sVtrust,
p3556
F1
sVcraft,
p3557
F1
sVkinds,
p3558
F1
sVprime.
p3559
F2
sVmercenaries),
p3560
F1
sVbread;
p3561
F1
sVvigilance
p3562
F1
sVtried
p3563
F4
sVrude
p3564
F2
sVcommunicating
p3565
F1
sVclimate,
p3566
F1
sVderived
p3567
F2
sVcourts:
p3568
F1
sVfoes:
p3569
F1
sVfoes;
p3570
F1
sVtries
p3571
F1
sVinvasion
p3572
F1
sVcourts,
p3573
F2
sVa
F945
sVcontrived
p3574
F1
sVforesee,
p3575
F1
sVshroud,
p3576
F1
sVdear,
p3577
F2
sVdread
p3578
F1
sVorator,
p3579
F1
sVdispersing
p3580
F1
sVdream
p3581
F1
sVremnants
p3582
F1
sVhelp
p3583
F3
sVgrandfather,
p3584
F1
sVsoon
p3585
F15
sVgrandfather.
p3586
F1
sVheld
p3587
F7
sVstaunch
p3588
F1
sVwrote,
p3589
F1
sVoccasion;
p3590
F1
sVexact
p3591
F1
sVlabours
p3592
F2
sVreluctance
p3593
F1
sVfair,
p3594
F2
sVoccasion.
p3595
F1
sVminute
p3596
F4
sVoccasion,
p3597
F2
sVparacelsus
p3598
F1
sVfair;
p3599
F1
sVfair:
p3600
F1
sVfull,
p3601
F1
sVboastings
p3602
F1
sVdwells,
p3603
F1
sVfiner
p3604
F1
sVfool
p3605
F1
sVguns,
p3606
F1
sVevening
p3607
F2
sVdigging
p3608
F1
sVfood
p3609
F4
sVnought,
p3610
F1
sVdesunt_
p3611
F1
sVbetrayed.
p3612
F1
sVfoot
p3613
F6
sVsown,
p3614
F1
sVfine,
p3615
F2
sVbanished
p3616
F1
sVoccasions
p3617
F3
sVsystem,
p3618
F2
sVbless
p3619
F2
sVmark,
p3620
F1
sVstopped
p3621
F2
sVreferred
p3622
F1
sVheavy
p3623
F4
sVdistemper:
p3624
F1
sVpuppet's
p3625
F1
sVthirty,
p3626
F1
sVhouse,
p3627
F2
sVdistemper.
p3628
F1
sVenemy's
p3629
F8
sVhouse;
p3630
F1
sVbeyond
p3631
F4
sVevent
p3632
F1
sVas,
p3633
F3
sVpartnership,
p3634
F1
sVpresumptuous
p3635
F1
sVunnatural
p3636
F1
sVrobert
p3637
F4
sVsince
p3638
F18
sVpublish
p3639
F3
sVjolly
p3640
F1
sVsustain
p3641
F1
sVissue
p3642
F5
sVass
p3643
F4
sVconstitution,
p3644
F1
sVwisest
p3645
F2
sVdirt
p3646
F3
sVupon
p3647
F128
sVinscribed
p3648
F1
sVreason
p3649
F20
sVbase
p3650
F3
sVbrightest
p3651
F1
sVput
p3652
F13
sVearliest
p3653
F1
sVknow'st
p3654
F1
sVplayed,
p3655
F1
sVdaggled
p3656
F1
sVterrible
p3657
F4
sVsickness_,
p3658
F2
sVscouts
p3659
F1
sVguide.
p3660
F2
sVsexes,
p3661
F2
sVblush
p3662
F2
sVassign
p3663
F1
sVbeggary
p3664
F1
sVmerry
p3665
F2
sValbum,
p3666
F1
sVauthor,
p3667
F4
sVauthor.
p3668
F1
sVreflected
p3669
F1
sVelder
p3670
F1
sVunexpected
p3671
F1
sVminutes,
p3672
F1
sVflatter:
p3673
F1
sVmist
p3674
F1
sVmiss
p3675
F5
sVlace:
p3676
F1
sVhorse
p3677
F4
sVperturbation
p3678
F1
sVmarched,
p3679
F1
sVst.
p3680
F3
sVobedience
p3681
F1
sVbelongs
p3682
F1
sVstation
p3683
F1
sVhundred
p3684
F15
sVbowed
p3685
F1
sVdisputed.
p3686
F1
sVpassed
p3687
F9
sVminutest
p3688
F2
sVbower
p3689
F1
sVcowards;
p3690
F1
sVblindly
p3691
F1
sVtranslation
p3692
F1
sVflattery
p3693
F2
sVgrew
p3694
F10
sVkindly
p3695
F1
sVkindle
p3696
F1
sVtoward
p3697
F2
sVexamines,
p3698
F1
sVwithered
p3699
F2
sVbrains.
p3700
F3
sVpromiseth
p3701
F1
sVapprove,
p3702
F1
sVhire,
p3703
F1
sVlie
p3704
F2
sVpatterns
p3705
F1
sVcave
p3706
F1
sVphysic?
p3707
F1
sVlabour
p3708
F2
sVuseless
p3709
F1
sVangel's
p3710
F2
sVtowards
p3711
F7
sVquoth
p3712
F1
sVboyle's
p3713
F2
sVvirgin
p3714
F3
sVthreepence
p3715
F1
sVaccoutred
p3716
F1
sVemperor,
p3717
F1
sVplunder
p3718
F1
sVemperor.
p3719
F1
sVbridle.
p3720
F1
sVarmours,
p3721
F1
sVclear
p3722
F2
sVunreasonable
p3723
F1
sVgloves,
p3724
F1
sVlordship
p3725
F1
sVlatest
p3726
F1
sVinconveniences,
p3727
F1
sVindignation,
p3728
F3
sVtincture
p3729
F4
sVsundry
p3730
F1
sVauthors
p3731
F3
sVtree,
p3732
F1
sVnations,
p3733
F1
sVbegets
p3734
F1
sVgondibert
p3735
F1
sVnorthern
p3736
F2
sVchaste,
p3737
F1
sVjustice
p3738
F1
sVglove.
p3739
F1
sVless
p3740
F18
sVdarted
p3741
F6
sVflights
p3742
F3
sVannals
p3743
F1
sVbeauteous
p3744
F2
sVcircle
p3745
F3
sVtest;
p3746
F1
sVbeget,
p3747
F1
sVheaven,
p3748
F1
sVheaven.
p3749
F1
sVmeanwhile
p3750
F3
sVsensible
p3751
F4
sVtrees
p3752
F2
sVfamous
p3753
F7
sVfeels
p3754
F2
sVheaven;
p3755
F1
sVduring
p3756
F3
sVimitating
p3757
F1
sVchimney
p3758
F4
sValteration
p3759
F2
sVfollies,
p3760
F2
sVcourteous
p3761
F1
sVlight-horse
p3762
F1
sVemergency.
p3763
F1
sVplausible
p3764
F2
sVclose
p3765
F6
sVunsaid;
p3766
F1
sVwon
p3767
F1
sVyears,
p3768
F3
sVyears.
p3769
F3
sVhonour
p3770
F15
sVdurst
p3771
F4
sVafflicted
p3772
F1
sVyears'
p3773
F1
sVinvisibly
p3774
F1
sVdescription,
p3775
F1
sVpoorer
p3776
F1
sVdefaults!
p3777
F1
sVplanets,
p3778
F2
sVdistinguish
p3779
F2
sVsuperstition
p3780
F1
sVboth
p3781
F44
sVcondition,
p3782
F2
sVsecrets
p3783
F3
sVend);
p3784
F1
sVabove.
p3785
F3
sVabove,
p3786
F3
sVpicture,
p3787
F1
sVliked
p3788
F5
sVerrors,
p3789
F3
sVaddress
p3790
F1
sVmanners
p3791
F3
sVwhatever
p3792
F12
sVerrors;
p3793
F1
sVlikes
p3794
F1
sVvessel
p3795
F3
sVdaedalus
p3796
F1
sVdescribed
p3797
F1
sVwomankind;
p3798
F1
sVinstilled
p3799
F1
sVchariot,
p3800
F2
sVchariot.
p3801
F1
sVimports
p3802
F1
sVcollected
p3803
F2
sVinstructing
p3804
F1
sVdelights
p3805
F1
sVdame
p3806
F2
sVjesuit
p3807
F1
sVlived
p3808
F2
sVpartly
p3809
F3
sVsuccess.
p3810
F1
sVburgundy's
p3811
F1
sVconjectures,
p3812
F2
sVlike.
p3813
F1
sVlike,
p3814
F3
sVaggressor.
p3815
F1
sVlasting,
p3816
F1
sVelse
p3817
F11
sVanthony
p3818
F1
sVmanner,
p3819
F1
sVdetermination
p3820
F1
sVlike;
p3821
F1
sVdelight,
p3822
F2
sVutmost
p3823
F7
sVlook
p3824
F15
sVanimates
p3825
F1
sVpace
p3826
F2
sVwhile
p3827
F27
sVmatch
p3828
F1
sVendanger
p3829
F1
sVfleet
p3830
F1
sVanimated
p3831
F1
sVguide
p3832
F3
sVpack
p3833
F2
sVstraggling
p3834
F1
sVuse.
p3835
F1
sVuse,
p3836
F1
sVparadox,
p3837
F1
sVwarning,
p3838
F1
sVreads
p3839
F2
sVready
p3840
F6
sVlawyer.
p3841
F1
sVuse;
p3842
F2
sVcautious,
p3843
F1
sVgrant
p3844
F7
sVclear?
p3845
F1
sVgrand
p3846
F1
sVclearness
p3847
F1
sVaesop:
p3848
F1
sVaesop;
p3849
F1
sVused
p3850
F8
sVlawyers
p3851
F2
sVtub;"
p3852
F1
sVread,
p3853
F5
sVcensure
p3854
F3
sVdecency
p3855
F1
sVread;
p3856
F1
sVchanged,
p3857
F1
sVolder
p3858
F1
sVpoland
p3859
F1
sVleaves,
p3860
F2
sVchanged:
p3861
F1
sVforms.
p3862
F1
sVweakest
p3863
F1
sVambassador
p3864
F2
sVwing,
p3865
F2
sVjudgments
p3866
F1
sVwise,
p3867
F4
sVwise.
p3868
F2
sVquarters
p3869
F1
sVafra
p3870
F1
sVlimbs,
p3871
F1
sVsecond-hand;
p3872
F1
sVthroats
p3873
F1
sVvehat
p3874
F1
sVremaining
p3875
F1
sVlonger,
p3876
F1
sVmarch
p3877
F4
sVdublin_,
p3878
F1
sVshowing
p3879
F2
sVgame
p3880
F1
sVwiser
p3881
F4
sVdamage
p3882
F1
sVstunned
p3883
F1
sVlobster,
p3884
F1
sVdistance,
p3885
F4
sVamaranthine
p3886
F1
sVexcluding
p3887
F1
sVsubmission
p3888
F2
sVsignal
p3889
F2
sVmanifest
p3890
F6
sVkings!
p3891
F1
sVlast!
p3892
F2
sVlast,
p3893
F6
sVdevout)
p3894
F1
sVsome
p3895
F113
sVurgent
p3896
F1
sVbesides,
p3897
F6
sVwe,
p3898
F1
sVlast;
p3899
F1
sVfolio,
p3900
F1
sVdelivered
p3901
F4
sVgratuity
p3902
F1
sVprovidence
p3903
F4
sVabsurd,
p3904
F4
sVderide,
p3905
F1
sVcomplaisance,
p3906
F1
sVrun
p3907
F9
sVuniverse,
p3908
F1
sVsaddle,
p3909
F1
sVscythes,
p3910
F1
sVasthma,
p3911
F1
sVstep
p3912
F2
sVfather,
p3913
F7
sVbentley's
p3914
F1
sVwomb,
p3915
F1
sVabroad
p3916
F2
sVwealth
p3917
F1
sVshine
p3918
F4
sVfaith
p3919
F3
sVsurprising,
p3920
F1
sVon't,
p3921
F2
sVforbidden;
p3922
F1
sVblock
p3923
F2
sVbetters;
p3924
F1
sVseeing
p3925
F2
sVwithin
p3926
F11
sVnonsense
p3927
F1
sVbirchen
p3928
F1
sVbetters,
p3929
F3
sVbrought,
p3930
F2
sVcaressed
p3931
F1
sVplacing
p3932
F3
sVforces;
p3933
F1
sVforces,
p3934
F2
sVsmell,
p3935
F1
sVhimself
p3936
F16
sVproperly
p3937
F4
sVstella,
p3938
F6
sVnewer
p3939
F1
sVdull
p3940
F3
sVceremonies
p3941
F1
sVprinciples?
p3942
F1
sVlimpid
p3943
F1
sVlords
p3944
F1
sVpolitic
p3945
F1
sVprinciples,
p3946
F1
sVstragglers
p3947
F1
sV--that
p3948
F1
sVordered
p3949
F2
sVfrance,
p3950
F3
sVvisit,
p3951
F1
sVlanguishing
p3952
F2
sVfrance)
p3953
F1
sVunwise
p3954
F1
sV"meditations,"
p3955
F1
sVshown,
p3956
F3
sVthemselves;
p3957
F3
sVancestors
p3958
F2
sVthemselves?
p3959
F1
sVoct.
p3960
F1
sVvengeance,
p3961
F2
sVobjection
p3962
F3
sVfears
p3963
F2
sVpreachers
p3964
F2
sVthemselves.
p3965
F5
sVthemselves,
p3966
F6
sVwished
p3967
F3
sVdraw
p3968
F5
sVvenerable
p3969
F1
sVpretended
p3970
F2
sVwilliam
p3971
F17
sVdrag
p3972
F1
sVconcerns,
p3973
F1
sVconcerns.
p3974
F1
sVformal
p3975
F1
sVplayhouse,
p3976
F1
sVdapple-grey
p3977
F1
sVrequired
p3978
F1
sVresolving
p3979
F2
sVclamour,
p3980
F1
sVshe'd
p3981
F4
sVfear.
p3982
F1
sVfear,
p3983
F2
sVnight.
p3984
F1
sVbanishing
p3985
F1
sVbribe
p3986
F1
sVshe's
p3987
F3
sVaesculapius
p3988
F1
sVrequires
p3989
F3
sVcheated.
p3990
F1
sVpinioned
p3991
F1
sVeradicated
p3992
F1
sVcheerful
p3993
F1
sVgo
p3994
F10
sVcompact
p3995
F1
sVintemperance
p3996
F1
sVcells.
p3997
F1
sVfray,
p3998
F1
sVsuits
p3999
F2
sVcook-maid
p4000
F1
sVvirtuous
p4001
F2
sVconvokes
p4002
F1
sVflinging
p4003
F1
sVprudence
p4004
F3
sVmore:
p4005
F1
sVmore;
p4006
F1
sVnun.
p4007
F1
sVmore,
p4008
F7
sVmore.
p4009
F1
sVmore)
p4010
F1
sVkindled
p4011
F1
sVblame),
p4012
F1
sVsuit,
p4013
F1
sVbetwixt
p4014
F2
sVdecreed
p4015
F2
sVdryden.
p4016
F1
sVdryden,
p4017
F3
sVdignity,
p4018
F1
sVnotwithstanding
p4019
F2
sVedifice
p4020
F1
sVtethys_,
p4021
F1
sVrotten
p4022
F1
sVexperiment
p4023
F1
sVlessens
p4024
F2
sVmischief,
p4025
F1
sVmelancholy
p4026
F3
sV_september_.
p4027
F1
sV_may_,
p4028
F1
sVprescribe
p4029
F2
sVdecree;
p4030
F2
sVbelieved
p4031
F2
sVscythe
p4032
F1
sVadulterate
p4033
F1
sVsap,
p4034
F1
sVremembered,
p4035
F1
sVconvert
p4036
F1
sVplay?
p4037
F1
sVprecision,
p4038
F1
sVhaunts
p4039
F1
sVapproacher.
p4040
F1
sVplay,
p4041
F5
sVforesee
p4042
F1
sVally,
p4043
F1
sVmanage
p4044
F2
sVapprehensive
p4045
F1
sVaddressed
p4046
F2
sVwit
p4047
F21
sVdistinguish,
p4048
F1
sVdistinguish.
p4049
F1
sVsinging
p4050
F1
sVservant,
p4051
F3
sVmix'd
p4052
F1
sV_no
p4053
F1
sVagreeable
p4054
F3
sVjonathan
p4055
F10
sVservant;
p4056
F1
sVcackle
p4057
F1
sVinconsiderate
p4058
F1
sVstarted
p4059
F1
sVstatutes
p4060
F1
sVears_.
p4061
F1
sVinsincerity
p4062
F1
sV"to
p4063
F1
sVappointed
p4064
F2
sVslut's
p4065
F1
sVremain?
p4066
F1
sVwhene'er
p4067
F1
sVinterpreting.
p4068
F1
sVlapse
p4069
F1
sVfourscore.
p4070
F1
sVcrossed
p4071
F1
sVservants
p4072
F2
sVmeet
p4073
F6
sVwishes
p4074
F1
sV_alter
p4075
F2
sVcobweb;
p4076
F2
sVescaped
p4077
F1
sVpulling
p4078
F1
sVwonderful
p4079
F7
sVvoice
p4080
F6
sVcorruptions
p4081
F1
sVcobweb.
p4082
F1
sVhesitate
p4083
F1
sVfavourite,
p4084
F1
sVfarewell,
p4085
F1
sVpray,
p4086
F1
sVcomputation,
p4087
F1
sVspeech,
p4088
F2
sVfuriously
p4089
F1
sVratione
p4090
F1
sVfarm
p4091
F1
sVpeace
p4092
F7
sVimagine
p4093
F2
sVchiefs
p4094
F2
sVaborigines
p4095
F1
sVsingling
p4096
F1
sVtransfixed,
p4097
F1
sVcomprehends
p4098
F1
sVcourage,
p4099
F2
sVescape.
p4100
F1
sVintroduced
p4101
F2
sVsentiment.
p4102
F1
sVlordly
p4103
F1
sV1726.
p4104
F1
sVadvocates
p4105
F2
sVlist'ning
p4106
F1
sVfattest
p4107
F1
sVhand,
p4108
F5
sVhand.
p4109
F1
sVsweet,
p4110
F1
sVoffences
p4111
F1
sVaffectation,
p4112
F1
sVmentioned
p4113
F3
sVthrice,
p4114
F1
sVhand:
p4115
F1
sVhand;
p4116
F1
sVthence
p4117
F5
sVthis_;
p4118
F1
sV_delectos
p4119
F1
sVplayfellow
p4120
F1
sVmaster,
p4121
F1
sVpoetaster
p4122
F1
sVpure
p4123
F1
sVoffence.
p4124
F1
sVoffence,
p4125
F1
sVstout
p4126
F1
sVhands
p4127
F7
sVfront
p4128
F2
sVpensioner,
p4129
F1
sVuniversity
p4130
F1
sVmagnitude
p4131
F1
sVlay,
p4132
F1
sVintends,
p4133
F1
sVpicking,
p4134
F1
sVcommonwealth
p4135
F2
sVprinces,
p4136
F1
sV(the
p4137
F3
sVnegotiations,
p4138
F1
sVills
p4139
F1
sVscaliger,
p4140
F1
sVbedstead
p4141
F1
sVwine,
p4142
F2
sVwine.
p4143
F1
sVachievement.
p4144
F2
sVspecial
p4145
F1
sVmargarita,
p4146
F1
sVlance,
p4147
F6
sVtime:
p4148
F1
sVlittered
p4149
F1
sVministry,
p4150
F2
sVministry.
p4151
F1
sVtime,
p4152
F16
sVcritics
p4153
F1
sVlance;
p4154
F1
sVwondrous
p4155
F3
sVadmire,
p4156
F1
sVthriving
p4157
F1
sVcause
p4158
F13
sVministry;
p4159
F1
sVfly,
p4160
F1
sVugliest
p4161
F1
sV_pro_
p4162
F1
sVdwell
p4163
F2
sVundo
p4164
F1
sVattending
p4165
F1
sVcompletely
p4166
F2
sVill,
p4167
F1
sVintrudes
p4168
F1
sVkeep
p4169
F10
sVlances
p4170
F1
sVdesigned
p4171
F2
sVspite,
p4172
F3
sVclamour
p4173
F1
sVspite?
p4174
F1
sVgeneral;
p4175
F2
sVquality
p4176
F4
sV1727_,
p4177
F1
sVbe,
p4178
F4
sVbears
p4179
F1
sVrelations
p4180
F1
sVowns,
p4181
F2
sVattack
p4182
F1
sVwhistles,
p4183
F1
sVcountries
p4184
F1
sVfinal
p4185
F1
sVprone
p4186
F1
sVusurpers
p4187
F1
sVexactly
p4188
F4
sVherself
p4189
F3
sVinsignificancy
p4190
F1
sVbear:
p4191
F1
sVvisage,
p4192
F2
sVaught
p4193
F3
sVdistinguishes
p4194
F1
sVconscious
p4195
F2
sVchurlish
p4196
F1
sVbeg
p4197
F3
sVbed
p4198
F1
sVbee
p4199
F4
sVcuriosity.
p4200
F1
sVcuriosity,
p4201
F1
sVdistinguished
p4202
F5
sVgazed;
p4203
F1
sVbard
p4204
F1
sVthwarted
p4205
F1
sVlightly
p4206
F1
sVbigoted
p4207
F1
sVexpire,
p4208
F1
sVneed
p4209
F5
sVduel.
p4210
F1
sVsprinkles
p4211
F1
sVpursued
p4212
F2
sVconsequence?
p4213
F1
sVable
p4214
F11
sVbattles
p4215
F1
sVproceeding.
p4216
F2
sVinstance
p4217
F1
sVissuing
p4218
F1
sVconsequence,
p4219
F3
sVconsequence.
p4220
F1
sVvisor
p4221
F1
sVmongrel
p4222
F1
sVeagerness,
p4223
F1
sVhorse's
p4224
F1
sVadieu
p4225
F1
sVsorts?
p4226
F1
sVmeath.
p4227
F1
sVintentions
p4228
F1
sVachilles
p4229
F1
sVawe
p4230
F1
sVintrinsic
p4231
F1
sVtruce
p4232
F1
sVassemblies
p4233
F1
sValmanack-maker
p4234
F1
sVconsequences
p4235
F4
sVspleen
p4236
F5
sVsing;
p4237
F1
sValmanza
p4238
F1
sVbattle.
p4239
F1
sVgesture
p4240
F1
sVpursue;
p4241
F1
sVmournful
p4242
F2
sVbattle!
p4243
F1
sVgrovelling
p4244
F1
sVsouth-east
p4245
F1
sVsoldiers
p4246
F1
sVslow,
p4247
F1
sVarrived,
p4248
F2
sVslow.
p4249
F1
sVjoin:
p4250
F1
sVenvy
p4251
F1
sVfoe's
p4252
F1
sVtire
p4253
F1
sVhopeful
p4254
F3
sVrash
p4255
F1
sVbrighter
p4256
F1
sVemployed
p4257
F11
sVgratify
p4258
F1
sV120
p4259
F1
sVpass.
p4260
F3
sVchristians.
p4261
F1
sVview;
p4262
F2
sVby't.
p4263
F1
sVhad,
p4264
F3
sVputteth
p4265
F1
sVspot:
p4266
F1
sVdejected
p4267
F1
sVhouses,
p4268
F2
sVtalking;
p4269
F1
sVtyranny.
p4270
F1
sVoverflowing
p4271
F1
sVdangerous
p4272
F5
sVphalaris,"
p4273
F1
sVpreach
p4274
F2
sVyews.
p4275
F1
sVgoods,
p4276
F1
sVaccused
p4277
F2
sVinnocent,
p4278
F1
sVspare,
p4279
F3
sVspare.
p4280
F1
sVdeity
p4281
F1
sVmind?
p4282
F1
sVstudy.
p4283
F1
sVmind;
p4284
F5
sVstudy,
p4285
F1
sVhit;
p4286
F1
sVstrain,
p4287
F4
sVmind,
p4288
F14
sVstate
p4289
F14
sVmind.
p4290
F5
sVexpects.
p4291
F1
sVstrain;
p4292
F1
sVneither
p4293
F13
sV(though
p4294
F1
sVfools;
p4295
F1
sVcomparable
p4296
F1
sVsole
p4297
F1
sVsorely
p4298
F1
sVconstituted
p4299
F1
sVimportance
p4300
F1
sVbuckets
p4301
F1
sVmercenaries,
p4302
F1
sVkicking
p4303
F1
sVpowers;
p4304
F2
sVkey
p4305
F1
sVfools,
p4306
F2
sVprayer,
p4307
F1
sVmercenaries;
p4308
F1
sVpilgrims
p4309
F1
sVdiligent
p4310
F1
sV14th,
p4311
F1
sVminds
p4312
F4
sVinfirmities
p4313
F1
sVadmit
p4314
F2
sVexpressly:
p4315
F1
sVjoy,
p4316
F2
sVnymph
p4317
F13
sVassignation;
p4318
F1
sVtogether;
p4319
F3
sVjim
p4320
F1
sVsense;
p4321
F3
sVsense?
p4322
F1
sVinvisible
p4323
F1
sVsingularity,
p4324
F2
sVtogether,
p4325
F5
sVkings
p4326
F2
sVshoulder,
p4327
F1
sVsense.
p4328
F2
sVmeditations_.
p4329
F1
sVplunder,
p4330
F1
sVown,
p4331
F6
sVwills
p4332
F1
sVdrudgery,
p4333
F1
sVcowards
p4334
F2
sVimmense
p4335
F1
sVfield."
p4336
F1
sVslowly
p4337
F2
sVtreat
p4338
F4
sVpoet
p4339
F4
sVperiwig;
p4340
F1
sVarmies.
p4341
F2
sVown:
p4342
F1
sVown;
p4343
F7
sVmisfortunes.
p4344
F1
sVking,
p4345
F2
sVking:
p4346
F1
sVharder
p4347
F1
sVripen
p4348
F1
sVcoward,
p4349
F1
sVwill,
p4350
F3
sVwill.
p4351
F1
sVattest,
p4352
F1
sVcomets
p4353
F1
sVexpose.
p4354
F1
sVcoetera_.
p4355
F1
sVwaked,
p4356
F1
sVmodestly
p4357
F1
sVabound,
p4358
F1
sVforging,
p4359
F1
sVappearance,
p4360
F1
sVcometh
p4361
F2
sVadored
p4362
F1
sVbegan
p4363
F15
sVdiffer,
p4364
F1
sVparts
p4365
F4
sVparty
p4366
F8
sVunites,
p4367
F1
sVharanguing
p4368
F1
sVwheels;
p4369
F1
sVappearances
p4370
F2
sVeffect
p4371
F6
sVnightly
p4372
F1
sVdiscouraged
p4373
F1
sVfierce
p4374
F2
sVfrequently
p4375
F4
sVdestruction
p4376
F2
sVreflection
p4377
F1
sVi
F354
sVpart,
p4378
F7
sVpart.
p4379
F2
sVvex,
p4380
F1
sVrestore
p4381
F3
sVenormously
p4382
F1
sVdiscord
p4383
F1
sVbottom,
p4384
F1
sVfat.
p4385
F1
sVmistaken
p4386
F3
sVdose
p4387
F1
sVmistakes
p4388
F1
sVdistant
p4389
F1
sVtenderness,
p4390
F1
sVsectaries
p4391
F1
sVskill
p4392
F7
sVreach,
p4393
F2
sVdeck'd
p4394
F1
sVopposite,
p4395
F1
sVsize,
p4396
F2
sVswellings
p4397
F1
sVsize.
p4398
F1
sVindignation
p4399
F1
sVkick
p4400
F1
sVspell,
p4401
F1
sVunfruitful
p4402
F1
sVlive,
p4403
F1
sVfate
p4404
F7
sVpens,
p4405
F2
sVlibraries,
p4406
F2
sVunseen
p4407
F1
sVimmediately
p4408
F7
sVloss
p4409
F5
sVcorruptions,
p4410
F1
sVnecessary
p4411
F5
sVlost
p4412
F8
sVsages
p4413
F2
sVlose
p4414
F5
sV1720.
p4415
F1
sVsway,
p4416
F1
sVchains.
p4417
F1
sVarrows
p4418
F1
sVpickpockets,
p4419
F1
sVperfumes;
p4420
F1
sVhome
p4421
F8
sVcoquetting
p4422
F1
sVbefore,
p4423
F5
sVbefore.
p4424
F4
sVheaven's
p4425
F2
sVmadam,
p4426
F2
sVmud;
p4427
F1
sVobjected
p4428
F3
sVkettle
p4429
F1
sVfountain
p4430
F3
sVhabits,
p4431
F1
sVbefore:
p4432
F1
sVbefore;
p4433
F2
sVmud.
p4434
F1
sVhinder
p4435
F1
sVdiis
p4436
F1
sVleer,
p4437
F1
sVshe,
p4438
F2
sVabused.
p4439
F1
sVshe)
p4440
F1
sVscots
p4441
F1
sVtoftians,
p4442
F1
sVprohibited
p4443
F2
sVtold."
p4444
F1
sVinstinct
p4445
F3
sVchoked
p4446
F3
sVstanislaus
p4447
F1
sVwilliam's
p4448
F1
sVastonish.
p4449
F1
sVfreedom
p4450
F5
sVsinister
p4451
F1
sVchance
p4452
F7
sVtongue
p4453
F3
sVvogue
p4454
F1
sVequally
p4455
F2
sVcourt,
p4456
F7
sVcourt.
p4457
F1
sVfountain,
p4458
F4
sVtimes,
p4459
F5
sVfighting.
p4460
F1
sVtimes.
p4461
F1
sVcourt;
p4462
F1
sVimpatience
p4463
F1
sVleather,
p4464
F2
sVlagged
p4465
F1
sVcanting
p4466
F1
sVimperial
p4467
F1
sVprophetic
p4468
F1
sVnorth
p4469
F2
sVclear,
p4470
F1
sVtread,
p4471
F1
sVagrees
p4472
F1
sVprophecies
p4473
F1
sVeffects,
p4474
F1
sVgain
p4475
F3
sVcourts
p4476
F5
sVplenty.
p4477
F1
sVplenty,
p4478
F1
sVeat
p4479
F1
sVhe
p4480
F328
sVeyes?
p4481
F1
sVleathern
p4482
F1
sVeyes;
p4483
F3
sVtherefore,
p4484
F14
sVcruel
p4485
F4
sVconverted
p4486
F1
sVstories
p4487
F1
sVempty
p4488
F1
sVneglected,
p4489
F1
sVeyes.
p4490
F3
sVeyes,
p4491
F6
sVdisplay
p4492
F3
sVfriend.
p4493
F4
sVfriend,
p4494
F6
sVstoics
p4495
F1
sVerit
p4496
F1
sVfriend;
p4497
F1
sVrule
p4498
F2
sVresented
p4499
F1
sVkissed
p4500
F1
sVauthority
p4501
F1
sVsilks,
p4502
F1
sV_while
p4503
F1
sV'twixt
p4504
F1
sVoffensive
p4505
F3
sVstrictly,
p4506
F1
sVsocinians,
p4507
F1
sVphilosophy;
p4508
F1
sVstumps
p4509
F1
sVyours.
p4510
F1
sVstar
p4511
F1
sV_where
p4512
F1
sVcrystal,
p4513
F1
sVthirty-six
p4514
F1
sVstay
p4515
F1
sVmethinks
p4516
F2
sVyours;
p4517
F1
sVtasso
p4518
F1
sVfriends
p4519
F12
sVmoon--in
p4520
F1
sVshuns
p4521
F1
sVpedant.
p4522
F1
sVdeclines,
p4523
F1
sVportion
p4524
F2
sVimportation,
p4525
F1
sVgreeks
p4526
F1
sV"the
p4527
F5
sVfrench,
p4528
F1
sVbishops,
p4529
F1
sVpardon
p4530
F1
sVlimited
p4531
F1
sVbetter,
p4532
F1
sVbetter.
p4533
F1
sVperverted
p4534
F1
sVcaptain
p4535
F2
sVbestowing
p4536
F1
sVbetter;
p4537
F2
sVup.
p4538
F1
sVwhose
p4539
F15
sVgrace,
p4540
F2
sVcalculate
p4541
F1
sVpainters
p4542
F1
sVcommon,
p4543
F1
sVskill,
p4544
F2
sVdukes
p4545
F1
sVsorry
p4546
F3
sVaffairs:
p4547
F1
sVridiculed,
p4548
F1
sVmodern,"
p4549
F1
sVotherwise,
p4550
F2
sVcavaliers
p4551
F3
sVstraw.
p4552
F1
sVpowder,
p4553
F2
sVstolen
p4554
F1
sVaffairs.
p4555
F3
sVaffairs,
p4556
F1
sVaffect
p4557
F3
sVvast
p4558
F2
sVjudicious;
p4559
F1
sVpresent,
p4560
F4
sVgraces
p4561
F4
sVclothes
p4562
F1
sVfavoured
p4563
F2
sVlips,
p4564
F2
sVforce
p4565
F12
sVme,
p4566
F9
sVme.
p4567
F1
sVlikely
p4568
F1
sVpindar
p4569
F3
sVme?
p4570
F2
sVquill
p4571
F1
sVeven
p4572
F10
sVne'er
p4573
F18
sVdelight?
p4574
F1
sVlights
p4575
F1
sVrest.
p4576
F4
sVdr.
p4577
F4
sVnew
p4578
F17
sVever
p4579
F26
sV_pauca
p4580
F1
sVbattery,
p4581
F1
sVnever
p4582
F60
sVdrew
p4583
F9
sVmet
p4584
F6
sVdisoblige
p4585
F2
sVbrethren,
p4586
F2
sVinterpret
p4587
F1
sVdry
p4588
F1
sVwrought,
p4589
F1
sVlight.
p4590
F1
sVlight,
p4591
F3
sVlight-
p4592
F1
sVcredit
p4593
F6
sVbeloved,
p4594
F1
sVsuitable
p4595
F2
sVmenial
p4596
F1
sVwrought;
p4597
F1
sVdeaths;
p4598
F1
sVreckoned
p4599
F1
sVcampaign
p4600
F1
sVslices
p4601
F1
sVwar.
p4602
F1
sVwar,
p4603
F5
sVmoral
p4604
F1
sVgod-like
p4605
F1
sVdeceived;
p4606
F1
sVsideling,
p4607
F1
sVplenteous
p4608
F1
sVoverhear
p4609
F1
sVarmy
p4610
F5
sVright?
p4611
F1
sVarms
p4612
F4
sVright:
p4613
F1
sV"goddess,"
p4614
F1
sVcall
p4615
F20
sVrecommend
p4616
F2
sVtrot,
p4617
F1
sV1692,
p4618
F1
sVright.
p4619
F1
sVtell
p4620
F15
sValoft;
p4621
F1
sVwhatsoever
p4622
F1
sVrestored,
p4623
F1
sVguest,
p4624
F1
sVwarn
p4625
F2
sVtorment
p4626
F1
sVwarm
p4627
F3
sVinhabited
p4628
F1
sVmoulded
p4629
F1
sVshepherds
p4630
F1
sVroom
p4631
F2
sVstrollers'
p4632
F1
sVroof
p4633
F2
sVarm.
p4634
F1
sVbark,
p4635
F1
sVguise
p4636
F2
sVroot
p4637
F2
sVdefer
p4638
F1
sVdefects:
p4639
F1
sVturgescency
p4640
F1
sVgive
p4641
F27
sVrefulgent
p4642
F1
sVassemble;
p4643
F1
sVhoney
p4644
F2
sVendured.
p4645
F1
sVdegenerate
p4646
F4
sVinflamed,
p4647
F1
sVswains."
p4648
F1
sVadvancing
p4649
F1
sVinfancy,
p4650
F1
sVinfancy.
p4651
F1
sV_deorum
p4652
F1
sVfaults
p4653
F5
sVanswer
p4654
F9
sVconfessor.
p4655
F1
sVoccasion_.
p4656
F1
sVcrowding
p4657
F1
sVfried;
p4658
F1
sVreplacing
p4659
F1
sVlurk
p4660
F2
sVreconciled
p4661
F1
sVindignity
p4662
F1
sVvicious
p4663
F2
sVfood.
p4664
F1
sVvirtues.
p4665
F1
sVcholer
p4666
F1
sVcuriosity
p4667
F1
sVpurchase
p4668
F2
sVms_.
p4669
F1
sVattempt
p4670
F4
sVstill;
p4671
F1
sVprudence,
p4672
F2
sVensigns
p4673
F1
sVfault)
p4674
F1
sVdescends
p4675
F1
sVfault,
p4676
F1
sVlearning.
p4677
F1
sVdefaced
p4678
F1
sVstill.
p4679
F1
sVmaintain
p4680
F7
sVfrequent
p4681
F2
sVpredictor,
p4682
F1
sVsat,
p4683
F1
sVdown;
p4684
F2
sVfortify
p4685
F1
sVdown,
p4686
F5
sVdown.
p4687
F2
sVbudding
p4688
F1
sVbefore
p4689
F28
sVthen.
p4690
F1
sVmount.
p4691
F1
sVthen,
p4692
F12
sVmount,
p4693
F1
sVromans,
p4694
F2
sVunprovided
p4695
F1
sVcrew
p4696
F1
sVbetter
p4697
F13
sVdifferently
p4698
F1
sVconfidently
p4699
F2
sVaway:
p4700
F1
sVweakness
p4701
F3
sVwithin,
p4702
F2
sVwithin.
p4703
F1
sVmanners.
p4704
F1
sVhogs.
p4705
F1
sVunfold.
p4706
F1
sVsingularity
p4707
F1
sVbeware,
p4708
F1
sVmanners,
p4709
F2
sVcadenus'
p4710
F1
sVgrammar
p4711
F1
sVmeat
p4712
F2
sVarchys
p4713
F1
sVroast
p4714
F1
sVdulness
p4715
F4
sVwent
p4716
F13
sVside
p4717
F17
sVbone
p4718
F1
sVmean
p4719
F7
sVafforded
p4720
F1
sVenthusiasts
p4721
F1
sVvotaries,
p4722
F1
sVprinciples
p4723
F1
sVministering
p4724
F1
sVtaught
p4725
F4
sVtrading
p4726
F1
sVstealing
p4727
F1
sVexploding;
p4728
F1
sVcontend
p4729
F1
sVstart;
p4730
F1
sVdecree
p4731
F1
sVjoan.
p4732
F1
sVcontent
p4733
F6
sVmarry,
p4734
F1
sVmessage,
p4735
F1
sVreader
p4736
F8
sVconsidered:
p4737
F1
sVsurprise
p4738
F5
sV'em.
p4739
F2
sV'em,
p4740
F2
sVaid,
p4741
F3
sVresume
p4742
F1
sVrevenge
p4743
F2
sVprinciple,
p4744
F1
sVmistress
p4745
F1
sVbegan,
p4746
F3
sVsteward
p4747
F1
sVbegan;
p4748
F1
sVtale,
p4749
F1
sVarrived
p4750
F2
sVloud
p4751
F3
sVdefending
p4752
F1
sVenraged
p4753
F1
sVaesop,
p4754
F1
sVhoot
p4755
F1
sVmiscellany,
p4756
F1
sVhook
p4757
F1
sVhippocrates,
p4758
F1
sV"since
p4759
F1
sVenumerate
p4760
F1
sVmiserable
p4761
F1
sVdwelt
p4762
F5
sVknight.
p4763
F1
sVhowe'er
p4764
F1
sVmargaritians,
p4765
F1
sVapproach;
p4766
F1
sVlearn;
p4767
F1
sVapproach,
p4768
F2
sVnaught;
p4769
F1
sVexecution?
p4770
F1
sVbroils
p4771
F2
sVfeats;
p4772
F1
sVsomewhat
p4773
F3
sVinnocent
p4774
F4
sVrequisite
p4775
F1
sVpeculiar
p4776
F1
sVbegins
p4777
F1
sVdistance
p4778
F4
sVcreatures,
p4779
F1
sVbody,
p4780
F3
sVbody.
p4781
F1
sVbitterness
p4782
F1
sVimputation
p4783
F2
sVmatter
p4784
F10
sVbody;
p4785
F1
sVgirl,
p4786
F1
sVsilly
p4787
F1
sVspoiled
p4788
F4
sVgodwin
p4789
F4
sVmortifying,
p4790
F1
sVireland_,
p4791
F1
sVsees
p4792
F1
sVpalace
p4793
F2
sVbare
p4794
F1
sVmodern
p4795
F28
sVmind
p4796
F19
sV7th
p4797
F1
sVerrant;
p4798
F1
sVseen
p4799
F9
sVseem
p4800
F5
sVsounding
p4801
F1
sVseek
p4802
F2
sVtells
p4803
F4
sVfamed).
p4804
F1
sVdove,
p4805
F1
sVadamantine
p4806
F1
sVdo,
p4807
F1
sVpoint,
p4808
F4
sVpoint.
p4809
F2
sVchest
p4810
F1
sVniece
p4811
F1
sVwotton,"
p4812
F1
sVcorinna
p4813
F1
sVtell,
p4814
F1
sVreplenished
p4815
F1
sVsee:
p4816
F1
sVsee!
p4817
F1
sVsee,
p4818
F4
sVreclaims
p4819
F1
sVhood,
p4820
F1
sVimpostor
p4821
F2
sVobserved,
p4822
F5
sVworsen
p4823
F1
sVpoints
p4824
F4
sVdocility
p4825
F1
sVanti-trinitarians,
p4826
F1
sVstrong,
p4827
F2
sVsuccess,
p4828
F1
sVterms.
p4829
F1
sVgrown,
p4830
F2
sVsows
p4831
F1
sVattempts
p4832
F1
sVuneasiness
p4833
F2
sVliberty
p4834
F8
sVear,
p4835
F1
sVfield;
p4836
F1
sVjudges
p4837
F2
sVacquit
p4838
F2
sVdivinity
p4839
F1
sVmariana,
p4840
F1
sVgrecians,
p4841
F1
sVingloriously
p4842
F1
sVsaunder's
p4843
F1
sVfield.
p4844
F2
sVear:
p4845
F1
sVfolks
p4846
F4
sVbread
p4847
F1
sVhoard
p4848
F1
sVwearing
p4849
F1
sVthird,
p4850
F1
sVbit.
p4851
F1
sVcomplain:
p4852
F1
sVstop
p4853
F1
sVperceive
p4854
F3
sVcoast
p4855
F1
sVsupplies
p4856
F3
sVdelirious;
p4857
F1
sVcomply
p4858
F2
sVearl
p4859
F2
sVbar
p4860
F1
sVfields
p4861
F2
sVbad
p4862
F3
sVsoftly
p4863
F2
sVdebt,
p4864
F1
sVarchitecture
p4865
F2
sVkilkenny
p4866
F1
sVears
p4867
F1
sVother."
p4868
F1
sVthirty-six):
p4869
F1
sVunworthy
p4870
F1
sVbickerstaff's
p4871
F5
sVvanessa"
p4872
F1
sVvanessa,
p4873
F4
sVvanessa.
p4874
F1
sVsincerest
p4875
F1
sVprate
p4876
F1
sVhead-piece;
p4877
F1
sVsubject
p4878
F11
sVwits,
p4879
F2
sVsaid
p4880
F39
sVmatters,
p4881
F2
sVscrap
p4882
F1
sVplaces:
p4883
F1
sVschoolmen,
p4884
F1
sVthere's
p4885
F1
sVembroidery
p4886
F1
sVwits;
p4887
F1
sVsorts
p4888
F2
sVaristotle,
p4889
F3
sVwarrior
p4890
F1
sVlazy
p4891
F1
sVpersonate
p4892
F1
sVvows
p4893
F4
sVignorance
p4894
F3
sVweary
p4895
F1
sVgentry
p4896
F1
sVcousin
p4897
F2
sVdisorderly
p4898
F2
sVsort,
p4899
F1
sVsort.
p4900
F1
sVagainst
p4901
F47
sVapoplexy.
p4902
F1
sVh---,
p4903
F1
sVdistinction
p4904
F5
sVapothecaries'
p4905
F1
sV(those
p4906
F1
sVboors,
p4907
F1
sVappeared
p4908
F11
sVgathering
p4909
F1
sVheight
p4910
F3
sVinquisitive
p4911
F1
sVwhatso'er
p4912
F1
sVnow,
p4913
F11
sVnow.
p4914
F2
sVproceeded
p4915
F2
sVputs
p4916
F4
sVbasis
p4917
F1
sVthree
p4918
F13
sVerect
p4919
F1
sVpuppet-show
p4920
F2
sVinterest
p4921
F3
sVnow;
p4922
F4
sVheav'n
p4923
F1
sVentered
p4924
F6
sVlovely
p4925
F2
sVidol
p4926
F1
sVthrew
p4927
F5
sVbow-man
p4928
F1
sVless,
p4929
F1
sVspring.
p4930
F1
sVdeeper
p4931
F1
sVtrue,"
p4932
F1
sVsuppress
p4933
F1
sVdismiss
p4934
F1
sVguicciardini,
p4935
F1
sVheydukes
p4936
F1
sVadministration;
p4937
F1
sVsheridan
p4938
F1
sVaffirm
p4939
F2
sVaffright,
p4940
F1
sV"you,"
p4941
F1
sVinterests,
p4942
F1
sVparticular,
p4943
F1
sVugly
p4944
F1
sVnear
p4945
F11
sVsuppose
p4946
F3
sVbrass,
p4947
F1
sVmurders
p4948
F1
sVknew_:
p4949
F1
sVchanges,
p4950
F1
sVthought,
p4951
F4
sVseven
p4952
F6
sVover,
p4953
F1
sVmeet;
p4954
F1
sVis
p4955
F296
sVit
p4956
F331
sVdefeated
p4957
F1
sVshame
p4958
F4
sVcant
p4959
F1
sVjest
p4960
F1
sVin
p4961
F801
sVmouse
p4962
F1
sVcamden,
p4963
F1
sVif
p4964
F116
sVgrown
p4965
F13
sVlords,
p4966
F2
sVparish
p4967
F2
sVmake
p4968
F40
sVpractice,
p4969
F2
sVjackdaw,
p4970
F2
sVcoach.
p4971
F1
sVpractice;
p4972
F1
sVdauphiny,
p4973
F1
sVfluency
p4974
F1
sVbells
p4975
F1
sVmeets
p4976
F2
sVcan.
p4977
F1
sVcan,
p4978
F1
sVatheists,
p4979
F1
sVdelight
p4980
F4
sVtempests,
p4981
F1
sVi,
p4982
F4
sVsupposing
p4983
F1
sVi"
p4984
F1
sVopportunity
p4985
F2
sVhe'll
p4986
F1
sVthoughts
p4987
F12
sVwarded
p4988
F1
sVbell.
p4989
F1
sVweakly
p4990
F1
sVfronting
p4991
F1
sVparis,
p4992
F1
sVdirectly
p4993
F1
sVmaterials
p4994
F5
sVthreatened,
p4995
F1
sVwhere'er
p4996
F2
sVparis;
p4997
F1
sVsmoked
p4998
F1
sVyours
p4999
F2
sVside,
p5000
F9
sVleft
p5001
F17
sVfeet;
p5002
F1
sVdream.
p5003
F1
sVjust
p5004
F18
sVsentence
p5005
F1
sVdearly
p5006
F2
sVcolonels,
p5007
F1
sVassigned
p5008
F5
sVfeet,
p5009
F1
sVhuman
p5010
F22
sVjudgment,
p5011
F7
sVfacts
p5012
F1
sVyet
p5013
F52
sVimpending
p5014
F1
sVleaders.
p5015
F1
sVleaders,
p5016
F1
sVinfinitely
p5017
F1
sVregarded
p5018
F2
sVcharacter
p5019
F3
sVwings
p5020
F4
sVrakes,
p5021
F1
sVleaders;
p5022
F1
sVsave
p5023
F4
sVago,
p5024
F3
sVfact.
p5025
F1
sVboasted
p5026
F1
sVvanessa
p5027
F13
sVfact;
p5028
F1
sVwhichever
p5029
F1
sVwanting
p5030
F1
sV_june_.
p5031
F1
sVdreams
p5032
F1
sVvanity
p5033
F2
sVdignity
p5034
F5
sVcase),
p5035
F2
sVjustice,
p5036
F5
sVperforming
p5037
F1
sVunnecessary
p5038
F1
sVcase);
p5039
F1
sVnotorious
p5040
F1
sVcowardice
p5041
F1
sVcommanders
p5042
F1
sVdean
p5043
F5
sVdeal
p5044
F1
sVbookseller
p5045
F1
sVmaxim
p5046
F1
sVdead
p5047
F2
sVjupiter
p5048
F2
sVdear
p5049
F5
sVpain
p5050
F3
sVmeaning,
p5051
F1
sVamours,
p5052
F1
sVabsent
p5053
F2
sVrib;
p5054
F1
sVbuchanan,
p5055
F1
sVtrace
p5056
F1
sVprater!"
p5057
F1
sVbeget
p5058
F1
sVbold
p5059
F3
sVburn
p5060
F2
sVjester
p5061
F1
sVtold:
p5062
F1
sVpraeditum_;
p5063
F1
sVtold,
p5064
F4
sVtold.
p5065
F1
sVmissive
p5066
F1
sVflourished
p5067
F1
sVconceal
p5068
F1
sVhaply
p5069
F2
sVbrief,
p5070
F1
sVcompliment
p5071
F1
sVmarshal
p5072
F1
sVused;
p5073
F1
sVragamuffins,
p5074
F1
sVformerly
p5075
F4
sVfor,
p5076
F11
sVhelicon,
p5077
F1
sVhelicon.
p5078
F1
sVintellectual
p5079
F1
sVdown
p5080
F18
sVlies
p5081
F5
sVeducation.
p5082
F3
sVworst,
p5083
F1
sVrefined
p5084
F3
sVspurs,
p5085
F1
sVfrightened
p5086
F1
sVstage,
p5087
F1
sVmidnight,
p5088
F1
sVflying
p5089
F3
sVhardships
p5090
F1
sVbound,
p5091
F1
sVprevent,
p5092
F1
sVfactions
p5093
F2
sVform
p5094
F19
sVpoliticians,
p5095
F2
sVunmanly
p5096
F1
sVlanding
p5097
F1
sVford
p5098
F1
sVmalignity
p5099
F2
sVrefine,
p5100
F1
sVpenned
p5101
F1
sVsurrender
p5102
F2
sVcontinuance
p5103
F1
sVprotestant
p5104
F1
sVfaction,
p5105
F2
sVemboldened
p5106
F1
sVbounds
p5107
F1
sVjealous,
p5108
F1
sVtemper
p5109
F2
sVdiscovery,
p5110
F1
sVclassic
p5111
F1
sVblockhead
p5112
F1
sVone-third
p5113
F1
sVcovers
p5114
F1
sVvanity's
p5115
F1
sVdie,
p5116
F1
sVnow-born
p5117
F1
sVawhile
p5118
F1
sVdiscretion,
p5119
F1
sVdiscretion.
p5120
F1
sVmistaken;
p5121
F1
sVhominis_,
p5122
F1
sVgenerally
p5123
F8
sVsteed,
p5124
F1
sVchaffering
p5125
F1
sVmistaken.
p5126
F1
sVmistaken,
p5127
F1
sVlast:
p5128
F2
sVesteem;
p5129
F1
sVfaction
p5130
F1
sV"godlike
p5131
F1
sVfelt
p5132
F3
sVdiet
p5133
F2
sVesteem,
p5134
F2
sVfell
p5135
F10
sVstick,
p5136
F1
sVaware
p5137
F1
sVdied
p5138
F5
sVdecayed.
p5139
F1
sVdecayed,
p5140
F1
sVa-top,
p5141
F1
sVvisiting,
p5142
F1
sVdaily
p5143
F5
sVdecayed?
p5144
F1
sValmanac
p5145
F1
sVteeth
p5146
F1
sVmountains,
p5147
F1
sVsorites,
p5148
F1
sVgovernment,
p5149
F3
sVmanaged
p5150
F4
sVeldest
p5151
F1
sVpierces
p5152
F1
sVmild
p5153
F1
sVfate's
p5154
F1
sVskin
p5155
F3
sVproselytes
p5156
F1
sVdepend
p5157
F2
sVfancies
p5158
F2
sVshow
p5159
F15
sVfather
p5160
F5
sVanswered
p5161
F4
sVmarks
p5162
F4
sVsuffered
p5163
F2
sVfancied
p5164
F2
sVadvises
p5165
F1
sVabundance
p5166
F3
sVsoul;
p5167
F1
sV_imitated
p5168
F1
sVgroundless,
p5169
F1
sVsoul.
p5170
F1
sVsoul,
p5171
F1
sVadvised
p5172
F2
sVdescribe,
p5173
F1
sVpious
p5174
F3
sVconceals,
p5175
F1
sV29th,
p5176
F1
sVnectar
p5177
F1
sVtorn.
p5178
F1
sVdid
p5179
F26
sVdie
p5180
F13
sVdid."
p5181
F1
sVdig
p5182
F3
sVaccidentally
p5183
F1
sVheaded,
p5184
F1
sVpraise.
p5185
F2
sVpraise,
p5186
F4
sVcomplaineth
p5187
F1
sVround
p5188
F7
sVtalked
p5189
F2
sVfearing
p5190
F1
sVelse,
p5191
F3
sVchooseth
p5192
F1
sVromish
p5193
F1
sVfavour
p5194
F3
sV11th,
p5195
F1
sVsuspect
p5196
F1
sVingenuously,
p5197
F1
sVfilled
p5198
F6
sVriches:--the
p5199
F1
sVdweller
p5200
F1
sVguardian
p5201
F1
sVclerk
p5202
F1
sVfrench
p5203
F7
sVcoadjutor.
p5204
F1
sVthither,
p5205
F1
sVsorrily
p5206
F1
sVwait
p5207
F2
sVhere;
p5208
F2
sVboy
p5209
F3
sVbattling
p5210
F1
sVshift
p5211
F1
sVbow
p5212
F1
sVhere,
p5213
F1
sVshook
p5214
F2
sVstubbed
p5215
F1
sVslackened
p5216
F1
sVmontaigne,
p5217
F1
sVuseful
p5218
F3
sVlawfulness
p5219
F1
sVmerely
p5220
F3
sVsay--she
p5221
F1
sVcontradictions
p5222
F1
sVdublin,
p5223
F2
sVdublin.
p5224
F1
sVeverybody
p5225
F1
sVbite.
p5226
F1
sVtroops
p5227
F3
sVsharper
p5228
F1
sVsake
p5229
F3
sVlicentious
p5230
F1
sVvisit
p5231
F2
sVfrance
p5232
F3
sVsuffered,
p5233
F1
sVcabals
p5234
F1
sVways:
p5235
F1
sVsharing
p5236
F1
sVindia
p5237
F2
sVcontradiction,
p5238
F1
sV---,
p5239
F4
sVpretences
p5240
F2
sVbroomstick,
p5241
F1
sVbroomstick.
p5242
F1
sVfly
p5243
F3
sVstoop;
p5244
F1
sVcream,
p5245
F1
sVdeformed
p5246
F1
sVsoul
p5247
F5
sVsour
p5248
F1
sVdrags
p5249
F1
sVprim;
p5250
F1
sV9th
p5251
F1
sVmaking
p5252
F5
sVarrive
p5253
F2
sVniceness
p5254
F1
sVhuman-kind:
p5255
F1
sVclaim
p5256
F2
sVpredict
p5257
F2
sVapt,
p5258
F1
sVconfused
p5259
F1
sVaquinas,
p5260
F1
sVvulgar.
p5261
F1
sVcouncil
p5262
F1
sVstroke,
p5263
F1
sVwhirls
p5264
F1
sVrays
p5265
F1
sVlaracor,
p5266
F1
sVcurse,
p5267
F1
sVtill
p5268
F28
sVsword
p5269
F1
sVswore
p5270
F3
sVrosamond,
p5271
F1
sV't;
p5272
F1
sVamiss,
p5273
F1
sVmay
p5274
F83
sVfed
p5275
F1
sVmankind
p5276
F8
sVlord.
p5277
F1
sVgrow
p5278
F8
sVlord,
p5279
F9
sVman
p5280
F58
sVneck
p5281
F1
sVjohnson
p5282
F1
sV6th
p5283
F2
sVsupreme,
p5284
F1
sVtale
p5285
F2
sVundetermined:
p5286
F1
sVsilence
p5287
F4
sVdeceive
p5288
F4
sVtalk
p5289
F14
sVmiracles
p5290
F1
sVshield
p5291
F5
sVexpecteth
p5292
F1
sVpointed
p5293
F2
sVmoralist
p5294
F1
sVwishing
p5295
F1
sVargues
p5296
F1
sVentrails
p5297
F1
sVimpostors
p5298
F1
sVview,
p5299
F2
sVview.
p5300
F1
sVdoom,
p5301
F1
sVchiefest
p5302
F1
sVmonths'
p5303
F1
sVapollo's
p5304
F2
sVmonths,
p5305
F1
sVmonths.
p5306
F1
sVends,
p5307
F2
sVmaid
p5308
F1
sVsee't,
p5309
F1
sVarrow,
p5310
F1
sV1696,
p5311
F1
sVpolicy
p5312
F2
sVours
p5313
F3
sVmain
p5314
F3
sVtruest
p5315
F1
sVs---;
p5316
F1
sVcaptivated
p5317
F1
sVsooner
p5318
F2
sVintroduction.
p5319
F1
sVargue,
p5320
F1
sVbegun.
p5321
F1
sVkilled
p5322
F3
sVpossess
p5323
F3
sVphoebus,
p5324
F1
sVdefensive;
p5325
F1
sVpeasant
p5326
F1
sVcareless
p5327
F1
sVjokes,
p5328
F1
sVdefensive,
p5329
F1
sVperrault
p5330
F2
sVscheme
p5331
F3
sVsweepings
p5332
F2
sVtreacherous
p5333
F1
sVor,
p5334
F6
sVpreaching
p5335
F1
sVrelations_,
p5336
F1
sVgirl
p5337
F3
sVmorning
p5338
F2
sVassistance.
p5339
F1
sVliving
p5340
F1
sVenslavers
p5341
F1
sVmouths
p5342
F1
sVhemmed
p5343
F1
sVfeathers,
p5344
F1
sVyes!
p5345
F1
sVoxford,
p5346
F1
sVnominal
p5347
F5
sVflux.
p5348
F1
sVcorrect
p5349
F2
sVexcelled;
p5350
F1
sVfeathers:
p5351
F1
sVtoo--
p5352
F1
sVimaginable
p5353
F1
sVromans
p5354
F1
sVchastity,
p5355
F1
sVelephant,
p5356
F1
sVface,
p5357
F8
sVadvance
p5358
F3
sVlanguage
p5359
F5
sVministry
p5360
F1
sVthing
p5361
F7
sVthine
p5362
F1
sVrequireth
p5363
F1
sVvirtues,
p5364
F1
sVthink
p5365
F33
sVwaited
p5366
F1
sVfirst
p5367
F36
sVbob.
p5368
F1
sVeye:
p5369
F1
sVbut,
p5370
F29
sVnativity
p5371
F1
sVsent:
p5372
F1
sVfast
p5373
F3
sVcadenus,
p5374
F3
sVlucan,
p5375
F1
sVeye.
p5376
F1
sVlittle
p5377
F40
sVlaw
p5378
F3
sVpallas,
p5379
F6
sVplains
p5380
F1
sVfiery
p5381
F1
sVspeaking
p5382
F1
sVeyes
p5383
F7
sVpiety,
p5384
F1
sVsound,
p5385
F1
sVpresidest
p5386
F1
sV"perfidious
p5387
F1
sV"tale
p5388
F1
sVundoubtedly
p5389
F1
sVcracks
p5390
F1
sVgoddesses
p5391
F1
sVplain,
p5392
F3
sVventure
p5393
F4
sVwere
p5394
F111
sVbetty,
p5395
F1
sVqueen,
p5396
F2
sVqueen.
p5397
F1
sVspent;
p5398
F1
sVtopics
p5399
F3
sVspent,
p5400
F1
sVgratitude,
p5401
F1
sV{5}
p5402
F2
sVspeakers
p5403
F2
sVpopish
p5404
F1
sVargued,
p5405
F1
sVwretch
p5406
F1
sVgreen
p5407
F3
sVmutiny,
p5408
F1
sVchannel
p5409
F1
sVfed.
p5410
F1
sVnuisance;
p5411
F1
sVbrief;
p5412
F1
sVvoice:
p5413
F1
sVvoice;
p5414
F1
sVarguing
p5415
F1
sVpaid
p5416
F1
sVvoice,
p5417
F4
sVassault
p5418
F1
sVtopic,
p5419
F1
sVsheets
p5420
F1
sVpair
p5421
F8
sVmettle
p5422
F1
sVlacked,
p5423
F1
sVespecially
p5424
F4
sVsurprising
p5425
F2
sValone;
p5426
F1
sValone:
p5427
F1
sVgracefully
p5428
F1
sVpernicious
p5429
F3
sVporters,
p5430
F1
sVvicious.
p5431
F1
sVvicious,
p5432
F1
sValone,
p5433
F1
sVgifford,
p5434
F1
sVshot
p5435
F3
sVhairs,
p5436
F1
sVcontract,
p5437
F1
sVcorner
p5438
F3
sVstorms
p5439
F1
sVbehind
p5440
F4
sV[bodied]
p5441
F1
sVblack
p5442
F2
sV_october_,
p5443
F1
sVenthusiasm
p5444
F1
sVgoodrich,
p5445
F1
sVget
p5446
F7
sVmeanwhile,
p5447
F1
sVfifteen;
p5448
F3
sVnearly
p5449
F4
sVplum.
p5450
F1
sVbeseech
p5451
F3
sVcordials
p5452
F1
sVheroas_.
p5453
F1
sVyield
p5454
F1
sVsummary
p5455
F1
sVfootnotes:
p5456
F1
sVstupid
p5457
F4
sVforsake
p5458
F1
sVworrying
p5459
F1
sVsilently
p5460
F1
sVstreets,
p5461
F1
sVdeclared
p5462
F2
sVhonesty
p5463
F1
sVmeantime,
p5464
F2
sVseat
p5465
F1
sVrelative
p5466
F1
sVfifty-six,
p5467
F1
sVdeclares
p5468
F2
sVlight,"
p5469
F1
sVwonder
p5470
F12
sVtrade:
p5471
F2
sVpatron.
p5472
F1
sVornament
p5473
F1
sVfather's
p5474
F2
sVenough
p5475
F11
sVtrade,
p5476
F6
sVfopperies,
p5477
F2
sVreading
p5478
F1
sV_desunt_
p5479
F1
sVcountenance
p5480
F3
sVsea.
p5481
F1
sVsea,
p5482
F1
sVastrologer
p5483
F2
sVrepine,
p5484
F1
sVaccording
p5485
F4
sVflyer,
p5486
F1
sVtour
p5487
F1
sVdisappointment
p5488
F1
sVreigns
p5489
F1
sVamong
p5490
F53
sVpalisadoes,
p5491
F1
sVmaintained
p5492
F2
sVfreebooter
p5493
F1
sVdisliking
p5494
F1
sVassembled,
p5495
F1
sVcomprehend
p5496
F1
sVlaudable
p5497
F1
sVconsidering
p5498
F3
sVhundreds,
p5499
F1
sVarts
p5500
F3
sVdivine;
p5501
F1
sVmark
p5502
F3
sVsteeped
p5503
F1
sVimpudence,
p5504
F1
sVdivine,
p5505
F3
sVdivine.
p5506
F2
sVchimaeras
p5507
F1
sVeducated
p5508
F1
sVwill's
p5509
F1
sVoffered
p5510
F4
sVinnovation,
p5511
F1
sVtopsy-turvy
p5512
F1
sVthose
p5513
F73
sVsound
p5514
F1
sVdivines
p5515
F4
sVfountain-head
p5516
F1
sVart;
p5517
F1
sVart!
p5518
F1
sVperiwig,
p5519
F1
sVcivilising
p5520
F1
sVemployment?
p5521
F1
sVfound,
p5522
F2
sVart,
p5523
F10
sVart.
p5524
F1
sVlord,--in
p5525
F1
sVyoung?
p5526
F1
sVsubdued,
p5527
F1
sVendowed
p5528
F3
sVsincere
p5529
F2
sVface;
p5530
F3
sVsleeping
p5531
F1
sVmiddle
p5532
F1
sVmed'cine
p5533
F1
sVsudden
p5534
F5
sVdevour,
p5535
F1
sVwisely
p5536
F3
sVabhors
p5537
F1
sVdifferent
p5538
F9
sVdoctor
p5539
F3
sVpay
p5540
F1
sVurged,
p5541
F1
sValmanack-maker.
p5542
F1
sVsame
p5543
F32
sVopposition,
p5544
F1
sVspeech
p5545
F7
sVarguments
p5546
F2
sVamaze,
p5547
F1
sVpraised,
p5548
F1
sVstepped
p5549
F1
sVgassendi,
p5550
F1
sVchatter,
p5551
F1
sVextended
p5552
F1
sVextent;
p5553
F1
sVassist
p5554
F1
sVcompanion
p5555
F2
sVrunning
p5556
F1
sVrequire,
p5557
F1
sVdriven
p5558
F1
sVforgot,
p5559
F1
sVclimbing
p5560
F1
sVforgot.
p5561
F1
sVobstinate
p5562
F1
sVyoung.
p5563
F1
sVdrain
p5564
F1
sVlargely
p5565
F6
sVroughly
p5566
F1
sVheir,
p5567
F1
sVbottle
p5568
F1
sVlampooned
p5569
F1
sVallowance
p5570
F1
sVgenealogies,
p5571
F1
sVunexpected.
p5572
F1
sVgates
p5573
F1
sVweight,
p5574
F3
sVmoney
p5575
F1
sVlady--you
p5576
F1
sVdiscoursing
p5577
F3
sVbelow,
p5578
F4
sVasleep,
p5579
F1
sVasleep.
p5580
F1
sVdespaired
p5581
F1
sVdeceit:
p5582
F1
sVdeceit,
p5583
F1
sVtook,
p5584
F2
sVpleadings
p5585
F1
sVbank
p5586
F1
sV_coram
p5587
F1
sVadam,
p5588
F1
sVhouse."
p5589
F1
sVobligingly
p5590
F1
sVcalls,
p5591
F1
sVsight;
p5592
F1
sVinterposing,
p5593
F1
sVmow
p5594
F1
sVsight.
p5595
F1
sVsight,
p5596
F1
sV_mrs.
p5597
F2
sVsecrecy
p5598
F1
sVdisappointed
p5599
F2
sVgate,
p5600
F2
sVcareer,
p5601
F1
sVcoffee-house
p5602
F3
sVslain
p5603
F1
sVserves
p5604
F1
sVpert,
p5605
F1
sVaudience
p5606
F1
sVeither
p5607
F27
sVnice
p5608
F1
sVsuperficies,
p5609
F1
sVsecond;
p5610
F1
sVafflict
p5611
F2
sVdoll
p5612
F2
sVdrum,
p5613
F1
sV1694,
p5614
F1
sVascend
p5615
F1
sVbroke,
p5616
F1
sVsecond.
p5617
F1
sVimages
p5618
F1
sVlanguage,"
p5619
F1
sVjoan
p5620
F1
sVlondon,
p5621
F3
sVgross
p5622
F4
sVtheirs,
p5623
F1
sVcritical
p5624
F1
sVstation,
p5625
F3
sVunluckily
p5626
F1
sVuntractable;
p5627
F1
sVimage,
p5628
F1
sVauthor's
p5629
F2
sVunusual
p5630
F1
sVbroken
p5631
F2
sVvisits
p5632
F2
sVreports,
p5633
F1
sVbrancheth
p5634
F1
sVregulations
p5635
F1
sVattorney-general,
p5636
F1
sVunderstanding,
p5637
F2
sVstations
p5638
F2
sVisland
p5639
F3
sVviolence
p5640
F2
sVdesigned,
p5641
F2
sVunderstanding;
p5642
F1
sVmixed
p5643
F1
sVsudden,
p5644
F2
sVout,
p5645
F7
sVout.
p5646
F3
sVquietly
p5647
F1
sVmemorials
p5648
F1
sVesq.
p5649
F1
sVchat;
p5650
F1
sVblessed
p5651
F1
sVstrike,
p5652
F1
sVfactious
p5653
F2
sVimitates
p5654
F1
sVdreaming
p5655
F1
sVchat,
p5656
F1
sVendure.
p5657
F1
sVchiefs!
p5658
F1
sVdistracted
p5659
F1
sVbrute
p5660
F3
sVfates
p5661
F3
sVoppressions
p5662
F1
sVdecisive
p5663
F3
sVpretends
p5664
F1
sVsorrel
p5665
F1
sVmotives
p5666
F1
sVfanatic
p5667
F1
sVblessings,
p5668
F1
sVstella_,
p5669
F1
sVlodgings
p5670
F1
sVgods,
p5671
F7
sVdesunt_.
p5672
F1
sVwhite.
p5673
F1
sVland,
p5674
F2
sVcaution,
p5675
F1
sVwounded,
p5676
F1
sVpretend,
p5677
F1
sVromantic
p5678
F1
sVfate.
p5679
F2
sVfate,
p5680
F3
sVcousinship.
p5681
F1
sVfaces.
p5682
F1
sVcelestial
p5683
F4
sVmind."
p5684
F1
sVconsider,
p5685
F1
sVdeep
p5686
F4
sVgeneral
p5687
F12
sVexamine
p5688
F2
sVrejoined.
p5689
F1
sVgrasped
p5690
F2
sVfill
p5691
F4
sVtedious
p5692
F3
sVback.
p5693
F1
sVsufferings
p5694
F1
sVrepent
p5695
F2
sVfield
p5696
F3
sVrefuted.
p5697
F1
sVvalentini,
p5698
F1
sVsick,
p5699
F2
sVitself;
p5700
F1
sVshelter
p5701
F1
sVplanet,
p5702
F1
sVevil,
p5703
F1
sVimportant
p5704
F5
sVitself,
p5705
F2
sVitself.
p5706
F1
sVprudent
p5707
F5
sVconfutations.
p5708
F1
sVcorrection.
p5709
F1
sVresembled
p5710
F1
sVremote
p5711
F3
sVdryden's
p5712
F1
sVlife's
p5713
F1
sVknaves
p5714
F1
sVspills
p5715
F1
sVagrigentum.
p5716
F1
sVresolution
p5717
F4
sVamendment,
p5718
F1
sVrepresent
p5719
F1
sVsilent,
p5720
F1
sVforget
p5721
F2
sVvile
p5722
F2
sVforbidden
p5723
F1
sVworms
p5724
F2
sVlevelling
p5725
F1
sVfounded
p5726
F2
sVsunk
p5727
F2
sVarguments,
p5728
F1
sVsilent;
p5729
F1
sVcheats,
p5730
F1
sVtalks
p5731
F1
sVchildren
p5732
F8
sVreally,
p5733
F1
sVred-hot
p5734
F1
sVinexhaustible
p5735
F1
sVday,
p5736
F6
sVpastime,
p5737
F1
sVdisuse,
p5738
F1
sVpreserved
p5739
F2
sVmother,
p5740
F4
sVmother.
p5741
F1
sVgownman
p5742
F1
sVspeaketh
p5743
F1
sVbowers
p5744
F1
sVtalk,
p5745
F3
sVatramentous
p5746
F1
sVheavenly
p5747
F3
sVsun.
p5748
F1
sVrascal,
p5749
F1
sVsun,
p5750
F1
sVfall
p5751
F15
sVeminent.
p5752
F1
sVdifference
p5753
F6
sVvouchsafe
p5754
F2
sValong,
p5755
F1
sVnine,
p5756
F1
sVnine.
p5757
F1
sV20th
p5758
F1
sVquiet;
p5759
F1
sVthread.
p5760
F1
sVourselves;
p5761
F2
sVrange,
p5762
F2
sVtitles
p5763
F1
sV"sweetness
p5764
F1
sVlawyer
p5765
F4
sVourselves.
p5766
F1
sVfurther
p5767
F5
sVourselves,
p5768
F2
sVwitch.
p5769
F1
sVcreatures
p5770
F1
sVdefence
p5771
F3
sVmention.
p5772
F2
sVsweetly
p5773
F1
sVkent;
p5774
F1
sVdecoction
p5775
F1
sVrepining
p5776
F1
sVvigour.
p5777
F1
sVvigour,
p5778
F1
sVjudicious
p5779
F1
sVtribute
p5780
F1
sVeverlasting
p5781
F1
sVpublic
p5782
F18
sVcreature,
p5783
F3
sVcreature.
p5784
F1
sVwrangling
p5785
F1
sVquarreled
p5786
F1
sVnation's
p5787
F2
sVswains,
p5788
F1
sVown.
p5789
F6
sVmortalia
p5790
F1
sVsearch
p5791
F2
sVbible
p5792
F2
sVexhausted,
p5793
F1
sVaforesaid
p5794
F1
sVcells,
p5795
F1
sVstella
p5796
F16
sVexhausted;
p5797
F1
sVdisputes
p5798
F2
sVfigure,
p5799
F2
sVpublished
p5800
F5
sVnarrow
p5801
F2
sVrailest
p5802
F1
sVfree-thinking,
p5803
F2
sVcaravan
p5804
F1
sVapprehension,
p5805
F1
sVbarbarous;
p5806
F1
sVlight."
p5807
F1
sVarmed
p5808
F4
sVreadily
p5809
F3
sVeye
p5810
F2
sV"have
p5811
F1
sVsundays,
p5812
F1
sVtwo
p5813
F53
sVdexterous,
p5814
F1
sVallied,
p5815
F1
sVpleases,
p5816
F1
sVcontrary;
p5817
F1
sVladies,
p5818
F2
sVcontrary.
p5819
F1
sVparticular
p5820
F6
sVtown
p5821
F4
sVnone
p5822
F10
sVtunbridge
p5823
F1
sVhour
p5824
F3
sVstrain
p5825
F2
sVscrubby,
p5826
F1
sVtiberius,
p5827
F1
sVremain
p5828
F1
sVwaiters
p5829
F1
sVclergy
p5830
F2
sVabroad,
p5831
F5
sVsquire;
p5832
F1
sVtreaty
p5833
F1
sVstubborn
p5834
F3
sVcompare
p5835
F4
sVbravely
p5836
F1
sVgravely
p5837
F3
sVshare
p5838
F8
sVproposed,
p5839
F2
sVsphere
p5840
F1
sVnumbers
p5841
F3
sVsharp
p5842
F2
sV"this
p5843
F4
sVconstruing
p5844
F1
sVneeds
p5845
F2
sVdetractors,
p5846
F1
sVawkward
p5847
F3
sVsnares;
p5848
F1
sVneedy
p5849
F1
sVturnpikes
p5850
F1
sVcomfort
p5851
F5
sVconcerned
p5852
F2
sVsacred
p5853
F1
sVclad;
p5854
F1
sV"dog!"
p5855
F1
sVstir
p5856
F3
sVcharms
p5857
F1
sVour
p5858
F94
sVnumber,
p5859
F2
sVinterpose
p5860
F1
sVgenius,
p5861
F1
sVblood
p5862
F2
sVcoming
p5863
F2
sVgenius;
p5864
F1
sVbloom
p5865
F1
sVnumber;
p5866
F2
sVbentley,
p5867
F6
sVcoat
p5868
F1
sVthou,
p5869
F1
sVbentley;
p5870
F1
sVseizes
p5871
F1
sVskilful
p5872
F3
sVact.
p5873
F1
sVpleasure
p5874
F8
sVchimeric
p5875
F1
sVthat's
p5876
F2
sVinfant
p5877
F5
sVissue;
p5878
F1
sVcost,
p5879
F2
sVwall,
p5880
F1
sVtelling
p5881
F4
sVthrough
p5882
F27
sValmanack-maker,
p5883
F2
sVwall;
p5884
F1
sVsuffer
p5885
F2
sVpens
p5886
F1
sVintercession
p5887
F1
sVpossessions
p5888
F1
sVcharity,
p5889
F1
sVbosom
p5890
F1
sVcharity.
p5891
F1
sVlate
p5892
F6
sVresentments
p5893
F1
sV"sirrah,"
p5894
F1
sVmasters'
p5895
F1
sVgood
p5896
F43
sVmasters,
p5897
F1
sVprejudices
p5898
F3
sVobeyed
p5899
F1
sVdeference
p5900
F3
sVwalls
p5901
F1
sVfrigid
p5902
F1
sVstain,
p5903
F1
sVcopious
p5904
F1
sVgardens;
p5905
F1
sVcrawl,
p5906
F1
sVpox,
p5907
F1
sVresentment.
p5908
F1
sVstiff
p5909
F1
sVashes
p5910
F1
sVheroines
p5911
F1
sVpossession,
p5912
F3
sVports
p5913
F1
sVharm
p5914
F1
sVhouse
p5915
F8
sVfish
p5916
F1
sVhard
p5917
F13
sVmonks
p5918
F1
sVcaravan,
p5919
F1
sVengaging
p5920
F1
sVdeeds,
p5921
F1
sVbull.
p5922
F1
sVfist
p5923
F1
sVasturias,
p5924
F1
sVhart
p5925
F1
sVlovers
p5926
F4
sVtrooper
p5927
F1
sVacting
p5928
F1
sVthey'll
p5929
F1
sVprint
p5930
F2
sVpleasant
p5931
F2
sVdifficulty
p5932
F1
sVcontrivance
p5933
F1
sVdisposition
p5934
F3
sVbeginning
p5935
F4
sVchairs,
p5936
F1
sV"she
p5937
F1
sVprophet
p5938
F1
sVomit
p5939
F2
sVdiversion
p5940
F1
sVadhered;
p5941
F1
sVwither
p5942
F1
sVrogues
p5943
F1
sVlover.
p5944
F1
sVembraces
p5945
F1
sVfairest
p5946
F2
sVdoctor,
p5947
F2
sVjuncture
p5948
F2
sVinstances
p5949
F4
sVbenchers
p5950
F1
sVdone
p5951
F9
sVeyes),
p5952
F1
sVmounted,
p5953
F1
sVquarrels:
p5954
F1
sVsenses.
p5955
F1
sVtwenty
p5956
F3
sVfamily,
p5957
F2
sVleast
p5958
F26
sVpains
p5959
F3
sVordure
p5960
F1
sVsuppose,
p5961
F1
sVpark
p5962
F3
sVexcels
p5963
F1
sVmadmen
p5964
F1
sVsolomon's
p5965
F1
sVpart
p5966
F20
sVsex.
p5967
F1
sVobstructed
p5968
F1
sVyeoman,
p5969
F1
sVbelieve
p5970
F20
sVcompliments
p5971
F1
sVpain,
p5972
F2
sVungodly
p5973
F1
sVyouth
p5974
F7
sVcontrary
p5975
F5
sVsupposed
p5976
F3
sVtreated
p5977
F5
sVpain;
p5978
F1
sVfarce,
p5979
F1
sVengagement,
p5980
F1
sVservice,
p5981
F2
sVinhabitants,
p5982
F1
sVages
p5983
F4
sVegg.
p5984
F1
sVintestine
p5985
F1
sVaged
p5986
F5
sVorders
p5987
F2
sVmountain
p5988
F1
sVbuilt
p5989
F1
sVdancing
p5990
F1
sVyew:
p5991
F1
sVreflection,
p5992
F2
sVcouch
p5993
F2
sVonset
p5994
F1
sVextracted
p5995
F1
sVbuild
p5996
F1
sVprovince
p5997
F1
sVorder,
p5998
F1
sVage;
p5999
F3
sVidle,
p6000
F1
sVdepths
p6001
F1
sVage.
p6002
F4
sVage,
p6003
F4
sVcharm
p6004
F1
sVorder;
p6005
F1
sVtrifle,
p6006
F1
sVextremely
p6007
F5
sVagain."
p6008
F1
sVrafter,
p6009
F1
sVgermans.
p6010
F1
sVparson's
p6011
F1
sVamazed
p6012
F3
sVflights,
p6013
F1
sVenlarged:
p6014
F1
sVnobility
p6015
F1
sVdodging
p6016
F1
sVthomas
p6017
F3
sVparticularly
p6018
F2
sVobligations
p6019
F1
sVplays,
p6020
F2
sVscattered
p6021
F5
sVspades,
p6022
F1
sVnoblest
p6023
F3
sVrelation
p6024
F1
sVmalignant
p6025
F5
sVfine
p6026
F1
sVfind
p6027
F35
sVdepended
p6028
F1
sVruin
p6029
F1
sV19th
p6030
F1
sVunhappy
p6031
F1
sVspitefully
p6032
F1
sVquadrupeds:
p6033
F1
sVclio,
p6034
F1
sVexpress
p6035
F5
sVjesuits
p6036
F1
sVcourage
p6037
F4
sVbreast
p6038
F2
sVresolve
p6039
F1
sVfoundered,
p6040
F1
sVremove
p6041
F2
sVcommon
p6042
F24
sVroot."
p6043
F1
sVunrevenged;
p6044
F1
sVgospel
p6045
F4
sVcreates,
p6046
F1
sVrays:
p6047
F1
sVrays;
p6048
F1
sVflattery?
p6049
F1
sVlion
p6050
F1
sVmanly
p6051
F2
sVgravest
p6052
F1
sVtender
p6053
F6
sV11th
p6054
F3
sVfeared
p6055
F1
sVomissions
p6056
F1
sVdegree
p6057
F4
sVpresbyterians,
p6058
F1
sVdecree,
p6059
F3
sVplease
p6060
F14
sVsmallest
p6061
F2
sVto.
p6062
F1
sValtera
p6063
F1
sVvindicates
p6064
F1
sV"not
p6065
F1
sVendows
p6066
F1
sVreverse
p6067
F1
sV_april_
p6068
F1
sVphalanx.
p6069
F1
sVannual
p6070
F3
sVforeign
p6071
F4
sVnurse-keepers
p6072
F1
sVcowley
p6073
F3
sVpoint
p6074
F10
sVsimple
p6075
F1
sVthen,"
p6076
F1
sVtalents.
p6077
F1
sVthroughout
p6078
F2
sVexpensive
p6079
F1
sVlanguish,
p6080
F1
sVdiscourses,
p6081
F1
sVlanguish.
p6082
F1
sVraise
p6083
F10
sVcreate
p6084
F2
sVrivals
p6085
F1
sVsecret
p6086
F5
sVdispleasure,
p6087
F1
sVmeeting
p6088
F2
sVbeasts'
p6089
F1
sVinstant,
p6090
F2
sVbeasts,
p6091
F1
sVinfusions,
p6092
F1
sVunderstand
p6093
F5
sVinstant;
p6094
F1
sVchatter
p6095
F1
sVpierce
p6096
F1
sVgrains
p6097
F1
sVbill
p6098
F2
sVpresbytery
p6099
F1
sVbractons,
p6100
F1
sVhelm,
p6101
F1
sVhelm.
p6102
F1
sVviolently
p6103
F1
sVhusband,
p6104
F1
sVinfuse,
p6105
F1
sVitself
p6106
F3
sVfamiliarity,
p6107
F1
sVperverseness
p6108
F1
sVcitadel;
p6109
F1
sVrear.
p6110
F2
sVprayers.
p6111
F2
sVflag,
p6112
F1
sVwherein
p6113
F15
sVfound:
p6114
F1
sVdiscourse
p6115
F5
sVcreeping.
p6116
F1
sVhow,
p6117
F1
sVheraldry
p6118
F1
sVdingley,
p6119
F1
sVinfuses
p6120
F1
sVmoment
p6121
F1
sVcent.
p6122
F1
sVrealm
p6123
F1
sVplease,
p6124
F1
sVspent
p6125
F4
sVpills;
p6126
F1
sVenglish.
p6127
F1
sVspend
p6128
F6
sVshines,
p6129
F1
sVforeigner,
p6130
F1
sVlives?
p6131
F1
sVwife;
p6132
F1
sVmatter.
p6133
F1
sVchaste
p6134
F1
sVmatter,
p6135
F4
sVshape
p6136
F9
sVlives!
p6137
F1
sVscrofulous
p6138
F1
sVstatesman,
p6139
F1
sVlives,
p6140
F1
sVlives.
p6141
F1
sVmatter?
p6142
F2
sVapes.
p6143
F1
sVtimber
p6144
F2
sVventuring.
p6145
F1
sVcut
p6146
F5
sVcup
p6147
F1
sVhated
p6148
F2
sVdanger
p6149
F6
sVsixteen,
p6150
F1
sVundistinguished
p6151
F1
sVkites
p6152
F1
sVfollow,
p6153
F2
sVanimosities
p6154
F1
sVhates
p6155
F1
sVridiculously
p6156
F1
sVconfession
p6157
F1
sVadversaries
p6158
F1
sVd---d?
p6159
F1
sVdestruction;
p6160
F1
sVcharon
p6161
F1
sVgranted,
p6162
F1
sVbought:
p6163
F1
sVbought;
p6164
F1
sVbit
p6165
F3
sVknock
p6166
F1
sVhate.
p6167
F2
sVfollows
p6168
F2
sVfoolish
p6169
F4
sVgrossest
p6170
F1
sVoften
p6171
F18
sVdiocese
p6172
F1
sVobliged
p6173
F3
sVshades.
p6174
F1
sVback
p6175
F5
sVvirtue.
p6176
F1
sVmartial
p6177
F1
sVvirtue,
p6178
F10
sVexamples
p6179
F1
sVdelany
p6180
F1
sVourselves
p6181
F2
sVobliges
p6182
F1
sVpronounced
p6183
F1
sVaffects
p6184
F1
sVgood:
p6185
F1
sVgood;
p6186
F3
sVper
p6187
F1
sVmetamorphosed
p6188
F1
sVestablishment:
p6189
F1
sVgood,
p6190
F6
sVinvade
p6191
F1
sVgood.
p6192
F2
sVexample,
p6193
F1
sVvirtues
p6194
F6
sVtaught,
p6195
F3
sVtaught.
p6196
F1
sVpublic.
p6197
F1
sVpublic,
p6198
F2
sVexample:
p6199
F1
sVconstraint
p6200
F1
sVafter-life,
p6201
F1
sVgoody
p6202
F2
sVafter-life.
p6203
F1
sVmrs.
p6204
F7
sVwhom,
p6205
F1
sVmetropolis,
p6206
F1
sVconsequently
p6207
F5
sVmisplaced
p6208
F1
sVworks_.
p6209
F1
sVtindal,
p6210
F1
sVboy.
p6211
F1
sVconcerned.
p6212
F1
sVconcerned,
p6213
F2
sVbutler.
p6214
F1
sVremembrance
p6215
F1
sVboy;
p6216
F1
sVlesson
p6217
F4
sVgoverned
p6218
F1
sVrogues,
p6219
F1
sVinvite
p6220
F1
sVframe,
p6221
F1
sVpronounce
p6222
F2
sVadjusting
p6223
F1
sVhoped
p6224
F2
sVlibrarian,
p6225
F1
sVcram
p6226
F1
sVhopes
p6227
F3
sVdirected
p6228
F1
sVhopes;
p6229
F1
sVcourse."
p6230
F1
sVnativity,
p6231
F1
sVplanet
p6232
F1
sVbore,
p6233
F1
sVfrequented,
p6234
F1
sVhopes,
p6235
F1
sVsort
p6236
F8
sVgeese
p6237
F1
sVsires.
p6238
F1
sVworld_!
p6239
F1
sVsingle
p6240
F4
sVcure
p6241
F1
sVgrattons
p6242
F1
sVpap:
p6243
F1
sVcolberteen;
p6244
F1
sVessayed
p6245
F1
sVunsufferable
p6246
F1
sVbrethren
p6247
F2
sVexcused
p6248
F3
sVsucceeded,
p6249
F1
sVtittle.
p6250
F1
sVspeculation,
p6251
F1
sVagreeable.
p6252
F1
sVagreeable,
p6253
F1
sVbecomes
p6254
F1
sVorders.
p6255
F1
sVorders,
p6256
F2
sVconfine
p6257
F2
sVamazed,
p6258
F1
sVaccidental
p6259
F1
sVjohnson,
p6260
F3
sVfavourite
p6261
F2
sVprepared
p6262
F1
sVapplied,
p6263
F1
sVutterly
p6264
F3
sVletters;
p6265
F1
sVrallied
p6266
F2
sVstatesman
p6267
F1
sVexcuse.
p6268
F1
sVsocrates
p6269
F2
sVrates,
p6270
F1
sVrelated,
p6271
F1
sVhappy,
p6272
F1
sV_ingens
p6273
F1
sVdeshabille.
p6274
F1
sVcomplained,
p6275
F1
sVrenowned
p6276
F2
sVcompose
p6277
F1
sVsins,
p6278
F1
sVhelps
p6279
F1
sVbrooms
p6280
F1
sVfatal
p6281
F1
sVingredient
p6282
F1
sVqueen
p6283
F10
sVpresently
p6284
F2
sVconfounding
p6285
F1
sVtomb,
p6286
F2
sVaccuse
p6287
F1
sVswears,
p6288
F2
sVentire
p6289
F4
sVunderstandings
p6290
F1
sVsituate
p6291
F1
sVhelp,
p6292
F1
sVgrave;
p6293
F1
sVgrave:
p6294
F1
sVstature,
p6295
F1
sVintreats
p6296
F1
sVgrave.
p6297
F2
sVgrave,
p6298
F1
sVhelp;
p6299
F1
sVunsatisfied
p6300
F1
sVimperfection,
p6301
F1
sVpriest,
p6302
F1
sVlight-horse,
p6303
F1
sVlight-horse.
p6304
F1
sVother,
p6305
F6
sVother.
p6306
F3
sVconsists.
p6307
F1
sVobject,
p6308
F1
sVlaws;
p6309
F1
sVsin,
p6310
F3
sVlight-horse;
p6311
F1
sVbeast,
p6312
F1
sVearth
p6313
F5
sVlaws,
p6314
F1
sVlaws.
p6315
F1
sVother?
p6316
F1
sVdoctrines
p6317
F1
sVcavil.
p6318
F1
sVgiving
p6319
F3
sVinconveniences
p6320
F2
sVpleading
p6321
F1
sVexercise
p6322
F1
sVbody
p6323
F9
sVjustification
p6324
F1
sVwritings.
p6325
F1
sVexchange
p6326
F2
sVbeasts
p6327
F4
sVnimble
p6328
F1
sVobjects
p6329
F4
sVconfederates,
p6330
F1
sVsink
p6331
F2
sVothers
p6332
F17
sVsing
p6333
F2
sVlovely,
p6334
F1
sVtalent
p6335
F3
sVprincipally
p6336
F1
sVclimb
p6337
F1
sVproof
p6338
F2
sVhint,
p6339
F2
sVnamed
p6340
F4
sVdelights.
p6341
F1
sVjest:
p6342
F1
sVprize,
p6343
F1
sVprivate
p6344
F8
sVprivately
p6345
F1
sVscandal
p6346
F2
sVprize:
p6347
F1
sVjest.
p6348
F3
sVjest,
p6349
F2
sVstinted
p6350
F1
sVscummed
p6351
F1
sVadmirers,
p6352
F1
sVadmirers.
p6353
F1
sVhearty,
p6354
F1
sVthemselves
p6355
F20
sVresolution,
p6356
F1
sVcompose,
p6357
F1
sVplays.)
p6358
F1
sVname,
p6359
F4
sVname)
p6360
F1
sVcadenus
p6361
F13
sVtransient
p6362
F1
sVashamed
p6363
F4
sVtattered
p6364
F1
sVname;
p6365
F1
sVhints
p6366
F4
sVaccount
p6367
F9
sVinclinations
p6368
F1
sVtransmissible
p6369
F1
sVdingley
p6370
F1
sVobvious
p6371
F4
sVpraise
p6372
F5
sVowners?
p6373
F1
sVclosing
p6374
F1
sV_1722_.
p6375
F1
sVfetch
p6376
F1
sVtoils,
p6377
F1
sVhigh;
p6378
F1
sVparley,
p6379
F1
sVconvenient.
p6380
F1
sVhigh,
p6381
F1
sVemploys
p6382
F1
sVbones
p6383
F1
sVlordship.
p6384
F1
sVcontempt
p6385
F6
sVnative
p6386
F5
sVlees);
p6387
F1
sVdaring
p6388
F1
sVholds
p6389
F1
sV"meditation
p6390
F1
sVline,
p6391
F1
sVfar:
p6392
F1
sVstock
p6393
F12
sVflanking
p6394
F1
sVde
p6395
F1
sVphilosophy
p6396
F1
sVreserve,
p6397
F1
sVreligion,
p6398
F8
sVproportion.
p6399
F1
sVphysic
p6400
F2
sVboasting
p6401
F1
sVfolly,
p6402
F4
sVfolly.
p6403
F3
sVgone,
p6404
F2
sVrev.
p6405
F1
sVbind
p6406
F1
sVlines
p6407
F1
sVnoise;
p6408
F1
sVchief
p6409
F9
sVhold,
p6410
F1
sVsuch,
p6411
F1
sVfolly;
p6412
F1
sVfurious
p6413
F3
sVfurnish
p6414
F4
sVreplies,
p6415
F3
sVreplies.
p6416
F1
sVthyself
p6417
F1
sVconstraint,
p6418
F1
sVrevived
p6419
F1
sVempty,
p6420
F1
sVwhereon
p6421
F1
sV(with
p6422
F3
sVdecorum
p6423
F1
sVwhereof
p6424
F3
sVwilling
p6425
F1
sVatalanta's
p6426
F1
sVconstraint;
p6427
F1
sVstopped,
p6428
F1
sVsapling
p6429
F1
sVscotus
p6430
F1
sVbolder
p6431
F1
sVspell
p6432
F1
sVlaw-books
p6433
F1
sVmention
p6434
F5
sVcutting
p6435
F2
sVkindness
p6436
F1
sVforgotten,
p6437
F2
sVday
p6438
F19
sVforgotten.
p6439
F1
sVflail
p6440
F1
sVradiant
p6441
F2
sVleast,
p6442
F1
sVblazing
p6443
F1
sVvirulent
p6444
F1
sVmost;
p6445
F1
sVpuppets
p6446
F1
sVfrailties,
p6447
F1
sVmost.
p6448
F3
sVwhigs,
p6449
F1
sVage."
p6450
F1
sV_after
p6451
F1
sVposteriors
p6452
F1
sVdefend
p6453
F1
sVwholly
p6454
F16
sVinvective
p6455
F1
sVmessenger
p6456
F1
sVwaller,
p6457
F1
sVlibelling
p6458
F1
sVred
p6459
F1
sVthereupon
p6460
F2
sVapproached
p6461
F2
sVforty-four;
p6462
F1
sVjurors
p6463
F1
sVreceipts
p6464
F1
sV"can
p6465
F1
sVyard
p6466
F1
sVdeprived
p6467
F1
sV_long
p6468
F2
sVoverweening
p6469
F1
sVthirst,
p6470
F1
sValdrovandus's
p6471
F1
sVmortal
p6472
F10
sVsorrowful
p6473
F1
sVsouth
p6474
F1
sVemissaries,
p6475
F1
sVcomplete,
p6476
F1
sVfinest
p6477
F3
sVreaches
p6478
F2
sVembarrassed
p6479
F1
sVimprovements
p6480
F1
sVpuppet
p6481
F1
sVreached
p6482
F3
sVfree-thinker,
p6483
F1
sVhumblest
p6484
F1
sVensigns,
p6485
F1
sVexcrescences
p6486
F1
sVdenying
p6487
F1
sVlove,
p6488
F10
sVvulgar
p6489
F5
sVporringers,
p6490
F1
sVexpatiating
p6491
F1
sVlove?
p6492
F1
sVfree-thinkers
p6493
F1
sVsealed
p6494
F1
sVacquire
p6495
F1
sVvanity,
p6496
F3
sVloved
p6497
F2
sVvanity.
p6498
F3
sVslack
p6499
F1
sVo'er
p6500
F6
sVhumped
p6501
F1
sVsweden
p6502
F1
sVhospitality.
p6503
F1
sVlap,
p6504
F1
sVloves
p6505
F3
sVlover
p6506
F2
sVvisited
p6507
F1
sVprude.
p6508
F1
sVmimic,
p6509
F1
sVdisappointment,
p6510
F1
sVhave
p6511
F194
sVoffended;
p6512
F1
sVwits
p6513
F2
sVgravity
p6514
F1
sVmix
p6515
F1
sVconcerns
p6516
F1
sVprovoked
p6517
F3
sVhood-winked,
p6518
F1
sVbespatter:
p6519
F1
sVlooking,
p6520
F1
sVunless
p6521
F7
sVpersonated
p6522
F1
sVbusiness,
p6523
F2
sVeight
p6524
F1
sVmean),
p6525
F1
sVslightly,
p6526
F1
sVprisoner
p6527
F1
sVsally
p6528
F1
sVpayment
p6529
F1
sVprofoundest
p6530
F1
sVcorda_.
p6531
F1
sVprovoke:
p6532
F1
sVwherewith
p6533
F3
sVgather
p6534
F3
sVrequest
p6535
F1
sVdisease
p6536
F1
sVperformed.
p6537
F1
sVpark,
p6538
F3
sVpark.
p6539
F1
sVabsurd
p6540
F2
sVpasted
p6541
F1
sVoccasion
p6542
F5
sVface.
p6543
F3
sVtext
p6544
F2
sVcharles
p6545
F5
sVreputation,
p6546
F1
sVwonderful)
p6547
F1
sVantiquated
p6548
F1
sVavarice,
p6549
F3
sVlolling
p6550
F1
sVknowledge
p6551
F6
sVfaculty,
p6552
F1
sVbegged,
p6553
F1
sVmoralists
p6554
F1
sVsatan
p6555
F1
sVland.
p6556
F1
sVregularly
p6557
F1
sVrecollect;
p6558
F1
sVpull
p6559
F2
sVbeau
p6560
F2
sVministers,
p6561
F2
sVbear
p6562
F3
sVbeam
p6563
F1
sVcaught:
p6564
F1
sVannihilate
p6565
F1
sVstrove
p6566
F2
sVnutriment
p6567
F1
sVcalling
p6568
F1
sVprotestants,
p6569
F1
sVtemple's
p6570
F5
sVfixed
p6571
F5
sVfarthest
p6572
F1
sVpuddle
p6573
F1
sVdisposal
p6574
F2
sVjane,
p6575
F1
sVtempts
p6576
F1
sVreform
p6577
F1
sVmaster's
p6578
F3
sVpattern
p6579
F1
sVorators,
p6580
F1
sVdeposed
p6581
F1
sVprogress
p6582
F1
sVmother!
p6583
F1
sVaside;
p6584
F1
sVbows,
p6585
F1
sVsorrow
p6586
F2
sVdeliver
p6587
F1
sVshelf,
p6588
F2
sVfirmness
p6589
F1
sVpurse;
p6590
F1
sVfreely
p6591
F7
sVtaking
p6592
F4
sVequal
p6593
F10
sVassure
p6594
F1
sVsexes
p6595
F1
sVbeds.
p6596
F1
sVswim
p6597
F1
sVturk,
p6598
F1
sVpassing
p6599
F2
sVglorious
p6600
F2
sVotherwise
p6601
F7
sVvent
p6602
F1
sVgone
p6603
F1
sVabortive
p6604
F1
sVdone;
p6605
F2
sVlaugh
p6606
F4
sVdone,
p6607
F4
sVdone.
p6608
F1
sVflourishing
p6609
F1
sVdeath-bed
p6610
F1
sVhome:
p6611
F1
sVhome;
p6612
F1
sVgaze
p6613
F1
sVattends
p6614
F1
sVlady's
p6615
F4
sVaga:
p6616
F1
sVproposal
p6617
F1
sVdivision,
p6618
F1
sVheart."
p6619
F1
sVperplexed
p6620
F2
sVreasonings
p6621
F1
sVapace,
p6622
F1
sVfoes
p6623
F1
sVplains,
p6624
F1
sVbulk
p6625
F2
sVfinished
p6626
F2
sV"surely
p6627
F1
sVarose,
p6628
F1
sVfellow
p6629
F1
sVarisen
p6630
F2
sVhomer
p6631
F8
sVcontinues.
p6632
F1
sVlacqueys,
p6633
F1
sVplain
p6634
F8
sVattend,
p6635
F1
sVvalue
p6636
F5
sVfrown,
p6637
F3
sVarticle,
p6638
F1
sVdryness;
p6639
F1
sVthereof,
p6640
F1
sVsister.
p6641
F2
sVhelper
p6642
F1
sVsister,
p6643
F1
sValmost
p6644
F7
sVstarted,
p6645
F1
sVwalks
p6646
F1
sVsister;
p6647
F1
sVshame.
p6648
F2
sVshame,
p6649
F8
sVprose
p6650
F1
sVstarted;
p6651
F1
sVwatchful
p6652
F1
sVallurements
p6653
F1
sVindistinguishable
p6654
F1
sVpractice
p6655
F7
sVagain
p6656
F6
sVreduced,
p6657
F1
sVdiscover
p6658
F13
sVprasini
p6659
F1
sVsatire,
p6660
F1
sVarm'd
p6661
F1
sVjudgment
p6662
F7
sVscholars
p6663
F3
sVpeace.
p6664
F1
sVbloom,
p6665
F1
sVobstructs
p6666
F1
sVrecourse
p6667
F1
sVdye,
p6668
F1
sVobsolete,
p6669
F1
sVweapon
p6670
F2
sVconcluded:
p6671
F1
sVthought
p6672
F23
sVsets
p6673
F2
sVusual
p6674
F6
sVnails,
p6675
F1
sVerick,
p6676
F1
sVambition
p6677
F3
sVdomestic
p6678
F3
sVtest,
p6679
F1
sVwork.
p6680
F2
sVreformer
p6681
F1
sVaffections
p6682
F1
sVprove,
p6683
F1
sVslower.
p6684
F1
sVadd
p6685
F7
sVknave,
p6686
F1
sVcitizen
p6687
F1
sVado
p6688
F1
sVinfant's
p6689
F1
sVought
p6690
F10
sVresolved
p6691
F12
sVloss,
p6692
F1
sVseat,
p6693
F1
sVpunctual
p6694
F1
sVjupiter:
p6695
F1
sVrefinements
p6696
F1
sVprotectress
p6697
F1
sVstore,
p6698
F1
sVjupiter,
p6699
F3
sVseat;
p6700
F1
sVeverybody.
p6701
F1
sVlike
p6702
F52
sVsuccess
p6703
F3
sVvalour,
p6704
F2
sVadmitted
p6705
F4
sVworks
p6706
F3
sVsoft
p6707
F4
sVeconomy.
p6708
F1
sVneighbours.
p6709
F1
sValive
p6710
F5
sVhair
p6711
F2
sVlessen,
p6712
F1
sVproper
p6713
F9
sValike,
p6714
F1
sVhappens
p6715
F3
sVest
p6716
F2
sVpositiveness,
p6717
F2
sV1686,
p6718
F1
sVstudents
p6719
F2
sVdiscretion
p6720
F2
sVfairs.
p6721
F1
sVconfined;
p6722
F1
sVrathbeggan,
p6723
F1
sVquill,
p6724
F1
sVnoise
p6725
F2
sVstuff.
p6726
F1
sVdebased,
p6727
F1
sVhost
p6728
F1
sVdecays,
p6729
F2
sValthough
p6730
F14
sVhospitable
p6731
F1
sVengendering
p6732
F1
sVceremony,
p6733
F2
sVnoisy
p6734
F1
sVchain.
p6735
F2
sVabout
p6736
F39
sVchain,
p6737
F1
sVdaubers'
p6738
F1
sVhappen;
p6739
F1
sVwithdrew
p6740
F2
sVcavilling),
p6741
F1
sVserviceable
p6742
F1
sVblessings
p6743
F2
sVchain;
p6744
F1
sVbefore?
p6745
F1
sVdiscard
p6746
F1
sVprevailing
p6747
F1
sV1886.
p6748
F1
sVprojectors
p6749
F2
sVhappen,
p6750
F1
sVsubjects.
p6751
F1
sValoud;
p6752
F1
sVbrents,
p6753
F1
sVesteem
p6754
F3
sVfemale
p6755
F8
sVminute.
p6756
F1
sVminute,
p6757
F1
sVrushed
p6758
F1
sVridiculed.
p6759
F1
sVreigned
p6760
F1
sVinforms;
p6761
F1
sVmist,
p6762
F1
sVprince,
p6763
F1
sVbuy
p6764
F1
sVsmart;
p6765
F1
sVbut
p6766
F259
sVexpected
p6767
F2
sVsubmit,
p6768
F1
sVplague
p6769
F2
sVsunk,
p6770
F1
sVsmart.
p6771
F1
sVchildren,
p6772
F5
sVought,
p6773
F1
sVcare--
p6774
F1
sVbedlam.
p6775
F1
sVage,"
p6776
F1
sVwise
p6777
F19
sVprinces
p6778
F2
sVwish
p6779
F3
sVvegetable,
p6780
F1
sVentice,
p6781
F1
sVminutes
p6782
F1
sVwhisper
p6783
F1
sVambassadors
p6784
F1
sVcontrived.
p6785
F1
sVproceeds
p6786
F2
sVsteals.
p6787
F1
sVcokes.
p6788
F1
sVporing
p6789
F1
sVsatirise
p6790
F1
sVdetain
p6791
F1
sVmathematics)
p6792
F1
sVmathematics.
p6793
F1
sVimpositions
p6794
F1
sVmathematics,
p6795
F1
sVproceed,
p6796
F1
sVspectres
p6797
F1
sVindeed,
p6798
F8
sVdraught
p6799
F1
sVperiod,
p6800
F1
sVdetractors
p6801
F1
sVbundle
p6802
F3
sVdeath;
p6803
F1
sVparacelsus,
p6804
F1
sVproceed?
p6805
F1
sVdeath,
p6806
F5
sVdeath.
p6807
F3
sVramble
p6808
F1
sVbulwark
p6809
F1
sVnews;
p6810
F1
sVtime;
p6811
F1
sVpupil
p6812
F2
sVaccidents
p6813
F2
sVconfess
p6814
F4
sVever,
p6815
F2
sVrendezvouses
p6816
F1
sVvermin
p6817
F1
sVhath
p6818
F29
sVgarters
p6819
F1
sVyonder
p6820
F1
sV(humbly
p6821
F1
sVfeeding
p6822
F1
sVclasps
p6823
F1
sVimmediately."
p6824
F1
sV(for
p6825
F5
sVtime.
p6826
F3
sVpatched
p6827
F1
sVwither.
p6828
F1
sVunder
p6829
F23
sVpride
p6830
F6
sVconvening
p6831
F1
sVconjecture
p6832
F1
sVeast;
p6833
F1
sVlegislators
p6834
F1
sVstrains,
p6835
F2
sVrise
p6836
F4
sVparticulars,
p6837
F3
sVtears.
p6838
F1
sVparticulars.
p6839
F1
sVbosoms
p6840
F1
sVevery
p6841
F67
sVjack
p6842
F2
sVfrailty
p6843
F1
sVfreethinkers
p6844
F1
sVparticulars;
p6845
F1
sV1667,
p6846
F2
sVestablished,
p6847
F1
sVschool
p6848
F2
sVconceive
p6849
F5
sVrepenting
p6850
F2
sVvenus
p6851
F9
sVmuscovy
p6852
F1
sVdegeneracy
p6853
F1
sVleaders
p6854
F2
sVstare.
p6855
F1
sVdirect
p6856
F1
sVreign--
p6857
F1
sVstreet
p6858
F1
sVlicence.
p6859
F1
sVlicence,
p6860
F1
sVshining
p6861
F4
sVblue
p6862
F1
sVchange.
p6863
F1
sVhide
p6864
F6
sVchrist
p6865
F3
sVflybane
p6866
F1
sVterms,
p6867
F1
sVbeaten
p6868
F2
sVpoison
p6869
F3
sVplodding
p6870
F1
sVleave)
p6871
F1
sVcharacters.
p6872
F1
sVleave,
p6873
F1
sVconduct
p6874
F7
sVovid_.
p6875
F1
sVgeneral,
p6876
F4
sVbattle,
p6877
F4
sVkicked
p6878
F1
sVfriendship,
p6879
F2
sVhired,
p6880
F1
sVfaults.
p6881
F2
sVfaults,
p6882
F1
sVhumility
p6883
F1
sVdiscipline.
p6884
F1
sVthrough,
p6885
F1
sVexcise.
p6886
F1
sVtells,
p6887
F1
sVgenerals
p6888
F2
sVventures
p6889
F1
sVleaves
p6890
F2
sVridicule
p6891
F3
sVfops;
p6892
F1
sVill-
p6893
F1
sVcuroe_.
p6894
F1
sVfops,
p6895
F1
sVsettled
p6896
F2
sVpunishment
p6897
F1
sVventured
p6898
F1
sVcompany,
p6899
F6
sVbreath,
p6900
F1
sVbelfast,
p6901
F1
sVpasseth
p6902
F2
sVpatience
p6903
F3
sVblame:
p6904
F2
sVcompany;
p6905
F2
sVgreatness,
p6906
F1
sVreply,
p6907
F2
sVvoluminously
p6908
F1
sVtransitory;
p6909
F1
sVwould
p6910
F150
sVm.
p6911
F1
sVduty;
p6912
F1
sVborn,
p6913
F1
sVcharacter,
p6914
F1
sVfainting
p6915
F1
sV25th
p6916
F1
sVslaughtered
p6917
F1
sVmystical
p6918
F1
sVetc.,
p6919
F1
sVmeat,
p6920
F1
sVridicule,
p6921
F2
sVmuse
p6922
F4
sVgrief
p6923
F5
sVscribblers
p6924
F1
sVexcellent
p6925
F3
sVmeat;
p6926
F1
sVmust
p6927
F50
sVme
p6928
F36
sVjoin
p6929
F2
sVbrandishing
p6930
F1
sVentertained
p6931
F1
sVwit's
p6932
F1
sVcourt-entertainment,
p6933
F1
sVhenry
p6934
F1
sVmy
p6935
F98
sVquarrel
p6936
F6
sVinscription
p6937
F1
sVestate
p6938
F1
sVpreserving
p6939
F1
sVmermaids
p6940
F1
sVmouth,
p6941
F2
sVtimes
p6942
F16
sVend
p6943
F7
sVscolding
p6944
F1
sVreasoned,
p6945
F1
sVreturning
p6946
F1
sVills,
p6947
F1
sVwriters
p6948
F3
sVfav'rite
p6949
F1
sVgate
p6950
F1
sVloose,
p6951
F1
sVpoker
p6952
F1
sVboth.
p6953
F1
sVelizabeth
p6954
F1
sVboth,
p6955
F6
sVfellows;
p6956
F1
sVcontaining
p6957
F2
sVsparkled
p6958
F1
sVboth:
p6959
F1
sVboth;
p6960
F2
sVfellows,
p6961
F1
sVparallel
p6962
F2
sVtalk;
p6963
F1
sVsnarling
p6964
F1
sVsuspense;
p6965
F2
sVlanguished,
p6966
F1
sVacknowledged
p6967
F1
sVwriter.
p6968
F1
sVastronomer,
p6969
F1
sVcentre,
p6970
F2
sVupside
p6971
F2
sVinnuendoes
p6972
F1
sVenter
p6973
F4
sVsneer,
p6974
F2
sVdisease?
p6975
F1
sVover
p6976
F23
sVgained;
p6977
F1
sVsickly
p6978
F3
sVknown.
p6979
F1
sVreformers
p6980
F1
sVclapped
p6981
F1
sVbeside
p6982
F3
sVdestroyer
p6983
F1
sVjoined,
p6984
F1
sVinterposing
p6985
F1
sVwriting
p6986
F1
sVcompelling
p6987
F1
sVbeelzebub,
p6988
F1
sVsickness.
p6989
F1
sVdiseases
p6990
F1
sVelated
p6991
F1
sVhistory,
p6992
F1
sVshadows
p6993
F1
sVgluttony
p6994
F1
sVbail.
p6995
F1
sVsuperiors:
p6996
F1
sVcant,
p6997
F1
sVexpectation,
p6998
F2
sVcapricious
p6999
F2
sVvictory
p7000
F2
sVeach
p7001
F32
sVlasting
p7002
F2
sVfact,
p7003
F2
sV_semel'n
p7004
F1
sVteased,
p7005
F1
sVpractising
p7006
F1
sVghosts
p7007
F1
sVforced,
p7008
F2
sVclothe
p7009
F1
sVday?
p7010
F1
sVfreethinkers,
p7011
F4
sVday:
p7012
F1
sVday;
p7013
F3
sVfraught
p7014
F1
sVgod
p7015
F11
sVexpense;
p7016
F1
sVwashed
p7017
F1
sVday.
p7018
F1
sVlaid
p7019
F6
sVadjust
p7020
F1
sVfreethinkers;
p7021
F1
sVtemporal,
p7022
F1
sVvergil,
p7023
F1
sVgot
p7024
F5
sVbehind;
p7025
F2
sVdefence,
p7026
F1
sVdefence.
p7027
F3
sVeternal
p7028
F1
sVfree
p7029
F5
sVcarcase
p7030
F3
sVwent,
p7031
F4
sVadmires,
p7032
F1
sVwanted
p7033
F2
sVgelding,
p7034
F1
sVbecometh
p7035
F1
sVdays
p7036
F8
sVfever;
p7037
F1
sVfever.
p7038
F1
sVgrief;
p7039
F1
sValready
p7040
F3
sVdunce
p7041
F1
sVtoo.
p7042
F1
sVtoo,
p7043
F4
sVencouraging
p7044
F1
sVgrief,
p7045
F2
sVsober
p7046
F4
sVsharpest
p7047
F1
sVblunts
p7048
F1
sVmercury
p7049
F1
sVretreats
p7050
F1
sVtop
p7051
F2
sVtoo
p7052
F37
sVtom
p7053
F1
sVinconvenient
p7054
F1
sVtoe
p7055
F1
sVconsented
p7056
F1
sVilliterate
p7057
F2
sVserve
p7058
F6
sVtook
p7059
F20
sVsciences,
p7060
F1
sVdiscompose,
p7061
F1
sV"good
p7062
F2
sVgown.
p7063
F1
sVtwenty,
p7064
F1
sVchair,
p7065
F1
sVrang'd
p7066
F1
sVheight,
p7067
F2
sVflame
p7068
F1
sVto,
p7069
F1
sVmirth
p7070
F1
sV10th
p7071
F1
sVhonourable
p7072
F1
sVfashion
p7073
F2
sVran
p7074
F3
sVtalking
p7075
F3
sVdiscretion."
p7076
F1
sVaffectation
p7077
F1
sVspade
p7078
F1
sVavoid;
p7079
F1
sVrelapse
p7080
F1
sVpromotion;
p7081
F1
sVthoroughly
p7082
F1
sVthorough
p7083
F1
sVbonfires.
p7084
F1
sV_paris_,
p7085
F1
sVprevail,
p7086
F2
sVperfection."
p7087
F1
sVextirpation
p7088
F1
sVcleft
p7089
F1
sVrider
p7090
F3
sVinured
p7091
F1
sVthough
p7092
F45
sVvisionary
p7093
F1
sVplenty
p7094
F2
sVstood
p7095
F6
sVdisarmed
p7096
F1
sVconstancy
p7097
F2
sVswerved
p7098
F1
sVinnovators)
p7099
F1
sVbowmen
p7100
F2
sVreputation
p7101
F1
sVcottage,
p7102
F1
sVcolberteen.
p7103
F1
sVletters:
p7104
F1
sVrelated.
p7105
F1
sVw---,
p7106
F1
sVchariot
p7107
F1
sVinspire
p7108
F2
sValight
p7109
F1
sVrandom
p7110
F1
sVtalkers
p7111
F1
sVpolemics
p7112
F1
sVrector
p7113
F1
sVafraid,
p7114
F1
sVabolishment
p7115
F1
sV(could
p7116
F1
sVmortals.
p7117
F1
sVspite
p7118
F3
sVwax."
p7119
F1
sVcommence
p7120
F1
sVspits
p7121
F1
sVdisgust
p7122
F1
sVgods
p7123
F6
sVlodge
p7124
F1
sVanger,
p7125
F1
sVborrowed
p7126
F3
sV_visiting
p7127
F1
sVvalentinians
p7128
F1
sVkindling
p7129
F1
sVwatch
p7130
F2
sVtalker,
p7131
F1
sVphilomela's
p7132
F1
sVreport
p7133
F2
sVabout.
p7134
F1
sVcompanies;
p7135
F1
sVabout,
p7136
F3
sVjeer,
p7137
F1
sVcheating,
p7138
F1
sVcommonwealths,
p7139
F1
sVtwice
p7140
F4
sVdelay.
p7141
F1
sVruins
p7142
F1
sVthanks
p7143
F1
sVdepose,
p7144
F1
sVpresuming
p7145
F1
sVnew,
p7146
F1
sVfell,
p7147
F2
sVliquor
p7148
F3
sVteats,
p7149
F1
sVnew;
p7150
F2
sVprudes;
p7151
F1
sVfell.
p7152
F1
sVstrenuously
p7153
F1
sVcapacity
p7154
F2
sVwarmed,
p7155
F1
sVranged,
p7156
F1
sV"or
p7157
F1
sVplayer.
p7158
F1
sVplayer,
p7159
F1
sVpaternal
p7160
F1
sVfiddlers,
p7161
F1
sVface?
p7162
F1
sVapproach
p7163
F1
sVdiscovery
p7164
F2
sVbargains
p7165
F1
sVconfusion
p7166
F3
sVseldom,
p7167
F1
sVweak
p7168
F5
sVhowever
p7169
F3
sVwear
p7170
F1
sVnews
p7171
F2
sVimprove
p7172
F7
sVwhelps,
p7173
F1
sVgoddess
p7174
F13
sVproviding
p7175
F2
sVfault
p7176
F7
sVdiscover,
p7177
F1
sVdryden
p7178
F3
sVtattle
p7179
F1
sVwranglings
p7180
F1
sVexpense
p7181
F1
sVjove's
p7182
F1
sVenterprise,
p7183
F1
sV"and
p7184
F1
sVtrust
p7185
F4
sVpoverty,
p7186
F1
sVapplause,
p7187
F1
sVknife,
p7188
F1
sVexalt
p7189
F1
sVmomus
p7190
F2
sVbeen
p7191
F65
sVquickly
p7192
F4
sVwere,
p7193
F1
sVblows,
p7194
F1
sVtrampled
p7195
F1
sV{2}
p7196
F2
sVcelestial,
p7197
F1
sVreported,
p7198
F1
sVpallas
p7199
F10
sVfleeting
p7200
F1
sValmanack-makers,
p7201
F1
sVairs,
p7202
F3
sV_not
p7203
F1
sV_nor
p7204
F1
sVbenefits
p7205
F1
sVchurch,
p7206
F3
sVchurch.
p7207
F1
sVsender
p7208
F1
sVdivinities,
p7209
F1
sVcharms,
p7210
F1
sVbee,
p7211
F9
sVhumanity
p7212
F1
sVstrangest
p7213
F1
sVdivinities?
p7214
F1
sVmelbourne_.
p7215
F1
sVcracked
p7216
F1
sVatmosphere,
p7217
F1
sV"a
p7218
F1
sVdescant
p7219
F1
sV"i
p7220
F7
sVlater--and
p7221
F1
sVlust,
p7222
F2
sVscotus,
p7223
F1
sVheart.
p7224
F3
sVheart,
p7225
F4
sVpowers
p7226
F1
sVforehead
p7227
F2
sVheart;
p7228
F3
sVseveral
p7229
F26
sVcensure,
p7230
F1
sVgadbury
p7231
F1
sVmilky
p7232
F1
sVexpense,
p7233
F2
sVexpense.
p7234
F1
sVinsisted
p7235
F1
sVsqueezing
p7236
F1
sVcensures
p7237
F1
sVmother's
p7238
F2
sVpossessed
p7239
F5
sVgreatest
p7240
F10
sVincapable
p7241
F2
sVmother
p7242
F8
sVhearts
p7243
F3
sVchildhood,
p7244
F1
sVshops;
p7245
F1
sVburn,
p7246
F1
sVproposed
p7247
F8
sVmending
p7248
F1
sVmortals:
p7249
F1
sVburn;
p7250
F1
sVadvance.
p7251
F1
sVfoundation.
p7252
F1
sVrivulets
p7253
F1
sVmixed,
p7254
F1
sVvices
p7255
F1
sVtolerably
p7256
F1
sVforfeiture
p7257
F1
sVdissenters
p7258
F1
sVfoot;
p7259
F4
sVobjection.
p7260
F1
sVconsideration
p7261
F1
sVfoot,
p7262
F5
sVgave
p7263
F20
sVvice,
p7264
F1
sVvice.
p7265
F1
sVcasting
p7266
F1
sVbreaks
p7267
F3
sVeye-balls,
p7268
F1
sVpropose,
p7269
F1
sVdescending
p7270
F1
sVvice:
p7271
F1
sVjudge
p7272
F5
sVburnt
p7273
F2
sVscruple
p7274
F1
sVadvanced
p7275
F10
sVcauses.
p7276
F1
sVcauses,
p7277
F1
sVappearing
p7278
F1
sVgift
p7279
F1
sVzeal
p7280
F3
sVcontradict
p7281
F1
sVhunt
p7282
F1
sVstooping,
p7283
F1
sVany.
p7284
F1
sVofficer
p7285
F3
sVany)
p7286
F1
sVhung
p7287
F2
sVcruelty,
p7288
F1
sVwhomever
p7289
F1
sVopinions,
p7290
F1
sVlectures
p7291
F1
sV_which
p7292
F1
sVlucky
p7293
F2
sVseems,
p7294
F4
sVvirtuosos,
p7295
F1
sVescape
p7296
F2
sVmopsa
p7297
F1
sVestablish
p7298
F2
sVcompanions
p7299
F1
sVeverything
p7300
F1
sVicy
p7301
F1
sVantiquity,
p7302
F2
sVdescartes,
p7303
F1
sVbetters."
p7304
F1
sVrebecea,
p7305
F1
sVcontest,
p7306
F1
sVcontest;
p7307
F1
sVaffronts
p7308
F1
sVdysentery,
p7309
F1
sVattacks
p7310
F1
sVcompanion,
p7311
F1
sVefforts
p7312
F2
sVduke
p7313
F3
sVprimitive
p7314
F2
sVpeople."
p7315
F1
sVcivil
p7316
F2
sVbath
p7317
F1
sVall;
p7318
F1
sVrely
p7319
F1
sVforty-three,
p7320
F1
sVsends
p7321
F1
sVfought
p7322
F2
sVpurposely
p7323
F1
sVround,
p7324
F6
sVdifferences
p7325
F1
sVremover
p7326
F1
sVobjects;
p7327
F1
sV26th
p7328
F1
sVvarina,
p7329
F1
sVuncle
p7330
F3
sVround;
p7331
F1
sVheap
p7332
F1
sVrestraints
p7333
F1
sVfooleries,
p7334
F1
sVremoved
p7335
F1
sVhands,
p7336
F3
sVhands.
p7337
F2
sVcounsel
p7338
F3
sVbattle;
p7339
F1
sVdeafness,
p7340
F1
sValtars
p7341
F1
sVcrew,
p7342
F1
sVlopping
p7343
F1
sVto-morrow
p7344
F1
sVadore
p7345
F2
sVbuffoon,
p7346
F1
sVsickliest
p7347
F1
sVcustoms,
p7348
F1
sVsinful
p7349
F1
sVsuspicions
p7350
F1
sVcheck
p7351
F1
sVwillingly
p7352
F1
sVlooked
p7353
F3
sVfaithful
p7354
F1
sVno
p7355
F109
sVwhereas
p7356
F5
sVwhen
p7357
F108
sVvanishes
p7358
F1
sVsetting
p7359
F3
sVextraordinary,
p7360
F1
sVsoundly
p7361
F1
sVprey,
p7362
F1
sVvanished
p7363
F1
sVi.'s
p7364
F1
sVdark;
p7365
F1
sVdullest
p7366
F2
sVill-nature,
p7367
F1
sVyounger
p7368
F2
sVastrology,
p7369
F2
sVfaster
p7370
F2
sVpaper,
p7371
F1
sVexalts
p7372
F1
sVastrology;
p7373
F1
sVremarked
p7374
F1
sVserious
p7375
F2
sVpaper;
p7376
F1
sVrob
p7377
F1
sVdeserving;
p7378
F1
sVlivelihood
p7379
F2
sVcomputation
p7380
F1
sVendowed;
p7381
F1
sVcontraventions
p7382
F1
sVrow
p7383
F1
sVcloud:
p7384
F1
sVpassage
p7385
F1
sVwars,
p7386
F1
sVforgiven,
p7387
F1
sVdiscovering
p7388
F2
sVcloud,
p7389
F2
sVadvantage
p7390
F11
sVexalted
p7391
F1
sVmarket-houses,
p7392
F1
sVlead,
p7393
F2
sValternative,
p7394
F1
sVoracles,
p7395
F1
sVcook
p7396
F1
sVmarried,
p7397
F1
sVincitement
p7398
F1
sVsighed
p7399
F1
sVmoderate
p7400
F2
sVbest,
p7401
F3
sVimmodesty
p7402
F1
sVbrother
p7403
F2
sVlevee
p7404
F1
sVbest;
p7405
F1
sVwalked
p7406
F1
sVscience
p7407
F2
sVquick
p7408
F1
sVsharpness;
p7409
F1
sVombre,
p7410
F1
sVsays
p7411
F7
sVobsolete
p7412
F1
sVindifferent.
p7413
F1
sVwooing,
p7414
F1
sVsung.
p7415
F1
sVd---l,
p7416
F1
sVsung,
p7417
F2
sVstands
p7418
F1
sVdeluded
p7419
F1
sVhealth;
p7420
F1
sVzenith,
p7421
F1
sVstomach,
p7422
F1
sVdebate
p7423
F3
sVgoes
p7424
F5
sVguilt,
p7425
F1
sVguilt.
p7426
F1
sVhealth,
p7427
F5
sVdrink,
p7428
F2
sVafterwards,
p7429
F1
sVsay;
p7430
F1
sVsay:
p7431
F1
sVwater
p7432
F2
sVentertain
p7433
F4
sVsay.
p7434
F1
sVsay,
p7435
F20
sVvocation,
p7436
F1
sVvocation.
p7437
F1
sVholdeth
p7438
F1
sVsighing,
p7439
F1
sVtroubled,
p7440
F1
sVgrounded
p7441
F1
sVguilty
p7442
F3
sVstand;
p7443
F2
sVpauca_
p7444
F1
sVlikewise:
p7445
F1
sVhospitality
p7446
F1
sVstand,
p7447
F1
sVremaineth
p7448
F1
sVbeautiful,
p7449
F1
sVcase,
p7450
F5
sVhumour
p7451
F4
sVmyself,
p7452
F2
sVlawn:
p7453
F1
sVmyself;
p7454
F1
sVpeer
p7455
F2
sVcase:
p7456
F1
sV1st
p7457
F1
sVsession,
p7458
F1
sV"my
p7459
F4
sVcrisis
p7460
F1
sVhermits
p7461
F2
sVpositiveness
p7462
F1
sVwings,
p7463
F1
sVhandled
p7464
F2
sVconfounded
p7465
F3
sVprey
p7466
F3
sVcontrite
p7467
F1
sVmemory
p7468
F5
sVassociated
p7469
F1
sVdrowned;
p7470
F1
sVisle,
p7471
F1
sValtar
p7472
F1
sV(_vide_
p7473
F1
sVcases
p7474
F1
sVand,
p7475
F43
sVwrong.
p7476
F2
sVwrong,
p7477
F2
sVsport,
p7478
F1
sVfroth;
p7479
F1
sVwives.
p7480
F1
sVwrong;
p7481
F2
sVpickle
p7482
F1
sVspun
p7483
F1
sVcorrupted
p7484
F5
sVagree,
p7485
F1
sVunarmed
p7486
F1
sVstroke
p7487
F1
sVdropped
p7488
F2
sVprovoke
p7489
F1
sVintelligible
p7490
F1
sVdancing-masters,
p7491
F1
sVtending;
p7492
F1
sV{4}
p7493
F2
sVvital
p7494
F1
sVcardinal
p7495
F4
sVstruck,
p7496
F1
sVwinds,
p7497
F1
sVdogs,
p7498
F2
sVquack.
p7499
F1
sVimpartial
p7500
F2
sVowned,
p7501
F1
sVrites
p7502
F1
sVbonfires
p7503
F1
sV4th
p7504
F2
sVtipped
p7505
F2
sVamazon,
p7506
F1
sVcuring
p7507
F1
sVeighth
p7508
F1
sVpaid;
p7509
F1
sVpass,
p7510
F4
sVtories
p7511
F1
sVbranches
p7512
F4
sVsucceeded
p7513
F1
sVdifferent,
p7514
F1
sVamuse
p7515
F2
sVenemies,
p7516
F2
sVenemies.
p7517
F1
sVinform
p7518
F3
sVunskilful
p7519
F1
sVgorged
p7520
F1
sVhumanity,
p7521
F2
sVlamented
p7522
F2
sVenemies?
p7523
F1
sVpermission,
p7524
F1
sVconversation;
p7525
F2
sVnostrils."
p7526
F1
sVacts
p7527
F2
sVfurnished
p7528
F6
sVdischarging
p7529
F1
sVplaced,
p7530
F3
sVfurnishes
p7531
F1
sVconversation.
p7532
F1
sVconversation,
p7533
F6
sVweather,
p7534
F3
sVweather.
p7535
F1
sVworship
p7536
F2
sVchristians,
p7537
F3
sVeach;
p7538
F1
sVheels;
p7539
F1
sVlevee,
p7540
F1
sVeach,
p7541
F1
sVeach.
p7542
F1
sVinvent,
p7543
F1
sVcorner.
p7544
F1
sVproclamation
p7545
F1
sVcorner,
p7546
F2
sVdefendant's
p7547
F1
sVhappened
p7548
F9
sV_jus
p7549
F1
sVcommunion,
p7550
F1
sVcloe's
p7551
F1
sVunderneath
p7552
F1
sVqualified
p7553
F2
sVnurse
p7554
F1
sVconceits.
p7555
F1
sVterm
p7556
F1
sVname
p7557
F13
sVlibra,
p7558
F1
sVbacchus
p7559
F1
sVridiculous,
p7560
F1
sVdebating
p7561
F1
sVpossibilities
p7562
F1
sVsoon,
p7563
F1
sVape,
p7564
F1
sVejaculation
p7565
F1
sVpersian
p7566
F1
sVbegun
p7567
F2
sVconstitution
p7568
F2
sVthus:
p7569
F1
sVthus,
p7570
F6
sVadvice
p7571
F1
sVshe
p7572
F147
sVswift's,
p7573
F1
sVattended
p7574
F4
sVvirtue's
p7575
F1
sVforegoing,
p7576
F1
sVtrunk;
p7577
F2
sVgap,
p7578
F1
sVstate.
p7579
F2
sVnay,--now
p7580
F1
sVwisdom's
p7581
F3
sVtrunk.
p7582
F1
sVimportance,
p7583
F1
sVedifice,
p7584
F1
sVmotion
p7585
F3
sVturn
p7586
F15
sVplace
p7587
F10
sVswine
p7588
F1
sVunborn
p7589
F1
sVdeceived
p7590
F3
sVchildhood
p7591
F1
sVuninspired
p7592
F1
sVsuspend
p7593
F1
sVitaly,
p7594
F2
sVblacker
p7595
F1
sVchamillard
p7596
F1
sVgreatest,
p7597
F2
sVengineer
p7598
F1
sVgiven
p7599
F6
sVpersons.
p7600
F2
sVpersons,
p7601
F1
sVstuck
p7602
F1
sVprayers
p7603
F3
sVvirgil
p7604
F7
sV"dissertation
p7605
F1
sVwhite
p7606
F2
sVinsane.
p7607
F1
sVgives
p7608
F1
sVseason
p7609
F3
sVmen's
p7610
F9
sVhut
p7611
F1
sVcopy
p7612
F1
sVmilton
p7613
F1
sVrequire
p7614
F2
sVact?
p7615
F1
sVearth?
p7616
F1
sVwar
p7617
F5
sVseminaries
p7618
F1
sVsucking;
p7619
F1
sVreturn;
p7620
F1
sVmariner
p7621
F1
sVoath
p7622
F1
sVearth,
p7623
F2
sVand
p7624
F1356
sVfriend_,
p7625
F1
sVfelicity
p7626
F2
sVfall:
p7627
F1
sVconfessed
p7628
F5
sVhead
p7629
F7
sVfall.
p7630
F1
sVhearers'
p7631
F1
sVsuspense
p7632
F2
sVrent
p7633
F1
sVhearers,
p7634
F1
sVcages.
p7635
F1
sVany
p7636
F54
sVpassengers,
p7637
F1
sVdiligence
p7638
F1
sVideas
p7639
F1
sVwandered
p7640
F1
sV_hiatus
p7641
F1
sVlate,
p7642
F2
sVlate.
p7643
F1
sVsect
p7644
F1
sVurge
p7645
F2
sVsure
p7646
F5
sVsell,
p7647
F1
sVinvasions
p7648
F1
sVfalls
p7649
F4
sVstormed
p7650
F1
sVconvents
p7651
F1
sVposterity_.
p7652
F1
sVstrength,
p7653
F1
sVidea;
p7654
F1
sVstrength.
p7655
F2
sVovid
p7656
F1
sVstrength!
p7657
F1
sVproud
p7658
F5
sVheat
p7659
F1
sVscience,
p7660
F1
sVkilled.
p7661
F1
sVhear
p7662
F11
sVquantity
p7663
F1
sVarmy,
p7664
F4
sVcheat
p7665
F2
sVsame,
p7666
F1
sVadorned
p7667
F1
sVtrod
p7668
F1
sVsped,
p7669
F1
sVuncle,
p7670
F1
sVwagers
p7671
F1
sVexploded,
p7672
F1
sVplentifully
p7673
F2
sVbrayings
p7674
F1
sVancients;
p7675
F2
sVancients'
p7676
F1
sVancients,
p7677
F11
sVcautioned
p7678
F1
sVancients.
p7679
F3
sVboyle
p7680
F4
sVpresbyterian
p7681
F1
sVodds.
p7682
F1
sVexpectation
p7683
F2
sVregarding
p7684
F1
sVribs,
p7685
F1
sVpinnacle
p7686
F1
sVindependents,
p7687
F1
sV"'tis
p7688
F1
sVturns,
p7689
F2
sVpains.
p7690
F1
sVpains,
p7691
F3
sVhoped,
p7692
F1
sV"how
p7693
F1
sVmelancholy.
p7694
F1
sVmelancholy,
p7695
F1
sVgrieve:
p7696
F1
sVbeholding
p7697
F1
sVvizor
p7698
F1
sVcollege
p7699
F3
sVobtained,
p7700
F3
sVpriest;
p7701
F1
sVlusty,
p7702
F1
sVcrooked
p7703
F1
sVits
p7704
F36
sVweapons
p7705
F2
sVages)
p7706
F1
sVmerit.
p7707
F1
sVovercharge
p7708
F1
sVwhereof,
p7709
F1
sVcome
p7710
F18
sVgrieved
p7711
F2
sVway;
p7712
F1
sVvices,
p7713
F1
sVregion
p7714
F2
sVpriests
p7715
F1
sVquiet
p7716
F4
sVway.
p7717
F3
sVway,
p7718
F4
sVfarmer,
p7719
F1
sVsenator
p7720
F1
sVfail.
p7721
F1
sVchampion.
p7722
F1
sVafterwards
p7723
F1
sVhabit,
p7724
F1
sVcolony
p7725
F2
sVperiod
p7726
F3
sVinsist
p7727
F1
sVsatisfaction
p7728
F1
sVstraws.
p7729
F1
sVwhoring,
p7730
F1
sVstraws,
p7731
F1
sVev'ry
p7732
F1
sVturkey
p7733
F1
sVsymptoms
p7734
F1
sVdormitories,
p7735
F1
sVuniversities,
p7736
F1
sVrhyme;
p7737
F1
sVsubmit.
p7738
F1
sVrhyme,
p7739
F1
sVbequeathed
p7740
F1
sVrhyme.
p7741
F1
sVpeaceful
p7742
F1
sVpromises,
p7743
F2
sVhardly
p7744
F12
sVengine
p7745
F1
sVtiger
p7746
F1
sVburied,
p7747
F1
sVminister
p7748
F2
sVinfinite.
p7749
F1
sVcareful
p7750
F1
sVspirit
p7751
F5
sVcase
p7752
F8
sVmyself
p7753
F4
sVmount
p7754
F2
sVtwigs
p7755
F1
sVlife:
p7756
F1
sVstrikes.
p7757
F1
sVtroth,"
p7758
F1
sVcast
p7759
F5
sVwhatsoever,
p7760
F1
sVlife.
p7761
F6
sVshops
p7762
F3
sVlife,
p7763
F10
sVcoupled
p7764
F1
sVcontrive
p7765
F1
sVdisadvantage,
p7766
F1
sVperson;
p7767
F1
sVaristo
p7768
F1
sVhelmet
p7769
F4
sVsides,
p7770
F5
sVpreferred;"
p7771
F1
sVbred.
p7772
F1
sVauthor
p7773
F4
sVgranted
p7774
F1
sVbred;
p7775
F1
sVstealing,
p7776
F2
sVmode,
p7777
F1
sVevents
p7778
F13
sVpace:
p7779
F1
sVfortress,
p7780
F1
sVevents;
p7781
F1
sVwar),
p7782
F1
sVpersons
p7783
F11
sVpetticoat
p7784
F2
sVaccuunt
p7785
F1
sVdelicate
p7786
F1
sVstatue
p7787
F1
sVevents.
p7788
F2
sVvowed
p7789
F2
sVconceived,
p7790
F2
sVevent,
p7791
F2
sVdying
p7792
F4
sVbow,
p7793
F1
sVbow.
p7794
F1
sVwithout
p7795
F48
sVhunting-match
p7796
F1
sVireland.
p7797
F1
sVireland,
p7798
F1
sVmodel
p7799
F2
sVbow;
p7800
F1
sVrevolution.
p7801
F1
sVit;
p7802
F7
sVstyle;
p7803
F1
sVstyle:
p7804
F1
sVcompound
p7805
F2
sVactions
p7806
F7
sVviolent
p7807
F3
sVkill
p7808
F2
sVkill,
p7809
F1
sVhusbands.
p7810
F1
sVsatin
p7811
F1
sVkneeling
p7812
F1
sVstyle,
p7813
F1
sVblow
p7814
F2
sVhint
p7815
F2
sVrose
p7816
F2
sVpossible,
p7817
F1
sVregent
p7818
F1
sVseems
p7819
F12
sVexcept
p7820
F5
sVcomplain
p7821
F1
sVclay,
p7822
F1
sV"rights
p7823
F1
sVlets
p7824
F1
sVquality,
p7825
F3
sVbrute:
p7826
F1
sVsign;
p7827
F2
sVkingdom
p7828
F3
sVholding
p7829
F1
sVeasily
p7830
F5
sVpapers
p7831
F1
sVaction,
p7832
F4
sVpredetermined
p7833
F1
sVaddress,
p7834
F1
sVfindeth
p7835
F1
sVstyled
p7836
F2
sVconfined
p7837
F5
sVcorrecting
p7838
F1
sVdull.
p7839
F1
sVpremises,
p7840
F1
sV_so
p7841
F1
sVmethusalem,
p7842
F1
sValways
p7843
F17
sVbeholders
p7844
F1
sVbeards,
p7845
F1
sVreduced
p7846
F1
sVvain.
p7847
F1
sVvain,
p7848
F3
sVvain?
p7849
F1
sVvain;
p7850
F5
sVvain:
p7851
F1
sVprovided
p7852
F7
sVhighest
p7853
F8
sV_she
p7854
F1
sVdudley
p7855
F1
sVstops
p7856
F2
sVmoor
p7857
F5
sVimputed
p7858
F2
sVpetticoats,
p7859
F1
sVquit
p7860
F3
sVcringing
p7861
F2
sVcommunicate
p7862
F1
sVslaughter
p7863
F2
sVloudest
p7864
F1
sVexamined."
p7865
F1
sVaffording
p7866
F1
sVjupiter's
p7867
F1
sVon
p7868
F184
sVzealous
p7869
F1
sVof
p7870
F1362
sVstop,
p7871
F1
sVwhence
p7872
F7
sVstand
p7873
F8
sVfree,
p7874
F1
sVor
p7875
F270
sVknits
p7876
F1
sVflies,
p7877
F3
sVtribe
p7878
F1
sVladies
p7879
F5
sVoccasions,
p7880
F1
sVinstruments
p7881
F1
sVnames;
p7882
F1
sVaugustus
p7883
F2
sVrising
p7884
F1
sVdetermine
p7885
F1
sVnames.
p7886
F1
sVengland
p7887
F6
sVgrogram
p7888
F1
sVremote.
p7889
F1
sVdistinctions
p7890
F1
sVthere
p7891
F78
sVdisposed
p7892
F4
sVchristianity
p7893
F15
sVstrict
p7894
F2
sVsummit,
p7895
F1
sVmischief
p7896
F5
sVjug
p7897
F1
sVregard
p7898
F10
sVskies:
p7899
F1
sVamongst
p7900
F1
sVidea
p7901
F2
sVquadrupeds
p7902
F1
sV"what's
p7903
F1
sVskies!
p7904
F1
sVl'estrange;
p7905
F1
sVappellations
p7906
F1
sVskies,
p7907
F2
sVweeds,
p7908
F1
sVlonger
p7909
F10
sVomissions,
p7910
F1
sVapplying
p7911
F1
sVdistinction?
p7912
F1
sVmortals
p7913
F5
sVjuncture,
p7914
F1
sV"cadenus
p7915
F1
sVarmies,
p7916
F1
sVcreeping
p7917
F1
sVstrongly
p7918
F2
sVfrighted
p7919
F1
sVstock,
p7920
F1
sVstock.
p7921
F1
sVtaste
p7922
F2
sVsuspecting
p7923
F1
sVrheumatism,
p7924
F1
sVbegins:
p7925
F1
sVwords,
p7926
F5
sVmethinks,
p7927
F1
sVhearts,
p7928
F2
sVpolitics
p7929
F2
sVfiddler
p7930
F1
sVaeneas.
p7931
F1
sVdeserve
p7932
F1
sVdiscerned
p7933
F1
sVswords
p7934
F1
sVloyal
p7935
F1
sVswift's
p7936
F3
sVparson,
p7937
F2
sVbroomstick!"
p7938
F1
sVcall,
p7939
F1
sVreally
p7940
F2
sVbriefly
p7941
F1
sV_being
p7942
F1
sVseparate
p7943
F1
sVcourtly
p7944
F1
sVbullets
p7945
F1
sVincluded
p7946
F1
sVinroads
p7947
F1
sVbounden
p7948
F1
sVcastle,
p7949
F1
sVcalls
p7950
F2
sVwife
p7951
F3
sVaspired;
p7952
F1
sVdog
p7953
F1
sVrose.
p7954
F1
sVparsons
p7955
F1
sVrose,
p7956
F1
sVdirectors
p7957
F2
sVsword,
p7958
F1
sVinvokes--
p7959
F1
sVamour.
p7960
F1
sVsmaller.
p7961
F1
sVall
p7962
F203
sVdescartes
p7963
F2
sVflail,
p7964
F1
sVadversaries,
p7965
F1
sVlack
p7966
F1
sVson,
p7967
F1
sV_according
p7968
F1
sVdancing,
p7969
F1
sVfollow
p7970
F3
sVmeditation
p7971
F1
sVson;
p7972
F2
sVapartment
p7973
F1
sVassuage
p7974
F1
sVfew,
p7975
F2
sVremoval
p7976
F1
sVjoist;
p7977
F1
sVesther
p7978
F2
sVworse
p7979
F4
sVfar
p7980
F16
sVcavaliers,
p7981
F1
sVsons
p7982
F2
sVworst
p7983
F3
sVdapper
p7984
F1
sVmeetings
p7985
F1
sVlist
p7986
F3
sVpurlieus
p7987
F1
sVcoxcombs
p7988
F1
sVrake,
p7989
F1
sVten
p7990
F8
sVwarms,
p7991
F2
sVtea
p7992
F1
sVtoe:
p7993
F1
sVrate
p7994
F1
sVinvention
p7995
F5
sVdesign
p7996
F8
sV"brave
p7997
F2
sVgait,
p7998
F1
sVbelief
p7999
F3
sVwhat
p8000
F104
sVnecessary.
p8001
F1
sVcalmly.
p8002
F1
sVdeeply
p8003
F2
sVsum
p8004
F3
sVdames,
p8005
F1
sVeminent
p8006
F2
sVallow.
p8007
F1
sVnancy,
p8008
F1
sVpulpit
p8009
F1
sVdiscern
p8010
F1
sVguns
p8011
F1
sVmultitude
p8012
F1
sVwomb
p8013
F1
sVheadstrong,
p8014
F1
sVchristian
p8015
F8
sVdream;
p8016
F1
sVowns
p8017
F1
sVprophets,
p8018
F1
sVwhen,
p8019
F5
sVcompass,
p8020
F1
sVberkeley
p8021
F2
sVrakes
p8022
F1
sVobserving
p8023
F6
sV'twere
p8024
F1
sVallows
p8025
F2
sVmust,
p8026
F3
sVmembers
p8027
F1
sVhorse;
p8028
F1
sVdraught,
p8029
F1
sV1704.
p8030
F1
sValmanacks
p8031
F4
sVpresume,
p8032
F1
sVknow,
p8033
F3
sVhorse.
p8034
F1
sVhorse,
p8035
F5
sVproceed
p8036
F7
sVharlequin
p8037
F1
sVdissatisfied
p8038
F1
sVgestures;
p8039
F1
sVmountebanks.
p8040
F1
sVhorses
p8041
F2
sVwretched
p8042
F3
sVknows
p8043
F8
sVfeeding,
p8044
F1
sVmad
p8045
F1
sValmanack,
p8046
F1
sV_future
p8047
F1
sVflag
p8048
F1
sVwretches
p8049
F2
sVdraughts
p8050
F1
sVknown
p8051
F14
sVtext;
p8052
F1
sVglad
p8053
F4
sVpriestcraft,
p8054
F2
sVsmiglesius,
p8055
F1
sVdebates
p8056
F1
sVowing,
p8057
F1
sVdebated
p8058
F1
sVineffectual
p8059
F1
sV"eloquent
p8060
F1
sVprotects
p8061
F1
sVbickerstaff,
p8062
F1
sVarise
p8063
F2
sVballs,
p8064
F1
sVobserving,
p8065
F1
sVcultivate
p8066
F3
sVallege
p8067
F1
sVidiots;
p8068
F1
sVrome;
p8069
F1
sVcourt
p8070
F6
sVrather
p8071
F8
sVbreaking
p8072
F2
sVcleansing
p8073
F1
sVoccasionally
p8074
F1
sVcannon-ball,
p8075
F1
sVcannon-ball.
p8076
F1
sVgoat
p8077
F1
sVmould
p8078
F1
sVgoddess!
p8079
F1
sVgoddess.
p8080
F1
sVgoddess,
p8081
F6
sVuse--of
p8082
F1
sVreflect
p8083
F5
sVadventure
p8084
F3
sVballads
p8085
F1
sVhandsome,
p8086
F1
sVignominy,
p8087
F1
sVshort
p8088
F7
sVchiefly
p8089
F6
sVsusan
p8090
F1
sVinfluence,
p8091
F2
sVinfluence.
p8092
F1
sVjove
p8093
F1
sVfourteenth,
p8094
F1
sVshade
p8095
F1
sVschoolfellows.
p8096
F1
sVinfluence;
p8097
F1
sVwould,
p8098
F2
sVdon't
p8099
F2
sV"if
p8100
F2
sVcloseness
p8101
F1
sVcross
p8102
F1
sVquarrels
p8103
F3
sVunkind;
p8104
F1
sVpretext
p8105
F1
sV"it
p8106
F2
sVpersecution)
p8107
F1
sV"is
p8108
F1
sVstyle
p8109
F3
sVpray
p8110
F3
sVfearful,
p8111
F1
sVharmless
p8112
F1
sVstrange
p8113
F3
sVmight
p8114
F41
sValter
p8115
F1
sVmerciful
p8116
F2
sVreturn
p8117
F3
sVsucking
p8118
F1
sVlittle,
p8119
F1
sVquarrel,
p8120
F3
sV_he
p8121
F4
sVsubstance,
p8122
F1
sVinstructions
p8123
F1
sVlevel
p8124
F2
sVjames,
p8125
F1
sV12th
p8126
F1
sVinherent
p8127
F1
sVfriendship
p8128
F5
sVweight
p8129
F6
sVneedless
p8130
F2
sVheavy-armed,
p8131
F1
sVexpect
p8132
F2
sVundertake
p8133
F2
sVnature's
p8134
F2
sV"yet
p8135
F1
sVblamable;
p8136
F1
sVreverend
p8137
F1
sVhealth
p8138
F3
sVhill
p8139
F5
sVboldness
p8140
F2
sV_new
p8141
F1
sVcombed
p8142
F1
sVfriday
p8143
F3
sVforgive
p8144
F5
sVentertaining
p8145
F1
sVmadman,
p8146
F2
sVseldomer
p8147
F1
sVteach
p8148
F3
sVthrown
p8149
F2
sVtoys,
p8150
F1
sVyear's
p8151
F2
sVtreach'rous
p8152
F2
sVprejudice
p8153
F1
sVconsequence
p8154
F3
sVfallen
p8155
F3
sVfeed
p8156
F1
sVseeming
p8157
F1
sVfeel
p8158
F3
sVrelate
p8159
F3
sVfancy
p8160
F8
sVfeet
p8161
F2
sVrevolution
p8162
F1
sVdefects
p8163
F1
sVfees
p8164
F1
sVpasses
p8165
F3
sVstory
p8166
F3
sVthoughts,
p8167
F6
sVleading
p8168
F2
sVhangs
p8169
F2
sVaim,
p8170
F2
sVstorm
p8171
F1
sVkin;
p8172
F1
sVstore
p8173
F1
sVsaint
p8174
F1
sVrelieved
p8175
F1
sVexploded
p8176
F2
sVimportunity
p8177
F1
sVluckily
p8178
F1
sVlogicians
p8179
F2
sVconvinced
p8180
F3
sVdefect;
p8181
F1
sVdisputants,"
p8182
F1
sVking
p8183
F11
sVkind
p8184
F7
sVcompliment,
p8185
F1
sVvial
p8186
F1
sVdouble
p8187
F4
sVinstruction
p8188
F1
sVviews,
p8189
F1
sVharbour.
p8190
F1
sVpreface,
p8191
F1
sVtongues
p8192
F2
sVvizard
p8193
F1
sVseason,
p8194
F1
sVsearch,
p8195
F3
sVstrengthen
p8196
F2
sVwell
p8197
F34
sVwarning?
p8198
F1
sVdetestation
p8199
F1
sVstinkpot-flingers
p8200
F1
sV_desunt
p8201
F1
sValike
p8202
F2
sVindustriously,
p8203
F1
sVgall
p8204
F3
sVworks!
p8205
F1
sVgenerals,
p8206
F2
sVwindow,
p8207
F1
sVfinding
p8208
F3
sVfour-foot
p8209
F1
sVadded
p8210
F3
sVinstance.
p8211
F1
sVreach
p8212
F2
sVinstance,
p8213
F5
sV"for,"
p8214
F1
sVnothing
p8215
F28
sVtongue.
p8216
F1
sVtongue,
p8217
F2
sVdealers
p8218
F1
sVnumberless
p8219
F1
sVwindows
p8220
F1
sVnight;
p8221
F1
sVleaveth
p8222
F1
sVimitation.
p8223
F2
sVdubiously,
p8224
F1
sVhindrance
p8225
F1
sVphalaris,
p8226
F3
sVnight,
p8227
F5
sVcouncil-board.
p8228
F1
sVlying
p8229
F5
sVcontracted
p8230
F2
sVbeard.
p8231
F1
sVfond
p8232
F2
sVprodigious
p8233
F3
sVto-day;
p8234
F1
sVgilded
p8235
F2
sVsecuring
p8236
F1
sVshepherd
p8237
F1
sVhis
p8238
F420
sVhit
p8239
F2
sVinvoke
p8240
F1
sVspurious
p8241
F1
sVpragmatical,
p8242
F1
sVdo't.
p8243
F1
sVtub,"
p8244
F1
sVterrestrial
p8245
F1
sVhid
p8246
F1
sVcavalry,
p8247
F1
sVflame,
p8248
F2
sVwarmth,
p8249
F1
sVexpedient,
p8250
F2
sVhim
p8251
F74
sVstone,
p8252
F1
sVinsensibly
p8253
F1
sVflame.
p8254
F1
sVmedicines
p8255
F1
sVtill,
p8256
F1
sVdesert,
p8257
F2
sVwheeling
p8258
F1
sVcringe
p8259
F1
sVwrote
p8260
F2
sVart
p8261
F21
sVcity,
p8262
F2
sVregions,
p8263
F1
sVinvectives
p8264
F1
sVintelligence
p8265
F2
sVme;
p8266
F2
sVchaplain
p8267
F2
sVare
p8268
F193
sVchambers
p8269
F1
sVarm
p8270
F3
sVdeclined
p8271
F1
sVfind,
p8272
F3
sVlearnt
p8273
F1
sVvile,
p8274
F1
sVlibraries
p8275
F2
sVvarious
p8276
F3
sVother's
p8277
F3
sVnumerous
p8278
F3
sVcorruption
p8279
F1
sVlamenting
p8280
F1
sVafter,
p8281
F2
sVafter.
p8282
F1
sVleavings
p8283
F1
sVdays:
p8284
F1
sVdays;
p8285
F1
sVchamber,
p8286
F2
sVattention
p8287
F1
sVdays.
p8288
F1
sVdays,
p8289
F2
sVsucceed
p8290
F1
sVmimic-race
p8291
F1
sVopposition
p8292
F1
sVdays!
p8293
F1
sVlicense
p8294
F1
sVfalse,
p8295
F1
sVfalse.
p8296
F1
sVbecame
p8297
F13
sVformer.
p8298
F1
sVhowever,
p8299
F10
sVfinds
p8300
F3
sVsloth
p8301
F1
sVflies
p8302
F2
sVknew,
p8303
F3
sVclashing
p8304
F1
sVknew.
p8305
F1
sVreasons
p8306
F7
sVwrongs.
p8307
F1
sVsweep
p8308
F1
sVknew;
p8309
F1
sVvillage
p8310
F2
sV1688.
p8311
F1
sVplease."
p8312
F1
sVthere,
p8313
F1
sVdecline
p8314
F1
sVthere.
p8315
F1
sVb.d.,
p8316
F1
sVdue
p8317
F7
sVdug
p8318
F2
sVwhom
p8319
F33
sVsupplying
p8320
F1
sVengineer;
p8321
F1
sVhumours,
p8322
F1
sVreason:
p8323
F1
sVflight
p8324
F2
sVimprudence
p8325
F1
sVreason.
p8326
F1
sVreason,
p8327
F6
sVflorimel's
p8328
F1
sVconfess,
p8329
F4
sVconception
p8330
F1
sVshare;
p8331
F1
sVworkmen
p8332
F1
sVwho;
p8333
F1
sVlips.
p8334
F1
sVbeauty,
p8335
F3
sVcall?
p8336
F1
sVwho,
p8337
F10
sVsteeple.
p8338
F1
sVparents,
p8339
F1
sVengineers
p8340
F1
sVwhere,
p8341
F5
sVstyx
p8342
F1
sVdublin
p8343
F2
sVmagnanimity,
p8344
F1
sVflow,
p8345
F1
sVrid
p8346
F1
sVanguish
p8347
F1
sVjames's
p8348
F3
sVaway.
p8349
F2
sVaway,
p8350
F3
sVchicken.
p8351
F1
sVhester
p8352
F1
sVdare?
p8353
F1
sVoppose
p8354
F3
sVesteemed
p8355
F1
sVadvise
p8356
F3
sVdaughters
p8357
F1
sVhigher
p8358
F1
sVmankind?
p8359
F1
sVpaths
p8360
F1
sVrestraint
p8361
F1
sVmankind.
p8362
F1
sVlean,
p8363
F1
sVmankind,
p8364
F1
sVmoving
p8365
F2
sVmankind!
p8366
F1
sVdaughter,
p8367
F1
sVlower
p8368
F3
sVpeople,
p8369
F7
sVtry
p8370
F3
sVnonconformist,
p8371
F1
sVoligarchy,
p8372
F1
sVsewing."
p8373
F1
sVunspotted
p8374
F2
sVlength,
p8375
F7
sVabilities
p8376
F1
sVendeavour
p8377
F2
sVhands;
p8378
F1
sVplaces,
p8379
F2
sVcomputing,
p8380
F1
sVrepealing
p8381
F2
sVspire.
p8382
F1
sVquestions
p8383
F1
sVcomplain.
p8384
F1
sVcomplain,
p8385
F1
sVprince
p8386
F3
sVmeanest
p8387
F1
sVmyself.
p8388
F1
sV"but
p8389
F1
sVshaft,
p8390
F1
sVmajority
p8391
F4
sVoffices;
p8392
F1
sVcase.
p8393
F2
sVmarli,
p8394
F1
sVshape,
p8395
F3
sVshape;
p8396
F1
sVshovels
p8397
F1
sVoffices,
p8398
F1
sVcomplaint
p8399
F1
sVvindicate
p8400
F1
sV1724.
p8401
F1
sVadvocate
p8402
F2
sVvellum.
p8403
F1
sVentangled
p8404
F1
sVmisapplied?
p8405
F1
sVrejoinders
p8406
F1
sVshovel,
p8407
F1
sVdecays
p8408
F1
sVincidental
p8409
F1
sVtrinitarians.
p8410
F1
sValmanack
p8411
F3
sVcollect
p8412
F1
sVconfederacy
p8413
F1
sVrefuse.
p8414
F1
sVunderstood
p8415
F4
sVlitter
p8416
F1
sV"we
p8417
F1
sVsprightly
p8418
F1
sVloses
p8419
F1
sVstately
p8420
F1
sVwomen,
p8421
F2
sVovertures
p8422
F2
sV(whether
p8423
F1
sVanno
p8424
F2
sVlaracor
p8425
F2
sVbleed;
p8426
F1
sVanne
p8427
F1
sValmanacks.
p8428
F1
sVloud,
p8429
F4
sVshook.
p8430
F1
sVperpendicular
p8431
F1
sVrefused
p8432
F1
sValoft
p8433
F2
sVcrowds
p8434
F1
sVdormant
p8435
F2
sVcautious
p8436
F1
sVmost
p8437
F48
sVwhat,
p8438
F1
sVvulgar,
p8439
F3
sVjanuary,
p8440
F3
sVrange
p8441
F1
sVgreets
p8442
F1
sVyouthful
p8443
F2
sVscorns
p8444
F3
sVloads,
p8445
F1
sVvagabond
p8446
F1
sVimaginary,
p8447
F1
sVchasms,
p8448
F1
sVquestion
p8449
F3
sVcondescension,
p8450
F1
sVlong
p8451
F34
sVupheld
p8452
F1
sVmountains
p8453
F1
sVout-guards,
p8454
F1
sVscorn;
p8455
F1
sVgracefulness
p8456
F1
sVpease.
p8457
F1
sVgave,
p8458
F1
sVreflections,
p8459
F1
sVraising
p8460
F1
sVmotive
p8461
F1
sVfled,
p8462
F2
sVfulfilling
p8463
F3
sVrow:
p8464
F1
sVgratifying
p8465
F2
sVfled;
p8466
F1
sVfifteen.
p8467
F1
sVetc.
p8468
F1
sVcalled
p8469
F19
sVlove's
p8470
F1
sVbreast:
p8471
F1
sVbreast;
p8472
F5
sVhousekeeper,
p8473
F1
sVcover
p8474
F3
sVbreast,
p8475
F2
sVwarning
p8476
F2
sVwotton,
p8477
F8
sVwotton.
p8478
F2
sVknowledge.
p8479
F1
sVdanger,
p8480
F1
sVknowledge,
p8481
F4
sVweight.
p8482
F1
sVsixty-one
p8483
F1
sVknowledge;
p8484
F1
sVincome
p8485
F1
sVweight;
p8486
F1
sVlectures,
p8487
F1
sVundertakers
p8488
F1
sVcompounded,
p8489
F1
sVeye,
p8490
F1
sVretire,
p8491
F1
sVcharged,
p8492
F1
sVbreasts
p8493
F2
sVbarren
p8494
F1
sVinsect
p8495
F1
sVpersuade;
p8496
F1
sVsickness."
p8497
F1
sVsuffers
p8498
F1
sVvice
p8499
F3
sVimpatient
p8500
F3
sVback,
p8501
F1
sVdistain
p8502
F1
sVweighty
p8503
F3
sVonce
p8504
F16
sVissued
p8505
F4
sVrules,
p8506
F2
sVsake.
p8507
F1
sVprophecy
p8508
F1
sVissues
p8509
F2
sVnote;
p8510
F1
sVwhether,
p8511
F1
sVdeal.
p8512
F1
sVparadoxes?
p8513
F1
sVclean,
p8514
F2
sVscoundrels;
p8515
F1
sVbreach
p8516
F2
sVt'other
p8517
F3
sVedg'd
p8518
F1
sVbreathing
p8519
F1
sVseized
p8520
F3
sVfame;
p8521
F2
sV"little
p8522
F1
sV_in_
p8523
F1
sVwind;
p8524
F1
sVforetell
p8525
F2
sVhook,
p8526
F1
sVdrinking
p8527
F1
sVinfinite
p8528
F6
sV_1727_.
p8529
F1
sVposture
p8530
F7
sVincoherent
p8531
F1
sVfontenelle,
p8532
F1
sVlanguage.
p8533
F1
sVlanguage,
p8534
F4
sVtenderness
p8535
F1
sVweek's
p8536
F1
sVwell-instituted
p8537
F1
sVlanguage;
p8538
F1
sVnoted
p8539
F1
sVpleas
p8540
F1
sVtoils
p8541
F1
sVsmaller
p8542
F1
sVyou'd
p8543
F2
sVfolds
p8544
F1
sVsex,
p8545
F4
sVmalice
p8546
F3
sVdesire;
p8547
F1
sVfold
p8548
F1
sVdesire,
p8549
F1
sVfolk
p8550
F1
sVhourly
p8551
F2
sVhome-spun
p8552
F1
sVfootmen,
p8553
F1
sVabilities?
p8554
F1
sVman's
p8555
F4
sVwaiting
p8556
F1
sVvisits,
p8557
F1
sVlarge,
p8558
F3
sVabilities,
p8559
F1
sVwives,
p8560
F1
sVabilities.
p8561
F1
sVmaker,
p8562
F1
sVchose
p8563
F3
sVpasteboard,
p8564
F2
sVconclude,
p8565
F2
sVcivility,
p8566
F1
sVdesired
p8567
F7
sVinmost
p8568
F1
sVmiser
p8569
F1
sVdistressed
p8570
F2
sVwickets,
p8571
F1
sVworship,
p8572
F2
sVlarger
p8573
F1
sVones.
p8574
F1
sVleaving
p8575
F5
sVincline,
p8576
F1
sVmandarins
p8577
F1
sVheart
p8578
F12
sVforbid
p8579
F2
sVparrot,
p8580
F1
sVapt
p8581
F15
sVincline;
p8582
F1
sVlodging
p8583
F2
sVapply
p8584
F4
sVworshippers,
p8585
F1
sVape
p8586
F4
sVuse
p8587
F21
sVfrom
p8588
F169
sV&
F2
sVfew
p8589
F37
sVexamination
p8590
F1
sVpossession
p8591
F5
sVboast.
p8592
F1
sVboast,
p8593
F2
sVinclined
p8594
F4
sVred?
p8595
F1
sVvirulence
p8596
F1
sVup_.
p8597
F1
sVinclines
p8598
F1
sVwomen
p8599
F8
sVtopic
p8600
F1
sVmattocks,
p8601
F1
sVboarding-schools
p8602
F1
sVus.
p8603
F6
sVus,
p8604
F15
sVanywhere
p8605
F1
sVus?
p8606
F1
sVperformed
p8607
F2
sVpatron
p8608
F1
sVearnestness
p8609
F1
sVtax
p8610
F1
sVmask.
p8611
F1
sVcondescend
p8612
F1
sVtenants,
p8613
F1
sVfashions,
p8614
F1
sVcounterfeit
p8615
F1
sVsir
p8616
F15
sVsit
p8617
F2
sVsix
p8618
F7
sVtraders
p8619
F2
sVunquestionably
p8620
F1
sVinstead
p8621
F6
sVgoldsmith
p8622
F1
sVastrologers
p8623
F1
sVsin
p8624
F1
sVphalaris
p8625
F6
sVattend
p8626
F2
sVabuse
p8627
F4
sVdigressions,
p8628
F1
sV"such
p8629
F1
sVtransmigrates
p8630
F1
sVlight
p8631
F5
sVgall;
p8632
F1
sVunite,
p8633
F1
sVinterrupted
p8634
F1
sVhonestly
p8635
F1
sVconsents;
p8636
F1
sVunite;
p8637
F1
sVswifts,
p8638
F1
sVbeauties
p8639
F1
sV1700,
p8640
F1
sVtables;
p8641
F1
sVpaternoster
p8642
F1
sVtimes:
p8643
F1
sV13,
p8644
F1
sVwhilst
p8645
F2
sVbeguile
p8646
F1
sVdearest
p8647
F3
sVlooks
p8648
F1
sVtyrant
p8649
F1
sVchaff,
p8650
F1
sVsuperior
p8651
F5
sVease,
p8652
F3
sVworld:
p8653
F1
sVworld;
p8654
F3
sVprose;
p8655
F2
sVchoose
p8656
F1
sVinconsistencies
p8657
F1
sVcovered
p8658
F2
sVwriters.
p8659
F1
sVgospel,
p8660
F3
sVworld.
p8661
F5
sVworld,
p8662
F7
sVhappened,
p8663
F1
sVsocrates.
p8664
F1
sVlook,
p8665
F2
sVmaterial
p8666
F1
sVflew
p8667
F3
sVhappened;
p8668
F1
sVregiomontanus
p8669
F1
sVfled
p8670
F6
sVsects
p8671
F1
sVcrowd.
p8672
F1
sVcrowd,
p8673
F1
sVprofound
p8674
F5
sVyesterday,
p8675
F1
sVsecures
p8676
F1
sVby.
p8677
F4
sVby,
p8678
F3
sVpleasures
p8679
F2
sVh.
p8680
F1
sVtray
p8681
F1
sVpitying
p8682
F1
sVbentley
p8683
F7
sVrelated
p8684
F2
sVhorace,
p8685
F2
sVmaintain,
p8686
F2
sVdoubled
p8687
F1
sVrelates
p8688
F1
sVphoebus
p8689
F2
sVout
p8690
F70
sVtimber,
p8691
F1
sVpursued.
p8692
F1
sVpursued,
p8693
F1
sVmachinations,
p8694
F1
sVthrifty
p8695
F1
sVbarn,
p8696
F1
sVsupports
p8697
F1
sVdespairing
p8698
F1
sVpromoted,
p8699
F1
sVdisclose
p8700
F1
sVsaviour.
p8701
F1
sVyork
p8702
F1
sVfortune.
p8703
F1
sVcompositions
p8704
F1
sVphrases
p8705
F2
sVday),
p8706
F1
sVconversation
p8707
F19
sVhence
p8708
F2
sVrespect,
p8709
F2
sVplainly
p8710
F3
sVsickness,
p8711
F3
sV'lighting
p8712
F1
sVhitherto
p8713
F2
sVcalled,
p8714
F3
sVturning.
p8715
F1
sVenough;
p8716
F2
sVbehind:
p8717
F1
sVpassion,
p8718
F1
sVbehind?
p8719
F1
sVdroop
p8720
F1
sVuniting
p8721
F1
sVunknown
p8722
F4
sVmyself,"
p8723
F1
sVhumour,
p8724
F3
sVaccent
p8725
F1
sVtemperate,
p8726
F1
sVpriority
p8727
F1
sVtheir
p8728
F262
sVenough.
p8729
F4
sVintroduced.
p8730
F1
sVenough,
p8731
F1
sVhumour;
p8732
F1
sVvalde
p8733
F1
sVagility
p8734
F1
sVdiscovered
p8735
F2
sVshelf
p8736
F3
sVdoomed
p8737
F1
sV_a
p8738
F1
sVlearned,
p8739
F7
sVdiminish
p8740
F1
sVinstitution
p8741
F2
sV"god
p8742
F1
sVliquid
p8743
F1
sVretreat,
p8744
F1
sVpatients
p8745
F1
sVhumours
p8746
F1
sVfarrowed
p8747
F1
sVtracts
p8748
F1
sV_august_.
p8749
F1
sVherefordshire,
p8750
F1
sVsincerity
p8751
F1
sV"well,
p8752
F1
sVadversary,
p8753
F1
sVmemory;
p8754
F2
sVafraid
p8755
F3
sVrout
p8756
F1
sVwhich
p8757
F211
sVden,
p8758
F1
sVdivert
p8759
F3
sVreared,
p8760
F1
sVepiscopacy:
p8761
F1
sVcombat
p8762
F1
sVcentre
p8763
F1
sVwho
p8764
F108
sVmemory,
p8765
F2
sVribbons,
p8766
F2
sVviolet.
p8767
F1
sVwhy
p8768
F13
sVstatute
p8769
F1
sVdeny
p8770
F3
sVrefreshing
p8771
F1
sVseconded
p8772
F1
sVeurope;
p8773
F1
sVpipe
p8774
F1
sV_in
p8775
F3
sVeurope,
p8776
F2
sVpupil,
p8777
F1
sVmistook
p8778
F2
sVword,
p8779
F4
sVagreed
p8780
F2
sVone,
p8781
F1
sVartfully
p8782
F2
sVpurely
p8783
F1
sVmonument,
p8784
F1
sVutter
p8785
F1
sVfear
p8786
F12
sVone;
p8787
F1
sVpleased
p8788
F6
sVword;
p8789
F2
sVtrue,
p8790
F6
sVunanimously
p8791
F3
sVrottenness
p8792
F1
sV1727.
p8793
F3
sVchristenings
p8794
F1
sVmany,
p8795
F1
sVtread;
p8796
F1
sVtrue;
p8797
F2
sVthousands
p8798
F3
sV_london_,
p8799
F1
sVpoets,
p8800
F2
sVagree.
p8801
F1
sVplease;
p8802
F1
sVmonuments
p8803
F1
sVplaintiff
p8804
F1
sVbays,
p8805
F1
sVcomrades.
p8806
F1
sVones
p8807
F3
sVcircumstances,
p8808
F2
sVweather:
p8809
F1
sVwords
p8810
F9
sVchance,
p8811
F2
sVdaggle-tailed
p8812
F1
sVcommerce,
p8813
F1
sVthousand,
p8814
F1
sVended
p8815
F2
sVdeceiver
p8816
F1
sVmarried
p8817
F2
sVthrive
p8818
F1
sVnightingale
p8819
F1
sVsediment
p8820
F1
sVview
p8821
F2
sVknowing
p8822
F3
sVshedding
p8823
F1
sVmotions
p8824
F1
sVacquired
p8825
F2
sVadmonition
p8826
F1
sVms._
p8827
F2
sVeyes:
p8828
F2
sVmerits
p8829
F9
sVbarrels
p8830
F1
sVground,
p8831
F6
sVground.
p8832
F5
sVendeavours,
p8833
F1
sVprominent,
p8834
F1
sVinvulnerable
p8835
F1
sVmonstrous
p8836
F1
sVhence,
p8837
F1
sVgenius
p8838
F11
sVground;
p8839
F1
sVlimit
p8840
F1
sVcommand,
p8841
F2
sVbought
p8842
F1
sVdaughters.
p8843
F1
sVflitch
p8844
F1
sVglory,
p8845
F1
sVability
p8846
F1
sVopening
p8847
F2
sVjoy
p8848
F6
sVmerit,
p8849
F1
sVideas.
p8850
F1
sVideas,
p8851
F2
sVspoil
p8852
F1
sVbus'ness,
p8853
F1
sVarts,
p8854
F2
sVswift
p8855
F19
sVmerit:
p8856
F1
sVdeclining
p8857
F3
sVpiece
p8858
F4
sVhe's
p8859
F3
sVvaliantly
p8860
F1
sVgrain
p8861
F1
sVcanopy
p8862
F1
sVsafely
p8863
F1
sVclose,
p8864
F1
sVgrounds
p8865
F2
sVtorments
p8866
F1
sVwall
p8867
F1
sVsubscribe
p8868
F1
sVworldly
p8869
F1
sVrespect
p8870
F2
sVwithdrawn
p8871
F1
sVhe'd
p8872
F1
sVcyprian
p8873
F1
sVchoice;
p8874
F1
sVdecent
p8875
F1
sVimmortality
p8876
F1
sVchoice,
p8877
F1
sVtutor
p8878
F3
sVliteral
p8879
F1
sVoffers
p8880
F1
sVenlarging
p8881
F1
sVuniversal
p8882
F5
sVrich,
p8883
F1
sVbutchers
p8884
F1
sVlegislature
p8885
F1
sVmorals
p8886
F2
sVsufficient
p8887
F2
sVcommiseration,
p8888
F1
sVimproved
p8889
F2
sVlegions,
p8890
F1
sVjades
p8891
F1
sVpresent
p8892
F26
sVparnassus.
p8893
F1
sVwilt
p8894
F2
sVchoices
p8895
F1
sVwill
p8896
F173
sVhovering
p8897
F1
sVwild
p8898
F3
sVheels.
p8899
F1
sVruins,
p8900
F1
sVconceive,
p8901
F2
sVconceive)
p8902
F1
sVapprehend
p8903
F5
sVthus
p8904
F29
sVpruned
p8905
F1
sVinvention,
p8906
F3
sVfebruary,
p8907
F2
sVwhore
p8908
F1
sVelbow.
p8909
F1
sVeducation
p8910
F1
sVapart,
p8911
F1
sVperhaps
p8912
F20
sVtemptation
p8913
F1
sVthese,
p8914
F3
sVunite
p8915
F1
sVadverse
p8916
F2
sVproclaimed,
p8917
F1
sVworst,--
p8918
F1
sVlargest
p8919
F3
sVinch
p8920
F1
sVgets
p8921
F4
sVdifficult
p8922
F4
sVit--which
p8923
F1
sVpretenders
p8924
F1
sVconceived
p8925
F2
sVphilosophy,
p8926
F1
sVelocution,
p8927
F1
sVaudience;
p8928
F1
sVmomus;
p8929
F1
sVblackmore,
p8930
F1
sVgeniuses
p8931
F1
sVget,
p8932
F1
sVtithes
p8933
F1
sVrivers,
p8934
F1
sVget;
p8935
F1
sVscruples
p8936
F1
sVenglish
p8937
F6
sVveniti,
p8938
F1
sVcried
p8939
F1
sVboot
p8940
F1
sVaffright
p8941
F1
sVcrier
p8942
F1
sVcondescended
p8943
F1
sVhappiness
p8944
F2
sVwonder,
p8945
F1
sVtoilets
p8946
F1
sVneighbourhood,
p8947
F2
sVguts
p8948
F1
sVcounsellor;
p8949
F1
sVother
p8950
F69
sVlineage
p8951
F1
sVsurprised,
p8952
F1
sVindecencies,
p8953
F1
sVcame,
p8954
F4
sVwho's
p8955
F2
sVrepublics
p8956
F1
sVcame;
p8957
F1
sVreasonable.
p8958
F1
sVknow
p8959
F35
sVsilence,
p8960
F3
sVlight:"
p8961
F1
sVbarrenness
p8962
F1
sVimparlance,
p8963
F1
sVjar,
p8964
F1
sVperpetual
p8965
F4
sVslaves,
p8966
F1
sVvortex
p8967
F1
sVwonders
p8968
F1
sVpast;
p8969
F1
sVbecause
p8970
F24
sVford,
p8971
F1
sVpoet:
p8972
F1
sVsearching
p8973
F1
sVgrowth
p8974
F2
sVpast,
p8975
F8
sVworthy
p8976
F1
sVpast.
p8977
F2
sVstoical
p8978
F1
sVempire
p8979
F2
sVemployment
p8980
F1
sVearwig
p8981
F1
sVpoet.
p8982
F1
sVleaden
p8983
F1
sVtalents,
p8984
F1
sVdeans;
p8985
F1
sVlean
p8986
F1
sVsake,
p8987
F3
sVphilosopher
p8988
F1
sV14th
p8989
F2
sV7th,
p8990
F1
sVsake;
p8991
F2
sVtroup
p8992
F1
sVleader
p8993
F1
sVpoets
p8994
F6
sVwesley
p8995
F1
sVconveyed
p8996
F1
sVconfined.
p8997
F1
sVherself;
p8998
F1
sVmine:
p8999
F1
sVcarried
p9000
F2
sVgetting
p9001
F1
sVhimself,
p9002
F10
sVhimself.
p9003
F2
sVdependence
p9004
F1
sVspecious,
p9005
F1
sV23rd,
p9006
F1
sVcarries
p9007
F1
sVswear
p9008
F4
sVherself,
p9009
F1
sVcens'ring
p9010
F1
sVdrone-pipe.
p9011
F1
sVhimself:
p9012
F1
sVdesires
p9013
F4
sVfund;
p9014
F1
sVown
p9015
F59
sVpolished
p9016
F1
sVowe
p9017
F2
sVredeem,
p9018
F1
sVranks,
p9019
F2
sVvenus.
p9020
F1
sVcalling,
p9021
F1
sVprompted
p9022
F1
sVvan
p9023
F2
sVnoxious
p9024
F2
sVpreferment
p9025
F1
sVintention
p9026
F1
sVthirty-six,
p9027
F1
sVunsought,
p9028
F1
sVmouth.
p9029
F1
sVadvantage,
p9030
F1
sVwand'ring
p9031
F1
sVvolume
p9032
F2
sVmade
p9033
F40
sVwhether
p9034
F25
sV_con_.
p9035
F1
sVthis,
p9036
F6
sVweeks'
p9037
F1
sVrecord
p9038
F1
sVbelow
p9039
F3
sVruling
p9040
F2
sVinfants
p9041
F1
sVthis;
p9042
F2
sVthis:
p9043
F2
sVstirring
p9044
F1
sVparnassus;
p9045
F1
sVkind?
p9046
F1
sVkind;
p9047
F3
sVsquadrons;
p9048
F1
sV---
p9049
F2
sVparnassus,
p9050
F1
sVtoast?
p9051
F1
sVkind.
p9052
F2
sVreflecting
p9053
F2
sVkind,
p9054
F3
sVcompacted,
p9055
F1
sVpark-parades,
p9056
F1
sVmutual
p9057
F6
sVincredible
p9058
F1
sVmyself."
p9059
F1
sVabigail
p9060
F1
sVrogue,"
p9061
F1
sVbook
p9062
F8
sVrank.
p9063
F1
sVsick
p9064
F1
sVswains
p9065
F2
sVobstinacy,
p9066
F1
sVconclusion
p9067
F1
sVlance
p9068
F4
sVdance,
p9069
F1
sVwax;
p9070
F1
sVrhaetia.
p9071
F1
sVearthly
p9072
F1
sVinstant.
p9073
F1
sVopened
p9074
F1
sVreadiest
p9075
F1
sVinsipid
p9076
F1
sVswain,
p9077
F1
sVconspire;
p9078
F1
sVimportune,
p9079
F1
sVvolumes
p9080
F2
sVphilemon.
p9081
F1
sVphilemon,
p9082
F1
s.