ccollections
defaultdict
p1
(c__builtin__
float
p2
tRp3
Vall
p4
F2
sVlads
p5
F1
sVprinted
p6
F2
sVcatalogue
p7
F1
sVwound
p8
F1
sVover
p9
F1
sVboth
p10
F2
sVsoon
p11
F1
sVfour
p12
F2
sVpique
p13
F1
sVlondon
p14
F1
sVelegy
p15
F1
sVgo
p16
F1
sV15
p17
F1
sVstill
p18
F1
sVsung
p19
F1
sVunto
p20
F1
sVbinding.
p21
F1
sVdeath
p22
F1
sVdied.
p23
F1
sVshow'd
p24
F1
sVcaldecott
p25
F1
sVhad
p26
F1
sV3
F2
sVto
p27
F7
sVneighbours
p28
F1
sVwood
p29
F1
sV4
F2
sV14
p30
F1
sV8
F3
sVmrs.
p31
F1
sVmight
p32
F1
sVdog.
p33
F1
sVthem
p34
F1
sVhis
p35
F2
sVbe--
p36
F1
sVsong
p37
F1
sVfound:
p38
F1
sVlisted
p39
F2
sVswore
p40
F3
sVdog,
p41
F1
sVcoloured
p42
F2
sVcannot
p43
F1
sVevery
p44
F3
sVjack
p45
F1
sVthey
p46
F3
sVirresistible,
p47
F1
sVworld
p48
F1
sVbit
p49
F1
sVbut,
p50
F1
sVdr
p51
F1
sVday
p52
F1
sVis
p53
F1
sVlook
p54
F1
sVbunting
p55
F1
sVfriends;
p56
F1
sVhad,
p57
F1
sVlost
p58
F1
sVdegree.
p59
F1
sVall,
p60
F1
sV1.
p61
F1
sVselections
p62
F1
sVnaked
p63
F1
sVbooks,
p64
F1
sVrace
p65
F1
sVman.
p66
F2
sVdie
p67
F1
sVwoman,
p68
F1
sVhey-diddle-diddle
p69
F1
sVwent
p70
F2
sVengraved
p71
F1
sVbooksellers
p72
F1
sVclothes
p73
F1
sVwhelp,
p74
F1
sVsquare
p75
F2
sVabove
p76
F4
sVpeople
p77
F1
sVhouse
p78
F1
sVe.c.
p79
F1
sVstreets
p80
F1
sVsome
p81
F1
sVaround
p82
F1
sVpuppy,
p83
F1
sVsecond
p84
F1
sVbooks
p85
F5
sVare
p86
F1
sVsad
p87
F1
sVyork.
p88
F1
sVhey-diddle-diddle-picture
p89
F1
sVwarne
p90
F2
sVlondon,
p91
F1
sVno.
p92
F4
sVwonder
p93
F1
sVwits,
p94
F1
sVhound,
p95
F1
sVislington
p96
F1
sVpublishers._
p97
F1
sVfor
p98
F1
sVpictures
p99
F5
sVboy
p100
F1
sVfox
p101
F1
sVfind
p102
F1
sVblaize
p103
F1
sVwritten
p104
F1
sVcovers,
p105
F1
sVwondrous
p106
F1
sV7
F1
sVnew
p107
F1
sVhold
p108
F1
sVman,
p109
F2
sVjumps
p110
F1
sVpictured
p111
F1
sVco.
p112
F2
sVparson's
p113
F1
sVchristian
p114
F1
sVhuntsmen
p115
F1
sVgodly
p116
F1
sVwere
p117
F1
sVedmund
p118
F1
sVcaldecott's
p119
F7
sVlaughing."
p120
F1
sVissued
p121
F1
sVseem'd
p122
F1
sVput
p123
F1
sVsing
p124
F1
sVsay,
p125
F1
sVdrawings
p126
F1
sVby
p127
F4
sVobtained
p128
F1
sVon
p129
F2
sVgreat
p130
F2
sVclad,
p131
F1
sVsort,
p132
F1
sVbegan,
p133
F1
sVof
p134
F13
sVcould
p135
F1
sV&
F2
sVcross,
p136
F1
sVlight,
p137
F1
sV_the
p138
F2
sVjovial
p139
F1
sVrecover'd
p140
F1
sVrogues
p141
F1
sVcollection
p142
F2
sVcock
p143
F1
sVr.
p144
F4
sVltd.,
p145
F1
sVbite
p146
F1
sVlong.
p147
F1
sVprices
p148
F1
sVsketches
p149
F2
sVhumour
p150
F1
sVcan
p151
F1
sVeye;
p152
F1
sVeach
p153
F1
sVcolour
p154
F2
sVprivate
p155
F1
sVone
p156
F1
sVsimply
p157
F1
sVbritain.
p158
F1
sVshort,
p159
F1
sVqueen
p160
F1
sVmilkmaid
p161
F1
sV154
p162
F1
sVhorse
p163
F1
sVfrom
p164
F2
sVprimrose
p165
F1
sVwould
p166
F2
sVtheir
p167
F3
sVcome
p168
F1
sVmad,
p169
F2
sVthere
p170
F2
sVcrown
p171
F2
sVthree
p172
F1
sVfrog
p173
F1
sVwhom
p174
F1
sV2
F4
sVmaster
p175
F1
sVlow
p176
F1
sVwondering
p177
F1
sV6
F1
sVbite;
p178
F1
sVjohn
p179
F1
sVwas
p180
F3
sVdogs
p181
F1
sVattractive
p182
F1
sVlived
p183
F1
sVthat
p184
F5
sVran,
p185
F1
sVvolumes,
p186
F1
sVbut
p187
F1
sVyou
p188
F2
sVsore
p189
F1
sVroad,
p190
F1
sVevans,
p191
F1
sVgain
p192
F1
sVchild
p193
F1
sVbaby
p194
F1
sVbe
p195
F1
sVear
p196
F1
sVwith
p197
F4
sVran;
p198
F1
sVhe
p199
F6
sVtown
p200
F1
sV10
p201
F1
sVkind
p202
F1
sV12
p203
F1
sV13
p204
F1
sVwhene'er
p205
F1
sV16
p206
F1
sVthis
p207
F1
sVride
p208
F1
sVbill
p209
F1
sV4to,
p210
F2
sVplates._
p211
F1
sV"the
p212
F1
sVwhile
p213
F1
sVmary
p214
F1
sVmany
p215
F1
sVmy
p216
F1
sVhealthy-minded
p217
F1
sVpublished
p218
F1
sVand
p219
F20
sVheart
p220
F1
sVcurs
p221
F1
sVgive
p222
F1
sVmongrel,
p223
F1
sVgilpin
p224
F1
sVit
p225
F4
sVan
p226
F1
sVgentle
p227
F1
sVas
p228
F1
sVgood
p229
F2
sVat
p230
F2
sVin
p231
F5
sVhimself
p232
F1
sVsixpence
p233
F1
sVif
p234
F1
sV11
p235
F1
sVcontaining
p236
F3
sVbuilt
p237
F1
sVno
p238
F1
sVrandolph
p239
F4
sVcomfort
p240
F1
sVwhen
p241
F2
sVinnumerable
p242
F1
sVclerkenwell
p243
F1
sVpray.
p244
F1
sV1
F4
sValso
p245
F1
sVpanjandrum
p246
F2
sVwithout
p247
F1
sV5
F1
sVbabes
p248
F1
sVsong;
p249
F1
sV9
F1
sVgate
p250
F1
sVgoldsmith
p251
F1
sVbanbury
p252
F1
sVpicture
p253
F7
sVbook
p254
F4
sVsketches._
p255
F1
sVdifferent
p256
F1
sVlasses
p257
F1
sVfoes;
p258
F1
sVmad
p259
F3
sVillustrated
p260
F1
sVfriends
p261
F1
sVnumerous
p262
F3
sV&c.
p263
F1
sVman
p264
F3
sVa
F11
sVa-wooing
p265
F1
sVends,
p266
F1
sVoutline
p267
F3
sVlied--
p268
F1
sVfarmer's
p269
F1
sVfrederick
p270
F2
sVdog
p271
F7
sVor
p272
F2
sV_in
p273
F1
sVneighbouring
p274
F1
sVso
p275
F1
sVltd.
p276
F2
sVhearts
p277
F1
sVthe
p278
F32
sVfirst
p279
F2
sVcame
p280
F1
sVsongs
p281
F2
s.