ccollections
defaultdict
p1
(c__builtin__
float
p2
tRp3
Vall
p4
F7
sVeldest
p5
F1
sVeschewed
p6
F1
sVfour
p7
F2
sVhath
p8
F11
sVskin
p9
F2
sVgo
p10
F1
sVhate
p11
F1
sVchildren
p12
F3
sVwhose
p13
F1
sVnote:
p14
F1
sVfather
p15
F16
sVyoung
p16
F5
sVto
p17
F17
sVcaptivity
p18
F1
sVlord
p19
F12
sVpride
p20
F2
sVappleton
p21
F1
sVabode
p22
F1
sVwoman
p23
F1
sVvery
p24
F2
sVsons
p25
F7
sVevery
p26
F2
sVfall
p27
F1
sVdrinking
p28
F1
sVoftentimes
p29
F1
sVheaven
p30
F8
sVclouds
p31
F3
sVmothers
p32
F1
sVdid
p33
F2
sVfire]
p34
F1
sVsang
p35
F1
sVfacsimile
p36
F1
sVwhirlwind
p37
F1
sVme!
p38
F1
sVme.
p39
F2
sVwherefore
p40
F1
sVnoise
p41
F1
sVeven
p42
F3
sVhim?
p43
F1
sVwhat
p44
F5
sVcurse
p45
F1
sVstood
p46
F1
sVappear
p47
F2
sVsun
p48
F2
sVsum
p49
F1
sVhenceforth
p50
F1
sVlights
p51
F1
sVabove
p52
F1
sVillustrations
p53
F3
sVnew
p54
F2
sVever
p55
F2
sVwomb
p56
F1
sVbody
p57
F1
sVfull
p58
F2
sVgathered
p59
F1
sVmen
p60
F4
sVspake
p61
F1
sVmaker?
p62
F1
sVlet
p63
F9
sVhast
p64
F4
sVinvented
p65
F2
sVdry
p66
F1
sVhell
p67
F3
sVgreat
p68
F4
sVdrops
p69
F1
sVreceive
p70
F3
sVpublished
p71
F2
sVlove
p72
F3
sVpatience
p73
F1
sVcounsels
p74
F1
sVbeheld
p75
F1
sVbringeth
p76
F3
sV1903
p77
F1
sVcloud
p78
F2
sVthro
p79
F1
sVuse
p80
F1
sVfrom
p81
F13
sVwould
p82
F2
sV&
F91
sVwalketh
p83
F1
sVministers
p84
F3
sVfew
p85
F1
sVtaken
p86
F1
sVblack
p87
F1
sVthemselves
p88
F1
sVangels
p89
F2
sVtell
p90
F2
sVmore
p91
F3
sVshine
p92
F1
sVson
p93
F1
sVname.
p94
F1
sVcompany
p95
F1
sVpierced
p96
F1
sVgrief
p97
F1
sVsore
p98
F1
sVgraven
p99
F1
sVknown
p100
F2
sVwomen
p101
F1
sVme
p102
F19
sVnone
p103
F1
sVword
p104
F1
sVthis
p105
F5
sVwork
p106
F1
sVsoul
p107
F2
sVarchive)
p108
F1
sVcan
p109
F1
sVfollowing
p110
F1
sVspeaketh
p111
F1
sVmy
p112
F28
sVheart
p113
F1
sVestate
p114
F1
sVgive
p115
F1
sVsaith
p116
F1
sVunjust
p117
F1
sVescaped
p118
F2
sVheard
p119
F2
sVorion
p120
F1
sVbones
p121
F2
sVones
p122
F1
sVend
p123
F3
sVsword
p124
F1
sVpleasure]
p125
F1
sVlord]
p126
F2
sVhow
p127
F2
sVpure
p128
F1
sVsin
p129
F1
sVtried
p130
F1
sVmay
p131
F3
sVwaters
p132
F2
sVafter
p133
F2
sVsuperscripted.
p134
F1
sVsuch
p135
F1
sVman
p136
F14
sVa
F22
sVlight
p137
F3
sVinheritance
p138
F1
sVliveth
p139
F1
sVordained,
p140
F1
sVchief
p141
F1
sVup]
p142
F1
sVso
p143
F2
sVdream
p144
F1
sVwind
p145
F2
sVwine
p146
F1
sVover
p147
F1
sVsatisfied
p148
F1
sVyears
p149
F1
sVproduced
p150
F1
sVputteth
p151
F1
sVlondon
p152
F1
sVdirects
p153
F1
sVinterpreter
p154
F1
sVtrouble
p155
F1
sVhand:
p156
F1
sVbefore
p157
F5
sVperfect
p158
F2
sVsolitary
p159
F1
sVblake
p160
F5
sVchosen
p161
F2
sVlo
p162
F2
sVpresence
p163
F2
sVsabeans
p164
F1
sVseeth
p165
F1
sVtherefor
p166
F1
sVimage
p167
F1
sVthen
p168
F6
sVthem
p169
F6
sVgood
p170
F3
sVreturn
p171
F1
sVgenerously
p172
F1
sVdead]
p173
F1
sVfood
p174
F1
sVthee
p175
F2
sVye
p176
F9
sVgracious
p177
F1
sVthey
p178
F8
sVhands
p179
F1
sVnot
p180
F8
sVraven
p181
F1
sVnow
p182
F2
sVday
p183
F4
sVtrouble?
p184
F1
sVshouted
p185
F1
sVlikeness
p186
F1
sVname
p187
F3
sVservant
p188
F2
sVbless
p189
F1
sVmarvellous
p190
F1
sVdwelleth
p191
F1
sVtruth
p192
F1
sVrock
p193
F1
sVfound
p194
F2
sVwent
p195
F1
sVmercy
p196
F1
sVlifted
p197
F2
sVhouse
p198
F2
sVworketh
p199
F1
sVcomforter
p200
F1
sVyear
p201
F1
sVgiveth
p202
F1
sVout
p203
F5
sVliving
p204
F1
sVflower
p205
F1
sVgod
p206
F21
sVforty
p207
F1
sVabide
p208
F1
sVtabernacle
p209
F1
sVfountain
p210
F1
sVopeneth
p211
F1
sVinternet
p212
F1
sVforth
p213
F4
sVperish
p214
F1
sVsaith,
p215
F2
sVbringest
p216
F1
sVyork
p217
F1
sVenlightened
p218
F1
sVbeginning
p219
F1
sVplowing
p220
F1
sVinfluences
p221
F1
sVyour
p222
F3
sVdays
p223
F5
sVthing
p224
F1
sVthine
p225
F1
sVplace
p226
F1
sVgenerations
p227
F1
sVmortal
p228
F1
sVsatan.
p229
F1
sVfallen
p230
F2
sVthere
p231
F11
sVhead]
p232
F1
sVknoweth
p233
F1
sVone
p234
F6
sVweak
p235
F1
sVspiritually
p236
F1
sVanother
p237
F3
sVshort,
p238
F1
sVthick
p239
F1
sVopen
p240
F1
sVscattereth
p241
F1
sVhas
p242
F1
sVancient
p243
F1
sVheads
p244
F1
sVdevils
p245
F1
sVhallowed
p246
F1
sVtheir
p247
F7
sVpersecute
p248
F2
sVpassed
p249
F1
sVbegotten
p250
F1
sVhundred
p251
F1
sVspeaking
p252
F1
sVeyes
p253
F4
sVstars
p254
F2
sVthat
p255
F29
sVseason
p256
F1
sVrain
p257
F2
sVbelieve
p258
F1
sVthan
p259
F6
sVking
p260
F2
sVfolly
p261
F1
sVbed
p262
F3
sVproject
p263
F1
sVi
F32
sVaccused
p264
F1
sViron
p265
F1
sVwere
p266
F6
sVand
p267
F21
sVangel
p268
F2
sVslay
p269
F1
sVturned
p270
F2
sVmine
p271
F1
sVvoices
p272
F1
sVsay
p273
F1
sVrent
p274
F1
sVhave
p275
F9
sVseen
p276
F4
sVsaw
p277
F3
sVany
p278
F1
sVsat
p279
F1
sVissue
p280
F1
sVlatter
p281
F2
sVflaming
p282
F1
sVnote
p283
F1
sValso
p284
F10
sVsprinkled
p285
F1
sVtake
p286
F2
sVwhich
p287
F8
sVlaughed
p288
F1
sVdestroy
p289
F1
sVsubject
p290
F1
sVtowards
p291
F1
sVthough
p292
F1
sVwho
p293
F8
sVn^o
p294
F1
sVprinted
p295
F1
sVletter
p296
F1
sVchargeth
p297
F1
sVhide
p298
F1
sVwhy
p299
F1
sVgrave
p300
F1
sVhypocrite
p301
F1
sVconsidered
p302
F1
sVconsumed
p303
F2
sVheat
p304
F1
sVface
p305
F1
sVmessenger
p306
F1
sVnot.
p307
F1
sVcame
p308
F7
sVd.
p309
F1
sVwalking
p310
F1
sVchariot
p311
F1
sVanswered
p312
F1
sVgold
p313
F1
sVprovideth
p314
F1
sVbring
p315
F3
sVbright
p316
F1
sVearth
p317
F3
sVheavens
p318
F2
sVfind
p319
F2
sVground
p320
F1
sVbind
p321
F1
sVknowledge
p322
F1
sVtrue
p323
F1
sVtranscriber's
p324
F1
sVvisitest
p325
F1
sVsaints
p326
F2
sVbeing
p327
F1
sVonly
p328
F2
sVgoing
p329
F2
sVsatan
p330
F4
sVtouched
p331
F1
sVrich
p332
F1
sVdo
p333
F3
sVrighteousness
p334
F1
sVhis
p335
F26
sVheaven,
p336
F1
sVloved
p337
F3
sVcannot
p338
F1
sVperfection
p339
F1
sVwords
p340
F2
sVboils
p341
F1
sVgivest
p342
F1
sVhim
p343
F23
sVdarkeneth
p344
F1
sVcovering
p345
F1
sV1825
p346
F1
sVcry
p347
F1
sVmighty]
p348
F1
sVcontinueth
p349
F1
sVmorning
p350
F1
sVnaked
p351
F3
sVtwice
p352
F1
sVleviathan
p353
F1
sVengraved
p354
F2
sVvision
p355
F1
sVears
p356
F1
sVinstruction
p357
F1
sVart
p358
F5
sVaccuser
p359
F1
sVfair
p360
F1
sVjoy]
p361
F1
sVedition
p362
F2
sVsee
p363
F4
sVhim]
p364
F1
sVare
p365
F14
sVcattle
p366
F1
sVjob.
p367
F1
sVjob,
p368
F1
sVfeared
p369
F1
sVsaid
p370
F5
sVspirits
p371
F1
sVways
p372
F3
sVslumberings
p373
F1
sVcontinually
p374
F1
sV3
F1
sVdost
p375
F1
sVscorn
p376
F1
sVburned
p377
F2
sVavailable
p378
F1
sVwe
p379
F7
sVloose
p380
F1
sVreproduced
p381
F1
sVjoy
p382
F1
sVsole
p383
F1
sVdeliver
p384
F1
sVjob
p385
F15
sVlifteth
p386
F1
sVprecious
p387
F1
sVcome
p388
F3
sVgrieved
p389
F1
sVpity
p390
F2
sVpiece
p391
F1
sVthou
p392
F23
sVagainst
p393
F1
sVcreeping
p394
F1
sVfulfilled
p395
F1
sVpray
p396
F2
sVfaces
p397
F1
sVafar
p398
F1
sVafraid
p399
F1
sVamong
p400
F3
sVsweet
p401
F1
sVsealeth
p402
F1
sVdespitefully
p403
F1
sValone
p404
F2
sVslain
p405
F1
sVgreat]
p406
F1
sVtrust
p407
F2
sVsay,
p408
F1
sVmindful
p409
F1
sVsmote
p410
F2
sVprince
p411
F1
sVfro
p412
F1
sVthree
p413
F1
sValmighty
p414
F3
sVlife
p415
F2
sVlived
p416
F1
sVdeeper
p417
F1
sVfire
p418
F2
sVthousand
p419
F1
sVscarest
p420
F1
sVthere]
p421
F1
sVawake
p422
F1
sVspirit
p423
F3
sVpresent
p424
F2
sV^
F1
sVmyself
p425
F2
sVrighteous
p426
F1
sVlook
p427
F1
sVthese
p428
F1
sVwill
p429
F4
sVcast
p430
F2
sVwhile
p431
F1
sVascend
p432
F1
sVvoice
p433
F1
sVsendeth
p434
F1
sVseven
p435
F3
sVwept.
p436
F1
sVis
p437
F31
sVthus
p438
F1
sVit
p439
F8
sVconfound
p440
F2
sVin
p441
F34
sVaffrightest
p442
F1
sVcometh
p443
F1
sVif
p444
F7
sVransom
p445
F1
sVaway.
p446
F1
sVthings
p447
F4
sVmake
p448
F2
sVwherein
p449
F1
sVworshipped]
p450
F1
sVdaughters
p451
F3
sVhigher
p452
F2
sVfirmament
p453
F1
sVupon
p454
F13
sVevil
p455
F3
sVhand
p456
F2
sVbeast
p457
F1
sVmoment
p458
F1
sVnights
p459
F1
sVpurpose
p460
F1
sVcharacters
p461
F1
sVdust
p462
F1
sVweep
p463
F1
sVjudgment
p464
F2
sVthoughts
p465
F1
sVdestruction
p466
F1
sVoff
p467
F1
sVthy
p468
F11
sVendureth
p469
F1
sVflocks
p470
F1
sVtho
p471
F1
sVwithout
p472
F1
sVwithdraw
p473
F1
sVthe
p474
F133
sVdiscerned]
p475
F1
sVjust
p476
F4
sVflesh
p477
F2
sVyea
p478
F1
sVmoney
p479
F1
sVrest
p480
F1
sVfoot
p481
F1
sVmaketh
p482
F5
sVyet
p483
F4
sVunto
p484
F13
sVafflicted
p485
F1
sVspreadings
p486
F1
sVcut
p487
F1
sVhad
p488
F2
sVwings
p489
F1
sVthee]
p490
F3
sVtransformed
p491
F1
sVsave
p492
F1
sVjoyful
p493
F1
sVgave
p494
F3
sVthee.
p495
F1
sVmarch
p496
F1
sVgod?
p497
F1
sVbands
p498
F1
sVgod.
p499
F1
sVknow
p500
F5
sVgoings
p501
F1
sVworld
p502
F4
sVshadow
p503
F1
sVaccepted
p504
F1
sVburnt
p505
F1
sVyou
p506
F14
sVdreams
p507
F1
sVperfect]
p508
F1
sVofferings
p509
F1
sVlike
p510
F3
sVlightning
p511
F1
sVnight
p512
F4
sVfoolish
p513
F1
sVreduced
p514
F1
sVtherein
p515
F1
sVcanst
p516
F5
sVbecause
p517
F1
sVold
p518
F2
sVunderstand
p519
F1
sVsinews
p520
F1
sVcrown
p521
F1
sVback
p522
F1
sVhair
p523
F1
sVborn
p524
F3
sVtriumphing
p525
F1
sVimages
p526
F1
sVgutenberg's
p527
F1
sVdivine
p528
F1
sVenemies
p529
F1
sVpleiades
p530
F1
sV[illustration:
p531
F22
sVfather]
p532
F1
sVfor
p533
F21
sVshall
p534
F22
sVflesh.
p535
F1
sVmoon
p536
F2
sVpen
p537
F1
sVforever]
p538
F1
sVmanifest
p539
F1
sVexalteth
p540
F1
sVbe
p541
F19
sVknew
p542
F1
sVeating
p543
F1
sVpower
p544
F1
sVremembered
p545
F1
sVeye
p546
F1
sVby
p547
F10
sVhearing
p548
F1
sVon
p549
F3
sVabout
p550
F2
sVworks
p551
F1
sVvisions
p552
F1
sVoh
p553
F1
sVof
p554
F69
sV8:1825
p555
F1
sVo
F3
sVstand
p556
F1
sVact
p557
F1
sVor
p558
F3
sVwatering
p559
F1
sVwilderness
p560
F1
sVmantle
p561
F1
sVcourt,
p562
F1
sVinto
p563
F5
sVblessed
p564
F2
sVtwo
p565
F1
sVdown
p566
F7
sVfleeth
p567
F1
sVdew]
p568
F1
sVrejoice
p569
F1
sV1826.
p570
F1
sVwhom
p571
F1
sV*
F10
sVloveth
p572
F2
sVlow
p573
F2
sVway
p574
F1
sVwas
p575
F13
sVhimself
p576
F3
sVabundantly
p577
F1
sVbut
p578
F4
sVsearching
p579
F1
sVstrand]
p580
F1
sVwhat!
p581
F1
sVupright
p582
F2
sVear
p583
F1
sVwith
p584
F19
sVhe
p585
F32
sVcounsel
p586
F1
sVmade
p587
F3
sVwise
p588
F1
sVbehemoth
p589
F2
sVuz
p590
F1
sVup
p591
F9
sVus
p592
F2
sVredeemer
p593
F1
sVthose
p594
F3
sVwicked
p595
F2
sVwrought
p596
F1
sVcalled
p597
F1
sVprayed
p598
F1
sVoxen
p599
F1
sVopposeth
p600
F1
sVam
p601
F5
sVdeep
p602
F1
sVan
p603
F4
sVas
p604
F7
sVdoest
p605
F1
sVat
p606
F3
sVfile
p607
F1
sVour
p608
F6
sVsinnest
p609
F1
sVpit
p610
F2
sVbrethren
p611
F2
sVjesus
p612
F1
sVno
p613
F5
sVwhen
p614
F10
sVthither
p615
F1
sVbook
p616
F4
sVbehold
p617
F9
sVpoor
p618
F2
sVbrothers
p619
F1
sVkilleth
p620
F1
sVwilliam
p621
F5
sVfell
p622
F1
sVfriends
p623
F2
sVdied
p624
F1
sVland
p625
F3
sVlead
p626
F1
sVpercieveth
p627
F1
sVtogether
p628
F2
sVobserveth
p629
F1
sVwearieth
p630
F1
sVoriginal
p631
F1
sVonce
p632
F1
s.