ccollections
defaultdict
p1
(c__builtin__
float
p2
tRp3
Vdelusions,
p4
F1
sVjealous--why
p5
F1
sVocean,
p6
F1
sVfriend's
p7
F4
sVdeath--no,
p8
F1
sVlooking
p9
F3
sVrecollection!
p10
F1
sVlord
p11
F2
sVrecollection,
p12
F1
sVsinking
p13
F1
sVleisurely
p14
F1
sVstabbed
p15
F1
sVwriting,
p16
F2
sVdisturb
p17
F2
sVrecollections
p18
F1
sVprize
p19
F1
sVstars,
p20
F1
sVcommented
p21
F1
sVher.
p22
F22
sVher,
p23
F49
sVher!
p24
F2
sVpulse
p25
F1
sVtimes.--any
p26
F1
sVher;
p27
F16
sVelegant
p28
F3
sVsecond
p29
F1
sVsooth
p30
F1
sVnature,
p31
F7
sVthunder
p32
F3
sVnature.
p33
F1
sVcontributed
p34
F1
sVmadman's
p35
F1
sVincreasing
p36
F1
sVnature;
p37
F2
sVup.
p38
F1
sVunfeeling
p39
F2
sVhere
p40
F5
sVresignation;
p41
F2
sVglass,
p42
F1
sVhers
p43
F1
sVplay-mates;
p44
F1
sVxiv.
p45
F1
sV"oh!
p46
F2
sVexplained
p47
F1
sVsummons
p48
F2
sVbrought
p49
F11
sVremnant
p50
F1
sVcircumstance;
p51
F1
sVspoke
p52
F2
sVglimmering
p53
F2
sVmusic
p54
F2
sVuntil
p55
F4
sVfemales
p56
F2
sVholy
p57
F1
sVhurt
p58
F4
sVglass
p59
F3
sVhole
p60
F1
sVencountered
p61
F2
sVirksome
p62
F1
sVleaped
p63
F1
sVexhale
p64
F1
sVmisfortunes
p65
F3
sVvanities
p66
F1
sVconstant.
p67
F1
sVshore,
p68
F4
sVwant
p69
F5
sVaround,
p70
F1
sVcopious
p71
F1
sVembellishments
p72
F1
sVhow
p73
F16
sVhot
p74
F1
sVaround;
p75
F1
sVchase
p76
F1
sVdignified
p77
F1
sVbeauty
p78
F1
sVmisfortune;
p79
F1
sVwrong
p80
F2
sVdestined
p81
F2
sVendeavoured
p82
F3
sVretired,
p83
F1
sVwind
p84
F10
sVbeings;
p85
F1
sVschool.
p86
F1
sVschool,
p87
F1
sVengrossed
p88
F7
sVenquiring
p89
F1
sVeffect;
p90
F2
sVdied.
p91
F1
sVfit
p92
F4
sVrepresent;
p93
F1
sVfix
p94
F5
sVoccupations
p95
F1
sVsurvivors
p96
F1
sVhidden
p97
F1
sVto--perhaps
p98
F1
sVcommemorate
p99
F1
sVcomfort,"
p100
F1
sVeffects
p101
F1
sVinterrupt
p102
F3
sVdissolution.
p103
F1
sVdisorders.
p104
F1
sVdissolution;
p105
F1
sVintended.
p106
F1
sVwoes
p107
F1
sVcontracting
p108
F1
sVintended;
p109
F1
sVat,
p110
F1
sVcustom-house.
p111
F1
sVdescanted
p112
F1
sVfoundation
p113
F2
sVthreatened
p114
F1
sVfaculties
p115
F4
sVpresent:
p116
F1
sVwoe,
p117
F2
sVwoe.
p118
F1
sVheavy,
p119
F1
sVperhaps,
p120
F5
sVdisturbed
p121
F4
sVserpent's
p122
F1
sVmaladies
p123
F1
sVme!
p124
F1
sVservice
p125
F2
sVtired
p126
F1
sVnation.
p127
F1
sVmaster
p128
F2
sVblossoms
p129
F1
sVbitter
p130
F2
sVlisten
p131
F4
sVcushions
p132
F1
sVwisdom
p133
F2
sVwas,
p134
F2
sV_the
p135
F1
sVher:
p136
F7
sVxi.
p137
F1
sVshower
p138
F2
sVexclaimed
p139
F2
sVendure
p140
F1
sVrousseau.]
p141
F1
sVjoy
p142
F3
sVfeeling
p143
F3
sVold,
p144
F1
sVwell;
p145
F2
sVheads.
p146
F1
sVwell,
p147
F4
sVshrubs
p148
F1
sVherself--a
p149
F1
sVwholesome
p150
F1
sVeagerly
p151
F4
sVabsorbed
p152
F1
sVamusing
p153
F2
sVwilling,
p154
F1
sVdrunk;
p155
F1
sVlong;
p156
F1
sVlong:
p157
F1
sVheart--and
p158
F1
sVfelt,
p159
F1
sVshall
p160
F16
sVobject
p161
F6
sVlisbon;
p162
F2
sVdisjointed
p163
F1
sVlong.
p164
F1
sVletter
p165
F5
sVlong,
p166
F1
sVlisbon,
p167
F2
sVdoor,
p168
F1
sVrelaxation,
p169
F1
sVcame
p170
F14
sVreclined
p171
F1
sVcannot,
p172
F1
sVfortitude;
p173
F1
sVtouches
p174
F1
sVrepose;
p175
F1
sVrepose:
p176
F1
sVhaste;
p177
F1
sVrepose,
p178
F2
sVfortitude.
p179
F1
sVtouched
p180
F1
sVfortitude,
p181
F2
sVupbraiding
p182
F1
sVgreen,
p183
F1
sVdr.
p184
F1
sVterrors
p185
F1
sVlistened,
p186
F1
sVtenaciously
p187
F1
sVapathy--i
p188
F1
sVrelish
p189
F2
sVmen:
p190
F1
sVthem;
p191
F8
sVthem:
p192
F1
sVproduced.
p193
F1
sVmen,
p194
F2
sVmen.
p195
F1
sVthem.
p196
F15
sVthem,
p197
F7
sVblew
p198
F1
sVfair
p199
F2
sVresult
p200
F1
sVfain
p201
F2
sVbest
p202
F2
sVestate.
p203
F1
sVsolicitude
p204
F1
sVmen
p205
F2
sVextend
p206
F1
sVnature
p207
F12
sVrolled
p208
F4
sVinvigorated
p209
F1
sVpity
p210
F3
sVaccident
p211
F2
sVown.--she
p212
F1
sVcountry
p213
F1
sVreaders
p214
F1
sVstamp.
p215
F1
sVxv.
p216
F1
sVargue
p217
F3
sVtinge
p218
F1
sVasked
p219
F3
sVdirectly,
p220
F1
sVnay,
p221
F4
sVspanish;
p222
F1
sVvain
p223
F6
sVharangue;
p224
F1
sVunion
p225
F1
sVcontemplate.
p226
F1
sVvii.
p227
F1
sVmuch
p228
F19
sVdry
p229
F1
sVlife
p230
F13
sVcried.
p231
F1
sVmdcclxxxviii
p232
F1
sVchild
p233
F5
sVworked
p234
F2
sVtried,
p235
F1
sVemploy
p236
F2
sVwonted
p237
F1
sVplayed
p238
F6
sVtrees,
p239
F2
sVactuated
p240
F1
sVexpostulated
p241
F1
sVto-morrow
p242
F3
sVanticipating
p243
F1
sVplants,
p244
F1
sVsaid,
p245
F3
sVvoyage,
p246
F1
sVmust--i
p247
F1
sVthings
p248
F5
sVharmony
p249
F1
sVpassed.
p250
F1
sVincreased.
p251
F1
sVaqueduct;
p252
F1
sVexpostulate.
p253
F1
sValas!
p254
F1
sV_ignis
p255
F1
sVfeeble;
p256
F1
sVstillness
p257
F1
sVwhich,
p258
F3
sVbenignity
p259
F1
sVopinions
p260
F2
sVthee--"
p261
F1
sVbush;
p262
F1
sVprevious
p263
F2
sVenters
p264
F1
sVstep.
p265
F1
sVstep,
p266
F1
sVhad
p267
F198
sVobedient
p268
F1
sVinnocent
p269
F1
sVhas
p270
F21
sVstep;
p271
F1
sVinclinations?
p272
F1
sVopinion;
p273
F1
sVshadow
p274
F1
sVopinion.
p275
F2
sVdesire
p276
F6
sVarticulated
p277
F1
sVsteps
p278
F2
sVgoverness
p279
F1
sVeffusion
p280
F1
sVright
p281
F2
sVold
p282
F8
sVcrowd
p283
F2
sVpeople
p284
F7
sVeasy
p285
F2
sVsubstitute;
p286
F1
sVleft;
p287
F1
sVcaptive
p288
F1
sVaccents,
p289
F1
sVrested,
p290
F2
sVanimate
p291
F1
sVfor
p292
F154
sVwitty
p293
F1
sVmind--always
p294
F1
sVpinched
p295
F1
sVsubstitutes
p296
F1
sV"father
p297
F1
sVlosing
p298
F1
sVcapacious
p299
F1
sVruminating,
p300
F1
sVrecollect
p301
F1
sVdespair
p302
F1
sVslightly
p303
F1
sVraised
p304
F2
sVfriend;--his
p305
F1
sVsom
p306
F1
sVson
p307
F3
sVadminister
p308
F1
sVbeings
p309
F4
sVraises
p310
F1
sVshoots
p311
F1
sVoften
p312
F18
sVdespised
p313
F1
sVfabric
p314
F1
sVsupport
p315
F10
sVconstantly
p316
F3
sVhappy
p317
F1
sVemotions;
p318
F1
sVoffer
p319
F3
sVdenoting
p320
F1
sVso,
p321
F5
sVso.
p322
F2
sVbrute,
p323
F1
sVemotions.
p324
F2
sVemotions,
p325
F1
sVso;
p326
F1
sVvirtue,
p327
F1
sVtell
p328
F15
sVwhimsical,
p329
F1
sVpassenger
p330
F1
sVproved
p331
F1
sVlikings;
p332
F1
sVlore;
p333
F1
sVexist
p334
F1
sVeffusions
p335
F1
sVpacket;
p336
F1
sV"expect
p337
F1
sVpale
p338
F4
sVminds,
p339
F1
sVgood-nature:
p340
F1
sVpacket,
p341
F1
sVpronounced
p342
F3
sVacquaintance
p343
F1
sV&c.
p344
F2
sVwarm.
p345
F1
sVtime
p346
F26
sVpush
p347
F1
sVgloom.
p348
F1
sVgloom,
p349
F1
sVreviewers
p350
F1
sVdancing-dress
p351
F1
sVjust,
p352
F1
sVmidst
p353
F1
sVtrod--gaze
p354
F1
sVvex
p355
F1
sVload;
p356
F1
sVprolonging
p357
F1
sVill--thy
p358
F1
sVrequesting,
p359
F1
sVchild!
p360
F1
sVgloomy
p361
F1
sVmourn
p362
F1
sVfatigued
p363
F2
sVchild,
p364
F3
sVtear
p365
F3
sVleave
p366
F5
sVpoor;
p367
F1
sVsettle
p368
F2
sVprevent
p369
F4
sVsigh
p370
F5
sV&c.]
p371
F1
sVlengthened
p372
F1
sVmetaphysicians
p373
F1
sVcleanliness
p374
F1
sVcurrent
p375
F1
sVpresence,
p376
F1
sVsaw,
p377
F1
sVcarpet;
p378
F1
sVfalling
p379
F1
sVpretty,
p380
F2
sVprovidence;
p381
F1
sVapartments.
p382
F1
sVtorpid
p383
F1
sVunderstanding
p384
F4
sVaddress
p385
F1
sValone
p386
F3
sVrent,
p387
F1
sVthinker,
p388
F2
sVpassengers
p389
F1
sVbrilliant
p390
F1
sVstudied
p391
F2
sVill-fated
p392
F1
sVstudies
p393
F1
sVbearable
p394
F1
sVlove
p395
F15
sVrelations.
p396
F1
sVdictated
p397
F1
sVangry
p398
F1
sVcherished
p399
F1
sVloving
p400
F1
sVafford
p401
F2
sVsubsistence
p402
F1
sVapparent
p403
F4
sVwonders,
p404
F1
sVignorant
p405
F1
sVvirtue
p406
F2
sVpretend
p407
F2
sVimagination,
p408
F5
sVheart--it
p409
F1
sVfollowing
p410
F4
sVimagination;
p411
F1
sVindolence
p412
F2
sVadmired
p413
F1
sV_hell_,
p414
F1
sVheard,
p415
F1
sVallowed
p416
F4
sVstole
p417
F2
sVfilth;
p418
F1
sVwinter
p419
F3
sVdivided
p420
F2
sVthanking
p421
F1
sV----shire,
p422
F1
sVspot
p423
F1
sVyouth;
p424
F1
sVexpectation
p425
F3
sVimproving
p426
F1
sVsuch
p427
F34
sVdisagreeable
p428
F2
sVnatural
p429
F2
sVconscious
p430
F4
sVrude,
p431
F1
sVso
p432
F49
sVyears
p433
F8
sVlodgers,
p434
F1
sVcourse
p435
F3
sVearly,
p436
F1
sVbelow;
p437
F2
sVtendency
p438
F1
sVtore
p439
F1
sVadmired;
p440
F1
sVyawning
p441
F1
sVfaults
p442
F1
sVinfirmities
p443
F2
sVdid,
p444
F1
sVharassed
p445
F4
sVattraction
p446
F1
sVadmired,
p447
F2
sVdead,
p448
F1
sVsuspension
p449
F1
sVtroubled
p450
F3
sVyouth,
p451
F1
sVthereby
p452
F1
sVthine,
p453
F1
sVnation
p454
F1
sVyear,
p455
F2
sVpassions.
p456
F3
sVpassions,
p457
F3
sVtwilight
p458
F1
sVthine:
p459
F1
sVreleased.
p460
F1
sVleather
p461
F1
sVfellow-creature.
p462
F1
sVwanderer.
p463
F1
sVboundless
p464
F1
sVsubtile
p465
F1
sVdisguise;
p466
F1
sVfellow-creatures
p467
F1
sVgoverning
p468
F3
sVquite
p469
F4
sVcomplicated
p470
F2
sVbesides
p471
F2
sVdelight--yet
p472
F1
sVstandard--nature,
p473
F1
sVlearning;
p474
F2
sV"how
p475
F1
sV_heart-rending_
p476
F1
sVneglect
p477
F2
sVemotion
p478
F1
sVparadise--we
p479
F1
sVmercy!
p480
F1
sVirresolute;
p481
F1
sVone
p482
F60
sVmercy;
p483
F1
sVchide
p484
F1
sVhabitation
p485
F1
sVirresolute,
p486
F1
sVopen
p487
F1
sVpartook
p488
F1
sVcity
p489
F1
sVname--it
p490
F1
sVdissipate
p491
F2
sVstuffed
p492
F1
sVclouds,
p493
F2
sVlingering
p494
F3
sVon.
p495
F2
sVprecipitate,
p496
F1
sVon,
p497
F5
sVspoke.
p498
F1
sVmuch,
p499
F2
sVsnatch
p500
F2
sVon;
p501
F1
sVridiculous
p502
F1
sVredoubled
p503
F2
sVcold;
p504
F1
sVauthority;
p505
F1
sVdepressed
p506
F1
sVfavors
p507
F1
sVfolly
p508
F2
sVfuture
p509
F3
sVwandering
p510
F2
sVfriend--when
p511
F1
sVprospect
p512
F3
sVillness
p513
F4
sVremark,
p514
F1
sVturned
p515
F5
sVsad
p516
F1
sVsay
p517
F9
sVwinter;
p518
F1
sVsaw
p519
F20
sVsat
p520
F11
sVfashionable
p521
F5
sVillness,
p522
F1
sVherself--she
p523
F1
sVnote
p524
F1
sVcold,
p525
F1
sVtake
p526
F12
sVconvulsive
p527
F1
sValtered
p528
F2
sVdiscerning
p529
F1
sVexclaimed--"yet;
p530
F1
sVtaste,
p531
F3
sVafternoon,
p532
F1
sVprinted
p533
F1
sVremarks
p534
F1
sVtaste:
p535
F1
sVpageantry
p536
F1
sVdrive
p537
F2
sVnot;
p538
F2
sVsomething.
p539
F1
sVnot,
p540
F3
sVnot.
p541
F2
sVtrembled
p542
F3
sVlaws
p543
F2
sVwalking
p544
F1
sVnew-born
p545
F1
sVbright
p546
F1
sVimagined
p547
F8
sVfibre
p548
F1
sVslow
p549
F1
sVtry,
p550
F1
sVtears
p551
F16
sVgoing
p552
F9
sVusual,
p553
F2
sVrejoiced
p554
F2
sVopen,
p555
F1
sVinfallibly
p556
F1
sV_gourmand_
p557
F1
sVlandlord
p558
F1
sVliable
p559
F2
sVtear;
p560
F1
sVwhere
p561
F18
sVdown,
p562
F1
sVhouse-keeper
p563
F2
sVreign,
p564
F1
sVarrears.
p565
F1
sVimpressions
p566
F1
sVhastened
p567
F2
sVpurest
p568
F1
sVmisery--yet
p569
F1
sValarming
p570
F3
sVman;
p571
F3
sVman!
p572
F1
sVrefreshed
p573
F1
sVsatiety
p574
F1
sVman,
p575
F4
sVforsake
p576
F1
sVuseful
p577
F2
sVspare
p578
F1
sVgraceful,
p579
F1
sVdeck,
p580
F3
sVpuerile
p581
F1
sVconversed
p582
F3
sVmoon,
p583
F2
sVmany
p584
F22
sVmoon.
p585
F1
sVrepresentative,
p586
F1
sVenjoy:
p587
F1
sVhornet
p588
F1
sVexpression
p589
F1
sVefforts--i
p590
F1
sVlane;
p591
F1
sVlost!
p592
F1
sVnursery;
p593
F1
sVreading,
p594
F1
sVnursery,
p595
F1
sVlane,
p596
F1
sVwant.
p597
F1
sVboat
p598
F2
sVdress,
p599
F1
sVpittance.
p600
F1
sVdeistical
p601
F2
sVmounting
p602
F2
sVbreath
p603
F1
sValmighty
p604
F1
sVmotives
p605
F2
sVvirtuous.
p606
F1
sVwants
p607
F1
sVenable
p608
F2
sVthousand
p609
F2
sVformed
p610
F4
sVhaunt
p611
F1
sVobserve
p612
F2
sVmeditating,
p613
F1
sVacquiring
p614
F1
sVformer
p615
F8
sVhenry's
p616
F10
sVsports.
p617
F1
sVxxv.
p618
F1
sVrolling,
p619
F1
sVlanguor.
p620
F1
sVbrow
p621
F1
sVengaged
p622
F2
sVscribbling;
p623
F1
sVingratitude:
p624
F1
sVingratitude;
p625
F1
sVhusband?"
p626
F1
sVivy
p627
F1
sVit."
p628
F1
sVmouldering
p629
F1
sVauthors:
p630
F1
sVsickness
p631
F1
sViv.
p632
F1
sVmotionless;
p633
F1
sVenquiries,
p634
F1
sVmadness!
p635
F1
sVvacant
p636
F1
sVmadness.
p637
F1
sVcollected,
p638
F2
sVfixing
p639
F1
sVsummer
p640
F1
sVbeing
p641
F24
sVrest
p642
F8
sV(1759-1797).
p643
F1
sV(a
p644
F1
sVhim--saw
p645
F1
sVhim.--she
p646
F1
sV"whose
p647
F1
sVagreeable.
p648
F1
sVoperation,
p649
F1
sVintreated.
p650
F1
sVaround
p651
F2
sVdart
p652
F3
sVgestures
p653
F2
sVpreference
p654
F1
sVworld
p655
F20
sVxix.
p656
F1
sVvague
p657
F1
sVstranger
p658
F1
sVhunger.
p659
F1
sVpaused.
p660
F1
sVtempestuous--what
p661
F1
sVyou--words--words.
p662
F1
sVmetropolis.
p663
F1
sVmetropolis,
p664
F1
sVpunishment;
p665
F1
sVdivine
p666
F1
sVcavity
p667
F1
sVre-established,
p668
F1
sVgenus;
p669
F1
sVre-established.
p670
F1
sVcountenances
p671
F1
sVviii.
p672
F1
sVthink.
p673
F1
sVthink,
p674
F1
sVpower
p675
F4
sVintimate
p676
F5
sVsprung
p677
F1
sVsubscribed
p678
F1
sVretraced
p679
F1
sVcountenance.
p680
F1
sVindustry
p681
F1
sVcountenance,
p682
F6
sVfavorite
p683
F1
sVpressure--he
p684
F1
sVrevenge,
p685
F1
sVmean
p686
F2
sVperturbed
p687
F1
sVinspired,
p688
F1
sVburning
p689
F1
sVimage
p690
F3
sVforehead,
p691
F1
sVwit!
p692
F1
sVaccumulated
p693
F1
sVcontinent,
p694
F2
sVdirt,
p695
F1
sVappeared,
p696
F1
sVher
p697
F725
sVendeavouring
p698
F1
sVgleam
p699
F1
sVabuse.
p700
F1
sVunassured
p701
F1
sVappeared;
p702
F1
sVsealed
p703
F1
sVdirt;
p704
F1
sVseasons,
p705
F1
sVyearned
p706
F1
sVcomplete
p707
F2
sVcloud-capt,
p708
F1
sVanother.
p709
F1
sVanother,
p710
F3
sVwith
p711
F179
sVrush
p712
F1
sVswum--she
p713
F1
sVpursuits.--i
p714
F1
sVdirty
p715
F1
sVmiss;
p716
F1
sVhe,
p717
F4
sVrust
p718
F1
sVgone
p719
F1
sVpity.
p720
F1
sVexhausted
p721
F6
sVcertain
p722
F5
sVaccents
p723
F2
sVstealing
p724
F1
sVam
p725
F26
sVan
p726
F83
sVas
p727
F124
sVclaims.
p728
F1
sVat
p729
F64
sVwatched
p730
F6
sVqualities,
p731
F1
sVdisengaged;
p732
F1
sVregardless
p733
F3
sVwalk,
p734
F1
sVaccosted
p735
F1
sVoh!
p736
F1
sVwaving
p737
F1
sVsubjects,
p738
F3
sVa:
p739
F1
sVwalk;
p740
F1
sVenjoyments:
p741
F1
sVthorn
p742
F1
sVprejudices,
p743
F2
sVfinery,
p744
F1
sVmass
p745
F1
sVsensibility
p746
F6
sVuneasiness,
p747
F1
sVuneasiness.
p748
F1
sVall--she
p749
F1
sVmouldering;
p750
F1
sVconsider
p751
F3
sVelements:
p752
F1
sVwelfare
p753
F1
sVreasoning
p754
F1
sVcauses
p755
F2
sVcontent
p756
F1
sVto
p757
F770
sVdressing
p758
F1
sVsmile
p759
F3
sVlabored,
p760
F1
sVcause,
p761
F1
sVreturned
p762
F12
sVpuzzled
p763
F1
sVtour,
p764
F1
sVfloated
p765
F1
sVingratitude
p766
F2
sVjoined
p767
F5
sVlarge
p768
F4
sVdanger,
p769
F3
sVsmall
p770
F7
sV_that
p771
F1
sVobtaineth
p772
F1
sVhour,
p773
F1
sVpast
p774
F4
sVcarriages
p775
F1
sVpass
p776
F1
sVforlorn_.
p777
F1
sVassaults
p778
F1
sVsituated
p779
F2
sVquicken
p780
F1
sVschemes,
p781
F1
sVpoisonous
p782
F1
sVprevailed
p783
F5
sVimperceptibly
p784
F3
sVwhirled
p785
F1
sVnurse
p786
F3
sVfull
p787
F7
sVcarriage.
p788
F1
sVhours
p789
F6
sVobtruded
p790
F3
sVhast
p791
F1
sVcarriage;
p792
F1
sVyourself;
p793
F1
sVbestow
p794
F1
sVexperience
p795
F5
sVprior
p796
F1
sVsocial
p797
F1
sVcanker-worm
p798
F1
sVfollowed
p799
F4
sVapprised
p800
F1
sVbeheld
p801
F1
sVbedside.
p802
F1
sVliterary
p803
F2
sV"her
p804
F1
sVflowers,
p805
F2
sVmore
p806
F59
sVdoor
p807
F2
sVperson.
p808
F1
sVcompany
p809
F3
sVvi.
p810
F1
sVmarriage,
p811
F4
sVmarriage.
p812
F1
sVfluctating
p813
F1
sVsacred!--
p814
F1
sVfatal
p815
F2
sVstretch,
p816
F1
sVsent
p817
F19
sVlearn
p818
F1
sVbeautiful
p819
F5
sVneglected
p820
F1
sVsense
p821
F4
sVdress
p822
F2
sVhuge
p823
F1
sVfervently--but
p824
F1
sVdisconsolate
p825
F1
sVimminent
p826
F1
sVsympathy,
p827
F1
sVcreature
p828
F5
sVintended
p829
F6
sVstate.
p830
F2
sVstate,
p831
F5
sVblotted
p832
F1
sVlaborious.
p833
F1
sVwaver
p834
F1
sVwaves
p835
F3
sVstate;
p836
F2
sVresemble
p837
F1
sVxxx.
p838
F1
sVreverie;
p839
F1
sVrest--when
p840
F1
sVreplied
p841
F2
sVadorned
p842
F1
sVpang
p843
F1
sVsmiling
p844
F1
sVits
p845
F29
sVtruth?
p846
F1
sVrapidly
p847
F2
sVtermed
p848
F3
sVresigned,
p849
F1
sVcourse.
p850
F1
sVcourse,
p851
F1
sVsymptoms
p852
F2
sVtruth.
p853
F2
sVtruth,
p854
F3
sVcourse;
p855
F1
sVtravelling
p856
F1
sVit.
p857
F16
sVit,
p858
F22
sVit?
p859
F1
sVit:
p860
F3
sVit;
p861
F13
sVfarewel
p862
F1
sVpassage.
p863
F1
sVgreat,
p864
F1
sValways
p865
F11
sVall,
p866
F2
sVfound
p867
F25
sVengland
p868
F1
sVsublime.
p869
F1
sVsqualled
p870
F1
sVreally
p871
F3
sVanxious
p872
F1
sVfriend?"
p873
F1
sVdarling
p874
F1
sVsublimes
p875
F1
sVimagine
p876
F4
sVrises
p877
F1
sVattention,
p878
F1
sVattention.
p879
F1
sVconfusion."
p880
F1
sVsensations
p881
F2
sVattention;
p882
F1
sVblack,
p883
F1
sVcastle
p884
F1
sVexhibited
p885
F1
sVminds:--these
p886
F1
sVgazed
p887
F1
sVnumber
p888
F4
sVguess
p889
F1
sVdetermine;
p890
F1
sVbleeding
p891
F1
sVphilanthropy
p892
F1
sVdetermine,
p893
F1
sVpaul's
p894
F1
sVfirst,
p895
F2
sVfirst.
p896
F1
sVfirst!
p897
F1
sVgaze,
p898
F1
sVimmediate
p899
F1
sVforward,
p900
F1
sVgrace
p901
F1
sVmodes
p902
F1
sVdetermined
p903
F11
sVmarriage
p904
F2
sVhead,
p905
F1
sVcumbrous
p906
F1
sVunderstand;
p907
F1
sVwish,
p908
F2
sValso
p909
F6
sVinternal
p910
F4
sVother;
p911
F1
sVbrace
p912
F1
sVthat,
p913
F2
sVplay
p914
F3
sVmonastery
p915
F1
sVcares,
p916
F2
sVcares.
p917
F1
sVplan
p918
F1
sVchannel,
p919
F1
sVbreasts,
p920
F1
sVunequal
p921
F1
sVseize
p922
F1
sVsometimes
p923
F13
sVbeam;
p924
F1
sVbeam,
p925
F1
sVbaneful
p926
F1
sVoverwhelmed
p927
F3
sVfailed
p928
F1
sVpleasure.
p929
F2
sVpleasure,
p930
F3
sVindifference
p931
F1
sVstartled,
p932
F1
sVgospel,
p933
F1
sVself-love,
p934
F1
sVtumult
p935
F1
sVcry
p936
F1
sVsojourn
p937
F1
sVlips--he
p938
F1
sVkill
p939
F1
sVriver
p940
F2
sVbrain--why
p941
F1
sVapproaching
p942
F4
sVset
p943
F10
sVcreator
p944
F2
sVsex
p945
F1
sVsee
p946
F16
sVsea
p947
F2
sVspirits
p948
F7
sVprospect;
p949
F1
sVcreatures;
p950
F2
sVtho'
p951
F1
sVcompliment
p952
F1
sVmanufactories,
p953
F1
sVknowing
p954
F3
sVgriefs,
p955
F2
sVhappiness,
p956
F3
sVhouse);
p957
F1
sVprospects
p958
F1
sVlast
p959
F15
sVthou
p960
F11
sVspirit:
p961
F1
sVvisible;
p962
F1
sVspirit!
p963
F1
sVspirit.
p964
F1
sVlet
p965
F7
sVspirit,
p966
F4
sVwhole
p967
F8
sVsink
p968
F2
sVpleasures,
p969
F1
sVseems
p970
F2
sVacted
p971
F1
sVend;"
p972
F1
sVcommunity
p973
F1
sVhollow
p974
F1
sVassented,
p975
F1
sVrace;
p976
F1
sVdrawn.
p977
F1
sVintricacies
p978
F1
sVextreme
p979
F4
sVfirm
p980
F1
sVresting
p981
F1
sVsilenced
p982
F1
sVstruck
p983
F5
sVpresses
p984
F1
sVuncertain
p985
F1
sVadmire
p986
F3
sVpressed
p987
F6
sVleaning
p988
F1
sVrobin
p989
F2
sVsecluded
p990
F1
sVirresolutely
p991
F1
sVsighed,
p992
F1
sVvow
p993
F1
sVsmothered,
p994
F1
sVcontinent."
p995
F1
sVcomet-like,
p996
F1
sVrules
p997
F1
sVsadness,
p998
F1
sVforgiveness
p999
F1
sVdispleased
p1000
F1
sVcontrition
p1001
F1
sVviewing
p1002
F2
sVnecessity
p1003
F1
sVperson
p1004
F13
sVyet,
p1005
F3
sVmaid,
p1006
F3
sVsuffocated--they
p1007
F1
sVexecution
p1008
F2
sVtribe.
p1009
F1
sVladies,
p1010
F2
sVservilely
p1011
F1
sVindividual,
p1012
F1
sVfeared!
p1013
F1
sVeager
p1014
F1
sVcrying
p1015
F2
sVsurprised
p1016
F1
sVthee.
p1017
F2
sVthee,
p1018
F3
sVseventeen,
p1019
F1
sVaccount,
p1020
F1
sVcabin;
p1021
F2
sVthee!
p1022
F2
sVwives
p1023
F1
sVsuffering
p1024
F1
sVthee;
p1025
F3
sVcabin,
p1026
F1
sVsunk--
p1027
F1
sVformal
p1028
F3
sVsurprise;
p1029
F1
sVtempers,
p1030
F1
sVparent.
p1031
F1
sVarose
p1032
F3
sVparent,
p1033
F1
sVadvertisement.
p1034
F1
sVreader,
p1035
F1
sVhue;
p1036
F1
sVdisorder
p1037
F4
sVcanst
p1038
F1
sVnecessaries
p1039
F1
sVmighty
p1040
F1
sVsight
p1041
F8
sVdeparture:
p1042
F1
sVb:
p1043
F1
sVbenefactor.
p1044
F1
sVreligion
p1045
F3
sVuniformity;
p1046
F1
sVseclusion
p1047
F1
sVtemple
p1048
F1
sVbe
p1049
F106
sVdifficulties;
p1050
F1
sVdictates
p1051
F2
sVsigh,
p1052
F2
sVconcealed
p1053
F1
sVobscured
p1054
F1
sVworlds.
p1055
F1
sVby
p1056
F116
sVnotions,
p1057
F1
sVreverberated
p1058
F1
sVsacrament
p1059
F1
sVdurable:
p1060
F1
sVreverence
p1061
F1
sVinto
p1062
F53
sVdays--she
p1063
F1
sVfulfil:
p1064
F1
sVspending
p1065
F2
sVsubmit
p1066
F1
sVoccupy
p1067
F1
sVniece.
p1068
F1
sVinducement.
p1069
F1
sVniece,
p1070
F1
sVme,--a
p1071
F1
sVnourrit
p1072
F1
sVann!"
p1073
F1
sVrelaxed
p1074
F2
sVunknown;
p1075
F1
sVacquainted,
p1076
F1
sVdeceits,
p1077
F1
sVfades
p1078
F1
sVcharmed
p1079
F1
sVheart--yet
p1080
F1
sVup
p1081
F25
sVus
p1082
F7
sVopen;
p1083
F1
sVverses,
p1084
F1
sVenthusiasm,
p1085
F1
sVside.
p1086
F1
sVmeal,
p1087
F1
sVreconcile
p1088
F3
sVraging
p1089
F1
sVlikewise
p1090
F1
sVinfluence
p1091
F4
sVlost.
p1092
F2
sVlost,
p1093
F1
sVgerman-flute,
p1094
F1
sVgerman-flute.
p1095
F1
sVretrace
p1096
F1
sVinvalid
p1097
F1
sVconceptions
p1098
F1
sVremaining,
p1099
F1
sVdefine,
p1100
F1
sVoblige
p1101
F2
sVfaintly
p1102
F1
sVpeace.
p1103
F1
sVpicture--for
p1104
F1
sVsides
p1105
F1
sVmiles
p1106
F1
sVsail,
p1107
F1
sVreasoned
p1108
F1
sVscotch
p1109
F1
sVwalked
p1110
F3
sVinvoluntarily,
p1111
F2
sVtransient
p1112
F1
sVedward,
p1113
F1
sVhaving
p1114
F14
sVpartial
p1115
F1
sVsofter
p1116
F2
sVseemed
p1117
F12
sVyoung
p1118
F4
sVsend
p1119
F5
sVrapidity--yet
p1120
F1
sVdislike
p1121
F2
sVresources
p1122
F1
sVstreet
p1123
F1
sVgarden
p1124
F1
sVpanting
p1125
F1
sVresigned;
p1126
F1
sVwaters,
p1127
F1
sVcontinued
p1128
F5
sVwipe
p1129
F1
sVresource,
p1130
F1
sVmarry
p1131
F1
sVinelegant
p1132
F1
sVintimacy.
p1133
F1
sVrace
p1134
F1
sVtrite
p1135
F1
sVsentiments;
p1136
F1
sVblow--too
p1137
F1
sVunhappy,
p1138
F2
sVsupported,
p1139
F2
sVexpressed
p1140
F4
sVthat?
p1141
F1
sVmake;
p1142
F1
sVharassing
p1143
F1
sVled
p1144
F9
sVgathered
p1145
F1
sVanswered,
p1146
F1
sVpoverty
p1147
F1
sVgreat
p1148
F15
sVreceive
p1149
F15
sVsurvey
p1150
F1
sVopinion
p1151
F2
sVmakes
p1152
F1
sVopiates.
p1153
F1
sVhath
p1154
F1
sVcomplying
p1155
F1
sVnone!--the
p1156
F1
sVdreams,
p1157
F1
sVweakness,
p1158
F1
sVnext
p1159
F8
sVdreams;
p1160
F1
sVbliss
p1161
F1
sVpencil
p1162
F2
sVlaboured
p1163
F1
sVrich
p1164
F1
sVbaffled
p1165
F1
sVoccurred
p1166
F3
sVbodily
p1167
F3
sVgladly
p1168
F1
sVcharity
p1169
F1
sVanimals
p1170
F3
sVthis
p1171
F102
sVremarks;
p1172
F1
sVthin
p1173
F1
sVdelusion--but
p1174
F1
sVhigh,
p1175
F2
sVfit.
p1176
F1
sVrode
p1177
F2
sVpieces
p1178
F1
sVhigh
p1179
F3
sVlooks--she
p1180
F1
sVslip
p1181
F1
sVclass.
p1182
F1
sVdelay
p1183
F1
sVprocured
p1184
F4
sVanimal
p1185
F3
sVsingular
p1186
F1
sVawait
p1187
F1
sVpurpose,
p1188
F1
sVties
p1189
F2
sV"be
p1190
F1
sVperused
p1191
F2
sVallow
p1192
F4
sValloy
p1193
F1
sVrelish,
p1194
F1
sVunvaried
p1195
F1
sVproduces
p1196
F3
sVphysician;
p1197
F1
sVproduced
p1198
F5
sVswain
p1199
F1
sVexistence.
p1200
F1
sVexistence,
p1201
F2
sVdesign,
p1202
F1
sVphysician,
p1203
F3
sVwife's
p1204
F2
sVperfect
p1205
F1
sVseparation.
p1206
F1
sVchosen
p1207
F1
sVstrewed
p1208
F1
sVsickly,
p1209
F1
sVphysicians
p1210
F2
sVdesigns
p1211
F1
sVmitigated
p1212
F1
sVrealize
p1213
F1
sVexertions,
p1214
F1
sVchose,
p1215
F1
sVaccompaniment.
p1216
F1
sVwhither
p1217
F1
sVdelightful
p1218
F3
sVaccompanied
p1219
F3
sVtraces
p1220
F1
sVstrode
p1221
F1
sVscanty
p1222
F1
sVsociety
p1223
F3
sVbooks
p1224
F3
sVwander
p1225
F2
sVwitness
p1226
F4
sVrepeat,
p1227
F1
sVomnipotent
p1228
F2
sVfemales,
p1229
F1
sVyou?"--mary's
p1230
F1
sVshut
p1231
F2
sVmet;
p1232
F1
sVsuggested:
p1233
F1
sVsurely
p1234
F3
sVshun
p1235
F1
sVmet,
p1236
F1
sVhasten
p1237
F2
sVthings.
p1238
F1
sVthings,
p1239
F1
sVpursuits,
p1240
F1
sVguest.--and
p1241
F1
sVthings?
p1242
F1
sVpursuits;
p1243
F1
sVplatonic
p1244
F1
sVspeaking,
p1245
F2
sVyells
p1246
F1
sVscene
p1247
F4
sVowned
p1248
F1
sVsoothing
p1249
F1
sVshort,
p1250
F1
sVordering
p1251
F1
sVgay;
p1252
F1
sVwaters.--no
p1253
F1
sVbehaved
p1254
F1
sVpainful
p1255
F1
sVaccompany
p1256
F6
sVburlesque
p1257
F1
sVblow;
p1258
F1
sVafresh.
p1259
F1
sVafresh,
p1260
F1
sVwarfare
p1261
F1
sVquietness
p1262
F1
sVstared--not
p1263
F1
sVxxix.
p1264
F1
sVdevotion
p1265
F3
sVann's
p1266
F12
sVfalse
p1267
F4
sVsolitude,
p1268
F1
sVgentle
p1269
F2
sVelement
p1270
F1
sVnecessities
p1271
F1
sVtyrannical
p1272
F1
sVregard
p1273
F2
sVinebriated,
p1274
F1
sVdevotion;
p1275
F1
sVfervent
p1276
F1
sVphilosophers
p1277
F1
sVbred
p1278
F1
sVmetaphysical
p1279
F1
sVface
p1280
F3
sVperceiving
p1281
F1
sVawe;
p1282
F1
sVwounded
p1283
F3
sVbabe;
p1284
F1
sVgulph--not
p1285
F1
sVrouge
p1286
F1
sVrough
p1287
F1
sVasylum
p1288
F2
sVtrivial
p1289
F3
sVbrink
p1290
F2
sVfew;
p1291
F1
sVexpected.--gracious
p1292
F1
sVshould
p1293
F29
sVplanted
p1294
F1
sVfarms;
p1295
F1
sVcomfortless,
p1296
F1
sVfew,
p1297
F1
sVhandle
p1298
F2
sVlistened
p1299
F3
sVmeans
p1300
F2
sVanimadverted
p1301
F1
sVeternity--when
p1302
F1
sVfrench.
p1303
F1
sVfrench,
p1304
F1
sVpeople--he
p1305
F1
sVhumanity:--and
p1306
F1
sVstrengthened
p1307
F2
sVhand--her
p1308
F1
sVhistorian,
p1309
F1
sVexerted
p1310
F3
sVpacket
p1311
F1
sVtaking--at
p1312
F1
sVonce,
p1313
F1
sVstream;
p1314
F1
sVann--i
p1315
F1
sVassiduously
p1316
F1
sVinjury:
p1317
F1
sVrest;
p1318
F1
sVstrides
p1319
F1
sVmother--the
p1320
F1
sVchild!"
p1321
F1
sVhim;
p1322
F8
sVbaubles
p1323
F1
sVshone,
p1324
F1
sVcreature!"--"mine
p1325
F1
sVbristol
p1326
F1
sVconclude
p1327
F2
sVoverspreads
p1328
F1
sVinelegancies
p1329
F1
sVdazzling
p1330
F1
sVwaste
p1331
F2
sVdamped,
p1332
F1
sVbanish
p1333
F4
sVenliven,
p1334
F1
sVwords,
p1335
F1
sVsallies,
p1336
F1
sVsad,
p1337
F1
sVpropensities
p1338
F1
sVpillow,
p1339
F1
sVprecipitately.
p1340
F1
sVof.
p1341
F4
sVof,
p1342
F4
sVof;
p1343
F1
sVbalm
p1344
F2
sVstruggles!
p1345
F1
sVstruggles.
p1346
F1
sVupon
p1347
F1
sVv.
p1348
F1
sVinfinite
p1349
F1
sVoff
p1350
F7
sVcolour
p1351
F4
sVtranquillity--it
p1352
F1
sVcaptives,
p1353
F1
sVit--and
p1354
F1
sVlest
p1355
F1
sVreturned,
p1356
F1
sVless
p1357
F4
sVgoing,
p1358
F1
sVrambled
p1359
F3
sVreturned:
p1360
F1
sVhauled
p1361
F1
sVgoing:
p1362
F1
sVclergyman
p1363
F1
sVexquisite
p1364
F3
sVwet
p1365
F1
sVfluctuating
p1366
F1
sVincreased
p1367
F4
sVroom.
p1368
F5
sVinundation
p1369
F1
sVroom,
p1370
F6
sVfive
p1371
F2
sVmoment,
p1372
F2
sVroom;
p1373
F1
sVdelicacy,
p1374
F1
sVengland,
p1375
F1
sVfeminine,
p1376
F1
sVengland.
p1377
F2
sVbecome
p1378
F1
sVengland;
p1379
F1
sVactions.
p1380
F1
sVactions,
p1381
F1
sVdegree,
p1382
F1
sVresidence?
p1383
F1
sVchoosing
p1384
F1
sVtransport
p1385
F1
sVliterally
p1386
F2
sVavoid
p1387
F9
sVdoes
p1388
F5
sVpassion
p1389
F5
sVaccommodated,
p1390
F1
sVexpanded,
p1391
F2
sVpressure
p1392
F2
sVgained
p1393
F1
sVseeds
p1394
F1
sVmanaged;
p1395
F1
sVsigh--and
p1396
F1
sVunfavourable
p1397
F1
sVfro
p1398
F1
sVcultivated
p1399
F2
sVmere
p1400
F3
sVplace;
p1401
F1
sVout-while
p1402
F1
sVdoing
p1403
F4
sVindolence.
p1404
F1
sVnaturally
p1405
F1
sVever!--why
p1406
F1
sVxxiii.
p1407
F1
sVletter.
p1408
F2
sVthey,
p1409
F1
sVplaces
p1410
F1
sVshrunk
p1411
F3
sVfavourable,
p1412
F1
sVirish
p1413
F1
sVcontribute
p1414
F1
sVfaintness
p1415
F1
sVarms.
p1416
F2
sVdo!--this
p1417
F1
sVnursed
p1418
F1
sVbeggar."
p1419
F1
sVgarden,
p1420
F3
sVcompared
p1421
F2
sVtrials
p1422
F1
sVuseful.
p1423
F1
sVbehold
p1424
F2
sVin?
p1425
F1
sVagain.
p1426
F2
sVagain,
p1427
F2
sVin;
p1428
F1
sVin,
p1429
F5
sVagain;
p1430
F2
sVchance
p1431
F2
sVnurse.
p1432
F2
sVnurse,
p1433
F2
sVveil
p1434
F1
sVapertures
p1435
F1
sVslumber.
p1436
F1
sVlasted
p1437
F2
sVslumber,
p1438
F1
sV_where
p1439
F1
sVrural
p1440
F1
sVdesirable
p1441
F1
sVnursery
p1442
F1
sVsaved
p1443
F1
sVeffectually
p1444
F1
sVworth
p1445
F1
sVcompassion
p1446
F3
sVbanish,
p1447
F1
sVbewildered
p1448
F2
sVneighbour,
p1449
F1
sVfutile.
p1450
F1
sVgo."
p1451
F1
sVbubbling
p1452
F1
sVoccasioned
p1453
F5
sVothers;
p1454
F1
sVdepraved
p1455
F2
sVriches,
p1456
F1
sVothers,
p1457
F1
sVapproached
p1458
F2
sVlanguid.
p1459
F1
sVestablished
p1460
F1
sVlanguid,
p1461
F1
sVdeliberate
p1462
F2
sVconsequent
p1463
F2
sVabove
p1464
F2
sVchurches
p1465
F1
sVtold
p1466
F7
sVfathers,
p1467
F1
sVmistress;
p1468
F1
sVnotions
p1469
F4
sVsounds--or
p1470
F1
sVpursuit
p1471
F1
sVmachine:
p1472
F1
sVgenie.
p1473
F1
sVdaughter
p1474
F5
sVstudy
p1475
F2
sVdisappointed--the
p1476
F1
sVthought,
p1477
F3
sVgentleman,
p1478
F1
sVglance
p1479
F1
sVnegative
p1480
F2
sVpermit;
p1481
F1
sVshortest
p1482
F1
sVsaid;
p1483
F1
sVgroans,
p1484
F1
sVreign
p1485
F1
sVpierced
p1486
F1
sVcontinual
p1487
F1
sVdictated,
p1488
F1
sVstriving
p1489
F1
sVsociety.
p1490
F1
sVsociety,
p1491
F1
sVwork
p1492
F1
sVsociety;
p1493
F2
sVcould
p1494
F111
sVbooks;
p1495
F1
sVbring--to-morrow,
p1496
F1
sVinscrutable
p1497
F1
sVcustom,
p1498
F1
sVvoid,
p1499
F1
sVviolin
p1500
F1
sVrecovery
p1501
F3
sVprovide
p1502
F1
sVdisappear
p1503
F1
sVfever
p1504
F1
sVafter
p1505
F30
sVlay
p1506
F1
sVejaculation,
p1507
F1
sVboat,
p1508
F3
sVhasty
p1509
F3
sVgreet
p1510
F1
sVrecover,
p1511
F1
sVpleasant--yet
p1512
F1
sVrecover.
p1513
F2
sVover--for
p1514
F1
sVorder
p1515
F6
sVoffice
p1516
F2
sVsatisfied
p1517
F1
sVears;
p1518
F1
sVears.
p1519
F1
sVunanalyzed
p1520
F1
sVlook--tried
p1521
F1
sVrock,
p1522
F1
sVeleve
p1523
F1
sVthen
p1524
F53
sVthem
p1525
F47
sVaffected
p1526
F2
sVthee
p1527
F15
sVsafe
p1528
F1
sVbreak
p1529
F3
sVyoung,
p1530
F1
sVpenetration
p1531
F1
sVthey
p1532
F150
sVbread
p1533
F1
sValternately
p1534
F2
sVrocks
p1535
F1
sVgoodness.
p1536
F1
sVlifted
p1537
F1
sVschemes
p1538
F1
sVdispute,
p1539
F1
sVfather's--"
p1540
F1
sVrefuge,
p1541
F1
sValarmed,
p1542
F1
sVtravelling.
p1543
F1
sVmedicine
p1544
F1
sVforth
p1545
F4
sVher--and
p1546
F1
sVbuilt.
p1547
F1
sVceremonies;
p1548
F1
sVmourning
p1549
F1
sVdashing
p1550
F2
sVcrime.
p1551
F1
sVsadly
p1552
F1
sVenlightened
p1553
F1
sVfalmouth,
p1554
F1
sVrecovering
p1555
F1
sVcreated
p1556
F2
sVcaprice
p1557
F1
sVvessel,
p1558
F1
sVvessel.
p1559
F1
sV"no
p1560
F1
sVvulgar
p1561
F4
sVrender
p1562
F4
sVi.
p1563
F1
sVfears,
p1564
F4
sVanother
p1565
F10
sVthick
p1566
F3
sVscene:
p1567
F1
sVincoherent.
p1568
F1
sVscene.
p1569
F1
sVobservations
p1570
F1
sVefface
p1571
F2
sVmeanness;
p1572
F1
sVmercy
p1573
F1
sVobservation,
p1574
F1
sVair,
p1575
F2
sVscenes
p1576
F1
sVair.
p1577
F2
sVlove;
p1578
F2
sVhistorical
p1579
F1
sVrate?
p1580
F1
sVair;
p1581
F1
sVpowers
p1582
F1
sVsleepless,
p1583
F1
sVexercise,
p1584
F1
sVmaxims
p1585
F1
sVmanner
p1586
F3
sVcircle.
p1587
F1
sVcontents
p1588
F1
sVcircle,
p1589
F1
sVforced
p1590
F7
sVstrength
p1591
F9
sVlatter
p1592
F2
sVsubjects
p1593
F2
sVluxury
p1594
F2
sVforces
p1595
F1
sVcontent,
p1596
F1
sVmaiden
p1597
F1
sVexercised
p1598
F2
sVexercises
p1599
F1
sVgrave
p1600
F4
sVpeevish
p1601
F1
sVvacant--her
p1602
F1
sVforce,
p1603
F1
sVcalculated
p1604
F2
sVforce.
p1605
F1
sVsubject,
p1606
F1
sVaunt
p1607
F1
sVsudden-death"
p1608
F1
sVnotion
p1609
F2
sVfitted
p1610
F1
sVprecarious
p1611
F2
sVserenely
p1612
F1
sVwrung
p1613
F1
sVenjoyed
p1614
F3
sVfatuus_;
p1615
F1
sVexplanation.
p1616
F1
sVjust
p1617
F10
sVdismayed;
p1618
F1
sVwarmest
p1619
F1
sVdo
p1620
F24
sVhangings
p1621
F1
sVpreferred
p1622
F2
sVhaunted
p1623
F2
sVunexpectedly.
p1624
F1
sVruns
p1625
F1
sVprophetic,
p1626
F1
sVsteal
p1627
F2
sVinto,
p1628
F1
sVdies.
p1629
F1
sVobserved
p1630
F9
sVmiserable
p1631
F2
sVtortured
p1632
F1
sVrequest,
p1633
F1
sVaway
p1634
F13
sVgentleman
p1635
F1
sVcaught,
p1636
F1
sVvulgarly
p1637
F1
sVunable
p1638
F3
sVdrawn
p1639
F4
sVwe
p1640
F20
sVtorrent,
p1641
F2
sVdid--and
p1642
F1
sVunfold
p1643
F2
sVvisited
p1644
F7
sVdistant,
p1645
F2
sVdistant.
p1646
F2
sVreceived
p1647
F8
sVill
p1648
F8
sVreceives
p1649
F1
sVfailing;
p1650
F1
sVdraw.
p1651
F1
sVmasquerades,
p1652
F1
sVpeacefully
p1653
F1
sVtone
p1654
F1
sVsight--she
p1655
F1
sVspeak
p1656
F5
sVgratitude
p1657
F2
sVapathy,
p1658
F1
sVgarden-gate
p1659
F1
sVwarmth
p1660
F5
sVduties
p1661
F4
sVamusements,
p1662
F2
sVattacked
p1663
F2
sVconcerning
p1664
F4
sVasserted,
p1665
F1
sVthem--i
p1666
F1
sVgracious
p1667
F1
sVphysician
p1668
F3
sVwretches;
p1669
F1
sVemotions--short-lived
p1670
F1
sVair
p1671
F4
sVdifficulty,
p1672
F1
sVproperty
p1673
F1
sVlaunched
p1674
F1
sVknown.
p1675
F1
sV_herself_
p1676
F1
sVfaith,
p1677
F1
sVformality,
p1678
F1
sVsting
p1679
F1
sVgirls.
p1680
F1
sVmoping
p1681
F1
sVbile.
p1682
F1
sVindigence
p1683
F1
sVrain
p1684
F2
sVhand
p1685
F4
sVobtrude
p1686
F1
sVdiscourse.
p1687
F1
sVprescribed
p1688
F1
sVconviction,
p1689
F3
sVkept
p1690
F3
sVavoid.
p1691
F1
sVthy
p1692
F15
sVavoid;
p1693
F1
sVmamma
p1694
F1
sVthe
p1695
F1245
sVmusical
p1696
F1
sVimpression
p1697
F3
sVrepose
p1698
F1
sVfarther
p1699
F1
sVblood-vessel.
p1700
F1
sVspread
p1701
F3
sVboard
p1702
F1
sVrighteous
p1703
F1
sVsailed;
p1704
F1
sVgod;
p1705
F1
sVworld."
p1706
F1
sVretreat
p1707
F1
sVtendered
p1708
F1
sVcooler
p1709
F1
sVcountry,
p1710
F7
sVnight
p1711
F12
sVcountry;
p1712
F1
sVprayed.
p1713
F1
sVportuguese
p1714
F1
sVher!--i
p1715
F1
sVfootstep,
p1716
F1
sVbore
p1717
F1
sVgentle,
p1718
F2
sVdenied
p1719
F2
sVdispersed,
p1720
F1
sVmodels,
p1721
F1
sVforbearance.
p1722
F1
sVpost
p1723
F2
sVimpenetrable
p1724
F1
sVmonths
p1725
F3
sVpays
p1726
F1
sVprofession
p1727
F1
sVdelighted
p1728
F8
sVrobins;
p1729
F1
sVapostle,
p1730
F1
sVaccordingly
p1731
F1
sVway
p1732
F13
sVwas
p1733
F380
sVsame:
p1734
F1
sVtints
p1735
F1
sVcrown
p1736
F1
sVtaken
p1737
F5
sVtrue
p1738
F2
sVimpatience,
p1739
F3
sVattuned
p1740
F1
sVprayed
p1741
F2
sVevidence
p1742
F1
sVpromised
p1743
F4
sVprayer
p1744
F1
sVbrother,
p1745
F3
sVagents,
p1746
F1
sVphysical
p1747
F1
sVsong,
p1748
F1
sVdying
p1749
F5
sVhurry;
p1750
F1
sVbed.
p1751
F1
sVbed,
p1752
F8
sVhurry,
p1753
F1
sVshrine
p1754
F1
sVpace.
p1755
F1
sVpace,
p1756
F1
sV"when
p1757
F1
sVbed;
p1758
F2
sVshrink
p1759
F1
sVwelcome
p1760
F1
sVpolite
p1761
F2
sVassiduous
p1762
F2
sVxii.
p1763
F1
sVobjections,
p1764
F1
sVbestowed
p1765
F1
sVtogether
p1766
F2
sVvictory.
p1767
F1
sVcarts
p1768
F1
sVreception
p1769
F1
sVpaced
p1770
F1
sVsongs
p1771
F2
sVbroke
p1772
F4
sVdance
p1773
F3
sVunmixed
p1774
F2
sVsoothed
p1775
F1
sVcertainly
p1776
F3
sVflash
p1777
F1
sVagony.
p1778
F1
sVagony,
p1779
F1
sVcompensate
p1780
F1
sVturn.
p1781
F1
sVturn,
p1782
F1
sVfeebly
p1783
F1
sVseemingly
p1784
F1
sVtrouble
p1785
F2
sVfeeble
p1786
F1
sVperceived
p1787
F4
sVpresented
p1788
F2
sVturns
p1789
F1
sVupper
p1790
F1
sVappear,
p1791
F1
sVbrave
p1792
F3
sVregret
p1793
F1
sVdiscover
p1794
F2
sVperusing
p1795
F1
sVtempest
p1796
F1
sVappear
p1797
F7
sVindifference;
p1798
F1
sVeliza
p1799
F1
sVshared
p1800
F1
sVparadoxical
p1801
F1
sVsupporting
p1802
F3
sVrousseau.
p1803
F1
sVrepent;
p1804
F1
sVroaring
p1805
F1
sVappears
p1806
F1
sVsociable
p1807
F1
sVlow-spirited;
p1808
F1
sVcontrary;
p1809
F1
sVof--she
p1810
F1
sVflushed,
p1811
F1
sVmellowed
p1812
F1
sVretired
p1813
F6
sVfelt.
p1814
F1
sVabsorption,
p1815
F1
sVfelt;
p1816
F2
sVstings
p1817
F1
sVmiserable?
p1818
F1
sVor
p1819
F92
sVprove
p1820
F1
sVcaptivate
p1821
F1
sVlive
p1822
F10
sVangels
p1823
F2
sVitalian,
p1824
F1
sVgentlemen,
p1825
F1
sVretire.
p1826
F1
sVthrobbed
p1827
F1
sVgentlemen;
p1828
F1
sVmerchantman
p1829
F1
sVvisits,
p1830
F1
sVrenders
p1831
F1
sVcan
p1832
F16
sVheart
p1833
F21
sVdedicated
p1834
F1
sVheard
p1835
F20
sVpurity
p1836
F2
sVdesart
p1837
F1
sVoccur
p1838
F1
sVsolemn,
p1839
F1
sVpassionate;
p1840
F1
sVdispositions
p1841
F1
sVwrite
p1842
F2
sVwandering,
p1843
F1
sVornaments,
p1844
F1
sVtogether--or
p1845
F1
sVsacrifice
p1846
F1
sVfortune,
p1847
F2
sVdisgusted
p1848
F2
sVgrass,
p1849
F1
sVhideth
p1850
F1
sVproduce
p1851
F2
sVfortune;
p1852
F1
sVlifting
p1853
F2
sVfixed--no
p1854
F1
sVremember
p1855
F1
sVunmixed,
p1856
F1
sVwhenever
p1857
F1
sVrelieved;
p1858
F1
sVcrept
p1859
F1
sV_attendrissement_
p1860
F1
sVno,
p1861
F2
sVno.
p1862
F1
sVindeed
p1863
F8
sVforfeit
p1864
F2
sVbewitching
p1865
F1
sVended
p1866
F1
sVno:
p1867
F2
sVcold
p1868
F3
sVstill
p1869
F34
sVbirds
p1870
F3
sVperceived,
p1871
F1
sVcurls
p1872
F1
sVvicinity
p1873
F1
sVwindow
p1874
F2
sVconcert;
p1875
F1
sVburst;
p1876
F1
sVcorrespondence
p1877
F1
sVspirits,
p1878
F2
sVspirits;
p1879
F3
sVhalf
p1880
F3
sVnot
p1881
F275
sVnow
p1882
F34
sVnor
p1883
F17
sVfor;
p1884
F4
sVintrigues
p1885
F1
sVservant
p1886
F2
sVfatigued,
p1887
F1
sVform;
p1888
F1
sVentirely
p1889
F3
sVvexation
p1890
F1
sVprompted
p1891
F1
sVhurried
p1892
F1
sVavidity
p1893
F1
sVyear
p1894
F5
sVet
p1895
F1
sVhymns
p1896
F1
sVamusement
p1897
F1
sVdome;
p1898
F1
sVcould,
p1899
F1
sVthirst
p1900
F1
sVhastily
p1901
F1
sVincrease
p1902
F2
sVrational
p1903
F2
sVepistle
p1904
F1
sVmonitor,
p1905
F1
sVinteresting.
p1906
F1
sVinteresting,
p1907
F1
sVastonishment.
p1908
F1
sVfire.
p1909
F1
sVcare
p1910
F4
sVcontemplation
p1911
F2
sVmansions,
p1912
F1
sVflying
p1913
F1
sVstriking
p1914
F1
sVindecent
p1915
F1
sVbrain.
p1916
F1
sVdirectly
p1917
F1
sVmessage
p1918
F1
sVdrove
p1919
F2
sVimpetuous
p1920
F1
sVungrateful.
p1921
F1
sVsilent
p1922
F3
sVclimate;
p1923
F1
sVcaught
p1924
F12
sVignorant,
p1925
F1
sVcircles.
p1926
F1
sVfriend
p1927
F10
sVartless
p1928
F4
sVx.
p1929
F1
sVmostly
p1930
F2
sVthat
p1931
F219
sVexpanse
p1932
F1
sVflowers
p1933
F1
sVthan
p1934
F36
sVsickened;
p1935
F1
sVquestion--she
p1936
F1
sVrugged
p1937
F1
sVbranch--a
p1938
F1
sVto-morrow.
p1939
F1
sVrecruit
p1940
F1
sVfled?"
p1941
F1
sVextinguish
p1942
F1
sVsublime
p1943
F6
sVto-morrow;
p1944
F1
sVclutches.
p1945
F1
sVremained
p1946
F7
sVanger
p1947
F1
sVindolent;
p1948
F1
sVslave.
p1949
F1
sVterrific
p1950
F1
sVswelled
p1951
F1
sVcheeks,
p1952
F2
sVcheeks.
p1953
F1
sVpropriety.
p1954
F1
sVpropriety,
p1955
F1
sVbeing,
p1956
F1
sVcalm.
p1957
F1
sVcheeks;
p1958
F1
sVbeing.
p1959
F1
sVtalents
p1960
F1
sVclearing
p1961
F1
sVsuperfice,
p1962
F1
sVinvalids,
p1963
F1
sVinvalids.
p1964
F1
sVhonour,
p1965
F2
sVwhile,
p1966
F1
sVdiscovered
p1967
F3
sVgratified
p1968
F1
sVground
p1969
F2
sVtitle
p1970
F2
sVonly
p1971
F64
sVessence
p1972
F1
sVfriend."
p1973
F1
sVseen.
p1974
F1
sVseen,
p1975
F1
sVtruly
p1976
F2
sVcannot
p1977
F13
sVhonours
p1978
F1
sVxxvi.
p1979
F1
sVnext,
p1980
F1
sVseldom
p1981
F7
sVfriends.
p1982
F1
sVhusband
p1983
F9
sVconcert
p1984
F2
sVburst
p1985
F5
sVphysically
p1986
F1
sVanchored
p1987
F1
sVasleep
p1988
F1
sVher's.
p1989
F1
sVcomplexion
p1990
F1
sVstupid.
p1991
F1
sVbetween
p1992
F3
sVtrifling--it
p1993
F1
sVann--a
p1994
F1
sVnotice
p1995
F5
sVprettiest
p1996
F1
sVpluck
p1997
F1
sVlast;--the
p1998
F1
sVresided
p1999
F3
sVreluctantly
p2000
F1
sVmadness
p2001
F1
sVforeboding
p2002
F1
sVobserver.
p2003
F1
sVinformed
p2004
F7
sVwreath,
p2005
F1
sVthese
p2006
F40
sVdanger.
p2007
F1
sVcare;
p2008
F1
sVlong-drawn
p2009
F1
sVcare,
p2010
F2
sVcare.
p2011
F1
sVdanger;
p2012
F1
sVduties,
p2013
F1
sVsoil
p2014
F1
sVspring!--her
p2015
F1
sVembrace
p2016
F1
sVraptures
p2017
F1
sVcommanded
p2018
F1
sVship
p2019
F1
sVdevelop
p2020
F1
sVgentlemen
p2021
F2
sVmeet,"
p2022
F1
sVpure,
p2023
F1
sVfinish
p2024
F2
sVaudible.
p2025
F1
sVrapture,
p2026
F1
sVdispositions,
p2027
F1
sVfruit
p2028
F1
sVconquered
p2029
F3
sVswallow
p2030
F1
sVconstitutional
p2031
F1
sVhair-dresser
p2032
F1
sVtyrannic.
p2033
F1
sValleviate
p2034
F1
sVrule?
p2035
F1
sVam;
p2036
F1
sVproficient;
p2037
F1
sVgreetings
p2038
F1
sVtouch
p2039
F2
sVdeath
p2040
F7
sVthinking
p2041
F9
sVconduct.
p2042
F2
sVmournful
p2043
F2
sVxvii.
p2044
F1
sVreal
p2045
F1
sVover-board
p2046
F1
sVread
p2047
F13
sVgreeting,
p2048
F1
sVcorrespondence.
p2049
F1
sVwreck.
p2050
F1
sVearly
p2051
F2
sVquickness
p2052
F2
sVlistening
p2053
F4
sVwreck;
p2054
F1
sVlady
p2055
F2
sVfortune
p2056
F3
sVpounds
p2057
F1
sVgreeting
p2058
F1
sVbenefit
p2059
F1
sVfully
p2060
F1
sVopened.
p2061
F2
sVservile
p2062
F1
sVpeace,
p2063
F1
sVpassions
p2064
F8
sVpeace;
p2065
F1
sVconceal;
p2066
F1
sVtwice,
p2067
F1
sVcaresses.
p2068
F1
sVuneasy
p2069
F1
sVuncivilized
p2070
F1
sVhectic
p2071
F2
sVapartment,
p2072
F2
sVpartiality
p2073
F2
sVfondness
p2074
F3
sVpiety
p2075
F2
sVscolding,
p2076
F1
sVenquiry,
p2077
F2
sVjourney
p2078
F1
sVpassion,
p2079
F4
sVpassion.
p2080
F3
sVcharles,
p2081
F1
sVyour
p2082
F8
sVrefinement
p2083
F1
sVforwarded
p2084
F1
sVprepare
p2085
F6
sVtone,
p2086
F1
sVgaze
p2087
F1
sVcares.--would
p2088
F1
sVyou,
p2089
F1
sVsight.--forgetting
p2090
F1
sVyou?
p2091
F1
sVyou;
p2092
F1
sVtrying
p2093
F3
sVfear--yet
p2094
F1
sVsadness
p2095
F3
sVtones
p2096
F1
sVsupposition;
p2097
F1
sVsubdue
p2098
F1
sVdescribe
p2099
F1
sVmoved
p2100
F2
sVarises
p2101
F2
sVcommons,
p2102
F1
sVunwelcome
p2103
F2
sVtended.
p2104
F1
sVevenings
p2105
F1
sVyou
p2106
F23
sVpoor
p2107
F19
sVwhistling
p2108
F1
sVpeal
p2109
F1
sVchased,
p2110
F1
sVmourned
p2111
F1
sVinconsiderate,
p2112
F1
sVevening,
p2113
F2
sVevening.
p2114
F1
sVanticipated,
p2115
F1
sVresearches,
p2116
F1
sVrestored
p2117
F1
sVdoubted
p2118
F1
sVsince
p2119
F3
sVpointing
p2120
F1
sVceased
p2121
F4
sVreligious
p2122
F4
sVdreadful
p2123
F2
sVhealth
p2124
F12
sVvery
p2125
F50
sVhorror
p2126
F4
sVdecide
p2127
F1
sVheaven
p2128
F9
sVheaved
p2129
F2
sVchurches,
p2130
F1
sVthrobbing
p2131
F2
sVerect;
p2132
F1
sVanswer;
p2133
F3
sVstreets
p2134
F1
sVtrack,
p2135
F1
sVanswer,
p2136
F1
sVanswer.
p2137
F1
sVhamper
p2138
F1
sVconscience
p2139
F3
sVhim?
p2140
F1
sVhim:
p2141
F1
sVdarkness
p2142
F2
sVemotions
p2143
F4
sVhim.
p2144
F6
sVhim,
p2145
F18
sVlearned
p2146
F5
sVhim!
p2147
F1
sVelsewhere.
p2148
F1
sVheart--a
p2149
F1
sVfixed:
p2150
F1
sVanswers
p2151
F1
sVforgive
p2152
F3
sVfixed,
p2153
F1
sVstrong
p2154
F6
sVinspired
p2155
F1
sVsubtiler
p2156
F1
sVamount
p2157
F1
sVemotion.
p2158
F1
sVstore."
p2159
F1
sVthemselves.
p2160
F2
sVprayers,--and
p2161
F1
sVfamily
p2162
F5
sVtenderer
p2163
F1
sVstory;
p2164
F1
sVput
p2165
F3
sVaimed
p2166
F1
sVcapacity.
p2167
F1
sVrevelation
p2168
F1
sVstarted,
p2169
F1
sVplace--may
p2170
F1
sVbushes
p2171
F1
sVexcuse
p2172
F3
sVmoistened
p2173
F3
sVimpulse
p2174
F1
sV_feel_
p2175
F1
sVtake,
p2176
F1
sVgardener.
p2177
F1
sVcultivation.
p2178
F1
sVfury,
p2179
F1
sVfury.
p2180
F1
sVmiserable,
p2181
F1
sVtriumph;
p2182
F1
sVcornice
p2183
F1
sVspecies
p2184
F2
sVsoul;
p2185
F2
sVbread.
p2186
F1
sVgrievous,
p2187
F1
sVtried
p2188
F12
sVclimate.
p2189
F1
sVderived
p2190
F1
sVxxiv.
p2191
F1
sVa
F475
sVcalm;
p2192
F2
sVcompting-house.
p2193
F1
sVinvalide;
p2194
F1
sVhappy.--"do
p2195
F1
sVdread
p2196
F1
sVcalm!
p2197
F1
sVbanks
p2198
F2
sVrapturous
p2199
F1
sVfaultered;
p2200
F1
sVhelp
p2201
F3
sVsoon
p2202
F23
sVheld
p2203
F2
sVnoughts
p2204
F1
sVcommitted
p2205
F2
sVoccasion?
p2206
F1
sVactually
p2207
F1
sVfeel
p2208
F12
sVdiffered
p2209
F1
sVwoman--lovely
p2210
F1
sVevening
p2211
F3
sVfood
p2212
F1
sVworthies
p2213
F1
sVye
p2214
F3
sVanticipated
p2215
F2
sVtreasure.
p2216
F1
sVfoot
p2217
F2
sVtwice;
p2218
F1
sVoccasions
p2219
F1
sVstopped
p2220
F1
sVlabour.
p2221
F1
sVheavy
p2222
F5
sVinflict;
p2223
F1
sVfrowned,
p2224
F1
sVjaws
p2225
F1
sVhouse.
p2226
F2
sVhouse,
p2227
F4
sVenergy,
p2228
F1
sVsails,
p2229
F1
sVfondly;
p2230
F1
sVvivacity,
p2231
F1
sVearn.
p2232
F1
sVbeyond
p2233
F1
sVevent
p2234
F3
sVas,
p2235
F1
sVunnatural
p2236
F1
sVsurrounded
p2237
F1
sVinspection,
p2238
F1
sVdirt
p2239
F1
sVreason
p2240
F11
sVlights,
p2241
F1
sVask
p2242
F2
sVheroic
p2243
F1
sVfeelings;
p2244
F2
sVsweets,
p2245
F1
sVthames,
p2246
F1
sVfeelings,
p2247
F1
sVfeelings.
p2248
F1
sVship-board
p2249
F1
sVbeggars
p2250
F1
sVhope!--bereft
p2251
F1
sVblush
p2252
F1
sVinterrupted;
p2253
F1
sVreflected
p2254
F2
sVunexpected
p2255
F1
sVmist
p2256
F1
sVinterwoven
p2257
F2
sVst.
p2258
F1
sVstation
p2259
F1
sVhundred
p2260
F1
sVvision,
p2261
F1
sVpassed
p2262
F13
sVauthors
p2263
F1
sVscheme
p2264
F2
sVindelible.
p2265
F1
sVindelible,
p2266
F1
sVmiseries
p2267
F2
sVg----,
p2268
F1
sVgrey
p2269
F1
sVhesitating
p2270
F1
sVutter.
p2271
F1
sVsubstantial
p2272
F1
sVimproves,
p2273
F1
sVorgans
p2274
F1
sVsensual
p2275
F1
sVlie
p2276
F3
sVphysic,
p2277
F1
sVmeditations,
p2278
F1
sVlabour
p2279
F1
sVuseless
p2280
F1
sVtowards
p2281
F4
sVhired
p2282
F1
sVapproved
p2283
F3
sVsentence;
p2284
F1
sVclimates;
p2285
F1
sVecho--even
p2286
F1
sVclear
p2287
F3
sVher's
p2288
F1
sVofficer,
p2289
F1
sVclean
p2290
F1
sVindignation,
p2291
F1
sVlanguid
p2292
F6
sVstunned
p2293
F1
sVfeel,
p2294
F2
sVtree,
p2295
F1
sV'am
p2296
F1
sVwith,
p2297
F2
sVwith.
p2298
F1
sVchaste,
p2299
F1
sVhope
p2300
F9
sVassertion
p2301
F1
sVdarted
p2302
F3
sValms,
p2303
F1
sVmoments
p2304
F4
sVflights
p2305
F4
sVsurveyed
p2306
F2
sVpretty
p2307
F3
sVheaven,
p2308
F4
sVheaven!
p2309
F1
sVtrees
p2310
F1
sVgrew
p2311
F10
sVduring
p2312
F5
sVdomestic
p2313
F1
sVbirds,
p2314
F1
sVaccomplishments,
p2315
F1
sVaccomplishments.
p2316
F1
sVconsenting;"
p2317
F1
sVrevolted.
p2318
F1
sVthrowing
p2319
F1
sVchild_.
p2320
F1
sVformerly;
p2321
F1
sVclose
p2322
F2
sVsymptoms;
p2323
F1
sVprobable
p2324
F1
sVhorrid
p2325
F2
sVdarkly;
p2326
F1
sVto-day,"
p2327
F1
sVprobably
p2328
F1
sVunconscious
p2329
F1
sVxxii.
p2330
F1
sVboth
p2331
F6
sVsecrets
p2332
F2
sVadored
p2333
F2
sVabove,
p2334
F1
sVpicture,
p2335
F1
sVforgotten
p2336
F3
sVseeing,
p2337
F1
sVlive.
p2338
F1
sVlive,
p2339
F1
sVmanners
p2340
F4
sVwhatever
p2341
F3
sVunfolded
p2342
F2
sVvessel
p2343
F6
sVlive;
p2344
F1
sValong
p2345
F3
sVbristol;
p2346
F1
sVstamp
p2347
F1
sVdamp
p2348
F1
sV"riches
p2349
F1
sVassumed,
p2350
F1
sVlived
p2351
F6
sVexempt
p2352
F1
sVelse
p2353
F2
sVmanner.
p2354
F1
sVmanner,
p2355
F5
sVdetermination
p2356
F1
sVdelight,
p2357
F3
sVdelight.
p2358
F1
sVutmost
p2359
F1
sVlook
p2360
F10
sVanimates
p2361
F1
sVwhile
p2362
F22
sVmatch
p2363
F2
sVdelight;
p2364
F1
sVendanger
p2365
F1
sVanimated
p2366
F2
sVexcursions;
p2367
F1
sVstraggling
p2368
F1
sVimproving.
p2369
F1
sVparadox,
p2370
F1
sVclear,
p2371
F1
sVrags.
p2372
F1
sVgrand
p2373
F2
sVconflict
p2374
F1
sVtemporary
p2375
F2
sVstupor.
p2376
F1
sVread,
p2377
F4
sVread.
p2378
F1
sVluke-warm
p2379
F1
sVolder
p2380
F1
sVgrossly
p2381
F1
sVdangerous;
p2382
F1
sVattended,
p2383
F1
sVactive;
p2384
F1
sVexercising
p2385
F1
sVpronouncing
p2386
F1
sVprobability,
p2387
F1
sVwings
p2388
F1
sVsignal
p2389
F1
sVlengthened;
p2390
F1
sVvexations?
p2391
F1
sVsoftness
p2392
F1
sVparade
p2393
F1
sVlast,
p2394
F4
sVlast.
p2395
F1
sVsome
p2396
F61
sVlips
p2397
F1
sVexperienced
p2398
F1
sVbesides,
p2399
F7
sV_gusto_.
p2400
F1
sVlast;
p2401
F1
sVdelivered
p2402
F3
sVprovidence
p2403
F1
sVfather;
p2404
F1
sVrun
p2405
F2
sVworks;
p2406
F1
sVbenefactor
p2407
F1
sVstep
p2408
F1
sVfather,
p2409
F5
sVnerves
p2410
F1
sVfaith
p2411
F1
sVshewing
p2412
F1
sVsilence
p2413
F1
sVseeing
p2414
F4
sVtranquil;
p2415
F1
sVtranquil,
p2416
F1
sVwalks,
p2417
F1
sVhimself
p2418
F3
sVproperly
p2419
F1
sVreigned,
p2420
F1
sVceremonies
p2421
F3
sVprinciples;
p2422
F1
sVaccustomed
p2423
F2
sVsimilar
p2424
F4
sVinsipid,
p2425
F1
sVsmile;
p2426
F1
sVfrance,
p2427
F2
sVthemselves;
p2428
F2
sVsullen
p2429
F1
sVobjection
p2430
F1
sVfears
p2431
F3
sVsmiling,
p2432
F1
sVenquired
p2433
F2
sVthemselves,
p2434
F4
sVpalpitated;
p2435
F1
sVdraw
p2436
F4
sVvisits
p2437
F3
sVrested
p2438
F2
sVsmiled
p2439
F3
sVheroine
p2440
F2
sVrequired
p2441
F3
sVneighbouring
p2442
F1
sVsounded
p2443
F1
sVloving--and
p2444
F1
sVnuns
p2445
F1
sVcheerful
p2446
F3
sVprotector;
p2447
F1
sVgo
p2448
F9
sVeradicates
p2449
F1
sVcomfort,
p2450
F2
sVcomfort.
p2451
F1
sVquickly,
p2452
F1
sVcatastrophe,
p2453
F1
sVshackled
p2454
F1
sVcomfort;
p2455
F3
sVartlessly
p2456
F1
sVfriendly
p2457
F1
sVvirtuous
p2458
F1
sVmore?
p2459
F1
sVprudence
p2460
F1
sVwave
p2461
F3
sVfelicity
p2462
F1
sVmore,
p2463
F1
sVrecollected
p2464
F1
sVcompassionate
p2465
F1
sVwatered
p2466
F1
sVsuit,
p2467
F1
sVregain
p2468
F1
sVxxviii.
p2469
F1
sVwaking
p2470
F2
sVpicked
p2471
F1
sVardent
p2472
F2
sVfishermen,
p2473
F1
sVgenial
p2474
F1
sVclime.
p2475
F1
sVmelancholy
p2476
F2
sVcontinually,
p2477
F1
sVprescribe
p2478
F1
sVbelieved
p2479
F1
sVdisappointed,
p2480
F1
sVhaunts
p2481
F2
sVbenevolence
p2482
F4
sVangel--and
p2483
F1
sVremembered:
p2484
F1
sVplay,
p2485
F2
sVnerves;
p2486
F1
sVforesee
p2487
F1
sVdanger
p2488
F1
sVaddressed
p2489
F3
sVwit
p2490
F1
sVnerves,
p2491
F1
sVsinging
p2492
F3
sVdestined:
p2493
F1
sVservant.
p2494
F1
sVbramble-bush,
p2495
F1
sVcheeks
p2496
F2
sVwith;
p2497
F2
sVstarted
p2498
F3
sVviolent;
p2499
F1
sVcharming
p2500
F1
sV"to
p2501
F1
sVviolent,
p2502
F2
sVreflect,
p2503
F1
sVreflect.
p2504
F1
sVride
p2505
F1
sVservants
p2506
F1
sVmeet
p2507
F2
sVdrops
p2508
F1
sVeternity,
p2509
F3
sV"lord,
p2510
F1
sVescapes
p2511
F1
sVescaped
p2512
F5
sVsought
p2513
F7
sVwonderful
p2514
F3
sVcomprehend:
p2515
F1
sVfavourite,
p2516
F1
sVdigested
p2517
F1
sVdelineating
p2518
F1
sVsentiments
p2519
F10
sVcobwebs
p2520
F1
sVfarm
p2521
F1
sVcourage;
p2522
F1
sVprecautions.
p2523
F1
sVfatigue
p2524
F2
sVcourage,
p2525
F1
sVsentiment,
p2526
F1
sVdespair:
p2527
F1
sVheaven;
p2528
F1
sVdespair,
p2529
F2
sVfavourites
p2530
F1
sVhand,
p2531
F7
sVhand.
p2532
F1
sVmentioned
p2533
F7
sVhand;
p2534
F1
sVpreparation:
p2535
F1
sVshewed
p2536
F3
sVmary's,
p2537
F1
sVmaster,
p2538
F2
sVpure
p2539
F1
sVcard-table.
p2540
F1
sVunequal,
p2541
F1
sVrevealed;
p2542
F1
sVplacid
p2543
F1
sVhands
p2544
F2
sVfront
p2545
F1
sVhills;
p2546
F1
sVxxvii.
p2547
F1
sVmasters
p2548
F1
sVreflecting,
p2549
F1
sVwell?"
p2550
F1
sVslide
p2551
F1
sVmode
p2552
F3
sVdreary,
p2553
F1
sVpursuits
p2554
F2
sVinverted
p2555
F1
sVconstitute
p2556
F1
sVmeasure
p2557
F1
sVtime;
p2558
F1
sVtime,
p2559
F1
sVstrokes
p2560
F1
sVtime.
p2561
F2
sVcause
p2562
F2
sVtutor,
p2563
F1
sVill;
p2564
F2
sVpursuit;
p2565
F1
sVenvy;
p2566
F1
sVdarkly
p2567
F1
sVattending
p2568
F1
sVcompletely
p2569
F1
sVill,
p2570
F1
sVattachment.
p2571
F1
sVattachment,
p2572
F1
sVreceived,
p2573
F1
sVmyself--to
p2574
F1
sVresumed
p2575
F2
sVnastiness,
p2576
F1
sVhostile
p2577
F1
sVdetermining
p2578
F1
sVbliss?
p2579
F1
sVtimes
p2580
F1
sVintoxicated
p2581
F1
sVkeel
p2582
F1
sVinsensible
p2583
F2
sVbliss,
p2584
F1
sVremorse,
p2585
F1
sVremorse.
p2586
F1
sVpitied
p2587
F2
sVmirror,
p2588
F1
sVseasonable
p2589
F2
sVsimilar.
p2590
F1
sVcity.
p2591
F1
sVparadisiacal
p2592
F1
sVspur,
p2593
F1
sVwrapped
p2594
F1
sVpaved
p2595
F1
sVfuturity,
p2596
F1
sVfuturity.
p2597
F1
sVformalities
p2598
F1
sVadmired--had
p2599
F1
sVherself
p2600
F27
sVfuturity;
p2601
F1
sVyawned
p2602
F1
sVbeg
p2603
F1
sVbed
p2604
F4
sVrelation,
p2605
F2
sVbear.
p2606
F1
sVproviding
p2607
F1
sVpleasing,
p2608
F1
sVdistinguished
p2609
F1
sVcomfort!"
p2610
F1
sV_husband_
p2611
F1
sVclod_'
p2612
F1
sVneed
p2613
F2
sVintention;
p2614
F1
sVdisengaged
p2615
F1
sVpursued
p2616
F2
sVable
p2617
F1
sVsettling,
p2618
F1
sVinstance
p2619
F2
sVconsequence,
p2620
F3
sVeagerness,
p2621
F1
sVeagerness.
p2622
F4
sV[footnote
p2623
F2
sVmoments,
p2624
F1
sVcompany,"
p2625
F1
sVconnected
p2626
F1
sVhenry!--the
p2627
F1
sVexpired
p2628
F2
sVgallery
p2629
F1
sVmoments;
p2630
F1
sVmoments:
p2631
F1
sVpursue.
p2632
F2
sVconsequences
p2633
F1
sVpursue;
p2634
F1
sVsing,
p2635
F1
sVgrovelling
p2636
F1
sVemerging
p2637
F1
sVcouldst
p2638
F1
sVdwelling:
p2639
F1
sVearned
p2640
F1
sVdecypher
p2641
F1
sVfuel
p2642
F1
sVemployed
p2643
F2
sVgratify
p2644
F4
sVdoubting
p2645
F1
sVdurst
p2646
F1
sVhad,
p2647
F3
sVtalking,
p2648
F1
sVhouses,
p2649
F1
sVshe
p2650
F649
sVvice--her
p2651
F1
sVtunes
p2652
F3
sVsolicitous
p2653
F1
sV"that
p2654
F2
sVsensuality
p2655
F1
sVprayers
p2656
F2
sVsick--nay,
p2657
F1
sVsituation
p2658
F1
sVmind;
p2659
F7
sVmind:
p2660
F1
sVtend
p2661
F1
sVmind,
p2662
F15
sVstate
p2663
F11
sVmind.
p2664
F9
sVsouthampton,
p2665
F2
sVneither
p2666
F8
sVwavering;
p2667
F1
sVsorely
p2668
F1
sVsolitary
p2669
F5
sVhurrying
p2670
F1
sVmelodious,
p2671
F1
sVspared
p2672
F1
sVfools,
p2673
F1
sVprecious
p2674
F2
sVthank
p2675
F2
sVjoy?
p2676
F1
sVelapsed;
p2677
F1
sVwaiting-maid,
p2678
F1
sVminds
p2679
F3
sVadmit
p2680
F1
sVjoy.
p2681
F1
sVelapsed,
p2682
F1
sVtorn
p2683
F2
sVsense;
p2684
F2
sVhabitual
p2685
F1
sVharmonic
p2686
F1
sVbetrayed
p2687
F1
sVtogether.
p2688
F1
sVtogether,
p2689
F3
sVsense,
p2690
F1
sVquit
p2691
F1
sVreigned--it
p2692
F1
sVtread
p2693
F1
sVown,
p2694
F1
sVown.
p2695
F2
sVthanked
p2696
F1
sVslowly
p2697
F3
sVown?
p2698
F1
sVfortune."
p2699
F1
sVmisfortunes,
p2700
F2
sV"with
p2701
F1
sVthought:
p2702
F1
sV"slow,
p2703
F1
sVinstantly
p2704
F2
sVappearance;
p2705
F2
sVmadness.--yet
p2706
F1
sVexamined
p2707
F1
sVappearance,
p2708
F1
sVrecoil--and
p2709
F1
sVclergyman.
p2710
F1
sVanguish;
p2711
F2
sVbegan
p2712
F20
sVviews
p2713
F1
sVstrange
p2714
F5
sVanguish,
p2715
F4
sVparty
p2716
F3
sVinhabit;
p2717
F1
sVeccentric
p2718
F1
sVeffect
p2719
F4
sVfrequently
p2720
F14
sVscarcely
p2721
F5
sVtransaction
p2722
F1
sVreflection
p2723
F3
sVguarded,
p2724
F1
sVwell
p2725
F10
sVamends
p2726
F1
sVaccident!
p2727
F1
sVpart;
p2728
F1
sVtenderness:
p2729
F1
sVtenderness;
p2730
F1
sVinsinuating
p2731
F1
sVcomforts.
p2732
F1
sVmistaken
p2733
F1
sVmistakes
p2734
F1
sVtenderness.
p2735
F1
sVtenderness,
p2736
F4
sVlately
p2737
F1
sVdost
p2738
F2
sVunperceived,
p2739
F1
sVclouded
p2740
F2
sVwooed
p2741
F1
sVfate
p2742
F4
sVsource.
p2743
F1
sVloss
p2744
F2
sVnecessary
p2745
F8
sVlost
p2746
F9
sVlose
p2747
F3
sVsway,
p2748
F1
sVshed
p2749
F1
sVglare
p2750
F1
sVretirement;
p2751
F1
sVpresents,
p2752
F1
sVmotive
p2753
F1
sVshew
p2754
F1
sVpas_;
p2755
F1
sVwarmer
p2756
F1
sVtrammels
p2757
F1
sVliking
p2758
F1
sVproofs
p2759
F1
sVretirement,
p2760
F1
sVbefore,
p2761
F2
sVbefore.
p2762
F2
sVsolicits
p2763
F1
sVnuns,
p2764
F1
sVpropensities,
p2765
F1
sVshe,
p2766
F6
sVimmortality,
p2767
F1
sVcomplication
p2768
F1
sVpoignant
p2769
F1
sVchoked
p2770
F1
sVties;
p2771
F1
sVmercies,
p2772
F1
sVdominion
p2773
F2
sVtongue
p2774
F2
sVeloquently
p2775
F1
sVties,
p2776
F1
sVdeath!
p2777
F1
sVequally
p2778
F2
sVcontending
p2779
F2
sVarticulate
p2780
F1
sVthere!
p2781
F1
sVtimes,
p2782
F1
sVfighting,
p2783
F1
sVportrayed.
p2784
F1
sVendeavours
p2785
F1
sVadditional
p2786
F2
sVtread.
p2787
F1
sVherself--ann
p2788
F1
sVgain
p2789
F3
sVhighest
p2790
F1
sVhe
p2791
F155
sVweep;
p2792
F1
sVnotice.
p2793
F1
sVnotice,
p2794
F1
sVgrieve
p2795
F2
sVeyes:
p2796
F1
sVnotice;
p2797
F1
sVcarriage
p2798
F3
sVweep,
p2799
F3
sVreason.--assuming,
p2800
F1
sVheiress
p2801
F1
sVeyes.
p2802
F4
sVeyes,
p2803
F5
sVdisplay
p2804
F2
sVfriend.
p2805
F4
sVspeculations.
p2806
F1
sVpersuaded
p2807
F1
sVuniversal
p2808
F1
sVfriend;
p2809
F1
sVspeculations;
p2810
F1
sVrefreshment;
p2811
F1
sVecstatic
p2812
F2
sVstay
p2813
F2
sVfriends
p2814
F1
sVcurbed
p2815
F2
sVfunctions.
p2816
F1
sV"thy
p2817
F1
sVportion
p2818
F2
sVoverleap
p2819
F1
sVrecalled
p2820
F3
sV"the
p2821
F3
sVbetter,
p2822
F1
sVknelt
p2823
F2
sVtrodden
p2824
F1
sVcaptain
p2825
F1
sVskill;
p2826
F1
sVwhose
p2827
F11
sVup,
p2828
F3
sVcommon;
p2829
F1
sVpardon,
p2830
F1
sVsweetest
p2831
F1
sVcontained
p2832
F4
sVup;
p2833
F1
sVvoid
p2834
F2
sVcompassion.
p2835
F1
sVgovern
p2836
F1
sVaffect
p2837
F1
sVvast
p2838
F1
sVstrayed
p2839
F4
sVpainter;
p2840
F1
sVattendants,
p2841
F1
sVbeauty,
p2842
F2
sVforce
p2843
F4
sVme,
p2844
F8
sVme.
p2845
F4
sVme?
p2846
F2
sVme;
p2847
F2
sVme:
p2848
F1
sVeven
p2849
F9
sVne'er
p2850
F1
sVwreck
p2851
F1
sVdesirous
p2852
F1
sVrest.
p2853
F4
sVrest,
p2854
F2
sVnew
p2855
F18
sVever
p2856
F17
sVeves
p2857
F1
sVprobationary
p2858
F1
sVnever
p2859
F24
sVdrew
p2860
F4
sVmet
p2861
F4
sVshowers,
p2862
F1
sVactive
p2863
F3
sVbeloved;
p2864
F2
sVaffections,
p2865
F4
sVcried,
p2866
F4
sVtaper
p2867
F1
sVlight,
p2868
F2
sVcredit
p2869
F1
sVcried;
p2870
F1
sVpermit
p2871
F2
sVprison.
p2872
F1
sVme--could
p2873
F1
sVaway--what
p2874
F1
sVarms
p2875
F2
sVright;
p2876
F1
sVcall
p2877
F5
sVcalm
p2878
F3
sVstories,
p2879
F1
sVdanced
p2880
F2
sVspecific.
p2881
F1
sVwarm
p2882
F1
sVinhabited
p2883
F3
sVguest;
p2884
F1
sVroom
p2885
F5
sVrestrain.
p2886
F1
sVroot
p2887
F2
sVgive
p2888
F12
sVblank;
p2889
F1
sVendured,
p2890
F1
sVinfancy,
p2891
F1
sVconsistent.
p2892
F1
sVstills
p2893
F1
sVofficiously
p2894
F1
sVanswer
p2895
F3
sVreconciled
p2896
F1
sVvicious
p2897
F3
sVfears--it
p2898
F1
sVnone--all
p2899
F1
sVfood;
p2900
F1
sVattempt
p2901
F2
sVthird
p2902
F2
sVstill,
p2903
F2
sVfictitious
p2904
F1
sVoperations
p2905
F3
sVdown;
p2906
F1
sVmary's
p2907
F21
sVghastly
p2908
F1
sVbefore
p2909
F21
sVthen,
p2910
F5
sVcrew
p2911
F3
sVbetter
p2912
F2
sVthen?
p2913
F1
sVweeks
p2914
F1
sVpleasurable
p2915
F1
sVindulge
p2916
F1
sVtribulation.
p2917
F1
sVweek,
p2918
F4
sVdiscomposure
p2919
F1
sVsleepless
p2920
F1
sVdenied;
p2921
F1
sVweek;
p2922
F1
sVleaned
p2923
F2
sVwent
p2924
F18
sVside
p2925
F4
sVapproaching.
p2926
F1
sVlofty
p2927
F1
sVafforded
p2928
F3
sVcalmly
p2929
F2
sVprinciples
p2930
F1
sVtaught
p2931
F6
sVforgot
p2932
F10
sVstupor,
p2933
F1
sVdawn
p2934
F1
sVcontend
p2935
F2
sVunhinged,
p2936
F1
sVtales
p2937
F4
sVimage-the
p2938
F1
sVsparkle
p2939
F1
sVis,
p2940
F2
sVturning
p2941
F3
sVprinciple;
p2942
F1
sVwretchedness.--as
p2943
F1
sVprinciple,
p2944
F1
sVstruggle
p2945
F3
sVstorms!
p2946
F1
sVmistress
p2947
F3
sVbegan.
p2948
F1
sVmessages
p2949
F1
sVmankind,
p2950
F1
sVmoved,
p2951
F1
sVtale,
p2952
F1
sVloud
p2953
F1
sVfeatures
p2954
F1
sVcomforted
p2955
F2
sVwell-looking
p2956
F1
sVvillage,
p2957
F1
sVenumerate
p2958
F1
sVinvalid.
p2959
F1
sVinvalid,
p2960
F1
sVdwelt
p2961
F3
sVwants,
p2962
F1
sVtwisted
p2963
F1
sVwitnessing
p2964
F1
sVdwell
p2965
F1
sVvillages
p2966
F1
sVfloor,
p2967
F2
sVexigency,
p2968
F1
sVlustre;
p2969
F1
sVexecution.
p2970
F1
sVfiction,
p2971
F3
sVpeculiar
p2972
F2
sVdistance
p2973
F1
sVanxiety
p2974
F2
sVgirl;
p2975
F1
sVbody,
p2976
F2
sVbody.
p2977
F1
sVcreatures!
p2978
F2
sVenabled
p2979
F7
sVpreparation
p2980
F1
sVmatter
p2981
F3
sVgirl,
p2982
F4
sVxxxi.
p2983
F1
sVenables
p2984
F2
sVravished
p2985
F1
sVmind
p2986
F29
sVseen
p2987
F4
sVseem
p2988
F1
sVseek
p2989
F2
sVdo,
p2990
F2
sVpoint,
p2991
F1
sVbreathe,
p2992
F1
sVrevolted--and
p2993
F1
sVwarwick,
p2994
F1
sVdo?
p2995
F1
sVsalubrious
p2996
F1
sVwater-side,
p2997
F1
sVsee.
p2998
F1
sVinconsistency
p2999
F1
sVassisting
p3000
F1
sVobservation
p3001
F1
sVeliza,
p3002
F1
sVmedical
p3003
F2
sVdog
p3004
F1
sVvulgarity,
p3005
F1
sVpoints
p3006
F4
sVprinciple
p3007
F1
sVbreathed
p3008
F2
sVstrong,
p3009
F3
sVdiscontent
p3010
F1
sVmary--and
p3011
F1
sVrapture
p3012
F1
sVdeliberated,
p3013
F1
sVattempts
p3014
F1
sVsown
p3015
F1
sVexplain
p3016
F2
sVabode;
p3017
F1
sV"shaken
p3018
F1
sVremained,
p3019
F2
sVstop
p3020
F5
sVperceive
p3021
F1
sVdelirious.
p3022
F1
sVcoast
p3023
F1
sVearn
p3024
F1
sVfields
p3025
F1
sVbad
p3026
F1
sVabodes
p3027
F1
sVjudge,
p3028
F1
sVarms--a
p3029
F1
sVsailors,
p3030
F3
sValterations
p3031
F1
sVvow,
p3032
F4
sVtempestuous,
p3033
F1
sVsubject
p3034
F3
sVvoyage
p3035
F2
sVleast,"
p3036
F1
sVsaid
p3037
F18
sVsail
p3038
F3
sVcondemns;
p3039
F1
sVside;--an
p3040
F1
sVweary
p3041
F1
sVcousin
p3042
F1
sVstifle,
p3043
F1
sVagainst
p3044
F6
sVself-denial,
p3045
F1
sVappeared
p3046
F10
sVloaded
p3047
F1
sVproceeded
p3048
F1
sVdislodged.
p3049
F1
sVceiling,
p3050
F1
sVthree
p3051
F6
sVinterest
p3052
F5
sVentered
p3053
F11
sVlovely
p3054
F1
sVtopics
p3055
F1
sVthrew
p3056
F4
sVspring,
p3057
F2
sVsuppress
p3058
F1
sVsuccour.
p3059
F1
sVsunshine
p3060
F1
sVspring;
p3061
F1
sVregretted
p3062
F1
sVexception
p3063
F1
sVparticular,
p3064
F1
sVugly
p3065
F1
sVnear
p3066
F17
sVmelted
p3067
F1
sVanchor
p3068
F1
sVchilling
p3069
F1
sVburied
p3070
F1
sVover.
p3071
F1
sVover,
p3072
F2
sVmeet;
p3073
F1
sVis
p3074
F88
sVthought!
p3075
F1
sVit
p3076
F143
sVover;
p3077
F2
sVthought;
p3078
F2
sVin
p3079
F332
sVsacrament;
p3080
F1
sVmeet,
p3081
F1
sVif
p3082
F41
sVgrown
p3083
F1
sVlords.
p3084
F1
sVmake
p3085
F15
sVpractice.
p3086
F1
sVunfortunate
p3087
F2
sVcoach,
p3088
F1
sVgrows
p3089
F1
sVvibrated
p3090
F1
sVsoil;
p3091
F1
sVopportunity
p3092
F2
sVthoughts
p3093
F12
sVpracticed
p3094
F2
sVheroism;
p3095
F1
sVinherit
p3096
F1
sVapprobation
p3097
F1
sVqualities
p3098
F2
sVcool,
p3099
F1
sVbottle,
p3100
F1
sVside,
p3101
F2
sVleft
p3102
F25
sVsailor;
p3103
F1
sVdream,
p3104
F1
sVfeet;
p3105
F1
sVconsciousness
p3106
F1
sVsentence
p3107
F1
sVsporting
p3108
F1
sVdoubts;
p3109
F1
sVassigned
p3110
F1
sVhuman
p3111
F12
sV"could
p3112
F1
sVyet
p3113
F24
sVinfinitely
p3114
F2
sVcharacter
p3115
F3
sVsave
p3116
F2
sVboasted
p3117
F1
sVinvoluntary
p3118
F1
sVallude,
p3119
F1
sVye?
p3120
F1
sVdreamt
p3121
F1
sVdreams
p3122
F1
sVvanity
p3123
F1
sVdignity
p3124
F2
sVperforming
p3125
F1
sVthoughtful,
p3126
F1
sVwatry
p3127
F1
sVsatisfaction.
p3128
F1
sVdead
p3129
F2
sVdear
p3130
F9
sVisland.
p3131
F1
sVstations,
p3132
F1
sVconcerts.
p3133
F1
sVknew
p3134
F17
sVpresentiment
p3135
F1
sVflourished
p3136
F1
sVconceal
p3137
F2
sVbutler's
p3138
F1
sVnerve
p3139
F1
sVfor.
p3140
F3
sVformerly
p3141
F1
sVfor,
p3142
F4
sVlow,
p3143
F2
sVrefines
p3144
F1
sVintellectual
p3145
F2
sVworld's
p3146
F1
sVdown
p3147
F17
sVeducation.
p3148
F1
sVdoctrine
p3149
F1
sVcascades
p3150
F1
sVrefined
p3151
F1
sVlow:
p3152
F1
sVdamp.
p3153
F1
sVmidnight.--then
p3154
F1
sVbounds.
p3155
F1
sVmidnight,
p3156
F1
sVmidnight.
p3157
F1
sVbound.
p3158
F1
sVprevent.
p3159
F1
sVperish;
p3160
F1
sVbounds;
p3161
F2
sVform
p3162
F5
sVwhat;
p3163
F1
sVdiffident;
p3164
F1
sVlie;
p3165
F1
sVattached
p3166
F2
sVbounds
p3167
F1
sVtemper
p3168
F1
sVextremes;
p3169
F1
sVclassic
p3170
F1
sVfool,)
p3171
F1
sVconsist_,
p3172
F1
sVdie.
p3173
F2
sVann--while
p3174
F1
sVfloating
p3175
F1
sVfraternal
p3176
F1
sVmistaken;
p3177
F1
sVmarking
p3178
F1
sVauthoritative
p3179
F1
sVgenerally
p3180
F4
sVtardy
p3181
F1
sVtolerable."
p3182
F1
sVesteem?
p3183
F1
sVself-complacency
p3184
F1
sVwidow,
p3185
F1
sVesteem;
p3186
F1
sVfelt
p3187
F17
sVpathetic,
p3188
F1
sVfell
p3189
F7
sVencountered--and
p3190
F1
sVaware
p3191
F2
sVdied
p3192
F6
sVgrief
p3193
F6
sVhappening
p3194
F1
sVapology
p3195
F2
sVmountains;
p3196
F1
sVblushing
p3197
F1
sVstate-room--she
p3198
F1
sVdaily
p3199
F2
sVmountains,
p3200
F1
sVcustomary
p3201
F1
sVrelieve
p3202
F3
sVeldest
p3203
F3
sVcontinued.
p3204
F1
sVdepend
p3205
F1
sVdisorders
p3206
F1
sVfather
p3207
F12
sVanswered
p3208
F1
sVwomen;
p3209
F1
sVforth,
p3210
F1
sVstring
p3211
F1
sVcourse--try
p3212
F1
sVstrangers,
p3213
F1
sVdistant
p3214
F4
sVsoul.
p3215
F4
sVcommon-place
p3216
F2
sVsoul,
p3217
F5
sVadvised
p3218
F1
sVpious
p3219
F1
sVbanished
p3220
F3
sVdid
p3221
F71
sVdie
p3222
F5
sVdisorder;
p3223
F1
sVexcellence
p3224
F1
sVpraise,
p3225
F1
sVround
p3226
F4
sVtalked
p3227
F8
sVcuriosity;
p3228
F1
sVwherefore
p3229
F1
sVappetite,
p3230
F1
sVeating
p3231
F1
sVelse;
p3232
F1
sVaccount--mary
p3233
F1
sVromish
p3234
F2
sVsuspect
p3235
F1
sVevaporated.
p3236
F1
sVloiter.
p3237
F1
sVfilled
p3238
F6
sVsorrow--afford
p3239
F1
sVguardian
p3240
F1
sVclerk
p3241
F1
sVappetites
p3242
F1
sVavailed
p3243
F1
sVfrench
p3244
F2
sV"would
p3245
F1
sVimplanted
p3246
F1
sVwait
p3247
F1
sVboy
p3248
F1
sVbruises
p3249
F1
sVintelligence,
p3250
F2
sVunpleasing
p3251
F1
sVhere!
p3252
F1
sVadd,
p3253
F1
sVbruised
p3254
F1
sVmothers,
p3255
F1
sVsported
p3256
F1
sVsuffered;
p3257
F1
sVvisit
p3258
F13
sVfrance
p3259
F1
sVappalled.
p3260
F1
sVhotel,
p3261
F1
sVlabyrinth
p3262
F1
sVrigid
p3263
F1
sVlow-spirited
p3264
F1
sVeffort
p3265
F1
sVfly
p3266
F4
sVavoiding
p3267
F1
sVdisplayed.
p3268
F1
sVsoul
p3269
F22
sVanalogy,
p3270
F1
sVgrowing
p3271
F1
sVmaking
p3272
F2
sVarrive
p3273
F1
sVreflector
p3274
F1
sVreasonings,
p3275
F1
sVconfused
p3276
F1
sVagent
p3277
F1
sVstroke.
p3278
F1
sVrays
p3279
F1
sVlifeless
p3280
F1
sVtill
p3281
F14
sVann,
p3282
F9
sVmother,--her
p3283
F1
sVplanted,
p3284
F1
sVstaying
p3285
F1
sVmay
p3286
F19
sVrhapsodies
p3287
F1
sVmankind
p3288
F2
sVdestructive
p3289
F1
sVgrow
p3290
F3
sVman
p3291
F16
sVjohnson
p3292
F1
sVapprehensions;
p3293
F2
sVtale
p3294
F1
sVinhabitants
p3295
F1
sVtears.--alas!
p3296
F1
sVtall
p3297
F1
sVapprehensions.
p3298
F1
sVtalk
p3299
F1
sVshield
p3300
F2
sVpointed
p3301
F2
sVmoralist
p3302
F1
sVwishing
p3303
F2
sVview;
p3304
F1
sVimpulse,
p3305
F1
sVsouthampton.
p3306
F1
sVirresolute
p3307
F1
sVdie-away
p3308
F2
sVinteresting
p3309
F2
sVundermined
p3310
F2
sVmaid
p3311
F2
sVadjacent
p3312
F1
sVcaptivated
p3313
F1
sVimpulses
p3314
F2
sVrattled
p3315
F1
sVsooner
p3316
F1
sVhung,
p3317
F1
sVpossess
p3318
F1
sVfeverish
p3319
F3
sVobviated
p3320
F1
sVrock
p3321
F2
sVhappiness,--what
p3322
F1
sVinvoluntary--yet
p3323
F1
sVdetermined,
p3324
F2
sVgirl
p3325
F3
sVliving
p3326
F3
sVyes,
p3327
F2
sVxiii.
p3328
F1
sVportraits;
p3329
F1
sVstupid
p3330
F1
sVdetermined."
p3331
F1
sVlanguage
p3332
F1
sVadvances--there
p3333
F1
sVthing
p3334
F19
sVvirtues.
p3335
F1
sVaffluence,
p3336
F1
sVvirtues,
p3337
F1
sVthink
p3338
F12
sVwaited
p3339
F4
sVfirst
p3340
F26
sVdwelling
p3341
F3
sVquestion
p3342
F2
sVbut,
p3343
F2
sVgratifications.
p3344
F1
sVsuspended
p3345
F1
sVcarry
p3346
F3
sVsounds
p3347
F2
sVaffections.--but
p3348
F1
sVeye,
p3349
F4
sVeye.
p3350
F2
sVlittle
p3351
F39
sVthoughtless
p3352
F1
sVslept
p3353
F3
sVspeaking
p3354
F1
sVeyes
p3355
F16
sVsound,
p3356
F1
sVsound.
p3357
F1
sV"there
p3358
F2
sV"talk
p3359
F1
sVsailing
p3360
F1
sVrecover;
p3361
F1
sVwere
p3362
F130
sVcomplaint,
p3363
F1
sVgratitude;
p3364
F1
sVoccupied
p3365
F3
sVgratitude,
p3366
F2
sVboat;
p3367
F2
sVnovels,
p3368
F1
sVnovels.
p3369
F1
sVwretch
p3370
F2
sVfill,
p3371
F1
sVgreen
p3372
F1
sVfill.
p3373
F1
sVpain
p3374
F2
sVtrace
p3375
F1
sVvoice;
p3376
F1
sVarguing
p3377
F1
sVenter
p3378
F4
sVpaid
p3379
F1
sVvoice,
p3380
F4
sVme--ill-fated
p3381
F1
sVvoice.
p3382
F2
sVcomplaints
p3383
F2
sVconspicuous
p3384
F1
sVfills
p3385
F1
sValone;
p3386
F2
sVwouldst
p3387
F1
sValone,
p3388
F4
sVshop
p3389
F1
sVcorner
p3390
F2
sVtreasure
p3391
F1
sVenough
p3392
F2
sVblack
p3393
F2
sVenthusiasm
p3394
F1
sVa[a]
p3395
F1
sVget
p3396
F2
sVdrawing,
p3397
F1
sVhailed
p3398
F4
sVnearly
p3399
F1
sVdistinctly
p3400
F1
sVdrop'd,
p3401
F1
sVmorning
p3402
F5
sVstorm.
p3403
F1
sVstorm,
p3404
F1
sVruddy
p3405
F1
sVfinishing
p3406
F1
sVsilently
p3407
F1
sVwhispered
p3408
F2
sVdeclared
p3409
F1
sVrelative
p3410
F1
sVj.
p3411
F1
sVseal
p3412
F1
sVwonder
p3413
F3
sVunobserved,
p3414
F1
sVher--words
p3415
F1
sVfather's
p3416
F6
sVbehind
p3417
F2
sVreading
p3418
F1
sVacross
p3419
F5
sVsea;
p3420
F2
sVparent
p3421
F2
sVcountenance
p3422
F4
sVsea.
p3423
F3
sVsea,
p3424
F3
sVcreate?"
p3425
F1
sVaccording
p3426
F2
sVdisappointment
p3427
F1
sVdelirium
p3428
F2
sVconsidering
p3429
F1
sVsensible
p3430
F5
sVroom.--the
p3431
F1
sVcapable
p3432
F2
sVoeconomy,
p3433
F1
sVborders
p3434
F1
sVmary
p3435
F94
sVeducated
p3436
F3
sValone!"
p3437
F1
sVoffered
p3438
F3
sVwake
p3439
F1
sV_conversing_
p3440
F1
sVthose
p3441
F24
sVbreakfast,
p3442
F1
sVsound
p3443
F3
sVemployment;
p3444
F1
sVart.
p3445
F1
sVendowed
p3446
F2
sVsleeping
p3447
F1
sVpressing
p3448
F1
sVmovements
p3449
F3
sVdifferent
p3450
F7
sVpay
p3451
F2
sVtorments;
p3452
F1
sVsame
p3453
F17
sVenquiries
p3454
F2
sVarguments
p3455
F1
sVstruggling
p3456
F1
sVinchanted
p3457
F1
sVunperceived
p3458
F1
sVbeen;
p3459
F1
sVbath,
p3460
F1
sVvegetating.
p3461
F1
sVcompanion
p3462
F2
sVrunning
p3463
F1
sVbeen,
p3464
F1
sVforgot.
p3465
F1
sVwaves,
p3466
F2
sVyoung.
p3467
F1
sVacquaintance,
p3468
F1
sVstunted
p3469
F1
sVacquaintance;
p3470
F2
sVpeace
p3471
F1
sVmoney
p3472
F2
sVasleep:
p3473
F1
sVbaptismal
p3474
F1
sVasleep,
p3475
F2
sVsensibility;
p3476
F1
sVsensibility.
p3477
F2
sVextensive
p3478
F1
sVconsented,
p3479
F1
sVcurtains,
p3480
F1
sVconsented.
p3481
F1
sVwife,
p3482
F1
sVsight;
p3483
F3
sVher.--whenever
p3484
F1
sVfound:
p3485
F1
sVadmitting
p3486
F1
sVthine,"
p3487
F1
sVdisappointed
p3488
F1
sVacquainted
p3489
F2
sVserves
p3490
F1
sVdiligent,
p3491
F1
sVeither
p3492
F4
sVsqualls
p3493
F1
sVserved
p3494
F1
sVlost--long-loved
p3495
F1
sVfulfil
p3496
F2
sVimages
p3497
F3
sVdiscontented.
p3498
F1
sVlondon,
p3499
F3
sVgross
p3500
F4
sVmind.".
p3501
F1
sVfriend--she
p3502
F1
sVcritical
p3503
F2
sVstation,
p3504
F1
sVrivetted
p3505
F1
sVimage,
p3506
F1
sVfitness
p3507
F1
sVunusual
p3508
F2
sVbroken
p3509
F5
sVdress.
p3510
F1
sVdesigned?
p3511
F1
sVunderstanding,
p3512
F2
sVunderstanding.
p3513
F1
sVviolence
p3514
F2
sVunderstanding;
p3515
F3
sVmixed
p3516
F4
sVout,
p3517
F3
sVout.
p3518
F3
sVspreading
p3519
F1
sVmorning;
p3520
F1
sVactuate
p3521
F1
sVfierceness--i
p3522
F1
sVlodging,
p3523
F1
sVblesses
p3524
F1
sVmorning,
p3525
F4
sVeyes;--or
p3526
F1
sVchat,
p3527
F1
sVendure.
p3528
F1
sVrestrained
p3529
F3
sVmornings
p3530
F1
sVunsettled
p3531
F1
sVstrikes
p3532
F1
sVland,
p3533
F1
sVwild,
p3534
F1
sVland.
p3535
F1
sVromantic
p3536
F2
sVlion.
p3537
F1
sVfine;
p3538
F1
sVfate,
p3539
F1
sVbrother's
p3540
F1
sVfate;
p3541
F1
sVfaces,
p3542
F1
sVaffection
p3543
F10
sVdeep
p3544
F3
sVgeneral
p3545
F3
sVimagination
p3546
F5
sVexamine
p3547
F1
sVgrasped
p3548
F1
sVdeliverer,
p3549
F1
sVfilm
p3550
F1
sVfill
p3551
F2
sVtedious
p3552
F1
sVagain
p3553
F15
sVwet;
p3554
F1
sVsick;
p3555
F1
sVfield
p3556
F1
sVunaccustomed
p3557
F1
sVsick.
p3558
F1
sVsick,
p3559
F2
sVshelter
p3560
F2
sVplanet,
p3561
F1
sVimportant
p3562
F3
sVitself.
p3563
F1
sVrapid.
p3564
F1
sVresembled
p3565
F1
sVremote
p3566
F3
sVher's."
p3567
F1
sVresembles
p3568
F1
sVresolution
p3569
F3
sVsilent.
p3570
F2
sVforget
p3571
F9
sValarming,
p3572
F1
sVfounded
p3573
F1
sVsunk
p3574
F3
sVarguments,
p3575
F1
sVsilent;
p3576
F1
sVprevailed;
p3577
F1
sVexpressions
p3578
F2
sVsung
p3579
F4
sVshattered
p3580
F1
sVadored--again--and
p3581
F1
sVmother:
p3582
F1
sVmother;
p3583
F4
sVmother,
p3584
F12
sVmother.
p3585
F1
sVexpression,
p3586
F1
sVsitting
p3587
F5
sVobjection."
p3588
F1
sV"every
p3589
F1
sVbosom,
p3590
F1
sVsun.
p3591
F1
sVsun,
p3592
F3
sVfall
p3593
F2
sVbenevolent
p3594
F2
sVdamped
p3595
F1
sValong,
p3596
F1
sVfurther
p3597
F1
sVcreatures
p3598
F2
sVresignation--yet
p3599
F1
sVruminate
p3600
F1
sVstood
p3601
F3
sVbarrier
p3602
F1
sVshort-lived
p3603
F1
sVsofa,
p3604
F1
sVfeelings--but
p3605
F1
sVpublic
p3606
F1
sVcreature,
p3607
F2
sVcreature.
p3608
F2
sVvale
p3609
F1
sVcreature;
p3610
F2
sVsearch
p3611
F1
sVexhausted.
p3612
F1
sVgleams
p3613
F1
sVexhausted;
p3614
F1
sVrest--because
p3615
F1
sVmisery
p3616
F4
sVnarrow
p3617
F1
sVbright.
p3618
F1
sVbright,
p3619
F1
sVlight."
p3620
F1
sVarmed
p3621
F1
sVreadily
p3622
F1
sV"have
p3623
F1
sVmisery?
p3624
F1
sVtwo
p3625
F13
sVquickness,
p3626
F1
sVmisery;
p3627
F1
sVcultivation
p3628
F1
sVtrivial,
p3629
F1
sVmisery,
p3630
F1
sVmisery.
p3631
F5
sVformality
p3632
F2
sVsuffused
p3633
F1
sVcontrary,
p3634
F4
sVlanded
p3635
F1
sV"indeed,
p3636
F1
sVparticular
p3637
F8
sVgravity,
p3638
F1
sVunnumbered
p3639
F1
sVnone
p3640
F3
sVhour
p3641
F2
sVdes
p3642
F1
sVintercepted
p3643
F1
sVdew
p3644
F1
sVrestraint:
p3645
F1
sVremain
p3646
F3
sVnothing.
p3647
F2
sVtroubled,
p3648
F1
sVhours;
p3649
F2
sVof."
p3650
F1
sVchimera
p3651
F1
sVhours,
p3652
F3
sVcharm.
p3653
F1
sVreed--no--i
p3654
F1
sVawkward
p3655
F3
sVcomfort
p3656
F13
sVlabored
p3657
F1
sVadopted.
p3658
F1
sVsteps,
p3659
F1
sVunclothed
p3660
F1
sVcharms
p3661
F1
sVadvice
p3662
F1
sVgenius.
p3663
F2
sVgenius,
p3664
F5
sVpainful,
p3665
F1
sVblood
p3666
F4
sVaccorded
p3667
F2
sVmore;
p3668
F3
sVbleak
p3669
F1
sVimproved.
p3670
F2
sVcrowded
p3671
F1
sVpleasure
p3672
F5
sVplaying
p3673
F1
sVdissipation;
p3674
F1
sVtelling
p3675
F1
sVthrough
p3676
F16
sVtooth.
p3677
F1
sVdissipation,
p3678
F1
sVsuffer
p3679
F2
sVport,
p3680
F1
sVthrilling
p3681
F1
sV"impossible,"
p3682
F1
sVemaciated
p3683
F2
sVheroine.
p3684
F1
sVheroine,
p3685
F2
sVcharity,
p3686
F1
sVbosom
p3687
F3
sVlate
p3688
F4
sVgood
p3689
F9
sVthinking,
p3690
F2
sVmasters.
p3691
F1
sVcomplain
p3692
F1
sVassociation
p3693
F1
sVeasily
p3694
F5
sVhabits
p3695
F1
sValso,
p3696
F1
sVboisterous
p3697
F1
sVpossession,
p3698
F1
sVchild--my
p3699
F1
sVwatched,
p3700
F1
sVmental
p3701
F2
sVhouse
p3702
F12
sVenergy
p3703
F1
sVhard
p3704
F2
sVidea
p3705
F2
sVorient
p3706
F1
sVlovers
p3707
F1
sVchildish
p3708
F2
sVthroes
p3709
F1
sVflowed
p3710
F2
sVconfidants.
p3711
F1
sVfortitude
p3712
F2
sVascend."
p3713
F1
sVassist
p3714
F1
sVcircumstance
p3715
F1
sVobtain,
p3716
F1
sVdifficulty
p3717
F1
sVdisposition
p3718
F2
sVbenefits
p3719
F1
sVconducted
p3720
F1
sVsprings.
p3721
F1
sVindebted
p3722
F1
sVdisregarded
p3723
F2
sVjuncture
p3724
F1
sVinstances
p3725
F4
sVdone
p3726
F2
sVfiction
p3727
F1
sVstriveth
p3728
F1
sVsenses.
p3729
F1
sVtwenty
p3730
F1
sVfamily,
p3731
F9
sVleast
p3732
F4
sVsenses:
p3733
F1
sVsenses;
p3734
F1
sVpains
p3735
F2
sVfamily;
p3736
F1
sVsmoothed
p3737
F1
sVneglect,
p3738
F1
sVworships.
p3739
F1
sVpart
p3740
F13
sVbelieve
p3741
F1
sVcompliments
p3742
F1
sVpain,
p3743
F1
sVyouth
p3744
F2
sVcontrary
p3745
F3
sVsupposed
p3746
F2
sVtreated
p3747
F4
sVpain;
p3748
F1
sVinhabitants.
p3749
F1
sVshowers
p3750
F1
sV"dear
p3751
F1
sVorders
p3752
F1
sVinhabitants:
p3753
F1
sVbuilt
p3754
F1
sVreflection.
p3755
F1
sVfootnotes:
p3756
F1
sVreflection,
p3757
F1
sVbuild
p3758
F1
sVreflection;
p3759
F1
sVmost
p3760
F35
sVage,
p3761
F1
sVcharm
p3762
F1
sVdiamonds,
p3763
F1
sVgrief,"
p3764
F1
sVdiverted,
p3765
F1
sVnecessities.
p3766
F1
sVpath;
p3767
F1
sVfancy--this
p3768
F1
sVday--he
p3769
F1
sVreflections
p3770
F2
sVpath.
p3771
F1
sVpath,
p3772
F1
sVparticularly
p3773
F9
sVsensualist,
p3774
F1
sVscattered
p3775
F2
sVcarefully
p3776
F1
sVfine
p3777
F5
sVfind
p3778
F11
sVdepended
p3779
F1
sVunhappy
p3780
F3
sVcough,
p3781
F2
sVprognostics:
p3782
F1
sVpermission
p3783
F1
sVexpress
p3784
F3
sVcreating--or
p3785
F1
sVcommon
p3786
F2
sVfreedom;
p3787
F1
sVthee.--"
p3788
F1
sVtended
p3789
F1
sVirregularly
p3790
F1
sVindividual
p3791
F2
sVlisbon
p3792
F3
sVtender
p3793
F9
sVfeared
p3794
F6
sVenveloped
p3795
F1
sVdesires
p3796
F1
sVvisiting
p3797
F2
sVcaprices
p3798
F1
sVsolely
p3799
F1
sVforeign
p3800
F2
sVfather!--she
p3801
F1
sVpoint
p3802
F2
sVsimple
p3803
F1
sVaid.
p3804
F1
sVformed;
p3805
F1
sVpatiently
p3806
F1
sVlanguish,
p3807
F1
sVraise
p3808
F2
sVl'exercice
p3809
F1
sVdevouring
p3810
F1
sVmeeting
p3811
F1
sVrecovered,
p3812
F3
sVgay
p3813
F3
sVwell-bred,
p3814
F1
sVchatted
p3815
F1
sVdance,
p3816
F1
sVunderstand
p3817
F1
sVrecovered:
p3818
F1
sVunnecessarily
p3819
F1
sVpierce
p3820
F1
sVsolid
p3821
F3
sVunkindness;
p3822
F1
sVwept,
p3823
F2
sVshades
p3824
F3
sVnot--thy
p3825
F1
sVhusband,
p3826
F4
sVitself
p3827
F8
sVhusband;
p3828
F3
sVcitadel;
p3829
F1
sVgood-natured,
p3830
F1
sVitaly
p3831
F1
sVappetites,
p3832
F1
sVsportiveness
p3833
F1
sVcopying
p3834
F1
sVmoment
p3835
F3
sVpurpose
p3836
F1
sVtimid
p3837
F1
sVdark
p3838
F1
sVtask
p3839
F1
sVforfeited
p3840
F1
sVspent
p3841
F3
sVspend
p3842
F3
sValluring
p3843
F1
sVmatter,
p3844
F1
sVshape
p3845
F1
sVdiscipline
p3846
F1
sVsuperficial
p3847
F1
sVhated
p3848
F1
sVsource
p3849
F2
sVbig
p3850
F3
sVbid
p3851
F2
sVmasculine;
p3852
F1
sVmatters
p3853
F1
sVexpressions,
p3854
F1
sVdestruction.
p3855
F1
sVthought-the
p3856
F1
sVfoolish
p3857
F1
sVvirtue;
p3858
F2
sVabsolutely
p3859
F2
sVobliged
p3860
F11
sVmagnificent
p3861
F2
sVback
p3862
F1
sVvirtue.
p3863
F1
sVstrongest
p3864
F1
sVaccelerate
p3865
F1
sVtenant.
p3866
F1
sVscald
p3867
F1
sVscale
p3868
F1
sV"though
p3869
F1
sVpenance,
p3870
F1
sVgood;
p3871
F1
sVgood?
p3872
F1
sVpen
p3873
F1
sVgood,
p3874
F1
sVgood.
p3875
F1
sVwayward
p3876
F1
sVvirtues
p3877
F4
sVtenants
p3878
F1
sVboy!
p3879
F1
sVhope.
p3880
F1
sVhope,
p3881
F2
sVframed
p3882
F1
sVhope;
p3883
F1
sVremembrance
p3884
F2
sVdevotional
p3885
F1
sVsorrows,
p3886
F1
sVblotted,
p3887
F1
sVsorrows;
p3888
F1
sVforward
p3889
F4
sVoriginal,
p3890
F1
sVrelapse,
p3891
F1
sVframe.
p3892
F1
sVhoped
p3893
F1
sVconvents,
p3894
F1
sVagreeable
p3895
F3
sVhopes
p3896
F1
sVhis--said
p3897
F1
sVdirected
p3898
F2
sVoriginals
p3899
F1
sVlover's
p3900
F1
sVplanet
p3901
F1
sVhopes,
p3902
F1
sVwell-known
p3903
F1
sVhopes.
p3904
F1
sVconstant
p3905
F2
sVdispensations
p3906
F1
sVprevail
p3907
F2
sVessayed
p3908
F1
sVagreeable;
p3909
F1
sVvehicle,
p3910
F1
sVugly,
p3911
F1
sVcalmness
p3912
F1
sVorders,
p3913
F1
sVsucceeded;
p3914
F2
sVjohnson,
p3915
F1
sVfavourite
p3916
F1
sVimpress
p3917
F1
sVprepared
p3918
F1
sVlively.
p3919
F1
sVveriest
p3920
F1
sVdesert
p3921
F2
sVsubject;
p3922
F2
sVdismasted,
p3923
F1
sVconversations;
p3924
F2
sVplease--one
p3925
F1
sVhappy,
p3926
F1
sVhappy.
p3927
F2
sVrestraining
p3928
F1
sVhappy:
p3929
F1
sVhappy;
p3930
F3
sVhappy?
p3931
F1
sVsoul."
p3932
F1
sVcompose
p3933
F1
sVrudder
p3934
F1
sVgraven
p3935
F1
sVundirected
p3936
F1
sVwretchedly;
p3937
F1
sVmind,--her
p3938
F1
sVputting
p3939
F2
sVarrange
p3940
F2
sVchap.
p3941
F31
sVgrave;
p3942
F2
sVuncontrouled;
p3943
F1
sVgrave.
p3944
F3
sVbeast?
p3945
F1
sVother,
p3946
F3
sVother.
p3947
F1
sVobject,
p3948
F3
sVobject.
p3949
F1
sVupper-garment,
p3950
F1
sV_possibilities_--in
p3951
F1
sVtransplanted
p3952
F1
sVgiving
p3953
F4
sVassisted
p3954
F1
sVexercise
p3955
F4
sVbody
p3956
F8
sVexchange
p3957
F1
sVcontaminated;
p3958
F1
sVriver.
p3959
F2
sVobjects
p3960
F3
sVhealing
p3961
F1
sVothers
p3962
F6
sVdissuade
p3963
F1
sVsing
p3964
F2
sVpainfully
p3965
F1
sVcomforted?
p3966
F1
sVepisodes,
p3967
F1
sVharvest.
p3968
F1
sVadded,
p3969
F5
sVcomposed
p3970
F3
sVprivate
p3971
F2
sVextravagance
p3972
F2
sVii.
p3973
F1
sVthemselves
p3974
F3
sVinclination,
p3975
F1
sVname.
p3976
F1
sVkindness--god
p3977
F1
sVtrain
p3978
F3
sVashamed
p3979
F1
sVtattered
p3980
F1
sVaccount
p3981
F15
sVphrensy,
p3982
F1
sVobvious
p3983
F3
sVpraise
p3984
F2
sVsomething
p3985
F7
sVreanimated
p3986
F1
sVimmoderate
p3987
F1
sVrenewed
p3988
F1
sVwater,
p3989
F1
sVcontempt
p3990
F2
sVnative
p3991
F4
sVvaried
p3992
F1
sVawkwardness
p3993
F1
sVregions
p3994
F1
sVpleasing
p3995
F2
sVme--call
p3996
F1
sVcomplexions.
p3997
F1
sVadopt?"
p3998
F1
sVmeditated
p3999
F1
sVstock
p4000
F2
sVbuildings
p4001
F1
sVannexed
p4002
F1
sVexclaim,
p4003
F1
sVreserve.
p4004
F1
sVreligion,
p4005
F1
sVphysic
p4006
F1
sVtrifling
p4007
F1
sVfolly,
p4008
F2
sVbind
p4009
F4
sVlines
p4010
F1
sVtrembling
p4011
F5
sVhold,
p4012
F1
sVroad
p4013
F2
sVhackney-coach,
p4014
F1
sVdinner,
p4015
F2
sVsolitude;
p4016
F1
sVextemporary
p4017
F1
sVshreds
p4018
F1
sVpang,
p4019
F1
sVle
p4020
F1
sVwilling
p4021
F1
sVstopped,
p4022
F1
sVgreater
p4023
F1
sVbolder
p4024
F1
sVthe[b]
p4025
F1
sVmention
p4026
F3
sVanalyzed.
p4027
F1
sVkindness
p4028
F2
sVday
p4029
F19
sVforgotten.
p4030
F1
sVarrives,
p4031
F1
sVpreclude
p4032
F1
sVblazing
p4033
F1
sVslipping
p4034
F1
sVfather!"
p4035
F1
sVuninteresting
p4036
F1
sVlively
p4037
F2
sVsuccession,
p4038
F1
sVher--she
p4039
F1
sVprospects--turned
p4040
F1
sVwit.
p4041
F1
sVhedges
p4042
F1
sVsupportable.
p4043
F1
sVmate
p4044
F1
sVmessenger
p4045
F1
sVfondly
p4046
F1
sVprogress,
p4047
F1
sVview--she
p4048
F1
sVdecorations,
p4049
F1
sVlikelihood
p4050
F1
sVbleed
p4051
F1
sVdisgust;
p4052
F1
sVallied
p4053
F1
sVdisgust,
p4054
F2
sVretain
p4055
F2
sVsouth
p4056
F1
sVreached
p4057
F9
sVancient
p4058
F1
sVlove!
p4059
F1
sVtenement!
p4060
F1
sVlove,
p4061
F13
sVscenes,
p4062
F2
sVlove.
p4063
F4
sVintermediate
p4064
F1
sVwistfully
p4065
F1
sVagonies
p4066
F1
sVacquire
p4067
F1
sVdreary
p4068
F3
sVcoughed
p4069
F1
sVvanity,
p4070
F2
sVloved
p4071
F12
sVchase,
p4072
F1
sVo'er
p4073
F1
sVsoftening.
p4074
F1
sVopiate
p4075
F1
sVlover
p4076
F2
sVflashes
p4077
F1
sVxviii.
p4078
F1
sVdevelopement
p4079
F1
sVdisappointment;
p4080
F1
sVlove!"
p4081
F1
sVdisappointment.
p4082
F2
sVhave
p4083
F89
sVkeener
p4084
F2
sVapparently
p4085
F1
sVcards,
p4086
F1
sVvigor.--she
p4087
F1
sVroared;
p4088
F1
sVpatience.
p4089
F1
sVmix
p4090
F1
sVconcerns
p4091
F1
sVexpected,
p4092
F1
sVexpected.
p4093
F2
sVunless
p4094
F1
sVpersuasive.
p4095
F1
sVprocure
p4096
F1
sVpersuasive;
p4097
F1
sVmoment--she
p4098
F1
sVprisoner
p4099
F1
sVtwilight,
p4100
F1
sVtranscript
p4101
F1
sVdespair.
p4102
F3
sVthee."
p4103
F2
sVenthusiastic
p4104
F4
sVgather
p4105
F1
sVrequest
p4106
F3
sVperformed.
p4107
F1
sVpark,
p4108
F1
sVoccasion
p4109
F1
sVsaying,
p4110
F1
sVsupported
p4111
F4
sVhamlet
p4112
F1
sVtearful
p4113
F1
sVheiress,
p4114
F1
sVknowledge
p4115
F2
sVtranscriber's
p4116
F1
sVinferior
p4117
F2
sVbeat
p4118
F3
sVbear
p4119
F10
sVorgan
p4120
F1
sVblack!--the
p4121
F1
sVfixed
p4122
F6
sVconform
p4123
F1
sVpain--produced
p4124
F1
sVpublications,
p4125
F1
sVaccord
p4126
F1
sVattempting
p4127
F1
sVpattern
p4128
F1
sV_doing_
p4129
F1
sVprogress
p4130
F1
sVadmiration
p4131
F1
sVexclaimed,
p4132
F3
sVdeliver
p4133
F1
sVexist;
p4134
F1
sVinstant
p4135
F2
sVfreely
p4136
F1
sVtaking
p4137
F2
sVequal
p4138
F2
sVattributes
p4139
F1
sVpassing
p4140
F1
sVotherwise
p4141
F1
sVinflammatory
p4142
F1
sVnot,"
p4143
F2
sVbeguiled
p4144
F1
sVcunning.
p4145
F1
sVlaugh
p4146
F1
sVdone.
p4147
F1
sVoperations--yet
p4148
F1
sVtremendous
p4149
F1
sVhome;
p4150
F3
sVhome!
p4151
F1
sVattends
p4152
F1
sVunstrung
p4153
F1
sVcontemplative
p4154
F1
sVcopied
p4155
F1
sVhome.
p4156
F4
sVhome,
p4157
F3
sVheart."
p4158
F1
sVreasonings
p4159
F1
sV"along
p4160
F1
sVbenevolence.
p4161
F1
sVbenevolence,
p4162
F3
sVfinished
p4163
F1
sV"surely
p4164
F1
sVfellow
p4165
F5
sVlooked;
p4166
F1
sVcomposure.
p4167
F1
sVforsaken,
p4168
F1
sVattend;
p4169
F1
sValmost
p4170
F20
sVakin;
p4171
F1
sVdelusion
p4172
F2
sVwhirl
p4173
F1
sVthough,
p4174
F1
sVinjured
p4175
F2
sVmaterial
p4176
F2
sVcast;
p4177
F1
sVbreaks,
p4178
F1
sVmarrying_,
p4179
F1
sVspitting
p4180
F1
sVjudgment
p4181
F4
sVretard
p4182
F1
sVconcluded;
p4183
F1
sVthought
p4184
F26
sVexceedingly
p4185
F1
sVforgetfulness,
p4186
F1
sVexhibited,
p4187
F1
sVusual
p4188
F3
sVnurses,
p4189
F1
sVcompanions.
p4190
F1
sVthomson's
p4191
F1
sVolder,
p4192
F1
sVinterim
p4193
F1
sVwork,
p4194
F2
sVrecommending
p4195
F1
sVadd
p4196
F1
sVsympathies,
p4197
F1
sVought
p4198
F2
sVloss.
p4199
F1
sVconfusion.
p4200
F1
sVlike
p4201
F23
sVprofound
p4202
F1
sVcheerful,
p4203
F1
sVadmitted
p4204
F1
sVcheerful;
p4205
F1
sVworks
p4206
F1
sVitalian
p4207
F1
sVhail
p4208
F1
sVconvey
p4209
F1
sVproper
p4210
F3
sVcorpse
p4211
F1
sVboard:
p4212
F1
sVxx.
p4213
F1
sVassuming
p4214
F1
sVboard,
p4215
F1
sVblessing;
p4216
F1
sVher!--my
p4217
F1
sVpanes
p4218
F1
sVweeps,
p4219
F1
sVnoise
p4220
F1
sV_my_,
p4221
F1
sVworthy
p4222
F1
sVceremony,
p4223
F1
sVnoisy
p4224
F1
sVabout
p4225
F20
sVchain,
p4226
F1
sVactual
p4227
F1
sVgarret;
p4228
F1
sVintroduced
p4229
F3
sVbaseless
p4230
F1
sVrendered
p4231
F5
sVawkward,
p4232
F1
sVfemale
p4233
F5
sVhasty,
p4234
F1
sVrushed
p4235
F4
sVavowed
p4236
F1
sVprovoked.
p4237
F1
sVbuy
p4238
F2
sVchildren?
p4239
F1
sVchildren;
p4240
F1
sVbut
p4241
F144
sVchildren,
p4242
F3
sVglory
p4243
F1
sVwish
p4244
F15
sVpreyed
p4245
F1
sVrespectable,
p4246
F1
sVdressed
p4247
F1
sVamusements.
p4248
F1
sVdetain
p4249
F1
sVaccident;
p4250
F1
sVmorn,
p4251
F1
sVindeed,
p4252
F6
sVone--when
p4253
F1
sVdeath?
p4254
F2
sVdeath;
p4255
F3
sVuncommon
p4256
F3
sVdeath,
p4257
F2
sVramble
p4258
F3
sVobserved,
p4259
F1
sVoriginal
p4260
F1
sVever,
p4261
F1
sVever.
p4262
F1
sVcatch
p4263
F4
sVsleep
p4264
F2
sVever;
p4265
F1
sVelements,
p4266
F1
sVarguments;
p4267
F1
sV"at
p4268
F1
sVunder
p4269
F6
sVclarissa,
p4270
F1
sVconjecture
p4271
F1
sVrise
p4272
F7
sV_waited_
p4273
F1
sVtears,
p4274
F2
sVevery
p4275
F44
sVgratification
p4276
F2
sVsoftened
p4277
F4
sVtears;
p4278
F1
sVencounter
p4279
F1
sVregret.
p4280
F2
sVsounds;
p4281
F1
sVconceive
p4282
F1
sVsounds,
p4283
F1
sVenjoy
p4284
F4
sVparted
p4285
F1
sVstare,
p4286
F1
sVcontention.
p4287
F1
sVwaist--and
p4288
F1
sVsurrounding
p4289
F2
sVpersuade
p4290
F2
sVexpressive
p4291
F3
sVsettle;
p4292
F1
sVhide
p4293
F1
sVcharacters:
p4294
F1
sVviolently,
p4295
F1
sVsolemn
p4296
F4
sVbeaten
p4297
F1
sVchildren
p4298
F7
sVcharacters.
p4299
F1
sVdeer.
p4300
F1
sVchange;
p4301
F1
sVconduct
p4302
F4
sVfriendship,
p4303
F1
sVthrough:
p4304
F1
sVfaults,
p4305
F1
sVfriendship;
p4306
F3
sVfriendship:
p4307
F1
sVfriendship?
p4308
F1
sVpath
p4309
F1
sVtagus.
p4310
F1
sVtagus,
p4311
F1
sVvoice
p4312
F5
sVill.
p4313
F1
sVworse.
p4314
F2
sVworse,
p4315
F1
sVchanged
p4316
F1
sVebb;
p4317
F1
sVxvi.
p4318
F1
sVsettled
p4319
F1
sVworse;
p4320
F1
sVsailed,
p4321
F2
sVcompany.
p4322
F1
sVcompany,
p4323
F1
sVridiculed
p4324
F1
sVbreath,
p4325
F1
sVbreath.
p4326
F2
sVvisibly
p4327
F1
sVfeelings
p4328
F9
sVsorrows
p4329
F5
sVvisible
p4330
F2
sVgreatness,
p4331
F1
sVbreath;
p4332
F1
sVwould
p4333
F101
sVfainting
p4334
F1
sVsorrow.
p4335
F1
sVsorrow,
p4336
F5
sVfeeling,
p4337
F2
sVardently
p4338
F2
sVmamma,
p4339
F1
sVsorrow;
p4340
F2
sVoff,
p4341
F1
sVmust
p4342
F12
sVme
p4343
F32
sVjoin
p4344
F1
sVhenry
p4345
F38
sVmy
p4346
F93
sVshook
p4347
F1
sVestate
p4348
F2
sVcontented.
p4349
F1
sVgriefs--"
p4350
F1
sVkeep
p4351
F1
sVceremony
p4352
F2
sVmournfully,
p4353
F1
sVend
p4354
F2
sVreturning
p4355
F2
sVenquire
p4356
F5
sVaching
p4357
F1
sVgate
p4358
F1
sVassistance!
p4359
F1
sVdelicacy
p4360
F3
sVtraces:
p4361
F1
sVtraces?
p4362
F1
sVfriend--and
p4363
F1
sVintruder,
p4364
F1
sViii.
p4365
F1
sVroused
p4366
F7
sVover
p4367
F16
sVsickly
p4368
F2
sVgrief--her
p4369
F1
sVwhistled,
p4370
F1
sVdisease,
p4371
F1
sVdigest
p4372
F1
sVglances
p4373
F1
sVjoined.
p4374
F1
sVreflected,
p4375
F2
sVexpectations
p4376
F1
sVdestroyed
p4377
F3
sVfade
p4378
F3
sVglanced
p4379
F2
sVstifling
p4380
F1
sVprevented
p4381
F6
sVshadows
p4382
F1
sVgloom
p4383
F1
sVexpectation,
p4384
F1
sVvictory
p4385
F1
sVeach
p4386
F2
sVsuperiors,
p4387
F1
sVone--i
p4388
F1
sVcombining
p4389
F1
sVobservers.
p4390
F1
sVclothe
p4391
F1
sVovercame
p4392
F1
sVcorrection.
p4393
F1
sVhabitation;
p4394
F1
sVgod
p4395
F3
sVwashed
p4396
F1
sVday.
p4397
F2
sVday,
p4398
F11
sVheavenly
p4399
F1
sVgot
p4400
F2
sVwent;
p4401
F1
sVassociate
p4402
F1
sVeternal
p4403
F3
sVfree
p4404
F2
sVwanted
p4405
F2
sVritual
p4406
F1
sVdays
p4407
F8
sV"this
p4408
F1
sVgo?
p4409
F1
sVemployed.
p4410
F1
sVfever,
p4411
F3
sVfever.
p4412
F1
sValready
p4413
F5
sVresearches
p4414
F1
sVencouraging
p4415
F1
sVrank
p4416
F2
sVhearing
p4417
F1
sVgrief,
p4418
F1
sVawoke
p4419
F1
sVdiscomposed
p4420
F1
sVgrief!
p4421
F1
sVtoo;
p4422
F1
sVtop
p4423
F1
sVwell!"
p4424
F1
sVtoo
p4425
F16
sVwildly
p4426
F2
sVconsented
p4427
F1
sVcurtains
p4428
F1
sVcountess's
p4429
F1
sVserve
p4430
F3
sVtook
p4431
F15
sVinarticulate
p4432
F1
sVattraction,
p4433
F1
sVnarrative.
p4434
F1
sVto;
p4435
F2
sVto.
p4436
F1
sVto,
p4437
F3
sVmirth
p4438
F2
sVcountess
p4439
F3
sVfashion
p4440
F1
sVran
p4441
F10
sVadvising
p4442
F1
sVaffectation
p4443
F1
sVunaffected
p4444
F1
sVray
p4445
F3
sVflame--and
p4446
F1
sVchild,"
p4447
F3
sVsnow
p4448
F1
sVfor--ah!
p4449
F1
sVlaughed
p4450
F1
sVthough
p4451
F26
sVgo?"--mary's
p4452
F1
sVphilosophic
p4453
F1
sVparting
p4454
F2
sVglow
p4455
F1
sVride,
p4456
F2
sVher."
p4457
F1
sVflow
p4458
F2
sVletters,
p4459
F1
sVletters.
p4460
F1
sVvivifying
p4461
F1
sVentertaining
p4462
F1
sVwild
p4463
F4
sVearth
p4464
F6
sVspite
p4465
F3
sVdisgust
p4466
F4
sVmixture
p4467
F1
sVmusical,
p4468
F1
sVwatch
p4469
F2
sVshutting
p4470
F1
sVchildish;
p4471
F1
sVundressed
p4472
F1
sVabout,
p4473
F3
sVsituation;
p4474
F1
sVanxiously
p4475
F2
sVtwice
p4476
F2
sVsuggestions,
p4477
F1
sVsituation,
p4478
F1
sVruins
p4479
F2
sVswept
p4480
F1
sVhabit
p4481
F3
sVfell,
p4482
F1
sVnun
p4483
F1
sVsubmitted
p4484
F1
sVface,
p4485
F3
sVface.
p4486
F2
sVcontinually
p4487
F9
sVface;
p4488
F4
sVweak
p4489
F5
sVhowever
p4490
F1
sVwear
p4491
F2
sVadapting
p4492
F1
sVirregular
p4493
F1
sVfault
p4494
F1
sVhenry;
p4495
F4
sVfaces
p4496
F1
sVhenry,
p4497
F11
sVhenry.
p4498
F2
sVvexed
p4499
F1
sVconfide
p4500
F1
sVpoverty;
p4501
F2
sV"and
p4502
F1
sVtrust
p4503
F2
sVpoverty,
p4504
F2
sVsusceptible:
p4505
F1
sVdeep;
p4506
F1
sV"you
p4507
F2
sVfaltering
p4508
F1
sVbeen
p4509
F44
sVquickly
p4510
F6
sVwere,
p4511
F1
sVdeep.
p4512
F1
sVexpected
p4513
F6
sVfleeting
p4514
F2
sVaround--she
p4515
F1
sVairs.
p4516
F1
sVancestors;
p4517
F1
sVchurch,
p4518
F1
sVsallow
p4519
F1
sVconsumption,
p4520
F1
sVparched
p4521
F1
sVfestivity.
p4522
F1
sVpurifying
p4523
F1
sVdying,
p4524
F2
sV(mary
p4525
F1
sV"a
p4526
F1
sVpositive,
p4527
F1
sVcharacter,
p4528
F2
sV"i
p4529
F22
sVsophie.--it
p4530
F1
sV"over
p4531
F1
sVwidow--may
p4532
F1
sVlust.
p4533
F1
sVcharacter:
p4534
F1
sVheart.
p4535
F9
sVheart,
p4536
F15
sValarm,
p4537
F1
sVheart!
p4538
F1
sVheart:
p4539
F1
sVheart;
p4540
F6
sVheart?
p4541
F1
sVseveral
p4542
F5
sVmade;
p4543
F1
sVcharacters
p4544
F3
sVmind--he
p4545
F1
sVworkings
p4546
F1
sVinsisted
p4547
F4
sVmade,
p4548
F1
sVshortly
p4549
F1
sVmother's
p4550
F10
sVpossessed
p4551
F2
sVgreatest
p4552
F2
sVdetained
p4553
F1
sVmother
p4554
F24
sVchildhood.
p4555
F1
sVhearts
p4556
F3
sVproposed
p4557
F2
sVtransporting
p4558
F1
sValoud
p4559
F1
sVtolerable
p4560
F2
sVgave
p4561
F32
sVvice.
p4562
F1
sVensued!
p4563
F1
sVsoon--yes,
p4564
F1
sVdescending
p4565
F1
sVappearing
p4566
F2
sVhunt
p4567
F1
sVoffices
p4568
F2
sVoverrated
p4569
F1
sVhung
p4570
F2
sVopinions,
p4571
F2
sVsuperlative
p4572
F1
sVwatching.
p4573
F1
sVescape
p4574
F1
sVman.
p4575
F1
sVtea-table.
p4576
F1
sVprecaution;
p4577
F1
sVinvaluable
p4578
F1
sVpermitted
p4579
F2
sVattacks
p4580
F1
sVplying
p4581
F1
sVplus
p4582
F1
sVcompanion.
p4583
F1
sVefforts
p4584
F1
sVpresence
p4585
F3
sVcivil
p4586
F1
sVobtaining
p4587
F1
sVremove.
p4588
F1
sVexisted
p4589
F1
sVrely
p4590
F1
sVgratification.
p4591
F1
sVgratification,
p4592
F1
sVclass
p4593
F1
sVsuffocation.
p4594
F1
sVpurposely
p4595
F1
sVhead
p4596
F3
sVmedium
p4597
F2
sVattempted
p4598
F4
sVhands;
p4599
F1
sVhear
p4600
F4
sVround;
p4601
F1
sVremoved
p4602
F1
sVnodded
p4603
F1
sVluxuriant
p4604
F1
sVcounsel
p4605
F1
sVcrew,
p4606
F1
sVadore
p4607
F1
sVdespair.--she
p4608
F1
sV_shews_
p4609
F1
sVlook--it
p4610
F1
sVpleasures--and
p4611
F1
sVfaithful
p4612
F3
sVno
p4613
F25
sVwhen
p4614
F124
sVtie
p4615
F1
sVmary.
p4616
F2
sVpicture
p4617
F1
sVmary,
p4618
F18
sVpermitting
p4619
F1
sVbeams.
p4620
F1
sVmary!
p4621
F1
sVmary?
p4622
F3
sVmary;
p4623
F2
sVdischarge
p4624
F1
sVflushed
p4625
F1
sVyounger
p4626
F1
sVlonger
p4627
F6
sVapprehensions
p4628
F1
sVlonged
p4629
F3
sVserious
p4630
F1
sVdwelling,
p4631
F1
sVobviate
p4632
F1
sVleads
p4633
F3
sVremarkably
p4634
F1
sVdiscern
p4635
F1
sVsinging;
p4636
F1
sVlisping
p4637
F1
sVwitness,
p4638
F1
sVquash
p4639
F1
sVinstantaneous,
p4640
F1
sVadvantage
p4641
F2
sValternative,
p4642
F1
sVyoke,
p4643
F1
sVregular.
p4644
F1
sVplaying;
p4645
F1
sVclouds
p4646
F6
sVbrother
p4647
F4
sVquick
p4648
F1
sValong-side
p4649
F1
sVslower
p4650
F1
sVindifferent;
p4651
F1
sVgroup.
p4652
F1
sVindifferent,
p4653
F1
sVhair,
p4654
F1
sVcomforting
p4655
F2
sVchicken
p4656
F1
sVsubstitute
p4657
F1
sVirritated
p4658
F1
sVsung.
p4659
F1
sVsung,
p4660
F1
sVconstitution
p4661
F4
sVhealth;
p4662
F3
sVsituation,--and
p4663
F1
sVsung;
p4664
F1
sVhealth,
p4665
F3
sVhealth.
p4666
F2
sVdrink.
p4667
F1
sVnearer
p4668
F1
sVsay?
p4669
F1
sVwater
p4670
F1
sVdissipated
p4671
F1
sVsay,
p4672
F1
sVboast
p4673
F1
sVpearls
p4674
F1
sVsay--or
p4675
F1
sVtrials;
p4676
F1
sVexercised,
p4677
F1
sVbeautiful,
p4678
F1
sVlove-scenes,
p4679
F1
sVunbidden
p4680
F1
sVcompare
p4681
F1
sV"my
p4682
F9
sVlaconic,
p4683
F1
sVprey
p4684
F1
sVmemory
p4685
F1
sVit--or
p4686
F1
sVdismal
p4687
F2
sVand,
p4688
F28
sVmeans,
p4689
F1
sVdistress.
p4690
F1
sVagain,--she
p4691
F1
sVnursing
p4692
F1
sVfigure
p4693
F3
sVforcibly;
p4694
F1
sVdropped
p4695
F3
sVimperceptible,
p4696
F1
sVcounting
p4697
F1
sVvital
p4698
F1
sVcompanion,
p4699
F1
sVdogs.
p4700
F2
sVdogs,
p4701
F1
sVobservations,
p4702
F1
sVeighty
p4703
F1
sVunutterable
p4704
F1
sVrenovation
p4705
F1
sVdifferent.
p4706
F1
sVamuse
p4707
F2
sVpropriety
p4708
F1
sVwounds,
p4709
F1
sVhumanity,
p4710
F1
sVexclusive
p4711
F1
sVwords
p4712
F8
sVmidnight
p4713
F1
sVconversation.
p4714
F2
sVconversation,
p4715
F5
sVblocked
p4716
F1
sVchurch-yard.
p4717
F1
sVsouls.
p4718
F1
sVsouls,
p4719
F2
sVmeridian
p4720
F2
sVhappened
p4721
F1
sVlonely
p4722
F2
sVsongs.
p4723
F2
sVconversations
p4724
F2
sVbound
p4725
F3
sVconquer
p4726
F4
sVgratified,
p4727
F2
sVmotion;
p4728
F1
sVmotion:
p4729
F1
sVoccult
p4730
F1
sVrecovery,
p4731
F1
sVequality
p4732
F1
sVname
p4733
F4
sVsoon,
p4734
F2
sVrecovery;
p4735
F1
sVdelirium,
p4736
F1
sVtumultuous
p4737
F4
sVhysteric
p4738
F1
sVputrid
p4739
F1
sVnight-thoughts,
p4740
F1
sVintercourse
p4741
F1
sVwretchedness.--yet
p4742
F1
sVattracted
p4743
F3
sVattended
p4744
F4
sVfarewel.
p4745
F1
sVfarewel!
p4746
F1
sVimportance,
p4747
F1
sVturn
p4748
F7
sVplace
p4749
F8
sVimportance;
p4750
F1
sVview
p4751
F6
sVstill--fate
p4752
F1
sVsurviving
p4753
F2
sVanxiety,
p4754
F1
sVtemper;
p4755
F2
sVsovereign
p4756
F1
sVtemper,
p4757
F1
sVdisinterested
p4758
F1
sVgiven
p4759
F6
sVterrifying
p4760
F2
sVgives
p4761
F3
sVreverie
p4762
F2
sVseason
p4763
F1
sVinexpressibly
p4764
F1
sVprobationers
p4765
F1
sVcopy
p4766
F2
sVmilton
p4767
F1
sVwide
p4768
F1
sVearth;
p4769
F1
sVrequire
p4770
F1
sVreturn,
p4771
F1
sV_faux
p4772
F1
sVcards
p4773
F1
sVearth.
p4774
F1
sVearth,
p4775
F3
sVand
p4776
F693
sVgenerality
p4777
F1
sVconvent,
p4778
F1
sVann
p4779
F28
sVround,
p4780
F1
sVah!
p4781
F3
sVrent
p4782
F1
sVany
p4783
F47
sVideas
p4784
F2
sVwandered
p4785
F1
sVunavailing
p4786
F2
sVlate,
p4787
F1
sVsure
p4788
F1
sVreluctance,
p4789
F1
sVstrength,
p4790
F1
sVstrength.
p4791
F1
sVconsidered
p4792
F4
sVstudy,
p4793
F1
sVstrength;
p4794
F1
sVtouching.
p4795
F1
sVkilled,
p4796
F1
sVpetrified;
p4797
F1
sVunfortunately,
p4798
F3
sVann.--ann!--this
p4799
F1
sVhands,
p4800
F1
sVwritten
p4801
F1
sVcrime
p4802
F1
sVwood
p4803
F2
sVdreaded
p4804
F2
sVsubjugated
p4805
F1
sVpray
p4806
F1
sVspace,
p4807
F1
sVwretch!"--she
p4808
F1
sVreveal
p4809
F1
sVmelancholy;
p4810
F1
sVfainted
p4811
F2
sVmuster
p4812
F1
sVfainter
p4813
F1
sVworld--to
p4814
F1
sVdiscussing
p4815
F1
sVmelancholy,
p4816
F4
sV"far
p4817
F1
sVbraved
p4818
F1
sVweighed.
p4819
F1
sVrelief;
p4820
F1
sVways
p4821
F1
sVmerit.
p4822
F1
sVarrival
p4823
F4
sVable,
p4824
F1
sVcome
p4825
F3
sVway;
p4826
F1
sVvices,
p4827
F1
sVhis,
p4828
F1
sVquiet
p4829
F1
sVportrait.--fatal
p4830
F1
sVway.
p4831
F2
sVway,
p4832
F3
sVhis?
p4833
F1
sVsurface.
p4834
F1
sVduty
p4835
F4
sVdescried,
p4836
F1
sVafterwards
p4837
F2
sVperiod
p4838
F1
sVconsumptive
p4839
F1
sVuniversities.
p4840
F1
sVpeaceful
p4841
F3
sVhardly
p4842
F2
sVassertion.
p4843
F1
sVassertion,
p4844
F1
sVattentive
p4845
F1
sVspirit
p4846
F9
sVmyself
p4847
F1
sVdeputy,
p4848
F1
sVmount
p4849
F1
sVlife;
p4850
F1
sVcast
p4851
F1
sVlife.
p4852
F4
sVlife,
p4853
F6
sVmarried."
p4854
F1
sVconfident.
p4855
F1
sVconfident,
p4856
F1
sVretribution,
p4857
F1
sVsides,
p4858
F1
sVauthor
p4859
F5
sVreminded
p4860
F1
sVagitated
p4861
F3
sVfrequented
p4862
F1
sVweek
p4863
F2
sVperfection--which
p4864
F1
sVhappy--i
p4865
F1
sVdriven
p4866
F1
sVdelicate
p4867
F6
sVstatue
p4868
F1
sVweep
p4869
F3
sVmisery--the
p4870
F1
sVconceived.
p4871
F1
sVfriend,"
p4872
F2
sVby--only
p4873
F1
sVthee--and
p4874
F1
sVwithout
p4875
F30
sVevaporates."
p4876
F1
sVjustify
p4877
F1
sVdesolate
p4878
F1
sVstyle:
p4879
F1
sVguided
p4880
F1
sVlavish
p4881
F1
sVviolent
p4882
F11
sVcease
p4883
F1
sVpolish
p4884
F1
sVstyle,
p4885
F4
sVblow
p4886
F1
sVhappiness.
p4887
F3
sVscriptures,
p4888
F1
sVfondness,
p4889
F1
sVrose
p4890
F7
sVbrightness
p4891
F1
sVtenets,
p4892
F1
sVexcept
p4893
F4
sVmary--mary
p4894
F1
sVinterested
p4895
F4
sVhappiness;
p4896
F4
sVquality,
p4897
F1
sVguide,
p4898
F1
sVaction,
p4899
F1
sVaction.
p4900
F1
sVconfined
p4901
F3
sVfurniture
p4902
F1
sVpoise;
p4903
F1
sVwoman;
p4904
F2
sVwoman!
p4905
F1
sVwoman,
p4906
F7
sVbeholders
p4907
F1
sVreduced
p4908
F2
sVvain,
p4909
F1
sVdark;
p4910
F1
sVsnatched
p4911
F1
sVprovided
p4912
F1
sVobey.
p4913
F1
sVobey,
p4914
F1
sVsubdue;
p4915
F1
sVsevered
p4916
F1
sVmetropolis
p4917
F1
sVsilently,
p4918
F1
sVterrified
p4919
F3
sVon
p4920
F151
sVof
p4921
F697
sVperuser
p4922
F1
sVdiscussed
p4923
F1
sVinforming
p4924
F1
sVbreathing,)
p4925
F1
sVstand
p4926
F2
sVbent;
p4927
F1
sVladies
p4928
F10
sVoccasions,
p4929
F1
sVinstruments
p4930
F1
sVgarb
p4931
F1
sVrising
p4932
F3
sVdetermine
p4933
F1
sVbegged
p4934
F1
sVaway--given
p4935
F1
sVdistinctions
p4936
F2
sVthere
p4937
F21
sVdisposed
p4938
F1
sVsummit.
p4939
F1
sVcompatible.
p4940
F1
sVamongst
p4941
F4
sVinstrument,
p4942
F1
sVproceed--were
p4943
F1
sVrouse
p4944
F1
sVaccount;
p4945
F1
sVnourishment.
p4946
F1
sVculture.
p4947
F1
sVwalking,
p4948
F1
sVjuncture,
p4949
F1
sVrefinement.
p4950
F1
sVrefinement,
p4951
F1
sVgrasp
p4952
F1
sVstrongly
p4953
F2
sVhearts;
p4954
F1
sVevaporates;
p4955
F1
sVtaste
p4956
F8
sVfrighten
p4957
F1
sVsenses
p4958
F2
sVencompass
p4959
F1
sVstumbled
p4960
F1
sVrubbed
p4961
F1
sVdeserve
p4962
F2
sVparts;
p4963
F1
sVrequested
p4964
F3
sVseparate
p4965
F3
sVgarden-gate,
p4966
F1
sVmind--she
p4967
F1
sVcastle.
p4968
F1
sVcastle,
p4969
F1
sVapplause
p4970
F1
sVwife
p4971
F2
sVconsists."
p4972
F1
sVall
p4973
F83
sVchinese
p4974
F1
sVson,
p4975
F2
sVfollow
p4976
F4
sVson;
p4977
F1
sVglimpse
p4978
F1
sVapartment
p4979
F1
sVhomage
p4980
F1
sVsubjected
p4981
F1
sVsparkling
p4982
F1
sVbodily,
p4983
F1
sVfear,
p4984
F2
sVwoman
p4985
F9
sVworse
p4986
F4
sVseal:
p4987
F1
sVfar
p4988
F6
sVcorrectness,
p4989
F1
sVawful
p4990
F3
sVsentimental
p4991
F1
sVweak;
p4992
F1
sVsubsistence:
p4993
F1
sVemploying
p4994
F1
sVabstracted
p4995
F2
sVreturn,"
p4996
F1
sVwhat
p4997
F39
sVnecessary.
p4998
F2
sVadvantageous
p4999
F1
sVsun
p5000
F4
sVsum
p5001
F1
sVlitigated,
p5002
F1
sVallow,
p5003
F1
sVattitudes
p5004
F1
sVwill,
p5005
F1
sVcondensed
p5006
F1
sVchristian
p5007
F1
sVbehaviour
p5008
F1
sVwhen,
p5009
F2
sVobserving
p5010
F3
sVextraordinary
p5011
F1
sVattitude,
p5012
F1
sVsuddenly
p5013
F2
sVpermanent.
p5014
F1
sVsolitude
p5015
F3
sVenlivened
p5016
F1
sVpassage
p5017
F2
sVhorse,
p5018
F1
sVpervades
p5019
F1
sVall,"
p5020
F1
sVfaint
p5021
F2
sVpervaded
p5022
F1
sVconduct--what
p5023
F1
sVwretched
p5024
F3
sVfainted:
p5025
F1
sVwretches
p5026
F1
sVknown
p5027
F1
sV"she
p5028
F3
sVglad
p5029
F4
sVfainted,
p5030
F1
sVshielded
p5031
F1
sVwildly--and
p5032
F1
sVthread-bare
p5033
F1
sVcasks,
p5034
F1
sVballad;
p5035
F1
sVimitation
p5036
F1
sVarise
p5037
F1
sVcultivate
p5038
F2
sVobserving.
p5039
F1
sVoffspring
p5040
F1
sVterrestrial
p5041
F1
sVdreads
p5042
F1
sVrather
p5043
F14
sVhers;
p5044
F1
sVbreaking
p5045
F1
sVestates,
p5046
F1
sVfancy,
p5047
F1
sVconsolations,
p5048
F1
sVreflect
p5049
F2
sVimage!--it
p5050
F1
sVhandsome,
p5051
F1
sVhandsome.
p5052
F1
sVshort
p5053
F2
sVshady
p5054
F1
sVdeparture
p5055
F3
sVshade
p5056
F2
sVmusic,
p5057
F3
sV"in
p5058
F1
sVwould,
p5059
F1
sVstir,
p5060
F1
sV"if
p5061
F1
sVmisjudging
p5062
F1
sVcloseness
p5063
F1
sVintend,"
p5064
F1
sVinstruction;
p5065
F1
sVpretext
p5066
F1
sV"it
p5067
F3
sVstyle
p5068
F1
sVsusceptible
p5069
F2
sVresort
p5070
F1
sVnephew.
p5071
F1
sVnephew,
p5072
F1
sVmight
p5073
F19
sVreturn
p5074
F13
sVinsensibility
p5075
F1
sVhunted
p5076
F1
sVintolerably
p5077
F1
sVrefresh
p5078
F2
sVfriendship
p5079
F6
sVweight
p5080
F1
sVoppressed
p5081
F4
sVexpect
p5082
F2
sVdiscussion."
p5083
F1
sVstilled
p5084
F3
sVwondered
p5085
F3
sVmary."
p5086
F1
sVadhere
p5087
F1
sVnotion--or
p5088
F1
sVhill
p5089
F1
sVparadise
p5090
F4
sVcongenial
p5091
F1
sVinduced
p5092
F1
sVcome;
p5093
F1
sVexertions
p5094
F2
sVtenderest
p5095
F2
sVteach
p5096
F1
sVthrown
p5097
F4
sValluded
p5098
F1
sVconsequence
p5099
F4
sVfallen
p5100
F2
sVdespair--now
p5101
F1
sVseeming
p5102
F1
sVsensitive-plant,
p5103
F1
sVtranquillity.
p5104
F2
sVfancy
p5105
F5
sVfeet
p5106
F1
sVsympathy
p5107
F2
sVstory
p5108
F2
sVthoughts.
p5109
F2
sVthoughts,
p5110
F4
sVthoughts;
p5111
F2
sVthoughts:
p5112
F1
sVstorm
p5113
F3
sVfinances
p5114
F1
sVrecovered
p5115
F2
sVattendants
p5116
F2
sVrelieved
p5117
F7
sVuncommonly
p5118
F3
sVfrom.
p5119
F1
sVimmediately.
p5120
F1
sVimmediately,
p5121
F1
sVconvinced
p5122
F2
sVking
p5123
F1
sVkind
p5124
F17
sVi
F153
sVinterview,
p5125
F1
sVinsulted
p5126
F1
sVinterview.
p5127
F1
sVcomposed--to
p5128
F1
sVseason,
p5129
F1
sVexert
p5130
F2
sVvertus
p5131
F1
sVnights
p5132
F1
sVwindow,
p5133
F2
sVinterfered
p5134
F1
sVme."
p5135
F1
sVadded
p5136
F8
sVplowed.
p5137
F1
sVchildless.
p5138
F1
sVreach
p5139
F3
sVnothing
p5140
F10
sVstrange!"
p5141
F1
sVtongue.
p5142
F1
sVtongue,
p5143
F1
sVwindows
p5144
F1
sVpaintings.
p5145
F1
sVnight;
p5146
F1
sVnight,
p5147
F4
sVfond
p5148
F7
sVdresses:"
p5149
F1
sVexcessive
p5150
F1
sVcompliments.
p5151
F1
sVabiding
p5152
F1
sVhis
p5153
F148
sVjourney;
p5154
F1
sVhid
p5155
F1
sVjourney.
p5156
F1
sVhim
p5157
F42
sVinsensibly
p5158
F1
sVkeenest
p5159
F1
sVserene,
p5160
F1
sVinsensibility.
p5161
F1
sVdelayed!
p5162
F1
sVyou!"
p5163
F1
sVprecaution
p5164
F1
sVwrote
p5165
F11
sVart
p5166
F3
sVcity;
p5167
F2
sVbare
p5168
F1
sVare
p5169
F46
sVarm
p5170
F1
sVadvanced,
p5171
F1
sVforlorn
p5172
F1
sVvarious
p5173
F7
sVnumerous
p5174
F1
sVsoftened,
p5175
F1
sVafter,
p5176
F4
sVchamber,
p5177
F3
sVattention
p5178
F7
sVretract;
p5179
F1
sVdays,
p5180
F3
sVrapid
p5181
F1
sVbroken-hearted,
p5182
F1
sVcompetent
p5183
F1
sVprescription
p5184
F1
sVlearn?
p5185
F1
sVroman
p5186
F1
sVbecame
p5187
F10
sVhowever,
p5188
F4
sVbond
p5189
F1
sVfinds
p5190
F2
sVflies
p5191
F1
sVknew,
p5192
F1
sVdistress
p5193
F2
sVduplicity
p5194
F1
sVreasons
p5195
F2
sVsweet
p5196
F6
sVvillage
p5197
F1
sVthere,
p5198
F2
sVdecline
p5199
F1
sVthere.
p5200
F3
sVdun
p5201
F1
sVimmateriality,
p5202
F1
sVillumined
p5203
F1
sVdue
p5204
F2
sVsurely,
p5205
F1
sVwhom
p5206
F11
sVchange
p5207
F6
sVwoke
p5208
F1
sVreason;
p5209
F1
sVaffectionate
p5210
F1
sVreason,
p5211
F6
sVearnestly
p5212
F2
sVher--her
p5213
F1
sVcompassion,
p5214
F1
sVstolen
p5215
F2
sVconception
p5216
F1
sVwho;
p5217
F1
sVcivility
p5218
F2
sVcorrode
p5219
F2
sVwho,
p5220
F3
sVcompassion;
p5221
F1
sVwas--why
p5222
F1
sVarrive:
p5223
F1
sVleans
p5224
F1
sVrestrain,
p5225
F1
sVflow.
p5226
F1
sVlodged
p5227
F2
sVwhere;
p5228
F1
sVanguish
p5229
F2
sVpeopled
p5230
F1
sVaway.
p5231
F4
sVaway,
p5232
F6
sVaway;
p5233
F2
sVwidely
p5234
F1
sVdescended
p5235
F3
sVmanners,
p5236
F3
sVbrooding
p5237
F1
sVflown
p5238
F1
sVarrived
p5239
F1
sVdaughter,
p5240
F2
sVdelight!--ethereal
p5241
F1
sVdaughter.
p5242
F2
sVsolemnity
p5243
F1
sVtry
p5244
F5
sVpeople.
p5245
F1
sVedge
p5246
F1
sVdaughter;
p5247
F1
sVendeavour
p5248
F1
sVconstitution:
p5249
F1
sVhealth?"
p5250
F1
sVquestions
p5251
F1
sVawake,
p5252
F1
sVcontinent
p5253
F1
sVquestion.
p5254
F1
sVerred;
p5255
F1
sVmarked
p5256
F2
sVmodifications
p5257
F2
sVthem--he
p5258
F1
sVshapes
p5259
F1
sVconduct--vain
p5260
F1
sVacceptation
p5261
F1
sVhinted
p5262
F1
sVunderstood
p5263
F1
sV"we
p5264
F1
sVprop
p5265
F1
sVcreature,"
p5266
F2
sVviolin,
p5267
F4
sVsouth."
p5268
F1
sVdestruction--she
p5269
F1
sVrefused
p5270
F1
sVagitated,
p5271
F1
sVpeevishly
p5272
F1
sVdormant
p5273
F2
sVcautious
p5274
F1
sVann;
p5275
F2
sVfragment.
p5276
F1
sVinstincts.
p5277
F1
sVfrightful
p5278
F2
sVann.
p5279
F2
sVrange
p5280
F1
sVfragment:
p5281
F1
sVparoxysm
p5282
F1
sVfluttering
p5283
F1
sVann!
p5284
F1
sVtraitors
p5285
F1
sVdrifted
p5286
F1
sVacquirements,
p5287
F1
sVchancery
p5288
F1
sVtumult,
p5289
F1
sVpallid
p5290
F1
sVlong
p5291
F12
sVperplexing
p5292
F1
sVdiligently,
p5293
F1
sVhangs.--i
p5294
F1
sVreflections;
p5295
F1
sVreflections,
p5296
F1
sVsecret--they
p5297
F1
sVfled,
p5298
F1
sVix.
p5299
F1
sVgallantry
p5300
F1
sVconsist
p5301
F1
sVphantom,
p5302
F1
sV_of
p5303
F1
sVfifteen,
p5304
F1
sVlandscapes
p5305
F1
sVcalled
p5306
F14
sVhome
p5307
F2
sVknowledge,
p5308
F1
sVfaculties;
p5309
F1
sVweight,
p5310
F2
sVdepart.
p5311
F1
sVfaculties.
p5312
F1
sVfaculties,
p5313
F2
sVdefrauding
p5314
F1
sVdepart;
p5315
F1
sVmock
p5316
F1
sVdisgusts,
p5317
F1
sVmoments--her
p5318
F1
sVallowing
p5319
F1
sVrightful
p5320
F1
sVrain;
p5321
F2
sVweaker,
p5322
F1
sVback;
p5323
F1
sVvice
p5324
F1
sVwit!--enchanting
p5325
F1
sVshining,
p5326
F1
sVback,
p5327
F3
sVrain,
p5328
F1
sVindependent.
p5329
F1
sVindependent,
p5330
F1
sVonce
p5331
F9
sVwinds
p5332
F3
sVissues
p5333
F1
sVnote:
p5334
F1
sV"christianity
p5335
F1
sVcrisis,
p5336
F1
sVabode
p5337
F2
sVbreathing
p5338
F3
sVwished
p5339
F23
sVwind.
p5340
F1
sVwind,
p5341
F1
sVwishes
p5342
F4
sVdrinking
p5343
F1
sVxxi.
p5344
F1
sVincoherent
p5345
F1
sVreplying;
p5346
F1
sVarbors,
p5347
F1
sVnotes
p5348
F1
sVlanguage,
p5349
F1
sVtenderness
p5350
F7
sVweek's
p5351
F1
sVconcluded
p5352
F1
sVsensation
p5353
F2
sVmerit,--truly,
p5354
F1
sVpertinent.
p5355
F1
sVwaiting
p5356
F1
sVshade,
p5357
F1
sVabilities,
p5358
F1
sVhand--the
p5359
F1
sVchose
p5360
F2
sVdegree
p5361
F6
sVdesired
p5362
F10
sVoars
p5363
F1
sVseparation
p5364
F1
sVsettling
p5365
F1
sVones,
p5366
F4
sVones.
p5367
F1
sVleaving
p5368
F1
sVdistresses
p5369
F1
sVopiate.
p5370
F1
sVuse
p5371
F2
sVfrom
p5372
F92
sVstream
p5373
F2
sVpurport.
p5374
F1
sVprevented.
p5375
F1
sVwhims,
p5376
F1
sVecstacies
p5377
F1
sVfew
p5378
F19
sVweeping
p5379
F1
sVregularly.
p5380
F1
sVsort
p5381
F2
sVinclined
p5382
F1
sVheir
p5383
F1
sVsore
p5384
F1
sVred.
p5385
F1
sVwomen
p5386
F1
sVsceptic,
p5387
F1
sVus,
p5388
F2
sVperformed
p5389
F1
sVtenants;
p5390
F1
sVwisdom?
p5391
F1
sVimpeded
p5392
F1
sVunited
p5393
F1
sVsit
p5394
F4
sVstruggles
p5395
F1
sVfortunate
p5396
F1
sVinstead
p5397
F2
sVstruggled
p5398
F2
sVswearing,
p5399
F1
sVattributes,
p5400
F1
sVmaternal
p5401
F2
sVattend
p5402
F2
sVsolemn.
p5403
F1
sVdistraction.
p5404
F1
sVlight
p5405
F9
sVarduous
p5406
F2
sVinterrupted
p5407
F4
sVaffection.
p5408
F2
sVaffection,
p5409
F6
sVbeauties
p5410
F3
sVcomposing.
p5411
F1
sVbeguile
p5412
F2
sVdearest
p5413
F1
sVaffection;
p5414
F1
sVinterpreter
p5415
F1
sVcomposing;
p5416
F1
sVsuperior
p5417
F1
sVworld:
p5418
F1
sVworld;
p5419
F2
sVworld?
p5420
F1
sVworld!
p5421
F2
sVrestrain
p5422
F3
sVchoose
p5423
F3
sVcovered
p5424
F4
sVamicably,
p5425
F1
sVworld.
p5426
F4
sVworld,
p5427
F3
sVunfortunate?
p5428
F1
sVlook,
p5429
F1
sVpractice
p5430
F2
sVflew
p5431
F2
sVunfortunate,
p5432
F1
sVsatellites
p5433
F1
sVimpaired
p5434
F1
sVaffections
p5435
F11
sVfled
p5436
F1
sVcrowd,
p5437
F1
sVnight's
p5438
F1
sVeased
p5439
F1
sVfeast
p5440
F1
sVship.
p5441
F2
sVship,
p5442
F2
sVwretch,
p5443
F4
sVpleasures
p5444
F1
sVwretch!
p5445
F2
sVcomposition,
p5446
F1
sVconflict.
p5447
F1
sVartists
p5448
F1
sVrelated
p5449
F1
sVour
p5450
F16
sVindulged
p5451
F1
sVout
p5452
F35
sVsentiment
p5453
F1
sVlow--the
p5454
F1
sVfrankness
p5455
F1
sVpredominant.
p5456
F1
sVtyrannic
p5457
F1
sVconflicts
p5458
F1
sVcompositions
p5459
F2
sVhenry?"
p5460
F1
sVdisgusted:
p5461
F1
sVsupport,
p5462
F1
sVbehaviour,
p5463
F1
sVbehaviour.
p5464
F1
sVgrief--where
p5465
F1
sVconversation
p5466
F8
sVregaining
p5467
F1
sVsupport;
p5468
F1
sVbehaviour:
p5469
F1
sVrespect,
p5470
F2
sVplainly
p5471
F2
sVsickness,
p5472
F1
sVregard.
p5473
F1
sVhitherto
p5474
F2
sVlistless
p5475
F2
sVbehind?
p5476
F1
sVuniting
p5477
F1
sVunknown
p5478
F2
sVmyself,"
p5479
F1
sVpatient,
p5480
F1
sVtheir
p5481
F59
sVenough,
p5482
F1
sVdistinct;
p5483
F1
sVthoughtless.
p5484
F1
sVwanderings
p5485
F1
sV_material_
p5486
F1
sVjoys,
p5487
F1
sVcreditors
p5488
F1
sV"well,
p5489
F1
sVcatholic
p5490
F1
sVafraid
p5491
F1
sVinform
p5492
F2
sVhaunts,
p5493
F1
sVcomfortable.
p5494
F1
sVspeak;
p5495
F1
sVwhich
p5496
F110
sV(she
p5497
F1
sVwho
p5498
F50
sVknight-errant
p5499
F1
sValarmed
p5500
F1
sVwhy
p5501
F2
sV_it
p5502
F1
sVlooked
p5503
F15
sVmansion-house,
p5504
F1
sVadverted
p5505
F1
sVeurope.
p5506
F1
sVone!
p5507
F2
sVconversation;
p5508
F1
sVword,
p5509
F1
sVagreed
p5510
F1
sVone,
p5511
F5
sVfear
p5512
F5
sVone;
p5513
F2
sVpleased
p5514
F2
sVword;
p5515
F1
sVtrue,
p5516
F2
sVsuccour
p5517
F1
sVre-echoed
p5518
F1
sVi!"
p5519
F1
sVvigor
p5520
F1
sVdistress,
p5521
F1
sVwatching
p5522
F1
sVones
p5523
F2
sVdistress;
p5524
F1
sVsectaries;
p5525
F1
sVcoughing,
p5526
F1
sVmarried
p5527
F2
sVhandel's
p5528
F1
sVdeceived
p5529
F1
sVunison
p5530
F1
sVacquired
p5531
F2
sVeyes;
p5532
F4
sVturbulent
p5533
F1
sV"poor
p5534
F1
sVhut,
p5535
F1
sVmerits
p5536
F1
sVrouge,
p5537
F1
sVground,
p5538
F3
sVground.
p5539
F2
sVyoung's
p5540
F1
sVcruel
p5541
F2
sVgenius
p5542
F5
sVclosed
p5543
F2
sVbought
p5544
F1
sVheart.--i
p5545
F1
sVopening
p5546
F1
sVpeace."
p5547
F1
sVarts;
p5548
F1
sVhuts
p5549
F2
sVme.--why
p5550
F1
sVideas,
p5551
F2
sVdeclining
p5552
F3
sVideas!
p5553
F1
sVincessantly,
p5554
F1
sVagain--i
p5555
F1
sVfluctuating;
p5556
F1
sVfluctuating,
p5557
F1
sVdiligently
p5558
F1
sVwalk
p5559
F6
sVnumbers,
p5560
F1
sVfriend,
p5561
F4
sVworldly
p5562
F3
sVrespect
p5563
F7
sVspacious
p5564
F1
sVwaves;--on
p5565
F1
sVsufficient
p5566
F3
sVimproved
p5567
F4
sVpresent
p5568
F13
sVfearful
p5569
F2
sVwished,
p5570
F1
sVwill
p5571
F41
sVlived,
p5572
F1
sVspirits.
p5573
F1
sVlayer
p5574
F1
sVruins.
p5575
F1
sVclamor;
p5576
F1
sVthus
p5577
F5
sVgothic
p5578
F1
sVruins;
p5579
F1
sVgratified?
p5580
F1
sVpreservation,
p5581
F1
sVperhaps
p5582
F5
sVmember
p5583
F1
sVpropensity
p5584
F1
sVmilk-fevers
p5585
F1
sVgrandeur
p5586
F2
sVdifficult
p5587
F1
sV"they
p5588
F1
sVslave
p5589
F2
sVresting-place,
p5590
F1
sVdeparted--this
p5591
F1
sVlaborious
p5592
F1
sVapprove
p5593
F2
sVluxury.
p5594
F1
sVenglish
p5595
F2
sVhumane,
p5596
F1
sVstate."
p5597
F1
sVcried
p5598
F1
sVobtain
p5599
F3
sVcries
p5600
F1
sVrecollection
p5601
F3
sVhappiness
p5602
F6
sVreconsidered
p5603
F1
sVsmite
p5604
F1
sVneighbourhood,
p5605
F1
sVconsole
p5606
F1
sVhastening
p5607
F2
sVother
p5608
F20
sVstowed
p5609
F1
sVsick
p5610
F4
sVcame,
p5611
F4
sVterm
p5612
F1
sVten-fold
p5613
F1
sVknow
p5614
F6
sVpresume
p5615
F1
sVpress
p5616
F1
sV"but
p5617
F2
sVearthquake:
p5618
F1
sVpast;
p5619
F1
sVbecause
p5620
F1
sVsearching
p5621
F1
sVflitted.
p5622
F1
sVemployment
p5623
F3
sVpoet,
p5624
F1
sVlead
p5625
F2
sVsake,
p5626
F1
sVpoets
p5627
F1
sVobey
p5628
F1
sVfaultering
p5629
F1
sVmurdered
p5630
F1
sVconveyed
p5631
F2
sVdeath-like
p5632
F2
sVherself;
p5633
F6
sVrare
p5634
F1
sVcarried
p5635
F6
sVhimself,
p5636
F2
sVuniverse
p5637
F1
sVsmote
p5638
F1
sVherself,
p5639
F10
sVherself.
p5640
F2
sVhimself;
p5641
F1
sVown
p5642
F31
sVpolished
p5643
F3
sVpart-engrossed
p5644
F1
sVweather
p5645
F4
sVpromise
p5646
F5
sVcalling,
p5647
F1
sVintention
p5648
F2
sV"sensibility
p5649
F2
sVdisliked;
p5650
F1
sVslumbers.
p5651
F1
sVslumbers;
p5652
F1
sVsqueeze
p5653
F1
sVselfish
p5654
F4
sVmade
p5655
F51
sVwhether
p5656
F3
sVthis,
p5657
F2
sVthis.
p5658
F1
sVbelow
p5659
F2
sVsympathizing
p5660
F1
sVeagerness
p5661
F3
sVinadequate
p5662
F2
sVwollstonecraft
p5663
F1
sVgoodness
p5664
F2
sVkind.
p5665
F1
sVkind,
p5666
F2
sVhumanized
p5667
F1
sVrank;
p5668
F1
sVbook
p5669
F3
sVbranch
p5670
F1
sVconclusion
p5671
F1
sVnourishment
p5672
F1
sVthus?
p5673
F1
sVearthly
p5674
F3
sVconcur
p5675
F1
sVrhapsody
p5676
F1
sVopened
p5677
F7
sVswain.
p5678
F1
sVroar.
p5679
F1
sVentirely,
p5680
F1
sVnortherly
p5681
F1
sVexpands
p5682
F1
s.