ccollections
defaultdict
p1
(c__builtin__
float
p2
tRp3
Velevation,
p4
F1
sVocean;
p5
F1
sVraining
p6
F1
sVyellow
p7
F2
sVfour
p8
F16
sVprotested,
p9
F1
sVelevation.
p10
F1
sVocean,
p11
F6
sVthirst
p12
F11
sVocean.
p13
F2
sVhanging
p14
F4
sVincrease
p15
F2
sVmorsels,
p16
F1
sVwhither,
p17
F1
sVelectricity
p18
F2
sVpropitious;
p19
F1
sVoriginality
p20
F2
sVstarboard!"
p21
F1
sVsinking
p22
F3
sVdesired
p23
F2
sVwood,
p24
F3
sVwood.
p25
F1
sVadvice,
p26
F1
sV"heaven
p27
F1
sVfoul
p28
F1
sVfingers.
p29
F1
sVbringing
p30
F6
sVdisturb
p31
F1
sVrecollections
p32
F1
sVuttering
p33
F2
sVprize
p34
F1
sVwooden
p35
F2
sVpersisted
p36
F2
sVburke's
p37
F1
sVsouth-west
p38
F4
sV"do
p39
F6
sVspoken,
p40
F1
sVspoken.
p41
F1
sVher.
p42
F4
sVnigh
p43
F1
sVher,
p44
F4
sVcordially
p45
F1
sVher;
p46
F1
sVsecond
p47
F8
sVadmitted.
p48
F1
sVspoken;
p49
F1
sVshrugging
p50
F1
sVsailed
p51
F1
sVscraped
p52
F1
sVloathing
p53
F1
sVinanimate
p54
F2
sVreport;
p55
F1
sVthunder
p56
F2
sVnature.
p57
F1
sVcontributed
p58
F1
sV(which
p59
F1
sVreport,
p60
F2
sVreport.
p61
F2
sVincreasing
p62
F3
sVsuccumb
p63
F1
sVavert
p64
F1
sVresignation.
p65
F1
sVsunbeams
p66
F1
sVinterrupting
p67
F1
sVhere
p68
F13
sVatoms
p69
F1
sVreported
p70
F2
sVchina
p71
F1
sVminiature;
p72
F1
sVshriek
p73
F1
sVchink
p74
F1
sVshock,
p75
F3
sVshock.
p76
F1
sVsubstance
p77
F3
sVsitting,
p78
F1
sVcontingent."
p79
F1
sVclimbed
p80
F1
sV"why
p81
F3
sVreports
p82
F1
sVhitherto,
p83
F3
sV"oh,
p84
F8
sVrays,
p85
F1
sVi'd
p86
F1
sVxiv.
p87
F1
sVtransfixed
p88
F1
sVshock;
p89
F1
sVmilitary
p90
F1
sV"who
p91
F1
sV"oh!
p92
F1
sVcircumstance,
p93
F1
sVdivide
p94
F1
sVbrought
p95
F29
sVremnant
p96
F1
sVbring,
p97
F1
sVstern
p98
F8
sVplunge,
p99
F1
sVspoke
p100
F4
sVtemperature.
p101
F3
sVinsecurity
p102
F1
sVtemperature,
p103
F1
sVoccupying
p104
F2
sVtherefore
p105
F1
sVislet,
p106
F1
sVstrike
p107
F2
sVuntil
p108
F25
sVdry,
p109
F1
sVdry.
p110
F1
sVrelax
p111
F1
sVbrings
p112
F2
sVhereby
p113
F1
sVglass
p114
F1
sV23rd.--this
p115
F1
sVhole
p116
F5
sVhold
p117
F25
sVcircumstances
p118
F5
sVsummits.
p119
F1
sVcaptain's
p120
F7
sVsupply!
p121
F1
sVfrenchmen,
p122
F1
sVahoy!"
p123
F2
sVleaped
p124
F1
sVexample
p125
F1
sVpints
p126
F4
sVtangles,
p127
F1
sVshore.
p128
F2
sVshore,
p129
F4
sVthat."
p130
F1
sVcaution
p131
F1
sVwant
p132
F13
sVdeafened,
p133
F1
sVabsolute
p134
F2
sVaround.
p135
F1
sVplumage,
p136
F1
sVaround,
p137
F2
sVknows
p138
F1
sVturn
p139
F7
sVspeck,
p140
F1
sVfeature
p141
F1
sVhow
p142
F38
sVhot
p143
F4
sV"although,
p144
F1
sVpreferable
p145
F1
sVshores
p146
F2
sVwrong
p147
F2
sVhammers,
p148
F1
sVdestined
p149
F4
sVmisfortune,
p150
F1
sVprofess
p151
F2
sVeffective
p152
F1
sVendeavoured
p153
F5
sVrevolt
p154
F1
sV18th
p155
F3
sVkeeps
p156
F2
sVwind
p157
F50
sVbeings;
p158
F1
sVbrain;
p159
F2
sVrudder,
p160
F2
sVbacon;
p161
F1
sV"isn't
p162
F1
sVbeings.
p163
F1
sVbeings,
p164
F1
sVconsequences.
p165
F4
sV"only
p166
F1
sVfit
p167
F2
sVdied,
p168
F1
sVscreaming
p169
F1
sVform--all
p170
F1
sVsurvivors
p171
F5
sVhidden
p172
F2
sVadmirable
p173
F1
sVready,
p174
F2
sVwelcome,
p175
F1
sVharp-strings;
p176
F1
sVxli.
p177
F1
sVowen.
p178
F2
sV"rather
p179
F1
sVeffects
p180
F1
sVinterrupt
p181
F1
sVsixteen
p182
F2
sVdays,"
p183
F2
sVarrow
p184
F1
sVvolcano
p185
F1
sVisland."
p186
F1
sVbrain,
p187
F1
sVcorrect.
p188
F1
sVseries
p189
F1
sVsolution
p190
F1
sVaft-part
p191
F1
sVfortnight
p192
F1
sVgrilled,
p193
F1
sVcathedral
p194
F1
sVallay
p195
F3
sVcorrect;
p196
F1
sVborne
p197
F2
sVwhale-boat
p198
F4
sVspeed,
p199
F1
sVmisfortune
p200
F1
sVspeed.
p201
F3
sVcarcasses;
p202
F1
sVtoute
p203
F1
sVgrog?"
p204
F1
sVseconds,
p205
F1
sVcheerfully
p206
F1
sVjynxstrop,
p207
F9
sVassured
p208
F2
sVthreatened
p209
F1
sVstrata
p210
F1
sVcrowned
p211
F1
sVestimate
p212
F1
sVknit
p213
F1
sVenormous
p214
F6
sVheavy,
p215
F1
sVheavy.
p216
F1
sVperhaps,
p217
F13
sVflow.
p218
F1
sVsatisfactorily.
p219
F1
sVshipped
p220
F2
sVdisturbed
p221
F5
sVreserving
p222
F1
sVr.
p223
F2
sVfront.
p224
F1
sVpersons!
p225
F1
sVchannels
p226
F4
sV24th.--i
p227
F1
sVantilles
p228
F3
sVsooty
p229
F1
sVbitten
p230
F1
sVsounding-lines
p231
F1
sVservice
p232
F5
sVtired
p233
F1
sVmaster
p234
F2
sV200lbs.,
p235
F1
sVsoundly.
p236
F1
sVlustre
p237
F1
sVlegs
p238
F1
sVbitter
p239
F2
sVothers."
p240
F1
sVvision.
p241
F1
sVlisten
p242
F3
sVwas;
p243
F1
sVdavit,
p244
F1
sVchannel,
p245
F1
sVfalling.
p246
F1
sVtask
p247
F6
sVwas,
p248
F17
sVwas.
p249
F2
sVsulphur
p250
F1
sVpositively
p251
F2
sVperil
p252
F7
sVshowed
p253
F1
sVxi.
p254
F1
sVshower
p255
F3
sVexclaimed
p256
F3
sVjoy
p257
F1
sVfeeling
p258
F5
sVold,
p259
F1
sVentering,
p260
F1
sVwell;
p261
F2
sVheads,
p262
F1
sVwell,
p263
F7
sVwell.
p264
F4
sVguessed,
p265
F1
sVwell!
p266
F1
sVoars,
p267
F1
sValive
p268
F4
sVtools,
p269
F3
sVshifting;
p270
F1
sVregretting
p271
F1
sVresponsible
p272
F2
sV"ay,
p273
F2
sVgallant-sails.
p274
F1
sVeagerly
p275
F9
sVmetallic
p276
F1
sVabsorbed
p277
F4
sVflags
p278
F1
sVdexterity,
p279
F1
sVfellow-passengers
p280
F4
sVshall
p281
F46
sVpelting
p282
F1
sVobject
p283
F2
sVdisjointed
p284
F1
sVpaddle,
p285
F1
sVmouth
p286
F5
sVlong.
p287
F5
sVreverence
p288
F1
sVlong,
p289
F7
sVretaining
p290
F1
sVfast!
p291
F1
sVdoze.
p292
F2
sVstupid
p293
F1
sVgrove
p294
F1
sVdisaffect
p295
F1
sVsinged
p296
F1
sVfugitives
p297
F1
sVincomplete
p298
F1
sVmarvel
p299
F1
sVsaying
p300
F5
sVcannot;
p301
F1
sVdamaged.
p302
F1
sVdamaged,
p303
F1
sVpadded
p304
F1
sVterror,
p305
F3
sVterror.
p306
F1
sVcannot,
p307
F2
sVtempted
p308
F3
sVdamaged;
p309
F1
sVfour-and-twenty
p310
F1
sVhallucination.
p311
F1
sVorleans
p312
F1
sVceased.
p313
F1
sVappreciated
p314
F1
sV"evidently
p315
F1
sVtouched
p316
F4
sVfortitude,
p317
F1
sVboat?"
p318
F1
sVfourteen.
p319
F1
sVresources.
p320
F1
sVremotest
p321
F1
sVdenounce
p322
F1
sVlistened,
p323
F1
sValtogether
p324
F8
sVanchors.
p325
F1
sVscotchman,
p326
F1
sVandre's
p327
F2
sVmen;
p328
F1
sVaccordance
p329
F1
sVthem;
p330
F1
sVpatch
p331
F1
sVmen,
p332
F6
sVmen.
p333
F1
sVrelease
p334
F1
sVthem.
p335
F13
sVthem,
p336
F15
sVxlvi.
p337
F1
sVfait
p338
F1
sVblew
p339
F4
sVfair
p340
F2
sVbe,"
p341
F1
sVresult
p342
F7
sVfail
p343
F5
sVresigned
p344
F2
sVhammer
p345
F3
sVbest
p346
F13
sVresignation,
p347
F1
sVzodiacal
p348
F1
sVlots
p349
F3
sV24th,
p350
F3
sVxxxiii.
p351
F1
sVpreserve
p352
F2
sVmen
p353
F34
sVinundated.
p354
F1
sVnature
p355
F4
sVrolled
p356
F6
sVhold!"
p357
F1
sVjudge--"
p358
F1
sVconflagration
p359
F3
sVrealities,
p360
F1
sVherd
p361
F1
sVcurtis;
p362
F4
sV"stop
p363
F1
sVpity
p364
F1
sVaccident
p365
F1
sVdirectly;
p366
F1
sVearth.
p367
F1
sVpressure.
p368
F1
sVring.
p369
F1
sVsublime
p370
F1
sVxv.
p371
F1
sVasked
p372
F25
sVnay,
p373
F5
sV30th
p374
F1
sVmoney!
p375
F1
sVtwenty-three
p376
F1
sVdoubt"
p377
F1
sVdoubt,
p378
F1
sVvain
p379
F4
sVmoney,
p380
F1
sV2nd
p381
F1
sV20th.--on
p382
F1
sV13th.--the
p383
F1
sV250
p384
F1
sVlighthouse
p385
F1
sVsource
p386
F1
sVgrotto
p387
F4
sVfro
p388
F1
sVvii.
p389
F1
sVmuch
p390
F41
sVlife
p391
F17
sVbit."
p392
F1
sVembarkation,
p393
F1
sVembarkation.
p394
F1
sVforming,
p395
F1
sVwish
p396
F7
sVathwart
p397
F1
sVconfinement
p398
F3
sVincommode
p399
F1
sVchild
p400
F2
sVworked
p401
F5
sVavail.
p402
F2
sVcontemplated
p403
F1
sVrapidity,
p404
F2
sVcontingencies
p405
F1
sV"stiffish
p406
F1
sVtorpor;
p407
F1
sVemploy
p408
F1
sVmates
p409
F2
sVholding,
p410
F1
sVwonted
p411
F2
sVprostrate
p412
F4
sVdeaths.
p413
F1
sVproject
p414
F2
sVvoyage;
p415
F1
sVsaid;
p416
F10
sVsouth;
p417
F2
sVstiff.
p418
F1
sVtop.
p419
F1
sVeighteen
p420
F4
sVstern)
p421
F1
sVsouth.
p422
F1
sVsouth,
p423
F3
sVsaid,
p424
F40
sVsaid.
p425
F8
sVpieces,
p426
F1
sVdevoured,
p427
F1
sVseverity
p428
F1
sVthings
p429
F3
sVpassed;
p430
F1
sVpieces.
p431
F2
sVwended
p432
F1
sVcaptain!"
p433
F1
sVdamages
p434
F1
sVpassed,
p435
F1
sVemphatic
p436
F1
sVvoyager
p437
F1
sVfairly
p438
F2
sVincreased,
p439
F1
sVboiled
p440
F2
sVseamen
p441
F2
sVtwenty-four."
p442
F1
sVhaggard
p443
F1
sVtune
p444
F1
sVvisitation.
p445
F1
sVreplied;
p446
F1
sVdamage,
p447
F2
sVreplied,
p448
F13
sVwhich,
p449
F15
sVrest,--i
p450
F1
sVthing,
p451
F3
sVfeeble,
p452
F2
sVtrack."
p453
F1
sVdistribute
p454
F1
sVshelter'
p455
F1
sVpassengers'
p456
F1
sVdisguise
p457
F1
sVdisporting
p458
F1
sVrushing
p459
F3
sVprevious
p460
F4
sVunwearied
p461
F1
sVham
p462
F9
sVembarked,
p463
F1
sVstep,
p464
F1
sVhad
p465
F465
sVmr.
p466
F53
sVmacdonald
p467
F1
sVeasy
p468
F3
sVsinkin?"
p469
F1
sVhas
p470
F166
sVhat
p471
F1
sVthermometer
p472
F1
sVpossible
p473
F13
sVsleep;
p474
F1
sVafloat."
p475
F1
sVclustered
p476
F1
sVsleep,
p477
F4
sVshadow
p478
F2
sVwhale-boat.
p479
F1
sVopinion.
p480
F2
sVopinion,
p481
F1
sVdesire
p482
F3
sVsteps
p483
F1
sVspoiled.
p484
F1
sVhailstones,
p485
F1
sVworse,
p486
F1
sVspectacle,
p487
F1
sVspectacle.
p488
F1
sVright
p489
F23
sVold
p490
F9
sVcrowd
p491
F1
sVpeople
p492
F2
sVcarolina,
p493
F1
sVus?"
p494
F2
sV"will
p495
F2
sVfire-arms
p496
F1
sVannounced,
p497
F1
sVleft,
p498
F1
sVsubstitute.
p499
F1
sVanimate
p500
F1
sVfor
p501
F359
sVbottom
p502
F6
sVfog
p503
F5
sVloosened,
p504
F1
sVenergy
p505
F4
sVoscillating
p506
F1
sVfurrowed,
p507
F1
sVmad?"
p508
F1
sVlosing
p509
F1
sV"very
p510
F1
sVbenches
p511
F1
sVdollars
p512
F1
sVgrievously
p513
F1
sVrecollect
p514
F2
sVdespair
p515
F2
sVfestoons
p516
F1
sVslightly
p517
F6
sVsmell."
p518
F1
sVmatch
p519
F4
sVconsulting
p520
F3
sVbrutes
p521
F1
sVfulfilled.
p522
F1
sVadminister
p523
F1
sVthankful
p524
F1
sVbeings
p525
F1
sVreducing
p526
F1
sVeagerly.
p527
F2
sVunearthly
p528
F1
sVeagerly,
p529
F2
sVcleared
p530
F1
sVfields,
p531
F1
sValtitude
p532
F2
sVconstantly
p533
F6
sVnova
p534
F1
sVavail
p535
F1
sVtwice.
p536
F1
sVgrasping
p537
F2
sVminute's
p538
F1
sVspring
p539
F1
sVresulted
p540
F1
sVcongratulation,
p541
F1
sVhappy
p542
F4
sV"none
p543
F1
sVwaistcoat
p544
F1
sV5th.--more
p545
F1
sVoffer
p546
F3
sVfascination
p547
F1
sVforming
p548
F1
sVcanopied
p549
F1
sVkiss,
p550
F1
sVscrutiny,
p551
F1
sVextremity
p552
F4
sVinside
p553
F2
sValoof,
p554
F1
sVbarrels,
p555
F1
sVtorturing
p556
F1
sVor,
p557
F1
sVwait.
p558
F2
sVpanels
p559
F1
sVpassenger
p560
F4
sVreserved.
p561
F1
sVproved
p562
F6
sVcontinued.--a
p563
F1
sVmeagre
p564
F4
sVexist
p565
F2
sVpicric
p566
F2
sVvanished;
p567
F1
sVminds!
p568
F1
sVfloor
p569
F1
sVminds.
p570
F2
sVstay-sail
p571
F1
sVmast-head;
p572
F1
sVuttered
p573
F3
sVflood
p574
F2
sVvanished,
p575
F1
sVhelm!"
p576
F1
sVmast-head,
p577
F1
sVroll
p578
F2
sVbarrel,
p579
F4
sVsteamship
p580
F1
sVintend
p581
F1
sVintensest
p582
F1
sVtransported
p583
F1
sVdrops.
p584
F1
sVscale
p585
F1
sVintent
p586
F1
sVrolling
p587
F7
sVfastened
p588
F11
sVobserved,--
p589
F1
sVsniffed
p590
F1
sVmoore.
p591
F1
sVquays,
p592
F1
sVtime
p593
F88
sVoverturned
p594
F1
sVquantity
p595
F4
sVpeacock
p596
F1
sVirrigation
p597
F1
sVchain
p598
F1
sVwhoever
p599
F1
sVconsumed;
p600
F1
sVscarcely,
p601
F1
sVmidst
p602
F6
sVprovided,
p603
F1
sVhappy."
p604
F1
sVrousing
p605
F1
sVhardness."
p606
F1
sVpinched-in
p607
F1
sVlosing,
p608
F1
sVbribed
p609
F1
sVtea,
p610
F1
sVchimeras
p611
F1
sVsolve.
p612
F1
sVcook,
p613
F3
sVcook.
p614
F2
sVpersevere
p615
F3
sVchoice
p616
F2
sVwater-barrels
p617
F1
sVembark
p618
F2
sVgloomy
p619
F2
sVbustle
p620
F2
sVstays
p621
F1
sVfullest
p622
F1
sVwhile,
p623
F2
sVspring-tide,
p624
F2
sVminute
p625
F1
sV1700
p626
F2
sVtear
p627
F2
sVcarpenter,
p628
F4
sVleave
p629
F15
sVsolved
p630
F1
sVspeculation
p631
F1
sVcarpenter;
p632
F2
sVprevent
p633
F6
sVbe
p634
F325
sVtoo,"
p635
F1
sVsign
p636
F5
sVlengthened
p637
F1
sVgnawed
p638
F4
sVroof
p639
F1
sV"everything
p640
F1
sVirregular.
p641
F1
sVarm,
p642
F3
sVportions,
p643
F1
sVcurrent
p644
F5
sVexample.
p645
F1
sVandre!"
p646
F1
sVpretty.
p647
F1
sVfalling
p648
F4
sVpassenger.
p649
F2
sVdust,
p650
F1
sVhonour
p651
F1
sVtorpid
p652
F1
sVyards
p653
F3
sValone
p654
F13
sVfinding,
p655
F2
sValong
p656
F24
sVpassengers
p657
F24
sVbrilliant
p658
F1
sVwherever
p659
F1
sVdegrees,
p660
F1
sVbrazilian
p661
F1
sVaccomplished
p662
F2
sVseen;
p663
F1
sVgod!"
p664
F1
sVcopper.
p665
F1
sVcopper,
p666
F1
sVlove
p667
F1
sVprefer
p668
F1
sVbloody
p669
F1
sVmarvelous
p670
F3
sVbetraying
p671
F1
sVbended
p672
F1
sVmurderers.
p673
F1
sVundergone
p674
F1
sVit,"
p675
F2
sVworking
p676
F5
sVperished
p677
F1
sVpositive
p678
F1
sVangry
p679
F2
sVtightly
p680
F8
sVbelieve,
p681
F2
sVbelieve.
p682
F1
sVopposed
p683
F1
sVdampness
p684
F1
sVafford
p685
F3
sVapparent
p686
F1
sVfrenchman;
p687
F1
sVodious
p688
F1
sVignorant
p689
F4
sVdreaded,
p690
F1
sVblood.
p691
F1
sVcoasted,
p692
F1
sVtask.
p693
F4
sVrebounding
p694
F1
sVvalued
p695
F1
sVpretend
p696
F1
sVimagination,
p697
F1
sVbelieves
p698
F1
sVstrain
p699
F1
sVseen,
p700
F1
sVbelieved
p701
F2
sVcapsize;
p702
F1
sVimagination?
p703
F1
sVhydrography
p704
F1
sVport."
p705
F1
sVheard.
p706
F2
sVheard,
p707
F2
sVallowed
p708
F8
sVevidently
p709
F17
sVlistens
p710
F1
sVfittings,
p711
F1
sVpiled
p712
F1
sVdivided
p713
F3
sVequilibrium;
p714
F1
sVvainly
p715
F2
sVthunder,
p716
F2
sVs.
p717
F1
sVscent;
p718
F1
sVstormy.
p719
F1
sVnorthwards
p720
F1
sVthunder;
p721
F1
sVrevolted
p722
F1
sVencampment
p723
F1
sVsnaps
p724
F1
sV"there's
p725
F1
sVblasting
p726
F2
sVspot
p727
F6
sVunfreighted.
p728
F1
sVdate
p729
F1
sVsuch
p730
F45
sVrevealed
p731
F1
sVnatural
p732
F6
sVfirst."
p733
F1
sVconscious
p734
F8
sVgroaned
p735
F1
sVyielding
p736
F2
sVso
p737
F127
sVswollen
p738
F3
sVsa
p739
F1
sVpulled
p740
F1
sVregimen
p741
F2
sVse
p742
F3
sVunwilling,
p743
F1
sVdrunken
p744
F2
sVrepair
p745
F3
sVbelow.
p746
F4
sVoverclouded,
p747
F2
sVyears
p748
F12
sVcourse
p749
F27
sV"haul
p750
F1
sVdead!"
p751
F1
sVbelow;
p752
F1
sVoverclouded;
p753
F1
sVsavoury
p754
F1
sVtendency
p755
F1
sVtore
p756
F4
sVsolitary
p757
F2
sVlimbs
p758
F2
sVhaughty
p759
F1
sVaround?
p760
F1
sVdid,
p761
F2
sVtorn
p762
F4
sVtroubles
p763
F1
sVsuspicion
p764
F3
sVdead.
p765
F1
sVdead,
p766
F1
sVtroubled
p767
F2
sVinstantly
p768
F6
sVconveying
p769
F3
sVbrig,
p770
F1
sVphysiognomist,
p771
F1
sVnation
p772
F1
sVanswer
p773
F7
sVyear.
p774
F1
sVoverpowering
p775
F1
sVcompelled
p776
F1
sVawaited
p777
F3
sVreckoning
p778
F4
sVtwilight
p779
F2
sVxxxviii.
p780
F1
sVtrouble?
p781
F1
sVdespair,--
p782
F1
sVshouted
p783
F5
sVunchoked
p784
F1
sVsorrow."
p785
F1
sVquarter
p786
F18
sVflaypole.
p787
F1
sVflaypole,
p788
F9
sVindisposition,
p789
F1
sVbursting
p790
F1
sVsmall;
p791
F1
sVnames?
p792
F1
sVrecording,
p793
F1
sVprisms
p794
F1
sVright."
p795
F2
sVowing
p796
F2
sVentering
p797
F3
sVprudently
p798
F1
sVsmall,
p799
F2
sVneighbourhood
p800
F1
sVcanvas
p801
F3
sVroute.
p802
F1
sVroute,
p803
F1
sVrounding
p804
F1
sVbass,
p805
F1
sVbirth."
p806
F1
sVabide
p807
F1
sVseriously
p808
F5
sVformula
p809
F1
sVsomehow."
p810
F1
sVshark,
p811
F2
sVseventh
p812
F1
sVpossibility
p813
F2
sVquite
p814
F56
sVnovember,
p815
F1
sVintensely
p816
F2
sVyou?"
p817
F1
sVremainder
p818
F5
sVsquare,
p819
F1
sV"how
p820
F1
sVtasting
p821
F2
sVprotection,
p822
F1
sVmodest
p823
F1
sVemotion
p824
F1
sVsaving
p825
F2
sVspoken
p826
F2
sV20th.--the
p827
F1
sVone
p828
F165
sVhypocrite!
p829
F1
sVopen
p830
F8
sVsea-sickness
p831
F1
sVaffords
p832
F1
sV"come
p833
F1
sVindicate
p834
F3
sVstifled
p835
F3
sVaccustomed.
p836
F1
sVbits
p837
F3
sVlingering
p838
F5
sVvapours
p839
F3
sV"let
p840
F1
sVon.
p841
F3
sVon,
p842
F8
sVfallen.
p843
F1
sVshawl
p844
F1
sVmuch,
p845
F3
sVmuch.
p846
F1
sVsnatch
p847
F1
sVon;
p848
F2
sVridiculous
p849
F1
sVlaminary
p850
F1
sVspoke;
p851
F1
sVvapour,
p852
F1
sVstructure.
p853
F1
sVvapour.
p854
F2
sVstructure,
p855
F1
sVcayenne,
p856
F1
sVtaffrail,
p857
F1
sVfuture
p858
F4
sVbit;
p859
F1
sVvapour;
p860
F1
sVuninhabitable.
p861
F1
sVwandering
p862
F1
sVprospect
p863
F2
sVremark.
p864
F1
sVturned
p865
F16
sVforebodings,
p866
F1
sVsad
p867
F1
sVremark;
p868
F1
sVtomorrow,"
p869
F1
sVsay
p870
F20
sVsaw
p871
F22
sVsat
p872
F3
sVstill,
p873
F3
sVillness,
p874
F1
sVaside
p875
F2
sVinstructed
p876
F1
sVnote
p877
F2
sV"ship
p878
F1
sVcold,
p879
F2
sVtake
p880
F43
sVwanting
p881
F2
sVcongratulations,
p882
F1
sVall."
p883
F1
sValtered
p884
F1
sVwilson,
p885
F3
sVknew
p886
F16
sVafternoon,
p887
F1
sVangles,
p888
F1
sVvoluntary
p889
F1
sVtrembles
p890
F1
sVnonentity;
p891
F1
sVmass;
p892
F1
sVbade
p893
F1
sVglimmer.
p894
F1
sVnot,
p895
F8
sVmass.
p896
F1
sVsalt
p897
F8
sVtrembled
p898
F2
sVwalking
p899
F4
sVxxxii.
p900
F1
sVimagines
p901
F1
sVrejoice,
p902
F1
sVbright
p903
F1
sVchiselled
p904
F1
sV"back
p905
F1
sVinwards,
p906
F1
sVrelief.
p907
F2
sVslow
p908
F3
sVoutside
p909
F3
sVtears
p910
F2
sVgoing
p911
F17
sVuppermost
p912
F1
sVnothing;
p913
F1
sVcarolina
p914
F1
sVguarded
p915
F1
sVusual,
p916
F3
sVusual.
p917
F2
sVwrinkles,
p918
F1
sVusual;
p919
F1
sVbrandy.
p920
F2
sVbrandy,
p921
F6
sVcry,--
p922
F1
sVbrandy!
p923
F1
sVmurmur,
p924
F2
sVresource
p925
F1
sVsousings
p926
F1
sVkeenly
p927
F2
sVborrow
p928
F2
sVmaps,
p929
F1
sVrecoiling
p930
F1
sVwhere
p931
F32
sVvision
p932
F3
sVsharply.
p933
F1
sVsheathed
p934
F1
sVraged
p935
F3
sVspar;
p936
F1
sVdived
p937
F1
sV"why,
p938
F4
sVoff.
p939
F1
sVimpressions
p940
F1
sVhastened
p941
F2
sVaroused
p942
F6
sVspar,
p943
F1
sVcried,
p944
F1
sVostensibly
p945
F1
sValarming
p946
F1
sVman;
p947
F1
sVforecastle,
p948
F3
sVforecastle.
p949
F2
sVknees,
p950
F3
sVaffecting
p951
F1
sVforecastle;
p952
F3
sVman,
p953
F8
sVforsake
p954
F2
sVdecks
p955
F1
sVspars
p956
F8
sVimpregnated
p957
F2
sVletourneur
p958
F63
sVspare
p959
F6
sVrage;
p960
F1
sVjets
p961
F1
sVspark
p962
F3
sVgratiolet,
p963
F1
sVdeck,
p964
F12
sVdeck.
p965
F10
sVconversed
p966
F1
sVpeople,
p967
F2
sVparapet
p968
F3
sVmany
p969
F24
sVpoop;
p970
F1
sVthickly
p971
F2
sVrepresentative,
p972
F1
sVdeck;
p973
F4
sVpoop.
p974
F12
sVpoop,
p975
F12
sVexpression
p976
F6
sVcan't
p977
F3
sVallowance
p978
F8
sVwant?
p979
F1
sVmeal,
p980
F1
sVdislocation
p981
F1
sVconsiders
p982
F2
sVboat
p983
F9
sVwant,
p984
F1
sVfitful
p985
F1
sVcoming;
p986
F1
sVrollings
p987
F1
sVwest
p988
F2
sVflappings
p989
F1
sVmutinous
p990
F2
sVbreath
p991
F5
sVdefined
p992
F2
sVpractised
p993
F1
sVwants
p994
F2
sVpanic,
p995
F1
sVenable
p996
F2
sVlife-giving
p997
F1
sVformed
p998
F11
sVobserve
p999
F2
sVabject
p1000
F1
sVunclouded
p1001
F2
sVelement?
p1002
F1
sVformer
p1003
F4
sV'chancellor'
p1004
F5
sVconsulted
p1005
F2
sVeasier
p1006
F1
sVhis,
p1007
F1
sVxxv.
p1008
F1
sVsituation
p1009
F7
sVendured
p1010
F3
sVrolling.
p1011
F1
sVmeal;
p1012
F1
sVcoolly.
p1013
F1
sVinflammability."
p1014
F1
sVmutineers
p1015
F1
sVbrow
p1016
F3
sVsurveying
p1017
F1
sVengaged
p1018
F2
sVedge.
p1019
F2
sVlost;
p1020
F1
sVtop-mast,
p1021
F1
sVowen,
p1022
F13
sVadopted.
p1023
F1
sVmercies
p1024
F1
sVthreatens
p1025
F1
sVtrain.
p1026
F1
sVperpetually
p1027
F5
sVit."
p1028
F8
sVforebodings
p1029
F1
sVmuffled,
p1030
F1
sVphantom
p1031
F2
sVmercilessness
p1032
F1
sValight.
p1033
F2
sValight,
p1034
F1
sVtop-masts
p1035
F4
sViv.
p1036
F1
sV"think;
p1037
F1
sVmotionless,
p1038
F2
sVmotionless.
p1039
F2
sVimpatiently,
p1040
F1
sVvacant
p1041
F1
sVmadness,
p1042
F1
sV"dear
p1043
F1
sVcomes
p1044
F1
sVvessel."
p1045
F1
sVfixing
p1046
F1
sV"dead
p1047
F1
sVpersistently
p1048
F1
sVsummer
p1049
F2
sVfollowed.
p1050
F1
sVmanifold
p1051
F1
sVofficers.
p1052
F2
sVofficers,
p1053
F1
sVrest
p1054
F14
sVslimy
p1055
F1
sVfollowed;
p1056
F1
sVgesture;
p1057
F1
sVruby,
p1058
F10
sVdeceiving
p1059
F2
sVgrounded
p1060
F1
sVoperation.
p1061
F1
sVskull."
p1062
F1
sVloudly,
p1063
F1
sVruby;
p1064
F1
sVstrange,
p1065
F1
sVpotash
p1066
F3
sVoppressive.
p1067
F2
sVstarving
p1068
F1
sVoppressive,
p1069
F2
sVaround
p1070
F20
sVstudding-sails,
p1071
F1
sVdecomposed
p1072
F1
sVdart
p1073
F2
sVdark
p1074
F8
sVscraps
p1075
F2
sV10.57
p1076
F1
sVoppressive;
p1077
F1
sVworld
p1078
F5
sVxix.
p1079
F1
sVboats,
p1080
F1
sVdare
p1081
F6
sVboats.
p1082
F1
sVpartaking
p1083
F1
sVunrelaxing
p1084
F1
sVstranger
p1085
F1
sVhunger,
p1086
F2
sVhunger.
p1087
F4
sVgleaming,
p1088
F1
sVtortures.
p1089
F1
sVandre.
p1090
F3
sVhunger:
p1091
F1
sVhunger;
p1092
F2
sVdestroy;
p1093
F1
sVlikely,
p1094
F1
sVthinks
p1095
F2
sVmouthful;
p1096
F1
sVdimensions
p1097
F2
sVattacks,
p1098
F1
sVnoon
p1099
F1
sVseaman
p1100
F1
sVaforesaid,
p1101
F1
sVcorrosive
p1102
F1
sVcountenances
p1103
F2
sV23rd
p1104
F4
sVviii.
p1105
F1
sVorigin,
p1106
F1
sVyes!
p1107
F1
sVthink.
p1108
F1
sVwaited.
p1109
F1
sVthink,
p1110
F2
sVscientific
p1111
F1
sVpower
p1112
F16
sVration
p1113
F3
sVsprung
p1114
F1
sVmoment,"
p1115
F1
sVprepared
p1116
F5
sVfrenchman
p1117
F1
sVstone
p1118
F1
sVpackage
p1119
F3
sVcountenance.
p1120
F2
sVcountenance,
p1121
F1
sVpartial,
p1122
F1
sVsplashing,
p1123
F1
sVvapourous
p1124
F1
sVpracticable
p1125
F2
sVact
p1126
F6
sVluck
p1127
F1
sVcountenance;
p1128
F1
sVtempest.'"
p1129
F1
sVsuch,
p1130
F2
sVlonging;
p1131
F1
sVcurling
p1132
F1
sVburning
p1133
F6
sVinformed
p1134
F8
sVelectricity.
p1135
F1
sVforehead,
p1136
F1
sVforehead.
p1137
F2
sVlonging.
p1138
F1
sVlively
p1139
F2
sVhomeless
p1140
F1
sVcontinent.
p1141
F1
sVsurvive.
p1142
F1
sVsurvive,
p1143
F1
sVdawned
p1144
F1
sVcared
p1145
F1
sVscotia,
p1146
F1
sVappeared,
p1147
F6
sVher
p1148
F157
sVappeared.
p1149
F2
sVgleam
p1150
F1
sVenduring?
p1151
F1
sVwithal,
p1152
F1
sVmeals
p1153
F1
sVsecretion
p1154
F1
sVenduring.
p1155
F3
sVbristled
p1156
F1
sVsurvives
p1157
F2
sVcomplete
p1158
F8
sVshrieked.
p1159
F1
sVgliding
p1160
F1
sVanother.
p1161
F3
sVsurvived
p1162
F1
sVanother,
p1163
F2
sVwith
p1164
F420
sVbuying
p1165
F1
sVsand-banks.
p1166
F1
sVrush
p1167
F6
sVoctober
p1168
F16
sVrage
p1169
F5
sVmoorings.
p1170
F1
sVdirty
p1171
F1
sVattentions,
p1172
F1
sVhe.
p1173
F1
sVage
p1174
F1
sVchest,
p1175
F1
sVlaird
p1176
F3
sVexhausted
p1177
F1
sVcertain
p1178
F12
sVaccents
p1179
F2
sVravenously,
p1180
F1
sVam
p1181
F36
sVwatches
p1182
F1
sVan
p1183
F172
sVas
p1184
F494
sV13th,
p1185
F3
sVworn-out
p1186
F1
sVwatched
p1187
F4
sVtremble
p1188
F1
sVattendance.
p1189
F1
sVprospects.
p1190
F1
sVsargassos,
p1191
F1
sVwathery
p1192
F1
sVsanguine
p1193
F8
sVmen--o'ready,
p1194
F1
sVincomprehensible
p1195
F2
sVoh,
p1196
F1
sVconjectures
p1197
F1
sVoh!
p1198
F2
sVself,
p1199
F1
sVaccounts
p1200
F2
sVinfirmity
p1201
F2
sVguiana,
p1202
F3
sVscuds
p1203
F1
sVguiana.
p1204
F1
sVmast
p1205
F4
sVmass
p1206
F6
sVoriginal
p1207
F2
sVelements,
p1208
F1
sVconsider
p1209
F4
sVelements.
p1210
F1
sVcaused
p1211
F10
sVinstincts
p1212
F1
sVwelfare
p1213
F1
sVinstantly,
p1214
F1
sVdusk,
p1215
F1
sVfriendless
p1216
F1
sVcondescends
p1217
F1
sVduty,
p1218
F2
sVchance."
p1219
F1
sVto
p1220
F1591
sVtail
p1221
F2
sVsmile
p1222
F2
sV"six
p1223
F3
sVcause,
p1224
F1
sVoath.
p1225
F1
sVreturned
p1226
F18
sVpuzzled
p1227
F1
sVprofession.
p1228
F1
sVfloated
p1229
F3
sVdiary
p1230
F1
sV24th
p1231
F2
sVislands.
p1232
F1
sVislands,
p1233
F2
sV17th
p1234
F1
sVposition--i
p1235
F1
sVfellow-passengers,
p1236
F3
sVbroken,
p1237
F2
sVmeal-times;
p1238
F1
sVdanger,
p1239
F2
sVdusky
p1240
F3
sVsmall
p1241
F15
sVfellow-passengers;
p1242
F1
sVsank
p1243
F4
sVcorrect
p1244
F1
sVhour!
p1245
F1
sVprotectors,
p1246
F1
sVlife;
p1247
F2
sVdeferred.
p1248
F1
sVhour.
p1249
F8
sVhour,
p1250
F2
sVpast
p1251
F2
sVdisappeared.
p1252
F3
sVpass
p1253
F3
sVlying.
p1254
F1
sVcare;
p1255
F1
sVsituated
p1256
F2
sVtransparent,
p1257
F1
sVplanking,
p1258
F1
sVforestall
p1259
F1
sVsection
p1260
F1
sVundecided
p1261
F1
sVluxuries
p1262
F1
sVcontrast
p1263
F1
sVfull
p1264
F14
sVescaping
p1265
F2
sVcanvas,
p1266
F1
sVcarriage.
p1267
F1
sVcarriage,
p1268
F1
sVleaping
p1269
F1
sVvomiting
p1270
F1
sVhours
p1271
F16
sVnovember
p1272
F6
sVdisappeared;
p1273
F1
sVyourself;
p1274
F1
sVexperience
p1275
F3
sVyourself.
p1276
F1
sV"but,
p1277
F2
sVaction
p1278
F8
sVbusiness,"
p1279
F1
sVstorms,
p1280
F1
sVbenches,
p1281
F1
sVfollowed
p1282
F16
sVkiss
p1283
F1
sVbeheld
p1284
F3
sVlots!
p1285
F1
sVdowlas
p1286
F24
sVpetroleum
p1287
F3
sVwatch,
p1288
F5
sVwatch.
p1289
F2
sVwavering
p1290
F1
sVpitching
p1291
F1
sV"but,"
p1292
F1
sVlavin'
p1293
F1
sVmore
p1294
F102
sVdoor
p1295
F1
sVfear,"
p1296
F1
sVsubstances
p1297
F1
sVperson.
p1298
F2
sVvi.
p1299
F1
sVjocosely
p1300
F1
sVpermitted,
p1301
F1
sVkeeping
p1302
F4
sVpleasing
p1303
F1
sVcentrifugal
p1304
F1
sVsent
p1305
F3
sVgesticulating
p1306
F1
sVlearn
p1307
F1
sVknocked
p1308
F3
sVbeautiful
p1309
F1
sVprompt
p1310
F2
sV(with
p1311
F1
sVscan
p1312
F1
sVwave,
p1313
F4
sVwave.
p1314
F3
sVconvenience,
p1315
F1
sVaccept
p1316
F1
sVautumn
p1317
F1
sVobliquely
p1318
F2
sVfiercely
p1319
F1
sVsense
p1320
F7
sVwave;
p1321
F1
sVhuge
p1322
F4
sVtropics."
p1323
F1
sVimminent
p1324
F2
sVsympathy.
p1325
F1
sVglowing
p1326
F2
sVfiercely,
p1327
F1
sVcling
p1328
F1
sVcreature
p1329
F2
sVunburdened
p1330
F1
sVsalt,
p1331
F1
sVintended
p1332
F2
sV"never
p1333
F4
sVstate,
p1334
F1
sVmended
p1335
F1
sVsuggestion,
p1336
F1
sVwaves
p1337
F22
sVplank
p1338
F2
sVcontinued.--it
p1339
F1
sVrefuse
p1340
F2
sVplough.
p1341
F1
sVfundamental
p1342
F1
sVcases,
p1343
F1
sVhalf-pound
p1344
F2
sVreplied
p1345
F15
sVhorizons,
p1346
F1
sVincessantly
p1347
F1
sVrigid;
p1348
F1
sVinstalled
p1349
F1
sVpaper
p1350
F5
sVsigns
p1351
F1
sVagain:--"three
p1352
F1
sVits
p1353
F76
sVham!"
p1354
F1
sVemetic.
p1355
F1
sVcourse!
p1356
F1
sVrapidly
p1357
F12
sVlivid-looking
p1358
F1
sVcourse.
p1359
F3
sVcourse,
p1360
F8
sVsymptoms
p1361
F3
sVtruth,
p1362
F5
sVcourse;
p1363
F2
sVhungry!
p1364
F1
sVit.
p1365
F12
sVit,
p1366
F21
sVpropose
p1367
F1
sVship?"
p1368
F2
sVstranded,
p1369
F1
sVstranded.
p1370
F1
sVit!
p1371
F1
sVit?
p1372
F1
sVit;
p1373
F6
sV"surely,"
p1374
F1
sVpraised!"
p1375
F1
sVpassage.
p1376
F3
sVsucked
p1377
F1
sVdesignation
p1378
F1
sVcoping
p1379
F1
sVall.
p1380
F8
sVall,
p1381
F28
sVconvulsions.
p1382
F1
sVfound
p1383
F35
sVshocking
p1384
F2
sVmen,"
p1385
F1
sVall;
p1386
F1
sVall:
p1387
F2
sVchipping
p1388
F1
sVcurtis?"
p1389
F1
sVrise,
p1390
F1
sVresolute
p1391
F2
sVjerk,
p1392
F1
sVreduce
p1393
F2
sVquick!
p1394
F1
sVoperation
p1395
F5
sVquick,
p1396
F2
sVelectrical.
p1397
F1
sVprecious."
p1398
F1
sVanxious
p1399
F8
sVstifling,
p1400
F1
sVstifling.
p1401
F1
sVattentions
p1402
F1
sVwater?"
p1403
F1
sVbelief
p1404
F2
sVrisen
p1405
F1
sVdrifting
p1406
F2
sVcontinued.--curtis,
p1407
F1
sVmurmur
p1408
F4
sVimagine
p1409
F1
sVstomach
p1410
F2
sVwell-nigh
p1411
F3
sVrises
p1412
F5
sVreproach
p1413
F1
sVreaction,
p1414
F1
sVattention,
p1415
F4
sVattention.
p1416
F1
sVwoman's
p1417
F1
sVcrawled,
p1418
F1
sVexpedient
p1419
F2
sVcontingency
p1420
F1
sV"besides,
p1421
F1
sVexhibited
p1422
F2
sVinquire;
p1423
F1
sVarose
p1424
F2
sVasunder.
p1425
F1
sVasunder,
p1426
F1
sVgazed
p1427
F1
sVclearly-defined
p1428
F1
sVslipped
p1429
F3
sVcables-lengths
p1430
F1
sVnumber
p1431
F9
sVmurmured
p1432
F1
sVthis?"
p1433
F1
sVguess
p1434
F1
sVpeaceable
p1435
F1
sVheads
p1436
F4
sVsuddenly,
p1437
F4
sVthreatening
p1438
F2
sVother,
p1439
F4
sVmizzen
p1440
F3
sVsyllables
p1441
F1
sVdetermine,
p1442
F1
sVjustly
p1443
F1
sVfirst,
p1444
F2
sVfirst.
p1445
F2
sVgaze,
p1446
F1
sVimmediate
p1447
F3
sVtaffrail
p1448
F1
sVconsult
p1449
F1
sVforward,
p1450
F1
sVgaze;
p1451
F1
sVserene
p1452
F2
sVsure,
p1453
F2
sVship--"
p1454
F1
sVdetermined
p1455
F14
sV"overboard
p1456
F2
sVfishermen
p1457
F1
sVhot.
p1458
F1
sVhead,
p1459
F4
sVexertion,
p1460
F1
sVnavigators
p1461
F1
sVsupposed,
p1462
F1
sVxlvii.
p1463
F1
sVtough
p1464
F1
sV"curtis,
p1465
F1
sVcommotion
p1466
F2
sVwish,
p1467
F1
sValso
p1468
F6
sVrecognizing
p1469
F1
sVinternal
p1470
F1
sVhour's
p1471
F1
sVfrail
p1472
F4
sVxlii.
p1473
F1
sVbrace
p1474
F2
sVsupported,
p1475
F1
sVeffecting
p1476
F2
sVsupported.
p1477
F1
sVyawn
p1478
F1
sVyawl
p1479
F1
sVplan
p1480
F4
sVaccepting
p1481
F1
sVunderstands
p1482
F1
sVunequal
p1483
F1
sVseize
p1484
F2
sVapparatus,
p1485
F1
sVends;
p1486
F1
sVartistic
p1487
F1
sVbarren
p1488
F1
sVbarrel
p1489
F8
sVcharged
p1490
F1
sVcommand!"
p1491
F1
sVhoisted
p1492
F4
sVdefended
p1493
F1
sVfreight
p1494
F4
sVoverwhelmed
p1495
F3
sVoccupation
p1496
F1
sV"thank
p1497
F1
sVfailed
p1498
F5
sVexaggerated;
p1499
F1
sVimperiled;
p1500
F1
sVcolumns
p1501
F2
sVcenturies.
p1502
F1
sVdependent
p1503
F1
sValive.
p1504
F2
sValive,
p1505
F3
sVpreparing
p1506
F6
sVclosely
p1507
F6
sVcompass
p1508
F3
sValive;
p1509
F1
sVenemy
p1510
F1
sVdevoured
p1511
F6
sVstifled;
p1512
F1
sVcry
p1513
F8
sVsir?"
p1514
F1
sVcleaving
p1515
F1
sVsojourn
p1516
F1
sVwrite,
p1517
F1
sVdisappointment;
p1518
F1
sVkill
p1519
F2
sVriver
p1520
F1
sVsecondly,
p1521
F2
sVapproaching
p1522
F7
sVinsane
p1523
F1
sVcoarsest
p1524
F1
sVset
p1525
F21
sVeverything;
p1526
F1
sVcertain:
p1527
F1
sVsee
p1528
F31
sVidly
p1529
F2
sVsea
p1530
F38
sVoverboard
p1531
F8
sVknees
p1532
F2
sVspirits
p1533
F4
sVgirl.
p1534
F1
sVguinea
p1535
F1
sVknow."
p1536
F1
sVcopper
p1537
F1
sVmonsters
p1538
F4
sV15th
p1539
F3
sVknowing
p1540
F2
sVrestless,
p1541
F1
sVunflagging
p1542
F1
sVjaws,
p1543
F2
sVincident
p1544
F4
sVmitigating
p1545
F1
sVdiminution
p1546
F2
sVhopelessly,
p1547
F2
sVlast
p1548
F50
sVvisible,
p1549
F1
sVharps
p1550
F2
sVbarely
p1551
F4
sVago,"
p1552
F1
sVboy!"
p1553
F1
sVrose
p1554
F19
sVlet
p1555
F23
sVspirit,
p1556
F1
sVwhole
p1557
F22
sVreached,
p1558
F1
sVload
p1559
F1
sVanxious,
p1560
F1
sVsoundings
p1561
F1
sVacted
p1562
F3
sVsmashing
p1563
F1
sVsilence.
p1564
F4
sVsilence,
p1565
F8
sVanswered;
p1566
F3
sVassented.
p1567
F1
sVassented,
p1568
F1
sVconnexion
p1569
F1
sVdrawn,
p1570
F1
sVfevered
p1571
F1
sVbermudas,
p1572
F3
sVconvicted
p1573
F1
sVquench
p1574
F1
sVco.,
p1575
F2
sVbermudas?
p1576
F1
sVbermudas;
p1577
F1
sVfirm
p1578
F6
sVresting
p1579
F2
sVsilenced
p1580
F1
sVfire
p1581
F35
sVhobart's
p1582
F1
sVobstinacy,
p1583
F1
sVmine
p1584
F6
sVreticence
p1585
F1
sVmoderation
p1586
F1
sVsounding,
p1587
F1
sVstruck
p1588
F7
sVxvii.
p1589
F1
sVblowing,
p1590
F1
sVstraight
p1591
F6
sVremains.
p1592
F1
sVforgetting
p1593
F1
sVpressed
p1594
F2
sVleaning
p1595
F5
sVmonsters,
p1596
F1
sVsecluded
p1597
F1
sVpound
p1598
F1
sVhoping
p1599
F2
sVagitation
p1600
F1
sVwaist,
p1601
F1
sVowen
p1602
F20
sVclouds,
p1603
F3
sVlevel.
p1604
F1
sVclouds.
p1605
F1
sV"look
p1606
F2
sVlevel;
p1607
F1
sVfallacies
p1608
F1
sVelevated
p1609
F3
sVread
p1610
F2
sVsoundings,
p1611
F1
sVflooded
p1612
F1
sVcabin."
p1613
F1
sVmaning,"
p1614
F1
sVleaps
p1615
F1
sVwaists
p1616
F1
sVnecessity
p1617
F3
sVstack
p1618
F1
sVrecent
p1619
F2
sVconsolation;
p1620
F1
sVinches.
p1621
F1
sVloathsome
p1622
F2
sVperson
p1623
F3
sVyet,
p1624
F4
sVclasped
p1625
F1
sVcabins
p1626
F3
sVdrunk,
p1627
F1
sVbehold--don't
p1628
F1
sVrumbling
p1629
F1
sVusing
p1630
F1
sVvictim.
p1631
F3
sVvictim,
p1632
F2
sVus,"
p1633
F3
sVtin
p1634
F3
sVselfishness.
p1635
F1
sVladies.
p1636
F1
sVtribe,
p1637
F1
sVconfinement,
p1638
F2
sVdesist
p1639
F1
sVcommunication,
p1640
F1
sVsignals
p1641
F1
sVeager
p1642
F7
sVparents
p1643
F1
sVruled
p1644
F1
sVsurprised
p1645
F4
sVclutches
p1646
F1
sVvictims
p1647
F1
sVcouple
p1648
F11
sVarrest.
p1649
F1
sVjoined
p1650
F13
sVsuffering
p1651
F5
sVclutched
p1652
F3
sVprivate
p1653
F1
sVcabin.
p1654
F2
sVcabin,
p1655
F7
sVdistinguished;
p1656
F1
sVimposed
p1657
F1
sVhue,
p1658
F1
sVthough,"
p1659
F1
sVcontinue
p1660
F4
sVcoast."
p1661
F1
sVsurprise,
p1662
F2
sVreader.
p1663
F1
sVtradesman.
p1664
F1
sV"well,"
p1665
F1
sVpredicament;
p1666
F1
sVtell,
p1667
F1
sVsighs
p1668
F2
sVmighty
p1669
F3
sVsight
p1670
F12
sV"curtis,"
p1671
F1
sVcurious
p1672
F3
sVpale
p1673
F3
sVpulses,
p1674
F1
sVmomentary
p1675
F1
sVfather?"
p1676
F2
sV20th,
p1677
F3
sVconvulsions
p1678
F1
sVseclusion
p1679
F1
sVtransient;
p1680
F1
sVmight,
p1681
F2
sVplaced."
p1682
F1
sVsigh,
p1683
F1
sVnowhere
p1684
F3
sVmight;
p1685
F1
sVby
p1686
F298
sVexcursions
p1687
F1
sVanything
p1688
F10
sVconvulsion.
p1689
F1
sVexaggerated
p1690
F1
sVhatchet
p1691
F5
sVhatches
p1692
F2
sVvoices,
p1693
F2
sVvoracity;
p1694
F1
sVsternly,
p1695
F2
sVletter
p1696
F2
sVinto
p1697
F117
sVfast,
p1698
F2
sVgunpowder;
p1699
F1
sVrepaid
p1700
F1
sVsavoure,
p1701
F1
sVspending
p1702
F1
sVsubmit
p1703
F2
sVoccupy
p1704
F1
sVcoarse-minded
p1705
F1
sVspar
p1706
F2
sVredoubled
p1707
F4
sVfoggy.
p1708
F1
sVfade.
p1709
F1
sVconsiderably
p1710
F10
sVinches
p1711
F2
sVlink
p1712
F2
sVline
p1713
F10
sVconsiderable
p1714
F8
sVposted
p1715
F1
sVopen,
p1716
F1
sVopen.
p1717
F2
sVup
p1718
F86
sVus
p1719
F160
sVnightmares;
p1720
F1
sVcontinuously
p1721
F1
sValarm
p1722
F1
sVside.
p1723
F7
sVside,
p1724
F12
sVreconcile
p1725
F2
sVraging
p1726
F11
sVinfluence
p1727
F2
sVlost.
p1728
F4
sVcoasting
p1729
F1
sVlost,
p1730
F2
sVyes,"
p1731
F1
sVskimming
p1732
F1
sVside;
p1733
F3
sVchat
p1734
F1
sVnautical
p1735
F1
sVwell,"
p1736
F1
sVliving,
p1737
F1
sVrescue.
p1738
F1
sVacrid,
p1739
F1
sVintact
p1740
F1
sVsunken
p1741
F1
sVtuft
p1742
F1
sVretrace
p1743
F1
sVendurable
p1744
F1
sVoccasional
p1745
F1
sVhole.
p1746
F2
sV50min.
p1747
F1
sVhove
p1748
F1
sVcertain,"
p1749
F1
sVsails
p1750
F18
sVelements
p1751
F2
sVenergetic
p1752
F5
sVwavelets,
p1753
F1
sVlashing
p1754
F3
sVfaintly
p1755
F2
sVbasalt
p1756
F3
sVbreathed
p1757
F2
sVbodily
p1758
F2
sVsides
p1759
F4
sVeffrontery
p1760
F1
sVago
p1761
F2
sVland
p1762
F18
sVsail,
p1763
F7
sVsail.
p1764
F4
sVtar,
p1765
F1
sVresign
p1766
F2
sVrescued
p1767
F4
sVwalked
p1768
F3
sVconjectured
p1769
F1
sVcarrying
p1770
F7
sVcame
p1771
F44
sVsail?
p1772
F1
sVwildly,
p1773
F1
sVfresh
p1774
F7
sVhaving
p1775
F14
sVpartial
p1776
F1
sVpetition.
p1777
F1
sVvehemence,
p1778
F1
sVdissent.
p1779
F1
sVseemed
p1780
F63
sVbluish
p1781
F1
sVsketch-book
p1782
F1
sVframe-work
p1783
F1
sVsumter
p1784
F1
sVyoung
p1785
F29
sVrejoined
p1786
F2
sVdislike
p1787
F1
sVresources
p1788
F2
sVoakum
p1789
F1
sVresult;
p1790
F1
sVtorture
p1791
F3
sVthoughtfully;
p1792
F1
sVcod,
p1793
F1
sVcontinues
p1794
F4
sVwaters.
p1795
F2
sVwaters,
p1796
F3
sVcontinued
p1797
F15
sVropes.
p1798
F1
sVtimely
p1799
F2
sVresource,
p1800
F1
sVmagic
p1801
F2
sVsouls--nine
p1802
F1
sVropes,
p1803
F2
sVtry
p1804
F6
sVresource;
p1805
F1
sVglow,
p1806
F1
sVglow.
p1807
F1
sVship!"
p1808
F1
sVpledge
p1809
F2
sVcannibals
p1810
F2
sV"curtis!
p1811
F1
sVenclosed
p1812
F2
sVodd
p1813
F2
sVsentiments,
p1814
F1
sVthat,
p1815
F12
sVtwine
p1816
F1
sVdejection
p1817
F2
sVwaning
p1818
F2
sVexpressed
p1819
F3
sVpaying
p1820
F1
sVaground
p1821
F2
sVflowing
p1822
F1
sVbird
p1823
F1
sVherbey;
p1824
F4
sVled
p1825
F3
sVleg
p1826
F3
sVeffected;
p1827
F1
sVanswered.
p1828
F2
sVanswered,
p1829
F4
sVdelivering
p1830
F2
sVherbey.
p1831
F2
sVslaughter
p1832
F1
sVherbey,
p1833
F29
sVconsideration
p1834
F2
sVfifteen
p1835
F2
sVeffected,
p1836
F1
sVpenser.
p1837
F1
sVgreat
p1838
F22
sVengage
p1839
F1
sVfirm,
p1840
F1
sVreceive
p1841
F2
sVinvolved
p1842
F1
sVould
p1843
F1
sVextreme
p1844
F8
sV"land!
p1845
F1
sVsurvey
p1846
F1
sVsparus
p1847
F1
sVopinion
p1848
F5
sVmakes
p1849
F9
sVwithdrew,
p1850
F1
sVsteamers
p1851
F2
sV"captain,"
p1852
F1
sVadze
p1853
F1
sVextricate
p1854
F1
sVassemble
p1855
F1
sVhalf-suppressed
p1856
F1
sVterrifically.
p1857
F1
sVstanding
p1858
F7
sVaspinwall
p1859
F1
sVconfidence
p1860
F3
sVaffording
p1861
F1
sVever-memorable
p1862
F1
sVweakness,
p1863
F2
sVrecalling
p1864
F1
sVnightmares.
p1865
F1
sVunknown.
p1866
F1
sVnext
p1867
F14
sVeleven
p1868
F13
sVdoubt
p1869
F22
sVirrepressible
p1870
F1
sVknow,"
p1871
F1
sVmidday
p1872
F1
sVlaboured
p1873
F2
sVtool,
p1874
F1
sVsir.
p1875
F1
sVoccurred
p1876
F5
sVsir,
p1877
F6
sVfools
p1878
F1
sVopposing
p1879
F1
sVsharply
p1880
F1
sVsir;
p1881
F2
sVsteamer,
p1882
F2
sVsir?
p1883
F1
sVtop-masts.
p1884
F1
sVundisturbed.
p1885
F1
sVtop-masts,
p1886
F3
sVcertainly,
p1887
F1
sVthis
p1888
F118
sVpour
p1889
F2
sVropes;
p1890
F1
sVthin
p1891
F1
sVcontinued.--our
p1892
F1
sVplug
p1893
F1
sVwater,
p1894
F32
sVweaker
p1895
F4
sVbent
p1896
F5
sVtie,
p1897
F1
sVcoolness
p1898
F1
sVwater.
p1899
F14
sVnone;
p1900
F1
sVpieces
p1901
F2
sVhigh
p1902
F18
sVbeckoned
p1903
F1
sVresources,
p1904
F1
sVnone.
p1905
F1
sVnone,
p1906
F1
sVmutually
p1907
F1
sVbowsprit;
p1908
F1
sVdelay
p1909
F3
sVconceited,
p1910
F1
sVanimal
p1911
F3
sVintelligent
p1912
F3
sVbowsprit,
p1913
F2
sVespecial
p1914
F1
sVblocks
p1915
F2
sVsingular
p1916
F1
sVnear,
p1917
F3
sVtied
p1918
F1
sVpurpose.
p1919
F2
sVlines,
p1920
F2
sVpurpose,
p1921
F3
sVlines.
p1922
F2
sVeat!"
p1923
F1
sVforemost
p1924
F1
sVembark."
p1925
F1
sVrealized
p1926
F5
sVresolute,
p1927
F1
sVrigging,
p1928
F4
sVrigging.
p1929
F1
sVelement
p1930
F1
sVallow
p1931
F13
sVcounted
p1932
F2
sVexistence;
p1933
F2
sVoutline,
p1934
F1
sVsays.
p1935
F1
sVexistence?
p1936
F1
sVwhole,
p1937
F1
sVto-morrow."
p1938
F1
sVinsight
p1939
F1
sVdoubtful
p1940
F4
sVproduced
p1941
F7
sVexistence.
p1942
F1
sVperfect
p1943
F5
sVhatchet.
p1944
F2
sVhatchet,
p1945
F3
sVchosen
p1946
F3
sVmeantime
p1947
F4
sVdegrees
p1948
F2
sVcommunication
p1949
F7
sVreeking
p1950
F1
sVpearl
p1951
F1
sVobsequious,
p1952
F1
sVhen-coops,
p1953
F1
sVrealize
p1954
F2
sV30th,
p1955
F1
sVwhither
p1956
F2
sVsufficiently
p1957
F6
sVtruth
p1958
F5
sVaccompanied
p1959
F4
sVbeneath
p1960
F10
sVluggage,
p1961
F1
sVdoing
p1962
F3
sVheated
p1963
F2
sVfarther,
p1964
F1
sVthirteen
p1965
F1
sVus."
p1966
F1
sVtenth
p1967
F1
sVwitness
p1968
F3
sVlading,
p1969
F1
sVconcealment.
p1970
F1
sVrigging
p1971
F3
sVdesert
p1972
F1
sVfifty,
p1973
F1
sVburke
p1974
F6
sVshut
p1975
F2
sVawait
p1976
F1
sVperish
p1977
F1
sVdecay.
p1978
F1
sVtent;
p1979
F2
sVinhaling
p1980
F1
sVsurely
p1981
F3
sVrain-water
p1982
F1
sVtent,
p1983
F3
sVtent.
p1984
F1
sVassiduously
p1985
F1
sVmainland
p1986
F1
sVthings,
p1987
F1
sVfavour.
p1988
F3
sVgallons
p1989
F1
sVcould
p1990
F174
sVlength
p1991
F12
sV"shame!"
p1992
F1
sVtone,
p1993
F3
sVrepeats
p1994
F1
sVfavour;
p1995
F3
sVpredicament.
p1996
F1
sVstaggered
p1997
F1
sVblown
p1998
F2
sVinterest;
p1999
F1
sVscene
p2000
F10
sVowned
p2001
F2
sVaffliction
p2002
F1
sVshort,
p2003
F1
sVblows
p2004
F3
sVinterest.
p2005
F1
sVinterest,
p2006
F1
sV'juno,'
p2007
F1
sVcardiff,
p2008
F1
sVtrifling
p2009
F3
sVabhorrence;
p2010
F1
sVpainful
p2011
F1
sVinterior,
p2012
F1
sVback
p2013
F25
sVsufferings,
p2014
F1
sVtrade-winds.
p2015
F1
sVsufferings.
p2016
F5
sVvigorous
p2017
F1
sVstars
p2018
F2
sVblow.
p2019
F1
sVinterior.
p2020
F2
sVconvulsively;
p2021
F1
sVconvulsively,
p2022
F1
sVafresh,
p2023
F3
sVkazallon
p2024
F1
sVpoets,--your
p2025
F1
sVcaulked;
p2026
F1
sVtortured
p2027
F1
sVxxix.
p2028
F1
sV"enjoy
p2029
F1
sVtortures
p2030
F2
sVrepented
p2031
F1
sVsteep
p2032
F1
sVdevotion
p2033
F2
sVcollecting
p2034
F1
sVfins.
p2035
F1
sVfins,
p2036
F1
sVfalse
p2037
F3
sVgently
p2038
F4
sVgentle
p2039
F2
sVfins;
p2040
F1
sVintoxicated.
p2041
F1
sV30th--after
p2042
F1
sVclearly
p2043
F3
sVviewed
p2044
F1
sVdepict
p2045
F1
sVwindward,
p2046
F1
sVformation,
p2047
F1
sVawed
p2048
F1
sVignite;
p2049
F1
sVashore
p2050
F1
sVregard
p2051
F2
sVpoison.
p2052
F1
sVdevice
p2053
F2
sVspasms,
p2054
F1
sV18th.--after
p2055
F1
sVhypocrite
p2056
F1
sVtop-gallants
p2057
F2
sVignites
p2058
F1
sVheed;
p2059
F1
sVface
p2060
F15
sVignited
p2061
F1
sVyou'll
p2062
F1
sVwanted.
p2063
F1
sVmechanical
p2064
F4
sVreassuring-himself
p2065
F1
sVfact
p2066
F8
sVinquiry.
p2067
F2
sVatmosphere
p2068
F8
sVentertain
p2069
F1
sVstood,
p2070
F1
sVrealized;
p2071
F1
sVbriny
p2072
F2
sVbring
p2073
F15
sVmanchester
p2074
F2
sVlvi.
p2075
F1
sVrough
p2076
F3
sVprincipal
p2077
F1
sVarcs,
p2078
F1
sVpause
p2079
F1
sVjaw
p2080
F1
sVshould
p2081
F89
sVmolecules
p2082
F1
sVhope
p2083
F38
sVmove
p2084
F1
sVhandle
p2085
F2
sVlistened
p2086
F4
sVmeans
p2087
F14
sVlucky
p2088
F1
sVcurtis,--
p2089
F1
sVdishearten
p2090
F1
sVcomprising
p2091
F1
sVfrench,
p2092
F1
sVintervening
p2093
F1
sVstrengthened
p2094
F1
sVlives
p2095
F1
sVxxxiv.
p2096
F1
sVframe
p2097
F2
sVkeel,
p2098
F1
sVscupper-holes
p2099
F1
sVbreathing,
p2100
F1
sVskull,
p2101
F1
sVsuction-tubes,
p2102
F1
sVonce,
p2103
F9
sVonce.
p2104
F1
sVkeel;
p2105
F1
sVend,
p2106
F1
sVpacked
p2107
F3
sVend.
p2108
F2
sVstream,
p2109
F1
sVjoints.
p2110
F1
sVexplosive
p2111
F5
sVrespite;
p2112
F1
sVrest;
p2113
F1
sVrespite,
p2114
F1
sVoccurs.
p2115
F1
sVzone,
p2116
F1
sVinjury,
p2117
F1
sVinjury.
p2118
F2
sVtaken.
p2119
F1
sVbloodhound
p2120
F1
sVfigures
p2121
F2
sVpuff
p2122
F2
sVmemorandum-book.
p2123
F1
sVquitted
p2124
F2
sVextent
p2125
F4
sVstranding
p2126
F1
sVpounds."
p2127
F1
sVdepths.
p2128
F1
sVlambent
p2129
F1
sVdazzling
p2130
F3
sVframework,
p2131
F1
sVpoured
p2132
F3
sV24th.--there
p2133
F1
sVhottest
p2134
F1
sVlow-sails,
p2135
F1
sVballast
p2136
F1
sVfatigue,
p2137
F6
sVdescent.
p2138
F1
sVswarmed
p2139
F1
sVflaire,
p2140
F1
sVrough,
p2141
F2
sVgunpowder
p2142
F1
sVbanish
p2143
F1
sVbillows,
p2144
F1
sVwords.
p2145
F4
sVsea!"
p2146
F1
sVtea-kettle
p2147
F1
sVbillows?
p2148
F1
sVwesterly
p2149
F1
sVsenseless.
p2150
F1
sVtrickled
p2151
F2
sVtop-gallants,
p2152
F2
sVgreater
p2153
F8
sVof!
p2154
F1
sVconcealing
p2155
F1
sVof,
p2156
F1
sVverne
p2157
F2
sVtempestuous
p2158
F1
sVdesert.
p2159
F1
sVenough,"
p2160
F2
sVinfinity
p2161
F1
sVsit.
p2162
F1
sVbale
p2163
F1
sVdrink
p2164
F3
sVupon
p2165
F130
sVv.
p2166
F1
sVconcussions,
p2167
F1
sVbritain,
p2168
F1
sVdelivered.
p2169
F1
sVdelivered,
p2170
F1
sVpleasantly
p2171
F1
sVoff
p2172
F33
sVglare,
p2173
F1
sVcolour
p2174
F2
sVglare.
p2175
F2
sVpatterns
p2176
F1
sVdoubtful.
p2177
F1
sVclambering
p2178
F1
sVdrawing
p2179
F3
sVlest
p2180
F4
sVreturned,
p2181
F1
sVlease?"
p2182
F1
sVless
p2183
F21
sVmoments
p2184
F2
sVincrease,
p2185
F1
sVerecting
p2186
F1
sVhauled
p2187
F4
sVafflicted
p2188
F2
sVhandspike,
p2189
F1
sVsickened
p2190
F1
sVwet
p2191
F2
sVmoment;
p2192
F6
sVincreased
p2193
F4
sVreef;
p2194
F1
sVinundation
p2195
F1
sVrights.
p2196
F1
sVhaul
p2197
F3
sVfive
p2198
F15
sVmoment.
p2199
F2
sVmoment,
p2200
F5
sVincessant
p2201
F6
sVreef.
p2202
F5
sVreef,
p2203
F13
sV35min.
p2204
F1
sV"fire
p2205
F1
sVbermudas
p2206
F3
sVfuture;
p2207
F2
sVresin
p2208
F1
sVengland.
p2209
F1
sValtogether,
p2210
F2
sValtogether.
p2211
F3
sVleast.
p2212
F2
sVbecome
p2213
F21
sVwe?
p2214
F1
sValtogether!
p2215
F1
sVpoor
p2216
F19
sVleast,
p2217
F4
sV"owen,"
p2218
F1
sVnay;
p2219
F1
sVhour,--an
p2220
F1
sVdaylight
p2221
F8
sVloaded
p2222
F2
sVfaint
p2223
F2
sVtransport
p2224
F1
sV"what
p2225
F8
sVliterally
p2226
F5
sVavoid
p2227
F1
sVshone
p2228
F1
sVstores.
p2229
F1
sVdoes
p2230
F11
sVinterposed:--
p2231
F2
sVwetted
p2232
F2
sVstores;
p2233
F1
sVparalyze
p2234
F1
sVblowing
p2235
F7
sVmystery,
p2236
F1
sVmystery.
p2237
F2
sVsecrecy,
p2238
F1
sVbecalmed,
p2239
F2
sVproceeded
p2240
F12
sVcoldly
p2241
F1
sVgained
p2242
F5
sVgazing
p2243
F2
sVfarewell,
p2244
F1
sVfarewell.
p2245
F1
sVsublimest
p2246
F1
sVinsufficient
p2247
F1
sVswimming
p2248
F1
sVdeliver,
p2249
F1
sVnow!
p2250
F1
sVlung
p2251
F1
sVerect
p2252
F1
sVmere
p2253
F7
sVcorpse.
p2254
F1
sVplace;
p2255
F1
sVcorpse,
p2256
F1
sVprovidential
p2257
F1
sVstartled
p2258
F1
sVterminates
p2259
F1
sVplace,
p2260
F5
sVplace.
p2261
F5
sVwalter,"
p2262
F1
sVxxiii.
p2263
F1
sVbasalt."
p2264
F1
sVletter:
p2265
F1
sV"down
p2266
F3
sVdelivery
p2267
F1
sVconstruction
p2268
F2
sVbasin
p2269
F3
sVthey,
p2270
F1
sVcount
p2271
F2
sVdetestable
p2272
F2
sVtossed
p2273
F2
sVevident
p2274
F7
sVshrunk
p2275
F1
sVofficial
p2276
F1
sVyawl,
p2277
F1
sVyawl.
p2278
F2
sVexcitement
p2279
F3
sVevening,
p2280
F2
sVspot.
p2281
F1
sVfavourable.
p2282
F1
sVfavourable,
p2283
F4
sVgloated
p2284
F1
sVdeliverance.
p2285
F1
sV5th.--the
p2286
F1
sVproblem
p2287
F2
sVfishing-lines;
p2288
F1
sVhusbanding
p2289
F1
sVprofusion
p2290
F1
sVbearing
p2291
F2
sVwinding-sheet,
p2292
F1
sVrecognize
p2293
F2
sVcontribute
p2294
F1
sVfellow's
p2295
F3
sVarms.
p2296
F1
sVarms,
p2297
F4
sVrose,
p2298
F1
sV500
p2299
F1
sVsince,
p2300
F1
sVsince.
p2301
F1
sVcompared
p2302
F1
sVreach;
p2303
F1
sVvariety
p2304
F1
sVlately
p2305
F2
sVreach,
p2306
F2
sVaperture,
p2307
F3
sVillusion
p2308
F1
sVwalter,
p2309
F7
sVwalter.
p2310
F1
sVsemblance
p2311
F1
sVagain.
p2312
F8
sVagain,
p2313
F8
sVtides
p2314
F2
sVwalter!
p2315
F1
sVin,
p2316
F5
sVagain;
p2317
F3
sVin.
p2318
F1
sVpacify
p2319
F1
sVinspiration
p2320
F2
sVfrightfully
p2321
F1
sVconscientious,
p2322
F1
sVlasted
p2323
F1
sVrule
p2324
F3
sVtorrid
p2325
F1
sVvillainous
p2326
F1
sVsearched
p2327
F1
sVat
p2328
F333
sVgardens
p2329
F1
sVhalves."
p2330
F1
sVnorth-easterly
p2331
F2
sVcure,
p2332
F1
sVcrumpled
p2333
F1
sVrapid
p2334
F7
sVsaved
p2335
F5
sVagreements,
p2336
F1
sVparty,
p2337
F2
sVdesist;
p2338
F1
sVfog,
p2339
F3
sVfog.
p2340
F1
sVworth
p2341
F2
sVmania
p2342
F1
sVsave.
p2343
F1
sVcalmer,
p2344
F2
sVchapel
p2345
F1
sVporpoises
p2346
F1
sVfurrowed
p2347
F1
sVemaciated,
p2348
F1
sVgaelic
p2349
F1
sVannounced
p2350
F4
sVchew
p2351
F1
sVlethargy.
p2352
F1
sVspeck
p2353
F5
sVgo."
p2354
F1
sV29th
p2355
F1
sVdisposed,
p2356
F1
sVhorn
p2357
F1
sVthief?"
p2358
F1
sVallowed.
p2359
F1
sV7th
p2360
F2
sVsink,
p2361
F1
sVapproached
p2362
F2
sVdeliberate
p2363
F1
sVabove
p2364
F30
sVanglo-saxon
p2365
F1
sVtold
p2366
F18
sVcomplain?
p2367
F1
sVquestionable,
p2368
F1
sVcomplacently,
p2369
F1
sVequals
p2370
F1
sVo'ready;
p2371
F1
sVmistress,
p2372
F2
sVgreedy
p2373
F1
sVo'ready,
p2374
F3
sVoff!"
p2375
F1
sVhalf
p2376
F18
sVobtained
p2377
F5
sVhuntly,
p2378
F8
sVhuntly.
p2379
F1
sVstudy
p2380
F2
sVfar-off
p2381
F1
sVsmoke
p2382
F9
sV25th.--last
p2383
F1
sValleviated
p2384
F1
sVsecure
p2385
F4
sVcharred
p2386
F1
sVthrust
p2387
F1
sVthought.
p2388
F2
sVkazallon,"
p2389
F14
sVglance
p2390
F7
sVtotal
p2391
F3
sVnursing,
p2392
F1
sVtrees!
p2393
F2
sVindians
p2394
F1
sVchooses
p2395
F1
sVmemoranda
p2396
F1
sVgroans.
p2397
F1
sVrequickened
p2398
F1
sVreign
p2399
F1
sVaware
p2400
F13
sVcolumbus's
p2401
F1
sVword
p2402
F20
sVwould,"
p2403
F1
sVwork
p2404
F24
sVrefusing
p2405
F2
sVworn
p2406
F2
sVere
p2407
F7
sVoxide
p2408
F1
sVtop,
p2409
F1
sVtransparency
p2410
F1
sVoverboard,
p2411
F4
sVfavour,
p2412
F3
sVoverboard.
p2413
F1
sVclinging
p2414
F5
sVindicated
p2415
F1
sVflung
p2416
F1
sVexecutioners,
p2417
F1
sVbare,
p2418
F1
sVindifferent
p2419
F1
sVhourly,
p2420
F1
sVhebrides,
p2421
F1
sVgaped
p2422
F1
sVagony
p2423
F6
sVvoyage,
p2424
F4
sVboats
p2425
F3
sVordinary
p2426
F12
sVconvulsively
p2427
F2
sVresignation
p2428
F3
sValtitude.
p2429
F1
sValtitude,
p2430
F2
sVwindlass,
p2431
F2
sVafter
p2432
F77
sVcustoms
p2433
F1
sVwindlass;
p2434
F1
sVlay
p2435
F7
sVcoloured
p2436
F1
sVfoundering
p2437
F3
sVboat.
p2438
F1
sVboat,
p2439
F1
sVappreciate
p2440
F1
sVhaste
p2441
F3
sVboatswain
p2442
F53
sVorder
p2443
F7
sVinfested
p2444
F1
sVdevote
p2445
F1
sVconsent
p2446
F1
sVwaist)
p2447
F1
sVsatisfied
p2448
F1
sVpascal
p2449
F1
sVlarboard,"
p2450
F1
sVhuntly
p2451
F16
sVrock?
p2452
F1
sVrock;
p2453
F2
sVsomewhere
p2454
F4
sVspeaking,
p2455
F1
sVinsured."
p2456
F1
sVrock,
p2457
F6
sVhave;
p2458
F1
sVrock.
p2459
F1
sVwood-work
p2460
F1
sVvanish,
p2461
F1
sVthen
p2462
F58
sVthem
p2463
F61
sVaffected
p2464
F1
sVfragment
p2465
F5
sVineffectual.
p2466
F1
sVsafe
p2467
F2
sVhatchways,
p2468
F1
sVbreak
p2469
F1
sVcabin-lamp,
p2470
F1
sVthey
p2471
F148
sVhumanity
p2472
F3
sVrocky
p2473
F1
sVoxygen
p2474
F1
sVphysiognomist
p2475
F1
sVrocks
p2476
F9
sV29th.--captain
p2477
F1
sVdistended,
p2478
F2
sVdoled
p2479
F1
sVexertion
p2480
F2
sVlifted
p2481
F3
sVshows!
p2482
F1
sVtransient
p2483
F2
sV"fresh
p2484
F3
sVfishing,
p2485
F1
sVreached
p2486
F15
sVtravelling;
p2487
F1
sVfinished.
p2488
F1
sVfinished,
p2489
F1
sVforty
p2490
F4
sVvessels
p2491
F3
sVhave.
p2492
F1
sValarmed,
p2493
F1
sVamericans,
p2494
F1
sVremorse
p2495
F1
sVmedicine
p2496
F2
sVforth
p2497
F10
sVcarry,
p2498
F1
sVbarrier
p2499
F1
sVmaniac,
p2500
F1
sVimpossibly,
p2501
F1
sVcommonplaces;
p2502
F1
sVnationality,--for
p2503
F1
sVdashing
p2504
F5
sVamazement
p2505
F1
sVmutilate
p2506
F1
sVstorm
p2507
F12
sVvolcano,
p2508
F1
sVrecovering
p2509
F1
sVmaniac
p2510
F2
sVinstalls
p2511
F1
sVfort;
p2512
F1
sVfellow,
p2513
F3
sVvessel,
p2514
F11
sVfrowns,
p2515
F1
sVvessel.
p2516
F6
sV"no
p2517
F3
sVfore-sail,
p2518
F1
sV(as
p2519
F1
sVfootsteps
p2520
F1
sVfellow!
p2521
F1
sVyourself,"
p2522
F1
sVrender
p2523
F4
sVi.
p2524
F1
sVlarboard
p2525
F7
sVfears,
p2526
F1
sVwaste.
p2527
F2
sVanother
p2528
F26
sVnavigator
p2529
F1
sVsomewhere,
p2530
F1
sVpower.
p2531
F1
sVpower,
p2532
F2
sVneck
p2533
F1
sVprotracted
p2534
F3
sV"perhaps
p2535
F3
sVvibrate
p2536
F2
sVstiffened
p2537
F1
sVscene.
p2538
F1
sVinsanity.
p2539
F1
sVcompromise
p2540
F1
sVjohn
p2541
F2
sVpaltry
p2542
F1
sVperished,
p2543
F1
sVhappily
p2544
F4
sVluncheon
p2545
F1
sVrejected
p2546
F1
sVcorresponded
p2547
F1
sVmercy
p2548
F3
sVobservation.
p2549
F1
sVdowlas's;
p2550
F1
sVrate,
p2551
F1
sVair,
p2552
F9
sVscenes
p2553
F2
sVseated
p2554
F3
sViron
p2555
F1
sVair;
p2556
F1
sVsolely
p2557
F1
sVair?
p2558
F1
sVinterests
p2559
F1
sVconstellations
p2560
F1
sVswallowed,
p2561
F1
sVenchanted
p2562
F1
sVmanner
p2563
F5
sVimpelled
p2564
F1
sVaccompany
p2565
F2
sVreadjusted
p2566
F1
sVunceasing;
p2567
F1
sVcontents
p2568
F4
sVblow,
p2569
F1
sVforced
p2570
F8
sVup!"
p2571
F1
sVstrength
p2572
F3
sVgenuine
p2573
F1
sVladen
p2574
F3
sVconvenient
p2575
F1
sVoften,
p2576
F2
sVchagrin
p2577
F1
sVreplied.
p2578
F3
sVherbey
p2579
F32
sVcharleston.
p2580
F2
sVrenewed.
p2581
F1
sVcharleston,
p2582
F6
sVcontent.
p2583
F1
sVlong,"
p2584
F1
sVshoal,
p2585
F1
sVfalsten
p2586
F22
sVcircled
p2587
F1
sVhesitation
p2588
F2
sVmast-heads,
p2589
F2
sVnutritive
p2590
F1
sVgrave
p2591
F3
sVhim;
p2592
F6
sVsmoked
p2593
F1
sVswim,
p2594
F1
sVnostrils
p2595
F1
sVforce,
p2596
F1
sVcalculated
p2597
F1
sVsubject,
p2598
F1
sVsubject.
p2599
F1
sVcalmness
p2600
F3
sVsun
p2601
F12
sVbriskly
p2602
F4
sVfitted
p2603
F1
sVdecidedly
p2604
F2
sVprecarious
p2605
F1
sVhoisted,
p2606
F3
sVflush,
p2607
F1
sVenjoyed
p2608
F2
sVeastwards,
p2609
F1
sVsharks
p2610
F11
sVnow."
p2611
F2
sVjust
p2612
F35
sVgeologist
p2613
F1
sVpursuing
p2614
F2
sVadequate
p2615
F1
sVdo
p2616
F66
sVexplorations
p2617
F1
sVde
p2618
F1
sVsextant,
p2619
F2
sVpreferred
p2620
F3
sVyielded
p2621
F2
sVhaunted
p2622
F4
sVheadlong
p2623
F2
sVruns
p2624
F1
sVsky,
p2625
F3
sVunintelligible.
p2626
F1
sVcovering
p2627
F3
sVterms:--
p2628
F1
sVrepaired,
p2629
F1
sVrepaired.
p2630
F1
sVsteam
p2631
F2
sVsailor.
p2632
F1
sVsqueezed
p2633
F1
sVinto,
p2634
F1
sVdo?"
p2635
F2
sVmiserably
p2636
F2
sVsuccumb.
p2637
F1
sVw.
p2638
F2
sVfeet.
p2639
F8
sVobserved
p2640
F6
sVfeet!
p2641
F1
sVdepends
p2642
F1
sV"for,
p2643
F1
sVtorrents
p2644
F1
sVmiserable
p2645
F7
sVscrutinizing
p2646
F1
sVheavens,
p2647
F1
sVdisappear,
p2648
F3
sVdraws
p2649
F1
sVrequest,
p2650
F3
sVaway
p2651
F29
sVafloat
p2652
F1
sVsmuggling.
p2653
F1
sVbehold.
p2654
F1
sVlighted,
p2655
F1
sVunable
p2656
F12
sVdrawn
p2657
F4
sVclued
p2658
F1
sVwe
p2659
F476
sVloose
p2660
F2
sVterms
p2661
F1
sVflashes
p2662
F1
sVreceived
p2663
F5
sVgrotto,
p2664
F2
sVill
p2665
F3
sVgasped
p2666
F1
sVcod
p2667
F1
sVhopelessness
p2668
F1
sVgroans
p2669
F1
sVstationary.
p2670
F1
sVnegotiation
p2671
F1
sVtravels,
p2672
F1
sVtravels.
p2673
F1
sVtone
p2674
F2
sVaccusing
p2675
F1
sVmorally,
p2676
F1
sVroyal
p2677
F1
sVandr--;
p2678
F1
sVtons
p2679
F4
sVeventful
p2680
F1
sVoblivious
p2681
F1
sVspeak
p2682
F6
sVgratitude
p2683
F1
sVunhappily
p2684
F1
sVharm?
p2685
F1
sVcondemned
p2686
F1
sVapathy,
p2687
F1
sVreality.
p2688
F1
sVwarmth
p2689
F1
sVduties
p2690
F4
sVwide.
p2691
F1
sVrelaxing
p2692
F1
sVattacked
p2693
F1
sVexcite
p2694
F1
sVhoist
p2695
F1
sVsurreptitious
p2696
F1
sVbrightening
p2697
F1
sVcontinued,--
p2698
F1
sVapplied
p2699
F4
sVeast
p2700
F1
sVconviction
p2701
F2
sVplans,
p2702
F1
sVair
p2703
F13
sVrationally
p2704
F2
sVdifficulty,
p2705
F1
sVwater-line.
p2706
F1
sVvoice
p2707
F17
sVknown,
p2708
F1
sVknown.
p2709
F1
sVfaith,
p2710
F1
sVanimation.
p2711
F1
sVcravings
p2712
F3
sVcomparative
p2713
F1
sVlieutenant's
p2714
F1
sVconfirmed
p2715
F2
sVemotion,
p2716
F1
sVnobody
p2717
F2
sVshares
p2718
F1
sVinvoluntary
p2719
F6
sVsheltered
p2720
F2
sVconvictions
p2721
F1
sVprovisions.
p2722
F2
sVprovisions,
p2723
F2
sVpartaken
p2724
F1
sVconferences,
p2725
F1
sVspringing
p2726
F1
sVpavement.
p2727
F1
sVswell
p2728
F7
sVhang
p2729
F4
sVrain
p2730
F10
sVhand
p2731
F19
sV"for
p2732
F1
sVkear's,
p2733
F1
sVgreedily
p2734
F1
sVshouted,--
p2735
F1
sVuntried,
p2736
F1
sVkept
p2737
F21
sVpossibly
p2738
F4
sVfeeling,
p2739
F1
sVcontact
p2740
F2
sVthe
p2741
F3929
sVmingle
p2742
F1
sVmay,
p2743
F3
sVmid
p2744
F1
sVsedatives
p2745
F1
sVthanks
p2746
F3
sVvictim
p2747
F7
sVhatchway,
p2748
F1
sVhatchway.
p2749
F1
sVadding
p2750
F2
sVsleep.
p2751
F2
sVflooring
p2752
F1
sVeaters,
p2753
F1
sV27th
p2754
F2
sVshout
p2755
F5
sVbelongs
p2756
F1
sVtransformed
p2757
F2
sVboard
p2758
F18
sVevidenced
p2759
F1
sVfalsten."
p2760
F1
sVhatchways
p2761
F1
sVsubmerged;
p2762
F1
sVrequired.
p2763
F1
sVmates,--
p2764
F1
sVhonoured
p2765
F1
sVgod,
p2766
F3
sVpatience;
p2767
F1
sVcape
p2768
F2
sVsubmerged,
p2769
F2
sVretreat
p2770
F1
sVmalady
p2771
F2
sVgrizzly
p2772
F1
sVcountry,
p2773
F1
sVnight
p2774
F32
sVtiger;
p2775
F1
sVcooled
p2776
F1
sVaimed
p2777
F1
sVperforming
p2778
F1
sVpinioning
p2779
F1
sV150deg.,
p2780
F1
sVglad,
p2781
F2
sVlashed
p2782
F4
sVporthole
p2783
F1
sVbore
p2784
F1
sVransacked
p2785
F1
sVgentle,
p2786
F1
sVaccept,
p2787
F1
sVmonth,
p2788
F2
sVstock-fish.
p2789
F1
sVcreature's
p2790
F2
sVsix,
p2791
F1
sVsix.
p2792
F1
sVmine;
p2793
F1
sVarchitectural
p2794
F1
sVgod."
p2795
F1
sVpost
p2796
F5
sVchafe
p2797
F1
sVmonths
p2798
F2
sVpleaded,
p2799
F1
sVhorizon
p2800
F7
sVyet."
p2801
F1
sVtrade-winds
p2802
F1
sVwasting
p2803
F1
sVprisoners
p2804
F1
sVfloat
p2805
F4
sVbound
p2806
F7
sVcry,
p2807
F2
sVrendering
p2808
F3
sVcry.
p2809
F1
sVcrags
p2810
F1
sVcries,
p2811
F1
sVformidable
p2812
F3
sVbalanced
p2813
F1
sV"steady!
p2814
F1
sVdiary.
p2815
F1
sVsojourn,
p2816
F1
sVwan
p2817
F1
sVwhy;
p2818
F1
sVfamiliar,
p2819
F1
sVsuffice
p2820
F4
sVmisfortune."
p2821
F1
sVfervent
p2822
F1
sVarose,"
p2823
F1
sVaccordingly
p2824
F6
sVway
p2825
F29
sVsuspended,
p2826
F1
sVwas
p2827
F752
sVlowest
p2828
F3
sVlots!"
p2829
F1
sVbreeze.
p2830
F3
sVdiligence
p2831
F1
sVbecoming
p2832
F5
sVsundry
p2833
F1
sVbalance,
p2834
F1
sVmysterious
p2835
F2
sVprisoner,
p2836
F1
sVsame,
p2837
F1
sVastonished
p2838
F1
sVtrue
p2839
F11
sVconsideration,
p2840
F1
sVabsent
p2841
F1
sVveiled
p2842
F1
sVaccord,
p2843
F1
sVdew,
p2844
F1
sVfulfills
p2845
F1
sVgather
p2846
F1
sVhotter
p2847
F1
sVmoore
p2848
F1
sVflat
p2849
F2
sVscore,
p2850
F2
sVrequest
p2851
F1
sVmuscular
p2852
F2
sVevidence
p2853
F1
sVpromised
p2854
F2
sVjuice,
p2855
F1
sVstealthily
p2856
F1
sVday--at
p2857
F1
sVyourself."
p2858
F1
sVbrother,
p2859
F1
sVagents,
p2860
F2
sVphysical
p2861
F5
sVpace;
p2862
F1
sVfriend,"
p2863
F1
sVreality
p2864
F1
sVholding
p2865
F3
sV"when
p2866
F1
sVunwilling
p2867
F1
sVdistribution.
p2868
F1
sVspot."
p2869
F1
sVo'clock
p2870
F26
sV16th.--if
p2871
F1
sVlet's
p2872
F2
sVxii.
p2873
F1
sVobjections,
p2874
F1
sVdense
p2875
F3
sVpromise,
p2876
F1
sVfive-and-twenty
p2877
F1
sVgrasp.
p2878
F1
sVcheated
p2879
F1
sVinterval
p2880
F4
sVtogether
p2881
F13
sVpaced
p2882
F1
sVwretches
p2883
F1
sVbrow,
p2884
F2
sVimpulse
p2885
F3
sVarrested.
p2886
F1
sVbaited
p2887
F2
sVtendrils
p2888
F1
sVengland
p2889
F1
sVgrateful
p2890
F1
sVthis,"
p2891
F1
sVardour;
p2892
F1
sVlayers
p2893
F1
sVturn;
p2894
F1
sVcertainly
p2895
F9
sVhurry
p2896
F1
sVflash
p2897
F3
sVagony.
p2898
F3
sVharbour-mouth.
p2899
F1
sVagony,
p2900
F2
sVaristocratic
p2901
F1
sVcompensate
p2902
F1
sVpermanently
p2903
F1
sVturn,
p2904
F2
sVterror
p2905
F3
sVagony;
p2906
F1
sVfeebly
p2907
F1
sVterminate
p2908
F2
sVanonymous
p2909
F1
sVtrouble
p2910
F5
sVblast
p2911
F1
sVfeeble
p2912
F1
sVpresented
p2913
F4
sVsoothe,
p2914
F1
sVadvisedly;
p2915
F1
sV"i'll
p2916
F1
sVupper
p2917
F2
sVappear,
p2918
F1
sVbrave
p2919
F3
sVregret
p2920
F3
sVpenetrates
p2921
F1
sV"chancellor"
p2922
F45
sVbeneath.
p2923
F1
sVbeneath,
p2924
F2
sVscarcity
p2925
F1
sVlegs,
p2926
F2
sVtempest
p2927
F3
sVpenetrated
p2928
F1
sV"starboard
p2929
F1
sVcargo
p2930
F7
sVappear
p2931
F4
sV4th.--the
p2932
F1
sVheaviness
p2933
F1
sVassistance
p2934
F6
sVforegoing
p2935
F1
sVsafety?
p2936
F2
sVuniform
p2937
F1
sVdomain;
p2938
F1
sVshared
p2939
F4
sVappeal
p2940
F2
sVrepeated;
p2941
F1
sVsafety,
p2942
F2
sVsafety.
p2943
F1
sVsatisfy
p2944
F1
sVsupporting
p2945
F1
sVexplosion
p2946
F5
sVwhiteness
p2947
F1
sVroaring
p2948
F2
sVappears
p2949
F2
sVchange
p2950
F12
sVflames
p2951
F8
sVstubborn;
p2952
F1
sVeke
p2953
F1
sVshare,
p2954
F1
sVusually
p2955
F2
sVwolf,
p2956
F1
sVplotted
p2957
F1
sVretired
p2958
F4
sVextra
p2959
F7
sVmarked
p2960
F9
sVillumination
p2961
F1
sVnauseating
p2962
F1
sVprofound,
p2963
F2
sVincident.
p2964
F3
sVincident,
p2965
F1
sV"thief!"
p2966
F1
sVlive
p2967
F2
sVwonderfully
p2968
F1
sVsighted
p2969
F2
sVintently
p2970
F1
sVsuicide.
p2971
F2
sVretire,
p2972
F1
sVhesitated
p2973
F5
sVdoubled,
p2974
F1
sVuninteresting
p2975
F1
sV49deg.
p2976
F1
sVcat
p2977
F1
sVincidents
p2978
F3
sVcan
p2979
F60
sVliv.
p2980
F1
sVcaptains;
p2981
F1
sVheart
p2982
F8
sVattempts,
p2983
F1
sVdecember
p2984
F17
sVnoiseless.
p2985
F1
sVpaused
p2986
F1
sVheard
p2987
F35
sVo
F1
sVphrase
p2988
F1
sVdistinguishable
p2989
F2
sVoccur
p2990
F3
sVsolemn.
p2991
F1
sVbleeding.
p2992
F1
sVfortunately
p2993
F4
sVdiscussion
p2994
F1
sVcaulking
p2995
F1
sVflank
p2996
F1
sVwell-tarred
p2997
F1
sVfuture.
p2998
F3
sVfuture!
p2999
F1
sVnose,
p3000
F1
sVway,"
p3001
F1
sVproduct
p3002
F1
sVforeboded
p3003
F1
sVstaircase
p3004
F1
sVye'll
p3005
F1
sVdive
p3006
F1
sVsouthern
p3007
F2
sVhear;
p3008
F1
sVfortune.
p3009
F1
sVproduce
p3010
F1
sVgale.
p3011
F1
sVsustained,
p3012
F2
sVpause,
p3013
F3
sVrecent,
p3014
F1
sVrelieved,
p3015
F1
sVwhenever
p3016
F7
sVtaking.
p3017
F1
sVtaking,
p3018
F2
sVunavailable.
p3019
F1
sVdisposition.
p3020
F1
sVdrawn.
p3021
F1
sVno,
p3022
F2
sV7th.--during
p3023
F1
sVindeed
p3024
F2
sVraised
p3025
F12
sVbrain
p3026
F5
sVno:
p3027
F1
sVno;
p3028
F3
sV"which
p3029
F1
sVcold
p3030
F5
sVstill
p3031
F55
sVbirds
p3032
F1
sVacknowledge
p3033
F2
sVdesigns.
p3034
F1
sVamounted
p3035
F1
sV"come,
p3036
F1
sVvicinity
p3037
F1
sVburst.
p3038
F1
sVforms
p3039
F3
sVarchipelago.
p3040
F1
sVdreadfully
p3041
F1
sV"true,"
p3042
F1
sVsea-range
p3043
F1
sVspirits.
p3044
F1
sVobedience!
p3045
F1
sVpocket,
p3046
F2
sVintroduce
p3047
F1
sVtails
p3048
F1
sVwealthy
p3049
F1
sVnot
p3050
F373
sVson
p3051
F11
sVprovision
p3052
F2
sVdiscuss
p3053
F2
sVnor
p3054
F16
sVfirst-rate
p3055
F1
sVstreaks
p3056
F3
sVfumes
p3057
F2
sVjanuary
p3058
F21
sVdrop
p3059
F3
sVshippers
p3060
F1
sVbursts
p3061
F1
sVmizzen-mast.
p3062
F1
sVentirely
p3063
F9
sVprompted
p3064
F2
sVhurried
p3065
F1
sVkear.
p3066
F2
sVkear,
p3067
F18
sVyear
p3068
F3
sVet
p3069
F1
sVhappen
p3070
F1
sVanything,
p3071
F1
sVadvantage;
p3072
F1
sVshown
p3073
F2
sVaccomplish
p3074
F3
sVopened
p3075
F2
sVspace
p3076
F7
sVproposes,
p3077
F1
sVlooking
p3078
F9
sVclanked
p3079
F1
sVfalsten,"
p3080
F1
sVshows
p3081
F3
sVfire!
p3082
F1
sVinevitably
p3083
F5
sVconsciousness,
p3084
F1
sVdog-fish,
p3085
F1
sVtea-kettle,
p3086
F1
sVfire,
p3087
F6
sVfire.
p3088
F5
sVquart
p3089
F1
sVirishman's
p3090
F1
sVnorth-west.
p3091
F1
sVnorth-west,
p3092
F3
sVfire;
p3093
F3
sVominous
p3094
F1
sVmarine
p3095
F1
sVastonishment;
p3096
F1
sVcare
p3097
F12
sVvestige
p3098
F1
sVreflect
p3099
F1
sVcontemplation
p3100
F1
sViron;
p3101
F2
sVdeprivation
p3102
F2
sVvehemently
p3103
F1
sVbritish
p3104
F1
sVhonest
p3105
F1
sVinvitation
p3106
F1
sVentrusted
p3107
F1
sViron.
p3108
F2
sVended;
p3109
F1
sVflying
p3110
F1
sVwithstand
p3111
F1
sVtemporarily
p3112
F1
sVandre,"
p3113
F2
sVdirectly
p3114
F2
sVimpossible
p3115
F9
sVring
p3116
F1
sVdrove
p3117
F2
sVimpetuous
p3118
F1
sVsheet
p3119
F5
sVsilent
p3120
F6
sVinfirmity."
p3121
F1
sVcaught
p3122
F24
sVlightened
p3123
F2
sVjutted
p3124
F1
sVhalf-closed,
p3125
F1
sVfriend
p3126
F2
sVx.
p3127
F1
sVyet,"
p3128
F2
sVthat
p3129
F781
sVviolence,
p3130
F2
sVviolence.
p3131
F4
sVexpanse
p3132
F1
sVdisabuse
p3133
F1
sVviolence;
p3134
F1
sVthan
p3135
F91
sVcurtis!
p3136
F1
sVcurtis'
p3137
F1
sVhammocks
p3138
F1
sVto-morrow,
p3139
F3
sVcurtis,
p3140
F44
sVcurtis.
p3141
F3
sVretracing
p3142
F1
sVextinguish
p3143
F1
sVprofuse
p3144
F1
sVcurtis?
p3145
F1
sVtroublesome
p3146
F1
sVhim,"
p3147
F2
sVclutches.
p3148
F1
sVremained
p3149
F26
sV"j.
p3150
F1
sVbuffalo.
p3151
F1
sV(and
p3152
F1
sVundertaking;
p3153
F1
sVmaniacs,
p3154
F1
sVanger
p3155
F3
sVbreakfast
p3156
F1
sVrecover
p3157
F2
sVnow!"
p3158
F1
sV28th.--john
p3159
F1
sVexposed,
p3160
F2
sVoffering
p3161
F1
sVquarters.
p3162
F2
sVfreshened,
p3163
F3
sVfireship
p3164
F1
sVexposed;
p3165
F1
sVstead,
p3166
F1
sVswelled
p3167
F1
sVcheeks,
p3168
F1
sVbegin
p3169
F4
sVoppressive
p3170
F2
sVimpossible;
p3171
F1
sVbleared
p3172
F1
sVshark
p3173
F7
sVdread.
p3174
F2
sVfore
p3175
F10
sVimpossible.
p3176
F3
sVimpossible,
p3177
F1
sVcannibals,
p3178
F2
sVgarments
p3179
F3
sVsteady
p3180
F3
sVhurled
p3181
F3
sVdispersed
p3182
F1
sVfoaming
p3183
F1
sVfifty
p3184
F5
sVdiscovered
p3185
F1
sVcurtis."
p3186
F1
sV6th,
p3187
F1
sVground
p3188
F1
sVbusily
p3189
F1
sVbait,
p3190
F2
sVstained
p3191
F1
sVproportion
p3192
F2
sVtexture
p3193
F1
sVseptember
p3194
F5
sVonly
p3195
F130
sVseen.
p3196
F3
sVbait;
p3197
F2
sV'tis
p3198
F1
sVtruly
p3199
F4
sVcannot
p3200
F27
sVprogress
p3201
F7
sVxxvi.
p3202
F1
sVswim
p3203
F1
sVleather
p3204
F2
sVpassionately,
p3205
F1
sVignorance.
p3206
F1
sVfriends,
p3207
F3
sVhusband
p3208
F2
sVirradiation
p3209
F1
sVburst
p3210
F11
sVphysically
p3211
F1
sVsandon
p3212
F4
sVanchored
p3213
F1
sVnamely
p3214
F1
sVasleep
p3215
F3
sV"it
p3216
F12
sVconcern
p3217
F1
sVcome,
p3218
F2
sVcome.
p3219
F5
sVtackling
p3220
F3
sVeluded
p3221
F1
sVcolours
p3222
F1
sVwearing.
p3223
F1
sVcomplexion
p3224
F1
sVbetween
p3225
F29
sVjustified
p3226
F1
sV"likely
p3227
F1
sVnotice
p3228
F2
sVpluck
p3229
F1
sVconfidence,"
p3230
F1
sVmoans
p3231
F1
sVleaking-place,
p3232
F1
sVexplosion?"
p3233
F1
sVcleave
p3234
F2
sVconsumptive,
p3235
F1
sVreasonableness
p3236
F1
sVxlviii.
p3237
F1
sVdespond
p3238
F1
sVlabours
p3239
F1
sVmadness
p3240
F1
sVexplosion,
p3241
F4
sVfour,
p3242
F1
sVcouldn't
p3243
F1
sVmoreover
p3244
F1
sVmoisture.
p3245
F1
sVmuttered
p3246
F2
sVexerting
p3247
F1
sVowen's
p3248
F3
sVlong-boat
p3249
F4
sVobeyed."
p3250
F1
sVtropical
p3251
F2
sVpunished
p3252
F1
sVdangers
p3253
F3
sVtiller,
p3254
F1
sVexternal
p3255
F1
sVmoreover,
p3256
F3
sVregained
p3257
F1
sVsuspected
p3258
F1
sVruby
p3259
F11
sVruffling
p3260
F1
sValready?
p3261
F1
sVcrumb
p3262
F2
sVgland
p3263
F1
sVthese
p3264
F30
sV7th.--the
p3265
F1
sVtrick
p3266
F1
sVgreatly,
p3267
F2
sVlong-drawn
p3268
F1
sVfire?"
p3269
F1
sVhatchway
p3270
F1
sVcare,
p3271
F4
sVsuperficially.
p3272
F1
sVperson's
p3273
F1
sVforbear
p3274
F1
sVsoil
p3275
F1
sVcommander
p3276
F2
sVfloating
p3277
F5
sVinquire
p3278
F1
sVdelusive
p3279
F1
sVyou,"
p3280
F3
sVinquiry
p3281
F1
sVcharge.
p3282
F1
sVdocument
p3283
F2
sVnoble
p3284
F3
sVfinish
p3285
F2
sVbrutes.
p3286
F1
sVenigmatical
p3287
F1
sVfoam
p3288
F5
sVmarking
p3289
F1
sVsolicitation
p3290
F1
sV21st,
p3291
F2
sVpassing
p3292
F12
sVsevere
p3293
F1
sVbreeze
p3294
F15
sValleviate
p3295
F2
sVuninjured
p3296
F1
sVotherwise
p3297
F6
sVsir."
p3298
F2
sVminds,
p3299
F1
sVam.
p3300
F1
sVcommotion,
p3301
F1
sVcertain,
p3302
F1
sVshouts
p3303
F4
sVsweeping
p3304
F2
sVefforts,
p3305
F4
sVstorming
p3306
F1
sVtouch
p3307
F7
sVspeed
p3308
F7
sVdeath
p3309
F6
sVthinking
p3310
F6
sVsenseless
p3311
F3
sVthen!"
p3312
F1
sVimprovement
p3313
F1
sVallude
p3314
F2
sVconduct,
p3315
F2
sVmournful
p3316
F3
sVmainmast.
p3317
F1
sVseams
p3318
F3
sVpassive,
p3319
F1
sVfrown
p3320
F1
sVrules
p3321
F1
sVsharp."
p3322
F1
sVwreck,
p3323
F1
sVearly
p3324
F6
sVerection
p3325
F1
sVlistening
p3326
F6
sVgreeting?
p3327
F1
sVexecution
p3328
F1
sVlady
p3329
F4
sVwreck?
p3330
F1
sVcommend
p3331
F1
sVfortune
p3332
F1
sVpounds
p3333
F6
sVsmell
p3334
F4
sVcurrents,
p3335
F1
sVmiracle
p3336
F1
sV"leave
p3337
F1
sVbenefit
p3338
F3
sVpanel-slides,
p3339
F1
sVverdure;
p3340
F1
sVhuntly's
p3341
F3
sVtwelve
p3342
F7
sVopened,
p3343
F2
sVexposed
p3344
F6
sVunquestionable
p3345
F1
sVunavailing,
p3346
F1
sVpeace.
p3347
F1
sVperemptorily
p3348
F1
sVunclasped
p3349
F1
sV"hatches"
p3350
F1
sVpeace!
p3351
F1
sV12th,
p3352
F1
sVstopped
p3353
F4
sVtwice,
p3354
F2
sVbusiness
p3355
F4
sVstrained
p3356
F3
sVuneasy
p3357
F4
sVhectic
p3358
F1
sVsixty
p3359
F3
sVexciting
p3360
F1
sVthrow
p3361
F7
sVahull;
p3362
F1
sVuvula,
p3363
F1
sVgreatly
p3364
F4
sVhome;
p3365
F1
sVahull.
p3366
F1
sVahull,
p3367
F2
sVheavy
p3368
F26
sVwhy,"
p3369
F1
sVunbounded
p3370
F1
sVintermission,
p3371
F1
sVverily
p3372
F1
sVyour
p3373
F31
sVintervention
p3374
F1
sVstare
p3375
F1
sVrisen,
p3376
F1
sVdisposal,
p3377
F2
sVprepare
p3378
F1
sVremoving
p3379
F1
sVtone.
p3380
F1
sVstart
p3381
F5
sVlow
p3382
F15
sVlot
p3383
F4
sVthick,
p3384
F1
sVyou,
p3385
F11
sVgrin,
p3386
F1
sVgroan
p3387
F1
sVsmuggling
p3388
F1
sVlatitudes,
p3389
F2
sVself-preservation
p3390
F1
sVyou;
p3391
F2
sVpitched
p3392
F2
sVtrying
p3393
F7
sVis,"
p3394
F2
sVappeased.
p3395
F1
sVwaste
p3396
F1
sVcirculation
p3397
F1
sVdeclined,
p3398
F1
sVare,
p3399
F1
sVsavagely,--
p3400
F1
sVburning?
p3401
F1
sVtones
p3402
F1
sVsubdue
p3403
F1
sVmomentarily
p3404
F1
sVdescribe
p3405
F4
sVmoved
p3406
F3
sVsteadily,
p3407
F2
sVscanned
p3408
F3
sVperil,
p3409
F1
sVmerest
p3410
F1
sVgenial.
p3411
F1
sVgenial,
p3412
F1
sVill-favoured
p3413
F1
sVvine,
p3414
F1
sVdetails,
p3415
F1
sVsneered
p3416
F1
sVyou
p3417
F108
sVforcing
p3418
F1
sVgaining
p3419
F1
sVpoop
p3420
F9
sVmove,
p3421
F2
sVmove.
p3422
F2
sVperils
p3423
F1
sVdrift
p3424
F4
sVcarpenter
p3425
F15
sVwhistling
p3426
F1
sVpeal
p3427
F3
sVflattened
p3428
F1
sVpeak
p3429
F1
sVmove?
p3430
F1
sVdabble
p3431
F1
sVfool!
p3432
F2
sVevening.
p3433
F1
sVanticipated.
p3434
F1
sVevening;
p3435
F2
sV"hush!
p3436
F1
sVpointing
p3437
F5
sValleviation
p3438
F2
sVanybody;
p3439
F1
sVceased
p3440
F4
sVpledged
p3441
F2
sVgallons,
p3442
F2
sVsafety
p3443
F2
sVothers,--falsten,
p3444
F1
sVvery
p3445
F108
sVhorror
p3446
F3
sV"he
p3447
F3
sVshortly,
p3448
F1
sVpossessed,
p3449
F2
sVcontinued;
p3450
F1
sVdecide
p3451
F1
sVtomorrow.
p3452
F1
sVsecurely
p3453
F5
sVheaven
p3454
F4
sVnonsense.
p3455
F1
sVerect.
p3456
F1
sVplain
p3457
F2
sVopened.
p3458
F1
sVwater!"
p3459
F2
sVi'll
p3460
F3
sVstreets
p3461
F1
sVincensed
p3462
F1
sVanswer,
p3463
F1
sVcurtis,"
p3464
F2
sVprivation.
p3465
F1
sVcasual
p3466
F1
sVi."
p3467
F2
sVconscience
p3468
F1
sVhim:
p3469
F1
sVdarkness
p3470
F4
sVscorching
p3471
F2
sVlurch
p3472
F1
sVemotions
p3473
F1
sVunattached
p3474
F1
sVhim.
p3475
F20
sVhim,
p3476
F26
sVlearned
p3477
F1
sVhold."
p3478
F2
sVhim!
p3479
F2
sVimpudent,
p3480
F1
sVexcitement.
p3481
F1
sVtracks
p3482
F1
sVsepulchres,
p3483
F1
sVdepend
p3484
F1
sVgloomiest
p3485
F1
sVstrong
p3486
F8
sVexcitement;
p3487
F1
sVsuppressed,
p3488
F1
sVdespondency,
p3489
F1
sVinterposed
p3490
F1
sVdespondency.
p3491
F1
sVahead
p3492
F1
sVpartaker
p3493
F1
sVeffectually.
p3494
F1
sVamount
p3495
F4
sVemotion.
p3496
F1
sV"there,"
p3497
F1
sVreal
p3498
F2
sVmonotony
p3499
F3
sVswoon
p3500
F1
sVfamily
p3501
F1
sVsufferer
p3502
F1
sVtides;
p3503
F1
sVput
p3504
F24
sVsaccharine
p3505
F1
sVseventeenth
p3506
F1
sVpealing,"
p3507
F1
sVpasses,
p3508
F1
sVbreeze;
p3509
F1
sVtakes
p3510
F2
sVcontains
p3511
F2
sVup?"
p3512
F1
sVunpleasant
p3513
F1
sVbreeze,
p3514
F6
sVsouth-east,
p3515
F2
sVtaken
p3516
F29
sVbreeze"
p3517
F1
sVinjury
p3518
F2
sVbare.
p3519
F1
sVlowering
p3520
F2
sVmoistened
p3521
F1
sV25th,
p3522
F1
sVbroke
p3523
F11
sVmounted
p3524
F4
sVproducing
p3525
F2
sVnausea,
p3526
F1
sVhelped
p3527
F1
sVnine
p3528
F5
sVcopperas;
p3529
F1
sVspontaneous
p3530
F1
sVhistory
p3531
F1
sV15th.--after
p3532
F1
sV45deg.
p3533
F1
sVencircle
p3534
F1
sVfury,
p3535
F2
sVfury.
p3536
F3
sVpushed
p3537
F1
sVexclude
p3538
F1
sVfury;
p3539
F1
sVspecies
p3540
F2
sVfirmly
p3541
F8
sVexclaimed,--
p3542
F2
sVmoment?"
p3543
F1
sVterribly
p3544
F1
sVchancellor.
p3545
F1
sVamerican
p3546
F1
sVchancellor,
p3547
F1
sVunlucky
p3548
F1
sVshrouds
p3549
F6
sVstarvation,
p3550
F2
sVstarvation.
p3551
F2
sVreject
p3552
F1
sVsailors,--a
p3553
F1
sVstream."
p3554
F1
sVtried
p3555
F17
sVcommunicating
p3556
F1
sVclimate,
p3557
F1
sV"ship!"
p3558
F1
sVaft,
p3559
F2
sVhorizontal
p3560
F1
sVaft.
p3561
F1
sVxxiv.
p3562
F1
sVa
F957
sVcontrived
p3563
F7
sVcontinued.--the
p3564
F1
sVcalm;
p3565
F2
sVshroud,
p3566
F1
sVspectre
p3567
F1
sVpitiable.
p3568
F1
sVcalm"
p3569
F1
sVdread
p3570
F1
sVcontrives
p3571
F1
sVcalm.
p3572
F1
sVcalm,
p3573
F2
sVdead--"
p3574
F1
sVhelp
p3575
F15
sVreservoir
p3576
F1
sVcaulkings
p3577
F1
sVoffensive.
p3578
F1
sVsoon
p3579
F41
sVheld
p3580
F13
sVwas,--raw
p3581
F1
sVrelaxed,
p3582
F1
sVcommitted
p3583
F2
sVhelm
p3584
F1
sVauthorities.
p3585
F1
sVfanning
p3586
F1
sVcarpeted
p3587
F1
sVspeechless.
p3588
F1
sVsolving
p3589
F1
sVactually
p3590
F6
sVvomiting,
p3591
F1
sVindecision,
p3592
F1
sVif,
p3593
F3
sVfull,
p3594
F1
sVhaven't
p3595
F1
sVfool
p3596
F1
sVevening
p3597
F7
sVcurtis
p3598
F146
sVfood
p3599
F17
sVye
p3600
F1
sVlook-out
p3601
F1
sVjanuary!
p3602
F1
sVfoot
p3603
F7
sVlabour;
p3604
F1
sVimprisoned
p3605
F1
sVavert.
p3606
F1
sVfully
p3607
F14
sVsystem,
p3608
F1
sVinterrupted,
p3609
F1
sVmark,
p3610
F2
sVlabour,
p3611
F1
sVlabour.
p3612
F1
sVsir,"
p3613
F5
sVisn't
p3614
F2
sVbarrels
p3615
F5
sV2000l.
p3616
F1
sVsails;
p3617
F1
sVjaws
p3618
F1
sVexasperated
p3619
F1
sVenergy,
p3620
F3
sVsails,
p3621
F9
sVsails.
p3622
F5
sVenergy;
p3623
F1
sVbeyond
p3624
F17
sVevent
p3625
F3
sVamerica?
p3626
F1
sVcapsizing
p3627
F1
sVrobert
p3628
F7
sVsince
p3629
F34
sVamerica.
p3630
F1
sVsustain
p3631
F2
sV7
F1
sVapparent;
p3632
F1
sVissue
p3633
F3
sVmeteoric
p3634
F1
sVuttered,
p3635
F1
sVuttered.
p3636
F1
sVtoiling
p3637
F1
sVponderous
p3638
F1
sVreason
p3639
F12
sVbase
p3640
F3
sVdire
p3641
F2
sVmoistening
p3642
F1
sVask
p3643
F4
sVearliest
p3644
F1
sVbarrel.
p3645
F2
sVdowlas,
p3646
F10
sVlaunch
p3647
F2
sVperceptible
p3648
F1
sVpersists
p3649
F1
sVterrible
p3650
F13
sVcheering
p3651
F1
sVfeelings.
p3652
F3
sVexpecting
p3653
F1
sVhandles,
p3654
F1
sVknots
p3655
F3
sVprobability
p3656
F2
sVknocking
p3657
F2
sVunaccompanied
p3658
F1
sVcan,"
p3659
F1
sVminutes,
p3660
F3
sVclosely,
p3661
F1
sVmist
p3662
F1
sVmiss
p3663
F78
sVraw,
p3664
F1
sVutters
p3665
F2
sVst.
p3666
F2
sVobedience
p3667
F1
sVcleanliness,
p3668
F1
sVdreaming,
p3669
F1
sVhundred
p3670
F11
sVparched,
p3671
F1
sVshifted
p3672
F4
sVnumbered
p3673
F1
sVbowed
p3674
F1
sVvision,
p3675
F2
sVpassed
p3676
F30
sVconsultation,
p3677
F3
sVscheme
p3678
F4
sVmiseries
p3679
F1
sVanticipate
p3680
F1
sVafloat,
p3681
F1
sVgrey
p3682
F4
sVafloat.
p3683
F2
sVstore
p3684
F6
sVstrenuous
p3685
F1
sVtoward
p3686
F1
sVletourneur,
p3687
F27
sVletourneur.
p3688
F3
sV"picrate,
p3689
F1
sVexperience,
p3690
F2
sVletourneur;
p3691
F1
sVnull
p3692
F1
sVorgans
p3693
F1
sVlie
p3694
F3
sVnoon,
p3695
F1
sVadrift
p3696
F2
sVmeditations,
p3697
F1
sVcreek,
p3698
F1
sVcave
p3699
F3
sVofficers
p3700
F1
sVconcealed.
p3701
F1
sVlabour
p3702
F4
sVyard;
p3703
F1
sVcomprehended
p3704
F1
sVhalliards
p3705
F1
sVaggravating
p3706
F1
sVcommand
p3707
F7
sVfruitless.
p3708
F1
sVexperienced
p3709
F2
sVsentence.
p3710
F2
sVdiet,
p3711
F3
sVeaten
p3712
F3
sVposition
p3713
F11
sVsalary
p3714
F1
sVchronicle
p3715
F1
sVsmoulder
p3716
F1
sVclear
p3717
F2
sVofficer,
p3718
F1
sVclean
p3719
F1
sVvelocity
p3720
F2
sVreefs
p3721
F2
sVindignation,
p3722
F1
sVlanguid
p3723
F2
sVscorched
p3724
F3
sVpocketed
p3725
F1
sVscorches
p3726
F1
sVexcluded,
p3727
F1
sVdistressing
p3728
F3
sV"second
p3729
F1
sVrecommendation,
p3730
F1
sVserious.
p3731
F1
sVnails,
p3732
F1
sVdarted
p3733
F2
sVsurveyed
p3734
F2
sVpretty
p3735
F5
sVhardened
p3736
F1
sVcircle
p3737
F2
sVscouring.
p3738
F1
sVdominant
p3739
F1
sVmeanwhile
p3740
F4
sVheaven!
p3741
F1
sVimparted
p3742
F1
sVfeels
p3743
F1
sVgrew
p3744
F3
sVduring
p3745
F18
sVgroan,
p3746
F1
sVparamaribo
p3747
F1
sVmolten
p3748
F1
sVscourings
p3749
F1
sVexhibiting
p3750
F2
sVtop-sails,
p3751
F2
sVsacrificed
p3752
F1
sV"preposterous!
p3753
F1
sVflight,
p3754
F1
sVvestibule
p3755
F1
sVgathered
p3756
F2
sVpoisoned
p3757
F3
sVscanning
p3758
F3
sVseventeen
p3759
F1
sVhowled
p3760
F2
sVthrowing
p3761
F5
sVemergency.
p3762
F1
sVbasalt,
p3763
F2
sVemergency,
p3764
F1
sVsymptoms.
p3765
F1
sVinvisible.
p3766
F1
sVclose
p3767
F16
sVdespatch
p3768
F1
sVembarking
p3769
F2
sV"tight
p3770
F1
sVprobable
p3771
F5
sVhorrid
p3772
F1
sVpocket-book.
p3773
F1
sVsecret.
p3774
F1
sVforked
p3775
F1
sVsecret,
p3776
F1
sVassistants
p3777
F2
sVconditions
p3778
F2
sVstationary,
p3779
F1
sVmissing
p3780
F1
sVxxii.
p3781
F1
sVspray
p3782
F1
sVorders."
p3783
F1
sVdistinguish
p3784
F6
sVburke,
p3785
F8
sV6th.--the
p3786
F2
sVcondition.
p3787
F2
sVcondition,
p3788
F3
sVusual."
p3789
F1
sVwouldn't
p3790
F1
sVoverpowering;
p3791
F1
sVsensitive
p3792
F1
sVabove,
p3793
F1
sVforgotten
p3794
F4
sVvault
p3795
F1
sVseeing,
p3796
F1
sVliked
p3797
F1
sVpassively
p3798
F1
sVyards;
p3799
F1
sVlive.
p3800
F2
sVwhatever
p3801
F6
sVyards,
p3802
F1
sVvessel
p3803
F29
sVdeserves?
p3804
F1
sVdescribed
p3805
F1
sVmasts,
p3806
F2
sVmasts.
p3807
F5
sV"fields,
p3808
F1
sVgrasped
p3809
F1
sVdescribes
p3810
F1
sVmutiny
p3811
F1
sVcollected
p3812
F1
sVthreaten
p3813
F1
sVdelights
p3814
F1
sVwalter
p3815
F10
sVxxxvi.
p3816
F1
sVlived
p3817
F1
sVmanner;
p3818
F1
sVlike.
p3819
F1
sVlike,
p3820
F1
sVexempt
p3821
F1
sVelse
p3822
F4
sVmanner.
p3823
F2
sVmanner,
p3824
F4
sVrecalled
p3825
F1
sVbidding
p3826
F1
sVdelight,
p3827
F1
sVdelight.
p3828
F1
sVutmost
p3829
F12
sVlook
p3830
F24
sVrope
p3831
F9
sVwhile
p3832
F17
sVherbey's
p3833
F7
sVdelight;
p3834
F1
sVdescribe;
p3835
F1
sVsombre
p3836
F1
sV18th.--the
p3837
F1
sVchisels,
p3838
F1
sVcognizant
p3839
F1
sVuse.
p3840
F4
sVoverlooked
p3841
F1
sVloosened
p3842
F3
sVready
p3843
F22
sVreception,
p3844
F1
sVbreathless,
p3845
F1
sVclear.
p3846
F1
sVgrant
p3847
F2
sVexists,
p3848
F1
sV23rd.--only
p3849
F1
sVused
p3850
F4
sVtemporary
p3851
F3
sVatoms.
p3852
F1
sVredoubling
p3853
F1
sVtransitory
p3854
F1
sVgeologist.
p3855
F1
sVcleaning
p3856
F1
sVchanged,
p3857
F1
sVstaffa.
p3858
F1
sVolder
p3859
F1
sVconsistency
p3860
F1
sV"our
p3861
F1
sVscouring
p3862
F1
sVmeditations.
p3863
F1
sVmorsel
p3864
F6
sVmerely,
p3865
F1
sVresisted.
p3866
F1
sVdiminished,
p3867
F1
sVuselessly
p3868
F1
sVunlading
p3869
F2
sVtrowsers.
p3870
F1
sVpond.
p3871
F1
sVfortunate."
p3872
F1
sVlonger.
p3873
F2
sVlonger,
p3874
F1
sVdrinking-vessels
p3875
F1
sVprobability,
p3876
F1
sVshowing
p3877
F1
sVfellow-sufferers.
p3878
F1
sVquarter,
p3879
F4
sVbreach.
p3880
F1
sVlonger;
p3881
F1
sVdamage
p3882
F2
sVjudgment.
p3883
F1
sVdistance.
p3884
F1
sVdistance,
p3885
F1
sVexcluding
p3886
F2
sVthroat;
p3887
F2
sVdaylight.
p3888
F1
sVsignal
p3889
F2
sVresorted
p3890
F1
sVmanifest
p3891
F1
sVthroat,
p3892
F1
sVthroat.
p3893
F2
sVme."
p3894
F1
sVsketch
p3895
F1
sVlast,
p3896
F4
sVlast.
p3897
F2
sVsome
p3898
F147
sVshuddered
p3899
F1
sVurgent
p3900
F1
sVlips
p3901
F8
sVtowards
p3902
F33
sVbesides.
p3903
F2
sVbesides,
p3904
F6
sVlast;
p3905
F1
sVsavage
p3906
F1
sVabsurd;
p3907
F1
sVexceeding
p3908
F1
sVreckon
p3909
F1
sVkind-hearted
p3910
F2
sVthen?"
p3911
F3
sVforgets
p3912
F1
sVfather;
p3913
F1
sVmeasures
p3914
F3
sVrun
p3915
F11
sV7th.--this
p3916
F1
sVhypocritical
p3917
F1
sVstem
p3918
F1
sVstep
p3919
F3
sVfather,
p3920
F12
sVsmothered
p3921
F1
sV"given
p3922
F1
sVforget.
p3923
F1
sVsunbeams.
p3924
F1
sVforget,
p3925
F1
sVfragments;
p3926
F1
sVtracing
p3927
F1
sVaudible
p3928
F1
sVhelp.
p3929
F1
sVsilence
p3930
F10
sVcloud-rifts,
p3931
F1
sVseeing
p3932
F3
sVfish,
p3933
F4
sVwithin
p3934
F7
sV15th.--for
p3935
F1
sVdissatisfaction
p3936
F1
sVmain-top
p3937
F4
sVlow-reefed
p3938
F2
sVwhaleboat
p3939
F1
sV21st.--the
p3940
F1
sVbesieged
p3941
F1
sVcherished
p3942
F1
sVconsultation
p3943
F2
sVcaresses
p3944
F1
sVsinking!"
p3945
F1
sVroll,
p3946
F1
sVhimself
p3947
F26
sVregistered
p3948
F2
sVproperly
p3949
F2
sVhail
p3950
F2
sVreef
p3951
F14
sVdemeanour.
p3952
F1
sVdull
p3953
F3
sVmiracle,
p3954
F1
sVpersisting
p3955
F1
sVstumbling
p3956
F1
sVcommiseration
p3957
F2
sVaccustomed
p3958
F4
sVenglishmen,--were
p3959
F1
sVnecessity,
p3960
F1
sVsimilar
p3961
F5
sVli.
p3962
F1
sVordered
p3963
F7
sV30th.--once
p3964
F1
sVdrinkable
p3965
F1
sVperspirations,
p3966
F1
sVsmile.
p3967
F2
sVsmile,
p3968
F1
sVcotton
p3969
F9
sVshipwrecks,
p3970
F1
sVsmiling;
p3971
F1
sVdashed
p3972
F8
sVheat,
p3973
F3
sVfears
p3974
F1
sVsmiling,
p3975
F1
sVelectrical
p3976
F1
sVeager,
p3977
F2
sVthemselves,
p3978
F2
sVnay
p3979
F1
sVwished
p3980
F7
sVhappens
p3981
F1
sVdraw
p3982
F4
sVhindrance
p3983
F1
sVvisits
p3984
F1
sVmerite;"
p3985
F1
sVwilliam
p3986
F2
sVmetal,
p3987
F1
sVdrag
p3988
F1
sVsudden,
p3989
F1
sV"land
p3990
F2
sVintervention.
p3991
F1
sVstructure
p3992
F1
sVoutcry,
p3993
F1
sVprecluded,
p3994
F1
sVundertone
p3995
F1
sVfear;
p3996
F1
sVpractically
p3997
F1
sVrequired
p3998
F6
sVbleached
p3999
F1
sVdepth
p4000
F5
sVfear,
p4001
F2
sVlying
p4002
F11
sVeverywhere
p4003
F5
sVsounded
p4004
F3
sVleeward."
p4005
F1
sV"eat,
p4006
F1
sVgo
p4007
F15
sVphenomenon
p4008
F2
sVcross-beams
p4009
F1
sVwaterline,
p4010
F1
sVfray.
p4011
F1
sVstrides,
p4012
F1
sVcatastrophe.
p4013
F1
sVquickly,
p4014
F1
sVcatastrophe,
p4015
F1
sVarid
p4016
F1
sVcomfort?
p4017
F1
sVposition.
p4018
F3
sVsailer,
p4019
F1
sVposition,
p4020
F4
sVpassion
p4021
F1
sVfriendly
p4022
F1
sVill-ventilated
p4023
F1
sVflinging
p4024
F1
sVprudence
p4025
F2
sV1795
p4026
F1
sVmore;
p4027
F1
sVevident;
p4028
F1
sV"are
p4029
F1
sVmore!
p4030
F1
sVtelling
p4031
F3
sVyourselves
p4032
F1
sVmore.
p4033
F7
sVnausea
p4034
F1
sVcoldly.
p4035
F1
sVexcruciating
p4036
F2
sVcompassionate
p4037
F1
sVwatered
p4038
F1
sV22nd.--curtis
p4039
F1
sVinspection
p4040
F1
sVteeth.
p4041
F1
sVoz.
p4042
F2
sVxxviii.
p4043
F1
sVcables'
p4044
F1
sVpicked
p4045
F3
sVsmashed,
p4046
F1
sVnotwithstanding
p4047
F5
sVto-day;
p4048
F1
sVindissoluble,
p4049
F1
sVmorsel.
p4050
F1
sVlost."
p4051
F2
sVcompletion
p4052
F1
sVmelancholy
p4053
F7
sV9th
p4054
F2
sVdone?"
p4055
F1
sVfollowing
p4056
F10
sVcoldly,
p4057
F1
sVdespond.
p4058
F1
sVmorsels
p4059
F1
sVveered
p4060
F1
sVexamining
p4061
F2
sVdaybreak
p4062
F6
sVdanger
p4063
F11
sVmanage
p4064
F5
sVdeny;
p4065
F2
sVsnatched
p4066
F2
sVaddressed
p4067
F1
sVbecome,
p4068
F1
sVwe?"
p4069
F1
sVsinging
p4070
F1
sVcloud
p4071
F4
sVdrop,
p4072
F1
sVsafety-valve.
p4073
F1
sVremains
p4074
F6
sVdrop!
p4075
F1
sVperforms
p4076
F1
sVdrop;
p4077
F1
sVpanel
p4078
F2
sVbeyond.
p4079
F2
sVcheeks
p4080
F1
sVuntwisted
p4081
F1
sVstarted
p4082
F7
sVbecomes
p4083
F3
sVtestified
p4084
F1
sVcharming
p4085
F1
sV"to
p4086
F1
sVviolent,
p4087
F1
sVsocket
p4088
F2
sVremain;
p4089
F1
sVarched
p4090
F1
sVannouncing
p4091
F1
sVshrieked
p4092
F3
sVcrossed
p4093
F3
sVremain.
p4094
F2
sVmeet
p4095
F4
sVdrops
p4096
F10
sVeternity,
p4097
F1
sVcontrol
p4098
F3
sVescapes
p4099
F2
sVfar,
p4100
F1
sVration,
p4101
F1
sVration.
p4102
F1
sVescaped
p4103
F12
sVherbey's,
p4104
F1
sV"pooh!
p4105
F1
sVsought
p4106
F1
sVheaven,
p4107
F2
sVration;
p4108
F1
sVtetanus.
p4109
F1
sVbedad,
p4110
F1
sVarrangement
p4111
F1
sVinstinctively
p4112
F3
sVcircular
p4113
F1
sVfare
p4114
F1
sVknots,
p4115
F1
sVbillows
p4116
F1
sVescape;
p4117
F1
sVrations
p4118
F1
sVfatigue
p4119
F2
sVcourage,
p4120
F2
sVescape.
p4121
F2
sVscent,
p4122
F1
sVmalays.
p4123
F1
sVdespair;
p4124
F1
sVdespair,
p4125
F2
sVdespair.
p4126
F3
sVhand,
p4127
F18
sVhand.
p4128
F8
sVlottery.
p4129
F1
sVincluding
p4130
F3
sVmentioned
p4131
F3
sVagain?"
p4132
F2
sVhand;
p4133
F2
sVinhabitable.
p4134
F1
sVouter
p4135
F1
sVtill
p4136
F6
sVmasses
p4137
F5
sVcunning,
p4138
F1
sVsurrounds
p4139
F2
sVstout
p4140
F1
sVhands
p4141
F12
sVfront
p4142
F3
sVxxvii.
p4143
F1
sVmasters
p4144
F1
sV19th.--everything,
p4145
F1
sVaft-shrouds,
p4146
F1
sVmastery
p4147
F1
sVrails,
p4148
F1
sVbows
p4149
F4
sVmore,"
p4150
F1
sVlay,
p4151
F1
sVpalm."
p4152
F1
sVlisten,
p4153
F1
sVankles
p4154
F1
sVnow:
p4155
F1
sVglobe
p4156
F1
sVnegro,
p4157
F2
sValteration
p4158
F1
sVaggravated
p4159
F1
sVadvancing
p4160
F1
sVmeasure
p4161
F3
sVwine.
p4162
F1
sVstimulants
p4163
F1
sV"fire!
p4164
F1
sVsandy
p4165
F1
sVgallant
p4166
F1
sVlukewarm
p4167
F3
sVtime;
p4168
F1
sVconfess
p4169
F6
sVfathom
p4170
F2
sVtime,
p4171
F10
sVtime.
p4172
F6
sVcause
p4173
F7
sVmoment;"
p4174
F1
sVengraven
p4175
F1
sVlock.
p4176
F1
sVhumiliating
p4177
F1
sVgrog
p4178
F1
sV"give
p4179
F2
sVcompletely
p4180
F9
sVill,
p4181
F1
sV5th.--our
p4182
F1
sVsitting
p4183
F3
sVresumed
p4184
F2
sVdrowning
p4185
F1
sVreeled
p4186
F1
sVroute
p4187
F3
sVdiminished
p4188
F3
sVconfident
p4189
F1
sVtimes
p4190
F19
sVkeen
p4191
F3
sVkeel
p4192
F1
sVremorse,
p4193
F1
sVmaddened
p4194
F1
sVclamour
p4195
F1
sVpitied
p4196
F1
sVspots
p4197
F1
sVprecisely
p4198
F2
sVlaughs;
p4199
F1
sVmanagement
p4200
F1
sVbe,
p4201
F10
sVbears
p4202
F1
sVwatching,
p4203
F1
sVadopted
p4204
F1
sVattack
p4205
F4
sVassent,
p4206
F1
sVintelligence
p4207
F1
sVwrapped
p4208
F7
sVvile
p4209
F1
sVperfectly
p4210
F11
sVfinal
p4211
F4
sVbeard
p4212
F1
sVexactly
p4213
F3
sVsmiled;
p4214
F1
sV"andre,"
p4215
F1
sVsmiled,
p4216
F1
sVherself
p4217
F1
sVwaist
p4218
F2
sVbid
p4219
F1
sVyawned
p4220
F1
sVbeg
p4221
F3
sVconflagration.
p4222
F1
sVconflagration,
p4223
F1
sVbear.
p4224
F1
sV22nd.--daylight
p4225
F1
sVstripes.
p4226
F1
sVhermetically
p4227
F2
sVinsignificance
p4228
F1
sVsubjoin
p4229
F1
sVspurs
p4230
F1
sVre-entered
p4231
F1
sVintention.
p4232
F1
sVintention,
p4233
F1
sVordinarily
p4234
F2
sVhorrors
p4235
F2
sVparamaribo,
p4236
F1
sVknow!"
p4237
F1
sVneed
p4238
F4
sVconstrained
p4239
F1
sVuprights
p4240
F2
sVpursued
p4241
F1
sVable
p4242
F18
sVproceeding,
p4243
F1
sVissuing
p4244
F1
sVdeclined
p4245
F1
sVconsequence,
p4246
F1
sVadieu
p4247
F1
sVmoments,
p4248
F3
sVsubsisting
p4249
F1
sVplugging
p4250
F1
sVhorror,
p4251
F3
sVimperilled
p4252
F1
sV21st.--no
p4253
F1
sVconnected
p4254
F2
sVpreparations
p4255
F1
sVhorror;
p4256
F1
sVlearnt
p4257
F1
sVawe
p4258
F1
sVexpired
p4259
F2
sVberth.
p4260
F1
sVislets,
p4261
F1
sVconsequences
p4262
F2
sVproceedings
p4263
F1
sVlowered
p4264
F6
sVgesture
p4265
F4
sVimpression
p4266
F6
sVshuddered.
p4267
F1
sVaccomplices,
p4268
F1
sVaccomplices.
p4269
F1
sV"yes;
p4270
F3
sVslow,
p4271
F1
sVarrived.
p4272
F1
sVenvy
p4273
F1
sVstay-sails,
p4274
F1
sVprivation
p4275
F2
sVhopeful
p4276
F1
sVrash
p4277
F2
sVunsuccessful,
p4278
F1
sVemployed
p4279
F4
sVimprovident
p4280
F1
sVislet.
p4281
F1
sVfellow
p4282
F10
sVamazement.
p4283
F3
sVsculptor's
p4284
F1
sVprobably
p4285
F17
sVbelow,
p4286
F2
sVascended
p4287
F1
sVtalking.
p4288
F1
sVplaces
p4289
F2
sVdeserves,
p4290
F1
sVgust
p4291
F1
sVdejected
p4292
F1
sVshe
p4293
F113
sVyear?"
p4294
F1
sVcontain
p4295
F1
sVunfrequently
p4296
F2
sVspotted
p4297
F1
sVfrugality
p4298
F1
sVprayers
p4299
F1
sV"perhaps,
p4300
F1
sVimpulse,
p4301
F1
sVofficials
p4302
F1
sVpowder
p4303
F3
sVdesperate
p4304
F1
sVhumane
p4305
F1
sVmind;
p4306
F2
sVplaced
p4307
F9
sV21deg.
p4308
F1
sVsets,
p4309
F1
sVmind,
p4310
F7
sVwritten
p4311
F3
sVmind.
p4312
F5
sVadding,
p4313
F1
sVhorrible
p4314
F10
sVlimit,
p4315
F1
sVneither
p4316
F10
sVdirest
p4317
F2
sVmainly
p4318
F1
sVtent
p4319
F4
sVasked.
p4320
F5
sVasked,
p4321
F3
sVattention
p4322
F6
sV22nd.--for
p4323
F1
sVimportance
p4324
F1
sVhurrying
p4325
F2
sVinterfere
p4326
F2
sVspared
p4327
F1
sVhuman,
p4328
F1
sV29th.--for
p4329
F1
sVboatswain,"
p4330
F1
sVvein.
p4331
F1
sVjoy;
p4332
F1
sVinundate
p4333
F1
sVten.
p4334
F1
sVlimits
p4335
F1
sVten,
p4336
F2
sVminds
p4337
F2
sVadmit
p4338
F2
sVsucceed
p4339
F4
sVcareen
p4340
F1
sVthere,"
p4341
F1
sVcreepers,
p4342
F1
sVstop!"
p4343
F1
sVagreed
p4344
F6
sVtogether.
p4345
F3
sVtogether,
p4346
F4
sVtogether!
p4347
F1
sVcrystalline
p4348
F1
sVshoulder.
p4349
F4
sVquit
p4350
F2
sVown,
p4351
F3
sVon,"
p4352
F1
sVown.
p4353
F3
sVthanked
p4354
F1
sVquid
p4355
F1
sVslowly
p4356
F4
sVpoet
p4357
F1
sVday."
p4358
F1
sVshoulders
p4359
F1
sVsenses
p4360
F4
sVboth
p4361
F13
sVstore-room
p4362
F3
sVmisfortunes;
p4363
F1
sVhamburg
p4364
F1
sVdistressing,
p4365
F1
sVeat."
p4366
F1
sVoutspread
p4367
F1
sVharder
p4368
F1
sVinn
p4369
F2
sVwill,
p4370
F3
sVencircled
p4371
F2
sVimprudence.
p4372
F1
sVtide,
p4373
F5
sVappearance;
p4374
F1
sVdupes,
p4375
F1
sVrecognized,
p4376
F1
sVsurface
p4377
F10
sVexamined
p4378
F4
sVappearance,
p4379
F3
sVswinging
p4380
F1
sVappearance.
p4381
F2
sVabove.
p4382
F3
sVbegan
p4383
F26
sVhavre
p4384
F1
sVparts
p4385
F1
sVobstacle.
p4386
F1
sV"never!"
p4387
F1
sVparty
p4388
F7
sVflesh
p4389
F1
sVeffect
p4390
F8
sVprivations
p4391
F3
sVdiscouraged
p4392
F1
sVfierce
p4393
F3
sVfrequently
p4394
F1
sVkeep
p4395
F12
sVrift
p4396
F1
sVscarcely
p4397
F23
sVreflection
p4398
F1
sVintercede
p4399
F1
sVi
F806
sVpart,
p4400
F7
sVawning
p4401
F1
sVsixty,
p4402
F1
sVrestore
p4403
F1
sVenormously
p4404
F1
sVill-tempered
p4405
F1
sVbottom,
p4406
F1
sVdo,"
p4407
F2
sVaccurate
p4408
F1
sVmistaken
p4409
F4
sVglances,
p4410
F1
sVdistant
p4411
F9
sVsuffering;"
p4412
F1
sVbattered,
p4413
F1
sVextends
p4414
F1
sVwarrant
p4415
F1
sVdetails
p4416
F1
sVintimated
p4417
F1
sVscotch,
p4418
F1
sVfate
p4419
F2
sVdevised
p4420
F1
sVannoyed,
p4421
F1
sVcrushed
p4422
F1
sVlivid
p4423
F2
sVenergies;
p4424
F1
sVrebelliously
p4425
F1
sVimmediately
p4426
F14
sVprominent
p4427
F1
sVloss
p4428
F8
sVnecessary
p4429
F10
sVlost
p4430
F19
sV"two
p4431
F1
sVunfolded
p4432
F2
sVlose
p4433
F1
sVshed
p4434
F1
sVglare
p4435
F3
sVway?"
p4436
F1
sVbelonged
p4437
F2
sVwell-shod
p4438
F1
sVtempered
p4439
F2
sVlive?
p4440
F1
sVlading
p4441
F1
sVdeliverance
p4442
F1
sVgutenberg's
p4443
F1
sVthroats.
p4444
F1
sVlimitation,
p4445
F1
sVbefore,
p4446
F6
sVbefore.
p4447
F2
sV27th,
p4448
F1
sVkettle
p4449
F1
sV"good,"
p4450
F1
sVweakened,
p4451
F1
sVmoderated
p4452
F1
sVdemonstrated
p4453
F1
sVthere,
p4454
F7
sVreaching
p4455
F5
sVjournal
p4456
F1
sVthere.
p4457
F2
sVbare-footed,
p4458
F1
sVfresh!
p4459
F1
sVinstinct
p4460
F2
sVchoked
p4461
F4
sVfresh.
p4462
F1
sV12min.
p4463
F1
sVrefuge
p4464
F9
sVwill;"
p4465
F1
sV"where
p4466
F3
sVdiscovered.
p4467
F1
sVchance
p4468
F11
sVrecognized
p4469
F1
sVbenumbed
p4470
F1
sVmore."
p4471
F1
sVtongue
p4472
F4
sVpersuaded
p4473
F1
sVdamp
p4474
F3
sVartiste
p4475
F1
sVequally
p4476
F4
sVcontending
p4477
F2
sVmisty,
p4478
F2
sVdue
p4479
F3
sVlasts,
p4480
F1
sVtimes,
p4481
F1
sVtimes.
p4482
F1
sVendeavours
p4483
F1
sVutility
p4484
F1
sVdoubtless
p4485
F3
sVadditional
p4486
F2
sVmast-tops
p4487
F1
sVnoticed
p4488
F10
sVhatches!'
p4489
F1
sVexposure
p4490
F1
sVnorth
p4491
F2
sVaddition,
p4492
F1
sV19th.--all
p4493
F1
sVagrees
p4494
F1
sVdesperate?"
p4495
F1
sVowen?"
p4496
F1
sVgain
p4497
F1
sVear
p4498
F3
sVeat
p4499
F6
sVhe
p4500
F464
sVnotice,
p4501
F1
sVeyes;
p4502
F1
sVgird
p4503
F1
sVsigned
p4504
F2
sVcruel
p4505
F1
sVconverted
p4506
F1
sVlimit
p4507
F2
sVempty
p4508
F4
sVpumped
p4509
F1
sVeyes.
p4510
F3
sVeyes,
p4511
F6
sVurging
p4512
F1
sVoverheard;
p4513
F1
sV32deg.
p4514
F1
sVdevise
p4515
F2
sVslumber.
p4516
F1
sVuniversal
p4517
F1
sVpenny
p4518
F1
sVclimax,
p4519
F1
sVpikes
p4520
F1
sVsouth-west;
p4521
F1
sVperpendicularly
p4522
F1
sVindifference
p4523
F2
sVonwards
p4524
F1
sVsouth-west,
p4525
F2
sVsouth-west.
p4526
F1
sVsouth-easterly
p4527
F1
sVliving
p4528
F7
sVstay
p4529
F3
sVcrystal;
p4530
F1
sVsuccess;
p4531
F1
sVstump!
p4532
F1
sVstump,
p4533
F1
sVdumbfoundered.
p4534
F1
sVdetermination
p4535
F2
sV"the
p4536
F17
sVsaturating
p4537
F1
sVever,
p4538
F8
sVreason,
p4539
F1
sVandre
p4540
F62
sVpowder,"
p4541
F1
sVconsists
p4542
F2
sVmoonlight;
p4543
F1
sVcaptain
p4544
F66
sVfist.
p4545
F1
sVbetter;
p4546
F1
sVup.
p4547
F3
sVwhose
p4548
F6
sVup,
p4549
F10
sVcalculate
p4550
F2
sVcontained
p4551
F4
sVup!
p4552
F1
sVup:
p4553
F1
sVup;
p4554
F1
sVskill,
p4555
F2
sVsorry
p4556
F3
sVotherwise,
p4557
F2
sVrescue
p4558
F2
sVotherwise.
p4559
F1
sVvoid
p4560
F1
sVstraw,
p4561
F1
sVpowder.
p4562
F2
sVpowder,
p4563
F4
sVconfess,
p4564
F1
sVaffairs,
p4565
F1
sVone."
p4566
F3
sVaffect
p4567
F1
sVvast
p4568
F4
sVno."
p4569
F1
sVfront;
p4570
F1
sVpresent.
p4571
F2
sVbay.
p4572
F1
sVpresent,
p4573
F2
sVconvenience
p4574
F1
sVbeauty.
p4575
F1
sVdeplorable
p4576
F2
sVfront,
p4577
F4
sVclothes
p4578
F6
sVforce
p4579
F2
sVcarnivora
p4580
F1
sVme,
p4581
F22
sVme.
p4582
F20
sVorifices
p4583
F1
sVlikely
p4584
F8
sVme?
p4585
F1
sVme;
p4586
F4
sVeven
p4587
F50
sVparty.
p4588
F1
sVadmiration.
p4589
F1
sVspokesman
p4590
F1
sVlights
p4591
F1
sVrest.
p4592
F1
sVrest,
p4593
F2
sVnew
p4594
F21
sVever
p4595
F35
sVstrongly.
p4596
F1
sVdeemed
p4597
F5
sVbarometer
p4598
F2
sVnever
p4599
F33
sVdrew
p4600
F7
sVpumping
p4601
F2
sVmet
p4602
F2
sVremained?
p4603
F1
sVdogma,
p4604
F1
sVactive
p4605
F3
sV"south
p4606
F1
sVdry
p4607
F4
sVcried.
p4608
F2
sVanimated
p4609
F4
sVtarpauling.
p4610
F1
sVpressure
p4611
F4
sVlight.
p4612
F1
sVhalf-sunk,
p4613
F1
sVlight,
p4614
F2
sVoozed
p4615
F2
sVpuzzled;
p4616
F1
sVlight;
p4617
F1
sVprison.
p4618
F1
sVfellow-passenger,
p4619
F1
sVreckoned
p4620
F3
sVfantastic
p4621
F2
sVheeled
p4622
F2
sVbesides
p4623
F3
sVmoral
p4624
F3
sV"she's
p4625
F2
sVoverhear
p4626
F1
sV"touch
p4627
F1
sVexception,
p4628
F1
sVspaniards
p4629
F1
sV27th.--i
p4630
F1
sVarms
p4631
F7
sVright;
p4632
F2
sVleaks
p4633
F1
sVcall
p4634
F2
sVcalm
p4635
F11
sVright,
p4636
F3
sVhuntly?"
p4637
F2
sVright.
p4638
F3
sVtype
p4639
F1
sVtell
p4640
F14
sVunconsciousness,
p4641
F1
sVrestored.
p4642
F1
sVrestored,
p4643
F1
sVmusketry,
p4644
F1
sVdisruption
p4645
F1
sVwarm
p4646
F3
sVfragrance,
p4647
F1
sVroom
p4648
F4
sVleak,
p4649
F3
sVevasively;
p4650
F1
sVarm.
p4651
F2
sVbreakers.
p4652
F2
sVobstacle
p4653
F2
sVleak;
p4654
F1
sVwaiting,
p4655
F2
sVfalsten;
p4656
F1
sVdefer
p4657
F1
sVuntil,
p4658
F1
sVgive
p4659
F29
sVclimax
p4660
F1
sVendured.
p4661
F2
sVfalsten.
p4662
F1
sVfalsten,
p4663
F27
sVfreshen
p4664
F2
sVremarked.
p4665
F1
sVblank.
p4666
F1
sVshelving
p4667
F1
sVdescend,
p4668
F1
sVsubstructure.
p4669
F1
sVdesponding
p4670
F1
sVlingered-round
p4671
F1
sVrise
p4672
F3
sVcrowding
p4673
F1
sVreplacing
p4674
F1
sVfood,
p4675
F3
sVfood.
p4676
F2
sVcuriosity
p4677
F1
sVsharks,
p4678
F5
sVsharks.
p4679
F3
sVmagnitude;
p4680
F1
sVboatswain;
p4681
F2
sVattempt
p4682
F13
sVthird
p4683
F1
sVstill;
p4684
F1
sVclear,
p4685
F1
sVassuredly
p4686
F1
sVremonstrate,
p4687
F1
sVstill.
p4688
F3
sVmaintain
p4689
F1
sVboatswain.
p4690
F10
sVwaited
p4691
F2
sVboatswain,
p4692
F34
sVhalf-a-crown
p4693
F1
sVeast,
p4694
F1
sV"where's
p4695
F1
sVdeck
p4696
F30
sVperplexity,
p4697
F1
sVbefall
p4698
F2
sVdown,
p4699
F4
sVfumes,
p4700
F1
sVbefore
p4701
F55
sVthen,
p4702
F32
sVpersonal
p4703
F1
sVdesperateness
p4704
F1
sVblackened
p4705
F1
sVcrew
p4706
F36
sVbetter
p4707
F16
sVpersist
p4708
F2
sVweeks
p4709
F1
sVovercome
p4710
F5
sVdestiny.
p4711
F1
sVsea-water
p4712
F3
sVequinoctial
p4713
F1
sVcombination
p4714
F1
sVweakness
p4715
F1
sVindulge
p4716
F1
sVballasted;
p4717
F1
sVshirk
p4718
F1
sVhunger?"
p4719
F1
sVbony
p4720
F1
sVmeat
p4721
F9
sVarrested
p4722
F4
sVspray.
p4723
F1
sV10th.--on
p4724
F1
sVleaned
p4725
F1
sVwent
p4726
F25
sVapproaching,
p4727
F1
sVside
p4728
F13
sVapproaching.
p4729
F1
sVmean
p4730
F6
sVafforded
p4731
F3
sVcalmly
p4732
F3
sVdo."
p4733
F1
sVdawn
p4734
F1
sVcontend
p4735
F1
sVis:
p4736
F1
sVprofession;
p4737
F1
sVrevolting
p4738
F1
sVcontent
p4739
F1
sVstart.
p4740
F1
sVis.
p4741
F1
sVis,
p4742
F8
sVsurprise
p4743
F1
sVsluggish
p4744
F2
sVavailable.
p4745
F1
sVturning
p4746
F8
sVresume
p4747
F2
sVshouting.
p4748
F1
sVascending
p4749
F1
sVskin.
p4750
F2
sVstruggle
p4751
F8
sVbegan,
p4752
F2
sVmerchant;
p4753
F1
sVstandstill,
p4754
F1
sVsteward
p4755
F1
sVtale.
p4756
F1
sVloud
p4757
F7
sVmerchant.
p4758
F1
sVenraged
p4759
F1
sVslept
p4760
F2
sVdrink!"
p4761
F1
sVlonged-for
p4762
F2
sVswell,
p4763
F1
sVreassure
p4764
F1
sVenumerate
p4765
F1
sV15deg.
p4766
F1
sVinvalid,
p4767
F2
sVwants,
p4768
F1
sVstruts
p4769
F1
sVtwisted
p4770
F1
sVapproach;
p4771
F1
sVwitnessing
p4772
F1
sVapproach,
p4773
F1
sVvisiblement
p4774
F1
sVdilated
p4775
F2
sVcompunction
p4776
F1
sVfiery
p4777
F3
sVforecastle
p4778
F7
sVtokens
p4779
F3
sVexecution.
p4780
F1
sVbackstays,
p4781
F1
sVsomewhat
p4782
F13
sVcauseway,
p4783
F1
sVcrackling,
p4784
F1
sVfeature,
p4785
F1
sVpeculiar
p4786
F4
sVsymptom
p4787
F2
sVboarding
p4788
F1
sVdistance
p4789
F5
sVbody,
p4790
F3
sVenabled
p4791
F4
sVbitterness
p4792
F2
sVmatter
p4793
F16
sVbody;
p4794
F1
sVbody?
p4795
F1
sVxxxi.
p4796
F1
sVdrinkable."
p4797
F1
sVhailstones
p4798
F1
sVturrets
p4799
F1
sVusages
p4800
F1
sVbuckets,
p4801
F1
sVfathomless
p4802
F1
sVmembranes
p4803
F1
sVrattle
p4804
F1
sVmodern
p4805
F1
sVmind
p4806
F11
sVeyes
p4807
F20
sVothers,
p4808
F1
sVherbey,"
p4809
F2
sVseen
p4810
F11
sVseem
p4811
F13
sVbreaking;
p4812
F1
sVseas;
p4813
F1
sVleeward.
p4814
F1
sVdo.
p4815
F2
sVdo,
p4816
F3
sVpoint,
p4817
F1
sVpoint.
p4818
F2
sVchest
p4819
F1
sVbacon.
p4820
F1
sVdo?
p4821
F1
sVpoint;
p4822
F1
sVspoke,
p4823
F1
sVmachinery
p4824
F1
sVtell.
p4825
F3
sVexpedition.
p4826
F1
sVstarved
p4827
F1
sVon,--
p4828
F1
sVkear
p4829
F17
sVregular
p4830
F5
sVtell;
p4831
F2
sVdeplored.
p4832
F1
sVinconsistency
p4833
F1
sVobservation
p4834
F5
sVconsumed
p4835
F1
sVobserved,
p4836
F2
sVobserved.
p4837
F1
sVpoints
p4838
F3
sVdischarge.
p4839
F1
sVstrong,
p4840
F2
sVkazallon?"
p4841
F1
sVbeaten
p4842
F1
sVhunger
p4843
F15
sVamerica,"
p4844
F1
sVuneasiness
p4845
F1
sVliberty
p4846
F1
sVgrowlings
p4847
F1
sVear.
p4848
F2
sVresisting
p4849
F2
sVviolently;
p4850
F1
sVexplain
p4851
F1
sVfolded
p4852
F4
sVebbing
p4853
F2
sVscrupulous
p4854
F1
sVhoard
p4855
F1
sVinsufficient,
p4856
F1
sValcohol.
p4857
F1
sVstow
p4858
F1
sVstop
p4859
F4
sVattempt,
p4860
F3
sVcoast
p4861
F10
sVquarters
p4862
F6
sVscudding
p4863
F1
sVcomply
p4864
F1
sVremained;
p4865
F1
sVdefiance;
p4866
F1
sVbad
p4867
F5
sVears
p4868
F4
sVbrothers.
p4869
F1
sVbrothers,
p4870
F2
sVsailors,
p4871
F15
sVsailors.
p4872
F3
sVlaughing.
p4873
F2
sVlaughing,
p4874
F2
sVdecided
p4875
F3
sVsimultaneously
p4876
F1
sVinsinuate?
p4877
F1
sVcomplain,
p4878
F1
sVsubject
p4879
F8
sVvoyage
p4880
F12
sVwits.
p4881
F1
sVsaid
p4882
F95
sVmatters,
p4883
F2
sVscrap
p4884
F3
sVsail
p4885
F18
sVthere's
p4886
F3
sVapiece,
p4887
F1
sVsorts
p4888
F1
sVyet?"
p4889
F1
sVignorance
p4890
F1
sVweary
p4891
F2
sVgoute."
p4892
F1
sVstaved
p4893
F1
sV"cloud-ring,"
p4894
F1
sVsuggested
p4895
F3
sVpendants.
p4896
F1
sV"round,"
p4897
F1
sVagainst
p4898
F26
sVno,"
p4899
F1
sVshe's
p4900
F1
sVappeared
p4901
F15
sVrapidly,
p4902
F2
sVheight
p4903
F5
sVdropped,
p4904
F3
sVsprings
p4905
F1
sVrapidly;
p4906
F1
sVapprehended
p4907
F1
sVtasted
p4908
F3
sVnow,
p4909
F14
sVnow.
p4910
F2
sVhope."
p4911
F2
sVputs
p4912
F1
sVevaporation,
p4913
F1
sVthree
p4914
F35
sVtiny
p4915
F3
sVparticulars
p4916
F1
sVcommission
p4917
F1
sVdelirium.
p4918
F1
sVinterest
p4919
F3
sVnow;
p4920
F4
sVentered
p4921
F5
sVthrew
p4922
F7
sVtrue,"
p4923
F1
sVsuppress
p4924
F5
sVshattering
p4925
F1
sVworkings,
p4926
F1
sVhollowed
p4927
F2
sVpersonally
p4928
F1
sVregretted
p4929
F1
sVcravings.
p4930
F1
sVexception
p4931
F5
sVsly
p4932
F1
sVreddish
p4933
F1
sVlockers,
p4934
F1
sVebb,
p4935
F1
sVremaining
p4936
F10
sVnear
p4937
F10
sVmelted
p4938
F3
sVsuppose
p4939
F10
sVbalance
p4940
F1
sVanchor
p4941
F3
sVtwenty-four
p4942
F1
sVthought,
p4943
F5
sVseven
p4944
F6
sVover,
p4945
F5
sVmanoeuvring
p4946
F1
sVrepairs
p4947
F1
sVis
p4948
F372
sVexplanation
p4949
F3
sVit
p4950
F497
sVover!
p4951
F1
sVil
p4952
F2
sVthought;
p4953
F3
sVin
p4954
F671
sVcoming.
p4955
F1
sVdisappear
p4956
F2
sVif
p4957
F100
sVhook.
p4958
F1
sVsmoke;
p4959
F1
sVmake
p4960
F48
sVsmoke.
p4961
F1
sVsmoke,
p4962
F2
sVunfortunate
p4963
F8
sVconfronting
p4964
F1
sVsodden
p4965
F1
sVentitled
p4966
F1
sVair-bubbles
p4967
F1
sVi;
p4968
F1
sVmucus'
p4969
F1
sVcan.
p4970
F1
sVcan,
p4971
F1
sVdelight
p4972
F2
sVi,
p4973
F10
sVsupposing
p4974
F2
sVovert
p4975
F1
sVopportunity
p4976
F3
sVcan;
p4977
F1
sVthoughts
p4978
F2
sVbrackish,
p4979
F1
sVfailing
p4980
F1
sVare,"
p4981
F1
sV"ville
p4982
F1
sVcool,
p4983
F2
sV800
p4984
F2
sVleft
p4985
F27
sVsailor;
p4986
F1
sVconsciousness
p4987
F4
sVaverted.
p4988
F1
sVsoonest;"
p4989
F1
sVverdure
p4990
F1
sVassigned
p4991
F1
sVfeet,
p4992
F7
sVhuman
p4993
F10
sVsailor,
p4994
F2
sVfacts
p4995
F2
sVyet
p4996
F46
sVregarded
p4997
F3
sVcharacter
p4998
F6
sVmoderation,
p4999
F2
sVjules
p5000
F2
sVlong-lost
p5001
F1
sVsave
p5002
F10
sVtrimming
p5003
F1
sVago,
p5004
F1
sVfact,
p5005
F4
sVsailors
p5006
F52
sVscrap."
p5007
F1
sVwhichever
p5008
F1
sVdreamy
p5009
F1
sVbackground
p5010
F2
sVdestroy
p5011
F1
sVdreams
p5012
F1
sVpatience
p5013
F2
sVstates.
p5014
F2
sVmanual
p5015
F1
sVsatisfaction.
p5016
F1
sVrarely
p5017
F3
sVdignite
p5018
F1
sV"that's
p5019
F2
sVsomehow
p5020
F3
sVdead
p5021
F8
sVdesperate.
p5022
F1
sVmetallurgic
p5023
F1
sVdear
p5024
F2
sVprairie.
p5025
F1
sVeked
p5026
F1
sVisland.
p5027
F1
sVisland,
p5028
F5
sVreply.
p5029
F6
sVopposite
p5030
F1
sVcabins,
p5031
F3
sVdaytime
p5032
F1
sVisland;
p5033
F1
sVbursts.
p5034
F1
sVdispelled
p5035
F1
sVfish-hooks;
p5036
F1
sVburn
p5037
F1
sVupheaving
p5038
F1
sVpresentiment
p5039
F1
sVwept
p5040
F1
sVcoal-tar,
p5041
F1
sVconceal
p5042
F2
sVribs
p5043
F1
sVsubmarine
p5044
F1
sVafternoon
p5045
F4
sVazure
p5046
F1
sVislands
p5047
F2
sVfire."
p5048
F1
sVfor,
p5049
F4
sVlow,
p5050
F4
sVnegative
p5051
F1
sVdown
p5052
F49
sVlies
p5053
F7
sVeducation.
p5054
F1
sVcardiff
p5055
F1
sVworst,
p5056
F2
sVmisery,
p5057
F2
sVbounds.
p5058
F1
sVmidnight,
p5059
F1
sVc'est
p5060
F1
sVhardships
p5061
F2
sVbuild,
p5062
F1
sVmidnight;
p5063
F1
sVlurid
p5064
F2
sVfaring
p5065
F1
sVform
p5066
F5
sVadrift,
p5067
F1
sVeleven,
p5068
F2
sVadrift.
p5069
F1
sV31st
p5070
F2
sV"yes,"
p5071
F6
sVmizzen.
p5072
F1
sVmizzen,
p5073
F1
sVassented
p5074
F1
sVfort
p5075
F1
sVcontinuance
p5076
F1
sV"well
p5077
F1
sVunderstood
p5078
F7
sVattached
p5079
F6
sVnature."
p5080
F1
sVhydrophytes;
p5081
F1
sVtemper
p5082
F2
sVstrengthening
p5083
F1
sVdiscovery.
p5084
F1
sVdrive
p5085
F1
sVby-and-by;
p5086
F1
sVdie.
p5087
F2
sVnot;
p5088
F2
sVdie,
p5089
F4
sVship
p5090
F68
sVboard."
p5091
F2
sVprofit,
p5092
F1
sVexplained.
p5093
F1
sVgenerally
p5094
F1
sVhanded
p5095
F2
sVmistaken.
p5096
F1
sVmistaken,
p5097
F1
sVfelt
p5098
F23
sVtrepidation
p5099
F1
sVfell
p5100
F13
sVstick.
p5101
F1
sVpierced
p5102
F1
sVdied
p5103
F5
sVinterviews;
p5104
F1
sValert;
p5105
F1
sVforty-two
p5106
F1
sVhappening
p5107
F1
sVdaily
p5108
F6
sVpertinaciously
p5109
F1
sVstripping
p5110
F1
sVteeth
p5111
F6
sVobscurity.
p5112
F1
sVmanaged
p5113
F7
sVwoodwork
p5114
F1
sVrelieve
p5115
F6
sVinvent
p5116
F1
sVmile
p5117
F3
sVcontinued,
p5118
F2
sVabundant
p5119
F2
sV21st
p5120
F1
sVsuicide
p5121
F1
sVpraises
p5122
F1
sVfancies
p5123
F1
sVeffectually,
p5124
F1
sVsea),
p5125
F1
sVfather
p5126
F19
sVblood-stained
p5127
F1
sVanswered
p5128
F5
sVfinally
p5129
F4
sVproposal,
p5130
F1
sVsuffered
p5131
F4
sVvegetation,
p5132
F2
sVweather-wise
p5133
F1
sVfancied
p5134
F5
sVabundance
p5135
F2
sVgroundless.
p5136
F1
sVsicily,
p5137
F1
sVsoul,
p5138
F2
sVprecipice.
p5139
F1
sVadvised
p5140
F1
sVex-captain.
p5141
F1
sVex-captain,
p5142
F1
sV50deg.
p5143
F1
sV29th,
p5144
F2
sVconsidering,
p5145
F1
sVdid
p5146
F64
sVdie
p5147
F8
sVeconomize
p5148
F2
sVpraise.
p5149
F2
sVround
p5150
F27
sVmark;
p5151
F1
sVtalked
p5152
F1
sVelse,
p5153
F4
sVman."
p5154
F1
sVplanks;
p5155
F1
sVmain-mast
p5156
F3
sVslake
p5157
F2
sV"embark!"
p5158
F1
sVdecks?
p5159
F1
sVplanks.
p5160
F1
sVravenous
p5161
F2
sVplanks,
p5162
F2
sVsaying."
p5163
F1
sVsphere!
p5164
F1
sVfavour
p5165
F4
sVsphere,
p5166
F1
sVcasks
p5167
F1
sVsuspect
p5168
F2
sVdefinite,
p5169
F1
sVthinks.
p5170
F1
sVfilled
p5171
F6
sVship's
p5172
F14
sVinvoluntarily
p5173
F3
sVavailed
p5174
F1
sVfrench
p5175
F4
sV"would
p5176
F1
sVhummed
p5177
F1
sVmagoari,
p5178
F1
sVwait
p5179
F12
sVboy
p5180
F1
sVshift
p5181
F1
sVodour
p5182
F3
sVbow
p5183
F1
sVhere.
p5184
F2
sVsuggestion
p5185
F2
sVhere,
p5186
F6
sVadd,
p5187
F1
sVbruised
p5188
F1
sVloud;
p5189
F1
sV'chancellor,'
p5190
F5
sVmerely
p5191
F9
sVhistories
p5192
F1
sVgesticulating,
p5193
F1
sVsurmount
p5194
F1
sVbite.
p5195
F1
sVwealth
p5196
F2
sVsake
p5197
F1
sVjoyous
p5198
F1
sVvisit
p5199
F2
sVbrilliancy,
p5200
F1
sVlessened
p5201
F1
sVsharing
p5202
F1
sVrepast
p5203
F2
sVdistribution
p5204
F2
sVasserting
p5205
F1
sVpicrate
p5206
F11
sVeffort
p5207
F5
sVquickly.
p5208
F1
sVfoundering.
p5209
F1
sVay,
p5210
F2
sVvibrated
p5211
F1
sVoblivion."
p5212
F1
sVdisplayed,
p5213
F1
sVay!
p5214
F1
sVsoul
p5215
F4
sVmain-mast.
p5216
F2
sVshrieks,
p5217
F1
sVstoved
p5218
F1
sVlieutenant,
p5219
F2
sVwaller
p5220
F1
sVgrowing
p5221
F3
sVmaking
p5222
F17
sVarrive
p5223
F2
sV"right!"
p5224
F1
sVnearest
p5225
F8
sVcracked,
p5226
F1
sVnewly-discovered
p5227
F1
sVrelapsed,
p5228
F1
sVattract
p5229
F2
sV'here,
p5230
F1
sVswore
p5231
F1
sVtrysail,
p5232
F1
sVpint
p5233
F2
sVstaying
p5234
F1
sVill-disposed
p5235
F1
sVwhirl,
p5236
F2
sVmay
p5237
F57
sVnight."
p5238
F1
sVmad
p5239
F1
sVman
p5240
F45
sVinquired
p5241
F2
sV"save
p5242
F1
sVoutline
p5243
F5
sV6th
p5244
F3
sVoutpouring
p5245
F1
sVconcussion?"
p5246
F1
sVdeposit
p5247
F1
sVverify
p5248
F1
sVtall
p5249
F2
sVtalk
p5250
F4
sVshoes
p5251
F2
sVfish.
p5252
F2
sVgradual
p5253
F2
sVpointed
p5254
F7
sVseizing
p5255
F3
sVstability
p5256
F2
sVrings.
p5257
F1
sVdevelopment;
p5258
F1
sVshake
p5259
F2
sVview,
p5260
F3
sVview.
p5261
F4
sVxl.
p5262
F1
sVinquiries,
p5263
F1
sVgroup
p5264
F6
sVthank
p5265
F2
sVinteresting
p5266
F1
sVmonths,
p5267
F2
sVmonths.
p5268
F4
sVconsequential
p5269
F1
sVours
p5270
F3
sVmain
p5271
F1
sVmorbid
p5272
F1
sVbegun;
p5273
F1
sVviews
p5274
F1
sVimpulses
p5275
F2
sVproverbs;
p5276
F1
sVcut.
p5277
F1
sVsooner
p5278
F3
sVcloud-batteries
p5279
F1
sVtouching
p5280
F2
sVfeverish
p5281
F1
sVaware,
p5282
F2
sVrock
p5283
F9
sVcarpenter's
p5284
F3
sVsing-song
p5285
F1
sVviolence--i
p5286
F1
sVmoisten
p5287
F1
sVthirst,
p5288
F2
sVrichly
p5289
F1
sVaperture."
p5290
F1
sVfever
p5291
F3
sVgurgling
p5292
F1
sValoof
p5293
F1
sVgirl
p5294
F11
sVsnow-white
p5295
F1
sVphysical,
p5296
F2
sV30th.--at
p5297
F1
sVphysical.
p5298
F1
sVyes,
p5299
F3
sV3rd
p5300
F1
sVstorm.
p5301
F2
sVxiii.
p5302
F1
sVstorm,
p5303
F3
sVemerged
p5304
F1
sVdutch
p5305
F2
sVwilson
p5306
F2
sV"you'll
p5307
F1
sVgoes.
p5308
F1
sVassurance
p5309
F3
sVbrought,
p5310
F1
sVacross;
p5311
F1
sVrows
p5312
F1
sVstupour,
p5313
F2
sVforbids
p5314
F1
sVadvance
p5315
F1
sVlanguage
p5316
F1
sVcontented
p5317
F1
sVmeagre,
p5318
F1
sVthing
p5319
F10
sVthink
p5320
F38
sVfrequent
p5321
F3
sVfirst
p5322
F52
sVeye;
p5323
F1
sVbut,
p5324
F14
sVlong
p5325
F64
sVsuspended
p5326
F4
sVcarry
p5327
F7
sVeye,
p5328
F6
sVdischarged
p5329
F1
sVinterchange
p5330
F1
sVlittle
p5331
F43
sVunduly
p5332
F1
sVmoisture
p5333
F3
sVpockets,
p5334
F3
sVmind,"
p5335
F1
sVspeaking
p5336
F3
sVnow?"
p5337
F2
sVsound,
p5338
F3
sVamerican,
p5339
F1
sVaccurately
p5340
F1
sV"there
p5341
F6
sVsound;
p5342
F1
sVready,"
p5343
F1
sVundoubtedly
p5344
F2
sVjudged,
p5345
F1
sVeight-and-twenty
p5346
F1
sV12
p5347
F1
sVsailing
p5348
F6
sVbrazils,
p5349
F1
sVprotected
p5350
F1
sVknives
p5351
F1
sVventure
p5352
F8
sVwere
p5353
F297
sVgigantic
p5354
F2
sVentreat,
p5355
F1
sVgathering
p5356
F2
sVcomplaint,
p5357
F2
sVvoices
p5358
F2
sVdash
p5359
F3
sVcravings,
p5360
F1
sVconspiracy
p5361
F1
sVspectacle
p5362
F1
sVinvestigation,
p5363
F1
sVinvestigation.
p5364
F1
sVoccupied
p5365
F5
sVgratitude,
p5366
F2
sVclung
p5367
F2
sVout,--
p5368
F1
sVanswering
p5369
F1
sVwretch
p5370
F2
sVinterior
p5371
F2
sVgreen
p5372
F1
sVchannel
p5373
F1
sV200
p5374
F1
sVaudacious
p5375
F1
sVpain
p5376
F3
sVattentively,
p5377
F1
sVtrack
p5378
F2
sVscotland,
p5379
F1
sVpaid
p5380
F1
sVinsanity
p5381
F1
sVvoice,
p5382
F6
sVroused
p5383
F3
sVvoice.
p5384
F1
sVsheets
p5385
F1
sVtract
p5386
F1
sVsupremely
p5387
F1
sVupheaved,
p5388
F1
sVespecially
p5389
F4
sVwreathed
p5390
F1
sVgracefully
p5391
F1
sVdeportment
p5392
F1
sVjumped
p5393
F1
sVstockings
p5394
F1
sVconsciousness.
p5395
F1
sValone,
p5396
F1
sValone.
p5397
F1
sVprecise
p5398
F2
sV0deg.
p5399
F1
sVcorner
p5400
F10
sVwhereabouts
p5401
F1
sVdisplaced,
p5402
F1
sVstorms
p5403
F3
sVbehind
p5404
F6
sVmiracle.
p5405
F1
sVfound!
p5406
F1
sVblack
p5407
F8
sVcommunicate,
p5408
F1
sVfiendish
p5409
F1
sVcaptain,"
p5410
F2
sVget
p5411
F27
sVmeanwhile,
p5412
F2
sVhailed
p5413
F1
sVnearly
p5414
F8
sVdistinctly
p5415
F2
sVenjoys
p5416
F1
sVmoodily
p5417
F1
sVyield
p5418
F2
sVmorning
p5419
F30
sVencroaches
p5420
F1
sVmiles
p5421
F18
sVman.
p5422
F2
sVpitiless
p5423
F1
sVcommunicated
p5424
F1
sVsilently
p5425
F2
sVwhispered
p5426
F3
sVdeclared
p5427
F2
sVlethargy
p5428
F1
sVseas
p5429
F1
sVmeantime,
p5430
F3
sVseat
p5431
F3
sVj.
p5432
F2
sVderangement,
p5433
F1
sVwonder
p5434
F3
sVrigidly
p5435
F1
sVregistering
p5436
F1
sVserved
p5437
F4
sVfather's
p5438
F6
sVpump
p5439
F1
sVtrade,
p5440
F1
sVradiated
p5441
F1
sVreading
p5442
F3
sVacross
p5443
F16
sVsea;
p5444
F6
sV"what!
p5445
F1
sVaspinwall.
p5446
F1
sVcountenance
p5447
F7
sVroutine;
p5448
F1
sVsea.
p5449
F16
sVsea,
p5450
F22
sVdoing.
p5451
F1
sVbedraggled
p5452
F1
sVlbs.
p5453
F2
sVsink.
p5454
F1
sVaccording
p5455
F4
sVtour
p5456
F1
sVdisappointment
p5457
F2
sV4th.--curtis
p5458
F1
sVreigns
p5459
F1
sVamong
p5460
F3
sVmaintained
p5461
F2
sVdisembark.
p5462
F1
sVstretched
p5463
F2
sVappalling.
p5464
F1
sVtheft;
p5465
F1
sVcharter-party
p5466
F1
sVsensible
p5467
F2
sVunusual
p5468
F5
sVcapable
p5469
F5
sV"faith,
p5470
F2
sVrepine
p5471
F1
sVmark
p5472
F1
sVdeserters
p5473
F1
sVeight-and-twenty;
p5474
F1
sVson?"
p5475
F1
sVconcentrated
p5476
F4
sVrascals,
p5477
F1
sVoffered
p5478
F2
sVavail;
p5479
F1
sVwake
p5480
F2
sVthose
p5481
F29
sVsound
p5482
F11
sVslumber
p5483
F1
sV"nothing;
p5484
F1
sVdivined
p5485
F1
sVpromising
p5486
F1
sV"nothing,
p5487
F1
sVsay,--
p5488
F2
sVart,
p5489
F1
sVconferences
p5490
F1
sVrock."
p5491
F1
sVwest.
p5492
F2
sVhull.
p5493
F1
sVface;
p5494
F1
sVmiddle
p5495
F4
sVpressing
p5496
F3
sVrequires,
p5497
F1
sVthanksgivings
p5498
F1
sVmovements
p5499
F2
sVdifferent
p5500
F5
sV(who
p5501
F1
sVpay
p5502
F3
sVsame
p5503
F33
sVopposition,
p5504
F1
sVspeech
p5505
F1
sVsalamander
p5506
F1
sV"l'homme
p5507
F1
sVunperceived
p5508
F1
sVmovement,
p5509
F1
sVexhaust
p5510
F3
sVmovement.
p5511
F2
sVdeluged
p5512
F1
sVthunder."
p5513
F1
sVbath,
p5514
F2
sVvessel's
p5515
F1
sVbath.
p5516
F1
sVwaves;
p5517
F4
sVcompanion
p5518
F4
sVdisapproves.
p5519
F1
sVrunning
p5520
F8
sVbeen,
p5521
F4
sVtotally
p5522
F4
sVwaves.
p5523
F11
sVdrain
p5524
F2
sVfor--"
p5525
F1
sVintermittent
p5526
F1
sVacquaintance.
p5527
F1
sVwillingness
p5528
F1
sVbottle
p5529
F1
sVheat.
p5530
F3
sVconsisted
p5531
F1
sVpeace
p5532
F1
sVnights.
p5533
F1
sVmoney
p5534
F1
sVaspect
p5535
F1
sVofficers?"
p5536
F1
sVorphaned,
p5537
F1
sVasleep.
p5538
F1
sVaghast;
p5539
F1
sVfag-end
p5540
F2
sVpile
p5541
F1
sVastonishment
p5542
F3
sVgrating
p5543
F1
sVextensive
p5544
F2
sVwife,
p5545
F4
sVwife.
p5546
F1
sVsight;
p5547
F2
sVfulfillment
p5548
F1
sVnight,"
p5549
F1
sVadmitting
p5550
F2
sVsight.
p5551
F4
sVsight,
p5552
F4
sVpooh!"
p5553
F1
sVdisappointed
p5554
F2
sVgrin
p5555
F1
sVvertically
p5556
F1
sVacquainted
p5557
F3
sVheeled,
p5558
F1
sVmissing.
p5559
F1
sVlightning
p5560
F7
sVj.r.kazallon,
p5561
F1
sVeither
p5562
F14
sVclambered
p5563
F1
sVsqually
p5564
F1
sValternated
p5565
F1
sVascend
p5566
F1
sVdole
p5567
F2
sVsmarting
p5568
F2
sVlondon.
p5569
F1
sVconfirm
p5570
F1
sVstaffa
p5571
F2
sVfilling
p5572
F1
sVcritical
p5573
F3
sVstation.
p5574
F1
sVparticles
p5575
F1
sVmeasuring
p5576
F2
sVcaring
p5577
F1
sVseconds
p5578
F1
sVfingal's
p5579
F1
sVaft-board
p5580
F2
sVsquall
p5581
F1
sVbroken
p5582
F18
sVdastardly
p5583
F1
sVdoes.
p5584
F1
sVreports,
p5585
F1
sVpreoccupied
p5586
F2
sVopium
p5587
F1
sVroar
p5588
F2
sVisland
p5589
F10
sVviolence
p5590
F8
sVmixed
p5591
F1
sVout,
p5592
F2
sVout.
p5593
F2
sVquietly
p5594
F8
sVoctober,
p5595
F1
sVhurricane,
p5596
F2
sVspreading
p5597
F1
sVhurricane.
p5598
F2
sVpoint-blank
p5599
F1
sVup."
p5600
F2
sVstrip
p5601
F1
sVmorning,
p5602
F19
sVmorning.
p5603
F2
sVchat,
p5604
F1
sVacquiesced
p5605
F1
sVfated
p5606
F3
sVintense.
p5607
F1
sVintense,
p5608
F3
sVbrute
p5609
F2
sVgun-priming
p5610
F2
sVintense;
p5611
F1
sVenough
p5612
F21
sVus!"
p5613
F1
sVunuttered,
p5614
F1
sVland;
p5615
F4
sVclothes,
p5616
F1
sVstrikes
p5617
F1
sVshroud
p5618
F1
sVwhite,
p5619
F1
sVrain?
p5620
F1
sVland,
p5621
F8
sVwild,
p5622
F1
sVland.
p5623
F6
sVarranged
p5624
F2
sVsailor's
p5625
F2
sVfate,
p5626
F1
sVnetting
p5627
F4
sVfate;
p5628
F1
sVfaces,
p5629
F1
sVpowerless
p5630
F5
sVfaces.
p5631
F2
sVhanged
p5632
F1
sVdeep
p5633
F11
sVundiminished
p5634
F1
sVimagination
p5635
F2
sVexamine
p5636
F7
sVdeem
p5637
F1
sVemaciation
p5638
F1
sVclenched
p5639
F1
sVdeliverer,
p5640
F1
sVfill
p5641
F2
sVagain
p5642
F38
sVsufferings
p5643
F10
sVceaselessly
p5644
F1
sVback,
p5645
F3
sVprism
p5646
F1
sVunaccustomed
p5647
F2
sVwet,
p5648
F2
sVtacklings
p5649
F1
sV20min.
p5650
F1
sV6th.--i
p5651
F1
sVpounce
p5652
F1
sVbewildered;
p5653
F2
sVday?
p5654
F1
sVshelter
p5655
F6
sVderiving
p5656
F1
sVimportant
p5657
F3
sVitself,
p5658
F2
sVitself.
p5659
F1
sVclenches
p5660
F1
sVtackle
p5661
F2
sVrapid.
p5662
F1
sVprudent
p5663
F1
sVresembled
p5664
F1
sVconsternation
p5665
F1
sVunload
p5666
F1
sVcasts
p5667
F1
sVvery,
p5668
F1
sVnarcotic,
p5669
F1
sVsuffering.
p5670
F2
sVopportunely
p5671
F1
sVindications,
p5672
F1
sVstarting
p5673
F2
sVsilent.
p5674
F1
sVneedful
p5675
F1
sVforget
p5676
F5
sVfounder
p5677
F3
sVwashed
p5678
F8
sVrascals
p5679
F1
sVinvariable
p5680
F1
sVprevailed.
p5681
F1
sVsunk
p5682
F5
sVinvariably
p5683
F2
sVtalks
p5684
F1
sVexpressions
p5685
F1
sVsung
p5686
F3
sVreluctant
p5687
F1
sVshattered
p5688
F2
sVpreserves
p5689
F1
sVred-hot
p5690
F1
sVnorth,
p5691
F1
sVnorth.
p5692
F2
sVlaid
p5693
F13
sVpreserved
p5694
F5
sVcrimson
p5695
F3
sVrefuge;
p5696
F1
sVmother.
p5697
F1
sVenjoying
p5698
F1
sVinsignificant,
p5699
F1
sVpuffs
p5700
F1
sVallowance,
p5701
F1
sVexpression,
p5702
F1
sVdeck?"
p5703
F2
sVexpression.
p5704
F1
sVbosom.
p5705
F1
sVsun.
p5706
F2
sVsun,
p5707
F2
sVfall
p5708
F10
sVsubterranean
p5709
F2
sVdifference
p5710
F1
sVcollege,
p5711
F1
sVwashing
p5712
F1
sVnine;
p5713
F1
sValong.
p5714
F1
sV20th
p5715
F2
sVourselves;
p5716
F1
sV64deg.
p5717
F1
sVmarajo,
p5718
F1
sVboisterous,
p5719
F2
sVquiet,
p5720
F1
sVlightning,
p5721
F1
sVfurther
p5722
F13
sVourselves,
p5723
F1
sVcreatures
p5724
F2
sVstood
p5725
F19
sVwrecked
p5726
F1
sVvigour.
p5727
F1
sVeverlasting
p5728
F1
sVmovement
p5729
F1
sVquenched
p5730
F1
sVcaptain."
p5731
F1
sVdeposited;
p5732
F1
sVscanty
p5733
F3
sVlightnings
p5734
F1
sVfavourable
p5735
F6
sVdisastrous
p5736
F1
sVcritical.
p5737
F1
sVrolling,
p5738
F1
sVsaid,--
p5739
F5
sVsolicitation,
p5740
F1
sVunfurled
p5741
F1
sVsearch
p5742
F7
sVstupor
p5743
F1
sVcure."
p5744
F1
sVcarcase
p5745
F2
sVstretching
p5746
F1
sVsuperintendence
p5747
F1
sVcalmness.
p5748
F1
sVmisery
p5749
F3
sVnarrow
p5750
F9
sVcowardly
p5751
F1
sVtransit
p5752
F1
sVimagined.
p5753
F1
sVarmed
p5754
F3
sVhelmsman
p5755
F1
sVdeeming
p5756
F1
sVreadily
p5757
F2
sVlady,
p5758
F1
sVeye
p5759
F16
sV"have
p5760
F2
sVcomposure
p5761
F2
sVdistinct
p5762
F3
sVconfess,"
p5763
F1
sVtwo
p5764
F59
sVmisery;
p5765
F1
sVtacks
p5766
F1
sVmisery!
p5767
F1
sVbefore?"
p5768
F1
sVendowed
p5769
F3
sVwrack,
p5770
F1
sVraft
p5771
F53
sVmisery.
p5772
F1
sVpleases.
p5773
F1
sVhandsomely
p5774
F1
sVrammed
p5775
F1
sVbrisk
p5776
F1
sVdiscovered,
p5777
F2
sVsuffused
p5778
F1
sVlanded
p5779
F1
sVdubious
p5780
F2
sVvarying
p5781
F3
sVgravity.
p5782
F1
sVstays.
p5783
F2
sVnone
p5784
F7
sVrestraint.
p5785
F3
sVhour
p5786
F27
sVcluster
p5787
F2
sVrecall
p5788
F1
sVcreated
p5789
F1
sVtack,
p5790
F3
sVfast
p5791
F2
sVtack.
p5792
F1
sVwrithing
p5793
F2
sVremain
p5794
F11
sVsudden
p5795
F5
sVgruff,
p5796
F1
sVabandon
p5797
F8
sVnothing,
p5798
F5
sVtack;
p5799
F1
sVcontending.
p5800
F1
sVcompare
p5801
F1
sV"agreed!"
p5802
F1
sVgravely
p5803
F2
sVshare
p5804
F6
sVproposed.
p5805
F2
sVcollision
p5806
F1
sVhours,
p5807
F9
sVhours.
p5808
F3
sVintimating
p5809
F1
sVsharp
p5810
F9
sVhours'
p5811
F3
sVnarrowly
p5812
F1
sVdrained
p5813
F1
sVcomfort
p5814
F1
sVmaps
p5815
F1
sVcharms
p5816
F1
sVadvice
p5817
F1
sVpainful.
p5818
F1
sVblood
p5819
F4
sVcoming
p5820
F11
sVlots."
p5821
F1
sVwave
p5822
F6
sVcrowded
p5823
F1
sVrougher,
p5824
F2
sVmap,
p5825
F1
sVknives,
p5826
F1
sVdeserted
p5827
F2
sVresponsibility
p5828
F3
sVact.
p5829
F1
sVpleasure
p5830
F2
sVpreparatory
p5831
F1
sVneed.
p5832
F3
sVscrew-jacks,
p5833
F1
sVmore,
p5834
F3
sVthrough
p5835
F38
sVporpoises?"
p5836
F1
sVexistence
p5837
F4
sV14th.--at
p5838
F1
sVbales,
p5839
F1
sVbiscuit,
p5840
F4
sVemaciated
p5841
F2
sVforthwith
p5842
F1
sVfamished
p5843
F2
sVlate
p5844
F1
sVdetected
p5845
F1
sVfatality,
p5846
F1
sVlookout
p5847
F1
sVgood
p5848
F18
sVcompound
p5849
F1
sVcopious
p5850
F1
sVmystery
p5851
F1
sVeasily
p5852
F1
sVhuddle
p5853
F1
sVfluttered
p5854
F1
sVintolerable;
p5855
F1
sVlat;
p5856
F1
sVashes
p5857
F1
sVappliances,
p5858
F1
sVboisterous
p5859
F1
sVpossession,
p5860
F1
sVrepeating
p5861
F1
sVlat.
p5862
F3
sVwatched,
p5863
F1
sVdifficult)
p5864
F1
sVdifficult,
p5865
F2
sVmental
p5866
F2
sVadverse,
p5867
F1
sVfish
p5868
F8
sVhard
p5869
F8
sVidea
p5870
F14
sVnamely,
p5871
F1
sVripple
p5872
F2
sVremember,
p5873
F2
sVsteward,
p5874
F5
sVthick
p5875
F4
sVprojected
p5876
F1
sV"go
p5877
F1
sVacting
p5878
F2
sVdejectedly
p5879
F1
sVthey'll
p5880
F1
sVbenefit.
p5881
F1
sVassist
p5882
F4
sVcrouched
p5883
F1
sVcircumstance
p5884
F3
sVextraordinary
p5885
F2
sVtout-son
p5886
F1
sVshoulders,
p5887
F2
sVobtain;
p5888
F1
sVsaloon,
p5889
F1
sV"she
p5890
F1
sVdemands.
p5891
F1
sVravings,
p5892
F2
sVteeth,
p5893
F1
sVomit
p5894
F1
sVsygyzian
p5895
F1
sVfire-ship
p5896
F1
sV"send
p5897
F1
sVremarkable,
p5898
F1
sVdoctor,
p5899
F2
sVleft?"
p5900
F3
sV1643,
p5901
F1
sVsmaller
p5902
F1
sVdone
p5903
F14
sVshoal
p5904
F2
sVhatches,
p5905
F1
sVraving,
p5906
F1
sVshipwrecked
p5907
F1
sVorigin."
p5908
F1
sVhorizon;
p5909
F1
sVsenses,
p5910
F2
sVwaves,
p5911
F12
sV5th
p5912
F1
sVfamily,
p5913
F2
sVscene,
p5914
F1
sVconstruct
p5915
F3
sVhorizon.
p5916
F12
sVpains
p5917
F5
sVhorizon,
p5918
F6
sVcompartment
p5919
F1
sVgun-deck
p5920
F1
sVpara
p5921
F1
sVletourneur,"
p5922
F2
sVshifts,
p5923
F1
sVpart
p5924
F26
sVsurmounted.
p5925
F1
sVobstructed
p5926
F1
sVbelieve
p5927
F12
sVtacking
p5928
F5
sVnuts,
p5929
F1
sVeastwards
p5930
F1
sVpain.
p5931
F1
sVrecording
p5932
F1
sVsupposed
p5933
F2
sVgratefully,
p5934
F1
sVmessrs.
p5935
F3
sVshawl,
p5936
F2
sVservice!
p5937
F1
sVmizzen-mast
p5938
F3
sVdepth.
p5939
F1
sVdepth,
p5940
F1
sVmadness.
p5941
F1
sVorders
p5942
F7
sVexcesses;
p5943
F1
sVoracular
p5944
F1
sVtorpid,
p5945
F1
sVreflection,
p5946
F1
sVcouch
p5947
F1
sVextracted
p5948
F1
sVbuild
p5949
F2
sVorder,
p5950
F4
sVholes;
p5951
F1
sVdetermine;
p5952
F1
sVshower,
p5953
F1
sVchart
p5954
F1
sVvoices;
p5955
F1
sVmost
p5956
F63
sVage,
p5957
F6
sVorder;
p5958
F1
sV"tell
p5959
F2
sVservices
p5960
F1
sVill-omen.
p5961
F1
sVextremely
p5962
F4
sVshower;
p5963
F1
sVagain."
p5964
F3
sVmistake,"
p5965
F1
sVpanegyric
p5966
F1
sVfaithless
p5967
F1
sVcramped
p5968
F1
sVweigh
p5969
F2
sVdaresay
p5970
F2
sVwelfare;
p5971
F1
sVfollowed,
p5972
F1
sVwasted
p5973
F3
sVhorror.
p5974
F3
sVcarefully
p5975
F7
sVfine
p5976
F9
sVfind
p5977
F23
sVwraps,
p5978
F1
sVdouble,
p5979
F1
sVnervous
p5980
F3
sVvigour
p5981
F2
sVdistributed
p5982
F1
sV19th
p5983
F1
sVunhappy
p5984
F5
sVcough,
p5985
F1
sVbeing
p5986
F63
sVfree.
p5987
F1
sVruby's
p5988
F3
sVawake.
p5989
F1
sVlarge,
p5990
F1
sVpermission
p5991
F1
sVexpress
p5992
F5
sVcourage
p5993
F7
sVbreast
p5994
F1
sVdisturbance.
p5995
F3
sVforty-five
p5996
F2
sVpocket-knife,
p5997
F1
sVtempest.
p5998
F3
sVtempest,
p5999
F2
sVfreedom,
p6000
F1
sVnight.--the
p6001
F1
sVcommon
p6002
F11
sVhatchets,
p6003
F1
sVland?"
p6004
F2
sVfloat,
p6005
F1
sVfloat.
p6006
F1
sV"no"
p6007
F1
sVpossible."
p6008
F1
sV"no,
p6009
F7
sVtended
p6010
F3
sV"under-ordinary
p6011
F1
sVindividual
p6012
F1
sVair.
p6013
F4
sVtender
p6014
F2
sV"no;
p6015
F1
sVmaterially
p6016
F2
sVfeared
p6017
F1
sVenveloped
p6018
F3
sV"chancellor,"--the
p6019
F1
sV17th.--as
p6020
F1
sVvisiting
p6021
F2
sVlads,"
p6022
F1
sVplease
p6023
F1
sVto.
p6024
F1
sVmeal
p6025
F1
sVvolleys
p6026
F1
sVcomplement
p6027
F1
sV"nor
p6028
F2
sV"not
p6029
F6
sV"now
p6030
F6
sVsquall!
p6031
F1
sVhalf-hour
p6032
F1
sVdryness
p6033
F1
sVtrimmed;
p6034
F1
sVconsume
p6035
F3
sVpoint
p6036
F15
sVravages
p6037
F1
sVthen,"
p6038
F6
sVpurposed,
p6039
F1
sVsimply
p6040
F2
sV26th.--i
p6041
F1
sVunsuccessful
p6042
F1
sVthroughout
p6043
F5
sVsuppressing
p6044
F1
sVpatiently
p6045
F1
sVconsuming
p6046
F2
sVraise
p6047
F2
sVdevouring
p6048
F3
sVatlantic,
p6049
F2
sVsecret
p6050
F6
sVatlantic.
p6051
F3
sVrest."
p6052
F1
sVloudly.
p6053
F1
sVinstant,
p6054
F2
sVunderstand
p6055
F3
sVgag
p6056
F1
sVresisted
p6057
F1
sVstrictest
p6058
F1
sVhopeful,
p6059
F1
sVgrains
p6060
F1
sVsolid
p6061
F6
sVbill
p6062
F2
sVhelm,
p6063
F3
sVhelm.
p6064
F1
sVproceed?
p6065
F1
sVrocks;
p6066
F1
sVimpracticable
p6067
F1
sVcompact
p6068
F1
sVviolently
p6069
F3
sVpumps;
p6070
F1
sVendurance,
p6071
F1
sVitself
p6072
F8
sVrocks,
p6073
F5
sVrocks.
p6074
F1
sVpumps,
p6075
F9
sVpumps.
p6076
F2
sVprayers,
p6077
F1
sVwherein
p6078
F1
sVsome,
p6079
F1
sVhalf-mast
p6080
F1
sVthat;
p6081
F2
sVmollusk,
p6082
F1
sVkear's
p6083
F1
sVhow,
p6084
F3
sVstrips
p6085
F2
sVchances,
p6086
F1
sVyesterday
p6087
F4
sVmoment
p6088
F39
sVpurpose
p6089
F5
sVpurlin--for
p6090
F1
sVminstrelsy
p6091
F1
sVgestures
p6092
F2
sVmotionless
p6093
F4
sVsupersede
p6094
F1
sVspent
p6095
F2
sVall?"
p6096
F1
sVenglish,
p6097
F2
sVcharleston;
p6098
F1
sVtoil
p6099
F1
sVspend
p6100
F1
sVhowl
p6101
F1
sVvindictive
p6102
F1
sVludicrous
p6103
F1
sVmatter.
p6104
F2
sVmatter,
p6105
F2
sVshape
p6106
F2
sVpersisted.
p6107
F1
sVirritable
p6108
F1
sVmatter;
p6109
F1
sValternative
p6110
F2
sVlives.
p6111
F1
sVinjuries
p6112
F1
sVletting
p6113
F1
sVfriendship
p6114
F1
sVcut
p6115
F7
sVcup
p6116
F1
sVexcites
p6117
F1
sVshouting
p6118
F2
sVdeliberately
p6119
F2
sVfollow,
p6120
F1
sVsnap
p6121
F3
sVexcited
p6122
F4
sVsuffocation
p6123
F1
sVrebound
p6124
F1
sVmatters
p6125
F4
sVlife--a
p6126
F1
sVaccomplished.
p6127
F1
sVbit
p6128
F3
sVaccomplished,
p6129
F1
sVvapour
p6130
F5
sVknock
p6131
F1
sVforepart
p6132
F1
sVmatter,"
p6133
F1
sVindication
p6134
F2
sVoften
p6135
F7
sVabsolutely
p6136
F7
sVobliged
p6137
F12
sVfancied,
p6138
F1
sVremarking
p6139
F1
sVshouting,--
p6140
F2
sVstrongest
p6141
F4
sVhawse-holes.
p6142
F1
sVgood-sized
p6143
F1
sVoscillations
p6144
F1
sVpara,
p6145
F1
sVourselves
p6146
F10
sVpronounced
p6147
F1
sVacquaintance
p6148
F1
sV"though
p6149
F1
sVpet
p6150
F1
sVdecision
p6151
F2
sVgood;
p6152
F2
sVpen
p6153
F1
sV"breakers
p6154
F1
sVgood.
p6155
F2
sVevaporating
p6156
F1
sV300
p6157
F1
sVtop-sails
p6158
F2
sVexample,
p6159
F3
sVcontinuing
p6160
F2
sV"once
p6161
F1
sVflanks
p6162
F1
sVfrom
p6163
F204
sVexample;
p6164
F2
sV"now,
p6165
F3
sVgoods
p6166
F1
sVdrop.
p6167
F1
sVinhumanity
p6168
F1
sVtruck
p6169
F1
sVmrs.
p6170
F22
sVcutlass,
p6171
F1
sVpaused;
p6172
F1
sVwhom,
p6173
F1
sVtoday."
p6174
F1
sVconsequently
p6175
F12
sVboy!
p6176
F1
sVhope.
p6177
F4
sVhope,
p6178
F6
sVrelapsed
p6179
F1
sVhope;
p6180
F3
sVcalming
p6181
F1
sVderangement
p6182
F1
sVforward
p6183
F4
sVbored
p6184
F2
sVexcessive,
p6185
F1
sVexcessive.
p6186
F1
sVpronounce
p6187
F3
sVhoped
p6188
F5
sVreckoning,
p6189
F1
sVreplaced,
p6190
F1
sVbowsprit
p6191
F1
sVhopes
p6192
F5
sVnoticed,
p6193
F1
sVconsciousness;
p6194
F1
sVdirected
p6195
F1
sVvisible.
p6196
F1
sVfamine,
p6197
F1
sVdelirium
p6198
F1
sVhopes,
p6199
F3
sVprecipitated
p6200
F1
sVsort
p6201
F8
sVcurt
p6202
F1
sVconstant
p6203
F3
sVexpedition
p6204
F1
sVself-control,
p6205
F1
sVdeprive
p6206
F1
sVscarlet
p6207
F1
sVsingle
p6208
F7
sVcurl
p6209
F1
sVdragging
p6210
F1
sVfailure.
p6211
F1
sVforewarned
p6212
F1
sVorders.
p6213
F2
sVorders,
p6214
F2
sVnoble-hearted
p6215
F1
sVluxurious
p6216
F1
sVutterly
p6217
F2
sVprepares
p6218
F2
sVdepicting
p6219
F1
sVomen;
p6220
F1
sVaway!"
p6221
F2
sVappalling
p6222
F1
sVcooked
p6223
F1
sVascertained
p6224
F2
sVpresenting
p6225
F1
sVdrenched
p6226
F2
sVamuses
p6227
F1
sVconversations;
p6228
F1
sVspectres.
p6229
F1
sVvalves
p6230
F1
sVfuture,
p6231
F1
sVrestraining
p6232
F1
sVpromised,
p6233
F1
sVhelps
p6234
F1
sVfatal
p6235
F2
sVpresently
p6236
F2
sVputting
p6237
F4
sV"robert
p6238
F1
sVentire
p6239
F7
sVsuccessful.
p6240
F2
sVrespectful
p6241
F1
sVcharts.
p6242
F2
sVshock
p6243
F1
sVinsubordinate
p6244
F1
sVgrave.
p6245
F2
sVbathing,
p6246
F1
sVsafe,
p6247
F1
sVbleeding
p6248
F2
sVother.
p6249
F1
sVobject.
p6250
F1
sVself-indulgent
p6251
F1
sVbloodshot
p6252
F1
sVother?
p6253
F1
sVdepression
p6254
F1
sVsaved,
p6255
F1
sVsaved.
p6256
F1
sVconfided
p6257
F1
sVgiving
p6258
F5
sVassisted
p6259
F3
sVpaddle
p6260
F1
sVsaved?
p6261
F1
sVirreparable
p6262
F1
sVexercise
p6263
F2
sVbody
p6264
F12
sVexchange
p6265
F1
sVbeasts
p6266
F4
sVpacking
p6267
F1
sVobjects
p6268
F1
sVsink
p6269
F3
sVothers
p6270
F7
sVhobart
p6271
F9
sVsing
p6272
F1
sVbutt-ends
p6273
F1
sVpainfully
p6274
F1
sVinconvenience;
p6275
F1
sVadded;
p6276
F2
sVinconvenience.
p6277
F1
sVadded,
p6278
F4
sVproof
p6279
F2
sVcopes
p6280
F1
sVcomposed
p6281
F2
sVwallers."
p6282
F1
sVnamed
p6283
F3
sVprize.
p6284
F1
sVextracted,
p6285
F1
sVnames
p6286
F4
sVapprentice,
p6287
F1
sVii.
p6288
F1
sVattracting
p6289
F1
sVconversing
p6290
F2
sVpanellings
p6291
F1
sVcircumstances?"
p6292
F1
sVthemselves
p6293
F21
sVresolution,
p6294
F1
sVsnatching
p6295
F1
sVfestival.
p6296
F1
sVname.
p6297
F2
sVunremitted
p6298
F1
sVinsufficiency
p6299
F1
sVtrain
p6300
F2
sVtattered
p6301
F2
sVpharynx,
p6302
F1
sVtearing
p6303
F1
sVboatswain!"
p6304
F1
sVfan
p6305
F1
sVaccount
p6306
F5
sVembarked
p6307
F1
sVobvious
p6308
F2
sVpraise
p6309
F1
sVclosing
p6310
F1
sVsomething
p6311
F23
sVwater;
p6312
F3
sVout;
p6313
F1
sVreserved
p6314
F8
sVwater?
p6315
F1
sVbuoyantly
p6316
F1
sVhigh,
p6317
F3
sVhigh.
p6318
F1
sVwater!
p6319
F2
sVwater"
p6320
F1
sVnative
p6321
F1
sVimmediate;
p6322
F1
sV"that,
p6323
F1
sVsays,
p6324
F1
sVholds
p6325
F4
sVregions
p6326
F2
sVimmediate.
p6327
F1
sVline,
p6328
F2
sVsaying,--
p6329
F1
sVsail-tent,
p6330
F1
sVaft
p6331
F3
sVfurnace
p6332
F1
sVstock
p6333
F1
sVwatery
p6334
F2
sVwaters
p6335
F1
sVreserve.
p6336
F1
sVdemoralized;
p6337
F1
sVhold;
p6338
F2
sVgone.
p6339
F1
sVgone,
p6340
F3
sVhold?
p6341
F1
sVbind
p6342
F1
sVlines
p6343
F6
sVamazon
p6344
F1
sVsidelong
p6345
F1
sVgone;
p6346
F3
sVchief
p6347
F1
sVformation.
p6348
F2
sVhold,
p6349
F11
sVhold.
p6350
F8
sVfurious
p6351
F3
sVfurnish
p6352
F1
sVignite
p6353
F1
sVstruggles
p6354
F1
sValacrity
p6355
F1
sVeffectual,
p6356
F1
sVtickling
p6357
F1
sVuntempting
p6358
F1
sVrevived
p6359
F2
sVwilling
p6360
F2
sVrough.
p6361
F1
sVcontinent?
p6362
F1
sVlatitude
p6363
F1
sVmean."
p6364
F1
sVstopped,
p6365
F1
sVmorning;
p6366
F1
sVjunction
p6367
F1
sVimpervious
p6368
F1
sVpangs
p6369
F10
sVsituation;
p6370
F1
sVactuate
p6371
F1
sVforgotten:
p6372
F1
sVmention
p6373
F3
sVcutting
p6374
F3
sVkindness
p6375
F1
sVforgotten,
p6376
F1
sVday
p6377
F30
sVforgotten.
p6378
F1
sVwrested
p6379
F1
sVthrill
p6380
F2
sVl.
p6381
F1
sVwarned
p6382
F3
sVsky.
p6383
F4
sVfreshness
p6384
F1
sVspared,
p6385
F2
sVleast;
p6386
F1
sVresistless
p6387
F1
sVjoy.
p6388
F1
sVhuntly."
p6389
F1
sVnotice."
p6390
F1
sVnevertheless,
p6391
F3
sVsuccession.
p6392
F1
sVmost,
p6393
F1
sVher--she
p6394
F1
sVthirst;
p6395
F2
sVvitals.
p6396
F1
sVlong-boat;
p6397
F1
sVextinguishing
p6398
F1
sVdefend
p6399
F1
sVdon't,
p6400
F1
sVthat;"
p6401
F1
sVmate
p6402
F8
sVwaller,
p6403
F1
sVprogress.
p6404
F1
sVmarvelled
p6405
F1
sVred
p6406
F4
sVsuggestions,
p6407
F1
sVhimself,--
p6408
F1
sVprogress,
p6409
F1
sVmatter."
p6410
F1
sVfourteen
p6411
F4
sVlowered,
p6412
F2
sV"can
p6413
F1
sVyard
p6414
F1
sVdeprived
p6415
F1
sVendeavouring
p6416
F4
sVmariners.
p6417
F1
sVtack
p6418
F2
sVretain
p6419
F1
sVretail
p6420
F1
sVsorrowful
p6421
F3
sVsouth
p6422
F7
sVcomplete.
p6423
F2
sVrudely
p6424
F1
sVcomplete,
p6425
F2
sVmemorandum-book,
p6426
F1
sVbraced
p6427
F1
sVreaches
p6428
F1
sVescape,
p6429
F1
sV"drink,
p6430
F1
sVrag,
p6431
F1
sVpackage,
p6432
F1
sVcourage.
p6433
F2
sVguiana
p6434
F1
sVhotter,
p6435
F1
sVintermediate
p6436
F1
sVacquiescence
p6437
F1
sVferocity
p6438
F1
sVbargained
p6439
F1
sVcabin
p6440
F3
sVagonies
p6441
F3
sVcompleted
p6442
F2
sVlutings;
p6443
F1
sVdreary
p6444
F2
sVnegro
p6445
F4
sVthunderbolts
p6446
F1
sVvouchsafed
p6447
F1
sVloved
p6448
F1
sVpot;
p6449
F1
sVupon;
p6450
F2
sVflashed
p6451
F1
sVautomaton,
p6452
F1
sVcalamity
p6453
F2
sVpot,
p6454
F2
sVlover
p6455
F1
sVvisited
p6456
F4
sVcovenant,
p6457
F1
sVxviii.
p6458
F1
sVreviving.
p6459
F1
sVreviving,
p6460
F1
sVcaps,
p6461
F1
sVsadly,
p6462
F1
sVlabouring
p6463
F4
sVmast,
p6464
F10
sVmast.
p6465
F4
sVtide
p6466
F18
sVcomfortably
p6467
F1
sVpitiable
p6468
F1
sVhave
p6469
F259
sVthroat
p6470
F4
sVapparently
p6471
F1
sVplank,
p6472
F1
sVtobacco,
p6473
F1
sVpatience.
p6474
F1
sVgravity
p6475
F1
sVpatience,
p6476
F2
sVexpected)
p6477
F1
sVmix
p6478
F1
sVexpected,
p6479
F2
sVexpected.
p6480
F3
sVprovoked
p6481
F1
sVboy,"
p6482
F4
sVdesperate,
p6483
F1
sV"listen
p6484
F1
sVunless
p6485
F11
sVupon."
p6486
F1
sVcrew's
p6487
F2
sVterrible.
p6488
F2
sVterrible,
p6489
F1
sVbusiness.
p6490
F1
sVtime's
p6491
F1
sVmasts
p6492
F8
sVeight
p6493
F14
sVclamber
p6494
F2
sVpreliminary
p6495
F2
sVprisoner
p6496
F1
sVwake,
p6497
F1
sVwake.
p6498
F1
sVterrible;
p6499
F1
sVenthusiastic
p6500
F2
sVstranded
p6501
F4
sVconcern,
p6502
F1
sVdisease
p6503
F1
sVhandspikes,
p6504
F2
sVplanks
p6505
F12
sVsaying,
p6506
F1
sVservices,
p6507
F1
sVhorary
p6508
F1
sVsupported
p6509
F5
sV18deg.
p6510
F1
sVcurtis's
p6511
F14
sVsaturated
p6512
F1
sVgasping
p6513
F2
sVmadman
p6514
F1
sVprolong
p6515
F1
sV"weather
p6516
F1
sVhemp,
p6517
F1
sVfatiguing
p6518
F1
sVcorresponding,
p6519
F1
sVinferior
p6520
F1
sVequilibrium
p6521
F2
sVcan."
p6522
F1
sVgrumbling;
p6523
F1
sVbeat
p6524
F2
sVcame,"
p6525
F1
sVbear
p6526
F12
sVbeam
p6527
F1
sVroutes.
p6528
F1
sVunprejudiced
p6529
F1
sVpetroleum-merchant
p6530
F1
sVstrove
p6531
F1
sVnutriment
p6532
F1
sVanything.
p6533
F2
sVcalling
p6534
F1
sVcontrol,
p6535
F1
sVcontrol.
p6536
F1
sVsociety.
p6537
F1
sVanything;
p6538
F1
sVfixed
p6539
F9
sVomission
p6540
F1
sVfarthest
p6541
F1
sVtint;
p6542
F1
sVnational
p6543
F1
sVyearning
p6544
F1
sVatlantic
p6545
F7
sVhe;
p6546
F2
sVimmerged;
p6547
F1
sVdifficulties
p6548
F1
sVroutine
p6549
F2
sV"attempt"
p6550
F1
sVoperations,
p6551
F2
sVhalf-closed
p6552
F1
sVunseaworthy
p6553
F1
sVexclaimed,
p6554
F3
sVbows,
p6555
F1
sVexclaimed.
p6556
F2
sVgrumble
p6557
F1
sVdoomed,
p6558
F1
sVhe,
p6559
F2
sVaside,
p6560
F1
sVfirmness
p6561
F1
sVexclaimed;
p6562
F1
sVinstant
p6563
F9
sVasunder
p6564
F2
sVtaking
p6565
F17
sVequal
p6566
F3
sVwringing
p6567
F1
sVprecedent.
p6568
F1
sVswallow
p6569
F4
sVdubious,
p6570
F1
sVsorrowfully,
p6571
F1
sVvent
p6572
F2
sVcompromising
p6573
F1
sVgone
p6574
F7
sVangle,
p6575
F1
sVdone;
p6576
F1
sVnot,"
p6577
F1
sVkazallon;
p6578
F2
sVdone,
p6579
F4
sVdone.
p6580
F1
sVarise,
p6581
F1
sVpouring
p6582
F1
sVtremendous
p6583
F3
sVit's
p6584
F4
sVgaze
p6585
F1
sVdevoting
p6586
F1
sVlady's
p6587
F2
sVcurtain
p6588
F1
sVproposal
p6589
F1
sVphosphorescent
p6590
F1
sVwatertight.
p6591
F1
sVbulk
p6592
F1
sVfinished
p6593
F3
sVpallour
p6594
F1
sVbasin,
p6595
F1
sVstatue.
p6596
F1
sVgeneral
p6597
F10
sVarisen
p6598
F1
sVvolunteer
p6599
F1
sVcomposure.
p6600
F2
sVcomposure,
p6601
F5
sVappearance
p6602
F7
sVvalue
p6603
F1
sVadvisable
p6604
F4
sVgrotto.
p6605
F1
sVcarved
p6606
F1
sValmost
p6607
F43
sVstarted,
p6608
F2
sVstarted.
p6609
F1
sVtopics,
p6610
F2
sVweighed
p6611
F3
sVarrangements
p6612
F1
sVcreak
p6613
F1
sVpartner
p6614
F1
sVportray
p6615
F1
sVwhirl
p6616
F8
sVset,
p6617
F2
sVmain-top.
p6618
F1
sVmain-top,
p6619
F4
sVprognostications
p6620
F1
sVmain-top;
p6621
F1
sVinjured
p6622
F3
sVpulse,
p6623
F1
sVselfish
p6624
F1
sVescaping.
p6625
F1
sVholdfasts
p6626
F1
sVreduced;
p6627
F1
sVinsure
p6628
F5
sVrecourse
p6629
F1
sVnevertheless
p6630
F2
sVhesitates;
p6631
F1
sVweapon
p6632
F3
sVthought
p6633
F27
sVretiring
p6634
F2
sVsets
p6635
F2
sVstarboard
p6636
F11
sVraving
p6637
F3
sVarising
p6638
F1
sVpikes,
p6639
F1
sVusual
p6640
F5
sVcompanions,
p6641
F6
sVderived,
p6642
F1
sVpulleys
p6643
F1
sVproximity
p6644
F1
sVstored
p6645
F2
sVseats
p6646
F1
sVthrown,
p6647
F1
sVliberty)
p6648
F1
sVwork,
p6649
F5
sVwork.
p6650
F3
sVabsorption
p6651
F1
sVonward
p6652
F1
sVraised;
p6653
F1
sVthoughts,
p6654
F1
sVadd
p6655
F5
sVcast.
p6656
F1
sVought
p6657
F8
sVresolved
p6658
F7
sVapproached,
p6659
F1
sVuntrue
p6660
F1
sVelapsed
p6661
F4
sVstore.
p6662
F2
sVstore,
p6663
F1
sVnaturally
p6664
F1
sVconfusion.
p6665
F1
sVlike
p6666
F52
sVconfusion,
p6667
F1
sVcrawled
p6668
F1
sVliverpool?
p6669
F1
sVliverpool;
p6670
F1
sVheed
p6671
F2
sVliverpool,
p6672
F3
sVliverpool.
p6673
F2
sVworks
p6674
F2
sVrave,
p6675
F1
sVheel
p6676
F1
sVproposition;
p6677
F1
sVaccessible
p6678
F1
sVsimple.
p6679
F1
sVauthority
p6680
F2
sV"did
p6681
F1
sVhair
p6682
F4
sVmedicine-chest
p6683
F1
sVproper
p6684
F6
sVfriends,"
p6685
F4
sVshrug
p6686
F2
sVest
p6687
F1
sVship.
p6688
F6
sVcorpse
p6689
F2
sVhurricane
p6690
F4
sVflesh.
p6691
F3
sV"pshaw!"
p6692
F1
sVboard!
p6693
F1
sVboard.
p6694
F6
sVboard,
p6695
F7
sVflesh;
p6696
F1
sVchains
p6697
F3
sVdisasters
p6698
F1
sVnoise
p6699
F5
sVslight
p6700
F6
sVlieutenant
p6701
F21
sValthough
p6702
F46
sVworthy
p6703
F1
sVsnapped
p6704
F3
sVnoisy
p6705
F1
sVabout
p6706
F107
sVactual
p6707
F3
sVboards
p6708
F2
sVwithdrew
p6709
F2
sVwere;
p6710
F1
sVserviceable
p6711
F1
sVsensibly.
p6712
F1
sVintroduced
p6713
F2
sVhappen,
p6714
F1
sVrendered
p6715
F4
sVimbibed
p6716
F2
sVfloating.
p6717
F1
sVguard
p6718
F1
sVstern-cabins,
p6719
F1
sVbackstays
p6720
F1
sVpotash,"
p6721
F1
sValoud.
p6722
F1
sVminute.
p6723
F1
sVminute,
p6724
F2
sVridge
p6725
F4
sVrushed
p6726
F9
sVxxxvii.
p6727
F1
sVcondense
p6728
F1
sVrushes
p6729
F1
sVinasmuch
p6730
F3
sVmist,
p6731
F3
sVglimmer
p6732
F1
sVaground,
p6733
F1
sVaground.
p6734
F2
sVstorm-cloud,
p6735
F1
sVvegetate.
p6736
F1
sVbuy
p6737
F1
sVblast.
p6738
F1
sVbut
p6739
F371
sVinsured
p6740
F1
sVrepeated
p6741
F6
sVplague
p6742
F1
sV17min.
p6743
F1
sVmatch,
p6744
F1
sVpartially
p6745
F1
sVdangerous
p6746
F3
sVmists
p6747
F3
sVforetop,
p6748
F2
sVforetop.
p6749
F1
sVminutes
p6750
F4
sVuneasiness;
p6751
F1
sVknuckle.
p6752
F1
sVpenetrating
p6753
F1
sVtarpauling
p6754
F1
sVvapours.
p6755
F1
sVwedges,
p6756
F1
sVmysteriously
p6757
F1
sVproceeds
p6758
F1
sVtarpaulins
p6759
F1
sVwide,
p6760
F1
sVprated
p6761
F1
sVspecial
p6762
F1
sVwell-to-do
p6763
F1
sVstimulant
p6764
F1
sVtarpaulin,
p6765
F1
sVindeed.
p6766
F3
sVindeed,
p6767
F7
sVperiod,
p6768
F1
sViron-belts
p6769
F1
sVbundle
p6770
F4
sVindeed;
p6771
F2
sVdeath,
p6772
F2
sVdeath.
p6773
F1
sV"abandoned
p6774
F1
sVresolution
p6775
F1
sV100deg.,
p6776
F1
sV"hush!"
p6777
F1
sVposts.
p6778
F1
sVfathoms,
p6779
F1
sVyell
p6780
F1
sV8th
p6781
F3
sVlimited
p6782
F5
sVever.
p6783
F6
sVsuffer.
p6784
F1
sVcomparatively
p6785
F2
sVever!
p6786
F1
sVfacilities
p6787
F1
sVsleep
p6788
F2
sVhate
p6789
F1
sVassembled
p6790
F1
sVinch.
p6791
F1
sVflash,
p6792
F2
sV"at
p6793
F1
sVfeeding
p6794
F2
sV"as
p6795
F4
sV(for
p6796
F1
sVbasaltic
p6797
F5
sVunder
p6798
F38
sV"an
p6799
F1
sVstanding.
p6800
F1
sVpoisoned,
p6801
F1
sVbuttresses,
p6802
F1
sVmerchant
p6803
F4
sVhat;
p6804
F1
sVrisk
p6805
F5
sVoverpowered,
p6806
F1
sVnow,"
p6807
F2
sVparticulars,
p6808
F1
sVtears,
p6809
F2
sVmortice
p6810
F1
sVevery
p6811
F57
sVhat,
p6812
F3
sVeast.
p6813
F2
sVhat.
p6814
F1
sVencounter
p6815
F2
sVregret.
p6816
F1
sVpostponing
p6817
F1
sV"don't
p6818
F4
sVone's
p6819
F2
sVsounds,
p6820
F1
sVenjoy
p6821
F2
sVveritable
p6822
F1
sV"all
p6823
F4
sVshoulders.
p6824
F1
sVfaintest
p6825
F2
sV15th,
p6826
F1
sVcontention.
p6827
F1
sVbetokening
p6828
F1
sVdirect
p6829
F4
sVnail
p6830
F1
sVpersuade
p6831
F1
sVwriting
p6832
F1
sVestimated
p6833
F1
sVveritably
p6834
F1
sVransack
p6835
F1
sVshining
p6836
F2
sVblue
p6837
F2
sVstrangest
p6838
F1
sVcentury,
p6839
F1
sVsolemn
p6840
F1
sVselected
p6841
F1
sVrevolver
p6842
F1
sVsupplied
p6843
F2
sVsinking,
p6844
F1
sVlive?"
p6845
F1
sVsettle,
p6846
F1
sVteak,
p6847
F1
sVconduct
p6848
F5
sVsupplies
p6849
F1
sVsinking!
p6850
F1
sVevanescent
p6851
F1
sV"whether
p6852
F1
sVhalf-past
p6853
F9
sVstared
p6854
F4
sVhundreds
p6855
F1
sVestimate.
p6856
F1
sVresounded
p6857
F1
sVestimate,
p6858
F1
sVaid
p6859
F2
sVrepresented
p6860
F1
sVpath
p6861
F1
sVstares
p6862
F1
sVproperty
p6863
F1
sVdistinctness
p6864
F1
sVluggage
p6865
F2
sVworse.
p6866
F2
sVleaves
p6867
F3
sVchanged
p6868
F1
sVmargin;
p6869
F1
sVxvi.
p6870
F1
sVcommenced.
p6871
F1
sVcommenced,
p6872
F1
sVsettled
p6873
F1
sVventured
p6874
F4
sVcompany.
p6875
F1
sV(save
p6876
F1
sVcompany,
p6877
F2
sVbreath,
p6878
F2
sVbreath.
p6879
F1
sVterrific,
p6880
F1
sVjulia
p6881
F1
sVfeelings
p6882
F6
sVvisible
p6883
F5
sVterrific;
p6884
F1
sVbetokened
p6885
F1
sVreply,
p6886
F1
sVself-denying
p6887
F1
sVwould
p6888
F159
sVinapplicable.
p6889
F1
sVm.
p6890
F82
sVshoals.
p6891
F1
sVfainting
p6892
F1
sVmother!
p6893
F2
sVbreathe
p6894
F1
sVbarbarous
p6895
F2
sVinterviews,
p6896
F1
sVmeat,
p6897
F2
sVthis!"
p6898
F1
sVsorrow.
p6899
F1
sVgrief
p6900
F1
sVmother,
p6901
F1
sVorganic
p6902
F1
sVkeg
p6903
F2
sVmeat;
p6904
F1
sVmust
p6905
F69
sVme
p6906
F103
sVjoin
p6907
F7
sVhideous
p6908
F1
sVrefitted,
p6909
F1
sVlivid,
p6910
F1
sVmy
p6911
F303
sV"no;"
p6912
F1
sVdisappearance.
p6913
F1
sVshook
p6914
F5
sVsun;
p6915
F1
sVstorm-sheet
p6916
F1
sVexile
p6917
F1
sVoverheard
p6918
F1
sVallayed;
p6919
F1
sVmouth,
p6920
F3
sV"while
p6921
F1
sVgun-cotton
p6922
F1
sVend
p6923
F16
sVstraightforward
p6924
F1
sVintoxicated
p6925
F3
sVreturning
p6926
F2
sVshred
p6927
F1
sVaching
p6928
F1
sVcharging
p6929
F1
sVloose,
p6930
F1
sVit!"
p6931
F1
sVdarkened,
p6932
F1
sVassistance.
p6933
F1
sVmouths
p6934
F2
sVassistance,
p6935
F2
sVstorm-cloud
p6936
F1
sVsparkled
p6937
F1
sVassistance;
p6938
F1
sVorleans.
p6939
F1
sVparallel
p6940
F1
sVgirders
p6941
F1
sVsextant
p6942
F1
sVsplendid
p6943
F1
sVacknowledged
p6944
F2
sVsuspense,
p6945
F1
sVsuspense.
p6946
F1
sVultimate
p6947
F1
sViii.
p6948
F1
sValoud
p6949
F2
sVletourneur's
p6950
F6
sVunsteady
p6951
F1
sVover
p6952
F63
sVintenseness
p6953
F1
sVcrumbs
p6954
F1
sVweather,"
p6955
F1
sVglances
p6956
F1
sVbeside
p6957
F7
sVsuppress.
p6958
F1
sVjoined.
p6959
F1
sVcomprehend
p6960
F3
sVdestroyed
p6961
F1
sVcondition
p6962
F14
sVglanced
p6963
F3
sVstifling
p6964
F6
sVshocks,
p6965
F1
sVshocks.
p6966
F1
sVsmouldering,
p6967
F1
sVprevented
p6968
F6
sVcrumb,
p6969
F1
sVhistory,
p6970
F1
sVcarefully,
p6971
F1
sVcarefully.
p6972
F2
sVextent,
p6973
F1
sVpoop,"
p6974
F1
sVgloom
p6975
F1
sVswaying
p6976
F1
sVblinded,
p6977
F1
sVmoderate
p6978
F1
sVfrantically
p6979
F2
sVcapricious
p6980
F2
sVeach
p6981
F28
sVawful,
p6982
F1
sVmadrepores,
p6983
F1
sV14th.--owen's
p6984
F1
sVmid-ocean.
p6985
F1
sVlii.
p6986
F1
sV"certainly,
p6987
F2
sVday;
p6988
F1
sVdriving
p6989
F1
sVcripple?"
p6990
F1
sVbermudas!"
p6991
F1
sVday.
p6992
F4
sVday,
p6993
F14
sVbonnets
p6994
F1
sVgot
p6995
F9
sVtwenty-five
p6996
F1
sVday!
p6997
F1
sVcalmest
p6998
F2
sVsplashed
p6999
F1
sVperception
p7000
F1
sV"picrate
p7001
F2
sVcarcass
p7002
F1
sVfree
p7003
F8
sVaforesaid
p7004
F1
sVwent,
p7005
F2
sVformation
p7006
F2
sVwanted
p7007
F4
sVsuper-natural
p7008
F1
sVemployed;
p7009
F1
sVinanition,
p7010
F1
sVdays
p7011
F28
sV"this
p7012
F3
sVxxx.
p7013
F1
sVgo?
p7014
F1
sVhopeless
p7015
F3
sVfever,
p7016
F1
sVfever.
p7017
F1
sVrang
p7018
F1
sValready
p7019
F40
sVunbroken,
p7020
F2
sVtoo,
p7021
F13
sVbandages
p7022
F1
sVlast."
p7023
F1
sVhearing
p7024
F4
sVgrief.
p7025
F1
sVcurtain,
p7026
F1
sVdozing
p7027
F1
sVtop
p7028
F8
sVtow
p7029
F1
sVkinder
p7030
F1
sVtoo
p7031
F37
sVwildly
p7032
F1
sVsubmersion
p7033
F2
sVunbroken
p7034
F3
sVconsented
p7035
F2
sVmurder
p7036
F1
sVaustin,
p7037
F2
sVmonotonous.
p7038
F1
sVmonotonous,
p7039
F1
sVserve
p7040
F7
sVtook
p7041
F29
sVattraction.
p7042
F1
sVwestern
p7043
F3
sVabated
p7044
F1
sVappeal.
p7045
F1
sVbloodless,
p7046
F1
sV"make
p7047
F1
sVhearing--all
p7048
F1
sVtwenty.
p7049
F1
sVtwenty,
p7050
F1
sVheight;
p7051
F1
sVwhispers.
p7052
F1
sVheight,
p7053
F1
sVheight.
p7054
F1
sVflame
p7055
F1
sVto,
p7056
F1
sVcirculate
p7057
F1
sVrag
p7058
F1
sVfashion
p7059
F1
sVthat?"
p7060
F1
sVran
p7061
F6
sVdestination.
p7062
F1
sVtalking
p7063
F6
sVgroanings,
p7064
F1
sVgreedily,
p7065
F1
sVray
p7066
F1
sVagain,--
p7067
F1
sVlying,
p7068
F1
sVinterposed,
p7069
F1
sVthoroughly
p7070
F9
sVisolated
p7071
F1
sVthorough
p7072
F2
sVwhat!"
p7073
F1
sVconsulted,
p7074
F1
sVrider
p7075
F1
sVgirl's
p7076
F1
sVdetained
p7077
F1
sVthough
p7078
F47
sVglands
p7079
F1
sVglimpses
p7080
F1
sVplenty
p7081
F3
sVphilosophic
p7082
F1
sVex-captain
p7083
F1
sV53min.
p7084
F1
sVher."
p7085
F1
sVpartition
p7086
F2
sVmetal
p7087
F3
sVreputation
p7088
F1
sVentertaining
p7089
F1
sVfollow:--mr.
p7090
F1
sVpardoned
p7091
F1
sVbait
p7092
F6
sVtrodden,
p7093
F1
sVearth
p7094
F1
sVspite
p7095
F17
sVrefreshment
p7096
F2
sVdisgust
p7097
F1
sVannounce
p7098
F1
sVirishman,
p7099
F2
sVmine."
p7100
F1
sVindispensable."
p7101
F1
sVanger.
p7102
F1
sVpresent."
p7103
F2
sVwatch
p7104
F6
sVfluid
p7105
F2
sVtalker,
p7106
F1
sVreport
p7107
F1
sVeffrontery.
p7108
F1
sVabout.
p7109
F2
sVabout,
p7110
F2
sVprogress;
p7111
F1
sVincreasing?"
p7112
F1
sVdied.
p7113
F1
sVtwice
p7114
F3
sVsituation.
p7115
F4
sVdelay,
p7116
F1
sVsituation,
p7117
F2
sVdelay.
p7118
F1
sVfarther
p7119
F2
sVsuspicions--that
p7120
F1
sVhabit
p7121
F1
sVwrest
p7122
F1
sVnot?"
p7123
F4
sVresist
p7124
F3
sVcombustion
p7125
F4
sVtemptation
p7126
F2
sVface,
p7127
F2
sVface.
p7128
F4
sVuttering-cries
p7129
F1
sVcontinually
p7130
F6
sV"oh
p7131
F1
sVfinger
p7132
F1
sV"on
p7133
F1
sVapproach
p7134
F3
sV"of
p7135
F1
sVdiscovery
p7136
F3
sVrims
p7137
F1
sVweak
p7138
F3
sVhowever
p7139
F3
sVbows.
p7140
F2
sVdevour
p7141
F1
sVwear
p7142
F3
sVnews
p7143
F1
sVdrowsy
p7144
F1
sVfaced
p7145
F1
sVprotect
p7146
F1
sVcuriosity,
p7147
F1
sVirregular
p7148
F2
sVdiscover.
p7149
F2
sVdiscover,
p7150
F2
sVdearer
p7151
F1
sVdistinguished
p7152
F2
sVdisengage
p7153
F2
sV"any
p7154
F1
sV"and
p7155
F21
sVmajestic
p7156
F1
sVtrust
p7157
F4
sVxx.
p7158
F1
sVaback
p7159
F1
sVknife,
p7160
F1
sVsurely,"
p7161
F2
sVincomparable
p7162
F1
sV"you
p7163
F14
sVropes
p7164
F5
sVbeen
p7165
F215
sVquickly
p7166
F4
sVwere,
p7167
F4
sVbronsfield,
p7168
F1
sVwere.
p7169
F1
sVspread
p7170
F1
sVdeep.
p7171
F1
sVdeep,
p7172
F1
sVexpected
p7173
F3
sVdeliberation,
p7174
F1
sVanchors
p7175
F1
sVdrugs
p7176
F1
sVglided
p7177
F3
sV900
p7178
F3
sVtransatlantic
p7179
F4
sVcraft
p7180
F1
sVcatch
p7181
F7
sVglides
p7182
F2
sVexhausted,
p7183
F4
sVnumber!"
p7184
F1
sVatmosphere.
p7185
F1
sVlesser
p7186
F2
sVyells.
p7187
F1
sVparched
p7188
F8
sVrope,
p7189
F3
sVrope.
p7190
F2
sVatmosphere,
p7191
F1
sVprecede
p7192
F1
sVnatives
p7193
F1
sVdying.
p7194
F1
sV"a
p7195
F6
sVcharacter,
p7196
F1
sVcharacter.
p7197
F1
sV"i
p7198
F32
sVbrutal
p7199
F1
sVexterior
p7200
F1
sVcharacter;
p7201
F2
sVstanding-place.
p7202
F1
sVembarrassment;
p7203
F1
sVcontaining
p7204
F3
sVcomes,
p7205
F2
sVsuggest
p7206
F2
sVdid!"
p7207
F1
sVdawned!
p7208
F1
sVforehead
p7209
F2
sVseveral
p7210
F27
sVpeaks
p7211
F1
sVdiscouragement;
p7212
F1
sV"mr.
p7213
F5
sVinsisted
p7214
F4
sVmade,
p7215
F1
sVmade.
p7216
F3
sVshortly
p7217
F7
sVmother's
p7218
F1
sVboard?"
p7219
F2
sVvulgar
p7220
F1
sVpossessed
p7221
F3
sVocean
p7222
F9
sVgusts.
p7223
F1
sVgreatest
p7224
F7
sVincapable
p7225
F2
sVhearts
p7226
F2
sVpossesses
p7227
F2
sVleagues
p7228
F1
sVassembling
p7229
F1
sVproposed
p7230
F4
sVsomewheres,
p7231
F1
sVbreak,
p7232
F1
sVenlighten
p7233
F1
sVtolerably
p7234
F3
sVseams,
p7235
F1
sVvibration
p7236
F1
sVoffice.
p7237
F2
sVbrandy-barrel,
p7238
F1
sVseams;
p7239
F1
sVadvanced
p7240
F4
sVpitiful
p7241
F1
sVfoot,
p7242
F1
sVgave
p7243
F13
sVcasting
p7244
F1
sVensued,
p7245
F1
sVensued.
p7246
F2
sVw.,
p7247
F2
sVdescending
p7248
F2
sVburns
p7249
F1
sVburnt
p7250
F1
sVspeaks.
p7251
F1
sVcontradict
p7252
F1
sVoffices
p7253
F1
sVofficer
p7254
F1
sVhung
p7255
F8
sVson's,
p7256
F1
sVgait,
p7257
F1
sV"chancellor's"
p7258
F8
sVescape
p7259
F8
sV"birds!
p7260
F1
sVprecautions
p7261
F1
sVrapidity
p7262
F1
sVproceeding
p7263
F2
sVthief,"
p7264
F1
sVcompanions
p7265
F7
sVmystified
p7266
F1
sVeverything
p7267
F11
sVson."
p7268
F1
sVcord
p7269
F2
sVchest.
p7270
F2
sVdisappeared
p7271
F2
sVstaunchly
p7272
F1
sVcomprehending
p7273
F1
sVpermitted
p7274
F2
sVchapter
p7275
F57
sVattacks
p7276
F1
sVuntouched,
p7277
F1
sVcaulk
p7278
F1
sVplunging
p7279
F2
sVcompanion,
p7280
F2
sVsteadily
p7281
F7
sVwestwards,
p7282
F1
sVefforts
p7283
F4
sVprimitive
p7284
F1
sVpresence
p7285
F1
sVmanoeuvre,
p7286
F1
sVobtaining
p7287
F1
sVimplore
p7288
F2
sVoccurred.
p7289
F1
sVhorror?
p7290
F1
sVindispensable
p7291
F2
sVsunlight
p7292
F1
sVclass
p7293
F1
sVstuck
p7294
F1
sVfought
p7295
F2
sVhusband's
p7296
F1
sVmurdered;
p7297
F1
sVsmiles,
p7298
F1
sVquestionable
p7299
F1
sVincautiousness
p7300
F1
sVhead
p7301
F10
sVah!
p7302
F1
sVattempted
p7303
F1
sVhands;
p7304
F1
sVah,
p7305
F1
sV26th
p7306
F1
sVaperture
p7307
F2
sVheat
p7308
F19
sVhear
p7309
F11
sVround;
p7310
F1
sVheap
p7311
F2
sVsustained
p7312
F2
sVremoved
p7313
F3
sVhands,
p7314
F5
sVhoping.
p7315
F1
sVadmiration
p7316
F1
sVo'clock,
p7317
F7
sVo'clock.
p7318
F1
sVcrew,
p7319
F8
sVcrew.
p7320
F1
sVto-morrow
p7321
F2
sVbargain
p7322
F1
sVloitering
p7323
F1
sVtrim
p7324
F3
sVbrightly
p7325
F1
sVfury
p7326
F1
sVridge,
p7327
F2
sVridge.
p7328
F1
sVsuspicions
p7329
F3
sVcheck
p7330
F1
sVconstructed
p7331
F2
sVbait,"
p7332
F1
sVlooked
p7333
F13
sVupheaval
p7334
F1
sVno
p7335
F167
sVmoment's
p7336
F2
sVwhen
p7337
F94
sVprey;
p7338
F1
sVbumptious
p7339
F1
sVmoores,
p7340
F1
sVsetting
p7341
F2
sVstagnant
p7342
F1
sVtie
p7343
F1
sVvanished
p7344
F3
sVprey.
p7345
F3
sVdraughts.
p7346
F1
sVpreceding
p7347
F1
sVdark,
p7348
F4
sVunfrequented
p7349
F1
sVdischarge
p7350
F1
sVham,
p7351
F1
sVeffort,
p7352
F3
sVto-day
p7353
F6
sVlonger
p7354
F25
sVn.
p7355
F4
sVswarming
p7356
F1
sVpaper.
p7357
F1
sVuncovered
p7358
F1
sVlonged
p7359
F1
sVremarked
p7360
F5
sVserious
p7361
F7
sV"his
p7362
F1
sVremarkable
p7363
F3
sVeat?"
p7364
F1
sVrod
p7365
F1
sVuncovered,
p7366
F1
sVleads
p7367
F1
sVwishes,
p7368
F1
sVextremities
p7369
F1
sVshakspeare
p7370
F1
sVcontemplating
p7371
F2
sVpassage
p7372
F9
sVpost.
p7373
F2
sVcharge
p7374
F1
sVasking
p7375
F2
sVsinging,
p7376
F1
sVcolloquy
p7377
F1
sVquestions,
p7378
F2
sVslowly,
p7379
F3
sVtidings
p7380
F1
sVadvantage
p7381
F6
sVneed."
p7382
F1
sVlead,
p7383
F1
sVavidity.
p7384
F1
sVcool
p7385
F2
sVpromptings
p7386
F1
sVclouds
p7387
F10
sVbest.
p7388
F1
sVlevel
p7389
F12
sV100deg.
p7390
F1
sVcloudy
p7391
F1
sVcouched
p7392
F1
sVquick
p7393
F4
sVaccumulation
p7394
F2
sVsays
p7395
F3
sVgroup,
p7396
F1
sVimprudent."
p7397
F1
sVdried
p7398
F3
sVbales
p7399
F11
sVport
p7400
F3
sVcripple,
p7401
F1
sVdeluded
p7402
F1
sVcontracted
p7403
F6
sVstomach,
p7404
F2
sVpleased
p7405
F2
sVdiscouraged,
p7406
F1
sVgoes
p7407
F4
sVreply
p7408
F3
sVillimitable
p7409
F2
sVdrink.
p7410
F2
sVintelligent,
p7411
F1
sVnearer
p7412
F1
sVsay?
p7413
F1
sVninety-nine
p7414
F1
sVafterwards,
p7415
F2
sVeternity--before
p7416
F1
sVsay;
p7417
F3
sVsay:
p7418
F1
sVwater
p7419
F79
sVtrue.
p7420
F1
sVgroups
p7421
F1
sVhoarse
p7422
F1
sVsay.
p7423
F1
sVsay,
p7424
F9
sVpresent,"
p7425
F1
sVnothing.
p7426
F6
sVthirty
p7427
F6
sVexpressly
p7428
F1
sVguilty
p7429
F1
sVroared
p7430
F1
sVdescended
p7431
F3
sVnavigation
p7432
F1
sVdrifted,
p7433
F1
sVmyself.
p7434
F4
sVmyself,
p7435
F13
sVhours;
p7436
F2
sVmodifying
p7437
F1
sVmyself;
p7438
F4
sVparalyzed
p7439
F2
sV1st
p7440
F3
sVislet
p7441
F2
sVswallowed
p7442
F10
sVisles
p7443
F1
sVartillery,
p7444
F1
sVvivid
p7445
F2
sV"those
p7446
F2
sVvicinity.
p7447
F1
sVprey
p7448
F2
sVwand;
p7449
F1
sVdiagrams
p7450
F1
sVuntrammelled
p7451
F1
sVrespiration.
p7452
F1
sV"m.
p7453
F2
sVre-echo
p7454
F1
sVdismal
p7455
F1
sVsouthwards
p7456
F1
sVshafts
p7457
F2
sVcases
p7458
F4
sVand,
p7459
F34
sVportions.
p7460
F1
sVlongitude
p7461
F1
sVwrong?
p7462
F1
sVslightest
p7463
F3
sVnumbers
p7464
F2
sVstreak
p7465
F1
sVchance;
p7466
F3
sVnursing
p7467
F1
sVstream
p7468
F2
sVexpectant
p7469
F1
sVask,"
p7470
F2
sVhours!
p7471
F1
sVdropped
p7472
F11
sVprovoke
p7473
F1
sV7min.
p7474
F1
sVdilated;
p7475
F1
sVgunwale,
p7476
F1
sVsecured
p7477
F7
sVfucus,
p7478
F1
sVstruck,
p7479
F2
sVdemoniacal
p7480
F1
sVamazon;
p7481
F1
sVinformation
p7482
F2
sVbroad
p7483
F3
sVobservations,
p7484
F1
sVmotion."
p7485
F1
sVdepriving
p7486
F1
sVamazon,
p7487
F1
sVabout!"
p7488
F1
sVrepeat
p7489
F1
sV"ah,
p7490
F3
sVspeak,
p7491
F3
sVdifferent.
p7492
F1
sVsucceeded
p7493
F5
sVamuse
p7494
F1
sVinform
p7495
F1
sVglancing
p7496
F1
sVthink."
p7497
F1
sVrepresentation
p7498
F1
sVpermission.
p7499
F1
sVjoins
p7500
F1
sVfurnished
p7501
F1
sVmidnight
p7502
F2
sVmotions
p7503
F2
sVweather,
p7504
F4
sVsight,"
p7505
F1
sVcombustion.
p7506
F1
sVdollars.
p7507
F1
sVhe's
p7508
F1
sVear,--
p7509
F2
sVfrenzy,
p7510
F1
sVeach,
p7511
F1
sVplatform
p7512
F7
sVsouls,
p7513
F1
sVoffers
p7514
F1
sV"yes!"
p7515
F1
sVpieces."
p7516
F1
sVmeridian
p7517
F1
sVhappened
p7518
F3
sVlonely
p7519
F1
sVconversations
p7520
F1
sVmotion.
p7521
F1
sVunderneath
p7522
F1
sVcowering
p7523
F1
sVhad,
p7524
F1
sVrecovery,
p7525
F1
sVname
p7526
F13
sVoffer,
p7527
F1
sVsoon,
p7528
F3
sVtesting
p7529
F1
sVboard!"
p7530
F1
sVoffer;
p7531
F1
sVmustn't
p7532
F1
sVlips--let
p7533
F1
sVgape
p7534
F1
sVcatching
p7535
F3
sVfarewell
p7536
F1
sVbegun
p7537
F2
sVexertions
p7538
F1
sVadequately
p7539
F1
sVreckons
p7540
F1
sVexclamation
p7541
F2
sVrenovating
p7542
F1
sVintercourse
p7543
F1
sVinfuriated
p7544
F2
sVtoo?"
p7545
F1
sVthus,
p7546
F2
sVgrecian
p7547
F1
sVnumber,
p7548
F3
sVattended
p7549
F2
sVcargo.
p7550
F1
sVcargo,
p7551
F3
sVhull
p7552
F6
sVfore,
p7553
F1
sVimaginable.
p7554
F1
sVcargo;
p7555
F1
sVskillfully
p7556
F1
sVland!"
p7557
F2
sVtop-sail
p7558
F2
sVimportance,
p7559
F1
sVmotion
p7560
F3
sVgusts
p7561
F2
sVplace
p7562
F16
sVswing
p7563
F1
sVcharleston
p7564
F7
sVdeceived
p7565
F3
sVbrightly.
p7566
F1
sVbrightly,
p7567
F1
sVorigin
p7568
F2
sVfetched
p7569
F1
sVsurviving
p7570
F2
sVrafts
p7571
F1
sVanxiety,
p7572
F4
sVsatisfactory.
p7573
F2
sVanxiety.
p7574
F1
sVlvii.
p7575
F1
sVlinger
p7576
F1
sVmerrily
p7577
F3
sVself-denial
p7578
F1
sVgeorge
p7579
F1
sVengineer
p7580
F1
sVclanking
p7581
F1
sVgiven
p7582
F12
sVnecessarily
p7583
F1
sVpersons,
p7584
F1
sVdriven,
p7585
F1
sVdriven.
p7586
F2
sVeurope
p7587
F3
sVwhy,
p7588
F4
sVreturns
p7589
F1
sVinsane,
p7590
F1
sVwhite
p7591
F7
sVgives
p7592
F2
sVunfaltering
p7593
F1
sVmorrow,
p7594
F1
sVreleased
p7595
F3
sVgive,
p7596
F2
sVwide
p7597
F4
sVunfortunately
p7598
F2
sVrequire
p7599
F6
sVreturn,
p7600
F1
sVreturn.
p7601
F1
sVoath
p7602
F1
sVearth,
p7603
F1
sVand
p7604
F1528
sVfall;
p7605
F1
sVfortunately,
p7606
F4
sVliii.
p7607
F1
sVfall,
p7608
F2
sVchanged,"
p7609
F1
sVsuspense
p7610
F1
sVunrefreshing.
p7611
F1
sVstern,
p7612
F6
sVany
p7613
F81
sVstern.
p7614
F3
sVfoundered
p7615
F1
sVlate;
p7616
F3
sVlate:
p7617
F1
sVpassengers.
p7618
F4
sVpassengers,
p7619
F10
sVideas
p7620
F2
sVwandered
p7621
F1
sVuntied
p7622
F1
sVanimation
p7623
F1
sVlate.
p7624
F2
sVact,
p7625
F1
sVdoes,"
p7626
F1
sVsurf
p7627
F1
sVurge
p7628
F1
sVsure
p7629
F15
sVgruffly;
p7630
F1
sVprecluded
p7631
F1
sVmate,
p7632
F5
sVmate.
p7633
F3
sVfalls
p7634
F4
sVreluctance,
p7635
F1
sVconfidence--all
p7636
F1
sVmate;
p7637
F1
sVprecludes
p7638
F1
sVstrength,
p7639
F1
sVstrength.
p7640
F3
sVconsidered
p7641
F3
sVlater
p7642
F6
sVscience,
p7643
F1
sVplaying
p7644
F1
sVsay."
p7645
F1
sVidea,
p7646
F1
sVstrength;
p7647
F1
sVdynamite,
p7648
F1
sV"perfect
p7649
F1
sVthat's
p7650
F1
sVshrieking
p7651
F1
sVslope
p7652
F2
sV"lash
p7653
F1
sVenumeration.
p7654
F1
sVboiler.
p7655
F1
sVinhalations.
p7656
F1
sVunfortunately,
p7657
F1
sVenfeebled
p7658
F1
sVgulf
p7659
F3
sVplentifully
p7660
F1
sVstate
p7661
F9
sVfisheries,
p7662
F1
sVbelieving
p7663
F2
sVdrama,
p7664
F1
sVlighted
p7665
F4
sVexemplary,
p7666
F1
sVallotted
p7667
F1
sVbroadest
p7668
F1
sVexpectation
p7669
F4
sVsargassos
p7670
F1
sVportions
p7671
F1
sVwilson's
p7672
F1
sVdie!"
p7673
F3
sVreveal
p7674
F2
sVregarding
p7675
F1
sVribs,
p7676
F1
sVpoetical
p7677
F1
sVturns.
p7678
F1
sV"nothing
p7679
F1
sVnaked
p7680
F1
sVjynxstrop's
p7681
F1
sVprobably,
p7682
F2
sVdiscussing
p7683
F4
sVmoment!"
p7684
F1
sVimposing
p7685
F1
sVencouraged
p7686
F1
sVyacht-club
p7687
F1
sVfails
p7688
F1
sVsuffer
p7689
F5
sVrelief;
p7690
F1
sVbrig
p7691
F5
sVweapons
p7692
F1
sVnorth-west
p7693
F3
sVrelief,
p7694
F1
sVnetting,
p7695
F2
sVbuckets
p7696
F2
sVshivered
p7697
F2
sVenglishman.
p7698
F1
sVfearless
p7699
F1
sVinseparable
p7700
F1
sValluding?
p7701
F1
sVwhereof,
p7702
F1
sVcome
p7703
F19
sVway;
p7704
F1
sVembarkation
p7705
F1
sVregion
p7706
F1
sVquiet
p7707
F1
sVcontract
p7708
F1
sVenergies
p7709
F1
sV1869.--it
p7710
F1
sVway.
p7711
F2
sVway,
p7712
F5
sVsurface.
p7713
F1
sVsurface,
p7714
F2
sVduty
p7715
F4
sVandre;
p7716
F1
sVafterwards
p7717
F10
sVperiod
p7718
F4
sVsatisfaction
p7719
F2
sV17th.--when
p7720
F1
sVcolon
p7721
F1
sVandre,
p7722
F12
sVandre"
p7723
F1
sVfirmly.
p7724
F1
sVshriek,
p7725
F1
sVraft.
p7726
F26
sVintact;
p7727
F1
sVdeposited
p7728
F3
sVraft,
p7729
F42
sVcords
p7730
F5
sVhardly
p7731
F12
sVintact.
p7732
F1
sVengine
p7733
F1
sVdirection
p7734
F10
sVblessing
p7735
F1
sVdeliverance,
p7736
F1
sVimplored
p7737
F1
sVmocking
p7738
F1
sVmatter?"
p7739
F1
sVcareful
p7740
F2
sVspirit
p7741
F1
sVcase
p7742
F15
sVmyself
p7743
F36
sVmount
p7744
F3
sVdisappeared,
p7745
F5
sVcask
p7746
F2
sVcast
p7747
F13
sVlife.
p7748
F3
sVshrieks
p7749
F2
sVlife,
p7750
F6
sVconductor.
p7751
F1
sVcontrive
p7752
F1
sVperson,
p7753
F1
sVbrother.
p7754
F1
sVimpossibility,
p7755
F1
sVsides.
p7756
F1
sVsides,
p7757
F1
sVfingal
p7758
F1
sVshore!"
p7759
F1
sVreminded
p7760
F1
sVnorthwards,
p7761
F1
sVbermuda
p7762
F1
sVagitated
p7763
F3
sVa.m.
p7764
F1
sVconstriction
p7765
F1
sVevents
p7766
F2
sVweek
p7767
F2
sVmockery
p7768
F1
sVdrives
p7769
F1
sVmuffled
p7770
F1
sVdriven
p7771
F6
sVpersons
p7772
F1
sVdelicate
p7773
F1
sV"something
p7774
F1
sVoutstretched
p7775
F1
sVlonging
p7776
F5
sVweakened
p7777
F2
sVclose.
p7778
F1
sVcaressing
p7779
F1
sVwithout
p7780
F47
sVrelief
p7781
F5
sVrelied
p7782
F1
sVtermination
p7783
F1
sVtruth,"
p7784
F2
sVbow;
p7785
F1
sVwhereas
p7786
F1
sVbodies
p7787
F3
sVjustify
p7788
F1
sVforestay;
p7789
F1
sVseventy-two
p7790
F1
sVgusts,
p7791
F1
sVguided
p7792
F1
sVmasts!"
p7793
F1
sVninth
p7794
F1
sVrisking
p7795
F1
sVlavish
p7796
F1
sVviolent
p7797
F10
sVcease
p7798
F2
sVhe'll
p7799
F1
sVperilous
p7800
F1
sVcaptured
p7801
F1
sVblow
p7802
F7
sVannouncement
p7803
F1
sVpossible.
p7804
F1
sVpassage,
p7805
F2
sVpossible,
p7806
F1
sVseems
p7807
F19
sVexcept
p7808
F12
sVlets
p7809
F1
sVrosy
p7810
F1
sVplease,"
p7811
F2
sVflashing
p7812
F2
sVevasive
p7813
F1
sVforestays
p7814
F1
sVaction,
p7815
F1
sVaction.
p7816
F2
sVprey,
p7817
F1
sVconfined
p7818
F1
sVaccepted
p7819
F3
sVacute
p7820
F1
sVstandstill
p7821
F1
sVunlooked-for
p7822
F1
sVgiddiness,
p7823
F1
sVstrictly
p7824
F2
sVtowed
p7825
F1
sVnumbers,
p7826
F1
sVdistinguished,
p7827
F1
sVseem,
p7828
F4
sVbiscuit.
p7829
F4
sValways
p7830
F17
sVwoman,
p7831
F1
sVrecalls
p7832
F1
sVreduced
p7833
F11
sVvain.
p7834
F2
sVvain,
p7835
F3
sVshrouds.
p7836
F1
sVshrouds,
p7837
F8
sVvain!
p7838
F1
sVroyal.
p7839
F1
sVvain;
p7840
F4
sVevade
p7841
F1
sVcail.
p7842
F1
sVrespect
p7843
F1
sVfoot.
p7844
F1
sV"haven't
p7845
F1
sVprovided
p7846
F1
sVprolific
p7847
F1
sVhighest
p7848
F5
sVmoon
p7849
F11
sVnorth-easter
p7850
F1
sVthree-fourths
p7851
F1
sVliquid
p7852
F2
sVnails
p7853
F3
sVcommunicate
p7854
F1
sVroyals
p7855
F2
sVvoracious
p7856
F3
sVterrified
p7857
F1
sVburden.
p7858
F1
sVburden,
p7859
F2
sV'the
p7860
F1
sVon
p7861
F288
sVsounding-lines,
p7862
F1
sVoh
p7863
F1
sVof
p7864
F1661
sVinviting
p7865
F1
sVinforming
p7866
F1
sVaddition
p7867
F6
sVwhence
p7868
F2
sVstand
p7869
F5
sVsevere,
p7870
F1
sVor
p7871
F98
sVladies
p7872
F3
sVinstruments
p7873
F3
sVrising
p7874
F7
sVbegged
p7875
F1
sVfooting,
p7876
F1
sVhurricanes.
p7877
F1
sVsatisfied.
p7878
F1
sVcaptain?"
p7879
F1
sVthere
p7880
F129
sVhazards
p7881
F1
sValleged
p7882
F1
sVstrict
p7883
F4
sVtemperament,
p7884
F1
sVsummit.
p7885
F1
sV1869,
p7886
F1
sVmischief
p7887
F3
sVbaggage,
p7888
F1
sVtroubles.
p7889
F1
sVamongst
p7890
F16
sVit?"
p7891
F3
sVstupour
p7892
F1
sVrays
p7893
F2
sV"what's
p7894
F3
sVskies.
p7895
F1
sVrouse
p7896
F1
sVdeed!
p7897
F2
sVfaster
p7898
F1
sVwhale;
p7899
F1
sVown?
p7900
F1
sV"it's
p7901
F3
sVgrasp
p7902
F1
sVtaste
p7903
F2
sVsquare-rigged
p7904
F1
sVwords,
p7905
F6
sVhearts,
p7906
F1
sVabyss
p7907
F1
sVtransport,
p7908
F1
sVpicrate;
p7909
F1
sVdiscerned
p7910
F2
sVpicrate?
p7911
F1
sVpicrate!
p7912
F1
sV5
F3
sVreally
p7913
F15
sVbutchery
p7914
F1
sVpicrate,
p7915
F3
sVbriefly
p7916
F1
sVembattled
p7917
F1
sVmouthfuls,
p7918
F1
sVself-apparent,
p7919
F1
sVincludes
p7920
F1
sVbounded
p7921
F3
sVprotrude,
p7922
F1
sVfasten
p7923
F1
sVsemicircle
p7924
F1
sVwife
p7925
F2
sVunmitigated
p7926
F1
sVunscathed
p7927
F1
sVall
p7928
F265
sVlace
p7929
F1
sVlack
p7930
F1
sVson,
p7931
F6
sVson.
p7932
F5
sVhatteras
p7933
F1
sVcontortions,
p7934
F1
sVfollow
p7935
F6
sVson:
p7936
F1
sVson;
p7937
F1
sV"captain,
p7938
F1
sVremonstrating
p7939
F1
sVcatastrophe
p7940
F1
sVassuage
p7941
F2
sVremoval
p7942
F1
sVshipped,
p7943
F1
sVcrest
p7944
F3
sVvoid.
p7945
F1
sVbelonging
p7946
F4
sVdecision,
p7947
F1
sVworse
p7948
F2
sVextremity.
p7949
F1
sVfar
p7950
F47
sVspeak.
p7951
F1
sVcombustible
p7952
F1
sVladder.
p7953
F1
sVinduce
p7954
F4
sVworst
p7955
F1
sVounces,
p7956
F1
sVcheerfully.
p7957
F1
sVabandoned
p7958
F2
sVsubsistence,
p7959
F1
sVbolts.
p7960
F1
sVlist
p7961
F3
sVprolonged
p7962
F1
sVsingularly
p7963
F2
sVundone
p7964
F2
sVleave."
p7965
F1
sVsay,"
p7966
F3
sVowner.
p7967
F1
sVjoists
p7968
F1
sVknow--"
p7969
F1
sVdirection.
p7970
F3
sVten
p7971
F17
sVdirection,
p7972
F2
sV"his!"
p7973
F1
sVbreakers
p7974
F2
sVshould,
p7975
F1
sVrate
p7976
F4
sVdesign
p7977
F1
sVxliii.
p7978
F1
sVblue,
p7979
F1
sVupheaved
p7980
F1
sVnecessary,
p7981
F1
sVwhat
p7982
F110
sVnecessary.
p7983
F2
sVallow;
p7984
F1
sVcalmly,
p7985
F1
sV16deg.
p7986
F1
sVsum
p7987
F2
sVrascal
p7988
F2
sVbrief
p7989
F3
sVallow.
p7990
F1
sVfathoms
p7991
F2
sVdevoted
p7992
F5
sVchristian
p7993
F1
sVdistressing;
p7994
F1
sVowns
p7995
F1
sVwhen,
p7996
F2
sVcompass,
p7997
F2
sVrelaxation
p7998
F1
sVdirections
p7999
F1
sVobserving
p8000
F3
sVtragedy
p8001
F1
sVself-possession.
p8002
F1
sVdifficulty
p8003
F8
sVattitude.
p8004
F1
sVpreventing
p8005
F1
sVoff."
p8006
F1
sVmust,
p8007
F1
sVassistants,
p8008
F1
sVscowling
p8009
F1
sVsuddenly
p8010
F5
sVdraught,
p8011
F1
sVknow;
p8012
F2
sVreaping
p8013
F1
sVfearfully
p8014
F1
sVknow"
p8015
F1
sVappliances
p8016
F1
sVknow.
p8017
F2
sVknow,
p8018
F6
sVproceed
p8019
F2
sValways,
p8020
F1
sVbeginning
p8021
F4
sVall,"
p8022
F1
sVtarpaulin
p8023
F1
sVthirteen.
p8024
F1
sVpervaded
p8025
F3
sVone?"
p8026
F2
sVseamen--who
p8027
F1
sVhurrah
p8028
F1
sVoccur.
p8029
F1
sVwretched
p8030
F1
sVflap
p8031
F1
sVstatue-like
p8032
F1
sVcrested
p8033
F1
sVflag
p8034
F3
sVstick
p8035
F3
sVknown
p8036
F7
sVglad
p8037
F4
sVpresumed
p8038
F1
sVberth
p8039
F1
sVcloud,
p8040
F2
sVgranite,"
p8041
F1
sVself-sacrifice
p8042
F1
sVsincerely,
p8043
F1
sVplea
p8044
F1
sVhusband,
p8045
F1
sVprisms;
p8046
F1
sVwhatever,"
p8047
F1
sVarise
p8048
F1
sVundeniably,
p8049
F1
sVswung
p8050
F3
sVrather
p8051
F13
sVbreaking
p8052
F3
sVarchipelago,
p8053
F2
sVoccasionally
p8054
F5
sVantidote;
p8055
F1
sVconsignees
p8056
F1
sVextinguished
p8057
F1
sVtalks,
p8058
F2
sVhers.
p8059
F1
sVxlv.
p8060
F1
sVquinine;
p8061
F1
sVhoisting
p8062
F1
sVshrivelling
p8063
F1
sVinflammable
p8064
F1
sVindomitable
p8065
F2
sVboatswain's
p8066
F4
sVexplain.
p8067
F1
sVshort
p8068
F15
sVdeparture
p8069
F2
sVshore
p8070
F4
sVexplain;
p8071
F1
sVshade
p8072
F1
sVstop,"
p8073
F1
sVmusic,
p8074
F1
sV"in
p8075
F1
sV"il
p8076
F1
sVwould,
p8077
F4
sVmagnanimity
p8078
F1
sVdon't
p8079
F18
sV"if
p8080
F2
sVtissues,
p8081
F1
sVunaccountable.
p8082
F1
sVthese,
p8083
F3
sVdundee,
p8084
F2
sVconcentric
p8085
F1
sV"is
p8086
F5
sVrooted
p8087
F1
sVforwards
p8088
F1
sVpray
p8089
F1
sVfearful.
p8090
F1
sVstrange
p8091
F10
sVnazaire,"
p8092
F1
sVpartitions
p8093
F2
sVmight
p8094
F67
sVtruth."
p8095
F1
sV"i,
p8096
F1
sVreturn
p8097
F6
sVlittle.
p8098
F1
sVlittle,
p8099
F3
sVframework
p8100
F4
sVgauge,
p8101
F1
sVinstructions
p8102
F1
sVpreparations,
p8103
F1
sVbest,
p8104
F1
sVbunged,
p8105
F1
sVrefresh
p8106
F1
sVmastered
p8107
F1
sVstroked
p8108
F1
sV12th
p8109
F1
sVoldish
p8110
F1
sVintolerable
p8111
F1
sVweight
p8112
F1
sVneedless
p8113
F1
sVflames.
p8114
F5
sVflames,
p8115
F3
sVexpect
p8116
F4
sVundertake
p8117
F2
sVnature's
p8118
F1
sV"yet
p8119
F1
sVwondered
p8120
F1
sVclandestine
p8121
F1
sVhydraulic
p8122
F1
sVhealth
p8123
F3
sVdying
p8124
F5
sVnothing,"
p8125
F1
sVimpracticable,
p8126
F1
sVinduced
p8127
F4
sV"bronsfield
p8128
F1
sVmadman;
p8129
F1
sVshameful!"
p8130
F1
sVforgive
p8131
F1
sVmadman,
p8132
F1
sVthrown
p8133
F10
sVlinen;
p8134
F1
sVthread
p8135
F1
sVselling,
p8136
F1
sVsuccess
p8137
F3
sVyear's
p8138
F2
sVsantorini,
p8139
F1
sVtwenty
p8140
F11
sVconsequence
p8141
F1
sVbuoys;
p8142
F1
sVfallen
p8143
F9
sVfeed
p8144
F1
sVrelaxed.
p8145
F1
sVexplode.
p8146
F1
sVconsiderably.
p8147
F2
sVconsiderably,
p8148
F1
sVblush
p8149
F1
sVfeel
p8150
F9
sVrelate
p8151
F1
sVfancy
p8152
F3
sVfeet
p8153
F31
sVsympathy
p8154
F1
sVsailor
p8155
F2
sVdint
p8156
F1
sVleast
p8157
F17
sVslower
p8158
F1
sVnorth-east
p8159
F4
sVpasses
p8160
F2
sVbreathless
p8161
F2
sVtemperature
p8162
F7
sVdowlas.
p8163
F3
sVrisk,
p8164
F1
sVgurgled
p8165
F1
sVhangs
p8166
F1
sVdowlas;
p8167
F1
sVpoints,
p8168
F1
sVlongboats
p8169
F1
sVgrimy
p8170
F1
sVproperty,
p8171
F1
sVrecovered
p8172
F3
sVrepairs;
p8173
F1
sVday-time
p8174
F2
sVasked,--"how
p8175
F1
sVrelieved
p8176
F5
sVuncommonly
p8177
F1
sVdiscover
p8178
F2
sVimmediately.
p8179
F4
sVimmediately,
p8180
F1
sVconvinced
p8181
F6
sVkind
p8182
F14
sVdouble
p8183
F2
sVcoast,
p8184
F1
sVdoubly
p8185
F1
sVcoast.
p8186
F3
sVharbour,
p8187
F1
sVtongues
p8188
F1
sVsearch.
p8189
F1
sVseason,
p8190
F1
sVsearch,
p8191
F2
sVstrengthen
p8192
F1
sVwell
p8193
F20
sVsuspicious
p8194
F1
sVmean?"
p8195
F2
sVgale
p8196
F3
sValike
p8197
F2
sVmeasure.
p8198
F1
sVdislodging
p8199
F1
sVhopelessly
p8200
F1
sVnights
p8201
F2
sVinterferes
p8202
F1
sVcripple.
p8203
F1
sVmoist
p8204
F1
sVthree-master,
p8205
F2
sVfinding
p8206
F4
sVfreshened
p8207
F4
sVlots?"
p8208
F1
sVadded
p8209
F2
sVelectric
p8210
F4
sVwarnings
p8211
F1
sVintervened
p8212
F1
sVlavished
p8213
F1
sVinconvenience
p8214
F2
sVreach
p8215
F10
sVnot.
p8216
F1
sVshares.
p8217
F2
sVimport.
p8218
F1
sVnothing
p8219
F41
sVpicrate!"
p8220
F2
sVuniform,
p8221
F1
sVtongue,
p8222
F1
sVunbearable.
p8223
F2
sVunbearable,
p8224
F1
sVwindows
p8225
F2
sVrubbish-heap,
p8226
F1
sVdissolved
p8227
F1
sVrepeated.
p8228
F1
sVundulations
p8229
F2
sVcoincided
p8230
F1
sVnight,
p8231
F10
sVnight.
p8232
F6
sVdaily,
p8233
F1
sVbeard,
p8234
F1
sVdeformed,
p8235
F1
sVbeard.
p8236
F1
sVto-day,
p8237
F11
sVto-day.
p8238
F3
sVfurnace,
p8239
F3
sVlarge
p8240
F12
sVreef,--and
p8241
F1
sVprison-doors
p8242
F1
sVtrouble,"
p8243
F1
sVinquired.
p8244
F3
sVaggravate
p8245
F1
sVdeserts
p8246
F1
sVsecuring
p8247
F2
sVgrazed
p8248
F1
sVabiding
p8249
F1
sVisland,"
p8250
F1
sVembrace.
p8251
F1
sVhis
p8252
F460
sVmeditations
p8253
F1
sVassumed
p8254
F1
sVhid
p8255
F2
sVflame,
p8256
F1
sVgeorge's
p8257
F1
sVshreds.
p8258
F1
sVhim
p8259
F119
sVstone,
p8260
F1
sVwhisky,
p8261
F1
sVkeenest
p8262
F1
sVsources
p8263
F1
sVafraid."
p8264
F1
sVserene;
p8265
F1
sVrecollection
p8266
F2
sVwill,"
p8267
F1
sVtill,
p8268
F1
sVearnestness,
p8269
F1
sVship."
p8270
F2
sVtenderness.
p8271
F1
sVprecaution
p8272
F6
sVrelentless
p8273
F3
sVwrote
p8274
F2
sVfishing
p8275
F1
sVcity,
p8276
F1
sVinvectives
p8277
F1
sVrare,
p8278
F1
sVarrives
p8279
F1
sVbare
p8280
F3
sVare
p8281
F163
sVcleverly
p8282
F1
sVarm
p8283
F5
sVrare;
p8284
F1
sV26th.--all
p8285
F1
sVyouth
p8286
F1
sVfind,
p8287
F1
sVmechanically
p8288
F1
sVadvanced,
p8289
F1
sVadvanced!
p8290
F1
sVreads,
p8291
F1
sVdrooping
p8292
F1
sVvarious
p8293
F4
sV"yes!
p8294
F1
sV"yes,
p8295
F12
sVother's
p8296
F3
sVnumerous
p8297
F1
sV"that
p8298
F16
sVdays?
p8299
F1
sVvoracity.
p8300
F1
sVwater-logged
p8301
F2
sVdays;
p8302
F1
sVbar;
p8303
F1
sVsole
p8304
F3
sVdays.
p8305
F3
sVdays,
p8306
F5
sVdisturbance
p8307
F2
sVfatality
p8308
F2
sVhead.
p8309
F4
sVbetrayed
p8310
F3
sVdays'
p8311
F2
sVbone
p8312
F1
sVbar.
p8313
F1
sVcargo."
p8314
F1
sVfuss,"
p8315
F1
sVinterrogate
p8316
F1
sVbecame
p8317
F17
sVhowever,
p8318
F42
sVbond
p8319
F1
sVfinds
p8320
F1
sVlearn.
p8321
F1
sVago!"
p8322
F1
sVknew,
p8323
F2
sVdistress
p8324
F1
sVreasons
p8325
F1
sVimpeded.
p8326
F1
sVrave
p8327
F1
sVengineer,
p8328
F3
sVstartling
p8329
F4
sVengineer.
p8330
F2
sVoverlook
p8331
F1
sVillumined
p8332
F2
sVegotist,
p8333
F1
sVsurely,
p8334
F1
sVwhom
p8335
F11
sVthem,"
p8336
F1
sVtwenty-eight
p8337
F1
sVwoke
p8338
F1
sVflight
p8339
F1
sVlatterly
p8340
F1
sVprecision
p8341
F2
sVreason.
p8342
F1
sVdemand
p8343
F1
sVstowed
p8344
F2
sVplants
p8345
F1
sVstolen
p8346
F2
sVboast
p8347
F1
sVlips.
p8348
F7
sVlips,
p8349
F12
sV5min.
p8350
F1
sVwho,
p8351
F11
sVlips;
p8352
F3
sVwater-line
p8353
F1
sVwhere,
p8354
F2
sVlasted,
p8355
F1
sVecstasy
p8356
F2
sVrim
p8357
F1
sVfrantic
p8358
F5
sVlodged
p8359
F1
sVrid
p8360
F3
sVcurrents
p8361
F1
sVscupper-holes.
p8362
F1
sVaway.
p8363
F8
sVaway,
p8364
F11
sVlengths
p8365
F1
sVaway?
p8366
F1
sVunexpressive."
p8367
F1
sVaway;
p8368
F3
sVadvise
p8369
F1
sVhigher
p8370
F3
sVcurrent,
p8371
F1
sVcurrent.
p8372
F1
sVrestraint
p8373
F1
sVflows
p8374
F1
sVmoving
p8375
F1
sVlength;
p8376
F1
sVlower
p8377
F5
sVoverwhelming.
p8378
F1
sVdimensions.
p8379
F1
sVdared
p8380
F4
sVbacon,
p8381
F1
sVedge
p8382
F3
sVlength.
p8383
F4
sVstarboard,
p8384
F1
sVlength,
p8385
F6
sVdares
p8386
F1
sVhomeward
p8387
F2
sVendeavour
p8388
F3
sVplaces.
p8389
F3
sVplaces,
p8390
F3
sVinclusive,
p8391
F1
sVantilles;
p8392
F1
sVintervals
p8393
F3
sVfelt,
p8394
F2
sVconstitution,
p8395
F1
sVantilles.
p8396
F1
sVcontinent
p8397
F2
sVcase,
p8398
F4
sV"but
p8399
F30
sVdrift,
p8400
F2
sVcase.
p8401
F4
sVshape.
p8402
F1
sVspeedily
p8403
F2
sVmurmured,
p8404
F1
sValmanac,
p8405
F1
sVtormented
p8406
F1
sVassociations
p8407
F1
sVcomplaint
p8408
F1
sVconstitutions
p8409
F1
sVquestion,
p8410
F2
sVquestion.
p8411
F1
sVentangled
p8412
F1
sVquestion;
p8413
F1
sVtent."
p8414
F1
sVgale;"
p8415
F1
sVconfront
p8416
F1
sVfore-top;
p8417
F1
sVillusion;
p8418
F1
sVdistinctly,
p8419
F1
sVcollect
p8420
F1
sVunstable
p8421
F1
sVentice
p8422
F1
sVunendurable
p8423
F2
sVtable.
p8424
F1
sVby-and-by.
p8425
F1
sVrefuse;
p8426
F1
sVstreaming
p8427
F1
sV"we
p8428
F12
sVheavily-laden
p8429
F1
sVloftiest
p8430
F1
sVsinister-looking
p8431
F1
sVgradually
p8432
F6
sV"my
p8433
F10
sVquenched;
p8434
F1
sVcrisis
p8435
F1
sVfragments
p8436
F3
sVdescried
p8437
F1
sVbelow."
p8438
F1
sV"chancellor."
p8439
F5
sVrefused
p8440
F4
sVhim!"
p8441
F1
sVrefuses
p8442
F1
sVmates,
p8443
F1
sVintense
p8444
F3
sVcautious
p8445
F1
sVmingled
p8446
F1
sVage.
p8447
F2
sVfeet?
p8448
F1
sVfrightful
p8449
F8
sVyou."
p8450
F1
sVrange
p8451
F1
sVawoke,
p8452
F1
sVhere."
p8453
F1
sVground-plan,
p8454
F1
sV"andre
p8455
F1
sVsignificant
p8456
F2
sVattached,
p8457
F1
sVelasticity
p8458
F1
sV"say
p8459
F1
sVdrifted
p8460
F6
sVmountain.
p8461
F1
sVimpressed
p8462
F1
sVwhims
p8463
F1
sVtumult.
p8464
F1
sVtumult,
p8465
F1
sVquestion
p8466
F9
sVamidst
p8467
F2
sVcreaked
p8468
F1
sVnothing."
p8469
F1
sVonce,"
p8470
F1
sVpast;
p8471
F1
sVmountains
p8472
F1
sVplunge
p8473
F1
sVphenomena
p8474
F1
sVsolidity
p8475
F1
sVrepeatedly
p8476
F1
sVhavre.
p8477
F1
sVupright
p8478
F1
sVhammer.
p8479
F3
sVraising
p8480
F2
sVsection,
p8481
F1
sVix.
p8482
F1
sVcharacteristic
p8483
F3
sVhasn't
p8484
F1
sVjournal.
p8485
F1
sVtoday
p8486
F1
sVfifteen.
p8487
F1
sVcalled
p8488
F9
sVdiameter,
p8489
F1
sVsometimes
p8490
F8
sVassociated
p8491
F1
sVbreast;
p8492
F1
sVdismay
p8493
F1
sVgales,
p8494
F1
sVproblem.
p8495
F1
sVpreserved,
p8496
F1
sVwarning
p8497
F5
sVflaypole
p8498
F7
sVrally
p8499
F1
sVknowledge,
p8500
F1
sVendurance
p8501
F1
sVmalicious
p8502
F1
sVbacks
p8503
F3
sVseething
p8504
F1
sVweight;
p8505
F1
sVjynxstrop
p8506
F11
sV"stop,"
p8507
F1
sVundertone,
p8508
F1
sVwondering;
p8509
F1
sVundertone.
p8510
F3
sVthirty-two
p8511
F1
sVmeaning
p8512
F1
sVallowing
p8513
F2
sV"sargasso,"
p8514
F1
sV"hark!"
p8515
F1
sVback?
p8516
F1
sVsuffers
p8517
F2
sVweaker,
p8518
F1
sVremit
p8519
F1
sVreproaches
p8520
F1
sVrain,
p8521
F1
sVonce
p8522
F47
sVfilled,
p8523
F1
sVinsolently,
p8524
F1
sVgin,
p8525
F2
sVissued
p8526
F3
sVresistance
p8527
F2
sVdispel
p8528
F1
sVwinds
p8529
F1
sVdiscordant
p8530
F1
sVissues
p8531
F1
sVstop,
p8532
F1
sVsecured,"
p8533
F1
sVpeering
p8534
F1
sVme,"
p8535
F1
sVgory
p8536
F1
sVseized
p8537
F11
sVwind.
p8538
F4
sVwind,
p8539
F17
sVfailed.
p8540
F1
sVwind;
p8541
F2
sVseizes
p8542
F1
sVpotash.
p8543
F1
sVpotash,
p8544
F1
sVpotash"
p8545
F1
sVdrinking
p8546
F3
sVxxi.
p8547
F1
sVincoherent
p8548
F1
sVinquiringly.
p8549
F1
sVquietly.
p8550
F1
sVnotes
p8551
F1
sVquietly,
p8552
F1
sVtide-receded
p8553
F1
sVweek's
p8554
F1
sVmanifestly
p8555
F1
sVpoles,
p8556
F1
sVn.,
p8557
F2
sVyou'd
p8558
F1
sVfolds
p8559
F2
sVwrestling
p8560
F2
sVsensation
p8561
F4
sVhawsers
p8562
F1
sVmeans.
p8563
F1
sVacid
p8564
F1
sVfurled,
p8565
F1
sVobservations."
p8566
F1
sVman's
p8567
F2
sVimagine."
p8568
F1
sVwaiting
p8569
F2
sVshade,
p8570
F1
sVtight,"
p8571
F1
sVrenders
p8572
F2
sVdegree
p8573
F4
sVfreshening
p8574
F3
sVexplore
p8575
F2
sVtoil.
p8576
F1
sVsurvivor
p8577
F2
sVdistressed
p8578
F1
sVlaughter
p8579
F3
sVlarger
p8580
F1
sVleaving
p8581
F4
sVoverturned,
p8582
F1
sVsubmerged
p8583
F1
sVround,
p8584
F1
sVsquall!"
p8585
F1
sVdetect,
p8586
F1
sVuse
p8587
F11
sV"stop,
p8588
F2
sVfigure
p8589
F1
sV"stop!
p8590
F1
sVgerm
p8591
F1
sVfew
p8592
F62
sVpurport;
p8593
F1
sVexamination
p8594
F1
sVfresh,
p8595
F1
sVkept,
p8596
F1
sVsun's
p8597
F2
sVpossession
p8598
F10
sVgrandest
p8599
F1
sVshove,
p8600
F1
sVhard,
p8601
F1
sVhard.
p8602
F1
sVinclined
p8603
F7
sVwrecks.
p8604
F1
sVwomen
p8605
F1
sVice!
p8606
F1
sVfro,
p8607
F3
sVus!
p8608
F2
sVus.
p8609
F11
sVarms!"
p8610
F2
sVus,
p8611
F24
sVhimself,
p8612
F10
sVanywhere
p8613
F1
sVfreedom
p8614
F1
sVus?
p8615
F2
sVus;
p8616
F7
sVhimself.
p8617
F5
sVperformed
p8618
F2
sVordained
p8619
F1
sV"from
p8620
F1
sVtap
p8621
F1
sVhalf,
p8622
F2
sVheaving
p8623
F1
sVimpeded
p8624
F2
sVrecklessly
p8625
F1
sVunited
p8626
F5
sVsit
p8627
F3
sVsix
p8628
F10
sVcarries
p8629
F2
sVfortunate
p8630
F2
sVdisseverment
p8631
F1
sVlabours;
p8632
F1
sVinstead
p8633
F7
sVstruggled
p8634
F1
sVsweat
p8635
F2
sVtuberculous
p8636
F1
sVtension
p8637
F2
sVremedy?
p8638
F1
sVimmersed
p8639
F1
sVhazard
p8640
F1
sVextinguished,
p8641
F3
sVthirst.
p8642
F5
sVextinguished.
p8643
F2
sVproductive
p8644
F1
sVremedy,
p8645
F1
sVboys,"
p8646
F1
sVhastily.
p8647
F1
sVmoving.
p8648
F1
sVreadiness
p8649
F1
sVlight
p8650
F7
sVarduous
p8651
F1
sVinterrupted
p8652
F1
sVsandon,
p8653
F5
sVsandon.
p8654
F1
sVsupplication
p8655
F1
sVswollen,
p8656
F1
sVcrawling
p8657
F3
sVmine!
p8658
F1
sVmentioned,
p8659
F1
sVlive."
p8660
F1
sVaffection,
p8661
F1
sVperishing
p8662
F2
sVcoolly
p8663
F1
sVtropics
p8664
F1
sVweeks,
p8665
F1
sVdrop."
p8666
F1
sVwhilst
p8667
F26
sVsaturates
p8668
F1
sVlooks
p8669
F9
sVcovered.
p8670
F1
sVgloriously,
p8671
F1
sVsuperior
p8672
F2
sVheavily,
p8673
F1
sVappurtenances.
p8674
F1
sVships
p8675
F1
sVxlix.
p8676
F1
sVrestrain
p8677
F1
sVcovered
p8678
F9
sVcrowds
p8679
F1
sVworld,
p8680
F1
sVcrash
p8681
F2
sVlook.
p8682
F1
sVlook,
p8683
F1
sVmaterial
p8684
F2
sVeddying
p8685
F2
sVflew
p8686
F2
sVgaping
p8687
F1
sVarticles
p8688
F2
sVspeaks
p8689
F1
sVship;
p8690
F3
sVoverhead."
p8691
F1
sVprofound
p8692
F3
sVyesterday,
p8693
F1
sVtrimmed
p8694
F3
sVship,
p8695
F18
sVwretch!
p8696
F2
sVmates.
p8697
F1
sVship!
p8698
F2
sVcomposition,
p8699
F1
sVindulges
p8700
F1
sV1st.--here
p8701
F1
sVa-light
p8702
F1
sVour
p8703
F305
sVindulged
p8704
F1
sVout
p8705
F69
sVorphans.
p8706
F1
sVsoutherly
p8707
F1
sVcerebral
p8708
F1
sVsufficed
p8709
F2
sVlatitude,
p8710
F1
sVbattery-quay;
p8711
F1
sVattentively
p8712
F3
sVsacrifice
p8713
F1
sVcotton,
p8714
F3
sVrelate,
p8715
F1
sVpours
p8716
F1
sVprostration.
p8717
F1
sVprostration,
p8718
F1
sVyork
p8719
F3
sVimpatience
p8720
F2
sVrepairing
p8721
F2
sVovertake
p8722
F1
sV8th.--all
p8723
F1
sVlatitudes
p8724
F2
sVobstruction,
p8725
F2
sVconversation
p8726
F12
sVleather,
p8727
F1
sVrespect,
p8728
F1
sVtimbers
p8729
F1
sV"no!
p8730
F1
sV*
F4
sVplainly
p8731
F6
sVsickness.
p8732
F1
sVhitherto
p8733
F4
sVlistless
p8734
F1
sVcalled,
p8735
F2
sVenough;
p8736
F1
sVunknown
p8737
F2
sVmyself,"
p8738
F1
sVtheir
p8739
F147
sVenough)
p8740
F1
sVbehind.
p8741
F2
sV650
p8742
F1
sVenough,
p8743
F7
sVcurtis!"
p8744
F1
sVhearing,
p8745
F2
sV"chancellor,"
p8746
F10
sVdistinct,
p8747
F1
sVshelf
p8748
F1
sVdoomed
p8749
F4
sVgenuineness
p8750
F1
sVdestination;
p8751
F1
sVdiminish
p8752
F3
sVdilemma."
p8753
F1
sVsummoning
p8754
F1
sVabated;
p8755
F1
sVretreat.
p8756
F1
sVtherefore,
p8757
F1
sVseconds;
p8758
F1
sVabated,
p8759
F1
sVjoys?
p8760
F1
sVtwelve,
p8761
F1
sVunaccountable
p8762
F2
sV"that,"
p8763
F1
sV"well,
p8764
F6
sVwrithed
p8765
F1
sVmemory;
p8766
F1
sV11th
p8767
F2
sVscotchman
p8768
F1
sVunbearable
p8769
F1
sVafraid
p8770
F2
sVangle
p8771
F3
sVaft-quarters
p8772
F1
sVprismatic
p8773
F3
sVfire!"
p8774
F2
sVcomfortable.
p8775
F1
sVwhich
p8776
F220
sVo'ready
p8777
F2
sVdivert
p8778
F1
sV"four
p8779
F1
sVpermitting,
p8780
F1
sVcrept
p8781
F2
sVcombat
p8782
F1
sVcentre
p8783
F4
sVwho
p8784
F92
sVcomplaints,
p8785
F1
sVcomplaints.
p8786
F1
sVsuspected.
p8787
F1
sVsuspected,
p8788
F1
sVconsternation,
p8789
F1
sVwhy
p8790
F20
sVclasp
p8791
F1
sVbearings:
p8792
F1
sVdeny
p8793
F1
sVnight's
p8794
F1
sVpipe
p8795
F1
sV33min.
p8796
F1
sVsavageness
p8797
F1
sVeurope,
p8798
F1
sVeurope.
p8799
F2
sVensued
p8800
F1
sVchances
p8801
F5
sVword,
p8802
F2
sVstove
p8803
F1
sVword.
p8804
F5
sVone,
p8805
F7
sVcalculations.
p8806
F1
sVone.
p8807
F1
sVcalculations,
p8808
F1
sVpurely
p8809
F1
sVconsiderable,
p8810
F1
sVseaweed
p8811
F2
sVutter
p8812
F2
sVfear
p8813
F1
sVkazallon,
p8814
F9
sVchanced
p8815
F1
sVtrue,
p8816
F5
sVunanimously
p8817
F2
sVmany,
p8818
F1
sVi!"
p8819
F2
sVtrue;
p8820
F1
sVsteady!"
p8821
F1
sVbronsfield
p8822
F1
sVdistress.
p8823
F4
sVdistress,
p8824
F2
sVwatching
p8825
F5
sVsilas
p8826
F9
sVmassacre
p8827
F1
sVno!
p8828
F3
sVcircumstances,
p8829
F8
sVdistress;
p8830
F1
sVwords
p8831
F20
sVchance,
p8832
F2
sVpenetrate
p8833
F2
sVunlading.
p8834
F1
sVcontents.
p8835
F1
sVended
p8836
F3
sVprospect,
p8837
F1
sVascertain
p8838
F4
sVbiscuits,
p8839
F1
sVview
p8840
F3
sVavailable
p8841
F4
sVconversation,
p8842
F6
sVebb
p8843
F2
sVsea."
p8844
F1
sVcloser
p8845
F2
sVxxxv.
p8846
F1
sVground.
p8847
F1
sVbelow
p8848
F16
sVsolidity.
p8849
F1
sVrumblings
p8850
F1
sVclosed
p8851
F7
sVground;
p8852
F1
sVcommand,
p8853
F1
sVdaintiest
p8854
F1
sVcommand.
p8855
F1
sVduty."
p8856
F2
sVgutter,
p8857
F1
sVopening
p8858
F1
sVraft;
p8859
F9
sVideas.
p8860
F1
sVfather,"
p8861
F2
sVmisery."
p8862
F1
sVsonorous
p8863
F1
sVcommands
p8864
F1
sVpiece
p8865
F9
sVincessantly,
p8866
F1
sVincessantly.
p8867
F1
sVgrain
p8868
F1
sVsafely
p8869
F8
sVincessantly;
p8870
F1
sVtorments
p8871
F3
sVwall
p8872
F2
sVremonstrance,
p8873
F2
sVthat,"
p8874
F1
sVwalk
p8875
F4
sVcloudless,
p8876
F1
sVwretch's
p8877
F1
sVtable
p8878
F1
sVbutcher,
p8879
F1
sVflame?"
p8880
F1
sVpropitiously
p8881
F2
sVeach.
p8882
F1
sVtouched.
p8883
F1
sV"just
p8884
F2
sVbreathed.
p8885
F1
sVliverpool
p8886
F2
sVsufficient
p8887
F5
sVscrutiny
p8888
F1
sVnursing."
p8889
F1
sV"right,
p8890
F1
sVimproved
p8891
F1
sV"right!
p8892
F1
sVpresent
p8893
F16
sVinterstices
p8894
F2
sVchart;
p8895
F1
sVunlike
p8896
F1
sVfearful
p8897
F3
sVwill
p8898
F98
sVchart,
p8899
F2
sVwild
p8900
F1
sVwhirlpool
p8901
F1
sVlayer
p8902
F2
sVthus
p8903
F17
sVcompleted.
p8904
F1
sVgothic
p8905
F1
sVdried,
p8906
F1
sVdays."
p8907
F1
sVbrandished
p8908
F1
sVvisible;
p8909
F1
sVperhaps
p8910
F12
sVespecially,
p8911
F1
sVcross
p8912
F2
sVunite
p8913
F2
sVmember
p8914
F1
sVwasted,
p8915
F1
sVmerciful
p8916
F2
sVinch
p8917
F1
sVgets
p8918
F5
sVgrandeur
p8919
F1
sVdifficult
p8920
F5
sV"they
p8921
F2
sVrequisition.
p8922
F2
sV"then
p8923
F2
sVwhale
p8924
F1
sVknee,
p8925
F1
sVenglish
p8926
F8
sVunprepossessing
p8927
F1
sV26,000l.,
p8928
F1
sVbending
p8929
F1
sVexcessive
p8930
F1
sVcried
p8931
F8
sVheavily
p8932
F3
sVdense,
p8933
F2
sV"certainly
p8934
F1
sVobtain
p8935
F2
sVreplenish
p8936
F1
sVcries
p8937
F10
sVbatteries
p8938
F1
sVvolcanic
p8939
F3
sVcondescended
p8940
F1
sVhappiness
p8941
F2
sVnow
p8942
F87
sVconsole
p8943
F1
sVsupply
p8944
F8
sVsky
p8945
F11
sVcapabilities
p8946
F1
sVarresting
p8947
F1
sVhobart,
p8948
F2
sVhobart.
p8949
F1
sV3rd.--for
p8950
F1
sVearnestly
p8951
F1
sVneed,
p8952
F1
sVuseless,
p8953
F1
sVmid-air,
p8954
F1
sVcame.
p8955
F1
sVprovisions
p8956
F7
sVcame,
p8957
F1
sVfamine
p8958
F2
sVinterrogation
p8959
F1
sVknow
p8960
F41
sVpresume
p8961
F1
sVpress
p8962
F1
sVhollow
p8963
F3
sVsafest
p8964
F1
sVwears,
p8965
F1
sVperpetual
p8966
F1
sVloses
p8967
F1
sVfeigned
p8968
F1
sVxxxix.
p8969
F1
sVwonders
p8970
F2
sVexceed
p8971
F3
sVbecause
p8972
F6
sVmattresses
p8973
F1
sVsearching
p8974
F1
sVmelee
p8975
F1
sV"walter
p8976
F2
sVracking
p8977
F1
sVxliv.
p8978
F1
sV29th:--night.--the
p8979
F1
sVleaf
p8980
F1
sVlead
p8981
F2
sVleak
p8982
F5
sVmines
p8983
F1
sV14th
p8984
F1
sValgae;
p8985
F1
sVpoets
p8986
F3
sVobey
p8987
F2
sVparry
p8988
F1
sVplatform.
p8989
F1
sVplatform,
p8990
F6
sVmurdered
p8991
F1
sVconveyed
p8992
F4
sVplatform;
p8993
F1
sVrare
p8994
F1
sVcarried
p8995
F32
sVgetting
p8996
F6
sVcolumn
p8997
F2
sVbiscuit
p8998
F12
sVherbey?"
p8999
F1
sVurged
p9000
F2
sVsurge
p9001
F1
sVmine,
p9002
F3
sVsighting
p9003
F1
sVmeteorologists
p9004
F1
sVhimself;
p9005
F1
sVown
p9006
F26
sVowe
p9007
F1
sVweather
p9008
F13
sVpromise
p9009
F4
sValongside,
p9010
F2
sVcotton.
p9011
F3
sVfawning
p9012
F1
sVmad.
p9013
F2
sVtransfer
p9014
F1
sVmad,
p9015
F2
sVsupport
p9016
F7
sVfaithfully
p9017
F1
sVintention
p9018
F2
sVdropping
p9019
F1
sVcotton;
p9020
F1
sVlv.
p9021
F1
sVmouth.
p9022
F1
sVsail-cloth,
p9023
F2
sVnorth-east;
p9024
F1
sVbearings,
p9025
F1
sVi've
p9026
F2
sVtinged
p9027
F1
sVmutter
p9028
F1
sVvolume
p9029
F1
sVnorth-east,
p9030
F2
sVnorth-east.
p9031
F3
sVmade
p9032
F81
sVcaptain;
p9033
F2
sVwhether
p9034
F34
sVattempt.
p9035
F1
sVthis,
p9036
F6
sVcaptain,
p9037
F16
sVrecord
p9038
F1
sVcaptain.
p9039
F2
sVacquaintanceships;
p9040
F1
sVcaptain!
p9041
F1
sVreserved,
p9042
F1
sVeagerness
p9043
F1
sVinadequate
p9044
F4
sVgnawing
p9045
F4
sVmutual
p9046
F1
sVincredible
p9047
F5
sVmyself."
p9048
F1
sVportion
p9049
F11
sVother
p9050
F34
sVsick
p9051
F1
sVsneer,--
p9052
F1
sVafther
p9053
F1
sVconclusion
p9054
F4
sVabyss.
p9055
F1
sVabyss,
p9056
F1
sVpumps
p9057
F9
sVupwards
p9058
F5
sVclick,
p9059
F2
sVspeaks,"
p9060
F1
sVentirely;
p9061
F1
sVinsipid
p9062
F1
sVcould,
p9063
F6
sVentirely,
p9064
F1
sVnortherly
p9065
F1
sVvolumes
p9066
F1
sVwater-cask,
p9067
F1
s.