ccollections
defaultdict
p1
(c__builtin__
float
p2
tRp3
Vbreadth
p4
F2
sVall
p5
F28
sVpeach-coloured
p6
F1
sVhem,
p7
F1
sVhands,
p8
F1
sVkyloe
p9
F1
sV"miaw-ger-r-w-s-s-ch!"
p10
F1
sVyellow
p11
F2
sVfour
p12
F1
sVhath
p13
F1
sVsleep
p14
F1
sVlattice.
p15
F1
sVmoonlight;
p16
F1
sVwriting--
p17
F1
sV(which
p18
F1
sVcupboards
p19
F1
sVthimbles,
p20
F1
sVup,
p21
F1
sVsnail,
p22
F1
sVcherry-coloured
p23
F11
sVlining
p24
F1
sVpeering
p25
F1
sV_author
p26
F1
sVtrudging
p27
F1
sVgloucester;
p28
F2
sVto
p29
F37
sVflowered
p30
F1
sVgloucester!
p31
F1
sVunder
p32
F9
sVgloucester,
p33
F7
sVgloucester.
p34
F7
sVmumbling
p35
F1
sVbrown
p36
F3
sVtailors,
p37
F1
sVparcel
p38
F2
sVtalk,
p39
F2
sVvery
p40
F9
sVcould
p41
F3
sV1901_
p42
F1
sVfat
p43
F1
sVcoloured
p44
F1
sVme
p45
F2
sVit,
p46
F1
sVpussy,
p47
F1
sVfingers,
p48
F2
sVis--that
p49
F1
sVtwist?"
p50
F2
sVquilt,
p51
F1
sVsighed
p52
F1
sVwooden
p53
F4
sVeve
p54
F1
sVmice----"
p55
F1
sVsang
p56
F3
sVundone
p57
F1
sVhum,
p58
F1
sVsmall
p59
F3
sVround
p60
F1
sVtriumph
p61
F1
sV"i'll
p62
F1
sVhinder
p63
F1
sV_tip
p64
F4
sVtalked
p65
F3
sVyou'd
p66
F1
sVtired
p67
F1
sVlamenting--"one-and-twenty
p68
F1
sVstreet
p69
F2
sVdancing,
p70
F1
sVpies!"
p71
F1
sVbake
p72
F2
sVwarne
p73
F2
sVclick
p74
F1
sVsnippets
p75
F3
sVshining
p76
F1
sVblue
p77
F1
sVsang;
p78
F1
sVwhat
p79
F4
sVstood
p80
F3
sVsniffed.
p81
F1
sVsun
p82
F1
sVsaw
p83
F1
sV20(c)
p84
F1
sVfeet,
p85
F1
sVnear
p86
F2
sVmilk
p87
F2
sVhim.
p88
F1
sVlights
p89
F2
sVhim,
p90
F1
sVundone,
p91
F1
sVnew
p92
F2
sVever
p93
F2
sVbowls
p94
F1
sVfull
p95
F2
sVpassage
p96
F1
sVbeasts
p97
F1
sVinterrupting
p98
F1
sVsongs
p99
F2
sVmice--
p100
F1
sVfire,
p101
F2
sVentertain
p102
F1
sVstreet,
p103
F2
sValone
p104
F1
sVquite
p105
F6
sVoatmeal,
p106
F1
sVwhistled
p107
F1
sVeve,
p108
F1
sVill.
p109
F1
sVclimbed
p110
F1
sVlight,
p111
F1
sVbow
p112
F1
sV"oh,
p113
F1
sVbarred,
p114
F1
sVlight;
p115
F1
sV(cloth)
p116
F1
sVnarrow
p117
F2
sVtower;
p118
F1
sVday's
p119
F1
sVcuffs,
p120
F1
sVplates,
p121
F1
sVpoor--a
p122
F1
sVwhile
p123
F3
sVput
p124
F3
sVran
p125
F3
sVprivately
p126
F1
sVbats,
p127
F1
sVknow,
p128
F1
sVtaffeta--there
p129
F1
sVsinging
p130
F1
sV1903
p131
F1
sVmarket
p132
F1
sVmouse,
p133
F2
sVpipkins,
p134
F1
sVfrom
p135
F18
sViii_
p136
F1
sVwould
p137
F2
sV&
F2
sVangry
p138
F1
sVmouse!
p139
F3
sVlappets--when
p140
F1
sVnext
p141
F2
sVfew
p142
F1
sVlive
p143
F1
sVmysterious
p144
F1
sVblack
p145
F1
sVfairy-tales,
p146
F1
sVbeatrix
p147
F2
sVmore
p148
F13
sVscratched
p149
F1
sVdoor
p150
F4
sVpeeping
p151
F1
sVslopkin,
p152
F1
sVtrap-doors;
p153
F1
sValack,
p154
F1
sVme,"
p155
F1
sVashamed
p156
F1
sVcandles.
p157
F1
sVsleeping
p158
F1
sVboards
p159
F1
sVtown
p160
F1
sVnone
p161
F1
sVlocked
p162
F1
sVwore
p163
F1
sVrights
p164
F1
sVthis
p165
F3
sVshrill
p166
F1
sVworn
p167
F4
sVcat
p168
F4
sVcrossed
p169
F1
sVcan
p170
F4
sV"where
p171
F3
sVfourpence)
p172
F1
sVmaking
p173
F1
sVmy
p174
F10
sVfourpence,
p175
F1
sVbeautiful
p176
F1
sVtap
p177
F4
sVthread-bare
p178
F1
sVhorns
p179
F1
sVtrue--at
p180
F1
sVgutenberg's
p181
F1
sVpieces
p182
F2
sVheard
p183
F3
sVstout,
p184
F1
sVsomething
p185
F1
sVfull-skirted
p186
F1
sVinterrupted
p187
F1
sVtaffeta;
p188
F1
sVf/
p189
F1
sVtip-toe
p190
F1
sVbread,
p191
F1
sVshuffled
p192
F1
sVtea-cup
p193
F1
sVrather
p194
F1
sVsaid,
p195
F1
sVoff
p196
F5
sVtill
p197
F1
sVtippets
p198
F2
sVmice,
p199
F4
sVtip!_
p200
F3
sV"no
p201
F3
sVpipkin
p202
F3
sVmice!
p203
F2
sVsqueaking
p204
F1
sV_christmas,
p205
F1
sVtried
p206
F1
sVrude
p207
F1
sVcow,
p208
F1
sVpenn'orth
p209
F4
sVfortune,
p210
F1
sVflour,
p211
F1
sVdinketty,
p212
F1
sVjumping
p213
F1
sVlay
p214
F5
sVtea-cups.
p215
F1
sVmice;
p216
F1
sVpipkin,
p217
F1
sVsnow-flakes
p218
F1
sVman
p219
F3
sVa
F52
sVwhenever
p220
F1
sVcoat
p221
F5
sVpansies
p222
F2
sVrun!
p223
F1
sVtale
p224
F1
sVso
p225
F5
sVcross-legged
p226
F1
sVagain--
p227
F1
sVthimble.
p228
F1
sVgloucester
p229
F6
sVmake
p230
F5
sVtalk
p231
F1
sVno,
p232
F1
sVdon't
p233
F1
sVcathedral
p234
F2
sVover
p235
F8
sVtail,
p236
F1
sVexpects
p237
F1
sVmew!"
p238
F2
sVtip_!
p239
F1
sVgauze
p240
F1
sVthrough
p241
F7
sVdown,
p242
F1
sVleft
p243
F3
sVears,
p244
F1
sVbe?"
p245
F1
sVcold
p246
F2
sVstill
p247
F5
sVmayor
p248
F4
sVbefore
p249
F1
sVbeside
p250
F3
sVqueerest
p251
F1
sVchimes--and
p252
F1
sVwaistcoat--to
p253
F1
sVmice.
p254
F1
sVwillow
p255
F1
sVlate
p256
F1
sVstitched
p257
F1
sVwindow
p258
F5
sVtailor's
p259
F6
sVshout--there,
p260
F1
sVpussy
p261
F1
sVcovered
p262
F1
sVhidden
p263
F1
sVcorn-flowers.
p264
F1
sVlined
p265
F1
sVthen
p266
F10
sVthem
p267
F2
sVsnappeting
p268
F1
sVpiecing
p269
F1
sVbought
p270
F1
sVgloucestershire,
p271
F1
sVmen?
p272
F1
sVthey
p273
F21
sVnot
p274
F9
sVhunted
p275
F1
sVnow
p276
F2
sVday
p277
F7
sVnor
p278
F1
sVcoat--a
p279
F1
sVsnow.
p280
F3
sVpeacefully.
p281
F1
sVlining,
p282
F1
sValways
p283
F1
sVall,
p284
F1
sVdilly!"
p285
F1
sVthe_
p286
F1
sVdid
p287
F1
sVscuffled
p288
F1
sVfound
p289
F2
sVwent
p290
F8
sVall;
p291
F1
sVside
p292
F1
sVluck
p293
F1
sVlifted
p294
F1
sVmarried
p295
F2
sVanother
p296
F3
sVhouse
p297
F4
sVscarlet;
p298
F1
sVpolychrome
p299
F1
sVsnippeting
p300
F1
sVour
p301
F4
sVcalling
p302
F1
sVout
p303
F21
sVmerchants
p304
F2
sVopened
p305
F2
sVlittered
p306
F1
sVravelling,"
p307
F1
sVat,
p308
F1
sVrose-buds
p309
F1
sVtime,
p310
F1
sVday,
p311
F1
sV"g-r-r-miaw!"
p312
F1
sVgot
p313
F1
sVtaffeta--and
p314
F1
sVdurst
p315
F1
sVcloth;
p316
F1
sVshut
p317
F2
sVturning
p318
F1
sVcross;
p319
F1
sVroofs
p320
F2
sVstory
p321
F2
sVpompadour,
p322
F1
sV"hey
p323
F2
sVhouses
p324
F3
sV_"no
p325
F1
sVill,
p326
F2
sVyork
p327
F1
sVtable--oh
p328
F1
sVhouses;
p329
F1
sVbasins,
p330
F1
sVwanted
p331
F2
sVbeginning
p332
F1
sVwainscot.
p333
F2
sVsparrows
p334
F1
sVmind.
p335
F1
sVthread
p336
F1
sV_my
p337
F1
sVbonnet.
p338
F1
sVcurtsey
p339
F1
sVdays
p340
F2
sV"this
p341
F2
sVthing
p342
F2
sVsilk,
p343
F2
sVthere!
p344
F1
sVsilk.
p345
F3
sVfever,
p346
F2
sVsilk!
p347
F1
sVears
p348
F1
sVthink
p349
F1
sVmice!"
p350
F1
sVkey
p351
F1
sVwaistcoat,
p352
F2
sVtune--
p353
F1
sVisbn
p354
F2
sVsupper
p355
F1
sVpotter
p356
F2
sVnumber
p357
F1
sVwindow-shutter--
p358
F1
sVone
p359
F14
sVwaste,
p360
F1
sVmerrily
p361
F1
sVmobs!
p362
F1
sVdone
p363
F1
sVfast
p364
F2
sVwaistcoat;
p365
F1
sVsuch
p366
F2
sVsounds
p367
F1
sVmiss
p368
F1
sVrented
p369
F1
sVcity
p370
F1
sVlittle
p371
F38
sVsadly
p372
F1
sVsuddenly,
p373
F1
sVbite
p374
F1
sVcoat.
p375
F2
sVtwisted
p376
F2
sVleast
p377
F1
sVpinned
p378
F1
sVtheir
p379
F6
sVwonderful
p380
F3
sVpassed
p381
F1
sVcoat;
p382
F1
sVbadness
p383
F1
sVpaduasoy
p384
F1
sVcoat?
p385
F1
sVthat
p386
F22
sVrenewed,
p387
F1
sVhum
p388
F1
sVnobody
p389
F1
sVserve
p390
F2
sVtook
p391
F4
sV[_all
p392
F1
sVsomething.
p393
F1
sVneat--_so_
p394
F1
sV"miaw?"
p395
F3
sVpipkin;
p396
F1
sVundoubtedly
p397
F1
sVthan
p398
F1
sVwaistcoats
p399
F3
sVfortune--to
p400
F1
sV13
p401
F1
sV12
p402
F1
sV15
p403
F1
sVsnippets.
p404
F1
sV17
p405
F1
sVprinceton
p406
F1
sV19
p407
F1
sV18
p408
F1
sVwindow-panes
p409
F1
sV"dame,
p410
F1
sVbed
p411
F1
sVbee
p412
F1
sVdresser!"
p413
F1
sVcoats
p414
F3
sVpies;
p415
F2
sVwere
p416
F15
sVasleep
p417
F1
sVruffles,
p418
F2
sVand
p419
F168
sVround.
p420
F1
sV_richard
p421
F1
sVbells.
p422
F1
sVcuttings
p423
F1
sVwestgate
p424
F4
sVturned
p425
F2
sVthread-paper,
p426
F1
sVvoices
p427
F5
sVbuy
p428
F3
sVhave
p429
F9
sVseen
p430
F1
sVsounding
p431
F1
sVnow!"
p432
F1
sVany
p433
F3
sVsat
p434
F5
sVthread;
p435
F1
sVanswering
p436
F1
sVable
p437
F1
sVsnow
p438
F4
sVwandered
p439
F1
sValso
p440
F1
sVtake
p441
F2
sVwhich
p442
F3
sVwanting
p443
F2
sVvexed:
p444
F1
sVwonder
p445
F1
sVcrept
p446
F1
sVorder.
p447
F1
sVeven
p448
F1
sVadded
p449
F1
sVquoth
p450
F2
sVthough
p451
F1
sVwho
p452
F2
sVvery,
p453
F1
sVmost
p454
F2
sV"i
p455
F2
sVclothes.
p456
F1
sVcorded
p457
F1
sVmeasured
p458
F2
sVglow
p459
F1
sVsimpkin,
p460
F4
sVsimpkin.
p461
F5
sVdoor,
p462
F2
sVdoor.
p463
F2
sVfrederick
p464
F2
sVhungry
p465
F1
sVlooked
p466
F4
sVcrooked
p467
F2
sVsimpkin?
p468
F2
sVwords--in
p469
F1
sVsimpkin;
p470
F1
sVchimneys,
p471
F1
sVhear
p472
F2
sVskein
p473
F2
sVdiddle
p474
F2
sVcame
p475
F15
sVweeny
p476
F1
sVshop
p477
F6
sVtailor;
p478
F2
sVparticularly
p479
F1
sVanswered
p480
F1
sVgold
p481
F1
sVgentleman
p482
F1
sVfond
p483
F2
sVtailor,
p484
F4
sVtailor.
p485
F1
sVsang--but
p486
F1
sVtailor!
p487
F2
sVhopped
p488
F2
sVmilk!
p489
F1
sVfine
p490
F4
sVclock
p491
F1
sVout:
p492
F1
sVpause
p493
F1
sVclicked
p494
F1
sVcried
p495
F2
sVcopyright
p496
F1
sVnotice
p497
F1
sVgroat
p498
F2
sVgold-laced
p499
F1
sVgreen;
p500
F1
sVshould
p501
F2
sVbuttons
p502
F1
sVonly
p503
F2
sVgoing
p504
F1
sVgateway
p505
F1
sVroses,
p506
F1
sVfolks
p507
F1
sVthrostles
p508
F2
sVgeese
p509
F1
sVpeeped
p510
F1
sVtea-pot,
p511
F2
sVrun,
p512
F1
sVfour-post
p513
F2
sVfirst
p514
F2
sVkeys!
p515
F1
sVdo
p516
F3
sVhis
p517
F27
sVlistened
p518
F1
sVget
p519
F2
sVmugs.
p520
F1
sVpocket
p521
F1
sVtailor
p522
F35
sVhid
p523
F1
sVtidied
p524
F1
sVwords
p525
F1
sVmouse?"
p526
F1
sVwise
p527
F1
sVsilk
p528
F7
sVchimney
p529
F1
sV14
p530
F1
sVshaking
p531
F1
sVend
p532
F2
sVmewed
p533
F2
sVsilk--there
p534
F1
sV16
p535
F1
sVrepentant
p536
F1
sV_and
p537
F1
sVmorning
p538
F2
sVworm-eaten
p539
F1
sVshe
p540
F3
sVbias--the
p541
F1
sVtippets.
p542
F1
sVfly,
p543
F1
sVthem,
p544
F2
sVwhere
p545
F4
sVtap,
p546
F8
sVnext;
p547
F1
sVsew
p548
F2
sVstreets.
p549
F1
sVset
p550
F1
sVswept
p551
F1
sVtossing
p552
F1
sVdown.
p553
F2
sVwe
p554
F1
sVnoises--
p555
F2
sVcollege
p556
F3
sVare
p557
F4
sVfacings
p558
F1
sVdinketty?"
p559
F1
sVonce,
p560
F1
sVclose
p561
F1
sVstacks,
p562
F1
sVbest
p563
F1
sVmumbled--"no
p564
F1
sVtwittering
p565
F2
sVsaid
p566
F14
sVhorrid
p567
F1
sVface,
p568
F1
sVpattern
p569
F2
sVaway
p570
F6
sVkitchen,
p571
F2
sVgaily--
p572
F1
sVkitchen.
p573
F1
sVteeny
p574
F1
sVbehind
p575
F3
sVscore
p576
F1
sVbetween
p577
F1
sVtea-pot
p578
F1
sVco,
p579
F1
sV(though
p580
F1
sVco.
p581
F1
sVwhispered
p582
F1
sVends
p583
F2
sVloose
p584
F1
sVfarthing----
p585
F1
sVtime--than
p586
F1
sVsprang
p587
F1
sVmerchantmen!"
p588
F1
sVbefore._
p589
F1
sVasked:
p590
F1
sVwear
p591
F1
sV"now
p592
F1
sVhimself----
p593
F1
sVcome
p594
F2
sVkitchen
p595
F3
sVcoats!
p596
F1
sVlast
p597
F4
sVpet!
p598
F1
sVreserved_]
p599
F1
sVall.
p600
F1
sVlutestring;
p601
F1
sVill
p602
F2
sVaccording
p603
F1
sVagainst
p604
F1
sV0594
p605
F1
sVloudly
p606
F1
sVway.
p607
F1
sVnicks
p608
F1
sVchina
p609
F1
sVpassing
p610
F1
sVjoy!
p611
F1
sVconsidering
p612
F1
sVloaf
p613
F1
sVoh,
p614
F2
sVmerry
p615
F1
sVvexed
p616
F1
sVtuesday
p617
F1
sVdresser,
p618
F5
sVthreads?
p619
F1
sV"and
p620
F1
sVvoices--especially
p621
F1
sVtogether,
p622
F1
sVtable
p623
F1
sVexpensive
p624
F1
sVmuttered
p625
F1
sVlight
p626
F1
sVshop,
p627
F1
sVbitter
p628
F1
sVthree
p629
F1
sVbeen
p630
F3
sVmark
p631
F1
sVravelling.
p632
F1
sVsecret
p633
F1
sVlady's
p634
F2
sVbutton-hole;
p635
F1
sVrich.
p636
F1
sVwoke
p637
F1
sVtwist!"
p638
F6
sVfrost,
p639
F1
sVlived
p640
F4
sVfloor.
p641
F1
sVwe!"
p642
F1
sVspit
p643
F1
sVtaffeta
p644
F2
sV_because
p645
F1
sVthousand
p646
F1
sVthimbles
p647
F1
sVsimpkin
p648
F19
sVfinished
p649
F2
sVsausages
p650
F1
sV"hey,
p651
F1
sVcatch
p652
F1
sVone-and-twenty
p653
F1
sVworked
p654
F2
sVthose
p655
F6
sVscrap
p656
F1
sVsound
p657
F1
sVtwist
p658
F1
sVwindow-sill;
p659
F1
sVthese
p660
F1
sVplain
p661
F1
sVcoat?"
p662
F1
sVtip
p663
F8
sVbee,
p664
F1
sVas
p665
F5
sVair
p666
F1
sVwill
p667
F2
sVbutton-holes
p668
F6
sVshall
p669
F4
sVcountry
p670
F1
sVcats
p671
F3
sVproperty
p672
F1
sVlondon
p673
F1
sVtable--one-and-twenty
p674
F1
sVcollar,
p675
F1
sVproject
p676
F1
sVis
p677
F17
sV"mew!
p678
F3
sVit
p679
F19
sVembroidered
p680
F6
sVundone!"
p681
F1
sVmiddle
p682
F1
sVgood
p683
F1
sVkey.
p684
F1
sVin
p685
F56
sVready
p686
F1
sVnought--except
p687
F1
sVmouse
p688
F6
sVstarted;
p689
F1
sVif
p690
F3
sVfunny
p691
F1
sVaway,
p692
F1
sVlet
p693
F2
sVlappets!
p694
F1
sVwindows,
p695
F1
sVbegan
p696
F3
sVdoorway
p697
F1
sVof,
p698
F1
sV"simpkin,"
p699
F2
sVgentlemen
p700
F2
sVstrange
p701
F2
sVchenille--for
p702
F1
sV9
F1
sVshears;
p703
F1
sVinc
p704
F1
sVtwist;
p705
F2
sVcrockery
p706
F1
sVkeys
p707
F1
sVupon
p708
F9
sVstrength--nor
p709
F1
sVpeculiar,"
p710
F1
sVrunning
p711
F1
sVnever
p712
F2
sVtwist.
p713
F1
sVtwist!
p714
F3
sVcollar
p715
F1
sVwarming
p716
F1
sVhimself;
p717
F1
sVbeautifullest
p718
F1
sVhearth
p719
F1
sVlistening,
p720
F1
sVkept
p721
F1
sVyourself--a
p722
F1
sVcharges
p723
F1
sVbreadths
p724
F1
sVsung
p725
F1
sVgrind
p726
F1
sVwithout
p727
F6
sVgreatest
p728
F1
sVthe
p729
F234
sVbounced
p730
F1
sVchestnut,
p731
F1
sVtwist!"_
p732
F1
sVshe'll
p733
F1
sVjust
p734
F2
sVswords
p735
F1
sV"alack,"
p736
F1
sVbed.
p737
F2
sVshape
p738
F1
sVnights;
p739
F2
sVanswer--like
p740
F1
sVtouch
p741
F1
sVsatin
p742
F6
sVrobins
p743
F2
sVcocks
p744
F1
sVneat--i
p745
F1
sVspin,
p746
F1
sVcut
p747
F7
sVwork,
p748
F1
sVcuffs
p749
F1
sVhated
p750
F1
sVhad
p751
F8
sVexcept
p752
F1
sVstarlings
p753
F2
sVpopkin,
p754
F1
sVshout
p755
F1
sVwork;
p756
F1
sVchair.
p757
F1
sVstruck
p758
F1
sVhas
p759
F1
sVgave
p760
F2
sVmarch
p761
F1
sVdoors
p762
F1
sVread
p763
F1
sVbig
p764
F1
sVfolk
p765
F1
sVbed;
p766
F1
sVknow
p767
F1
sVpress
p768
F1
sVsleep,
p769
F2
sVstepped
p770
F3
sVlady
p771
F1
sVdreams
p772
F1
sVsufficeth;
p773
F1
sVbutton-hole
p774
F1
sVlike
p775
F6
sVcopyright,
p776
F1
sVtable--"too
p777
F1
sVchorus
p778
F1
sVextraordinary!"
p779
F1
sVprovoking
p780
F1
sVflaps
p781
F1
sVnight
p782
F4
sVbecome
p783
F1
sVupside
p784
F2
sV"alack,
p785
F2
sVtable.
p786
F1
sVtable,
p787
F1
sVtwelve
p788
F2
sVright
p789
F1
sVold
p790
F14
sVmice,"
p791
F1
sVdilly,
p792
F2
sVhour----"
p793
F1
sVsnippeted,
p794
F1
sVsome
p795
F2
sVback
p796
F2
sVneighbours,
p797
F1
sV"four-and-twenty
p798
F1
sVstuffs
p799
F1
sVdear
p800
F1
sVhome
p801
F1
sVbutton-hole,
p802
F1
sVpeter
p803
F1
sVfreda,_
p804
F1
sV"buz,
p805
F1
sVspectacles.
p806
F1
sVtunes.
p807
F1
sVgables
p808
F1
sVsatin--tambour
p809
F1
sV"but
p810
F1
sVamongst
p811
F1
sVpatchwork
p812
F1
sVfor
p813
F28
sVtrimmed
p814
F1
sVrhymes--all
p815
F1
sVnoon
p816
F1
sVleaded
p817
F1
sVdressed,
p818
F1
sVmoon
p819
F1
sVeverything
p820
F2
sVfloss
p821
F1
sVdoes
p822
F1
sV"three
p823
F1
sVgarret
p824
F1
sVchristmas
p825
F9
sVrabbit,"
p826
F1
sVpinched
p827
F1
sVbe
p828
F9
sVfelt
p829
F1
sVrun
p830
F4
sVwatch-beetles
p831
F1
sVpeep
p832
F1
sVlose
p833
F1
sVsaturday:
p834
F1
sVloudest
p835
F1
sVpaper
p836
F1
sVhow
p837
F1
sV1931
p838
F1
sVpassages;
p839
F1
sValthough
p840
F3
sVpoppies
p841
F1
sVbutton-holes--and
p842
F1
sVby
p843
F14
sVsay).
p844
F1
sVon
p845
F8
sVabout
p846
F7
sVsmall--_so_
p847
F1
sVeaves
p848
F1
sVvoices:
p849
F1
sVof
p850
F86
sVhimself.
p851
F1
sVshop.
p852
F1
sVo
F1
sV"sieve
p853
F1
sVdinner
p854
F1
sVstand
p855
F1
sVown
p856
F1
sVsmall--they
p857
F1
sVtappings,
p858
F1
sVor
p859
F5
sVprinted
p860
F1
sVfourpence
p861
F2
sVbarred
p862
F1
sVsufficient--except
p863
F1
sVwhittington's
p864
F1
sVtea-cup,
p865
F2
sVnoises,
p866
F2
sVcourt,
p867
F1
sVinto
p868
F7
sVcourt.
p869
F1
sVetc_
p870
F1
sVtwo
p871
F1
sVdown
p872
F10
sVmorning!
p873
F1
sVsnow,
p874
F1
sVbecause
p875
F1
sVnames,
p876
F1
sVdiddle,
p877
F2
sVmorning,
p878
F3
sVyour
p879
F2
sVnoises:
p880
F1
sVstitches
p881
F2
sVheads!"
p882
F1
sVi
F16
sVher
p883
F2
sVwainscot,
p884
F2
sVthere
p885
F20
sVlong
p886
F4
sVsausages.
p887
F1
sVlaughed,
p888
F1
sVsuit
p889
F1
sVgrew
p890
F2
sVwas
p891
F40
sVworked,
p892
F1
sVbuz
p893
F1
sVlike--
p894
F1
sVround,
p895
F1
sVhimself
p896
F2
sVwaistcoat
p897
F3
sVo-7232-6227-6
p898
F1
sVu.s.a.
p899
F1
sVscratch!"
p900
F1
sVpleased
p901
F1
sVbut
p902
F20
sVnoon--and
p903
F1
sVslipkin
p904
F1
sVstaircases
p905
F1
sVhouse,
p906
F1
sVscissors,
p907
F1
sVanother,
p908
F2
sVtea-cups
p909
F2
sVwaistcoat--trimmed
p910
F1
sVmice
p911
F7
sVwith
p912
F19
sVshutters
p913
F2
sVhe
p914
F41
sVmade
p915
F6
sV(paper)
p916
F1
sVinside
p917
F1
sVtailors
p918
F1
sVup
p919
F7
sVhome,
p920
F1
sVpoppetty
p921
F1
sVwainscots
p922
F1
sVcat;
p923
F1
sVcalled
p924
F1
sVgone
p925
F1
sVscratch!
p926
F1
sVordered
p927
F1
sVjack-daws
p928
F1
sVsimpkin!
p929
F2
sVpenny
p930
F2
sVam
p931
F5
sVlocked?
p932
F1
sVan
p933
F7
sVsinging--
p934
F1
sVsingle
p935
F3
sVat
p936
F20
sVtwist."
p937
F1
sVhouse;
p938
F1
sVpillow,
p939
F1
sVe'en
p940
F1
sVcream
p941
F1
sVecho
p942
F1
sVagain
p943
F3
sVcompared
p944
F1
sVno
p945
F14
sVspectacles,
p946
F2
sVwhen
p947
F9
sVgreen
p948
F1
sVgrowled
p949
F1
sVroses
p950
F1
sVawoke
p951
F1
sVother
p952
F3
sVsuspiciously
p953
F1
sVyou
p954
F4
sVribbons
p955
F1
sVdresser
p956
F4
sVpoor
p957
F6
sVagain,
p958
F1
sVneck.
p959
F1
sVsearched
p960
F1
sVperiwigs
p961
F1
sVtailors"
p962
F1
sVin,
p963
F2
sVin.
p964
F2
sV7232
p965
F1
sVdark,
p966
F1
sVlooking-glass,
p967
F1
sVdark.
p968
F2
sVclean;
p969
F1
sVentrust
p970
F1
sVgentlemen.
p971
F1
sVstitch
p972
F1
sVcry,
p973
F1
sVworsted
p974
F1
sVfastened
p975
F1
sVsewed
p976
F2
sVreplied--"simpkin,
p977
F1
sVturkeys,
p978
F1
sVrich
p979
F1
sVevening.
p980
F1
sVunlocked
p981
F1
sVsniffed
p982
F1
sVlasted
p983
F1
sVtogether
p984
F2
sVfiddle!
p985
F1
sVchristmastime
p986
F1
sVnight.
p987
F3
sVtime
p988
F1
sV"the
p989
F2
sVsounded
p990
F1
sVgloucester--except
p991
F1
sVonce
p992
F2
s.