ccollections
defaultdict
p1
(c__builtin__
float
p2
tRp3
Vsilent.
p4
F1
sVall
p5
F6
sVthen,
p6
F1
sVsilent,
p7
F1
sVcame.
p8
F1
sVrobe.
p9
F2
sVsleep
p10
F1
sVjarring
p11
F1
sVgo
p12
F2
sVchair
p13
F1
sVfireplace.
p14
F1
sVhate
p15
F1
sVhe?"
p16
F1
sVup.
p17
F4
sVlooking
p18
F5
sVup,
p19
F2
sVhold
p20
F1
sV_by
p21
F1
sVyoung
p22
F1
sVoff,
p23
F2
sVto
p24
F58
sVunder
p25
F1
sV"an
p26
F1
sV"says
p27
F1
sVslowly,
p28
F1
sVuniverse_
p29
F1
sVbrown
p30
F1
sVbuttons.
p31
F1
sVpresently
p32
F2
sVsitting
p33
F1
sVvery
p34
F5
sV"he
p35
F2
sVtears.
p36
F1
sVwood.
p37
F3
sVtalk;
p38
F1
sVevery
p39
F2
sV"you'll
p40
F1
sVwe--"
p41
F1
sVremote.
p42
F1
sVwho--or
p43
F1
sVangry.
p44
F1
sVdin
p45
F1
sV_did
p46
F1
sVbest,
p47
F1
sVdid
p48
F8
sVporch.
p49
F1
sVcorrect
p50
F1
sVleave
p51
F1
sVhalf-wound
p52
F1
sVquick
p53
F1
sVtight-shut
p54
F1
sVguy
p55
F1
sVstraight
p56
F1
sVi'll
p57
F2
sV"all
p58
F2
sV"he?"
p59
F1
sVher.
p60
F1
sVher,
p61
F5
sVother,
p62
F1
sVme,
p63
F1
sVother.
p64
F1
sVme.
p65
F1
sVhour.
p66
F1
sVher;
p67
F2
sVcarefully
p68
F2
sVitself
p69
F1
sVdried
p70
F1
sVchin.
p71
F1
sVribbon
p72
F1
sVeven
p73
F6
sVhim?
p74
F1
sVwhat
p75
F10
sVerrors
p76
F1
sVstood
p77
F3
sVclock
p78
F26
sVchirped,
p79
F1
sVbrief
p80
F1
sVsteadying
p81
F1
sVhim.
p82
F9
sVhim,
p83
F1
sVlarge.
p84
F1
sVfalling
p85
F1
sVever
p86
F2
sVbird
p87
F1
sVtold
p88
F1
sVbody
p89
F1
sVdrink.
p90
F1
sVnever
p91
F4
sVstared
p92
F1
sVhere
p93
F3
sVfeather,
p94
F1
sVlet
p95
F1
sVsink
p96
F1
sVeverything,
p97
F1
sValone
p98
F1
sVsay.
p99
F1
sValong
p100
F4
sVfifteen
p101
F1
sVwait
p102
F2
sVcried.
p103
F1
sVright?"
p104
F2
sVclock,"
p105
F1
sVhere?
p106
F1
sVcuckoo
p107
F22
sVpoured
p108
F1
sVelaborate
p109
F1
sVstudied
p110
F1
sV"why
p111
F2
sVmust;
p112
F1
sVi'd
p113
F1
sVhere.
p114
F1
sVadded,
p115
F1
sVbob
p116
F15
sVlistening,
p117
F1
sV"listen,"
p118
F1
sVdoris
p119
F20
sVantiques.
p120
F1
sVlove
p121
F4
sVfigure
p122
F1
sVsuddenly
p123
F1
sVbreath,
p124
F1
sVworld."
p125
F1
sVbrought
p126
F1
sVput
p127
F3
sVwholesale."
p128
F1
sVhand-made,
p129
F1
sVbeen--"
p130
F1
sV"my
p131
F1
sVresearch
p132
F1
sVstanding
p133
F2
sVfrom
p134
F6
sVspoke
p135
F2
sVwould
p136
F11
sVyou."
p137
F2
sVcrash.
p138
F1
sVtwo
p139
F4
sVthrow
p140
F1
sVfew
p141
F3
sVdoubt
p142
F1
sVcall
p143
F1
sVstrike
p144
F1
sVblack
p145
F1
sVright.
p146
F2
sVrespect._
p147
F1
sVminor
p148
F1
sVmore
p149
F1
sVboomed
p150
F1
sValmost
p151
F1
sVdoor
p152
F10
sVknows
p153
F1
sVporch
p154
F1
sVafford
p155
F1
sVblood?
p156
F1
sVclose."
p157
F1
sVcorrected
p158
F1
sVherself;
p159
F1
sVit
p160
F36
sVmutely
p161
F1
sVgermany,"
p162
F1
sVbroke
p163
F1
sVi'm
p164
F4
sVmounted
p165
F1
sVquickly,
p166
F1
sVeyebrow.
p167
F1
sVglad
p168
F1
sVmust
p169
F1
sVme
p170
F3
sV"doris
p171
F1
sVeleven,
p172
F1
sVanything
p173
F1
sVhour
p174
F2
sVpushed
p175
F1
sVthis
p176
F3
sVgetting
p177
F1
sVmarvelous,
p178
F1
sVinside,
p179
F1
sVarm,
p180
F1
sVexamined
p181
F1
sVcan
p182
F2
sVleaped
p183
F1
sVmaking
p184
F1
sVsee,"
p185
F1
sVwaiting,
p186
F1
sVmy
p187
F3
sVshook
p188
F1
sVmeant
p189
F1
sVhelplessly,
p190
F1
sVlid.
p191
F1
sVbent
p192
F2
sVhours?
p193
F1
sVgive
p194
F2
sVcircle.
p195
F1
sVslim
p196
F1
sVdidn't
p197
F4
sVpaused
p198
F1
sVhave--"
p199
F1
sVforth.
p200
F1
sVwant
p201
F3
sVhigh.
p202
F1
sVsharp
p203
F1
sVmouth.
p204
F1
sVtrumpet
p205
F1
sVworse
p206
F1
sVaround.
p207
F1
sVaround,
p208
F2
sVend
p209
F1
sVjanuary
p210
F1
sV"get
p211
F1
sVdrying
p212
F1
sVstayed
p213
F1
sVfar
p214
F2
sVon."
p215
F1
sVanimal
p216
F1
sVbefore
p217
F2
sVleft."
p218
F1
sVsomething,"
p219
F1
sVstaying
p220
F1
sVme--"
p221
F1
sVlead--that
p222
F1
sV"never
p223
F1
sVaway.
p224
F1
sVwristwatch.
p225
F1
sV"chambers.
p226
F1
sVsparkled
p227
F1
sVhorrified.
p228
F1
sVsizing
p229
F1
sVlot
p230
F1
sVmad
p231
F1
sVcoming
p232
F3
sVspelling
p233
F1
sVman
p234
F2
sVa
F29
sVmaybe
p235
F1
sV"be
p236
F1
sVretired.
p237
F1
sVso
p238
F9
sVglancing
p239
F1
sV"are
p240
F2
sVaccident;
p241
F1
sVwind
p242
F2
sVthat's
p243
F3
sVsullen,
p244
F1
sVoffice
p245
F2
sVdon't
p246
F5
sV"hi,"
p247
F1
sVover
p248
F10
sVhat.
p249
F1
sVsoon
p250
F1
sVwall.
p251
F3
sVproduced
p252
F1
sVpaper
p253
F1
sVwon't
p254
F2
sVsmiled.
p255
F1
sVdown.
p256
F1
sVsmiling
p257
F1
sVstill
p258
F4
sVits
p259
F3
sVclapped
p260
F1
sV"fine."
p261
F1
sVtore
p262
F1
sVthumb
p263
F2
sVbill.
p264
F1
sVhe's
p265
F1
sVbosom
p266
F1
sVcourse,
p267
F4
sVlate
p268
F1
sVwhether
p269
F1
sVminute
p270
F1
sVglanced
p271
F1
sVclosed.
p272
F1
sVweeks
p273
F2
sVmight
p274
F3
sVstopped,
p275
F1
sVhaven't
p276
F2
sVstopped.
p277
F1
sVit.
p278
F8
sVthen
p279
F6
sVit,
p280
F5
sVlonely
p281
F1
sV_fantastic
p282
F1
sVlittle.
p283
F1
sVlater
p284
F1
sVbreak
p285
F1
sVit?
p286
F1
sVyou've
p287
F3
sVthey
p288
F5
sVhands
p289
F4
sVnot
p290
F5
sVsake."
p291
F1
sVlarry's
p292
F2
sVeasily
p293
F1
sVrigidly.
p294
F1
sValways
p295
F2
sVlap--waiting
p296
F1
sVall,
p297
F1
sVleading
p298
F1
sVgood
p299
F2
sVleaned
p300
F1
sVtwice,
p301
F1
sVeach
p302
F2
sVall?
p303
F1
sVwent
p304
F4
sVquarter
p305
F1
sVisn't
p306
F3
sVmean
p307
F1
sVlifted
p308
F1
sVsquare
p309
F1
sVsolemnly,
p310
F1
sVmuch."
p311
F1
sVbursting
p312
F1
sVfrowned.
p313
F1
sVdoing
p314
F2
sVhouse
p315
F1
sVcuckoo,
p316
F1
sVhouse.
p317
F1
sVidea
p318
F1
sVright."
p319
F1
sVbooks
p320
F1
sVrhythmically.
p321
F1
sVfist
p322
F1
sVforgot
p323
F1
sVbeyond
p324
F2
sVsaturday
p325
F1
sVspecial
p326
F1
sVout
p327
F18
sVbusiest.
p328
F1
sVopened
p329
F4
sVthat--"
p330
F1
sVneedn't
p331
F1
sVwalked
p332
F2
sVsince
p333
F2
sV"go
p334
F1
sVclock!"
p335
F1
sVtime.
p336
F4
sVstart.
p337
F2
sVshouldn't
p338
F2
sVis,
p339
F1
sVwaiting."
p340
F1
sVgot
p341
F8
sVdoris.
p342
F3
sVsliding
p343
F1
sVwhispered.
p344
F1
sVfootsteps
p345
F1
sVafter
p346
F8
sVdoesn't
p347
F2
sVstirred.
p348
F1
sVu.s.
p349
F1
sVmatter--not
p350
F1
sVquite
p351
F1
sVsmall
p352
F1
sVcompletely
p353
F1
sVwent,
p354
F1
sVjaw.
p355
F2
sVuncover
p356
F1
sVask
p357
F2
sVamazement
p358
F1
sVphilip
p359
F2
sVyou?"
p360
F1
sV"don't
p361
F1
sVpublication
p362
F1
sV"can
p363
F1
sVthings.
p364
F2
sVbegan.
p365
F1
sVthings,
p366
F1
sVstretched
p367
F1
sV"how
p368
F1
sVcould
p369
F2
sVpunk
p370
F1
sVrunning
p371
F1
sVkeep
p372
F1
sVmotion
p373
F1
sVmoved.
p374
F1
sVtale.
p375
F1
sVnothing.
p376
F1
sVonto
p377
F1
sVthink
p378
F2
sVfirst
p379
F3
sVbob.
p380
F1
sVrang
p381
F1
sV*
F10
sVgazed
p382
F2
sVslipped
p383
F1
sVtoo.
p384
F1
sVtoo,
p385
F1
sVnumber
p386
F1
sVbetter."
p387
F1
sVone
p388
F7
sVfantasy
p389
F1
sVmurmured
p390
F1
sVminutes,
p391
F1
sVminutes.
p392
F1
sVsays
p393
F1
sVopen
p394
F1
sVeye.
p395
F1
sVyou're
p396
F4
sVlittle
p397
F11
sVrobe
p398
F1
sVsilent
p399
F1
sVsuddenly.
p400
F1
sVtogether
p401
F1
sVcaught
p402
F2
sVtwisted
p403
F1
sVsure?
p404
F1
sVanyone
p405
F1
sVwonderful
p406
F1
sVtell
p407
F1
sVpassed
p408
F1
sVdamned."
p409
F1
sVtypographical
p410
F1
sVlegs
p411
F1
sVgod's
p412
F1
sVlow
p413
F1
sVeyes
p414
F4
sVlaughed.
p415
F3
sVsound.
p416
F2
sVrenewed.
p417
F1
sVmuch,
p418
F1
sVtook
p419
F3
sVfalling.
p420
F1
sVpart
p421
F1
sVbecause
p422
F4
sVoff
p423
F1
sVherself
p424
F2
sVthan
p425
F1
sVloved
p426
F2
sVantique?
p427
F1
sVhim."
p428
F1
sVnote:
p429
F1
sVlast
p430
F2
sVgently
p431
F1
sVexcept,
p432
F1
sVnot?"
p433
F1
sVbed
p434
F1
sVmatter
p435
F1
sVto.
p436
F1
sVsupposed
p437
F1
sVwere
p438
F1
sVhead.
p439
F1
sVtoward
p440
F4
sVtoo--probably
p441
F1
sVwant?"
p442
F1
sVand
p443
F64
sVsilence
p444
F1
sVremorse,
p445
F1
sVwhirr.
p446
F2
sVremained
p447
F1
sVran
p448
F2
sVbrightened.
p449
F1
sVturned
p450
F3
sVstir.
p451
F1
sVforest."
p452
F1
sVwell,
p453
F2
sVsay
p454
F1
sVyou,
p455
F1
sVdefending
p456
F1
sVhave
p457
F15
sVchambers
p458
F1
sV"well,
p459
F2
sVseen
p460
F3
sVsaw
p461
F1
sVany
p462
F3
sVsat
p463
F5
sVbriefcase
p464
F1
sVafraid
p465
F1
sVdo,
p466
F1
sVstudying
p467
F1
sVthat
p468
F22
sVable
p469
F1
sVk.
p470
F1
sVarm
p471
F1
sVlit
p472
F1
sVtake
p473
F2
sV"isn't
p474
F2
sV"he'll
p475
F1
sVthat,
p476
F1
sVsure
p477
F2
sVwomen."
p478
F1
sVtrace
p479
F1
sVthough
p480
F1
sVfloor,
p481
F1
sVprice
p482
F1
sVshower.
p483
F1
sVsquarely
p484
F1
sVbusiness.
p485
F1
sVhad."
p486
F1
sVvoice,
p487
F1
sVcigarette
p488
F1
sVinterested.
p489
F1
sVfast,
p490
F1
sVnothing
p491
F2
sVhim:
p492
F1
sV_something
p493
F1
sVwhy
p494
F2
sVyou?
p495
F2
sVforever
p496
F1
sVroom
p497
F2
sVdoor,
p498
F3
sV"you're
p499
F2
sVsometimes
p500
F4
sVretreated.
p501
F1
sVface
p502
F2
sVlooked
p503
F7
sVyou'll
p504
F2
sVpay.
p505
F1
sVnot.
p506
F1
sVcame
p507
F7
sVthomas
p508
F1
sVshow
p509
F2
sVlay
p510
F1
sVanother,
p511
F1
sVfingers
p512
F1
sVdemanded.
p513
F1
sV"i--"
p514
F1
sVmean,
p515
F2
sVmean.
p516
F1
sVrealized,
p517
F1
sVbrow
p518
F1
sVenough."
p519
F1
sVcopyright
p520
F1
sVfists.
p521
F1
sVclutching
p522
F1
sVdownstairs
p523
F1
sVtranscriber's
p524
F1
sVdick
p525
F1
sVwaiting
p526
F1
sVshould
p527
F2
sV"if
p528
F1
sVonly
p529
F4
sVgoing
p530
F2
sVpleasure.
p531
F1
sVtouched
p532
F1
sVpretty
p533
F1
sVwatching
p534
F1
sVhope
p535
F2
sVspun
p536
F1
sVdo
p537
F4
sVwhirred
p538
F2
sVhis
p539
F28
sVshyly.
p540
F1
sVget
p541
F6
sVindentations
p542
F1
sVtwisting.
p543
F1
sVweeks.
p544
F1
sVhim
p545
F8
sVhad,
p546
F1
sVoff,"
p547
F1
sVbobby."
p548
F1
sVaccounts,
p549
F1
sVshe
p550
F43
sVwhat--had
p551
F1
sVgrilled
p552
F1
sVthem.
p553
F2
sVwhere
p554
F1
sVdown,
p555
F1
sV"that
p556
F1
sVset
p557
F4
sVwrinkled
p558
F1
sVuncooperative
p559
F1
sV"no,
p560
F1
sV"no.
p561
F1
sVare--the
p562
F1
sVsee
p563
F2
sVare
p564
F1
sVfine."
p565
F1
sVonce,
p566
F1
sVclose
p567
F2
sVonce.
p568
F1
sVhammer
p569
F1
sVscrutinizing
p570
F1
sVrubbing
p571
F1
sVwonder
p572
F4
sVpete
p573
F1
sV"shut
p574
F1
sVsaid
p575
F3
sVfurniture.
p576
F1
sVsomething?"
p577
F1
sVbright-eyed.
p578
F1
sVbelow
p579
F1
sV"is
p580
F1
sVstamps
p581
F1
sVknow."
p582
F1
sVclosed
p583
F2
sVbetween
p584
F1
sVbob,
p585
F1
sVprobably
p586
F1
sVreading
p587
F1
sVacross
p588
F1
sV"of
p589
F1
sVbought
p590
F3
sVknowing
p591
F1
sVoffice."
p592
F1
sVwife--without
p593
F1
sVhere?"
p594
F1
sVweary
p595
F1
sVjob
p596
F2
sVdrew
p597
F1
sVspoil
p598
F1
sVcontemplation,
p599
F1
sVcome
p600
F15
sVkitchen
p601
F1
sVgrunting.
p602
F1
sVmatter?"
p603
F1
sVten.
p604
F1
sVall.
p605
F1
sVwouldn't
p606
F3
sVquiet
p607
F2
sVagainst
p608
F2
sVdoorway
p609
F1
sVway.
p610
F2
sV"maybe
p611
F2
sVstreet,
p612
F1
sVhowever,
p613
F1
sVasked
p614
F1
sVcomes
p615
F2
sVotherwise
p616
F2
sVside.
p617
F1
sVliked
p618
F4
sVlike."
p619
F1
sVtown,
p620
F1
sVwall
p621
F2
sVsleeve.
p622
F1
sVme?"
p623
F2
sV"and
p624
F1
sVgleaming
p625
F1
sVtogether.
p626
F1
sVcouldn't
p627
F1
sVtogether,
p628
F1
sVtable
p629
F2
sVwant,
p630
F1
sVnow,
p631
F1
sVmost
p632
F2
sVhandkerchief
p633
F1
sVfrets
p634
F1
sVtremendous
p635
F1
sVon,"
p636
F1
sVthree
p637
F2
sVbeen
p638
F7
sVhitting
p639
F1
sV"just
p640
F2
sVmuch
p641
F1
sVdamn
p642
F2
sV"i'm
p643
F1
sVwants
p644
F1
sVlife
p645
F1
sVsay?"
p646
F1
sVsleepily
p647
F1
sVpecked
p648
F1
sVgreat
p649
F2
sVfrightened.
p650
F1
sVdrawer
p651
F1
sVfinished
p652
F2
sV_awkward_,
p653
F1
sVsuicide
p654
F1
sV"who
p655
F1
sVevidence
p656
F1
sVextensive
p657
F1
sVcountless
p658
F1
sVsound
p659
F2
sVwryly.
p660
F1
sVlook
p661
F2
sVwinding
p662
F3
sVworld.
p663
F1
sV"do
p664
F1
sV"birds
p665
F1
sVfall.
p666
F1
sVwill
p667
F1
sVwhile
p668
F1
sVdoor?"
p669
F1
sVpressed
p670
F1
sVtime,
p671
F1
sVwill.
p672
F1
sVnewspaper
p673
F1
sVtaking
p674
F1
sVover.
p675
F1
sVthought.
p676
F1
sVsuicide,"
p677
F1
sV"a
p678
F2
sVpropped
p679
F1
sVbacking
p680
F1
sVgrinned
p681
F1
sVis
p682
F3
sV"i
p683
F12
sVi'll--"
p684
F1
sVsomeone
p685
F2
sVin
p686
F22
sVsays--"
p687
F1
sVsaid,
p688
F7
sVsaid.
p689
F7
sVif
p690
F8
sVfunny
p691
F2
sVdoctor
p692
F2
sVthings
p693
F1
sVbegan
p694
F1
sVit."
p695
F4
sVbeside
p696
F1
sVdining-room
p697
F1
sVpositive."
p698
F1
sVstepped
p699
F1
sVgets
p700
F1
sV"they
p701
F1
sVused
p702
F1
sVdrink
p703
F1
sVhand
p704
F2
sVusually
p705
F1
sVmoment
p706
F4
sVedges
p707
F1
sVblamed
p708
F1
sVbell.
p709
F1
sVplate.
p710
F1
sVrubbed
p711
F1
sVi
F19
sVfloor
p712
F1
sVwell
p713
F1
sVkept
p714
F1
sVthought
p715
F2
sVit--the
p716
F1
sVwithout
p717
F3
sVthing,
p718
F1
sVmother
p719
F2
sVshut.
p720
F2
sVthe
p721
F156
sVit;
p722
F1
sVto."
p723
F1
sVwholesale.
p724
F1
sVgod,
p725
F1
sVjust
p726
F4
sVflesh
p727
F1
sVbeing
p728
F1
sVmyself."
p729
F1
sVhalf
p730
F2
sVmeans
p731
F2
sVgingerly
p732
F1
sVfront
p733
F4
sVclocks
p734
F1
sV1954.
p735
F1
sVwholesale?
p736
F1
sVdick_
p737
F1
sVfollowed
p738
F1
sVperfect!
p739
F1
sVrushing
p740
F1
sVopen,
p741
F1
sVblow
p742
F1
sVnote
p743
F1
sVcut
p744
F1
sVchair?
p745
F1
sVdelighted.
p746
F1
sVall."
p747
F1
sVhad
p748
F12
sVheard
p749
F2
sVhim?"
p750
F1
sVembarrassed.
p751
F1
sVmurmured,
p752
F1
sVeasy
p753
F1
sVnote.
p754
F1
sVpoised
p755
F1
sVhas
p756
F2
sVfeel,"
p757
F1
sVought
p758
F1
sVwide-eyed.
p759
F1
sVreal
p760
F2
sV...
p761
F1
sVswiftly.
p762
F1
sVaround
p763
F2
sVthumb.
p764
F2
sVroom,
p765
F3
sVclock,
p766
F4
sVclock.
p767
F8
sVgrinning.
p768
F1
sVpossibly
p769
F1
sVworking
p770
F1
sVknow
p771
F7
sVlistening
p772
F2
sV"but
p773
F2
sVfair.
p774
F1
sV"doctor,"
p775
F1
sVlike
p776
F10
sVwound,
p777
F1
sVpaused,
p778
F3
sVshuddered
p779
F1
sVnight
p780
F2
sVwhat?"
p781
F2
sVnerves
p782
F1
sVtower
p783
F1
sVnice
p784
F1
sVsoft
p785
F2
sV"well,"
p786
F1
sVopened.
p787
F2
sV"carl
p788
F1
sVhelped.
p789
F1
sVold
p790
F3
sVdeal
p791
F1
sValive."
p792
F1
sVspring
p793
F1
sVsome
p794
F2
sVback
p795
F4
sVhour."
p796
F1
sVlips
p797
F2
sVornaments
p798
F1
sVleft,
p799
F1
sVcommitting
p800
F1
sV"what
p801
F2
sVbefore.
p802
F1
sVfor
p803
F18
sVgone."
p804
F1
sVcompletely.
p805
F1
sVstores.
p806
F1
sVetext
p807
F1
sVdoes
p808
F1
sVtight.
p809
F1
sVticking
p810
F3
sVhammer.
p811
F2
sVantiques;
p812
F1
sVbe
p813
F6
sV"look,"
p814
F1
sVseconds
p815
F1
sVshe,
p816
F1
sVthere.
p817
F1
sVuneasy
p818
F1
sVmine;
p819
F1
sVpaid
p820
F2
sVsnapped
p821
F3
sVtalking
p822
F2
sVby
p823
F1
sVunhappily
p824
F1
sVon
p825
F15
sVabout
p826
F5
sVrare
p827
F1
sVcarried
p828
F2
sV"nuts.
p829
F1
sVpackage
p830
F1
sVof
p831
F37
sV"you
p832
F3
sVmrs.
p833
F1
sVout?
p834
F2
sVdinner
p835
F1
sVhere."
p836
F2
sVstand
p837
F1
sVit's
p838
F3
sVtoday."
p839
F1
sVout,
p840
F4
sVor
p841
F6
sVout.
p842
F3
sVrefrigerator.
p843
F1
sVantique
p844
F1
sVraised
p845
F2
sVown
p846
F1
sVcocked
p847
F1
sVtwelve
p848
F1
sVowe
p849
F1
sVinto
p850
F7
sV"suicide?"
p851
F1
sVdown
p852
F8
sVstrike.
p853
F1
sVrising
p854
F1
sVtimes.
p855
F1
sVmorning,
p856
F1
sVyour
p857
F5
sVupstairs
p858
F1
sVher
p859
F26
sVeleven
p860
F1
sVsatisfied.
p861
F1
sVthere
p862
F8
sVpeters
p863
F1
sVstart
p864
F1
sVdropping
p865
F1
sVwe're
p866
F1
sVway
p867
F3
sVcuckoo.
p868
F1
sVhem
p869
F1
sVplace.
p870
F1
sVwas
p871
F33
sVcareful!
p872
F1
sVhappy
p873
F1
sVrobbed,
p874
F1
sVhead
p875
F3
sVgermans--back
p876
F1
sVenough
p877
F2
sV"that's
p878
F1
sVeleven.
p879
F1
sVbut
p880
F8
sVhoped
p881
F1
sVit?"
p882
F1
sVright,
p883
F2
sVlarry
p884
F24
sVhear
p885
F7
sV"what's
p886
F2
sVscowled.
p887
F2
sVremoved
p888
F1
sVwith
p889
F10
sVwhirring
p890
F1
sVhe
p891
F81
sVthey're
p892
F2
sVmade
p893
F3
sVcourse,"
p894
F1
sVwasn't
p895
F2
sVinside
p896
F4
sVup
p897
F9
sVuntil
p898
F2
sVgrotesquely,
p899
F1
sV"it's
p900
F2
sVjealous!
p901
F1
sVto--
p902
F1
sVminutes
p903
F1
sVmeal.
p904
F1
sVside,
p905
F1
sVdoor.
p906
F4
sVcertain
p907
F1
sVmoved
p908
F3
sVan
p909
F4
sVnarrowed.
p910
F1
sVas
p911
F7
sVright
p912
F1
sVat
p913
F26
sVwatched
p914
F1
sVhimself
p915
F1
sVme--_he_
p916
F1
sVyou--first."
p917
F1
sVaccident.
p918
F1
sVno
p919
F3
sVlarry.
p920
F1
sVwhen
p921
F7
sVnick
p922
F1
sVinterested
p923
F1
sVholding
p924
F1
sVdining-room.
p925
F3
sVyou
p926
F32
sVreally
p927
F2
sVdresser
p928
F1
sVscored
p929
F1
sVagain.
p930
F1
sVagain,
p931
F1
sVo'clock
p932
F2
sVnails,
p933
F1
sVneck,
p934
F1
sVfelt
p935
F1
sVwaving
p936
F1
sVchance
p937
F1
sVimportant
p938
F1
sVitself,
p939
F1
sVitself.
p940
F1
sVelse_."
p941
F1
sVwe
p942
F3
sVclenched
p943
F1
sVamused
p944
F1
sVtime
p945
F1
sVshe's
p946
F1
sVsomeplace
p947
F1
sVsounded
p948
F1
sVpaced
p949
F1
sVonce
p950
F2
s.