ccollections
defaultdict
p1
(c__builtin__
float
p2
tRp3
Vever.
p4
F2
sVy'nor,
p5
F1
sVy'nor.
p6
F2
sVagitation,
p7
F1
sVsilent,
p8
F1
sVyellow
p9
F1
sVfour
p10
F2
sVsleep
p11
F1
sVvoyage_,
p12
F1
sVfist.
p13
F1
sVsuggestion."
p14
F1
sVwhose
p15
F2
sVup,
p16
F2
sV"as
p17
F1
sVvogar's
p18
F1
sVbird-of-prey
p19
F1
sVunder
p20
F4
sVlord
p21
F1
sVsorry
p22
F1
sVmenace,"
p23
F1
sV"ah
p24
F1
sVsinking
p25
F1
sVtry."
p26
F1
sVtarry
p27
F1
sVrescue
p28
F1
sVnow,"
p29
F1
sVfluctuating."
p30
F1
sVshoot
p31
F1
sVevery
p32
F5
sVblisters
p33
F1
sVbringing
p34
F1
sVmonkeys
p35
F1
sVencounter
p36
F1
sVlook
p37
F5
sVwe'll
p38
F2
sVconsuming.
p39
F1
sVphase
p40
F1
sVyesterday's
p41
F1
sV"don't
p42
F2
sVforce
p43
F4
sVher.
p44
F2
sVgo."
p45
F1
sVher,
p46
F1
sVme,
p47
F1
sVout-going
p48
F1
sVsecond
p49
F1
sVstreet
p50
F1
sVprison,"
p51
F1
sVothers.
p52
F1
sVestimated
p53
F1
sVmachines
p54
F2
sVblue
p55
F2
sVahead--ask
p56
F1
sVmad."
p57
F1
sVhide
p58
F1
sVnodded.
p59
F2
sVthunder
p60
F2
sVfingers
p61
F1
sVgold,
p62
F1
sVlights
p63
F1
sVaged.
p64
F1
sVdr.
p65
F1
sVchurches
p66
F2
sVever
p67
F5
sVdisintegrators."
p68
F1
sVtold
p69
F5
sVdeadline."
p70
F1
sVresignation.
p71
F1
sVlaw-making
p72
F1
sVnever
p73
F11
sVstared
p74
F2
sVhere
p75
F8
sVhundreds
p76
F1
sVmet
p77
F5
sVfriendship;
p78
F1
sVpath
p79
F1
sVaren't
p80
F1
sVdry
p81
F1
sVsecond-in-command.
p82
F1
sVchanged
p83
F3
sV"why
p84
F1
sVmilitary
p85
F3
sVi'm
p86
F6
sVtwenty-four
p87
F2
sVpunishment
p88
F2
sVgolden
p89
F10
sVover.
p90
F1
sVstraw
p91
F1
sVshift-change
p92
F1
sVvisible
p93
F1
sVforce."
p94
F1
sVore
p95
F1
sVspoke
p96
F2
sVwould
p97
F32
sVnegative
p98
F1
sVsunny,
p99
F1
sVtrees.
p100
F1
sVme--_i'll_
p101
F1
sVbreathing,
p102
F1
sVuntil
p103
F4
sV_saints:
p104
F1
sVkane,
p105
F1
sVkane.
p106
F3
sVrestored,
p107
F1
sV"i
p108
F27
sVfeeling,
p109
F2
sVglass
p110
F1
sVwarm
p111
F1
sVhold
p112
F1
sVmust
p113
F10
sVme
p114
F10
sVintention."
p115
F1
sVword
p116
F1
sVwore
p117
F2
sVpermits
p118
F1
sVedict--do
p119
F1
sVsupply.
p120
F1
sVwork
p121
F5
sVpersonally,
p122
F1
sVblind?"
p123
F1
sVwaiting,
p124
F1
sVmy
p125
F23
sVchurch."
p126
F1
sVcriminal.
p127
F1
sVshook
p128
F1
sVdefer
p129
F1
sVis."
p130
F1
sVgive
p131
F4
sVthat."
p132
F2
sVwoman
p133
F3
sVwant
p134
F8
sVdrive
p135
F1
sVtimes
p136
F1
sVreturned
p137
F1
sVaround.
p138
F1
sVaround,
p139
F1
sVend
p140
F1
sVverify
p141
F1
sVsong
p142
F1
sVmachine
p143
F2
sVhow
p144
F7
sVhot
p145
F1
sVon."
p146
F1
sVdisappear
p147
F1
sVanswer
p148
F2
sVprogram."
p149
F1
sVweapons.
p150
F1
sVy'nor,"
p151
F2
sVafter
p152
F8
sVwrong
p153
F2
sVmessage?"
p154
F1
sVscattered--"
p155
F1
sVvogarians,
p156
F1
sVgreen
p157
F3
sVwisdom."
p158
F1
sVoperate
p159
F1
sVorder
p160
F3
sVcornered,
p161
F1
sVexecuted
p162
F2
sV"where's
p163
F1
sVover
p164
F6
sVsatisfied
p165
F1
sVbefall
p166
F1
sVthe:
p167
F1
sVsuggestions."
p168
F1
sVbefore
p169
F9
sVglances
p170
F1
sVsituation--that
p171
F1
sVpersonal
p172
F1
sVislands.
p173
F1
sVfix
p174
F2
sVwriting
p175
F1
sVbetter
p176
F1
sVproduction
p177
F2
sVhidden
p178
F4
sVenough."
p179
F1
sVmadder
p180
F1
sVeventually
p181
F1
sVthem
p182
F22
sVchoicest
p183
F1
sVcorridor
p184
F1
sVweakness
p185
F1
sVsafe
p186
F1
sVtechnicians."
p187
F1
sVyoung,
p188
F1
sVvogarians
p189
F10
sVthey
p190
F25
sVone
p191
F18
sVsilver
p192
F1
sVshadows
p193
F2
sVeight-hour
p194
F1
sVgallows
p195
F1
sVbrightness
p196
F1
sVtowered
p197
F1
sVgood
p198
F4
sVeach
p199
F4
sVwent
p200
F22
sVside
p201
F3
sVmean
p202
F1
sVlifted
p203
F3
sVnow--
p204
F1
sVforced:
p205
F1
sVspider
p206
F1
sVbrain-washed
p207
F1
sVdawn
p208
F2
sVreturn"--the
p209
F1
sVday:
p210
F1
sVgod
p211
F7
sVpsychic
p212
F1
sVforty
p213
F1
sVday,
p214
F1
sVgot
p215
F2
sVsanctuary.
p216
F1
sVtwenty-five
p217
F1
sVyou're
p218
F3
sVu.s.
p219
F1
sVeternal
p220
F1
sVlittle
p221
F7
sVfree
p222
F1
sVstandard
p223
F1
sVwent,
p224
F1
sVcrime,
p225
F1
sVsaints,
p226
F4
sVbe.
p227
F1
sVquestion:
p228
F1
sVwanted
p229
F3
sVgo,
p230
F1
sVof."
p231
F1
sVdays
p232
F10
sV"this
p233
F2
sVmoved,
p234
F1
sVhopeless
p235
F2
sVarrived
p236
F2
sVfootsteps
p237
F1
sVnow--and
p238
F1
sVi'll
p239
F3
sVwhat?"
p240
F1
sVtoo,
p241
F1
sVprimary
p242
F1
sVguard-and-inspection
p243
F1
sVwaste,
p244
F1
sVblaster,
p245
F1
sVdisappearing
p246
F1
sV"since
p247
F2
sVthick
p248
F1
sVelectronic
p249
F2
sVpower.
p250
F1
sVhell!"
p251
F1
sVtop
p252
F2
sVhawks
p253
F1
sVgirls
p254
F17
sV"perhaps
p255
F1
sVstiffened
p256
F1
sVfactory's
p257
F1
sVtoo
p258
F8
sVtom
p259
F1
sVlegs
p260
F1
sVbitter
p261
F2
sVsure.
p262
F1
sVwas:
p263
F1
sVvillages
p264
F1
sVthink--"
p265
F1
sVtook
p266
F5
sVdistant.
p267
F1
sVsomewhat
p268
F1
sV_the
p269
F1
sV"good
p270
F1
sVdistance
p271
F2
sVgrassy,
p272
F1
sVtree
p273
F1
sVseated
p274
F1
sVgirl.
p275
F2
sVidle
p276
F1
sVgirl,
p277
F2
sVto.
p278
F1
sVvogarians?"
p279
F1
sVfeeling
p280
F1
sVpowers
p281
F1
sVgodwin
p282
F1
sVhumble
p283
F1
sVthat?"
p284
F1
sVran
p285
F5
sV"sure.
p286
F1
sVmind
p287
F3
sVmine
p288
F1
sVraw
p289
F1
sVmanner
p290
F2
sVseen
p291
F3
sVseem
p292
F3
sVdozen
p293
F2
sVforced
p294
F2
sVgenuine
p295
F1
sVhauled
p296
F1
sVresponsible
p297
F1
sVisolated
p298
F1
sVthorough
p299
F2
sVmetallic
p300
F1
sVforces
p301
F1
sVeven
p302
F8
sVgirl's
p303
F1
sVliterally,
p304
F1
sVthough
p305
F3
sV"...
p306
F3
sVobject
p307
F2
sVmannerisms
p308
F1
sVcommanding
p309
F1
sVretaining
p310
F1
sVshalt
p311
F1
sVdoor,
p312
F1
sVflow
p313
F1
sVcalmness
p314
F1
sVdeeply
p315
F1
sVcottage,
p316
F1
sVsubject:
p317
F1
sVcottage.
p318
F1
sVcame
p319
F16
sVreserve
p320
F1
sVsaying
p321
F1
sVsanctuary
p322
F5
sVunmistakable
p323
F1
sVchore
p324
F1
sVrespectfully
p325
F2
sVdangerous.
p326
F1
sVunderstandable.
p327
F1
sVblotting
p328
F1
sVhim.
p329
F6
sVexecution
p330
F1
sVbusy
p331
F2
sVundignified
p332
F1
sVprisoners."
p333
F1
sVguidance
p334
F1
sVfolded
p335
F1
sVthem._
p336
F2
sVcommandment
p337
F1
sVtouched
p338
F1
sVrich
p339
F1
sVenslave
p340
F2
sVanger.
p341
F1
sVrefined."
p342
F1
sVdo
p343
F19
sVabove
p344
F1
sVlightening
p345
F1
sVhostility
p346
F1
sVconduct
p347
F1
sVstop
p348
F1
sVthem."
p349
F1
sVnew
p350
F2
sVdr
p351
F1
sVemergency."
p352
F1
sVchild
p353
F1
sVsky,
p354
F2
sVmen:
p355
F1
sVreturn._
p356
F1
sVsheep,"
p357
F1
sVproduced,
p358
F1
sVmen,
p359
F2
sVtwice
p360
F1
sVmen.
p361
F2
sVmultitude
p362
F1
sVsituation,
p363
F1
sVrelease
p364
F1
sVthem.
p365
F4
sVthem,
p366
F1
sVsecretary
p367
F4
sVother."
p368
F1
sVdo?"
p369
F1
sVuninhabited
p370
F1
sVradium
p371
F1
sVobserved
p372
F2
sVlaughing,
p373
F1
sVdecided
p374
F2
sVpulpit--everybody
p375
F1
sVflashed
p376
F1
sV_we
p377
F3
sVdisturbing
p378
F1
sVevils--and
p379
F1
sVbest
p380
F1
sVsubject
p381
F1
sVimmediately,"
p382
F1
sVsaid
p383
F15
sVforce...."_
p384
F1
sVface,
p385
F3
sVface.
p386
F4
sV"oh
p387
F3
sV"try
p388
F1
sVovergrown
p389
F1
sVlighted.
p390
F1
sVfinger
p391
F2
sVcourteous,
p392
F1
sVhandwritten
p393
F1
sVwe
p394
F31
sVmen
p395
F17
sVterms
p396
F1
sVblaster
p397
F1
sVfuming,
p398
F1
sVweary
p399
F1
sVgraver's
p400
F5
sVnow."
p401
F1
sVextent
p402
F2
sVdefiance
p403
F1
sVnews
p404
F1
sVflowering
p405
F1
sVenemy?"
p406
F1
sVcatalytic
p407
F1
sVsuggested
p408
F1
sVranges
p409
F1
sVsimply-furnished
p410
F1
sVagainst
p411
F4
sVamazing
p412
F1
sVemerald
p413
F3
sVvogar."
p414
F2
sVplanned
p415
F1
sVcritical,
p416
F1
sVasked
p417
F3
sVstep,
p418
F1
sVtwenty-three
p419
F1
sV"please
p420
F1
sV"any
p421
F1
sV"and
p422
F7
sVgleaming
p423
F1
sVprofusely.
p424
F1
sVcommands,
p425
F1
sVholstered
p426
F2
sVspeak
p427
F6
sV"you
p428
F14
sVcondemned
p429
F2
sVsecretary--her
p430
F1
sVpatrolling
p431
F1
sVthree
p432
F1
sVbeen
p433
F23
sVquickly
p434
F1
sVbeer
p435
F1
sVstartled
p436
F1
sVinterest
p437
F2
sVexpected
p438
F3
sVduties
p439
F1
sVobtained
p440
F1
sVso-called
p441
F1
sVspring,
p442
F1
sVeastern
p443
F1
sVconcerning
p444
F1
sVsunshine
p445
F1
sVworker
p446
F1
sVbroke--"am
p447
F1
sVtime?"
p448
F2
sVpersonally
p449
F1
sVworked
p450
F1
sVapplied
p451
F1
sVhas
p452
F6
sVtank
p453
F2
sVpublicly
p454
F1
sVplans,
p455
F1
sVair
p456
F5
sVlesser
p457
F1
sVugly
p458
F1
sVfriendliness.
p459
F1
sVsuppose
p460
F1
sVapplies
p461
F1
sVvoice
p462
F1
sVnatives
p463
F3
sVrugged,
p464
F1
sVthought,
p465
F1
sVseven
p466
F4
sV"a
p467
F3
sVcollectivization
p468
F1
sVis
p469
F41
sVcharacter.
p470
F1
sVit
p471
F63
sVgirls,
p472
F2
sVtiny
p473
F1
sVgirls.
p474
F2
sVin
p475
F95
sVsaid,
p476
F17
sVsaid.
p477
F22
sVif
p478
F21
sVdawned,
p479
F1
sVcontaining
p480
F1
sV"well--the
p481
F1
sVthings
p482
F2
sVmake
p483
F6
sVwound
p484
F1
sVfuel,
p485
F1
sVbeside
p486
F1
sVcomplex
p487
F1
sVsilly
p488
F2
sVseveral
p489
F1
sVjerked
p490
F1
sV"_marriage?_"
p491
F1
sVswell
p492
F1
sVpick
p493
F2
sVevil
p494
F1
sVgreeted
p495
F1
sValkoria
p496
F1
sVinsisted
p497
F2
sVhe'll
p498
F1
sVthoughts
p499
F1
sVday-and-night
p500
F1
sVwispy
p501
F1
sVshortly
p502
F1
sVbrenn,
p503
F1
sVbrenn.
p504
F1
sVefficient
p505
F1
sVchronometer
p506
F2
sVgreatest
p507
F1
sVthe
p508
F454
sVyours
p509
F1
sVleft
p510
F2
sVmingle
p511
F1
sVjust
p512
F6
sVunfair
p513
F1
sVcrew
p514
F1
sVfarther
p515
F1
sVbreak.
p516
F1
sVfollowed
p517
F2
sVyet
p518
F1
sVhills
p519
F1
sVoffice.
p520
F5
sVregarded
p521
F2
sVoffice,
p522
F2
sVhad
p523
F54
sVtired.
p524
F1
sVboard
p525
F1
sVprison
p526
F2
sVpointing
p527
F1
sVsave
p528
F1
sVgave
p529
F4
sVago,
p530
F1
sVfact,
p531
F3
sVsteak--it
p532
F1
sVimplies.
p533
F1
sVbirth
p534
F1
sVonce."
p535
F1
sVdesire
p536
F2
sVmelting
p537
F1
sV"graver
p538
F1
sVdisarray--and
p539
F1
sVperforming
p540
F1
sVbelong,
p541
F1
sVremind
p542
F1
sVsteps
p543
F1
sVofficer
p544
F1
sVnight
p545
F2
sVcollar,
p546
F1
sVcraned
p547
F1
sVunexplored
p548
F1
sVfuel--the
p549
F1
sVright
p550
F1
sVold
p551
F13
sVdeal
p552
F1
sV_do
p553
F2
sV"that's
p554
F2
sVsomehow
p555
F1
sVdead
p556
F1
sV"i've
p557
F1
sVleft.
p558
F1
sVdone."
p559
F1
sVore.
p560
F1
sVmines--but
p561
F1
sVfor
p562
F70
sVdeserted--
p563
F1
sVbold,
p564
F1
sVsunshine.
p565
F1
sVcluster--and
p566
F1
sVeverything
p567
F3
sVfallen.
p568
F1
sVuncomfortable,
p569
F1
sVroadless
p570
F1
sVpondered
p571
F1
sVape!"
p572
F1
sVson."
p573
F1
sVparagraph.
p574
F1
sVproduction.
p575
F1
sV"father
p576
F3
sVlosing
p577
F1
sVbury
p578
F1
sVfull-scale,
p579
F1
sVshaken
p580
F1
sVrestlessness
p581
F2
sVfrightened,
p582
F1
sVafternoon,
p583
F2
sVafternoon
p584
F2
sVdone
p585
F2
sVazure
p586
F5
sVislands
p587
F2
sVglowering
p588
F1
sVores
p589
F3
sVfaint
p590
F2
sVplump,
p591
F1
sVlied
p592
F1
sVpresence
p593
F1
sVprisoners
p594
F1
sVpreliminary
p595
F1
sV"hurry
p596
F1
sVdown
p597
F6
sVoccurred,
p598
F1
sVrefined
p599
F1
sVeast
p600
F1
sVpanel.
p601
F1
sVamazingly
p602
F1
sVcatlike
p603
F1
sVpeople
p604
F1
sVhumble,
p605
F1
sVliquidated
p606
F1
sVfight
p607
F3
sV"yesterday
p608
F1
sVvirgin
p609
F1
sVway
p610
F7
sVviewpoint.
p611
F1
sV"although
p612
F2
sVsaid?"
p613
F1
sVhim."
p614
F2
sVwas
p615
F96
sVwar
p616
F6
sVbecame
p617
F1
sVhead
p618
F4
sVbeehive.
p619
F1
sVoffer
p620
F2
sVbecoming
p621
F1
sVgleam
p622
F1
sVcotton-puff
p623
F1
sVfailure
p624
F1
sVlow
p625
F1
sVastonished
p626
F1
sVresentful.
p627
F1
sVremoved
p628
F2
sVhands,
p629
F1
sVbilly--the
p630
F1
sVinside
p631
F1
sVhave."
p632
F1
sVmaximum
p633
F1
sVtell
p634
F9
sVopen-air
p635
F1
sVwait.
p636
F1
sVtime,"
p637
F1
sVprayed
p638
F2
sV_it
p639
F1
sVfool,"
p640
F1
sVfury
p641
F1
sVtoss
p642
F1
sVevidence
p643
F2
sVship
p644
F14
sVsimply,
p645
F1
sVboard."
p646
F1
sVastonishing
p647
F2
sVno
p648
F23
sVwhen
p649
F21
sVhanded
p650
F1
sV"when
p651
F1
sVtie
p652
F1
sVvanished
p653
F1
sVroll
p654
F2
sVloring.
p655
F1
sVdelivered
p656
F1
sVfelt
p657
F4
sVpolite
p658
F1
sVfell
p659
F1
sVdark.
p660
F1
sVflushed
p661
F1
sVaware
p662
F3
sVdied
p663
F2
sVeffort,
p664
F1
sVworkers,
p665
F1
sVlonger
p666
F2
sVphone
p667
F1
sVchauvinist,
p668
F1
sVtogether
p669
F2
sVbook-laden
p670
F1
sVtime
p671
F15
sVbackward
p672
F1
sVprivilege
p673
F1
sVmountains,
p674
F2
sVhope
p675
F1
sVcustomary
p676
F1
sVmedicine."
p677
F1
sVice
p678
F1
sVbattle
p679
F1
sVthis,"
p680
F1
sVfatigue.
p681
F1
sVscowling
p682
F1
sVsuicide
p683
F2
sVgrapples
p684
F1
sVedict,
p685
F1
sVfather
p686
F4
sVbordered
p687
F1
sVexhausted."
p688
F1
sVpassage
p689
F1
sVanswered
p690
F1
sVfinally
p691
F1
sVaccept,
p692
F1
sVdalon's
p693
F5
sVbrown
p694
F1
sV"vogarian
p695
F1
sVbrows
p696
F1
sVpious
p697
F1
sVminute
p698
F3
sVroom
p699
F2
sVsighed
p700
F1
sVimpressive
p701
F1
sVdid
p702
F7
sVdig
p703
F1
sVaccidentally
p704
F1
sVleave
p705
F3
sVunaware
p706
F1
sVdetermination:
p707
F1
sVupper
p708
F1
sVunexpected
p709
F1
sVwhy?"
p710
F1
sV"these
p711
F2
sVuniverse.
p712
F1
sVhelpless
p713
F1
sVrunning,
p714
F1
sVfear
p715
F1
sVtarried
p716
F1
sVtroops
p717
F2
sVassistance
p718
F1
sVuniform
p719
F2
sVlazily
p720
F1
sVhairy
p721
F1
sVship's
p722
F1
sVsunsuit.
p723
F1
sVmean...."
p724
F1
sV"would
p725
F1
sVabandon
p726
F1
sVchurch--"
p727
F1
sVgroups
p728
F2
sVhadn't
p729
F1
sValong
p730
F2
sVsay,
p731
F1
sVchange
p732
F4
sVimpatiently
p733
F1
sVhealthy
p734
F1
sVshift
p735
F1
sVwherever
p736
F1
sVintelligence,
p737
F1
sVbow
p738
F1
sVanybody's
p739
F1
sVsuggestion
p740
F1
sVhere,
p741
F2
sVusually
p742
F2
sVbeautiful,
p743
F2
sVinsolent
p744
F1
sVextra
p745
F1
sVbeer.
p746
F1
sVlogical
p747
F2
sVimpractical,
p748
F2
sVprison-like
p749
F1
sV"my
p750
F5
sVsweating
p751
F1
sVsunbathing
p752
F1
sVworking
p753
F2
sV"those
p754
F1
sVpermitted
p755
F2
sVbelieve,
p756
F1
sVopposed
p757
F1
sVwondering
p758
F1
sVmemory
p759
F1
sVorganization.
p760
F1
sVsoft,
p761
F1
sVsoft.
p762
F1
sVapparent
p763
F1
sVsinful
p764
F1
sVcommissioned
p765
F1
sVyou._
p766
F1
sVhesitated
p767
F1
sVquickly,
p768
F1
sVfly
p769
F1
sVand,
p770
F1
sVsanctified
p771
F1
sVcaw
p772
F1
sVinside.
p773
F2
sVinside,
p774
F1
sVpurge
p775
F1
sVoverheard
p776
F2
sVcan
p777
F21
sVy'nor's
p778
F5
sVdetached
p779
F1
sVeasily."
p780
F1
sVnearest
p781
F2
sVhour--i
p782
F1
sVhours.
p783
F2
sVdidn't
p784
F3
sVconfused
p785
F1
sVheard
p786
F3
sVharmless?
p787
F1
sVdropped
p788
F2
sV"tomorrow
p789
F1
sVclothing.
p790
F1
sVstole
p791
F1
sVkindness.
p792
F1
sVtake-off.
p793
F1
sVconquest.
p794
F1
sVrays
p795
F1
sVwatching
p796
F3
sVglumly.
p797
F1
sVstrikingly
p798
F1
sVemotionless
p799
F1
sVspeaks
p800
F1
sV_church,
p801
F1
sV"should
p802
F2
sVirrational
p803
F1
sV"there's
p804
F1
sVmay
p805
F3
sVprocess."
p806
F1
sVproduce
p807
F4
sVmined.
p808
F1
sVcommit
p809
F1
sVsuch
p810
F4
sVman
p811
F15
sVnatural
p812
F1
sVneck
p813
F2
sVmaybe
p814
F2
sVdark-shadowed
p815
F1
sVinform
p816
F1
sVdarkened
p817
F1
sVso
p818
F11
sVhilltop
p819
F2
sVgesture
p820
F1
sVtypical
p821
F1
sVcruiser's
p822
F4
sVpointed
p823
F1
sVbeachville,"
p824
F1
sVyears
p825
F2
sVview,
p826
F1
sVcold
p827
F2
sVstill
p828
F9
sVbirds
p829
F1
sVcorner;
p830
F1
sVgroup
p831
F1
sVhe's
p832
F2
sVinteresting
p833
F1
sVtorn
p834
F1
sVcurls
p835
F1
sVvicinity
p836
F1
sVsuspicion
p837
F1
sVdangerously.
p838
F1
sV"oh,"
p839
F1
sVmain
p840
F1
sVlow,
p841
F1
sVwhirlpool
p842
F4
sVlonely
p843
F1
sVthereby
p844
F1
sVdrowsing
p845
F2
sVyear,
p846
F1
sVlunch
p847
F1
sVhalf
p848
F5
sVnot
p849
F42
sVleopards
p850
F1
sVnow
p851
F13
sVkilled
p852
F1
sVsaid:
p853
F2
sVpossess
p854
F1
sVterm
p855
F1
sVname
p856
F2
sVdays--"
p857
F1
sVi?"
p858
F1
sV_you_
p859
F1
sVpeered
p860
F1
sVexplored.
p861
F1
sVhalters.
p862
F1
sVstalling
p863
F1
sVrevised
p864
F2
sVhurried
p865
F3
sVoverhead,
p866
F1
sVsandwich
p867
F1
sVyear
p868
F1
sValoof
p869
F1
sVfriendship,"
p870
F1
sVgirl
p871
F7
sVcalling
p872
F1
sVsunrise
p873
F2
sVplans
p874
F1
sVliving
p875
F1
sVit,"
p876
F3
sVspace
p877
F1
sVabide
p878
F1
sVlooking
p879
F5
sVboundless
p880
F1
sVbeachville
p881
F1
sVshouldn't
p882
F1
sV"you'll
p883
F1
sVthin,
p884
F1
sVwhy."
p885
F1
sVdoing."
p886
F1
sVintended
p887
F1
sVcrewmen,
p888
F1
sVchallenge.
p889
F1
sV"seven
p890
F1
sVspied
p891
F1
sVyou?"
p892
F1
sVinevitable
p893
F2
sVforbids
p894
F1
sVability.
p895
F1
sVchurches._
p896
F1
sVnude,
p897
F1
sVbarberis
p898
F1
sV"how
p899
F1
sVoperation."
p900
F1
sVthing
p901
F1
sVplace
p902
F4
sVsilently
p903
F1
sVtension,
p904
F1
sV"_bon
p905
F1
sVpistol,"
p906
F1
sVthink
p907
F9
sVfirst
p908
F6
sVblind
p909
F1
sVmercy.
p910
F1
sVsurviving
p911
F1
sVfleeing
p912
F2
sVspoken
p913
F1
sVstared,
p914
F1
sVcoming
p915
F1
sVyourself
p916
F1
sVsoaring
p917
F1
sVdirectly
p918
F1
sVcarry
p919
F2
sVstayed--"
p920
F1
sVjob."
p921
F1
sVgiven
p922
F2
sVsheet
p923
F1
sVsilent
p924
F2
sVdecision.
p925
F1
sVbite
p926
F1
sVslept
p927
F1
sVanyone
p928
F2
sVplains
p929
F1
sVpersecute
p930
F1
sVwhite
p931
F4
sVsabotage.
p932
F1
sVspeaking
p933
F1
sVgives
p934
F1
sV"let
p935
F2
sVeyes
p936
F10
sVfuel?"
p937
F1
sVon,
p938
F2
sVthat
p939
F108
sVhum
p940
F1
sVmen's
p941
F1
sV"there
p942
F3
sVoriginal.
p943
F1
sVflowers
p944
F1
sVthan
p945
F13
sVpopulation
p946
F1
sVwide
p947
F3
sVplain,
p948
F2
sVdawn.
p949
F2
sVfuture
p950
F2
sVwere
p951
F35
sV"want
p952
F1
sVjulia--it's
p953
F1
sVand
p954
F198
sVturned
p955
F4
sV"free?
p956
F1
sVeloquent.
p957
F1
sVvoices
p958
F2
sVsay
p959
F4
sVcoming.
p960
F1
sVsaw
p961
F9
sVany
p962
F11
sVdamage."
p963
F1
sVbrenn,"
p964
F2
sVwarriors
p965
F1
sVshocked
p966
F1
sVrevealed--"you
p967
F1
sVnote
p968
F1
sVequipment
p969
F1
sVsir!"
p970
F1
sVpotential
p971
F1
sVtake
p972
F4
sVinterior
p973
F1
sVdestroy
p974
F2
sVjob,"
p975
F1
sVfrail,
p976
F1
sVjeering
p977
F1
sVsunsuits
p978
F1
sVcloser
p979
F1
sVsure
p980
F2
sVtrace
p981
F1
sVnormal
p982
F1
sVknew
p983
F1
sVafternoon.
p984
F1
sVvoice.
p985
F2
sVhesitated.
p986
F1
sVknee
p987
F1
sVespecially
p988
F2
sVconsidered
p989
F2
sV"no,"
p990
F3
sVlater
p991
F2
sVsale
p992
F1
sVidea.
p993
F1
sV_thou
p994
F1
sVprepare
p995
F1
sVlaws
p996
F2
sVwalking
p997
F2
sVshot
p998
F1
sVbitter,
p999
F1
sVshow
p1000
F3
sVfifty
p1001
F1
sVdiscovered
p1002
F1
sVbright
p1003
F3
sVline
p1004
F2
sVfifth
p1005
F1
sValkoria.
p1006
F1
sVtrue
p1007
F2
sVsaints
p1008
F8
sVonly
p1009
F19
sVgoing
p1010
F10
sVblack
p1011
F2
sVseen,
p1012
F1
sVget
p1013
F12
sVspace.
p1014
F1
sVtruly
p1015
F1
sValkorian
p1016
F4
sVrule?"
p1017
F1
sVofficers."
p1018
F1
sVmorning
p1019
F2
sVdays?"
p1020
F1
sVpaper
p1021
F2
sVpredicted
p1022
F1
sVuncover
p1023
F1
sVwhere
p1024
F11
sVvision
p1025
F1
sVdown,
p1026
F1
sVstreets.
p1027
F1
sVable-bodied,
p1028
F1
sV"come
p1029
F1
sVhurt,
p1030
F1
sVasked,
p1031
F4
sVarrows."
p1032
F1
sVencouraged
p1033
F1
sVall."
p1034
F2
sVdalon.
p1035
F2
sVdalon,
p1036
F2
sVsubsequent
p1037
F1
sVeluded
p1038
F1
sVweapons
p1039
F3
sVenough
p1040
F2
sVbetween
p1041
F6
sVman,
p1042
F4
sVacross
p1043
F2
sVanyway,
p1044
F1
sVdome
p1045
F1
sVconcentrate
p1046
F1
sVadvised.
p1047
F1
sV_despite
p1048
F1
sVcome
p1049
F6
sVdesert--and
p1050
F1
sVpanels
p1051
F1
sV"because
p1052
F1
sVmany
p1053
F6
sVregion
p1054
F1
sVwest,
p1055
F1
sVrepresentative.
p1056
F1
sVunforeseen
p1057
F1
sVtour
p1058
F1
sVway.
p1059
F1
sV"for
p1060
F2
sVbunks
p1061
F1
sVcan't
p1062
F2
sVnearby
p1063
F2
sVduty
p1064
F1
sVamong
p1065
F8
sV"scared
p1066
F1
sVefficient.
p1067
F1
sVcolony
p1068
F1
sVperiod
p1069
F1
sVresentment
p1070
F2
sVgaiety
p1071
F1
sVthing."
p1072
F1
sVordered
p1073
F2
sVcomprehend
p1074
F1
sVsensible
p1075
F1
sVbrainwashing
p1076
F1
sVpenalty,"
p1077
F1
sVwink,
p1078
F1
sVpeaceful
p1079
F2
sVhelicopter
p1080
F1
sVwants
p1081
F2
sVoffered
p1082
F1
sVsuns,
p1083
F1
sVmocking
p1084
F1
sVwake
p1085
F1
sV"who
p1086
F2
sVafterward,
p1087
F1
sVstealth
p1088
F1
sVweeks
p1089
F1
sVthose
p1090
F4
sVsound
p1091
F3
sVthese
p1092
F7
sVordered.
p1093
F1
sVtrick
p1094
F1
sVstraighter
p1095
F1
sVhaven't
p1096
F2
sVmultiple-gallows
p1097
F1
sVlife.
p1098
F1
sV5-a._
p1099
F1
sVtaking
p1100
F3
sVmining
p1101
F1
sVduties.
p1102
F1
sVcrewman
p1103
F1
sVthen
p1104
F12
sVsurveying
p1105
F1
sV"i,
p1106
F2
sVcommander
p1107
F13
sVcouples
p1108
F1
sVcluster
p1109
F1
sVasking
p1110
F1
sVdangerously
p1111
F1
sVwisely
p1112
F1
sVworry
p1113
F1
sVdifferent
p1114
F1
sVharsh
p1115
F1
sVpay
p1116
F2
sVheart--they
p1117
F1
sVreminded
p1118
F1
sVworld--i'll
p1119
F1
sVsame
p1120
F6
sVit."
p1121
F3
sVshifts
p1122
F1
sVbows
p1123
F1
sVstepped
p1124
F2
sVcarnivora
p1125
F1
sVweek
p1126
F1
sVendanger
p1127
F1
sVmovement.
p1128
F1
sVfinish
p1129
F1
sVcenturies
p1130
F1
sVdriver
p1131
F2
sVdrives
p1132
F1
sVcluster--y'nor
p1133
F1
sVfavorites
p1134
F1
sVsaluted;
p1135
F1
sVpsychiatrists
p1136
F1
sVpurposeful
p1137
F1
sVfloor
p1138
F2
sVknow
p1139
F12
sVsevere
p1140
F2
sVwithout
p1141
F2
sVrelief
p1142
F1
sV_maybe
p1143
F1
sVshut.
p1144
F1
sVbodies
p1145
F1
sVsir."
p1146
F9
sVrule:
p1147
F1
sVrule?
p1148
F1
sVexecuted."
p1149
F1
sVbristle
p1150
F1
sVbeing
p1151
F9
sVbattleship
p1152
F1
sVgesture.
p1153
F1
sVactions
p1154
F1
sVviolent
p1155
F1
sVkill
p1156
F4
sVrule,
p1157
F1
sVask."
p1158
F1
sVhundred-day
p1159
F1
sVspeed
p1160
F2
sVcaptured
p1161
F1
sVhalfway
p1162
F1
sVdeath
p1163
F1
sVrecall.
p1164
F1
sVprovocatively
p1165
F1
sVthinking
p1166
F1
sVrose
p1167
F1
sVpossible,
p1168
F1
sVexcept
p1169
F1
sVway!"
p1170
F1
sVthousand
p1171
F4
sVdo--you
p1172
F1
sVextensive
p1173
F1
sVaround
p1174
F5
sVlarue?"
p1175
F1
sVread
p1176
F4
sVteasing
p1177
F1
sVdark
p1178
F3
sVsurrender.
p1179
F1
sVsorry,
p1180
F1
sVworld
p1181
F5
sVsuch."
p1182
F1
sVvague
p1183
F1
sVgate,
p1184
F1
sVwar?"
p1185
F1
sVrule._
p1186
F1
sVclad
p1187
F1
sVwordless
p1188
F1
sVgreeting
p1189
F1
sV_seven_
p1190
F1
sVsternly
p1191
F1
sVfull-scale
p1192
F1
sVeither
p1193
F1
sVwoman,
p1194
F1
sVfrontier?"
p1195
F1
sVtwelve
p1196
F1
sVsatisfactory
p1197
F1
sVjoking
p1198
F1
sVexposed
p1199
F1
sVharems_--"
p1200
F1
sVsoothingly.
p1201
F1
sVtable
p1202
F2
sVmood
p1203
F1
sVscuffed
p1204
F1
sVmemories
p1205
F2
sVmoon
p1206
F1
sVomen.
p1207
F1
sVcritical
p1208
F1
sVguards--how
p1209
F1
sV"kind?
p1210
F1
sVthink,
p1211
F1
sVwelcome
p1212
F1
sVassembly
p1213
F1
sVwomen?"
p1214
F1
sVbusiness
p1215
F1
sVseconds
p1216
F1
sVpoise
p1217
F1
sVbroken
p1218
F1
sVsir,"
p1219
F3
sVsixty
p1220
F2
sVdenied.
p1221
F1
sVfondness
p1222
F1
sVon
p1223
F40
sVcentral
p1224
F1
sV_some
p1225
F1
sVoh
p1226
F1
sVisland
p1227
F1
sVunderstanding:
p1228
F1
sVwolf
p1229
F1
sVwatched,
p1230
F1
sVit's
p1231
F5
sVout,
p1232
F1
sVor
p1233
F7
sVroad
p1234
F1
sVmonster?"
p1235
F1
sVominous
p1236
F1
sVbarbara--would
p1237
F1
sVagreed.
p1238
F1
sVsub-ensign
p1239
F2
sVrising
p1240
F1
sVlonging,
p1241
F1
sV"beyond
p1242
F1
sVyour
p1243
F30
sVmorning.
p1244
F2
sVmental
p1245
F1
sVstare
p1246
F1
sVtropical
p1247
F2
sVrumbled
p1248
F2
sVarea
p1249
F1
sVassumed
p1250
F1
sVair-conditioner,
p1251
F1
sVstart
p1252
F1
sVappeared;
p1253
F1
sVfutile
p1254
F1
sVlot
p1255
F1
sVanother:
p1256
F1
sVyou,
p1257
F7
sVword."
p1258
F1
sV"individual
p1259
F1
sV"i'm
p1260
F3
sVprotest:
p1261
F1
sVit?"
p1262
F5
sV"what's
p1263
F2
sVpreceded
p1264
F1
sVanother,
p1265
F1
sVcottage
p1266
F3
sVprotest.
p1267
F1
sVtrying
p1268
F2
sVwith
p1269
F60
sV"yes--i
p1270
F1
sVthey're
p1271
F2
sVrush
p1272
F1
sVwasn't
p1273
F2
sVuncompleted,
p1274
F1
sVbloody,
p1275
F2
sVdeadline,
p1276
F1
sV"it's
p1277
F4
sVtones
p1278
F2
sVhe,
p1279
F1
sVgrass
p1280
F1
sVagree
p1281
F1
sVaffection
p1282
F2
sVexpect
p1283
F2
sVgone
p1284
F3
sVcertain
p1285
F2
sVam
p1286
F2
sVdeep
p1287
F3
sVan
p1288
F20
sVwords.
p1289
F1
sVas
p1290
F59
sVat
p1291
F37
sVsub-ensigns.
p1292
F1
sVwatched
p1293
F2
sVwill--"
p1294
F1
sVagain
p1295
F3
sV"we'll
p1296
F1
sVgenial.
p1297
F1
sVpersonnel
p1298
F3
sVvine.
p1299
F1
sVlooked,
p1300
F1
sVyou
p1301
F100
sVdismayed
p1302
F1
sVfriendship."
p1303
F1
sVrequested
p1304
F1
sV"well?"
p1305
F1
sVannex
p1306
F1
sVchurch--what
p1307
F1
sV"resisting
p1308
F1
sVyou._"
p1309
F1
sVagain--but
p1310
F1
sVdesk,"
p1311
F1
sVhaircuts,
p1312
F1
sVremote
p1313
F1
sVcalls
p1314
F2
sVtrouble--and
p1315
F1
sVvines
p1316
F1
sVsounded
p1317
F2
sVpassed
p1318
F1
sVtrudging
p1319
F1
sV"exactly
p1320
F1
sVdriver.
p1321
F1
sVfinally,
p1322
F1
sVall
p1323
F19
sVlarue
p1324
F10
sVdepends
p1325
F2
sVcaused
p1326
F1
sVforbidden
p1327
F1
sVlack
p1328
F3
sV"hush,
p1329
F1
sVweariness
p1330
F1
sVbreath
p1331
F1
sVfounded
p1332
F1
sVfollow
p1333
F1
sVresearch
p1334
F1
sVreligious
p1335
F1
sVcauses
p1336
F1
sVreferring
p1337
F1
sVduty.
p1338
F2
sVmuttering,
p1339
F1
sVdusty,
p1340
F1
sVopportunities
p1341
F1
sVformer
p1342
F2
sVto
p1343
F238
sVsmile
p1344
F2
sVcrews;
p1345
F1
sVdecision,
p1346
F1
sVoverpowered
p1347
F1
sVsitting
p1348
F2
sVvery
p1349
F10
sV"he
p1350
F1
sVresults
p1351
F1
sV"every
p1352
F1
sVsurprise
p1353
F2
sVtomorrow.
p1354
F1
sVwe--"
p1355
F1
sVtomorrow,
p1356
F1
sVtour;
p1357
F1
sVislands,
p1358
F1
sVthink?"
p1359
F2
sValien
p1360
F1
sVheaven
p1361
F1
sVremoved?"
p1362
F1
sVlaying
p1363
F1
sVjoined
p1364
F1
sVplain
p1365
F2
sVsmall
p1366
F5
sVnine.
p1367
F1
sVknow--"
p1368
F1
sVtrapdoors--"
p1369
F1
sVwithheld
p1370
F1
sVthen."
p1371
F1
sVever--was
p1372
F1
sVpast
p1373
F3
sVquiet,
p1374
F1
sVtitles
p1375
F1
sVfurther
p1376
F3
sVconscience
p1377
F1
sVwhat
p1378
F12
sVnecessary.
p1379
F2
sVstood
p1380
F3
sVhim;
p1381
F2
sVwitnessed
p1382
F1
sVsun
p1383
F3
sVsection
p1384
F1
sVcolorless
p1385
F1
sVbrief
p1386
F1
sVsandals,
p1387
F1
sVfaltered
p1388
F2
sVhim,
p1389
F7
sVcompetence,"
p1390
F1
sVlearned
p1391
F1
sVgolden-spired
p1392
F1
sVwell--they
p1393
F1
sVhim!
p1394
F1
sVfull
p1395
F1
sVinstallations
p1396
F1
sVhours
p1397
F7
sVanticipation
p1398
F1
sVoperating
p1399
F1
sVlanded.
p1400
F1
sVsituation
p1401
F4
sVwhite-bearded
p1402
F1
sVdepend
p1403
F1
sVraggedly
p1404
F1
sVsearch
p1405
F1
sVahead
p1406
F2
sVattitude.
p1407
F1
sVwhine
p1408
F1
sVqualify
p1409
F1
sVexperience
p1410
F1
sVperson's
p1411
F1
sV"but,
p1412
F2
sVsocial
p1413
F1
sVdisintegrators
p1414
F1
sVday's
p1415
F1
sVbest."
p1416
F1
sVmurmur
p1417
F1
sVflight?"
p1418
F1
sVsuddenly
p1419
F3
sVstrolling
p1420
F1
sV"let's
p1421
F1
sVask
p1422
F3
sVknow.
p1423
F1
sVknow,
p1424
F4
sVarmed
p1425
F1
sVferns.
p1426
F1
sVhawks,
p1427
F2
sV"have
p1428
F1
sVbeginning
p1429
F1
sVall,"
p1430
F1
sVvogarian
p1431
F18
sVtwo
p1432
F6
sVup?"
p1433
F1
sVtones.
p1434
F1
sVunpleasant
p1435
F3
sVcoolness:
p1436
F1
sVone?"
p1437
F1
sVtaken
p1438
F1
sVmore
p1439
F15
sVflat
p1440
F1
sVdoor
p1441
F1
sVgrimly
p1442
F1
sVview-screen
p1443
F1
sVroasters.
p1444
F1
sVexcuse
p1445
F2
sVcommenced
p1446
F1
sVbroke
p1447
F1
sVknown
p1448
F2
sVgold
p1449
F1
sVhurry
p1450
F1
sVproducing
p1451
F1
sVglad
p1452
F1
sVtown
p1453
F8
sVkeeping
p1454
F1
sVhour
p1455
F3
sVshielded
p1456
F1
sVmodesty.
p1457
F2
sV_"...
p1458
F1
sVguards
p1459
F8
sVdebated
p1460
F1
sVresources
p1461
F2
sVlearn
p1462
F3
sVknocked
p1463
F1
sVslowly.
p1464
F1
sVappearance,
p1465
F1
sVbeautiful
p1466
F2
sVstubborn
p1467
F1
sVaccept
p1468
F2
sVassume--if
p1469
F1
sVpushed
p1470
F2
sVminimum
p1471
F1
sVhours,
p1472
F1
sVsense
p1473
F3
sVswung
p1474
F1
sVfirmly
p1475
F1
sVhuge
p1476
F2
sVrather
p1477
F1
sVvogarians.
p1478
F1
sVdismissed
p1479
F2
sVeat.
p1480
F1
sVpremonition.
p1481
F1
sValkoria?"
p1482
F1
sVspluttered
p1483
F1
sVplant
p1484
F10
sVaffected.
p1485
F1
sVgalactic
p1486
F1
sVtried
p1487
F4
sVfuzzily,
p1488
F1
sVaway."
p1489
F1
sVfirst--our
p1490
F1
sVstate.
p1491
F1
sVcommand."
p1492
F1
sVcareened,
p1493
F1
sVplane
p1494
F1
sVaffected:
p1495
F1
sVinconceivable
p1496
F1
sVa
F187
sVshort
p1497
F8
sVdeserter
p1498
F1
sVchange.
p1499
F1
sVshady
p1500
F1
sVdeserted
p1501
F1
sV"about
p1502
F2
sVwrench
p1503
F1
sVpleasure
p1504
F1
sVcalm,
p1505
F1
sVhesitated,
p1506
F1
sVagain.
p1507
F5
sVthat's
p1508
F1
sVhelp
p1509
F5
sVdon't
p1510
F9
sV"if
p1511
F2
sVsoon
p1512
F1
sVheld
p1513
F3
sVattitude
p1514
F1
sValready
p1515
F4
sVthrough
p1516
F8
sVcommitted
p1517
F1
sV"it
p1518
F5
sVits
p1519
F6
sVgray-haired
p1520
F1
sVtantalizingly
p1521
F1
sVpray
p1522
F1
sVcontinued
p1523
F1
sVcourse,
p1524
F1
sVgentleness.
p1525
F1
sVlate
p1526
F2
sVharmless
p1527
F2
sVcool
p1528
F1
sVmight
p1529
F4
sVsabotage."
p1530
F1
sVit.
p1531
F2
sVit,
p1532
F4
sVevening
p1533
F2
sVreturn
p1534
F4
sVentire
p1535
F1
sVship?"
p1536
F2
sVproclaimed:
p1537
F1
sVit!
p1538
F1
sVobeyed
p1539
F1
sVhanged,
p1540
F1
sVclouds
p1541
F1
sVassociation
p1542
F1
sVgreat,
p1543
F1
sVgets
p1544
F2
sValways
p1545
F1
sVtear
p1546
F1
sVsomeone
p1547
F2
sVforce,
p1548
F2
sVstopped
p1549
F6
sValso,
p1550
F1
sVfound
p1551
F6
sVpossession.
p1552
F1
sVisn't
p1553
F3
sV"florence,
p1554
F1
sVanother
p1555
F5
sVhard
p1556
F4
sVidea
p1557
F1
sVgun
p1558
F1
sVdo--which
p1559
F1
sVlove-sick
p1560
F1
sVbeyond
p1561
F7
sVincredible!"
p1562
F1
sVquick,
p1563
F1
sVreally
p1564
F2
sVstroked
p1565
F1
sValcohol
p1566
F1
sVsince
p1567
F5
sV"go
p1568
F2
sVinvisibility.
p1569
F1
sVbare-legged,
p1570
F1
sVhill
p1571
F2
sVend."
p1572
F1
sV"checking
p1573
F1
sVflame
p1574
F1
sVfarthest.
p1575
F1
sVsoulless
p1576
F1
sVguards.
p1577
F2
sVrisen
p1578
F1
sVcircumstance
p1579
F1
sVconfidence
p1580
F2
sVhorse
p1581
F1
sVponderous
p1582
F1
sVpleasant
p1583
F1
sVhouses
p1584
F1
sVreason
p1585
F1
sVmembers
p1586
F1
sVbrenn's
p1587
F11
sVreaction.
p1588
F1
sVbumped
p1589
F1
sV"she
p1590
F1
sVbarbara
p1591
F1
sV"larue
p1592
F1
sVuncertainly
p1593
F1
sVproperly,
p1594
F1
sVcircuit
p1595
F2
sV"i'll
p1596
F3
sVgazed
p1597
F1
sVseeming
p1598
F1
sVprevent
p1599
F1
sVtwisted
p1600
F1
sVelder
p1601
F1
sVtalked
p1602
F1
sVcyanide."
p1603
F1
sVthis?"
p1604
F1
sVtrembling.
p1605
F1
sVminutes.
p1606
F1
sVcommands."
p1607
F1
sVmiss
p1608
F1
sVpasses
p1609
F1
sVguess
p1610
F1
sVheads
p1611
F2
sVtemperature
p1612
F1
sVscript
p1613
F1
sVtwenty
p1614
F2
sVsaint
p1615
F2
sVgroup,
p1616
F1
sVhundred
p1617
F3
sVrecovered
p1618
F2
sVuniforms,
p1619
F1
sVpains
p1620
F1
sVuniforms.
p1621
F1
sVfrom,
p1622
F1
sVwildly
p1623
F1
sVneeded?"_
p1624
F1
sVpart
p1625
F3
sVbelieve
p1626
F4
sVconvinced
p1627
F1
sVkind
p1628
F4
sVson--but
p1629
F1
sVguards--my
p1630
F1
sVplace?"
p1631
F1
sVhang,
p1632
F1
sVmarriage
p1633
F1
sVsupposed
p1634
F1
sVhead.
p1635
F1
sVtoward
p1636
F3
sVscanners
p1637
F1
sVsentenced
p1638
F1
sVuniforms
p1639
F1
sVservice,
p1640
F1
sVexperience.
p1641
F1
sVmean?"
p1642
F1
sVdreamily
p1643
F1
sVdoubtfully.
p1644
F1
sVpacing
p1645
F4
sVwarning,
p1646
F2
sVorders
p1647
F1
sVagain._
p1648
F1
sVpaths
p1649
F1
sVi"--the
p1650
F1
sValso
p1651
F3
sVcoincide,
p1652
F1
sVbuild
p1653
F2
sVfrail
p1654
F1
sVfinding
p1655
F1
sVorder,
p1656
F1
sVreach
p1657
F3
sVunderstand_
p1658
F1
sVraucous
p1659
F1
sVplan
p1660
F2
sVfight.
p1661
F1
sVguns?"
p1662
F1
sVextremely
p1663
F1
sVtongue.
p1664
F1
sV"you're
p1665
F2
sVsometimes
p1666
F1
sVofficer,
p1667
F1
sVbulletin
p1668
F3
sVhips
p1669
F1
sVcruiser
p1670
F4
sVfollowed,
p1671
F2
sVscattered
p1672
F1
sVwelfare,
p1673
F1
sVdemanded.
p1674
F2
sVdemanded,
p1675
F2
sVenemy.
p1676
F1
sVfault."
p1677
F1
sVfind
p1678
F4
sVoccupation
p1679
F8
sVgiant
p1680
F1
sVcopyright
p1681
F1
sVjustice
p1682
F2
sVfreedom."
p1683
F1
sV"thank
p1684
F1
sVfailed
p1685
F1
sVpretty
p1686
F1
sVsleepy,
p1687
F1
sVboarding
p1688
F1
sVbrown-eyed
p1689
F4
sVhis
p1690
F79
sVhit
p1691
F1
sVmercy
p1692
F1
sVtrees
p1693
F2
sVresent
p1694
F1
sVwhistle
p1695
F1
sVfastest
p1696
F1
sVduring
p1697
F1
sVhim
p1698
F24
sVenemy
p1699
F2
sVresolve
p1700
F1
sVwaste?"
p1701
F1
sVsir?"
p1702
F1
sVperfume
p1703
F1
sVactivity
p1704
F1
sVdesert.
p1705
F1
sVx
F1
sVprecaution
p1706
F1
sVset
p1707
F1
sVpossible."
p1708
F1
sV"no,
p1709
F1
sVsuggestion!"
p1710
F1
sVsee
p1711
F14
sVare
p1712
F26
sVsea
p1713
F1
sVclose
p1714
F1
sVleaving,
p1715
F1
sVarm
p1716
F1
sVknees
p1717
F1
sVship,"
p1718
F1
sVdiscipline?"
p1719
F1
sVknow."
p1720
F2
sVyears,
p1721
F1
sV"yes,
p1722
F9
sVprobably
p1723
F2
sV"that
p1724
F4
sVhere?"
p1725
F3
sVdays.
p1726
F1
sVmen?"
p1727
F1
sV"not
p1728
F1
sVopposition
p1729
F1
sVcompetent
p1730
F1
sVlightness
p1731
F2
sVboth
p1732
F2
sVhot,
p1733
F1
sVlast
p1734
F14
sVwouldn't
p1735
F2
sVoffending
p1736
F1
sVabsently,
p1737
F1
sVhowever,
p1738
F1
sVblaze
p1739
F2
sVgood."
p1740
F1
sVtown,
p1741
F1
sVsir--he
p1742
F1
sVsupply
p1743
F1
sVsimple
p1744
F1
sVsweet
p1745
F1
sVrace,
p1746
F1
sVsilence.
p1747
F1
sVrace.
p1748
F2
sVsilence,
p1749
F1
sVregretfully
p1750
F1
sVweasel
p1751
F1
sVchurch
p1752
F5
sVbelt
p1753
F1
sVthere,
p1754
F1
sVworthless
p1755
F1
sVroaring
p1756
F1
sVwillingness
p1757
F1
sVinstrument
p1758
F1
sVsob.
p1759
F1
sVimperils
p1760
F1
sVwhom
p1761
F2
sVdropping
p1762
F1
sVdamn
p1763
F1
sVmeeting
p1764
F1
sVplant.
p1765
F3
sVplant,
p1766
F2
sVcharacter,
p1767
F1
sVflight
p1768
F1
sVfire
p1769
F1
sVtransferring
p1770
F1
sVelse
p1771
F1
sVunderstand
p1772
F4
sVdisagree."
p1773
F1
sVdoorway.
p1774
F1
sVpeaceful,
p1775
F1
sVresisted
p1776
F1
sVthinly.
p1777
F1
sVtalking
p1778
F4
sVlips.
p1779
F1
sV"do
p1780
F3
sVheavens--i
p1781
F1
sVwhile
p1782
F4
sVfun
p1783
F1
sVguilty
p1784
F1
sVdesk,
p1785
F3
sVthanks,"
p1786
F1
sVready
p1787
F2
sVslavery,
p1788
F1
sVwarningly:
p1789
F1
sVaway.
p1790
F1
sVaway,
p1791
F1
sVsolid,
p1792
F1
sVfading
p1793
F1
sVroom.
p1794
F1
sVwidely
p1795
F2
sValmost-naked
p1796
F1
sVused
p1797
F2
sVtemporary
p1798
F1
sVmountain
p1799
F3
sVmoment
p1800
F3
sVair-conditioning
p1801
F1
sVread:
p1802
F1
sVrecent
p1803
F1
sVpeople,
p1804
F1
sVdalon?"
p1805
F1
sVspent
p1806
F1
sVall-out
p1807
F1
sVperson
p1808
F1
sVedge
p1809
F2
sVbelen
p1810
F1
sVmaid,
p1811
F1
sVmake-believe
p1812
F1
sV"our
p1813
F1
sVclasped
p1814
F1
sVunit,"
p1815
F1
sVuncouth
p1816
F1
sVanything."
p1817
F1
sVred-haired
p1818
F2
sVdesk
p1819
F2
sVtechnicians
p1820
F5
sVaroma
p1821
F1
sVimpotent
p1822
F1
sVthemselves....
p1823
F1
sVtoo-warm
p1824
F1
sVlove
p1825
F2
sValternative
p1826
F1
sVhostility,
p1827
F1
sVfluctuating?"
p1828
F1
sVunto
p1829
F4
sVdiscipline
p1830
F2
sVtables
p1831
F1
sVcut
p1832
F3
sVcount."
p1833
F1
sVgrim
p1834
F1
sVsixteen,
p1835
F1
sVsixteen.
p1836
F1
sVcommander,
p1837
F1
sVimpairs
p1838
F1
sVscowled
p1839
F1
sVsurprised
p1840
F2
sV...
p1841
F15
sVcustomers
p1842
F1
sVmarch
p1843
F1
sVdoors
p1844
F1
sVtechnician;
p1845
F1
sVshowing
p1846
F1
sVquestion.
p1847
F1
sVtechnician,
p1848
F1
sVbit
p1849
F1
sVdistance.
p1850
F1
sVlike
p1851
F22
sVskeptical
p1852
F1
sVnearsightedly
p1853
F1
sVcommanders
p1854
F2
sV_drink_?"
p1855
F1
sVassociate
p1856
F2
sVsuitors.
p1857
F1
sVcontinue
p1858
F2
sVsurprise,
p1859
F1
sVtable.
p1860
F1
sVdalon
p1861
F13
sVbrenn
p1862
F34
sVcommendable.
p1863
F1
sVabsolutely
p1864
F1
sVspring
p1865
F4
sVsome
p1866
F14
sVback
p1867
F21
sV"why--a
p1868
F1
sV"we
p1869
F8
sVinstead."
p1870
F1
sVpale
p1871
F1
sVsavage
p1872
F1
sVwomen.
p1873
F2
sVcontacts
p1874
F1
sVshall
p1875
F8
sVcontrast
p1876
F1
sVscalp
p1877
F1
sVgood.
p1878
F2
sVbe
p1879
F57
sVsixteen
p1880
F2
sVsecretary,
p1881
F1
sVmen."
p1882
F1
sVremembered
p1883
F2
sVmechanization."
p1884
F1
sV"once
p1885
F1
sVhim!"
p1886
F1
sVfuel--"
p1887
F1
sVvalley,
p1888
F1
sVby
p1889
F28
sVvalley.
p1890
F1
sVsorry--it's
p1891
F1
sVlarue,
p1892
F1
sVanything
p1893
F7
sVmost
p1894
F4
sV"take
p1895
F1
sVbears,
p1896
F1
sVhere."
p1897
F1
sVgraver.
p1898
F2
sVseeing
p1899
F1
sVgraver,
p1900
F3
sVinto
p1901
F19
sVwithin
p1902
F6
sVnothing
p1903
F2
sV"this,
p1904
F1
sVdrifted
p1905
F1
sVtall,
p1906
F1
sVbrought,
p1907
F1
sVedicts,"
p1908
F1
sVsentimental
p1909
F1
sVfeatureless
p1910
F1
sVlong
p1911
F8
sVincongruously
p1912
F1
sVlaughed,
p1913
F1
sVwe're
p1914
F3
sVprowling
p1915
F1
sVsoft-eyed
p1916
F1
sVerrant
p1917
F1
sVmountains
p1918
F5
sVus--that's
p1919
F1
sVhoped
p1920
F2
sVboys
p1921
F1
sVforbidding
p1922
F1
sVcrane
p1923
F1
sVconsiderable
p1924
F1
sVraising
p1925
F1
sVposted
p1926
F1
sVcircuits
p1927
F1
sVcharacteristic
p1928
F3
sVup
p1929
F12
sVus
p1930
F15
sVaccustomed
p1931
F1
sVfifteen,
p1932
F1
sVfaded
p1933
F2
sVsimilar
p1934
F1
sVcalled
p1935
F4
sVside.
p1936
F1
sVside,
p1937
F1
sVsupervisor
p1938
F3
sVhill,
p1939
F1
sVroared
p1940
F1
sVmetal
p1941
F1
sVformation?"
p1942
F1
sVsingle
p1943
F1
sVhome
p1944
F1
sVdifferent."
p1945
F1
sVexcused
p1946
F1
sVcriminals?"
p1947
F1
sVpeace
p1948
F1
sVdepartment
p1949
F1
sVmock
p1950
F1
sVrace."
p1951
F1
sVneck.
p1952
F2
sVhelping
p1953
F1
sVsmiled
p1954
F3
sVdrab
p1955
F1
sVago
p1956
F1
sVundertone
p1957
F1
sVlead
p1958
F1
sVexpressionless
p1959
F2
sVrequired
p1960
F3
sVwalked
p1961
F4
sVresistance.
p1962
F1
sVfar
p1963
F2
sVrequires
p1964
F1
sVhaving
p1965
F3
sVonce
p1966
F1
sVissued
p1967
F1
sV_"they
p1968
F1
sVresistance
p1969
F4
sVillustrated
p1970
F1
sVgo
p1971
F10
sVhaggard
p1972
F2
sVseemed
p1973
F8
sVchances."
p1974
F1
sVgraver
p1975
F7
sV"warning
p1976
F1
sVpeering
p1977
F1
sVyoung
p1978
F4
sVarrogance
p1979
F2
sVhelps
p1980
F1
sVmasculine
p1981
F1
sVstable
p1982
F1
sVme,"
p1983
F1
sVfriendly
p1984
F1
sVsent
p1985
F2
sVseized
p1986
F1
sVgarden
p1987
F1
sVminers
p1988
F1
sVputting
p1989
F1
sVofficers--with
p1990
F1
sVthoughtfully.
p1991
F3
sVtree-covered
p1992
F1
sVhelp.
p1993
F1
sVbutton
p1994
F2
sVflickered
p1995
F1
sVtry
p1996
F4
sVtunnel
p1997
F1
sVrace
p1998
F2
sVus--remember?"
p1999
F1
sVinspection
p2000
F2
sVtheory,"
p2001
F1
sVjump
p2002
F1
sVsome?"
p2003
F1
sVcat
p2004
F1
sVethical."
p2005
F1
sVthat,
p2006
F2
sVthat.
p2007
F1
sVpower
p2008
F1
sVflicked
p2009
F1
sVwaiting
p2010
F4
sVthat?
p2011
F1
sVeating
p2012
F1
sVred-flowered
p2013
F1
sVme--i
p2014
F1
sVled
p2015
F1
sVdegree
p2016
F1
sVapologetic
p2017
F1
sVanswered.
p2018
F3
sVanswered,
p2019
F2
sVvogar,"
p2020
F1
sVlet
p2021
F7
sVothers
p2022
F5
sVextreme
p2023
F1
sVgreat
p2024
F4
sVstayed.
p2025
F1
sVreceive
p2026
F1
sVleaving
p2027
F2
sVwill."
p2028
F1
sVah
p2029
F1
sVweren't
p2030
F2
sVopinion
p2031
F1
sVmakes
p2032
F1
sVnamed
p2033
F2
sVcourse?"
p2034
F1
sVforbid
p2035
F1
sVdisobey
p2036
F1
sVshoved
p2037
F2
sVproduced?"
p2038
F1
sVme--you
p2039
F1
sVsinging
p2040
F1
sVcloud
p2041
F1
sVstanding
p2042
F1
sVpenalty
p2043
F3
sVuse
p2044
F4
sVfrom
p2045
F33
sVnext
p2046
F9
sVfew
p2047
F2
sVdoubt
p2048
F1
sVturned,
p2049
F2
sVgood!"
p2050
F1
sVknow,"
p2051
F1
sVbeyond,
p2052
F1
sVhard,
p2053
F1
sVtwo-thousand
p2054
F1
sVsir.
p2055
F8
sVsir,
p2056
F5
sVashamed
p2057
F1
sVgreen,
p2058
F1
sVwomen
p2059
F2
sVhigh
p2060
F2
sVpracticing
p2061
F1
sVunderstanding.
p2062
F1
sVand--"
p2063
F3
sVthis
p2064
F21
sVus.
p2065
F2
sVus,
p2066
F4
sVthin
p2067
F1
sVof
p2068
F204
sVmeet
p2069
F2
sVcontrol
p2070
F4
sVedict
p2071
F11
sVslid
p2072
F1
sV"from
p2073
F1
sVcouncil
p2074
F1
sVprocess
p2075
F1
sVlock
p2076
F3
sVfirst-impression.
p2077
F1
sVescaped
p2078
F3
sVonce!"
p2079
F1
sVsomething
p2080
F6
sVtan
p2081
F1
sVskirt
p2082
F2
sVcontempt
p2083
F1
sVnative
p2084
F3
sVrespect,
p2085
F1
sVcurving
p2086
F1
sVsit
p2087
F1
sVover."
p2088
F1
sVdelay
p2089
F1
sVlocated
p2090
F1
sVneed
p2091
F1
sVleft."
p2092
F1
sVintelligent
p2093
F1
sVmaterials.
p2094
F1
sVprofile
p2095
F1
sVhills,"
p2096
F1
sVbelatedly,
p2097
F1
sV"you'd
p2098
F1
sVwatch
p2099
F1
sVact
p2100
F1
sVtied
p2101
F1
sVdiscomfort
p2102
F1
sVnotebook
p2103
F2
sV"has
p2104
F1
sVpale.
p2105
F1
sVadvocated
p2106
F1
sVgone,
p2107
F3
sVlight
p2108
F2
sVencyclopedia":
p2109
F1
sVcommander's
p2110
F2
sVlines
p2111
F1
sVtrembling
p2112
F2
sVchief
p2113
F2
sVhold,
p2114
F1
sVimprovised
p2115
F1
sVlined
p2116
F1
sVessential."
p2117
F1
sVeloquent
p2118
F1
sVhand,
p2119
F1
sVadultery._
p2120
F1
sVhand.
p2121
F1
sVproduced
p2122
F2
sVincluding
p2123
F1
sVinstinctive
p2124
F1
sVfrontier--and
p2125
F1
sVperfect
p2126
F1
sVwrite
p2127
F2
sVouter
p2128
F2
sVworld;
p2129
F1
sVlabor
p2130
F1
sVanyway?"
p2131
F1
sVchoose
p2132
F2
sVredhead
p2133
F1
sVcriminal
p2134
F1
sVworld.
p2135
F1
sVstopped,
p2136
F2
sVworld,
p2137
F6
sVstopped.
p2138
F1
sVcrash
p2139
F1
sVgreater
p2140
F1
sVmulti-purpose
p2141
F1
sVsounded,
p2142
F1
sVmaterial
p2143
F1
sVsoldiers,
p2144
F1
sVambition
p2145
F1
sVfront
p2146
F1
sVday
p2147
F12
sVinstallment
p2148
F1
sVimmoral
p2149
F1
sV"did
p2150
F3
sVshrill.
p2151
F1
sVby.
p2152
F1
sVship.
p2153
F4
sVship,
p2154
F8
sVsuppose--"
p2155
F1
sVtray
p2156
F1
sVglasses
p2157
F1
sVscanty
p2158
F1
sVdecided,
p2159
F1
sVour
p2160
F25
sVspecial
p2161
F1
sVout
p2162
F22
sVfrontier
p2163
F2
sV"_seven_--only
p2164
F1
sVdon't,
p2165
F1
sVchaos
p2166
F1
sVtime.
p2167
F1
sVcause
p2168
F1
sVred
p2169
F1
sVfly.
p2170
F1
sVundo
p2171
F1
sVnight."
p2172
F1
sVfourteen
p2173
F1
sVban
p2174
F1
sVhours."
p2175
F1
sVexpression.
p2176
F1
sVher
p2177
F26
sVcould
p2178
F17
sVwhy--is
p2179
F1
sVput
p2180
F2
sVkeep
p2181
F2
sVconversation
p2182
F1
sVremoving
p2183
F1
sVsouth
p2184
F1
sVthere
p2185
F23
sV"up
p2186
F1
sVclicked.
p2187
F1
sVdesert."
p2188
F1
sVhave.
p2189
F1
sVfaint,
p2190
F1
sVdoesn't
p2191
F3
sVlove!
p2192
F1
sVpublication
p2193
F1
sVstrict
p2194
F1
sVordering
p2195
F1
sVlove.
p2196
F1
sVsystem
p2197
F2
sVtheir
p2198
F20
sVtidings,"
p2199
F1
sVwrapped
p2200
F1
sVvile
p2201
F1
sVperfectly
p2202
F1
sVgod's
p2203
F1
sVbeard
p2204
F1
sVstomach
p2205
F1
sVstars
p2206
F1
sVshorts
p2207
F2
sVelse."
p2208
F1
sVrenewed.
p2209
F1
sVexactly
p2210
F3
sVfoamy
p2211
F1
sVconvulsively,
p2212
F1
sVgone.
p2213
F4
sVherself
p2214
F1
sVfirst."
p2215
F1
sVlater,
p2216
F1
sVlaughing.
p2217
F1
sVox,"
p2218
F1
sV"cliff
p2219
F1
sVfell.
p2220
F1
sVappealing
p2221
F1
sV"mar
p2222
F1
sVrace?"
p2223
F1
sVresult
p2224
F1
sVenforced
p2225
F1
sVvulture,
p2226
F1
sVyou.
p2227
F1
sVgently
p2228
F1
sVdisappointment.
p2229
F1
sVgentle
p2230
F2
sVthings."
p2231
F1
sVsincerity
p2232
F1
sVhave
p2233
F44
sVmiserable
p2234
F1
sVincredulously.
p2235
F1
sVworkers--he
p2236
F1
sVsuggestion,"
p2237
F1
sVswitch
p2238
F1
sVbelief--just
p2239
F1
sVwhich
p2240
F6
sV"ah--which
p2241
F1
sVhonestly
p2242
F1
sV"listen
p2243
F1
sVtawny-haired
p2244
F1
sVwho
p2245
F13
sVprocure
p2246
F1
sVvogar;
p2247
F1
sVintentions
p2248
F1
sVy'nor!"
p2249
F1
sVeight
p2250
F1
sVtall
p2251
F1
sVprisoner
p2252
F2
sVvogar,
p2253
F4
sVvogar.
p2254
F1
sVwhy
p2255
F3
sVdial-covered
p2256
F1
sVyou?
p2257
F3
sVmeekly
p2258
F1
sVstranded
p2259
F1
sV(from
p2260
F1
sVface
p2261
F10
sVlooked
p2262
F11
sVyou'll
p2263
F2
sVtalk
p2264
F1
sVaway
p2265
F3
sVfact
p2266
F4
sVactions?"
p2267
F1
sVword,
p2268
F1
sVone,
p2269
F1
sVbring
p2270
F1
sVsoldiers
p2271
F1
sVrough
p2272
F1
sVrealized,
p2273
F1
sVpleased
p2274
F3
sVone?
p2275
F1
sVtrue.
p2276
F1
sVknowledge
p2277
F2
sVstolen."
p2278
F1
sVtrue!
p2279
F1
sVmug
p2280
F1
sVshould
p2281
F9
sVfuel
p2282
F14
sVbelt.
p2283
F3
sVpartially
p2284
F1
sVsecretaries
p2285
F1
sVlarue's
p2286
F4
sVharmed
p2287
F1
sVfamiliar
p2288
F1
sVmuttering
p2289
F1
sVbear
p2290
F1
sVpredicted,
p2291
F1
sVones
p2292
F1
sVwords
p2293
F2
sVreads:
p2294
F1
sV"which
p2295
F2
sV"yes--get
p2296
F1
sVareas
p2297
F1
sVunauthorized
p2298
F1
sVviolins,
p2299
F1
sVsummon
p2300
F1
sVfraternization.
p2301
F1
sV"they're
p2302
F1
sVshe
p2303
F30
sVmug.
p2304
F1
sVview
p2305
F1
sVdismissal.
p2306
F1
sVprayers
p2307
F1
sVshowdown
p2308
F1
sV"poor
p2309
F1
sVargued
p2310
F1
sVvogar
p2311
F8
sVonce,
p2312
F1
sVonce.
p2313
F2
sVground,
p2314
F1
sVground.
p2315
F1
sVy'nor
p2316
F33
sV"sir?
p2317
F1
sVgalaxy.)_
p2318
F1
sVmind,
p2319
F1
sVstate
p2320
F9
sVcorrectly
p2321
F1
sVallotted
p2322
F1
sVneither
p2323
F1
sVpistol
p2324
F6
sVsabotage
p2325
F1
sVasked.
p2326
F5
sVexactly.
p2327
F1
sVability
p2328
F2
sVopening
p2329
F1
sVimportance
p2330
F1
sVefficiency
p2331
F3
sVjob
p2332
F1
sVasked:
p2333
F3
sVstaring
p2334
F1
sVinstant
p2335
F1
sVlimits
p2336
F1
sVson--what
p2337
F1
sVfreely
p2338
F1
sVinvited
p2339
F1
sVramp
p2340
F1
sVsee."
p2341
F1
sVassure
p2342
F2
sVdoorway
p2343
F1
sVswallow
p2344
F1
sVdarker
p2345
F1
sVsafely
p2346
F1
sVwall
p2347
F1
sVdoglike
p2348
F1
sVwalk
p2349
F3
sVtogether.
p2350
F1
sVcompany
p2351
F1
sVdone,
p2352
F2
sVdone.
p2353
F1
sVlong-frustrated
p2354
F1
sVprovinces
p2355
F3
sVkeying
p2356
F1
sVdisintegrate
p2357
F1
sVquaver
p2358
F1
sVcowards
p2359
F1
sVtreat
p2360
F1
sVrhino-stags,
p2361
F1
sVwaste
p2362
F1
sVislands--
p2363
F1
sVmoved
p2364
F1
sVsufficient
p2365
F1
sVhard-heeled
p2366
F1
sVfinished
p2367
F1
sVfolding
p2368
F1
sV"well!"
p2369
F1
sVswans
p2370
F2
sVhalter.
p2371
F1
sVvalue
p2372
F1
sVwill
p2373
F36
sVwill,
p2374
F2
sVoutside.
p2375
F1
sVlived.
p2376
F1
sVchattering
p2377
F1
sVbeard.
p2378
F1
sVunquestioningly
p2379
F1
sValmost
p2380
F11
sVsurprisingly
p2381
F2
sVrespected
p2382
F1
sVexcessively
p2383
F1
sVdemanded
p2384
F1
sVswinging
p2385
F1
sVdiscarded
p2386
F2
sVtreason?"
p2387
F1
sVwearing
p2388
F1
sVquickly."
p2389
F1
sVunity
p2390
F2
sVstrange
p2391
F2
sVunits
p2392
F2
sVparty
p2393
F1
sVfanatics
p2394
F1
sVtapped
p2395
F1
sVdifficult
p2396
F1
sV"they
p2397
F1
sVpractice
p2398
F2
sVreactionary
p2399
F1
sVselfish
p2400
F1
sVcurving,
p2401
F1
sVguards,
p2402
F2
sVbald
p2403
F1
sVupon
p2404
F8
sVeffect
p2405
F1
sVwhen,"
p2406
F1
sVspitting
p2407
F1
sVcollar
p2408
F1
sVtighter
p2409
F1
sVguards:
p2410
F1
sV"earth
p2411
F1
sVoff
p2412
F3
sVcenter
p2413
F1
sVi
F57
sVweapon
p2414
F1
sVwell
p2415
F3
sVfighting
p2416
F2
sVthought
p2417
F7
sVcommand
p2418
F2
sVposition
p2419
F1
sVstate."
p2420
F1
sV_part_
p2421
F1
sVsandwich.
p2422
F1
sVless
p2423
F3
sVincreasingly
p2424
F1
sVseconds,
p2425
F1
sVhands
p2426
F3
sVobtain
p2427
F1
sVsuggestion?"
p2428
F1
sVselect
p2429
F1
sVunderlying
p2430
F1
sVbarbara.
p2431
F1
sVrest
p2432
F1
sVwork.
p2433
F1
sVtown.
p2434
F4
sVsky
p2435
F2
sVrealize
p2436
F3
sVdrew
p2437
F1
sVchair.
p2438
F1
sVtawny
p2439
F1
sVchair,
p2440
F1
sVexecutive
p2441
F1
sVwariness.
p2442
F1
sVshadow.
p2443
F1
sV_since
p2444
F1
sVfate
p2445
F1
sVchecking
p2446
F1
sVgulped
p2447
F1
sVroom,
p2448
F1
sVnatives,
p2449
F1
sVwhatever
p2450
F1
sVpresume
p2451
F2
sVnor
p2452
F2
sVpress
p2453
F1
sVfactory,
p2454
F2
sV"but
p2455
F10
sV"your
p2456
F2
sVnecessary
p2457
F1
sVhelpful
p2458
F2
sVlost
p2459
F6
sVcruiser,
p2460
F1
sVthough."
p2461
F1
sVfeminine,
p2462
F1
sVwarned
p2463
F1
sVbecome
p2464
F1
sVworks
p2465
F1
sVwe?
p2466
F1
sVactions.
p2467
F1
sVbecause
p2468
F7
sVglare
p2469
F2
sVway?"
p2470
F1
sVbriefly
p2471
F1
sValive
p2472
F1
sVstiffly,
p2473
F1
sVblazing
p2474
F1
sVstar
p2475
F3
sV"what
p2476
F2
sVbefore.
p2477
F1
sVenemy."
p2478
F2
sVtoppled
p2479
F1
sVdisbelief
p2480
F1
sVsurrender--_
p2481
F1
sV"good,"
p2482
F1
sVmines
p2483
F2
sVclean.
p2484
F1
sVdoes
p2485
F2
sVthud,
p2486
F1
sVbefore:
p2487
F1
sVboard.
p2488
F1
sVboard,
p2489
F1
sVleader
p2490
F1
sV"watch
p2491
F1
sVincandescence
p2492
F1
sVobey
p2493
F1
sVschedule
p2494
F1
sVblouse
p2495
F1
sVthere.
p2496
F1
sVmurdered
p2497
F1
sVshakily
p2498
F1
sVpanel
p2499
F1
sVabout
p2500
F7
sV"_you_
p2501
F1
sVboards
p2502
F1
sVgetting
p2503
F2
sVhimself,
p2504
F1
sV"where
p2505
F1
sVprocessors,
p2506
F1
sVsinister
p2507
F1
sVstatement
p2508
F1
sVsweat
p2509
F2
sVherself.
p2510
F1
sVhandwork--do
p2511
F1
sVstrode
p2512
F1
sV"is
p2513
F2
sVhappen.
p2514
F1
sVways--but
p2515
F1
sVown
p2516
F5
sV"eighteen
p2517
F1
sV"then
p2518
F2
sVhorizon,
p2519
F1
sVguard
p2520
F6
sVkind."
p2521
F1
sVvaguely.
p2522
F1
sVcalling.
p2523
F1
sVminute,
p2524
F1
sVridge
p2525
F1
sVimpatience
p2526
F1
sVelusium
p2527
F4
sV*
F100
sVnoticed
p2528
F1
sVsir--dr.
p2529
F1
sVdoing
p2530
F6
sVmuch
p2531
F9
sVplace,
p2532
F1
sVplace.
p2533
F1
sVbuilding
p2534
F1
sVkane
p2535
F40
sVnorth
p2536
F1
sVi've
p2537
F1
sV"hand
p2538
F1
sVbut
p2539
F26
sVreminds
p2540
F2
sVattain,
p2541
F1
sVlong."
p2542
F1
sVhighest
p2543
F1
sVthing...."
p2544
F1
sVhe
p2545
F124
sVmade
p2546
F9
sVnotice.
p2547
F1
sVright."
p2548
F1
sVwhether
p2549
F1
sVthis,
p2550
F1
sVplaced
p2551
F1
sVbelow
p2552
F1
sVconvince
p2553
F1
sVlimit
p2554
F1
sVhand
p2555
F5
sVeyes.
p2556
F1
sVsupreme
p2557
F1
sVfriend,
p2558
F1
sVdeaths
p2559
F1
sVrecognize
p2560
F1
sVbeats
p2561
F1
sV"so
p2562
F1
sVcare?"
p2563
F1
sVturbo-car
p2564
F2
sVkind.
p2565
F1
sVkind,
p2566
F1
sVhappen
p2567
F1
sV"are
p2568
F3
sVgarden,
p2569
F1
sVmeans,"
p2570
F1
sVdeadly
p2571
F1
sVportion
p2572
F1
sVother
p2573
F4
sVsuspiciously
p2574
F1
sVinspectors,
p2575
F1
sVindeed.
p2576
F1
sVagain,
p2577
F4
sVyes.
p2578
F2
sVtreason
p2579
F1
sVplant,"
p2580
F1
sVagain:
p2581
F1
sVdial?"
p2582
F1
sVin.
p2583
F1
sVfriends
p2584
F2
sVneeded
p2585
F2
sVcliff
p2586
F1
sVstirred
p2587
F1
sVruined?"
p2588
F1
sV"sir?"
p2589
F1
sVrule
p2590
F5
sVpistol?"
p2591
F1
sVweariness,
p2592
F1
sVlives
p2593
F1
sV"the
p2594
F5
s.