ccollections
defaultdict
p1
(c__builtin__
float
p2
tRp3
(Vprices
p4
Vof
tp5
F1
s(V11
p6
Va
tp7
F1
s(Vpicture
p8
Vbooks
p9
tp10
F3
s(Vmight
p11
Vsay,
p12
tp13
F1
s(Vlied--
p14
Vthe
tp15
F1
s(Vbinding.
p16
Veach
p17
tp18
F1
s(Vhorse
p19
Vto
p20
tp21
F1
s(Ve.c.
p22
V1.
p23
tp24
F1
s(Vpublishers._
p25
Vengraved
p26
tp27
F1
s(Vday
p28
Vhe
p29
tp30
F1
s(Vpray.
p31
Va
tp32
F1
s(Vfor
p33
Vsixpence
p34
tp35
F1
s(Vrecover'd
p36
Vof
p37
tp38
F1
s(Vobtained
p39
Vof
p40
tp41
F1
s(Vbe
p42
g39
tp43
F1
s(Va
Vkind
p44
tp45
F1
s(Vthe
p46
Vworld
p47
tp48
F1
s(Vsecond
p49
V8
tp50
F1
s(Vyou
p51
Vfind
p52
tp53
F1
s(Vat
p54
Vthem
p55
tp56
F1
s(Va
Vcock
p57
tp58
F1
s(Vbite;
p59
Vthe
tp60
F1
s(Vthe
Vmad
p61
tp62
F2
s(Vthe
p63
Vwondering
p64
tp65
F1
s(Vwits,
p66
Vto
p67
tp68
F1
s(Vthe
p69
Vwood
p70
tp71
F1
s(V&
Vco.
tp72
F1
s(Vstill
p73
Va
tp74
F1
s(V4to,
p75
Vpicture
p76
tp77
F1
s(Vfrog
p78
Vhe
p79
tp80
F1
s(Vblaize
p81
V16
p82
tp83
F1
s(Vbite
p84
Vso
p85
tp86
F1
s(Vdegree.
p87
Vthis
p88
tp89
F1
s(Vcoloured
p90
Vpictures
p91
tp92
F1
s(Vdog
p93
Vwas
p94
tp95
F2
s(V_the
p96
Vpublished
p97
tp98
F1
s(Vput
p99
Von
p100
tp101
F1
s(Vran,
p102
Vwhene'er
p103
tp104
F1
s(Vbooks
Vcan
p105
tp106
F1
s(Vnumerous
p107
Voutline
p108
tp109
F2
s(V2
V3
tp110
F1
s(Vwhile
p111
Vthey
p112
tp113
F1
s(Vmy
p114
Vsong;
p115
tp116
F1
s(Vand
p117
Vman
p118
tp119
F1
s(Veye;
p120
Vand
p121
tp122
F1
s(Vsad
p123
Vto
p124
tp125
F1
s(Vall,
p126
Vof
p127
tp128
F1
s(Vparson's
p129
Vgate
p130
tp131
F1
s(Vbut
p132
Vsoon
p133
tp134
F1
s(Vswore
p135
Vthe
p136
tp137
F3
s(Vand
p138
Vin
p139
tp140
F1
s(Vbook
Vrandolph
tp141
F1
s(V3
Vhey-diddle-diddle-picture
p142
tp143
F1
s(V_in
p144
Vsquare
p145
tp146
F1
s(Vqueen
p147
Vof
p148
tp149
F1
s(V13
p150
Vcome
p151
tp152
F1
s(Vhe
p153
g102
tp154
F1
s(g34
V7
tp155
F1
s(Vwas
Vmad,
p156
tp157
F1
s(Vhe
p158
Vhad,
p159
tp160
F1
s(Vevery
p161
g28
tp162
F1
s(Vmad,
p163
Vand
p164
tp165
F1
s(Vboth
p166
Vmongrel,
p167
tp168
F1
s(Vhimself
p169
V_the
p170
tp171
F1
s(V14
p172
Vride
p173
tp174
F1
s(Vman,
p175
Vof
p176
tp177
F1
s(Vboth
p178
Vsore
p179
tp180
F1
s(Vpictured
p181
Vby
p182
tp183
F1
s(Vvolumes,
p184
Vsquare
tp185
F1
s(Vwent
p186
Vto
p187
tp188
F1
s(Vwas
p189
Vthat
p190
tp191
F1
s(Vand
p192
g135
tp193
F1
s(Vall
p194
Vthe
p195
tp196
F1
s(Vrandolph
p197
Vcaldecott's
tp198
F4
s(Vends,
p199
Vwent
p200
tp201
F1
s(Vjovial
p202
Vhuntsmen
p203
tp204
F1
s(g37
Vthe
p205
tp206
F3
s(Vand
p207
Vinnumerable
p208
tp209
F1
s(V&
Vnew
p210
tp211
F1
s(Vmany
p212
Vdogs
p213
tp214
F1
s(Vroad,
p215
Vlondon,
p216
tp217
F1
s(g187
g31
tp218
F1
s(Vdie
p219
g132
tp220
F1
s(g17
Vcontaining
p221
tp222
F1
s(g61
Vdog
p223
tp224
F2
s(g203
V6
tp225
F1
s(g200
g163
tp226
F1
s(Vevery
p227
Vsort,
p228
tp229
F1
s(Vdied.
p230
g197
tp231
F1
s(g97
g4
tp232
F1
s(Vand
p233
Vbaby
p234
tp235
F1
s(Velegy
p236
Von
p237
tp238
F1
s(g210
Vyork.
p239
tp240
F1
s(Vgoldsmith
p241
g181
tp242
F1
s(Vfox
p243
Vjumps
p244
tp245
F1
s(Vcaldecott
p246
Vsung
p247
tp248
F1
s(Vfrederick
p249
Vwarne
p250
tp251
F2
s(Vcontaining
p252
Vthe
p253
tp254
F2
s(g205
g59
tp255
F1
s(Vislington
p256
Vthere
p257
tp258
F1
s(Vthe
p259
Vhouse
p260
tp261
F1
s(Vclad,
p262
Vwhen
p263
tp264
F1
s(Vtheir
Vcolour
p265
tp266
F2
s(V2
g259
tp267
F1
s(Vlost
p268
Vhis
p269
tp270
F1
s(Vgood
p271
Va
tp272
F1
s(Vand
p273
Vfoes;
p274
tp275
F1
s(Vin
p276
g69
tp277
F1
s(Vr.
p278
g246
tp279
F1
s(Vwhom
p280
g46
tp281
F1
s(Vltd.
Vlondon
p282
tp283
F1
s(Vltd.,
p284
V154
p285
tp286
F1
s(Vlight,
p287
Vthat
p288
tp289
F1
s(Vbooksellers
p290
Vor
p291
tp292
F1
s(V3
Vthe
p293
tp294
F1
s(Va
Vpique
p295
tp296
F1
s(Vgo
p297
V12
p298
tp299
F1
s(Vat
p300
Vfirst
p301
tp302
F1
s(g291
Vfrom
p303
tp304
F1
s(Vshow'd
p305
Vthe
p306
tp307
F1
s(Vsketches
p308
Vrandolph
tp309
F1
s(Vcurs
p310
Vof
p311
tp312
F1
s(Vhold
p313
Vyou
p314
tp315
F1
s(Vwoman,
p316
Vor
p317
tp318
F1
s(g247
Vby
p319
tp320
F1
s(Vpeople
p321
g126
tp322
F1
s(Vwarne
V&
tp323
F1
s(Vto
p324
g287
tp325
F1
s(Vit
p326
Vwondrous
p327
tp328
F1
s(Vprimrose
p329
Vgood
p330
tp331
F1
s(Vin
p332
Vfour
p333
tp334
F1
s(V1
g252
tp335
F1
s(Vdog,
p336
Vto
p337
tp338
F1
s(Varound
p339
Vfrom
p340
tp341
F1
s(Vand
p342
Vprinted
p343
tp344
F1
s(g127
g227
tp345
F1
s(Vwould
p346
Va-wooing
p347
tp348
F1
s(Vhad
p349
g268
tp350
F1
s(Vsketches
Vfrederick
tp351
F1
s(Vit
p352
g189
tp353
F1
s(g76
Vcovers,
p354
tp355
F1
s(Vis
p356
Vsimply
p357
tp358
F1
s(g314
Vlong.
p359
tp360
F1
s(Vabove
p361
Vwith
tp362
F2
s(g47
g11
tp363
F1
s(Vrace
p364
g153
tp365
F1
s(g88
Vdog
p366
tp367
F1
s(g52
g326
tp368
F1
s(Vof
p369
Va
tp370
F1
s(Va
g93
tp371
F1
s(g253
Vfirst
p372
tp373
F1
s(g306
Vrogues
p374
tp375
F1
s(g282
V&
tp376
F1
s(Vcatalogue
p377
Vof
tp378
F1
s(Vheart
p379
g158
tp380
F1
s(Vthe
g49
tp381
F1
s(V2
Vr.
tp382
F1
s(Vwritten
p383
Vby
p384
tp385
F1
s(Vthe
g25
tp386
F1
s(g285
Vclerkenwell
p387
tp388
F1
s(Vattractive
p389
g16
tp390
F1
s(g366
g117
tp391
F1
s(Vcould
p392
Vlook
p393
tp394
F1
s(Vlisted
p395
g361
tp396
F2
s(Vcannot
p397
g313
tp398
F1
s(g387
g215
tp399
F1
s(Vchristian
p400
g120
tp401
F1
s(Vwould
p402
g219
tp403
F1
s(Vmary
p404
g81
tp405
F1
s(g67
g84
tp406
F1
s(Va
g78
tp407
F1
s(Vcaldecott's
p408
g8
tp409
F4
s(Vlaughing."
p410
g144
tp411
F1
s(Vbit
p412
Vthe
p413
tp414
F1
s(Vof
p415
Vpictures
tp416
F2
s(Vand
p417
Vhound,
p418
tp419
F1
s(Vjohn
p420
Vgilpin
p421
tp422
F1
s(g170
Vabove
p423
tp424
F1
s(Vfarmer's
p425
Vboy
p426
tp427
F1
s(Vdog.
p428
g383
tp429
F1
s(Vthey
p430
g14
tp431
F1
s(Vgodly
p432
g364
tp433
F1
s(Vfour
p434
Vdifferent
p435
tp436
F1
s(V"the
p437
Vhumour
p438
tp439
F1
s(Vissued
p440
g332
tp441
F1
s(Vpicture
Vbook
p442
tp443
F3
s(g340
g194
tp444
F1
s(Vgreat
p445
Vbritain.
tp446
F1
s(Vthere
p447
Vbe--
p448
tp449
F1
s(Vcrown
p450
g75
tp451
F2
s(g359
Vin
p452
tp453
F1
s(Vsing
p454
Va
tp455
F1
s(Vnaked
p456
g161
tp457
F1
s(V1
V2
tp458
F1
s(Vwhen
p459
Va
tp460
F1
s(Vmaster
p461
Vbill
p462
tp463
F1
s(Vpanjandrum
p464
g169
tp465
F1
s(Vdrawings
p466
g356
tp467
F1
s(g426
V9
tp468
F1
s(Vwhelp,
p469
g417
tp470
F1
s(Va
Vmad
p471
tp472
F1
s(Vsome
p473
Vprivate
p474
tp475
F1
s(Vgentle
p476
g379
tp477
F1
s(Vthe
p478
Vgreat
p479
tp480
F1
s(Vlow
p481
g87
tp482
F1
s(V2
Vcontaining
tp483
F1
s(Vand
p484
g310
tp485
F1
s(Vit
p486
Vseem'd
p487
tp488
F1
s(Vplates._
p489
V1
tp490
F1
s(g471
g428
tp491
F1
s(Vcaldecott's
Vcollection
p492
tp493
F2
s(Vif
p494
g51
tp495
F1
s(g12
Vthat
p496
tp497
F1
s(g64
Vneighbours
p498
tp499
F1
s(Vlasses
p500
Vand
p501
tp502
F1
s(Vbut,
p503
g459
tp504
F1
s(Vthe
p505
g129
tp506
F1
s(Vgive
p507
Vear
p508
tp509
F1
s(Vlads
p510
g172
tp511
F1
s(Vthe
Vman
p512
tp513
F2
s(Vshort,
p514
Vit
p515
tp516
F1
s(Va
Vsong
p517
tp518
F1
s(Vone
p519
Vof
p520
tp521
F1
s(Va
g175
tp522
F1
s(Vand
p523
g123
tp524
F1
s(g269
g66
tp525
F1
s(g223
g519
tp526
F1
s(Va
g432
tp527
F1
s(g372
V8
tp528
F1
s(g421
V2
tp529
F1
s(Vbunting
p530
g6
tp531
F1
s(V8
Vbooks
p532
tp533
F2
s(g474
g199
tp534
F1
s(Vin
p535
g445
tp536
F1
s(Vsongs
p537
Vno.
tp538
F2
s(Vthe
p539
g456
tp540
F1
s(Voutline
p541
Vsketches._
p542
tp543
F1
s(V4to,
g389
tp544
F1
s(Vchild
p545
g392
tp546
F1
s(g167
Vpuppy,
p547
tp548
F1
s(g124
Vevery
p549
tp550
F1
s(Vcame
p551
g324
tp552
F1
s(g239
g96
tp553
F1
s(Vtheir
p554
g90
tp555
F1
s(g384
Vdr
p556
tp557
F1
s(Vno.
V2
tp558
F2
s(Vwith
p559
Vnumerous
p560
tp561
F1
s(g343
Vby
p562
tp563
F1
s(Vhis
p564
Vclothes
p565
tp566
F1
s(Vman.
p567
g339
tp568
F1
s(Vcaldecott's
g466
tp569
F1
s(Vno.
p570
V1
tp571
F2
s(g103
Vhe
p572
tp573
F1
s(g244
Vover
p574
tp575
F1
s(Vthe
p576
Vdeath
p577
tp578
F1
s(Vwere
p579
Vfriends;
p580
tp581
F1
s(Vcoloured
p582
g489
tp583
F1
s(g70
V4
tp584
F1
s(g452
g256
tp585
F1
s(g337
Vgain
p586
tp587
F1
s(g413
g567
tp588
F1
s(Vas
p589
g212
tp590
F1
s(g448
g166
tp591
F1
s(Vmrs.
p592
g404
tp593
F1
s(Vselections
p594
Vare
p595
tp596
F1
s(Vdog
g352
tp597
F1
s(Vlived
p598
Va
tp599
F1
s(g293
Vbabes
p600
tp601
F1
s(Vbuilt
p602
V3
tp603
F1
s(Vthe
p604
Vmilkmaid
p605
tp606
F1
s(g130
g150
tp607
F1
s(g586
g473
tp608
F1
s(Vr.
p609
g408
tp610
F3
s(Vwith
p611
g554
tp612
F3
s(V9
g604
tp613
F1
s(Vjack
p614
g602
tp615
F1
s(g136
Vdog
p616
tp617
F3
s(g148
Vhearts
p618
tp619
F1
s(g357
Virresistible,
p620
tp621
F1
s(Vco.
p622
Vltd.
p623
tp624
F2
s(Vfound:
p625
g589
tp626
F1
s(Vfriends
p627
g273
tp628
F1
s(g29
g262
tp629
F1
s(Vwonder
p630
g551
tp631
F1
s(g549
g400
tp632
F1
s(Vprinted
p633
g535
tp634
F1
s(g517
g33
tp635
F1
s(g228
g507
tp636
F1
s(g257
g598
tp637
F1
s(g547
g469
tp638
F1
s(Vand
p639
g622
tp640
F1
s(g274
g539
tp641
F1
s(Va
Vman.
p642
tp643
F1
s(g221
g434
tp644
F1
s(g20
Vbanbury
p645
tp646
F1
s(g121
g111
tp647
F1
s(Vthe
p648
g243
tp649
F1
s(Vthe
p650
Villustrated
p651
tp652
F1
s(Vneighbouring
p653
Vstreets
p654
tp655
F1
s(g265
Vpictures
tp656
F2
s(g642
Vthe
p657
tp658
F1
s(Vhey-diddle-diddle
p659
g233
tp660
F1
s(g595
Valso
p661
tp662
F1
s(g118
g300
tp663
F1
s(g347
g297
tp664
F1
s(g85
g271
tp665
F1
s(g295
Vbegan,
p666
tp667
F1
s(V8
Vthe
p668
tp669
F1
s(g173
Va
tp670
F1
s(g142
Vbook
p671
tp672
F1
s(Vwound
p673
g486
tp674
F1
s(g159
Vto
p675
tp676
F1
s(g418
g484
tp677
F1
s(g492
g415
tp678
F2
s(g112
Vswore
tp679
F2
s(Vran;
p680
g192
tp681
F1
s(g462
g329
tp682
F1
s(Van
p683
g236
tp684
F1
s(Vevans,
p685
g284
tp686
F1
s(g190
g230
tp687
F1
s(g423
g594
tp688
F1
s(g176
g280
tp689
F1
s(g250
g639
tp690
F1
s(g23
g633
tp691
F1
s(Vhealthy-minded
p692
Vman,
p693
tp694
F1
s(Vtown
p695
Va
tp696
F1
s(g620
Vno
p697
tp698
F1
s(Vof
p699
Vrandolph
tp700
F1
s(g298
g648
tp701
F1
s(Vcross,
p702
V&c.
p703
tp704
F1
s(g288
g305
tp705
F1
s(g327
g514
tp706
F1
s(g512
g402
tp707
F1
s(g666
Vthe
p708
tp709
F1
s(g374
g430
tp710
F1
s(g654
g63
tp711
F1
s(Vedmund
p712
g685
tp713
F1
s(g57
g19
tp714
F1
s(g605
V10
p715
tp716
F1
s(g556
g241
tp717
F1
s(Vall
p718
g290
tp719
F1
s(g618
V8
tp720
F1
s(g708
g336
tp721
F1
s(Vunto
p722
g114
tp723
F1
s(g542
V1
tp724
F1
s(g577
g369
tp725
F1
s(Va
g630
tp726
F1
s(g580
g503
tp727
F1
s(g715
g659
tp728
F1
s(g311
g481
tp729
F1
s(Vcomfort
p730
g627
tp731
F1
s(g572
g186
tp732
F1
s(Vpanjandrum
p733
Vpicture
tp734
F1
s(Vwithout
p735
g410
tp736
F1
s(g260
Vthat
p737
tp738
F1
s(g501
g510
tp739
F1
s(g737
g614
tp740
F1
s(g496
g73
tp741
F1
s(g515
g397
tp742
F1
s(g697
g692
tp743
F1
s(g182
g278
tp744
F1
s(g651
g377
tp745
F1
s(g151
g500
tp746
F1
s(g79
g346
tp747
F1
s(g600
g276
tp748
F1
s(g82
g478
tp749
F1
s(g442
g570
tp750
F2
s(g40
g718
tp751
F1
s(g508
g722
tp752
F1
s(Vthree
p753
g202
tp754
F1
s(V5
g753
tp755
F1
s(Vthat
p756
g695
tp757
F1
s(g105
g42
tp758
F1
s(V7
Vthe
p759
tp760
F1
s(g44
Vand
p761
tp762
F1
s(g26
g342
tp763
F1
s(Vman
g36
tp764
F1
s(g330
g321
tp765
F1
s(g139
g756
tp766
F1
s(g675
g730
tp767
F1
s(g303
g650
tp768
F1
s(Vdog
V5
tp769
F1
s(g498
g680
tp770
F1
s(V15
p771
g592
tp772
F1
s(g213
g447
tp773
F1
s(g115
Vand
p774
tp775
F1
s(g333
g184
tp776
F1
s(Vand
g537
tp777
F2
s(g55
g735
tp778
F1
s(g565
g138
tp779
F1
s(V6
g454
tp780
F1
s(g100
g564
tp781
F1
s(g164
g412
tp782
F1
s(g179
g523
tp783
F1
s(g623
g683
tp784
F1
s(g208
g541
tp785
F1
s(g761
g476
tp786
F1
s(g317
g545
tp787
F1
s(g393
g54
tp788
F1
s(g435
Vbooks,
p789
tp790
F1
s(g479
g464
tp791
F1
s(g195
g653
tp792
F1
s(g657
g673
tp793
F1
s(g789
g611
tp794
F1
s(Vhe
p795
g99
tp796
F1
s(V1
Vr.
tp797
F1
s(Vabove
p798
Vpicture
tp799
F1
s(g532
g395
tp800
F2
s(g616
g349
tp801
F1
s(g145
g450
tp802
F2
s(g263
g795
tp803
F1
s(g703
g771
tp804
F1
s(g671
V4
tp805
F1
s(Vand
g107
tp806
F2
s(g520
g609
tp807
F1
s(Vthe
g798
tp808
F1
s(V4
Vthe
tp809
F2
s(g661
g440
tp810
F1
s(g319
g461
tp811
F1
s(g91
g207
tp812
F5
s(g108
g308
tp813
F2
s(g438
g699
tp814
F1
s(g156
Vthey
tp815
F1
s(g354
g559
tp816
F1
s(V1
g420
tp817
F1
s(g668
g425
tp818
F1
s(g234
g530
tp819
F1
s(g774
g494
tp820
F1
s(g237
g576
tp821
F1
s(g487
g178
tp822
F1
s(Vbooks
g437
tp823
F1
s(g560
g582
tp824
F1
s(g9
g249
tp825
F1
s(g301
g579
tp826
F1
s(g133
Va
tp827
F1
s(g693
g316
tp828
F1
s(g645
g702
tp829
F1
s(Vthe
g733
tp830
F1
s(g216
g22
tp831
F1
s(g562
g712
tp832
F1
s(g94
g625
tp833
F1
s(g759
g147
tp834
F1
s(g574
g505
tp835
F1
s.