ccollections
defaultdict
p1
(c__builtin__
float
p2
tRp3
(Vreturne
p4
Vto
p5
tp6
F1
s(Vmee
p7
g4
tp8
F1
s(Vor
p9
Vperusinge
p10
tp11
F1
s(Vhaue
Vthought
p12
tp13
F1
s(Vfamiliaritie
Vborne
p14
tp15
F1
s(Vholsome
p16
Vlessons,
p17
tp18
F1
s(Vthe
Vname
p19
tp20
F1
s(Vgrayheared
p21
Vwriters.
p22
tp23
F1
s(Vthe
p24
Vopertunitie
p25
tp26
F1
s(Vthe
p27
Vdue
p28
tp29
F1
s(Vhath
Vhitherto
p30
tp31
F1
s(Vlatinists,
p32
Vlearned
p33
tp34
F1
s(Vdirections,
p35
Vwhereby
p36
tp37
F1
s(Vme
p38
Vthe
p39
tp40
F1
s(Vmay
p41
Viustly
p42
tp43
F1
s(Voccupied
p44
Vin
tp45
F1
s(Vhaue
Vthus
p46
tp47
F1
s(Vthe
p48
Vaucthors
p49
tp50
F1
s(Vlet
p51
g7
tp52
F1
s(Vnot
p53
Vbut
p54
tp55
F1
s(Vrather
p56
Vi
tp57
F1
s(Vworthy
p58
Vand
p59
tp60
F1
s(Vi
Viudge
p61
tp62
F1
s(V.
Vbut
p63
tp64
F1
s(Vyouthful
p65
Vcapacities,
p66
tp67
F1
s(Vhis
p68
Vage
p69
tp70
F1
s(Vcommending
p71
Vit
p72
tp73
F1
s(Vlayes,
p74
Vthan
p75
tp76
F1
s(Vnot
p77
Valtogether
p78
tp79
F1
s(Vfor
p80
Vas
p81
tp82
F1
s(Vbeside
p83
Vthe
p84
tp85
F1
s(Vshall
p86
Vfind
p87
tp88
F1
s(V(translations
p89
Vexcepted)
p90
tp91
F1
s(Vsubiect
p92
Vto
p93
tp94
F1
s(Vfor
p95
Vi
tp96
F1
s(Vyet
p97
g41
tp98
F1
s(Vworthles
p99
Vvictorie,
p100
tp101
F1
s(Vpurpose,
p102
g95
tp103
F1
s(Vbe
p104
Vguided
p105
tp106
F1
s(Van
p107
Vother
p108
tp109
F1
s(Vthe
p110
Vyonger
p111
tp112
F1
s(Vvs
p113
Vthe
p114
tp115
F1
s(Vof
p116
Vthe
p117
tp118
F2
s(Vcome
p119
Vto
tp120
F1
s(Va
Vman
p121
tp122
F1
s(Vin
p123
Vthis
p124
tp125
F1
s(Vone
p126
Vof
p127
tp128
F1
s(Vinuencion
p129
Ventituled.
p130
tp131
F1
s(V(of
p132
Vno
p133
tp134
F1
s(Vnot
p135
Vcleane
p136
tp137
F1
s(Vepythetes,
p138
Vand
p139
tp140
F1
s(Vwanton
p141
Vpenning
p142
tp143
F1
s(Vnot
p144
Vcompare
p145
tp146
F1
s(Vdo
p147
Vno
tp148
F1
s(Vyou
Vwill
p149
tp150
F1
s(g127
Vthem.
p151
tp152
F1
s(Vmeanes
p153
Vmake
p154
tp155
F1
s(g121
Vmay
p156
tp157
F1
s(Va
Vpassouer
p158
tp159
F1
s(Vgreater
p160
Vmatter,
p161
tp162
F1
s(Vyet
p163
g135
tp164
F1
s(V(with
p165
Vyou
p166
tp167
F1
s(Vwonted
p168
Vvse,
p169
tp170
F1
s(Vspent
p171
Vin
p172
tp173
F1
s(Vbe
Vplayne
p174
tp175
F1
s(Vonely
p176
Vprouoke
p177
tp178
F1
s(Vlots
p179
Vof
p180
tp181
F1
s(Vtaken
p182
Vtherin
p183
tp184
F1
s(Vi
Vcan
p185
tp186
F1
s(Vthe
p187
Vmost
p188
tp189
F1
s(g108
g132
tp190
F1
s(V,
Vmaye
p191
tp192
F1
s(Vone
p193
Vhath
p194
tp195
F1
s(Vfew
p196
Vlouing
p197
tp198
F1
s(Vto
p199
Vread
p200
tp201
F1
s(Vway.
p202
Vi
tp203
F1
s(Vas
p204
Vhaue
p205
tp206
F1
s(Vso
p207
Vprofitable
p208
tp209
F1
s(Vpoets
p210
Vin
p211
tp212
F1
s(Vmost
p213
Vfeyned
p214
tp215
F1
s(Vitalians
p216
V,
tp217
F1
s(Vdo
p218
Vfruitefully
p219
tp220
F1
s(Vnotable
p221
Vworkes.
p222
tp223
F1
s(Vno
p224
g153
tp225
F1
s(g39
Voriginall
p226
tp227
F1
s(Vditties
p228
Vor
p229
tp230
F1
s(Vmee,
p231
Vbut
p232
tp233
F1
s(Vand
p234
Vto
p235
tp236
F2
s(g84
Vpath,
p237
tp238
F1
s(Vi
Vhaue
p239
tp240
F5
s(Vhad
p241
Vwith
p242
tp243
F1
s(Vtending
p244
Vto
p245
tp246
F1
s(Vwritten
p247
Vbooke,
p248
tp249
F1
s(V(which
p250
Vas
p251
tp252
F1
s(g90
Vdeliuered
p253
tp254
F1
s(Vvs
Vany
p255
tp256
F1
s(Vthe
p257
Vreformation
p258
tp259
F1
s(Vothers,
p260
Vthe
tp261
F1
s(g188
Vfrosty
p262
tp263
F1
s(Vcountrimen,
p264
Vthat
p265
tp266
F1
s(Vso
p267
Vmany
p268
tp269
F1
s(Vthe
Vmount
p270
tp271
F1
s(Vvolume,
p272
g204
tp273
F1
s(Vthe
p274
Vsundry
p275
tp276
F1
s(Vleese
p277
g24
tp278
F1
s(g177
Vall
p279
tp280
F1
s(Vi
Vonely
p281
tp282
F1
s(g61
Vso
p283
tp284
F1
s(Vof
p285
Vgraue
p286
tp287
F1
s(Vright
p288
Vrewardes
p289
tp290
F1
s(Vwittes
p291
Vno
p292
tp293
F1
s(Vneither
p294
g97
tp295
F1
s(V.
Vand
p296
tp297
F1
s(Vaccording
p298
Vto
tp299
F1
s(Vso
p300
g44
tp301
F1
s(Vby
p302
Vpoets
p303
tp304
F1
s(Vis
p305
g300
tp306
F1
s(Vhelp
p307
Va
tp308
F1
s(Vinuencion,
p309
Vproper
p310
tp311
F1
s(g22
g80
tp312
F1
s(Vstile
p313
Vmetrical,
p314
tp315
F1
s(Vmetaphorically
p316
Vset
p317
tp318
F1
s(Vvnspeakeable
p319
Vtreasure,
p320
tp321
F1
s(Vyou
p322
Vwith
p323
tp324
F1
s(g59
Vfamous
p325
tp326
F1
s(Vand
p327
Vappeare
p328
tp329
F1
s(Vthe
Vfirst,
p330
tp331
F1
s(g36
Va
tp332
F1
s(Vconfusedly
p333
Vgathered
p334
tp335
F1
s(Vthe
p336
Vexceding
p337
tp338
F1
s(Vi
V.
tp339
F1
s(Vparticipate
p340
Vthe
p341
tp342
F1
s(Vballades,
p343
Vrondlets,
p344
tp345
F1
s(Vtherof
p346
Vvnto
p347
tp348
F1
s(Vfor
p349
Vif
p350
tp351
F1
s(g194
Vbene
p352
tp353
F1
s(Vi
Vmay
p354
tp355
F1
s(g139
Vstore
p356
tp357
F1
s(g270
Vhelicon
p358
tp359
F1
s(g133
Vlesse
p360
tp361
F2
s(Vagree
p362
Vwith
p363
tp364
F1
s(Vconsummate
p365
g68
tp366
F1
s(Vthan
p367
Vthey
p368
tp369
F1
s(g30
Vwithhelde
tp370
F1
s(Vthe
p371
Vlater)
p372
tp373
F1
s(Va
Vpleasant
p374
tp375
F1
s(g232
Vfarther
p376
tp377
F1
s(Vdo
p378
Vaduenture
p379
tp380
F1
s(Vtheir
Vverses
p381
tp382
F1
s(g100
Vmight
p383
tp384
F1
s(Vthen
p385
Vopere
p386
tp387
F1
s(Vtowardes
p388
Vmee.
p389
tp390
F1
s(g200
g234
tp391
F1
s(Vthese
p392
Vthinges
p393
tp394
F1
s(g63
Vnowe
p395
tp396
F1
s(Vcrowned
p397
Vwith
p398
tp399
F1
s(Vfame,
p400
Vby
tp401
F1
s(g142
Vof
p402
tp403
F1
s(Vdiuers
p404
g260
tp405
F1
s(Vthe
Vmore
p406
tp407
F1
s(Vof
p408
Vsonets
p409
tp410
F1
s(Vto
p411
Vhis
p412
tp413
F1
s(Vperfecte
p414
Vlife:
p415
tp416
F1
s(Vin
p417
Vthe
p418
tp419
F5
s(Valreadie,
p420
Vby
tp421
F1
s(Vand
p422
Vimaginations,
p423
tp424
F1
s(Vmy
p425
Vfirst
p426
tp427
F1
s(Vand
p428
Vthe
p429
tp430
F3
s(V(i
p431
g362
tp432
F1
s(Vhe
p433
Vhath
p434
tp435
F2
s(Vperfect
p436
Vfelicitie,
p437
tp438
F1
s(g314
Vyet
p439
tp440
F1
s(Vcountrie
p441
Vlanguage
p442
tp443
F1
s(Va
Vtheame.
p444
tp445
F1
s(Vvertues,
p446
g428
tp447
F1
s(Vthis
p448
Vwritte
p449
tp450
F1
s(Vbe
g397
tp451
F1
s(Vand
p452
g365
tp453
F1
s(Vfor
p454
Vwho
p455
tp456
F1
s(g386
Vprecium
p457
tp458
F1
s(Vshall
p459
Vnot
p460
tp461
F1
s(g449
Vbooke,
p462
tp463
F1
s(g429
Veue
p464
tp465
F1
s(Vsafely
p466
Vredeliuer
p467
tp468
F1
s(Vamonge
p469
Vthe
p470
tp471
F1
s(V(and
p472
Vespecially
p473
tp474
F1
s(Vthat
p475
Vamongst
p476
tp477
F1
s(g341
Vsight
p478
tp479
F1
s(g166
Vmy
p480
tp481
F1
s(Vthus
p482
Vto
p483
tp484
F1
s(Veagles
p485
Vneast
p486
tp487
F1
s(Vright
Vpathway
p488
tp489
F1
s(Vnumber
p490
g408
tp491
F1
s(Vbecause
p492
Vhis
p493
tp494
F1
s(Vby
p495
g224
tp496
F1
s(Vin
p497
Vdiscribing
p498
tp499
F1
s(g395
g51
tp500
F1
s(Vcalled,
p501
g274
tp502
F1
s(Vof
p503
g309
tp504
F1
s(Vtogether,
p505
Vi
tp506
F1
s(Vtrauayle
p507
g333
tp508
F1
s(Vconsume
p509
g452
tp510
F1
s(g10
Vof
p511
tp512
F1
s(Vyou
p513
Vbeare
p514
tp515
F1
s(Vpitie,
p516
g475
tp517
F1
s(g352
Vhitherto
p518
tp519
F1
s(Vthe
Vwilling
p520
tp521
F1
s(Vthe
p522
Vone
p523
tp524
F1
s(g78
Vwithout
p525
tp526
F1
s(Vthat
g319
tp527
F1
s(g46
Vfarre
p528
tp529
F1
s(Vlamented,
p530
Vthat
p531
tp532
F1
s(Vhaue
p533
Vchosen
p534
tp535
F1
s(g323
g448
tp536
F1
s(g523
g501
tp537
F1
s(g402
Va
tp538
F2
s(Vowne
p539
g129
tp540
F1
s(Vthe
Vsame,
p541
tp542
F1
s(g356
Vof
p543
tp544
F1
s(Vthe
p545
g141
tp546
F1
s(Vf.
p547
Vi
tp548
F1
s(Va
g196
tp549
F1
s(Vto
p550
Vgayne
p551
tp552
F1
s(g381
Vhitherto
p553
tp554
F1
s(g66
g367
tp555
F1
s(Voccasion
p556
Vof
p557
tp558
F1
s(Vwhen
p559
Vi
tp560
F1
s(Vpoems,
p561
g294
tp562
F1
s(g344
Vverlayes
p563
tp564
F1
s(Vknight
p565
Vsir
p566
tp567
F1
s(g149
g495
tp568
F1
s(Vvnto
p569
g113
tp570
F2
s(g136
Vout
p571
tp572
F1
s(Vand
p573
Vmore
p574
tp575
F1
s(g379
g482
tp576
F1
s(Vsundrie
p577
g35
tp578
F1
s(Vmay
p579
g307
tp580
F1
s(Vreduce
p581
Vthem
p582
tp583
F1
s(g205
Vbene
p584
tp585
F1
s(Vwhich
g559
tp586
F1
s(Vneuer
p587
Vyet
p588
tp589
F1
s(Vi
g459
tp590
F1
s(Vobtayning
p591
Va
tp592
F1
s(Vhandlinge
p593
Vof
p594
tp595
F1
s(Vfor
p596
Vthat
p597
tp598
F1
s(Vmanners.
p599
g454
tp600
F1
s(g582
Vinto
p601
tp602
F1
s(V.
g392
tp603
F1
s(Vbe
p604
Ventronised
p605
tp606
F1
s(g372
Vdoth
p607
tp608
F1
s(Vafter
p609
Vyour
p610
tp611
F1
s(Vboth
p612
Vour
p613
tp614
F1
s(V&
g441
tp615
F1
s(Veuen
p616
Vso
p617
tp618
F1
s(g415
Vso
p619
tp620
F1
s(Vi
Vthought
p621
tp622
F1
s(Vmyne
p623
Vmaster
p624
tp625
F1
s(Vthe
p626
Vreading.
p627
tp628
F1
s(g434
Vwritten
p629
tp630
F1
s(g169
Vhe
tp631
F1
s(g594
g207
tp632
F1
s(Vryper
p633
Vworkes
p634
tp635
F1
s(Vby
p636
Vgreen
p637
tp638
F1
s(Vour
p639
Vnatiue
p640
tp641
F1
s(g172
Vyouth,
p642
tp643
F1
s(g483
g340
tp644
F1
s(Vlawrell.
p645
Vi
tp646
F1
s(g320
Vi
tp647
F1
s(g191
Vtake
p648
tp649
F1
s(g219
Vflorish
p650
tp651
F1
s(Vyou)
p652
g147
tp653
F1
s(Vafter
p654
Vmany
p655
tp656
F1
s(Vdesiring
p657
Vyou
p658
tp659
F1
s(g72
Vvnto
p660
tp661
F1
s(Vposteritie.
p662
Vand
tp663
F1
s(Vthe
p664
Vclyming
p665
tp666
F1
s(g145
Vpamphlets
p667
tp668
F1
s(g488
Vto
p669
tp670
F1
s(Vof
p671
g126
tp672
F1
s(Vwill,
p673
g616
tp674
F1
s(Vpleasaunt
p675
g228
tp676
F1
s(g111
Vsort
p677
tp678
F1
s(g258
Vof
p679
tp680
F1
s(Vlayes,
p681
Vletters,
p682
tp683
F1
s(g642
Vfor
p684
tp685
F1
s(Vby
p686
g545
tp687
F4
s(g347
Vyour
p688
tp689
F1
s(Vdone
p690
g298
tp691
F1
s(Vit
p692
g385
tp693
F1
s(Vhimselfe:
p694
Vtwo
p695
tp696
F1
s(Voffended
p697
Vwith
p698
tp699
F1
s(Valthough
p700
Vsome
p701
tp702
F1
s(Vof
p703
g446
tp704
F1
s(Vdeede
p705
Vi
tp706
F1
s(Vformer
p707
Vgood
p708
tp709
F1
s(g69
g497
tp710
F1
s(V(i
p711
Vsay)
p712
tp713
F1
s(Vand
p714
g21
tp715
F1
s(g360
Vweight)
p716
tp717
F1
s(Vfriend
p718
Vand
p719
tp720
F1
s(g49
Vto
tp721
F1
s(Vphilosopher
p722
V,
tp723
F1
s(g531
Vour
p724
tp725
F1
s(Vbe
p726
Vhandled
p727
tp728
F1
s(Vtheir
p729
g213
tp730
F1
s(Vletters.
p731
Vthe
p732
tp733
F1
s(Vlast,
p734
g110
tp735
F1
s(g117
Vsame.
p736
tp737
F1
s(Vlong
p738
g507
tp739
F1
s(g283
g492
tp740
F1
s(g478
g346
tp741
F1
s(Vi
g241
tp742
F1
s(Vbe
g697
tp743
F1
s(Vto
p744
Vgood
p745
tp746
F1
s(g317
Vforth
p747
tp748
F1
s(Vpraise
p749
g686
tp750
F1
s(Vbearded
p751
g722
tp752
F1
s(Van
p753
g485
tp754
F1
s(Vvnto
p755
g38
tp756
F1
s(g358
V.
tp757
F1
s(Vvnto
p758
g561
tp759
F1
s(g418
g633
tp760
F1
s(g627
Vand
tp761
F1
s(g525
g16
tp762
F1
s(Vperfection
p763
g417
tp764
F1
s(Vrecreation,
p765
g77
tp766
F1
s(Vgood
p767
g711
tp768
F1
s(g289
g703
tp769
F1
s(g634
g285
tp770
F2
s(Vand
p771
Vfauour
p772
tp773
F1
s(Vvnto
p774
Vmee
p775
tp776
F1
s(Vloue
p777
V.
tp778
F1
s(g251
Vfarre
p779
tp780
F1
s(g161
Vhalfe
p781
tp782
F1
s(Vbloome
p783
g327
tp784
F1
s(g779
Vas
tp785
F1
s(Vin
p786
g705
tp787
F1
s(g476
g267
tp788
F1
s(Vand
p789
g163
tp790
F1
s(Vthat
p791
g58
tp792
F1
s(g383
g509
tp793
F1
s(g619
Vin
tp794
F1
s(g677
Vmaye
p795
tp796
F1
s(Vworthy
p797
g626
tp798
F1
s(Vthattayning
p799
Vof
tp800
F1
s(Vmirror
p801
Vof
p802
tp803
F1
s(g584
g302
tp804
F1
s(g464
Vpunnishments
p805
tp806
F1
s(Vi
Vdoubt
p807
tp808
F1
s(Vfor
p809
Vvices?
p810
tp811
F1
s(g498
Vthe
tp812
F1
s(Vantiquitie,
p813
Vleft
p814
tp815
F1
s(g597
Vi
tp816
F1
s(Vdoubteth
p817
Vbut
p818
tp819
F1
s(g286
g714
tp820
F1
s(Vgraunted
p821
g774
tp822
F1
s(Vthe
p823
g662
tp824
F1
s(Va
g92
tp825
F1
s(g511
Vany
p826
tp827
F1
s(Vand
p828
g654
tp829
F1
s(g242
g738
tp830
F1
s(g374
Vbrayne
p831
tp832
F1
s(Vof
p833
g813
tp834
F1
s(Vmake
p835
Va
tp836
F1
s(Vthat
p837
Vcontrary
p838
tp839
F1
s(Vshall
p840
g277
tp841
F1
s(g826
Vman
p842
tp843
F1
s(g605
g469
tp844
F1
s(Vvocables,
p845
Vapt
p846
tp847
F1
s(Vlesse
g783
tp848
F1
s(g17
g244
tp849
F1
s(g551
Vimmortall
p850
tp851
F1
s(Vthe
p852
Vworkes
tp853
F1
s(g708
g673
tp854
F1
s(g281
g378
tp855
F1
s(Vdeuised
p856
g636
tp857
F1
s(Vgreeks,
p858
V&
tp859
F1
s(g571
Vof
tp860
F1
s(Vthey
p861
Vhaue
p862
tp863
F1
s(Viust
p864
g556
tp865
F1
s(V,
g577
tp866
F1
s(Vhaue
p867
g316
tp868
F1
s(g235
Vperuse,
p869
tp870
F1
s(g613
Vcountreymen
p871
tp872
F1
s(g727
Vin
p873
tp874
F1
s(Vtoward
p875
g291
tp876
F1
s(g682
g343
tp877
F1
s(Vhis
p878
g539
tp879
F1
s(Va
g490
tp880
F1
s(Vconsent
p881
g671
tp882
F1
s(Vpresent
p883
g322
tp884
F1
s(Vrecreation
p885
g182
tp886
F1
s(g655
Vpretie
p887
tp888
F1
s(Vowne
p889
g885
tp890
F1
s(Vmy
Vbarreyne
p891
tp892
F1
s(g660
Vyou
p893
tp894
F1
s(Va
g99
tp895
F1
s(Vreading
p896
g9
tp897
F1
s(g869
Vand
p898
tp899
F1
s(g775
g420
tp900
F1
s(g732
Vwhich
p901
tp902
F4
s(g818
Vthat
p903
tp904
F1
s(g156
g104
tp905
F1
s(g437
Vwith
p906
tp907
F1
s(Vverses
p908
Vof
p909
tp910
F1
s(Vsome
p911
Vgood
p912
tp913
F1
s(g245
g257
tp914
F2
s(g406
g516
tp915
F1
s(Vmarie
p916
g786
tp917
F1
s(Vthe
g202
tp918
F1
s(g25
Vof
tp919
F1
s(Vthat
p920
g513
tp921
F2
s(g862
Vin
tp922
F1
s(g211
g729
tp923
F2
s(Vlearne)
p924
Vdid
p925
tp926
F1
s(g650
Vvnto
p927
tp928
F1
s(Vpreseruation
p929
g116
tp930
F1
s(g493
Vfantasie
p931
tp932
F1
s(g105
Vtoward
p933
tp934
F1
s(Vforeleaders
p935
Vvnto
tp936
F1
s(Vmay
p937
Viudge
p938
tp939
F1
s(g334
g505
tp940
F1
s(g409
V,
tp941
F1
s(g903
g210
tp942
F1
s(g846
g138
tp943
F1
s(Vsonets,
p944
g856
tp945
F1
s(Vcommon:
p946
Vbut
p947
tp948
F1
s(Vchaucer
p949
V,
tp950
F1
s(g795
g835
tp951
F1
s(Vas
p952
Vi
tp953
F2
s(Vbe
Va
tp954
F1
s(g376
g840
tp955
F1
s(Va
g801
tp956
F1
s(g831
Vto
tp957
F1
s(g337
Vzeale
p958
tp959
F1
s(g197
g74
tp960
F1
s(g12
g767
tp961
F1
s(g262
g751
tp962
F1
s(Vfor
p963
g639
tp964
F1
s(g473
g371
tp965
F1
s(g398
g645
tp966
F1
s(g684
Vthe
p967
tp968
F1
s(Vwherein
p969
Vyou
p970
tp971
F1
s(g566
Vgeffrey
p972
tp973
F1
s(Vhonest
p974
g765
tp975
F1
s(Vthe
Vclarkely
p976
tp977
F1
s(Va
g160
tp978
F1
s(g893
g199
tp979
F1
s(g719
g623
tp980
F1
s(g873
g313
tp981
F1
s(Vverses,
p982
g852
tp983
F1
s(g976
g593
tp984
F1
s(g970
g86
tp985
F1
s(g54
g612
tp986
F1
s(Vand
p987
g982
tp988
F1
s(g33
g858
tp989
F1
s(Vdeuises
p990
g171
tp991
F1
s(g81
Vin
tp992
F1
s(g174
g165
tp993
F1
s(g688
g707
tp994
F1
s(g553
g89
tp995
F1
s(Vfriend)
p996
g433
tp997
F1
s(Vthe
g734
tp998
F1
s(g807
g53
tp999
F1
s(Vthe
g56
tp1000
F1
s(g909
Veloquent
p1001
tp1002
F1
s(g124
g247
tp1003
F1
s(g667
g758
tp1004
F1
s(g574
g821
tp1005
F1
s(g363
g652
tp1006
F1
s(g931
g305
tp1007
F1
s(g444
g349
tp1008
F1
s(g972
g949
tp1009
F1
s(g393
g472
tp1010
F1
s(g814
Vvnto
p1011
tp1012
F1
s(Vwinne
p1013
Va
tp1014
F1
s(g226
Vcopie.
p1015
tp1016
F1
s(g486
V.
tp1017
F1
s(Vyt
p1018
Vyou
p1019
tp1020
F1
s(g679
g599
tp1021
F1
s(g470
Volde
p1022
tp1023
F1
s(g42
Vaduant
p1024
tp1025
F1
s(Vtrace
p1026
Vof
p1027
tp1028
F1
s(Vorder.
p1029
Vthe
tp1030
F1
s(Va
Vwork
p1031
tp1032
F1
s(V&
Vpleasant
p1033
tp1034
F1
s(g906
g27
tp1035
F1
s(Vfound
p1036
Vin
tp1037
F1
s(g933
g799
tp1038
F1
s(Vthe
p1039
Vsame
p1040
tp1041
F1
s(Vmonasillables
p1042
g579
tp1043
F1
s(g328
Vin
p1044
tp1045
F1
s(g154
g1039
tp1046
F1
s(g695
g221
tp1047
F1
s(g14
g388
tp1048
F1
s(g310
g845
tp1049
F1
s(g665
Vof
p1050
tp1051
F1
s(g354
g144
tp1052
F1
s(g621
g692
tp1053
F1
s(g5
g425
tp1054
F2
s(g423
g867
tp1055
F1
s(g669
g436
tp1056
F1
s(g1050
g753
tp1057
F1
s(g455
g817
tp1058
F1
s(Vas
p1059
g837
tp1060
F1
s(g1031
g797
tp1061
F1
s(g617
Vthat
tp1062
F1
s(g229
Vcompendious
p1063
tp1064
F1
s(g439
g596
tp1065
F1
s(g927
g763
tp1066
F1
s(g850
g400
tp1067
F1
s(g296
g404
tp1068
F1
s(g747
g569
tp1069
F1
s(g1063
g944
tp1070
F1
s(Vhaue
g690
tp1071
F1
s(g265
g861
tp1072
F1
s(g268
g875
tp1073
F1
s(Vwil
p1074
g466
tp1075
F1
s(g222
g522
tp1076
F1
s(g541
g1059
tp1077
F1
s(g457
Vto
p1078
tp1079
F1
s(g658
g952
tp1080
F1
s(g303
g833
tp1081
F1
s(g253
Vvnto
tp1082
F1
s(g967
g591
tp1083
F1
s(Vsuch
p1084
Vnotable
p1085
tp1086
F1
s(g180
g777
tp1087
F1
s(g629
g250
tp1088
F1
s(g1078
g581
tp1089
F1
s(g810
g916
tp1090
F1
s(g480
g996
tp1091
F1
s(g183
g1018
tp1092
F1
s(g214
Vfables
p1093
tp1094
F1
s(g130
g664
tp1095
F1
s(g871
V&
tp1096
F1
s(Vwandred
p1097
Vsomwhat
p1098
tp1099
F1
s(Vencouraged
p1100
Vto
p1101
tp1102
F1
s(g514
g744
tp1103
F1
s(g1019
g1074
tp1104
F1
s(V,
g828
tp1105
F1
s(g19
Vto
tp1106
F1
s(Vthe
p1107
g1026
tp1108
F1
s(g958
g771
tp1109
F1
s(g588
g119
tp1110
F1
s(g898
g657
tp1111
F1
s(g275
g179
tp1112
F1
s(g938
Vouer
p1113
tp1114
F1
s(g624
g547
tp1115
F1
s(g802
g414
tp1116
F1
s(Votherwise
p1117
Vi
tp1118
F1
s(g330
g187
tp1119
F1
s(g248
g71
tp1120
F1
s(g563
g987
tp1121
F1
s(Vof
Vyour
p1122
tp1123
F1
s(g781
g573
tp1124
F1
s(g368
g218
tp1125
F1
s(g520
g881
tp1126
F1
s(g1015
Vfor
p1127
tp1128
F1
s(Vskill
p1129
g123
tp1130
F1
s(Vseeme
p1131
Vby
tp1132
F1
s(g239
g1036
tp1133
F1
s(g518
g1100
tp1134
F1
s(g891
g1129
tp1135
F1
s(g712
Vto
p1136
tp1137
F1
s(g716
g336
tp1138
F1
s(g255
g1084
tp1139
F1
s(g1033
g216
tp1140
F1
s(g925
g587
tp1141
F1
s(g557
g974
tp1142
F1
s(g637
g65
tp1143
F1
s(g1022
g935
tp1144
F1
s(g460
g176
tp1145
F1
s(g543
g1042
tp1146
F1
s(Vwhich
Vi
tp1147
F1
s(g442
Vmight
p1148
tp1149
F1
s(g698
g231
tp1150
F1
s(g701
g937
tp1151
F1
s(g1044
g675
tp1152
F1
s(g947
g609
tp1153
F1
s(g28
g929
tp1154
F1
s(g292
g193
tp1155
F1
s(V,
g681
tp1156
F1
s(g745
g731
tp1157
F1
s(g1093
g422
tp1158
F1
s(g185
g924
tp1159
F1
s(g1101
Vfollowe
p1160
tp1161
F1
s(g640
g264
tp1162
F1
s(g887
g990
tp1163
F1
s(g1113
Vgraue
p1164
tp1165
F1
s(g1027
g791
tp1166
F2
s(g601
g911
tp1167
F1
s(g736
Vthe
tp1168
F1
s(g1001
g32
tp1169
F1
s(g1127
g1117
tp1170
F1
s(Vthe
g908
tp1171
F1
s(g279
g48
tp1172
F1
s(Vcountreymen,
p1173
g533
tp1174
F1
s(g1164
Va
tp1175
F1
s(g237
g789
tp1176
F1
s(g912
g1029
tp1177
F1
s(g114
g288
tp1178
F2
s(g462
g969
tp1179
F1
s(g610
g889
tp1180
F1
s(g151
Vand
tp1181
F1
s(g208
Va
tp1182
F1
s(g1024
g963
tp1183
F1
s(V.
Vthe
p1184
tp1185
F1
s(g805
g809
tp1186
F1
s(g389
g107
tp1187
F1
s(g1011
g823
tp1188
F2
s(Vother
p1189
Vof
p1190
tp1191
F1
s(Vquicknes
p1192
g503
tp1193
F1
s(g648
g864
tp1194
F1
s(g1098
g83
tp1195
F1
s(g158
g749
tp1196
F1
s(g93
g726
tp1197
F5
s(g87
Va
tp1198
F1
s(g901
g431
tp1199
F1
s(g1040
g946
tp1200
F1
s(Vhaue
g1097
tp1201
F1
s(Vthe
g896
tp1202
F1
s(Vbut
p1203
g694
tp1204
F1
s(g467
g755
tp1205
F1
s(g325
g565
tp1206
F1
s(g426
g102
tp1207
F1
s(Vwhich
g700
tp1208
F1
s(g1136
g883
tp1209
F1
s(g607
g1131
tp1210
F1
s(g1160
g1107
tp1211
F1
s(g528
g530
tp1212
F1
s(g772
g920
tp1213
F1
s(Vrather
p1214
Vto
p1215
tp1216
F1
s(g1215
g1013
tp1217
F1
s(g724
g1173
tp1218
F1
s(g838
g411
tp1219
F1
s(g75
g550
tp1220
F1
s(g412
g168
tp1221
F1
s(g1184
g1189
tp1222
F1
s(g842
g1203
tp1223
F1
s(g1190
g878
tp1224
F1
s(g350
g1192
tp1225
F1
s(g1122
g718
tp1226
F1
s(g534
g1214
tp1227
F1
s(g1148
g604
tp1228
F1
s(g1085
g272
tp1229
F1
s.