ccollections
defaultdict
p1
(c__builtin__
float
p2
tRp3
(Vbee
p4
Vsome
p5
tp6
F1
s(Vconstancie,
p7
Vand
p8
tp9
F1
s(Vit
p10
Vbe,
p11
tp12
F1
s(Vlove
p13
Vas
p14
tp15
F2
s(Vof
p16
Vthese
p17
tp18
F1
s(Vsome
Vheavenlie
p19
tp20
F1
s(g11
Vif
tp21
F1
s(Vtoo
p22
Vsmall,
p23
tp24
F1
s(Vto
p25
Vbe
p26
tp27
F1
s(Vlicia
p28
Vis,
p29
tp30
F1
s(Vor
p31
Vsome
p32
tp33
F2
s(Vthat
p34
Vkinde
p35
tp36
F1
s(Vfaith
p37
Vvvithout
p38
tp39
F1
s(Vmay
Vbe,
p40
tp41
F1
s(Vand
p42
Vthanke
p43
tp44
F1
s(Vhead,
p45
Va
tp46
F1
s(Vmay
p47
Vnot
p48
tp49
F1
s(Vat
p50
Vthe
p51
tp52
F2
s(Vcourtesie
p53
Vvvhich
tp54
F1
s(Vit,
p55
g42
tp56
F1
s(Vmay
p57
Vbe
p58
tp59
F1
s(Vfavours
p60
Vchaste
p61
tp62
F1
s(Vvvoonder,
p63
Vvvhich
p64
tp65
F1
s(Vasteeme
p66
Vlove
tp67
F1
s(Vbut
p68
Vone,
p69
tp70
F1
s(g14
Vby
p71
tp72
F1
s(Vthe
Vlove
tp73
F1
s(Vas
Vthou
p74
tp75
F1
s(g64
Vthe
p76
tp77
F1
s(Vof
p78
Vtears:
p79
tp80
F1
s(Vof
p81
Verrour:
p82
tp83
F1
s(g61
Vby
p84
tp85
F1
s(Vif
p86
Vthou
p87
tp88
F2
s(Vlove
p89
Vvvherewith
p90
tp91
F2
s(Vsome
p92
Vdiana,
p93
tp94
F1
s(Vvenus,
p95
Vfairer
p96
tp97
F1
s(Vsatisfied
p98
Vvvith
p99
tp100
F1
s(Vand
p101
Vthat
p102
tp103
F1
s(Vnor
p104
Vcannot
p105
tp106
F1
s(Vmade
p107
Vas
p108
tp109
F1
s(Vprecisest
p110
g47
tp111
F1
s(Vinconstancie:
p112
Vtemple
p113
tp114
F1
s(Vfedde
p115
Vvvith
p116
tp117
F1
s(Vdiscipline.
p118
Vit
tp119
F1
s(g116
Vadmiration:
p120
tp121
F1
s(Vno
p122
g95
tp123
F1
s(Vdoo
p124
Vi
tp125
F1
s(Vportende
p126
Vnothing:
p127
tp128
F1
s(Vvvorld
p129
Voffered
p130
tp131
F1
s(Vmy
p132
g28
tp133
F1
s(Vshadowed
p134
g118
tp135
F1
s(Vtake
p136
Vheede
p137
tp138
F1
s(g96
Vfarre;
p139
tp140
F1
s(Vviolence:
p141
Vrespecting
p142
tp143
F1
s(V(reader)
p144
g136
tp145
F1
s(Vi
Vcommende
p146
tp147
F1
s(g99
Vvvoondering,
p148
tp149
F1
s(Vvulgare
p150
g45
tp151
F1
s(Vmake
p152
Va
tp153
F1
s(g43
Vthe
p154
tp155
F1
s(Vmonster
p156
Vof
p157
tp158
F1
s(Vas
p159
Vvvere
p160
tp161
F1
s(Vin
p162
Vsuch
p163
tp164
F1
s(Vof
p165
Vthe
p166
tp167
F1
s(Vand
p168
Vtherefore
p169
tp170
F1
s(Vassurance:
p171
Vmonarch
p172
tp173
F1
s(Vand
p174
Vfarre
p175
tp176
F1
s(Vtyrant:
p177
Voccasion
p178
tp179
F1
s(g160
Vall
p180
tp181
F1
s(g35
g53
tp182
F1
s(Vof
p183
Vlies:
p184
tp185
F1
s(Vbastard:
p186
Vand
p187
tp188
F1
s(Vof
p189
Vheartes:
p190
tp191
F1
s(g148
g115
tp192
F1
s(g172
g78
tp193
F1
s(Vinjuriouslie
p194
Vmade
p195
tp196
F1
s(Vchange,
p197
Vyet
p198
tp199
F1
s(Vcourtizan:
p200
Vfurious
p201
tp202
F1
s(Vmurtherer
p203
Vof
p204
tp205
F1
s(Va
g197
tp206
F1
s(Vchaste,
p207
g31
tp208
F1
s(Vthou
Vlike
p209
tp210
F1
s(Vbootles.
p211
Vthis
p212
tp213
F1
s(Vpittie:
p214
Vvvay
p215
tp216
F1
s(g137
Vthou
p217
tp218
F1
s(Va
Vcruell
p219
tp220
F1
s(g26
g92
tp221
F1
s(Vmollinevx,
p222
Vfor
p223
tp224
F1
s(Vpatronesse
p225
g16
tp226
F1
s(Vprison
p227
g189
tp228
F1
s(Vnothing
p229
Vbut
p230
tp231
F1
s(Vthat
p232
Vname
p233
tp234
F1
s(Vin
p235
Vone
p236
tp237
F1
s(Vpoisoned
p238
Vhonney:
p239
tp240
F1
s(Vthue
p241
g144
tp242
F1
s(Vknowe
p243
Va
tp244
F1
s(Vtake
p245
g55
tp246
F1
s(g178
Vof
p247
tp248
F1
s(Vthe
g225
tp249
F1
s(Vmay
g4
tp250
F2
s(g169
g211
tp251
F1
s(g219
g177
tp252
F1
s(Vand
p253
g126
tp254
F1
s(Vfarre
p255
Vfrom
p256
tp257
F1
s(g201
g186
tp258
F1
s(Vease:
p259
g227
tp260
F1
s(Vladies
p261
Vvvoorthinesse:
p262
tp263
F1
s(g48
Vmislike:
p264
tp265
F1
s(Vhath
p266
g194
tp267
F1
s(g256
g141
tp268
F1
s(Vvenus
p269
Vsonne
p270
tp271
F1
s(Vit
p272
g57
tp273
F4
s(Vboote
p274
Vvvere
p275
tp276
F1
s(Vbeloved,
p277
g98
tp278
F1
s(Vtrueth,
p279
g7
tp280
F1
s(Vthe
p281
Vvoorthie
p282
tp283
F1
s(Vordinarie
p284
Vconceit,
p285
tp286
F1
s(Vthe
p287
g274
tp288
F1
s(g285
Va
tp289
F1
s(Va
Vcommon
p290
tp291
F1
s(g102
Vone
p292
tp293
F1
s(g130
Vto
p294
tp295
F1
s(g69
g101
tp296
F1
s(g233
Vi
tp297
F1
s(g239
Vimpudant
p298
tp299
F1
s(Verre
p300
Vnot,
p301
tp302
F1
s(Vthus
p303
g124
tp304
F1
s(Vhonour,
p305
g255
tp306
F1
s(Vthan
p307
Vthis,
p308
tp309
F1
s(Vwill
p310
Vnot,
p311
tp312
F1
s(g290
Vperson
p313
tp314
F1
s(Vvvorthie
p315
Vladie
p316
tp317
F1
s(g82
Vshape
p318
tp319
F1
s(Vvvherewith
g269
tp320
F1
s(Vhave:
p321
g303
tp322
F1
s(Vpoems;
p323
Vit
tp324
F1
s(Venemie
p325
Vof
p326
tp327
F1
s(Vmy
p328
Vconceit,
p329
tp330
F1
s(Vthese
p331
Vpoemes
p332
tp333
F1
s(g212
Vis
p334
tp335
F1
s(g23
g168
tp336
F1
s(Vof
p337
Vthousandes,
p338
tp339
F1
s(g316
g222
tp340
F1
s(g19
g63
tp341
F1
s(g270
g266
tp342
F1
s(g51
Vleast
p343
tp344
F1
s(Vis
p345
Vlearnings
p346
tp347
F1
s(Vtake
p348
Vher
p349
tp350
F1
s(Vit,
p351
g245
tp352
F1
s(g313
g310
tp353
F1
s(g84
g305
tp354
F1
s(Vbee
g328
tp355
F1
s(g105
g321
tp356
F1
s(g17
g323
tp357
F1
s(g292
g162
tp358
F1
s(g332
Vi
tp359
F1
s(g298
g200
tp360
F1
s(Vmeane
p361
g34
tp362
F1
s(g343
g207
tp363
F1
s(g8
Vhonoar,
p364
tp365
F1
s(Vspoile
p366
g337
tp367
F1
s(Vmuse
p368
Vvvhat
p369
tp370
F1
s(Vthat
p371
g89
tp372
F1
s(Vi
g243
tp373
F1
s(g29
g348
tp374
F1
s(g157
Vnature:
p375
tp376
F1
s(g187
g235
tp377
F1
s(g113
Vof
p378
tp379
F1
s(Vfound
p380
Vat
tp381
F1
s(g87
g368
tp382
F1
s(Va
Vbase
p383
tp384
F1
s(g180
Vthe
p385
tp386
F1
s(g329
g253
tp387
F1
s(Vhim
Vthat
p388
tp389
F1
s(g311
g104
tp390
F1
s(Vhonoured
p391
g281
tp392
F1
s(Vi
Vhave
p393
tp394
F2
s(g93
g50
tp395
F1
s(g308
Vvvhich
p396
tp397
F1
s(Vtreason:
p398
g37
tp399
F1
s(Vi
g380
tp400
F1
s(Vvertues
p401
g165
tp402
F1
s(g318
Vof
p403
tp404
F1
s(Vkinduesse,
p405
Vhonestie,
p406
tp407
F1
s(Vby
p408
g13
tp409
F1
s(Vminde,
p410
Van
p411
tp412
F1
s(g198
g287
tp413
F1
s(g40
Vi
tp414
F1
s(Voracle
p415
g183
tp416
F1
s(g406
g279
tp417
F1
s(g127
Vvvhatsoever
p418
tp419
F1
s(g264
Vperhaps
p420
tp421
F1
s(g378
g398
tp422
F1
s(g204
g259
tp423
F1
s(Vshee
p424
g345
tp425
F1
s(Vin
p426
g331
tp427
F1
s(g346
Vimage,
p428
tp429
F1
s(g282
Vlicia:
p430
tp431
F1
s(g79
g203
tp432
F1
s(Vlove.
p433
g241
tp434
F1
s(Vbut
p435
Vthe
p436
tp437
F2
s(g230
Vhis
p438
tp439
F1
s(g236
Vvvord,
p440
tp441
F1
s(Vunder
p442
g232
tp443
F1
s(g76
g110
tp444
F1
s(g217
g300
tp445
F1
s(g438
g261
tp446
F1
s(g38
g171
tp447
F1
s(g420
g442
tp448
F1
s(g294
g152
tp449
F1
s(g5
Vcolledge;
p450
tp451
F1
s(g120
Vrespecting
p452
tp453
F1
s(g364
g159
tp454
F1
s(g190
g156
tp455
F1
s(g154
g315
tp456
F1
s(g430
Vbut
tp457
F1
s(g139
g272
tp458
F1
s(g450
Vit
tp459
F1
s(g385
g129
tp460
F1
s(g58
g424
tp461
F1
s(g71
Vall
p462
tp463
F1
s(g184
g325
tp464
F1
s(Vis
p465
Va
tp466
F1
s(g301
g66
tp467
F1
s(g375
g238
tp468
F1
s(g338
g465
tp469
F1
s(Vmore
p470
g307
tp471
F1
s(Vhappie
p472
g408
tp473
F1
s(g175
g470
tp474
F1
s(g247
Vsighes:
p475
tp476
F1
s(g209
g351
tp477
F1
s(g403
g112
tp478
F1
s(g262
g107
tp479
F1
s(g440
Vnot
p480
tp481
F1
s(g396
Vi
tp482
F2
s(g369
g132
tp483
F1
s(g349
g25
tp484
F1
s(g388
Vloves
p485
tp486
F1
s(g393
g391
tp487
F1
s(Vlove,
p488
g174
tp489
F1
s(g326
g214
tp490
F1
s(g90
g426
tp491
F1
s(Vought.
p492
g86
tp493
F1
s(g166
g277
tp494
F1
s(g462
g60
tp495
F1
s(g223
Vwhose
tp496
F1
s(g485
g435
tp497
F1
s(Vi
g361
tp498
F1
s(g418
g10
tp499
F1
s(Va
g150
tp500
F1
s(g411
g284
tp501
F1
s(g475
g415
tp502
F1
s(g480
g433
tp503
F1
s(g334
g488
tp504
F1
s(g74
g492
tp505
F1
s(g142
g68
tp506
F1
s(g452
g229
tp507
F1
s(g436
g401
tp508
F1
s(g383
g410
tp509
F1
s(Vminerva
p510
g122
tp511
F1
s(g163
g405
tp512
F1
s(g32
g510
tp513
F1
s(g108
g472
tp514
F1
s(g146
g371
tp515
F1
s(g275
g22
tp516
F1
s(g195
g366
tp517
F1
s(g428
Vor
tp518
F1
s(Vhave
g134
tp519
F1
s(g215
g81
tp520
F1
s.