ccollections
defaultdict
p1
(c__builtin__
float
p2
tRp3
(Vaccesse
p4
Vand
p5
tp6
F1
s(Vfaines
p7
Vthem
p8
tp9
F1
s(Vmind
p10
Vvnto
p11
tp12
F1
s(Vpallas
p13
Vcalled
p14
tp15
F1
s(Vthe
Vcause
p16
tp17
F1
s(Vwith
p18
Vgreat
p19
tp20
F1
s(Vof
p21
Vthings.
p22
tp23
F1
s(Vopposite
p24
Vto
p25
tp26
F1
s(Vlibels
p27
V&
tp28
F1
s(Villam
p29
Vterra
p30
tp31
F1
s(Vis
p32
Vof
tp33
F2
s(Vthe
Vvse
p34
tp35
F2
s(Vbring
p36
Vforth
p37
tp38
F1
s(Veuents,
p39
Vmore
p40
tp41
F1
s(Vpoesy
p42
Vparabolical,
p43
tp44
F1
s(Vthat
p45
Vit
tp46
F2
s(Vthe
p47
Vlike
p48
tp49
F1
s(Vthen
p50
Vof
p51
tp52
F1
s(Vsensible,
p53
Vnor
p54
tp55
F1
s(Vexpounded,
p56
Vthat
p57
tp58
F1
s(Vtimes,
p59
Vas
p60
tp61
F1
s(Vhistory
p62
g32
tp63
F1
s(Vnature
p64
g21
tp65
F1
s(Vany
p66
Vpoint
p67
tp68
F1
s(Vdiuine
p69
Vpoesie,
p70
tp71
F1
s(Vor
p72
Vparables.
p73
tp74
F1
s(Vrepresenteth
p75
Vactions
p76
tp77
F1
s(Vtheir
p78
Vmother
p79
tp80
F1
s(Vextremam,
p81
Vvt
p82
tp83
F1
s(Vwe
p84
Vlast
p85
tp86
F1
s(Vsubiects,
p87
Vas
p88
tp89
F1
s(Vthen
p90
Vthe
p91
tp92
F2
s(Vand
p93
Verect
p94
tp95
F1
s(Vthey
p96
Vdoe
p97
tp98
F1
s(Vthe
Vfable,
p99
tp100
F1
s(Vof
p101
Vman,
p102
tp103
F1
s(Vand
p104
Vconferreth
p105
tp106
F1
s(Vbinde
p107
Viupiter,
p108
tp109
F1
s(Vactions,
p110
Vnot
p111
tp112
F1
s(Vthat
p113
Vis
p114
tp115
F2
s(Vmonarchies
p116
Vneede
p117
tp118
F1
s(Vcome
p119
Vin
p120
tp121
F1
s(Vin
p122
g69
tp123
F1
s(Vvnexpected,
p124
Vand
p125
tp126
F1
s(Vlyon,
p127
Vin
p128
tp129
F1
s(g14
Vbriareus
p130
tp131
F1
s(Vwho
p132
Vwas
p133
tp134
F1
s(Vchyron
p135
Vthe
p136
tp137
F1
s(g91
Vvulgar
p138
tp139
F1
s(Vwith
p140
Vhistory:
p141
tp142
F1
s(Vwhich
p143
Vlater
p144
tp145
F1
s(Vbut
p146
Vmore
p147
tp148
F1
s(Vas
p149
Vwell
p150
tp151
F1
s(Vnow
p152
Vand
p153
tp154
F1
s(Vof
p155
Vhieroglyphikes
p156
tp157
F1
s(Vthey
p158
Vwere
p159
tp160
F1
s(Vsubiect
p161
Vcomonly
p162
tp163
F1
s(Vthat
Vtendeth
p164
tp165
F1
s(Vconceit.
p166
g143
tp167
F1
s(Vguile,
p168
Vas
p169
tp170
F1
s(Vrude
p171
Vtimes,
p172
tp173
F1
s(Vas
p174
Vif
p175
tp176
F1
s(Vhearts
p177
Vof
tp178
F1
s(g111
Vso
p179
tp180
F1
s(Vpoesie
Vendueth
p181
tp182
F1
s(Vestimation
p183
Vin
p184
tp185
F1
s(Vbefore
Varguments:
p186
tp187
F1
s(Vbut
p188
Vthere
p189
tp190
F1
s(Vpast;
p191
Vallvsive
p192
tp193
F1
s(Vancient
p194
g59
tp195
F1
s(Vexposition
Vdeuised,
tp196
F1
s(Vman
p197
Vin
p198
tp199
F1
s(Vof
p200
Vhistory
p201
tp202
F1
s(Vshewes
p203
Vof
p204
tp205
F1
s(Venceladoque
p206
Vsororem
p207
tp208
F1
s(Vdesires
p209
Vof
p210
tp211
F1
s(Vhath
p212
Vwith
p213
tp214
F1
s(Vhistory,
p215
Vand
p216
tp217
F1
s(Vthe
Vpeople,
p218
tp219
F1
s(Vpollicy,
p220
Vor
p221
tp222
F1
s(g133
Vpart
p223
tp224
F1
s(Veuents
p225
Vgreater
p226
tp227
F1
s(Vfained
p228
Vliues,
p229
tp230
F1
s(g136
Vcentaure
p231
tp232
F1
s(g114
g191
tp233
F1
s(Vpleasure
p234
Vor
p235
tp236
F1
s(Vand
p237
Vvice,
p238
tp239
F1
s(g169
Vof
tp240
F1
s(Vbelongeth
p241
Vto
tp242
F1
s(Vsubmitting
p243
Vthe
p244
tp245
F1
s(Vand
p246
Vto
p247
tp248
F1
s(Vbefore
p249
Vremembred;
p250
tp251
F1
s(Vbuckle
p252
Vand
p253
tp254
F1
s(g99
Vthat
p255
tp256
F1
s(Vand
p257
Vsubtiltie
p258
tp259
F1
s(Vthe
p260
Vpart
p261
tp262
F1
s(V,
Vand
tp263
F1
s(Vand
p264
Vobscure
p265
tp266
F1
s(Vwanted
p267
Vboth
p268
tp269
F1
s(Vof
p270
Vactions
p271
tp272
F2
s(Vviolence,
p273
Vand
tp274
F1
s(Vthe
p275
Vproprietie
p276
tp277
F1
s(g258
Vof
p278
tp279
F1
s(g172
Vand
p280
tp281
F1
s(Vfit.
p282
g188
tp283
F1
s(Vmeere
p284
Vimitation
p285
tp286
F1
s(Vof
p287
Vparabolical
p288
tp289
F1
s(Vof
p290
Vaesope
p291
tp292
F1
s(Vto
p293
Vhaue
p294
tp295
F1
s(Vhistorie
g75
tp296
F1
s(Vthe
Veducation
p297
tp298
F1
s(Vearth
p299
g78
tp300
F1
s(Vout
p301
Vsometimes
p302
tp303
F1
s(g189
Vremaineth
p304
tp305
F1
s(Vwhen
p306
Vprinces
p307
tp308
F1
s(Vaccording
p309
Vto
p310
tp311
F1
s(Vwith
p312
Vrebellion,
p313
tp314
F1
s(g147
Vfeminine:
p315
tp316
F1
s(Vtherefore
p317
Vpoesie
p318
tp319
F2
s(Vof
p320
Vexamples,
p321
tp322
F1
s(Vtimes
p323
g96
tp324
F1
s(Vthereof
p325
Vbrought
p326
tp327
F1
s(g25
Vthat
p328
tp329
F1
s(g8
Vmore
p330
tp331
F1
s(Vbeeing
p332
Vouerthrowne
p333
tp334
F1
s(Vhow
p335
Vto
p336
tp337
F1
s(Vvnder
p338
g135
tp339
F1
s(Vgods,
p340
Vthe
p341
tp342
F1
s(Vanother
p343
Vvse
tp344
F1
s(Vdoe
p345
Vrather
p346
tp347
F1
s(Vand
p348
Vthis
p349
tp350
F1
s(Vwhich
p351
g84
tp352
F1
s(g51
Vnecessitie
p353
tp354
F1
s(g144
Vkind
p355
tp356
F1
s(Vso
p357
Vin
tp358
F2
s(Vin
p359
Vreuenge
p360
tp361
F1
s(Vby
p362
g243
tp363
F1
s(Vbowe
p364
Vthe
p365
tp366
F1
s(Vphilosophy,
p367
Vare
p368
tp369
F1
s(Vpoesie
p370
Vfaineth
p371
tp372
F1
s(g221
g367
tp373
F1
s(Vimage
p374
g270
tp375
F1
s(Vhis
p376
Vaide,
p377
tp378
F1
s(Vand
p379
Vcongruities
p380
tp381
F1
s(g368
Vinuolued
p382
tp383
F1
s(Vpeople,
p384
Vwhich
tp385
F1
s(g16
Vwas
p386
tp387
F1
s(Vnot
p388
Vfeare
p389
tp390
F1
s(g365
g10
tp391
F1
s(Vof
p392
Vprinces,
p393
tp394
F1
s(Vand
p395
Vvigor,
p396
tp397
F1
s(Vthings
p398
Vto
tp399
F1
s(Vother
p400
Vlearning
p401
tp402
F1
s(Vchoosing
p403
Vfor
p404
tp405
F1
s(Vmans
p406
Vnature
p407
tp408
F1
s(Vsome
p409
Vspeciall
p410
tp411
F1
s(Vdiuisios
p412
Vwhich
p413
tp414
F1
s(Vparens
p415
Vira
p416
tp417
F1
s(g117
g388
tp418
F1
s(Vdeoru,
p419
g81
tp420
F1
s(Vagainst
p421
Vthe
p422
tp423
F1
s(Vas
p424
g62
tp425
F1
s(g73
Vof
p426
tp427
F1
s(Vwas
p428
Veuer
p429
tp430
F1
s(Vchronicles,
p431
g228
tp432
F1
s(Vpleasure,
p433
Vioyned
p434
tp435
F1
s(Vfained
Vepistles,
p436
tp437
F1
s(Vtheir
p438
Vwarre
p439
tp440
F1
s(Vto
p441
g376
tp442
F1
s(Vin
p443
g275
tp444
F5
s(g261
Vof
tp445
F1
s(g429
Vthought
p446
tp447
F1
s(Vand
p448
Vthe
p449
tp450
F6
s(Vto
p451
g119
tp452
F1
s(Vmaner,
p453
Vbecause
p454
tp455
F1
s(Vthose
p456
g412
tp457
F1
s(Vthe
Vstates,
p458
tp459
F1
s(g336
Vplay
p460
tp461
F1
s(g179
Vagreable
p462
tp463
F1
s(Vthey
p464
Vkeepe
p465
tp466
F1
s(Vand
p467
Vtaxatios
p468
tp469
F1
s(Vinto
p470
Vpoesie
p471
tp472
F1
s(Vminde,
p473
g362
tp474
F1
s(Vingenuously,
p475
Vbut
p476
tp477
F1
s(Vwhen
p478
Vthe
p479
tp480
F1
s(Vparticipation
p481
Vof
p482
tp483
F1
s(Vmalignitie
p484
Vof
p485
tp486
F1
s(g253
g364
tp487
F1
s(g164
Vto
p488
tp489
F1
s(Vis
p490
Vauthorised.
p491
tp492
F1
s(Vdoth
p493
Vfall
p494
tp495
F1
s(Vand
p496
Vdiscipline
p497
tp498
F1
s(Veuents
p499
Vof
p500
tp501
F1
s(Van
p502
g374
tp503
F1
s(Vor
p504
g166
tp505
F1
s(Vopen
p506
Vrebels,
p507
tp508
F1
s(Vbecause
p509
Vtrue
tp510
F2
s(g198
Vvertue
tp511
F1
s(Vmonarchies
p512
Vhaue
p513
tp514
F1
s(Vwas
p515
Vmuch
p516
tp517
F1
s(Vwhich
p518
Vsatisfieth
p519
tp520
F1
s(Vwill
p521
Vbe
p522
tp523
F1
s(Vin
p524
Vthose
p525
tp526
F1
s(Vinterchanged,
p527
Vtherefore
tp528
F1
s(g70
Vwee
p529
tp530
F2
s(Vit
p531
g428
tp532
F2
s(Vof
p533
Vpoesie
p534
tp535
F1
s(g462
Vto
p536
tp537
F1
s(Virritata
p538
g419
tp539
F1
s(Vthe
p540
Vagreement
p541
tp542
F1
s(Vso
p543
g53
tp544
F1
s(Vthe
Vseuen,
p545
tp546
F1
s(Vpresent,
p547
g424
tp548
F1
s(g278
Vconceit:
p549
tp550
F1
s(g223
Va
tp551
F2
s(Vhauing
p552
Vconspired
p553
tp554
F1
s(Vman,
p555
V&
tp556
F1
s(g247
Vdelectation.
p557
tp558
F1
s(g401
Vstoode
p559
tp560
F1
s(g265
Vit:
p561
tp562
F1
s(Viustice.
p563
Vneuerthelesse
p564
tp565
F1
s(Vabsolutenesse
p566
Vby
p567
tp568
F1
s(g271
g174
tp569
F1
s(Vby
p570
Vmachiauell,
p571
tp572
F1
s(Vappeare.
p573
Vand
tp574
F1
s(Vas
p575
Vhierogliphikes
p576
tp577
F1
s(Vin
p578
Vvse
p579
tp580
F1
s(Vvisible
p581
g215
tp582
F1
s(Vapplied
p583
Vonely
p584
tp585
F1
s(Vordinarie
p586
Vand
p587
tp588
F1
s(Vmoralitie,
p589
g246
tp590
F1
s(Vas
p591
Vthey
p592
tp593
F1
s(g321
g257
tp594
F1
s(Vmagnitude,
p595
g518
tp596
F1
s(g389
Vany
p597
tp598
F1
s(g181
Vthem
p599
tp600
F1
s(g458
Vwhich
tp601
F1
s(g454
Vmen
p602
tp603
F1
s(Vand
p604
Vmore
p605
tp606
F3
s(g413
Vare
p607
tp608
F1
s(g297
g496
tp609
F1
s(g599
Vwith
p610
tp611
F1
s(Vlesse
p612
g527
tp613
F1
s(Vreason,
p614
Vwhich
p615
tp616
F1
s(Vdoth
p617
g252
tp618
F1
s(Vmirth.
p619
Vrepresentative
p620
tp621
F1
s(g184
g171
tp622
F1
s(Vslanders,
p623
g467
tp624
F1
s(g341
g299
tp625
F1
s(g210
Vthe
p626
tp627
F8
s(Vexamples
p628
Vso
p629
tp630
F1
s(Vfor
p631
g45
tp632
F2
s(g545
Vand
tp633
F1
s(g250
g403
tp634
F1
s(g294
Vsome
p635
tp636
F1
s(Vat
p637
Vall
p638
tp639
F1
s(g192
Vor
p640
tp641
F1
s(g19
Vfelicitie,
p642
tp643
F1
s(g216
Vis
p644
tp645
F1
s(Vexpounded
p646
g475
tp647
F1
s(Vrarenesse,
p648
Vand
tp649
F1
s(Vreligion,
p650
g220
tp651
F1
s(Vtheir
p652
g566
tp653
F1
s(g54
g628
tp654
F1
s(Vthat
p655
g306
tp656
F1
s(Vretaine
p657
Vmuch
p658
tp659
F1
s(g584
Vto
p660
tp661
F1
s(g380
Vwith
p662
tp663
F1
s(Vgods
p664
g552
tp665
F1
s(g615
Vwas
p666
tp667
F1
s(Vtherefore
p668
g531
tp669
F1
s(g605
Vheroicall;
p670
tp671
F1
s(Vconsort
p672
Vit
p673
tp674
F1
s(g288
Vwisedome
p675
tp676
F1
s(Vsentences
p677
Vof
tp678
F1
s(g529
Vsee
p679
tp680
F2
s(Vhath
Vhad
p681
tp682
F1
s(g468
Vof
tp683
F1
s(g549
Vand
p684
tp685
F1
s(Vsecrets
p686
Vand
p687
tp688
F1
s(Vwere
p689
Vbefore
p690
tp691
F2
s(Vthis
p692
g122
tp693
F1
s(Vby
Vwisedome
p694
tp695
F1
s(Vmagnanimitie,
p696
g589
tp697
F1
s(Vthe
Vfoxe
p698
tp699
F1
s(g175
g158
tp700
F1
s(Vis
Vthe
p701
tp702
F1
s(Vreason
p703
Vcannot
p704
tp705
F1
s(g328
g351
tp706
F2
s(Vappedices
p707
Vof
p708
tp709
F1
s(Vin
p710
Vheathen
p711
tp712
F1
s(Vrest)
p713
Vis
p714
tp715
F1
s(Vmightie
p716
g87
tp717
F1
s(g130
Vwith
p718
tp719
F1
s(g307
V&
tp720
F1
s(g318
g7
tp721
F1
s(g485
g384
tp722
F1
s(g410
Vpurpose
p723
tp724
F1
s(Vof
p725
g614
tp726
F1
s(Vhistory,
p727
Vas
tp728
F1
s(Vmore
g309
tp729
F1
s(Vby
p730
Vthe
p731
tp732
F1
s(g5
g183
tp733
F1
s(g407
Vand
p734
tp735
F1
s(Vthe
p736
Vsuccesses
p737
tp738
F1
s(Vthe
g194
tp739
F1
s(Vwarrs,
p740
Vand
p741
tp742
F1
s(g330
Viust
p743
tp744
F1
s(Vfables
p745
g290
tp746
F1
s(Vrest
p747
Vof
tp748
F1
s(Vsure
p749
g451
tp750
F1
s(Vactions
Vin
p751
tp752
F1
s(g541
Vand
p753
tp754
F1
s(Vas
p755
Vit
p756
tp757
F1
s(g494
g301
tp758
F1
s(Vthat
p759
Vthe
p760
tp761
F3
s(Vbecause
p762
Vit
p763
tp764
F1
s(g108
g13
tp765
F1
s(g694
g464
tp766
F1
s(g79
g359
tp767
F1
s(Vretire
p768
g264
tp769
F1
s(g602
g524
tp770
F1
s(Vor
p771
Vdeliuered,
p772
tp773
F1
s(g557
Vand
p774
tp775
F1
s(g587
g612
tp776
F1
s(Vvse
g490
tp777
F1
s(Vof
p778
g650
tp779
F1
s(g355
g287
tp780
F1
s(g304
Vyet
p781
tp782
F1
s(Vstate,
p783
Vand
p784
tp785
F1
s(Vand
p786
Vneuerthelesse
p787
tp788
F1
s(Vdoth
p789
g36
tp790
F1
s(Vthat
p791
g595
tp792
F1
s(Vdiuinesse,
p793
g762
tp794
F1
s(g201
Vwith
tp795
F1
s(Vfained
p796
g431
tp797
F1
s(Vto
p798
g696
tp799
F1
s(g213
Vmusicke,
p800
tp801
F1
s(Vthe
g197
tp802
F1
s(V&
Vpart
tp803
F1
s(Vtherof
p804
V(besides
p805
tp806
F1
s(g662
g406
tp807
F1
s(Vthe
g747
tp808
F1
s(Vso
p809
g755
tp810
F1
s(Va
g555
tp811
F1
s(Vmore
p812
g648
tp813
F1
s(g734
g433
tp814
F1
s(g235
g619
tp815
F1
s(Vit
g241
tp816
F1
s(g465
Vthe
p817
tp818
F1
s(Vmore
g124
tp819
F1
s(Vhis
p820
Vhundreth
p821
tp822
F1
s(g507
Vthen
tp823
F1
s(Vis
p824
Vas
p825
tp826
F1
s(g138
Vin
p827
tp828
F1
s(g476
Vcorruptly
p829
tp830
F1
s(Vfables
p831
g493
tp832
F1
s(Vi
g345
tp833
F1
s(Vparables
p834
Vwere
tp835
F1
s(g238
g317
tp836
F1
s(g800
Vit
tp837
F1
s(g500
Vtrue
p838
tp839
F1
s(V,
Vhaue
p840
tp841
F1
s(Vsuppressed
p842
Vactuall
p843
tp844
F1
s(Vwas
p845
Vfirst,
p846
tp847
F1
s(Vfables
p848
g72
tp849
F1
s(g268
Vvarietie
p850
tp851
F1
s(g315
g357
tp852
F1
s(g642
Vas
p853
tp854
F1
s(g377
g56
tp855
F1
s(g743
Vin
p856
tp857
F1
s(g231
V,
tp858
F1
s(Vof
p859
Vrebellion,
p860
tp861
F1
s(g714
g470
tp862
F1
s(Vthe
Vfable
p863
tp864
F3
s(Vand
g563
tp865
F1
s(g371
Vacts
p866
tp867
F1
s(g576
g689
tp868
F1
s(g346
Vthink
p869
tp870
F1
s(Vand
p871
Villustrate
p872
tp873
F1
s(g280
Vbarbarous
p874
tp875
F1
s(Vorations,
p876
g448
tp877
F1
s(Vexpresse
p878
g409
tp879
F1
s(g635
g481
tp880
F1
s(Vside:
p881
Vso
tp882
F1
s(Vkind
p883
g312
tp884
F1
s(Vby
p885
Vthese
p886
tp887
F1
s(Vthe
p888
g473
tp889
F1
s(g607
Vcomon
p890
tp891
F1
s(g673
g212
tp892
F2
s(g561
Vthat
tp893
F1
s(g94
g888
tp894
F1
s(Vand
p895
Vallvsive.
p896
tp897
F1
s(g638
g323
tp898
F1
s(Vlife
p899
g395
tp900
F1
s(g698
Vin
p901
tp902
F1
s(g890
Vvnto
p903
tp904
F1
s(g446
g293
tp905
F1
s(Vthat
p906
g885
tp907
F1
s(g48
Vincounters,
p908
tp909
F1
s(Vreason
p910
g617
tp911
F1
s(g763
Vdoth
p912
tp913
F1
s(Vthe
p914
Vnarrative
p915
tp916
F1
s(g159
g547
tp917
F1
s(Vthat
p918
Vpoesie
p919
tp920
F1
s(Vand
p921
g39
tp922
F1
s(g360
g325
tp923
F1
s(g874
Vregions,
p924
tp925
F1
s(g57
g116
tp926
F1
s(V&
g623
tp927
F1
s(Vare,
p928
g113
tp929
F1
s(Vother
p930
Vto
p931
tp932
F1
s(g37
g27
tp933
F1
s(g756
Vappeareth
p934
tp935
F1
s(Vraise
p936
g93
tp937
F1
s(g741
Vloue;
p938
tp939
F1
s(Vvp
p940
g338
tp941
F1
s(g313
g146
tp942
F1
s(g516
Vmore
p943
tp944
F1
s(g610
g812
tp945
F1
s(Vcourbing
p946
Vof
p947
tp948
F1
s(Vwas
p949
Vbrought
p950
tp951
F1
s(g34
g155
tp952
F2
s(g536
Vthe
p953
tp954
F3
s(g22
Vand
p955
tp956
F1
s(g67
g725
tp957
F1
s(Va
Vnarrtion
p958
tp959
F1
s(g950
g940
tp960
F1
s(Valso
p961
Vwith
p962
tp963
F1
s(Vto
p964
g107
tp965
F1
s(g723
g504
tp966
F1
s(g97
g657
tp967
F1
s(g644
g502
tp968
F1
s(Vexposition
p969
Vof
p970
tp971
F1
s(g829
g570
tp972
F1
s(Vwhich
p973
Vis
p974
tp975
F4
s(Vvariations.
p976
g809
tp977
F1
s(g704
Vbee
p978
tp979
F1
s(g787
g152
tp980
F1
s(Vforth
p981
Vfame.
p982
tp983
F1
s(g629
g282
tp984
F1
s(Valternatiue
p985
g976
tp986
F1
s(g958
g583
tp987
F1
s(g404
g161
tp988
F1
s(Vaptest
p989
g443
tp990
F1
s(Vthe
Vbriefe
p991
tp992
F1
s(Vmay
p993
g573
tp994
F1
s(Vrarely
p995
g783
tp996
F1
s(Vis
g478
tp997
F1
s(g903
Vit
p998
tp999
F1
s(g821
Vhands
p1000
tp1001
F1
s(Vmisteries
p1002
g778
tp1003
F1
s(g912
g936
tp1004
F1
s(g128
g273
tp1005
F1
s(Vthe
p1006
Vdiuisio
p1007
tp1008
F1
s(g471
Vnarrative;
p1009
tp1010
F1
s(g491
g710
tp1011
F1
s(g218
Vwho
p1012
tp1013
F1
s(g43
g24
tp1014
F1
s(Vwas
g50
tp1015
F1
s(Vsometimes
p1016
g234
tp1017
F1
s(g105
g798
tp1018
F1
s(V&
g512
tp1019
F1
s(g953
Vmerits
p1020
tp1021
F1
s(Vthe
g484
tp1022
F1
s(Vsharpe
p1023
Vor
p1024
tp1025
F1
s(Von
p1026
Vtheir
p1027
tp1028
F1
s(g1020
Vof
p1029
tp1030
F1
s(Vis
p1031
Va
tp1032
F2
s(Vprouidence,
p1033
Vbecause
tp1034
F1
s(Vfained
p1035
g876
tp1036
F1
s(V,
g132
tp1037
F1
s(g853
Vin
tp1038
F1
s(Vtimes
p1039
g267
tp1040
F1
s(g153
g637
tp1041
F1
s(g915
g1031
tp1042
F1
s(Vserueth
p1043
g104
tp1044
F1
s(g125
g985
tp1045
F1
s(g439
g421
tp1046
F1
s(Vletters,
p1047
Vso
p1048
tp1049
F1
s(Vthe
g209
tp1050
F1
s(g955
Vwe
p1051
tp1052
F1
s(g382
Vin
p1053
tp1054
F1
s(g156
g993
tp1055
F1
s(Vgyants
p1056
g332
tp1057
F1
s(g310
Vreuealed
p1058
tp1059
F1
s(g931
g768
tp1060
F1
s(g1024
Vsubtile
p1061
tp1062
F1
s(g718
g820
tp1063
F1
s(g436
g1035
tp1064
F1
s(Vmentioned:
p1065
Vfor
tp1066
F1
s(Vsame
p1067
g883
tp1068
F1
s(Vthe
Vexcesses
p1069
tp1070
F1
s(g846
Vand
tp1071
F1
s(g838
Vhistorie
p1072
tp1073
F3
s(g285
g200
tp1074
F1
s(g962
g540
tp1075
F2
s(g396
Vbecause
p1076
tp1077
F1
s(g353
Vto
tp1078
F1
s(g886
Vinsinuations
p1079
tp1080
F1
s(Vthe
g1067
tp1081
F1
s(Va
Vbeast,
p1082
tp1083
F1
s(Vtaught
p1084
g771
tp1085
F1
s(g302
g18
tp1086
F1
s(g426
g692
tp1087
F1
s(Vwhereas
p1088
g910
tp1089
F1
s(g998
g140
tp1090
F1
s(g522
g749
tp1091
F1
s(g76
g921
tp1092
F1
s(Vlong
p1093
Vas
tp1094
F1
s(g626
Vmind;
p1095
tp1096
F1
s(Vwhere
p1097
g400
tp1098
F1
s(g825
Va
tp1099
F1
s(g872
Vthat
tp1100
F1
s(g204
g398
tp1101
F1
s(g534
g973
tp1102
F1
s(g781
g343
tp1103
F1
s(g60
g730
tp1104
F2
s(Vprogenuit.
p1105
Vexpounded
p1106
tp1107
F1
s(g943
g578
tp1108
F1
s(g120
g1026
tp1109
F1
s(Vas
p1110
g796
tp1111
F2
s(g513
g842
tp1112
F1
s(g843
Vand
p1113
tp1114
F1
s(g1106
g655
tp1115
F1
s(Vin
p1116
g438
tp1117
F1
s(g579
Vin
tp1118
F1
s(Vthe
p1119
g64
tp1120
F1
s(g760
g1056
tp1121
F1
s(g863
g759
tp1122
F2
s(g449
g713
tp1123
F1
s(Vminde
p1124
g101
tp1125
F1
s(Vof
g42
tp1126
F1
s(g479
g686
tp1127
F1
s(g896
g914
tp1128
F1
s(g40
g586
tp1129
F1
s(g460
g260
tp1130
F1
s(Vmany
p1131
g47
tp1132
F1
s(g737
Vand
p1133
tp1134
F1
s(g774
g668
tp1135
F1
s(g660
g878
tp1136
F2
s(Vthe
p1137
g1124
tp1138
F1
s(g1113
g506
tp1139
F1
s(g434
g961
tp1140
F1
s(g597
g946
tp1141
F1
s(g908
Vi
tp1142
F1
s(g938
g995
tp1143
F1
s(g1051
Vsee
p1144
tp1145
F1
s(g753
g672
tp1146
F1
s(g1076
g703
tp1147
F1
s(g690
g1047
tp1148
F1
s(g772
g348
tp1149
F1
s(g1007
g533
tp1150
F1
s(Vcoeo
p1151
g206
tp1152
F1
s(g525
g1039
tp1153
F1
s(g901
g168
tp1154
F1
s(g978
g543
tp1155
F1
s(g850
g320
tp1156
F1
s(Vissues
p1157
Vof
p1158
tp1159
F1
s(g731
g745
tp1160
F1
s(g784
g1016
tp1161
F1
s(g422
g340
tp1162
F1
s(Vparabolicall,
p1163
Vis
tp1164
F1
s(g1133
g1157
tp1165
F1
s(Vvertue
p1166
g237
tp1167
F2
s(g592
g928
tp1168
F1
s(g670
g509
tp1169
F1
s(g827
Vthat
p1170
tp1171
F1
s(g1058
g1033
tp1172
F1
s(Vrepresentative,
p1173
g895
tp1174
F1
s(g519
g1137
tp1175
F1
s(g1029
g1166
tp1176
F1
s(V&
Vthe
p1177
tp1178
F1
s(g1053
g848
tp1179
F1
s(g207
g1105
tp1180
F1
s(g1048
g834
tp1181
F1
s(Vthe
g127
tp1182
F1
s(g150
g335
tp1183
F1
s(Vretribution,
p1184
Vand
tp1185
F1
s(Vperhibent,
p1186
g1151
tp1187
F1
s(g88
g1093
tp1188
F1
s(g666
Vmore
p1189
tp1190
F1
s(g1000
g441
tp1191
F1
s(Vfable
g845
tp1192
F1
s(g1061
g90
tp1193
F1
s(Vnature
p1194
g591
tp1195
F1
s(g30
g415
tp1196
F1
s(Va
g581
tp1197
F1
s(Vexpresse
g66
tp1198
F1
s(g924
g1097
tp1199
F1
s(g708
g727
tp1200
F1
s(g141
g1110
tp1201
F1
s(Vto
p1202
Vknowe
p1203
tp1204
F1
s(Vthe
g969
tp1205
F2
s(g102
g370
tp1206
F1
s(g974
g989
tp1207
F1
s(g1082
g646
tp1208
F1
s(Vthe
g664
tp1209
F1
s(g679
Vthe
tp1210
F2
s(g1144
g906
tp1211
F1
s(g982
g29
tp1212
F1
s(g658
g899
tp1213
F1
s(g620
g824
tp1214
F1
s(Vhistorie
Vpropoundeth
p1215
tp1216
F1
s(Vdemonstrate,
p1217
g871
tp1218
F1
s(g1177
g707
tp1219
F1
s(g840
Vnot
p1220
tp1221
F1
s(Vin
p1222
g1131
tp1223
F1
s(g564
g1222
tp1224
F1
s(g349
g930
tp1225
F1
s(g488
g1217
tp1226
F1
s(g276
g804
tp1227
F1
s(Vand
p1228
g225
tp1229
F1
s(Vexcluded.
p1230
g1006
tp1231
F1
s(g751
g1194
tp1232
F1
s(g817
g177
tp1233
F1
s(g1203
g149
tp1234
F1
s(g869
Vthat
tp1235
F1
s(g244
g203
tp1236
F1
s(g1220
g791
tp1237
F1
s(g1069
g249
tp1238
F1
s(g970
g831
tp1239
F1
s(g919
g1043
tp1240
F1
s(g866
g1228
tp1241
F1
s(g1215
g736
tp1242
F1
s(g1012
g521
tp1243
F1
s(g1072
V,
tp1244
F1
s(g393
g1202
tp1245
F1
s(g1079
g379
tp1246
F1
s(g934
g918
tp1247
F1
s(g805
g456
tp1248
F1
s(g255
Vachilles
p1249
tp1250
F1
s(g482
g793
tp1251
F1
s(g687
g1002
tp1252
F1
s(g85
g1065
tp1253
F1
s(Vmother
p1254
g859
tp1255
F1
s(g82
g1186
tp1256
F1
s(g553
g964
tp1257
F1
s(g186
g786
tp1258
F1
s(g416
g538
tp1259
F1
s(g11
g1119
tp1260
F1
s(Vor
g499
tp1261
F1
s(g162
g740
tp1262
F1
s(g701
g1254
tp1263
F1
s(g1027
g881
tp1264
F1
s(g229
V&
tp1265
F1
s(g860
g789
tp1266
F1
s(g991
g677
tp1267
F1
s(g640
g1163
tp1268
F1
s(g226
g604
tp1269
F1
s(g681
g4
tp1270
F1
s(g333
g1116
tp1271
F1
s(Vis
g1084
tp1272
F1
s(g684
g575
tp1273
F1
s(Va
g284
tp1274
F1
s(g711
Vpoesie,
tp1275
F1
s(g1189
g1023
tp1276
F1
s(g1158
g110
tp1277
F1
s(g1009
g1173
tp1278
F1
s(g1170
g453
tp1279
F1
s(g571
Vthat
tp1280
F1
s(g1095
g1088
tp1281
F1
s(g326
g981
tp1282
F1
s(g291
V,
tp1283
F1
s(g947
g652
tp1284
F1
s(g675
g515
tp1285
F1
s(g856
g1184
tp1286
F1
s(g497
g392
tp1287
F1
s(g567
g716
tp1288
F1
s(g559
g1230
tp1289
F1
s(g386
g631
tp1290
F1
s(g1249
g949
tp1291
F1
s.