ccollections
defaultdict
p1
(c__builtin__
float
p2
tRp3
(Vso
p4
Vare
p5
tp6
F1
s(Vbeing
p7
Vcertain
p8
tp9
F1
s(Vall
p10
Vhis
p11
tp12
F1
s(Va
Vman
p13
tp14
F2
s(Vmore
p15
Vsubject
p16
tp17
F1
s(Vis
p18
Vof
p19
tp20
F1
s(Vnothing
p21
Vbut
p22
tp23
F1
s(Vi
Vcould
p24
tp25
F1
s(Vthis
p26
Vdisguise
p27
tp28
F1
s(Vas
p29
Vhis,
p30
tp31
F1
s(V,
Vthere
p32
tp33
F1
s(Vpoesie;
p34
Vand
p35
tp36
F1
s(Vbe
p37
Vnot
p38
tp39
F1
s(Vtemporis
p40
Vistius
p41
tp42
F1
s(g41
Vauribus
p43
tp44
F1
s(Vthe
Veye;
p45
tp46
F1
s(Vit
Vhis
p47
tp48
F1
s(Vthen
p49
Vthe
p50
tp51
F1
s(Vmy
p52
Vexpressions
p53
tp54
F1
s(Vpoesic
p55
Vinto
p56
tp57
F1
s(Vof
p58
Vthe
p59
tp60
F4
s(V(i
p61
Vhaving
p62
tp63
F1
s(g24
Vgive
p64
tp65
F1
s(Vbetter
p66
Vname)
p67
tp68
F1
s(Vlanguage
p69
Vabroad,
p70
tp71
F1
s(Vmy
p72
Vthoughts;
p73
tp74
F1
s(Vhim
p75
Vappear
p76
tp77
F1
s(Vfull
p78
g29
tp79
F1
s(Vtraveller,
p80
Vwho
p81
tp82
F1
s(Vwherein
p83
Vthe
p84
tp85
F1
s(g45
Vand
p86
tp87
F1
s(Vnot
p88
Vso
p89
tp90
F1
s(Vthe
p91
Vapparel
p92
tp93
F1
s(Vlatine
Vphrase.
p94
tp95
F1
s(Vthe
p96
Vimpressions
p97
tp98
F1
s(Vinstead
p99
Vof
p100
tp101
F1
s(Vhe
p102
Vdid
p103
tp104
F1
s(Vgives
p105
Vlife
p106
tp107
F1
s(Vneither
p108
Vhave
p109
tp110
F1
s(Vat
p111
Vverbal
p112
tp113
F1
s(Vlatine
p114
Vwill
p115
tp116
F1
s(Vrather
p117
Vsuspect
p118
tp119
F1
s(Vmaking
p120
Vany
p121
tp122
F1
s(Vto
p123
Vfollow
p124
tp125
F2
s(Vwill
Vnot
p126
tp127
F1
s(g43
Vaccommodatum
p128
tp129
F1
s(Vsubtle
p130
Va
tp131
F1
s(Vresults
p132
Vof
p133
tp134
F1
s(Vhe
p135
Vcals
p136
tp137
F1
s(Vtranslation,
p138
Vshall
p139
tp140
F1
s(g35
Vpoesie
p141
tp142
F1
s(Vbut
p143
g96
tp144
F1
s(Vthen
p145
Vthat
p146
tp147
F2
s(Vtimes;
p148
Vthe
p149
tp150
F1
s(Vand
p151
Vthis
p152
tp153
F1
s(Vhim
p154
Vbetter
p155
tp156
F1
s(Vgrave
p157
Va
tp158
F1
s(g136
Vsermonem
p159
tp160
F1
s(Vof
p161
Vlate
p162
tp163
F1
s(Vmust
p164
Vneeds
p165
tp166
F1
s(Vworse
p167
Vthen
p168
tp169
F1
s(Vcare
p170
g123
tp171
F1
s(Vnot
p172
Vhis.
p173
tp174
F1
s(Vas
p175
Vdue
p176
tp177
F1
s(Vor
p178
Vless
p179
tp180
F1
s(Vmisfortune
p181
Vof
p182
tp183
F1
s(Vmy
p184
Vself;)
p185
tp186
F1
s(Vin
p187
g10
tp188
F1
s(g118
g184
tp189
F1
s(Vbrought
p190
Vhome
p191
tp192
F1
s(Vvirgil
p193
g164
tp194
F1
s(Vso
p195
g157
tp196
F1
s(Vlost
p197
Vhis
p198
tp199
F1
s(Vhis
p200
Vsense,
p201
tp202
F1
s(Va
Vcaput
p203
tp204
F1
s(Voften
p205
Vreading
p206
tp207
F1
s(Vbeing
p208
Vturned
p209
tp210
F2
s(Vwhere
p211
Voffered
p212
tp213
F1
s(Vand
p214
g172
tp215
F1
s(Vhim,
p216
Vhath
p217
tp218
F1
s(Vto
p219
g200
tp220
F1
s(Vin
p221
Vthe
p222
tp223
F1
s(Vpouring
p224
Vout
p225
tp226
F1
s(Vand
Vthe
tp227
F1
s(g179
g49
tp228
F1
s(Vwhosoever
p229
Voffers
p230
tp231
F1
s(Vspeak
p232
Vnot
p233
tp234
F1
s(Vand
p235
Venergy
p236
tp237
F1
s(Vevery
p238
Vlanguage,
p239
tp240
F1
s(g97
Vwhich
p241
tp242
F1
s(Venglish,
p243
Vit
p244
tp245
F1
s(g124
Vhim,
p246
tp247
F1
s(Venglish,
p248
Vby
tp249
F1
s(Vinto
p250
Venglish
p251
tp252
F1
s(Vthe
p253
Vdelight
p254
tp255
F1
s(Vnot
p256
Vnaturally
p257
tp258
F1
s(g141
g18
tp259
F1
s(Va
Vnew
p260
tp261
F1
s(Vby
p262
g120
tp263
F1
s(Vage;
p264
Vand
tp265
F1
s(Vmay
p266
Vbecome
p267
tp268
F1
s(Vin
p269
Vevery
tp270
F1
s(Vmy
p271
Vart
p272
tp273
F1
s(Vhappinesses
p274
Vpeculiar
p275
tp276
F1
s(Vleast,
p277
Vi
tp278
F1
s(Vmake
p279
Vit
p280
tp281
F1
s(g64
Vit
p282
tp283
F1
s(Vspirit
p284
g37
tp285
F1
s(Vand
p286
g190
tp287
F1
s(Vthey
p288
Vare
p289
tp290
F3
s(Vthe
Vcuriosity
p291
tp292
F1
s(g280
Vseem
p293
tp294
F1
s(Vthe
p295
g181
tp296
F1
s(g176
Vto
tp297
F1
s(V(but
p298
Vi
tp299
F1
s(Vleast
p300
Vthe
p301
tp302
F1
s(Vand
p303
Vitalian
p304
tp305
F1
s(Vyoung
p306
g80
tp307
F1
s(Vwhich
p308
g105
tp309
F1
s(Vmine
p310
Vare
p311
tp312
F1
s(Vsuch
p313
Vviolence
p314
tp315
F1
s(g70
g286
tp316
F1
s(g106
g235
tp317
F1
s(g301
g132
tp318
F1
s(Vanother,
p319
Vit
p320
tp321
F1
s(Vprincipal
p322
g170
tp323
F1
s(g289
g143
tp324
F1
s(Vmodes
p325
Vof
p326
tp327
F1
s(Vby
p328
Vthat
p329
tp330
F1
s(g76
Vdeformed,
p331
tp332
F1
s(V;
g253
tp333
F1
s(Vtransfusion,
p334
Vthere
p335
tp336
F1
s(g30
Veither
p337
tp338
F1
s(Vchange
p339
Vbeing
p340
tp341
F1
s(g94
Vand
p342
tp343
F1
s(g155
Vthen
tp344
F1
s(Vthen
p345
Vhis,
p346
tp347
F1
s(Vour
p348
Vlanguage,
p349
tp350
F1
s(Vleft
p351
Vupon
p352
tp353
F1
s(Vbut
p354
Vas
tp355
F1
s(Vno
p356
Vother
p357
tp358
F1
s(Vfashion
p359
Vof
tp360
F1
s(g320
Vwill
p361
tp362
F2
s(Va
g66
tp363
F1
s(g27
Vi
tp364
F1
s(g236
Vto
p365
tp366
F1
s(g329
Vwch
p367
tp368
F1
s(g47
Vto
tp369
F1
s(g335
Vwill
p370
tp371
F1
s(g73
Vso
p372
tp373
F1
s(g19
Vso
p374
tp375
F1
s(g121
Vpart
p376
tp377
F1
s(Vthe
Vear,
p378
tp379
F1
s(Vproportions)
p380
g108
tp381
F1
s(g92
Vof
p382
tp383
F1
s(Vthe
g248
tp384
F1
s(g203
Vmortuum
p385
tp386
F1
s(Vif
p387
Vthey
tp388
F1
s(g185
Vbut
p389
tp390
F1
s(Vis
p391
g91
tp392
F1
s(Vas
p393
Vhe
p394
tp395
F1
s(Vyet
p396
Vit
p397
tp398
F1
s(Vto
p399
Valteration,
p400
tp401
F1
s(Vclothes
p402
Vbeing
p403
tp404
F1
s(Vare
Vat
p405
tp406
F1
s(Vof
p407
Vone
p408
tp409
F1
s(Vadded
p410
g221
tp411
F1
s(g139
Vhave
p412
tp413
F1
s(g400
g145
tp414
F1
s(g389
Vwhere
p415
tp416
F1
s(Va
Vspirit,
p417
tp418
F1
s(Vhim
p419
V(i
p420
tp421
F1
s(Vevaporate;
p422
Vand
p423
tp424
F1
s(g337
g348
tp425
F1
s(g100
Vit;
p426
tp427
F1
s(Vtherefore
p428
Vif
p429
tp430
F1
s(Vown
p431
g69
tp432
F1
s(g417
Vthat
p433
tp434
F1
s(Vgrace
p435
g58
tp436
F2
s(Vhope,
p437
Vit
tp438
F1
s(g361
Vall
p439
tp440
F1
s(g67
Vsit
p441
tp442
F1
s(g423
Vif
p443
tp444
F3
s(Vwere
p445
Vdefective
p446
tp447
F1
s(g331
g262
tp448
F1
s(Vour
g402
tp449
F1
s(Vwish
p450
Vi
tp451
F1
s(Vlanguage
p452
Vinto
p453
tp454
F2
s(Vthe
p455
g148
tp456
F1
s(g415
g310
tp457
F1
s(g162
Vpresented
p458
tp459
F1
s(g260
g284
tp460
F1
s(g206
Vof
p461
tp462
F1
s(Vour
p463
Vthoughts,
p464
tp465
F1
s(Vi
Vthink
p466
tp467
F1
s(Vat
p468
g277
tp469
F1
s(Vnot
p470
g15
tp471
F1
s(g128
V;
tp472
F1
s(g109
Vi
tp473
F1
s(Von
p474
g195
tp475
F1
s(Vto
p476
g238
tp477
F1
s(g8
Vgraces
p478
tp479
F1
s(g433
Vin
p480
tp481
F1
s(Vfools-coat
p482
g83
tp483
F1
s(g246
g393
tp484
F1
s(Vthem;
p485
Vand
tp486
F1
s(Vthis
g264
tp487
F1
s(Vcertain
p488
Vgarbs
p489
tp490
F1
s(g225
g407
tp491
F1
s(g376
Venormously
p492
tp493
F1
s(Vthe
p494
Vwords;
p495
tp496
F1
s(g405
g300
tp497
F1
s(g244
Vwere
p498
tp499
F1
s(Vif
g26
tp500
F1
s(Vthe
p501
g435
tp502
F2
s(Vfit
p503
Vhe
p504
tp505
F1
s(g103
Valmost
p506
tp507
F1
s(Vupon
p508
g419
tp509
F1
s(Vmake
p510
g75
tp511
F1
s(g352
g72
tp512
F1
s(Vmine,
p513
g214
tp514
F1
s(g403
g470
tp515
F1
s(g385
V,
tp516
F1
s(Va
Vperson,
p517
tp518
F1
s(g412
g295
tp519
F1
s(Vbe
p520
Vlost
p521
tp522
F1
s(Vinto
Vthe
tp523
F1
s(g365
g494
tp524
F2
s(g446
g298
tp525
F1
s(Vtranslate
g452
tp526
F1
s(g159
g40
tp527
F1
s(g349
Vor
p528
tp529
F1
s(Vconceptions,
p530
Vthey
tp531
F1
s(g314
g219
tp532
F1
s(g89
g78
tp533
F1
s(Vbigger
p534
g178
tp535
F1
s(g357
g99
tp536
F1
s(g59
g114
tp537
F2
s(g209
g250
tp538
F2
s(Vi
Vhave
p539
tp540
F1
s(Vas
p541
Vof
tp542
F1
s(g272
g445
tp543
F1
s(V&
g325
tp544
F1
s(Vhim
p545
Vspeak
p546
tp547
F1
s(Vfor
p548
g501
tp549
F1
s(g267
g154
tp550
F1
s(g13
Vof
p551
tp552
F2
s(g254
Vof
p553
tp554
F1
s(g378
g541
tp555
F1
s(g152
Vi
tp556
F1
s(g56
g34
tp557
F1
s(g201
Vas
p558
tp559
F1
s(Vand
p560
g274
tp561
F1
s(g539
Vput
p562
tp563
F1
s(g32
g7
tp564
F1
s(Vi
Vany
p565
tp566
F1
s(Vspeak
p567
g243
tp568
F1
s(Vmade
p569
Vit
p570
tp571
F2
s(Vshould
p572
g232
tp573
F1
s(Vwch
p574
Vvary
p575
tp576
F1
s(g191
g356
tp577
F1
s(g291
Vof
tp578
F1
s(g394
Vmade
tp579
F1
s(g420
g450
tp580
F1
s(g5
Vthere
p581
tp582
F1
s(Vown
g530
tp583
F1
s(g458
Vhim;
p584
tp585
F1
s(g257
Vand
p586
tp587
F1
s(g126
g510
tp588
F1
s(g517
g396
tp589
F1
s(g374
g130
tp590
F1
s(g546
g167
tp591
F1
s(g478
g560
tp592
F1
s(Vspeech
p593
g391
tp594
F1
s(g340
g175
tp595
F1
s(Vwith
p596
g455
tp597
F1
s(g575
g596
tp598
F1
s(Vnature
p599
g187
tp600
F1
s(g586
Veasily
p601
tp602
F1
s(g551
Vthis
p603
tp604
F2
s(Vand
p605
g229
tp606
F1
s(g304
Vhave
p607
tp608
F1
s(V(being
p609
Vconscious
p610
tp611
F1
s(Vfuller
p612
g345
tp613
F1
s(g610
Vof
p614
tp615
F1
s(g464
g4
tp616
F1
s(Vas
p617
Va
tp618
F2
s(Vour
Vspeech:
p619
tp620
F1
s(g558
Vto
p621
tp622
F1
s(g372
Vthat
p623
tp624
F1
s(Vi
g437
tp625
F1
s(g168
g102
tp626
F1
s(g521
Vby
p627
tp628
F1
s(Vthe
p629
g205
tp630
F1
s(g443
Va
tp631
F1
s(g173
Vwhere
p632
tp633
F1
s(Vmaking
p634
g545
tp635
F1
s(g165
g567
tp636
F1
s(g489
V&
tp637
F1
s(g453
Vlanguage,
p638
tp639
F1
s(Vnot
Vhis
tp640
F1
s(g480
g224
tp641
F1
s(g86
g428
tp642
F1
s(g466
Vtacitus
p643
tp644
F1
s(g149
g359
tp645
F1
s(g239
g308
tp646
F1
s(Vfollow
g599
tp647
F1
s(g408
Vlanguage
tp648
F1
s(g133
g485
tp649
F1
s(g11
g380
tp650
F1
s(g565
g211
tp651
F1
s(Vas
p652
g593
tp653
F1
s(g326
Vspeaking,
p654
tp655
F1
s(Vmy
p656
g322
tp657
F1
s(Vonely
p658
g617
tp659
F1
s(g16
g399
tp660
F1
s(Vi
g117
tp661
F1
s(Vif
g609
tp662
F1
s(g146
Vof
tp663
F1
s(g62
g569
tp664
F1
s(g397
g266
tp665
F1
s(g222
g334
tp666
F1
s(g439
g422
tp667
F1
s(g230
g111
tp668
F1
s(g251
Vwords;
tp669
F1
s(g198
g431
tp670
F2
s(g212
g313
tp671
F1
s(g654
g574
tp672
F1
s(Vmeans,
p673
g328
tp674
F1
s(Vnation,
p675
g354
tp676
F1
s(g603
g675
tp677
F1
s(g382
g463
tp678
F3
s(g293
g513
tp679
F1
s(g346
g288
tp680
F1
s(Vthat
p681
g306
tp682
F1
s(g441
g256
tp683
F1
s(g115
g520
tp684
F1
s(g461
g216
tp685
F1
s(Vbut
p686
g55
tp687
F1
s(Vinto
g319
tp688
F1
s(g81
g197
tp689
F1
s(g495
g605
tp690
F2
s(g506
g269
tp691
F1
s(g233
g658
tp692
F1
s(Vare
p693
g88
tp694
F2
s(g53
g693
tp695
F1
s(g643
g673
tp696
F1
s(g282
Va
tp697
F1
s(g182
g681
tp698
F1
s(g112
g138
tp699
F1
s(g581
g488
tp700
F1
s(g619
g151
tp701
F1
s(g311
g612
tp702
F1
s(g584
g468
tp703
F1
s(g429
g193
tp704
F1
s(g426
g548
tp705
F1
s(g498
g503
tp706
F1
s(g38
g410
tp707
F1
s(g621
g279
tp708
F1
s(g553
g339
tp709
F1
s(g623
g387
tp710
F1
s(g217
g351
tp711
F1
s(g614
g634
tp712
F1
s(g50
Vlife,
p713
tp714
F1
s(g632
g52
tp715
F1
s(g713
g61
tp716
F1
s(g570
g656
tp717
F1
s(Vthat
g482
tp718
F1
s(g528
g271
tp719
F1
s(g241
g629
tp720
F1
s(g342
g652
tp721
F1
s(g84
Vfrench
p722
tp723
F1
s(g722
g303
tp724
F1
s(g638
g686
tp725
F1
s(g492
g534
tp726
F1
s(g275
g476
tp727
F1
s(g627
g208
tp728
F2
s(g367
g135
tp729
F1
s(Vremain
p730
g21
tp731
F1
s(g504
g572
tp732
F1
s(g370
g730
tp733
F1
s(g607
g161
tp734
F1
s(g22
Va
tp735
F1
s(g562
g508
tp736
F1
s(g601
g474
tp737
F1
s.