ccollections
defaultdict
p1
(c__builtin__
float
p2
tRp3
(Vthe
p4
Vwaif.
p5
tp6
F1
s(V.
Vi.
p7
tp8
F3
s(Vpoems,
p9
Vnarrative
p10
tp11
F1
s(Vthe
p12
Vsea.
p13
tp14
F1
s(Vof
p15
Vacadie
p16
tp17
F1
s(Vand
p18
Vmodern
p19
tp20
F1
s(Vpt/pageturner.pl?id=eaf413&image=413bcov.jpg)
p21
V\u005c-
tp22
F1
s(Va
Vplay
p23
tp24
F1
s(Vd.
p25
Vticknor
p26
tp27
F1
s(Vexternal
p28
Vlink
p29
tp30
F8
s(Vimage](http://etext.virginia.edu/cgi-local/chad-
Vpt/pageturner.pl?id=eaf413&image=413-002.jpg)
p31
tp32
F1
s(Vpt/pageturner.pl?id=eaf413&image=413edgb.jpg)
p33
V\u005c-
tp34
F1
s(Vimage](http://etext.virginia.edu/cgi-local/chad-
Vpt/pageturner.pl?id=eaf413&image=413spin.jpg)
p35
tp36
F1
s(Vvolume,
V16mo.
p37
tp38
F1
s(Vpilgrimage
p39
Vbeyond
p40
tp41
F1
s(Vby
p42
Vwilliam
p43
tp44
F1
s(Vimage](http://etext.virginia.edu/cgi-local/chad-
p45
Vpt/pageturner.pl?id=eaf413&image=413fcov.jpg)
p46
tp47
F1
s(Vprincess.
p48
Va
tp49
F1
s(V-
Vadvertisement
p50
tp51
F2
s(Vimage](http://etext.virginia.edu/cgi-local/chad-
Vpt/pageturner.pl?id=eaf413&image=413edgf.jpg)
p52
tp53
F1
s(Vother
Vpoems.
p54
tp55
F1
s(Vtale
p56
g15
tp57
F1
s(Vprose
p58
Vworks
p59
tp60
F1
s(Vlongfellow's
Vhyperion.
p61
tp62
F1
s(Vlongfellow's
p63
g58
tp64
F1
s(Va
g56
tp65
F1
s(Vcents.
Vv.
p66
tp67
F2
s(Valfred
p68
Vtennyson.
p69
tp70
F2
s(V-
Vspine.
p71
tp72
F1
s(Vnight.
p73
Va
tp74
F1
s(V002.
p75
V]
tp76
F1
s(Vnew
p77
Vedition,
p78
tp79
F2
s(Vprice
V$1.00.
p80
tp81
F3
s(Vthe
p82
g73
tp83
F1
s(Vstreets,
p84
Vboston.
p85
tp86
F1
s(Vvolume,
p87
V16mo,
p88
tp89
F11
s(Vof
p90
Vbruges
p91
tp92
F1
s(Vof
p93
g82
tp94
F1
s(g29
V-
tp95
F8
s(Vbelfry
p96
g90
tp97
F1
s(Vvi.
p98
g4
tp99
F1
s(Vthe
p100
Vestray.
p101
tp102
F1
s(Vout.
Vin
tp103
F1
s(Vimage](http://etext.virginia.edu/cgi-local/chad-
g21
tp104
F1
s(Vvii.
p105
g100
tp106
F1
s(Vjanuary
p107
V1,
p108
tp109
F1
s(V$1.00.
V[
tp110
F1
s(Vimage](http://etext.virginia.edu/cgi-local/chad-
Vpt/pageturner.pl?id=eaf413&image=413-003.jpg)
p111
tp112
F1
s(Vvoices
p113
g93
tp114
F1
s(Vedited
p115
Vby
p116
tp117
F2
s(Vjust
p118
Vout.
p119
tp120
F2
s(Vcorner
p121
Vof
p122
tp123
F1
s(V.
Vjust
p124
tp125
F2
s(Vin
p126
Vtwo
p127
tp128
F1
s(Vstudent.
p129
Va
tp130
F1
s(Vcents
p131
g98
tp132
F1
s(Vbookplate.
p133
V]
tp134
F1
s(V[
V[page
p135
tp136
F8
s(Vother
p137
Vpoems
tp138
F1
s(Vlongfellow's
p139
g96
tp140
F1
s(Vprice
p141
V75
p142
tp143
F8
s(Vlongfellow
p144
V.
tp145
F2
s(Vin
p146
Vone
p147
tp148
F12
s(Vadvertisement
g75
tp149
F1
s(Vimage](http://etext.virginia.edu/cgi-local/chad-
g33
tp150
F1
s(Vlongfellow's
Voutre-mer.
p151
tp152
F1
s(Vii.
g68
tp153
F1
s(Vcover.
p154
V]
tp155
F2
s(g69
Vpoems
tp156
F1
s(V-
Vback
p157
tp158
F1
s(Vand
p159
g137
tp160
F2
s(Vcents.
Viv.
p161
tp162
F2
s(g46
V\u005c-
p163
tp164
F1
s(Vschool
p165
g84
tp166
F1
s(g5
Va
tp167
F1
s(g35
V\u005c-
tp168
F1
s(V]
Vpoetry
p169
tp170
F1
s(Voliver
p171
Vwendell
p172
tp173
F1
s(g127
Vvolumes,
p174
tp175
F1
s(Vcompany,
p176
g121
tp177
F1
s(Vand
p178
Vlyrical
p179
tp180
F1
s(g43
g25
tp181
F1
s(V50
p182
Vcents.
tp183
F1
s(Vpublished.
p184
g146
tp185
F1
s(V-
Vbarrett
p186
tp187
F1
s(Vcollection
p188
Vof
p189
tp190
F2
s(g179
V.
tp191
F1
s(g151
Va
tp192
F1
s(Vcents.
Viii.
p193
tp194
F1
s(g59
V.
tp195
F1
s(Vacts.
p196
Va
tp197
F1
s(V-
Vfront
p198
tp199
F2
s(Vthree
p200
g196
tp201
F1
s(g37
g77
tp202
F1
s(V]
Vrecently
p203
tp204
F1
s(g108
V1849
p205
tp206
F1
s(g157
Vcover.
tp207
F1
s(V]
V[
tp208
F5
s(Vin
p209
g200
tp210
F1
s(g19
V.
tp211
F1
s(g111
V\u005c-
tp212
F1
s(g61
Va
tp213
F1
s(V&
g176
tp214
F1
s(g40
g12
tp215
F1
s(Vtennyson.
Vthe
p216
tp217
F1
s(Vlongfellow's
p218
g113
tp219
F1
s(Vwith
p220
Van
p221
tp222
F1
s(Vspanish
p223
g129
tp224
F1
s(g80
Vii.
tp225
F2
s(Vballads
p226
g159
tp227
F1
s(Venlarged.
p228
g118
tp229
F1
s(g78
g228
tp230
F2
s(g161
Vlongfellow's
p231
tp232
F1
s(g216
g48
tp233
F1
s(Va
g39
tp234
F1
s(V-
Vbottom
p235
tp236
F1
s(g91
Vand
tp237
F1
s(g66
g139
tp238
F1
s(Vmedley
p239
V.
tp240
F1
s(Vmotherwell.
p241
g9
tp242
F1
s(Vpoems
p243
V.
tp244
F4
s(Vlongfellow's
p245
Vevangeline;
p246
tp247
F1
s(V$1.50.
p248
Viii.
p249
tp250
F1
s(g122
Vwashington
p251
tp252
F1
s(g88
g141
tp253
F12
s(g235
Vedge.
tp254
F1
s(Vminstrelsy,
p255
Vancient
p256
tp257
F1
s(g221
Vhistorical
p258
tp259
F1
s(g13
Va
tp260
F1
s(g231
g223
tp261
F1
s(Vwilliam
p262
g241
tp263
F2
s(g163
g28
tp264
F8
s(Vpt/pageturner.pl?id=eaf413&image=413-001.jpg)
p265
V\u005c-
tp266
F1
s(g135
g45
tp267
F8
s(g189
Vpoems.
p268
tp269
F2
s(g116
g144
tp270
F2
s(g85
V[
tp271
F1
s(g119
Vprice
tp272
F1
s(g268
g115
tp273
F2
s(g54
Va
tp274
F1
s(g205
V.
tp275
F1
s(Vimage](http://etext.virginia.edu/cgi-local/chad-
g265
tp276
F1
s(g26
V&
tp277
F1
s(g16
V.
tp278
F1
s(Vedge.
p279
V]
tp280
F2
s(Vlongfellow's
p281
g243
tp282
F1
s(g142
Vcents.
p283
tp284
F7
s(Vholmes.
p285
Vpoems
tp286
F1
s(V]
g107
tp287
F1
s(g124
g184
tp288
F1
s(g203
Vpublished
p289
tp290
F1
s(Va
Vromance
p291
tp292
F1
s(g31
V\u005c-
tp293
F1
s(Vlongfellow's
p294
g226
tp295
F1
s(g193
g294
tp296
F1
s(g246
Va
tp297
F1
s(V001.
p298
V]
tp299
F1
s(V.
Vin
tp300
F2
s(g50
g298
tp301
F1
s(Vii.
p302
g218
tp303
F2
s(g172
g285
tp304
F1
s(Vnew
p305
Vedition.
p306
tp307
F8
s(Vi.
g171
tp308
F1
s(g256
g18
tp309
F1
s(Va
g188
tp310
F2
s(Vintroduction
p311
Vand
tp312
F1
s(V.
Va
tp313
F5
s(g101
Va
tp314
F1
s(Vand
p315
g165
tp316
F1
s(Va
g305
tp317
F9
s(g52
V\u005c-
tp318
F1
s(g258
g311
tp319
F1
s(g7
g245
tp320
F2
s(g283
g302
tp321
F1
s(g198
g154
tp322
F1
s(g169
V.
tp323
F1
s(Va
g239
tp324
F1
s(g249
Valfred
tp325
F1
s(V.
g281
tp326
F1
s(g71
V]
tp327
F1
s(g186
g133
tp328
F1
s(Vcents.
g105
tp329
F1
s(g147
g87
tp330
F12
s(V75
g131
tp331
F1
s(Venlarged.
p332
g126
tp333
F2
s(g174
V16mo,
tp334
F1
s(Vcents.
g63
tp335
F1
s(Vedition.
g332
tp336
F1
s(Vv.
Vwilliam
tp337
F1
s(g251
g315
tp338
F1
s(Viv.
g262
tp339
F1
s(Vprice
g182
tp340
F1
s(g289
g42
tp341
F1
s(g23
g209
tp342
F1
s(Vfront
g279
tp343
F1
s(g291
V.
tp344
F1
s(V.
g220
tp345
F1
s(g10
g178
tp346
F1
s(Vmotherwell.
g255
tp347
F1
s(Vprice
g248
tp348
F1
s(g306
Vin
tp349
F7
s.