ccollections
defaultdict
p1
(c__builtin__
float
p2
tRp3
(Vthe
Vgreatest
p4
tp5
F1
s(Vtheir
p6
Vjudgment
p7
tp8
F1
s(Vvery
p9
Vwell
p10
tp11
F1
s(Vnot
Vone
tp12
F1
s(Vof
p13
Vlaziness
p14
tp15
F1
s(Vson
p16
Vof
p17
tp18
F1
s(Vcould
p19
Vhave
p20
tp21
F1
s(Vthan
p22
Vthe
p23
tp24
F1
s(Vis
p25
Vof
tp26
F1
s(Vthe
Vnext
p27
tp28
F1
s(Vproduction
p29
Vof
tp30
F1
s(Vwhich
p31
Vhave
p32
tp33
F1
s(Vi
Vcould
p34
tp35
F1
s(g23
Vobservation
p36
tp37
F1
s(Vand
p38
Vpurposely
p39
tp40
F1
s(Vrather
p41
Vread
p42
tp43
F1
s(Vand
p44
Vobserves
tp45
F1
s(Vour
p46
Vcritics
p47
tp48
F1
s(Vgenius,
p49
Vwho
p50
tp51
F3
s(Vcall
p52
Vthe
p53
tp54
F2
s(Vdeviating
p55
Vfrom
p56
tp57
F1
s(g17
Vnox
p58
tp59
F1
s(V.
Vour
p60
tp61
F1
s(Vthan
p62
Va
tp63
F1
s(Vrather
p64
Vimitate
p65
tp66
F1
s(Verrors.
p67
Vin
p68
tp69
F1
s(Vpyrrhus's
p70
Vring,
p71
tp72
F1
s(Vof
p73
Vthe
p74
tp75
F7
s(Vnotice
p76
Vof
p77
tp78
F1
s(g34
Vgive
p79
tp80
F1
s(Vplays,
p81
Vwhere
p82
tp83
F1
s(Vsuch
p84
Va
tp85
F1
s(Vwho
p86
Vhave
p87
tp88
F3
s(Vconsolation
p89
Vin
tp90
F1
s(Vworks
p91
Vof
tp92
F5
s(Vus,
p93
Vhad
p94
tp95
F1
s(Vextraordinary
p96
Voccasions.
p97
tp98
F1
s(Vnot
p99
g41
tp100
F1
s(Vwith
p101
Vthose
p102
tp103
F2
s(Varises
p104
Vfrom
p105
tp106
F1
s(Vwas
p107
Vprobably
p108
tp109
F1
s(Vsometimes
p110
Va
tp111
F1
s(Vabsurdities
p112
Vin
p113
tp114
F1
s(Vsaid
p115
Vto
p116
tp117
F1
s(Vobscure
p118
Vdiligence."
p119
tp120
F1
s(Vvery
p121
Vapt
p122
tp123
F1
s(Vthe
p124
Vnoblest
p125
tp126
F1
s(Vthe
p127
Vnine
p128
tp129
F1
s(g82
Vthere
tp130
F2
s(Vour
p131
Vsons
p132
tp133
F1
s(Vtake
p134
g76
tp135
F1
s(Vtime:
p136
V"
tp137
F1
s(Vand
p138
g67
tp139
F1
s(Vto
p140
Vthem;
p141
tp142
F1
s(Vhe
p143
Vwould
p144
tp145
F1
s(Vstone
p146
Vin
p147
tp148
F1
s(Vas
p149
Vdr.
p150
tp151
F1
s(Vfrequent
p152
Vdeviations
p153
tp154
F1
s(Vmen
p155
Vwho
p156
tp157
F1
s(Vfrom
p158
Vothers;
p159
tp160
F1
s(Vgenius
p161
Vwho
p162
tp163
F1
s(Vsublime
p164
Vin
p165
tp166
F1
s(Vexact
p167
Vway
p168
tp169
F1
s(Vare
p170
Vlike
p171
tp172
F1
s(Vwhat
p173
Vwe
p174
tp175
F1
s(Voften
p176
g104
tp177
F1
s(Vmuses
p178
Vin
tp179
F1
s(g147
g70
tp180
F1
s(Vterence
p181
Vspeaks,
p182
tp183
F1
s(Vbeauties
Vin
p184
tp185
F2
s(Vnot
p186
Vconsidering
p187
tp188
F1
s(Vshewn
p189
g6
tp190
F1
s(Vfaults
p191
g138
tp192
F1
s(Vall
p193
Vthe
tp194
F3
s(Vproceeding
p195
g19
tp196
F1
s(Vsuccess
p197
Vof
tp198
F1
s(Vnot
p199
Vseem
p200
tp201
F1
s(Vbeen.
p202
Vthose
p203
tp204
F1
s(Vsensible
p205
Vthat
tp206
F1
s(Vmen,
p207
g86
tp208
F1
s(Vin
p209
Vthis
p210
tp211
F1
s(Vignorant
p212
Vmen
p213
tp214
F1
s(Va
Vmore
p215
tp216
F1
s(Vscrupulously
p217
Vobserves
p218
tp219
F1
s(Vthe
p220
Vfigure
p221
tp222
F1
s(g182
Vin
p223
tp224
F1
s(g215
Vaccurate
p225
tp226
F1
s(Vthe
p227
Vheathen
p228
tp229
F1
s(g102
g73
tp230
F3
s(Vhis
g81
tp231
F1
s(Vgood
p232
Vwriting,
p233
tp234
F1
s(Vis
p235
Va
tp236
F1
s(Vhand
p237
Vof
p238
tp239
F1
s(g200
g205
tp240
F1
s(g39
Vreceded
p241
tp242
F1
s(Va
Vcelebrated
p243
tp244
F1
s(Vthe
Vold
p245
tp246
F1
s(g241
Vfrom
p247
tp248
F1
s(Vmodern,
p249
Vknow
p250
tp251
F1
s(Va
Vsingle
p252
tp253
F1
s(Vcritics.
p254
Vwho
p255
tp256
F1
s(Vthe
p257
Vrules
p258
tp259
F4
s(Vsecundum
p260
Vartem
p261
tp262
F1
s(Vignorant
p263
Vof
p264
tp265
F2
s(Vfor
p266
Va
tp267
F1
s(Vrule
p268
Vof
tp269
F2
s(Vcompared
p270
Vto
tp271
F1
s(Vveins
p272
Vof
p273
tp274
F1
s(g50
Vis
p275
tp276
F2
s(Vcavil
p277
Vare
p278
tp279
F1
s(Vany
p280
g29
tp281
F1
s(Vof
g232
tp282
F1
s(Vof
p283
g131
tp284
F1
s(Vancient
p285
Vand
p286
tp287
F1
s(Vcompared
p288
g101
tp289
F2
s(Vin
p290
g227
tp291
F8
s(Vthere
Vare
p292
tp293
F1
s(Vto
p294
Vdepart
p295
tp296
F1
s(g74
Vancients,
p297
tp298
F1
s(Voften
p299
Vled
p300
tp301
F1
s(Vand
p302
g127
tp303
F1
s(Vof
p304
Vthese
p305
tp306
F4
s(g295
Vfrom
p307
tp308
F1
s(g250
g9
tp309
F1
s(g53
Vgusto
p310
tp311
F1
s(Vzdly,
p312
Vthat
p313
tp314
F1
s(Vat
p315
Vthe
p316
tp317
F1
s(Vacquainted
p318
Vwith
p319
tp320
F1
s(Vviolated!
p321
g270
tp322
F1
s(V,
Vof
p323
tp324
F1
s(Vwhich
p325
Vthey
p326
tp327
F2
s(Vfrom
p328
Vart
p329
tp330
F1
s(g168
Vof
p331
tp332
F1
s(Vthan
p333
Vin
p334
tp335
F3
s(g210
Vparticular;
p336
tp337
F1
s(Vthe
p338
Vlittle
p339
tp340
F1
s(g68
Vshort,
p341
tp342
F1
s(Vis
Vmore
p343
tp344
F2
s(Vmuch
p345
Vhigher
p346
tp347
F1
s(Vin
Vthose
tp348
F1
s(g7
g209
tp349
F1
s(Vmen
p350
Vof
p351
tp352
F1
s(Vproduced
p353
Vby
p354
tp355
F1
s(g174
Vcall
tp356
F1
s(g65
Vthan
p357
tp358
F1
s(Vany
p359
Vhelp
p360
tp361
F1
s(Vthey
p362
Vare
p363
tp364
F1
s(Vpotius
p365
Vquam
p366
tp367
F1
s(Vwe
p368
Vmay
p369
tp370
F1
s(Vdiscover.
p371
Vmany
p372
tp373
F1
s(Vthe
g164
tp374
F1
s(Vfrom
p375
Vart.
p376
tp377
F1
s(Vof
Va
tp378
F5
s(Vthe
p379
g91
tp380
F5
s(g97
Vi
tp381
F1
s(Von
p382
g96
tp383
F1
s(Vany
p384
Vcelebrated
p385
tp386
F1
s(Vignorance;
p387
Vwhich
p388
tp389
F1
s(Va
Vgreat
p390
tp391
F2
s(Vdo
p392
g199
tp393
F1
s(Vare
p394
Vperfectly
p395
tp396
F1
s(Vshakspeare
p397
g235
tp398
F1
s(Vnot
p399
Vbeen
p400
tp401
F1
s(g395
g318
tp402
F1
s(Vnatural
p403
Vfruits
p404
tp405
F1
s(Vwould
p406
g99
tp407
F1
s(Vknows
p408
g44
tp409
F1
s(Vthis
p410
g176
tp411
F1
s(Vart,
p412
Vthan
tp413
F2
s(g286
g249
tp414
F1
s(Vthe
Vstage
p415
tp416
F1
s(g400
g315
tp417
F1
s(Vway
p418
g266
tp419
F1
s(Vas
p420
Vpliny
p421
tp422
F1
s(g278
Vthe
p423
tp424
F1
s(g113
Vwhich
tp425
F1
s(g32
Vproduced
p426
tp427
F1
s(Veffect
p428
g62
tp429
F1
s(g388
g107
tp430
F1
s(Vlittle
p431
Vgenius,
tp432
F1
s(Vthe
g272
tp433
F1
s(Va
Vrule
p434
tp435
F1
s(g331
g195
tp436
F1
s(Vgreater
p437
Vjudgment
p438
tp439
F1
s(g165
Vwriting.
p440
tp441
F1
s(Vcritics,
p442
g288
tp443
F1
s(g58
Vand
p444
tp445
F1
s(g366
Vistorum
p446
tp447
F1
s(Vand
p448
g277
tp449
F1
s(Vof
p450
Vantiquity
p451
tp452
F1
s(g252
Vrule
tp453
F1
s(Vthe
Vdrama,
p454
tp455
F1
s(Vis
Vnot
p456
tp457
F2
s(g438
Vshewn
p458
tp459
F1
s(g354
Vthe
p460
tp461
F1
s(Vto
p462
Vdecry
p463
tp464
F1
s(g144
g64
tp465
F1
s(Vbeauty
p466
g22
tp467
F1
s(g451
Vwho
tp468
F1
s(g341
Vthe
p469
tp470
F1
s(Vphilosophers.
p471
Venvy
p472
tp473
F1
s(g313
Vthere
tp474
F3
s(Vdescendants
p475
Vof
tp476
F1
s(Vand
p477
Vsleep.
p478
tp479
F1
s(Vin
p480
g55
tp481
F1
s(Villustrious
p482
Vancestors.
p483
tp484
F1
s(Vpains
p485
Vto
p486
tp487
F1
s(Vpeople,
p488
Vby
p489
tp490
F1
s(Vthe
p491
Vitalians
p492
tp493
F1
s(Vthan
p494
g280
tp495
F1
s(Vmade
p496
g418
tp497
F1
s(Vthese
g350
tp498
F1
s(g483
g362
tp499
F1
s(g376
V1
tp500
F1
s(g372
g283
tp501
F1
s(Vidle
p502
g207
tp503
F1
s(g94
g220
tp504
F1
s(Vof
p505
Vapollo
p506
tp507
F1
s(Vit,
p508
g353
tp509
F1
s(g187
Vthat,
p510
tp511
F1
s(g141
Vand,
p512
tp513
F1
s(Vstumbling-block
p514
Vto
tp515
F1
s(Vill
p516
g197
tp517
F1
s(Vwhich,
p518
g420
tp519
F1
s(g512
g312
tp520
F1
s(Vit
p521
Vhas
p522
tp523
F1
s(Vnegligentiam
p524
g365
tp525
F1
s(Vone
p526
Vof
tp527
F2
s(g310
Vgrande
p528
tp529
F1
s(Vdiligentiam."
p530
V"whose
p531
tp532
F1
s(g444
Vsomnus
p533
tp534
F1
s(Vhave
g189
tp535
F1
s(g221
g505
tp536
F1
s(Vvery
Vsubject
p537
tp538
F1
s(g247
Van
p539
tp540
F1
s(Vnegligence
p541
g143
tp542
F1
s(Vthem.
p543
Vfirst,
p544
tp545
F1
s(g421
Vtells
p546
tp547
F1
s(Vartificial
p548
Vcavillers
p549
tp550
F1
s(Vthem.
Vit
p551
tp552
F1
s(Vobserved,
p553
g494
tp554
F1
s(Vdarkness
p555
g477
tp556
F1
s(g307
Vthem
p557
tp558
F1
s(Vand
p559
g387
tp560
F1
s(Vof
p561
g475
tp562
F1
s(Vnotwithstanding
p563
Vchoose
p564
tp565
F1
s(g346
g466
tp566
F1
s(g351
Vgenius,
p567
tp568
F1
s(g567
Vthat
p569
tp570
F1
s(g539
Vestablished
p571
tp572
F1
s(g319
Vall
tp573
F1
s(Vmen's
p574
g118
tp575
F1
s(g119
Va
tp576
F1
s(g79
Vinstances
p577
tp578
F1
s(g564
g294
tp579
F1
s(g456
Va
tp580
F1
s(Vthat
p581
g290
tp582
F1
s(Vboth
p583
g285
tp584
F1
s(g245
g471
tp585
F1
s(Vpieces
p586
Vof
p587
tp588
F1
s(Vwhat
p589
g491
tp590
F1
s(Vart
p591
g333
tp592
F1
s(Vout
p593
Vof
tp594
F1
s(Vand
p595
g563
tp596
F1
s(Vwritings
p597
g304
tp598
F1
s(g363
g299
tp599
F1
s(Vthe
g516
tp600
F1
s(g323
g555
tp601
F1
s(Vof
p602
g84
tp603
F1
s(g36
g602
tp604
F1
s(g478
g502
tp605
F1
s(g184
g384
tp606
F1
s(Vthemselves,
p607
Vare
p608
tp609
F1
s(Vnot
Veyes
p610
tp611
F1
s(g569
g181
tp612
F1
s(Vbe
p613
Vthe
p614
tp615
F1
s(g533
V,
tp616
F1
s(Vhave
p617
Vthe
p618
tp619
F1
s(g557
g382
tp620
F1
s(g203
Vwho
tp621
F1
s(g415
g553
tp622
F1
s(g489
g186
tp623
F1
s(g587
Varchitecture
p624
tp625
F1
s(Vmythology
p626
Vmomus
p627
tp628
F1
s(g125
g586
tp629
F1
s(Varts,
p630
Vwhich
p631
tp632
F1
s(Vto
p633
g371
tp634
F1
s(g132
g561
tp635
F1
s(Vkilled
p636
g260
tp637
F1
s(Va
Vmodern
p638
tp639
F1
s(Vdone.
p640
g410
tp641
F1
s(g631
Vis
p642
tp643
F1
s(g228
g626
tp644
F1
s(Va
Vcritic
p645
tp646
F1
s(g258
Vof
p647
tp648
F4
s(Vto
p649
Vdetract
p650
tp651
F1
s(g454
Vwhen
p652
tp653
F1
s(g336
g38
tp654
F1
s(g243
Vwork
p655
tp656
F1
s(Vthe
Vwhole
p657
tp658
F1
s(g261
V.
tp659
F1
s(g434
Vwould
p660
tp661
F1
s(Vtragic
p662
Vwriters
p663
tp664
F1
s(g369
Voften
p665
tp666
F1
s(Vnumerous
p667
g112
tp668
F1
s(g122
g649
tp669
F1
s(Vinto
p670
Vthose
p671
tp672
F1
s(Vhis
p673
g136
tp674
F1
s(Vin
p675
Vthese
p676
tp677
F1
s(g655
g325
tp678
F1
s(g404
g13
tp679
F1
s(Va
g437
tp680
F1
s(g385
Vpiece
p681
tp682
F1
s(g42
g526
tp683
F1
s(Vsurveyed
p684
g124
tp685
F1
s(g27
Vplace,
p686
tp687
F1
s(g440
Vin
tp688
F1
s(Vonly
p689
Vknows
p690
tp691
F1
s(g423
g403
tp692
F1
s(g213
Vare
tp693
F1
s(g105
g589
tp694
F1
s(Vlittle
g161
tp695
F1
s(Vand
p696
Vstatuary,
p697
tp698
F1
s(g506
g302
tp699
F1
s(g663
g450
tp700
F1
s(Vthe
p701
g488
tp702
F1
s(g47
g392
tp703
F1
s(g150
g636
tp704
F1
s(Vinstruct
p705
g701
tp706
F1
s(g292
g152
tp707
F1
s(g159
Vas
p708
tp709
F1
s(g233
g595
tp710
F1
s(Vaemulari
p711
Vexoptat
p712
tp713
F1
s(g647
g591
tp714
F1
s(Vplay
p715
g149
tp716
F1
s(Vcritic,
p717
Vwhere
tp718
F1
s(g223
Vopposition
p719
tp720
F1
s(g460
Vspontaneous
p721
tp722
F1
s(Vthe
g146
tp723
F1
s(Vto
p724
g338
tp725
F3
s(Va
g514
tp726
F1
s(Vnature,
p727
Vwithout
p728
tp729
F1
s(g305
g442
tp730
F1
s(g77
g155
tp731
F1
s(Vnobler
p732
g428
tp733
F1
s(Vthem
p734
g321
tp735
F1
s(g610
g633
tp736
F1
s(Vsame
p737
g89
tp738
F1
s(g618
g737
tp739
F1
s(g357
Vthese
p740
tp741
F1
s(g446
Vobscuram
p742
tp743
F1
s(Vof
g412
tp744
F2
s(Vrigid
p745
g254
tp746
F1
s(g676
g630
tp747
F1
s(Vsophists
p748
Vcompared
tp749
F1
s(g360
g375
tp750
F1
s(g551
g25
tp751
F1
s(g712
g524
tp752
F1
s(g108
Vthe
p753
tp754
F1
s(g650
g158
tp755
F1
s(Vthese
g745
tp756
F1
s(g225
Vand
p757
tp758
F1
s(Vdistinguish
p759
g607
tp760
F1
s(g660
Vhave
p761
tp762
F1
s(g757
g167
tp763
F1
s(g549
Vof
p764
tp765
F1
s(g742
g530
tp766
F1
s(g681
Vare
p767
tp768
F1
s(g316
g485
tp769
F1
s(Vaccomplish
p770
Vor
p771
tp772
F1
s(g463
Vthose
p773
tp774
F1
s(g740
g574
tp775
F1
s(g761
g202
tp776
F1
s(g614
g16
tp777
F1
s(Vof
g734
tp778
F1
s(Vwho
Vnot
p779
tp780
F1
s(Vbut
p781
g217
tp782
F1
s(g156
g394
tp783
F1
s(g339
g548
tp784
F1
s(g642
g173
tp785
F1
s(Vtwo
p786
g482
tp787
F1
s(g624
g696
tp788
F1
s(g162
g408
tp789
F1
s(g20
g640
tp790
F1
s(g719
g724
tp791
F1
s(g571
g268
tp792
F1
s(g537
g462
tp793
F1
s(Vquorum
p794
g711
tp795
F1
s(g264
g193
tp796
F2
s(g697
g583
tp797
F1
s(g657
Vtribe
p798
tp799
F1
s(g238
g727
tp800
F1
s(Vhis
g715
tp801
F1
s(Vthese
g786
tp802
F1
s(g577
g593
tp803
F1
s(Vmuch
g732
tp804
F1
s(g671
g667
tp805
F1
s(g486
g770
tp806
F1
s(g645
Vmay
p807
tp808
F1
s(g390
g49
tp809
F2
s(g10
Vthat
tp810
F1
s(g546
g93
tp811
F1
s(Vreason
p812
g581
tp813
F1
s(g56
g257
tp814
F1
s(Vin
Va
tp815
F1
s(g708
g212
tp816
F1
s(g300
g670
tp817
F1
s(g87
g399
tp818
F2
s(Vdaily
p819
g705
tp820
F1
s(g469
g597
tp821
F1
s(g522
g496
tp822
F1
s(g771
g759
tp823
F1
s(g510
Vfirst,
p824
tp825
F1
s(g297
g170
tp826
F1
s(g807
g617
tp827
F1
s(g218
g543
tp828
F2
s(g273
g508
tp829
F1
s(g275
g263
tp830
F2
s(Vis
p831
g115
tp832
F1
s(Vthere
p833
Vis
p834
tp835
F5
s(g779
g689
tp836
F1
s(Vinimitable
p837
g397
tp838
F1
s(g458
g480
tp839
F1
s(g544
g368
tp840
F1
s(g255
g406
tp841
F1
s(g638
g717
tp842
F1
s(g128
g178
tp843
F1
s(g686
g46
tp844
F1
s(g608
g121
tp845
F2
s(g690
g781
tp846
F1
s(g426
Va
tp847
F1
s(g798
Vof
tp848
F1
s(g4
Vmasters,
p849
tp850
F1
s(g492
g52
tp851
F1
s(Va
g431
tp852
F2
s(g824
g833
tp853
F1
s(g71
g518
tp854
F1
s(g728
g359
tp855
F1
s(g849
g31
tp856
F1
s(g472
g448
tp857
F1
s(g721
g237
tp858
F1
s(Vbeauty
p859
Vin
tp860
F2
s(g767
g191
tp861
F1
s(Vthe
g662
tp862
F1
s(g326
Vhave
tp863
F1
s(g528
g675
tp864
F1
s(g116
g613
tp865
F1
s(g329
Vin
tp866
F1
s(g665
g134
tp867
F1
s(g652
g521
tp868
F1
s(g531
g541
tp869
F1
s(g627
g831
tp870
F1
s(Vthey
g819
tp871
F1
s(g14
g559
tp872
F1
s(g171
g379
tp873
F1
s(g773
Vbeauties
tp874
F1
s(Vhave
g684
tp875
F1
s(V"
g794
tp876
F1
s(g343
g859
tp877
F2
s(g834
g110
tp878
F1
s(Va
g345
tp879
F2
s(g764
g673
tp880
F3
s(g60
g837
tp881
F1
s(Vthe
g748
tp882
F1
s(Vadhering
p883
g140
tp884
F1
s(g334
g883
tp885
F1
s(g153
g328
tp886
F1
s(g753
g812
tp887
F1
s.