ccollections
defaultdict
p1
(c__builtin__
float
p2
tRp3
(Vcopiously
p4
Vpoured
p5
tp6
F1
s(Vmore
p7
Vof
p8
tp9
F1
s(Vis
Vcontent
p10
tp11
F1
s(Vpleasing;
p12
Vevery
p13
tp14
F1
s(Vnatural
p15
Vrepresentative
p16
tp17
F1
s(Vmost
p18
Vdelighted
p19
tp20
F1
s(Vfor
p21
Vthe
p22
tp23
F2
s(Vand
p24
Vtorture
p25
tp26
F1
s(Vand
p27
Vwit,
p28
tp29
F1
s(Vallays
p30
Vthe
p31
tp32
F1
s(Vgentle
p33
Vcomplaisance;
p34
tp35
F1
s(Vviolent
p36
Vthan
p37
tp38
F1
s(Vother
p39
Vsubstances,
p40
tp41
F1
s(Vwho
p42
Vhad
p43
tp44
F1
s(Vemotions
p45
Vrather
p46
tp47
F1
s(Vthe
Vworld
p48
tp49
F1
s(Vhe
p50
Vwhose
p51
tp52
F1
s(Vwill
p53
Vinflame
p54
tp55
F1
s(Vthe
p56
Vlusciousness
p57
tp58
F1
s(Vvery
p59
Vexactly
p60
tp61
F1
s(Vsugar
p62
Vand
p63
tp64
F1
s(Vprattle,
p65
Vinnocent
p66
tp67
F1
s(Vof
p68
Vpunch.
p69
tp70
F1
s(Vthe
p71
Vlemon
p72
tp73
F1
s(Vrecommend
p74
Vthe
p75
tp76
F1
s(Vused
p77
Valone,
p78
tp79
F1
s(Vthus
p80
Vmeekness
p81
tp82
F1
s(Vbecome
p83
Vdull
p84
tp85
F1
s(Veasy
p86
g65
tp87
F1
s(Vof
p88
g71
tp89
F2
s(Vby
p90
Vthis
p91
tp92
F1
s(Vand
p93
Vnauseate,
p94
tp95
F1
s(Vfirst
p96
Vaddress,
p97
tp98
F1
s(Vthe
p99
Vchief
p100
tp101
F1
s(Vsoon
p102
Vbe
p103
tp104
F1
s(Vpall
p105
g93
tp106
F1
s(Vcivility,
p107
Vand
p108
tp109
F1
s(Vand
p110
Vinstead
p111
tp112
F1
s(Vwhich
p113
Vthirst
p114
tp115
F1
s(Vthus
p116
Vwhile
p117
tp118
F1
s(Vand
p119
Vtasteless.
p120
tp121
F1
s(Vharshness
p122
Vof
p123
tp124
F1
s(Vwill
p125
Vdistort
p126
tp127
F1
s(Vreprehension.
p128
Vbut
p129
tp130
F1
s(Vof
p131
Vraillery,
p132
tp133
F1
s(Vhave
g7
tp134
F1
s(Vthe
p135
Vspirit
p136
tp137
F1
s(Vhearer
p138
Vwith
p139
tp140
F1
s(Vbut
p141
Vsoon
p142
tp143
F1
s(Vis
p144
Vgratified,
p145
tp146
F1
s(Vdiscovered
p147
Vthat
p148
tp149
F1
s(Vwit
p150
Vtoo
p151
tp152
F1
s(Vor
p153
Vconvenience
p154
tp155
F1
s(Vidlenese
p156
Vor
p157
tp158
F1
s(Vand
p159
Vit
p160
tp161
F1
s(Vnever
p162
Vconvince.
p163
tp164
F1
s(Vaffectation,
p165
Vwithout
p166
tp167
F1
s(Vbitterness
p168
Vof
p169
tp170
F1
s(g111
Vof
p171
tp172
F1
s(Vplease,
p173
Vbut
p174
tp175
F1
s(Vpunish
p176
Vthem,
p177
tp178
F1
s(Vgrowth,
p179
Vby
p180
tp181
F1
s(Voften
p182
g173
tp183
F1
s(Vunmixt
p184
g125
tp185
F1
s(Vhas
p186
Vno
p187
tp188
F1
s(g69
Vand
p189
tp190
F1
s(Vand
p191
Vhe
p192
tp193
F1
s(Vhumble
p194
Vchat,
p195
tp196
F1
s(Vare
p197
g18
tp198
F1
s(Vnot
p199
Vsometimes
p200
tp201
F1
s(Vsoftness
p202
Vof
p203
tp204
F1
s(Vall
p205
Vthe
p206
tp207
F3
s(g171
Vquenching
p208
tp209
F1
s(Veither
p210
Vthe
p211
tp212
F1
s(Vor
p213
Vflattery.
p214
tp215
F1
s(Vand
p216
Vvapid,
p217
tp218
F1
s(Vonly
p219
Vdesue
p220
tp221
F1
s(g81
Vand
p222
tp223
F1
s(Vconversation;
p224
Vand
p225
tp226
F1
s(Vimpart
p227
g21
tp228
F1
s(g192
Vthat
p229
tp230
F1
s(Vhave
p231
Vour
p232
tp233
F1
s(g114
Vis
p234
tp235
F1
s(Vall
p236
Vare
p237
tp238
F1
s(g78
Vand
p239
tp240
F1
s(Vframed
p241
Van
p242
tp243
F1
s(Vmoments
p244
Vof
p245
tp246
F1
s(g203
Vbehaviour
p247
tp248
F1
s(Vmerriment;
p249
g110
tp250
F1
s(Vadulation
p251
Vand
p252
tp253
F1
s(Vignorance
p254
Vinformed
p255
tp256
F1
s(Vknowledge
p257
Vis
p258
tp259
F1
s(Vthe
p260
Vcompany
p261
tp262
F1
s(Vfiery,
p263
Vis
p264
tp265
F1
s(Vsublimed
p266
Vby
p267
tp268
F1
s(Vunwelcome
p269
Vtruth.
p270
tp271
F1
s(Vby
p272
g165
tp273
F1
s(Vcan
p274
Vmake
p275
tp276
F1
s(g237
Vastonished,
p277
tp278
F1
s(Vmore
p279
Vspritely
p280
tp281
F1
s(g25
Vthe
p282
tp283
F1
s(g157
Vpride,
p284
tp285
F1
s(Vto
p286
Vsustenance
p287
tp288
F1
s(Vnature
p289
Vare
p290
tp291
F1
s(Vqualities
p292
Vthan
p293
tp294
F1
s(Vsafety
p295
g153
tp296
F1
s(g151
g4
tp297
F1
s(Vpalate.
p298
Vconversation
p299
tp300
F1
s(Vartless
p301
Vand
p302
tp303
F1
s(g270
Vnecessary
p304
tp305
F1
s(Vnor
p306
Vdiscouloured
p307
tp308
F1
s(Vand
p309
Vspeaks
p310
tp311
F1
s(g206
Vwants
p312
tp313
F1
s(Vthat
p314
Vpunch
p315
tp316
F1
s(g304
g286
tp317
F1
s(Vand
p318
Vavoided.
p319
tp320
F1
s(Vin
p321
Vthe
p322
tp323
F2
s(Vwere
p324
g199
tp325
F1
s(g103
Vdreaded,
p326
tp327
F1
s(Vemblem
p328
Vof
p329
tp330
F1
s(Vand
p331
Vcensure,
p332
tp333
F1
s(Vgratifications
p334
Vof
p335
tp336
F1
s(g217
Vif
p337
tp338
F1
s(g46
g36
tp339
F1
s(Vheat
p340
Vof
tp341
F1
s(g60
Vrepresented
p342
tp343
F1
s(Vone
p344
Vshrinks
p345
tp346
F1
s(g302
Veasy
p347
tp348
F1
s(g34
Vand
p349
tp350
F1
s(Vthe
p351
Vqualities
p352
tp353
F1
s(g37
g12
tp354
F1
s(Vand
p355
Vacrimony
p356
tp357
F1
s(Vcensure;
p358
Vsugar
p359
tp360
F1
s(g166
g210
tp361
F1
s(Vis
p362
Vtransacted
p363
tp364
F1
s(Vemployment
p365
Vis
p366
tp367
F1
s(Vis
p368
Vonly
p369
tp370
F1
s(Vqualities.
p371
g99
tp372
F1
s(g349
Vwater
p373
tp374
F1
s(g275
Vthe
p375
tp376
F1
s(Vbowl
p377
g68
tp378
F1
s(Vof
p379
g224
tp380
F1
s(g108
Vallaying
p381
tp382
F1
s(Vsits
p383
Vintranced
p384
tp385
F1
s(Vfrigidity
p386
Vof
p387
tp388
F1
s(Vwe
p389
Vcall
p390
tp391
F1
s(Vto
p392
g227
tp393
F1
s(Vthe
p394
g340
tp395
F1
s(Vthey
p396
Vare
p397
tp398
F1
s(g189
Vacid
p399
tp400
F1
s(g208
Vthirst
p401
tp402
F1
s(Vthe
g244
tp403
F1
s(Vgenius
p404
Vbut
p405
tp406
F1
s(g319
Vitself.
p407
tp408
F1
s(Voppression,
p409
g260
tp410
F1
s(Vwe
p411
g219
tp412
F1
s(g169
g269
tp413
F1
s(g337
Vnegligence
p414
tp415
F1
s(Vthey
p416
g182
tp417
F1
s(g75
g96
tp418
F1
s(Vlife
p419
Vand
p420
tp421
F1
s(Vhated,
p422
g318
tp423
F1
s(g43
g147
tp424
F1
s(Vfancy,
p425
g306
tp426
F1
s(Vand
p427
g179
tp428
F1
s(Vof
p429
Vanother.
p430
tp431
F1
s(Vof
p432
g358
tp433
F1
s(g384
Vand
p434
tp435
F1
s(Vmitigates
p436
Vthe
p437
tp438
F1
s(Vof
p439
Vflattery.
p440
tp441
F1
s(Vlanguage
p442
Vcuriosity
p443
tp444
F1
s(g57
g439
tp445
F1
s(g72
Vwill
p446
tp447
F1
s(Vwill
p448
g102
tp449
F1
s(Vfigure
p450
Vpungency
p451
tp452
F1
s(Vthe
p453
Vproper
p454
tp455
F2
s(Vbusiness
p456
Vof
tp457
F1
s(g373
Vis
tp458
F2
s(Vlimpid
p459
Vvein
p460
tp461
F1
s(Vof
p462
Vsugar
tp463
F1
s(g293
Vpenetration
p464
tp465
F1
s(g187
Vother
p466
tp467
F1
s(g363
Vby
p468
tp469
F1
s(g434
Voverpowered;
p470
tp471
F1
s(Vroused,
p472
Vand
p473
tp474
F1
s(g5
Vout
p475
tp476
F1
s(Vassociated
p477
Vwith
p478
tp479
F1
s(Vmanner
p480
g436
tp481
F1
s(Vunless
p482
g396
tp483
F1
s(Vthe
p484
Vplainest
p485
tp486
F1
s(Vthat
p487
g389
tp488
F1
s(g22
g295
tp489
F1
s(Vwe
p490
g197
tp491
F1
s(Vto
g176
tp492
F1
s(Vwill
p493
Valways
p494
tp495
F1
s(g54
Vthe
p496
tp497
F1
s(g239
Vwith
p498
tp499
F1
s(g464
Vand
p500
tp501
F1
s(g163
Vof
p502
tp503
F1
s(Vthe
p504
g138
tp505
F1
s(Vtruth;
p506
g416
tp507
F1
s(g264
g453
tp508
F4
s(Vthe
p509
Vacidity
p510
tp511
F1
s(g66
g119
tp512
F1
s(Vis
p513
Vpleased.
p514
tp515
F1
s(Vto
p516
Vtemper
p517
tp518
F1
s(g440
g90
tp519
F1
s(Vsame
p520
g480
tp521
F1
s(g220
Vto
p522
tp523
F1
s(Vproper
Vhieroglyphick
p524
tp525
F1
s(Vquenched,
p526
Vand
p527
tp528
F1
s(Vacids
p529
g184
tp530
F1
s(g287
g427
tp531
F1
s(Vthey
p532
g162
tp533
F1
s(g329
Vvivacity
p534
tp535
F1
s(Vforce
p536
Vof
p537
tp538
F1
s(Vwater.
p539
g135
tp540
F1
s(g148
g351
tp541
F1
s(Vof
p542
Vcontradiction,
p543
tp544
F1
s(g466
g292
tp545
F1
s(Vthe
Vonly
p546
tp547
F1
s(Vthe
p548
Vface
p549
tp550
F1
s(Vis
p551
Vrequired
p552
tp553
F1
s(g401
g53
tp554
F1
s(g51
Vconstant
p555
tp556
F1
s(Vsugar
p557
Vof
p558
tp559
F1
s(g443
g144
tp560
F1
s(Vless
p561
Vof
p562
tp563
F1
s(g460
Vof
p564
tp565
F1
s(Vthe
p566
Vtaste
p567
tp568
F1
s(g470
g236
tp569
F1
s(Vwit
Vwith
tp570
F1
s(g552
g392
tp571
F1
s(g299
Vwould
p572
tp573
F1
s(Vis
g516
tp574
F1
s(g375
Vtrue
p575
tp576
F1
s(Vwant.
p577
g116
tp578
F1
s(g13
g344
tp579
F1
s(Vof
p580
Vluscious
p581
tp582
F1
s(g369
Vin
tp583
F1
s(Vaptly
p584
g450
tp585
F1
s(Vasperity,
p586
g50
tp587
F1
s(g290
Vsupplied.
p588
tp589
F1
s(Vdetection
p590
g331
tp591
F1
s(g335
Vwit
p592
tp593
F2
s(Vtill
p594
Vfancy
p595
tp596
F1
s(g242
Vartificial
p597
tp598
F1
s(g326
g422
tp599
F1
s(g117
g411
tp600
F1
s(Vwhich
p601
Vone
p602
tp603
F1
s(g359
Vis
tp604
F2
s(g315
Vcan
tp605
F1
s(g8
g404
tp606
F1
s(g120
g249
tp607
F1
s(Vdiction;
p608
g159
tp609
F1
s(g592
g213
tp610
F1
s(g258
Vconveyed
p611
tp612
F1
s(g222
Vcourtesy
p613
tp614
F1
s(Vof
p615
g39
tp616
F1
s(g19
Vwith
p617
tp618
F1
s(g347
Vtalk,
p619
tp620
F1
s(Vjuices,
p621
g62
tp622
F1
s(g558
g107
tp623
F1
s(g496
Vblood.
p624
tp625
F1
s(g522
g231
tp626
F1
s(g390
Vfor
tp627
F1
s(g581
g251
tp628
F1
s(g214
g557
tp629
F1
s(g468
g301
tp630
F1
s(g420
g289
tp631
F1
s(Vvolatile
p632
Vand
p633
tp634
F1
s(g180
g113
tp635
F1
s(g245
g156
tp636
F1
s(g267
g425
tp637
F1
s(g97
g141
tp638
F1
s(g63
g539
tp639
F1
s(g10
g594
tp640
F1
s(g478
g279
tp641
F1
s(Vits
p642
g409
tp643
F1
s(Vthus
p644
g150
tp645
F1
s(Vseverity
p646
Vof
p647
tp648
F1
s(Vingredient
p649
Vof
p650
tp651
F1
s(g446
Vvery
p652
tp653
F1
s(Vsatire,
p654
Vor
p655
tp656
F1
s(g247
g321
tp657
F1
s(g543
Vand
p658
tp659
F1
s(g142
g105
tp660
F1
s(g48
g362
tp661
F1
s(g332
Vwho
p662
tp663
F1
s(g307
g272
tp664
F1
s(g232
g254
tp665
F1
s(g284
g487
tp666
F1
s(g282
Vpalate;
p667
tp668
F1
s(g234
g526
tp669
F1
s(Vmy
p670
Vacquaintance,
p671
tp672
F1
s(Vnobody
p673
g513
tp674
F1
s(Vthe
g257
tp675
F1
s(g546
g649
tp676
F1
s(g195
g274
tp677
F1
s(Vto
p678
Vconversation
p679
tp680
F1
s(g211
g122
tp681
F1
s(g136
g632
tp682
F1
s(Vsluggishness
p683
Vquickened,
p684
tp685
F1
s(Vthe
g15
tp686
F1
s(Vpunch
p687
g379
tp688
F1
s(g451
g131
tp689
F1
s(g407
g80
tp690
F1
s(g498
Vwhich
p691
tp692
F1
s(g494
g74
tp693
F1
s(g387
g194
tp694
F1
s(g624
g644
tp695
F1
s(Vfind
p696
Vfaults,
p697
tp698
F1
s(g514
g298
tp699
F1
s(g100
Vuse
p700
tp701
F1
s(g454
g328
tp702
F1
s(g679
Vare
p703
tp704
F1
s(g562
g506
tp705
F1
s(g312
Vof
p706
tp707
F1
s(g280
g371
tp708
F1
s(Vbe
Vdrank
tp709
F1
s(g671
g42
tp710
F1
s(Vto
p711
g696
tp712
F1
s(g617
g484
tp713
F2
s(Vlooks
p714
Vonly
p715
tp716
F1
s(g650
Vpunch
p717
tp718
F1
s(g322
g520
tp719
F1
s(g255
g490
tp720
F1
s(g715
g711
tp721
F2
s(g510
g88
tp722
F1
s(g700
g462
tp723
F1
s(g160
g368
tp724
F1
s(Vas
p725
g314
tp726
F1
s(Vby
p727
Vdue
p728
tp729
F1
s(g132
g355
tp730
F1
s(g277
Vbut
p731
tp732
F1
s(g129
g529
tp733
F1
s(g40
Vand
p734
tp735
F1
s(g123
g654
tp736
F1
s(g397
g477
tp737
F1
s(g500
g586
tp738
F1
s(g595
Vhas
p739
tp740
F1
s(g414
g324
tp741
F1
s(g647
g128
tp742
F1
s(g366
g590
tp743
F1
s(g126
g548
tp744
F1
s(g261
g383
tp745
F1
s(g655
g56
tp746
F1
s(g145
Vand
tp747
F1
s(g31
g168
tp748
F1
s(Vman
p749
g551
tp750
F2
s(g437
Vroughness
p751
tp752
F1
s(g345
Vfrom
p753
tp754
F1
s(g94
g482
tp755
F1
s(g352
Vrequisite
p756
tp757
F1
s(g405
g561
tp758
F1
s(g502
g670
tp759
F1
s(g555
g365
tp760
F1
s(Vthus
p761
Vall
tp762
F1
s(Vcan
p763
Vbe
p764
tp765
F2
s(g91
g459
tp766
F1
s(Vof
p767
g86
tp768
F1
s(Vthe
g386
tp769
F1
s(g84
g216
tp770
F1
s(g564
g442
tp771
F1
s(g473
g683
tp772
F1
s(Vagitates
p773
g504
tp774
F1
s(g734
g202
tp775
F1
s(g229
g186
tp776
F1
s(g567
g615
tp777
F1
s(g753
Vthe
p778
tp779
F1
s(g652
g584
tp780
F1
s(g611
g601
tp781
F1
s(g667
g191
tp782
F1
s(g658
g30
tp783
F1
s(g517
g566
tp784
F1
s(g597
g577
tp785
F1
s(g764
g77
tp786
F1
s(g756
g678
tp787
F1
s(g619
Vneither
p788
tp789
F1
s(g633
g263
tp790
F1
s(g549
g24
tp791
F1
s(g399
g621
tp792
F1
s(g684
g727
tp793
F1
s(g430
Vwater
tp794
F1
s(g662
g714
tp795
F1
s(g174
g532
tp796
F1
s(g16
g580
tp797
F1
s(g739
g241
tp798
F1
s(g310
Vonly
tp799
F1
s(g252
g33
tp800
F1
s(g572
g83
tp801
F1
s(g602
g749
tp802
F1
s(Va
g377
tp803
F1
s(g731
g673
tp804
F1
s(g342
Vby
p805
tp806
F1
s(g524
g767
tp807
F1
s(g728
g646
tp808
F1
s(g703
g59
tp809
F1
s(g177
g448
tp810
F1
s(g751
g542
tp811
F1
s(g527
g205
tp812
F2
s(Vwhich
p813
g763
tp814
F1
s(g485
g608
tp815
F1
s(g691
Vman
tp816
F1
s(Vthe
g334
tp817
F1
s(g200
g472
tp818
F1
s(g706
g419
tp819
F1
s(g613
g493
tp820
F1
s(g805
Va
tp821
F1
s(g788
g266
tp822
F1
s(g475
g773
tp823
F1
s(g28
g509
tp824
F1
s(g778
g536
tp825
F1
s(g575
g687
tp826
F1
s(Vthe
g456
tp827
F1
s(g225
g725
tp828
F1
s(g356
g432
tp829
F1
s(g697
g309
tp830
F1
s(g717
g813
tp831
F1
s(g381
g394
tp832
F1
s(g537
g642
tp833
F1
s(g534
g27
tp834
F1
s(g139
g45
tp835
F1
s(g154
g429
tp836
F1
s(g588
g761
tp837
F1
s.