ccollections
defaultdict
p1
(c__builtin__
float
p2
tRp3
(Vtemple,
p4
Vsave
p5
tp6
F1
s(Vknew
p7
Vwho
p8
tp9
F1
s(Vwood-lands,
p10
Vand
p11
tp12
F1
s(Vmanifested
p13
Vto
tp14
F1
s(Vas
p15
Vbeing
p16
tp17
F1
s(Von
p18
Va
tp19
F1
s(Vglancing
p20
Vbehind
p21
tp22
F1
s(Vexternal
p23
Vlink
p24
tp25
F18
s(Vcentral
p26
Vslab
tp27
F1
s(Vand
p28
Van
p29
tp30
F1
s(Vlife
p31
Vand
p32
tp33
F1
s(Vthere.
p34
Vhe
p35
tp36
F1
s(g21
Vthem,
p37
tp38
F2
s(Vof
p39
Vaffliction
p40
tp41
F1
s(Vdrooping
p42
Velms,
p43
tp44
F1
s(Vwas
p45
Vwithdrawn,
p46
tp47
F1
s(Vbestowed
p48
Vby
p49
tp50
F1
s(Vstill
p51
Vin
p52
tp53
F1
s(Vand
p54
Vshe
p55
tp56
F1
s(g52
Vits
p57
tp58
F1
s(Vand
p59
Vthat
p60
tp61
F3
s(Vturn.
p62
Vand
p63
tp64
F1
s(Vpt/pageturner.pl?id=eaf437&image=437fcov.jpg)
p65
V\u005c-
p66
tp67
F1
s(Vbe
p68
Vbuilt
p69
tp70
F1
s(Vreached
p71
Va
tp72
F2
s(Vanticipated
p73
Vpleasures
p74
tp75
F1
s(Vlily;
p76
Vand
p77
tp78
F1
s(Vsexton
p79
Vfound
p80
tp81
F1
s(Vamid
p82
Vthe
p83
tp84
F1
s(Vthe
p85
Vdeep
p86
tp87
F1
s(Vpedestal,
p88
Vwas
tp89
F1
s(V`let
p90
Vus
p91
tp92
F1
s(Vwith
p93
Vthis
p94
tp95
F1
s(Vthe
Vtemple;
p96
tp97
F1
s(Vvision
p98
Vof
p99
tp100
F1
s(Vlilias
Vhad
p101
tp102
F1
s(Va
Vshadow
p103
tp104
F1
s(Vor
p105
Vother,
p106
tp107
F1
s(Vfloor,
Vthe
p108
tp109
F1
s(Vdarksome
p110
Vfigure
p111
tp112
F1
s(Vthere.
p113
Vand
p114
tp115
F1
s(Verrand.
p116
Vit
tp117
F1
s(Vthrown
p118
Vits
p119
tp120
F1
s(Vhe
p121
Vtold
p122
tp123
F2
s(Vwhile
p124
Vthey
p125
tp126
F1
s(Vfind
p127
Vthan
p128
tp129
F1
s(Vstand
p130
Von
p131
tp132
F1
s(Vpage
V301.
p133
tp134
F1
s(Vthough
p135
Vit
tp136
F1
s(V[
V[page
p137
tp138
F18
s(Vpage
V305.
p139
tp140
F1
s(Vwith
p141
Vone
p142
tp143
F2
s(Vanother.
p144
Vthere
p145
tp146
F1
s(Vbrim
p147
Vover
p148
tp149
F1
s(Vforrester,
Vsoothingly---`spots
p150
tp151
F1
s(Vlower
p152
Vpart
p153
tp154
F1
s(Vwould
Vread
p155
tp156
F1
s(Vand
p157
Vdesecrate
p158
tp159
F1
s(Vlilias
Vfay,
p160
tp161
F1
s(Vhere,'
p162
Vsaid
p163
tp164
F1
s(Vtogether,
p165
V[
tp166
F1
s(Vspoke,
p167
Va
tp168
F1
s(V]
Vseeking
p169
tp170
F1
s(Vstanding
p171
Vbeneath
tp172
F1
s(Vslab
p173
Vof
p174
tp175
F3
s(Valmost
p176
Vevery
p177
tp178
F1
s(Vhad
p179
Vacted;
p180
tp181
F1
s(Vsmall
Vrise
p182
tp183
F1
s(Vlook
p184
Vtowards
p185
tp186
F1
s(Vwas
p187
Vmeet
p188
tp189
F1
s(Va
Vhundred
p190
tp191
F1
s(Vfay
Vcould
p192
tp193
F1
s(Vshall
p194
Vsing
p195
tp196
F1
s(Vand
p197
Vto
p198
tp199
F2
s(Varound,
p200
Vand
p201
tp202
F1
s(Vof
p203
g42
tp204
F1
s(Vnothing
p205
Vearthly
p206
tp207
F1
s(Vin
p208
Vshort---for
p209
tp210
F1
s(Vthere.
p211
Vthe
p212
tp213
F1
s(Vwhich
p214
Vit
p215
tp216
F1
s(Vhad
p217
g118
tp218
F1
s(Van
p219
Vancient
p220
tp221
F2
s(Vmind,
p222
Veven
p223
tp224
F1
s(Vword
p225
Vof
p226
tp227
F1
s(Vthe
Vhistory
p228
tp229
F1
s(Vas
p230
Vwell
p231
tp232
F1
s(Vand
Vhe
p233
tp234
F1
s(Vcertain
p235
Vregularity
p236
tp237
F1
s(Vtemple
p238
Vhere.'
p239
tp240
F1
s(Vglance
p241
Vat
tp242
F1
s(Vhopes?---there
p243
Vall
p244
tp245
F1
s(Vmillions?
p246
Vfor
p247
tp248
F1
s(Vfair
p249
Vand
p250
tp251
F1
s(Va
Vray
p252
tp253
F1
s(Vassociate!
p254
Vthey
p255
tp256
F1
s(Vimage](http://etext.virginia.edu/cgi-local/chad-
Vpt/pageturner.pl?id=eaf437&image=437-011.jpg)
p257
tp258
F1
s(Vwho
p259
Vhad
p260
tp261
F2
s(Vevening,
p262
Vafter
p263
tp264
F1
s(Va
Vyoung
p265
tp266
F1
s(Vforrester,
Vwith
tp267
F1
s(Vforrester,
Vas
p268
tp269
F1
s(Va
Vloving
p270
tp271
F1
s(Vfar
p272
Vbeyond,
p273
tp274
F1
s(Vthose
p275
Vwords,
p276
tp277
F1
s(Vmust
p278
Vbuild
p279
tp280
F1
s(Vfruit;
p281
Vthere
tp282
F1
s(Vshe
p283
Vlooked
tp284
F1
s(Vmelancholy
p285
Vgascoigne
p286
tp287
F1
s(Vupon
p288
Vthem.
p289
tp290
F1
s(Vcontinual
p291
Vvoice
p292
tp293
F1
s(Vbeen
Vspurned
p294
tp295
F1
s(Vedifice,
p296
Vand
p297
tp298
F1
s(V-
Vpage
p299
tp300
F10
s(Vsepulchre,
p301
Vin
p302
tp303
F1
s(Vauditors
p304
Vcould
p305
tp306
F1
s(Vforth
p307
Vagain,
p308
tp309
F1
s(Vshall
p310
Vwe
p311
tp312
F2
s(Vday,
p313
Vand
p314
tp315
F1
s(Vhis
p316
Vdismal
p317
tp318
F1
s(Va
Vgift
p319
tp320
F1
s(Vwho
Vnow
p321
tp322
F1
s(Vdown
p323
Vinto
tp324
F1
s(Vbetokened
p325
Vby
tp326
F1
s(Vthemselves
p327
Va
tp328
F1
s(Vdismal
p329
Vfigure,
p330
tp331
F1
s(Vand
p332
Vfor
p333
tp334
F1
s(Vmarble
p335
Vfloor,
p336
tp337
F2
s(Vthe
Vdeserted
p338
tp339
F1
s(Vand
Vhimself
p340
tp341
F1
s(Vthe
Vparable
p342
tp343
F1
s(Vthe
Vivied
p344
tp345
F1
s(Vprominent
p346
Vbeauties,
p347
tp348
F1
s(Vimage](http://etext.virginia.edu/cgi-local/chad-
Vpt/pageturner.pl?id=eaf437&image=437-009.jpg)
p349
tp350
F1
s(Vher
p351
Varms,
p352
tp353
F1
s(Vand
p354
Vmusic
p355
tp356
F1
s(Vgathered
p357
Vup
p358
tp359
F1
s(Vtaken
Vleave
p360
tp361
F1
s(Vwhere
p362
Vhuman
p363
tp364
F1
s(Vfelt
p365
Va
tp366
F1
s(Vin
p367
Vday-dreams
p368
tp369
F1
s(Vthe
p370
Vspot,
p371
tp372
F2
s(Vand
p373
Vromance;
p374
tp375
F1
s(Vpall,
p376
Vand
p377
tp378
F1
s(Vancestral
p379
Vmansion,
p380
tp381
F1
s(Vestate
p382
Vwhich
p383
tp384
F1
s(Vmansion,
p385
Vthey
p386
tp387
F1
s(Vpause,
p388
Vpossessed
p389
tp390
F1
s(g305
Vnever
p391
tp392
F1
s(Vsunshine
p393
Vought
p394
tp395
F1
s(Vlilias
p396
Vfay
p397
tp398
F2
s(Vwhen
Vthe
p399
tp400
F1
s(V`have
p401
Vany
p402
tp403
F1
s(Vmight
p404
Vhave
p405
tp406
F1
s(Vacross
p407
Vand
p408
tp409
F1
s(Vand
p410
Vhad
p411
tp412
F1
s(Vand
p413
Vwreathed
p414
tp415
F1
s(V`shall
p416
Vwe
p417
tp418
F1
s(g69
Vthere.
p419
tp420
F1
s(Vfor
p421
Vyour
p422
tp423
F1
s(Vgarden
p424
Vof
p425
tp426
F1
s(Vbury
p427
Vhis
p428
tp429
F1
s(Vall
p430
Vmanner
p431
tp432
F1
s(Vhis
Vcloak
p433
tp434
F1
s(Vof
p435
Vhuman
p436
tp437
F1
s(Vsimultaneously,
p438
Vand
tp439
F1
s(Vand
p440
Vwherever
p441
tp442
F1
s(Vnow
p443
Vrelapsed
p444
tp445
F1
s(Vquest
p446
Vwhich
p447
tp448
F1
s(Vhe
p449
Vwatched
tp450
F1
s(Vimage](http://etext.virginia.edu/cgi-local/chad-
Vpt/pageturner.pl?id=eaf437&image=437-003.jpg)
p451
tp452
F1
s(Vsorrow.
p453
Vhe
tp454
F1
s(Vsaid
p455
Vhe
p456
tp457
F1
s(Vfolded
p458
Vupon
p459
tp460
F1
s(Vtheir
p461
Veyes
p462
tp463
F2
s(Vmystery
p464
Vof
p465
tp466
F1
s(Vgiving
p467
Vas
p468
tp469
F1
s(Vthe
p470
Vpillars
p471
tp472
F1
s(Vembodied
p473
Vsymbol
p474
tp475
F1
s(Va
Vspot
p476
tp477
F1
s(Vspot.
p478
Vyet,
p479
tp480
F1
s(g83
Vsolemn
p481
tp482
F1
s(Vstreamlet,
p483
Vwith
p484
tp485
F1
s(Vdeep
p486
Va
tp487
F1
s(Vso
p488
Vvery
p489
tp490
F1
s(Vvery
p491
Vsad,'
p492
tp493
F1
s(Vas
p494
Vthey
p495
tp496
F3
s(Vof
p497
Vhappiness.
p498
tp499
F3
s(Vhad
Vno
p500
tp501
F1
s(g99
Vhope
tp502
F1
s(Vunder
p503
Vthis
p504
tp505
F1
s(Va
Vtomb.
p506
tp507
F1
s(Vof
p508
Vground,
p509
tp510
F1
s(g391
Vafterwards
p511
tp512
F1
s(Vsunshine
p513
Vof
tp514
F1
s(Vplace,
p515
Veven
p516
tp517
F1
s(Vfallen
p518
Vover
tp519
F1
s(Vasked
p520
Vyourselves
p521
tp522
F1
s(Vhere,
p523
Vwould
p524
tp525
F1
s(Vinfant,
p526
Vsweet
p527
tp528
F1
s(Vtheir
p529
Vpensive
p530
tp531
F1
s(Vtreasured
p532
Vup
p533
tp534
F1
s(Vovershadowing
p535
Vhis
p536
tp537
F1
s(Vtemple
g162
tp538
F1
s(Vback
p539
Vcover.
tp540
F1
s(Vmany
p541
Vdelightful
p542
tp543
F1
s(g128
Vthis?'
p544
tp545
F1
s(Vbrink
p546
Vof
tp547
F1
s(g302
Vwhich
tp548
F3
s(Vflowers
p549
Vsuch
tp550
F1
s(Vsummer
p551
Vwas
p552
tp553
F1
s(Vprocession
p554
Vbrought
p555
tp556
F1
s(Vchanced
p557
Vto
p558
tp559
F1
s(Vpt/pageturner.pl?id=eaf437&image=437edgf.jpg)
p560
V\u005c-
tp561
F1
s(Vso
p562
Vmerrily.
p563
tp564
F1
s(g317
Vfigure
p565
tp566
F1
s(Vthe
p567
Vdaily
p568
tp569
F1
s(Vshape
p570
Vall
p571
tp572
F1
s(g371
g157
tp573
F2
s(Vday
p574
Vmore
p575
tp576
F1
s(Vfurther
p577
Vfor
p578
tp579
F1
s(Vthe
Vshelter
p580
tp581
F1
s(Vhalftitle
p582
Vpage.
p583
tp584
F1
s(Vwere
p585
g458
tp586
F1
s(Vold
p587
Vman
p588
tp589
F4
s(Vdwelt
p590
Vamong
p591
tp592
F1
s(Vand
p593
Vwith
p594
tp595
F2
s(Vis
p596
g491
tp597
F1
s(Vlonger,
p598
Vwhile
p599
tp600
F1
s(Vsurrounded
p601
Vit,
p602
tp603
F1
s(Vit
p604
Vfor
tp605
F1
s(Vthe
Vmidst
p606
tp607
F1
s(Vit
p608
Vas
p609
tp610
F1
s(Vthing
p611
Vhad
p612
tp613
F1
s(Vglance,
p614
Va
tp615
F1
s(Vburied
p616
V[
tp617
F1
s(V302.
p618
V]
tp619
F1
s(Vtemple,
p620
g214
tp621
F1
s(Vpurpose
p622
Vmore
p623
tp624
F1
s(Vpt/pageturner.pl?id=eaf437&image=437bcov.jpg)
p625
V\u005c-
tp626
F1
s(V-
Vblank
p627
tp628
F1
s(Vby
p629
Vthe
p630
tp631
F4
s(Vdoubted,
p632
Vtoo,
p633
tp634
F1
s(Vclung
p635
Vto
p636
tp637
F1
s(Vpt/pageturner.pl?id=eaf437&image=437edgb.jpg)
p638
V\u005c-
tp639
F1
s(Vmorning,
p640
Vin
tp641
F1
s(Vdelights
p642
Vwere
p643
tp644
F1
s(Vhis
p645
Vshaded
p646
tp647
F1
s(Vfeet.
p648
V`we
p649
tp650
F1
s(Vleading
p651
Vonward
p652
tp653
F1
s(Vthis
p654
Vdome,
p655
tp656
F1
s(Von
p657
Vthat
p658
tp659
F1
s(Vher
p660
Vheart,
p661
tp662
F1
s(g476
Vthat
p663
tp664
F2
s(g263
Vadam
tp665
F1
s(Vyou
p666
Valready
p667
tp668
F1
s(Vonce
p669
Vupon
p670
tp671
F1
s(Vlife;
p672
Vwhile
p673
tp674
F1
s(Vforrester.
p675
V`ye
p676
tp677
F1
s(Vdreadful
p678
Vvale!'
p679
tp680
F1
s(Vand
p681
g396
tp682
F4
s(Vthat
p683
g404
tp684
F2
s(Videa
p685
Vof
p686
tp687
F1
s(Vin
p688
Vher
p689
tp690
F1
s(Vthe
p691
Vbones
p692
tp693
F1
s(Vspirit,
p694
Vwhich
p695
tp696
F1
s(g344
Vchurch,
p697
tp698
F1
s(Vso
p699
Vstrangely
p700
tp701
F1
s(Vfront
Vedge.
p702
tp703
F1
s(Vsaid
p704
Vher
p705
tp706
F1
s(V-
Vreader.
p707
tp708
F1
s(Vjoyous
p709
Vtemple
p710
tp711
F1
s(Vthe
Vtemple
p712
tp713
F2
s(Vplanned
p714
Vsuch
tp715
F1
s(Vpt/pageturner.pl?id=eaf437&image=437-008.jpg)
p716
V\u005c-
tp717
F1
s(Va
g4
tp718
F1
s(Vand
p719
Vof
tp720
F1
s(Vlily
Vto
tp721
F1
s(Vthat
p722
Vloved
p723
tp724
F1
s(Vthroat;
p725
Vand
p726
tp727
F1
s(Vthe
Vsweet
p728
tp729
F1
s(g436
Vwrong
p730
tp731
F1
s(Vat
p732
Vleast,
p733
tp734
F1
s(Vand
Vjoy
p735
tp736
F1
s(Vand
p737
Vyet
p738
tp739
F1
s(Vknow
p740
Vwhatever
p741
tp742
F1
s(Vpreceding
p743
g262
tp744
F1
s(Vhis
p745
Vhead
p746
tp747
F1
s(g5
Vourselves?'
p748
tp749
F1
s(V]
V`not
p750
tp751
F1
s(Va
g483
tp752
F1
s(Vits
p753
Vstand,
p754
tp755
F1
s(Vthis
Vworld
p756
tp757
F1
s(Vlooking
p758
Vlike
tp759
F1
s(Vits
p760
Vbroad
p761
tp762
F1
s(Vspot
p763
Vhad
p764
tp765
F1
s(Vdisport
p766
Vitself,
p767
tp768
F1
s(Vearth
p769
Vhad
tp770
F1
s(Va
Vheart-broken
p771
tp772
F1
s(Vto
p773
Vcover
p774
tp775
F1
s(Vtreasure.
p776
Vbut
p777
tp778
F1
s(Vhours
p779
Vtogether
p780
tp781
F1
s(Vnot
Va
tp782
F2
s(g750
Vhere!'
p783
tp784
F1
s(Vhad
p785
Vhappened.
p786
tp787
F1
s(Voften
p788
Vgladdened
p789
tp790
F1
s(Vhis
p791
Vbloody
p792
tp793
F1
s(Vmore
p794
Vfortunate
p795
tp796
F1
s(Vlovers
Vas
tp797
F1
s(Va
Vtime,
p798
tp799
F1
s(Vvaulted
p800
Vdome;
p801
tp802
F1
s(Vwhich
p803
Vsorrow
p804
tp805
F1
s(Vgascoigne
p806
g171
tp807
F1
s(Vsome
p808
Vsoftened
p809
tp810
F1
s(Vhope
p811
Vand
p812
tp813
F2
s(Vwhich
Vhis
p814
tp815
F1
s(Vsweeter
p816
Vplace
p817
tp818
F1
s(Vhis
p819
Vvisage,
p820
tp821
F1
s(Vof
p822
Vearth---has
p823
tp824
F1
s(Vthat
p825
Vno
p826
tp827
F1
s(Vresting
p828
Von
p829
tp830
F1
s(Vone
p831
Vshape
p832
tp833
F1
s(Vtheir
Vdreary
p834
tp835
F1
s(Vform
p836
Vthe
tp837
F1
s(Vnook
p838
Vin
tp839
F1
s(Vnot
p840
Vso.
p841
tp842
F1
s(Vand
p843
Vfrowned;
p844
tp845
F1
s(Vlilias
p846
Vfay;
p847
tp848
F1
s(Vfay.'
p849
V`and
p850
tp851
F1
s(Vthe
p852
Vportal
p853
tp854
F2
s(Vpilgrim
p855
Vlovers
p856
tp857
F1
s(Vmistress,
p858
Vhe
p859
tp860
F1
s(Von
p861
Vthem;
p862
tp863
F1
s(Vbe
p864
Vthe
tp865
F1
s(Vother
p866
Vmortals
p867
tp868
F1
s(g492
Vsaid
p869
tp870
F1
s(Vcoffin
p871
Vdown.
p872
tp873
F1
s(Vnot
p874
Vblighted.'
p875
tp876
F1
s(Vinto
p877
Vthe
p878
tp879
F3
s(Vand
p880
Vever
p881
tp882
F1
s(Vthey
p883
Vset
p884
tp885
F1
s(Vand
p886
Von
p887
tp888
F1
s(Vlover's
p889
Varm,
p890
tp891
F1
s(g399
Vfuneral
p892
tp893
F1
s(Vbabble
p894
Vmerrily
p895
tp896
F1
s(Vspire
p897
Vin
p898
tp899
F1
s(Vmourners
p900
Vas
tp901
F1
s(Vof
p902
V[
tp903
F1
s(Vflee
p904
Vfrom
p905
tp906
F1
s(Vand
p907
Vweary,
p908
tp909
F1
s(Vhere,
p910
Vunder
p911
tp912
F1
s(g606
Vof
p913
tp914
F1
s(Vwhich
p915
Vbooks
p916
tp917
F1
s(Vthe
Vcliffs.
p918
tp919
F1
s(Vassociate,
p920
Vdeeming
p921
tp922
F1
s(Vindescribable
p923
Vconviction
p924
tp925
F1
s(Vthe
Vtime;
p926
tp927
F1
s(Vfaded
p928
Vfrom
p929
tp930
F1
s(Va
Vgirl
p931
tp932
F1
s(Vhis
p933
Vfunereal
p934
tp935
F1
s(Vthat
p936
Vsome
p937
tp938
F1
s(Vcircle
p939
Vof
p940
tp941
F1
s(Vfor
p942
Vour
p943
tp944
F1
s(Vgraceful
p945
Vpillars,
p946
tp947
F1
s(Vflitted
p948
Valong
p949
tp950
F1
s(Vafternoon,
p951
Vadam
p952
tp953
F1
s(Vfew
p954
Vof
tp955
F1
s(Vwhole
p956
g779
tp957
F1
s(Vearth,
p958
Vbeing
p959
tp960
F1
s(Vlovers,
p961
Vhow---not,
p962
tp963
F1
s(Vbreathed
p964
Va
tp965
F1
s(g158
g604
tp966
F1
s(Vto
p967
Va
tp968
F1
s(Vwhether
p969
Vthe
tp970
F1
s(Vthe
Vgloom
p971
tp972
F1
s(g658
g446
tp973
F1
s(Varms
p974
Vtowards
p975
tp976
F1
s(Vappeared
p977
Von
p978
tp979
F1
s(Vyears
p980
Vbefore,
p981
tp982
F1
s(Vever
p983
Vnew
p984
tp985
F1
s(g829
g351
tp986
F1
s(g308
Vyoung
tp987
F1
s(Vplayfellow,
p988
Vand
p989
tp990
F1
s(g921
Vit
p991
tp992
F1
s(Vmay
p993
Vbuild
p994
tp995
F1
s(Vwas
p996
Vas
p997
tp998
F1
s(Vtemple
p999
Vhere!'
p1000
tp1001
F1
s(Vtype,
p1002
Vadam
tp1003
F1
s(Vtheir
p1004
Vjoyous
p1005
tp1006
F1
s(Vthrow
p1007
Vthe
p1008
tp1009
F1
s(Vin
p1010
Vtheir
p1011
tp1012
F2
s(Vnot
p1013
Vbe
p1014
tp1015
F1
s(Vtemple!'
p1016
V`and
p1017
tp1018
F1
s(Vwas
p1019
Vin
tp1020
F1
s(V'
V`where
tp1021
F1
s(Vman
Vspake
p1022
tp1023
F1
s(V`where
p1024
Vin
p1025
tp1026
F3
s(Vno
p1027
Vlovelier
p1028
tp1029
F1
s(Vone
p1030
Vbreezy
p1031
tp1032
F1
s(Vwhat
p1033
Vwas
p1034
tp1035
F1
s(g106
Vevery
p1036
tp1037
F1
s(Vno
p1038
g225
tp1039
F1
s(Vsomething
p1040
Vof
tp1041
F1
s(Vago,
p1042
g866
tp1043
F1
s(Vpage
V306.
p1044
tp1045
F1
s(g741
Vevil
p1046
tp1047
F1
s(Vwith
p1048
Vthe
p1049
tp1050
F7
s(Vwas
p1051
Vfound
p1052
tp1053
F1
s(Vstill
p1054
Vglided
p1055
tp1056
F1
s(Vwonder!
p1057
Vdigging
p1058
tp1059
F1
s(Vof
p1060
g654
tp1061
F2
s(Vlily
p1062
Vdeemed
p1063
tp1064
F1
s(Vbe
p1065
Vstrewn.
p1066
tp1067
F1
s(Vsaw
p1068
Vthat
tp1069
F1
s(Vso
Vit
p1070
tp1071
F1
s(Vmillions---which
p1072
Vevery
p1073
tp1074
F1
s(Vhave
p1075
g666
tp1076
F1
s(Va
Vcoffin-pall,
p1077
tp1078
F1
s(Vfound
p1079
Vthemselves
p1080
tp1081
F1
s(Vhappened
p1082
Vthere.
p1083
tp1084
F1
s(g114
Vlo!
p1085
tp1086
F1
s(Va
g173
tp1087
F1
s(Vthey
Vhad
p1088
tp1089
F2
s(Vlessening
p1090
Vgleam
p1091
tp1092
F1
s(Vtaken
p1093
Vhis
p1094
tp1095
F1
s(g500
g622
tp1096
F1
s(V]
Vbut
p1097
tp1098
F1
s(Vpresent
p1099
Vmood
p1100
tp1101
F1
s(Vimage](http://etext.virginia.edu/cgi-local/chad-
Vpt/pageturner.pl?id=eaf437&image=437-007.jpg)
p1102
tp1103
F1
s(Vyou
p1104
Vwould
tp1105
F1
s(Vblight
p1106
Vinto
p1107
tp1108
F1
s(Vone
p1109
Vside,
p1110
tp1111
F1
s(Vnothing
p1112
Vthat
tp1113
F1
s(Vinscribed
p1114
Vwith
tp1115
F1
s(V`what!'
p1116
Vexclaimed
p1117
tp1118
F1
s(g456
Vto
p1119
tp1120
F1
s(V303.
p1121
V]
tp1122
F1
s(g8
Vit
tp1123
F1
s(g24
V-
tp1124
F18
s(Vanother
p1125
Vsite
tp1126
F1
s(Vunbidden
p1127
g254
tp1128
F1
s(Vquiet
p1129
Vcharm,
p1130
tp1131
F1
s(Vfell
p1132
Vblackened
p1133
tp1134
F1
s(Vthey
Vlowered
p1135
tp1136
F1
s(g558
g388
tp1137
F1
s(Vbe
Vlaid.
p1138
tp1139
F1
s(Vto
p1140
Vfall
p1141
tp1142
F1
s(Vprospect
p1143
Vof
tp1144
F1
s(Vfoam,
p1145
Vand
p1146
tp1147
F1
s(Vthey,
p1148
g438
tp1149
F1
s(Vlovers
Vhad
tp1150
F1
s(Vlong
p1151
Vtime,
p1152
tp1153
F1
s(Vsummer
p1154
Vhouse,
p1155
tp1156
F1
s(g1091
Vof
p1157
tp1158
F1
s(Vshattered
p1159
Voak,
p1160
tp1161
F1
s(g630
Vname
tp1162
F1
s(Vfoundation
p1163
g421
tp1164
F1
s(Vmortal
p1165
Vhas
p1166
tp1167
F1
s(Vcloudless
p1168
g951
tp1169
F1
s(g1157
Vlight.
p1170
tp1171
F1
s(Vcontinual
p1172
Vhaunt,
p1173
tp1174
F1
s(Velsewhere,
p1175
g15
tp1176
F1
s(Vdwell
p1177
Vtogether,
p1178
tp1179
F1
s(Vtrees,
p1180
Vwhich
p1181
tp1182
F1
s(g820
Vand
p1183
tp1184
F1
s(Vpossess
p1185
g165
tp1186
F1
s(Vhappiness.
Vseek
p1187
tp1188
F1
s(g226
Vdissent
p1189
tp1190
F1
s(Vviolet,
p1191
Vand
p1192
tp1193
F1
s(Vwere
p1194
Vdearer
p1195
tp1196
F1
s(V]
Vinarticulate
p1197
tp1198
F1
s(Vstream
Vyet
p1199
tp1200
F1
s(Vone,
p1201
g410
tp1202
F1
s(g777
Vstill
p1203
tp1204
F2
s(Vlunatic,
p1205
Vstanding
p1206
tp1207
F1
s(Vprime,
p1208
Vthe
p1209
tp1210
F1
s(Vyour
p1211
Vdream.'
p1212
tp1213
F1
s(Vof
p1214
Vour
p1215
tp1216
F3
s(Vthat,
p1217
Vin
p1218
tp1219
F1
s(Vthe
Vtale,
p1220
tp1221
F1
s(Vof
Vblood,'
p1222
tp1223
F1
s(Vthe
Vlittle
p1224
tp1225
F1
s(Vin
p1226
Vevery
p1227
tp1228
F1
s(Vpt/pageturner.pl?id=eaf437&image=437-002.jpg)
p1229
V\u005c-
tp1230
F1
s(Vgrave!'
p1231
Vbut,
p1232
tp1233
F1
s(g1130
Vwhich
tp1234
F1
s(Vmight
p1235
Vtake
p1236
tp1237
F1
s(Vway
p1238
g211
tp1239
F1
s(Vwas
p1240
Vtheir
p1241
tp1242
F1
s(g231
Vas
p1243
tp1244
F1
s(g1088
g557
tp1245
F1
s(Vfollowed
p1246
Vthem,
p1247
tp1248
F1
s(Vlooking
p1249
Vas
tp1250
F1
s(Vworld,
Vwhere
p1251
tp1252
F1
s(Vlong
p1253
Vmelody
p1254
tp1255
F1
s(Vwas
p1256
Vbearing
p1257
tp1258
F1
s(Vof
p1259
Vmagnificent
p1260
tp1261
F1
s(g349
V\u005c-
tp1262
F1
s(Vheavy
p1263
Vbrows.
p1264
tp1265
F1
s(Vand
p1266
g467
tp1267
F1
s(Vwhich
p1268
Vseemed
p1269
tp1270
F1
s(Va
g1159
tp1271
F1
s(Vtheir
p1272
Vfamiliar
p1273
tp1274
F1
s(g91
g904
tp1275
F1
s(V-
Vbottom
p1276
tp1277
F1
s(g265
Vman,
p1278
tp1279
F1
s(Vforrester
Vhad
tp1280
F2
s(Vhis
g858
tp1281
F1
s(Vwild
p1282
Vsimplicity
p1283
tp1284
F1
s(Vas
p1285
Vmourners
p1286
tp1287
F1
s(Vpage
g1121
tp1288
F1
s(Vhis
p1289
g974
tp1290
F1
s(g542
Vhopes
p1291
tp1292
F1
s(g111
Vstalked
p1293
tp1294
F1
s(Vlover
p1295
Vto
p1296
tp1297
F1
s(Va
g1057
tp1298
F1
s(Vthe
p1299
Vslab
tp1300
F1
s(Vever
p1301
g714
tp1302
F1
s(Vform,
p1303
Vby
p1304
tp1305
F1
s(Vfoot-print
p1306
Vof
p1307
tp1308
F1
s(Vand
p1309
Vmake
p1310
tp1311
F1
s(g1049
Vstrains
p1312
tp1313
F1
s(Vcentre
p1314
g1060
tp1315
F1
s(g599
g551
tp1316
F1
s(Vbe
p1317
g794
tp1318
F1
s(g844
Vand
tp1319
F1
s(g1278
Vmore
p1320
tp1321
F1
s(Vscatter
p1322
Vbrightness
p1323
tp1324
F1
s(Vand
p1325
Vbeneath
p1326
tp1327
F1
s(Va
Vblack
p1328
tp1329
F1
s(g905
Vthis
p1330
tp1331
F1
s(Vof
p1332
g616
tp1333
F1
s(Vfigure,
p1334
Vshe
p1335
tp1336
F1
s(Vthe
Vknoll,
p1337
tp1338
F1
s(Vgray
p1339
Vprecipices,
p1340
tp1341
F1
s(g1206
Vjust
p1342
tp1343
F1
s(g1340
Vwhich
p1344
tp1345
F1
s(g1251
Vye
p1346
tp1347
F1
s(g160
Van
p1348
tp1349
F1
s(Vwere
g532
tp1350
F1
s(Vpleasant
p1351
Vintercourse
p1352
tp1353
F1
s(g1077
g593
tp1354
F1
s(Va
g1129
tp1355
F1
s(g1296
g1317
tp1356
F3
s(Vand
p1357
Vwashed
p1358
tp1359
F1
s(Vhold
p1360
g1351
tp1361
F1
s(Vevil
p1362
g1201
tp1363
F1
s(Vthe
g855
tp1364
F1
s(Vshape,
p1365
Vthat
p1366
tp1367
F1
s(Vshadows
p1368
Vfell.
p1369
tp1370
F1
s(Vpast.
p1371
Vand
p1372
tp1373
F1
s(Vindeed!'
p1374
Vrepeated
p1375
tp1376
F1
s(Va
Vsimple
p1377
tp1378
F1
s(Vall
p1379
Vtheir
p1380
tp1381
F1
s(Vsmile
p1382
Vin
tp1383
F1
s(Vthat
p1384
Vhere
p1385
tp1386
F1
s(Vit
Van
p1387
tp1388
F1
s(g411
Vreceived
p1389
tp1390
F1
s(g1307
Vguilt
p1391
tp1392
F1
s(Vto
Vworship,
p1393
tp1394
F1
s(Vbe
g1114
tp1395
F1
s(g255
Vlooked
p1396
tp1397
F1
s(g867
Vbuilt
p1398
tp1399
F1
s(Vin
p1400
Va
tp1401
F3
s(Vbetween
p1402
Vthe
p1403
tp1404
F2
s(Vthat
p1405
Vquestion?'
p1406
tp1407
F1
s(Vthan
p1408
Vto
p1409
tp1410
F1
s(g402
g1301
tp1411
F1
s(Vspot,
p1412
g362
tp1413
F2
s(Vbeen
Vfound
p1414
tp1415
F1
s(Vfeatures
p1416
Vgrowing
p1417
tp1418
F1
s(Veach
p1419
g1090
tp1420
F1
s(g738
Vhis
p1421
tp1422
F1
s(Vcheerily
p1423
Vas
p1424
tp1425
F1
s(Vbut,
p1426
Vsetting
p1427
tp1428
F1
s(Vthat
p1429
g316
tp1430
F2
s(Vcase.
p1431
Vthe
tp1432
F1
s(V`this
p1433
g596
tp1434
F1
s(Valmost
p1435
Venough
p1436
tp1437
F1
s(Vof
p1438
Vfantasy.
p1439
tp1440
F1
s(g1417
Veven
p1441
tp1442
F1
s(g1414
Vdead,
p1443
tp1444
F1
s(Vthe
p1445
Vnext
p1446
tp1447
F1
s(Vwe
p1448
Vwill
p1449
tp1450
F1
s(Vaway,
p1451
Vand
tp1452
F2
s(Vimage](http://etext.virginia.edu/cgi-local/chad-
Vpt/pageturner.pl?id=eaf437&image=437-006.jpg)
p1453
tp1454
F1
s(Vheaviness
p1455
Vof
p1456
tp1457
F1
s(Vhis
p1458
Vsombre
p1459
tp1460
F1
s(Vbehind,
p1461
Va
tp1462
F1
s(Vhim.
p1463
V`joy!
p1464
tp1465
F1
s(g1232
Vas
tp1466
F1
s(Va
Vtomb,
p1467
tp1468
F2
s(Vthem;
p1469
g332
tp1470
F1
s(Vher
p1471
Vcheek
p1472
tp1473
F1
s(Vtheir
g1099
tp1474
F1
s(Vexhaling
p1475
Vaway,
tp1476
F1
s(g1241
Vpurpose
p1477
tp1478
F1
s(Vfigure
p1479
Vin
tp1480
F1
s(g661
Vthe
tp1481
F1
s(Vcarelessly
p1482
Vthrown
p1483
tp1484
F1
s(Vlovely
p1485
Vin
tp1486
F1
s(Vdreary
p1487
Vgascoigne
p1488
tp1489
F1
s(Vso
p1490
Vthey
p1491
tp1492
F1
s(g1330
g678
tp1493
F1
s(Vfriends;
p1494
Vthere
tp1495
F1
s(g363
Vgrief
p1496
tp1497
F1
s(Vseem
p1498
Va
tp1499
F1
s(Vmore
p1500
Vso
p1501
tp1502
F1
s(Vsport
p1503
g1438
tp1504
F1
s(Va
Vstrange
p1505
tp1506
F1
s(g1346
g993
tp1507
F1
s(Vof
p1508
Vthe
p1509
tp1510
F18
s(Vhis
p1511
Vfeet;
p1512
tp1513
F1
s(Vmarble,
p1514
Von
p1515
tp1516
F1
s(Vsable
p1517
Vcloak
p1518
tp1519
F1
s(Vstain;
p1520
Vor,
p1521
tp1522
F1
s(g122
Vthe
p1523
tp1524
F2
s(Vand
p1525
Vthere
p1526
tp1527
F1
s(Vof
p1528
g1180
tp1529
F1
s(g646
g1416
tp1530
F1
s(g748
V`poor
p1531
tp1532
F1
s(Van
p1533
Vapprehensive
p1534
tp1535
F1
s(Vas
Vyoung
p1536
tp1537
F1
s(Vunsuited
p1538
Vto
p1539
tp1540
F1
s(g1293
g1461
tp1541
F1
s(Vimage](http://etext.virginia.edu/cgi-local/chad-
Vpt/pageturner.pl?id=eaf437&image=437spin.jpg)
p1542
tp1543
F1
s(Vof
p1544
Vbliss,
p1545
tp1546
F1
s(g746
g843
tp1547
F2
s(Vstrips
p1548
Vof
p1549
tp1550
F1
s(Vlunatic
p1551
g1054
tp1552
F1
s(g425
Vparadise.
p1553
tp1554
F1
s(Vcover.
p1555
V]
tp1556
F2
s(V`yes,'
p1557
Vsaid
p1558
tp1559
F1
s(Vhand
p1560
Vthrough
p1561
tp1562
F1
s(Vfor
p1563
Vever
p1564
tp1565
F1
s(Vled
p1566
Vfrom
p1567
tp1568
F1
s(g949
Vlike
p1569
tp1570
F1
s(Vsave
p1571
Vto
p1572
tp1573
F1
s(Vhis
p1574
V[
tp1575
F1
s(Vproposed
p1576
g773
tp1577
F1
s(g583
V]
tp1578
F1
s(Vturned
p1579
g1533
tp1580
F1
s(Vto
p1581
Vdo,
p1582
tp1583
F1
s(Vof
p1584
g1365
tp1585
F1
s(Vthis
p1586
Vbeautiful
p1587
tp1588
F1
s(Vthe
p1589
Vglad
p1590
tp1591
F1
s(Vplanned
p1592
Vafter
p1593
tp1594
F1
s(Vpurpose
p1595
g942
tp1596
F1
s(Va
g335
tp1597
F1
s(g1220
Vit
p1598
tp1599
F1
s(Vvanishing
p1600
Vaway
tp1601
F1
s(g1178
g977
tp1602
F1
s(Vevery
p1603
g574
tp1604
F1
s(Vgascoigne.
p1605
V`here,
p1606
tp1607
F1
s(Vshadow
p1608
g39
tp1609
F1
s(Vforth,
p1610
V`you
p1611
tp1612
F1
s(Vmerely
p1613
Va
tp1614
F1
s(Vjust
p1615
Vbehind
tp1616
F1
s(Vheaven's
p1617
Vsunshine,
tp1618
F1
s(Vbeen
Vindeed
tp1619
F1
s(g1247
g1249
tp1620
F1
s(Vwas
Vthat
p1621
tp1622
F1
s(g377
Vface
p1623
tp1624
F1
s(Vblossom
p1625
Vof
p1626
tp1627
F1
s(Vsad
p1628
Vold
p1629
tp1630
F1
s(Vwoe,
p1631
g1217
tp1632
F1
s(Va
Vcontrast
p1633
tp1634
F1
s(Vthe
Vglimmering
p1635
tp1636
F1
s(g1170
Vwith
tp1637
F1
s(Va
Vformer
p1638
tp1639
F1
s(Vnow
Vtransplanted
p1640
tp1641
F1
s(Vpassed,
p1642
Vhand
p1643
tp1644
F1
s(g137
Vimage](http://etext.virginia.edu/cgi-local/chad-
p1645
tp1646
F18
s(Vworld,
p1647
g1051
tp1648
F1
s(Va
Vsense
p1649
tp1650
F1
s(Vthe
Vstream
p1651
tp1652
F2
s(Vgrowing
p1653
g1603
tp1654
F1
s(g814
Vinsanity
p1655
tp1656
F1
s(Vindeed
p1657
Va
tp1658
F2
s(Vas
p1659
Vpale.
p1660
tp1661
F1
s(g40
g167
tp1662
F1
s(Vtold
Vof
p1663
tp1664
F1
s(Vthat
p1665
Vspot
p1666
tp1667
F1
s(g198
g1322
tp1668
F1
s(Vforgotten
p1669
Vancestors
p1670
tp1671
F1
s(Vthe
p1672
Vchill
p1673
tp1674
F1
s(Vthe
p1675
Vgentle
p1676
tp1677
F1
s(Vdome
p1678
Vof
tp1679
F1
s(Vdome,
p1680
Vand
p1681
tp1682
F1
s(Vsolemn
p1683
Vbrows.
p1684
tp1685
F1
s(Vthe
p1686
g1362
tp1687
F1
s(V-
g582
tp1688
F1
s(Vinto
p1689
Vtheir
p1690
tp1691
F1
s(g1366
Vhad
p1692
tp1693
F2
s(Vhands
p1694
Vin
tp1695
F1
s(Va
Vfantasy
p1696
tp1697
F1
s(Vseek
p1698
Vall
p1699
tp1700
F1
s(Vlifeless,
p1701
g1445
tp1702
F1
s(g1283
Vof
p1703
tp1704
F1
s(g1189
Vfrom
tp1705
F1
s(Vand
p1706
g1145
tp1707
F1
s(Vpoetry
p1708
Vof
tp1709
F1
s(Vimage](http://etext.virginia.edu/cgi-local/chad-
Vpt/pageturner.pl?id=eaf437&image=437-012.jpg)
p1710
tp1711
F1
s(g498
Vthey
tp1712
F1
s(Vthither
p1713
g688
tp1714
F1
s(Vhis
p1715
g1263
tp1716
F1
s(Vavenue
p1717
g203
tp1718
F1
s(Vif
p1719
Verected
p1720
tp1721
F1
s(Vsuffering,
p1722
Vso
p1723
tp1724
F1
s(Vto
p1725
g740
tp1726
F1
s(g386
Vseemed
p1727
tp1728
F1
s(Vlamentable
p1729
g611
tp1730
F1
s(g142
Vanother,
p1731
tp1732
F1
s(Vforeboding
p1733
Vspirit
p1734
tp1735
F1
s(g1534
g241
tp1736
F1
s(Vhands?'
p1737
V`methinks
p1738
tp1739
F1
s(Vheavenward.
p1740
Vbut
tp1741
F1
s(Vlike
p1742
Va
tp1743
F1
s(Vcried
p1744
Vthe
p1745
tp1746
F1
s(Vcloak
p1747
g683
tp1748
F1
s(Vmake
p1749
Vthose
p1750
tp1751
F1
s(Vand
p1752
Vthe
p1753
tp1754
F7
s(g1391
Vor
p1755
tp1756
F1
s(g1651
Vwhich
p1757
tp1758
F1
s(Vthe
p1759
Vbosom
p1760
tp1761
F1
s(Vthe
Vsmile
p1762
tp1763
F1
s(g798
Vhad
p1764
tp1765
F1
s(g1483
g461
tp1766
F1
s(Vpage
V304.
p1767
tp1768
F1
s(g368
g373
tp1769
F1
s(Vhad
p1770
Va
tp1771
F2
s(Vshadow
p1772
g34
tp1773
F1
s(g1523
g961
tp1774
F1
s(Vwas
p1775
Vgrowing
p1776
tp1777
F1
s(Vthe
p1778
Vsummer
p1779
tp1780
F1
s(Vlike
p1781
Vroses
p1782
tp1783
F1
s(g46
Vwith
p1784
tp1785
F1
s(Vjoy,
p1786
Vbut
p1787
tp1788
F1
s(Vwatched
p1789
g567
tp1790
F2
s(Vdemeanor,
p1791
g1104
tp1792
F1
s(g801
g1325
tp1793
F1
s(Va
Vday
p1794
tp1795
F1
s(Vthey
p1796
Vmeant
p1797
tp1798
F1
s(Vsoul,
p1799
Vin
p1800
tp1801
F1
s(Vflit
p1802
Vaway
p1803
tp1804
F1
s(g1073
Vchild
p1805
tp1806
F1
s(g1626
Vlife,
p1807
tp1808
F1
s(Vhad
p1809
g443
tp1810
F2
s(Vhis
g304
tp1811
F1
s(g1807
Vhad
tp1812
F1
s(Vmother
p1813
Vearth;
p1814
tp1815
F1
s(g32
Vdeath
p1816
tp1817
F1
s(Vsoul
p1818
Vits
p1819
tp1820
F1
s(g495
g1642
tp1821
F1
s(Vso
p1822
Vdid
p1823
tp1824
F1
s(g1805
g822
tp1825
F1
s(g1703
Vnature.
p1826
tp1827
F1
s(Vwere
p1828
Vvistas
p1829
tp1830
F1
s(Vinto
p1831
Va
tp1832
F1
s(Vwork
p1833
Vas
p1834
tp1835
F1
s(Vbut
p1836
Vtheir
p1837
tp1838
F1
s(Vfragile,
p1839
Vand
p1840
tp1841
F1
s(g527
g1625
tp1842
F1
s(Vimage](http://etext.virginia.edu/cgi-local/chad-
g716
tp1843
F1
s(Van
p1844
Vantique
p1845
tp1846
F2
s(g340
g179
tp1847
F1
s(Vthat
p1848
Valone.
p1849
tp1850
F1
s(Va
Vtemple
tp1851
F1
s(Vif
Vhe
tp1852
F1
s(Vonward
p1853
g877
tp1854
F1
s(g1085
Va
tp1855
F1
s(Von
p1856
Vhis
p1857
tp1858
F1
s(g552
g51
tp1859
F1
s(Vimagined
p1860
Vthat,
p1861
tp1862
F1
s(g338
Vspot,
tp1863
F1
s(Vdown
p1864
Vthe
p1865
tp1866
F1
s(Va
Vcreature
p1867
tp1868
F1
s(Vthe
p1869
g1487
tp1870
F1
s(V`and
p1871
Vso,'
p1872
tp1873
F1
s(Vpaternal
p1874
g385
tp1875
F1
s(g459
g1299
tp1876
F1
s(Vthe
g1062
tp1877
F7
s(Vtoken
p1878
g1384
tp1879
F1
s(Vhad
p1880
Vtold
tp1881
F1
s(g1439
g1557
tp1882
F1
s(Vthe
g1143
tp1883
F1
s(Vsunshine
p1884
Vbroke
p1885
tp1886
F1
s(Vsometimes
p1887
Vmaddened
p1888
tp1889
F1
s(Vlovelier
p1890
Vspots
p1891
tp1892
F1
s(Vno
p1893
Vvirgin
p1894
tp1895
F1
s(Vsad
g1791
tp1896
F1
s(Vof
p1897
Vmind.
p1898
tp1899
F1
s(g86
g1368
tp1900
F1
s(Vinestimable
p1901
g776
tp1902
F1
s(Vshould
p1903
Vwe
p1904
tp1905
F2
s(Vand
p1906
g1653
tp1907
F1
s(Vwas
p1908
Vmade
p1909
tp1910
F1
s(Vshape
p1911
Vof
tp1912
F1
s(Vthe
p1913
g1314
tp1914
F1
s(g77
Vbeing
p1915
tp1916
F2
s(Vsupporting
p1917
Va
tp1918
F1
s(Vdistant
p1919
Vlake
p1920
tp1921
F1
s(g352
Vwhich
p1922
tp1923
F1
s(Vdirection,
p1924
g719
tp1925
F1
s(Vgive
p1926
Vfestivals
p1927
tp1928
F1
s(Vpermit
p1929
Vtheir
p1930
tp1931
F1
s(Vimage](http://etext.virginia.edu/cgi-local/chad-
g638
tp1932
F1
s(Vfollowed,
p1933
Vbut
p1934
tp1935
F1
s(Vsite
p1936
Vfor
p1937
tp1938
F2
s(Vis
p1939
Vthe
p1940
tp1941
F1
s(g563
g880
tp1942
F1
s(g1764
Vplanned
p1943
tp1944
F1
s(Vthrew
p1945
g529
tp1946
F1
s(Vup,
p1947
Vand
p1948
tp1949
F1
s(Vhad
p1950
g1082
tp1951
F1
s(Vthe
p1952
Vvictim's
p1953
tp1954
F1
s(Vlightsome
p1955
g1680
tp1956
F1
s(Vto
p1957
Vcluster
p1958
tp1959
F1
s(Vits
p1960
Vbirth
p1961
tp1962
F1
s(Vdedication.
p1963
Von
tp1964
F1
s(g1845
g620
tp1965
F1
s(Vnurse
p1966
g1010
tp1967
F1
s(g847
Vand
tp1968
F1
s(Vthe
Vgroup,
p1969
tp1970
F1
s(Va
Vgroup
p1971
tp1972
F1
s(Vthat
p1973
Vthe
tp1974
F6
s(Vthe
p1975
g1548
tp1976
F1
s(Vpossible
p1977
g936
tp1978
F1
s(V`we
p1979
Vmight
p1980
tp1981
F1
s(Vthat
p1982
Vhe
p1983
tp1984
F1
s(Va
Vshrine;
p1985
tp1986
F1
s(Vlily
Vhad
tp1987
F1
s(Vits
p1988
Vspirit
p1989
tp1990
F1
s(Vfay's
p1991
g1874
tp1992
F1
s(Vher
p1993
Vform
p1994
tp1995
F1
s(Vof
g541
tp1996
F1
s(Vwas
p1997
g1592
tp1998
F1
s(g1681
g758
tp1999
F1
s(Vbliss
p2000
Vof
tp2001
F1
s(Vslender
p2002
Vand
p2003
tp2004
F1
s(g1826
V[
tp2005
F1
s(Vit
p2006
Vseemed
p2007
tp2008
F1
s(Vcast
p2009
Vtheir
tp2010
F1
s(Vto
p2011
Vsee
p2012
tp2013
F1
s(Vstructure
p2014
Vof
tp2015
F1
s(Vleaf.
p2016
V]
tp2017
F1
s(Van
p2018
Vapologue.
p2019
tp2020
F1
s(Vand
p2021
g954
tp2022
F1
s(g1467
Vand
tp2023
F2
s(V`yet
p2024
Vthere
p2025
tp2026
F1
s(Vdeath-shrieks
p2027
Vwere
p2028
tp2029
F1
s(Vhardly
p2030
g1977
tp2031
F1
s(g1762
Vthat
p2032
tp2033
F1
s(g1396
Vas
p2034
tp2035
F2
s(g1080
Vin
tp2036
F1
s(g1326
g1913
tp2037
F3
s(g712
Varose
p2038
tp2039
F1
s(Vlife-time,'
p2040
Vsaid
tp2041
F1
s(Vtemple,
p2042
g1429
tp2043
F1
s(Vforrester,
p2044
g1979
tp2045
F1
s(Vin
p2046
Vour
p2047
tp2048
F1
s(Vhand
p2049
Vhad
tp2050
F1
s(Vcried
p2051
Vold
p2052
tp2053
F2
s(Vthey
p2054
g948
tp2055
F1
s(Vtale
p2056
Vof
tp2057
F1
s(Valthough,
p2058
Vmaking
p2059
tp2060
F1
s(Vof
p2061
Vwonder,
p2062
tp2063
F1
s(Vin
p2064
Vadam's
p2065
tp2066
F1
s(g145
g1828
tp2067
F1
s(g1816
Vwas
p2068
tp2069
F1
s(Vone
p2070
g1924
tp2071
F1
s(g1542
V\u005c-
tp2072
F1
s(V]
Va
tp2073
F1
s(g1937
Vtheir
p2074
tp2075
F2
s(Vthere
p2076
Vhad
tp2077
F1
s(Vchild!'
p2078
g704
tp2079
F1
s(Vmurmured
p2080
Vtheir
p2081
tp2082
F1
s(Vpt/pageturner.pl?id=eaf437&image=437-005.jpg)
p2083
V\u005c-
tp2084
F1
s(Vtheir
g243
tp2085
F1
s(Vthe
g1678
tp2086
F1
s(g1755
Vsorrow,
p2087
tp2088
F1
s(Vwere
p2089
Vseeking,
p2090
tp2091
F1
s(g633
g969
tp2092
F1
s(Vminds
p2093
Vto
p2094
tp2095
F1
s(g670
Va
tp2096
F4
s(g1934
Vwished
p2097
tp2098
F1
s(Vthe
g743
tp2099
F1
s(Vhappiness
p2100
Vthan
p2101
tp2102
F1
s(Vglance
p2103
Vlike
p2104
tp2105
F1
s(Vfireside,
p2106
Vand
p2107
tp2108
F1
s(g1152
g2006
tp2109
F1
s(g201
Vperceived
p2110
tp2111
F1
s(Vof
g1901
tp2112
F1
s(Vour
p2113
g238
tp2114
F3
s(g1312
Vof
p2115
tp2116
F1
s(Vout
p2117
Vof
tp2118
F1
s(Vby
p2119
Vlightning,
p2120
tp2121
F1
s(Vlong
p2122
Vlabored
p2123
tp2124
F1
s(g826
g709
tp2125
F1
s(Vlittle
p2126
g1154
tp2127
F1
s(Vpage
V300.
p2128
tp2129
F1
s(g1409
Vconvert
p2130
tp2131
F1
s(g1472
Valmost
p2132
tp2133
F1
s(g817
g310
tp2134
F1
s(Vfiction,
p2135
Vand
p2136
tp2137
F1
s(Varms.
p2138
g1869
tp2139
F1
s(g311
g127
tp2140
F1
s(Vpair,
p2141
Vthere
p2142
tp2143
F1
s(g2074
Vtemple
p2144
tp2145
F3
s(g1335
Vwas
p2146
tp2147
F1
s(g1218
Vforgotten
p2148
tp2149
F1
s(g1696
Vamong
tp2150
F1
s(Va
g249
tp2151
F1
s(Vtheir
Vairy
p2152
tp2153
F1
s(Vin
p2154
Veach
p2155
tp2156
F1
s(g663
Vpleased
p2157
tp2158
F1
s(Vlightsome
p2159
Vmusic,
p2160
tp2161
F1
s(g1406
Vsaid
p2162
tp2163
F1
s(Vlilias
p2164
g1991
tp2165
F1
s(g16
Va
tp2166
F1
s(g273
Valthough
p2167
tp2168
F1
s(Vwinged
p2169
Vcreatures
p2170
tp2171
F1
s(g767
g1309
tp2172
F1
s(Vundistinguished
p2173
Vby
p2174
tp2175
F1
s(g347
Vbeing
p2176
tp2177
F1
s(Vgardens,
p2178
Vbut
p2179
tp2180
F1
s(Vart;
p2181
Vand
tp2182
F1
s(V`well,
p2183
Vthere
p2184
tp2185
F1
s(g1046
Vand
p2186
tp2187
F1
s(Vwhich
p2188
Vlife
p2189
tp2190
F1
s(g655
Vupon
tp2191
F1
s(g702
V]
tp2192
F2
s(g1031
Vand
p2193
tp2194
F1
s(g195
Vthe
p2195
tp2196
F1
s(Vthan
p2197
Vall
p2198
tp2199
F1
s(Vdark-veined
Vmarble
p2200
tp2201
F1
s(g1141
Vupon
tp2202
F1
s(Vto
p2203
g1463
tp2204
F1
s(Vgascoigne,
p2205
V`is
p2206
tp2207
F1
s(Vand
p2208
g1132
tp2209
F1
s(Vprophecy
p2210
Vof
p2211
tp2212
F1
s(Vgladsome
p2213
Vfoliage
p2214
tp2215
F1
s(Vwhich
p2216
Vmake
p2217
tp2218
F1
s(Vshadows
p2219
g407
tp2220
F1
s(Vattention
p2221
Vto
tp2222
F1
s(Vthe
Vportal,
p2223
tp2224
F1
s(g875
g1490
tp2225
F1
s(Vyouthful
p2226
g2141
tp2227
F1
s(g1649
g2061
tp2228
F1
s(g389
Va
tp2229
F1
s(Vtime
p2230
Vit
tp2231
F1
s(Vgleam
p2232
g1610
tp2233
F1
s(g602
g1945
tp2234
F1
s(Valmost
p2235
g601
tp2236
F1
s(g1969
Vwith
p2237
tp2238
F1
s(Vplace
p2239
Vwhere
p2240
tp2241
F1
s(Vthat
Vlooked
p2242
tp2243
F1
s(Vinnocent
p2244
Venjoyments.
p2245
tp2246
F1
s(g2087
Vto
p2247
tp2248
F1
s(g1553
Vbut
p2249
tp2250
F1
s(Vhere
p2251
g1939
tp2252
F1
s(Vwith
p2253
Vbright
p2254
tp2255
F1
s(g1273
g1494
tp2256
F1
s(g2214
Varound
p2257
tp2258
F1
s(g959
g488
tp2259
F1
s(Vof
p2260
Vdarkest
p2261
tp2262
F1
s(Vyoung
p2263
Vpilgrims
p2264
tp2265
F2
s(g916
g354
tp2266
F1
s(g578
Vthe
p2267
tp2268
F3
s(Vwhen
p2269
g933
tp2270
F1
s(Vdue
p2271
g2230
tp2272
F1
s(Va
Vtomb
p2273
tp2274
F1
s(g1224
Vstream,
p2275
tp2276
F1
s(Vspectacle,
p2277
Vfit
p2278
tp2279
F1
s(Vears,'
p2280
Vsaid
p2281
tp2282
F1
s(Vgrowth
p2283
Vof
tp2284
F1
s(g484
Vripple,
p2285
tp2286
F1
s(Vhad
p2287
Vbeen
p2288
tp2289
F8
s(Von
p2290
Vanother.
p2291
tp2292
F1
s(g286
g1246
tp2293
F1
s(Vthe
p2294
Vvague
p2295
tp2296
F1
s(Vburthen
p2297
Vof
tp2298
F2
s(Vsaid
p2299
Vshe.
p2300
tp2301
F1
s(Vpoisoning
p2302
g1379
tp2303
F1
s(g358
Vall
tp2304
F1
s(g474
Vof
p2305
tp2306
F1
s(Vno
p2307
g1306
tp2308
F1
s(Vto
p2309
Vconsecrate
p2310
tp2311
F1
s(g188
Vto
p2312
tp2313
F1
s(Vcould;
p2314
V`we
p2315
tp2316
F1
s(g252
Vof
p2317
tp2318
F1
s(g1865
g1717
tp2319
F1
s(Vrepeating,
p2320
V`where
tp2321
F1
s(Vgreen
p2322
g10
tp2323
F1
s(g1192
Vgold
p2324
tp2325
F1
s(Vhad
p2326
g1960
tp2327
F1
s(Vwear,
p2328
Vdrooping
p2329
tp2330
F1
s(Vthe
p2331
Vsame
p2332
tp2333
F1
s(Vof
Vearthly
p2334
tp2335
F2
s(g544
g2299
tp2336
F1
s(g125
Vuttered
p2337
tp2338
F1
s(g1227
Vformer
p2339
tp2340
F1
s(g1545
Vand
p2341
tp2342
F1
s(g1920
Vin
p2343
tp2344
F1
s(Vlilias
p2345
g849
tp2346
F1
s(Vat
p2347
Vtheir
p2348
tp2349
F2
s(g1971
g1528
tp2350
F1
s(Vwas
Vfinished,
p2351
tp2352
F1
s(Vthis
p2353
Vexclamation,
p2354
tp2355
F1
s(g1909
Von
p2356
tp2357
F1
s(Vrocky
p2358
Vdell,
p2359
tp2360
F1
s(Vpretty
p2361
Vname
p2362
tp2363
F1
s(g299
V297.
p2364
tp2365
F1
s(g314
Vfind
p2366
tp2367
F1
s(Vomen
p2368
Vat
tp2369
F1
s(g1943
Va
tp2370
F1
s(Va
g291
tp2371
F1
s(Vpure
p2372
Vfrom
tp2373
F1
s(Vor
p2374
g1722
tp2375
F1
s(Vwould
p2376
Vhave
p2377
tp2378
F2
s(Vlong
p2379
Vago.
p2380
tp2381
F1
s(g1403
g2263
tp2382
F3
s(g239
g1836
tp2383
F1
s(Vand
p2384
g635
tp2385
F1
s(g428
Vdead
p2386
tp2387
F1
s(Vwith
p2388
g205
tp2389
F1
s(g1655
Vwas
tp2390
F1
s(g636
Vher
p2391
tp2392
F3
s(Vspot.'
p2393
g883
tp2394
F1
s(Vinfluences
p2395
g2188
tp2396
F1
s(Va
Vnew-born
p2397
tp2398
F1
s(V298.
p2399
V]
tp2400
F1
s(Vchild,
p2401
g2388
tp2402
F1
s(Vscattered
p2403
Vstones,
p2404
tp2405
F1
s(Vof
p2406
Vgenerations
p2407
tp2408
F1
s(Vbut
p2409
Van
tp2410
F1
s(Vyet
p2411
g788
tp2412
F1
s(g1561
g672
tp2413
F1
s(Vhad
p2414
g590
tp2415
F1
s(Vdespondingly,
p2416
g416
tp2417
F1
s(Vshrubbery
p2418
Vrooted
p2419
tp2420
F1
s(Vrear
p2421
Vtheir
p2422
tp2423
F1
s(Vits
p2424
Vinmates,
p2425
tp2426
F1
s(g260
g2122
tp2427
F2
s(Vimage](http://etext.virginia.edu/cgi-local/chad-
g1229
tp2428
F1
s(Vmiserably
p2429
Vsad,
p2430
tp2431
F1
s(Vyours!'
p2432
g1116
tp2433
F1
s(Vof
p2434
g1799
tp2435
F1
s(g2155
Vother's
p2436
tp2437
F1
s(Vwhen
p2438
Vthey
p2439
tp2440
F1
s(Vmaiden's
p2441
Vdust,
p2442
tp2443
F1
s(Vthree
p2444
Vhad
p2445
tp2446
F1
s(Vhe
p2447
g1860
tp2448
F1
s(Vramble
p2449
Vover
p2450
tp2451
F1
s(g360
Vof
tp2452
F1
s(g289
V[
tp2453
F1
s(g1323
Vwhere
p2454
tp2455
F1
s(g511
Vconnect
p2456
tp2457
F1
s(g1393
g2290
tp2458
F1
s(Vbrook
p2459
Vwill
p2460
tp2461
F1
s(g2062
g2011
tp2462
F1
s(g735
g2326
tp2463
F1
s(Vmausoleum,
p2464
Vand
tp2465
F1
s(Vthe
p2466
Vtemple,
p2467
tp2468
F3
s(g1094
g130
tp2469
F1
s(Vto
p2470
Vblight
p2471
tp2472
F1
s(g244
Vpure
p2473
tp2474
F1
s(Vwide
p2475
g382
tp2476
F1
s(g1767
V]
tp2477
F1
s(Vdismal
p2478
g1911
tp2479
F1
s(Vold
p2480
Vcreature
p2481
tp2482
F1
s(Vthey
p2483
Vrambled
p2484
tp2485
F1
s(Vvoice,
p2486
Vas
tp2487
F1
s(Vit,
p2488
Vto
p2489
tp2490
F1
s(Vand
g1256
tp2491
F2
s(Vbuild
p2492
g2113
tp2493
F4
s(Vknoll,
p2494
g2320
tp2495
F1
s(g1014
Vrecorded
p2496
tp2497
F1
s(Vspot!'
p2498
g1744
tp2499
F1
s(g108
g79
tp2500
F1
s(Vwild
p2501
Vretreat,
p2502
tp2503
F1
s(g2419
Vitself
p2504
tp2505
F1
s(g1199
g2372
tp2506
F1
s(g832
g105
tp2507
F1
s(Vlily
Vand
tp2508
F2
s(Va
Vmelancholy
p2509
tp2510
F1
s(Vtheir
p2511
g1127
tp2512
F1
s(Vintended
p2513
Vfor
tp2514
F1
s(Vthe
p2515
Vlovers
p2516
tp2517
F4
s(g707
V]
tp2518
F1
s(g2404
Vthe
p2519
tp2520
F1
s(Vat
p2521
Vlast
p2522
tp2523
F1
s(g1052
g1701
tp2524
F1
s(Vthe
Vsummit
p2525
tp2526
F2
s(Vhave
p2527
Vfound
tp2528
F1
s(g2130
Vthis
p2529
tp2530
F1
s(g2422
g1955
tp2531
F1
s(g1512
Vhere,
tp2532
F1
s(g1310
Vevery
p2533
tp2534
F1
s(V]
Vtwo
p2535
tp2536
F1
s(g1663
g1112
tp2537
F1
s(Vno
p2538
g999
tp2539
F1
s(Vand
p2540
g2135
tp2541
F1
s(g2068
Vopened
p2542
tp2543
F1
s(g155
Vpoetry
p2544
tp2545
F1
s(g1794
Vappointed
p2546
tp2547
F1
s(g2310
Vto
p2548
tp2549
F1
s(g1782
Vamong
p2550
tp2551
F1
s(Vvelvet
p2552
g1747
tp2553
F1
s(g276
Va
tp2554
F1
s(g119
g1772
tp2555
F1
s(g872
g1871
tp2556
F1
s(Vwas
g2513
tp2557
F1
s(Vif
p2558
Vmoulded
p2559
tp2560
F1
s(Va
g2210
tp2561
F1
s(g465
g31
tp2562
F1
s(g686
Vjoy
p2563
tp2564
F1
s(Vpriestess
p2565
Vfor
p2566
tp2567
F1
s(g163
g1148
tp2568
F1
s(g192
Vappertain
p2569
tp2570
F1
s(g209
Vwhy
p2571
tp2572
F1
s(Vwas
p2573
Vaccepted
p2574
tp2575
F1
s(Vhis
p2576
g110
tp2577
F1
s(Vroaming
p2578
Vhand
tp2579
F1
s(g29
Vinscrutable
p2580
tp2581
F1
s(Vstricken
p2582
g2119
tp2583
F1
s(Vout
p2584
g2294
tp2585
F1
s(g1459
Vhat
p2586
tp2587
F1
s(g1358
g791
tp2588
F1
s(Vpathways,
p2589
g651
tp2590
F1
s(Vthe
g2106
tp2591
F1
s(Vshadows
p2592
Vof
tp2593
F1
s(Vthe
g2459
tp2594
F1
s(V`and
p2595
Vsee!'
p2596
tp2597
F1
s(Vpage
g618
tp2598
F1
s(Vand
Vnow
p2599
tp2600
F1
s(g1491
Vhastened
p2601
tp2602
F1
s(Vwhich
p2603
Vthe
tp2604
F2
s(g2128
V]
tp2605
F1
s(Vthe
Vnames
p2606
tp2607
F1
s(Vsorts
p2608
g1259
tp2609
F1
s(g2206
Vthe
tp2610
F1
s(g2317
g1884
tp2611
F1
s(g1940
g2498
tp2612
F1
s(Vspot
p2613
Vwhere
p2614
tp2615
F1
s(Vheard
p2616
Vto
p2617
tp2618
F1
s(Vwould
p2619
g1498
tp2620
F1
s(Vthe
Vsetting
p2621
tp2622
F1
s(g468
Vdeep
p2623
tp2624
F1
s(Vand
p2625
g2589
tp2626
F1
s(Va
Vsepulchre.
p2627
tp2628
F1
s(Vof
p2629
g1988
tp2630
F2
s(g2242
g1485
tp2631
F1
s(g1787
Va
tp2632
F1
s(Vearth,
p2633
Vsuch
tp2634
F1
s(g1629
Vcompanion,
p2635
tp2636
F1
s(Vforrester
p2637
g681
tp2638
F3
s(Vtemple's
p2639
Vmarble
tp2640
F1
s(Vsoon
p2641
g1079
tp2642
F1
s(g1757
Vsang
p2643
tp2644
F1
s(g1564
Vat
tp2645
F1
s(Vdreamed
p2646
g1211
tp2647
F1
s(g2627
g449
tp2648
F1
s(Vwhich
p2649
Vran
p2650
tp2651
F1
s(Vwere
p2652
Vthe
tp2653
F1
s(g319
g1725
tp2654
F1
s(Vearth,
p2655
Vthough
p2656
tp2657
F1
s(Vhousehold
p2658
Vmirth.
p2659
tp2660
F1
s(Vwherein
p2661
Vthe
tp2662
F1
s(Va
Vprofusion
p2663
tp2664
F1
s(Vit.'
p2665
Vwhile
p2666
tp2667
F1
s(Vcoffin,
p2668
Vthey
p2669
tp2670
F1
s(g761
g147
tp2671
F1
s(Vthe
g285
tp2672
F1
s(g809
Vglory
p2673
tp2674
F1
s(g649
Vwill
tp2675
F1
s(Vto
g549
tp2676
F1
s(g1155
Vin
p2677
tp2678
F1
s(Vdelight
p2679
Vto
p2680
tp2681
F1
s(g169
Va
tp2682
F1
s(Vby
p2683
Vtheir
tp2684
F1
s(Vto
p2685
g2421
tp2686
F1
s(Vin
p2687
g1574
tp2688
F1
s(Vthe
g1647
tp2689
F1
s(g774
Vwith
tp2690
F1
s(g1488
Vhad
tp2691
F1
s(g397
Vset
p2692
tp2693
F1
s(g1699
g313
tp2694
F1
s(g2257
Vtheir
p2695
tp2696
F1
s(g2337
g2353
tp2697
F1
s(Vposterity."
p2698
g1024
tp2699
F1
s(g823
Vtried
p2700
tp2701
F1
s(g1692
Vperhaps
p2702
tp2703
F1
s(g692
g2406
tp2704
F1
s(V`this
p2705
Vglen
p2706
tp2707
F1
s(Vbeen
p2708
g48
tp2709
F1
s(Vfling
p2710
g288
tp2711
F1
s(Vthe
g546
tp2712
F1
s(Vwalter
g806
tp2713
F1
s(g2544
g2540
tp2714
F1
s(Vthe
Vchief
p2715
tp2716
F2
s(g2324
Vof
tp2717
F1
s(g2366
g1027
tp2718
F1
s(Vthey
p2719
Vwere
tp2720
F3
s(Vwith
p2721
g275
tp2722
F1
s(g1994
g996
tp2723
F1
s(g1135
Vthe
p2724
tp2725
F1
s(Vhad
Vsome
p2726
tp2727
F1
s(g2275
g1268
tp2728
F1
s(g1593
g219
tp2729
F1
s(Vchief
g1479
tp2730
F1
s(g1526
Vagain
p2731
tp2732
F1
s(Vmade
p2733
g1665
tp2734
F1
s(g2132
g1659
tp2735
F1
s(Vof
p2736
g376
tp2737
F1
s(Vwoman,
p2738
Vkneeling
p2739
tp2740
F1
s(g1753
g939
tp2741
F1
s(Vman's
p2742
Vtaunting
p2743
tp2744
F1
s(g223
Vfrom
tp2745
F1
s(Va
Vdark-clad
p2746
tp2747
F1
s(g1803
g367
tp2748
F2
s(Vher
p2749
g1947
tp2750
F1
s(Vspine.
p2751
V]
tp2752
F1
s(Vhappiness!
p2753
g2687
tp2754
F1
s(Vhappy
p2755
g2277
tp2756
F1
s(Vdelicate,
p2757
g1906
tp2758
F1
s(g1352
g141
tp2759
F1
s(g2746
Vguest
p2760
tp2761
F1
s(g2198
Vthose
p2762
tp2763
F1
s(g2481
Vhad
p2764
tp2765
F1
s(Vshade;
p2766
g2054
tp2767
F1
s(Vwas
p2768
Va
tp2769
F6
s(Vshook
p2770
g745
tp2771
F1
s(g2312
Vreceive
p2772
tp2773
F1
s(g2669
Vbeheld
p2774
tp2775
F1
s(Vsombre
p2776
Vhat,
p2777
tp2778
F1
s(g2334
g1786
tp2779
F1
s(Va
g1151
tp2780
F1
s(Vlily,
p2781
Vbecause
p2782
tp2783
F1
s(Va
g2358
tp2784
F1
s(Vand
p2785
Valways
p2786
tp2787
F1
s(Vground,
p2788
Vthey
p2789
tp2790
F1
s(g330
Vwrapt
p2791
tp2792
F1
s(Vhad
g1093
tp2793
F2
s(g1464
Vjoy!'
p2794
tp2795
F1
s(g771
g2738
tp2796
F1
s(Vvery
g478
tp2797
F1
s(g911
Va
tp2798
F1
s(g2332
Vtime
p2799
tp2800
F1
s(g892
g554
tp2801
F1
s(Vexclaimed
p2802
Vadam
tp2803
F1
s(g2362
Vof
p2804
tp2805
F2
s(Vwords;
p2806
Vfor
p2807
tp2808
F1
s(Vanswer
p2809
Vto
tp2810
F1
s(g1215
Vtemple?'
p2811
tp2812
F2
s(g1269
Vlike
p2813
tp2814
F1
s(g1983
g2287
tp2815
F3
s(Vinvisible.
p2816
Vhis
p2817
tp2818
F1
s(Vtheir
p2819
Vcompanion,
p2820
tp2821
F1
s(V299.
p2822
V]
tp2823
F1
s(g148
g1715
tp2824
F1
s(g1008
Vsunny
p2825
tp2826
F1
s(g524
g184
tp2827
F1
s(Vits
Vmother's
p2828
tp2829
F1
s(g180
Vand
tp2830
F1
s(Vleaning
p2831
g956
tp2832
F1
s(Vtrembled
p2833
g2384
tp2834
F1
s(Vof
p2835
g1813
tp2836
F1
s(Vfound
p2837
Vthe
tp2838
F1
s(g2606
g1332
tp2839
F1
s(g1097
Vthe
p2840
tp2841
F2
s(g1028
Vspot.
p2842
tp2843
F1
s(g2052
Vwalter
p2844
tp2845
F3
s(g689
g2668
tp2846
F1
s(g1058
Va
tp2847
F1
s(Vsubstance
p2848
g45
tp2849
F1
s(g1673
Vwinds
p2850
tp2851
F1
s(Vlily,
p2852
Vsighing.
p2853
tp2854
F1
s(Vnow,
p2855
g2683
tp2856
F1
s(g1372
g2855
tp2857
F1
s(Vmarble.
p2858
g1672
tp2859
F1
s(g1212
Vthen
p2860
tp2861
F1
s(Vmurdered
p2862
Vher,
p2863
tp2864
F1
s(g1260
Vdreams
p2865
tp2866
F1
s(Vat
p2867
Vheart,
p2868
tp2869
F1
s(g2794
Vhe
p2870
tp2871
F1
s(g2019
V[
tp2872
F1
s(g859
Vlooked
p2873
tp2874
F1
s(g2715
Vjoy
p2875
tp2876
F1
s(g462
g200
tp2877
F1
s(g869
Vthe
p2878
tp2879
F1
s(Vour
g2040
tp2880
F1
s(g929
Vher
p2881
tp2882
F1
s(g1643
Vin
p2883
tp2884
F2
s(Valas,
p2885
Vfor
tp2886
F1
s(Va
Vfiendish
p2887
tp2888
F1
s(g2677
Vthe
p2889
tp2890
F9
s(g2184
Vare
p2891
tp2892
F1
s(Vnot
p2893
Vgone
p2894
tp2895
F1
s(g279
g2538
tp2896
F1
s(g1590
Vsong
p2897
tp2898
F1
s(g1291
g1831
tp2899
F1
s(g536
Vbrows.
tp2900
F1
s(g1209
Vfairy
p2901
tp2902
F1
s(V`come,
p2903
Vthen,'
p2904
tp2905
F1
s(g2341
g2511
tp2906
F2
s(g1181
g2235
tp2907
F1
s(Vour
p2908
Vhappiness
p2909
tp2910
F1
s(Va
g838
tp2911
F1
s(g1985
g2058
tp2912
F1
s(Vthe
Vsunshine
p2913
tp2914
F1
s(Vjoy
p2915
Vmore
p2916
tp2917
F1
s(g1760
g2835
tp2918
F1
s(Vhand,
p2919
g1864
tp2920
F1
s(Vhappiness?
p2921
V'
tp2922
F1
s(g2364
V]
tp2923
F1
s(Vround
p2924
Vits
p2925
tp2926
F1
s(g383
g2719
tp2927
F2
s(Vgreen
p2928
g2418
tp2929
F1
s(g1676
Vlily,
p2930
tp2931
F1
s(g853
Vof
p2932
tp2933
F2
s(Vlilias
p2934
g1713
tp2935
F1
s(g2860
g121
tp2936
F2
s(Vsky;
p2937
g2021
tp2938
F1
s(Vvoice
p2939
g1880
tp2940
F1
s(g215
g1240
tp2941
F8
s(g2529
Vtemple
tp2942
F1
s(g1898
Vit
tp2943
F1
s(g2170
Vthrough
p2944
tp2945
F1
s(g2179
Vwhich
p2946
tp2947
F1
s(g2509
g694
tp2948
F1
s(g1107
g1586
tp2949
F1
s(g1036
g1165
tp2950
F1
s(Vglimmered
p2951
g323
tp2952
F1
s(Vits
p2953
g1238
tp2954
F1
s(Vto
p2955
Vsome
p2956
tp2957
F1
s(Vblossom
p2958
g983
tp2959
F1
s(g2663
Vof
p2960
tp2961
F1
s(g2217
g2915
tp2962
F1
s(Vcascade.
p2963
g2705
tp2964
F1
s(g2195
g2000
tp2965
F1
s(g2377
Vfrowned
p2966
tp2967
F1
s(Vlily
p2968
g1775
tp2969
F1
s(g2120
g2208
tp2970
F1
s(g2467
g1719
tp2971
F1
s(g1930
Vown
p2972
tp2973
F1
s(Vwest;
p2974
Vso
p2975
tp2976
F1
s(g565
g217
tp2977
F1
s(Vold
g2742
tp2978
F1
s(g1837
g1628
tp2979
F2
s(Vimage](http://etext.virginia.edu/cgi-local/chad-
g560
tp2980
F1
s(g2695
g1683
tp2981
F1
s(g2028
Voften
p2982
tp2983
F1
s(Vfancied
p2984
Vthat
tp2985
F1
s(g333
Vevery
p2986
tp2987
F1
s(Vhad
p2988
Vleft
p2989
tp2990
F1
s(Va
g1231
tp2991
F1
s(g2825
Vgleams
p2992
tp2993
F1
s(Vthe
Vmurderer's
p2994
tp2995
F1
s(g676
g278
tp2996
F1
s(V`here,
p2997
g2251
tp2998
F1
s(g414
g2213
tp2999
F1
s(g1958
g1781
tp3000
F1
s(g1572
g894
tp3001
F1
s(g2516
Vwell
p3002
tp3003
F1
s(g2094
g1802
tp3004
F1
s(g1380
g2658
tp3005
F1
s(Vprayed
p3006
Vto
p3007
tp3008
F1
s(g1710
V\u005c-
tp3009
F1
s(Vfaint
p3010
g907
tp3011
F1
s(g190
g980
tp3012
F1
s(Vold
g1205
tp3013
F1
s(Vand
p3014
g2565
tp3015
F1
s(Vbeen
g2582
tp3016
F1
s(Vmade
p3017
Vof
p3018
tp3019
F1
s(g2007
g840
tp3020
F1
s(g971
Vof
tp3021
F1
s(Vsky,
p3022
Vand
p3023
tp3024
F1
s(V]
V[
tp3025
F7
s(g2496
Vin
tp3026
F1
s(Vfar,
p3027
g2438
tp3028
F1
s(Vthrowing
p3029
g1289
tp3030
F1
s(g2535
Vlovers,
p3031
tp3032
F1
s(g2189
Vcould
p3033
tp3034
F1
s(V]
Vones.
p3035
tp3036
F1
s(g479
g124
tp3037
F1
s(g2569
g967
tp3038
F1
s(g1328
g2552
tp3039
F1
s(Vdelicious
p3040
g281
tp3041
F1
s(g2586
g535
tp3042
F1
s(g1666
Vhis
p3043
tp3044
F1
s(Vremnants
p3045
Vof
tp3046
F1
s(g2878
g2852
tp3047
F1
s(g422
g2100
tp3048
F1
s(Veternity!'
p3049
g2721
tp3050
F1
s(g2329
g760
tp3051
F1
s(g2894
g3027
tp3052
F1
s(Vfrom
p3053
g1511
tp3054
F1
s(g2425
Vsitting
p3055
tp3056
F1
s(g1823
Vold
tp3057
F1
s(Vsun-beams
p3058
g928
tp3059
F1
s(g2288
g1175
tp3060
F1
s(Vthe
Vpurple,
p3061
tp3062
F1
s(g2032
Vdwelt
p3063
tp3064
F1
s(g627
g2016
tp3065
F1
s(g66
g23
tp3066
F18
s(Vearthly
p3067
g1303
tp3068
F1
s(Vshe
p3069
g2833
tp3070
F1
s(Vshould
p3071
g68
tp3072
F1
s(g898
g144
tp3073
F1
s(g2065
g222
tp3074
F1
s(g1424
Vhe
p3075
tp3076
F1
s(Vkinsman.
p3077
V`in
p3078
tp3079
F1
s(g294
g3053
tp3080
F1
s(g926
Vand
tp3081
F1
s(g1342
Von
tp3082
F1
s(Vtemple,
Vwith
p3083
tp3084
F2
s(g1558
Vadam
p3085
tp3086
F4
s(Vlilias
g1068
tp3087
F1
s(g2566
Vsuch
p3088
tp3089
F1
s(Va
g2449
tp3090
F1
s(g1421
Vhearers
p3091
tp3092
F1
s(Vfor
p3093
Vthemselves
p3094
tp3095
F1
s(g1456
g660
tp3096
F3
s(Vsomewhat
p3097
Vtoo
p3098
tp3099
F1
s(g1173
g2831
tp3100
F1
s(g2960
g2928
tp3101
F1
s(g1110
Vand
tp3102
F1
s(g2167
g808
tp3103
F1
s(Vbeen
g2307
tp3104
F1
s(Vas
p3105
Vslight
p3106
tp3107
F1
s(V]
g2018
tp3108
F1
s(g1587
Vflower,
p3109
tp3110
F1
s(g228
Vof
p3111
tp3112
F1
s(g49
g2181
tp3113
F1
s(Vto
p3114
Vcall
p3115
tp3116
F1
s(Valways
p3117
g2046
tp3118
F1
s(g984
Vand
p3119
tp3120
F1
s(g2386
Vmistress
p3121
tp3122
F1
s(g1734
Vdeemed
tp3123
F1
s(Vits
p3124
g1253
tp3125
F1
s(g1521
g732
tp3126
F1
s(g2992
g2629
tp3127
F1
s(Vwas
p3128
g1887
tp3129
F1
s(g2249
g2885
tp3130
F1
s(Vgloomiest
p3131
g2766
tp3132
F1
s(Vlovers
Vwould
p3133
tp3134
F1
s(Vimage](http://etext.virginia.edu/cgi-local/chad-
Vpt/pageturner.pl?id=eaf437&image=437-001.jpg)
p3135
tp3136
F1
s(g509
Vwith
tp3137
F1
s(g2247
Vdesecrate
p3138
tp3139
F1
s(g101
g1482
tp3140
F1
s(g2799
g93
tp3141
F1
s(Vtheir
g2698
tp3142
F1
s(g2160
Vintermingled
p3143
tp3144
F1
s(g1187
g1125
tp3145
F1
s(Vhead
g828
tp3146
F1
s(Vit
p3147
Vhas
p3148
tp3149
F1
s(Vpt/pageturner.pl?id=eaf437&image=437-004.jpg)
p3150
V\u005c-
tp3151
F1
s(Vso
p3152
Vas
p3153
tp3154
F1
s(Vwas
Vwell
p3155
tp3156
F1
s(g1000
g2080
tp3157
F1
s(Vheaven,
p3158
V`on
p3159
tp3160
F1
s(g2391
g889
tp3161
F1
s(Va
Vhill,
p3162
tp3163
F1
s(g1017
g1589
tp3164
F1
s(Vand
p3165
g1822
tp3166
F2
s(g270
g2049
tp3167
F1
s(Vthe
p3168
g2297
tp3169
F1
s(g1387
g2368
tp3170
F1
s(g783
g2051
tp3171
F1
s(Vadam
g675
tp3172
F1
s(Vearthly
Vaffliction
p3173
tp3174
F1
s(Vmalignity
p3175
g2434
tp3176
F1
s(Vwalter
p3177
Vgascoigne,
p3178
tp3179
F2
s(g2502
Vwalled
p3180
tp3181
F1
s(Vcried,
p3182
g3029
tp3183
F1
s(Vthe
p3184
Vwoful
p3185
tp3186
F1
s(g2772
Vthe
p3187
tp3188
F1
s(Vthe
g473
tp3189
F1
s(g2946
g1809
tp3190
F1
s(Vstained
p3191
g1759
tp3192
F1
s(g1197
Vjoy.
p3193
tp3194
F1
s(g978
g1109
tp3195
F1
s(g991
g2030
tp3196
F1
s(g2932
g2164
tp3197
F3
s(Vlegend
p3198
g435
tp3199
F1
s(g931
g722
tp3200
F1
s(Vknew
p3201
g1033
tp3202
F1
s(g2925
g725
tp3203
F1
s(Vhe
g3201
tp3204
F1
s(Vold
g1551
tp3205
F1
s(g1083
Vand,
p3206
tp3207
F1
s(Vnear
p3208
Vrelative
p3209
tp3210
F1
s(g2817
g1733
tp3211
F1
s(Vtheir
p3212
Vhearts
p3213
tp3214
F1
s(g591
g2424
tp3215
F1
s(g35
Vpointed
p3216
tp3217
F1
s(Vdrooped
p3218
Vher
p3219
tp3220
F1
s(g1505
Vthrill
p3221
tp3222
F1
s(g580
Vof
tp3223
F1
s(Vonce
p3224
Vstood
p3225
tp3226
F1
s(g887
Vthis
p3227
tp3228
F1
s(g1731
g1752
tp3229
F1
s(Vsoon
p3230
Vfind
p3231
tp3232
F1
s(Vfor
g2432
tp3233
F1
s(Vhere,
p3234
Va
tp3235
F3
s(V]
g2595
tp3236
F1
s(g952
g2637
tp3237
F6
s(Vimpress
p3238
Vof
tp3239
F1
s(Vshe
p3240
g1789
tp3241
F1
s(g2807
Vthen
tp3242
F1
s(Vold
g2205
tp3243
F1
s(g2397
g526
tp3244
F1
s(g1304
g2603
tp3245
F1
s(g1670
Vwas
tp3246
F1
s(g2291
Vhappening
p3247
tp3248
F1
s(g2090
Vnot
tp3249
F1
s(Vantique
Vtemple---but
p3250
tp3251
F1
s(Va
Vtinge
p3252
tp3253
F2
s(Vadapted
p3254
Vto
tp3255
F1
s(Va
Vsmall
p3256
tp3257
F2
s(Vpage
g2822
tp3258
F1
s(g2059
g1708
tp3259
F1
s(Vlured
p3260
Vhither
p3261
tp3262
F1
s(Vinsanity,
p3263
g2785
tp3264
F1
s(g3007
g1686
tp3265
F3
s(g1849
Va
tp3266
F1
s(g3180
Von
p3267
tp3268
F1
s(g700
g1538
tp3269
F1
s(Vearth's
p3270
g3131
tp3271
F1
s(Va
Vdelightful
p3272
tp3273
F1
s(g1635
Vshade.
p3274
tp3275
F1
s(g489
g2757
tp3276
F1
s(g1598
Vappeared
p3277
tp3278
F1
s(Va
Vdwelling
p3279
tp3280
F1
s(Vlong
Vsince
p3281
tp3282
F1
s(Vwhispering,
p3283
g90
tp3284
F1
s(Vloathsome,
p3285
Vas
p3286
tp3287
F1
s(g336
g2770
tp3288
F1
s(Vas
g187
tp3289
F1
s(g530
g2219
tp3290
F1
s(g2706
g1908
tp3291
F1
s(g2617
Vecho
p3292
tp3293
F1
s(g2850
Vof
tp3294
F1
s(g2956
g2403
tp3295
F1
s(g60
Va
tp3296
F3
s(Vthe
p3297
g2478
tp3298
F2
s(g55
Vpaused.
p3299
tp3300
F1
s(g2840
g2444
tp3301
F1
s(Vdismal
p3302
Vcompanion.
p3303
tp3304
F1
s(g1102
V\u005c-
tp3305
F1
s(Vback
p3306
Vtowards
tp3307
F1
s(g1063
Vit
p3308
tp3309
F2
s(Vpriest
p3310
g3014
tp3311
F1
s(Va
Vgrave
p3312
tp3313
F2
s(g1800
g2809
tp3314
F1
s(g1496
g2988
tp3315
F1
s(Vof
g2753
tp3316
F1
s(g1034
g325
tp3317
F1
s(g2883
g2919
tp3318
F1
s(Vand
p3319
g1853
tp3320
F1
s(g133
V]
tp3321
F1
s(g2782
g1993
tp3322
F1
s(Vof
p3323
g1963
tp3324
F1
s(g2789
Vsmiled,
p3325
tp3326
F1
s(g2407
Vthat
tp3327
F1
s(g174
Vdark-veined
p3328
tp3329
F3
s(Vfrom
p3330
g3212
tp3331
F2
s(Vunutterable
p3332
Vgrief,
p3333
tp3334
F1
s(g1369
g1426
tp3335
F1
s(V`ah!
p3336
g1075
tp3337
F1
s(Va
g88
tp3338
F1
s(Vdark-veined
g2858
tp3339
F1
s(Vfront
p3340
g1555
tp3341
F1
s(Vsternly,
p3342
Vhad
tp3343
F1
s(Vliving
p3344
g1818
tp3345
F1
s(Vbeen
Vwoe,
p3346
tp3347
F1
s(g2254
Vsunshine.
p3348
tp3349
F1
s(Vtime
p3350
g598
tp3351
F1
s(g2916
Vsweet;
p3352
tp3353
F1
s(g2454
g85
tp3354
F1
s(g405
Vbeen
p3355
tp3356
F1
s(Vnot
p3357
g1749
tp3358
F1
s(g2107
g2302
tp3359
F1
s(g555
g2934
tp3360
F1
s(g895
Vand
p3361
tp3362
F1
s(Va
g2501
tp3363
F1
s(g1894
g2633
tp3364
F1
s(Vtrees,
p3365
g2411
tp3366
F1
s(g43
Vthat
p3367
tp3368
F1
s(g2909
Vis
p3369
tp3370
F1
s(g3002
g7
tp3371
F1
s(g2315
Vshall
p3372
tp3373
F1
s(g3206
Valas!
p3374
tp3375
F1
s(g2881
g1334
tp3376
F1
s(Vthey
g1576
tp3377
F1
s(Vdown
p3378
Von
tp3379
F1
s(g2261
Vgloom;
p3380
tp3381
F1
s(g1389
Va
tp3382
F1
s(Vthat
p3383
Vthey
tp3384
F1
s(g609
Va
tp3385
F2
s(g394
g1140
tp3386
F1
s(g890
g3283
tp3387
F1
s(g795
g2197
tp3388
F1
s(Vbe
p3389
g3117
tp3390
F1
s(Vshape
p3391
g2584
tp3392
F1
s(g3031
g669
tp3393
F1
s(g943
g1016
tp3394
F1
s(g2003
g945
tp3395
F1
s(g728
g3067
tp3396
F1
s(Vher
g1295
tp3397
F1
s(g2348
g648
tp3398
F1
s(g1776
g2347
tp3399
F1
s(g812
Vjoy,
p3400
tp3401
F1
s(Va
g1520
tp3402
F1
s(g1133
Vcorpses
p3403
tp3404
F1
s(Vall.
p3405
g2997
tp3406
F1
s(Vwhite
p3407
Vmarble,
p3408
tp3409
F1
s(Vcompanion
p3410
g699
tp3411
F1
s(Vtradition
p3412
Vof
tp3413
F1
s(g2650
Va
tp3414
F1
s(g1453
V\u005c-
tp3415
F1
s(g1375
g846
tp3416
F1
s(g989
g1007
tp3417
F1
s(g63
g2652
tp3418
F1
s(g1222
Vfaintly
p3419
tp3420
F1
s(g3292
Vbetween
tp3421
F1
s(g3419
Vanswered
p3422
tp3423
F1
s(g2913
Vfound
p3424
tp3425
F1
s(Vthe
p3426
Vgossamer,
p3427
tp3428
F1
s(g451
V\u005c-
tp3429
F1
s(g139
V]
tp3430
F1
s(g3061
g1191
tp3431
F1
s(g3209
Vof
tp3432
F1
s(Vand
p3433
g2269
tp3434
F2
s(g297
g2958
tp3435
F1
s(g57
g1208
tp3436
F1
s(Va
Vchurch
p3437
tp3438
F1
s(Vgrave
g864
tp3439
F1
s(Vimage](http://etext.virginia.edu/cgi-local/chad-
g3150
tp3440
F1
s(g3299
V`what
p3441
tp3442
F1
s(Vthis
g958
tp3443
F1
s(Vthis
p3444
Vworld,'
p3445
tp3446
F1
s(g2865
g2117
tp3447
F1
s(g2456
Vthe
p3448
tp3449
F1
s(Vthat
g283
tp3450
F1
s(Vthe
g1371
tp3451
F1
s(g2804
Vlilias,
p3452
tp3453
F1
s(g3452
Vadam
tp3454
F1
s(g723
Vhim,
p3455
tp3456
F1
s(g1779
Vbreeze
p3457
tp3458
F1
s(Va
Vhappier
p3459
tp3460
F1
s(Veyes,
p3461
Vhe
tp3462
F1
s(g2136
g1929
tp3463
F1
s(Venough
p3464
g3254
tp3465
F1
s(Vbuilt
p3466
Vof
p3467
tp3468
F1
s(Vprayer;
p3469
Vhere,
tp3470
F1
s(g1398
Vtheir
tp3471
F1
s(g2875
Vof
tp3472
F1
s(V-
g3340
tp3473
F2
s(g2460
g3389
tp3474
F1
s(g667
g520
tp3475
F1
s(Vhad
g357
tp3476
F1
s(g2273
g3093
tp3477
F1
s(g2148
Vdays,
p3478
tp3479
F1
s(g697
Vwhere
tp3480
F1
s(Vgloomy
p3481
g3077
tp3482
F1
s(g2012
Vthat
tp3483
F1
s(g3448
g685
tp3484
F1
s(g2786
g1770
tp3485
F1
s(g705
g3481
tp3486
F1
s(Vyet
p3487
Vwith
tp3488
F1
s(Vthat
g1040
tp3489
F1
s(g3478
g1950
tp3490
F1
s(g1446
g640
tp3491
F1
s(Vbrightly
p3492
Vin
tp3493
F1
s(Vabsolute
p3494
g3263
tp3495
F1
s(g2811
Vit
tp3496
F1
s(g2643
g562
tp3497
F1
s(g756
Vshall
tp3498
F1
s(g257
V\u005c-
tp3499
F1
s(Vfay.
p3500
g401
tp3501
F1
s(Vdwelling,
p3502
Vand
p3503
tp3504
F1
s(g2700
Vin
p3505
tp3506
F1
s(g2157
g1675
tp3507
F1
s(g3091
Vfelt
p3508
tp3509
F1
s(Vform
p3510
Vof
p3511
tp3512
F2
s(g2525
Vof
tp3513
F2
s(Vthem,
g3152
tp3514
F1
s(Vmuffling
p3515
Vthe
p3516
tp3517
F1
s(g2264
g1544
tp3518
F1
s(g3119
Vspontaneously.
p3519
tp3520
F1
s(Vpurpose;
p3521
g28
tp3522
F1
s(Vhousehold;
p3523
g737
tp3524
F1
s(Vstaff,
p3525
g1266
tp3526
F1
s(g673
g2576
tp3527
F1
s(g1948
Vwaft
p3528
tp3529
F1
s(g3075
g2314
tp3530
F1
s(Vlong
p3531
g1042
tp3532
F1
s(Vlilias
p3533
g3500
tp3534
F1
s(Vthe
Vsun-set
p3535
tp3536
F1
s(g1066
Vbut
p3537
tp3538
F1
s(g2439
g71
tp3539
F2
s(g3159
Va
tp3540
F1
s(g3346
Vnor
p3541
tp3542
F1
s(g3216
g2955
tp3543
F1
s(Vtwo
p3544
Vlovers
p3545
tp3546
F2
s(Vtype
p3547
Vof
p3548
tp3549
F1
s(g3256
g2963
tp3550
F1
s(g1531
g2078
tp3551
F1
s(Vstrange
p3552
g1382
tp3553
F1
s(g881
Vsince,
p3554
tp3555
F1
s(Vlily
g1579
tp3556
F1
s(g1606
g3531
tp3557
F1
s(g1720
g523
tp3558
F1
s(g3548
Vall
p3559
tp3560
F1
s(Vwas
g1657
tp3561
F1
s(g1264
g20
tp3562
F1
s(Vthe
p3563
Vvery
p3564
tp3565
F2
s(Vof
p3566
Vrefined
p3567
tp3568
F1
s(Vof
p3569
g3270
tp3570
F1
s(Vhappiness.
Vin
tp3571
F1
s(g182
g508
tp3572
F1
s(g1633
g1402
tp3573
F1
s(Vvery
p3574
g346
tp3575
F1
s(g3279
Vhad
p3576
tp3577
F1
s(Vdesolate
p3578
g2480
tp3579
F1
s(Vto
p3580
g2009
tp3581
F1
s(g2110
Vthat
tp3582
F1
s(g2904
Vsaid
tp3583
F1
s(Va
g1106
tp3584
F1
s(g1621
g1933
tp3585
F1
s(Va
Vproper
p3586
tp3587
F1
s(g2635
Vwho
tp3588
F1
s(g2152
g2042
tp3589
F1
s(g2245
Vthere
p3590
tp3591
F1
s(g2356
g1595
tp3592
F1
s(Vwas
p3593
Vto
tp3594
F1
s(g2174
Vany
p3595
tp3596
F1
s(g3078
g831
tp3597
F1
s(g2176
g1613
tp3598
F1
s(g764
g2862
tp3599
F1
s(g2596
Vcried
tp3600
F1
s(g1348
g587
tp3601
F1
s(g433
g2736
tp3602
F1
s(g2267
Vsite
p3603
tp3604
F3
s(Vpeople
p3605
Vof
tp3606
F1
s(Vthe
Vedifice
p3607
tp3608
F1
s(g1549
Vsunshine,
p3609
tp3610
F1
s(g2673
Vof
tp3611
F1
s(g1922
g585
tp3612
F2
s(Va
Vlevel
p3613
tp3614
F1
s(Vworld,
p3615
g1374
tp3616
F1
s(g2680
g1966
tp3617
F1
s(g730
g2374
tp3618
F1
s(Vfuture
p3619
Vwoe,
p3620
tp3621
F1
s(g268
g1423
tp3622
F1
s(Vproved;
p3623
Vfor
tp3624
F1
s(g220
g2464
tp3625
F1
s(V-
g2751
tp3626
F1
s(Vthey
p3627
g632
tp3628
F1
s(Vbeing
g3010
tp3629
F1
s(Vthan
p3630
Va
tp3631
F1
s(g946
g1917
tp3632
F1
s(Vher
Vchild,
p3633
tp3634
F1
s(Vno
p3635
g393
tp3636
F1
s(Va
Vpale
p3637
tp3638
F1
s(g3537
Vthere
tp3639
F1
s(g2868
g1408
tp3640
F1
s(g754
Vthe
tp3641
F1
s(g3620
g230
tp3642
F1
s(g1025
g3444
tp3643
F4
s(g3088
Va
tp3644
F2
s(g1441
Vgloomier
p3645
tp3646
F1
s(g924
g3383
tp3647
F1
s(Vsite
p3648
Vwhich
tp3649
F1
s(Vout
p3650
Vupon
tp3651
F1
s(g934
g2939
tp3652
F1
s(Vwe
Vseek
p3653
tp3654
F1
s(g1011
g2178
tp3655
F1
s(Vlovers
Vcould
p3656
tp3657
F1
s(g1872
g455
tp3658
F1
s(g3403
g2154
tp3659
F1
s(g679
g2903
tp3660
F1
s(g2034
g2558
tp3661
F4
s(g2300
V`why
p3662
tp3663
F1
s(Vspot
g2619
tp3664
F1
s(Vthe
Vstain
p3665
tp3666
F1
s(g2038
Von
tp3667
F1
s(Vwas
p3668
g2816
tp3669
F1
s(g481
g2592
tp3670
F1
s(g2101
g18
tp3671
F1
s(Vno
Vbetter
p3672
tp3673
F1
s(Vforrester,
g2416
tp3674
F1
s(g236
g1584
tp3675
F1
s(g1183
g1458
tp3676
F1
s(Vimage](http://etext.virginia.edu/cgi-local/chad-
Vpt/pageturner.pl?id=eaf437&image=eaf-001.jpg)
p3677
tp3678
F1
s(g3554
g1952
tp3679
F1
s(g3535
g2937
tp3680
F1
s(g3213
g1982
tp3681
F1
s(Vwith
p3682
g1339
tp3683
F1
s(Vimage](http://etext.virginia.edu/cgi-local/chad-
g2083
tp3684
F1
s(Vthey
p3685
Vwould
p3686
tp3687
F4
s(g2193
g1168
tp3688
F1
s(g3511
g1844
tp3689
F1
s(g3613
Vspace
p3690
tp3691
F1
s(g786
g3234
tp3692
F1
s(g804
Vhas
p3693
tp3694
F1
s(g1055
Vbehind
p3695
tp3696
F1
s(g3352
Vthere
tp3697
F1
s(g568
g2283
tp3698
F1
s(Vour
Vtemple;
tp3699
F1
s(g1623
g2260
tp3700
F1
s(Vspot
p3701
Vof
p3702
tp3703
F1
s(g3559
g3184
tp3704
F2
s(Vit
p3705
g785
tp3706
F2
s(Vshould
p3707
g3357
tp3708
F1
s(Vfragile,
p3709
Vso
tp3710
F1
s(g247
Va
tp3711
F3
s(g2223
Vand
tp3712
F1
s(Vof
p3713
g819
tp3714
F2
s(Vwould
Vhear
p3715
tp3716
F1
s(g1022
Vof
p3717
tp3718
F1
s(g1745
g3544
tp3719
F1
s(g3083
Vher
tp3720
F1
s(g3225
Vthere,
p3721
tp3722
F1
s(Vcrevices,
p3723
g413
tp3724
F1
s(Vman
Vstood
p3725
tp3726
F1
s(Vthe
g2361
tp3727
F1
s(Vof
p3728
g3040
tp3729
F1
s(Va
g1412
tp3730
F1
s(g2842
g1448
tp3731
F1
s(g3219
Vhead
tp3732
F2
s(Vthe
g3365
tp3733
F1
s(Vthe
g464
tp3734
F1
s(g3109
Vso
tp3735
F1
s(g3277
g1742
tp3736
F1
s(Vthat
p3737
Vfigure
p3738
tp3739
F1
s(g2104
g2169
tp3740
F1
s(g2656
g2173
tp3741
F1
s(Vgreat
p3742
g1631
tp3743
F1
s(Vso,
p3744
g1030
tp3745
F1
s(Vimage](http://etext.virginia.edu/cgi-local/chad-
g625
tp3746
F1
s(g1436
g2470
tp3747
F1
s(g2774
Vold
tp3748
F1
s(g342
Vin
tp3749
F1
s(Vthe
p3750
Vpresence
p3751
tp3752
F1
s(Va
g2776
tp3753
F1
s(Vsmile
p3754
g2573
tp3755
F1
s(g1569
g811
tp3756
F1
s(g908
Vthe
p3757
tp3758
F1
s(g1536
Vgirls
p3759
tp3760
F1
s(g1119
Vadam
tp3761
F1
s(g2380
Vamong
p3762
tp3763
F1
s(g3162
Vwith
tp3764
F1
s(g3121
g113
tp3765
F1
s(Vlilias
g3668
tp3766
F1
s(g3519
g3744
tp3767
F1
s(g96
g3165
tp3768
F2
s(g3564
g3648
tp3769
F1
s(Vif
g3635
tp3770
F1
s(g1443
Vwith
tp3771
F1
s(g1257
g608
tp3772
F1
s(g834
g920
tp3773
F1
s(Vdismal
g3022
tp3774
F1
s(Vthe
g1833
tp3775
F1
s(Vwere
g327
tp3776
F1
s(g962
Vindeed,
p3777
tp3778
F1
s(g2873
g3306
tp3779
F1
s(g623
g2867
tp3780
F1
s(g1515
g915
tp3781
F1
s(g441
g3737
tp3782
F1
s(g3094
Vand
tp3783
F1
s(g3757
g1500
tp3784
F1
s(g516
Vin
tp3785
F1
s(Vthe
Vdell
p3786
tp3787
F1
s(Vancient
g301
tp3788
F1
s(g3541
g1848
tp3789
F1
s(Vto
p3790
g836
tp3791
F1
s(Vthan
p3792
Vthis
p3793
tp3794
F1
s(g3467
g3407
tp3795
F1
s(g1337
g82
tp3796
F1
s(g2240
g3705
tp3797
F1
s(Vtheir
g73
tp3798
F1
s(g3361
g766
tp3799
F1
s(Vthe
Vneighborhood,
p3800
tp3801
F1
s(Vand
p3802
g2244
tp3803
F1
s(Vat
p3804
g2331
tp3805
F3
s(g521
g1405
tp3806
F1
s(g3693
g874
tp3807
F1
s(Vas
p3808
g3426
tp3809
F3
s(g3786
g1019
tp3810
F1
s(g3607
g1997
tp3811
F1
s(Vone
g2486
tp3812
F1
s(Vher
g3502
tp3813
F1
s(Vthe
Vold
tp3814
F6
s(Vwas
g3466
tp3815
F1
s(g1961
g2064
tp3816
F1
s(Va
Vblissful
p3817
tp3818
F1
s(Va
g3410
tp3819
F1
s(g3690
Von
tp3820
F1
s(g3033
g2710
tp3821
F1
s(g3247
g3580
tp3822
F1
s(g2743
g2806
tp3823
F1
s(g1885
Vthrough
tp3824
F1
s(Vthe
g2239
tp3825
F1
s(Vthe
g1608
tp3826
F1
s(g2828
Vfingers
p3827
tp3828
F1
s(Vhis
Vfarewell
p3829
tp3830
F1
s(g2081
g3302
tp3831
F1
s(g74
g1194
tp3832
F1
s(g2731
Vwas
p3833
tp3834
F1
s(Vthe
g900
tp3835
F1
s(g850
g3124
tp3836
F1
s(Vman
p3837
Vand
tp3838
F2
s(g2944
g1975
tp3839
F3
s(g2200
g3593
tp3840
F1
s(g2144
g497
tp3841
F7
s(g2601
g1451
tp3842
F1
s(g3261
Va
tp3843
F1
s(Va
g2494
tp3844
F1
s(g2739
Vto
tp3845
F1
s(g3018
Va
tp3846
F9
s(g1690
g3723
tp3847
F1
s(g3829
g614
tp3848
F1
s(g2533
g3344
tp3849
F1
s(g3528
Vher
p3850
tp3851
F1
s(g2354
Vthe
tp3852
F1
s(g1989
Vupon
p3853
tp3854
F1
s(g2343
g2070
tp3855
F1
s(g2989
Vso
p3856
tp3857
F1
s(g3853
g3405
tp3858
F1
s(g1539
g1004
tp3859
F2
s(g2972
g2093
tp3860
F1
s(Vmight
g1013
tp3861
F1
s(Vwould
g1926
tp3862
F1
s(Vwas
p3863
Vwont
p3864
tp3865
F2
s(g3516
g152
tp3866
F1
s(g1797
g2685
tp3867
F1
s(g3793
g1503
tp3868
F1
s(Va
g3412
tp3869
F1
s(g1195
g3792
tp3870
F1
s(g792
g1694
tp3871
F1
s(g444
Vinto
tp3872
F1
s(g862
g2024
tp3873
F1
s(g3135
V\u005c-
tp3874
F1
s(g1819
g988
tp3875
F1
s(g3827
g2924
tp3876
F1
s(Vthe
g769
tp3877
F1
s(g3751
Vof
tp3878
F1
s(g2546
Vfor
tp3879
F1
s(g3677
V\u005c-
tp3880
F1
s(g1829
g2625
tp3881
F1
s(g612
g3191
tp3882
F1
s(g471
g1508
tp3883
F1
s(Vof
p3884
g1617
tp3885
F1
s(g1236
g753
tp3886
F1
s(g3656
g570
tp3887
F1
s(g1385
Vhad
tp3888
F1
s(g1449
g2492
tp3889
F2
s(g3459
g2393
tp3890
F1
s(g3833
Vthe
tp3891
F2
s(g1203
g2483
tp3892
F1
s(g3369
Vfor
p3893
tp3894
F1
s(Vwith
Van
p3895
tp3896
F1
s(g695
g3128
tp3897
F2
s(Vand
g427
tp3898
F1
s(g3063
g861
tp3899
F1
s(g3567
g3802
tp3900
F1
s(g1160
Vtwo
tp3901
F1
s(g2548
g430
tp3902
F1
s(g1840
g1471
tp3903
F2
s(Vunder
p3904
g3168
tp3905
F1
s(Vhad
g2521
tp3906
F1
s(g1276
Vedge.
tp3907
F1
s(g2863
g1357
tp3908
F1
s(Vfor
p3909
g2447
tp3910
F1
s(g3595
g3574
tp3911
F1
s(g3155
g3464
tp3912
F1
s(g1044
V]
tp3913
F1
s(g374
Vthere,
p3914
tp3915
F1
s(g3367
g1566
tp3916
F1
s(g355
Vmight
p3917
tp3918
F1
s(g3702
g2655
tp3919
F1
s(g3653
g577
tp3920
F1
s(g3914
g208
tp3921
F1
s(g3609
g197
tp3922
F2
s(Vsuch
p3923
g1285
tp3924
F3
s(g2580
g3754
tp3925
F1
s(Vdied
p3926
g2379
tp3927
F1
s(g3308
g1435
tp3928
F1
s(Va
g98
tp3929
F1
s(g380
g2661
tp3930
F1
s(Va
g3547
tp3931
F1
s(g3455
g886
tp3932
F1
s(Vto
g2232
tp3933
F1
s(g3221
Vof
p3934
tp3935
F1
s(g2791
g1400
tp3936
F1
s(g1750
Vprecincts
p3937
tp3938
F1
s(Vthe
V[
tp3939
F2
s(Va
g515
tp3940
F1
s(g2982
g2616
tp3941
F1
s(g3185
g2395
tp3942
F1
s(Vhad
g3926
tp3943
F1
s(g594
Va
tp3944
F4
s(Vlily
g3218
tp3945
F1
s(g2966
g3097
tp3946
F1
s(g2305
Vsome
p3947
tp3948
F1
s(g2278
g3310
tp3949
F1
s(Vfear;
p3950
g3909
tp3951
F1
s(g643
g1957
tp3952
F3
s(Vthe
g3552
tp3953
F1
s(Veyes
Von
tp3954
F1
s(g652
g3319
tp3955
F1
s(g431
g3566
tp3956
F1
s(g2994
g1737
tp3957
F1
s(g884
g307
tp3958
F1
s(g3178
g259
tp3959
F2
s(g1100
g1897
tp3960
F1
s(g1814
g3433
tp3961
F1
s(g3441
g816
tp3962
F1
s(g1980
g1698
tp3963
F1
s(Va
g3208
tp3964
F1
s(g3686
g1360
tp3965
F1
s(g153
g3713
tp3966
F1
s(Vof
g3177
tp3967
F1
s(g710
g3071
tp3968
F1
s(Vher
g3469
tp3969
F1
s(g3043
g1172
tp3970
F1
s(g1138
Vand
tp3971
F1
s(g3695
g1469
tp3972
F1
s(Vthe
p3973
g2475
tp3974
F1
s(g3372
g3230
tp3975
F1
s(g150
g803
tp3976
F1
s(Vlittle
g3350
tp3977
F1
s(g2692
g3650
tp3978
F1
s(g1582
g1571
tp3979
F1
s(g2889
g3510
tp3980
F2
s(g575
g3709
tp3981
F1
s(g1684
Vbut
tp3982
F2
s(g3035
g3627
tp3983
F1
s(Vthe
g1282
tp3984
F1
s(g2489
Vblossom
p3985
tp3986
F1
s(g1904
g3391
tp3987
F1
s(g856
g2089
tp3988
F1
s(g2666
Vthe
tp3989
F1
s(g3672
g1163
tp3990
F1
s(Vpilgrims
g657
tp3991
F1
s(Va
Vburthen
tp3992
F1
s(g2930
g54
tp3993
F1
s(g2359
Vthrough
tp3994
F1
s(Vthe
p3995
g2974
tp3996
F1
s(g3662
Vshould
tp3997
F1
s(g3281
g964
tp3998
F1
s(g2351
Vand
tp3999
F1
s(g1254
g194
tp4000
F1
s(g1166
g2646
tp4001
F1
s(g3777
Van
tp4002
F1
s(g841
g3297
tp4003
F1
s(g2724
g871
tp4004
F1
s(g1867
Vof
tp4005
F1
s(g2445
g2893
tp4006
F2
s(Vthis
g3615
tp4007
F2
s(g1953
g2027
tp4008
F1
s(Vthe
g26
tp4009
F1
s(V]
g2788
tp4010
F1
s(g2726
g3198
tp4011
F1
s(g3374
g2076
tp4012
F1
s(Vside
p4013
g3682
tp4014
F1
s(g408
g272
tp4015
F1
s(g1834
g135
tp4016
F1
s(g2702
g2708
tp4017
F1
s(g3856
g486
tp4018
F1
s(g588
g629
tp4019
F1
s(V-
g539
tp4020
F1
s(Vthe
p4021
g76
tp4022
F1
s(g1243
V[
tp4023
F1
s(g3576
g3224
tp4024
F1
s(g3250
Va
tp4025
F1
s(g2281
g2345
tp4026
F1
s(g250
g2755
tp4027
F1
s(g3603
g1214
tp4028
F3
s(g3328
g1514
tp4029
F1
s(Vpt/pageturner.pl?id=eaf437&image=437-010.jpg)
p4030
V\u005c-
tp4031
F1
s(g3325
g3487
tp4032
F1
s(g3333
Vadam
tp4033
F1
s(g233
g3569
tp4034
F1
s(Vstructure,
p4035
Vand
tp4036
F1
s(Vsat
p4037
g3378
tp4038
F1
s(Vthe
g3238
tp4039
F1
s(Vwhat
p4040
Va
tp4041
F1
s(g1286
g2328
tp4042
F1
s(g1640
g2488
tp4043
F1
s(g3545
Vwith
tp4044
F1
s(g3759
g2679
tp4045
F1
s(g3422
g4021
tp4046
F1
s(g2571
g1903
tp4047
F1
s(g975
g3158
tp4048
F1
s(g2339
g1431
tp4049
F1
s(g2542
g2203
tp4050
F1
s(Va
g1878
tp4051
F1
s(Vthe
g424
tp4052
F1
s(g1638
g4035
tp4053
F1
s(Vit.
p4054
g4040
tp4055
F1
s(g3725
g1615
tp4056
F1
s(g3193
Vit
tp4057
F1
s(g2146
g1475
tp4058
F1
s(g3400
g2578
tp4059
F1
s(g2614
g1796
tp4060
F3
s(g3800
Vthat
tp4061
F1
s(g3864
g3114
tp4062
F2
s(g3937
g3285
tp4063
F1
s(g2504
g1689
tp4064
F1
s(g3633
Vhad
tp4065
F1
s(g37
g2515
tp4066
F1
s(g918
V[
tp4067
F1
s(g1427
Vforth
p4068
tp4069
F1
s(g3055
g1563
tp4070
F1
s(g2097
g3330
tp4071
F1
s(Vpage
g2399
tp4072
F1
s(g3665
Vof
tp4073
F1
s(g11
g1600
tp4074
F1
s(g1477
g2309
tp4075
F1
s(Vyoung
g3837
tp4076
F2
s(g1857
g3525
tp4077
F1
s(g2777
g3923
tp4078
F1
s(Vbeen
g13
tp4079
F1
s(g3762
Vthose
p4080
tp4081
F1
s(g1927
g3728
tp4082
F1
s(Vin
g1560
tp4083
F1
s(g3738
g1235
tp4084
F1
s(g3274
g2466
tp4085
F1
s(g3085
g2044
tp4086
F5
s(g571
g2608
tp4087
F1
s(g2844
g1605
tp4088
F1
s(g177
g3523
tp4089
F1
s(g504
g1002
tp4090
F1
s(g3252
Vof
p4091
tp4092
F2
s(g2891
g1890
tp4093
F1
s(g533
g691
tp4094
F1
s(Vof
g2921
tp4095
F1
s(Vis
p4096
Va
tp4097
F1
s(g292
g902
tp4098
F1
s(g2621
g3058
tp4099
F1
s(g3286
g1226
tp4100
F1
s(g1320
g3630
tp4101
F1
s(Va
g329
tp4102
F1
s(g2550
g470
tp4103
F2
s(g1738
g3147
tp4104
F1
s(g1518
g3515
tp4105
F1
s(g780
g1856
tp4106
F1
s(g3348
Vit
tp4107
F1
s(g2115
Vpathos
p4108
tp4109
F1
s(Va
g800
tp4110
F1
s(Vhave
g2984
tp4111
F1
s(g2897
Vof
tp4112
F1
s(g2623
g2221
tp4113
F1
s(g2887
g3175
tp4114
F1
s(g3817
g2401
tp4115
F1
s(g2237
Vhis
p4116
tp4117
F3
s(g80
g1893
tp4118
F2
s(Vforrester
g3863
tp4119
F1
s(Vbut
Vhe
p4120
tp4121
F1
s(g2162
g2819
tp4122
F1
s(Vthe
g2639
tp4123
F1
s(g3312
Vbeneath
tp4124
F1
s(Va
g1919
tp4125
F1
s(g2559
g3884
tp4126
F1
s(g2599
g2908
tp4127
F1
s(g1861
Vas
tp4128
F1
s(g2901
g2014
tp4129
F1
s(g1915
g3105
tp4130
F1
s(Vand
g4037
tp4131
F1
s(g937
g2056
tp4132
F1
s(g212
g379
tp4133
F1
s(g2473
g642
tp4134
F1
s(g3947
g3742
tp4135
F1
s(g4116
g1517
tp4136
F1
s(Vher
p4137
g2781
tp4138
F1
s(g4080
g1669
tp4139
F1
s(g4068
g3804
tp4140
F1
s(Vsnatch
p4141
g2749
tp4142
F1
s(g1888
Vinto
p4143
tp4144
F1
s(g2123
g3904
tp4145
F1
s(Vtheir
g3521
tp4146
F1
s(g3153
g3790
tp4147
F1
s(g1501
Vby
tp4148
F1
s(g2975
g1973
tp4149
F3
s(g1723
g2429
tp4150
F1
s(g789
g2253
tp4151
F1
s(g3267
Veither
p4152
tp4153
F1
s(g3272
g3701
tp4154
F1
s(g3985
g3492
tp4155
F1
s(g3098
g3342
tp4156
F1
s(g3138
Vthe
tp4157
F1
s(g1005
g116
tp4158
F1
s(g2471
g370
tp4159
F1
s(g94
g2226
tp4160
F1
s(g3106
g3808
tp4161
F1
s(g2762
g246
tp4162
F1
s(g321
g2733
tp4163
F1
s(Vman
Vspoke,
p4164
tp4165
F1
s(g3187
g2441
tp4166
F1
s(g3111
g176
tp4167
F1
s(Vand
p4168
g2641
tp4169
F1
s(g3503
g365
tp4170
F1
s(g1377
Vrite
p4171
tp4172
F1
s(V]
g3332
tp4173
F1
s(g417
Vbuild
tp4174
F2
s(g2853
g2183
tp4175
F1
s(Vthe
g3605
tp4176
F1
s(g3645
Vwith
tp4177
F1
s(Vthan
p4178
Vthis,'
p4179
tp4180
F1
s(Vshould
p4181
g4141
tp4182
F1
s(g997
g1839
tp4183
F1
s(Vgave
p4184
g1038
tp4185
F1
s(g2820
g645
tp4186
F1
s(g3893
g3049
tp4187
F1
s(Vif
g1778
tp4188
F1
s(g3715
g2159
tp4189
F1
s(g3895
g923
tp4190
F1
s(Vwith
p4191
g2002
tp4192
F1
s(g1645
g65
tp4193
F1
s(g4143
g3494
tp4194
F1
s(Vethereal
p4195
g2848
tp4196
F1
s(g3143
g1048
tp4197
F1
s(g2659
g503
tp4198
F1
s(g3637
g2968
tp4199
F1
s(g4120
g4184
tp4200
F1
s(g2047
g2280
tp4201
F1
s(g2295
g513
tp4202
F1
s(g2436
g2138
tp4203
F1
s(g1660
g494
tp4204
F1
s(g2986
Vspot
tp4205
F1
s(Vher
g4195
tp4206
F1
s(Vtheir
g3461
tp4207
F1
s(Vthe
g2613
tp4208
F2
s(g3380
g440
tp4209
F1
s(Vhad
p4210
g3260
tp4211
F1
s(g1567
g852
tp4212
F3
s(g3133
g1177
tp4213
F1
s(g3115
g4137
tp4214
F1
s(g506
Vin
p4215
tp4216
F1
s(g3355
g3017
tp4217
F1
s(Vimage](http://etext.virginia.edu/cgi-local/chad-
g4030
tp4218
F1
s(g3508
Vas
tp4219
F1
s(g726
g910
tp4220
F1
s(g3505
g62
tp4221
F1
s(g2186
g1729
tp4222
F1
s(g733
g825
tp4223
F1
s(g2430
Vthat
tp4224
F1
s(Von,
p4225
g4168
tp4226
F1
s(g2522
g2837
tp4227
F1
s(g3934
g3950
tp4228
F1
s(g1344
g2376
tp4229
F1
s(g4215
g2271
tp4230
F1
s(g1509
g296
tp4231
F1
s(g2563
Vwith
tp4232
F1
s(g1727
Vto
p4233
tp4234
F1
s(g4164
Vadam
tp4235
F1
s(g2519
g3045
tp4236
F1
s(g2870
g3182
tp4237
F1
s(g3303
g1525
tp4238
F1
s(g3850
g1740
tp4239
F1
s(g2025
g4096
tp4240
F1
s(g2285
g1706
tp4241
F1
s(g2484
g4225
tp4242
F1
s(g913
g2649
tp4243
F1
s(g3408
g4191
tp4244
F1
s(Vthe
g1455
tp4245
F1
s(g4108
g2216
tp4246
F1
s(g2442
g2409
tp4247
F1
s(g3148
Va
tp4248
F1
s(g3721
g59
tp4249
F1
s(g878
g2322
tp4250
F1
s(g2760
g2414
tp4251
F1
s(Va
g3578
tp4252
F1
s(g2211
g3619
tp4253
F1
s(Va
g2126
tp4254
F2
s(g1117
g3533
tp4255
F1
s(g3717
g453
tp4256
F1
s(g103
Vhad
p4257
tp4258
F1
s(g419
g1433
tp4259
F1
s(g3227
g763
tp4260
F1
s(g1784
g1419
tp4261
F1
s(g2142
g2768
tp4262
F2
s(g3590
g3685
tp4263
F4
s(g981
g4210
tp4264
F1
s(g447
g1072
tp4265
F1
s(g3586
g1936
tp4266
F1
s(g4233
g2103
tp4267
F1
s(g2574
Vby
tp4268
F1
s(g3427
g3069
tp4269
F1
s(g2764
g3006
tp4270
F1
s(Vstill
g3240
tp4271
F1
s(g206
g1581
tp4272
F1
s(g1070
g3623
tp4273
F1
s(g3231
Va
tp4274
F1
s(Vto
g1185
tp4275
F1
s(g1611
g2527
tp4276
F1
s(g3437
g897
tp4277
F1
s(g3917
g1065
tp4278
F1
s(g185
g3995
tp4279
F2
s(g4179
Vsaid
tp4280
F1
s(g1891
g4178
tp4281
F1
s(g4091
g4054
tp4282
F1
s(g3424
g2953
tp4283
F1
s(g131
g3563
tp4284
F7
s(g4171
g3323
tp4285
F1
s(g3457
g4181
tp4286
F1
s(g2813
g3750
tp4287
F2
s(g3173
g3707
tp4288
F1
s(Va
g235
tp4289
F1
s(Vtemple?'
g3336
tp4290
F1
s(g1146
Va
tp4291
F3
s(g3023
g2951
tp4292
F1
s(g4152
g4013
tp4293
F1
s(g3445
g2802
tp4294
F1
s(g994
g2665
tp4295
F1
s(g940
g1272
tp4296
F4
s(g2450
g3973
tp4297
F2
s(g4257
g518
tp4298
F1
s.